; Listing generated by Microsoft (R) Optimizing Compiler Version 19.16.27045.0 

	TITLE	C:\Users\nhv90\Projects\eech\aphavoc\source\events\ev_debug.c
	.686P
	.XMM
	include listing.inc
	.model	flat

INCLUDELIB MSVCRTD
INCLUDELIB OLDNAMES

PUBLIC	?set_ui_debug_events@@YGXXZ			; set_ui_debug_events
PUBLIC	?set_flight_debug_events@@YGXXZ			; set_flight_debug_events
PUBLIC	?save_screen_image_event@@YGXPAUEVENT@@@Z	; save_screen_image_event
PUBLIC	??$max@H@std@@YGABHABH0@Z			; std::max<int>
PUBLIC	??_C@_02DKCKIIND@?$CFs@				; `string'
PUBLIC	?__LINE__Var@?0??toggle_infinite_weapons_event@@YGXPAUEVENT@@@Z@4JA ; `toggle_infinite_weapons_event'::`1'::__LINE__Var
PUBLIC	??_C@_0DO@EFGBNKOF@c?3?2users?2nhv90?2projects?2eech?2ap@ ; `string'
PUBLIC	??_C@_0BG@EFCJJKAA@get_session_entity?5?$CI?$CJ@ ; `string'
PUBLIC	??_C@_0BJ@BINGEAIK@Disable?5infinite?5weapons@	; `string'
PUBLIC	??_C@_0BI@MNHBIHJB@Enable?5infinite?5weapons@	; `string'
PUBLIC	?__LINE__Var@?0??launch_weapon_event@@YGXPAUEVENT@@@Z@4JA ; `launch_weapon_event'::`1'::__LINE__Var
PUBLIC	?__LINE__Var@?0??launch_persuer_weapon_event@@YGXPAUEVENT@@@Z@4JA ; `launch_persuer_weapon_event'::`1'::__LINE__Var
PUBLIC	?__LINE__Var@?0??select_next_weapon_event@@YGXPAUEVENT@@@Z@4JA ; `select_next_weapon_event'::`1'::__LINE__Var
PUBLIC	?__LINE__Var@?0??select_previous_weapon_event@@YGXPAUEVENT@@@Z@4JA ; `select_previous_weapon_event'::`1'::__LINE__Var
PUBLIC	?__LINE__Var@?0??select_invalid_weapon_event@@YGXPAUEVENT@@@Z@4JA ; `select_invalid_weapon_event'::`1'::__LINE__Var
PUBLIC	?__LINE__Var@?0??select_next_weapon_config_event@@YGXPAUEVENT@@@Z@4JA ; `select_next_weapon_config_event'::`1'::__LINE__Var
PUBLIC	?__LINE__Var@?0??select_previous_weapon_config_event@@YGXPAUEVENT@@@Z@4JA ; `select_previous_weapon_config_event'::`1'::__LINE__Var
PUBLIC	?__LINE__Var@?0??reload_weapon_config_event@@YGXPAUEVENT@@@Z@4JA ; `reload_weapon_config_event'::`1'::__LINE__Var
PUBLIC	?__LINE__Var@?0??unarm_weapon_config_event@@YGXPAUEVENT@@@Z@4JA ; `unarm_weapon_config_event'::`1'::__LINE__Var
PUBLIC	??_C@_0BN@LJPACPLB@Invalid?5cpg?5assist?5type?5?$DN?5?$CFd@ ; `string'
PUBLIC	??_C@_0CA@JHBJEJPC@night_vision_system_active?5?$DN?5?$CFd@ ; `string'
PUBLIC	??_C@_0CJ@KKOIPHL@?9?9?9?9?9?9?9?9?9?9?9?9?9?9?9?9?9?9?9?9?9?9?9?9?9?9?9?9?9?9?9@ ; `string'
PUBLIC	??_C@_0BP@HIKJDBKO@d3d_can_render_to_texture?5?$DN?5?$CFd@ ; `string'
PUBLIC	??_C@_0CI@DAFDHHEB@d3d_can_render_to_texture?5NOT?5S@ ; `string'
PUBLIC	??_C@_0BF@NAINGCLF@simple_avionics?5?$DN?5?$CFd@ ; `string'
PUBLIC	?__LINE__Var@?0??cycle_weather_modes_event@@YGXPAUEVENT@@@Z@4JA ; `cycle_weather_modes_event'::`1'::__LINE__Var
PUBLIC	??_C@_0BP@NCAMAMLK@Weather?5mode?5set?5to?5light?5rain@ ; `string'
PUBLIC	??_C@_0BP@DBFKEOF@Weather?5mode?5set?5to?5heavy?5rain@ ; `string'
PUBLIC	??_C@_0BJ@INEBACJH@Weather?5mode?5set?5to?5snow@ ; `string'
PUBLIC	??_C@_0BI@EDAEAGGF@Weather?5mode?5set?5to?5dry@	; `string'
PUBLIC	?__LINE__Var@?0??set_fine_weather_mode_event@@YGXPAUEVENT@@@Z@4JA ; `set_fine_weather_mode_event'::`1'::__LINE__Var
PUBLIC	?__LINE__Var@?0??toggle_local_weather_model_event@@YGXPAUEVENT@@@Z@4JA ; `toggle_local_weather_model_event'::`1'::__LINE__Var
PUBLIC	?__LINE__Var@?0??increase_session_time_of_day_acceleration@@YGXPAUEVENT@@@Z@4JA ; `increase_session_time_of_day_acceleration'::`1'::__LINE__Var
PUBLIC	??_C@_0CM@HIFEAKOC@Set?5session?5time?5of?5day?5acceler@ ; `string'
PUBLIC	??_C@_0CM@ILKBBLAM@Set?5session?5time?5of?5day?5acceler@ ; `string'
PUBLIC	??_C@_0CM@GKNPOOIN@Set?5session?5time?5of?5day?5acceler@ ; `string'
PUBLIC	?__LINE__Var@?0??reset_session_time_of_day_acceleration@@YGXPAUEVENT@@@Z@4JA ; `reset_session_time_of_day_acceleration'::`1'::__LINE__Var
PUBLIC	??_C@_0CH@OIMAKCLA@Reset?5session?5time?5of?5day?5accel@ ; `string'
PUBLIC	?__LINE__Var@?0??set_demo_time_of_day_acceleration@@YGXPAUEVENT@@@Z@4JA ; `set_demo_time_of_day_acceleration'::`1'::__LINE__Var
PUBLIC	??_C@_0EA@EBAMMFBM@Set?5session?5time?5of?5day?5acceler@ ; `string'
PUBLIC	?__LINE__Var@?0??toggle_infinite_fuel_event@@YGXPAUEVENT@@@Z@4JA ; `toggle_infinite_fuel_event'::`1'::__LINE__Var
PUBLIC	??_C@_0BG@DFHLCANP@Disable?5infinite?5fuel@	; `string'
PUBLIC	??_C@_0BF@LMONGBOO@Enable?5infinite?5fuel@	; `string'
PUBLIC	?__LINE__Var@?0??toggle_suppress_ai_fire_event@@YGXPAUEVENT@@@Z@4JA ; `toggle_suppress_ai_fire_event'::`1'::__LINE__Var
PUBLIC	??_C@_0BJ@ELMDCPHG@Disable?5suppress?5AI?5fire@	; `string'
PUBLIC	??_C@_0BI@JOGEOIGN@Enable?5suppress?5AI?5fire@	; `string'
PUBLIC	?__LINE__Var@?0??toggle_invulnerable_event@@YGXPAUEVENT@@@Z@4JA ; `toggle_invulnerable_event'::`1'::__LINE__Var
PUBLIC	??_C@_0BN@EDBLJMME@Invulnerable?5from?5COLLISIONS@ ; `string'
PUBLIC	??_C@_0BK@OMFONAGP@Invulnerable?5from?5WEAPONS@	; `string'
PUBLIC	??_C@_0CJ@HNAKGFBB@Invulnerable?5from?5COLLISIONS?5an@ ; `string'
PUBLIC	??_C@_0BF@BLKHFHGB@Disable?5invulnerable@	; `string'
PUBLIC	??_C@_0BH@BGFGDBHH@Enable?5AI?5invulnerable@	; `string'
PUBLIC	??_C@_0BI@NBNAMOFF@Disable?5AI?5invulnerable@	; `string'
PUBLIC	?__LINE__Var@?0??set_entity_group_leader_event@@YGXPAUEVENT@@@Z@4JA ; `set_entity_group_leader_event'::`1'::__LINE__Var
PUBLIC	?__LINE__Var@?0??kill_external_view_entity_event@@YGXPAUEVENT@@@Z@4JA ; `kill_external_view_entity_event'::`1'::__LINE__Var
PUBLIC	??_C@_0BO@FKAAOICI@Killing?5external?5view?5entity?$CB@ ; `string'
PUBLIC	?__LINE__Var@?0??damage_external_view_entity_event@@YGXPAUEVENT@@@Z@4JA ; `damage_external_view_entity_event'::`1'::__LINE__Var
PUBLIC	??_C@_0CE@PEGHAJHB@Damage?5external?5view?5entity?$CB?5?$CI?5@ ; `string'
PUBLIC	?__LINE__Var@?0??damage_external_view_entity_main_rotors_event@@YGXPAUEVENT@@@Z@4JA ; `damage_external_view_entity_main_rotors_event'::`1'::__LINE__Var
PUBLIC	??_C@_0CI@FAOFCEPL@Damage?5external?5view?5entity?5mai@ ; `string'
PUBLIC	?__LINE__Var@?0??restore_external_view_entity_main_rotors_event@@YGXPAUEVENT@@@Z@4JA ; `restore_external_view_entity_main_rotors_event'::`1'::__LINE__Var
PUBLIC	??_C@_0CJ@KOJPICJN@Restore?5external?5view?5entity?5ma@ ; `string'
PUBLIC	?__LINE__Var@?0??create_dummy_task_event@@YGXPAUEVENT@@@Z@4JA ; `create_dummy_task_event'::`1'::__LINE__Var
PUBLIC	??_C@_07FBNBNOMI@keysite@			; `string'
PUBLIC	??_C@_0DH@KIHAKAGM@get_local_entity_type?5?$CIkeysite?$CJ@ ; `string'
PUBLIC	??_C@_0DL@JPFIMCFI@EV_DEBUG?3?5created?5task?5but?5coul@ ; `string'
PUBLIC	?__LINE__Var@?0??create_debug_engage_task@@YGXH@Z@4JA ; `create_debug_engage_task'::`1'::__LINE__Var
PUBLIC	??_C@_04GGKLLKOO@task@				; `string'
PUBLIC	?__LINE__Var@?0??debug_entity_task_abort@@YGXPAUEVENT@@@Z@4JA ; `debug_entity_task_abort'::`1'::__LINE__Var
PUBLIC	??_C@_0BL@NOMFLNIG@EV_DEBUG?3?5Aborting?5Task?5?$CFs@ ; `string'
PUBLIC	?__LINE__Var@?0??debug_entity_primary_task_abort@@YGXPAUEVENT@@@Z@4JA ; `debug_entity_primary_task_abort'::`1'::__LINE__Var
PUBLIC	?__LINE__Var@?0??debug_capture_keysite_event@@YGXPAUEVENT@@@Z@4JA ; `debug_capture_keysite_event'::`1'::__LINE__Var
PUBLIC	?__LINE__Var@?0??debug_create_troop_insert_event@@YGXPAUEVENT@@@Z@4JA ; `debug_create_troop_insert_event'::`1'::__LINE__Var
PUBLIC	??_C@_0CN@KPGHLHNA@EV_DEBUG?3?5Created?5TROOP?5INSERTI@ ; `string'
PUBLIC	?__LINE__Var@?0??debug_set_current_language@@YGXPAUEVENT@@@Z@4JA ; `debug_set_current_language'::`1'::__LINE__Var
PUBLIC	??_C@_02DHMHPBFG@ev@				; `string'
PUBLIC	?__LINE__Var@?0??debug_set_entity_group_formation@@YGXPAUEVENT@@@Z@4JA ; `debug_set_entity_group_formation'::`1'::__LINE__Var
PUBLIC	?__LINE__Var@?0??set_external_view_entity_next_waypoint@@YGXPAUEVENT@@@Z@4JA ; `set_external_view_entity_next_waypoint'::`1'::__LINE__Var
PUBLIC	?__LINE__Var@?0??create_debug_advance_task@@YGXPAUEVENT@@@Z@4JA ; `create_debug_advance_task'::`1'::__LINE__Var
PUBLIC	?__LINE__Var@?0??demo_shortcut_event@@YGXPAUEVENT@@@Z@4JA ; `demo_shortcut_event'::`1'::__LINE__Var
PUBLIC	??_C@_0BD@FEEMDEPI@invalid?5comparator@		; `string'
PUBLIC	??_C@_0GK@JMBMHIBC@c?3?2program?5files?5?$CIx86?$CJ?2microsof@ ; `string'
PUBLIC	??_C@_1NE@FKBPBJEB@?$AAc?$AA?3?$AA?2?$AAp?$AAr?$AAo?$AAg?$AAr?$AAa?$AAm?$AA?5?$AAf?$AAi?$AAl?$AAe@ ; `string'
PUBLIC	??_C@_1BC@ICCOKLEG@?$AAs?$AAt?$AAd?$AA?3?$AA?3?$AAm?$AAa?$AAx@ ; `string'
PUBLIC	??_C@_1CK@NDNHPKPI@?$AA?$CC?$AAi?$AAn?$AAv?$AAa?$AAl?$AAi?$AAd?$AA?5?$AAc?$AAo?$AAm?$AAp?$AAa?$AAr@ ; `string'
PUBLIC	__real@0000000000000000
PUBLIC	__real@3f800000
PUBLIC	__real@3ff0000000000000
PUBLIC	__real@40000000
PUBLIC	__real@4082c00000000000
PUBLIC	__real@409c200000000000
PUBLIC	__real@40b3880000000000
PUBLIC	__real@41200000
PUBLIC	__real@41f00000
PUBLIC	__real@43160000
PUBLIC	__real@44160000
PUBLIC	__real@44e10000
PUBLIC	__real@451c4000
PUBLIC	__real@45610000
EXTRN	__imp___invalid_parameter:PROC
EXTRN	__imp___CrtDbgReport:PROC
EXTRN	?process_assert@@YGXPBD0H@Z:PROC		; process_assert
EXTRN	?debug_fatal@@YAXPBDZZ:PROC			; debug_fatal
EXTRN	?debug_log@@YAXPBDZZ:PROC			; debug_log
EXTRN	?debug_colour_log@@YAXW4DEBUG_COLOURS@@PBDZZ:PROC ; debug_colour_log
EXTRN	?set_event@@YGXHHHP6GXPAUEVENT@@@Z@Z:PROC	; set_event
EXTRN	?lock_frame_rate@@YGXM@Z:PROC			; lock_frame_rate
EXTRN	?unlock_frame_rate@@YGXXZ:PROC			; unlock_frame_rate
EXTRN	?save_ui_screen@@YGXPAUEVENT@@@Z:PROC		; save_ui_screen
EXTRN	?dump_aircraft_and_vehicle_count@@YGXXZ:PROC	; dump_aircraft_and_vehicle_count
EXTRN	?notify_local_entity@@YAHW4ENTITY_MESSAGES@@PAUENTITY@@1ZZ:PROC ; notify_local_entity
EXTRN	?insert_local_entity_into_parents_child_list@@YGXPAUENTITY@@W4LIST_TYPES@@00@Z:PROC ; insert_local_entity_into_parents_child_list
EXTRN	?delete_local_entity_from_parents_child_list@@YGXPAUENTITY@@W4LIST_TYPES@@@Z:PROC ; delete_local_entity_from_parents_child_list
EXTRN	?set_client_server_entity_parent@@YGXPAUENTITY@@W4LIST_TYPES@@0@Z:PROC ; set_client_server_entity_parent
EXTRN	?transmit_entity_comms_message@@YAXW4ENTITY_COMMS_MESSAGES@@PAUENTITY@@ZZ:PROC ; transmit_entity_comms_message
EXTRN	?destroy_all_debug_3d_objects@@YGXXZ:PROC	; destroy_all_debug_3d_objects
EXTRN	?destroy_all_debug_3d_lines@@YGXXZ:PROC		; destroy_all_debug_3d_lines
EXTRN	?assess_effectiveness_of_all_weapons_on_entity@@YGXPAUENTITY@@@Z:PROC ; assess_effectiveness_of_all_weapons_on_entity
EXTRN	?toggle_damage_debug_invulnerable_flag@@YGHXZ:PROC ; toggle_damage_debug_invulnerable_flag
EXTRN	?launch_client_server_weapon@@YGXPAUENTITY@@H@Z:PROC ; launch_client_server_weapon
EXTRN	?get_next_available_weapon_sub_type@@YGHPAUENTITY@@@Z:PROC ; get_next_available_weapon_sub_type
EXTRN	?get_previous_available_weapon_sub_type@@YGHPAUENTITY@@@Z:PROC ; get_previous_available_weapon_sub_type
EXTRN	?get_best_weapon_for_target@@YGHPAUENTITY@@0I@Z:PROC ; get_best_weapon_for_target
EXTRN	?initiate_aircraft_crew_ejection@@YGXPAUENTITY@@@Z:PROC ; initiate_aircraft_crew_ejection
EXTRN	?uneject_aircraft_crew@@YGXPAUENTITY@@@Z:PROC	; uneject_aircraft_crew
EXTRN	?set_gunship_entity@@YGXPAUENTITY@@@Z:PROC	; set_gunship_entity
EXTRN	?restore_helicopter_entity@@YGXPAUENTITY@@PAUVEC3D@@W4OPERATIONAL_STATE_TYPES@@@Z:PROC ; restore_helicopter_entity
EXTRN	?get_external_view_entity@@YGPAUENTITY@@XZ:PROC	; get_external_view_entity
EXTRN	?set_group_member_numbers@@YGXPAUENTITY@@@Z:PROC ; set_group_member_numbers
EXTRN	?set_guide_next_waypoint@@YGHPAUENTITY@@@Z:PROC	; set_guide_next_waypoint
EXTRN	?capture_keysite@@YGXPAUENTITY@@W4ENTITY_SIDES@@@Z:PROC ; capture_keysite
EXTRN	?entity_is_object_of_task@@YGHPAUENTITY@@HW4ENTITY_SIDES@@@Z:PROC ; entity_is_object_of_task
EXTRN	?get_local_entity_primary_task@@YGPAUENTITY@@PAU1@@Z:PROC ; get_local_entity_primary_task
EXTRN	?select_external_view@@YGXXZ:PROC		; select_external_view
EXTRN	?set_view_mode@@YGHW4VIEW_MODES@@@Z:PROC	; set_view_mode
EXTRN	?select_view_menu_view_players_target@@YGHXZ:PROC ; select_view_menu_view_players_target
EXTRN	?fully_repair_gunship_damage@@YGXXZ:PROC	; fully_repair_gunship_damage
EXTRN	?partially_repair_gunship_damage@@YGXXZ:PROC	; partially_repair_gunship_damage
EXTRN	?damage_client_server_entity_avionics@@YGXPAUENTITY@@W4GUNSHIP_DAMAGE_LEVELS@@@Z:PROC ; damage_client_server_entity_avionics
EXTRN	?set_gunship_weapon@@YGXH@Z:PROC		; set_gunship_weapon
EXTRN	?save_screen_image_and_viewpoint_data@@YGXXZ:PROC ; save_screen_image_and_viewpoint_data
EXTRN	?delete_screen_image_and_viewpoint_data@@YGXXZ:PROC ; delete_screen_image_and_viewpoint_data
EXTRN	?save_high_res_screen_image@@YGXXZ:PROC		; save_high_res_screen_image
EXTRN	?set_high_res_screen_image_viewangle_1@@YGXXZ:PROC ; set_high_res_screen_image_viewangle_1
EXTRN	?set_high_res_screen_image_viewangle_2@@YGXXZ:PROC ; set_high_res_screen_image_viewangle_2
EXTRN	?set_high_res_screen_image_viewangle_3@@YGXXZ:PROC ; set_high_res_screen_image_viewangle_3
EXTRN	?set_high_res_screen_image_viewangle_4@@YGXXZ:PROC ; set_high_res_screen_image_viewangle_4
EXTRN	?get_road_link_breaks@@YGHHH@Z:PROC		; get_road_link_breaks
EXTRN	?assign_primary_task_to_group@@YGHPAUENTITY@@0@Z:PROC ; assign_primary_task_to_group
EXTRN	?check_group_members_awake@@YGHPAUENTITY@@@Z:PROC ; check_group_members_awake
EXTRN	?debug_engage_targets_in_area@@YGHPAUENTITY@@PAUVEC3D@@MI@Z:PROC ; debug_engage_targets_in_area
EXTRN	?create_cap_task@@YGPAUENTITY@@W4ENTITY_SIDES@@PAU1@1HMM11@Z:PROC ; create_cap_task
EXTRN	?create_troop_insertion_task@@YGPAUENTITY@@W4ENTITY_SIDES@@PAU1@1HM11@Z:PROC ; create_troop_insertion_task
EXTRN	?output_all_influence_maps@@YGXXZ:PROC		; output_all_influence_maps
EXTRN	?d3d_can_render_to_texture@@3HA:DWORD		; d3d_can_render_to_texture
EXTRN	?null_entity_pointer_message@@3PBDB:DWORD	; null_entity_pointer_message
EXTRN	?global_options@@3UGLOBAL_OPTIONS_DATA@@A:BYTE	; global_options
EXTRN	?cpu_count_av@@3NA:QWORD			; cpu_count_av
EXTRN	?cpu_count_av_percent@@3NA:QWORD		; cpu_count_av_percent
EXTRN	?cpu_count_max@@3NA:QWORD			; cpu_count_max
EXTRN	?in_flight_articulation_test@@3HA:DWORD		; in_flight_articulation_test
EXTRN	?in_flight_zoom_test@@3HA:DWORD			; in_flight_zoom_test
EXTRN	?in_flight_debug_misc_info@@3HA:DWORD		; in_flight_debug_misc_info
EXTRN	?in_flight_debug_keysite_info@@3HA:DWORD	; in_flight_debug_keysite_info
EXTRN	?in_flight_debug_force_info@@3HA:DWORD		; in_flight_debug_force_info
EXTRN	?in_flight_external_view_entity_debug_flight_info@@3HA:DWORD ; in_flight_external_view_entity_debug_flight_info
EXTRN	?in_flight_external_view_entity_debug_task_info@@3HA:DWORD ; in_flight_external_view_entity_debug_task_info
EXTRN	?in_flight_external_view_entity_weapon_info@@3HA:DWORD ; in_flight_external_view_entity_weapon_info
EXTRN	?in_flight_external_view_entity_guide_info@@3HA:DWORD ; in_flight_external_view_entity_guide_info
EXTRN	?in_flight_invisible_object@@3HA:DWORD		; in_flight_invisible_object
EXTRN	?in_flight_gunship_target_list_info@@3HA:DWORD	; in_flight_gunship_target_list_info
EXTRN	?system_comms_model@@3W4COMMS_MODEL_TYPES@@A:DWORD ; system_comms_model
EXTRN	?world_map@@3UWORLD_MAP_DATA@@A:BYTE		; world_map
EXTRN	?overload_invalid_list_type_message@@3PBDB:DWORD ; overload_invalid_list_type_message
EXTRN	?fn_get_local_entity_first_child@@3PAY0CN@P6GPAUENTITY@@PAU1@W4LIST_TYPES@@@ZA:BYTE ; fn_get_local_entity_first_child
EXTRN	?fn_get_local_entity_parent@@3PAY0CN@P6GPAUENTITY@@PAU1@W4LIST_TYPES@@@ZA:BYTE ; fn_get_local_entity_parent
EXTRN	?fn_get_local_entity_child_succ@@3PAY0CN@P6GPAUENTITY@@PAU1@W4LIST_TYPES@@@ZA:BYTE ; fn_get_local_entity_child_succ
EXTRN	?overload_invalid_float_type_message@@3PBDB:DWORD ; overload_invalid_float_type_message
EXTRN	?fn_set_local_entity_float_value@@3PAY0KP@P6GXPAUENTITY@@W4FLOAT_TYPES@@M@ZA:BYTE ; fn_set_local_entity_float_value
EXTRN	?fn_set_client_server_entity_float_value@@3PAY1KP@1P6GXPAUENTITY@@W4FLOAT_TYPES@@M@ZA:BYTE ; fn_set_client_server_entity_float_value
EXTRN	?fn_get_local_entity_float_value@@3PAY0KP@P6GMPAUENTITY@@W4FLOAT_TYPES@@@ZA:BYTE ; fn_get_local_entity_float_value
EXTRN	?overload_invalid_int_type_message@@3PBDB:DWORD	; overload_invalid_int_type_message
EXTRN	?fn_set_local_entity_int_value@@3PAY0BBH@P6GXPAUENTITY@@W4INT_TYPES@@H@ZA:BYTE ; fn_set_local_entity_int_value
EXTRN	?fn_set_client_server_entity_int_value@@3PAY1BBH@1P6GXPAUENTITY@@W4INT_TYPES@@H@ZA:BYTE ; fn_set_client_server_entity_int_value
EXTRN	?fn_get_local_entity_int_value@@3PAY0BBH@P6GHPAUENTITY@@W4INT_TYPES@@@ZA:BYTE ; fn_get_local_entity_int_value
EXTRN	?overload_invalid_string_type_message@@3PBDB:DWORD ; overload_invalid_string_type_message
EXTRN	?fn_get_local_entity_string@@3PAY0N@P6GPBDPAUENTITY@@W4STRING_TYPES@@@ZA:BYTE ; fn_get_local_entity_string
EXTRN	?overload_invalid_vec3d_type_message@@3PBDB:DWORD ; overload_invalid_vec3d_type_message
EXTRN	?fn_get_local_entity_vec3d_ptr@@3PAY0BI@P6GPAUVEC3D@@PAUENTITY@@W4VEC3D_TYPES@@@ZA:BYTE ; fn_get_local_entity_vec3d_ptr
EXTRN	?entities@@3PAUENTITY@@A:DWORD			; entities
EXTRN	?draw_collision_boxes@@3HA:DWORD		; draw_collision_boxes
EXTRN	?collision_box_lifetime@@3MA:DWORD		; collision_box_lifetime
EXTRN	?draw_weapon_terrain_los_markers@@3HA:DWORD	; draw_weapon_terrain_los_markers
EXTRN	?gunship_entity@@3PAUENTITY@@A:DWORD		; gunship_entity
EXTRN	?camera_entity@@3PAUENTITY@@A:DWORD		; camera_entity
EXTRN	?group_database@@3PAUGROUP_DATA@@A:BYTE		; group_database
EXTRN	?keysite_database@@3PAUKEYSITE_DATA@@A:BYTE	; keysite_database
EXTRN	?session_entity@@3PAUENTITY@@A:DWORD		; session_entity
EXTRN	?original_d3d_can_render_to_texture@@3HA:DWORD	; original_d3d_can_render_to_texture
EXTRN	?in_cockpit@@3HA:DWORD				; in_cockpit
EXTRN	?record_screen_sequence@@3HA:DWORD		; record_screen_sequence
EXTRN	?draw_eo_boresight@@3HA:DWORD			; draw_eo_boresight
EXTRN	?draw_eo_terrain_los_markers@@3HA:DWORD		; draw_eo_terrain_los_markers
EXTRN	?draw_hms_field_of_view@@3HA:DWORD		; draw_hms_field_of_view
EXTRN	?draw_hms_terrain_los_markers@@3HA:DWORD	; draw_hms_terrain_los_markers
EXTRN	?display_hud_layout_grid@@3HA:DWORD		; display_hud_layout_grid
EXTRN	?display_mfd_layout_grid@@3HA:DWORD		; display_mfd_layout_grid
EXTRN	?night_vision_system_active@@3HA:DWORD		; night_vision_system_active
EXTRN	?draw_radar_sweep@@3HA:DWORD			; draw_radar_sweep
EXTRN	?draw_radar_terrain_los_markers@@3HA:DWORD	; draw_radar_terrain_los_markers
EXTRN	?test_cockpit_instruments@@3HA:DWORD		; test_cockpit_instruments
EXTRN	?draw_virtual_cockpit_needles_on_fixed_cockpits@@3HA:DWORD ; draw_virtual_cockpit_needles_on_fixed_cockpits
EXTRN	?road_nodes@@3PAUNODE_DATA@@A:DWORD		; road_nodes
EXTRN	?road_node_positions@@3PAUVEC3D@@A:DWORD	; road_node_positions
EXTRN	__fltused:DWORD
;	COMDAT __real@45610000
CONST	SEGMENT
__real@45610000 DD 045610000r			; 3600
CONST	ENDS
;	COMDAT __real@451c4000
CONST	SEGMENT
__real@451c4000 DD 0451c4000r			; 2500
CONST	ENDS
;	COMDAT __real@44e10000
CONST	SEGMENT
__real@44e10000 DD 044e10000r			; 1800
CONST	ENDS
;	COMDAT __real@44160000
CONST	SEGMENT
__real@44160000 DD 044160000r			; 600
CONST	ENDS
;	COMDAT __real@43160000
CONST	SEGMENT
__real@43160000 DD 043160000r			; 150
CONST	ENDS
;	COMDAT __real@41f00000
CONST	SEGMENT
__real@41f00000 DD 041f00000r			; 30
CONST	ENDS
;	COMDAT __real@41200000
CONST	SEGMENT
__real@41200000 DD 041200000r			; 10
CONST	ENDS
;	COMDAT __real@40b3880000000000
CONST	SEGMENT
__real@40b3880000000000 DQ 040b3880000000000r	; 5000
CONST	ENDS
;	COMDAT __real@409c200000000000
CONST	SEGMENT
__real@409c200000000000 DQ 0409c200000000000r	; 1800
CONST	ENDS
;	COMDAT __real@4082c00000000000
CONST	SEGMENT
__real@4082c00000000000 DQ 04082c00000000000r	; 600
CONST	ENDS
;	COMDAT __real@40000000
CONST	SEGMENT
__real@40000000 DD 040000000r			; 2
CONST	ENDS
;	COMDAT __real@3ff0000000000000
CONST	SEGMENT
__real@3ff0000000000000 DQ 03ff0000000000000r	; 1
CONST	ENDS
;	COMDAT __real@3f800000
CONST	SEGMENT
__real@3f800000 DD 03f800000r			; 1
CONST	ENDS
;	COMDAT __real@0000000000000000
CONST	SEGMENT
__real@0000000000000000 DQ 00000000000000000r	; 0
CONST	ENDS
;	COMDAT ??_C@_1CK@NDNHPKPI@?$AA?$CC?$AAi?$AAn?$AAv?$AAa?$AAl?$AAi?$AAd?$AA?5?$AAc?$AAo?$AAm?$AAp?$AAa?$AAr@
CONST	SEGMENT
??_C@_1CK@NDNHPKPI@?$AA?$CC?$AAi?$AAn?$AAv?$AAa?$AAl?$AAi?$AAd?$AA?5?$AAc?$AAo?$AAm?$AAp?$AAa?$AAr@ DB '"'
	DB	00H, 'i', 00H, 'n', 00H, 'v', 00H, 'a', 00H, 'l', 00H, 'i', 00H
	DB	'd', 00H, ' ', 00H, 'c', 00H, 'o', 00H, 'm', 00H, 'p', 00H, 'a'
	DB	00H, 'r', 00H, 'a', 00H, 't', 00H, 'o', 00H, 'r', 00H, '"', 00H
	DB	00H, 00H					; `string'
CONST	ENDS
;	COMDAT ??_C@_1BC@ICCOKLEG@?$AAs?$AAt?$AAd?$AA?3?$AA?3?$AAm?$AAa?$AAx@
CONST	SEGMENT
??_C@_1BC@ICCOKLEG@?$AAs?$AAt?$AAd?$AA?3?$AA?3?$AAm?$AAa?$AAx@ DB 's', 00H
	DB	't', 00H, 'd', 00H, ':', 00H, ':', 00H, 'm', 00H, 'a', 00H, 'x'
	DB	00H, 00H, 00H				; `string'
CONST	ENDS
;	COMDAT ??_C@_1NE@FKBPBJEB@?$AAc?$AA?3?$AA?2?$AAp?$AAr?$AAo?$AAg?$AAr?$AAa?$AAm?$AA?5?$AAf?$AAi?$AAl?$AAe@
CONST	SEGMENT
??_C@_1NE@FKBPBJEB@?$AAc?$AA?3?$AA?2?$AAp?$AAr?$AAo?$AAg?$AAr?$AAa?$AAm?$AA?5?$AAf?$AAi?$AAl?$AAe@ DB 'c'
	DB	00H, ':', 00H, '\', 00H, 'p', 00H, 'r', 00H, 'o', 00H, 'g', 00H
	DB	'r', 00H, 'a', 00H, 'm', 00H, ' ', 00H, 'f', 00H, 'i', 00H, 'l'
	DB	00H, 'e', 00H, 's', 00H, ' ', 00H, '(', 00H, 'x', 00H, '8', 00H
	DB	'6', 00H, ')', 00H, '\', 00H, 'm', 00H, 'i', 00H, 'c', 00H, 'r'
	DB	00H, 'o', 00H, 's', 00H, 'o', 00H, 'f', 00H, 't', 00H, ' ', 00H
	DB	'v', 00H, 'i', 00H, 's', 00H, 'u', 00H, 'a', 00H, 'l', 00H, ' '
	DB	00H, 's', 00H, 't', 00H, 'u', 00H, 'd', 00H, 'i', 00H, 'o', 00H
	DB	'\', 00H, '2', 00H, '0', 00H, '1', 00H, '7', 00H, '\', 00H, 'c'
	DB	00H, 'o', 00H, 'm', 00H, 'm', 00H, 'u', 00H, 'n', 00H, 'i', 00H
	DB	't', 00H, 'y', 00H, '\', 00H, 'v', 00H, 'c', 00H, '\', 00H, 't'
	DB	00H, 'o', 00H, 'o', 00H, 'l', 00H, 's', 00H, '\', 00H, 'm', 00H
	DB	's', 00H, 'v', 00H, 'c', 00H, '\', 00H, '1', 00H, '4', 00H, '.'
	DB	00H, '1', 00H, '6', 00H, '.', 00H, '2', 00H, '7', 00H, '0', 00H
	DB	'2', 00H, '3', 00H, '\', 00H, 'i', 00H, 'n', 00H, 'c', 00H, 'l'
	DB	00H, 'u', 00H, 'd', 00H, 'e', 00H, '\', 00H, 'a', 00H, 'l', 00H
	DB	'g', 00H, 'o', 00H, 'r', 00H, 'i', 00H, 't', 00H, 'h', 00H, 'm'
	DB	00H, 00H, 00H				; `string'
CONST	ENDS
;	COMDAT ??_C@_0GK@JMBMHIBC@c?3?2program?5files?5?$CIx86?$CJ?2microsof@
CONST	SEGMENT
??_C@_0GK@JMBMHIBC@c?3?2program?5files?5?$CIx86?$CJ?2microsof@ DB 'c:\pro'
	DB	'gram files (x86)\microsoft visual studio\2017\community\vc\to'
	DB	'ols\msvc\14.16.27023\include\algorithm', 00H ; `string'
CONST	ENDS
;	COMDAT ??_C@_0BD@FEEMDEPI@invalid?5comparator@
CONST	SEGMENT
??_C@_0BD@FEEMDEPI@invalid?5comparator@ DB 'invalid comparator', 00H ; `string'
CONST	ENDS
;	COMDAT ?__LINE__Var@?0??demo_shortcut_event@@YGXPAUEVENT@@@Z@4JA
_DATA	SEGMENT
?__LINE__Var@?0??demo_shortcut_event@@YGXPAUEVENT@@@Z@4JA DD 08beH ; `demo_shortcut_event'::`1'::__LINE__Var
_DATA	ENDS
;	COMDAT ?__LINE__Var@?0??create_debug_advance_task@@YGXPAUEVENT@@@Z@4JA
_DATA	SEGMENT
?__LINE__Var@?0??create_debug_advance_task@@YGXPAUEVENT@@@Z@4JA DD 086cH ; `create_debug_advance_task'::`1'::__LINE__Var
_DATA	ENDS
;	COMDAT ?__LINE__Var@?0??set_external_view_entity_next_waypoint@@YGXPAUEVENT@@@Z@4JA
_DATA	SEGMENT
?__LINE__Var@?0??set_external_view_entity_next_waypoint@@YGXPAUEVENT@@@Z@4JA DD 0813H ; `set_external_view_entity_next_waypoint'::`1'::__LINE__Var
_DATA	ENDS
;	COMDAT ?__LINE__Var@?0??debug_set_entity_group_formation@@YGXPAUEVENT@@@Z@4JA
_DATA	SEGMENT
?__LINE__Var@?0??debug_set_entity_group_formation@@YGXPAUEVENT@@@Z@4JA DD 07c0H ; `debug_set_entity_group_formation'::`1'::__LINE__Var
_DATA	ENDS
;	COMDAT ??_C@_02DHMHPBFG@ev@
CONST	SEGMENT
??_C@_02DHMHPBFG@ev@ DB 'ev', 00H			; `string'
CONST	ENDS
;	COMDAT ?__LINE__Var@?0??debug_set_current_language@@YGXPAUEVENT@@@Z@4JA
_DATA	SEGMENT
?__LINE__Var@?0??debug_set_current_language@@YGXPAUEVENT@@@Z@4JA DD 0795H ; `debug_set_current_language'::`1'::__LINE__Var
_DATA	ENDS
;	COMDAT ??_C@_0CN@KPGHLHNA@EV_DEBUG?3?5Created?5TROOP?5INSERTI@
CONST	SEGMENT
??_C@_0CN@KPGHLHNA@EV_DEBUG?3?5Created?5TROOP?5INSERTI@ DB 'EV_DEBUG: Cre'
	DB	'ated TROOP INSERTION (%d) to %s', 00H	; `string'
CONST	ENDS
;	COMDAT ?__LINE__Var@?0??debug_create_troop_insert_event@@YGXPAUEVENT@@@Z@4JA
_DATA	SEGMENT
?__LINE__Var@?0??debug_create_troop_insert_event@@YGXPAUEVENT@@@Z@4JA DD 075cH ; `debug_create_troop_insert_event'::`1'::__LINE__Var
_DATA	ENDS
;	COMDAT ?__LINE__Var@?0??debug_capture_keysite_event@@YGXPAUEVENT@@@Z@4JA
_DATA	SEGMENT
?__LINE__Var@?0??debug_capture_keysite_event@@YGXPAUEVENT@@@Z@4JA DD 0731H ; `debug_capture_keysite_event'::`1'::__LINE__Var
_DATA	ENDS
;	COMDAT ?__LINE__Var@?0??debug_entity_primary_task_abort@@YGXPAUEVENT@@@Z@4JA
_DATA	SEGMENT
?__LINE__Var@?0??debug_entity_primary_task_abort@@YGXPAUEVENT@@@Z@4JA DD 0715H ; `debug_entity_primary_task_abort'::`1'::__LINE__Var
_DATA	ENDS
;	COMDAT ??_C@_0BL@NOMFLNIG@EV_DEBUG?3?5Aborting?5Task?5?$CFs@
CONST	SEGMENT
??_C@_0BL@NOMFLNIG@EV_DEBUG?3?5Aborting?5Task?5?$CFs@ DB 'EV_DEBUG: Abort'
	DB	'ing Task %s', 00H				; `string'
CONST	ENDS
;	COMDAT ?__LINE__Var@?0??debug_entity_task_abort@@YGXPAUEVENT@@@Z@4JA
_DATA	SEGMENT
?__LINE__Var@?0??debug_entity_task_abort@@YGXPAUEVENT@@@Z@4JA DD 06f6H ; `debug_entity_task_abort'::`1'::__LINE__Var
_DATA	ENDS
;	COMDAT ??_C@_04GGKLLKOO@task@
CONST	SEGMENT
??_C@_04GGKLLKOO@task@ DB 'task', 00H			; `string'
CONST	ENDS
;	COMDAT ?__LINE__Var@?0??create_debug_engage_task@@YGXH@Z@4JA
_DATA	SEGMENT
?__LINE__Var@?0??create_debug_engage_task@@YGXH@Z@4JA DD 0696H ; `create_debug_engage_task'::`1'::__LINE__Var
_DATA	ENDS
;	COMDAT ??_C@_0DL@JPFIMCFI@EV_DEBUG?3?5created?5task?5but?5coul@
CONST	SEGMENT
??_C@_0DL@JPFIMCFI@EV_DEBUG?3?5created?5task?5but?5coul@ DB 'EV_DEBUG: cr'
	DB	'eated task but could not assign it to group %s', 00H ; `string'
CONST	ENDS
;	COMDAT ??_C@_0DH@KIHAKAGM@get_local_entity_type?5?$CIkeysite?$CJ@
CONST	SEGMENT
??_C@_0DH@KIHAKAGM@get_local_entity_type?5?$CIkeysite?$CJ@ DB 'get_local_'
	DB	'entity_type (keysite) == ENTITY_TYPE_KEYSITE', 00H ; `string'
CONST	ENDS
;	COMDAT ??_C@_07FBNBNOMI@keysite@
CONST	SEGMENT
??_C@_07FBNBNOMI@keysite@ DB 'keysite', 00H		; `string'
CONST	ENDS
;	COMDAT ?__LINE__Var@?0??create_dummy_task_event@@YGXPAUEVENT@@@Z@4JA
_DATA	SEGMENT
?__LINE__Var@?0??create_dummy_task_event@@YGXPAUEVENT@@@Z@4JA DD 0636H ; `create_dummy_task_event'::`1'::__LINE__Var
_DATA	ENDS
;	COMDAT ??_C@_0CJ@KOJPICJN@Restore?5external?5view?5entity?5ma@
CONST	SEGMENT
??_C@_0CJ@KOJPICJN@Restore?5external?5view?5entity?5ma@ DB 'Restore exter'
	DB	'nal view entity main rotors', 00H		; `string'
CONST	ENDS
;	COMDAT ?__LINE__Var@?0??restore_external_view_entity_main_rotors_event@@YGXPAUEVENT@@@Z@4JA
_DATA	SEGMENT
?__LINE__Var@?0??restore_external_view_entity_main_rotors_event@@YGXPAUEVENT@@@Z@4JA DD 060dH ; `restore_external_view_entity_main_rotors_event'::`1'::__LINE__Var
_DATA	ENDS
;	COMDAT ??_C@_0CI@FAOFCEPL@Damage?5external?5view?5entity?5mai@
CONST	SEGMENT
??_C@_0CI@FAOFCEPL@Damage?5external?5view?5entity?5mai@ DB 'Damage extern'
	DB	'al view entity main rotors', 00H		; `string'
CONST	ENDS
;	COMDAT ?__LINE__Var@?0??damage_external_view_entity_main_rotors_event@@YGXPAUEVENT@@@Z@4JA
_DATA	SEGMENT
?__LINE__Var@?0??damage_external_view_entity_main_rotors_event@@YGXPAUEVENT@@@Z@4JA DD 05f5H ; `damage_external_view_entity_main_rotors_event'::`1'::__LINE__Var
_DATA	ENDS
;	COMDAT ??_C@_0CE@PEGHAJHB@Damage?5external?5view?5entity?$CB?5?$CI?5@
CONST	SEGMENT
??_C@_0CE@PEGHAJHB@Damage?5external?5view?5entity?$CB?5?$CI?5@ DB 'Damage'
	DB	' external view entity! ( %d )', 00H		; `string'
CONST	ENDS
;	COMDAT ?__LINE__Var@?0??damage_external_view_entity_event@@YGXPAUEVENT@@@Z@4JA
_DATA	SEGMENT
?__LINE__Var@?0??damage_external_view_entity_event@@YGXPAUEVENT@@@Z@4JA DD 05d6H ; `damage_external_view_entity_event'::`1'::__LINE__Var
_DATA	ENDS
;	COMDAT ??_C@_0BO@FKAAOICI@Killing?5external?5view?5entity?$CB@
CONST	SEGMENT
??_C@_0BO@FKAAOICI@Killing?5external?5view?5entity?$CB@ DB 'Killing exter'
	DB	'nal view entity!', 00H			; `string'
CONST	ENDS
;	COMDAT ?__LINE__Var@?0??kill_external_view_entity_event@@YGXPAUEVENT@@@Z@4JA
_DATA	SEGMENT
?__LINE__Var@?0??kill_external_view_entity_event@@YGXPAUEVENT@@@Z@4JA DD 05beH ; `kill_external_view_entity_event'::`1'::__LINE__Var
_DATA	ENDS
;	COMDAT ?__LINE__Var@?0??set_entity_group_leader_event@@YGXPAUEVENT@@@Z@4JA
_DATA	SEGMENT
?__LINE__Var@?0??set_entity_group_leader_event@@YGXPAUEVENT@@@Z@4JA DD 048dH ; `set_entity_group_leader_event'::`1'::__LINE__Var
_DATA	ENDS
;	COMDAT ??_C@_0BI@NBNAMOFF@Disable?5AI?5invulnerable@
CONST	SEGMENT
??_C@_0BI@NBNAMOFF@Disable?5AI?5invulnerable@ DB 'Disable AI invulnerable'
	DB	00H						; `string'
CONST	ENDS
;	COMDAT ??_C@_0BH@BGFGDBHH@Enable?5AI?5invulnerable@
CONST	SEGMENT
??_C@_0BH@BGFGDBHH@Enable?5AI?5invulnerable@ DB 'Enable AI invulnerable', 00H ; `string'
CONST	ENDS
;	COMDAT ??_C@_0BF@BLKHFHGB@Disable?5invulnerable@
CONST	SEGMENT
??_C@_0BF@BLKHFHGB@Disable?5invulnerable@ DB 'Disable invulnerable', 00H ; `string'
CONST	ENDS
;	COMDAT ??_C@_0CJ@HNAKGFBB@Invulnerable?5from?5COLLISIONS?5an@
CONST	SEGMENT
??_C@_0CJ@HNAKGFBB@Invulnerable?5from?5COLLISIONS?5an@ DB 'Invulnerable f'
	DB	'rom COLLISIONS and WEAPONS', 00H		; `string'
CONST	ENDS
;	COMDAT ??_C@_0BK@OMFONAGP@Invulnerable?5from?5WEAPONS@
CONST	SEGMENT
??_C@_0BK@OMFONAGP@Invulnerable?5from?5WEAPONS@ DB 'Invulnerable from WEA'
	DB	'PONS', 00H					; `string'
CONST	ENDS
;	COMDAT ??_C@_0BN@EDBLJMME@Invulnerable?5from?5COLLISIONS@
CONST	SEGMENT
??_C@_0BN@EDBLJMME@Invulnerable?5from?5COLLISIONS@ DB 'Invulnerable from '
	DB	'COLLISIONS', 00H				; `string'
CONST	ENDS
;	COMDAT ?__LINE__Var@?0??toggle_invulnerable_event@@YGXPAUEVENT@@@Z@4JA
_DATA	SEGMENT
?__LINE__Var@?0??toggle_invulnerable_event@@YGXPAUEVENT@@@Z@4JA DD 0425H ; `toggle_invulnerable_event'::`1'::__LINE__Var
_DATA	ENDS
;	COMDAT ??_C@_0BI@JOGEOIGN@Enable?5suppress?5AI?5fire@
CONST	SEGMENT
??_C@_0BI@JOGEOIGN@Enable?5suppress?5AI?5fire@ DB 'Enable suppress AI fir'
	DB	'e', 00H					; `string'
CONST	ENDS
;	COMDAT ??_C@_0BJ@ELMDCPHG@Disable?5suppress?5AI?5fire@
CONST	SEGMENT
??_C@_0BJ@ELMDCPHG@Disable?5suppress?5AI?5fire@ DB 'Disable suppress AI f'
	DB	'ire', 00H					; `string'
CONST	ENDS
;	COMDAT ?__LINE__Var@?0??toggle_suppress_ai_fire_event@@YGXPAUEVENT@@@Z@4JA
_DATA	SEGMENT
?__LINE__Var@?0??toggle_suppress_ai_fire_event@@YGXPAUEVENT@@@Z@4JA DD 040cH ; `toggle_suppress_ai_fire_event'::`1'::__LINE__Var
_DATA	ENDS
;	COMDAT ??_C@_0BF@LMONGBOO@Enable?5infinite?5fuel@
CONST	SEGMENT
??_C@_0BF@LMONGBOO@Enable?5infinite?5fuel@ DB 'Enable infinite fuel', 00H ; `string'
CONST	ENDS
;	COMDAT ??_C@_0BG@DFHLCANP@Disable?5infinite?5fuel@
CONST	SEGMENT
??_C@_0BG@DFHLCANP@Disable?5infinite?5fuel@ DB 'Disable infinite fuel', 00H ; `string'
CONST	ENDS
;	COMDAT ?__LINE__Var@?0??toggle_infinite_fuel_event@@YGXPAUEVENT@@@Z@4JA
_DATA	SEGMENT
?__LINE__Var@?0??toggle_infinite_fuel_event@@YGXPAUEVENT@@@Z@4JA DD 03f3H ; `toggle_infinite_fuel_event'::`1'::__LINE__Var
_DATA	ENDS
;	COMDAT ??_C@_0EA@EBAMMFBM@Set?5session?5time?5of?5day?5acceler@
CONST	SEGMENT
??_C@_0EA@EBAMMFBM@Set?5session?5time?5of?5day?5acceler@ DB 'Set session '
	DB	'time of day acceleration to MIN and skip night-time', 00H ; `string'
CONST	ENDS
;	COMDAT ?__LINE__Var@?0??set_demo_time_of_day_acceleration@@YGXPAUEVENT@@@Z@4JA
_DATA	SEGMENT
?__LINE__Var@?0??set_demo_time_of_day_acceleration@@YGXPAUEVENT@@@Z@4JA DD 03d8H ; `set_demo_time_of_day_acceleration'::`1'::__LINE__Var
_DATA	ENDS
;	COMDAT ??_C@_0CH@OIMAKCLA@Reset?5session?5time?5of?5day?5accel@
CONST	SEGMENT
??_C@_0CH@OIMAKCLA@Reset?5session?5time?5of?5day?5accel@ DB 'Reset sessio'
	DB	'n time of day acceleration', 00H		; `string'
CONST	ENDS
;	COMDAT ?__LINE__Var@?0??reset_session_time_of_day_acceleration@@YGXPAUEVENT@@@Z@4JA
_DATA	SEGMENT
?__LINE__Var@?0??reset_session_time_of_day_acceleration@@YGXPAUEVENT@@@Z@4JA DD 03c6H ; `reset_session_time_of_day_acceleration'::`1'::__LINE__Var
_DATA	ENDS
;	COMDAT ??_C@_0CM@GKNPOOIN@Set?5session?5time?5of?5day?5acceler@
CONST	SEGMENT
??_C@_0CM@GKNPOOIN@Set?5session?5time?5of?5day?5acceler@ DB 'Set session '
	DB	'time of day acceleration to MAX', 00H	; `string'
CONST	ENDS
;	COMDAT ??_C@_0CM@ILKBBLAM@Set?5session?5time?5of?5day?5acceler@
CONST	SEGMENT
??_C@_0CM@ILKBBLAM@Set?5session?5time?5of?5day?5acceler@ DB 'Set session '
	DB	'time of day acceleration to MED', 00H	; `string'
CONST	ENDS
;	COMDAT ??_C@_0CM@HIFEAKOC@Set?5session?5time?5of?5day?5acceler@
CONST	SEGMENT
??_C@_0CM@HIFEAKOC@Set?5session?5time?5of?5day?5acceler@ DB 'Set session '
	DB	'time of day acceleration to MIN', 00H	; `string'
CONST	ENDS
;	COMDAT ?__LINE__Var@?0??increase_session_time_of_day_acceleration@@YGXPAUEVENT@@@Z@4JA
_DATA	SEGMENT
?__LINE__Var@?0??increase_session_time_of_day_acceleration@@YGXPAUEVENT@@@Z@4JA DD 03a2H ; `increase_session_time_of_day_acceleration'::`1'::__LINE__Var
_DATA	ENDS
;	COMDAT ?__LINE__Var@?0??toggle_local_weather_model_event@@YGXPAUEVENT@@@Z@4JA
_DATA	SEGMENT
?__LINE__Var@?0??toggle_local_weather_model_event@@YGXPAUEVENT@@@Z@4JA DD 0394H ; `toggle_local_weather_model_event'::`1'::__LINE__Var
_DATA	ENDS
;	COMDAT ?__LINE__Var@?0??set_fine_weather_mode_event@@YGXPAUEVENT@@@Z@4JA
_DATA	SEGMENT
?__LINE__Var@?0??set_fine_weather_mode_event@@YGXPAUEVENT@@@Z@4JA DD 0383H ; `set_fine_weather_mode_event'::`1'::__LINE__Var
_DATA	ENDS
;	COMDAT ??_C@_0BI@EDAEAGGF@Weather?5mode?5set?5to?5dry@
CONST	SEGMENT
??_C@_0BI@EDAEAGGF@Weather?5mode?5set?5to?5dry@ DB 'Weather mode set to d'
	DB	'ry', 00H					; `string'
CONST	ENDS
;	COMDAT ??_C@_0BJ@INEBACJH@Weather?5mode?5set?5to?5snow@
CONST	SEGMENT
??_C@_0BJ@INEBACJH@Weather?5mode?5set?5to?5snow@ DB 'Weather mode set to '
	DB	'snow', 00H					; `string'
CONST	ENDS
;	COMDAT ??_C@_0BP@DBFKEOF@Weather?5mode?5set?5to?5heavy?5rain@
CONST	SEGMENT
??_C@_0BP@DBFKEOF@Weather?5mode?5set?5to?5heavy?5rain@ DB 'Weather mode s'
	DB	'et to heavy rain', 00H			; `string'
CONST	ENDS
;	COMDAT ??_C@_0BP@NCAMAMLK@Weather?5mode?5set?5to?5light?5rain@
CONST	SEGMENT
??_C@_0BP@NCAMAMLK@Weather?5mode?5set?5to?5light?5rain@ DB 'Weather mode '
	DB	'set to light rain', 00H			; `string'
CONST	ENDS
;	COMDAT ?__LINE__Var@?0??cycle_weather_modes_event@@YGXPAUEVENT@@@Z@4JA
_DATA	SEGMENT
?__LINE__Var@?0??cycle_weather_modes_event@@YGXPAUEVENT@@@Z@4JA DD 034dH ; `cycle_weather_modes_event'::`1'::__LINE__Var
_DATA	ENDS
;	COMDAT ??_C@_0BF@NAINGCLF@simple_avionics?5?$DN?5?$CFd@
CONST	SEGMENT
??_C@_0BF@NAINGCLF@simple_avionics?5?$DN?5?$CFd@ DB 'simple_avionics = %d'
	DB	00H						; `string'
CONST	ENDS
;	COMDAT ??_C@_0CI@DAFDHHEB@d3d_can_render_to_texture?5NOT?5S@
CONST	SEGMENT
??_C@_0CI@DAFDHHEB@d3d_can_render_to_texture?5NOT?5S@ DB 'd3d_can_render_'
	DB	'to_texture NOT SUPPORTED', 00H		; `string'
CONST	ENDS
;	COMDAT ??_C@_0BP@HIKJDBKO@d3d_can_render_to_texture?5?$DN?5?$CFd@
CONST	SEGMENT
??_C@_0BP@HIKJDBKO@d3d_can_render_to_texture?5?$DN?5?$CFd@ DB 'd3d_can_re'
	DB	'nder_to_texture = %d', 00H			; `string'
CONST	ENDS
;	COMDAT ??_C@_0CJ@KKOIPHL@?9?9?9?9?9?9?9?9?9?9?9?9?9?9?9?9?9?9?9?9?9?9?9?9?9?9?9?9?9?9?9@
CONST	SEGMENT
??_C@_0CJ@KKOIPHL@?9?9?9?9?9?9?9?9?9?9?9?9?9?9?9?9?9?9?9?9?9?9?9?9?9?9?9?9?9?9?9@ DB '-'
	DB	'---------------------------------------', 00H ; `string'
CONST	ENDS
;	COMDAT ??_C@_0CA@JHBJEJPC@night_vision_system_active?5?$DN?5?$CFd@
CONST	SEGMENT
??_C@_0CA@JHBJEJPC@night_vision_system_active?5?$DN?5?$CFd@ DB 'night_vis'
	DB	'ion_system_active = %d', 00H		; `string'
CONST	ENDS
;	COMDAT ??_C@_0BN@LJPACPLB@Invalid?5cpg?5assist?5type?5?$DN?5?$CFd@
CONST	SEGMENT
??_C@_0BN@LJPACPLB@Invalid?5cpg?5assist?5type?5?$DN?5?$CFd@ DB 'Invalid c'
	DB	'pg assist type = %d', 00H			; `string'
CONST	ENDS
;	COMDAT ?__LINE__Var@?0??unarm_weapon_config_event@@YGXPAUEVENT@@@Z@4JA
_DATA	SEGMENT
?__LINE__Var@?0??unarm_weapon_config_event@@YGXPAUEVENT@@@Z@4JA DD 0254H ; `unarm_weapon_config_event'::`1'::__LINE__Var
_DATA	ENDS
;	COMDAT ?__LINE__Var@?0??reload_weapon_config_event@@YGXPAUEVENT@@@Z@4JA
_DATA	SEGMENT
?__LINE__Var@?0??reload_weapon_config_event@@YGXPAUEVENT@@@Z@4JA DD 0232H ; `reload_weapon_config_event'::`1'::__LINE__Var
_DATA	ENDS
;	COMDAT ?__LINE__Var@?0??select_previous_weapon_config_event@@YGXPAUEVENT@@@Z@4JA
_DATA	SEGMENT
?__LINE__Var@?0??select_previous_weapon_config_event@@YGXPAUEVENT@@@Z@4JA DD 0207H ; `select_previous_weapon_config_event'::`1'::__LINE__Var
_DATA	ENDS
;	COMDAT ?__LINE__Var@?0??select_next_weapon_config_event@@YGXPAUEVENT@@@Z@4JA
_DATA	SEGMENT
?__LINE__Var@?0??select_next_weapon_config_event@@YGXPAUEVENT@@@Z@4JA DD 01dcH ; `select_next_weapon_config_event'::`1'::__LINE__Var
_DATA	ENDS
;	COMDAT ?__LINE__Var@?0??select_invalid_weapon_event@@YGXPAUEVENT@@@Z@4JA
_DATA	SEGMENT
?__LINE__Var@?0??select_invalid_weapon_event@@YGXPAUEVENT@@@Z@4JA DD 01b5H ; `select_invalid_weapon_event'::`1'::__LINE__Var
_DATA	ENDS
;	COMDAT ?__LINE__Var@?0??select_previous_weapon_event@@YGXPAUEVENT@@@Z@4JA
_DATA	SEGMENT
?__LINE__Var@?0??select_previous_weapon_event@@YGXPAUEVENT@@@Z@4JA DD 018eH ; `select_previous_weapon_event'::`1'::__LINE__Var
_DATA	ENDS
;	COMDAT ?__LINE__Var@?0??select_next_weapon_event@@YGXPAUEVENT@@@Z@4JA
_DATA	SEGMENT
?__LINE__Var@?0??select_next_weapon_event@@YGXPAUEVENT@@@Z@4JA DD 0167H ; `select_next_weapon_event'::`1'::__LINE__Var
_DATA	ENDS
;	COMDAT ?__LINE__Var@?0??launch_persuer_weapon_event@@YGXPAUEVENT@@@Z@4JA
_DATA	SEGMENT
?__LINE__Var@?0??launch_persuer_weapon_event@@YGXPAUEVENT@@@Z@4JA DD 0137H ; `launch_persuer_weapon_event'::`1'::__LINE__Var
_DATA	ENDS
;	COMDAT ?__LINE__Var@?0??launch_weapon_event@@YGXPAUEVENT@@@Z@4JA
_DATA	SEGMENT
?__LINE__Var@?0??launch_weapon_event@@YGXPAUEVENT@@@Z@4JA DD 0bfH ; `launch_weapon_event'::`1'::__LINE__Var
_DATA	ENDS
;	COMDAT ??_C@_0BI@MNHBIHJB@Enable?5infinite?5weapons@
CONST	SEGMENT
??_C@_0BI@MNHBIHJB@Enable?5infinite?5weapons@ DB 'Enable infinite weapons'
	DB	00H						; `string'
CONST	ENDS
;	COMDAT ??_C@_0BJ@BINGEAIK@Disable?5infinite?5weapons@
CONST	SEGMENT
??_C@_0BJ@BINGEAIK@Disable?5infinite?5weapons@ DB 'Disable infinite weapo'
	DB	'ns', 00H					; `string'
CONST	ENDS
;	COMDAT ??_C@_0BG@EFCJJKAA@get_session_entity?5?$CI?$CJ@
CONST	SEGMENT
??_C@_0BG@EFCJJKAA@get_session_entity?5?$CI?$CJ@ DB 'get_session_entity ('
	DB	')', 00H					; `string'
CONST	ENDS
;	COMDAT ??_C@_0DO@EFGBNKOF@c?3?2users?2nhv90?2projects?2eech?2ap@
CONST	SEGMENT
??_C@_0DO@EFGBNKOF@c?3?2users?2nhv90?2projects?2eech?2ap@ DB 'c:\users\nh'
	DB	'v90\projects\eech\aphavoc\source\events\ev_debug.c', 00H ; `string'
CONST	ENDS
;	COMDAT ?__LINE__Var@?0??toggle_infinite_weapons_event@@YGXPAUEVENT@@@Z@4JA
_DATA	SEGMENT
?__LINE__Var@?0??toggle_infinite_weapons_event@@YGXPAUEVENT@@@Z@4JA DD 0a6H ; `toggle_infinite_weapons_event'::`1'::__LINE__Var
_DATA	ENDS
;	COMDAT ??_C@_02DKCKIIND@?$CFs@
CONST	SEGMENT
??_C@_02DKCKIIND@?$CFs@ DB '%s', 00H			; `string'
CONST	ENDS
; Function compile flags: /Odtp /ZI
; File c:\users\nhv90\projects\eech\aphavoc\source\events\ev_debug.c
;	COMDAT ?reset_cpu_info@@YGXPAUEVENT@@@Z
_TEXT	SEGMENT
_ev$ = 8						; size = 4
?reset_cpu_info@@YGXPAUEVENT@@@Z PROC			; reset_cpu_info, COMDAT

; 2258 : {

  00000	55		 push	 ebp
  00001	8b ec		 mov	 ebp, esp
  00003	83 ec 40	 sub	 esp, 64			; 00000040H
  00006	53		 push	 ebx
  00007	56		 push	 esi
  00008	57		 push	 edi

; 2259 : 	cpu_count_av = 0.0;

  00009	0f 57 c0	 xorps	 xmm0, xmm0
  0000c	f2 0f 11 05 00
	00 00 00	 movsd	 QWORD PTR ?cpu_count_av@@3NA, xmm0

; 2260 : 
; 2261 : 	cpu_count_av_percent = 0.0;

  00014	0f 57 c0	 xorps	 xmm0, xmm0
  00017	f2 0f 11 05 00
	00 00 00	 movsd	 QWORD PTR ?cpu_count_av_percent@@3NA, xmm0

; 2262 : 
; 2263 : 	cpu_count_max = 0.0;

  0001f	0f 57 c0	 xorps	 xmm0, xmm0
  00022	f2 0f 11 05 00
	00 00 00	 movsd	 QWORD PTR ?cpu_count_max@@3NA, xmm0

; 2264 : }

  0002a	5f		 pop	 edi
  0002b	5e		 pop	 esi
  0002c	5b		 pop	 ebx
  0002d	8b e5		 mov	 esp, ebp
  0002f	5d		 pop	 ebp
  00030	c2 04 00	 ret	 4
?reset_cpu_info@@YGXPAUEVENT@@@Z ENDP			; reset_cpu_info
_TEXT	ENDS
; Function compile flags: /Odtp /ZI
; File c:\users\nhv90\projects\eech\aphavoc\source\events\ev_debug.c
;	COMDAT ?demo_shortcut_event@@YGXPAUEVENT@@@Z
_TEXT	SEGMENT
tv160 = -72						; size = 4
tv138 = -72						; size = 4
tv84 = -72						; size = 4
tv152 = -68						; size = 4
tv130 = -68						; size = 4
tv76 = -68						; size = 4
_ev$ = 8						; size = 4
?demo_shortcut_event@@YGXPAUEVENT@@@Z PROC		; demo_shortcut_event, COMDAT

; 2238 : {

  00000	55		 push	 ebp
  00001	8b ec		 mov	 ebp, esp
  00003	83 ec 48	 sub	 esp, 72			; 00000048H
  00006	53		 push	 ebx
  00007	56		 push	 esi
  00008	57		 push	 edi

; 2239 : 	ASSERT (get_session_entity ());

  00009	83 3d 00 00 00
	00 00		 cmp	 DWORD PTR ?session_entity@@3PAUENTITY@@A, 0 ; session_entity
  00010	75 18		 jne	 SHORT $LN2@demo_short
  00012	a1 00 00 00 00	 mov	 eax, DWORD PTR ?__LINE__Var@?0??demo_shortcut_event@@YGXPAUEVENT@@@Z@4JA
  00017	83 c0 01	 add	 eax, 1
  0001a	50		 push	 eax
  0001b	68 00 00 00 00	 push	 OFFSET ??_C@_0DO@EFGBNKOF@c?3?2users?2nhv90?2projects?2eech?2ap@
  00020	68 00 00 00 00	 push	 OFFSET ??_C@_0BG@EFCJJKAA@get_session_entity?5?$CI?$CJ@
  00025	e8 00 00 00 00	 call	 ?process_assert@@YGXPBD0H@Z ; process_assert
$LN2@demo_short:

; 2240 : 
; 2241 : 	if (get_comms_model () == COMMS_MODEL_SERVER)

  0002a	83 3d 00 00 00
	00 00		 cmp	 DWORD PTR ?system_comms_model@@3W4COMMS_MODEL_TYPES@@A, 0 ; system_comms_model
  00031	0f 85 c2 01 00
	00		 jne	 $LN3@demo_short

; 2242 : 	{
; 2243 : 		set_client_server_entity_float_value (get_session_entity (), FLOAT_TYPE_TIME_OF_DAY_ACCELERATION, 60.0 * 10.0);

  00037	83 3d 00 00 00
	00 00		 cmp	 DWORD PTR ?session_entity@@3PAUENTITY@@A, 0 ; session_entity
  0003e	74 0c		 je	 SHORT $LN5@demo_short
  00040	a1 00 00 00 00	 mov	 eax, DWORD PTR ?session_entity@@3PAUENTITY@@A ; session_entity
  00045	8b 08		 mov	 ecx, DWORD PTR [eax]
  00047	89 4d bc	 mov	 DWORD PTR tv76[ebp], ecx
  0004a	eb 21		 jmp	 SHORT $LN6@demo_short
$LN5@demo_short:
  0004c	8b 15 00 00 00
	00		 mov	 edx, DWORD PTR ?__LINE__Var@?0??demo_shortcut_event@@YGXPAUEVENT@@@Z@4JA
  00052	83 c2 05	 add	 edx, 5
  00055	52		 push	 edx
  00056	68 00 00 00 00	 push	 OFFSET ??_C@_0DO@EFGBNKOF@c?3?2users?2nhv90?2projects?2eech?2ap@
  0005b	a1 00 00 00 00	 mov	 eax, DWORD PTR ?null_entity_pointer_message@@3PBDB ; null_entity_pointer_message
  00060	50		 push	 eax
  00061	e8 00 00 00 00	 call	 ?process_assert@@YGXPBD0H@Z ; process_assert
  00066	c7 45 bc 00 00
	00 00		 mov	 DWORD PTR tv76[ebp], 0
$LN6@demo_short:
  0006d	b9 01 00 00 00	 mov	 ecx, 1
  00072	85 c9		 test	 ecx, ecx
  00074	74 09		 je	 SHORT $LN7@demo_short
  00076	c7 45 b8 8f 00
	00 00		 mov	 DWORD PTR tv84[ebp], 143 ; 0000008fH
  0007d	eb 21		 jmp	 SHORT $LN8@demo_short
$LN7@demo_short:
  0007f	8b 15 00 00 00
	00		 mov	 edx, DWORD PTR ?__LINE__Var@?0??demo_shortcut_event@@YGXPAUEVENT@@@Z@4JA
  00085	83 c2 05	 add	 edx, 5
  00088	52		 push	 edx
  00089	68 00 00 00 00	 push	 OFFSET ??_C@_0DO@EFGBNKOF@c?3?2users?2nhv90?2projects?2eech?2ap@
  0008e	a1 00 00 00 00	 mov	 eax, DWORD PTR ?overload_invalid_float_type_message@@3PBDB ; overload_invalid_float_type_message
  00093	50		 push	 eax
  00094	e8 00 00 00 00	 call	 ?process_assert@@YGXPBD0H@Z ; process_assert
  00099	c7 45 b8 00 00
	00 00		 mov	 DWORD PTR tv84[ebp], 0
$LN8@demo_short:
  000a0	51		 push	 ecx
  000a1	f3 0f 10 05 00
	00 00 00	 movss	 xmm0, DWORD PTR __real@44160000
  000a9	f3 0f 11 04 24	 movss	 DWORD PTR [esp], xmm0
  000ae	68 8f 00 00 00	 push	 143			; 0000008fH
  000b3	8b 0d 00 00 00
	00		 mov	 ecx, DWORD PTR ?session_entity@@3PAUENTITY@@A ; session_entity
  000b9	51		 push	 ecx
  000ba	69 55 bc 78 05
	00 00		 imul	 edx, DWORD PTR tv76[ebp], 1400
  000c1	8b 45 b8	 mov	 eax, DWORD PTR tv84[ebp]
  000c4	8d 8c c2 00 00
	00 00		 lea	 ecx, DWORD PTR ?fn_set_client_server_entity_float_value@@3PAY1KP@1P6GXPAUENTITY@@W4FLOAT_TYPES@@M@ZA[edx+eax*8]
  000cb	8b 15 00 00 00
	00		 mov	 edx, DWORD PTR ?system_comms_model@@3W4COMMS_MODEL_TYPES@@A ; system_comms_model
  000d1	8b 04 91	 mov	 eax, DWORD PTR [ecx+edx*4]
  000d4	ff d0		 call	 eax

; 2244 : 
; 2245 : 		set_client_server_entity_int_value (get_session_entity (), INT_TYPE_SKIP_NIGHT_TIME, TRUE);

  000d6	83 3d 00 00 00
	00 00		 cmp	 DWORD PTR ?session_entity@@3PAUENTITY@@A, 0 ; session_entity
  000dd	74 0c		 je	 SHORT $LN9@demo_short
  000df	a1 00 00 00 00	 mov	 eax, DWORD PTR ?session_entity@@3PAUENTITY@@A ; session_entity
  000e4	8b 08		 mov	 ecx, DWORD PTR [eax]
  000e6	89 4d bc	 mov	 DWORD PTR tv130[ebp], ecx
  000e9	eb 21		 jmp	 SHORT $LN10@demo_short
$LN9@demo_short:
  000eb	8b 15 00 00 00
	00		 mov	 edx, DWORD PTR ?__LINE__Var@?0??demo_shortcut_event@@YGXPAUEVENT@@@Z@4JA
  000f1	83 c2 07	 add	 edx, 7
  000f4	52		 push	 edx
  000f5	68 00 00 00 00	 push	 OFFSET ??_C@_0DO@EFGBNKOF@c?3?2users?2nhv90?2projects?2eech?2ap@
  000fa	a1 00 00 00 00	 mov	 eax, DWORD PTR ?null_entity_pointer_message@@3PBDB ; null_entity_pointer_message
  000ff	50		 push	 eax
  00100	e8 00 00 00 00	 call	 ?process_assert@@YGXPBD0H@Z ; process_assert
  00105	c7 45 bc 00 00
	00 00		 mov	 DWORD PTR tv130[ebp], 0
$LN10@demo_short:
  0010c	b9 01 00 00 00	 mov	 ecx, 1
  00111	85 c9		 test	 ecx, ecx
  00113	74 09		 je	 SHORT $LN11@demo_short
  00115	c7 45 b8 bc 00
	00 00		 mov	 DWORD PTR tv138[ebp], 188 ; 000000bcH
  0011c	eb 21		 jmp	 SHORT $LN12@demo_short
$LN11@demo_short:
  0011e	8b 15 00 00 00
	00		 mov	 edx, DWORD PTR ?__LINE__Var@?0??demo_shortcut_event@@YGXPAUEVENT@@@Z@4JA
  00124	83 c2 07	 add	 edx, 7
  00127	52		 push	 edx
  00128	68 00 00 00 00	 push	 OFFSET ??_C@_0DO@EFGBNKOF@c?3?2users?2nhv90?2projects?2eech?2ap@
  0012d	a1 00 00 00 00	 mov	 eax, DWORD PTR ?overload_invalid_int_type_message@@3PBDB ; overload_invalid_int_type_message
  00132	50		 push	 eax
  00133	e8 00 00 00 00	 call	 ?process_assert@@YGXPBD0H@Z ; process_assert
  00138	c7 45 b8 00 00
	00 00		 mov	 DWORD PTR tv138[ebp], 0
$LN12@demo_short:
  0013f	6a 01		 push	 1
  00141	68 bc 00 00 00	 push	 188			; 000000bcH
  00146	8b 0d 00 00 00
	00		 mov	 ecx, DWORD PTR ?session_entity@@3PAUENTITY@@A ; session_entity
  0014c	51		 push	 ecx
  0014d	69 55 bc b8 08
	00 00		 imul	 edx, DWORD PTR tv130[ebp], 2232
  00154	8b 45 b8	 mov	 eax, DWORD PTR tv138[ebp]
  00157	8d 8c c2 00 00
	00 00		 lea	 ecx, DWORD PTR ?fn_set_client_server_entity_int_value@@3PAY1BBH@1P6GXPAUENTITY@@W4INT_TYPES@@H@ZA[edx+eax*8]
  0015e	8b 15 00 00 00
	00		 mov	 edx, DWORD PTR ?system_comms_model@@3W4COMMS_MODEL_TYPES@@A ; system_comms_model
  00164	8b 04 91	 mov	 eax, DWORD PTR [ecx+edx*4]
  00167	ff d0		 call	 eax

; 2246 : 
; 2247 : 		set_client_server_entity_int_value (get_session_entity (), INT_TYPE_INFINITE_WEAPONS, TRUE);

  00169	83 3d 00 00 00
	00 00		 cmp	 DWORD PTR ?session_entity@@3PAUENTITY@@A, 0 ; session_entity
  00170	74 0c		 je	 SHORT $LN13@demo_short
  00172	a1 00 00 00 00	 mov	 eax, DWORD PTR ?session_entity@@3PAUENTITY@@A ; session_entity
  00177	8b 08		 mov	 ecx, DWORD PTR [eax]
  00179	89 4d bc	 mov	 DWORD PTR tv152[ebp], ecx
  0017c	eb 21		 jmp	 SHORT $LN14@demo_short
$LN13@demo_short:
  0017e	8b 15 00 00 00
	00		 mov	 edx, DWORD PTR ?__LINE__Var@?0??demo_shortcut_event@@YGXPAUEVENT@@@Z@4JA
  00184	83 c2 09	 add	 edx, 9
  00187	52		 push	 edx
  00188	68 00 00 00 00	 push	 OFFSET ??_C@_0DO@EFGBNKOF@c?3?2users?2nhv90?2projects?2eech?2ap@
  0018d	a1 00 00 00 00	 mov	 eax, DWORD PTR ?null_entity_pointer_message@@3PBDB ; null_entity_pointer_message
  00192	50		 push	 eax
  00193	e8 00 00 00 00	 call	 ?process_assert@@YGXPBD0H@Z ; process_assert
  00198	c7 45 bc 00 00
	00 00		 mov	 DWORD PTR tv152[ebp], 0
$LN14@demo_short:
  0019f	b9 01 00 00 00	 mov	 ecx, 1
  001a4	85 c9		 test	 ecx, ecx
  001a6	74 09		 je	 SHORT $LN15@demo_short
  001a8	c7 45 b8 67 00
	00 00		 mov	 DWORD PTR tv160[ebp], 103 ; 00000067H
  001af	eb 21		 jmp	 SHORT $LN16@demo_short
$LN15@demo_short:
  001b1	8b 15 00 00 00
	00		 mov	 edx, DWORD PTR ?__LINE__Var@?0??demo_shortcut_event@@YGXPAUEVENT@@@Z@4JA
  001b7	83 c2 09	 add	 edx, 9
  001ba	52		 push	 edx
  001bb	68 00 00 00 00	 push	 OFFSET ??_C@_0DO@EFGBNKOF@c?3?2users?2nhv90?2projects?2eech?2ap@
  001c0	a1 00 00 00 00	 mov	 eax, DWORD PTR ?overload_invalid_int_type_message@@3PBDB ; overload_invalid_int_type_message
  001c5	50		 push	 eax
  001c6	e8 00 00 00 00	 call	 ?process_assert@@YGXPBD0H@Z ; process_assert
  001cb	c7 45 b8 00 00
	00 00		 mov	 DWORD PTR tv160[ebp], 0
$LN16@demo_short:
  001d2	6a 01		 push	 1
  001d4	6a 67		 push	 103			; 00000067H
  001d6	8b 0d 00 00 00
	00		 mov	 ecx, DWORD PTR ?session_entity@@3PAUENTITY@@A ; session_entity
  001dc	51		 push	 ecx
  001dd	69 55 bc b8 08
	00 00		 imul	 edx, DWORD PTR tv152[ebp], 2232
  001e4	8b 45 b8	 mov	 eax, DWORD PTR tv160[ebp]
  001e7	8d 8c c2 00 00
	00 00		 lea	 ecx, DWORD PTR ?fn_set_client_server_entity_int_value@@3PAY1BBH@1P6GXPAUENTITY@@W4INT_TYPES@@H@ZA[edx+eax*8]
  001ee	8b 15 00 00 00
	00		 mov	 edx, DWORD PTR ?system_comms_model@@3W4COMMS_MODEL_TYPES@@A ; system_comms_model
  001f4	8b 04 91	 mov	 eax, DWORD PTR [ecx+edx*4]
  001f7	ff d0		 call	 eax
$LN3@demo_short:

; 2248 : 	}
; 2249 : 
; 2250 : 	notify_local_entity (ENTITY_MESSAGE_SET_CAMERA_ACTION, get_camera_entity (), NULL, CAMERA_ACTION_AUTO_EDIT);

  001f9	6a 0d		 push	 13			; 0000000dH
  001fb	6a 00		 push	 0
  001fd	a1 00 00 00 00	 mov	 eax, DWORD PTR ?camera_entity@@3PAUENTITY@@A ; camera_entity
  00202	50		 push	 eax
  00203	6a 2f		 push	 47			; 0000002fH
  00205	e8 00 00 00 00	 call	 ?notify_local_entity@@YAHW4ENTITY_MESSAGES@@PAUENTITY@@1ZZ ; notify_local_entity
  0020a	83 c4 10	 add	 esp, 16			; 00000010H

; 2251 : }

  0020d	5f		 pop	 edi
  0020e	5e		 pop	 esi
  0020f	5b		 pop	 ebx
  00210	8b e5		 mov	 esp, ebp
  00212	5d		 pop	 ebp
  00213	c2 04 00	 ret	 4
?demo_shortcut_event@@YGXPAUEVENT@@@Z ENDP		; demo_shortcut_event
_TEXT	ENDS
; Function compile flags: /Odtp /ZI
; File c:\users\nhv90\projects\eech\aphavoc\source\events\ev_debug.c
;	COMDAT ?create_debug_advance_task@@YGXPAUEVENT@@@Z
_TEXT	SEGMENT
tv219 = -104						; size = 4
tv199 = -104						; size = 4
tv175 = -104						; size = 4
tv156 = -104						; size = 4
tv133 = -104						; size = 4
tv80 = -104						; size = 4
tv211 = -100						; size = 4
tv191 = -100						; size = 4
tv168 = -100						; size = 4
tv149 = -100						; size = 4
tv93 = -100						; size = 4
tv72 = -100						; size = 4
_node_pos$ = -32					; size = 4
_to_node$ = -28						; size = 4
_from_node$ = -24					; size = 4
_node$ = -20						; size = 4
_side$ = -16						; size = 4
_sub_type$ = -12					; size = 4
_group$ = -8						; size = 4
_en$ = -4						; size = 4
_ev$ = 8						; size = 4
?create_debug_advance_task@@YGXPAUEVENT@@@Z PROC	; create_debug_advance_task, COMDAT

; 2156 : {

  00000	55		 push	 ebp
  00001	8b ec		 mov	 ebp, esp
  00003	83 ec 68	 sub	 esp, 104		; 00000068H
  00006	53		 push	 ebx
  00007	56		 push	 esi
  00008	57		 push	 edi

; 2157 : 	entity
; 2158 : 		*en,
; 2159 : 		*group;
; 2160 : 
; 2161 : 	entity_sub_types
; 2162 : 		sub_type;
; 2163 : 
; 2164 : 	entity_sides
; 2165 : 		side;
; 2166 : 
; 2167 : 	unsigned int
; 2168 : 		node;
; 2169 : 
; 2170 : 	int
; 2171 : 		from_node,
; 2172 : 		to_node;
; 2173 : 
; 2174 : 	vec3d
; 2175 : 		*node_pos;
; 2176 : 
; 2177 : 	en = get_external_view_entity ();

  00009	e8 00 00 00 00	 call	 ?get_external_view_entity@@YGPAUENTITY@@XZ ; get_external_view_entity
  0000e	89 45 fc	 mov	 DWORD PTR _en$[ebp], eax

; 2178 : 
; 2179 : 	if (en)

  00011	83 7d fc 00	 cmp	 DWORD PTR _en$[ebp], 0
  00015	0f 84 5c 04 00
	00		 je	 $LN3@create_deb

; 2180 : 	{
; 2181 : 		group = get_local_entity_parent (en, LIST_TYPE_MEMBER);

  0001b	83 7d fc 00	 cmp	 DWORD PTR _en$[ebp], 0
  0001f	74 0a		 je	 SHORT $LN16@create_deb
  00021	8b 45 fc	 mov	 eax, DWORD PTR _en$[ebp]
  00024	8b 08		 mov	 ecx, DWORD PTR [eax]
  00026	89 4d 9c	 mov	 DWORD PTR tv72[ebp], ecx
  00029	eb 21		 jmp	 SHORT $LN17@create_deb
$LN16@create_deb:
  0002b	8b 15 00 00 00
	00		 mov	 edx, DWORD PTR ?__LINE__Var@?0??create_debug_advance_task@@YGXPAUEVENT@@@Z@4JA
  00031	83 c2 19	 add	 edx, 25			; 00000019H
  00034	52		 push	 edx
  00035	68 00 00 00 00	 push	 OFFSET ??_C@_0DO@EFGBNKOF@c?3?2users?2nhv90?2projects?2eech?2ap@
  0003a	a1 00 00 00 00	 mov	 eax, DWORD PTR ?null_entity_pointer_message@@3PBDB ; null_entity_pointer_message
  0003f	50		 push	 eax
  00040	e8 00 00 00 00	 call	 ?process_assert@@YGXPBD0H@Z ; process_assert
  00045	c7 45 9c 00 00
	00 00		 mov	 DWORD PTR tv72[ebp], 0
$LN17@create_deb:
  0004c	b9 01 00 00 00	 mov	 ecx, 1
  00051	85 c9		 test	 ecx, ecx
  00053	74 09		 je	 SHORT $LN18@create_deb
  00055	c7 45 98 19 00
	00 00		 mov	 DWORD PTR tv80[ebp], 25	; 00000019H
  0005c	eb 21		 jmp	 SHORT $LN19@create_deb
$LN18@create_deb:
  0005e	8b 15 00 00 00
	00		 mov	 edx, DWORD PTR ?__LINE__Var@?0??create_debug_advance_task@@YGXPAUEVENT@@@Z@4JA
  00064	83 c2 19	 add	 edx, 25			; 00000019H
  00067	52		 push	 edx
  00068	68 00 00 00 00	 push	 OFFSET ??_C@_0DO@EFGBNKOF@c?3?2users?2nhv90?2projects?2eech?2ap@
  0006d	a1 00 00 00 00	 mov	 eax, DWORD PTR ?overload_invalid_list_type_message@@3PBDB ; overload_invalid_list_type_message
  00072	50		 push	 eax
  00073	e8 00 00 00 00	 call	 ?process_assert@@YGXPBD0H@Z ; process_assert
  00078	c7 45 98 00 00
	00 00		 mov	 DWORD PTR tv80[ebp], 0
$LN19@create_deb:
  0007f	6a 19		 push	 25			; 00000019H
  00081	8b 4d fc	 mov	 ecx, DWORD PTR _en$[ebp]
  00084	51		 push	 ecx
  00085	69 55 9c b4 00
	00 00		 imul	 edx, DWORD PTR tv72[ebp], 180
  0008c	8b 45 98	 mov	 eax, DWORD PTR tv80[ebp]
  0008f	8b 8c 82 00 00
	00 00		 mov	 ecx, DWORD PTR ?fn_get_local_entity_parent@@3PAY0CN@P6GPAUENTITY@@PAU1@W4LIST_TYPES@@@ZA[edx+eax*4]
  00096	ff d1		 call	 ecx
  00098	89 45 f8	 mov	 DWORD PTR _group$[ebp], eax

; 2182 : 
; 2183 : 		if (group)

  0009b	83 7d f8 00	 cmp	 DWORD PTR _group$[ebp], 0
  0009f	0f 84 d2 03 00
	00		 je	 $LN3@create_deb

; 2184 : 		{
; 2185 : 			sub_type = get_local_entity_int_value (group, INT_TYPE_ENTITY_SUB_TYPE);

  000a5	83 7d f8 00	 cmp	 DWORD PTR _group$[ebp], 0
  000a9	74 0a		 je	 SHORT $LN20@create_deb
  000ab	8b 45 f8	 mov	 eax, DWORD PTR _group$[ebp]
  000ae	8b 08		 mov	 ecx, DWORD PTR [eax]
  000b0	89 4d 9c	 mov	 DWORD PTR tv93[ebp], ecx
  000b3	eb 21		 jmp	 SHORT $LN21@create_deb
$LN20@create_deb:
  000b5	8b 15 00 00 00
	00		 mov	 edx, DWORD PTR ?__LINE__Var@?0??create_debug_advance_task@@YGXPAUEVENT@@@Z@4JA
  000bb	83 c2 1d	 add	 edx, 29			; 0000001dH
  000be	52		 push	 edx
  000bf	68 00 00 00 00	 push	 OFFSET ??_C@_0DO@EFGBNKOF@c?3?2users?2nhv90?2projects?2eech?2ap@
  000c4	a1 00 00 00 00	 mov	 eax, DWORD PTR ?null_entity_pointer_message@@3PBDB ; null_entity_pointer_message
  000c9	50		 push	 eax
  000ca	e8 00 00 00 00	 call	 ?process_assert@@YGXPBD0H@Z ; process_assert
  000cf	c7 45 9c 00 00
	00 00		 mov	 DWORD PTR tv93[ebp], 0
$LN21@create_deb:
  000d6	b9 01 00 00 00	 mov	 ecx, 1
  000db	85 c9		 test	 ecx, ecx
  000dd	74 09		 je	 SHORT $LN22@create_deb
  000df	c7 45 98 34 00
	00 00		 mov	 DWORD PTR tv133[ebp], 52 ; 00000034H
  000e6	eb 21		 jmp	 SHORT $LN23@create_deb
$LN22@create_deb:
  000e8	8b 15 00 00 00
	00		 mov	 edx, DWORD PTR ?__LINE__Var@?0??create_debug_advance_task@@YGXPAUEVENT@@@Z@4JA
  000ee	83 c2 1d	 add	 edx, 29			; 0000001dH
  000f1	52		 push	 edx
  000f2	68 00 00 00 00	 push	 OFFSET ??_C@_0DO@EFGBNKOF@c?3?2users?2nhv90?2projects?2eech?2ap@
  000f7	a1 00 00 00 00	 mov	 eax, DWORD PTR ?overload_invalid_int_type_message@@3PBDB ; overload_invalid_int_type_message
  000fc	50		 push	 eax
  000fd	e8 00 00 00 00	 call	 ?process_assert@@YGXPBD0H@Z ; process_assert
  00102	c7 45 98 00 00
	00 00		 mov	 DWORD PTR tv133[ebp], 0
$LN23@create_deb:
  00109	6a 34		 push	 52			; 00000034H
  0010b	8b 4d f8	 mov	 ecx, DWORD PTR _group$[ebp]
  0010e	51		 push	 ecx
  0010f	69 55 9c 5c 04
	00 00		 imul	 edx, DWORD PTR tv93[ebp], 1116
  00116	8b 45 98	 mov	 eax, DWORD PTR tv133[ebp]
  00119	8b 8c 82 00 00
	00 00		 mov	 ecx, DWORD PTR ?fn_get_local_entity_int_value@@3PAY0BBH@P6GHPAUENTITY@@W4INT_TYPES@@@ZA[edx+eax*4]
  00120	ff d1		 call	 ecx
  00122	89 45 f4	 mov	 DWORD PTR _sub_type$[ebp], eax

; 2186 : 			
; 2187 : 			if (group_database [sub_type].frontline_flag)

  00125	6b 45 f4 64	 imul	 eax, DWORD PTR _sub_type$[ebp], 100
  00129	8b 88 48 00 00
	00		 mov	 ecx, DWORD PTR ?group_database@@3PAUGROUP_DATA@@A[eax+72]
  0012f	83 e1 03	 and	 ecx, 3
  00132	0f 84 3f 03 00
	00		 je	 $LN3@create_deb

; 2188 : 			{
; 2189 : 				if (get_local_entity_int_value (group, INT_TYPE_ALIVE))

  00138	83 7d f8 00	 cmp	 DWORD PTR _group$[ebp], 0
  0013c	74 0a		 je	 SHORT $LN24@create_deb
  0013e	8b 45 f8	 mov	 eax, DWORD PTR _group$[ebp]
  00141	8b 08		 mov	 ecx, DWORD PTR [eax]
  00143	89 4d 9c	 mov	 DWORD PTR tv149[ebp], ecx
  00146	eb 1d		 jmp	 SHORT $LN25@create_deb
$LN24@create_deb:
  00148	68 8d 08 00 00	 push	 2189			; 0000088dH
  0014d	68 00 00 00 00	 push	 OFFSET ??_C@_0DO@EFGBNKOF@c?3?2users?2nhv90?2projects?2eech?2ap@
  00152	8b 15 00 00 00
	00		 mov	 edx, DWORD PTR ?null_entity_pointer_message@@3PBDB ; null_entity_pointer_message
  00158	52		 push	 edx
  00159	e8 00 00 00 00	 call	 ?process_assert@@YGXPBD0H@Z ; process_assert
  0015e	c7 45 9c 00 00
	00 00		 mov	 DWORD PTR tv149[ebp], 0
$LN25@create_deb:
  00165	b8 01 00 00 00	 mov	 eax, 1
  0016a	85 c0		 test	 eax, eax
  0016c	74 09		 je	 SHORT $LN26@create_deb
  0016e	c7 45 98 07 00
	00 00		 mov	 DWORD PTR tv156[ebp], 7
  00175	eb 1d		 jmp	 SHORT $LN27@create_deb
$LN26@create_deb:
  00177	68 8d 08 00 00	 push	 2189			; 0000088dH
  0017c	68 00 00 00 00	 push	 OFFSET ??_C@_0DO@EFGBNKOF@c?3?2users?2nhv90?2projects?2eech?2ap@
  00181	8b 0d 00 00 00
	00		 mov	 ecx, DWORD PTR ?overload_invalid_int_type_message@@3PBDB ; overload_invalid_int_type_message
  00187	51		 push	 ecx
  00188	e8 00 00 00 00	 call	 ?process_assert@@YGXPBD0H@Z ; process_assert
  0018d	c7 45 98 00 00
	00 00		 mov	 DWORD PTR tv156[ebp], 0
$LN27@create_deb:
  00194	6a 07		 push	 7
  00196	8b 55 f8	 mov	 edx, DWORD PTR _group$[ebp]
  00199	52		 push	 edx
  0019a	69 45 9c 5c 04
	00 00		 imul	 eax, DWORD PTR tv149[ebp], 1116
  001a1	8b 4d 98	 mov	 ecx, DWORD PTR tv156[ebp]
  001a4	8b 94 88 00 00
	00 00		 mov	 edx, DWORD PTR ?fn_get_local_entity_int_value@@3PAY0BBH@P6GHPAUENTITY@@W4INT_TYPES@@@ZA[eax+ecx*4]
  001ab	ff d2		 call	 edx
  001ad	85 c0		 test	 eax, eax
  001af	0f 84 c2 02 00
	00		 je	 $LN3@create_deb

; 2190 : 				{
; 2191 : 					if ((get_local_entity_int_value (group, INT_TYPE_GROUP_MODE) != GROUP_MODE_BUSY) && (check_group_members_awake (group)))

  001b5	83 7d f8 00	 cmp	 DWORD PTR _group$[ebp], 0
  001b9	74 0a		 je	 SHORT $LN28@create_deb
  001bb	8b 45 f8	 mov	 eax, DWORD PTR _group$[ebp]
  001be	8b 08		 mov	 ecx, DWORD PTR [eax]
  001c0	89 4d 9c	 mov	 DWORD PTR tv168[ebp], ecx
  001c3	eb 1d		 jmp	 SHORT $LN29@create_deb
$LN28@create_deb:
  001c5	68 8f 08 00 00	 push	 2191			; 0000088fH
  001ca	68 00 00 00 00	 push	 OFFSET ??_C@_0DO@EFGBNKOF@c?3?2users?2nhv90?2projects?2eech?2ap@
  001cf	8b 15 00 00 00
	00		 mov	 edx, DWORD PTR ?null_entity_pointer_message@@3PBDB ; null_entity_pointer_message
  001d5	52		 push	 edx
  001d6	e8 00 00 00 00	 call	 ?process_assert@@YGXPBD0H@Z ; process_assert
  001db	c7 45 9c 00 00
	00 00		 mov	 DWORD PTR tv168[ebp], 0
$LN29@create_deb:
  001e2	b8 01 00 00 00	 mov	 eax, 1
  001e7	85 c0		 test	 eax, eax
  001e9	74 09		 je	 SHORT $LN30@create_deb
  001eb	c7 45 98 4d 00
	00 00		 mov	 DWORD PTR tv175[ebp], 77 ; 0000004dH
  001f2	eb 1d		 jmp	 SHORT $LN31@create_deb
$LN30@create_deb:
  001f4	68 8f 08 00 00	 push	 2191			; 0000088fH
  001f9	68 00 00 00 00	 push	 OFFSET ??_C@_0DO@EFGBNKOF@c?3?2users?2nhv90?2projects?2eech?2ap@
  001fe	8b 0d 00 00 00
	00		 mov	 ecx, DWORD PTR ?overload_invalid_int_type_message@@3PBDB ; overload_invalid_int_type_message
  00204	51		 push	 ecx
  00205	e8 00 00 00 00	 call	 ?process_assert@@YGXPBD0H@Z ; process_assert
  0020a	c7 45 98 00 00
	00 00		 mov	 DWORD PTR tv175[ebp], 0
$LN31@create_deb:
  00211	6a 4d		 push	 77			; 0000004dH
  00213	8b 55 f8	 mov	 edx, DWORD PTR _group$[ebp]
  00216	52		 push	 edx
  00217	69 45 9c 5c 04
	00 00		 imul	 eax, DWORD PTR tv168[ebp], 1116
  0021e	8b 4d 98	 mov	 ecx, DWORD PTR tv175[ebp]
  00221	8b 94 88 00 00
	00 00		 mov	 edx, DWORD PTR ?fn_get_local_entity_int_value@@3PAY0BBH@P6GHPAUENTITY@@W4INT_TYPES@@@ZA[eax+ecx*4]
  00228	ff d2		 call	 edx
  0022a	83 f8 01	 cmp	 eax, 1
  0022d	0f 84 44 02 00
	00		 je	 $LN3@create_deb
  00233	8b 45 f8	 mov	 eax, DWORD PTR _group$[ebp]
  00236	50		 push	 eax
  00237	e8 00 00 00 00	 call	 ?check_group_members_awake@@YGHPAUENTITY@@@Z ; check_group_members_awake
  0023c	85 c0		 test	 eax, eax
  0023e	0f 84 33 02 00
	00		 je	 $LN3@create_deb

; 2192 : 					{
; 2193 : 						from_node = get_local_entity_int_value (group, INT_TYPE_ROUTE_NODE);

  00244	83 7d f8 00	 cmp	 DWORD PTR _group$[ebp], 0
  00248	74 0a		 je	 SHORT $LN32@create_deb
  0024a	8b 45 f8	 mov	 eax, DWORD PTR _group$[ebp]
  0024d	8b 08		 mov	 ecx, DWORD PTR [eax]
  0024f	89 4d 9c	 mov	 DWORD PTR tv191[ebp], ecx
  00252	eb 21		 jmp	 SHORT $LN33@create_deb
$LN32@create_deb:
  00254	8b 15 00 00 00
	00		 mov	 edx, DWORD PTR ?__LINE__Var@?0??create_debug_advance_task@@YGXPAUEVENT@@@Z@4JA
  0025a	83 c2 25	 add	 edx, 37			; 00000025H
  0025d	52		 push	 edx
  0025e	68 00 00 00 00	 push	 OFFSET ??_C@_0DO@EFGBNKOF@c?3?2users?2nhv90?2projects?2eech?2ap@
  00263	a1 00 00 00 00	 mov	 eax, DWORD PTR ?null_entity_pointer_message@@3PBDB ; null_entity_pointer_message
  00268	50		 push	 eax
  00269	e8 00 00 00 00	 call	 ?process_assert@@YGXPBD0H@Z ; process_assert
  0026e	c7 45 9c 00 00
	00 00		 mov	 DWORD PTR tv191[ebp], 0
$LN33@create_deb:
  00275	b9 01 00 00 00	 mov	 ecx, 1
  0027a	85 c9		 test	 ecx, ecx
  0027c	74 09		 je	 SHORT $LN34@create_deb
  0027e	c7 45 98 b4 00
	00 00		 mov	 DWORD PTR tv199[ebp], 180 ; 000000b4H
  00285	eb 21		 jmp	 SHORT $LN35@create_deb
$LN34@create_deb:
  00287	8b 15 00 00 00
	00		 mov	 edx, DWORD PTR ?__LINE__Var@?0??create_debug_advance_task@@YGXPAUEVENT@@@Z@4JA
  0028d	83 c2 25	 add	 edx, 37			; 00000025H
  00290	52		 push	 edx
  00291	68 00 00 00 00	 push	 OFFSET ??_C@_0DO@EFGBNKOF@c?3?2users?2nhv90?2projects?2eech?2ap@
  00296	a1 00 00 00 00	 mov	 eax, DWORD PTR ?overload_invalid_int_type_message@@3PBDB ; overload_invalid_int_type_message
  0029b	50		 push	 eax
  0029c	e8 00 00 00 00	 call	 ?process_assert@@YGXPBD0H@Z ; process_assert
  002a1	c7 45 98 00 00
	00 00		 mov	 DWORD PTR tv199[ebp], 0
$LN35@create_deb:
  002a8	68 b4 00 00 00	 push	 180			; 000000b4H
  002ad	8b 4d f8	 mov	 ecx, DWORD PTR _group$[ebp]
  002b0	51		 push	 ecx
  002b1	69 55 9c 5c 04
	00 00		 imul	 edx, DWORD PTR tv191[ebp], 1116
  002b8	8b 45 98	 mov	 eax, DWORD PTR tv199[ebp]
  002bb	8b 8c 82 00 00
	00 00		 mov	 ecx, DWORD PTR ?fn_get_local_entity_int_value@@3PAY0BBH@P6GHPAUENTITY@@W4INT_TYPES@@@ZA[edx+eax*4]
  002c2	ff d1		 call	 ecx
  002c4	89 45 e8	 mov	 DWORD PTR _from_node$[ebp], eax

; 2194 : 		
; 2195 : 						side = (entity_sides) get_local_entity_int_value (group, INT_TYPE_SIDE);

  002c7	83 7d f8 00	 cmp	 DWORD PTR _group$[ebp], 0
  002cb	74 0a		 je	 SHORT $LN36@create_deb
  002cd	8b 45 f8	 mov	 eax, DWORD PTR _group$[ebp]
  002d0	8b 08		 mov	 ecx, DWORD PTR [eax]
  002d2	89 4d 9c	 mov	 DWORD PTR tv211[ebp], ecx
  002d5	eb 21		 jmp	 SHORT $LN37@create_deb
$LN36@create_deb:
  002d7	8b 15 00 00 00
	00		 mov	 edx, DWORD PTR ?__LINE__Var@?0??create_debug_advance_task@@YGXPAUEVENT@@@Z@4JA
  002dd	83 c2 27	 add	 edx, 39			; 00000027H
  002e0	52		 push	 edx
  002e1	68 00 00 00 00	 push	 OFFSET ??_C@_0DO@EFGBNKOF@c?3?2users?2nhv90?2projects?2eech?2ap@
  002e6	a1 00 00 00 00	 mov	 eax, DWORD PTR ?null_entity_pointer_message@@3PBDB ; null_entity_pointer_message
  002eb	50		 push	 eax
  002ec	e8 00 00 00 00	 call	 ?process_assert@@YGXPBD0H@Z ; process_assert
  002f1	c7 45 9c 00 00
	00 00		 mov	 DWORD PTR tv211[ebp], 0
$LN37@create_deb:
  002f8	b9 01 00 00 00	 mov	 ecx, 1
  002fd	85 c9		 test	 ecx, ecx
  002ff	74 09		 je	 SHORT $LN38@create_deb
  00301	c7 45 98 bb 00
	00 00		 mov	 DWORD PTR tv219[ebp], 187 ; 000000bbH
  00308	eb 21		 jmp	 SHORT $LN39@create_deb
$LN38@create_deb:
  0030a	8b 15 00 00 00
	00		 mov	 edx, DWORD PTR ?__LINE__Var@?0??create_debug_advance_task@@YGXPAUEVENT@@@Z@4JA
  00310	83 c2 27	 add	 edx, 39			; 00000027H
  00313	52		 push	 edx
  00314	68 00 00 00 00	 push	 OFFSET ??_C@_0DO@EFGBNKOF@c?3?2users?2nhv90?2projects?2eech?2ap@
  00319	a1 00 00 00 00	 mov	 eax, DWORD PTR ?overload_invalid_int_type_message@@3PBDB ; overload_invalid_int_type_message
  0031e	50		 push	 eax
  0031f	e8 00 00 00 00	 call	 ?process_assert@@YGXPBD0H@Z ; process_assert
  00324	c7 45 98 00 00
	00 00		 mov	 DWORD PTR tv219[ebp], 0
$LN39@create_deb:
  0032b	68 bb 00 00 00	 push	 187			; 000000bbH
  00330	8b 4d f8	 mov	 ecx, DWORD PTR _group$[ebp]
  00333	51		 push	 ecx
  00334	69 55 9c 5c 04
	00 00		 imul	 edx, DWORD PTR tv211[ebp], 1116
  0033b	8b 45 98	 mov	 eax, DWORD PTR tv219[ebp]
  0033e	8b 8c 82 00 00
	00 00		 mov	 ecx, DWORD PTR ?fn_get_local_entity_int_value@@3PAY0BBH@P6GHPAUENTITY@@W4INT_TYPES@@@ZA[edx+eax*4]
  00345	ff d1		 call	 ecx
  00347	89 45 f0	 mov	 DWORD PTR _side$[ebp], eax

; 2196 : 			
; 2197 : 						for (node = 0; node < road_nodes [from_node].number_of_links; node ++)

  0034a	c7 45 ec 00 00
	00 00		 mov	 DWORD PTR _node$[ebp], 0
  00351	eb 09		 jmp	 SHORT $LN4@create_deb
$LN2@create_deb:
  00353	8b 45 ec	 mov	 eax, DWORD PTR _node$[ebp]
  00356	83 c0 01	 add	 eax, 1
  00359	89 45 ec	 mov	 DWORD PTR _node$[ebp], eax
$LN4@create_deb:
  0035c	6b 45 e8 0c	 imul	 eax, DWORD PTR _from_node$[ebp], 12
  00360	8b 0d 00 00 00
	00		 mov	 ecx, DWORD PTR ?road_nodes@@3PAUNODE_DATA@@A ; road_nodes
  00366	8b 54 01 04	 mov	 edx, DWORD PTR [ecx+eax+4]
  0036a	83 e2 7f	 and	 edx, 127		; 0000007fH
  0036d	39 55 ec	 cmp	 DWORD PTR _node$[ebp], edx
  00370	0f 83 01 01 00
	00		 jae	 $LN3@create_deb

; 2198 : 						{
; 2199 : 							to_node = road_nodes [from_node].links [node].node;

  00376	6b 45 e8 0c	 imul	 eax, DWORD PTR _from_node$[ebp], 12
  0037a	8b 0d 00 00 00
	00		 mov	 ecx, DWORD PTR ?road_nodes@@3PAUNODE_DATA@@A ; road_nodes
  00380	8b 54 01 08	 mov	 edx, DWORD PTR [ecx+eax+8]
  00384	b8 ff 3f 00 00	 mov	 eax, 16383		; 00003fffH
  00389	8b 4d ec	 mov	 ecx, DWORD PTR _node$[ebp]
  0038c	66 23 44 ca 04	 and	 ax, WORD PTR [edx+ecx*8+4]
  00391	0f b7 d0	 movzx	 edx, ax
  00394	89 55 e4	 mov	 DWORD PTR _to_node$[ebp], edx

; 2200 : 
; 2201 : 							if (to_node != from_node)

  00397	8b 45 e4	 mov	 eax, DWORD PTR _to_node$[ebp]
  0039a	3b 45 e8	 cmp	 eax, DWORD PTR _from_node$[ebp]
  0039d	0f 84 cf 00 00
	00		 je	 $LN14@create_deb

; 2202 : 							{	
; 2203 : 								if (road_nodes [to_node].side_occupying != side)

  003a3	6b 45 e4 0c	 imul	 eax, DWORD PTR _to_node$[ebp], 12
  003a7	8b 0d 00 00 00
	00		 mov	 ecx, DWORD PTR ?road_nodes@@3PAUNODE_DATA@@A ; road_nodes
  003ad	8b 54 01 04	 mov	 edx, DWORD PTR [ecx+eax+4]
  003b1	c1 ea 0e	 shr	 edx, 14			; 0000000eH
  003b4	83 e2 03	 and	 edx, 3
  003b7	3b 55 f0	 cmp	 edx, DWORD PTR _side$[ebp]
  003ba	0f 84 b2 00 00
	00		 je	 $LN14@create_deb

; 2204 : 								{
; 2205 : 									if (get_road_link_breaks (from_node, to_node) == 0)

  003c0	8b 45 e4	 mov	 eax, DWORD PTR _to_node$[ebp]
  003c3	50		 push	 eax
  003c4	8b 4d e8	 mov	 ecx, DWORD PTR _from_node$[ebp]
  003c7	51		 push	 ecx
  003c8	e8 00 00 00 00	 call	 ?get_road_link_breaks@@YGHHH@Z ; get_road_link_breaks
  003cd	85 c0		 test	 eax, eax
  003cf	0f 85 9d 00 00
	00		 jne	 $LN14@create_deb

; 2206 : 									{
; 2207 : 										node_pos = &road_node_positions [to_node];

  003d5	6b 45 e4 0c	 imul	 eax, DWORD PTR _to_node$[ebp], 12
  003d9	03 05 00 00 00
	00		 add	 eax, DWORD PTR ?road_node_positions@@3PAUVEC3D@@A ; road_node_positions
  003df	89 45 e0	 mov	 DWORD PTR _node_pos$[ebp], eax

; 2208 : 	
; 2209 : 										if (point_inside_adjusted_map_area (node_pos))

  003e2	8b 45 e0	 mov	 eax, DWORD PTR _node_pos$[ebp]
  003e5	f3 0f 5a 00	 cvtss2sd xmm0, DWORD PTR [eax]
  003e9	f3 0f 5a 0d 24
	00 00 00	 cvtss2sd xmm1, DWORD PTR ?world_map@@3UWORLD_MAP_DATA@@A+36
  003f1	f2 0f 58 0d 00
	00 00 00	 addsd	 xmm1, QWORD PTR __real@40b3880000000000
  003f9	66 0f 2f c1	 comisd	 xmm0, xmm1
  003fd	72 73		 jb	 SHORT $LN14@create_deb
  003ff	8b 45 e0	 mov	 eax, DWORD PTR _node_pos$[ebp]
  00402	f3 0f 5a 00	 cvtss2sd xmm0, DWORD PTR [eax]
  00406	f3 0f 5a 0d 3c
	00 00 00	 cvtss2sd xmm1, DWORD PTR ?world_map@@3UWORLD_MAP_DATA@@A+60
  0040e	f2 0f 5c 0d 00
	00 00 00	 subsd	 xmm1, QWORD PTR __real@40b3880000000000
  00416	66 0f 2f c8	 comisd	 xmm1, xmm0
  0041a	72 56		 jb	 SHORT $LN14@create_deb
  0041c	8b 45 e0	 mov	 eax, DWORD PTR _node_pos$[ebp]
  0041f	f3 0f 5a 40 08	 cvtss2sd xmm0, DWORD PTR [eax+8]
  00424	f3 0f 5a 0d 2c
	00 00 00	 cvtss2sd xmm1, DWORD PTR ?world_map@@3UWORLD_MAP_DATA@@A+44
  0042c	f2 0f 58 0d 00
	00 00 00	 addsd	 xmm1, QWORD PTR __real@40b3880000000000
  00434	66 0f 2f c1	 comisd	 xmm0, xmm1
  00438	72 38		 jb	 SHORT $LN14@create_deb
  0043a	8b 45 e0	 mov	 eax, DWORD PTR _node_pos$[ebp]
  0043d	f3 0f 5a 40 08	 cvtss2sd xmm0, DWORD PTR [eax+8]
  00442	f3 0f 5a 0d 44
	00 00 00	 cvtss2sd xmm1, DWORD PTR ?world_map@@3UWORLD_MAP_DATA@@A+68
  0044a	f2 0f 5c 0d 00
	00 00 00	 subsd	 xmm1, QWORD PTR __real@40b3880000000000
  00452	66 0f 2f c8	 comisd	 xmm1, xmm0
  00456	72 1a		 jb	 SHORT $LN14@create_deb

; 2210 : 										{
; 2211 : 											if (notify_local_entity (ENTITY_MESSAGE_GROUND_FORCE_ADVANCE, group, NULL, to_node))

  00458	8b 45 e4	 mov	 eax, DWORD PTR _to_node$[ebp]
  0045b	50		 push	 eax
  0045c	6a 00		 push	 0
  0045e	8b 4d f8	 mov	 ecx, DWORD PTR _group$[ebp]
  00461	51		 push	 ecx
  00462	6a 1d		 push	 29			; 0000001dH
  00464	e8 00 00 00 00	 call	 ?notify_local_entity@@YAHW4ENTITY_MESSAGES@@PAUENTITY@@1ZZ ; notify_local_entity
  00469	83 c4 10	 add	 esp, 16			; 00000010H
  0046c	85 c0		 test	 eax, eax
  0046e	74 02		 je	 SHORT $LN14@create_deb

; 2212 : 											{
; 2213 : 												break;

  00470	eb 05		 jmp	 SHORT $LN3@create_deb
$LN14@create_deb:

; 2214 : 											}
; 2215 : 										}
; 2216 : 									}
; 2217 : 								}
; 2218 : 							}
; 2219 : 						}

  00472	e9 dc fe ff ff	 jmp	 $LN2@create_deb
$LN3@create_deb:

; 2220 : 					}
; 2221 : 				}
; 2222 : 			}
; 2223 : 		}
; 2224 : 	}
; 2225 : }

  00477	5f		 pop	 edi
  00478	5e		 pop	 esi
  00479	5b		 pop	 ebx
  0047a	8b e5		 mov	 esp, ebp
  0047c	5d		 pop	 ebp
  0047d	c2 04 00	 ret	 4
?create_debug_advance_task@@YGXPAUEVENT@@@Z ENDP	; create_debug_advance_task
_TEXT	ENDS
; Function compile flags: /Odtp /ZI
; File c:\users\nhv90\projects\eech\aphavoc\source\events\ev_debug.c
;	COMDAT ?dump_aircraft_and_vehicle_count_event@@YGXPAUEVENT@@@Z
_TEXT	SEGMENT
_ev$ = 8						; size = 4
?dump_aircraft_and_vehicle_count_event@@YGXPAUEVENT@@@Z PROC ; dump_aircraft_and_vehicle_count_event, COMDAT

; 2147 : {

  00000	55		 push	 ebp
  00001	8b ec		 mov	 ebp, esp
  00003	83 ec 40	 sub	 esp, 64			; 00000040H
  00006	53		 push	 ebx
  00007	56		 push	 esi
  00008	57		 push	 edi

; 2148 : 	dump_aircraft_and_vehicle_count ();

  00009	e8 00 00 00 00	 call	 ?dump_aircraft_and_vehicle_count@@YGXXZ ; dump_aircraft_and_vehicle_count

; 2149 : }

  0000e	5f		 pop	 edi
  0000f	5e		 pop	 esi
  00010	5b		 pop	 ebx
  00011	8b e5		 mov	 esp, ebp
  00013	5d		 pop	 ebp
  00014	c2 04 00	 ret	 4
?dump_aircraft_and_vehicle_count_event@@YGXPAUEVENT@@@Z ENDP ; dump_aircraft_and_vehicle_count_event
_TEXT	ENDS
; Function compile flags: /Odtp /ZI
; File c:\users\nhv90\projects\eech\aphavoc\source\events\ev_debug.c
;	COMDAT ?uneject_external_view_entity_event@@YGXPAUEVENT@@@Z
_TEXT	SEGMENT
_en$ = -4						; size = 4
_ev$ = 8						; size = 4
?uneject_external_view_entity_event@@YGXPAUEVENT@@@Z PROC ; uneject_external_view_entity_event, COMDAT

; 2123 : {

  00000	55		 push	 ebp
  00001	8b ec		 mov	 ebp, esp
  00003	83 ec 44	 sub	 esp, 68			; 00000044H
  00006	53		 push	 ebx
  00007	56		 push	 esi
  00008	57		 push	 edi

; 2124 : 	entity
; 2125 : 		*en;
; 2126 : 
; 2127 : 	if (in_cockpit)

  00009	83 3d 00 00 00
	00 00		 cmp	 DWORD PTR ?in_cockpit@@3HA, 0 ; in_cockpit
  00010	74 0a		 je	 SHORT $LN2@uneject_ex

; 2128 : 	{
; 2129 : 		en = get_gunship_entity ();

  00012	a1 00 00 00 00	 mov	 eax, DWORD PTR ?gunship_entity@@3PAUENTITY@@A ; gunship_entity
  00017	89 45 fc	 mov	 DWORD PTR _en$[ebp], eax

; 2130 : 	}
; 2131 : 	else

  0001a	eb 08		 jmp	 SHORT $LN3@uneject_ex
$LN2@uneject_ex:

; 2132 : 	{
; 2133 : 		en = get_external_view_entity ();

  0001c	e8 00 00 00 00	 call	 ?get_external_view_entity@@YGPAUENTITY@@XZ ; get_external_view_entity
  00021	89 45 fc	 mov	 DWORD PTR _en$[ebp], eax
$LN3@uneject_ex:

; 2134 : 	}
; 2135 : 
; 2136 : 	if (en)

  00024	83 7d fc 00	 cmp	 DWORD PTR _en$[ebp], 0
  00028	74 09		 je	 SHORT $LN1@uneject_ex

; 2137 : 	{
; 2138 : 		uneject_aircraft_crew (en);

  0002a	8b 45 fc	 mov	 eax, DWORD PTR _en$[ebp]
  0002d	50		 push	 eax
  0002e	e8 00 00 00 00	 call	 ?uneject_aircraft_crew@@YGXPAUENTITY@@@Z ; uneject_aircraft_crew
$LN1@uneject_ex:

; 2139 : 	}
; 2140 : }

  00033	5f		 pop	 edi
  00034	5e		 pop	 esi
  00035	5b		 pop	 ebx
  00036	8b e5		 mov	 esp, ebp
  00038	5d		 pop	 ebp
  00039	c2 04 00	 ret	 4
?uneject_external_view_entity_event@@YGXPAUEVENT@@@Z ENDP ; uneject_external_view_entity_event
_TEXT	ENDS
; Function compile flags: /Odtp /ZI
; File c:\users\nhv90\projects\eech\aphavoc\source\events\ev_debug.c
;	COMDAT ?eject_external_view_entity_event@@YGXPAUEVENT@@@Z
_TEXT	SEGMENT
_en$ = -4						; size = 4
_ev$ = 8						; size = 4
?eject_external_view_entity_event@@YGXPAUEVENT@@@Z PROC	; eject_external_view_entity_event, COMDAT

; 2099 : {

  00000	55		 push	 ebp
  00001	8b ec		 mov	 ebp, esp
  00003	83 ec 44	 sub	 esp, 68			; 00000044H
  00006	53		 push	 ebx
  00007	56		 push	 esi
  00008	57		 push	 edi

; 2100 : 	entity
; 2101 : 		*en;
; 2102 : 
; 2103 : 	if (in_cockpit)

  00009	83 3d 00 00 00
	00 00		 cmp	 DWORD PTR ?in_cockpit@@3HA, 0 ; in_cockpit
  00010	74 0a		 je	 SHORT $LN2@eject_exte

; 2104 : 	{
; 2105 : 		en = get_gunship_entity ();

  00012	a1 00 00 00 00	 mov	 eax, DWORD PTR ?gunship_entity@@3PAUENTITY@@A ; gunship_entity
  00017	89 45 fc	 mov	 DWORD PTR _en$[ebp], eax

; 2106 : 	}
; 2107 : 	else

  0001a	eb 08		 jmp	 SHORT $LN3@eject_exte
$LN2@eject_exte:

; 2108 : 	{
; 2109 : 		en = get_external_view_entity ();

  0001c	e8 00 00 00 00	 call	 ?get_external_view_entity@@YGPAUENTITY@@XZ ; get_external_view_entity
  00021	89 45 fc	 mov	 DWORD PTR _en$[ebp], eax
$LN3@eject_exte:

; 2110 : 	}
; 2111 : 
; 2112 : 	if (en)

  00024	83 7d fc 00	 cmp	 DWORD PTR _en$[ebp], 0
  00028	74 09		 je	 SHORT $LN1@eject_exte

; 2113 : 	{
; 2114 : 		initiate_aircraft_crew_ejection (en);

  0002a	8b 45 fc	 mov	 eax, DWORD PTR _en$[ebp]
  0002d	50		 push	 eax
  0002e	e8 00 00 00 00	 call	 ?initiate_aircraft_crew_ejection@@YGXPAUENTITY@@@Z ; initiate_aircraft_crew_ejection
$LN1@eject_exte:

; 2115 : 	}
; 2116 : }

  00033	5f		 pop	 edi
  00034	5e		 pop	 esi
  00035	5b		 pop	 ebx
  00036	8b e5		 mov	 esp, ebp
  00038	5d		 pop	 ebp
  00039	c2 04 00	 ret	 4
?eject_external_view_entity_event@@YGXPAUEVENT@@@Z ENDP	; eject_external_view_entity_event
_TEXT	ENDS
; Function compile flags: /Odtp /ZI
; File c:\users\nhv90\projects\eech\aphavoc\source\events\ev_debug.c
;	COMDAT ?output_influence_maps_event@@YGXPAUEVENT@@@Z
_TEXT	SEGMENT
_ev$ = 8						; size = 4
?output_influence_maps_event@@YGXPAUEVENT@@@Z PROC	; output_influence_maps_event, COMDAT

; 2090 : {

  00000	55		 push	 ebp
  00001	8b ec		 mov	 ebp, esp
  00003	83 ec 40	 sub	 esp, 64			; 00000040H
  00006	53		 push	 ebx
  00007	56		 push	 esi
  00008	57		 push	 edi

; 2091 : 	output_all_influence_maps ();

  00009	e8 00 00 00 00	 call	 ?output_all_influence_maps@@YGXXZ ; output_all_influence_maps

; 2092 : }

  0000e	5f		 pop	 edi
  0000f	5e		 pop	 esi
  00010	5b		 pop	 ebx
  00011	8b e5		 mov	 esp, ebp
  00013	5d		 pop	 ebp
  00014	c2 04 00	 ret	 4
?output_influence_maps_event@@YGXPAUEVENT@@@Z ENDP	; output_influence_maps_event
_TEXT	ENDS
; Function compile flags: /Odtp /ZI
; File c:\users\nhv90\projects\eech\aphavoc\source\events\ev_debug.c
;	COMDAT ?set_external_view_entity_next_waypoint@@YGXPAUEVENT@@@Z
_TEXT	SEGMENT
tv80 = -80						; size = 4
tv72 = -76						; size = 4
_guide$ = -8						; size = 4
_en$ = -4						; size = 4
_ev$ = 8						; size = 4
?set_external_view_entity_next_waypoint@@YGXPAUEVENT@@@Z PROC ; set_external_view_entity_next_waypoint, COMDAT

; 2067 : {

  00000	55		 push	 ebp
  00001	8b ec		 mov	 ebp, esp
  00003	83 ec 50	 sub	 esp, 80			; 00000050H
  00006	53		 push	 ebx
  00007	56		 push	 esi
  00008	57		 push	 edi

; 2068 : 	entity
; 2069 : 		*en,
; 2070 : 		*guide;
; 2071 : 
; 2072 : 	en = get_external_view_entity ();

  00009	e8 00 00 00 00	 call	 ?get_external_view_entity@@YGPAUENTITY@@XZ ; get_external_view_entity
  0000e	89 45 fc	 mov	 DWORD PTR _en$[ebp], eax

; 2073 : 
; 2074 : 	if (en)

  00011	83 7d fc 00	 cmp	 DWORD PTR _en$[ebp], 0
  00015	0f 84 8f 00 00
	00		 je	 $LN1@set_extern

; 2075 : 	{
; 2076 : 		guide = get_local_entity_parent (en, LIST_TYPE_FOLLOWER);

  0001b	83 7d fc 00	 cmp	 DWORD PTR _en$[ebp], 0
  0001f	74 0a		 je	 SHORT $LN5@set_extern
  00021	8b 45 fc	 mov	 eax, DWORD PTR _en$[ebp]
  00024	8b 08		 mov	 ecx, DWORD PTR [eax]
  00026	89 4d b4	 mov	 DWORD PTR tv72[ebp], ecx
  00029	eb 21		 jmp	 SHORT $LN6@set_extern
$LN5@set_extern:
  0002b	8b 15 00 00 00
	00		 mov	 edx, DWORD PTR ?__LINE__Var@?0??set_external_view_entity_next_waypoint@@YGXPAUEVENT@@@Z@4JA
  00031	83 c2 09	 add	 edx, 9
  00034	52		 push	 edx
  00035	68 00 00 00 00	 push	 OFFSET ??_C@_0DO@EFGBNKOF@c?3?2users?2nhv90?2projects?2eech?2ap@
  0003a	a1 00 00 00 00	 mov	 eax, DWORD PTR ?null_entity_pointer_message@@3PBDB ; null_entity_pointer_message
  0003f	50		 push	 eax
  00040	e8 00 00 00 00	 call	 ?process_assert@@YGXPBD0H@Z ; process_assert
  00045	c7 45 b4 00 00
	00 00		 mov	 DWORD PTR tv72[ebp], 0
$LN6@set_extern:
  0004c	b9 01 00 00 00	 mov	 ecx, 1
  00051	85 c9		 test	 ecx, ecx
  00053	74 09		 je	 SHORT $LN7@set_extern
  00055	c7 45 b0 0d 00
	00 00		 mov	 DWORD PTR tv80[ebp], 13	; 0000000dH
  0005c	eb 21		 jmp	 SHORT $LN8@set_extern
$LN7@set_extern:
  0005e	8b 15 00 00 00
	00		 mov	 edx, DWORD PTR ?__LINE__Var@?0??set_external_view_entity_next_waypoint@@YGXPAUEVENT@@@Z@4JA
  00064	83 c2 09	 add	 edx, 9
  00067	52		 push	 edx
  00068	68 00 00 00 00	 push	 OFFSET ??_C@_0DO@EFGBNKOF@c?3?2users?2nhv90?2projects?2eech?2ap@
  0006d	a1 00 00 00 00	 mov	 eax, DWORD PTR ?overload_invalid_list_type_message@@3PBDB ; overload_invalid_list_type_message
  00072	50		 push	 eax
  00073	e8 00 00 00 00	 call	 ?process_assert@@YGXPBD0H@Z ; process_assert
  00078	c7 45 b0 00 00
	00 00		 mov	 DWORD PTR tv80[ebp], 0
$LN8@set_extern:
  0007f	6a 0d		 push	 13			; 0000000dH
  00081	8b 4d fc	 mov	 ecx, DWORD PTR _en$[ebp]
  00084	51		 push	 ecx
  00085	69 55 b4 b4 00
	00 00		 imul	 edx, DWORD PTR tv72[ebp], 180
  0008c	8b 45 b0	 mov	 eax, DWORD PTR tv80[ebp]
  0008f	8b 8c 82 00 00
	00 00		 mov	 ecx, DWORD PTR ?fn_get_local_entity_parent@@3PAY0CN@P6GPAUENTITY@@PAU1@W4LIST_TYPES@@@ZA[edx+eax*4]
  00096	ff d1		 call	 ecx
  00098	89 45 f8	 mov	 DWORD PTR _guide$[ebp], eax

; 2077 : 
; 2078 : 		if (guide)

  0009b	83 7d f8 00	 cmp	 DWORD PTR _guide$[ebp], 0
  0009f	74 09		 je	 SHORT $LN1@set_extern

; 2079 : 		{
; 2080 : 			set_guide_next_waypoint (guide);

  000a1	8b 45 f8	 mov	 eax, DWORD PTR _guide$[ebp]
  000a4	50		 push	 eax
  000a5	e8 00 00 00 00	 call	 ?set_guide_next_waypoint@@YGHPAUENTITY@@@Z ; set_guide_next_waypoint
$LN1@set_extern:

; 2081 : 		}
; 2082 : 	}
; 2083 : }

  000aa	5f		 pop	 edi
  000ab	5e		 pop	 esi
  000ac	5b		 pop	 ebx
  000ad	8b e5		 mov	 esp, ebp
  000af	5d		 pop	 ebp
  000b0	c2 04 00	 ret	 4
?set_external_view_entity_next_waypoint@@YGXPAUEVENT@@@Z ENDP ; set_external_view_entity_next_waypoint
_TEXT	ENDS
; Function compile flags: /Odtp /ZI
; File c:\users\nhv90\projects\eech\aphavoc\source\events\ev_debug.c
;	COMDAT ?debug_set_entity_group_formation@@YGXPAUEVENT@@@Z
_TEXT	SEGMENT
tv317 = -80						; size = 4
tv295 = -80						; size = 4
tv273 = -80						; size = 4
tv251 = -80						; size = 4
tv229 = -80						; size = 4
tv207 = -80						; size = 4
tv185 = -80						; size = 4
tv163 = -80						; size = 4
tv141 = -80						; size = 4
tv85 = -80						; size = 4
tv309 = -76						; size = 4
tv287 = -76						; size = 4
tv265 = -76						; size = 4
tv243 = -76						; size = 4
tv221 = -76						; size = 4
tv199 = -76						; size = 4
tv177 = -76						; size = 4
tv155 = -76						; size = 4
tv133 = -76						; size = 4
tv94 = -76						; size = 4
tv77 = -76						; size = 4
_group$ = -8						; size = 4
_en$ = -4						; size = 4
_ev$ = 8						; size = 4
?debug_set_entity_group_formation@@YGXPAUEVENT@@@Z PROC	; debug_set_entity_group_formation, COMDAT

; 1984 : {

  00000	55		 push	 ebp
  00001	8b ec		 mov	 ebp, esp
  00003	83 ec 50	 sub	 esp, 80			; 00000050H
  00006	53		 push	 ebx
  00007	56		 push	 esi
  00008	57		 push	 edi

; 1985 : 	entity
; 1986 : 		*en,
; 1987 : 		*group;
; 1988 : 
; 1989 : 	ASSERT (ev);

  00009	83 7d 08 00	 cmp	 DWORD PTR _ev$[ebp], 0
  0000d	75 18		 jne	 SHORT $LN4@debug_set_
  0000f	a1 00 00 00 00	 mov	 eax, DWORD PTR ?__LINE__Var@?0??debug_set_entity_group_formation@@YGXPAUEVENT@@@Z@4JA
  00014	83 c0 05	 add	 eax, 5
  00017	50		 push	 eax
  00018	68 00 00 00 00	 push	 OFFSET ??_C@_0DO@EFGBNKOF@c?3?2users?2nhv90?2projects?2eech?2ap@
  0001d	68 00 00 00 00	 push	 OFFSET ??_C@_02DHMHPBFG@ev@
  00022	e8 00 00 00 00	 call	 ?process_assert@@YGXPBD0H@Z ; process_assert
$LN4@debug_set_:

; 1990 : 
; 1991 : 	en = get_external_view_entity ();

  00027	e8 00 00 00 00	 call	 ?get_external_view_entity@@YGPAUENTITY@@XZ ; get_external_view_entity
  0002c	89 45 fc	 mov	 DWORD PTR _en$[ebp], eax

; 1992 : 
; 1993 : 	if (en)

  0002f	83 7d fc 00	 cmp	 DWORD PTR _en$[ebp], 0
  00033	0f 84 a1 05 00
	00		 je	 $LN1@debug_set_

; 1994 : 	{
; 1995 : 		group = get_local_entity_parent (en, LIST_TYPE_MEMBER);

  00039	83 7d fc 00	 cmp	 DWORD PTR _en$[ebp], 0
  0003d	74 0a		 je	 SHORT $LN17@debug_set_
  0003f	8b 45 fc	 mov	 eax, DWORD PTR _en$[ebp]
  00042	8b 08		 mov	 ecx, DWORD PTR [eax]
  00044	89 4d b4	 mov	 DWORD PTR tv77[ebp], ecx
  00047	eb 21		 jmp	 SHORT $LN18@debug_set_
$LN17@debug_set_:
  00049	8b 15 00 00 00
	00		 mov	 edx, DWORD PTR ?__LINE__Var@?0??debug_set_entity_group_formation@@YGXPAUEVENT@@@Z@4JA
  0004f	83 c2 0b	 add	 edx, 11			; 0000000bH
  00052	52		 push	 edx
  00053	68 00 00 00 00	 push	 OFFSET ??_C@_0DO@EFGBNKOF@c?3?2users?2nhv90?2projects?2eech?2ap@
  00058	a1 00 00 00 00	 mov	 eax, DWORD PTR ?null_entity_pointer_message@@3PBDB ; null_entity_pointer_message
  0005d	50		 push	 eax
  0005e	e8 00 00 00 00	 call	 ?process_assert@@YGXPBD0H@Z ; process_assert
  00063	c7 45 b4 00 00
	00 00		 mov	 DWORD PTR tv77[ebp], 0
$LN18@debug_set_:
  0006a	b9 01 00 00 00	 mov	 ecx, 1
  0006f	85 c9		 test	 ecx, ecx
  00071	74 09		 je	 SHORT $LN19@debug_set_
  00073	c7 45 b0 19 00
	00 00		 mov	 DWORD PTR tv85[ebp], 25	; 00000019H
  0007a	eb 21		 jmp	 SHORT $LN20@debug_set_
$LN19@debug_set_:
  0007c	8b 15 00 00 00
	00		 mov	 edx, DWORD PTR ?__LINE__Var@?0??debug_set_entity_group_formation@@YGXPAUEVENT@@@Z@4JA
  00082	83 c2 0b	 add	 edx, 11			; 0000000bH
  00085	52		 push	 edx
  00086	68 00 00 00 00	 push	 OFFSET ??_C@_0DO@EFGBNKOF@c?3?2users?2nhv90?2projects?2eech?2ap@
  0008b	a1 00 00 00 00	 mov	 eax, DWORD PTR ?overload_invalid_list_type_message@@3PBDB ; overload_invalid_list_type_message
  00090	50		 push	 eax
  00091	e8 00 00 00 00	 call	 ?process_assert@@YGXPBD0H@Z ; process_assert
  00096	c7 45 b0 00 00
	00 00		 mov	 DWORD PTR tv85[ebp], 0
$LN20@debug_set_:
  0009d	6a 19		 push	 25			; 00000019H
  0009f	8b 4d fc	 mov	 ecx, DWORD PTR _en$[ebp]
  000a2	51		 push	 ecx
  000a3	69 55 b4 b4 00
	00 00		 imul	 edx, DWORD PTR tv77[ebp], 180
  000aa	8b 45 b0	 mov	 eax, DWORD PTR tv85[ebp]
  000ad	8b 8c 82 00 00
	00 00		 mov	 ecx, DWORD PTR ?fn_get_local_entity_parent@@3PAY0CN@P6GPAUENTITY@@PAU1@W4LIST_TYPES@@@ZA[edx+eax*4]
  000b4	ff d1		 call	 ecx
  000b6	89 45 f8	 mov	 DWORD PTR _group$[ebp], eax

; 1996 : 
; 1997 : 		if (group)

  000b9	83 7d f8 00	 cmp	 DWORD PTR _group$[ebp], 0
  000bd	0f 84 17 05 00
	00		 je	 $LN1@debug_set_

; 1998 : 		{
; 1999 : 			switch (ev->key)

  000c3	8b 45 08	 mov	 eax, DWORD PTR _ev$[ebp]
  000c6	0f b6 48 06	 movzx	 ecx, BYTE PTR [eax+6]
  000ca	89 4d b4	 mov	 DWORD PTR tv94[ebp], ecx
  000cd	8b 55 b4	 mov	 edx, DWORD PTR tv94[ebp]
  000d0	83 ea 02	 sub	 edx, 2
  000d3	89 55 b4	 mov	 DWORD PTR tv94[ebp], edx
  000d6	83 7d b4 08	 cmp	 DWORD PTR tv94[ebp], 8
  000da	0f 87 fa 04 00
	00		 ja	 $LN1@debug_set_
  000e0	8b 45 b4	 mov	 eax, DWORD PTR tv94[ebp]
  000e3	ff 24 85 00 00
	00 00		 jmp	 DWORD PTR $LN57@debug_set_[eax*4]
$LN7@debug_set_:

; 2000 : 			{
; 2001 : 				case DIK_1:
; 2002 : 				{
; 2003 : 					set_client_server_entity_int_value (group, INT_TYPE_GROUP_FORMATION, FORMATION_ROW_LEFT);

  000ea	83 7d f8 00	 cmp	 DWORD PTR _group$[ebp], 0
  000ee	74 0a		 je	 SHORT $LN21@debug_set_
  000f0	8b 45 f8	 mov	 eax, DWORD PTR _group$[ebp]
  000f3	8b 08		 mov	 ecx, DWORD PTR [eax]
  000f5	89 4d b4	 mov	 DWORD PTR tv133[ebp], ecx
  000f8	eb 21		 jmp	 SHORT $LN22@debug_set_
$LN21@debug_set_:
  000fa	8b 15 00 00 00
	00		 mov	 edx, DWORD PTR ?__LINE__Var@?0??debug_set_entity_group_formation@@YGXPAUEVENT@@@Z@4JA
  00100	83 c2 13	 add	 edx, 19			; 00000013H
  00103	52		 push	 edx
  00104	68 00 00 00 00	 push	 OFFSET ??_C@_0DO@EFGBNKOF@c?3?2users?2nhv90?2projects?2eech?2ap@
  00109	a1 00 00 00 00	 mov	 eax, DWORD PTR ?null_entity_pointer_message@@3PBDB ; null_entity_pointer_message
  0010e	50		 push	 eax
  0010f	e8 00 00 00 00	 call	 ?process_assert@@YGXPBD0H@Z ; process_assert
  00114	c7 45 b4 00 00
	00 00		 mov	 DWORD PTR tv133[ebp], 0
$LN22@debug_set_:
  0011b	b9 01 00 00 00	 mov	 ecx, 1
  00120	85 c9		 test	 ecx, ecx
  00122	74 09		 je	 SHORT $LN23@debug_set_
  00124	c7 45 b0 47 00
	00 00		 mov	 DWORD PTR tv141[ebp], 71 ; 00000047H
  0012b	eb 21		 jmp	 SHORT $LN24@debug_set_
$LN23@debug_set_:
  0012d	8b 15 00 00 00
	00		 mov	 edx, DWORD PTR ?__LINE__Var@?0??debug_set_entity_group_formation@@YGXPAUEVENT@@@Z@4JA
  00133	83 c2 13	 add	 edx, 19			; 00000013H
  00136	52		 push	 edx
  00137	68 00 00 00 00	 push	 OFFSET ??_C@_0DO@EFGBNKOF@c?3?2users?2nhv90?2projects?2eech?2ap@
  0013c	a1 00 00 00 00	 mov	 eax, DWORD PTR ?overload_invalid_int_type_message@@3PBDB ; overload_invalid_int_type_message
  00141	50		 push	 eax
  00142	e8 00 00 00 00	 call	 ?process_assert@@YGXPBD0H@Z ; process_assert
  00147	c7 45 b0 00 00
	00 00		 mov	 DWORD PTR tv141[ebp], 0
$LN24@debug_set_:
  0014e	6a 02		 push	 2
  00150	6a 47		 push	 71			; 00000047H
  00152	8b 4d f8	 mov	 ecx, DWORD PTR _group$[ebp]
  00155	51		 push	 ecx
  00156	69 55 b4 b8 08
	00 00		 imul	 edx, DWORD PTR tv133[ebp], 2232
  0015d	8b 45 b0	 mov	 eax, DWORD PTR tv141[ebp]
  00160	8d 8c c2 00 00
	00 00		 lea	 ecx, DWORD PTR ?fn_set_client_server_entity_int_value@@3PAY1BBH@1P6GXPAUENTITY@@W4INT_TYPES@@H@ZA[edx+eax*8]
  00167	8b 15 00 00 00
	00		 mov	 edx, DWORD PTR ?system_comms_model@@3W4COMMS_MODEL_TYPES@@A ; system_comms_model
  0016d	8b 04 91	 mov	 eax, DWORD PTR [ecx+edx*4]
  00170	ff d0		 call	 eax

; 2004 : 
; 2005 : 					break;

  00172	e9 63 04 00 00	 jmp	 $LN1@debug_set_
$LN8@debug_set_:

; 2006 : 				}
; 2007 : 				case DIK_2:
; 2008 : 				{
; 2009 : 					set_client_server_entity_int_value (group, INT_TYPE_GROUP_FORMATION, FORMATION_ROW_RIGHT);

  00177	83 7d f8 00	 cmp	 DWORD PTR _group$[ebp], 0
  0017b	74 0a		 je	 SHORT $LN25@debug_set_
  0017d	8b 45 f8	 mov	 eax, DWORD PTR _group$[ebp]
  00180	8b 08		 mov	 ecx, DWORD PTR [eax]
  00182	89 4d b4	 mov	 DWORD PTR tv155[ebp], ecx
  00185	eb 21		 jmp	 SHORT $LN26@debug_set_
$LN25@debug_set_:
  00187	8b 15 00 00 00
	00		 mov	 edx, DWORD PTR ?__LINE__Var@?0??debug_set_entity_group_formation@@YGXPAUEVENT@@@Z@4JA
  0018d	83 c2 19	 add	 edx, 25			; 00000019H
  00190	52		 push	 edx
  00191	68 00 00 00 00	 push	 OFFSET ??_C@_0DO@EFGBNKOF@c?3?2users?2nhv90?2projects?2eech?2ap@
  00196	a1 00 00 00 00	 mov	 eax, DWORD PTR ?null_entity_pointer_message@@3PBDB ; null_entity_pointer_message
  0019b	50		 push	 eax
  0019c	e8 00 00 00 00	 call	 ?process_assert@@YGXPBD0H@Z ; process_assert
  001a1	c7 45 b4 00 00
	00 00		 mov	 DWORD PTR tv155[ebp], 0
$LN26@debug_set_:
  001a8	b9 01 00 00 00	 mov	 ecx, 1
  001ad	85 c9		 test	 ecx, ecx
  001af	74 09		 je	 SHORT $LN27@debug_set_
  001b1	c7 45 b0 47 00
	00 00		 mov	 DWORD PTR tv163[ebp], 71 ; 00000047H
  001b8	eb 21		 jmp	 SHORT $LN28@debug_set_
$LN27@debug_set_:
  001ba	8b 15 00 00 00
	00		 mov	 edx, DWORD PTR ?__LINE__Var@?0??debug_set_entity_group_formation@@YGXPAUEVENT@@@Z@4JA
  001c0	83 c2 19	 add	 edx, 25			; 00000019H
  001c3	52		 push	 edx
  001c4	68 00 00 00 00	 push	 OFFSET ??_C@_0DO@EFGBNKOF@c?3?2users?2nhv90?2projects?2eech?2ap@
  001c9	a1 00 00 00 00	 mov	 eax, DWORD PTR ?overload_invalid_int_type_message@@3PBDB ; overload_invalid_int_type_message
  001ce	50		 push	 eax
  001cf	e8 00 00 00 00	 call	 ?process_assert@@YGXPBD0H@Z ; process_assert
  001d4	c7 45 b0 00 00
	00 00		 mov	 DWORD PTR tv163[ebp], 0
$LN28@debug_set_:
  001db	6a 03		 push	 3
  001dd	6a 47		 push	 71			; 00000047H
  001df	8b 4d f8	 mov	 ecx, DWORD PTR _group$[ebp]
  001e2	51		 push	 ecx
  001e3	69 55 b4 b8 08
	00 00		 imul	 edx, DWORD PTR tv155[ebp], 2232
  001ea	8b 45 b0	 mov	 eax, DWORD PTR tv163[ebp]
  001ed	8d 8c c2 00 00
	00 00		 lea	 ecx, DWORD PTR ?fn_set_client_server_entity_int_value@@3PAY1BBH@1P6GXPAUENTITY@@W4INT_TYPES@@H@ZA[edx+eax*8]
  001f4	8b 15 00 00 00
	00		 mov	 edx, DWORD PTR ?system_comms_model@@3W4COMMS_MODEL_TYPES@@A ; system_comms_model
  001fa	8b 04 91	 mov	 eax, DWORD PTR [ecx+edx*4]
  001fd	ff d0		 call	 eax

; 2010 : 
; 2011 : 					break;

  001ff	e9 d6 03 00 00	 jmp	 $LN1@debug_set_
$LN9@debug_set_:

; 2012 : 				}
; 2013 : 				case DIK_3:
; 2014 : 				{
; 2015 : 					set_client_server_entity_int_value (group, INT_TYPE_GROUP_FORMATION, FORMATION_ECHELON_LEFT);

  00204	83 7d f8 00	 cmp	 DWORD PTR _group$[ebp], 0
  00208	74 0a		 je	 SHORT $LN29@debug_set_
  0020a	8b 45 f8	 mov	 eax, DWORD PTR _group$[ebp]
  0020d	8b 08		 mov	 ecx, DWORD PTR [eax]
  0020f	89 4d b4	 mov	 DWORD PTR tv177[ebp], ecx
  00212	eb 21		 jmp	 SHORT $LN30@debug_set_
$LN29@debug_set_:
  00214	8b 15 00 00 00
	00		 mov	 edx, DWORD PTR ?__LINE__Var@?0??debug_set_entity_group_formation@@YGXPAUEVENT@@@Z@4JA
  0021a	83 c2 1f	 add	 edx, 31			; 0000001fH
  0021d	52		 push	 edx
  0021e	68 00 00 00 00	 push	 OFFSET ??_C@_0DO@EFGBNKOF@c?3?2users?2nhv90?2projects?2eech?2ap@
  00223	a1 00 00 00 00	 mov	 eax, DWORD PTR ?null_entity_pointer_message@@3PBDB ; null_entity_pointer_message
  00228	50		 push	 eax
  00229	e8 00 00 00 00	 call	 ?process_assert@@YGXPBD0H@Z ; process_assert
  0022e	c7 45 b4 00 00
	00 00		 mov	 DWORD PTR tv177[ebp], 0
$LN30@debug_set_:
  00235	b9 01 00 00 00	 mov	 ecx, 1
  0023a	85 c9		 test	 ecx, ecx
  0023c	74 09		 je	 SHORT $LN31@debug_set_
  0023e	c7 45 b0 47 00
	00 00		 mov	 DWORD PTR tv185[ebp], 71 ; 00000047H
  00245	eb 21		 jmp	 SHORT $LN32@debug_set_
$LN31@debug_set_:
  00247	8b 15 00 00 00
	00		 mov	 edx, DWORD PTR ?__LINE__Var@?0??debug_set_entity_group_formation@@YGXPAUEVENT@@@Z@4JA
  0024d	83 c2 1f	 add	 edx, 31			; 0000001fH
  00250	52		 push	 edx
  00251	68 00 00 00 00	 push	 OFFSET ??_C@_0DO@EFGBNKOF@c?3?2users?2nhv90?2projects?2eech?2ap@
  00256	a1 00 00 00 00	 mov	 eax, DWORD PTR ?overload_invalid_int_type_message@@3PBDB ; overload_invalid_int_type_message
  0025b	50		 push	 eax
  0025c	e8 00 00 00 00	 call	 ?process_assert@@YGXPBD0H@Z ; process_assert
  00261	c7 45 b0 00 00
	00 00		 mov	 DWORD PTR tv185[ebp], 0
$LN32@debug_set_:
  00268	6a 04		 push	 4
  0026a	6a 47		 push	 71			; 00000047H
  0026c	8b 4d f8	 mov	 ecx, DWORD PTR _group$[ebp]
  0026f	51		 push	 ecx
  00270	69 55 b4 b8 08
	00 00		 imul	 edx, DWORD PTR tv177[ebp], 2232
  00277	8b 45 b0	 mov	 eax, DWORD PTR tv185[ebp]
  0027a	8d 8c c2 00 00
	00 00		 lea	 ecx, DWORD PTR ?fn_set_client_server_entity_int_value@@3PAY1BBH@1P6GXPAUENTITY@@W4INT_TYPES@@H@ZA[edx+eax*8]
  00281	8b 15 00 00 00
	00		 mov	 edx, DWORD PTR ?system_comms_model@@3W4COMMS_MODEL_TYPES@@A ; system_comms_model
  00287	8b 04 91	 mov	 eax, DWORD PTR [ecx+edx*4]
  0028a	ff d0		 call	 eax

; 2016 : 
; 2017 : 					break;

  0028c	e9 49 03 00 00	 jmp	 $LN1@debug_set_
$LN10@debug_set_:

; 2018 : 				}
; 2019 : 				case DIK_4:
; 2020 : 				{
; 2021 : 					set_client_server_entity_int_value (group, INT_TYPE_GROUP_FORMATION, FORMATION_ECHELON_RIGHT);

  00291	83 7d f8 00	 cmp	 DWORD PTR _group$[ebp], 0
  00295	74 0a		 je	 SHORT $LN33@debug_set_
  00297	8b 45 f8	 mov	 eax, DWORD PTR _group$[ebp]
  0029a	8b 08		 mov	 ecx, DWORD PTR [eax]
  0029c	89 4d b4	 mov	 DWORD PTR tv199[ebp], ecx
  0029f	eb 21		 jmp	 SHORT $LN34@debug_set_
$LN33@debug_set_:
  002a1	8b 15 00 00 00
	00		 mov	 edx, DWORD PTR ?__LINE__Var@?0??debug_set_entity_group_formation@@YGXPAUEVENT@@@Z@4JA
  002a7	83 c2 25	 add	 edx, 37			; 00000025H
  002aa	52		 push	 edx
  002ab	68 00 00 00 00	 push	 OFFSET ??_C@_0DO@EFGBNKOF@c?3?2users?2nhv90?2projects?2eech?2ap@
  002b0	a1 00 00 00 00	 mov	 eax, DWORD PTR ?null_entity_pointer_message@@3PBDB ; null_entity_pointer_message
  002b5	50		 push	 eax
  002b6	e8 00 00 00 00	 call	 ?process_assert@@YGXPBD0H@Z ; process_assert
  002bb	c7 45 b4 00 00
	00 00		 mov	 DWORD PTR tv199[ebp], 0
$LN34@debug_set_:
  002c2	b9 01 00 00 00	 mov	 ecx, 1
  002c7	85 c9		 test	 ecx, ecx
  002c9	74 09		 je	 SHORT $LN35@debug_set_
  002cb	c7 45 b0 47 00
	00 00		 mov	 DWORD PTR tv207[ebp], 71 ; 00000047H
  002d2	eb 21		 jmp	 SHORT $LN36@debug_set_
$LN35@debug_set_:
  002d4	8b 15 00 00 00
	00		 mov	 edx, DWORD PTR ?__LINE__Var@?0??debug_set_entity_group_formation@@YGXPAUEVENT@@@Z@4JA
  002da	83 c2 25	 add	 edx, 37			; 00000025H
  002dd	52		 push	 edx
  002de	68 00 00 00 00	 push	 OFFSET ??_C@_0DO@EFGBNKOF@c?3?2users?2nhv90?2projects?2eech?2ap@
  002e3	a1 00 00 00 00	 mov	 eax, DWORD PTR ?overload_invalid_int_type_message@@3PBDB ; overload_invalid_int_type_message
  002e8	50		 push	 eax
  002e9	e8 00 00 00 00	 call	 ?process_assert@@YGXPBD0H@Z ; process_assert
  002ee	c7 45 b0 00 00
	00 00		 mov	 DWORD PTR tv207[ebp], 0
$LN36@debug_set_:
  002f5	6a 05		 push	 5
  002f7	6a 47		 push	 71			; 00000047H
  002f9	8b 4d f8	 mov	 ecx, DWORD PTR _group$[ebp]
  002fc	51		 push	 ecx
  002fd	69 55 b4 b8 08
	00 00		 imul	 edx, DWORD PTR tv199[ebp], 2232
  00304	8b 45 b0	 mov	 eax, DWORD PTR tv207[ebp]
  00307	8d 8c c2 00 00
	00 00		 lea	 ecx, DWORD PTR ?fn_set_client_server_entity_int_value@@3PAY1BBH@1P6GXPAUENTITY@@W4INT_TYPES@@H@ZA[edx+eax*8]
  0030e	8b 15 00 00 00
	00		 mov	 edx, DWORD PTR ?system_comms_model@@3W4COMMS_MODEL_TYPES@@A ; system_comms_model
  00314	8b 04 91	 mov	 eax, DWORD PTR [ecx+edx*4]
  00317	ff d0		 call	 eax

; 2022 : 
; 2023 : 					break;

  00319	e9 bc 02 00 00	 jmp	 $LN1@debug_set_
$LN11@debug_set_:

; 2024 : 				}
; 2025 : 				case DIK_5:
; 2026 : 				{
; 2027 : 					set_client_server_entity_int_value (group, INT_TYPE_GROUP_FORMATION, FORMATION_COLUMN);

  0031e	83 7d f8 00	 cmp	 DWORD PTR _group$[ebp], 0
  00322	74 0a		 je	 SHORT $LN37@debug_set_
  00324	8b 45 f8	 mov	 eax, DWORD PTR _group$[ebp]
  00327	8b 08		 mov	 ecx, DWORD PTR [eax]
  00329	89 4d b4	 mov	 DWORD PTR tv221[ebp], ecx
  0032c	eb 21		 jmp	 SHORT $LN38@debug_set_
$LN37@debug_set_:
  0032e	8b 15 00 00 00
	00		 mov	 edx, DWORD PTR ?__LINE__Var@?0??debug_set_entity_group_formation@@YGXPAUEVENT@@@Z@4JA
  00334	83 c2 2b	 add	 edx, 43			; 0000002bH
  00337	52		 push	 edx
  00338	68 00 00 00 00	 push	 OFFSET ??_C@_0DO@EFGBNKOF@c?3?2users?2nhv90?2projects?2eech?2ap@
  0033d	a1 00 00 00 00	 mov	 eax, DWORD PTR ?null_entity_pointer_message@@3PBDB ; null_entity_pointer_message
  00342	50		 push	 eax
  00343	e8 00 00 00 00	 call	 ?process_assert@@YGXPBD0H@Z ; process_assert
  00348	c7 45 b4 00 00
	00 00		 mov	 DWORD PTR tv221[ebp], 0
$LN38@debug_set_:
  0034f	b9 01 00 00 00	 mov	 ecx, 1
  00354	85 c9		 test	 ecx, ecx
  00356	74 09		 je	 SHORT $LN39@debug_set_
  00358	c7 45 b0 47 00
	00 00		 mov	 DWORD PTR tv229[ebp], 71 ; 00000047H
  0035f	eb 21		 jmp	 SHORT $LN40@debug_set_
$LN39@debug_set_:
  00361	8b 15 00 00 00
	00		 mov	 edx, DWORD PTR ?__LINE__Var@?0??debug_set_entity_group_formation@@YGXPAUEVENT@@@Z@4JA
  00367	83 c2 2b	 add	 edx, 43			; 0000002bH
  0036a	52		 push	 edx
  0036b	68 00 00 00 00	 push	 OFFSET ??_C@_0DO@EFGBNKOF@c?3?2users?2nhv90?2projects?2eech?2ap@
  00370	a1 00 00 00 00	 mov	 eax, DWORD PTR ?overload_invalid_int_type_message@@3PBDB ; overload_invalid_int_type_message
  00375	50		 push	 eax
  00376	e8 00 00 00 00	 call	 ?process_assert@@YGXPBD0H@Z ; process_assert
  0037b	c7 45 b0 00 00
	00 00		 mov	 DWORD PTR tv229[ebp], 0
$LN40@debug_set_:
  00382	6a 06		 push	 6
  00384	6a 47		 push	 71			; 00000047H
  00386	8b 4d f8	 mov	 ecx, DWORD PTR _group$[ebp]
  00389	51		 push	 ecx
  0038a	69 55 b4 b8 08
	00 00		 imul	 edx, DWORD PTR tv221[ebp], 2232
  00391	8b 45 b0	 mov	 eax, DWORD PTR tv229[ebp]
  00394	8d 8c c2 00 00
	00 00		 lea	 ecx, DWORD PTR ?fn_set_client_server_entity_int_value@@3PAY1BBH@1P6GXPAUENTITY@@W4INT_TYPES@@H@ZA[edx+eax*8]
  0039b	8b 15 00 00 00
	00		 mov	 edx, DWORD PTR ?system_comms_model@@3W4COMMS_MODEL_TYPES@@A ; system_comms_model
  003a1	8b 04 91	 mov	 eax, DWORD PTR [ecx+edx*4]
  003a4	ff d0		 call	 eax

; 2028 : 
; 2029 : 					break;

  003a6	e9 2f 02 00 00	 jmp	 $LN1@debug_set_
$LN12@debug_set_:

; 2030 : 				}
; 2031 : 				case DIK_6:
; 2032 : 				{
; 2033 : 					set_client_server_entity_int_value (group, INT_TYPE_GROUP_FORMATION, FORMATION_WEDGE);  

  003ab	83 7d f8 00	 cmp	 DWORD PTR _group$[ebp], 0
  003af	74 0a		 je	 SHORT $LN41@debug_set_
  003b1	8b 45 f8	 mov	 eax, DWORD PTR _group$[ebp]
  003b4	8b 08		 mov	 ecx, DWORD PTR [eax]
  003b6	89 4d b4	 mov	 DWORD PTR tv243[ebp], ecx
  003b9	eb 21		 jmp	 SHORT $LN42@debug_set_
$LN41@debug_set_:
  003bb	8b 15 00 00 00
	00		 mov	 edx, DWORD PTR ?__LINE__Var@?0??debug_set_entity_group_formation@@YGXPAUEVENT@@@Z@4JA
  003c1	83 c2 31	 add	 edx, 49			; 00000031H
  003c4	52		 push	 edx
  003c5	68 00 00 00 00	 push	 OFFSET ??_C@_0DO@EFGBNKOF@c?3?2users?2nhv90?2projects?2eech?2ap@
  003ca	a1 00 00 00 00	 mov	 eax, DWORD PTR ?null_entity_pointer_message@@3PBDB ; null_entity_pointer_message
  003cf	50		 push	 eax
  003d0	e8 00 00 00 00	 call	 ?process_assert@@YGXPBD0H@Z ; process_assert
  003d5	c7 45 b4 00 00
	00 00		 mov	 DWORD PTR tv243[ebp], 0
$LN42@debug_set_:
  003dc	b9 01 00 00 00	 mov	 ecx, 1
  003e1	85 c9		 test	 ecx, ecx
  003e3	74 09		 je	 SHORT $LN43@debug_set_
  003e5	c7 45 b0 47 00
	00 00		 mov	 DWORD PTR tv251[ebp], 71 ; 00000047H
  003ec	eb 21		 jmp	 SHORT $LN44@debug_set_
$LN43@debug_set_:
  003ee	8b 15 00 00 00
	00		 mov	 edx, DWORD PTR ?__LINE__Var@?0??debug_set_entity_group_formation@@YGXPAUEVENT@@@Z@4JA
  003f4	83 c2 31	 add	 edx, 49			; 00000031H
  003f7	52		 push	 edx
  003f8	68 00 00 00 00	 push	 OFFSET ??_C@_0DO@EFGBNKOF@c?3?2users?2nhv90?2projects?2eech?2ap@
  003fd	a1 00 00 00 00	 mov	 eax, DWORD PTR ?overload_invalid_int_type_message@@3PBDB ; overload_invalid_int_type_message
  00402	50		 push	 eax
  00403	e8 00 00 00 00	 call	 ?process_assert@@YGXPBD0H@Z ; process_assert
  00408	c7 45 b0 00 00
	00 00		 mov	 DWORD PTR tv251[ebp], 0
$LN44@debug_set_:
  0040f	6a 07		 push	 7
  00411	6a 47		 push	 71			; 00000047H
  00413	8b 4d f8	 mov	 ecx, DWORD PTR _group$[ebp]
  00416	51		 push	 ecx
  00417	69 55 b4 b8 08
	00 00		 imul	 edx, DWORD PTR tv243[ebp], 2232
  0041e	8b 45 b0	 mov	 eax, DWORD PTR tv251[ebp]
  00421	8d 8c c2 00 00
	00 00		 lea	 ecx, DWORD PTR ?fn_set_client_server_entity_int_value@@3PAY1BBH@1P6GXPAUENTITY@@W4INT_TYPES@@H@ZA[edx+eax*8]
  00428	8b 15 00 00 00
	00		 mov	 edx, DWORD PTR ?system_comms_model@@3W4COMMS_MODEL_TYPES@@A ; system_comms_model
  0042e	8b 04 91	 mov	 eax, DWORD PTR [ecx+edx*4]
  00431	ff d0		 call	 eax

; 2034 : 
; 2035 : 					break;

  00433	e9 a2 01 00 00	 jmp	 $LN1@debug_set_
$LN13@debug_set_:

; 2036 :                 }
; 2037 : //VJ 060306 for Maverick 3 new group formations                
; 2038 : 				case DIK_7:
; 2039 : 				{
; 2040 : 					set_client_server_entity_int_value (group, INT_TYPE_GROUP_FORMATION, FORMATION_DIAMOND);

  00438	83 7d f8 00	 cmp	 DWORD PTR _group$[ebp], 0
  0043c	74 0a		 je	 SHORT $LN45@debug_set_
  0043e	8b 45 f8	 mov	 eax, DWORD PTR _group$[ebp]
  00441	8b 08		 mov	 ecx, DWORD PTR [eax]
  00443	89 4d b4	 mov	 DWORD PTR tv265[ebp], ecx
  00446	eb 21		 jmp	 SHORT $LN46@debug_set_
$LN45@debug_set_:
  00448	8b 15 00 00 00
	00		 mov	 edx, DWORD PTR ?__LINE__Var@?0??debug_set_entity_group_formation@@YGXPAUEVENT@@@Z@4JA
  0044e	83 c2 38	 add	 edx, 56			; 00000038H
  00451	52		 push	 edx
  00452	68 00 00 00 00	 push	 OFFSET ??_C@_0DO@EFGBNKOF@c?3?2users?2nhv90?2projects?2eech?2ap@
  00457	a1 00 00 00 00	 mov	 eax, DWORD PTR ?null_entity_pointer_message@@3PBDB ; null_entity_pointer_message
  0045c	50		 push	 eax
  0045d	e8 00 00 00 00	 call	 ?process_assert@@YGXPBD0H@Z ; process_assert
  00462	c7 45 b4 00 00
	00 00		 mov	 DWORD PTR tv265[ebp], 0
$LN46@debug_set_:
  00469	b9 01 00 00 00	 mov	 ecx, 1
  0046e	85 c9		 test	 ecx, ecx
  00470	74 09		 je	 SHORT $LN47@debug_set_
  00472	c7 45 b0 47 00
	00 00		 mov	 DWORD PTR tv273[ebp], 71 ; 00000047H
  00479	eb 21		 jmp	 SHORT $LN48@debug_set_
$LN47@debug_set_:
  0047b	8b 15 00 00 00
	00		 mov	 edx, DWORD PTR ?__LINE__Var@?0??debug_set_entity_group_formation@@YGXPAUEVENT@@@Z@4JA
  00481	83 c2 38	 add	 edx, 56			; 00000038H
  00484	52		 push	 edx
  00485	68 00 00 00 00	 push	 OFFSET ??_C@_0DO@EFGBNKOF@c?3?2users?2nhv90?2projects?2eech?2ap@
  0048a	a1 00 00 00 00	 mov	 eax, DWORD PTR ?overload_invalid_int_type_message@@3PBDB ; overload_invalid_int_type_message
  0048f	50		 push	 eax
  00490	e8 00 00 00 00	 call	 ?process_assert@@YGXPBD0H@Z ; process_assert
  00495	c7 45 b0 00 00
	00 00		 mov	 DWORD PTR tv273[ebp], 0
$LN48@debug_set_:
  0049c	6a 08		 push	 8
  0049e	6a 47		 push	 71			; 00000047H
  004a0	8b 4d f8	 mov	 ecx, DWORD PTR _group$[ebp]
  004a3	51		 push	 ecx
  004a4	69 55 b4 b8 08
	00 00		 imul	 edx, DWORD PTR tv265[ebp], 2232
  004ab	8b 45 b0	 mov	 eax, DWORD PTR tv273[ebp]
  004ae	8d 8c c2 00 00
	00 00		 lea	 ecx, DWORD PTR ?fn_set_client_server_entity_int_value@@3PAY1BBH@1P6GXPAUENTITY@@W4INT_TYPES@@H@ZA[edx+eax*8]
  004b5	8b 15 00 00 00
	00		 mov	 edx, DWORD PTR ?system_comms_model@@3W4COMMS_MODEL_TYPES@@A ; system_comms_model
  004bb	8b 04 91	 mov	 eax, DWORD PTR [ecx+edx*4]
  004be	ff d0		 call	 eax

; 2041 : 
; 2042 : 					break;

  004c0	e9 15 01 00 00	 jmp	 $LN1@debug_set_
$LN14@debug_set_:

; 2043 :                  }
; 2044 : 				case DIK_8:
; 2045 : 				{
; 2046 : 					set_client_server_entity_int_value (group, INT_TYPE_GROUP_FORMATION, FORMATION_STAGGERED_TRAIL_LEFT);

  004c5	83 7d f8 00	 cmp	 DWORD PTR _group$[ebp], 0
  004c9	74 0a		 je	 SHORT $LN49@debug_set_
  004cb	8b 45 f8	 mov	 eax, DWORD PTR _group$[ebp]
  004ce	8b 08		 mov	 ecx, DWORD PTR [eax]
  004d0	89 4d b4	 mov	 DWORD PTR tv287[ebp], ecx
  004d3	eb 21		 jmp	 SHORT $LN50@debug_set_
$LN49@debug_set_:
  004d5	8b 15 00 00 00
	00		 mov	 edx, DWORD PTR ?__LINE__Var@?0??debug_set_entity_group_formation@@YGXPAUEVENT@@@Z@4JA
  004db	83 c2 3e	 add	 edx, 62			; 0000003eH
  004de	52		 push	 edx
  004df	68 00 00 00 00	 push	 OFFSET ??_C@_0DO@EFGBNKOF@c?3?2users?2nhv90?2projects?2eech?2ap@
  004e4	a1 00 00 00 00	 mov	 eax, DWORD PTR ?null_entity_pointer_message@@3PBDB ; null_entity_pointer_message
  004e9	50		 push	 eax
  004ea	e8 00 00 00 00	 call	 ?process_assert@@YGXPBD0H@Z ; process_assert
  004ef	c7 45 b4 00 00
	00 00		 mov	 DWORD PTR tv287[ebp], 0
$LN50@debug_set_:
  004f6	b9 01 00 00 00	 mov	 ecx, 1
  004fb	85 c9		 test	 ecx, ecx
  004fd	74 09		 je	 SHORT $LN51@debug_set_
  004ff	c7 45 b0 47 00
	00 00		 mov	 DWORD PTR tv295[ebp], 71 ; 00000047H
  00506	eb 21		 jmp	 SHORT $LN52@debug_set_
$LN51@debug_set_:
  00508	8b 15 00 00 00
	00		 mov	 edx, DWORD PTR ?__LINE__Var@?0??debug_set_entity_group_formation@@YGXPAUEVENT@@@Z@4JA
  0050e	83 c2 3e	 add	 edx, 62			; 0000003eH
  00511	52		 push	 edx
  00512	68 00 00 00 00	 push	 OFFSET ??_C@_0DO@EFGBNKOF@c?3?2users?2nhv90?2projects?2eech?2ap@
  00517	a1 00 00 00 00	 mov	 eax, DWORD PTR ?overload_invalid_int_type_message@@3PBDB ; overload_invalid_int_type_message
  0051c	50		 push	 eax
  0051d	e8 00 00 00 00	 call	 ?process_assert@@YGXPBD0H@Z ; process_assert
  00522	c7 45 b0 00 00
	00 00		 mov	 DWORD PTR tv295[ebp], 0
$LN52@debug_set_:
  00529	6a 09		 push	 9
  0052b	6a 47		 push	 71			; 00000047H
  0052d	8b 4d f8	 mov	 ecx, DWORD PTR _group$[ebp]
  00530	51		 push	 ecx
  00531	69 55 b4 b8 08
	00 00		 imul	 edx, DWORD PTR tv287[ebp], 2232
  00538	8b 45 b0	 mov	 eax, DWORD PTR tv295[ebp]
  0053b	8d 8c c2 00 00
	00 00		 lea	 ecx, DWORD PTR ?fn_set_client_server_entity_int_value@@3PAY1BBH@1P6GXPAUENTITY@@W4INT_TYPES@@H@ZA[edx+eax*8]
  00542	8b 15 00 00 00
	00		 mov	 edx, DWORD PTR ?system_comms_model@@3W4COMMS_MODEL_TYPES@@A ; system_comms_model
  00548	8b 04 91	 mov	 eax, DWORD PTR [ecx+edx*4]
  0054b	ff d0		 call	 eax

; 2047 : 
; 2048 : 					break;

  0054d	e9 88 00 00 00	 jmp	 $LN1@debug_set_
$LN15@debug_set_:

; 2049 :                 }
; 2050 : 				case DIK_9:
; 2051 : 				{
; 2052 : 					set_client_server_entity_int_value (group, INT_TYPE_GROUP_FORMATION, FORMATION_STAGGERED_TRAIL_RIGHT);

  00552	83 7d f8 00	 cmp	 DWORD PTR _group$[ebp], 0
  00556	74 0a		 je	 SHORT $LN53@debug_set_
  00558	8b 45 f8	 mov	 eax, DWORD PTR _group$[ebp]
  0055b	8b 08		 mov	 ecx, DWORD PTR [eax]
  0055d	89 4d b4	 mov	 DWORD PTR tv309[ebp], ecx
  00560	eb 21		 jmp	 SHORT $LN54@debug_set_
$LN53@debug_set_:
  00562	8b 15 00 00 00
	00		 mov	 edx, DWORD PTR ?__LINE__Var@?0??debug_set_entity_group_formation@@YGXPAUEVENT@@@Z@4JA
  00568	83 c2 44	 add	 edx, 68			; 00000044H
  0056b	52		 push	 edx
  0056c	68 00 00 00 00	 push	 OFFSET ??_C@_0DO@EFGBNKOF@c?3?2users?2nhv90?2projects?2eech?2ap@
  00571	a1 00 00 00 00	 mov	 eax, DWORD PTR ?null_entity_pointer_message@@3PBDB ; null_entity_pointer_message
  00576	50		 push	 eax
  00577	e8 00 00 00 00	 call	 ?process_assert@@YGXPBD0H@Z ; process_assert
  0057c	c7 45 b4 00 00
	00 00		 mov	 DWORD PTR tv309[ebp], 0
$LN54@debug_set_:
  00583	b9 01 00 00 00	 mov	 ecx, 1
  00588	85 c9		 test	 ecx, ecx
  0058a	74 09		 je	 SHORT $LN55@debug_set_
  0058c	c7 45 b0 47 00
	00 00		 mov	 DWORD PTR tv317[ebp], 71 ; 00000047H
  00593	eb 21		 jmp	 SHORT $LN56@debug_set_
$LN55@debug_set_:
  00595	8b 15 00 00 00
	00		 mov	 edx, DWORD PTR ?__LINE__Var@?0??debug_set_entity_group_formation@@YGXPAUEVENT@@@Z@4JA
  0059b	83 c2 44	 add	 edx, 68			; 00000044H
  0059e	52		 push	 edx
  0059f	68 00 00 00 00	 push	 OFFSET ??_C@_0DO@EFGBNKOF@c?3?2users?2nhv90?2projects?2eech?2ap@
  005a4	a1 00 00 00 00	 mov	 eax, DWORD PTR ?overload_invalid_int_type_message@@3PBDB ; overload_invalid_int_type_message
  005a9	50		 push	 eax
  005aa	e8 00 00 00 00	 call	 ?process_assert@@YGXPBD0H@Z ; process_assert
  005af	c7 45 b0 00 00
	00 00		 mov	 DWORD PTR tv317[ebp], 0
$LN56@debug_set_:
  005b6	6a 0a		 push	 10			; 0000000aH
  005b8	6a 47		 push	 71			; 00000047H
  005ba	8b 4d f8	 mov	 ecx, DWORD PTR _group$[ebp]
  005bd	51		 push	 ecx
  005be	69 55 b4 b8 08
	00 00		 imul	 edx, DWORD PTR tv309[ebp], 2232
  005c5	8b 45 b0	 mov	 eax, DWORD PTR tv317[ebp]
  005c8	8d 8c c2 00 00
	00 00		 lea	 ecx, DWORD PTR ?fn_set_client_server_entity_int_value@@3PAY1BBH@1P6GXPAUENTITY@@W4INT_TYPES@@H@ZA[edx+eax*8]
  005cf	8b 15 00 00 00
	00		 mov	 edx, DWORD PTR ?system_comms_model@@3W4COMMS_MODEL_TYPES@@A ; system_comms_model
  005d5	8b 04 91	 mov	 eax, DWORD PTR [ecx+edx*4]
  005d8	ff d0		 call	 eax
$LN1@debug_set_:

; 2053 : 
; 2054 : 					break;
; 2055 :               
; 2056 : 				}
; 2057 : 			}
; 2058 : 		}
; 2059 : 	}
; 2060 : }

  005da	5f		 pop	 edi
  005db	5e		 pop	 esi
  005dc	5b		 pop	 ebx
  005dd	8b e5		 mov	 esp, ebp
  005df	5d		 pop	 ebp
  005e0	c2 04 00	 ret	 4
  005e3	90		 npad	 1
$LN57@debug_set_:
  005e4	00 00 00 00	 DD	 $LN7@debug_set_
  005e8	00 00 00 00	 DD	 $LN8@debug_set_
  005ec	00 00 00 00	 DD	 $LN9@debug_set_
  005f0	00 00 00 00	 DD	 $LN10@debug_set_
  005f4	00 00 00 00	 DD	 $LN11@debug_set_
  005f8	00 00 00 00	 DD	 $LN12@debug_set_
  005fc	00 00 00 00	 DD	 $LN13@debug_set_
  00600	00 00 00 00	 DD	 $LN14@debug_set_
  00604	00 00 00 00	 DD	 $LN15@debug_set_
?debug_set_entity_group_formation@@YGXPAUEVENT@@@Z ENDP	; debug_set_entity_group_formation
_TEXT	ENDS
; Function compile flags: /Odtp /ZI
; File c:\users\nhv90\projects\eech\aphavoc\source\events\ev_debug.c
;	COMDAT ?debug_set_current_language@@YGXPAUEVENT@@@Z
_TEXT	SEGMENT
tv71 = -68						; size = 4
_ev$ = 8						; size = 4
?debug_set_current_language@@YGXPAUEVENT@@@Z PROC	; debug_set_current_language, COMDAT

; 1941 : {

  00000	55		 push	 ebp
  00001	8b ec		 mov	 ebp, esp
  00003	83 ec 44	 sub	 esp, 68			; 00000044H
  00006	53		 push	 ebx
  00007	56		 push	 esi
  00008	57		 push	 edi

; 1942 : 	ASSERT (ev);

  00009	83 7d 08 00	 cmp	 DWORD PTR _ev$[ebp], 0
  0000d	75 18		 jne	 SHORT $LN4@debug_set_
  0000f	a1 00 00 00 00	 mov	 eax, DWORD PTR ?__LINE__Var@?0??debug_set_current_language@@YGXPAUEVENT@@@Z@4JA
  00014	83 c0 01	 add	 eax, 1
  00017	50		 push	 eax
  00018	68 00 00 00 00	 push	 OFFSET ??_C@_0DO@EFGBNKOF@c?3?2users?2nhv90?2projects?2eech?2ap@
  0001d	68 00 00 00 00	 push	 OFFSET ??_C@_02DHMHPBFG@ev@
  00022	e8 00 00 00 00	 call	 ?process_assert@@YGXPBD0H@Z ; process_assert
$LN4@debug_set_:

; 1943 : 
; 1944 : 	switch (ev->key)

  00027	8b 45 08	 mov	 eax, DWORD PTR _ev$[ebp]
  0002a	0f b6 48 06	 movzx	 ecx, BYTE PTR [eax+6]
  0002e	89 4d bc	 mov	 DWORD PTR tv71[ebp], ecx
  00031	8b 55 bc	 mov	 edx, DWORD PTR tv71[ebp]
  00034	83 ea 02	 sub	 edx, 2
  00037	89 55 bc	 mov	 DWORD PTR tv71[ebp], edx
  0003a	83 7d bc 04	 cmp	 DWORD PTR tv71[ebp], 4
  0003e	77 44		 ja	 SHORT $LN1@debug_set_
  00040	8b 45 bc	 mov	 eax, DWORD PTR tv71[ebp]
  00043	ff 24 85 00 00
	00 00		 jmp	 DWORD PTR $LN11@debug_set_[eax*4]
$LN5@debug_set_:

; 1945 : 	{
; 1946 : 		case DIK_1:
; 1947 : 		{
; 1948 : 			set_global_current_language (LANGUAGE_ENGLISH);

  0004a	c7 05 04 00 00
	00 00 00 00 00	 mov	 DWORD PTR ?global_options@@3UGLOBAL_OPTIONS_DATA@@A+4, 0

; 1949 : 
; 1950 : 			break;

  00054	eb 2e		 jmp	 SHORT $LN1@debug_set_
$LN6@debug_set_:

; 1951 : 		}
; 1952 : 		case DIK_2:
; 1953 : 		{
; 1954 : 			set_global_current_language (LANGUAGE_FRENCH);

  00056	c7 05 04 00 00
	00 01 00 00 00	 mov	 DWORD PTR ?global_options@@3UGLOBAL_OPTIONS_DATA@@A+4, 1

; 1955 : 
; 1956 : 			break;

  00060	eb 22		 jmp	 SHORT $LN1@debug_set_
$LN7@debug_set_:

; 1957 : 		}
; 1958 : 		case DIK_3:
; 1959 : 		{
; 1960 : 			set_global_current_language (LANGUAGE_GERMAN);

  00062	c7 05 04 00 00
	00 02 00 00 00	 mov	 DWORD PTR ?global_options@@3UGLOBAL_OPTIONS_DATA@@A+4, 2

; 1961 : 
; 1962 : 			break;

  0006c	eb 16		 jmp	 SHORT $LN1@debug_set_
$LN8@debug_set_:

; 1963 : 		}
; 1964 : 		case DIK_4:
; 1965 : 		{
; 1966 : 			set_global_current_language (LANGUAGE_ITALIAN);

  0006e	c7 05 04 00 00
	00 03 00 00 00	 mov	 DWORD PTR ?global_options@@3UGLOBAL_OPTIONS_DATA@@A+4, 3

; 1967 : 
; 1968 : 			break;

  00078	eb 0a		 jmp	 SHORT $LN1@debug_set_
$LN9@debug_set_:

; 1969 : 		}
; 1970 : 		case DIK_5:
; 1971 : 		{
; 1972 : 			set_global_current_language (LANGUAGE_SPANISH);

  0007a	c7 05 04 00 00
	00 04 00 00 00	 mov	 DWORD PTR ?global_options@@3UGLOBAL_OPTIONS_DATA@@A+4, 4
$LN1@debug_set_:

; 1973 : 
; 1974 : 			break;
; 1975 : 		}
; 1976 : 	}
; 1977 : }

  00084	5f		 pop	 edi
  00085	5e		 pop	 esi
  00086	5b		 pop	 ebx
  00087	8b e5		 mov	 esp, ebp
  00089	5d		 pop	 ebp
  0008a	c2 04 00	 ret	 4
  0008d	0f 1f 00	 npad	 3
$LN11@debug_set_:
  00090	00 00 00 00	 DD	 $LN5@debug_set_
  00094	00 00 00 00	 DD	 $LN6@debug_set_
  00098	00 00 00 00	 DD	 $LN7@debug_set_
  0009c	00 00 00 00	 DD	 $LN8@debug_set_
  000a0	00 00 00 00	 DD	 $LN9@debug_set_
?debug_set_current_language@@YGXPAUEVENT@@@Z ENDP	; debug_set_current_language
_TEXT	ENDS
; Function compile flags: /Odtp /ZI
; File c:\users\nhv90\projects\eech\aphavoc\source\events\ev_debug.c
;	COMDAT ?debug_create_troop_insert_event@@YGXPAUEVENT@@@Z
_TEXT	SEGMENT
tv233 = -104						; size = 4
tv223 = -100						; size = 4
tv188 = -100						; size = 4
tv162 = -100						; size = 4
tv134 = -100						; size = 4
tv81 = -100						; size = 4
tv215 = -96						; size = 4
tv195 = -96						; size = 4
tv180 = -96						; size = 4
tv154 = -96						; size = 4
tv146 = -96						; size = 4
tv94 = -96						; size = 4
tv73 = -96						; size = 4
_new_side$ = -28					; size = 4
_side$ = -24						; size = 4
_sub_type$ = -20					; size = 4
_new_task$ = -16					; size = 4
_keysite$ = -12						; size = 4
_group$ = -8						; size = 4
_en$ = -4						; size = 4
_ev$ = 8						; size = 4
?debug_create_troop_insert_event@@YGXPAUEVENT@@@Z PROC	; debug_create_troop_insert_event, COMDAT

; 1884 : {

  00000	55		 push	 ebp
  00001	8b ec		 mov	 ebp, esp
  00003	83 ec 68	 sub	 esp, 104		; 00000068H
  00006	53		 push	 ebx
  00007	56		 push	 esi
  00008	57		 push	 edi

; 1885 : 	entity
; 1886 : 		*en,
; 1887 : 		*group,
; 1888 : 		*keysite,
; 1889 : 		*new_task;
; 1890 : 
; 1891 : 	int
; 1892 : 		sub_type,
; 1893 : 		side,
; 1894 : 		new_side;
; 1895 : 
; 1896 : 	if (get_comms_model () == COMMS_MODEL_SERVER)

  00009	83 3d 00 00 00
	00 00		 cmp	 DWORD PTR ?system_comms_model@@3W4COMMS_MODEL_TYPES@@A, 0 ; system_comms_model
  00010	0f 85 79 03 00
	00		 jne	 $LN8@debug_crea

; 1897 : 	{
; 1898 : 		en = get_external_view_entity ();

  00016	e8 00 00 00 00	 call	 ?get_external_view_entity@@YGPAUENTITY@@XZ ; get_external_view_entity
  0001b	89 45 fc	 mov	 DWORD PTR _en$[ebp], eax

; 1899 : 
; 1900 : 		if (en)

  0001e	83 7d fc 00	 cmp	 DWORD PTR _en$[ebp], 0
  00022	0f 84 67 03 00
	00		 je	 $LN8@debug_crea

; 1901 : 		{
; 1902 : 			group = get_local_entity_parent (en, LIST_TYPE_MEMBER);

  00028	83 7d fc 00	 cmp	 DWORD PTR _en$[ebp], 0
  0002c	74 0a		 je	 SHORT $LN10@debug_crea
  0002e	8b 45 fc	 mov	 eax, DWORD PTR _en$[ebp]
  00031	8b 08		 mov	 ecx, DWORD PTR [eax]
  00033	89 4d a0	 mov	 DWORD PTR tv73[ebp], ecx
  00036	eb 21		 jmp	 SHORT $LN11@debug_crea
$LN10@debug_crea:
  00038	8b 15 00 00 00
	00		 mov	 edx, DWORD PTR ?__LINE__Var@?0??debug_create_troop_insert_event@@YGXPAUEVENT@@@Z@4JA
  0003e	83 c2 12	 add	 edx, 18			; 00000012H
  00041	52		 push	 edx
  00042	68 00 00 00 00	 push	 OFFSET ??_C@_0DO@EFGBNKOF@c?3?2users?2nhv90?2projects?2eech?2ap@
  00047	a1 00 00 00 00	 mov	 eax, DWORD PTR ?null_entity_pointer_message@@3PBDB ; null_entity_pointer_message
  0004c	50		 push	 eax
  0004d	e8 00 00 00 00	 call	 ?process_assert@@YGXPBD0H@Z ; process_assert
  00052	c7 45 a0 00 00
	00 00		 mov	 DWORD PTR tv73[ebp], 0
$LN11@debug_crea:
  00059	b9 01 00 00 00	 mov	 ecx, 1
  0005e	85 c9		 test	 ecx, ecx
  00060	74 09		 je	 SHORT $LN12@debug_crea
  00062	c7 45 9c 19 00
	00 00		 mov	 DWORD PTR tv81[ebp], 25	; 00000019H
  00069	eb 21		 jmp	 SHORT $LN13@debug_crea
$LN12@debug_crea:
  0006b	8b 15 00 00 00
	00		 mov	 edx, DWORD PTR ?__LINE__Var@?0??debug_create_troop_insert_event@@YGXPAUEVENT@@@Z@4JA
  00071	83 c2 12	 add	 edx, 18			; 00000012H
  00074	52		 push	 edx
  00075	68 00 00 00 00	 push	 OFFSET ??_C@_0DO@EFGBNKOF@c?3?2users?2nhv90?2projects?2eech?2ap@
  0007a	a1 00 00 00 00	 mov	 eax, DWORD PTR ?overload_invalid_list_type_message@@3PBDB ; overload_invalid_list_type_message
  0007f	50		 push	 eax
  00080	e8 00 00 00 00	 call	 ?process_assert@@YGXPBD0H@Z ; process_assert
  00085	c7 45 9c 00 00
	00 00		 mov	 DWORD PTR tv81[ebp], 0
$LN13@debug_crea:
  0008c	6a 19		 push	 25			; 00000019H
  0008e	8b 4d fc	 mov	 ecx, DWORD PTR _en$[ebp]
  00091	51		 push	 ecx
  00092	69 55 a0 b4 00
	00 00		 imul	 edx, DWORD PTR tv73[ebp], 180
  00099	8b 45 9c	 mov	 eax, DWORD PTR tv81[ebp]
  0009c	8b 8c 82 00 00
	00 00		 mov	 ecx, DWORD PTR ?fn_get_local_entity_parent@@3PAY0CN@P6GPAUENTITY@@PAU1@W4LIST_TYPES@@@ZA[edx+eax*4]
  000a3	ff d1		 call	 ecx
  000a5	89 45 f8	 mov	 DWORD PTR _group$[ebp], eax

; 1903 : 
; 1904 : 			if (group)

  000a8	83 7d f8 00	 cmp	 DWORD PTR _group$[ebp], 0
  000ac	0f 84 dd 02 00
	00		 je	 $LN8@debug_crea

; 1905 : 			{
; 1906 : 				keysite = get_local_entity_parent (group, LIST_TYPE_KEYSITE_GROUP);

  000b2	83 7d f8 00	 cmp	 DWORD PTR _group$[ebp], 0
  000b6	74 0a		 je	 SHORT $LN14@debug_crea
  000b8	8b 45 f8	 mov	 eax, DWORD PTR _group$[ebp]
  000bb	8b 08		 mov	 ecx, DWORD PTR [eax]
  000bd	89 4d a0	 mov	 DWORD PTR tv94[ebp], ecx
  000c0	eb 21		 jmp	 SHORT $LN15@debug_crea
$LN14@debug_crea:
  000c2	8b 15 00 00 00
	00		 mov	 edx, DWORD PTR ?__LINE__Var@?0??debug_create_troop_insert_event@@YGXPAUEVENT@@@Z@4JA
  000c8	83 c2 16	 add	 edx, 22			; 00000016H
  000cb	52		 push	 edx
  000cc	68 00 00 00 00	 push	 OFFSET ??_C@_0DO@EFGBNKOF@c?3?2users?2nhv90?2projects?2eech?2ap@
  000d1	a1 00 00 00 00	 mov	 eax, DWORD PTR ?null_entity_pointer_message@@3PBDB ; null_entity_pointer_message
  000d6	50		 push	 eax
  000d7	e8 00 00 00 00	 call	 ?process_assert@@YGXPBD0H@Z ; process_assert
  000dc	c7 45 a0 00 00
	00 00		 mov	 DWORD PTR tv94[ebp], 0
$LN15@debug_crea:
  000e3	b9 01 00 00 00	 mov	 ecx, 1
  000e8	85 c9		 test	 ecx, ecx
  000ea	74 09		 je	 SHORT $LN16@debug_crea
  000ec	c7 45 9c 16 00
	00 00		 mov	 DWORD PTR tv134[ebp], 22 ; 00000016H
  000f3	eb 21		 jmp	 SHORT $LN17@debug_crea
$LN16@debug_crea:
  000f5	8b 15 00 00 00
	00		 mov	 edx, DWORD PTR ?__LINE__Var@?0??debug_create_troop_insert_event@@YGXPAUEVENT@@@Z@4JA
  000fb	83 c2 16	 add	 edx, 22			; 00000016H
  000fe	52		 push	 edx
  000ff	68 00 00 00 00	 push	 OFFSET ??_C@_0DO@EFGBNKOF@c?3?2users?2nhv90?2projects?2eech?2ap@
  00104	a1 00 00 00 00	 mov	 eax, DWORD PTR ?overload_invalid_list_type_message@@3PBDB ; overload_invalid_list_type_message
  00109	50		 push	 eax
  0010a	e8 00 00 00 00	 call	 ?process_assert@@YGXPBD0H@Z ; process_assert
  0010f	c7 45 9c 00 00
	00 00		 mov	 DWORD PTR tv134[ebp], 0
$LN17@debug_crea:
  00116	6a 16		 push	 22			; 00000016H
  00118	8b 4d f8	 mov	 ecx, DWORD PTR _group$[ebp]
  0011b	51		 push	 ecx
  0011c	69 55 a0 b4 00
	00 00		 imul	 edx, DWORD PTR tv94[ebp], 180
  00123	8b 45 9c	 mov	 eax, DWORD PTR tv134[ebp]
  00126	8b 8c 82 00 00
	00 00		 mov	 ecx, DWORD PTR ?fn_get_local_entity_parent@@3PAY0CN@P6GPAUENTITY@@PAU1@W4LIST_TYPES@@@ZA[edx+eax*4]
  0012d	ff d1		 call	 ecx
  0012f	89 45 f4	 mov	 DWORD PTR _keysite$[ebp], eax

; 1907 : 
; 1908 : 				if (keysite)

  00132	83 7d f4 00	 cmp	 DWORD PTR _keysite$[ebp], 0
  00136	0f 84 53 02 00
	00		 je	 $LN8@debug_crea

; 1909 : 				{
; 1910 : 					if (get_local_entity_type (keysite) == ENTITY_TYPE_KEYSITE)

  0013c	83 7d f4 00	 cmp	 DWORD PTR _keysite$[ebp], 0
  00140	74 0a		 je	 SHORT $LN18@debug_crea
  00142	8b 45 f4	 mov	 eax, DWORD PTR _keysite$[ebp]
  00145	8b 08		 mov	 ecx, DWORD PTR [eax]
  00147	89 4d a0	 mov	 DWORD PTR tv146[ebp], ecx
  0014a	eb 1d		 jmp	 SHORT $LN19@debug_crea
$LN18@debug_crea:
  0014c	68 76 07 00 00	 push	 1910			; 00000776H
  00151	68 00 00 00 00	 push	 OFFSET ??_C@_0DO@EFGBNKOF@c?3?2users?2nhv90?2projects?2eech?2ap@
  00156	8b 15 00 00 00
	00		 mov	 edx, DWORD PTR ?null_entity_pointer_message@@3PBDB ; null_entity_pointer_message
  0015c	52		 push	 edx
  0015d	e8 00 00 00 00	 call	 ?process_assert@@YGXPBD0H@Z ; process_assert
  00162	c7 45 a0 00 00
	00 00		 mov	 DWORD PTR tv146[ebp], 0
$LN19@debug_crea:
  00169	83 7d a0 0f	 cmp	 DWORD PTR tv146[ebp], 15 ; 0000000fH
  0016d	0f 85 1c 02 00
	00		 jne	 $LN8@debug_crea

; 1911 : 					{
; 1912 : 						sub_type = get_local_entity_int_value (keysite, INT_TYPE_ENTITY_SUB_TYPE);

  00173	83 7d f4 00	 cmp	 DWORD PTR _keysite$[ebp], 0
  00177	74 0a		 je	 SHORT $LN20@debug_crea
  00179	8b 45 f4	 mov	 eax, DWORD PTR _keysite$[ebp]
  0017c	8b 08		 mov	 ecx, DWORD PTR [eax]
  0017e	89 4d a0	 mov	 DWORD PTR tv154[ebp], ecx
  00181	eb 21		 jmp	 SHORT $LN21@debug_crea
$LN20@debug_crea:
  00183	8b 15 00 00 00
	00		 mov	 edx, DWORD PTR ?__LINE__Var@?0??debug_create_troop_insert_event@@YGXPAUEVENT@@@Z@4JA
  00189	83 c2 1c	 add	 edx, 28			; 0000001cH
  0018c	52		 push	 edx
  0018d	68 00 00 00 00	 push	 OFFSET ??_C@_0DO@EFGBNKOF@c?3?2users?2nhv90?2projects?2eech?2ap@
  00192	a1 00 00 00 00	 mov	 eax, DWORD PTR ?null_entity_pointer_message@@3PBDB ; null_entity_pointer_message
  00197	50		 push	 eax
  00198	e8 00 00 00 00	 call	 ?process_assert@@YGXPBD0H@Z ; process_assert
  0019d	c7 45 a0 00 00
	00 00		 mov	 DWORD PTR tv154[ebp], 0
$LN21@debug_crea:
  001a4	b9 01 00 00 00	 mov	 ecx, 1
  001a9	85 c9		 test	 ecx, ecx
  001ab	74 09		 je	 SHORT $LN22@debug_crea
  001ad	c7 45 9c 34 00
	00 00		 mov	 DWORD PTR tv162[ebp], 52 ; 00000034H
  001b4	eb 21		 jmp	 SHORT $LN23@debug_crea
$LN22@debug_crea:
  001b6	8b 15 00 00 00
	00		 mov	 edx, DWORD PTR ?__LINE__Var@?0??debug_create_troop_insert_event@@YGXPAUEVENT@@@Z@4JA
  001bc	83 c2 1c	 add	 edx, 28			; 0000001cH
  001bf	52		 push	 edx
  001c0	68 00 00 00 00	 push	 OFFSET ??_C@_0DO@EFGBNKOF@c?3?2users?2nhv90?2projects?2eech?2ap@
  001c5	a1 00 00 00 00	 mov	 eax, DWORD PTR ?overload_invalid_int_type_message@@3PBDB ; overload_invalid_int_type_message
  001ca	50		 push	 eax
  001cb	e8 00 00 00 00	 call	 ?process_assert@@YGXPBD0H@Z ; process_assert
  001d0	c7 45 9c 00 00
	00 00		 mov	 DWORD PTR tv162[ebp], 0
$LN23@debug_crea:
  001d7	6a 34		 push	 52			; 00000034H
  001d9	8b 4d f4	 mov	 ecx, DWORD PTR _keysite$[ebp]
  001dc	51		 push	 ecx
  001dd	69 55 a0 5c 04
	00 00		 imul	 edx, DWORD PTR tv154[ebp], 1116
  001e4	8b 45 9c	 mov	 eax, DWORD PTR tv162[ebp]
  001e7	8b 8c 82 00 00
	00 00		 mov	 ecx, DWORD PTR ?fn_get_local_entity_int_value@@3PAY0BBH@P6GHPAUENTITY@@W4INT_TYPES@@@ZA[edx+eax*4]
  001ee	ff d1		 call	 ecx
  001f0	89 45 ec	 mov	 DWORD PTR _sub_type$[ebp], eax

; 1913 : 
; 1914 : 						if (keysite_database [sub_type].troop_insertion_target)

  001f3	6b 45 ec 44	 imul	 eax, DWORD PTR _sub_type$[ebp], 68
  001f7	8b 88 40 00 00
	00		 mov	 ecx, DWORD PTR ?keysite_database@@3PAUKEYSITE_DATA@@A[eax+64]
  001fd	c1 e9 0c	 shr	 ecx, 12			; 0000000cH
  00200	83 e1 01	 and	 ecx, 1
  00203	0f 84 86 01 00
	00		 je	 $LN8@debug_crea

; 1915 : 						{
; 1916 : 							side = get_local_entity_int_value (keysite, INT_TYPE_SIDE);

  00209	83 7d f4 00	 cmp	 DWORD PTR _keysite$[ebp], 0
  0020d	74 0a		 je	 SHORT $LN24@debug_crea
  0020f	8b 45 f4	 mov	 eax, DWORD PTR _keysite$[ebp]
  00212	8b 08		 mov	 ecx, DWORD PTR [eax]
  00214	89 4d a0	 mov	 DWORD PTR tv180[ebp], ecx
  00217	eb 21		 jmp	 SHORT $LN25@debug_crea
$LN24@debug_crea:
  00219	8b 15 00 00 00
	00		 mov	 edx, DWORD PTR ?__LINE__Var@?0??debug_create_troop_insert_event@@YGXPAUEVENT@@@Z@4JA
  0021f	83 c2 20	 add	 edx, 32			; 00000020H
  00222	52		 push	 edx
  00223	68 00 00 00 00	 push	 OFFSET ??_C@_0DO@EFGBNKOF@c?3?2users?2nhv90?2projects?2eech?2ap@
  00228	a1 00 00 00 00	 mov	 eax, DWORD PTR ?null_entity_pointer_message@@3PBDB ; null_entity_pointer_message
  0022d	50		 push	 eax
  0022e	e8 00 00 00 00	 call	 ?process_assert@@YGXPBD0H@Z ; process_assert
  00233	c7 45 a0 00 00
	00 00		 mov	 DWORD PTR tv180[ebp], 0
$LN25@debug_crea:
  0023a	b9 01 00 00 00	 mov	 ecx, 1
  0023f	85 c9		 test	 ecx, ecx
  00241	74 09		 je	 SHORT $LN26@debug_crea
  00243	c7 45 9c bb 00
	00 00		 mov	 DWORD PTR tv188[ebp], 187 ; 000000bbH
  0024a	eb 21		 jmp	 SHORT $LN27@debug_crea
$LN26@debug_crea:
  0024c	8b 15 00 00 00
	00		 mov	 edx, DWORD PTR ?__LINE__Var@?0??debug_create_troop_insert_event@@YGXPAUEVENT@@@Z@4JA
  00252	83 c2 20	 add	 edx, 32			; 00000020H
  00255	52		 push	 edx
  00256	68 00 00 00 00	 push	 OFFSET ??_C@_0DO@EFGBNKOF@c?3?2users?2nhv90?2projects?2eech?2ap@
  0025b	a1 00 00 00 00	 mov	 eax, DWORD PTR ?overload_invalid_int_type_message@@3PBDB ; overload_invalid_int_type_message
  00260	50		 push	 eax
  00261	e8 00 00 00 00	 call	 ?process_assert@@YGXPBD0H@Z ; process_assert
  00266	c7 45 9c 00 00
	00 00		 mov	 DWORD PTR tv188[ebp], 0
$LN27@debug_crea:
  0026d	68 bb 00 00 00	 push	 187			; 000000bbH
  00272	8b 4d f4	 mov	 ecx, DWORD PTR _keysite$[ebp]
  00275	51		 push	 ecx
  00276	69 55 a0 5c 04
	00 00		 imul	 edx, DWORD PTR tv180[ebp], 1116
  0027d	8b 45 9c	 mov	 eax, DWORD PTR tv188[ebp]
  00280	8b 8c 82 00 00
	00 00		 mov	 ecx, DWORD PTR ?fn_get_local_entity_int_value@@3PAY0BBH@P6GHPAUENTITY@@W4INT_TYPES@@@ZA[edx+eax*4]
  00287	ff d1		 call	 ecx
  00289	89 45 e8	 mov	 DWORD PTR _side$[ebp], eax

; 1917 : 
; 1918 : 							new_side = get_enemy_side (side);

  0028c	83 7d e8 01	 cmp	 DWORD PTR _side$[ebp], 1
  00290	75 09		 jne	 SHORT $LN28@debug_crea
  00292	c7 45 a0 02 00
	00 00		 mov	 DWORD PTR tv195[ebp], 2
  00299	eb 07		 jmp	 SHORT $LN29@debug_crea
$LN28@debug_crea:
  0029b	c7 45 a0 01 00
	00 00		 mov	 DWORD PTR tv195[ebp], 1
$LN29@debug_crea:
  002a2	8b 45 a0	 mov	 eax, DWORD PTR tv195[ebp]
  002a5	89 45 e4	 mov	 DWORD PTR _new_side$[ebp], eax

; 1919 : 
; 1920 : 							if (!entity_is_object_of_task (keysite, ENTITY_SUB_TYPE_TASK_TROOP_INSERTION, (entity_sides) new_side))

  002a8	8b 45 e4	 mov	 eax, DWORD PTR _new_side$[ebp]
  002ab	50		 push	 eax
  002ac	6a 1a		 push	 26			; 0000001aH
  002ae	8b 4d f4	 mov	 ecx, DWORD PTR _keysite$[ebp]
  002b1	51		 push	 ecx
  002b2	e8 00 00 00 00	 call	 ?entity_is_object_of_task@@YGHPAUENTITY@@HW4ENTITY_SIDES@@@Z ; entity_is_object_of_task
  002b7	85 c0		 test	 eax, eax
  002b9	0f 85 d0 00 00
	00		 jne	 $LN8@debug_crea

; 1921 : 							{
; 1922 : 								new_task = create_troop_insertion_task ((entity_sides) new_side, keysite, NULL, TRUE, 10, NULL, NULL);

  002bf	6a 00		 push	 0
  002c1	6a 00		 push	 0
  002c3	51		 push	 ecx
  002c4	f3 0f 10 05 00
	00 00 00	 movss	 xmm0, DWORD PTR __real@41200000
  002cc	f3 0f 11 04 24	 movss	 DWORD PTR [esp], xmm0
  002d1	6a 01		 push	 1
  002d3	6a 00		 push	 0
  002d5	8b 45 f4	 mov	 eax, DWORD PTR _keysite$[ebp]
  002d8	50		 push	 eax
  002d9	8b 4d e4	 mov	 ecx, DWORD PTR _new_side$[ebp]
  002dc	51		 push	 ecx
  002dd	e8 00 00 00 00	 call	 ?create_troop_insertion_task@@YGPAUENTITY@@W4ENTITY_SIDES@@PAU1@1HM11@Z ; create_troop_insertion_task
  002e2	89 45 f0	 mov	 DWORD PTR _new_task$[ebp], eax

; 1923 : 
; 1924 : 								debug_log ("EV_DEBUG: Created TROOP INSERTION (%d) to %s",

  002e5	83 7d f4 00	 cmp	 DWORD PTR _keysite$[ebp], 0
  002e9	74 0a		 je	 SHORT $LN30@debug_crea
  002eb	8b 45 f4	 mov	 eax, DWORD PTR _keysite$[ebp]
  002ee	8b 08		 mov	 ecx, DWORD PTR [eax]
  002f0	89 4d a0	 mov	 DWORD PTR tv215[ebp], ecx
  002f3	eb 21		 jmp	 SHORT $LN31@debug_crea
$LN30@debug_crea:
  002f5	8b 15 00 00 00
	00		 mov	 edx, DWORD PTR ?__LINE__Var@?0??debug_create_troop_insert_event@@YGXPAUEVENT@@@Z@4JA
  002fb	83 c2 2a	 add	 edx, 42			; 0000002aH
  002fe	52		 push	 edx
  002ff	68 00 00 00 00	 push	 OFFSET ??_C@_0DO@EFGBNKOF@c?3?2users?2nhv90?2projects?2eech?2ap@
  00304	a1 00 00 00 00	 mov	 eax, DWORD PTR ?null_entity_pointer_message@@3PBDB ; null_entity_pointer_message
  00309	50		 push	 eax
  0030a	e8 00 00 00 00	 call	 ?process_assert@@YGXPBD0H@Z ; process_assert
  0030f	c7 45 a0 00 00
	00 00		 mov	 DWORD PTR tv215[ebp], 0
$LN31@debug_crea:
  00316	b9 01 00 00 00	 mov	 ecx, 1
  0031b	85 c9		 test	 ecx, ecx
  0031d	74 09		 je	 SHORT $LN32@debug_crea
  0031f	c7 45 9c 07 00
	00 00		 mov	 DWORD PTR tv223[ebp], 7
  00326	eb 21		 jmp	 SHORT $LN33@debug_crea
$LN32@debug_crea:
  00328	8b 15 00 00 00
	00		 mov	 edx, DWORD PTR ?__LINE__Var@?0??debug_create_troop_insert_event@@YGXPAUEVENT@@@Z@4JA
  0032e	83 c2 2a	 add	 edx, 42			; 0000002aH
  00331	52		 push	 edx
  00332	68 00 00 00 00	 push	 OFFSET ??_C@_0DO@EFGBNKOF@c?3?2users?2nhv90?2projects?2eech?2ap@
  00337	a1 00 00 00 00	 mov	 eax, DWORD PTR ?overload_invalid_string_type_message@@3PBDB ; overload_invalid_string_type_message
  0033c	50		 push	 eax
  0033d	e8 00 00 00 00	 call	 ?process_assert@@YGXPBD0H@Z ; process_assert
  00342	c7 45 9c 00 00
	00 00		 mov	 DWORD PTR tv223[ebp], 0
$LN33@debug_crea:
  00349	83 7d f0 00	 cmp	 DWORD PTR _new_task$[ebp], 0
  0034d	74 11		 je	 SHORT $LN34@debug_crea
  0034f	8b 4d f0	 mov	 ecx, DWORD PTR _new_task$[ebp]
  00352	2b 0d 00 00 00
	00		 sub	 ecx, DWORD PTR ?entities@@3PAUENTITY@@A ; entities
  00358	c1 f9 04	 sar	 ecx, 4
  0035b	89 4d 98	 mov	 DWORD PTR tv233[ebp], ecx
  0035e	eb 07		 jmp	 SHORT $LN35@debug_crea
$LN34@debug_crea:
  00360	c7 45 98 ff ff
	ff ff		 mov	 DWORD PTR tv233[ebp], -1
$LN35@debug_crea:
  00367	6a 07		 push	 7
  00369	8b 55 f4	 mov	 edx, DWORD PTR _keysite$[ebp]
  0036c	52		 push	 edx
  0036d	6b 45 a0 34	 imul	 eax, DWORD PTR tv215[ebp], 52
  00371	8b 4d 9c	 mov	 ecx, DWORD PTR tv223[ebp]
  00374	8b 94 88 00 00
	00 00		 mov	 edx, DWORD PTR ?fn_get_local_entity_string@@3PAY0N@P6GPBDPAUENTITY@@W4STRING_TYPES@@@ZA[eax+ecx*4]
  0037b	ff d2		 call	 edx
  0037d	50		 push	 eax
  0037e	8b 45 98	 mov	 eax, DWORD PTR tv233[ebp]
  00381	50		 push	 eax
  00382	68 00 00 00 00	 push	 OFFSET ??_C@_0CN@KPGHLHNA@EV_DEBUG?3?5Created?5TROOP?5INSERTI@
  00387	e8 00 00 00 00	 call	 ?debug_log@@YAXPBDZZ	; debug_log
  0038c	83 c4 0c	 add	 esp, 12			; 0000000cH
$LN8@debug_crea:

; 1925 : 											get_local_entity_safe_index (new_task),
; 1926 : 											get_local_entity_string (keysite, STRING_TYPE_KEYSITE_NAME));
; 1927 : 							}
; 1928 : 						}
; 1929 : 					}
; 1930 : 				}
; 1931 : 			}
; 1932 : 		}
; 1933 : 	}
; 1934 : }

  0038f	5f		 pop	 edi
  00390	5e		 pop	 esi
  00391	5b		 pop	 ebx
  00392	8b e5		 mov	 esp, ebp
  00394	5d		 pop	 ebp
  00395	c2 04 00	 ret	 4
?debug_create_troop_insert_event@@YGXPAUEVENT@@@Z ENDP	; debug_create_troop_insert_event
_TEXT	ENDS
; Function compile flags: /Odtp /ZI
; File c:\users\nhv90\projects\eech\aphavoc\source\events\ev_debug.c
;	COMDAT ?debug_capture_keysite_event@@YGXPAUEVENT@@@Z
_TEXT	SEGMENT
tv162 = -92						; size = 4
tv134 = -92						; size = 4
tv81 = -92						; size = 4
tv169 = -88						; size = 4
tv154 = -88						; size = 4
tv146 = -88						; size = 4
tv94 = -88						; size = 4
tv73 = -88						; size = 4
_new_side$ = -20					; size = 4
_side$ = -16						; size = 4
_keysite$ = -12						; size = 4
_group$ = -8						; size = 4
_en$ = -4						; size = 4
_ev$ = 8						; size = 4
?debug_capture_keysite_event@@YGXPAUEVENT@@@Z PROC	; debug_capture_keysite_event, COMDAT

; 1841 : {

  00000	55		 push	 ebp
  00001	8b ec		 mov	 ebp, esp
  00003	83 ec 5c	 sub	 esp, 92			; 0000005cH
  00006	53		 push	 ebx
  00007	56		 push	 esi
  00008	57		 push	 edi

; 1842 : 	entity
; 1843 : 		*en,
; 1844 : 		*group,
; 1845 : 		*keysite;
; 1846 : 
; 1847 : 	int
; 1848 : 		side,
; 1849 : 		new_side;
; 1850 : 
; 1851 : 	if (get_comms_model () == COMMS_MODEL_SERVER)

  00009	83 3d 00 00 00
	00 00		 cmp	 DWORD PTR ?system_comms_model@@3W4COMMS_MODEL_TYPES@@A, 0 ; system_comms_model
  00010	0f 85 09 02 00
	00		 jne	 $LN1@debug_capt

; 1852 : 	{
; 1853 : 		en = get_external_view_entity ();

  00016	e8 00 00 00 00	 call	 ?get_external_view_entity@@YGPAUENTITY@@XZ ; get_external_view_entity
  0001b	89 45 fc	 mov	 DWORD PTR _en$[ebp], eax

; 1854 : 
; 1855 : 		if (en)

  0001e	83 7d fc 00	 cmp	 DWORD PTR _en$[ebp], 0
  00022	0f 84 f7 01 00
	00		 je	 $LN1@debug_capt

; 1856 : 		{
; 1857 : 			group = get_local_entity_parent (en, LIST_TYPE_MEMBER);

  00028	83 7d fc 00	 cmp	 DWORD PTR _en$[ebp], 0
  0002c	74 0a		 je	 SHORT $LN8@debug_capt
  0002e	8b 45 fc	 mov	 eax, DWORD PTR _en$[ebp]
  00031	8b 08		 mov	 ecx, DWORD PTR [eax]
  00033	89 4d a8	 mov	 DWORD PTR tv73[ebp], ecx
  00036	eb 21		 jmp	 SHORT $LN9@debug_capt
$LN8@debug_capt:
  00038	8b 15 00 00 00
	00		 mov	 edx, DWORD PTR ?__LINE__Var@?0??debug_capture_keysite_event@@YGXPAUEVENT@@@Z@4JA
  0003e	83 c2 10	 add	 edx, 16			; 00000010H
  00041	52		 push	 edx
  00042	68 00 00 00 00	 push	 OFFSET ??_C@_0DO@EFGBNKOF@c?3?2users?2nhv90?2projects?2eech?2ap@
  00047	a1 00 00 00 00	 mov	 eax, DWORD PTR ?null_entity_pointer_message@@3PBDB ; null_entity_pointer_message
  0004c	50		 push	 eax
  0004d	e8 00 00 00 00	 call	 ?process_assert@@YGXPBD0H@Z ; process_assert
  00052	c7 45 a8 00 00
	00 00		 mov	 DWORD PTR tv73[ebp], 0
$LN9@debug_capt:
  00059	b9 01 00 00 00	 mov	 ecx, 1
  0005e	85 c9		 test	 ecx, ecx
  00060	74 09		 je	 SHORT $LN10@debug_capt
  00062	c7 45 a4 19 00
	00 00		 mov	 DWORD PTR tv81[ebp], 25	; 00000019H
  00069	eb 21		 jmp	 SHORT $LN11@debug_capt
$LN10@debug_capt:
  0006b	8b 15 00 00 00
	00		 mov	 edx, DWORD PTR ?__LINE__Var@?0??debug_capture_keysite_event@@YGXPAUEVENT@@@Z@4JA
  00071	83 c2 10	 add	 edx, 16			; 00000010H
  00074	52		 push	 edx
  00075	68 00 00 00 00	 push	 OFFSET ??_C@_0DO@EFGBNKOF@c?3?2users?2nhv90?2projects?2eech?2ap@
  0007a	a1 00 00 00 00	 mov	 eax, DWORD PTR ?overload_invalid_list_type_message@@3PBDB ; overload_invalid_list_type_message
  0007f	50		 push	 eax
  00080	e8 00 00 00 00	 call	 ?process_assert@@YGXPBD0H@Z ; process_assert
  00085	c7 45 a4 00 00
	00 00		 mov	 DWORD PTR tv81[ebp], 0
$LN11@debug_capt:
  0008c	6a 19		 push	 25			; 00000019H
  0008e	8b 4d fc	 mov	 ecx, DWORD PTR _en$[ebp]
  00091	51		 push	 ecx
  00092	69 55 a8 b4 00
	00 00		 imul	 edx, DWORD PTR tv73[ebp], 180
  00099	8b 45 a4	 mov	 eax, DWORD PTR tv81[ebp]
  0009c	8b 8c 82 00 00
	00 00		 mov	 ecx, DWORD PTR ?fn_get_local_entity_parent@@3PAY0CN@P6GPAUENTITY@@PAU1@W4LIST_TYPES@@@ZA[edx+eax*4]
  000a3	ff d1		 call	 ecx
  000a5	89 45 f8	 mov	 DWORD PTR _group$[ebp], eax

; 1858 : 
; 1859 : 			if (group)

  000a8	83 7d f8 00	 cmp	 DWORD PTR _group$[ebp], 0
  000ac	0f 84 6d 01 00
	00		 je	 $LN1@debug_capt

; 1860 : 			{
; 1861 : 				keysite = get_local_entity_parent (group, LIST_TYPE_KEYSITE_GROUP);

  000b2	83 7d f8 00	 cmp	 DWORD PTR _group$[ebp], 0
  000b6	74 0a		 je	 SHORT $LN12@debug_capt
  000b8	8b 45 f8	 mov	 eax, DWORD PTR _group$[ebp]
  000bb	8b 08		 mov	 ecx, DWORD PTR [eax]
  000bd	89 4d a8	 mov	 DWORD PTR tv94[ebp], ecx
  000c0	eb 21		 jmp	 SHORT $LN13@debug_capt
$LN12@debug_capt:
  000c2	8b 15 00 00 00
	00		 mov	 edx, DWORD PTR ?__LINE__Var@?0??debug_capture_keysite_event@@YGXPAUEVENT@@@Z@4JA
  000c8	83 c2 14	 add	 edx, 20			; 00000014H
  000cb	52		 push	 edx
  000cc	68 00 00 00 00	 push	 OFFSET ??_C@_0DO@EFGBNKOF@c?3?2users?2nhv90?2projects?2eech?2ap@
  000d1	a1 00 00 00 00	 mov	 eax, DWORD PTR ?null_entity_pointer_message@@3PBDB ; null_entity_pointer_message
  000d6	50		 push	 eax
  000d7	e8 00 00 00 00	 call	 ?process_assert@@YGXPBD0H@Z ; process_assert
  000dc	c7 45 a8 00 00
	00 00		 mov	 DWORD PTR tv94[ebp], 0
$LN13@debug_capt:
  000e3	b9 01 00 00 00	 mov	 ecx, 1
  000e8	85 c9		 test	 ecx, ecx
  000ea	74 09		 je	 SHORT $LN14@debug_capt
  000ec	c7 45 a4 16 00
	00 00		 mov	 DWORD PTR tv134[ebp], 22 ; 00000016H
  000f3	eb 21		 jmp	 SHORT $LN15@debug_capt
$LN14@debug_capt:
  000f5	8b 15 00 00 00
	00		 mov	 edx, DWORD PTR ?__LINE__Var@?0??debug_capture_keysite_event@@YGXPAUEVENT@@@Z@4JA
  000fb	83 c2 14	 add	 edx, 20			; 00000014H
  000fe	52		 push	 edx
  000ff	68 00 00 00 00	 push	 OFFSET ??_C@_0DO@EFGBNKOF@c?3?2users?2nhv90?2projects?2eech?2ap@
  00104	a1 00 00 00 00	 mov	 eax, DWORD PTR ?overload_invalid_list_type_message@@3PBDB ; overload_invalid_list_type_message
  00109	50		 push	 eax
  0010a	e8 00 00 00 00	 call	 ?process_assert@@YGXPBD0H@Z ; process_assert
  0010f	c7 45 a4 00 00
	00 00		 mov	 DWORD PTR tv134[ebp], 0
$LN15@debug_capt:
  00116	6a 16		 push	 22			; 00000016H
  00118	8b 4d f8	 mov	 ecx, DWORD PTR _group$[ebp]
  0011b	51		 push	 ecx
  0011c	69 55 a8 b4 00
	00 00		 imul	 edx, DWORD PTR tv94[ebp], 180
  00123	8b 45 a4	 mov	 eax, DWORD PTR tv134[ebp]
  00126	8b 8c 82 00 00
	00 00		 mov	 ecx, DWORD PTR ?fn_get_local_entity_parent@@3PAY0CN@P6GPAUENTITY@@PAU1@W4LIST_TYPES@@@ZA[edx+eax*4]
  0012d	ff d1		 call	 ecx
  0012f	89 45 f4	 mov	 DWORD PTR _keysite$[ebp], eax

; 1862 : 
; 1863 : 				if (keysite)

  00132	83 7d f4 00	 cmp	 DWORD PTR _keysite$[ebp], 0
  00136	0f 84 e3 00 00
	00		 je	 $LN1@debug_capt

; 1864 : 				{
; 1865 : 					if (get_local_entity_type (keysite) == ENTITY_TYPE_KEYSITE)

  0013c	83 7d f4 00	 cmp	 DWORD PTR _keysite$[ebp], 0
  00140	74 0a		 je	 SHORT $LN16@debug_capt
  00142	8b 45 f4	 mov	 eax, DWORD PTR _keysite$[ebp]
  00145	8b 08		 mov	 ecx, DWORD PTR [eax]
  00147	89 4d a8	 mov	 DWORD PTR tv146[ebp], ecx
  0014a	eb 1d		 jmp	 SHORT $LN17@debug_capt
$LN16@debug_capt:
  0014c	68 49 07 00 00	 push	 1865			; 00000749H
  00151	68 00 00 00 00	 push	 OFFSET ??_C@_0DO@EFGBNKOF@c?3?2users?2nhv90?2projects?2eech?2ap@
  00156	8b 15 00 00 00
	00		 mov	 edx, DWORD PTR ?null_entity_pointer_message@@3PBDB ; null_entity_pointer_message
  0015c	52		 push	 edx
  0015d	e8 00 00 00 00	 call	 ?process_assert@@YGXPBD0H@Z ; process_assert
  00162	c7 45 a8 00 00
	00 00		 mov	 DWORD PTR tv146[ebp], 0
$LN17@debug_capt:
  00169	83 7d a8 0f	 cmp	 DWORD PTR tv146[ebp], 15 ; 0000000fH
  0016d	0f 85 ac 00 00
	00		 jne	 $LN1@debug_capt

; 1866 : 					{
; 1867 : 						side = get_local_entity_int_value (keysite, INT_TYPE_SIDE);

  00173	83 7d f4 00	 cmp	 DWORD PTR _keysite$[ebp], 0
  00177	74 0a		 je	 SHORT $LN18@debug_capt
  00179	8b 45 f4	 mov	 eax, DWORD PTR _keysite$[ebp]
  0017c	8b 08		 mov	 ecx, DWORD PTR [eax]
  0017e	89 4d a8	 mov	 DWORD PTR tv154[ebp], ecx
  00181	eb 21		 jmp	 SHORT $LN19@debug_capt
$LN18@debug_capt:
  00183	8b 15 00 00 00
	00		 mov	 edx, DWORD PTR ?__LINE__Var@?0??debug_capture_keysite_event@@YGXPAUEVENT@@@Z@4JA
  00189	83 c2 1a	 add	 edx, 26			; 0000001aH
  0018c	52		 push	 edx
  0018d	68 00 00 00 00	 push	 OFFSET ??_C@_0DO@EFGBNKOF@c?3?2users?2nhv90?2projects?2eech?2ap@
  00192	a1 00 00 00 00	 mov	 eax, DWORD PTR ?null_entity_pointer_message@@3PBDB ; null_entity_pointer_message
  00197	50		 push	 eax
  00198	e8 00 00 00 00	 call	 ?process_assert@@YGXPBD0H@Z ; process_assert
  0019d	c7 45 a8 00 00
	00 00		 mov	 DWORD PTR tv154[ebp], 0
$LN19@debug_capt:
  001a4	b9 01 00 00 00	 mov	 ecx, 1
  001a9	85 c9		 test	 ecx, ecx
  001ab	74 09		 je	 SHORT $LN20@debug_capt
  001ad	c7 45 a4 bb 00
	00 00		 mov	 DWORD PTR tv162[ebp], 187 ; 000000bbH
  001b4	eb 21		 jmp	 SHORT $LN21@debug_capt
$LN20@debug_capt:
  001b6	8b 15 00 00 00
	00		 mov	 edx, DWORD PTR ?__LINE__Var@?0??debug_capture_keysite_event@@YGXPAUEVENT@@@Z@4JA
  001bc	83 c2 1a	 add	 edx, 26			; 0000001aH
  001bf	52		 push	 edx
  001c0	68 00 00 00 00	 push	 OFFSET ??_C@_0DO@EFGBNKOF@c?3?2users?2nhv90?2projects?2eech?2ap@
  001c5	a1 00 00 00 00	 mov	 eax, DWORD PTR ?overload_invalid_int_type_message@@3PBDB ; overload_invalid_int_type_message
  001ca	50		 push	 eax
  001cb	e8 00 00 00 00	 call	 ?process_assert@@YGXPBD0H@Z ; process_assert
  001d0	c7 45 a4 00 00
	00 00		 mov	 DWORD PTR tv162[ebp], 0
$LN21@debug_capt:
  001d7	68 bb 00 00 00	 push	 187			; 000000bbH
  001dc	8b 4d f4	 mov	 ecx, DWORD PTR _keysite$[ebp]
  001df	51		 push	 ecx
  001e0	69 55 a8 5c 04
	00 00		 imul	 edx, DWORD PTR tv154[ebp], 1116
  001e7	8b 45 a4	 mov	 eax, DWORD PTR tv162[ebp]
  001ea	8b 8c 82 00 00
	00 00		 mov	 ecx, DWORD PTR ?fn_get_local_entity_int_value@@3PAY0BBH@P6GHPAUENTITY@@W4INT_TYPES@@@ZA[edx+eax*4]
  001f1	ff d1		 call	 ecx
  001f3	89 45 f0	 mov	 DWORD PTR _side$[ebp], eax

; 1868 : 
; 1869 : 						new_side = get_enemy_side (side);

  001f6	83 7d f0 01	 cmp	 DWORD PTR _side$[ebp], 1
  001fa	75 09		 jne	 SHORT $LN22@debug_capt
  001fc	c7 45 a8 02 00
	00 00		 mov	 DWORD PTR tv169[ebp], 2
  00203	eb 07		 jmp	 SHORT $LN23@debug_capt
$LN22@debug_capt:
  00205	c7 45 a8 01 00
	00 00		 mov	 DWORD PTR tv169[ebp], 1
$LN23@debug_capt:
  0020c	8b 45 a8	 mov	 eax, DWORD PTR tv169[ebp]
  0020f	89 45 ec	 mov	 DWORD PTR _new_side$[ebp], eax

; 1870 : 
; 1871 : 						capture_keysite (keysite, (entity_sides) new_side);

  00212	8b 45 ec	 mov	 eax, DWORD PTR _new_side$[ebp]
  00215	50		 push	 eax
  00216	8b 4d f4	 mov	 ecx, DWORD PTR _keysite$[ebp]
  00219	51		 push	 ecx
  0021a	e8 00 00 00 00	 call	 ?capture_keysite@@YGXPAUENTITY@@W4ENTITY_SIDES@@@Z ; capture_keysite
$LN1@debug_capt:

; 1872 : 					}
; 1873 : 				}
; 1874 : 			}
; 1875 : 		}
; 1876 : 	}
; 1877 : }

  0021f	5f		 pop	 edi
  00220	5e		 pop	 esi
  00221	5b		 pop	 ebx
  00222	8b e5		 mov	 esp, ebp
  00224	5d		 pop	 ebp
  00225	c2 04 00	 ret	 4
?debug_capture_keysite_event@@YGXPAUEVENT@@@Z ENDP	; debug_capture_keysite_event
_TEXT	ENDS
; Function compile flags: /Odtp /ZI
; File c:\users\nhv90\projects\eech\aphavoc\source\events\ev_debug.c
;	COMDAT ?debug_entity_primary_task_abort@@YGXPAUEVENT@@@Z
_TEXT	SEGMENT
tv84 = -80						; size = 4
tv76 = -76						; size = 4
_task$ = -8						; size = 4
_en$ = -4						; size = 4
_ev$ = 8						; size = 4
?debug_entity_primary_task_abort@@YGXPAUEVENT@@@Z PROC	; debug_entity_primary_task_abort, COMDAT

; 1813 : {

  00000	55		 push	 ebp
  00001	8b ec		 mov	 ebp, esp
  00003	83 ec 50	 sub	 esp, 80			; 00000050H
  00006	53		 push	 ebx
  00007	56		 push	 esi
  00008	57		 push	 edi

; 1814 : 	entity
; 1815 : 		*en,
; 1816 : 		*task;
; 1817 : 
; 1818 : 	if (get_comms_model () == COMMS_MODEL_SERVER)

  00009	83 3d 00 00 00
	00 00		 cmp	 DWORD PTR ?system_comms_model@@3W4COMMS_MODEL_TYPES@@A, 0 ; system_comms_model
  00010	0f 85 c4 00 00
	00		 jne	 $LN1@debug_enti

; 1819 : 	{
; 1820 : 		en = get_external_view_entity ();

  00016	e8 00 00 00 00	 call	 ?get_external_view_entity@@YGPAUENTITY@@XZ ; get_external_view_entity
  0001b	89 45 fc	 mov	 DWORD PTR _en$[ebp], eax

; 1821 : 
; 1822 : 		if (en)

  0001e	83 7d fc 00	 cmp	 DWORD PTR _en$[ebp], 0
  00022	0f 84 b2 00 00
	00		 je	 $LN1@debug_enti

; 1823 : 		{
; 1824 : 			task = get_local_entity_primary_task (en);

  00028	8b 45 fc	 mov	 eax, DWORD PTR _en$[ebp]
  0002b	50		 push	 eax
  0002c	e8 00 00 00 00	 call	 ?get_local_entity_primary_task@@YGPAUENTITY@@PAU1@@Z ; get_local_entity_primary_task
  00031	89 45 f8	 mov	 DWORD PTR _task$[ebp], eax

; 1825 : 
; 1826 : 			if (task)

  00034	83 7d f8 00	 cmp	 DWORD PTR _task$[ebp], 0
  00038	0f 84 9c 00 00
	00		 je	 $LN1@debug_enti

; 1827 : 			{
; 1828 : 				debug_log ("EV_DEBUG: Aborting Task %s", get_local_entity_string (task, STRING_TYPE_FULL_NAME));

  0003e	83 7d f8 00	 cmp	 DWORD PTR _task$[ebp], 0
  00042	74 0a		 je	 SHORT $LN6@debug_enti
  00044	8b 45 f8	 mov	 eax, DWORD PTR _task$[ebp]
  00047	8b 08		 mov	 ecx, DWORD PTR [eax]
  00049	89 4d b4	 mov	 DWORD PTR tv76[ebp], ecx
  0004c	eb 21		 jmp	 SHORT $LN7@debug_enti
$LN6@debug_enti:
  0004e	8b 15 00 00 00
	00		 mov	 edx, DWORD PTR ?__LINE__Var@?0??debug_entity_primary_task_abort@@YGXPAUEVENT@@@Z@4JA
  00054	83 c2 0f	 add	 edx, 15			; 0000000fH
  00057	52		 push	 edx
  00058	68 00 00 00 00	 push	 OFFSET ??_C@_0DO@EFGBNKOF@c?3?2users?2nhv90?2projects?2eech?2ap@
  0005d	a1 00 00 00 00	 mov	 eax, DWORD PTR ?null_entity_pointer_message@@3PBDB ; null_entity_pointer_message
  00062	50		 push	 eax
  00063	e8 00 00 00 00	 call	 ?process_assert@@YGXPBD0H@Z ; process_assert
  00068	c7 45 b4 00 00
	00 00		 mov	 DWORD PTR tv76[ebp], 0
$LN7@debug_enti:
  0006f	b9 01 00 00 00	 mov	 ecx, 1
  00074	85 c9		 test	 ecx, ecx
  00076	74 09		 je	 SHORT $LN8@debug_enti
  00078	c7 45 b0 03 00
	00 00		 mov	 DWORD PTR tv84[ebp], 3
  0007f	eb 21		 jmp	 SHORT $LN9@debug_enti
$LN8@debug_enti:
  00081	8b 15 00 00 00
	00		 mov	 edx, DWORD PTR ?__LINE__Var@?0??debug_entity_primary_task_abort@@YGXPAUEVENT@@@Z@4JA
  00087	83 c2 0f	 add	 edx, 15			; 0000000fH
  0008a	52		 push	 edx
  0008b	68 00 00 00 00	 push	 OFFSET ??_C@_0DO@EFGBNKOF@c?3?2users?2nhv90?2projects?2eech?2ap@
  00090	a1 00 00 00 00	 mov	 eax, DWORD PTR ?overload_invalid_string_type_message@@3PBDB ; overload_invalid_string_type_message
  00095	50		 push	 eax
  00096	e8 00 00 00 00	 call	 ?process_assert@@YGXPBD0H@Z ; process_assert
  0009b	c7 45 b0 00 00
	00 00		 mov	 DWORD PTR tv84[ebp], 0
$LN9@debug_enti:
  000a2	6a 03		 push	 3
  000a4	8b 4d f8	 mov	 ecx, DWORD PTR _task$[ebp]
  000a7	51		 push	 ecx
  000a8	6b 55 b4 34	 imul	 edx, DWORD PTR tv76[ebp], 52
  000ac	8b 45 b0	 mov	 eax, DWORD PTR tv84[ebp]
  000af	8b 8c 82 00 00
	00 00		 mov	 ecx, DWORD PTR ?fn_get_local_entity_string@@3PAY0N@P6GPBDPAUENTITY@@W4STRING_TYPES@@@ZA[edx+eax*4]
  000b6	ff d1		 call	 ecx
  000b8	50		 push	 eax
  000b9	68 00 00 00 00	 push	 OFFSET ??_C@_0BL@NOMFLNIG@EV_DEBUG?3?5Aborting?5Task?5?$CFs@
  000be	e8 00 00 00 00	 call	 ?debug_log@@YAXPBDZZ	; debug_log
  000c3	83 c4 08	 add	 esp, 8

; 1829 : 
; 1830 : 				notify_local_entity (ENTITY_MESSAGE_TASK_COMPLETED, task, task, TASK_TERMINATED_ABORTED);

  000c6	6a 02		 push	 2
  000c8	8b 45 f8	 mov	 eax, DWORD PTR _task$[ebp]
  000cb	50		 push	 eax
  000cc	8b 4d f8	 mov	 ecx, DWORD PTR _task$[ebp]
  000cf	51		 push	 ecx
  000d0	6a 32		 push	 50			; 00000032H
  000d2	e8 00 00 00 00	 call	 ?notify_local_entity@@YAHW4ENTITY_MESSAGES@@PAUENTITY@@1ZZ ; notify_local_entity
  000d7	83 c4 10	 add	 esp, 16			; 00000010H
$LN1@debug_enti:

; 1831 : 			}
; 1832 : 		}
; 1833 : 	}
; 1834 : }

  000da	5f		 pop	 edi
  000db	5e		 pop	 esi
  000dc	5b		 pop	 ebx
  000dd	8b e5		 mov	 esp, ebp
  000df	5d		 pop	 ebp
  000e0	c2 04 00	 ret	 4
?debug_entity_primary_task_abort@@YGXPAUEVENT@@@Z ENDP	; debug_entity_primary_task_abort
_TEXT	ENDS
; Function compile flags: /Odtp /ZI
; File c:\users\nhv90\projects\eech\aphavoc\source\events\ev_debug.c
;	COMDAT ?debug_entity_task_abort@@YGXPAUEVENT@@@Z
_TEXT	SEGMENT
tv154 = -84						; size = 4
tv133 = -84						; size = 4
tv81 = -84						; size = 4
tv146 = -80						; size = 4
tv93 = -80						; size = 4
tv73 = -80						; size = 4
_guide$ = -12						; size = 4
_task$ = -8						; size = 4
_en$ = -4						; size = 4
_ev$ = 8						; size = 4
?debug_entity_task_abort@@YGXPAUEVENT@@@Z PROC		; debug_entity_task_abort, COMDAT

; 1782 : {

  00000	55		 push	 ebp
  00001	8b ec		 mov	 ebp, esp
  00003	83 ec 54	 sub	 esp, 84			; 00000054H
  00006	53		 push	 ebx
  00007	56		 push	 esi
  00008	57		 push	 edi

; 1783 : 	entity
; 1784 : 		*en,
; 1785 : 		*task,
; 1786 : 		*guide;
; 1787 : 
; 1788 : 	if (get_comms_model () == COMMS_MODEL_SERVER)

  00009	83 3d 00 00 00
	00 00		 cmp	 DWORD PTR ?system_comms_model@@3W4COMMS_MODEL_TYPES@@A, 0 ; system_comms_model
  00010	0f 85 b8 01 00
	00		 jne	 $LN1@debug_enti

; 1789 : 	{
; 1790 : 		en = get_external_view_entity ();

  00016	e8 00 00 00 00	 call	 ?get_external_view_entity@@YGPAUENTITY@@XZ ; get_external_view_entity
  0001b	89 45 fc	 mov	 DWORD PTR _en$[ebp], eax

; 1791 : 
; 1792 : 		if (en)

  0001e	83 7d fc 00	 cmp	 DWORD PTR _en$[ebp], 0
  00022	0f 84 a6 01 00
	00		 je	 $LN1@debug_enti

; 1793 : 		{
; 1794 : 			guide = get_local_entity_parent (en, LIST_TYPE_FOLLOWER);

  00028	83 7d fc 00	 cmp	 DWORD PTR _en$[ebp], 0
  0002c	74 0a		 je	 SHORT $LN6@debug_enti
  0002e	8b 45 fc	 mov	 eax, DWORD PTR _en$[ebp]
  00031	8b 08		 mov	 ecx, DWORD PTR [eax]
  00033	89 4d b0	 mov	 DWORD PTR tv73[ebp], ecx
  00036	eb 21		 jmp	 SHORT $LN7@debug_enti
$LN6@debug_enti:
  00038	8b 15 00 00 00
	00		 mov	 edx, DWORD PTR ?__LINE__Var@?0??debug_entity_task_abort@@YGXPAUEVENT@@@Z@4JA
  0003e	83 c2 0c	 add	 edx, 12			; 0000000cH
  00041	52		 push	 edx
  00042	68 00 00 00 00	 push	 OFFSET ??_C@_0DO@EFGBNKOF@c?3?2users?2nhv90?2projects?2eech?2ap@
  00047	a1 00 00 00 00	 mov	 eax, DWORD PTR ?null_entity_pointer_message@@3PBDB ; null_entity_pointer_message
  0004c	50		 push	 eax
  0004d	e8 00 00 00 00	 call	 ?process_assert@@YGXPBD0H@Z ; process_assert
  00052	c7 45 b0 00 00
	00 00		 mov	 DWORD PTR tv73[ebp], 0
$LN7@debug_enti:
  00059	b9 01 00 00 00	 mov	 ecx, 1
  0005e	85 c9		 test	 ecx, ecx
  00060	74 09		 je	 SHORT $LN8@debug_enti
  00062	c7 45 ac 0d 00
	00 00		 mov	 DWORD PTR tv81[ebp], 13	; 0000000dH
  00069	eb 21		 jmp	 SHORT $LN9@debug_enti
$LN8@debug_enti:
  0006b	8b 15 00 00 00
	00		 mov	 edx, DWORD PTR ?__LINE__Var@?0??debug_entity_task_abort@@YGXPAUEVENT@@@Z@4JA
  00071	83 c2 0c	 add	 edx, 12			; 0000000cH
  00074	52		 push	 edx
  00075	68 00 00 00 00	 push	 OFFSET ??_C@_0DO@EFGBNKOF@c?3?2users?2nhv90?2projects?2eech?2ap@
  0007a	a1 00 00 00 00	 mov	 eax, DWORD PTR ?overload_invalid_list_type_message@@3PBDB ; overload_invalid_list_type_message
  0007f	50		 push	 eax
  00080	e8 00 00 00 00	 call	 ?process_assert@@YGXPBD0H@Z ; process_assert
  00085	c7 45 ac 00 00
	00 00		 mov	 DWORD PTR tv81[ebp], 0
$LN9@debug_enti:
  0008c	6a 0d		 push	 13			; 0000000dH
  0008e	8b 4d fc	 mov	 ecx, DWORD PTR _en$[ebp]
  00091	51		 push	 ecx
  00092	69 55 b0 b4 00
	00 00		 imul	 edx, DWORD PTR tv73[ebp], 180
  00099	8b 45 ac	 mov	 eax, DWORD PTR tv81[ebp]
  0009c	8b 8c 82 00 00
	00 00		 mov	 ecx, DWORD PTR ?fn_get_local_entity_parent@@3PAY0CN@P6GPAUENTITY@@PAU1@W4LIST_TYPES@@@ZA[edx+eax*4]
  000a3	ff d1		 call	 ecx
  000a5	89 45 f4	 mov	 DWORD PTR _guide$[ebp], eax

; 1795 : 
; 1796 : 			task = get_local_entity_parent (guide, LIST_TYPE_GUIDE);

  000a8	83 7d f4 00	 cmp	 DWORD PTR _guide$[ebp], 0
  000ac	74 0a		 je	 SHORT $LN10@debug_enti
  000ae	8b 45 f4	 mov	 eax, DWORD PTR _guide$[ebp]
  000b1	8b 08		 mov	 ecx, DWORD PTR [eax]
  000b3	89 4d b0	 mov	 DWORD PTR tv93[ebp], ecx
  000b6	eb 21		 jmp	 SHORT $LN11@debug_enti
$LN10@debug_enti:
  000b8	8b 15 00 00 00
	00		 mov	 edx, DWORD PTR ?__LINE__Var@?0??debug_entity_task_abort@@YGXPAUEVENT@@@Z@4JA
  000be	83 c2 0e	 add	 edx, 14			; 0000000eH
  000c1	52		 push	 edx
  000c2	68 00 00 00 00	 push	 OFFSET ??_C@_0DO@EFGBNKOF@c?3?2users?2nhv90?2projects?2eech?2ap@
  000c7	a1 00 00 00 00	 mov	 eax, DWORD PTR ?null_entity_pointer_message@@3PBDB ; null_entity_pointer_message
  000cc	50		 push	 eax
  000cd	e8 00 00 00 00	 call	 ?process_assert@@YGXPBD0H@Z ; process_assert
  000d2	c7 45 b0 00 00
	00 00		 mov	 DWORD PTR tv93[ebp], 0
$LN11@debug_enti:
  000d9	b9 01 00 00 00	 mov	 ecx, 1
  000de	85 c9		 test	 ecx, ecx
  000e0	74 09		 je	 SHORT $LN12@debug_enti
  000e2	c7 45 ac 10 00
	00 00		 mov	 DWORD PTR tv133[ebp], 16 ; 00000010H
  000e9	eb 21		 jmp	 SHORT $LN13@debug_enti
$LN12@debug_enti:
  000eb	8b 15 00 00 00
	00		 mov	 edx, DWORD PTR ?__LINE__Var@?0??debug_entity_task_abort@@YGXPAUEVENT@@@Z@4JA
  000f1	83 c2 0e	 add	 edx, 14			; 0000000eH
  000f4	52		 push	 edx
  000f5	68 00 00 00 00	 push	 OFFSET ??_C@_0DO@EFGBNKOF@c?3?2users?2nhv90?2projects?2eech?2ap@
  000fa	a1 00 00 00 00	 mov	 eax, DWORD PTR ?overload_invalid_list_type_message@@3PBDB ; overload_invalid_list_type_message
  000ff	50		 push	 eax
  00100	e8 00 00 00 00	 call	 ?process_assert@@YGXPBD0H@Z ; process_assert
  00105	c7 45 ac 00 00
	00 00		 mov	 DWORD PTR tv133[ebp], 0
$LN13@debug_enti:
  0010c	6a 10		 push	 16			; 00000010H
  0010e	8b 4d f4	 mov	 ecx, DWORD PTR _guide$[ebp]
  00111	51		 push	 ecx
  00112	69 55 b0 b4 00
	00 00		 imul	 edx, DWORD PTR tv93[ebp], 180
  00119	8b 45 ac	 mov	 eax, DWORD PTR tv133[ebp]
  0011c	8b 8c 82 00 00
	00 00		 mov	 ecx, DWORD PTR ?fn_get_local_entity_parent@@3PAY0CN@P6GPAUENTITY@@PAU1@W4LIST_TYPES@@@ZA[edx+eax*4]
  00123	ff d1		 call	 ecx
  00125	89 45 f8	 mov	 DWORD PTR _task$[ebp], eax

; 1797 : 
; 1798 : 			if (task)

  00128	83 7d f8 00	 cmp	 DWORD PTR _task$[ebp], 0
  0012c	0f 84 9c 00 00
	00		 je	 $LN1@debug_enti

; 1799 : 			{
; 1800 : 				debug_log ("EV_DEBUG: Aborting Task %s", get_local_entity_string (task, STRING_TYPE_FULL_NAME));

  00132	83 7d f8 00	 cmp	 DWORD PTR _task$[ebp], 0
  00136	74 0a		 je	 SHORT $LN14@debug_enti
  00138	8b 45 f8	 mov	 eax, DWORD PTR _task$[ebp]
  0013b	8b 08		 mov	 ecx, DWORD PTR [eax]
  0013d	89 4d b0	 mov	 DWORD PTR tv146[ebp], ecx
  00140	eb 21		 jmp	 SHORT $LN15@debug_enti
$LN14@debug_enti:
  00142	8b 15 00 00 00
	00		 mov	 edx, DWORD PTR ?__LINE__Var@?0??debug_entity_task_abort@@YGXPAUEVENT@@@Z@4JA
  00148	83 c2 12	 add	 edx, 18			; 00000012H
  0014b	52		 push	 edx
  0014c	68 00 00 00 00	 push	 OFFSET ??_C@_0DO@EFGBNKOF@c?3?2users?2nhv90?2projects?2eech?2ap@
  00151	a1 00 00 00 00	 mov	 eax, DWORD PTR ?null_entity_pointer_message@@3PBDB ; null_entity_pointer_message
  00156	50		 push	 eax
  00157	e8 00 00 00 00	 call	 ?process_assert@@YGXPBD0H@Z ; process_assert
  0015c	c7 45 b0 00 00
	00 00		 mov	 DWORD PTR tv146[ebp], 0
$LN15@debug_enti:
  00163	b9 01 00 00 00	 mov	 ecx, 1
  00168	85 c9		 test	 ecx, ecx
  0016a	74 09		 je	 SHORT $LN16@debug_enti
  0016c	c7 45 ac 03 00
	00 00		 mov	 DWORD PTR tv154[ebp], 3
  00173	eb 21		 jmp	 SHORT $LN17@debug_enti
$LN16@debug_enti:
  00175	8b 15 00 00 00
	00		 mov	 edx, DWORD PTR ?__LINE__Var@?0??debug_entity_task_abort@@YGXPAUEVENT@@@Z@4JA
  0017b	83 c2 12	 add	 edx, 18			; 00000012H
  0017e	52		 push	 edx
  0017f	68 00 00 00 00	 push	 OFFSET ??_C@_0DO@EFGBNKOF@c?3?2users?2nhv90?2projects?2eech?2ap@
  00184	a1 00 00 00 00	 mov	 eax, DWORD PTR ?overload_invalid_string_type_message@@3PBDB ; overload_invalid_string_type_message
  00189	50		 push	 eax
  0018a	e8 00 00 00 00	 call	 ?process_assert@@YGXPBD0H@Z ; process_assert
  0018f	c7 45 ac 00 00
	00 00		 mov	 DWORD PTR tv154[ebp], 0
$LN17@debug_enti:
  00196	6a 03		 push	 3
  00198	8b 4d f8	 mov	 ecx, DWORD PTR _task$[ebp]
  0019b	51		 push	 ecx
  0019c	6b 55 b0 34	 imul	 edx, DWORD PTR tv146[ebp], 52
  001a0	8b 45 ac	 mov	 eax, DWORD PTR tv154[ebp]
  001a3	8b 8c 82 00 00
	00 00		 mov	 ecx, DWORD PTR ?fn_get_local_entity_string@@3PAY0N@P6GPBDPAUENTITY@@W4STRING_TYPES@@@ZA[edx+eax*4]
  001aa	ff d1		 call	 ecx
  001ac	50		 push	 eax
  001ad	68 00 00 00 00	 push	 OFFSET ??_C@_0BL@NOMFLNIG@EV_DEBUG?3?5Aborting?5Task?5?$CFs@
  001b2	e8 00 00 00 00	 call	 ?debug_log@@YAXPBDZZ	; debug_log
  001b7	83 c4 08	 add	 esp, 8

; 1801 : 
; 1802 : 				notify_local_entity (ENTITY_MESSAGE_TASK_COMPLETED, task, task, TASK_TERMINATED_ABORTED);

  001ba	6a 02		 push	 2
  001bc	8b 45 f8	 mov	 eax, DWORD PTR _task$[ebp]
  001bf	50		 push	 eax
  001c0	8b 4d f8	 mov	 ecx, DWORD PTR _task$[ebp]
  001c3	51		 push	 ecx
  001c4	6a 32		 push	 50			; 00000032H
  001c6	e8 00 00 00 00	 call	 ?notify_local_entity@@YAHW4ENTITY_MESSAGES@@PAUENTITY@@1ZZ ; notify_local_entity
  001cb	83 c4 10	 add	 esp, 16			; 00000010H
$LN1@debug_enti:

; 1803 : 			}
; 1804 : 		}
; 1805 : 	}
; 1806 : }

  001ce	5f		 pop	 edi
  001cf	5e		 pop	 esi
  001d0	5b		 pop	 ebx
  001d1	8b e5		 mov	 esp, ebp
  001d3	5d		 pop	 ebp
  001d4	c2 04 00	 ret	 4
?debug_entity_task_abort@@YGXPAUEVENT@@@Z ENDP		; debug_entity_task_abort
_TEXT	ENDS
; Function compile flags: /Odtp /ZI
; File c:\users\nhv90\projects\eech\aphavoc\source\events\ev_debug.c
;	COMDAT ?create_air_engage_task_event@@YGXPAUEVENT@@@Z
_TEXT	SEGMENT
_ev$ = 8						; size = 4
?create_air_engage_task_event@@YGXPAUEVENT@@@Z PROC	; create_air_engage_task_event, COMDAT

; 1773 : {

  00000	55		 push	 ebp
  00001	8b ec		 mov	 ebp, esp
  00003	83 ec 40	 sub	 esp, 64			; 00000040H
  00006	53		 push	 ebx
  00007	56		 push	 esi
  00008	57		 push	 edi

; 1774 : 	create_debug_engage_task (TARGET_TYPE_AIR);

  00009	6a 02		 push	 2
  0000b	e8 00 00 00 00	 call	 ?create_debug_engage_task@@YGXH@Z ; create_debug_engage_task

; 1775 : }

  00010	5f		 pop	 edi
  00011	5e		 pop	 esi
  00012	5b		 pop	 ebx
  00013	8b e5		 mov	 esp, ebp
  00015	5d		 pop	 ebp
  00016	c2 04 00	 ret	 4
?create_air_engage_task_event@@YGXPAUEVENT@@@Z ENDP	; create_air_engage_task_event
_TEXT	ENDS
; Function compile flags: /Odtp /ZI
; File c:\users\nhv90\projects\eech\aphavoc\source\events\ev_debug.c
;	COMDAT ?create_ground_engage_task_event@@YGXPAUEVENT@@@Z
_TEXT	SEGMENT
_ev$ = 8						; size = 4
?create_ground_engage_task_event@@YGXPAUEVENT@@@Z PROC	; create_ground_engage_task_event, COMDAT

; 1764 : {

  00000	55		 push	 ebp
  00001	8b ec		 mov	 ebp, esp
  00003	83 ec 40	 sub	 esp, 64			; 00000040H
  00006	53		 push	 ebx
  00007	56		 push	 esi
  00008	57		 push	 edi

; 1765 : 	create_debug_engage_task (TARGET_TYPE_GROUND);

  00009	6a 01		 push	 1
  0000b	e8 00 00 00 00	 call	 ?create_debug_engage_task@@YGXH@Z ; create_debug_engage_task

; 1766 : }

  00010	5f		 pop	 edi
  00011	5e		 pop	 esi
  00012	5b		 pop	 ebx
  00013	8b e5		 mov	 esp, ebp
  00015	5d		 pop	 ebp
  00016	c2 04 00	 ret	 4
?create_ground_engage_task_event@@YGXPAUEVENT@@@Z ENDP	; create_ground_engage_task_event
_TEXT	ENDS
; Function compile flags: /Odtp /ZI
; File c:\users\nhv90\projects\eech\aphavoc\source\events\ev_debug.c
;	COMDAT ?create_debug_engage_task@@YGXH@Z
_TEXT	SEGMENT
tv276 = -92						; size = 4
tv256 = -92						; size = 4
tv235 = -92						; size = 4
tv212 = -92						; size = 4
tv191 = -92						; size = 4
tv170 = -92						; size = 4
tv151 = -92						; size = 4
tv130 = -92						; size = 4
tv79 = -92						; size = 4
tv268 = -88						; size = 4
tv248 = -88						; size = 4
tv228 = -88						; size = 4
tv204 = -88						; size = 4
tv183 = -88						; size = 4
tv163 = -88						; size = 4
tv143 = -88						; size = 4
tv91 = -88						; size = 4
tv72 = -88						; size = 4
_pos$ = -20						; size = 4
_group$ = -16						; size = 4
_guide$ = -12						; size = 4
_task$ = -8						; size = 4
_en$ = -4						; size = 4
_target_type$ = 8					; size = 4
?create_debug_engage_task@@YGXH@Z PROC			; create_debug_engage_task, COMDAT

; 1686 : {

  00000	55		 push	 ebp
  00001	8b ec		 mov	 ebp, esp
  00003	83 ec 5c	 sub	 esp, 92			; 0000005cH
  00006	53		 push	 ebx
  00007	56		 push	 esi
  00008	57		 push	 edi

; 1687 : 	entity
; 1688 : 		*en,
; 1689 : 		*task,
; 1690 : 		*guide,
; 1691 : 		*group;
; 1692 : 
; 1693 : 	vec3d
; 1694 : 		*pos;
; 1695 : 
; 1696 : 	if (get_comms_model () != COMMS_MODEL_SERVER)

  00009	83 3d 00 00 00
	00 00		 cmp	 DWORD PTR ?system_comms_model@@3W4COMMS_MODEL_TYPES@@A, 0 ; system_comms_model
  00010	74 05		 je	 SHORT $LN4@create_deb

; 1697 : 	{
; 1698 : 		return;

  00012	e9 e0 04 00 00	 jmp	 $LN1@create_deb
$LN4@create_deb:

; 1699 : 	}
; 1700 : 
; 1701 : 	//
; 1702 : 	// get external view entity and check it is an aircraft, and that it is not landed
; 1703 : 	//
; 1704 : 
; 1705 : 	en = get_external_view_entity ();

  00017	e8 00 00 00 00	 call	 ?get_external_view_entity@@YGPAUENTITY@@XZ ; get_external_view_entity
  0001c	89 45 fc	 mov	 DWORD PTR _en$[ebp], eax

; 1706 : 
; 1707 : 	if (!en)

  0001f	83 7d fc 00	 cmp	 DWORD PTR _en$[ebp], 0
  00023	75 05		 jne	 SHORT $LN5@create_deb

; 1708 : 	{
; 1709 : 		return;

  00025	e9 cd 04 00 00	 jmp	 $LN1@create_deb
$LN5@create_deb:

; 1710 : 	}
; 1711 : 
; 1712 : 	if (!get_local_entity_int_value (en, INT_TYPE_IDENTIFY_AIRCRAFT))

  0002a	83 7d fc 00	 cmp	 DWORD PTR _en$[ebp], 0
  0002e	74 0a		 je	 SHORT $LN13@create_deb
  00030	8b 45 fc	 mov	 eax, DWORD PTR _en$[ebp]
  00033	8b 08		 mov	 ecx, DWORD PTR [eax]
  00035	89 4d a8	 mov	 DWORD PTR tv72[ebp], ecx
  00038	eb 1d		 jmp	 SHORT $LN14@create_deb
$LN13@create_deb:
  0003a	68 b0 06 00 00	 push	 1712			; 000006b0H
  0003f	68 00 00 00 00	 push	 OFFSET ??_C@_0DO@EFGBNKOF@c?3?2users?2nhv90?2projects?2eech?2ap@
  00044	8b 15 00 00 00
	00		 mov	 edx, DWORD PTR ?null_entity_pointer_message@@3PBDB ; null_entity_pointer_message
  0004a	52		 push	 edx
  0004b	e8 00 00 00 00	 call	 ?process_assert@@YGXPBD0H@Z ; process_assert
  00050	c7 45 a8 00 00
	00 00		 mov	 DWORD PTR tv72[ebp], 0
$LN14@create_deb:
  00057	b8 01 00 00 00	 mov	 eax, 1
  0005c	85 c0		 test	 eax, eax
  0005e	74 09		 je	 SHORT $LN15@create_deb
  00060	c7 45 a4 57 00
	00 00		 mov	 DWORD PTR tv79[ebp], 87	; 00000057H
  00067	eb 1d		 jmp	 SHORT $LN16@create_deb
$LN15@create_deb:
  00069	68 b0 06 00 00	 push	 1712			; 000006b0H
  0006e	68 00 00 00 00	 push	 OFFSET ??_C@_0DO@EFGBNKOF@c?3?2users?2nhv90?2projects?2eech?2ap@
  00073	8b 0d 00 00 00
	00		 mov	 ecx, DWORD PTR ?overload_invalid_int_type_message@@3PBDB ; overload_invalid_int_type_message
  00079	51		 push	 ecx
  0007a	e8 00 00 00 00	 call	 ?process_assert@@YGXPBD0H@Z ; process_assert
  0007f	c7 45 a4 00 00
	00 00		 mov	 DWORD PTR tv79[ebp], 0
$LN16@create_deb:
  00086	6a 57		 push	 87			; 00000057H
  00088	8b 55 fc	 mov	 edx, DWORD PTR _en$[ebp]
  0008b	52		 push	 edx
  0008c	69 45 a8 5c 04
	00 00		 imul	 eax, DWORD PTR tv72[ebp], 1116
  00093	8b 4d a4	 mov	 ecx, DWORD PTR tv79[ebp]
  00096	8b 94 88 00 00
	00 00		 mov	 edx, DWORD PTR ?fn_get_local_entity_int_value@@3PAY0BBH@P6GHPAUENTITY@@W4INT_TYPES@@@ZA[eax+ecx*4]
  0009d	ff d2		 call	 edx
  0009f	85 c0		 test	 eax, eax
  000a1	75 05		 jne	 SHORT $LN6@create_deb

; 1713 : 	{
; 1714 : 		return;

  000a3	e9 4f 04 00 00	 jmp	 $LN1@create_deb
$LN6@create_deb:

; 1715 : 	}
; 1716 : 
; 1717 : 	if (get_local_entity_int_value (en, INT_TYPE_LANDED))

  000a8	83 7d fc 00	 cmp	 DWORD PTR _en$[ebp], 0
  000ac	74 0a		 je	 SHORT $LN17@create_deb
  000ae	8b 45 fc	 mov	 eax, DWORD PTR _en$[ebp]
  000b1	8b 08		 mov	 ecx, DWORD PTR [eax]
  000b3	89 4d a8	 mov	 DWORD PTR tv91[ebp], ecx
  000b6	eb 1d		 jmp	 SHORT $LN18@create_deb
$LN17@create_deb:
  000b8	68 b5 06 00 00	 push	 1717			; 000006b5H
  000bd	68 00 00 00 00	 push	 OFFSET ??_C@_0DO@EFGBNKOF@c?3?2users?2nhv90?2projects?2eech?2ap@
  000c2	8b 15 00 00 00
	00		 mov	 edx, DWORD PTR ?null_entity_pointer_message@@3PBDB ; null_entity_pointer_message
  000c8	52		 push	 edx
  000c9	e8 00 00 00 00	 call	 ?process_assert@@YGXPBD0H@Z ; process_assert
  000ce	c7 45 a8 00 00
	00 00		 mov	 DWORD PTR tv91[ebp], 0
$LN18@create_deb:
  000d5	b8 01 00 00 00	 mov	 eax, 1
  000da	85 c0		 test	 eax, eax
  000dc	74 09		 je	 SHORT $LN19@create_deb
  000de	c7 45 a4 73 00
	00 00		 mov	 DWORD PTR tv130[ebp], 115 ; 00000073H
  000e5	eb 1d		 jmp	 SHORT $LN20@create_deb
$LN19@create_deb:
  000e7	68 b5 06 00 00	 push	 1717			; 000006b5H
  000ec	68 00 00 00 00	 push	 OFFSET ??_C@_0DO@EFGBNKOF@c?3?2users?2nhv90?2projects?2eech?2ap@
  000f1	8b 0d 00 00 00
	00		 mov	 ecx, DWORD PTR ?overload_invalid_int_type_message@@3PBDB ; overload_invalid_int_type_message
  000f7	51		 push	 ecx
  000f8	e8 00 00 00 00	 call	 ?process_assert@@YGXPBD0H@Z ; process_assert
  000fd	c7 45 a4 00 00
	00 00		 mov	 DWORD PTR tv130[ebp], 0
$LN20@create_deb:
  00104	6a 73		 push	 115			; 00000073H
  00106	8b 55 fc	 mov	 edx, DWORD PTR _en$[ebp]
  00109	52		 push	 edx
  0010a	69 45 a8 5c 04
	00 00		 imul	 eax, DWORD PTR tv91[ebp], 1116
  00111	8b 4d a4	 mov	 ecx, DWORD PTR tv130[ebp]
  00114	8b 94 88 00 00
	00 00		 mov	 edx, DWORD PTR ?fn_get_local_entity_int_value@@3PAY0BBH@P6GHPAUENTITY@@W4INT_TYPES@@@ZA[eax+ecx*4]
  0011b	ff d2		 call	 edx
  0011d	85 c0		 test	 eax, eax
  0011f	74 05		 je	 SHORT $LN7@create_deb

; 1718 : 	{
; 1719 : 		return;

  00121	e9 d1 03 00 00	 jmp	 $LN1@create_deb
$LN7@create_deb:

; 1720 : 	}
; 1721 : 
; 1722 : 	group = get_local_entity_parent (en, LIST_TYPE_MEMBER);

  00126	83 7d fc 00	 cmp	 DWORD PTR _en$[ebp], 0
  0012a	74 0a		 je	 SHORT $LN21@create_deb
  0012c	8b 45 fc	 mov	 eax, DWORD PTR _en$[ebp]
  0012f	8b 08		 mov	 ecx, DWORD PTR [eax]
  00131	89 4d a8	 mov	 DWORD PTR tv143[ebp], ecx
  00134	eb 21		 jmp	 SHORT $LN22@create_deb
$LN21@create_deb:
  00136	8b 15 00 00 00
	00		 mov	 edx, DWORD PTR ?__LINE__Var@?0??create_debug_engage_task@@YGXH@Z@4JA
  0013c	83 c2 24	 add	 edx, 36			; 00000024H
  0013f	52		 push	 edx
  00140	68 00 00 00 00	 push	 OFFSET ??_C@_0DO@EFGBNKOF@c?3?2users?2nhv90?2projects?2eech?2ap@
  00145	a1 00 00 00 00	 mov	 eax, DWORD PTR ?null_entity_pointer_message@@3PBDB ; null_entity_pointer_message
  0014a	50		 push	 eax
  0014b	e8 00 00 00 00	 call	 ?process_assert@@YGXPBD0H@Z ; process_assert
  00150	c7 45 a8 00 00
	00 00		 mov	 DWORD PTR tv143[ebp], 0
$LN22@create_deb:
  00157	b9 01 00 00 00	 mov	 ecx, 1
  0015c	85 c9		 test	 ecx, ecx
  0015e	74 09		 je	 SHORT $LN23@create_deb
  00160	c7 45 a4 19 00
	00 00		 mov	 DWORD PTR tv151[ebp], 25 ; 00000019H
  00167	eb 21		 jmp	 SHORT $LN24@create_deb
$LN23@create_deb:
  00169	8b 15 00 00 00
	00		 mov	 edx, DWORD PTR ?__LINE__Var@?0??create_debug_engage_task@@YGXH@Z@4JA
  0016f	83 c2 24	 add	 edx, 36			; 00000024H
  00172	52		 push	 edx
  00173	68 00 00 00 00	 push	 OFFSET ??_C@_0DO@EFGBNKOF@c?3?2users?2nhv90?2projects?2eech?2ap@
  00178	a1 00 00 00 00	 mov	 eax, DWORD PTR ?overload_invalid_list_type_message@@3PBDB ; overload_invalid_list_type_message
  0017d	50		 push	 eax
  0017e	e8 00 00 00 00	 call	 ?process_assert@@YGXPBD0H@Z ; process_assert
  00183	c7 45 a4 00 00
	00 00		 mov	 DWORD PTR tv151[ebp], 0
$LN24@create_deb:
  0018a	6a 19		 push	 25			; 00000019H
  0018c	8b 4d fc	 mov	 ecx, DWORD PTR _en$[ebp]
  0018f	51		 push	 ecx
  00190	69 55 a8 b4 00
	00 00		 imul	 edx, DWORD PTR tv143[ebp], 180
  00197	8b 45 a4	 mov	 eax, DWORD PTR tv151[ebp]
  0019a	8b 8c 82 00 00
	00 00		 mov	 ecx, DWORD PTR ?fn_get_local_entity_parent@@3PAY0CN@P6GPAUENTITY@@PAU1@W4LIST_TYPES@@@ZA[edx+eax*4]
  001a1	ff d1		 call	 ecx
  001a3	89 45 f0	 mov	 DWORD PTR _group$[ebp], eax

; 1723 : 
; 1724 : 	if (!group)

  001a6	83 7d f0 00	 cmp	 DWORD PTR _group$[ebp], 0
  001aa	75 05		 jne	 SHORT $LN8@create_deb

; 1725 : 	{
; 1726 : 		return;

  001ac	e9 46 03 00 00	 jmp	 $LN1@create_deb
$LN8@create_deb:

; 1727 : 	}
; 1728 : 
; 1729 : 	if (!get_local_entity_int_value (group, INT_TYPE_ENGAGE_ENEMY))

  001b1	83 7d f0 00	 cmp	 DWORD PTR _group$[ebp], 0
  001b5	74 0a		 je	 SHORT $LN25@create_deb
  001b7	8b 45 f0	 mov	 eax, DWORD PTR _group$[ebp]
  001ba	8b 08		 mov	 ecx, DWORD PTR [eax]
  001bc	89 4d a8	 mov	 DWORD PTR tv163[ebp], ecx
  001bf	eb 1d		 jmp	 SHORT $LN26@create_deb
$LN25@create_deb:
  001c1	68 c1 06 00 00	 push	 1729			; 000006c1H
  001c6	68 00 00 00 00	 push	 OFFSET ??_C@_0DO@EFGBNKOF@c?3?2users?2nhv90?2projects?2eech?2ap@
  001cb	8b 15 00 00 00
	00		 mov	 edx, DWORD PTR ?null_entity_pointer_message@@3PBDB ; null_entity_pointer_message
  001d1	52		 push	 edx
  001d2	e8 00 00 00 00	 call	 ?process_assert@@YGXPBD0H@Z ; process_assert
  001d7	c7 45 a8 00 00
	00 00		 mov	 DWORD PTR tv163[ebp], 0
$LN26@create_deb:
  001de	b8 01 00 00 00	 mov	 eax, 1
  001e3	85 c0		 test	 eax, eax
  001e5	74 09		 je	 SHORT $LN27@create_deb
  001e7	c7 45 a4 33 00
	00 00		 mov	 DWORD PTR tv170[ebp], 51 ; 00000033H
  001ee	eb 1d		 jmp	 SHORT $LN28@create_deb
$LN27@create_deb:
  001f0	68 c1 06 00 00	 push	 1729			; 000006c1H
  001f5	68 00 00 00 00	 push	 OFFSET ??_C@_0DO@EFGBNKOF@c?3?2users?2nhv90?2projects?2eech?2ap@
  001fa	8b 0d 00 00 00
	00		 mov	 ecx, DWORD PTR ?overload_invalid_int_type_message@@3PBDB ; overload_invalid_int_type_message
  00200	51		 push	 ecx
  00201	e8 00 00 00 00	 call	 ?process_assert@@YGXPBD0H@Z ; process_assert
  00206	c7 45 a4 00 00
	00 00		 mov	 DWORD PTR tv170[ebp], 0
$LN28@create_deb:
  0020d	6a 33		 push	 51			; 00000033H
  0020f	8b 55 f0	 mov	 edx, DWORD PTR _group$[ebp]
  00212	52		 push	 edx
  00213	69 45 a8 5c 04
	00 00		 imul	 eax, DWORD PTR tv163[ebp], 1116
  0021a	8b 4d a4	 mov	 ecx, DWORD PTR tv170[ebp]
  0021d	8b 94 88 00 00
	00 00		 mov	 edx, DWORD PTR ?fn_get_local_entity_int_value@@3PAY0BBH@P6GHPAUENTITY@@W4INT_TYPES@@@ZA[eax+ecx*4]
  00224	ff d2		 call	 edx
  00226	85 c0		 test	 eax, eax
  00228	75 05		 jne	 SHORT $LN9@create_deb

; 1730 : 	{
; 1731 : 		return;

  0022a	e9 c8 02 00 00	 jmp	 $LN1@create_deb
$LN9@create_deb:

; 1732 : 	}
; 1733 : 
; 1734 : 	//
; 1735 : 	// check that the group is not already engaging
; 1736 : 	//
; 1737 : 
; 1738 : 	guide = get_local_entity_first_child (group, LIST_TYPE_GUIDE_STACK);

  0022f	83 7d f0 00	 cmp	 DWORD PTR _group$[ebp], 0
  00233	74 0a		 je	 SHORT $LN29@create_deb
  00235	8b 45 f0	 mov	 eax, DWORD PTR _group$[ebp]
  00238	8b 08		 mov	 ecx, DWORD PTR [eax]
  0023a	89 4d a8	 mov	 DWORD PTR tv183[ebp], ecx
  0023d	eb 21		 jmp	 SHORT $LN30@create_deb
$LN29@create_deb:
  0023f	8b 15 00 00 00
	00		 mov	 edx, DWORD PTR ?__LINE__Var@?0??create_debug_engage_task@@YGXH@Z@4JA
  00245	83 c2 34	 add	 edx, 52			; 00000034H
  00248	52		 push	 edx
  00249	68 00 00 00 00	 push	 OFFSET ??_C@_0DO@EFGBNKOF@c?3?2users?2nhv90?2projects?2eech?2ap@
  0024e	a1 00 00 00 00	 mov	 eax, DWORD PTR ?null_entity_pointer_message@@3PBDB ; null_entity_pointer_message
  00253	50		 push	 eax
  00254	e8 00 00 00 00	 call	 ?process_assert@@YGXPBD0H@Z ; process_assert
  00259	c7 45 a8 00 00
	00 00		 mov	 DWORD PTR tv183[ebp], 0
$LN30@create_deb:
  00260	b9 01 00 00 00	 mov	 ecx, 1
  00265	85 c9		 test	 ecx, ecx
  00267	74 09		 je	 SHORT $LN31@create_deb
  00269	c7 45 a4 11 00
	00 00		 mov	 DWORD PTR tv191[ebp], 17 ; 00000011H
  00270	eb 21		 jmp	 SHORT $LN32@create_deb
$LN31@create_deb:
  00272	8b 15 00 00 00
	00		 mov	 edx, DWORD PTR ?__LINE__Var@?0??create_debug_engage_task@@YGXH@Z@4JA
  00278	83 c2 34	 add	 edx, 52			; 00000034H
  0027b	52		 push	 edx
  0027c	68 00 00 00 00	 push	 OFFSET ??_C@_0DO@EFGBNKOF@c?3?2users?2nhv90?2projects?2eech?2ap@
  00281	a1 00 00 00 00	 mov	 eax, DWORD PTR ?overload_invalid_list_type_message@@3PBDB ; overload_invalid_list_type_message
  00286	50		 push	 eax
  00287	e8 00 00 00 00	 call	 ?process_assert@@YGXPBD0H@Z ; process_assert
  0028c	c7 45 a4 00 00
	00 00		 mov	 DWORD PTR tv191[ebp], 0
$LN32@create_deb:
  00293	6a 11		 push	 17			; 00000011H
  00295	8b 4d f0	 mov	 ecx, DWORD PTR _group$[ebp]
  00298	51		 push	 ecx
  00299	69 55 a8 b4 00
	00 00		 imul	 edx, DWORD PTR tv183[ebp], 180
  002a0	8b 45 a4	 mov	 eax, DWORD PTR tv191[ebp]
  002a3	8b 8c 82 00 00
	00 00		 mov	 ecx, DWORD PTR ?fn_get_local_entity_first_child@@3PAY0CN@P6GPAUENTITY@@PAU1@W4LIST_TYPES@@@ZA[edx+eax*4]
  002aa	ff d1		 call	 ecx
  002ac	89 45 f4	 mov	 DWORD PTR _guide$[ebp], eax
$LN2@create_deb:

; 1739 : 
; 1740 : 	while (guide)

  002af	83 7d f4 00	 cmp	 DWORD PTR _guide$[ebp], 0
  002b3	0f 84 a2 01 00
	00		 je	 $LN3@create_deb

; 1741 : 	{
; 1742 : 		task = get_local_entity_parent (guide, LIST_TYPE_GUIDE);

  002b9	83 7d f4 00	 cmp	 DWORD PTR _guide$[ebp], 0
  002bd	74 0a		 je	 SHORT $LN33@create_deb
  002bf	8b 45 f4	 mov	 eax, DWORD PTR _guide$[ebp]
  002c2	8b 08		 mov	 ecx, DWORD PTR [eax]
  002c4	89 4d a8	 mov	 DWORD PTR tv204[ebp], ecx
  002c7	eb 21		 jmp	 SHORT $LN34@create_deb
$LN33@create_deb:
  002c9	8b 15 00 00 00
	00		 mov	 edx, DWORD PTR ?__LINE__Var@?0??create_debug_engage_task@@YGXH@Z@4JA
  002cf	83 c2 38	 add	 edx, 56			; 00000038H
  002d2	52		 push	 edx
  002d3	68 00 00 00 00	 push	 OFFSET ??_C@_0DO@EFGBNKOF@c?3?2users?2nhv90?2projects?2eech?2ap@
  002d8	a1 00 00 00 00	 mov	 eax, DWORD PTR ?null_entity_pointer_message@@3PBDB ; null_entity_pointer_message
  002dd	50		 push	 eax
  002de	e8 00 00 00 00	 call	 ?process_assert@@YGXPBD0H@Z ; process_assert
  002e3	c7 45 a8 00 00
	00 00		 mov	 DWORD PTR tv204[ebp], 0
$LN34@create_deb:
  002ea	b9 01 00 00 00	 mov	 ecx, 1
  002ef	85 c9		 test	 ecx, ecx
  002f1	74 09		 je	 SHORT $LN35@create_deb
  002f3	c7 45 a4 10 00
	00 00		 mov	 DWORD PTR tv212[ebp], 16 ; 00000010H
  002fa	eb 21		 jmp	 SHORT $LN36@create_deb
$LN35@create_deb:
  002fc	8b 15 00 00 00
	00		 mov	 edx, DWORD PTR ?__LINE__Var@?0??create_debug_engage_task@@YGXH@Z@4JA
  00302	83 c2 38	 add	 edx, 56			; 00000038H
  00305	52		 push	 edx
  00306	68 00 00 00 00	 push	 OFFSET ??_C@_0DO@EFGBNKOF@c?3?2users?2nhv90?2projects?2eech?2ap@
  0030b	a1 00 00 00 00	 mov	 eax, DWORD PTR ?overload_invalid_list_type_message@@3PBDB ; overload_invalid_list_type_message
  00310	50		 push	 eax
  00311	e8 00 00 00 00	 call	 ?process_assert@@YGXPBD0H@Z ; process_assert
  00316	c7 45 a4 00 00
	00 00		 mov	 DWORD PTR tv212[ebp], 0
$LN36@create_deb:
  0031d	6a 10		 push	 16			; 00000010H
  0031f	8b 4d f4	 mov	 ecx, DWORD PTR _guide$[ebp]
  00322	51		 push	 ecx
  00323	69 55 a8 b4 00
	00 00		 imul	 edx, DWORD PTR tv204[ebp], 180
  0032a	8b 45 a4	 mov	 eax, DWORD PTR tv212[ebp]
  0032d	8b 8c 82 00 00
	00 00		 mov	 ecx, DWORD PTR ?fn_get_local_entity_parent@@3PAY0CN@P6GPAUENTITY@@PAU1@W4LIST_TYPES@@@ZA[edx+eax*4]
  00334	ff d1		 call	 ecx
  00336	89 45 f8	 mov	 DWORD PTR _task$[ebp], eax

; 1743 : 
; 1744 : 		ASSERT (task);

  00339	83 7d f8 00	 cmp	 DWORD PTR _task$[ebp], 0
  0033d	75 18		 jne	 SHORT $LN10@create_deb
  0033f	a1 00 00 00 00	 mov	 eax, DWORD PTR ?__LINE__Var@?0??create_debug_engage_task@@YGXH@Z@4JA
  00344	83 c0 3a	 add	 eax, 58			; 0000003aH
  00347	50		 push	 eax
  00348	68 00 00 00 00	 push	 OFFSET ??_C@_0DO@EFGBNKOF@c?3?2users?2nhv90?2projects?2eech?2ap@
  0034d	68 00 00 00 00	 push	 OFFSET ??_C@_04GGKLLKOO@task@
  00352	e8 00 00 00 00	 call	 ?process_assert@@YGXPBD0H@Z ; process_assert
$LN10@create_deb:

; 1745 : 
; 1746 : 		if (get_local_entity_int_value (task, INT_TYPE_ENTITY_SUB_TYPE) == ENTITY_SUB_TYPE_TASK_ENGAGE)

  00357	83 7d f8 00	 cmp	 DWORD PTR _task$[ebp], 0
  0035b	74 0a		 je	 SHORT $LN37@create_deb
  0035d	8b 45 f8	 mov	 eax, DWORD PTR _task$[ebp]
  00360	8b 08		 mov	 ecx, DWORD PTR [eax]
  00362	89 4d a8	 mov	 DWORD PTR tv228[ebp], ecx
  00365	eb 1d		 jmp	 SHORT $LN38@create_deb
$LN37@create_deb:
  00367	68 d2 06 00 00	 push	 1746			; 000006d2H
  0036c	68 00 00 00 00	 push	 OFFSET ??_C@_0DO@EFGBNKOF@c?3?2users?2nhv90?2projects?2eech?2ap@
  00371	8b 15 00 00 00
	00		 mov	 edx, DWORD PTR ?null_entity_pointer_message@@3PBDB ; null_entity_pointer_message
  00377	52		 push	 edx
  00378	e8 00 00 00 00	 call	 ?process_assert@@YGXPBD0H@Z ; process_assert
  0037d	c7 45 a8 00 00
	00 00		 mov	 DWORD PTR tv228[ebp], 0
$LN38@create_deb:
  00384	b8 01 00 00 00	 mov	 eax, 1
  00389	85 c0		 test	 eax, eax
  0038b	74 09		 je	 SHORT $LN39@create_deb
  0038d	c7 45 a4 34 00
	00 00		 mov	 DWORD PTR tv235[ebp], 52 ; 00000034H
  00394	eb 1d		 jmp	 SHORT $LN40@create_deb
$LN39@create_deb:
  00396	68 d2 06 00 00	 push	 1746			; 000006d2H
  0039b	68 00 00 00 00	 push	 OFFSET ??_C@_0DO@EFGBNKOF@c?3?2users?2nhv90?2projects?2eech?2ap@
  003a0	8b 0d 00 00 00
	00		 mov	 ecx, DWORD PTR ?overload_invalid_int_type_message@@3PBDB ; overload_invalid_int_type_message
  003a6	51		 push	 ecx
  003a7	e8 00 00 00 00	 call	 ?process_assert@@YGXPBD0H@Z ; process_assert
  003ac	c7 45 a4 00 00
	00 00		 mov	 DWORD PTR tv235[ebp], 0
$LN40@create_deb:
  003b3	6a 34		 push	 52			; 00000034H
  003b5	8b 55 f8	 mov	 edx, DWORD PTR _task$[ebp]
  003b8	52		 push	 edx
  003b9	69 45 a8 5c 04
	00 00		 imul	 eax, DWORD PTR tv228[ebp], 1116
  003c0	8b 4d a4	 mov	 ecx, DWORD PTR tv235[ebp]
  003c3	8b 94 88 00 00
	00 00		 mov	 edx, DWORD PTR ?fn_get_local_entity_int_value@@3PAY0BBH@P6GHPAUENTITY@@W4INT_TYPES@@@ZA[eax+ecx*4]
  003ca	ff d2		 call	 edx
  003cc	83 f8 09	 cmp	 eax, 9
  003cf	75 05		 jne	 SHORT $LN11@create_deb

; 1747 : 		{
; 1748 : 			return;

  003d1	e9 21 01 00 00	 jmp	 $LN1@create_deb
$LN11@create_deb:

; 1749 : 		}
; 1750 : 
; 1751 : 		guide = get_local_entity_child_succ (guide, LIST_TYPE_GUIDE_STACK);

  003d6	83 7d f4 00	 cmp	 DWORD PTR _guide$[ebp], 0
  003da	74 0a		 je	 SHORT $LN41@create_deb
  003dc	8b 45 f4	 mov	 eax, DWORD PTR _guide$[ebp]
  003df	8b 08		 mov	 ecx, DWORD PTR [eax]
  003e1	89 4d a8	 mov	 DWORD PTR tv248[ebp], ecx
  003e4	eb 21		 jmp	 SHORT $LN42@create_deb
$LN41@create_deb:
  003e6	8b 15 00 00 00
	00		 mov	 edx, DWORD PTR ?__LINE__Var@?0??create_debug_engage_task@@YGXH@Z@4JA
  003ec	83 c2 41	 add	 edx, 65			; 00000041H
  003ef	52		 push	 edx
  003f0	68 00 00 00 00	 push	 OFFSET ??_C@_0DO@EFGBNKOF@c?3?2users?2nhv90?2projects?2eech?2ap@
  003f5	a1 00 00 00 00	 mov	 eax, DWORD PTR ?null_entity_pointer_message@@3PBDB ; null_entity_pointer_message
  003fa	50		 push	 eax
  003fb	e8 00 00 00 00	 call	 ?process_assert@@YGXPBD0H@Z ; process_assert
  00400	c7 45 a8 00 00
	00 00		 mov	 DWORD PTR tv248[ebp], 0
$LN42@create_deb:
  00407	b9 01 00 00 00	 mov	 ecx, 1
  0040c	85 c9		 test	 ecx, ecx
  0040e	74 09		 je	 SHORT $LN43@create_deb
  00410	c7 45 a4 11 00
	00 00		 mov	 DWORD PTR tv256[ebp], 17 ; 00000011H
  00417	eb 21		 jmp	 SHORT $LN44@create_deb
$LN43@create_deb:
  00419	8b 15 00 00 00
	00		 mov	 edx, DWORD PTR ?__LINE__Var@?0??create_debug_engage_task@@YGXH@Z@4JA
  0041f	83 c2 41	 add	 edx, 65			; 00000041H
  00422	52		 push	 edx
  00423	68 00 00 00 00	 push	 OFFSET ??_C@_0DO@EFGBNKOF@c?3?2users?2nhv90?2projects?2eech?2ap@
  00428	a1 00 00 00 00	 mov	 eax, DWORD PTR ?overload_invalid_list_type_message@@3PBDB ; overload_invalid_list_type_message
  0042d	50		 push	 eax
  0042e	e8 00 00 00 00	 call	 ?process_assert@@YGXPBD0H@Z ; process_assert
  00433	c7 45 a4 00 00
	00 00		 mov	 DWORD PTR tv256[ebp], 0
$LN44@create_deb:
  0043a	6a 11		 push	 17			; 00000011H
  0043c	8b 4d f4	 mov	 ecx, DWORD PTR _guide$[ebp]
  0043f	51		 push	 ecx
  00440	69 55 a8 b4 00
	00 00		 imul	 edx, DWORD PTR tv248[ebp], 180
  00447	8b 45 a4	 mov	 eax, DWORD PTR tv256[ebp]
  0044a	8b 8c 82 00 00
	00 00		 mov	 ecx, DWORD PTR ?fn_get_local_entity_child_succ@@3PAY0CN@P6GPAUENTITY@@PAU1@W4LIST_TYPES@@@ZA[edx+eax*4]
  00451	ff d1		 call	 ecx
  00453	89 45 f4	 mov	 DWORD PTR _guide$[ebp], eax

; 1752 : 	}

  00456	e9 54 fe ff ff	 jmp	 $LN2@create_deb
$LN3@create_deb:

; 1753 : 
; 1754 : 	pos = get_local_entity_vec3d_ptr (en, VEC3D_TYPE_POSITION);

  0045b	83 7d fc 00	 cmp	 DWORD PTR _en$[ebp], 0
  0045f	74 0a		 je	 SHORT $LN45@create_deb
  00461	8b 45 fc	 mov	 eax, DWORD PTR _en$[ebp]
  00464	8b 08		 mov	 ecx, DWORD PTR [eax]
  00466	89 4d a8	 mov	 DWORD PTR tv268[ebp], ecx
  00469	eb 21		 jmp	 SHORT $LN46@create_deb
$LN45@create_deb:
  0046b	8b 15 00 00 00
	00		 mov	 edx, DWORD PTR ?__LINE__Var@?0??create_debug_engage_task@@YGXH@Z@4JA
  00471	83 c2 44	 add	 edx, 68			; 00000044H
  00474	52		 push	 edx
  00475	68 00 00 00 00	 push	 OFFSET ??_C@_0DO@EFGBNKOF@c?3?2users?2nhv90?2projects?2eech?2ap@
  0047a	a1 00 00 00 00	 mov	 eax, DWORD PTR ?null_entity_pointer_message@@3PBDB ; null_entity_pointer_message
  0047f	50		 push	 eax
  00480	e8 00 00 00 00	 call	 ?process_assert@@YGXPBD0H@Z ; process_assert
  00485	c7 45 a8 00 00
	00 00		 mov	 DWORD PTR tv268[ebp], 0
$LN46@create_deb:
  0048c	b9 01 00 00 00	 mov	 ecx, 1
  00491	85 c9		 test	 ecx, ecx
  00493	74 09		 je	 SHORT $LN47@create_deb
  00495	c7 45 a4 08 00
	00 00		 mov	 DWORD PTR tv276[ebp], 8
  0049c	eb 21		 jmp	 SHORT $LN48@create_deb
$LN47@create_deb:
  0049e	8b 15 00 00 00
	00		 mov	 edx, DWORD PTR ?__LINE__Var@?0??create_debug_engage_task@@YGXH@Z@4JA
  004a4	83 c2 44	 add	 edx, 68			; 00000044H
  004a7	52		 push	 edx
  004a8	68 00 00 00 00	 push	 OFFSET ??_C@_0DO@EFGBNKOF@c?3?2users?2nhv90?2projects?2eech?2ap@
  004ad	a1 00 00 00 00	 mov	 eax, DWORD PTR ?overload_invalid_vec3d_type_message@@3PBDB ; overload_invalid_vec3d_type_message
  004b2	50		 push	 eax
  004b3	e8 00 00 00 00	 call	 ?process_assert@@YGXPBD0H@Z ; process_assert
  004b8	c7 45 a4 00 00
	00 00		 mov	 DWORD PTR tv276[ebp], 0
$LN48@create_deb:
  004bf	6a 08		 push	 8
  004c1	8b 4d fc	 mov	 ecx, DWORD PTR _en$[ebp]
  004c4	51		 push	 ecx
  004c5	6b 55 a8 60	 imul	 edx, DWORD PTR tv268[ebp], 96
  004c9	8b 45 a4	 mov	 eax, DWORD PTR tv276[ebp]
  004cc	8b 8c 82 00 00
	00 00		 mov	 ecx, DWORD PTR ?fn_get_local_entity_vec3d_ptr@@3PAY0BI@P6GPAUVEC3D@@PAUENTITY@@W4VEC3D_TYPES@@@ZA[edx+eax*4]
  004d3	ff d1		 call	 ecx
  004d5	89 45 ec	 mov	 DWORD PTR _pos$[ebp], eax

; 1755 : 
; 1756 : 	debug_engage_targets_in_area (group, pos, 2500.0, target_type);

  004d8	8b 45 08	 mov	 eax, DWORD PTR _target_type$[ebp]
  004db	50		 push	 eax
  004dc	51		 push	 ecx
  004dd	f3 0f 10 05 00
	00 00 00	 movss	 xmm0, DWORD PTR __real@451c4000
  004e5	f3 0f 11 04 24	 movss	 DWORD PTR [esp], xmm0
  004ea	8b 4d ec	 mov	 ecx, DWORD PTR _pos$[ebp]
  004ed	51		 push	 ecx
  004ee	8b 55 f0	 mov	 edx, DWORD PTR _group$[ebp]
  004f1	52		 push	 edx
  004f2	e8 00 00 00 00	 call	 ?debug_engage_targets_in_area@@YGHPAUENTITY@@PAUVEC3D@@MI@Z ; debug_engage_targets_in_area
$LN1@create_deb:

; 1757 : }

  004f7	5f		 pop	 edi
  004f8	5e		 pop	 esi
  004f9	5b		 pop	 ebx
  004fa	8b e5		 mov	 esp, ebp
  004fc	5d		 pop	 ebp
  004fd	c2 04 00	 ret	 4
?create_debug_engage_task@@YGXH@Z ENDP			; create_debug_engage_task
_TEXT	ENDS
; Function compile flags: /Odtp /ZI
; File c:\users\nhv90\projects\eech\aphavoc\source\events\ev_debug.c
;	COMDAT ?create_dummy_task_event@@YGXPAUEVENT@@@Z
_TEXT	SEGMENT
tv375 = -96						; size = 4
tv348 = -96						; size = 4
tv327 = -96						; size = 4
tv307 = -96						; size = 4
tv286 = -96						; size = 4
tv265 = -96						; size = 4
tv243 = -96						; size = 4
tv217 = -96						; size = 4
tv172 = -96						; size = 4
tv151 = -96						; size = 4
tv132 = -96						; size = 4
tv79 = -96						; size = 4
tv367 = -92						; size = 4
tv340 = -92						; size = 4
tv319 = -92						; size = 4
tv299 = -92						; size = 4
tv278 = -92						; size = 4
tv257 = -92						; size = 4
tv235 = -92						; size = 4
tv209 = -92						; size = 4
tv189 = -92						; size = 4
tv164 = -92						; size = 4
tv144 = -92						; size = 4
tv92 = -92						; size = 4
tv72 = -92						; size = 4
_landing$ = -24						; size = 4
_keysite$ = -20						; size = 4
_group$ = -16						; size = 4
_last$ = -12						; size = 4
_task$ = -8						; size = 4
_en$ = -4						; size = 4
_ev$ = 8						; size = 4
?create_dummy_task_event@@YGXPAUEVENT@@@Z PROC		; create_dummy_task_event, COMDAT

; 1590 : {

  00000	55		 push	 ebp
  00001	8b ec		 mov	 ebp, esp
  00003	83 ec 60	 sub	 esp, 96			; 00000060H
  00006	53		 push	 ebx
  00007	56		 push	 esi
  00008	57		 push	 edi

; 1591 : 	entity
; 1592 : 		*en,
; 1593 : 		*task,
; 1594 : 		*last,
; 1595 : 		*group,
; 1596 : 		*keysite,
; 1597 : 		*landing;
; 1598 : 
; 1599 : 	if (get_comms_model () != COMMS_MODEL_SERVER) return;

  00009	83 3d 00 00 00
	00 00		 cmp	 DWORD PTR ?system_comms_model@@3W4COMMS_MODEL_TYPES@@A, 0 ; system_comms_model
  00010	74 05		 je	 SHORT $LN6@create_dum
  00012	e9 2e 07 00 00	 jmp	 $LN1@create_dum
$LN6@create_dum:

; 1600 : 
; 1601 : 	//
; 1602 : 	// get external view entity and check it is an aircraft
; 1603 : 	//
; 1604 : 
; 1605 : 	en = get_external_view_entity ();

  00017	e8 00 00 00 00	 call	 ?get_external_view_entity@@YGPAUENTITY@@XZ ; get_external_view_entity
  0001c	89 45 fc	 mov	 DWORD PTR _en$[ebp], eax

; 1606 : 
; 1607 : 	if (!en) return;

  0001f	83 7d fc 00	 cmp	 DWORD PTR _en$[ebp], 0
  00023	75 05		 jne	 SHORT $LN7@create_dum
  00025	e9 1b 07 00 00	 jmp	 $LN1@create_dum
$LN7@create_dum:

; 1608 : 
; 1609 : 	if (!get_local_entity_int_value (en, INT_TYPE_IDENTIFY_AIRCRAFT)) return;

  0002a	83 7d fc 00	 cmp	 DWORD PTR _en$[ebp], 0
  0002e	74 0a		 je	 SHORT $LN18@create_dum
  00030	8b 45 fc	 mov	 eax, DWORD PTR _en$[ebp]
  00033	8b 08		 mov	 ecx, DWORD PTR [eax]
  00035	89 4d a4	 mov	 DWORD PTR tv72[ebp], ecx
  00038	eb 1d		 jmp	 SHORT $LN19@create_dum
$LN18@create_dum:
  0003a	68 49 06 00 00	 push	 1609			; 00000649H
  0003f	68 00 00 00 00	 push	 OFFSET ??_C@_0DO@EFGBNKOF@c?3?2users?2nhv90?2projects?2eech?2ap@
  00044	8b 15 00 00 00
	00		 mov	 edx, DWORD PTR ?null_entity_pointer_message@@3PBDB ; null_entity_pointer_message
  0004a	52		 push	 edx
  0004b	e8 00 00 00 00	 call	 ?process_assert@@YGXPBD0H@Z ; process_assert
  00050	c7 45 a4 00 00
	00 00		 mov	 DWORD PTR tv72[ebp], 0
$LN19@create_dum:
  00057	b8 01 00 00 00	 mov	 eax, 1
  0005c	85 c0		 test	 eax, eax
  0005e	74 09		 je	 SHORT $LN20@create_dum
  00060	c7 45 a0 57 00
	00 00		 mov	 DWORD PTR tv79[ebp], 87	; 00000057H
  00067	eb 1d		 jmp	 SHORT $LN21@create_dum
$LN20@create_dum:
  00069	68 49 06 00 00	 push	 1609			; 00000649H
  0006e	68 00 00 00 00	 push	 OFFSET ??_C@_0DO@EFGBNKOF@c?3?2users?2nhv90?2projects?2eech?2ap@
  00073	8b 0d 00 00 00
	00		 mov	 ecx, DWORD PTR ?overload_invalid_int_type_message@@3PBDB ; overload_invalid_int_type_message
  00079	51		 push	 ecx
  0007a	e8 00 00 00 00	 call	 ?process_assert@@YGXPBD0H@Z ; process_assert
  0007f	c7 45 a0 00 00
	00 00		 mov	 DWORD PTR tv79[ebp], 0
$LN21@create_dum:
  00086	6a 57		 push	 87			; 00000057H
  00088	8b 55 fc	 mov	 edx, DWORD PTR _en$[ebp]
  0008b	52		 push	 edx
  0008c	69 45 a4 5c 04
	00 00		 imul	 eax, DWORD PTR tv72[ebp], 1116
  00093	8b 4d a0	 mov	 ecx, DWORD PTR tv79[ebp]
  00096	8b 94 88 00 00
	00 00		 mov	 edx, DWORD PTR ?fn_get_local_entity_int_value@@3PAY0BBH@P6GHPAUENTITY@@W4INT_TYPES@@@ZA[eax+ecx*4]
  0009d	ff d2		 call	 edx
  0009f	85 c0		 test	 eax, eax
  000a1	75 05		 jne	 SHORT $LN8@create_dum
  000a3	e9 9d 06 00 00	 jmp	 $LN1@create_dum
$LN8@create_dum:

; 1610 : 
; 1611 : 	//
; 1612 : 	// get group and check that it is currently idle
; 1613 : 	//
; 1614 : 
; 1615 : 	group = get_local_entity_parent (en, LIST_TYPE_MEMBER);

  000a8	83 7d fc 00	 cmp	 DWORD PTR _en$[ebp], 0
  000ac	74 0a		 je	 SHORT $LN22@create_dum
  000ae	8b 45 fc	 mov	 eax, DWORD PTR _en$[ebp]
  000b1	8b 08		 mov	 ecx, DWORD PTR [eax]
  000b3	89 4d a4	 mov	 DWORD PTR tv92[ebp], ecx
  000b6	eb 21		 jmp	 SHORT $LN23@create_dum
$LN22@create_dum:
  000b8	8b 15 00 00 00
	00		 mov	 edx, DWORD PTR ?__LINE__Var@?0??create_dummy_task_event@@YGXPAUEVENT@@@Z@4JA
  000be	83 c2 19	 add	 edx, 25			; 00000019H
  000c1	52		 push	 edx
  000c2	68 00 00 00 00	 push	 OFFSET ??_C@_0DO@EFGBNKOF@c?3?2users?2nhv90?2projects?2eech?2ap@
  000c7	a1 00 00 00 00	 mov	 eax, DWORD PTR ?null_entity_pointer_message@@3PBDB ; null_entity_pointer_message
  000cc	50		 push	 eax
  000cd	e8 00 00 00 00	 call	 ?process_assert@@YGXPBD0H@Z ; process_assert
  000d2	c7 45 a4 00 00
	00 00		 mov	 DWORD PTR tv92[ebp], 0
$LN23@create_dum:
  000d9	b9 01 00 00 00	 mov	 ecx, 1
  000de	85 c9		 test	 ecx, ecx
  000e0	74 09		 je	 SHORT $LN24@create_dum
  000e2	c7 45 a0 19 00
	00 00		 mov	 DWORD PTR tv132[ebp], 25 ; 00000019H
  000e9	eb 21		 jmp	 SHORT $LN25@create_dum
$LN24@create_dum:
  000eb	8b 15 00 00 00
	00		 mov	 edx, DWORD PTR ?__LINE__Var@?0??create_dummy_task_event@@YGXPAUEVENT@@@Z@4JA
  000f1	83 c2 19	 add	 edx, 25			; 00000019H
  000f4	52		 push	 edx
  000f5	68 00 00 00 00	 push	 OFFSET ??_C@_0DO@EFGBNKOF@c?3?2users?2nhv90?2projects?2eech?2ap@
  000fa	a1 00 00 00 00	 mov	 eax, DWORD PTR ?overload_invalid_list_type_message@@3PBDB ; overload_invalid_list_type_message
  000ff	50		 push	 eax
  00100	e8 00 00 00 00	 call	 ?process_assert@@YGXPBD0H@Z ; process_assert
  00105	c7 45 a0 00 00
	00 00		 mov	 DWORD PTR tv132[ebp], 0
$LN25@create_dum:
  0010c	6a 19		 push	 25			; 00000019H
  0010e	8b 4d fc	 mov	 ecx, DWORD PTR _en$[ebp]
  00111	51		 push	 ecx
  00112	69 55 a4 b4 00
	00 00		 imul	 edx, DWORD PTR tv92[ebp], 180
  00119	8b 45 a0	 mov	 eax, DWORD PTR tv132[ebp]
  0011c	8b 8c 82 00 00
	00 00		 mov	 ecx, DWORD PTR ?fn_get_local_entity_parent@@3PAY0CN@P6GPAUENTITY@@PAU1@W4LIST_TYPES@@@ZA[edx+eax*4]
  00123	ff d1		 call	 ecx
  00125	89 45 f0	 mov	 DWORD PTR _group$[ebp], eax

; 1616 : 
; 1617 : 	if (!group) return;

  00128	83 7d f0 00	 cmp	 DWORD PTR _group$[ebp], 0
  0012c	75 05		 jne	 SHORT $LN9@create_dum
  0012e	e9 12 06 00 00	 jmp	 $LN1@create_dum
$LN9@create_dum:

; 1618 : 
; 1619 : 	if (get_local_entity_int_value (group, INT_TYPE_GROUP_MODE) != GROUP_MODE_IDLE) return;

  00133	83 7d f0 00	 cmp	 DWORD PTR _group$[ebp], 0
  00137	74 0a		 je	 SHORT $LN26@create_dum
  00139	8b 45 f0	 mov	 eax, DWORD PTR _group$[ebp]
  0013c	8b 08		 mov	 ecx, DWORD PTR [eax]
  0013e	89 4d a4	 mov	 DWORD PTR tv144[ebp], ecx
  00141	eb 1d		 jmp	 SHORT $LN27@create_dum
$LN26@create_dum:
  00143	68 53 06 00 00	 push	 1619			; 00000653H
  00148	68 00 00 00 00	 push	 OFFSET ??_C@_0DO@EFGBNKOF@c?3?2users?2nhv90?2projects?2eech?2ap@
  0014d	8b 15 00 00 00
	00		 mov	 edx, DWORD PTR ?null_entity_pointer_message@@3PBDB ; null_entity_pointer_message
  00153	52		 push	 edx
  00154	e8 00 00 00 00	 call	 ?process_assert@@YGXPBD0H@Z ; process_assert
  00159	c7 45 a4 00 00
	00 00		 mov	 DWORD PTR tv144[ebp], 0
$LN27@create_dum:
  00160	b8 01 00 00 00	 mov	 eax, 1
  00165	85 c0		 test	 eax, eax
  00167	74 09		 je	 SHORT $LN28@create_dum
  00169	c7 45 a0 4d 00
	00 00		 mov	 DWORD PTR tv151[ebp], 77 ; 0000004dH
  00170	eb 1d		 jmp	 SHORT $LN29@create_dum
$LN28@create_dum:
  00172	68 53 06 00 00	 push	 1619			; 00000653H
  00177	68 00 00 00 00	 push	 OFFSET ??_C@_0DO@EFGBNKOF@c?3?2users?2nhv90?2projects?2eech?2ap@
  0017c	8b 0d 00 00 00
	00		 mov	 ecx, DWORD PTR ?overload_invalid_int_type_message@@3PBDB ; overload_invalid_int_type_message
  00182	51		 push	 ecx
  00183	e8 00 00 00 00	 call	 ?process_assert@@YGXPBD0H@Z ; process_assert
  00188	c7 45 a0 00 00
	00 00		 mov	 DWORD PTR tv151[ebp], 0
$LN29@create_dum:
  0018f	6a 4d		 push	 77			; 0000004dH
  00191	8b 55 f0	 mov	 edx, DWORD PTR _group$[ebp]
  00194	52		 push	 edx
  00195	69 45 a4 5c 04
	00 00		 imul	 eax, DWORD PTR tv144[ebp], 1116
  0019c	8b 4d a0	 mov	 ecx, DWORD PTR tv151[ebp]
  0019f	8b 94 88 00 00
	00 00		 mov	 edx, DWORD PTR ?fn_get_local_entity_int_value@@3PAY0BBH@P6GHPAUENTITY@@W4INT_TYPES@@@ZA[eax+ecx*4]
  001a6	ff d2		 call	 edx
  001a8	85 c0		 test	 eax, eax
  001aa	74 05		 je	 SHORT $LN10@create_dum
  001ac	e9 94 05 00 00	 jmp	 $LN1@create_dum
$LN10@create_dum:

; 1620 : 
; 1621 : 	//
; 1622 : 	// get keysite entity belongs to
; 1623 : 	//
; 1624 : 
; 1625 : 	keysite = get_local_entity_parent (group, LIST_TYPE_KEYSITE_GROUP);

  001b1	83 7d f0 00	 cmp	 DWORD PTR _group$[ebp], 0
  001b5	74 0a		 je	 SHORT $LN30@create_dum
  001b7	8b 45 f0	 mov	 eax, DWORD PTR _group$[ebp]
  001ba	8b 08		 mov	 ecx, DWORD PTR [eax]
  001bc	89 4d a4	 mov	 DWORD PTR tv164[ebp], ecx
  001bf	eb 21		 jmp	 SHORT $LN31@create_dum
$LN30@create_dum:
  001c1	8b 15 00 00 00
	00		 mov	 edx, DWORD PTR ?__LINE__Var@?0??create_dummy_task_event@@YGXPAUEVENT@@@Z@4JA
  001c7	83 c2 23	 add	 edx, 35			; 00000023H
  001ca	52		 push	 edx
  001cb	68 00 00 00 00	 push	 OFFSET ??_C@_0DO@EFGBNKOF@c?3?2users?2nhv90?2projects?2eech?2ap@
  001d0	a1 00 00 00 00	 mov	 eax, DWORD PTR ?null_entity_pointer_message@@3PBDB ; null_entity_pointer_message
  001d5	50		 push	 eax
  001d6	e8 00 00 00 00	 call	 ?process_assert@@YGXPBD0H@Z ; process_assert
  001db	c7 45 a4 00 00
	00 00		 mov	 DWORD PTR tv164[ebp], 0
$LN31@create_dum:
  001e2	b9 01 00 00 00	 mov	 ecx, 1
  001e7	85 c9		 test	 ecx, ecx
  001e9	74 09		 je	 SHORT $LN32@create_dum
  001eb	c7 45 a0 16 00
	00 00		 mov	 DWORD PTR tv172[ebp], 22 ; 00000016H
  001f2	eb 21		 jmp	 SHORT $LN33@create_dum
$LN32@create_dum:
  001f4	8b 15 00 00 00
	00		 mov	 edx, DWORD PTR ?__LINE__Var@?0??create_dummy_task_event@@YGXPAUEVENT@@@Z@4JA
  001fa	83 c2 23	 add	 edx, 35			; 00000023H
  001fd	52		 push	 edx
  001fe	68 00 00 00 00	 push	 OFFSET ??_C@_0DO@EFGBNKOF@c?3?2users?2nhv90?2projects?2eech?2ap@
  00203	a1 00 00 00 00	 mov	 eax, DWORD PTR ?overload_invalid_list_type_message@@3PBDB ; overload_invalid_list_type_message
  00208	50		 push	 eax
  00209	e8 00 00 00 00	 call	 ?process_assert@@YGXPBD0H@Z ; process_assert
  0020e	c7 45 a0 00 00
	00 00		 mov	 DWORD PTR tv172[ebp], 0
$LN33@create_dum:
  00215	6a 16		 push	 22			; 00000016H
  00217	8b 4d f0	 mov	 ecx, DWORD PTR _group$[ebp]
  0021a	51		 push	 ecx
  0021b	69 55 a4 b4 00
	00 00		 imul	 edx, DWORD PTR tv164[ebp], 180
  00222	8b 45 a0	 mov	 eax, DWORD PTR tv172[ebp]
  00225	8b 8c 82 00 00
	00 00		 mov	 ecx, DWORD PTR ?fn_get_local_entity_parent@@3PAY0CN@P6GPAUENTITY@@PAU1@W4LIST_TYPES@@@ZA[edx+eax*4]
  0022c	ff d1		 call	 ecx
  0022e	89 45 ec	 mov	 DWORD PTR _keysite$[ebp], eax

; 1626 : 
; 1627 : 	ASSERT (keysite);

  00231	83 7d ec 00	 cmp	 DWORD PTR _keysite$[ebp], 0
  00235	75 18		 jne	 SHORT $LN11@create_dum
  00237	a1 00 00 00 00	 mov	 eax, DWORD PTR ?__LINE__Var@?0??create_dummy_task_event@@YGXPAUEVENT@@@Z@4JA
  0023c	83 c0 25	 add	 eax, 37			; 00000025H
  0023f	50		 push	 eax
  00240	68 00 00 00 00	 push	 OFFSET ??_C@_0DO@EFGBNKOF@c?3?2users?2nhv90?2projects?2eech?2ap@
  00245	68 00 00 00 00	 push	 OFFSET ??_C@_07FBNBNOMI@keysite@
  0024a	e8 00 00 00 00	 call	 ?process_assert@@YGXPBD0H@Z ; process_assert
$LN11@create_dum:

; 1628 : 
; 1629 : 	ASSERT (get_local_entity_type (keysite) == ENTITY_TYPE_KEYSITE);

  0024f	83 7d ec 00	 cmp	 DWORD PTR _keysite$[ebp], 0
  00253	74 0a		 je	 SHORT $LN34@create_dum
  00255	8b 45 ec	 mov	 eax, DWORD PTR _keysite$[ebp]
  00258	8b 08		 mov	 ecx, DWORD PTR [eax]
  0025a	89 4d a4	 mov	 DWORD PTR tv189[ebp], ecx
  0025d	eb 21		 jmp	 SHORT $LN35@create_dum
$LN34@create_dum:
  0025f	8b 15 00 00 00
	00		 mov	 edx, DWORD PTR ?__LINE__Var@?0??create_dummy_task_event@@YGXPAUEVENT@@@Z@4JA
  00265	83 c2 27	 add	 edx, 39			; 00000027H
  00268	52		 push	 edx
  00269	68 00 00 00 00	 push	 OFFSET ??_C@_0DO@EFGBNKOF@c?3?2users?2nhv90?2projects?2eech?2ap@
  0026e	a1 00 00 00 00	 mov	 eax, DWORD PTR ?null_entity_pointer_message@@3PBDB ; null_entity_pointer_message
  00273	50		 push	 eax
  00274	e8 00 00 00 00	 call	 ?process_assert@@YGXPBD0H@Z ; process_assert
  00279	c7 45 a4 00 00
	00 00		 mov	 DWORD PTR tv189[ebp], 0
$LN35@create_dum:
  00280	83 7d a4 0f	 cmp	 DWORD PTR tv189[ebp], 15 ; 0000000fH
  00284	74 18		 je	 SHORT $LN12@create_dum
  00286	a1 00 00 00 00	 mov	 eax, DWORD PTR ?__LINE__Var@?0??create_dummy_task_event@@YGXPAUEVENT@@@Z@4JA
  0028b	83 c0 27	 add	 eax, 39			; 00000027H
  0028e	50		 push	 eax
  0028f	68 00 00 00 00	 push	 OFFSET ??_C@_0DO@EFGBNKOF@c?3?2users?2nhv90?2projects?2eech?2ap@
  00294	68 00 00 00 00	 push	 OFFSET ??_C@_0DH@KIHAKAGM@get_local_entity_type?5?$CIkeysite?$CJ@
  00299	e8 00 00 00 00	 call	 ?process_assert@@YGXPBD0H@Z ; process_assert
$LN12@create_dum:

; 1630 : 
; 1631 : 	//
; 1632 : 	// create CAP task and assign it to the group
; 1633 : 	//
; 1634 : 
; 1635 : 	task = create_cap_task ((entity_sides) get_local_entity_int_value (en, INT_TYPE_SIDE), keysite, NULL, TRUE, 10.0, 30.0 * ONE_MINUTE, NULL, NULL);

  0029e	83 7d fc 00	 cmp	 DWORD PTR _en$[ebp], 0
  002a2	74 0a		 je	 SHORT $LN36@create_dum
  002a4	8b 45 fc	 mov	 eax, DWORD PTR _en$[ebp]
  002a7	8b 08		 mov	 ecx, DWORD PTR [eax]
  002a9	89 4d a4	 mov	 DWORD PTR tv209[ebp], ecx
  002ac	eb 21		 jmp	 SHORT $LN37@create_dum
$LN36@create_dum:
  002ae	8b 15 00 00 00
	00		 mov	 edx, DWORD PTR ?__LINE__Var@?0??create_dummy_task_event@@YGXPAUEVENT@@@Z@4JA
  002b4	83 c2 2d	 add	 edx, 45			; 0000002dH
  002b7	52		 push	 edx
  002b8	68 00 00 00 00	 push	 OFFSET ??_C@_0DO@EFGBNKOF@c?3?2users?2nhv90?2projects?2eech?2ap@
  002bd	a1 00 00 00 00	 mov	 eax, DWORD PTR ?null_entity_pointer_message@@3PBDB ; null_entity_pointer_message
  002c2	50		 push	 eax
  002c3	e8 00 00 00 00	 call	 ?process_assert@@YGXPBD0H@Z ; process_assert
  002c8	c7 45 a4 00 00
	00 00		 mov	 DWORD PTR tv209[ebp], 0
$LN37@create_dum:
  002cf	b9 01 00 00 00	 mov	 ecx, 1
  002d4	85 c9		 test	 ecx, ecx
  002d6	74 09		 je	 SHORT $LN38@create_dum
  002d8	c7 45 a0 bb 00
	00 00		 mov	 DWORD PTR tv217[ebp], 187 ; 000000bbH
  002df	eb 21		 jmp	 SHORT $LN39@create_dum
$LN38@create_dum:
  002e1	8b 15 00 00 00
	00		 mov	 edx, DWORD PTR ?__LINE__Var@?0??create_dummy_task_event@@YGXPAUEVENT@@@Z@4JA
  002e7	83 c2 2d	 add	 edx, 45			; 0000002dH
  002ea	52		 push	 edx
  002eb	68 00 00 00 00	 push	 OFFSET ??_C@_0DO@EFGBNKOF@c?3?2users?2nhv90?2projects?2eech?2ap@
  002f0	a1 00 00 00 00	 mov	 eax, DWORD PTR ?overload_invalid_int_type_message@@3PBDB ; overload_invalid_int_type_message
  002f5	50		 push	 eax
  002f6	e8 00 00 00 00	 call	 ?process_assert@@YGXPBD0H@Z ; process_assert
  002fb	c7 45 a0 00 00
	00 00		 mov	 DWORD PTR tv217[ebp], 0
$LN39@create_dum:
  00302	6a 00		 push	 0
  00304	6a 00		 push	 0
  00306	51		 push	 ecx
  00307	f3 0f 10 05 00
	00 00 00	 movss	 xmm0, DWORD PTR __real@44e10000
  0030f	f3 0f 11 04 24	 movss	 DWORD PTR [esp], xmm0
  00314	51		 push	 ecx
  00315	f3 0f 10 05 00
	00 00 00	 movss	 xmm0, DWORD PTR __real@41200000
  0031d	f3 0f 11 04 24	 movss	 DWORD PTR [esp], xmm0
  00322	6a 01		 push	 1
  00324	6a 00		 push	 0
  00326	8b 4d ec	 mov	 ecx, DWORD PTR _keysite$[ebp]
  00329	51		 push	 ecx
  0032a	68 bb 00 00 00	 push	 187			; 000000bbH
  0032f	8b 55 fc	 mov	 edx, DWORD PTR _en$[ebp]
  00332	52		 push	 edx
  00333	69 45 a4 5c 04
	00 00		 imul	 eax, DWORD PTR tv209[ebp], 1116
  0033a	8b 4d a0	 mov	 ecx, DWORD PTR tv217[ebp]
  0033d	8b 94 88 00 00
	00 00		 mov	 edx, DWORD PTR ?fn_get_local_entity_int_value@@3PAY0BBH@P6GHPAUENTITY@@W4INT_TYPES@@@ZA[eax+ecx*4]
  00344	ff d2		 call	 edx
  00346	50		 push	 eax
  00347	e8 00 00 00 00	 call	 ?create_cap_task@@YGPAUENTITY@@W4ENTITY_SIDES@@PAU1@1HMM11@Z ; create_cap_task
  0034c	89 45 f8	 mov	 DWORD PTR _task$[ebp], eax

; 1636 : 
; 1637 : 	if (!task) return;

  0034f	83 7d f8 00	 cmp	 DWORD PTR _task$[ebp], 0
  00353	75 05		 jne	 SHORT $LN13@create_dum
  00355	e9 eb 03 00 00	 jmp	 $LN1@create_dum
$LN13@create_dum:

; 1638 : 
; 1639 : 	if (!assign_primary_task_to_group (group, task))

  0035a	8b 45 f8	 mov	 eax, DWORD PTR _task$[ebp]
  0035d	50		 push	 eax
  0035e	8b 4d f0	 mov	 ecx, DWORD PTR _group$[ebp]
  00361	51		 push	 ecx
  00362	e8 00 00 00 00	 call	 ?assign_primary_task_to_group@@YGHPAUENTITY@@0@Z ; assign_primary_task_to_group
  00367	85 c0		 test	 eax, eax
  00369	0f 85 8d 00 00
	00		 jne	 $LN14@create_dum

; 1640 : 	{
; 1641 : 		debug_log ("EV_DEBUG: created task but could not assign it to group %s", get_local_entity_string (group, STRING_TYPE_FULL_NAME));

  0036f	83 7d f0 00	 cmp	 DWORD PTR _group$[ebp], 0
  00373	74 0a		 je	 SHORT $LN40@create_dum
  00375	8b 45 f0	 mov	 eax, DWORD PTR _group$[ebp]
  00378	8b 08		 mov	 ecx, DWORD PTR [eax]
  0037a	89 4d a4	 mov	 DWORD PTR tv235[ebp], ecx
  0037d	eb 21		 jmp	 SHORT $LN41@create_dum
$LN40@create_dum:
  0037f	8b 15 00 00 00
	00		 mov	 edx, DWORD PTR ?__LINE__Var@?0??create_dummy_task_event@@YGXPAUEVENT@@@Z@4JA
  00385	83 c2 33	 add	 edx, 51			; 00000033H
  00388	52		 push	 edx
  00389	68 00 00 00 00	 push	 OFFSET ??_C@_0DO@EFGBNKOF@c?3?2users?2nhv90?2projects?2eech?2ap@
  0038e	a1 00 00 00 00	 mov	 eax, DWORD PTR ?null_entity_pointer_message@@3PBDB ; null_entity_pointer_message
  00393	50		 push	 eax
  00394	e8 00 00 00 00	 call	 ?process_assert@@YGXPBD0H@Z ; process_assert
  00399	c7 45 a4 00 00
	00 00		 mov	 DWORD PTR tv235[ebp], 0
$LN41@create_dum:
  003a0	b9 01 00 00 00	 mov	 ecx, 1
  003a5	85 c9		 test	 ecx, ecx
  003a7	74 09		 je	 SHORT $LN42@create_dum
  003a9	c7 45 a0 03 00
	00 00		 mov	 DWORD PTR tv243[ebp], 3
  003b0	eb 21		 jmp	 SHORT $LN43@create_dum
$LN42@create_dum:
  003b2	8b 15 00 00 00
	00		 mov	 edx, DWORD PTR ?__LINE__Var@?0??create_dummy_task_event@@YGXPAUEVENT@@@Z@4JA
  003b8	83 c2 33	 add	 edx, 51			; 00000033H
  003bb	52		 push	 edx
  003bc	68 00 00 00 00	 push	 OFFSET ??_C@_0DO@EFGBNKOF@c?3?2users?2nhv90?2projects?2eech?2ap@
  003c1	a1 00 00 00 00	 mov	 eax, DWORD PTR ?overload_invalid_string_type_message@@3PBDB ; overload_invalid_string_type_message
  003c6	50		 push	 eax
  003c7	e8 00 00 00 00	 call	 ?process_assert@@YGXPBD0H@Z ; process_assert
  003cc	c7 45 a0 00 00
	00 00		 mov	 DWORD PTR tv243[ebp], 0
$LN43@create_dum:
  003d3	6a 03		 push	 3
  003d5	8b 4d f0	 mov	 ecx, DWORD PTR _group$[ebp]
  003d8	51		 push	 ecx
  003d9	6b 55 a4 34	 imul	 edx, DWORD PTR tv235[ebp], 52
  003dd	8b 45 a0	 mov	 eax, DWORD PTR tv243[ebp]
  003e0	8b 8c 82 00 00
	00 00		 mov	 ecx, DWORD PTR ?fn_get_local_entity_string@@3PAY0N@P6GPBDPAUENTITY@@W4STRING_TYPES@@@ZA[edx+eax*4]
  003e7	ff d1		 call	 ecx
  003e9	50		 push	 eax
  003ea	68 00 00 00 00	 push	 OFFSET ??_C@_0DL@JPFIMCFI@EV_DEBUG?3?5created?5task?5but?5coul@
  003ef	e8 00 00 00 00	 call	 ?debug_log@@YAXPBDZZ	; debug_log
  003f4	83 c4 08	 add	 esp, 8

; 1642 : 
; 1643 : 		return;

  003f7	e9 49 03 00 00	 jmp	 $LN1@create_dum
$LN14@create_dum:

; 1644 : 	}
; 1645 : 
; 1646 : 	//
; 1647 : 	// see if group members have been put into the takeoff queue, and if so make them push in at the front (i.e. end of the list)
; 1648 : 	//
; 1649 : 
; 1650 : 	en = get_local_entity_first_child (group, LIST_TYPE_MEMBER);

  003fc	83 7d f0 00	 cmp	 DWORD PTR _group$[ebp], 0
  00400	74 0a		 je	 SHORT $LN44@create_dum
  00402	8b 45 f0	 mov	 eax, DWORD PTR _group$[ebp]
  00405	8b 08		 mov	 ecx, DWORD PTR [eax]
  00407	89 4d a4	 mov	 DWORD PTR tv257[ebp], ecx
  0040a	eb 21		 jmp	 SHORT $LN45@create_dum
$LN44@create_dum:
  0040c	8b 15 00 00 00
	00		 mov	 edx, DWORD PTR ?__LINE__Var@?0??create_dummy_task_event@@YGXPAUEVENT@@@Z@4JA
  00412	83 c2 3c	 add	 edx, 60			; 0000003cH
  00415	52		 push	 edx
  00416	68 00 00 00 00	 push	 OFFSET ??_C@_0DO@EFGBNKOF@c?3?2users?2nhv90?2projects?2eech?2ap@
  0041b	a1 00 00 00 00	 mov	 eax, DWORD PTR ?null_entity_pointer_message@@3PBDB ; null_entity_pointer_message
  00420	50		 push	 eax
  00421	e8 00 00 00 00	 call	 ?process_assert@@YGXPBD0H@Z ; process_assert
  00426	c7 45 a4 00 00
	00 00		 mov	 DWORD PTR tv257[ebp], 0
$LN45@create_dum:
  0042d	b9 01 00 00 00	 mov	 ecx, 1
  00432	85 c9		 test	 ecx, ecx
  00434	74 09		 je	 SHORT $LN46@create_dum
  00436	c7 45 a0 19 00
	00 00		 mov	 DWORD PTR tv265[ebp], 25 ; 00000019H
  0043d	eb 21		 jmp	 SHORT $LN47@create_dum
$LN46@create_dum:
  0043f	8b 15 00 00 00
	00		 mov	 edx, DWORD PTR ?__LINE__Var@?0??create_dummy_task_event@@YGXPAUEVENT@@@Z@4JA
  00445	83 c2 3c	 add	 edx, 60			; 0000003cH
  00448	52		 push	 edx
  00449	68 00 00 00 00	 push	 OFFSET ??_C@_0DO@EFGBNKOF@c?3?2users?2nhv90?2projects?2eech?2ap@
  0044e	a1 00 00 00 00	 mov	 eax, DWORD PTR ?overload_invalid_list_type_message@@3PBDB ; overload_invalid_list_type_message
  00453	50		 push	 eax
  00454	e8 00 00 00 00	 call	 ?process_assert@@YGXPBD0H@Z ; process_assert
  00459	c7 45 a0 00 00
	00 00		 mov	 DWORD PTR tv265[ebp], 0
$LN47@create_dum:
  00460	6a 19		 push	 25			; 00000019H
  00462	8b 4d f0	 mov	 ecx, DWORD PTR _group$[ebp]
  00465	51		 push	 ecx
  00466	69 55 a4 b4 00
	00 00		 imul	 edx, DWORD PTR tv257[ebp], 180
  0046d	8b 45 a0	 mov	 eax, DWORD PTR tv265[ebp]
  00470	8b 8c 82 00 00
	00 00		 mov	 ecx, DWORD PTR ?fn_get_local_entity_first_child@@3PAY0CN@P6GPAUENTITY@@PAU1@W4LIST_TYPES@@@ZA[edx+eax*4]
  00477	ff d1		 call	 ecx
  00479	89 45 fc	 mov	 DWORD PTR _en$[ebp], eax
$LN2@create_dum:

; 1651 : 
; 1652 : 	while (en)

  0047c	83 7d fc 00	 cmp	 DWORD PTR _en$[ebp], 0
  00480	0f 84 bf 02 00
	00		 je	 $LN3@create_dum

; 1653 : 	{
; 1654 : 		landing = get_local_entity_parent (en, LIST_TYPE_TAKEOFF_QUEUE);

  00486	83 7d fc 00	 cmp	 DWORD PTR _en$[ebp], 0
  0048a	74 0a		 je	 SHORT $LN48@create_dum
  0048c	8b 45 fc	 mov	 eax, DWORD PTR _en$[ebp]
  0048f	8b 08		 mov	 ecx, DWORD PTR [eax]
  00491	89 4d a4	 mov	 DWORD PTR tv278[ebp], ecx
  00494	eb 21		 jmp	 SHORT $LN49@create_dum
$LN48@create_dum:
  00496	8b 15 00 00 00
	00		 mov	 edx, DWORD PTR ?__LINE__Var@?0??create_dummy_task_event@@YGXPAUEVENT@@@Z@4JA
  0049c	83 c2 40	 add	 edx, 64			; 00000040H
  0049f	52		 push	 edx
  004a0	68 00 00 00 00	 push	 OFFSET ??_C@_0DO@EFGBNKOF@c?3?2users?2nhv90?2projects?2eech?2ap@
  004a5	a1 00 00 00 00	 mov	 eax, DWORD PTR ?null_entity_pointer_message@@3PBDB ; null_entity_pointer_message
  004aa	50		 push	 eax
  004ab	e8 00 00 00 00	 call	 ?process_assert@@YGXPBD0H@Z ; process_assert
  004b0	c7 45 a4 00 00
	00 00		 mov	 DWORD PTR tv278[ebp], 0
$LN49@create_dum:
  004b7	b9 01 00 00 00	 mov	 ecx, 1
  004bc	85 c9		 test	 ecx, ecx
  004be	74 09		 je	 SHORT $LN50@create_dum
  004c0	c7 45 a0 25 00
	00 00		 mov	 DWORD PTR tv286[ebp], 37 ; 00000025H
  004c7	eb 21		 jmp	 SHORT $LN51@create_dum
$LN50@create_dum:
  004c9	8b 15 00 00 00
	00		 mov	 edx, DWORD PTR ?__LINE__Var@?0??create_dummy_task_event@@YGXPAUEVENT@@@Z@4JA
  004cf	83 c2 40	 add	 edx, 64			; 00000040H
  004d2	52		 push	 edx
  004d3	68 00 00 00 00	 push	 OFFSET ??_C@_0DO@EFGBNKOF@c?3?2users?2nhv90?2projects?2eech?2ap@
  004d8	a1 00 00 00 00	 mov	 eax, DWORD PTR ?overload_invalid_list_type_message@@3PBDB ; overload_invalid_list_type_message
  004dd	50		 push	 eax
  004de	e8 00 00 00 00	 call	 ?process_assert@@YGXPBD0H@Z ; process_assert
  004e3	c7 45 a0 00 00
	00 00		 mov	 DWORD PTR tv286[ebp], 0
$LN51@create_dum:
  004ea	6a 25		 push	 37			; 00000025H
  004ec	8b 4d fc	 mov	 ecx, DWORD PTR _en$[ebp]
  004ef	51		 push	 ecx
  004f0	69 55 a4 b4 00
	00 00		 imul	 edx, DWORD PTR tv278[ebp], 180
  004f7	8b 45 a0	 mov	 eax, DWORD PTR tv286[ebp]
  004fa	8b 8c 82 00 00
	00 00		 mov	 ecx, DWORD PTR ?fn_get_local_entity_parent@@3PAY0CN@P6GPAUENTITY@@PAU1@W4LIST_TYPES@@@ZA[edx+eax*4]
  00501	ff d1		 call	 ecx
  00503	89 45 e8	 mov	 DWORD PTR _landing$[ebp], eax

; 1655 : 
; 1656 : 		if (landing)

  00506	83 7d e8 00	 cmp	 DWORD PTR _landing$[ebp], 0
  0050a	0f 84 b0 01 00
	00		 je	 $LN16@create_dum

; 1657 : 		{
; 1658 : 			//
; 1659 : 			// find last entity in the queue (i.e. the first to takeoff)
; 1660 : 			//
; 1661 : 
; 1662 : 			last = get_local_entity_first_child (landing, LIST_TYPE_TAKEOFF_QUEUE);

  00510	83 7d e8 00	 cmp	 DWORD PTR _landing$[ebp], 0
  00514	74 0a		 je	 SHORT $LN52@create_dum
  00516	8b 45 e8	 mov	 eax, DWORD PTR _landing$[ebp]
  00519	8b 08		 mov	 ecx, DWORD PTR [eax]
  0051b	89 4d a4	 mov	 DWORD PTR tv299[ebp], ecx
  0051e	eb 21		 jmp	 SHORT $LN53@create_dum
$LN52@create_dum:
  00520	8b 15 00 00 00
	00		 mov	 edx, DWORD PTR ?__LINE__Var@?0??create_dummy_task_event@@YGXPAUEVENT@@@Z@4JA
  00526	83 c2 48	 add	 edx, 72			; 00000048H
  00529	52		 push	 edx
  0052a	68 00 00 00 00	 push	 OFFSET ??_C@_0DO@EFGBNKOF@c?3?2users?2nhv90?2projects?2eech?2ap@
  0052f	a1 00 00 00 00	 mov	 eax, DWORD PTR ?null_entity_pointer_message@@3PBDB ; null_entity_pointer_message
  00534	50		 push	 eax
  00535	e8 00 00 00 00	 call	 ?process_assert@@YGXPBD0H@Z ; process_assert
  0053a	c7 45 a4 00 00
	00 00		 mov	 DWORD PTR tv299[ebp], 0
$LN53@create_dum:
  00541	b9 01 00 00 00	 mov	 ecx, 1
  00546	85 c9		 test	 ecx, ecx
  00548	74 09		 je	 SHORT $LN54@create_dum
  0054a	c7 45 a0 25 00
	00 00		 mov	 DWORD PTR tv307[ebp], 37 ; 00000025H
  00551	eb 21		 jmp	 SHORT $LN55@create_dum
$LN54@create_dum:
  00553	8b 15 00 00 00
	00		 mov	 edx, DWORD PTR ?__LINE__Var@?0??create_dummy_task_event@@YGXPAUEVENT@@@Z@4JA
  00559	83 c2 48	 add	 edx, 72			; 00000048H
  0055c	52		 push	 edx
  0055d	68 00 00 00 00	 push	 OFFSET ??_C@_0DO@EFGBNKOF@c?3?2users?2nhv90?2projects?2eech?2ap@
  00562	a1 00 00 00 00	 mov	 eax, DWORD PTR ?overload_invalid_list_type_message@@3PBDB ; overload_invalid_list_type_message
  00567	50		 push	 eax
  00568	e8 00 00 00 00	 call	 ?process_assert@@YGXPBD0H@Z ; process_assert
  0056d	c7 45 a0 00 00
	00 00		 mov	 DWORD PTR tv307[ebp], 0
$LN55@create_dum:
  00574	6a 25		 push	 37			; 00000025H
  00576	8b 4d e8	 mov	 ecx, DWORD PTR _landing$[ebp]
  00579	51		 push	 ecx
  0057a	69 55 a4 b4 00
	00 00		 imul	 edx, DWORD PTR tv299[ebp], 180
  00581	8b 45 a0	 mov	 eax, DWORD PTR tv307[ebp]
  00584	8b 8c 82 00 00
	00 00		 mov	 ecx, DWORD PTR ?fn_get_local_entity_first_child@@3PAY0CN@P6GPAUENTITY@@PAU1@W4LIST_TYPES@@@ZA[edx+eax*4]
  0058b	ff d1		 call	 ecx
  0058d	89 45 f4	 mov	 DWORD PTR _last$[ebp], eax
$LN4@create_dum:

; 1663 : 
; 1664 : 			while (get_local_entity_child_succ (last, LIST_TYPE_TAKEOFF_QUEUE))

  00590	83 7d f4 00	 cmp	 DWORD PTR _last$[ebp], 0
  00594	74 0a		 je	 SHORT $LN56@create_dum
  00596	8b 45 f4	 mov	 eax, DWORD PTR _last$[ebp]
  00599	8b 08		 mov	 ecx, DWORD PTR [eax]
  0059b	89 4d a4	 mov	 DWORD PTR tv319[ebp], ecx
  0059e	eb 21		 jmp	 SHORT $LN57@create_dum
$LN56@create_dum:
  005a0	8b 15 00 00 00
	00		 mov	 edx, DWORD PTR ?__LINE__Var@?0??create_dummy_task_event@@YGXPAUEVENT@@@Z@4JA
  005a6	83 c2 4a	 add	 edx, 74			; 0000004aH
  005a9	52		 push	 edx
  005aa	68 00 00 00 00	 push	 OFFSET ??_C@_0DO@EFGBNKOF@c?3?2users?2nhv90?2projects?2eech?2ap@
  005af	a1 00 00 00 00	 mov	 eax, DWORD PTR ?null_entity_pointer_message@@3PBDB ; null_entity_pointer_message
  005b4	50		 push	 eax
  005b5	e8 00 00 00 00	 call	 ?process_assert@@YGXPBD0H@Z ; process_assert
  005ba	c7 45 a4 00 00
	00 00		 mov	 DWORD PTR tv319[ebp], 0
$LN57@create_dum:
  005c1	b9 01 00 00 00	 mov	 ecx, 1
  005c6	85 c9		 test	 ecx, ecx
  005c8	74 09		 je	 SHORT $LN58@create_dum
  005ca	c7 45 a0 25 00
	00 00		 mov	 DWORD PTR tv327[ebp], 37 ; 00000025H
  005d1	eb 21		 jmp	 SHORT $LN59@create_dum
$LN58@create_dum:
  005d3	8b 15 00 00 00
	00		 mov	 edx, DWORD PTR ?__LINE__Var@?0??create_dummy_task_event@@YGXPAUEVENT@@@Z@4JA
  005d9	83 c2 4a	 add	 edx, 74			; 0000004aH
  005dc	52		 push	 edx
  005dd	68 00 00 00 00	 push	 OFFSET ??_C@_0DO@EFGBNKOF@c?3?2users?2nhv90?2projects?2eech?2ap@
  005e2	a1 00 00 00 00	 mov	 eax, DWORD PTR ?overload_invalid_list_type_message@@3PBDB ; overload_invalid_list_type_message
  005e7	50		 push	 eax
  005e8	e8 00 00 00 00	 call	 ?process_assert@@YGXPBD0H@Z ; process_assert
  005ed	c7 45 a0 00 00
	00 00		 mov	 DWORD PTR tv327[ebp], 0
$LN59@create_dum:
  005f4	6a 25		 push	 37			; 00000025H
  005f6	8b 4d f4	 mov	 ecx, DWORD PTR _last$[ebp]
  005f9	51		 push	 ecx
  005fa	69 55 a4 b4 00
	00 00		 imul	 edx, DWORD PTR tv319[ebp], 180
  00601	8b 45 a0	 mov	 eax, DWORD PTR tv327[ebp]
  00604	8b 8c 82 00 00
	00 00		 mov	 ecx, DWORD PTR ?fn_get_local_entity_child_succ@@3PAY0CN@P6GPAUENTITY@@PAU1@W4LIST_TYPES@@@ZA[edx+eax*4]
  0060b	ff d1		 call	 ecx
  0060d	85 c0		 test	 eax, eax
  0060f	0f 84 85 00 00
	00		 je	 $LN5@create_dum

; 1665 : 			{
; 1666 : 				last = get_local_entity_child_succ (last, LIST_TYPE_TAKEOFF_QUEUE);

  00615	83 7d f4 00	 cmp	 DWORD PTR _last$[ebp], 0
  00619	74 0a		 je	 SHORT $LN60@create_dum
  0061b	8b 45 f4	 mov	 eax, DWORD PTR _last$[ebp]
  0061e	8b 08		 mov	 ecx, DWORD PTR [eax]
  00620	89 4d a4	 mov	 DWORD PTR tv340[ebp], ecx
  00623	eb 21		 jmp	 SHORT $LN61@create_dum
$LN60@create_dum:
  00625	8b 15 00 00 00
	00		 mov	 edx, DWORD PTR ?__LINE__Var@?0??create_dummy_task_event@@YGXPAUEVENT@@@Z@4JA
  0062b	83 c2 4c	 add	 edx, 76			; 0000004cH
  0062e	52		 push	 edx
  0062f	68 00 00 00 00	 push	 OFFSET ??_C@_0DO@EFGBNKOF@c?3?2users?2nhv90?2projects?2eech?2ap@
  00634	a1 00 00 00 00	 mov	 eax, DWORD PTR ?null_entity_pointer_message@@3PBDB ; null_entity_pointer_message
  00639	50		 push	 eax
  0063a	e8 00 00 00 00	 call	 ?process_assert@@YGXPBD0H@Z ; process_assert
  0063f	c7 45 a4 00 00
	00 00		 mov	 DWORD PTR tv340[ebp], 0
$LN61@create_dum:
  00646	b9 01 00 00 00	 mov	 ecx, 1
  0064b	85 c9		 test	 ecx, ecx
  0064d	74 09		 je	 SHORT $LN62@create_dum
  0064f	c7 45 a0 25 00
	00 00		 mov	 DWORD PTR tv348[ebp], 37 ; 00000025H
  00656	eb 21		 jmp	 SHORT $LN63@create_dum
$LN62@create_dum:
  00658	8b 15 00 00 00
	00		 mov	 edx, DWORD PTR ?__LINE__Var@?0??create_dummy_task_event@@YGXPAUEVENT@@@Z@4JA
  0065e	83 c2 4c	 add	 edx, 76			; 0000004cH
  00661	52		 push	 edx
  00662	68 00 00 00 00	 push	 OFFSET ??_C@_0DO@EFGBNKOF@c?3?2users?2nhv90?2projects?2eech?2ap@
  00667	a1 00 00 00 00	 mov	 eax, DWORD PTR ?overload_invalid_list_type_message@@3PBDB ; overload_invalid_list_type_message
  0066c	50		 push	 eax
  0066d	e8 00 00 00 00	 call	 ?process_assert@@YGXPBD0H@Z ; process_assert
  00672	c7 45 a0 00 00
	00 00		 mov	 DWORD PTR tv348[ebp], 0
$LN63@create_dum:
  00679	6a 25		 push	 37			; 00000025H
  0067b	8b 4d f4	 mov	 ecx, DWORD PTR _last$[ebp]
  0067e	51		 push	 ecx
  0067f	69 55 a4 b4 00
	00 00		 imul	 edx, DWORD PTR tv340[ebp], 180
  00686	8b 45 a0	 mov	 eax, DWORD PTR tv348[ebp]
  00689	8b 8c 82 00 00
	00 00		 mov	 ecx, DWORD PTR ?fn_get_local_entity_child_succ@@3PAY0CN@P6GPAUENTITY@@PAU1@W4LIST_TYPES@@@ZA[edx+eax*4]
  00690	ff d1		 call	 ecx
  00692	89 45 f4	 mov	 DWORD PTR _last$[ebp], eax

; 1667 : 			}

  00695	e9 f6 fe ff ff	 jmp	 $LN4@create_dum
$LN5@create_dum:

; 1668 : 
; 1669 : 			if (en != last)

  0069a	8b 45 fc	 mov	 eax, DWORD PTR _en$[ebp]
  0069d	3b 45 f4	 cmp	 eax, DWORD PTR _last$[ebp]
  006a0	74 1e		 je	 SHORT $LN16@create_dum

; 1670 : 			{
; 1671 : 				delete_local_entity_from_parents_child_list (en, LIST_TYPE_TAKEOFF_QUEUE);

  006a2	6a 25		 push	 37			; 00000025H
  006a4	8b 45 fc	 mov	 eax, DWORD PTR _en$[ebp]
  006a7	50		 push	 eax
  006a8	e8 00 00 00 00	 call	 ?delete_local_entity_from_parents_child_list@@YGXPAUENTITY@@W4LIST_TYPES@@@Z ; delete_local_entity_from_parents_child_list

; 1672 : 
; 1673 : 				insert_local_entity_into_parents_child_list (en, LIST_TYPE_TAKEOFF_QUEUE, landing, last);

  006ad	8b 45 f4	 mov	 eax, DWORD PTR _last$[ebp]
  006b0	50		 push	 eax
  006b1	8b 4d e8	 mov	 ecx, DWORD PTR _landing$[ebp]
  006b4	51		 push	 ecx
  006b5	6a 25		 push	 37			; 00000025H
  006b7	8b 55 fc	 mov	 edx, DWORD PTR _en$[ebp]
  006ba	52		 push	 edx
  006bb	e8 00 00 00 00	 call	 ?insert_local_entity_into_parents_child_list@@YGXPAUENTITY@@W4LIST_TYPES@@00@Z ; insert_local_entity_into_parents_child_list
$LN16@create_dum:

; 1674 : 			}
; 1675 : 		}
; 1676 : 
; 1677 : 		en = get_local_entity_child_succ (en, LIST_TYPE_MEMBER);

  006c0	83 7d fc 00	 cmp	 DWORD PTR _en$[ebp], 0
  006c4	74 0a		 je	 SHORT $LN64@create_dum
  006c6	8b 45 fc	 mov	 eax, DWORD PTR _en$[ebp]
  006c9	8b 08		 mov	 ecx, DWORD PTR [eax]
  006cb	89 4d a4	 mov	 DWORD PTR tv367[ebp], ecx
  006ce	eb 21		 jmp	 SHORT $LN65@create_dum
$LN64@create_dum:
  006d0	8b 15 00 00 00
	00		 mov	 edx, DWORD PTR ?__LINE__Var@?0??create_dummy_task_event@@YGXPAUEVENT@@@Z@4JA
  006d6	83 c2 57	 add	 edx, 87			; 00000057H
  006d9	52		 push	 edx
  006da	68 00 00 00 00	 push	 OFFSET ??_C@_0DO@EFGBNKOF@c?3?2users?2nhv90?2projects?2eech?2ap@
  006df	a1 00 00 00 00	 mov	 eax, DWORD PTR ?null_entity_pointer_message@@3PBDB ; null_entity_pointer_message
  006e4	50		 push	 eax
  006e5	e8 00 00 00 00	 call	 ?process_assert@@YGXPBD0H@Z ; process_assert
  006ea	c7 45 a4 00 00
	00 00		 mov	 DWORD PTR tv367[ebp], 0
$LN65@create_dum:
  006f1	b9 01 00 00 00	 mov	 ecx, 1
  006f6	85 c9		 test	 ecx, ecx
  006f8	74 09		 je	 SHORT $LN66@create_dum
  006fa	c7 45 a0 19 00
	00 00		 mov	 DWORD PTR tv375[ebp], 25 ; 00000019H
  00701	eb 21		 jmp	 SHORT $LN67@create_dum
$LN66@create_dum:
  00703	8b 15 00 00 00
	00		 mov	 edx, DWORD PTR ?__LINE__Var@?0??create_dummy_task_event@@YGXPAUEVENT@@@Z@4JA
  00709	83 c2 57	 add	 edx, 87			; 00000057H
  0070c	52		 push	 edx
  0070d	68 00 00 00 00	 push	 OFFSET ??_C@_0DO@EFGBNKOF@c?3?2users?2nhv90?2projects?2eech?2ap@
  00712	a1 00 00 00 00	 mov	 eax, DWORD PTR ?overload_invalid_list_type_message@@3PBDB ; overload_invalid_list_type_message
  00717	50		 push	 eax
  00718	e8 00 00 00 00	 call	 ?process_assert@@YGXPBD0H@Z ; process_assert
  0071d	c7 45 a0 00 00
	00 00		 mov	 DWORD PTR tv375[ebp], 0
$LN67@create_dum:
  00724	6a 19		 push	 25			; 00000019H
  00726	8b 4d fc	 mov	 ecx, DWORD PTR _en$[ebp]
  00729	51		 push	 ecx
  0072a	69 55 a4 b4 00
	00 00		 imul	 edx, DWORD PTR tv367[ebp], 180
  00731	8b 45 a0	 mov	 eax, DWORD PTR tv375[ebp]
  00734	8b 8c 82 00 00
	00 00		 mov	 ecx, DWORD PTR ?fn_get_local_entity_child_succ@@3PAY0CN@P6GPAUENTITY@@PAU1@W4LIST_TYPES@@@ZA[edx+eax*4]
  0073b	ff d1		 call	 ecx
  0073d	89 45 fc	 mov	 DWORD PTR _en$[ebp], eax

; 1678 : 	}

  00740	e9 37 fd ff ff	 jmp	 $LN2@create_dum
$LN3@create_dum:
$LN1@create_dum:

; 1679 : }

  00745	5f		 pop	 edi
  00746	5e		 pop	 esi
  00747	5b		 pop	 ebx
  00748	8b e5		 mov	 esp, ebp
  0074a	5d		 pop	 ebp
  0074b	c2 04 00	 ret	 4
?create_dummy_task_event@@YGXPAUEVENT@@@Z ENDP		; create_dummy_task_event
_TEXT	ENDS
; Function compile flags: /Odtp /ZI
; File c:\users\nhv90\projects\eech\aphavoc\source\events\ev_debug.c
;	COMDAT ?assess_external_view_entity_weapon_effectiveness_event@@YGXPAUEVENT@@@Z
_TEXT	SEGMENT
_en$ = -4						; size = 4
_ev$ = 8						; size = 4
?assess_external_view_entity_weapon_effectiveness_event@@YGXPAUEVENT@@@Z PROC ; assess_external_view_entity_weapon_effectiveness_event, COMDAT

; 1573 : {

  00000	55		 push	 ebp
  00001	8b ec		 mov	 ebp, esp
  00003	83 ec 44	 sub	 esp, 68			; 00000044H
  00006	53		 push	 ebx
  00007	56		 push	 esi
  00008	57		 push	 edi

; 1574 : 	entity
; 1575 : 		*en;
; 1576 : 
; 1577 : 	en = get_external_view_entity ();

  00009	e8 00 00 00 00	 call	 ?get_external_view_entity@@YGPAUENTITY@@XZ ; get_external_view_entity
  0000e	89 45 fc	 mov	 DWORD PTR _en$[ebp], eax

; 1578 : 
; 1579 : 	if (en)

  00011	83 7d fc 00	 cmp	 DWORD PTR _en$[ebp], 0
  00015	74 09		 je	 SHORT $LN1@assess_ext

; 1580 : 	{
; 1581 : 		assess_effectiveness_of_all_weapons_on_entity (en);

  00017	8b 45 fc	 mov	 eax, DWORD PTR _en$[ebp]
  0001a	50		 push	 eax
  0001b	e8 00 00 00 00	 call	 ?assess_effectiveness_of_all_weapons_on_entity@@YGXPAUENTITY@@@Z ; assess_effectiveness_of_all_weapons_on_entity
$LN1@assess_ext:

; 1582 : 	}
; 1583 : }

  00020	5f		 pop	 edi
  00021	5e		 pop	 esi
  00022	5b		 pop	 ebx
  00023	8b e5		 mov	 esp, ebp
  00025	5d		 pop	 ebp
  00026	c2 04 00	 ret	 4
?assess_external_view_entity_weapon_effectiveness_event@@YGXPAUEVENT@@@Z ENDP ; assess_external_view_entity_weapon_effectiveness_event
_TEXT	ENDS
; Function compile flags: /Odtp /ZI
; File c:\users\nhv90\projects\eech\aphavoc\source\events\ev_debug.c
;	COMDAT ?restore_external_view_entity_main_rotors_event@@YGXPAUEVENT@@@Z
_TEXT	SEGMENT
tv178 = -84						; size = 4
tv170 = -80						; size = 4
tv157 = -76						; size = 4
tv134 = -76						; size = 4
tv79 = -76						; size = 4
tv149 = -72						; size = 4
tv94 = -72						; size = 4
tv72 = -72						; size = 4
_en$ = -4						; size = 4
_ev$ = 8						; size = 4
?restore_external_view_entity_main_rotors_event@@YGXPAUEVENT@@@Z PROC ; restore_external_view_entity_main_rotors_event, COMDAT

; 1549 : {

  00000	55		 push	 ebp
  00001	8b ec		 mov	 ebp, esp
  00003	83 ec 54	 sub	 esp, 84			; 00000054H
  00006	53		 push	 ebx
  00007	56		 push	 esi
  00008	57		 push	 edi

; 1550 : 	entity
; 1551 : 		*en;
; 1552 : 
; 1553 : 	if (get_comms_model () == COMMS_MODEL_SERVER)

  00009	83 3d 00 00 00
	00 00		 cmp	 DWORD PTR ?system_comms_model@@3W4COMMS_MODEL_TYPES@@A, 0 ; system_comms_model
  00010	0f 85 34 02 00
	00		 jne	 $LN1@restore_ex

; 1554 : 	{
; 1555 : 		en = get_external_view_entity ();

  00016	e8 00 00 00 00	 call	 ?get_external_view_entity@@YGPAUENTITY@@XZ ; get_external_view_entity
  0001b	89 45 fc	 mov	 DWORD PTR _en$[ebp], eax

; 1556 : 
; 1557 : 		if ((en) && (get_local_entity_int_value (en, INT_TYPE_ALIVE)))

  0001e	83 7d fc 00	 cmp	 DWORD PTR _en$[ebp], 0
  00022	0f 84 22 02 00
	00		 je	 $LN1@restore_ex
  00028	83 7d fc 00	 cmp	 DWORD PTR _en$[ebp], 0
  0002c	74 0a		 je	 SHORT $LN5@restore_ex
  0002e	8b 45 fc	 mov	 eax, DWORD PTR _en$[ebp]
  00031	8b 08		 mov	 ecx, DWORD PTR [eax]
  00033	89 4d b8	 mov	 DWORD PTR tv72[ebp], ecx
  00036	eb 1d		 jmp	 SHORT $LN6@restore_ex
$LN5@restore_ex:
  00038	68 15 06 00 00	 push	 1557			; 00000615H
  0003d	68 00 00 00 00	 push	 OFFSET ??_C@_0DO@EFGBNKOF@c?3?2users?2nhv90?2projects?2eech?2ap@
  00042	8b 15 00 00 00
	00		 mov	 edx, DWORD PTR ?null_entity_pointer_message@@3PBDB ; null_entity_pointer_message
  00048	52		 push	 edx
  00049	e8 00 00 00 00	 call	 ?process_assert@@YGXPBD0H@Z ; process_assert
  0004e	c7 45 b8 00 00
	00 00		 mov	 DWORD PTR tv72[ebp], 0
$LN6@restore_ex:
  00055	b8 01 00 00 00	 mov	 eax, 1
  0005a	85 c0		 test	 eax, eax
  0005c	74 09		 je	 SHORT $LN7@restore_ex
  0005e	c7 45 b4 07 00
	00 00		 mov	 DWORD PTR tv79[ebp], 7
  00065	eb 1d		 jmp	 SHORT $LN8@restore_ex
$LN7@restore_ex:
  00067	68 15 06 00 00	 push	 1557			; 00000615H
  0006c	68 00 00 00 00	 push	 OFFSET ??_C@_0DO@EFGBNKOF@c?3?2users?2nhv90?2projects?2eech?2ap@
  00071	8b 0d 00 00 00
	00		 mov	 ecx, DWORD PTR ?overload_invalid_int_type_message@@3PBDB ; overload_invalid_int_type_message
  00077	51		 push	 ecx
  00078	e8 00 00 00 00	 call	 ?process_assert@@YGXPBD0H@Z ; process_assert
  0007d	c7 45 b4 00 00
	00 00		 mov	 DWORD PTR tv79[ebp], 0
$LN8@restore_ex:
  00084	6a 07		 push	 7
  00086	8b 55 fc	 mov	 edx, DWORD PTR _en$[ebp]
  00089	52		 push	 edx
  0008a	69 45 b8 5c 04
	00 00		 imul	 eax, DWORD PTR tv72[ebp], 1116
  00091	8b 4d b4	 mov	 ecx, DWORD PTR tv79[ebp]
  00094	8b 94 88 00 00
	00 00		 mov	 edx, DWORD PTR ?fn_get_local_entity_int_value@@3PAY0BBH@P6GHPAUENTITY@@W4INT_TYPES@@@ZA[eax+ecx*4]
  0009b	ff d2		 call	 edx
  0009d	85 c0		 test	 eax, eax
  0009f	0f 84 a5 01 00
	00		 je	 $LN1@restore_ex

; 1558 : 		{
; 1559 : 			debug_colour_log (DEBUG_COLOUR_RED, "Restore external view entity main rotors");

  000a5	68 00 00 00 00	 push	 OFFSET ??_C@_0CJ@KOJPICJN@Restore?5external?5view?5entity?5ma@
  000aa	6a 04		 push	 4
  000ac	e8 00 00 00 00	 call	 ?debug_colour_log@@YAXW4DEBUG_COLOURS@@PBDZZ ; debug_colour_log
  000b1	83 c4 08	 add	 esp, 8

; 1560 : 
; 1561 : 			restore_helicopter_entity (en, NULL, (operational_state_types) get_local_entity_int_value (en, INT_TYPE_OPERATIONAL_STATE));

  000b4	83 7d fc 00	 cmp	 DWORD PTR _en$[ebp], 0
  000b8	74 0a		 je	 SHORT $LN9@restore_ex
  000ba	8b 45 fc	 mov	 eax, DWORD PTR _en$[ebp]
  000bd	8b 08		 mov	 ecx, DWORD PTR [eax]
  000bf	89 4d b8	 mov	 DWORD PTR tv94[ebp], ecx
  000c2	eb 21		 jmp	 SHORT $LN10@restore_ex
$LN9@restore_ex:
  000c4	8b 15 00 00 00
	00		 mov	 edx, DWORD PTR ?__LINE__Var@?0??restore_external_view_entity_main_rotors_event@@YGXPAUEVENT@@@Z@4JA
  000ca	83 c2 0c	 add	 edx, 12			; 0000000cH
  000cd	52		 push	 edx
  000ce	68 00 00 00 00	 push	 OFFSET ??_C@_0DO@EFGBNKOF@c?3?2users?2nhv90?2projects?2eech?2ap@
  000d3	a1 00 00 00 00	 mov	 eax, DWORD PTR ?null_entity_pointer_message@@3PBDB ; null_entity_pointer_message
  000d8	50		 push	 eax
  000d9	e8 00 00 00 00	 call	 ?process_assert@@YGXPBD0H@Z ; process_assert
  000de	c7 45 b8 00 00
	00 00		 mov	 DWORD PTR tv94[ebp], 0
$LN10@restore_ex:
  000e5	b9 01 00 00 00	 mov	 ecx, 1
  000ea	85 c9		 test	 ecx, ecx
  000ec	74 09		 je	 SHORT $LN11@restore_ex
  000ee	c7 45 b4 97 00
	00 00		 mov	 DWORD PTR tv134[ebp], 151 ; 00000097H
  000f5	eb 21		 jmp	 SHORT $LN12@restore_ex
$LN11@restore_ex:
  000f7	8b 15 00 00 00
	00		 mov	 edx, DWORD PTR ?__LINE__Var@?0??restore_external_view_entity_main_rotors_event@@YGXPAUEVENT@@@Z@4JA
  000fd	83 c2 0c	 add	 edx, 12			; 0000000cH
  00100	52		 push	 edx
  00101	68 00 00 00 00	 push	 OFFSET ??_C@_0DO@EFGBNKOF@c?3?2users?2nhv90?2projects?2eech?2ap@
  00106	a1 00 00 00 00	 mov	 eax, DWORD PTR ?overload_invalid_int_type_message@@3PBDB ; overload_invalid_int_type_message
  0010b	50		 push	 eax
  0010c	e8 00 00 00 00	 call	 ?process_assert@@YGXPBD0H@Z ; process_assert
  00111	c7 45 b4 00 00
	00 00		 mov	 DWORD PTR tv134[ebp], 0
$LN12@restore_ex:
  00118	68 97 00 00 00	 push	 151			; 00000097H
  0011d	8b 4d fc	 mov	 ecx, DWORD PTR _en$[ebp]
  00120	51		 push	 ecx
  00121	69 55 b8 5c 04
	00 00		 imul	 edx, DWORD PTR tv94[ebp], 1116
  00128	8b 45 b4	 mov	 eax, DWORD PTR tv134[ebp]
  0012b	8b 8c 82 00 00
	00 00		 mov	 ecx, DWORD PTR ?fn_get_local_entity_int_value@@3PAY0BBH@P6GHPAUENTITY@@W4INT_TYPES@@@ZA[edx+eax*4]
  00132	ff d1		 call	 ecx
  00134	50		 push	 eax
  00135	6a 00		 push	 0
  00137	8b 55 fc	 mov	 edx, DWORD PTR _en$[ebp]
  0013a	52		 push	 edx
  0013b	e8 00 00 00 00	 call	 ?restore_helicopter_entity@@YGXPAUENTITY@@PAUVEC3D@@W4OPERATIONAL_STATE_TYPES@@@Z ; restore_helicopter_entity

; 1562 : 
; 1563 : 			transmit_entity_comms_message (ENTITY_COMMS_RESTORE_ENTITY, en, get_local_entity_vec3d_ptr (en, VEC3D_TYPE_POSITION), get_local_entity_int_value (en, INT_TYPE_OPERATIONAL_STATE));

  00140	83 7d fc 00	 cmp	 DWORD PTR _en$[ebp], 0
  00144	74 0a		 je	 SHORT $LN13@restore_ex
  00146	8b 45 fc	 mov	 eax, DWORD PTR _en$[ebp]
  00149	8b 08		 mov	 ecx, DWORD PTR [eax]
  0014b	89 4d b8	 mov	 DWORD PTR tv149[ebp], ecx
  0014e	eb 21		 jmp	 SHORT $LN14@restore_ex
$LN13@restore_ex:
  00150	8b 15 00 00 00
	00		 mov	 edx, DWORD PTR ?__LINE__Var@?0??restore_external_view_entity_main_rotors_event@@YGXPAUEVENT@@@Z@4JA
  00156	83 c2 0e	 add	 edx, 14			; 0000000eH
  00159	52		 push	 edx
  0015a	68 00 00 00 00	 push	 OFFSET ??_C@_0DO@EFGBNKOF@c?3?2users?2nhv90?2projects?2eech?2ap@
  0015f	a1 00 00 00 00	 mov	 eax, DWORD PTR ?null_entity_pointer_message@@3PBDB ; null_entity_pointer_message
  00164	50		 push	 eax
  00165	e8 00 00 00 00	 call	 ?process_assert@@YGXPBD0H@Z ; process_assert
  0016a	c7 45 b8 00 00
	00 00		 mov	 DWORD PTR tv149[ebp], 0
$LN14@restore_ex:
  00171	b9 01 00 00 00	 mov	 ecx, 1
  00176	85 c9		 test	 ecx, ecx
  00178	74 09		 je	 SHORT $LN15@restore_ex
  0017a	c7 45 b4 97 00
	00 00		 mov	 DWORD PTR tv157[ebp], 151 ; 00000097H
  00181	eb 21		 jmp	 SHORT $LN16@restore_ex
$LN15@restore_ex:
  00183	8b 15 00 00 00
	00		 mov	 edx, DWORD PTR ?__LINE__Var@?0??restore_external_view_entity_main_rotors_event@@YGXPAUEVENT@@@Z@4JA
  00189	83 c2 0e	 add	 edx, 14			; 0000000eH
  0018c	52		 push	 edx
  0018d	68 00 00 00 00	 push	 OFFSET ??_C@_0DO@EFGBNKOF@c?3?2users?2nhv90?2projects?2eech?2ap@
  00192	a1 00 00 00 00	 mov	 eax, DWORD PTR ?overload_invalid_int_type_message@@3PBDB ; overload_invalid_int_type_message
  00197	50		 push	 eax
  00198	e8 00 00 00 00	 call	 ?process_assert@@YGXPBD0H@Z ; process_assert
  0019d	c7 45 b4 00 00
	00 00		 mov	 DWORD PTR tv157[ebp], 0
$LN16@restore_ex:
  001a4	83 7d fc 00	 cmp	 DWORD PTR _en$[ebp], 0
  001a8	74 0a		 je	 SHORT $LN17@restore_ex
  001aa	8b 4d fc	 mov	 ecx, DWORD PTR _en$[ebp]
  001ad	8b 11		 mov	 edx, DWORD PTR [ecx]
  001af	89 55 b0	 mov	 DWORD PTR tv170[ebp], edx
  001b2	eb 21		 jmp	 SHORT $LN18@restore_ex
$LN17@restore_ex:
  001b4	a1 00 00 00 00	 mov	 eax, DWORD PTR ?__LINE__Var@?0??restore_external_view_entity_main_rotors_event@@YGXPAUEVENT@@@Z@4JA
  001b9	83 c0 0e	 add	 eax, 14			; 0000000eH
  001bc	50		 push	 eax
  001bd	68 00 00 00 00	 push	 OFFSET ??_C@_0DO@EFGBNKOF@c?3?2users?2nhv90?2projects?2eech?2ap@
  001c2	8b 0d 00 00 00
	00		 mov	 ecx, DWORD PTR ?null_entity_pointer_message@@3PBDB ; null_entity_pointer_message
  001c8	51		 push	 ecx
  001c9	e8 00 00 00 00	 call	 ?process_assert@@YGXPBD0H@Z ; process_assert
  001ce	c7 45 b0 00 00
	00 00		 mov	 DWORD PTR tv170[ebp], 0
$LN18@restore_ex:
  001d5	ba 01 00 00 00	 mov	 edx, 1
  001da	85 d2		 test	 edx, edx
  001dc	74 09		 je	 SHORT $LN19@restore_ex
  001de	c7 45 ac 08 00
	00 00		 mov	 DWORD PTR tv178[ebp], 8
  001e5	eb 21		 jmp	 SHORT $LN20@restore_ex
$LN19@restore_ex:
  001e7	a1 00 00 00 00	 mov	 eax, DWORD PTR ?__LINE__Var@?0??restore_external_view_entity_main_rotors_event@@YGXPAUEVENT@@@Z@4JA
  001ec	83 c0 0e	 add	 eax, 14			; 0000000eH
  001ef	50		 push	 eax
  001f0	68 00 00 00 00	 push	 OFFSET ??_C@_0DO@EFGBNKOF@c?3?2users?2nhv90?2projects?2eech?2ap@
  001f5	8b 0d 00 00 00
	00		 mov	 ecx, DWORD PTR ?overload_invalid_vec3d_type_message@@3PBDB ; overload_invalid_vec3d_type_message
  001fb	51		 push	 ecx
  001fc	e8 00 00 00 00	 call	 ?process_assert@@YGXPBD0H@Z ; process_assert
  00201	c7 45 ac 00 00
	00 00		 mov	 DWORD PTR tv178[ebp], 0
$LN20@restore_ex:
  00208	68 97 00 00 00	 push	 151			; 00000097H
  0020d	8b 55 fc	 mov	 edx, DWORD PTR _en$[ebp]
  00210	52		 push	 edx
  00211	69 45 b8 5c 04
	00 00		 imul	 eax, DWORD PTR tv149[ebp], 1116
  00218	8b 4d b4	 mov	 ecx, DWORD PTR tv157[ebp]
  0021b	8b 94 88 00 00
	00 00		 mov	 edx, DWORD PTR ?fn_get_local_entity_int_value@@3PAY0BBH@P6GHPAUENTITY@@W4INT_TYPES@@@ZA[eax+ecx*4]
  00222	ff d2		 call	 edx
  00224	50		 push	 eax
  00225	6a 08		 push	 8
  00227	8b 45 fc	 mov	 eax, DWORD PTR _en$[ebp]
  0022a	50		 push	 eax
  0022b	6b 4d b0 60	 imul	 ecx, DWORD PTR tv170[ebp], 96
  0022f	8b 55 ac	 mov	 edx, DWORD PTR tv178[ebp]
  00232	8b 84 91 00 00
	00 00		 mov	 eax, DWORD PTR ?fn_get_local_entity_vec3d_ptr@@3PAY0BI@P6GPAUVEC3D@@PAUENTITY@@W4VEC3D_TYPES@@@ZA[ecx+edx*4]
  00239	ff d0		 call	 eax
  0023b	50		 push	 eax
  0023c	8b 4d fc	 mov	 ecx, DWORD PTR _en$[ebp]
  0023f	51		 push	 ecx
  00240	6a 2c		 push	 44			; 0000002cH
  00242	e8 00 00 00 00	 call	 ?transmit_entity_comms_message@@YAXW4ENTITY_COMMS_MESSAGES@@PAUENTITY@@ZZ ; transmit_entity_comms_message
  00247	83 c4 10	 add	 esp, 16			; 00000010H
$LN1@restore_ex:

; 1564 : 		}
; 1565 : 	}
; 1566 : }

  0024a	5f		 pop	 edi
  0024b	5e		 pop	 esi
  0024c	5b		 pop	 ebx
  0024d	8b e5		 mov	 esp, ebp
  0024f	5d		 pop	 ebp
  00250	c2 04 00	 ret	 4
?restore_external_view_entity_main_rotors_event@@YGXPAUEVENT@@@Z ENDP ; restore_external_view_entity_main_rotors_event
_TEXT	ENDS
; Function compile flags: /Odtp /ZI
; File c:\users\nhv90\projects\eech\aphavoc\source\events\ev_debug.c
;	COMDAT ?damage_external_view_entity_main_rotors_event@@YGXPAUEVENT@@@Z
_TEXT	SEGMENT
tv156 = -76						; size = 4
tv134 = -76						; size = 4
tv79 = -76						; size = 4
tv148 = -72						; size = 4
tv94 = -72						; size = 4
tv72 = -72						; size = 4
_en$ = -4						; size = 4
_ev$ = 8						; size = 4
?damage_external_view_entity_main_rotors_event@@YGXPAUEVENT@@@Z PROC ; damage_external_view_entity_main_rotors_event, COMDAT

; 1525 : {

  00000	55		 push	 ebp
  00001	8b ec		 mov	 ebp, esp
  00003	83 ec 4c	 sub	 esp, 76			; 0000004cH
  00006	53		 push	 ebx
  00007	56		 push	 esi
  00008	57		 push	 edi

; 1526 : 	entity
; 1527 : 		*en;
; 1528 : 
; 1529 : 	if (get_comms_model () == COMMS_MODEL_SERVER)

  00009	83 3d 00 00 00
	00 00		 cmp	 DWORD PTR ?system_comms_model@@3W4COMMS_MODEL_TYPES@@A, 0 ; system_comms_model
  00010	0f 85 b4 01 00
	00		 jne	 $LN1@damage_ext

; 1530 : 	{
; 1531 : 		en = get_external_view_entity ();

  00016	e8 00 00 00 00	 call	 ?get_external_view_entity@@YGPAUENTITY@@XZ ; get_external_view_entity
  0001b	89 45 fc	 mov	 DWORD PTR _en$[ebp], eax

; 1532 : 
; 1533 : 		if ((en) && (get_local_entity_int_value (en, INT_TYPE_ALIVE)))

  0001e	83 7d fc 00	 cmp	 DWORD PTR _en$[ebp], 0
  00022	0f 84 a2 01 00
	00		 je	 $LN1@damage_ext
  00028	83 7d fc 00	 cmp	 DWORD PTR _en$[ebp], 0
  0002c	74 0a		 je	 SHORT $LN5@damage_ext
  0002e	8b 45 fc	 mov	 eax, DWORD PTR _en$[ebp]
  00031	8b 08		 mov	 ecx, DWORD PTR [eax]
  00033	89 4d b8	 mov	 DWORD PTR tv72[ebp], ecx
  00036	eb 1d		 jmp	 SHORT $LN6@damage_ext
$LN5@damage_ext:
  00038	68 fd 05 00 00	 push	 1533			; 000005fdH
  0003d	68 00 00 00 00	 push	 OFFSET ??_C@_0DO@EFGBNKOF@c?3?2users?2nhv90?2projects?2eech?2ap@
  00042	8b 15 00 00 00
	00		 mov	 edx, DWORD PTR ?null_entity_pointer_message@@3PBDB ; null_entity_pointer_message
  00048	52		 push	 edx
  00049	e8 00 00 00 00	 call	 ?process_assert@@YGXPBD0H@Z ; process_assert
  0004e	c7 45 b8 00 00
	00 00		 mov	 DWORD PTR tv72[ebp], 0
$LN6@damage_ext:
  00055	b8 01 00 00 00	 mov	 eax, 1
  0005a	85 c0		 test	 eax, eax
  0005c	74 09		 je	 SHORT $LN7@damage_ext
  0005e	c7 45 b4 07 00
	00 00		 mov	 DWORD PTR tv79[ebp], 7
  00065	eb 1d		 jmp	 SHORT $LN8@damage_ext
$LN7@damage_ext:
  00067	68 fd 05 00 00	 push	 1533			; 000005fdH
  0006c	68 00 00 00 00	 push	 OFFSET ??_C@_0DO@EFGBNKOF@c?3?2users?2nhv90?2projects?2eech?2ap@
  00071	8b 0d 00 00 00
	00		 mov	 ecx, DWORD PTR ?overload_invalid_int_type_message@@3PBDB ; overload_invalid_int_type_message
  00077	51		 push	 ecx
  00078	e8 00 00 00 00	 call	 ?process_assert@@YGXPBD0H@Z ; process_assert
  0007d	c7 45 b4 00 00
	00 00		 mov	 DWORD PTR tv79[ebp], 0
$LN8@damage_ext:
  00084	6a 07		 push	 7
  00086	8b 55 fc	 mov	 edx, DWORD PTR _en$[ebp]
  00089	52		 push	 edx
  0008a	69 45 b8 5c 04
	00 00		 imul	 eax, DWORD PTR tv72[ebp], 1116
  00091	8b 4d b4	 mov	 ecx, DWORD PTR tv79[ebp]
  00094	8b 94 88 00 00
	00 00		 mov	 edx, DWORD PTR ?fn_get_local_entity_int_value@@3PAY0BBH@P6GHPAUENTITY@@W4INT_TYPES@@@ZA[eax+ecx*4]
  0009b	ff d2		 call	 edx
  0009d	85 c0		 test	 eax, eax
  0009f	0f 84 25 01 00
	00		 je	 $LN1@damage_ext

; 1534 : 		{
; 1535 : 			debug_colour_log (DEBUG_COLOUR_RED, "Damage external view entity main rotors");

  000a5	68 00 00 00 00	 push	 OFFSET ??_C@_0CI@FAOFCEPL@Damage?5external?5view?5entity?5mai@
  000aa	6a 04		 push	 4
  000ac	e8 00 00 00 00	 call	 ?debug_colour_log@@YAXW4DEBUG_COLOURS@@PBDZZ ; debug_colour_log
  000b1	83 c4 08	 add	 esp, 8

; 1536 : 
; 1537 : 			set_client_server_entity_int_value (en, INT_TYPE_MAIN_ROTOR_DAMAGED, TRUE);

  000b4	83 7d fc 00	 cmp	 DWORD PTR _en$[ebp], 0
  000b8	74 0a		 je	 SHORT $LN9@damage_ext
  000ba	8b 45 fc	 mov	 eax, DWORD PTR _en$[ebp]
  000bd	8b 08		 mov	 ecx, DWORD PTR [eax]
  000bf	89 4d b8	 mov	 DWORD PTR tv94[ebp], ecx
  000c2	eb 21		 jmp	 SHORT $LN10@damage_ext
$LN9@damage_ext:
  000c4	8b 15 00 00 00
	00		 mov	 edx, DWORD PTR ?__LINE__Var@?0??damage_external_view_entity_main_rotors_event@@YGXPAUEVENT@@@Z@4JA
  000ca	83 c2 0c	 add	 edx, 12			; 0000000cH
  000cd	52		 push	 edx
  000ce	68 00 00 00 00	 push	 OFFSET ??_C@_0DO@EFGBNKOF@c?3?2users?2nhv90?2projects?2eech?2ap@
  000d3	a1 00 00 00 00	 mov	 eax, DWORD PTR ?null_entity_pointer_message@@3PBDB ; null_entity_pointer_message
  000d8	50		 push	 eax
  000d9	e8 00 00 00 00	 call	 ?process_assert@@YGXPBD0H@Z ; process_assert
  000de	c7 45 b8 00 00
	00 00		 mov	 DWORD PTR tv94[ebp], 0
$LN10@damage_ext:
  000e5	b9 01 00 00 00	 mov	 ecx, 1
  000ea	85 c9		 test	 ecx, ecx
  000ec	74 09		 je	 SHORT $LN11@damage_ext
  000ee	c7 45 b4 81 00
	00 00		 mov	 DWORD PTR tv134[ebp], 129 ; 00000081H
  000f5	eb 21		 jmp	 SHORT $LN12@damage_ext
$LN11@damage_ext:
  000f7	8b 15 00 00 00
	00		 mov	 edx, DWORD PTR ?__LINE__Var@?0??damage_external_view_entity_main_rotors_event@@YGXPAUEVENT@@@Z@4JA
  000fd	83 c2 0c	 add	 edx, 12			; 0000000cH
  00100	52		 push	 edx
  00101	68 00 00 00 00	 push	 OFFSET ??_C@_0DO@EFGBNKOF@c?3?2users?2nhv90?2projects?2eech?2ap@
  00106	a1 00 00 00 00	 mov	 eax, DWORD PTR ?overload_invalid_int_type_message@@3PBDB ; overload_invalid_int_type_message
  0010b	50		 push	 eax
  0010c	e8 00 00 00 00	 call	 ?process_assert@@YGXPBD0H@Z ; process_assert
  00111	c7 45 b4 00 00
	00 00		 mov	 DWORD PTR tv134[ebp], 0
$LN12@damage_ext:
  00118	6a 01		 push	 1
  0011a	68 81 00 00 00	 push	 129			; 00000081H
  0011f	8b 4d fc	 mov	 ecx, DWORD PTR _en$[ebp]
  00122	51		 push	 ecx
  00123	69 55 b8 b8 08
	00 00		 imul	 edx, DWORD PTR tv94[ebp], 2232
  0012a	8b 45 b4	 mov	 eax, DWORD PTR tv134[ebp]
  0012d	8d 8c c2 00 00
	00 00		 lea	 ecx, DWORD PTR ?fn_set_client_server_entity_int_value@@3PAY1BBH@1P6GXPAUENTITY@@W4INT_TYPES@@H@ZA[edx+eax*8]
  00134	8b 15 00 00 00
	00		 mov	 edx, DWORD PTR ?system_comms_model@@3W4COMMS_MODEL_TYPES@@A ; system_comms_model
  0013a	8b 04 91	 mov	 eax, DWORD PTR [ecx+edx*4]
  0013d	ff d0		 call	 eax

; 1538 : 
; 1539 : 			set_client_server_entity_int_value (en, INT_TYPE_TAIL_ROTOR_DAMAGED, TRUE);

  0013f	83 7d fc 00	 cmp	 DWORD PTR _en$[ebp], 0
  00143	74 0a		 je	 SHORT $LN13@damage_ext
  00145	8b 45 fc	 mov	 eax, DWORD PTR _en$[ebp]
  00148	8b 08		 mov	 ecx, DWORD PTR [eax]
  0014a	89 4d b8	 mov	 DWORD PTR tv148[ebp], ecx
  0014d	eb 21		 jmp	 SHORT $LN14@damage_ext
$LN13@damage_ext:
  0014f	8b 15 00 00 00
	00		 mov	 edx, DWORD PTR ?__LINE__Var@?0??damage_external_view_entity_main_rotors_event@@YGXPAUEVENT@@@Z@4JA
  00155	83 c2 0e	 add	 edx, 14			; 0000000eH
  00158	52		 push	 edx
  00159	68 00 00 00 00	 push	 OFFSET ??_C@_0DO@EFGBNKOF@c?3?2users?2nhv90?2projects?2eech?2ap@
  0015e	a1 00 00 00 00	 mov	 eax, DWORD PTR ?null_entity_pointer_message@@3PBDB ; null_entity_pointer_message
  00163	50		 push	 eax
  00164	e8 00 00 00 00	 call	 ?process_assert@@YGXPBD0H@Z ; process_assert
  00169	c7 45 b8 00 00
	00 00		 mov	 DWORD PTR tv148[ebp], 0
$LN14@damage_ext:
  00170	b9 01 00 00 00	 mov	 ecx, 1
  00175	85 c9		 test	 ecx, ecx
  00177	74 09		 je	 SHORT $LN15@damage_ext
  00179	c7 45 b4 d2 00
	00 00		 mov	 DWORD PTR tv156[ebp], 210 ; 000000d2H
  00180	eb 21		 jmp	 SHORT $LN16@damage_ext
$LN15@damage_ext:
  00182	8b 15 00 00 00
	00		 mov	 edx, DWORD PTR ?__LINE__Var@?0??damage_external_view_entity_main_rotors_event@@YGXPAUEVENT@@@Z@4JA
  00188	83 c2 0e	 add	 edx, 14			; 0000000eH
  0018b	52		 push	 edx
  0018c	68 00 00 00 00	 push	 OFFSET ??_C@_0DO@EFGBNKOF@c?3?2users?2nhv90?2projects?2eech?2ap@
  00191	a1 00 00 00 00	 mov	 eax, DWORD PTR ?overload_invalid_int_type_message@@3PBDB ; overload_invalid_int_type_message
  00196	50		 push	 eax
  00197	e8 00 00 00 00	 call	 ?process_assert@@YGXPBD0H@Z ; process_assert
  0019c	c7 45 b4 00 00
	00 00		 mov	 DWORD PTR tv156[ebp], 0
$LN16@damage_ext:
  001a3	6a 01		 push	 1
  001a5	68 d2 00 00 00	 push	 210			; 000000d2H
  001aa	8b 4d fc	 mov	 ecx, DWORD PTR _en$[ebp]
  001ad	51		 push	 ecx
  001ae	69 55 b8 b8 08
	00 00		 imul	 edx, DWORD PTR tv148[ebp], 2232
  001b5	8b 45 b4	 mov	 eax, DWORD PTR tv156[ebp]
  001b8	8d 8c c2 00 00
	00 00		 lea	 ecx, DWORD PTR ?fn_set_client_server_entity_int_value@@3PAY1BBH@1P6GXPAUENTITY@@W4INT_TYPES@@H@ZA[edx+eax*8]
  001bf	8b 15 00 00 00
	00		 mov	 edx, DWORD PTR ?system_comms_model@@3W4COMMS_MODEL_TYPES@@A ; system_comms_model
  001c5	8b 04 91	 mov	 eax, DWORD PTR [ecx+edx*4]
  001c8	ff d0		 call	 eax
$LN1@damage_ext:

; 1540 : 		}
; 1541 : 	}
; 1542 : }

  001ca	5f		 pop	 edi
  001cb	5e		 pop	 esi
  001cc	5b		 pop	 ebx
  001cd	8b e5		 mov	 esp, ebp
  001cf	5d		 pop	 ebp
  001d0	c2 04 00	 ret	 4
?damage_external_view_entity_main_rotors_event@@YGXPAUEVENT@@@Z ENDP ; damage_external_view_entity_main_rotors_event
_TEXT	ENDS
; Function compile flags: /Odtp /ZI
; File c:\program files (x86)\microsoft visual studio\2017\community\vc\tools\msvc\14.16.27023\include\algorithm
;	COMDAT ??$max@H@std@@YGABHABH0@Z
_TEXT	SEGMENT
__Left$ = 8						; size = 4
__Right$ = 12						; size = 4
??$max@H@std@@YGABHABH0@Z PROC				; std::max<int>, COMDAT

; 5387 : 	{	// return larger of _Left and _Right

  00000	55		 push	 ebp
  00001	8b ec		 mov	 ebp, esp
  00003	83 ec 40	 sub	 esp, 64			; 00000040H
  00006	53		 push	 ebx
  00007	56		 push	 esi
  00008	57		 push	 edi

; 5388 : 	if (_Left < _Right)

  00009	8b 45 08	 mov	 eax, DWORD PTR __Left$[ebp]
  0000c	8b 4d 0c	 mov	 ecx, DWORD PTR __Right$[ebp]
  0000f	8b 10		 mov	 edx, DWORD PTR [eax]
  00011	3b 11		 cmp	 edx, DWORD PTR [ecx]
  00013	7d 61		 jge	 SHORT $LN8@max
$LN4@max:

; 5389 : 		{
; 5390 : 		_STL_ASSERT(!(_Right < _Left), "invalid comparator");

  00015	8b 45 0c	 mov	 eax, DWORD PTR __Right$[ebp]
  00018	8b 4d 08	 mov	 ecx, DWORD PTR __Left$[ebp]
  0001b	8b 10		 mov	 edx, DWORD PTR [eax]
  0001d	3b 11		 cmp	 edx, DWORD PTR [ecx]
  0001f	7c 02		 jl	 SHORT $LN7@max
  00021	eb 4a		 jmp	 SHORT $LN2@max
$LN7@max:
  00023	68 00 00 00 00	 push	 OFFSET ??_C@_0BD@FEEMDEPI@invalid?5comparator@
  00028	68 00 00 00 00	 push	 OFFSET ??_C@_02DKCKIIND@?$CFs@
  0002d	6a 00		 push	 0
  0002f	68 0e 15 00 00	 push	 5390			; 0000150eH
  00034	68 00 00 00 00	 push	 OFFSET ??_C@_0GK@JMBMHIBC@c?3?2program?5files?5?$CIx86?$CJ?2microsof@
  00039	6a 02		 push	 2
  0003b	ff 15 00 00 00
	00		 call	 DWORD PTR __imp___CrtDbgReport
  00041	83 c4 18	 add	 esp, 24			; 00000018H
  00044	83 f8 01	 cmp	 eax, 1
  00047	75 01		 jne	 SHORT $LN12@max
  00049	cc		 int	 3
$LN12@max:
  0004a	6a 00		 push	 0
  0004c	68 0e 15 00 00	 push	 5390			; 0000150eH
  00051	68 00 00 00 00	 push	 OFFSET ??_C@_1NE@FKBPBJEB@?$AAc?$AA?3?$AA?2?$AAp?$AAr?$AAo?$AAg?$AAr?$AAa?$AAm?$AA?5?$AAf?$AAi?$AAl?$AAe@
  00056	68 00 00 00 00	 push	 OFFSET ??_C@_1BC@ICCOKLEG@?$AAs?$AAt?$AAd?$AA?3?$AA?3?$AAm?$AAa?$AAx@
  0005b	68 00 00 00 00	 push	 OFFSET ??_C@_1CK@NDNHPKPI@?$AA?$CC?$AAi?$AAn?$AAv?$AAa?$AAl?$AAi?$AAd?$AA?5?$AAc?$AAo?$AAm?$AAp?$AAa?$AAr@
  00060	ff 15 00 00 00
	00		 call	 DWORD PTR __imp___invalid_parameter
  00066	83 c4 14	 add	 esp, 20			; 00000014H
  00069	33 c0		 xor	 eax, eax
  0006b	75 b6		 jne	 SHORT $LN7@max
$LN2@max:
  0006d	33 c0		 xor	 eax, eax
  0006f	75 a4		 jne	 SHORT $LN4@max

; 5391 : 		return (_Right);

  00071	8b 45 0c	 mov	 eax, DWORD PTR __Right$[ebp]
  00074	eb 03		 jmp	 SHORT $LN11@max
$LN8@max:

; 5392 : 		}
; 5393 : 
; 5394 : 	return (_Left);

  00076	8b 45 08	 mov	 eax, DWORD PTR __Left$[ebp]
$LN11@max:

; 5395 : 	}

  00079	5f		 pop	 edi
  0007a	5e		 pop	 esi
  0007b	5b		 pop	 ebx
  0007c	8b e5		 mov	 esp, ebp
  0007e	5d		 pop	 ebp
  0007f	c2 08 00	 ret	 8
??$max@H@std@@YGABHABH0@Z ENDP				; std::max<int>
_TEXT	ENDS
; Function compile flags: /Odtp /ZI
; File c:\users\nhv90\projects\eech\aphavoc\source\events\ev_debug.c
;	COMDAT ?damage_external_view_entity_event@@YGXPAUEVENT@@@Z
_TEXT	SEGMENT
tv159 = -88						; size = 4
tv132 = -88						; size = 4
tv79 = -88						; size = 4
tv151 = -84						; size = 4
tv92 = -84						; size = 4
tv72 = -84						; size = 4
$T1 = -80						; size = 4
$T2 = -76						; size = 4
_damage_level$ = -8					; size = 4
_en$ = -4						; size = 4
_ev$ = 8						; size = 4
?damage_external_view_entity_event@@YGXPAUEVENT@@@Z PROC ; damage_external_view_entity_event, COMDAT

; 1494 : {

  00000	55		 push	 ebp
  00001	8b ec		 mov	 ebp, esp
  00003	83 ec 58	 sub	 esp, 88			; 00000058H
  00006	53		 push	 ebx
  00007	56		 push	 esi
  00008	57		 push	 edi

; 1495 : 	entity
; 1496 : 		*en;
; 1497 : 
; 1498 : 	int
; 1499 : 		damage_level;
; 1500 : 
; 1501 : 	if (get_comms_model () == COMMS_MODEL_SERVER)

  00009	83 3d 00 00 00
	00 00		 cmp	 DWORD PTR ?system_comms_model@@3W4COMMS_MODEL_TYPES@@A, 0 ; system_comms_model
  00010	0f 85 ed 01 00
	00		 jne	 $LN3@damage_ext

; 1502 : 	{
; 1503 : 		en = get_external_view_entity ();

  00016	e8 00 00 00 00	 call	 ?get_external_view_entity@@YGPAUENTITY@@XZ ; get_external_view_entity
  0001b	89 45 fc	 mov	 DWORD PTR _en$[ebp], eax

; 1504 : 
; 1505 : 		if ((en) && (get_local_entity_int_value (en, INT_TYPE_ALIVE)))

  0001e	83 7d fc 00	 cmp	 DWORD PTR _en$[ebp], 0
  00022	0f 84 db 01 00
	00		 je	 $LN3@damage_ext
  00028	83 7d fc 00	 cmp	 DWORD PTR _en$[ebp], 0
  0002c	74 0a		 je	 SHORT $LN5@damage_ext
  0002e	8b 45 fc	 mov	 eax, DWORD PTR _en$[ebp]
  00031	8b 08		 mov	 ecx, DWORD PTR [eax]
  00033	89 4d ac	 mov	 DWORD PTR tv72[ebp], ecx
  00036	eb 1d		 jmp	 SHORT $LN6@damage_ext
$LN5@damage_ext:
  00038	68 e1 05 00 00	 push	 1505			; 000005e1H
  0003d	68 00 00 00 00	 push	 OFFSET ??_C@_0DO@EFGBNKOF@c?3?2users?2nhv90?2projects?2eech?2ap@
  00042	8b 15 00 00 00
	00		 mov	 edx, DWORD PTR ?null_entity_pointer_message@@3PBDB ; null_entity_pointer_message
  00048	52		 push	 edx
  00049	e8 00 00 00 00	 call	 ?process_assert@@YGXPBD0H@Z ; process_assert
  0004e	c7 45 ac 00 00
	00 00		 mov	 DWORD PTR tv72[ebp], 0
$LN6@damage_ext:
  00055	b8 01 00 00 00	 mov	 eax, 1
  0005a	85 c0		 test	 eax, eax
  0005c	74 09		 je	 SHORT $LN7@damage_ext
  0005e	c7 45 a8 07 00
	00 00		 mov	 DWORD PTR tv79[ebp], 7
  00065	eb 1d		 jmp	 SHORT $LN8@damage_ext
$LN7@damage_ext:
  00067	68 e1 05 00 00	 push	 1505			; 000005e1H
  0006c	68 00 00 00 00	 push	 OFFSET ??_C@_0DO@EFGBNKOF@c?3?2users?2nhv90?2projects?2eech?2ap@
  00071	8b 0d 00 00 00
	00		 mov	 ecx, DWORD PTR ?overload_invalid_int_type_message@@3PBDB ; overload_invalid_int_type_message
  00077	51		 push	 ecx
  00078	e8 00 00 00 00	 call	 ?process_assert@@YGXPBD0H@Z ; process_assert
  0007d	c7 45 a8 00 00
	00 00		 mov	 DWORD PTR tv79[ebp], 0
$LN8@damage_ext:
  00084	6a 07		 push	 7
  00086	8b 55 fc	 mov	 edx, DWORD PTR _en$[ebp]
  00089	52		 push	 edx
  0008a	69 45 ac 5c 04
	00 00		 imul	 eax, DWORD PTR tv72[ebp], 1116
  00091	8b 4d a8	 mov	 ecx, DWORD PTR tv79[ebp]
  00094	8b 94 88 00 00
	00 00		 mov	 edx, DWORD PTR ?fn_get_local_entity_int_value@@3PAY0BBH@P6GHPAUENTITY@@W4INT_TYPES@@@ZA[eax+ecx*4]
  0009b	ff d2		 call	 edx
  0009d	85 c0		 test	 eax, eax
  0009f	0f 84 5e 01 00
	00		 je	 $LN3@damage_ext

; 1506 : 		{
; 1507 : 			damage_level = get_local_entity_int_value (en, INT_TYPE_DAMAGE_LEVEL);

  000a5	83 7d fc 00	 cmp	 DWORD PTR _en$[ebp], 0
  000a9	74 0a		 je	 SHORT $LN9@damage_ext
  000ab	8b 45 fc	 mov	 eax, DWORD PTR _en$[ebp]
  000ae	8b 08		 mov	 ecx, DWORD PTR [eax]
  000b0	89 4d ac	 mov	 DWORD PTR tv92[ebp], ecx
  000b3	eb 21		 jmp	 SHORT $LN10@damage_ext
$LN9@damage_ext:
  000b5	8b 15 00 00 00
	00		 mov	 edx, DWORD PTR ?__LINE__Var@?0??damage_external_view_entity_event@@YGXPAUEVENT@@@Z@4JA
  000bb	83 c2 0d	 add	 edx, 13			; 0000000dH
  000be	52		 push	 edx
  000bf	68 00 00 00 00	 push	 OFFSET ??_C@_0DO@EFGBNKOF@c?3?2users?2nhv90?2projects?2eech?2ap@
  000c4	a1 00 00 00 00	 mov	 eax, DWORD PTR ?null_entity_pointer_message@@3PBDB ; null_entity_pointer_message
  000c9	50		 push	 eax
  000ca	e8 00 00 00 00	 call	 ?process_assert@@YGXPBD0H@Z ; process_assert
  000cf	c7 45 ac 00 00
	00 00		 mov	 DWORD PTR tv92[ebp], 0
$LN10@damage_ext:
  000d6	b9 01 00 00 00	 mov	 ecx, 1
  000db	85 c9		 test	 ecx, ecx
  000dd	74 09		 je	 SHORT $LN11@damage_ext
  000df	c7 45 a8 25 00
	00 00		 mov	 DWORD PTR tv132[ebp], 37 ; 00000025H
  000e6	eb 21		 jmp	 SHORT $LN12@damage_ext
$LN11@damage_ext:
  000e8	8b 15 00 00 00
	00		 mov	 edx, DWORD PTR ?__LINE__Var@?0??damage_external_view_entity_event@@YGXPAUEVENT@@@Z@4JA
  000ee	83 c2 0d	 add	 edx, 13			; 0000000dH
  000f1	52		 push	 edx
  000f2	68 00 00 00 00	 push	 OFFSET ??_C@_0DO@EFGBNKOF@c?3?2users?2nhv90?2projects?2eech?2ap@
  000f7	a1 00 00 00 00	 mov	 eax, DWORD PTR ?overload_invalid_int_type_message@@3PBDB ; overload_invalid_int_type_message
  000fc	50		 push	 eax
  000fd	e8 00 00 00 00	 call	 ?process_assert@@YGXPBD0H@Z ; process_assert
  00102	c7 45 a8 00 00
	00 00		 mov	 DWORD PTR tv132[ebp], 0
$LN12@damage_ext:
  00109	6a 25		 push	 37			; 00000025H
  0010b	8b 4d fc	 mov	 ecx, DWORD PTR _en$[ebp]
  0010e	51		 push	 ecx
  0010f	69 55 ac 5c 04
	00 00		 imul	 edx, DWORD PTR tv92[ebp], 1116
  00116	8b 45 a8	 mov	 eax, DWORD PTR tv132[ebp]
  00119	8b 8c 82 00 00
	00 00		 mov	 ecx, DWORD PTR ?fn_get_local_entity_int_value@@3PAY0BBH@P6GHPAUENTITY@@W4INT_TYPES@@@ZA[edx+eax*4]
  00120	ff d1		 call	 ecx
  00122	89 45 f8	 mov	 DWORD PTR _damage_level$[ebp], eax

; 1508 : 
; 1509 : 			damage_level = max (0, damage_level - 50);

  00125	8b 45 f8	 mov	 eax, DWORD PTR _damage_level$[ebp]
  00128	83 e8 32	 sub	 eax, 50			; 00000032H
  0012b	89 45 b4	 mov	 DWORD PTR $T2[ebp], eax
  0012e	c7 45 b0 00 00
	00 00		 mov	 DWORD PTR $T1[ebp], 0
  00135	8d 4d b4	 lea	 ecx, DWORD PTR $T2[ebp]
  00138	51		 push	 ecx
  00139	8d 55 b0	 lea	 edx, DWORD PTR $T1[ebp]
  0013c	52		 push	 edx
  0013d	e8 00 00 00 00	 call	 ??$max@H@std@@YGABHABH0@Z ; std::max<int>
  00142	8b 00		 mov	 eax, DWORD PTR [eax]
  00144	89 45 f8	 mov	 DWORD PTR _damage_level$[ebp], eax

; 1510 : 
; 1511 : 			debug_colour_log (DEBUG_COLOUR_RED, "Damage external view entity! ( %d )", damage_level);

  00147	8b 45 f8	 mov	 eax, DWORD PTR _damage_level$[ebp]
  0014a	50		 push	 eax
  0014b	68 00 00 00 00	 push	 OFFSET ??_C@_0CE@PEGHAJHB@Damage?5external?5view?5entity?$CB?5?$CI?5@
  00150	6a 04		 push	 4
  00152	e8 00 00 00 00	 call	 ?debug_colour_log@@YAXW4DEBUG_COLOURS@@PBDZZ ; debug_colour_log
  00157	83 c4 0c	 add	 esp, 12			; 0000000cH

; 1512 : 
; 1513 : 			set_client_server_entity_int_value (en, INT_TYPE_DAMAGE_LEVEL, damage_level);

  0015a	83 7d fc 00	 cmp	 DWORD PTR _en$[ebp], 0
  0015e	74 0a		 je	 SHORT $LN13@damage_ext
  00160	8b 45 fc	 mov	 eax, DWORD PTR _en$[ebp]
  00163	8b 08		 mov	 ecx, DWORD PTR [eax]
  00165	89 4d ac	 mov	 DWORD PTR tv151[ebp], ecx
  00168	eb 21		 jmp	 SHORT $LN14@damage_ext
$LN13@damage_ext:
  0016a	8b 15 00 00 00
	00		 mov	 edx, DWORD PTR ?__LINE__Var@?0??damage_external_view_entity_event@@YGXPAUEVENT@@@Z@4JA
  00170	83 c2 13	 add	 edx, 19			; 00000013H
  00173	52		 push	 edx
  00174	68 00 00 00 00	 push	 OFFSET ??_C@_0DO@EFGBNKOF@c?3?2users?2nhv90?2projects?2eech?2ap@
  00179	a1 00 00 00 00	 mov	 eax, DWORD PTR ?null_entity_pointer_message@@3PBDB ; null_entity_pointer_message
  0017e	50		 push	 eax
  0017f	e8 00 00 00 00	 call	 ?process_assert@@YGXPBD0H@Z ; process_assert
  00184	c7 45 ac 00 00
	00 00		 mov	 DWORD PTR tv151[ebp], 0
$LN14@damage_ext:
  0018b	b9 01 00 00 00	 mov	 ecx, 1
  00190	85 c9		 test	 ecx, ecx
  00192	74 09		 je	 SHORT $LN15@damage_ext
  00194	c7 45 a8 25 00
	00 00		 mov	 DWORD PTR tv159[ebp], 37 ; 00000025H
  0019b	eb 21		 jmp	 SHORT $LN16@damage_ext
$LN15@damage_ext:
  0019d	8b 15 00 00 00
	00		 mov	 edx, DWORD PTR ?__LINE__Var@?0??damage_external_view_entity_event@@YGXPAUEVENT@@@Z@4JA
  001a3	83 c2 13	 add	 edx, 19			; 00000013H
  001a6	52		 push	 edx
  001a7	68 00 00 00 00	 push	 OFFSET ??_C@_0DO@EFGBNKOF@c?3?2users?2nhv90?2projects?2eech?2ap@
  001ac	a1 00 00 00 00	 mov	 eax, DWORD PTR ?overload_invalid_int_type_message@@3PBDB ; overload_invalid_int_type_message
  001b1	50		 push	 eax
  001b2	e8 00 00 00 00	 call	 ?process_assert@@YGXPBD0H@Z ; process_assert
  001b7	c7 45 a8 00 00
	00 00		 mov	 DWORD PTR tv159[ebp], 0
$LN16@damage_ext:
  001be	8b 4d f8	 mov	 ecx, DWORD PTR _damage_level$[ebp]
  001c1	51		 push	 ecx
  001c2	6a 25		 push	 37			; 00000025H
  001c4	8b 55 fc	 mov	 edx, DWORD PTR _en$[ebp]
  001c7	52		 push	 edx
  001c8	69 45 ac b8 08
	00 00		 imul	 eax, DWORD PTR tv151[ebp], 2232
  001cf	8b 4d a8	 mov	 ecx, DWORD PTR tv159[ebp]
  001d2	8d 94 c8 00 00
	00 00		 lea	 edx, DWORD PTR ?fn_set_client_server_entity_int_value@@3PAY1BBH@1P6GXPAUENTITY@@W4INT_TYPES@@H@ZA[eax+ecx*8]
  001d9	a1 00 00 00 00	 mov	 eax, DWORD PTR ?system_comms_model@@3W4COMMS_MODEL_TYPES@@A ; system_comms_model
  001de	8b 0c 82	 mov	 ecx, DWORD PTR [edx+eax*4]
  001e1	ff d1		 call	 ecx

; 1514 : 
; 1515 : 			notify_local_entity (ENTITY_MESSAGE_COLLISION, en, NULL, 1.0);

  001e3	83 ec 08	 sub	 esp, 8
  001e6	f2 0f 10 05 00
	00 00 00	 movsd	 xmm0, QWORD PTR __real@3ff0000000000000
  001ee	f2 0f 11 04 24	 movsd	 QWORD PTR [esp], xmm0
  001f3	6a 00		 push	 0
  001f5	8b 45 fc	 mov	 eax, DWORD PTR _en$[ebp]
  001f8	50		 push	 eax
  001f9	6a 07		 push	 7
  001fb	e8 00 00 00 00	 call	 ?notify_local_entity@@YAHW4ENTITY_MESSAGES@@PAUENTITY@@1ZZ ; notify_local_entity
  00200	83 c4 14	 add	 esp, 20			; 00000014H
$LN3@damage_ext:

; 1516 : 		}
; 1517 : 	}
; 1518 : }

  00203	5f		 pop	 edi
  00204	5e		 pop	 esi
  00205	5b		 pop	 ebx
  00206	8b e5		 mov	 esp, ebp
  00208	5d		 pop	 ebp
  00209	c2 04 00	 ret	 4
?damage_external_view_entity_event@@YGXPAUEVENT@@@Z ENDP ; damage_external_view_entity_event
_TEXT	ENDS
; Function compile flags: /Odtp /ZI
; File c:\users\nhv90\projects\eech\aphavoc\source\events\ev_debug.c
;	COMDAT ?kill_external_view_entity_event@@YGXPAUEVENT@@@Z
_TEXT	SEGMENT
tv134 = -76						; size = 4
tv79 = -76						; size = 4
tv94 = -72						; size = 4
tv72 = -72						; size = 4
_en$ = -4						; size = 4
_ev$ = 8						; size = 4
?kill_external_view_entity_event@@YGXPAUEVENT@@@Z PROC	; kill_external_view_entity_event, COMDAT

; 1470 : {

  00000	55		 push	 ebp
  00001	8b ec		 mov	 ebp, esp
  00003	83 ec 4c	 sub	 esp, 76			; 0000004cH
  00006	53		 push	 ebx
  00007	56		 push	 esi
  00008	57		 push	 edi

; 1471 : 	entity
; 1472 : 		*en;
; 1473 : 
; 1474 : 	if (get_comms_model () == COMMS_MODEL_SERVER)

  00009	83 3d 00 00 00
	00 00		 cmp	 DWORD PTR ?system_comms_model@@3W4COMMS_MODEL_TYPES@@A, 0 ; system_comms_model
  00010	0f 85 46 01 00
	00		 jne	 $LN3@kill_exter

; 1475 : 	{
; 1476 : 		en = get_external_view_entity ();

  00016	e8 00 00 00 00	 call	 ?get_external_view_entity@@YGPAUENTITY@@XZ ; get_external_view_entity
  0001b	89 45 fc	 mov	 DWORD PTR _en$[ebp], eax

; 1477 : 
; 1478 : 		if ((en) && (get_local_entity_int_value (en, INT_TYPE_ALIVE)))

  0001e	83 7d fc 00	 cmp	 DWORD PTR _en$[ebp], 0
  00022	0f 84 34 01 00
	00		 je	 $LN3@kill_exter
  00028	83 7d fc 00	 cmp	 DWORD PTR _en$[ebp], 0
  0002c	74 0a		 je	 SHORT $LN5@kill_exter
  0002e	8b 45 fc	 mov	 eax, DWORD PTR _en$[ebp]
  00031	8b 08		 mov	 ecx, DWORD PTR [eax]
  00033	89 4d b8	 mov	 DWORD PTR tv72[ebp], ecx
  00036	eb 1d		 jmp	 SHORT $LN6@kill_exter
$LN5@kill_exter:
  00038	68 c6 05 00 00	 push	 1478			; 000005c6H
  0003d	68 00 00 00 00	 push	 OFFSET ??_C@_0DO@EFGBNKOF@c?3?2users?2nhv90?2projects?2eech?2ap@
  00042	8b 15 00 00 00
	00		 mov	 edx, DWORD PTR ?null_entity_pointer_message@@3PBDB ; null_entity_pointer_message
  00048	52		 push	 edx
  00049	e8 00 00 00 00	 call	 ?process_assert@@YGXPBD0H@Z ; process_assert
  0004e	c7 45 b8 00 00
	00 00		 mov	 DWORD PTR tv72[ebp], 0
$LN6@kill_exter:
  00055	b8 01 00 00 00	 mov	 eax, 1
  0005a	85 c0		 test	 eax, eax
  0005c	74 09		 je	 SHORT $LN7@kill_exter
  0005e	c7 45 b4 07 00
	00 00		 mov	 DWORD PTR tv79[ebp], 7
  00065	eb 1d		 jmp	 SHORT $LN8@kill_exter
$LN7@kill_exter:
  00067	68 c6 05 00 00	 push	 1478			; 000005c6H
  0006c	68 00 00 00 00	 push	 OFFSET ??_C@_0DO@EFGBNKOF@c?3?2users?2nhv90?2projects?2eech?2ap@
  00071	8b 0d 00 00 00
	00		 mov	 ecx, DWORD PTR ?overload_invalid_int_type_message@@3PBDB ; overload_invalid_int_type_message
  00077	51		 push	 ecx
  00078	e8 00 00 00 00	 call	 ?process_assert@@YGXPBD0H@Z ; process_assert
  0007d	c7 45 b4 00 00
	00 00		 mov	 DWORD PTR tv79[ebp], 0
$LN8@kill_exter:
  00084	6a 07		 push	 7
  00086	8b 55 fc	 mov	 edx, DWORD PTR _en$[ebp]
  00089	52		 push	 edx
  0008a	69 45 b8 5c 04
	00 00		 imul	 eax, DWORD PTR tv72[ebp], 1116
  00091	8b 4d b4	 mov	 ecx, DWORD PTR tv79[ebp]
  00094	8b 94 88 00 00
	00 00		 mov	 edx, DWORD PTR ?fn_get_local_entity_int_value@@3PAY0BBH@P6GHPAUENTITY@@W4INT_TYPES@@@ZA[eax+ecx*4]
  0009b	ff d2		 call	 edx
  0009d	85 c0		 test	 eax, eax
  0009f	0f 84 b7 00 00
	00		 je	 $LN3@kill_exter

; 1479 : 		{
; 1480 : 			debug_colour_log (DEBUG_COLOUR_RED, "Killing external view entity!");

  000a5	68 00 00 00 00	 push	 OFFSET ??_C@_0BO@FKAAOICI@Killing?5external?5view?5entity?$CB@
  000aa	6a 04		 push	 4
  000ac	e8 00 00 00 00	 call	 ?debug_colour_log@@YAXW4DEBUG_COLOURS@@PBDZZ ; debug_colour_log
  000b1	83 c4 08	 add	 esp, 8

; 1481 : 
; 1482 : 			set_client_server_entity_int_value (en, INT_TYPE_DAMAGE_LEVEL, 0);

  000b4	83 7d fc 00	 cmp	 DWORD PTR _en$[ebp], 0
  000b8	74 0a		 je	 SHORT $LN9@kill_exter
  000ba	8b 45 fc	 mov	 eax, DWORD PTR _en$[ebp]
  000bd	8b 08		 mov	 ecx, DWORD PTR [eax]
  000bf	89 4d b8	 mov	 DWORD PTR tv94[ebp], ecx
  000c2	eb 21		 jmp	 SHORT $LN10@kill_exter
$LN9@kill_exter:
  000c4	8b 15 00 00 00
	00		 mov	 edx, DWORD PTR ?__LINE__Var@?0??kill_external_view_entity_event@@YGXPAUEVENT@@@Z@4JA
  000ca	83 c2 0c	 add	 edx, 12			; 0000000cH
  000cd	52		 push	 edx
  000ce	68 00 00 00 00	 push	 OFFSET ??_C@_0DO@EFGBNKOF@c?3?2users?2nhv90?2projects?2eech?2ap@
  000d3	a1 00 00 00 00	 mov	 eax, DWORD PTR ?null_entity_pointer_message@@3PBDB ; null_entity_pointer_message
  000d8	50		 push	 eax
  000d9	e8 00 00 00 00	 call	 ?process_assert@@YGXPBD0H@Z ; process_assert
  000de	c7 45 b8 00 00
	00 00		 mov	 DWORD PTR tv94[ebp], 0
$LN10@kill_exter:
  000e5	b9 01 00 00 00	 mov	 ecx, 1
  000ea	85 c9		 test	 ecx, ecx
  000ec	74 09		 je	 SHORT $LN11@kill_exter
  000ee	c7 45 b4 25 00
	00 00		 mov	 DWORD PTR tv134[ebp], 37 ; 00000025H
  000f5	eb 21		 jmp	 SHORT $LN12@kill_exter
$LN11@kill_exter:
  000f7	8b 15 00 00 00
	00		 mov	 edx, DWORD PTR ?__LINE__Var@?0??kill_external_view_entity_event@@YGXPAUEVENT@@@Z@4JA
  000fd	83 c2 0c	 add	 edx, 12			; 0000000cH
  00100	52		 push	 edx
  00101	68 00 00 00 00	 push	 OFFSET ??_C@_0DO@EFGBNKOF@c?3?2users?2nhv90?2projects?2eech?2ap@
  00106	a1 00 00 00 00	 mov	 eax, DWORD PTR ?overload_invalid_int_type_message@@3PBDB ; overload_invalid_int_type_message
  0010b	50		 push	 eax
  0010c	e8 00 00 00 00	 call	 ?process_assert@@YGXPBD0H@Z ; process_assert
  00111	c7 45 b4 00 00
	00 00		 mov	 DWORD PTR tv134[ebp], 0
$LN12@kill_exter:
  00118	6a 00		 push	 0
  0011a	6a 25		 push	 37			; 00000025H
  0011c	8b 4d fc	 mov	 ecx, DWORD PTR _en$[ebp]
  0011f	51		 push	 ecx
  00120	69 55 b8 b8 08
	00 00		 imul	 edx, DWORD PTR tv94[ebp], 2232
  00127	8b 45 b4	 mov	 eax, DWORD PTR tv134[ebp]
  0012a	8d 8c c2 00 00
	00 00		 lea	 ecx, DWORD PTR ?fn_set_client_server_entity_int_value@@3PAY1BBH@1P6GXPAUENTITY@@W4INT_TYPES@@H@ZA[edx+eax*8]
  00131	8b 15 00 00 00
	00		 mov	 edx, DWORD PTR ?system_comms_model@@3W4COMMS_MODEL_TYPES@@A ; system_comms_model
  00137	8b 04 91	 mov	 eax, DWORD PTR [ecx+edx*4]
  0013a	ff d0		 call	 eax

; 1483 : 
; 1484 : 			notify_local_entity (ENTITY_MESSAGE_COLLISION, en, NULL, 1.0);

  0013c	83 ec 08	 sub	 esp, 8
  0013f	f2 0f 10 05 00
	00 00 00	 movsd	 xmm0, QWORD PTR __real@3ff0000000000000
  00147	f2 0f 11 04 24	 movsd	 QWORD PTR [esp], xmm0
  0014c	6a 00		 push	 0
  0014e	8b 45 fc	 mov	 eax, DWORD PTR _en$[ebp]
  00151	50		 push	 eax
  00152	6a 07		 push	 7
  00154	e8 00 00 00 00	 call	 ?notify_local_entity@@YAHW4ENTITY_MESSAGES@@PAUENTITY@@1ZZ ; notify_local_entity
  00159	83 c4 14	 add	 esp, 20			; 00000014H
$LN3@kill_exter:

; 1485 : 		}
; 1486 : 	}
; 1487 : }

  0015c	5f		 pop	 edi
  0015d	5e		 pop	 esi
  0015e	5b		 pop	 ebx
  0015f	8b e5		 mov	 esp, ebp
  00161	5d		 pop	 ebp
  00162	c2 04 00	 ret	 4
?kill_external_view_entity_event@@YGXPAUEVENT@@@Z ENDP	; kill_external_view_entity_event
_TEXT	ENDS
; Function compile flags: /Odtp /ZI
; File c:\users\nhv90\projects\eech\aphavoc\source\events\ev_debug.c
;	COMDAT ?view_wingmen_event@@YGXPAUEVENT@@@Z
_TEXT	SEGMENT
_ev$ = 8						; size = 4
?view_wingmen_event@@YGXPAUEVENT@@@Z PROC		; view_wingmen_event, COMDAT

; 1452 : {

  00000	55		 push	 ebp
  00001	8b ec		 mov	 ebp, esp
  00003	83 ec 40	 sub	 esp, 64			; 00000040H
  00006	53		 push	 ebx
  00007	56		 push	 esi
  00008	57		 push	 edi

; 1453 : 	if (select_view_menu_view_players_target ())

  00009	e8 00 00 00 00	 call	 ?select_view_menu_view_players_target@@YGHXZ ; select_view_menu_view_players_target
  0000e	85 c0		 test	 eax, eax
  00010	74 05		 je	 SHORT $LN1@view_wingm

; 1454 : 	{
; 1455 : 		select_external_view ();

  00012	e8 00 00 00 00	 call	 ?select_external_view@@YGXXZ ; select_external_view
$LN1@view_wingm:

; 1456 : 	}
; 1457 : }

  00017	5f		 pop	 edi
  00018	5e		 pop	 esi
  00019	5b		 pop	 ebx
  0001a	8b e5		 mov	 esp, ebp
  0001c	5d		 pop	 ebp
  0001d	c2 04 00	 ret	 4
?view_wingmen_event@@YGXPAUEVENT@@@Z ENDP		; view_wingmen_event
_TEXT	ENDS
; Function compile flags: /Odtp /ZI
; File c:\users\nhv90\projects\eech\aphavoc\source\events\ev_debug.c
;	COMDAT ?transmit_external_view_entity_event@@YGXPAUEVENT@@@Z
_TEXT	SEGMENT
_en$ = -4						; size = 4
_ev$ = 8						; size = 4
?transmit_external_view_entity_event@@YGXPAUEVENT@@@Z PROC ; transmit_external_view_entity_event, COMDAT

; 1427 : {

  00000	55		 push	 ebp
  00001	8b ec		 mov	 ebp, esp
  00003	83 ec 44	 sub	 esp, 68			; 00000044H
  00006	53		 push	 ebx
  00007	56		 push	 esi
  00008	57		 push	 edi

; 1428 : 	entity
; 1429 : 		*en;
; 1430 : 
; 1431 : 	en = get_external_view_entity ();

  00009	e8 00 00 00 00	 call	 ?get_external_view_entity@@YGPAUENTITY@@XZ ; get_external_view_entity
  0000e	89 45 fc	 mov	 DWORD PTR _en$[ebp], eax

; 1432 : 
; 1433 : 	if (en)

  00011	83 7d fc 00	 cmp	 DWORD PTR _en$[ebp], 0
  00015	74 0e		 je	 SHORT $LN1@transmit_e

; 1434 : 	{
; 1435 : 		//
; 1436 : 		// make all connected machines display this machine's external view entity
; 1437 : 		//
; 1438 : 
; 1439 : 		transmit_entity_comms_message (ENTITY_COMMS_SET_EXTERNAL_VIEW_ENTITY, en);

  00017	8b 45 fc	 mov	 eax, DWORD PTR _en$[ebp]
  0001a	50		 push	 eax
  0001b	6a 31		 push	 49			; 00000031H
  0001d	e8 00 00 00 00	 call	 ?transmit_entity_comms_message@@YAXW4ENTITY_COMMS_MESSAGES@@PAUENTITY@@ZZ ; transmit_entity_comms_message
  00022	83 c4 08	 add	 esp, 8
$LN1@transmit_e:

; 1440 : 	}
; 1441 : }

  00025	5f		 pop	 edi
  00026	5e		 pop	 esi
  00027	5b		 pop	 ebx
  00028	8b e5		 mov	 esp, ebp
  0002a	5d		 pop	 ebp
  0002b	c2 04 00	 ret	 4
?transmit_external_view_entity_event@@YGXPAUEVENT@@@Z ENDP ; transmit_external_view_entity_event
_TEXT	ENDS
; Function compile flags: /Odtp /ZI
; File c:\users\nhv90\projects\eech\aphavoc\source\events\ev_debug.c
;	COMDAT ?recognition_guide_3d_view_event@@YGXPAUEVENT@@@Z
_TEXT	SEGMENT
_ev$ = 8						; size = 4
?recognition_guide_3d_view_event@@YGXPAUEVENT@@@Z PROC	; recognition_guide_3d_view_event, COMDAT

; 1418 : {

  00000	55		 push	 ebp
  00001	8b ec		 mov	 ebp, esp
  00003	83 ec 40	 sub	 esp, 64			; 00000040H
  00006	53		 push	 ebx
  00007	56		 push	 esi
  00008	57		 push	 edi

; 1419 : 	notify_local_entity (ENTITY_MESSAGE_SET_CAMERA_ACTION, get_camera_entity (), NULL, CAMERA_ACTION_RECOGNITION_GUIDE_3D_VIEW);

  00009	6a 12		 push	 18			; 00000012H
  0000b	6a 00		 push	 0
  0000d	a1 00 00 00 00	 mov	 eax, DWORD PTR ?camera_entity@@3PAUENTITY@@A ; camera_entity
  00012	50		 push	 eax
  00013	6a 2f		 push	 47			; 0000002fH
  00015	e8 00 00 00 00	 call	 ?notify_local_entity@@YAHW4ENTITY_MESSAGES@@PAUENTITY@@1ZZ ; notify_local_entity
  0001a	83 c4 10	 add	 esp, 16			; 00000010H

; 1420 : }

  0001d	5f		 pop	 edi
  0001e	5e		 pop	 esi
  0001f	5b		 pop	 ebx
  00020	8b e5		 mov	 esp, ebp
  00022	5d		 pop	 ebp
  00023	c2 04 00	 ret	 4
?recognition_guide_3d_view_event@@YGXPAUEVENT@@@Z ENDP	; recognition_guide_3d_view_event
_TEXT	ENDS
; Function compile flags: /Odtp /ZI
; File c:\users\nhv90\projects\eech\aphavoc\source\events\ev_debug.c
;	COMDAT ?recognition_guide_front_view_event@@YGXPAUEVENT@@@Z
_TEXT	SEGMENT
_ev$ = 8						; size = 4
?recognition_guide_front_view_event@@YGXPAUEVENT@@@Z PROC ; recognition_guide_front_view_event, COMDAT

; 1409 : {

  00000	55		 push	 ebp
  00001	8b ec		 mov	 ebp, esp
  00003	83 ec 40	 sub	 esp, 64			; 00000040H
  00006	53		 push	 ebx
  00007	56		 push	 esi
  00008	57		 push	 edi

; 1410 : 	notify_local_entity (ENTITY_MESSAGE_SET_CAMERA_ACTION, get_camera_entity (), NULL, CAMERA_ACTION_RECOGNITION_GUIDE_FRONT_VIEW);

  00009	6a 11		 push	 17			; 00000011H
  0000b	6a 00		 push	 0
  0000d	a1 00 00 00 00	 mov	 eax, DWORD PTR ?camera_entity@@3PAUENTITY@@A ; camera_entity
  00012	50		 push	 eax
  00013	6a 2f		 push	 47			; 0000002fH
  00015	e8 00 00 00 00	 call	 ?notify_local_entity@@YAHW4ENTITY_MESSAGES@@PAUENTITY@@1ZZ ; notify_local_entity
  0001a	83 c4 10	 add	 esp, 16			; 00000010H

; 1411 : }

  0001d	5f		 pop	 edi
  0001e	5e		 pop	 esi
  0001f	5b		 pop	 ebx
  00020	8b e5		 mov	 esp, ebp
  00022	5d		 pop	 ebp
  00023	c2 04 00	 ret	 4
?recognition_guide_front_view_event@@YGXPAUEVENT@@@Z ENDP ; recognition_guide_front_view_event
_TEXT	ENDS
; Function compile flags: /Odtp /ZI
; File c:\users\nhv90\projects\eech\aphavoc\source\events\ev_debug.c
;	COMDAT ?recognition_guide_side_view_event@@YGXPAUEVENT@@@Z
_TEXT	SEGMENT
_ev$ = 8						; size = 4
?recognition_guide_side_view_event@@YGXPAUEVENT@@@Z PROC ; recognition_guide_side_view_event, COMDAT

; 1400 : {

  00000	55		 push	 ebp
  00001	8b ec		 mov	 ebp, esp
  00003	83 ec 40	 sub	 esp, 64			; 00000040H
  00006	53		 push	 ebx
  00007	56		 push	 esi
  00008	57		 push	 edi

; 1401 : 	notify_local_entity (ENTITY_MESSAGE_SET_CAMERA_ACTION, get_camera_entity (), NULL, CAMERA_ACTION_RECOGNITION_GUIDE_SIDE_VIEW);

  00009	6a 10		 push	 16			; 00000010H
  0000b	6a 00		 push	 0
  0000d	a1 00 00 00 00	 mov	 eax, DWORD PTR ?camera_entity@@3PAUENTITY@@A ; camera_entity
  00012	50		 push	 eax
  00013	6a 2f		 push	 47			; 0000002fH
  00015	e8 00 00 00 00	 call	 ?notify_local_entity@@YAHW4ENTITY_MESSAGES@@PAUENTITY@@1ZZ ; notify_local_entity
  0001a	83 c4 10	 add	 esp, 16			; 00000010H

; 1402 : }

  0001d	5f		 pop	 edi
  0001e	5e		 pop	 esi
  0001f	5b		 pop	 ebx
  00020	8b e5		 mov	 esp, ebp
  00022	5d		 pop	 ebp
  00023	c2 04 00	 ret	 4
?recognition_guide_side_view_event@@YGXPAUEVENT@@@Z ENDP ; recognition_guide_side_view_event
_TEXT	ENDS
; Function compile flags: /Odtp /ZI
; File c:\users\nhv90\projects\eech\aphavoc\source\events\ev_debug.c
;	COMDAT ?recognition_guide_top_view_event@@YGXPAUEVENT@@@Z
_TEXT	SEGMENT
_ev$ = 8						; size = 4
?recognition_guide_top_view_event@@YGXPAUEVENT@@@Z PROC	; recognition_guide_top_view_event, COMDAT

; 1391 : {

  00000	55		 push	 ebp
  00001	8b ec		 mov	 ebp, esp
  00003	83 ec 40	 sub	 esp, 64			; 00000040H
  00006	53		 push	 ebx
  00007	56		 push	 esi
  00008	57		 push	 edi

; 1392 : 	notify_local_entity (ENTITY_MESSAGE_SET_CAMERA_ACTION, get_camera_entity (), NULL, CAMERA_ACTION_RECOGNITION_GUIDE_TOP_VIEW);

  00009	6a 0f		 push	 15			; 0000000fH
  0000b	6a 00		 push	 0
  0000d	a1 00 00 00 00	 mov	 eax, DWORD PTR ?camera_entity@@3PAUENTITY@@A ; camera_entity
  00012	50		 push	 eax
  00013	6a 2f		 push	 47			; 0000002fH
  00015	e8 00 00 00 00	 call	 ?notify_local_entity@@YAHW4ENTITY_MESSAGES@@PAUENTITY@@1ZZ ; notify_local_entity
  0001a	83 c4 10	 add	 esp, 16			; 00000010H

; 1393 : }

  0001d	5f		 pop	 edi
  0001e	5e		 pop	 esi
  0001f	5b		 pop	 ebx
  00020	8b e5		 mov	 esp, ebp
  00022	5d		 pop	 ebp
  00023	c2 04 00	 ret	 4
?recognition_guide_top_view_event@@YGXPAUEVENT@@@Z ENDP	; recognition_guide_top_view_event
_TEXT	ENDS
; Function compile flags: /Odtp /ZI
; File c:\users\nhv90\projects\eech\aphavoc\source\events\ev_debug.c
;	COMDAT ?debriefing_event@@YGXPAUEVENT@@@Z
_TEXT	SEGMENT
_ev$ = 8						; size = 4
?debriefing_event@@YGXPAUEVENT@@@Z PROC			; debriefing_event, COMDAT

; 1382 : {

  00000	55		 push	 ebp
  00001	8b ec		 mov	 ebp, esp
  00003	83 ec 40	 sub	 esp, 64			; 00000040H
  00006	53		 push	 ebx
  00007	56		 push	 esi
  00008	57		 push	 edi

; 1383 : 	notify_local_entity (ENTITY_MESSAGE_SET_CAMERA_ACTION, get_camera_entity (), NULL, CAMERA_ACTION_DEBRIEFING);

  00009	6a 0e		 push	 14			; 0000000eH
  0000b	6a 00		 push	 0
  0000d	a1 00 00 00 00	 mov	 eax, DWORD PTR ?camera_entity@@3PAUENTITY@@A ; camera_entity
  00012	50		 push	 eax
  00013	6a 2f		 push	 47			; 0000002fH
  00015	e8 00 00 00 00	 call	 ?notify_local_entity@@YAHW4ENTITY_MESSAGES@@PAUENTITY@@1ZZ ; notify_local_entity
  0001a	83 c4 10	 add	 esp, 16			; 00000010H

; 1384 : }

  0001d	5f		 pop	 edi
  0001e	5e		 pop	 esi
  0001f	5b		 pop	 ebx
  00020	8b e5		 mov	 esp, ebp
  00022	5d		 pop	 ebp
  00023	c2 04 00	 ret	 4
?debriefing_event@@YGXPAUEVENT@@@Z ENDP			; debriefing_event
_TEXT	ENDS
; Function compile flags: /Odtp /ZI
; File c:\users\nhv90\projects\eech\aphavoc\source\events\ev_debug.c
;	COMDAT ?safe_view_event@@YGXPAUEVENT@@@Z
_TEXT	SEGMENT
_ev$ = 8						; size = 4
?safe_view_event@@YGXPAUEVENT@@@Z PROC			; safe_view_event, COMDAT

; 1373 : {

  00000	55		 push	 ebp
  00001	8b ec		 mov	 ebp, esp
  00003	83 ec 40	 sub	 esp, 64			; 00000040H
  00006	53		 push	 ebx
  00007	56		 push	 esi
  00008	57		 push	 edi

; 1374 :    set_view_mode (VIEW_MODE_SAFE);

  00009	6a 2b		 push	 43			; 0000002bH
  0000b	e8 00 00 00 00	 call	 ?set_view_mode@@YGHW4VIEW_MODES@@@Z ; set_view_mode

; 1375 : }

  00010	5f		 pop	 edi
  00011	5e		 pop	 esi
  00012	5b		 pop	 ebx
  00013	8b e5		 mov	 esp, ebp
  00015	5d		 pop	 ebp
  00016	c2 04 00	 ret	 4
?safe_view_event@@YGXPAUEVENT@@@Z ENDP			; safe_view_event
_TEXT	ENDS
; Function compile flags: /Odtp /ZI
; File c:\users\nhv90\projects\eech\aphavoc\source\events\ev_debug.c
;	COMDAT ?toggle_draw_radar_terrain_los_markers_event@@YGXPAUEVENT@@@Z
_TEXT	SEGMENT
_ev$ = 8						; size = 4
?toggle_draw_radar_terrain_los_markers_event@@YGXPAUEVENT@@@Z PROC ; toggle_draw_radar_terrain_los_markers_event, COMDAT

; 1358 : {

  00000	55		 push	 ebp
  00001	8b ec		 mov	 ebp, esp
  00003	83 ec 40	 sub	 esp, 64			; 00000040H
  00006	53		 push	 ebx
  00007	56		 push	 esi
  00008	57		 push	 edi

; 1359 : 	draw_radar_terrain_los_markers ^= 1;

  00009	a1 00 00 00 00	 mov	 eax, DWORD PTR ?draw_radar_terrain_los_markers@@3HA ; draw_radar_terrain_los_markers
  0000e	83 f0 01	 xor	 eax, 1
  00011	a3 00 00 00 00	 mov	 DWORD PTR ?draw_radar_terrain_los_markers@@3HA, eax ; draw_radar_terrain_los_markers

; 1360 : 
; 1361 : 	draw_eo_terrain_los_markers ^= 1;

  00016	a1 00 00 00 00	 mov	 eax, DWORD PTR ?draw_eo_terrain_los_markers@@3HA ; draw_eo_terrain_los_markers
  0001b	83 f0 01	 xor	 eax, 1
  0001e	a3 00 00 00 00	 mov	 DWORD PTR ?draw_eo_terrain_los_markers@@3HA, eax ; draw_eo_terrain_los_markers

; 1362 : 
; 1363 : 	draw_hms_terrain_los_markers ^= 1;

  00023	a1 00 00 00 00	 mov	 eax, DWORD PTR ?draw_hms_terrain_los_markers@@3HA ; draw_hms_terrain_los_markers
  00028	83 f0 01	 xor	 eax, 1
  0002b	a3 00 00 00 00	 mov	 DWORD PTR ?draw_hms_terrain_los_markers@@3HA, eax ; draw_hms_terrain_los_markers

; 1364 : 
; 1365 : 	draw_weapon_terrain_los_markers ^= 1;

  00030	a1 00 00 00 00	 mov	 eax, DWORD PTR ?draw_weapon_terrain_los_markers@@3HA ; draw_weapon_terrain_los_markers
  00035	83 f0 01	 xor	 eax, 1
  00038	a3 00 00 00 00	 mov	 DWORD PTR ?draw_weapon_terrain_los_markers@@3HA, eax ; draw_weapon_terrain_los_markers

; 1366 : }

  0003d	5f		 pop	 edi
  0003e	5e		 pop	 esi
  0003f	5b		 pop	 ebx
  00040	8b e5		 mov	 esp, ebp
  00042	5d		 pop	 ebp
  00043	c2 04 00	 ret	 4
?toggle_draw_radar_terrain_los_markers_event@@YGXPAUEVENT@@@Z ENDP ; toggle_draw_radar_terrain_los_markers_event
_TEXT	ENDS
; Function compile flags: /Odtp /ZI
; File c:\users\nhv90\projects\eech\aphavoc\source\events\ev_debug.c
;	COMDAT ?toggle_draw_radar_sweep_event@@YGXPAUEVENT@@@Z
_TEXT	SEGMENT
_ev$ = 8						; size = 4
?toggle_draw_radar_sweep_event@@YGXPAUEVENT@@@Z PROC	; toggle_draw_radar_sweep_event, COMDAT

; 1345 : {

  00000	55		 push	 ebp
  00001	8b ec		 mov	 ebp, esp
  00003	83 ec 40	 sub	 esp, 64			; 00000040H
  00006	53		 push	 ebx
  00007	56		 push	 esi
  00008	57		 push	 edi

; 1346 : 	draw_radar_sweep ^= 1;

  00009	a1 00 00 00 00	 mov	 eax, DWORD PTR ?draw_radar_sweep@@3HA ; draw_radar_sweep
  0000e	83 f0 01	 xor	 eax, 1
  00011	a3 00 00 00 00	 mov	 DWORD PTR ?draw_radar_sweep@@3HA, eax ; draw_radar_sweep

; 1347 : 
; 1348 : 	draw_eo_boresight ^= 1;

  00016	a1 00 00 00 00	 mov	 eax, DWORD PTR ?draw_eo_boresight@@3HA ; draw_eo_boresight
  0001b	83 f0 01	 xor	 eax, 1
  0001e	a3 00 00 00 00	 mov	 DWORD PTR ?draw_eo_boresight@@3HA, eax ; draw_eo_boresight

; 1349 : 
; 1350 : 	draw_hms_field_of_view ^= 1;

  00023	a1 00 00 00 00	 mov	 eax, DWORD PTR ?draw_hms_field_of_view@@3HA ; draw_hms_field_of_view
  00028	83 f0 01	 xor	 eax, 1
  0002b	a3 00 00 00 00	 mov	 DWORD PTR ?draw_hms_field_of_view@@3HA, eax ; draw_hms_field_of_view

; 1351 : }

  00030	5f		 pop	 edi
  00031	5e		 pop	 esi
  00032	5b		 pop	 ebx
  00033	8b e5		 mov	 esp, ebp
  00035	5d		 pop	 ebp
  00036	c2 04 00	 ret	 4
?toggle_draw_radar_sweep_event@@YGXPAUEVENT@@@Z ENDP	; toggle_draw_radar_sweep_event
_TEXT	ENDS
; Function compile flags: /Odtp /ZI
; File c:\users\nhv90\projects\eech\aphavoc\source\events\ev_debug.c
;	COMDAT ?toggle_draw_collision_box_lifetime_event@@YGXPAUEVENT@@@Z
_TEXT	SEGMENT
_ev$ = 8						; size = 4
?toggle_draw_collision_box_lifetime_event@@YGXPAUEVENT@@@Z PROC ; toggle_draw_collision_box_lifetime_event, COMDAT

; 1329 : {

  00000	55		 push	 ebp
  00001	8b ec		 mov	 ebp, esp
  00003	83 ec 40	 sub	 esp, 64			; 00000040H
  00006	53		 push	 ebx
  00007	56		 push	 esi
  00008	57		 push	 edi

; 1330 : 	if (collision_box_lifetime == 0.0)

  00009	f3 0f 5a 05 00
	00 00 00	 cvtss2sd xmm0, DWORD PTR ?collision_box_lifetime@@3MA
  00011	66 0f 2e 05 00
	00 00 00	 ucomisd xmm0, QWORD PTR __real@0000000000000000
  00019	9f		 lahf
  0001a	f6 c4 44	 test	 ah, 68			; 00000044H
  0001d	7a 12		 jp	 SHORT $LN2@toggle_dra

; 1331 : 	{
; 1332 : 		collision_box_lifetime = 2.0;

  0001f	f3 0f 10 05 00
	00 00 00	 movss	 xmm0, DWORD PTR __real@40000000
  00027	f3 0f 11 05 00
	00 00 00	 movss	 DWORD PTR ?collision_box_lifetime@@3MA, xmm0

; 1333 : 	}
; 1334 : 	else

  0002f	eb 0b		 jmp	 SHORT $LN3@toggle_dra
$LN2@toggle_dra:

; 1335 : 	{
; 1336 : 		collision_box_lifetime = 0.0;

  00031	0f 57 c0	 xorps	 xmm0, xmm0
  00034	f3 0f 11 05 00
	00 00 00	 movss	 DWORD PTR ?collision_box_lifetime@@3MA, xmm0
$LN3@toggle_dra:

; 1337 : 	}
; 1338 : }

  0003c	5f		 pop	 edi
  0003d	5e		 pop	 esi
  0003e	5b		 pop	 ebx
  0003f	8b e5		 mov	 esp, ebp
  00041	5d		 pop	 ebp
  00042	c2 04 00	 ret	 4
?toggle_draw_collision_box_lifetime_event@@YGXPAUEVENT@@@Z ENDP ; toggle_draw_collision_box_lifetime_event
_TEXT	ENDS
; Function compile flags: /Odtp /ZI
; File c:\users\nhv90\projects\eech\aphavoc\source\events\ev_debug.c
;	COMDAT ?toggle_draw_collision_boxes_event@@YGXPAUEVENT@@@Z
_TEXT	SEGMENT
_ev$ = 8						; size = 4
?toggle_draw_collision_boxes_event@@YGXPAUEVENT@@@Z PROC ; toggle_draw_collision_boxes_event, COMDAT

; 1320 : {

  00000	55		 push	 ebp
  00001	8b ec		 mov	 ebp, esp
  00003	83 ec 40	 sub	 esp, 64			; 00000040H
  00006	53		 push	 ebx
  00007	56		 push	 esi
  00008	57		 push	 edi

; 1321 : 	draw_collision_boxes ^= 1;

  00009	a1 00 00 00 00	 mov	 eax, DWORD PTR ?draw_collision_boxes@@3HA ; draw_collision_boxes
  0000e	83 f0 01	 xor	 eax, 1
  00011	a3 00 00 00 00	 mov	 DWORD PTR ?draw_collision_boxes@@3HA, eax ; draw_collision_boxes

; 1322 : }

  00016	5f		 pop	 edi
  00017	5e		 pop	 esi
  00018	5b		 pop	 ebx
  00019	8b e5		 mov	 esp, ebp
  0001b	5d		 pop	 ebp
  0001c	c2 04 00	 ret	 4
?toggle_draw_collision_boxes_event@@YGXPAUEVENT@@@Z ENDP ; toggle_draw_collision_boxes_event
_TEXT	ENDS
; Function compile flags: /Odtp /ZI
; File c:\users\nhv90\projects\eech\aphavoc\source\events\ev_debug.c
;	COMDAT ?toggle_gunship_object_event@@YGXPAUEVENT@@@Z
_TEXT	SEGMENT
_ev$ = 8						; size = 4
?toggle_gunship_object_event@@YGXPAUEVENT@@@Z PROC	; toggle_gunship_object_event, COMDAT

; 1311 : {

  00000	55		 push	 ebp
  00001	8b ec		 mov	 ebp, esp
  00003	83 ec 40	 sub	 esp, 64			; 00000040H
  00006	53		 push	 ebx
  00007	56		 push	 esi
  00008	57		 push	 edi

; 1312 : 	in_flight_invisible_object ^= 1;

  00009	a1 00 00 00 00	 mov	 eax, DWORD PTR ?in_flight_invisible_object@@3HA ; in_flight_invisible_object
  0000e	83 f0 01	 xor	 eax, 1
  00011	a3 00 00 00 00	 mov	 DWORD PTR ?in_flight_invisible_object@@3HA, eax ; in_flight_invisible_object

; 1313 : }

  00016	5f		 pop	 edi
  00017	5e		 pop	 esi
  00018	5b		 pop	 ebx
  00019	8b e5		 mov	 esp, ebp
  0001b	5d		 pop	 ebp
  0001c	c2 04 00	 ret	 4
?toggle_gunship_object_event@@YGXPAUEVENT@@@Z ENDP	; toggle_gunship_object_event
_TEXT	ENDS
; Function compile flags: /Odtp /ZI
; File c:\users\nhv90\projects\eech\aphavoc\source\events\ev_debug.c
;	COMDAT ?toggle_record_screen_sequence_event@@YGXPAUEVENT@@@Z
_TEXT	SEGMENT
_ev$ = 8						; size = 4
?toggle_record_screen_sequence_event@@YGXPAUEVENT@@@Z PROC ; toggle_record_screen_sequence_event, COMDAT

; 1291 : {

  00000	55		 push	 ebp
  00001	8b ec		 mov	 ebp, esp
  00003	83 ec 40	 sub	 esp, 64			; 00000040H
  00006	53		 push	 ebx
  00007	56		 push	 esi
  00008	57		 push	 edi

; 1292 : 	if (record_screen_sequence)

  00009	83 3d 00 00 00
	00 00		 cmp	 DWORD PTR ?record_screen_sequence@@3HA, 0 ; record_screen_sequence
  00010	74 11		 je	 SHORT $LN2@toggle_rec

; 1293 : 	{
; 1294 : 		unlock_frame_rate ();

  00012	e8 00 00 00 00	 call	 ?unlock_frame_rate@@YGXXZ ; unlock_frame_rate

; 1295 : 
; 1296 : 		record_screen_sequence = FALSE;

  00017	c7 05 00 00 00
	00 00 00 00 00	 mov	 DWORD PTR ?record_screen_sequence@@3HA, 0 ; record_screen_sequence

; 1297 : 	}
; 1298 : 	else

  00021	eb 1d		 jmp	 SHORT $LN3@toggle_rec
$LN2@toggle_rec:

; 1299 : 	{
; 1300 : 		lock_frame_rate (30.0);

  00023	51		 push	 ecx
  00024	f3 0f 10 05 00
	00 00 00	 movss	 xmm0, DWORD PTR __real@41f00000
  0002c	f3 0f 11 04 24	 movss	 DWORD PTR [esp], xmm0
  00031	e8 00 00 00 00	 call	 ?lock_frame_rate@@YGXM@Z ; lock_frame_rate

; 1301 : 
; 1302 : 		record_screen_sequence = TRUE;

  00036	c7 05 00 00 00
	00 01 00 00 00	 mov	 DWORD PTR ?record_screen_sequence@@3HA, 1 ; record_screen_sequence
$LN3@toggle_rec:

; 1303 : 	}
; 1304 : }

  00040	5f		 pop	 edi
  00041	5e		 pop	 esi
  00042	5b		 pop	 ebx
  00043	8b e5		 mov	 esp, ebp
  00045	5d		 pop	 ebp
  00046	c2 04 00	 ret	 4
?toggle_record_screen_sequence_event@@YGXPAUEVENT@@@Z ENDP ; toggle_record_screen_sequence_event
_TEXT	ENDS
; Function compile flags: /Odtp /ZI
; File c:\users\nhv90\projects\eech\aphavoc\source\events\ev_debug.c
;	COMDAT ?set_hires_screen_image_view_angle_4_event@@YGXPAUEVENT@@@Z
_TEXT	SEGMENT
_ev$ = 8						; size = 4
?set_hires_screen_image_view_angle_4_event@@YGXPAUEVENT@@@Z PROC ; set_hires_screen_image_view_angle_4_event, COMDAT

; 1282 : {

  00000	55		 push	 ebp
  00001	8b ec		 mov	 ebp, esp
  00003	83 ec 40	 sub	 esp, 64			; 00000040H
  00006	53		 push	 ebx
  00007	56		 push	 esi
  00008	57		 push	 edi

; 1283 : 	set_high_res_screen_image_viewangle_4 ();

  00009	e8 00 00 00 00	 call	 ?set_high_res_screen_image_viewangle_4@@YGXXZ ; set_high_res_screen_image_viewangle_4

; 1284 : }

  0000e	5f		 pop	 edi
  0000f	5e		 pop	 esi
  00010	5b		 pop	 ebx
  00011	8b e5		 mov	 esp, ebp
  00013	5d		 pop	 ebp
  00014	c2 04 00	 ret	 4
?set_hires_screen_image_view_angle_4_event@@YGXPAUEVENT@@@Z ENDP ; set_hires_screen_image_view_angle_4_event
_TEXT	ENDS
; Function compile flags: /Odtp /ZI
; File c:\users\nhv90\projects\eech\aphavoc\source\events\ev_debug.c
;	COMDAT ?set_hires_screen_image_view_angle_3_event@@YGXPAUEVENT@@@Z
_TEXT	SEGMENT
_ev$ = 8						; size = 4
?set_hires_screen_image_view_angle_3_event@@YGXPAUEVENT@@@Z PROC ; set_hires_screen_image_view_angle_3_event, COMDAT

; 1273 : {

  00000	55		 push	 ebp
  00001	8b ec		 mov	 ebp, esp
  00003	83 ec 40	 sub	 esp, 64			; 00000040H
  00006	53		 push	 ebx
  00007	56		 push	 esi
  00008	57		 push	 edi

; 1274 : 	set_high_res_screen_image_viewangle_3 ();

  00009	e8 00 00 00 00	 call	 ?set_high_res_screen_image_viewangle_3@@YGXXZ ; set_high_res_screen_image_viewangle_3

; 1275 : }

  0000e	5f		 pop	 edi
  0000f	5e		 pop	 esi
  00010	5b		 pop	 ebx
  00011	8b e5		 mov	 esp, ebp
  00013	5d		 pop	 ebp
  00014	c2 04 00	 ret	 4
?set_hires_screen_image_view_angle_3_event@@YGXPAUEVENT@@@Z ENDP ; set_hires_screen_image_view_angle_3_event
_TEXT	ENDS
; Function compile flags: /Odtp /ZI
; File c:\users\nhv90\projects\eech\aphavoc\source\events\ev_debug.c
;	COMDAT ?set_hires_screen_image_view_angle_2_event@@YGXPAUEVENT@@@Z
_TEXT	SEGMENT
_ev$ = 8						; size = 4
?set_hires_screen_image_view_angle_2_event@@YGXPAUEVENT@@@Z PROC ; set_hires_screen_image_view_angle_2_event, COMDAT

; 1264 : {

  00000	55		 push	 ebp
  00001	8b ec		 mov	 ebp, esp
  00003	83 ec 40	 sub	 esp, 64			; 00000040H
  00006	53		 push	 ebx
  00007	56		 push	 esi
  00008	57		 push	 edi

; 1265 : 	set_high_res_screen_image_viewangle_2 ();

  00009	e8 00 00 00 00	 call	 ?set_high_res_screen_image_viewangle_2@@YGXXZ ; set_high_res_screen_image_viewangle_2

; 1266 : }

  0000e	5f		 pop	 edi
  0000f	5e		 pop	 esi
  00010	5b		 pop	 ebx
  00011	8b e5		 mov	 esp, ebp
  00013	5d		 pop	 ebp
  00014	c2 04 00	 ret	 4
?set_hires_screen_image_view_angle_2_event@@YGXPAUEVENT@@@Z ENDP ; set_hires_screen_image_view_angle_2_event
_TEXT	ENDS
; Function compile flags: /Odtp /ZI
; File c:\users\nhv90\projects\eech\aphavoc\source\events\ev_debug.c
;	COMDAT ?set_hires_screen_image_view_angle_1_event@@YGXPAUEVENT@@@Z
_TEXT	SEGMENT
_ev$ = 8						; size = 4
?set_hires_screen_image_view_angle_1_event@@YGXPAUEVENT@@@Z PROC ; set_hires_screen_image_view_angle_1_event, COMDAT

; 1255 : {

  00000	55		 push	 ebp
  00001	8b ec		 mov	 ebp, esp
  00003	83 ec 40	 sub	 esp, 64			; 00000040H
  00006	53		 push	 ebx
  00007	56		 push	 esi
  00008	57		 push	 edi

; 1256 : 	set_high_res_screen_image_viewangle_1 ();

  00009	e8 00 00 00 00	 call	 ?set_high_res_screen_image_viewangle_1@@YGXXZ ; set_high_res_screen_image_viewangle_1

; 1257 : }

  0000e	5f		 pop	 edi
  0000f	5e		 pop	 esi
  00010	5b		 pop	 ebx
  00011	8b e5		 mov	 esp, ebp
  00013	5d		 pop	 ebp
  00014	c2 04 00	 ret	 4
?set_hires_screen_image_view_angle_1_event@@YGXPAUEVENT@@@Z ENDP ; set_hires_screen_image_view_angle_1_event
_TEXT	ENDS
; Function compile flags: /Odtp /ZI
; File c:\users\nhv90\projects\eech\aphavoc\source\events\ev_debug.c
;	COMDAT ?save_hires_screen_image_event@@YGXPAUEVENT@@@Z
_TEXT	SEGMENT
_ev$ = 8						; size = 4
?save_hires_screen_image_event@@YGXPAUEVENT@@@Z PROC	; save_hires_screen_image_event, COMDAT

; 1246 : {

  00000	55		 push	 ebp
  00001	8b ec		 mov	 ebp, esp
  00003	83 ec 40	 sub	 esp, 64			; 00000040H
  00006	53		 push	 ebx
  00007	56		 push	 esi
  00008	57		 push	 edi

; 1247 : 	save_high_res_screen_image ();

  00009	e8 00 00 00 00	 call	 ?save_high_res_screen_image@@YGXXZ ; save_high_res_screen_image

; 1248 : }

  0000e	5f		 pop	 edi
  0000f	5e		 pop	 esi
  00010	5b		 pop	 ebx
  00011	8b e5		 mov	 esp, ebp
  00013	5d		 pop	 ebp
  00014	c2 04 00	 ret	 4
?save_hires_screen_image_event@@YGXPAUEVENT@@@Z ENDP	; save_hires_screen_image_event
_TEXT	ENDS
; Function compile flags: /Odtp /ZI
; File c:\users\nhv90\projects\eech\aphavoc\source\events\ev_debug.c
;	COMDAT ?delete_screen_image_event@@YGXPAUEVENT@@@Z
_TEXT	SEGMENT
_ev$ = 8						; size = 4
?delete_screen_image_event@@YGXPAUEVENT@@@Z PROC	; delete_screen_image_event, COMDAT

; 1237 : {

  00000	55		 push	 ebp
  00001	8b ec		 mov	 ebp, esp
  00003	83 ec 40	 sub	 esp, 64			; 00000040H
  00006	53		 push	 ebx
  00007	56		 push	 esi
  00008	57		 push	 edi

; 1238 : 	delete_screen_image_and_viewpoint_data ();

  00009	e8 00 00 00 00	 call	 ?delete_screen_image_and_viewpoint_data@@YGXXZ ; delete_screen_image_and_viewpoint_data

; 1239 : }

  0000e	5f		 pop	 edi
  0000f	5e		 pop	 esi
  00010	5b		 pop	 ebx
  00011	8b e5		 mov	 esp, ebp
  00013	5d		 pop	 ebp
  00014	c2 04 00	 ret	 4
?delete_screen_image_event@@YGXPAUEVENT@@@Z ENDP	; delete_screen_image_event
_TEXT	ENDS
; Function compile flags: /Odtp /ZI
; File c:\users\nhv90\projects\eech\aphavoc\source\events\ev_debug.c
;	COMDAT ?toggle_in_flight_zoom_test_event@@YGXPAUEVENT@@@Z
_TEXT	SEGMENT
_ev$ = 8						; size = 4
?toggle_in_flight_zoom_test_event@@YGXPAUEVENT@@@Z PROC	; toggle_in_flight_zoom_test_event, COMDAT

; 1219 : {

  00000	55		 push	 ebp
  00001	8b ec		 mov	 ebp, esp
  00003	83 ec 40	 sub	 esp, 64			; 00000040H
  00006	53		 push	 ebx
  00007	56		 push	 esi
  00008	57		 push	 edi

; 1220 : 	in_flight_zoom_test ^= 1;

  00009	a1 00 00 00 00	 mov	 eax, DWORD PTR ?in_flight_zoom_test@@3HA ; in_flight_zoom_test
  0000e	83 f0 01	 xor	 eax, 1
  00011	a3 00 00 00 00	 mov	 DWORD PTR ?in_flight_zoom_test@@3HA, eax ; in_flight_zoom_test

; 1221 : }

  00016	5f		 pop	 edi
  00017	5e		 pop	 esi
  00018	5b		 pop	 ebx
  00019	8b e5		 mov	 esp, ebp
  0001b	5d		 pop	 ebp
  0001c	c2 04 00	 ret	 4
?toggle_in_flight_zoom_test_event@@YGXPAUEVENT@@@Z ENDP	; toggle_in_flight_zoom_test_event
_TEXT	ENDS
; Function compile flags: /Odtp /ZI
; File c:\users\nhv90\projects\eech\aphavoc\source\events\ev_debug.c
;	COMDAT ?toggle_in_flight_articulation_test_event@@YGXPAUEVENT@@@Z
_TEXT	SEGMENT
_ev$ = 8						; size = 4
?toggle_in_flight_articulation_test_event@@YGXPAUEVENT@@@Z PROC ; toggle_in_flight_articulation_test_event, COMDAT

; 1210 : {

  00000	55		 push	 ebp
  00001	8b ec		 mov	 ebp, esp
  00003	83 ec 40	 sub	 esp, 64			; 00000040H
  00006	53		 push	 ebx
  00007	56		 push	 esi
  00008	57		 push	 edi

; 1211 : 	in_flight_articulation_test ^= 1;

  00009	a1 00 00 00 00	 mov	 eax, DWORD PTR ?in_flight_articulation_test@@3HA ; in_flight_articulation_test
  0000e	83 f0 01	 xor	 eax, 1
  00011	a3 00 00 00 00	 mov	 DWORD PTR ?in_flight_articulation_test@@3HA, eax ; in_flight_articulation_test

; 1212 : }

  00016	5f		 pop	 edi
  00017	5e		 pop	 esi
  00018	5b		 pop	 ebx
  00019	8b e5		 mov	 esp, ebp
  0001b	5d		 pop	 ebp
  0001c	c2 04 00	 ret	 4
?toggle_in_flight_articulation_test_event@@YGXPAUEVENT@@@Z ENDP ; toggle_in_flight_articulation_test_event
_TEXT	ENDS
; Function compile flags: /Odtp /ZI
; File c:\users\nhv90\projects\eech\aphavoc\source\events\ev_debug.c
;	COMDAT ?clear_debug_3d_graphics_event@@YGXPAUEVENT@@@Z
_TEXT	SEGMENT
_ev$ = 8						; size = 4
?clear_debug_3d_graphics_event@@YGXPAUEVENT@@@Z PROC	; clear_debug_3d_graphics_event, COMDAT

; 1199 : {

  00000	55		 push	 ebp
  00001	8b ec		 mov	 ebp, esp
  00003	83 ec 40	 sub	 esp, 64			; 00000040H
  00006	53		 push	 ebx
  00007	56		 push	 esi
  00008	57		 push	 edi

; 1200 : 	destroy_all_debug_3d_objects ();

  00009	e8 00 00 00 00	 call	 ?destroy_all_debug_3d_objects@@YGXXZ ; destroy_all_debug_3d_objects

; 1201 : 
; 1202 : 	destroy_all_debug_3d_lines ();

  0000e	e8 00 00 00 00	 call	 ?destroy_all_debug_3d_lines@@YGXXZ ; destroy_all_debug_3d_lines

; 1203 : }

  00013	5f		 pop	 edi
  00014	5e		 pop	 esi
  00015	5b		 pop	 ebx
  00016	8b e5		 mov	 esp, ebp
  00018	5d		 pop	 ebp
  00019	c2 04 00	 ret	 4
?clear_debug_3d_graphics_event@@YGXPAUEVENT@@@Z ENDP	; clear_debug_3d_graphics_event
_TEXT	ENDS
; Function compile flags: /Odtp /ZI
; File c:\users\nhv90\projects\eech\aphavoc\source\events\ev_debug.c
;	COMDAT ?set_entity_group_leader_event@@YGXPAUEVENT@@@Z
_TEXT	SEGMENT
tv81 = -80						; size = 4
tv73 = -76						; size = 4
_group$ = -8						; size = 4
_en$ = -4						; size = 4
_ev$ = 8						; size = 4
?set_entity_group_leader_event@@YGXPAUEVENT@@@Z PROC	; set_entity_group_leader_event, COMDAT

; 1165 : {

  00000	55		 push	 ebp
  00001	8b ec		 mov	 ebp, esp
  00003	83 ec 50	 sub	 esp, 80			; 00000050H
  00006	53		 push	 ebx
  00007	56		 push	 esi
  00008	57		 push	 edi

; 1166 : 	entity
; 1167 : 		*en,
; 1168 : 		*group;
; 1169 : 
; 1170 : 	if (get_comms_model () == COMMS_MODEL_SERVER)

  00009	83 3d 00 00 00
	00 00		 cmp	 DWORD PTR ?system_comms_model@@3W4COMMS_MODEL_TYPES@@A, 0 ; system_comms_model
  00010	0f 85 b0 00 00
	00		 jne	 $LN1@set_entity

; 1171 : 	{
; 1172 : 		en = get_external_view_entity ();

  00016	e8 00 00 00 00	 call	 ?get_external_view_entity@@YGPAUENTITY@@XZ ; get_external_view_entity
  0001b	89 45 fc	 mov	 DWORD PTR _en$[ebp], eax

; 1173 : 
; 1174 : 		if (en)

  0001e	83 7d fc 00	 cmp	 DWORD PTR _en$[ebp], 0
  00022	0f 84 9e 00 00
	00		 je	 $LN1@set_entity

; 1175 : 		{
; 1176 : 			group = get_local_entity_parent (en, LIST_TYPE_MEMBER);

  00028	83 7d fc 00	 cmp	 DWORD PTR _en$[ebp], 0
  0002c	74 0a		 je	 SHORT $LN6@set_entity
  0002e	8b 45 fc	 mov	 eax, DWORD PTR _en$[ebp]
  00031	8b 08		 mov	 ecx, DWORD PTR [eax]
  00033	89 4d b4	 mov	 DWORD PTR tv73[ebp], ecx
  00036	eb 21		 jmp	 SHORT $LN7@set_entity
$LN6@set_entity:
  00038	8b 15 00 00 00
	00		 mov	 edx, DWORD PTR ?__LINE__Var@?0??set_entity_group_leader_event@@YGXPAUEVENT@@@Z@4JA
  0003e	83 c2 0b	 add	 edx, 11			; 0000000bH
  00041	52		 push	 edx
  00042	68 00 00 00 00	 push	 OFFSET ??_C@_0DO@EFGBNKOF@c?3?2users?2nhv90?2projects?2eech?2ap@
  00047	a1 00 00 00 00	 mov	 eax, DWORD PTR ?null_entity_pointer_message@@3PBDB ; null_entity_pointer_message
  0004c	50		 push	 eax
  0004d	e8 00 00 00 00	 call	 ?process_assert@@YGXPBD0H@Z ; process_assert
  00052	c7 45 b4 00 00
	00 00		 mov	 DWORD PTR tv73[ebp], 0
$LN7@set_entity:
  00059	b9 01 00 00 00	 mov	 ecx, 1
  0005e	85 c9		 test	 ecx, ecx
  00060	74 09		 je	 SHORT $LN8@set_entity
  00062	c7 45 b0 19 00
	00 00		 mov	 DWORD PTR tv81[ebp], 25	; 00000019H
  00069	eb 21		 jmp	 SHORT $LN9@set_entity
$LN8@set_entity:
  0006b	8b 15 00 00 00
	00		 mov	 edx, DWORD PTR ?__LINE__Var@?0??set_entity_group_leader_event@@YGXPAUEVENT@@@Z@4JA
  00071	83 c2 0b	 add	 edx, 11			; 0000000bH
  00074	52		 push	 edx
  00075	68 00 00 00 00	 push	 OFFSET ??_C@_0DO@EFGBNKOF@c?3?2users?2nhv90?2projects?2eech?2ap@
  0007a	a1 00 00 00 00	 mov	 eax, DWORD PTR ?overload_invalid_list_type_message@@3PBDB ; overload_invalid_list_type_message
  0007f	50		 push	 eax
  00080	e8 00 00 00 00	 call	 ?process_assert@@YGXPBD0H@Z ; process_assert
  00085	c7 45 b0 00 00
	00 00		 mov	 DWORD PTR tv81[ebp], 0
$LN9@set_entity:
  0008c	6a 19		 push	 25			; 00000019H
  0008e	8b 4d fc	 mov	 ecx, DWORD PTR _en$[ebp]
  00091	51		 push	 ecx
  00092	69 55 b4 b4 00
	00 00		 imul	 edx, DWORD PTR tv73[ebp], 180
  00099	8b 45 b0	 mov	 eax, DWORD PTR tv81[ebp]
  0009c	8b 8c 82 00 00
	00 00		 mov	 ecx, DWORD PTR ?fn_get_local_entity_parent@@3PAY0CN@P6GPAUENTITY@@PAU1@W4LIST_TYPES@@@ZA[edx+eax*4]
  000a3	ff d1		 call	 ecx
  000a5	89 45 f8	 mov	 DWORD PTR _group$[ebp], eax

; 1177 : 
; 1178 : 			if (group)

  000a8	83 7d f8 00	 cmp	 DWORD PTR _group$[ebp], 0
  000ac	74 18		 je	 SHORT $LN1@set_entity

; 1179 : 			{
; 1180 : 				set_client_server_entity_parent (en, LIST_TYPE_MEMBER, group);

  000ae	8b 45 f8	 mov	 eax, DWORD PTR _group$[ebp]
  000b1	50		 push	 eax
  000b2	6a 19		 push	 25			; 00000019H
  000b4	8b 4d fc	 mov	 ecx, DWORD PTR _en$[ebp]
  000b7	51		 push	 ecx
  000b8	e8 00 00 00 00	 call	 ?set_client_server_entity_parent@@YGXPAUENTITY@@W4LIST_TYPES@@0@Z ; set_client_server_entity_parent

; 1181 : 
; 1182 : 				set_group_member_numbers (group);

  000bd	8b 45 f8	 mov	 eax, DWORD PTR _group$[ebp]
  000c0	50		 push	 eax
  000c1	e8 00 00 00 00	 call	 ?set_group_member_numbers@@YGXPAUENTITY@@@Z ; set_group_member_numbers
$LN1@set_entity:

; 1183 : 			}
; 1184 : 		}
; 1185 : 	}
; 1186 : }

  000c6	5f		 pop	 edi
  000c7	5e		 pop	 esi
  000c8	5b		 pop	 ebx
  000c9	8b e5		 mov	 esp, ebp
  000cb	5d		 pop	 ebp
  000cc	c2 04 00	 ret	 4
?set_entity_group_leader_event@@YGXPAUEVENT@@@Z ENDP	; set_entity_group_leader_event
_TEXT	ENDS
; Function compile flags: /Odtp /ZI
; File c:\users\nhv90\projects\eech\aphavoc\source\events\ev_debug.c
;	COMDAT ?toggle_ai_invulnerable_event@@YGXPAUEVENT@@@Z
_TEXT	SEGMENT
_ev$ = 8						; size = 4
?toggle_ai_invulnerable_event@@YGXPAUEVENT@@@Z PROC	; toggle_ai_invulnerable_event, COMDAT

; 1149 : {

  00000	55		 push	 ebp
  00001	8b ec		 mov	 ebp, esp
  00003	83 ec 40	 sub	 esp, 64			; 00000040H
  00006	53		 push	 ebx
  00007	56		 push	 esi
  00008	57		 push	 edi

; 1150 : 	if (toggle_damage_debug_invulnerable_flag ())

  00009	e8 00 00 00 00	 call	 ?toggle_damage_debug_invulnerable_flag@@YGHXZ ; toggle_damage_debug_invulnerable_flag
  0000e	85 c0		 test	 eax, eax
  00010	74 11		 je	 SHORT $LN2@toggle_ai_

; 1151 : 	{
; 1152 : 		debug_colour_log (DEBUG_COLOUR_AMBER, "Enable AI invulnerable");

  00012	68 00 00 00 00	 push	 OFFSET ??_C@_0BH@BGFGDBHH@Enable?5AI?5invulnerable@
  00017	6a 17		 push	 23			; 00000017H
  00019	e8 00 00 00 00	 call	 ?debug_colour_log@@YAXW4DEBUG_COLOURS@@PBDZZ ; debug_colour_log
  0001e	83 c4 08	 add	 esp, 8

; 1153 : 	}
; 1154 : 	else

  00021	eb 0f		 jmp	 SHORT $LN1@toggle_ai_
$LN2@toggle_ai_:

; 1155 : 	{
; 1156 : 		debug_colour_log (DEBUG_COLOUR_AMBER, "Disable AI invulnerable");

  00023	68 00 00 00 00	 push	 OFFSET ??_C@_0BI@NBNAMOFF@Disable?5AI?5invulnerable@
  00028	6a 17		 push	 23			; 00000017H
  0002a	e8 00 00 00 00	 call	 ?debug_colour_log@@YAXW4DEBUG_COLOURS@@PBDZZ ; debug_colour_log
  0002f	83 c4 08	 add	 esp, 8
$LN1@toggle_ai_:

; 1157 : 	}
; 1158 : }

  00032	5f		 pop	 edi
  00033	5e		 pop	 esi
  00034	5b		 pop	 ebx
  00035	8b e5		 mov	 esp, ebp
  00037	5d		 pop	 ebp
  00038	c2 04 00	 ret	 4
?toggle_ai_invulnerable_event@@YGXPAUEVENT@@@Z ENDP	; toggle_ai_invulnerable_event
_TEXT	ENDS
; Function compile flags: /Odtp /ZI
; File c:\users\nhv90\projects\eech\aphavoc\source\events\ev_debug.c
;	COMDAT ?toggle_invulnerable_event@@YGXPAUEVENT@@@Z
_TEXT	SEGMENT
tv317 = -76						; size = 4
tv295 = -76						; size = 4
tv271 = -76						; size = 4
tv249 = -76						; size = 4
tv225 = -76						; size = 4
tv203 = -76						; size = 4
tv179 = -76						; size = 4
tv157 = -76						; size = 4
tv134 = -76						; size = 4
tv82 = -76						; size = 4
tv309 = -72						; size = 4
tv287 = -72						; size = 4
tv263 = -72						; size = 4
tv241 = -72						; size = 4
tv217 = -72						; size = 4
tv195 = -72						; size = 4
tv171 = -72						; size = 4
tv149 = -72						; size = 4
tv142 = -72						; size = 4
tv95 = -72						; size = 4
tv75 = -72						; size = 4
_current_inv$1 = -4					; size = 4
_ev$ = 8						; size = 4
?toggle_invulnerable_event@@YGXPAUEVENT@@@Z PROC	; toggle_invulnerable_event, COMDAT

; 1061 : {

  00000	55		 push	 ebp
  00001	8b ec		 mov	 ebp, esp
  00003	83 ec 4c	 sub	 esp, 76			; 0000004cH
  00006	53		 push	 ebx
  00007	56		 push	 esi
  00008	57		 push	 edi

; 1062 : 	ASSERT (get_session_entity ());

  00009	83 3d 00 00 00
	00 00		 cmp	 DWORD PTR ?session_entity@@3PAUENTITY@@A, 0 ; session_entity
  00010	75 18		 jne	 SHORT $LN4@toggle_inv
  00012	a1 00 00 00 00	 mov	 eax, DWORD PTR ?__LINE__Var@?0??toggle_invulnerable_event@@YGXPAUEVENT@@@Z@4JA
  00017	83 c0 01	 add	 eax, 1
  0001a	50		 push	 eax
  0001b	68 00 00 00 00	 push	 OFFSET ??_C@_0DO@EFGBNKOF@c?3?2users?2nhv90?2projects?2eech?2ap@
  00020	68 00 00 00 00	 push	 OFFSET ??_C@_0BG@EFCJJKAA@get_session_entity?5?$CI?$CJ@
  00025	e8 00 00 00 00	 call	 ?process_assert@@YGXPBD0H@Z ; process_assert
$LN4@toggle_inv:

; 1063 : 
; 1064 : 	if (get_comms_model () == COMMS_MODEL_SERVER)

  0002a	83 3d 00 00 00
	00 00		 cmp	 DWORD PTR ?system_comms_model@@3W4COMMS_MODEL_TYPES@@A, 0 ; system_comms_model
  00031	0f 85 00 06 00
	00		 jne	 $LN1@toggle_inv

; 1065 : 	{
; 1066 : 
; 1067 : 		int
; 1068 : 			current_inv;
; 1069 : 
; 1070 : 		// states :-
; 1071 : 		// 0 -> invulnerable from collisions
; 1072 : 		// 1 -> invulnerable from weapons
; 1073 : 		// 2 -> invulnerable from collisions and weapons
; 1074 : 		// 3 -> invulnerable from nothing
; 1075 : 
; 1076 : 		current_inv = 0;

  00037	c7 45 fc 00 00
	00 00		 mov	 DWORD PTR _current_inv$1[ebp], 0

; 1077 : 
; 1078 : 		if (get_local_entity_int_value (get_session_entity (), INT_TYPE_INVULNERABLE_FROM_COLLISIONS))

  0003e	83 3d 00 00 00
	00 00		 cmp	 DWORD PTR ?session_entity@@3PAUENTITY@@A, 0 ; session_entity
  00045	74 0c		 je	 SHORT $LN13@toggle_inv
  00047	a1 00 00 00 00	 mov	 eax, DWORD PTR ?session_entity@@3PAUENTITY@@A ; session_entity
  0004c	8b 08		 mov	 ecx, DWORD PTR [eax]
  0004e	89 4d b8	 mov	 DWORD PTR tv75[ebp], ecx
  00051	eb 1d		 jmp	 SHORT $LN14@toggle_inv
$LN13@toggle_inv:
  00053	68 36 04 00 00	 push	 1078			; 00000436H
  00058	68 00 00 00 00	 push	 OFFSET ??_C@_0DO@EFGBNKOF@c?3?2users?2nhv90?2projects?2eech?2ap@
  0005d	8b 15 00 00 00
	00		 mov	 edx, DWORD PTR ?null_entity_pointer_message@@3PBDB ; null_entity_pointer_message
  00063	52		 push	 edx
  00064	e8 00 00 00 00	 call	 ?process_assert@@YGXPBD0H@Z ; process_assert
  00069	c7 45 b8 00 00
	00 00		 mov	 DWORD PTR tv75[ebp], 0
$LN14@toggle_inv:
  00070	b8 01 00 00 00	 mov	 eax, 1
  00075	85 c0		 test	 eax, eax
  00077	74 09		 je	 SHORT $LN15@toggle_inv
  00079	c7 45 b4 6b 00
	00 00		 mov	 DWORD PTR tv82[ebp], 107 ; 0000006bH
  00080	eb 1d		 jmp	 SHORT $LN16@toggle_inv
$LN15@toggle_inv:
  00082	68 36 04 00 00	 push	 1078			; 00000436H
  00087	68 00 00 00 00	 push	 OFFSET ??_C@_0DO@EFGBNKOF@c?3?2users?2nhv90?2projects?2eech?2ap@
  0008c	8b 0d 00 00 00
	00		 mov	 ecx, DWORD PTR ?overload_invalid_int_type_message@@3PBDB ; overload_invalid_int_type_message
  00092	51		 push	 ecx
  00093	e8 00 00 00 00	 call	 ?process_assert@@YGXPBD0H@Z ; process_assert
  00098	c7 45 b4 00 00
	00 00		 mov	 DWORD PTR tv82[ebp], 0
$LN16@toggle_inv:
  0009f	6a 6b		 push	 107			; 0000006bH
  000a1	8b 15 00 00 00
	00		 mov	 edx, DWORD PTR ?session_entity@@3PAUENTITY@@A ; session_entity
  000a7	52		 push	 edx
  000a8	69 45 b8 5c 04
	00 00		 imul	 eax, DWORD PTR tv75[ebp], 1116
  000af	8b 4d b4	 mov	 ecx, DWORD PTR tv82[ebp]
  000b2	8b 94 88 00 00
	00 00		 mov	 edx, DWORD PTR ?fn_get_local_entity_int_value@@3PAY0BBH@P6GHPAUENTITY@@W4INT_TYPES@@@ZA[eax+ecx*4]
  000b9	ff d2		 call	 edx
  000bb	85 c0		 test	 eax, eax
  000bd	74 09		 je	 SHORT $LN6@toggle_inv

; 1079 : 		{
; 1080 : 
; 1081 : 			current_inv += 1;

  000bf	8b 45 fc	 mov	 eax, DWORD PTR _current_inv$1[ebp]
  000c2	83 c0 01	 add	 eax, 1
  000c5	89 45 fc	 mov	 DWORD PTR _current_inv$1[ebp], eax
$LN6@toggle_inv:

; 1082 : 		}
; 1083 : 
; 1084 : 		if (get_local_entity_int_value (get_session_entity (), INT_TYPE_INVULNERABLE_FROM_WEAPONS))

  000c8	83 3d 00 00 00
	00 00		 cmp	 DWORD PTR ?session_entity@@3PAUENTITY@@A, 0 ; session_entity
  000cf	74 0c		 je	 SHORT $LN17@toggle_inv
  000d1	a1 00 00 00 00	 mov	 eax, DWORD PTR ?session_entity@@3PAUENTITY@@A ; session_entity
  000d6	8b 08		 mov	 ecx, DWORD PTR [eax]
  000d8	89 4d b8	 mov	 DWORD PTR tv95[ebp], ecx
  000db	eb 1d		 jmp	 SHORT $LN18@toggle_inv
$LN17@toggle_inv:
  000dd	68 3c 04 00 00	 push	 1084			; 0000043cH
  000e2	68 00 00 00 00	 push	 OFFSET ??_C@_0DO@EFGBNKOF@c?3?2users?2nhv90?2projects?2eech?2ap@
  000e7	8b 15 00 00 00
	00		 mov	 edx, DWORD PTR ?null_entity_pointer_message@@3PBDB ; null_entity_pointer_message
  000ed	52		 push	 edx
  000ee	e8 00 00 00 00	 call	 ?process_assert@@YGXPBD0H@Z ; process_assert
  000f3	c7 45 b8 00 00
	00 00		 mov	 DWORD PTR tv95[ebp], 0
$LN18@toggle_inv:
  000fa	b8 01 00 00 00	 mov	 eax, 1
  000ff	85 c0		 test	 eax, eax
  00101	74 09		 je	 SHORT $LN19@toggle_inv
  00103	c7 45 b4 6c 00
	00 00		 mov	 DWORD PTR tv134[ebp], 108 ; 0000006cH
  0010a	eb 1d		 jmp	 SHORT $LN20@toggle_inv
$LN19@toggle_inv:
  0010c	68 3c 04 00 00	 push	 1084			; 0000043cH
  00111	68 00 00 00 00	 push	 OFFSET ??_C@_0DO@EFGBNKOF@c?3?2users?2nhv90?2projects?2eech?2ap@
  00116	8b 0d 00 00 00
	00		 mov	 ecx, DWORD PTR ?overload_invalid_int_type_message@@3PBDB ; overload_invalid_int_type_message
  0011c	51		 push	 ecx
  0011d	e8 00 00 00 00	 call	 ?process_assert@@YGXPBD0H@Z ; process_assert
  00122	c7 45 b4 00 00
	00 00		 mov	 DWORD PTR tv134[ebp], 0
$LN20@toggle_inv:
  00129	6a 6c		 push	 108			; 0000006cH
  0012b	8b 15 00 00 00
	00		 mov	 edx, DWORD PTR ?session_entity@@3PAUENTITY@@A ; session_entity
  00131	52		 push	 edx
  00132	69 45 b8 5c 04
	00 00		 imul	 eax, DWORD PTR tv95[ebp], 1116
  00139	8b 4d b4	 mov	 ecx, DWORD PTR tv134[ebp]
  0013c	8b 94 88 00 00
	00 00		 mov	 edx, DWORD PTR ?fn_get_local_entity_int_value@@3PAY0BBH@P6GHPAUENTITY@@W4INT_TYPES@@@ZA[eax+ecx*4]
  00143	ff d2		 call	 edx
  00145	85 c0		 test	 eax, eax
  00147	74 09		 je	 SHORT $LN7@toggle_inv

; 1085 : 		{
; 1086 : 
; 1087 : 			current_inv += 2;

  00149	8b 45 fc	 mov	 eax, DWORD PTR _current_inv$1[ebp]
  0014c	83 c0 02	 add	 eax, 2
  0014f	89 45 fc	 mov	 DWORD PTR _current_inv$1[ebp], eax
$LN7@toggle_inv:

; 1088 : 		}
; 1089 : 
; 1090 : 		switch (current_inv)

  00152	8b 45 fc	 mov	 eax, DWORD PTR _current_inv$1[ebp]
  00155	89 45 b8	 mov	 DWORD PTR tv142[ebp], eax
  00158	83 7d b8 03	 cmp	 DWORD PTR tv142[ebp], 3
  0015c	0f 87 d5 04 00
	00		 ja	 $LN1@toggle_inv
  00162	8b 4d b8	 mov	 ecx, DWORD PTR tv142[ebp]
  00165	ff 24 8d 00 00
	00 00		 jmp	 DWORD PTR $LN53@toggle_inv[ecx*4]
$LN8@toggle_inv:

; 1091 : 		{
; 1092 : 
; 1093 : 			case 0:
; 1094 : 			{
; 1095 : 
; 1096 : 				set_client_server_entity_int_value (get_session_entity (), INT_TYPE_INVULNERABLE_FROM_COLLISIONS, TRUE);

  0016c	83 3d 00 00 00
	00 00		 cmp	 DWORD PTR ?session_entity@@3PAUENTITY@@A, 0 ; session_entity
  00173	74 0c		 je	 SHORT $LN21@toggle_inv
  00175	a1 00 00 00 00	 mov	 eax, DWORD PTR ?session_entity@@3PAUENTITY@@A ; session_entity
  0017a	8b 08		 mov	 ecx, DWORD PTR [eax]
  0017c	89 4d b8	 mov	 DWORD PTR tv149[ebp], ecx
  0017f	eb 21		 jmp	 SHORT $LN22@toggle_inv
$LN21@toggle_inv:
  00181	8b 15 00 00 00
	00		 mov	 edx, DWORD PTR ?__LINE__Var@?0??toggle_invulnerable_event@@YGXPAUEVENT@@@Z@4JA
  00187	83 c2 23	 add	 edx, 35			; 00000023H
  0018a	52		 push	 edx
  0018b	68 00 00 00 00	 push	 OFFSET ??_C@_0DO@EFGBNKOF@c?3?2users?2nhv90?2projects?2eech?2ap@
  00190	a1 00 00 00 00	 mov	 eax, DWORD PTR ?null_entity_pointer_message@@3PBDB ; null_entity_pointer_message
  00195	50		 push	 eax
  00196	e8 00 00 00 00	 call	 ?process_assert@@YGXPBD0H@Z ; process_assert
  0019b	c7 45 b8 00 00
	00 00		 mov	 DWORD PTR tv149[ebp], 0
$LN22@toggle_inv:
  001a2	b9 01 00 00 00	 mov	 ecx, 1
  001a7	85 c9		 test	 ecx, ecx
  001a9	74 09		 je	 SHORT $LN23@toggle_inv
  001ab	c7 45 b4 6b 00
	00 00		 mov	 DWORD PTR tv157[ebp], 107 ; 0000006bH
  001b2	eb 21		 jmp	 SHORT $LN24@toggle_inv
$LN23@toggle_inv:
  001b4	8b 15 00 00 00
	00		 mov	 edx, DWORD PTR ?__LINE__Var@?0??toggle_invulnerable_event@@YGXPAUEVENT@@@Z@4JA
  001ba	83 c2 23	 add	 edx, 35			; 00000023H
  001bd	52		 push	 edx
  001be	68 00 00 00 00	 push	 OFFSET ??_C@_0DO@EFGBNKOF@c?3?2users?2nhv90?2projects?2eech?2ap@
  001c3	a1 00 00 00 00	 mov	 eax, DWORD PTR ?overload_invalid_int_type_message@@3PBDB ; overload_invalid_int_type_message
  001c8	50		 push	 eax
  001c9	e8 00 00 00 00	 call	 ?process_assert@@YGXPBD0H@Z ; process_assert
  001ce	c7 45 b4 00 00
	00 00		 mov	 DWORD PTR tv157[ebp], 0
$LN24@toggle_inv:
  001d5	6a 01		 push	 1
  001d7	6a 6b		 push	 107			; 0000006bH
  001d9	8b 0d 00 00 00
	00		 mov	 ecx, DWORD PTR ?session_entity@@3PAUENTITY@@A ; session_entity
  001df	51		 push	 ecx
  001e0	69 55 b8 b8 08
	00 00		 imul	 edx, DWORD PTR tv149[ebp], 2232
  001e7	8b 45 b4	 mov	 eax, DWORD PTR tv157[ebp]
  001ea	8d 8c c2 00 00
	00 00		 lea	 ecx, DWORD PTR ?fn_set_client_server_entity_int_value@@3PAY1BBH@1P6GXPAUENTITY@@W4INT_TYPES@@H@ZA[edx+eax*8]
  001f1	8b 15 00 00 00
	00		 mov	 edx, DWORD PTR ?system_comms_model@@3W4COMMS_MODEL_TYPES@@A ; system_comms_model
  001f7	8b 04 91	 mov	 eax, DWORD PTR [ecx+edx*4]
  001fa	ff d0		 call	 eax

; 1097 : 
; 1098 : 				set_client_server_entity_int_value (get_session_entity (), INT_TYPE_INVULNERABLE_FROM_WEAPONS, FALSE);

  001fc	83 3d 00 00 00
	00 00		 cmp	 DWORD PTR ?session_entity@@3PAUENTITY@@A, 0 ; session_entity
  00203	74 0c		 je	 SHORT $LN25@toggle_inv
  00205	a1 00 00 00 00	 mov	 eax, DWORD PTR ?session_entity@@3PAUENTITY@@A ; session_entity
  0020a	8b 08		 mov	 ecx, DWORD PTR [eax]
  0020c	89 4d b8	 mov	 DWORD PTR tv171[ebp], ecx
  0020f	eb 21		 jmp	 SHORT $LN26@toggle_inv
$LN25@toggle_inv:
  00211	8b 15 00 00 00
	00		 mov	 edx, DWORD PTR ?__LINE__Var@?0??toggle_invulnerable_event@@YGXPAUEVENT@@@Z@4JA
  00217	83 c2 25	 add	 edx, 37			; 00000025H
  0021a	52		 push	 edx
  0021b	68 00 00 00 00	 push	 OFFSET ??_C@_0DO@EFGBNKOF@c?3?2users?2nhv90?2projects?2eech?2ap@
  00220	a1 00 00 00 00	 mov	 eax, DWORD PTR ?null_entity_pointer_message@@3PBDB ; null_entity_pointer_message
  00225	50		 push	 eax
  00226	e8 00 00 00 00	 call	 ?process_assert@@YGXPBD0H@Z ; process_assert
  0022b	c7 45 b8 00 00
	00 00		 mov	 DWORD PTR tv171[ebp], 0
$LN26@toggle_inv:
  00232	b9 01 00 00 00	 mov	 ecx, 1
  00237	85 c9		 test	 ecx, ecx
  00239	74 09		 je	 SHORT $LN27@toggle_inv
  0023b	c7 45 b4 6c 00
	00 00		 mov	 DWORD PTR tv179[ebp], 108 ; 0000006cH
  00242	eb 21		 jmp	 SHORT $LN28@toggle_inv
$LN27@toggle_inv:
  00244	8b 15 00 00 00
	00		 mov	 edx, DWORD PTR ?__LINE__Var@?0??toggle_invulnerable_event@@YGXPAUEVENT@@@Z@4JA
  0024a	83 c2 25	 add	 edx, 37			; 00000025H
  0024d	52		 push	 edx
  0024e	68 00 00 00 00	 push	 OFFSET ??_C@_0DO@EFGBNKOF@c?3?2users?2nhv90?2projects?2eech?2ap@
  00253	a1 00 00 00 00	 mov	 eax, DWORD PTR ?overload_invalid_int_type_message@@3PBDB ; overload_invalid_int_type_message
  00258	50		 push	 eax
  00259	e8 00 00 00 00	 call	 ?process_assert@@YGXPBD0H@Z ; process_assert
  0025e	c7 45 b4 00 00
	00 00		 mov	 DWORD PTR tv179[ebp], 0
$LN28@toggle_inv:
  00265	6a 00		 push	 0
  00267	6a 6c		 push	 108			; 0000006cH
  00269	8b 0d 00 00 00
	00		 mov	 ecx, DWORD PTR ?session_entity@@3PAUENTITY@@A ; session_entity
  0026f	51		 push	 ecx
  00270	69 55 b8 b8 08
	00 00		 imul	 edx, DWORD PTR tv171[ebp], 2232
  00277	8b 45 b4	 mov	 eax, DWORD PTR tv179[ebp]
  0027a	8d 8c c2 00 00
	00 00		 lea	 ecx, DWORD PTR ?fn_set_client_server_entity_int_value@@3PAY1BBH@1P6GXPAUENTITY@@W4INT_TYPES@@H@ZA[edx+eax*8]
  00281	8b 15 00 00 00
	00		 mov	 edx, DWORD PTR ?system_comms_model@@3W4COMMS_MODEL_TYPES@@A ; system_comms_model
  00287	8b 04 91	 mov	 eax, DWORD PTR [ecx+edx*4]
  0028a	ff d0		 call	 eax

; 1099 : 
; 1100 : 				debug_colour_log (DEBUG_COLOUR_AMBER, "Invulnerable from COLLISIONS");

  0028c	68 00 00 00 00	 push	 OFFSET ??_C@_0BN@EDBLJMME@Invulnerable?5from?5COLLISIONS@
  00291	6a 17		 push	 23			; 00000017H
  00293	e8 00 00 00 00	 call	 ?debug_colour_log@@YAXW4DEBUG_COLOURS@@PBDZZ ; debug_colour_log
  00298	83 c4 08	 add	 esp, 8

; 1101 : 
; 1102 : 				break;

  0029b	e9 97 03 00 00	 jmp	 $LN1@toggle_inv
$LN9@toggle_inv:

; 1103 : 			}
; 1104 : 
; 1105 : 			case 1:
; 1106 : 			{
; 1107 : 
; 1108 : 				set_client_server_entity_int_value (get_session_entity (), INT_TYPE_INVULNERABLE_FROM_COLLISIONS, FALSE);

  002a0	83 3d 00 00 00
	00 00		 cmp	 DWORD PTR ?session_entity@@3PAUENTITY@@A, 0 ; session_entity
  002a7	74 0c		 je	 SHORT $LN29@toggle_inv
  002a9	a1 00 00 00 00	 mov	 eax, DWORD PTR ?session_entity@@3PAUENTITY@@A ; session_entity
  002ae	8b 08		 mov	 ecx, DWORD PTR [eax]
  002b0	89 4d b8	 mov	 DWORD PTR tv195[ebp], ecx
  002b3	eb 21		 jmp	 SHORT $LN30@toggle_inv
$LN29@toggle_inv:
  002b5	8b 15 00 00 00
	00		 mov	 edx, DWORD PTR ?__LINE__Var@?0??toggle_invulnerable_event@@YGXPAUEVENT@@@Z@4JA
  002bb	83 c2 2f	 add	 edx, 47			; 0000002fH
  002be	52		 push	 edx
  002bf	68 00 00 00 00	 push	 OFFSET ??_C@_0DO@EFGBNKOF@c?3?2users?2nhv90?2projects?2eech?2ap@
  002c4	a1 00 00 00 00	 mov	 eax, DWORD PTR ?null_entity_pointer_message@@3PBDB ; null_entity_pointer_message
  002c9	50		 push	 eax
  002ca	e8 00 00 00 00	 call	 ?process_assert@@YGXPBD0H@Z ; process_assert
  002cf	c7 45 b8 00 00
	00 00		 mov	 DWORD PTR tv195[ebp], 0
$LN30@toggle_inv:
  002d6	b9 01 00 00 00	 mov	 ecx, 1
  002db	85 c9		 test	 ecx, ecx
  002dd	74 09		 je	 SHORT $LN31@toggle_inv
  002df	c7 45 b4 6b 00
	00 00		 mov	 DWORD PTR tv203[ebp], 107 ; 0000006bH
  002e6	eb 21		 jmp	 SHORT $LN32@toggle_inv
$LN31@toggle_inv:
  002e8	8b 15 00 00 00
	00		 mov	 edx, DWORD PTR ?__LINE__Var@?0??toggle_invulnerable_event@@YGXPAUEVENT@@@Z@4JA
  002ee	83 c2 2f	 add	 edx, 47			; 0000002fH
  002f1	52		 push	 edx
  002f2	68 00 00 00 00	 push	 OFFSET ??_C@_0DO@EFGBNKOF@c?3?2users?2nhv90?2projects?2eech?2ap@
  002f7	a1 00 00 00 00	 mov	 eax, DWORD PTR ?overload_invalid_int_type_message@@3PBDB ; overload_invalid_int_type_message
  002fc	50		 push	 eax
  002fd	e8 00 00 00 00	 call	 ?process_assert@@YGXPBD0H@Z ; process_assert
  00302	c7 45 b4 00 00
	00 00		 mov	 DWORD PTR tv203[ebp], 0
$LN32@toggle_inv:
  00309	6a 00		 push	 0
  0030b	6a 6b		 push	 107			; 0000006bH
  0030d	8b 0d 00 00 00
	00		 mov	 ecx, DWORD PTR ?session_entity@@3PAUENTITY@@A ; session_entity
  00313	51		 push	 ecx
  00314	69 55 b8 b8 08
	00 00		 imul	 edx, DWORD PTR tv195[ebp], 2232
  0031b	8b 45 b4	 mov	 eax, DWORD PTR tv203[ebp]
  0031e	8d 8c c2 00 00
	00 00		 lea	 ecx, DWORD PTR ?fn_set_client_server_entity_int_value@@3PAY1BBH@1P6GXPAUENTITY@@W4INT_TYPES@@H@ZA[edx+eax*8]
  00325	8b 15 00 00 00
	00		 mov	 edx, DWORD PTR ?system_comms_model@@3W4COMMS_MODEL_TYPES@@A ; system_comms_model
  0032b	8b 04 91	 mov	 eax, DWORD PTR [ecx+edx*4]
  0032e	ff d0		 call	 eax

; 1109 : 
; 1110 : 				set_client_server_entity_int_value (get_session_entity (), INT_TYPE_INVULNERABLE_FROM_WEAPONS, TRUE);

  00330	83 3d 00 00 00
	00 00		 cmp	 DWORD PTR ?session_entity@@3PAUENTITY@@A, 0 ; session_entity
  00337	74 0c		 je	 SHORT $LN33@toggle_inv
  00339	a1 00 00 00 00	 mov	 eax, DWORD PTR ?session_entity@@3PAUENTITY@@A ; session_entity
  0033e	8b 08		 mov	 ecx, DWORD PTR [eax]
  00340	89 4d b8	 mov	 DWORD PTR tv217[ebp], ecx
  00343	eb 21		 jmp	 SHORT $LN34@toggle_inv
$LN33@toggle_inv:
  00345	8b 15 00 00 00
	00		 mov	 edx, DWORD PTR ?__LINE__Var@?0??toggle_invulnerable_event@@YGXPAUEVENT@@@Z@4JA
  0034b	83 c2 31	 add	 edx, 49			; 00000031H
  0034e	52		 push	 edx
  0034f	68 00 00 00 00	 push	 OFFSET ??_C@_0DO@EFGBNKOF@c?3?2users?2nhv90?2projects?2eech?2ap@
  00354	a1 00 00 00 00	 mov	 eax, DWORD PTR ?null_entity_pointer_message@@3PBDB ; null_entity_pointer_message
  00359	50		 push	 eax
  0035a	e8 00 00 00 00	 call	 ?process_assert@@YGXPBD0H@Z ; process_assert
  0035f	c7 45 b8 00 00
	00 00		 mov	 DWORD PTR tv217[ebp], 0
$LN34@toggle_inv:
  00366	b9 01 00 00 00	 mov	 ecx, 1
  0036b	85 c9		 test	 ecx, ecx
  0036d	74 09		 je	 SHORT $LN35@toggle_inv
  0036f	c7 45 b4 6c 00
	00 00		 mov	 DWORD PTR tv225[ebp], 108 ; 0000006cH
  00376	eb 21		 jmp	 SHORT $LN36@toggle_inv
$LN35@toggle_inv:
  00378	8b 15 00 00 00
	00		 mov	 edx, DWORD PTR ?__LINE__Var@?0??toggle_invulnerable_event@@YGXPAUEVENT@@@Z@4JA
  0037e	83 c2 31	 add	 edx, 49			; 00000031H
  00381	52		 push	 edx
  00382	68 00 00 00 00	 push	 OFFSET ??_C@_0DO@EFGBNKOF@c?3?2users?2nhv90?2projects?2eech?2ap@
  00387	a1 00 00 00 00	 mov	 eax, DWORD PTR ?overload_invalid_int_type_message@@3PBDB ; overload_invalid_int_type_message
  0038c	50		 push	 eax
  0038d	e8 00 00 00 00	 call	 ?process_assert@@YGXPBD0H@Z ; process_assert
  00392	c7 45 b4 00 00
	00 00		 mov	 DWORD PTR tv225[ebp], 0
$LN36@toggle_inv:
  00399	6a 01		 push	 1
  0039b	6a 6c		 push	 108			; 0000006cH
  0039d	8b 0d 00 00 00
	00		 mov	 ecx, DWORD PTR ?session_entity@@3PAUENTITY@@A ; session_entity
  003a3	51		 push	 ecx
  003a4	69 55 b8 b8 08
	00 00		 imul	 edx, DWORD PTR tv217[ebp], 2232
  003ab	8b 45 b4	 mov	 eax, DWORD PTR tv225[ebp]
  003ae	8d 8c c2 00 00
	00 00		 lea	 ecx, DWORD PTR ?fn_set_client_server_entity_int_value@@3PAY1BBH@1P6GXPAUENTITY@@W4INT_TYPES@@H@ZA[edx+eax*8]
  003b5	8b 15 00 00 00
	00		 mov	 edx, DWORD PTR ?system_comms_model@@3W4COMMS_MODEL_TYPES@@A ; system_comms_model
  003bb	8b 04 91	 mov	 eax, DWORD PTR [ecx+edx*4]
  003be	ff d0		 call	 eax

; 1111 : 
; 1112 : 				debug_colour_log (DEBUG_COLOUR_AMBER, "Invulnerable from WEAPONS");

  003c0	68 00 00 00 00	 push	 OFFSET ??_C@_0BK@OMFONAGP@Invulnerable?5from?5WEAPONS@
  003c5	6a 17		 push	 23			; 00000017H
  003c7	e8 00 00 00 00	 call	 ?debug_colour_log@@YAXW4DEBUG_COLOURS@@PBDZZ ; debug_colour_log
  003cc	83 c4 08	 add	 esp, 8

; 1113 : 
; 1114 : 				break;

  003cf	e9 63 02 00 00	 jmp	 $LN1@toggle_inv
$LN10@toggle_inv:

; 1115 : 			}
; 1116 : 
; 1117 : 			case 2:
; 1118 : 			{
; 1119 : 
; 1120 : 				set_client_server_entity_int_value (get_session_entity (), INT_TYPE_INVULNERABLE_FROM_COLLISIONS, TRUE);

  003d4	83 3d 00 00 00
	00 00		 cmp	 DWORD PTR ?session_entity@@3PAUENTITY@@A, 0 ; session_entity
  003db	74 0c		 je	 SHORT $LN37@toggle_inv
  003dd	a1 00 00 00 00	 mov	 eax, DWORD PTR ?session_entity@@3PAUENTITY@@A ; session_entity
  003e2	8b 08		 mov	 ecx, DWORD PTR [eax]
  003e4	89 4d b8	 mov	 DWORD PTR tv241[ebp], ecx
  003e7	eb 21		 jmp	 SHORT $LN38@toggle_inv
$LN37@toggle_inv:
  003e9	8b 15 00 00 00
	00		 mov	 edx, DWORD PTR ?__LINE__Var@?0??toggle_invulnerable_event@@YGXPAUEVENT@@@Z@4JA
  003ef	83 c2 3b	 add	 edx, 59			; 0000003bH
  003f2	52		 push	 edx
  003f3	68 00 00 00 00	 push	 OFFSET ??_C@_0DO@EFGBNKOF@c?3?2users?2nhv90?2projects?2eech?2ap@
  003f8	a1 00 00 00 00	 mov	 eax, DWORD PTR ?null_entity_pointer_message@@3PBDB ; null_entity_pointer_message
  003fd	50		 push	 eax
  003fe	e8 00 00 00 00	 call	 ?process_assert@@YGXPBD0H@Z ; process_assert
  00403	c7 45 b8 00 00
	00 00		 mov	 DWORD PTR tv241[ebp], 0
$LN38@toggle_inv:
  0040a	b9 01 00 00 00	 mov	 ecx, 1
  0040f	85 c9		 test	 ecx, ecx
  00411	74 09		 je	 SHORT $LN39@toggle_inv
  00413	c7 45 b4 6b 00
	00 00		 mov	 DWORD PTR tv249[ebp], 107 ; 0000006bH
  0041a	eb 21		 jmp	 SHORT $LN40@toggle_inv
$LN39@toggle_inv:
  0041c	8b 15 00 00 00
	00		 mov	 edx, DWORD PTR ?__LINE__Var@?0??toggle_invulnerable_event@@YGXPAUEVENT@@@Z@4JA
  00422	83 c2 3b	 add	 edx, 59			; 0000003bH
  00425	52		 push	 edx
  00426	68 00 00 00 00	 push	 OFFSET ??_C@_0DO@EFGBNKOF@c?3?2users?2nhv90?2projects?2eech?2ap@
  0042b	a1 00 00 00 00	 mov	 eax, DWORD PTR ?overload_invalid_int_type_message@@3PBDB ; overload_invalid_int_type_message
  00430	50		 push	 eax
  00431	e8 00 00 00 00	 call	 ?process_assert@@YGXPBD0H@Z ; process_assert
  00436	c7 45 b4 00 00
	00 00		 mov	 DWORD PTR tv249[ebp], 0
$LN40@toggle_inv:
  0043d	6a 01		 push	 1
  0043f	6a 6b		 push	 107			; 0000006bH
  00441	8b 0d 00 00 00
	00		 mov	 ecx, DWORD PTR ?session_entity@@3PAUENTITY@@A ; session_entity
  00447	51		 push	 ecx
  00448	69 55 b8 b8 08
	00 00		 imul	 edx, DWORD PTR tv241[ebp], 2232
  0044f	8b 45 b4	 mov	 eax, DWORD PTR tv249[ebp]
  00452	8d 8c c2 00 00
	00 00		 lea	 ecx, DWORD PTR ?fn_set_client_server_entity_int_value@@3PAY1BBH@1P6GXPAUENTITY@@W4INT_TYPES@@H@ZA[edx+eax*8]
  00459	8b 15 00 00 00
	00		 mov	 edx, DWORD PTR ?system_comms_model@@3W4COMMS_MODEL_TYPES@@A ; system_comms_model
  0045f	8b 04 91	 mov	 eax, DWORD PTR [ecx+edx*4]
  00462	ff d0		 call	 eax

; 1121 : 
; 1122 : 				set_client_server_entity_int_value (get_session_entity (), INT_TYPE_INVULNERABLE_FROM_WEAPONS, TRUE);

  00464	83 3d 00 00 00
	00 00		 cmp	 DWORD PTR ?session_entity@@3PAUENTITY@@A, 0 ; session_entity
  0046b	74 0c		 je	 SHORT $LN41@toggle_inv
  0046d	a1 00 00 00 00	 mov	 eax, DWORD PTR ?session_entity@@3PAUENTITY@@A ; session_entity
  00472	8b 08		 mov	 ecx, DWORD PTR [eax]
  00474	89 4d b8	 mov	 DWORD PTR tv263[ebp], ecx
  00477	eb 21		 jmp	 SHORT $LN42@toggle_inv
$LN41@toggle_inv:
  00479	8b 15 00 00 00
	00		 mov	 edx, DWORD PTR ?__LINE__Var@?0??toggle_invulnerable_event@@YGXPAUEVENT@@@Z@4JA
  0047f	83 c2 3d	 add	 edx, 61			; 0000003dH
  00482	52		 push	 edx
  00483	68 00 00 00 00	 push	 OFFSET ??_C@_0DO@EFGBNKOF@c?3?2users?2nhv90?2projects?2eech?2ap@
  00488	a1 00 00 00 00	 mov	 eax, DWORD PTR ?null_entity_pointer_message@@3PBDB ; null_entity_pointer_message
  0048d	50		 push	 eax
  0048e	e8 00 00 00 00	 call	 ?process_assert@@YGXPBD0H@Z ; process_assert
  00493	c7 45 b8 00 00
	00 00		 mov	 DWORD PTR tv263[ebp], 0
$LN42@toggle_inv:
  0049a	b9 01 00 00 00	 mov	 ecx, 1
  0049f	85 c9		 test	 ecx, ecx
  004a1	74 09		 je	 SHORT $LN43@toggle_inv
  004a3	c7 45 b4 6c 00
	00 00		 mov	 DWORD PTR tv271[ebp], 108 ; 0000006cH
  004aa	eb 21		 jmp	 SHORT $LN44@toggle_inv
$LN43@toggle_inv:
  004ac	8b 15 00 00 00
	00		 mov	 edx, DWORD PTR ?__LINE__Var@?0??toggle_invulnerable_event@@YGXPAUEVENT@@@Z@4JA
  004b2	83 c2 3d	 add	 edx, 61			; 0000003dH
  004b5	52		 push	 edx
  004b6	68 00 00 00 00	 push	 OFFSET ??_C@_0DO@EFGBNKOF@c?3?2users?2nhv90?2projects?2eech?2ap@
  004bb	a1 00 00 00 00	 mov	 eax, DWORD PTR ?overload_invalid_int_type_message@@3PBDB ; overload_invalid_int_type_message
  004c0	50		 push	 eax
  004c1	e8 00 00 00 00	 call	 ?process_assert@@YGXPBD0H@Z ; process_assert
  004c6	c7 45 b4 00 00
	00 00		 mov	 DWORD PTR tv271[ebp], 0
$LN44@toggle_inv:
  004cd	6a 01		 push	 1
  004cf	6a 6c		 push	 108			; 0000006cH
  004d1	8b 0d 00 00 00
	00		 mov	 ecx, DWORD PTR ?session_entity@@3PAUENTITY@@A ; session_entity
  004d7	51		 push	 ecx
  004d8	69 55 b8 b8 08
	00 00		 imul	 edx, DWORD PTR tv263[ebp], 2232
  004df	8b 45 b4	 mov	 eax, DWORD PTR tv271[ebp]
  004e2	8d 8c c2 00 00
	00 00		 lea	 ecx, DWORD PTR ?fn_set_client_server_entity_int_value@@3PAY1BBH@1P6GXPAUENTITY@@W4INT_TYPES@@H@ZA[edx+eax*8]
  004e9	8b 15 00 00 00
	00		 mov	 edx, DWORD PTR ?system_comms_model@@3W4COMMS_MODEL_TYPES@@A ; system_comms_model
  004ef	8b 04 91	 mov	 eax, DWORD PTR [ecx+edx*4]
  004f2	ff d0		 call	 eax

; 1123 : 
; 1124 : 				debug_colour_log (DEBUG_COLOUR_AMBER, "Invulnerable from COLLISIONS and WEAPONS");

  004f4	68 00 00 00 00	 push	 OFFSET ??_C@_0CJ@HNAKGFBB@Invulnerable?5from?5COLLISIONS?5an@
  004f9	6a 17		 push	 23			; 00000017H
  004fb	e8 00 00 00 00	 call	 ?debug_colour_log@@YAXW4DEBUG_COLOURS@@PBDZZ ; debug_colour_log
  00500	83 c4 08	 add	 esp, 8

; 1125 : 
; 1126 : 				break;

  00503	e9 2f 01 00 00	 jmp	 $LN1@toggle_inv
$LN11@toggle_inv:

; 1127 : 			}
; 1128 : 
; 1129 : 			case 3:
; 1130 : 			{
; 1131 : 
; 1132 : 				set_client_server_entity_int_value (get_session_entity (), INT_TYPE_INVULNERABLE_FROM_COLLISIONS, FALSE);

  00508	83 3d 00 00 00
	00 00		 cmp	 DWORD PTR ?session_entity@@3PAUENTITY@@A, 0 ; session_entity
  0050f	74 0c		 je	 SHORT $LN45@toggle_inv
  00511	a1 00 00 00 00	 mov	 eax, DWORD PTR ?session_entity@@3PAUENTITY@@A ; session_entity
  00516	8b 08		 mov	 ecx, DWORD PTR [eax]
  00518	89 4d b8	 mov	 DWORD PTR tv287[ebp], ecx
  0051b	eb 21		 jmp	 SHORT $LN46@toggle_inv
$LN45@toggle_inv:
  0051d	8b 15 00 00 00
	00		 mov	 edx, DWORD PTR ?__LINE__Var@?0??toggle_invulnerable_event@@YGXPAUEVENT@@@Z@4JA
  00523	83 c2 47	 add	 edx, 71			; 00000047H
  00526	52		 push	 edx
  00527	68 00 00 00 00	 push	 OFFSET ??_C@_0DO@EFGBNKOF@c?3?2users?2nhv90?2projects?2eech?2ap@
  0052c	a1 00 00 00 00	 mov	 eax, DWORD PTR ?null_entity_pointer_message@@3PBDB ; null_entity_pointer_message
  00531	50		 push	 eax
  00532	e8 00 00 00 00	 call	 ?process_assert@@YGXPBD0H@Z ; process_assert
  00537	c7 45 b8 00 00
	00 00		 mov	 DWORD PTR tv287[ebp], 0
$LN46@toggle_inv:
  0053e	b9 01 00 00 00	 mov	 ecx, 1
  00543	85 c9		 test	 ecx, ecx
  00545	74 09		 je	 SHORT $LN47@toggle_inv
  00547	c7 45 b4 6b 00
	00 00		 mov	 DWORD PTR tv295[ebp], 107 ; 0000006bH
  0054e	eb 21		 jmp	 SHORT $LN48@toggle_inv
$LN47@toggle_inv:
  00550	8b 15 00 00 00
	00		 mov	 edx, DWORD PTR ?__LINE__Var@?0??toggle_invulnerable_event@@YGXPAUEVENT@@@Z@4JA
  00556	83 c2 47	 add	 edx, 71			; 00000047H
  00559	52		 push	 edx
  0055a	68 00 00 00 00	 push	 OFFSET ??_C@_0DO@EFGBNKOF@c?3?2users?2nhv90?2projects?2eech?2ap@
  0055f	a1 00 00 00 00	 mov	 eax, DWORD PTR ?overload_invalid_int_type_message@@3PBDB ; overload_invalid_int_type_message
  00564	50		 push	 eax
  00565	e8 00 00 00 00	 call	 ?process_assert@@YGXPBD0H@Z ; process_assert
  0056a	c7 45 b4 00 00
	00 00		 mov	 DWORD PTR tv295[ebp], 0
$LN48@toggle_inv:
  00571	6a 00		 push	 0
  00573	6a 6b		 push	 107			; 0000006bH
  00575	8b 0d 00 00 00
	00		 mov	 ecx, DWORD PTR ?session_entity@@3PAUENTITY@@A ; session_entity
  0057b	51		 push	 ecx
  0057c	69 55 b8 b8 08
	00 00		 imul	 edx, DWORD PTR tv287[ebp], 2232
  00583	8b 45 b4	 mov	 eax, DWORD PTR tv295[ebp]
  00586	8d 8c c2 00 00
	00 00		 lea	 ecx, DWORD PTR ?fn_set_client_server_entity_int_value@@3PAY1BBH@1P6GXPAUENTITY@@W4INT_TYPES@@H@ZA[edx+eax*8]
  0058d	8b 15 00 00 00
	00		 mov	 edx, DWORD PTR ?system_comms_model@@3W4COMMS_MODEL_TYPES@@A ; system_comms_model
  00593	8b 04 91	 mov	 eax, DWORD PTR [ecx+edx*4]
  00596	ff d0		 call	 eax

; 1133 : 
; 1134 : 				set_client_server_entity_int_value (get_session_entity (), INT_TYPE_INVULNERABLE_FROM_WEAPONS, FALSE);

  00598	83 3d 00 00 00
	00 00		 cmp	 DWORD PTR ?session_entity@@3PAUENTITY@@A, 0 ; session_entity
  0059f	74 0c		 je	 SHORT $LN49@toggle_inv
  005a1	a1 00 00 00 00	 mov	 eax, DWORD PTR ?session_entity@@3PAUENTITY@@A ; session_entity
  005a6	8b 08		 mov	 ecx, DWORD PTR [eax]
  005a8	89 4d b8	 mov	 DWORD PTR tv309[ebp], ecx
  005ab	eb 21		 jmp	 SHORT $LN50@toggle_inv
$LN49@toggle_inv:
  005ad	8b 15 00 00 00
	00		 mov	 edx, DWORD PTR ?__LINE__Var@?0??toggle_invulnerable_event@@YGXPAUEVENT@@@Z@4JA
  005b3	83 c2 49	 add	 edx, 73			; 00000049H
  005b6	52		 push	 edx
  005b7	68 00 00 00 00	 push	 OFFSET ??_C@_0DO@EFGBNKOF@c?3?2users?2nhv90?2projects?2eech?2ap@
  005bc	a1 00 00 00 00	 mov	 eax, DWORD PTR ?null_entity_pointer_message@@3PBDB ; null_entity_pointer_message
  005c1	50		 push	 eax
  005c2	e8 00 00 00 00	 call	 ?process_assert@@YGXPBD0H@Z ; process_assert
  005c7	c7 45 b8 00 00
	00 00		 mov	 DWORD PTR tv309[ebp], 0
$LN50@toggle_inv:
  005ce	b9 01 00 00 00	 mov	 ecx, 1
  005d3	85 c9		 test	 ecx, ecx
  005d5	74 09		 je	 SHORT $LN51@toggle_inv
  005d7	c7 45 b4 6c 00
	00 00		 mov	 DWORD PTR tv317[ebp], 108 ; 0000006cH
  005de	eb 21		 jmp	 SHORT $LN52@toggle_inv
$LN51@toggle_inv:
  005e0	8b 15 00 00 00
	00		 mov	 edx, DWORD PTR ?__LINE__Var@?0??toggle_invulnerable_event@@YGXPAUEVENT@@@Z@4JA
  005e6	83 c2 49	 add	 edx, 73			; 00000049H
  005e9	52		 push	 edx
  005ea	68 00 00 00 00	 push	 OFFSET ??_C@_0DO@EFGBNKOF@c?3?2users?2nhv90?2projects?2eech?2ap@
  005ef	a1 00 00 00 00	 mov	 eax, DWORD PTR ?overload_invalid_int_type_message@@3PBDB ; overload_invalid_int_type_message
  005f4	50		 push	 eax
  005f5	e8 00 00 00 00	 call	 ?process_assert@@YGXPBD0H@Z ; process_assert
  005fa	c7 45 b4 00 00
	00 00		 mov	 DWORD PTR tv317[ebp], 0
$LN52@toggle_inv:
  00601	6a 00		 push	 0
  00603	6a 6c		 push	 108			; 0000006cH
  00605	8b 0d 00 00 00
	00		 mov	 ecx, DWORD PTR ?session_entity@@3PAUENTITY@@A ; session_entity
  0060b	51		 push	 ecx
  0060c	69 55 b8 b8 08
	00 00		 imul	 edx, DWORD PTR tv309[ebp], 2232
  00613	8b 45 b4	 mov	 eax, DWORD PTR tv317[ebp]
  00616	8d 8c c2 00 00
	00 00		 lea	 ecx, DWORD PTR ?fn_set_client_server_entity_int_value@@3PAY1BBH@1P6GXPAUENTITY@@W4INT_TYPES@@H@ZA[edx+eax*8]
  0061d	8b 15 00 00 00
	00		 mov	 edx, DWORD PTR ?system_comms_model@@3W4COMMS_MODEL_TYPES@@A ; system_comms_model
  00623	8b 04 91	 mov	 eax, DWORD PTR [ecx+edx*4]
  00626	ff d0		 call	 eax

; 1135 : 
; 1136 : 				debug_colour_log (DEBUG_COLOUR_AMBER, "Disable invulnerable");

  00628	68 00 00 00 00	 push	 OFFSET ??_C@_0BF@BLKHFHGB@Disable?5invulnerable@
  0062d	6a 17		 push	 23			; 00000017H
  0062f	e8 00 00 00 00	 call	 ?debug_colour_log@@YAXW4DEBUG_COLOURS@@PBDZZ ; debug_colour_log
  00634	83 c4 08	 add	 esp, 8
$LN1@toggle_inv:

; 1137 : 
; 1138 : 				break;
; 1139 : 			}
; 1140 : 		}
; 1141 : 	}
; 1142 : }

  00637	5f		 pop	 edi
  00638	5e		 pop	 esi
  00639	5b		 pop	 ebx
  0063a	8b e5		 mov	 esp, ebp
  0063c	5d		 pop	 ebp
  0063d	c2 04 00	 ret	 4
$LN53@toggle_inv:
  00640	00 00 00 00	 DD	 $LN8@toggle_inv
  00644	00 00 00 00	 DD	 $LN9@toggle_inv
  00648	00 00 00 00	 DD	 $LN10@toggle_inv
  0064c	00 00 00 00	 DD	 $LN11@toggle_inv
?toggle_invulnerable_event@@YGXPAUEVENT@@@Z ENDP	; toggle_invulnerable_event
_TEXT	ENDS
; Function compile flags: /Odtp /ZI
; File c:\users\nhv90\projects\eech\aphavoc\source\events\ev_debug.c
;	COMDAT ?toggle_suppress_ai_fire_event@@YGXPAUEVENT@@@Z
_TEXT	SEGMENT
tv159 = -72						; size = 4
tv135 = -72						; size = 4
tv82 = -72						; size = 4
tv151 = -68						; size = 4
tv95 = -68						; size = 4
tv75 = -68						; size = 4
_ev$ = 8						; size = 4
?toggle_suppress_ai_fire_event@@YGXPAUEVENT@@@Z PROC	; toggle_suppress_ai_fire_event, COMDAT

; 1036 : {

  00000	55		 push	 ebp
  00001	8b ec		 mov	 ebp, esp
  00003	83 ec 48	 sub	 esp, 72			; 00000048H
  00006	53		 push	 ebx
  00007	56		 push	 esi
  00008	57		 push	 edi

; 1037 : 	ASSERT (get_session_entity ());

  00009	83 3d 00 00 00
	00 00		 cmp	 DWORD PTR ?session_entity@@3PAUENTITY@@A, 0 ; session_entity
  00010	75 18		 jne	 SHORT $LN2@toggle_sup
  00012	a1 00 00 00 00	 mov	 eax, DWORD PTR ?__LINE__Var@?0??toggle_suppress_ai_fire_event@@YGXPAUEVENT@@@Z@4JA
  00017	83 c0 01	 add	 eax, 1
  0001a	50		 push	 eax
  0001b	68 00 00 00 00	 push	 OFFSET ??_C@_0DO@EFGBNKOF@c?3?2users?2nhv90?2projects?2eech?2ap@
  00020	68 00 00 00 00	 push	 OFFSET ??_C@_0BG@EFCJJKAA@get_session_entity?5?$CI?$CJ@
  00025	e8 00 00 00 00	 call	 ?process_assert@@YGXPBD0H@Z ; process_assert
$LN2@toggle_sup:

; 1038 : 
; 1039 : 	if (get_comms_model () == COMMS_MODEL_SERVER)

  0002a	83 3d 00 00 00
	00 00		 cmp	 DWORD PTR ?system_comms_model@@3W4COMMS_MODEL_TYPES@@A, 0 ; system_comms_model
  00031	0f 85 d1 01 00
	00		 jne	 $LN1@toggle_sup

; 1040 : 	{
; 1041 : 		if (get_local_entity_int_value (get_session_entity (), INT_TYPE_SUPPRESS_AI_FIRE))

  00037	83 3d 00 00 00
	00 00		 cmp	 DWORD PTR ?session_entity@@3PAUENTITY@@A, 0 ; session_entity
  0003e	74 0c		 je	 SHORT $LN7@toggle_sup
  00040	a1 00 00 00 00	 mov	 eax, DWORD PTR ?session_entity@@3PAUENTITY@@A ; session_entity
  00045	8b 08		 mov	 ecx, DWORD PTR [eax]
  00047	89 4d bc	 mov	 DWORD PTR tv75[ebp], ecx
  0004a	eb 1d		 jmp	 SHORT $LN8@toggle_sup
$LN7@toggle_sup:
  0004c	68 11 04 00 00	 push	 1041			; 00000411H
  00051	68 00 00 00 00	 push	 OFFSET ??_C@_0DO@EFGBNKOF@c?3?2users?2nhv90?2projects?2eech?2ap@
  00056	8b 15 00 00 00
	00		 mov	 edx, DWORD PTR ?null_entity_pointer_message@@3PBDB ; null_entity_pointer_message
  0005c	52		 push	 edx
  0005d	e8 00 00 00 00	 call	 ?process_assert@@YGXPBD0H@Z ; process_assert
  00062	c7 45 bc 00 00
	00 00		 mov	 DWORD PTR tv75[ebp], 0
$LN8@toggle_sup:
  00069	b8 01 00 00 00	 mov	 eax, 1
  0006e	85 c0		 test	 eax, eax
  00070	74 09		 je	 SHORT $LN9@toggle_sup
  00072	c7 45 b8 d0 00
	00 00		 mov	 DWORD PTR tv82[ebp], 208 ; 000000d0H
  00079	eb 1d		 jmp	 SHORT $LN10@toggle_sup
$LN9@toggle_sup:
  0007b	68 11 04 00 00	 push	 1041			; 00000411H
  00080	68 00 00 00 00	 push	 OFFSET ??_C@_0DO@EFGBNKOF@c?3?2users?2nhv90?2projects?2eech?2ap@
  00085	8b 0d 00 00 00
	00		 mov	 ecx, DWORD PTR ?overload_invalid_int_type_message@@3PBDB ; overload_invalid_int_type_message
  0008b	51		 push	 ecx
  0008c	e8 00 00 00 00	 call	 ?process_assert@@YGXPBD0H@Z ; process_assert
  00091	c7 45 b8 00 00
	00 00		 mov	 DWORD PTR tv82[ebp], 0
$LN10@toggle_sup:
  00098	68 d0 00 00 00	 push	 208			; 000000d0H
  0009d	8b 15 00 00 00
	00		 mov	 edx, DWORD PTR ?session_entity@@3PAUENTITY@@A ; session_entity
  000a3	52		 push	 edx
  000a4	69 45 bc 5c 04
	00 00		 imul	 eax, DWORD PTR tv75[ebp], 1116
  000ab	8b 4d b8	 mov	 ecx, DWORD PTR tv82[ebp]
  000ae	8b 94 88 00 00
	00 00		 mov	 edx, DWORD PTR ?fn_get_local_entity_int_value@@3PAY0BBH@P6GHPAUENTITY@@W4INT_TYPES@@@ZA[eax+ecx*4]
  000b5	ff d2		 call	 edx
  000b7	85 c0		 test	 eax, eax
  000b9	0f 84 a7 00 00
	00		 je	 $LN4@toggle_sup

; 1042 : 		{
; 1043 : 			set_client_server_entity_int_value (get_session_entity (), INT_TYPE_SUPPRESS_AI_FIRE, FALSE);

  000bf	83 3d 00 00 00
	00 00		 cmp	 DWORD PTR ?session_entity@@3PAUENTITY@@A, 0 ; session_entity
  000c6	74 0c		 je	 SHORT $LN11@toggle_sup
  000c8	a1 00 00 00 00	 mov	 eax, DWORD PTR ?session_entity@@3PAUENTITY@@A ; session_entity
  000cd	8b 08		 mov	 ecx, DWORD PTR [eax]
  000cf	89 4d bc	 mov	 DWORD PTR tv95[ebp], ecx
  000d2	eb 21		 jmp	 SHORT $LN12@toggle_sup
$LN11@toggle_sup:
  000d4	8b 15 00 00 00
	00		 mov	 edx, DWORD PTR ?__LINE__Var@?0??toggle_suppress_ai_fire_event@@YGXPAUEVENT@@@Z@4JA
  000da	83 c2 07	 add	 edx, 7
  000dd	52		 push	 edx
  000de	68 00 00 00 00	 push	 OFFSET ??_C@_0DO@EFGBNKOF@c?3?2users?2nhv90?2projects?2eech?2ap@
  000e3	a1 00 00 00 00	 mov	 eax, DWORD PTR ?null_entity_pointer_message@@3PBDB ; null_entity_pointer_message
  000e8	50		 push	 eax
  000e9	e8 00 00 00 00	 call	 ?process_assert@@YGXPBD0H@Z ; process_assert
  000ee	c7 45 bc 00 00
	00 00		 mov	 DWORD PTR tv95[ebp], 0
$LN12@toggle_sup:
  000f5	b9 01 00 00 00	 mov	 ecx, 1
  000fa	85 c9		 test	 ecx, ecx
  000fc	74 09		 je	 SHORT $LN13@toggle_sup
  000fe	c7 45 b8 d0 00
	00 00		 mov	 DWORD PTR tv135[ebp], 208 ; 000000d0H
  00105	eb 21		 jmp	 SHORT $LN14@toggle_sup
$LN13@toggle_sup:
  00107	8b 15 00 00 00
	00		 mov	 edx, DWORD PTR ?__LINE__Var@?0??toggle_suppress_ai_fire_event@@YGXPAUEVENT@@@Z@4JA
  0010d	83 c2 07	 add	 edx, 7
  00110	52		 push	 edx
  00111	68 00 00 00 00	 push	 OFFSET ??_C@_0DO@EFGBNKOF@c?3?2users?2nhv90?2projects?2eech?2ap@
  00116	a1 00 00 00 00	 mov	 eax, DWORD PTR ?overload_invalid_int_type_message@@3PBDB ; overload_invalid_int_type_message
  0011b	50		 push	 eax
  0011c	e8 00 00 00 00	 call	 ?process_assert@@YGXPBD0H@Z ; process_assert
  00121	c7 45 b8 00 00
	00 00		 mov	 DWORD PTR tv135[ebp], 0
$LN14@toggle_sup:
  00128	6a 00		 push	 0
  0012a	68 d0 00 00 00	 push	 208			; 000000d0H
  0012f	8b 0d 00 00 00
	00		 mov	 ecx, DWORD PTR ?session_entity@@3PAUENTITY@@A ; session_entity
  00135	51		 push	 ecx
  00136	69 55 bc b8 08
	00 00		 imul	 edx, DWORD PTR tv95[ebp], 2232
  0013d	8b 45 b8	 mov	 eax, DWORD PTR tv135[ebp]
  00140	8d 8c c2 00 00
	00 00		 lea	 ecx, DWORD PTR ?fn_set_client_server_entity_int_value@@3PAY1BBH@1P6GXPAUENTITY@@W4INT_TYPES@@H@ZA[edx+eax*8]
  00147	8b 15 00 00 00
	00		 mov	 edx, DWORD PTR ?system_comms_model@@3W4COMMS_MODEL_TYPES@@A ; system_comms_model
  0014d	8b 04 91	 mov	 eax, DWORD PTR [ecx+edx*4]
  00150	ff d0		 call	 eax

; 1044 : 
; 1045 : 			debug_colour_log (DEBUG_COLOUR_AMBER, "Disable suppress AI fire");

  00152	68 00 00 00 00	 push	 OFFSET ??_C@_0BJ@ELMDCPHG@Disable?5suppress?5AI?5fire@
  00157	6a 17		 push	 23			; 00000017H
  00159	e8 00 00 00 00	 call	 ?debug_colour_log@@YAXW4DEBUG_COLOURS@@PBDZZ ; debug_colour_log
  0015e	83 c4 08	 add	 esp, 8

; 1046 : 		}
; 1047 : 		else

  00161	e9 a2 00 00 00	 jmp	 $LN1@toggle_sup
$LN4@toggle_sup:

; 1048 : 		{
; 1049 : 			set_client_server_entity_int_value (get_session_entity (), INT_TYPE_SUPPRESS_AI_FIRE, TRUE);

  00166	83 3d 00 00 00
	00 00		 cmp	 DWORD PTR ?session_entity@@3PAUENTITY@@A, 0 ; session_entity
  0016d	74 0c		 je	 SHORT $LN15@toggle_sup
  0016f	a1 00 00 00 00	 mov	 eax, DWORD PTR ?session_entity@@3PAUENTITY@@A ; session_entity
  00174	8b 08		 mov	 ecx, DWORD PTR [eax]
  00176	89 4d bc	 mov	 DWORD PTR tv151[ebp], ecx
  00179	eb 21		 jmp	 SHORT $LN16@toggle_sup
$LN15@toggle_sup:
  0017b	8b 15 00 00 00
	00		 mov	 edx, DWORD PTR ?__LINE__Var@?0??toggle_suppress_ai_fire_event@@YGXPAUEVENT@@@Z@4JA
  00181	83 c2 0d	 add	 edx, 13			; 0000000dH
  00184	52		 push	 edx
  00185	68 00 00 00 00	 push	 OFFSET ??_C@_0DO@EFGBNKOF@c?3?2users?2nhv90?2projects?2eech?2ap@
  0018a	a1 00 00 00 00	 mov	 eax, DWORD PTR ?null_entity_pointer_message@@3PBDB ; null_entity_pointer_message
  0018f	50		 push	 eax
  00190	e8 00 00 00 00	 call	 ?process_assert@@YGXPBD0H@Z ; process_assert
  00195	c7 45 bc 00 00
	00 00		 mov	 DWORD PTR tv151[ebp], 0
$LN16@toggle_sup:
  0019c	b9 01 00 00 00	 mov	 ecx, 1
  001a1	85 c9		 test	 ecx, ecx
  001a3	74 09		 je	 SHORT $LN17@toggle_sup
  001a5	c7 45 b8 d0 00
	00 00		 mov	 DWORD PTR tv159[ebp], 208 ; 000000d0H
  001ac	eb 21		 jmp	 SHORT $LN18@toggle_sup
$LN17@toggle_sup:
  001ae	8b 15 00 00 00
	00		 mov	 edx, DWORD PTR ?__LINE__Var@?0??toggle_suppress_ai_fire_event@@YGXPAUEVENT@@@Z@4JA
  001b4	83 c2 0d	 add	 edx, 13			; 0000000dH
  001b7	52		 push	 edx
  001b8	68 00 00 00 00	 push	 OFFSET ??_C@_0DO@EFGBNKOF@c?3?2users?2nhv90?2projects?2eech?2ap@
  001bd	a1 00 00 00 00	 mov	 eax, DWORD PTR ?overload_invalid_int_type_message@@3PBDB ; overload_invalid_int_type_message
  001c2	50		 push	 eax
  001c3	e8 00 00 00 00	 call	 ?process_assert@@YGXPBD0H@Z ; process_assert
  001c8	c7 45 b8 00 00
	00 00		 mov	 DWORD PTR tv159[ebp], 0
$LN18@toggle_sup:
  001cf	6a 01		 push	 1
  001d1	68 d0 00 00 00	 push	 208			; 000000d0H
  001d6	8b 0d 00 00 00
	00		 mov	 ecx, DWORD PTR ?session_entity@@3PAUENTITY@@A ; session_entity
  001dc	51		 push	 ecx
  001dd	69 55 bc b8 08
	00 00		 imul	 edx, DWORD PTR tv151[ebp], 2232
  001e4	8b 45 b8	 mov	 eax, DWORD PTR tv159[ebp]
  001e7	8d 8c c2 00 00
	00 00		 lea	 ecx, DWORD PTR ?fn_set_client_server_entity_int_value@@3PAY1BBH@1P6GXPAUENTITY@@W4INT_TYPES@@H@ZA[edx+eax*8]
  001ee	8b 15 00 00 00
	00		 mov	 edx, DWORD PTR ?system_comms_model@@3W4COMMS_MODEL_TYPES@@A ; system_comms_model
  001f4	8b 04 91	 mov	 eax, DWORD PTR [ecx+edx*4]
  001f7	ff d0		 call	 eax

; 1050 : 
; 1051 : 			debug_colour_log (DEBUG_COLOUR_AMBER, "Enable suppress AI fire");

  001f9	68 00 00 00 00	 push	 OFFSET ??_C@_0BI@JOGEOIGN@Enable?5suppress?5AI?5fire@
  001fe	6a 17		 push	 23			; 00000017H
  00200	e8 00 00 00 00	 call	 ?debug_colour_log@@YAXW4DEBUG_COLOURS@@PBDZZ ; debug_colour_log
  00205	83 c4 08	 add	 esp, 8
$LN1@toggle_sup:

; 1052 : 		}
; 1053 : 	}
; 1054 : }

  00208	5f		 pop	 edi
  00209	5e		 pop	 esi
  0020a	5b		 pop	 ebx
  0020b	8b e5		 mov	 esp, ebp
  0020d	5d		 pop	 ebp
  0020e	c2 04 00	 ret	 4
?toggle_suppress_ai_fire_event@@YGXPAUEVENT@@@Z ENDP	; toggle_suppress_ai_fire_event
_TEXT	ENDS
; Function compile flags: /Odtp /ZI
; File c:\users\nhv90\projects\eech\aphavoc\source\events\ev_debug.c
;	COMDAT ?toggle_infinite_fuel_event@@YGXPAUEVENT@@@Z
_TEXT	SEGMENT
tv159 = -72						; size = 4
tv135 = -72						; size = 4
tv82 = -72						; size = 4
tv151 = -68						; size = 4
tv95 = -68						; size = 4
tv75 = -68						; size = 4
_ev$ = 8						; size = 4
?toggle_infinite_fuel_event@@YGXPAUEVENT@@@Z PROC	; toggle_infinite_fuel_event, COMDAT

; 1011 : {

  00000	55		 push	 ebp
  00001	8b ec		 mov	 ebp, esp
  00003	83 ec 48	 sub	 esp, 72			; 00000048H
  00006	53		 push	 ebx
  00007	56		 push	 esi
  00008	57		 push	 edi

; 1012 : 	ASSERT (get_session_entity ());

  00009	83 3d 00 00 00
	00 00		 cmp	 DWORD PTR ?session_entity@@3PAUENTITY@@A, 0 ; session_entity
  00010	75 18		 jne	 SHORT $LN2@toggle_inf
  00012	a1 00 00 00 00	 mov	 eax, DWORD PTR ?__LINE__Var@?0??toggle_infinite_fuel_event@@YGXPAUEVENT@@@Z@4JA
  00017	83 c0 01	 add	 eax, 1
  0001a	50		 push	 eax
  0001b	68 00 00 00 00	 push	 OFFSET ??_C@_0DO@EFGBNKOF@c?3?2users?2nhv90?2projects?2eech?2ap@
  00020	68 00 00 00 00	 push	 OFFSET ??_C@_0BG@EFCJJKAA@get_session_entity?5?$CI?$CJ@
  00025	e8 00 00 00 00	 call	 ?process_assert@@YGXPBD0H@Z ; process_assert
$LN2@toggle_inf:

; 1013 : 
; 1014 : 	if (get_comms_model () == COMMS_MODEL_SERVER)

  0002a	83 3d 00 00 00
	00 00		 cmp	 DWORD PTR ?system_comms_model@@3W4COMMS_MODEL_TYPES@@A, 0 ; system_comms_model
  00031	0f 85 c8 01 00
	00		 jne	 $LN1@toggle_inf

; 1015 : 	{
; 1016 : 		if (get_local_entity_int_value (get_session_entity (), INT_TYPE_INFINITE_FUEL))

  00037	83 3d 00 00 00
	00 00		 cmp	 DWORD PTR ?session_entity@@3PAUENTITY@@A, 0 ; session_entity
  0003e	74 0c		 je	 SHORT $LN7@toggle_inf
  00040	a1 00 00 00 00	 mov	 eax, DWORD PTR ?session_entity@@3PAUENTITY@@A ; session_entity
  00045	8b 08		 mov	 ecx, DWORD PTR [eax]
  00047	89 4d bc	 mov	 DWORD PTR tv75[ebp], ecx
  0004a	eb 1d		 jmp	 SHORT $LN8@toggle_inf
$LN7@toggle_inf:
  0004c	68 f8 03 00 00	 push	 1016			; 000003f8H
  00051	68 00 00 00 00	 push	 OFFSET ??_C@_0DO@EFGBNKOF@c?3?2users?2nhv90?2projects?2eech?2ap@
  00056	8b 15 00 00 00
	00		 mov	 edx, DWORD PTR ?null_entity_pointer_message@@3PBDB ; null_entity_pointer_message
  0005c	52		 push	 edx
  0005d	e8 00 00 00 00	 call	 ?process_assert@@YGXPBD0H@Z ; process_assert
  00062	c7 45 bc 00 00
	00 00		 mov	 DWORD PTR tv75[ebp], 0
$LN8@toggle_inf:
  00069	b8 01 00 00 00	 mov	 eax, 1
  0006e	85 c0		 test	 eax, eax
  00070	74 09		 je	 SHORT $LN9@toggle_inf
  00072	c7 45 b8 65 00
	00 00		 mov	 DWORD PTR tv82[ebp], 101 ; 00000065H
  00079	eb 1d		 jmp	 SHORT $LN10@toggle_inf
$LN9@toggle_inf:
  0007b	68 f8 03 00 00	 push	 1016			; 000003f8H
  00080	68 00 00 00 00	 push	 OFFSET ??_C@_0DO@EFGBNKOF@c?3?2users?2nhv90?2projects?2eech?2ap@
  00085	8b 0d 00 00 00
	00		 mov	 ecx, DWORD PTR ?overload_invalid_int_type_message@@3PBDB ; overload_invalid_int_type_message
  0008b	51		 push	 ecx
  0008c	e8 00 00 00 00	 call	 ?process_assert@@YGXPBD0H@Z ; process_assert
  00091	c7 45 b8 00 00
	00 00		 mov	 DWORD PTR tv82[ebp], 0
$LN10@toggle_inf:
  00098	6a 65		 push	 101			; 00000065H
  0009a	8b 15 00 00 00
	00		 mov	 edx, DWORD PTR ?session_entity@@3PAUENTITY@@A ; session_entity
  000a0	52		 push	 edx
  000a1	69 45 bc 5c 04
	00 00		 imul	 eax, DWORD PTR tv75[ebp], 1116
  000a8	8b 4d b8	 mov	 ecx, DWORD PTR tv82[ebp]
  000ab	8b 94 88 00 00
	00 00		 mov	 edx, DWORD PTR ?fn_get_local_entity_int_value@@3PAY0BBH@P6GHPAUENTITY@@W4INT_TYPES@@@ZA[eax+ecx*4]
  000b2	ff d2		 call	 edx
  000b4	85 c0		 test	 eax, eax
  000b6	0f 84 a4 00 00
	00		 je	 $LN4@toggle_inf

; 1017 : 		{
; 1018 : 			set_client_server_entity_int_value (get_session_entity (), INT_TYPE_INFINITE_FUEL, FALSE);

  000bc	83 3d 00 00 00
	00 00		 cmp	 DWORD PTR ?session_entity@@3PAUENTITY@@A, 0 ; session_entity
  000c3	74 0c		 je	 SHORT $LN11@toggle_inf
  000c5	a1 00 00 00 00	 mov	 eax, DWORD PTR ?session_entity@@3PAUENTITY@@A ; session_entity
  000ca	8b 08		 mov	 ecx, DWORD PTR [eax]
  000cc	89 4d bc	 mov	 DWORD PTR tv95[ebp], ecx
  000cf	eb 21		 jmp	 SHORT $LN12@toggle_inf
$LN11@toggle_inf:
  000d1	8b 15 00 00 00
	00		 mov	 edx, DWORD PTR ?__LINE__Var@?0??toggle_infinite_fuel_event@@YGXPAUEVENT@@@Z@4JA
  000d7	83 c2 07	 add	 edx, 7
  000da	52		 push	 edx
  000db	68 00 00 00 00	 push	 OFFSET ??_C@_0DO@EFGBNKOF@c?3?2users?2nhv90?2projects?2eech?2ap@
  000e0	a1 00 00 00 00	 mov	 eax, DWORD PTR ?null_entity_pointer_message@@3PBDB ; null_entity_pointer_message
  000e5	50		 push	 eax
  000e6	e8 00 00 00 00	 call	 ?process_assert@@YGXPBD0H@Z ; process_assert
  000eb	c7 45 bc 00 00
	00 00		 mov	 DWORD PTR tv95[ebp], 0
$LN12@toggle_inf:
  000f2	b9 01 00 00 00	 mov	 ecx, 1
  000f7	85 c9		 test	 ecx, ecx
  000f9	74 09		 je	 SHORT $LN13@toggle_inf
  000fb	c7 45 b8 65 00
	00 00		 mov	 DWORD PTR tv135[ebp], 101 ; 00000065H
  00102	eb 21		 jmp	 SHORT $LN14@toggle_inf
$LN13@toggle_inf:
  00104	8b 15 00 00 00
	00		 mov	 edx, DWORD PTR ?__LINE__Var@?0??toggle_infinite_fuel_event@@YGXPAUEVENT@@@Z@4JA
  0010a	83 c2 07	 add	 edx, 7
  0010d	52		 push	 edx
  0010e	68 00 00 00 00	 push	 OFFSET ??_C@_0DO@EFGBNKOF@c?3?2users?2nhv90?2projects?2eech?2ap@
  00113	a1 00 00 00 00	 mov	 eax, DWORD PTR ?overload_invalid_int_type_message@@3PBDB ; overload_invalid_int_type_message
  00118	50		 push	 eax
  00119	e8 00 00 00 00	 call	 ?process_assert@@YGXPBD0H@Z ; process_assert
  0011e	c7 45 b8 00 00
	00 00		 mov	 DWORD PTR tv135[ebp], 0
$LN14@toggle_inf:
  00125	6a 00		 push	 0
  00127	6a 65		 push	 101			; 00000065H
  00129	8b 0d 00 00 00
	00		 mov	 ecx, DWORD PTR ?session_entity@@3PAUENTITY@@A ; session_entity
  0012f	51		 push	 ecx
  00130	69 55 bc b8 08
	00 00		 imul	 edx, DWORD PTR tv95[ebp], 2232
  00137	8b 45 b8	 mov	 eax, DWORD PTR tv135[ebp]
  0013a	8d 8c c2 00 00
	00 00		 lea	 ecx, DWORD PTR ?fn_set_client_server_entity_int_value@@3PAY1BBH@1P6GXPAUENTITY@@W4INT_TYPES@@H@ZA[edx+eax*8]
  00141	8b 15 00 00 00
	00		 mov	 edx, DWORD PTR ?system_comms_model@@3W4COMMS_MODEL_TYPES@@A ; system_comms_model
  00147	8b 04 91	 mov	 eax, DWORD PTR [ecx+edx*4]
  0014a	ff d0		 call	 eax

; 1019 : 
; 1020 : 			debug_colour_log (DEBUG_COLOUR_AMBER, "Disable infinite fuel");

  0014c	68 00 00 00 00	 push	 OFFSET ??_C@_0BG@DFHLCANP@Disable?5infinite?5fuel@
  00151	6a 17		 push	 23			; 00000017H
  00153	e8 00 00 00 00	 call	 ?debug_colour_log@@YAXW4DEBUG_COLOURS@@PBDZZ ; debug_colour_log
  00158	83 c4 08	 add	 esp, 8

; 1021 : 		}
; 1022 : 		else

  0015b	e9 9f 00 00 00	 jmp	 $LN1@toggle_inf
$LN4@toggle_inf:

; 1023 : 		{
; 1024 : 			set_client_server_entity_int_value (get_session_entity (), INT_TYPE_INFINITE_FUEL, TRUE);

  00160	83 3d 00 00 00
	00 00		 cmp	 DWORD PTR ?session_entity@@3PAUENTITY@@A, 0 ; session_entity
  00167	74 0c		 je	 SHORT $LN15@toggle_inf
  00169	a1 00 00 00 00	 mov	 eax, DWORD PTR ?session_entity@@3PAUENTITY@@A ; session_entity
  0016e	8b 08		 mov	 ecx, DWORD PTR [eax]
  00170	89 4d bc	 mov	 DWORD PTR tv151[ebp], ecx
  00173	eb 21		 jmp	 SHORT $LN16@toggle_inf
$LN15@toggle_inf:
  00175	8b 15 00 00 00
	00		 mov	 edx, DWORD PTR ?__LINE__Var@?0??toggle_infinite_fuel_event@@YGXPAUEVENT@@@Z@4JA
  0017b	83 c2 0d	 add	 edx, 13			; 0000000dH
  0017e	52		 push	 edx
  0017f	68 00 00 00 00	 push	 OFFSET ??_C@_0DO@EFGBNKOF@c?3?2users?2nhv90?2projects?2eech?2ap@
  00184	a1 00 00 00 00	 mov	 eax, DWORD PTR ?null_entity_pointer_message@@3PBDB ; null_entity_pointer_message
  00189	50		 push	 eax
  0018a	e8 00 00 00 00	 call	 ?process_assert@@YGXPBD0H@Z ; process_assert
  0018f	c7 45 bc 00 00
	00 00		 mov	 DWORD PTR tv151[ebp], 0
$LN16@toggle_inf:
  00196	b9 01 00 00 00	 mov	 ecx, 1
  0019b	85 c9		 test	 ecx, ecx
  0019d	74 09		 je	 SHORT $LN17@toggle_inf
  0019f	c7 45 b8 65 00
	00 00		 mov	 DWORD PTR tv159[ebp], 101 ; 00000065H
  001a6	eb 21		 jmp	 SHORT $LN18@toggle_inf
$LN17@toggle_inf:
  001a8	8b 15 00 00 00
	00		 mov	 edx, DWORD PTR ?__LINE__Var@?0??toggle_infinite_fuel_event@@YGXPAUEVENT@@@Z@4JA
  001ae	83 c2 0d	 add	 edx, 13			; 0000000dH
  001b1	52		 push	 edx
  001b2	68 00 00 00 00	 push	 OFFSET ??_C@_0DO@EFGBNKOF@c?3?2users?2nhv90?2projects?2eech?2ap@
  001b7	a1 00 00 00 00	 mov	 eax, DWORD PTR ?overload_invalid_int_type_message@@3PBDB ; overload_invalid_int_type_message
  001bc	50		 push	 eax
  001bd	e8 00 00 00 00	 call	 ?process_assert@@YGXPBD0H@Z ; process_assert
  001c2	c7 45 b8 00 00
	00 00		 mov	 DWORD PTR tv159[ebp], 0
$LN18@toggle_inf:
  001c9	6a 01		 push	 1
  001cb	6a 65		 push	 101			; 00000065H
  001cd	8b 0d 00 00 00
	00		 mov	 ecx, DWORD PTR ?session_entity@@3PAUENTITY@@A ; session_entity
  001d3	51		 push	 ecx
  001d4	69 55 bc b8 08
	00 00		 imul	 edx, DWORD PTR tv151[ebp], 2232
  001db	8b 45 b8	 mov	 eax, DWORD PTR tv159[ebp]
  001de	8d 8c c2 00 00
	00 00		 lea	 ecx, DWORD PTR ?fn_set_client_server_entity_int_value@@3PAY1BBH@1P6GXPAUENTITY@@W4INT_TYPES@@H@ZA[edx+eax*8]
  001e5	8b 15 00 00 00
	00		 mov	 edx, DWORD PTR ?system_comms_model@@3W4COMMS_MODEL_TYPES@@A ; system_comms_model
  001eb	8b 04 91	 mov	 eax, DWORD PTR [ecx+edx*4]
  001ee	ff d0		 call	 eax

; 1025 : 
; 1026 : 			debug_colour_log (DEBUG_COLOUR_AMBER, "Enable infinite fuel");

  001f0	68 00 00 00 00	 push	 OFFSET ??_C@_0BF@LMONGBOO@Enable?5infinite?5fuel@
  001f5	6a 17		 push	 23			; 00000017H
  001f7	e8 00 00 00 00	 call	 ?debug_colour_log@@YAXW4DEBUG_COLOURS@@PBDZZ ; debug_colour_log
  001fc	83 c4 08	 add	 esp, 8
$LN1@toggle_inf:

; 1027 : 		}
; 1028 : 	}
; 1029 : }

  001ff	5f		 pop	 edi
  00200	5e		 pop	 esi
  00201	5b		 pop	 ebx
  00202	8b e5		 mov	 esp, ebp
  00204	5d		 pop	 ebp
  00205	c2 04 00	 ret	 4
?toggle_infinite_fuel_event@@YGXPAUEVENT@@@Z ENDP	; toggle_infinite_fuel_event
_TEXT	ENDS
; Function compile flags: /Odtp /ZI
; File c:\users\nhv90\projects\eech\aphavoc\source\events\ev_debug.c
;	COMDAT ?set_gunship_entity_to_null_event@@YGXPAUEVENT@@@Z
_TEXT	SEGMENT
_ev$ = 8						; size = 4
?set_gunship_entity_to_null_event@@YGXPAUEVENT@@@Z PROC	; set_gunship_entity_to_null_event, COMDAT

; 1002 : {

  00000	55		 push	 ebp
  00001	8b ec		 mov	 ebp, esp
  00003	83 ec 40	 sub	 esp, 64			; 00000040H
  00006	53		 push	 ebx
  00007	56		 push	 esi
  00008	57		 push	 edi

; 1003 : 	set_gunship_entity (NULL);

  00009	6a 00		 push	 0
  0000b	e8 00 00 00 00	 call	 ?set_gunship_entity@@YGXPAUENTITY@@@Z ; set_gunship_entity

; 1004 : }

  00010	5f		 pop	 edi
  00011	5e		 pop	 esi
  00012	5b		 pop	 ebx
  00013	8b e5		 mov	 esp, ebp
  00015	5d		 pop	 ebp
  00016	c2 04 00	 ret	 4
?set_gunship_entity_to_null_event@@YGXPAUEVENT@@@Z ENDP	; set_gunship_entity_to_null_event
_TEXT	ENDS
; Function compile flags: /Odtp /ZI
; File c:\users\nhv90\projects\eech\aphavoc\source\events\ev_debug.c
;	COMDAT ?set_demo_time_of_day_acceleration@@YGXPAUEVENT@@@Z
_TEXT	SEGMENT
tv138 = -72						; size = 4
tv84 = -72						; size = 4
tv130 = -68						; size = 4
tv76 = -68						; size = 4
_ev$ = 8						; size = 4
?set_demo_time_of_day_acceleration@@YGXPAUEVENT@@@Z PROC ; set_demo_time_of_day_acceleration, COMDAT

; 984  : {

  00000	55		 push	 ebp
  00001	8b ec		 mov	 ebp, esp
  00003	83 ec 48	 sub	 esp, 72			; 00000048H
  00006	53		 push	 ebx
  00007	56		 push	 esi
  00008	57		 push	 edi

; 985  : 	ASSERT (get_session_entity ());

  00009	83 3d 00 00 00
	00 00		 cmp	 DWORD PTR ?session_entity@@3PAUENTITY@@A, 0 ; session_entity
  00010	75 18		 jne	 SHORT $LN2@set_demo_t
  00012	a1 00 00 00 00	 mov	 eax, DWORD PTR ?__LINE__Var@?0??set_demo_time_of_day_acceleration@@YGXPAUEVENT@@@Z@4JA
  00017	83 c0 01	 add	 eax, 1
  0001a	50		 push	 eax
  0001b	68 00 00 00 00	 push	 OFFSET ??_C@_0DO@EFGBNKOF@c?3?2users?2nhv90?2projects?2eech?2ap@
  00020	68 00 00 00 00	 push	 OFFSET ??_C@_0BG@EFCJJKAA@get_session_entity?5?$CI?$CJ@
  00025	e8 00 00 00 00	 call	 ?process_assert@@YGXPBD0H@Z ; process_assert
$LN2@set_demo_t:

; 986  : 
; 987  : 	if (get_comms_model () == COMMS_MODEL_SERVER)

  0002a	83 3d 00 00 00
	00 00		 cmp	 DWORD PTR ?system_comms_model@@3W4COMMS_MODEL_TYPES@@A, 0 ; system_comms_model
  00031	0f 85 3f 01 00
	00		 jne	 $LN3@set_demo_t

; 988  : 	{
; 989  : 		set_client_server_entity_float_value (get_session_entity (), FLOAT_TYPE_TIME_OF_DAY_ACCELERATION, 60.0 * 2.5);

  00037	83 3d 00 00 00
	00 00		 cmp	 DWORD PTR ?session_entity@@3PAUENTITY@@A, 0 ; session_entity
  0003e	74 0c		 je	 SHORT $LN5@set_demo_t
  00040	a1 00 00 00 00	 mov	 eax, DWORD PTR ?session_entity@@3PAUENTITY@@A ; session_entity
  00045	8b 08		 mov	 ecx, DWORD PTR [eax]
  00047	89 4d bc	 mov	 DWORD PTR tv76[ebp], ecx
  0004a	eb 21		 jmp	 SHORT $LN6@set_demo_t
$LN5@set_demo_t:
  0004c	8b 15 00 00 00
	00		 mov	 edx, DWORD PTR ?__LINE__Var@?0??set_demo_time_of_day_acceleration@@YGXPAUEVENT@@@Z@4JA
  00052	83 c2 05	 add	 edx, 5
  00055	52		 push	 edx
  00056	68 00 00 00 00	 push	 OFFSET ??_C@_0DO@EFGBNKOF@c?3?2users?2nhv90?2projects?2eech?2ap@
  0005b	a1 00 00 00 00	 mov	 eax, DWORD PTR ?null_entity_pointer_message@@3PBDB ; null_entity_pointer_message
  00060	50		 push	 eax
  00061	e8 00 00 00 00	 call	 ?process_assert@@YGXPBD0H@Z ; process_assert
  00066	c7 45 bc 00 00
	00 00		 mov	 DWORD PTR tv76[ebp], 0
$LN6@set_demo_t:
  0006d	b9 01 00 00 00	 mov	 ecx, 1
  00072	85 c9		 test	 ecx, ecx
  00074	74 09		 je	 SHORT $LN7@set_demo_t
  00076	c7 45 b8 8f 00
	00 00		 mov	 DWORD PTR tv84[ebp], 143 ; 0000008fH
  0007d	eb 21		 jmp	 SHORT $LN8@set_demo_t
$LN7@set_demo_t:
  0007f	8b 15 00 00 00
	00		 mov	 edx, DWORD PTR ?__LINE__Var@?0??set_demo_time_of_day_acceleration@@YGXPAUEVENT@@@Z@4JA
  00085	83 c2 05	 add	 edx, 5
  00088	52		 push	 edx
  00089	68 00 00 00 00	 push	 OFFSET ??_C@_0DO@EFGBNKOF@c?3?2users?2nhv90?2projects?2eech?2ap@
  0008e	a1 00 00 00 00	 mov	 eax, DWORD PTR ?overload_invalid_float_type_message@@3PBDB ; overload_invalid_float_type_message
  00093	50		 push	 eax
  00094	e8 00 00 00 00	 call	 ?process_assert@@YGXPBD0H@Z ; process_assert
  00099	c7 45 b8 00 00
	00 00		 mov	 DWORD PTR tv84[ebp], 0
$LN8@set_demo_t:
  000a0	51		 push	 ecx
  000a1	f3 0f 10 05 00
	00 00 00	 movss	 xmm0, DWORD PTR __real@43160000
  000a9	f3 0f 11 04 24	 movss	 DWORD PTR [esp], xmm0
  000ae	68 8f 00 00 00	 push	 143			; 0000008fH
  000b3	8b 0d 00 00 00
	00		 mov	 ecx, DWORD PTR ?session_entity@@3PAUENTITY@@A ; session_entity
  000b9	51		 push	 ecx
  000ba	69 55 bc 78 05
	00 00		 imul	 edx, DWORD PTR tv76[ebp], 1400
  000c1	8b 45 b8	 mov	 eax, DWORD PTR tv84[ebp]
  000c4	8d 8c c2 00 00
	00 00		 lea	 ecx, DWORD PTR ?fn_set_client_server_entity_float_value@@3PAY1KP@1P6GXPAUENTITY@@W4FLOAT_TYPES@@M@ZA[edx+eax*8]
  000cb	8b 15 00 00 00
	00		 mov	 edx, DWORD PTR ?system_comms_model@@3W4COMMS_MODEL_TYPES@@A ; system_comms_model
  000d1	8b 04 91	 mov	 eax, DWORD PTR [ecx+edx*4]
  000d4	ff d0		 call	 eax

; 990  : 
; 991  : 		set_client_server_entity_int_value (get_session_entity (), INT_TYPE_SKIP_NIGHT_TIME, TRUE);

  000d6	83 3d 00 00 00
	00 00		 cmp	 DWORD PTR ?session_entity@@3PAUENTITY@@A, 0 ; session_entity
  000dd	74 0c		 je	 SHORT $LN9@set_demo_t
  000df	a1 00 00 00 00	 mov	 eax, DWORD PTR ?session_entity@@3PAUENTITY@@A ; session_entity
  000e4	8b 08		 mov	 ecx, DWORD PTR [eax]
  000e6	89 4d bc	 mov	 DWORD PTR tv130[ebp], ecx
  000e9	eb 21		 jmp	 SHORT $LN10@set_demo_t
$LN9@set_demo_t:
  000eb	8b 15 00 00 00
	00		 mov	 edx, DWORD PTR ?__LINE__Var@?0??set_demo_time_of_day_acceleration@@YGXPAUEVENT@@@Z@4JA
  000f1	83 c2 07	 add	 edx, 7
  000f4	52		 push	 edx
  000f5	68 00 00 00 00	 push	 OFFSET ??_C@_0DO@EFGBNKOF@c?3?2users?2nhv90?2projects?2eech?2ap@
  000fa	a1 00 00 00 00	 mov	 eax, DWORD PTR ?null_entity_pointer_message@@3PBDB ; null_entity_pointer_message
  000ff	50		 push	 eax
  00100	e8 00 00 00 00	 call	 ?process_assert@@YGXPBD0H@Z ; process_assert
  00105	c7 45 bc 00 00
	00 00		 mov	 DWORD PTR tv130[ebp], 0
$LN10@set_demo_t:
  0010c	b9 01 00 00 00	 mov	 ecx, 1
  00111	85 c9		 test	 ecx, ecx
  00113	74 09		 je	 SHORT $LN11@set_demo_t
  00115	c7 45 b8 bc 00
	00 00		 mov	 DWORD PTR tv138[ebp], 188 ; 000000bcH
  0011c	eb 21		 jmp	 SHORT $LN12@set_demo_t
$LN11@set_demo_t:
  0011e	8b 15 00 00 00
	00		 mov	 edx, DWORD PTR ?__LINE__Var@?0??set_demo_time_of_day_acceleration@@YGXPAUEVENT@@@Z@4JA
  00124	83 c2 07	 add	 edx, 7
  00127	52		 push	 edx
  00128	68 00 00 00 00	 push	 OFFSET ??_C@_0DO@EFGBNKOF@c?3?2users?2nhv90?2projects?2eech?2ap@
  0012d	a1 00 00 00 00	 mov	 eax, DWORD PTR ?overload_invalid_int_type_message@@3PBDB ; overload_invalid_int_type_message
  00132	50		 push	 eax
  00133	e8 00 00 00 00	 call	 ?process_assert@@YGXPBD0H@Z ; process_assert
  00138	c7 45 b8 00 00
	00 00		 mov	 DWORD PTR tv138[ebp], 0
$LN12@set_demo_t:
  0013f	6a 01		 push	 1
  00141	68 bc 00 00 00	 push	 188			; 000000bcH
  00146	8b 0d 00 00 00
	00		 mov	 ecx, DWORD PTR ?session_entity@@3PAUENTITY@@A ; session_entity
  0014c	51		 push	 ecx
  0014d	69 55 bc b8 08
	00 00		 imul	 edx, DWORD PTR tv130[ebp], 2232
  00154	8b 45 b8	 mov	 eax, DWORD PTR tv138[ebp]
  00157	8d 8c c2 00 00
	00 00		 lea	 ecx, DWORD PTR ?fn_set_client_server_entity_int_value@@3PAY1BBH@1P6GXPAUENTITY@@W4INT_TYPES@@H@ZA[edx+eax*8]
  0015e	8b 15 00 00 00
	00		 mov	 edx, DWORD PTR ?system_comms_model@@3W4COMMS_MODEL_TYPES@@A ; system_comms_model
  00164	8b 04 91	 mov	 eax, DWORD PTR [ecx+edx*4]
  00167	ff d0		 call	 eax

; 992  : 
; 993  : 		debug_log ("Set session time of day acceleration to MIN and skip night-time");

  00169	68 00 00 00 00	 push	 OFFSET ??_C@_0EA@EBAMMFBM@Set?5session?5time?5of?5day?5acceler@
  0016e	e8 00 00 00 00	 call	 ?debug_log@@YAXPBDZZ	; debug_log
  00173	83 c4 04	 add	 esp, 4
$LN3@set_demo_t:

; 994  : 	}
; 995  : }

  00176	5f		 pop	 edi
  00177	5e		 pop	 esi
  00178	5b		 pop	 ebx
  00179	8b e5		 mov	 esp, ebp
  0017b	5d		 pop	 ebp
  0017c	c2 04 00	 ret	 4
?set_demo_time_of_day_acceleration@@YGXPAUEVENT@@@Z ENDP ; set_demo_time_of_day_acceleration
_TEXT	ENDS
; Function compile flags: /Odtp /ZI
; File c:\users\nhv90\projects\eech\aphavoc\source\events\ev_debug.c
;	COMDAT ?reset_session_time_of_day_acceleration@@YGXPAUEVENT@@@Z
_TEXT	SEGMENT
tv138 = -72						; size = 4
tv84 = -72						; size = 4
tv130 = -68						; size = 4
tv76 = -68						; size = 4
_ev$ = 8						; size = 4
?reset_session_time_of_day_acceleration@@YGXPAUEVENT@@@Z PROC ; reset_session_time_of_day_acceleration, COMDAT

; 966  : {

  00000	55		 push	 ebp
  00001	8b ec		 mov	 ebp, esp
  00003	83 ec 48	 sub	 esp, 72			; 00000048H
  00006	53		 push	 ebx
  00007	56		 push	 esi
  00008	57		 push	 edi

; 967  : 	ASSERT (get_session_entity ());

  00009	83 3d 00 00 00
	00 00		 cmp	 DWORD PTR ?session_entity@@3PAUENTITY@@A, 0 ; session_entity
  00010	75 18		 jne	 SHORT $LN2@reset_sess
  00012	a1 00 00 00 00	 mov	 eax, DWORD PTR ?__LINE__Var@?0??reset_session_time_of_day_acceleration@@YGXPAUEVENT@@@Z@4JA
  00017	83 c0 01	 add	 eax, 1
  0001a	50		 push	 eax
  0001b	68 00 00 00 00	 push	 OFFSET ??_C@_0DO@EFGBNKOF@c?3?2users?2nhv90?2projects?2eech?2ap@
  00020	68 00 00 00 00	 push	 OFFSET ??_C@_0BG@EFCJJKAA@get_session_entity?5?$CI?$CJ@
  00025	e8 00 00 00 00	 call	 ?process_assert@@YGXPBD0H@Z ; process_assert
$LN2@reset_sess:

; 968  : 
; 969  : 	if (get_comms_model () == COMMS_MODEL_SERVER)

  0002a	83 3d 00 00 00
	00 00		 cmp	 DWORD PTR ?system_comms_model@@3W4COMMS_MODEL_TYPES@@A, 0 ; system_comms_model
  00031	0f 85 3f 01 00
	00		 jne	 $LN3@reset_sess

; 970  : 	{
; 971  : 		set_client_server_entity_float_value (get_session_entity (), FLOAT_TYPE_TIME_OF_DAY_ACCELERATION, 1.0);

  00037	83 3d 00 00 00
	00 00		 cmp	 DWORD PTR ?session_entity@@3PAUENTITY@@A, 0 ; session_entity
  0003e	74 0c		 je	 SHORT $LN5@reset_sess
  00040	a1 00 00 00 00	 mov	 eax, DWORD PTR ?session_entity@@3PAUENTITY@@A ; session_entity
  00045	8b 08		 mov	 ecx, DWORD PTR [eax]
  00047	89 4d bc	 mov	 DWORD PTR tv76[ebp], ecx
  0004a	eb 21		 jmp	 SHORT $LN6@reset_sess
$LN5@reset_sess:
  0004c	8b 15 00 00 00
	00		 mov	 edx, DWORD PTR ?__LINE__Var@?0??reset_session_time_of_day_acceleration@@YGXPAUEVENT@@@Z@4JA
  00052	83 c2 05	 add	 edx, 5
  00055	52		 push	 edx
  00056	68 00 00 00 00	 push	 OFFSET ??_C@_0DO@EFGBNKOF@c?3?2users?2nhv90?2projects?2eech?2ap@
  0005b	a1 00 00 00 00	 mov	 eax, DWORD PTR ?null_entity_pointer_message@@3PBDB ; null_entity_pointer_message
  00060	50		 push	 eax
  00061	e8 00 00 00 00	 call	 ?process_assert@@YGXPBD0H@Z ; process_assert
  00066	c7 45 bc 00 00
	00 00		 mov	 DWORD PTR tv76[ebp], 0
$LN6@reset_sess:
  0006d	b9 01 00 00 00	 mov	 ecx, 1
  00072	85 c9		 test	 ecx, ecx
  00074	74 09		 je	 SHORT $LN7@reset_sess
  00076	c7 45 b8 8f 00
	00 00		 mov	 DWORD PTR tv84[ebp], 143 ; 0000008fH
  0007d	eb 21		 jmp	 SHORT $LN8@reset_sess
$LN7@reset_sess:
  0007f	8b 15 00 00 00
	00		 mov	 edx, DWORD PTR ?__LINE__Var@?0??reset_session_time_of_day_acceleration@@YGXPAUEVENT@@@Z@4JA
  00085	83 c2 05	 add	 edx, 5
  00088	52		 push	 edx
  00089	68 00 00 00 00	 push	 OFFSET ??_C@_0DO@EFGBNKOF@c?3?2users?2nhv90?2projects?2eech?2ap@
  0008e	a1 00 00 00 00	 mov	 eax, DWORD PTR ?overload_invalid_float_type_message@@3PBDB ; overload_invalid_float_type_message
  00093	50		 push	 eax
  00094	e8 00 00 00 00	 call	 ?process_assert@@YGXPBD0H@Z ; process_assert
  00099	c7 45 b8 00 00
	00 00		 mov	 DWORD PTR tv84[ebp], 0
$LN8@reset_sess:
  000a0	51		 push	 ecx
  000a1	f3 0f 10 05 00
	00 00 00	 movss	 xmm0, DWORD PTR __real@3f800000
  000a9	f3 0f 11 04 24	 movss	 DWORD PTR [esp], xmm0
  000ae	68 8f 00 00 00	 push	 143			; 0000008fH
  000b3	8b 0d 00 00 00
	00		 mov	 ecx, DWORD PTR ?session_entity@@3PAUENTITY@@A ; session_entity
  000b9	51		 push	 ecx
  000ba	69 55 bc 78 05
	00 00		 imul	 edx, DWORD PTR tv76[ebp], 1400
  000c1	8b 45 b8	 mov	 eax, DWORD PTR tv84[ebp]
  000c4	8d 8c c2 00 00
	00 00		 lea	 ecx, DWORD PTR ?fn_set_client_server_entity_float_value@@3PAY1KP@1P6GXPAUENTITY@@W4FLOAT_TYPES@@M@ZA[edx+eax*8]
  000cb	8b 15 00 00 00
	00		 mov	 edx, DWORD PTR ?system_comms_model@@3W4COMMS_MODEL_TYPES@@A ; system_comms_model
  000d1	8b 04 91	 mov	 eax, DWORD PTR [ecx+edx*4]
  000d4	ff d0		 call	 eax

; 972  : 
; 973  : 		set_client_server_entity_int_value (get_session_entity (), INT_TYPE_SKIP_NIGHT_TIME, FALSE);

  000d6	83 3d 00 00 00
	00 00		 cmp	 DWORD PTR ?session_entity@@3PAUENTITY@@A, 0 ; session_entity
  000dd	74 0c		 je	 SHORT $LN9@reset_sess
  000df	a1 00 00 00 00	 mov	 eax, DWORD PTR ?session_entity@@3PAUENTITY@@A ; session_entity
  000e4	8b 08		 mov	 ecx, DWORD PTR [eax]
  000e6	89 4d bc	 mov	 DWORD PTR tv130[ebp], ecx
  000e9	eb 21		 jmp	 SHORT $LN10@reset_sess
$LN9@reset_sess:
  000eb	8b 15 00 00 00
	00		 mov	 edx, DWORD PTR ?__LINE__Var@?0??reset_session_time_of_day_acceleration@@YGXPAUEVENT@@@Z@4JA
  000f1	83 c2 07	 add	 edx, 7
  000f4	52		 push	 edx
  000f5	68 00 00 00 00	 push	 OFFSET ??_C@_0DO@EFGBNKOF@c?3?2users?2nhv90?2projects?2eech?2ap@
  000fa	a1 00 00 00 00	 mov	 eax, DWORD PTR ?null_entity_pointer_message@@3PBDB ; null_entity_pointer_message
  000ff	50		 push	 eax
  00100	e8 00 00 00 00	 call	 ?process_assert@@YGXPBD0H@Z ; process_assert
  00105	c7 45 bc 00 00
	00 00		 mov	 DWORD PTR tv130[ebp], 0
$LN10@reset_sess:
  0010c	b9 01 00 00 00	 mov	 ecx, 1
  00111	85 c9		 test	 ecx, ecx
  00113	74 09		 je	 SHORT $LN11@reset_sess
  00115	c7 45 b8 bc 00
	00 00		 mov	 DWORD PTR tv138[ebp], 188 ; 000000bcH
  0011c	eb 21		 jmp	 SHORT $LN12@reset_sess
$LN11@reset_sess:
  0011e	8b 15 00 00 00
	00		 mov	 edx, DWORD PTR ?__LINE__Var@?0??reset_session_time_of_day_acceleration@@YGXPAUEVENT@@@Z@4JA
  00124	83 c2 07	 add	 edx, 7
  00127	52		 push	 edx
  00128	68 00 00 00 00	 push	 OFFSET ??_C@_0DO@EFGBNKOF@c?3?2users?2nhv90?2projects?2eech?2ap@
  0012d	a1 00 00 00 00	 mov	 eax, DWORD PTR ?overload_invalid_int_type_message@@3PBDB ; overload_invalid_int_type_message
  00132	50		 push	 eax
  00133	e8 00 00 00 00	 call	 ?process_assert@@YGXPBD0H@Z ; process_assert
  00138	c7 45 b8 00 00
	00 00		 mov	 DWORD PTR tv138[ebp], 0
$LN12@reset_sess:
  0013f	6a 00		 push	 0
  00141	68 bc 00 00 00	 push	 188			; 000000bcH
  00146	8b 0d 00 00 00
	00		 mov	 ecx, DWORD PTR ?session_entity@@3PAUENTITY@@A ; session_entity
  0014c	51		 push	 ecx
  0014d	69 55 bc b8 08
	00 00		 imul	 edx, DWORD PTR tv130[ebp], 2232
  00154	8b 45 b8	 mov	 eax, DWORD PTR tv138[ebp]
  00157	8d 8c c2 00 00
	00 00		 lea	 ecx, DWORD PTR ?fn_set_client_server_entity_int_value@@3PAY1BBH@1P6GXPAUENTITY@@W4INT_TYPES@@H@ZA[edx+eax*8]
  0015e	8b 15 00 00 00
	00		 mov	 edx, DWORD PTR ?system_comms_model@@3W4COMMS_MODEL_TYPES@@A ; system_comms_model
  00164	8b 04 91	 mov	 eax, DWORD PTR [ecx+edx*4]
  00167	ff d0		 call	 eax

; 974  : 
; 975  : 		debug_log ("Reset session time of day acceleration");

  00169	68 00 00 00 00	 push	 OFFSET ??_C@_0CH@OIMAKCLA@Reset?5session?5time?5of?5day?5accel@
  0016e	e8 00 00 00 00	 call	 ?debug_log@@YAXPBDZZ	; debug_log
  00173	83 c4 04	 add	 esp, 4
$LN3@reset_sess:

; 976  : 	}
; 977  : }

  00176	5f		 pop	 edi
  00177	5e		 pop	 esi
  00178	5b		 pop	 ebx
  00179	8b e5		 mov	 esp, ebp
  0017b	5d		 pop	 ebp
  0017c	c2 04 00	 ret	 4
?reset_session_time_of_day_acceleration@@YGXPAUEVENT@@@Z ENDP ; reset_session_time_of_day_acceleration
_TEXT	ENDS
; Function compile flags: /Odtp /ZI
; File c:\users\nhv90\projects\eech\aphavoc\source\events\ev_debug.c
;	COMDAT ?increase_session_time_of_day_acceleration@@YGXPAUEVENT@@@Z
_TEXT	SEGMENT
tv188 = -76						; size = 4
tv163 = -76						; size = 4
tv138 = -76						; size = 4
tv84 = -76						; size = 4
tv180 = -72						; size = 4
tv155 = -72						; size = 4
tv130 = -72						; size = 4
tv76 = -72						; size = 4
_accel$ = -4						; size = 4
_ev$ = 8						; size = 4
?increase_session_time_of_day_acceleration@@YGXPAUEVENT@@@Z PROC ; increase_session_time_of_day_acceleration, COMDAT

; 930  : {

  00000	55		 push	 ebp
  00001	8b ec		 mov	 ebp, esp
  00003	83 ec 4c	 sub	 esp, 76			; 0000004cH
  00006	53		 push	 ebx
  00007	56		 push	 esi
  00008	57		 push	 edi

; 931  : 	float
; 932  : 		accel;
; 933  : 
; 934  : 	ASSERT (get_session_entity ());

  00009	83 3d 00 00 00
	00 00		 cmp	 DWORD PTR ?session_entity@@3PAUENTITY@@A, 0 ; session_entity
  00010	75 18		 jne	 SHORT $LN2@increase_s
  00012	a1 00 00 00 00	 mov	 eax, DWORD PTR ?__LINE__Var@?0??increase_session_time_of_day_acceleration@@YGXPAUEVENT@@@Z@4JA
  00017	83 c0 04	 add	 eax, 4
  0001a	50		 push	 eax
  0001b	68 00 00 00 00	 push	 OFFSET ??_C@_0DO@EFGBNKOF@c?3?2users?2nhv90?2projects?2eech?2ap@
  00020	68 00 00 00 00	 push	 OFFSET ??_C@_0BG@EFCJJKAA@get_session_entity?5?$CI?$CJ@
  00025	e8 00 00 00 00	 call	 ?process_assert@@YGXPBD0H@Z ; process_assert
$LN2@increase_s:

; 935  : 
; 936  : 	if (get_comms_model () == COMMS_MODEL_SERVER)

  0002a	83 3d 00 00 00
	00 00		 cmp	 DWORD PTR ?system_comms_model@@3W4COMMS_MODEL_TYPES@@A, 0 ; system_comms_model
  00031	0f 85 de 02 00
	00		 jne	 $LN8@increase_s

; 937  : 	{
; 938  : 		accel = get_local_entity_float_value (get_session_entity (), FLOAT_TYPE_TIME_OF_DAY_ACCELERATION);

  00037	83 3d 00 00 00
	00 00		 cmp	 DWORD PTR ?session_entity@@3PAUENTITY@@A, 0 ; session_entity
  0003e	74 0c		 je	 SHORT $LN10@increase_s
  00040	a1 00 00 00 00	 mov	 eax, DWORD PTR ?session_entity@@3PAUENTITY@@A ; session_entity
  00045	8b 08		 mov	 ecx, DWORD PTR [eax]
  00047	89 4d b8	 mov	 DWORD PTR tv76[ebp], ecx
  0004a	eb 21		 jmp	 SHORT $LN11@increase_s
$LN10@increase_s:
  0004c	8b 15 00 00 00
	00		 mov	 edx, DWORD PTR ?__LINE__Var@?0??increase_session_time_of_day_acceleration@@YGXPAUEVENT@@@Z@4JA
  00052	83 c2 08	 add	 edx, 8
  00055	52		 push	 edx
  00056	68 00 00 00 00	 push	 OFFSET ??_C@_0DO@EFGBNKOF@c?3?2users?2nhv90?2projects?2eech?2ap@
  0005b	a1 00 00 00 00	 mov	 eax, DWORD PTR ?null_entity_pointer_message@@3PBDB ; null_entity_pointer_message
  00060	50		 push	 eax
  00061	e8 00 00 00 00	 call	 ?process_assert@@YGXPBD0H@Z ; process_assert
  00066	c7 45 b8 00 00
	00 00		 mov	 DWORD PTR tv76[ebp], 0
$LN11@increase_s:
  0006d	b9 01 00 00 00	 mov	 ecx, 1
  00072	85 c9		 test	 ecx, ecx
  00074	74 09		 je	 SHORT $LN12@increase_s
  00076	c7 45 b4 8f 00
	00 00		 mov	 DWORD PTR tv84[ebp], 143 ; 0000008fH
  0007d	eb 21		 jmp	 SHORT $LN13@increase_s
$LN12@increase_s:
  0007f	8b 15 00 00 00
	00		 mov	 edx, DWORD PTR ?__LINE__Var@?0??increase_session_time_of_day_acceleration@@YGXPAUEVENT@@@Z@4JA
  00085	83 c2 08	 add	 edx, 8
  00088	52		 push	 edx
  00089	68 00 00 00 00	 push	 OFFSET ??_C@_0DO@EFGBNKOF@c?3?2users?2nhv90?2projects?2eech?2ap@
  0008e	a1 00 00 00 00	 mov	 eax, DWORD PTR ?overload_invalid_float_type_message@@3PBDB ; overload_invalid_float_type_message
  00093	50		 push	 eax
  00094	e8 00 00 00 00	 call	 ?process_assert@@YGXPBD0H@Z ; process_assert
  00099	c7 45 b4 00 00
	00 00		 mov	 DWORD PTR tv84[ebp], 0
$LN13@increase_s:
  000a0	68 8f 00 00 00	 push	 143			; 0000008fH
  000a5	8b 0d 00 00 00
	00		 mov	 ecx, DWORD PTR ?session_entity@@3PAUENTITY@@A ; session_entity
  000ab	51		 push	 ecx
  000ac	69 55 b8 bc 02
	00 00		 imul	 edx, DWORD PTR tv76[ebp], 700
  000b3	8b 45 b4	 mov	 eax, DWORD PTR tv84[ebp]
  000b6	8b 8c 82 00 00
	00 00		 mov	 ecx, DWORD PTR ?fn_get_local_entity_float_value@@3PAY0KP@P6GMPAUENTITY@@W4FLOAT_TYPES@@@ZA[edx+eax*4]
  000bd	ff d1		 call	 ecx
  000bf	d9 5d fc	 fstp	 DWORD PTR _accel$[ebp]

; 939  : 
; 940  : 		if (accel == 1.0)

  000c2	f3 0f 5a 45 fc	 cvtss2sd xmm0, DWORD PTR _accel$[ebp]
  000c7	66 0f 2e 05 00
	00 00 00	 ucomisd xmm0, QWORD PTR __real@3ff0000000000000
  000cf	9f		 lahf
  000d0	f6 c4 44	 test	 ah, 68			; 00000044H
  000d3	0f 8a b1 00 00
	00		 jp	 $LN4@increase_s

; 941  : 		{
; 942  : 			set_client_server_entity_float_value (get_session_entity (), FLOAT_TYPE_TIME_OF_DAY_ACCELERATION, 60.0 * 10.0);

  000d9	83 3d 00 00 00
	00 00		 cmp	 DWORD PTR ?session_entity@@3PAUENTITY@@A, 0 ; session_entity
  000e0	74 0c		 je	 SHORT $LN14@increase_s
  000e2	a1 00 00 00 00	 mov	 eax, DWORD PTR ?session_entity@@3PAUENTITY@@A ; session_entity
  000e7	8b 08		 mov	 ecx, DWORD PTR [eax]
  000e9	89 4d b8	 mov	 DWORD PTR tv130[ebp], ecx
  000ec	eb 21		 jmp	 SHORT $LN15@increase_s
$LN14@increase_s:
  000ee	8b 15 00 00 00
	00		 mov	 edx, DWORD PTR ?__LINE__Var@?0??increase_session_time_of_day_acceleration@@YGXPAUEVENT@@@Z@4JA
  000f4	83 c2 0c	 add	 edx, 12			; 0000000cH
  000f7	52		 push	 edx
  000f8	68 00 00 00 00	 push	 OFFSET ??_C@_0DO@EFGBNKOF@c?3?2users?2nhv90?2projects?2eech?2ap@
  000fd	a1 00 00 00 00	 mov	 eax, DWORD PTR ?null_entity_pointer_message@@3PBDB ; null_entity_pointer_message
  00102	50		 push	 eax
  00103	e8 00 00 00 00	 call	 ?process_assert@@YGXPBD0H@Z ; process_assert
  00108	c7 45 b8 00 00
	00 00		 mov	 DWORD PTR tv130[ebp], 0
$LN15@increase_s:
  0010f	b9 01 00 00 00	 mov	 ecx, 1
  00114	85 c9		 test	 ecx, ecx
  00116	74 09		 je	 SHORT $LN16@increase_s
  00118	c7 45 b4 8f 00
	00 00		 mov	 DWORD PTR tv138[ebp], 143 ; 0000008fH
  0011f	eb 21		 jmp	 SHORT $LN17@increase_s
$LN16@increase_s:
  00121	8b 15 00 00 00
	00		 mov	 edx, DWORD PTR ?__LINE__Var@?0??increase_session_time_of_day_acceleration@@YGXPAUEVENT@@@Z@4JA
  00127	83 c2 0c	 add	 edx, 12			; 0000000cH
  0012a	52		 push	 edx
  0012b	68 00 00 00 00	 push	 OFFSET ??_C@_0DO@EFGBNKOF@c?3?2users?2nhv90?2projects?2eech?2ap@
  00130	a1 00 00 00 00	 mov	 eax, DWORD PTR ?overload_invalid_float_type_message@@3PBDB ; overload_invalid_float_type_message
  00135	50		 push	 eax
  00136	e8 00 00 00 00	 call	 ?process_assert@@YGXPBD0H@Z ; process_assert
  0013b	c7 45 b4 00 00
	00 00		 mov	 DWORD PTR tv138[ebp], 0
$LN17@increase_s:
  00142	51		 push	 ecx
  00143	f3 0f 10 05 00
	00 00 00	 movss	 xmm0, DWORD PTR __real@44160000
  0014b	f3 0f 11 04 24	 movss	 DWORD PTR [esp], xmm0
  00150	68 8f 00 00 00	 push	 143			; 0000008fH
  00155	8b 0d 00 00 00
	00		 mov	 ecx, DWORD PTR ?session_entity@@3PAUENTITY@@A ; session_entity
  0015b	51		 push	 ecx
  0015c	69 55 b8 78 05
	00 00		 imul	 edx, DWORD PTR tv130[ebp], 1400
  00163	8b 45 b4	 mov	 eax, DWORD PTR tv138[ebp]
  00166	8d 8c c2 00 00
	00 00		 lea	 ecx, DWORD PTR ?fn_set_client_server_entity_float_value@@3PAY1KP@1P6GXPAUENTITY@@W4FLOAT_TYPES@@M@ZA[edx+eax*8]
  0016d	8b 15 00 00 00
	00		 mov	 edx, DWORD PTR ?system_comms_model@@3W4COMMS_MODEL_TYPES@@A ; system_comms_model
  00173	8b 04 91	 mov	 eax, DWORD PTR [ecx+edx*4]
  00176	ff d0		 call	 eax

; 943  : 
; 944  : 			debug_log ("Set session time of day acceleration to MIN");

  00178	68 00 00 00 00	 push	 OFFSET ??_C@_0CM@HIFEAKOC@Set?5session?5time?5of?5day?5acceler@
  0017d	e8 00 00 00 00	 call	 ?debug_log@@YAXPBDZZ	; debug_log
  00182	83 c4 04	 add	 esp, 4
  00185	e9 8b 01 00 00	 jmp	 $LN8@increase_s
$LN4@increase_s:

; 945  : 		}
; 946  : 		else if (accel == 60.0 * 10.0)

  0018a	f3 0f 5a 45 fc	 cvtss2sd xmm0, DWORD PTR _accel$[ebp]
  0018f	66 0f 2e 05 00
	00 00 00	 ucomisd xmm0, QWORD PTR __real@4082c00000000000
  00197	9f		 lahf
  00198	f6 c4 44	 test	 ah, 68			; 00000044H
  0019b	0f 8a b1 00 00
	00		 jp	 $LN6@increase_s

; 947  : 		{
; 948  : 			set_client_server_entity_float_value (get_session_entity (), FLOAT_TYPE_TIME_OF_DAY_ACCELERATION, 60.0 * 30.0);

  001a1	83 3d 00 00 00
	00 00		 cmp	 DWORD PTR ?session_entity@@3PAUENTITY@@A, 0 ; session_entity
  001a8	74 0c		 je	 SHORT $LN18@increase_s
  001aa	a1 00 00 00 00	 mov	 eax, DWORD PTR ?session_entity@@3PAUENTITY@@A ; session_entity
  001af	8b 08		 mov	 ecx, DWORD PTR [eax]
  001b1	89 4d b8	 mov	 DWORD PTR tv155[ebp], ecx
  001b4	eb 21		 jmp	 SHORT $LN19@increase_s
$LN18@increase_s:
  001b6	8b 15 00 00 00
	00		 mov	 edx, DWORD PTR ?__LINE__Var@?0??increase_session_time_of_day_acceleration@@YGXPAUEVENT@@@Z@4JA
  001bc	83 c2 12	 add	 edx, 18			; 00000012H
  001bf	52		 push	 edx
  001c0	68 00 00 00 00	 push	 OFFSET ??_C@_0DO@EFGBNKOF@c?3?2users?2nhv90?2projects?2eech?2ap@
  001c5	a1 00 00 00 00	 mov	 eax, DWORD PTR ?null_entity_pointer_message@@3PBDB ; null_entity_pointer_message
  001ca	50		 push	 eax
  001cb	e8 00 00 00 00	 call	 ?process_assert@@YGXPBD0H@Z ; process_assert
  001d0	c7 45 b8 00 00
	00 00		 mov	 DWORD PTR tv155[ebp], 0
$LN19@increase_s:
  001d7	b9 01 00 00 00	 mov	 ecx, 1
  001dc	85 c9		 test	 ecx, ecx
  001de	74 09		 je	 SHORT $LN20@increase_s
  001e0	c7 45 b4 8f 00
	00 00		 mov	 DWORD PTR tv163[ebp], 143 ; 0000008fH
  001e7	eb 21		 jmp	 SHORT $LN21@increase_s
$LN20@increase_s:
  001e9	8b 15 00 00 00
	00		 mov	 edx, DWORD PTR ?__LINE__Var@?0??increase_session_time_of_day_acceleration@@YGXPAUEVENT@@@Z@4JA
  001ef	83 c2 12	 add	 edx, 18			; 00000012H
  001f2	52		 push	 edx
  001f3	68 00 00 00 00	 push	 OFFSET ??_C@_0DO@EFGBNKOF@c?3?2users?2nhv90?2projects?2eech?2ap@
  001f8	a1 00 00 00 00	 mov	 eax, DWORD PTR ?overload_invalid_float_type_message@@3PBDB ; overload_invalid_float_type_message
  001fd	50		 push	 eax
  001fe	e8 00 00 00 00	 call	 ?process_assert@@YGXPBD0H@Z ; process_assert
  00203	c7 45 b4 00 00
	00 00		 mov	 DWORD PTR tv163[ebp], 0
$LN21@increase_s:
  0020a	51		 push	 ecx
  0020b	f3 0f 10 05 00
	00 00 00	 movss	 xmm0, DWORD PTR __real@44e10000
  00213	f3 0f 11 04 24	 movss	 DWORD PTR [esp], xmm0
  00218	68 8f 00 00 00	 push	 143			; 0000008fH
  0021d	8b 0d 00 00 00
	00		 mov	 ecx, DWORD PTR ?session_entity@@3PAUENTITY@@A ; session_entity
  00223	51		 push	 ecx
  00224	69 55 b8 78 05
	00 00		 imul	 edx, DWORD PTR tv155[ebp], 1400
  0022b	8b 45 b4	 mov	 eax, DWORD PTR tv163[ebp]
  0022e	8d 8c c2 00 00
	00 00		 lea	 ecx, DWORD PTR ?fn_set_client_server_entity_float_value@@3PAY1KP@1P6GXPAUENTITY@@W4FLOAT_TYPES@@M@ZA[edx+eax*8]
  00235	8b 15 00 00 00
	00		 mov	 edx, DWORD PTR ?system_comms_model@@3W4COMMS_MODEL_TYPES@@A ; system_comms_model
  0023b	8b 04 91	 mov	 eax, DWORD PTR [ecx+edx*4]
  0023e	ff d0		 call	 eax

; 949  : 
; 950  : 			debug_log ("Set session time of day acceleration to MED");

  00240	68 00 00 00 00	 push	 OFFSET ??_C@_0CM@ILKBBLAM@Set?5session?5time?5of?5day?5acceler@
  00245	e8 00 00 00 00	 call	 ?debug_log@@YAXPBDZZ	; debug_log
  0024a	83 c4 04	 add	 esp, 4
  0024d	e9 c3 00 00 00	 jmp	 $LN8@increase_s
$LN6@increase_s:

; 951  : 		}
; 952  : 		else if (accel == 60.0 * 30.0)

  00252	f3 0f 5a 45 fc	 cvtss2sd xmm0, DWORD PTR _accel$[ebp]
  00257	66 0f 2e 05 00
	00 00 00	 ucomisd xmm0, QWORD PTR __real@409c200000000000
  0025f	9f		 lahf
  00260	f6 c4 44	 test	 ah, 68			; 00000044H
  00263	0f 8a ac 00 00
	00		 jp	 $LN8@increase_s

; 953  : 		{
; 954  : 			set_client_server_entity_float_value (get_session_entity (), FLOAT_TYPE_TIME_OF_DAY_ACCELERATION, 60.0 * 60.0);

  00269	83 3d 00 00 00
	00 00		 cmp	 DWORD PTR ?session_entity@@3PAUENTITY@@A, 0 ; session_entity
  00270	74 0c		 je	 SHORT $LN22@increase_s
  00272	a1 00 00 00 00	 mov	 eax, DWORD PTR ?session_entity@@3PAUENTITY@@A ; session_entity
  00277	8b 08		 mov	 ecx, DWORD PTR [eax]
  00279	89 4d b8	 mov	 DWORD PTR tv180[ebp], ecx
  0027c	eb 21		 jmp	 SHORT $LN23@increase_s
$LN22@increase_s:
  0027e	8b 15 00 00 00
	00		 mov	 edx, DWORD PTR ?__LINE__Var@?0??increase_session_time_of_day_acceleration@@YGXPAUEVENT@@@Z@4JA
  00284	83 c2 18	 add	 edx, 24			; 00000018H
  00287	52		 push	 edx
  00288	68 00 00 00 00	 push	 OFFSET ??_C@_0DO@EFGBNKOF@c?3?2users?2nhv90?2projects?2eech?2ap@
  0028d	a1 00 00 00 00	 mov	 eax, DWORD PTR ?null_entity_pointer_message@@3PBDB ; null_entity_pointer_message
  00292	50		 push	 eax
  00293	e8 00 00 00 00	 call	 ?process_assert@@YGXPBD0H@Z ; process_assert
  00298	c7 45 b8 00 00
	00 00		 mov	 DWORD PTR tv180[ebp], 0
$LN23@increase_s:
  0029f	b9 01 00 00 00	 mov	 ecx, 1
  002a4	85 c9		 test	 ecx, ecx
  002a6	74 09		 je	 SHORT $LN24@increase_s
  002a8	c7 45 b4 8f 00
	00 00		 mov	 DWORD PTR tv188[ebp], 143 ; 0000008fH
  002af	eb 21		 jmp	 SHORT $LN25@increase_s
$LN24@increase_s:
  002b1	8b 15 00 00 00
	00		 mov	 edx, DWORD PTR ?__LINE__Var@?0??increase_session_time_of_day_acceleration@@YGXPAUEVENT@@@Z@4JA
  002b7	83 c2 18	 add	 edx, 24			; 00000018H
  002ba	52		 push	 edx
  002bb	68 00 00 00 00	 push	 OFFSET ??_C@_0DO@EFGBNKOF@c?3?2users?2nhv90?2projects?2eech?2ap@
  002c0	a1 00 00 00 00	 mov	 eax, DWORD PTR ?overload_invalid_float_type_message@@3PBDB ; overload_invalid_float_type_message
  002c5	50		 push	 eax
  002c6	e8 00 00 00 00	 call	 ?process_assert@@YGXPBD0H@Z ; process_assert
  002cb	c7 45 b4 00 00
	00 00		 mov	 DWORD PTR tv188[ebp], 0
$LN25@increase_s:
  002d2	51		 push	 ecx
  002d3	f3 0f 10 05 00
	00 00 00	 movss	 xmm0, DWORD PTR __real@45610000
  002db	f3 0f 11 04 24	 movss	 DWORD PTR [esp], xmm0
  002e0	68 8f 00 00 00	 push	 143			; 0000008fH
  002e5	8b 0d 00 00 00
	00		 mov	 ecx, DWORD PTR ?session_entity@@3PAUENTITY@@A ; session_entity
  002eb	51		 push	 ecx
  002ec	69 55 b8 78 05
	00 00		 imul	 edx, DWORD PTR tv180[ebp], 1400
  002f3	8b 45 b4	 mov	 eax, DWORD PTR tv188[ebp]
  002f6	8d 8c c2 00 00
	00 00		 lea	 ecx, DWORD PTR ?fn_set_client_server_entity_float_value@@3PAY1KP@1P6GXPAUENTITY@@W4FLOAT_TYPES@@M@ZA[edx+eax*8]
  002fd	8b 15 00 00 00
	00		 mov	 edx, DWORD PTR ?system_comms_model@@3W4COMMS_MODEL_TYPES@@A ; system_comms_model
  00303	8b 04 91	 mov	 eax, DWORD PTR [ecx+edx*4]
  00306	ff d0		 call	 eax

; 955  : 
; 956  : 			debug_log ("Set session time of day acceleration to MAX");

  00308	68 00 00 00 00	 push	 OFFSET ??_C@_0CM@GKNPOOIN@Set?5session?5time?5of?5day?5acceler@
  0030d	e8 00 00 00 00	 call	 ?debug_log@@YAXPBDZZ	; debug_log
  00312	83 c4 04	 add	 esp, 4
$LN8@increase_s:

; 957  : 		}
; 958  : 	}
; 959  : }

  00315	5f		 pop	 edi
  00316	5e		 pop	 esi
  00317	5b		 pop	 ebx
  00318	8b e5		 mov	 esp, ebp
  0031a	5d		 pop	 ebp
  0031b	c2 04 00	 ret	 4
?increase_session_time_of_day_acceleration@@YGXPAUEVENT@@@Z ENDP ; increase_session_time_of_day_acceleration
_TEXT	ENDS
; Function compile flags: /Odtp /ZI
; File c:\users\nhv90\projects\eech\aphavoc\source\events\ev_debug.c
;	COMDAT ?toggle_local_weather_model_event@@YGXPAUEVENT@@@Z
_TEXT	SEGMENT
tv130 = -80						; size = 4
tv90 = -76						; size = 4
tv78 = -76						; size = 4
tv134 = -72						; size = 4
tv70 = -72						; size = 4
_state$ = -4						; size = 4
_ev$ = 8						; size = 4
?toggle_local_weather_model_event@@YGXPAUEVENT@@@Z PROC	; toggle_local_weather_model_event, COMDAT

; 916  : {

  00000	55		 push	 ebp
  00001	8b ec		 mov	 ebp, esp
  00003	83 ec 50	 sub	 esp, 80			; 00000050H
  00006	53		 push	 ebx
  00007	56		 push	 esi
  00008	57		 push	 edi

; 917  : 	int
; 918  : 		state;
; 919  : 
; 920  : 	state = get_local_entity_int_value (get_session_entity (), INT_TYPE_LOCAL_WEATHER_MODEL);

  00009	83 3d 00 00 00
	00 00		 cmp	 DWORD PTR ?session_entity@@3PAUENTITY@@A, 0 ; session_entity
  00010	74 0c		 je	 SHORT $LN3@toggle_loc
  00012	a1 00 00 00 00	 mov	 eax, DWORD PTR ?session_entity@@3PAUENTITY@@A ; session_entity
  00017	8b 08		 mov	 ecx, DWORD PTR [eax]
  00019	89 4d b8	 mov	 DWORD PTR tv70[ebp], ecx
  0001c	eb 21		 jmp	 SHORT $LN4@toggle_loc
$LN3@toggle_loc:
  0001e	8b 15 00 00 00
	00		 mov	 edx, DWORD PTR ?__LINE__Var@?0??toggle_local_weather_model_event@@YGXPAUEVENT@@@Z@4JA
  00024	83 c2 04	 add	 edx, 4
  00027	52		 push	 edx
  00028	68 00 00 00 00	 push	 OFFSET ??_C@_0DO@EFGBNKOF@c?3?2users?2nhv90?2projects?2eech?2ap@
  0002d	a1 00 00 00 00	 mov	 eax, DWORD PTR ?null_entity_pointer_message@@3PBDB ; null_entity_pointer_message
  00032	50		 push	 eax
  00033	e8 00 00 00 00	 call	 ?process_assert@@YGXPBD0H@Z ; process_assert
  00038	c7 45 b8 00 00
	00 00		 mov	 DWORD PTR tv70[ebp], 0
$LN4@toggle_loc:
  0003f	b9 01 00 00 00	 mov	 ecx, 1
  00044	85 c9		 test	 ecx, ecx
  00046	74 09		 je	 SHORT $LN5@toggle_loc
  00048	c7 45 b4 7d 00
	00 00		 mov	 DWORD PTR tv78[ebp], 125 ; 0000007dH
  0004f	eb 21		 jmp	 SHORT $LN6@toggle_loc
$LN5@toggle_loc:
  00051	8b 15 00 00 00
	00		 mov	 edx, DWORD PTR ?__LINE__Var@?0??toggle_local_weather_model_event@@YGXPAUEVENT@@@Z@4JA
  00057	83 c2 04	 add	 edx, 4
  0005a	52		 push	 edx
  0005b	68 00 00 00 00	 push	 OFFSET ??_C@_0DO@EFGBNKOF@c?3?2users?2nhv90?2projects?2eech?2ap@
  00060	a1 00 00 00 00	 mov	 eax, DWORD PTR ?overload_invalid_int_type_message@@3PBDB ; overload_invalid_int_type_message
  00065	50		 push	 eax
  00066	e8 00 00 00 00	 call	 ?process_assert@@YGXPBD0H@Z ; process_assert
  0006b	c7 45 b4 00 00
	00 00		 mov	 DWORD PTR tv78[ebp], 0
$LN6@toggle_loc:
  00072	6a 7d		 push	 125			; 0000007dH
  00074	8b 0d 00 00 00
	00		 mov	 ecx, DWORD PTR ?session_entity@@3PAUENTITY@@A ; session_entity
  0007a	51		 push	 ecx
  0007b	69 55 b8 5c 04
	00 00		 imul	 edx, DWORD PTR tv70[ebp], 1116
  00082	8b 45 b4	 mov	 eax, DWORD PTR tv78[ebp]
  00085	8b 8c 82 00 00
	00 00		 mov	 ecx, DWORD PTR ?fn_get_local_entity_int_value@@3PAY0BBH@P6GHPAUENTITY@@W4INT_TYPES@@@ZA[edx+eax*4]
  0008c	ff d1		 call	 ecx
  0008e	89 45 fc	 mov	 DWORD PTR _state$[ebp], eax

; 921  : 
; 922  : 	set_local_entity_int_value (get_session_entity (), INT_TYPE_LOCAL_WEATHER_MODEL, !state);

  00091	83 7d fc 00	 cmp	 DWORD PTR _state$[ebp], 0
  00095	75 09		 jne	 SHORT $LN11@toggle_loc
  00097	c7 45 b8 01 00
	00 00		 mov	 DWORD PTR tv134[ebp], 1
  0009e	eb 07		 jmp	 SHORT $LN12@toggle_loc
$LN11@toggle_loc:
  000a0	c7 45 b8 00 00
	00 00		 mov	 DWORD PTR tv134[ebp], 0
$LN12@toggle_loc:
  000a7	83 3d 00 00 00
	00 00		 cmp	 DWORD PTR ?session_entity@@3PAUENTITY@@A, 0 ; session_entity
  000ae	74 0c		 je	 SHORT $LN7@toggle_loc
  000b0	a1 00 00 00 00	 mov	 eax, DWORD PTR ?session_entity@@3PAUENTITY@@A ; session_entity
  000b5	8b 08		 mov	 ecx, DWORD PTR [eax]
  000b7	89 4d b4	 mov	 DWORD PTR tv90[ebp], ecx
  000ba	eb 21		 jmp	 SHORT $LN8@toggle_loc
$LN7@toggle_loc:
  000bc	8b 15 00 00 00
	00		 mov	 edx, DWORD PTR ?__LINE__Var@?0??toggle_local_weather_model_event@@YGXPAUEVENT@@@Z@4JA
  000c2	83 c2 06	 add	 edx, 6
  000c5	52		 push	 edx
  000c6	68 00 00 00 00	 push	 OFFSET ??_C@_0DO@EFGBNKOF@c?3?2users?2nhv90?2projects?2eech?2ap@
  000cb	a1 00 00 00 00	 mov	 eax, DWORD PTR ?null_entity_pointer_message@@3PBDB ; null_entity_pointer_message
  000d0	50		 push	 eax
  000d1	e8 00 00 00 00	 call	 ?process_assert@@YGXPBD0H@Z ; process_assert
  000d6	c7 45 b4 00 00
	00 00		 mov	 DWORD PTR tv90[ebp], 0
$LN8@toggle_loc:
  000dd	b9 01 00 00 00	 mov	 ecx, 1
  000e2	85 c9		 test	 ecx, ecx
  000e4	74 09		 je	 SHORT $LN9@toggle_loc
  000e6	c7 45 b0 7d 00
	00 00		 mov	 DWORD PTR tv130[ebp], 125 ; 0000007dH
  000ed	eb 21		 jmp	 SHORT $LN10@toggle_loc
$LN9@toggle_loc:
  000ef	8b 15 00 00 00
	00		 mov	 edx, DWORD PTR ?__LINE__Var@?0??toggle_local_weather_model_event@@YGXPAUEVENT@@@Z@4JA
  000f5	83 c2 06	 add	 edx, 6
  000f8	52		 push	 edx
  000f9	68 00 00 00 00	 push	 OFFSET ??_C@_0DO@EFGBNKOF@c?3?2users?2nhv90?2projects?2eech?2ap@
  000fe	a1 00 00 00 00	 mov	 eax, DWORD PTR ?overload_invalid_int_type_message@@3PBDB ; overload_invalid_int_type_message
  00103	50		 push	 eax
  00104	e8 00 00 00 00	 call	 ?process_assert@@YGXPBD0H@Z ; process_assert
  00109	c7 45 b0 00 00
	00 00		 mov	 DWORD PTR tv130[ebp], 0
$LN10@toggle_loc:
  00110	8b 4d b8	 mov	 ecx, DWORD PTR tv134[ebp]
  00113	51		 push	 ecx
  00114	6a 7d		 push	 125			; 0000007dH
  00116	8b 15 00 00 00
	00		 mov	 edx, DWORD PTR ?session_entity@@3PAUENTITY@@A ; session_entity
  0011c	52		 push	 edx
  0011d	69 45 b4 5c 04
	00 00		 imul	 eax, DWORD PTR tv90[ebp], 1116
  00124	8b 4d b0	 mov	 ecx, DWORD PTR tv130[ebp]
  00127	8b 94 88 00 00
	00 00		 mov	 edx, DWORD PTR ?fn_set_local_entity_int_value@@3PAY0BBH@P6GXPAUENTITY@@W4INT_TYPES@@H@ZA[eax+ecx*4]
  0012e	ff d2		 call	 edx

; 923  : }

  00130	5f		 pop	 edi
  00131	5e		 pop	 esi
  00132	5b		 pop	 ebx
  00133	8b e5		 mov	 esp, ebp
  00135	5d		 pop	 ebp
  00136	c2 04 00	 ret	 4
?toggle_local_weather_model_event@@YGXPAUEVENT@@@Z ENDP	; toggle_local_weather_model_event
_TEXT	ENDS
; Function compile flags: /Odtp /ZI
; File c:\users\nhv90\projects\eech\aphavoc\source\events\ev_debug.c
;	COMDAT ?set_fine_weather_mode_event@@YGXPAUEVENT@@@Z
_TEXT	SEGMENT
tv156 = -72						; size = 4
tv136 = -72						; size = 4
tv83 = -72						; size = 4
tv148 = -68						; size = 4
tv128 = -68						; size = 4
tv75 = -68						; size = 4
_ev$ = 8						; size = 4
?set_fine_weather_mode_event@@YGXPAUEVENT@@@Z PROC	; set_fine_weather_mode_event, COMDAT

; 899  : {

  00000	55		 push	 ebp
  00001	8b ec		 mov	 ebp, esp
  00003	83 ec 48	 sub	 esp, 72			; 00000048H
  00006	53		 push	 ebx
  00007	56		 push	 esi
  00008	57		 push	 edi

; 900  : 	ASSERT (get_session_entity ());

  00009	83 3d 00 00 00
	00 00		 cmp	 DWORD PTR ?session_entity@@3PAUENTITY@@A, 0 ; session_entity
  00010	75 18		 jne	 SHORT $LN2@set_fine_w
  00012	a1 00 00 00 00	 mov	 eax, DWORD PTR ?__LINE__Var@?0??set_fine_weather_mode_event@@YGXPAUEVENT@@@Z@4JA
  00017	83 c0 01	 add	 eax, 1
  0001a	50		 push	 eax
  0001b	68 00 00 00 00	 push	 OFFSET ??_C@_0DO@EFGBNKOF@c?3?2users?2nhv90?2projects?2eech?2ap@
  00020	68 00 00 00 00	 push	 OFFSET ??_C@_0BG@EFCJJKAA@get_session_entity?5?$CI?$CJ@
  00025	e8 00 00 00 00	 call	 ?process_assert@@YGXPBD0H@Z ; process_assert
$LN2@set_fine_w:

; 901  : 
; 902  : 	set_local_entity_int_value (get_session_entity (), INT_TYPE_LOCAL_WEATHER_MODEL, FALSE);

  0002a	83 3d 00 00 00
	00 00		 cmp	 DWORD PTR ?session_entity@@3PAUENTITY@@A, 0 ; session_entity
  00031	74 0c		 je	 SHORT $LN4@set_fine_w
  00033	a1 00 00 00 00	 mov	 eax, DWORD PTR ?session_entity@@3PAUENTITY@@A ; session_entity
  00038	8b 08		 mov	 ecx, DWORD PTR [eax]
  0003a	89 4d bc	 mov	 DWORD PTR tv75[ebp], ecx
  0003d	eb 21		 jmp	 SHORT $LN5@set_fine_w
$LN4@set_fine_w:
  0003f	8b 15 00 00 00
	00		 mov	 edx, DWORD PTR ?__LINE__Var@?0??set_fine_weather_mode_event@@YGXPAUEVENT@@@Z@4JA
  00045	83 c2 03	 add	 edx, 3
  00048	52		 push	 edx
  00049	68 00 00 00 00	 push	 OFFSET ??_C@_0DO@EFGBNKOF@c?3?2users?2nhv90?2projects?2eech?2ap@
  0004e	a1 00 00 00 00	 mov	 eax, DWORD PTR ?null_entity_pointer_message@@3PBDB ; null_entity_pointer_message
  00053	50		 push	 eax
  00054	e8 00 00 00 00	 call	 ?process_assert@@YGXPBD0H@Z ; process_assert
  00059	c7 45 bc 00 00
	00 00		 mov	 DWORD PTR tv75[ebp], 0
$LN5@set_fine_w:
  00060	b9 01 00 00 00	 mov	 ecx, 1
  00065	85 c9		 test	 ecx, ecx
  00067	74 09		 je	 SHORT $LN6@set_fine_w
  00069	c7 45 b8 7d 00
	00 00		 mov	 DWORD PTR tv83[ebp], 125 ; 0000007dH
  00070	eb 21		 jmp	 SHORT $LN7@set_fine_w
$LN6@set_fine_w:
  00072	8b 15 00 00 00
	00		 mov	 edx, DWORD PTR ?__LINE__Var@?0??set_fine_weather_mode_event@@YGXPAUEVENT@@@Z@4JA
  00078	83 c2 03	 add	 edx, 3
  0007b	52		 push	 edx
  0007c	68 00 00 00 00	 push	 OFFSET ??_C@_0DO@EFGBNKOF@c?3?2users?2nhv90?2projects?2eech?2ap@
  00081	a1 00 00 00 00	 mov	 eax, DWORD PTR ?overload_invalid_int_type_message@@3PBDB ; overload_invalid_int_type_message
  00086	50		 push	 eax
  00087	e8 00 00 00 00	 call	 ?process_assert@@YGXPBD0H@Z ; process_assert
  0008c	c7 45 b8 00 00
	00 00		 mov	 DWORD PTR tv83[ebp], 0
$LN7@set_fine_w:
  00093	6a 00		 push	 0
  00095	6a 7d		 push	 125			; 0000007dH
  00097	8b 0d 00 00 00
	00		 mov	 ecx, DWORD PTR ?session_entity@@3PAUENTITY@@A ; session_entity
  0009d	51		 push	 ecx
  0009e	69 55 bc 5c 04
	00 00		 imul	 edx, DWORD PTR tv75[ebp], 1116
  000a5	8b 45 b8	 mov	 eax, DWORD PTR tv83[ebp]
  000a8	8b 8c 82 00 00
	00 00		 mov	 ecx, DWORD PTR ?fn_set_local_entity_int_value@@3PAY0BBH@P6GXPAUENTITY@@W4INT_TYPES@@H@ZA[edx+eax*4]
  000af	ff d1		 call	 ecx

; 903  : 
; 904  : 	debug_log ("Weather mode set to dry");

  000b1	68 00 00 00 00	 push	 OFFSET ??_C@_0BI@EDAEAGGF@Weather?5mode?5set?5to?5dry@
  000b6	e8 00 00 00 00	 call	 ?debug_log@@YAXPBDZZ	; debug_log
  000bb	83 c4 04	 add	 esp, 4

; 905  : 
; 906  : 	set_local_entity_int_value (get_session_entity (), INT_TYPE_TARGET_WEATHER_MODE, WEATHERMODE_DRY);

  000be	83 3d 00 00 00
	00 00		 cmp	 DWORD PTR ?session_entity@@3PAUENTITY@@A, 0 ; session_entity
  000c5	74 0c		 je	 SHORT $LN8@set_fine_w
  000c7	a1 00 00 00 00	 mov	 eax, DWORD PTR ?session_entity@@3PAUENTITY@@A ; session_entity
  000cc	8b 08		 mov	 ecx, DWORD PTR [eax]
  000ce	89 4d bc	 mov	 DWORD PTR tv128[ebp], ecx
  000d1	eb 21		 jmp	 SHORT $LN9@set_fine_w
$LN8@set_fine_w:
  000d3	8b 15 00 00 00
	00		 mov	 edx, DWORD PTR ?__LINE__Var@?0??set_fine_weather_mode_event@@YGXPAUEVENT@@@Z@4JA
  000d9	83 c2 07	 add	 edx, 7
  000dc	52		 push	 edx
  000dd	68 00 00 00 00	 push	 OFFSET ??_C@_0DO@EFGBNKOF@c?3?2users?2nhv90?2projects?2eech?2ap@
  000e2	a1 00 00 00 00	 mov	 eax, DWORD PTR ?null_entity_pointer_message@@3PBDB ; null_entity_pointer_message
  000e7	50		 push	 eax
  000e8	e8 00 00 00 00	 call	 ?process_assert@@YGXPBD0H@Z ; process_assert
  000ed	c7 45 bc 00 00
	00 00		 mov	 DWORD PTR tv128[ebp], 0
$LN9@set_fine_w:
  000f4	b9 01 00 00 00	 mov	 ecx, 1
  000f9	85 c9		 test	 ecx, ecx
  000fb	74 09		 je	 SHORT $LN10@set_fine_w
  000fd	c7 45 b8 d7 00
	00 00		 mov	 DWORD PTR tv136[ebp], 215 ; 000000d7H
  00104	eb 21		 jmp	 SHORT $LN11@set_fine_w
$LN10@set_fine_w:
  00106	8b 15 00 00 00
	00		 mov	 edx, DWORD PTR ?__LINE__Var@?0??set_fine_weather_mode_event@@YGXPAUEVENT@@@Z@4JA
  0010c	83 c2 07	 add	 edx, 7
  0010f	52		 push	 edx
  00110	68 00 00 00 00	 push	 OFFSET ??_C@_0DO@EFGBNKOF@c?3?2users?2nhv90?2projects?2eech?2ap@
  00115	a1 00 00 00 00	 mov	 eax, DWORD PTR ?overload_invalid_int_type_message@@3PBDB ; overload_invalid_int_type_message
  0011a	50		 push	 eax
  0011b	e8 00 00 00 00	 call	 ?process_assert@@YGXPBD0H@Z ; process_assert
  00120	c7 45 b8 00 00
	00 00		 mov	 DWORD PTR tv136[ebp], 0
$LN11@set_fine_w:
  00127	6a 01		 push	 1
  00129	68 d7 00 00 00	 push	 215			; 000000d7H
  0012e	8b 0d 00 00 00
	00		 mov	 ecx, DWORD PTR ?session_entity@@3PAUENTITY@@A ; session_entity
  00134	51		 push	 ecx
  00135	69 55 bc 5c 04
	00 00		 imul	 edx, DWORD PTR tv128[ebp], 1116
  0013c	8b 45 b8	 mov	 eax, DWORD PTR tv136[ebp]
  0013f	8b 8c 82 00 00
	00 00		 mov	 ecx, DWORD PTR ?fn_set_local_entity_int_value@@3PAY0BBH@P6GXPAUENTITY@@W4INT_TYPES@@H@ZA[edx+eax*4]
  00146	ff d1		 call	 ecx

; 907  : 
; 908  : 	set_local_entity_float_value (get_session_entity (), FLOAT_TYPE_WEATHER_MODE_TRANSITIONAL_PERIOD, 2.0);

  00148	83 3d 00 00 00
	00 00		 cmp	 DWORD PTR ?session_entity@@3PAUENTITY@@A, 0 ; session_entity
  0014f	74 0c		 je	 SHORT $LN12@set_fine_w
  00151	a1 00 00 00 00	 mov	 eax, DWORD PTR ?session_entity@@3PAUENTITY@@A ; session_entity
  00156	8b 08		 mov	 ecx, DWORD PTR [eax]
  00158	89 4d bc	 mov	 DWORD PTR tv148[ebp], ecx
  0015b	eb 21		 jmp	 SHORT $LN13@set_fine_w
$LN12@set_fine_w:
  0015d	8b 15 00 00 00
	00		 mov	 edx, DWORD PTR ?__LINE__Var@?0??set_fine_weather_mode_event@@YGXPAUEVENT@@@Z@4JA
  00163	83 c2 09	 add	 edx, 9
  00166	52		 push	 edx
  00167	68 00 00 00 00	 push	 OFFSET ??_C@_0DO@EFGBNKOF@c?3?2users?2nhv90?2projects?2eech?2ap@
  0016c	a1 00 00 00 00	 mov	 eax, DWORD PTR ?null_entity_pointer_message@@3PBDB ; null_entity_pointer_message
  00171	50		 push	 eax
  00172	e8 00 00 00 00	 call	 ?process_assert@@YGXPBD0H@Z ; process_assert
  00177	c7 45 bc 00 00
	00 00		 mov	 DWORD PTR tv148[ebp], 0
$LN13@set_fine_w:
  0017e	b9 01 00 00 00	 mov	 ecx, 1
  00183	85 c9		 test	 ecx, ecx
  00185	74 09		 je	 SHORT $LN14@set_fine_w
  00187	c7 45 b8 9b 00
	00 00		 mov	 DWORD PTR tv156[ebp], 155 ; 0000009bH
  0018e	eb 21		 jmp	 SHORT $LN15@set_fine_w
$LN14@set_fine_w:
  00190	8b 15 00 00 00
	00		 mov	 edx, DWORD PTR ?__LINE__Var@?0??set_fine_weather_mode_event@@YGXPAUEVENT@@@Z@4JA
  00196	83 c2 09	 add	 edx, 9
  00199	52		 push	 edx
  0019a	68 00 00 00 00	 push	 OFFSET ??_C@_0DO@EFGBNKOF@c?3?2users?2nhv90?2projects?2eech?2ap@
  0019f	a1 00 00 00 00	 mov	 eax, DWORD PTR ?overload_invalid_float_type_message@@3PBDB ; overload_invalid_float_type_message
  001a4	50		 push	 eax
  001a5	e8 00 00 00 00	 call	 ?process_assert@@YGXPBD0H@Z ; process_assert
  001aa	c7 45 b8 00 00
	00 00		 mov	 DWORD PTR tv156[ebp], 0
$LN15@set_fine_w:
  001b1	51		 push	 ecx
  001b2	f3 0f 10 05 00
	00 00 00	 movss	 xmm0, DWORD PTR __real@40000000
  001ba	f3 0f 11 04 24	 movss	 DWORD PTR [esp], xmm0
  001bf	68 9b 00 00 00	 push	 155			; 0000009bH
  001c4	8b 0d 00 00 00
	00		 mov	 ecx, DWORD PTR ?session_entity@@3PAUENTITY@@A ; session_entity
  001ca	51		 push	 ecx
  001cb	69 55 bc bc 02
	00 00		 imul	 edx, DWORD PTR tv148[ebp], 700
  001d2	8b 45 b8	 mov	 eax, DWORD PTR tv156[ebp]
  001d5	8b 8c 82 00 00
	00 00		 mov	 ecx, DWORD PTR ?fn_set_local_entity_float_value@@3PAY0KP@P6GXPAUENTITY@@W4FLOAT_TYPES@@M@ZA[edx+eax*4]
  001dc	ff d1		 call	 ecx

; 909  : }

  001de	5f		 pop	 edi
  001df	5e		 pop	 esi
  001e0	5b		 pop	 ebx
  001e1	8b e5		 mov	 esp, ebp
  001e3	5d		 pop	 ebp
  001e4	c2 04 00	 ret	 4
?set_fine_weather_mode_event@@YGXPAUEVENT@@@Z ENDP	; set_fine_weather_mode_event
_TEXT	ENDS
; Function compile flags: /Odtp /ZI
; File c:\users\nhv90\projects\eech\aphavoc\source\events\ev_debug.c
;	COMDAT ?cycle_weather_modes_event@@YGXPAUEVENT@@@Z
_TEXT	SEGMENT
tv139 = -80						; size = 4
tv180 = -76						; size = 4
tv160 = -76						; size = 4
tv133 = -76						; size = 4
tv83 = -76						; size = 4
tv172 = -72						; size = 4
tv152 = -72						; size = 4
tv94 = -72						; size = 4
tv75 = -72						; size = 4
_target_weather_mode$ = -4				; size = 4
_ev$ = 8						; size = 4
?cycle_weather_modes_event@@YGXPAUEVENT@@@Z PROC	; cycle_weather_modes_event, COMDAT

; 845  : {

  00000	55		 push	 ebp
  00001	8b ec		 mov	 ebp, esp
  00003	83 ec 50	 sub	 esp, 80			; 00000050H
  00006	53		 push	 ebx
  00007	56		 push	 esi
  00008	57		 push	 edi

; 846  : 	weathermodes
; 847  : 		target_weather_mode;
; 848  : 
; 849  : 	ASSERT (get_session_entity ());

  00009	83 3d 00 00 00
	00 00		 cmp	 DWORD PTR ?session_entity@@3PAUENTITY@@A, 0 ; session_entity
  00010	75 18		 jne	 SHORT $LN4@cycle_weat
  00012	a1 00 00 00 00	 mov	 eax, DWORD PTR ?__LINE__Var@?0??cycle_weather_modes_event@@YGXPAUEVENT@@@Z@4JA
  00017	83 c0 04	 add	 eax, 4
  0001a	50		 push	 eax
  0001b	68 00 00 00 00	 push	 OFFSET ??_C@_0DO@EFGBNKOF@c?3?2users?2nhv90?2projects?2eech?2ap@
  00020	68 00 00 00 00	 push	 OFFSET ??_C@_0BG@EFCJJKAA@get_session_entity?5?$CI?$CJ@
  00025	e8 00 00 00 00	 call	 ?process_assert@@YGXPBD0H@Z ; process_assert
$LN4@cycle_weat:

; 850  : 
; 851  : 	set_local_entity_int_value (get_session_entity (), INT_TYPE_LOCAL_WEATHER_MODEL, FALSE);

  0002a	83 3d 00 00 00
	00 00		 cmp	 DWORD PTR ?session_entity@@3PAUENTITY@@A, 0 ; session_entity
  00031	74 0c		 je	 SHORT $LN10@cycle_weat
  00033	a1 00 00 00 00	 mov	 eax, DWORD PTR ?session_entity@@3PAUENTITY@@A ; session_entity
  00038	8b 08		 mov	 ecx, DWORD PTR [eax]
  0003a	89 4d b8	 mov	 DWORD PTR tv75[ebp], ecx
  0003d	eb 21		 jmp	 SHORT $LN11@cycle_weat
$LN10@cycle_weat:
  0003f	8b 15 00 00 00
	00		 mov	 edx, DWORD PTR ?__LINE__Var@?0??cycle_weather_modes_event@@YGXPAUEVENT@@@Z@4JA
  00045	83 c2 06	 add	 edx, 6
  00048	52		 push	 edx
  00049	68 00 00 00 00	 push	 OFFSET ??_C@_0DO@EFGBNKOF@c?3?2users?2nhv90?2projects?2eech?2ap@
  0004e	a1 00 00 00 00	 mov	 eax, DWORD PTR ?null_entity_pointer_message@@3PBDB ; null_entity_pointer_message
  00053	50		 push	 eax
  00054	e8 00 00 00 00	 call	 ?process_assert@@YGXPBD0H@Z ; process_assert
  00059	c7 45 b8 00 00
	00 00		 mov	 DWORD PTR tv75[ebp], 0
$LN11@cycle_weat:
  00060	b9 01 00 00 00	 mov	 ecx, 1
  00065	85 c9		 test	 ecx, ecx
  00067	74 09		 je	 SHORT $LN12@cycle_weat
  00069	c7 45 b4 7d 00
	00 00		 mov	 DWORD PTR tv83[ebp], 125 ; 0000007dH
  00070	eb 21		 jmp	 SHORT $LN13@cycle_weat
$LN12@cycle_weat:
  00072	8b 15 00 00 00
	00		 mov	 edx, DWORD PTR ?__LINE__Var@?0??cycle_weather_modes_event@@YGXPAUEVENT@@@Z@4JA
  00078	83 c2 06	 add	 edx, 6
  0007b	52		 push	 edx
  0007c	68 00 00 00 00	 push	 OFFSET ??_C@_0DO@EFGBNKOF@c?3?2users?2nhv90?2projects?2eech?2ap@
  00081	a1 00 00 00 00	 mov	 eax, DWORD PTR ?overload_invalid_int_type_message@@3PBDB ; overload_invalid_int_type_message
  00086	50		 push	 eax
  00087	e8 00 00 00 00	 call	 ?process_assert@@YGXPBD0H@Z ; process_assert
  0008c	c7 45 b4 00 00
	00 00		 mov	 DWORD PTR tv83[ebp], 0
$LN13@cycle_weat:
  00093	6a 00		 push	 0
  00095	6a 7d		 push	 125			; 0000007dH
  00097	8b 0d 00 00 00
	00		 mov	 ecx, DWORD PTR ?session_entity@@3PAUENTITY@@A ; session_entity
  0009d	51		 push	 ecx
  0009e	69 55 b8 5c 04
	00 00		 imul	 edx, DWORD PTR tv75[ebp], 1116
  000a5	8b 45 b4	 mov	 eax, DWORD PTR tv83[ebp]
  000a8	8b 8c 82 00 00
	00 00		 mov	 ecx, DWORD PTR ?fn_set_local_entity_int_value@@3PAY0BBH@P6GXPAUENTITY@@W4INT_TYPES@@H@ZA[edx+eax*4]
  000af	ff d1		 call	 ecx

; 852  : 
; 853  : 	switch (get_local_entity_int_value (get_session_entity (), INT_TYPE_WEATHER_MODE))

  000b1	83 3d 00 00 00
	00 00		 cmp	 DWORD PTR ?session_entity@@3PAUENTITY@@A, 0 ; session_entity
  000b8	74 0c		 je	 SHORT $LN14@cycle_weat
  000ba	a1 00 00 00 00	 mov	 eax, DWORD PTR ?session_entity@@3PAUENTITY@@A ; session_entity
  000bf	8b 08		 mov	 ecx, DWORD PTR [eax]
  000c1	89 4d b8	 mov	 DWORD PTR tv94[ebp], ecx
  000c4	eb 1d		 jmp	 SHORT $LN15@cycle_weat
$LN14@cycle_weat:
  000c6	68 55 03 00 00	 push	 853			; 00000355H
  000cb	68 00 00 00 00	 push	 OFFSET ??_C@_0DO@EFGBNKOF@c?3?2users?2nhv90?2projects?2eech?2ap@
  000d0	8b 15 00 00 00
	00		 mov	 edx, DWORD PTR ?null_entity_pointer_message@@3PBDB ; null_entity_pointer_message
  000d6	52		 push	 edx
  000d7	e8 00 00 00 00	 call	 ?process_assert@@YGXPBD0H@Z ; process_assert
  000dc	c7 45 b8 00 00
	00 00		 mov	 DWORD PTR tv94[ebp], 0
$LN15@cycle_weat:
  000e3	b8 01 00 00 00	 mov	 eax, 1
  000e8	85 c0		 test	 eax, eax
  000ea	74 09		 je	 SHORT $LN16@cycle_weat
  000ec	c7 45 b4 13 01
	00 00		 mov	 DWORD PTR tv133[ebp], 275 ; 00000113H
  000f3	eb 1d		 jmp	 SHORT $LN17@cycle_weat
$LN16@cycle_weat:
  000f5	68 55 03 00 00	 push	 853			; 00000355H
  000fa	68 00 00 00 00	 push	 OFFSET ??_C@_0DO@EFGBNKOF@c?3?2users?2nhv90?2projects?2eech?2ap@
  000ff	8b 0d 00 00 00
	00		 mov	 ecx, DWORD PTR ?overload_invalid_int_type_message@@3PBDB ; overload_invalid_int_type_message
  00105	51		 push	 ecx
  00106	e8 00 00 00 00	 call	 ?process_assert@@YGXPBD0H@Z ; process_assert
  0010b	c7 45 b4 00 00
	00 00		 mov	 DWORD PTR tv133[ebp], 0
$LN17@cycle_weat:
  00112	68 13 01 00 00	 push	 275			; 00000113H
  00117	8b 15 00 00 00
	00		 mov	 edx, DWORD PTR ?session_entity@@3PAUENTITY@@A ; session_entity
  0011d	52		 push	 edx
  0011e	69 45 b8 5c 04
	00 00		 imul	 eax, DWORD PTR tv94[ebp], 1116
  00125	8b 4d b4	 mov	 ecx, DWORD PTR tv133[ebp]
  00128	8b 94 88 00 00
	00 00		 mov	 edx, DWORD PTR ?fn_get_local_entity_int_value@@3PAY0BBH@P6GHPAUENTITY@@W4INT_TYPES@@@ZA[eax+ecx*4]
  0012f	ff d2		 call	 edx
  00131	89 45 b0	 mov	 DWORD PTR tv139[ebp], eax
  00134	8b 45 b0	 mov	 eax, DWORD PTR tv139[ebp]
  00137	83 e8 01	 sub	 eax, 1
  0013a	89 45 b0	 mov	 DWORD PTR tv139[ebp], eax
  0013d	83 7d b0 03	 cmp	 DWORD PTR tv139[ebp], 3
  00141	77 60		 ja	 SHORT $LN2@cycle_weat
  00143	8b 4d b0	 mov	 ecx, DWORD PTR tv139[ebp]
  00146	ff 24 8d 00 00
	00 00		 jmp	 DWORD PTR $LN26@cycle_weat[ecx*4]
$LN5@cycle_weat:

; 854  : 	{
; 855  : 		case WEATHERMODE_DRY:
; 856  : 		{
; 857  : 			target_weather_mode = WEATHERMODE_LIGHT_RAIN;

  0014d	c7 45 fc 02 00
	00 00		 mov	 DWORD PTR _target_weather_mode$[ebp], 2

; 858  : 
; 859  : 			debug_log ("Weather mode set to light rain");

  00154	68 00 00 00 00	 push	 OFFSET ??_C@_0BP@NCAMAMLK@Weather?5mode?5set?5to?5light?5rain@
  00159	e8 00 00 00 00	 call	 ?debug_log@@YAXPBDZZ	; debug_log
  0015e	83 c4 04	 add	 esp, 4

; 860  : 
; 861  : 			break;

  00161	eb 40		 jmp	 SHORT $LN2@cycle_weat
$LN6@cycle_weat:

; 862  : 		}
; 863  : 		case WEATHERMODE_LIGHT_RAIN:
; 864  : 		{
; 865  : 			target_weather_mode = WEATHERMODE_HEAVY_RAIN;

  00163	c7 45 fc 03 00
	00 00		 mov	 DWORD PTR _target_weather_mode$[ebp], 3

; 866  : 
; 867  : 			debug_log ("Weather mode set to heavy rain");

  0016a	68 00 00 00 00	 push	 OFFSET ??_C@_0BP@DBFKEOF@Weather?5mode?5set?5to?5heavy?5rain@
  0016f	e8 00 00 00 00	 call	 ?debug_log@@YAXPBDZZ	; debug_log
  00174	83 c4 04	 add	 esp, 4

; 868  : 
; 869  : 			break;

  00177	eb 2a		 jmp	 SHORT $LN2@cycle_weat
$LN7@cycle_weat:

; 870  : 		}
; 871  : 		case WEATHERMODE_HEAVY_RAIN:
; 872  : 		{
; 873  : 			target_weather_mode = WEATHERMODE_SNOW;

  00179	c7 45 fc 04 00
	00 00		 mov	 DWORD PTR _target_weather_mode$[ebp], 4

; 874  : 
; 875  : 			debug_log ("Weather mode set to snow");

  00180	68 00 00 00 00	 push	 OFFSET ??_C@_0BJ@INEBACJH@Weather?5mode?5set?5to?5snow@
  00185	e8 00 00 00 00	 call	 ?debug_log@@YAXPBDZZ	; debug_log
  0018a	83 c4 04	 add	 esp, 4

; 876  : 
; 877  : 			break;

  0018d	eb 14		 jmp	 SHORT $LN2@cycle_weat
$LN8@cycle_weat:

; 878  : 		}
; 879  : 		case WEATHERMODE_SNOW:
; 880  : 		{
; 881  : 			target_weather_mode = WEATHERMODE_DRY;

  0018f	c7 45 fc 01 00
	00 00		 mov	 DWORD PTR _target_weather_mode$[ebp], 1

; 882  : 
; 883  : 			debug_log ("Weather mode set to dry");

  00196	68 00 00 00 00	 push	 OFFSET ??_C@_0BI@EDAEAGGF@Weather?5mode?5set?5to?5dry@
  0019b	e8 00 00 00 00	 call	 ?debug_log@@YAXPBDZZ	; debug_log
  001a0	83 c4 04	 add	 esp, 4
$LN2@cycle_weat:

; 884  : 
; 885  : 			break;
; 886  : 		}
; 887  : 	}
; 888  : 
; 889  : 	set_local_entity_int_value (get_session_entity (), INT_TYPE_TARGET_WEATHER_MODE, target_weather_mode);

  001a3	83 3d 00 00 00
	00 00		 cmp	 DWORD PTR ?session_entity@@3PAUENTITY@@A, 0 ; session_entity
  001aa	74 0c		 je	 SHORT $LN18@cycle_weat
  001ac	a1 00 00 00 00	 mov	 eax, DWORD PTR ?session_entity@@3PAUENTITY@@A ; session_entity
  001b1	8b 08		 mov	 ecx, DWORD PTR [eax]
  001b3	89 4d b8	 mov	 DWORD PTR tv152[ebp], ecx
  001b6	eb 21		 jmp	 SHORT $LN19@cycle_weat
$LN18@cycle_weat:
  001b8	8b 15 00 00 00
	00		 mov	 edx, DWORD PTR ?__LINE__Var@?0??cycle_weather_modes_event@@YGXPAUEVENT@@@Z@4JA
  001be	83 c2 2c	 add	 edx, 44			; 0000002cH
  001c1	52		 push	 edx
  001c2	68 00 00 00 00	 push	 OFFSET ??_C@_0DO@EFGBNKOF@c?3?2users?2nhv90?2projects?2eech?2ap@
  001c7	a1 00 00 00 00	 mov	 eax, DWORD PTR ?null_entity_pointer_message@@3PBDB ; null_entity_pointer_message
  001cc	50		 push	 eax
  001cd	e8 00 00 00 00	 call	 ?process_assert@@YGXPBD0H@Z ; process_assert
  001d2	c7 45 b8 00 00
	00 00		 mov	 DWORD PTR tv152[ebp], 0
$LN19@cycle_weat:
  001d9	b9 01 00 00 00	 mov	 ecx, 1
  001de	85 c9		 test	 ecx, ecx
  001e0	74 09		 je	 SHORT $LN20@cycle_weat
  001e2	c7 45 b4 d7 00
	00 00		 mov	 DWORD PTR tv160[ebp], 215 ; 000000d7H
  001e9	eb 21		 jmp	 SHORT $LN21@cycle_weat
$LN20@cycle_weat:
  001eb	8b 15 00 00 00
	00		 mov	 edx, DWORD PTR ?__LINE__Var@?0??cycle_weather_modes_event@@YGXPAUEVENT@@@Z@4JA
  001f1	83 c2 2c	 add	 edx, 44			; 0000002cH
  001f4	52		 push	 edx
  001f5	68 00 00 00 00	 push	 OFFSET ??_C@_0DO@EFGBNKOF@c?3?2users?2nhv90?2projects?2eech?2ap@
  001fa	a1 00 00 00 00	 mov	 eax, DWORD PTR ?overload_invalid_int_type_message@@3PBDB ; overload_invalid_int_type_message
  001ff	50		 push	 eax
  00200	e8 00 00 00 00	 call	 ?process_assert@@YGXPBD0H@Z ; process_assert
  00205	c7 45 b4 00 00
	00 00		 mov	 DWORD PTR tv160[ebp], 0
$LN21@cycle_weat:
  0020c	8b 4d fc	 mov	 ecx, DWORD PTR _target_weather_mode$[ebp]
  0020f	51		 push	 ecx
  00210	68 d7 00 00 00	 push	 215			; 000000d7H
  00215	8b 15 00 00 00
	00		 mov	 edx, DWORD PTR ?session_entity@@3PAUENTITY@@A ; session_entity
  0021b	52		 push	 edx
  0021c	69 45 b8 5c 04
	00 00		 imul	 eax, DWORD PTR tv152[ebp], 1116
  00223	8b 4d b4	 mov	 ecx, DWORD PTR tv160[ebp]
  00226	8b 94 88 00 00
	00 00		 mov	 edx, DWORD PTR ?fn_set_local_entity_int_value@@3PAY0BBH@P6GXPAUENTITY@@W4INT_TYPES@@H@ZA[eax+ecx*4]
  0022d	ff d2		 call	 edx

; 890  : 
; 891  : 	set_local_entity_float_value (get_session_entity (), FLOAT_TYPE_WEATHER_MODE_TRANSITIONAL_PERIOD, 2.0);

  0022f	83 3d 00 00 00
	00 00		 cmp	 DWORD PTR ?session_entity@@3PAUENTITY@@A, 0 ; session_entity
  00236	74 0c		 je	 SHORT $LN22@cycle_weat
  00238	a1 00 00 00 00	 mov	 eax, DWORD PTR ?session_entity@@3PAUENTITY@@A ; session_entity
  0023d	8b 08		 mov	 ecx, DWORD PTR [eax]
  0023f	89 4d b8	 mov	 DWORD PTR tv172[ebp], ecx
  00242	eb 21		 jmp	 SHORT $LN23@cycle_weat
$LN22@cycle_weat:
  00244	8b 15 00 00 00
	00		 mov	 edx, DWORD PTR ?__LINE__Var@?0??cycle_weather_modes_event@@YGXPAUEVENT@@@Z@4JA
  0024a	83 c2 2e	 add	 edx, 46			; 0000002eH
  0024d	52		 push	 edx
  0024e	68 00 00 00 00	 push	 OFFSET ??_C@_0DO@EFGBNKOF@c?3?2users?2nhv90?2projects?2eech?2ap@
  00253	a1 00 00 00 00	 mov	 eax, DWORD PTR ?null_entity_pointer_message@@3PBDB ; null_entity_pointer_message
  00258	50		 push	 eax
  00259	e8 00 00 00 00	 call	 ?process_assert@@YGXPBD0H@Z ; process_assert
  0025e	c7 45 b8 00 00
	00 00		 mov	 DWORD PTR tv172[ebp], 0
$LN23@cycle_weat:
  00265	b9 01 00 00 00	 mov	 ecx, 1
  0026a	85 c9		 test	 ecx, ecx
  0026c	74 09		 je	 SHORT $LN24@cycle_weat
  0026e	c7 45 b4 9b 00
	00 00		 mov	 DWORD PTR tv180[ebp], 155 ; 0000009bH
  00275	eb 21		 jmp	 SHORT $LN25@cycle_weat
$LN24@cycle_weat:
  00277	8b 15 00 00 00
	00		 mov	 edx, DWORD PTR ?__LINE__Var@?0??cycle_weather_modes_event@@YGXPAUEVENT@@@Z@4JA
  0027d	83 c2 2e	 add	 edx, 46			; 0000002eH
  00280	52		 push	 edx
  00281	68 00 00 00 00	 push	 OFFSET ??_C@_0DO@EFGBNKOF@c?3?2users?2nhv90?2projects?2eech?2ap@
  00286	a1 00 00 00 00	 mov	 eax, DWORD PTR ?overload_invalid_float_type_message@@3PBDB ; overload_invalid_float_type_message
  0028b	50		 push	 eax
  0028c	e8 00 00 00 00	 call	 ?process_assert@@YGXPBD0H@Z ; process_assert
  00291	c7 45 b4 00 00
	00 00		 mov	 DWORD PTR tv180[ebp], 0
$LN25@cycle_weat:
  00298	51		 push	 ecx
  00299	f3 0f 10 05 00
	00 00 00	 movss	 xmm0, DWORD PTR __real@40000000
  002a1	f3 0f 11 04 24	 movss	 DWORD PTR [esp], xmm0
  002a6	68 9b 00 00 00	 push	 155			; 0000009bH
  002ab	8b 0d 00 00 00
	00		 mov	 ecx, DWORD PTR ?session_entity@@3PAUENTITY@@A ; session_entity
  002b1	51		 push	 ecx
  002b2	69 55 b8 bc 02
	00 00		 imul	 edx, DWORD PTR tv172[ebp], 700
  002b9	8b 45 b4	 mov	 eax, DWORD PTR tv180[ebp]
  002bc	8b 8c 82 00 00
	00 00		 mov	 ecx, DWORD PTR ?fn_set_local_entity_float_value@@3PAY0KP@P6GXPAUENTITY@@W4FLOAT_TYPES@@M@ZA[edx+eax*4]
  002c3	ff d1		 call	 ecx

; 892  : }

  002c5	5f		 pop	 edi
  002c6	5e		 pop	 esi
  002c7	5b		 pop	 ebx
  002c8	8b e5		 mov	 esp, ebp
  002ca	5d		 pop	 ebp
  002cb	c2 04 00	 ret	 4
  002ce	66 90		 npad	 2
$LN26@cycle_weat:
  002d0	00 00 00 00	 DD	 $LN5@cycle_weat
  002d4	00 00 00 00	 DD	 $LN6@cycle_weat
  002d8	00 00 00 00	 DD	 $LN7@cycle_weat
  002dc	00 00 00 00	 DD	 $LN8@cycle_weat
?cycle_weather_modes_event@@YGXPAUEVENT@@@Z ENDP	; cycle_weather_modes_event
_TEXT	ENDS
; Function compile flags: /Odtp /ZI
; File c:\users\nhv90\projects\eech\aphavoc\source\events\ev_debug.c
;	COMDAT ?toggle_simple_avionics_event@@YGXPAUEVENT@@@Z
_TEXT	SEGMENT
_ev$ = 8						; size = 4
?toggle_simple_avionics_event@@YGXPAUEVENT@@@Z PROC	; toggle_simple_avionics_event, COMDAT

; 828  : {

  00000	55		 push	 ebp
  00001	8b ec		 mov	 ebp, esp
  00003	83 ec 40	 sub	 esp, 64			; 00000040H
  00006	53		 push	 ebx
  00007	56		 push	 esi
  00008	57		 push	 edi

; 829  : 	set_global_simple_avionics (get_global_simple_avionics () ^ 1);

  00009	a1 6c 03 00 00	 mov	 eax, DWORD PTR ?global_options@@3UGLOBAL_OPTIONS_DATA@@A+876
  0000e	83 f0 01	 xor	 eax, 1
  00011	a3 6c 03 00 00	 mov	 DWORD PTR ?global_options@@3UGLOBAL_OPTIONS_DATA@@A+876, eax

; 830  : 
; 831  : 	debug_colour_log (DEBUG_COLOUR_AMBER, "simple_avionics = %d", get_global_simple_avionics ());

  00016	a1 6c 03 00 00	 mov	 eax, DWORD PTR ?global_options@@3UGLOBAL_OPTIONS_DATA@@A+876
  0001b	50		 push	 eax
  0001c	68 00 00 00 00	 push	 OFFSET ??_C@_0BF@NAINGCLF@simple_avionics?5?$DN?5?$CFd@
  00021	6a 17		 push	 23			; 00000017H
  00023	e8 00 00 00 00	 call	 ?debug_colour_log@@YAXW4DEBUG_COLOURS@@PBDZZ ; debug_colour_log
  00028	83 c4 0c	 add	 esp, 12			; 0000000cH

; 832  : }

  0002b	5f		 pop	 edi
  0002c	5e		 pop	 esi
  0002d	5b		 pop	 ebx
  0002e	8b e5		 mov	 esp, ebp
  00030	5d		 pop	 ebp
  00031	c2 04 00	 ret	 4
?toggle_simple_avionics_event@@YGXPAUEVENT@@@Z ENDP	; toggle_simple_avionics_event
_TEXT	ENDS
; Function compile flags: /Odtp /ZI
; File c:\users\nhv90\projects\eech\aphavoc\source\events\ev_debug.c
;	COMDAT ?toggle_debug_draw_full_screen_mfd_event@@YGXPAUEVENT@@@Z
_TEXT	SEGMENT
_ev$ = 8						; size = 4
?toggle_debug_draw_full_screen_mfd_event@@YGXPAUEVENT@@@Z PROC ; toggle_debug_draw_full_screen_mfd_event, COMDAT

; 806  : {

  00000	55		 push	 ebp
  00001	8b ec		 mov	 ebp, esp
  00003	83 ec 40	 sub	 esp, 64			; 00000040H
  00006	53		 push	 ebx
  00007	56		 push	 esi
  00008	57		 push	 edi

; 807  : 	if (original_d3d_can_render_to_texture)

  00009	83 3d 00 00 00
	00 00		 cmp	 DWORD PTR ?original_d3d_can_render_to_texture@@3HA, 0 ; original_d3d_can_render_to_texture
  00010	74 42		 je	 SHORT $LN2@toggle_deb

; 808  : 	{
; 809  : 		d3d_can_render_to_texture^= 1;

  00012	a1 00 00 00 00	 mov	 eax, DWORD PTR ?d3d_can_render_to_texture@@3HA ; d3d_can_render_to_texture
  00017	83 f0 01	 xor	 eax, 1
  0001a	a3 00 00 00 00	 mov	 DWORD PTR ?d3d_can_render_to_texture@@3HA, eax ; d3d_can_render_to_texture

; 810  : 
; 811  : 		debug_colour_log (DEBUG_COLOUR_AMBER, "----------------------------------------");

  0001f	68 00 00 00 00	 push	 OFFSET ??_C@_0CJ@KKOIPHL@?9?9?9?9?9?9?9?9?9?9?9?9?9?9?9?9?9?9?9?9?9?9?9?9?9?9?9?9?9?9?9@
  00024	6a 17		 push	 23			; 00000017H
  00026	e8 00 00 00 00	 call	 ?debug_colour_log@@YAXW4DEBUG_COLOURS@@PBDZZ ; debug_colour_log
  0002b	83 c4 08	 add	 esp, 8

; 812  : 		debug_colour_log (DEBUG_COLOUR_AMBER, "d3d_can_render_to_texture = %d", d3d_can_render_to_texture);

  0002e	a1 00 00 00 00	 mov	 eax, DWORD PTR ?d3d_can_render_to_texture@@3HA ; d3d_can_render_to_texture
  00033	50		 push	 eax
  00034	68 00 00 00 00	 push	 OFFSET ??_C@_0BP@HIKJDBKO@d3d_can_render_to_texture?5?$DN?5?$CFd@
  00039	6a 17		 push	 23			; 00000017H
  0003b	e8 00 00 00 00	 call	 ?debug_colour_log@@YAXW4DEBUG_COLOURS@@PBDZZ ; debug_colour_log
  00040	83 c4 0c	 add	 esp, 12			; 0000000cH

; 813  : 		debug_colour_log (DEBUG_COLOUR_AMBER, "----------------------------------------");

  00043	68 00 00 00 00	 push	 OFFSET ??_C@_0CJ@KKOIPHL@?9?9?9?9?9?9?9?9?9?9?9?9?9?9?9?9?9?9?9?9?9?9?9?9?9?9?9?9?9?9?9@
  00048	6a 17		 push	 23			; 00000017H
  0004a	e8 00 00 00 00	 call	 ?debug_colour_log@@YAXW4DEBUG_COLOURS@@PBDZZ ; debug_colour_log
  0004f	83 c4 08	 add	 esp, 8

; 814  : 	}
; 815  : 	else

  00052	eb 2d		 jmp	 SHORT $LN1@toggle_deb
$LN2@toggle_deb:

; 816  : 	{
; 817  : 		debug_colour_log (DEBUG_COLOUR_AMBER, "----------------------------------------");

  00054	68 00 00 00 00	 push	 OFFSET ??_C@_0CJ@KKOIPHL@?9?9?9?9?9?9?9?9?9?9?9?9?9?9?9?9?9?9?9?9?9?9?9?9?9?9?9?9?9?9?9@
  00059	6a 17		 push	 23			; 00000017H
  0005b	e8 00 00 00 00	 call	 ?debug_colour_log@@YAXW4DEBUG_COLOURS@@PBDZZ ; debug_colour_log
  00060	83 c4 08	 add	 esp, 8

; 818  : 		debug_colour_log (DEBUG_COLOUR_AMBER, "d3d_can_render_to_texture NOT SUPPORTED");

  00063	68 00 00 00 00	 push	 OFFSET ??_C@_0CI@DAFDHHEB@d3d_can_render_to_texture?5NOT?5S@
  00068	6a 17		 push	 23			; 00000017H
  0006a	e8 00 00 00 00	 call	 ?debug_colour_log@@YAXW4DEBUG_COLOURS@@PBDZZ ; debug_colour_log
  0006f	83 c4 08	 add	 esp, 8

; 819  : 		debug_colour_log (DEBUG_COLOUR_AMBER, "----------------------------------------");

  00072	68 00 00 00 00	 push	 OFFSET ??_C@_0CJ@KKOIPHL@?9?9?9?9?9?9?9?9?9?9?9?9?9?9?9?9?9?9?9?9?9?9?9?9?9?9?9?9?9?9?9@
  00077	6a 17		 push	 23			; 00000017H
  00079	e8 00 00 00 00	 call	 ?debug_colour_log@@YAXW4DEBUG_COLOURS@@PBDZZ ; debug_colour_log
  0007e	83 c4 08	 add	 esp, 8
$LN1@toggle_deb:

; 820  : 	}
; 821  : }

  00081	5f		 pop	 edi
  00082	5e		 pop	 esi
  00083	5b		 pop	 ebx
  00084	8b e5		 mov	 esp, ebp
  00086	5d		 pop	 ebp
  00087	c2 04 00	 ret	 4
?toggle_debug_draw_full_screen_mfd_event@@YGXPAUEVENT@@@Z ENDP ; toggle_debug_draw_full_screen_mfd_event
_TEXT	ENDS
; Function compile flags: /Odtp /ZI
; File c:\users\nhv90\projects\eech\aphavoc\source\events\ev_debug.c
;	COMDAT ?toggle_night_vision_system_active_event@@YGXPAUEVENT@@@Z
_TEXT	SEGMENT
_ev$ = 8						; size = 4
?toggle_night_vision_system_active_event@@YGXPAUEVENT@@@Z PROC ; toggle_night_vision_system_active_event, COMDAT

; 795  : {

  00000	55		 push	 ebp
  00001	8b ec		 mov	 ebp, esp
  00003	83 ec 40	 sub	 esp, 64			; 00000040H
  00006	53		 push	 ebx
  00007	56		 push	 esi
  00008	57		 push	 edi

; 796  : 	night_vision_system_active ^= 1;

  00009	a1 00 00 00 00	 mov	 eax, DWORD PTR ?night_vision_system_active@@3HA ; night_vision_system_active
  0000e	83 f0 01	 xor	 eax, 1
  00011	a3 00 00 00 00	 mov	 DWORD PTR ?night_vision_system_active@@3HA, eax ; night_vision_system_active

; 797  : 
; 798  : 	debug_log ("night_vision_system_active = %d", night_vision_system_active);

  00016	a1 00 00 00 00	 mov	 eax, DWORD PTR ?night_vision_system_active@@3HA ; night_vision_system_active
  0001b	50		 push	 eax
  0001c	68 00 00 00 00	 push	 OFFSET ??_C@_0CA@JHBJEJPC@night_vision_system_active?5?$DN?5?$CFd@
  00021	e8 00 00 00 00	 call	 ?debug_log@@YAXPBDZZ	; debug_log
  00026	83 c4 08	 add	 esp, 8

; 799  : }

  00029	5f		 pop	 edi
  0002a	5e		 pop	 esi
  0002b	5b		 pop	 ebx
  0002c	8b e5		 mov	 esp, ebp
  0002e	5d		 pop	 ebp
  0002f	c2 04 00	 ret	 4
?toggle_night_vision_system_active_event@@YGXPAUEVENT@@@Z ENDP ; toggle_night_vision_system_active_event
_TEXT	ENDS
; Function compile flags: /Odtp /ZI
; File c:\users\nhv90\projects\eech\aphavoc\source\events\ev_debug.c
;	COMDAT ?fully_repair_gunship_damage_event@@YGXPAUEVENT@@@Z
_TEXT	SEGMENT
_ev$ = 8						; size = 4
?fully_repair_gunship_damage_event@@YGXPAUEVENT@@@Z PROC ; fully_repair_gunship_damage_event, COMDAT

; 786  : {

  00000	55		 push	 ebp
  00001	8b ec		 mov	 ebp, esp
  00003	83 ec 40	 sub	 esp, 64			; 00000040H
  00006	53		 push	 ebx
  00007	56		 push	 esi
  00008	57		 push	 edi

; 787  : 	fully_repair_gunship_damage ();

  00009	e8 00 00 00 00	 call	 ?fully_repair_gunship_damage@@YGXXZ ; fully_repair_gunship_damage

; 788  : }

  0000e	5f		 pop	 edi
  0000f	5e		 pop	 esi
  00010	5b		 pop	 ebx
  00011	8b e5		 mov	 esp, ebp
  00013	5d		 pop	 ebp
  00014	c2 04 00	 ret	 4
?fully_repair_gunship_damage_event@@YGXPAUEVENT@@@Z ENDP ; fully_repair_gunship_damage_event
_TEXT	ENDS
; Function compile flags: /Odtp /ZI
; File c:\users\nhv90\projects\eech\aphavoc\source\events\ev_debug.c
;	COMDAT ?partially_repair_gunship_damage_event@@YGXPAUEVENT@@@Z
_TEXT	SEGMENT
_ev$ = 8						; size = 4
?partially_repair_gunship_damage_event@@YGXPAUEVENT@@@Z PROC ; partially_repair_gunship_damage_event, COMDAT

; 777  : {

  00000	55		 push	 ebp
  00001	8b ec		 mov	 ebp, esp
  00003	83 ec 40	 sub	 esp, 64			; 00000040H
  00006	53		 push	 ebx
  00007	56		 push	 esi
  00008	57		 push	 edi

; 778  : 	partially_repair_gunship_damage ();

  00009	e8 00 00 00 00	 call	 ?partially_repair_gunship_damage@@YGXXZ ; partially_repair_gunship_damage

; 779  : }

  0000e	5f		 pop	 edi
  0000f	5e		 pop	 esi
  00010	5b		 pop	 ebx
  00011	8b e5		 mov	 esp, ebp
  00013	5d		 pop	 ebp
  00014	c2 04 00	 ret	 4
?partially_repair_gunship_damage_event@@YGXPAUEVENT@@@Z ENDP ; partially_repair_gunship_damage_event
_TEXT	ENDS
; Function compile flags: /Odtp /ZI
; File c:\users\nhv90\projects\eech\aphavoc\source\events\ev_debug.c
;	COMDAT ?heavy_damage_gunship_event@@YGXPAUEVENT@@@Z
_TEXT	SEGMENT
_en$ = -4						; size = 4
_ev$ = 8						; size = 4
?heavy_damage_gunship_event@@YGXPAUEVENT@@@Z PROC	; heavy_damage_gunship_event, COMDAT

; 753  : {

  00000	55		 push	 ebp
  00001	8b ec		 mov	 ebp, esp
  00003	83 ec 44	 sub	 esp, 68			; 00000044H
  00006	53		 push	 ebx
  00007	56		 push	 esi
  00008	57		 push	 edi

; 754  : 	entity
; 755  : 		*en;
; 756  : 
; 757  : 	if (in_cockpit)

  00009	83 3d 00 00 00
	00 00		 cmp	 DWORD PTR ?in_cockpit@@3HA, 0 ; in_cockpit
  00010	74 0a		 je	 SHORT $LN2@heavy_dama

; 758  : 	{
; 759  : 		en = get_gunship_entity ();

  00012	a1 00 00 00 00	 mov	 eax, DWORD PTR ?gunship_entity@@3PAUENTITY@@A ; gunship_entity
  00017	89 45 fc	 mov	 DWORD PTR _en$[ebp], eax

; 760  : 	}
; 761  : 	else

  0001a	eb 08		 jmp	 SHORT $LN3@heavy_dama
$LN2@heavy_dama:

; 762  : 	{
; 763  : 		en = get_external_view_entity ();

  0001c	e8 00 00 00 00	 call	 ?get_external_view_entity@@YGPAUENTITY@@XZ ; get_external_view_entity
  00021	89 45 fc	 mov	 DWORD PTR _en$[ebp], eax
$LN3@heavy_dama:

; 764  : 	}
; 765  : 
; 766  : 	if (en)

  00024	83 7d fc 00	 cmp	 DWORD PTR _en$[ebp], 0
  00028	74 0b		 je	 SHORT $LN1@heavy_dama

; 767  : 	{
; 768  : 		damage_client_server_entity_avionics (en, GUNSHIP_DAMAGE_LEVEL_HEAVY);

  0002a	6a 02		 push	 2
  0002c	8b 45 fc	 mov	 eax, DWORD PTR _en$[ebp]
  0002f	50		 push	 eax
  00030	e8 00 00 00 00	 call	 ?damage_client_server_entity_avionics@@YGXPAUENTITY@@W4GUNSHIP_DAMAGE_LEVELS@@@Z ; damage_client_server_entity_avionics
$LN1@heavy_dama:

; 769  : 	}
; 770  : }

  00035	5f		 pop	 edi
  00036	5e		 pop	 esi
  00037	5b		 pop	 ebx
  00038	8b e5		 mov	 esp, ebp
  0003a	5d		 pop	 ebp
  0003b	c2 04 00	 ret	 4
?heavy_damage_gunship_event@@YGXPAUEVENT@@@Z ENDP	; heavy_damage_gunship_event
_TEXT	ENDS
; Function compile flags: /Odtp /ZI
; File c:\users\nhv90\projects\eech\aphavoc\source\events\ev_debug.c
;	COMDAT ?medium_damage_gunship_event@@YGXPAUEVENT@@@Z
_TEXT	SEGMENT
_en$ = -4						; size = 4
_ev$ = 8						; size = 4
?medium_damage_gunship_event@@YGXPAUEVENT@@@Z PROC	; medium_damage_gunship_event, COMDAT

; 729  : {

  00000	55		 push	 ebp
  00001	8b ec		 mov	 ebp, esp
  00003	83 ec 44	 sub	 esp, 68			; 00000044H
  00006	53		 push	 ebx
  00007	56		 push	 esi
  00008	57		 push	 edi

; 730  : 	entity
; 731  : 		*en;
; 732  : 
; 733  : 	if (in_cockpit)

  00009	83 3d 00 00 00
	00 00		 cmp	 DWORD PTR ?in_cockpit@@3HA, 0 ; in_cockpit
  00010	74 0a		 je	 SHORT $LN2@medium_dam

; 734  : 	{
; 735  : 		en = get_gunship_entity ();

  00012	a1 00 00 00 00	 mov	 eax, DWORD PTR ?gunship_entity@@3PAUENTITY@@A ; gunship_entity
  00017	89 45 fc	 mov	 DWORD PTR _en$[ebp], eax

; 736  : 	}
; 737  : 	else

  0001a	eb 08		 jmp	 SHORT $LN3@medium_dam
$LN2@medium_dam:

; 738  : 	{
; 739  : 		en = get_external_view_entity ();

  0001c	e8 00 00 00 00	 call	 ?get_external_view_entity@@YGPAUENTITY@@XZ ; get_external_view_entity
  00021	89 45 fc	 mov	 DWORD PTR _en$[ebp], eax
$LN3@medium_dam:

; 740  : 	}
; 741  : 
; 742  : 	if (en)

  00024	83 7d fc 00	 cmp	 DWORD PTR _en$[ebp], 0
  00028	74 0b		 je	 SHORT $LN1@medium_dam

; 743  : 	{
; 744  : 		damage_client_server_entity_avionics (en, GUNSHIP_DAMAGE_LEVEL_MEDIUM);

  0002a	6a 01		 push	 1
  0002c	8b 45 fc	 mov	 eax, DWORD PTR _en$[ebp]
  0002f	50		 push	 eax
  00030	e8 00 00 00 00	 call	 ?damage_client_server_entity_avionics@@YGXPAUENTITY@@W4GUNSHIP_DAMAGE_LEVELS@@@Z ; damage_client_server_entity_avionics
$LN1@medium_dam:

; 745  : 	}
; 746  : }

  00035	5f		 pop	 edi
  00036	5e		 pop	 esi
  00037	5b		 pop	 ebx
  00038	8b e5		 mov	 esp, ebp
  0003a	5d		 pop	 ebp
  0003b	c2 04 00	 ret	 4
?medium_damage_gunship_event@@YGXPAUEVENT@@@Z ENDP	; medium_damage_gunship_event
_TEXT	ENDS
; Function compile flags: /Odtp /ZI
; File c:\users\nhv90\projects\eech\aphavoc\source\events\ev_debug.c
;	COMDAT ?light_damage_gunship_event@@YGXPAUEVENT@@@Z
_TEXT	SEGMENT
_en$ = -4						; size = 4
_ev$ = 8						; size = 4
?light_damage_gunship_event@@YGXPAUEVENT@@@Z PROC	; light_damage_gunship_event, COMDAT

; 705  : {

  00000	55		 push	 ebp
  00001	8b ec		 mov	 ebp, esp
  00003	83 ec 44	 sub	 esp, 68			; 00000044H
  00006	53		 push	 ebx
  00007	56		 push	 esi
  00008	57		 push	 edi

; 706  : 	entity
; 707  : 		*en;
; 708  : 
; 709  : 	if (in_cockpit)

  00009	83 3d 00 00 00
	00 00		 cmp	 DWORD PTR ?in_cockpit@@3HA, 0 ; in_cockpit
  00010	74 0a		 je	 SHORT $LN2@light_dama

; 710  : 	{
; 711  : 		en = get_gunship_entity ();

  00012	a1 00 00 00 00	 mov	 eax, DWORD PTR ?gunship_entity@@3PAUENTITY@@A ; gunship_entity
  00017	89 45 fc	 mov	 DWORD PTR _en$[ebp], eax

; 712  : 	}
; 713  : 	else

  0001a	eb 08		 jmp	 SHORT $LN3@light_dama
$LN2@light_dama:

; 714  : 	{
; 715  : 		en = get_external_view_entity ();

  0001c	e8 00 00 00 00	 call	 ?get_external_view_entity@@YGPAUENTITY@@XZ ; get_external_view_entity
  00021	89 45 fc	 mov	 DWORD PTR _en$[ebp], eax
$LN3@light_dama:

; 716  : 	}
; 717  : 
; 718  : 	if (en)

  00024	83 7d fc 00	 cmp	 DWORD PTR _en$[ebp], 0
  00028	74 0b		 je	 SHORT $LN1@light_dama

; 719  : 	{
; 720  : 		damage_client_server_entity_avionics (en, GUNSHIP_DAMAGE_LEVEL_LIGHT);

  0002a	6a 00		 push	 0
  0002c	8b 45 fc	 mov	 eax, DWORD PTR _en$[ebp]
  0002f	50		 push	 eax
  00030	e8 00 00 00 00	 call	 ?damage_client_server_entity_avionics@@YGXPAUENTITY@@W4GUNSHIP_DAMAGE_LEVELS@@@Z ; damage_client_server_entity_avionics
$LN1@light_dama:

; 721  : 	}
; 722  : }

  00035	5f		 pop	 edi
  00036	5e		 pop	 esi
  00037	5b		 pop	 ebx
  00038	8b e5		 mov	 esp, ebp
  0003a	5d		 pop	 ebp
  0003b	c2 04 00	 ret	 4
?light_damage_gunship_event@@YGXPAUEVENT@@@Z ENDP	; light_damage_gunship_event
_TEXT	ENDS
; Function compile flags: /Odtp /ZI
; File c:\users\nhv90\projects\eech\aphavoc\source\events\ev_debug.c
;	COMDAT ?toggle_virtual_cockpit_needles_event@@YGXPAUEVENT@@@Z
_TEXT	SEGMENT
_ev$ = 8						; size = 4
?toggle_virtual_cockpit_needles_event@@YGXPAUEVENT@@@Z PROC ; toggle_virtual_cockpit_needles_event, COMDAT

; 696  : {

  00000	55		 push	 ebp
  00001	8b ec		 mov	 ebp, esp
  00003	83 ec 40	 sub	 esp, 64			; 00000040H
  00006	53		 push	 ebx
  00007	56		 push	 esi
  00008	57		 push	 edi

; 697  : 	draw_virtual_cockpit_needles_on_fixed_cockpits ^= 1;

  00009	a1 00 00 00 00	 mov	 eax, DWORD PTR ?draw_virtual_cockpit_needles_on_fixed_cockpits@@3HA ; draw_virtual_cockpit_needles_on_fixed_cockpits
  0000e	83 f0 01	 xor	 eax, 1
  00011	a3 00 00 00 00	 mov	 DWORD PTR ?draw_virtual_cockpit_needles_on_fixed_cockpits@@3HA, eax ; draw_virtual_cockpit_needles_on_fixed_cockpits

; 698  : }

  00016	5f		 pop	 edi
  00017	5e		 pop	 esi
  00018	5b		 pop	 ebx
  00019	8b e5		 mov	 esp, ebp
  0001b	5d		 pop	 ebp
  0001c	c2 04 00	 ret	 4
?toggle_virtual_cockpit_needles_event@@YGXPAUEVENT@@@Z ENDP ; toggle_virtual_cockpit_needles_event
_TEXT	ENDS
; Function compile flags: /Odtp /ZI
; File c:\users\nhv90\projects\eech\aphavoc\source\events\ev_debug.c
;	COMDAT ?toggle_test_cockpit_instruments_event@@YGXPAUEVENT@@@Z
_TEXT	SEGMENT
_ev$ = 8						; size = 4
?toggle_test_cockpit_instruments_event@@YGXPAUEVENT@@@Z PROC ; toggle_test_cockpit_instruments_event, COMDAT

; 687  : {

  00000	55		 push	 ebp
  00001	8b ec		 mov	 ebp, esp
  00003	83 ec 40	 sub	 esp, 64			; 00000040H
  00006	53		 push	 ebx
  00007	56		 push	 esi
  00008	57		 push	 edi

; 688  : 	test_cockpit_instruments ^= 1;

  00009	a1 00 00 00 00	 mov	 eax, DWORD PTR ?test_cockpit_instruments@@3HA ; test_cockpit_instruments
  0000e	83 f0 01	 xor	 eax, 1
  00011	a3 00 00 00 00	 mov	 DWORD PTR ?test_cockpit_instruments@@3HA, eax ; test_cockpit_instruments

; 689  : }

  00016	5f		 pop	 edi
  00017	5e		 pop	 esi
  00018	5b		 pop	 ebx
  00019	8b e5		 mov	 esp, ebp
  0001b	5d		 pop	 ebp
  0001c	c2 04 00	 ret	 4
?toggle_test_cockpit_instruments_event@@YGXPAUEVENT@@@Z ENDP ; toggle_test_cockpit_instruments_event
_TEXT	ENDS
; Function compile flags: /Odtp /ZI
; File c:\users\nhv90\projects\eech\aphavoc\source\events\ev_debug.c
;	COMDAT ?toggle_mfd_layout_grid_event@@YGXPAUEVENT@@@Z
_TEXT	SEGMENT
_ev$ = 8						; size = 4
?toggle_mfd_layout_grid_event@@YGXPAUEVENT@@@Z PROC	; toggle_mfd_layout_grid_event, COMDAT

; 678  : {

  00000	55		 push	 ebp
  00001	8b ec		 mov	 ebp, esp
  00003	83 ec 40	 sub	 esp, 64			; 00000040H
  00006	53		 push	 ebx
  00007	56		 push	 esi
  00008	57		 push	 edi

; 679  : 	display_mfd_layout_grid ^= 1;

  00009	a1 00 00 00 00	 mov	 eax, DWORD PTR ?display_mfd_layout_grid@@3HA ; display_mfd_layout_grid
  0000e	83 f0 01	 xor	 eax, 1
  00011	a3 00 00 00 00	 mov	 DWORD PTR ?display_mfd_layout_grid@@3HA, eax ; display_mfd_layout_grid

; 680  : }

  00016	5f		 pop	 edi
  00017	5e		 pop	 esi
  00018	5b		 pop	 ebx
  00019	8b e5		 mov	 esp, ebp
  0001b	5d		 pop	 ebp
  0001c	c2 04 00	 ret	 4
?toggle_mfd_layout_grid_event@@YGXPAUEVENT@@@Z ENDP	; toggle_mfd_layout_grid_event
_TEXT	ENDS
; Function compile flags: /Odtp /ZI
; File c:\users\nhv90\projects\eech\aphavoc\source\events\ev_debug.c
;	COMDAT ?toggle_hud_layout_grid_event@@YGXPAUEVENT@@@Z
_TEXT	SEGMENT
_ev$ = 8						; size = 4
?toggle_hud_layout_grid_event@@YGXPAUEVENT@@@Z PROC	; toggle_hud_layout_grid_event, COMDAT

; 669  : {

  00000	55		 push	 ebp
  00001	8b ec		 mov	 ebp, esp
  00003	83 ec 40	 sub	 esp, 64			; 00000040H
  00006	53		 push	 ebx
  00007	56		 push	 esi
  00008	57		 push	 edi

; 670  : 	display_hud_layout_grid ^= 1;

  00009	a1 00 00 00 00	 mov	 eax, DWORD PTR ?display_hud_layout_grid@@3HA ; display_hud_layout_grid
  0000e	83 f0 01	 xor	 eax, 1
  00011	a3 00 00 00 00	 mov	 DWORD PTR ?display_hud_layout_grid@@3HA, eax ; display_hud_layout_grid

; 671  : }

  00016	5f		 pop	 edi
  00017	5e		 pop	 esi
  00018	5b		 pop	 ebx
  00019	8b e5		 mov	 esp, ebp
  0001b	5d		 pop	 ebp
  0001c	c2 04 00	 ret	 4
?toggle_hud_layout_grid_event@@YGXPAUEVENT@@@Z ENDP	; toggle_hud_layout_grid_event
_TEXT	ENDS
; Function compile flags: /Odtp /ZI
; File c:\users\nhv90\projects\eech\aphavoc\source\events\ev_debug.c
;	COMDAT ?cycle_cpg_assistance_event@@YGXPAUEVENT@@@Z
_TEXT	SEGMENT
tv64 = -68						; size = 4
_ev$ = 8						; size = 4
?cycle_cpg_assistance_event@@YGXPAUEVENT@@@Z PROC	; cycle_cpg_assistance_event, COMDAT

; 626  : {

  00000	55		 push	 ebp
  00001	8b ec		 mov	 ebp, esp
  00003	83 ec 44	 sub	 esp, 68			; 00000044H
  00006	53		 push	 ebx
  00007	56		 push	 esi
  00008	57		 push	 edi

; 627  : 	switch (get_global_cpg_assist_type ())

  00009	a1 8c 00 00 00	 mov	 eax, DWORD PTR ?global_options@@3UGLOBAL_OPTIONS_DATA@@A+140
  0000e	89 45 bc	 mov	 DWORD PTR tv64[ebp], eax
  00011	83 7d bc 00	 cmp	 DWORD PTR tv64[ebp], 0
  00015	74 0e		 je	 SHORT $LN4@cycle_cpg_
  00017	83 7d bc 01	 cmp	 DWORD PTR tv64[ebp], 1
  0001b	74 14		 je	 SHORT $LN5@cycle_cpg_
  0001d	83 7d bc 02	 cmp	 DWORD PTR tv64[ebp], 2
  00021	74 1a		 je	 SHORT $LN6@cycle_cpg_
  00023	eb 24		 jmp	 SHORT $LN7@cycle_cpg_
$LN4@cycle_cpg_:

; 628  : 	{
; 629  : 		////////////////////////////////////////
; 630  : 		case CPG_ASSIST_TYPE_NONE:
; 631  : 		////////////////////////////////////////
; 632  : 		{
; 633  : 			set_global_cpg_assist_type (CPG_ASSIST_TYPE_EASY);

  00025	c7 05 8c 00 00
	00 01 00 00 00	 mov	 DWORD PTR ?global_options@@3UGLOBAL_OPTIONS_DATA@@A+140, 1

; 634  : 
; 635  : 			break;

  0002f	eb 2b		 jmp	 SHORT $LN1@cycle_cpg_
$LN5@cycle_cpg_:

; 636  : 		}
; 637  : 		////////////////////////////////////////
; 638  : 		case CPG_ASSIST_TYPE_EASY:
; 639  : 		////////////////////////////////////////
; 640  : 		{
; 641  : 			set_global_cpg_assist_type (CPG_ASSIST_TYPE_REAL);

  00031	c7 05 8c 00 00
	00 02 00 00 00	 mov	 DWORD PTR ?global_options@@3UGLOBAL_OPTIONS_DATA@@A+140, 2

; 642  : 
; 643  : 			break;

  0003b	eb 1f		 jmp	 SHORT $LN1@cycle_cpg_
$LN6@cycle_cpg_:

; 644  : 		}
; 645  : 		////////////////////////////////////////
; 646  : 		case CPG_ASSIST_TYPE_REAL:
; 647  : 		////////////////////////////////////////
; 648  : 		{
; 649  : 			set_global_cpg_assist_type (CPG_ASSIST_TYPE_NONE);

  0003d	c7 05 8c 00 00
	00 00 00 00 00	 mov	 DWORD PTR ?global_options@@3UGLOBAL_OPTIONS_DATA@@A+140, 0

; 650  : 
; 651  : 			break;

  00047	eb 13		 jmp	 SHORT $LN1@cycle_cpg_
$LN7@cycle_cpg_:

; 652  : 		}
; 653  : 		////////////////////////////////////////
; 654  : 		default:
; 655  : 		////////////////////////////////////////
; 656  : 		{
; 657  : 			debug_fatal ("Invalid cpg assist type = %d", get_global_cpg_assist_type ());

  00049	a1 8c 00 00 00	 mov	 eax, DWORD PTR ?global_options@@3UGLOBAL_OPTIONS_DATA@@A+140
  0004e	50		 push	 eax
  0004f	68 00 00 00 00	 push	 OFFSET ??_C@_0BN@LJPACPLB@Invalid?5cpg?5assist?5type?5?$DN?5?$CFd@
  00054	e8 00 00 00 00	 call	 ?debug_fatal@@YAXPBDZZ	; debug_fatal
  00059	83 c4 08	 add	 esp, 8
$LN1@cycle_cpg_:

; 658  : 
; 659  : 			break;
; 660  : 		}
; 661  : 	}
; 662  : }

  0005c	5f		 pop	 edi
  0005d	5e		 pop	 esi
  0005e	5b		 pop	 ebx
  0005f	8b e5		 mov	 esp, ebp
  00061	5d		 pop	 ebp
  00062	c2 04 00	 ret	 4
?cycle_cpg_assistance_event@@YGXPAUEVENT@@@Z ENDP	; cycle_cpg_assistance_event
_TEXT	ENDS
; Function compile flags: /Odtp /ZI
; File c:\users\nhv90\projects\eech\aphavoc\source\events\ev_debug.c
;	COMDAT ?unarm_weapon_config_event@@YGXPAUEVENT@@@Z
_TEXT	SEGMENT
tv81 = -76						; size = 4
tv73 = -72						; size = 4
_en$ = -4						; size = 4
_ev$ = 8						; size = 4
?unarm_weapon_config_event@@YGXPAUEVENT@@@Z PROC	; unarm_weapon_config_event, COMDAT

; 596  : {

  00000	55		 push	 ebp
  00001	8b ec		 mov	 ebp, esp
  00003	83 ec 4c	 sub	 esp, 76			; 0000004cH
  00006	53		 push	 ebx
  00007	56		 push	 esi
  00008	57		 push	 edi

; 597  : 	entity
; 598  : 		*en;
; 599  : 
; 600  : 	if (in_cockpit)

  00009	83 3d 00 00 00
	00 00		 cmp	 DWORD PTR ?in_cockpit@@3HA, 0 ; in_cockpit
  00010	74 0a		 je	 SHORT $LN2@unarm_weap

; 601  : 	{
; 602  : 		en = get_gunship_entity ();

  00012	a1 00 00 00 00	 mov	 eax, DWORD PTR ?gunship_entity@@3PAUENTITY@@A ; gunship_entity
  00017	89 45 fc	 mov	 DWORD PTR _en$[ebp], eax

; 603  : 	}
; 604  : 	else

  0001a	eb 08		 jmp	 SHORT $LN3@unarm_weap
$LN2@unarm_weap:

; 605  : 	{
; 606  : 		en = get_external_view_entity ();

  0001c	e8 00 00 00 00	 call	 ?get_external_view_entity@@YGPAUENTITY@@XZ ; get_external_view_entity
  00021	89 45 fc	 mov	 DWORD PTR _en$[ebp], eax
$LN3@unarm_weap:

; 607  : 	}
; 608  : 
; 609  : 	if (en)

  00024	83 7d fc 00	 cmp	 DWORD PTR _en$[ebp], 0
  00028	0f 84 8b 00 00
	00		 je	 $LN1@unarm_weap

; 610  : 	{
; 611  : 		set_client_server_entity_int_value (en, INT_TYPE_WEAPON_CONFIG_TYPE, WEAPON_CONFIG_TYPE_UNARMED);

  0002e	83 7d fc 00	 cmp	 DWORD PTR _en$[ebp], 0
  00032	74 0a		 je	 SHORT $LN6@unarm_weap
  00034	8b 45 fc	 mov	 eax, DWORD PTR _en$[ebp]
  00037	8b 08		 mov	 ecx, DWORD PTR [eax]
  00039	89 4d b8	 mov	 DWORD PTR tv73[ebp], ecx
  0003c	eb 21		 jmp	 SHORT $LN7@unarm_weap
$LN6@unarm_weap:
  0003e	8b 15 00 00 00
	00		 mov	 edx, DWORD PTR ?__LINE__Var@?0??unarm_weapon_config_event@@YGXPAUEVENT@@@Z@4JA
  00044	83 c2 0f	 add	 edx, 15			; 0000000fH
  00047	52		 push	 edx
  00048	68 00 00 00 00	 push	 OFFSET ??_C@_0DO@EFGBNKOF@c?3?2users?2nhv90?2projects?2eech?2ap@
  0004d	a1 00 00 00 00	 mov	 eax, DWORD PTR ?null_entity_pointer_message@@3PBDB ; null_entity_pointer_message
  00052	50		 push	 eax
  00053	e8 00 00 00 00	 call	 ?process_assert@@YGXPBD0H@Z ; process_assert
  00058	c7 45 b8 00 00
	00 00		 mov	 DWORD PTR tv73[ebp], 0
$LN7@unarm_weap:
  0005f	b9 01 00 00 00	 mov	 ecx, 1
  00064	85 c9		 test	 ecx, ecx
  00066	74 09		 je	 SHORT $LN8@unarm_weap
  00068	c7 45 b4 05 01
	00 00		 mov	 DWORD PTR tv81[ebp], 261 ; 00000105H
  0006f	eb 21		 jmp	 SHORT $LN9@unarm_weap
$LN8@unarm_weap:
  00071	8b 15 00 00 00
	00		 mov	 edx, DWORD PTR ?__LINE__Var@?0??unarm_weapon_config_event@@YGXPAUEVENT@@@Z@4JA
  00077	83 c2 0f	 add	 edx, 15			; 0000000fH
  0007a	52		 push	 edx
  0007b	68 00 00 00 00	 push	 OFFSET ??_C@_0DO@EFGBNKOF@c?3?2users?2nhv90?2projects?2eech?2ap@
  00080	a1 00 00 00 00	 mov	 eax, DWORD PTR ?overload_invalid_int_type_message@@3PBDB ; overload_invalid_int_type_message
  00085	50		 push	 eax
  00086	e8 00 00 00 00	 call	 ?process_assert@@YGXPBD0H@Z ; process_assert
  0008b	c7 45 b4 00 00
	00 00		 mov	 DWORD PTR tv81[ebp], 0
$LN9@unarm_weap:
  00092	6a 00		 push	 0
  00094	68 05 01 00 00	 push	 261			; 00000105H
  00099	8b 4d fc	 mov	 ecx, DWORD PTR _en$[ebp]
  0009c	51		 push	 ecx
  0009d	69 55 b8 b8 08
	00 00		 imul	 edx, DWORD PTR tv73[ebp], 2232
  000a4	8b 45 b4	 mov	 eax, DWORD PTR tv81[ebp]
  000a7	8d 8c c2 00 00
	00 00		 lea	 ecx, DWORD PTR ?fn_set_client_server_entity_int_value@@3PAY1BBH@1P6GXPAUENTITY@@W4INT_TYPES@@H@ZA[edx+eax*8]
  000ae	8b 15 00 00 00
	00		 mov	 edx, DWORD PTR ?system_comms_model@@3W4COMMS_MODEL_TYPES@@A ; system_comms_model
  000b4	8b 04 91	 mov	 eax, DWORD PTR [ecx+edx*4]
  000b7	ff d0		 call	 eax
$LN1@unarm_weap:

; 612  : 	}
; 613  : }

  000b9	5f		 pop	 edi
  000ba	5e		 pop	 esi
  000bb	5b		 pop	 ebx
  000bc	8b e5		 mov	 esp, ebp
  000be	5d		 pop	 ebp
  000bf	c2 04 00	 ret	 4
?unarm_weapon_config_event@@YGXPAUEVENT@@@Z ENDP	; unarm_weapon_config_event
_TEXT	ENDS
; Function compile flags: /Odtp /ZI
; File c:\users\nhv90\projects\eech\aphavoc\source\events\ev_debug.c
;	COMDAT ?reload_weapon_config_event@@YGXPAUEVENT@@@Z
_TEXT	SEGMENT
tv154 = -80						; size = 4
tv134 = -80						; size = 4
tv81 = -80						; size = 4
tv146 = -76						; size = 4
tv94 = -76						; size = 4
tv73 = -76						; size = 4
_config_type$ = -8					; size = 4
_en$ = -4						; size = 4
_ev$ = 8						; size = 4
?reload_weapon_config_event@@YGXPAUEVENT@@@Z PROC	; reload_weapon_config_event, COMDAT

; 562  : {

  00000	55		 push	 ebp
  00001	8b ec		 mov	 ebp, esp
  00003	83 ec 50	 sub	 esp, 80			; 00000050H
  00006	53		 push	 ebx
  00007	56		 push	 esi
  00008	57		 push	 edi

; 563  : 	entity
; 564  : 		*en;
; 565  : 
; 566  : 	weapon_config_types
; 567  : 		config_type;
; 568  : 
; 569  : 	if (in_cockpit)

  00009	83 3d 00 00 00
	00 00		 cmp	 DWORD PTR ?in_cockpit@@3HA, 0 ; in_cockpit
  00010	74 0a		 je	 SHORT $LN2@reload_wea

; 570  : 	{
; 571  : 		en = get_gunship_entity ();

  00012	a1 00 00 00 00	 mov	 eax, DWORD PTR ?gunship_entity@@3PAUENTITY@@A ; gunship_entity
  00017	89 45 fc	 mov	 DWORD PTR _en$[ebp], eax

; 572  : 	}
; 573  : 	else

  0001a	eb 08		 jmp	 SHORT $LN3@reload_wea
$LN2@reload_wea:

; 574  : 	{
; 575  : 		en = get_external_view_entity ();

  0001c	e8 00 00 00 00	 call	 ?get_external_view_entity@@YGPAUENTITY@@XZ ; get_external_view_entity
  00021	89 45 fc	 mov	 DWORD PTR _en$[ebp], eax
$LN3@reload_wea:

; 576  : 	}
; 577  : 
; 578  : 	if (en)

  00024	83 7d fc 00	 cmp	 DWORD PTR _en$[ebp], 0
  00028	0f 84 99 01 00
	00		 je	 $LN1@reload_wea

; 579  : 	{
; 580  : 		config_type = (weapon_config_types) get_local_entity_int_value (en, INT_TYPE_WEAPON_CONFIG_TYPE);

  0002e	83 7d fc 00	 cmp	 DWORD PTR _en$[ebp], 0
  00032	74 0a		 je	 SHORT $LN7@reload_wea
  00034	8b 45 fc	 mov	 eax, DWORD PTR _en$[ebp]
  00037	8b 08		 mov	 ecx, DWORD PTR [eax]
  00039	89 4d b4	 mov	 DWORD PTR tv73[ebp], ecx
  0003c	eb 21		 jmp	 SHORT $LN8@reload_wea
$LN7@reload_wea:
  0003e	8b 15 00 00 00
	00		 mov	 edx, DWORD PTR ?__LINE__Var@?0??reload_weapon_config_event@@YGXPAUEVENT@@@Z@4JA
  00044	83 c2 12	 add	 edx, 18			; 00000012H
  00047	52		 push	 edx
  00048	68 00 00 00 00	 push	 OFFSET ??_C@_0DO@EFGBNKOF@c?3?2users?2nhv90?2projects?2eech?2ap@
  0004d	a1 00 00 00 00	 mov	 eax, DWORD PTR ?null_entity_pointer_message@@3PBDB ; null_entity_pointer_message
  00052	50		 push	 eax
  00053	e8 00 00 00 00	 call	 ?process_assert@@YGXPBD0H@Z ; process_assert
  00058	c7 45 b4 00 00
	00 00		 mov	 DWORD PTR tv73[ebp], 0
$LN8@reload_wea:
  0005f	b9 01 00 00 00	 mov	 ecx, 1
  00064	85 c9		 test	 ecx, ecx
  00066	74 09		 je	 SHORT $LN9@reload_wea
  00068	c7 45 b0 05 01
	00 00		 mov	 DWORD PTR tv81[ebp], 261 ; 00000105H
  0006f	eb 21		 jmp	 SHORT $LN10@reload_wea
$LN9@reload_wea:
  00071	8b 15 00 00 00
	00		 mov	 edx, DWORD PTR ?__LINE__Var@?0??reload_weapon_config_event@@YGXPAUEVENT@@@Z@4JA
  00077	83 c2 12	 add	 edx, 18			; 00000012H
  0007a	52		 push	 edx
  0007b	68 00 00 00 00	 push	 OFFSET ??_C@_0DO@EFGBNKOF@c?3?2users?2nhv90?2projects?2eech?2ap@
  00080	a1 00 00 00 00	 mov	 eax, DWORD PTR ?overload_invalid_int_type_message@@3PBDB ; overload_invalid_int_type_message
  00085	50		 push	 eax
  00086	e8 00 00 00 00	 call	 ?process_assert@@YGXPBD0H@Z ; process_assert
  0008b	c7 45 b0 00 00
	00 00		 mov	 DWORD PTR tv81[ebp], 0
$LN10@reload_wea:
  00092	68 05 01 00 00	 push	 261			; 00000105H
  00097	8b 4d fc	 mov	 ecx, DWORD PTR _en$[ebp]
  0009a	51		 push	 ecx
  0009b	69 55 b4 5c 04
	00 00		 imul	 edx, DWORD PTR tv73[ebp], 1116
  000a2	8b 45 b0	 mov	 eax, DWORD PTR tv81[ebp]
  000a5	8b 8c 82 00 00
	00 00		 mov	 ecx, DWORD PTR ?fn_get_local_entity_int_value@@3PAY0BBH@P6GHPAUENTITY@@W4INT_TYPES@@@ZA[edx+eax*4]
  000ac	ff d1		 call	 ecx
  000ae	89 45 f8	 mov	 DWORD PTR _config_type$[ebp], eax

; 581  : 
; 582  : 		if (config_type == WEAPON_CONFIG_TYPE_UNARMED)

  000b1	83 7d f8 00	 cmp	 DWORD PTR _config_type$[ebp], 0
  000b5	0f 85 80 00 00
	00		 jne	 $LN5@reload_wea

; 583  : 		{
; 584  : 			config_type = (weapon_config_types) get_local_entity_int_value (en, INT_TYPE_DEFAULT_WEAPON_CONFIG_TYPE);

  000bb	83 7d fc 00	 cmp	 DWORD PTR _en$[ebp], 0
  000bf	74 0a		 je	 SHORT $LN11@reload_wea
  000c1	8b 45 fc	 mov	 eax, DWORD PTR _en$[ebp]
  000c4	8b 08		 mov	 ecx, DWORD PTR [eax]
  000c6	89 4d b4	 mov	 DWORD PTR tv94[ebp], ecx
  000c9	eb 21		 jmp	 SHORT $LN12@reload_wea
$LN11@reload_wea:
  000cb	8b 15 00 00 00
	00		 mov	 edx, DWORD PTR ?__LINE__Var@?0??reload_weapon_config_event@@YGXPAUEVENT@@@Z@4JA
  000d1	83 c2 16	 add	 edx, 22			; 00000016H
  000d4	52		 push	 edx
  000d5	68 00 00 00 00	 push	 OFFSET ??_C@_0DO@EFGBNKOF@c?3?2users?2nhv90?2projects?2eech?2ap@
  000da	a1 00 00 00 00	 mov	 eax, DWORD PTR ?null_entity_pointer_message@@3PBDB ; null_entity_pointer_message
  000df	50		 push	 eax
  000e0	e8 00 00 00 00	 call	 ?process_assert@@YGXPBD0H@Z ; process_assert
  000e5	c7 45 b4 00 00
	00 00		 mov	 DWORD PTR tv94[ebp], 0
$LN12@reload_wea:
  000ec	b9 01 00 00 00	 mov	 ecx, 1
  000f1	85 c9		 test	 ecx, ecx
  000f3	74 09		 je	 SHORT $LN13@reload_wea
  000f5	c7 45 b0 2c 00
	00 00		 mov	 DWORD PTR tv134[ebp], 44 ; 0000002cH
  000fc	eb 21		 jmp	 SHORT $LN14@reload_wea
$LN13@reload_wea:
  000fe	8b 15 00 00 00
	00		 mov	 edx, DWORD PTR ?__LINE__Var@?0??reload_weapon_config_event@@YGXPAUEVENT@@@Z@4JA
  00104	83 c2 16	 add	 edx, 22			; 00000016H
  00107	52		 push	 edx
  00108	68 00 00 00 00	 push	 OFFSET ??_C@_0DO@EFGBNKOF@c?3?2users?2nhv90?2projects?2eech?2ap@
  0010d	a1 00 00 00 00	 mov	 eax, DWORD PTR ?overload_invalid_int_type_message@@3PBDB ; overload_invalid_int_type_message
  00112	50		 push	 eax
  00113	e8 00 00 00 00	 call	 ?process_assert@@YGXPBD0H@Z ; process_assert
  00118	c7 45 b0 00 00
	00 00		 mov	 DWORD PTR tv134[ebp], 0
$LN14@reload_wea:
  0011f	6a 2c		 push	 44			; 0000002cH
  00121	8b 4d fc	 mov	 ecx, DWORD PTR _en$[ebp]
  00124	51		 push	 ecx
  00125	69 55 b4 5c 04
	00 00		 imul	 edx, DWORD PTR tv94[ebp], 1116
  0012c	8b 45 b0	 mov	 eax, DWORD PTR tv134[ebp]
  0012f	8b 8c 82 00 00
	00 00		 mov	 ecx, DWORD PTR ?fn_get_local_entity_int_value@@3PAY0BBH@P6GHPAUENTITY@@W4INT_TYPES@@@ZA[edx+eax*4]
  00136	ff d1		 call	 ecx
  00138	89 45 f8	 mov	 DWORD PTR _config_type$[ebp], eax
$LN5@reload_wea:

; 585  : 		}
; 586  : 
; 587  : 		set_client_server_entity_int_value (en, INT_TYPE_WEAPON_CONFIG_TYPE, config_type);

  0013b	83 7d fc 00	 cmp	 DWORD PTR _en$[ebp], 0
  0013f	74 0a		 je	 SHORT $LN15@reload_wea
  00141	8b 45 fc	 mov	 eax, DWORD PTR _en$[ebp]
  00144	8b 08		 mov	 ecx, DWORD PTR [eax]
  00146	89 4d b4	 mov	 DWORD PTR tv146[ebp], ecx
  00149	eb 21		 jmp	 SHORT $LN16@reload_wea
$LN15@reload_wea:
  0014b	8b 15 00 00 00
	00		 mov	 edx, DWORD PTR ?__LINE__Var@?0??reload_weapon_config_event@@YGXPAUEVENT@@@Z@4JA
  00151	83 c2 19	 add	 edx, 25			; 00000019H
  00154	52		 push	 edx
  00155	68 00 00 00 00	 push	 OFFSET ??_C@_0DO@EFGBNKOF@c?3?2users?2nhv90?2projects?2eech?2ap@
  0015a	a1 00 00 00 00	 mov	 eax, DWORD PTR ?null_entity_pointer_message@@3PBDB ; null_entity_pointer_message
  0015f	50		 push	 eax
  00160	e8 00 00 00 00	 call	 ?process_assert@@YGXPBD0H@Z ; process_assert
  00165	c7 45 b4 00 00
	00 00		 mov	 DWORD PTR tv146[ebp], 0
$LN16@reload_wea:
  0016c	b9 01 00 00 00	 mov	 ecx, 1
  00171	85 c9		 test	 ecx, ecx
  00173	74 09		 je	 SHORT $LN17@reload_wea
  00175	c7 45 b0 05 01
	00 00		 mov	 DWORD PTR tv154[ebp], 261 ; 00000105H
  0017c	eb 21		 jmp	 SHORT $LN18@reload_wea
$LN17@reload_wea:
  0017e	8b 15 00 00 00
	00		 mov	 edx, DWORD PTR ?__LINE__Var@?0??reload_weapon_config_event@@YGXPAUEVENT@@@Z@4JA
  00184	83 c2 19	 add	 edx, 25			; 00000019H
  00187	52		 push	 edx
  00188	68 00 00 00 00	 push	 OFFSET ??_C@_0DO@EFGBNKOF@c?3?2users?2nhv90?2projects?2eech?2ap@
  0018d	a1 00 00 00 00	 mov	 eax, DWORD PTR ?overload_invalid_int_type_message@@3PBDB ; overload_invalid_int_type_message
  00192	50		 push	 eax
  00193	e8 00 00 00 00	 call	 ?process_assert@@YGXPBD0H@Z ; process_assert
  00198	c7 45 b0 00 00
	00 00		 mov	 DWORD PTR tv154[ebp], 0
$LN18@reload_wea:
  0019f	8b 4d f8	 mov	 ecx, DWORD PTR _config_type$[ebp]
  001a2	51		 push	 ecx
  001a3	68 05 01 00 00	 push	 261			; 00000105H
  001a8	8b 55 fc	 mov	 edx, DWORD PTR _en$[ebp]
  001ab	52		 push	 edx
  001ac	69 45 b4 b8 08
	00 00		 imul	 eax, DWORD PTR tv146[ebp], 2232
  001b3	8b 4d b0	 mov	 ecx, DWORD PTR tv154[ebp]
  001b6	8d 94 c8 00 00
	00 00		 lea	 edx, DWORD PTR ?fn_set_client_server_entity_int_value@@3PAY1BBH@1P6GXPAUENTITY@@W4INT_TYPES@@H@ZA[eax+ecx*8]
  001bd	a1 00 00 00 00	 mov	 eax, DWORD PTR ?system_comms_model@@3W4COMMS_MODEL_TYPES@@A ; system_comms_model
  001c2	8b 0c 82	 mov	 ecx, DWORD PTR [edx+eax*4]
  001c5	ff d1		 call	 ecx
$LN1@reload_wea:

; 588  : 	}
; 589  : }

  001c7	5f		 pop	 edi
  001c8	5e		 pop	 esi
  001c9	5b		 pop	 ebx
  001ca	8b e5		 mov	 esp, ebp
  001cc	5d		 pop	 ebp
  001cd	c2 04 00	 ret	 4
?reload_weapon_config_event@@YGXPAUEVENT@@@Z ENDP	; reload_weapon_config_event
_TEXT	ENDS
; Function compile flags: /Odtp /ZI
; File c:\users\nhv90\projects\eech\aphavoc\source\events\ev_debug.c
;	COMDAT ?select_previous_weapon_config_event@@YGXPAUEVENT@@@Z
_TEXT	SEGMENT
tv194 = -80						; size = 4
tv174 = -80						; size = 4
tv153 = -80						; size = 4
tv134 = -80						; size = 4
tv81 = -80						; size = 4
tv186 = -76						; size = 4
tv166 = -76						; size = 4
tv146 = -76						; size = 4
tv94 = -76						; size = 4
tv73 = -76						; size = 4
_config_type$ = -8					; size = 4
_en$ = -4						; size = 4
_ev$ = 8						; size = 4
?select_previous_weapon_config_event@@YGXPAUEVENT@@@Z PROC ; select_previous_weapon_config_event, COMDAT

; 519  : {

  00000	55		 push	 ebp
  00001	8b ec		 mov	 ebp, esp
  00003	83 ec 50	 sub	 esp, 80			; 00000050H
  00006	53		 push	 ebx
  00007	56		 push	 esi
  00008	57		 push	 edi

; 520  : 	entity
; 521  : 		*en;
; 522  : 
; 523  : 	weapon_config_types
; 524  : 		config_type;
; 525  : 
; 526  : 	if (in_cockpit)

  00009	83 3d 00 00 00
	00 00		 cmp	 DWORD PTR ?in_cockpit@@3HA, 0 ; in_cockpit
  00010	74 0a		 je	 SHORT $LN2@select_pre

; 527  : 	{
; 528  : 		en = get_gunship_entity ();

  00012	a1 00 00 00 00	 mov	 eax, DWORD PTR ?gunship_entity@@3PAUENTITY@@A ; gunship_entity
  00017	89 45 fc	 mov	 DWORD PTR _en$[ebp], eax

; 529  : 	}
; 530  : 	else

  0001a	eb 08		 jmp	 SHORT $LN3@select_pre
$LN2@select_pre:

; 531  : 	{
; 532  : 		en = get_external_view_entity ();

  0001c	e8 00 00 00 00	 call	 ?get_external_view_entity@@YGPAUENTITY@@XZ ; get_external_view_entity
  00021	89 45 fc	 mov	 DWORD PTR _en$[ebp], eax
$LN3@select_pre:

; 533  : 	}
; 534  : 
; 535  : 	if (en)

  00024	83 7d fc 00	 cmp	 DWORD PTR _en$[ebp], 0
  00028	0f 84 ae 02 00
	00		 je	 $LN1@select_pre

; 536  : 	{
; 537  : 		config_type = (weapon_config_types) get_local_entity_int_value (en, INT_TYPE_WEAPON_CONFIG_TYPE);

  0002e	83 7d fc 00	 cmp	 DWORD PTR _en$[ebp], 0
  00032	74 0a		 je	 SHORT $LN9@select_pre
  00034	8b 45 fc	 mov	 eax, DWORD PTR _en$[ebp]
  00037	8b 08		 mov	 ecx, DWORD PTR [eax]
  00039	89 4d b4	 mov	 DWORD PTR tv73[ebp], ecx
  0003c	eb 21		 jmp	 SHORT $LN10@select_pre
$LN9@select_pre:
  0003e	8b 15 00 00 00
	00		 mov	 edx, DWORD PTR ?__LINE__Var@?0??select_previous_weapon_config_event@@YGXPAUEVENT@@@Z@4JA
  00044	83 c2 12	 add	 edx, 18			; 00000012H
  00047	52		 push	 edx
  00048	68 00 00 00 00	 push	 OFFSET ??_C@_0DO@EFGBNKOF@c?3?2users?2nhv90?2projects?2eech?2ap@
  0004d	a1 00 00 00 00	 mov	 eax, DWORD PTR ?null_entity_pointer_message@@3PBDB ; null_entity_pointer_message
  00052	50		 push	 eax
  00053	e8 00 00 00 00	 call	 ?process_assert@@YGXPBD0H@Z ; process_assert
  00058	c7 45 b4 00 00
	00 00		 mov	 DWORD PTR tv73[ebp], 0
$LN10@select_pre:
  0005f	b9 01 00 00 00	 mov	 ecx, 1
  00064	85 c9		 test	 ecx, ecx
  00066	74 09		 je	 SHORT $LN11@select_pre
  00068	c7 45 b0 05 01
	00 00		 mov	 DWORD PTR tv81[ebp], 261 ; 00000105H
  0006f	eb 21		 jmp	 SHORT $LN12@select_pre
$LN11@select_pre:
  00071	8b 15 00 00 00
	00		 mov	 edx, DWORD PTR ?__LINE__Var@?0??select_previous_weapon_config_event@@YGXPAUEVENT@@@Z@4JA
  00077	83 c2 12	 add	 edx, 18			; 00000012H
  0007a	52		 push	 edx
  0007b	68 00 00 00 00	 push	 OFFSET ??_C@_0DO@EFGBNKOF@c?3?2users?2nhv90?2projects?2eech?2ap@
  00080	a1 00 00 00 00	 mov	 eax, DWORD PTR ?overload_invalid_int_type_message@@3PBDB ; overload_invalid_int_type_message
  00085	50		 push	 eax
  00086	e8 00 00 00 00	 call	 ?process_assert@@YGXPBD0H@Z ; process_assert
  0008b	c7 45 b0 00 00
	00 00		 mov	 DWORD PTR tv81[ebp], 0
$LN12@select_pre:
  00092	68 05 01 00 00	 push	 261			; 00000105H
  00097	8b 4d fc	 mov	 ecx, DWORD PTR _en$[ebp]
  0009a	51		 push	 ecx
  0009b	69 55 b4 5c 04
	00 00		 imul	 edx, DWORD PTR tv73[ebp], 1116
  000a2	8b 45 b0	 mov	 eax, DWORD PTR tv81[ebp]
  000a5	8b 8c 82 00 00
	00 00		 mov	 ecx, DWORD PTR ?fn_get_local_entity_int_value@@3PAY0BBH@P6GHPAUENTITY@@W4INT_TYPES@@@ZA[edx+eax*4]
  000ac	ff d1		 call	 ecx
  000ae	89 45 f8	 mov	 DWORD PTR _config_type$[ebp], eax

; 538  : 
; 539  : 		if (config_type == WEAPON_CONFIG_TYPE_UNARMED)

  000b1	83 7d f8 00	 cmp	 DWORD PTR _config_type$[ebp], 0
  000b5	0f 85 88 00 00
	00		 jne	 $LN5@select_pre

; 540  : 		{
; 541  : 			config_type = (weapon_config_types) get_local_entity_int_value (en, INT_TYPE_MIN_WEAPON_CONFIG_TYPE);

  000bb	83 7d fc 00	 cmp	 DWORD PTR _en$[ebp], 0
  000bf	74 0a		 je	 SHORT $LN13@select_pre
  000c1	8b 45 fc	 mov	 eax, DWORD PTR _en$[ebp]
  000c4	8b 08		 mov	 ecx, DWORD PTR [eax]
  000c6	89 4d b4	 mov	 DWORD PTR tv94[ebp], ecx
  000c9	eb 21		 jmp	 SHORT $LN14@select_pre
$LN13@select_pre:
  000cb	8b 15 00 00 00
	00		 mov	 edx, DWORD PTR ?__LINE__Var@?0??select_previous_weapon_config_event@@YGXPAUEVENT@@@Z@4JA
  000d1	83 c2 16	 add	 edx, 22			; 00000016H
  000d4	52		 push	 edx
  000d5	68 00 00 00 00	 push	 OFFSET ??_C@_0DO@EFGBNKOF@c?3?2users?2nhv90?2projects?2eech?2ap@
  000da	a1 00 00 00 00	 mov	 eax, DWORD PTR ?null_entity_pointer_message@@3PBDB ; null_entity_pointer_message
  000df	50		 push	 eax
  000e0	e8 00 00 00 00	 call	 ?process_assert@@YGXPBD0H@Z ; process_assert
  000e5	c7 45 b4 00 00
	00 00		 mov	 DWORD PTR tv94[ebp], 0
$LN14@select_pre:
  000ec	b9 01 00 00 00	 mov	 ecx, 1
  000f1	85 c9		 test	 ecx, ecx
  000f3	74 09		 je	 SHORT $LN15@select_pre
  000f5	c7 45 b0 8c 00
	00 00		 mov	 DWORD PTR tv134[ebp], 140 ; 0000008cH
  000fc	eb 21		 jmp	 SHORT $LN16@select_pre
$LN15@select_pre:
  000fe	8b 15 00 00 00
	00		 mov	 edx, DWORD PTR ?__LINE__Var@?0??select_previous_weapon_config_event@@YGXPAUEVENT@@@Z@4JA
  00104	83 c2 16	 add	 edx, 22			; 00000016H
  00107	52		 push	 edx
  00108	68 00 00 00 00	 push	 OFFSET ??_C@_0DO@EFGBNKOF@c?3?2users?2nhv90?2projects?2eech?2ap@
  0010d	a1 00 00 00 00	 mov	 eax, DWORD PTR ?overload_invalid_int_type_message@@3PBDB ; overload_invalid_int_type_message
  00112	50		 push	 eax
  00113	e8 00 00 00 00	 call	 ?process_assert@@YGXPBD0H@Z ; process_assert
  00118	c7 45 b0 00 00
	00 00		 mov	 DWORD PTR tv134[ebp], 0
$LN16@select_pre:
  0011f	68 8c 00 00 00	 push	 140			; 0000008cH
  00124	8b 4d fc	 mov	 ecx, DWORD PTR _en$[ebp]
  00127	51		 push	 ecx
  00128	69 55 b4 5c 04
	00 00		 imul	 edx, DWORD PTR tv94[ebp], 1116
  0012f	8b 45 b0	 mov	 eax, DWORD PTR tv134[ebp]
  00132	8b 8c 82 00 00
	00 00		 mov	 ecx, DWORD PTR ?fn_get_local_entity_int_value@@3PAY0BBH@P6GHPAUENTITY@@W4INT_TYPES@@@ZA[edx+eax*4]
  00139	ff d1		 call	 ecx
  0013b	89 45 f8	 mov	 DWORD PTR _config_type$[ebp], eax

; 542  : 		}
; 543  : 		else

  0013e	e9 0d 01 00 00	 jmp	 $LN6@select_pre
$LN5@select_pre:

; 544  : 		{
; 545  : 			config_type = (weapon_config_types) ((int) config_type - 1);

  00143	8b 45 f8	 mov	 eax, DWORD PTR _config_type$[ebp]
  00146	83 e8 01	 sub	 eax, 1
  00149	89 45 f8	 mov	 DWORD PTR _config_type$[ebp], eax

; 546  : 
; 547  : 			if (config_type < get_local_entity_int_value (en, INT_TYPE_MIN_WEAPON_CONFIG_TYPE))

  0014c	83 7d fc 00	 cmp	 DWORD PTR _en$[ebp], 0
  00150	74 0a		 je	 SHORT $LN17@select_pre
  00152	8b 45 fc	 mov	 eax, DWORD PTR _en$[ebp]
  00155	8b 08		 mov	 ecx, DWORD PTR [eax]
  00157	89 4d b4	 mov	 DWORD PTR tv146[ebp], ecx
  0015a	eb 1d		 jmp	 SHORT $LN18@select_pre
$LN17@select_pre:
  0015c	68 23 02 00 00	 push	 547			; 00000223H
  00161	68 00 00 00 00	 push	 OFFSET ??_C@_0DO@EFGBNKOF@c?3?2users?2nhv90?2projects?2eech?2ap@
  00166	8b 15 00 00 00
	00		 mov	 edx, DWORD PTR ?null_entity_pointer_message@@3PBDB ; null_entity_pointer_message
  0016c	52		 push	 edx
  0016d	e8 00 00 00 00	 call	 ?process_assert@@YGXPBD0H@Z ; process_assert
  00172	c7 45 b4 00 00
	00 00		 mov	 DWORD PTR tv146[ebp], 0
$LN18@select_pre:
  00179	b8 01 00 00 00	 mov	 eax, 1
  0017e	85 c0		 test	 eax, eax
  00180	74 09		 je	 SHORT $LN19@select_pre
  00182	c7 45 b0 8c 00
	00 00		 mov	 DWORD PTR tv153[ebp], 140 ; 0000008cH
  00189	eb 1d		 jmp	 SHORT $LN20@select_pre
$LN19@select_pre:
  0018b	68 23 02 00 00	 push	 547			; 00000223H
  00190	68 00 00 00 00	 push	 OFFSET ??_C@_0DO@EFGBNKOF@c?3?2users?2nhv90?2projects?2eech?2ap@
  00195	8b 0d 00 00 00
	00		 mov	 ecx, DWORD PTR ?overload_invalid_int_type_message@@3PBDB ; overload_invalid_int_type_message
  0019b	51		 push	 ecx
  0019c	e8 00 00 00 00	 call	 ?process_assert@@YGXPBD0H@Z ; process_assert
  001a1	c7 45 b0 00 00
	00 00		 mov	 DWORD PTR tv153[ebp], 0
$LN20@select_pre:
  001a8	68 8c 00 00 00	 push	 140			; 0000008cH
  001ad	8b 55 fc	 mov	 edx, DWORD PTR _en$[ebp]
  001b0	52		 push	 edx
  001b1	69 45 b4 5c 04
	00 00		 imul	 eax, DWORD PTR tv146[ebp], 1116
  001b8	8b 4d b0	 mov	 ecx, DWORD PTR tv153[ebp]
  001bb	8b 94 88 00 00
	00 00		 mov	 edx, DWORD PTR ?fn_get_local_entity_int_value@@3PAY0BBH@P6GHPAUENTITY@@W4INT_TYPES@@@ZA[eax+ecx*4]
  001c2	ff d2		 call	 edx
  001c4	39 45 f8	 cmp	 DWORD PTR _config_type$[ebp], eax
  001c7	0f 8d 83 00 00
	00		 jge	 $LN6@select_pre

; 548  : 			{
; 549  : 				config_type = (weapon_config_types) get_local_entity_int_value (en, INT_TYPE_MAX_WEAPON_CONFIG_TYPE);

  001cd	83 7d fc 00	 cmp	 DWORD PTR _en$[ebp], 0
  001d1	74 0a		 je	 SHORT $LN21@select_pre
  001d3	8b 45 fc	 mov	 eax, DWORD PTR _en$[ebp]
  001d6	8b 08		 mov	 ecx, DWORD PTR [eax]
  001d8	89 4d b4	 mov	 DWORD PTR tv166[ebp], ecx
  001db	eb 21		 jmp	 SHORT $LN22@select_pre
$LN21@select_pre:
  001dd	8b 15 00 00 00
	00		 mov	 edx, DWORD PTR ?__LINE__Var@?0??select_previous_weapon_config_event@@YGXPAUEVENT@@@Z@4JA
  001e3	83 c2 1e	 add	 edx, 30			; 0000001eH
  001e6	52		 push	 edx
  001e7	68 00 00 00 00	 push	 OFFSET ??_C@_0DO@EFGBNKOF@c?3?2users?2nhv90?2projects?2eech?2ap@
  001ec	a1 00 00 00 00	 mov	 eax, DWORD PTR ?null_entity_pointer_message@@3PBDB ; null_entity_pointer_message
  001f1	50		 push	 eax
  001f2	e8 00 00 00 00	 call	 ?process_assert@@YGXPBD0H@Z ; process_assert
  001f7	c7 45 b4 00 00
	00 00		 mov	 DWORD PTR tv166[ebp], 0
$LN22@select_pre:
  001fe	b9 01 00 00 00	 mov	 ecx, 1
  00203	85 c9		 test	 ecx, ecx
  00205	74 09		 je	 SHORT $LN23@select_pre
  00207	c7 45 b0 85 00
	00 00		 mov	 DWORD PTR tv174[ebp], 133 ; 00000085H
  0020e	eb 21		 jmp	 SHORT $LN24@select_pre
$LN23@select_pre:
  00210	8b 15 00 00 00
	00		 mov	 edx, DWORD PTR ?__LINE__Var@?0??select_previous_weapon_config_event@@YGXPAUEVENT@@@Z@4JA
  00216	83 c2 1e	 add	 edx, 30			; 0000001eH
  00219	52		 push	 edx
  0021a	68 00 00 00 00	 push	 OFFSET ??_C@_0DO@EFGBNKOF@c?3?2users?2nhv90?2projects?2eech?2ap@
  0021f	a1 00 00 00 00	 mov	 eax, DWORD PTR ?overload_invalid_int_type_message@@3PBDB ; overload_invalid_int_type_message
  00224	50		 push	 eax
  00225	e8 00 00 00 00	 call	 ?process_assert@@YGXPBD0H@Z ; process_assert
  0022a	c7 45 b0 00 00
	00 00		 mov	 DWORD PTR tv174[ebp], 0
$LN24@select_pre:
  00231	68 85 00 00 00	 push	 133			; 00000085H
  00236	8b 4d fc	 mov	 ecx, DWORD PTR _en$[ebp]
  00239	51		 push	 ecx
  0023a	69 55 b4 5c 04
	00 00		 imul	 edx, DWORD PTR tv166[ebp], 1116
  00241	8b 45 b0	 mov	 eax, DWORD PTR tv174[ebp]
  00244	8b 8c 82 00 00
	00 00		 mov	 ecx, DWORD PTR ?fn_get_local_entity_int_value@@3PAY0BBH@P6GHPAUENTITY@@W4INT_TYPES@@@ZA[edx+eax*4]
  0024b	ff d1		 call	 ecx
  0024d	89 45 f8	 mov	 DWORD PTR _config_type$[ebp], eax
$LN6@select_pre:

; 550  : 			}
; 551  : 		}
; 552  : 
; 553  : 		set_client_server_entity_int_value (en, INT_TYPE_WEAPON_CONFIG_TYPE, config_type);

  00250	83 7d fc 00	 cmp	 DWORD PTR _en$[ebp], 0
  00254	74 0a		 je	 SHORT $LN25@select_pre
  00256	8b 45 fc	 mov	 eax, DWORD PTR _en$[ebp]
  00259	8b 08		 mov	 ecx, DWORD PTR [eax]
  0025b	89 4d b4	 mov	 DWORD PTR tv186[ebp], ecx
  0025e	eb 21		 jmp	 SHORT $LN26@select_pre
$LN25@select_pre:
  00260	8b 15 00 00 00
	00		 mov	 edx, DWORD PTR ?__LINE__Var@?0??select_previous_weapon_config_event@@YGXPAUEVENT@@@Z@4JA
  00266	83 c2 22	 add	 edx, 34			; 00000022H
  00269	52		 push	 edx
  0026a	68 00 00 00 00	 push	 OFFSET ??_C@_0DO@EFGBNKOF@c?3?2users?2nhv90?2projects?2eech?2ap@
  0026f	a1 00 00 00 00	 mov	 eax, DWORD PTR ?null_entity_pointer_message@@3PBDB ; null_entity_pointer_message
  00274	50		 push	 eax
  00275	e8 00 00 00 00	 call	 ?process_assert@@YGXPBD0H@Z ; process_assert
  0027a	c7 45 b4 00 00
	00 00		 mov	 DWORD PTR tv186[ebp], 0
$LN26@select_pre:
  00281	b9 01 00 00 00	 mov	 ecx, 1
  00286	85 c9		 test	 ecx, ecx
  00288	74 09		 je	 SHORT $LN27@select_pre
  0028a	c7 45 b0 05 01
	00 00		 mov	 DWORD PTR tv194[ebp], 261 ; 00000105H
  00291	eb 21		 jmp	 SHORT $LN28@select_pre
$LN27@select_pre:
  00293	8b 15 00 00 00
	00		 mov	 edx, DWORD PTR ?__LINE__Var@?0??select_previous_weapon_config_event@@YGXPAUEVENT@@@Z@4JA
  00299	83 c2 22	 add	 edx, 34			; 00000022H
  0029c	52		 push	 edx
  0029d	68 00 00 00 00	 push	 OFFSET ??_C@_0DO@EFGBNKOF@c?3?2users?2nhv90?2projects?2eech?2ap@
  002a2	a1 00 00 00 00	 mov	 eax, DWORD PTR ?overload_invalid_int_type_message@@3PBDB ; overload_invalid_int_type_message
  002a7	50		 push	 eax
  002a8	e8 00 00 00 00	 call	 ?process_assert@@YGXPBD0H@Z ; process_assert
  002ad	c7 45 b0 00 00
	00 00		 mov	 DWORD PTR tv194[ebp], 0
$LN28@select_pre:
  002b4	8b 4d f8	 mov	 ecx, DWORD PTR _config_type$[ebp]
  002b7	51		 push	 ecx
  002b8	68 05 01 00 00	 push	 261			; 00000105H
  002bd	8b 55 fc	 mov	 edx, DWORD PTR _en$[ebp]
  002c0	52		 push	 edx
  002c1	69 45 b4 b8 08
	00 00		 imul	 eax, DWORD PTR tv186[ebp], 2232
  002c8	8b 4d b0	 mov	 ecx, DWORD PTR tv194[ebp]
  002cb	8d 94 c8 00 00
	00 00		 lea	 edx, DWORD PTR ?fn_set_client_server_entity_int_value@@3PAY1BBH@1P6GXPAUENTITY@@W4INT_TYPES@@H@ZA[eax+ecx*8]
  002d2	a1 00 00 00 00	 mov	 eax, DWORD PTR ?system_comms_model@@3W4COMMS_MODEL_TYPES@@A ; system_comms_model
  002d7	8b 0c 82	 mov	 ecx, DWORD PTR [edx+eax*4]
  002da	ff d1		 call	 ecx
$LN1@select_pre:

; 554  : 	}
; 555  : }

  002dc	5f		 pop	 edi
  002dd	5e		 pop	 esi
  002de	5b		 pop	 ebx
  002df	8b e5		 mov	 esp, ebp
  002e1	5d		 pop	 ebp
  002e2	c2 04 00	 ret	 4
?select_previous_weapon_config_event@@YGXPAUEVENT@@@Z ENDP ; select_previous_weapon_config_event
_TEXT	ENDS
; Function compile flags: /Odtp /ZI
; File c:\users\nhv90\projects\eech\aphavoc\source\events\ev_debug.c
;	COMDAT ?select_next_weapon_config_event@@YGXPAUEVENT@@@Z
_TEXT	SEGMENT
tv194 = -80						; size = 4
tv174 = -80						; size = 4
tv153 = -80						; size = 4
tv134 = -80						; size = 4
tv81 = -80						; size = 4
tv186 = -76						; size = 4
tv166 = -76						; size = 4
tv146 = -76						; size = 4
tv94 = -76						; size = 4
tv73 = -76						; size = 4
_config_type$ = -8					; size = 4
_en$ = -4						; size = 4
_ev$ = 8						; size = 4
?select_next_weapon_config_event@@YGXPAUEVENT@@@Z PROC	; select_next_weapon_config_event, COMDAT

; 476  : {

  00000	55		 push	 ebp
  00001	8b ec		 mov	 ebp, esp
  00003	83 ec 50	 sub	 esp, 80			; 00000050H
  00006	53		 push	 ebx
  00007	56		 push	 esi
  00008	57		 push	 edi

; 477  : 	entity
; 478  : 		*en;
; 479  : 
; 480  : 	weapon_config_types
; 481  : 		config_type;
; 482  : 
; 483  : 	if (in_cockpit)

  00009	83 3d 00 00 00
	00 00		 cmp	 DWORD PTR ?in_cockpit@@3HA, 0 ; in_cockpit
  00010	74 0a		 je	 SHORT $LN2@select_nex

; 484  : 	{
; 485  : 		en = get_gunship_entity ();

  00012	a1 00 00 00 00	 mov	 eax, DWORD PTR ?gunship_entity@@3PAUENTITY@@A ; gunship_entity
  00017	89 45 fc	 mov	 DWORD PTR _en$[ebp], eax

; 486  : 	}
; 487  : 	else

  0001a	eb 08		 jmp	 SHORT $LN3@select_nex
$LN2@select_nex:

; 488  : 	{
; 489  : 		en = get_external_view_entity ();

  0001c	e8 00 00 00 00	 call	 ?get_external_view_entity@@YGPAUENTITY@@XZ ; get_external_view_entity
  00021	89 45 fc	 mov	 DWORD PTR _en$[ebp], eax
$LN3@select_nex:

; 490  : 	}
; 491  : 
; 492  : 	if (en)

  00024	83 7d fc 00	 cmp	 DWORD PTR _en$[ebp], 0
  00028	0f 84 ae 02 00
	00		 je	 $LN1@select_nex

; 493  : 	{
; 494  : 		config_type = (weapon_config_types) get_local_entity_int_value (en, INT_TYPE_WEAPON_CONFIG_TYPE);

  0002e	83 7d fc 00	 cmp	 DWORD PTR _en$[ebp], 0
  00032	74 0a		 je	 SHORT $LN9@select_nex
  00034	8b 45 fc	 mov	 eax, DWORD PTR _en$[ebp]
  00037	8b 08		 mov	 ecx, DWORD PTR [eax]
  00039	89 4d b4	 mov	 DWORD PTR tv73[ebp], ecx
  0003c	eb 21		 jmp	 SHORT $LN10@select_nex
$LN9@select_nex:
  0003e	8b 15 00 00 00
	00		 mov	 edx, DWORD PTR ?__LINE__Var@?0??select_next_weapon_config_event@@YGXPAUEVENT@@@Z@4JA
  00044	83 c2 12	 add	 edx, 18			; 00000012H
  00047	52		 push	 edx
  00048	68 00 00 00 00	 push	 OFFSET ??_C@_0DO@EFGBNKOF@c?3?2users?2nhv90?2projects?2eech?2ap@
  0004d	a1 00 00 00 00	 mov	 eax, DWORD PTR ?null_entity_pointer_message@@3PBDB ; null_entity_pointer_message
  00052	50		 push	 eax
  00053	e8 00 00 00 00	 call	 ?process_assert@@YGXPBD0H@Z ; process_assert
  00058	c7 45 b4 00 00
	00 00		 mov	 DWORD PTR tv73[ebp], 0
$LN10@select_nex:
  0005f	b9 01 00 00 00	 mov	 ecx, 1
  00064	85 c9		 test	 ecx, ecx
  00066	74 09		 je	 SHORT $LN11@select_nex
  00068	c7 45 b0 05 01
	00 00		 mov	 DWORD PTR tv81[ebp], 261 ; 00000105H
  0006f	eb 21		 jmp	 SHORT $LN12@select_nex
$LN11@select_nex:
  00071	8b 15 00 00 00
	00		 mov	 edx, DWORD PTR ?__LINE__Var@?0??select_next_weapon_config_event@@YGXPAUEVENT@@@Z@4JA
  00077	83 c2 12	 add	 edx, 18			; 00000012H
  0007a	52		 push	 edx
  0007b	68 00 00 00 00	 push	 OFFSET ??_C@_0DO@EFGBNKOF@c?3?2users?2nhv90?2projects?2eech?2ap@
  00080	a1 00 00 00 00	 mov	 eax, DWORD PTR ?overload_invalid_int_type_message@@3PBDB ; overload_invalid_int_type_message
  00085	50		 push	 eax
  00086	e8 00 00 00 00	 call	 ?process_assert@@YGXPBD0H@Z ; process_assert
  0008b	c7 45 b0 00 00
	00 00		 mov	 DWORD PTR tv81[ebp], 0
$LN12@select_nex:
  00092	68 05 01 00 00	 push	 261			; 00000105H
  00097	8b 4d fc	 mov	 ecx, DWORD PTR _en$[ebp]
  0009a	51		 push	 ecx
  0009b	69 55 b4 5c 04
	00 00		 imul	 edx, DWORD PTR tv73[ebp], 1116
  000a2	8b 45 b0	 mov	 eax, DWORD PTR tv81[ebp]
  000a5	8b 8c 82 00 00
	00 00		 mov	 ecx, DWORD PTR ?fn_get_local_entity_int_value@@3PAY0BBH@P6GHPAUENTITY@@W4INT_TYPES@@@ZA[edx+eax*4]
  000ac	ff d1		 call	 ecx
  000ae	89 45 f8	 mov	 DWORD PTR _config_type$[ebp], eax

; 495  : 
; 496  : 		if (config_type == WEAPON_CONFIG_TYPE_UNARMED)

  000b1	83 7d f8 00	 cmp	 DWORD PTR _config_type$[ebp], 0
  000b5	0f 85 88 00 00
	00		 jne	 $LN5@select_nex

; 497  : 		{
; 498  : 			config_type = (weapon_config_types) get_local_entity_int_value (en, INT_TYPE_MAX_WEAPON_CONFIG_TYPE);

  000bb	83 7d fc 00	 cmp	 DWORD PTR _en$[ebp], 0
  000bf	74 0a		 je	 SHORT $LN13@select_nex
  000c1	8b 45 fc	 mov	 eax, DWORD PTR _en$[ebp]
  000c4	8b 08		 mov	 ecx, DWORD PTR [eax]
  000c6	89 4d b4	 mov	 DWORD PTR tv94[ebp], ecx
  000c9	eb 21		 jmp	 SHORT $LN14@select_nex
$LN13@select_nex:
  000cb	8b 15 00 00 00
	00		 mov	 edx, DWORD PTR ?__LINE__Var@?0??select_next_weapon_config_event@@YGXPAUEVENT@@@Z@4JA
  000d1	83 c2 16	 add	 edx, 22			; 00000016H
  000d4	52		 push	 edx
  000d5	68 00 00 00 00	 push	 OFFSET ??_C@_0DO@EFGBNKOF@c?3?2users?2nhv90?2projects?2eech?2ap@
  000da	a1 00 00 00 00	 mov	 eax, DWORD PTR ?null_entity_pointer_message@@3PBDB ; null_entity_pointer_message
  000df	50		 push	 eax
  000e0	e8 00 00 00 00	 call	 ?process_assert@@YGXPBD0H@Z ; process_assert
  000e5	c7 45 b4 00 00
	00 00		 mov	 DWORD PTR tv94[ebp], 0
$LN14@select_nex:
  000ec	b9 01 00 00 00	 mov	 ecx, 1
  000f1	85 c9		 test	 ecx, ecx
  000f3	74 09		 je	 SHORT $LN15@select_nex
  000f5	c7 45 b0 85 00
	00 00		 mov	 DWORD PTR tv134[ebp], 133 ; 00000085H
  000fc	eb 21		 jmp	 SHORT $LN16@select_nex
$LN15@select_nex:
  000fe	8b 15 00 00 00
	00		 mov	 edx, DWORD PTR ?__LINE__Var@?0??select_next_weapon_config_event@@YGXPAUEVENT@@@Z@4JA
  00104	83 c2 16	 add	 edx, 22			; 00000016H
  00107	52		 push	 edx
  00108	68 00 00 00 00	 push	 OFFSET ??_C@_0DO@EFGBNKOF@c?3?2users?2nhv90?2projects?2eech?2ap@
  0010d	a1 00 00 00 00	 mov	 eax, DWORD PTR ?overload_invalid_int_type_message@@3PBDB ; overload_invalid_int_type_message
  00112	50		 push	 eax
  00113	e8 00 00 00 00	 call	 ?process_assert@@YGXPBD0H@Z ; process_assert
  00118	c7 45 b0 00 00
	00 00		 mov	 DWORD PTR tv134[ebp], 0
$LN16@select_nex:
  0011f	68 85 00 00 00	 push	 133			; 00000085H
  00124	8b 4d fc	 mov	 ecx, DWORD PTR _en$[ebp]
  00127	51		 push	 ecx
  00128	69 55 b4 5c 04
	00 00		 imul	 edx, DWORD PTR tv94[ebp], 1116
  0012f	8b 45 b0	 mov	 eax, DWORD PTR tv134[ebp]
  00132	8b 8c 82 00 00
	00 00		 mov	 ecx, DWORD PTR ?fn_get_local_entity_int_value@@3PAY0BBH@P6GHPAUENTITY@@W4INT_TYPES@@@ZA[edx+eax*4]
  00139	ff d1		 call	 ecx
  0013b	89 45 f8	 mov	 DWORD PTR _config_type$[ebp], eax

; 499  : 		}
; 500  : 		else

  0013e	e9 0d 01 00 00	 jmp	 $LN6@select_nex
$LN5@select_nex:

; 501  : 		{
; 502  : 			config_type = (weapon_config_types) ((int) config_type + 1);

  00143	8b 45 f8	 mov	 eax, DWORD PTR _config_type$[ebp]
  00146	83 c0 01	 add	 eax, 1
  00149	89 45 f8	 mov	 DWORD PTR _config_type$[ebp], eax

; 503  : 
; 504  : 			if (config_type > get_local_entity_int_value (en, INT_TYPE_MAX_WEAPON_CONFIG_TYPE))

  0014c	83 7d fc 00	 cmp	 DWORD PTR _en$[ebp], 0
  00150	74 0a		 je	 SHORT $LN17@select_nex
  00152	8b 45 fc	 mov	 eax, DWORD PTR _en$[ebp]
  00155	8b 08		 mov	 ecx, DWORD PTR [eax]
  00157	89 4d b4	 mov	 DWORD PTR tv146[ebp], ecx
  0015a	eb 1d		 jmp	 SHORT $LN18@select_nex
$LN17@select_nex:
  0015c	68 f8 01 00 00	 push	 504			; 000001f8H
  00161	68 00 00 00 00	 push	 OFFSET ??_C@_0DO@EFGBNKOF@c?3?2users?2nhv90?2projects?2eech?2ap@
  00166	8b 15 00 00 00
	00		 mov	 edx, DWORD PTR ?null_entity_pointer_message@@3PBDB ; null_entity_pointer_message
  0016c	52		 push	 edx
  0016d	e8 00 00 00 00	 call	 ?process_assert@@YGXPBD0H@Z ; process_assert
  00172	c7 45 b4 00 00
	00 00		 mov	 DWORD PTR tv146[ebp], 0
$LN18@select_nex:
  00179	b8 01 00 00 00	 mov	 eax, 1
  0017e	85 c0		 test	 eax, eax
  00180	74 09		 je	 SHORT $LN19@select_nex
  00182	c7 45 b0 85 00
	00 00		 mov	 DWORD PTR tv153[ebp], 133 ; 00000085H
  00189	eb 1d		 jmp	 SHORT $LN20@select_nex
$LN19@select_nex:
  0018b	68 f8 01 00 00	 push	 504			; 000001f8H
  00190	68 00 00 00 00	 push	 OFFSET ??_C@_0DO@EFGBNKOF@c?3?2users?2nhv90?2projects?2eech?2ap@
  00195	8b 0d 00 00 00
	00		 mov	 ecx, DWORD PTR ?overload_invalid_int_type_message@@3PBDB ; overload_invalid_int_type_message
  0019b	51		 push	 ecx
  0019c	e8 00 00 00 00	 call	 ?process_assert@@YGXPBD0H@Z ; process_assert
  001a1	c7 45 b0 00 00
	00 00		 mov	 DWORD PTR tv153[ebp], 0
$LN20@select_nex:
  001a8	68 85 00 00 00	 push	 133			; 00000085H
  001ad	8b 55 fc	 mov	 edx, DWORD PTR _en$[ebp]
  001b0	52		 push	 edx
  001b1	69 45 b4 5c 04
	00 00		 imul	 eax, DWORD PTR tv146[ebp], 1116
  001b8	8b 4d b0	 mov	 ecx, DWORD PTR tv153[ebp]
  001bb	8b 94 88 00 00
	00 00		 mov	 edx, DWORD PTR ?fn_get_local_entity_int_value@@3PAY0BBH@P6GHPAUENTITY@@W4INT_TYPES@@@ZA[eax+ecx*4]
  001c2	ff d2		 call	 edx
  001c4	39 45 f8	 cmp	 DWORD PTR _config_type$[ebp], eax
  001c7	0f 8e 83 00 00
	00		 jle	 $LN6@select_nex

; 505  : 			{
; 506  : 				config_type = (weapon_config_types) get_local_entity_int_value (en, INT_TYPE_MIN_WEAPON_CONFIG_TYPE);

  001cd	83 7d fc 00	 cmp	 DWORD PTR _en$[ebp], 0
  001d1	74 0a		 je	 SHORT $LN21@select_nex
  001d3	8b 45 fc	 mov	 eax, DWORD PTR _en$[ebp]
  001d6	8b 08		 mov	 ecx, DWORD PTR [eax]
  001d8	89 4d b4	 mov	 DWORD PTR tv166[ebp], ecx
  001db	eb 21		 jmp	 SHORT $LN22@select_nex
$LN21@select_nex:
  001dd	8b 15 00 00 00
	00		 mov	 edx, DWORD PTR ?__LINE__Var@?0??select_next_weapon_config_event@@YGXPAUEVENT@@@Z@4JA
  001e3	83 c2 1e	 add	 edx, 30			; 0000001eH
  001e6	52		 push	 edx
  001e7	68 00 00 00 00	 push	 OFFSET ??_C@_0DO@EFGBNKOF@c?3?2users?2nhv90?2projects?2eech?2ap@
  001ec	a1 00 00 00 00	 mov	 eax, DWORD PTR ?null_entity_pointer_message@@3PBDB ; null_entity_pointer_message
  001f1	50		 push	 eax
  001f2	e8 00 00 00 00	 call	 ?process_assert@@YGXPBD0H@Z ; process_assert
  001f7	c7 45 b4 00 00
	00 00		 mov	 DWORD PTR tv166[ebp], 0
$LN22@select_nex:
  001fe	b9 01 00 00 00	 mov	 ecx, 1
  00203	85 c9		 test	 ecx, ecx
  00205	74 09		 je	 SHORT $LN23@select_nex
  00207	c7 45 b0 8c 00
	00 00		 mov	 DWORD PTR tv174[ebp], 140 ; 0000008cH
  0020e	eb 21		 jmp	 SHORT $LN24@select_nex
$LN23@select_nex:
  00210	8b 15 00 00 00
	00		 mov	 edx, DWORD PTR ?__LINE__Var@?0??select_next_weapon_config_event@@YGXPAUEVENT@@@Z@4JA
  00216	83 c2 1e	 add	 edx, 30			; 0000001eH
  00219	52		 push	 edx
  0021a	68 00 00 00 00	 push	 OFFSET ??_C@_0DO@EFGBNKOF@c?3?2users?2nhv90?2projects?2eech?2ap@
  0021f	a1 00 00 00 00	 mov	 eax, DWORD PTR ?overload_invalid_int_type_message@@3PBDB ; overload_invalid_int_type_message
  00224	50		 push	 eax
  00225	e8 00 00 00 00	 call	 ?process_assert@@YGXPBD0H@Z ; process_assert
  0022a	c7 45 b0 00 00
	00 00		 mov	 DWORD PTR tv174[ebp], 0
$LN24@select_nex:
  00231	68 8c 00 00 00	 push	 140			; 0000008cH
  00236	8b 4d fc	 mov	 ecx, DWORD PTR _en$[ebp]
  00239	51		 push	 ecx
  0023a	69 55 b4 5c 04
	00 00		 imul	 edx, DWORD PTR tv166[ebp], 1116
  00241	8b 45 b0	 mov	 eax, DWORD PTR tv174[ebp]
  00244	8b 8c 82 00 00
	00 00		 mov	 ecx, DWORD PTR ?fn_get_local_entity_int_value@@3PAY0BBH@P6GHPAUENTITY@@W4INT_TYPES@@@ZA[edx+eax*4]
  0024b	ff d1		 call	 ecx
  0024d	89 45 f8	 mov	 DWORD PTR _config_type$[ebp], eax
$LN6@select_nex:

; 507  : 			}
; 508  : 		}
; 509  : 
; 510  : 		set_client_server_entity_int_value (en, INT_TYPE_WEAPON_CONFIG_TYPE, config_type);

  00250	83 7d fc 00	 cmp	 DWORD PTR _en$[ebp], 0
  00254	74 0a		 je	 SHORT $LN25@select_nex
  00256	8b 45 fc	 mov	 eax, DWORD PTR _en$[ebp]
  00259	8b 08		 mov	 ecx, DWORD PTR [eax]
  0025b	89 4d b4	 mov	 DWORD PTR tv186[ebp], ecx
  0025e	eb 21		 jmp	 SHORT $LN26@select_nex
$LN25@select_nex:
  00260	8b 15 00 00 00
	00		 mov	 edx, DWORD PTR ?__LINE__Var@?0??select_next_weapon_config_event@@YGXPAUEVENT@@@Z@4JA
  00266	83 c2 22	 add	 edx, 34			; 00000022H
  00269	52		 push	 edx
  0026a	68 00 00 00 00	 push	 OFFSET ??_C@_0DO@EFGBNKOF@c?3?2users?2nhv90?2projects?2eech?2ap@
  0026f	a1 00 00 00 00	 mov	 eax, DWORD PTR ?null_entity_pointer_message@@3PBDB ; null_entity_pointer_message
  00274	50		 push	 eax
  00275	e8 00 00 00 00	 call	 ?process_assert@@YGXPBD0H@Z ; process_assert
  0027a	c7 45 b4 00 00
	00 00		 mov	 DWORD PTR tv186[ebp], 0
$LN26@select_nex:
  00281	b9 01 00 00 00	 mov	 ecx, 1
  00286	85 c9		 test	 ecx, ecx
  00288	74 09		 je	 SHORT $LN27@select_nex
  0028a	c7 45 b0 05 01
	00 00		 mov	 DWORD PTR tv194[ebp], 261 ; 00000105H
  00291	eb 21		 jmp	 SHORT $LN28@select_nex
$LN27@select_nex:
  00293	8b 15 00 00 00
	00		 mov	 edx, DWORD PTR ?__LINE__Var@?0??select_next_weapon_config_event@@YGXPAUEVENT@@@Z@4JA
  00299	83 c2 22	 add	 edx, 34			; 00000022H
  0029c	52		 push	 edx
  0029d	68 00 00 00 00	 push	 OFFSET ??_C@_0DO@EFGBNKOF@c?3?2users?2nhv90?2projects?2eech?2ap@
  002a2	a1 00 00 00 00	 mov	 eax, DWORD PTR ?overload_invalid_int_type_message@@3PBDB ; overload_invalid_int_type_message
  002a7	50		 push	 eax
  002a8	e8 00 00 00 00	 call	 ?process_assert@@YGXPBD0H@Z ; process_assert
  002ad	c7 45 b0 00 00
	00 00		 mov	 DWORD PTR tv194[ebp], 0
$LN28@select_nex:
  002b4	8b 4d f8	 mov	 ecx, DWORD PTR _config_type$[ebp]
  002b7	51		 push	 ecx
  002b8	68 05 01 00 00	 push	 261			; 00000105H
  002bd	8b 55 fc	 mov	 edx, DWORD PTR _en$[ebp]
  002c0	52		 push	 edx
  002c1	69 45 b4 b8 08
	00 00		 imul	 eax, DWORD PTR tv186[ebp], 2232
  002c8	8b 4d b0	 mov	 ecx, DWORD PTR tv194[ebp]
  002cb	8d 94 c8 00 00
	00 00		 lea	 edx, DWORD PTR ?fn_set_client_server_entity_int_value@@3PAY1BBH@1P6GXPAUENTITY@@W4INT_TYPES@@H@ZA[eax+ecx*8]
  002d2	a1 00 00 00 00	 mov	 eax, DWORD PTR ?system_comms_model@@3W4COMMS_MODEL_TYPES@@A ; system_comms_model
  002d7	8b 0c 82	 mov	 ecx, DWORD PTR [edx+eax*4]
  002da	ff d1		 call	 ecx
$LN1@select_nex:

; 511  : 	}
; 512  : }

  002dc	5f		 pop	 edi
  002dd	5e		 pop	 esi
  002de	5b		 pop	 ebx
  002df	8b e5		 mov	 esp, ebp
  002e1	5d		 pop	 ebp
  002e2	c2 04 00	 ret	 4
?select_next_weapon_config_event@@YGXPAUEVENT@@@Z ENDP	; select_next_weapon_config_event
_TEXT	ENDS
; Function compile flags: /Odtp /ZI
; File c:\users\nhv90\projects\eech\aphavoc\source\events\ev_debug.c
;	COMDAT ?select_invalid_weapon_event@@YGXPAUEVENT@@@Z
_TEXT	SEGMENT
tv134 = -80						; size = 4
tv81 = -80						; size = 4
tv94 = -76						; size = 4
tv74 = -76						; size = 4
_weapon_sub_type$ = -8					; size = 4
_en$ = -4						; size = 4
_ev$ = 8						; size = 4
?select_invalid_weapon_event@@YGXPAUEVENT@@@Z PROC	; select_invalid_weapon_event, COMDAT

; 437  : {

  00000	55		 push	 ebp
  00001	8b ec		 mov	 ebp, esp
  00003	83 ec 50	 sub	 esp, 80			; 00000050H
  00006	53		 push	 ebx
  00007	56		 push	 esi
  00008	57		 push	 edi

; 438  : 	entity
; 439  : 		*en;
; 440  : 
; 441  : 	entity_sub_types
; 442  : 		weapon_sub_type;
; 443  : 
; 444  : 	if (in_cockpit)

  00009	83 3d 00 00 00
	00 00		 cmp	 DWORD PTR ?in_cockpit@@3HA, 0 ; in_cockpit
  00010	74 0a		 je	 SHORT $LN2@select_inv

; 445  : 	{
; 446  : 		en = get_gunship_entity ();

  00012	a1 00 00 00 00	 mov	 eax, DWORD PTR ?gunship_entity@@3PAUENTITY@@A ; gunship_entity
  00017	89 45 fc	 mov	 DWORD PTR _en$[ebp], eax

; 447  : 	}
; 448  : 	else

  0001a	eb 08		 jmp	 SHORT $LN3@select_inv
$LN2@select_inv:

; 449  : 	{
; 450  : 		en = get_external_view_entity ();

  0001c	e8 00 00 00 00	 call	 ?get_external_view_entity@@YGPAUENTITY@@XZ ; get_external_view_entity
  00021	89 45 fc	 mov	 DWORD PTR _en$[ebp], eax
$LN3@select_inv:

; 451  : 	}
; 452  : 
; 453  : 	if (en)

  00024	83 7d fc 00	 cmp	 DWORD PTR _en$[ebp], 0
  00028	0f 84 2d 01 00
	00		 je	 $LN1@select_inv

; 454  : 	{
; 455  : 		weapon_sub_type = ENTITY_SUB_TYPE_WEAPON_NO_WEAPON;

  0002e	c7 45 f8 00 00
	00 00		 mov	 DWORD PTR _weapon_sub_type$[ebp], 0

; 456  : 
; 457  : 		if (en == get_gunship_entity ())

  00035	8b 45 fc	 mov	 eax, DWORD PTR _en$[ebp]
  00038	3b 05 00 00 00
	00		 cmp	 eax, DWORD PTR ?gunship_entity@@3PAUENTITY@@A ; gunship_entity
  0003e	75 0e		 jne	 SHORT $LN5@select_inv

; 458  : 		{
; 459  : 			set_gunship_weapon (weapon_sub_type);

  00040	8b 45 f8	 mov	 eax, DWORD PTR _weapon_sub_type$[ebp]
  00043	50		 push	 eax
  00044	e8 00 00 00 00	 call	 ?set_gunship_weapon@@YGXH@Z ; set_gunship_weapon

; 460  : 		}
; 461  : 		else

  00049	e9 0d 01 00 00	 jmp	 $LN1@select_inv
$LN5@select_inv:

; 462  : 		{
; 463  : 			if (weapon_sub_type != get_local_entity_int_value (en, INT_TYPE_SELECTED_WEAPON))

  0004e	83 7d fc 00	 cmp	 DWORD PTR _en$[ebp], 0
  00052	74 0a		 je	 SHORT $LN9@select_inv
  00054	8b 45 fc	 mov	 eax, DWORD PTR _en$[ebp]
  00057	8b 08		 mov	 ecx, DWORD PTR [eax]
  00059	89 4d b4	 mov	 DWORD PTR tv74[ebp], ecx
  0005c	eb 1d		 jmp	 SHORT $LN10@select_inv
$LN9@select_inv:
  0005e	68 cf 01 00 00	 push	 463			; 000001cfH
  00063	68 00 00 00 00	 push	 OFFSET ??_C@_0DO@EFGBNKOF@c?3?2users?2nhv90?2projects?2eech?2ap@
  00068	8b 15 00 00 00
	00		 mov	 edx, DWORD PTR ?null_entity_pointer_message@@3PBDB ; null_entity_pointer_message
  0006e	52		 push	 edx
  0006f	e8 00 00 00 00	 call	 ?process_assert@@YGXPBD0H@Z ; process_assert
  00074	c7 45 b4 00 00
	00 00		 mov	 DWORD PTR tv74[ebp], 0
$LN10@select_inv:
  0007b	b8 01 00 00 00	 mov	 eax, 1
  00080	85 c0		 test	 eax, eax
  00082	74 09		 je	 SHORT $LN11@select_inv
  00084	c7 45 b0 b8 00
	00 00		 mov	 DWORD PTR tv81[ebp], 184 ; 000000b8H
  0008b	eb 1d		 jmp	 SHORT $LN12@select_inv
$LN11@select_inv:
  0008d	68 cf 01 00 00	 push	 463			; 000001cfH
  00092	68 00 00 00 00	 push	 OFFSET ??_C@_0DO@EFGBNKOF@c?3?2users?2nhv90?2projects?2eech?2ap@
  00097	8b 0d 00 00 00
	00		 mov	 ecx, DWORD PTR ?overload_invalid_int_type_message@@3PBDB ; overload_invalid_int_type_message
  0009d	51		 push	 ecx
  0009e	e8 00 00 00 00	 call	 ?process_assert@@YGXPBD0H@Z ; process_assert
  000a3	c7 45 b0 00 00
	00 00		 mov	 DWORD PTR tv81[ebp], 0
$LN12@select_inv:
  000aa	68 b8 00 00 00	 push	 184			; 000000b8H
  000af	8b 55 fc	 mov	 edx, DWORD PTR _en$[ebp]
  000b2	52		 push	 edx
  000b3	69 45 b4 5c 04
	00 00		 imul	 eax, DWORD PTR tv74[ebp], 1116
  000ba	8b 4d b0	 mov	 ecx, DWORD PTR tv81[ebp]
  000bd	8b 94 88 00 00
	00 00		 mov	 edx, DWORD PTR ?fn_get_local_entity_int_value@@3PAY0BBH@P6GHPAUENTITY@@W4INT_TYPES@@@ZA[eax+ecx*4]
  000c4	ff d2		 call	 edx
  000c6	39 45 f8	 cmp	 DWORD PTR _weapon_sub_type$[ebp], eax
  000c9	0f 84 8c 00 00
	00		 je	 $LN1@select_inv

; 464  : 			{
; 465  : 				set_client_server_entity_int_value (en, INT_TYPE_SELECTED_WEAPON, weapon_sub_type);

  000cf	83 7d fc 00	 cmp	 DWORD PTR _en$[ebp], 0
  000d3	74 0a		 je	 SHORT $LN13@select_inv
  000d5	8b 45 fc	 mov	 eax, DWORD PTR _en$[ebp]
  000d8	8b 08		 mov	 ecx, DWORD PTR [eax]
  000da	89 4d b4	 mov	 DWORD PTR tv94[ebp], ecx
  000dd	eb 21		 jmp	 SHORT $LN14@select_inv
$LN13@select_inv:
  000df	8b 15 00 00 00
	00		 mov	 edx, DWORD PTR ?__LINE__Var@?0??select_invalid_weapon_event@@YGXPAUEVENT@@@Z@4JA
  000e5	83 c2 1c	 add	 edx, 28			; 0000001cH
  000e8	52		 push	 edx
  000e9	68 00 00 00 00	 push	 OFFSET ??_C@_0DO@EFGBNKOF@c?3?2users?2nhv90?2projects?2eech?2ap@
  000ee	a1 00 00 00 00	 mov	 eax, DWORD PTR ?null_entity_pointer_message@@3PBDB ; null_entity_pointer_message
  000f3	50		 push	 eax
  000f4	e8 00 00 00 00	 call	 ?process_assert@@YGXPBD0H@Z ; process_assert
  000f9	c7 45 b4 00 00
	00 00		 mov	 DWORD PTR tv94[ebp], 0
$LN14@select_inv:
  00100	b9 01 00 00 00	 mov	 ecx, 1
  00105	85 c9		 test	 ecx, ecx
  00107	74 09		 je	 SHORT $LN15@select_inv
  00109	c7 45 b0 b8 00
	00 00		 mov	 DWORD PTR tv134[ebp], 184 ; 000000b8H
  00110	eb 21		 jmp	 SHORT $LN16@select_inv
$LN15@select_inv:
  00112	8b 15 00 00 00
	00		 mov	 edx, DWORD PTR ?__LINE__Var@?0??select_invalid_weapon_event@@YGXPAUEVENT@@@Z@4JA
  00118	83 c2 1c	 add	 edx, 28			; 0000001cH
  0011b	52		 push	 edx
  0011c	68 00 00 00 00	 push	 OFFSET ??_C@_0DO@EFGBNKOF@c?3?2users?2nhv90?2projects?2eech?2ap@
  00121	a1 00 00 00 00	 mov	 eax, DWORD PTR ?overload_invalid_int_type_message@@3PBDB ; overload_invalid_int_type_message
  00126	50		 push	 eax
  00127	e8 00 00 00 00	 call	 ?process_assert@@YGXPBD0H@Z ; process_assert
  0012c	c7 45 b0 00 00
	00 00		 mov	 DWORD PTR tv134[ebp], 0
$LN16@select_inv:
  00133	8b 4d f8	 mov	 ecx, DWORD PTR _weapon_sub_type$[ebp]
  00136	51		 push	 ecx
  00137	68 b8 00 00 00	 push	 184			; 000000b8H
  0013c	8b 55 fc	 mov	 edx, DWORD PTR _en$[ebp]
  0013f	52		 push	 edx
  00140	69 45 b4 b8 08
	00 00		 imul	 eax, DWORD PTR tv94[ebp], 2232
  00147	8b 4d b0	 mov	 ecx, DWORD PTR tv134[ebp]
  0014a	8d 94 c8 00 00
	00 00		 lea	 edx, DWORD PTR ?fn_set_client_server_entity_int_value@@3PAY1BBH@1P6GXPAUENTITY@@W4INT_TYPES@@H@ZA[eax+ecx*8]
  00151	a1 00 00 00 00	 mov	 eax, DWORD PTR ?system_comms_model@@3W4COMMS_MODEL_TYPES@@A ; system_comms_model
  00156	8b 0c 82	 mov	 ecx, DWORD PTR [edx+eax*4]
  00159	ff d1		 call	 ecx
$LN1@select_inv:

; 466  : 			}
; 467  : 		}
; 468  : 	}
; 469  : }

  0015b	5f		 pop	 edi
  0015c	5e		 pop	 esi
  0015d	5b		 pop	 ebx
  0015e	8b e5		 mov	 esp, ebp
  00160	5d		 pop	 ebp
  00161	c2 04 00	 ret	 4
?select_invalid_weapon_event@@YGXPAUEVENT@@@Z ENDP	; select_invalid_weapon_event
_TEXT	ENDS
; Function compile flags: /Odtp /ZI
; File c:\users\nhv90\projects\eech\aphavoc\source\events\ev_debug.c
;	COMDAT ?select_previous_weapon_event@@YGXPAUEVENT@@@Z
_TEXT	SEGMENT
tv136 = -80						; size = 4
tv83 = -80						; size = 4
tv128 = -76						; size = 4
tv76 = -76						; size = 4
_weapon_sub_type$ = -8					; size = 4
_en$ = -4						; size = 4
_ev$ = 8						; size = 4
?select_previous_weapon_event@@YGXPAUEVENT@@@Z PROC	; select_previous_weapon_event, COMDAT

; 398  : {

  00000	55		 push	 ebp
  00001	8b ec		 mov	 ebp, esp
  00003	83 ec 50	 sub	 esp, 80			; 00000050H
  00006	53		 push	 ebx
  00007	56		 push	 esi
  00008	57		 push	 edi

; 399  : 	entity
; 400  : 		*en;
; 401  : 
; 402  : 	entity_sub_types
; 403  : 		weapon_sub_type;
; 404  : 
; 405  : 	if (in_cockpit)

  00009	83 3d 00 00 00
	00 00		 cmp	 DWORD PTR ?in_cockpit@@3HA, 0 ; in_cockpit
  00010	74 0a		 je	 SHORT $LN2@select_pre

; 406  : 	{
; 407  : 		en = get_gunship_entity ();

  00012	a1 00 00 00 00	 mov	 eax, DWORD PTR ?gunship_entity@@3PAUENTITY@@A ; gunship_entity
  00017	89 45 fc	 mov	 DWORD PTR _en$[ebp], eax

; 408  : 	}
; 409  : 	else

  0001a	eb 08		 jmp	 SHORT $LN3@select_pre
$LN2@select_pre:

; 410  : 	{
; 411  : 		en = get_external_view_entity ();

  0001c	e8 00 00 00 00	 call	 ?get_external_view_entity@@YGPAUENTITY@@XZ ; get_external_view_entity
  00021	89 45 fc	 mov	 DWORD PTR _en$[ebp], eax
$LN3@select_pre:

; 412  : 	}
; 413  : 
; 414  : 	if (en)

  00024	83 7d fc 00	 cmp	 DWORD PTR _en$[ebp], 0
  00028	0f 84 32 01 00
	00		 je	 $LN1@select_pre

; 415  : 	{
; 416  : 		weapon_sub_type = get_previous_available_weapon_sub_type (en);

  0002e	8b 45 fc	 mov	 eax, DWORD PTR _en$[ebp]
  00031	50		 push	 eax
  00032	e8 00 00 00 00	 call	 ?get_previous_available_weapon_sub_type@@YGHPAUENTITY@@@Z ; get_previous_available_weapon_sub_type
  00037	89 45 f8	 mov	 DWORD PTR _weapon_sub_type$[ebp], eax

; 417  : 
; 418  : 		if (en == get_gunship_entity ())

  0003a	8b 45 fc	 mov	 eax, DWORD PTR _en$[ebp]
  0003d	3b 05 00 00 00
	00		 cmp	 eax, DWORD PTR ?gunship_entity@@3PAUENTITY@@A ; gunship_entity
  00043	75 0e		 jne	 SHORT $LN5@select_pre

; 419  : 		{
; 420  : 			set_gunship_weapon (weapon_sub_type);

  00045	8b 45 f8	 mov	 eax, DWORD PTR _weapon_sub_type$[ebp]
  00048	50		 push	 eax
  00049	e8 00 00 00 00	 call	 ?set_gunship_weapon@@YGXH@Z ; set_gunship_weapon

; 421  : 		}
; 422  : 		else

  0004e	e9 0d 01 00 00	 jmp	 $LN1@select_pre
$LN5@select_pre:

; 423  : 		{
; 424  : 			if (weapon_sub_type != get_local_entity_int_value (en, INT_TYPE_SELECTED_WEAPON))

  00053	83 7d fc 00	 cmp	 DWORD PTR _en$[ebp], 0
  00057	74 0a		 je	 SHORT $LN9@select_pre
  00059	8b 45 fc	 mov	 eax, DWORD PTR _en$[ebp]
  0005c	8b 08		 mov	 ecx, DWORD PTR [eax]
  0005e	89 4d b4	 mov	 DWORD PTR tv76[ebp], ecx
  00061	eb 1d		 jmp	 SHORT $LN10@select_pre
$LN9@select_pre:
  00063	68 a8 01 00 00	 push	 424			; 000001a8H
  00068	68 00 00 00 00	 push	 OFFSET ??_C@_0DO@EFGBNKOF@c?3?2users?2nhv90?2projects?2eech?2ap@
  0006d	8b 15 00 00 00
	00		 mov	 edx, DWORD PTR ?null_entity_pointer_message@@3PBDB ; null_entity_pointer_message
  00073	52		 push	 edx
  00074	e8 00 00 00 00	 call	 ?process_assert@@YGXPBD0H@Z ; process_assert
  00079	c7 45 b4 00 00
	00 00		 mov	 DWORD PTR tv76[ebp], 0
$LN10@select_pre:
  00080	b8 01 00 00 00	 mov	 eax, 1
  00085	85 c0		 test	 eax, eax
  00087	74 09		 je	 SHORT $LN11@select_pre
  00089	c7 45 b0 b8 00
	00 00		 mov	 DWORD PTR tv83[ebp], 184 ; 000000b8H
  00090	eb 1d		 jmp	 SHORT $LN12@select_pre
$LN11@select_pre:
  00092	68 a8 01 00 00	 push	 424			; 000001a8H
  00097	68 00 00 00 00	 push	 OFFSET ??_C@_0DO@EFGBNKOF@c?3?2users?2nhv90?2projects?2eech?2ap@
  0009c	8b 0d 00 00 00
	00		 mov	 ecx, DWORD PTR ?overload_invalid_int_type_message@@3PBDB ; overload_invalid_int_type_message
  000a2	51		 push	 ecx
  000a3	e8 00 00 00 00	 call	 ?process_assert@@YGXPBD0H@Z ; process_assert
  000a8	c7 45 b0 00 00
	00 00		 mov	 DWORD PTR tv83[ebp], 0
$LN12@select_pre:
  000af	68 b8 00 00 00	 push	 184			; 000000b8H
  000b4	8b 55 fc	 mov	 edx, DWORD PTR _en$[ebp]
  000b7	52		 push	 edx
  000b8	69 45 b4 5c 04
	00 00		 imul	 eax, DWORD PTR tv76[ebp], 1116
  000bf	8b 4d b0	 mov	 ecx, DWORD PTR tv83[ebp]
  000c2	8b 94 88 00 00
	00 00		 mov	 edx, DWORD PTR ?fn_get_local_entity_int_value@@3PAY0BBH@P6GHPAUENTITY@@W4INT_TYPES@@@ZA[eax+ecx*4]
  000c9	ff d2		 call	 edx
  000cb	39 45 f8	 cmp	 DWORD PTR _weapon_sub_type$[ebp], eax
  000ce	0f 84 8c 00 00
	00		 je	 $LN1@select_pre

; 425  : 			{
; 426  : 				set_client_server_entity_int_value (en, INT_TYPE_SELECTED_WEAPON, weapon_sub_type);

  000d4	83 7d fc 00	 cmp	 DWORD PTR _en$[ebp], 0
  000d8	74 0a		 je	 SHORT $LN13@select_pre
  000da	8b 45 fc	 mov	 eax, DWORD PTR _en$[ebp]
  000dd	8b 08		 mov	 ecx, DWORD PTR [eax]
  000df	89 4d b4	 mov	 DWORD PTR tv128[ebp], ecx
  000e2	eb 21		 jmp	 SHORT $LN14@select_pre
$LN13@select_pre:
  000e4	8b 15 00 00 00
	00		 mov	 edx, DWORD PTR ?__LINE__Var@?0??select_previous_weapon_event@@YGXPAUEVENT@@@Z@4JA
  000ea	83 c2 1c	 add	 edx, 28			; 0000001cH
  000ed	52		 push	 edx
  000ee	68 00 00 00 00	 push	 OFFSET ??_C@_0DO@EFGBNKOF@c?3?2users?2nhv90?2projects?2eech?2ap@
  000f3	a1 00 00 00 00	 mov	 eax, DWORD PTR ?null_entity_pointer_message@@3PBDB ; null_entity_pointer_message
  000f8	50		 push	 eax
  000f9	e8 00 00 00 00	 call	 ?process_assert@@YGXPBD0H@Z ; process_assert
  000fe	c7 45 b4 00 00
	00 00		 mov	 DWORD PTR tv128[ebp], 0
$LN14@select_pre:
  00105	b9 01 00 00 00	 mov	 ecx, 1
  0010a	85 c9		 test	 ecx, ecx
  0010c	74 09		 je	 SHORT $LN15@select_pre
  0010e	c7 45 b0 b8 00
	00 00		 mov	 DWORD PTR tv136[ebp], 184 ; 000000b8H
  00115	eb 21		 jmp	 SHORT $LN16@select_pre
$LN15@select_pre:
  00117	8b 15 00 00 00
	00		 mov	 edx, DWORD PTR ?__LINE__Var@?0??select_previous_weapon_event@@YGXPAUEVENT@@@Z@4JA
  0011d	83 c2 1c	 add	 edx, 28			; 0000001cH
  00120	52		 push	 edx
  00121	68 00 00 00 00	 push	 OFFSET ??_C@_0DO@EFGBNKOF@c?3?2users?2nhv90?2projects?2eech?2ap@
  00126	a1 00 00 00 00	 mov	 eax, DWORD PTR ?overload_invalid_int_type_message@@3PBDB ; overload_invalid_int_type_message
  0012b	50		 push	 eax
  0012c	e8 00 00 00 00	 call	 ?process_assert@@YGXPBD0H@Z ; process_assert
  00131	c7 45 b0 00 00
	00 00		 mov	 DWORD PTR tv136[ebp], 0
$LN16@select_pre:
  00138	8b 4d f8	 mov	 ecx, DWORD PTR _weapon_sub_type$[ebp]
  0013b	51		 push	 ecx
  0013c	68 b8 00 00 00	 push	 184			; 000000b8H
  00141	8b 55 fc	 mov	 edx, DWORD PTR _en$[ebp]
  00144	52		 push	 edx
  00145	69 45 b4 b8 08
	00 00		 imul	 eax, DWORD PTR tv128[ebp], 2232
  0014c	8b 4d b0	 mov	 ecx, DWORD PTR tv136[ebp]
  0014f	8d 94 c8 00 00
	00 00		 lea	 edx, DWORD PTR ?fn_set_client_server_entity_int_value@@3PAY1BBH@1P6GXPAUENTITY@@W4INT_TYPES@@H@ZA[eax+ecx*8]
  00156	a1 00 00 00 00	 mov	 eax, DWORD PTR ?system_comms_model@@3W4COMMS_MODEL_TYPES@@A ; system_comms_model
  0015b	8b 0c 82	 mov	 ecx, DWORD PTR [edx+eax*4]
  0015e	ff d1		 call	 ecx
$LN1@select_pre:

; 427  : 			}
; 428  : 		}
; 429  : 	}
; 430  : }

  00160	5f		 pop	 edi
  00161	5e		 pop	 esi
  00162	5b		 pop	 ebx
  00163	8b e5		 mov	 esp, ebp
  00165	5d		 pop	 ebp
  00166	c2 04 00	 ret	 4
?select_previous_weapon_event@@YGXPAUEVENT@@@Z ENDP	; select_previous_weapon_event
_TEXT	ENDS
; Function compile flags: /Odtp /ZI
; File c:\users\nhv90\projects\eech\aphavoc\source\events\ev_debug.c
;	COMDAT ?select_next_weapon_event@@YGXPAUEVENT@@@Z
_TEXT	SEGMENT
tv136 = -80						; size = 4
tv83 = -80						; size = 4
tv128 = -76						; size = 4
tv76 = -76						; size = 4
_weapon_sub_type$ = -8					; size = 4
_en$ = -4						; size = 4
_ev$ = 8						; size = 4
?select_next_weapon_event@@YGXPAUEVENT@@@Z PROC		; select_next_weapon_event, COMDAT

; 359  : {

  00000	55		 push	 ebp
  00001	8b ec		 mov	 ebp, esp
  00003	83 ec 50	 sub	 esp, 80			; 00000050H
  00006	53		 push	 ebx
  00007	56		 push	 esi
  00008	57		 push	 edi

; 360  : 	entity
; 361  : 		*en;
; 362  : 
; 363  : 	entity_sub_types
; 364  : 		weapon_sub_type;
; 365  : 
; 366  : 	if (in_cockpit)

  00009	83 3d 00 00 00
	00 00		 cmp	 DWORD PTR ?in_cockpit@@3HA, 0 ; in_cockpit
  00010	74 0a		 je	 SHORT $LN2@select_nex

; 367  : 	{
; 368  : 		en = get_gunship_entity ();

  00012	a1 00 00 00 00	 mov	 eax, DWORD PTR ?gunship_entity@@3PAUENTITY@@A ; gunship_entity
  00017	89 45 fc	 mov	 DWORD PTR _en$[ebp], eax

; 369  : 	}
; 370  : 	else

  0001a	eb 08		 jmp	 SHORT $LN3@select_nex
$LN2@select_nex:

; 371  : 	{
; 372  : 		en = get_external_view_entity ();

  0001c	e8 00 00 00 00	 call	 ?get_external_view_entity@@YGPAUENTITY@@XZ ; get_external_view_entity
  00021	89 45 fc	 mov	 DWORD PTR _en$[ebp], eax
$LN3@select_nex:

; 373  : 	}
; 374  : 
; 375  : 	if (en)

  00024	83 7d fc 00	 cmp	 DWORD PTR _en$[ebp], 0
  00028	0f 84 32 01 00
	00		 je	 $LN1@select_nex

; 376  : 	{
; 377  : 		weapon_sub_type = get_next_available_weapon_sub_type (en);

  0002e	8b 45 fc	 mov	 eax, DWORD PTR _en$[ebp]
  00031	50		 push	 eax
  00032	e8 00 00 00 00	 call	 ?get_next_available_weapon_sub_type@@YGHPAUENTITY@@@Z ; get_next_available_weapon_sub_type
  00037	89 45 f8	 mov	 DWORD PTR _weapon_sub_type$[ebp], eax

; 378  : 
; 379  : 		if (en == get_gunship_entity ())

  0003a	8b 45 fc	 mov	 eax, DWORD PTR _en$[ebp]
  0003d	3b 05 00 00 00
	00		 cmp	 eax, DWORD PTR ?gunship_entity@@3PAUENTITY@@A ; gunship_entity
  00043	75 0e		 jne	 SHORT $LN5@select_nex

; 380  : 		{
; 381  : 			set_gunship_weapon (weapon_sub_type);

  00045	8b 45 f8	 mov	 eax, DWORD PTR _weapon_sub_type$[ebp]
  00048	50		 push	 eax
  00049	e8 00 00 00 00	 call	 ?set_gunship_weapon@@YGXH@Z ; set_gunship_weapon

; 382  : 		}
; 383  : 		else

  0004e	e9 0d 01 00 00	 jmp	 $LN1@select_nex
$LN5@select_nex:

; 384  : 		{
; 385  : 			if (weapon_sub_type != get_local_entity_int_value (en, INT_TYPE_SELECTED_WEAPON))

  00053	83 7d fc 00	 cmp	 DWORD PTR _en$[ebp], 0
  00057	74 0a		 je	 SHORT $LN9@select_nex
  00059	8b 45 fc	 mov	 eax, DWORD PTR _en$[ebp]
  0005c	8b 08		 mov	 ecx, DWORD PTR [eax]
  0005e	89 4d b4	 mov	 DWORD PTR tv76[ebp], ecx
  00061	eb 1d		 jmp	 SHORT $LN10@select_nex
$LN9@select_nex:
  00063	68 81 01 00 00	 push	 385			; 00000181H
  00068	68 00 00 00 00	 push	 OFFSET ??_C@_0DO@EFGBNKOF@c?3?2users?2nhv90?2projects?2eech?2ap@
  0006d	8b 15 00 00 00
	00		 mov	 edx, DWORD PTR ?null_entity_pointer_message@@3PBDB ; null_entity_pointer_message
  00073	52		 push	 edx
  00074	e8 00 00 00 00	 call	 ?process_assert@@YGXPBD0H@Z ; process_assert
  00079	c7 45 b4 00 00
	00 00		 mov	 DWORD PTR tv76[ebp], 0
$LN10@select_nex:
  00080	b8 01 00 00 00	 mov	 eax, 1
  00085	85 c0		 test	 eax, eax
  00087	74 09		 je	 SHORT $LN11@select_nex
  00089	c7 45 b0 b8 00
	00 00		 mov	 DWORD PTR tv83[ebp], 184 ; 000000b8H
  00090	eb 1d		 jmp	 SHORT $LN12@select_nex
$LN11@select_nex:
  00092	68 81 01 00 00	 push	 385			; 00000181H
  00097	68 00 00 00 00	 push	 OFFSET ??_C@_0DO@EFGBNKOF@c?3?2users?2nhv90?2projects?2eech?2ap@
  0009c	8b 0d 00 00 00
	00		 mov	 ecx, DWORD PTR ?overload_invalid_int_type_message@@3PBDB ; overload_invalid_int_type_message
  000a2	51		 push	 ecx
  000a3	e8 00 00 00 00	 call	 ?process_assert@@YGXPBD0H@Z ; process_assert
  000a8	c7 45 b0 00 00
	00 00		 mov	 DWORD PTR tv83[ebp], 0
$LN12@select_nex:
  000af	68 b8 00 00 00	 push	 184			; 000000b8H
  000b4	8b 55 fc	 mov	 edx, DWORD PTR _en$[ebp]
  000b7	52		 push	 edx
  000b8	69 45 b4 5c 04
	00 00		 imul	 eax, DWORD PTR tv76[ebp], 1116
  000bf	8b 4d b0	 mov	 ecx, DWORD PTR tv83[ebp]
  000c2	8b 94 88 00 00
	00 00		 mov	 edx, DWORD PTR ?fn_get_local_entity_int_value@@3PAY0BBH@P6GHPAUENTITY@@W4INT_TYPES@@@ZA[eax+ecx*4]
  000c9	ff d2		 call	 edx
  000cb	39 45 f8	 cmp	 DWORD PTR _weapon_sub_type$[ebp], eax
  000ce	0f 84 8c 00 00
	00		 je	 $LN1@select_nex

; 386  : 			{
; 387  : 				set_client_server_entity_int_value (en, INT_TYPE_SELECTED_WEAPON, weapon_sub_type);

  000d4	83 7d fc 00	 cmp	 DWORD PTR _en$[ebp], 0
  000d8	74 0a		 je	 SHORT $LN13@select_nex
  000da	8b 45 fc	 mov	 eax, DWORD PTR _en$[ebp]
  000dd	8b 08		 mov	 ecx, DWORD PTR [eax]
  000df	89 4d b4	 mov	 DWORD PTR tv128[ebp], ecx
  000e2	eb 21		 jmp	 SHORT $LN14@select_nex
$LN13@select_nex:
  000e4	8b 15 00 00 00
	00		 mov	 edx, DWORD PTR ?__LINE__Var@?0??select_next_weapon_event@@YGXPAUEVENT@@@Z@4JA
  000ea	83 c2 1c	 add	 edx, 28			; 0000001cH
  000ed	52		 push	 edx
  000ee	68 00 00 00 00	 push	 OFFSET ??_C@_0DO@EFGBNKOF@c?3?2users?2nhv90?2projects?2eech?2ap@
  000f3	a1 00 00 00 00	 mov	 eax, DWORD PTR ?null_entity_pointer_message@@3PBDB ; null_entity_pointer_message
  000f8	50		 push	 eax
  000f9	e8 00 00 00 00	 call	 ?process_assert@@YGXPBD0H@Z ; process_assert
  000fe	c7 45 b4 00 00
	00 00		 mov	 DWORD PTR tv128[ebp], 0
$LN14@select_nex:
  00105	b9 01 00 00 00	 mov	 ecx, 1
  0010a	85 c9		 test	 ecx, ecx
  0010c	74 09		 je	 SHORT $LN15@select_nex
  0010e	c7 45 b0 b8 00
	00 00		 mov	 DWORD PTR tv136[ebp], 184 ; 000000b8H
  00115	eb 21		 jmp	 SHORT $LN16@select_nex
$LN15@select_nex:
  00117	8b 15 00 00 00
	00		 mov	 edx, DWORD PTR ?__LINE__Var@?0??select_next_weapon_event@@YGXPAUEVENT@@@Z@4JA
  0011d	83 c2 1c	 add	 edx, 28			; 0000001cH
  00120	52		 push	 edx
  00121	68 00 00 00 00	 push	 OFFSET ??_C@_0DO@EFGBNKOF@c?3?2users?2nhv90?2projects?2eech?2ap@
  00126	a1 00 00 00 00	 mov	 eax, DWORD PTR ?overload_invalid_int_type_message@@3PBDB ; overload_invalid_int_type_message
  0012b	50		 push	 eax
  0012c	e8 00 00 00 00	 call	 ?process_assert@@YGXPBD0H@Z ; process_assert
  00131	c7 45 b0 00 00
	00 00		 mov	 DWORD PTR tv136[ebp], 0
$LN16@select_nex:
  00138	8b 4d f8	 mov	 ecx, DWORD PTR _weapon_sub_type$[ebp]
  0013b	51		 push	 ecx
  0013c	68 b8 00 00 00	 push	 184			; 000000b8H
  00141	8b 55 fc	 mov	 edx, DWORD PTR _en$[ebp]
  00144	52		 push	 edx
  00145	69 45 b4 b8 08
	00 00		 imul	 eax, DWORD PTR tv128[ebp], 2232
  0014c	8b 4d b0	 mov	 ecx, DWORD PTR tv136[ebp]
  0014f	8d 94 c8 00 00
	00 00		 lea	 edx, DWORD PTR ?fn_set_client_server_entity_int_value@@3PAY1BBH@1P6GXPAUENTITY@@W4INT_TYPES@@H@ZA[eax+ecx*8]
  00156	a1 00 00 00 00	 mov	 eax, DWORD PTR ?system_comms_model@@3W4COMMS_MODEL_TYPES@@A ; system_comms_model
  0015b	8b 0c 82	 mov	 ecx, DWORD PTR [edx+eax*4]
  0015e	ff d1		 call	 ecx
$LN1@select_nex:

; 388  : 			}
; 389  : 		}
; 390  : 	}
; 391  : }

  00160	5f		 pop	 edi
  00161	5e		 pop	 esi
  00162	5b		 pop	 ebx
  00163	8b e5		 mov	 esp, ebp
  00165	5d		 pop	 ebp
  00166	c2 04 00	 ret	 4
?select_next_weapon_event@@YGXPAUEVENT@@@Z ENDP		; select_next_weapon_event
_TEXT	ENDS
; Function compile flags: /Odtp /ZI
; File c:\users\nhv90\projects\eech\aphavoc\source\events\ev_debug.c
;	COMDAT ?launch_persuer_weapon_event@@YGXPAUEVENT@@@Z
_TEXT	SEGMENT
tv201 = -84						; size = 4
tv176 = -84						; size = 4
tv155 = -84						; size = 4
tv132 = -84						; size = 4
tv81 = -84						; size = 4
tv193 = -80						; size = 4
tv168 = -80						; size = 4
tv148 = -80						; size = 4
tv93 = -80						; size = 4
tv73 = -80						; size = 4
_weapon_type$ = -12					; size = 4
_persuer$ = -8						; size = 4
_en$ = -4						; size = 4
_ev$ = 8						; size = 4
?launch_persuer_weapon_event@@YGXPAUEVENT@@@Z PROC	; launch_persuer_weapon_event, COMDAT

; 311  : {

  00000	55		 push	 ebp
  00001	8b ec		 mov	 ebp, esp
  00003	83 ec 54	 sub	 esp, 84			; 00000054H
  00006	53		 push	 ebx
  00007	56		 push	 esi
  00008	57		 push	 edi

; 312  : 	entity
; 313  : 		*en,
; 314  : 		*persuer;
; 315  : 
; 316  : 	entity_sub_types
; 317  : 		weapon_type;
; 318  : 
; 319  : 	if (in_cockpit)

  00009	83 3d 00 00 00
	00 00		 cmp	 DWORD PTR ?in_cockpit@@3HA, 0 ; in_cockpit
  00010	74 0a		 je	 SHORT $LN4@launch_per

; 320  : 	{
; 321  : 		en = get_gunship_entity ();

  00012	a1 00 00 00 00	 mov	 eax, DWORD PTR ?gunship_entity@@3PAUENTITY@@A ; gunship_entity
  00017	89 45 fc	 mov	 DWORD PTR _en$[ebp], eax

; 322  : 	}
; 323  : 	else

  0001a	eb 08		 jmp	 SHORT $LN5@launch_per
$LN4@launch_per:

; 324  : 	{
; 325  : 		en = get_external_view_entity ();

  0001c	e8 00 00 00 00	 call	 ?get_external_view_entity@@YGPAUENTITY@@XZ ; get_external_view_entity
  00021	89 45 fc	 mov	 DWORD PTR _en$[ebp], eax
$LN5@launch_per:

; 326  : 	}
; 327  : 
; 328  : 	if (en)

  00024	83 7d fc 00	 cmp	 DWORD PTR _en$[ebp], 0
  00028	0f 84 be 02 00
	00		 je	 $LN1@launch_per

; 329  : 	{
; 330  : 		persuer = get_local_entity_first_child (en, LIST_TYPE_TARGET);

  0002e	83 7d fc 00	 cmp	 DWORD PTR _en$[ebp], 0
  00032	74 0a		 je	 SHORT $LN11@launch_per
  00034	8b 45 fc	 mov	 eax, DWORD PTR _en$[ebp]
  00037	8b 08		 mov	 ecx, DWORD PTR [eax]
  00039	89 4d b0	 mov	 DWORD PTR tv73[ebp], ecx
  0003c	eb 21		 jmp	 SHORT $LN12@launch_per
$LN11@launch_per:
  0003e	8b 15 00 00 00
	00		 mov	 edx, DWORD PTR ?__LINE__Var@?0??launch_persuer_weapon_event@@YGXPAUEVENT@@@Z@4JA
  00044	83 c2 13	 add	 edx, 19			; 00000013H
  00047	52		 push	 edx
  00048	68 00 00 00 00	 push	 OFFSET ??_C@_0DO@EFGBNKOF@c?3?2users?2nhv90?2projects?2eech?2ap@
  0004d	a1 00 00 00 00	 mov	 eax, DWORD PTR ?null_entity_pointer_message@@3PBDB ; null_entity_pointer_message
  00052	50		 push	 eax
  00053	e8 00 00 00 00	 call	 ?process_assert@@YGXPBD0H@Z ; process_assert
  00058	c7 45 b0 00 00
	00 00		 mov	 DWORD PTR tv73[ebp], 0
$LN12@launch_per:
  0005f	b9 01 00 00 00	 mov	 ecx, 1
  00064	85 c9		 test	 ecx, ecx
  00066	74 09		 je	 SHORT $LN13@launch_per
  00068	c7 45 ac 26 00
	00 00		 mov	 DWORD PTR tv81[ebp], 38	; 00000026H
  0006f	eb 21		 jmp	 SHORT $LN14@launch_per
$LN13@launch_per:
  00071	8b 15 00 00 00
	00		 mov	 edx, DWORD PTR ?__LINE__Var@?0??launch_persuer_weapon_event@@YGXPAUEVENT@@@Z@4JA
  00077	83 c2 13	 add	 edx, 19			; 00000013H
  0007a	52		 push	 edx
  0007b	68 00 00 00 00	 push	 OFFSET ??_C@_0DO@EFGBNKOF@c?3?2users?2nhv90?2projects?2eech?2ap@
  00080	a1 00 00 00 00	 mov	 eax, DWORD PTR ?overload_invalid_list_type_message@@3PBDB ; overload_invalid_list_type_message
  00085	50		 push	 eax
  00086	e8 00 00 00 00	 call	 ?process_assert@@YGXPBD0H@Z ; process_assert
  0008b	c7 45 ac 00 00
	00 00		 mov	 DWORD PTR tv81[ebp], 0
$LN14@launch_per:
  00092	6a 26		 push	 38			; 00000026H
  00094	8b 4d fc	 mov	 ecx, DWORD PTR _en$[ebp]
  00097	51		 push	 ecx
  00098	69 55 b0 b4 00
	00 00		 imul	 edx, DWORD PTR tv73[ebp], 180
  0009f	8b 45 ac	 mov	 eax, DWORD PTR tv81[ebp]
  000a2	8b 8c 82 00 00
	00 00		 mov	 ecx, DWORD PTR ?fn_get_local_entity_first_child@@3PAY0CN@P6GPAUENTITY@@PAU1@W4LIST_TYPES@@@ZA[edx+eax*4]
  000a9	ff d1		 call	 ecx
  000ab	89 45 f8	 mov	 DWORD PTR _persuer$[ebp], eax
$LN2@launch_per:

; 331  : 
; 332  : 		while (persuer)

  000ae	83 7d f8 00	 cmp	 DWORD PTR _persuer$[ebp], 0
  000b2	0f 84 34 02 00
	00		 je	 $LN1@launch_per

; 333  : 		{
; 334  : 			if (get_local_entity_int_value (persuer, INT_TYPE_IDENTIFY_MOBILE))

  000b8	83 7d f8 00	 cmp	 DWORD PTR _persuer$[ebp], 0
  000bc	74 0a		 je	 SHORT $LN15@launch_per
  000be	8b 45 f8	 mov	 eax, DWORD PTR _persuer$[ebp]
  000c1	8b 08		 mov	 ecx, DWORD PTR [eax]
  000c3	89 4d b0	 mov	 DWORD PTR tv93[ebp], ecx
  000c6	eb 1d		 jmp	 SHORT $LN16@launch_per
$LN15@launch_per:
  000c8	68 4e 01 00 00	 push	 334			; 0000014eH
  000cd	68 00 00 00 00	 push	 OFFSET ??_C@_0DO@EFGBNKOF@c?3?2users?2nhv90?2projects?2eech?2ap@
  000d2	8b 15 00 00 00
	00		 mov	 edx, DWORD PTR ?null_entity_pointer_message@@3PBDB ; null_entity_pointer_message
  000d8	52		 push	 edx
  000d9	e8 00 00 00 00	 call	 ?process_assert@@YGXPBD0H@Z ; process_assert
  000de	c7 45 b0 00 00
	00 00		 mov	 DWORD PTR tv93[ebp], 0
$LN16@launch_per:
  000e5	b8 01 00 00 00	 mov	 eax, 1
  000ea	85 c0		 test	 eax, eax
  000ec	74 09		 je	 SHORT $LN17@launch_per
  000ee	c7 45 ac 5d 00
	00 00		 mov	 DWORD PTR tv132[ebp], 93 ; 0000005dH
  000f5	eb 1d		 jmp	 SHORT $LN18@launch_per
$LN17@launch_per:
  000f7	68 4e 01 00 00	 push	 334			; 0000014eH
  000fc	68 00 00 00 00	 push	 OFFSET ??_C@_0DO@EFGBNKOF@c?3?2users?2nhv90?2projects?2eech?2ap@
  00101	8b 0d 00 00 00
	00		 mov	 ecx, DWORD PTR ?overload_invalid_int_type_message@@3PBDB ; overload_invalid_int_type_message
  00107	51		 push	 ecx
  00108	e8 00 00 00 00	 call	 ?process_assert@@YGXPBD0H@Z ; process_assert
  0010d	c7 45 ac 00 00
	00 00		 mov	 DWORD PTR tv132[ebp], 0
$LN18@launch_per:
  00114	6a 5d		 push	 93			; 0000005dH
  00116	8b 55 f8	 mov	 edx, DWORD PTR _persuer$[ebp]
  00119	52		 push	 edx
  0011a	69 45 b0 5c 04
	00 00		 imul	 eax, DWORD PTR tv93[ebp], 1116
  00121	8b 4d ac	 mov	 ecx, DWORD PTR tv132[ebp]
  00124	8b 94 88 00 00
	00 00		 mov	 edx, DWORD PTR ?fn_get_local_entity_int_value@@3PAY0BBH@P6GHPAUENTITY@@W4INT_TYPES@@@ZA[eax+ecx*4]
  0012b	ff d2		 call	 edx
  0012d	85 c0		 test	 eax, eax
  0012f	0f 84 32 01 00
	00		 je	 $LN7@launch_per

; 335  : 			{
; 336  : 				weapon_type = get_best_weapon_for_target (persuer, en, BEST_WEAPON_CRITERIA_ALL);

  00135	6a 07		 push	 7
  00137	8b 45 fc	 mov	 eax, DWORD PTR _en$[ebp]
  0013a	50		 push	 eax
  0013b	8b 4d f8	 mov	 ecx, DWORD PTR _persuer$[ebp]
  0013e	51		 push	 ecx
  0013f	e8 00 00 00 00	 call	 ?get_best_weapon_for_target@@YGHPAUENTITY@@0I@Z ; get_best_weapon_for_target
  00144	89 45 f4	 mov	 DWORD PTR _weapon_type$[ebp], eax

; 337  : 
; 338  : 				if (weapon_type != get_local_entity_int_value (persuer, INT_TYPE_SELECTED_WEAPON))

  00147	83 7d f8 00	 cmp	 DWORD PTR _persuer$[ebp], 0
  0014b	74 0a		 je	 SHORT $LN19@launch_per
  0014d	8b 45 f8	 mov	 eax, DWORD PTR _persuer$[ebp]
  00150	8b 08		 mov	 ecx, DWORD PTR [eax]
  00152	89 4d b0	 mov	 DWORD PTR tv148[ebp], ecx
  00155	eb 1d		 jmp	 SHORT $LN20@launch_per
$LN19@launch_per:
  00157	68 52 01 00 00	 push	 338			; 00000152H
  0015c	68 00 00 00 00	 push	 OFFSET ??_C@_0DO@EFGBNKOF@c?3?2users?2nhv90?2projects?2eech?2ap@
  00161	8b 15 00 00 00
	00		 mov	 edx, DWORD PTR ?null_entity_pointer_message@@3PBDB ; null_entity_pointer_message
  00167	52		 push	 edx
  00168	e8 00 00 00 00	 call	 ?process_assert@@YGXPBD0H@Z ; process_assert
  0016d	c7 45 b0 00 00
	00 00		 mov	 DWORD PTR tv148[ebp], 0
$LN20@launch_per:
  00174	b8 01 00 00 00	 mov	 eax, 1
  00179	85 c0		 test	 eax, eax
  0017b	74 09		 je	 SHORT $LN21@launch_per
  0017d	c7 45 ac b8 00
	00 00		 mov	 DWORD PTR tv155[ebp], 184 ; 000000b8H
  00184	eb 1d		 jmp	 SHORT $LN22@launch_per
$LN21@launch_per:
  00186	68 52 01 00 00	 push	 338			; 00000152H
  0018b	68 00 00 00 00	 push	 OFFSET ??_C@_0DO@EFGBNKOF@c?3?2users?2nhv90?2projects?2eech?2ap@
  00190	8b 0d 00 00 00
	00		 mov	 ecx, DWORD PTR ?overload_invalid_int_type_message@@3PBDB ; overload_invalid_int_type_message
  00196	51		 push	 ecx
  00197	e8 00 00 00 00	 call	 ?process_assert@@YGXPBD0H@Z ; process_assert
  0019c	c7 45 ac 00 00
	00 00		 mov	 DWORD PTR tv155[ebp], 0
$LN22@launch_per:
  001a3	68 b8 00 00 00	 push	 184			; 000000b8H
  001a8	8b 55 f8	 mov	 edx, DWORD PTR _persuer$[ebp]
  001ab	52		 push	 edx
  001ac	69 45 b0 5c 04
	00 00		 imul	 eax, DWORD PTR tv148[ebp], 1116
  001b3	8b 4d ac	 mov	 ecx, DWORD PTR tv155[ebp]
  001b6	8b 94 88 00 00
	00 00		 mov	 edx, DWORD PTR ?fn_get_local_entity_int_value@@3PAY0BBH@P6GHPAUENTITY@@W4INT_TYPES@@@ZA[eax+ecx*4]
  001bd	ff d2		 call	 edx
  001bf	39 45 f4	 cmp	 DWORD PTR _weapon_type$[ebp], eax
  001c2	0f 84 8c 00 00
	00		 je	 $LN8@launch_per

; 339  : 				{
; 340  : 					set_client_server_entity_int_value (persuer, INT_TYPE_SELECTED_WEAPON, weapon_type);

  001c8	83 7d f8 00	 cmp	 DWORD PTR _persuer$[ebp], 0
  001cc	74 0a		 je	 SHORT $LN23@launch_per
  001ce	8b 45 f8	 mov	 eax, DWORD PTR _persuer$[ebp]
  001d1	8b 08		 mov	 ecx, DWORD PTR [eax]
  001d3	89 4d b0	 mov	 DWORD PTR tv168[ebp], ecx
  001d6	eb 21		 jmp	 SHORT $LN24@launch_per
$LN23@launch_per:
  001d8	8b 15 00 00 00
	00		 mov	 edx, DWORD PTR ?__LINE__Var@?0??launch_persuer_weapon_event@@YGXPAUEVENT@@@Z@4JA
  001de	83 c2 1d	 add	 edx, 29			; 0000001dH
  001e1	52		 push	 edx
  001e2	68 00 00 00 00	 push	 OFFSET ??_C@_0DO@EFGBNKOF@c?3?2users?2nhv90?2projects?2eech?2ap@
  001e7	a1 00 00 00 00	 mov	 eax, DWORD PTR ?null_entity_pointer_message@@3PBDB ; null_entity_pointer_message
  001ec	50		 push	 eax
  001ed	e8 00 00 00 00	 call	 ?process_assert@@YGXPBD0H@Z ; process_assert
  001f2	c7 45 b0 00 00
	00 00		 mov	 DWORD PTR tv168[ebp], 0
$LN24@launch_per:
  001f9	b9 01 00 00 00	 mov	 ecx, 1
  001fe	85 c9		 test	 ecx, ecx
  00200	74 09		 je	 SHORT $LN25@launch_per
  00202	c7 45 ac b8 00
	00 00		 mov	 DWORD PTR tv176[ebp], 184 ; 000000b8H
  00209	eb 21		 jmp	 SHORT $LN26@launch_per
$LN25@launch_per:
  0020b	8b 15 00 00 00
	00		 mov	 edx, DWORD PTR ?__LINE__Var@?0??launch_persuer_weapon_event@@YGXPAUEVENT@@@Z@4JA
  00211	83 c2 1d	 add	 edx, 29			; 0000001dH
  00214	52		 push	 edx
  00215	68 00 00 00 00	 push	 OFFSET ??_C@_0DO@EFGBNKOF@c?3?2users?2nhv90?2projects?2eech?2ap@
  0021a	a1 00 00 00 00	 mov	 eax, DWORD PTR ?overload_invalid_int_type_message@@3PBDB ; overload_invalid_int_type_message
  0021f	50		 push	 eax
  00220	e8 00 00 00 00	 call	 ?process_assert@@YGXPBD0H@Z ; process_assert
  00225	c7 45 ac 00 00
	00 00		 mov	 DWORD PTR tv176[ebp], 0
$LN26@launch_per:
  0022c	8b 4d f4	 mov	 ecx, DWORD PTR _weapon_type$[ebp]
  0022f	51		 push	 ecx
  00230	68 b8 00 00 00	 push	 184			; 000000b8H
  00235	8b 55 f8	 mov	 edx, DWORD PTR _persuer$[ebp]
  00238	52		 push	 edx
  00239	69 45 b0 b8 08
	00 00		 imul	 eax, DWORD PTR tv168[ebp], 2232
  00240	8b 4d ac	 mov	 ecx, DWORD PTR tv176[ebp]
  00243	8d 94 c8 00 00
	00 00		 lea	 edx, DWORD PTR ?fn_set_client_server_entity_int_value@@3PAY1BBH@1P6GXPAUENTITY@@W4INT_TYPES@@H@ZA[eax+ecx*8]
  0024a	a1 00 00 00 00	 mov	 eax, DWORD PTR ?system_comms_model@@3W4COMMS_MODEL_TYPES@@A ; system_comms_model
  0024f	8b 0c 82	 mov	 ecx, DWORD PTR [edx+eax*4]
  00252	ff d1		 call	 ecx
$LN8@launch_per:

; 341  : 				}
; 342  : 
; 343  : 				if (weapon_type != ENTITY_SUB_TYPE_WEAPON_NO_WEAPON)

  00254	83 7d f4 00	 cmp	 DWORD PTR _weapon_type$[ebp], 0
  00258	74 0d		 je	 SHORT $LN7@launch_per

; 344  : 				{
; 345  : 					launch_client_server_weapon (persuer, weapon_type);

  0025a	8b 45 f4	 mov	 eax, DWORD PTR _weapon_type$[ebp]
  0025d	50		 push	 eax
  0025e	8b 4d f8	 mov	 ecx, DWORD PTR _persuer$[ebp]
  00261	51		 push	 ecx
  00262	e8 00 00 00 00	 call	 ?launch_client_server_weapon@@YGXPAUENTITY@@H@Z ; launch_client_server_weapon
$LN7@launch_per:

; 346  : 				}
; 347  : 			}
; 348  : 
; 349  : 			persuer = get_local_entity_child_succ (persuer, LIST_TYPE_TARGET);

  00267	83 7d f8 00	 cmp	 DWORD PTR _persuer$[ebp], 0
  0026b	74 0a		 je	 SHORT $LN27@launch_per
  0026d	8b 45 f8	 mov	 eax, DWORD PTR _persuer$[ebp]
  00270	8b 08		 mov	 ecx, DWORD PTR [eax]
  00272	89 4d b0	 mov	 DWORD PTR tv193[ebp], ecx
  00275	eb 21		 jmp	 SHORT $LN28@launch_per
$LN27@launch_per:
  00277	8b 15 00 00 00
	00		 mov	 edx, DWORD PTR ?__LINE__Var@?0??launch_persuer_weapon_event@@YGXPAUEVENT@@@Z@4JA
  0027d	83 c2 26	 add	 edx, 38			; 00000026H
  00280	52		 push	 edx
  00281	68 00 00 00 00	 push	 OFFSET ??_C@_0DO@EFGBNKOF@c?3?2users?2nhv90?2projects?2eech?2ap@
  00286	a1 00 00 00 00	 mov	 eax, DWORD PTR ?null_entity_pointer_message@@3PBDB ; null_entity_pointer_message
  0028b	50		 push	 eax
  0028c	e8 00 00 00 00	 call	 ?process_assert@@YGXPBD0H@Z ; process_assert
  00291	c7 45 b0 00 00
	00 00		 mov	 DWORD PTR tv193[ebp], 0
$LN28@launch_per:
  00298	b9 01 00 00 00	 mov	 ecx, 1
  0029d	85 c9		 test	 ecx, ecx
  0029f	74 09		 je	 SHORT $LN29@launch_per
  002a1	c7 45 ac 26 00
	00 00		 mov	 DWORD PTR tv201[ebp], 38 ; 00000026H
  002a8	eb 21		 jmp	 SHORT $LN30@launch_per
$LN29@launch_per:
  002aa	8b 15 00 00 00
	00		 mov	 edx, DWORD PTR ?__LINE__Var@?0??launch_persuer_weapon_event@@YGXPAUEVENT@@@Z@4JA
  002b0	83 c2 26	 add	 edx, 38			; 00000026H
  002b3	52		 push	 edx
  002b4	68 00 00 00 00	 push	 OFFSET ??_C@_0DO@EFGBNKOF@c?3?2users?2nhv90?2projects?2eech?2ap@
  002b9	a1 00 00 00 00	 mov	 eax, DWORD PTR ?overload_invalid_list_type_message@@3PBDB ; overload_invalid_list_type_message
  002be	50		 push	 eax
  002bf	e8 00 00 00 00	 call	 ?process_assert@@YGXPBD0H@Z ; process_assert
  002c4	c7 45 ac 00 00
	00 00		 mov	 DWORD PTR tv201[ebp], 0
$LN30@launch_per:
  002cb	6a 26		 push	 38			; 00000026H
  002cd	8b 4d f8	 mov	 ecx, DWORD PTR _persuer$[ebp]
  002d0	51		 push	 ecx
  002d1	69 55 b0 b4 00
	00 00		 imul	 edx, DWORD PTR tv193[ebp], 180
  002d8	8b 45 ac	 mov	 eax, DWORD PTR tv201[ebp]
  002db	8b 8c 82 00 00
	00 00		 mov	 ecx, DWORD PTR ?fn_get_local_entity_child_succ@@3PAY0CN@P6GPAUENTITY@@PAU1@W4LIST_TYPES@@@ZA[edx+eax*4]
  002e2	ff d1		 call	 ecx
  002e4	89 45 f8	 mov	 DWORD PTR _persuer$[ebp], eax

; 350  : 		}

  002e7	e9 c2 fd ff ff	 jmp	 $LN2@launch_per
$LN1@launch_per:

; 351  : 	}
; 352  : }

  002ec	5f		 pop	 edi
  002ed	5e		 pop	 esi
  002ee	5b		 pop	 ebx
  002ef	8b e5		 mov	 esp, ebp
  002f1	5d		 pop	 ebp
  002f2	c2 04 00	 ret	 4
?launch_persuer_weapon_event@@YGXPAUEVENT@@@Z ENDP	; launch_persuer_weapon_event
_TEXT	ENDS
; Function compile flags: /Odtp /ZI
; File c:\users\nhv90\projects\eech\aphavoc\source\events\ev_debug.c
;	COMDAT ?launch_crate_event@@YGXPAUEVENT@@@Z
_TEXT	SEGMENT
_en$ = -4						; size = 4
_ev$ = 8						; size = 4
?launch_crate_event@@YGXPAUEVENT@@@Z PROC		; launch_crate_event, COMDAT

; 287  : {

  00000	55		 push	 ebp
  00001	8b ec		 mov	 ebp, esp
  00003	83 ec 44	 sub	 esp, 68			; 00000044H
  00006	53		 push	 ebx
  00007	56		 push	 esi
  00008	57		 push	 edi

; 288  : 	entity
; 289  : 		*en;
; 290  : 
; 291  : 	if (in_cockpit)

  00009	83 3d 00 00 00
	00 00		 cmp	 DWORD PTR ?in_cockpit@@3HA, 0 ; in_cockpit
  00010	74 0a		 je	 SHORT $LN2@launch_cra

; 292  : 	{
; 293  : 		en = get_gunship_entity ();

  00012	a1 00 00 00 00	 mov	 eax, DWORD PTR ?gunship_entity@@3PAUENTITY@@A ; gunship_entity
  00017	89 45 fc	 mov	 DWORD PTR _en$[ebp], eax

; 294  : 	}
; 295  : 	else

  0001a	eb 08		 jmp	 SHORT $LN3@launch_cra
$LN2@launch_cra:

; 296  : 	{
; 297  : 		en = get_external_view_entity ();

  0001c	e8 00 00 00 00	 call	 ?get_external_view_entity@@YGPAUENTITY@@XZ ; get_external_view_entity
  00021	89 45 fc	 mov	 DWORD PTR _en$[ebp], eax
$LN3@launch_cra:

; 298  : 	}
; 299  : 
; 300  : 	if (en)

  00024	83 7d fc 00	 cmp	 DWORD PTR _en$[ebp], 0
  00028	74 0b		 je	 SHORT $LN1@launch_cra

; 301  : 	{
; 302  : 		launch_client_server_weapon (en, ENTITY_SUB_TYPE_WEAPON_CRATE);

  0002a	6a 46		 push	 70			; 00000046H
  0002c	8b 45 fc	 mov	 eax, DWORD PTR _en$[ebp]
  0002f	50		 push	 eax
  00030	e8 00 00 00 00	 call	 ?launch_client_server_weapon@@YGXPAUENTITY@@H@Z ; launch_client_server_weapon
$LN1@launch_cra:

; 303  : 	}
; 304  : }

  00035	5f		 pop	 edi
  00036	5e		 pop	 esi
  00037	5b		 pop	 ebx
  00038	8b e5		 mov	 esp, ebp
  0003a	5d		 pop	 ebp
  0003b	c2 04 00	 ret	 4
?launch_crate_event@@YGXPAUEVENT@@@Z ENDP		; launch_crate_event
_TEXT	ENDS
; Function compile flags: /Odtp /ZI
; File c:\users\nhv90\projects\eech\aphavoc\source\events\ev_debug.c
;	COMDAT ?launch_smoke_grenade_event@@YGXPAUEVENT@@@Z
_TEXT	SEGMENT
_en$ = -4						; size = 4
_ev$ = 8						; size = 4
?launch_smoke_grenade_event@@YGXPAUEVENT@@@Z PROC	; launch_smoke_grenade_event, COMDAT

; 263  : {

  00000	55		 push	 ebp
  00001	8b ec		 mov	 ebp, esp
  00003	83 ec 44	 sub	 esp, 68			; 00000044H
  00006	53		 push	 ebx
  00007	56		 push	 esi
  00008	57		 push	 edi

; 264  : 	entity
; 265  : 		*en;
; 266  : 
; 267  : 	if (in_cockpit)

  00009	83 3d 00 00 00
	00 00		 cmp	 DWORD PTR ?in_cockpit@@3HA, 0 ; in_cockpit
  00010	74 0a		 je	 SHORT $LN2@launch_smo

; 268  : 	{
; 269  : 		en = get_gunship_entity ();

  00012	a1 00 00 00 00	 mov	 eax, DWORD PTR ?gunship_entity@@3PAUENTITY@@A ; gunship_entity
  00017	89 45 fc	 mov	 DWORD PTR _en$[ebp], eax

; 270  : 	}
; 271  : 	else

  0001a	eb 08		 jmp	 SHORT $LN3@launch_smo
$LN2@launch_smo:

; 272  : 	{
; 273  : 		en = get_external_view_entity ();

  0001c	e8 00 00 00 00	 call	 ?get_external_view_entity@@YGPAUENTITY@@XZ ; get_external_view_entity
  00021	89 45 fc	 mov	 DWORD PTR _en$[ebp], eax
$LN3@launch_smo:

; 274  : 	}
; 275  : 
; 276  : 	if (en)

  00024	83 7d fc 00	 cmp	 DWORD PTR _en$[ebp], 0
  00028	74 0b		 je	 SHORT $LN1@launch_smo

; 277  : 	{
; 278  : 		launch_client_server_weapon (en, ENTITY_SUB_TYPE_WEAPON_SMOKE_GRENADE);

  0002a	6a 45		 push	 69			; 00000045H
  0002c	8b 45 fc	 mov	 eax, DWORD PTR _en$[ebp]
  0002f	50		 push	 eax
  00030	e8 00 00 00 00	 call	 ?launch_client_server_weapon@@YGXPAUENTITY@@H@Z ; launch_client_server_weapon
$LN1@launch_smo:

; 279  : 	}
; 280  : }

  00035	5f		 pop	 edi
  00036	5e		 pop	 esi
  00037	5b		 pop	 ebx
  00038	8b e5		 mov	 esp, ebp
  0003a	5d		 pop	 ebp
  0003b	c2 04 00	 ret	 4
?launch_smoke_grenade_event@@YGXPAUEVENT@@@Z ENDP	; launch_smoke_grenade_event
_TEXT	ENDS
; Function compile flags: /Odtp /ZI
; File c:\users\nhv90\projects\eech\aphavoc\source\events\ev_debug.c
;	COMDAT ?launch_flare_event@@YGXPAUEVENT@@@Z
_TEXT	SEGMENT
_en$ = -4						; size = 4
_ev$ = 8						; size = 4
?launch_flare_event@@YGXPAUEVENT@@@Z PROC		; launch_flare_event, COMDAT

; 239  : {

  00000	55		 push	 ebp
  00001	8b ec		 mov	 ebp, esp
  00003	83 ec 44	 sub	 esp, 68			; 00000044H
  00006	53		 push	 ebx
  00007	56		 push	 esi
  00008	57		 push	 edi

; 240  : 	entity
; 241  : 		*en;
; 242  : 
; 243  : 	if (in_cockpit)

  00009	83 3d 00 00 00
	00 00		 cmp	 DWORD PTR ?in_cockpit@@3HA, 0 ; in_cockpit
  00010	74 0a		 je	 SHORT $LN2@launch_fla

; 244  : 	{
; 245  : 		en = get_gunship_entity ();

  00012	a1 00 00 00 00	 mov	 eax, DWORD PTR ?gunship_entity@@3PAUENTITY@@A ; gunship_entity
  00017	89 45 fc	 mov	 DWORD PTR _en$[ebp], eax

; 246  : 	}
; 247  : 	else

  0001a	eb 08		 jmp	 SHORT $LN3@launch_fla
$LN2@launch_fla:

; 248  : 	{
; 249  : 		en = get_external_view_entity ();

  0001c	e8 00 00 00 00	 call	 ?get_external_view_entity@@YGPAUENTITY@@XZ ; get_external_view_entity
  00021	89 45 fc	 mov	 DWORD PTR _en$[ebp], eax
$LN3@launch_fla:

; 250  : 	}
; 251  : 
; 252  : 	if (en)

  00024	83 7d fc 00	 cmp	 DWORD PTR _en$[ebp], 0
  00028	74 0b		 je	 SHORT $LN1@launch_fla

; 253  : 	{
; 254  : 		launch_client_server_weapon (en, ENTITY_SUB_TYPE_WEAPON_FLARE);

  0002a	6a 44		 push	 68			; 00000044H
  0002c	8b 45 fc	 mov	 eax, DWORD PTR _en$[ebp]
  0002f	50		 push	 eax
  00030	e8 00 00 00 00	 call	 ?launch_client_server_weapon@@YGXPAUENTITY@@H@Z ; launch_client_server_weapon
$LN1@launch_fla:

; 255  : 	}
; 256  : }

  00035	5f		 pop	 edi
  00036	5e		 pop	 esi
  00037	5b		 pop	 ebx
  00038	8b e5		 mov	 esp, ebp
  0003a	5d		 pop	 ebp
  0003b	c2 04 00	 ret	 4
?launch_flare_event@@YGXPAUEVENT@@@Z ENDP		; launch_flare_event
_TEXT	ENDS
; Function compile flags: /Odtp /ZI
; File c:\users\nhv90\projects\eech\aphavoc\source\events\ev_debug.c
;	COMDAT ?launch_chaff_event@@YGXPAUEVENT@@@Z
_TEXT	SEGMENT
_en$ = -4						; size = 4
_ev$ = 8						; size = 4
?launch_chaff_event@@YGXPAUEVENT@@@Z PROC		; launch_chaff_event, COMDAT

; 215  : {

  00000	55		 push	 ebp
  00001	8b ec		 mov	 ebp, esp
  00003	83 ec 44	 sub	 esp, 68			; 00000044H
  00006	53		 push	 ebx
  00007	56		 push	 esi
  00008	57		 push	 edi

; 216  : 	entity
; 217  : 		*en;
; 218  : 
; 219  : 	if (in_cockpit)

  00009	83 3d 00 00 00
	00 00		 cmp	 DWORD PTR ?in_cockpit@@3HA, 0 ; in_cockpit
  00010	74 0a		 je	 SHORT $LN2@launch_cha

; 220  : 	{
; 221  : 		en = get_gunship_entity ();

  00012	a1 00 00 00 00	 mov	 eax, DWORD PTR ?gunship_entity@@3PAUENTITY@@A ; gunship_entity
  00017	89 45 fc	 mov	 DWORD PTR _en$[ebp], eax

; 222  : 	}
; 223  : 	else

  0001a	eb 08		 jmp	 SHORT $LN3@launch_cha
$LN2@launch_cha:

; 224  : 	{
; 225  : 		en = get_external_view_entity ();

  0001c	e8 00 00 00 00	 call	 ?get_external_view_entity@@YGPAUENTITY@@XZ ; get_external_view_entity
  00021	89 45 fc	 mov	 DWORD PTR _en$[ebp], eax
$LN3@launch_cha:

; 226  : 	}
; 227  : 
; 228  : 	if (en)

  00024	83 7d fc 00	 cmp	 DWORD PTR _en$[ebp], 0
  00028	74 0b		 je	 SHORT $LN1@launch_cha

; 229  : 	{
; 230  : 		launch_client_server_weapon (en, ENTITY_SUB_TYPE_WEAPON_CHAFF);

  0002a	6a 43		 push	 67			; 00000043H
  0002c	8b 45 fc	 mov	 eax, DWORD PTR _en$[ebp]
  0002f	50		 push	 eax
  00030	e8 00 00 00 00	 call	 ?launch_client_server_weapon@@YGXPAUENTITY@@H@Z ; launch_client_server_weapon
$LN1@launch_cha:

; 231  : 	}
; 232  : }

  00035	5f		 pop	 edi
  00036	5e		 pop	 esi
  00037	5b		 pop	 ebx
  00038	8b e5		 mov	 esp, ebp
  0003a	5d		 pop	 ebp
  0003b	c2 04 00	 ret	 4
?launch_chaff_event@@YGXPAUEVENT@@@Z ENDP		; launch_chaff_event
_TEXT	ENDS
; Function compile flags: /Odtp /ZI
; File c:\users\nhv90\projects\eech\aphavoc\source\events\ev_debug.c
;	COMDAT ?launch_weapon_event@@YGXPAUEVENT@@@Z
_TEXT	SEGMENT
tv81 = -76						; size = 4
tv73 = -72						; size = 4
_en$ = -4						; size = 4
_ev$ = 8						; size = 4
?launch_weapon_event@@YGXPAUEVENT@@@Z PROC		; launch_weapon_event, COMDAT

; 191  : {

  00000	55		 push	 ebp
  00001	8b ec		 mov	 ebp, esp
  00003	83 ec 4c	 sub	 esp, 76			; 0000004cH
  00006	53		 push	 ebx
  00007	56		 push	 esi
  00008	57		 push	 edi

; 192  : 	entity
; 193  : 		*en;
; 194  : 
; 195  : 	if (in_cockpit)

  00009	83 3d 00 00 00
	00 00		 cmp	 DWORD PTR ?in_cockpit@@3HA, 0 ; in_cockpit
  00010	74 0a		 je	 SHORT $LN2@launch_wea

; 196  : 	{
; 197  : 		en = get_gunship_entity ();

  00012	a1 00 00 00 00	 mov	 eax, DWORD PTR ?gunship_entity@@3PAUENTITY@@A ; gunship_entity
  00017	89 45 fc	 mov	 DWORD PTR _en$[ebp], eax

; 198  : 	}
; 199  : 	else

  0001a	eb 08		 jmp	 SHORT $LN3@launch_wea
$LN2@launch_wea:

; 200  : 	{
; 201  : 		en = get_external_view_entity ();

  0001c	e8 00 00 00 00	 call	 ?get_external_view_entity@@YGPAUENTITY@@XZ ; get_external_view_entity
  00021	89 45 fc	 mov	 DWORD PTR _en$[ebp], eax
$LN3@launch_wea:

; 202  : 	}
; 203  : 
; 204  : 	if (en)

  00024	83 7d fc 00	 cmp	 DWORD PTR _en$[ebp], 0
  00028	0f 84 8a 00 00
	00		 je	 $LN1@launch_wea

; 205  : 	{
; 206  : 		launch_client_server_weapon (en, get_local_entity_int_value (en, INT_TYPE_SELECTED_WEAPON));

  0002e	83 7d fc 00	 cmp	 DWORD PTR _en$[ebp], 0
  00032	74 0a		 je	 SHORT $LN6@launch_wea
  00034	8b 45 fc	 mov	 eax, DWORD PTR _en$[ebp]
  00037	8b 08		 mov	 ecx, DWORD PTR [eax]
  00039	89 4d b8	 mov	 DWORD PTR tv73[ebp], ecx
  0003c	eb 21		 jmp	 SHORT $LN7@launch_wea
$LN6@launch_wea:
  0003e	8b 15 00 00 00
	00		 mov	 edx, DWORD PTR ?__LINE__Var@?0??launch_weapon_event@@YGXPAUEVENT@@@Z@4JA
  00044	83 c2 0f	 add	 edx, 15			; 0000000fH
  00047	52		 push	 edx
  00048	68 00 00 00 00	 push	 OFFSET ??_C@_0DO@EFGBNKOF@c?3?2users?2nhv90?2projects?2eech?2ap@
  0004d	a1 00 00 00 00	 mov	 eax, DWORD PTR ?null_entity_pointer_message@@3PBDB ; null_entity_pointer_message
  00052	50		 push	 eax
  00053	e8 00 00 00 00	 call	 ?process_assert@@YGXPBD0H@Z ; process_assert
  00058	c7 45 b8 00 00
	00 00		 mov	 DWORD PTR tv73[ebp], 0
$LN7@launch_wea:
  0005f	b9 01 00 00 00	 mov	 ecx, 1
  00064	85 c9		 test	 ecx, ecx
  00066	74 09		 je	 SHORT $LN8@launch_wea
  00068	c7 45 b4 b8 00
	00 00		 mov	 DWORD PTR tv81[ebp], 184 ; 000000b8H
  0006f	eb 21		 jmp	 SHORT $LN9@launch_wea
$LN8@launch_wea:
  00071	8b 15 00 00 00
	00		 mov	 edx, DWORD PTR ?__LINE__Var@?0??launch_weapon_event@@YGXPAUEVENT@@@Z@4JA
  00077	83 c2 0f	 add	 edx, 15			; 0000000fH
  0007a	52		 push	 edx
  0007b	68 00 00 00 00	 push	 OFFSET ??_C@_0DO@EFGBNKOF@c?3?2users?2nhv90?2projects?2eech?2ap@
  00080	a1 00 00 00 00	 mov	 eax, DWORD PTR ?overload_invalid_int_type_message@@3PBDB ; overload_invalid_int_type_message
  00085	50		 push	 eax
  00086	e8 00 00 00 00	 call	 ?process_assert@@YGXPBD0H@Z ; process_assert
  0008b	c7 45 b4 00 00
	00 00		 mov	 DWORD PTR tv81[ebp], 0
$LN9@launch_wea:
  00092	68 b8 00 00 00	 push	 184			; 000000b8H
  00097	8b 4d fc	 mov	 ecx, DWORD PTR _en$[ebp]
  0009a	51		 push	 ecx
  0009b	69 55 b8 5c 04
	00 00		 imul	 edx, DWORD PTR tv73[ebp], 1116
  000a2	8b 45 b4	 mov	 eax, DWORD PTR tv81[ebp]
  000a5	8b 8c 82 00 00
	00 00		 mov	 ecx, DWORD PTR ?fn_get_local_entity_int_value@@3PAY0BBH@P6GHPAUENTITY@@W4INT_TYPES@@@ZA[edx+eax*4]
  000ac	ff d1		 call	 ecx
  000ae	50		 push	 eax
  000af	8b 55 fc	 mov	 edx, DWORD PTR _en$[ebp]
  000b2	52		 push	 edx
  000b3	e8 00 00 00 00	 call	 ?launch_client_server_weapon@@YGXPAUENTITY@@H@Z ; launch_client_server_weapon
$LN1@launch_wea:

; 207  : 	}
; 208  : }

  000b8	5f		 pop	 edi
  000b9	5e		 pop	 esi
  000ba	5b		 pop	 ebx
  000bb	8b e5		 mov	 esp, ebp
  000bd	5d		 pop	 ebp
  000be	c2 04 00	 ret	 4
?launch_weapon_event@@YGXPAUEVENT@@@Z ENDP		; launch_weapon_event
_TEXT	ENDS
; Function compile flags: /Odtp /ZI
; File c:\users\nhv90\projects\eech\aphavoc\source\events\ev_debug.c
;	COMDAT ?toggle_infinite_weapons_event@@YGXPAUEVENT@@@Z
_TEXT	SEGMENT
tv159 = -72						; size = 4
tv135 = -72						; size = 4
tv82 = -72						; size = 4
tv151 = -68						; size = 4
tv95 = -68						; size = 4
tv75 = -68						; size = 4
_ev$ = 8						; size = 4
?toggle_infinite_weapons_event@@YGXPAUEVENT@@@Z PROC	; toggle_infinite_weapons_event, COMDAT

; 166  : {

  00000	55		 push	 ebp
  00001	8b ec		 mov	 ebp, esp
  00003	83 ec 48	 sub	 esp, 72			; 00000048H
  00006	53		 push	 ebx
  00007	56		 push	 esi
  00008	57		 push	 edi

; 167  : 	ASSERT (get_session_entity ());

  00009	83 3d 00 00 00
	00 00		 cmp	 DWORD PTR ?session_entity@@3PAUENTITY@@A, 0 ; session_entity
  00010	75 18		 jne	 SHORT $LN2@toggle_inf
  00012	a1 00 00 00 00	 mov	 eax, DWORD PTR ?__LINE__Var@?0??toggle_infinite_weapons_event@@YGXPAUEVENT@@@Z@4JA
  00017	83 c0 01	 add	 eax, 1
  0001a	50		 push	 eax
  0001b	68 00 00 00 00	 push	 OFFSET ??_C@_0DO@EFGBNKOF@c?3?2users?2nhv90?2projects?2eech?2ap@
  00020	68 00 00 00 00	 push	 OFFSET ??_C@_0BG@EFCJJKAA@get_session_entity?5?$CI?$CJ@
  00025	e8 00 00 00 00	 call	 ?process_assert@@YGXPBD0H@Z ; process_assert
$LN2@toggle_inf:

; 168  : 
; 169  : 	if (get_comms_model () == COMMS_MODEL_SERVER)

  0002a	83 3d 00 00 00
	00 00		 cmp	 DWORD PTR ?system_comms_model@@3W4COMMS_MODEL_TYPES@@A, 0 ; system_comms_model
  00031	0f 85 c8 01 00
	00		 jne	 $LN1@toggle_inf

; 170  : 	{
; 171  : 		if (get_local_entity_int_value (get_session_entity (), INT_TYPE_INFINITE_WEAPONS))

  00037	83 3d 00 00 00
	00 00		 cmp	 DWORD PTR ?session_entity@@3PAUENTITY@@A, 0 ; session_entity
  0003e	74 0c		 je	 SHORT $LN7@toggle_inf
  00040	a1 00 00 00 00	 mov	 eax, DWORD PTR ?session_entity@@3PAUENTITY@@A ; session_entity
  00045	8b 08		 mov	 ecx, DWORD PTR [eax]
  00047	89 4d bc	 mov	 DWORD PTR tv75[ebp], ecx
  0004a	eb 1d		 jmp	 SHORT $LN8@toggle_inf
$LN7@toggle_inf:
  0004c	68 ab 00 00 00	 push	 171			; 000000abH
  00051	68 00 00 00 00	 push	 OFFSET ??_C@_0DO@EFGBNKOF@c?3?2users?2nhv90?2projects?2eech?2ap@
  00056	8b 15 00 00 00
	00		 mov	 edx, DWORD PTR ?null_entity_pointer_message@@3PBDB ; null_entity_pointer_message
  0005c	52		 push	 edx
  0005d	e8 00 00 00 00	 call	 ?process_assert@@YGXPBD0H@Z ; process_assert
  00062	c7 45 bc 00 00
	00 00		 mov	 DWORD PTR tv75[ebp], 0
$LN8@toggle_inf:
  00069	b8 01 00 00 00	 mov	 eax, 1
  0006e	85 c0		 test	 eax, eax
  00070	74 09		 je	 SHORT $LN9@toggle_inf
  00072	c7 45 b8 67 00
	00 00		 mov	 DWORD PTR tv82[ebp], 103 ; 00000067H
  00079	eb 1d		 jmp	 SHORT $LN10@toggle_inf
$LN9@toggle_inf:
  0007b	68 ab 00 00 00	 push	 171			; 000000abH
  00080	68 00 00 00 00	 push	 OFFSET ??_C@_0DO@EFGBNKOF@c?3?2users?2nhv90?2projects?2eech?2ap@
  00085	8b 0d 00 00 00
	00		 mov	 ecx, DWORD PTR ?overload_invalid_int_type_message@@3PBDB ; overload_invalid_int_type_message
  0008b	51		 push	 ecx
  0008c	e8 00 00 00 00	 call	 ?process_assert@@YGXPBD0H@Z ; process_assert
  00091	c7 45 b8 00 00
	00 00		 mov	 DWORD PTR tv82[ebp], 0
$LN10@toggle_inf:
  00098	6a 67		 push	 103			; 00000067H
  0009a	8b 15 00 00 00
	00		 mov	 edx, DWORD PTR ?session_entity@@3PAUENTITY@@A ; session_entity
  000a0	52		 push	 edx
  000a1	69 45 bc 5c 04
	00 00		 imul	 eax, DWORD PTR tv75[ebp], 1116
  000a8	8b 4d b8	 mov	 ecx, DWORD PTR tv82[ebp]
  000ab	8b 94 88 00 00
	00 00		 mov	 edx, DWORD PTR ?fn_get_local_entity_int_value@@3PAY0BBH@P6GHPAUENTITY@@W4INT_TYPES@@@ZA[eax+ecx*4]
  000b2	ff d2		 call	 edx
  000b4	85 c0		 test	 eax, eax
  000b6	0f 84 a4 00 00
	00		 je	 $LN4@toggle_inf

; 172  : 		{
; 173  : 			set_client_server_entity_int_value (get_session_entity (), INT_TYPE_INFINITE_WEAPONS, FALSE);

  000bc	83 3d 00 00 00
	00 00		 cmp	 DWORD PTR ?session_entity@@3PAUENTITY@@A, 0 ; session_entity
  000c3	74 0c		 je	 SHORT $LN11@toggle_inf
  000c5	a1 00 00 00 00	 mov	 eax, DWORD PTR ?session_entity@@3PAUENTITY@@A ; session_entity
  000ca	8b 08		 mov	 ecx, DWORD PTR [eax]
  000cc	89 4d bc	 mov	 DWORD PTR tv95[ebp], ecx
  000cf	eb 21		 jmp	 SHORT $LN12@toggle_inf
$LN11@toggle_inf:
  000d1	8b 15 00 00 00
	00		 mov	 edx, DWORD PTR ?__LINE__Var@?0??toggle_infinite_weapons_event@@YGXPAUEVENT@@@Z@4JA
  000d7	83 c2 07	 add	 edx, 7
  000da	52		 push	 edx
  000db	68 00 00 00 00	 push	 OFFSET ??_C@_0DO@EFGBNKOF@c?3?2users?2nhv90?2projects?2eech?2ap@
  000e0	a1 00 00 00 00	 mov	 eax, DWORD PTR ?null_entity_pointer_message@@3PBDB ; null_entity_pointer_message
  000e5	50		 push	 eax
  000e6	e8 00 00 00 00	 call	 ?process_assert@@YGXPBD0H@Z ; process_assert
  000eb	c7 45 bc 00 00
	00 00		 mov	 DWORD PTR tv95[ebp], 0
$LN12@toggle_inf:
  000f2	b9 01 00 00 00	 mov	 ecx, 1
  000f7	85 c9		 test	 ecx, ecx
  000f9	74 09		 je	 SHORT $LN13@toggle_inf
  000fb	c7 45 b8 67 00
	00 00		 mov	 DWORD PTR tv135[ebp], 103 ; 00000067H
  00102	eb 21		 jmp	 SHORT $LN14@toggle_inf
$LN13@toggle_inf:
  00104	8b 15 00 00 00
	00		 mov	 edx, DWORD PTR ?__LINE__Var@?0??toggle_infinite_weapons_event@@YGXPAUEVENT@@@Z@4JA
  0010a	83 c2 07	 add	 edx, 7
  0010d	52		 push	 edx
  0010e	68 00 00 00 00	 push	 OFFSET ??_C@_0DO@EFGBNKOF@c?3?2users?2nhv90?2projects?2eech?2ap@
  00113	a1 00 00 00 00	 mov	 eax, DWORD PTR ?overload_invalid_int_type_message@@3PBDB ; overload_invalid_int_type_message
  00118	50		 push	 eax
  00119	e8 00 00 00 00	 call	 ?process_assert@@YGXPBD0H@Z ; process_assert
  0011e	c7 45 b8 00 00
	00 00		 mov	 DWORD PTR tv135[ebp], 0
$LN14@toggle_inf:
  00125	6a 00		 push	 0
  00127	6a 67		 push	 103			; 00000067H
  00129	8b 0d 00 00 00
	00		 mov	 ecx, DWORD PTR ?session_entity@@3PAUENTITY@@A ; session_entity
  0012f	51		 push	 ecx
  00130	69 55 bc b8 08
	00 00		 imul	 edx, DWORD PTR tv95[ebp], 2232
  00137	8b 45 b8	 mov	 eax, DWORD PTR tv135[ebp]
  0013a	8d 8c c2 00 00
	00 00		 lea	 ecx, DWORD PTR ?fn_set_client_server_entity_int_value@@3PAY1BBH@1P6GXPAUENTITY@@W4INT_TYPES@@H@ZA[edx+eax*8]
  00141	8b 15 00 00 00
	00		 mov	 edx, DWORD PTR ?system_comms_model@@3W4COMMS_MODEL_TYPES@@A ; system_comms_model
  00147	8b 04 91	 mov	 eax, DWORD PTR [ecx+edx*4]
  0014a	ff d0		 call	 eax

; 174  : 
; 175  : 			debug_colour_log (DEBUG_COLOUR_AMBER, "Disable infinite weapons");

  0014c	68 00 00 00 00	 push	 OFFSET ??_C@_0BJ@BINGEAIK@Disable?5infinite?5weapons@
  00151	6a 17		 push	 23			; 00000017H
  00153	e8 00 00 00 00	 call	 ?debug_colour_log@@YAXW4DEBUG_COLOURS@@PBDZZ ; debug_colour_log
  00158	83 c4 08	 add	 esp, 8

; 176  : 		}
; 177  : 		else

  0015b	e9 9f 00 00 00	 jmp	 $LN1@toggle_inf
$LN4@toggle_inf:

; 178  : 		{
; 179  : 			set_client_server_entity_int_value (get_session_entity (), INT_TYPE_INFINITE_WEAPONS, TRUE);

  00160	83 3d 00 00 00
	00 00		 cmp	 DWORD PTR ?session_entity@@3PAUENTITY@@A, 0 ; session_entity
  00167	74 0c		 je	 SHORT $LN15@toggle_inf
  00169	a1 00 00 00 00	 mov	 eax, DWORD PTR ?session_entity@@3PAUENTITY@@A ; session_entity
  0016e	8b 08		 mov	 ecx, DWORD PTR [eax]
  00170	89 4d bc	 mov	 DWORD PTR tv151[ebp], ecx
  00173	eb 21		 jmp	 SHORT $LN16@toggle_inf
$LN15@toggle_inf:
  00175	8b 15 00 00 00
	00		 mov	 edx, DWORD PTR ?__LINE__Var@?0??toggle_infinite_weapons_event@@YGXPAUEVENT@@@Z@4JA
  0017b	83 c2 0d	 add	 edx, 13			; 0000000dH
  0017e	52		 push	 edx
  0017f	68 00 00 00 00	 push	 OFFSET ??_C@_0DO@EFGBNKOF@c?3?2users?2nhv90?2projects?2eech?2ap@
  00184	a1 00 00 00 00	 mov	 eax, DWORD PTR ?null_entity_pointer_message@@3PBDB ; null_entity_pointer_message
  00189	50		 push	 eax
  0018a	e8 00 00 00 00	 call	 ?process_assert@@YGXPBD0H@Z ; process_assert
  0018f	c7 45 bc 00 00
	00 00		 mov	 DWORD PTR tv151[ebp], 0
$LN16@toggle_inf:
  00196	b9 01 00 00 00	 mov	 ecx, 1
  0019b	85 c9		 test	 ecx, ecx
  0019d	74 09		 je	 SHORT $LN17@toggle_inf
  0019f	c7 45 b8 67 00
	00 00		 mov	 DWORD PTR tv159[ebp], 103 ; 00000067H
  001a6	eb 21		 jmp	 SHORT $LN18@toggle_inf
$LN17@toggle_inf:
  001a8	8b 15 00 00 00
	00		 mov	 edx, DWORD PTR ?__LINE__Var@?0??toggle_infinite_weapons_event@@YGXPAUEVENT@@@Z@4JA
  001ae	83 c2 0d	 add	 edx, 13			; 0000000dH
  001b1	52		 push	 edx
  001b2	68 00 00 00 00	 push	 OFFSET ??_C@_0DO@EFGBNKOF@c?3?2users?2nhv90?2projects?2eech?2ap@
  001b7	a1 00 00 00 00	 mov	 eax, DWORD PTR ?overload_invalid_int_type_message@@3PBDB ; overload_invalid_int_type_message
  001bc	50		 push	 eax
  001bd	e8 00 00 00 00	 call	 ?process_assert@@YGXPBD0H@Z ; process_assert
  001c2	c7 45 b8 00 00
	00 00		 mov	 DWORD PTR tv159[ebp], 0
$LN18@toggle_inf:
  001c9	6a 01		 push	 1
  001cb	6a 67		 push	 103			; 00000067H
  001cd	8b 0d 00 00 00
	00		 mov	 ecx, DWORD PTR ?session_entity@@3PAUENTITY@@A ; session_entity
  001d3	51		 push	 ecx
  001d4	69 55 bc b8 08
	00 00		 imul	 edx, DWORD PTR tv151[ebp], 2232
  001db	8b 45 b8	 mov	 eax, DWORD PTR tv159[ebp]
  001de	8d 8c c2 00 00
	00 00		 lea	 ecx, DWORD PTR ?fn_set_client_server_entity_int_value@@3PAY1BBH@1P6GXPAUENTITY@@W4INT_TYPES@@H@ZA[edx+eax*8]
  001e5	8b 15 00 00 00
	00		 mov	 edx, DWORD PTR ?system_comms_model@@3W4COMMS_MODEL_TYPES@@A ; system_comms_model
  001eb	8b 04 91	 mov	 eax, DWORD PTR [ecx+edx*4]
  001ee	ff d0		 call	 eax

; 180  : 
; 181  : 			debug_colour_log (DEBUG_COLOUR_AMBER, "Enable infinite weapons");

  001f0	68 00 00 00 00	 push	 OFFSET ??_C@_0BI@MNHBIHJB@Enable?5infinite?5weapons@
  001f5	6a 17		 push	 23			; 00000017H
  001f7	e8 00 00 00 00	 call	 ?debug_colour_log@@YAXW4DEBUG_COLOURS@@PBDZZ ; debug_colour_log
  001fc	83 c4 08	 add	 esp, 8
$LN1@toggle_inf:

; 182  : 		}
; 183  : 	}
; 184  : }

  001ff	5f		 pop	 edi
  00200	5e		 pop	 esi
  00201	5b		 pop	 ebx
  00202	8b e5		 mov	 esp, ebp
  00204	5d		 pop	 ebp
  00205	c2 04 00	 ret	 4
?toggle_infinite_weapons_event@@YGXPAUEVENT@@@Z ENDP	; toggle_infinite_weapons_event
_TEXT	ENDS
; Function compile flags: /Odtp /ZI
; File c:\users\nhv90\projects\eech\aphavoc\source\events\ev_debug.c
;	COMDAT ?toggle_in_flight_external_view_entity_weapon_info_event@@YGXPAUEVENT@@@Z
_TEXT	SEGMENT
_ev$ = 8						; size = 4
?toggle_in_flight_external_view_entity_weapon_info_event@@YGXPAUEVENT@@@Z PROC ; toggle_in_flight_external_view_entity_weapon_info_event, COMDAT

; 157  : {

  00000	55		 push	 ebp
  00001	8b ec		 mov	 ebp, esp
  00003	83 ec 40	 sub	 esp, 64			; 00000040H
  00006	53		 push	 ebx
  00007	56		 push	 esi
  00008	57		 push	 edi

; 158  : 	in_flight_external_view_entity_weapon_info ^= 1;

  00009	a1 00 00 00 00	 mov	 eax, DWORD PTR ?in_flight_external_view_entity_weapon_info@@3HA ; in_flight_external_view_entity_weapon_info
  0000e	83 f0 01	 xor	 eax, 1
  00011	a3 00 00 00 00	 mov	 DWORD PTR ?in_flight_external_view_entity_weapon_info@@3HA, eax ; in_flight_external_view_entity_weapon_info

; 159  : }

  00016	5f		 pop	 edi
  00017	5e		 pop	 esi
  00018	5b		 pop	 ebx
  00019	8b e5		 mov	 esp, ebp
  0001b	5d		 pop	 ebp
  0001c	c2 04 00	 ret	 4
?toggle_in_flight_external_view_entity_weapon_info_event@@YGXPAUEVENT@@@Z ENDP ; toggle_in_flight_external_view_entity_weapon_info_event
_TEXT	ENDS
; Function compile flags: /Odtp /ZI
; File c:\users\nhv90\projects\eech\aphavoc\source\events\ev_debug.c
;	COMDAT ?toggle_in_flight_gunship_target_list_info_event@@YGXPAUEVENT@@@Z
_TEXT	SEGMENT
_ev$ = 8						; size = 4
?toggle_in_flight_gunship_target_list_info_event@@YGXPAUEVENT@@@Z PROC ; toggle_in_flight_gunship_target_list_info_event, COMDAT

; 142  : {

  00000	55		 push	 ebp
  00001	8b ec		 mov	 ebp, esp
  00003	83 ec 40	 sub	 esp, 64			; 00000040H
  00006	53		 push	 ebx
  00007	56		 push	 esi
  00008	57		 push	 edi

; 143  : 	in_flight_gunship_target_list_info ^= 1;

  00009	a1 00 00 00 00	 mov	 eax, DWORD PTR ?in_flight_gunship_target_list_info@@3HA ; in_flight_gunship_target_list_info
  0000e	83 f0 01	 xor	 eax, 1
  00011	a3 00 00 00 00	 mov	 DWORD PTR ?in_flight_gunship_target_list_info@@3HA, eax ; in_flight_gunship_target_list_info

; 144  : }

  00016	5f		 pop	 edi
  00017	5e		 pop	 esi
  00018	5b		 pop	 ebx
  00019	8b e5		 mov	 esp, ebp
  0001b	5d		 pop	 ebp
  0001c	c2 04 00	 ret	 4
?toggle_in_flight_gunship_target_list_info_event@@YGXPAUEVENT@@@Z ENDP ; toggle_in_flight_gunship_target_list_info_event
_TEXT	ENDS
; Function compile flags: /Odtp /ZI
; File c:\users\nhv90\projects\eech\aphavoc\source\events\ev_debug.c
;	COMDAT ?toggle_in_flight_external_view_entity_guide_info_event@@YGXPAUEVENT@@@Z
_TEXT	SEGMENT
_ev$ = 8						; size = 4
?toggle_in_flight_external_view_entity_guide_info_event@@YGXPAUEVENT@@@Z PROC ; toggle_in_flight_external_view_entity_guide_info_event, COMDAT

; 133  : {

  00000	55		 push	 ebp
  00001	8b ec		 mov	 ebp, esp
  00003	83 ec 40	 sub	 esp, 64			; 00000040H
  00006	53		 push	 ebx
  00007	56		 push	 esi
  00008	57		 push	 edi

; 134  : 	in_flight_external_view_entity_guide_info ^= 1;

  00009	a1 00 00 00 00	 mov	 eax, DWORD PTR ?in_flight_external_view_entity_guide_info@@3HA ; in_flight_external_view_entity_guide_info
  0000e	83 f0 01	 xor	 eax, 1
  00011	a3 00 00 00 00	 mov	 DWORD PTR ?in_flight_external_view_entity_guide_info@@3HA, eax ; in_flight_external_view_entity_guide_info

; 135  : }

  00016	5f		 pop	 edi
  00017	5e		 pop	 esi
  00018	5b		 pop	 ebx
  00019	8b e5		 mov	 esp, ebp
  0001b	5d		 pop	 ebp
  0001c	c2 04 00	 ret	 4
?toggle_in_flight_external_view_entity_guide_info_event@@YGXPAUEVENT@@@Z ENDP ; toggle_in_flight_external_view_entity_guide_info_event
_TEXT	ENDS
; Function compile flags: /Odtp /ZI
; File c:\users\nhv90\projects\eech\aphavoc\source\events\ev_debug.c
;	COMDAT ?toggle_in_flight_external_view_entity_debug_task_info_event@@YGXPAUEVENT@@@Z
_TEXT	SEGMENT
_ev$ = 8						; size = 4
?toggle_in_flight_external_view_entity_debug_task_info_event@@YGXPAUEVENT@@@Z PROC ; toggle_in_flight_external_view_entity_debug_task_info_event, COMDAT

; 124  : {

  00000	55		 push	 ebp
  00001	8b ec		 mov	 ebp, esp
  00003	83 ec 40	 sub	 esp, 64			; 00000040H
  00006	53		 push	 ebx
  00007	56		 push	 esi
  00008	57		 push	 edi

; 125  : 	in_flight_external_view_entity_debug_task_info ^= 1;

  00009	a1 00 00 00 00	 mov	 eax, DWORD PTR ?in_flight_external_view_entity_debug_task_info@@3HA ; in_flight_external_view_entity_debug_task_info
  0000e	83 f0 01	 xor	 eax, 1
  00011	a3 00 00 00 00	 mov	 DWORD PTR ?in_flight_external_view_entity_debug_task_info@@3HA, eax ; in_flight_external_view_entity_debug_task_info

; 126  : }

  00016	5f		 pop	 edi
  00017	5e		 pop	 esi
  00018	5b		 pop	 ebx
  00019	8b e5		 mov	 esp, ebp
  0001b	5d		 pop	 ebp
  0001c	c2 04 00	 ret	 4
?toggle_in_flight_external_view_entity_debug_task_info_event@@YGXPAUEVENT@@@Z ENDP ; toggle_in_flight_external_view_entity_debug_task_info_event
_TEXT	ENDS
; Function compile flags: /Odtp /ZI
; File c:\users\nhv90\projects\eech\aphavoc\source\events\ev_debug.c
;	COMDAT ?toggle_in_flight_debug_force_info_event@@YGXPAUEVENT@@@Z
_TEXT	SEGMENT
_ev$ = 8						; size = 4
?toggle_in_flight_debug_force_info_event@@YGXPAUEVENT@@@Z PROC ; toggle_in_flight_debug_force_info_event, COMDAT

; 115  : {

  00000	55		 push	 ebp
  00001	8b ec		 mov	 ebp, esp
  00003	83 ec 40	 sub	 esp, 64			; 00000040H
  00006	53		 push	 ebx
  00007	56		 push	 esi
  00008	57		 push	 edi

; 116  : 	in_flight_debug_force_info ^= 1;

  00009	a1 00 00 00 00	 mov	 eax, DWORD PTR ?in_flight_debug_force_info@@3HA ; in_flight_debug_force_info
  0000e	83 f0 01	 xor	 eax, 1
  00011	a3 00 00 00 00	 mov	 DWORD PTR ?in_flight_debug_force_info@@3HA, eax ; in_flight_debug_force_info

; 117  : }

  00016	5f		 pop	 edi
  00017	5e		 pop	 esi
  00018	5b		 pop	 ebx
  00019	8b e5		 mov	 esp, ebp
  0001b	5d		 pop	 ebp
  0001c	c2 04 00	 ret	 4
?toggle_in_flight_debug_force_info_event@@YGXPAUEVENT@@@Z ENDP ; toggle_in_flight_debug_force_info_event
_TEXT	ENDS
; Function compile flags: /Odtp /ZI
; File c:\users\nhv90\projects\eech\aphavoc\source\events\ev_debug.c
;	COMDAT ?toggle_in_flight_debug_keysite_info_event@@YGXPAUEVENT@@@Z
_TEXT	SEGMENT
_ev$ = 8						; size = 4
?toggle_in_flight_debug_keysite_info_event@@YGXPAUEVENT@@@Z PROC ; toggle_in_flight_debug_keysite_info_event, COMDAT

; 104  : {

  00000	55		 push	 ebp
  00001	8b ec		 mov	 ebp, esp
  00003	83 ec 40	 sub	 esp, 64			; 00000040H
  00006	53		 push	 ebx
  00007	56		 push	 esi
  00008	57		 push	 edi

; 105  : 	in_flight_debug_keysite_info = ( in_flight_debug_keysite_info + 1 ) % (NUM_ENTITY_SUB_TYPE_LANDINGS + 1);

  00009	a1 00 00 00 00	 mov	 eax, DWORD PTR ?in_flight_debug_keysite_info@@3HA ; in_flight_debug_keysite_info
  0000e	83 c0 01	 add	 eax, 1
  00011	99		 cdq
  00012	b9 07 00 00 00	 mov	 ecx, 7
  00017	f7 f9		 idiv	 ecx
  00019	89 15 00 00 00
	00		 mov	 DWORD PTR ?in_flight_debug_keysite_info@@3HA, edx ; in_flight_debug_keysite_info

; 106  : 
; 107  : 	//dump_keysite_info ();
; 108  : }

  0001f	5f		 pop	 edi
  00020	5e		 pop	 esi
  00021	5b		 pop	 ebx
  00022	8b e5		 mov	 esp, ebp
  00024	5d		 pop	 ebp
  00025	c2 04 00	 ret	 4
?toggle_in_flight_debug_keysite_info_event@@YGXPAUEVENT@@@Z ENDP ; toggle_in_flight_debug_keysite_info_event
_TEXT	ENDS
; Function compile flags: /Odtp /ZI
; File c:\users\nhv90\projects\eech\aphavoc\source\events\ev_debug.c
;	COMDAT ?toggle_in_flight_external_view_entity_debug_flight_info_event@@YGXPAUEVENT@@@Z
_TEXT	SEGMENT
_ev$ = 8						; size = 4
?toggle_in_flight_external_view_entity_debug_flight_info_event@@YGXPAUEVENT@@@Z PROC ; toggle_in_flight_external_view_entity_debug_flight_info_event, COMDAT

; 95   : {

  00000	55		 push	 ebp
  00001	8b ec		 mov	 ebp, esp
  00003	83 ec 40	 sub	 esp, 64			; 00000040H
  00006	53		 push	 ebx
  00007	56		 push	 esi
  00008	57		 push	 edi

; 96   : 	in_flight_external_view_entity_debug_flight_info ^= 1;

  00009	a1 00 00 00 00	 mov	 eax, DWORD PTR ?in_flight_external_view_entity_debug_flight_info@@3HA ; in_flight_external_view_entity_debug_flight_info
  0000e	83 f0 01	 xor	 eax, 1
  00011	a3 00 00 00 00	 mov	 DWORD PTR ?in_flight_external_view_entity_debug_flight_info@@3HA, eax ; in_flight_external_view_entity_debug_flight_info

; 97   : }

  00016	5f		 pop	 edi
  00017	5e		 pop	 esi
  00018	5b		 pop	 ebx
  00019	8b e5		 mov	 esp, ebp
  0001b	5d		 pop	 ebp
  0001c	c2 04 00	 ret	 4
?toggle_in_flight_external_view_entity_debug_flight_info_event@@YGXPAUEVENT@@@Z ENDP ; toggle_in_flight_external_view_entity_debug_flight_info_event
_TEXT	ENDS
; Function compile flags: /Odtp /ZI
; File c:\users\nhv90\projects\eech\aphavoc\source\events\ev_debug.c
;	COMDAT ?toggle_in_flight_debug_misc_info_event@@YGXPAUEVENT@@@Z
_TEXT	SEGMENT
_ev$ = 8						; size = 4
?toggle_in_flight_debug_misc_info_event@@YGXPAUEVENT@@@Z PROC ; toggle_in_flight_debug_misc_info_event, COMDAT

; 86   : {

  00000	55		 push	 ebp
  00001	8b ec		 mov	 ebp, esp
  00003	83 ec 40	 sub	 esp, 64			; 00000040H
  00006	53		 push	 ebx
  00007	56		 push	 esi
  00008	57		 push	 edi

; 87   : 	in_flight_debug_misc_info ^= 1;

  00009	a1 00 00 00 00	 mov	 eax, DWORD PTR ?in_flight_debug_misc_info@@3HA ; in_flight_debug_misc_info
  0000e	83 f0 01	 xor	 eax, 1
  00011	a3 00 00 00 00	 mov	 DWORD PTR ?in_flight_debug_misc_info@@3HA, eax ; in_flight_debug_misc_info

; 88   : }

  00016	5f		 pop	 edi
  00017	5e		 pop	 esi
  00018	5b		 pop	 ebx
  00019	8b e5		 mov	 esp, ebp
  0001b	5d		 pop	 ebp
  0001c	c2 04 00	 ret	 4
?toggle_in_flight_debug_misc_info_event@@YGXPAUEVENT@@@Z ENDP ; toggle_in_flight_debug_misc_info_event
_TEXT	ENDS
; Function compile flags: /Odtp /ZI
; File c:\users\nhv90\projects\eech\aphavoc\source\events\ev_debug.c
;	COMDAT ?save_screen_image_event@@YGXPAUEVENT@@@Z
_TEXT	SEGMENT
_ev$ = 8						; size = 4
?save_screen_image_event@@YGXPAUEVENT@@@Z PROC		; save_screen_image_event, COMDAT

; 1228 : {

  00000	55		 push	 ebp
  00001	8b ec		 mov	 ebp, esp
  00003	83 ec 40	 sub	 esp, 64			; 00000040H
  00006	53		 push	 ebx
  00007	56		 push	 esi
  00008	57		 push	 edi

; 1229 : 	save_screen_image_and_viewpoint_data ();

  00009	e8 00 00 00 00	 call	 ?save_screen_image_and_viewpoint_data@@YGXXZ ; save_screen_image_and_viewpoint_data

; 1230 : }

  0000e	5f		 pop	 edi
  0000f	5e		 pop	 esi
  00010	5b		 pop	 ebx
  00011	8b e5		 mov	 esp, ebp
  00013	5d		 pop	 ebp
  00014	c2 04 00	 ret	 4
?save_screen_image_event@@YGXPAUEVENT@@@Z ENDP		; save_screen_image_event
_TEXT	ENDS
; Function compile flags: /Odtp /ZI
; File c:\users\nhv90\projects\eech\aphavoc\source\events\ev_debug.c
;	COMDAT ?set_flight_debug_events@@YGXXZ
_TEXT	SEGMENT
?set_flight_debug_events@@YGXXZ PROC			; set_flight_debug_events, COMDAT

; 2302 : {

  00000	55		 push	 ebp
  00001	8b ec		 mov	 ebp, esp
  00003	83 ec 40	 sub	 esp, 64			; 00000040H
  00006	53		 push	 ebx
  00007	56		 push	 esi
  00008	57		 push	 edi

; 2303 : 	/////////////////////////////////////////////////////////////////////////
; 2304 : 	//
; 2305 : 	// KEYBOARD EVENTS
; 2306 : 	//
; 2307 : 	/////////////////////////////////////////////////////////////////////////
; 2308 : 
; 2309 : 	set_event (DIK_1, MODIFIER_RIGHT_SHIFT, KEY_STATE_DOWN, debug_set_entity_group_formation);

  00009	68 00 00 00 00	 push	 OFFSET ?debug_set_entity_group_formation@@YGXPAUEVENT@@@Z ; debug_set_entity_group_formation
  0000e	6a 02		 push	 2
  00010	6a 04		 push	 4
  00012	6a 02		 push	 2
  00014	e8 00 00 00 00	 call	 ?set_event@@YGXHHHP6GXPAUEVENT@@@Z@Z ; set_event

; 2310 : 
; 2311 : 	set_event (DIK_2, MODIFIER_RIGHT_SHIFT, KEY_STATE_DOWN, debug_set_entity_group_formation);

  00019	68 00 00 00 00	 push	 OFFSET ?debug_set_entity_group_formation@@YGXPAUEVENT@@@Z ; debug_set_entity_group_formation
  0001e	6a 02		 push	 2
  00020	6a 04		 push	 4
  00022	6a 03		 push	 3
  00024	e8 00 00 00 00	 call	 ?set_event@@YGXHHHP6GXPAUEVENT@@@Z@Z ; set_event

; 2312 : 
; 2313 : 	set_event (DIK_3, MODIFIER_RIGHT_SHIFT, KEY_STATE_DOWN, debug_set_entity_group_formation);

  00029	68 00 00 00 00	 push	 OFFSET ?debug_set_entity_group_formation@@YGXPAUEVENT@@@Z ; debug_set_entity_group_formation
  0002e	6a 02		 push	 2
  00030	6a 04		 push	 4
  00032	6a 04		 push	 4
  00034	e8 00 00 00 00	 call	 ?set_event@@YGXHHHP6GXPAUEVENT@@@Z@Z ; set_event

; 2314 : 
; 2315 : 	set_event (DIK_4, MODIFIER_RIGHT_SHIFT, KEY_STATE_DOWN, debug_set_entity_group_formation);

  00039	68 00 00 00 00	 push	 OFFSET ?debug_set_entity_group_formation@@YGXPAUEVENT@@@Z ; debug_set_entity_group_formation
  0003e	6a 02		 push	 2
  00040	6a 04		 push	 4
  00042	6a 05		 push	 5
  00044	e8 00 00 00 00	 call	 ?set_event@@YGXHHHP6GXPAUEVENT@@@Z@Z ; set_event

; 2316 : 
; 2317 : 	set_event (DIK_5, MODIFIER_RIGHT_SHIFT, KEY_STATE_DOWN, debug_set_entity_group_formation);

  00049	68 00 00 00 00	 push	 OFFSET ?debug_set_entity_group_formation@@YGXPAUEVENT@@@Z ; debug_set_entity_group_formation
  0004e	6a 02		 push	 2
  00050	6a 04		 push	 4
  00052	6a 06		 push	 6
  00054	e8 00 00 00 00	 call	 ?set_event@@YGXHHHP6GXPAUEVENT@@@Z@Z ; set_event

; 2318 : 
; 2319 : 	set_event (DIK_6, MODIFIER_RIGHT_SHIFT, KEY_STATE_DOWN, debug_set_entity_group_formation);

  00059	68 00 00 00 00	 push	 OFFSET ?debug_set_entity_group_formation@@YGXPAUEVENT@@@Z ; debug_set_entity_group_formation
  0005e	6a 02		 push	 2
  00060	6a 04		 push	 4
  00062	6a 07		 push	 7
  00064	e8 00 00 00 00	 call	 ?set_event@@YGXHHHP6GXPAUEVENT@@@Z@Z ; set_event

; 2320 : 
; 2321 : 	////////////////////////////////////////
; 2322 : 	// 				LANGUAGES				  //
; 2323 : 	////////////////////////////////////////
; 2324 : 
; 2325 : 	set_event (DIK_1, MODIFIER_RIGHT_CONTROL, KEY_STATE_DOWN, debug_set_current_language);

  00069	68 00 00 00 00	 push	 OFFSET ?debug_set_current_language@@YGXPAUEVENT@@@Z ; debug_set_current_language
  0006e	6a 02		 push	 2
  00070	6a 05		 push	 5
  00072	6a 02		 push	 2
  00074	e8 00 00 00 00	 call	 ?set_event@@YGXHHHP6GXPAUEVENT@@@Z@Z ; set_event

; 2326 : 
; 2327 : 	set_event (DIK_2, MODIFIER_RIGHT_CONTROL, KEY_STATE_DOWN, debug_set_current_language);

  00079	68 00 00 00 00	 push	 OFFSET ?debug_set_current_language@@YGXPAUEVENT@@@Z ; debug_set_current_language
  0007e	6a 02		 push	 2
  00080	6a 05		 push	 5
  00082	6a 03		 push	 3
  00084	e8 00 00 00 00	 call	 ?set_event@@YGXHHHP6GXPAUEVENT@@@Z@Z ; set_event

; 2328 : 
; 2329 : 	set_event (DIK_3, MODIFIER_RIGHT_CONTROL, KEY_STATE_DOWN, debug_set_current_language);

  00089	68 00 00 00 00	 push	 OFFSET ?debug_set_current_language@@YGXPAUEVENT@@@Z ; debug_set_current_language
  0008e	6a 02		 push	 2
  00090	6a 05		 push	 5
  00092	6a 04		 push	 4
  00094	e8 00 00 00 00	 call	 ?set_event@@YGXHHHP6GXPAUEVENT@@@Z@Z ; set_event

; 2330 : 
; 2331 : 	set_event (DIK_4, MODIFIER_RIGHT_CONTROL, KEY_STATE_DOWN, debug_set_current_language);

  00099	68 00 00 00 00	 push	 OFFSET ?debug_set_current_language@@YGXPAUEVENT@@@Z ; debug_set_current_language
  0009e	6a 02		 push	 2
  000a0	6a 05		 push	 5
  000a2	6a 05		 push	 5
  000a4	e8 00 00 00 00	 call	 ?set_event@@YGXHHHP6GXPAUEVENT@@@Z@Z ; set_event

; 2332 : 
; 2333 : 	set_event (DIK_5, MODIFIER_RIGHT_CONTROL, KEY_STATE_DOWN, debug_set_current_language);

  000a9	68 00 00 00 00	 push	 OFFSET ?debug_set_current_language@@YGXPAUEVENT@@@Z ; debug_set_current_language
  000ae	6a 02		 push	 2
  000b0	6a 05		 push	 5
  000b2	6a 06		 push	 6
  000b4	e8 00 00 00 00	 call	 ?set_event@@YGXHHHP6GXPAUEVENT@@@Z@Z ; set_event

; 2334 : 
; 2335 : 	////////////////////////////////////////
; 2336 : 
; 2337 : 	set_event (DIK_A, MODIFIER_RIGHT_SHIFT, KEY_STATE_DOWN, debug_entity_task_abort);

  000b9	68 00 00 00 00	 push	 OFFSET ?debug_entity_task_abort@@YGXPAUEVENT@@@Z ; debug_entity_task_abort
  000be	6a 02		 push	 2
  000c0	6a 04		 push	 4
  000c2	6a 1e		 push	 30			; 0000001eH
  000c4	e8 00 00 00 00	 call	 ?set_event@@YGXHHHP6GXPAUEVENT@@@Z@Z ; set_event

; 2338 : 
; 2339 : 	set_event (DIK_A, MODIFIER_RIGHT_CONTROL, KEY_STATE_DOWN, toggle_in_flight_articulation_test_event);

  000c9	68 00 00 00 00	 push	 OFFSET ?toggle_in_flight_articulation_test_event@@YGXPAUEVENT@@@Z ; toggle_in_flight_articulation_test_event
  000ce	6a 02		 push	 2
  000d0	6a 05		 push	 5
  000d2	6a 1e		 push	 30			; 0000001eH
  000d4	e8 00 00 00 00	 call	 ?set_event@@YGXHHHP6GXPAUEVENT@@@Z@Z ; set_event

; 2340 : 
; 2341 : 	set_event (DIK_A, MODIFIER_RIGHT_ALT, KEY_STATE_DOWN, toggle_suppress_ai_fire_event);

  000d9	68 00 00 00 00	 push	 OFFSET ?toggle_suppress_ai_fire_event@@YGXPAUEVENT@@@Z ; toggle_suppress_ai_fire_event
  000de	6a 02		 push	 2
  000e0	6a 06		 push	 6
  000e2	6a 1e		 push	 30			; 0000001eH
  000e4	e8 00 00 00 00	 call	 ?set_event@@YGXHHHP6GXPAUEVENT@@@Z@Z ; set_event

; 2342 : 
; 2343 : 	////////////////////////////////////////
; 2344 : 
; 2345 : 	set_event (DIK_B, MODIFIER_RIGHT_SHIFT, KEY_STATE_DOWN, heavy_damage_gunship_event);

  000e9	68 00 00 00 00	 push	 OFFSET ?heavy_damage_gunship_event@@YGXPAUEVENT@@@Z ; heavy_damage_gunship_event
  000ee	6a 02		 push	 2
  000f0	6a 04		 push	 4
  000f2	6a 30		 push	 48			; 00000030H
  000f4	e8 00 00 00 00	 call	 ?set_event@@YGXHHHP6GXPAUEVENT@@@Z@Z ; set_event

; 2346 : 
; 2347 : 	set_event (DIK_B, MODIFIER_RIGHT_CONTROL, KEY_STATE_DOWN, medium_damage_gunship_event);

  000f9	68 00 00 00 00	 push	 OFFSET ?medium_damage_gunship_event@@YGXPAUEVENT@@@Z ; medium_damage_gunship_event
  000fe	6a 02		 push	 2
  00100	6a 05		 push	 5
  00102	6a 30		 push	 48			; 00000030H
  00104	e8 00 00 00 00	 call	 ?set_event@@YGXHHHP6GXPAUEVENT@@@Z@Z ; set_event

; 2348 : 
; 2349 : 	set_event (DIK_B, MODIFIER_RIGHT_ALT, KEY_STATE_DOWN, light_damage_gunship_event);

  00109	68 00 00 00 00	 push	 OFFSET ?light_damage_gunship_event@@YGXPAUEVENT@@@Z ; light_damage_gunship_event
  0010e	6a 02		 push	 2
  00110	6a 06		 push	 6
  00112	6a 30		 push	 48			; 00000030H
  00114	e8 00 00 00 00	 call	 ?set_event@@YGXHHHP6GXPAUEVENT@@@Z@Z ; set_event

; 2350 : 
; 2351 : 	////////////////////////////////////////
; 2352 : 
; 2353 : 	set_event (DIK_C, MODIFIER_RIGHT_SHIFT, KEY_STATE_DOWN, launch_chaff_event);

  00119	68 00 00 00 00	 push	 OFFSET ?launch_chaff_event@@YGXPAUEVENT@@@Z ; launch_chaff_event
  0011e	6a 02		 push	 2
  00120	6a 04		 push	 4
  00122	6a 2e		 push	 46			; 0000002eH
  00124	e8 00 00 00 00	 call	 ?set_event@@YGXHHHP6GXPAUEVENT@@@Z@Z ; set_event

; 2354 : 
; 2355 : 	set_event (DIK_C, MODIFIER_RIGHT_CONTROL, KEY_STATE_DOWN, toggle_test_cockpit_instruments_event);

  00129	68 00 00 00 00	 push	 OFFSET ?toggle_test_cockpit_instruments_event@@YGXPAUEVENT@@@Z ; toggle_test_cockpit_instruments_event
  0012e	6a 02		 push	 2
  00130	6a 05		 push	 5
  00132	6a 2e		 push	 46			; 0000002eH
  00134	e8 00 00 00 00	 call	 ?set_event@@YGXHHHP6GXPAUEVENT@@@Z@Z ; set_event

; 2356 : 
; 2357 : 	set_event (DIK_C, MODIFIER_RIGHT_ALT, KEY_STATE_DOWN, toggle_virtual_cockpit_needles_event);

  00139	68 00 00 00 00	 push	 OFFSET ?toggle_virtual_cockpit_needles_event@@YGXPAUEVENT@@@Z ; toggle_virtual_cockpit_needles_event
  0013e	6a 02		 push	 2
  00140	6a 06		 push	 6
  00142	6a 2e		 push	 46			; 0000002eH
  00144	e8 00 00 00 00	 call	 ?set_event@@YGXHHHP6GXPAUEVENT@@@Z@Z ; set_event

; 2358 : 
; 2359 : 	////////////////////////////////////////
; 2360 : 
; 2361 : 	set_event (DIK_D, MODIFIER_RIGHT_SHIFT, KEY_STATE_DOWN, demo_shortcut_event);

  00149	68 00 00 00 00	 push	 OFFSET ?demo_shortcut_event@@YGXPAUEVENT@@@Z ; demo_shortcut_event
  0014e	6a 02		 push	 2
  00150	6a 04		 push	 4
  00152	6a 20		 push	 32			; 00000020H
  00154	e8 00 00 00 00	 call	 ?set_event@@YGXHHHP6GXPAUEVENT@@@Z@Z ; set_event

; 2362 : 
; 2363 : 	set_event (DIK_D, MODIFIER_RIGHT_CONTROL, KEY_STATE_DOWN, toggle_in_flight_external_view_entity_debug_task_info_event);

  00159	68 00 00 00 00	 push	 OFFSET ?toggle_in_flight_external_view_entity_debug_task_info_event@@YGXPAUEVENT@@@Z ; toggle_in_flight_external_view_entity_debug_task_info_event
  0015e	6a 02		 push	 2
  00160	6a 05		 push	 5
  00162	6a 20		 push	 32			; 00000020H
  00164	e8 00 00 00 00	 call	 ?set_event@@YGXHHHP6GXPAUEVENT@@@Z@Z ; set_event

; 2364 : 
; 2365 : 	set_event (DIK_D, MODIFIER_RIGHT_ALT, KEY_STATE_DOWN, toggle_in_flight_external_view_entity_debug_flight_info_event);

  00169	68 00 00 00 00	 push	 OFFSET ?toggle_in_flight_external_view_entity_debug_flight_info_event@@YGXPAUEVENT@@@Z ; toggle_in_flight_external_view_entity_debug_flight_info_event
  0016e	6a 02		 push	 2
  00170	6a 06		 push	 6
  00172	6a 20		 push	 32			; 00000020H
  00174	e8 00 00 00 00	 call	 ?set_event@@YGXHHHP6GXPAUEVENT@@@Z@Z ; set_event

; 2366 : 
; 2367 : 	////////////////////////////////////////
; 2368 : 
; 2369 : 	set_event (DIK_E, MODIFIER_RIGHT_SHIFT, KEY_STATE_DOWN, cycle_cpg_assistance_event);

  00179	68 00 00 00 00	 push	 OFFSET ?cycle_cpg_assistance_event@@YGXPAUEVENT@@@Z ; cycle_cpg_assistance_event
  0017e	6a 02		 push	 2
  00180	6a 04		 push	 4
  00182	6a 12		 push	 18			; 00000012H
  00184	e8 00 00 00 00	 call	 ?set_event@@YGXHHHP6GXPAUEVENT@@@Z@Z ; set_event

; 2370 : 
; 2371 : 	set_event (DIK_E, MODIFIER_RIGHT_CONTROL, KEY_STATE_DOWN, create_ground_engage_task_event);

  00189	68 00 00 00 00	 push	 OFFSET ?create_ground_engage_task_event@@YGXPAUEVENT@@@Z ; create_ground_engage_task_event
  0018e	6a 02		 push	 2
  00190	6a 05		 push	 5
  00192	6a 12		 push	 18			; 00000012H
  00194	e8 00 00 00 00	 call	 ?set_event@@YGXHHHP6GXPAUEVENT@@@Z@Z ; set_event

; 2372 : 
; 2373 : 	set_event (DIK_E, MODIFIER_RIGHT_ALT, KEY_STATE_DOWN, create_air_engage_task_event);

  00199	68 00 00 00 00	 push	 OFFSET ?create_air_engage_task_event@@YGXPAUEVENT@@@Z ; create_air_engage_task_event
  0019e	6a 02		 push	 2
  001a0	6a 06		 push	 6
  001a2	6a 12		 push	 18			; 00000012H
  001a4	e8 00 00 00 00	 call	 ?set_event@@YGXHHHP6GXPAUEVENT@@@Z@Z ; set_event

; 2374 : 
; 2375 : 	////////////////////////////////////////
; 2376 : 
; 2377 : 	set_event (DIK_F, MODIFIER_RIGHT_SHIFT, KEY_STATE_DOWN, launch_flare_event);

  001a9	68 00 00 00 00	 push	 OFFSET ?launch_flare_event@@YGXPAUEVENT@@@Z ; launch_flare_event
  001ae	6a 02		 push	 2
  001b0	6a 04		 push	 4
  001b2	6a 21		 push	 33			; 00000021H
  001b4	e8 00 00 00 00	 call	 ?set_event@@YGXHHHP6GXPAUEVENT@@@Z@Z ; set_event

; 2378 : 
; 2379 : 	set_event (DIK_F, MODIFIER_RIGHT_CONTROL, KEY_STATE_DOWN, toggle_infinite_weapons_event);

  001b9	68 00 00 00 00	 push	 OFFSET ?toggle_infinite_weapons_event@@YGXPAUEVENT@@@Z ; toggle_infinite_weapons_event
  001be	6a 02		 push	 2
  001c0	6a 05		 push	 5
  001c2	6a 21		 push	 33			; 00000021H
  001c4	e8 00 00 00 00	 call	 ?set_event@@YGXHHHP6GXPAUEVENT@@@Z@Z ; set_event

; 2380 : 
; 2381 : 	set_event (DIK_F, MODIFIER_RIGHT_ALT, KEY_STATE_DOWN, toggle_in_flight_debug_force_info_event);

  001c9	68 00 00 00 00	 push	 OFFSET ?toggle_in_flight_debug_force_info_event@@YGXPAUEVENT@@@Z ; toggle_in_flight_debug_force_info_event
  001ce	6a 02		 push	 2
  001d0	6a 06		 push	 6
  001d2	6a 21		 push	 33			; 00000021H
  001d4	e8 00 00 00 00	 call	 ?set_event@@YGXHHHP6GXPAUEVENT@@@Z@Z ; set_event

; 2382 : 
; 2383 : 	////////////////////////////////////////
; 2384 : 
; 2385 : 	set_event (DIK_G, MODIFIER_RIGHT_SHIFT, KEY_STATE_DOWN, launch_smoke_grenade_event);

  001d9	68 00 00 00 00	 push	 OFFSET ?launch_smoke_grenade_event@@YGXPAUEVENT@@@Z ; launch_smoke_grenade_event
  001de	6a 02		 push	 2
  001e0	6a 04		 push	 4
  001e2	6a 22		 push	 34			; 00000022H
  001e4	e8 00 00 00 00	 call	 ?set_event@@YGXHHHP6GXPAUEVENT@@@Z@Z ; set_event

; 2386 : 
; 2387 : 	set_event (DIK_G, MODIFIER_RIGHT_CONTROL, KEY_STATE_DOWN, clear_debug_3d_graphics_event);

  001e9	68 00 00 00 00	 push	 OFFSET ?clear_debug_3d_graphics_event@@YGXPAUEVENT@@@Z ; clear_debug_3d_graphics_event
  001ee	6a 02		 push	 2
  001f0	6a 05		 push	 5
  001f2	6a 22		 push	 34			; 00000022H
  001f4	e8 00 00 00 00	 call	 ?set_event@@YGXHHHP6GXPAUEVENT@@@Z@Z ; set_event

; 2388 : 
; 2389 : 	set_event (DIK_G, MODIFIER_RIGHT_ALT, KEY_STATE_DOWN, toggle_infinite_fuel_event);

  001f9	68 00 00 00 00	 push	 OFFSET ?toggle_infinite_fuel_event@@YGXPAUEVENT@@@Z ; toggle_infinite_fuel_event
  001fe	6a 02		 push	 2
  00200	6a 06		 push	 6
  00202	6a 22		 push	 34			; 00000022H
  00204	e8 00 00 00 00	 call	 ?set_event@@YGXHHHP6GXPAUEVENT@@@Z@Z ; set_event

; 2390 : 
; 2391 : 	////////////////////////////////////////
; 2392 : 
; 2393 : 	set_event (DIK_H, MODIFIER_RIGHT_CONTROL, KEY_STATE_DOWN, toggle_hud_layout_grid_event);

  00209	68 00 00 00 00	 push	 OFFSET ?toggle_hud_layout_grid_event@@YGXPAUEVENT@@@Z ; toggle_hud_layout_grid_event
  0020e	6a 02		 push	 2
  00210	6a 05		 push	 5
  00212	6a 23		 push	 35			; 00000023H
  00214	e8 00 00 00 00	 call	 ?set_event@@YGXHHHP6GXPAUEVENT@@@Z@Z ; set_event

; 2394 : 
; 2395 : 	set_event (DIK_H, MODIFIER_RIGHT_ALT, KEY_STATE_DOWN, damage_external_view_entity_event);

  00219	68 00 00 00 00	 push	 OFFSET ?damage_external_view_entity_event@@YGXPAUEVENT@@@Z ; damage_external_view_entity_event
  0021e	6a 02		 push	 2
  00220	6a 06		 push	 6
  00222	6a 23		 push	 35			; 00000023H
  00224	e8 00 00 00 00	 call	 ?set_event@@YGXHHHP6GXPAUEVENT@@@Z@Z ; set_event

; 2396 : 
; 2397 : 	set_event (DIK_H, MODIFIER_RIGHT_SHIFT, KEY_STATE_DOWN, create_debug_advance_task);

  00229	68 00 00 00 00	 push	 OFFSET ?create_debug_advance_task@@YGXPAUEVENT@@@Z ; create_debug_advance_task
  0022e	6a 02		 push	 2
  00230	6a 04		 push	 4
  00232	6a 23		 push	 35			; 00000023H
  00234	e8 00 00 00 00	 call	 ?set_event@@YGXHHHP6GXPAUEVENT@@@Z@Z ; set_event

; 2398 : 
; 2399 : 	////////////////////////////////////////
; 2400 : 
; 2401 : 	set_event (DIK_I, MODIFIER_RIGHT_SHIFT, KEY_STATE_DOWN, toggle_ai_invulnerable_event);

  00239	68 00 00 00 00	 push	 OFFSET ?toggle_ai_invulnerable_event@@YGXPAUEVENT@@@Z ; toggle_ai_invulnerable_event
  0023e	6a 02		 push	 2
  00240	6a 04		 push	 4
  00242	6a 17		 push	 23			; 00000017H
  00244	e8 00 00 00 00	 call	 ?set_event@@YGXHHHP6GXPAUEVENT@@@Z@Z ; set_event

; 2402 : 
; 2403 : 	set_event (DIK_I, MODIFIER_RIGHT_CONTROL, KEY_STATE_DOWN, toggle_in_flight_debug_misc_info_event);

  00249	68 00 00 00 00	 push	 OFFSET ?toggle_in_flight_debug_misc_info_event@@YGXPAUEVENT@@@Z ; toggle_in_flight_debug_misc_info_event
  0024e	6a 02		 push	 2
  00250	6a 05		 push	 5
  00252	6a 17		 push	 23			; 00000017H
  00254	e8 00 00 00 00	 call	 ?set_event@@YGXHHHP6GXPAUEVENT@@@Z@Z ; set_event

; 2404 : 
; 2405 : 	set_event (DIK_I, MODIFIER_RIGHT_ALT, KEY_STATE_DOWN, toggle_invulnerable_event);

  00259	68 00 00 00 00	 push	 OFFSET ?toggle_invulnerable_event@@YGXPAUEVENT@@@Z ; toggle_invulnerable_event
  0025e	6a 02		 push	 2
  00260	6a 06		 push	 6
  00262	6a 17		 push	 23			; 00000017H
  00264	e8 00 00 00 00	 call	 ?set_event@@YGXHHHP6GXPAUEVENT@@@Z@Z ; set_event

; 2406 : 
; 2407 : 	////////////////////////////////////////
; 2408 : 
; 2409 : 	set_event (DIK_J, MODIFIER_RIGHT_SHIFT, KEY_STATE_DOWN, debug_capture_keysite_event);

  00269	68 00 00 00 00	 push	 OFFSET ?debug_capture_keysite_event@@YGXPAUEVENT@@@Z ; debug_capture_keysite_event
  0026e	6a 02		 push	 2
  00270	6a 04		 push	 4
  00272	6a 24		 push	 36			; 00000024H
  00274	e8 00 00 00 00	 call	 ?set_event@@YGXHHHP6GXPAUEVENT@@@Z@Z ; set_event

; 2410 : 
; 2411 : 	set_event (DIK_J, MODIFIER_RIGHT_CONTROL, KEY_STATE_DOWN, eject_external_view_entity_event);

  00279	68 00 00 00 00	 push	 OFFSET ?eject_external_view_entity_event@@YGXPAUEVENT@@@Z ; eject_external_view_entity_event
  0027e	6a 02		 push	 2
  00280	6a 05		 push	 5
  00282	6a 24		 push	 36			; 00000024H
  00284	e8 00 00 00 00	 call	 ?set_event@@YGXHHHP6GXPAUEVENT@@@Z@Z ; set_event

; 2412 : 
; 2413 : 	set_event (DIK_J, MODIFIER_RIGHT_ALT, KEY_STATE_DOWN, output_influence_maps_event);

  00289	68 00 00 00 00	 push	 OFFSET ?output_influence_maps_event@@YGXPAUEVENT@@@Z ; output_influence_maps_event
  0028e	6a 02		 push	 2
  00290	6a 06		 push	 6
  00292	6a 24		 push	 36			; 00000024H
  00294	e8 00 00 00 00	 call	 ?set_event@@YGXHHHP6GXPAUEVENT@@@Z@Z ; set_event

; 2414 : 
; 2415 : 	////////////////////////////////////////
; 2416 : 
; 2417 : 	set_event (DIK_K, MODIFIER_RIGHT_SHIFT, KEY_STATE_DOWN, assess_external_view_entity_weapon_effectiveness_event);

  00299	68 00 00 00 00	 push	 OFFSET ?assess_external_view_entity_weapon_effectiveness_event@@YGXPAUEVENT@@@Z ; assess_external_view_entity_weapon_effectiveness_event
  0029e	6a 02		 push	 2
  002a0	6a 04		 push	 4
  002a2	6a 25		 push	 37			; 00000025H
  002a4	e8 00 00 00 00	 call	 ?set_event@@YGXHHHP6GXPAUEVENT@@@Z@Z ; set_event

; 2418 : 
; 2419 : 	set_event (DIK_K, MODIFIER_RIGHT_CONTROL, KEY_STATE_DOWN, toggle_in_flight_debug_keysite_info_event);

  002a9	68 00 00 00 00	 push	 OFFSET ?toggle_in_flight_debug_keysite_info_event@@YGXPAUEVENT@@@Z ; toggle_in_flight_debug_keysite_info_event
  002ae	6a 02		 push	 2
  002b0	6a 05		 push	 5
  002b2	6a 25		 push	 37			; 00000025H
  002b4	e8 00 00 00 00	 call	 ?set_event@@YGXHHHP6GXPAUEVENT@@@Z@Z ; set_event

; 2420 : 
; 2421 : 	set_event (DIK_K, MODIFIER_RIGHT_ALT, KEY_STATE_DOWN, kill_external_view_entity_event);

  002b9	68 00 00 00 00	 push	 OFFSET ?kill_external_view_entity_event@@YGXPAUEVENT@@@Z ; kill_external_view_entity_event
  002be	6a 02		 push	 2
  002c0	6a 06		 push	 6
  002c2	6a 25		 push	 37			; 00000025H
  002c4	e8 00 00 00 00	 call	 ?set_event@@YGXHHHP6GXPAUEVENT@@@Z@Z ; set_event

; 2422 : 
; 2423 : 	////////////////////////////////////////
; 2424 : 
; 2425 : 	set_event (DIK_L, MODIFIER_RIGHT_SHIFT, KEY_STATE_DOWN, set_entity_group_leader_event);

  002c9	68 00 00 00 00	 push	 OFFSET ?set_entity_group_leader_event@@YGXPAUEVENT@@@Z ; set_entity_group_leader_event
  002ce	6a 02		 push	 2
  002d0	6a 04		 push	 4
  002d2	6a 26		 push	 38			; 00000026H
  002d4	e8 00 00 00 00	 call	 ?set_event@@YGXHHHP6GXPAUEVENT@@@Z@Z ; set_event

; 2426 : 
; 2427 : 	set_event (DIK_L, MODIFIER_RIGHT_CONTROL, KEY_STATE_DOWN, toggle_local_weather_model_event);

  002d9	68 00 00 00 00	 push	 OFFSET ?toggle_local_weather_model_event@@YGXPAUEVENT@@@Z ; toggle_local_weather_model_event
  002de	6a 02		 push	 2
  002e0	6a 05		 push	 5
  002e2	6a 26		 push	 38			; 00000026H
  002e4	e8 00 00 00 00	 call	 ?set_event@@YGXHHHP6GXPAUEVENT@@@Z@Z ; set_event

; 2428 : 
; 2429 : 	set_event (DIK_L, MODIFIER_RIGHT_ALT, KEY_STATE_DOWN, toggle_in_flight_gunship_target_list_info_event);

  002e9	68 00 00 00 00	 push	 OFFSET ?toggle_in_flight_gunship_target_list_info_event@@YGXPAUEVENT@@@Z ; toggle_in_flight_gunship_target_list_info_event
  002ee	6a 02		 push	 2
  002f0	6a 06		 push	 6
  002f2	6a 26		 push	 38			; 00000026H
  002f4	e8 00 00 00 00	 call	 ?set_event@@YGXHHHP6GXPAUEVENT@@@Z@Z ; set_event

; 2430 : 
; 2431 : 	////////////////////////////////////////
; 2432 : 
; 2433 : 	set_event (DIK_M, MODIFIER_RIGHT_SHIFT, KEY_STATE_DOWN, restore_external_view_entity_main_rotors_event);

  002f9	68 00 00 00 00	 push	 OFFSET ?restore_external_view_entity_main_rotors_event@@YGXPAUEVENT@@@Z ; restore_external_view_entity_main_rotors_event
  002fe	6a 02		 push	 2
  00300	6a 04		 push	 4
  00302	6a 32		 push	 50			; 00000032H
  00304	e8 00 00 00 00	 call	 ?set_event@@YGXHHHP6GXPAUEVENT@@@Z@Z ; set_event

; 2434 : 
; 2435 : 	set_event (DIK_M, MODIFIER_RIGHT_CONTROL, KEY_STATE_DOWN, toggle_mfd_layout_grid_event);

  00309	68 00 00 00 00	 push	 OFFSET ?toggle_mfd_layout_grid_event@@YGXPAUEVENT@@@Z ; toggle_mfd_layout_grid_event
  0030e	6a 02		 push	 2
  00310	6a 05		 push	 5
  00312	6a 32		 push	 50			; 00000032H
  00314	e8 00 00 00 00	 call	 ?set_event@@YGXHHHP6GXPAUEVENT@@@Z@Z ; set_event

; 2436 : 
; 2437 : 	set_event (DIK_M, MODIFIER_RIGHT_ALT, KEY_STATE_DOWN, damage_external_view_entity_main_rotors_event);

  00319	68 00 00 00 00	 push	 OFFSET ?damage_external_view_entity_main_rotors_event@@YGXPAUEVENT@@@Z ; damage_external_view_entity_main_rotors_event
  0031e	6a 02		 push	 2
  00320	6a 06		 push	 6
  00322	6a 32		 push	 50			; 00000032H
  00324	e8 00 00 00 00	 call	 ?set_event@@YGXHHHP6GXPAUEVENT@@@Z@Z ; set_event

; 2438 : 
; 2439 : 	////////////////////////////////////////
; 2440 : 
; 2441 : 	set_event (DIK_N, MODIFIER_RIGHT_CONTROL, KEY_STATE_DOWN, toggle_night_vision_system_active_event);

  00329	68 00 00 00 00	 push	 OFFSET ?toggle_night_vision_system_active_event@@YGXPAUEVENT@@@Z ; toggle_night_vision_system_active_event
  0032e	6a 02		 push	 2
  00330	6a 05		 push	 5
  00332	6a 31		 push	 49			; 00000031H
  00334	e8 00 00 00 00	 call	 ?set_event@@YGXHHHP6GXPAUEVENT@@@Z@Z ; set_event

; 2442 : 
; 2443 : 	set_event (DIK_N, MODIFIER_RIGHT_ALT, KEY_STATE_DOWN, set_external_view_entity_next_waypoint);

  00339	68 00 00 00 00	 push	 OFFSET ?set_external_view_entity_next_waypoint@@YGXPAUEVENT@@@Z ; set_external_view_entity_next_waypoint
  0033e	6a 02		 push	 2
  00340	6a 06		 push	 6
  00342	6a 31		 push	 49			; 00000031H
  00344	e8 00 00 00 00	 call	 ?set_event@@YGXHHHP6GXPAUEVENT@@@Z@Z ; set_event

; 2444 : 
; 2445 : 	////////////////////////////////////////
; 2446 : 
; 2447 : 	set_event (DIK_O, MODIFIER_RIGHT_SHIFT, KEY_STATE_DOWN, launch_crate_event);

  00349	68 00 00 00 00	 push	 OFFSET ?launch_crate_event@@YGXPAUEVENT@@@Z ; launch_crate_event
  0034e	6a 02		 push	 2
  00350	6a 04		 push	 4
  00352	6a 18		 push	 24			; 00000018H
  00354	e8 00 00 00 00	 call	 ?set_event@@YGXHHHP6GXPAUEVENT@@@Z@Z ; set_event

; 2448 : 
; 2449 : 	set_event (DIK_O, MODIFIER_RIGHT_CONTROL, KEY_STATE_DOWN, dump_aircraft_and_vehicle_count_event);

  00359	68 00 00 00 00	 push	 OFFSET ?dump_aircraft_and_vehicle_count_event@@YGXPAUEVENT@@@Z ; dump_aircraft_and_vehicle_count_event
  0035e	6a 02		 push	 2
  00360	6a 05		 push	 5
  00362	6a 18		 push	 24			; 00000018H
  00364	e8 00 00 00 00	 call	 ?set_event@@YGXHHHP6GXPAUEVENT@@@Z@Z ; set_event

; 2450 : 
; 2451 : 	////////////////////////////////////////
; 2452 : 
; 2453 : 	set_event (DIK_P, MODIFIER_RIGHT_SHIFT, KEY_STATE_DOWN, debug_entity_primary_task_abort);

  00369	68 00 00 00 00	 push	 OFFSET ?debug_entity_primary_task_abort@@YGXPAUEVENT@@@Z ; debug_entity_primary_task_abort
  0036e	6a 02		 push	 2
  00370	6a 04		 push	 4
  00372	6a 19		 push	 25			; 00000019H
  00374	e8 00 00 00 00	 call	 ?set_event@@YGXHHHP6GXPAUEVENT@@@Z@Z ; set_event

; 2454 : 
; 2455 : 	////////////////////////////////////////
; 2456 : 
; 2457 : 	set_event (DIK_R, MODIFIER_RIGHT_SHIFT, KEY_STATE_DOWN, toggle_record_screen_sequence_event);

  00379	68 00 00 00 00	 push	 OFFSET ?toggle_record_screen_sequence_event@@YGXPAUEVENT@@@Z ; toggle_record_screen_sequence_event
  0037e	6a 02		 push	 2
  00380	6a 04		 push	 4
  00382	6a 13		 push	 19			; 00000013H
  00384	e8 00 00 00 00	 call	 ?set_event@@YGXHHHP6GXPAUEVENT@@@Z@Z ; set_event

; 2458 : 
; 2459 : 	////////////////////////////////////////
; 2460 : 
; 2461 : 	set_event (DIK_S, MODIFIER_RIGHT_SHIFT, KEY_STATE_DOWN, save_screen_image_event);

  00389	68 00 00 00 00	 push	 OFFSET ?save_screen_image_event@@YGXPAUEVENT@@@Z ; save_screen_image_event
  0038e	6a 02		 push	 2
  00390	6a 04		 push	 4
  00392	6a 1f		 push	 31			; 0000001fH
  00394	e8 00 00 00 00	 call	 ?set_event@@YGXHHHP6GXPAUEVENT@@@Z@Z ; set_event

; 2462 : 
; 2463 : 	set_event (DIK_S, MODIFIER_RIGHT_CONTROL, KEY_STATE_DOWN, save_hires_screen_image_event);

  00399	68 00 00 00 00	 push	 OFFSET ?save_hires_screen_image_event@@YGXPAUEVENT@@@Z ; save_hires_screen_image_event
  0039e	6a 02		 push	 2
  003a0	6a 05		 push	 5
  003a2	6a 1f		 push	 31			; 0000001fH
  003a4	e8 00 00 00 00	 call	 ?set_event@@YGXHHHP6GXPAUEVENT@@@Z@Z ; set_event

; 2464 : 
; 2465 : 	set_event (DIK_S, MODIFIER_RIGHT_ALT, KEY_STATE_DOWN, delete_screen_image_event);

  003a9	68 00 00 00 00	 push	 OFFSET ?delete_screen_image_event@@YGXPAUEVENT@@@Z ; delete_screen_image_event
  003ae	6a 02		 push	 2
  003b0	6a 06		 push	 6
  003b2	6a 1f		 push	 31			; 0000001fH
  003b4	e8 00 00 00 00	 call	 ?set_event@@YGXHHHP6GXPAUEVENT@@@Z@Z ; set_event

; 2466 : 
; 2467 : 	////////////////////////////////////////
; 2468 : 
; 2469 : 	set_event (DIK_T, MODIFIER_RIGHT_SHIFT, KEY_STATE_DOWN, increase_session_time_of_day_acceleration);

  003b9	68 00 00 00 00	 push	 OFFSET ?increase_session_time_of_day_acceleration@@YGXPAUEVENT@@@Z ; increase_session_time_of_day_acceleration
  003be	6a 02		 push	 2
  003c0	6a 04		 push	 4
  003c2	6a 14		 push	 20			; 00000014H
  003c4	e8 00 00 00 00	 call	 ?set_event@@YGXHHHP6GXPAUEVENT@@@Z@Z ; set_event

; 2470 : 
; 2471 : 	set_event (DIK_T, MODIFIER_RIGHT_CONTROL, KEY_STATE_DOWN, reset_session_time_of_day_acceleration);

  003c9	68 00 00 00 00	 push	 OFFSET ?reset_session_time_of_day_acceleration@@YGXPAUEVENT@@@Z ; reset_session_time_of_day_acceleration
  003ce	6a 02		 push	 2
  003d0	6a 05		 push	 5
  003d2	6a 14		 push	 20			; 00000014H
  003d4	e8 00 00 00 00	 call	 ?set_event@@YGXHHHP6GXPAUEVENT@@@Z@Z ; set_event

; 2472 : 
; 2473 : 	set_event (DIK_T, MODIFIER_RIGHT_ALT, KEY_STATE_DOWN, set_demo_time_of_day_acceleration);

  003d9	68 00 00 00 00	 push	 OFFSET ?set_demo_time_of_day_acceleration@@YGXPAUEVENT@@@Z ; set_demo_time_of_day_acceleration
  003de	6a 02		 push	 2
  003e0	6a 06		 push	 6
  003e2	6a 14		 push	 20			; 00000014H
  003e4	e8 00 00 00 00	 call	 ?set_event@@YGXHHHP6GXPAUEVENT@@@Z@Z ; set_event

; 2474 : 
; 2475 : 	////////////////////////////////////////
; 2476 : 
; 2477 : 	set_event (DIK_U, MODIFIER_RIGHT_SHIFT, KEY_STATE_DOWN, uneject_external_view_entity_event);

  003e9	68 00 00 00 00	 push	 OFFSET ?uneject_external_view_entity_event@@YGXPAUEVENT@@@Z ; uneject_external_view_entity_event
  003ee	6a 02		 push	 2
  003f0	6a 04		 push	 4
  003f2	6a 16		 push	 22			; 00000016H
  003f4	e8 00 00 00 00	 call	 ?set_event@@YGXHHHP6GXPAUEVENT@@@Z@Z ; set_event

; 2478 : 
; 2479 : 	set_event (DIK_U, MODIFIER_RIGHT_CONTROL, KEY_STATE_DOWN, set_gunship_entity_to_null_event);

  003f9	68 00 00 00 00	 push	 OFFSET ?set_gunship_entity_to_null_event@@YGXPAUEVENT@@@Z ; set_gunship_entity_to_null_event
  003fe	6a 02		 push	 2
  00400	6a 05		 push	 5
  00402	6a 16		 push	 22			; 00000016H
  00404	e8 00 00 00 00	 call	 ?set_event@@YGXHHHP6GXPAUEVENT@@@Z@Z ; set_event

; 2480 : 
; 2481 : 	set_event (DIK_U, MODIFIER_RIGHT_ALT, KEY_STATE_DOWN, debug_create_troop_insert_event);

  00409	68 00 00 00 00	 push	 OFFSET ?debug_create_troop_insert_event@@YGXPAUEVENT@@@Z ; debug_create_troop_insert_event
  0040e	6a 02		 push	 2
  00410	6a 06		 push	 6
  00412	6a 16		 push	 22			; 00000016H
  00414	e8 00 00 00 00	 call	 ?set_event@@YGXHHHP6GXPAUEVENT@@@Z@Z ; set_event

; 2482 : 
; 2483 : 	////////////////////////////////////////
; 2484 : 
; 2485 : 	set_event (DIK_V, MODIFIER_RIGHT_SHIFT, KEY_STATE_DOWN, fully_repair_gunship_damage_event);

  00419	68 00 00 00 00	 push	 OFFSET ?fully_repair_gunship_damage_event@@YGXPAUEVENT@@@Z ; fully_repair_gunship_damage_event
  0041e	6a 02		 push	 2
  00420	6a 04		 push	 4
  00422	6a 2f		 push	 47			; 0000002fH
  00424	e8 00 00 00 00	 call	 ?set_event@@YGXHHHP6GXPAUEVENT@@@Z@Z ; set_event

; 2486 : 
; 2487 : 	set_event (DIK_V, MODIFIER_RIGHT_CONTROL, KEY_STATE_DOWN, partially_repair_gunship_damage_event);

  00429	68 00 00 00 00	 push	 OFFSET ?partially_repair_gunship_damage_event@@YGXPAUEVENT@@@Z ; partially_repair_gunship_damage_event
  0042e	6a 02		 push	 2
  00430	6a 05		 push	 5
  00432	6a 2f		 push	 47			; 0000002fH
  00434	e8 00 00 00 00	 call	 ?set_event@@YGXHHHP6GXPAUEVENT@@@Z@Z ; set_event

; 2488 : 
; 2489 : 	set_event (DIK_V, MODIFIER_RIGHT_ALT, KEY_STATE_DOWN, transmit_external_view_entity_event);

  00439	68 00 00 00 00	 push	 OFFSET ?transmit_external_view_entity_event@@YGXPAUEVENT@@@Z ; transmit_external_view_entity_event
  0043e	6a 02		 push	 2
  00440	6a 06		 push	 6
  00442	6a 2f		 push	 47			; 0000002fH
  00444	e8 00 00 00 00	 call	 ?set_event@@YGXHHHP6GXPAUEVENT@@@Z@Z ; set_event

; 2490 : 
; 2491 : 	////////////////////////////////////////
; 2492 : 
; 2493 : 	set_event (DIK_W, MODIFIER_RIGHT_SHIFT, KEY_STATE_DOWN, set_fine_weather_mode_event);

  00449	68 00 00 00 00	 push	 OFFSET ?set_fine_weather_mode_event@@YGXPAUEVENT@@@Z ; set_fine_weather_mode_event
  0044e	6a 02		 push	 2
  00450	6a 04		 push	 4
  00452	6a 11		 push	 17			; 00000011H
  00454	e8 00 00 00 00	 call	 ?set_event@@YGXHHHP6GXPAUEVENT@@@Z@Z ; set_event

; 2494 : 
; 2495 : 	set_event (DIK_W, MODIFIER_RIGHT_CONTROL, KEY_STATE_DOWN, toggle_in_flight_external_view_entity_weapon_info_event);

  00459	68 00 00 00 00	 push	 OFFSET ?toggle_in_flight_external_view_entity_weapon_info_event@@YGXPAUEVENT@@@Z ; toggle_in_flight_external_view_entity_weapon_info_event
  0045e	6a 02		 push	 2
  00460	6a 05		 push	 5
  00462	6a 11		 push	 17			; 00000011H
  00464	e8 00 00 00 00	 call	 ?set_event@@YGXHHHP6GXPAUEVENT@@@Z@Z ; set_event

; 2496 : 
; 2497 : 	set_event (DIK_W, MODIFIER_RIGHT_ALT, KEY_STATE_DOWN, cycle_weather_modes_event);

  00469	68 00 00 00 00	 push	 OFFSET ?cycle_weather_modes_event@@YGXPAUEVENT@@@Z ; cycle_weather_modes_event
  0046e	6a 02		 push	 2
  00470	6a 06		 push	 6
  00472	6a 11		 push	 17			; 00000011H
  00474	e8 00 00 00 00	 call	 ?set_event@@YGXHHHP6GXPAUEVENT@@@Z@Z ; set_event

; 2498 : 
; 2499 : 	////////////////////////////////////////
; 2500 : 
; 2501 : 	set_event (DIK_X, MODIFIER_RIGHT_CONTROL, KEY_STATE_DOWN, toggle_debug_draw_full_screen_mfd_event);

  00479	68 00 00 00 00	 push	 OFFSET ?toggle_debug_draw_full_screen_mfd_event@@YGXPAUEVENT@@@Z ; toggle_debug_draw_full_screen_mfd_event
  0047e	6a 02		 push	 2
  00480	6a 05		 push	 5
  00482	6a 2d		 push	 45			; 0000002dH
  00484	e8 00 00 00 00	 call	 ?set_event@@YGXHHHP6GXPAUEVENT@@@Z@Z ; set_event

; 2502 : 
; 2503 : 	////////////////////////////////////////
; 2504 : 
; 2505 : 	set_event (DIK_Y, MODIFIER_RIGHT_CONTROL, KEY_STATE_DOWN, toggle_in_flight_external_view_entity_guide_info_event);

  00489	68 00 00 00 00	 push	 OFFSET ?toggle_in_flight_external_view_entity_guide_info_event@@YGXPAUEVENT@@@Z ; toggle_in_flight_external_view_entity_guide_info_event
  0048e	6a 02		 push	 2
  00490	6a 05		 push	 5
  00492	6a 15		 push	 21			; 00000015H
  00494	e8 00 00 00 00	 call	 ?set_event@@YGXHHHP6GXPAUEVENT@@@Z@Z ; set_event

; 2506 : 
; 2507 : 	set_event (DIK_Y, MODIFIER_RIGHT_ALT, KEY_STATE_DOWN, create_dummy_task_event);

  00499	68 00 00 00 00	 push	 OFFSET ?create_dummy_task_event@@YGXPAUEVENT@@@Z ; create_dummy_task_event
  0049e	6a 02		 push	 2
  004a0	6a 06		 push	 6
  004a2	6a 15		 push	 21			; 00000015H
  004a4	e8 00 00 00 00	 call	 ?set_event@@YGXHHHP6GXPAUEVENT@@@Z@Z ; set_event

; 2508 : 
; 2509 : 	////////////////////////////////////////
; 2510 : 
; 2511 : 	set_event (DIK_Z, MODIFIER_RIGHT_ALT, KEY_STATE_DOWN, toggle_in_flight_zoom_test_event);

  004a9	68 00 00 00 00	 push	 OFFSET ?toggle_in_flight_zoom_test_event@@YGXPAUEVENT@@@Z ; toggle_in_flight_zoom_test_event
  004ae	6a 02		 push	 2
  004b0	6a 06		 push	 6
  004b2	6a 2c		 push	 44			; 0000002cH
  004b4	e8 00 00 00 00	 call	 ?set_event@@YGXHHHP6GXPAUEVENT@@@Z@Z ; set_event

; 2512 : 
; 2513 : 	set_event (DIK_Z, MODIFIER_RIGHT_CONTROL, KEY_STATE_DOWN, toggle_simple_avionics_event);

  004b9	68 00 00 00 00	 push	 OFFSET ?toggle_simple_avionics_event@@YGXPAUEVENT@@@Z ; toggle_simple_avionics_event
  004be	6a 02		 push	 2
  004c0	6a 05		 push	 5
  004c2	6a 2c		 push	 44			; 0000002cH
  004c4	e8 00 00 00 00	 call	 ?set_event@@YGXHHHP6GXPAUEVENT@@@Z@Z ; set_event

; 2514 : 
; 2515 : 	////////////////////////////////////////
; 2516 : 
; 2517 : 	set_event (DIK_SPACE, MODIFIER_RIGHT_SHIFT, KEY_STATE_DOWN, launch_weapon_event);

  004c9	68 00 00 00 00	 push	 OFFSET ?launch_weapon_event@@YGXPAUEVENT@@@Z ; launch_weapon_event
  004ce	6a 02		 push	 2
  004d0	6a 04		 push	 4
  004d2	6a 39		 push	 57			; 00000039H
  004d4	e8 00 00 00 00	 call	 ?set_event@@YGXHHHP6GXPAUEVENT@@@Z@Z ; set_event

; 2518 : 
; 2519 : 	set_event (DIK_SPACE, MODIFIER_RIGHT_CONTROL, KEY_STATE_DOWN, launch_persuer_weapon_event);

  004d9	68 00 00 00 00	 push	 OFFSET ?launch_persuer_weapon_event@@YGXPAUEVENT@@@Z ; launch_persuer_weapon_event
  004de	6a 02		 push	 2
  004e0	6a 05		 push	 5
  004e2	6a 39		 push	 57			; 00000039H
  004e4	e8 00 00 00 00	 call	 ?set_event@@YGXHHHP6GXPAUEVENT@@@Z@Z ; set_event

; 2520 : 
; 2521 : 	////////////////////////////////////////
; 2522 : 
; 2523 : 	set_event (DIK_0, MODIFIER_RIGHT_SHIFT, KEY_STATE_DOWN, reset_cpu_info);

  004e9	68 00 00 00 00	 push	 OFFSET ?reset_cpu_info@@YGXPAUEVENT@@@Z ; reset_cpu_info
  004ee	6a 02		 push	 2
  004f0	6a 04		 push	 4
  004f2	6a 0b		 push	 11			; 0000000bH
  004f4	e8 00 00 00 00	 call	 ?set_event@@YGXHHHP6GXPAUEVENT@@@Z@Z ; set_event

; 2524 : 
; 2525 : 	////////////////////////////////////////
; 2526 : 
; 2527 : 	set_event (DIK_F1, MODIFIER_RIGHT_ALT, KEY_STATE_DOWN, safe_view_event);

  004f9	68 00 00 00 00	 push	 OFFSET ?safe_view_event@@YGXPAUEVENT@@@Z ; safe_view_event
  004fe	6a 02		 push	 2
  00500	6a 06		 push	 6
  00502	6a 3b		 push	 59			; 0000003bH
  00504	e8 00 00 00 00	 call	 ?set_event@@YGXHHHP6GXPAUEVENT@@@Z@Z ; set_event

; 2528 : 
; 2529 : 	////////////////////////////////////////
; 2530 : 
; 2531 : 	set_event (DIK_F2, MODIFIER_RIGHT_CONTROL, KEY_STATE_DOWN, toggle_draw_collision_boxes_event);

  00509	68 00 00 00 00	 push	 OFFSET ?toggle_draw_collision_boxes_event@@YGXPAUEVENT@@@Z ; toggle_draw_collision_boxes_event
  0050e	6a 02		 push	 2
  00510	6a 05		 push	 5
  00512	6a 3c		 push	 60			; 0000003cH
  00514	e8 00 00 00 00	 call	 ?set_event@@YGXHHHP6GXPAUEVENT@@@Z@Z ; set_event

; 2532 : 
; 2533 : 	set_event (DIK_F2, MODIFIER_RIGHT_ALT, KEY_STATE_DOWN, toggle_draw_collision_box_lifetime_event);

  00519	68 00 00 00 00	 push	 OFFSET ?toggle_draw_collision_box_lifetime_event@@YGXPAUEVENT@@@Z ; toggle_draw_collision_box_lifetime_event
  0051e	6a 02		 push	 2
  00520	6a 06		 push	 6
  00522	6a 3c		 push	 60			; 0000003cH
  00524	e8 00 00 00 00	 call	 ?set_event@@YGXHHHP6GXPAUEVENT@@@Z@Z ; set_event

; 2534 : 
; 2535 : 	////////////////////////////////////////
; 2536 : 
; 2537 : 	set_event (DIK_F3, MODIFIER_RIGHT_CONTROL, KEY_STATE_DOWN, toggle_draw_radar_sweep_event);

  00529	68 00 00 00 00	 push	 OFFSET ?toggle_draw_radar_sweep_event@@YGXPAUEVENT@@@Z ; toggle_draw_radar_sweep_event
  0052e	6a 02		 push	 2
  00530	6a 05		 push	 5
  00532	6a 3d		 push	 61			; 0000003dH
  00534	e8 00 00 00 00	 call	 ?set_event@@YGXHHHP6GXPAUEVENT@@@Z@Z ; set_event

; 2538 : 
; 2539 : 	////////////////////////////////////////
; 2540 : 
; 2541 : 	set_event (DIK_F4, MODIFIER_RIGHT_CONTROL, KEY_STATE_DOWN, toggle_draw_radar_terrain_los_markers_event);

  00539	68 00 00 00 00	 push	 OFFSET ?toggle_draw_radar_terrain_los_markers_event@@YGXPAUEVENT@@@Z ; toggle_draw_radar_terrain_los_markers_event
  0053e	6a 02		 push	 2
  00540	6a 05		 push	 5
  00542	6a 3e		 push	 62			; 0000003eH
  00544	e8 00 00 00 00	 call	 ?set_event@@YGXHHHP6GXPAUEVENT@@@Z@Z ; set_event

; 2542 : 
; 2543 : 	////////////////////////////////////////
; 2544 : 
; 2545 : 	set_event (DIK_F5, MODIFIER_RIGHT_CONTROL, KEY_STATE_DOWN, toggle_gunship_object_event);

  00549	68 00 00 00 00	 push	 OFFSET ?toggle_gunship_object_event@@YGXPAUEVENT@@@Z ; toggle_gunship_object_event
  0054e	6a 02		 push	 2
  00550	6a 05		 push	 5
  00552	6a 3f		 push	 63			; 0000003fH
  00554	e8 00 00 00 00	 call	 ?set_event@@YGXHHHP6GXPAUEVENT@@@Z@Z ; set_event

; 2546 : 
; 2547 : 	set_event (DIK_F5, MODIFIER_RIGHT_ALT, KEY_STATE_DOWN, debriefing_event);

  00559	68 00 00 00 00	 push	 OFFSET ?debriefing_event@@YGXPAUEVENT@@@Z ; debriefing_event
  0055e	6a 02		 push	 2
  00560	6a 06		 push	 6
  00562	6a 3f		 push	 63			; 0000003fH
  00564	e8 00 00 00 00	 call	 ?set_event@@YGXHHHP6GXPAUEVENT@@@Z@Z ; set_event

; 2548 : 
; 2549 : 	////////////////////////////////////////
; 2550 : 
; 2551 : 	set_event (DIK_F6, MODIFIER_RIGHT_ALT, KEY_STATE_DOWN, view_wingmen_event);

  00569	68 00 00 00 00	 push	 OFFSET ?view_wingmen_event@@YGXPAUEVENT@@@Z ; view_wingmen_event
  0056e	6a 02		 push	 2
  00570	6a 06		 push	 6
  00572	6a 40		 push	 64			; 00000040H
  00574	e8 00 00 00 00	 call	 ?set_event@@YGXHHHP6GXPAUEVENT@@@Z@Z ; set_event

; 2552 : 
; 2553 : 	////////////////////////////////////////
; 2554 : 
; 2555 : 	set_event (DIK_F9, MODIFIER_RIGHT_CONTROL, KEY_STATE_DOWN, set_hires_screen_image_view_angle_1_event);

  00579	68 00 00 00 00	 push	 OFFSET ?set_hires_screen_image_view_angle_1_event@@YGXPAUEVENT@@@Z ; set_hires_screen_image_view_angle_1_event
  0057e	6a 02		 push	 2
  00580	6a 05		 push	 5
  00582	6a 43		 push	 67			; 00000043H
  00584	e8 00 00 00 00	 call	 ?set_event@@YGXHHHP6GXPAUEVENT@@@Z@Z ; set_event

; 2556 : 
; 2557 : 	set_event (DIK_F9, MODIFIER_RIGHT_ALT, KEY_STATE_DOWN, recognition_guide_top_view_event);

  00589	68 00 00 00 00	 push	 OFFSET ?recognition_guide_top_view_event@@YGXPAUEVENT@@@Z ; recognition_guide_top_view_event
  0058e	6a 02		 push	 2
  00590	6a 06		 push	 6
  00592	6a 43		 push	 67			; 00000043H
  00594	e8 00 00 00 00	 call	 ?set_event@@YGXHHHP6GXPAUEVENT@@@Z@Z ; set_event

; 2558 : 
; 2559 : 	////////////////////////////////////////
; 2560 : 
; 2561 : 	set_event (DIK_F10, MODIFIER_RIGHT_CONTROL, KEY_STATE_DOWN, set_hires_screen_image_view_angle_2_event);

  00599	68 00 00 00 00	 push	 OFFSET ?set_hires_screen_image_view_angle_2_event@@YGXPAUEVENT@@@Z ; set_hires_screen_image_view_angle_2_event
  0059e	6a 02		 push	 2
  005a0	6a 05		 push	 5
  005a2	6a 44		 push	 68			; 00000044H
  005a4	e8 00 00 00 00	 call	 ?set_event@@YGXHHHP6GXPAUEVENT@@@Z@Z ; set_event

; 2562 : 
; 2563 : 	set_event (DIK_F10, MODIFIER_RIGHT_ALT, KEY_STATE_DOWN, recognition_guide_side_view_event);

  005a9	68 00 00 00 00	 push	 OFFSET ?recognition_guide_side_view_event@@YGXPAUEVENT@@@Z ; recognition_guide_side_view_event
  005ae	6a 02		 push	 2
  005b0	6a 06		 push	 6
  005b2	6a 44		 push	 68			; 00000044H
  005b4	e8 00 00 00 00	 call	 ?set_event@@YGXHHHP6GXPAUEVENT@@@Z@Z ; set_event

; 2564 : 
; 2565 : 	////////////////////////////////////////
; 2566 : 
; 2567 : 	set_event (DIK_F11, MODIFIER_RIGHT_CONTROL, KEY_STATE_DOWN, set_hires_screen_image_view_angle_3_event);

  005b9	68 00 00 00 00	 push	 OFFSET ?set_hires_screen_image_view_angle_3_event@@YGXPAUEVENT@@@Z ; set_hires_screen_image_view_angle_3_event
  005be	6a 02		 push	 2
  005c0	6a 05		 push	 5
  005c2	6a 57		 push	 87			; 00000057H
  005c4	e8 00 00 00 00	 call	 ?set_event@@YGXHHHP6GXPAUEVENT@@@Z@Z ; set_event

; 2568 : 
; 2569 : 	set_event (DIK_F11, MODIFIER_RIGHT_ALT, KEY_STATE_DOWN, recognition_guide_front_view_event);

  005c9	68 00 00 00 00	 push	 OFFSET ?recognition_guide_front_view_event@@YGXPAUEVENT@@@Z ; recognition_guide_front_view_event
  005ce	6a 02		 push	 2
  005d0	6a 06		 push	 6
  005d2	6a 57		 push	 87			; 00000057H
  005d4	e8 00 00 00 00	 call	 ?set_event@@YGXHHHP6GXPAUEVENT@@@Z@Z ; set_event

; 2570 : 
; 2571 : 	////////////////////////////////////////
; 2572 : 
; 2573 : 	set_event (DIK_F12, MODIFIER_RIGHT_CONTROL, KEY_STATE_DOWN, set_hires_screen_image_view_angle_4_event);

  005d9	68 00 00 00 00	 push	 OFFSET ?set_hires_screen_image_view_angle_4_event@@YGXPAUEVENT@@@Z ; set_hires_screen_image_view_angle_4_event
  005de	6a 02		 push	 2
  005e0	6a 05		 push	 5
  005e2	6a 58		 push	 88			; 00000058H
  005e4	e8 00 00 00 00	 call	 ?set_event@@YGXHHHP6GXPAUEVENT@@@Z@Z ; set_event

; 2574 : 
; 2575 : 	set_event (DIK_F12, MODIFIER_RIGHT_ALT, KEY_STATE_DOWN, recognition_guide_3d_view_event);

  005e9	68 00 00 00 00	 push	 OFFSET ?recognition_guide_3d_view_event@@YGXPAUEVENT@@@Z ; recognition_guide_3d_view_event
  005ee	6a 02		 push	 2
  005f0	6a 06		 push	 6
  005f2	6a 58		 push	 88			; 00000058H
  005f4	e8 00 00 00 00	 call	 ?set_event@@YGXHHHP6GXPAUEVENT@@@Z@Z ; set_event

; 2576 : 
; 2577 : 	////////////////////////////////////////
; 2578 : 
; 2579 : 	set_event (DIK_BACKSPACE, MODIFIER_RIGHT_SHIFT, KEY_STATE_DOWN, select_previous_weapon_event);

  005f9	68 00 00 00 00	 push	 OFFSET ?select_previous_weapon_event@@YGXPAUEVENT@@@Z ; select_previous_weapon_event
  005fe	6a 02		 push	 2
  00600	6a 04		 push	 4
  00602	6a 0e		 push	 14			; 0000000eH
  00604	e8 00 00 00 00	 call	 ?set_event@@YGXHHHP6GXPAUEVENT@@@Z@Z ; set_event

; 2580 : 
; 2581 : 	set_event (DIK_BACKSPACE, MODIFIER_RIGHT_CONTROL, KEY_STATE_DOWN, select_next_weapon_event);

  00609	68 00 00 00 00	 push	 OFFSET ?select_next_weapon_event@@YGXPAUEVENT@@@Z ; select_next_weapon_event
  0060e	6a 02		 push	 2
  00610	6a 05		 push	 5
  00612	6a 0e		 push	 14			; 0000000eH
  00614	e8 00 00 00 00	 call	 ?set_event@@YGXHHHP6GXPAUEVENT@@@Z@Z ; set_event

; 2582 : 
; 2583 : 	set_event (DIK_BACKSPACE, MODIFIER_RIGHT_ALT, KEY_STATE_DOWN, select_invalid_weapon_event);

  00619	68 00 00 00 00	 push	 OFFSET ?select_invalid_weapon_event@@YGXPAUEVENT@@@Z ; select_invalid_weapon_event
  0061e	6a 02		 push	 2
  00620	6a 06		 push	 6
  00622	6a 0e		 push	 14			; 0000000eH
  00624	e8 00 00 00 00	 call	 ?set_event@@YGXHHHP6GXPAUEVENT@@@Z@Z ; set_event

; 2584 : 
; 2585 : 	////////////////////////////////////////
; 2586 : 
; 2587 : 	set_event (DIK_EQUALS, MODIFIER_RIGHT_SHIFT, KEY_STATE_DOWN, reload_weapon_config_event);

  00629	68 00 00 00 00	 push	 OFFSET ?reload_weapon_config_event@@YGXPAUEVENT@@@Z ; reload_weapon_config_event
  0062e	6a 02		 push	 2
  00630	6a 04		 push	 4
  00632	6a 0d		 push	 13			; 0000000dH
  00634	e8 00 00 00 00	 call	 ?set_event@@YGXHHHP6GXPAUEVENT@@@Z@Z ; set_event

; 2588 : 
; 2589 : 	set_event (DIK_EQUALS, MODIFIER_RIGHT_ALT, KEY_STATE_DOWN, select_next_weapon_config_event);

  00639	68 00 00 00 00	 push	 OFFSET ?select_next_weapon_config_event@@YGXPAUEVENT@@@Z ; select_next_weapon_config_event
  0063e	6a 02		 push	 2
  00640	6a 06		 push	 6
  00642	6a 0d		 push	 13			; 0000000dH
  00644	e8 00 00 00 00	 call	 ?set_event@@YGXHHHP6GXPAUEVENT@@@Z@Z ; set_event

; 2590 : 
; 2591 : 	////////////////////////////////////////
; 2592 : 
; 2593 : 	set_event (DIK_MINUS, MODIFIER_RIGHT_SHIFT, KEY_STATE_DOWN, unarm_weapon_config_event);

  00649	68 00 00 00 00	 push	 OFFSET ?unarm_weapon_config_event@@YGXPAUEVENT@@@Z ; unarm_weapon_config_event
  0064e	6a 02		 push	 2
  00650	6a 04		 push	 4
  00652	6a 0c		 push	 12			; 0000000cH
  00654	e8 00 00 00 00	 call	 ?set_event@@YGXHHHP6GXPAUEVENT@@@Z@Z ; set_event

; 2594 : 
; 2595 : 	set_event (DIK_MINUS, MODIFIER_RIGHT_ALT, KEY_STATE_DOWN, select_previous_weapon_config_event);

  00659	68 00 00 00 00	 push	 OFFSET ?select_previous_weapon_config_event@@YGXPAUEVENT@@@Z ; select_previous_weapon_config_event
  0065e	6a 02		 push	 2
  00660	6a 06		 push	 6
  00662	6a 0c		 push	 12			; 0000000cH
  00664	e8 00 00 00 00	 call	 ?set_event@@YGXHHHP6GXPAUEVENT@@@Z@Z ; set_event

; 2596 : 
; 2597 : }

  00669	5f		 pop	 edi
  0066a	5e		 pop	 esi
  0066b	5b		 pop	 ebx
  0066c	8b e5		 mov	 esp, ebp
  0066e	5d		 pop	 ebp
  0066f	c3		 ret	 0
?set_flight_debug_events@@YGXXZ ENDP			; set_flight_debug_events
_TEXT	ENDS
; Function compile flags: /Odtp /ZI
; File c:\users\nhv90\projects\eech\aphavoc\source\events\ev_debug.c
;	COMDAT ?set_ui_debug_events@@YGXXZ
_TEXT	SEGMENT
?set_ui_debug_events@@YGXXZ PROC			; set_ui_debug_events, COMDAT

; 2277 : {

  00000	55		 push	 ebp
  00001	8b ec		 mov	 ebp, esp
  00003	83 ec 40	 sub	 esp, 64			; 00000040H
  00006	53		 push	 ebx
  00007	56		 push	 esi
  00008	57		 push	 edi

; 2278 : 	set_event (DIK_S, MODIFIER_RIGHT_SHIFT, KEY_STATE_DOWN, save_ui_screen);

  00009	68 00 00 00 00	 push	 OFFSET ?save_ui_screen@@YGXPAUEVENT@@@Z ; save_ui_screen
  0000e	6a 02		 push	 2
  00010	6a 04		 push	 4
  00012	6a 1f		 push	 31			; 0000001fH
  00014	e8 00 00 00 00	 call	 ?set_event@@YGXHHHP6GXPAUEVENT@@@Z@Z ; set_event

; 2279 : 
; 2280 : 	set_event (DIK_Z, MODIFIER_RIGHT_SHIFT, KEY_STATE_DOWN, save_ui_screen);

  00019	68 00 00 00 00	 push	 OFFSET ?save_ui_screen@@YGXPAUEVENT@@@Z ; save_ui_screen
  0001e	6a 02		 push	 2
  00020	6a 04		 push	 4
  00022	6a 2c		 push	 44			; 0000002cH
  00024	e8 00 00 00 00	 call	 ?set_event@@YGXHHHP6GXPAUEVENT@@@Z@Z ; set_event

; 2281 : 
; 2282 : 	////////////////////////////////////////
; 2283 : 	// 				LANGUAGES				  //
; 2284 : 	////////////////////////////////////////
; 2285 : 
; 2286 : 	set_event (DIK_1, MODIFIER_RIGHT_CONTROL, KEY_STATE_DOWN, debug_set_current_language);

  00029	68 00 00 00 00	 push	 OFFSET ?debug_set_current_language@@YGXPAUEVENT@@@Z ; debug_set_current_language
  0002e	6a 02		 push	 2
  00030	6a 05		 push	 5
  00032	6a 02		 push	 2
  00034	e8 00 00 00 00	 call	 ?set_event@@YGXHHHP6GXPAUEVENT@@@Z@Z ; set_event

; 2287 : 
; 2288 : 	set_event (DIK_2, MODIFIER_RIGHT_CONTROL, KEY_STATE_DOWN, debug_set_current_language);

  00039	68 00 00 00 00	 push	 OFFSET ?debug_set_current_language@@YGXPAUEVENT@@@Z ; debug_set_current_language
  0003e	6a 02		 push	 2
  00040	6a 05		 push	 5
  00042	6a 03		 push	 3
  00044	e8 00 00 00 00	 call	 ?set_event@@YGXHHHP6GXPAUEVENT@@@Z@Z ; set_event

; 2289 : 
; 2290 : 	set_event (DIK_3, MODIFIER_RIGHT_CONTROL, KEY_STATE_DOWN, debug_set_current_language);

  00049	68 00 00 00 00	 push	 OFFSET ?debug_set_current_language@@YGXPAUEVENT@@@Z ; debug_set_current_language
  0004e	6a 02		 push	 2
  00050	6a 05		 push	 5
  00052	6a 04		 push	 4
  00054	e8 00 00 00 00	 call	 ?set_event@@YGXHHHP6GXPAUEVENT@@@Z@Z ; set_event

; 2291 : 
; 2292 : 	set_event (DIK_4, MODIFIER_RIGHT_CONTROL, KEY_STATE_DOWN, debug_set_current_language);

  00059	68 00 00 00 00	 push	 OFFSET ?debug_set_current_language@@YGXPAUEVENT@@@Z ; debug_set_current_language
  0005e	6a 02		 push	 2
  00060	6a 05		 push	 5
  00062	6a 05		 push	 5
  00064	e8 00 00 00 00	 call	 ?set_event@@YGXHHHP6GXPAUEVENT@@@Z@Z ; set_event

; 2293 : 
; 2294 : 	set_event (DIK_5, MODIFIER_RIGHT_CONTROL, KEY_STATE_DOWN, debug_set_current_language);

  00069	68 00 00 00 00	 push	 OFFSET ?debug_set_current_language@@YGXPAUEVENT@@@Z ; debug_set_current_language
  0006e	6a 02		 push	 2
  00070	6a 05		 push	 5
  00072	6a 06		 push	 6
  00074	e8 00 00 00 00	 call	 ?set_event@@YGXHHHP6GXPAUEVENT@@@Z@Z ; set_event

; 2295 : }

  00079	5f		 pop	 edi
  0007a	5e		 pop	 esi
  0007b	5b		 pop	 ebx
  0007c	8b e5		 mov	 esp, ebp
  0007e	5d		 pop	 ebp
  0007f	c3		 ret	 0
?set_ui_debug_events@@YGXXZ ENDP			; set_ui_debug_events
_TEXT	ENDS
END
