; Listing generated by Microsoft (R) Optimizing Compiler Version 19.16.27045.0 

	TITLE	C:\Users\nhv90\Projects\eech\aphavoc\source\events\ev_fns.c
	.686P
	.XMM
	include listing.inc
	.model	flat

INCLUDELIB MSVCRTD
INCLUDELIB OLDNAMES

PUBLIC	?ui_events@@YGXXZ				; ui_events
PUBLIC	?flight_events@@YGXXZ				; flight_events
PUBLIC	?demo_events@@YGXXZ				; demo_events
EXTRN	?breakout@@YGXPAUEVENT@@@Z:PROC			; breakout
EXTRN	?set_event@@YGXHHHP6GXPAUEVENT@@@Z@Z:PROC	; set_event
EXTRN	?ui_left_mouse_button@@YGXPAUEVENT@@@Z:PROC	; ui_left_mouse_button
EXTRN	?ui_right_mouse_button@@YGXPAUEVENT@@@Z:PROC	; ui_right_mouse_button
EXTRN	?toggle_in_flight_game_modes@@YGXPAUEVENT@@@Z:PROC ; toggle_in_flight_game_modes
EXTRN	?set_gunship_entity_to_external_view_entity@@YGXPAUEVENT@@@Z:PROC ; set_gunship_entity_to_external_view_entity
EXTRN	?set_ui_debug_events@@YGXXZ:PROC		; set_ui_debug_events
EXTRN	?set_flight_debug_events@@YGXXZ:PROC		; set_flight_debug_events
EXTRN	?save_screen_image_event@@YGXPAUEVENT@@@Z:PROC	; save_screen_image_event
EXTRN	?process_user_defined_flight_events@@YGXXZ:PROC	; process_user_defined_flight_events
EXTRN	?set_demo_view_mode_events@@YGXXZ:PROC		; set_demo_view_mode_events
EXTRN	?exit_game@@YGXPAUEVENT@@@Z:PROC		; exit_game
EXTRN	?exit_apache_havoc@@YGXPAUEVENT@@@Z:PROC	; exit_apache_havoc
EXTRN	?display_last_received_message@@YGXPAUEVENT@@@Z:PROC ; display_last_received_message
EXTRN	?start_messaging_system@@YGXPAUEVENT@@@Z:PROC	; start_messaging_system
EXTRN	?set_small_inc_time_acceleration@@YGXPAUEVENT@@@Z:PROC ; set_small_inc_time_acceleration
EXTRN	?set_small_dec_time_acceleration@@YGXPAUEVENT@@@Z:PROC ; set_small_dec_time_acceleration
EXTRN	?toggle_pause_time_acceleration@@YGXPAUEVENT@@@Z:PROC ; toggle_pause_time_acceleration
EXTRN	?ingame_quit_function@@YGXPAUEVENT@@@Z:PROC	; ingame_quit_function
EXTRN	?campaign_screen_show_external_view_entity@@YGXPAUEVENT@@@Z:PROC ; campaign_screen_show_external_view_entity
EXTRN	?generate_key_bound_triggers@@YGXXZ:PROC	; generate_key_bound_triggers
; Function compile flags: /Odtp /ZI
; File c:\users\nhv90\projects\eech\aphavoc\source\events\ev_fns.c
;	COMDAT ?demo_events@@YGXXZ
_TEXT	SEGMENT
?demo_events@@YGXXZ PROC				; demo_events, COMDAT

; 211  : {

  00000	55		 push	 ebp
  00001	8b ec		 mov	 ebp, esp
  00003	83 ec 40	 sub	 esp, 64			; 00000040H
  00006	53		 push	 ebx
  00007	56		 push	 esi
  00008	57		 push	 edi

; 212  : 	//
; 213  : 	// General
; 214  : 	//
; 215  : 
; 216  :    set_event (DIK_ESCAPE, MODIFIER_NONE, KEY_STATE_UP, exit_game);

  00009	68 00 00 00 00	 push	 OFFSET ?exit_game@@YGXPAUEVENT@@@Z ; exit_game
  0000e	6a 01		 push	 1
  00010	6a 00		 push	 0
  00012	6a 01		 push	 1
  00014	e8 00 00 00 00	 call	 ?set_event@@YGXHHHP6GXPAUEVENT@@@Z@Z ; set_event

; 217  : 
; 218  : 	set_event (DIK_Q, MODIFIER_LEFT_CONTROL, KEY_STATE_UP, exit_game);

  00019	68 00 00 00 00	 push	 OFFSET ?exit_game@@YGXPAUEVENT@@@Z ; exit_game
  0001e	6a 01		 push	 1
  00020	6a 02		 push	 2
  00022	6a 10		 push	 16			; 00000010H
  00024	e8 00 00 00 00	 call	 ?set_event@@YGXHHHP6GXPAUEVENT@@@Z@Z ; set_event

; 219  : 
; 220  : 	set_event (DIK_X, MODIFIER_LEFT_CONTROL, KEY_STATE_UP, exit_apache_havoc);

  00029	68 00 00 00 00	 push	 OFFSET ?exit_apache_havoc@@YGXPAUEVENT@@@Z ; exit_apache_havoc
  0002e	6a 01		 push	 1
  00030	6a 02		 push	 2
  00032	6a 2d		 push	 45			; 0000002dH
  00034	e8 00 00 00 00	 call	 ?set_event@@YGXHHHP6GXPAUEVENT@@@Z@Z ; set_event

; 221  : 
; 222  : 	//
; 223  : 	// time acceleration
; 224  : 	//
; 225  : 
; 226  :    set_event (DIK_EQUALS, MODIFIER_LEFT_CONTROL, KEY_STATE_DOWN, set_small_inc_time_acceleration);

  00039	68 00 00 00 00	 push	 OFFSET ?set_small_inc_time_acceleration@@YGXPAUEVENT@@@Z ; set_small_inc_time_acceleration
  0003e	6a 02		 push	 2
  00040	6a 02		 push	 2
  00042	6a 0d		 push	 13			; 0000000dH
  00044	e8 00 00 00 00	 call	 ?set_event@@YGXHHHP6GXPAUEVENT@@@Z@Z ; set_event

; 227  : 
; 228  :    set_event (DIK_MINUS, MODIFIER_LEFT_CONTROL, KEY_STATE_DOWN, set_small_dec_time_acceleration);

  00049	68 00 00 00 00	 push	 OFFSET ?set_small_dec_time_acceleration@@YGXPAUEVENT@@@Z ; set_small_dec_time_acceleration
  0004e	6a 02		 push	 2
  00050	6a 02		 push	 2
  00052	6a 0c		 push	 12			; 0000000cH
  00054	e8 00 00 00 00	 call	 ?set_event@@YGXHHHP6GXPAUEVENT@@@Z@Z ; set_event

; 229  : 
; 230  :    set_event (DIK_P, MODIFIER_NONE, KEY_STATE_DOWN, toggle_pause_time_acceleration);

  00059	68 00 00 00 00	 push	 OFFSET ?toggle_pause_time_acceleration@@YGXPAUEVENT@@@Z ; toggle_pause_time_acceleration
  0005e	6a 02		 push	 2
  00060	6a 00		 push	 0
  00062	6a 19		 push	 25			; 00000019H
  00064	e8 00 00 00 00	 call	 ?set_event@@YGXHHHP6GXPAUEVENT@@@Z@Z ; set_event

; 231  : 
; 232  : 	//
; 233  : 	//
; 234  : 	//
; 235  : 
; 236  : #if ( OEM_3DLABS_VERSION )
; 237  : 
; 238  : 	set_event ( DIK_1, MODIFIER_NONE, KEY_STATE_DOWN, increase_3d_resolutions );
; 239  : 
; 240  : 	set_event ( DIK_1, MODIFIER_LEFT_SHIFT, KEY_STATE_DOWN, decrease_3d_resolutions );
; 241  : 
; 242  : 	set_event ( DIK_2, MODIFIER_NONE, KEY_STATE_DOWN, cycle_3d_colourdepth );
; 243  : 
; 244  : 	set_event ( DIK_3, MODIFIER_NONE, KEY_STATE_DOWN, toggle_3d_object_lod_calculations );
; 245  : 
; 246  : 	set_event ( DIK_I, MODIFIER_NONE, KEY_STATE_DOWN, toggle_3d_information );
; 247  : 
; 248  : #endif
; 249  : 
; 250  : 	set_demo_view_mode_events ();

  00069	e8 00 00 00 00	 call	 ?set_demo_view_mode_events@@YGXXZ ; set_demo_view_mode_events

; 251  : }

  0006e	5f		 pop	 edi
  0006f	5e		 pop	 esi
  00070	5b		 pop	 ebx
  00071	8b e5		 mov	 esp, ebp
  00073	5d		 pop	 ebp
  00074	c3		 ret	 0
?demo_events@@YGXXZ ENDP				; demo_events
_TEXT	ENDS
; Function compile flags: /Odtp /ZI
; File c:\users\nhv90\projects\eech\aphavoc\source\events\ev_fns.c
;	COMDAT ?flight_events@@YGXXZ
_TEXT	SEGMENT
?flight_events@@YGXXZ PROC				; flight_events, COMDAT

; 122  : {

  00000	55		 push	 ebp
  00001	8b ec		 mov	 ebp, esp
  00003	83 ec 40	 sub	 esp, 64			; 00000040H
  00006	53		 push	 ebx
  00007	56		 push	 esi
  00008	57		 push	 edi

; 123  : 
; 124  : 	//
; 125  : 	// Mouse buttons
; 126  : 	//
; 127  : 
; 128  : 	set_event (MOUSE_LEFT_BUTTON, MODIFIER_NONE, BUTTON_STATE_EITHER, ui_left_mouse_button);

  00009	68 00 00 00 00	 push	 OFFSET ?ui_left_mouse_button@@YGXPAUEVENT@@@Z ; ui_left_mouse_button
  0000e	6a 03		 push	 3
  00010	6a 00		 push	 0
  00012	68 00 01 00 00	 push	 256			; 00000100H
  00017	e8 00 00 00 00	 call	 ?set_event@@YGXHHHP6GXPAUEVENT@@@Z@Z ; set_event

; 129  : 
; 130  : 	set_event (MOUSE_RIGHT_BUTTON, MODIFIER_NONE, BUTTON_STATE_EITHER, ui_right_mouse_button);

  0001c	68 00 00 00 00	 push	 OFFSET ?ui_right_mouse_button@@YGXPAUEVENT@@@Z ; ui_right_mouse_button
  00021	6a 03		 push	 3
  00023	6a 00		 push	 0
  00025	68 01 01 00 00	 push	 257			; 00000101H
  0002a	e8 00 00 00 00	 call	 ?set_event@@YGXHHHP6GXPAUEVENT@@@Z@Z ; set_event

; 131  : 
; 132  : 	//
; 133  : 	// General
; 134  : 	//
; 135  : 
; 136  : 	set_event (DIK_X, MODIFIER_LEFT_CONTROL, KEY_STATE_UP, exit_apache_havoc);

  0002f	68 00 00 00 00	 push	 OFFSET ?exit_apache_havoc@@YGXPAUEVENT@@@Z ; exit_apache_havoc
  00034	6a 01		 push	 1
  00036	6a 02		 push	 2
  00038	6a 2d		 push	 45			; 0000002dH
  0003a	e8 00 00 00 00	 call	 ?set_event@@YGXHHHP6GXPAUEVENT@@@Z@Z ; set_event

; 137  : 
; 138  : 	set_event (DIK_Q, MODIFIER_LEFT_CONTROL, KEY_STATE_UP, ingame_quit_function);

  0003f	68 00 00 00 00	 push	 OFFSET ?ingame_quit_function@@YGXPAUEVENT@@@Z ; ingame_quit_function
  00044	6a 01		 push	 1
  00046	6a 02		 push	 2
  00048	6a 10		 push	 16			; 00000010H
  0004a	e8 00 00 00 00	 call	 ?set_event@@YGXHHHP6GXPAUEVENT@@@Z@Z ; set_event

; 139  : 
; 140  :    set_event (DIK_RETURN, MODIFIER_NONE, KEY_STATE_DOWN, toggle_in_flight_game_modes);

  0004f	68 00 00 00 00	 push	 OFFSET ?toggle_in_flight_game_modes@@YGXPAUEVENT@@@Z ; toggle_in_flight_game_modes
  00054	6a 02		 push	 2
  00056	6a 00		 push	 0
  00058	6a 1c		 push	 28			; 0000001cH
  0005a	e8 00 00 00 00	 call	 ?set_event@@YGXHHHP6GXPAUEVENT@@@Z@Z ; set_event

; 141  : 
; 142  :    set_event (DIK_RETURN, MODIFIER_LEFT_SHIFT, KEY_STATE_DOWN, campaign_screen_show_external_view_entity);

  0005f	68 00 00 00 00	 push	 OFFSET ?campaign_screen_show_external_view_entity@@YGXPAUEVENT@@@Z ; campaign_screen_show_external_view_entity
  00064	6a 02		 push	 2
  00066	6a 01		 push	 1
  00068	6a 1c		 push	 28			; 0000001cH
  0006a	e8 00 00 00 00	 call	 ?set_event@@YGXHHHP6GXPAUEVENT@@@Z@Z ; set_event

; 143  : 
; 144  : 	#if DEMO_VERSION
; 145  : 
; 146  : 	set_event (DIK_U, MODIFIER_NONE, KEY_STATE_DOWN, feature_disabled_event);
; 147  : 
; 148  : 	#else
; 149  : 
; 150  : 	set_event (DIK_U, MODIFIER_NONE, KEY_STATE_DOWN, set_gunship_entity_to_external_view_entity);

  0006f	68 00 00 00 00	 push	 OFFSET ?set_gunship_entity_to_external_view_entity@@YGXPAUEVENT@@@Z ; set_gunship_entity_to_external_view_entity
  00074	6a 02		 push	 2
  00076	6a 00		 push	 0
  00078	6a 16		 push	 22			; 00000016H
  0007a	e8 00 00 00 00	 call	 ?set_event@@YGXHHHP6GXPAUEVENT@@@Z@Z ; set_event

; 151  : 
; 152  : 	#endif
; 153  : 
; 154  : 	//
; 155  : 	// time acceleration
; 156  : 	//
; 157  : 
; 158  :    set_event (DIK_EQUALS, MODIFIER_LEFT_CONTROL, KEY_STATE_DOWN, set_small_inc_time_acceleration);

  0007f	68 00 00 00 00	 push	 OFFSET ?set_small_inc_time_acceleration@@YGXPAUEVENT@@@Z ; set_small_inc_time_acceleration
  00084	6a 02		 push	 2
  00086	6a 02		 push	 2
  00088	6a 0d		 push	 13			; 0000000dH
  0008a	e8 00 00 00 00	 call	 ?set_event@@YGXHHHP6GXPAUEVENT@@@Z@Z ; set_event

; 159  : 
; 160  :    set_event (DIK_MINUS, MODIFIER_LEFT_CONTROL, KEY_STATE_DOWN, set_small_dec_time_acceleration);

  0008f	68 00 00 00 00	 push	 OFFSET ?set_small_dec_time_acceleration@@YGXPAUEVENT@@@Z ; set_small_dec_time_acceleration
  00094	6a 02		 push	 2
  00096	6a 02		 push	 2
  00098	6a 0c		 push	 12			; 0000000cH
  0009a	e8 00 00 00 00	 call	 ?set_event@@YGXHHHP6GXPAUEVENT@@@Z@Z ; set_event

; 161  : 
; 162  : 	// for keyboards that don't support the +/- in the normal place (Japanese?)
; 163  :    set_event (DIK_NUMPADPLUS, MODIFIER_LEFT_CONTROL, KEY_STATE_DOWN, set_small_inc_time_acceleration);

  0009f	68 00 00 00 00	 push	 OFFSET ?set_small_inc_time_acceleration@@YGXPAUEVENT@@@Z ; set_small_inc_time_acceleration
  000a4	6a 02		 push	 2
  000a6	6a 02		 push	 2
  000a8	6a 4e		 push	 78			; 0000004eH
  000aa	e8 00 00 00 00	 call	 ?set_event@@YGXHHHP6GXPAUEVENT@@@Z@Z ; set_event

; 164  : 
; 165  :    set_event (DIK_NUMPADMINUS, MODIFIER_LEFT_CONTROL, KEY_STATE_DOWN, set_small_dec_time_acceleration);

  000af	68 00 00 00 00	 push	 OFFSET ?set_small_dec_time_acceleration@@YGXPAUEVENT@@@Z ; set_small_dec_time_acceleration
  000b4	6a 02		 push	 2
  000b6	6a 02		 push	 2
  000b8	6a 4a		 push	 74			; 0000004aH
  000ba	e8 00 00 00 00	 call	 ?set_event@@YGXHHHP6GXPAUEVENT@@@Z@Z ; set_event

; 166  : 
; 167  :    set_event (DIK_P, MODIFIER_NONE, KEY_STATE_DOWN, toggle_pause_time_acceleration);

  000bf	68 00 00 00 00	 push	 OFFSET ?toggle_pause_time_acceleration@@YGXPAUEVENT@@@Z ; toggle_pause_time_acceleration
  000c4	6a 02		 push	 2
  000c6	6a 00		 push	 0
  000c8	6a 19		 push	 25			; 00000019H
  000ca	e8 00 00 00 00	 call	 ?set_event@@YGXHHHP6GXPAUEVENT@@@Z@Z ; set_event

; 168  : 
; 169  : 	//
; 170  : 	// screen shots
; 171  : 	//
; 172  : 
; 173  : 	set_event (DIK_SYSRQ, MODIFIER_NONE, KEY_STATE_DOWN, save_screen_image_event);

  000cf	68 00 00 00 00	 push	 OFFSET ?save_screen_image_event@@YGXPAUEVENT@@@Z ; save_screen_image_event
  000d4	6a 02		 push	 2
  000d6	6a 00		 push	 0
  000d8	68 b7 00 00 00	 push	 183			; 000000b7H
  000dd	e8 00 00 00 00	 call	 ?set_event@@YGXHHHP6GXPAUEVENT@@@Z@Z ; set_event

; 174  : 
; 175  : 	//
; 176  : 	// messaging system
; 177  : 	//
; 178  : 
; 179  : 	set_event (DIK_TAB, MODIFIER_NONE, KEY_STATE_DOWN, start_messaging_system);

  000e2	68 00 00 00 00	 push	 OFFSET ?start_messaging_system@@YGXPAUEVENT@@@Z ; start_messaging_system
  000e7	6a 02		 push	 2
  000e9	6a 00		 push	 0
  000eb	6a 0f		 push	 15			; 0000000fH
  000ed	e8 00 00 00 00	 call	 ?set_event@@YGXHHHP6GXPAUEVENT@@@Z@Z ; set_event

; 180  : 
; 181  : 	set_event (DIK_TAB, MODIFIER_LEFT_CONTROL, KEY_STATE_DOWN, display_last_received_message);

  000f2	68 00 00 00 00	 push	 OFFSET ?display_last_received_message@@YGXPAUEVENT@@@Z ; display_last_received_message
  000f7	6a 02		 push	 2
  000f9	6a 02		 push	 2
  000fb	6a 0f		 push	 15			; 0000000fH
  000fd	e8 00 00 00 00	 call	 ?set_event@@YGXHHHP6GXPAUEVENT@@@Z@Z ; set_event

; 182  : 
; 183  : 	#ifndef COMMERCIAL
; 184  : 
; 185  :    set_event (DIK_SCROLL, MODIFIER_NONE, KEY_STATE_DOWN, breakout);

  00102	68 00 00 00 00	 push	 OFFSET ?breakout@@YGXPAUEVENT@@@Z ; breakout
  00107	6a 02		 push	 2
  00109	6a 00		 push	 0
  0010b	6a 46		 push	 70			; 00000046H
  0010d	e8 00 00 00 00	 call	 ?set_event@@YGXHHHP6GXPAUEVENT@@@Z@Z ; set_event

; 186  : 
; 187  : 	set_flight_debug_events ();

  00112	e8 00 00 00 00	 call	 ?set_flight_debug_events@@YGXXZ ; set_flight_debug_events

; 188  : 
; 189  : 	// debug time acceleration
; 190  : 
; 191  :    //set_event (DIK_MINUS, MODIFIER_RIGHT_SHIFT, KEY_STATE_DOWN, set_min_time_acceleration);
; 192  : 
; 193  :    //set_event (DIK_EQUALS, MODIFIER_RIGHT_SHIFT, KEY_STATE_DOWN, set_big_inc_time_acceleration);
; 194  : 
; 195  :    //set_event (DIK_EQUALS, MODIFIER_RIGHT_CONTROL, KEY_STATE_DOWN, set_small_inc_time_acceleration);
; 196  : 
; 197  :    //set_event (DIK_MINUS, MODIFIER_RIGHT_CONTROL, KEY_STATE_DOWN, set_small_dec_time_acceleration);
; 198  : 
; 199  : 	#endif
; 200  : 
; 201  :    process_user_defined_flight_events ();

  00117	e8 00 00 00 00	 call	 ?process_user_defined_flight_events@@YGXXZ ; process_user_defined_flight_events

; 202  : 
; 203  : 	generate_key_bound_triggers ();

  0011c	e8 00 00 00 00	 call	 ?generate_key_bound_triggers@@YGXXZ ; generate_key_bound_triggers

; 204  : }

  00121	5f		 pop	 edi
  00122	5e		 pop	 esi
  00123	5b		 pop	 ebx
  00124	8b e5		 mov	 esp, ebp
  00126	5d		 pop	 ebp
  00127	c3		 ret	 0
?flight_events@@YGXXZ ENDP				; flight_events
_TEXT	ENDS
; Function compile flags: /Odtp /ZI
; File c:\users\nhv90\projects\eech\aphavoc\source\events\ev_fns.c
;	COMDAT ?ui_events@@YGXXZ
_TEXT	SEGMENT
?ui_events@@YGXXZ PROC					; ui_events, COMDAT

; 75   : {

  00000	55		 push	 ebp
  00001	8b ec		 mov	 ebp, esp
  00003	83 ec 40	 sub	 esp, 64			; 00000040H
  00006	53		 push	 ebx
  00007	56		 push	 esi
  00008	57		 push	 edi

; 76   : 
; 77   : 	//
; 78   : 	// general keys
; 79   : 	//
; 80   : 
; 81   : 	set_event (DIK_X, MODIFIER_LEFT_CONTROL, KEY_STATE_UP, exit_apache_havoc);

  00009	68 00 00 00 00	 push	 OFFSET ?exit_apache_havoc@@YGXPAUEVENT@@@Z ; exit_apache_havoc
  0000e	6a 01		 push	 1
  00010	6a 02		 push	 2
  00012	6a 2d		 push	 45			; 0000002dH
  00014	e8 00 00 00 00	 call	 ?set_event@@YGXHHHP6GXPAUEVENT@@@Z@Z ; set_event

; 82   : 
; 83   : 	//
; 84   : 	// mouse buttons
; 85   : 	//
; 86   : 
; 87   : 	set_event (MOUSE_LEFT_BUTTON, MODIFIER_NONE, BUTTON_STATE_EITHER, ui_left_mouse_button);

  00019	68 00 00 00 00	 push	 OFFSET ?ui_left_mouse_button@@YGXPAUEVENT@@@Z ; ui_left_mouse_button
  0001e	6a 03		 push	 3
  00020	6a 00		 push	 0
  00022	68 00 01 00 00	 push	 256			; 00000100H
  00027	e8 00 00 00 00	 call	 ?set_event@@YGXHHHP6GXPAUEVENT@@@Z@Z ; set_event

; 88   : 
; 89   : 	set_event (MOUSE_RIGHT_BUTTON, MODIFIER_NONE, BUTTON_STATE_EITHER, ui_right_mouse_button);

  0002c	68 00 00 00 00	 push	 OFFSET ?ui_right_mouse_button@@YGXPAUEVENT@@@Z ; ui_right_mouse_button
  00031	6a 03		 push	 3
  00033	6a 00		 push	 0
  00035	68 01 01 00 00	 push	 257			; 00000101H
  0003a	e8 00 00 00 00	 call	 ?set_event@@YGXHHHP6GXPAUEVENT@@@Z@Z ; set_event

; 90   : 
; 91   : 	//
; 92   : 	// debug
; 93   : 	//
; 94   : 
; 95   : 	#ifndef COMMERCIAL
; 96   : 
; 97   : 	set_event (DIK_SCROLL, MODIFIER_NONE, KEY_STATE_UP, breakout);

  0003f	68 00 00 00 00	 push	 OFFSET ?breakout@@YGXPAUEVENT@@@Z ; breakout
  00044	6a 01		 push	 1
  00046	6a 00		 push	 0
  00048	6a 46		 push	 70			; 00000046H
  0004a	e8 00 00 00 00	 call	 ?set_event@@YGXHHHP6GXPAUEVENT@@@Z@Z ; set_event

; 98   : 
; 99   : 	set_ui_debug_events ();

  0004f	e8 00 00 00 00	 call	 ?set_ui_debug_events@@YGXXZ ; set_ui_debug_events

; 100  : 
; 101  : 	#endif
; 102  : }

  00054	5f		 pop	 edi
  00055	5e		 pop	 esi
  00056	5b		 pop	 ebx
  00057	8b e5		 mov	 esp, ebp
  00059	5d		 pop	 ebp
  0005a	c3		 ret	 0
?ui_events@@YGXXZ ENDP					; ui_events
_TEXT	ENDS
END
