; Listing generated by Microsoft (R) Optimizing Compiler Version 19.16.27045.0 

	TITLE	C:\Users\nhv90\Projects\eech\aphavoc\source\ui_menu\exit\exit_sc.c
	.686P
	.XMM
	include listing.inc
	.model	flat

INCLUDELIB MSVCRTD
INCLUDELIB OLDNAMES

PUBLIC	?exit_back_button@@3PAUUI_OBJECT@@A		; exit_back_button
PUBLIC	?exit_screen_text@@3PAUUI_OBJECT@@A		; exit_screen_text
PUBLIC	?exit_forward_button@@3PAUUI_OBJECT@@A		; exit_forward_button
PUBLIC	?exit_screen@@3PAUUI_OBJECT@@A			; exit_screen
PUBLIC	?exit_screen_graphic@@3PAUTEXTURE_GRAPHIC@@A	; exit_screen_graphic
_BSS	SEGMENT
?exit_back_button@@3PAUUI_OBJECT@@A DD 01H DUP (?)	; exit_back_button
?exit_screen_text@@3PAUUI_OBJECT@@A DD 01H DUP (?)	; exit_screen_text
?exit_forward_button@@3PAUUI_OBJECT@@A DD 01H DUP (?)	; exit_forward_button
?exit_screen@@3PAUUI_OBJECT@@A DD 01H DUP (?)		; exit_screen
?exit_screen_graphic@@3PAUTEXTURE_GRAPHIC@@A DD 01H DUP (?) ; exit_screen_graphic
_BSS	ENDS
PUBLIC	?initialise_exit_screen@@YGXXZ			; initialise_exit_screen
PUBLIC	?notify_exit_yes_button@@YGXPAUUI_OBJECT@@PAX@Z	; notify_exit_yes_button
PUBLIC	??_C@_0BN@CCLGGFMG@graphics?2ui?2cohokum?2exit?4psd@ ; `string'
PUBLIC	__real@3ef0a3d7
PUBLIC	__real@3f000000
PUBLIC	__real@3f800000
EXTRN	?blit_front_buffer_to_render_buffer@@YGXXZ:PROC	; blit_front_buffer_to_render_buffer
EXTRN	?create_texture_graphic@@YGPAUTEXTURE_GRAPHIC@@PBD@Z:PROC ; create_texture_graphic
EXTRN	?destroy_texture_graphic@@YGXPAUTEXTURE_GRAPHIC@@@Z:PROC ; destroy_texture_graphic
EXTRN	?set_exit_ui@@YGXH@Z:PROC			; set_exit_ui
EXTRN	?create_ui_object@@YAPAUUI_OBJECT@@HZZ:PROC	; create_ui_object
EXTRN	?reset_time_values@@YGXPAUUI_OBJECT@@@Z:PROC	; reset_time_values
EXTRN	?fn_get_ui_object_drawable@@3PAP6GHPAUUI_OBJECT@@@ZA:BYTE ; fn_get_ui_object_drawable
EXTRN	?fn_set_ui_object_redraw@@3PAP6GXPAUUI_OBJECT@@H@ZA:BYTE ; fn_set_ui_object_redraw
EXTRN	?fn_set_ui_object_graphic@@3PAP6GXPAUUI_OBJECT@@PAG@ZA:BYTE ; fn_set_ui_object_graphic
EXTRN	?fn_set_ui_object_texture_graphic@@3PAP6GXPAUUI_OBJECT@@PAUTEXTURE_GRAPHIC@@@ZA:BYTE ; fn_set_ui_object_texture_graphic
EXTRN	?fn_set_ui_object_graphic_type@@3PAP6GXPAUUI_OBJECT@@H@ZA:BYTE ; fn_set_ui_object_graphic_type
EXTRN	?graphics_files@@3PAUFILE_DATA@@A:BYTE		; graphics_files
EXTRN	__fltused:DWORD
;	COMDAT __real@3f800000
CONST	SEGMENT
__real@3f800000 DD 03f800000r			; 1
CONST	ENDS
;	COMDAT __real@3f000000
CONST	SEGMENT
__real@3f000000 DD 03f000000r			; 0.5
CONST	ENDS
;	COMDAT __real@3ef0a3d7
CONST	SEGMENT
__real@3ef0a3d7 DD 03ef0a3d7r			; 0.47
CONST	ENDS
;	COMDAT ??_C@_0BN@CCLGGFMG@graphics?2ui?2cohokum?2exit?4psd@
CONST	SEGMENT
??_C@_0BN@CCLGGFMG@graphics?2ui?2cohokum?2exit?4psd@ DB 'graphics\ui\coho'
	DB	'kum\exit.psd', 00H				; `string'
CONST	ENDS
; Function compile flags: /Odtp /ZI
; File c:\users\nhv90\projects\eech\aphavoc\source\ui_menu\exit\exit_sc.c
;	COMDAT ?notify_exit_screen@@YGXPAUUI_OBJECT@@PAX@Z
_TEXT	SEGMENT
_obj$ = 8						; size = 4
_arg$ = 12						; size = 4
?notify_exit_screen@@YGXPAUUI_OBJECT@@PAX@Z PROC	; notify_exit_screen, COMDAT

; 187  : {

  00000	55		 push	 ebp
  00001	8b ec		 mov	 ebp, esp
  00003	83 ec 40	 sub	 esp, 64			; 00000040H
  00006	53		 push	 ebx
  00007	56		 push	 esi
  00008	57		 push	 edi

; 188  : 
; 189  : 	if ( get_ui_object_drawable ( obj ) )

  00009	8b 45 08	 mov	 eax, DWORD PTR _obj$[ebp]
  0000c	50		 push	 eax
  0000d	8b 4d 08	 mov	 ecx, DWORD PTR _obj$[ebp]
  00010	8b 11		 mov	 edx, DWORD PTR [ecx]
  00012	8b 04 95 00 00
	00 00		 mov	 eax, DWORD PTR ?fn_get_ui_object_drawable@@3PAP6GHPAUUI_OBJECT@@@ZA[edx*4]
  00019	ff d0		 call	 eax
  0001b	85 c0		 test	 eax, eax
  0001d	74 64		 je	 SHORT $LN2@notify_exi

; 190  : 	{
; 191  : 		
; 192  : 		//
; 193  : 		// Setup screen graphics
; 194  : 		//
; 195  : 	
; 196  : 		blit_front_buffer_to_render_buffer ();

  0001f	e8 00 00 00 00	 call	 ?blit_front_buffer_to_render_buffer@@YGXXZ ; blit_front_buffer_to_render_buffer

; 197  : 	
; 198  : 		if (exit_screen_graphic)

  00024	83 3d 00 00 00
	00 00		 cmp	 DWORD PTR ?exit_screen_graphic@@3PAUTEXTURE_GRAPHIC@@A, 0 ; exit_screen_graphic
  0002b	74 15		 je	 SHORT $LN4@notify_exi

; 199  : 		{
; 200  : 		
; 201  : 			destroy_texture_graphic (exit_screen_graphic);

  0002d	a1 00 00 00 00	 mov	 eax, DWORD PTR ?exit_screen_graphic@@3PAUTEXTURE_GRAPHIC@@A ; exit_screen_graphic
  00032	50		 push	 eax
  00033	e8 00 00 00 00	 call	 ?destroy_texture_graphic@@YGXPAUTEXTURE_GRAPHIC@@@Z ; destroy_texture_graphic

; 202  : 	
; 203  : 			exit_screen_graphic = NULL;

  00038	c7 05 00 00 00
	00 00 00 00 00	 mov	 DWORD PTR ?exit_screen_graphic@@3PAUTEXTURE_GRAPHIC@@A, 0 ; exit_screen_graphic
$LN4@notify_exi:

; 204  : 		}
; 205  : 		
; 206  : 		exit_screen_graphic = create_texture_graphic ("graphics\\ui\\cohokum\\exit.psd");

  00042	68 00 00 00 00	 push	 OFFSET ??_C@_0BN@CCLGGFMG@graphics?2ui?2cohokum?2exit?4psd@
  00047	e8 00 00 00 00	 call	 ?create_texture_graphic@@YGPAUTEXTURE_GRAPHIC@@PBD@Z ; create_texture_graphic
  0004c	a3 00 00 00 00	 mov	 DWORD PTR ?exit_screen_graphic@@3PAUTEXTURE_GRAPHIC@@A, eax ; exit_screen_graphic

; 207  : 		
; 208  : 		set_ui_object_texture_graphic (exit_screen, exit_screen_graphic);

  00051	a1 00 00 00 00	 mov	 eax, DWORD PTR ?exit_screen_graphic@@3PAUTEXTURE_GRAPHIC@@A ; exit_screen_graphic
  00056	50		 push	 eax
  00057	8b 0d 00 00 00
	00		 mov	 ecx, DWORD PTR ?exit_screen@@3PAUUI_OBJECT@@A ; exit_screen
  0005d	51		 push	 ecx
  0005e	8b 15 00 00 00
	00		 mov	 edx, DWORD PTR ?exit_screen@@3PAUUI_OBJECT@@A ; exit_screen
  00064	8b 02		 mov	 eax, DWORD PTR [edx]
  00066	8b 0c 85 00 00
	00 00		 mov	 ecx, DWORD PTR ?fn_set_ui_object_texture_graphic@@3PAP6GXPAUUI_OBJECT@@PAUTEXTURE_GRAPHIC@@@ZA[eax*4]
  0006d	ff d1		 call	 ecx

; 209  : 		
; 210  : 		reset_time_values (exit_screen);

  0006f	a1 00 00 00 00	 mov	 eax, DWORD PTR ?exit_screen@@3PAUUI_OBJECT@@A ; exit_screen
  00074	50		 push	 eax
  00075	e8 00 00 00 00	 call	 ?reset_time_values@@YGXPAUUI_OBJECT@@@Z ; reset_time_values

; 211  : 
; 212  : 		set_exit_ui (TRUE);

  0007a	6a 01		 push	 1
  0007c	e8 00 00 00 00	 call	 ?set_exit_ui@@YGXH@Z	; set_exit_ui

; 213  : 	}
; 214  : 	else

  00081	eb 1e		 jmp	 SHORT $LN1@notify_exi
$LN2@notify_exi:

; 215  : 	{
; 216  : 
; 217  : 		if (exit_screen_graphic)

  00083	83 3d 00 00 00
	00 00		 cmp	 DWORD PTR ?exit_screen_graphic@@3PAUTEXTURE_GRAPHIC@@A, 0 ; exit_screen_graphic
  0008a	74 15		 je	 SHORT $LN1@notify_exi

; 218  : 		{
; 219  : 	
; 220  : 			destroy_texture_graphic (exit_screen_graphic);

  0008c	a1 00 00 00 00	 mov	 eax, DWORD PTR ?exit_screen_graphic@@3PAUTEXTURE_GRAPHIC@@A ; exit_screen_graphic
  00091	50		 push	 eax
  00092	e8 00 00 00 00	 call	 ?destroy_texture_graphic@@YGXPAUTEXTURE_GRAPHIC@@@Z ; destroy_texture_graphic

; 221  : 
; 222  : 			exit_screen_graphic = NULL;

  00097	c7 05 00 00 00
	00 00 00 00 00	 mov	 DWORD PTR ?exit_screen_graphic@@3PAUTEXTURE_GRAPHIC@@A, 0 ; exit_screen_graphic
$LN1@notify_exi:

; 223  : 		}
; 224  : 	}
; 225  : }

  000a1	5f		 pop	 edi
  000a2	5e		 pop	 esi
  000a3	5b		 pop	 ebx
  000a4	8b e5		 mov	 esp, ebp
  000a6	5d		 pop	 ebp
  000a7	c2 08 00	 ret	 8
?notify_exit_screen@@YGXPAUUI_OBJECT@@PAX@Z ENDP	; notify_exit_screen
_TEXT	ENDS
; Function compile flags: /Odtp /ZI
; File c:\users\nhv90\projects\eech\aphavoc\source\ui_menu\exit\exit_sc.c
;	COMDAT ?notify_exit_yes_button@@YGXPAUUI_OBJECT@@PAX@Z
_TEXT	SEGMENT
_obj$ = 8						; size = 4
_arg$ = 12						; size = 4
?notify_exit_yes_button@@YGXPAUUI_OBJECT@@PAX@Z PROC	; notify_exit_yes_button, COMDAT

; 264  : {

  00000	55		 push	 ebp
  00001	8b ec		 mov	 ebp, esp
  00003	83 ec 40	 sub	 esp, 64			; 00000040H
  00006	53		 push	 ebx
  00007	56		 push	 esi
  00008	57		 push	 edi

; 265  : 
; 266  : 	if ( ( int ) arg == BUTTON_STATE_DOWN )

  00009	83 7d 0c 02	 cmp	 DWORD PTR _arg$[ebp], 2
  0000d	75 3f		 jne	 SHORT $LN2@notify_exi

; 267  : 	{
; 268  : 
; 269  : 		set_ui_object_graphic ( obj, ( unsigned short int * ) get_graphics_file_data ( GRAPHICS_UI_APACHE_PLANNER_BACK_BUTTON_SELECTED ) );

  0000f	b8 28 00 00 00	 mov	 eax, 40			; 00000028H
  00014	69 c8 60 01 00
	00		 imul	 ecx, eax, 352
  0001a	8b 91 1c 00 00
	00		 mov	 edx, DWORD PTR ?graphics_files@@3PAUFILE_DATA@@A[ecx+28]
  00020	52		 push	 edx
  00021	8b 45 08	 mov	 eax, DWORD PTR _obj$[ebp]
  00024	50		 push	 eax
  00025	8b 4d 08	 mov	 ecx, DWORD PTR _obj$[ebp]
  00028	8b 11		 mov	 edx, DWORD PTR [ecx]
  0002a	8b 04 95 00 00
	00 00		 mov	 eax, DWORD PTR ?fn_set_ui_object_graphic@@3PAP6GXPAUUI_OBJECT@@PAG@ZA[edx*4]
  00031	ff d0		 call	 eax

; 270  : 
; 271  : 		set_ui_object_redraw ( exit_screen, TRUE );

  00033	6a 01		 push	 1
  00035	a1 00 00 00 00	 mov	 eax, DWORD PTR ?exit_screen@@3PAUUI_OBJECT@@A ; exit_screen
  0003a	50		 push	 eax
  0003b	8b 0d 00 00 00
	00		 mov	 ecx, DWORD PTR ?exit_screen@@3PAUUI_OBJECT@@A ; exit_screen
  00041	8b 11		 mov	 edx, DWORD PTR [ecx]
  00043	8b 04 95 00 00
	00 00		 mov	 eax, DWORD PTR ?fn_set_ui_object_redraw@@3PAP6GXPAUUI_OBJECT@@H@ZA[edx*4]
  0004a	ff d0		 call	 eax
  0004c	eb 70		 jmp	 SHORT $LN3@notify_exi
$LN2@notify_exi:

; 272  : 	}
; 273  : 	else if ( ( int ) arg == BUTTON_STATE_UP )

  0004e	83 7d 0c 01	 cmp	 DWORD PTR _arg$[ebp], 1
  00052	75 2d		 jne	 SHORT $LN4@notify_exi

; 274  : 	{
; 275  : 
; 276  : 		set_ui_object_graphic ( obj, ( unsigned short int * ) get_graphics_file_data ( GRAPHICS_UI_APACHE_PLANNER_BACK_BUTTON_UNSELECTED ) );

  00054	b8 28 00 00 00	 mov	 eax, 40			; 00000028H
  00059	69 c8 5f 01 00
	00		 imul	 ecx, eax, 351
  0005f	8b 91 1c 00 00
	00		 mov	 edx, DWORD PTR ?graphics_files@@3PAUFILE_DATA@@A[ecx+28]
  00065	52		 push	 edx
  00066	8b 45 08	 mov	 eax, DWORD PTR _obj$[ebp]
  00069	50		 push	 eax
  0006a	8b 4d 08	 mov	 ecx, DWORD PTR _obj$[ebp]
  0006d	8b 11		 mov	 edx, DWORD PTR [ecx]
  0006f	8b 04 95 00 00
	00 00		 mov	 eax, DWORD PTR ?fn_set_ui_object_graphic@@3PAP6GXPAUUI_OBJECT@@PAG@ZA[edx*4]
  00076	ff d0		 call	 eax

; 277  : 
; 278  : 		set_exit_ui (TRUE);

  00078	6a 01		 push	 1
  0007a	e8 00 00 00 00	 call	 ?set_exit_ui@@YGXH@Z	; set_exit_ui

; 279  : 	}
; 280  : 	else 

  0007f	eb 3d		 jmp	 SHORT $LN3@notify_exi
$LN4@notify_exi:

; 281  : 	{
; 282  : 
; 283  : 		set_ui_object_graphic ( obj, ( unsigned short int * ) get_graphics_file_data ( GRAPHICS_UI_APACHE_PLANNER_BACK_BUTTON_UNSELECTED ) );

  00081	b8 28 00 00 00	 mov	 eax, 40			; 00000028H
  00086	69 c8 5f 01 00
	00		 imul	 ecx, eax, 351
  0008c	8b 91 1c 00 00
	00		 mov	 edx, DWORD PTR ?graphics_files@@3PAUFILE_DATA@@A[ecx+28]
  00092	52		 push	 edx
  00093	8b 45 08	 mov	 eax, DWORD PTR _obj$[ebp]
  00096	50		 push	 eax
  00097	8b 4d 08	 mov	 ecx, DWORD PTR _obj$[ebp]
  0009a	8b 11		 mov	 edx, DWORD PTR [ecx]
  0009c	8b 04 95 00 00
	00 00		 mov	 eax, DWORD PTR ?fn_set_ui_object_graphic@@3PAP6GXPAUUI_OBJECT@@PAG@ZA[edx*4]
  000a3	ff d0		 call	 eax

; 284  : 
; 285  : 		set_ui_object_redraw ( exit_screen, TRUE );

  000a5	6a 01		 push	 1
  000a7	a1 00 00 00 00	 mov	 eax, DWORD PTR ?exit_screen@@3PAUUI_OBJECT@@A ; exit_screen
  000ac	50		 push	 eax
  000ad	8b 0d 00 00 00
	00		 mov	 ecx, DWORD PTR ?exit_screen@@3PAUUI_OBJECT@@A ; exit_screen
  000b3	8b 11		 mov	 edx, DWORD PTR [ecx]
  000b5	8b 04 95 00 00
	00 00		 mov	 eax, DWORD PTR ?fn_set_ui_object_redraw@@3PAP6GXPAUUI_OBJECT@@H@ZA[edx*4]
  000bc	ff d0		 call	 eax
$LN3@notify_exi:

; 286  : 	}
; 287  : 
; 288  : 	set_ui_object_graphic_type ( obj, UI_OBJECT_ALPHA_GRAPHIC );

  000be	6a 03		 push	 3
  000c0	8b 45 08	 mov	 eax, DWORD PTR _obj$[ebp]
  000c3	50		 push	 eax
  000c4	8b 4d 08	 mov	 ecx, DWORD PTR _obj$[ebp]
  000c7	8b 11		 mov	 edx, DWORD PTR [ecx]
  000c9	8b 04 95 00 00
	00 00		 mov	 eax, DWORD PTR ?fn_set_ui_object_graphic_type@@3PAP6GXPAUUI_OBJECT@@H@ZA[edx*4]
  000d0	ff d0		 call	 eax

; 289  : }

  000d2	5f		 pop	 edi
  000d3	5e		 pop	 esi
  000d4	5b		 pop	 ebx
  000d5	8b e5		 mov	 esp, ebp
  000d7	5d		 pop	 ebp
  000d8	c2 08 00	 ret	 8
?notify_exit_yes_button@@YGXPAUUI_OBJECT@@PAX@Z ENDP	; notify_exit_yes_button
_TEXT	ENDS
; Function compile flags: /Odtp /ZI
; File c:\users\nhv90\projects\eech\aphavoc\source\ui_menu\exit\exit_sc.c
;	COMDAT ?initialise_exit_screen@@YGXXZ
_TEXT	SEGMENT
_y2$ = -16						; size = 4
_x2$ = -12						; size = 4
_y1$ = -8						; size = 4
_x1$ = -4						; size = 4
?initialise_exit_screen@@YGXXZ PROC			; initialise_exit_screen, COMDAT

; 95   : {

  00000	55		 push	 ebp
  00001	8b ec		 mov	 ebp, esp
  00003	83 ec 50	 sub	 esp, 80			; 00000050H
  00006	53		 push	 ebx
  00007	56		 push	 esi
  00008	57		 push	 edi

; 96   : 	float
; 97   : 		x1,
; 98   : 		y1,
; 99   : 		x2,
; 100  : 		y2;
; 101  : 
; 102  : 	x1 = 0.0;

  00009	0f 57 c0	 xorps	 xmm0, xmm0
  0000c	f3 0f 11 45 fc	 movss	 DWORD PTR _x1$[ebp], xmm0

; 103  : 	y1 = 0.0;

  00011	0f 57 c0	 xorps	 xmm0, xmm0
  00014	f3 0f 11 45 f8	 movss	 DWORD PTR _y1$[ebp], xmm0

; 104  : 	x2 = 1.0;

  00019	f3 0f 10 05 00
	00 00 00	 movss	 xmm0, DWORD PTR __real@3f800000
  00021	f3 0f 11 45 f4	 movss	 DWORD PTR _x2$[ebp], xmm0

; 105  : 	y2 = 1.0;

  00026	f3 0f 10 05 00
	00 00 00	 movss	 xmm0, DWORD PTR __real@3f800000
  0002e	f3 0f 11 45 f0	 movss	 DWORD PTR _y2$[ebp], xmm0

; 106  : 
; 107  :    exit_screen = create_ui_object

  00033	6a 11		 push	 17			; 00000011H
  00035	6a 04		 push	 4
  00037	6a 2f		 push	 47			; 0000002fH
  00039	68 00 00 00 00	 push	 OFFSET ?notify_exit_screen@@YGXPAUUI_OBJECT@@PAX@Z ; notify_exit_screen
  0003e	6a 16		 push	 22			; 00000016H
  00040	f3 0f 5a 45 f0	 cvtss2sd xmm0, DWORD PTR _y2$[ebp]
  00045	83 ec 08	 sub	 esp, 8
  00048	f2 0f 11 04 24	 movsd	 QWORD PTR [esp], xmm0
  0004d	f3 0f 5a 45 f4	 cvtss2sd xmm0, DWORD PTR _x2$[ebp]
  00052	83 ec 08	 sub	 esp, 8
  00055	f2 0f 11 04 24	 movsd	 QWORD PTR [esp], xmm0
  0005a	6a 59		 push	 89			; 00000059H
  0005c	f3 0f 5a 45 f8	 cvtss2sd xmm0, DWORD PTR _y1$[ebp]
  00061	83 ec 08	 sub	 esp, 8
  00064	f2 0f 11 04 24	 movsd	 QWORD PTR [esp], xmm0
  00069	f3 0f 5a 45 fc	 cvtss2sd xmm0, DWORD PTR _x1$[ebp]
  0006e	83 ec 08	 sub	 esp, 8
  00071	f2 0f 11 04 24	 movsd	 QWORD PTR [esp], xmm0
  00076	6a 58		 push	 88			; 00000058H
  00078	6a 06		 push	 6
  0007a	e8 00 00 00 00	 call	 ?create_ui_object@@YAPAUUI_OBJECT@@HZZ ; create_ui_object
  0007f	83 c4 40	 add	 esp, 64			; 00000040H
  00082	a3 00 00 00 00	 mov	 DWORD PTR ?exit_screen@@3PAUUI_OBJECT@@A, eax ; exit_screen

; 108  :             (
; 109  :                UI_TYPE_SCREEN,
; 110  :                UI_ATTR_VIRTUAL_POSITION (x1, y1),
; 111  :                UI_ATTR_VIRTUAL_SIZE (x2, y2),
; 112  : //               UI_ATTR_GRAPHIC (get_graphics_file_data (GRAPHICS_UI_APACHE_EXIT_SCREEN)),
; 113  : 					UI_ATTR_FUNCTION (notify_exit_screen),
; 114  : 					UI_ATTR_NOTIFY_ON (NOTIFY_TYPE_DISPLAYED),
; 115  :                UI_ATTR_END
; 116  :             );
; 117  : 
; 118  : 	x1 = 0.470;

  00087	f3 0f 10 05 00
	00 00 00	 movss	 xmm0, DWORD PTR __real@3ef0a3d7
  0008f	f3 0f 11 45 fc	 movss	 DWORD PTR _x1$[ebp], xmm0

; 119  : 	y1 = 0.5;

  00094	f3 0f 10 05 00
	00 00 00	 movss	 xmm0, DWORD PTR __real@3f000000
  0009c	f3 0f 11 45 f8	 movss	 DWORD PTR _y1$[ebp], xmm0

; 120  : 
; 121  : 	exit_screen_text = create_ui_object

  000a1	6a 11		 push	 17			; 00000011H
  000a3	6a 0b		 push	 11			; 0000000bH
  000a5	6a 12		 push	 18			; 00000012H
  000a7	f3 0f 5a 45 f8	 cvtss2sd xmm0, DWORD PTR _y1$[ebp]
  000ac	83 ec 08	 sub	 esp, 8
  000af	f2 0f 11 04 24	 movsd	 QWORD PTR [esp], xmm0
  000b4	f3 0f 5a 45 fc	 cvtss2sd xmm0, DWORD PTR _x1$[ebp]
  000b9	83 ec 08	 sub	 esp, 8
  000bc	f2 0f 11 04 24	 movsd	 QWORD PTR [esp], xmm0
  000c1	6a 58		 push	 88			; 00000058H
  000c3	a1 00 00 00 00	 mov	 eax, DWORD PTR ?exit_screen@@3PAUUI_OBJECT@@A ; exit_screen
  000c8	50		 push	 eax
  000c9	6a 32		 push	 50			; 00000032H
  000cb	6a 05		 push	 5
  000cd	e8 00 00 00 00	 call	 ?create_ui_object@@YAPAUUI_OBJECT@@HZZ ; create_ui_object
  000d2	83 c4 2c	 add	 esp, 44			; 0000002cH
  000d5	a3 00 00 00 00	 mov	 DWORD PTR ?exit_screen_text@@3PAUUI_OBJECT@@A, eax ; exit_screen_text

; 122  : 	(
; 123  : 		UI_TYPE_TEXT,
; 124  : 		UI_ATTR_PARENT (exit_screen),
; 125  :       UI_ATTR_VIRTUAL_POSITION (x1, y1),
; 126  : //		UI_ATTR_TEXT (get_trans ("Quitting...")),
; 127  : 		UI_ATTR_FONT_TYPE (UI_FONT_THICK_ARIAL_22),
; 128  : 		UI_ATTR_END
; 129  : 	);
; 130  : /*
; 131  : 
; 132  : 	/////////////////////////////////////////////////////////////////
; 133  : 	// Ok Button
; 134  : 
; 135  : 	exit_back_button = create_ui_object
; 136  : 			(
; 137  : 				UI_TYPE_BUTTON,
; 138  : 				UI_ATTR_PARENT (exit_screen),
; 139  : 				UI_ATTR_VIRTUAL_POSITION (OPTIONS_OK_BUTTON_POS_X, OPTIONS_OK_BUTTON_POS_Y),
; 140  : 				UI_ATTR_VIRTUAL_SIZE (OPTIONS_OK_BUTTON_X, OPTIONS_OK_BUTTON_Y),
; 141  : 				UI_ATTR_TEXT (get_trans("UI_OK")),
; 142  : 				UI_ATTR_NOTIFY_ON (NOTIFY_TYPE_BUTTON_UP),
; 143  : 				UI_ATTR_FUNCTION (notify_exit_yes_button),
; 144  : 				UI_ATTR_FONT_TYPE (UI_FONT_THICK_ITALIC_ARIAL_18),
; 145  : 				UI_ATTR_FONT_COLOUR (254, 124, 47, 255),
; 146  : 				UI_ATTR_TEXT_JUSTIFY (TEXT_JUSTIFY_LEFT_CENTRE),
; 147  :             UI_ATTR_FONT_COLOUR_START (ui_option_text_default_colour.r, ui_option_text_default_colour.g, ui_option_text_default_colour.b, 0),
; 148  :             UI_ATTR_FONT_COLOUR_END (ui_option_text_default_colour.r, ui_option_text_default_colour.g, ui_option_text_default_colour.b, 255),
; 149  :             UI_ATTR_HIGHLIGHTED_FONT_COLOUR_START (ui_option_text_hilite_colour.r, ui_option_text_hilite_colour.g, ui_option_text_hilite_colour.b, 0),
; 150  :             UI_ATTR_HIGHLIGHTED_FONT_COLOUR_END (ui_option_text_hilite_colour.r, ui_option_text_hilite_colour.g, ui_option_text_hilite_colour.b, 255),
; 151  : 				UI_ATTR_HIGHLIGHTABLE (TRUE),
; 152  : 				UI_ATTR_CLEAR (TRUE),
; 153  : 				UI_ATTR_END
; 154  : 			);
; 155  : 			
; 156  : 	/////////////////////////////////////////////////////////////////
; 157  : 	// Cancel Button
; 158  : 
; 159  : 	exit_forward_button = create_ui_object
; 160  : 			(
; 161  : 				UI_TYPE_BUTTON,
; 162  : 				UI_ATTR_PARENT (exit_screen),
; 163  : 				UI_ATTR_VIRTUAL_POSITION (OPTIONS_CANCEL_BUTTON_POS_X, OPTIONS_CANCEL_BUTTON_POS_Y),
; 164  : 				UI_ATTR_VIRTUAL_SIZE (OPTIONS_CANCEL_BUTTON_X, OPTIONS_CANCEL_BUTTON_Y),
; 165  : 				UI_ATTR_TEXT (get_trans("UI_CANCEL")),
; 166  : 				UI_ATTR_NOTIFY_ON (NOTIFY_TYPE_BUTTON_UP),
; 167  : 				UI_ATTR_FUNCTION (notify_exit_no_button),
; 168  : 				UI_ATTR_FONT_TYPE (UI_FONT_THICK_ITALIC_ARIAL_18),
; 169  : 				UI_ATTR_FONT_COLOUR (254, 124, 47, 255),
; 170  : 				UI_ATTR_TEXT_JUSTIFY (TEXT_JUSTIFY_LEFT_CENTRE),
; 171  :             UI_ATTR_FONT_COLOUR_START (ui_option_text_default_colour.r, ui_option_text_default_colour.g, ui_option_text_default_colour.b, 0),
; 172  :             UI_ATTR_FONT_COLOUR_END (ui_option_text_default_colour.r, ui_option_text_default_colour.g, ui_option_text_default_colour.b, 255),
; 173  :             UI_ATTR_HIGHLIGHTED_FONT_COLOUR_START (ui_option_text_hilite_colour.r, ui_option_text_hilite_colour.g, ui_option_text_hilite_colour.b, 0),
; 174  :             UI_ATTR_HIGHLIGHTED_FONT_COLOUR_END (ui_option_text_hilite_colour.r, ui_option_text_hilite_colour.g, ui_option_text_hilite_colour.b, 255),
; 175  : 				UI_ATTR_HIGHLIGHTABLE (TRUE),
; 176  : 				UI_ATTR_CLEAR (TRUE),
; 177  : 				UI_ATTR_END
; 178  : 			);
; 179  : */			
; 180  : }

  000da	5f		 pop	 edi
  000db	5e		 pop	 esi
  000dc	5b		 pop	 ebx
  000dd	8b e5		 mov	 esp, ebp
  000df	5d		 pop	 ebp
  000e0	c3		 ret	 0
?initialise_exit_screen@@YGXXZ ENDP			; initialise_exit_screen
_TEXT	ENDS
END
