; Listing generated by Microsoft (R) Optimizing Compiler Version 19.16.27045.0 

	TITLE	C:\Users\nhv90\Projects\eech\aphavoc\source\ai\faction\faction.c
	.686P
	.XMM
	include listing.inc
	.model	flat

INCLUDELIB MSVCRTD
INCLUDELIB OLDNAMES

PUBLIC	?frontline_forces_data@@3PAUFRONTLINE_FORCES_PLACEMENT_DATA@@A ; frontline_forces_data
_BSS	SEGMENT
?frontline_forces_data@@3PAUFRONTLINE_FORCES_PLACEMENT_DATA@@A DD 01H DUP (?) ; frontline_forces_data
_BSS	ENDS
PUBLIC	___local_stdio_printf_options
PUBLIC	__vsnprintf_l
PUBLIC	__vsprintf_l
PUBLIC	_sprintf
PUBLIC	_asinf
PUBLIC	_atan2f
PUBLIC	?asin@@YGMM@Z					; asin
PUBLIC	?atan2@@YGMMM@Z					; atan2
PUBLIC	?create_faction@@YGXW4ENTITY_SIDES@@H@Z		; create_faction
PUBLIC	?create_campaign@@YGXPAUSESSION_LIST_DATA_TYPE@@@Z ; create_campaign
PUBLIC	?clear_factions@@YGXXZ				; clear_factions
PUBLIC	?destroy_campaign@@YGXXZ			; destroy_campaign
PUBLIC	?create_faction_members@@YGPAUENTITY@@PAU1@HW4FORMATION_COMPONENT_TYPES@@HW4ENTITY_SIDES@@PAUVEC3D@@HH@Z ; create_faction_members
PUBLIC	?create_landed_faction_members@@YGPAUENTITY@@PAU1@HHH@Z ; create_landed_faction_members
PUBLIC	?create_landed_faction_group@@YGPAUENTITY@@PAU1@HW4FORMATION_COMPONENT_TYPES@@@Z ; create_landed_faction_group
PUBLIC	?create_landing_faction_members@@YGPAUENTITY@@PAU1@HHH0PAUVEC3D@@@Z ; create_landing_faction_members
PUBLIC	?place_frontline_forces@@YGXPAUENTITY@@H@Z	; place_frontline_forces
PUBLIC	??$min@M@std@@YGABMABM0@Z			; std::min<float>
PUBLIC	??$max@M@std@@YGABMABM0@Z			; std::max<float>
PUBLIC	??$min@H@std@@YGABHABH0@Z			; std::min<int>
PUBLIC	?_OptionsStorage@?1??__local_stdio_printf_options@@9@4_KA ; `__local_stdio_printf_options'::`2'::_OptionsStorage
PUBLIC	??_C@_02DKCKIIND@?$CFs@				; `string'
PUBLIC	?__LINE__Var@?0??create_campaign@@YGXPAUSESSION_LIST_DATA_TYPE@@@Z@4JA ; `create_campaign'::`1'::__LINE__Var
PUBLIC	??_C@_0EB@JEOGKGCM@c?3?2users?2nhv90?2projects?2eech?2ap@ ; `string'
PUBLIC	??_C@_0BH@GDGOJOI@?$CBget_session_entity?5?$CI?$CJ@ ; `string'
PUBLIC	??_C@_0CJ@DMBLBJBK@get_comms_model?5?$CI?$CJ?5?$DN?$DN?5COMMS_MOD@ ; `string'
PUBLIC	??_C@_08EFGGCJLD@?$CFs?2?$CFs?2?$CFs@		; `string'
PUBLIC	??_C@_0BG@EFCJJKAA@get_session_entity?5?$CI?$CJ@ ; `string'
PUBLIC	??_C@_0EK@GKFKMPCP@?$CD?$CD?$CDCUSTOM?5TEXTURE?5STARTUP?3?5fact@ ; `string'
PUBLIC	?__LINE__Var@?0??clear_factions@@YGXXZ@4JA	; `clear_factions'::`1'::__LINE__Var
PUBLIC	?__LINE__Var@?0??create_faction@@YGXW4ENTITY_SIDES@@H@Z@4JA ; `create_faction'::`1'::__LINE__Var
PUBLIC	??_C@_0BC@PODNONFH@ASSERT?5?$CFs?5?$CI?$CFs?3?$CFd?$CJ@ ; `string'
PUBLIC	?__LINE__Var@?0??create_landed_faction_members@@YGPAUENTITY@@PAU2@HHH@Z@4JA ; `create_landed_faction_members'::`1'::__LINE__Var
PUBLIC	??_C@_07FBNBNOMI@keysite@			; `string'
PUBLIC	??_C@_0DH@KIHAKAGM@get_local_entity_type?5?$CIkeysite?$CJ@ ; `string'
PUBLIC	??_C@_06MLKDMCBD@parent@			; `string'
PUBLIC	??_C@_0CP@NOCCPNPK@get_game_status?5?$CI?$CJ?5?$DN?$DN?5GAME_STAT@ ; `string'
PUBLIC	??_C@_02HODPCBMO@wp@				; `string'
PUBLIC	?__LINE__Var@?0??create_landed_faction_group@@YGPAUENTITY@@PAU2@HW4FORMATION_COMPONENT_TYPES@@@Z@4JA ; `create_landed_faction_group'::`1'::__LINE__Var
PUBLIC	??_C@_0BF@LBOCPGPN@formation_components@	; `string'
PUBLIC	??_C@_0EJ@HDHAFCHD@FACTION?3?5Placing?5too?5many?5aircr@ ; `string'
PUBLIC	??_C@_0DI@OLFMFAKH@FACTION?3?5No?5landing?5entity?5for?5@ ; `string'
PUBLIC	?__LINE__Var@?0??create_landing_faction_members@@YGPAUENTITY@@PAU2@HHH0PAUVEC3D@@@Z@4JA ; `create_landing_faction_members'::`1'::__LINE__Var
PUBLIC	??_C@_0CO@ICCOPKDA@get_game_status?5?$CI?$CJ?5?$DN?$DN?5GAME_STAT@ ; `string'
PUBLIC	??_C@_05BINPNAAL@force@				; `string'
PUBLIC	??_C@_0BA@NMACMIMG@free_sites?5?$DO?$DN?50@	; `string'
PUBLIC	?__LINE__Var@?0??create_faction_members@@YGPAUENTITY@@PAU2@HW4FORMATION_COMPONENT_TYPES@@HW4ENTITY_SIDES@@PAUVEC3D@@HH@Z@4JA ; `create_faction_members'::`1'::__LINE__Var
PUBLIC	?__LINE__Var@?0??place_frontline_forces@@YGXPAUENTITY@@H@Z@4JA ; `place_frontline_forces'::`1'::__LINE__Var
PUBLIC	?__LINE__Var@?0??create_mobile_member@@YGPAUENTITY@@W4ENTITY_TYPES@@HHPAU2@PAUVEC3D@@HHHW4ENTITY_SIDES@@M@Z@4JA ; `create_mobile_member'::`1'::__LINE__Var
PUBLIC	??_C@_0CN@HPLJIAFL@FACTION?5?3?5Invalid?5mobile?5create@ ; `string'
PUBLIC	??_C@_0DK@CNEFHEPG@FACTION?3?5created?5ROUTED_VEHICLE@ ; `string'
PUBLIC	??_C@_0BD@FEEMDEPI@invalid?5comparator@		; `string'
PUBLIC	??_C@_0GK@JMBMHIBC@c?3?2program?5files?5?$CIx86?$CJ?2microsof@ ; `string'
PUBLIC	??_C@_1NE@FKBPBJEB@?$AAc?$AA?3?$AA?2?$AAp?$AAr?$AAo?$AAg?$AAr?$AAa?$AAm?$AA?5?$AAf?$AAi?$AAl?$AAe@ ; `string'
PUBLIC	??_C@_1BC@BLAPCBGI@?$AAs?$AAt?$AAd?$AA?3?$AA?3?$AAm?$AAi?$AAn@ ; `string'
PUBLIC	??_C@_1CK@NDNHPKPI@?$AA?$CC?$AAi?$AAn?$AAv?$AAa?$AAl?$AAi?$AAd?$AA?5?$AAc?$AAo?$AAm?$AAp?$AAa?$AAr@ ; `string'
PUBLIC	??_C@_1BC@ICCOKLEG@?$AAs?$AAt?$AAd?$AA?3?$AA?3?$AAm?$AAa?$AAx@ ; `string'
PUBLIC	__real@0000000000000000
PUBLIC	__real@3c8efa35
PUBLIC	__real@3f10000000000000
PUBLIC	__real@40000000
PUBLIC	__real@4000000000000000
PUBLIC	__real@4010000000000000
PUBLIC	__real@4014000000000000
PUBLIC	__real@40a00000
PUBLIC	__real@40b3880000000000
PUBLIC	__real@42700000
PUBLIC	__real@447a0000
PUBLIC	__xmm@41f00000000000000000000000000000
PUBLIC	__xmm@80000000800000008000000080000000
EXTRN	__imp___invalid_parameter:PROC
EXTRN	__imp____stdio_common_vsprintf:PROC
EXTRN	_memset:PROC
EXTRN	__imp___CrtDbgReport:PROC
EXTRN	_asin:PROC
EXTRN	_atan2:PROC
EXTRN	?process_assert@@YGXPBD0H@Z:PROC		; process_assert
EXTRN	?debug_fatal@@YAXPBDZZ:PROC			; debug_fatal
EXTRN	?debug_log@@YAXPBDZZ:PROC			; debug_log
EXTRN	?malloc_heap_memory@@YGPAXI@Z:PROC		; malloc_heap_memory
EXTRN	?free_mem@@YGXPAX@Z:PROC			; free_mem
EXTRN	?normalise_3d_vector@@YGMPAUVEC3D@@@Z:PROC	; normalise_3d_vector
EXTRN	?get_3d_transformation_matrix_from_face_normal_and_heading@@YGXQAY02MPBUVEC3D@@M@Z:PROC ; get_3d_transformation_matrix_from_face_normal_and_heading
EXTRN	?read_map_info_data@@YGXXZ:PROC			; read_map_info_data
EXTRN	?get_3d_terrain_point_data@@YGMMMPAUTERRAIN_3D_POINT_DATA@@@Z:PROC ; get_3d_terrain_point_data
EXTRN	?get_3d_terrain_point_data_normal@@YGPAUVEC3D@@PAUTERRAIN_3D_POINT_DATA@@@Z:PROC ; get_3d_terrain_point_data_normal
EXTRN	?get_3d_terrain_point_data_type@@YGHPAUTERRAIN_3D_POINT_DATA@@@Z:PROC ; get_3d_terrain_point_data_type
EXTRN	?get_3d_terrain_elevation_and_face_normal@@YGMMMPAUVEC3D@@PAUTERRAIN_3D_POINT_DATA@@@Z:PROC ; get_3d_terrain_elevation_and_face_normal
EXTRN	?get_3d_terrain_face_normal@@YGXPAUVEC3D@@MM@Z:PROC ; get_3d_terrain_face_normal
EXTRN	?get_formation@@YGPAUFORMATION_TYPE@@W4FORMATION_TYPES@@@Z:PROC ; get_formation
EXTRN	?get_number_in_formation@@YGFW4FORMATION_TYPES@@@Z:PROC ; get_number_in_formation
EXTRN	?get_formation_member_radius@@YGMW4FORMATION_TYPES@@H@Z:PROC ; get_formation_member_radius
EXTRN	?get_formation_components@@YGPAUFORMATION_VEHICLE_COMPONENTS@@W4FORMATION_COMPONENT_TYPES@@@Z:PROC ; get_formation_components
EXTRN	?bound_position_to_map_area@@YGHPAUVEC3D@@@Z:PROC ; bound_position_to_map_area
EXTRN	?notify_local_entity@@YAHW4ENTITY_MESSAGES@@PAUENTITY@@1ZZ:PROC ; notify_local_entity
EXTRN	?insert_local_entity_into_parents_child_list@@YGXPAUENTITY@@W4LIST_TYPES@@00@Z:PROC ; insert_local_entity_into_parents_child_list
EXTRN	?unlink_local_entity_children@@YGXPAUENTITY@@W4LIST_TYPES@@@Z:PROC ; unlink_local_entity_children
EXTRN	?create_local_entity@@YAPAUENTITY@@W4ENTITY_TYPES@@HZZ:PROC ; create_local_entity
EXTRN	?create_client_server_entity@@YAPAUENTITY@@W4ENTITY_TYPES@@HZZ:PROC ; create_client_server_entity
EXTRN	?enable_entity_comms_messages@@YGXXZ:PROC	; enable_entity_comms_messages
EXTRN	?disable_entity_comms_messages@@YGXXZ:PROC	; disable_entity_comms_messages
EXTRN	?transmit_entity_comms_message@@YAXW4ENTITY_COMMS_MESSAGES@@PAUENTITY@@ZZ:PROC ; transmit_entity_comms_message
EXTRN	?create_client_server_entity_helicopter@@YGPAUENTITY@@HHPAU1@PAUVEC3D@@@Z:PROC ; create_client_server_entity_helicopter
EXTRN	?create_client_server_entity_fixed_wing@@YGPAUENTITY@@HHPAU1@PAUVEC3D@@@Z:PROC ; create_client_server_entity_fixed_wing
EXTRN	?create_client_server_entity_anti_aircraft@@YGPAUENTITY@@HHPAU1@PAUVEC3D@@@Z:PROC ; create_client_server_entity_anti_aircraft
EXTRN	?create_local_entity_anti_aircraft@@YGPAUENTITY@@HHPAU1@PAUVEC3D@@@Z:PROC ; create_local_entity_anti_aircraft
EXTRN	?create_client_server_entity_person@@YGPAUENTITY@@HHPAU1@PAUVEC3D@@@Z:PROC ; create_client_server_entity_person
EXTRN	?create_local_entity_person@@YGPAUENTITY@@HHPAU1@PAUVEC3D@@@Z:PROC ; create_local_entity_person
EXTRN	?create_client_server_entity_routed_vehicle@@YGPAUENTITY@@HHPAU1@PAUVEC3D@@@Z:PROC ; create_client_server_entity_routed_vehicle
EXTRN	?create_local_entity_routed_vehicle@@YGPAUENTITY@@HHPAU1@PAUVEC3D@@@Z:PROC ; create_local_entity_routed_vehicle
EXTRN	?create_client_server_entity_ship@@YGPAUENTITY@@HHPAU1@PAUVEC3D@@@Z:PROC ; create_client_server_entity_ship
EXTRN	?create_local_entity_ship@@YGPAUENTITY@@HHPAU1@PAUVEC3D@@@Z:PROC ; create_local_entity_ship
EXTRN	?add_group_to_division@@YGPAUENTITY@@PAU1@0@Z:PROC ; add_group_to_division
EXTRN	?initialise_division_database@@YGXXZ:PROC	; initialise_division_database
EXTRN	?deinitialise_division_database@@YGXXZ:PROC	; deinitialise_division_database
EXTRN	?get_local_force_entity@@YGPAUENTITY@@W4ENTITY_SIDES@@@Z:PROC ; get_local_force_entity
EXTRN	?set_group_member_numbers@@YGXPAUENTITY@@@Z:PROC ; set_group_member_numbers
EXTRN	?get_closest_keysite@@YGPAUENTITY@@HW4ENTITY_SIDES@@PAUVEC3D@@MPAMPAU1@@Z:PROC ; get_closest_keysite
EXTRN	?get_local_entity_landing_entity@@YGPAUENTITY@@PAU1@H@Z:PROC ; get_local_entity_landing_entity
EXTRN	?get_local_landing_entity_route@@YGPAUENTITY@@PAU1@H@Z:PROC ; get_local_landing_entity_route
EXTRN	?get_local_sector_entity@@YGPAUENTITY@@PAUVEC3D@@@Z:PROC ; get_local_sector_entity
EXTRN	?attach_session_sound_effects@@YGXPAUENTITY@@@Z:PROC ; attach_session_sound_effects
EXTRN	?check_point_inside_population_area@@YGHPAUVEC3D@@@Z:PROC ; check_point_inside_population_area
EXTRN	?get_local_waypoint_formation_position@@YGXHPAUENTITY@@PAUVEC3D@@@Z:PROC ; get_local_waypoint_formation_position
EXTRN	?get_local_waypoint_simple_formation_position@@YGXHPAUVEC3D@@H0@Z:PROC ; get_local_waypoint_simple_formation_position
EXTRN	?get_terrain_type_class@@YG?AW4TERRAIN_CLASSES@@H@Z:PROC ; get_terrain_type_class
EXTRN	?int_bit_count@@YGHI@Z:PROC			; int_bit_count
EXTRN	?initialise_route_data@@YGXXZ:PROC		; initialise_route_data
EXTRN	?get_closest_road_node@@YGHPAUVEC3D@@M@Z:PROC	; get_closest_road_node
EXTRN	?update_imap_sector_side@@YGXPAUENTITY@@H@Z:PROC ; update_imap_sector_side
EXTRN	?update_imap_importance_level@@YGXPAUENTITY@@H@Z:PROC ; update_imap_importance_level
EXTRN	?update_keysite_distance_to_friendly_base@@YGXPAUENTITY@@W4ENTITY_SIDES@@@Z:PROC ; update_keysite_distance_to_friendly_base
EXTRN	?initialise_parser@@YGXXZ:PROC			; initialise_parser
EXTRN	?parser_campaign_file@@YGHPBDPAH@Z:PROC		; parser_campaign_file
EXTRN	?random_number_seed@@3HA:DWORD			; random_number_seed
EXTRN	?command_line_run_mode@@3HA:DWORD		; command_line_run_mode
EXTRN	?game_status@@3W4GAME_STATUS_TYPES@@A:DWORD	; game_status
EXTRN	?null_entity_pointer_message@@3PBDB:DWORD	; null_entity_pointer_message
EXTRN	?entity_type_names@@3PAPBDA:DWORD		; entity_type_names
EXTRN	?system_comms_model@@3W4COMMS_MODEL_TYPES@@A:DWORD ; system_comms_model
EXTRN	?world_map@@3UWORLD_MAP_DATA@@A:BYTE		; world_map
EXTRN	?overload_invalid_list_type_message@@3PBDB:DWORD ; overload_invalid_list_type_message
EXTRN	?fn_get_local_entity_first_child@@3PAY0CN@P6GPAUENTITY@@PAU1@W4LIST_TYPES@@@ZA:BYTE ; fn_get_local_entity_first_child
EXTRN	?fn_get_local_entity_parent@@3PAY0CN@P6GPAUENTITY@@PAU1@W4LIST_TYPES@@@ZA:BYTE ; fn_get_local_entity_parent
EXTRN	?fn_get_local_entity_child_succ@@3PAY0CN@P6GPAUENTITY@@PAU1@W4LIST_TYPES@@@ZA:BYTE ; fn_get_local_entity_child_succ
EXTRN	?fn_set_local_entity_attitude_angles@@3PAP6GXPAUENTITY@@MMM@ZA:BYTE ; fn_set_local_entity_attitude_angles
EXTRN	?fn_set_client_server_entity_attitude_angles@@3PAY01P6GXPAUENTITY@@MMM@ZA:BYTE ; fn_set_client_server_entity_attitude_angles
EXTRN	?overload_invalid_float_type_message@@3PBDB:DWORD ; overload_invalid_float_type_message
EXTRN	?fn_set_local_entity_float_value@@3PAY0KP@P6GXPAUENTITY@@W4FLOAT_TYPES@@M@ZA:BYTE ; fn_set_local_entity_float_value
EXTRN	?fn_set_client_server_entity_float_value@@3PAY1KP@1P6GXPAUENTITY@@W4FLOAT_TYPES@@M@ZA:BYTE ; fn_set_client_server_entity_float_value
EXTRN	?fn_get_local_entity_float_value@@3PAY0KP@P6GMPAUENTITY@@W4FLOAT_TYPES@@@ZA:BYTE ; fn_get_local_entity_float_value
EXTRN	?overload_invalid_int_type_message@@3PBDB:DWORD	; overload_invalid_int_type_message
EXTRN	?fn_set_local_entity_int_value@@3PAY0BBH@P6GXPAUENTITY@@W4INT_TYPES@@H@ZA:BYTE ; fn_set_local_entity_int_value
EXTRN	?fn_set_client_server_entity_int_value@@3PAY1BBH@1P6GXPAUENTITY@@W4INT_TYPES@@H@ZA:BYTE ; fn_set_client_server_entity_int_value
EXTRN	?fn_get_local_entity_int_value@@3PAY0BBH@P6GHPAUENTITY@@W4INT_TYPES@@@ZA:BYTE ; fn_get_local_entity_int_value
EXTRN	?overload_invalid_string_type_message@@3PBDB:DWORD ; overload_invalid_string_type_message
EXTRN	?fn_get_local_entity_string@@3PAY0N@P6GPBDPAUENTITY@@W4STRING_TYPES@@@ZA:BYTE ; fn_get_local_entity_string
EXTRN	?overload_invalid_vec3d_type_message@@3PBDB:DWORD ; overload_invalid_vec3d_type_message
EXTRN	?fn_set_local_entity_vec3d@@3PAY0BI@P6GXPAUENTITY@@W4VEC3D_TYPES@@PAUVEC3D@@@ZA:BYTE ; fn_set_local_entity_vec3d
EXTRN	?fn_set_client_server_entity_vec3d@@3PAY1BI@1P6GXPAUENTITY@@W4VEC3D_TYPES@@PAUVEC3D@@@ZA:BYTE ; fn_set_client_server_entity_vec3d
EXTRN	?fn_get_local_entity_vec3d@@3PAY0BI@P6GXPAUENTITY@@W4VEC3D_TYPES@@PAUVEC3D@@@ZA:BYTE ; fn_get_local_entity_vec3d
EXTRN	?fn_get_local_entity_vec3d_ptr@@3PAY0BI@P6GPAUVEC3D@@PAUENTITY@@W4VEC3D_TYPES@@@ZA:BYTE ; fn_get_local_entity_vec3d_ptr
EXTRN	?entities@@3PAUENTITY@@A:DWORD			; entities
EXTRN	?aircraft_database@@3PAUAIRCRAFT_DATA@@A:BYTE	; aircraft_database
EXTRN	?group_database@@3PAUGROUP_DATA@@A:BYTE		; group_database
EXTRN	?session_entity@@3PAUENTITY@@A:DWORD		; session_entity
EXTRN	?road_nodes_loaded@@3HA:DWORD			; road_nodes_loaded
EXTRN	?road_nodes@@3PAUNODE_DATA@@A:DWORD		; road_nodes
EXTRN	?road_node_positions@@3PAUVEC3D@@A:DWORD	; road_node_positions
EXTRN	?total_number_of_road_nodes@@3HA:DWORD		; total_number_of_road_nodes
EXTRN	?parser_keysite@@3PAUENTITY@@A:DWORD		; parser_keysite
EXTRN	?campaign_population_filename@@3PADA:DWORD	; campaign_population_filename
EXTRN	?population_placement_filename@@3PADA:DWORD	; population_placement_filename
EXTRN	?side_data_filename@@3PADA:DWORD		; side_data_filename
EXTRN	__fltused:DWORD
;	COMDAT ?_OptionsStorage@?1??__local_stdio_printf_options@@9@4_KA
_BSS	SEGMENT
?_OptionsStorage@?1??__local_stdio_printf_options@@9@4_KA DQ 01H DUP (?) ; `__local_stdio_printf_options'::`2'::_OptionsStorage
_BSS	ENDS
_BSS	SEGMENT
?this_force@?1??create_faction@@YGXW4ENTITY_SIDES@@H@Z@4PAUENTITY@@A DD 01H DUP (?) ; `create_faction'::`2'::this_force
_BSS	ENDS
;	COMDAT __xmm@80000000800000008000000080000000
CONST	SEGMENT
__xmm@80000000800000008000000080000000 DB 00H, 00H, 00H, 080H, 00H, 00H, 00H
	DB	080H, 00H, 00H, 00H, 080H, 00H, 00H, 00H, 080H
CONST	ENDS
;	COMDAT __xmm@41f00000000000000000000000000000
CONST	SEGMENT
__xmm@41f00000000000000000000000000000 DB 00H, 00H, 00H, 00H, 00H, 00H, 00H
	DB	00H, 00H, 00H, 00H, 00H, 00H, 00H, 0f0H, 'A'
CONST	ENDS
;	COMDAT __real@447a0000
CONST	SEGMENT
__real@447a0000 DD 0447a0000r			; 1000
CONST	ENDS
;	COMDAT __real@42700000
CONST	SEGMENT
__real@42700000 DD 042700000r			; 60
CONST	ENDS
;	COMDAT __real@40b3880000000000
CONST	SEGMENT
__real@40b3880000000000 DQ 040b3880000000000r	; 5000
CONST	ENDS
;	COMDAT __real@40a00000
CONST	SEGMENT
__real@40a00000 DD 040a00000r			; 5
CONST	ENDS
;	COMDAT __real@4014000000000000
CONST	SEGMENT
__real@4014000000000000 DQ 04014000000000000r	; 5
CONST	ENDS
;	COMDAT __real@4010000000000000
CONST	SEGMENT
__real@4010000000000000 DQ 04010000000000000r	; 4
CONST	ENDS
;	COMDAT __real@4000000000000000
CONST	SEGMENT
__real@4000000000000000 DQ 04000000000000000r	; 2
CONST	ENDS
;	COMDAT __real@40000000
CONST	SEGMENT
__real@40000000 DD 040000000r			; 2
CONST	ENDS
;	COMDAT __real@3f10000000000000
CONST	SEGMENT
__real@3f10000000000000 DQ 03f10000000000000r	; 6.10352e-05
CONST	ENDS
;	COMDAT __real@3c8efa35
CONST	SEGMENT
__real@3c8efa35 DD 03c8efa35r			; 0.0174533
CONST	ENDS
;	COMDAT __real@0000000000000000
CONST	SEGMENT
__real@0000000000000000 DQ 00000000000000000r	; 0
CONST	ENDS
;	COMDAT ??_C@_1BC@ICCOKLEG@?$AAs?$AAt?$AAd?$AA?3?$AA?3?$AAm?$AAa?$AAx@
CONST	SEGMENT
??_C@_1BC@ICCOKLEG@?$AAs?$AAt?$AAd?$AA?3?$AA?3?$AAm?$AAa?$AAx@ DB 's', 00H
	DB	't', 00H, 'd', 00H, ':', 00H, ':', 00H, 'm', 00H, 'a', 00H, 'x'
	DB	00H, 00H, 00H				; `string'
CONST	ENDS
;	COMDAT ??_C@_1CK@NDNHPKPI@?$AA?$CC?$AAi?$AAn?$AAv?$AAa?$AAl?$AAi?$AAd?$AA?5?$AAc?$AAo?$AAm?$AAp?$AAa?$AAr@
CONST	SEGMENT
??_C@_1CK@NDNHPKPI@?$AA?$CC?$AAi?$AAn?$AAv?$AAa?$AAl?$AAi?$AAd?$AA?5?$AAc?$AAo?$AAm?$AAp?$AAa?$AAr@ DB '"'
	DB	00H, 'i', 00H, 'n', 00H, 'v', 00H, 'a', 00H, 'l', 00H, 'i', 00H
	DB	'd', 00H, ' ', 00H, 'c', 00H, 'o', 00H, 'm', 00H, 'p', 00H, 'a'
	DB	00H, 'r', 00H, 'a', 00H, 't', 00H, 'o', 00H, 'r', 00H, '"', 00H
	DB	00H, 00H					; `string'
CONST	ENDS
;	COMDAT ??_C@_1BC@BLAPCBGI@?$AAs?$AAt?$AAd?$AA?3?$AA?3?$AAm?$AAi?$AAn@
CONST	SEGMENT
??_C@_1BC@BLAPCBGI@?$AAs?$AAt?$AAd?$AA?3?$AA?3?$AAm?$AAi?$AAn@ DB 's', 00H
	DB	't', 00H, 'd', 00H, ':', 00H, ':', 00H, 'm', 00H, 'i', 00H, 'n'
	DB	00H, 00H, 00H				; `string'
CONST	ENDS
;	COMDAT ??_C@_1NE@FKBPBJEB@?$AAc?$AA?3?$AA?2?$AAp?$AAr?$AAo?$AAg?$AAr?$AAa?$AAm?$AA?5?$AAf?$AAi?$AAl?$AAe@
CONST	SEGMENT
??_C@_1NE@FKBPBJEB@?$AAc?$AA?3?$AA?2?$AAp?$AAr?$AAo?$AAg?$AAr?$AAa?$AAm?$AA?5?$AAf?$AAi?$AAl?$AAe@ DB 'c'
	DB	00H, ':', 00H, '\', 00H, 'p', 00H, 'r', 00H, 'o', 00H, 'g', 00H
	DB	'r', 00H, 'a', 00H, 'm', 00H, ' ', 00H, 'f', 00H, 'i', 00H, 'l'
	DB	00H, 'e', 00H, 's', 00H, ' ', 00H, '(', 00H, 'x', 00H, '8', 00H
	DB	'6', 00H, ')', 00H, '\', 00H, 'm', 00H, 'i', 00H, 'c', 00H, 'r'
	DB	00H, 'o', 00H, 's', 00H, 'o', 00H, 'f', 00H, 't', 00H, ' ', 00H
	DB	'v', 00H, 'i', 00H, 's', 00H, 'u', 00H, 'a', 00H, 'l', 00H, ' '
	DB	00H, 's', 00H, 't', 00H, 'u', 00H, 'd', 00H, 'i', 00H, 'o', 00H
	DB	'\', 00H, '2', 00H, '0', 00H, '1', 00H, '7', 00H, '\', 00H, 'c'
	DB	00H, 'o', 00H, 'm', 00H, 'm', 00H, 'u', 00H, 'n', 00H, 'i', 00H
	DB	't', 00H, 'y', 00H, '\', 00H, 'v', 00H, 'c', 00H, '\', 00H, 't'
	DB	00H, 'o', 00H, 'o', 00H, 'l', 00H, 's', 00H, '\', 00H, 'm', 00H
	DB	's', 00H, 'v', 00H, 'c', 00H, '\', 00H, '1', 00H, '4', 00H, '.'
	DB	00H, '1', 00H, '6', 00H, '.', 00H, '2', 00H, '7', 00H, '0', 00H
	DB	'2', 00H, '3', 00H, '\', 00H, 'i', 00H, 'n', 00H, 'c', 00H, 'l'
	DB	00H, 'u', 00H, 'd', 00H, 'e', 00H, '\', 00H, 'a', 00H, 'l', 00H
	DB	'g', 00H, 'o', 00H, 'r', 00H, 'i', 00H, 't', 00H, 'h', 00H, 'm'
	DB	00H, 00H, 00H				; `string'
CONST	ENDS
;	COMDAT ??_C@_0GK@JMBMHIBC@c?3?2program?5files?5?$CIx86?$CJ?2microsof@
CONST	SEGMENT
??_C@_0GK@JMBMHIBC@c?3?2program?5files?5?$CIx86?$CJ?2microsof@ DB 'c:\pro'
	DB	'gram files (x86)\microsoft visual studio\2017\community\vc\to'
	DB	'ols\msvc\14.16.27023\include\algorithm', 00H ; `string'
CONST	ENDS
;	COMDAT ??_C@_0BD@FEEMDEPI@invalid?5comparator@
CONST	SEGMENT
??_C@_0BD@FEEMDEPI@invalid?5comparator@ DB 'invalid comparator', 00H ; `string'
CONST	ENDS
;	COMDAT ??_C@_0DK@CNEFHEPG@FACTION?3?5created?5ROUTED_VEHICLE@
CONST	SEGMENT
??_C@_0DK@CNEFHEPG@FACTION?3?5created?5ROUTED_VEHICLE@ DB 'FACTION: creat'
	DB	'ed ROUTED_VEHICLE %s (%d) with formation %d', 00H ; `string'
CONST	ENDS
;	COMDAT ??_C@_0CN@HPLJIAFL@FACTION?5?3?5Invalid?5mobile?5create@
CONST	SEGMENT
??_C@_0CN@HPLJIAFL@FACTION?5?3?5Invalid?5mobile?5create@ DB 'FACTION : In'
	DB	'valid mobile created ( type %s )', 00H	; `string'
CONST	ENDS
;	COMDAT ?__LINE__Var@?0??create_mobile_member@@YGPAUENTITY@@W4ENTITY_TYPES@@HHPAU2@PAUVEC3D@@HHHW4ENTITY_SIDES@@M@Z@4JA
_DATA	SEGMENT
?__LINE__Var@?0??create_mobile_member@@YGPAUENTITY@@W4ENTITY_TYPES@@HHPAU2@PAUVEC3D@@HHHW4ENTITY_SIDES@@M@Z@4JA DD 0684H ; `create_mobile_member'::`1'::__LINE__Var
_DATA	ENDS
;	COMDAT ?__LINE__Var@?0??place_frontline_forces@@YGXPAUENTITY@@H@Z@4JA
_DATA	SEGMENT
?__LINE__Var@?0??place_frontline_forces@@YGXPAUENTITY@@H@Z@4JA DD 0517H ; `place_frontline_forces'::`1'::__LINE__Var
_DATA	ENDS
;	COMDAT ?__LINE__Var@?0??create_faction_members@@YGPAUENTITY@@PAU2@HW4FORMATION_COMPONENT_TYPES@@HW4ENTITY_SIDES@@PAUVEC3D@@HH@Z@4JA
_DATA	SEGMENT
?__LINE__Var@?0??create_faction_members@@YGPAUENTITY@@PAU2@HW4FORMATION_COMPONENT_TYPES@@HW4ENTITY_SIDES@@PAUVEC3D@@HH@Z@4JA DD 0415H ; `create_faction_members'::`1'::__LINE__Var
_DATA	ENDS
;	COMDAT ??_C@_0BA@NMACMIMG@free_sites?5?$DO?$DN?50@
CONST	SEGMENT
??_C@_0BA@NMACMIMG@free_sites?5?$DO?$DN?50@ DB 'free_sites >= 0', 00H ; `string'
CONST	ENDS
;	COMDAT ??_C@_05BINPNAAL@force@
CONST	SEGMENT
??_C@_05BINPNAAL@force@ DB 'force', 00H			; `string'
CONST	ENDS
;	COMDAT ??_C@_0CO@ICCOPKDA@get_game_status?5?$CI?$CJ?5?$DN?$DN?5GAME_STAT@
CONST	SEGMENT
??_C@_0CO@ICCOPKDA@get_game_status?5?$CI?$CJ?5?$DN?$DN?5GAME_STAT@ DB 'ge'
	DB	't_game_status () == GAME_STATUS_INITIALISED', 00H ; `string'
CONST	ENDS
;	COMDAT ?__LINE__Var@?0??create_landing_faction_members@@YGPAUENTITY@@PAU2@HHH0PAUVEC3D@@@Z@4JA
_DATA	SEGMENT
?__LINE__Var@?0??create_landing_faction_members@@YGPAUENTITY@@PAU2@HHH0PAUVEC3D@@@Z@4JA DD 02fdH ; `create_landing_faction_members'::`1'::__LINE__Var
_DATA	ENDS
;	COMDAT ??_C@_0DI@OLFMFAKH@FACTION?3?5No?5landing?5entity?5for?5@
CONST	SEGMENT
??_C@_0DI@OLFMFAKH@FACTION?3?5No?5landing?5entity?5for?5@ DB 'FACTION: No'
	DB	' landing entity for group type %s at %s (%d)', 00H ; `string'
CONST	ENDS
;	COMDAT ??_C@_0EJ@HDHAFCHD@FACTION?3?5Placing?5too?5many?5aircr@
CONST	SEGMENT
??_C@_0EJ@HDHAFCHD@FACTION?3?5Placing?5too?5many?5aircr@ DB 'FACTION: Pla'
	DB	'cing too many aircraft (group %s, (%d)) at %s (%d) - posn %d', 00H ; `string'
CONST	ENDS
;	COMDAT ??_C@_0BF@LBOCPGPN@formation_components@
CONST	SEGMENT
??_C@_0BF@LBOCPGPN@formation_components@ DB 'formation_components', 00H ; `string'
CONST	ENDS
;	COMDAT ?__LINE__Var@?0??create_landed_faction_group@@YGPAUENTITY@@PAU2@HW4FORMATION_COMPONENT_TYPES@@@Z@4JA
_DATA	SEGMENT
?__LINE__Var@?0??create_landed_faction_group@@YGPAUENTITY@@PAU2@HW4FORMATION_COMPONENT_TYPES@@@Z@4JA DD 01efH ; `create_landed_faction_group'::`1'::__LINE__Var
_DATA	ENDS
;	COMDAT ??_C@_02HODPCBMO@wp@
CONST	SEGMENT
??_C@_02HODPCBMO@wp@ DB 'wp', 00H			; `string'
CONST	ENDS
;	COMDAT ??_C@_0CP@NOCCPNPK@get_game_status?5?$CI?$CJ?5?$DN?$DN?5GAME_STAT@
CONST	SEGMENT
??_C@_0CP@NOCCPNPK@get_game_status?5?$CI?$CJ?5?$DN?$DN?5GAME_STAT@ DB 'ge'
	DB	't_game_status () == GAME_STATUS_INITIALISING', 00H ; `string'
CONST	ENDS
;	COMDAT ??_C@_06MLKDMCBD@parent@
CONST	SEGMENT
??_C@_06MLKDMCBD@parent@ DB 'parent', 00H		; `string'
CONST	ENDS
;	COMDAT ??_C@_0DH@KIHAKAGM@get_local_entity_type?5?$CIkeysite?$CJ@
CONST	SEGMENT
??_C@_0DH@KIHAKAGM@get_local_entity_type?5?$CIkeysite?$CJ@ DB 'get_local_'
	DB	'entity_type (keysite) == ENTITY_TYPE_KEYSITE', 00H ; `string'
CONST	ENDS
;	COMDAT ??_C@_07FBNBNOMI@keysite@
CONST	SEGMENT
??_C@_07FBNBNOMI@keysite@ DB 'keysite', 00H		; `string'
CONST	ENDS
;	COMDAT ?__LINE__Var@?0??create_landed_faction_members@@YGPAUENTITY@@PAU2@HHH@Z@4JA
_DATA	SEGMENT
?__LINE__Var@?0??create_landed_faction_members@@YGPAUENTITY@@PAU2@HHH@Z@4JA DD 010bH ; `create_landed_faction_members'::`1'::__LINE__Var
_DATA	ENDS
;	COMDAT ??_C@_0BC@PODNONFH@ASSERT?5?$CFs?5?$CI?$CFs?3?$CFd?$CJ@
CONST	SEGMENT
??_C@_0BC@PODNONFH@ASSERT?5?$CFs?5?$CI?$CFs?3?$CFd?$CJ@ DB 'ASSERT %s (%s'
	DB	':%d)', 00H					; `string'
CONST	ENDS
;	COMDAT ?__LINE__Var@?0??create_faction@@YGXW4ENTITY_SIDES@@H@Z@4JA
_DATA	SEGMENT
?__LINE__Var@?0??create_faction@@YGXW4ENTITY_SIDES@@H@Z@4JA DD 0eaH ; `create_faction'::`1'::__LINE__Var
_DATA	ENDS
;	COMDAT ?__LINE__Var@?0??clear_factions@@YGXXZ@4JA
_DATA	SEGMENT
?__LINE__Var@?0??clear_factions@@YGXXZ@4JA DD 0d1H	; `clear_factions'::`1'::__LINE__Var
_DATA	ENDS
;	COMDAT ??_C@_0EK@GKFKMPCP@?$CD?$CD?$CDCUSTOM?5TEXTURE?5STARTUP?3?5fact@
CONST	SEGMENT
??_C@_0EK@GKFKMPCP@?$CD?$CD?$CDCUSTOM?5TEXTURE?5STARTUP?3?5fact@ DB '###C'
	DB	'USTOM TEXTURE STARTUP: faction.c: create_campaign: read_map_i'
	DB	'nfo_data', 00H				; `string'
CONST	ENDS
;	COMDAT ??_C@_0BG@EFCJJKAA@get_session_entity?5?$CI?$CJ@
CONST	SEGMENT
??_C@_0BG@EFCJJKAA@get_session_entity?5?$CI?$CJ@ DB 'get_session_entity ('
	DB	')', 00H					; `string'
CONST	ENDS
;	COMDAT ??_C@_08EFGGCJLD@?$CFs?2?$CFs?2?$CFs@
CONST	SEGMENT
??_C@_08EFGGCJLD@?$CFs?2?$CFs?2?$CFs@ DB '%s\%s\%s', 00H ; `string'
CONST	ENDS
;	COMDAT ??_C@_0CJ@DMBLBJBK@get_comms_model?5?$CI?$CJ?5?$DN?$DN?5COMMS_MOD@
CONST	SEGMENT
??_C@_0CJ@DMBLBJBK@get_comms_model?5?$CI?$CJ?5?$DN?$DN?5COMMS_MOD@ DB 'ge'
	DB	't_comms_model () == COMMS_MODEL_SERVER', 00H ; `string'
CONST	ENDS
;	COMDAT ??_C@_0BH@GDGOJOI@?$CBget_session_entity?5?$CI?$CJ@
CONST	SEGMENT
??_C@_0BH@GDGOJOI@?$CBget_session_entity?5?$CI?$CJ@ DB '!get_session_enti'
	DB	'ty ()', 00H					; `string'
CONST	ENDS
;	COMDAT ??_C@_0EB@JEOGKGCM@c?3?2users?2nhv90?2projects?2eech?2ap@
CONST	SEGMENT
??_C@_0EB@JEOGKGCM@c?3?2users?2nhv90?2projects?2eech?2ap@ DB 'c:\users\nh'
	DB	'v90\projects\eech\aphavoc\source\ai\faction\faction.c', 00H ; `string'
CONST	ENDS
;	COMDAT ?__LINE__Var@?0??create_campaign@@YGXPAUSESSION_LIST_DATA_TYPE@@@Z@4JA
_DATA	SEGMENT
?__LINE__Var@?0??create_campaign@@YGXPAUSESSION_LIST_DATA_TYPE@@@Z@4JA DD 070H ; `create_campaign'::`1'::__LINE__Var
_DATA	ENDS
;	COMDAT ??_C@_02DKCKIIND@?$CFs@
CONST	SEGMENT
??_C@_02DKCKIIND@?$CFs@ DB '%s', 00H			; `string'
CONST	ENDS
; Function compile flags: /Odtp /ZI
; File c:\program files (x86)\microsoft visual studio\2017\community\vc\tools\msvc\14.16.27023\include\algorithm
;	COMDAT ??$min@H@std@@YGABHABH0@Z
_TEXT	SEGMENT
__Left$ = 8						; size = 4
__Right$ = 12						; size = 4
??$min@H@std@@YGABHABH0@Z PROC				; std::min<int>, COMDAT

; 5427 : 	{	// return smaller of _Left and _Right

  00000	55		 push	 ebp
  00001	8b ec		 mov	 ebp, esp
  00003	83 ec 40	 sub	 esp, 64			; 00000040H
  00006	53		 push	 ebx
  00007	56		 push	 esi
  00008	57		 push	 edi

; 5428 : 	if (_Right < _Left)

  00009	8b 45 0c	 mov	 eax, DWORD PTR __Right$[ebp]
  0000c	8b 4d 08	 mov	 ecx, DWORD PTR __Left$[ebp]
  0000f	8b 10		 mov	 edx, DWORD PTR [eax]
  00011	3b 11		 cmp	 edx, DWORD PTR [ecx]
  00013	7d 61		 jge	 SHORT $LN8@min
$LN4@min:

; 5429 : 		{
; 5430 : 		_STL_ASSERT(!(_Left < _Right), "invalid comparator");

  00015	8b 45 08	 mov	 eax, DWORD PTR __Left$[ebp]
  00018	8b 4d 0c	 mov	 ecx, DWORD PTR __Right$[ebp]
  0001b	8b 10		 mov	 edx, DWORD PTR [eax]
  0001d	3b 11		 cmp	 edx, DWORD PTR [ecx]
  0001f	7c 02		 jl	 SHORT $LN7@min
  00021	eb 4a		 jmp	 SHORT $LN2@min
$LN7@min:
  00023	68 00 00 00 00	 push	 OFFSET ??_C@_0BD@FEEMDEPI@invalid?5comparator@
  00028	68 00 00 00 00	 push	 OFFSET ??_C@_02DKCKIIND@?$CFs@
  0002d	6a 00		 push	 0
  0002f	68 36 15 00 00	 push	 5430			; 00001536H
  00034	68 00 00 00 00	 push	 OFFSET ??_C@_0GK@JMBMHIBC@c?3?2program?5files?5?$CIx86?$CJ?2microsof@
  00039	6a 02		 push	 2
  0003b	ff 15 00 00 00
	00		 call	 DWORD PTR __imp___CrtDbgReport
  00041	83 c4 18	 add	 esp, 24			; 00000018H
  00044	83 f8 01	 cmp	 eax, 1
  00047	75 01		 jne	 SHORT $LN12@min
  00049	cc		 int	 3
$LN12@min:
  0004a	6a 00		 push	 0
  0004c	68 36 15 00 00	 push	 5430			; 00001536H
  00051	68 00 00 00 00	 push	 OFFSET ??_C@_1NE@FKBPBJEB@?$AAc?$AA?3?$AA?2?$AAp?$AAr?$AAo?$AAg?$AAr?$AAa?$AAm?$AA?5?$AAf?$AAi?$AAl?$AAe@
  00056	68 00 00 00 00	 push	 OFFSET ??_C@_1BC@BLAPCBGI@?$AAs?$AAt?$AAd?$AA?3?$AA?3?$AAm?$AAi?$AAn@
  0005b	68 00 00 00 00	 push	 OFFSET ??_C@_1CK@NDNHPKPI@?$AA?$CC?$AAi?$AAn?$AAv?$AAa?$AAl?$AAi?$AAd?$AA?5?$AAc?$AAo?$AAm?$AAp?$AAa?$AAr@
  00060	ff 15 00 00 00
	00		 call	 DWORD PTR __imp___invalid_parameter
  00066	83 c4 14	 add	 esp, 20			; 00000014H
  00069	33 c0		 xor	 eax, eax
  0006b	75 b6		 jne	 SHORT $LN7@min
$LN2@min:
  0006d	33 c0		 xor	 eax, eax
  0006f	75 a4		 jne	 SHORT $LN4@min

; 5431 : 		return (_Right);

  00071	8b 45 0c	 mov	 eax, DWORD PTR __Right$[ebp]
  00074	eb 03		 jmp	 SHORT $LN11@min
$LN8@min:

; 5432 : 		}
; 5433 : 
; 5434 : 	return (_Left);

  00076	8b 45 08	 mov	 eax, DWORD PTR __Left$[ebp]
$LN11@min:

; 5435 : 	}

  00079	5f		 pop	 edi
  0007a	5e		 pop	 esi
  0007b	5b		 pop	 ebx
  0007c	8b e5		 mov	 esp, ebp
  0007e	5d		 pop	 ebp
  0007f	c2 08 00	 ret	 8
??$min@H@std@@YGABHABH0@Z ENDP				; std::min<int>
_TEXT	ENDS
; Function compile flags: /Odtp /ZI
; File c:\program files (x86)\microsoft visual studio\2017\community\vc\tools\msvc\14.16.27023\include\algorithm
;	COMDAT ??$max@M@std@@YGABMABM0@Z
_TEXT	SEGMENT
__Left$ = 8						; size = 4
__Right$ = 12						; size = 4
??$max@M@std@@YGABMABM0@Z PROC				; std::max<float>, COMDAT

; 5387 : 	{	// return larger of _Left and _Right

  00000	55		 push	 ebp
  00001	8b ec		 mov	 ebp, esp
  00003	83 ec 40	 sub	 esp, 64			; 00000040H
  00006	53		 push	 ebx
  00007	56		 push	 esi
  00008	57		 push	 edi

; 5388 : 	if (_Left < _Right)

  00009	8b 45 0c	 mov	 eax, DWORD PTR __Right$[ebp]
  0000c	8b 4d 08	 mov	 ecx, DWORD PTR __Left$[ebp]
  0000f	f3 0f 10 00	 movss	 xmm0, DWORD PTR [eax]
  00013	0f 2f 01	 comiss	 xmm0, DWORD PTR [ecx]
  00016	76 64		 jbe	 SHORT $LN8@max
$LN4@max:

; 5389 : 		{
; 5390 : 		_STL_ASSERT(!(_Right < _Left), "invalid comparator");

  00018	8b 45 08	 mov	 eax, DWORD PTR __Left$[ebp]
  0001b	8b 4d 0c	 mov	 ecx, DWORD PTR __Right$[ebp]
  0001e	f3 0f 10 00	 movss	 xmm0, DWORD PTR [eax]
  00022	0f 2f 01	 comiss	 xmm0, DWORD PTR [ecx]
  00025	77 02		 ja	 SHORT $LN9@max
  00027	eb 4a		 jmp	 SHORT $LN6@max
$LN9@max:
  00029	68 00 00 00 00	 push	 OFFSET ??_C@_0BD@FEEMDEPI@invalid?5comparator@
  0002e	68 00 00 00 00	 push	 OFFSET ??_C@_02DKCKIIND@?$CFs@
  00033	6a 00		 push	 0
  00035	68 0e 15 00 00	 push	 5390			; 0000150eH
  0003a	68 00 00 00 00	 push	 OFFSET ??_C@_0GK@JMBMHIBC@c?3?2program?5files?5?$CIx86?$CJ?2microsof@
  0003f	6a 02		 push	 2
  00041	ff 15 00 00 00
	00		 call	 DWORD PTR __imp___CrtDbgReport
  00047	83 c4 18	 add	 esp, 24			; 00000018H
  0004a	83 f8 01	 cmp	 eax, 1
  0004d	75 01		 jne	 SHORT $LN12@max
  0004f	cc		 int	 3
$LN12@max:
  00050	6a 00		 push	 0
  00052	68 0e 15 00 00	 push	 5390			; 0000150eH
  00057	68 00 00 00 00	 push	 OFFSET ??_C@_1NE@FKBPBJEB@?$AAc?$AA?3?$AA?2?$AAp?$AAr?$AAo?$AAg?$AAr?$AAa?$AAm?$AA?5?$AAf?$AAi?$AAl?$AAe@
  0005c	68 00 00 00 00	 push	 OFFSET ??_C@_1BC@ICCOKLEG@?$AAs?$AAt?$AAd?$AA?3?$AA?3?$AAm?$AAa?$AAx@
  00061	68 00 00 00 00	 push	 OFFSET ??_C@_1CK@NDNHPKPI@?$AA?$CC?$AAi?$AAn?$AAv?$AAa?$AAl?$AAi?$AAd?$AA?5?$AAc?$AAo?$AAm?$AAp?$AAa?$AAr@
  00066	ff 15 00 00 00
	00		 call	 DWORD PTR __imp___invalid_parameter
  0006c	83 c4 14	 add	 esp, 20			; 00000014H
  0006f	33 c0		 xor	 eax, eax
  00071	75 b6		 jne	 SHORT $LN9@max
$LN6@max:
  00073	33 c0		 xor	 eax, eax
  00075	75 a1		 jne	 SHORT $LN4@max

; 5391 : 		return (_Right);

  00077	8b 45 0c	 mov	 eax, DWORD PTR __Right$[ebp]
  0007a	eb 03		 jmp	 SHORT $LN1@max
$LN8@max:

; 5392 : 		}
; 5393 : 
; 5394 : 	return (_Left);

  0007c	8b 45 08	 mov	 eax, DWORD PTR __Left$[ebp]
$LN1@max:

; 5395 : 	}

  0007f	5f		 pop	 edi
  00080	5e		 pop	 esi
  00081	5b		 pop	 ebx
  00082	8b e5		 mov	 esp, ebp
  00084	5d		 pop	 ebp
  00085	c2 08 00	 ret	 8
??$max@M@std@@YGABMABM0@Z ENDP				; std::max<float>
_TEXT	ENDS
; Function compile flags: /Odtp /ZI
; File c:\program files (x86)\microsoft visual studio\2017\community\vc\tools\msvc\14.16.27023\include\algorithm
;	COMDAT ??$min@M@std@@YGABMABM0@Z
_TEXT	SEGMENT
__Left$ = 8						; size = 4
__Right$ = 12						; size = 4
??$min@M@std@@YGABMABM0@Z PROC				; std::min<float>, COMDAT

; 5427 : 	{	// return smaller of _Left and _Right

  00000	55		 push	 ebp
  00001	8b ec		 mov	 ebp, esp
  00003	83 ec 40	 sub	 esp, 64			; 00000040H
  00006	53		 push	 ebx
  00007	56		 push	 esi
  00008	57		 push	 edi

; 5428 : 	if (_Right < _Left)

  00009	8b 45 08	 mov	 eax, DWORD PTR __Left$[ebp]
  0000c	8b 4d 0c	 mov	 ecx, DWORD PTR __Right$[ebp]
  0000f	f3 0f 10 00	 movss	 xmm0, DWORD PTR [eax]
  00013	0f 2f 01	 comiss	 xmm0, DWORD PTR [ecx]
  00016	76 64		 jbe	 SHORT $LN8@min
$LN4@min:

; 5429 : 		{
; 5430 : 		_STL_ASSERT(!(_Left < _Right), "invalid comparator");

  00018	8b 45 0c	 mov	 eax, DWORD PTR __Right$[ebp]
  0001b	8b 4d 08	 mov	 ecx, DWORD PTR __Left$[ebp]
  0001e	f3 0f 10 00	 movss	 xmm0, DWORD PTR [eax]
  00022	0f 2f 01	 comiss	 xmm0, DWORD PTR [ecx]
  00025	77 02		 ja	 SHORT $LN9@min
  00027	eb 4a		 jmp	 SHORT $LN6@min
$LN9@min:
  00029	68 00 00 00 00	 push	 OFFSET ??_C@_0BD@FEEMDEPI@invalid?5comparator@
  0002e	68 00 00 00 00	 push	 OFFSET ??_C@_02DKCKIIND@?$CFs@
  00033	6a 00		 push	 0
  00035	68 36 15 00 00	 push	 5430			; 00001536H
  0003a	68 00 00 00 00	 push	 OFFSET ??_C@_0GK@JMBMHIBC@c?3?2program?5files?5?$CIx86?$CJ?2microsof@
  0003f	6a 02		 push	 2
  00041	ff 15 00 00 00
	00		 call	 DWORD PTR __imp___CrtDbgReport
  00047	83 c4 18	 add	 esp, 24			; 00000018H
  0004a	83 f8 01	 cmp	 eax, 1
  0004d	75 01		 jne	 SHORT $LN12@min
  0004f	cc		 int	 3
$LN12@min:
  00050	6a 00		 push	 0
  00052	68 36 15 00 00	 push	 5430			; 00001536H
  00057	68 00 00 00 00	 push	 OFFSET ??_C@_1NE@FKBPBJEB@?$AAc?$AA?3?$AA?2?$AAp?$AAr?$AAo?$AAg?$AAr?$AAa?$AAm?$AA?5?$AAf?$AAi?$AAl?$AAe@
  0005c	68 00 00 00 00	 push	 OFFSET ??_C@_1BC@BLAPCBGI@?$AAs?$AAt?$AAd?$AA?3?$AA?3?$AAm?$AAi?$AAn@
  00061	68 00 00 00 00	 push	 OFFSET ??_C@_1CK@NDNHPKPI@?$AA?$CC?$AAi?$AAn?$AAv?$AAa?$AAl?$AAi?$AAd?$AA?5?$AAc?$AAo?$AAm?$AAp?$AAa?$AAr@
  00066	ff 15 00 00 00
	00		 call	 DWORD PTR __imp___invalid_parameter
  0006c	83 c4 14	 add	 esp, 20			; 00000014H
  0006f	33 c0		 xor	 eax, eax
  00071	75 b6		 jne	 SHORT $LN9@min
$LN6@min:
  00073	33 c0		 xor	 eax, eax
  00075	75 a1		 jne	 SHORT $LN4@min

; 5431 : 		return (_Right);

  00077	8b 45 0c	 mov	 eax, DWORD PTR __Right$[ebp]
  0007a	eb 03		 jmp	 SHORT $LN1@min
$LN8@min:

; 5432 : 		}
; 5433 : 
; 5434 : 	return (_Left);

  0007c	8b 45 08	 mov	 eax, DWORD PTR __Left$[ebp]
$LN1@min:

; 5435 : 	}

  0007f	5f		 pop	 edi
  00080	5e		 pop	 esi
  00081	5b		 pop	 ebx
  00082	8b e5		 mov	 esp, ebp
  00084	5d		 pop	 ebp
  00085	c2 08 00	 ret	 8
??$min@M@std@@YGABMABM0@Z ENDP				; std::min<float>
_TEXT	ENDS
; Function compile flags: /Odtp /ZI
; File c:\users\nhv90\projects\eech\aphavoc\source\ai\faction\faction.c
;	COMDAT ?create_mobile_member@@YGPAUENTITY@@W4ENTITY_TYPES@@HHPAU1@PAUVEC3D@@HHHW4ENTITY_SIDES@@M@Z
_TEXT	SEGMENT
tv308 = -76						; size = 4
tv286 = -76						; size = 4
tv248 = -76						; size = 4
tv217 = -76						; size = 4
tv190 = -76						; size = 4
tv159 = -76						; size = 4
tv139 = -76						; size = 4
tv300 = -72						; size = 4
tv278 = -72						; size = 4
tv240 = -72						; size = 4
tv209 = -72						; size = 4
tv182 = -72						; size = 4
tv165 = -72						; size = 4
tv151 = -72						; size = 4
tv131 = -72						; size = 4
tv66 = -72						; size = 4
_member$ = -4						; size = 4
_type$ = 8						; size = 4
_index$ = 12						; size = 4
_client_server_create$ = 16				; size = 4
_group$ = 20						; size = 4
_position$ = 24						; size = 4
_member_type$ = 28					; size = 4
_formation_position$ = 32				; size = 4
_operational_state$ = 36				; size = 4
_side$ = 40						; size = 4
_uc_state$ = 44						; size = 4
?create_mobile_member@@YGPAUENTITY@@W4ENTITY_TYPES@@HHPAU1@PAUVEC3D@@HHHW4ENTITY_SIDES@@M@Z PROC ; create_mobile_member, COMDAT

; 1668 : {

  00000	55		 push	 ebp
  00001	8b ec		 mov	 ebp, esp
  00003	83 ec 4c	 sub	 esp, 76			; 0000004cH
  00006	53		 push	 ebx
  00007	56		 push	 esi
  00008	57		 push	 edi

; 1669 : 
; 1670 : 	entity
; 1671 : 		*member;
; 1672 : 	
; 1673 : 	member = NULL;

  00009	c7 45 fc 00 00
	00 00		 mov	 DWORD PTR _member$[ebp], 0

; 1674 : 
; 1675 : 	if ((!client_server_create) || (command_line_run_mode == RUN_MODE_AITOOL))

  00010	83 7d 10 00	 cmp	 DWORD PTR _client_server_create$[ebp], 0
  00014	74 0d		 je	 SHORT $LN8@create_mob
  00016	83 3d 00 00 00
	00 01		 cmp	 DWORD PTR ?command_line_run_mode@@3HA, 1 ; command_line_run_mode
  0001d	0f 85 b2 01 00
	00		 jne	 $LN6@create_mob
$LN8@create_mob:

; 1676 : 	{
; 1677 : 		//
; 1678 : 		// Run mode "AI tool" - everything gets created local-only
; 1679 : 		//
; 1680 : 		
; 1681 : 		switch (type)

  00023	8b 45 08	 mov	 eax, DWORD PTR _type$[ebp]
  00026	89 45 b8	 mov	 DWORD PTR tv66[ebp], eax
  00029	8b 4d b8	 mov	 ecx, DWORD PTR tv66[ebp]
  0002c	83 e9 01	 sub	 ecx, 1
  0002f	89 4d b8	 mov	 DWORD PTR tv66[ebp], ecx
  00032	83 7d b8 1b	 cmp	 DWORD PTR tv66[ebp], 27	; 0000001bH
  00036	77 79		 ja	 SHORT $LN13@create_mob
  00038	8b 55 b8	 mov	 edx, DWORD PTR tv66[ebp]
  0003b	0f b6 82 00 00
	00 00		 movzx	 eax, BYTE PTR $LN50@create_mob[edx]
  00042	ff 24 85 00 00
	00 00		 jmp	 DWORD PTR $LN52@create_mob[eax*4]
$LN9@create_mob:

; 1682 : 		{
; 1683 : 
; 1684 : 			case ENTITY_TYPE_ANTI_AIRCRAFT:
; 1685 : 			{
; 1686 : 				member = create_local_entity_anti_aircraft (index, member_type, group, position);

  00049	8b 45 18	 mov	 eax, DWORD PTR _position$[ebp]
  0004c	50		 push	 eax
  0004d	8b 4d 14	 mov	 ecx, DWORD PTR _group$[ebp]
  00050	51		 push	 ecx
  00051	8b 55 1c	 mov	 edx, DWORD PTR _member_type$[ebp]
  00054	52		 push	 edx
  00055	8b 45 0c	 mov	 eax, DWORD PTR _index$[ebp]
  00058	50		 push	 eax
  00059	e8 00 00 00 00	 call	 ?create_local_entity_anti_aircraft@@YGPAUENTITY@@HHPAU1@PAUVEC3D@@@Z ; create_local_entity_anti_aircraft
  0005e	89 45 fc	 mov	 DWORD PTR _member$[ebp], eax

; 1687 : 	
; 1688 : 				break;

  00061	eb 68		 jmp	 SHORT $LN2@create_mob
$LN10@create_mob:

; 1689 : 			}
; 1690 : 
; 1691 : 			case ENTITY_TYPE_ROUTED_VEHICLE:
; 1692 : 			{
; 1693 : 
; 1694 : 				member = create_local_entity_routed_vehicle (index, member_type, group, position);

  00063	8b 45 18	 mov	 eax, DWORD PTR _position$[ebp]
  00066	50		 push	 eax
  00067	8b 4d 14	 mov	 ecx, DWORD PTR _group$[ebp]
  0006a	51		 push	 ecx
  0006b	8b 55 1c	 mov	 edx, DWORD PTR _member_type$[ebp]
  0006e	52		 push	 edx
  0006f	8b 45 0c	 mov	 eax, DWORD PTR _index$[ebp]
  00072	50		 push	 eax
  00073	e8 00 00 00 00	 call	 ?create_local_entity_routed_vehicle@@YGPAUENTITY@@HHPAU1@PAUVEC3D@@@Z ; create_local_entity_routed_vehicle
  00078	89 45 fc	 mov	 DWORD PTR _member$[ebp], eax

; 1695 : 
; 1696 : 				break;

  0007b	eb 4e		 jmp	 SHORT $LN2@create_mob
$LN11@create_mob:

; 1697 : 			}
; 1698 : 
; 1699 : 			case ENTITY_TYPE_SHIP_VEHICLE:
; 1700 : 			{
; 1701 : 
; 1702 : 				member = create_local_entity_ship (index, member_type, group, position);

  0007d	8b 45 18	 mov	 eax, DWORD PTR _position$[ebp]
  00080	50		 push	 eax
  00081	8b 4d 14	 mov	 ecx, DWORD PTR _group$[ebp]
  00084	51		 push	 ecx
  00085	8b 55 1c	 mov	 edx, DWORD PTR _member_type$[ebp]
  00088	52		 push	 edx
  00089	8b 45 0c	 mov	 eax, DWORD PTR _index$[ebp]
  0008c	50		 push	 eax
  0008d	e8 00 00 00 00	 call	 ?create_local_entity_ship@@YGPAUENTITY@@HHPAU1@PAUVEC3D@@@Z ; create_local_entity_ship
  00092	89 45 fc	 mov	 DWORD PTR _member$[ebp], eax

; 1703 : 
; 1704 : 				break;

  00095	eb 34		 jmp	 SHORT $LN2@create_mob
$LN12@create_mob:

; 1705 : 			}
; 1706 : 
; 1707 : 			case ENTITY_TYPE_PERSON:
; 1708 : 			{
; 1709 : 
; 1710 : 				member = create_local_entity_person (index, member_type, group, position);

  00097	8b 45 18	 mov	 eax, DWORD PTR _position$[ebp]
  0009a	50		 push	 eax
  0009b	8b 4d 14	 mov	 ecx, DWORD PTR _group$[ebp]
  0009e	51		 push	 ecx
  0009f	8b 55 1c	 mov	 edx, DWORD PTR _member_type$[ebp]
  000a2	52		 push	 edx
  000a3	8b 45 0c	 mov	 eax, DWORD PTR _index$[ebp]
  000a6	50		 push	 eax
  000a7	e8 00 00 00 00	 call	 ?create_local_entity_person@@YGPAUENTITY@@HHPAU1@PAUVEC3D@@@Z ; create_local_entity_person
  000ac	89 45 fc	 mov	 DWORD PTR _member$[ebp], eax

; 1711 : 
; 1712 : 				break;

  000af	eb 1a		 jmp	 SHORT $LN2@create_mob
$LN13@create_mob:

; 1713 : 			}
; 1714 : 
; 1715 : 			default:
; 1716 : 			{
; 1717 : 				debug_fatal ("FACTION : Invalid mobile created ( type %s )", entity_type_names [type]);

  000b1	8b 45 08	 mov	 eax, DWORD PTR _type$[ebp]
  000b4	8b 0d 00 00 00
	00		 mov	 ecx, DWORD PTR ?entity_type_names@@3PAPBDA ; entity_type_names
  000ba	8b 14 81	 mov	 edx, DWORD PTR [ecx+eax*4]
  000bd	52		 push	 edx
  000be	68 00 00 00 00	 push	 OFFSET ??_C@_0CN@HPLJIAFL@FACTION?5?3?5Invalid?5mobile?5create@
  000c3	e8 00 00 00 00	 call	 ?debug_fatal@@YAXPBDZZ	; debug_fatal
  000c8	83 c4 08	 add	 esp, 8
$LN2@create_mob:

; 1718 : 			}
; 1719 : 		}
; 1720 : 
; 1721 : 		set_local_entity_int_value (member, INT_TYPE_FORMATION_POSITION, formation_position);

  000cb	83 7d fc 00	 cmp	 DWORD PTR _member$[ebp], 0
  000cf	74 0a		 je	 SHORT $LN22@create_mob
  000d1	8b 45 fc	 mov	 eax, DWORD PTR _member$[ebp]
  000d4	8b 08		 mov	 ecx, DWORD PTR [eax]
  000d6	89 4d b8	 mov	 DWORD PTR tv131[ebp], ecx
  000d9	eb 21		 jmp	 SHORT $LN23@create_mob
$LN22@create_mob:
  000db	8b 15 00 00 00
	00		 mov	 edx, DWORD PTR ?__LINE__Var@?0??create_mobile_member@@YGPAUENTITY@@W4ENTITY_TYPES@@HHPAU2@PAUVEC3D@@HHHW4ENTITY_SIDES@@M@Z@4JA
  000e1	83 c2 35	 add	 edx, 53			; 00000035H
  000e4	52		 push	 edx
  000e5	68 00 00 00 00	 push	 OFFSET ??_C@_0EB@JEOGKGCM@c?3?2users?2nhv90?2projects?2eech?2ap@
  000ea	a1 00 00 00 00	 mov	 eax, DWORD PTR ?null_entity_pointer_message@@3PBDB ; null_entity_pointer_message
  000ef	50		 push	 eax
  000f0	e8 00 00 00 00	 call	 ?process_assert@@YGXPBD0H@Z ; process_assert
  000f5	c7 45 b8 00 00
	00 00		 mov	 DWORD PTR tv131[ebp], 0
$LN23@create_mob:
  000fc	b9 01 00 00 00	 mov	 ecx, 1
  00101	85 c9		 test	 ecx, ecx
  00103	74 09		 je	 SHORT $LN24@create_mob
  00105	c7 45 b4 3e 00
	00 00		 mov	 DWORD PTR tv139[ebp], 62 ; 0000003eH
  0010c	eb 21		 jmp	 SHORT $LN25@create_mob
$LN24@create_mob:
  0010e	8b 15 00 00 00
	00		 mov	 edx, DWORD PTR ?__LINE__Var@?0??create_mobile_member@@YGPAUENTITY@@W4ENTITY_TYPES@@HHPAU2@PAUVEC3D@@HHHW4ENTITY_SIDES@@M@Z@4JA
  00114	83 c2 35	 add	 edx, 53			; 00000035H
  00117	52		 push	 edx
  00118	68 00 00 00 00	 push	 OFFSET ??_C@_0EB@JEOGKGCM@c?3?2users?2nhv90?2projects?2eech?2ap@
  0011d	a1 00 00 00 00	 mov	 eax, DWORD PTR ?overload_invalid_int_type_message@@3PBDB ; overload_invalid_int_type_message
  00122	50		 push	 eax
  00123	e8 00 00 00 00	 call	 ?process_assert@@YGXPBD0H@Z ; process_assert
  00128	c7 45 b4 00 00
	00 00		 mov	 DWORD PTR tv139[ebp], 0
$LN25@create_mob:
  0012f	8b 4d 20	 mov	 ecx, DWORD PTR _formation_position$[ebp]
  00132	51		 push	 ecx
  00133	6a 3e		 push	 62			; 0000003eH
  00135	8b 55 fc	 mov	 edx, DWORD PTR _member$[ebp]
  00138	52		 push	 edx
  00139	69 45 b8 5c 04
	00 00		 imul	 eax, DWORD PTR tv131[ebp], 1116
  00140	8b 4d b4	 mov	 ecx, DWORD PTR tv139[ebp]
  00143	8b 94 88 00 00
	00 00		 mov	 edx, DWORD PTR ?fn_set_local_entity_int_value@@3PAY0BBH@P6GXPAUENTITY@@W4INT_TYPES@@H@ZA[eax+ecx*4]
  0014a	ff d2		 call	 edx

; 1722 : 
; 1723 : 		set_local_entity_int_value (member, INT_TYPE_OPERATIONAL_STATE, operational_state);

  0014c	83 7d fc 00	 cmp	 DWORD PTR _member$[ebp], 0
  00150	74 0a		 je	 SHORT $LN26@create_mob
  00152	8b 45 fc	 mov	 eax, DWORD PTR _member$[ebp]
  00155	8b 08		 mov	 ecx, DWORD PTR [eax]
  00157	89 4d b8	 mov	 DWORD PTR tv151[ebp], ecx
  0015a	eb 21		 jmp	 SHORT $LN27@create_mob
$LN26@create_mob:
  0015c	8b 15 00 00 00
	00		 mov	 edx, DWORD PTR ?__LINE__Var@?0??create_mobile_member@@YGPAUENTITY@@W4ENTITY_TYPES@@HHPAU2@PAUVEC3D@@HHHW4ENTITY_SIDES@@M@Z@4JA
  00162	83 c2 37	 add	 edx, 55			; 00000037H
  00165	52		 push	 edx
  00166	68 00 00 00 00	 push	 OFFSET ??_C@_0EB@JEOGKGCM@c?3?2users?2nhv90?2projects?2eech?2ap@
  0016b	a1 00 00 00 00	 mov	 eax, DWORD PTR ?null_entity_pointer_message@@3PBDB ; null_entity_pointer_message
  00170	50		 push	 eax
  00171	e8 00 00 00 00	 call	 ?process_assert@@YGXPBD0H@Z ; process_assert
  00176	c7 45 b8 00 00
	00 00		 mov	 DWORD PTR tv151[ebp], 0
$LN27@create_mob:
  0017d	b9 01 00 00 00	 mov	 ecx, 1
  00182	85 c9		 test	 ecx, ecx
  00184	74 09		 je	 SHORT $LN28@create_mob
  00186	c7 45 b4 97 00
	00 00		 mov	 DWORD PTR tv159[ebp], 151 ; 00000097H
  0018d	eb 21		 jmp	 SHORT $LN29@create_mob
$LN28@create_mob:
  0018f	8b 15 00 00 00
	00		 mov	 edx, DWORD PTR ?__LINE__Var@?0??create_mobile_member@@YGPAUENTITY@@W4ENTITY_TYPES@@HHPAU2@PAUVEC3D@@HHHW4ENTITY_SIDES@@M@Z@4JA
  00195	83 c2 37	 add	 edx, 55			; 00000037H
  00198	52		 push	 edx
  00199	68 00 00 00 00	 push	 OFFSET ??_C@_0EB@JEOGKGCM@c?3?2users?2nhv90?2projects?2eech?2ap@
  0019e	a1 00 00 00 00	 mov	 eax, DWORD PTR ?overload_invalid_int_type_message@@3PBDB ; overload_invalid_int_type_message
  001a3	50		 push	 eax
  001a4	e8 00 00 00 00	 call	 ?process_assert@@YGXPBD0H@Z ; process_assert
  001a9	c7 45 b4 00 00
	00 00		 mov	 DWORD PTR tv159[ebp], 0
$LN29@create_mob:
  001b0	8b 4d 24	 mov	 ecx, DWORD PTR _operational_state$[ebp]
  001b3	51		 push	 ecx
  001b4	68 97 00 00 00	 push	 151			; 00000097H
  001b9	8b 55 fc	 mov	 edx, DWORD PTR _member$[ebp]
  001bc	52		 push	 edx
  001bd	69 45 b8 5c 04
	00 00		 imul	 eax, DWORD PTR tv151[ebp], 1116
  001c4	8b 4d b4	 mov	 ecx, DWORD PTR tv159[ebp]
  001c7	8b 94 88 00 00
	00 00		 mov	 edx, DWORD PTR ?fn_set_local_entity_int_value@@3PAY0BBH@P6GXPAUENTITY@@W4INT_TYPES@@H@ZA[eax+ecx*4]
  001ce	ff d2		 call	 edx

; 1724 : 	}
; 1725 : 	else

  001d0	e9 bf 03 00 00	 jmp	 $LN7@create_mob
$LN6@create_mob:

; 1726 : 	{
; 1727 : 		//
; 1728 : 		// Run mode "normal" - everything gets created client-server
; 1729 : 		//
; 1730 : 	
; 1731 : 		switch (type)

  001d5	8b 45 08	 mov	 eax, DWORD PTR _type$[ebp]
  001d8	89 45 b8	 mov	 DWORD PTR tv165[ebp], eax
  001db	8b 4d b8	 mov	 ecx, DWORD PTR tv165[ebp]
  001de	83 e9 01	 sub	 ecx, 1
  001e1	89 4d b8	 mov	 DWORD PTR tv165[ebp], ecx
  001e4	83 7d b8 1b	 cmp	 DWORD PTR tv165[ebp], 27 ; 0000001bH
  001e8	0f 87 77 02 00
	00		 ja	 $LN20@create_mob
  001ee	8b 55 b8	 mov	 edx, DWORD PTR tv165[ebp]
  001f1	0f b6 82 00 00
	00 00		 movzx	 eax, BYTE PTR $LN51@create_mob[edx]
  001f8	ff 24 85 00 00
	00 00		 jmp	 DWORD PTR $LN53@create_mob[eax*4]
$LN14@create_mob:

; 1732 : 		{
; 1733 : 	
; 1734 : 			case ENTITY_TYPE_ANTI_AIRCRAFT:
; 1735 : 			{
; 1736 : 				member = create_client_server_entity_anti_aircraft (index, member_type, group, position);

  001ff	8b 45 18	 mov	 eax, DWORD PTR _position$[ebp]
  00202	50		 push	 eax
  00203	8b 4d 14	 mov	 ecx, DWORD PTR _group$[ebp]
  00206	51		 push	 ecx
  00207	8b 55 1c	 mov	 edx, DWORD PTR _member_type$[ebp]
  0020a	52		 push	 edx
  0020b	8b 45 0c	 mov	 eax, DWORD PTR _index$[ebp]
  0020e	50		 push	 eax
  0020f	e8 00 00 00 00	 call	 ?create_client_server_entity_anti_aircraft@@YGPAUENTITY@@HHPAU1@PAUVEC3D@@@Z ; create_client_server_entity_anti_aircraft
  00214	89 45 fc	 mov	 DWORD PTR _member$[ebp], eax

; 1737 : 
; 1738 : 				break;

  00217	e9 63 02 00 00	 jmp	 $LN4@create_mob
$LN15@create_mob:

; 1739 : 			}
; 1740 : 
; 1741 : 			case ENTITY_TYPE_FIXED_WING:
; 1742 : 			{
; 1743 : 		
; 1744 : 				member = create_client_server_entity_fixed_wing (index, member_type, group, position);

  0021c	8b 45 18	 mov	 eax, DWORD PTR _position$[ebp]
  0021f	50		 push	 eax
  00220	8b 4d 14	 mov	 ecx, DWORD PTR _group$[ebp]
  00223	51		 push	 ecx
  00224	8b 55 1c	 mov	 edx, DWORD PTR _member_type$[ebp]
  00227	52		 push	 edx
  00228	8b 45 0c	 mov	 eax, DWORD PTR _index$[ebp]
  0022b	50		 push	 eax
  0022c	e8 00 00 00 00	 call	 ?create_client_server_entity_fixed_wing@@YGPAUENTITY@@HHPAU1@PAUVEC3D@@@Z ; create_client_server_entity_fixed_wing
  00231	89 45 fc	 mov	 DWORD PTR _member$[ebp], eax

; 1745 : 	
; 1746 : 				set_client_server_entity_float_value (member, FLOAT_TYPE_UNDERCARRIAGE_STATE, uc_state);

  00234	83 7d fc 00	 cmp	 DWORD PTR _member$[ebp], 0
  00238	74 0a		 je	 SHORT $LN30@create_mob
  0023a	8b 45 fc	 mov	 eax, DWORD PTR _member$[ebp]
  0023d	8b 08		 mov	 ecx, DWORD PTR [eax]
  0023f	89 4d b8	 mov	 DWORD PTR tv182[ebp], ecx
  00242	eb 21		 jmp	 SHORT $LN31@create_mob
$LN30@create_mob:
  00244	8b 15 00 00 00
	00		 mov	 edx, DWORD PTR ?__LINE__Var@?0??create_mobile_member@@YGPAUENTITY@@W4ENTITY_TYPES@@HHPAU2@PAUVEC3D@@HHHW4ENTITY_SIDES@@M@Z@4JA
  0024a	83 c2 4e	 add	 edx, 78			; 0000004eH
  0024d	52		 push	 edx
  0024e	68 00 00 00 00	 push	 OFFSET ??_C@_0EB@JEOGKGCM@c?3?2users?2nhv90?2projects?2eech?2ap@
  00253	a1 00 00 00 00	 mov	 eax, DWORD PTR ?null_entity_pointer_message@@3PBDB ; null_entity_pointer_message
  00258	50		 push	 eax
  00259	e8 00 00 00 00	 call	 ?process_assert@@YGXPBD0H@Z ; process_assert
  0025e	c7 45 b8 00 00
	00 00		 mov	 DWORD PTR tv182[ebp], 0
$LN31@create_mob:
  00265	b9 01 00 00 00	 mov	 ecx, 1
  0026a	85 c9		 test	 ecx, ecx
  0026c	74 09		 je	 SHORT $LN32@create_mob
  0026e	c7 45 b4 90 00
	00 00		 mov	 DWORD PTR tv190[ebp], 144 ; 00000090H
  00275	eb 21		 jmp	 SHORT $LN33@create_mob
$LN32@create_mob:
  00277	8b 15 00 00 00
	00		 mov	 edx, DWORD PTR ?__LINE__Var@?0??create_mobile_member@@YGPAUENTITY@@W4ENTITY_TYPES@@HHPAU2@PAUVEC3D@@HHHW4ENTITY_SIDES@@M@Z@4JA
  0027d	83 c2 4e	 add	 edx, 78			; 0000004eH
  00280	52		 push	 edx
  00281	68 00 00 00 00	 push	 OFFSET ??_C@_0EB@JEOGKGCM@c?3?2users?2nhv90?2projects?2eech?2ap@
  00286	a1 00 00 00 00	 mov	 eax, DWORD PTR ?overload_invalid_float_type_message@@3PBDB ; overload_invalid_float_type_message
  0028b	50		 push	 eax
  0028c	e8 00 00 00 00	 call	 ?process_assert@@YGXPBD0H@Z ; process_assert
  00291	c7 45 b4 00 00
	00 00		 mov	 DWORD PTR tv190[ebp], 0
$LN33@create_mob:
  00298	51		 push	 ecx
  00299	f3 0f 10 45 2c	 movss	 xmm0, DWORD PTR _uc_state$[ebp]
  0029e	f3 0f 11 04 24	 movss	 DWORD PTR [esp], xmm0
  002a3	68 90 00 00 00	 push	 144			; 00000090H
  002a8	8b 4d fc	 mov	 ecx, DWORD PTR _member$[ebp]
  002ab	51		 push	 ecx
  002ac	69 55 b8 78 05
	00 00		 imul	 edx, DWORD PTR tv182[ebp], 1400
  002b3	8b 45 b4	 mov	 eax, DWORD PTR tv190[ebp]
  002b6	8d 8c c2 00 00
	00 00		 lea	 ecx, DWORD PTR ?fn_set_client_server_entity_float_value@@3PAY1KP@1P6GXPAUENTITY@@W4FLOAT_TYPES@@M@ZA[edx+eax*8]
  002bd	8b 15 00 00 00
	00		 mov	 edx, DWORD PTR ?system_comms_model@@3W4COMMS_MODEL_TYPES@@A ; system_comms_model
  002c3	8b 04 91	 mov	 eax, DWORD PTR [ecx+edx*4]
  002c6	ff d0		 call	 eax

; 1747 : 	
; 1748 : 				break;

  002c8	e9 b2 01 00 00	 jmp	 $LN4@create_mob
$LN16@create_mob:

; 1749 : 			}
; 1750 : 	
; 1751 : 			case ENTITY_TYPE_HELICOPTER:
; 1752 : 			{
; 1753 : 	
; 1754 : 				member = create_client_server_entity_helicopter (index, member_type, group, position);

  002cd	8b 45 18	 mov	 eax, DWORD PTR _position$[ebp]
  002d0	50		 push	 eax
  002d1	8b 4d 14	 mov	 ecx, DWORD PTR _group$[ebp]
  002d4	51		 push	 ecx
  002d5	8b 55 1c	 mov	 edx, DWORD PTR _member_type$[ebp]
  002d8	52		 push	 edx
  002d9	8b 45 0c	 mov	 eax, DWORD PTR _index$[ebp]
  002dc	50		 push	 eax
  002dd	e8 00 00 00 00	 call	 ?create_client_server_entity_helicopter@@YGPAUENTITY@@HHPAU1@PAUVEC3D@@@Z ; create_client_server_entity_helicopter
  002e2	89 45 fc	 mov	 DWORD PTR _member$[ebp], eax

; 1755 : 	
; 1756 : 				set_client_server_entity_float_value (member, FLOAT_TYPE_UNDERCARRIAGE_STATE, uc_state);

  002e5	83 7d fc 00	 cmp	 DWORD PTR _member$[ebp], 0
  002e9	74 0a		 je	 SHORT $LN34@create_mob
  002eb	8b 45 fc	 mov	 eax, DWORD PTR _member$[ebp]
  002ee	8b 08		 mov	 ecx, DWORD PTR [eax]
  002f0	89 4d b8	 mov	 DWORD PTR tv209[ebp], ecx
  002f3	eb 21		 jmp	 SHORT $LN35@create_mob
$LN34@create_mob:
  002f5	8b 15 00 00 00
	00		 mov	 edx, DWORD PTR ?__LINE__Var@?0??create_mobile_member@@YGPAUENTITY@@W4ENTITY_TYPES@@HHPAU2@PAUVEC3D@@HHHW4ENTITY_SIDES@@M@Z@4JA
  002fb	83 c2 58	 add	 edx, 88			; 00000058H
  002fe	52		 push	 edx
  002ff	68 00 00 00 00	 push	 OFFSET ??_C@_0EB@JEOGKGCM@c?3?2users?2nhv90?2projects?2eech?2ap@
  00304	a1 00 00 00 00	 mov	 eax, DWORD PTR ?null_entity_pointer_message@@3PBDB ; null_entity_pointer_message
  00309	50		 push	 eax
  0030a	e8 00 00 00 00	 call	 ?process_assert@@YGXPBD0H@Z ; process_assert
  0030f	c7 45 b8 00 00
	00 00		 mov	 DWORD PTR tv209[ebp], 0
$LN35@create_mob:
  00316	b9 01 00 00 00	 mov	 ecx, 1
  0031b	85 c9		 test	 ecx, ecx
  0031d	74 09		 je	 SHORT $LN36@create_mob
  0031f	c7 45 b4 90 00
	00 00		 mov	 DWORD PTR tv217[ebp], 144 ; 00000090H
  00326	eb 21		 jmp	 SHORT $LN37@create_mob
$LN36@create_mob:
  00328	8b 15 00 00 00
	00		 mov	 edx, DWORD PTR ?__LINE__Var@?0??create_mobile_member@@YGPAUENTITY@@W4ENTITY_TYPES@@HHPAU2@PAUVEC3D@@HHHW4ENTITY_SIDES@@M@Z@4JA
  0032e	83 c2 58	 add	 edx, 88			; 00000058H
  00331	52		 push	 edx
  00332	68 00 00 00 00	 push	 OFFSET ??_C@_0EB@JEOGKGCM@c?3?2users?2nhv90?2projects?2eech?2ap@
  00337	a1 00 00 00 00	 mov	 eax, DWORD PTR ?overload_invalid_float_type_message@@3PBDB ; overload_invalid_float_type_message
  0033c	50		 push	 eax
  0033d	e8 00 00 00 00	 call	 ?process_assert@@YGXPBD0H@Z ; process_assert
  00342	c7 45 b4 00 00
	00 00		 mov	 DWORD PTR tv217[ebp], 0
$LN37@create_mob:
  00349	51		 push	 ecx
  0034a	f3 0f 10 45 2c	 movss	 xmm0, DWORD PTR _uc_state$[ebp]
  0034f	f3 0f 11 04 24	 movss	 DWORD PTR [esp], xmm0
  00354	68 90 00 00 00	 push	 144			; 00000090H
  00359	8b 4d fc	 mov	 ecx, DWORD PTR _member$[ebp]
  0035c	51		 push	 ecx
  0035d	69 55 b8 78 05
	00 00		 imul	 edx, DWORD PTR tv209[ebp], 1400
  00364	8b 45 b4	 mov	 eax, DWORD PTR tv217[ebp]
  00367	8d 8c c2 00 00
	00 00		 lea	 ecx, DWORD PTR ?fn_set_client_server_entity_float_value@@3PAY1KP@1P6GXPAUENTITY@@W4FLOAT_TYPES@@M@ZA[edx+eax*8]
  0036e	8b 15 00 00 00
	00		 mov	 edx, DWORD PTR ?system_comms_model@@3W4COMMS_MODEL_TYPES@@A ; system_comms_model
  00374	8b 04 91	 mov	 eax, DWORD PTR [ecx+edx*4]
  00377	ff d0		 call	 eax

; 1757 : 	
; 1758 : 				break;

  00379	e9 01 01 00 00	 jmp	 $LN4@create_mob
$LN17@create_mob:

; 1759 : 			}
; 1760 : 	
; 1761 : 			case ENTITY_TYPE_ROUTED_VEHICLE:
; 1762 : 			{
; 1763 : 	
; 1764 : 				member = create_client_server_entity_routed_vehicle (index, member_type, group, position);

  0037e	8b 45 18	 mov	 eax, DWORD PTR _position$[ebp]
  00381	50		 push	 eax
  00382	8b 4d 14	 mov	 ecx, DWORD PTR _group$[ebp]
  00385	51		 push	 ecx
  00386	8b 55 1c	 mov	 edx, DWORD PTR _member_type$[ebp]
  00389	52		 push	 edx
  0038a	8b 45 0c	 mov	 eax, DWORD PTR _index$[ebp]
  0038d	50		 push	 eax
  0038e	e8 00 00 00 00	 call	 ?create_client_server_entity_routed_vehicle@@YGPAUENTITY@@HHPAU1@PAUVEC3D@@@Z ; create_client_server_entity_routed_vehicle
  00393	89 45 fc	 mov	 DWORD PTR _member$[ebp], eax

; 1765 : 
; 1766 : 				debug_log ("FACTION: created ROUTED_VEHICLE %s (%d) with formation %d", get_local_entity_string (member, STRING_TYPE_FULL_NAME), get_local_entity_index (member), formation_position);

  00396	83 7d fc 00	 cmp	 DWORD PTR _member$[ebp], 0
  0039a	74 0a		 je	 SHORT $LN38@create_mob
  0039c	8b 45 fc	 mov	 eax, DWORD PTR _member$[ebp]
  0039f	8b 08		 mov	 ecx, DWORD PTR [eax]
  003a1	89 4d b8	 mov	 DWORD PTR tv240[ebp], ecx
  003a4	eb 21		 jmp	 SHORT $LN39@create_mob
$LN38@create_mob:
  003a6	8b 15 00 00 00
	00		 mov	 edx, DWORD PTR ?__LINE__Var@?0??create_mobile_member@@YGPAUENTITY@@W4ENTITY_TYPES@@HHPAU2@PAUVEC3D@@HHHW4ENTITY_SIDES@@M@Z@4JA
  003ac	83 c2 62	 add	 edx, 98			; 00000062H
  003af	52		 push	 edx
  003b0	68 00 00 00 00	 push	 OFFSET ??_C@_0EB@JEOGKGCM@c?3?2users?2nhv90?2projects?2eech?2ap@
  003b5	a1 00 00 00 00	 mov	 eax, DWORD PTR ?null_entity_pointer_message@@3PBDB ; null_entity_pointer_message
  003ba	50		 push	 eax
  003bb	e8 00 00 00 00	 call	 ?process_assert@@YGXPBD0H@Z ; process_assert
  003c0	c7 45 b8 00 00
	00 00		 mov	 DWORD PTR tv240[ebp], 0
$LN39@create_mob:
  003c7	b9 01 00 00 00	 mov	 ecx, 1
  003cc	85 c9		 test	 ecx, ecx
  003ce	74 09		 je	 SHORT $LN40@create_mob
  003d0	c7 45 b4 03 00
	00 00		 mov	 DWORD PTR tv248[ebp], 3
  003d7	eb 21		 jmp	 SHORT $LN41@create_mob
$LN40@create_mob:
  003d9	8b 15 00 00 00
	00		 mov	 edx, DWORD PTR ?__LINE__Var@?0??create_mobile_member@@YGPAUENTITY@@W4ENTITY_TYPES@@HHPAU2@PAUVEC3D@@HHHW4ENTITY_SIDES@@M@Z@4JA
  003df	83 c2 62	 add	 edx, 98			; 00000062H
  003e2	52		 push	 edx
  003e3	68 00 00 00 00	 push	 OFFSET ??_C@_0EB@JEOGKGCM@c?3?2users?2nhv90?2projects?2eech?2ap@
  003e8	a1 00 00 00 00	 mov	 eax, DWORD PTR ?overload_invalid_string_type_message@@3PBDB ; overload_invalid_string_type_message
  003ed	50		 push	 eax
  003ee	e8 00 00 00 00	 call	 ?process_assert@@YGXPBD0H@Z ; process_assert
  003f3	c7 45 b4 00 00
	00 00		 mov	 DWORD PTR tv248[ebp], 0
$LN41@create_mob:
  003fa	8b 4d 20	 mov	 ecx, DWORD PTR _formation_position$[ebp]
  003fd	51		 push	 ecx
  003fe	8b 55 fc	 mov	 edx, DWORD PTR _member$[ebp]
  00401	2b 15 00 00 00
	00		 sub	 edx, DWORD PTR ?entities@@3PAUENTITY@@A ; entities
  00407	c1 fa 04	 sar	 edx, 4
  0040a	52		 push	 edx
  0040b	6a 03		 push	 3
  0040d	8b 45 fc	 mov	 eax, DWORD PTR _member$[ebp]
  00410	50		 push	 eax
  00411	6b 4d b8 34	 imul	 ecx, DWORD PTR tv240[ebp], 52
  00415	8b 55 b4	 mov	 edx, DWORD PTR tv248[ebp]
  00418	8b 84 91 00 00
	00 00		 mov	 eax, DWORD PTR ?fn_get_local_entity_string@@3PAY0N@P6GPBDPAUENTITY@@W4STRING_TYPES@@@ZA[ecx+edx*4]
  0041f	ff d0		 call	 eax
  00421	50		 push	 eax
  00422	68 00 00 00 00	 push	 OFFSET ??_C@_0DK@CNEFHEPG@FACTION?3?5created?5ROUTED_VEHICLE@
  00427	e8 00 00 00 00	 call	 ?debug_log@@YAXPBDZZ	; debug_log
  0042c	83 c4 10	 add	 esp, 16			; 00000010H

; 1767 : 	
; 1768 : 				break;

  0042f	eb 4e		 jmp	 SHORT $LN4@create_mob
$LN18@create_mob:

; 1769 : 			}
; 1770 : 	
; 1771 : 			case ENTITY_TYPE_SHIP_VEHICLE:
; 1772 : 			{
; 1773 : 	
; 1774 : 				member = create_client_server_entity_ship (index, member_type, group, position);

  00431	8b 45 18	 mov	 eax, DWORD PTR _position$[ebp]
  00434	50		 push	 eax
  00435	8b 4d 14	 mov	 ecx, DWORD PTR _group$[ebp]
  00438	51		 push	 ecx
  00439	8b 55 1c	 mov	 edx, DWORD PTR _member_type$[ebp]
  0043c	52		 push	 edx
  0043d	8b 45 0c	 mov	 eax, DWORD PTR _index$[ebp]
  00440	50		 push	 eax
  00441	e8 00 00 00 00	 call	 ?create_client_server_entity_ship@@YGPAUENTITY@@HHPAU1@PAUVEC3D@@@Z ; create_client_server_entity_ship
  00446	89 45 fc	 mov	 DWORD PTR _member$[ebp], eax

; 1775 : 	
; 1776 : 				break;

  00449	eb 34		 jmp	 SHORT $LN4@create_mob
$LN19@create_mob:

; 1777 : 			}
; 1778 : 	
; 1779 : 			case ENTITY_TYPE_PERSON:
; 1780 : 			{
; 1781 : 	
; 1782 : 				member = create_client_server_entity_person (index, member_type, group, position);

  0044b	8b 45 18	 mov	 eax, DWORD PTR _position$[ebp]
  0044e	50		 push	 eax
  0044f	8b 4d 14	 mov	 ecx, DWORD PTR _group$[ebp]
  00452	51		 push	 ecx
  00453	8b 55 1c	 mov	 edx, DWORD PTR _member_type$[ebp]
  00456	52		 push	 edx
  00457	8b 45 0c	 mov	 eax, DWORD PTR _index$[ebp]
  0045a	50		 push	 eax
  0045b	e8 00 00 00 00	 call	 ?create_client_server_entity_person@@YGPAUENTITY@@HHPAU1@PAUVEC3D@@@Z ; create_client_server_entity_person
  00460	89 45 fc	 mov	 DWORD PTR _member$[ebp], eax

; 1783 : 	
; 1784 : 				break;

  00463	eb 1a		 jmp	 SHORT $LN4@create_mob
$LN20@create_mob:

; 1785 : 			}
; 1786 : 	
; 1787 : 			default:
; 1788 : 			{
; 1789 : 				debug_fatal ("FACTION : Invalid mobile created ( type %s )", entity_type_names [type]);

  00465	8b 45 08	 mov	 eax, DWORD PTR _type$[ebp]
  00468	8b 0d 00 00 00
	00		 mov	 ecx, DWORD PTR ?entity_type_names@@3PAPBDA ; entity_type_names
  0046e	8b 14 81	 mov	 edx, DWORD PTR [ecx+eax*4]
  00471	52		 push	 edx
  00472	68 00 00 00 00	 push	 OFFSET ??_C@_0CN@HPLJIAFL@FACTION?5?3?5Invalid?5mobile?5create@
  00477	e8 00 00 00 00	 call	 ?debug_fatal@@YAXPBDZZ	; debug_fatal
  0047c	83 c4 08	 add	 esp, 8
$LN4@create_mob:

; 1790 : 			}
; 1791 : 		}
; 1792 : 	
; 1793 : 		set_client_server_entity_int_value (member, INT_TYPE_FORMATION_POSITION, formation_position);

  0047f	83 7d fc 00	 cmp	 DWORD PTR _member$[ebp], 0
  00483	74 0a		 je	 SHORT $LN42@create_mob
  00485	8b 45 fc	 mov	 eax, DWORD PTR _member$[ebp]
  00488	8b 08		 mov	 ecx, DWORD PTR [eax]
  0048a	89 4d b8	 mov	 DWORD PTR tv278[ebp], ecx
  0048d	eb 21		 jmp	 SHORT $LN43@create_mob
$LN42@create_mob:
  0048f	8b 15 00 00 00
	00		 mov	 edx, DWORD PTR ?__LINE__Var@?0??create_mobile_member@@YGPAUENTITY@@W4ENTITY_TYPES@@HHPAU2@PAUVEC3D@@HHHW4ENTITY_SIDES@@M@Z@4JA
  00495	83 c2 7d	 add	 edx, 125		; 0000007dH
  00498	52		 push	 edx
  00499	68 00 00 00 00	 push	 OFFSET ??_C@_0EB@JEOGKGCM@c?3?2users?2nhv90?2projects?2eech?2ap@
  0049e	a1 00 00 00 00	 mov	 eax, DWORD PTR ?null_entity_pointer_message@@3PBDB ; null_entity_pointer_message
  004a3	50		 push	 eax
  004a4	e8 00 00 00 00	 call	 ?process_assert@@YGXPBD0H@Z ; process_assert
  004a9	c7 45 b8 00 00
	00 00		 mov	 DWORD PTR tv278[ebp], 0
$LN43@create_mob:
  004b0	b9 01 00 00 00	 mov	 ecx, 1
  004b5	85 c9		 test	 ecx, ecx
  004b7	74 09		 je	 SHORT $LN44@create_mob
  004b9	c7 45 b4 3e 00
	00 00		 mov	 DWORD PTR tv286[ebp], 62 ; 0000003eH
  004c0	eb 21		 jmp	 SHORT $LN45@create_mob
$LN44@create_mob:
  004c2	8b 15 00 00 00
	00		 mov	 edx, DWORD PTR ?__LINE__Var@?0??create_mobile_member@@YGPAUENTITY@@W4ENTITY_TYPES@@HHPAU2@PAUVEC3D@@HHHW4ENTITY_SIDES@@M@Z@4JA
  004c8	83 c2 7d	 add	 edx, 125		; 0000007dH
  004cb	52		 push	 edx
  004cc	68 00 00 00 00	 push	 OFFSET ??_C@_0EB@JEOGKGCM@c?3?2users?2nhv90?2projects?2eech?2ap@
  004d1	a1 00 00 00 00	 mov	 eax, DWORD PTR ?overload_invalid_int_type_message@@3PBDB ; overload_invalid_int_type_message
  004d6	50		 push	 eax
  004d7	e8 00 00 00 00	 call	 ?process_assert@@YGXPBD0H@Z ; process_assert
  004dc	c7 45 b4 00 00
	00 00		 mov	 DWORD PTR tv286[ebp], 0
$LN45@create_mob:
  004e3	8b 4d 20	 mov	 ecx, DWORD PTR _formation_position$[ebp]
  004e6	51		 push	 ecx
  004e7	6a 3e		 push	 62			; 0000003eH
  004e9	8b 55 fc	 mov	 edx, DWORD PTR _member$[ebp]
  004ec	52		 push	 edx
  004ed	69 45 b8 b8 08
	00 00		 imul	 eax, DWORD PTR tv278[ebp], 2232
  004f4	8b 4d b4	 mov	 ecx, DWORD PTR tv286[ebp]
  004f7	8d 94 c8 00 00
	00 00		 lea	 edx, DWORD PTR ?fn_set_client_server_entity_int_value@@3PAY1BBH@1P6GXPAUENTITY@@W4INT_TYPES@@H@ZA[eax+ecx*8]
  004fe	a1 00 00 00 00	 mov	 eax, DWORD PTR ?system_comms_model@@3W4COMMS_MODEL_TYPES@@A ; system_comms_model
  00503	8b 0c 82	 mov	 ecx, DWORD PTR [edx+eax*4]
  00506	ff d1		 call	 ecx

; 1794 : 
; 1795 : 		set_client_server_entity_int_value (member, INT_TYPE_OPERATIONAL_STATE, operational_state);

  00508	83 7d fc 00	 cmp	 DWORD PTR _member$[ebp], 0
  0050c	74 0a		 je	 SHORT $LN46@create_mob
  0050e	8b 45 fc	 mov	 eax, DWORD PTR _member$[ebp]
  00511	8b 08		 mov	 ecx, DWORD PTR [eax]
  00513	89 4d b8	 mov	 DWORD PTR tv300[ebp], ecx
  00516	eb 21		 jmp	 SHORT $LN47@create_mob
$LN46@create_mob:
  00518	8b 15 00 00 00
	00		 mov	 edx, DWORD PTR ?__LINE__Var@?0??create_mobile_member@@YGPAUENTITY@@W4ENTITY_TYPES@@HHPAU2@PAUVEC3D@@HHHW4ENTITY_SIDES@@M@Z@4JA
  0051e	83 c2 7f	 add	 edx, 127		; 0000007fH
  00521	52		 push	 edx
  00522	68 00 00 00 00	 push	 OFFSET ??_C@_0EB@JEOGKGCM@c?3?2users?2nhv90?2projects?2eech?2ap@
  00527	a1 00 00 00 00	 mov	 eax, DWORD PTR ?null_entity_pointer_message@@3PBDB ; null_entity_pointer_message
  0052c	50		 push	 eax
  0052d	e8 00 00 00 00	 call	 ?process_assert@@YGXPBD0H@Z ; process_assert
  00532	c7 45 b8 00 00
	00 00		 mov	 DWORD PTR tv300[ebp], 0
$LN47@create_mob:
  00539	b9 01 00 00 00	 mov	 ecx, 1
  0053e	85 c9		 test	 ecx, ecx
  00540	74 09		 je	 SHORT $LN48@create_mob
  00542	c7 45 b4 97 00
	00 00		 mov	 DWORD PTR tv308[ebp], 151 ; 00000097H
  00549	eb 21		 jmp	 SHORT $LN49@create_mob
$LN48@create_mob:
  0054b	8b 15 00 00 00
	00		 mov	 edx, DWORD PTR ?__LINE__Var@?0??create_mobile_member@@YGPAUENTITY@@W4ENTITY_TYPES@@HHPAU2@PAUVEC3D@@HHHW4ENTITY_SIDES@@M@Z@4JA
  00551	83 c2 7f	 add	 edx, 127		; 0000007fH
  00554	52		 push	 edx
  00555	68 00 00 00 00	 push	 OFFSET ??_C@_0EB@JEOGKGCM@c?3?2users?2nhv90?2projects?2eech?2ap@
  0055a	a1 00 00 00 00	 mov	 eax, DWORD PTR ?overload_invalid_int_type_message@@3PBDB ; overload_invalid_int_type_message
  0055f	50		 push	 eax
  00560	e8 00 00 00 00	 call	 ?process_assert@@YGXPBD0H@Z ; process_assert
  00565	c7 45 b4 00 00
	00 00		 mov	 DWORD PTR tv308[ebp], 0
$LN49@create_mob:
  0056c	8b 4d 24	 mov	 ecx, DWORD PTR _operational_state$[ebp]
  0056f	51		 push	 ecx
  00570	68 97 00 00 00	 push	 151			; 00000097H
  00575	8b 55 fc	 mov	 edx, DWORD PTR _member$[ebp]
  00578	52		 push	 edx
  00579	69 45 b8 b8 08
	00 00		 imul	 eax, DWORD PTR tv300[ebp], 2232
  00580	8b 4d b4	 mov	 ecx, DWORD PTR tv308[ebp]
  00583	8d 94 c8 00 00
	00 00		 lea	 edx, DWORD PTR ?fn_set_client_server_entity_int_value@@3PAY1BBH@1P6GXPAUENTITY@@W4INT_TYPES@@H@ZA[eax+ecx*8]
  0058a	a1 00 00 00 00	 mov	 eax, DWORD PTR ?system_comms_model@@3W4COMMS_MODEL_TYPES@@A ; system_comms_model
  0058f	8b 0c 82	 mov	 ecx, DWORD PTR [edx+eax*4]
  00592	ff d1		 call	 ecx
$LN7@create_mob:

; 1796 : 	}
; 1797 : 
; 1798 : 	return member;

  00594	8b 45 fc	 mov	 eax, DWORD PTR _member$[ebp]

; 1799 : }

  00597	5f		 pop	 edi
  00598	5e		 pop	 esi
  00599	5b		 pop	 ebx
  0059a	8b e5		 mov	 esp, ebp
  0059c	5d		 pop	 ebp
  0059d	c2 28 00	 ret	 40			; 00000028H
$LN52@create_mob:
  005a0	00 00 00 00	 DD	 $LN9@create_mob
  005a4	00 00 00 00	 DD	 $LN12@create_mob
  005a8	00 00 00 00	 DD	 $LN10@create_mob
  005ac	00 00 00 00	 DD	 $LN11@create_mob
  005b0	00 00 00 00	 DD	 $LN13@create_mob
$LN50@create_mob:
  005b4	00		 DB	 0
  005b5	04		 DB	 4
  005b6	04		 DB	 4
  005b7	04		 DB	 4
  005b8	04		 DB	 4
  005b9	04		 DB	 4
  005ba	04		 DB	 4
  005bb	04		 DB	 4
  005bc	04		 DB	 4
  005bd	04		 DB	 4
  005be	04		 DB	 4
  005bf	04		 DB	 4
  005c0	04		 DB	 4
  005c1	04		 DB	 4
  005c2	04		 DB	 4
  005c3	04		 DB	 4
  005c4	04		 DB	 4
  005c5	04		 DB	 4
  005c6	01		 DB	 1
  005c7	04		 DB	 4
  005c8	04		 DB	 4
  005c9	04		 DB	 4
  005ca	02		 DB	 2
  005cb	04		 DB	 4
  005cc	04		 DB	 4
  005cd	04		 DB	 4
  005ce	04		 DB	 4
  005cf	03		 DB	 3
$LN53@create_mob:
  005d0	00 00 00 00	 DD	 $LN14@create_mob
  005d4	00 00 00 00	 DD	 $LN15@create_mob
  005d8	00 00 00 00	 DD	 $LN16@create_mob
  005dc	00 00 00 00	 DD	 $LN19@create_mob
  005e0	00 00 00 00	 DD	 $LN17@create_mob
  005e4	00 00 00 00	 DD	 $LN18@create_mob
  005e8	00 00 00 00	 DD	 $LN20@create_mob
$LN51@create_mob:
  005ec	00		 DB	 0
  005ed	06		 DB	 6
  005ee	06		 DB	 6
  005ef	06		 DB	 6
  005f0	06		 DB	 6
  005f1	06		 DB	 6
  005f2	06		 DB	 6
  005f3	06		 DB	 6
  005f4	06		 DB	 6
  005f5	01		 DB	 1
  005f6	06		 DB	 6
  005f7	06		 DB	 6
  005f8	06		 DB	 6
  005f9	02		 DB	 2
  005fa	06		 DB	 6
  005fb	06		 DB	 6
  005fc	06		 DB	 6
  005fd	06		 DB	 6
  005fe	03		 DB	 3
  005ff	06		 DB	 6
  00600	06		 DB	 6
  00601	06		 DB	 6
  00602	04		 DB	 4
  00603	06		 DB	 6
  00604	06		 DB	 6
  00605	06		 DB	 6
  00606	06		 DB	 6
  00607	05		 DB	 5
?create_mobile_member@@YGPAUENTITY@@W4ENTITY_TYPES@@HHPAU1@PAUVEC3D@@HHHW4ENTITY_SIDES@@M@Z ENDP ; create_mobile_member
_TEXT	ENDS
; Function compile flags: /Odtp /ZI
; File c:\users\nhv90\projects\eech\aphavoc\source\ai\faction\faction.c
;	COMDAT ?place_frontline_forces@@YGXPAUENTITY@@H@Z
_TEXT	SEGMENT
tv157 = -144						; size = 4
tv595 = -140						; size = 4
tv556 = -140						; size = 4
tv492 = -140						; size = 4
tv454 = -140						; size = 4
tv393 = -140						; size = 4
tv355 = -140						; size = 4
tv151 = -140						; size = 4
tv88 = -140						; size = 4
tv845 = -136						; size = 4
tv795 = -136						; size = 4
tv750 = -136						; size = 4
tv587 = -136						; size = 4
tv557 = -136						; size = 4
tv535 = -136						; size = 4
tv484 = -136						; size = 4
tv455 = -136						; size = 4
tv385 = -136						; size = 4
tv356 = -136						; size = 4
tv309 = -136						; size = 4
tv143 = -136						; size = 4
tv95 = -136						; size = 4
tv80 = -136						; size = 4
_size$1 = -68						; size = 4
_formation_data$2 = -64					; size = 4
_formation_component_data$3 = -60			; size = 4
_pos$ = -56						; size = 4
_number$ = -52						; size = 4
_node$ = -48						; size = 4
_mlrs_flag$ = -44					; size = 4
_secondary_node$ = -40					; size = 4
_artillery_node$ = -36					; size = 4
_node2$ = -32						; size = 4
_enemy_side$ = -28					; size = 4
_side$ = -24						; size = 4
_sector_en$ = -20					; size = 4
_keysite$ = -16						; size = 4
_group$ = -12						; size = 4
_formation_component$ = -8				; size = 4
_sector_raw$ = -4					; size = 4
_force$ = 8						; size = 4
_force_size$ = 12					; size = 4
?place_frontline_forces@@YGXPAUENTITY@@H@Z PROC		; place_frontline_forces, COMDAT

; 1303 : {

  00000	55		 push	 ebp
  00001	8b ec		 mov	 ebp, esp
  00003	81 ec 90 00 00
	00		 sub	 esp, 144		; 00000090H
  00009	53		 push	 ebx
  0000a	56		 push	 esi
  0000b	57		 push	 edi

; 1304 : 
; 1305 : 	sector
; 1306 : 		*sector_raw;
; 1307 : 
; 1308 : 	formation_component_types
; 1309 : 		formation_component;
; 1310 : 
; 1311 : 	entity
; 1312 : 		*group,
; 1313 : 		*keysite,
; 1314 : 		*sector_en;
; 1315 : 
; 1316 : 	entity_sides
; 1317 : 		side,
; 1318 : 		enemy_side;
; 1319 : 
; 1320 : 	unsigned int
; 1321 : 		node2;
; 1322 : 
; 1323 : 	int
; 1324 : 		artillery_node,
; 1325 : 		secondary_node,
; 1326 : 		mlrs_flag,
; 1327 : 		node,
; 1328 : 		number;
; 1329 : 
; 1330 : 	vec3d
; 1331 : 		*pos;
; 1332 : 
; 1333 : 	if (!get_road_nodes_loaded ())

  0000c	83 3d 00 00 00
	00 00		 cmp	 DWORD PTR ?road_nodes_loaded@@3HA, 0 ; road_nodes_loaded
  00013	75 05		 jne	 SHORT $LN28@place_fron

; 1334 : 	{
; 1335 : 		return;

  00015	e9 8f 0d 00 00	 jmp	 $LN1@place_fron
$LN28@place_fron:

; 1336 : 	}
; 1337 : 
; 1338 : 	//
; 1339 : 	// Setup frontline_forces data
; 1340 : 	//
; 1341 : 
; 1342 : 	if (frontline_forces_data)

  0001a	83 3d 00 00 00
	00 00		 cmp	 DWORD PTR ?frontline_forces_data@@3PAUFRONTLINE_FORCES_PLACEMENT_DATA@@A, 0 ; frontline_forces_data
  00021	74 0b		 je	 SHORT $LN29@place_fron

; 1343 : 	{
; 1344 : 		free_mem (frontline_forces_data);

  00023	a1 00 00 00 00	 mov	 eax, DWORD PTR ?frontline_forces_data@@3PAUFRONTLINE_FORCES_PLACEMENT_DATA@@A ; frontline_forces_data
  00028	50		 push	 eax
  00029	e8 00 00 00 00	 call	 ?free_mem@@YGXPAX@Z	; free_mem
$LN29@place_fron:

; 1345 : 	}
; 1346 : 
; 1347 : 	frontline_forces_data = (frontline_forces_placement_data *) malloc_heap_mem (sizeof (frontline_forces_placement_data) * total_number_of_road_nodes);

  0002e	a1 00 00 00 00	 mov	 eax, DWORD PTR ?total_number_of_road_nodes@@3HA ; total_number_of_road_nodes
  00033	c1 e0 02	 shl	 eax, 2
  00036	50		 push	 eax
  00037	e8 00 00 00 00	 call	 ?malloc_heap_memory@@YGPAXI@Z ; malloc_heap_memory
  0003c	a3 00 00 00 00	 mov	 DWORD PTR ?frontline_forces_data@@3PAUFRONTLINE_FORCES_PLACEMENT_DATA@@A, eax ; frontline_forces_data

; 1348 : 
; 1349 : 	memset (frontline_forces_data, 0, sizeof (frontline_forces_placement_data) * total_number_of_road_nodes);

  00041	a1 00 00 00 00	 mov	 eax, DWORD PTR ?total_number_of_road_nodes@@3HA ; total_number_of_road_nodes
  00046	c1 e0 02	 shl	 eax, 2
  00049	50		 push	 eax
  0004a	6a 00		 push	 0
  0004c	8b 0d 00 00 00
	00		 mov	 ecx, DWORD PTR ?frontline_forces_data@@3PAUFRONTLINE_FORCES_PLACEMENT_DATA@@A ; frontline_forces_data
  00052	51		 push	 ecx
  00053	e8 00 00 00 00	 call	 _memset
  00058	83 c4 0c	 add	 esp, 12			; 0000000cH

; 1350 : 
; 1351 : 	side = (entity_sides)get_local_entity_int_value (force, INT_TYPE_SIDE);

  0005b	83 7d 08 00	 cmp	 DWORD PTR _force$[ebp], 0
  0005f	74 0d		 je	 SHORT $LN53@place_fron
  00061	8b 45 08	 mov	 eax, DWORD PTR _force$[ebp]
  00064	8b 08		 mov	 ecx, DWORD PTR [eax]
  00066	89 8d 78 ff ff
	ff		 mov	 DWORD PTR tv80[ebp], ecx
  0006c	eb 24		 jmp	 SHORT $LN54@place_fron
$LN53@place_fron:
  0006e	8b 15 00 00 00
	00		 mov	 edx, DWORD PTR ?__LINE__Var@?0??place_frontline_forces@@YGXPAUENTITY@@H@Z@4JA
  00074	83 c2 30	 add	 edx, 48			; 00000030H
  00077	52		 push	 edx
  00078	68 00 00 00 00	 push	 OFFSET ??_C@_0EB@JEOGKGCM@c?3?2users?2nhv90?2projects?2eech?2ap@
  0007d	a1 00 00 00 00	 mov	 eax, DWORD PTR ?null_entity_pointer_message@@3PBDB ; null_entity_pointer_message
  00082	50		 push	 eax
  00083	e8 00 00 00 00	 call	 ?process_assert@@YGXPBD0H@Z ; process_assert
  00088	c7 85 78 ff ff
	ff 00 00 00 00	 mov	 DWORD PTR tv80[ebp], 0
$LN54@place_fron:
  00092	b9 01 00 00 00	 mov	 ecx, 1
  00097	85 c9		 test	 ecx, ecx
  00099	74 0c		 je	 SHORT $LN55@place_fron
  0009b	c7 85 74 ff ff
	ff bb 00 00 00	 mov	 DWORD PTR tv88[ebp], 187 ; 000000bbH
  000a5	eb 24		 jmp	 SHORT $LN56@place_fron
$LN55@place_fron:
  000a7	8b 15 00 00 00
	00		 mov	 edx, DWORD PTR ?__LINE__Var@?0??place_frontline_forces@@YGXPAUENTITY@@H@Z@4JA
  000ad	83 c2 30	 add	 edx, 48			; 00000030H
  000b0	52		 push	 edx
  000b1	68 00 00 00 00	 push	 OFFSET ??_C@_0EB@JEOGKGCM@c?3?2users?2nhv90?2projects?2eech?2ap@
  000b6	a1 00 00 00 00	 mov	 eax, DWORD PTR ?overload_invalid_int_type_message@@3PBDB ; overload_invalid_int_type_message
  000bb	50		 push	 eax
  000bc	e8 00 00 00 00	 call	 ?process_assert@@YGXPBD0H@Z ; process_assert
  000c1	c7 85 74 ff ff
	ff 00 00 00 00	 mov	 DWORD PTR tv88[ebp], 0
$LN56@place_fron:
  000cb	68 bb 00 00 00	 push	 187			; 000000bbH
  000d0	8b 4d 08	 mov	 ecx, DWORD PTR _force$[ebp]
  000d3	51		 push	 ecx
  000d4	69 95 78 ff ff
	ff 5c 04 00 00	 imul	 edx, DWORD PTR tv80[ebp], 1116
  000de	8b 85 74 ff ff
	ff		 mov	 eax, DWORD PTR tv88[ebp]
  000e4	8b 8c 82 00 00
	00 00		 mov	 ecx, DWORD PTR ?fn_get_local_entity_int_value@@3PAY0BBH@P6GHPAUENTITY@@W4INT_TYPES@@@ZA[edx+eax*4]
  000eb	ff d1		 call	 ecx
  000ed	89 45 e8	 mov	 DWORD PTR _side$[ebp], eax

; 1352 : 
; 1353 : 	enemy_side = get_enemy_side (side);

  000f0	83 7d e8 01	 cmp	 DWORD PTR _side$[ebp], 1
  000f4	75 0c		 jne	 SHORT $LN57@place_fron
  000f6	c7 85 78 ff ff
	ff 02 00 00 00	 mov	 DWORD PTR tv95[ebp], 2
  00100	eb 0a		 jmp	 SHORT $LN58@place_fron
$LN57@place_fron:
  00102	c7 85 78 ff ff
	ff 01 00 00 00	 mov	 DWORD PTR tv95[ebp], 1
$LN58@place_fron:
  0010c	8b 85 78 ff ff
	ff		 mov	 eax, DWORD PTR tv95[ebp]
  00112	89 45 e4	 mov	 DWORD PTR _enemy_side$[ebp], eax

; 1354 : 
; 1355 : 	for (node = 0; node < total_number_of_road_nodes; node ++)

  00115	c7 45 d0 00 00
	00 00		 mov	 DWORD PTR _node$[ebp], 0
  0011c	eb 09		 jmp	 SHORT $LN4@place_fron
$LN2@place_fron:
  0011e	8b 45 d0	 mov	 eax, DWORD PTR _node$[ebp]
  00121	83 c0 01	 add	 eax, 1
  00124	89 45 d0	 mov	 DWORD PTR _node$[ebp], eax
$LN4@place_fron:
  00127	8b 45 d0	 mov	 eax, DWORD PTR _node$[ebp]
  0012a	3b 05 00 00 00
	00		 cmp	 eax, DWORD PTR ?total_number_of_road_nodes@@3HA ; total_number_of_road_nodes
  00130	0f 8d d6 00 00
	00		 jge	 $LN3@place_fron

; 1356 : 	{
; 1357 : 		sector_en = get_local_sector_entity (&road_node_positions [node]);

  00136	6b 45 d0 0c	 imul	 eax, DWORD PTR _node$[ebp], 12
  0013a	03 05 00 00 00
	00		 add	 eax, DWORD PTR ?road_node_positions@@3PAUVEC3D@@A ; road_node_positions
  00140	50		 push	 eax
  00141	e8 00 00 00 00	 call	 ?get_local_sector_entity@@YGPAUENTITY@@PAUVEC3D@@@Z ; get_local_sector_entity
  00146	89 45 ec	 mov	 DWORD PTR _sector_en$[ebp], eax

; 1358 : 
; 1359 : 		frontline_forces_data [node].side = get_local_entity_int_value (sector_en, INT_TYPE_SIDE);

  00149	83 7d ec 00	 cmp	 DWORD PTR _sector_en$[ebp], 0
  0014d	74 0d		 je	 SHORT $LN59@place_fron
  0014f	8b 45 ec	 mov	 eax, DWORD PTR _sector_en$[ebp]
  00152	8b 08		 mov	 ecx, DWORD PTR [eax]
  00154	89 8d 78 ff ff
	ff		 mov	 DWORD PTR tv143[ebp], ecx
  0015a	eb 24		 jmp	 SHORT $LN60@place_fron
$LN59@place_fron:
  0015c	8b 15 00 00 00
	00		 mov	 edx, DWORD PTR ?__LINE__Var@?0??place_frontline_forces@@YGXPAUENTITY@@H@Z@4JA
  00162	83 c2 38	 add	 edx, 56			; 00000038H
  00165	52		 push	 edx
  00166	68 00 00 00 00	 push	 OFFSET ??_C@_0EB@JEOGKGCM@c?3?2users?2nhv90?2projects?2eech?2ap@
  0016b	a1 00 00 00 00	 mov	 eax, DWORD PTR ?null_entity_pointer_message@@3PBDB ; null_entity_pointer_message
  00170	50		 push	 eax
  00171	e8 00 00 00 00	 call	 ?process_assert@@YGXPBD0H@Z ; process_assert
  00176	c7 85 78 ff ff
	ff 00 00 00 00	 mov	 DWORD PTR tv143[ebp], 0
$LN60@place_fron:
  00180	b9 01 00 00 00	 mov	 ecx, 1
  00185	85 c9		 test	 ecx, ecx
  00187	74 0c		 je	 SHORT $LN61@place_fron
  00189	c7 85 74 ff ff
	ff bb 00 00 00	 mov	 DWORD PTR tv151[ebp], 187 ; 000000bbH
  00193	eb 24		 jmp	 SHORT $LN62@place_fron
$LN61@place_fron:
  00195	8b 15 00 00 00
	00		 mov	 edx, DWORD PTR ?__LINE__Var@?0??place_frontline_forces@@YGXPAUENTITY@@H@Z@4JA
  0019b	83 c2 38	 add	 edx, 56			; 00000038H
  0019e	52		 push	 edx
  0019f	68 00 00 00 00	 push	 OFFSET ??_C@_0EB@JEOGKGCM@c?3?2users?2nhv90?2projects?2eech?2ap@
  001a4	a1 00 00 00 00	 mov	 eax, DWORD PTR ?overload_invalid_int_type_message@@3PBDB ; overload_invalid_int_type_message
  001a9	50		 push	 eax
  001aa	e8 00 00 00 00	 call	 ?process_assert@@YGXPBD0H@Z ; process_assert
  001af	c7 85 74 ff ff
	ff 00 00 00 00	 mov	 DWORD PTR tv151[ebp], 0
$LN62@place_fron:
  001b9	68 bb 00 00 00	 push	 187			; 000000bbH
  001be	8b 4d ec	 mov	 ecx, DWORD PTR _sector_en$[ebp]
  001c1	51		 push	 ecx
  001c2	69 95 78 ff ff
	ff 5c 04 00 00	 imul	 edx, DWORD PTR tv143[ebp], 1116
  001cc	8b 85 74 ff ff
	ff		 mov	 eax, DWORD PTR tv151[ebp]
  001d2	8b 8c 82 00 00
	00 00		 mov	 ecx, DWORD PTR ?fn_get_local_entity_int_value@@3PAY0BBH@P6GHPAUENTITY@@W4INT_TYPES@@@ZA[edx+eax*4]
  001d9	ff d1		 call	 ecx
  001db	89 85 70 ff ff
	ff		 mov	 DWORD PTR tv157[ebp], eax
  001e1	8b 95 70 ff ff
	ff		 mov	 edx, DWORD PTR tv157[ebp]
  001e7	83 e2 03	 and	 edx, 3
  001ea	8b 45 d0	 mov	 eax, DWORD PTR _node$[ebp]
  001ed	8b 0d 00 00 00
	00		 mov	 ecx, DWORD PTR ?frontline_forces_data@@3PAUFRONTLINE_FORCES_PLACEMENT_DATA@@A ; frontline_forces_data
  001f3	8b 04 81	 mov	 eax, DWORD PTR [ecx+eax*4]
  001f6	83 e0 fc	 and	 eax, -4			; fffffffcH
  001f9	0b c2		 or	 eax, edx
  001fb	8b 4d d0	 mov	 ecx, DWORD PTR _node$[ebp]
  001fe	8b 15 00 00 00
	00		 mov	 edx, DWORD PTR ?frontline_forces_data@@3PAUFRONTLINE_FORCES_PLACEMENT_DATA@@A ; frontline_forces_data
  00204	89 04 8a	 mov	 DWORD PTR [edx+ecx*4], eax

; 1360 : 	}

  00207	e9 12 ff ff ff	 jmp	 $LN2@place_fron
$LN3@place_fron:

; 1361 : 	
; 1362 : 	//
; 1363 : 	// Parse route data for Primary placement
; 1364 : 	//
; 1365 : 
; 1366 : 	for (node = 0; node < total_number_of_road_nodes; node ++)

  0020c	c7 45 d0 00 00
	00 00		 mov	 DWORD PTR _node$[ebp], 0
  00213	eb 09		 jmp	 SHORT $LN7@place_fron
$LN5@place_fron:
  00215	8b 45 d0	 mov	 eax, DWORD PTR _node$[ebp]
  00218	83 c0 01	 add	 eax, 1
  0021b	89 45 d0	 mov	 DWORD PTR _node$[ebp], eax
$LN7@place_fron:
  0021e	8b 45 d0	 mov	 eax, DWORD PTR _node$[ebp]
  00221	3b 05 00 00 00
	00		 cmp	 eax, DWORD PTR ?total_number_of_road_nodes@@3HA ; total_number_of_road_nodes
  00227	0f 8d b2 00 00
	00		 jge	 $LN6@place_fron

; 1367 : 	{
; 1368 : 
; 1369 : 		sector_en = get_local_sector_entity (&road_node_positions [node]);

  0022d	6b 45 d0 0c	 imul	 eax, DWORD PTR _node$[ebp], 12
  00231	03 05 00 00 00
	00		 add	 eax, DWORD PTR ?road_node_positions@@3PAUVEC3D@@A ; road_node_positions
  00237	50		 push	 eax
  00238	e8 00 00 00 00	 call	 ?get_local_sector_entity@@YGPAUENTITY@@PAUVEC3D@@@Z ; get_local_sector_entity
  0023d	89 45 ec	 mov	 DWORD PTR _sector_en$[ebp], eax

; 1370 : 
; 1371 : 		sector_raw = (sector *) get_local_entity_data (sector_en);

  00240	8b 45 ec	 mov	 eax, DWORD PTR _sector_en$[ebp]
  00243	8b 48 04	 mov	 ecx, DWORD PTR [eax+4]
  00246	89 4d fc	 mov	 DWORD PTR _sector_raw$[ebp], ecx

; 1372 : 
; 1373 : 		if (sector_raw->side != side)

  00249	8b 45 fc	 mov	 eax, DWORD PTR _sector_raw$[ebp]
  0024c	8b 48 0c	 mov	 ecx, DWORD PTR [eax+12]
  0024f	c1 e9 18	 shr	 ecx, 24			; 00000018H
  00252	83 e1 03	 and	 ecx, 3
  00255	3b 4d e8	 cmp	 ecx, DWORD PTR _side$[ebp]
  00258	74 02		 je	 SHORT $LN30@place_fron

; 1374 : 		{
; 1375 : 
; 1376 : 			continue;

  0025a	eb b9		 jmp	 SHORT $LN5@place_fron
$LN30@place_fron:

; 1377 : 		}
; 1378 : 
; 1379 : 		//
; 1380 : 		// Check if node links cross frontline
; 1381 : 		//
; 1382 : 
; 1383 : 		for (node2 = 0; node2 < road_nodes [node].number_of_links; node2 ++)

  0025c	c7 45 e0 00 00
	00 00		 mov	 DWORD PTR _node2$[ebp], 0
  00263	eb 09		 jmp	 SHORT $LN10@place_fron
$LN8@place_fron:
  00265	8b 45 e0	 mov	 eax, DWORD PTR _node2$[ebp]
  00268	83 c0 01	 add	 eax, 1
  0026b	89 45 e0	 mov	 DWORD PTR _node2$[ebp], eax
$LN10@place_fron:
  0026e	6b 45 d0 0c	 imul	 eax, DWORD PTR _node$[ebp], 12
  00272	8b 0d 00 00 00
	00		 mov	 ecx, DWORD PTR ?road_nodes@@3PAUNODE_DATA@@A ; road_nodes
  00278	8b 54 01 04	 mov	 edx, DWORD PTR [ecx+eax+4]
  0027c	83 e2 7f	 and	 edx, 127		; 0000007fH
  0027f	39 55 e0	 cmp	 DWORD PTR _node2$[ebp], edx
  00282	73 56		 jae	 SHORT $LN9@place_fron

; 1384 : 		{
; 1385 : 			if (frontline_forces_data [road_nodes [node].links [node2].node].side == enemy_side)

  00284	6b 45 d0 0c	 imul	 eax, DWORD PTR _node$[ebp], 12
  00288	8b 0d 00 00 00
	00		 mov	 ecx, DWORD PTR ?road_nodes@@3PAUNODE_DATA@@A ; road_nodes
  0028e	8b 54 01 08	 mov	 edx, DWORD PTR [ecx+eax+8]
  00292	b8 ff 3f 00 00	 mov	 eax, 16383		; 00003fffH
  00297	8b 4d e0	 mov	 ecx, DWORD PTR _node2$[ebp]
  0029a	66 23 44 ca 04	 and	 ax, WORD PTR [edx+ecx*8+4]
  0029f	0f b7 d0	 movzx	 edx, ax
  002a2	a1 00 00 00 00	 mov	 eax, DWORD PTR ?frontline_forces_data@@3PAUFRONTLINE_FORCES_PLACEMENT_DATA@@A ; frontline_forces_data
  002a7	8b 0c 90	 mov	 ecx, DWORD PTR [eax+edx*4]
  002aa	83 e1 03	 and	 ecx, 3
  002ad	3b 4d e4	 cmp	 ecx, DWORD PTR _enemy_side$[ebp]
  002b0	75 26		 jne	 SHORT $LN31@place_fron

; 1386 : 			{
; 1387 : 
; 1388 : 				#if DEBUG_MODULE
; 1389 : 
; 1390 : 				debug_log ("FACTION: marking node %d for PRIMARY FORCE PLACEMENT side %s (boundary node)", node, entity_side_names [side]);
; 1391 : 
; 1392 : 				#endif
; 1393 : 
; 1394 : 				frontline_forces_data [node].force_placement_type = FRONTLINE_FORCE_PRIMARY;

  002b2	8b 45 d0	 mov	 eax, DWORD PTR _node$[ebp]
  002b5	8b 0d 00 00 00
	00		 mov	 ecx, DWORD PTR ?frontline_forces_data@@3PAUFRONTLINE_FORCES_PLACEMENT_DATA@@A ; frontline_forces_data
  002bb	8b 14 81	 mov	 edx, DWORD PTR [ecx+eax*4]
  002be	81 e2 ff 0f ff
	ff		 and	 edx, -61441		; ffff0fffH
  002c4	81 ca 00 10 00
	00		 or	 edx, 4096		; 00001000H
  002ca	8b 45 d0	 mov	 eax, DWORD PTR _node$[ebp]
  002cd	8b 0d 00 00 00
	00		 mov	 ecx, DWORD PTR ?frontline_forces_data@@3PAUFRONTLINE_FORCES_PLACEMENT_DATA@@A ; frontline_forces_data
  002d3	89 14 81	 mov	 DWORD PTR [ecx+eax*4], edx

; 1395 : 	
; 1396 : 				break;

  002d6	eb 02		 jmp	 SHORT $LN9@place_fron
$LN31@place_fron:

; 1397 : 			}
; 1398 : 		}

  002d8	eb 8b		 jmp	 SHORT $LN8@place_fron
$LN9@place_fron:

; 1399 : 	}

  002da	e9 36 ff ff ff	 jmp	 $LN5@place_fron
$LN6@place_fron:

; 1400 : 	
; 1401 : 	//
; 1402 : 	// Parse route data for Secondary placement
; 1403 : 	//
; 1404 : 
; 1405 : 	for (node = 0; node < total_number_of_road_nodes; node ++)

  002df	c7 45 d0 00 00
	00 00		 mov	 DWORD PTR _node$[ebp], 0
  002e6	eb 09		 jmp	 SHORT $LN13@place_fron
$LN11@place_fron:
  002e8	8b 45 d0	 mov	 eax, DWORD PTR _node$[ebp]
  002eb	83 c0 01	 add	 eax, 1
  002ee	89 45 d0	 mov	 DWORD PTR _node$[ebp], eax
$LN13@place_fron:
  002f1	8b 45 d0	 mov	 eax, DWORD PTR _node$[ebp]
  002f4	3b 05 00 00 00
	00		 cmp	 eax, DWORD PTR ?total_number_of_road_nodes@@3HA ; total_number_of_road_nodes
  002fa	0f 8d e9 00 00
	00		 jge	 $LN12@place_fron

; 1406 : 	{
; 1407 : 
; 1408 : 		sector_en = get_local_sector_entity (&road_node_positions [node]);

  00300	6b 45 d0 0c	 imul	 eax, DWORD PTR _node$[ebp], 12
  00304	03 05 00 00 00
	00		 add	 eax, DWORD PTR ?road_node_positions@@3PAUVEC3D@@A ; road_node_positions
  0030a	50		 push	 eax
  0030b	e8 00 00 00 00	 call	 ?get_local_sector_entity@@YGPAUENTITY@@PAUVEC3D@@@Z ; get_local_sector_entity
  00310	89 45 ec	 mov	 DWORD PTR _sector_en$[ebp], eax

; 1409 : 
; 1410 : 		sector_raw = (sector *) get_local_entity_data (sector_en);

  00313	8b 45 ec	 mov	 eax, DWORD PTR _sector_en$[ebp]
  00316	8b 48 04	 mov	 ecx, DWORD PTR [eax+4]
  00319	89 4d fc	 mov	 DWORD PTR _sector_raw$[ebp], ecx

; 1411 : 
; 1412 : 		if (sector_raw->side != side)

  0031c	8b 45 fc	 mov	 eax, DWORD PTR _sector_raw$[ebp]
  0031f	8b 48 0c	 mov	 ecx, DWORD PTR [eax+12]
  00322	c1 e9 18	 shr	 ecx, 24			; 00000018H
  00325	83 e1 03	 and	 ecx, 3
  00328	3b 4d e8	 cmp	 ecx, DWORD PTR _side$[ebp]
  0032b	74 02		 je	 SHORT $LN32@place_fron

; 1413 : 		{
; 1414 : 
; 1415 : 			continue;

  0032d	eb b9		 jmp	 SHORT $LN11@place_fron
$LN32@place_fron:

; 1416 : 		}
; 1417 : 
; 1418 : 		if (frontline_forces_data [node].force_placement_type == FRONTLINE_FORCE_PRIMARY)

  0032f	8b 45 d0	 mov	 eax, DWORD PTR _node$[ebp]
  00332	8b 0d 00 00 00
	00		 mov	 ecx, DWORD PTR ?frontline_forces_data@@3PAUFRONTLINE_FORCES_PLACEMENT_DATA@@A ; frontline_forces_data
  00338	8b 14 81	 mov	 edx, DWORD PTR [ecx+eax*4]
  0033b	c1 ea 0c	 shr	 edx, 12			; 0000000cH
  0033e	83 e2 0f	 and	 edx, 15			; 0000000fH
  00341	83 fa 01	 cmp	 edx, 1
  00344	0f 85 9a 00 00
	00		 jne	 $LN15@place_fron

; 1419 : 		{
; 1420 : 
; 1421 : 			for (node2 = 0; node2 < road_nodes [node].number_of_links; node2 ++)

  0034a	c7 45 e0 00 00
	00 00		 mov	 DWORD PTR _node2$[ebp], 0
  00351	eb 09		 jmp	 SHORT $LN16@place_fron
$LN14@place_fron:
  00353	8b 45 e0	 mov	 eax, DWORD PTR _node2$[ebp]
  00356	83 c0 01	 add	 eax, 1
  00359	89 45 e0	 mov	 DWORD PTR _node2$[ebp], eax
$LN16@place_fron:
  0035c	6b 45 d0 0c	 imul	 eax, DWORD PTR _node$[ebp], 12
  00360	8b 0d 00 00 00
	00		 mov	 ecx, DWORD PTR ?road_nodes@@3PAUNODE_DATA@@A ; road_nodes
  00366	8b 54 01 04	 mov	 edx, DWORD PTR [ecx+eax+4]
  0036a	83 e2 7f	 and	 edx, 127		; 0000007fH
  0036d	39 55 e0	 cmp	 DWORD PTR _node2$[ebp], edx
  00370	73 72		 jae	 SHORT $LN15@place_fron

; 1422 : 			{
; 1423 : 
; 1424 : 				secondary_node = road_nodes [node].links [node2].node;

  00372	6b 45 d0 0c	 imul	 eax, DWORD PTR _node$[ebp], 12
  00376	8b 0d 00 00 00
	00		 mov	 ecx, DWORD PTR ?road_nodes@@3PAUNODE_DATA@@A ; road_nodes
  0037c	8b 54 01 08	 mov	 edx, DWORD PTR [ecx+eax+8]
  00380	b8 ff 3f 00 00	 mov	 eax, 16383		; 00003fffH
  00385	8b 4d e0	 mov	 ecx, DWORD PTR _node2$[ebp]
  00388	66 23 44 ca 04	 and	 ax, WORD PTR [edx+ecx*8+4]
  0038d	0f b7 d0	 movzx	 edx, ax
  00390	89 55 d8	 mov	 DWORD PTR _secondary_node$[ebp], edx

; 1425 : 
; 1426 : //				if ((road_nodes [secondary_node].side_aware & side) &&
; 1427 : 				if ((frontline_forces_data [secondary_node].side == side) &&

  00393	8b 45 d8	 mov	 eax, DWORD PTR _secondary_node$[ebp]
  00396	8b 0d 00 00 00
	00		 mov	 ecx, DWORD PTR ?frontline_forces_data@@3PAUFRONTLINE_FORCES_PLACEMENT_DATA@@A ; frontline_forces_data
  0039c	8b 14 81	 mov	 edx, DWORD PTR [ecx+eax*4]
  0039f	83 e2 03	 and	 edx, 3
  003a2	3b 55 e8	 cmp	 edx, DWORD PTR _side$[ebp]
  003a5	75 38		 jne	 SHORT $LN34@place_fron
  003a7	8b 45 d8	 mov	 eax, DWORD PTR _secondary_node$[ebp]
  003aa	8b 0d 00 00 00
	00		 mov	 ecx, DWORD PTR ?frontline_forces_data@@3PAUFRONTLINE_FORCES_PLACEMENT_DATA@@A ; frontline_forces_data
  003b0	8b 14 81	 mov	 edx, DWORD PTR [ecx+eax*4]
  003b3	c1 ea 0c	 shr	 edx, 12			; 0000000cH
  003b6	83 e2 0f	 and	 edx, 15			; 0000000fH
  003b9	75 24		 jne	 SHORT $LN34@place_fron

; 1428 : 					(frontline_forces_data [secondary_node].force_placement_type == FRONTLINE_FORCE_NONE))
; 1429 : 				{
; 1430 : 
; 1431 : 					#if DEBUG_MODULE
; 1432 : 
; 1433 : 					debug_log ("FACTION: marking node %d for SECONDARY FORCE PLACEMENT side %s (supporting %d)", secondary_node, entity_side_names [side], node);
; 1434 : 
; 1435 : 					#endif
; 1436 : 
; 1437 : 					frontline_forces_data [secondary_node].force_placement_type = FRONTLINE_FORCE_SECONDARY;

  003bb	8b 45 d8	 mov	 eax, DWORD PTR _secondary_node$[ebp]
  003be	8b 0d 00 00 00
	00		 mov	 ecx, DWORD PTR ?frontline_forces_data@@3PAUFRONTLINE_FORCES_PLACEMENT_DATA@@A ; frontline_forces_data
  003c4	8b 14 81	 mov	 edx, DWORD PTR [ecx+eax*4]
  003c7	81 e2 ff 0f ff
	ff		 and	 edx, -61441		; ffff0fffH
  003cd	81 ca 00 20 00
	00		 or	 edx, 8192		; 00002000H
  003d3	8b 45 d8	 mov	 eax, DWORD PTR _secondary_node$[ebp]
  003d6	8b 0d 00 00 00
	00		 mov	 ecx, DWORD PTR ?frontline_forces_data@@3PAUFRONTLINE_FORCES_PLACEMENT_DATA@@A ; frontline_forces_data
  003dc	89 14 81	 mov	 DWORD PTR [ecx+eax*4], edx
$LN34@place_fron:

; 1438 : 
; 1439 : //					frontline_forces_data [secondary_node].side = side;
; 1440 : 				}
; 1441 : 			}

  003df	e9 6f ff ff ff	 jmp	 $LN14@place_fron
$LN15@place_fron:

; 1442 : 		}
; 1443 : 	}

  003e4	e9 ff fe ff ff	 jmp	 $LN11@place_fron
$LN12@place_fron:

; 1444 : 
; 1445 : 	//
; 1446 : 	// Parse route data for Artillery placement
; 1447 : 	//
; 1448 : 
; 1449 : 	for (node = 0; node < total_number_of_road_nodes; node ++)

  003e9	c7 45 d0 00 00
	00 00		 mov	 DWORD PTR _node$[ebp], 0
  003f0	eb 09		 jmp	 SHORT $LN19@place_fron
$LN17@place_fron:
  003f2	8b 45 d0	 mov	 eax, DWORD PTR _node$[ebp]
  003f5	83 c0 01	 add	 eax, 1
  003f8	89 45 d0	 mov	 DWORD PTR _node$[ebp], eax
$LN19@place_fron:
  003fb	8b 45 d0	 mov	 eax, DWORD PTR _node$[ebp]
  003fe	3b 05 00 00 00
	00		 cmp	 eax, DWORD PTR ?total_number_of_road_nodes@@3HA ; total_number_of_road_nodes
  00404	0f 8d e9 00 00
	00		 jge	 $LN18@place_fron

; 1450 : 	{
; 1451 : 
; 1452 : 		sector_en = get_local_sector_entity (&road_node_positions [node]);

  0040a	6b 45 d0 0c	 imul	 eax, DWORD PTR _node$[ebp], 12
  0040e	03 05 00 00 00
	00		 add	 eax, DWORD PTR ?road_node_positions@@3PAUVEC3D@@A ; road_node_positions
  00414	50		 push	 eax
  00415	e8 00 00 00 00	 call	 ?get_local_sector_entity@@YGPAUENTITY@@PAUVEC3D@@@Z ; get_local_sector_entity
  0041a	89 45 ec	 mov	 DWORD PTR _sector_en$[ebp], eax

; 1453 : 
; 1454 : 		sector_raw = (sector *) get_local_entity_data (sector_en);

  0041d	8b 45 ec	 mov	 eax, DWORD PTR _sector_en$[ebp]
  00420	8b 48 04	 mov	 ecx, DWORD PTR [eax+4]
  00423	89 4d fc	 mov	 DWORD PTR _sector_raw$[ebp], ecx

; 1455 : 
; 1456 : 		if (sector_raw->side != side)

  00426	8b 45 fc	 mov	 eax, DWORD PTR _sector_raw$[ebp]
  00429	8b 48 0c	 mov	 ecx, DWORD PTR [eax+12]
  0042c	c1 e9 18	 shr	 ecx, 24			; 00000018H
  0042f	83 e1 03	 and	 ecx, 3
  00432	3b 4d e8	 cmp	 ecx, DWORD PTR _side$[ebp]
  00435	74 02		 je	 SHORT $LN35@place_fron

; 1457 : 		{
; 1458 : 
; 1459 : 			continue;

  00437	eb b9		 jmp	 SHORT $LN17@place_fron
$LN35@place_fron:

; 1460 : 		}
; 1461 : 
; 1462 : 		if (frontline_forces_data [node].force_placement_type == FRONTLINE_FORCE_SECONDARY)

  00439	8b 45 d0	 mov	 eax, DWORD PTR _node$[ebp]
  0043c	8b 0d 00 00 00
	00		 mov	 ecx, DWORD PTR ?frontline_forces_data@@3PAUFRONTLINE_FORCES_PLACEMENT_DATA@@A ; frontline_forces_data
  00442	8b 14 81	 mov	 edx, DWORD PTR [ecx+eax*4]
  00445	c1 ea 0c	 shr	 edx, 12			; 0000000cH
  00448	83 e2 0f	 and	 edx, 15			; 0000000fH
  0044b	83 fa 02	 cmp	 edx, 2
  0044e	0f 85 9a 00 00
	00		 jne	 $LN21@place_fron

; 1463 : 		{
; 1464 : 
; 1465 : 			for (node2 = 0; node2 < road_nodes [node].number_of_links; node2 ++)

  00454	c7 45 e0 00 00
	00 00		 mov	 DWORD PTR _node2$[ebp], 0
  0045b	eb 09		 jmp	 SHORT $LN22@place_fron
$LN20@place_fron:
  0045d	8b 45 e0	 mov	 eax, DWORD PTR _node2$[ebp]
  00460	83 c0 01	 add	 eax, 1
  00463	89 45 e0	 mov	 DWORD PTR _node2$[ebp], eax
$LN22@place_fron:
  00466	6b 45 d0 0c	 imul	 eax, DWORD PTR _node$[ebp], 12
  0046a	8b 0d 00 00 00
	00		 mov	 ecx, DWORD PTR ?road_nodes@@3PAUNODE_DATA@@A ; road_nodes
  00470	8b 54 01 04	 mov	 edx, DWORD PTR [ecx+eax+4]
  00474	83 e2 7f	 and	 edx, 127		; 0000007fH
  00477	39 55 e0	 cmp	 DWORD PTR _node2$[ebp], edx
  0047a	73 72		 jae	 SHORT $LN21@place_fron

; 1466 : 			{
; 1467 : 
; 1468 : 				artillery_node = road_nodes [node].links [node2].node;

  0047c	6b 45 d0 0c	 imul	 eax, DWORD PTR _node$[ebp], 12
  00480	8b 0d 00 00 00
	00		 mov	 ecx, DWORD PTR ?road_nodes@@3PAUNODE_DATA@@A ; road_nodes
  00486	8b 54 01 08	 mov	 edx, DWORD PTR [ecx+eax+8]
  0048a	b8 ff 3f 00 00	 mov	 eax, 16383		; 00003fffH
  0048f	8b 4d e0	 mov	 ecx, DWORD PTR _node2$[ebp]
  00492	66 23 44 ca 04	 and	 ax, WORD PTR [edx+ecx*8+4]
  00497	0f b7 d0	 movzx	 edx, ax
  0049a	89 55 dc	 mov	 DWORD PTR _artillery_node$[ebp], edx

; 1469 : 
; 1470 : //				if ((road_nodes [artillery_node].side_aware & side) &&
; 1471 : 				if ((frontline_forces_data [artillery_node].side == side) &&

  0049d	8b 45 dc	 mov	 eax, DWORD PTR _artillery_node$[ebp]
  004a0	8b 0d 00 00 00
	00		 mov	 ecx, DWORD PTR ?frontline_forces_data@@3PAUFRONTLINE_FORCES_PLACEMENT_DATA@@A ; frontline_forces_data
  004a6	8b 14 81	 mov	 edx, DWORD PTR [ecx+eax*4]
  004a9	83 e2 03	 and	 edx, 3
  004ac	3b 55 e8	 cmp	 edx, DWORD PTR _side$[ebp]
  004af	75 38		 jne	 SHORT $LN37@place_fron
  004b1	8b 45 dc	 mov	 eax, DWORD PTR _artillery_node$[ebp]
  004b4	8b 0d 00 00 00
	00		 mov	 ecx, DWORD PTR ?frontline_forces_data@@3PAUFRONTLINE_FORCES_PLACEMENT_DATA@@A ; frontline_forces_data
  004ba	8b 14 81	 mov	 edx, DWORD PTR [ecx+eax*4]
  004bd	c1 ea 0c	 shr	 edx, 12			; 0000000cH
  004c0	83 e2 0f	 and	 edx, 15			; 0000000fH
  004c3	75 24		 jne	 SHORT $LN37@place_fron

; 1472 : 					(frontline_forces_data [artillery_node].force_placement_type == FRONTLINE_FORCE_NONE))
; 1473 : 				{
; 1474 : 
; 1475 : 					#if DEBUG_MODULE
; 1476 : 
; 1477 : 					debug_log ("FACTION: marking node %d for ARTILLERY FORCE PLACEMENT side %s (supporting %d)", artillery_node, entity_side_names [side], node);
; 1478 : 
; 1479 : 					#endif
; 1480 : 
; 1481 : 					frontline_forces_data [artillery_node].force_placement_type = FRONTLINE_FORCE_ARTILLERY;

  004c5	8b 45 dc	 mov	 eax, DWORD PTR _artillery_node$[ebp]
  004c8	8b 0d 00 00 00
	00		 mov	 ecx, DWORD PTR ?frontline_forces_data@@3PAUFRONTLINE_FORCES_PLACEMENT_DATA@@A ; frontline_forces_data
  004ce	8b 14 81	 mov	 edx, DWORD PTR [ecx+eax*4]
  004d1	81 e2 ff 0f ff
	ff		 and	 edx, -61441		; ffff0fffH
  004d7	81 ca 00 30 00
	00		 or	 edx, 12288		; 00003000H
  004dd	8b 45 dc	 mov	 eax, DWORD PTR _artillery_node$[ebp]
  004e0	8b 0d 00 00 00
	00		 mov	 ecx, DWORD PTR ?frontline_forces_data@@3PAUFRONTLINE_FORCES_PLACEMENT_DATA@@A ; frontline_forces_data
  004e6	89 14 81	 mov	 DWORD PTR [ecx+eax*4], edx
$LN37@place_fron:

; 1482 : 
; 1483 : //					frontline_forces_data [artillery_node].side = side;
; 1484 : 				}
; 1485 : 			}

  004e9	e9 6f ff ff ff	 jmp	 $LN20@place_fron
$LN21@place_fron:

; 1486 : 		}
; 1487 : 	}

  004ee	e9 ff fe ff ff	 jmp	 $LN17@place_fron
$LN18@place_fron:

; 1488 : 
; 1489 : 	//
; 1490 : 	// Now actually place Units according to frontline_force_data
; 1491 : 	//
; 1492 : 
; 1493 : 	mlrs_flag = FALSE;

  004f3	c7 45 d4 00 00
	00 00		 mov	 DWORD PTR _mlrs_flag$[ebp], 0

; 1494 : 
; 1495 : 	for (node = 0; node < total_number_of_road_nodes; node ++)

  004fa	c7 45 d0 00 00
	00 00		 mov	 DWORD PTR _node$[ebp], 0
  00501	eb 09		 jmp	 SHORT $LN25@place_fron
$LN23@place_fron:
  00503	8b 45 d0	 mov	 eax, DWORD PTR _node$[ebp]
  00506	83 c0 01	 add	 eax, 1
  00509	89 45 d0	 mov	 DWORD PTR _node$[ebp], eax
$LN25@place_fron:
  0050c	8b 45 d0	 mov	 eax, DWORD PTR _node$[ebp]
  0050f	3b 05 00 00 00
	00		 cmp	 eax, DWORD PTR ?total_number_of_road_nodes@@3HA ; total_number_of_road_nodes
  00515	0f 8d 79 08 00
	00		 jge	 $LN24@place_fron

; 1496 : 	{
; 1497 : 
; 1498 : 		switch (frontline_forces_data [node].force_placement_type)

  0051b	8b 45 d0	 mov	 eax, DWORD PTR _node$[ebp]
  0051e	8b 0d 00 00 00
	00		 mov	 ecx, DWORD PTR ?frontline_forces_data@@3PAUFRONTLINE_FORCES_PLACEMENT_DATA@@A ; frontline_forces_data
  00524	8b 14 81	 mov	 edx, DWORD PTR [ecx+eax*4]
  00527	c1 ea 0c	 shr	 edx, 12			; 0000000cH
  0052a	83 e2 0f	 and	 edx, 15			; 0000000fH
  0052d	89 95 78 ff ff
	ff		 mov	 DWORD PTR tv309[ebp], edx
  00533	83 bd 78 ff ff
	ff 01		 cmp	 DWORD PTR tv309[ebp], 1
  0053a	74 1f		 je	 SHORT $LN38@place_fron
  0053c	83 bd 78 ff ff
	ff 02		 cmp	 DWORD PTR tv309[ebp], 2
  00543	0f 84 c2 02 00
	00		 je	 $LN42@place_fron
  00549	83 bd 78 ff ff
	ff 03		 cmp	 DWORD PTR tv309[ebp], 3
  00550	0f 84 65 05 00
	00		 je	 $LN46@place_fron
  00556	e9 34 08 00 00	 jmp	 $LN26@place_fron
$LN38@place_fron:

; 1499 : 		{
; 1500 : 
; 1501 : 			case FRONTLINE_FORCE_PRIMARY:
; 1502 : 			{
; 1503 : 
; 1504 : 				//
; 1505 : 				// place suitable number of units
; 1506 : 				//
; 1507 : 
; 1508 : 				pos = &road_node_positions [node];

  0055b	6b 45 d0 0c	 imul	 eax, DWORD PTR _node$[ebp], 12
  0055f	03 05 00 00 00
	00		 add	 eax, DWORD PTR ?road_node_positions@@3PAUVEC3D@@A ; road_node_positions
  00565	89 45 c8	 mov	 DWORD PTR _pos$[ebp], eax

; 1509 : 
; 1510 : 				if ((point_inside_adjusted_map_area (pos)) && (check_point_inside_population_area (pos)))

  00568	8b 45 c8	 mov	 eax, DWORD PTR _pos$[ebp]
  0056b	f3 0f 5a 00	 cvtss2sd xmm0, DWORD PTR [eax]
  0056f	f3 0f 5a 0d 24
	00 00 00	 cvtss2sd xmm1, DWORD PTR ?world_map@@3UWORLD_MAP_DATA@@A+36
  00577	f2 0f 58 0d 00
	00 00 00	 addsd	 xmm1, QWORD PTR __real@40b3880000000000
  0057f	66 0f 2f c1	 comisd	 xmm0, xmm1
  00583	0f 82 7d 02 00
	00		 jb	 $LN41@place_fron
  00589	8b 45 c8	 mov	 eax, DWORD PTR _pos$[ebp]
  0058c	f3 0f 5a 00	 cvtss2sd xmm0, DWORD PTR [eax]
  00590	f3 0f 5a 0d 3c
	00 00 00	 cvtss2sd xmm1, DWORD PTR ?world_map@@3UWORLD_MAP_DATA@@A+60
  00598	f2 0f 5c 0d 00
	00 00 00	 subsd	 xmm1, QWORD PTR __real@40b3880000000000
  005a0	66 0f 2f c8	 comisd	 xmm1, xmm0
  005a4	0f 82 5c 02 00
	00		 jb	 $LN41@place_fron
  005aa	8b 45 c8	 mov	 eax, DWORD PTR _pos$[ebp]
  005ad	f3 0f 5a 40 08	 cvtss2sd xmm0, DWORD PTR [eax+8]
  005b2	f3 0f 5a 0d 2c
	00 00 00	 cvtss2sd xmm1, DWORD PTR ?world_map@@3UWORLD_MAP_DATA@@A+44
  005ba	f2 0f 58 0d 00
	00 00 00	 addsd	 xmm1, QWORD PTR __real@40b3880000000000
  005c2	66 0f 2f c1	 comisd	 xmm0, xmm1
  005c6	0f 82 3a 02 00
	00		 jb	 $LN41@place_fron
  005cc	8b 45 c8	 mov	 eax, DWORD PTR _pos$[ebp]
  005cf	f3 0f 5a 40 08	 cvtss2sd xmm0, DWORD PTR [eax+8]
  005d4	f3 0f 5a 0d 44
	00 00 00	 cvtss2sd xmm1, DWORD PTR ?world_map@@3UWORLD_MAP_DATA@@A+68
  005dc	f2 0f 5c 0d 00
	00 00 00	 subsd	 xmm1, QWORD PTR __real@40b3880000000000
  005e4	66 0f 2f c8	 comisd	 xmm1, xmm0
  005e8	0f 82 18 02 00
	00		 jb	 $LN41@place_fron
  005ee	8b 45 c8	 mov	 eax, DWORD PTR _pos$[ebp]
  005f1	50		 push	 eax
  005f2	e8 00 00 00 00	 call	 ?check_point_inside_population_area@@YGHPAUVEC3D@@@Z ; check_point_inside_population_area
  005f7	85 c0		 test	 eax, eax
  005f9	0f 84 07 02 00
	00		 je	 $LN41@place_fron

; 1511 : 				{
; 1512 : 					#if DEBUG_MODULE
; 1513 : 
; 1514 : 					debug_log ("FACTION: placing PRIMARY forces at node %d", node);
; 1515 : 
; 1516 : 					#endif
; 1517 : 
; 1518 : //					number = rand16 () % max (1, (int) (road_nodes [node].safe_radius / 3.0));
; 1519 : 					number = (int)((road_nodes [node].safe_radius / 4.0) + (sfrand1 () * 2.0));

  005ff	69 05 00 00 00
	00 6d 4e c6 41	 imul	 eax, DWORD PTR ?random_number_seed@@3HA, 1103515245 ; random_number_seed
  00609	05 39 30 00 00	 add	 eax, 12345		; 00003039H
  0060e	a3 00 00 00 00	 mov	 DWORD PTR ?random_number_seed@@3HA, eax ; random_number_seed
  00613	8b 0d 00 00 00
	00		 mov	 ecx, DWORD PTR ?random_number_seed@@3HA ; random_number_seed
  00619	c1 f9 10	 sar	 ecx, 16			; 00000010H
  0061c	81 e1 ff 7f 00
	00		 and	 ecx, 32767		; 00007fffH
  00622	81 e9 00 40 00
	00		 sub	 ecx, 16384		; 00004000H
  00628	f2 0f 2a c1	 cvtsi2sd xmm0, ecx
  0062c	f2 0f 59 05 00
	00 00 00	 mulsd	 xmm0, QWORD PTR __real@3f10000000000000
  00634	f2 0f 59 05 00
	00 00 00	 mulsd	 xmm0, QWORD PTR __real@4000000000000000
  0063c	6b 55 d0 0c	 imul	 edx, DWORD PTR _node$[ebp], 12
  00640	a1 00 00 00 00	 mov	 eax, DWORD PTR ?road_nodes@@3PAUNODE_DATA@@A ; road_nodes
  00645	8b 0c 10	 mov	 ecx, DWORD PTR [eax+edx]
  00648	c1 e9 0e	 shr	 ecx, 14			; 0000000eH
  0064b	81 e1 ff 3f 00
	00		 and	 ecx, 16383		; 00003fffH
  00651	89 8d 78 ff ff
	ff		 mov	 DWORD PTR tv750[ebp], ecx
  00657	f2 0f 2a 8d 78
	ff ff ff	 cvtsi2sd xmm1, DWORD PTR tv750[ebp]
  0065f	8b 95 78 ff ff
	ff		 mov	 edx, DWORD PTR tv750[ebp]
  00665	c1 ea 1f	 shr	 edx, 31			; 0000001fH
  00668	f2 0f 58 0c d5
	00 00 00 00	 addsd	 xmm1, QWORD PTR __xmm@41f00000000000000000000000000000[edx*8]
  00671	f2 0f 5e 0d 00
	00 00 00	 divsd	 xmm1, QWORD PTR __real@4010000000000000
  00679	f2 0f 58 c8	 addsd	 xmm1, xmm0
  0067d	f2 0f 2c c1	 cvttsd2si eax, xmm1
  00681	89 45 cc	 mov	 DWORD PTR _number$[ebp], eax

; 1520 : 	
; 1521 : 					number = bound (number, 1, force_size);

  00684	83 7d cc 01	 cmp	 DWORD PTR _number$[ebp], 1
  00688	7d 0c		 jge	 SHORT $LN65@place_fron
  0068a	c7 85 78 ff ff
	ff 01 00 00 00	 mov	 DWORD PTR tv356[ebp], 1
  00694	eb 28		 jmp	 SHORT $LN66@place_fron
$LN65@place_fron:
  00696	8b 45 cc	 mov	 eax, DWORD PTR _number$[ebp]
  00699	3b 45 0c	 cmp	 eax, DWORD PTR _force_size$[ebp]
  0069c	7e 0b		 jle	 SHORT $LN63@place_fron
  0069e	8b 4d 0c	 mov	 ecx, DWORD PTR _force_size$[ebp]
  006a1	89 8d 74 ff ff
	ff		 mov	 DWORD PTR tv355[ebp], ecx
  006a7	eb 09		 jmp	 SHORT $LN64@place_fron
$LN63@place_fron:
  006a9	8b 55 cc	 mov	 edx, DWORD PTR _number$[ebp]
  006ac	89 95 74 ff ff
	ff		 mov	 DWORD PTR tv355[ebp], edx
$LN64@place_fron:
  006b2	8b 85 74 ff ff
	ff		 mov	 eax, DWORD PTR tv355[ebp]
  006b8	89 85 78 ff ff
	ff		 mov	 DWORD PTR tv356[ebp], eax
$LN66@place_fron:
  006be	8b 8d 78 ff ff
	ff		 mov	 ecx, DWORD PTR tv356[ebp]
  006c4	89 4d cc	 mov	 DWORD PTR _number$[ebp], ecx

; 1522 : 	
; 1523 : 					formation_component = FORMATION_COMPONENT_PRIMARY_FRONTLINE_GROUP;

  006c7	c7 45 f8 19 00
	00 00		 mov	 DWORD PTR _formation_component$[ebp], 25 ; 00000019H

; 1524 : 	
; 1525 : 					keysite = get_closest_keysite (NUM_ENTITY_SUB_TYPE_KEYSITES, side, pos, 1.0 * KILOMETRE, NULL, NULL);

  006ce	6a 00		 push	 0
  006d0	6a 00		 push	 0
  006d2	51		 push	 ecx
  006d3	f3 0f 10 05 00
	00 00 00	 movss	 xmm0, DWORD PTR __real@447a0000
  006db	f3 0f 11 04 24	 movss	 DWORD PTR [esp], xmm0
  006e0	8b 45 c8	 mov	 eax, DWORD PTR _pos$[ebp]
  006e3	50		 push	 eax
  006e4	8b 4d e8	 mov	 ecx, DWORD PTR _side$[ebp]
  006e7	51		 push	 ecx
  006e8	6a 09		 push	 9
  006ea	e8 00 00 00 00	 call	 ?get_closest_keysite@@YGPAUENTITY@@HW4ENTITY_SIDES@@PAUVEC3D@@MPAMPAU1@@Z ; get_closest_keysite
  006ef	89 45 f0	 mov	 DWORD PTR _keysite$[ebp], eax

; 1526 : 	
; 1527 : 					ASSERT (keysite);

  006f2	83 7d f0 00	 cmp	 DWORD PTR _keysite$[ebp], 0
  006f6	75 1a		 jne	 SHORT $LN40@place_fron
  006f8	a1 00 00 00 00	 mov	 eax, DWORD PTR ?__LINE__Var@?0??place_frontline_forces@@YGXPAUENTITY@@H@Z@4JA
  006fd	05 e0 00 00 00	 add	 eax, 224		; 000000e0H
  00702	50		 push	 eax
  00703	68 00 00 00 00	 push	 OFFSET ??_C@_0EB@JEOGKGCM@c?3?2users?2nhv90?2projects?2eech?2ap@
  00708	68 00 00 00 00	 push	 OFFSET ??_C@_07FBNBNOMI@keysite@
  0070d	e8 00 00 00 00	 call	 ?process_assert@@YGXPBD0H@Z ; process_assert
$LN40@place_fron:

; 1528 : 	
; 1529 : 					group = create_faction_members (keysite, ENTITY_SUB_TYPE_GROUP_PRIMARY_FRONTLINE, formation_component, number, side, pos, TRUE, TRUE);

  00712	6a 01		 push	 1
  00714	6a 01		 push	 1
  00716	8b 45 c8	 mov	 eax, DWORD PTR _pos$[ebp]
  00719	50		 push	 eax
  0071a	8b 4d e8	 mov	 ecx, DWORD PTR _side$[ebp]
  0071d	51		 push	 ecx
  0071e	8b 55 cc	 mov	 edx, DWORD PTR _number$[ebp]
  00721	52		 push	 edx
  00722	8b 45 f8	 mov	 eax, DWORD PTR _formation_component$[ebp]
  00725	50		 push	 eax
  00726	6a 0f		 push	 15			; 0000000fH
  00728	8b 4d f0	 mov	 ecx, DWORD PTR _keysite$[ebp]
  0072b	51		 push	 ecx
  0072c	e8 00 00 00 00	 call	 ?create_faction_members@@YGPAUENTITY@@PAU1@HW4FORMATION_COMPONENT_TYPES@@HW4ENTITY_SIDES@@PAUVEC3D@@HH@Z ; create_faction_members
  00731	89 45 f4	 mov	 DWORD PTR _group$[ebp], eax

; 1530 : 	
; 1531 : 					if (group)

  00734	83 7d f4 00	 cmp	 DWORD PTR _group$[ebp], 0
  00738	0f 84 c8 00 00
	00		 je	 $LN41@place_fron

; 1532 : 					{
; 1533 : 						set_local_entity_int_value (group, INT_TYPE_ROUTE_NODE, node);

  0073e	83 7d f4 00	 cmp	 DWORD PTR _group$[ebp], 0
  00742	74 0d		 je	 SHORT $LN67@place_fron
  00744	8b 45 f4	 mov	 eax, DWORD PTR _group$[ebp]
  00747	8b 08		 mov	 ecx, DWORD PTR [eax]
  00749	89 8d 78 ff ff
	ff		 mov	 DWORD PTR tv385[ebp], ecx
  0074f	eb 27		 jmp	 SHORT $LN68@place_fron
$LN67@place_fron:
  00751	8b 15 00 00 00
	00		 mov	 edx, DWORD PTR ?__LINE__Var@?0??place_frontline_forces@@YGXPAUENTITY@@H@Z@4JA
  00757	81 c2 e6 00 00
	00		 add	 edx, 230		; 000000e6H
  0075d	52		 push	 edx
  0075e	68 00 00 00 00	 push	 OFFSET ??_C@_0EB@JEOGKGCM@c?3?2users?2nhv90?2projects?2eech?2ap@
  00763	a1 00 00 00 00	 mov	 eax, DWORD PTR ?null_entity_pointer_message@@3PBDB ; null_entity_pointer_message
  00768	50		 push	 eax
  00769	e8 00 00 00 00	 call	 ?process_assert@@YGXPBD0H@Z ; process_assert
  0076e	c7 85 78 ff ff
	ff 00 00 00 00	 mov	 DWORD PTR tv385[ebp], 0
$LN68@place_fron:
  00778	b9 01 00 00 00	 mov	 ecx, 1
  0077d	85 c9		 test	 ecx, ecx
  0077f	74 0c		 je	 SHORT $LN69@place_fron
  00781	c7 85 74 ff ff
	ff b4 00 00 00	 mov	 DWORD PTR tv393[ebp], 180 ; 000000b4H
  0078b	eb 27		 jmp	 SHORT $LN70@place_fron
$LN69@place_fron:
  0078d	8b 15 00 00 00
	00		 mov	 edx, DWORD PTR ?__LINE__Var@?0??place_frontline_forces@@YGXPAUENTITY@@H@Z@4JA
  00793	81 c2 e6 00 00
	00		 add	 edx, 230		; 000000e6H
  00799	52		 push	 edx
  0079a	68 00 00 00 00	 push	 OFFSET ??_C@_0EB@JEOGKGCM@c?3?2users?2nhv90?2projects?2eech?2ap@
  0079f	a1 00 00 00 00	 mov	 eax, DWORD PTR ?overload_invalid_int_type_message@@3PBDB ; overload_invalid_int_type_message
  007a4	50		 push	 eax
  007a5	e8 00 00 00 00	 call	 ?process_assert@@YGXPBD0H@Z ; process_assert
  007aa	c7 85 74 ff ff
	ff 00 00 00 00	 mov	 DWORD PTR tv393[ebp], 0
$LN70@place_fron:
  007b4	8b 4d d0	 mov	 ecx, DWORD PTR _node$[ebp]
  007b7	51		 push	 ecx
  007b8	68 b4 00 00 00	 push	 180			; 000000b4H
  007bd	8b 55 f4	 mov	 edx, DWORD PTR _group$[ebp]
  007c0	52		 push	 edx
  007c1	69 85 78 ff ff
	ff 5c 04 00 00	 imul	 eax, DWORD PTR tv385[ebp], 1116
  007cb	8b 8d 74 ff ff
	ff		 mov	 ecx, DWORD PTR tv393[ebp]
  007d1	8b 94 88 00 00
	00 00		 mov	 edx, DWORD PTR ?fn_set_local_entity_int_value@@3PAY0BBH@P6GXPAUENTITY@@W4INT_TYPES@@H@ZA[eax+ecx*4]
  007d8	ff d2		 call	 edx

; 1534 : 		
; 1535 : 						road_nodes [node].side_occupying = side;

  007da	6b 45 d0 0c	 imul	 eax, DWORD PTR _node$[ebp], 12
  007de	8b 4d e8	 mov	 ecx, DWORD PTR _side$[ebp]
  007e1	83 e1 03	 and	 ecx, 3
  007e4	c1 e1 0e	 shl	 ecx, 14			; 0000000eH
  007e7	8b 15 00 00 00
	00		 mov	 edx, DWORD PTR ?road_nodes@@3PAUNODE_DATA@@A ; road_nodes
  007ed	8b 44 02 04	 mov	 eax, DWORD PTR [edx+eax+4]
  007f1	25 ff 3f ff ff	 and	 eax, -49153		; ffff3fffH
  007f6	0b c1		 or	 eax, ecx
  007f8	6b 4d d0 0c	 imul	 ecx, DWORD PTR _node$[ebp], 12
  007fc	8b 15 00 00 00
	00		 mov	 edx, DWORD PTR ?road_nodes@@3PAUNODE_DATA@@A ; road_nodes
  00802	89 44 0a 04	 mov	 DWORD PTR [edx+ecx+4], eax
$LN41@place_fron:

; 1536 : 					}
; 1537 : 	
; 1538 : 					//return; // debug just make 1 group
; 1539 : 				}
; 1540 : 
; 1541 : 				break;

  00806	e9 84 05 00 00	 jmp	 $LN26@place_fron
$LN42@place_fron:

; 1542 : 			}
; 1543 : 
; 1544 : 			case FRONTLINE_FORCE_SECONDARY:
; 1545 : 			{
; 1546 : 
; 1547 : 				pos = &road_node_positions [node];

  0080b	6b 45 d0 0c	 imul	 eax, DWORD PTR _node$[ebp], 12
  0080f	03 05 00 00 00
	00		 add	 eax, DWORD PTR ?road_node_positions@@3PAUVEC3D@@A ; road_node_positions
  00815	89 45 c8	 mov	 DWORD PTR _pos$[ebp], eax

; 1548 : 
; 1549 : 				if ((point_inside_adjusted_map_area (pos)) && (check_point_inside_population_area (pos)))

  00818	8b 45 c8	 mov	 eax, DWORD PTR _pos$[ebp]
  0081b	f3 0f 5a 00	 cvtss2sd xmm0, DWORD PTR [eax]
  0081f	f3 0f 5a 0d 24
	00 00 00	 cvtss2sd xmm1, DWORD PTR ?world_map@@3UWORLD_MAP_DATA@@A+36
  00827	f2 0f 58 0d 00
	00 00 00	 addsd	 xmm1, QWORD PTR __real@40b3880000000000
  0082f	66 0f 2f c1	 comisd	 xmm0, xmm1
  00833	0f 82 7d 02 00
	00		 jb	 $LN45@place_fron
  00839	8b 45 c8	 mov	 eax, DWORD PTR _pos$[ebp]
  0083c	f3 0f 5a 00	 cvtss2sd xmm0, DWORD PTR [eax]
  00840	f3 0f 5a 0d 3c
	00 00 00	 cvtss2sd xmm1, DWORD PTR ?world_map@@3UWORLD_MAP_DATA@@A+60
  00848	f2 0f 5c 0d 00
	00 00 00	 subsd	 xmm1, QWORD PTR __real@40b3880000000000
  00850	66 0f 2f c8	 comisd	 xmm1, xmm0
  00854	0f 82 5c 02 00
	00		 jb	 $LN45@place_fron
  0085a	8b 45 c8	 mov	 eax, DWORD PTR _pos$[ebp]
  0085d	f3 0f 5a 40 08	 cvtss2sd xmm0, DWORD PTR [eax+8]
  00862	f3 0f 5a 0d 2c
	00 00 00	 cvtss2sd xmm1, DWORD PTR ?world_map@@3UWORLD_MAP_DATA@@A+44
  0086a	f2 0f 58 0d 00
	00 00 00	 addsd	 xmm1, QWORD PTR __real@40b3880000000000
  00872	66 0f 2f c1	 comisd	 xmm0, xmm1
  00876	0f 82 3a 02 00
	00		 jb	 $LN45@place_fron
  0087c	8b 45 c8	 mov	 eax, DWORD PTR _pos$[ebp]
  0087f	f3 0f 5a 40 08	 cvtss2sd xmm0, DWORD PTR [eax+8]
  00884	f3 0f 5a 0d 44
	00 00 00	 cvtss2sd xmm1, DWORD PTR ?world_map@@3UWORLD_MAP_DATA@@A+68
  0088c	f2 0f 5c 0d 00
	00 00 00	 subsd	 xmm1, QWORD PTR __real@40b3880000000000
  00894	66 0f 2f c8	 comisd	 xmm1, xmm0
  00898	0f 82 18 02 00
	00		 jb	 $LN45@place_fron
  0089e	8b 45 c8	 mov	 eax, DWORD PTR _pos$[ebp]
  008a1	50		 push	 eax
  008a2	e8 00 00 00 00	 call	 ?check_point_inside_population_area@@YGHPAUVEC3D@@@Z ; check_point_inside_population_area
  008a7	85 c0		 test	 eax, eax
  008a9	0f 84 07 02 00
	00		 je	 $LN45@place_fron

; 1550 : 				{
; 1551 : 					#if DEBUG_MODULE
; 1552 : 		
; 1553 : 					debug_log ("FACTION: placing SECONDARY forces at node %d", node);
; 1554 : 	
; 1555 : 					#endif
; 1556 : 	
; 1557 : //					number = rand16 () % max (1, (int) (road_nodes [node].safe_radius / 3.0));
; 1558 : 					number = (int)((road_nodes [node].safe_radius / 4.0) + (sfrand1 () * 2.0));

  008af	69 05 00 00 00
	00 6d 4e c6 41	 imul	 eax, DWORD PTR ?random_number_seed@@3HA, 1103515245 ; random_number_seed
  008b9	05 39 30 00 00	 add	 eax, 12345		; 00003039H
  008be	a3 00 00 00 00	 mov	 DWORD PTR ?random_number_seed@@3HA, eax ; random_number_seed
  008c3	8b 0d 00 00 00
	00		 mov	 ecx, DWORD PTR ?random_number_seed@@3HA ; random_number_seed
  008c9	c1 f9 10	 sar	 ecx, 16			; 00000010H
  008cc	81 e1 ff 7f 00
	00		 and	 ecx, 32767		; 00007fffH
  008d2	81 e9 00 40 00
	00		 sub	 ecx, 16384		; 00004000H
  008d8	f2 0f 2a c1	 cvtsi2sd xmm0, ecx
  008dc	f2 0f 59 05 00
	00 00 00	 mulsd	 xmm0, QWORD PTR __real@3f10000000000000
  008e4	f2 0f 59 05 00
	00 00 00	 mulsd	 xmm0, QWORD PTR __real@4000000000000000
  008ec	6b 55 d0 0c	 imul	 edx, DWORD PTR _node$[ebp], 12
  008f0	a1 00 00 00 00	 mov	 eax, DWORD PTR ?road_nodes@@3PAUNODE_DATA@@A ; road_nodes
  008f5	8b 0c 10	 mov	 ecx, DWORD PTR [eax+edx]
  008f8	c1 e9 0e	 shr	 ecx, 14			; 0000000eH
  008fb	81 e1 ff 3f 00
	00		 and	 ecx, 16383		; 00003fffH
  00901	89 8d 78 ff ff
	ff		 mov	 DWORD PTR tv795[ebp], ecx
  00907	f2 0f 2a 8d 78
	ff ff ff	 cvtsi2sd xmm1, DWORD PTR tv795[ebp]
  0090f	8b 95 78 ff ff
	ff		 mov	 edx, DWORD PTR tv795[ebp]
  00915	c1 ea 1f	 shr	 edx, 31			; 0000001fH
  00918	f2 0f 58 0c d5
	00 00 00 00	 addsd	 xmm1, QWORD PTR __xmm@41f00000000000000000000000000000[edx*8]
  00921	f2 0f 5e 0d 00
	00 00 00	 divsd	 xmm1, QWORD PTR __real@4010000000000000
  00929	f2 0f 58 c8	 addsd	 xmm1, xmm0
  0092d	f2 0f 2c c1	 cvttsd2si eax, xmm1
  00931	89 45 cc	 mov	 DWORD PTR _number$[ebp], eax

; 1559 : 	
; 1560 : 					number = bound (number, 1, force_size);

  00934	83 7d cc 01	 cmp	 DWORD PTR _number$[ebp], 1
  00938	7d 0c		 jge	 SHORT $LN73@place_fron
  0093a	c7 85 78 ff ff
	ff 01 00 00 00	 mov	 DWORD PTR tv455[ebp], 1
  00944	eb 28		 jmp	 SHORT $LN74@place_fron
$LN73@place_fron:
  00946	8b 45 cc	 mov	 eax, DWORD PTR _number$[ebp]
  00949	3b 45 0c	 cmp	 eax, DWORD PTR _force_size$[ebp]
  0094c	7e 0b		 jle	 SHORT $LN71@place_fron
  0094e	8b 4d 0c	 mov	 ecx, DWORD PTR _force_size$[ebp]
  00951	89 8d 74 ff ff
	ff		 mov	 DWORD PTR tv454[ebp], ecx
  00957	eb 09		 jmp	 SHORT $LN72@place_fron
$LN71@place_fron:
  00959	8b 55 cc	 mov	 edx, DWORD PTR _number$[ebp]
  0095c	89 95 74 ff ff
	ff		 mov	 DWORD PTR tv454[ebp], edx
$LN72@place_fron:
  00962	8b 85 74 ff ff
	ff		 mov	 eax, DWORD PTR tv454[ebp]
  00968	89 85 78 ff ff
	ff		 mov	 DWORD PTR tv455[ebp], eax
$LN74@place_fron:
  0096e	8b 8d 78 ff ff
	ff		 mov	 ecx, DWORD PTR tv455[ebp]
  00974	89 4d cc	 mov	 DWORD PTR _number$[ebp], ecx

; 1561 : 	
; 1562 : 					formation_component = FORMATION_COMPONENT_SECONDARY_FRONTLINE_GROUP;

  00977	c7 45 f8 1a 00
	00 00		 mov	 DWORD PTR _formation_component$[ebp], 26 ; 0000001aH

; 1563 : 	
; 1564 : 					keysite = get_closest_keysite (NUM_ENTITY_SUB_TYPE_KEYSITES, side, pos, 1.0 * KILOMETRE, NULL, NULL);

  0097e	6a 00		 push	 0
  00980	6a 00		 push	 0
  00982	51		 push	 ecx
  00983	f3 0f 10 05 00
	00 00 00	 movss	 xmm0, DWORD PTR __real@447a0000
  0098b	f3 0f 11 04 24	 movss	 DWORD PTR [esp], xmm0
  00990	8b 45 c8	 mov	 eax, DWORD PTR _pos$[ebp]
  00993	50		 push	 eax
  00994	8b 4d e8	 mov	 ecx, DWORD PTR _side$[ebp]
  00997	51		 push	 ecx
  00998	6a 09		 push	 9
  0099a	e8 00 00 00 00	 call	 ?get_closest_keysite@@YGPAUENTITY@@HW4ENTITY_SIDES@@PAUVEC3D@@MPAMPAU1@@Z ; get_closest_keysite
  0099f	89 45 f0	 mov	 DWORD PTR _keysite$[ebp], eax

; 1565 : 	
; 1566 : 					ASSERT (keysite);

  009a2	83 7d f0 00	 cmp	 DWORD PTR _keysite$[ebp], 0
  009a6	75 1a		 jne	 SHORT $LN44@place_fron
  009a8	a1 00 00 00 00	 mov	 eax, DWORD PTR ?__LINE__Var@?0??place_frontline_forces@@YGXPAUENTITY@@H@Z@4JA
  009ad	05 07 01 00 00	 add	 eax, 263		; 00000107H
  009b2	50		 push	 eax
  009b3	68 00 00 00 00	 push	 OFFSET ??_C@_0EB@JEOGKGCM@c?3?2users?2nhv90?2projects?2eech?2ap@
  009b8	68 00 00 00 00	 push	 OFFSET ??_C@_07FBNBNOMI@keysite@
  009bd	e8 00 00 00 00	 call	 ?process_assert@@YGXPBD0H@Z ; process_assert
$LN44@place_fron:

; 1567 : 	
; 1568 : 					group = create_faction_members (keysite, ENTITY_SUB_TYPE_GROUP_SECONDARY_FRONTLINE, formation_component, number, side, pos, TRUE, TRUE);

  009c2	6a 01		 push	 1
  009c4	6a 01		 push	 1
  009c6	8b 45 c8	 mov	 eax, DWORD PTR _pos$[ebp]
  009c9	50		 push	 eax
  009ca	8b 4d e8	 mov	 ecx, DWORD PTR _side$[ebp]
  009cd	51		 push	 ecx
  009ce	8b 55 cc	 mov	 edx, DWORD PTR _number$[ebp]
  009d1	52		 push	 edx
  009d2	8b 45 f8	 mov	 eax, DWORD PTR _formation_component$[ebp]
  009d5	50		 push	 eax
  009d6	6a 10		 push	 16			; 00000010H
  009d8	8b 4d f0	 mov	 ecx, DWORD PTR _keysite$[ebp]
  009db	51		 push	 ecx
  009dc	e8 00 00 00 00	 call	 ?create_faction_members@@YGPAUENTITY@@PAU1@HW4FORMATION_COMPONENT_TYPES@@HW4ENTITY_SIDES@@PAUVEC3D@@HH@Z ; create_faction_members
  009e1	89 45 f4	 mov	 DWORD PTR _group$[ebp], eax

; 1569 : 	
; 1570 : 					if (group)

  009e4	83 7d f4 00	 cmp	 DWORD PTR _group$[ebp], 0
  009e8	0f 84 c8 00 00
	00		 je	 $LN45@place_fron

; 1571 : 					{
; 1572 : 						set_local_entity_int_value (group, INT_TYPE_ROUTE_NODE, node);

  009ee	83 7d f4 00	 cmp	 DWORD PTR _group$[ebp], 0
  009f2	74 0d		 je	 SHORT $LN75@place_fron
  009f4	8b 45 f4	 mov	 eax, DWORD PTR _group$[ebp]
  009f7	8b 08		 mov	 ecx, DWORD PTR [eax]
  009f9	89 8d 78 ff ff
	ff		 mov	 DWORD PTR tv484[ebp], ecx
  009ff	eb 27		 jmp	 SHORT $LN76@place_fron
$LN75@place_fron:
  00a01	8b 15 00 00 00
	00		 mov	 edx, DWORD PTR ?__LINE__Var@?0??place_frontline_forces@@YGXPAUENTITY@@H@Z@4JA
  00a07	81 c2 0d 01 00
	00		 add	 edx, 269		; 0000010dH
  00a0d	52		 push	 edx
  00a0e	68 00 00 00 00	 push	 OFFSET ??_C@_0EB@JEOGKGCM@c?3?2users?2nhv90?2projects?2eech?2ap@
  00a13	a1 00 00 00 00	 mov	 eax, DWORD PTR ?null_entity_pointer_message@@3PBDB ; null_entity_pointer_message
  00a18	50		 push	 eax
  00a19	e8 00 00 00 00	 call	 ?process_assert@@YGXPBD0H@Z ; process_assert
  00a1e	c7 85 78 ff ff
	ff 00 00 00 00	 mov	 DWORD PTR tv484[ebp], 0
$LN76@place_fron:
  00a28	b9 01 00 00 00	 mov	 ecx, 1
  00a2d	85 c9		 test	 ecx, ecx
  00a2f	74 0c		 je	 SHORT $LN77@place_fron
  00a31	c7 85 74 ff ff
	ff b4 00 00 00	 mov	 DWORD PTR tv492[ebp], 180 ; 000000b4H
  00a3b	eb 27		 jmp	 SHORT $LN78@place_fron
$LN77@place_fron:
  00a3d	8b 15 00 00 00
	00		 mov	 edx, DWORD PTR ?__LINE__Var@?0??place_frontline_forces@@YGXPAUENTITY@@H@Z@4JA
  00a43	81 c2 0d 01 00
	00		 add	 edx, 269		; 0000010dH
  00a49	52		 push	 edx
  00a4a	68 00 00 00 00	 push	 OFFSET ??_C@_0EB@JEOGKGCM@c?3?2users?2nhv90?2projects?2eech?2ap@
  00a4f	a1 00 00 00 00	 mov	 eax, DWORD PTR ?overload_invalid_int_type_message@@3PBDB ; overload_invalid_int_type_message
  00a54	50		 push	 eax
  00a55	e8 00 00 00 00	 call	 ?process_assert@@YGXPBD0H@Z ; process_assert
  00a5a	c7 85 74 ff ff
	ff 00 00 00 00	 mov	 DWORD PTR tv492[ebp], 0
$LN78@place_fron:
  00a64	8b 4d d0	 mov	 ecx, DWORD PTR _node$[ebp]
  00a67	51		 push	 ecx
  00a68	68 b4 00 00 00	 push	 180			; 000000b4H
  00a6d	8b 55 f4	 mov	 edx, DWORD PTR _group$[ebp]
  00a70	52		 push	 edx
  00a71	69 85 78 ff ff
	ff 5c 04 00 00	 imul	 eax, DWORD PTR tv484[ebp], 1116
  00a7b	8b 8d 74 ff ff
	ff		 mov	 ecx, DWORD PTR tv492[ebp]
  00a81	8b 94 88 00 00
	00 00		 mov	 edx, DWORD PTR ?fn_set_local_entity_int_value@@3PAY0BBH@P6GXPAUENTITY@@W4INT_TYPES@@H@ZA[eax+ecx*4]
  00a88	ff d2		 call	 edx

; 1573 : 		
; 1574 : 						road_nodes [node].side_occupying = side;

  00a8a	6b 45 d0 0c	 imul	 eax, DWORD PTR _node$[ebp], 12
  00a8e	8b 4d e8	 mov	 ecx, DWORD PTR _side$[ebp]
  00a91	83 e1 03	 and	 ecx, 3
  00a94	c1 e1 0e	 shl	 ecx, 14			; 0000000eH
  00a97	8b 15 00 00 00
	00		 mov	 edx, DWORD PTR ?road_nodes@@3PAUNODE_DATA@@A ; road_nodes
  00a9d	8b 44 02 04	 mov	 eax, DWORD PTR [edx+eax+4]
  00aa1	25 ff 3f ff ff	 and	 eax, -49153		; ffff3fffH
  00aa6	0b c1		 or	 eax, ecx
  00aa8	6b 4d d0 0c	 imul	 ecx, DWORD PTR _node$[ebp], 12
  00aac	8b 15 00 00 00
	00		 mov	 edx, DWORD PTR ?road_nodes@@3PAUNODE_DATA@@A ; road_nodes
  00ab2	89 44 0a 04	 mov	 DWORD PTR [edx+ecx+4], eax
$LN45@place_fron:

; 1575 : 					}
; 1576 : 				}
; 1577 : 				
; 1578 : 				break;

  00ab6	e9 d4 02 00 00	 jmp	 $LN26@place_fron
$LN46@place_fron:

; 1579 : 			}
; 1580 : 
; 1581 : 			case FRONTLINE_FORCE_ARTILLERY:
; 1582 : 			{
; 1583 : 
; 1584 : 				formation_vehicle_components
; 1585 : 					*formation_component_data;
; 1586 : 
; 1587 : 				formation_type
; 1588 : 					*formation_data;
; 1589 : 
; 1590 : 				int
; 1591 : 					size;
; 1592 : 
; 1593 : 				pos = &road_node_positions [node];

  00abb	6b 45 d0 0c	 imul	 eax, DWORD PTR _node$[ebp], 12
  00abf	03 05 00 00 00
	00		 add	 eax, DWORD PTR ?road_node_positions@@3PAUVEC3D@@A ; road_node_positions
  00ac5	89 45 c8	 mov	 DWORD PTR _pos$[ebp], eax

; 1594 : 
; 1595 : 				if ((point_inside_adjusted_map_area (pos)) && (check_point_inside_population_area (pos)))

  00ac8	8b 45 c8	 mov	 eax, DWORD PTR _pos$[ebp]
  00acb	f3 0f 5a 00	 cvtss2sd xmm0, DWORD PTR [eax]
  00acf	f3 0f 5a 0d 24
	00 00 00	 cvtss2sd xmm1, DWORD PTR ?world_map@@3UWORLD_MAP_DATA@@A+36
  00ad7	f2 0f 58 0d 00
	00 00 00	 addsd	 xmm1, QWORD PTR __real@40b3880000000000
  00adf	66 0f 2f c1	 comisd	 xmm0, xmm1
  00ae3	0f 82 a6 02 00
	00		 jb	 $LN51@place_fron
  00ae9	8b 45 c8	 mov	 eax, DWORD PTR _pos$[ebp]
  00aec	f3 0f 5a 00	 cvtss2sd xmm0, DWORD PTR [eax]
  00af0	f3 0f 5a 0d 3c
	00 00 00	 cvtss2sd xmm1, DWORD PTR ?world_map@@3UWORLD_MAP_DATA@@A+60
  00af8	f2 0f 5c 0d 00
	00 00 00	 subsd	 xmm1, QWORD PTR __real@40b3880000000000
  00b00	66 0f 2f c8	 comisd	 xmm1, xmm0
  00b04	0f 82 85 02 00
	00		 jb	 $LN51@place_fron
  00b0a	8b 45 c8	 mov	 eax, DWORD PTR _pos$[ebp]
  00b0d	f3 0f 5a 40 08	 cvtss2sd xmm0, DWORD PTR [eax+8]
  00b12	f3 0f 5a 0d 2c
	00 00 00	 cvtss2sd xmm1, DWORD PTR ?world_map@@3UWORLD_MAP_DATA@@A+44
  00b1a	f2 0f 58 0d 00
	00 00 00	 addsd	 xmm1, QWORD PTR __real@40b3880000000000
  00b22	66 0f 2f c1	 comisd	 xmm0, xmm1
  00b26	0f 82 63 02 00
	00		 jb	 $LN51@place_fron
  00b2c	8b 45 c8	 mov	 eax, DWORD PTR _pos$[ebp]
  00b2f	f3 0f 5a 40 08	 cvtss2sd xmm0, DWORD PTR [eax+8]
  00b34	f3 0f 5a 0d 44
	00 00 00	 cvtss2sd xmm1, DWORD PTR ?world_map@@3UWORLD_MAP_DATA@@A+68
  00b3c	f2 0f 5c 0d 00
	00 00 00	 subsd	 xmm1, QWORD PTR __real@40b3880000000000
  00b44	66 0f 2f c8	 comisd	 xmm1, xmm0
  00b48	0f 82 41 02 00
	00		 jb	 $LN51@place_fron
  00b4e	8b 45 c8	 mov	 eax, DWORD PTR _pos$[ebp]
  00b51	50		 push	 eax
  00b52	e8 00 00 00 00	 call	 ?check_point_inside_population_area@@YGHPAUVEC3D@@@Z ; check_point_inside_population_area
  00b57	85 c0		 test	 eax, eax
  00b59	0f 84 30 02 00
	00		 je	 $LN51@place_fron

; 1596 : 				{
; 1597 : 					#if DEBUG_MODULE
; 1598 : 		
; 1599 : 					debug_log ("FACTION: placing ARTILLERY forces at node %d", node);
; 1600 : 	
; 1601 : 					#endif
; 1602 : 	
; 1603 : 					if (mlrs_flag)

  00b5f	83 7d d4 00	 cmp	 DWORD PTR _mlrs_flag$[ebp], 0
  00b63	74 09		 je	 SHORT $LN48@place_fron

; 1604 : 					{
; 1605 : 						formation_component = FORMATION_COMPONENT_MLRS_GROUP;

  00b65	c7 45 f8 1e 00
	00 00		 mov	 DWORD PTR _formation_component$[ebp], 30 ; 0000001eH

; 1606 : 					}
; 1607 : 					else

  00b6c	eb 07		 jmp	 SHORT $LN49@place_fron
$LN48@place_fron:

; 1608 : 					{
; 1609 : 						formation_component = FORMATION_COMPONENT_ARTILLERY_GROUP;

  00b6e	c7 45 f8 1d 00
	00 00		 mov	 DWORD PTR _formation_component$[ebp], 29 ; 0000001dH
$LN49@place_fron:

; 1610 : 					}
; 1611 : 	
; 1612 : 					mlrs_flag = !mlrs_flag;

  00b75	83 7d d4 00	 cmp	 DWORD PTR _mlrs_flag$[ebp], 0
  00b79	75 0c		 jne	 SHORT $LN79@place_fron
  00b7b	c7 85 78 ff ff
	ff 01 00 00 00	 mov	 DWORD PTR tv535[ebp], 1
  00b85	eb 0a		 jmp	 SHORT $LN80@place_fron
$LN79@place_fron:
  00b87	c7 85 78 ff ff
	ff 00 00 00 00	 mov	 DWORD PTR tv535[ebp], 0
$LN80@place_fron:
  00b91	8b 85 78 ff ff
	ff		 mov	 eax, DWORD PTR tv535[ebp]
  00b97	89 45 d4	 mov	 DWORD PTR _mlrs_flag$[ebp], eax

; 1613 : 	
; 1614 : 					formation_component_data = get_formation_components (formation_component);

  00b9a	8b 45 f8	 mov	 eax, DWORD PTR _formation_component$[ebp]
  00b9d	50		 push	 eax
  00b9e	e8 00 00 00 00	 call	 ?get_formation_components@@YGPAUFORMATION_VEHICLE_COMPONENTS@@W4FORMATION_COMPONENT_TYPES@@@Z ; get_formation_components
  00ba3	89 45 c4	 mov	 DWORD PTR _formation_component_data$3[ebp], eax

; 1615 : 	
; 1616 : 					formation_data = get_formation (formation_component_data->formation);

  00ba6	8b 45 c4	 mov	 eax, DWORD PTR _formation_component_data$3[ebp]
  00ba9	8b 48 04	 mov	 ecx, DWORD PTR [eax+4]
  00bac	51		 push	 ecx
  00bad	e8 00 00 00 00	 call	 ?get_formation@@YGPAUFORMATION_TYPE@@W4FORMATION_TYPES@@@Z ; get_formation
  00bb2	89 45 c0	 mov	 DWORD PTR _formation_data$2[ebp], eax

; 1617 : 	
; 1618 : //					number = rand16 () % max (1, (int) (road_nodes [node].safe_radius / 3.0));
; 1619 : 					number = (int)(road_nodes [node].safe_radius / 5.0);

  00bb5	6b 45 d0 0c	 imul	 eax, DWORD PTR _node$[ebp], 12
  00bb9	8b 0d 00 00 00
	00		 mov	 ecx, DWORD PTR ?road_nodes@@3PAUNODE_DATA@@A ; road_nodes
  00bbf	8b 14 01	 mov	 edx, DWORD PTR [ecx+eax]
  00bc2	c1 ea 0e	 shr	 edx, 14			; 0000000eH
  00bc5	81 e2 ff 3f 00
	00		 and	 edx, 16383		; 00003fffH
  00bcb	89 95 78 ff ff
	ff		 mov	 DWORD PTR tv845[ebp], edx
  00bd1	f2 0f 2a 85 78
	ff ff ff	 cvtsi2sd xmm0, DWORD PTR tv845[ebp]
  00bd9	8b 85 78 ff ff
	ff		 mov	 eax, DWORD PTR tv845[ebp]
  00bdf	c1 e8 1f	 shr	 eax, 31			; 0000001fH
  00be2	f2 0f 58 04 c5
	00 00 00 00	 addsd	 xmm0, QWORD PTR __xmm@41f00000000000000000000000000000[eax*8]
  00beb	f2 0f 5e 05 00
	00 00 00	 divsd	 xmm0, QWORD PTR __real@4014000000000000
  00bf3	f2 0f 2c c8	 cvttsd2si ecx, xmm0
  00bf7	89 4d cc	 mov	 DWORD PTR _number$[ebp], ecx

; 1620 : 	
; 1621 : 					size = min (force_size, formation_component_data->count);

  00bfa	8b 45 c4	 mov	 eax, DWORD PTR _formation_component_data$3[ebp]
  00bfd	83 c0 08	 add	 eax, 8
  00c00	50		 push	 eax
  00c01	8d 4d 0c	 lea	 ecx, DWORD PTR _force_size$[ebp]
  00c04	51		 push	 ecx
  00c05	e8 00 00 00 00	 call	 ??$min@H@std@@YGABHABH0@Z ; std::min<int>
  00c0a	8b 10		 mov	 edx, DWORD PTR [eax]
  00c0c	89 55 bc	 mov	 DWORD PTR _size$1[ebp], edx

; 1622 : 	
; 1623 : 					number = bound (number, 1, size);

  00c0f	83 7d cc 01	 cmp	 DWORD PTR _number$[ebp], 1
  00c13	7d 0c		 jge	 SHORT $LN83@place_fron
  00c15	c7 85 78 ff ff
	ff 01 00 00 00	 mov	 DWORD PTR tv557[ebp], 1
  00c1f	eb 28		 jmp	 SHORT $LN84@place_fron
$LN83@place_fron:
  00c21	8b 45 cc	 mov	 eax, DWORD PTR _number$[ebp]
  00c24	3b 45 bc	 cmp	 eax, DWORD PTR _size$1[ebp]
  00c27	7e 0b		 jle	 SHORT $LN81@place_fron
  00c29	8b 4d bc	 mov	 ecx, DWORD PTR _size$1[ebp]
  00c2c	89 8d 74 ff ff
	ff		 mov	 DWORD PTR tv556[ebp], ecx
  00c32	eb 09		 jmp	 SHORT $LN82@place_fron
$LN81@place_fron:
  00c34	8b 55 cc	 mov	 edx, DWORD PTR _number$[ebp]
  00c37	89 95 74 ff ff
	ff		 mov	 DWORD PTR tv556[ebp], edx
$LN82@place_fron:
  00c3d	8b 85 74 ff ff
	ff		 mov	 eax, DWORD PTR tv556[ebp]
  00c43	89 85 78 ff ff
	ff		 mov	 DWORD PTR tv557[ebp], eax
$LN84@place_fron:
  00c49	8b 8d 78 ff ff
	ff		 mov	 ecx, DWORD PTR tv557[ebp]
  00c4f	89 4d cc	 mov	 DWORD PTR _number$[ebp], ecx

; 1624 : 	
; 1625 : 					keysite = get_closest_keysite (NUM_ENTITY_SUB_TYPE_KEYSITES, side, pos, 1.0 * KILOMETRE, NULL, NULL);

  00c52	6a 00		 push	 0
  00c54	6a 00		 push	 0
  00c56	51		 push	 ecx
  00c57	f3 0f 10 05 00
	00 00 00	 movss	 xmm0, DWORD PTR __real@447a0000
  00c5f	f3 0f 11 04 24	 movss	 DWORD PTR [esp], xmm0
  00c64	8b 45 c8	 mov	 eax, DWORD PTR _pos$[ebp]
  00c67	50		 push	 eax
  00c68	8b 4d e8	 mov	 ecx, DWORD PTR _side$[ebp]
  00c6b	51		 push	 ecx
  00c6c	6a 09		 push	 9
  00c6e	e8 00 00 00 00	 call	 ?get_closest_keysite@@YGPAUENTITY@@HW4ENTITY_SIDES@@PAUVEC3D@@MPAMPAU1@@Z ; get_closest_keysite
  00c73	89 45 f0	 mov	 DWORD PTR _keysite$[ebp], eax

; 1626 : 	
; 1627 : 					ASSERT (keysite);

  00c76	83 7d f0 00	 cmp	 DWORD PTR _keysite$[ebp], 0
  00c7a	75 1a		 jne	 SHORT $LN50@place_fron
  00c7c	a1 00 00 00 00	 mov	 eax, DWORD PTR ?__LINE__Var@?0??place_frontline_forces@@YGXPAUENTITY@@H@Z@4JA
  00c81	05 44 01 00 00	 add	 eax, 324		; 00000144H
  00c86	50		 push	 eax
  00c87	68 00 00 00 00	 push	 OFFSET ??_C@_0EB@JEOGKGCM@c?3?2users?2nhv90?2projects?2eech?2ap@
  00c8c	68 00 00 00 00	 push	 OFFSET ??_C@_07FBNBNOMI@keysite@
  00c91	e8 00 00 00 00	 call	 ?process_assert@@YGXPBD0H@Z ; process_assert
$LN50@place_fron:

; 1628 : 	
; 1629 : 					group = create_faction_members (keysite, formation_component_data->group_type, formation_component, number, side, pos, TRUE, TRUE);

  00c96	6a 01		 push	 1
  00c98	6a 01		 push	 1
  00c9a	8b 45 c8	 mov	 eax, DWORD PTR _pos$[ebp]
  00c9d	50		 push	 eax
  00c9e	8b 4d e8	 mov	 ecx, DWORD PTR _side$[ebp]
  00ca1	51		 push	 ecx
  00ca2	8b 55 cc	 mov	 edx, DWORD PTR _number$[ebp]
  00ca5	52		 push	 edx
  00ca6	8b 45 f8	 mov	 eax, DWORD PTR _formation_component$[ebp]
  00ca9	50		 push	 eax
  00caa	8b 4d c4	 mov	 ecx, DWORD PTR _formation_component_data$3[ebp]
  00cad	8b 51 0c	 mov	 edx, DWORD PTR [ecx+12]
  00cb0	52		 push	 edx
  00cb1	8b 45 f0	 mov	 eax, DWORD PTR _keysite$[ebp]
  00cb4	50		 push	 eax
  00cb5	e8 00 00 00 00	 call	 ?create_faction_members@@YGPAUENTITY@@PAU1@HW4FORMATION_COMPONENT_TYPES@@HW4ENTITY_SIDES@@PAUVEC3D@@HH@Z ; create_faction_members
  00cba	89 45 f4	 mov	 DWORD PTR _group$[ebp], eax

; 1630 : 	
; 1631 : 					if (group)

  00cbd	83 7d f4 00	 cmp	 DWORD PTR _group$[ebp], 0
  00cc1	0f 84 c8 00 00
	00		 je	 $LN51@place_fron

; 1632 : 					{
; 1633 : 						set_local_entity_int_value (group, INT_TYPE_ROUTE_NODE, node);

  00cc7	83 7d f4 00	 cmp	 DWORD PTR _group$[ebp], 0
  00ccb	74 0d		 je	 SHORT $LN85@place_fron
  00ccd	8b 45 f4	 mov	 eax, DWORD PTR _group$[ebp]
  00cd0	8b 08		 mov	 ecx, DWORD PTR [eax]
  00cd2	89 8d 78 ff ff
	ff		 mov	 DWORD PTR tv587[ebp], ecx
  00cd8	eb 27		 jmp	 SHORT $LN86@place_fron
$LN85@place_fron:
  00cda	8b 15 00 00 00
	00		 mov	 edx, DWORD PTR ?__LINE__Var@?0??place_frontline_forces@@YGXPAUENTITY@@H@Z@4JA
  00ce0	81 c2 4a 01 00
	00		 add	 edx, 330		; 0000014aH
  00ce6	52		 push	 edx
  00ce7	68 00 00 00 00	 push	 OFFSET ??_C@_0EB@JEOGKGCM@c?3?2users?2nhv90?2projects?2eech?2ap@
  00cec	a1 00 00 00 00	 mov	 eax, DWORD PTR ?null_entity_pointer_message@@3PBDB ; null_entity_pointer_message
  00cf1	50		 push	 eax
  00cf2	e8 00 00 00 00	 call	 ?process_assert@@YGXPBD0H@Z ; process_assert
  00cf7	c7 85 78 ff ff
	ff 00 00 00 00	 mov	 DWORD PTR tv587[ebp], 0
$LN86@place_fron:
  00d01	b9 01 00 00 00	 mov	 ecx, 1
  00d06	85 c9		 test	 ecx, ecx
  00d08	74 0c		 je	 SHORT $LN87@place_fron
  00d0a	c7 85 74 ff ff
	ff b4 00 00 00	 mov	 DWORD PTR tv595[ebp], 180 ; 000000b4H
  00d14	eb 27		 jmp	 SHORT $LN88@place_fron
$LN87@place_fron:
  00d16	8b 15 00 00 00
	00		 mov	 edx, DWORD PTR ?__LINE__Var@?0??place_frontline_forces@@YGXPAUENTITY@@H@Z@4JA
  00d1c	81 c2 4a 01 00
	00		 add	 edx, 330		; 0000014aH
  00d22	52		 push	 edx
  00d23	68 00 00 00 00	 push	 OFFSET ??_C@_0EB@JEOGKGCM@c?3?2users?2nhv90?2projects?2eech?2ap@
  00d28	a1 00 00 00 00	 mov	 eax, DWORD PTR ?overload_invalid_int_type_message@@3PBDB ; overload_invalid_int_type_message
  00d2d	50		 push	 eax
  00d2e	e8 00 00 00 00	 call	 ?process_assert@@YGXPBD0H@Z ; process_assert
  00d33	c7 85 74 ff ff
	ff 00 00 00 00	 mov	 DWORD PTR tv595[ebp], 0
$LN88@place_fron:
  00d3d	8b 4d d0	 mov	 ecx, DWORD PTR _node$[ebp]
  00d40	51		 push	 ecx
  00d41	68 b4 00 00 00	 push	 180			; 000000b4H
  00d46	8b 55 f4	 mov	 edx, DWORD PTR _group$[ebp]
  00d49	52		 push	 edx
  00d4a	69 85 78 ff ff
	ff 5c 04 00 00	 imul	 eax, DWORD PTR tv587[ebp], 1116
  00d54	8b 8d 74 ff ff
	ff		 mov	 ecx, DWORD PTR tv595[ebp]
  00d5a	8b 94 88 00 00
	00 00		 mov	 edx, DWORD PTR ?fn_set_local_entity_int_value@@3PAY0BBH@P6GXPAUENTITY@@W4INT_TYPES@@H@ZA[eax+ecx*4]
  00d61	ff d2		 call	 edx

; 1634 : 		
; 1635 : 						road_nodes [node].side_occupying = side;

  00d63	6b 45 d0 0c	 imul	 eax, DWORD PTR _node$[ebp], 12
  00d67	8b 4d e8	 mov	 ecx, DWORD PTR _side$[ebp]
  00d6a	83 e1 03	 and	 ecx, 3
  00d6d	c1 e1 0e	 shl	 ecx, 14			; 0000000eH
  00d70	8b 15 00 00 00
	00		 mov	 edx, DWORD PTR ?road_nodes@@3PAUNODE_DATA@@A ; road_nodes
  00d76	8b 44 02 04	 mov	 eax, DWORD PTR [edx+eax+4]
  00d7a	25 ff 3f ff ff	 and	 eax, -49153		; ffff3fffH
  00d7f	0b c1		 or	 eax, ecx
  00d81	6b 4d d0 0c	 imul	 ecx, DWORD PTR _node$[ebp], 12
  00d85	8b 15 00 00 00
	00		 mov	 edx, DWORD PTR ?road_nodes@@3PAUNODE_DATA@@A ; road_nodes
  00d8b	89 44 0a 04	 mov	 DWORD PTR [edx+ecx+4], eax
$LN51@place_fron:
$LN26@place_fron:

; 1636 : 					}
; 1637 : 				}
; 1638 : 				
; 1639 : 				break;
; 1640 : 			}
; 1641 : 		}
; 1642 : 	}

  00d8f	e9 6f f7 ff ff	 jmp	 $LN23@place_fron
$LN24@place_fron:

; 1643 : 
; 1644 : 	//
; 1645 : 	// Free memory
; 1646 : 	//
; 1647 : 
; 1648 : 	free_mem (frontline_forces_data);

  00d94	a1 00 00 00 00	 mov	 eax, DWORD PTR ?frontline_forces_data@@3PAUFRONTLINE_FORCES_PLACEMENT_DATA@@A ; frontline_forces_data
  00d99	50		 push	 eax
  00d9a	e8 00 00 00 00	 call	 ?free_mem@@YGXPAX@Z	; free_mem

; 1649 : 
; 1650 : 	frontline_forces_data = NULL;

  00d9f	c7 05 00 00 00
	00 00 00 00 00	 mov	 DWORD PTR ?frontline_forces_data@@3PAUFRONTLINE_FORCES_PLACEMENT_DATA@@A, 0 ; frontline_forces_data
$LN1@place_fron:

; 1651 : }

  00da9	5f		 pop	 edi
  00daa	5e		 pop	 esi
  00dab	5b		 pop	 ebx
  00dac	8b e5		 mov	 esp, ebp
  00dae	5d		 pop	 ebp
  00daf	c2 08 00	 ret	 8
?place_frontline_forces@@YGXPAUENTITY@@H@Z ENDP		; place_frontline_forces
_TEXT	ENDS
; Function compile flags: /Odtp /ZI
; File c:\users\nhv90\projects\eech\aphavoc\source\ai\faction\faction.c
;	COMDAT ?create_landing_faction_members@@YGPAUENTITY@@PAU1@HHH0PAUVEC3D@@@Z
_TEXT	SEGMENT
tv288 = -272						; size = 4
tv1126 = -268						; size = 4
tv280 = -268						; size = 4
tv793 = -264						; size = 4
tv764 = -264						; size = 4
tv743 = -264						; size = 4
tv718 = -264						; size = 4
tv696 = -264						; size = 4
tv671 = -264						; size = 4
tv651 = -264						; size = 4
tv526 = -264						; size = 4
tv503 = -264						; size = 4
tv481 = -264						; size = 4
tv457 = -264						; size = 4
tv406 = -264						; size = 4
tv383 = -264						; size = 4
tv361 = -264						; size = 4
tv337 = -264						; size = 4
tv314 = -264						; size = 4
tv267 = -264						; size = 4
tv242 = -264						; size = 4
tv221 = -264						; size = 4
tv199 = -264						; size = 4
tv162 = -264						; size = 4
tv137 = -264						; size = 4
tv785 = -260						; size = 4
tv756 = -260						; size = 4
tv736 = -260						; size = 4
tv710 = -260						; size = 4
tv688 = -260						; size = 4
tv664 = -260						; size = 4
tv643 = -260						; size = 4
tv627 = -260						; size = 4
tv518 = -260						; size = 4
tv496 = -260						; size = 4
tv473 = -260						; size = 4
tv449 = -260						; size = 4
tv398 = -260						; size = 4
tv376 = -260						; size = 4
tv353 = -260						; size = 4
tv329 = -260						; size = 4
tv307 = -260						; size = 4
tv259 = -260						; size = 4
tv234 = -260						; size = 4
tv213 = -260						; size = 4
tv191 = -260						; size = 4
tv154 = -260						; size = 4
tv129 = -260						; size = 4
tv75 = -260						; size = 4
_landing_en$ = -192					; size = 4
_member$ = -188						; size = 4
_group$ = -184						; size = 4
_force$ = -180						; size = 4
_wp$ = -176						; size = 4
_terrain_info$ = -172					; size = 44
_loop$ = -128						; size = 4
_formation_position$ = -124				; size = 4
_formation_test$ = -120					; size = 4
_landing_formation$ = -116				; size = 4
_free_sites$ = -112					; size = 4
_direction$ = -108					; size = 12
_member_pos$ = -96					; size = 12
_start_wp_pos$ = -84					; size = 12
_normal$ = -72						; size = 4
_wp_pos$ = -68						; size = 4
_pos$ = -64						; size = 12
_attitude$ = -52					; size = 36
_roll$ = -16						; size = 4
_pitch$ = -12						; size = 4
_heading$ = -8						; size = 4
_fuselage_angle$ = -4					; size = 4
_keysite$ = 8						; size = 4
_member_type$ = 12					; size = 4
_group_type$ = 16					; size = 4
_number$ = 20						; size = 4
_cwp$ = 24						; size = 4
_start_position$ = 28					; size = 4
?create_landing_faction_members@@YGPAUENTITY@@PAU1@HHH0PAUVEC3D@@@Z PROC ; create_landing_faction_members, COMDAT

; 765  : {

  00000	55		 push	 ebp
  00001	8b ec		 mov	 ebp, esp
  00003	81 ec 10 01 00
	00		 sub	 esp, 272		; 00000110H
  00009	53		 push	 ebx
  0000a	56		 push	 esi
  0000b	57		 push	 edi

; 766  : 
; 767  :    float
; 768  :       fuselage_angle = 0,

  0000c	0f 57 c0	 xorps	 xmm0, xmm0
  0000f	f3 0f 11 45 fc	 movss	 DWORD PTR _fuselage_angle$[ebp], xmm0

; 769  :       heading,
; 770  :       pitch,
; 771  :       roll;
; 772  : 
; 773  :    matrix3x3
; 774  :       attitude;
; 775  : 
; 776  :    vec3d
; 777  : 		pos,
; 778  : 		*wp_pos,
; 779  : 		*normal,
; 780  : 		start_wp_pos,
; 781  : 		member_pos,
; 782  :       direction;
; 783  : 
; 784  :    int
; 785  : 		free_sites,
; 786  : 		landing_formation,
; 787  : 		formation_test,
; 788  :       formation_position,
; 789  :       loop;
; 790  : 
; 791  : 	terrain_3d_point_data
; 792  : 		terrain_info;
; 793  : 
; 794  :    entity
; 795  :       *wp,
; 796  : 		*force,
; 797  :       *group,
; 798  :       *member,
; 799  :       *landing_en;
; 800  : 
; 801  : 	ASSERT (keysite);

  00014	83 7d 08 00	 cmp	 DWORD PTR _keysite$[ebp], 0
  00018	75 18		 jne	 SHORT $LN11@create_lan
  0001a	a1 00 00 00 00	 mov	 eax, DWORD PTR ?__LINE__Var@?0??create_landing_faction_members@@YGPAUENTITY@@PAU2@HHH0PAUVEC3D@@@Z@4JA
  0001f	83 c0 24	 add	 eax, 36			; 00000024H
  00022	50		 push	 eax
  00023	68 00 00 00 00	 push	 OFFSET ??_C@_0EB@JEOGKGCM@c?3?2users?2nhv90?2projects?2eech?2ap@
  00028	68 00 00 00 00	 push	 OFFSET ??_C@_07FBNBNOMI@keysite@
  0002d	e8 00 00 00 00	 call	 ?process_assert@@YGXPBD0H@Z ; process_assert
$LN11@create_lan:

; 802  : 
; 803  : 	ASSERT (get_local_entity_type (keysite) == ENTITY_TYPE_KEYSITE);

  00032	83 7d 08 00	 cmp	 DWORD PTR _keysite$[ebp], 0
  00036	74 0d		 je	 SHORT $LN29@create_lan
  00038	8b 45 08	 mov	 eax, DWORD PTR _keysite$[ebp]
  0003b	8b 08		 mov	 ecx, DWORD PTR [eax]
  0003d	89 8d fc fe ff
	ff		 mov	 DWORD PTR tv75[ebp], ecx
  00043	eb 24		 jmp	 SHORT $LN30@create_lan
$LN29@create_lan:
  00045	8b 15 00 00 00
	00		 mov	 edx, DWORD PTR ?__LINE__Var@?0??create_landing_faction_members@@YGPAUENTITY@@PAU2@HHH0PAUVEC3D@@@Z@4JA
  0004b	83 c2 26	 add	 edx, 38			; 00000026H
  0004e	52		 push	 edx
  0004f	68 00 00 00 00	 push	 OFFSET ??_C@_0EB@JEOGKGCM@c?3?2users?2nhv90?2projects?2eech?2ap@
  00054	a1 00 00 00 00	 mov	 eax, DWORD PTR ?null_entity_pointer_message@@3PBDB ; null_entity_pointer_message
  00059	50		 push	 eax
  0005a	e8 00 00 00 00	 call	 ?process_assert@@YGXPBD0H@Z ; process_assert
  0005f	c7 85 fc fe ff
	ff 00 00 00 00	 mov	 DWORD PTR tv75[ebp], 0
$LN30@create_lan:
  00069	83 bd fc fe ff
	ff 0f		 cmp	 DWORD PTR tv75[ebp], 15	; 0000000fH
  00070	74 18		 je	 SHORT $LN12@create_lan
  00072	a1 00 00 00 00	 mov	 eax, DWORD PTR ?__LINE__Var@?0??create_landing_faction_members@@YGPAUENTITY@@PAU2@HHH0PAUVEC3D@@@Z@4JA
  00077	83 c0 26	 add	 eax, 38			; 00000026H
  0007a	50		 push	 eax
  0007b	68 00 00 00 00	 push	 OFFSET ??_C@_0EB@JEOGKGCM@c?3?2users?2nhv90?2projects?2eech?2ap@
  00080	68 00 00 00 00	 push	 OFFSET ??_C@_0DH@KIHAKAGM@get_local_entity_type?5?$CIkeysite?$CJ@
  00085	e8 00 00 00 00	 call	 ?process_assert@@YGXPBD0H@Z ; process_assert
$LN12@create_lan:

; 804  : 
; 805  : 	ASSERT (get_comms_model () == COMMS_MODEL_SERVER);

  0008a	83 3d 00 00 00
	00 00		 cmp	 DWORD PTR ?system_comms_model@@3W4COMMS_MODEL_TYPES@@A, 0 ; system_comms_model
  00091	74 18		 je	 SHORT $LN13@create_lan
  00093	a1 00 00 00 00	 mov	 eax, DWORD PTR ?__LINE__Var@?0??create_landing_faction_members@@YGPAUENTITY@@PAU2@HHH0PAUVEC3D@@@Z@4JA
  00098	83 c0 28	 add	 eax, 40			; 00000028H
  0009b	50		 push	 eax
  0009c	68 00 00 00 00	 push	 OFFSET ??_C@_0EB@JEOGKGCM@c?3?2users?2nhv90?2projects?2eech?2ap@
  000a1	68 00 00 00 00	 push	 OFFSET ??_C@_0CJ@DMBLBJBK@get_comms_model?5?$CI?$CJ?5?$DN?$DN?5COMMS_MOD@
  000a6	e8 00 00 00 00	 call	 ?process_assert@@YGXPBD0H@Z ; process_assert
$LN13@create_lan:

; 806  : 
; 807  : 	ASSERT (get_game_status () == GAME_STATUS_INITIALISED);

  000ab	83 3d 00 00 00
	00 03		 cmp	 DWORD PTR ?game_status@@3W4GAME_STATUS_TYPES@@A, 3 ; game_status
  000b2	74 18		 je	 SHORT $LN14@create_lan
  000b4	a1 00 00 00 00	 mov	 eax, DWORD PTR ?__LINE__Var@?0??create_landing_faction_members@@YGPAUENTITY@@PAU2@HHH0PAUVEC3D@@@Z@4JA
  000b9	83 c0 2a	 add	 eax, 42			; 0000002aH
  000bc	50		 push	 eax
  000bd	68 00 00 00 00	 push	 OFFSET ??_C@_0EB@JEOGKGCM@c?3?2users?2nhv90?2projects?2eech?2ap@
  000c2	68 00 00 00 00	 push	 OFFSET ??_C@_0CO@ICCOPKDA@get_game_status?5?$CI?$CJ?5?$DN?$DN?5GAME_STAT@
  000c7	e8 00 00 00 00	 call	 ?process_assert@@YGXPBD0H@Z ; process_assert
$LN14@create_lan:

; 808  : 
; 809  :    #if DEBUG_MODULE
; 810  : 
; 811  :    debug_log ("FACTION: create landing members type %d, sub type %d, number %d, at %s", member_type, group_type, number, get_local_entity_string (keysite, STRING_TYPE_KEYSITE_NAME));
; 812  : 
; 813  :    #endif
; 814  : 
; 815  : 	force = get_local_entity_parent (keysite, LIST_TYPE_KEYSITE_FORCE);

  000cc	83 7d 08 00	 cmp	 DWORD PTR _keysite$[ebp], 0
  000d0	74 0d		 je	 SHORT $LN31@create_lan
  000d2	8b 45 08	 mov	 eax, DWORD PTR _keysite$[ebp]
  000d5	8b 08		 mov	 ecx, DWORD PTR [eax]
  000d7	89 8d fc fe ff
	ff		 mov	 DWORD PTR tv129[ebp], ecx
  000dd	eb 24		 jmp	 SHORT $LN32@create_lan
$LN31@create_lan:
  000df	8b 15 00 00 00
	00		 mov	 edx, DWORD PTR ?__LINE__Var@?0??create_landing_faction_members@@YGPAUENTITY@@PAU2@HHH0PAUVEC3D@@@Z@4JA
  000e5	83 c2 32	 add	 edx, 50			; 00000032H
  000e8	52		 push	 edx
  000e9	68 00 00 00 00	 push	 OFFSET ??_C@_0EB@JEOGKGCM@c?3?2users?2nhv90?2projects?2eech?2ap@
  000ee	a1 00 00 00 00	 mov	 eax, DWORD PTR ?null_entity_pointer_message@@3PBDB ; null_entity_pointer_message
  000f3	50		 push	 eax
  000f4	e8 00 00 00 00	 call	 ?process_assert@@YGXPBD0H@Z ; process_assert
  000f9	c7 85 fc fe ff
	ff 00 00 00 00	 mov	 DWORD PTR tv129[ebp], 0
$LN32@create_lan:
  00103	b9 01 00 00 00	 mov	 ecx, 1
  00108	85 c9		 test	 ecx, ecx
  0010a	74 0c		 je	 SHORT $LN33@create_lan
  0010c	c7 85 f8 fe ff
	ff 15 00 00 00	 mov	 DWORD PTR tv137[ebp], 21 ; 00000015H
  00116	eb 24		 jmp	 SHORT $LN34@create_lan
$LN33@create_lan:
  00118	8b 15 00 00 00
	00		 mov	 edx, DWORD PTR ?__LINE__Var@?0??create_landing_faction_members@@YGPAUENTITY@@PAU2@HHH0PAUVEC3D@@@Z@4JA
  0011e	83 c2 32	 add	 edx, 50			; 00000032H
  00121	52		 push	 edx
  00122	68 00 00 00 00	 push	 OFFSET ??_C@_0EB@JEOGKGCM@c?3?2users?2nhv90?2projects?2eech?2ap@
  00127	a1 00 00 00 00	 mov	 eax, DWORD PTR ?overload_invalid_list_type_message@@3PBDB ; overload_invalid_list_type_message
  0012c	50		 push	 eax
  0012d	e8 00 00 00 00	 call	 ?process_assert@@YGXPBD0H@Z ; process_assert
  00132	c7 85 f8 fe ff
	ff 00 00 00 00	 mov	 DWORD PTR tv137[ebp], 0
$LN34@create_lan:
  0013c	6a 15		 push	 21			; 00000015H
  0013e	8b 4d 08	 mov	 ecx, DWORD PTR _keysite$[ebp]
  00141	51		 push	 ecx
  00142	69 95 fc fe ff
	ff b4 00 00 00	 imul	 edx, DWORD PTR tv129[ebp], 180
  0014c	8b 85 f8 fe ff
	ff		 mov	 eax, DWORD PTR tv137[ebp]
  00152	8b 8c 82 00 00
	00 00		 mov	 ecx, DWORD PTR ?fn_get_local_entity_parent@@3PAY0CN@P6GPAUENTITY@@PAU1@W4LIST_TYPES@@@ZA[edx+eax*4]
  00159	ff d1		 call	 ecx
  0015b	89 85 4c ff ff
	ff		 mov	 DWORD PTR _force$[ebp], eax

; 816  : 
; 817  : 	ASSERT (force);

  00161	83 bd 4c ff ff
	ff 00		 cmp	 DWORD PTR _force$[ebp], 0
  00168	75 18		 jne	 SHORT $LN15@create_lan
  0016a	a1 00 00 00 00	 mov	 eax, DWORD PTR ?__LINE__Var@?0??create_landing_faction_members@@YGPAUENTITY@@PAU2@HHH0PAUVEC3D@@@Z@4JA
  0016f	83 c0 34	 add	 eax, 52			; 00000034H
  00172	50		 push	 eax
  00173	68 00 00 00 00	 push	 OFFSET ??_C@_0EB@JEOGKGCM@c?3?2users?2nhv90?2projects?2eech?2ap@
  00178	68 00 00 00 00	 push	 OFFSET ??_C@_05BINPNAAL@force@
  0017d	e8 00 00 00 00	 call	 ?process_assert@@YGXPBD0H@Z ; process_assert
$LN15@create_lan:

; 818  : 
; 819  : 	wp_pos = get_local_entity_vec3d_ptr (cwp, VEC3D_TYPE_POSITION);

  00182	83 7d 18 00	 cmp	 DWORD PTR _cwp$[ebp], 0
  00186	74 0d		 je	 SHORT $LN35@create_lan
  00188	8b 45 18	 mov	 eax, DWORD PTR _cwp$[ebp]
  0018b	8b 08		 mov	 ecx, DWORD PTR [eax]
  0018d	89 8d fc fe ff
	ff		 mov	 DWORD PTR tv154[ebp], ecx
  00193	eb 24		 jmp	 SHORT $LN36@create_lan
$LN35@create_lan:
  00195	8b 15 00 00 00
	00		 mov	 edx, DWORD PTR ?__LINE__Var@?0??create_landing_faction_members@@YGPAUENTITY@@PAU2@HHH0PAUVEC3D@@@Z@4JA
  0019b	83 c2 36	 add	 edx, 54			; 00000036H
  0019e	52		 push	 edx
  0019f	68 00 00 00 00	 push	 OFFSET ??_C@_0EB@JEOGKGCM@c?3?2users?2nhv90?2projects?2eech?2ap@
  001a4	a1 00 00 00 00	 mov	 eax, DWORD PTR ?null_entity_pointer_message@@3PBDB ; null_entity_pointer_message
  001a9	50		 push	 eax
  001aa	e8 00 00 00 00	 call	 ?process_assert@@YGXPBD0H@Z ; process_assert
  001af	c7 85 fc fe ff
	ff 00 00 00 00	 mov	 DWORD PTR tv154[ebp], 0
$LN36@create_lan:
  001b9	b9 01 00 00 00	 mov	 ecx, 1
  001be	85 c9		 test	 ecx, ecx
  001c0	74 0c		 je	 SHORT $LN37@create_lan
  001c2	c7 85 f8 fe ff
	ff 08 00 00 00	 mov	 DWORD PTR tv162[ebp], 8
  001cc	eb 24		 jmp	 SHORT $LN38@create_lan
$LN37@create_lan:
  001ce	8b 15 00 00 00
	00		 mov	 edx, DWORD PTR ?__LINE__Var@?0??create_landing_faction_members@@YGPAUENTITY@@PAU2@HHH0PAUVEC3D@@@Z@4JA
  001d4	83 c2 36	 add	 edx, 54			; 00000036H
  001d7	52		 push	 edx
  001d8	68 00 00 00 00	 push	 OFFSET ??_C@_0EB@JEOGKGCM@c?3?2users?2nhv90?2projects?2eech?2ap@
  001dd	a1 00 00 00 00	 mov	 eax, DWORD PTR ?overload_invalid_vec3d_type_message@@3PBDB ; overload_invalid_vec3d_type_message
  001e2	50		 push	 eax
  001e3	e8 00 00 00 00	 call	 ?process_assert@@YGXPBD0H@Z ; process_assert
  001e8	c7 85 f8 fe ff
	ff 00 00 00 00	 mov	 DWORD PTR tv162[ebp], 0
$LN38@create_lan:
  001f2	6a 08		 push	 8
  001f4	8b 4d 18	 mov	 ecx, DWORD PTR _cwp$[ebp]
  001f7	51		 push	 ecx
  001f8	6b 95 fc fe ff
	ff 60		 imul	 edx, DWORD PTR tv154[ebp], 96
  001ff	8b 85 f8 fe ff
	ff		 mov	 eax, DWORD PTR tv162[ebp]
  00205	8b 8c 82 00 00
	00 00		 mov	 ecx, DWORD PTR ?fn_get_local_entity_vec3d_ptr@@3PAY0BI@P6GPAUVEC3D@@PAUENTITY@@W4VEC3D_TYPES@@@ZA[edx+eax*4]
  0020c	ff d1		 call	 ecx
  0020e	89 45 bc	 mov	 DWORD PTR _wp_pos$[ebp], eax

; 820  : 
; 821  : 	landing_en = NULL;

  00211	c7 85 40 ff ff
	ff 00 00 00 00	 mov	 DWORD PTR _landing_en$[ebp], 0

; 822  : 
; 823  :    debug_assert (get_comms_model () == COMMS_MODEL_SERVER);

  0021b	83 3d 00 00 00
	00 00		 cmp	 DWORD PTR ?system_comms_model@@3W4COMMS_MODEL_TYPES@@A, 0 ; system_comms_model
  00222	74 20		 je	 SHORT $LN16@create_lan
  00224	a1 00 00 00 00	 mov	 eax, DWORD PTR ?__LINE__Var@?0??create_landing_faction_members@@YGPAUENTITY@@PAU2@HHH0PAUVEC3D@@@Z@4JA
  00229	83 c0 3a	 add	 eax, 58			; 0000003aH
  0022c	50		 push	 eax
  0022d	68 00 00 00 00	 push	 OFFSET ??_C@_0EB@JEOGKGCM@c?3?2users?2nhv90?2projects?2eech?2ap@
  00232	68 00 00 00 00	 push	 OFFSET ??_C@_0CJ@DMBLBJBK@get_comms_model?5?$CI?$CJ?5?$DN?$DN?5COMMS_MOD@
  00237	68 00 00 00 00	 push	 OFFSET ??_C@_0BC@PODNONFH@ASSERT?5?$CFs?5?$CI?$CFs?3?$CFd?$CJ@
  0023c	e8 00 00 00 00	 call	 ?debug_fatal@@YAXPBDZZ	; debug_fatal
  00241	83 c4 10	 add	 esp, 16			; 00000010H
$LN16@create_lan:

; 824  : 
; 825  :    landing_en = get_local_entity_landing_entity (keysite, group_database [group_type].default_landing_type);

  00244	6b 45 10 64	 imul	 eax, DWORD PTR _group_type$[ebp], 100
  00248	8b 88 18 00 00
	00		 mov	 ecx, DWORD PTR ?group_database@@3PAUGROUP_DATA@@A[eax+24]
  0024e	51		 push	 ecx
  0024f	8b 55 08	 mov	 edx, DWORD PTR _keysite$[ebp]
  00252	52		 push	 edx
  00253	e8 00 00 00 00	 call	 ?get_local_entity_landing_entity@@YGPAUENTITY@@PAU1@H@Z ; get_local_entity_landing_entity
  00258	89 85 40 ff ff
	ff		 mov	 DWORD PTR _landing_en$[ebp], eax

; 826  : 
; 827  :    if (landing_en)

  0025e	83 bd 40 ff ff
	ff 00		 cmp	 DWORD PTR _landing_en$[ebp], 0
  00265	0f 84 6b 11 00
	00		 je	 $LN20@create_lan

; 828  :    {
; 829  : 
; 830  :       //
; 831  :       // skip through route to last waypoint, i.e. landed waypoint.
; 832  :       //
; 833  : 
; 834  :       wp = get_local_landing_entity_route (landing_en, ENTITY_SUB_TYPE_TASK_LANDING);

  0026b	6a 0d		 push	 13			; 0000000dH
  0026d	8b 85 40 ff ff
	ff		 mov	 eax, DWORD PTR _landing_en$[ebp]
  00273	50		 push	 eax
  00274	e8 00 00 00 00	 call	 ?get_local_landing_entity_route@@YGPAUENTITY@@PAU1@H@Z ; get_local_landing_entity_route
  00279	89 85 50 ff ff
	ff		 mov	 DWORD PTR _wp$[ebp], eax

; 835  : 
; 836  : 		landing_formation = get_number_in_formation ((formation_types)get_local_entity_int_value (wp, INT_TYPE_WAYPOINT_FORMATION));

  0027f	83 bd 50 ff ff
	ff 00		 cmp	 DWORD PTR _wp$[ebp], 0
  00286	74 10		 je	 SHORT $LN39@create_lan
  00288	8b 85 50 ff ff
	ff		 mov	 eax, DWORD PTR _wp$[ebp]
  0028e	8b 08		 mov	 ecx, DWORD PTR [eax]
  00290	89 8d fc fe ff
	ff		 mov	 DWORD PTR tv191[ebp], ecx
  00296	eb 24		 jmp	 SHORT $LN40@create_lan
$LN39@create_lan:
  00298	8b 15 00 00 00
	00		 mov	 edx, DWORD PTR ?__LINE__Var@?0??create_landing_faction_members@@YGPAUENTITY@@PAU2@HHH0PAUVEC3D@@@Z@4JA
  0029e	83 c2 47	 add	 edx, 71			; 00000047H
  002a1	52		 push	 edx
  002a2	68 00 00 00 00	 push	 OFFSET ??_C@_0EB@JEOGKGCM@c?3?2users?2nhv90?2projects?2eech?2ap@
  002a7	a1 00 00 00 00	 mov	 eax, DWORD PTR ?null_entity_pointer_message@@3PBDB ; null_entity_pointer_message
  002ac	50		 push	 eax
  002ad	e8 00 00 00 00	 call	 ?process_assert@@YGXPBD0H@Z ; process_assert
  002b2	c7 85 fc fe ff
	ff 00 00 00 00	 mov	 DWORD PTR tv191[ebp], 0
$LN40@create_lan:
  002bc	b9 01 00 00 00	 mov	 ecx, 1
  002c1	85 c9		 test	 ecx, ecx
  002c3	74 0c		 je	 SHORT $LN41@create_lan
  002c5	c7 85 f8 fe ff
	ff fe 00 00 00	 mov	 DWORD PTR tv199[ebp], 254 ; 000000feH
  002cf	eb 24		 jmp	 SHORT $LN42@create_lan
$LN41@create_lan:
  002d1	8b 15 00 00 00
	00		 mov	 edx, DWORD PTR ?__LINE__Var@?0??create_landing_faction_members@@YGPAUENTITY@@PAU2@HHH0PAUVEC3D@@@Z@4JA
  002d7	83 c2 47	 add	 edx, 71			; 00000047H
  002da	52		 push	 edx
  002db	68 00 00 00 00	 push	 OFFSET ??_C@_0EB@JEOGKGCM@c?3?2users?2nhv90?2projects?2eech?2ap@
  002e0	a1 00 00 00 00	 mov	 eax, DWORD PTR ?overload_invalid_int_type_message@@3PBDB ; overload_invalid_int_type_message
  002e5	50		 push	 eax
  002e6	e8 00 00 00 00	 call	 ?process_assert@@YGXPBD0H@Z ; process_assert
  002eb	c7 85 f8 fe ff
	ff 00 00 00 00	 mov	 DWORD PTR tv199[ebp], 0
$LN42@create_lan:
  002f5	68 fe 00 00 00	 push	 254			; 000000feH
  002fa	8b 8d 50 ff ff
	ff		 mov	 ecx, DWORD PTR _wp$[ebp]
  00300	51		 push	 ecx
  00301	69 95 fc fe ff
	ff 5c 04 00 00	 imul	 edx, DWORD PTR tv191[ebp], 1116
  0030b	8b 85 f8 fe ff
	ff		 mov	 eax, DWORD PTR tv199[ebp]
  00311	8b 8c 82 00 00
	00 00		 mov	 ecx, DWORD PTR ?fn_get_local_entity_int_value@@3PAY0BBH@P6GHPAUENTITY@@W4INT_TYPES@@@ZA[edx+eax*4]
  00318	ff d1		 call	 ecx
  0031a	50		 push	 eax
  0031b	e8 00 00 00 00	 call	 ?get_number_in_formation@@YGFW4FORMATION_TYPES@@@Z ; get_number_in_formation
  00320	0f bf d0	 movsx	 edx, ax
  00323	89 55 8c	 mov	 DWORD PTR _landing_formation$[ebp], edx
$LN2@create_lan:

; 837  : 
; 838  :       while (get_local_entity_child_succ (wp, LIST_TYPE_WAYPOINT))

  00326	83 bd 50 ff ff
	ff 00		 cmp	 DWORD PTR _wp$[ebp], 0
  0032d	74 10		 je	 SHORT $LN43@create_lan
  0032f	8b 85 50 ff ff
	ff		 mov	 eax, DWORD PTR _wp$[ebp]
  00335	8b 08		 mov	 ecx, DWORD PTR [eax]
  00337	89 8d fc fe ff
	ff		 mov	 DWORD PTR tv213[ebp], ecx
  0033d	eb 24		 jmp	 SHORT $LN44@create_lan
$LN43@create_lan:
  0033f	8b 15 00 00 00
	00		 mov	 edx, DWORD PTR ?__LINE__Var@?0??create_landing_faction_members@@YGPAUENTITY@@PAU2@HHH0PAUVEC3D@@@Z@4JA
  00345	83 c2 49	 add	 edx, 73			; 00000049H
  00348	52		 push	 edx
  00349	68 00 00 00 00	 push	 OFFSET ??_C@_0EB@JEOGKGCM@c?3?2users?2nhv90?2projects?2eech?2ap@
  0034e	a1 00 00 00 00	 mov	 eax, DWORD PTR ?null_entity_pointer_message@@3PBDB ; null_entity_pointer_message
  00353	50		 push	 eax
  00354	e8 00 00 00 00	 call	 ?process_assert@@YGXPBD0H@Z ; process_assert
  00359	c7 85 fc fe ff
	ff 00 00 00 00	 mov	 DWORD PTR tv213[ebp], 0
$LN44@create_lan:
  00363	b9 01 00 00 00	 mov	 ecx, 1
  00368	85 c9		 test	 ecx, ecx
  0036a	74 0c		 je	 SHORT $LN45@create_lan
  0036c	c7 85 f8 fe ff
	ff 2c 00 00 00	 mov	 DWORD PTR tv221[ebp], 44 ; 0000002cH
  00376	eb 24		 jmp	 SHORT $LN46@create_lan
$LN45@create_lan:
  00378	8b 15 00 00 00
	00		 mov	 edx, DWORD PTR ?__LINE__Var@?0??create_landing_faction_members@@YGPAUENTITY@@PAU2@HHH0PAUVEC3D@@@Z@4JA
  0037e	83 c2 49	 add	 edx, 73			; 00000049H
  00381	52		 push	 edx
  00382	68 00 00 00 00	 push	 OFFSET ??_C@_0EB@JEOGKGCM@c?3?2users?2nhv90?2projects?2eech?2ap@
  00387	a1 00 00 00 00	 mov	 eax, DWORD PTR ?overload_invalid_list_type_message@@3PBDB ; overload_invalid_list_type_message
  0038c	50		 push	 eax
  0038d	e8 00 00 00 00	 call	 ?process_assert@@YGXPBD0H@Z ; process_assert
  00392	c7 85 f8 fe ff
	ff 00 00 00 00	 mov	 DWORD PTR tv221[ebp], 0
$LN46@create_lan:
  0039c	6a 2c		 push	 44			; 0000002cH
  0039e	8b 8d 50 ff ff
	ff		 mov	 ecx, DWORD PTR _wp$[ebp]
  003a4	51		 push	 ecx
  003a5	69 95 fc fe ff
	ff b4 00 00 00	 imul	 edx, DWORD PTR tv213[ebp], 180
  003af	8b 85 f8 fe ff
	ff		 mov	 eax, DWORD PTR tv221[ebp]
  003b5	8b 8c 82 00 00
	00 00		 mov	 ecx, DWORD PTR ?fn_get_local_entity_child_succ@@3PAY0CN@P6GPAUENTITY@@PAU1@W4LIST_TYPES@@@ZA[edx+eax*4]
  003bc	ff d1		 call	 ecx
  003be	85 c0		 test	 eax, eax
  003c0	0f 84 a3 00 00
	00		 je	 $LN3@create_lan

; 839  :       {
; 840  : 
; 841  :          wp = get_local_entity_child_succ (wp, LIST_TYPE_WAYPOINT);

  003c6	83 bd 50 ff ff
	ff 00		 cmp	 DWORD PTR _wp$[ebp], 0
  003cd	74 10		 je	 SHORT $LN47@create_lan
  003cf	8b 85 50 ff ff
	ff		 mov	 eax, DWORD PTR _wp$[ebp]
  003d5	8b 08		 mov	 ecx, DWORD PTR [eax]
  003d7	89 8d fc fe ff
	ff		 mov	 DWORD PTR tv234[ebp], ecx
  003dd	eb 24		 jmp	 SHORT $LN48@create_lan
$LN47@create_lan:
  003df	8b 15 00 00 00
	00		 mov	 edx, DWORD PTR ?__LINE__Var@?0??create_landing_faction_members@@YGPAUENTITY@@PAU2@HHH0PAUVEC3D@@@Z@4JA
  003e5	83 c2 4c	 add	 edx, 76			; 0000004cH
  003e8	52		 push	 edx
  003e9	68 00 00 00 00	 push	 OFFSET ??_C@_0EB@JEOGKGCM@c?3?2users?2nhv90?2projects?2eech?2ap@
  003ee	a1 00 00 00 00	 mov	 eax, DWORD PTR ?null_entity_pointer_message@@3PBDB ; null_entity_pointer_message
  003f3	50		 push	 eax
  003f4	e8 00 00 00 00	 call	 ?process_assert@@YGXPBD0H@Z ; process_assert
  003f9	c7 85 fc fe ff
	ff 00 00 00 00	 mov	 DWORD PTR tv234[ebp], 0
$LN48@create_lan:
  00403	b9 01 00 00 00	 mov	 ecx, 1
  00408	85 c9		 test	 ecx, ecx
  0040a	74 0c		 je	 SHORT $LN49@create_lan
  0040c	c7 85 f8 fe ff
	ff 2c 00 00 00	 mov	 DWORD PTR tv242[ebp], 44 ; 0000002cH
  00416	eb 24		 jmp	 SHORT $LN50@create_lan
$LN49@create_lan:
  00418	8b 15 00 00 00
	00		 mov	 edx, DWORD PTR ?__LINE__Var@?0??create_landing_faction_members@@YGPAUENTITY@@PAU2@HHH0PAUVEC3D@@@Z@4JA
  0041e	83 c2 4c	 add	 edx, 76			; 0000004cH
  00421	52		 push	 edx
  00422	68 00 00 00 00	 push	 OFFSET ??_C@_0EB@JEOGKGCM@c?3?2users?2nhv90?2projects?2eech?2ap@
  00427	a1 00 00 00 00	 mov	 eax, DWORD PTR ?overload_invalid_list_type_message@@3PBDB ; overload_invalid_list_type_message
  0042c	50		 push	 eax
  0042d	e8 00 00 00 00	 call	 ?process_assert@@YGXPBD0H@Z ; process_assert
  00432	c7 85 f8 fe ff
	ff 00 00 00 00	 mov	 DWORD PTR tv242[ebp], 0
$LN50@create_lan:
  0043c	6a 2c		 push	 44			; 0000002cH
  0043e	8b 8d 50 ff ff
	ff		 mov	 ecx, DWORD PTR _wp$[ebp]
  00444	51		 push	 ecx
  00445	69 95 fc fe ff
	ff b4 00 00 00	 imul	 edx, DWORD PTR tv234[ebp], 180
  0044f	8b 85 f8 fe ff
	ff		 mov	 eax, DWORD PTR tv242[ebp]
  00455	8b 8c 82 00 00
	00 00		 mov	 ecx, DWORD PTR ?fn_get_local_entity_child_succ@@3PAY0CN@P6GPAUENTITY@@PAU1@W4LIST_TYPES@@@ZA[edx+eax*4]
  0045c	ff d1		 call	 ecx
  0045e	89 85 50 ff ff
	ff		 mov	 DWORD PTR _wp$[ebp], eax

; 842  :       }

  00464	e9 bd fe ff ff	 jmp	 $LN2@create_lan
$LN3@create_lan:

; 843  : 
; 844  :       ASSERT (wp);

  00469	83 bd 50 ff ff
	ff 00		 cmp	 DWORD PTR _wp$[ebp], 0
  00470	75 18		 jne	 SHORT $LN18@create_lan
  00472	a1 00 00 00 00	 mov	 eax, DWORD PTR ?__LINE__Var@?0??create_landing_faction_members@@YGPAUENTITY@@PAU2@HHH0PAUVEC3D@@@Z@4JA
  00477	83 c0 4f	 add	 eax, 79			; 0000004fH
  0047a	50		 push	 eax
  0047b	68 00 00 00 00	 push	 OFFSET ??_C@_0EB@JEOGKGCM@c?3?2users?2nhv90?2projects?2eech?2ap@
  00480	68 00 00 00 00	 push	 OFFSET ??_C@_02HODPCBMO@wp@
  00485	e8 00 00 00 00	 call	 ?process_assert@@YGXPBD0H@Z ; process_assert
$LN18@create_lan:

; 845  : 
; 846  : 		free_sites = get_local_entity_int_value (landing_en, INT_TYPE_TOTAL_LANDING_SITES) - int_bit_count (get_local_entity_int_value (landing_en, INT_TYPE_LANDED_LOCK));

  0048a	83 bd 40 ff ff
	ff 00		 cmp	 DWORD PTR _landing_en$[ebp], 0
  00491	74 10		 je	 SHORT $LN51@create_lan
  00493	8b 85 40 ff ff
	ff		 mov	 eax, DWORD PTR _landing_en$[ebp]
  00499	8b 08		 mov	 ecx, DWORD PTR [eax]
  0049b	89 8d fc fe ff
	ff		 mov	 DWORD PTR tv259[ebp], ecx
  004a1	eb 24		 jmp	 SHORT $LN52@create_lan
$LN51@create_lan:
  004a3	8b 15 00 00 00
	00		 mov	 edx, DWORD PTR ?__LINE__Var@?0??create_landing_faction_members@@YGPAUENTITY@@PAU2@HHH0PAUVEC3D@@@Z@4JA
  004a9	83 c2 51	 add	 edx, 81			; 00000051H
  004ac	52		 push	 edx
  004ad	68 00 00 00 00	 push	 OFFSET ??_C@_0EB@JEOGKGCM@c?3?2users?2nhv90?2projects?2eech?2ap@
  004b2	a1 00 00 00 00	 mov	 eax, DWORD PTR ?null_entity_pointer_message@@3PBDB ; null_entity_pointer_message
  004b7	50		 push	 eax
  004b8	e8 00 00 00 00	 call	 ?process_assert@@YGXPBD0H@Z ; process_assert
  004bd	c7 85 fc fe ff
	ff 00 00 00 00	 mov	 DWORD PTR tv259[ebp], 0
$LN52@create_lan:
  004c7	b9 01 00 00 00	 mov	 ecx, 1
  004cc	85 c9		 test	 ecx, ecx
  004ce	74 0c		 je	 SHORT $LN53@create_lan
  004d0	c7 85 f8 fe ff
	ff eb 00 00 00	 mov	 DWORD PTR tv267[ebp], 235 ; 000000ebH
  004da	eb 24		 jmp	 SHORT $LN54@create_lan
$LN53@create_lan:
  004dc	8b 15 00 00 00
	00		 mov	 edx, DWORD PTR ?__LINE__Var@?0??create_landing_faction_members@@YGPAUENTITY@@PAU2@HHH0PAUVEC3D@@@Z@4JA
  004e2	83 c2 51	 add	 edx, 81			; 00000051H
  004e5	52		 push	 edx
  004e6	68 00 00 00 00	 push	 OFFSET ??_C@_0EB@JEOGKGCM@c?3?2users?2nhv90?2projects?2eech?2ap@
  004eb	a1 00 00 00 00	 mov	 eax, DWORD PTR ?overload_invalid_int_type_message@@3PBDB ; overload_invalid_int_type_message
  004f0	50		 push	 eax
  004f1	e8 00 00 00 00	 call	 ?process_assert@@YGXPBD0H@Z ; process_assert
  004f6	c7 85 f8 fe ff
	ff 00 00 00 00	 mov	 DWORD PTR tv267[ebp], 0
$LN54@create_lan:
  00500	83 bd 40 ff ff
	ff 00		 cmp	 DWORD PTR _landing_en$[ebp], 0
  00507	74 10		 je	 SHORT $LN55@create_lan
  00509	8b 8d 40 ff ff
	ff		 mov	 ecx, DWORD PTR _landing_en$[ebp]
  0050f	8b 11		 mov	 edx, DWORD PTR [ecx]
  00511	89 95 f4 fe ff
	ff		 mov	 DWORD PTR tv280[ebp], edx
  00517	eb 24		 jmp	 SHORT $LN56@create_lan
$LN55@create_lan:
  00519	a1 00 00 00 00	 mov	 eax, DWORD PTR ?__LINE__Var@?0??create_landing_faction_members@@YGPAUENTITY@@PAU2@HHH0PAUVEC3D@@@Z@4JA
  0051e	83 c0 51	 add	 eax, 81			; 00000051H
  00521	50		 push	 eax
  00522	68 00 00 00 00	 push	 OFFSET ??_C@_0EB@JEOGKGCM@c?3?2users?2nhv90?2projects?2eech?2ap@
  00527	8b 0d 00 00 00
	00		 mov	 ecx, DWORD PTR ?null_entity_pointer_message@@3PBDB ; null_entity_pointer_message
  0052d	51		 push	 ecx
  0052e	e8 00 00 00 00	 call	 ?process_assert@@YGXPBD0H@Z ; process_assert
  00533	c7 85 f4 fe ff
	ff 00 00 00 00	 mov	 DWORD PTR tv280[ebp], 0
$LN56@create_lan:
  0053d	ba 01 00 00 00	 mov	 edx, 1
  00542	85 d2		 test	 edx, edx
  00544	74 0c		 je	 SHORT $LN57@create_lan
  00546	c7 85 f0 fe ff
	ff 74 00 00 00	 mov	 DWORD PTR tv288[ebp], 116 ; 00000074H
  00550	eb 24		 jmp	 SHORT $LN58@create_lan
$LN57@create_lan:
  00552	a1 00 00 00 00	 mov	 eax, DWORD PTR ?__LINE__Var@?0??create_landing_faction_members@@YGPAUENTITY@@PAU2@HHH0PAUVEC3D@@@Z@4JA
  00557	83 c0 51	 add	 eax, 81			; 00000051H
  0055a	50		 push	 eax
  0055b	68 00 00 00 00	 push	 OFFSET ??_C@_0EB@JEOGKGCM@c?3?2users?2nhv90?2projects?2eech?2ap@
  00560	8b 0d 00 00 00
	00		 mov	 ecx, DWORD PTR ?overload_invalid_int_type_message@@3PBDB ; overload_invalid_int_type_message
  00566	51		 push	 ecx
  00567	e8 00 00 00 00	 call	 ?process_assert@@YGXPBD0H@Z ; process_assert
  0056c	c7 85 f0 fe ff
	ff 00 00 00 00	 mov	 DWORD PTR tv288[ebp], 0
$LN58@create_lan:
  00576	68 eb 00 00 00	 push	 235			; 000000ebH
  0057b	8b 95 40 ff ff
	ff		 mov	 edx, DWORD PTR _landing_en$[ebp]
  00581	52		 push	 edx
  00582	69 85 fc fe ff
	ff 5c 04 00 00	 imul	 eax, DWORD PTR tv259[ebp], 1116
  0058c	8b 8d f8 fe ff
	ff		 mov	 ecx, DWORD PTR tv267[ebp]
  00592	8b 94 88 00 00
	00 00		 mov	 edx, DWORD PTR ?fn_get_local_entity_int_value@@3PAY0BBH@P6GHPAUENTITY@@W4INT_TYPES@@@ZA[eax+ecx*4]
  00599	ff d2		 call	 edx
  0059b	8b f0		 mov	 esi, eax
  0059d	6a 74		 push	 116			; 00000074H
  0059f	8b 85 40 ff ff
	ff		 mov	 eax, DWORD PTR _landing_en$[ebp]
  005a5	50		 push	 eax
  005a6	69 8d f4 fe ff
	ff 5c 04 00 00	 imul	 ecx, DWORD PTR tv280[ebp], 1116
  005b0	8b 95 f0 fe ff
	ff		 mov	 edx, DWORD PTR tv288[ebp]
  005b6	8b 84 91 00 00
	00 00		 mov	 eax, DWORD PTR ?fn_get_local_entity_int_value@@3PAY0BBH@P6GHPAUENTITY@@W4INT_TYPES@@@ZA[ecx+edx*4]
  005bd	ff d0		 call	 eax
  005bf	50		 push	 eax
  005c0	e8 00 00 00 00	 call	 ?int_bit_count@@YGHI@Z	; int_bit_count
  005c5	2b f0		 sub	 esi, eax
  005c7	89 75 90	 mov	 DWORD PTR _free_sites$[ebp], esi

; 847  : 
; 848  : 		ASSERT (free_sites >= 0);

  005ca	79 18		 jns	 SHORT $LN19@create_lan
  005cc	a1 00 00 00 00	 mov	 eax, DWORD PTR ?__LINE__Var@?0??create_landing_faction_members@@YGPAUENTITY@@PAU2@HHH0PAUVEC3D@@@Z@4JA
  005d1	83 c0 53	 add	 eax, 83			; 00000053H
  005d4	50		 push	 eax
  005d5	68 00 00 00 00	 push	 OFFSET ??_C@_0EB@JEOGKGCM@c?3?2users?2nhv90?2projects?2eech?2ap@
  005da	68 00 00 00 00	 push	 OFFSET ??_C@_0BA@NMACMIMG@free_sites?5?$DO?$DN?50@
  005df	e8 00 00 00 00	 call	 ?process_assert@@YGXPBD0H@Z ; process_assert
$LN19@create_lan:

; 849  : 
; 850  : 		if ((number > 0) && ((free_sites - get_local_entity_int_value (landing_en, INT_TYPE_RESERVED_LANDING_SITES)) > 0))

  005e4	83 7d 14 00	 cmp	 DWORD PTR _number$[ebp], 0
  005e8	0f 8e e8 0d 00
	00		 jle	 $LN20@create_lan
  005ee	83 bd 40 ff ff
	ff 00		 cmp	 DWORD PTR _landing_en$[ebp], 0
  005f5	74 10		 je	 SHORT $LN59@create_lan
  005f7	8b 85 40 ff ff
	ff		 mov	 eax, DWORD PTR _landing_en$[ebp]
  005fd	8b 08		 mov	 ecx, DWORD PTR [eax]
  005ff	89 8d fc fe ff
	ff		 mov	 DWORD PTR tv307[ebp], ecx
  00605	eb 20		 jmp	 SHORT $LN60@create_lan
$LN59@create_lan:
  00607	68 52 03 00 00	 push	 850			; 00000352H
  0060c	68 00 00 00 00	 push	 OFFSET ??_C@_0EB@JEOGKGCM@c?3?2users?2nhv90?2projects?2eech?2ap@
  00611	8b 15 00 00 00
	00		 mov	 edx, DWORD PTR ?null_entity_pointer_message@@3PBDB ; null_entity_pointer_message
  00617	52		 push	 edx
  00618	e8 00 00 00 00	 call	 ?process_assert@@YGXPBD0H@Z ; process_assert
  0061d	c7 85 fc fe ff
	ff 00 00 00 00	 mov	 DWORD PTR tv307[ebp], 0
$LN60@create_lan:
  00627	b8 01 00 00 00	 mov	 eax, 1
  0062c	85 c0		 test	 eax, eax
  0062e	74 0c		 je	 SHORT $LN61@create_lan
  00630	c7 85 f8 fe ff
	ff af 00 00 00	 mov	 DWORD PTR tv314[ebp], 175 ; 000000afH
  0063a	eb 20		 jmp	 SHORT $LN62@create_lan
$LN61@create_lan:
  0063c	68 52 03 00 00	 push	 850			; 00000352H
  00641	68 00 00 00 00	 push	 OFFSET ??_C@_0EB@JEOGKGCM@c?3?2users?2nhv90?2projects?2eech?2ap@
  00646	8b 0d 00 00 00
	00		 mov	 ecx, DWORD PTR ?overload_invalid_int_type_message@@3PBDB ; overload_invalid_int_type_message
  0064c	51		 push	 ecx
  0064d	e8 00 00 00 00	 call	 ?process_assert@@YGXPBD0H@Z ; process_assert
  00652	c7 85 f8 fe ff
	ff 00 00 00 00	 mov	 DWORD PTR tv314[ebp], 0
$LN62@create_lan:
  0065c	68 af 00 00 00	 push	 175			; 000000afH
  00661	8b 95 40 ff ff
	ff		 mov	 edx, DWORD PTR _landing_en$[ebp]
  00667	52		 push	 edx
  00668	69 85 fc fe ff
	ff 5c 04 00 00	 imul	 eax, DWORD PTR tv307[ebp], 1116
  00672	8b 8d f8 fe ff
	ff		 mov	 ecx, DWORD PTR tv314[ebp]
  00678	8b 94 88 00 00
	00 00		 mov	 edx, DWORD PTR ?fn_get_local_entity_int_value@@3PAY0BBH@P6GHPAUENTITY@@W4INT_TYPES@@@ZA[eax+ecx*4]
  0067f	ff d2		 call	 edx
  00681	8b 4d 90	 mov	 ecx, DWORD PTR _free_sites$[ebp]
  00684	2b c8		 sub	 ecx, eax
  00686	85 c9		 test	 ecx, ecx
  00688	0f 8e 48 0d 00
	00		 jle	 $LN20@create_lan

; 851  : 		 //&& (get_local_entity_int_value (landing_en, INT_TYPE_FREE_LANDING_SITES) > get_local_entity_int_value (landing_en, INT_TYPE_RESERVED_LANDING_SITES)))
; 852  : 		{
; 853  : 
; 854  : 			//
; 855  : 			// quick check to see if any members will fit (landing / reserved / landed)
; 856  : 			//
; 857  : 
; 858  : 			formation_position = 0;

  0068e	c7 45 84 00 00
	00 00		 mov	 DWORD PTR _formation_position$[ebp], 0

; 859  : 
; 860  : 			formation_test = (1 << formation_position);

  00695	b8 01 00 00 00	 mov	 eax, 1
  0069a	8b 4d 84	 mov	 ecx, DWORD PTR _formation_position$[ebp]
  0069d	d3 e0		 shl	 eax, cl
  0069f	89 45 88	 mov	 DWORD PTR _formation_test$[ebp], eax
$LN4@create_lan:

; 861  : 
; 862  : 			while ((formation_test & (get_local_entity_int_value (landing_en, INT_TYPE_LANDED_LOCK))) ||

  006a2	83 bd 40 ff ff
	ff 00		 cmp	 DWORD PTR _landing_en$[ebp], 0
  006a9	74 10		 je	 SHORT $LN63@create_lan
  006ab	8b 85 40 ff ff
	ff		 mov	 eax, DWORD PTR _landing_en$[ebp]
  006b1	8b 08		 mov	 ecx, DWORD PTR [eax]
  006b3	89 8d fc fe ff
	ff		 mov	 DWORD PTR tv329[ebp], ecx
  006b9	eb 24		 jmp	 SHORT $LN64@create_lan
$LN63@create_lan:
  006bb	8b 15 00 00 00
	00		 mov	 edx, DWORD PTR ?__LINE__Var@?0??create_landing_faction_members@@YGPAUENTITY@@PAU2@HHH0PAUVEC3D@@@Z@4JA
  006c1	83 c2 61	 add	 edx, 97			; 00000061H
  006c4	52		 push	 edx
  006c5	68 00 00 00 00	 push	 OFFSET ??_C@_0EB@JEOGKGCM@c?3?2users?2nhv90?2projects?2eech?2ap@
  006ca	a1 00 00 00 00	 mov	 eax, DWORD PTR ?null_entity_pointer_message@@3PBDB ; null_entity_pointer_message
  006cf	50		 push	 eax
  006d0	e8 00 00 00 00	 call	 ?process_assert@@YGXPBD0H@Z ; process_assert
  006d5	c7 85 fc fe ff
	ff 00 00 00 00	 mov	 DWORD PTR tv329[ebp], 0
$LN64@create_lan:
  006df	b9 01 00 00 00	 mov	 ecx, 1
  006e4	85 c9		 test	 ecx, ecx
  006e6	74 0c		 je	 SHORT $LN65@create_lan
  006e8	c7 85 f8 fe ff
	ff 74 00 00 00	 mov	 DWORD PTR tv337[ebp], 116 ; 00000074H
  006f2	eb 24		 jmp	 SHORT $LN66@create_lan
$LN65@create_lan:
  006f4	8b 15 00 00 00
	00		 mov	 edx, DWORD PTR ?__LINE__Var@?0??create_landing_faction_members@@YGPAUENTITY@@PAU2@HHH0PAUVEC3D@@@Z@4JA
  006fa	83 c2 61	 add	 edx, 97			; 00000061H
  006fd	52		 push	 edx
  006fe	68 00 00 00 00	 push	 OFFSET ??_C@_0EB@JEOGKGCM@c?3?2users?2nhv90?2projects?2eech?2ap@
  00703	a1 00 00 00 00	 mov	 eax, DWORD PTR ?overload_invalid_int_type_message@@3PBDB ; overload_invalid_int_type_message
  00708	50		 push	 eax
  00709	e8 00 00 00 00	 call	 ?process_assert@@YGXPBD0H@Z ; process_assert
  0070e	c7 85 f8 fe ff
	ff 00 00 00 00	 mov	 DWORD PTR tv337[ebp], 0
$LN66@create_lan:
  00718	6a 74		 push	 116			; 00000074H
  0071a	8b 8d 40 ff ff
	ff		 mov	 ecx, DWORD PTR _landing_en$[ebp]
  00720	51		 push	 ecx
  00721	69 95 fc fe ff
	ff 5c 04 00 00	 imul	 edx, DWORD PTR tv329[ebp], 1116
  0072b	8b 85 f8 fe ff
	ff		 mov	 eax, DWORD PTR tv337[ebp]
  00731	8b 8c 82 00 00
	00 00		 mov	 ecx, DWORD PTR ?fn_get_local_entity_int_value@@3PAY0BBH@P6GHPAUENTITY@@W4INT_TYPES@@@ZA[edx+eax*4]
  00738	ff d1		 call	 ecx
  0073a	23 45 88	 and	 eax, DWORD PTR _formation_test$[ebp]
  0073d	0f 85 b0 00 00
	00		 jne	 $LN22@create_lan
  00743	83 bd 40 ff ff
	ff 00		 cmp	 DWORD PTR _landing_en$[ebp], 0
  0074a	74 10		 je	 SHORT $LN67@create_lan
  0074c	8b 85 40 ff ff
	ff		 mov	 eax, DWORD PTR _landing_en$[ebp]
  00752	8b 08		 mov	 ecx, DWORD PTR [eax]
  00754	89 8d fc fe ff
	ff		 mov	 DWORD PTR tv353[ebp], ecx
  0075a	eb 24		 jmp	 SHORT $LN68@create_lan
$LN67@create_lan:
  0075c	8b 15 00 00 00
	00		 mov	 edx, DWORD PTR ?__LINE__Var@?0??create_landing_faction_members@@YGPAUENTITY@@PAU2@HHH0PAUVEC3D@@@Z@4JA
  00762	83 c2 62	 add	 edx, 98			; 00000062H
  00765	52		 push	 edx
  00766	68 00 00 00 00	 push	 OFFSET ??_C@_0EB@JEOGKGCM@c?3?2users?2nhv90?2projects?2eech?2ap@
  0076b	a1 00 00 00 00	 mov	 eax, DWORD PTR ?null_entity_pointer_message@@3PBDB ; null_entity_pointer_message
  00770	50		 push	 eax
  00771	e8 00 00 00 00	 call	 ?process_assert@@YGXPBD0H@Z ; process_assert
  00776	c7 85 fc fe ff
	ff 00 00 00 00	 mov	 DWORD PTR tv353[ebp], 0
$LN68@create_lan:
  00780	b9 01 00 00 00	 mov	 ecx, 1
  00785	85 c9		 test	 ecx, ecx
  00787	74 0c		 je	 SHORT $LN69@create_lan
  00789	c7 85 f8 fe ff
	ff 76 00 00 00	 mov	 DWORD PTR tv361[ebp], 118 ; 00000076H
  00793	eb 24		 jmp	 SHORT $LN70@create_lan
$LN69@create_lan:
  00795	8b 15 00 00 00
	00		 mov	 edx, DWORD PTR ?__LINE__Var@?0??create_landing_faction_members@@YGPAUENTITY@@PAU2@HHH0PAUVEC3D@@@Z@4JA
  0079b	83 c2 62	 add	 edx, 98			; 00000062H
  0079e	52		 push	 edx
  0079f	68 00 00 00 00	 push	 OFFSET ??_C@_0EB@JEOGKGCM@c?3?2users?2nhv90?2projects?2eech?2ap@
  007a4	a1 00 00 00 00	 mov	 eax, DWORD PTR ?overload_invalid_int_type_message@@3PBDB ; overload_invalid_int_type_message
  007a9	50		 push	 eax
  007aa	e8 00 00 00 00	 call	 ?process_assert@@YGXPBD0H@Z ; process_assert
  007af	c7 85 f8 fe ff
	ff 00 00 00 00	 mov	 DWORD PTR tv361[ebp], 0
$LN70@create_lan:
  007b9	8b 45 84	 mov	 eax, DWORD PTR _formation_position$[ebp]
  007bc	99		 cdq
  007bd	f7 7d 8c	 idiv	 DWORD PTR _landing_formation$[ebp]
  007c0	be 01 00 00 00	 mov	 esi, 1
  007c5	8b ca		 mov	 ecx, edx
  007c7	d3 e6		 shl	 esi, cl
  007c9	6a 76		 push	 118			; 00000076H
  007cb	8b 8d 40 ff ff
	ff		 mov	 ecx, DWORD PTR _landing_en$[ebp]
  007d1	51		 push	 ecx
  007d2	69 95 fc fe ff
	ff 5c 04 00 00	 imul	 edx, DWORD PTR tv353[ebp], 1116
  007dc	8b 85 f8 fe ff
	ff		 mov	 eax, DWORD PTR tv361[ebp]
  007e2	8b 8c 82 00 00
	00 00		 mov	 ecx, DWORD PTR ?fn_get_local_entity_int_value@@3PAY0BBH@P6GHPAUENTITY@@W4INT_TYPES@@@ZA[edx+eax*4]
  007e9	ff d1		 call	 ecx
  007eb	23 f0		 and	 esi, eax
  007ed	0f 84 ba 00 00
	00		 je	 $LN5@create_lan
$LN22@create_lan:

; 863  : 					((1 << (formation_position % landing_formation)) & (get_local_entity_int_value (landing_en, INT_TYPE_LANDING_LOCK))))
; 864  : 			{
; 865  : 
; 866  : 				formation_position ++;

  007f3	8b 45 84	 mov	 eax, DWORD PTR _formation_position$[ebp]
  007f6	83 c0 01	 add	 eax, 1
  007f9	89 45 84	 mov	 DWORD PTR _formation_position$[ebp], eax

; 867  : 
; 868  : 				formation_test = (1 << formation_position);

  007fc	b8 01 00 00 00	 mov	 eax, 1
  00801	8b 4d 84	 mov	 ecx, DWORD PTR _formation_position$[ebp]
  00804	d3 e0		 shl	 eax, cl
  00806	89 45 88	 mov	 DWORD PTR _formation_test$[ebp], eax

; 869  : 
; 870  : 				if (formation_position >= get_local_entity_int_value (landing_en, INT_TYPE_TOTAL_LANDING_SITES))

  00809	83 bd 40 ff ff
	ff 00		 cmp	 DWORD PTR _landing_en$[ebp], 0
  00810	74 10		 je	 SHORT $LN71@create_lan
  00812	8b 85 40 ff ff
	ff		 mov	 eax, DWORD PTR _landing_en$[ebp]
  00818	8b 08		 mov	 ecx, DWORD PTR [eax]
  0081a	89 8d fc fe ff
	ff		 mov	 DWORD PTR tv376[ebp], ecx
  00820	eb 20		 jmp	 SHORT $LN72@create_lan
$LN71@create_lan:
  00822	68 66 03 00 00	 push	 870			; 00000366H
  00827	68 00 00 00 00	 push	 OFFSET ??_C@_0EB@JEOGKGCM@c?3?2users?2nhv90?2projects?2eech?2ap@
  0082c	8b 15 00 00 00
	00		 mov	 edx, DWORD PTR ?null_entity_pointer_message@@3PBDB ; null_entity_pointer_message
  00832	52		 push	 edx
  00833	e8 00 00 00 00	 call	 ?process_assert@@YGXPBD0H@Z ; process_assert
  00838	c7 85 fc fe ff
	ff 00 00 00 00	 mov	 DWORD PTR tv376[ebp], 0
$LN72@create_lan:
  00842	b8 01 00 00 00	 mov	 eax, 1
  00847	85 c0		 test	 eax, eax
  00849	74 0c		 je	 SHORT $LN73@create_lan
  0084b	c7 85 f8 fe ff
	ff eb 00 00 00	 mov	 DWORD PTR tv383[ebp], 235 ; 000000ebH
  00855	eb 20		 jmp	 SHORT $LN74@create_lan
$LN73@create_lan:
  00857	68 66 03 00 00	 push	 870			; 00000366H
  0085c	68 00 00 00 00	 push	 OFFSET ??_C@_0EB@JEOGKGCM@c?3?2users?2nhv90?2projects?2eech?2ap@
  00861	8b 0d 00 00 00
	00		 mov	 ecx, DWORD PTR ?overload_invalid_int_type_message@@3PBDB ; overload_invalid_int_type_message
  00867	51		 push	 ecx
  00868	e8 00 00 00 00	 call	 ?process_assert@@YGXPBD0H@Z ; process_assert
  0086d	c7 85 f8 fe ff
	ff 00 00 00 00	 mov	 DWORD PTR tv383[ebp], 0
$LN74@create_lan:
  00877	68 eb 00 00 00	 push	 235			; 000000ebH
  0087c	8b 95 40 ff ff
	ff		 mov	 edx, DWORD PTR _landing_en$[ebp]
  00882	52		 push	 edx
  00883	69 85 fc fe ff
	ff 5c 04 00 00	 imul	 eax, DWORD PTR tv376[ebp], 1116
  0088d	8b 8d f8 fe ff
	ff		 mov	 ecx, DWORD PTR tv383[ebp]
  00893	8b 94 88 00 00
	00 00		 mov	 edx, DWORD PTR ?fn_get_local_entity_int_value@@3PAY0BBH@P6GHPAUENTITY@@W4INT_TYPES@@@ZA[eax+ecx*4]
  0089a	ff d2		 call	 edx
  0089c	39 45 84	 cmp	 DWORD PTR _formation_position$[ebp], eax
  0089f	7c 07		 jl	 SHORT $LN23@create_lan

; 871  : 				{
; 872  : 
; 873  : 					#if DEBUG_MODULE
; 874  : 
; 875  : 					debug_log ("FACTION: creation failed... can't lock landing/landed site");
; 876  : 	
; 877  : 					#endif
; 878  :   			
; 879  : 					return NULL;

  008a1	33 c0		 xor	 eax, eax
  008a3	e9 30 0b 00 00	 jmp	 $LN1@create_lan
$LN23@create_lan:

; 880  : 				}
; 881  : 			}

  008a8	e9 f5 fd ff ff	 jmp	 $LN4@create_lan
$LN5@create_lan:

; 882  : 
; 883  : 			//
; 884  : 			// create group
; 885  : 			//
; 886  : 
; 887  : 			group = create_client_server_entity

  008ad	83 7d 08 00	 cmp	 DWORD PTR _keysite$[ebp], 0
  008b1	74 0d		 je	 SHORT $LN75@create_lan
  008b3	8b 45 08	 mov	 eax, DWORD PTR _keysite$[ebp]
  008b6	8b 08		 mov	 ecx, DWORD PTR [eax]
  008b8	89 8d fc fe ff
	ff		 mov	 DWORD PTR tv398[ebp], ecx
  008be	eb 27		 jmp	 SHORT $LN76@create_lan
$LN75@create_lan:
  008c0	8b 15 00 00 00
	00		 mov	 edx, DWORD PTR ?__LINE__Var@?0??create_landing_faction_members@@YGPAUENTITY@@PAU2@HHH0PAUVEC3D@@@Z@4JA
  008c6	81 c2 81 00 00
	00		 add	 edx, 129		; 00000081H
  008cc	52		 push	 edx
  008cd	68 00 00 00 00	 push	 OFFSET ??_C@_0EB@JEOGKGCM@c?3?2users?2nhv90?2projects?2eech?2ap@
  008d2	a1 00 00 00 00	 mov	 eax, DWORD PTR ?null_entity_pointer_message@@3PBDB ; null_entity_pointer_message
  008d7	50		 push	 eax
  008d8	e8 00 00 00 00	 call	 ?process_assert@@YGXPBD0H@Z ; process_assert
  008dd	c7 85 fc fe ff
	ff 00 00 00 00	 mov	 DWORD PTR tv398[ebp], 0
$LN76@create_lan:
  008e7	b9 01 00 00 00	 mov	 ecx, 1
  008ec	85 c9		 test	 ecx, ecx
  008ee	74 0c		 je	 SHORT $LN77@create_lan
  008f0	c7 85 f8 fe ff
	ff bb 00 00 00	 mov	 DWORD PTR tv406[ebp], 187 ; 000000bbH
  008fa	eb 27		 jmp	 SHORT $LN78@create_lan
$LN77@create_lan:
  008fc	8b 15 00 00 00
	00		 mov	 edx, DWORD PTR ?__LINE__Var@?0??create_landing_faction_members@@YGPAUENTITY@@PAU2@HHH0PAUVEC3D@@@Z@4JA
  00902	81 c2 81 00 00
	00		 add	 edx, 129		; 00000081H
  00908	52		 push	 edx
  00909	68 00 00 00 00	 push	 OFFSET ??_C@_0EB@JEOGKGCM@c?3?2users?2nhv90?2projects?2eech?2ap@
  0090e	a1 00 00 00 00	 mov	 eax, DWORD PTR ?overload_invalid_int_type_message@@3PBDB ; overload_invalid_int_type_message
  00913	50		 push	 eax
  00914	e8 00 00 00 00	 call	 ?process_assert@@YGXPBD0H@Z ; process_assert
  00919	c7 85 f8 fe ff
	ff 00 00 00 00	 mov	 DWORD PTR tv406[ebp], 0
$LN78@create_lan:
  00923	6a 00		 push	 0
  00925	68 bb 00 00 00	 push	 187			; 000000bbH
  0092a	8b 4d 08	 mov	 ecx, DWORD PTR _keysite$[ebp]
  0092d	51		 push	 ecx
  0092e	69 95 fc fe ff
	ff 5c 04 00 00	 imul	 edx, DWORD PTR tv398[ebp], 1116
  00938	8b 85 f8 fe ff
	ff		 mov	 eax, DWORD PTR tv406[ebp]
  0093e	8b 8c 82 00 00
	00 00		 mov	 ecx, DWORD PTR ?fn_get_local_entity_int_value@@3PAY0BBH@P6GHPAUENTITY@@W4INT_TYPES@@@ZA[edx+eax*4]
  00945	ff d1		 call	 ecx
  00947	50		 push	 eax
  00948	68 bb 00 00 00	 push	 187			; 000000bbH
  0094d	6a 05		 push	 5
  0094f	8b 55 10	 mov	 edx, DWORD PTR _group_type$[ebp]
  00952	52		 push	 edx
  00953	6a 34		 push	 52			; 00000034H
  00955	6a 05		 push	 5
  00957	8b 45 1c	 mov	 eax, DWORD PTR _start_position$[ebp]
  0095a	f3 0f 10 40 08	 movss	 xmm0, DWORD PTR [eax+8]
  0095f	f3 0f 5a c0	 cvtss2sd xmm0, xmm0
  00963	83 ec 08	 sub	 esp, 8
  00966	f2 0f 11 04 24	 movsd	 QWORD PTR [esp], xmm0
  0096b	8b 4d 1c	 mov	 ecx, DWORD PTR _start_position$[ebp]
  0096e	f3 0f 10 41 04	 movss	 xmm0, DWORD PTR [ecx+4]
  00973	f3 0f 5a c0	 cvtss2sd xmm0, xmm0
  00977	83 ec 08	 sub	 esp, 8
  0097a	f2 0f 11 04 24	 movsd	 QWORD PTR [esp], xmm0
  0097f	8b 55 1c	 mov	 edx, DWORD PTR _start_position$[ebp]
  00982	f3 0f 10 02	 movss	 xmm0, DWORD PTR [edx]
  00986	f3 0f 5a c0	 cvtss2sd xmm0, xmm0
  0098a	83 ec 08	 sub	 esp, 8
  0098d	f2 0f 11 04 24	 movsd	 QWORD PTR [esp], xmm0
  00992	6a 08		 push	 8
  00994	6a 09		 push	 9
  00996	8b 45 08	 mov	 eax, DWORD PTR _keysite$[ebp]
  00999	50		 push	 eax
  0099a	6a 16		 push	 22			; 00000016H
  0099c	6a 06		 push	 6
  0099e	6a ff		 push	 -1
  009a0	6a 0c		 push	 12			; 0000000cH
  009a2	e8 00 00 00 00	 call	 ?create_client_server_entity@@YAPAUENTITY@@W4ENTITY_TYPES@@HZZ ; create_client_server_entity
  009a7	83 c4 50	 add	 esp, 80			; 00000050H
  009aa	89 85 48 ff ff
	ff		 mov	 DWORD PTR _group$[ebp], eax

; 888  : 			(
; 889  : 				ENTITY_TYPE_GROUP,
; 890  : 				ENTITY_INDEX_DONT_CARE,
; 891  : 				ENTITY_ATTR_PARENT (LIST_TYPE_KEYSITE_GROUP, keysite),
; 892  : 				ENTITY_ATTR_VEC3D (VEC3D_TYPE_POSITION, start_position->x, start_position->y, start_position->z),
; 893  : 				ENTITY_ATTR_INT_VALUE (INT_TYPE_ENTITY_SUB_TYPE, group_type),
; 894  : 				ENTITY_ATTR_INT_VALUE (INT_TYPE_SIDE, get_local_entity_int_value (keysite, INT_TYPE_SIDE)),
; 895  : 				ENTITY_ATTR_END
; 896  : 			);
; 897  : 
; 898  : 			//
; 899  : 			// create members
; 900  : 			//
; 901  : 
; 902  : 			for (loop = 0; loop < number; loop++)

  009b0	c7 45 80 00 00
	00 00		 mov	 DWORD PTR _loop$[ebp], 0
  009b7	eb 09		 jmp	 SHORT $LN8@create_lan
$LN6@create_lan:
  009b9	8b 45 80	 mov	 eax, DWORD PTR _loop$[ebp]
  009bc	83 c0 01	 add	 eax, 1
  009bf	89 45 80	 mov	 DWORD PTR _loop$[ebp], eax
$LN8@create_lan:
  009c2	8b 45 80	 mov	 eax, DWORD PTR _loop$[ebp]
  009c5	3b 45 14	 cmp	 eax, DWORD PTR _number$[ebp]
  009c8	0f 8d ef 07 00
	00		 jge	 $LN7@create_lan

; 903  : 			{
; 904  : 
; 905  : 				//
; 906  : 				// calculate formation position to suite landing entity
; 907  : 				//
; 908  : 
; 909  : 				formation_position = 0;

  009ce	c7 45 84 00 00
	00 00		 mov	 DWORD PTR _formation_position$[ebp], 0

; 910  : 
; 911  : 				formation_test = (1 << formation_position);

  009d5	b8 01 00 00 00	 mov	 eax, 1
  009da	8b 4d 84	 mov	 ecx, DWORD PTR _formation_position$[ebp]
  009dd	d3 e0		 shl	 eax, cl
  009df	89 45 88	 mov	 DWORD PTR _formation_test$[ebp], eax
$LN9@create_lan:

; 912  : 
; 913  : 				while ((formation_test & (get_local_entity_int_value (landing_en, INT_TYPE_LANDED_LOCK))) ||

  009e2	83 bd 40 ff ff
	ff 00		 cmp	 DWORD PTR _landing_en$[ebp], 0
  009e9	74 10		 je	 SHORT $LN79@create_lan
  009eb	8b 85 40 ff ff
	ff		 mov	 eax, DWORD PTR _landing_en$[ebp]
  009f1	8b 08		 mov	 ecx, DWORD PTR [eax]
  009f3	89 8d fc fe ff
	ff		 mov	 DWORD PTR tv449[ebp], ecx
  009f9	eb 27		 jmp	 SHORT $LN80@create_lan
$LN79@create_lan:
  009fb	8b 15 00 00 00
	00		 mov	 edx, DWORD PTR ?__LINE__Var@?0??create_landing_faction_members@@YGPAUENTITY@@PAU2@HHH0PAUVEC3D@@@Z@4JA
  00a01	81 c2 94 00 00
	00		 add	 edx, 148		; 00000094H
  00a07	52		 push	 edx
  00a08	68 00 00 00 00	 push	 OFFSET ??_C@_0EB@JEOGKGCM@c?3?2users?2nhv90?2projects?2eech?2ap@
  00a0d	a1 00 00 00 00	 mov	 eax, DWORD PTR ?null_entity_pointer_message@@3PBDB ; null_entity_pointer_message
  00a12	50		 push	 eax
  00a13	e8 00 00 00 00	 call	 ?process_assert@@YGXPBD0H@Z ; process_assert
  00a18	c7 85 fc fe ff
	ff 00 00 00 00	 mov	 DWORD PTR tv449[ebp], 0
$LN80@create_lan:
  00a22	b9 01 00 00 00	 mov	 ecx, 1
  00a27	85 c9		 test	 ecx, ecx
  00a29	74 0c		 je	 SHORT $LN81@create_lan
  00a2b	c7 85 f8 fe ff
	ff 74 00 00 00	 mov	 DWORD PTR tv457[ebp], 116 ; 00000074H
  00a35	eb 27		 jmp	 SHORT $LN82@create_lan
$LN81@create_lan:
  00a37	8b 15 00 00 00
	00		 mov	 edx, DWORD PTR ?__LINE__Var@?0??create_landing_faction_members@@YGPAUENTITY@@PAU2@HHH0PAUVEC3D@@@Z@4JA
  00a3d	81 c2 94 00 00
	00		 add	 edx, 148		; 00000094H
  00a43	52		 push	 edx
  00a44	68 00 00 00 00	 push	 OFFSET ??_C@_0EB@JEOGKGCM@c?3?2users?2nhv90?2projects?2eech?2ap@
  00a49	a1 00 00 00 00	 mov	 eax, DWORD PTR ?overload_invalid_int_type_message@@3PBDB ; overload_invalid_int_type_message
  00a4e	50		 push	 eax
  00a4f	e8 00 00 00 00	 call	 ?process_assert@@YGXPBD0H@Z ; process_assert
  00a54	c7 85 f8 fe ff
	ff 00 00 00 00	 mov	 DWORD PTR tv457[ebp], 0
$LN82@create_lan:
  00a5e	6a 74		 push	 116			; 00000074H
  00a60	8b 8d 40 ff ff
	ff		 mov	 ecx, DWORD PTR _landing_en$[ebp]
  00a66	51		 push	 ecx
  00a67	69 95 fc fe ff
	ff 5c 04 00 00	 imul	 edx, DWORD PTR tv449[ebp], 1116
  00a71	8b 85 f8 fe ff
	ff		 mov	 eax, DWORD PTR tv457[ebp]
  00a77	8b 8c 82 00 00
	00 00		 mov	 ecx, DWORD PTR ?fn_get_local_entity_int_value@@3PAY0BBH@P6GHPAUENTITY@@W4INT_TYPES@@@ZA[edx+eax*4]
  00a7e	ff d1		 call	 ecx
  00a80	23 45 88	 and	 eax, DWORD PTR _formation_test$[ebp]
  00a83	0f 85 b6 00 00
	00		 jne	 $LN24@create_lan
  00a89	83 bd 40 ff ff
	ff 00		 cmp	 DWORD PTR _landing_en$[ebp], 0
  00a90	74 10		 je	 SHORT $LN83@create_lan
  00a92	8b 85 40 ff ff
	ff		 mov	 eax, DWORD PTR _landing_en$[ebp]
  00a98	8b 08		 mov	 ecx, DWORD PTR [eax]
  00a9a	89 8d fc fe ff
	ff		 mov	 DWORD PTR tv473[ebp], ecx
  00aa0	eb 27		 jmp	 SHORT $LN84@create_lan
$LN83@create_lan:
  00aa2	8b 15 00 00 00
	00		 mov	 edx, DWORD PTR ?__LINE__Var@?0??create_landing_faction_members@@YGPAUENTITY@@PAU2@HHH0PAUVEC3D@@@Z@4JA
  00aa8	81 c2 95 00 00
	00		 add	 edx, 149		; 00000095H
  00aae	52		 push	 edx
  00aaf	68 00 00 00 00	 push	 OFFSET ??_C@_0EB@JEOGKGCM@c?3?2users?2nhv90?2projects?2eech?2ap@
  00ab4	a1 00 00 00 00	 mov	 eax, DWORD PTR ?null_entity_pointer_message@@3PBDB ; null_entity_pointer_message
  00ab9	50		 push	 eax
  00aba	e8 00 00 00 00	 call	 ?process_assert@@YGXPBD0H@Z ; process_assert
  00abf	c7 85 fc fe ff
	ff 00 00 00 00	 mov	 DWORD PTR tv473[ebp], 0
$LN84@create_lan:
  00ac9	b9 01 00 00 00	 mov	 ecx, 1
  00ace	85 c9		 test	 ecx, ecx
  00ad0	74 0c		 je	 SHORT $LN85@create_lan
  00ad2	c7 85 f8 fe ff
	ff 76 00 00 00	 mov	 DWORD PTR tv481[ebp], 118 ; 00000076H
  00adc	eb 27		 jmp	 SHORT $LN86@create_lan
$LN85@create_lan:
  00ade	8b 15 00 00 00
	00		 mov	 edx, DWORD PTR ?__LINE__Var@?0??create_landing_faction_members@@YGPAUENTITY@@PAU2@HHH0PAUVEC3D@@@Z@4JA
  00ae4	81 c2 95 00 00
	00		 add	 edx, 149		; 00000095H
  00aea	52		 push	 edx
  00aeb	68 00 00 00 00	 push	 OFFSET ??_C@_0EB@JEOGKGCM@c?3?2users?2nhv90?2projects?2eech?2ap@
  00af0	a1 00 00 00 00	 mov	 eax, DWORD PTR ?overload_invalid_int_type_message@@3PBDB ; overload_invalid_int_type_message
  00af5	50		 push	 eax
  00af6	e8 00 00 00 00	 call	 ?process_assert@@YGXPBD0H@Z ; process_assert
  00afb	c7 85 f8 fe ff
	ff 00 00 00 00	 mov	 DWORD PTR tv481[ebp], 0
$LN86@create_lan:
  00b05	8b 45 84	 mov	 eax, DWORD PTR _formation_position$[ebp]
  00b08	99		 cdq
  00b09	f7 7d 8c	 idiv	 DWORD PTR _landing_formation$[ebp]
  00b0c	be 01 00 00 00	 mov	 esi, 1
  00b11	8b ca		 mov	 ecx, edx
  00b13	d3 e6		 shl	 esi, cl
  00b15	6a 76		 push	 118			; 00000076H
  00b17	8b 8d 40 ff ff
	ff		 mov	 ecx, DWORD PTR _landing_en$[ebp]
  00b1d	51		 push	 ecx
  00b1e	69 95 fc fe ff
	ff 5c 04 00 00	 imul	 edx, DWORD PTR tv473[ebp], 1116
  00b28	8b 85 f8 fe ff
	ff		 mov	 eax, DWORD PTR tv481[ebp]
  00b2e	8b 8c 82 00 00
	00 00		 mov	 ecx, DWORD PTR ?fn_get_local_entity_int_value@@3PAY0BBH@P6GHPAUENTITY@@W4INT_TYPES@@@ZA[edx+eax*4]
  00b35	ff d1		 call	 ecx
  00b37	23 f0		 and	 esi, eax
  00b39	0f 84 ba 00 00
	00		 je	 $LN10@create_lan
$LN24@create_lan:

; 914  : 						((1 << (formation_position % landing_formation)) & (get_local_entity_int_value (landing_en, INT_TYPE_LANDING_LOCK))))
; 915  : 				{
; 916  : 
; 917  : 					formation_position ++;

  00b3f	8b 45 84	 mov	 eax, DWORD PTR _formation_position$[ebp]
  00b42	83 c0 01	 add	 eax, 1
  00b45	89 45 84	 mov	 DWORD PTR _formation_position$[ebp], eax

; 918  : 	
; 919  : 					formation_test = (1 << formation_position);

  00b48	b8 01 00 00 00	 mov	 eax, 1
  00b4d	8b 4d 84	 mov	 ecx, DWORD PTR _formation_position$[ebp]
  00b50	d3 e0		 shl	 eax, cl
  00b52	89 45 88	 mov	 DWORD PTR _formation_test$[ebp], eax

; 920  : 	
; 921  : 					if (formation_position >= get_local_entity_int_value (landing_en, INT_TYPE_TOTAL_LANDING_SITES))

  00b55	83 bd 40 ff ff
	ff 00		 cmp	 DWORD PTR _landing_en$[ebp], 0
  00b5c	74 10		 je	 SHORT $LN87@create_lan
  00b5e	8b 85 40 ff ff
	ff		 mov	 eax, DWORD PTR _landing_en$[ebp]
  00b64	8b 08		 mov	 ecx, DWORD PTR [eax]
  00b66	89 8d fc fe ff
	ff		 mov	 DWORD PTR tv496[ebp], ecx
  00b6c	eb 20		 jmp	 SHORT $LN88@create_lan
$LN87@create_lan:
  00b6e	68 99 03 00 00	 push	 921			; 00000399H
  00b73	68 00 00 00 00	 push	 OFFSET ??_C@_0EB@JEOGKGCM@c?3?2users?2nhv90?2projects?2eech?2ap@
  00b78	8b 15 00 00 00
	00		 mov	 edx, DWORD PTR ?null_entity_pointer_message@@3PBDB ; null_entity_pointer_message
  00b7e	52		 push	 edx
  00b7f	e8 00 00 00 00	 call	 ?process_assert@@YGXPBD0H@Z ; process_assert
  00b84	c7 85 fc fe ff
	ff 00 00 00 00	 mov	 DWORD PTR tv496[ebp], 0
$LN88@create_lan:
  00b8e	b8 01 00 00 00	 mov	 eax, 1
  00b93	85 c0		 test	 eax, eax
  00b95	74 0c		 je	 SHORT $LN89@create_lan
  00b97	c7 85 f8 fe ff
	ff eb 00 00 00	 mov	 DWORD PTR tv503[ebp], 235 ; 000000ebH
  00ba1	eb 20		 jmp	 SHORT $LN90@create_lan
$LN89@create_lan:
  00ba3	68 99 03 00 00	 push	 921			; 00000399H
  00ba8	68 00 00 00 00	 push	 OFFSET ??_C@_0EB@JEOGKGCM@c?3?2users?2nhv90?2projects?2eech?2ap@
  00bad	8b 0d 00 00 00
	00		 mov	 ecx, DWORD PTR ?overload_invalid_int_type_message@@3PBDB ; overload_invalid_int_type_message
  00bb3	51		 push	 ecx
  00bb4	e8 00 00 00 00	 call	 ?process_assert@@YGXPBD0H@Z ; process_assert
  00bb9	c7 85 f8 fe ff
	ff 00 00 00 00	 mov	 DWORD PTR tv503[ebp], 0
$LN90@create_lan:
  00bc3	68 eb 00 00 00	 push	 235			; 000000ebH
  00bc8	8b 95 40 ff ff
	ff		 mov	 edx, DWORD PTR _landing_en$[ebp]
  00bce	52		 push	 edx
  00bcf	69 85 fc fe ff
	ff 5c 04 00 00	 imul	 eax, DWORD PTR tv496[ebp], 1116
  00bd9	8b 8d f8 fe ff
	ff		 mov	 ecx, DWORD PTR tv503[ebp]
  00bdf	8b 94 88 00 00
	00 00		 mov	 edx, DWORD PTR ?fn_get_local_entity_int_value@@3PAY0BBH@P6GHPAUENTITY@@W4INT_TYPES@@@ZA[eax+ecx*4]
  00be6	ff d2		 call	 edx
  00be8	39 45 84	 cmp	 DWORD PTR _formation_position$[ebp], eax
  00beb	7c 07		 jl	 SHORT $LN25@create_lan

; 922  : 					{
; 923  : 		
; 924  : 						return NULL;

  00bed	33 c0		 xor	 eax, eax
  00bef	e9 e4 07 00 00	 jmp	 $LN1@create_lan
$LN25@create_lan:

; 925  : 					}
; 926  : 				}

  00bf4	e9 e9 fd ff ff	 jmp	 $LN9@create_lan
$LN10@create_lan:

; 927  : 
; 928  : 				#if DEBUG_MODULE
; 929  : 
; 930  : 				debug_log ("FACTION: placing member type %d side %s formation pos %d at %f, %f, %f", member_type, entity_side_names [get_local_entity_int_value (keysite, INT_TYPE_SIDE)], formation_position, start_position->x, start_position->y, start_position->z);
; 931  : 
; 932  : 				#endif
; 933  : 
; 934  : 				member = create_mobile_member

  00bf9	83 7d 08 00	 cmp	 DWORD PTR _keysite$[ebp], 0
  00bfd	74 0d		 je	 SHORT $LN91@create_lan
  00bff	8b 45 08	 mov	 eax, DWORD PTR _keysite$[ebp]
  00c02	8b 08		 mov	 ecx, DWORD PTR [eax]
  00c04	89 8d fc fe ff
	ff		 mov	 DWORD PTR tv518[ebp], ecx
  00c0a	eb 27		 jmp	 SHORT $LN92@create_lan
$LN91@create_lan:
  00c0c	8b 15 00 00 00
	00		 mov	 edx, DWORD PTR ?__LINE__Var@?0??create_landing_faction_members@@YGPAUENTITY@@PAU2@HHH0PAUVEC3D@@@Z@4JA
  00c12	81 c2 b3 00 00
	00		 add	 edx, 179		; 000000b3H
  00c18	52		 push	 edx
  00c19	68 00 00 00 00	 push	 OFFSET ??_C@_0EB@JEOGKGCM@c?3?2users?2nhv90?2projects?2eech?2ap@
  00c1e	a1 00 00 00 00	 mov	 eax, DWORD PTR ?null_entity_pointer_message@@3PBDB ; null_entity_pointer_message
  00c23	50		 push	 eax
  00c24	e8 00 00 00 00	 call	 ?process_assert@@YGXPBD0H@Z ; process_assert
  00c29	c7 85 fc fe ff
	ff 00 00 00 00	 mov	 DWORD PTR tv518[ebp], 0
$LN92@create_lan:
  00c33	b9 01 00 00 00	 mov	 ecx, 1
  00c38	85 c9		 test	 ecx, ecx
  00c3a	74 0c		 je	 SHORT $LN93@create_lan
  00c3c	c7 85 f8 fe ff
	ff bb 00 00 00	 mov	 DWORD PTR tv526[ebp], 187 ; 000000bbH
  00c46	eb 27		 jmp	 SHORT $LN94@create_lan
$LN93@create_lan:
  00c48	8b 15 00 00 00
	00		 mov	 edx, DWORD PTR ?__LINE__Var@?0??create_landing_faction_members@@YGPAUENTITY@@PAU2@HHH0PAUVEC3D@@@Z@4JA
  00c4e	81 c2 b3 00 00
	00		 add	 edx, 179		; 000000b3H
  00c54	52		 push	 edx
  00c55	68 00 00 00 00	 push	 OFFSET ??_C@_0EB@JEOGKGCM@c?3?2users?2nhv90?2projects?2eech?2ap@
  00c5a	a1 00 00 00 00	 mov	 eax, DWORD PTR ?overload_invalid_int_type_message@@3PBDB ; overload_invalid_int_type_message
  00c5f	50		 push	 eax
  00c60	e8 00 00 00 00	 call	 ?process_assert@@YGXPBD0H@Z ; process_assert
  00c65	c7 85 f8 fe ff
	ff 00 00 00 00	 mov	 DWORD PTR tv526[ebp], 0
$LN94@create_lan:
  00c6f	51		 push	 ecx
  00c70	f3 0f 10 05 00
	00 00 00	 movss	 xmm0, DWORD PTR __real@40000000
  00c78	f3 0f 11 04 24	 movss	 DWORD PTR [esp], xmm0
  00c7d	68 bb 00 00 00	 push	 187			; 000000bbH
  00c82	8b 4d 08	 mov	 ecx, DWORD PTR _keysite$[ebp]
  00c85	51		 push	 ecx
  00c86	69 95 fc fe ff
	ff 5c 04 00 00	 imul	 edx, DWORD PTR tv518[ebp], 1116
  00c90	8b 85 f8 fe ff
	ff		 mov	 eax, DWORD PTR tv526[ebp]
  00c96	8b 8c 82 00 00
	00 00		 mov	 ecx, DWORD PTR ?fn_get_local_entity_int_value@@3PAY0BBH@P6GHPAUENTITY@@W4INT_TYPES@@@ZA[edx+eax*4]
  00c9d	ff d1		 call	 ecx
  00c9f	50		 push	 eax
  00ca0	6a 0b		 push	 11			; 0000000bH
  00ca2	8b 55 84	 mov	 edx, DWORD PTR _formation_position$[ebp]
  00ca5	52		 push	 edx
  00ca6	8b 45 0c	 mov	 eax, DWORD PTR _member_type$[ebp]
  00ca9	50		 push	 eax
  00caa	8b 4d 1c	 mov	 ecx, DWORD PTR _start_position$[ebp]
  00cad	51		 push	 ecx
  00cae	8b 95 48 ff ff
	ff		 mov	 edx, DWORD PTR _group$[ebp]
  00cb4	52		 push	 edx
  00cb5	6a 01		 push	 1
  00cb7	6a ff		 push	 -1
  00cb9	6b 45 10 64	 imul	 eax, DWORD PTR _group_type$[ebp], 100
  00cbd	8b 88 1c 00 00
	00		 mov	 ecx, DWORD PTR ?group_database@@3PAUGROUP_DATA@@A[eax+28]
  00cc3	51		 push	 ecx
  00cc4	e8 00 00 00 00	 call	 ?create_mobile_member@@YGPAUENTITY@@W4ENTITY_TYPES@@HHPAU1@PAUVEC3D@@HHHW4ENTITY_SIDES@@M@Z ; create_mobile_member
  00cc9	89 85 44 ff ff
	ff		 mov	 DWORD PTR _member$[ebp], eax

; 935  : 				(
; 936  : 					group_database [group_type].default_entity_type,
; 937  : 					ENTITY_INDEX_DONT_CARE,
; 938  : 					TRUE,
; 939  : 					group,
; 940  : 					start_position,
; 941  : 					member_type,
; 942  : 					formation_position,
; 943  : 					OPERATIONAL_STATE_TAXIING,
; 944  : 					(entity_sides)get_local_entity_int_value (keysite, INT_TYPE_SIDE),
; 945  : 					AIRCRAFT_UNDERCARRIAGE_DOWN_FLOAT_VALUE
; 946  : 				);
; 947  : 
; 948  : 				get_local_waypoint_formation_position (formation_position, cwp, &start_wp_pos);

  00ccf	8d 45 ac	 lea	 eax, DWORD PTR _start_wp_pos$[ebp]
  00cd2	50		 push	 eax
  00cd3	8b 4d 18	 mov	 ecx, DWORD PTR _cwp$[ebp]
  00cd6	51		 push	 ecx
  00cd7	8b 55 84	 mov	 edx, DWORD PTR _formation_position$[ebp]
  00cda	52		 push	 edx
  00cdb	e8 00 00 00 00	 call	 ?get_local_waypoint_formation_position@@YGXHPAUENTITY@@PAUVEC3D@@@Z ; get_local_waypoint_formation_position

; 949  : 
; 950  : 				direction.x = start_wp_pos.x - start_position->x;

  00ce0	8b 45 1c	 mov	 eax, DWORD PTR _start_position$[ebp]
  00ce3	f3 0f 10 45 ac	 movss	 xmm0, DWORD PTR _start_wp_pos$[ebp]
  00ce8	f3 0f 5c 00	 subss	 xmm0, DWORD PTR [eax]
  00cec	f3 0f 11 45 94	 movss	 DWORD PTR _direction$[ebp], xmm0

; 951  : 				direction.y = start_wp_pos.y - start_position->y;

  00cf1	8b 45 1c	 mov	 eax, DWORD PTR _start_position$[ebp]
  00cf4	f3 0f 10 45 b0	 movss	 xmm0, DWORD PTR _start_wp_pos$[ebp+4]
  00cf9	f3 0f 5c 40 04	 subss	 xmm0, DWORD PTR [eax+4]
  00cfe	f3 0f 11 45 98	 movss	 DWORD PTR _direction$[ebp+4], xmm0

; 952  : 				direction.z = start_wp_pos.z - start_position->z;

  00d03	8b 45 1c	 mov	 eax, DWORD PTR _start_position$[ebp]
  00d06	f3 0f 10 45 b4	 movss	 xmm0, DWORD PTR _start_wp_pos$[ebp+8]
  00d0b	f3 0f 5c 40 08	 subss	 xmm0, DWORD PTR [eax+8]
  00d10	f3 0f 11 45 9c	 movss	 DWORD PTR _direction$[ebp+8], xmm0

; 953  : 
; 954  : 				normalise_3d_vector (&direction);

  00d15	8d 45 94	 lea	 eax, DWORD PTR _direction$[ebp]
  00d18	50		 push	 eax
  00d19	e8 00 00 00 00	 call	 ?normalise_3d_vector@@YGMPAUVEC3D@@@Z ; normalise_3d_vector
  00d1e	dd d8		 fstp	 ST(0)

; 955  : 
; 956  : 				heading = atan2 (direction.x, direction.z);

  00d20	51		 push	 ecx
  00d21	f3 0f 10 45 9c	 movss	 xmm0, DWORD PTR _direction$[ebp+8]
  00d26	f3 0f 11 04 24	 movss	 DWORD PTR [esp], xmm0
  00d2b	51		 push	 ecx
  00d2c	f3 0f 10 45 94	 movss	 xmm0, DWORD PTR _direction$[ebp]
  00d31	f3 0f 11 04 24	 movss	 DWORD PTR [esp], xmm0
  00d36	e8 00 00 00 00	 call	 ?atan2@@YGMMM@Z		; atan2
  00d3b	d9 5d f8	 fstp	 DWORD PTR _heading$[ebp]

; 957  : 
; 958  : 				memset (&terrain_info, 0, sizeof (terrain_3d_point_data));

  00d3e	6a 2c		 push	 44			; 0000002cH
  00d40	6a 00		 push	 0
  00d42	8d 85 54 ff ff
	ff		 lea	 eax, DWORD PTR _terrain_info$[ebp]
  00d48	50		 push	 eax
  00d49	e8 00 00 00 00	 call	 _memset
  00d4e	83 c4 0c	 add	 esp, 12			; 0000000cH

; 959  : 
; 960  : 				get_3d_terrain_point_data (start_position->x, start_position->z, &terrain_info);

  00d51	8d 85 54 ff ff
	ff		 lea	 eax, DWORD PTR _terrain_info$[ebp]
  00d57	50		 push	 eax
  00d58	8b 4d 1c	 mov	 ecx, DWORD PTR _start_position$[ebp]
  00d5b	51		 push	 ecx
  00d5c	f3 0f 10 41 08	 movss	 xmm0, DWORD PTR [ecx+8]
  00d61	f3 0f 11 04 24	 movss	 DWORD PTR [esp], xmm0
  00d66	8b 55 1c	 mov	 edx, DWORD PTR _start_position$[ebp]
  00d69	51		 push	 ecx
  00d6a	f3 0f 10 02	 movss	 xmm0, DWORD PTR [edx]
  00d6e	f3 0f 11 04 24	 movss	 DWORD PTR [esp], xmm0
  00d73	e8 00 00 00 00	 call	 ?get_3d_terrain_point_data@@YGMMMPAUTERRAIN_3D_POINT_DATA@@@Z ; get_3d_terrain_point_data
  00d78	dd d8		 fstp	 ST(0)

; 961  : 
; 962  : 				normal = get_3d_terrain_point_data_normal (&terrain_info);

  00d7a	8d 85 54 ff ff
	ff		 lea	 eax, DWORD PTR _terrain_info$[ebp]
  00d80	50		 push	 eax
  00d81	e8 00 00 00 00	 call	 ?get_3d_terrain_point_data_normal@@YGPAUVEC3D@@PAUTERRAIN_3D_POINT_DATA@@@Z ; get_3d_terrain_point_data_normal
  00d86	89 45 b8	 mov	 DWORD PTR _normal$[ebp], eax

; 963  : 
; 964  : 				get_3d_transformation_matrix_from_face_normal_and_heading (attitude, normal, heading);

  00d89	51		 push	 ecx
  00d8a	f3 0f 10 45 f8	 movss	 xmm0, DWORD PTR _heading$[ebp]
  00d8f	f3 0f 11 04 24	 movss	 DWORD PTR [esp], xmm0
  00d94	8b 45 b8	 mov	 eax, DWORD PTR _normal$[ebp]
  00d97	50		 push	 eax
  00d98	8d 4d cc	 lea	 ecx, DWORD PTR _attitude$[ebp]
  00d9b	51		 push	 ecx
  00d9c	e8 00 00 00 00	 call	 ?get_3d_transformation_matrix_from_face_normal_and_heading@@YGXQAY02MPBUVEC3D@@M@Z ; get_3d_transformation_matrix_from_face_normal_and_heading

; 965  : 
; 966  : 				pitch = get_pitch_from_attitude_matrix (attitude);

  00da1	b8 0c 00 00 00	 mov	 eax, 12			; 0000000cH
  00da6	d1 e0		 shl	 eax, 1
  00da8	8d 4c 05 cc	 lea	 ecx, DWORD PTR _attitude$[ebp+eax]
  00dac	ba 04 00 00 00	 mov	 edx, 4
  00db1	c1 e2 00	 shl	 edx, 0
  00db4	51		 push	 ecx
  00db5	f3 0f 10 04 11	 movss	 xmm0, DWORD PTR [ecx+edx]
  00dba	f3 0f 11 04 24	 movss	 DWORD PTR [esp], xmm0
  00dbf	e8 00 00 00 00	 call	 ?asin@@YGMM@Z		; asin
  00dc4	d9 5d f4	 fstp	 DWORD PTR _pitch$[ebp]

; 967  : 
; 968  : 				pitch += fuselage_angle;

  00dc7	f3 0f 10 45 f4	 movss	 xmm0, DWORD PTR _pitch$[ebp]
  00dcc	f3 0f 58 45 fc	 addss	 xmm0, DWORD PTR _fuselage_angle$[ebp]
  00dd1	f3 0f 11 45 f4	 movss	 DWORD PTR _pitch$[ebp], xmm0

; 969  : 
; 970  : 				roll = get_roll_from_attitude_matrix (attitude);

  00dd6	b8 0c 00 00 00	 mov	 eax, 12			; 0000000cH
  00ddb	c1 e0 00	 shl	 eax, 0
  00dde	8d 4c 05 cc	 lea	 ecx, DWORD PTR _attitude$[ebp+eax]
  00de2	ba 04 00 00 00	 mov	 edx, 4
  00de7	c1 e2 00	 shl	 edx, 0
  00dea	51		 push	 ecx
  00deb	f3 0f 10 04 11	 movss	 xmm0, DWORD PTR [ecx+edx]
  00df0	f3 0f 11 04 24	 movss	 DWORD PTR [esp], xmm0
  00df5	b8 0c 00 00 00	 mov	 eax, 12			; 0000000cH
  00dfa	6b c8 00	 imul	 ecx, eax, 0
  00dfd	8d 54 0d cc	 lea	 edx, DWORD PTR _attitude$[ebp+ecx]
  00e01	b8 04 00 00 00	 mov	 eax, 4
  00e06	c1 e0 00	 shl	 eax, 0
  00e09	f3 0f 10 04 02	 movss	 xmm0, DWORD PTR [edx+eax]
  00e0e	0f 57 05 00 00
	00 00		 xorps	 xmm0, DWORD PTR __xmm@80000000800000008000000080000000
  00e15	51		 push	 ecx
  00e16	f3 0f 11 04 24	 movss	 DWORD PTR [esp], xmm0
  00e1b	e8 00 00 00 00	 call	 ?atan2@@YGMMM@Z		; atan2
  00e20	d9 5d f0	 fstp	 DWORD PTR _roll$[ebp]

; 971  : 
; 972  : 				set_client_server_entity_attitude_angles (member, heading, pitch, roll);

  00e23	83 bd 44 ff ff
	ff 00		 cmp	 DWORD PTR _member$[ebp], 0
  00e2a	74 10		 je	 SHORT $LN95@create_lan
  00e2c	8b 85 44 ff ff
	ff		 mov	 eax, DWORD PTR _member$[ebp]
  00e32	8b 08		 mov	 ecx, DWORD PTR [eax]
  00e34	89 8d fc fe ff
	ff		 mov	 DWORD PTR tv627[ebp], ecx
  00e3a	eb 27		 jmp	 SHORT $LN96@create_lan
$LN95@create_lan:
  00e3c	8b 15 00 00 00
	00		 mov	 edx, DWORD PTR ?__LINE__Var@?0??create_landing_faction_members@@YGPAUENTITY@@PAU2@HHH0PAUVEC3D@@@Z@4JA
  00e42	81 c2 cf 00 00
	00		 add	 edx, 207		; 000000cfH
  00e48	52		 push	 edx
  00e49	68 00 00 00 00	 push	 OFFSET ??_C@_0EB@JEOGKGCM@c?3?2users?2nhv90?2projects?2eech?2ap@
  00e4e	a1 00 00 00 00	 mov	 eax, DWORD PTR ?null_entity_pointer_message@@3PBDB ; null_entity_pointer_message
  00e53	50		 push	 eax
  00e54	e8 00 00 00 00	 call	 ?process_assert@@YGXPBD0H@Z ; process_assert
  00e59	c7 85 fc fe ff
	ff 00 00 00 00	 mov	 DWORD PTR tv627[ebp], 0
$LN96@create_lan:
  00e63	51		 push	 ecx
  00e64	f3 0f 10 45 f0	 movss	 xmm0, DWORD PTR _roll$[ebp]
  00e69	f3 0f 11 04 24	 movss	 DWORD PTR [esp], xmm0
  00e6e	51		 push	 ecx
  00e6f	f3 0f 10 45 f4	 movss	 xmm0, DWORD PTR _pitch$[ebp]
  00e74	f3 0f 11 04 24	 movss	 DWORD PTR [esp], xmm0
  00e79	51		 push	 ecx
  00e7a	f3 0f 10 45 f8	 movss	 xmm0, DWORD PTR _heading$[ebp]
  00e7f	f3 0f 11 04 24	 movss	 DWORD PTR [esp], xmm0
  00e84	8b 8d 44 ff ff
	ff		 mov	 ecx, DWORD PTR _member$[ebp]
  00e8a	51		 push	 ecx
  00e8b	8b 15 00 00 00
	00		 mov	 edx, DWORD PTR ?system_comms_model@@3W4COMMS_MODEL_TYPES@@A ; system_comms_model
  00e91	c1 e2 02	 shl	 edx, 2
  00e94	8b 85 fc fe ff
	ff		 mov	 eax, DWORD PTR tv627[ebp]
  00e9a	8b 8c c2 00 00
	00 00		 mov	 ecx, DWORD PTR ?fn_set_client_server_entity_attitude_angles@@3PAY01P6GXPAUENTITY@@MMM@ZA[edx+eax*8]
  00ea1	ff d1		 call	 ecx

; 973  : 
; 974  : 				member_pos = *start_position;

  00ea3	8b 45 1c	 mov	 eax, DWORD PTR _start_position$[ebp]
  00ea6	8b 08		 mov	 ecx, DWORD PTR [eax]
  00ea8	89 4d a0	 mov	 DWORD PTR _member_pos$[ebp], ecx
  00eab	8b 50 04	 mov	 edx, DWORD PTR [eax+4]
  00eae	89 55 a4	 mov	 DWORD PTR _member_pos$[ebp+4], edx
  00eb1	8b 40 08	 mov	 eax, DWORD PTR [eax+8]
  00eb4	89 45 a8	 mov	 DWORD PTR _member_pos$[ebp+8], eax

; 975  : 
; 976  : 				member_pos.y += get_local_entity_float_value (member, FLOAT_TYPE_CENTRE_OF_GRAVITY_TO_GROUND_DISTANCE);

  00eb7	83 bd 44 ff ff
	ff 00		 cmp	 DWORD PTR _member$[ebp], 0
  00ebe	74 10		 je	 SHORT $LN97@create_lan
  00ec0	8b 85 44 ff ff
	ff		 mov	 eax, DWORD PTR _member$[ebp]
  00ec6	8b 08		 mov	 ecx, DWORD PTR [eax]
  00ec8	89 8d fc fe ff
	ff		 mov	 DWORD PTR tv643[ebp], ecx
  00ece	eb 27		 jmp	 SHORT $LN98@create_lan
$LN97@create_lan:
  00ed0	8b 15 00 00 00
	00		 mov	 edx, DWORD PTR ?__LINE__Var@?0??create_landing_faction_members@@YGPAUENTITY@@PAU2@HHH0PAUVEC3D@@@Z@4JA
  00ed6	81 c2 d3 00 00
	00		 add	 edx, 211		; 000000d3H
  00edc	52		 push	 edx
  00edd	68 00 00 00 00	 push	 OFFSET ??_C@_0EB@JEOGKGCM@c?3?2users?2nhv90?2projects?2eech?2ap@
  00ee2	a1 00 00 00 00	 mov	 eax, DWORD PTR ?null_entity_pointer_message@@3PBDB ; null_entity_pointer_message
  00ee7	50		 push	 eax
  00ee8	e8 00 00 00 00	 call	 ?process_assert@@YGXPBD0H@Z ; process_assert
  00eed	c7 85 fc fe ff
	ff 00 00 00 00	 mov	 DWORD PTR tv643[ebp], 0
$LN98@create_lan:
  00ef7	b9 01 00 00 00	 mov	 ecx, 1
  00efc	85 c9		 test	 ecx, ecx
  00efe	74 0c		 je	 SHORT $LN99@create_lan
  00f00	c7 85 f8 fe ff
	ff 12 00 00 00	 mov	 DWORD PTR tv651[ebp], 18 ; 00000012H
  00f0a	eb 27		 jmp	 SHORT $LN100@create_lan
$LN99@create_lan:
  00f0c	8b 15 00 00 00
	00		 mov	 edx, DWORD PTR ?__LINE__Var@?0??create_landing_faction_members@@YGPAUENTITY@@PAU2@HHH0PAUVEC3D@@@Z@4JA
  00f12	81 c2 d3 00 00
	00		 add	 edx, 211		; 000000d3H
  00f18	52		 push	 edx
  00f19	68 00 00 00 00	 push	 OFFSET ??_C@_0EB@JEOGKGCM@c?3?2users?2nhv90?2projects?2eech?2ap@
  00f1e	a1 00 00 00 00	 mov	 eax, DWORD PTR ?overload_invalid_float_type_message@@3PBDB ; overload_invalid_float_type_message
  00f23	50		 push	 eax
  00f24	e8 00 00 00 00	 call	 ?process_assert@@YGXPBD0H@Z ; process_assert
  00f29	c7 85 f8 fe ff
	ff 00 00 00 00	 mov	 DWORD PTR tv651[ebp], 0
$LN100@create_lan:
  00f33	6a 12		 push	 18			; 00000012H
  00f35	8b 8d 44 ff ff
	ff		 mov	 ecx, DWORD PTR _member$[ebp]
  00f3b	51		 push	 ecx
  00f3c	69 95 fc fe ff
	ff bc 02 00 00	 imul	 edx, DWORD PTR tv643[ebp], 700
  00f46	8b 85 f8 fe ff
	ff		 mov	 eax, DWORD PTR tv651[ebp]
  00f4c	8b 8c 82 00 00
	00 00		 mov	 ecx, DWORD PTR ?fn_get_local_entity_float_value@@3PAY0KP@P6GMPAUENTITY@@W4FLOAT_TYPES@@@ZA[edx+eax*4]
  00f53	ff d1		 call	 ecx
  00f55	d9 9d f4 fe ff
	ff		 fstp	 DWORD PTR tv1126[ebp]
  00f5b	f3 0f 10 85 f4
	fe ff ff	 movss	 xmm0, DWORD PTR tv1126[ebp]
  00f63	f3 0f 58 45 a4	 addss	 xmm0, DWORD PTR _member_pos$[ebp+4]
  00f68	f3 0f 11 45 a4	 movss	 DWORD PTR _member_pos$[ebp+4], xmm0

; 977  : 
; 978  : 				pos = *start_position;

  00f6d	8b 45 1c	 mov	 eax, DWORD PTR _start_position$[ebp]
  00f70	8b 08		 mov	 ecx, DWORD PTR [eax]
  00f72	89 4d c0	 mov	 DWORD PTR _pos$[ebp], ecx
  00f75	8b 50 04	 mov	 edx, DWORD PTR [eax+4]
  00f78	89 55 c4	 mov	 DWORD PTR _pos$[ebp+4], edx
  00f7b	8b 40 08	 mov	 eax, DWORD PTR [eax+8]
  00f7e	89 45 c8	 mov	 DWORD PTR _pos$[ebp+8], eax

; 979  : 
; 980  : 				if (get_local_entity_int_value (group, INT_TYPE_MOVEMENT_TYPE) == MOVEMENT_TYPE_AIR)

  00f81	83 bd 48 ff ff
	ff 00		 cmp	 DWORD PTR _group$[ebp], 0
  00f88	74 10		 je	 SHORT $LN101@create_lan
  00f8a	8b 85 48 ff ff
	ff		 mov	 eax, DWORD PTR _group$[ebp]
  00f90	8b 08		 mov	 ecx, DWORD PTR [eax]
  00f92	89 8d fc fe ff
	ff		 mov	 DWORD PTR tv664[ebp], ecx
  00f98	eb 20		 jmp	 SHORT $LN102@create_lan
$LN101@create_lan:
  00f9a	68 d4 03 00 00	 push	 980			; 000003d4H
  00f9f	68 00 00 00 00	 push	 OFFSET ??_C@_0EB@JEOGKGCM@c?3?2users?2nhv90?2projects?2eech?2ap@
  00fa4	8b 15 00 00 00
	00		 mov	 edx, DWORD PTR ?null_entity_pointer_message@@3PBDB ; null_entity_pointer_message
  00faa	52		 push	 edx
  00fab	e8 00 00 00 00	 call	 ?process_assert@@YGXPBD0H@Z ; process_assert
  00fb0	c7 85 fc fe ff
	ff 00 00 00 00	 mov	 DWORD PTR tv664[ebp], 0
$LN102@create_lan:
  00fba	b8 01 00 00 00	 mov	 eax, 1
  00fbf	85 c0		 test	 eax, eax
  00fc1	74 0c		 je	 SHORT $LN103@create_lan
  00fc3	c7 85 f8 fe ff
	ff 90 00 00 00	 mov	 DWORD PTR tv671[ebp], 144 ; 00000090H
  00fcd	eb 20		 jmp	 SHORT $LN104@create_lan
$LN103@create_lan:
  00fcf	68 d4 03 00 00	 push	 980			; 000003d4H
  00fd4	68 00 00 00 00	 push	 OFFSET ??_C@_0EB@JEOGKGCM@c?3?2users?2nhv90?2projects?2eech?2ap@
  00fd9	8b 0d 00 00 00
	00		 mov	 ecx, DWORD PTR ?overload_invalid_int_type_message@@3PBDB ; overload_invalid_int_type_message
  00fdf	51		 push	 ecx
  00fe0	e8 00 00 00 00	 call	 ?process_assert@@YGXPBD0H@Z ; process_assert
  00fe5	c7 85 f8 fe ff
	ff 00 00 00 00	 mov	 DWORD PTR tv671[ebp], 0
$LN104@create_lan:
  00fef	68 90 00 00 00	 push	 144			; 00000090H
  00ff4	8b 95 48 ff ff
	ff		 mov	 edx, DWORD PTR _group$[ebp]
  00ffa	52		 push	 edx
  00ffb	69 85 fc fe ff
	ff 5c 04 00 00	 imul	 eax, DWORD PTR tv664[ebp], 1116
  01005	8b 8d f8 fe ff
	ff		 mov	 ecx, DWORD PTR tv671[ebp]
  0100b	8b 94 88 00 00
	00 00		 mov	 edx, DWORD PTR ?fn_get_local_entity_int_value@@3PAY0BBH@P6GHPAUENTITY@@W4INT_TYPES@@@ZA[eax+ecx*4]
  01012	ff d2		 call	 edx
  01014	83 f8 01	 cmp	 eax, 1
  01017	75 19		 jne	 SHORT $LN26@create_lan

; 981  : 				{
; 982  : 
; 983  : 					pos.y += aircraft_database [member_type].centre_of_gravity_to_ground_distance;

  01019	69 45 0c f4 00
	00 00		 imul	 eax, DWORD PTR _member_type$[ebp], 244
  01020	f3 0f 10 45 c4	 movss	 xmm0, DWORD PTR _pos$[ebp+4]
  01025	f3 0f 58 80 54
	00 00 00	 addss	 xmm0, DWORD PTR ?aircraft_database@@3PAUAIRCRAFT_DATA@@A[eax+84]
  0102d	f3 0f 11 45 c4	 movss	 DWORD PTR _pos$[ebp+4], xmm0
$LN26@create_lan:

; 984  : 				}
; 985  : 
; 986  : 				set_client_server_entity_vec3d (member, VEC3D_TYPE_POSITION, &pos);

  01032	83 bd 44 ff ff
	ff 00		 cmp	 DWORD PTR _member$[ebp], 0
  01039	74 10		 je	 SHORT $LN105@create_lan
  0103b	8b 85 44 ff ff
	ff		 mov	 eax, DWORD PTR _member$[ebp]
  01041	8b 08		 mov	 ecx, DWORD PTR [eax]
  01043	89 8d fc fe ff
	ff		 mov	 DWORD PTR tv688[ebp], ecx
  01049	eb 27		 jmp	 SHORT $LN106@create_lan
$LN105@create_lan:
  0104b	8b 15 00 00 00
	00		 mov	 edx, DWORD PTR ?__LINE__Var@?0??create_landing_faction_members@@YGPAUENTITY@@PAU2@HHH0PAUVEC3D@@@Z@4JA
  01051	81 c2 dd 00 00
	00		 add	 edx, 221		; 000000ddH
  01057	52		 push	 edx
  01058	68 00 00 00 00	 push	 OFFSET ??_C@_0EB@JEOGKGCM@c?3?2users?2nhv90?2projects?2eech?2ap@
  0105d	a1 00 00 00 00	 mov	 eax, DWORD PTR ?null_entity_pointer_message@@3PBDB ; null_entity_pointer_message
  01062	50		 push	 eax
  01063	e8 00 00 00 00	 call	 ?process_assert@@YGXPBD0H@Z ; process_assert
  01068	c7 85 fc fe ff
	ff 00 00 00 00	 mov	 DWORD PTR tv688[ebp], 0
$LN106@create_lan:
  01072	b9 01 00 00 00	 mov	 ecx, 1
  01077	85 c9		 test	 ecx, ecx
  01079	74 0c		 je	 SHORT $LN107@create_lan
  0107b	c7 85 f8 fe ff
	ff 08 00 00 00	 mov	 DWORD PTR tv696[ebp], 8
  01085	eb 27		 jmp	 SHORT $LN108@create_lan
$LN107@create_lan:
  01087	8b 15 00 00 00
	00		 mov	 edx, DWORD PTR ?__LINE__Var@?0??create_landing_faction_members@@YGPAUENTITY@@PAU2@HHH0PAUVEC3D@@@Z@4JA
  0108d	81 c2 dd 00 00
	00		 add	 edx, 221		; 000000ddH
  01093	52		 push	 edx
  01094	68 00 00 00 00	 push	 OFFSET ??_C@_0EB@JEOGKGCM@c?3?2users?2nhv90?2projects?2eech?2ap@
  01099	a1 00 00 00 00	 mov	 eax, DWORD PTR ?overload_invalid_vec3d_type_message@@3PBDB ; overload_invalid_vec3d_type_message
  0109e	50		 push	 eax
  0109f	e8 00 00 00 00	 call	 ?process_assert@@YGXPBD0H@Z ; process_assert
  010a4	c7 85 f8 fe ff
	ff 00 00 00 00	 mov	 DWORD PTR tv696[ebp], 0
$LN108@create_lan:
  010ae	8d 4d c0	 lea	 ecx, DWORD PTR _pos$[ebp]
  010b1	51		 push	 ecx
  010b2	6a 08		 push	 8
  010b4	8b 95 44 ff ff
	ff		 mov	 edx, DWORD PTR _member$[ebp]
  010ba	52		 push	 edx
  010bb	69 85 fc fe ff
	ff c0 00 00 00	 imul	 eax, DWORD PTR tv688[ebp], 192
  010c5	8b 8d f8 fe ff
	ff		 mov	 ecx, DWORD PTR tv696[ebp]
  010cb	8d 94 c8 00 00
	00 00		 lea	 edx, DWORD PTR ?fn_set_client_server_entity_vec3d@@3PAY1BI@1P6GXPAUENTITY@@W4VEC3D_TYPES@@PAUVEC3D@@@ZA[eax+ecx*8]
  010d2	a1 00 00 00 00	 mov	 eax, DWORD PTR ?system_comms_model@@3W4COMMS_MODEL_TYPES@@A ; system_comms_model
  010d7	8b 0c 82	 mov	 ecx, DWORD PTR [edx+eax*4]
  010da	ff d1		 call	 ecx

; 987  : 
; 988  : 				set_local_entity_float_value (member, FLOAT_TYPE_MAIN_ROTOR_RPM, 60.0);

  010dc	83 bd 44 ff ff
	ff 00		 cmp	 DWORD PTR _member$[ebp], 0
  010e3	74 10		 je	 SHORT $LN109@create_lan
  010e5	8b 85 44 ff ff
	ff		 mov	 eax, DWORD PTR _member$[ebp]
  010eb	8b 08		 mov	 ecx, DWORD PTR [eax]
  010ed	89 8d fc fe ff
	ff		 mov	 DWORD PTR tv710[ebp], ecx
  010f3	eb 27		 jmp	 SHORT $LN110@create_lan
$LN109@create_lan:
  010f5	8b 15 00 00 00
	00		 mov	 edx, DWORD PTR ?__LINE__Var@?0??create_landing_faction_members@@YGPAUENTITY@@PAU2@HHH0PAUVEC3D@@@Z@4JA
  010fb	81 c2 df 00 00
	00		 add	 edx, 223		; 000000dfH
  01101	52		 push	 edx
  01102	68 00 00 00 00	 push	 OFFSET ??_C@_0EB@JEOGKGCM@c?3?2users?2nhv90?2projects?2eech?2ap@
  01107	a1 00 00 00 00	 mov	 eax, DWORD PTR ?null_entity_pointer_message@@3PBDB ; null_entity_pointer_message
  0110c	50		 push	 eax
  0110d	e8 00 00 00 00	 call	 ?process_assert@@YGXPBD0H@Z ; process_assert
  01112	c7 85 fc fe ff
	ff 00 00 00 00	 mov	 DWORD PTR tv710[ebp], 0
$LN110@create_lan:
  0111c	b9 01 00 00 00	 mov	 ecx, 1
  01121	85 c9		 test	 ecx, ecx
  01123	74 0c		 je	 SHORT $LN111@create_lan
  01125	c7 85 f8 fe ff
	ff 48 00 00 00	 mov	 DWORD PTR tv718[ebp], 72 ; 00000048H
  0112f	eb 27		 jmp	 SHORT $LN112@create_lan
$LN111@create_lan:
  01131	8b 15 00 00 00
	00		 mov	 edx, DWORD PTR ?__LINE__Var@?0??create_landing_faction_members@@YGPAUENTITY@@PAU2@HHH0PAUVEC3D@@@Z@4JA
  01137	81 c2 df 00 00
	00		 add	 edx, 223		; 000000dfH
  0113d	52		 push	 edx
  0113e	68 00 00 00 00	 push	 OFFSET ??_C@_0EB@JEOGKGCM@c?3?2users?2nhv90?2projects?2eech?2ap@
  01143	a1 00 00 00 00	 mov	 eax, DWORD PTR ?overload_invalid_float_type_message@@3PBDB ; overload_invalid_float_type_message
  01148	50		 push	 eax
  01149	e8 00 00 00 00	 call	 ?process_assert@@YGXPBD0H@Z ; process_assert
  0114e	c7 85 f8 fe ff
	ff 00 00 00 00	 mov	 DWORD PTR tv718[ebp], 0
$LN112@create_lan:
  01158	51		 push	 ecx
  01159	f3 0f 10 05 00
	00 00 00	 movss	 xmm0, DWORD PTR __real@42700000
  01161	f3 0f 11 04 24	 movss	 DWORD PTR [esp], xmm0
  01166	6a 48		 push	 72			; 00000048H
  01168	8b 8d 44 ff ff
	ff		 mov	 ecx, DWORD PTR _member$[ebp]
  0116e	51		 push	 ecx
  0116f	69 95 fc fe ff
	ff bc 02 00 00	 imul	 edx, DWORD PTR tv710[ebp], 700
  01179	8b 85 f8 fe ff
	ff		 mov	 eax, DWORD PTR tv718[ebp]
  0117f	8b 8c 82 00 00
	00 00		 mov	 ecx, DWORD PTR ?fn_set_local_entity_float_value@@3PAY0KP@P6GXPAUENTITY@@W4FLOAT_TYPES@@M@ZA[edx+eax*4]
  01186	ff d1		 call	 ecx

; 989  : 
; 990  : 				notify_local_entity (ENTITY_MESSAGE_LOCK_LANDING_SITE, landing_en, member);

  01188	8b 85 44 ff ff
	ff		 mov	 eax, DWORD PTR _member$[ebp]
  0118e	50		 push	 eax
  0118f	8b 8d 40 ff ff
	ff		 mov	 ecx, DWORD PTR _landing_en$[ebp]
  01195	51		 push	 ecx
  01196	6a 26		 push	 38			; 00000026H
  01198	e8 00 00 00 00	 call	 ?notify_local_entity@@YAHW4ENTITY_MESSAGES@@PAUENTITY@@1ZZ ; notify_local_entity
  0119d	83 c4 0c	 add	 esp, 12			; 0000000cH

; 991  : 
; 992  : 				notify_local_entity (ENTITY_MESSAGE_LOCK_LANDING_ROUTE, landing_en, member);

  011a0	8b 85 44 ff ff
	ff		 mov	 eax, DWORD PTR _member$[ebp]
  011a6	50		 push	 eax
  011a7	8b 8d 40 ff ff
	ff		 mov	 ecx, DWORD PTR _landing_en$[ebp]
  011ad	51		 push	 ecx
  011ae	6a 25		 push	 37			; 00000025H
  011b0	e8 00 00 00 00	 call	 ?notify_local_entity@@YAHW4ENTITY_MESSAGES@@PAUENTITY@@1ZZ ; notify_local_entity
  011b5	83 c4 0c	 add	 esp, 12			; 0000000cH

; 993  : 			}

  011b8	e9 fc f7 ff ff	 jmp	 $LN6@create_lan
$LN7@create_lan:

; 994  : 
; 995  : 			//
; 996  : 			// Assign each member a unique ID number
; 997  : 			//
; 998  : 
; 999  : 			set_group_member_numbers (group);

  011bd	8b 85 48 ff ff
	ff		 mov	 eax, DWORD PTR _group$[ebp]
  011c3	50		 push	 eax
  011c4	e8 00 00 00 00	 call	 ?set_group_member_numbers@@YGXPAUENTITY@@@Z ; set_group_member_numbers

; 1000 : 
; 1001 : 			//
; 1002 : 			// mark Keysite as used (after it has actually been used!)
; 1003 : 			//
; 1004 : 
; 1005 : 			if (!get_local_entity_int_value (keysite, INT_TYPE_IN_USE))

  011c9	83 7d 08 00	 cmp	 DWORD PTR _keysite$[ebp], 0
  011cd	74 0d		 je	 SHORT $LN113@create_lan
  011cf	8b 45 08	 mov	 eax, DWORD PTR _keysite$[ebp]
  011d2	8b 08		 mov	 ecx, DWORD PTR [eax]
  011d4	89 8d fc fe ff
	ff		 mov	 DWORD PTR tv736[ebp], ecx
  011da	eb 20		 jmp	 SHORT $LN114@create_lan
$LN113@create_lan:
  011dc	68 ed 03 00 00	 push	 1005			; 000003edH
  011e1	68 00 00 00 00	 push	 OFFSET ??_C@_0EB@JEOGKGCM@c?3?2users?2nhv90?2projects?2eech?2ap@
  011e6	8b 15 00 00 00
	00		 mov	 edx, DWORD PTR ?null_entity_pointer_message@@3PBDB ; null_entity_pointer_message
  011ec	52		 push	 edx
  011ed	e8 00 00 00 00	 call	 ?process_assert@@YGXPBD0H@Z ; process_assert
  011f2	c7 85 fc fe ff
	ff 00 00 00 00	 mov	 DWORD PTR tv736[ebp], 0
$LN114@create_lan:
  011fc	b8 01 00 00 00	 mov	 eax, 1
  01201	85 c0		 test	 eax, eax
  01203	74 0c		 je	 SHORT $LN115@create_lan
  01205	c7 85 f8 fe ff
	ff 6d 00 00 00	 mov	 DWORD PTR tv743[ebp], 109 ; 0000006dH
  0120f	eb 20		 jmp	 SHORT $LN116@create_lan
$LN115@create_lan:
  01211	68 ed 03 00 00	 push	 1005			; 000003edH
  01216	68 00 00 00 00	 push	 OFFSET ??_C@_0EB@JEOGKGCM@c?3?2users?2nhv90?2projects?2eech?2ap@
  0121b	8b 0d 00 00 00
	00		 mov	 ecx, DWORD PTR ?overload_invalid_int_type_message@@3PBDB ; overload_invalid_int_type_message
  01221	51		 push	 ecx
  01222	e8 00 00 00 00	 call	 ?process_assert@@YGXPBD0H@Z ; process_assert
  01227	c7 85 f8 fe ff
	ff 00 00 00 00	 mov	 DWORD PTR tv743[ebp], 0
$LN116@create_lan:
  01231	6a 6d		 push	 109			; 0000006dH
  01233	8b 55 08	 mov	 edx, DWORD PTR _keysite$[ebp]
  01236	52		 push	 edx
  01237	69 85 fc fe ff
	ff 5c 04 00 00	 imul	 eax, DWORD PTR tv736[ebp], 1116
  01241	8b 8d f8 fe ff
	ff		 mov	 ecx, DWORD PTR tv743[ebp]
  01247	8b 94 88 00 00
	00 00		 mov	 edx, DWORD PTR ?fn_get_local_entity_int_value@@3PAY0BBH@P6GHPAUENTITY@@W4INT_TYPES@@@ZA[eax+ecx*4]
  0124e	ff d2		 call	 edx
  01250	85 c0		 test	 eax, eax
  01252	0f 85 68 01 00
	00		 jne	 $LN27@create_lan

; 1006 : 			{
; 1007 : 				set_client_server_entity_int_value (keysite, INT_TYPE_IN_USE, TRUE);

  01258	83 7d 08 00	 cmp	 DWORD PTR _keysite$[ebp], 0
  0125c	74 0d		 je	 SHORT $LN117@create_lan
  0125e	8b 45 08	 mov	 eax, DWORD PTR _keysite$[ebp]
  01261	8b 08		 mov	 ecx, DWORD PTR [eax]
  01263	89 8d fc fe ff
	ff		 mov	 DWORD PTR tv756[ebp], ecx
  01269	eb 27		 jmp	 SHORT $LN118@create_lan
$LN117@create_lan:
  0126b	8b 15 00 00 00
	00		 mov	 edx, DWORD PTR ?__LINE__Var@?0??create_landing_faction_members@@YGPAUENTITY@@PAU2@HHH0PAUVEC3D@@@Z@4JA
  01271	81 c2 f2 00 00
	00		 add	 edx, 242		; 000000f2H
  01277	52		 push	 edx
  01278	68 00 00 00 00	 push	 OFFSET ??_C@_0EB@JEOGKGCM@c?3?2users?2nhv90?2projects?2eech?2ap@
  0127d	a1 00 00 00 00	 mov	 eax, DWORD PTR ?null_entity_pointer_message@@3PBDB ; null_entity_pointer_message
  01282	50		 push	 eax
  01283	e8 00 00 00 00	 call	 ?process_assert@@YGXPBD0H@Z ; process_assert
  01288	c7 85 fc fe ff
	ff 00 00 00 00	 mov	 DWORD PTR tv756[ebp], 0
$LN118@create_lan:
  01292	b9 01 00 00 00	 mov	 ecx, 1
  01297	85 c9		 test	 ecx, ecx
  01299	74 0c		 je	 SHORT $LN119@create_lan
  0129b	c7 85 f8 fe ff
	ff 6d 00 00 00	 mov	 DWORD PTR tv764[ebp], 109 ; 0000006dH
  012a5	eb 27		 jmp	 SHORT $LN120@create_lan
$LN119@create_lan:
  012a7	8b 15 00 00 00
	00		 mov	 edx, DWORD PTR ?__LINE__Var@?0??create_landing_faction_members@@YGPAUENTITY@@PAU2@HHH0PAUVEC3D@@@Z@4JA
  012ad	81 c2 f2 00 00
	00		 add	 edx, 242		; 000000f2H
  012b3	52		 push	 edx
  012b4	68 00 00 00 00	 push	 OFFSET ??_C@_0EB@JEOGKGCM@c?3?2users?2nhv90?2projects?2eech?2ap@
  012b9	a1 00 00 00 00	 mov	 eax, DWORD PTR ?overload_invalid_int_type_message@@3PBDB ; overload_invalid_int_type_message
  012be	50		 push	 eax
  012bf	e8 00 00 00 00	 call	 ?process_assert@@YGXPBD0H@Z ; process_assert
  012c4	c7 85 f8 fe ff
	ff 00 00 00 00	 mov	 DWORD PTR tv764[ebp], 0
$LN120@create_lan:
  012ce	6a 01		 push	 1
  012d0	6a 6d		 push	 109			; 0000006dH
  012d2	8b 4d 08	 mov	 ecx, DWORD PTR _keysite$[ebp]
  012d5	51		 push	 ecx
  012d6	69 95 fc fe ff
	ff b8 08 00 00	 imul	 edx, DWORD PTR tv756[ebp], 2232
  012e0	8b 85 f8 fe ff
	ff		 mov	 eax, DWORD PTR tv764[ebp]
  012e6	8d 8c c2 00 00
	00 00		 lea	 ecx, DWORD PTR ?fn_set_client_server_entity_int_value@@3PAY1BBH@1P6GXPAUENTITY@@W4INT_TYPES@@H@ZA[edx+eax*8]
  012ed	8b 15 00 00 00
	00		 mov	 edx, DWORD PTR ?system_comms_model@@3W4COMMS_MODEL_TYPES@@A ; system_comms_model
  012f3	8b 04 91	 mov	 eax, DWORD PTR [ecx+edx*4]
  012f6	ff d0		 call	 eax

; 1008 : 	
; 1009 : 				update_imap_sector_side (keysite, TRUE);

  012f8	6a 01		 push	 1
  012fa	8b 45 08	 mov	 eax, DWORD PTR _keysite$[ebp]
  012fd	50		 push	 eax
  012fe	e8 00 00 00 00	 call	 ?update_imap_sector_side@@YGXPAUENTITY@@H@Z ; update_imap_sector_side

; 1010 : 
; 1011 : 				transmit_entity_comms_message (ENTITY_COMMS_UPDATE_SECTOR_SIDE, keysite, TRUE);

  01303	6a 01		 push	 1
  01305	8b 45 08	 mov	 eax, DWORD PTR _keysite$[ebp]
  01308	50		 push	 eax
  01309	6a 40		 push	 64			; 00000040H
  0130b	e8 00 00 00 00	 call	 ?transmit_entity_comms_message@@YAXW4ENTITY_COMMS_MESSAGES@@PAUENTITY@@ZZ ; transmit_entity_comms_message
  01310	83 c4 0c	 add	 esp, 12			; 0000000cH

; 1012 : 
; 1013 : 				update_imap_importance_level (keysite, TRUE);

  01313	6a 01		 push	 1
  01315	8b 45 08	 mov	 eax, DWORD PTR _keysite$[ebp]
  01318	50		 push	 eax
  01319	e8 00 00 00 00	 call	 ?update_imap_importance_level@@YGXPAUENTITY@@H@Z ; update_imap_importance_level

; 1014 : 
; 1015 : 				update_keysite_distance_to_friendly_base (keysite, (entity_sides)get_local_entity_int_value (keysite, INT_TYPE_SIDE));

  0131e	83 7d 08 00	 cmp	 DWORD PTR _keysite$[ebp], 0
  01322	74 0d		 je	 SHORT $LN121@create_lan
  01324	8b 45 08	 mov	 eax, DWORD PTR _keysite$[ebp]
  01327	8b 08		 mov	 ecx, DWORD PTR [eax]
  01329	89 8d fc fe ff
	ff		 mov	 DWORD PTR tv785[ebp], ecx
  0132f	eb 27		 jmp	 SHORT $LN122@create_lan
$LN121@create_lan:
  01331	8b 15 00 00 00
	00		 mov	 edx, DWORD PTR ?__LINE__Var@?0??create_landing_faction_members@@YGPAUENTITY@@PAU2@HHH0PAUVEC3D@@@Z@4JA
  01337	81 c2 fa 00 00
	00		 add	 edx, 250		; 000000faH
  0133d	52		 push	 edx
  0133e	68 00 00 00 00	 push	 OFFSET ??_C@_0EB@JEOGKGCM@c?3?2users?2nhv90?2projects?2eech?2ap@
  01343	a1 00 00 00 00	 mov	 eax, DWORD PTR ?null_entity_pointer_message@@3PBDB ; null_entity_pointer_message
  01348	50		 push	 eax
  01349	e8 00 00 00 00	 call	 ?process_assert@@YGXPBD0H@Z ; process_assert
  0134e	c7 85 fc fe ff
	ff 00 00 00 00	 mov	 DWORD PTR tv785[ebp], 0
$LN122@create_lan:
  01358	b9 01 00 00 00	 mov	 ecx, 1
  0135d	85 c9		 test	 ecx, ecx
  0135f	74 0c		 je	 SHORT $LN123@create_lan
  01361	c7 85 f8 fe ff
	ff bb 00 00 00	 mov	 DWORD PTR tv793[ebp], 187 ; 000000bbH
  0136b	eb 27		 jmp	 SHORT $LN124@create_lan
$LN123@create_lan:
  0136d	8b 15 00 00 00
	00		 mov	 edx, DWORD PTR ?__LINE__Var@?0??create_landing_faction_members@@YGPAUENTITY@@PAU2@HHH0PAUVEC3D@@@Z@4JA
  01373	81 c2 fa 00 00
	00		 add	 edx, 250		; 000000faH
  01379	52		 push	 edx
  0137a	68 00 00 00 00	 push	 OFFSET ??_C@_0EB@JEOGKGCM@c?3?2users?2nhv90?2projects?2eech?2ap@
  0137f	a1 00 00 00 00	 mov	 eax, DWORD PTR ?overload_invalid_int_type_message@@3PBDB ; overload_invalid_int_type_message
  01384	50		 push	 eax
  01385	e8 00 00 00 00	 call	 ?process_assert@@YGXPBD0H@Z ; process_assert
  0138a	c7 85 f8 fe ff
	ff 00 00 00 00	 mov	 DWORD PTR tv793[ebp], 0
$LN124@create_lan:
  01394	68 bb 00 00 00	 push	 187			; 000000bbH
  01399	8b 4d 08	 mov	 ecx, DWORD PTR _keysite$[ebp]
  0139c	51		 push	 ecx
  0139d	69 95 fc fe ff
	ff 5c 04 00 00	 imul	 edx, DWORD PTR tv785[ebp], 1116
  013a7	8b 85 f8 fe ff
	ff		 mov	 eax, DWORD PTR tv793[ebp]
  013ad	8b 8c 82 00 00
	00 00		 mov	 ecx, DWORD PTR ?fn_get_local_entity_int_value@@3PAY0BBH@P6GHPAUENTITY@@W4INT_TYPES@@@ZA[edx+eax*4]
  013b4	ff d1		 call	 ecx
  013b6	50		 push	 eax
  013b7	8b 55 08	 mov	 edx, DWORD PTR _keysite$[ebp]
  013ba	52		 push	 edx
  013bb	e8 00 00 00 00	 call	 ?update_keysite_distance_to_friendly_base@@YGXPAUENTITY@@W4ENTITY_SIDES@@@Z ; update_keysite_distance_to_friendly_base
$LN27@create_lan:

; 1016 : 			}
; 1017 : 
; 1018 : 			//
; 1019 : 			// Link group to a division
; 1020 : 			//
; 1021 : 	
; 1022 : 			add_group_to_division (group, NULL);

  013c0	6a 00		 push	 0
  013c2	8b 85 48 ff ff
	ff		 mov	 eax, DWORD PTR _group$[ebp]
  013c8	50		 push	 eax
  013c9	e8 00 00 00 00	 call	 ?add_group_to_division@@YGPAUENTITY@@PAU1@0@Z ; add_group_to_division

; 1023 : 
; 1024 : 			return group;

  013ce	8b 85 48 ff ff
	ff		 mov	 eax, DWORD PTR _group$[ebp]
  013d4	eb 02		 jmp	 SHORT $LN1@create_lan
$LN20@create_lan:

; 1025 : 		}
; 1026 : 		else
; 1027 : 		{
; 1028 : 
; 1029 : 			#if DEBUG_MODULE
; 1030 : 
; 1031 : 			debug_log ("FACTION: cant regen. Free %d, reserved %d", free_sites, get_local_entity_int_value (landing_en, INT_TYPE_RESERVED_LANDING_SITES));
; 1032 : 
; 1033 : 			#endif
; 1034 : 		}
; 1035 : 	}
; 1036 : 
; 1037 : 	return NULL;

  013d6	33 c0		 xor	 eax, eax
$LN1@create_lan:

; 1038 : }

  013d8	5f		 pop	 edi
  013d9	5e		 pop	 esi
  013da	5b		 pop	 ebx
  013db	8b e5		 mov	 esp, ebp
  013dd	5d		 pop	 ebp
  013de	c2 18 00	 ret	 24			; 00000018H
?create_landing_faction_members@@YGPAUENTITY@@PAU1@HHH0PAUVEC3D@@@Z ENDP ; create_landing_faction_members
_TEXT	ENDS
; Function compile flags: /Odtp /ZI
; File c:\users\nhv90\projects\eech\aphavoc\source\ai\faction\faction.c
;	COMDAT ?create_landed_faction_group@@YGPAUENTITY@@PAU1@HW4FORMATION_COMPONENT_TYPES@@@Z
_TEXT	SEGMENT
tv422 = -220						; size = 4
tv414 = -216						; size = 4
tv398 = -212						; size = 4
tv965 = -208						; size = 4
tv390 = -208						; size = 4
tv669 = -204						; size = 4
tv642 = -204						; size = 4
tv584 = -204						; size = 4
tv563 = -204						; size = 4
tv543 = -204						; size = 4
tv518 = -204						; size = 4
tv497 = -204						; size = 4
tv468 = -204						; size = 4
tv373 = -204						; size = 4
tv352 = -204						; size = 4
tv331 = -204						; size = 4
tv309 = -204						; size = 4
tv283 = -204						; size = 4
tv262 = -204						; size = 4
tv215 = -204						; size = 4
tv190 = -204						; size = 4
tv169 = -204						; size = 4
tv89 = -204						; size = 4
tv661 = -200						; size = 4
tv634 = -200						; size = 4
tv621 = -200						; size = 4
tv576 = -200						; size = 4
tv555 = -200						; size = 4
tv535 = -200						; size = 4
tv511 = -200						; size = 4
tv489 = -200						; size = 4
tv460 = -200						; size = 4
tv365 = -200						; size = 4
tv345 = -200						; size = 4
tv323 = -200						; size = 4
tv301 = -200						; size = 4
tv275 = -200						; size = 4
tv255 = -200						; size = 4
tv207 = -200						; size = 4
tv182 = -200						; size = 4
tv161 = -200						; size = 4
tv81 = -200						; size = 4
_member_type$ = -132					; size = 4
_side$ = -128						; size = 4
_movement_parent$ = -124				; size = 4
_landing_en$ = -120					; size = 4
_parent$ = -116						; size = 4
_member$ = -112						; size = 4
_group$ = -108						; size = 4
_wp$ = -104						; size = 4
_list_type$ = -100					; size = 4
_loop$ = -96						; size = 4
_formation_position$ = -92				; size = 4
_index$ = -88						; size = 4
_number$ = -84						; size = 4
_face_normal$ = -80					; size = 12
_pos$ = -68						; size = 12
_attitude$ = -56					; size = 36
_roll$ = -20						; size = 4
_pitch$ = -16						; size = 4
_heading$ = -12						; size = 4
_fuselage_angle$ = -8					; size = 4
_formation_components$ = -4				; size = 4
_keysite$ = 8						; size = 4
_group_type$ = 12					; size = 4
_formation_component$ = 16				; size = 4
?create_landed_faction_group@@YGPAUENTITY@@PAU1@HW4FORMATION_COMPONENT_TYPES@@@Z PROC ; create_landed_faction_group, COMDAT

; 495  : {

  00000	55		 push	 ebp
  00001	8b ec		 mov	 ebp, esp
  00003	81 ec dc 00 00
	00		 sub	 esp, 220		; 000000dcH
  00009	53		 push	 ebx
  0000a	56		 push	 esi
  0000b	57		 push	 edi

; 496  : 
; 497  : 	formation_vehicle_components
; 498  : 		*formation_components;
; 499  : 
; 500  :    float
; 501  :       fuselage_angle = 0,

  0000c	0f 57 c0	 xorps	 xmm0, xmm0
  0000f	f3 0f 11 45 f8	 movss	 DWORD PTR _fuselage_angle$[ebp], xmm0

; 502  :       heading,
; 503  :       pitch,
; 504  :       roll;
; 505  : 
; 506  :    matrix3x3
; 507  :       attitude;
; 508  : 
; 509  :    vec3d
; 510  :       pos,
; 511  :       face_normal;
; 512  : 
; 513  :    int
; 514  : 		number,
; 515  : 		index,
; 516  :       formation_position,
; 517  :       loop;
; 518  : 
; 519  : 	list_types
; 520  : 		list_type;
; 521  : 
; 522  :    entity
; 523  :       *wp,
; 524  :       *group,
; 525  :       *member,
; 526  : 		*parent,
; 527  :       *landing_en,
; 528  : 		*movement_parent;
; 529  : 
; 530  : 	entity_sides
; 531  : 		side;
; 532  : 
; 533  : 	entity_sub_types
; 534  : 		member_type;
; 535  : 
; 536  : 	ASSERT (keysite);

  00014	83 7d 08 00	 cmp	 DWORD PTR _keysite$[ebp], 0
  00018	75 18		 jne	 SHORT $LN9@create_lan
  0001a	a1 00 00 00 00	 mov	 eax, DWORD PTR ?__LINE__Var@?0??create_landed_faction_group@@YGPAUENTITY@@PAU2@HW4FORMATION_COMPONENT_TYPES@@@Z@4JA
  0001f	83 c0 29	 add	 eax, 41			; 00000029H
  00022	50		 push	 eax
  00023	68 00 00 00 00	 push	 OFFSET ??_C@_0EB@JEOGKGCM@c?3?2users?2nhv90?2projects?2eech?2ap@
  00028	68 00 00 00 00	 push	 OFFSET ??_C@_07FBNBNOMI@keysite@
  0002d	e8 00 00 00 00	 call	 ?process_assert@@YGXPBD0H@Z ; process_assert
$LN9@create_lan:

; 537  : 
; 538  :    debug_assert (get_comms_model () == COMMS_MODEL_SERVER);

  00032	83 3d 00 00 00
	00 00		 cmp	 DWORD PTR ?system_comms_model@@3W4COMMS_MODEL_TYPES@@A, 0 ; system_comms_model
  00039	74 20		 je	 SHORT $LN10@create_lan
  0003b	a1 00 00 00 00	 mov	 eax, DWORD PTR ?__LINE__Var@?0??create_landed_faction_group@@YGPAUENTITY@@PAU2@HW4FORMATION_COMPONENT_TYPES@@@Z@4JA
  00040	83 c0 2b	 add	 eax, 43			; 0000002bH
  00043	50		 push	 eax
  00044	68 00 00 00 00	 push	 OFFSET ??_C@_0EB@JEOGKGCM@c?3?2users?2nhv90?2projects?2eech?2ap@
  00049	68 00 00 00 00	 push	 OFFSET ??_C@_0CJ@DMBLBJBK@get_comms_model?5?$CI?$CJ?5?$DN?$DN?5COMMS_MOD@
  0004e	68 00 00 00 00	 push	 OFFSET ??_C@_0BC@PODNONFH@ASSERT?5?$CFs?5?$CI?$CFs?3?$CFd?$CJ@
  00053	e8 00 00 00 00	 call	 ?debug_fatal@@YAXPBDZZ	; debug_fatal
  00058	83 c4 10	 add	 esp, 16			; 00000010H
$LN10@create_lan:

; 539  : 
; 540  : 	side = (entity_sides) get_local_entity_int_value (keysite, INT_TYPE_SIDE);

  0005b	83 7d 08 00	 cmp	 DWORD PTR _keysite$[ebp], 0
  0005f	74 0d		 je	 SHORT $LN26@create_lan
  00061	8b 45 08	 mov	 eax, DWORD PTR _keysite$[ebp]
  00064	8b 08		 mov	 ecx, DWORD PTR [eax]
  00066	89 8d 38 ff ff
	ff		 mov	 DWORD PTR tv81[ebp], ecx
  0006c	eb 24		 jmp	 SHORT $LN27@create_lan
$LN26@create_lan:
  0006e	8b 15 00 00 00
	00		 mov	 edx, DWORD PTR ?__LINE__Var@?0??create_landed_faction_group@@YGPAUENTITY@@PAU2@HW4FORMATION_COMPONENT_TYPES@@@Z@4JA
  00074	83 c2 2d	 add	 edx, 45			; 0000002dH
  00077	52		 push	 edx
  00078	68 00 00 00 00	 push	 OFFSET ??_C@_0EB@JEOGKGCM@c?3?2users?2nhv90?2projects?2eech?2ap@
  0007d	a1 00 00 00 00	 mov	 eax, DWORD PTR ?null_entity_pointer_message@@3PBDB ; null_entity_pointer_message
  00082	50		 push	 eax
  00083	e8 00 00 00 00	 call	 ?process_assert@@YGXPBD0H@Z ; process_assert
  00088	c7 85 38 ff ff
	ff 00 00 00 00	 mov	 DWORD PTR tv81[ebp], 0
$LN27@create_lan:
  00092	b9 01 00 00 00	 mov	 ecx, 1
  00097	85 c9		 test	 ecx, ecx
  00099	74 0c		 je	 SHORT $LN28@create_lan
  0009b	c7 85 34 ff ff
	ff bb 00 00 00	 mov	 DWORD PTR tv89[ebp], 187 ; 000000bbH
  000a5	eb 24		 jmp	 SHORT $LN29@create_lan
$LN28@create_lan:
  000a7	8b 15 00 00 00
	00		 mov	 edx, DWORD PTR ?__LINE__Var@?0??create_landed_faction_group@@YGPAUENTITY@@PAU2@HW4FORMATION_COMPONENT_TYPES@@@Z@4JA
  000ad	83 c2 2d	 add	 edx, 45			; 0000002dH
  000b0	52		 push	 edx
  000b1	68 00 00 00 00	 push	 OFFSET ??_C@_0EB@JEOGKGCM@c?3?2users?2nhv90?2projects?2eech?2ap@
  000b6	a1 00 00 00 00	 mov	 eax, DWORD PTR ?overload_invalid_int_type_message@@3PBDB ; overload_invalid_int_type_message
  000bb	50		 push	 eax
  000bc	e8 00 00 00 00	 call	 ?process_assert@@YGXPBD0H@Z ; process_assert
  000c1	c7 85 34 ff ff
	ff 00 00 00 00	 mov	 DWORD PTR tv89[ebp], 0
$LN29@create_lan:
  000cb	68 bb 00 00 00	 push	 187			; 000000bbH
  000d0	8b 4d 08	 mov	 ecx, DWORD PTR _keysite$[ebp]
  000d3	51		 push	 ecx
  000d4	69 95 38 ff ff
	ff 5c 04 00 00	 imul	 edx, DWORD PTR tv81[ebp], 1116
  000de	8b 85 34 ff ff
	ff		 mov	 eax, DWORD PTR tv89[ebp]
  000e4	8b 8c 82 00 00
	00 00		 mov	 ecx, DWORD PTR ?fn_get_local_entity_int_value@@3PAY0BBH@P6GHPAUENTITY@@W4INT_TYPES@@@ZA[edx+eax*4]
  000eb	ff d1		 call	 ecx
  000ed	89 45 80	 mov	 DWORD PTR _side$[ebp], eax

; 541  : 
; 542  : 	list_type = group_database [group_type].group_list_type;

  000f0	6b 45 0c 64	 imul	 eax, DWORD PTR _group_type$[ebp], 100
  000f4	8b 88 10 00 00
	00		 mov	 ecx, DWORD PTR ?group_database@@3PAUGROUP_DATA@@A[eax+16]
  000fa	89 4d 9c	 mov	 DWORD PTR _list_type$[ebp], ecx

; 543  : 
; 544  : 	if (list_type == LIST_TYPE_INDEPENDENT_GROUP)

  000fd	83 7d 9c 14	 cmp	 DWORD PTR _list_type$[ebp], 20 ; 00000014H
  00101	75 0e		 jne	 SHORT $LN11@create_lan

; 545  : 	{
; 546  : 		parent = get_local_force_entity (side);

  00103	8b 45 80	 mov	 eax, DWORD PTR _side$[ebp]
  00106	50		 push	 eax
  00107	e8 00 00 00 00	 call	 ?get_local_force_entity@@YGPAUENTITY@@W4ENTITY_SIDES@@@Z ; get_local_force_entity
  0010c	89 45 8c	 mov	 DWORD PTR _parent$[ebp], eax

; 547  : 	}
; 548  : 	else

  0010f	eb 06		 jmp	 SHORT $LN12@create_lan
$LN11@create_lan:

; 549  : 	{
; 550  : 		parent = keysite;

  00111	8b 45 08	 mov	 eax, DWORD PTR _keysite$[ebp]
  00114	89 45 8c	 mov	 DWORD PTR _parent$[ebp], eax
$LN12@create_lan:

; 551  : 	}
; 552  : 
; 553  : 	ASSERT (parent);

  00117	83 7d 8c 00	 cmp	 DWORD PTR _parent$[ebp], 0
  0011b	75 18		 jne	 SHORT $LN13@create_lan
  0011d	a1 00 00 00 00	 mov	 eax, DWORD PTR ?__LINE__Var@?0??create_landed_faction_group@@YGPAUENTITY@@PAU2@HW4FORMATION_COMPONENT_TYPES@@@Z@4JA
  00122	83 c0 3a	 add	 eax, 58			; 0000003aH
  00125	50		 push	 eax
  00126	68 00 00 00 00	 push	 OFFSET ??_C@_0EB@JEOGKGCM@c?3?2users?2nhv90?2projects?2eech?2ap@
  0012b	68 00 00 00 00	 push	 OFFSET ??_C@_06MLKDMCBD@parent@
  00130	e8 00 00 00 00	 call	 ?process_assert@@YGXPBD0H@Z ; process_assert
$LN13@create_lan:

; 554  : 
; 555  : 	ASSERT (get_game_status () == GAME_STATUS_INITIALISING);

  00135	83 3d 00 00 00
	00 02		 cmp	 DWORD PTR ?game_status@@3W4GAME_STATUS_TYPES@@A, 2 ; game_status
  0013c	74 18		 je	 SHORT $LN14@create_lan
  0013e	a1 00 00 00 00	 mov	 eax, DWORD PTR ?__LINE__Var@?0??create_landed_faction_group@@YGPAUENTITY@@PAU2@HW4FORMATION_COMPONENT_TYPES@@@Z@4JA
  00143	83 c0 3c	 add	 eax, 60			; 0000003cH
  00146	50		 push	 eax
  00147	68 00 00 00 00	 push	 OFFSET ??_C@_0EB@JEOGKGCM@c?3?2users?2nhv90?2projects?2eech?2ap@
  0014c	68 00 00 00 00	 push	 OFFSET ??_C@_0CP@NOCCPNPK@get_game_status?5?$CI?$CJ?5?$DN?$DN?5GAME_STAT@
  00151	e8 00 00 00 00	 call	 ?process_assert@@YGXPBD0H@Z ; process_assert
$LN14@create_lan:

; 556  : 
; 557  : 	formation_components = get_formation_components (formation_component);

  00156	8b 45 10	 mov	 eax, DWORD PTR _formation_component$[ebp]
  00159	50		 push	 eax
  0015a	e8 00 00 00 00	 call	 ?get_formation_components@@YGPAUFORMATION_VEHICLE_COMPONENTS@@W4FORMATION_COMPONENT_TYPES@@@Z ; get_formation_components
  0015f	89 45 fc	 mov	 DWORD PTR _formation_components$[ebp], eax

; 558  : 
; 559  : 	landing_en = NULL;

  00162	c7 45 88 00 00
	00 00		 mov	 DWORD PTR _landing_en$[ebp], 0

; 560  : 
; 561  :    landing_en = get_local_entity_landing_entity (keysite, group_database [group_type].default_landing_type);

  00169	6b 45 0c 64	 imul	 eax, DWORD PTR _group_type$[ebp], 100
  0016d	8b 88 18 00 00
	00		 mov	 ecx, DWORD PTR ?group_database@@3PAUGROUP_DATA@@A[eax+24]
  00173	51		 push	 ecx
  00174	8b 55 08	 mov	 edx, DWORD PTR _keysite$[ebp]
  00177	52		 push	 edx
  00178	e8 00 00 00 00	 call	 ?get_local_entity_landing_entity@@YGPAUENTITY@@PAU1@H@Z ; get_local_entity_landing_entity
  0017d	89 45 88	 mov	 DWORD PTR _landing_en$[ebp], eax

; 562  : 
; 563  :    if (landing_en)

  00180	83 7d 88 00	 cmp	 DWORD PTR _landing_en$[ebp], 0
  00184	0f 84 f5 0d 00
	00		 je	 $LN15@create_lan

; 564  :    {
; 565  : 
; 566  :       //
; 567  :       // skip through route to last waypoint, i.e. landed waypoint.
; 568  :       //
; 569  : 
; 570  :       wp = get_local_landing_entity_route (landing_en, ENTITY_SUB_TYPE_TASK_LANDING);

  0018a	6a 0d		 push	 13			; 0000000dH
  0018c	8b 45 88	 mov	 eax, DWORD PTR _landing_en$[ebp]
  0018f	50		 push	 eax
  00190	e8 00 00 00 00	 call	 ?get_local_landing_entity_route@@YGPAUENTITY@@PAU1@H@Z ; get_local_landing_entity_route
  00195	89 45 98	 mov	 DWORD PTR _wp$[ebp], eax
$LN2@create_lan:

; 571  : 
; 572  :       while (get_local_entity_child_succ (wp, LIST_TYPE_WAYPOINT))

  00198	83 7d 98 00	 cmp	 DWORD PTR _wp$[ebp], 0
  0019c	74 0d		 je	 SHORT $LN30@create_lan
  0019e	8b 45 98	 mov	 eax, DWORD PTR _wp$[ebp]
  001a1	8b 08		 mov	 ecx, DWORD PTR [eax]
  001a3	89 8d 38 ff ff
	ff		 mov	 DWORD PTR tv161[ebp], ecx
  001a9	eb 24		 jmp	 SHORT $LN31@create_lan
$LN30@create_lan:
  001ab	8b 15 00 00 00
	00		 mov	 edx, DWORD PTR ?__LINE__Var@?0??create_landed_faction_group@@YGPAUENTITY@@PAU2@HW4FORMATION_COMPONENT_TYPES@@@Z@4JA
  001b1	83 c2 4d	 add	 edx, 77			; 0000004dH
  001b4	52		 push	 edx
  001b5	68 00 00 00 00	 push	 OFFSET ??_C@_0EB@JEOGKGCM@c?3?2users?2nhv90?2projects?2eech?2ap@
  001ba	a1 00 00 00 00	 mov	 eax, DWORD PTR ?null_entity_pointer_message@@3PBDB ; null_entity_pointer_message
  001bf	50		 push	 eax
  001c0	e8 00 00 00 00	 call	 ?process_assert@@YGXPBD0H@Z ; process_assert
  001c5	c7 85 38 ff ff
	ff 00 00 00 00	 mov	 DWORD PTR tv161[ebp], 0
$LN31@create_lan:
  001cf	b9 01 00 00 00	 mov	 ecx, 1
  001d4	85 c9		 test	 ecx, ecx
  001d6	74 0c		 je	 SHORT $LN32@create_lan
  001d8	c7 85 34 ff ff
	ff 2c 00 00 00	 mov	 DWORD PTR tv169[ebp], 44 ; 0000002cH
  001e2	eb 24		 jmp	 SHORT $LN33@create_lan
$LN32@create_lan:
  001e4	8b 15 00 00 00
	00		 mov	 edx, DWORD PTR ?__LINE__Var@?0??create_landed_faction_group@@YGPAUENTITY@@PAU2@HW4FORMATION_COMPONENT_TYPES@@@Z@4JA
  001ea	83 c2 4d	 add	 edx, 77			; 0000004dH
  001ed	52		 push	 edx
  001ee	68 00 00 00 00	 push	 OFFSET ??_C@_0EB@JEOGKGCM@c?3?2users?2nhv90?2projects?2eech?2ap@
  001f3	a1 00 00 00 00	 mov	 eax, DWORD PTR ?overload_invalid_list_type_message@@3PBDB ; overload_invalid_list_type_message
  001f8	50		 push	 eax
  001f9	e8 00 00 00 00	 call	 ?process_assert@@YGXPBD0H@Z ; process_assert
  001fe	c7 85 34 ff ff
	ff 00 00 00 00	 mov	 DWORD PTR tv169[ebp], 0
$LN33@create_lan:
  00208	6a 2c		 push	 44			; 0000002cH
  0020a	8b 4d 98	 mov	 ecx, DWORD PTR _wp$[ebp]
  0020d	51		 push	 ecx
  0020e	69 95 38 ff ff
	ff b4 00 00 00	 imul	 edx, DWORD PTR tv161[ebp], 180
  00218	8b 85 34 ff ff
	ff		 mov	 eax, DWORD PTR tv169[ebp]
  0021e	8b 8c 82 00 00
	00 00		 mov	 ecx, DWORD PTR ?fn_get_local_entity_child_succ@@3PAY0CN@P6GPAUENTITY@@PAU1@W4LIST_TYPES@@@ZA[edx+eax*4]
  00225	ff d1		 call	 ecx
  00227	85 c0		 test	 eax, eax
  00229	0f 84 97 00 00
	00		 je	 $LN3@create_lan

; 573  :       {
; 574  : 
; 575  :          wp = get_local_entity_child_succ (wp, LIST_TYPE_WAYPOINT);

  0022f	83 7d 98 00	 cmp	 DWORD PTR _wp$[ebp], 0
  00233	74 0d		 je	 SHORT $LN34@create_lan
  00235	8b 45 98	 mov	 eax, DWORD PTR _wp$[ebp]
  00238	8b 08		 mov	 ecx, DWORD PTR [eax]
  0023a	89 8d 38 ff ff
	ff		 mov	 DWORD PTR tv182[ebp], ecx
  00240	eb 24		 jmp	 SHORT $LN35@create_lan
$LN34@create_lan:
  00242	8b 15 00 00 00
	00		 mov	 edx, DWORD PTR ?__LINE__Var@?0??create_landed_faction_group@@YGPAUENTITY@@PAU2@HW4FORMATION_COMPONENT_TYPES@@@Z@4JA
  00248	83 c2 50	 add	 edx, 80			; 00000050H
  0024b	52		 push	 edx
  0024c	68 00 00 00 00	 push	 OFFSET ??_C@_0EB@JEOGKGCM@c?3?2users?2nhv90?2projects?2eech?2ap@
  00251	a1 00 00 00 00	 mov	 eax, DWORD PTR ?null_entity_pointer_message@@3PBDB ; null_entity_pointer_message
  00256	50		 push	 eax
  00257	e8 00 00 00 00	 call	 ?process_assert@@YGXPBD0H@Z ; process_assert
  0025c	c7 85 38 ff ff
	ff 00 00 00 00	 mov	 DWORD PTR tv182[ebp], 0
$LN35@create_lan:
  00266	b9 01 00 00 00	 mov	 ecx, 1
  0026b	85 c9		 test	 ecx, ecx
  0026d	74 0c		 je	 SHORT $LN36@create_lan
  0026f	c7 85 34 ff ff
	ff 2c 00 00 00	 mov	 DWORD PTR tv190[ebp], 44 ; 0000002cH
  00279	eb 24		 jmp	 SHORT $LN37@create_lan
$LN36@create_lan:
  0027b	8b 15 00 00 00
	00		 mov	 edx, DWORD PTR ?__LINE__Var@?0??create_landed_faction_group@@YGPAUENTITY@@PAU2@HW4FORMATION_COMPONENT_TYPES@@@Z@4JA
  00281	83 c2 50	 add	 edx, 80			; 00000050H
  00284	52		 push	 edx
  00285	68 00 00 00 00	 push	 OFFSET ??_C@_0EB@JEOGKGCM@c?3?2users?2nhv90?2projects?2eech?2ap@
  0028a	a1 00 00 00 00	 mov	 eax, DWORD PTR ?overload_invalid_list_type_message@@3PBDB ; overload_invalid_list_type_message
  0028f	50		 push	 eax
  00290	e8 00 00 00 00	 call	 ?process_assert@@YGXPBD0H@Z ; process_assert
  00295	c7 85 34 ff ff
	ff 00 00 00 00	 mov	 DWORD PTR tv190[ebp], 0
$LN37@create_lan:
  0029f	6a 2c		 push	 44			; 0000002cH
  002a1	8b 4d 98	 mov	 ecx, DWORD PTR _wp$[ebp]
  002a4	51		 push	 ecx
  002a5	69 95 38 ff ff
	ff b4 00 00 00	 imul	 edx, DWORD PTR tv182[ebp], 180
  002af	8b 85 34 ff ff
	ff		 mov	 eax, DWORD PTR tv190[ebp]
  002b5	8b 8c 82 00 00
	00 00		 mov	 ecx, DWORD PTR ?fn_get_local_entity_child_succ@@3PAY0CN@P6GPAUENTITY@@PAU1@W4LIST_TYPES@@@ZA[edx+eax*4]
  002bc	ff d1		 call	 ecx
  002be	89 45 98	 mov	 DWORD PTR _wp$[ebp], eax

; 576  :       }

  002c1	e9 d2 fe ff ff	 jmp	 $LN2@create_lan
$LN3@create_lan:

; 577  : 
; 578  :       ASSERT (wp);

  002c6	83 7d 98 00	 cmp	 DWORD PTR _wp$[ebp], 0
  002ca	75 18		 jne	 SHORT $LN17@create_lan
  002cc	a1 00 00 00 00	 mov	 eax, DWORD PTR ?__LINE__Var@?0??create_landed_faction_group@@YGPAUENTITY@@PAU2@HW4FORMATION_COMPONENT_TYPES@@@Z@4JA
  002d1	83 c0 53	 add	 eax, 83			; 00000053H
  002d4	50		 push	 eax
  002d5	68 00 00 00 00	 push	 OFFSET ??_C@_0EB@JEOGKGCM@c?3?2users?2nhv90?2projects?2eech?2ap@
  002da	68 00 00 00 00	 push	 OFFSET ??_C@_02HODPCBMO@wp@
  002df	e8 00 00 00 00	 call	 ?process_assert@@YGXPBD0H@Z ; process_assert
$LN17@create_lan:

; 579  : 
; 580  : 		//
; 581  : 		// create group
; 582  : 		//
; 583  : 
; 584  : 		get_local_entity_vec3d (keysite, VEC3D_TYPE_POSITION, &pos);

  002e4	83 7d 08 00	 cmp	 DWORD PTR _keysite$[ebp], 0
  002e8	74 0d		 je	 SHORT $LN38@create_lan
  002ea	8b 45 08	 mov	 eax, DWORD PTR _keysite$[ebp]
  002ed	8b 08		 mov	 ecx, DWORD PTR [eax]
  002ef	89 8d 38 ff ff
	ff		 mov	 DWORD PTR tv207[ebp], ecx
  002f5	eb 24		 jmp	 SHORT $LN39@create_lan
$LN38@create_lan:
  002f7	8b 15 00 00 00
	00		 mov	 edx, DWORD PTR ?__LINE__Var@?0??create_landed_faction_group@@YGPAUENTITY@@PAU2@HW4FORMATION_COMPONENT_TYPES@@@Z@4JA
  002fd	83 c2 59	 add	 edx, 89			; 00000059H
  00300	52		 push	 edx
  00301	68 00 00 00 00	 push	 OFFSET ??_C@_0EB@JEOGKGCM@c?3?2users?2nhv90?2projects?2eech?2ap@
  00306	a1 00 00 00 00	 mov	 eax, DWORD PTR ?null_entity_pointer_message@@3PBDB ; null_entity_pointer_message
  0030b	50		 push	 eax
  0030c	e8 00 00 00 00	 call	 ?process_assert@@YGXPBD0H@Z ; process_assert
  00311	c7 85 38 ff ff
	ff 00 00 00 00	 mov	 DWORD PTR tv207[ebp], 0
$LN39@create_lan:
  0031b	b9 01 00 00 00	 mov	 ecx, 1
  00320	85 c9		 test	 ecx, ecx
  00322	74 0c		 je	 SHORT $LN40@create_lan
  00324	c7 85 34 ff ff
	ff 08 00 00 00	 mov	 DWORD PTR tv215[ebp], 8
  0032e	eb 24		 jmp	 SHORT $LN41@create_lan
$LN40@create_lan:
  00330	8b 15 00 00 00
	00		 mov	 edx, DWORD PTR ?__LINE__Var@?0??create_landed_faction_group@@YGPAUENTITY@@PAU2@HW4FORMATION_COMPONENT_TYPES@@@Z@4JA
  00336	83 c2 59	 add	 edx, 89			; 00000059H
  00339	52		 push	 edx
  0033a	68 00 00 00 00	 push	 OFFSET ??_C@_0EB@JEOGKGCM@c?3?2users?2nhv90?2projects?2eech?2ap@
  0033f	a1 00 00 00 00	 mov	 eax, DWORD PTR ?overload_invalid_vec3d_type_message@@3PBDB ; overload_invalid_vec3d_type_message
  00344	50		 push	 eax
  00345	e8 00 00 00 00	 call	 ?process_assert@@YGXPBD0H@Z ; process_assert
  0034a	c7 85 34 ff ff
	ff 00 00 00 00	 mov	 DWORD PTR tv215[ebp], 0
$LN41@create_lan:
  00354	8d 4d bc	 lea	 ecx, DWORD PTR _pos$[ebp]
  00357	51		 push	 ecx
  00358	6a 08		 push	 8
  0035a	8b 55 08	 mov	 edx, DWORD PTR _keysite$[ebp]
  0035d	52		 push	 edx
  0035e	6b 85 38 ff ff
	ff 60		 imul	 eax, DWORD PTR tv207[ebp], 96
  00365	8b 8d 34 ff ff
	ff		 mov	 ecx, DWORD PTR tv215[ebp]
  0036b	8b 94 88 00 00
	00 00		 mov	 edx, DWORD PTR ?fn_get_local_entity_vec3d@@3PAY0BI@P6GXPAUENTITY@@W4VEC3D_TYPES@@PAUVEC3D@@@ZA[eax+ecx*4]
  00372	ff d2		 call	 edx

; 585  : 
; 586  : 		group = create_local_entity

  00374	6a 00		 push	 0
  00376	8b 45 80	 mov	 eax, DWORD PTR _side$[ebp]
  00379	50		 push	 eax
  0037a	68 bb 00 00 00	 push	 187			; 000000bbH
  0037f	6a 05		 push	 5
  00381	8b 4d 0c	 mov	 ecx, DWORD PTR _group_type$[ebp]
  00384	51		 push	 ecx
  00385	6a 34		 push	 52			; 00000034H
  00387	6a 05		 push	 5
  00389	f3 0f 5a 45 c4	 cvtss2sd xmm0, DWORD PTR _pos$[ebp+8]
  0038e	83 ec 08	 sub	 esp, 8
  00391	f2 0f 11 04 24	 movsd	 QWORD PTR [esp], xmm0
  00396	f3 0f 5a 45 c0	 cvtss2sd xmm0, DWORD PTR _pos$[ebp+4]
  0039b	83 ec 08	 sub	 esp, 8
  0039e	f2 0f 11 04 24	 movsd	 QWORD PTR [esp], xmm0
  003a3	f3 0f 5a 45 bc	 cvtss2sd xmm0, DWORD PTR _pos$[ebp]
  003a8	83 ec 08	 sub	 esp, 8
  003ab	f2 0f 11 04 24	 movsd	 QWORD PTR [esp], xmm0
  003b0	6a 08		 push	 8
  003b2	6a 09		 push	 9
  003b4	8b 55 8c	 mov	 edx, DWORD PTR _parent$[ebp]
  003b7	52		 push	 edx
  003b8	8b 45 9c	 mov	 eax, DWORD PTR _list_type$[ebp]
  003bb	50		 push	 eax
  003bc	6a 06		 push	 6
  003be	6a ff		 push	 -1
  003c0	6a 0c		 push	 12			; 0000000cH
  003c2	e8 00 00 00 00	 call	 ?create_local_entity@@YAPAUENTITY@@W4ENTITY_TYPES@@HZZ ; create_local_entity
  003c7	83 c4 50	 add	 esp, 80			; 00000050H
  003ca	89 45 94	 mov	 DWORD PTR _group$[ebp], eax

; 587  : 		(
; 588  : 			ENTITY_TYPE_GROUP,
; 589  : 			ENTITY_INDEX_DONT_CARE,
; 590  : 			ENTITY_ATTR_PARENT (list_type, parent),
; 591  : 			ENTITY_ATTR_VEC3D (VEC3D_TYPE_POSITION, pos.x, pos.y, pos.z),
; 592  : 			ENTITY_ATTR_INT_VALUE (INT_TYPE_ENTITY_SUB_TYPE, group_type),
; 593  : 			ENTITY_ATTR_INT_VALUE (INT_TYPE_SIDE, side),
; 594  : 			ENTITY_ATTR_END
; 595  : 		);
; 596  : 
; 597  : 		//
; 598  : 		// create members
; 599  : 		//
; 600  : 
; 601  : 		ASSERT (formation_components);

  003cd	83 7d fc 00	 cmp	 DWORD PTR _formation_components$[ebp], 0
  003d1	75 18		 jne	 SHORT $LN18@create_lan
  003d3	a1 00 00 00 00	 mov	 eax, DWORD PTR ?__LINE__Var@?0??create_landed_faction_group@@YGPAUENTITY@@PAU2@HW4FORMATION_COMPONENT_TYPES@@@Z@4JA
  003d8	83 c0 6a	 add	 eax, 106		; 0000006aH
  003db	50		 push	 eax
  003dc	68 00 00 00 00	 push	 OFFSET ??_C@_0EB@JEOGKGCM@c?3?2users?2nhv90?2projects?2eech?2ap@
  003e1	68 00 00 00 00	 push	 OFFSET ??_C@_0BF@LBOCPGPN@formation_components@
  003e6	e8 00 00 00 00	 call	 ?process_assert@@YGXPBD0H@Z ; process_assert
$LN18@create_lan:

; 602  : 
; 603  : 		number = formation_components->count;

  003eb	8b 45 fc	 mov	 eax, DWORD PTR _formation_components$[ebp]
  003ee	8b 48 08	 mov	 ecx, DWORD PTR [eax+8]
  003f1	89 4d ac	 mov	 DWORD PTR _number$[ebp], ecx

; 604  : 
; 605  : 		for (loop = 0; loop < number; loop++)

  003f4	c7 45 a0 00 00
	00 00		 mov	 DWORD PTR _loop$[ebp], 0
  003fb	eb 09		 jmp	 SHORT $LN6@create_lan
$LN4@create_lan:
  003fd	8b 45 a0	 mov	 eax, DWORD PTR _loop$[ebp]
  00400	83 c0 01	 add	 eax, 1
  00403	89 45 a0	 mov	 DWORD PTR _loop$[ebp], eax
$LN6@create_lan:
  00406	8b 45 a0	 mov	 eax, DWORD PTR _loop$[ebp]
  00409	3b 45 ac	 cmp	 eax, DWORD PTR _number$[ebp]
  0040c	0f 8d 57 0b 00
	00		 jge	 $LN5@create_lan

; 606  : 		{
; 607  : 
; 608  : 			//
; 609  : 			// mark Keysite as used (after it has actually been used!)
; 610  : 			//
; 611  : 
; 612  : 			if (!get_local_entity_int_value (keysite, INT_TYPE_IN_USE))

  00412	83 7d 08 00	 cmp	 DWORD PTR _keysite$[ebp], 0
  00416	74 0d		 je	 SHORT $LN42@create_lan
  00418	8b 45 08	 mov	 eax, DWORD PTR _keysite$[ebp]
  0041b	8b 08		 mov	 ecx, DWORD PTR [eax]
  0041d	89 8d 38 ff ff
	ff		 mov	 DWORD PTR tv255[ebp], ecx
  00423	eb 20		 jmp	 SHORT $LN43@create_lan
$LN42@create_lan:
  00425	68 64 02 00 00	 push	 612			; 00000264H
  0042a	68 00 00 00 00	 push	 OFFSET ??_C@_0EB@JEOGKGCM@c?3?2users?2nhv90?2projects?2eech?2ap@
  0042f	8b 15 00 00 00
	00		 mov	 edx, DWORD PTR ?null_entity_pointer_message@@3PBDB ; null_entity_pointer_message
  00435	52		 push	 edx
  00436	e8 00 00 00 00	 call	 ?process_assert@@YGXPBD0H@Z ; process_assert
  0043b	c7 85 38 ff ff
	ff 00 00 00 00	 mov	 DWORD PTR tv255[ebp], 0
$LN43@create_lan:
  00445	b8 01 00 00 00	 mov	 eax, 1
  0044a	85 c0		 test	 eax, eax
  0044c	74 0c		 je	 SHORT $LN44@create_lan
  0044e	c7 85 34 ff ff
	ff 6d 00 00 00	 mov	 DWORD PTR tv262[ebp], 109 ; 0000006dH
  00458	eb 20		 jmp	 SHORT $LN45@create_lan
$LN44@create_lan:
  0045a	68 64 02 00 00	 push	 612			; 00000264H
  0045f	68 00 00 00 00	 push	 OFFSET ??_C@_0EB@JEOGKGCM@c?3?2users?2nhv90?2projects?2eech?2ap@
  00464	8b 0d 00 00 00
	00		 mov	 ecx, DWORD PTR ?overload_invalid_int_type_message@@3PBDB ; overload_invalid_int_type_message
  0046a	51		 push	 ecx
  0046b	e8 00 00 00 00	 call	 ?process_assert@@YGXPBD0H@Z ; process_assert
  00470	c7 85 34 ff ff
	ff 00 00 00 00	 mov	 DWORD PTR tv262[ebp], 0
$LN45@create_lan:
  0047a	6a 6d		 push	 109			; 0000006dH
  0047c	8b 55 08	 mov	 edx, DWORD PTR _keysite$[ebp]
  0047f	52		 push	 edx
  00480	69 85 38 ff ff
	ff 5c 04 00 00	 imul	 eax, DWORD PTR tv255[ebp], 1116
  0048a	8b 8d 34 ff ff
	ff		 mov	 ecx, DWORD PTR tv262[ebp]
  00490	8b 94 88 00 00
	00 00		 mov	 edx, DWORD PTR ?fn_get_local_entity_int_value@@3PAY0BBH@P6GHPAUENTITY@@W4INT_TYPES@@@ZA[eax+ecx*4]
  00497	ff d2		 call	 edx
  00499	85 c0		 test	 eax, eax
  0049b	0f 85 b4 00 00
	00		 jne	 $LN19@create_lan

; 613  : 			{
; 614  : 
; 615  : 				set_local_entity_int_value (keysite, INT_TYPE_IN_USE, TRUE);

  004a1	83 7d 08 00	 cmp	 DWORD PTR _keysite$[ebp], 0
  004a5	74 0d		 je	 SHORT $LN46@create_lan
  004a7	8b 45 08	 mov	 eax, DWORD PTR _keysite$[ebp]
  004aa	8b 08		 mov	 ecx, DWORD PTR [eax]
  004ac	89 8d 38 ff ff
	ff		 mov	 DWORD PTR tv275[ebp], ecx
  004b2	eb 24		 jmp	 SHORT $LN47@create_lan
$LN46@create_lan:
  004b4	8b 15 00 00 00
	00		 mov	 edx, DWORD PTR ?__LINE__Var@?0??create_landed_faction_group@@YGPAUENTITY@@PAU2@HW4FORMATION_COMPONENT_TYPES@@@Z@4JA
  004ba	83 c2 78	 add	 edx, 120		; 00000078H
  004bd	52		 push	 edx
  004be	68 00 00 00 00	 push	 OFFSET ??_C@_0EB@JEOGKGCM@c?3?2users?2nhv90?2projects?2eech?2ap@
  004c3	a1 00 00 00 00	 mov	 eax, DWORD PTR ?null_entity_pointer_message@@3PBDB ; null_entity_pointer_message
  004c8	50		 push	 eax
  004c9	e8 00 00 00 00	 call	 ?process_assert@@YGXPBD0H@Z ; process_assert
  004ce	c7 85 38 ff ff
	ff 00 00 00 00	 mov	 DWORD PTR tv275[ebp], 0
$LN47@create_lan:
  004d8	b9 01 00 00 00	 mov	 ecx, 1
  004dd	85 c9		 test	 ecx, ecx
  004df	74 0c		 je	 SHORT $LN48@create_lan
  004e1	c7 85 34 ff ff
	ff 6d 00 00 00	 mov	 DWORD PTR tv283[ebp], 109 ; 0000006dH
  004eb	eb 24		 jmp	 SHORT $LN49@create_lan
$LN48@create_lan:
  004ed	8b 15 00 00 00
	00		 mov	 edx, DWORD PTR ?__LINE__Var@?0??create_landed_faction_group@@YGPAUENTITY@@PAU2@HW4FORMATION_COMPONENT_TYPES@@@Z@4JA
  004f3	83 c2 78	 add	 edx, 120		; 00000078H
  004f6	52		 push	 edx
  004f7	68 00 00 00 00	 push	 OFFSET ??_C@_0EB@JEOGKGCM@c?3?2users?2nhv90?2projects?2eech?2ap@
  004fc	a1 00 00 00 00	 mov	 eax, DWORD PTR ?overload_invalid_int_type_message@@3PBDB ; overload_invalid_int_type_message
  00501	50		 push	 eax
  00502	e8 00 00 00 00	 call	 ?process_assert@@YGXPBD0H@Z ; process_assert
  00507	c7 85 34 ff ff
	ff 00 00 00 00	 mov	 DWORD PTR tv283[ebp], 0
$LN49@create_lan:
  00511	6a 01		 push	 1
  00513	6a 6d		 push	 109			; 0000006dH
  00515	8b 4d 08	 mov	 ecx, DWORD PTR _keysite$[ebp]
  00518	51		 push	 ecx
  00519	69 95 38 ff ff
	ff 5c 04 00 00	 imul	 edx, DWORD PTR tv275[ebp], 1116
  00523	8b 85 34 ff ff
	ff		 mov	 eax, DWORD PTR tv283[ebp]
  00529	8b 8c 82 00 00
	00 00		 mov	 ecx, DWORD PTR ?fn_set_local_entity_int_value@@3PAY0BBH@P6GXPAUENTITY@@W4INT_TYPES@@H@ZA[edx+eax*4]
  00530	ff d1		 call	 ecx

; 616  : 
; 617  : 				update_imap_sector_side (keysite, TRUE);

  00532	6a 01		 push	 1
  00534	8b 45 08	 mov	 eax, DWORD PTR _keysite$[ebp]
  00537	50		 push	 eax
  00538	e8 00 00 00 00	 call	 ?update_imap_sector_side@@YGXPAUENTITY@@H@Z ; update_imap_sector_side

; 618  : 
; 619  : 				update_imap_importance_level (keysite, TRUE);

  0053d	6a 01		 push	 1
  0053f	8b 45 08	 mov	 eax, DWORD PTR _keysite$[ebp]
  00542	50		 push	 eax
  00543	e8 00 00 00 00	 call	 ?update_imap_importance_level@@YGXPAUENTITY@@H@Z ; update_imap_importance_level

; 620  : 
; 621  : 				update_keysite_distance_to_friendly_base (keysite, side);

  00548	8b 45 80	 mov	 eax, DWORD PTR _side$[ebp]
  0054b	50		 push	 eax
  0054c	8b 4d 08	 mov	 ecx, DWORD PTR _keysite$[ebp]
  0054f	51		 push	 ecx
  00550	e8 00 00 00 00	 call	 ?update_keysite_distance_to_friendly_base@@YGXPAUENTITY@@W4ENTITY_SIDES@@@Z ; update_keysite_distance_to_friendly_base
$LN19@create_lan:

; 622  : 			}
; 623  : 
; 624  : 			//
; 625  : 			// calculate formation position to suite landing entity
; 626  : 			//
; 627  : 
; 628  : 			formation_position = 0;

  00555	c7 45 a4 00 00
	00 00		 mov	 DWORD PTR _formation_position$[ebp], 0
$LN7@create_lan:

; 629  : 
; 630  : 			while ((formation_position < get_local_entity_int_value (landing_en, INT_TYPE_TOTAL_LANDING_SITES)) &&

  0055c	83 7d 88 00	 cmp	 DWORD PTR _landing_en$[ebp], 0
  00560	74 0d		 je	 SHORT $LN50@create_lan
  00562	8b 45 88	 mov	 eax, DWORD PTR _landing_en$[ebp]
  00565	8b 08		 mov	 ecx, DWORD PTR [eax]
  00567	89 8d 38 ff ff
	ff		 mov	 DWORD PTR tv301[ebp], ecx
  0056d	eb 27		 jmp	 SHORT $LN51@create_lan
$LN50@create_lan:
  0056f	8b 15 00 00 00
	00		 mov	 edx, DWORD PTR ?__LINE__Var@?0??create_landed_faction_group@@YGPAUENTITY@@PAU2@HW4FORMATION_COMPONENT_TYPES@@@Z@4JA
  00575	81 c2 87 00 00
	00		 add	 edx, 135		; 00000087H
  0057b	52		 push	 edx
  0057c	68 00 00 00 00	 push	 OFFSET ??_C@_0EB@JEOGKGCM@c?3?2users?2nhv90?2projects?2eech?2ap@
  00581	a1 00 00 00 00	 mov	 eax, DWORD PTR ?null_entity_pointer_message@@3PBDB ; null_entity_pointer_message
  00586	50		 push	 eax
  00587	e8 00 00 00 00	 call	 ?process_assert@@YGXPBD0H@Z ; process_assert
  0058c	c7 85 38 ff ff
	ff 00 00 00 00	 mov	 DWORD PTR tv301[ebp], 0
$LN51@create_lan:
  00596	b9 01 00 00 00	 mov	 ecx, 1
  0059b	85 c9		 test	 ecx, ecx
  0059d	74 0c		 je	 SHORT $LN52@create_lan
  0059f	c7 85 34 ff ff
	ff eb 00 00 00	 mov	 DWORD PTR tv309[ebp], 235 ; 000000ebH
  005a9	eb 27		 jmp	 SHORT $LN53@create_lan
$LN52@create_lan:
  005ab	8b 15 00 00 00
	00		 mov	 edx, DWORD PTR ?__LINE__Var@?0??create_landed_faction_group@@YGPAUENTITY@@PAU2@HW4FORMATION_COMPONENT_TYPES@@@Z@4JA
  005b1	81 c2 87 00 00
	00		 add	 edx, 135		; 00000087H
  005b7	52		 push	 edx
  005b8	68 00 00 00 00	 push	 OFFSET ??_C@_0EB@JEOGKGCM@c?3?2users?2nhv90?2projects?2eech?2ap@
  005bd	a1 00 00 00 00	 mov	 eax, DWORD PTR ?overload_invalid_int_type_message@@3PBDB ; overload_invalid_int_type_message
  005c2	50		 push	 eax
  005c3	e8 00 00 00 00	 call	 ?process_assert@@YGXPBD0H@Z ; process_assert
  005c8	c7 85 34 ff ff
	ff 00 00 00 00	 mov	 DWORD PTR tv309[ebp], 0
$LN53@create_lan:
  005d2	68 eb 00 00 00	 push	 235			; 000000ebH
  005d7	8b 4d 88	 mov	 ecx, DWORD PTR _landing_en$[ebp]
  005da	51		 push	 ecx
  005db	69 95 38 ff ff
	ff 5c 04 00 00	 imul	 edx, DWORD PTR tv301[ebp], 1116
  005e5	8b 85 34 ff ff
	ff		 mov	 eax, DWORD PTR tv309[ebp]
  005eb	8b 8c 82 00 00
	00 00		 mov	 ecx, DWORD PTR ?fn_get_local_entity_int_value@@3PAY0BBH@P6GHPAUENTITY@@W4INT_TYPES@@@ZA[edx+eax*4]
  005f2	ff d1		 call	 ecx
  005f4	39 45 a4	 cmp	 DWORD PTR _formation_position$[ebp], eax
  005f7	0f 8d b1 00 00
	00		 jge	 $LN8@create_lan
  005fd	83 7d 88 00	 cmp	 DWORD PTR _landing_en$[ebp], 0
  00601	74 0d		 je	 SHORT $LN54@create_lan
  00603	8b 45 88	 mov	 eax, DWORD PTR _landing_en$[ebp]
  00606	8b 08		 mov	 ecx, DWORD PTR [eax]
  00608	89 8d 38 ff ff
	ff		 mov	 DWORD PTR tv323[ebp], ecx
  0060e	eb 27		 jmp	 SHORT $LN55@create_lan
$LN54@create_lan:
  00610	8b 15 00 00 00
	00		 mov	 edx, DWORD PTR ?__LINE__Var@?0??create_landed_faction_group@@YGPAUENTITY@@PAU2@HW4FORMATION_COMPONENT_TYPES@@@Z@4JA
  00616	81 c2 88 00 00
	00		 add	 edx, 136		; 00000088H
  0061c	52		 push	 edx
  0061d	68 00 00 00 00	 push	 OFFSET ??_C@_0EB@JEOGKGCM@c?3?2users?2nhv90?2projects?2eech?2ap@
  00622	a1 00 00 00 00	 mov	 eax, DWORD PTR ?null_entity_pointer_message@@3PBDB ; null_entity_pointer_message
  00627	50		 push	 eax
  00628	e8 00 00 00 00	 call	 ?process_assert@@YGXPBD0H@Z ; process_assert
  0062d	c7 85 38 ff ff
	ff 00 00 00 00	 mov	 DWORD PTR tv323[ebp], 0
$LN55@create_lan:
  00637	b9 01 00 00 00	 mov	 ecx, 1
  0063c	85 c9		 test	 ecx, ecx
  0063e	74 0c		 je	 SHORT $LN56@create_lan
  00640	c7 85 34 ff ff
	ff 74 00 00 00	 mov	 DWORD PTR tv331[ebp], 116 ; 00000074H
  0064a	eb 27		 jmp	 SHORT $LN57@create_lan
$LN56@create_lan:
  0064c	8b 15 00 00 00
	00		 mov	 edx, DWORD PTR ?__LINE__Var@?0??create_landed_faction_group@@YGPAUENTITY@@PAU2@HW4FORMATION_COMPONENT_TYPES@@@Z@4JA
  00652	81 c2 88 00 00
	00		 add	 edx, 136		; 00000088H
  00658	52		 push	 edx
  00659	68 00 00 00 00	 push	 OFFSET ??_C@_0EB@JEOGKGCM@c?3?2users?2nhv90?2projects?2eech?2ap@
  0065e	a1 00 00 00 00	 mov	 eax, DWORD PTR ?overload_invalid_int_type_message@@3PBDB ; overload_invalid_int_type_message
  00663	50		 push	 eax
  00664	e8 00 00 00 00	 call	 ?process_assert@@YGXPBD0H@Z ; process_assert
  00669	c7 85 34 ff ff
	ff 00 00 00 00	 mov	 DWORD PTR tv331[ebp], 0
$LN57@create_lan:
  00673	be 01 00 00 00	 mov	 esi, 1
  00678	8b 4d a4	 mov	 ecx, DWORD PTR _formation_position$[ebp]
  0067b	d3 e6		 shl	 esi, cl
  0067d	6a 74		 push	 116			; 00000074H
  0067f	8b 4d 88	 mov	 ecx, DWORD PTR _landing_en$[ebp]
  00682	51		 push	 ecx
  00683	69 95 38 ff ff
	ff 5c 04 00 00	 imul	 edx, DWORD PTR tv323[ebp], 1116
  0068d	8b 85 34 ff ff
	ff		 mov	 eax, DWORD PTR tv331[ebp]
  00693	8b 8c 82 00 00
	00 00		 mov	 ecx, DWORD PTR ?fn_get_local_entity_int_value@@3PAY0BBH@P6GHPAUENTITY@@W4INT_TYPES@@@ZA[edx+eax*4]
  0069a	ff d1		 call	 ecx
  0069c	23 f0		 and	 esi, eax
  0069e	74 0e		 je	 SHORT $LN8@create_lan

; 631  : 					((1 << formation_position) & (get_local_entity_int_value (landing_en, INT_TYPE_LANDED_LOCK))))
; 632  : 			{
; 633  : 
; 634  : 				formation_position ++;

  006a0	8b 45 a4	 mov	 eax, DWORD PTR _formation_position$[ebp]
  006a3	83 c0 01	 add	 eax, 1
  006a6	89 45 a4	 mov	 DWORD PTR _formation_position$[ebp], eax

; 635  : 			}

  006a9	e9 ae fe ff ff	 jmp	 $LN7@create_lan
$LN8@create_lan:

; 636  : 
; 637  : 			if (formation_position >= get_local_entity_int_value (landing_en, INT_TYPE_TOTAL_LANDING_SITES))

  006ae	83 7d 88 00	 cmp	 DWORD PTR _landing_en$[ebp], 0
  006b2	74 0d		 je	 SHORT $LN58@create_lan
  006b4	8b 45 88	 mov	 eax, DWORD PTR _landing_en$[ebp]
  006b7	8b 08		 mov	 ecx, DWORD PTR [eax]
  006b9	89 8d 38 ff ff
	ff		 mov	 DWORD PTR tv345[ebp], ecx
  006bf	eb 20		 jmp	 SHORT $LN59@create_lan
$LN58@create_lan:
  006c1	68 7d 02 00 00	 push	 637			; 0000027dH
  006c6	68 00 00 00 00	 push	 OFFSET ??_C@_0EB@JEOGKGCM@c?3?2users?2nhv90?2projects?2eech?2ap@
  006cb	8b 15 00 00 00
	00		 mov	 edx, DWORD PTR ?null_entity_pointer_message@@3PBDB ; null_entity_pointer_message
  006d1	52		 push	 edx
  006d2	e8 00 00 00 00	 call	 ?process_assert@@YGXPBD0H@Z ; process_assert
  006d7	c7 85 38 ff ff
	ff 00 00 00 00	 mov	 DWORD PTR tv345[ebp], 0
$LN59@create_lan:
  006e1	b8 01 00 00 00	 mov	 eax, 1
  006e6	85 c0		 test	 eax, eax
  006e8	74 0c		 je	 SHORT $LN60@create_lan
  006ea	c7 85 34 ff ff
	ff eb 00 00 00	 mov	 DWORD PTR tv352[ebp], 235 ; 000000ebH
  006f4	eb 20		 jmp	 SHORT $LN61@create_lan
$LN60@create_lan:
  006f6	68 7d 02 00 00	 push	 637			; 0000027dH
  006fb	68 00 00 00 00	 push	 OFFSET ??_C@_0EB@JEOGKGCM@c?3?2users?2nhv90?2projects?2eech?2ap@
  00700	8b 0d 00 00 00
	00		 mov	 ecx, DWORD PTR ?overload_invalid_int_type_message@@3PBDB ; overload_invalid_int_type_message
  00706	51		 push	 ecx
  00707	e8 00 00 00 00	 call	 ?process_assert@@YGXPBD0H@Z ; process_assert
  0070c	c7 85 34 ff ff
	ff 00 00 00 00	 mov	 DWORD PTR tv352[ebp], 0
$LN61@create_lan:
  00716	68 eb 00 00 00	 push	 235			; 000000ebH
  0071b	8b 55 88	 mov	 edx, DWORD PTR _landing_en$[ebp]
  0071e	52		 push	 edx
  0071f	69 85 38 ff ff
	ff 5c 04 00 00	 imul	 eax, DWORD PTR tv345[ebp], 1116
  00729	8b 8d 34 ff ff
	ff		 mov	 ecx, DWORD PTR tv352[ebp]
  0072f	8b 94 88 00 00
	00 00		 mov	 edx, DWORD PTR ?fn_get_local_entity_int_value@@3PAY0BBH@P6GHPAUENTITY@@W4INT_TYPES@@@ZA[eax+ecx*4]
  00736	ff d2		 call	 edx
  00738	39 45 a4	 cmp	 DWORD PTR _formation_position$[ebp], eax
  0073b	0f 8c ef 01 00
	00		 jl	 $LN20@create_lan

; 638  : 			{
; 639  : 
; 640  : 				debug_fatal ("FACTION: Placing too many aircraft (group %s, (%d)) at %s (%d) - posn %d",

  00741	83 7d 88 00	 cmp	 DWORD PTR _landing_en$[ebp], 0
  00745	74 0d		 je	 SHORT $LN62@create_lan
  00747	8b 45 88	 mov	 eax, DWORD PTR _landing_en$[ebp]
  0074a	8b 08		 mov	 ecx, DWORD PTR [eax]
  0074c	89 8d 38 ff ff
	ff		 mov	 DWORD PTR tv365[ebp], ecx
  00752	eb 27		 jmp	 SHORT $LN63@create_lan
$LN62@create_lan:
  00754	8b 15 00 00 00
	00		 mov	 edx, DWORD PTR ?__LINE__Var@?0??create_landed_faction_group@@YGPAUENTITY@@PAU2@HW4FORMATION_COMPONENT_TYPES@@@Z@4JA
  0075a	81 c2 97 00 00
	00		 add	 edx, 151		; 00000097H
  00760	52		 push	 edx
  00761	68 00 00 00 00	 push	 OFFSET ??_C@_0EB@JEOGKGCM@c?3?2users?2nhv90?2projects?2eech?2ap@
  00766	a1 00 00 00 00	 mov	 eax, DWORD PTR ?null_entity_pointer_message@@3PBDB ; null_entity_pointer_message
  0076b	50		 push	 eax
  0076c	e8 00 00 00 00	 call	 ?process_assert@@YGXPBD0H@Z ; process_assert
  00771	c7 85 38 ff ff
	ff 00 00 00 00	 mov	 DWORD PTR tv365[ebp], 0
$LN63@create_lan:
  0077b	b9 01 00 00 00	 mov	 ecx, 1
  00780	85 c9		 test	 ecx, ecx
  00782	74 0c		 je	 SHORT $LN64@create_lan
  00784	c7 85 34 ff ff
	ff eb 00 00 00	 mov	 DWORD PTR tv373[ebp], 235 ; 000000ebH
  0078e	eb 27		 jmp	 SHORT $LN65@create_lan
$LN64@create_lan:
  00790	8b 15 00 00 00
	00		 mov	 edx, DWORD PTR ?__LINE__Var@?0??create_landed_faction_group@@YGPAUENTITY@@PAU2@HW4FORMATION_COMPONENT_TYPES@@@Z@4JA
  00796	81 c2 97 00 00
	00		 add	 edx, 151		; 00000097H
  0079c	52		 push	 edx
  0079d	68 00 00 00 00	 push	 OFFSET ??_C@_0EB@JEOGKGCM@c?3?2users?2nhv90?2projects?2eech?2ap@
  007a2	a1 00 00 00 00	 mov	 eax, DWORD PTR ?overload_invalid_int_type_message@@3PBDB ; overload_invalid_int_type_message
  007a7	50		 push	 eax
  007a8	e8 00 00 00 00	 call	 ?process_assert@@YGXPBD0H@Z ; process_assert
  007ad	c7 85 34 ff ff
	ff 00 00 00 00	 mov	 DWORD PTR tv373[ebp], 0
$LN65@create_lan:
  007b7	83 7d 08 00	 cmp	 DWORD PTR _keysite$[ebp], 0
  007bb	74 0d		 je	 SHORT $LN66@create_lan
  007bd	8b 4d 08	 mov	 ecx, DWORD PTR _keysite$[ebp]
  007c0	8b 11		 mov	 edx, DWORD PTR [ecx]
  007c2	89 95 30 ff ff
	ff		 mov	 DWORD PTR tv390[ebp], edx
  007c8	eb 26		 jmp	 SHORT $LN67@create_lan
$LN66@create_lan:
  007ca	a1 00 00 00 00	 mov	 eax, DWORD PTR ?__LINE__Var@?0??create_landed_faction_group@@YGPAUENTITY@@PAU2@HW4FORMATION_COMPONENT_TYPES@@@Z@4JA
  007cf	05 94 00 00 00	 add	 eax, 148		; 00000094H
  007d4	50		 push	 eax
  007d5	68 00 00 00 00	 push	 OFFSET ??_C@_0EB@JEOGKGCM@c?3?2users?2nhv90?2projects?2eech?2ap@
  007da	8b 0d 00 00 00
	00		 mov	 ecx, DWORD PTR ?null_entity_pointer_message@@3PBDB ; null_entity_pointer_message
  007e0	51		 push	 ecx
  007e1	e8 00 00 00 00	 call	 ?process_assert@@YGXPBD0H@Z ; process_assert
  007e6	c7 85 30 ff ff
	ff 00 00 00 00	 mov	 DWORD PTR tv390[ebp], 0
$LN67@create_lan:
  007f0	ba 01 00 00 00	 mov	 edx, 1
  007f5	85 d2		 test	 edx, edx
  007f7	74 0c		 je	 SHORT $LN68@create_lan
  007f9	c7 85 2c ff ff
	ff 07 00 00 00	 mov	 DWORD PTR tv398[ebp], 7
  00803	eb 26		 jmp	 SHORT $LN69@create_lan
$LN68@create_lan:
  00805	a1 00 00 00 00	 mov	 eax, DWORD PTR ?__LINE__Var@?0??create_landed_faction_group@@YGPAUENTITY@@PAU2@HW4FORMATION_COMPONENT_TYPES@@@Z@4JA
  0080a	05 94 00 00 00	 add	 eax, 148		; 00000094H
  0080f	50		 push	 eax
  00810	68 00 00 00 00	 push	 OFFSET ??_C@_0EB@JEOGKGCM@c?3?2users?2nhv90?2projects?2eech?2ap@
  00815	8b 0d 00 00 00
	00		 mov	 ecx, DWORD PTR ?overload_invalid_string_type_message@@3PBDB ; overload_invalid_string_type_message
  0081b	51		 push	 ecx
  0081c	e8 00 00 00 00	 call	 ?process_assert@@YGXPBD0H@Z ; process_assert
  00821	c7 85 2c ff ff
	ff 00 00 00 00	 mov	 DWORD PTR tv398[ebp], 0
$LN69@create_lan:
  0082b	83 7d 94 00	 cmp	 DWORD PTR _group$[ebp], 0
  0082f	74 0d		 je	 SHORT $LN70@create_lan
  00831	8b 55 94	 mov	 edx, DWORD PTR _group$[ebp]
  00834	8b 02		 mov	 eax, DWORD PTR [edx]
  00836	89 85 28 ff ff
	ff		 mov	 DWORD PTR tv414[ebp], eax
  0083c	eb 28		 jmp	 SHORT $LN71@create_lan
$LN70@create_lan:
  0083e	8b 0d 00 00 00
	00		 mov	 ecx, DWORD PTR ?__LINE__Var@?0??create_landed_faction_group@@YGPAUENTITY@@PAU2@HW4FORMATION_COMPONENT_TYPES@@@Z@4JA
  00844	81 c1 92 00 00
	00		 add	 ecx, 146		; 00000092H
  0084a	51		 push	 ecx
  0084b	68 00 00 00 00	 push	 OFFSET ??_C@_0EB@JEOGKGCM@c?3?2users?2nhv90?2projects?2eech?2ap@
  00850	8b 15 00 00 00
	00		 mov	 edx, DWORD PTR ?null_entity_pointer_message@@3PBDB ; null_entity_pointer_message
  00856	52		 push	 edx
  00857	e8 00 00 00 00	 call	 ?process_assert@@YGXPBD0H@Z ; process_assert
  0085c	c7 85 28 ff ff
	ff 00 00 00 00	 mov	 DWORD PTR tv414[ebp], 0
$LN71@create_lan:
  00866	b8 01 00 00 00	 mov	 eax, 1
  0086b	85 c0		 test	 eax, eax
  0086d	74 0c		 je	 SHORT $LN72@create_lan
  0086f	c7 85 24 ff ff
	ff 03 00 00 00	 mov	 DWORD PTR tv422[ebp], 3
  00879	eb 28		 jmp	 SHORT $LN73@create_lan
$LN72@create_lan:
  0087b	8b 0d 00 00 00
	00		 mov	 ecx, DWORD PTR ?__LINE__Var@?0??create_landed_faction_group@@YGPAUENTITY@@PAU2@HW4FORMATION_COMPONENT_TYPES@@@Z@4JA
  00881	81 c1 92 00 00
	00		 add	 ecx, 146		; 00000092H
  00887	51		 push	 ecx
  00888	68 00 00 00 00	 push	 OFFSET ??_C@_0EB@JEOGKGCM@c?3?2users?2nhv90?2projects?2eech?2ap@
  0088d	8b 15 00 00 00
	00		 mov	 edx, DWORD PTR ?overload_invalid_string_type_message@@3PBDB ; overload_invalid_string_type_message
  00893	52		 push	 edx
  00894	e8 00 00 00 00	 call	 ?process_assert@@YGXPBD0H@Z ; process_assert
  00899	c7 85 24 ff ff
	ff 00 00 00 00	 mov	 DWORD PTR tv422[ebp], 0
$LN73@create_lan:
  008a3	68 eb 00 00 00	 push	 235			; 000000ebH
  008a8	8b 45 88	 mov	 eax, DWORD PTR _landing_en$[ebp]
  008ab	50		 push	 eax
  008ac	69 8d 38 ff ff
	ff 5c 04 00 00	 imul	 ecx, DWORD PTR tv365[ebp], 1116
  008b6	8b 95 34 ff ff
	ff		 mov	 edx, DWORD PTR tv373[ebp]
  008bc	8b 84 91 00 00
	00 00		 mov	 eax, DWORD PTR ?fn_get_local_entity_int_value@@3PAY0BBH@P6GHPAUENTITY@@W4INT_TYPES@@@ZA[ecx+edx*4]
  008c3	ff d0		 call	 eax
  008c5	50		 push	 eax
  008c6	8b 4d a4	 mov	 ecx, DWORD PTR _formation_position$[ebp]
  008c9	51		 push	 ecx
  008ca	8b 55 08	 mov	 edx, DWORD PTR _keysite$[ebp]
  008cd	2b 15 00 00 00
	00		 sub	 edx, DWORD PTR ?entities@@3PAUENTITY@@A ; entities
  008d3	c1 fa 04	 sar	 edx, 4
  008d6	52		 push	 edx
  008d7	6a 07		 push	 7
  008d9	8b 45 08	 mov	 eax, DWORD PTR _keysite$[ebp]
  008dc	50		 push	 eax
  008dd	6b 8d 30 ff ff
	ff 34		 imul	 ecx, DWORD PTR tv390[ebp], 52
  008e4	8b 95 2c ff ff
	ff		 mov	 edx, DWORD PTR tv398[ebp]
  008ea	8b 84 91 00 00
	00 00		 mov	 eax, DWORD PTR ?fn_get_local_entity_string@@3PAY0N@P6GPBDPAUENTITY@@W4STRING_TYPES@@@ZA[ecx+edx*4]
  008f1	ff d0		 call	 eax
  008f3	50		 push	 eax
  008f4	8b 4d 94	 mov	 ecx, DWORD PTR _group$[ebp]
  008f7	2b 0d 00 00 00
	00		 sub	 ecx, DWORD PTR ?entities@@3PAUENTITY@@A ; entities
  008fd	c1 f9 04	 sar	 ecx, 4
  00900	51		 push	 ecx
  00901	6a 03		 push	 3
  00903	8b 55 94	 mov	 edx, DWORD PTR _group$[ebp]
  00906	52		 push	 edx
  00907	6b 85 28 ff ff
	ff 34		 imul	 eax, DWORD PTR tv414[ebp], 52
  0090e	8b 8d 24 ff ff
	ff		 mov	 ecx, DWORD PTR tv422[ebp]
  00914	8b 94 88 00 00
	00 00		 mov	 edx, DWORD PTR ?fn_get_local_entity_string@@3PAY0N@P6GPBDPAUENTITY@@W4STRING_TYPES@@@ZA[eax+ecx*4]
  0091b	ff d2		 call	 edx
  0091d	50		 push	 eax
  0091e	68 00 00 00 00	 push	 OFFSET ??_C@_0EJ@HDHAFCHD@FACTION?3?5Placing?5too?5many?5aircr@
  00923	e8 00 00 00 00	 call	 ?debug_fatal@@YAXPBDZZ	; debug_fatal
  00928	83 c4 1c	 add	 esp, 28			; 0000001cH

; 641  : 								get_local_entity_string (group, STRING_TYPE_FULL_NAME),
; 642  : 								get_local_entity_index (group),
; 643  : 								get_local_entity_string (keysite, STRING_TYPE_KEYSITE_NAME),
; 644  : 								get_local_entity_index (keysite),
; 645  : 								formation_position,
; 646  : 								get_local_entity_int_value (landing_en, INT_TYPE_TOTAL_LANDING_SITES));
; 647  : 
; 648  : 				continue;

  0092b	e9 cd fa ff ff	 jmp	 $LN4@create_lan
$LN20@create_lan:

; 649  : 			}
; 650  : 
; 651  : 			//
; 652  : 			// calculate formation position to suite landing entity
; 653  : 			//
; 654  : 
; 655  : 			if (side == ENTITY_SIDE_BLUE_FORCE)

  00930	83 7d 80 01	 cmp	 DWORD PTR _side$[ebp], 1
  00934	75 16		 jne	 SHORT $LN21@create_lan

; 656  : 			{
; 657  : 
; 658  : 				member_type = formation_components->components [loop * 2];

  00936	8b 45 a0	 mov	 eax, DWORD PTR _loop$[ebp]
  00939	d1 e0		 shl	 eax, 1
  0093b	8b 4d fc	 mov	 ecx, DWORD PTR _formation_components$[ebp]
  0093e	8b 51 10	 mov	 edx, DWORD PTR [ecx+16]
  00941	8b 04 82	 mov	 eax, DWORD PTR [edx+eax*4]
  00944	89 85 7c ff ff
	ff		 mov	 DWORD PTR _member_type$[ebp], eax

; 659  : 			}
; 660  : 			else

  0094a	eb 15		 jmp	 SHORT $LN22@create_lan
$LN21@create_lan:

; 661  : 			{
; 662  : 				
; 663  : 				member_type = formation_components->components [(loop * 2) + 1];

  0094c	8b 45 a0	 mov	 eax, DWORD PTR _loop$[ebp]
  0094f	d1 e0		 shl	 eax, 1
  00951	8b 4d fc	 mov	 ecx, DWORD PTR _formation_components$[ebp]
  00954	8b 51 10	 mov	 edx, DWORD PTR [ecx+16]
  00957	8b 44 82 04	 mov	 eax, DWORD PTR [edx+eax*4+4]
  0095b	89 85 7c ff ff
	ff		 mov	 DWORD PTR _member_type$[ebp], eax
$LN22@create_lan:

; 664  : 			}
; 665  : 
; 666  : 			member = create_mobile_member

  00961	51		 push	 ecx
  00962	f3 0f 10 05 00
	00 00 00	 movss	 xmm0, DWORD PTR __real@40000000
  0096a	f3 0f 11 04 24	 movss	 DWORD PTR [esp], xmm0
  0096f	8b 45 80	 mov	 eax, DWORD PTR _side$[ebp]
  00972	50		 push	 eax
  00973	6a 04		 push	 4
  00975	8b 4d a4	 mov	 ecx, DWORD PTR _formation_position$[ebp]
  00978	51		 push	 ecx
  00979	8b 95 7c ff ff
	ff		 mov	 edx, DWORD PTR _member_type$[ebp]
  0097f	52		 push	 edx
  00980	8d 45 bc	 lea	 eax, DWORD PTR _pos$[ebp]
  00983	50		 push	 eax
  00984	8b 4d 94	 mov	 ecx, DWORD PTR _group$[ebp]
  00987	51		 push	 ecx
  00988	6a 01		 push	 1
  0098a	6a ff		 push	 -1
  0098c	6b 55 0c 64	 imul	 edx, DWORD PTR _group_type$[ebp], 100
  00990	8b 82 1c 00 00
	00		 mov	 eax, DWORD PTR ?group_database@@3PAUGROUP_DATA@@A[edx+28]
  00996	50		 push	 eax
  00997	e8 00 00 00 00	 call	 ?create_mobile_member@@YGPAUENTITY@@W4ENTITY_TYPES@@HHPAU1@PAUVEC3D@@HHHW4ENTITY_SIDES@@M@Z ; create_mobile_member
  0099c	89 45 90	 mov	 DWORD PTR _member$[ebp], eax

; 667  : 			(
; 668  : 				group_database [group_type].default_entity_type,
; 669  : 				ENTITY_INDEX_DONT_CARE,
; 670  : 				TRUE,
; 671  : 				group,
; 672  : 				&pos,
; 673  : 				member_type,
; 674  : 				formation_position,
; 675  : 				OPERATIONAL_STATE_LANDED,
; 676  : 				side,
; 677  : 				AIRCRAFT_UNDERCARRIAGE_DOWN_FLOAT_VALUE
; 678  : 			);
; 679  : 
; 680  : 			movement_parent = get_local_entity_parent (get_parser_keysite (), LIST_TYPE_MOVEMENT_DEPENDENT);

  0099f	83 3d 00 00 00
	00 00		 cmp	 DWORD PTR ?parser_keysite@@3PAUENTITY@@A, 0 ; parser_keysite
  009a6	74 0f		 je	 SHORT $LN74@create_lan
  009a8	a1 00 00 00 00	 mov	 eax, DWORD PTR ?parser_keysite@@3PAUENTITY@@A ; parser_keysite
  009ad	8b 08		 mov	 ecx, DWORD PTR [eax]
  009af	89 8d 38 ff ff
	ff		 mov	 DWORD PTR tv460[ebp], ecx
  009b5	eb 27		 jmp	 SHORT $LN75@create_lan
$LN74@create_lan:
  009b7	8b 15 00 00 00
	00		 mov	 edx, DWORD PTR ?__LINE__Var@?0??create_landed_faction_group@@YGPAUENTITY@@PAU2@HW4FORMATION_COMPONENT_TYPES@@@Z@4JA
  009bd	81 c2 b9 00 00
	00		 add	 edx, 185		; 000000b9H
  009c3	52		 push	 edx
  009c4	68 00 00 00 00	 push	 OFFSET ??_C@_0EB@JEOGKGCM@c?3?2users?2nhv90?2projects?2eech?2ap@
  009c9	a1 00 00 00 00	 mov	 eax, DWORD PTR ?null_entity_pointer_message@@3PBDB ; null_entity_pointer_message
  009ce	50		 push	 eax
  009cf	e8 00 00 00 00	 call	 ?process_assert@@YGXPBD0H@Z ; process_assert
  009d4	c7 85 38 ff ff
	ff 00 00 00 00	 mov	 DWORD PTR tv460[ebp], 0
$LN75@create_lan:
  009de	b9 01 00 00 00	 mov	 ecx, 1
  009e3	85 c9		 test	 ecx, ecx
  009e5	74 0c		 je	 SHORT $LN76@create_lan
  009e7	c7 85 34 ff ff
	ff 1a 00 00 00	 mov	 DWORD PTR tv468[ebp], 26 ; 0000001aH
  009f1	eb 27		 jmp	 SHORT $LN77@create_lan
$LN76@create_lan:
  009f3	8b 15 00 00 00
	00		 mov	 edx, DWORD PTR ?__LINE__Var@?0??create_landed_faction_group@@YGPAUENTITY@@PAU2@HW4FORMATION_COMPONENT_TYPES@@@Z@4JA
  009f9	81 c2 b9 00 00
	00		 add	 edx, 185		; 000000b9H
  009ff	52		 push	 edx
  00a00	68 00 00 00 00	 push	 OFFSET ??_C@_0EB@JEOGKGCM@c?3?2users?2nhv90?2projects?2eech?2ap@
  00a05	a1 00 00 00 00	 mov	 eax, DWORD PTR ?overload_invalid_list_type_message@@3PBDB ; overload_invalid_list_type_message
  00a0a	50		 push	 eax
  00a0b	e8 00 00 00 00	 call	 ?process_assert@@YGXPBD0H@Z ; process_assert
  00a10	c7 85 34 ff ff
	ff 00 00 00 00	 mov	 DWORD PTR tv468[ebp], 0
$LN77@create_lan:
  00a1a	6a 1a		 push	 26			; 0000001aH
  00a1c	8b 0d 00 00 00
	00		 mov	 ecx, DWORD PTR ?parser_keysite@@3PAUENTITY@@A ; parser_keysite
  00a22	51		 push	 ecx
  00a23	69 95 38 ff ff
	ff b4 00 00 00	 imul	 edx, DWORD PTR tv460[ebp], 180
  00a2d	8b 85 34 ff ff
	ff		 mov	 eax, DWORD PTR tv468[ebp]
  00a33	8b 8c 82 00 00
	00 00		 mov	 ecx, DWORD PTR ?fn_get_local_entity_parent@@3PAY0CN@P6GPAUENTITY@@PAU1@W4LIST_TYPES@@@ZA[edx+eax*4]
  00a3a	ff d1		 call	 ecx
  00a3c	89 45 84	 mov	 DWORD PTR _movement_parent$[ebp], eax

; 681  : 
; 682  : 			if ((group_database [group_type].default_entity_type != ENTITY_TYPE_SHIP_VEHICLE) && (movement_parent))

  00a3f	6b 45 0c 64	 imul	 eax, DWORD PTR _group_type$[ebp], 100
  00a43	83 b8 1c 00 00
	00 1c		 cmp	 DWORD PTR ?group_database@@3PAUGROUP_DATA@@A[eax+28], 28 ; 0000001cH
  00a4a	74 17		 je	 SHORT $LN23@create_lan
  00a4c	83 7d 84 00	 cmp	 DWORD PTR _movement_parent$[ebp], 0
  00a50	74 11		 je	 SHORT $LN23@create_lan

; 683  : 			{
; 684  : 
; 685  : 				insert_local_entity_into_parents_child_list (member, LIST_TYPE_MOVEMENT_DEPENDENT, movement_parent, NULL);

  00a52	6a 00		 push	 0
  00a54	8b 45 84	 mov	 eax, DWORD PTR _movement_parent$[ebp]
  00a57	50		 push	 eax
  00a58	6a 1a		 push	 26			; 0000001aH
  00a5a	8b 4d 90	 mov	 ecx, DWORD PTR _member$[ebp]
  00a5d	51		 push	 ecx
  00a5e	e8 00 00 00 00	 call	 ?insert_local_entity_into_parents_child_list@@YGXPAUENTITY@@W4LIST_TYPES@@00@Z ; insert_local_entity_into_parents_child_list
$LN23@create_lan:

; 686  : 			}
; 687  : 
; 688  : 			index = get_local_entity_int_value (member, INT_TYPE_FORMATION_POSITION);

  00a63	83 7d 90 00	 cmp	 DWORD PTR _member$[ebp], 0
  00a67	74 0d		 je	 SHORT $LN78@create_lan
  00a69	8b 45 90	 mov	 eax, DWORD PTR _member$[ebp]
  00a6c	8b 08		 mov	 ecx, DWORD PTR [eax]
  00a6e	89 8d 38 ff ff
	ff		 mov	 DWORD PTR tv489[ebp], ecx
  00a74	eb 27		 jmp	 SHORT $LN79@create_lan
$LN78@create_lan:
  00a76	8b 15 00 00 00
	00		 mov	 edx, DWORD PTR ?__LINE__Var@?0??create_landed_faction_group@@YGPAUENTITY@@PAU2@HW4FORMATION_COMPONENT_TYPES@@@Z@4JA
  00a7c	81 c2 c1 00 00
	00		 add	 edx, 193		; 000000c1H
  00a82	52		 push	 edx
  00a83	68 00 00 00 00	 push	 OFFSET ??_C@_0EB@JEOGKGCM@c?3?2users?2nhv90?2projects?2eech?2ap@
  00a88	a1 00 00 00 00	 mov	 eax, DWORD PTR ?null_entity_pointer_message@@3PBDB ; null_entity_pointer_message
  00a8d	50		 push	 eax
  00a8e	e8 00 00 00 00	 call	 ?process_assert@@YGXPBD0H@Z ; process_assert
  00a93	c7 85 38 ff ff
	ff 00 00 00 00	 mov	 DWORD PTR tv489[ebp], 0
$LN79@create_lan:
  00a9d	b9 01 00 00 00	 mov	 ecx, 1
  00aa2	85 c9		 test	 ecx, ecx
  00aa4	74 0c		 je	 SHORT $LN80@create_lan
  00aa6	c7 85 34 ff ff
	ff 3e 00 00 00	 mov	 DWORD PTR tv497[ebp], 62 ; 0000003eH
  00ab0	eb 27		 jmp	 SHORT $LN81@create_lan
$LN80@create_lan:
  00ab2	8b 15 00 00 00
	00		 mov	 edx, DWORD PTR ?__LINE__Var@?0??create_landed_faction_group@@YGPAUENTITY@@PAU2@HW4FORMATION_COMPONENT_TYPES@@@Z@4JA
  00ab8	81 c2 c1 00 00
	00		 add	 edx, 193		; 000000c1H
  00abe	52		 push	 edx
  00abf	68 00 00 00 00	 push	 OFFSET ??_C@_0EB@JEOGKGCM@c?3?2users?2nhv90?2projects?2eech?2ap@
  00ac4	a1 00 00 00 00	 mov	 eax, DWORD PTR ?overload_invalid_int_type_message@@3PBDB ; overload_invalid_int_type_message
  00ac9	50		 push	 eax
  00aca	e8 00 00 00 00	 call	 ?process_assert@@YGXPBD0H@Z ; process_assert
  00acf	c7 85 34 ff ff
	ff 00 00 00 00	 mov	 DWORD PTR tv497[ebp], 0
$LN81@create_lan:
  00ad9	6a 3e		 push	 62			; 0000003eH
  00adb	8b 4d 90	 mov	 ecx, DWORD PTR _member$[ebp]
  00ade	51		 push	 ecx
  00adf	69 95 38 ff ff
	ff 5c 04 00 00	 imul	 edx, DWORD PTR tv489[ebp], 1116
  00ae9	8b 85 34 ff ff
	ff		 mov	 eax, DWORD PTR tv497[ebp]
  00aef	8b 8c 82 00 00
	00 00		 mov	 ecx, DWORD PTR ?fn_get_local_entity_int_value@@3PAY0BBH@P6GHPAUENTITY@@W4INT_TYPES@@@ZA[edx+eax*4]
  00af6	ff d1		 call	 ecx
  00af8	89 45 a8	 mov	 DWORD PTR _index$[ebp], eax

; 689  : 
; 690  : 			get_local_waypoint_formation_position (index, wp, &pos);

  00afb	8d 45 bc	 lea	 eax, DWORD PTR _pos$[ebp]
  00afe	50		 push	 eax
  00aff	8b 4d 98	 mov	 ecx, DWORD PTR _wp$[ebp]
  00b02	51		 push	 ecx
  00b03	8b 55 a8	 mov	 edx, DWORD PTR _index$[ebp]
  00b06	52		 push	 edx
  00b07	e8 00 00 00 00	 call	 ?get_local_waypoint_formation_position@@YGXHPAUENTITY@@PAUVEC3D@@@Z ; get_local_waypoint_formation_position

; 691  : 
; 692  : 			if (get_local_entity_int_value (keysite, INT_TYPE_ENTITY_SUB_TYPE) != ENTITY_SUB_TYPE_KEYSITE_ANCHORAGE)

  00b0c	83 7d 08 00	 cmp	 DWORD PTR _keysite$[ebp], 0
  00b10	74 0d		 je	 SHORT $LN82@create_lan
  00b12	8b 45 08	 mov	 eax, DWORD PTR _keysite$[ebp]
  00b15	8b 08		 mov	 ecx, DWORD PTR [eax]
  00b17	89 8d 38 ff ff
	ff		 mov	 DWORD PTR tv511[ebp], ecx
  00b1d	eb 20		 jmp	 SHORT $LN83@create_lan
$LN82@create_lan:
  00b1f	68 b4 02 00 00	 push	 692			; 000002b4H
  00b24	68 00 00 00 00	 push	 OFFSET ??_C@_0EB@JEOGKGCM@c?3?2users?2nhv90?2projects?2eech?2ap@
  00b29	8b 15 00 00 00
	00		 mov	 edx, DWORD PTR ?null_entity_pointer_message@@3PBDB ; null_entity_pointer_message
  00b2f	52		 push	 edx
  00b30	e8 00 00 00 00	 call	 ?process_assert@@YGXPBD0H@Z ; process_assert
  00b35	c7 85 38 ff ff
	ff 00 00 00 00	 mov	 DWORD PTR tv511[ebp], 0
$LN83@create_lan:
  00b3f	b8 01 00 00 00	 mov	 eax, 1
  00b44	85 c0		 test	 eax, eax
  00b46	74 0c		 je	 SHORT $LN84@create_lan
  00b48	c7 85 34 ff ff
	ff 34 00 00 00	 mov	 DWORD PTR tv518[ebp], 52 ; 00000034H
  00b52	eb 20		 jmp	 SHORT $LN85@create_lan
$LN84@create_lan:
  00b54	68 b4 02 00 00	 push	 692			; 000002b4H
  00b59	68 00 00 00 00	 push	 OFFSET ??_C@_0EB@JEOGKGCM@c?3?2users?2nhv90?2projects?2eech?2ap@
  00b5e	8b 0d 00 00 00
	00		 mov	 ecx, DWORD PTR ?overload_invalid_int_type_message@@3PBDB ; overload_invalid_int_type_message
  00b64	51		 push	 ecx
  00b65	e8 00 00 00 00	 call	 ?process_assert@@YGXPBD0H@Z ; process_assert
  00b6a	c7 85 34 ff ff
	ff 00 00 00 00	 mov	 DWORD PTR tv518[ebp], 0
$LN85@create_lan:
  00b74	6a 34		 push	 52			; 00000034H
  00b76	8b 55 08	 mov	 edx, DWORD PTR _keysite$[ebp]
  00b79	52		 push	 edx
  00b7a	69 85 38 ff ff
	ff 5c 04 00 00	 imul	 eax, DWORD PTR tv511[ebp], 1116
  00b84	8b 8d 34 ff ff
	ff		 mov	 ecx, DWORD PTR tv518[ebp]
  00b8a	8b 94 88 00 00
	00 00		 mov	 edx, DWORD PTR ?fn_get_local_entity_int_value@@3PAY0BBH@P6GHPAUENTITY@@W4INT_TYPES@@@ZA[eax+ecx*4]
  00b91	ff d2		 call	 edx
  00b93	83 f8 01	 cmp	 eax, 1
  00b96	74 20		 je	 SHORT $LN24@create_lan

; 693  : 			{
; 694  : 
; 695  : 				pos.y = get_3d_terrain_elevation (pos.x, pos.z);

  00b98	6a 00		 push	 0
  00b9a	51		 push	 ecx
  00b9b	f3 0f 10 45 c4	 movss	 xmm0, DWORD PTR _pos$[ebp+8]
  00ba0	f3 0f 11 04 24	 movss	 DWORD PTR [esp], xmm0
  00ba5	51		 push	 ecx
  00ba6	f3 0f 10 45 bc	 movss	 xmm0, DWORD PTR _pos$[ebp]
  00bab	f3 0f 11 04 24	 movss	 DWORD PTR [esp], xmm0
  00bb0	e8 00 00 00 00	 call	 ?get_3d_terrain_point_data@@YGMMMPAUTERRAIN_3D_POINT_DATA@@@Z ; get_3d_terrain_point_data
  00bb5	d9 5d c0	 fstp	 DWORD PTR _pos$[ebp+4]
$LN24@create_lan:

; 696  : 			}
; 697  : 
; 698  : 			fuselage_angle = get_local_entity_float_value (member, FLOAT_TYPE_FUSELAGE_ANGLE);

  00bb8	83 7d 90 00	 cmp	 DWORD PTR _member$[ebp], 0
  00bbc	74 0d		 je	 SHORT $LN86@create_lan
  00bbe	8b 45 90	 mov	 eax, DWORD PTR _member$[ebp]
  00bc1	8b 08		 mov	 ecx, DWORD PTR [eax]
  00bc3	89 8d 38 ff ff
	ff		 mov	 DWORD PTR tv535[ebp], ecx
  00bc9	eb 27		 jmp	 SHORT $LN87@create_lan
$LN86@create_lan:
  00bcb	8b 15 00 00 00
	00		 mov	 edx, DWORD PTR ?__LINE__Var@?0??create_landed_faction_group@@YGPAUENTITY@@PAU2@HW4FORMATION_COMPONENT_TYPES@@@Z@4JA
  00bd1	81 c2 cb 00 00
	00		 add	 edx, 203		; 000000cbH
  00bd7	52		 push	 edx
  00bd8	68 00 00 00 00	 push	 OFFSET ??_C@_0EB@JEOGKGCM@c?3?2users?2nhv90?2projects?2eech?2ap@
  00bdd	a1 00 00 00 00	 mov	 eax, DWORD PTR ?null_entity_pointer_message@@3PBDB ; null_entity_pointer_message
  00be2	50		 push	 eax
  00be3	e8 00 00 00 00	 call	 ?process_assert@@YGXPBD0H@Z ; process_assert
  00be8	c7 85 38 ff ff
	ff 00 00 00 00	 mov	 DWORD PTR tv535[ebp], 0
$LN87@create_lan:
  00bf2	b9 01 00 00 00	 mov	 ecx, 1
  00bf7	85 c9		 test	 ecx, ecx
  00bf9	74 0c		 je	 SHORT $LN88@create_lan
  00bfb	c7 85 34 ff ff
	ff 31 00 00 00	 mov	 DWORD PTR tv543[ebp], 49 ; 00000031H
  00c05	eb 27		 jmp	 SHORT $LN89@create_lan
$LN88@create_lan:
  00c07	8b 15 00 00 00
	00		 mov	 edx, DWORD PTR ?__LINE__Var@?0??create_landed_faction_group@@YGPAUENTITY@@PAU2@HW4FORMATION_COMPONENT_TYPES@@@Z@4JA
  00c0d	81 c2 cb 00 00
	00		 add	 edx, 203		; 000000cbH
  00c13	52		 push	 edx
  00c14	68 00 00 00 00	 push	 OFFSET ??_C@_0EB@JEOGKGCM@c?3?2users?2nhv90?2projects?2eech?2ap@
  00c19	a1 00 00 00 00	 mov	 eax, DWORD PTR ?overload_invalid_float_type_message@@3PBDB ; overload_invalid_float_type_message
  00c1e	50		 push	 eax
  00c1f	e8 00 00 00 00	 call	 ?process_assert@@YGXPBD0H@Z ; process_assert
  00c24	c7 85 34 ff ff
	ff 00 00 00 00	 mov	 DWORD PTR tv543[ebp], 0
$LN89@create_lan:
  00c2e	6a 31		 push	 49			; 00000031H
  00c30	8b 4d 90	 mov	 ecx, DWORD PTR _member$[ebp]
  00c33	51		 push	 ecx
  00c34	69 95 38 ff ff
	ff bc 02 00 00	 imul	 edx, DWORD PTR tv535[ebp], 700
  00c3e	8b 85 34 ff ff
	ff		 mov	 eax, DWORD PTR tv543[ebp]
  00c44	8b 8c 82 00 00
	00 00		 mov	 ecx, DWORD PTR ?fn_get_local_entity_float_value@@3PAY0KP@P6GMPAUENTITY@@W4FLOAT_TYPES@@@ZA[edx+eax*4]
  00c4b	ff d1		 call	 ecx
  00c4d	d9 5d f8	 fstp	 DWORD PTR _fuselage_angle$[ebp]

; 699  : 
; 700  : 			pos.y += get_local_entity_float_value (member, FLOAT_TYPE_CENTRE_OF_GRAVITY_TO_GROUND_DISTANCE);

  00c50	83 7d 90 00	 cmp	 DWORD PTR _member$[ebp], 0
  00c54	74 0d		 je	 SHORT $LN90@create_lan
  00c56	8b 45 90	 mov	 eax, DWORD PTR _member$[ebp]
  00c59	8b 08		 mov	 ecx, DWORD PTR [eax]
  00c5b	89 8d 38 ff ff
	ff		 mov	 DWORD PTR tv555[ebp], ecx
  00c61	eb 27		 jmp	 SHORT $LN91@create_lan
$LN90@create_lan:
  00c63	8b 15 00 00 00
	00		 mov	 edx, DWORD PTR ?__LINE__Var@?0??create_landed_faction_group@@YGPAUENTITY@@PAU2@HW4FORMATION_COMPONENT_TYPES@@@Z@4JA
  00c69	81 c2 cd 00 00
	00		 add	 edx, 205		; 000000cdH
  00c6f	52		 push	 edx
  00c70	68 00 00 00 00	 push	 OFFSET ??_C@_0EB@JEOGKGCM@c?3?2users?2nhv90?2projects?2eech?2ap@
  00c75	a1 00 00 00 00	 mov	 eax, DWORD PTR ?null_entity_pointer_message@@3PBDB ; null_entity_pointer_message
  00c7a	50		 push	 eax
  00c7b	e8 00 00 00 00	 call	 ?process_assert@@YGXPBD0H@Z ; process_assert
  00c80	c7 85 38 ff ff
	ff 00 00 00 00	 mov	 DWORD PTR tv555[ebp], 0
$LN91@create_lan:
  00c8a	b9 01 00 00 00	 mov	 ecx, 1
  00c8f	85 c9		 test	 ecx, ecx
  00c91	74 0c		 je	 SHORT $LN92@create_lan
  00c93	c7 85 34 ff ff
	ff 12 00 00 00	 mov	 DWORD PTR tv563[ebp], 18 ; 00000012H
  00c9d	eb 27		 jmp	 SHORT $LN93@create_lan
$LN92@create_lan:
  00c9f	8b 15 00 00 00
	00		 mov	 edx, DWORD PTR ?__LINE__Var@?0??create_landed_faction_group@@YGPAUENTITY@@PAU2@HW4FORMATION_COMPONENT_TYPES@@@Z@4JA
  00ca5	81 c2 cd 00 00
	00		 add	 edx, 205		; 000000cdH
  00cab	52		 push	 edx
  00cac	68 00 00 00 00	 push	 OFFSET ??_C@_0EB@JEOGKGCM@c?3?2users?2nhv90?2projects?2eech?2ap@
  00cb1	a1 00 00 00 00	 mov	 eax, DWORD PTR ?overload_invalid_float_type_message@@3PBDB ; overload_invalid_float_type_message
  00cb6	50		 push	 eax
  00cb7	e8 00 00 00 00	 call	 ?process_assert@@YGXPBD0H@Z ; process_assert
  00cbc	c7 85 34 ff ff
	ff 00 00 00 00	 mov	 DWORD PTR tv563[ebp], 0
$LN93@create_lan:
  00cc6	6a 12		 push	 18			; 00000012H
  00cc8	8b 4d 90	 mov	 ecx, DWORD PTR _member$[ebp]
  00ccb	51		 push	 ecx
  00ccc	69 95 38 ff ff
	ff bc 02 00 00	 imul	 edx, DWORD PTR tv555[ebp], 700
  00cd6	8b 85 34 ff ff
	ff		 mov	 eax, DWORD PTR tv563[ebp]
  00cdc	8b 8c 82 00 00
	00 00		 mov	 ecx, DWORD PTR ?fn_get_local_entity_float_value@@3PAY0KP@P6GMPAUENTITY@@W4FLOAT_TYPES@@@ZA[edx+eax*4]
  00ce3	ff d1		 call	 ecx
  00ce5	d9 9d 30 ff ff
	ff		 fstp	 DWORD PTR tv965[ebp]
  00ceb	f3 0f 10 85 30
	ff ff ff	 movss	 xmm0, DWORD PTR tv965[ebp]
  00cf3	f3 0f 58 45 c0	 addss	 xmm0, DWORD PTR _pos$[ebp+4]
  00cf8	f3 0f 11 45 c0	 movss	 DWORD PTR _pos$[ebp+4], xmm0

; 701  : 
; 702  : 			////////////////////////////////////////
; 703  : 			//
; 704  : 			// attitude
; 705  : 			//
; 706  : 			////////////////////////////////////////
; 707  : 
; 708  : 			heading = get_local_entity_float_value (keysite, FLOAT_TYPE_HEADING);

  00cfd	83 7d 08 00	 cmp	 DWORD PTR _keysite$[ebp], 0
  00d01	74 0d		 je	 SHORT $LN94@create_lan
  00d03	8b 45 08	 mov	 eax, DWORD PTR _keysite$[ebp]
  00d06	8b 08		 mov	 ecx, DWORD PTR [eax]
  00d08	89 8d 38 ff ff
	ff		 mov	 DWORD PTR tv576[ebp], ecx
  00d0e	eb 27		 jmp	 SHORT $LN95@create_lan
$LN94@create_lan:
  00d10	8b 15 00 00 00
	00		 mov	 edx, DWORD PTR ?__LINE__Var@?0??create_landed_faction_group@@YGPAUENTITY@@PAU2@HW4FORMATION_COMPONENT_TYPES@@@Z@4JA
  00d16	81 c2 d5 00 00
	00		 add	 edx, 213		; 000000d5H
  00d1c	52		 push	 edx
  00d1d	68 00 00 00 00	 push	 OFFSET ??_C@_0EB@JEOGKGCM@c?3?2users?2nhv90?2projects?2eech?2ap@
  00d22	a1 00 00 00 00	 mov	 eax, DWORD PTR ?null_entity_pointer_message@@3PBDB ; null_entity_pointer_message
  00d27	50		 push	 eax
  00d28	e8 00 00 00 00	 call	 ?process_assert@@YGXPBD0H@Z ; process_assert
  00d2d	c7 85 38 ff ff
	ff 00 00 00 00	 mov	 DWORD PTR tv576[ebp], 0
$LN95@create_lan:
  00d37	b9 01 00 00 00	 mov	 ecx, 1
  00d3c	85 c9		 test	 ecx, ecx
  00d3e	74 0c		 je	 SHORT $LN96@create_lan
  00d40	c7 85 34 ff ff
	ff 34 00 00 00	 mov	 DWORD PTR tv584[ebp], 52 ; 00000034H
  00d4a	eb 27		 jmp	 SHORT $LN97@create_lan
$LN96@create_lan:
  00d4c	8b 15 00 00 00
	00		 mov	 edx, DWORD PTR ?__LINE__Var@?0??create_landed_faction_group@@YGPAUENTITY@@PAU2@HW4FORMATION_COMPONENT_TYPES@@@Z@4JA
  00d52	81 c2 d5 00 00
	00		 add	 edx, 213		; 000000d5H
  00d58	52		 push	 edx
  00d59	68 00 00 00 00	 push	 OFFSET ??_C@_0EB@JEOGKGCM@c?3?2users?2nhv90?2projects?2eech?2ap@
  00d5e	a1 00 00 00 00	 mov	 eax, DWORD PTR ?overload_invalid_float_type_message@@3PBDB ; overload_invalid_float_type_message
  00d63	50		 push	 eax
  00d64	e8 00 00 00 00	 call	 ?process_assert@@YGXPBD0H@Z ; process_assert
  00d69	c7 85 34 ff ff
	ff 00 00 00 00	 mov	 DWORD PTR tv584[ebp], 0
$LN97@create_lan:
  00d73	6a 34		 push	 52			; 00000034H
  00d75	8b 4d 08	 mov	 ecx, DWORD PTR _keysite$[ebp]
  00d78	51		 push	 ecx
  00d79	69 95 38 ff ff
	ff bc 02 00 00	 imul	 edx, DWORD PTR tv576[ebp], 700
  00d83	8b 85 34 ff ff
	ff		 mov	 eax, DWORD PTR tv584[ebp]
  00d89	8b 8c 82 00 00
	00 00		 mov	 ecx, DWORD PTR ?fn_get_local_entity_float_value@@3PAY0KP@P6GMPAUENTITY@@W4FLOAT_TYPES@@@ZA[edx+eax*4]
  00d90	ff d1		 call	 ecx
  00d92	d9 5d f4	 fstp	 DWORD PTR _heading$[ebp]

; 709  : 
; 710  : 			get_3d_terrain_face_normal (&face_normal, pos.x, pos.z);

  00d95	51		 push	 ecx
  00d96	f3 0f 10 45 c4	 movss	 xmm0, DWORD PTR _pos$[ebp+8]
  00d9b	f3 0f 11 04 24	 movss	 DWORD PTR [esp], xmm0
  00da0	51		 push	 ecx
  00da1	f3 0f 10 45 bc	 movss	 xmm0, DWORD PTR _pos$[ebp]
  00da6	f3 0f 11 04 24	 movss	 DWORD PTR [esp], xmm0
  00dab	8d 45 b0	 lea	 eax, DWORD PTR _face_normal$[ebp]
  00dae	50		 push	 eax
  00daf	e8 00 00 00 00	 call	 ?get_3d_terrain_face_normal@@YGXPAUVEC3D@@MM@Z ; get_3d_terrain_face_normal

; 711  : 
; 712  : 			get_3d_transformation_matrix_from_face_normal_and_heading (attitude, &face_normal, heading);

  00db4	51		 push	 ecx
  00db5	f3 0f 10 45 f4	 movss	 xmm0, DWORD PTR _heading$[ebp]
  00dba	f3 0f 11 04 24	 movss	 DWORD PTR [esp], xmm0
  00dbf	8d 45 b0	 lea	 eax, DWORD PTR _face_normal$[ebp]
  00dc2	50		 push	 eax
  00dc3	8d 4d c8	 lea	 ecx, DWORD PTR _attitude$[ebp]
  00dc6	51		 push	 ecx
  00dc7	e8 00 00 00 00	 call	 ?get_3d_transformation_matrix_from_face_normal_and_heading@@YGXQAY02MPBUVEC3D@@M@Z ; get_3d_transformation_matrix_from_face_normal_and_heading

; 713  : 
; 714  : 			pitch = get_pitch_from_attitude_matrix (attitude);

  00dcc	b8 0c 00 00 00	 mov	 eax, 12			; 0000000cH
  00dd1	d1 e0		 shl	 eax, 1
  00dd3	8d 4c 05 c8	 lea	 ecx, DWORD PTR _attitude$[ebp+eax]
  00dd7	ba 04 00 00 00	 mov	 edx, 4
  00ddc	c1 e2 00	 shl	 edx, 0
  00ddf	51		 push	 ecx
  00de0	f3 0f 10 04 11	 movss	 xmm0, DWORD PTR [ecx+edx]
  00de5	f3 0f 11 04 24	 movss	 DWORD PTR [esp], xmm0
  00dea	e8 00 00 00 00	 call	 ?asin@@YGMM@Z		; asin
  00def	d9 5d f0	 fstp	 DWORD PTR _pitch$[ebp]

; 715  : 
; 716  : 			pitch += fuselage_angle;

  00df2	f3 0f 10 45 f0	 movss	 xmm0, DWORD PTR _pitch$[ebp]
  00df7	f3 0f 58 45 f8	 addss	 xmm0, DWORD PTR _fuselage_angle$[ebp]
  00dfc	f3 0f 11 45 f0	 movss	 DWORD PTR _pitch$[ebp], xmm0

; 717  : 
; 718  : 			roll = get_roll_from_attitude_matrix (attitude);

  00e01	b8 0c 00 00 00	 mov	 eax, 12			; 0000000cH
  00e06	c1 e0 00	 shl	 eax, 0
  00e09	8d 4c 05 c8	 lea	 ecx, DWORD PTR _attitude$[ebp+eax]
  00e0d	ba 04 00 00 00	 mov	 edx, 4
  00e12	c1 e2 00	 shl	 edx, 0
  00e15	51		 push	 ecx
  00e16	f3 0f 10 04 11	 movss	 xmm0, DWORD PTR [ecx+edx]
  00e1b	f3 0f 11 04 24	 movss	 DWORD PTR [esp], xmm0
  00e20	b8 0c 00 00 00	 mov	 eax, 12			; 0000000cH
  00e25	6b c8 00	 imul	 ecx, eax, 0
  00e28	8d 54 0d c8	 lea	 edx, DWORD PTR _attitude$[ebp+ecx]
  00e2c	b8 04 00 00 00	 mov	 eax, 4
  00e31	c1 e0 00	 shl	 eax, 0
  00e34	f3 0f 10 04 02	 movss	 xmm0, DWORD PTR [edx+eax]
  00e39	0f 57 05 00 00
	00 00		 xorps	 xmm0, DWORD PTR __xmm@80000000800000008000000080000000
  00e40	51		 push	 ecx
  00e41	f3 0f 11 04 24	 movss	 DWORD PTR [esp], xmm0
  00e46	e8 00 00 00 00	 call	 ?atan2@@YGMMM@Z		; atan2
  00e4b	d9 5d ec	 fstp	 DWORD PTR _roll$[ebp]

; 719  : 
; 720  : 			set_local_entity_attitude_angles (member, heading, pitch, roll);

  00e4e	83 7d 90 00	 cmp	 DWORD PTR _member$[ebp], 0
  00e52	74 0d		 je	 SHORT $LN98@create_lan
  00e54	8b 45 90	 mov	 eax, DWORD PTR _member$[ebp]
  00e57	8b 08		 mov	 ecx, DWORD PTR [eax]
  00e59	89 8d 38 ff ff
	ff		 mov	 DWORD PTR tv621[ebp], ecx
  00e5f	eb 27		 jmp	 SHORT $LN99@create_lan
$LN98@create_lan:
  00e61	8b 15 00 00 00
	00		 mov	 edx, DWORD PTR ?__LINE__Var@?0??create_landed_faction_group@@YGPAUENTITY@@PAU2@HW4FORMATION_COMPONENT_TYPES@@@Z@4JA
  00e67	81 c2 e1 00 00
	00		 add	 edx, 225		; 000000e1H
  00e6d	52		 push	 edx
  00e6e	68 00 00 00 00	 push	 OFFSET ??_C@_0EB@JEOGKGCM@c?3?2users?2nhv90?2projects?2eech?2ap@
  00e73	a1 00 00 00 00	 mov	 eax, DWORD PTR ?null_entity_pointer_message@@3PBDB ; null_entity_pointer_message
  00e78	50		 push	 eax
  00e79	e8 00 00 00 00	 call	 ?process_assert@@YGXPBD0H@Z ; process_assert
  00e7e	c7 85 38 ff ff
	ff 00 00 00 00	 mov	 DWORD PTR tv621[ebp], 0
$LN99@create_lan:
  00e88	51		 push	 ecx
  00e89	f3 0f 10 45 ec	 movss	 xmm0, DWORD PTR _roll$[ebp]
  00e8e	f3 0f 11 04 24	 movss	 DWORD PTR [esp], xmm0
  00e93	51		 push	 ecx
  00e94	f3 0f 10 45 f0	 movss	 xmm0, DWORD PTR _pitch$[ebp]
  00e99	f3 0f 11 04 24	 movss	 DWORD PTR [esp], xmm0
  00e9e	51		 push	 ecx
  00e9f	f3 0f 10 45 f4	 movss	 xmm0, DWORD PTR _heading$[ebp]
  00ea4	f3 0f 11 04 24	 movss	 DWORD PTR [esp], xmm0
  00ea9	8b 4d 90	 mov	 ecx, DWORD PTR _member$[ebp]
  00eac	51		 push	 ecx
  00ead	8b 95 38 ff ff
	ff		 mov	 edx, DWORD PTR tv621[ebp]
  00eb3	8b 04 95 00 00
	00 00		 mov	 eax, DWORD PTR ?fn_set_local_entity_attitude_angles@@3PAP6GXPAUENTITY@@MMM@ZA[edx*4]
  00eba	ff d0		 call	 eax

; 721  : 
; 722  : 			set_local_entity_vec3d (member, VEC3D_TYPE_POSITION, &pos);

  00ebc	83 7d 90 00	 cmp	 DWORD PTR _member$[ebp], 0
  00ec0	74 0d		 je	 SHORT $LN100@create_lan
  00ec2	8b 45 90	 mov	 eax, DWORD PTR _member$[ebp]
  00ec5	8b 08		 mov	 ecx, DWORD PTR [eax]
  00ec7	89 8d 38 ff ff
	ff		 mov	 DWORD PTR tv634[ebp], ecx
  00ecd	eb 27		 jmp	 SHORT $LN101@create_lan
$LN100@create_lan:
  00ecf	8b 15 00 00 00
	00		 mov	 edx, DWORD PTR ?__LINE__Var@?0??create_landed_faction_group@@YGPAUENTITY@@PAU2@HW4FORMATION_COMPONENT_TYPES@@@Z@4JA
  00ed5	81 c2 e3 00 00
	00		 add	 edx, 227		; 000000e3H
  00edb	52		 push	 edx
  00edc	68 00 00 00 00	 push	 OFFSET ??_C@_0EB@JEOGKGCM@c?3?2users?2nhv90?2projects?2eech?2ap@
  00ee1	a1 00 00 00 00	 mov	 eax, DWORD PTR ?null_entity_pointer_message@@3PBDB ; null_entity_pointer_message
  00ee6	50		 push	 eax
  00ee7	e8 00 00 00 00	 call	 ?process_assert@@YGXPBD0H@Z ; process_assert
  00eec	c7 85 38 ff ff
	ff 00 00 00 00	 mov	 DWORD PTR tv634[ebp], 0
$LN101@create_lan:
  00ef6	b9 01 00 00 00	 mov	 ecx, 1
  00efb	85 c9		 test	 ecx, ecx
  00efd	74 0c		 je	 SHORT $LN102@create_lan
  00eff	c7 85 34 ff ff
	ff 08 00 00 00	 mov	 DWORD PTR tv642[ebp], 8
  00f09	eb 27		 jmp	 SHORT $LN103@create_lan
$LN102@create_lan:
  00f0b	8b 15 00 00 00
	00		 mov	 edx, DWORD PTR ?__LINE__Var@?0??create_landed_faction_group@@YGPAUENTITY@@PAU2@HW4FORMATION_COMPONENT_TYPES@@@Z@4JA
  00f11	81 c2 e3 00 00
	00		 add	 edx, 227		; 000000e3H
  00f17	52		 push	 edx
  00f18	68 00 00 00 00	 push	 OFFSET ??_C@_0EB@JEOGKGCM@c?3?2users?2nhv90?2projects?2eech?2ap@
  00f1d	a1 00 00 00 00	 mov	 eax, DWORD PTR ?overload_invalid_vec3d_type_message@@3PBDB ; overload_invalid_vec3d_type_message
  00f22	50		 push	 eax
  00f23	e8 00 00 00 00	 call	 ?process_assert@@YGXPBD0H@Z ; process_assert
  00f28	c7 85 34 ff ff
	ff 00 00 00 00	 mov	 DWORD PTR tv642[ebp], 0
$LN103@create_lan:
  00f32	8d 4d bc	 lea	 ecx, DWORD PTR _pos$[ebp]
  00f35	51		 push	 ecx
  00f36	6a 08		 push	 8
  00f38	8b 55 90	 mov	 edx, DWORD PTR _member$[ebp]
  00f3b	52		 push	 edx
  00f3c	6b 85 38 ff ff
	ff 60		 imul	 eax, DWORD PTR tv634[ebp], 96
  00f43	8b 8d 34 ff ff
	ff		 mov	 ecx, DWORD PTR tv642[ebp]
  00f49	8b 94 88 00 00
	00 00		 mov	 edx, DWORD PTR ?fn_set_local_entity_vec3d@@3PAY0BI@P6GXPAUENTITY@@W4VEC3D_TYPES@@PAUVEC3D@@@ZA[eax+ecx*4]
  00f50	ff d2		 call	 edx

; 723  : 
; 724  : 			#if DEBUG_MODULE
; 725  : 
; 726  : 			debug_log ("FACTION: placing member %d (%s) at %f, %f, %f, formation_pos %d at keysite %s", get_local_entity_index (member), get_local_entity_type_name (member), pos.x, pos.y, pos.z, formation_position, get_local_entity_string (keysite, STRING_TYPE_KEYSITE_NAME));
; 727  : 
; 728  : 			#endif
; 729  : 
; 730  : 			//
; 731  : 			// Lock landing site for member and add to dependent list
; 732  : 			//
; 733  : 
; 734  : 			notify_local_entity (ENTITY_MESSAGE_LOCK_LANDING_SITE, landing_en, member);

  00f52	8b 45 90	 mov	 eax, DWORD PTR _member$[ebp]
  00f55	50		 push	 eax
  00f56	8b 4d 88	 mov	 ecx, DWORD PTR _landing_en$[ebp]
  00f59	51		 push	 ecx
  00f5a	6a 26		 push	 38			; 00000026H
  00f5c	e8 00 00 00 00	 call	 ?notify_local_entity@@YAHW4ENTITY_MESSAGES@@PAUENTITY@@1ZZ ; notify_local_entity
  00f61	83 c4 0c	 add	 esp, 12			; 0000000cH

; 735  : 		}

  00f64	e9 94 f4 ff ff	 jmp	 $LN4@create_lan
$LN5@create_lan:

; 736  : 
; 737  : 		//
; 738  : 		// Assign each member a unique ID number
; 739  : 		//
; 740  : 
; 741  : 		set_group_member_numbers (group);

  00f69	8b 45 94	 mov	 eax, DWORD PTR _group$[ebp]
  00f6c	50		 push	 eax
  00f6d	e8 00 00 00 00	 call	 ?set_group_member_numbers@@YGXPAUENTITY@@@Z ; set_group_member_numbers

; 742  : 
; 743  : 		return group;

  00f72	8b 45 94	 mov	 eax, DWORD PTR _group$[ebp]
  00f75	e9 bf 00 00 00	 jmp	 $LN1@create_lan

; 744  : 	}
; 745  : 	else

  00f7a	e9 b8 00 00 00	 jmp	 $LN16@create_lan
$LN15@create_lan:

; 746  : 	{
; 747  : 		#ifdef DEBUG
; 748  : 		
; 749  : 		debug_fatal ("FACTION: No landing entity for group type %s at %s (%d)",

  00f7f	83 7d 08 00	 cmp	 DWORD PTR _keysite$[ebp], 0
  00f83	74 0d		 je	 SHORT $LN104@create_lan
  00f85	8b 45 08	 mov	 eax, DWORD PTR _keysite$[ebp]
  00f88	8b 08		 mov	 ecx, DWORD PTR [eax]
  00f8a	89 8d 38 ff ff
	ff		 mov	 DWORD PTR tv661[ebp], ecx
  00f90	eb 27		 jmp	 SHORT $LN105@create_lan
$LN104@create_lan:
  00f92	8b 15 00 00 00
	00		 mov	 edx, DWORD PTR ?__LINE__Var@?0??create_landed_faction_group@@YGPAUENTITY@@PAU2@HW4FORMATION_COMPONENT_TYPES@@@Z@4JA
  00f98	81 c2 00 01 00
	00		 add	 edx, 256		; 00000100H
  00f9e	52		 push	 edx
  00f9f	68 00 00 00 00	 push	 OFFSET ??_C@_0EB@JEOGKGCM@c?3?2users?2nhv90?2projects?2eech?2ap@
  00fa4	a1 00 00 00 00	 mov	 eax, DWORD PTR ?null_entity_pointer_message@@3PBDB ; null_entity_pointer_message
  00fa9	50		 push	 eax
  00faa	e8 00 00 00 00	 call	 ?process_assert@@YGXPBD0H@Z ; process_assert
  00faf	c7 85 38 ff ff
	ff 00 00 00 00	 mov	 DWORD PTR tv661[ebp], 0
$LN105@create_lan:
  00fb9	b9 01 00 00 00	 mov	 ecx, 1
  00fbe	85 c9		 test	 ecx, ecx
  00fc0	74 0c		 je	 SHORT $LN106@create_lan
  00fc2	c7 85 34 ff ff
	ff 07 00 00 00	 mov	 DWORD PTR tv669[ebp], 7
  00fcc	eb 27		 jmp	 SHORT $LN107@create_lan
$LN106@create_lan:
  00fce	8b 15 00 00 00
	00		 mov	 edx, DWORD PTR ?__LINE__Var@?0??create_landed_faction_group@@YGPAUENTITY@@PAU2@HW4FORMATION_COMPONENT_TYPES@@@Z@4JA
  00fd4	81 c2 00 01 00
	00		 add	 edx, 256		; 00000100H
  00fda	52		 push	 edx
  00fdb	68 00 00 00 00	 push	 OFFSET ??_C@_0EB@JEOGKGCM@c?3?2users?2nhv90?2projects?2eech?2ap@
  00fe0	a1 00 00 00 00	 mov	 eax, DWORD PTR ?overload_invalid_string_type_message@@3PBDB ; overload_invalid_string_type_message
  00fe5	50		 push	 eax
  00fe6	e8 00 00 00 00	 call	 ?process_assert@@YGXPBD0H@Z ; process_assert
  00feb	c7 85 34 ff ff
	ff 00 00 00 00	 mov	 DWORD PTR tv669[ebp], 0
$LN107@create_lan:
  00ff5	8b 4d 08	 mov	 ecx, DWORD PTR _keysite$[ebp]
  00ff8	2b 0d 00 00 00
	00		 sub	 ecx, DWORD PTR ?entities@@3PAUENTITY@@A ; entities
  00ffe	c1 f9 04	 sar	 ecx, 4
  01001	51		 push	 ecx
  01002	6a 07		 push	 7
  01004	8b 55 08	 mov	 edx, DWORD PTR _keysite$[ebp]
  01007	52		 push	 edx
  01008	6b 85 38 ff ff
	ff 34		 imul	 eax, DWORD PTR tv661[ebp], 52
  0100f	8b 8d 34 ff ff
	ff		 mov	 ecx, DWORD PTR tv669[ebp]
  01015	8b 94 88 00 00
	00 00		 mov	 edx, DWORD PTR ?fn_get_local_entity_string@@3PAY0N@P6GPBDPAUENTITY@@W4STRING_TYPES@@@ZA[eax+ecx*4]
  0101c	ff d2		 call	 edx
  0101e	50		 push	 eax
  0101f	6b 45 0c 64	 imul	 eax, DWORD PTR _group_type$[ebp], 100
  01023	8b 88 00 00 00
	00		 mov	 ecx, DWORD PTR ?group_database@@3PAUGROUP_DATA@@A[eax]
  01029	51		 push	 ecx
  0102a	68 00 00 00 00	 push	 OFFSET ??_C@_0DI@OLFMFAKH@FACTION?3?5No?5landing?5entity?5for?5@
  0102f	e8 00 00 00 00	 call	 ?debug_fatal@@YAXPBDZZ	; debug_fatal
  01034	83 c4 10	 add	 esp, 16			; 00000010H
$LN16@create_lan:

; 750  : 								group_database [group_type].full_name,
; 751  : 								get_local_entity_string (keysite, STRING_TYPE_KEYSITE_NAME),
; 752  : 								get_local_entity_index (keysite));
; 753  : 
; 754  : 		#endif
; 755  : 	}
; 756  : 
; 757  : 	return NULL;

  01037	33 c0		 xor	 eax, eax
$LN1@create_lan:

; 758  : }

  01039	5f		 pop	 edi
  0103a	5e		 pop	 esi
  0103b	5b		 pop	 ebx
  0103c	8b e5		 mov	 esp, ebp
  0103e	5d		 pop	 ebp
  0103f	c2 0c 00	 ret	 12			; 0000000cH
?create_landed_faction_group@@YGPAUENTITY@@PAU1@HW4FORMATION_COMPONENT_TYPES@@@Z ENDP ; create_landed_faction_group
_TEXT	ENDS
; Function compile flags: /Odtp /ZI
; File c:\users\nhv90\projects\eech\aphavoc\source\ai\faction\faction.c
;	COMDAT ?create_landed_faction_members@@YGPAUENTITY@@PAU1@HHH@Z
_TEXT	SEGMENT
tv791 = -196						; size = 4
tv550 = -192						; size = 4
tv492 = -192						; size = 4
tv471 = -192						; size = 4
tv451 = -192						; size = 4
tv426 = -192						; size = 4
tv405 = -192						; size = 4
tv376 = -192						; size = 4
tv339 = -192						; size = 4
tv317 = -192						; size = 4
tv291 = -192						; size = 4
tv270 = -192						; size = 4
tv226 = -192						; size = 4
tv200 = -192						; size = 4
tv179 = -192						; size = 4
tv95 = -192						; size = 4
tv542 = -188						; size = 4
tv529 = -188						; size = 4
tv484 = -188						; size = 4
tv463 = -188						; size = 4
tv443 = -188						; size = 4
tv419 = -188						; size = 4
tv397 = -188						; size = 4
tv368 = -188						; size = 4
tv331 = -188						; size = 4
tv309 = -188						; size = 4
tv283 = -188						; size = 4
tv263 = -188						; size = 4
tv218 = -188						; size = 4
tv192 = -188						; size = 4
tv171 = -188						; size = 4
tv87 = -188						; size = 4
tv75 = -188						; size = 4
_side$ = -120						; size = 4
_movement_parent$ = -116				; size = 4
_landing_en$ = -112					; size = 4
_parent$ = -108						; size = 4
_member$ = -104						; size = 4
_group$ = -100						; size = 4
_wp$ = -96						; size = 4
_loop$ = -92						; size = 4
_formation_position$ = -88				; size = 4
_index$ = -84						; size = 4
_list_type$ = -80					; size = 4
_face_normal$ = -76					; size = 12
_pos$ = -64						; size = 12
_attitude$ = -52					; size = 36
_roll$ = -16						; size = 4
_pitch$ = -12						; size = 4
_heading$ = -8						; size = 4
_fuselage_angle$ = -4					; size = 4
_keysite$ = 8						; size = 4
_member_type$ = 12					; size = 4
_group_type$ = 16					; size = 4
_number$ = 20						; size = 4
?create_landed_faction_members@@YGPAUENTITY@@PAU1@HHH@Z PROC ; create_landed_faction_members, COMDAT

; 267  : {

  00000	55		 push	 ebp
  00001	8b ec		 mov	 ebp, esp
  00003	81 ec c4 00 00
	00		 sub	 esp, 196		; 000000c4H
  00009	53		 push	 ebx
  0000a	56		 push	 esi
  0000b	57		 push	 edi

; 268  :    float
; 269  :       fuselage_angle = 0,

  0000c	0f 57 c0	 xorps	 xmm0, xmm0
  0000f	f3 0f 11 45 fc	 movss	 DWORD PTR _fuselage_angle$[ebp], xmm0

; 270  :       heading,
; 271  :       pitch,
; 272  :       roll;
; 273  : 
; 274  :    matrix3x3
; 275  :       attitude;
; 276  : 
; 277  :    vec3d
; 278  :       pos,
; 279  :       face_normal;
; 280  : 
; 281  : 	list_types
; 282  : 		list_type;
; 283  : 
; 284  :    int
; 285  : 		index,
; 286  :       formation_position,
; 287  :       loop;
; 288  : 
; 289  :    entity
; 290  :       *wp,
; 291  :       *group,
; 292  :       *member,
; 293  : 		*parent,
; 294  :       *landing_en,
; 295  : 		*movement_parent;
; 296  : 
; 297  : 	entity_sides
; 298  : 		side;
; 299  : 
; 300  :    #if DEBUG_MODULE
; 301  : 
; 302  :    debug_log ("FACTION: create landed members type %d, sub type %d, number %d", member_type, group_type, number);
; 303  : 
; 304  :    #endif
; 305  : 
; 306  : 	ASSERT (keysite);

  00014	83 7d 08 00	 cmp	 DWORD PTR _keysite$[ebp], 0
  00018	75 18		 jne	 SHORT $LN9@create_lan
  0001a	a1 00 00 00 00	 mov	 eax, DWORD PTR ?__LINE__Var@?0??create_landed_faction_members@@YGPAUENTITY@@PAU2@HHH@Z@4JA
  0001f	83 c0 27	 add	 eax, 39			; 00000027H
  00022	50		 push	 eax
  00023	68 00 00 00 00	 push	 OFFSET ??_C@_0EB@JEOGKGCM@c?3?2users?2nhv90?2projects?2eech?2ap@
  00028	68 00 00 00 00	 push	 OFFSET ??_C@_07FBNBNOMI@keysite@
  0002d	e8 00 00 00 00	 call	 ?process_assert@@YGXPBD0H@Z ; process_assert
$LN9@create_lan:

; 307  : 	
; 308  : 	ASSERT (get_local_entity_type (keysite) == ENTITY_TYPE_KEYSITE);

  00032	83 7d 08 00	 cmp	 DWORD PTR _keysite$[ebp], 0
  00036	74 0d		 je	 SHORT $LN23@create_lan
  00038	8b 45 08	 mov	 eax, DWORD PTR _keysite$[ebp]
  0003b	8b 08		 mov	 ecx, DWORD PTR [eax]
  0003d	89 8d 44 ff ff
	ff		 mov	 DWORD PTR tv75[ebp], ecx
  00043	eb 24		 jmp	 SHORT $LN24@create_lan
$LN23@create_lan:
  00045	8b 15 00 00 00
	00		 mov	 edx, DWORD PTR ?__LINE__Var@?0??create_landed_faction_members@@YGPAUENTITY@@PAU2@HHH@Z@4JA
  0004b	83 c2 29	 add	 edx, 41			; 00000029H
  0004e	52		 push	 edx
  0004f	68 00 00 00 00	 push	 OFFSET ??_C@_0EB@JEOGKGCM@c?3?2users?2nhv90?2projects?2eech?2ap@
  00054	a1 00 00 00 00	 mov	 eax, DWORD PTR ?null_entity_pointer_message@@3PBDB ; null_entity_pointer_message
  00059	50		 push	 eax
  0005a	e8 00 00 00 00	 call	 ?process_assert@@YGXPBD0H@Z ; process_assert
  0005f	c7 85 44 ff ff
	ff 00 00 00 00	 mov	 DWORD PTR tv75[ebp], 0
$LN24@create_lan:
  00069	83 bd 44 ff ff
	ff 0f		 cmp	 DWORD PTR tv75[ebp], 15	; 0000000fH
  00070	74 18		 je	 SHORT $LN10@create_lan
  00072	a1 00 00 00 00	 mov	 eax, DWORD PTR ?__LINE__Var@?0??create_landed_faction_members@@YGPAUENTITY@@PAU2@HHH@Z@4JA
  00077	83 c0 29	 add	 eax, 41			; 00000029H
  0007a	50		 push	 eax
  0007b	68 00 00 00 00	 push	 OFFSET ??_C@_0EB@JEOGKGCM@c?3?2users?2nhv90?2projects?2eech?2ap@
  00080	68 00 00 00 00	 push	 OFFSET ??_C@_0DH@KIHAKAGM@get_local_entity_type?5?$CIkeysite?$CJ@
  00085	e8 00 00 00 00	 call	 ?process_assert@@YGXPBD0H@Z ; process_assert
$LN10@create_lan:

; 309  : 
; 310  : 	side = (entity_sides) get_local_entity_int_value (keysite, INT_TYPE_SIDE);

  0008a	83 7d 08 00	 cmp	 DWORD PTR _keysite$[ebp], 0
  0008e	74 0d		 je	 SHORT $LN25@create_lan
  00090	8b 45 08	 mov	 eax, DWORD PTR _keysite$[ebp]
  00093	8b 08		 mov	 ecx, DWORD PTR [eax]
  00095	89 8d 44 ff ff
	ff		 mov	 DWORD PTR tv87[ebp], ecx
  0009b	eb 24		 jmp	 SHORT $LN26@create_lan
$LN25@create_lan:
  0009d	8b 15 00 00 00
	00		 mov	 edx, DWORD PTR ?__LINE__Var@?0??create_landed_faction_members@@YGPAUENTITY@@PAU2@HHH@Z@4JA
  000a3	83 c2 2b	 add	 edx, 43			; 0000002bH
  000a6	52		 push	 edx
  000a7	68 00 00 00 00	 push	 OFFSET ??_C@_0EB@JEOGKGCM@c?3?2users?2nhv90?2projects?2eech?2ap@
  000ac	a1 00 00 00 00	 mov	 eax, DWORD PTR ?null_entity_pointer_message@@3PBDB ; null_entity_pointer_message
  000b1	50		 push	 eax
  000b2	e8 00 00 00 00	 call	 ?process_assert@@YGXPBD0H@Z ; process_assert
  000b7	c7 85 44 ff ff
	ff 00 00 00 00	 mov	 DWORD PTR tv87[ebp], 0
$LN26@create_lan:
  000c1	b9 01 00 00 00	 mov	 ecx, 1
  000c6	85 c9		 test	 ecx, ecx
  000c8	74 0c		 je	 SHORT $LN27@create_lan
  000ca	c7 85 40 ff ff
	ff bb 00 00 00	 mov	 DWORD PTR tv95[ebp], 187 ; 000000bbH
  000d4	eb 24		 jmp	 SHORT $LN28@create_lan
$LN27@create_lan:
  000d6	8b 15 00 00 00
	00		 mov	 edx, DWORD PTR ?__LINE__Var@?0??create_landed_faction_members@@YGPAUENTITY@@PAU2@HHH@Z@4JA
  000dc	83 c2 2b	 add	 edx, 43			; 0000002bH
  000df	52		 push	 edx
  000e0	68 00 00 00 00	 push	 OFFSET ??_C@_0EB@JEOGKGCM@c?3?2users?2nhv90?2projects?2eech?2ap@
  000e5	a1 00 00 00 00	 mov	 eax, DWORD PTR ?overload_invalid_int_type_message@@3PBDB ; overload_invalid_int_type_message
  000ea	50		 push	 eax
  000eb	e8 00 00 00 00	 call	 ?process_assert@@YGXPBD0H@Z ; process_assert
  000f0	c7 85 40 ff ff
	ff 00 00 00 00	 mov	 DWORD PTR tv95[ebp], 0
$LN28@create_lan:
  000fa	68 bb 00 00 00	 push	 187			; 000000bbH
  000ff	8b 4d 08	 mov	 ecx, DWORD PTR _keysite$[ebp]
  00102	51		 push	 ecx
  00103	69 95 44 ff ff
	ff 5c 04 00 00	 imul	 edx, DWORD PTR tv87[ebp], 1116
  0010d	8b 85 40 ff ff
	ff		 mov	 eax, DWORD PTR tv95[ebp]
  00113	8b 8c 82 00 00
	00 00		 mov	 ecx, DWORD PTR ?fn_get_local_entity_int_value@@3PAY0BBH@P6GHPAUENTITY@@W4INT_TYPES@@@ZA[edx+eax*4]
  0011a	ff d1		 call	 ecx
  0011c	89 45 88	 mov	 DWORD PTR _side$[ebp], eax

; 311  : 
; 312  : 	list_type = group_database [group_type].group_list_type;

  0011f	6b 45 10 64	 imul	 eax, DWORD PTR _group_type$[ebp], 100
  00123	8b 88 10 00 00
	00		 mov	 ecx, DWORD PTR ?group_database@@3PAUGROUP_DATA@@A[eax+16]
  00129	89 4d b0	 mov	 DWORD PTR _list_type$[ebp], ecx

; 313  : 
; 314  : 	if (list_type == LIST_TYPE_INDEPENDENT_GROUP)

  0012c	83 7d b0 14	 cmp	 DWORD PTR _list_type$[ebp], 20 ; 00000014H
  00130	75 0e		 jne	 SHORT $LN11@create_lan

; 315  : 	{
; 316  : 		parent = get_local_force_entity (side);

  00132	8b 45 88	 mov	 eax, DWORD PTR _side$[ebp]
  00135	50		 push	 eax
  00136	e8 00 00 00 00	 call	 ?get_local_force_entity@@YGPAUENTITY@@W4ENTITY_SIDES@@@Z ; get_local_force_entity
  0013b	89 45 94	 mov	 DWORD PTR _parent$[ebp], eax

; 317  : 	}
; 318  : 	else

  0013e	eb 06		 jmp	 SHORT $LN12@create_lan
$LN11@create_lan:

; 319  : 	{
; 320  : 		parent = keysite;

  00140	8b 45 08	 mov	 eax, DWORD PTR _keysite$[ebp]
  00143	89 45 94	 mov	 DWORD PTR _parent$[ebp], eax
$LN12@create_lan:

; 321  : 	}
; 322  : 
; 323  : 	ASSERT (parent);

  00146	83 7d 94 00	 cmp	 DWORD PTR _parent$[ebp], 0
  0014a	75 18		 jne	 SHORT $LN13@create_lan
  0014c	a1 00 00 00 00	 mov	 eax, DWORD PTR ?__LINE__Var@?0??create_landed_faction_members@@YGPAUENTITY@@PAU2@HHH@Z@4JA
  00151	83 c0 38	 add	 eax, 56			; 00000038H
  00154	50		 push	 eax
  00155	68 00 00 00 00	 push	 OFFSET ??_C@_0EB@JEOGKGCM@c?3?2users?2nhv90?2projects?2eech?2ap@
  0015a	68 00 00 00 00	 push	 OFFSET ??_C@_06MLKDMCBD@parent@
  0015f	e8 00 00 00 00	 call	 ?process_assert@@YGXPBD0H@Z ; process_assert
$LN13@create_lan:

; 324  : 
; 325  : 	landing_en = NULL;

  00164	c7 45 90 00 00
	00 00		 mov	 DWORD PTR _landing_en$[ebp], 0

; 326  : 
; 327  :    debug_assert (get_comms_model () == COMMS_MODEL_SERVER);

  0016b	83 3d 00 00 00
	00 00		 cmp	 DWORD PTR ?system_comms_model@@3W4COMMS_MODEL_TYPES@@A, 0 ; system_comms_model
  00172	74 20		 je	 SHORT $LN14@create_lan
  00174	a1 00 00 00 00	 mov	 eax, DWORD PTR ?__LINE__Var@?0??create_landed_faction_members@@YGPAUENTITY@@PAU2@HHH@Z@4JA
  00179	83 c0 3c	 add	 eax, 60			; 0000003cH
  0017c	50		 push	 eax
  0017d	68 00 00 00 00	 push	 OFFSET ??_C@_0EB@JEOGKGCM@c?3?2users?2nhv90?2projects?2eech?2ap@
  00182	68 00 00 00 00	 push	 OFFSET ??_C@_0CJ@DMBLBJBK@get_comms_model?5?$CI?$CJ?5?$DN?$DN?5COMMS_MOD@
  00187	68 00 00 00 00	 push	 OFFSET ??_C@_0BC@PODNONFH@ASSERT?5?$CFs?5?$CI?$CFs?3?$CFd?$CJ@
  0018c	e8 00 00 00 00	 call	 ?debug_fatal@@YAXPBDZZ	; debug_fatal
  00191	83 c4 10	 add	 esp, 16			; 00000010H
$LN14@create_lan:

; 328  : 
; 329  : 	ASSERT (get_game_status () == GAME_STATUS_INITIALISING);

  00194	83 3d 00 00 00
	00 02		 cmp	 DWORD PTR ?game_status@@3W4GAME_STATUS_TYPES@@A, 2 ; game_status
  0019b	74 18		 je	 SHORT $LN15@create_lan
  0019d	a1 00 00 00 00	 mov	 eax, DWORD PTR ?__LINE__Var@?0??create_landed_faction_members@@YGPAUENTITY@@PAU2@HHH@Z@4JA
  001a2	83 c0 3e	 add	 eax, 62			; 0000003eH
  001a5	50		 push	 eax
  001a6	68 00 00 00 00	 push	 OFFSET ??_C@_0EB@JEOGKGCM@c?3?2users?2nhv90?2projects?2eech?2ap@
  001ab	68 00 00 00 00	 push	 OFFSET ??_C@_0CP@NOCCPNPK@get_game_status?5?$CI?$CJ?5?$DN?$DN?5GAME_STAT@
  001b0	e8 00 00 00 00	 call	 ?process_assert@@YGXPBD0H@Z ; process_assert
$LN15@create_lan:

; 330  : 
; 331  :    landing_en = get_local_entity_landing_entity (keysite, group_database [group_type].default_landing_type);

  001b5	6b 45 10 64	 imul	 eax, DWORD PTR _group_type$[ebp], 100
  001b9	8b 88 18 00 00
	00		 mov	 ecx, DWORD PTR ?group_database@@3PAUGROUP_DATA@@A[eax+24]
  001bf	51		 push	 ecx
  001c0	8b 55 08	 mov	 edx, DWORD PTR _keysite$[ebp]
  001c3	52		 push	 edx
  001c4	e8 00 00 00 00	 call	 ?get_local_entity_landing_entity@@YGPAUENTITY@@PAU1@H@Z ; get_local_entity_landing_entity
  001c9	89 45 90	 mov	 DWORD PTR _landing_en$[ebp], eax

; 332  : 
; 333  :    if (landing_en)

  001cc	83 7d 90 00	 cmp	 DWORD PTR _landing_en$[ebp], 0
  001d0	0f 84 23 0b 00
	00		 je	 $LN18@create_lan

; 334  :    {
; 335  : 
; 336  :       //
; 337  :       // skip through route to last waypoint, i.e. landed waypoint.
; 338  :       //
; 339  : 
; 340  :       wp = get_local_landing_entity_route (landing_en, ENTITY_SUB_TYPE_TASK_LANDING);

  001d6	6a 0d		 push	 13			; 0000000dH
  001d8	8b 45 90	 mov	 eax, DWORD PTR _landing_en$[ebp]
  001db	50		 push	 eax
  001dc	e8 00 00 00 00	 call	 ?get_local_landing_entity_route@@YGPAUENTITY@@PAU1@H@Z ; get_local_landing_entity_route
  001e1	89 45 a0	 mov	 DWORD PTR _wp$[ebp], eax
$LN2@create_lan:

; 341  : 
; 342  :       while (get_local_entity_child_succ (wp, LIST_TYPE_WAYPOINT))

  001e4	83 7d a0 00	 cmp	 DWORD PTR _wp$[ebp], 0
  001e8	74 0d		 je	 SHORT $LN29@create_lan
  001ea	8b 45 a0	 mov	 eax, DWORD PTR _wp$[ebp]
  001ed	8b 08		 mov	 ecx, DWORD PTR [eax]
  001ef	89 8d 44 ff ff
	ff		 mov	 DWORD PTR tv171[ebp], ecx
  001f5	eb 24		 jmp	 SHORT $LN30@create_lan
$LN29@create_lan:
  001f7	8b 15 00 00 00
	00		 mov	 edx, DWORD PTR ?__LINE__Var@?0??create_landed_faction_members@@YGPAUENTITY@@PAU2@HHH@Z@4JA
  001fd	83 c2 4b	 add	 edx, 75			; 0000004bH
  00200	52		 push	 edx
  00201	68 00 00 00 00	 push	 OFFSET ??_C@_0EB@JEOGKGCM@c?3?2users?2nhv90?2projects?2eech?2ap@
  00206	a1 00 00 00 00	 mov	 eax, DWORD PTR ?null_entity_pointer_message@@3PBDB ; null_entity_pointer_message
  0020b	50		 push	 eax
  0020c	e8 00 00 00 00	 call	 ?process_assert@@YGXPBD0H@Z ; process_assert
  00211	c7 85 44 ff ff
	ff 00 00 00 00	 mov	 DWORD PTR tv171[ebp], 0
$LN30@create_lan:
  0021b	b9 01 00 00 00	 mov	 ecx, 1
  00220	85 c9		 test	 ecx, ecx
  00222	74 0c		 je	 SHORT $LN31@create_lan
  00224	c7 85 40 ff ff
	ff 2c 00 00 00	 mov	 DWORD PTR tv179[ebp], 44 ; 0000002cH
  0022e	eb 24		 jmp	 SHORT $LN32@create_lan
$LN31@create_lan:
  00230	8b 15 00 00 00
	00		 mov	 edx, DWORD PTR ?__LINE__Var@?0??create_landed_faction_members@@YGPAUENTITY@@PAU2@HHH@Z@4JA
  00236	83 c2 4b	 add	 edx, 75			; 0000004bH
  00239	52		 push	 edx
  0023a	68 00 00 00 00	 push	 OFFSET ??_C@_0EB@JEOGKGCM@c?3?2users?2nhv90?2projects?2eech?2ap@
  0023f	a1 00 00 00 00	 mov	 eax, DWORD PTR ?overload_invalid_list_type_message@@3PBDB ; overload_invalid_list_type_message
  00244	50		 push	 eax
  00245	e8 00 00 00 00	 call	 ?process_assert@@YGXPBD0H@Z ; process_assert
  0024a	c7 85 40 ff ff
	ff 00 00 00 00	 mov	 DWORD PTR tv179[ebp], 0
$LN32@create_lan:
  00254	6a 2c		 push	 44			; 0000002cH
  00256	8b 4d a0	 mov	 ecx, DWORD PTR _wp$[ebp]
  00259	51		 push	 ecx
  0025a	69 95 44 ff ff
	ff b4 00 00 00	 imul	 edx, DWORD PTR tv171[ebp], 180
  00264	8b 85 40 ff ff
	ff		 mov	 eax, DWORD PTR tv179[ebp]
  0026a	8b 8c 82 00 00
	00 00		 mov	 ecx, DWORD PTR ?fn_get_local_entity_child_succ@@3PAY0CN@P6GPAUENTITY@@PAU1@W4LIST_TYPES@@@ZA[edx+eax*4]
  00271	ff d1		 call	 ecx
  00273	85 c0		 test	 eax, eax
  00275	0f 84 97 00 00
	00		 je	 $LN3@create_lan

; 343  :       {
; 344  : 
; 345  :          wp = get_local_entity_child_succ (wp, LIST_TYPE_WAYPOINT);

  0027b	83 7d a0 00	 cmp	 DWORD PTR _wp$[ebp], 0
  0027f	74 0d		 je	 SHORT $LN33@create_lan
  00281	8b 45 a0	 mov	 eax, DWORD PTR _wp$[ebp]
  00284	8b 08		 mov	 ecx, DWORD PTR [eax]
  00286	89 8d 44 ff ff
	ff		 mov	 DWORD PTR tv192[ebp], ecx
  0028c	eb 24		 jmp	 SHORT $LN34@create_lan
$LN33@create_lan:
  0028e	8b 15 00 00 00
	00		 mov	 edx, DWORD PTR ?__LINE__Var@?0??create_landed_faction_members@@YGPAUENTITY@@PAU2@HHH@Z@4JA
  00294	83 c2 4e	 add	 edx, 78			; 0000004eH
  00297	52		 push	 edx
  00298	68 00 00 00 00	 push	 OFFSET ??_C@_0EB@JEOGKGCM@c?3?2users?2nhv90?2projects?2eech?2ap@
  0029d	a1 00 00 00 00	 mov	 eax, DWORD PTR ?null_entity_pointer_message@@3PBDB ; null_entity_pointer_message
  002a2	50		 push	 eax
  002a3	e8 00 00 00 00	 call	 ?process_assert@@YGXPBD0H@Z ; process_assert
  002a8	c7 85 44 ff ff
	ff 00 00 00 00	 mov	 DWORD PTR tv192[ebp], 0
$LN34@create_lan:
  002b2	b9 01 00 00 00	 mov	 ecx, 1
  002b7	85 c9		 test	 ecx, ecx
  002b9	74 0c		 je	 SHORT $LN35@create_lan
  002bb	c7 85 40 ff ff
	ff 2c 00 00 00	 mov	 DWORD PTR tv200[ebp], 44 ; 0000002cH
  002c5	eb 24		 jmp	 SHORT $LN36@create_lan
$LN35@create_lan:
  002c7	8b 15 00 00 00
	00		 mov	 edx, DWORD PTR ?__LINE__Var@?0??create_landed_faction_members@@YGPAUENTITY@@PAU2@HHH@Z@4JA
  002cd	83 c2 4e	 add	 edx, 78			; 0000004eH
  002d0	52		 push	 edx
  002d1	68 00 00 00 00	 push	 OFFSET ??_C@_0EB@JEOGKGCM@c?3?2users?2nhv90?2projects?2eech?2ap@
  002d6	a1 00 00 00 00	 mov	 eax, DWORD PTR ?overload_invalid_list_type_message@@3PBDB ; overload_invalid_list_type_message
  002db	50		 push	 eax
  002dc	e8 00 00 00 00	 call	 ?process_assert@@YGXPBD0H@Z ; process_assert
  002e1	c7 85 40 ff ff
	ff 00 00 00 00	 mov	 DWORD PTR tv200[ebp], 0
$LN36@create_lan:
  002eb	6a 2c		 push	 44			; 0000002cH
  002ed	8b 4d a0	 mov	 ecx, DWORD PTR _wp$[ebp]
  002f0	51		 push	 ecx
  002f1	69 95 44 ff ff
	ff b4 00 00 00	 imul	 edx, DWORD PTR tv192[ebp], 180
  002fb	8b 85 40 ff ff
	ff		 mov	 eax, DWORD PTR tv200[ebp]
  00301	8b 8c 82 00 00
	00 00		 mov	 ecx, DWORD PTR ?fn_get_local_entity_child_succ@@3PAY0CN@P6GPAUENTITY@@PAU1@W4LIST_TYPES@@@ZA[edx+eax*4]
  00308	ff d1		 call	 ecx
  0030a	89 45 a0	 mov	 DWORD PTR _wp$[ebp], eax

; 346  :       }

  0030d	e9 d2 fe ff ff	 jmp	 $LN2@create_lan
$LN3@create_lan:

; 347  : 
; 348  :       ASSERT (wp);

  00312	83 7d a0 00	 cmp	 DWORD PTR _wp$[ebp], 0
  00316	75 18		 jne	 SHORT $LN17@create_lan
  00318	a1 00 00 00 00	 mov	 eax, DWORD PTR ?__LINE__Var@?0??create_landed_faction_members@@YGPAUENTITY@@PAU2@HHH@Z@4JA
  0031d	83 c0 51	 add	 eax, 81			; 00000051H
  00320	50		 push	 eax
  00321	68 00 00 00 00	 push	 OFFSET ??_C@_0EB@JEOGKGCM@c?3?2users?2nhv90?2projects?2eech?2ap@
  00326	68 00 00 00 00	 push	 OFFSET ??_C@_02HODPCBMO@wp@
  0032b	e8 00 00 00 00	 call	 ?process_assert@@YGXPBD0H@Z ; process_assert
$LN17@create_lan:

; 349  : 
; 350  : 		if (number > 0)

  00330	83 7d 14 00	 cmp	 DWORD PTR _number$[ebp], 0
  00334	0f 8e bf 09 00
	00		 jle	 $LN18@create_lan

; 351  : 		{
; 352  : 
; 353  : 			//
; 354  : 			// create group
; 355  : 			//
; 356  : 
; 357  : 			get_local_entity_vec3d (keysite, VEC3D_TYPE_POSITION, &pos);

  0033a	83 7d 08 00	 cmp	 DWORD PTR _keysite$[ebp], 0
  0033e	74 0d		 je	 SHORT $LN37@create_lan
  00340	8b 45 08	 mov	 eax, DWORD PTR _keysite$[ebp]
  00343	8b 08		 mov	 ecx, DWORD PTR [eax]
  00345	89 8d 44 ff ff
	ff		 mov	 DWORD PTR tv218[ebp], ecx
  0034b	eb 24		 jmp	 SHORT $LN38@create_lan
$LN37@create_lan:
  0034d	8b 15 00 00 00
	00		 mov	 edx, DWORD PTR ?__LINE__Var@?0??create_landed_faction_members@@YGPAUENTITY@@PAU2@HHH@Z@4JA
  00353	83 c2 5a	 add	 edx, 90			; 0000005aH
  00356	52		 push	 edx
  00357	68 00 00 00 00	 push	 OFFSET ??_C@_0EB@JEOGKGCM@c?3?2users?2nhv90?2projects?2eech?2ap@
  0035c	a1 00 00 00 00	 mov	 eax, DWORD PTR ?null_entity_pointer_message@@3PBDB ; null_entity_pointer_message
  00361	50		 push	 eax
  00362	e8 00 00 00 00	 call	 ?process_assert@@YGXPBD0H@Z ; process_assert
  00367	c7 85 44 ff ff
	ff 00 00 00 00	 mov	 DWORD PTR tv218[ebp], 0
$LN38@create_lan:
  00371	b9 01 00 00 00	 mov	 ecx, 1
  00376	85 c9		 test	 ecx, ecx
  00378	74 0c		 je	 SHORT $LN39@create_lan
  0037a	c7 85 40 ff ff
	ff 08 00 00 00	 mov	 DWORD PTR tv226[ebp], 8
  00384	eb 24		 jmp	 SHORT $LN40@create_lan
$LN39@create_lan:
  00386	8b 15 00 00 00
	00		 mov	 edx, DWORD PTR ?__LINE__Var@?0??create_landed_faction_members@@YGPAUENTITY@@PAU2@HHH@Z@4JA
  0038c	83 c2 5a	 add	 edx, 90			; 0000005aH
  0038f	52		 push	 edx
  00390	68 00 00 00 00	 push	 OFFSET ??_C@_0EB@JEOGKGCM@c?3?2users?2nhv90?2projects?2eech?2ap@
  00395	a1 00 00 00 00	 mov	 eax, DWORD PTR ?overload_invalid_vec3d_type_message@@3PBDB ; overload_invalid_vec3d_type_message
  0039a	50		 push	 eax
  0039b	e8 00 00 00 00	 call	 ?process_assert@@YGXPBD0H@Z ; process_assert
  003a0	c7 85 40 ff ff
	ff 00 00 00 00	 mov	 DWORD PTR tv226[ebp], 0
$LN40@create_lan:
  003aa	8d 4d c0	 lea	 ecx, DWORD PTR _pos$[ebp]
  003ad	51		 push	 ecx
  003ae	6a 08		 push	 8
  003b0	8b 55 08	 mov	 edx, DWORD PTR _keysite$[ebp]
  003b3	52		 push	 edx
  003b4	6b 85 44 ff ff
	ff 60		 imul	 eax, DWORD PTR tv218[ebp], 96
  003bb	8b 8d 40 ff ff
	ff		 mov	 ecx, DWORD PTR tv226[ebp]
  003c1	8b 94 88 00 00
	00 00		 mov	 edx, DWORD PTR ?fn_get_local_entity_vec3d@@3PAY0BI@P6GXPAUENTITY@@W4VEC3D_TYPES@@PAUVEC3D@@@ZA[eax+ecx*4]
  003c8	ff d2		 call	 edx

; 358  : 
; 359  : 			group = create_local_entity

  003ca	6a 00		 push	 0
  003cc	6a 16		 push	 22			; 00000016H
  003ce	68 f4 00 00 00	 push	 244			; 000000f4H
  003d3	6a 05		 push	 5
  003d5	8b 45 88	 mov	 eax, DWORD PTR _side$[ebp]
  003d8	50		 push	 eax
  003d9	68 bb 00 00 00	 push	 187			; 000000bbH
  003de	6a 05		 push	 5
  003e0	8b 4d 10	 mov	 ecx, DWORD PTR _group_type$[ebp]
  003e3	51		 push	 ecx
  003e4	6a 34		 push	 52			; 00000034H
  003e6	6a 05		 push	 5
  003e8	f3 0f 5a 45 c8	 cvtss2sd xmm0, DWORD PTR _pos$[ebp+8]
  003ed	83 ec 08	 sub	 esp, 8
  003f0	f2 0f 11 04 24	 movsd	 QWORD PTR [esp], xmm0
  003f5	f3 0f 5a 45 c4	 cvtss2sd xmm0, DWORD PTR _pos$[ebp+4]
  003fa	83 ec 08	 sub	 esp, 8
  003fd	f2 0f 11 04 24	 movsd	 QWORD PTR [esp], xmm0
  00402	f3 0f 5a 45 c0	 cvtss2sd xmm0, DWORD PTR _pos$[ebp]
  00407	83 ec 08	 sub	 esp, 8
  0040a	f2 0f 11 04 24	 movsd	 QWORD PTR [esp], xmm0
  0040f	6a 08		 push	 8
  00411	6a 09		 push	 9
  00413	8b 55 94	 mov	 edx, DWORD PTR _parent$[ebp]
  00416	52		 push	 edx
  00417	8b 45 b0	 mov	 eax, DWORD PTR _list_type$[ebp]
  0041a	50		 push	 eax
  0041b	6a 06		 push	 6
  0041d	6a ff		 push	 -1
  0041f	6a 0c		 push	 12			; 0000000cH
  00421	e8 00 00 00 00	 call	 ?create_local_entity@@YAPAUENTITY@@W4ENTITY_TYPES@@HZZ ; create_local_entity
  00426	83 c4 5c	 add	 esp, 92			; 0000005cH
  00429	89 45 9c	 mov	 DWORD PTR _group$[ebp], eax

; 360  : 			(
; 361  : 				ENTITY_TYPE_GROUP,
; 362  : 				ENTITY_INDEX_DONT_CARE,
; 363  : 				ENTITY_ATTR_PARENT (list_type, parent),
; 364  : 				ENTITY_ATTR_VEC3D (VEC3D_TYPE_POSITION, pos.x, pos.y, pos.z),
; 365  : 				ENTITY_ATTR_INT_VALUE (INT_TYPE_ENTITY_SUB_TYPE, group_type),
; 366  : 				ENTITY_ATTR_INT_VALUE (INT_TYPE_SIDE, side),
; 367  : 				ENTITY_ATTR_INT_VALUE (INT_TYPE_VERBOSE_OPERATIONAL_STATE, VERBOSE_OPERATIONAL_STATE_WAITING),
; 368  : 				ENTITY_ATTR_END
; 369  : 			);
; 370  : 
; 371  : 			//
; 372  : 			// create members
; 373  : 			//
; 374  : 
; 375  : 			for (loop = 0; loop < number; loop++)

  0042c	c7 45 a4 00 00
	00 00		 mov	 DWORD PTR _loop$[ebp], 0
  00433	eb 09		 jmp	 SHORT $LN6@create_lan
$LN4@create_lan:
  00435	8b 45 a4	 mov	 eax, DWORD PTR _loop$[ebp]
  00438	83 c0 01	 add	 eax, 1
  0043b	89 45 a4	 mov	 DWORD PTR _loop$[ebp], eax
$LN6@create_lan:
  0043e	8b 45 a4	 mov	 eax, DWORD PTR _loop$[ebp]
  00441	3b 45 14	 cmp	 eax, DWORD PTR _number$[ebp]
  00444	0f 8d a1 08 00
	00		 jge	 $LN5@create_lan

; 376  : 			{
; 377  : 
; 378  : 				//
; 379  : 				// mark Keysite as used (after it has actually been used!)
; 380  : 				//
; 381  : 
; 382  : 				if (!get_local_entity_int_value (keysite, INT_TYPE_IN_USE))

  0044a	83 7d 08 00	 cmp	 DWORD PTR _keysite$[ebp], 0
  0044e	74 0d		 je	 SHORT $LN41@create_lan
  00450	8b 45 08	 mov	 eax, DWORD PTR _keysite$[ebp]
  00453	8b 08		 mov	 ecx, DWORD PTR [eax]
  00455	89 8d 44 ff ff
	ff		 mov	 DWORD PTR tv263[ebp], ecx
  0045b	eb 20		 jmp	 SHORT $LN42@create_lan
$LN41@create_lan:
  0045d	68 7e 01 00 00	 push	 382			; 0000017eH
  00462	68 00 00 00 00	 push	 OFFSET ??_C@_0EB@JEOGKGCM@c?3?2users?2nhv90?2projects?2eech?2ap@
  00467	8b 15 00 00 00
	00		 mov	 edx, DWORD PTR ?null_entity_pointer_message@@3PBDB ; null_entity_pointer_message
  0046d	52		 push	 edx
  0046e	e8 00 00 00 00	 call	 ?process_assert@@YGXPBD0H@Z ; process_assert
  00473	c7 85 44 ff ff
	ff 00 00 00 00	 mov	 DWORD PTR tv263[ebp], 0
$LN42@create_lan:
  0047d	b8 01 00 00 00	 mov	 eax, 1
  00482	85 c0		 test	 eax, eax
  00484	74 0c		 je	 SHORT $LN43@create_lan
  00486	c7 85 40 ff ff
	ff 6d 00 00 00	 mov	 DWORD PTR tv270[ebp], 109 ; 0000006dH
  00490	eb 20		 jmp	 SHORT $LN44@create_lan
$LN43@create_lan:
  00492	68 7e 01 00 00	 push	 382			; 0000017eH
  00497	68 00 00 00 00	 push	 OFFSET ??_C@_0EB@JEOGKGCM@c?3?2users?2nhv90?2projects?2eech?2ap@
  0049c	8b 0d 00 00 00
	00		 mov	 ecx, DWORD PTR ?overload_invalid_int_type_message@@3PBDB ; overload_invalid_int_type_message
  004a2	51		 push	 ecx
  004a3	e8 00 00 00 00	 call	 ?process_assert@@YGXPBD0H@Z ; process_assert
  004a8	c7 85 40 ff ff
	ff 00 00 00 00	 mov	 DWORD PTR tv270[ebp], 0
$LN44@create_lan:
  004b2	6a 6d		 push	 109			; 0000006dH
  004b4	8b 55 08	 mov	 edx, DWORD PTR _keysite$[ebp]
  004b7	52		 push	 edx
  004b8	69 85 44 ff ff
	ff 5c 04 00 00	 imul	 eax, DWORD PTR tv263[ebp], 1116
  004c2	8b 8d 40 ff ff
	ff		 mov	 ecx, DWORD PTR tv270[ebp]
  004c8	8b 94 88 00 00
	00 00		 mov	 edx, DWORD PTR ?fn_get_local_entity_int_value@@3PAY0BBH@P6GHPAUENTITY@@W4INT_TYPES@@@ZA[eax+ecx*4]
  004cf	ff d2		 call	 edx
  004d1	85 c0		 test	 eax, eax
  004d3	0f 85 b4 00 00
	00		 jne	 $LN19@create_lan

; 383  : 				{
; 384  : 	
; 385  : 					set_local_entity_int_value (keysite, INT_TYPE_IN_USE, TRUE);

  004d9	83 7d 08 00	 cmp	 DWORD PTR _keysite$[ebp], 0
  004dd	74 0d		 je	 SHORT $LN45@create_lan
  004df	8b 45 08	 mov	 eax, DWORD PTR _keysite$[ebp]
  004e2	8b 08		 mov	 ecx, DWORD PTR [eax]
  004e4	89 8d 44 ff ff
	ff		 mov	 DWORD PTR tv283[ebp], ecx
  004ea	eb 24		 jmp	 SHORT $LN46@create_lan
$LN45@create_lan:
  004ec	8b 15 00 00 00
	00		 mov	 edx, DWORD PTR ?__LINE__Var@?0??create_landed_faction_members@@YGPAUENTITY@@PAU2@HHH@Z@4JA
  004f2	83 c2 76	 add	 edx, 118		; 00000076H
  004f5	52		 push	 edx
  004f6	68 00 00 00 00	 push	 OFFSET ??_C@_0EB@JEOGKGCM@c?3?2users?2nhv90?2projects?2eech?2ap@
  004fb	a1 00 00 00 00	 mov	 eax, DWORD PTR ?null_entity_pointer_message@@3PBDB ; null_entity_pointer_message
  00500	50		 push	 eax
  00501	e8 00 00 00 00	 call	 ?process_assert@@YGXPBD0H@Z ; process_assert
  00506	c7 85 44 ff ff
	ff 00 00 00 00	 mov	 DWORD PTR tv283[ebp], 0
$LN46@create_lan:
  00510	b9 01 00 00 00	 mov	 ecx, 1
  00515	85 c9		 test	 ecx, ecx
  00517	74 0c		 je	 SHORT $LN47@create_lan
  00519	c7 85 40 ff ff
	ff 6d 00 00 00	 mov	 DWORD PTR tv291[ebp], 109 ; 0000006dH
  00523	eb 24		 jmp	 SHORT $LN48@create_lan
$LN47@create_lan:
  00525	8b 15 00 00 00
	00		 mov	 edx, DWORD PTR ?__LINE__Var@?0??create_landed_faction_members@@YGPAUENTITY@@PAU2@HHH@Z@4JA
  0052b	83 c2 76	 add	 edx, 118		; 00000076H
  0052e	52		 push	 edx
  0052f	68 00 00 00 00	 push	 OFFSET ??_C@_0EB@JEOGKGCM@c?3?2users?2nhv90?2projects?2eech?2ap@
  00534	a1 00 00 00 00	 mov	 eax, DWORD PTR ?overload_invalid_int_type_message@@3PBDB ; overload_invalid_int_type_message
  00539	50		 push	 eax
  0053a	e8 00 00 00 00	 call	 ?process_assert@@YGXPBD0H@Z ; process_assert
  0053f	c7 85 40 ff ff
	ff 00 00 00 00	 mov	 DWORD PTR tv291[ebp], 0
$LN48@create_lan:
  00549	6a 01		 push	 1
  0054b	6a 6d		 push	 109			; 0000006dH
  0054d	8b 4d 08	 mov	 ecx, DWORD PTR _keysite$[ebp]
  00550	51		 push	 ecx
  00551	69 95 44 ff ff
	ff 5c 04 00 00	 imul	 edx, DWORD PTR tv283[ebp], 1116
  0055b	8b 85 40 ff ff
	ff		 mov	 eax, DWORD PTR tv291[ebp]
  00561	8b 8c 82 00 00
	00 00		 mov	 ecx, DWORD PTR ?fn_set_local_entity_int_value@@3PAY0BBH@P6GXPAUENTITY@@W4INT_TYPES@@H@ZA[edx+eax*4]
  00568	ff d1		 call	 ecx

; 386  : 
; 387  : 					update_imap_sector_side (keysite, TRUE);

  0056a	6a 01		 push	 1
  0056c	8b 45 08	 mov	 eax, DWORD PTR _keysite$[ebp]
  0056f	50		 push	 eax
  00570	e8 00 00 00 00	 call	 ?update_imap_sector_side@@YGXPAUENTITY@@H@Z ; update_imap_sector_side

; 388  : 
; 389  : 					update_imap_importance_level (keysite, TRUE);

  00575	6a 01		 push	 1
  00577	8b 45 08	 mov	 eax, DWORD PTR _keysite$[ebp]
  0057a	50		 push	 eax
  0057b	e8 00 00 00 00	 call	 ?update_imap_importance_level@@YGXPAUENTITY@@H@Z ; update_imap_importance_level

; 390  : 
; 391  : 					update_keysite_distance_to_friendly_base (keysite, side);

  00580	8b 45 88	 mov	 eax, DWORD PTR _side$[ebp]
  00583	50		 push	 eax
  00584	8b 4d 08	 mov	 ecx, DWORD PTR _keysite$[ebp]
  00587	51		 push	 ecx
  00588	e8 00 00 00 00	 call	 ?update_keysite_distance_to_friendly_base@@YGXPAUENTITY@@W4ENTITY_SIDES@@@Z ; update_keysite_distance_to_friendly_base
$LN19@create_lan:

; 392  : 				}
; 393  : 
; 394  : 				//
; 395  : 				// calculate formation position to suite landing entity
; 396  : 				//
; 397  : 
; 398  : 				formation_position = 0;

  0058d	c7 45 a8 00 00
	00 00		 mov	 DWORD PTR _formation_position$[ebp], 0
$LN7@create_lan:

; 399  : 
; 400  : 				while ((formation_position < get_local_entity_int_value (landing_en, INT_TYPE_TOTAL_LANDING_SITES)) && ((1 << formation_position) & (get_local_entity_int_value (landing_en, INT_TYPE_LANDED_LOCK))))

  00594	83 7d 90 00	 cmp	 DWORD PTR _landing_en$[ebp], 0
  00598	74 0d		 je	 SHORT $LN49@create_lan
  0059a	8b 45 90	 mov	 eax, DWORD PTR _landing_en$[ebp]
  0059d	8b 08		 mov	 ecx, DWORD PTR [eax]
  0059f	89 8d 44 ff ff
	ff		 mov	 DWORD PTR tv309[ebp], ecx
  005a5	eb 27		 jmp	 SHORT $LN50@create_lan
$LN49@create_lan:
  005a7	8b 15 00 00 00
	00		 mov	 edx, DWORD PTR ?__LINE__Var@?0??create_landed_faction_members@@YGPAUENTITY@@PAU2@HHH@Z@4JA
  005ad	81 c2 85 00 00
	00		 add	 edx, 133		; 00000085H
  005b3	52		 push	 edx
  005b4	68 00 00 00 00	 push	 OFFSET ??_C@_0EB@JEOGKGCM@c?3?2users?2nhv90?2projects?2eech?2ap@
  005b9	a1 00 00 00 00	 mov	 eax, DWORD PTR ?null_entity_pointer_message@@3PBDB ; null_entity_pointer_message
  005be	50		 push	 eax
  005bf	e8 00 00 00 00	 call	 ?process_assert@@YGXPBD0H@Z ; process_assert
  005c4	c7 85 44 ff ff
	ff 00 00 00 00	 mov	 DWORD PTR tv309[ebp], 0
$LN50@create_lan:
  005ce	b9 01 00 00 00	 mov	 ecx, 1
  005d3	85 c9		 test	 ecx, ecx
  005d5	74 0c		 je	 SHORT $LN51@create_lan
  005d7	c7 85 40 ff ff
	ff eb 00 00 00	 mov	 DWORD PTR tv317[ebp], 235 ; 000000ebH
  005e1	eb 27		 jmp	 SHORT $LN52@create_lan
$LN51@create_lan:
  005e3	8b 15 00 00 00
	00		 mov	 edx, DWORD PTR ?__LINE__Var@?0??create_landed_faction_members@@YGPAUENTITY@@PAU2@HHH@Z@4JA
  005e9	81 c2 85 00 00
	00		 add	 edx, 133		; 00000085H
  005ef	52		 push	 edx
  005f0	68 00 00 00 00	 push	 OFFSET ??_C@_0EB@JEOGKGCM@c?3?2users?2nhv90?2projects?2eech?2ap@
  005f5	a1 00 00 00 00	 mov	 eax, DWORD PTR ?overload_invalid_int_type_message@@3PBDB ; overload_invalid_int_type_message
  005fa	50		 push	 eax
  005fb	e8 00 00 00 00	 call	 ?process_assert@@YGXPBD0H@Z ; process_assert
  00600	c7 85 40 ff ff
	ff 00 00 00 00	 mov	 DWORD PTR tv317[ebp], 0
$LN52@create_lan:
  0060a	68 eb 00 00 00	 push	 235			; 000000ebH
  0060f	8b 4d 90	 mov	 ecx, DWORD PTR _landing_en$[ebp]
  00612	51		 push	 ecx
  00613	69 95 44 ff ff
	ff 5c 04 00 00	 imul	 edx, DWORD PTR tv309[ebp], 1116
  0061d	8b 85 40 ff ff
	ff		 mov	 eax, DWORD PTR tv317[ebp]
  00623	8b 8c 82 00 00
	00 00		 mov	 ecx, DWORD PTR ?fn_get_local_entity_int_value@@3PAY0BBH@P6GHPAUENTITY@@W4INT_TYPES@@@ZA[edx+eax*4]
  0062a	ff d1		 call	 ecx
  0062c	39 45 a8	 cmp	 DWORD PTR _formation_position$[ebp], eax
  0062f	0f 8d b1 00 00
	00		 jge	 $LN8@create_lan
  00635	83 7d 90 00	 cmp	 DWORD PTR _landing_en$[ebp], 0
  00639	74 0d		 je	 SHORT $LN53@create_lan
  0063b	8b 45 90	 mov	 eax, DWORD PTR _landing_en$[ebp]
  0063e	8b 08		 mov	 ecx, DWORD PTR [eax]
  00640	89 8d 44 ff ff
	ff		 mov	 DWORD PTR tv331[ebp], ecx
  00646	eb 27		 jmp	 SHORT $LN54@create_lan
$LN53@create_lan:
  00648	8b 15 00 00 00
	00		 mov	 edx, DWORD PTR ?__LINE__Var@?0??create_landed_faction_members@@YGPAUENTITY@@PAU2@HHH@Z@4JA
  0064e	81 c2 85 00 00
	00		 add	 edx, 133		; 00000085H
  00654	52		 push	 edx
  00655	68 00 00 00 00	 push	 OFFSET ??_C@_0EB@JEOGKGCM@c?3?2users?2nhv90?2projects?2eech?2ap@
  0065a	a1 00 00 00 00	 mov	 eax, DWORD PTR ?null_entity_pointer_message@@3PBDB ; null_entity_pointer_message
  0065f	50		 push	 eax
  00660	e8 00 00 00 00	 call	 ?process_assert@@YGXPBD0H@Z ; process_assert
  00665	c7 85 44 ff ff
	ff 00 00 00 00	 mov	 DWORD PTR tv331[ebp], 0
$LN54@create_lan:
  0066f	b9 01 00 00 00	 mov	 ecx, 1
  00674	85 c9		 test	 ecx, ecx
  00676	74 0c		 je	 SHORT $LN55@create_lan
  00678	c7 85 40 ff ff
	ff 74 00 00 00	 mov	 DWORD PTR tv339[ebp], 116 ; 00000074H
  00682	eb 27		 jmp	 SHORT $LN56@create_lan
$LN55@create_lan:
  00684	8b 15 00 00 00
	00		 mov	 edx, DWORD PTR ?__LINE__Var@?0??create_landed_faction_members@@YGPAUENTITY@@PAU2@HHH@Z@4JA
  0068a	81 c2 85 00 00
	00		 add	 edx, 133		; 00000085H
  00690	52		 push	 edx
  00691	68 00 00 00 00	 push	 OFFSET ??_C@_0EB@JEOGKGCM@c?3?2users?2nhv90?2projects?2eech?2ap@
  00696	a1 00 00 00 00	 mov	 eax, DWORD PTR ?overload_invalid_int_type_message@@3PBDB ; overload_invalid_int_type_message
  0069b	50		 push	 eax
  0069c	e8 00 00 00 00	 call	 ?process_assert@@YGXPBD0H@Z ; process_assert
  006a1	c7 85 40 ff ff
	ff 00 00 00 00	 mov	 DWORD PTR tv339[ebp], 0
$LN56@create_lan:
  006ab	be 01 00 00 00	 mov	 esi, 1
  006b0	8b 4d a8	 mov	 ecx, DWORD PTR _formation_position$[ebp]
  006b3	d3 e6		 shl	 esi, cl
  006b5	6a 74		 push	 116			; 00000074H
  006b7	8b 4d 90	 mov	 ecx, DWORD PTR _landing_en$[ebp]
  006ba	51		 push	 ecx
  006bb	69 95 44 ff ff
	ff 5c 04 00 00	 imul	 edx, DWORD PTR tv331[ebp], 1116
  006c5	8b 85 40 ff ff
	ff		 mov	 eax, DWORD PTR tv339[ebp]
  006cb	8b 8c 82 00 00
	00 00		 mov	 ecx, DWORD PTR ?fn_get_local_entity_int_value@@3PAY0BBH@P6GHPAUENTITY@@W4INT_TYPES@@@ZA[edx+eax*4]
  006d2	ff d1		 call	 ecx
  006d4	23 f0		 and	 esi, eax
  006d6	74 0e		 je	 SHORT $LN8@create_lan

; 401  : 				{
; 402  : 
; 403  : 					formation_position ++;

  006d8	8b 45 a8	 mov	 eax, DWORD PTR _formation_position$[ebp]
  006db	83 c0 01	 add	 eax, 1
  006de	89 45 a8	 mov	 DWORD PTR _formation_position$[ebp], eax

; 404  : 				}

  006e1	e9 ae fe ff ff	 jmp	 $LN7@create_lan
$LN8@create_lan:

; 405  : 
; 406  : 				member = create_mobile_member

  006e6	51		 push	 ecx
  006e7	f3 0f 10 05 00
	00 00 00	 movss	 xmm0, DWORD PTR __real@40000000
  006ef	f3 0f 11 04 24	 movss	 DWORD PTR [esp], xmm0
  006f4	8b 45 88	 mov	 eax, DWORD PTR _side$[ebp]
  006f7	50		 push	 eax
  006f8	6a 04		 push	 4
  006fa	8b 4d a8	 mov	 ecx, DWORD PTR _formation_position$[ebp]
  006fd	51		 push	 ecx
  006fe	8b 55 0c	 mov	 edx, DWORD PTR _member_type$[ebp]
  00701	52		 push	 edx
  00702	8d 45 c0	 lea	 eax, DWORD PTR _pos$[ebp]
  00705	50		 push	 eax
  00706	8b 4d 9c	 mov	 ecx, DWORD PTR _group$[ebp]
  00709	51		 push	 ecx
  0070a	6a 01		 push	 1
  0070c	6a ff		 push	 -1
  0070e	6b 55 10 64	 imul	 edx, DWORD PTR _group_type$[ebp], 100
  00712	8b 82 1c 00 00
	00		 mov	 eax, DWORD PTR ?group_database@@3PAUGROUP_DATA@@A[edx+28]
  00718	50		 push	 eax
  00719	e8 00 00 00 00	 call	 ?create_mobile_member@@YGPAUENTITY@@W4ENTITY_TYPES@@HHPAU1@PAUVEC3D@@HHHW4ENTITY_SIDES@@M@Z ; create_mobile_member
  0071e	89 45 98	 mov	 DWORD PTR _member$[ebp], eax

; 407  : 				(
; 408  : 					group_database [group_type].default_entity_type,
; 409  : 					ENTITY_INDEX_DONT_CARE,
; 410  : 					TRUE,
; 411  : 					group,
; 412  : 					&pos,
; 413  : 					member_type,
; 414  : 					formation_position,
; 415  : 					OPERATIONAL_STATE_LANDED,
; 416  : 					side,
; 417  : 					AIRCRAFT_UNDERCARRIAGE_DOWN_FLOAT_VALUE
; 418  : 				);
; 419  : 
; 420  : 				movement_parent = get_local_entity_parent (get_parser_keysite (), LIST_TYPE_MOVEMENT_DEPENDENT);

  00721	83 3d 00 00 00
	00 00		 cmp	 DWORD PTR ?parser_keysite@@3PAUENTITY@@A, 0 ; parser_keysite
  00728	74 0f		 je	 SHORT $LN57@create_lan
  0072a	a1 00 00 00 00	 mov	 eax, DWORD PTR ?parser_keysite@@3PAUENTITY@@A ; parser_keysite
  0072f	8b 08		 mov	 ecx, DWORD PTR [eax]
  00731	89 8d 44 ff ff
	ff		 mov	 DWORD PTR tv368[ebp], ecx
  00737	eb 27		 jmp	 SHORT $LN58@create_lan
$LN57@create_lan:
  00739	8b 15 00 00 00
	00		 mov	 edx, DWORD PTR ?__LINE__Var@?0??create_landed_faction_members@@YGPAUENTITY@@PAU2@HHH@Z@4JA
  0073f	81 c2 99 00 00
	00		 add	 edx, 153		; 00000099H
  00745	52		 push	 edx
  00746	68 00 00 00 00	 push	 OFFSET ??_C@_0EB@JEOGKGCM@c?3?2users?2nhv90?2projects?2eech?2ap@
  0074b	a1 00 00 00 00	 mov	 eax, DWORD PTR ?null_entity_pointer_message@@3PBDB ; null_entity_pointer_message
  00750	50		 push	 eax
  00751	e8 00 00 00 00	 call	 ?process_assert@@YGXPBD0H@Z ; process_assert
  00756	c7 85 44 ff ff
	ff 00 00 00 00	 mov	 DWORD PTR tv368[ebp], 0
$LN58@create_lan:
  00760	b9 01 00 00 00	 mov	 ecx, 1
  00765	85 c9		 test	 ecx, ecx
  00767	74 0c		 je	 SHORT $LN59@create_lan
  00769	c7 85 40 ff ff
	ff 1a 00 00 00	 mov	 DWORD PTR tv376[ebp], 26 ; 0000001aH
  00773	eb 27		 jmp	 SHORT $LN60@create_lan
$LN59@create_lan:
  00775	8b 15 00 00 00
	00		 mov	 edx, DWORD PTR ?__LINE__Var@?0??create_landed_faction_members@@YGPAUENTITY@@PAU2@HHH@Z@4JA
  0077b	81 c2 99 00 00
	00		 add	 edx, 153		; 00000099H
  00781	52		 push	 edx
  00782	68 00 00 00 00	 push	 OFFSET ??_C@_0EB@JEOGKGCM@c?3?2users?2nhv90?2projects?2eech?2ap@
  00787	a1 00 00 00 00	 mov	 eax, DWORD PTR ?overload_invalid_list_type_message@@3PBDB ; overload_invalid_list_type_message
  0078c	50		 push	 eax
  0078d	e8 00 00 00 00	 call	 ?process_assert@@YGXPBD0H@Z ; process_assert
  00792	c7 85 40 ff ff
	ff 00 00 00 00	 mov	 DWORD PTR tv376[ebp], 0
$LN60@create_lan:
  0079c	6a 1a		 push	 26			; 0000001aH
  0079e	8b 0d 00 00 00
	00		 mov	 ecx, DWORD PTR ?parser_keysite@@3PAUENTITY@@A ; parser_keysite
  007a4	51		 push	 ecx
  007a5	69 95 44 ff ff
	ff b4 00 00 00	 imul	 edx, DWORD PTR tv368[ebp], 180
  007af	8b 85 40 ff ff
	ff		 mov	 eax, DWORD PTR tv376[ebp]
  007b5	8b 8c 82 00 00
	00 00		 mov	 ecx, DWORD PTR ?fn_get_local_entity_parent@@3PAY0CN@P6GPAUENTITY@@PAU1@W4LIST_TYPES@@@ZA[edx+eax*4]
  007bc	ff d1		 call	 ecx
  007be	89 45 8c	 mov	 DWORD PTR _movement_parent$[ebp], eax

; 421  : 
; 422  : 				if ((group_database [group_type].default_entity_type != ENTITY_TYPE_SHIP_VEHICLE) && (movement_parent))

  007c1	6b 45 10 64	 imul	 eax, DWORD PTR _group_type$[ebp], 100
  007c5	83 b8 1c 00 00
	00 1c		 cmp	 DWORD PTR ?group_database@@3PAUGROUP_DATA@@A[eax+28], 28 ; 0000001cH
  007cc	74 17		 je	 SHORT $LN20@create_lan
  007ce	83 7d 8c 00	 cmp	 DWORD PTR _movement_parent$[ebp], 0
  007d2	74 11		 je	 SHORT $LN20@create_lan

; 423  : 				{
; 424  : 
; 425  : 					insert_local_entity_into_parents_child_list (member, LIST_TYPE_MOVEMENT_DEPENDENT, movement_parent, NULL);

  007d4	6a 00		 push	 0
  007d6	8b 45 8c	 mov	 eax, DWORD PTR _movement_parent$[ebp]
  007d9	50		 push	 eax
  007da	6a 1a		 push	 26			; 0000001aH
  007dc	8b 4d 98	 mov	 ecx, DWORD PTR _member$[ebp]
  007df	51		 push	 ecx
  007e0	e8 00 00 00 00	 call	 ?insert_local_entity_into_parents_child_list@@YGXPAUENTITY@@W4LIST_TYPES@@00@Z ; insert_local_entity_into_parents_child_list
$LN20@create_lan:

; 426  : 				}
; 427  : 
; 428  : 				index = get_local_entity_int_value (member, INT_TYPE_FORMATION_POSITION);

  007e5	83 7d 98 00	 cmp	 DWORD PTR _member$[ebp], 0
  007e9	74 0d		 je	 SHORT $LN61@create_lan
  007eb	8b 45 98	 mov	 eax, DWORD PTR _member$[ebp]
  007ee	8b 08		 mov	 ecx, DWORD PTR [eax]
  007f0	89 8d 44 ff ff
	ff		 mov	 DWORD PTR tv397[ebp], ecx
  007f6	eb 27		 jmp	 SHORT $LN62@create_lan
$LN61@create_lan:
  007f8	8b 15 00 00 00
	00		 mov	 edx, DWORD PTR ?__LINE__Var@?0??create_landed_faction_members@@YGPAUENTITY@@PAU2@HHH@Z@4JA
  007fe	81 c2 a1 00 00
	00		 add	 edx, 161		; 000000a1H
  00804	52		 push	 edx
  00805	68 00 00 00 00	 push	 OFFSET ??_C@_0EB@JEOGKGCM@c?3?2users?2nhv90?2projects?2eech?2ap@
  0080a	a1 00 00 00 00	 mov	 eax, DWORD PTR ?null_entity_pointer_message@@3PBDB ; null_entity_pointer_message
  0080f	50		 push	 eax
  00810	e8 00 00 00 00	 call	 ?process_assert@@YGXPBD0H@Z ; process_assert
  00815	c7 85 44 ff ff
	ff 00 00 00 00	 mov	 DWORD PTR tv397[ebp], 0
$LN62@create_lan:
  0081f	b9 01 00 00 00	 mov	 ecx, 1
  00824	85 c9		 test	 ecx, ecx
  00826	74 0c		 je	 SHORT $LN63@create_lan
  00828	c7 85 40 ff ff
	ff 3e 00 00 00	 mov	 DWORD PTR tv405[ebp], 62 ; 0000003eH
  00832	eb 27		 jmp	 SHORT $LN64@create_lan
$LN63@create_lan:
  00834	8b 15 00 00 00
	00		 mov	 edx, DWORD PTR ?__LINE__Var@?0??create_landed_faction_members@@YGPAUENTITY@@PAU2@HHH@Z@4JA
  0083a	81 c2 a1 00 00
	00		 add	 edx, 161		; 000000a1H
  00840	52		 push	 edx
  00841	68 00 00 00 00	 push	 OFFSET ??_C@_0EB@JEOGKGCM@c?3?2users?2nhv90?2projects?2eech?2ap@
  00846	a1 00 00 00 00	 mov	 eax, DWORD PTR ?overload_invalid_int_type_message@@3PBDB ; overload_invalid_int_type_message
  0084b	50		 push	 eax
  0084c	e8 00 00 00 00	 call	 ?process_assert@@YGXPBD0H@Z ; process_assert
  00851	c7 85 40 ff ff
	ff 00 00 00 00	 mov	 DWORD PTR tv405[ebp], 0
$LN64@create_lan:
  0085b	6a 3e		 push	 62			; 0000003eH
  0085d	8b 4d 98	 mov	 ecx, DWORD PTR _member$[ebp]
  00860	51		 push	 ecx
  00861	69 95 44 ff ff
	ff 5c 04 00 00	 imul	 edx, DWORD PTR tv397[ebp], 1116
  0086b	8b 85 40 ff ff
	ff		 mov	 eax, DWORD PTR tv405[ebp]
  00871	8b 8c 82 00 00
	00 00		 mov	 ecx, DWORD PTR ?fn_get_local_entity_int_value@@3PAY0BBH@P6GHPAUENTITY@@W4INT_TYPES@@@ZA[edx+eax*4]
  00878	ff d1		 call	 ecx
  0087a	89 45 ac	 mov	 DWORD PTR _index$[ebp], eax

; 429  : 
; 430  : 				get_local_waypoint_formation_position (index, wp, &pos);

  0087d	8d 45 c0	 lea	 eax, DWORD PTR _pos$[ebp]
  00880	50		 push	 eax
  00881	8b 4d a0	 mov	 ecx, DWORD PTR _wp$[ebp]
  00884	51		 push	 ecx
  00885	8b 55 ac	 mov	 edx, DWORD PTR _index$[ebp]
  00888	52		 push	 edx
  00889	e8 00 00 00 00	 call	 ?get_local_waypoint_formation_position@@YGXHPAUENTITY@@PAUVEC3D@@@Z ; get_local_waypoint_formation_position

; 431  : 
; 432  : 				if (get_local_entity_int_value (keysite, INT_TYPE_ENTITY_SUB_TYPE) != ENTITY_SUB_TYPE_KEYSITE_ANCHORAGE)

  0088e	83 7d 08 00	 cmp	 DWORD PTR _keysite$[ebp], 0
  00892	74 0d		 je	 SHORT $LN65@create_lan
  00894	8b 45 08	 mov	 eax, DWORD PTR _keysite$[ebp]
  00897	8b 08		 mov	 ecx, DWORD PTR [eax]
  00899	89 8d 44 ff ff
	ff		 mov	 DWORD PTR tv419[ebp], ecx
  0089f	eb 20		 jmp	 SHORT $LN66@create_lan
$LN65@create_lan:
  008a1	68 b0 01 00 00	 push	 432			; 000001b0H
  008a6	68 00 00 00 00	 push	 OFFSET ??_C@_0EB@JEOGKGCM@c?3?2users?2nhv90?2projects?2eech?2ap@
  008ab	8b 15 00 00 00
	00		 mov	 edx, DWORD PTR ?null_entity_pointer_message@@3PBDB ; null_entity_pointer_message
  008b1	52		 push	 edx
  008b2	e8 00 00 00 00	 call	 ?process_assert@@YGXPBD0H@Z ; process_assert
  008b7	c7 85 44 ff ff
	ff 00 00 00 00	 mov	 DWORD PTR tv419[ebp], 0
$LN66@create_lan:
  008c1	b8 01 00 00 00	 mov	 eax, 1
  008c6	85 c0		 test	 eax, eax
  008c8	74 0c		 je	 SHORT $LN67@create_lan
  008ca	c7 85 40 ff ff
	ff 34 00 00 00	 mov	 DWORD PTR tv426[ebp], 52 ; 00000034H
  008d4	eb 20		 jmp	 SHORT $LN68@create_lan
$LN67@create_lan:
  008d6	68 b0 01 00 00	 push	 432			; 000001b0H
  008db	68 00 00 00 00	 push	 OFFSET ??_C@_0EB@JEOGKGCM@c?3?2users?2nhv90?2projects?2eech?2ap@
  008e0	8b 0d 00 00 00
	00		 mov	 ecx, DWORD PTR ?overload_invalid_int_type_message@@3PBDB ; overload_invalid_int_type_message
  008e6	51		 push	 ecx
  008e7	e8 00 00 00 00	 call	 ?process_assert@@YGXPBD0H@Z ; process_assert
  008ec	c7 85 40 ff ff
	ff 00 00 00 00	 mov	 DWORD PTR tv426[ebp], 0
$LN68@create_lan:
  008f6	6a 34		 push	 52			; 00000034H
  008f8	8b 55 08	 mov	 edx, DWORD PTR _keysite$[ebp]
  008fb	52		 push	 edx
  008fc	69 85 44 ff ff
	ff 5c 04 00 00	 imul	 eax, DWORD PTR tv419[ebp], 1116
  00906	8b 8d 40 ff ff
	ff		 mov	 ecx, DWORD PTR tv426[ebp]
  0090c	8b 94 88 00 00
	00 00		 mov	 edx, DWORD PTR ?fn_get_local_entity_int_value@@3PAY0BBH@P6GHPAUENTITY@@W4INT_TYPES@@@ZA[eax+ecx*4]
  00913	ff d2		 call	 edx
  00915	83 f8 01	 cmp	 eax, 1
  00918	74 20		 je	 SHORT $LN21@create_lan

; 433  : 				{
; 434  : 
; 435  : 					pos.y = get_3d_terrain_elevation (pos.x, pos.z);

  0091a	6a 00		 push	 0
  0091c	51		 push	 ecx
  0091d	f3 0f 10 45 c8	 movss	 xmm0, DWORD PTR _pos$[ebp+8]
  00922	f3 0f 11 04 24	 movss	 DWORD PTR [esp], xmm0
  00927	51		 push	 ecx
  00928	f3 0f 10 45 c0	 movss	 xmm0, DWORD PTR _pos$[ebp]
  0092d	f3 0f 11 04 24	 movss	 DWORD PTR [esp], xmm0
  00932	e8 00 00 00 00	 call	 ?get_3d_terrain_point_data@@YGMMMPAUTERRAIN_3D_POINT_DATA@@@Z ; get_3d_terrain_point_data
  00937	d9 5d c4	 fstp	 DWORD PTR _pos$[ebp+4]
$LN21@create_lan:

; 436  : 				}
; 437  : 
; 438  : 				fuselage_angle = get_local_entity_float_value (member, FLOAT_TYPE_FUSELAGE_ANGLE);

  0093a	83 7d 98 00	 cmp	 DWORD PTR _member$[ebp], 0
  0093e	74 0d		 je	 SHORT $LN69@create_lan
  00940	8b 45 98	 mov	 eax, DWORD PTR _member$[ebp]
  00943	8b 08		 mov	 ecx, DWORD PTR [eax]
  00945	89 8d 44 ff ff
	ff		 mov	 DWORD PTR tv443[ebp], ecx
  0094b	eb 27		 jmp	 SHORT $LN70@create_lan
$LN69@create_lan:
  0094d	8b 15 00 00 00
	00		 mov	 edx, DWORD PTR ?__LINE__Var@?0??create_landed_faction_members@@YGPAUENTITY@@PAU2@HHH@Z@4JA
  00953	81 c2 ab 00 00
	00		 add	 edx, 171		; 000000abH
  00959	52		 push	 edx
  0095a	68 00 00 00 00	 push	 OFFSET ??_C@_0EB@JEOGKGCM@c?3?2users?2nhv90?2projects?2eech?2ap@
  0095f	a1 00 00 00 00	 mov	 eax, DWORD PTR ?null_entity_pointer_message@@3PBDB ; null_entity_pointer_message
  00964	50		 push	 eax
  00965	e8 00 00 00 00	 call	 ?process_assert@@YGXPBD0H@Z ; process_assert
  0096a	c7 85 44 ff ff
	ff 00 00 00 00	 mov	 DWORD PTR tv443[ebp], 0
$LN70@create_lan:
  00974	b9 01 00 00 00	 mov	 ecx, 1
  00979	85 c9		 test	 ecx, ecx
  0097b	74 0c		 je	 SHORT $LN71@create_lan
  0097d	c7 85 40 ff ff
	ff 31 00 00 00	 mov	 DWORD PTR tv451[ebp], 49 ; 00000031H
  00987	eb 27		 jmp	 SHORT $LN72@create_lan
$LN71@create_lan:
  00989	8b 15 00 00 00
	00		 mov	 edx, DWORD PTR ?__LINE__Var@?0??create_landed_faction_members@@YGPAUENTITY@@PAU2@HHH@Z@4JA
  0098f	81 c2 ab 00 00
	00		 add	 edx, 171		; 000000abH
  00995	52		 push	 edx
  00996	68 00 00 00 00	 push	 OFFSET ??_C@_0EB@JEOGKGCM@c?3?2users?2nhv90?2projects?2eech?2ap@
  0099b	a1 00 00 00 00	 mov	 eax, DWORD PTR ?overload_invalid_float_type_message@@3PBDB ; overload_invalid_float_type_message
  009a0	50		 push	 eax
  009a1	e8 00 00 00 00	 call	 ?process_assert@@YGXPBD0H@Z ; process_assert
  009a6	c7 85 40 ff ff
	ff 00 00 00 00	 mov	 DWORD PTR tv451[ebp], 0
$LN72@create_lan:
  009b0	6a 31		 push	 49			; 00000031H
  009b2	8b 4d 98	 mov	 ecx, DWORD PTR _member$[ebp]
  009b5	51		 push	 ecx
  009b6	69 95 44 ff ff
	ff bc 02 00 00	 imul	 edx, DWORD PTR tv443[ebp], 700
  009c0	8b 85 40 ff ff
	ff		 mov	 eax, DWORD PTR tv451[ebp]
  009c6	8b 8c 82 00 00
	00 00		 mov	 ecx, DWORD PTR ?fn_get_local_entity_float_value@@3PAY0KP@P6GMPAUENTITY@@W4FLOAT_TYPES@@@ZA[edx+eax*4]
  009cd	ff d1		 call	 ecx
  009cf	d9 5d fc	 fstp	 DWORD PTR _fuselage_angle$[ebp]

; 439  : 
; 440  : 				pos.y += get_local_entity_float_value (member, FLOAT_TYPE_CENTRE_OF_GRAVITY_TO_GROUND_DISTANCE);

  009d2	83 7d 98 00	 cmp	 DWORD PTR _member$[ebp], 0
  009d6	74 0d		 je	 SHORT $LN73@create_lan
  009d8	8b 45 98	 mov	 eax, DWORD PTR _member$[ebp]
  009db	8b 08		 mov	 ecx, DWORD PTR [eax]
  009dd	89 8d 44 ff ff
	ff		 mov	 DWORD PTR tv463[ebp], ecx
  009e3	eb 27		 jmp	 SHORT $LN74@create_lan
$LN73@create_lan:
  009e5	8b 15 00 00 00
	00		 mov	 edx, DWORD PTR ?__LINE__Var@?0??create_landed_faction_members@@YGPAUENTITY@@PAU2@HHH@Z@4JA
  009eb	81 c2 ad 00 00
	00		 add	 edx, 173		; 000000adH
  009f1	52		 push	 edx
  009f2	68 00 00 00 00	 push	 OFFSET ??_C@_0EB@JEOGKGCM@c?3?2users?2nhv90?2projects?2eech?2ap@
  009f7	a1 00 00 00 00	 mov	 eax, DWORD PTR ?null_entity_pointer_message@@3PBDB ; null_entity_pointer_message
  009fc	50		 push	 eax
  009fd	e8 00 00 00 00	 call	 ?process_assert@@YGXPBD0H@Z ; process_assert
  00a02	c7 85 44 ff ff
	ff 00 00 00 00	 mov	 DWORD PTR tv463[ebp], 0
$LN74@create_lan:
  00a0c	b9 01 00 00 00	 mov	 ecx, 1
  00a11	85 c9		 test	 ecx, ecx
  00a13	74 0c		 je	 SHORT $LN75@create_lan
  00a15	c7 85 40 ff ff
	ff 12 00 00 00	 mov	 DWORD PTR tv471[ebp], 18 ; 00000012H
  00a1f	eb 27		 jmp	 SHORT $LN76@create_lan
$LN75@create_lan:
  00a21	8b 15 00 00 00
	00		 mov	 edx, DWORD PTR ?__LINE__Var@?0??create_landed_faction_members@@YGPAUENTITY@@PAU2@HHH@Z@4JA
  00a27	81 c2 ad 00 00
	00		 add	 edx, 173		; 000000adH
  00a2d	52		 push	 edx
  00a2e	68 00 00 00 00	 push	 OFFSET ??_C@_0EB@JEOGKGCM@c?3?2users?2nhv90?2projects?2eech?2ap@
  00a33	a1 00 00 00 00	 mov	 eax, DWORD PTR ?overload_invalid_float_type_message@@3PBDB ; overload_invalid_float_type_message
  00a38	50		 push	 eax
  00a39	e8 00 00 00 00	 call	 ?process_assert@@YGXPBD0H@Z ; process_assert
  00a3e	c7 85 40 ff ff
	ff 00 00 00 00	 mov	 DWORD PTR tv471[ebp], 0
$LN76@create_lan:
  00a48	6a 12		 push	 18			; 00000012H
  00a4a	8b 4d 98	 mov	 ecx, DWORD PTR _member$[ebp]
  00a4d	51		 push	 ecx
  00a4e	69 95 44 ff ff
	ff bc 02 00 00	 imul	 edx, DWORD PTR tv463[ebp], 700
  00a58	8b 85 40 ff ff
	ff		 mov	 eax, DWORD PTR tv471[ebp]
  00a5e	8b 8c 82 00 00
	00 00		 mov	 ecx, DWORD PTR ?fn_get_local_entity_float_value@@3PAY0KP@P6GMPAUENTITY@@W4FLOAT_TYPES@@@ZA[edx+eax*4]
  00a65	ff d1		 call	 ecx
  00a67	d9 9d 3c ff ff
	ff		 fstp	 DWORD PTR tv791[ebp]
  00a6d	f3 0f 10 85 3c
	ff ff ff	 movss	 xmm0, DWORD PTR tv791[ebp]
  00a75	f3 0f 58 45 c4	 addss	 xmm0, DWORD PTR _pos$[ebp+4]
  00a7a	f3 0f 11 45 c4	 movss	 DWORD PTR _pos$[ebp+4], xmm0

; 441  : 
; 442  : 				////////////////////////////////////////
; 443  : 				//
; 444  : 				// attitude
; 445  : 				//
; 446  : 				////////////////////////////////////////
; 447  : 
; 448  : 				heading = get_local_entity_float_value (keysite, FLOAT_TYPE_HEADING);

  00a7f	83 7d 08 00	 cmp	 DWORD PTR _keysite$[ebp], 0
  00a83	74 0d		 je	 SHORT $LN77@create_lan
  00a85	8b 45 08	 mov	 eax, DWORD PTR _keysite$[ebp]
  00a88	8b 08		 mov	 ecx, DWORD PTR [eax]
  00a8a	89 8d 44 ff ff
	ff		 mov	 DWORD PTR tv484[ebp], ecx
  00a90	eb 27		 jmp	 SHORT $LN78@create_lan
$LN77@create_lan:
  00a92	8b 15 00 00 00
	00		 mov	 edx, DWORD PTR ?__LINE__Var@?0??create_landed_faction_members@@YGPAUENTITY@@PAU2@HHH@Z@4JA
  00a98	81 c2 b5 00 00
	00		 add	 edx, 181		; 000000b5H
  00a9e	52		 push	 edx
  00a9f	68 00 00 00 00	 push	 OFFSET ??_C@_0EB@JEOGKGCM@c?3?2users?2nhv90?2projects?2eech?2ap@
  00aa4	a1 00 00 00 00	 mov	 eax, DWORD PTR ?null_entity_pointer_message@@3PBDB ; null_entity_pointer_message
  00aa9	50		 push	 eax
  00aaa	e8 00 00 00 00	 call	 ?process_assert@@YGXPBD0H@Z ; process_assert
  00aaf	c7 85 44 ff ff
	ff 00 00 00 00	 mov	 DWORD PTR tv484[ebp], 0
$LN78@create_lan:
  00ab9	b9 01 00 00 00	 mov	 ecx, 1
  00abe	85 c9		 test	 ecx, ecx
  00ac0	74 0c		 je	 SHORT $LN79@create_lan
  00ac2	c7 85 40 ff ff
	ff 34 00 00 00	 mov	 DWORD PTR tv492[ebp], 52 ; 00000034H
  00acc	eb 27		 jmp	 SHORT $LN80@create_lan
$LN79@create_lan:
  00ace	8b 15 00 00 00
	00		 mov	 edx, DWORD PTR ?__LINE__Var@?0??create_landed_faction_members@@YGPAUENTITY@@PAU2@HHH@Z@4JA
  00ad4	81 c2 b5 00 00
	00		 add	 edx, 181		; 000000b5H
  00ada	52		 push	 edx
  00adb	68 00 00 00 00	 push	 OFFSET ??_C@_0EB@JEOGKGCM@c?3?2users?2nhv90?2projects?2eech?2ap@
  00ae0	a1 00 00 00 00	 mov	 eax, DWORD PTR ?overload_invalid_float_type_message@@3PBDB ; overload_invalid_float_type_message
  00ae5	50		 push	 eax
  00ae6	e8 00 00 00 00	 call	 ?process_assert@@YGXPBD0H@Z ; process_assert
  00aeb	c7 85 40 ff ff
	ff 00 00 00 00	 mov	 DWORD PTR tv492[ebp], 0
$LN80@create_lan:
  00af5	6a 34		 push	 52			; 00000034H
  00af7	8b 4d 08	 mov	 ecx, DWORD PTR _keysite$[ebp]
  00afa	51		 push	 ecx
  00afb	69 95 44 ff ff
	ff bc 02 00 00	 imul	 edx, DWORD PTR tv484[ebp], 700
  00b05	8b 85 40 ff ff
	ff		 mov	 eax, DWORD PTR tv492[ebp]
  00b0b	8b 8c 82 00 00
	00 00		 mov	 ecx, DWORD PTR ?fn_get_local_entity_float_value@@3PAY0KP@P6GMPAUENTITY@@W4FLOAT_TYPES@@@ZA[edx+eax*4]
  00b12	ff d1		 call	 ecx
  00b14	d9 5d f8	 fstp	 DWORD PTR _heading$[ebp]

; 449  : 
; 450  : 				get_3d_terrain_face_normal (&face_normal, pos.x, pos.z);

  00b17	51		 push	 ecx
  00b18	f3 0f 10 45 c8	 movss	 xmm0, DWORD PTR _pos$[ebp+8]
  00b1d	f3 0f 11 04 24	 movss	 DWORD PTR [esp], xmm0
  00b22	51		 push	 ecx
  00b23	f3 0f 10 45 c0	 movss	 xmm0, DWORD PTR _pos$[ebp]
  00b28	f3 0f 11 04 24	 movss	 DWORD PTR [esp], xmm0
  00b2d	8d 45 b4	 lea	 eax, DWORD PTR _face_normal$[ebp]
  00b30	50		 push	 eax
  00b31	e8 00 00 00 00	 call	 ?get_3d_terrain_face_normal@@YGXPAUVEC3D@@MM@Z ; get_3d_terrain_face_normal

; 451  : 
; 452  : 				get_3d_transformation_matrix_from_face_normal_and_heading (attitude, &face_normal, heading);

  00b36	51		 push	 ecx
  00b37	f3 0f 10 45 f8	 movss	 xmm0, DWORD PTR _heading$[ebp]
  00b3c	f3 0f 11 04 24	 movss	 DWORD PTR [esp], xmm0
  00b41	8d 45 b4	 lea	 eax, DWORD PTR _face_normal$[ebp]
  00b44	50		 push	 eax
  00b45	8d 4d cc	 lea	 ecx, DWORD PTR _attitude$[ebp]
  00b48	51		 push	 ecx
  00b49	e8 00 00 00 00	 call	 ?get_3d_transformation_matrix_from_face_normal_and_heading@@YGXQAY02MPBUVEC3D@@M@Z ; get_3d_transformation_matrix_from_face_normal_and_heading

; 453  : 
; 454  : 				pitch = get_pitch_from_attitude_matrix (attitude);

  00b4e	b8 0c 00 00 00	 mov	 eax, 12			; 0000000cH
  00b53	d1 e0		 shl	 eax, 1
  00b55	8d 4c 05 cc	 lea	 ecx, DWORD PTR _attitude$[ebp+eax]
  00b59	ba 04 00 00 00	 mov	 edx, 4
  00b5e	c1 e2 00	 shl	 edx, 0
  00b61	51		 push	 ecx
  00b62	f3 0f 10 04 11	 movss	 xmm0, DWORD PTR [ecx+edx]
  00b67	f3 0f 11 04 24	 movss	 DWORD PTR [esp], xmm0
  00b6c	e8 00 00 00 00	 call	 ?asin@@YGMM@Z		; asin
  00b71	d9 5d f4	 fstp	 DWORD PTR _pitch$[ebp]

; 455  : 
; 456  : 				pitch += fuselage_angle;

  00b74	f3 0f 10 45 f4	 movss	 xmm0, DWORD PTR _pitch$[ebp]
  00b79	f3 0f 58 45 fc	 addss	 xmm0, DWORD PTR _fuselage_angle$[ebp]
  00b7e	f3 0f 11 45 f4	 movss	 DWORD PTR _pitch$[ebp], xmm0

; 457  : 
; 458  : 				roll = get_roll_from_attitude_matrix (attitude);

  00b83	b8 0c 00 00 00	 mov	 eax, 12			; 0000000cH
  00b88	c1 e0 00	 shl	 eax, 0
  00b8b	8d 4c 05 cc	 lea	 ecx, DWORD PTR _attitude$[ebp+eax]
  00b8f	ba 04 00 00 00	 mov	 edx, 4
  00b94	c1 e2 00	 shl	 edx, 0
  00b97	51		 push	 ecx
  00b98	f3 0f 10 04 11	 movss	 xmm0, DWORD PTR [ecx+edx]
  00b9d	f3 0f 11 04 24	 movss	 DWORD PTR [esp], xmm0
  00ba2	b8 0c 00 00 00	 mov	 eax, 12			; 0000000cH
  00ba7	6b c8 00	 imul	 ecx, eax, 0
  00baa	8d 54 0d cc	 lea	 edx, DWORD PTR _attitude$[ebp+ecx]
  00bae	b8 04 00 00 00	 mov	 eax, 4
  00bb3	c1 e0 00	 shl	 eax, 0
  00bb6	f3 0f 10 04 02	 movss	 xmm0, DWORD PTR [edx+eax]
  00bbb	0f 57 05 00 00
	00 00		 xorps	 xmm0, DWORD PTR __xmm@80000000800000008000000080000000
  00bc2	51		 push	 ecx
  00bc3	f3 0f 11 04 24	 movss	 DWORD PTR [esp], xmm0
  00bc8	e8 00 00 00 00	 call	 ?atan2@@YGMMM@Z		; atan2
  00bcd	d9 5d f0	 fstp	 DWORD PTR _roll$[ebp]

; 459  : 
; 460  : 				set_local_entity_attitude_angles (member, heading, pitch, roll);

  00bd0	83 7d 98 00	 cmp	 DWORD PTR _member$[ebp], 0
  00bd4	74 0d		 je	 SHORT $LN81@create_lan
  00bd6	8b 45 98	 mov	 eax, DWORD PTR _member$[ebp]
  00bd9	8b 08		 mov	 ecx, DWORD PTR [eax]
  00bdb	89 8d 44 ff ff
	ff		 mov	 DWORD PTR tv529[ebp], ecx
  00be1	eb 27		 jmp	 SHORT $LN82@create_lan
$LN81@create_lan:
  00be3	8b 15 00 00 00
	00		 mov	 edx, DWORD PTR ?__LINE__Var@?0??create_landed_faction_members@@YGPAUENTITY@@PAU2@HHH@Z@4JA
  00be9	81 c2 c1 00 00
	00		 add	 edx, 193		; 000000c1H
  00bef	52		 push	 edx
  00bf0	68 00 00 00 00	 push	 OFFSET ??_C@_0EB@JEOGKGCM@c?3?2users?2nhv90?2projects?2eech?2ap@
  00bf5	a1 00 00 00 00	 mov	 eax, DWORD PTR ?null_entity_pointer_message@@3PBDB ; null_entity_pointer_message
  00bfa	50		 push	 eax
  00bfb	e8 00 00 00 00	 call	 ?process_assert@@YGXPBD0H@Z ; process_assert
  00c00	c7 85 44 ff ff
	ff 00 00 00 00	 mov	 DWORD PTR tv529[ebp], 0
$LN82@create_lan:
  00c0a	51		 push	 ecx
  00c0b	f3 0f 10 45 f0	 movss	 xmm0, DWORD PTR _roll$[ebp]
  00c10	f3 0f 11 04 24	 movss	 DWORD PTR [esp], xmm0
  00c15	51		 push	 ecx
  00c16	f3 0f 10 45 f4	 movss	 xmm0, DWORD PTR _pitch$[ebp]
  00c1b	f3 0f 11 04 24	 movss	 DWORD PTR [esp], xmm0
  00c20	51		 push	 ecx
  00c21	f3 0f 10 45 f8	 movss	 xmm0, DWORD PTR _heading$[ebp]
  00c26	f3 0f 11 04 24	 movss	 DWORD PTR [esp], xmm0
  00c2b	8b 4d 98	 mov	 ecx, DWORD PTR _member$[ebp]
  00c2e	51		 push	 ecx
  00c2f	8b 95 44 ff ff
	ff		 mov	 edx, DWORD PTR tv529[ebp]
  00c35	8b 04 95 00 00
	00 00		 mov	 eax, DWORD PTR ?fn_set_local_entity_attitude_angles@@3PAP6GXPAUENTITY@@MMM@ZA[edx*4]
  00c3c	ff d0		 call	 eax

; 461  : 
; 462  : 				set_local_entity_vec3d (member, VEC3D_TYPE_POSITION, &pos);

  00c3e	83 7d 98 00	 cmp	 DWORD PTR _member$[ebp], 0
  00c42	74 0d		 je	 SHORT $LN83@create_lan
  00c44	8b 45 98	 mov	 eax, DWORD PTR _member$[ebp]
  00c47	8b 08		 mov	 ecx, DWORD PTR [eax]
  00c49	89 8d 44 ff ff
	ff		 mov	 DWORD PTR tv542[ebp], ecx
  00c4f	eb 27		 jmp	 SHORT $LN84@create_lan
$LN83@create_lan:
  00c51	8b 15 00 00 00
	00		 mov	 edx, DWORD PTR ?__LINE__Var@?0??create_landed_faction_members@@YGPAUENTITY@@PAU2@HHH@Z@4JA
  00c57	81 c2 c3 00 00
	00		 add	 edx, 195		; 000000c3H
  00c5d	52		 push	 edx
  00c5e	68 00 00 00 00	 push	 OFFSET ??_C@_0EB@JEOGKGCM@c?3?2users?2nhv90?2projects?2eech?2ap@
  00c63	a1 00 00 00 00	 mov	 eax, DWORD PTR ?null_entity_pointer_message@@3PBDB ; null_entity_pointer_message
  00c68	50		 push	 eax
  00c69	e8 00 00 00 00	 call	 ?process_assert@@YGXPBD0H@Z ; process_assert
  00c6e	c7 85 44 ff ff
	ff 00 00 00 00	 mov	 DWORD PTR tv542[ebp], 0
$LN84@create_lan:
  00c78	b9 01 00 00 00	 mov	 ecx, 1
  00c7d	85 c9		 test	 ecx, ecx
  00c7f	74 0c		 je	 SHORT $LN85@create_lan
  00c81	c7 85 40 ff ff
	ff 08 00 00 00	 mov	 DWORD PTR tv550[ebp], 8
  00c8b	eb 27		 jmp	 SHORT $LN86@create_lan
$LN85@create_lan:
  00c8d	8b 15 00 00 00
	00		 mov	 edx, DWORD PTR ?__LINE__Var@?0??create_landed_faction_members@@YGPAUENTITY@@PAU2@HHH@Z@4JA
  00c93	81 c2 c3 00 00
	00		 add	 edx, 195		; 000000c3H
  00c99	52		 push	 edx
  00c9a	68 00 00 00 00	 push	 OFFSET ??_C@_0EB@JEOGKGCM@c?3?2users?2nhv90?2projects?2eech?2ap@
  00c9f	a1 00 00 00 00	 mov	 eax, DWORD PTR ?overload_invalid_vec3d_type_message@@3PBDB ; overload_invalid_vec3d_type_message
  00ca4	50		 push	 eax
  00ca5	e8 00 00 00 00	 call	 ?process_assert@@YGXPBD0H@Z ; process_assert
  00caa	c7 85 40 ff ff
	ff 00 00 00 00	 mov	 DWORD PTR tv550[ebp], 0
$LN86@create_lan:
  00cb4	8d 4d c0	 lea	 ecx, DWORD PTR _pos$[ebp]
  00cb7	51		 push	 ecx
  00cb8	6a 08		 push	 8
  00cba	8b 55 98	 mov	 edx, DWORD PTR _member$[ebp]
  00cbd	52		 push	 edx
  00cbe	6b 85 44 ff ff
	ff 60		 imul	 eax, DWORD PTR tv542[ebp], 96
  00cc5	8b 8d 40 ff ff
	ff		 mov	 ecx, DWORD PTR tv550[ebp]
  00ccb	8b 94 88 00 00
	00 00		 mov	 edx, DWORD PTR ?fn_set_local_entity_vec3d@@3PAY0BI@P6GXPAUENTITY@@W4VEC3D_TYPES@@PAUVEC3D@@@ZA[eax+ecx*4]
  00cd2	ff d2		 call	 edx

; 463  : 
; 464  : 				#if DEBUG_MODULE
; 465  : 
; 466  : 				debug_log ("FACTION: placing member %d (%s) at %f, %f, %f, formation_pos %d at keysite %s", member, get_local_entity_type_name (member), pos.x, pos.y, pos.z, formation_position, get_local_entity_string (keysite, STRING_TYPE_KEYSITE_NAME));
; 467  : 
; 468  : 				#endif
; 469  : 
; 470  : 				//
; 471  : 				// Lock landing site for member and add to dependent list
; 472  : 				//
; 473  : 
; 474  : 				notify_local_entity (ENTITY_MESSAGE_LOCK_LANDING_SITE, landing_en, member);

  00cd4	8b 45 98	 mov	 eax, DWORD PTR _member$[ebp]
  00cd7	50		 push	 eax
  00cd8	8b 4d 90	 mov	 ecx, DWORD PTR _landing_en$[ebp]
  00cdb	51		 push	 ecx
  00cdc	6a 26		 push	 38			; 00000026H
  00cde	e8 00 00 00 00	 call	 ?notify_local_entity@@YAHW4ENTITY_MESSAGES@@PAUENTITY@@1ZZ ; notify_local_entity
  00ce3	83 c4 0c	 add	 esp, 12			; 0000000cH

; 475  : 			}

  00ce6	e9 4a f7 ff ff	 jmp	 $LN4@create_lan
$LN5@create_lan:

; 476  : 
; 477  : 			//
; 478  : 			// Assign each member a unique ID number
; 479  : 			//
; 480  : 
; 481  : 			set_group_member_numbers (group);

  00ceb	8b 45 9c	 mov	 eax, DWORD PTR _group$[ebp]
  00cee	50		 push	 eax
  00cef	e8 00 00 00 00	 call	 ?set_group_member_numbers@@YGXPAUENTITY@@@Z ; set_group_member_numbers

; 482  : 
; 483  : 			return group;

  00cf4	8b 45 9c	 mov	 eax, DWORD PTR _group$[ebp]
  00cf7	eb 02		 jmp	 SHORT $LN1@create_lan
$LN18@create_lan:

; 484  : 		}
; 485  : 	}
; 486  : 
; 487  : 	return NULL;

  00cf9	33 c0		 xor	 eax, eax
$LN1@create_lan:

; 488  : }

  00cfb	5f		 pop	 edi
  00cfc	5e		 pop	 esi
  00cfd	5b		 pop	 ebx
  00cfe	8b e5		 mov	 esp, ebp
  00d00	5d		 pop	 ebp
  00d01	c2 10 00	 ret	 16			; 00000010H
?create_landed_faction_members@@YGPAUENTITY@@PAU1@HHH@Z ENDP ; create_landed_faction_members
_TEXT	ENDS
; Function compile flags: /Odtp /ZI
; File c:\users\nhv90\projects\eech\aphavoc\source\ai\faction\faction.c
;	COMDAT ?create_faction_members@@YGPAUENTITY@@PAU1@HW4FORMATION_COMPONENT_TYPES@@HW4ENTITY_SIDES@@PAUVEC3D@@HH@Z
_TEXT	SEGMENT
tv629 = -264						; size = 4
tv539 = -264						; size = 8
tv460 = -260						; size = 4
tv389 = -260						; size = 4
tv363 = -260						; size = 4
tv536 = -256						; size = 4
tv452 = -256						; size = 4
tv439 = -256						; size = 4
tv401 = -256						; size = 4
tv381 = -256						; size = 4
tv355 = -256						; size = 4
tv295 = -256						; size = 4
tv77 = -256						; size = 4
$T1 = -252						; size = 4
$T2 = -248						; size = 4
_point_data$ = -180					; size = 44
_member_type$ = -136					; size = 4
_member$ = -132						; size = 4
_group$ = -128						; size = 4
_parent$ = -124						; size = 4
_loop$ = -120						; size = 4
_formation_position$ = -116				; size = 4
_road_node$ = -112					; size = 4
_list_type$ = -108					; size = 4
_face_normal$ = -104					; size = 12
_delta$ = -92						; size = 12
_pos$ = -80						; size = 12
_attitude$ = -68					; size = 36
_roll$ = -32						; size = 4
_pitch$ = -28						; size = 4
_heading$ = -24						; size = 4
_fuselage_angle$ = -20					; size = 4
_radius$ = -16						; size = 4
_formation_radius$ = -12				; size = 4
_formation_data$ = -8					; size = 4
_formation_components$ = -4				; size = 4
_keysite$ = 8						; size = 4
_group_type$ = 12					; size = 4
_formation$ = 16					; size = 4
_number$ = 20						; size = 4
_side$ = 24						; size = 4
_position$ = 28						; size = 4
_client_server_create$ = 32				; size = 4
_place_at_ground_height$ = 36				; size = 4
?create_faction_members@@YGPAUENTITY@@PAU1@HW4FORMATION_COMPONENT_TYPES@@HW4ENTITY_SIDES@@PAUVEC3D@@HH@Z PROC ; create_faction_members, COMDAT

; 1045 : {

  00000	55		 push	 ebp
  00001	8b ec		 mov	 ebp, esp
  00003	81 ec 08 01 00
	00		 sub	 esp, 264		; 00000108H
  00009	53		 push	 ebx
  0000a	56		 push	 esi
  0000b	57		 push	 edi

; 1046 : 
; 1047 : 	formation_vehicle_components
; 1048 : 		*formation_components;
; 1049 : 
; 1050 : 	formation_type
; 1051 : 		*formation_data;
; 1052 : 
; 1053 :    float
; 1054 : 		formation_radius,
; 1055 : 		radius,
; 1056 :       fuselage_angle,
; 1057 :       heading,
; 1058 :       pitch,
; 1059 :       roll;
; 1060 : 
; 1061 :    matrix3x3
; 1062 :       attitude;
; 1063 : 
; 1064 :    vec3d
; 1065 :       pos,
; 1066 : 		delta,
; 1067 :       face_normal;
; 1068 : 
; 1069 : 	list_types
; 1070 : 		list_type;
; 1071 : 
; 1072 :    int
; 1073 : 		road_node,
; 1074 : 		formation_position,
; 1075 :       loop;
; 1076 : 
; 1077 :    entity
; 1078 : 		*parent,
; 1079 :       *group,
; 1080 :       *member;
; 1081 : 
; 1082 : 	entity_sub_types
; 1083 : 		member_type;
; 1084 : 
; 1085 : 	terrain_3d_point_data
; 1086 : 		point_data;
; 1087 : 
; 1088 :    debug_assert (get_comms_model () == COMMS_MODEL_SERVER);

  0000c	83 3d 00 00 00
	00 00		 cmp	 DWORD PTR ?system_comms_model@@3W4COMMS_MODEL_TYPES@@A, 0 ; system_comms_model
  00013	74 20		 je	 SHORT $LN5@create_fac
  00015	a1 00 00 00 00	 mov	 eax, DWORD PTR ?__LINE__Var@?0??create_faction_members@@YGPAUENTITY@@PAU2@HW4FORMATION_COMPONENT_TYPES@@HW4ENTITY_SIDES@@PAUVEC3D@@HH@Z@4JA
  0001a	83 c0 2b	 add	 eax, 43			; 0000002bH
  0001d	50		 push	 eax
  0001e	68 00 00 00 00	 push	 OFFSET ??_C@_0EB@JEOGKGCM@c?3?2users?2nhv90?2projects?2eech?2ap@
  00023	68 00 00 00 00	 push	 OFFSET ??_C@_0CJ@DMBLBJBK@get_comms_model?5?$CI?$CJ?5?$DN?$DN?5COMMS_MOD@
  00028	68 00 00 00 00	 push	 OFFSET ??_C@_0BC@PODNONFH@ASSERT?5?$CFs?5?$CI?$CFs?3?$CFd?$CJ@
  0002d	e8 00 00 00 00	 call	 ?debug_fatal@@YAXPBDZZ	; debug_fatal
  00032	83 c4 10	 add	 esp, 16			; 00000010H
$LN5@create_fac:

; 1089 : 
; 1090 : 	if (keysite)

  00035	83 7d 08 00	 cmp	 DWORD PTR _keysite$[ebp], 0
  00039	74 58		 je	 SHORT $LN7@create_fac

; 1091 : 	{
; 1092 : 		ASSERT (get_local_entity_type (keysite) == ENTITY_TYPE_KEYSITE);

  0003b	83 7d 08 00	 cmp	 DWORD PTR _keysite$[ebp], 0
  0003f	74 0d		 je	 SHORT $LN26@create_fac
  00041	8b 45 08	 mov	 eax, DWORD PTR _keysite$[ebp]
  00044	8b 08		 mov	 ecx, DWORD PTR [eax]
  00046	89 8d 00 ff ff
	ff		 mov	 DWORD PTR tv77[ebp], ecx
  0004c	eb 24		 jmp	 SHORT $LN27@create_fac
$LN26@create_fac:
  0004e	8b 15 00 00 00
	00		 mov	 edx, DWORD PTR ?__LINE__Var@?0??create_faction_members@@YGPAUENTITY@@PAU2@HW4FORMATION_COMPONENT_TYPES@@HW4ENTITY_SIDES@@PAUVEC3D@@HH@Z@4JA
  00054	83 c2 2f	 add	 edx, 47			; 0000002fH
  00057	52		 push	 edx
  00058	68 00 00 00 00	 push	 OFFSET ??_C@_0EB@JEOGKGCM@c?3?2users?2nhv90?2projects?2eech?2ap@
  0005d	a1 00 00 00 00	 mov	 eax, DWORD PTR ?null_entity_pointer_message@@3PBDB ; null_entity_pointer_message
  00062	50		 push	 eax
  00063	e8 00 00 00 00	 call	 ?process_assert@@YGXPBD0H@Z ; process_assert
  00068	c7 85 00 ff ff
	ff 00 00 00 00	 mov	 DWORD PTR tv77[ebp], 0
$LN27@create_fac:
  00072	83 bd 00 ff ff
	ff 0f		 cmp	 DWORD PTR tv77[ebp], 15	; 0000000fH
  00079	74 18		 je	 SHORT $LN7@create_fac
  0007b	a1 00 00 00 00	 mov	 eax, DWORD PTR ?__LINE__Var@?0??create_faction_members@@YGPAUENTITY@@PAU2@HW4FORMATION_COMPONENT_TYPES@@HW4ENTITY_SIDES@@PAUVEC3D@@HH@Z@4JA
  00080	83 c0 2f	 add	 eax, 47			; 0000002fH
  00083	50		 push	 eax
  00084	68 00 00 00 00	 push	 OFFSET ??_C@_0EB@JEOGKGCM@c?3?2users?2nhv90?2projects?2eech?2ap@
  00089	68 00 00 00 00	 push	 OFFSET ??_C@_0DH@KIHAKAGM@get_local_entity_type?5?$CIkeysite?$CJ@
  0008e	e8 00 00 00 00	 call	 ?process_assert@@YGXPBD0H@Z ; process_assert
$LN7@create_fac:

; 1093 : 	}
; 1094 : 
; 1095 : 	list_type = group_database [group_type].group_list_type;

  00093	6b 45 0c 64	 imul	 eax, DWORD PTR _group_type$[ebp], 100
  00097	8b 88 10 00 00
	00		 mov	 ecx, DWORD PTR ?group_database@@3PAUGROUP_DATA@@A[eax+16]
  0009d	89 4d 94	 mov	 DWORD PTR _list_type$[ebp], ecx

; 1096 : 
; 1097 : 	if (list_type == LIST_TYPE_INDEPENDENT_GROUP)

  000a0	83 7d 94 14	 cmp	 DWORD PTR _list_type$[ebp], 20 ; 00000014H
  000a4	75 0e		 jne	 SHORT $LN8@create_fac

; 1098 : 	{
; 1099 : 		parent = get_local_force_entity (side);

  000a6	8b 45 18	 mov	 eax, DWORD PTR _side$[ebp]
  000a9	50		 push	 eax
  000aa	e8 00 00 00 00	 call	 ?get_local_force_entity@@YGPAUENTITY@@W4ENTITY_SIDES@@@Z ; get_local_force_entity
  000af	89 45 84	 mov	 DWORD PTR _parent$[ebp], eax

; 1100 : 	}
; 1101 : 	else

  000b2	eb 24		 jmp	 SHORT $LN9@create_fac
$LN8@create_fac:

; 1102 : 	{
; 1103 : 		ASSERT (keysite);

  000b4	83 7d 08 00	 cmp	 DWORD PTR _keysite$[ebp], 0
  000b8	75 18		 jne	 SHORT $LN10@create_fac
  000ba	a1 00 00 00 00	 mov	 eax, DWORD PTR ?__LINE__Var@?0??create_faction_members@@YGPAUENTITY@@PAU2@HW4FORMATION_COMPONENT_TYPES@@HW4ENTITY_SIDES@@PAUVEC3D@@HH@Z@4JA
  000bf	83 c0 3a	 add	 eax, 58			; 0000003aH
  000c2	50		 push	 eax
  000c3	68 00 00 00 00	 push	 OFFSET ??_C@_0EB@JEOGKGCM@c?3?2users?2nhv90?2projects?2eech?2ap@
  000c8	68 00 00 00 00	 push	 OFFSET ??_C@_07FBNBNOMI@keysite@
  000cd	e8 00 00 00 00	 call	 ?process_assert@@YGXPBD0H@Z ; process_assert
$LN10@create_fac:

; 1104 : 
; 1105 : 		parent = keysite;

  000d2	8b 45 08	 mov	 eax, DWORD PTR _keysite$[ebp]
  000d5	89 45 84	 mov	 DWORD PTR _parent$[ebp], eax
$LN9@create_fac:

; 1106 : 	}
; 1107 : 
; 1108 : 	ASSERT (parent);

  000d8	83 7d 84 00	 cmp	 DWORD PTR _parent$[ebp], 0
  000dc	75 18		 jne	 SHORT $LN11@create_fac
  000de	a1 00 00 00 00	 mov	 eax, DWORD PTR ?__LINE__Var@?0??create_faction_members@@YGPAUENTITY@@PAU2@HW4FORMATION_COMPONENT_TYPES@@HW4ENTITY_SIDES@@PAUVEC3D@@HH@Z@4JA
  000e3	83 c0 3f	 add	 eax, 63			; 0000003fH
  000e6	50		 push	 eax
  000e7	68 00 00 00 00	 push	 OFFSET ??_C@_0EB@JEOGKGCM@c?3?2users?2nhv90?2projects?2eech?2ap@
  000ec	68 00 00 00 00	 push	 OFFSET ??_C@_06MLKDMCBD@parent@
  000f1	e8 00 00 00 00	 call	 ?process_assert@@YGXPBD0H@Z ; process_assert
$LN11@create_fac:

; 1109 : 
; 1110 : 	fuselage_angle = 0;

  000f6	0f 57 c0	 xorps	 xmm0, xmm0
  000f9	f3 0f 11 45 ec	 movss	 DWORD PTR _fuselage_angle$[ebp], xmm0

; 1111 : 
; 1112 : 	if (number > 0)

  000fe	83 7d 14 00	 cmp	 DWORD PTR _number$[ebp], 0
  00102	0f 8e e5 07 00
	00		 jle	 $LN12@create_fac

; 1113 : 	{
; 1114 : 		memset (&point_data, 0, sizeof (terrain_3d_point_data));

  00108	6a 2c		 push	 44			; 0000002cH
  0010a	6a 00		 push	 0
  0010c	8d 85 4c ff ff
	ff		 lea	 eax, DWORD PTR _point_data$[ebp]
  00112	50		 push	 eax
  00113	e8 00 00 00 00	 call	 _memset
  00118	83 c4 0c	 add	 esp, 12			; 0000000cH

; 1115 : 
; 1116 : 		get_3d_terrain_point_data (position->x, position->z, &point_data);

  0011b	8d 85 4c ff ff
	ff		 lea	 eax, DWORD PTR _point_data$[ebp]
  00121	50		 push	 eax
  00122	8b 4d 1c	 mov	 ecx, DWORD PTR _position$[ebp]
  00125	51		 push	 ecx
  00126	f3 0f 10 41 08	 movss	 xmm0, DWORD PTR [ecx+8]
  0012b	f3 0f 11 04 24	 movss	 DWORD PTR [esp], xmm0
  00130	8b 55 1c	 mov	 edx, DWORD PTR _position$[ebp]
  00133	51		 push	 ecx
  00134	f3 0f 10 02	 movss	 xmm0, DWORD PTR [edx]
  00138	f3 0f 11 04 24	 movss	 DWORD PTR [esp], xmm0
  0013d	e8 00 00 00 00	 call	 ?get_3d_terrain_point_data@@YGMMMPAUTERRAIN_3D_POINT_DATA@@@Z ; get_3d_terrain_point_data
  00142	dd d8		 fstp	 ST(0)

; 1117 : 
; 1118 : 		if (group_database [group_type].registry_list_type == LIST_TYPE_GROUND_REGISTRY)

  00144	6b 45 0c 64	 imul	 eax, DWORD PTR _group_type$[ebp], 100
  00148	83 b8 0c 00 00
	00 0f		 cmp	 DWORD PTR ?group_database@@3PAUGROUP_DATA@@A[eax+12], 15 ; 0000000fH
  0014f	75 1e		 jne	 SHORT $LN14@create_fac

; 1119 : 		{
; 1120 : 
; 1121 : 			if (get_terrain_type_class (get_3d_terrain_point_data_type (&point_data)) != TERRAIN_CLASS_LAND)

  00151	8d 85 4c ff ff
	ff		 lea	 eax, DWORD PTR _point_data$[ebp]
  00157	50		 push	 eax
  00158	e8 00 00 00 00	 call	 ?get_3d_terrain_point_data_type@@YGHPAUTERRAIN_3D_POINT_DATA@@@Z ; get_3d_terrain_point_data_type
  0015d	50		 push	 eax
  0015e	e8 00 00 00 00	 call	 ?get_terrain_type_class@@YG?AW4TERRAIN_CLASSES@@H@Z ; get_terrain_type_class
  00163	83 f8 03	 cmp	 eax, 3
  00166	74 07		 je	 SHORT $LN14@create_fac

; 1122 : 			{
; 1123 : 
; 1124 : 				return NULL;

  00168	33 c0		 xor	 eax, eax
  0016a	e9 80 07 00 00	 jmp	 $LN1@create_fac
$LN14@create_fac:

; 1125 : 			}
; 1126 : 		}
; 1127 : 
; 1128 : 		formation_components = get_formation_components (formation);

  0016f	8b 45 10	 mov	 eax, DWORD PTR _formation$[ebp]
  00172	50		 push	 eax
  00173	e8 00 00 00 00	 call	 ?get_formation_components@@YGPAUFORMATION_VEHICLE_COMPONENTS@@W4FORMATION_COMPONENT_TYPES@@@Z ; get_formation_components
  00178	89 45 fc	 mov	 DWORD PTR _formation_components$[ebp], eax

; 1129 : 
; 1130 : 		ASSERT (formation_components);

  0017b	83 7d fc 00	 cmp	 DWORD PTR _formation_components$[ebp], 0
  0017f	75 18		 jne	 SHORT $LN15@create_fac
  00181	a1 00 00 00 00	 mov	 eax, DWORD PTR ?__LINE__Var@?0??create_faction_members@@YGPAUENTITY@@PAU2@HW4FORMATION_COMPONENT_TYPES@@HW4ENTITY_SIDES@@PAUVEC3D@@HH@Z@4JA
  00186	83 c0 55	 add	 eax, 85			; 00000055H
  00189	50		 push	 eax
  0018a	68 00 00 00 00	 push	 OFFSET ??_C@_0EB@JEOGKGCM@c?3?2users?2nhv90?2projects?2eech?2ap@
  0018f	68 00 00 00 00	 push	 OFFSET ??_C@_0BF@LBOCPGPN@formation_components@
  00194	e8 00 00 00 00	 call	 ?process_assert@@YGXPBD0H@Z ; process_assert
$LN15@create_fac:

; 1131 : 		
; 1132 : 		//
; 1133 : 		// create group
; 1134 : 		//
; 1135 : 
; 1136 : 		if (client_server_create)

  00199	83 7d 20 00	 cmp	 DWORD PTR _client_server_create$[ebp], 0
  0019d	0f 84 87 00 00
	00		 je	 $LN16@create_fac

; 1137 : 		{
; 1138 : 			group = create_client_server_entity

  001a3	6a 00		 push	 0
  001a5	6b 45 0c 64	 imul	 eax, DWORD PTR _group_type$[ebp], 100
  001a9	8b 88 48 00 00
	00		 mov	 ecx, DWORD PTR ?group_database@@3PAUGROUP_DATA@@A[eax+72]
  001af	c1 e9 03	 shr	 ecx, 3
  001b2	83 e1 01	 and	 ecx, 1
  001b5	51		 push	 ecx
  001b6	6a 33		 push	 51			; 00000033H
  001b8	6a 05		 push	 5
  001ba	8b 55 18	 mov	 edx, DWORD PTR _side$[ebp]
  001bd	52		 push	 edx
  001be	68 bb 00 00 00	 push	 187			; 000000bbH
  001c3	6a 05		 push	 5
  001c5	8b 45 0c	 mov	 eax, DWORD PTR _group_type$[ebp]
  001c8	50		 push	 eax
  001c9	6a 34		 push	 52			; 00000034H
  001cb	6a 05		 push	 5
  001cd	8b 4d 1c	 mov	 ecx, DWORD PTR _position$[ebp]
  001d0	f3 0f 10 41 08	 movss	 xmm0, DWORD PTR [ecx+8]
  001d5	f3 0f 5a c0	 cvtss2sd xmm0, xmm0
  001d9	83 ec 08	 sub	 esp, 8
  001dc	f2 0f 11 04 24	 movsd	 QWORD PTR [esp], xmm0
  001e1	8b 55 1c	 mov	 edx, DWORD PTR _position$[ebp]
  001e4	f3 0f 10 42 04	 movss	 xmm0, DWORD PTR [edx+4]
  001e9	f3 0f 5a c0	 cvtss2sd xmm0, xmm0
  001ed	83 ec 08	 sub	 esp, 8
  001f0	f2 0f 11 04 24	 movsd	 QWORD PTR [esp], xmm0
  001f5	8b 45 1c	 mov	 eax, DWORD PTR _position$[ebp]
  001f8	f3 0f 10 00	 movss	 xmm0, DWORD PTR [eax]
  001fc	f3 0f 5a c0	 cvtss2sd xmm0, xmm0
  00200	83 ec 08	 sub	 esp, 8
  00203	f2 0f 11 04 24	 movsd	 QWORD PTR [esp], xmm0
  00208	6a 08		 push	 8
  0020a	6a 09		 push	 9
  0020c	8b 4d 84	 mov	 ecx, DWORD PTR _parent$[ebp]
  0020f	51		 push	 ecx
  00210	8b 55 94	 mov	 edx, DWORD PTR _list_type$[ebp]
  00213	52		 push	 edx
  00214	6a 06		 push	 6
  00216	6a ff		 push	 -1
  00218	6a 0c		 push	 12			; 0000000cH
  0021a	e8 00 00 00 00	 call	 ?create_client_server_entity@@YAPAUENTITY@@W4ENTITY_TYPES@@HZZ ; create_client_server_entity
  0021f	83 c4 5c	 add	 esp, 92			; 0000005cH
  00222	89 45 80	 mov	 DWORD PTR _group$[ebp], eax

; 1139 : 			(
; 1140 : 				ENTITY_TYPE_GROUP,
; 1141 : 				ENTITY_INDEX_DONT_CARE,
; 1142 : 				ENTITY_ATTR_PARENT (list_type, parent),
; 1143 : 				ENTITY_ATTR_VEC3D (VEC3D_TYPE_POSITION, position->x, position->y, position->z),
; 1144 : 				ENTITY_ATTR_INT_VALUE (INT_TYPE_ENTITY_SUB_TYPE, group_type),
; 1145 : 				ENTITY_ATTR_INT_VALUE (INT_TYPE_SIDE, side),
; 1146 : 				ENTITY_ATTR_INT_VALUE (INT_TYPE_ENGAGE_ENEMY, group_database [group_type].default_engage_enemy),
; 1147 : 				ENTITY_ATTR_END
; 1148 : 			);
; 1149 : 		}
; 1150 : 		else

  00225	e9 82 00 00 00	 jmp	 $LN17@create_fac
$LN16@create_fac:

; 1151 : 		{
; 1152 : 			group = create_local_entity

  0022a	6a 00		 push	 0
  0022c	6b 45 0c 64	 imul	 eax, DWORD PTR _group_type$[ebp], 100
  00230	8b 88 48 00 00
	00		 mov	 ecx, DWORD PTR ?group_database@@3PAUGROUP_DATA@@A[eax+72]
  00236	c1 e9 03	 shr	 ecx, 3
  00239	83 e1 01	 and	 ecx, 1
  0023c	51		 push	 ecx
  0023d	6a 33		 push	 51			; 00000033H
  0023f	6a 05		 push	 5
  00241	8b 55 18	 mov	 edx, DWORD PTR _side$[ebp]
  00244	52		 push	 edx
  00245	68 bb 00 00 00	 push	 187			; 000000bbH
  0024a	6a 05		 push	 5
  0024c	8b 45 0c	 mov	 eax, DWORD PTR _group_type$[ebp]
  0024f	50		 push	 eax
  00250	6a 34		 push	 52			; 00000034H
  00252	6a 05		 push	 5
  00254	8b 4d 1c	 mov	 ecx, DWORD PTR _position$[ebp]
  00257	f3 0f 10 41 08	 movss	 xmm0, DWORD PTR [ecx+8]
  0025c	f3 0f 5a c0	 cvtss2sd xmm0, xmm0
  00260	83 ec 08	 sub	 esp, 8
  00263	f2 0f 11 04 24	 movsd	 QWORD PTR [esp], xmm0
  00268	8b 55 1c	 mov	 edx, DWORD PTR _position$[ebp]
  0026b	f3 0f 10 42 04	 movss	 xmm0, DWORD PTR [edx+4]
  00270	f3 0f 5a c0	 cvtss2sd xmm0, xmm0
  00274	83 ec 08	 sub	 esp, 8
  00277	f2 0f 11 04 24	 movsd	 QWORD PTR [esp], xmm0
  0027c	8b 45 1c	 mov	 eax, DWORD PTR _position$[ebp]
  0027f	f3 0f 10 00	 movss	 xmm0, DWORD PTR [eax]
  00283	f3 0f 5a c0	 cvtss2sd xmm0, xmm0
  00287	83 ec 08	 sub	 esp, 8
  0028a	f2 0f 11 04 24	 movsd	 QWORD PTR [esp], xmm0
  0028f	6a 08		 push	 8
  00291	6a 09		 push	 9
  00293	8b 4d 84	 mov	 ecx, DWORD PTR _parent$[ebp]
  00296	51		 push	 ecx
  00297	8b 55 94	 mov	 edx, DWORD PTR _list_type$[ebp]
  0029a	52		 push	 edx
  0029b	6a 06		 push	 6
  0029d	6a ff		 push	 -1
  0029f	6a 0c		 push	 12			; 0000000cH
  002a1	e8 00 00 00 00	 call	 ?create_local_entity@@YAPAUENTITY@@W4ENTITY_TYPES@@HZZ ; create_local_entity
  002a6	83 c4 5c	 add	 esp, 92			; 0000005cH
  002a9	89 45 80	 mov	 DWORD PTR _group$[ebp], eax
$LN17@create_fac:

; 1153 : 			(
; 1154 : 				ENTITY_TYPE_GROUP,
; 1155 : 				ENTITY_INDEX_DONT_CARE,
; 1156 : 				ENTITY_ATTR_PARENT (list_type, parent),
; 1157 : 				ENTITY_ATTR_VEC3D (VEC3D_TYPE_POSITION, position->x, position->y, position->z),
; 1158 : 				ENTITY_ATTR_INT_VALUE (INT_TYPE_ENTITY_SUB_TYPE, group_type),
; 1159 : 				ENTITY_ATTR_INT_VALUE (INT_TYPE_SIDE, side),
; 1160 : 				ENTITY_ATTR_INT_VALUE (INT_TYPE_ENGAGE_ENEMY, group_database [group_type].default_engage_enemy),
; 1161 : 				ENTITY_ATTR_END
; 1162 : 			);
; 1163 : 		}
; 1164 : 
; 1165 : 		//
; 1166 : 		// create members
; 1167 : 		//
; 1168 : 
; 1169 : 		formation_data = get_formation (formation_components->formation);

  002ac	8b 45 fc	 mov	 eax, DWORD PTR _formation_components$[ebp]
  002af	8b 48 04	 mov	 ecx, DWORD PTR [eax+4]
  002b2	51		 push	 ecx
  002b3	e8 00 00 00 00	 call	 ?get_formation@@YGPAUFORMATION_TYPE@@W4FORMATION_TYPES@@@Z ; get_formation
  002b8	89 45 f8	 mov	 DWORD PTR _formation_data$[ebp], eax

; 1170 : 
; 1171 : 		road_node = get_closest_road_node (position, 5.0);

  002bb	51		 push	 ecx
  002bc	f3 0f 10 05 00
	00 00 00	 movss	 xmm0, DWORD PTR __real@40a00000
  002c4	f3 0f 11 04 24	 movss	 DWORD PTR [esp], xmm0
  002c9	8b 45 1c	 mov	 eax, DWORD PTR _position$[ebp]
  002cc	50		 push	 eax
  002cd	e8 00 00 00 00	 call	 ?get_closest_road_node@@YGHPAUVEC3D@@M@Z ; get_closest_road_node
  002d2	89 45 90	 mov	 DWORD PTR _road_node$[ebp], eax

; 1172 : 
; 1173 : 		formation_radius = get_formation_member_radius (formation_components->formation, number);

  002d5	8b 45 14	 mov	 eax, DWORD PTR _number$[ebp]
  002d8	50		 push	 eax
  002d9	8b 4d fc	 mov	 ecx, DWORD PTR _formation_components$[ebp]
  002dc	8b 51 04	 mov	 edx, DWORD PTR [ecx+4]
  002df	52		 push	 edx
  002e0	e8 00 00 00 00	 call	 ?get_formation_member_radius@@YGMW4FORMATION_TYPES@@H@Z ; get_formation_member_radius
  002e5	d9 5d f4	 fstp	 DWORD PTR _formation_radius$[ebp]

; 1174 : 
; 1175 : 		radius = min ((float)(road_nodes [road_node].safe_radius - 5), formation_radius);

  002e8	6b 45 90 0c	 imul	 eax, DWORD PTR _road_node$[ebp], 12
  002ec	8b 0d 00 00 00
	00		 mov	 ecx, DWORD PTR ?road_nodes@@3PAUNODE_DATA@@A ; road_nodes
  002f2	8b 14 01	 mov	 edx, DWORD PTR [ecx+eax]
  002f5	c1 ea 0e	 shr	 edx, 14			; 0000000eH
  002f8	81 e2 ff 3f 00
	00		 and	 edx, 16383		; 00003fffH
  002fe	83 ea 05	 sub	 edx, 5
  00301	89 95 00 ff ff
	ff		 mov	 DWORD PTR tv536[ebp], edx
  00307	f2 0f 2a 85 00
	ff ff ff	 cvtsi2sd xmm0, DWORD PTR tv536[ebp]
  0030f	8b 85 00 ff ff
	ff		 mov	 eax, DWORD PTR tv536[ebp]
  00315	c1 e8 1f	 shr	 eax, 31			; 0000001fH
  00318	f2 0f 58 04 c5
	00 00 00 00	 addsd	 xmm0, QWORD PTR __xmm@41f00000000000000000000000000000[eax*8]
  00321	f2 0f 11 85 f8
	fe ff ff	 movsd	 QWORD PTR tv539[ebp], xmm0
  00329	f2 0f 5a 85 f8
	fe ff ff	 cvtsd2ss xmm0, QWORD PTR tv539[ebp]
  00331	f3 0f 11 85 08
	ff ff ff	 movss	 DWORD PTR $T2[ebp], xmm0
  00339	8d 4d f4	 lea	 ecx, DWORD PTR _formation_radius$[ebp]
  0033c	51		 push	 ecx
  0033d	8d 95 08 ff ff
	ff		 lea	 edx, DWORD PTR $T2[ebp]
  00343	52		 push	 edx
  00344	e8 00 00 00 00	 call	 ??$min@M@std@@YGABMABM0@Z ; std::min<float>
  00349	f3 0f 10 00	 movss	 xmm0, DWORD PTR [eax]
  0034d	f3 0f 11 45 f0	 movss	 DWORD PTR _radius$[ebp], xmm0

; 1176 : 
; 1177 : 		radius = max (radius, 5.0f);

  00352	f3 0f 10 05 00
	00 00 00	 movss	 xmm0, DWORD PTR __real@40a00000
  0035a	f3 0f 11 85 04
	ff ff ff	 movss	 DWORD PTR $T1[ebp], xmm0
  00362	8d 85 04 ff ff
	ff		 lea	 eax, DWORD PTR $T1[ebp]
  00368	50		 push	 eax
  00369	8d 4d f0	 lea	 ecx, DWORD PTR _radius$[ebp]
  0036c	51		 push	 ecx
  0036d	e8 00 00 00 00	 call	 ??$max@M@std@@YGABMABM0@Z ; std::max<float>
  00372	f3 0f 10 00	 movss	 xmm0, DWORD PTR [eax]
  00376	f3 0f 11 45 f0	 movss	 DWORD PTR _radius$[ebp], xmm0

; 1178 : 
; 1179 : 		for (loop = 0; loop < number; loop ++)

  0037b	c7 45 88 00 00
	00 00		 mov	 DWORD PTR _loop$[ebp], 0
  00382	eb 09		 jmp	 SHORT $LN4@create_fac
$LN2@create_fac:
  00384	8b 45 88	 mov	 eax, DWORD PTR _loop$[ebp]
  00387	83 c0 01	 add	 eax, 1
  0038a	89 45 88	 mov	 DWORD PTR _loop$[ebp], eax
$LN4@create_fac:
  0038d	8b 45 88	 mov	 eax, DWORD PTR _loop$[ebp]
  00390	3b 45 14	 cmp	 eax, DWORD PTR _number$[ebp]
  00393	0f 8d 46 05 00
	00		 jge	 $LN3@create_fac

; 1180 : 		{
; 1181 : 
; 1182 : 			formation_position = (number - loop) - 1;

  00399	8b 45 14	 mov	 eax, DWORD PTR _number$[ebp]
  0039c	2b 45 88	 sub	 eax, DWORD PTR _loop$[ebp]
  0039f	83 e8 01	 sub	 eax, 1
  003a2	89 45 8c	 mov	 DWORD PTR _formation_position$[ebp], eax

; 1183 : 
; 1184 : 			//
; 1185 : 			// calculate formation position to suite landing entity
; 1186 : 			//
; 1187 : 
; 1188 : 			if (side == ENTITY_SIDE_BLUE_FORCE)

  003a5	83 7d 18 01	 cmp	 DWORD PTR _side$[ebp], 1
  003a9	75 16		 jne	 SHORT $LN18@create_fac

; 1189 : 			{
; 1190 : 
; 1191 : 				member_type = formation_components->components [loop * 2];

  003ab	8b 45 88	 mov	 eax, DWORD PTR _loop$[ebp]
  003ae	d1 e0		 shl	 eax, 1
  003b0	8b 4d fc	 mov	 ecx, DWORD PTR _formation_components$[ebp]
  003b3	8b 51 10	 mov	 edx, DWORD PTR [ecx+16]
  003b6	8b 04 82	 mov	 eax, DWORD PTR [edx+eax*4]
  003b9	89 85 78 ff ff
	ff		 mov	 DWORD PTR _member_type$[ebp], eax

; 1192 : 			}
; 1193 : 			else

  003bf	eb 15		 jmp	 SHORT $LN19@create_fac
$LN18@create_fac:

; 1194 : 			{
; 1195 : 				
; 1196 : 				member_type = formation_components->components [(loop * 2) + 1];

  003c1	8b 45 88	 mov	 eax, DWORD PTR _loop$[ebp]
  003c4	d1 e0		 shl	 eax, 1
  003c6	8b 4d fc	 mov	 ecx, DWORD PTR _formation_components$[ebp]
  003c9	8b 51 10	 mov	 edx, DWORD PTR [ecx+16]
  003cc	8b 44 82 04	 mov	 eax, DWORD PTR [edx+eax*4+4]
  003d0	89 85 78 ff ff
	ff		 mov	 DWORD PTR _member_type$[ebp], eax
$LN19@create_fac:

; 1197 : 			}
; 1198 : 
; 1199 : 			member = create_mobile_member

  003d6	51		 push	 ecx
  003d7	f3 0f 10 05 00
	00 00 00	 movss	 xmm0, DWORD PTR __real@40000000
  003df	f3 0f 11 04 24	 movss	 DWORD PTR [esp], xmm0
  003e4	8b 45 18	 mov	 eax, DWORD PTR _side$[ebp]
  003e7	50		 push	 eax
  003e8	6a 08		 push	 8
  003ea	8b 4d 8c	 mov	 ecx, DWORD PTR _formation_position$[ebp]
  003ed	51		 push	 ecx
  003ee	8b 95 78 ff ff
	ff		 mov	 edx, DWORD PTR _member_type$[ebp]
  003f4	52		 push	 edx
  003f5	8b 45 1c	 mov	 eax, DWORD PTR _position$[ebp]
  003f8	50		 push	 eax
  003f9	8b 4d 80	 mov	 ecx, DWORD PTR _group$[ebp]
  003fc	51		 push	 ecx
  003fd	8b 55 20	 mov	 edx, DWORD PTR _client_server_create$[ebp]
  00400	52		 push	 edx
  00401	6a ff		 push	 -1
  00403	6b 45 0c 64	 imul	 eax, DWORD PTR _group_type$[ebp], 100
  00407	8b 88 1c 00 00
	00		 mov	 ecx, DWORD PTR ?group_database@@3PAUGROUP_DATA@@A[eax+28]
  0040d	51		 push	 ecx
  0040e	e8 00 00 00 00	 call	 ?create_mobile_member@@YGPAUENTITY@@W4ENTITY_TYPES@@HHPAU1@PAUVEC3D@@HHHW4ENTITY_SIDES@@M@Z ; create_mobile_member
  00413	89 85 7c ff ff
	ff		 mov	 DWORD PTR _member$[ebp], eax

; 1200 : 			(
; 1201 : 				group_database [group_type].default_entity_type,
; 1202 : 				ENTITY_INDEX_DONT_CARE,
; 1203 : 				client_server_create,
; 1204 : 				group,
; 1205 : 				position,
; 1206 : 				member_type,
; 1207 : 				formation_position,
; 1208 : 				OPERATIONAL_STATE_STOPPED,
; 1209 : 				side,
; 1210 : 				AIRCRAFT_UNDERCARRIAGE_DOWN_FLOAT_VALUE
; 1211 : 			);
; 1212 : 
; 1213 : 			get_local_waypoint_simple_formation_position (formation_position, position, formation_components->formation, &pos);

  00419	8d 45 b0	 lea	 eax, DWORD PTR _pos$[ebp]
  0041c	50		 push	 eax
  0041d	8b 4d fc	 mov	 ecx, DWORD PTR _formation_components$[ebp]
  00420	8b 51 04	 mov	 edx, DWORD PTR [ecx+4]
  00423	52		 push	 edx
  00424	8b 45 1c	 mov	 eax, DWORD PTR _position$[ebp]
  00427	50		 push	 eax
  00428	8b 4d 8c	 mov	 ecx, DWORD PTR _formation_position$[ebp]
  0042b	51		 push	 ecx
  0042c	e8 00 00 00 00	 call	 ?get_local_waypoint_simple_formation_position@@YGXHPAUVEC3D@@H0@Z ; get_local_waypoint_simple_formation_position

; 1214 : 
; 1215 : 			bound_position_to_map_area (&pos);

  00431	8d 45 b0	 lea	 eax, DWORD PTR _pos$[ebp]
  00434	50		 push	 eax
  00435	e8 00 00 00 00	 call	 ?bound_position_to_map_area@@YGHPAUVEC3D@@@Z ; bound_position_to_map_area

; 1216 : 
; 1217 : 			//
; 1218 : 			// Spread out into safe radius
; 1219 : 			//
; 1220 : 
; 1221 : 			if (get_local_entity_type (member) == ENTITY_TYPE_ROUTED_VEHICLE)

  0043a	83 bd 7c ff ff
	ff 00		 cmp	 DWORD PTR _member$[ebp], 0
  00441	74 10		 je	 SHORT $LN28@create_fac
  00443	8b 85 7c ff ff
	ff		 mov	 eax, DWORD PTR _member$[ebp]
  00449	8b 08		 mov	 ecx, DWORD PTR [eax]
  0044b	89 8d 00 ff ff
	ff		 mov	 DWORD PTR tv295[ebp], ecx
  00451	eb 20		 jmp	 SHORT $LN29@create_fac
$LN28@create_fac:
  00453	68 c5 04 00 00	 push	 1221			; 000004c5H
  00458	68 00 00 00 00	 push	 OFFSET ??_C@_0EB@JEOGKGCM@c?3?2users?2nhv90?2projects?2eech?2ap@
  0045d	8b 15 00 00 00
	00		 mov	 edx, DWORD PTR ?null_entity_pointer_message@@3PBDB ; null_entity_pointer_message
  00463	52		 push	 edx
  00464	e8 00 00 00 00	 call	 ?process_assert@@YGXPBD0H@Z ; process_assert
  00469	c7 85 00 ff ff
	ff 00 00 00 00	 mov	 DWORD PTR tv295[ebp], 0
$LN29@create_fac:
  00473	83 bd 00 ff ff
	ff 17		 cmp	 DWORD PTR tv295[ebp], 23 ; 00000017H
  0047a	0f 85 9f 00 00
	00		 jne	 $LN21@create_fac

; 1222 : 			{
; 1223 : 		
; 1224 : 				if (formation_radius != 0.0)

  00480	f3 0f 5a 45 f4	 cvtss2sd xmm0, DWORD PTR _formation_radius$[ebp]
  00485	66 0f 2e 05 00
	00 00 00	 ucomisd xmm0, QWORD PTR __real@0000000000000000
  0048d	9f		 lahf
  0048e	f6 c4 44	 test	 ah, 68			; 00000044H
  00491	0f 8b 88 00 00
	00		 jnp	 $LN21@create_fac

; 1225 : 				{
; 1226 : 
; 1227 : 					delta.x = pos.x - position->x;

  00497	8b 45 1c	 mov	 eax, DWORD PTR _position$[ebp]
  0049a	f3 0f 10 45 b0	 movss	 xmm0, DWORD PTR _pos$[ebp]
  0049f	f3 0f 5c 00	 subss	 xmm0, DWORD PTR [eax]
  004a3	f3 0f 11 45 a4	 movss	 DWORD PTR _delta$[ebp], xmm0

; 1228 : 					delta.y = pos.y - position->y;

  004a8	8b 45 1c	 mov	 eax, DWORD PTR _position$[ebp]
  004ab	f3 0f 10 45 b4	 movss	 xmm0, DWORD PTR _pos$[ebp+4]
  004b0	f3 0f 5c 40 04	 subss	 xmm0, DWORD PTR [eax+4]
  004b5	f3 0f 11 45 a8	 movss	 DWORD PTR _delta$[ebp+4], xmm0

; 1229 : 					delta.z = pos.z - position->z;

  004ba	8b 45 1c	 mov	 eax, DWORD PTR _position$[ebp]
  004bd	f3 0f 10 45 b8	 movss	 xmm0, DWORD PTR _pos$[ebp+8]
  004c2	f3 0f 5c 40 08	 subss	 xmm0, DWORD PTR [eax+8]
  004c7	f3 0f 11 45 ac	 movss	 DWORD PTR _delta$[ebp+8], xmm0

; 1230 : 			
; 1231 : 					pos.x = position->x + ((delta.x * radius) / formation_radius);

  004cc	f3 0f 10 45 a4	 movss	 xmm0, DWORD PTR _delta$[ebp]
  004d1	f3 0f 59 45 f0	 mulss	 xmm0, DWORD PTR _radius$[ebp]
  004d6	f3 0f 5e 45 f4	 divss	 xmm0, DWORD PTR _formation_radius$[ebp]
  004db	8b 45 1c	 mov	 eax, DWORD PTR _position$[ebp]
  004de	f3 0f 58 00	 addss	 xmm0, DWORD PTR [eax]
  004e2	f3 0f 11 45 b0	 movss	 DWORD PTR _pos$[ebp], xmm0

; 1232 : 					pos.y = position->y + ((delta.y * radius) / formation_radius);

  004e7	f3 0f 10 45 a8	 movss	 xmm0, DWORD PTR _delta$[ebp+4]
  004ec	f3 0f 59 45 f0	 mulss	 xmm0, DWORD PTR _radius$[ebp]
  004f1	f3 0f 5e 45 f4	 divss	 xmm0, DWORD PTR _formation_radius$[ebp]
  004f6	8b 45 1c	 mov	 eax, DWORD PTR _position$[ebp]
  004f9	f3 0f 58 40 04	 addss	 xmm0, DWORD PTR [eax+4]
  004fe	f3 0f 11 45 b4	 movss	 DWORD PTR _pos$[ebp+4], xmm0

; 1233 : 					pos.z = position->z + ((delta.z * radius) / formation_radius);

  00503	f3 0f 10 45 ac	 movss	 xmm0, DWORD PTR _delta$[ebp+8]
  00508	f3 0f 59 45 f0	 mulss	 xmm0, DWORD PTR _radius$[ebp]
  0050d	f3 0f 5e 45 f4	 divss	 xmm0, DWORD PTR _formation_radius$[ebp]
  00512	8b 45 1c	 mov	 eax, DWORD PTR _position$[ebp]
  00515	f3 0f 58 40 08	 addss	 xmm0, DWORD PTR [eax+8]
  0051a	f3 0f 11 45 b8	 movss	 DWORD PTR _pos$[ebp+8], xmm0
$LN21@create_fac:

; 1234 : 				}
; 1235 : 			}
; 1236 : 
; 1237 : 			fuselage_angle = get_local_entity_float_value (member, FLOAT_TYPE_FUSELAGE_ANGLE);

  0051f	83 bd 7c ff ff
	ff 00		 cmp	 DWORD PTR _member$[ebp], 0
  00526	74 10		 je	 SHORT $LN30@create_fac
  00528	8b 85 7c ff ff
	ff		 mov	 eax, DWORD PTR _member$[ebp]
  0052e	8b 08		 mov	 ecx, DWORD PTR [eax]
  00530	89 8d 00 ff ff
	ff		 mov	 DWORD PTR tv355[ebp], ecx
  00536	eb 27		 jmp	 SHORT $LN31@create_fac
$LN30@create_fac:
  00538	8b 15 00 00 00
	00		 mov	 edx, DWORD PTR ?__LINE__Var@?0??create_faction_members@@YGPAUENTITY@@PAU2@HW4FORMATION_COMPONENT_TYPES@@HW4ENTITY_SIDES@@PAUVEC3D@@HH@Z@4JA
  0053e	81 c2 c0 00 00
	00		 add	 edx, 192		; 000000c0H
  00544	52		 push	 edx
  00545	68 00 00 00 00	 push	 OFFSET ??_C@_0EB@JEOGKGCM@c?3?2users?2nhv90?2projects?2eech?2ap@
  0054a	a1 00 00 00 00	 mov	 eax, DWORD PTR ?null_entity_pointer_message@@3PBDB ; null_entity_pointer_message
  0054f	50		 push	 eax
  00550	e8 00 00 00 00	 call	 ?process_assert@@YGXPBD0H@Z ; process_assert
  00555	c7 85 00 ff ff
	ff 00 00 00 00	 mov	 DWORD PTR tv355[ebp], 0
$LN31@create_fac:
  0055f	b9 01 00 00 00	 mov	 ecx, 1
  00564	85 c9		 test	 ecx, ecx
  00566	74 0c		 je	 SHORT $LN32@create_fac
  00568	c7 85 fc fe ff
	ff 31 00 00 00	 mov	 DWORD PTR tv363[ebp], 49 ; 00000031H
  00572	eb 27		 jmp	 SHORT $LN33@create_fac
$LN32@create_fac:
  00574	8b 15 00 00 00
	00		 mov	 edx, DWORD PTR ?__LINE__Var@?0??create_faction_members@@YGPAUENTITY@@PAU2@HW4FORMATION_COMPONENT_TYPES@@HW4ENTITY_SIDES@@PAUVEC3D@@HH@Z@4JA
  0057a	81 c2 c0 00 00
	00		 add	 edx, 192		; 000000c0H
  00580	52		 push	 edx
  00581	68 00 00 00 00	 push	 OFFSET ??_C@_0EB@JEOGKGCM@c?3?2users?2nhv90?2projects?2eech?2ap@
  00586	a1 00 00 00 00	 mov	 eax, DWORD PTR ?overload_invalid_float_type_message@@3PBDB ; overload_invalid_float_type_message
  0058b	50		 push	 eax
  0058c	e8 00 00 00 00	 call	 ?process_assert@@YGXPBD0H@Z ; process_assert
  00591	c7 85 fc fe ff
	ff 00 00 00 00	 mov	 DWORD PTR tv363[ebp], 0
$LN33@create_fac:
  0059b	6a 31		 push	 49			; 00000031H
  0059d	8b 8d 7c ff ff
	ff		 mov	 ecx, DWORD PTR _member$[ebp]
  005a3	51		 push	 ecx
  005a4	69 95 00 ff ff
	ff bc 02 00 00	 imul	 edx, DWORD PTR tv355[ebp], 700
  005ae	8b 85 fc fe ff
	ff		 mov	 eax, DWORD PTR tv363[ebp]
  005b4	8b 8c 82 00 00
	00 00		 mov	 ecx, DWORD PTR ?fn_get_local_entity_float_value@@3PAY0KP@P6GMPAUENTITY@@W4FLOAT_TYPES@@@ZA[edx+eax*4]
  005bb	ff d1		 call	 ecx
  005bd	d9 5d ec	 fstp	 DWORD PTR _fuselage_angle$[ebp]

; 1238 : 
; 1239 : 			if (place_at_ground_height)

  005c0	83 7d 24 00	 cmp	 DWORD PTR _place_at_ground_height$[ebp], 0
  005c4	0f 84 da 00 00
	00		 je	 $LN22@create_fac

; 1240 : 			{
; 1241 : 	
; 1242 : 				pos.y = get_3d_terrain_elevation_and_face_normal (pos.x, pos.z, &face_normal, NULL);

  005ca	6a 00		 push	 0
  005cc	8d 45 98	 lea	 eax, DWORD PTR _face_normal$[ebp]
  005cf	50		 push	 eax
  005d0	51		 push	 ecx
  005d1	f3 0f 10 45 b8	 movss	 xmm0, DWORD PTR _pos$[ebp+8]
  005d6	f3 0f 11 04 24	 movss	 DWORD PTR [esp], xmm0
  005db	51		 push	 ecx
  005dc	f3 0f 10 45 b0	 movss	 xmm0, DWORD PTR _pos$[ebp]
  005e1	f3 0f 11 04 24	 movss	 DWORD PTR [esp], xmm0
  005e6	e8 00 00 00 00	 call	 ?get_3d_terrain_elevation_and_face_normal@@YGMMMPAUVEC3D@@PAUTERRAIN_3D_POINT_DATA@@@Z ; get_3d_terrain_elevation_and_face_normal
  005eb	d9 5d b4	 fstp	 DWORD PTR _pos$[ebp+4]

; 1243 : 	
; 1244 : 				pos.y += get_local_entity_float_value (member, FLOAT_TYPE_CENTRE_OF_GRAVITY_TO_GROUND_DISTANCE);

  005ee	83 bd 7c ff ff
	ff 00		 cmp	 DWORD PTR _member$[ebp], 0
  005f5	74 10		 je	 SHORT $LN34@create_fac
  005f7	8b 85 7c ff ff
	ff		 mov	 eax, DWORD PTR _member$[ebp]
  005fd	8b 08		 mov	 ecx, DWORD PTR [eax]
  005ff	89 8d 00 ff ff
	ff		 mov	 DWORD PTR tv381[ebp], ecx
  00605	eb 27		 jmp	 SHORT $LN35@create_fac
$LN34@create_fac:
  00607	8b 15 00 00 00
	00		 mov	 edx, DWORD PTR ?__LINE__Var@?0??create_faction_members@@YGPAUENTITY@@PAU2@HW4FORMATION_COMPONENT_TYPES@@HW4ENTITY_SIDES@@PAUVEC3D@@HH@Z@4JA
  0060d	81 c2 c7 00 00
	00		 add	 edx, 199		; 000000c7H
  00613	52		 push	 edx
  00614	68 00 00 00 00	 push	 OFFSET ??_C@_0EB@JEOGKGCM@c?3?2users?2nhv90?2projects?2eech?2ap@
  00619	a1 00 00 00 00	 mov	 eax, DWORD PTR ?null_entity_pointer_message@@3PBDB ; null_entity_pointer_message
  0061e	50		 push	 eax
  0061f	e8 00 00 00 00	 call	 ?process_assert@@YGXPBD0H@Z ; process_assert
  00624	c7 85 00 ff ff
	ff 00 00 00 00	 mov	 DWORD PTR tv381[ebp], 0
$LN35@create_fac:
  0062e	b9 01 00 00 00	 mov	 ecx, 1
  00633	85 c9		 test	 ecx, ecx
  00635	74 0c		 je	 SHORT $LN36@create_fac
  00637	c7 85 fc fe ff
	ff 12 00 00 00	 mov	 DWORD PTR tv389[ebp], 18 ; 00000012H
  00641	eb 27		 jmp	 SHORT $LN37@create_fac
$LN36@create_fac:
  00643	8b 15 00 00 00
	00		 mov	 edx, DWORD PTR ?__LINE__Var@?0??create_faction_members@@YGPAUENTITY@@PAU2@HW4FORMATION_COMPONENT_TYPES@@HW4ENTITY_SIDES@@PAUVEC3D@@HH@Z@4JA
  00649	81 c2 c7 00 00
	00		 add	 edx, 199		; 000000c7H
  0064f	52		 push	 edx
  00650	68 00 00 00 00	 push	 OFFSET ??_C@_0EB@JEOGKGCM@c?3?2users?2nhv90?2projects?2eech?2ap@
  00655	a1 00 00 00 00	 mov	 eax, DWORD PTR ?overload_invalid_float_type_message@@3PBDB ; overload_invalid_float_type_message
  0065a	50		 push	 eax
  0065b	e8 00 00 00 00	 call	 ?process_assert@@YGXPBD0H@Z ; process_assert
  00660	c7 85 fc fe ff
	ff 00 00 00 00	 mov	 DWORD PTR tv389[ebp], 0
$LN37@create_fac:
  0066a	6a 12		 push	 18			; 00000012H
  0066c	8b 8d 7c ff ff
	ff		 mov	 ecx, DWORD PTR _member$[ebp]
  00672	51		 push	 ecx
  00673	69 95 00 ff ff
	ff bc 02 00 00	 imul	 edx, DWORD PTR tv381[ebp], 700
  0067d	8b 85 fc fe ff
	ff		 mov	 eax, DWORD PTR tv389[ebp]
  00683	8b 8c 82 00 00
	00 00		 mov	 ecx, DWORD PTR ?fn_get_local_entity_float_value@@3PAY0KP@P6GMPAUENTITY@@W4FLOAT_TYPES@@@ZA[edx+eax*4]
  0068a	ff d1		 call	 ecx
  0068c	d9 9d f8 fe ff
	ff		 fstp	 DWORD PTR tv629[ebp]
  00692	f3 0f 10 85 f8
	fe ff ff	 movss	 xmm0, DWORD PTR tv629[ebp]
  0069a	f3 0f 58 45 b4	 addss	 xmm0, DWORD PTR _pos$[ebp+4]
  0069f	f3 0f 11 45 b4	 movss	 DWORD PTR _pos$[ebp+4], xmm0
$LN22@create_fac:

; 1245 : 			}
; 1246 : 
; 1247 : 			////////////////////////////////////////
; 1248 : 			//
; 1249 : 			// attitude
; 1250 : 			//
; 1251 : 			////////////////////////////////////////
; 1252 : 
; 1253 : 			if (get_local_entity_type (member) == ENTITY_TYPE_ROUTED_VEHICLE)

  006a4	83 bd 7c ff ff
	ff 00		 cmp	 DWORD PTR _member$[ebp], 0
  006ab	74 10		 je	 SHORT $LN38@create_fac
  006ad	8b 85 7c ff ff
	ff		 mov	 eax, DWORD PTR _member$[ebp]
  006b3	8b 08		 mov	 ecx, DWORD PTR [eax]
  006b5	89 8d 00 ff ff
	ff		 mov	 DWORD PTR tv401[ebp], ecx
  006bb	eb 20		 jmp	 SHORT $LN39@create_fac
$LN38@create_fac:
  006bd	68 e5 04 00 00	 push	 1253			; 000004e5H
  006c2	68 00 00 00 00	 push	 OFFSET ??_C@_0EB@JEOGKGCM@c?3?2users?2nhv90?2projects?2eech?2ap@
  006c7	8b 15 00 00 00
	00		 mov	 edx, DWORD PTR ?null_entity_pointer_message@@3PBDB ; null_entity_pointer_message
  006cd	52		 push	 edx
  006ce	e8 00 00 00 00	 call	 ?process_assert@@YGXPBD0H@Z ; process_assert
  006d3	c7 85 00 ff ff
	ff 00 00 00 00	 mov	 DWORD PTR tv401[ebp], 0
$LN39@create_fac:
  006dd	83 bd 00 ff ff
	ff 17		 cmp	 DWORD PTR tv401[ebp], 23 ; 00000017H
  006e4	75 3c		 jne	 SHORT $LN23@create_fac

; 1254 : 			{
; 1255 : 
; 1256 : 				heading = rad ((get_local_entity_index (member) * get_local_entity_index (member)) % 360); // debug - random heading...

  006e6	8b 85 7c ff ff
	ff		 mov	 eax, DWORD PTR _member$[ebp]
  006ec	2b 05 00 00 00
	00		 sub	 eax, DWORD PTR ?entities@@3PAUENTITY@@A ; entities
  006f2	c1 f8 04	 sar	 eax, 4
  006f5	8b 8d 7c ff ff
	ff		 mov	 ecx, DWORD PTR _member$[ebp]
  006fb	2b 0d 00 00 00
	00		 sub	 ecx, DWORD PTR ?entities@@3PAUENTITY@@A ; entities
  00701	c1 f9 04	 sar	 ecx, 4
  00704	0f af c1	 imul	 eax, ecx
  00707	99		 cdq
  00708	b9 68 01 00 00	 mov	 ecx, 360		; 00000168H
  0070d	f7 f9		 idiv	 ecx
  0070f	f3 0f 2a c2	 cvtsi2ss xmm0, edx
  00713	f3 0f 59 05 00
	00 00 00	 mulss	 xmm0, DWORD PTR __real@3c8efa35
  0071b	f3 0f 11 45 e8	 movss	 DWORD PTR _heading$[ebp], xmm0

; 1257 : 			}
; 1258 : 			else

  00720	eb 08		 jmp	 SHORT $LN24@create_fac
$LN23@create_fac:

; 1259 : 			{
; 1260 : 				heading = 0.0;

  00722	0f 57 c0	 xorps	 xmm0, xmm0
  00725	f3 0f 11 45 e8	 movss	 DWORD PTR _heading$[ebp], xmm0
$LN24@create_fac:

; 1261 : 			}
; 1262 : 
; 1263 : 			get_3d_transformation_matrix_from_face_normal_and_heading (attitude, &face_normal, heading);

  0072a	51		 push	 ecx
  0072b	f3 0f 10 45 e8	 movss	 xmm0, DWORD PTR _heading$[ebp]
  00730	f3 0f 11 04 24	 movss	 DWORD PTR [esp], xmm0
  00735	8d 45 98	 lea	 eax, DWORD PTR _face_normal$[ebp]
  00738	50		 push	 eax
  00739	8d 4d bc	 lea	 ecx, DWORD PTR _attitude$[ebp]
  0073c	51		 push	 ecx
  0073d	e8 00 00 00 00	 call	 ?get_3d_transformation_matrix_from_face_normal_and_heading@@YGXQAY02MPBUVEC3D@@M@Z ; get_3d_transformation_matrix_from_face_normal_and_heading

; 1264 : 
; 1265 : 			pitch = get_pitch_from_attitude_matrix (attitude);

  00742	b8 0c 00 00 00	 mov	 eax, 12			; 0000000cH
  00747	d1 e0		 shl	 eax, 1
  00749	8d 4c 05 bc	 lea	 ecx, DWORD PTR _attitude$[ebp+eax]
  0074d	ba 04 00 00 00	 mov	 edx, 4
  00752	c1 e2 00	 shl	 edx, 0
  00755	51		 push	 ecx
  00756	f3 0f 10 04 11	 movss	 xmm0, DWORD PTR [ecx+edx]
  0075b	f3 0f 11 04 24	 movss	 DWORD PTR [esp], xmm0
  00760	e8 00 00 00 00	 call	 ?asin@@YGMM@Z		; asin
  00765	d9 5d e4	 fstp	 DWORD PTR _pitch$[ebp]

; 1266 : 
; 1267 : 			pitch += fuselage_angle;

  00768	f3 0f 10 45 e4	 movss	 xmm0, DWORD PTR _pitch$[ebp]
  0076d	f3 0f 58 45 ec	 addss	 xmm0, DWORD PTR _fuselage_angle$[ebp]
  00772	f3 0f 11 45 e4	 movss	 DWORD PTR _pitch$[ebp], xmm0

; 1268 : 
; 1269 : 			roll = get_roll_from_attitude_matrix (attitude);

  00777	b8 0c 00 00 00	 mov	 eax, 12			; 0000000cH
  0077c	c1 e0 00	 shl	 eax, 0
  0077f	8d 4c 05 bc	 lea	 ecx, DWORD PTR _attitude$[ebp+eax]
  00783	ba 04 00 00 00	 mov	 edx, 4
  00788	c1 e2 00	 shl	 edx, 0
  0078b	51		 push	 ecx
  0078c	f3 0f 10 04 11	 movss	 xmm0, DWORD PTR [ecx+edx]
  00791	f3 0f 11 04 24	 movss	 DWORD PTR [esp], xmm0
  00796	b8 0c 00 00 00	 mov	 eax, 12			; 0000000cH
  0079b	6b c8 00	 imul	 ecx, eax, 0
  0079e	8d 54 0d bc	 lea	 edx, DWORD PTR _attitude$[ebp+ecx]
  007a2	b8 04 00 00 00	 mov	 eax, 4
  007a7	c1 e0 00	 shl	 eax, 0
  007aa	f3 0f 10 04 02	 movss	 xmm0, DWORD PTR [edx+eax]
  007af	0f 57 05 00 00
	00 00		 xorps	 xmm0, DWORD PTR __xmm@80000000800000008000000080000000
  007b6	51		 push	 ecx
  007b7	f3 0f 11 04 24	 movss	 DWORD PTR [esp], xmm0
  007bc	e8 00 00 00 00	 call	 ?atan2@@YGMMM@Z		; atan2
  007c1	d9 5d e0	 fstp	 DWORD PTR _roll$[ebp]

; 1270 : 
; 1271 : 			set_local_entity_attitude_angles (member, heading, pitch, roll);

  007c4	83 bd 7c ff ff
	ff 00		 cmp	 DWORD PTR _member$[ebp], 0
  007cb	74 10		 je	 SHORT $LN40@create_fac
  007cd	8b 85 7c ff ff
	ff		 mov	 eax, DWORD PTR _member$[ebp]
  007d3	8b 08		 mov	 ecx, DWORD PTR [eax]
  007d5	89 8d 00 ff ff
	ff		 mov	 DWORD PTR tv439[ebp], ecx
  007db	eb 27		 jmp	 SHORT $LN41@create_fac
$LN40@create_fac:
  007dd	8b 15 00 00 00
	00		 mov	 edx, DWORD PTR ?__LINE__Var@?0??create_faction_members@@YGPAUENTITY@@PAU2@HW4FORMATION_COMPONENT_TYPES@@HW4ENTITY_SIDES@@PAUVEC3D@@HH@Z@4JA
  007e3	81 c2 e2 00 00
	00		 add	 edx, 226		; 000000e2H
  007e9	52		 push	 edx
  007ea	68 00 00 00 00	 push	 OFFSET ??_C@_0EB@JEOGKGCM@c?3?2users?2nhv90?2projects?2eech?2ap@
  007ef	a1 00 00 00 00	 mov	 eax, DWORD PTR ?null_entity_pointer_message@@3PBDB ; null_entity_pointer_message
  007f4	50		 push	 eax
  007f5	e8 00 00 00 00	 call	 ?process_assert@@YGXPBD0H@Z ; process_assert
  007fa	c7 85 00 ff ff
	ff 00 00 00 00	 mov	 DWORD PTR tv439[ebp], 0
$LN41@create_fac:
  00804	51		 push	 ecx
  00805	f3 0f 10 45 e0	 movss	 xmm0, DWORD PTR _roll$[ebp]
  0080a	f3 0f 11 04 24	 movss	 DWORD PTR [esp], xmm0
  0080f	51		 push	 ecx
  00810	f3 0f 10 45 e4	 movss	 xmm0, DWORD PTR _pitch$[ebp]
  00815	f3 0f 11 04 24	 movss	 DWORD PTR [esp], xmm0
  0081a	51		 push	 ecx
  0081b	f3 0f 10 45 e8	 movss	 xmm0, DWORD PTR _heading$[ebp]
  00820	f3 0f 11 04 24	 movss	 DWORD PTR [esp], xmm0
  00825	8b 8d 7c ff ff
	ff		 mov	 ecx, DWORD PTR _member$[ebp]
  0082b	51		 push	 ecx
  0082c	8b 95 00 ff ff
	ff		 mov	 edx, DWORD PTR tv439[ebp]
  00832	8b 04 95 00 00
	00 00		 mov	 eax, DWORD PTR ?fn_set_local_entity_attitude_angles@@3PAP6GXPAUENTITY@@MMM@ZA[edx*4]
  00839	ff d0		 call	 eax

; 1272 : 
; 1273 : 			//
; 1274 : 			// set position
; 1275 : 			//
; 1276 : 
; 1277 : 			set_local_entity_vec3d (member, VEC3D_TYPE_POSITION, &pos);

  0083b	83 bd 7c ff ff
	ff 00		 cmp	 DWORD PTR _member$[ebp], 0
  00842	74 10		 je	 SHORT $LN42@create_fac
  00844	8b 85 7c ff ff
	ff		 mov	 eax, DWORD PTR _member$[ebp]
  0084a	8b 08		 mov	 ecx, DWORD PTR [eax]
  0084c	89 8d 00 ff ff
	ff		 mov	 DWORD PTR tv452[ebp], ecx
  00852	eb 27		 jmp	 SHORT $LN43@create_fac
$LN42@create_fac:
  00854	8b 15 00 00 00
	00		 mov	 edx, DWORD PTR ?__LINE__Var@?0??create_faction_members@@YGPAUENTITY@@PAU2@HW4FORMATION_COMPONENT_TYPES@@HW4ENTITY_SIDES@@PAUVEC3D@@HH@Z@4JA
  0085a	81 c2 e8 00 00
	00		 add	 edx, 232		; 000000e8H
  00860	52		 push	 edx
  00861	68 00 00 00 00	 push	 OFFSET ??_C@_0EB@JEOGKGCM@c?3?2users?2nhv90?2projects?2eech?2ap@
  00866	a1 00 00 00 00	 mov	 eax, DWORD PTR ?null_entity_pointer_message@@3PBDB ; null_entity_pointer_message
  0086b	50		 push	 eax
  0086c	e8 00 00 00 00	 call	 ?process_assert@@YGXPBD0H@Z ; process_assert
  00871	c7 85 00 ff ff
	ff 00 00 00 00	 mov	 DWORD PTR tv452[ebp], 0
$LN43@create_fac:
  0087b	b9 01 00 00 00	 mov	 ecx, 1
  00880	85 c9		 test	 ecx, ecx
  00882	74 0c		 je	 SHORT $LN44@create_fac
  00884	c7 85 fc fe ff
	ff 08 00 00 00	 mov	 DWORD PTR tv460[ebp], 8
  0088e	eb 27		 jmp	 SHORT $LN45@create_fac
$LN44@create_fac:
  00890	8b 15 00 00 00
	00		 mov	 edx, DWORD PTR ?__LINE__Var@?0??create_faction_members@@YGPAUENTITY@@PAU2@HW4FORMATION_COMPONENT_TYPES@@HW4ENTITY_SIDES@@PAUVEC3D@@HH@Z@4JA
  00896	81 c2 e8 00 00
	00		 add	 edx, 232		; 000000e8H
  0089c	52		 push	 edx
  0089d	68 00 00 00 00	 push	 OFFSET ??_C@_0EB@JEOGKGCM@c?3?2users?2nhv90?2projects?2eech?2ap@
  008a2	a1 00 00 00 00	 mov	 eax, DWORD PTR ?overload_invalid_vec3d_type_message@@3PBDB ; overload_invalid_vec3d_type_message
  008a7	50		 push	 eax
  008a8	e8 00 00 00 00	 call	 ?process_assert@@YGXPBD0H@Z ; process_assert
  008ad	c7 85 fc fe ff
	ff 00 00 00 00	 mov	 DWORD PTR tv460[ebp], 0
$LN45@create_fac:
  008b7	8d 4d b0	 lea	 ecx, DWORD PTR _pos$[ebp]
  008ba	51		 push	 ecx
  008bb	6a 08		 push	 8
  008bd	8b 95 7c ff ff
	ff		 mov	 edx, DWORD PTR _member$[ebp]
  008c3	52		 push	 edx
  008c4	6b 85 00 ff ff
	ff 60		 imul	 eax, DWORD PTR tv452[ebp], 96
  008cb	8b 8d fc fe ff
	ff		 mov	 ecx, DWORD PTR tv460[ebp]
  008d1	8b 94 88 00 00
	00 00		 mov	 edx, DWORD PTR ?fn_set_local_entity_vec3d@@3PAY0BI@P6GXPAUENTITY@@W4VEC3D_TYPES@@PAUVEC3D@@@ZA[eax+ecx*4]
  008d8	ff d2		 call	 edx

; 1278 : 
; 1279 : 			#if DEBUG_MODULE
; 1280 : 
; 1281 : 			debug_log ("FACTION: create members type %d, sub type %d, number %d at %f, %f, %f, in formation %s", member_type, group_type, number, position->x, position->y, position->z, get_formation_name (formation));
; 1282 : 
; 1283 : 			#endif
; 1284 : 		}

  008da	e9 a5 fa ff ff	 jmp	 $LN2@create_fac
$LN3@create_fac:

; 1285 : 
; 1286 : 		//
; 1287 : 		// Assign each member a unique ID number
; 1288 : 		//
; 1289 : 
; 1290 : 		set_group_member_numbers (group);

  008df	8b 45 80	 mov	 eax, DWORD PTR _group$[ebp]
  008e2	50		 push	 eax
  008e3	e8 00 00 00 00	 call	 ?set_group_member_numbers@@YGXPAUENTITY@@@Z ; set_group_member_numbers

; 1291 : 
; 1292 : 		return group;

  008e8	8b 45 80	 mov	 eax, DWORD PTR _group$[ebp]
  008eb	eb 02		 jmp	 SHORT $LN1@create_fac
$LN12@create_fac:

; 1293 : 	}
; 1294 : 
; 1295 : 	return NULL;

  008ed	33 c0		 xor	 eax, eax
$LN1@create_fac:

; 1296 : }

  008ef	5f		 pop	 edi
  008f0	5e		 pop	 esi
  008f1	5b		 pop	 ebx
  008f2	8b e5		 mov	 esp, ebp
  008f4	5d		 pop	 ebp
  008f5	c2 20 00	 ret	 32			; 00000020H
?create_faction_members@@YGPAUENTITY@@PAU1@HW4FORMATION_COMPONENT_TYPES@@HW4ENTITY_SIDES@@PAUVEC3D@@HH@Z ENDP ; create_faction_members
_TEXT	ENDS
; Function compile flags: /Odtp /ZI
; File c:\users\nhv90\projects\eech\aphavoc\source\ai\faction\faction.c
;	COMDAT ?destroy_campaign@@YGXXZ
_TEXT	SEGMENT
?destroy_campaign@@YGXXZ PROC				; destroy_campaign, COMDAT

; 166  : {

  00000	55		 push	 ebp
  00001	8b ec		 mov	 ebp, esp
  00003	83 ec 40	 sub	 esp, 64			; 00000040H
  00006	53		 push	 ebx
  00007	56		 push	 esi
  00008	57		 push	 edi

; 167  : 
; 168  :    #if DEBUG_MODULE
; 169  : 
; 170  :    debug_log ("FACTION: deinitialise faction");
; 171  : 
; 172  :    #endif
; 173  : 	
; 174  : 	if (campaign_population_filename)

  00009	83 3d 00 00 00
	00 00		 cmp	 DWORD PTR ?campaign_population_filename@@3PADA, 0 ; campaign_population_filename
  00010	74 0b		 je	 SHORT $LN2@destroy_ca

; 175  : 	{
; 176  : 
; 177  : 		free_mem (campaign_population_filename);

  00012	a1 00 00 00 00	 mov	 eax, DWORD PTR ?campaign_population_filename@@3PADA ; campaign_population_filename
  00017	50		 push	 eax
  00018	e8 00 00 00 00	 call	 ?free_mem@@YGXPAX@Z	; free_mem
$LN2@destroy_ca:

; 178  : 	}
; 179  : 
; 180  : 	campaign_population_filename = NULL;

  0001d	c7 05 00 00 00
	00 00 00 00 00	 mov	 DWORD PTR ?campaign_population_filename@@3PADA, 0 ; campaign_population_filename

; 181  : 	
; 182  : 	if (population_placement_filename)

  00027	83 3d 00 00 00
	00 00		 cmp	 DWORD PTR ?population_placement_filename@@3PADA, 0 ; population_placement_filename
  0002e	74 0b		 je	 SHORT $LN3@destroy_ca

; 183  : 	{
; 184  : 
; 185  : 		free_mem (population_placement_filename);

  00030	a1 00 00 00 00	 mov	 eax, DWORD PTR ?population_placement_filename@@3PADA ; population_placement_filename
  00035	50		 push	 eax
  00036	e8 00 00 00 00	 call	 ?free_mem@@YGXPAX@Z	; free_mem
$LN3@destroy_ca:

; 186  : 	}
; 187  : 
; 188  : 	population_placement_filename = NULL;

  0003b	c7 05 00 00 00
	00 00 00 00 00	 mov	 DWORD PTR ?population_placement_filename@@3PADA, 0 ; population_placement_filename

; 189  : 	
; 190  : 	if (side_data_filename)

  00045	83 3d 00 00 00
	00 00		 cmp	 DWORD PTR ?side_data_filename@@3PADA, 0 ; side_data_filename
  0004c	74 0b		 je	 SHORT $LN4@destroy_ca

; 191  : 	{
; 192  : 
; 193  : 		free_mem (side_data_filename);

  0004e	a1 00 00 00 00	 mov	 eax, DWORD PTR ?side_data_filename@@3PADA ; side_data_filename
  00053	50		 push	 eax
  00054	e8 00 00 00 00	 call	 ?free_mem@@YGXPAX@Z	; free_mem
$LN4@destroy_ca:

; 194  : 	}
; 195  : 
; 196  : 	side_data_filename = NULL;

  00059	c7 05 00 00 00
	00 00 00 00 00	 mov	 DWORD PTR ?side_data_filename@@3PADA, 0 ; side_data_filename

; 197  : 
; 198  : 	initialise_route_data ();

  00063	e8 00 00 00 00	 call	 ?initialise_route_data@@YGXXZ ; initialise_route_data

; 199  : 
; 200  : 	deinitialise_division_database ();

  00068	e8 00 00 00 00	 call	 ?deinitialise_division_database@@YGXXZ ; deinitialise_division_database

; 201  : 
; 202  : }

  0006d	5f		 pop	 edi
  0006e	5e		 pop	 esi
  0006f	5b		 pop	 ebx
  00070	8b e5		 mov	 esp, ebp
  00072	5d		 pop	 ebp
  00073	c3		 ret	 0
?destroy_campaign@@YGXXZ ENDP				; destroy_campaign
_TEXT	ENDS
; Function compile flags: /Odtp /ZI
; File c:\users\nhv90\projects\eech\aphavoc\source\ai\faction\faction.c
;	COMDAT ?clear_factions@@YGXXZ
_TEXT	SEGMENT
tv134 = -76						; size = 4
tv79 = -76						; size = 4
tv94 = -72						; size = 4
tv71 = -72						; size = 4
_this_force$ = -4					; size = 4
?clear_factions@@YGXXZ PROC				; clear_factions, COMDAT

; 209  : {

  00000	55		 push	 ebp
  00001	8b ec		 mov	 ebp, esp
  00003	83 ec 4c	 sub	 esp, 76			; 0000004cH
  00006	53		 push	 ebx
  00007	56		 push	 esi
  00008	57		 push	 edi

; 210  : 
; 211  :    entity
; 212  :       *this_force;
; 213  : 
; 214  :    if (get_session_entity ())

  00009	83 3d 00 00 00
	00 00		 cmp	 DWORD PTR ?session_entity@@3PAUENTITY@@A, 0 ; session_entity
  00010	0f 84 22 01 00
	00		 je	 $LN1@clear_fact

; 215  :    {
; 216  : 
; 217  :       this_force = get_local_entity_first_child (get_session_entity (), LIST_TYPE_FORCE);

  00016	83 3d 00 00 00
	00 00		 cmp	 DWORD PTR ?session_entity@@3PAUENTITY@@A, 0 ; session_entity
  0001d	74 0c		 je	 SHORT $LN6@clear_fact
  0001f	a1 00 00 00 00	 mov	 eax, DWORD PTR ?session_entity@@3PAUENTITY@@A ; session_entity
  00024	8b 08		 mov	 ecx, DWORD PTR [eax]
  00026	89 4d b8	 mov	 DWORD PTR tv71[ebp], ecx
  00029	eb 21		 jmp	 SHORT $LN7@clear_fact
$LN6@clear_fact:
  0002b	8b 15 00 00 00
	00		 mov	 edx, DWORD PTR ?__LINE__Var@?0??clear_factions@@YGXXZ@4JA
  00031	83 c2 08	 add	 edx, 8
  00034	52		 push	 edx
  00035	68 00 00 00 00	 push	 OFFSET ??_C@_0EB@JEOGKGCM@c?3?2users?2nhv90?2projects?2eech?2ap@
  0003a	a1 00 00 00 00	 mov	 eax, DWORD PTR ?null_entity_pointer_message@@3PBDB ; null_entity_pointer_message
  0003f	50		 push	 eax
  00040	e8 00 00 00 00	 call	 ?process_assert@@YGXPBD0H@Z ; process_assert
  00045	c7 45 b8 00 00
	00 00		 mov	 DWORD PTR tv71[ebp], 0
$LN7@clear_fact:
  0004c	b9 01 00 00 00	 mov	 ecx, 1
  00051	85 c9		 test	 ecx, ecx
  00053	74 09		 je	 SHORT $LN8@clear_fact
  00055	c7 45 b4 0e 00
	00 00		 mov	 DWORD PTR tv79[ebp], 14	; 0000000eH
  0005c	eb 21		 jmp	 SHORT $LN9@clear_fact
$LN8@clear_fact:
  0005e	8b 15 00 00 00
	00		 mov	 edx, DWORD PTR ?__LINE__Var@?0??clear_factions@@YGXXZ@4JA
  00064	83 c2 08	 add	 edx, 8
  00067	52		 push	 edx
  00068	68 00 00 00 00	 push	 OFFSET ??_C@_0EB@JEOGKGCM@c?3?2users?2nhv90?2projects?2eech?2ap@
  0006d	a1 00 00 00 00	 mov	 eax, DWORD PTR ?overload_invalid_list_type_message@@3PBDB ; overload_invalid_list_type_message
  00072	50		 push	 eax
  00073	e8 00 00 00 00	 call	 ?process_assert@@YGXPBD0H@Z ; process_assert
  00078	c7 45 b4 00 00
	00 00		 mov	 DWORD PTR tv79[ebp], 0
$LN9@clear_fact:
  0007f	6a 0e		 push	 14			; 0000000eH
  00081	8b 0d 00 00 00
	00		 mov	 ecx, DWORD PTR ?session_entity@@3PAUENTITY@@A ; session_entity
  00087	51		 push	 ecx
  00088	69 55 b8 b4 00
	00 00		 imul	 edx, DWORD PTR tv71[ebp], 180
  0008f	8b 45 b4	 mov	 eax, DWORD PTR tv79[ebp]
  00092	8b 8c 82 00 00
	00 00		 mov	 ecx, DWORD PTR ?fn_get_local_entity_first_child@@3PAY0CN@P6GPAUENTITY@@PAU1@W4LIST_TYPES@@@ZA[edx+eax*4]
  00099	ff d1		 call	 ecx
  0009b	89 45 fc	 mov	 DWORD PTR _this_force$[ebp], eax
$LN2@clear_fact:

; 218  : 
; 219  :       while (this_force)

  0009e	83 7d fc 00	 cmp	 DWORD PTR _this_force$[ebp], 0
  000a2	0f 84 90 00 00
	00		 je	 $LN1@clear_fact

; 220  :       {
; 221  : 
; 222  :          unlink_local_entity_children (this_force, LIST_TYPE_KEYSITE_FORCE);

  000a8	6a 15		 push	 21			; 00000015H
  000aa	8b 45 fc	 mov	 eax, DWORD PTR _this_force$[ebp]
  000ad	50		 push	 eax
  000ae	e8 00 00 00 00	 call	 ?unlink_local_entity_children@@YGXPAUENTITY@@W4LIST_TYPES@@@Z ; unlink_local_entity_children

; 223  : 
; 224  :          this_force = get_local_entity_child_succ (this_force, LIST_TYPE_FORCE);

  000b3	83 7d fc 00	 cmp	 DWORD PTR _this_force$[ebp], 0
  000b7	74 0a		 je	 SHORT $LN10@clear_fact
  000b9	8b 45 fc	 mov	 eax, DWORD PTR _this_force$[ebp]
  000bc	8b 08		 mov	 ecx, DWORD PTR [eax]
  000be	89 4d b8	 mov	 DWORD PTR tv94[ebp], ecx
  000c1	eb 21		 jmp	 SHORT $LN11@clear_fact
$LN10@clear_fact:
  000c3	8b 15 00 00 00
	00		 mov	 edx, DWORD PTR ?__LINE__Var@?0??clear_factions@@YGXXZ@4JA
  000c9	83 c2 0f	 add	 edx, 15			; 0000000fH
  000cc	52		 push	 edx
  000cd	68 00 00 00 00	 push	 OFFSET ??_C@_0EB@JEOGKGCM@c?3?2users?2nhv90?2projects?2eech?2ap@
  000d2	a1 00 00 00 00	 mov	 eax, DWORD PTR ?null_entity_pointer_message@@3PBDB ; null_entity_pointer_message
  000d7	50		 push	 eax
  000d8	e8 00 00 00 00	 call	 ?process_assert@@YGXPBD0H@Z ; process_assert
  000dd	c7 45 b8 00 00
	00 00		 mov	 DWORD PTR tv94[ebp], 0
$LN11@clear_fact:
  000e4	b9 01 00 00 00	 mov	 ecx, 1
  000e9	85 c9		 test	 ecx, ecx
  000eb	74 09		 je	 SHORT $LN12@clear_fact
  000ed	c7 45 b4 0e 00
	00 00		 mov	 DWORD PTR tv134[ebp], 14 ; 0000000eH
  000f4	eb 21		 jmp	 SHORT $LN13@clear_fact
$LN12@clear_fact:
  000f6	8b 15 00 00 00
	00		 mov	 edx, DWORD PTR ?__LINE__Var@?0??clear_factions@@YGXXZ@4JA
  000fc	83 c2 0f	 add	 edx, 15			; 0000000fH
  000ff	52		 push	 edx
  00100	68 00 00 00 00	 push	 OFFSET ??_C@_0EB@JEOGKGCM@c?3?2users?2nhv90?2projects?2eech?2ap@
  00105	a1 00 00 00 00	 mov	 eax, DWORD PTR ?overload_invalid_list_type_message@@3PBDB ; overload_invalid_list_type_message
  0010a	50		 push	 eax
  0010b	e8 00 00 00 00	 call	 ?process_assert@@YGXPBD0H@Z ; process_assert
  00110	c7 45 b4 00 00
	00 00		 mov	 DWORD PTR tv134[ebp], 0
$LN13@clear_fact:
  00117	6a 0e		 push	 14			; 0000000eH
  00119	8b 4d fc	 mov	 ecx, DWORD PTR _this_force$[ebp]
  0011c	51		 push	 ecx
  0011d	69 55 b8 b4 00
	00 00		 imul	 edx, DWORD PTR tv94[ebp], 180
  00124	8b 45 b4	 mov	 eax, DWORD PTR tv134[ebp]
  00127	8b 8c 82 00 00
	00 00		 mov	 ecx, DWORD PTR ?fn_get_local_entity_child_succ@@3PAY0CN@P6GPAUENTITY@@PAU1@W4LIST_TYPES@@@ZA[edx+eax*4]
  0012e	ff d1		 call	 ecx
  00130	89 45 fc	 mov	 DWORD PTR _this_force$[ebp], eax

; 225  :       }

  00133	e9 66 ff ff ff	 jmp	 $LN2@clear_fact
$LN1@clear_fact:

; 226  :    }
; 227  : }

  00138	5f		 pop	 edi
  00139	5e		 pop	 esi
  0013a	5b		 pop	 ebx
  0013b	8b e5		 mov	 esp, ebp
  0013d	5d		 pop	 ebp
  0013e	c3		 ret	 0
?clear_factions@@YGXXZ ENDP				; clear_factions
_TEXT	ENDS
; Function compile flags: /Odtp /ZI
; File c:\users\nhv90\projects\eech\aphavoc\source\ai\faction\faction.c
;	COMDAT ?create_campaign@@YGXPAUSESSION_LIST_DATA_TYPE@@@Z
_TEXT	SEGMENT
_offset$ = -260						; size = 4
_filename$ = -256					; size = 256
_session$ = 8						; size = 4
?create_campaign@@YGXPAUSESSION_LIST_DATA_TYPE@@@Z PROC	; create_campaign, COMDAT

; 112  : {

  00000	55		 push	 ebp
  00001	8b ec		 mov	 ebp, esp
  00003	81 ec 44 01 00
	00		 sub	 esp, 324		; 00000144H
  00009	53		 push	 ebx
  0000a	56		 push	 esi
  0000b	57		 push	 edi

; 113  : 
; 114  : 	char
; 115  : 		filename [256];
; 116  : 
; 117  : 	int
; 118  : 		offset;
; 119  : 
; 120  :    disable_entity_comms_messages ();

  0000c	e8 00 00 00 00	 call	 ?disable_entity_comms_messages@@YGXXZ ; disable_entity_comms_messages

; 121  : 
; 122  :    ASSERT (!get_session_entity ());

  00011	83 3d 00 00 00
	00 00		 cmp	 DWORD PTR ?session_entity@@3PAUENTITY@@A, 0 ; session_entity
  00018	74 18		 je	 SHORT $LN2@create_cam
  0001a	a1 00 00 00 00	 mov	 eax, DWORD PTR ?__LINE__Var@?0??create_campaign@@YGXPAUSESSION_LIST_DATA_TYPE@@@Z@4JA
  0001f	83 c0 0a	 add	 eax, 10			; 0000000aH
  00022	50		 push	 eax
  00023	68 00 00 00 00	 push	 OFFSET ??_C@_0EB@JEOGKGCM@c?3?2users?2nhv90?2projects?2eech?2ap@
  00028	68 00 00 00 00	 push	 OFFSET ??_C@_0BH@GDGOJOI@?$CBget_session_entity?5?$CI?$CJ@
  0002d	e8 00 00 00 00	 call	 ?process_assert@@YGXPBD0H@Z ; process_assert
$LN2@create_cam:

; 123  : 
; 124  :    ASSERT (get_comms_model () == COMMS_MODEL_SERVER);

  00032	83 3d 00 00 00
	00 00		 cmp	 DWORD PTR ?system_comms_model@@3W4COMMS_MODEL_TYPES@@A, 0 ; system_comms_model
  00039	74 18		 je	 SHORT $LN3@create_cam
  0003b	a1 00 00 00 00	 mov	 eax, DWORD PTR ?__LINE__Var@?0??create_campaign@@YGXPAUSESSION_LIST_DATA_TYPE@@@Z@4JA
  00040	83 c0 0c	 add	 eax, 12			; 0000000cH
  00043	50		 push	 eax
  00044	68 00 00 00 00	 push	 OFFSET ??_C@_0EB@JEOGKGCM@c?3?2users?2nhv90?2projects?2eech?2ap@
  00049	68 00 00 00 00	 push	 OFFSET ??_C@_0CJ@DMBLBJBK@get_comms_model?5?$CI?$CJ?5?$DN?$DN?5COMMS_MOD@
  0004e	e8 00 00 00 00	 call	 ?process_assert@@YGXPBD0H@Z ; process_assert
$LN3@create_cam:

; 125  : 
; 126  :    #if DEBUG_MODULE
; 127  : 
; 128  :    debug_log ("FACTION: initialise faction");
; 129  : 
; 130  :    #endif
; 131  : 
; 132  : 	initialise_division_database ();

  00053	e8 00 00 00 00	 call	 ?initialise_division_database@@YGXXZ ; initialise_division_database

; 133  : 
; 134  : 	initialise_parser ();

  00058	e8 00 00 00 00	 call	 ?initialise_parser@@YGXXZ ; initialise_parser

; 135  : 
; 136  :    //
; 137  :    // load campaign description
; 138  :    //
; 139  : 
; 140  : 	offset = 0;

  0005d	c7 85 fc fe ff
	ff 00 00 00 00	 mov	 DWORD PTR _offset$[ebp], 0

; 141  : 
; 142  :    //load_campaign_file (session);
; 143  : 
; 144  : 	sprintf (filename, "%s\\%s\\%s", session->data_path, session->campaign_directory, session->campaign_filename);

  00067	8b 45 08	 mov	 eax, DWORD PTR _session$[ebp]
  0006a	05 5c 01 00 00	 add	 eax, 348		; 0000015cH
  0006f	50		 push	 eax
  00070	8b 4d 08	 mov	 ecx, DWORD PTR _session$[ebp]
  00073	81 c1 1c 01 00
	00		 add	 ecx, 284		; 0000011cH
  00079	51		 push	 ecx
  0007a	8b 55 08	 mov	 edx, DWORD PTR _session$[ebp]
  0007d	83 c2 1c	 add	 edx, 28			; 0000001cH
  00080	52		 push	 edx
  00081	68 00 00 00 00	 push	 OFFSET ??_C@_08EFGGCJLD@?$CFs?2?$CFs?2?$CFs@
  00086	8d 85 00 ff ff
	ff		 lea	 eax, DWORD PTR _filename$[ebp]
  0008c	50		 push	 eax
  0008d	e8 00 00 00 00	 call	 _sprintf
  00092	83 c4 14	 add	 esp, 20			; 00000014H

; 145  : 
; 146  : 	parser_campaign_file (filename, &offset);

  00095	8d 85 fc fe ff
	ff		 lea	 eax, DWORD PTR _offset$[ebp]
  0009b	50		 push	 eax
  0009c	8d 8d 00 ff ff
	ff		 lea	 ecx, DWORD PTR _filename$[ebp]
  000a2	51		 push	 ecx
  000a3	e8 00 00 00 00	 call	 ?parser_campaign_file@@YGHPBDPAH@Z ; parser_campaign_file

; 147  : 
; 148  : 	ASSERT (get_session_entity ());

  000a8	83 3d 00 00 00
	00 00		 cmp	 DWORD PTR ?session_entity@@3PAUENTITY@@A, 0 ; session_entity
  000af	75 18		 jne	 SHORT $LN4@create_cam
  000b1	a1 00 00 00 00	 mov	 eax, DWORD PTR ?__LINE__Var@?0??create_campaign@@YGXPAUSESSION_LIST_DATA_TYPE@@@Z@4JA
  000b6	83 c0 24	 add	 eax, 36			; 00000024H
  000b9	50		 push	 eax
  000ba	68 00 00 00 00	 push	 OFFSET ??_C@_0EB@JEOGKGCM@c?3?2users?2nhv90?2projects?2eech?2ap@
  000bf	68 00 00 00 00	 push	 OFFSET ??_C@_0BG@EFCJJKAA@get_session_entity?5?$CI?$CJ@
  000c4	e8 00 00 00 00	 call	 ?process_assert@@YGXPBD0H@Z ; process_assert
$LN4@create_cam:

; 149  : 
; 150  : 	attach_session_sound_effects (get_session_entity ());

  000c9	a1 00 00 00 00	 mov	 eax, DWORD PTR ?session_entity@@3PAUENTITY@@A ; session_entity
  000ce	50		 push	 eax
  000cf	e8 00 00 00 00	 call	 ?attach_session_sound_effects@@YGXPAUENTITY@@@Z ; attach_session_sound_effects

; 151  : 
; 152  :    enable_entity_comms_messages ();

  000d4	e8 00 00 00 00	 call	 ?enable_entity_comms_messages@@YGXXZ ; enable_entity_comms_messages

; 153  :    
; 154  : //VJ 060217 initialize map info after parsing the campaign file
; 155  : //VJ 060319 further bug fixes
; 156  :   	read_map_info_data();      

  000d9	e8 00 00 00 00	 call	 ?read_map_info_data@@YGXXZ ; read_map_info_data

; 157  : 	debug_log("###CUSTOM TEXTURE STARTUP: faction.c: create_campaign: read_map_info_data");

  000de	68 00 00 00 00	 push	 OFFSET ??_C@_0EK@GKFKMPCP@?$CD?$CD?$CDCUSTOM?5TEXTURE?5STARTUP?3?5fact@
  000e3	e8 00 00 00 00	 call	 ?debug_log@@YAXPBDZZ	; debug_log
  000e8	83 c4 04	 add	 esp, 4

; 158  : 	  	
; 159  : }

  000eb	5f		 pop	 edi
  000ec	5e		 pop	 esi
  000ed	5b		 pop	 ebx
  000ee	8b e5		 mov	 esp, ebp
  000f0	5d		 pop	 ebp
  000f1	c2 04 00	 ret	 4
?create_campaign@@YGXPAUSESSION_LIST_DATA_TYPE@@@Z ENDP	; create_campaign
_TEXT	ENDS
; Function compile flags: /Odtp /ZI
; File c:\users\nhv90\projects\eech\aphavoc\source\ai\faction\faction.c
;	COMDAT ?create_faction@@YGXW4ENTITY_SIDES@@H@Z
_TEXT	SEGMENT
_side$ = 8						; size = 4
_colour$ = 12						; size = 4
?create_faction@@YGXW4ENTITY_SIDES@@H@Z PROC		; create_faction, COMDAT

; 234  : {

  00000	55		 push	 ebp
  00001	8b ec		 mov	 ebp, esp
  00003	83 ec 40	 sub	 esp, 64			; 00000040H
  00006	53		 push	 ebx
  00007	56		 push	 esi
  00008	57		 push	 edi

; 235  : 
; 236  :    static entity
; 237  :       *this_force;
; 238  : 
; 239  :    #if DEBUG_MODULE
; 240  : 
; 241  :    debug_log ("FACTION: create faction for side %d", side);
; 242  : 
; 243  :    #endif
; 244  : 
; 245  :    debug_assert (get_comms_model () == COMMS_MODEL_SERVER);

  00009	83 3d 00 00 00
	00 00		 cmp	 DWORD PTR ?system_comms_model@@3W4COMMS_MODEL_TYPES@@A, 0 ; system_comms_model
  00010	74 20		 je	 SHORT $LN2@create_fac
  00012	a1 00 00 00 00	 mov	 eax, DWORD PTR ?__LINE__Var@?0??create_faction@@YGXW4ENTITY_SIDES@@H@Z@4JA
  00017	83 c0 0b	 add	 eax, 11			; 0000000bH
  0001a	50		 push	 eax
  0001b	68 00 00 00 00	 push	 OFFSET ??_C@_0EB@JEOGKGCM@c?3?2users?2nhv90?2projects?2eech?2ap@
  00020	68 00 00 00 00	 push	 OFFSET ??_C@_0CJ@DMBLBJBK@get_comms_model?5?$CI?$CJ?5?$DN?$DN?5COMMS_MOD@
  00025	68 00 00 00 00	 push	 OFFSET ??_C@_0BC@PODNONFH@ASSERT?5?$CFs?5?$CI?$CFs?3?$CFd?$CJ@
  0002a	e8 00 00 00 00	 call	 ?debug_fatal@@YAXPBDZZ	; debug_fatal
  0002f	83 c4 10	 add	 esp, 16			; 00000010H
$LN2@create_fac:

; 246  : 
; 247  :    //
; 248  :    // this_force
; 249  :    //
; 250  : 
; 251  :    this_force = create_local_entity

  00032	6a 00		 push	 0
  00034	8b 45 08	 mov	 eax, DWORD PTR _side$[ebp]
  00037	50		 push	 eax
  00038	68 bb 00 00 00	 push	 187			; 000000bbH
  0003d	6a 05		 push	 5
  0003f	8b 4d 0c	 mov	 ecx, DWORD PTR _colour$[ebp]
  00042	51		 push	 ecx
  00043	6a 1c		 push	 28			; 0000001cH
  00045	6a 05		 push	 5
  00047	8b 15 00 00 00
	00		 mov	 edx, DWORD PTR ?session_entity@@3PAUENTITY@@A ; session_entity
  0004d	52		 push	 edx
  0004e	6a 0e		 push	 14			; 0000000eH
  00050	6a 06		 push	 6
  00052	6a ff		 push	 -1
  00054	6a 0b		 push	 11			; 0000000bH
  00056	e8 00 00 00 00	 call	 ?create_local_entity@@YAPAUENTITY@@W4ENTITY_TYPES@@HZZ ; create_local_entity
  0005b	83 c4 30	 add	 esp, 48			; 00000030H
  0005e	a3 00 00 00 00	 mov	 DWORD PTR ?this_force@?1??create_faction@@YGXW4ENTITY_SIDES@@H@Z@4PAUENTITY@@A, eax

; 252  :    (
; 253  :       ENTITY_TYPE_FORCE,
; 254  :       ENTITY_INDEX_DONT_CARE,
; 255  :       ENTITY_ATTR_PARENT (LIST_TYPE_FORCE, get_session_entity ()),
; 256  :       ENTITY_ATTR_INT_VALUE (INT_TYPE_COLOUR, colour),
; 257  :       ENTITY_ATTR_INT_VALUE (INT_TYPE_SIDE, side),
; 258  :       ENTITY_ATTR_END
; 259  :    );
; 260  : }

  00063	5f		 pop	 edi
  00064	5e		 pop	 esi
  00065	5b		 pop	 ebx
  00066	8b e5		 mov	 esp, ebp
  00068	5d		 pop	 ebp
  00069	c2 08 00	 ret	 8
?create_faction@@YGXW4ENTITY_SIDES@@H@Z ENDP		; create_faction
_TEXT	ENDS
; Function compile flags: /Odtp /ZI
; File c:\program files (x86)\microsoft visual studio\2017\community\vc\tools\msvc\14.16.27023\include\cmath
;	COMDAT ?atan2@@YGMMM@Z
_TEXT	SEGMENT
__Yx$ = 8						; size = 4
__Xx$ = 12						; size = 4
?atan2@@YGMMM@Z PROC					; atan2, COMDAT

; 56   : 	{

  00000	55		 push	 ebp
  00001	8b ec		 mov	 ebp, esp
  00003	83 ec 40	 sub	 esp, 64			; 00000040H
  00006	53		 push	 ebx
  00007	56		 push	 esi
  00008	57		 push	 edi

; 57   : 	return (_CSTD atan2f(_Yx, _Xx));

  00009	51		 push	 ecx
  0000a	f3 0f 10 45 0c	 movss	 xmm0, DWORD PTR __Xx$[ebp]
  0000f	f3 0f 11 04 24	 movss	 DWORD PTR [esp], xmm0
  00014	51		 push	 ecx
  00015	f3 0f 10 45 08	 movss	 xmm0, DWORD PTR __Yx$[ebp]
  0001a	f3 0f 11 04 24	 movss	 DWORD PTR [esp], xmm0
  0001f	e8 00 00 00 00	 call	 _atan2f
  00024	83 c4 08	 add	 esp, 8

; 58   : 	}

  00027	5f		 pop	 edi
  00028	5e		 pop	 esi
  00029	5b		 pop	 ebx
  0002a	8b e5		 mov	 esp, ebp
  0002c	5d		 pop	 ebp
  0002d	c2 08 00	 ret	 8
?atan2@@YGMMM@Z ENDP					; atan2
_TEXT	ENDS
; Function compile flags: /Odtp /ZI
; File c:\program files (x86)\microsoft visual studio\2017\community\vc\tools\msvc\14.16.27023\include\cmath
;	COMDAT ?asin@@YGMM@Z
_TEXT	SEGMENT
__Xx$ = 8						; size = 4
?asin@@YGMM@Z PROC					; asin, COMDAT

; 36   : 	{

  00000	55		 push	 ebp
  00001	8b ec		 mov	 ebp, esp
  00003	83 ec 40	 sub	 esp, 64			; 00000040H
  00006	53		 push	 ebx
  00007	56		 push	 esi
  00008	57		 push	 edi

; 37   : 	return (_CSTD asinf(_Xx));

  00009	51		 push	 ecx
  0000a	f3 0f 10 45 08	 movss	 xmm0, DWORD PTR __Xx$[ebp]
  0000f	f3 0f 11 04 24	 movss	 DWORD PTR [esp], xmm0
  00014	e8 00 00 00 00	 call	 _asinf
  00019	83 c4 04	 add	 esp, 4

; 38   : 	}

  0001c	5f		 pop	 edi
  0001d	5e		 pop	 esi
  0001e	5b		 pop	 ebx
  0001f	8b e5		 mov	 esp, ebp
  00021	5d		 pop	 ebp
  00022	c2 04 00	 ret	 4
?asin@@YGMM@Z ENDP					; asin
_TEXT	ENDS
; Function compile flags: /Odtp /ZI
; File c:\program files (x86)\windows kits\10\include\10.0.18362.0\ucrt\corecrt_math.h
;	COMDAT _atan2f
_TEXT	SEGMENT
tv74 = -68						; size = 4
__Y$ = 8						; size = 4
__X$ = 12						; size = 4
_atan2f	PROC						; COMDAT

; 633  :         {

  00000	55		 push	 ebp
  00001	8b ec		 mov	 ebp, esp
  00003	83 ec 44	 sub	 esp, 68			; 00000044H
  00006	53		 push	 ebx
  00007	56		 push	 esi
  00008	57		 push	 edi

; 634  :             return (float)atan2(_Y, _X);

  00009	f3 0f 5a 45 0c	 cvtss2sd xmm0, DWORD PTR __X$[ebp]
  0000e	83 ec 08	 sub	 esp, 8
  00011	f2 0f 11 04 24	 movsd	 QWORD PTR [esp], xmm0
  00016	f3 0f 5a 45 08	 cvtss2sd xmm0, DWORD PTR __Y$[ebp]
  0001b	83 ec 08	 sub	 esp, 8
  0001e	f2 0f 11 04 24	 movsd	 QWORD PTR [esp], xmm0
  00023	e8 00 00 00 00	 call	 _atan2
  00028	83 c4 10	 add	 esp, 16			; 00000010H
  0002b	d9 5d bc	 fstp	 DWORD PTR tv74[ebp]
  0002e	d9 45 bc	 fld	 DWORD PTR tv74[ebp]

; 635  :         }

  00031	5f		 pop	 edi
  00032	5e		 pop	 esi
  00033	5b		 pop	 ebx
  00034	8b e5		 mov	 esp, ebp
  00036	5d		 pop	 ebp
  00037	c3		 ret	 0
_atan2f	ENDP
_TEXT	ENDS
; Function compile flags: /Odtp /ZI
; File c:\program files (x86)\windows kits\10\include\10.0.18362.0\ucrt\corecrt_math.h
;	COMDAT _asinf
_TEXT	SEGMENT
tv71 = -68						; size = 4
__X$ = 8						; size = 4
_asinf	PROC						; COMDAT

; 628  :         {

  00000	55		 push	 ebp
  00001	8b ec		 mov	 ebp, esp
  00003	83 ec 44	 sub	 esp, 68			; 00000044H
  00006	53		 push	 ebx
  00007	56		 push	 esi
  00008	57		 push	 edi

; 629  :             return (float)asin(_X);

  00009	f3 0f 5a 45 08	 cvtss2sd xmm0, DWORD PTR __X$[ebp]
  0000e	83 ec 08	 sub	 esp, 8
  00011	f2 0f 11 04 24	 movsd	 QWORD PTR [esp], xmm0
  00016	e8 00 00 00 00	 call	 _asin
  0001b	83 c4 08	 add	 esp, 8
  0001e	d9 5d bc	 fstp	 DWORD PTR tv71[ebp]
  00021	d9 45 bc	 fld	 DWORD PTR tv71[ebp]

; 630  :         }

  00024	5f		 pop	 edi
  00025	5e		 pop	 esi
  00026	5b		 pop	 ebx
  00027	8b e5		 mov	 esp, ebp
  00029	5d		 pop	 ebp
  0002a	c3		 ret	 0
_asinf	ENDP
_TEXT	ENDS
; Function compile flags: /Odtp /ZI
; File c:\program files (x86)\windows kits\10\include\10.0.18362.0\ucrt\stdio.h
;	COMDAT _sprintf
_TEXT	SEGMENT
__ArgList$ = -8						; size = 4
__Result$ = -4						; size = 4
__Buffer$ = 8						; size = 4
__Format$ = 12						; size = 4
_sprintf PROC						; COMDAT

; 1781 :     {

  00000	55		 push	 ebp
  00001	8b ec		 mov	 ebp, esp
  00003	83 ec 4c	 sub	 esp, 76			; 0000004cH
  00006	53		 push	 ebx
  00007	56		 push	 esi
  00008	57		 push	 edi

; 1782 :         int _Result;
; 1783 :         va_list _ArgList;
; 1784 :         __crt_va_start(_ArgList, _Format);

  00009	8d 45 10	 lea	 eax, DWORD PTR __Format$[ebp+4]
  0000c	89 45 f8	 mov	 DWORD PTR __ArgList$[ebp], eax

; 1785 : 
; 1786 :         #pragma warning(push)
; 1787 :         #pragma warning(disable: 4996) // Deprecation
; 1788 :         _Result = _vsprintf_l(_Buffer, _Format, NULL, _ArgList);

  0000f	8b 45 f8	 mov	 eax, DWORD PTR __ArgList$[ebp]
  00012	50		 push	 eax
  00013	6a 00		 push	 0
  00015	8b 4d 0c	 mov	 ecx, DWORD PTR __Format$[ebp]
  00018	51		 push	 ecx
  00019	8b 55 08	 mov	 edx, DWORD PTR __Buffer$[ebp]
  0001c	52		 push	 edx
  0001d	e8 00 00 00 00	 call	 __vsprintf_l
  00022	83 c4 10	 add	 esp, 16			; 00000010H
  00025	89 45 fc	 mov	 DWORD PTR __Result$[ebp], eax

; 1789 :         #pragma warning(pop)
; 1790 : 
; 1791 :         __crt_va_end(_ArgList);

  00028	c7 45 f8 00 00
	00 00		 mov	 DWORD PTR __ArgList$[ebp], 0

; 1792 :         return _Result;

  0002f	8b 45 fc	 mov	 eax, DWORD PTR __Result$[ebp]

; 1793 :     }

  00032	5f		 pop	 edi
  00033	5e		 pop	 esi
  00034	5b		 pop	 ebx
  00035	8b e5		 mov	 esp, ebp
  00037	5d		 pop	 ebp
  00038	c3		 ret	 0
_sprintf ENDP
_TEXT	ENDS
; Function compile flags: /Odtp /ZI
; File c:\program files (x86)\windows kits\10\include\10.0.18362.0\ucrt\stdio.h
;	COMDAT __vsprintf_l
_TEXT	SEGMENT
__Buffer$ = 8						; size = 4
__Format$ = 12						; size = 4
__Locale$ = 16						; size = 4
__ArgList$ = 20						; size = 4
__vsprintf_l PROC					; COMDAT

; 1459 :     {

  00000	55		 push	 ebp
  00001	8b ec		 mov	 ebp, esp
  00003	83 ec 40	 sub	 esp, 64			; 00000040H
  00006	53		 push	 ebx
  00007	56		 push	 esi
  00008	57		 push	 edi

; 1460 :         #pragma warning(push)
; 1461 :         #pragma warning(disable: 4996) // Deprecation
; 1462 :         return _vsnprintf_l(_Buffer, (size_t)-1, _Format, _Locale, _ArgList);

  00009	8b 45 14	 mov	 eax, DWORD PTR __ArgList$[ebp]
  0000c	50		 push	 eax
  0000d	8b 4d 10	 mov	 ecx, DWORD PTR __Locale$[ebp]
  00010	51		 push	 ecx
  00011	8b 55 0c	 mov	 edx, DWORD PTR __Format$[ebp]
  00014	52		 push	 edx
  00015	6a ff		 push	 -1
  00017	8b 45 08	 mov	 eax, DWORD PTR __Buffer$[ebp]
  0001a	50		 push	 eax
  0001b	e8 00 00 00 00	 call	 __vsnprintf_l
  00020	83 c4 14	 add	 esp, 20			; 00000014H

; 1463 :         #pragma warning(pop)
; 1464 :     }

  00023	5f		 pop	 edi
  00024	5e		 pop	 esi
  00025	5b		 pop	 ebx
  00026	8b e5		 mov	 esp, ebp
  00028	5d		 pop	 ebp
  00029	c3		 ret	 0
__vsprintf_l ENDP
_TEXT	ENDS
; Function compile flags: /Odtp /ZI
; File c:\program files (x86)\windows kits\10\include\10.0.18362.0\ucrt\stdio.h
;	COMDAT __vsnprintf_l
_TEXT	SEGMENT
tv74 = -72						; size = 4
__Result$ = -4						; size = 4
__Buffer$ = 8						; size = 4
__BufferCount$ = 12					; size = 4
__Format$ = 16						; size = 4
__Locale$ = 20						; size = 4
__ArgList$ = 24						; size = 4
__vsnprintf_l PROC					; COMDAT

; 1389 :     {

  00000	55		 push	 ebp
  00001	8b ec		 mov	 ebp, esp
  00003	83 ec 48	 sub	 esp, 72			; 00000048H
  00006	53		 push	 ebx
  00007	56		 push	 esi
  00008	57		 push	 edi

; 1390 :         int const _Result = __stdio_common_vsprintf(

  00009	8b 45 18	 mov	 eax, DWORD PTR __ArgList$[ebp]
  0000c	50		 push	 eax
  0000d	8b 4d 14	 mov	 ecx, DWORD PTR __Locale$[ebp]
  00010	51		 push	 ecx
  00011	8b 55 10	 mov	 edx, DWORD PTR __Format$[ebp]
  00014	52		 push	 edx
  00015	8b 45 0c	 mov	 eax, DWORD PTR __BufferCount$[ebp]
  00018	50		 push	 eax
  00019	8b 4d 08	 mov	 ecx, DWORD PTR __Buffer$[ebp]
  0001c	51		 push	 ecx
  0001d	e8 00 00 00 00	 call	 ___local_stdio_printf_options
  00022	8b 10		 mov	 edx, DWORD PTR [eax]
  00024	83 ca 01	 or	 edx, 1
  00027	8b 40 04	 mov	 eax, DWORD PTR [eax+4]
  0002a	50		 push	 eax
  0002b	52		 push	 edx
  0002c	ff 15 00 00 00
	00		 call	 DWORD PTR __imp____stdio_common_vsprintf
  00032	83 c4 1c	 add	 esp, 28			; 0000001cH
  00035	89 45 fc	 mov	 DWORD PTR __Result$[ebp], eax

; 1391 :             _CRT_INTERNAL_LOCAL_PRINTF_OPTIONS | _CRT_INTERNAL_PRINTF_LEGACY_VSPRINTF_NULL_TERMINATION,
; 1392 :             _Buffer, _BufferCount, _Format, _Locale, _ArgList);
; 1393 : 
; 1394 :         return _Result < 0 ? -1 : _Result;

  00038	83 7d fc 00	 cmp	 DWORD PTR __Result$[ebp], 0
  0003c	7d 09		 jge	 SHORT $LN3@vsnprintf_
  0003e	c7 45 b8 ff ff
	ff ff		 mov	 DWORD PTR tv74[ebp], -1
  00045	eb 06		 jmp	 SHORT $LN4@vsnprintf_
$LN3@vsnprintf_:
  00047	8b 45 fc	 mov	 eax, DWORD PTR __Result$[ebp]
  0004a	89 45 b8	 mov	 DWORD PTR tv74[ebp], eax
$LN4@vsnprintf_:
  0004d	8b 45 b8	 mov	 eax, DWORD PTR tv74[ebp]

; 1395 :     }

  00050	5f		 pop	 edi
  00051	5e		 pop	 esi
  00052	5b		 pop	 ebx
  00053	8b e5		 mov	 esp, ebp
  00055	5d		 pop	 ebp
  00056	c3		 ret	 0
__vsnprintf_l ENDP
_TEXT	ENDS
; Function compile flags: /Odtp /ZI
; File c:\program files (x86)\windows kits\10\include\10.0.18362.0\ucrt\corecrt_stdio_config.h
;	COMDAT ___local_stdio_printf_options
_TEXT	SEGMENT
___local_stdio_printf_options PROC			; COMDAT

; 86   :     {

  00000	55		 push	 ebp
  00001	8b ec		 mov	 ebp, esp
  00003	83 ec 40	 sub	 esp, 64			; 00000040H
  00006	53		 push	 ebx
  00007	56		 push	 esi
  00008	57		 push	 edi

; 87   :         static unsigned __int64 _OptionsStorage;
; 88   :         return &_OptionsStorage;

  00009	b8 00 00 00 00	 mov	 eax, OFFSET ?_OptionsStorage@?1??__local_stdio_printf_options@@9@4_KA ; `__local_stdio_printf_options'::`2'::_OptionsStorage

; 89   :     }

  0000e	5f		 pop	 edi
  0000f	5e		 pop	 esi
  00010	5b		 pop	 ebx
  00011	8b e5		 mov	 esp, ebp
  00013	5d		 pop	 ebp
  00014	c3		 ret	 0
___local_stdio_printf_options ENDP
_TEXT	ENDS
END
