; Listing generated by Microsoft (R) Optimizing Compiler Version 19.16.27045.0 

	TITLE	C:\Users\nhv90\Projects\eech\aphavoc\source\entity\special\force\fc_dstry.c
	.686P
	.XMM
	include listing.inc
	.model	flat

INCLUDELIB MSVCRTD
INCLUDELIB OLDNAMES

PUBLIC	?overload_force_destroy_functions@@YGXXZ	; overload_force_destroy_functions
PUBLIC	?__LINE__Var@?0??destroy_local@@YGXPAUENTITY@@@Z@4JA ; `destroy_local'::`1'::__LINE__Var
PUBLIC	??_C@_0EM@FADLFBEL@c?3?2users?2nhv90?2projects?2eech?2ap@ ; `string'
PUBLIC	??_C@_0CF@LKNGPCKM@?$CBraw?9?$DOkeysite_force_root?4first_@ ; `string'
PUBLIC	??_C@_0BN@NEKKIJCL@?$CBraw?9?$DOpilot_root?4first_child@ ; `string'
PUBLIC	?__LINE__Var@?0??destroy_server@@YGXPAUENTITY@@@Z@4JA ; `destroy_server'::`1'::__LINE__Var
PUBLIC	??_C@_0CC@BNNNEGEG@assert_client_server_remote_fn?5@ ; `string'
PUBLIC	??_C@_0CB@CFOCLFOK@assert_client_server_local_fn?5?$CI@ ; `string'
PUBLIC	?__LINE__Var@?0??destroy_client@@YGXPAUENTITY@@@Z@4JA ; `destroy_client'::`1'::__LINE__Var
PUBLIC	?__LINE__Var@?0??destroy_server_family@@YGXPAUENTITY@@@Z@4JA ; `destroy_server_family'::`1'::__LINE__Var
EXTRN	?process_assert@@YGXPBD0H@Z:PROC		; process_assert
EXTRN	?free_mem@@YGXPAX@Z:PROC			; free_mem
EXTRN	?delete_local_entity_from_parents_child_list@@YGXPAUENTITY@@W4LIST_TYPES@@@Z:PROC ; delete_local_entity_from_parents_child_list
EXTRN	?unlink_local_entity_children@@YGXPAUENTITY@@W4LIST_TYPES@@@Z:PROC ; unlink_local_entity_children
EXTRN	?destroy_local_entity@@YGXPAUENTITY@@@Z:PROC	; destroy_local_entity
EXTRN	?destroy_local_entity_children@@YGXPAUENTITY@@W4LIST_TYPES@@@Z:PROC ; destroy_local_entity_children
EXTRN	?destroy_client_server_entity_children@@YGXPAUENTITY@@W4LIST_TYPES@@@Z:PROC ; destroy_client_server_entity_children
EXTRN	?transmit_entity_comms_message@@YAXW4ENTITY_COMMS_MESSAGES@@PAUENTITY@@ZZ:PROC ; transmit_entity_comms_message
EXTRN	?assert_client_server_local_fn@@YGHXZ:PROC	; assert_client_server_local_fn
EXTRN	?assert_client_server_remote_fn@@YGHXZ:PROC	; assert_client_server_remote_fn
EXTRN	?set_free_entity@@YGXPAUENTITY@@@Z:PROC		; set_free_entity
EXTRN	?display_task_generation_stats@@YGXPAUENTITY@@@Z:PROC ; display_task_generation_stats
EXTRN	?null_entity_pointer_message@@3PBDB:DWORD	; null_entity_pointer_message
EXTRN	?system_comms_model@@3W4COMMS_MODEL_TYPES@@A:DWORD ; system_comms_model
EXTRN	?system_comms_data_flow@@3W4COMMS_DATA_FLOW_TYPES@@A:DWORD ; system_comms_data_flow
EXTRN	?fn_destroy_local_entity@@3PAP6GXPAUENTITY@@@ZA:BYTE ; fn_destroy_local_entity
EXTRN	?fn_destroy_client_server_entity@@3PAY01P6GXPAUENTITY@@@ZA:BYTE ; fn_destroy_client_server_entity
EXTRN	?fn_destroy_local_entity_family@@3PAP6GXPAUENTITY@@@ZA:BYTE ; fn_destroy_local_entity_family
EXTRN	?fn_destroy_client_server_entity_family@@3PAY01P6GXPAUENTITY@@@ZA:BYTE ; fn_destroy_client_server_entity_family
EXTRN	?fn_kill_local_entity@@3PAP6GXPAUENTITY@@@ZA:BYTE ; fn_kill_local_entity
EXTRN	?fn_kill_client_server_entity@@3PAY01P6GXPAUENTITY@@@ZA:BYTE ; fn_kill_client_server_entity
;	COMDAT ?__LINE__Var@?0??destroy_server_family@@YGXPAUENTITY@@@Z@4JA
_DATA	SEGMENT
?__LINE__Var@?0??destroy_server_family@@YGXPAUENTITY@@@Z@4JA DD 0feH ; `destroy_server_family'::`1'::__LINE__Var
_DATA	ENDS
;	COMDAT ?__LINE__Var@?0??destroy_client@@YGXPAUENTITY@@@Z@4JA
_DATA	SEGMENT
?__LINE__Var@?0??destroy_client@@YGXPAUENTITY@@@Z@4JA DD 0d5H ; `destroy_client'::`1'::__LINE__Var
_DATA	ENDS
;	COMDAT ??_C@_0CB@CFOCLFOK@assert_client_server_local_fn?5?$CI@
CONST	SEGMENT
??_C@_0CB@CFOCLFOK@assert_client_server_local_fn?5?$CI@ DB 'assert_client'
	DB	'_server_local_fn ()', 00H			; `string'
CONST	ENDS
;	COMDAT ??_C@_0CC@BNNNEGEG@assert_client_server_remote_fn?5@
CONST	SEGMENT
??_C@_0CC@BNNNEGEG@assert_client_server_remote_fn?5@ DB 'assert_client_se'
	DB	'rver_remote_fn ()', 00H			; `string'
CONST	ENDS
;	COMDAT ?__LINE__Var@?0??destroy_server@@YGXPAUENTITY@@@Z@4JA
_DATA	SEGMENT
?__LINE__Var@?0??destroy_server@@YGXPAUENTITY@@@Z@4JA DD 0beH ; `destroy_server'::`1'::__LINE__Var
_DATA	ENDS
;	COMDAT ??_C@_0BN@NEKKIJCL@?$CBraw?9?$DOpilot_root?4first_child@
CONST	SEGMENT
??_C@_0BN@NEKKIJCL@?$CBraw?9?$DOpilot_root?4first_child@ DB '!raw->pilot_'
	DB	'root.first_child', 00H			; `string'
CONST	ENDS
;	COMDAT ??_C@_0CF@LKNGPCKM@?$CBraw?9?$DOkeysite_force_root?4first_@
CONST	SEGMENT
??_C@_0CF@LKNGPCKM@?$CBraw?9?$DOkeysite_force_root?4first_@ DB '!raw->key'
	DB	'site_force_root.first_child', 00H		; `string'
CONST	ENDS
;	COMDAT ??_C@_0EM@FADLFBEL@c?3?2users?2nhv90?2projects?2eech?2ap@
CONST	SEGMENT
??_C@_0EM@FADLFBEL@c?3?2users?2nhv90?2projects?2eech?2ap@ DB 'c:\users\nh'
	DB	'v90\projects\eech\aphavoc\source\entity\special\force\fc_dstr'
	DB	'y.c', 00H					; `string'
CONST	ENDS
;	COMDAT ?__LINE__Var@?0??destroy_local@@YGXPAUENTITY@@@Z@4JA
_DATA	SEGMENT
?__LINE__Var@?0??destroy_local@@YGXPAUENTITY@@@Z@4JA DD 052H ; `destroy_local'::`1'::__LINE__Var
_DATA	ENDS
; Function compile flags: /Odtp /ZI
; File c:\users\nhv90\projects\eech\aphavoc\source\entity\special\force\fc_dstry.c
;	COMDAT ?destroy_client_family@@YGXPAUENTITY@@@Z
_TEXT	SEGMENT
_en$ = 8						; size = 4
?destroy_client_family@@YGXPAUENTITY@@@Z PROC		; destroy_client_family, COMDAT

; 272  : {

  00000	55		 push	 ebp
  00001	8b ec		 mov	 ebp, esp
  00003	83 ec 40	 sub	 esp, 64			; 00000040H
  00006	53		 push	 ebx
  00007	56		 push	 esi
  00008	57		 push	 edi

; 273  : 	#if DEBUG_MODULE
; 274  : 
; 275  : 	debug_log_entity_args (ENTITY_DEBUG_REMOTE, ENTITY_DEBUG_DESTROY_FAMILY, en);
; 276  : 
; 277  : 	#endif
; 278  : 
; 279  : 	transmit_entity_comms_message (ENTITY_COMMS_DESTROY_FAMILY, en);

  00009	8b 45 08	 mov	 eax, DWORD PTR _en$[ebp]
  0000c	50		 push	 eax
  0000d	6a 13		 push	 19			; 00000013H
  0000f	e8 00 00 00 00	 call	 ?transmit_entity_comms_message@@YAXW4ENTITY_COMMS_MESSAGES@@PAUENTITY@@ZZ ; transmit_entity_comms_message
  00014	83 c4 08	 add	 esp, 8

; 280  : }

  00017	5f		 pop	 edi
  00018	5e		 pop	 esi
  00019	5b		 pop	 ebx
  0001a	8b e5		 mov	 esp, ebp
  0001c	5d		 pop	 ebp
  0001d	c2 04 00	 ret	 4
?destroy_client_family@@YGXPAUENTITY@@@Z ENDP		; destroy_client_family
_TEXT	ENDS
; Function compile flags: /Odtp /ZI
; File c:\users\nhv90\projects\eech\aphavoc\source\entity\special\force\fc_dstry.c
;	COMDAT ?destroy_server_family@@YGXPAUENTITY@@@Z
_TEXT	SEGMENT
tv80 = -68						; size = 4
_en$ = 8						; size = 4
?destroy_server_family@@YGXPAUENTITY@@@Z PROC		; destroy_server_family, COMDAT

; 254  : {

  00000	55		 push	 ebp
  00001	8b ec		 mov	 ebp, esp
  00003	83 ec 44	 sub	 esp, 68			; 00000044H
  00006	53		 push	 ebx
  00007	56		 push	 esi
  00008	57		 push	 edi

; 255  : 
; 256  : 	destroy_client_server_entity_children (en, LIST_TYPE_KEYSITE_FORCE);

  00009	6a 15		 push	 21			; 00000015H
  0000b	8b 45 08	 mov	 eax, DWORD PTR _en$[ebp]
  0000e	50		 push	 eax
  0000f	e8 00 00 00 00	 call	 ?destroy_client_server_entity_children@@YGXPAUENTITY@@W4LIST_TYPES@@@Z ; destroy_client_server_entity_children

; 257  : 
; 258  : 	destroy_client_server_entity_children (en, LIST_TYPE_PILOT);

  00014	6a 1c		 push	 28			; 0000001cH
  00016	8b 45 08	 mov	 eax, DWORD PTR _en$[ebp]
  00019	50		 push	 eax
  0001a	e8 00 00 00 00	 call	 ?destroy_client_server_entity_children@@YGXPAUENTITY@@W4LIST_TYPES@@@Z ; destroy_client_server_entity_children

; 259  : 
; 260  : 	destroy_client_server_entity_children (en, LIST_TYPE_AIR_REGISTRY);

  0001f	6a 02		 push	 2
  00021	8b 45 08	 mov	 eax, DWORD PTR _en$[ebp]
  00024	50		 push	 eax
  00025	e8 00 00 00 00	 call	 ?destroy_client_server_entity_children@@YGXPAUENTITY@@W4LIST_TYPES@@@Z ; destroy_client_server_entity_children

; 261  : 	destroy_client_server_entity_children (en, LIST_TYPE_GROUND_REGISTRY);

  0002a	6a 0f		 push	 15			; 0000000fH
  0002c	8b 45 08	 mov	 eax, DWORD PTR _en$[ebp]
  0002f	50		 push	 eax
  00030	e8 00 00 00 00	 call	 ?destroy_client_server_entity_children@@YGXPAUENTITY@@W4LIST_TYPES@@@Z ; destroy_client_server_entity_children

; 262  : 	destroy_client_server_entity_children (en, LIST_TYPE_SEA_REGISTRY);

  00035	6a 20		 push	 32			; 00000020H
  00037	8b 45 08	 mov	 eax, DWORD PTR _en$[ebp]
  0003a	50		 push	 eax
  0003b	e8 00 00 00 00	 call	 ?destroy_client_server_entity_children@@YGXPAUENTITY@@W4LIST_TYPES@@@Z ; destroy_client_server_entity_children

; 263  : 
; 264  : 	destroy_client_server_entity (en);

  00040	83 7d 08 00	 cmp	 DWORD PTR _en$[ebp], 0
  00044	74 0a		 je	 SHORT $LN3@destroy_se
  00046	8b 45 08	 mov	 eax, DWORD PTR _en$[ebp]
  00049	8b 08		 mov	 ecx, DWORD PTR [eax]
  0004b	89 4d bc	 mov	 DWORD PTR tv80[ebp], ecx
  0004e	eb 21		 jmp	 SHORT $LN4@destroy_se
$LN3@destroy_se:
  00050	8b 15 00 00 00
	00		 mov	 edx, DWORD PTR ?__LINE__Var@?0??destroy_server_family@@YGXPAUENTITY@@@Z@4JA
  00056	83 c2 0a	 add	 edx, 10			; 0000000aH
  00059	52		 push	 edx
  0005a	68 00 00 00 00	 push	 OFFSET ??_C@_0EM@FADLFBEL@c?3?2users?2nhv90?2projects?2eech?2ap@
  0005f	a1 00 00 00 00	 mov	 eax, DWORD PTR ?null_entity_pointer_message@@3PBDB ; null_entity_pointer_message
  00064	50		 push	 eax
  00065	e8 00 00 00 00	 call	 ?process_assert@@YGXPBD0H@Z ; process_assert
  0006a	c7 45 bc 00 00
	00 00		 mov	 DWORD PTR tv80[ebp], 0
$LN4@destroy_se:
  00071	8b 4d 08	 mov	 ecx, DWORD PTR _en$[ebp]
  00074	51		 push	 ecx
  00075	8b 15 00 00 00
	00		 mov	 edx, DWORD PTR ?system_comms_model@@3W4COMMS_MODEL_TYPES@@A ; system_comms_model
  0007b	c1 e2 02	 shl	 edx, 2
  0007e	8b 45 bc	 mov	 eax, DWORD PTR tv80[ebp]
  00081	8b 8c c2 00 00
	00 00		 mov	 ecx, DWORD PTR ?fn_destroy_client_server_entity@@3PAY01P6GXPAUENTITY@@@ZA[edx+eax*8]
  00088	ff d1		 call	 ecx

; 265  : }

  0008a	5f		 pop	 edi
  0008b	5e		 pop	 esi
  0008c	5b		 pop	 ebx
  0008d	8b e5		 mov	 esp, ebp
  0008f	5d		 pop	 ebp
  00090	c2 04 00	 ret	 4
?destroy_server_family@@YGXPAUENTITY@@@Z ENDP		; destroy_server_family
_TEXT	ENDS
; Function compile flags: /Odtp /ZI
; File c:\users\nhv90\projects\eech\aphavoc\source\entity\special\force\fc_dstry.c
;	COMDAT ?destroy_local_family@@YGXPAUENTITY@@@Z
_TEXT	SEGMENT
_en$ = 8						; size = 4
?destroy_local_family@@YGXPAUENTITY@@@Z PROC		; destroy_local_family, COMDAT

; 237  : {

  00000	55		 push	 ebp
  00001	8b ec		 mov	 ebp, esp
  00003	83 ec 40	 sub	 esp, 64			; 00000040H
  00006	53		 push	 ebx
  00007	56		 push	 esi
  00008	57		 push	 edi

; 238  : 	destroy_local_entity_children (en, LIST_TYPE_KEYSITE_FORCE);

  00009	6a 15		 push	 21			; 00000015H
  0000b	8b 45 08	 mov	 eax, DWORD PTR _en$[ebp]
  0000e	50		 push	 eax
  0000f	e8 00 00 00 00	 call	 ?destroy_local_entity_children@@YGXPAUENTITY@@W4LIST_TYPES@@@Z ; destroy_local_entity_children

; 239  : 
; 240  : 	destroy_local_entity_children (en, LIST_TYPE_PILOT);

  00014	6a 1c		 push	 28			; 0000001cH
  00016	8b 45 08	 mov	 eax, DWORD PTR _en$[ebp]
  00019	50		 push	 eax
  0001a	e8 00 00 00 00	 call	 ?destroy_local_entity_children@@YGXPAUENTITY@@W4LIST_TYPES@@@Z ; destroy_local_entity_children

; 241  : 
; 242  : 	destroy_local_entity_children (en, LIST_TYPE_AIR_REGISTRY);

  0001f	6a 02		 push	 2
  00021	8b 45 08	 mov	 eax, DWORD PTR _en$[ebp]
  00024	50		 push	 eax
  00025	e8 00 00 00 00	 call	 ?destroy_local_entity_children@@YGXPAUENTITY@@W4LIST_TYPES@@@Z ; destroy_local_entity_children

; 243  : 	destroy_local_entity_children (en, LIST_TYPE_GROUND_REGISTRY);

  0002a	6a 0f		 push	 15			; 0000000fH
  0002c	8b 45 08	 mov	 eax, DWORD PTR _en$[ebp]
  0002f	50		 push	 eax
  00030	e8 00 00 00 00	 call	 ?destroy_local_entity_children@@YGXPAUENTITY@@W4LIST_TYPES@@@Z ; destroy_local_entity_children

; 244  : 	destroy_local_entity_children (en, LIST_TYPE_SEA_REGISTRY);

  00035	6a 20		 push	 32			; 00000020H
  00037	8b 45 08	 mov	 eax, DWORD PTR _en$[ebp]
  0003a	50		 push	 eax
  0003b	e8 00 00 00 00	 call	 ?destroy_local_entity_children@@YGXPAUENTITY@@W4LIST_TYPES@@@Z ; destroy_local_entity_children

; 245  : 
; 246  : 	destroy_local_entity (en);

  00040	8b 45 08	 mov	 eax, DWORD PTR _en$[ebp]
  00043	50		 push	 eax
  00044	e8 00 00 00 00	 call	 ?destroy_local_entity@@YGXPAUENTITY@@@Z ; destroy_local_entity

; 247  : }

  00049	5f		 pop	 edi
  0004a	5e		 pop	 esi
  0004b	5b		 pop	 ebx
  0004c	8b e5		 mov	 esp, ebp
  0004e	5d		 pop	 ebp
  0004f	c2 04 00	 ret	 4
?destroy_local_family@@YGXPAUENTITY@@@Z ENDP		; destroy_local_family
_TEXT	ENDS
; Function compile flags: /Odtp /ZI
; File c:\users\nhv90\projects\eech\aphavoc\source\entity\special\force\fc_dstry.c
;	COMDAT ?destroy_client@@YGXPAUENTITY@@@Z
_TEXT	SEGMENT
_en$ = 8						; size = 4
?destroy_client@@YGXPAUENTITY@@@Z PROC			; destroy_client, COMDAT

; 213  : {

  00000	55		 push	 ebp
  00001	8b ec		 mov	 ebp, esp
  00003	83 ec 40	 sub	 esp, 64			; 00000040H
  00006	53		 push	 ebx
  00007	56		 push	 esi
  00008	57		 push	 edi

; 214  : 	if (get_comms_data_flow () == COMMS_DATA_FLOW_TX)

  00009	83 3d 00 00 00
	00 00		 cmp	 DWORD PTR ?system_comms_data_flow@@3W4COMMS_DATA_FLOW_TYPES@@A, 0 ; system_comms_data_flow
  00010	75 2c		 jne	 SHORT $LN2@destroy_cl

; 215  : 	{
; 216  : 		validate_client_server_remote_fn ();

  00012	e8 00 00 00 00	 call	 ?assert_client_server_remote_fn@@YGHXZ ; assert_client_server_remote_fn
  00017	85 c0		 test	 eax, eax
  00019	75 18		 jne	 SHORT $LN4@destroy_cl
  0001b	a1 00 00 00 00	 mov	 eax, DWORD PTR ?__LINE__Var@?0??destroy_client@@YGXPAUENTITY@@@Z@4JA
  00020	83 c0 03	 add	 eax, 3
  00023	50		 push	 eax
  00024	68 00 00 00 00	 push	 OFFSET ??_C@_0EM@FADLFBEL@c?3?2users?2nhv90?2projects?2eech?2ap@
  00029	68 00 00 00 00	 push	 OFFSET ??_C@_0CC@BNNNEGEG@assert_client_server_remote_fn?5@
  0002e	e8 00 00 00 00	 call	 ?process_assert@@YGXPBD0H@Z ; process_assert
$LN4@destroy_cl:

; 217  : 
; 218  : 		destroy_remote (en);

  00033	8b 45 08	 mov	 eax, DWORD PTR _en$[ebp]
  00036	50		 push	 eax
  00037	e8 00 00 00 00	 call	 ?destroy_remote@@YGXPAUENTITY@@@Z ; destroy_remote

; 219  : 	}
; 220  : 	else

  0003c	eb 2a		 jmp	 SHORT $LN1@destroy_cl
$LN2@destroy_cl:

; 221  : 	{
; 222  : 		validate_client_server_local_fn ();

  0003e	e8 00 00 00 00	 call	 ?assert_client_server_local_fn@@YGHXZ ; assert_client_server_local_fn
  00043	85 c0		 test	 eax, eax
  00045	75 18		 jne	 SHORT $LN5@destroy_cl
  00047	a1 00 00 00 00	 mov	 eax, DWORD PTR ?__LINE__Var@?0??destroy_client@@YGXPAUENTITY@@@Z@4JA
  0004c	83 c0 09	 add	 eax, 9
  0004f	50		 push	 eax
  00050	68 00 00 00 00	 push	 OFFSET ??_C@_0EM@FADLFBEL@c?3?2users?2nhv90?2projects?2eech?2ap@
  00055	68 00 00 00 00	 push	 OFFSET ??_C@_0CB@CFOCLFOK@assert_client_server_local_fn?5?$CI@
  0005a	e8 00 00 00 00	 call	 ?process_assert@@YGXPBD0H@Z ; process_assert
$LN5@destroy_cl:

; 223  : 
; 224  : 		//
; 225  : 		// destroy local using 'full' function
; 226  : 		//
; 227  : 
; 228  : 		destroy_local_entity (en);

  0005f	8b 45 08	 mov	 eax, DWORD PTR _en$[ebp]
  00062	50		 push	 eax
  00063	e8 00 00 00 00	 call	 ?destroy_local_entity@@YGXPAUENTITY@@@Z ; destroy_local_entity
$LN1@destroy_cl:

; 229  : 	}
; 230  : }

  00068	5f		 pop	 edi
  00069	5e		 pop	 esi
  0006a	5b		 pop	 ebx
  0006b	8b e5		 mov	 esp, ebp
  0006d	5d		 pop	 ebp
  0006e	c2 04 00	 ret	 4
?destroy_client@@YGXPAUENTITY@@@Z ENDP			; destroy_client
_TEXT	ENDS
; Function compile flags: /Odtp /ZI
; File c:\users\nhv90\projects\eech\aphavoc\source\entity\special\force\fc_dstry.c
;	COMDAT ?destroy_server@@YGXPAUENTITY@@@Z
_TEXT	SEGMENT
_en$ = 8						; size = 4
?destroy_server@@YGXPAUENTITY@@@Z PROC			; destroy_server, COMDAT

; 190  : {

  00000	55		 push	 ebp
  00001	8b ec		 mov	 ebp, esp
  00003	83 ec 40	 sub	 esp, 64			; 00000040H
  00006	53		 push	 ebx
  00007	56		 push	 esi
  00008	57		 push	 edi

; 191  : 	//
; 192  : 	// destroy remote entity first (keeping local entity valid)
; 193  : 	//
; 194  : 
; 195  : 	validate_client_server_remote_fn ();

  00009	e8 00 00 00 00	 call	 ?assert_client_server_remote_fn@@YGHXZ ; assert_client_server_remote_fn
  0000e	85 c0		 test	 eax, eax
  00010	75 18		 jne	 SHORT $LN2@destroy_se
  00012	a1 00 00 00 00	 mov	 eax, DWORD PTR ?__LINE__Var@?0??destroy_server@@YGXPAUENTITY@@@Z@4JA
  00017	83 c0 05	 add	 eax, 5
  0001a	50		 push	 eax
  0001b	68 00 00 00 00	 push	 OFFSET ??_C@_0EM@FADLFBEL@c?3?2users?2nhv90?2projects?2eech?2ap@
  00020	68 00 00 00 00	 push	 OFFSET ??_C@_0CC@BNNNEGEG@assert_client_server_remote_fn?5@
  00025	e8 00 00 00 00	 call	 ?process_assert@@YGXPBD0H@Z ; process_assert
$LN2@destroy_se:

; 196  : 
; 197  : 	destroy_remote (en);

  0002a	8b 45 08	 mov	 eax, DWORD PTR _en$[ebp]
  0002d	50		 push	 eax
  0002e	e8 00 00 00 00	 call	 ?destroy_remote@@YGXPAUENTITY@@@Z ; destroy_remote

; 198  : 
; 199  : 	validate_client_server_local_fn ();

  00033	e8 00 00 00 00	 call	 ?assert_client_server_local_fn@@YGHXZ ; assert_client_server_local_fn
  00038	85 c0		 test	 eax, eax
  0003a	75 18		 jne	 SHORT $LN3@destroy_se
  0003c	a1 00 00 00 00	 mov	 eax, DWORD PTR ?__LINE__Var@?0??destroy_server@@YGXPAUENTITY@@@Z@4JA
  00041	83 c0 09	 add	 eax, 9
  00044	50		 push	 eax
  00045	68 00 00 00 00	 push	 OFFSET ??_C@_0EM@FADLFBEL@c?3?2users?2nhv90?2projects?2eech?2ap@
  0004a	68 00 00 00 00	 push	 OFFSET ??_C@_0CB@CFOCLFOK@assert_client_server_local_fn?5?$CI@
  0004f	e8 00 00 00 00	 call	 ?process_assert@@YGXPBD0H@Z ; process_assert
$LN3@destroy_se:

; 200  : 
; 201  : 	//
; 202  : 	// destroy local using 'full' function
; 203  : 	//
; 204  : 
; 205  : 	destroy_local_entity (en);

  00054	8b 45 08	 mov	 eax, DWORD PTR _en$[ebp]
  00057	50		 push	 eax
  00058	e8 00 00 00 00	 call	 ?destroy_local_entity@@YGXPAUENTITY@@@Z ; destroy_local_entity

; 206  : }

  0005d	5f		 pop	 edi
  0005e	5e		 pop	 esi
  0005f	5b		 pop	 ebx
  00060	8b e5		 mov	 esp, ebp
  00062	5d		 pop	 ebp
  00063	c2 04 00	 ret	 4
?destroy_server@@YGXPAUENTITY@@@Z ENDP			; destroy_server
_TEXT	ENDS
; Function compile flags: /Odtp /ZI
; File c:\users\nhv90\projects\eech\aphavoc\source\entity\special\force\fc_dstry.c
;	COMDAT ?destroy_remote@@YGXPAUENTITY@@@Z
_TEXT	SEGMENT
_en$ = 8						; size = 4
?destroy_remote@@YGXPAUENTITY@@@Z PROC			; destroy_remote, COMDAT

; 175  : {

  00000	55		 push	 ebp
  00001	8b ec		 mov	 ebp, esp
  00003	83 ec 40	 sub	 esp, 64			; 00000040H
  00006	53		 push	 ebx
  00007	56		 push	 esi
  00008	57		 push	 edi

; 176  : 	#if DEBUG_MODULE
; 177  : 
; 178  : 	debug_log_entity_args (ENTITY_DEBUG_REMOTE, ENTITY_DEBUG_DESTROY, en);
; 179  : 
; 180  : 	#endif
; 181  : 
; 182  : 	transmit_entity_comms_message (ENTITY_COMMS_DESTROY, en);

  00009	8b 45 08	 mov	 eax, DWORD PTR _en$[ebp]
  0000c	50		 push	 eax
  0000d	6a 12		 push	 18			; 00000012H
  0000f	e8 00 00 00 00	 call	 ?transmit_entity_comms_message@@YAXW4ENTITY_COMMS_MESSAGES@@PAUENTITY@@ZZ ; transmit_entity_comms_message
  00014	83 c4 08	 add	 esp, 8

; 183  : }

  00017	5f		 pop	 edi
  00018	5e		 pop	 esi
  00019	5b		 pop	 ebx
  0001a	8b e5		 mov	 esp, ebp
  0001c	5d		 pop	 ebp
  0001d	c2 04 00	 ret	 4
?destroy_remote@@YGXPAUENTITY@@@Z ENDP			; destroy_remote
_TEXT	ENDS
; Function compile flags: /Odtp /ZI
; File c:\users\nhv90\projects\eech\aphavoc\source\entity\special\force\fc_dstry.c
;	COMDAT ?destroy_local@@YGXPAUENTITY@@@Z
_TEXT	SEGMENT
_destroy_campaign_criteria$1 = -8			; size = 4
_raw$ = -4						; size = 4
_en$ = 8						; size = 4
?destroy_local@@YGXPAUENTITY@@@Z PROC			; destroy_local, COMDAT

; 82   : {

  00000	55		 push	 ebp
  00001	8b ec		 mov	 ebp, esp
  00003	83 ec 48	 sub	 esp, 72			; 00000048H
  00006	53		 push	 ebx
  00007	56		 push	 esi
  00008	57		 push	 edi

; 83   : 	force
; 84   : 		*raw;
; 85   : 
; 86   : 	////////////////////////////////////////
; 87   : 	//
; 88   : 	// PRE-AMBLE
; 89   : 	//
; 90   : 	////////////////////////////////////////
; 91   : 
; 92   : 	#if DEBUG_MODULE
; 93   : 
; 94   : 	debug_log_entity_args (ENTITY_DEBUG_LOCAL, ENTITY_DEBUG_DESTROY, en);
; 95   : 
; 96   : 	#endif
; 97   : 
; 98   : 	raw = (force *) get_local_entity_data (en);

  00009	8b 45 08	 mov	 eax, DWORD PTR _en$[ebp]
  0000c	8b 48 04	 mov	 ecx, DWORD PTR [eax+4]
  0000f	89 4d fc	 mov	 DWORD PTR _raw$[ebp], ecx

; 99   : 
; 100  : 	////////////////////////////////////////
; 101  : 	//
; 102  : 	// VALIDATE
; 103  : 	//
; 104  : 	////////////////////////////////////////
; 105  : 
; 106  : 	ASSERT (!raw->keysite_force_root.first_child);

  00012	8b 45 fc	 mov	 eax, DWORD PTR _raw$[ebp]
  00015	83 b8 04 01 00
	00 00		 cmp	 DWORD PTR [eax+260], 0
  0001c	74 18		 je	 SHORT $LN4@destroy_lo
  0001e	a1 00 00 00 00	 mov	 eax, DWORD PTR ?__LINE__Var@?0??destroy_local@@YGXPAUENTITY@@@Z@4JA
  00023	83 c0 18	 add	 eax, 24			; 00000018H
  00026	50		 push	 eax
  00027	68 00 00 00 00	 push	 OFFSET ??_C@_0EM@FADLFBEL@c?3?2users?2nhv90?2projects?2eech?2ap@
  0002c	68 00 00 00 00	 push	 OFFSET ??_C@_0CF@LKNGPCKM@?$CBraw?9?$DOkeysite_force_root?4first_@
  00031	e8 00 00 00 00	 call	 ?process_assert@@YGXPBD0H@Z ; process_assert
$LN4@destroy_lo:

; 107  : 
; 108  : 	ASSERT (!raw->pilot_root.first_child);

  00036	8b 45 fc	 mov	 eax, DWORD PTR _raw$[ebp]
  00039	83 b8 0c 01 00
	00 00		 cmp	 DWORD PTR [eax+268], 0
  00040	74 18		 je	 SHORT $LN5@destroy_lo
  00042	a1 00 00 00 00	 mov	 eax, DWORD PTR ?__LINE__Var@?0??destroy_local@@YGXPAUENTITY@@@Z@4JA
  00047	83 c0 1a	 add	 eax, 26			; 0000001aH
  0004a	50		 push	 eax
  0004b	68 00 00 00 00	 push	 OFFSET ??_C@_0EM@FADLFBEL@c?3?2users?2nhv90?2projects?2eech?2ap@
  00050	68 00 00 00 00	 push	 OFFSET ??_C@_0BN@NEKKIJCL@?$CBraw?9?$DOpilot_root?4first_child@
  00055	e8 00 00 00 00	 call	 ?process_assert@@YGXPBD0H@Z ; process_assert
$LN5@destroy_lo:

; 109  : 
; 110  : 	////////////////////////////////////////
; 111  : 	//
; 112  : 	// DEBUG
; 113  : 	//
; 114  : 	////////////////////////////////////////
; 115  : 
; 116  : 	#ifdef DEBUG
; 117  : 
; 118  : 	display_task_generation_stats (en);

  0005a	8b 45 08	 mov	 eax, DWORD PTR _en$[ebp]
  0005d	50		 push	 eax
  0005e	e8 00 00 00 00	 call	 ?display_task_generation_stats@@YGXPAUENTITY@@@Z ; display_task_generation_stats

; 119  : 
; 120  : 	#endif
; 121  : 
; 122  : 	////////////////////////////////////////
; 123  : 	//
; 124  : 	// DESTROY COMPONENTS
; 125  : 	//
; 126  : 	////////////////////////////////////////
; 127  : 
; 128  : 	if (raw->campaign_criteria)

  00063	8b 45 fc	 mov	 eax, DWORD PTR _raw$[ebp]
  00066	83 b8 1c 03 00
	00 00		 cmp	 DWORD PTR [eax+796], 0
  0006d	74 38		 je	 SHORT $LN6@destroy_lo
$LN2@destroy_lo:

; 129  : 	{
; 130  : 
; 131  : 		campaign_criteria_type
; 132  : 			*destroy_campaign_criteria;
; 133  : 
; 134  : 		while (raw->campaign_criteria)

  0006f	8b 45 fc	 mov	 eax, DWORD PTR _raw$[ebp]
  00072	83 b8 1c 03 00
	00 00		 cmp	 DWORD PTR [eax+796], 0
  00079	74 2c		 je	 SHORT $LN6@destroy_lo

; 135  : 		{
; 136  : 	
; 137  : 			destroy_campaign_criteria = raw->campaign_criteria;

  0007b	8b 45 fc	 mov	 eax, DWORD PTR _raw$[ebp]
  0007e	8b 88 1c 03 00
	00		 mov	 ecx, DWORD PTR [eax+796]
  00084	89 4d f8	 mov	 DWORD PTR _destroy_campaign_criteria$1[ebp], ecx

; 138  : 	
; 139  : 			raw->campaign_criteria = raw->campaign_criteria->next;

  00087	8b 45 fc	 mov	 eax, DWORD PTR _raw$[ebp]
  0008a	8b 88 1c 03 00
	00		 mov	 ecx, DWORD PTR [eax+796]
  00090	8b 55 fc	 mov	 edx, DWORD PTR _raw$[ebp]
  00093	8b 41 20	 mov	 eax, DWORD PTR [ecx+32]
  00096	89 82 1c 03 00
	00		 mov	 DWORD PTR [edx+796], eax

; 140  : 
; 141  : 			free_mem (destroy_campaign_criteria);

  0009c	8b 45 f8	 mov	 eax, DWORD PTR _destroy_campaign_criteria$1[ebp]
  0009f	50		 push	 eax
  000a0	e8 00 00 00 00	 call	 ?free_mem@@YGXPAX@Z	; free_mem

; 142  : 		}

  000a5	eb c8		 jmp	 SHORT $LN2@destroy_lo
$LN6@destroy_lo:

; 143  : 	}
; 144  : 
; 145  : 	////////////////////////////////////////
; 146  : 	//
; 147  : 	// UNLINK FROM SYSTEM
; 148  : 	//
; 149  : 	////////////////////////////////////////
; 150  : 
; 151  : 	unlink_local_entity_children (en, LIST_TYPE_DIVISION);

  000a7	6a 0b		 push	 11			; 0000000bH
  000a9	8b 45 08	 mov	 eax, DWORD PTR _en$[ebp]
  000ac	50		 push	 eax
  000ad	e8 00 00 00 00	 call	 ?unlink_local_entity_children@@YGXPAUENTITY@@W4LIST_TYPES@@@Z ; unlink_local_entity_children

; 152  : 
; 153  : 	unlink_local_entity_children (en, LIST_TYPE_INDEPENDENT_GROUP);

  000b2	6a 14		 push	 20			; 00000014H
  000b4	8b 45 08	 mov	 eax, DWORD PTR _en$[ebp]
  000b7	50		 push	 eax
  000b8	e8 00 00 00 00	 call	 ?unlink_local_entity_children@@YGXPAUENTITY@@W4LIST_TYPES@@@Z ; unlink_local_entity_children

; 154  : 
; 155  : 	delete_local_entity_from_parents_child_list (en, LIST_TYPE_FORCE);

  000bd	6a 0e		 push	 14			; 0000000eH
  000bf	8b 45 08	 mov	 eax, DWORD PTR _en$[ebp]
  000c2	50		 push	 eax
  000c3	e8 00 00 00 00	 call	 ?delete_local_entity_from_parents_child_list@@YGXPAUENTITY@@W4LIST_TYPES@@@Z ; delete_local_entity_from_parents_child_list

; 156  : 
; 157  : 	delete_local_entity_from_parents_child_list (en, LIST_TYPE_UPDATE);

  000c8	6a 29		 push	 41			; 00000029H
  000ca	8b 45 08	 mov	 eax, DWORD PTR _en$[ebp]
  000cd	50		 push	 eax
  000ce	e8 00 00 00 00	 call	 ?delete_local_entity_from_parents_child_list@@YGXPAUENTITY@@W4LIST_TYPES@@@Z ; delete_local_entity_from_parents_child_list

; 158  : 
; 159  : 	////////////////////////////////////////
; 160  : 	//
; 161  : 	// FREE ENTITY DATA
; 162  : 	//
; 163  : 	////////////////////////////////////////
; 164  : 
; 165  : 	free_mem (raw);

  000d3	8b 45 fc	 mov	 eax, DWORD PTR _raw$[ebp]
  000d6	50		 push	 eax
  000d7	e8 00 00 00 00	 call	 ?free_mem@@YGXPAX@Z	; free_mem

; 166  : 
; 167  : 	set_free_entity (en);

  000dc	8b 45 08	 mov	 eax, DWORD PTR _en$[ebp]
  000df	50		 push	 eax
  000e0	e8 00 00 00 00	 call	 ?set_free_entity@@YGXPAUENTITY@@@Z ; set_free_entity

; 168  : }

  000e5	5f		 pop	 edi
  000e6	5e		 pop	 esi
  000e7	5b		 pop	 ebx
  000e8	8b e5		 mov	 esp, ebp
  000ea	5d		 pop	 ebp
  000eb	c2 04 00	 ret	 4
?destroy_local@@YGXPAUENTITY@@@Z ENDP			; destroy_local
_TEXT	ENDS
; Function compile flags: /Odtp /ZI
; File c:\users\nhv90\projects\eech\aphavoc\source\entity\special\force\fc_dstry.c
;	COMDAT ?overload_force_destroy_functions@@YGXXZ
_TEXT	SEGMENT
?overload_force_destroy_functions@@YGXXZ PROC		; overload_force_destroy_functions, COMDAT

; 287  : {

  00000	55		 push	 ebp
  00001	8b ec		 mov	 ebp, esp
  00003	83 ec 40	 sub	 esp, 64			; 00000040H
  00006	53		 push	 ebx
  00007	56		 push	 esi
  00008	57		 push	 edi

; 288  : 	fn_destroy_local_entity						[ENTITY_TYPE_FORCE]								= destroy_local;

  00009	b8 04 00 00 00	 mov	 eax, 4
  0000e	6b c8 0b	 imul	 ecx, eax, 11
  00011	c7 81 00 00 00
	00 00 00 00 00	 mov	 DWORD PTR ?fn_destroy_local_entity@@3PAP6GXPAUENTITY@@@ZA[ecx], OFFSET ?destroy_local@@YGXPAUENTITY@@@Z ; destroy_local

; 289  : 	fn_destroy_client_server_entity			[ENTITY_TYPE_FORCE][COMMS_MODEL_SERVER]	= destroy_server;

  0001b	b8 08 00 00 00	 mov	 eax, 8
  00020	6b c8 0b	 imul	 ecx, eax, 11
  00023	ba 04 00 00 00	 mov	 edx, 4
  00028	6b c2 00	 imul	 eax, edx, 0
  0002b	c7 84 01 00 00
	00 00 00 00 00
	00		 mov	 DWORD PTR ?fn_destroy_client_server_entity@@3PAY01P6GXPAUENTITY@@@ZA[ecx+eax], OFFSET ?destroy_server@@YGXPAUENTITY@@@Z ; destroy_server

; 290  : 	fn_destroy_client_server_entity			[ENTITY_TYPE_FORCE][COMMS_MODEL_CLIENT]	= destroy_client;

  00036	b8 08 00 00 00	 mov	 eax, 8
  0003b	6b c8 0b	 imul	 ecx, eax, 11
  0003e	ba 04 00 00 00	 mov	 edx, 4
  00043	c1 e2 00	 shl	 edx, 0
  00046	c7 84 11 00 00
	00 00 00 00 00
	00		 mov	 DWORD PTR ?fn_destroy_client_server_entity@@3PAY01P6GXPAUENTITY@@@ZA[ecx+edx], OFFSET ?destroy_client@@YGXPAUENTITY@@@Z ; destroy_client

; 291  : 
; 292  : 	fn_destroy_local_entity_family			[ENTITY_TYPE_FORCE]								= destroy_local_family;

  00051	b8 04 00 00 00	 mov	 eax, 4
  00056	6b c8 0b	 imul	 ecx, eax, 11
  00059	c7 81 00 00 00
	00 00 00 00 00	 mov	 DWORD PTR ?fn_destroy_local_entity_family@@3PAP6GXPAUENTITY@@@ZA[ecx], OFFSET ?destroy_local_family@@YGXPAUENTITY@@@Z ; destroy_local_family

; 293  : 	fn_destroy_client_server_entity_family	[ENTITY_TYPE_FORCE][COMMS_MODEL_SERVER]	= destroy_server_family;

  00063	b8 08 00 00 00	 mov	 eax, 8
  00068	6b c8 0b	 imul	 ecx, eax, 11
  0006b	ba 04 00 00 00	 mov	 edx, 4
  00070	6b c2 00	 imul	 eax, edx, 0
  00073	c7 84 01 00 00
	00 00 00 00 00
	00		 mov	 DWORD PTR ?fn_destroy_client_server_entity_family@@3PAY01P6GXPAUENTITY@@@ZA[ecx+eax], OFFSET ?destroy_server_family@@YGXPAUENTITY@@@Z ; destroy_server_family

; 294  : 	fn_destroy_client_server_entity_family	[ENTITY_TYPE_FORCE][COMMS_MODEL_CLIENT]	= destroy_client_family;

  0007e	b8 08 00 00 00	 mov	 eax, 8
  00083	6b c8 0b	 imul	 ecx, eax, 11
  00086	ba 04 00 00 00	 mov	 edx, 4
  0008b	c1 e2 00	 shl	 edx, 0
  0008e	c7 84 11 00 00
	00 00 00 00 00
	00		 mov	 DWORD PTR ?fn_destroy_client_server_entity_family@@3PAY01P6GXPAUENTITY@@@ZA[ecx+edx], OFFSET ?destroy_client_family@@YGXPAUENTITY@@@Z ; destroy_client_family

; 295  : 
; 296  : 	fn_kill_local_entity							[ENTITY_TYPE_FORCE]								= destroy_local_family;

  00099	b8 04 00 00 00	 mov	 eax, 4
  0009e	6b c8 0b	 imul	 ecx, eax, 11
  000a1	c7 81 00 00 00
	00 00 00 00 00	 mov	 DWORD PTR ?fn_kill_local_entity@@3PAP6GXPAUENTITY@@@ZA[ecx], OFFSET ?destroy_local_family@@YGXPAUENTITY@@@Z ; destroy_local_family

; 297  : 	fn_kill_client_server_entity				[ENTITY_TYPE_FORCE][COMMS_MODEL_SERVER]	= destroy_server_family;

  000ab	b8 08 00 00 00	 mov	 eax, 8
  000b0	6b c8 0b	 imul	 ecx, eax, 11
  000b3	ba 04 00 00 00	 mov	 edx, 4
  000b8	6b c2 00	 imul	 eax, edx, 0
  000bb	c7 84 01 00 00
	00 00 00 00 00
	00		 mov	 DWORD PTR ?fn_kill_client_server_entity@@3PAY01P6GXPAUENTITY@@@ZA[ecx+eax], OFFSET ?destroy_server_family@@YGXPAUENTITY@@@Z ; destroy_server_family

; 298  : 	fn_kill_client_server_entity				[ENTITY_TYPE_FORCE][COMMS_MODEL_CLIENT]	= destroy_client_family;

  000c6	b8 08 00 00 00	 mov	 eax, 8
  000cb	6b c8 0b	 imul	 ecx, eax, 11
  000ce	ba 04 00 00 00	 mov	 edx, 4
  000d3	c1 e2 00	 shl	 edx, 0
  000d6	c7 84 11 00 00
	00 00 00 00 00
	00		 mov	 DWORD PTR ?fn_kill_client_server_entity@@3PAY01P6GXPAUENTITY@@@ZA[ecx+edx], OFFSET ?destroy_client_family@@YGXPAUENTITY@@@Z ; destroy_client_family

; 299  : }

  000e1	5f		 pop	 edi
  000e2	5e		 pop	 esi
  000e3	5b		 pop	 ebx
  000e4	8b e5		 mov	 esp, ebp
  000e6	5d		 pop	 ebp
  000e7	c3		 ret	 0
?overload_force_destroy_functions@@YGXXZ ENDP		; overload_force_destroy_functions
_TEXT	ENDS
END
