; Listing generated by Microsoft (R) Optimizing Compiler Version 19.16.27045.0 

	TITLE	C:\Users\nhv90\Projects\eech\aphavoc\source\entity\special\force\fc_int.c
	.686P
	.XMM
	include listing.inc
	.model	flat

INCLUDELIB MSVCRTD
INCLUDELIB OLDNAMES

PUBLIC	?overload_force_int_value_functions@@YGXXZ	; overload_force_int_value_functions
PUBLIC	?__LINE__Var@?0??set_local_int_value@@YGXPAUENTITY@@W4INT_TYPES@@H@Z@4JA ; `set_local_int_value'::`1'::__LINE__Var
PUBLIC	??_C@_0EK@GDLDMLKJ@c?3?2users?2nhv90?2projects?2eech?2ap@ ; `string'
PUBLIC	?__LINE__Var@?0??set_server_int_value@@YGXPAUENTITY@@W4INT_TYPES@@H@Z@4JA ; `set_server_int_value'::`1'::__LINE__Var
PUBLIC	??_C@_0CB@CFOCLFOK@assert_client_server_local_fn?5?$CI@ ; `string'
PUBLIC	??_C@_0CC@BNNNEGEG@assert_client_server_remote_fn?5@ ; `string'
PUBLIC	?__LINE__Var@?0??set_client_int_value@@YGXPAUENTITY@@W4INT_TYPES@@H@Z@4JA ; `set_client_int_value'::`1'::__LINE__Var
PUBLIC	?__LINE__Var@?0??get_local_int_value@@YGHPAUENTITY@@W4INT_TYPES@@@Z@4JA ; `get_local_int_value'::`1'::__LINE__Var
EXTRN	?process_assert@@YGXPBD0H@Z:PROC		; process_assert
EXTRN	?debug_fatal@@YAXPBDZZ:PROC			; debug_fatal
EXTRN	?transmit_entity_comms_message@@YAXW4ENTITY_COMMS_MESSAGES@@PAUENTITY@@ZZ:PROC ; transmit_entity_comms_message
EXTRN	?assert_client_server_local_fn@@YGHXZ:PROC	; assert_client_server_local_fn
EXTRN	?assert_client_server_remote_fn@@YGHXZ:PROC	; assert_client_server_remote_fn
EXTRN	?null_entity_pointer_message@@3PBDB:DWORD	; null_entity_pointer_message
EXTRN	?entity_type_database@@3PAUENTITY_TYPE_DATA@@A:BYTE ; entity_type_database
EXTRN	?system_comms_data_flow@@3W4COMMS_DATA_FLOW_TYPES@@A:DWORD ; system_comms_data_flow
EXTRN	?int_type_database@@3PAUINT_TYPE_DATA@@A:BYTE	; int_type_database
EXTRN	?debug_fatal_invalid_int_type_message@@3PBDB:DWORD ; debug_fatal_invalid_int_type_message
EXTRN	?fn_set_local_entity_raw_int_value@@3PAY0BBH@P6GXPAUENTITY@@W4INT_TYPES@@H@ZA:BYTE ; fn_set_local_entity_raw_int_value
EXTRN	?fn_set_local_entity_int_value@@3PAY0BBH@P6GXPAUENTITY@@W4INT_TYPES@@H@ZA:BYTE ; fn_set_local_entity_int_value
EXTRN	?fn_set_client_server_entity_int_value@@3PAY1BBH@1P6GXPAUENTITY@@W4INT_TYPES@@H@ZA:BYTE ; fn_set_client_server_entity_int_value
EXTRN	?fn_get_local_entity_int_value@@3PAY0BBH@P6GHPAUENTITY@@W4INT_TYPES@@@ZA:BYTE ; fn_get_local_entity_int_value
EXTRN	?entities@@3PAUENTITY@@A:DWORD			; entities
;	COMDAT ?__LINE__Var@?0??get_local_int_value@@YGHPAUENTITY@@W4INT_TYPES@@@Z@4JA
_DATA	SEGMENT
?__LINE__Var@?0??get_local_int_value@@YGHPAUENTITY@@W4INT_TYPES@@@Z@4JA DD 0c0H ; `get_local_int_value'::`1'::__LINE__Var
_DATA	ENDS
;	COMDAT ?__LINE__Var@?0??set_client_int_value@@YGXPAUENTITY@@W4INT_TYPES@@H@Z@4JA
_DATA	SEGMENT
?__LINE__Var@?0??set_client_int_value@@YGXPAUENTITY@@W4INT_TYPES@@H@Z@4JA DD 0acH ; `set_client_int_value'::`1'::__LINE__Var
_DATA	ENDS
;	COMDAT ??_C@_0CC@BNNNEGEG@assert_client_server_remote_fn?5@
CONST	SEGMENT
??_C@_0CC@BNNNEGEG@assert_client_server_remote_fn?5@ DB 'assert_client_se'
	DB	'rver_remote_fn ()', 00H			; `string'
CONST	ENDS
;	COMDAT ??_C@_0CB@CFOCLFOK@assert_client_server_local_fn?5?$CI@
CONST	SEGMENT
??_C@_0CB@CFOCLFOK@assert_client_server_local_fn?5?$CI@ DB 'assert_client'
	DB	'_server_local_fn ()', 00H			; `string'
CONST	ENDS
;	COMDAT ?__LINE__Var@?0??set_server_int_value@@YGXPAUENTITY@@W4INT_TYPES@@H@Z@4JA
_DATA	SEGMENT
?__LINE__Var@?0??set_server_int_value@@YGXPAUENTITY@@W4INT_TYPES@@H@Z@4JA DD 09dH ; `set_server_int_value'::`1'::__LINE__Var
_DATA	ENDS
;	COMDAT ??_C@_0EK@GDLDMLKJ@c?3?2users?2nhv90?2projects?2eech?2ap@
CONST	SEGMENT
??_C@_0EK@GDLDMLKJ@c?3?2users?2nhv90?2projects?2eech?2ap@ DB 'c:\users\nh'
	DB	'v90\projects\eech\aphavoc\source\entity\special\force\fc_int.'
	DB	'c', 00H					; `string'
CONST	ENDS
;	COMDAT ?__LINE__Var@?0??set_local_int_value@@YGXPAUENTITY@@W4INT_TYPES@@H@Z@4JA
_DATA	SEGMENT
?__LINE__Var@?0??set_local_int_value@@YGXPAUENTITY@@W4INT_TYPES@@H@Z@4JA DD 050H ; `set_local_int_value'::`1'::__LINE__Var
_DATA	ENDS
; Function compile flags: /Odtp /ZI
; File c:\users\nhv90\projects\eech\aphavoc\source\entity\special\force\fc_int.c
;	COMDAT ?get_local_int_value@@YGHPAUENTITY@@W4INT_TYPES@@@Z
_TEXT	SEGMENT
tv91 = -76						; size = 4
tv65 = -76						; size = 4
_value$ = -8						; size = 4
_raw$ = -4						; size = 4
_en$ = 8						; size = 4
_type$ = 12						; size = 4
?get_local_int_value@@YGHPAUENTITY@@W4INT_TYPES@@@Z PROC ; get_local_int_value, COMDAT

; 192  : {

  00000	55		 push	 ebp
  00001	8b ec		 mov	 ebp, esp
  00003	83 ec 4c	 sub	 esp, 76			; 0000004cH
  00006	53		 push	 ebx
  00007	56		 push	 esi
  00008	57		 push	 edi

; 193  : 	force
; 194  : 		*raw;
; 195  : 
; 196  : 	int
; 197  : 		value;
; 198  : 
; 199  : 	raw = (force *) get_local_entity_data (en);

  00009	8b 45 08	 mov	 eax, DWORD PTR _en$[ebp]
  0000c	8b 48 04	 mov	 ecx, DWORD PTR [eax+4]
  0000f	89 4d fc	 mov	 DWORD PTR _raw$[ebp], ecx

; 200  : 
; 201  : 	switch (type)

  00012	8b 45 0c	 mov	 eax, DWORD PTR _type$[ebp]
  00015	89 45 b4	 mov	 DWORD PTR tv65[ebp], eax
  00018	8b 4d b4	 mov	 ecx, DWORD PTR tv65[ebp]
  0001b	83 e9 1c	 sub	 ecx, 28			; 0000001cH
  0001e	89 4d b4	 mov	 DWORD PTR tv65[ebp], ecx
  00021	81 7d b4 9f 00
	00 00		 cmp	 DWORD PTR tv65[ebp], 159 ; 0000009fH
  00028	77 64		 ja	 SHORT $LN8@get_local_
  0002a	8b 55 b4	 mov	 edx, DWORD PTR tv65[ebp]
  0002d	0f b6 82 00 00
	00 00		 movzx	 eax, BYTE PTR $LN12@get_local_[edx]
  00034	ff 24 85 00 00
	00 00		 jmp	 DWORD PTR $LN13@get_local_[eax*4]
$LN4@get_local_:

; 202  : 	{
; 203  : 		////////////////////////////////////////
; 204  : 		case INT_TYPE_COLOUR:
; 205  : 		////////////////////////////////////////
; 206  : 		{
; 207  : 			value = raw->colour;

  0003b	8b 45 fc	 mov	 eax, DWORD PTR _raw$[ebp]
  0003e	8b 88 a0 04 00
	00		 mov	 ecx, DWORD PTR [eax+1184]
  00044	c1 e9 08	 shr	 ecx, 8
  00047	83 e1 0f	 and	 ecx, 15			; 0000000fH
  0004a	89 4d f8	 mov	 DWORD PTR _value$[ebp], ecx

; 208  : 
; 209  : 			break;

  0004d	e9 ae 00 00 00	 jmp	 $LN2@get_local_
$LN5@get_local_:

; 210  : 		}
; 211  : 		////////////////////////////////////////
; 212  : 		case INT_TYPE_FORCE_ATTITUDE:
; 213  : 		////////////////////////////////////////
; 214  : 		{
; 215  : 			value = raw->force_attitude;

  00052	8b 45 fc	 mov	 eax, DWORD PTR _raw$[ebp]
  00055	8b 88 a0 04 00
	00		 mov	 ecx, DWORD PTR [eax+1184]
  0005b	81 e1 ff 00 00
	00		 and	 ecx, 255		; 000000ffH
  00061	89 4d f8	 mov	 DWORD PTR _value$[ebp], ecx

; 216  : 
; 217  : 			break;

  00064	e9 97 00 00 00	 jmp	 $LN2@get_local_
$LN6@get_local_:

; 218  : 		}
; 219  : 		////////////////////////////////////////
; 220  : 		case INT_TYPE_FORCE_SECTOR_COUNT:
; 221  : 		////////////////////////////////////////
; 222  : 		{
; 223  : 			value = raw->sector_count;

  00069	8b 45 fc	 mov	 eax, DWORD PTR _raw$[ebp]
  0006c	8b 88 98 04 00
	00		 mov	 ecx, DWORD PTR [eax+1176]
  00072	89 4d f8	 mov	 DWORD PTR _value$[ebp], ecx

; 224  : 
; 225  : 			break;

  00075	e9 86 00 00 00	 jmp	 $LN2@get_local_
$LN7@get_local_:

; 226  : 		}
; 227  : 		////////////////////////////////////////
; 228  : 		case INT_TYPE_SIDE:
; 229  : 		////////////////////////////////////////
; 230  : 		{
; 231  : 			value = raw->side;

  0007a	8b 45 fc	 mov	 eax, DWORD PTR _raw$[ebp]
  0007d	8b 88 a0 04 00
	00		 mov	 ecx, DWORD PTR [eax+1184]
  00083	c1 e9 0c	 shr	 ecx, 12			; 0000000cH
  00086	83 e1 03	 and	 ecx, 3
  00089	89 4d f8	 mov	 DWORD PTR _value$[ebp], ecx

; 232  : 
; 233  : 			break;

  0008c	eb 72		 jmp	 SHORT $LN2@get_local_
$LN8@get_local_:

; 234  : 		}
; 235  : 		////////////////////////////////////////
; 236  : 		default:
; 237  : 		////////////////////////////////////////
; 238  : 		{
; 239  : 			debug_fatal_invalid_int_type (en, type);

  0008e	83 7d 08 00	 cmp	 DWORD PTR _en$[ebp], 0
  00092	74 0a		 je	 SHORT $LN10@get_local_
  00094	8b 45 08	 mov	 eax, DWORD PTR _en$[ebp]
  00097	8b 08		 mov	 ecx, DWORD PTR [eax]
  00099	89 4d b4	 mov	 DWORD PTR tv91[ebp], ecx
  0009c	eb 21		 jmp	 SHORT $LN11@get_local_
$LN10@get_local_:
  0009e	8b 15 00 00 00
	00		 mov	 edx, DWORD PTR ?__LINE__Var@?0??get_local_int_value@@YGHPAUENTITY@@W4INT_TYPES@@@Z@4JA
  000a4	83 c2 2f	 add	 edx, 47			; 0000002fH
  000a7	52		 push	 edx
  000a8	68 00 00 00 00	 push	 OFFSET ??_C@_0EK@GDLDMLKJ@c?3?2users?2nhv90?2projects?2eech?2ap@
  000ad	a1 00 00 00 00	 mov	 eax, DWORD PTR ?null_entity_pointer_message@@3PBDB ; null_entity_pointer_message
  000b2	50		 push	 eax
  000b3	e8 00 00 00 00	 call	 ?process_assert@@YGXPBD0H@Z ; process_assert
  000b8	c7 45 b4 00 00
	00 00		 mov	 DWORD PTR tv91[ebp], 0
$LN11@get_local_:
  000bf	8b 0d 00 00 00
	00		 mov	 ecx, DWORD PTR ?__LINE__Var@?0??get_local_int_value@@YGHPAUENTITY@@W4INT_TYPES@@@Z@4JA
  000c5	83 c1 2f	 add	 ecx, 47			; 0000002fH
  000c8	51		 push	 ecx
  000c9	68 00 00 00 00	 push	 OFFSET ??_C@_0EK@GDLDMLKJ@c?3?2users?2nhv90?2projects?2eech?2ap@
  000ce	6b 55 0c 14	 imul	 edx, DWORD PTR _type$[ebp], 20
  000d2	8b 82 00 00 00
	00		 mov	 eax, DWORD PTR ?int_type_database@@3PAUINT_TYPE_DATA@@A[edx]
  000d8	50		 push	 eax
  000d9	8b 4d 08	 mov	 ecx, DWORD PTR _en$[ebp]
  000dc	2b 0d 00 00 00
	00		 sub	 ecx, DWORD PTR ?entities@@3PAUENTITY@@A ; entities
  000e2	c1 f9 04	 sar	 ecx, 4
  000e5	51		 push	 ecx
  000e6	6b 55 b4 0c	 imul	 edx, DWORD PTR tv91[ebp], 12
  000ea	8b 82 00 00 00
	00		 mov	 eax, DWORD PTR ?entity_type_database@@3PAUENTITY_TYPE_DATA@@A[edx]
  000f0	50		 push	 eax
  000f1	8b 0d 00 00 00
	00		 mov	 ecx, DWORD PTR ?debug_fatal_invalid_int_type_message@@3PBDB ; debug_fatal_invalid_int_type_message
  000f7	51		 push	 ecx
  000f8	e8 00 00 00 00	 call	 ?debug_fatal@@YAXPBDZZ	; debug_fatal
  000fd	83 c4 18	 add	 esp, 24			; 00000018H
$LN2@get_local_:

; 240  : 
; 241  : 			break;
; 242  : 		}
; 243  : 	}
; 244  : 
; 245  : 	return (value);

  00100	8b 45 f8	 mov	 eax, DWORD PTR _value$[ebp]

; 246  : }

  00103	5f		 pop	 edi
  00104	5e		 pop	 esi
  00105	5b		 pop	 ebx
  00106	8b e5		 mov	 esp, ebp
  00108	5d		 pop	 ebp
  00109	c2 08 00	 ret	 8
$LN13@get_local_:
  0010c	00 00 00 00	 DD	 $LN4@get_local_
  00110	00 00 00 00	 DD	 $LN5@get_local_
  00114	00 00 00 00	 DD	 $LN6@get_local_
  00118	00 00 00 00	 DD	 $LN7@get_local_
  0011c	00 00 00 00	 DD	 $LN8@get_local_
$LN12@get_local_:
  00120	00		 DB	 0
  00121	04		 DB	 4
  00122	04		 DB	 4
  00123	04		 DB	 4
  00124	04		 DB	 4
  00125	04		 DB	 4
  00126	04		 DB	 4
  00127	04		 DB	 4
  00128	04		 DB	 4
  00129	04		 DB	 4
  0012a	04		 DB	 4
  0012b	04		 DB	 4
  0012c	04		 DB	 4
  0012d	04		 DB	 4
  0012e	04		 DB	 4
  0012f	04		 DB	 4
  00130	04		 DB	 4
  00131	04		 DB	 4
  00132	04		 DB	 4
  00133	04		 DB	 4
  00134	04		 DB	 4
  00135	04		 DB	 4
  00136	04		 DB	 4
  00137	04		 DB	 4
  00138	04		 DB	 4
  00139	04		 DB	 4
  0013a	04		 DB	 4
  0013b	04		 DB	 4
  0013c	04		 DB	 4
  0013d	04		 DB	 4
  0013e	04		 DB	 4
  0013f	01		 DB	 1
  00140	04		 DB	 4
  00141	02		 DB	 2
  00142	04		 DB	 4
  00143	04		 DB	 4
  00144	04		 DB	 4
  00145	04		 DB	 4
  00146	04		 DB	 4
  00147	04		 DB	 4
  00148	04		 DB	 4
  00149	04		 DB	 4
  0014a	04		 DB	 4
  0014b	04		 DB	 4
  0014c	04		 DB	 4
  0014d	04		 DB	 4
  0014e	04		 DB	 4
  0014f	04		 DB	 4
  00150	04		 DB	 4
  00151	04		 DB	 4
  00152	04		 DB	 4
  00153	04		 DB	 4
  00154	04		 DB	 4
  00155	04		 DB	 4
  00156	04		 DB	 4
  00157	04		 DB	 4
  00158	04		 DB	 4
  00159	04		 DB	 4
  0015a	04		 DB	 4
  0015b	04		 DB	 4
  0015c	04		 DB	 4
  0015d	04		 DB	 4
  0015e	04		 DB	 4
  0015f	04		 DB	 4
  00160	04		 DB	 4
  00161	04		 DB	 4
  00162	04		 DB	 4
  00163	04		 DB	 4
  00164	04		 DB	 4
  00165	04		 DB	 4
  00166	04		 DB	 4
  00167	04		 DB	 4
  00168	04		 DB	 4
  00169	04		 DB	 4
  0016a	04		 DB	 4
  0016b	04		 DB	 4
  0016c	04		 DB	 4
  0016d	04		 DB	 4
  0016e	04		 DB	 4
  0016f	04		 DB	 4
  00170	04		 DB	 4
  00171	04		 DB	 4
  00172	04		 DB	 4
  00173	04		 DB	 4
  00174	04		 DB	 4
  00175	04		 DB	 4
  00176	04		 DB	 4
  00177	04		 DB	 4
  00178	04		 DB	 4
  00179	04		 DB	 4
  0017a	04		 DB	 4
  0017b	04		 DB	 4
  0017c	04		 DB	 4
  0017d	04		 DB	 4
  0017e	04		 DB	 4
  0017f	04		 DB	 4
  00180	04		 DB	 4
  00181	04		 DB	 4
  00182	04		 DB	 4
  00183	04		 DB	 4
  00184	04		 DB	 4
  00185	04		 DB	 4
  00186	04		 DB	 4
  00187	04		 DB	 4
  00188	04		 DB	 4
  00189	04		 DB	 4
  0018a	04		 DB	 4
  0018b	04		 DB	 4
  0018c	04		 DB	 4
  0018d	04		 DB	 4
  0018e	04		 DB	 4
  0018f	04		 DB	 4
  00190	04		 DB	 4
  00191	04		 DB	 4
  00192	04		 DB	 4
  00193	04		 DB	 4
  00194	04		 DB	 4
  00195	04		 DB	 4
  00196	04		 DB	 4
  00197	04		 DB	 4
  00198	04		 DB	 4
  00199	04		 DB	 4
  0019a	04		 DB	 4
  0019b	04		 DB	 4
  0019c	04		 DB	 4
  0019d	04		 DB	 4
  0019e	04		 DB	 4
  0019f	04		 DB	 4
  001a0	04		 DB	 4
  001a1	04		 DB	 4
  001a2	04		 DB	 4
  001a3	04		 DB	 4
  001a4	04		 DB	 4
  001a5	04		 DB	 4
  001a6	04		 DB	 4
  001a7	04		 DB	 4
  001a8	04		 DB	 4
  001a9	04		 DB	 4
  001aa	04		 DB	 4
  001ab	04		 DB	 4
  001ac	04		 DB	 4
  001ad	04		 DB	 4
  001ae	04		 DB	 4
  001af	04		 DB	 4
  001b0	04		 DB	 4
  001b1	04		 DB	 4
  001b2	04		 DB	 4
  001b3	04		 DB	 4
  001b4	04		 DB	 4
  001b5	04		 DB	 4
  001b6	04		 DB	 4
  001b7	04		 DB	 4
  001b8	04		 DB	 4
  001b9	04		 DB	 4
  001ba	04		 DB	 4
  001bb	04		 DB	 4
  001bc	04		 DB	 4
  001bd	04		 DB	 4
  001be	04		 DB	 4
  001bf	03		 DB	 3
?get_local_int_value@@YGHPAUENTITY@@W4INT_TYPES@@@Z ENDP ; get_local_int_value
_TEXT	ENDS
; Function compile flags: /Odtp /ZI
; File c:\users\nhv90\projects\eech\aphavoc\source\entity\special\force\fc_int.c
;	COMDAT ?set_client_int_value@@YGXPAUENTITY@@W4INT_TYPES@@H@Z
_TEXT	SEGMENT
_en$ = 8						; size = 4
_type$ = 12						; size = 4
_value$ = 16						; size = 4
?set_client_int_value@@YGXPAUENTITY@@W4INT_TYPES@@H@Z PROC ; set_client_int_value, COMDAT

; 172  : {

  00000	55		 push	 ebp
  00001	8b ec		 mov	 ebp, esp
  00003	83 ec 40	 sub	 esp, 64			; 00000040H
  00006	53		 push	 ebx
  00007	56		 push	 esi
  00008	57		 push	 edi

; 173  : 	if (get_comms_data_flow () == COMMS_DATA_FLOW_TX)

  00009	83 3d 00 00 00
	00 00		 cmp	 DWORD PTR ?system_comms_data_flow@@3W4COMMS_DATA_FLOW_TYPES@@A, 0 ; system_comms_data_flow
  00010	75 34		 jne	 SHORT $LN2@set_client

; 174  : 	{
; 175  : 		validate_client_server_remote_fn ();

  00012	e8 00 00 00 00	 call	 ?assert_client_server_remote_fn@@YGHXZ ; assert_client_server_remote_fn
  00017	85 c0		 test	 eax, eax
  00019	75 18		 jne	 SHORT $LN4@set_client
  0001b	a1 00 00 00 00	 mov	 eax, DWORD PTR ?__LINE__Var@?0??set_client_int_value@@YGXPAUENTITY@@W4INT_TYPES@@H@Z@4JA
  00020	83 c0 03	 add	 eax, 3
  00023	50		 push	 eax
  00024	68 00 00 00 00	 push	 OFFSET ??_C@_0EK@GDLDMLKJ@c?3?2users?2nhv90?2projects?2eech?2ap@
  00029	68 00 00 00 00	 push	 OFFSET ??_C@_0CC@BNNNEGEG@assert_client_server_remote_fn?5@
  0002e	e8 00 00 00 00	 call	 ?process_assert@@YGXPBD0H@Z ; process_assert
$LN4@set_client:

; 176  : 
; 177  : 		set_remote_int_value (en, type, value);

  00033	8b 45 10	 mov	 eax, DWORD PTR _value$[ebp]
  00036	50		 push	 eax
  00037	8b 4d 0c	 mov	 ecx, DWORD PTR _type$[ebp]
  0003a	51		 push	 ecx
  0003b	8b 55 08	 mov	 edx, DWORD PTR _en$[ebp]
  0003e	52		 push	 edx
  0003f	e8 00 00 00 00	 call	 ?set_remote_int_value@@YGXPAUENTITY@@W4INT_TYPES@@H@Z ; set_remote_int_value

; 178  : 	}
; 179  : 	else

  00044	eb 32		 jmp	 SHORT $LN1@set_client
$LN2@set_client:

; 180  : 	{
; 181  : 		validate_client_server_local_fn ();

  00046	e8 00 00 00 00	 call	 ?assert_client_server_local_fn@@YGHXZ ; assert_client_server_local_fn
  0004b	85 c0		 test	 eax, eax
  0004d	75 18		 jne	 SHORT $LN5@set_client
  0004f	a1 00 00 00 00	 mov	 eax, DWORD PTR ?__LINE__Var@?0??set_client_int_value@@YGXPAUENTITY@@W4INT_TYPES@@H@Z@4JA
  00054	83 c0 09	 add	 eax, 9
  00057	50		 push	 eax
  00058	68 00 00 00 00	 push	 OFFSET ??_C@_0EK@GDLDMLKJ@c?3?2users?2nhv90?2projects?2eech?2ap@
  0005d	68 00 00 00 00	 push	 OFFSET ??_C@_0CB@CFOCLFOK@assert_client_server_local_fn?5?$CI@
  00062	e8 00 00 00 00	 call	 ?process_assert@@YGXPBD0H@Z ; process_assert
$LN5@set_client:

; 182  : 
; 183  : 		set_local_int_value (en, type, value);

  00067	8b 45 10	 mov	 eax, DWORD PTR _value$[ebp]
  0006a	50		 push	 eax
  0006b	8b 4d 0c	 mov	 ecx, DWORD PTR _type$[ebp]
  0006e	51		 push	 ecx
  0006f	8b 55 08	 mov	 edx, DWORD PTR _en$[ebp]
  00072	52		 push	 edx
  00073	e8 00 00 00 00	 call	 ?set_local_int_value@@YGXPAUENTITY@@W4INT_TYPES@@H@Z ; set_local_int_value
$LN1@set_client:

; 184  : 	}
; 185  : }

  00078	5f		 pop	 edi
  00079	5e		 pop	 esi
  0007a	5b		 pop	 ebx
  0007b	8b e5		 mov	 esp, ebp
  0007d	5d		 pop	 ebp
  0007e	c2 0c 00	 ret	 12			; 0000000cH
?set_client_int_value@@YGXPAUENTITY@@W4INT_TYPES@@H@Z ENDP ; set_client_int_value
_TEXT	ENDS
; Function compile flags: /Odtp /ZI
; File c:\users\nhv90\projects\eech\aphavoc\source\entity\special\force\fc_int.c
;	COMDAT ?set_server_int_value@@YGXPAUENTITY@@W4INT_TYPES@@H@Z
_TEXT	SEGMENT
_en$ = 8						; size = 4
_type$ = 12						; size = 4
_value$ = 16						; size = 4
?set_server_int_value@@YGXPAUENTITY@@W4INT_TYPES@@H@Z PROC ; set_server_int_value, COMDAT

; 157  : {

  00000	55		 push	 ebp
  00001	8b ec		 mov	 ebp, esp
  00003	83 ec 40	 sub	 esp, 64			; 00000040H
  00006	53		 push	 ebx
  00007	56		 push	 esi
  00008	57		 push	 edi

; 158  : 	validate_client_server_local_fn ();

  00009	e8 00 00 00 00	 call	 ?assert_client_server_local_fn@@YGHXZ ; assert_client_server_local_fn
  0000e	85 c0		 test	 eax, eax
  00010	75 18		 jne	 SHORT $LN2@set_server
  00012	a1 00 00 00 00	 mov	 eax, DWORD PTR ?__LINE__Var@?0??set_server_int_value@@YGXPAUENTITY@@W4INT_TYPES@@H@Z@4JA
  00017	83 c0 01	 add	 eax, 1
  0001a	50		 push	 eax
  0001b	68 00 00 00 00	 push	 OFFSET ??_C@_0EK@GDLDMLKJ@c?3?2users?2nhv90?2projects?2eech?2ap@
  00020	68 00 00 00 00	 push	 OFFSET ??_C@_0CB@CFOCLFOK@assert_client_server_local_fn?5?$CI@
  00025	e8 00 00 00 00	 call	 ?process_assert@@YGXPBD0H@Z ; process_assert
$LN2@set_server:

; 159  : 
; 160  : 	set_local_int_value (en, type, value);

  0002a	8b 45 10	 mov	 eax, DWORD PTR _value$[ebp]
  0002d	50		 push	 eax
  0002e	8b 4d 0c	 mov	 ecx, DWORD PTR _type$[ebp]
  00031	51		 push	 ecx
  00032	8b 55 08	 mov	 edx, DWORD PTR _en$[ebp]
  00035	52		 push	 edx
  00036	e8 00 00 00 00	 call	 ?set_local_int_value@@YGXPAUENTITY@@W4INT_TYPES@@H@Z ; set_local_int_value

; 161  : 
; 162  : 	validate_client_server_remote_fn ();

  0003b	e8 00 00 00 00	 call	 ?assert_client_server_remote_fn@@YGHXZ ; assert_client_server_remote_fn
  00040	85 c0		 test	 eax, eax
  00042	75 18		 jne	 SHORT $LN3@set_server
  00044	a1 00 00 00 00	 mov	 eax, DWORD PTR ?__LINE__Var@?0??set_server_int_value@@YGXPAUENTITY@@W4INT_TYPES@@H@Z@4JA
  00049	83 c0 05	 add	 eax, 5
  0004c	50		 push	 eax
  0004d	68 00 00 00 00	 push	 OFFSET ??_C@_0EK@GDLDMLKJ@c?3?2users?2nhv90?2projects?2eech?2ap@
  00052	68 00 00 00 00	 push	 OFFSET ??_C@_0CC@BNNNEGEG@assert_client_server_remote_fn?5@
  00057	e8 00 00 00 00	 call	 ?process_assert@@YGXPBD0H@Z ; process_assert
$LN3@set_server:

; 163  : 
; 164  : 	set_remote_int_value (en, type, value);

  0005c	8b 45 10	 mov	 eax, DWORD PTR _value$[ebp]
  0005f	50		 push	 eax
  00060	8b 4d 0c	 mov	 ecx, DWORD PTR _type$[ebp]
  00063	51		 push	 ecx
  00064	8b 55 08	 mov	 edx, DWORD PTR _en$[ebp]
  00067	52		 push	 edx
  00068	e8 00 00 00 00	 call	 ?set_remote_int_value@@YGXPAUENTITY@@W4INT_TYPES@@H@Z ; set_remote_int_value

; 165  : }

  0006d	5f		 pop	 edi
  0006e	5e		 pop	 esi
  0006f	5b		 pop	 ebx
  00070	8b e5		 mov	 esp, ebp
  00072	5d		 pop	 ebp
  00073	c2 0c 00	 ret	 12			; 0000000cH
?set_server_int_value@@YGXPAUENTITY@@W4INT_TYPES@@H@Z ENDP ; set_server_int_value
_TEXT	ENDS
; Function compile flags: /Odtp /ZI
; File c:\users\nhv90\projects\eech\aphavoc\source\entity\special\force\fc_int.c
;	COMDAT ?set_remote_int_value@@YGXPAUENTITY@@W4INT_TYPES@@H@Z
_TEXT	SEGMENT
_en$ = 8						; size = 4
_type$ = 12						; size = 4
_value$ = 16						; size = 4
?set_remote_int_value@@YGXPAUENTITY@@W4INT_TYPES@@H@Z PROC ; set_remote_int_value, COMDAT

; 142  : {

  00000	55		 push	 ebp
  00001	8b ec		 mov	 ebp, esp
  00003	83 ec 40	 sub	 esp, 64			; 00000040H
  00006	53		 push	 ebx
  00007	56		 push	 esi
  00008	57		 push	 edi

; 143  : 	#if DEBUG_MODULE
; 144  : 
; 145  : 	debug_log_entity_args (ENTITY_DEBUG_REMOTE, ENTITY_DEBUG_INT_VALUE, en, type, value);
; 146  : 
; 147  : 	#endif
; 148  : 
; 149  : 	transmit_entity_comms_message (ENTITY_COMMS_INT_VALUE, en, type, value);

  00009	8b 45 10	 mov	 eax, DWORD PTR _value$[ebp]
  0000c	50		 push	 eax
  0000d	8b 4d 0c	 mov	 ecx, DWORD PTR _type$[ebp]
  00010	51		 push	 ecx
  00011	8b 55 08	 mov	 edx, DWORD PTR _en$[ebp]
  00014	52		 push	 edx
  00015	6a 17		 push	 23			; 00000017H
  00017	e8 00 00 00 00	 call	 ?transmit_entity_comms_message@@YAXW4ENTITY_COMMS_MESSAGES@@PAUENTITY@@ZZ ; transmit_entity_comms_message
  0001c	83 c4 10	 add	 esp, 16			; 00000010H

; 150  : }

  0001f	5f		 pop	 edi
  00020	5e		 pop	 esi
  00021	5b		 pop	 ebx
  00022	8b e5		 mov	 esp, ebp
  00024	5d		 pop	 ebp
  00025	c2 0c 00	 ret	 12			; 0000000cH
?set_remote_int_value@@YGXPAUENTITY@@W4INT_TYPES@@H@Z ENDP ; set_remote_int_value
_TEXT	ENDS
; Function compile flags: /Odtp /ZI
; File c:\users\nhv90\projects\eech\aphavoc\source\entity\special\force\fc_int.c
;	COMDAT ?set_local_int_value@@YGXPAUENTITY@@W4INT_TYPES@@H@Z
_TEXT	SEGMENT
tv132 = -72						; size = 4
tv65 = -72						; size = 4
_raw$ = -4						; size = 4
_en$ = 8						; size = 4
_type$ = 12						; size = 4
_value$ = 16						; size = 4
?set_local_int_value@@YGXPAUENTITY@@W4INT_TYPES@@H@Z PROC ; set_local_int_value, COMDAT

; 80   : {

  00000	55		 push	 ebp
  00001	8b ec		 mov	 ebp, esp
  00003	83 ec 48	 sub	 esp, 72			; 00000048H
  00006	53		 push	 ebx
  00007	56		 push	 esi
  00008	57		 push	 edi

; 81   : 	force
; 82   : 		*raw;
; 83   : 
; 84   : 	#if DEBUG_MODULE
; 85   : 
; 86   : 	debug_log_entity_args (ENTITY_DEBUG_LOCAL, ENTITY_DEBUG_INT_VALUE, en, type, value);
; 87   : 
; 88   : 	#endif
; 89   : 
; 90   : 	raw = (force *) get_local_entity_data (en);

  00009	8b 45 08	 mov	 eax, DWORD PTR _en$[ebp]
  0000c	8b 48 04	 mov	 ecx, DWORD PTR [eax+4]
  0000f	89 4d fc	 mov	 DWORD PTR _raw$[ebp], ecx

; 91   : 
; 92   : 	switch (type)

  00012	8b 45 0c	 mov	 eax, DWORD PTR _type$[ebp]
  00015	89 45 b8	 mov	 DWORD PTR tv65[ebp], eax
  00018	8b 4d b8	 mov	 ecx, DWORD PTR tv65[ebp]
  0001b	83 e9 1c	 sub	 ecx, 28			; 0000001cH
  0001e	89 4d b8	 mov	 DWORD PTR tv65[ebp], ecx
  00021	81 7d b8 9f 00
	00 00		 cmp	 DWORD PTR tv65[ebp], 159 ; 0000009fH
  00028	0f 87 96 00 00
	00		 ja	 $LN8@set_local_
  0002e	8b 55 b8	 mov	 edx, DWORD PTR tv65[ebp]
  00031	0f b6 82 00 00
	00 00		 movzx	 eax, BYTE PTR $LN12@set_local_[edx]
  00038	ff 24 85 00 00
	00 00		 jmp	 DWORD PTR $LN13@set_local_[eax*4]
$LN4@set_local_:

; 93   : 	{
; 94   : 		////////////////////////////////////////
; 95   : 		case INT_TYPE_COLOUR:
; 96   : 		////////////////////////////////////////
; 97   : 		{
; 98   : 			raw->colour = value;

  0003f	8b 45 10	 mov	 eax, DWORD PTR _value$[ebp]
  00042	83 e0 0f	 and	 eax, 15			; 0000000fH
  00045	c1 e0 08	 shl	 eax, 8
  00048	8b 4d fc	 mov	 ecx, DWORD PTR _raw$[ebp]
  0004b	8b 91 a0 04 00
	00		 mov	 edx, DWORD PTR [ecx+1184]
  00051	81 e2 ff f0 ff
	ff		 and	 edx, -3841		; fffff0ffH
  00057	0b d0		 or	 edx, eax
  00059	8b 45 fc	 mov	 eax, DWORD PTR _raw$[ebp]
  0005c	89 90 a0 04 00
	00		 mov	 DWORD PTR [eax+1184], edx

; 99   : 
; 100  : 			break;

  00062	e9 cf 00 00 00	 jmp	 $LN1@set_local_
$LN5@set_local_:

; 101  : 		}
; 102  : 		////////////////////////////////////////
; 103  : 		case INT_TYPE_FORCE_ATTITUDE:
; 104  : 		////////////////////////////////////////
; 105  : 		{
; 106  : 			raw->force_attitude = value;

  00067	8b 45 10	 mov	 eax, DWORD PTR _value$[ebp]
  0006a	25 ff 00 00 00	 and	 eax, 255		; 000000ffH
  0006f	8b 4d fc	 mov	 ecx, DWORD PTR _raw$[ebp]
  00072	8b 91 a0 04 00
	00		 mov	 edx, DWORD PTR [ecx+1184]
  00078	81 e2 00 ff ff
	ff		 and	 edx, -256		; ffffff00H
  0007e	0b d0		 or	 edx, eax
  00080	8b 45 fc	 mov	 eax, DWORD PTR _raw$[ebp]
  00083	89 90 a0 04 00
	00		 mov	 DWORD PTR [eax+1184], edx

; 107  : 
; 108  : 			break;

  00089	e9 a8 00 00 00	 jmp	 $LN1@set_local_
$LN6@set_local_:

; 109  : 		}
; 110  : 		////////////////////////////////////////
; 111  : 		case INT_TYPE_FORCE_SECTOR_COUNT:
; 112  : 		////////////////////////////////////////
; 113  : 		{
; 114  : 			raw->sector_count = value;

  0008e	8b 45 fc	 mov	 eax, DWORD PTR _raw$[ebp]
  00091	8b 4d 10	 mov	 ecx, DWORD PTR _value$[ebp]
  00094	89 88 98 04 00
	00		 mov	 DWORD PTR [eax+1176], ecx

; 115  : 
; 116  : 			break;

  0009a	e9 97 00 00 00	 jmp	 $LN1@set_local_
$LN7@set_local_:

; 117  : 		}
; 118  : 		////////////////////////////////////////
; 119  : 		case INT_TYPE_SIDE:
; 120  : 		////////////////////////////////////////
; 121  : 		{
; 122  : 			raw->side = value;

  0009f	8b 45 10	 mov	 eax, DWORD PTR _value$[ebp]
  000a2	83 e0 03	 and	 eax, 3
  000a5	c1 e0 0c	 shl	 eax, 12			; 0000000cH
  000a8	8b 4d fc	 mov	 ecx, DWORD PTR _raw$[ebp]
  000ab	8b 91 a0 04 00
	00		 mov	 edx, DWORD PTR [ecx+1184]
  000b1	81 e2 ff cf ff
	ff		 and	 edx, -12289		; ffffcfffH
  000b7	0b d0		 or	 edx, eax
  000b9	8b 45 fc	 mov	 eax, DWORD PTR _raw$[ebp]
  000bc	89 90 a0 04 00
	00		 mov	 DWORD PTR [eax+1184], edx

; 123  : 
; 124  : 			break;

  000c2	eb 72		 jmp	 SHORT $LN1@set_local_
$LN8@set_local_:

; 125  : 		}
; 126  : 		////////////////////////////////////////
; 127  : 		default:
; 128  : 		////////////////////////////////////////
; 129  : 		{
; 130  : 			debug_fatal_invalid_int_type (en, type);

  000c4	83 7d 08 00	 cmp	 DWORD PTR _en$[ebp], 0
  000c8	74 0a		 je	 SHORT $LN10@set_local_
  000ca	8b 45 08	 mov	 eax, DWORD PTR _en$[ebp]
  000cd	8b 08		 mov	 ecx, DWORD PTR [eax]
  000cf	89 4d b8	 mov	 DWORD PTR tv132[ebp], ecx
  000d2	eb 21		 jmp	 SHORT $LN11@set_local_
$LN10@set_local_:
  000d4	8b 15 00 00 00
	00		 mov	 edx, DWORD PTR ?__LINE__Var@?0??set_local_int_value@@YGXPAUENTITY@@W4INT_TYPES@@H@Z@4JA
  000da	83 c2 32	 add	 edx, 50			; 00000032H
  000dd	52		 push	 edx
  000de	68 00 00 00 00	 push	 OFFSET ??_C@_0EK@GDLDMLKJ@c?3?2users?2nhv90?2projects?2eech?2ap@
  000e3	a1 00 00 00 00	 mov	 eax, DWORD PTR ?null_entity_pointer_message@@3PBDB ; null_entity_pointer_message
  000e8	50		 push	 eax
  000e9	e8 00 00 00 00	 call	 ?process_assert@@YGXPBD0H@Z ; process_assert
  000ee	c7 45 b8 00 00
	00 00		 mov	 DWORD PTR tv132[ebp], 0
$LN11@set_local_:
  000f5	8b 0d 00 00 00
	00		 mov	 ecx, DWORD PTR ?__LINE__Var@?0??set_local_int_value@@YGXPAUENTITY@@W4INT_TYPES@@H@Z@4JA
  000fb	83 c1 32	 add	 ecx, 50			; 00000032H
  000fe	51		 push	 ecx
  000ff	68 00 00 00 00	 push	 OFFSET ??_C@_0EK@GDLDMLKJ@c?3?2users?2nhv90?2projects?2eech?2ap@
  00104	6b 55 0c 14	 imul	 edx, DWORD PTR _type$[ebp], 20
  00108	8b 82 00 00 00
	00		 mov	 eax, DWORD PTR ?int_type_database@@3PAUINT_TYPE_DATA@@A[edx]
  0010e	50		 push	 eax
  0010f	8b 4d 08	 mov	 ecx, DWORD PTR _en$[ebp]
  00112	2b 0d 00 00 00
	00		 sub	 ecx, DWORD PTR ?entities@@3PAUENTITY@@A ; entities
  00118	c1 f9 04	 sar	 ecx, 4
  0011b	51		 push	 ecx
  0011c	6b 55 b8 0c	 imul	 edx, DWORD PTR tv132[ebp], 12
  00120	8b 82 00 00 00
	00		 mov	 eax, DWORD PTR ?entity_type_database@@3PAUENTITY_TYPE_DATA@@A[edx]
  00126	50		 push	 eax
  00127	8b 0d 00 00 00
	00		 mov	 ecx, DWORD PTR ?debug_fatal_invalid_int_type_message@@3PBDB ; debug_fatal_invalid_int_type_message
  0012d	51		 push	 ecx
  0012e	e8 00 00 00 00	 call	 ?debug_fatal@@YAXPBDZZ	; debug_fatal
  00133	83 c4 18	 add	 esp, 24			; 00000018H
$LN1@set_local_:

; 131  : 
; 132  : 			break;
; 133  : 		}
; 134  : 	}
; 135  : }

  00136	5f		 pop	 edi
  00137	5e		 pop	 esi
  00138	5b		 pop	 ebx
  00139	8b e5		 mov	 esp, ebp
  0013b	5d		 pop	 ebp
  0013c	c2 0c 00	 ret	 12			; 0000000cH
  0013f	90		 npad	 1
$LN13@set_local_:
  00140	00 00 00 00	 DD	 $LN4@set_local_
  00144	00 00 00 00	 DD	 $LN5@set_local_
  00148	00 00 00 00	 DD	 $LN6@set_local_
  0014c	00 00 00 00	 DD	 $LN7@set_local_
  00150	00 00 00 00	 DD	 $LN8@set_local_
$LN12@set_local_:
  00154	00		 DB	 0
  00155	04		 DB	 4
  00156	04		 DB	 4
  00157	04		 DB	 4
  00158	04		 DB	 4
  00159	04		 DB	 4
  0015a	04		 DB	 4
  0015b	04		 DB	 4
  0015c	04		 DB	 4
  0015d	04		 DB	 4
  0015e	04		 DB	 4
  0015f	04		 DB	 4
  00160	04		 DB	 4
  00161	04		 DB	 4
  00162	04		 DB	 4
  00163	04		 DB	 4
  00164	04		 DB	 4
  00165	04		 DB	 4
  00166	04		 DB	 4
  00167	04		 DB	 4
  00168	04		 DB	 4
  00169	04		 DB	 4
  0016a	04		 DB	 4
  0016b	04		 DB	 4
  0016c	04		 DB	 4
  0016d	04		 DB	 4
  0016e	04		 DB	 4
  0016f	04		 DB	 4
  00170	04		 DB	 4
  00171	04		 DB	 4
  00172	04		 DB	 4
  00173	01		 DB	 1
  00174	04		 DB	 4
  00175	02		 DB	 2
  00176	04		 DB	 4
  00177	04		 DB	 4
  00178	04		 DB	 4
  00179	04		 DB	 4
  0017a	04		 DB	 4
  0017b	04		 DB	 4
  0017c	04		 DB	 4
  0017d	04		 DB	 4
  0017e	04		 DB	 4
  0017f	04		 DB	 4
  00180	04		 DB	 4
  00181	04		 DB	 4
  00182	04		 DB	 4
  00183	04		 DB	 4
  00184	04		 DB	 4
  00185	04		 DB	 4
  00186	04		 DB	 4
  00187	04		 DB	 4
  00188	04		 DB	 4
  00189	04		 DB	 4
  0018a	04		 DB	 4
  0018b	04		 DB	 4
  0018c	04		 DB	 4
  0018d	04		 DB	 4
  0018e	04		 DB	 4
  0018f	04		 DB	 4
  00190	04		 DB	 4
  00191	04		 DB	 4
  00192	04		 DB	 4
  00193	04		 DB	 4
  00194	04		 DB	 4
  00195	04		 DB	 4
  00196	04		 DB	 4
  00197	04		 DB	 4
  00198	04		 DB	 4
  00199	04		 DB	 4
  0019a	04		 DB	 4
  0019b	04		 DB	 4
  0019c	04		 DB	 4
  0019d	04		 DB	 4
  0019e	04		 DB	 4
  0019f	04		 DB	 4
  001a0	04		 DB	 4
  001a1	04		 DB	 4
  001a2	04		 DB	 4
  001a3	04		 DB	 4
  001a4	04		 DB	 4
  001a5	04		 DB	 4
  001a6	04		 DB	 4
  001a7	04		 DB	 4
  001a8	04		 DB	 4
  001a9	04		 DB	 4
  001aa	04		 DB	 4
  001ab	04		 DB	 4
  001ac	04		 DB	 4
  001ad	04		 DB	 4
  001ae	04		 DB	 4
  001af	04		 DB	 4
  001b0	04		 DB	 4
  001b1	04		 DB	 4
  001b2	04		 DB	 4
  001b3	04		 DB	 4
  001b4	04		 DB	 4
  001b5	04		 DB	 4
  001b6	04		 DB	 4
  001b7	04		 DB	 4
  001b8	04		 DB	 4
  001b9	04		 DB	 4
  001ba	04		 DB	 4
  001bb	04		 DB	 4
  001bc	04		 DB	 4
  001bd	04		 DB	 4
  001be	04		 DB	 4
  001bf	04		 DB	 4
  001c0	04		 DB	 4
  001c1	04		 DB	 4
  001c2	04		 DB	 4
  001c3	04		 DB	 4
  001c4	04		 DB	 4
  001c5	04		 DB	 4
  001c6	04		 DB	 4
  001c7	04		 DB	 4
  001c8	04		 DB	 4
  001c9	04		 DB	 4
  001ca	04		 DB	 4
  001cb	04		 DB	 4
  001cc	04		 DB	 4
  001cd	04		 DB	 4
  001ce	04		 DB	 4
  001cf	04		 DB	 4
  001d0	04		 DB	 4
  001d1	04		 DB	 4
  001d2	04		 DB	 4
  001d3	04		 DB	 4
  001d4	04		 DB	 4
  001d5	04		 DB	 4
  001d6	04		 DB	 4
  001d7	04		 DB	 4
  001d8	04		 DB	 4
  001d9	04		 DB	 4
  001da	04		 DB	 4
  001db	04		 DB	 4
  001dc	04		 DB	 4
  001dd	04		 DB	 4
  001de	04		 DB	 4
  001df	04		 DB	 4
  001e0	04		 DB	 4
  001e1	04		 DB	 4
  001e2	04		 DB	 4
  001e3	04		 DB	 4
  001e4	04		 DB	 4
  001e5	04		 DB	 4
  001e6	04		 DB	 4
  001e7	04		 DB	 4
  001e8	04		 DB	 4
  001e9	04		 DB	 4
  001ea	04		 DB	 4
  001eb	04		 DB	 4
  001ec	04		 DB	 4
  001ed	04		 DB	 4
  001ee	04		 DB	 4
  001ef	04		 DB	 4
  001f0	04		 DB	 4
  001f1	04		 DB	 4
  001f2	04		 DB	 4
  001f3	03		 DB	 3
?set_local_int_value@@YGXPAUENTITY@@W4INT_TYPES@@H@Z ENDP ; set_local_int_value
_TEXT	ENDS
; Function compile flags: /Odtp /ZI
; File c:\users\nhv90\projects\eech\aphavoc\source\entity\special\force\fc_int.c
;	COMDAT ?overload_force_int_value_functions@@YGXXZ
_TEXT	SEGMENT
?overload_force_int_value_functions@@YGXXZ PROC		; overload_force_int_value_functions, COMDAT

; 253  : {

  00000	55		 push	 ebp
  00001	8b ec		 mov	 ebp, esp
  00003	83 ec 40	 sub	 esp, 64			; 00000040H
  00006	53		 push	 ebx
  00007	56		 push	 esi
  00008	57		 push	 edi

; 254  : 	fn_set_local_entity_raw_int_value		[ENTITY_TYPE_FORCE][INT_TYPE_COLOUR]										= set_local_int_value;

  00009	b8 5c 04 00 00	 mov	 eax, 1116		; 0000045cH
  0000e	6b c8 0b	 imul	 ecx, eax, 11
  00011	ba 04 00 00 00	 mov	 edx, 4
  00016	6b c2 1c	 imul	 eax, edx, 28
  00019	c7 84 01 00 00
	00 00 00 00 00
	00		 mov	 DWORD PTR ?fn_set_local_entity_raw_int_value@@3PAY0BBH@P6GXPAUENTITY@@W4INT_TYPES@@H@ZA[ecx+eax], OFFSET ?set_local_int_value@@YGXPAUENTITY@@W4INT_TYPES@@H@Z ; set_local_int_value

; 255  : 	fn_set_local_entity_int_value				[ENTITY_TYPE_FORCE][INT_TYPE_COLOUR]										= set_local_int_value;

  00024	b8 5c 04 00 00	 mov	 eax, 1116		; 0000045cH
  00029	6b c8 0b	 imul	 ecx, eax, 11
  0002c	ba 04 00 00 00	 mov	 edx, 4
  00031	6b c2 1c	 imul	 eax, edx, 28
  00034	c7 84 01 00 00
	00 00 00 00 00
	00		 mov	 DWORD PTR ?fn_set_local_entity_int_value@@3PAY0BBH@P6GXPAUENTITY@@W4INT_TYPES@@H@ZA[ecx+eax], OFFSET ?set_local_int_value@@YGXPAUENTITY@@W4INT_TYPES@@H@Z ; set_local_int_value

; 256  : 	fn_set_client_server_entity_int_value	[ENTITY_TYPE_FORCE][INT_TYPE_COLOUR][COMMS_MODEL_SERVER]				= set_server_int_value;

  0003f	b8 b8 08 00 00	 mov	 eax, 2232		; 000008b8H
  00044	6b c8 0b	 imul	 ecx, eax, 11
  00047	ba 08 00 00 00	 mov	 edx, 8
  0004c	6b c2 1c	 imul	 eax, edx, 28
  0004f	8d 8c 01 00 00
	00 00		 lea	 ecx, DWORD PTR ?fn_set_client_server_entity_int_value@@3PAY1BBH@1P6GXPAUENTITY@@W4INT_TYPES@@H@ZA[ecx+eax]
  00056	ba 04 00 00 00	 mov	 edx, 4
  0005b	6b c2 00	 imul	 eax, edx, 0
  0005e	c7 04 01 00 00
	00 00		 mov	 DWORD PTR [ecx+eax], OFFSET ?set_server_int_value@@YGXPAUENTITY@@W4INT_TYPES@@H@Z ; set_server_int_value

; 257  : 	fn_set_client_server_entity_int_value	[ENTITY_TYPE_FORCE][INT_TYPE_COLOUR][COMMS_MODEL_CLIENT]				= set_client_int_value;

  00065	b8 b8 08 00 00	 mov	 eax, 2232		; 000008b8H
  0006a	6b c8 0b	 imul	 ecx, eax, 11
  0006d	ba 08 00 00 00	 mov	 edx, 8
  00072	6b c2 1c	 imul	 eax, edx, 28
  00075	8d 8c 01 00 00
	00 00		 lea	 ecx, DWORD PTR ?fn_set_client_server_entity_int_value@@3PAY1BBH@1P6GXPAUENTITY@@W4INT_TYPES@@H@ZA[ecx+eax]
  0007c	ba 04 00 00 00	 mov	 edx, 4
  00081	c1 e2 00	 shl	 edx, 0
  00084	c7 04 11 00 00
	00 00		 mov	 DWORD PTR [ecx+edx], OFFSET ?set_client_int_value@@YGXPAUENTITY@@W4INT_TYPES@@H@Z ; set_client_int_value

; 258  : 	fn_get_local_entity_int_value				[ENTITY_TYPE_FORCE][INT_TYPE_COLOUR]										= get_local_int_value;

  0008b	b8 5c 04 00 00	 mov	 eax, 1116		; 0000045cH
  00090	6b c8 0b	 imul	 ecx, eax, 11
  00093	ba 04 00 00 00	 mov	 edx, 4
  00098	6b c2 1c	 imul	 eax, edx, 28
  0009b	c7 84 01 00 00
	00 00 00 00 00
	00		 mov	 DWORD PTR ?fn_get_local_entity_int_value@@3PAY0BBH@P6GHPAUENTITY@@W4INT_TYPES@@@ZA[ecx+eax], OFFSET ?get_local_int_value@@YGHPAUENTITY@@W4INT_TYPES@@@Z ; get_local_int_value

; 259  : 
; 260  : 	fn_set_local_entity_raw_int_value		[ENTITY_TYPE_FORCE][INT_TYPE_FORCE_ATTITUDE]										= set_local_int_value;

  000a6	b8 5c 04 00 00	 mov	 eax, 1116		; 0000045cH
  000ab	6b c8 0b	 imul	 ecx, eax, 11
  000ae	ba 04 00 00 00	 mov	 edx, 4
  000b3	6b c2 3b	 imul	 eax, edx, 59
  000b6	c7 84 01 00 00
	00 00 00 00 00
	00		 mov	 DWORD PTR ?fn_set_local_entity_raw_int_value@@3PAY0BBH@P6GXPAUENTITY@@W4INT_TYPES@@H@ZA[ecx+eax], OFFSET ?set_local_int_value@@YGXPAUENTITY@@W4INT_TYPES@@H@Z ; set_local_int_value

; 261  : 	fn_set_local_entity_int_value				[ENTITY_TYPE_FORCE][INT_TYPE_FORCE_ATTITUDE]										= set_local_int_value;

  000c1	b8 5c 04 00 00	 mov	 eax, 1116		; 0000045cH
  000c6	6b c8 0b	 imul	 ecx, eax, 11
  000c9	ba 04 00 00 00	 mov	 edx, 4
  000ce	6b c2 3b	 imul	 eax, edx, 59
  000d1	c7 84 01 00 00
	00 00 00 00 00
	00		 mov	 DWORD PTR ?fn_set_local_entity_int_value@@3PAY0BBH@P6GXPAUENTITY@@W4INT_TYPES@@H@ZA[ecx+eax], OFFSET ?set_local_int_value@@YGXPAUENTITY@@W4INT_TYPES@@H@Z ; set_local_int_value

; 262  : 	fn_set_client_server_entity_int_value	[ENTITY_TYPE_FORCE][INT_TYPE_FORCE_ATTITUDE][COMMS_MODEL_SERVER]			= set_server_int_value;

  000dc	b8 b8 08 00 00	 mov	 eax, 2232		; 000008b8H
  000e1	6b c8 0b	 imul	 ecx, eax, 11
  000e4	ba 08 00 00 00	 mov	 edx, 8
  000e9	6b c2 3b	 imul	 eax, edx, 59
  000ec	8d 8c 01 00 00
	00 00		 lea	 ecx, DWORD PTR ?fn_set_client_server_entity_int_value@@3PAY1BBH@1P6GXPAUENTITY@@W4INT_TYPES@@H@ZA[ecx+eax]
  000f3	ba 04 00 00 00	 mov	 edx, 4
  000f8	6b c2 00	 imul	 eax, edx, 0
  000fb	c7 04 01 00 00
	00 00		 mov	 DWORD PTR [ecx+eax], OFFSET ?set_server_int_value@@YGXPAUENTITY@@W4INT_TYPES@@H@Z ; set_server_int_value

; 263  : 	fn_set_client_server_entity_int_value	[ENTITY_TYPE_FORCE][INT_TYPE_FORCE_ATTITUDE][COMMS_MODEL_CLIENT]			= set_client_int_value;

  00102	b8 b8 08 00 00	 mov	 eax, 2232		; 000008b8H
  00107	6b c8 0b	 imul	 ecx, eax, 11
  0010a	ba 08 00 00 00	 mov	 edx, 8
  0010f	6b c2 3b	 imul	 eax, edx, 59
  00112	8d 8c 01 00 00
	00 00		 lea	 ecx, DWORD PTR ?fn_set_client_server_entity_int_value@@3PAY1BBH@1P6GXPAUENTITY@@W4INT_TYPES@@H@ZA[ecx+eax]
  00119	ba 04 00 00 00	 mov	 edx, 4
  0011e	c1 e2 00	 shl	 edx, 0
  00121	c7 04 11 00 00
	00 00		 mov	 DWORD PTR [ecx+edx], OFFSET ?set_client_int_value@@YGXPAUENTITY@@W4INT_TYPES@@H@Z ; set_client_int_value

; 264  : 	fn_get_local_entity_int_value				[ENTITY_TYPE_FORCE][INT_TYPE_FORCE_ATTITUDE]										= get_local_int_value;

  00128	b8 5c 04 00 00	 mov	 eax, 1116		; 0000045cH
  0012d	6b c8 0b	 imul	 ecx, eax, 11
  00130	ba 04 00 00 00	 mov	 edx, 4
  00135	6b c2 3b	 imul	 eax, edx, 59
  00138	c7 84 01 00 00
	00 00 00 00 00
	00		 mov	 DWORD PTR ?fn_get_local_entity_int_value@@3PAY0BBH@P6GHPAUENTITY@@W4INT_TYPES@@@ZA[ecx+eax], OFFSET ?get_local_int_value@@YGHPAUENTITY@@W4INT_TYPES@@@Z ; get_local_int_value

; 265  : 
; 266  : 	fn_set_local_entity_raw_int_value		[ENTITY_TYPE_FORCE][INT_TYPE_FORCE_SECTOR_COUNT]								= set_local_int_value;

  00143	b8 5c 04 00 00	 mov	 eax, 1116		; 0000045cH
  00148	6b c8 0b	 imul	 ecx, eax, 11
  0014b	ba 04 00 00 00	 mov	 edx, 4
  00150	6b c2 3d	 imul	 eax, edx, 61
  00153	c7 84 01 00 00
	00 00 00 00 00
	00		 mov	 DWORD PTR ?fn_set_local_entity_raw_int_value@@3PAY0BBH@P6GXPAUENTITY@@W4INT_TYPES@@H@ZA[ecx+eax], OFFSET ?set_local_int_value@@YGXPAUENTITY@@W4INT_TYPES@@H@Z ; set_local_int_value

; 267  : 	fn_set_local_entity_int_value				[ENTITY_TYPE_FORCE][INT_TYPE_FORCE_SECTOR_COUNT]								= set_local_int_value;

  0015e	b8 5c 04 00 00	 mov	 eax, 1116		; 0000045cH
  00163	6b c8 0b	 imul	 ecx, eax, 11
  00166	ba 04 00 00 00	 mov	 edx, 4
  0016b	6b c2 3d	 imul	 eax, edx, 61
  0016e	c7 84 01 00 00
	00 00 00 00 00
	00		 mov	 DWORD PTR ?fn_set_local_entity_int_value@@3PAY0BBH@P6GXPAUENTITY@@W4INT_TYPES@@H@ZA[ecx+eax], OFFSET ?set_local_int_value@@YGXPAUENTITY@@W4INT_TYPES@@H@Z ; set_local_int_value

; 268  : 	fn_set_client_server_entity_int_value	[ENTITY_TYPE_FORCE][INT_TYPE_FORCE_SECTOR_COUNT][COMMS_MODEL_SERVER]		= set_server_int_value;

  00179	b8 b8 08 00 00	 mov	 eax, 2232		; 000008b8H
  0017e	6b c8 0b	 imul	 ecx, eax, 11
  00181	ba 08 00 00 00	 mov	 edx, 8
  00186	6b c2 3d	 imul	 eax, edx, 61
  00189	8d 8c 01 00 00
	00 00		 lea	 ecx, DWORD PTR ?fn_set_client_server_entity_int_value@@3PAY1BBH@1P6GXPAUENTITY@@W4INT_TYPES@@H@ZA[ecx+eax]
  00190	ba 04 00 00 00	 mov	 edx, 4
  00195	6b c2 00	 imul	 eax, edx, 0
  00198	c7 04 01 00 00
	00 00		 mov	 DWORD PTR [ecx+eax], OFFSET ?set_server_int_value@@YGXPAUENTITY@@W4INT_TYPES@@H@Z ; set_server_int_value

; 269  : 	fn_set_client_server_entity_int_value	[ENTITY_TYPE_FORCE][INT_TYPE_FORCE_SECTOR_COUNT][COMMS_MODEL_CLIENT]		= set_client_int_value;

  0019f	b8 b8 08 00 00	 mov	 eax, 2232		; 000008b8H
  001a4	6b c8 0b	 imul	 ecx, eax, 11
  001a7	ba 08 00 00 00	 mov	 edx, 8
  001ac	6b c2 3d	 imul	 eax, edx, 61
  001af	8d 8c 01 00 00
	00 00		 lea	 ecx, DWORD PTR ?fn_set_client_server_entity_int_value@@3PAY1BBH@1P6GXPAUENTITY@@W4INT_TYPES@@H@ZA[ecx+eax]
  001b6	ba 04 00 00 00	 mov	 edx, 4
  001bb	c1 e2 00	 shl	 edx, 0
  001be	c7 04 11 00 00
	00 00		 mov	 DWORD PTR [ecx+edx], OFFSET ?set_client_int_value@@YGXPAUENTITY@@W4INT_TYPES@@H@Z ; set_client_int_value

; 270  : 	fn_get_local_entity_int_value				[ENTITY_TYPE_FORCE][INT_TYPE_FORCE_SECTOR_COUNT]								= get_local_int_value;

  001c5	b8 5c 04 00 00	 mov	 eax, 1116		; 0000045cH
  001ca	6b c8 0b	 imul	 ecx, eax, 11
  001cd	ba 04 00 00 00	 mov	 edx, 4
  001d2	6b c2 3d	 imul	 eax, edx, 61
  001d5	c7 84 01 00 00
	00 00 00 00 00
	00		 mov	 DWORD PTR ?fn_get_local_entity_int_value@@3PAY0BBH@P6GHPAUENTITY@@W4INT_TYPES@@@ZA[ecx+eax], OFFSET ?get_local_int_value@@YGHPAUENTITY@@W4INT_TYPES@@@Z ; get_local_int_value

; 271  : 
; 272  : 	fn_set_local_entity_raw_int_value		[ENTITY_TYPE_FORCE][INT_TYPE_SIDE]											= set_local_int_value;

  001e0	b8 5c 04 00 00	 mov	 eax, 1116		; 0000045cH
  001e5	6b c8 0b	 imul	 ecx, eax, 11
  001e8	ba 04 00 00 00	 mov	 edx, 4
  001ed	69 c2 bb 00 00
	00		 imul	 eax, edx, 187
  001f3	c7 84 01 00 00
	00 00 00 00 00
	00		 mov	 DWORD PTR ?fn_set_local_entity_raw_int_value@@3PAY0BBH@P6GXPAUENTITY@@W4INT_TYPES@@H@ZA[ecx+eax], OFFSET ?set_local_int_value@@YGXPAUENTITY@@W4INT_TYPES@@H@Z ; set_local_int_value

; 273  : 	fn_set_local_entity_int_value				[ENTITY_TYPE_FORCE][INT_TYPE_SIDE]											= set_local_int_value;

  001fe	b8 5c 04 00 00	 mov	 eax, 1116		; 0000045cH
  00203	6b c8 0b	 imul	 ecx, eax, 11
  00206	ba 04 00 00 00	 mov	 edx, 4
  0020b	69 c2 bb 00 00
	00		 imul	 eax, edx, 187
  00211	c7 84 01 00 00
	00 00 00 00 00
	00		 mov	 DWORD PTR ?fn_set_local_entity_int_value@@3PAY0BBH@P6GXPAUENTITY@@W4INT_TYPES@@H@ZA[ecx+eax], OFFSET ?set_local_int_value@@YGXPAUENTITY@@W4INT_TYPES@@H@Z ; set_local_int_value

; 274  : 	fn_set_client_server_entity_int_value	[ENTITY_TYPE_FORCE][INT_TYPE_SIDE][COMMS_MODEL_SERVER]				= set_server_int_value;

  0021c	b8 b8 08 00 00	 mov	 eax, 2232		; 000008b8H
  00221	6b c8 0b	 imul	 ecx, eax, 11
  00224	ba 08 00 00 00	 mov	 edx, 8
  00229	69 c2 bb 00 00
	00		 imul	 eax, edx, 187
  0022f	8d 8c 01 00 00
	00 00		 lea	 ecx, DWORD PTR ?fn_set_client_server_entity_int_value@@3PAY1BBH@1P6GXPAUENTITY@@W4INT_TYPES@@H@ZA[ecx+eax]
  00236	ba 04 00 00 00	 mov	 edx, 4
  0023b	6b c2 00	 imul	 eax, edx, 0
  0023e	c7 04 01 00 00
	00 00		 mov	 DWORD PTR [ecx+eax], OFFSET ?set_server_int_value@@YGXPAUENTITY@@W4INT_TYPES@@H@Z ; set_server_int_value

; 275  : 	fn_set_client_server_entity_int_value	[ENTITY_TYPE_FORCE][INT_TYPE_SIDE][COMMS_MODEL_CLIENT]				= set_client_int_value;

  00245	b8 b8 08 00 00	 mov	 eax, 2232		; 000008b8H
  0024a	6b c8 0b	 imul	 ecx, eax, 11
  0024d	ba 08 00 00 00	 mov	 edx, 8
  00252	69 c2 bb 00 00
	00		 imul	 eax, edx, 187
  00258	8d 8c 01 00 00
	00 00		 lea	 ecx, DWORD PTR ?fn_set_client_server_entity_int_value@@3PAY1BBH@1P6GXPAUENTITY@@W4INT_TYPES@@H@ZA[ecx+eax]
  0025f	ba 04 00 00 00	 mov	 edx, 4
  00264	c1 e2 00	 shl	 edx, 0
  00267	c7 04 11 00 00
	00 00		 mov	 DWORD PTR [ecx+edx], OFFSET ?set_client_int_value@@YGXPAUENTITY@@W4INT_TYPES@@H@Z ; set_client_int_value

; 276  : 	fn_get_local_entity_int_value				[ENTITY_TYPE_FORCE][INT_TYPE_SIDE]											= get_local_int_value;

  0026e	b8 5c 04 00 00	 mov	 eax, 1116		; 0000045cH
  00273	6b c8 0b	 imul	 ecx, eax, 11
  00276	ba 04 00 00 00	 mov	 edx, 4
  0027b	69 c2 bb 00 00
	00		 imul	 eax, edx, 187
  00281	c7 84 01 00 00
	00 00 00 00 00
	00		 mov	 DWORD PTR ?fn_get_local_entity_int_value@@3PAY0BBH@P6GHPAUENTITY@@W4INT_TYPES@@@ZA[ecx+eax], OFFSET ?get_local_int_value@@YGHPAUENTITY@@W4INT_TYPES@@@Z ; get_local_int_value

; 277  : }

  0028c	5f		 pop	 edi
  0028d	5e		 pop	 esi
  0028e	5b		 pop	 ebx
  0028f	8b e5		 mov	 esp, ebp
  00291	5d		 pop	 ebp
  00292	c3		 ret	 0
?overload_force_int_value_functions@@YGXXZ ENDP		; overload_force_int_value_functions
_TEXT	ENDS
END
