; Listing generated by Microsoft (R) Optimizing Compiler Version 19.16.27045.0 

	TITLE	C:\Users\nhv90\Projects\eech\aphavoc\source\entity\special\force\fc_msgs.c
	.686P
	.XMM
	include listing.inc
	.model	flat

INCLUDELIB MSVCRTD
INCLUDELIB OLDNAMES

PUBLIC	?overload_force_message_responses@@YGXXZ	; overload_force_message_responses
PUBLIC	?__LINE__Var@?0??response_to_check_campaign_objectives@@YGHW4ENTITY_MESSAGES@@PAUENTITY@@1PAD@Z@4JA ; `response_to_check_campaign_objectives'::`1'::__LINE__Var
PUBLIC	??_C@_0EL@MMNLIBAL@c?3?2users?2nhv90?2projects?2eech?2ap@ ; `string'
PUBLIC	??_C@_0CJ@DMBLBJBK@get_comms_model?5?$CI?$CJ?5?$DN?$DN?5COMMS_MOD@ ; `string'
PUBLIC	??_C@_0M@JMPLKLMD@enemy_force@			; `string'
PUBLIC	??_C@_0CN@NAPBLNNJ@?$CIFORCE?$CJ?5Side?5?$CFs?5Completed?5Keysi@ ; `string'
PUBLIC	??_C@_0CF@CCHAANJ@?$CIFORCE?$CJ?5Side?5?$CFs?5Has?5No?5Keysites@ ; `string'
PUBLIC	??_C@_0DJ@BECNKEJK@?$CIFORCE?$CJ?5Side?5?$CFs?5Has?5No?5Player?5C@ ; `string'
PUBLIC	?__LINE__Var@?0??response_to_entity_fired_at@@YGHW4ENTITY_MESSAGES@@PAUENTITY@@1PAD@Z@4JA ; `response_to_entity_fired_at'::`1'::__LINE__Var
PUBLIC	??_C@_06CGHJMPBJ@sender@			; `string'
PUBLIC	??_C@_06GPEKEEBB@victim@			; `string'
PUBLIC	?__LINE__Var@?0??response_to_force_armour_resisting@@YGHW4ENTITY_MESSAGES@@PAUENTITY@@1PAD@Z@4JA ; `response_to_force_armour_resisting'::`1'::__LINE__Var
PUBLIC	?__LINE__Var@?0??response_to_force_destroyed@@YGHW4ENTITY_MESSAGES@@PAUENTITY@@1PAD@Z@4JA ; `response_to_force_destroyed'::`1'::__LINE__Var
PUBLIC	?__LINE__Var@?0??response_to_force_entered_sector@@YGHW4ENTITY_MESSAGES@@PAUENTITY@@1PAD@Z@4JA ; `response_to_force_entered_sector'::`1'::__LINE__Var
PUBLIC	?__LINE__Var@?0??response_to_force_low_on_supplies@@YGHW4ENTITY_MESSAGES@@PAUENTITY@@1PAD@Z@4JA ; `response_to_force_low_on_supplies'::`1'::__LINE__Var
PUBLIC	?__LINE__Var@?0??response_to_force_special_kill@@YGHW4ENTITY_MESSAGES@@PAUENTITY@@1PAD@Z@4JA ; `response_to_force_special_kill'::`1'::__LINE__Var
PUBLIC	?__LINE__Var@?0??response_to_force_vacant_farp@@YGHW4ENTITY_MESSAGES@@PAUENTITY@@1PAD@Z@4JA ; `response_to_force_vacant_farp'::`1'::__LINE__Var
PUBLIC	?__LINE__Var@?0??response_to_force_waypoint_reached@@YGHW4ENTITY_MESSAGES@@PAUENTITY@@1PAD@Z@4JA ; `response_to_force_waypoint_reached'::`1'::__LINE__Var
PUBLIC	?__LINE__Var@?0??response_to_request_assistance@@YGHW4ENTITY_MESSAGES@@PAUENTITY@@1PAD@Z@4JA ; `response_to_request_assistance'::`1'::__LINE__Var
PUBLIC	??_C@_09HKMIOAOH@aggressor@			; `string'
PUBLIC	??_C@_0N@IPOFDKPI@victim_group@			; `string'
PUBLIC	??_C@_03PCBNCGFH@pos@				; `string'
PUBLIC	??_C@_0N@MPJEABLJ@target_group@			; `string'
PUBLIC	??_C@_0CM@HMLAOKNP@?$CIASSIST?$CJ?5?$CFs?5assisting?5?$CFs?5under?5@ ; `string'
PUBLIC	?__LINE__Var@?0??response_to_task_created@@YGHW4ENTITY_MESSAGES@@PAUENTITY@@1PAD@Z@4JA ; `response_to_task_created'::`1'::__LINE__Var
PUBLIC	??_C@_0CB@JCFBNGNO@sender?9?$DOtype?5?$DN?$DN?5ENTITY_TYPE_TAS@ ; `string'
PUBLIC	?__LINE__Var@?0??response_to_task_assigned@@YGHW4ENTITY_MESSAGES@@PAUENTITY@@1PAD@Z@4JA ; `response_to_task_assigned'::`1'::__LINE__Var
PUBLIC	?__LINE__Var@?0??response_to_task_completed@@YGHW4ENTITY_MESSAGES@@PAUENTITY@@1PAD@Z@4JA ; `response_to_task_completed'::`1'::__LINE__Var
PUBLIC	??_C@_0DD@KBEJLCDL@get_local_entity_type?5?$CIsender?$CJ?5@ ; `string'
PUBLIC	??_C@_0CG@FDIGOKDB@task_database?5?$FLsub_type?$FN?4primar@ ; `string'
PUBLIC	??_C@_0FA@OAMCLOLL@get_local_entity_int_value?5?$CIsen@ ; `string'
PUBLIC	__real@0000000000000000
PUBLIC	__real@3f800000
PUBLIC	__real@41200000
PUBLIC	__real@42700000
PUBLIC	__real@461c4000
PUBLIC	__real@bf800000
EXTRN	?process_assert@@YGXPBD0H@Z:PROC		; process_assert
EXTRN	?get_sqr_2d_range@@YGMPBUVEC3D@@0@Z:PROC	; get_sqr_2d_range
EXTRN	?notify_local_entity@@YAHW4ENTITY_MESSAGES@@PAUENTITY@@1ZZ:PROC ; notify_local_entity
EXTRN	?play_mobile_under_attack_speech@@YGXPAUENTITY@@0@Z:PROC ; play_mobile_under_attack_speech
EXTRN	?play_client_server_speech@@YAHPAUENTITY@@0W4ENTITY_SIDES@@HW4SOUND_LOCALITY_TYPES@@MMMW4speech_originator_types@@W4speech_category_types@@MZZ:PROC ; play_client_server_speech
EXTRN	?get_local_force_entity@@YGPAUENTITY@@W4ENTITY_SIDES@@@Z:PROC ; get_local_force_entity
EXTRN	?check_group_task_type@@YGHPAUENTITY@@H@Z:PROC	; check_group_task_type
EXTRN	?get_closest_keysite@@YGPAUENTITY@@HW4ENTITY_SIDES@@PAUVEC3D@@MPAMPAU1@@Z:PROC ; get_closest_keysite
EXTRN	?get_keysite_supply_position@@YGPAUVEC3D@@PAUENTITY@@@Z:PROC ; get_keysite_supply_position
EXTRN	?play_keysite_under_attack_speech@@YGXPAUENTITY@@0@Z:PROC ; play_keysite_under_attack_speech
EXTRN	?get_local_sector_entity@@YGPAUENTITY@@PAUVEC3D@@@Z:PROC ; get_local_sector_entity
EXTRN	?get_local_sector_entity_enemy_surface_to_air_defence_level@@YGMPAUENTITY@@W4ENTITY_SIDES@@@Z:PROC ; get_local_sector_entity_enemy_surface_to_air_defence_level
EXTRN	?get_local_sector_entity_enemy_surface_to_surface_defence_level@@YGMPAUENTITY@@W4ENTITY_SIDES@@@Z:PROC ; get_local_sector_entity_enemy_surface_to_surface_defence_level
EXTRN	?entity_is_object_of_task@@YGHPAUENTITY@@HW4ENTITY_SIDES@@@Z:PROC ; entity_is_object_of_task
EXTRN	?get_local_group_primary_task@@YGPAUENTITY@@PAU1@@Z:PROC ; get_local_group_primary_task
EXTRN	?play_client_server_radio_message_response@@YGXPAUENTITY@@HMM@Z:PROC ; play_client_server_radio_message_response
EXTRN	?send_text_message@@YGXPAUENTITY@@0W4MESSAGE_TEXT_TYPES@@PBD@Z:PROC ; send_text_message
EXTRN	?campaign_completed@@YGXW4ENTITY_SIDES@@W4CAMPAIGN_COMPLETED_TYPES@@@Z:PROC ; campaign_completed
EXTRN	?engage_targets_in_group@@YGHPAUENTITY@@0H@Z:PROC ; engage_targets_in_group
EXTRN	?create_supply_task@@YGPAUENTITY@@PAU1@00W4MOVEMENT_TYPES@@M00@Z:PROC ; create_supply_task
EXTRN	?ai_log@@YAXPBDZZ:PROC				; ai_log
EXTRN	?create_task_assigned_reactionary_tasks@@YGXPAUENTITY@@@Z:PROC ; create_task_assigned_reactionary_tasks
EXTRN	?create_task_completed_reactionary_tasks@@YGXPAUENTITY@@@Z:PROC ; create_task_completed_reactionary_tasks
EXTRN	?game_status@@3W4GAME_STATUS_TYPES@@A:DWORD	; game_status
EXTRN	?null_entity_pointer_message@@3PBDB:DWORD	; null_entity_pointer_message
EXTRN	?entity_side_short_names@@3PAPBDA:BYTE		; entity_side_short_names
EXTRN	?system_comms_model@@3W4COMMS_MODEL_TYPES@@A:DWORD ; system_comms_model
EXTRN	?message_responses@@3PAY0GB@P6GHW4ENTITY_MESSAGES@@PAUENTITY@@1PAD@ZA:BYTE ; message_responses
EXTRN	?overload_invalid_list_type_message@@3PBDB:DWORD ; overload_invalid_list_type_message
EXTRN	?fn_get_local_entity_first_child@@3PAY0CN@P6GPAUENTITY@@PAU1@W4LIST_TYPES@@@ZA:BYTE ; fn_get_local_entity_first_child
EXTRN	?fn_get_local_entity_parent@@3PAY0CN@P6GPAUENTITY@@PAU1@W4LIST_TYPES@@@ZA:BYTE ; fn_get_local_entity_parent
EXTRN	?fn_get_local_entity_child_succ@@3PAY0CN@P6GPAUENTITY@@PAU1@W4LIST_TYPES@@@ZA:BYTE ; fn_get_local_entity_child_succ
EXTRN	?overload_invalid_float_type_message@@3PBDB:DWORD ; overload_invalid_float_type_message
EXTRN	?fn_get_local_entity_float_value@@3PAY0KP@P6GMPAUENTITY@@W4FLOAT_TYPES@@@ZA:BYTE ; fn_get_local_entity_float_value
EXTRN	?overload_invalid_int_type_message@@3PBDB:DWORD	; overload_invalid_int_type_message
EXTRN	?fn_get_local_entity_int_value@@3PAY0BBH@P6GHPAUENTITY@@W4INT_TYPES@@@ZA:BYTE ; fn_get_local_entity_int_value
EXTRN	?overload_invalid_string_type_message@@3PBDB:DWORD ; overload_invalid_string_type_message
EXTRN	?fn_get_local_entity_string@@3PAY0N@P6GPBDPAUENTITY@@W4STRING_TYPES@@@ZA:BYTE ; fn_get_local_entity_string
EXTRN	?overload_invalid_vec3d_type_message@@3PBDB:DWORD ; overload_invalid_vec3d_type_message
EXTRN	?fn_get_local_entity_vec3d_ptr@@3PAY0BI@P6GPAUVEC3D@@PAUENTITY@@W4VEC3D_TYPES@@@ZA:BYTE ; fn_get_local_entity_vec3d_ptr
EXTRN	?aircraft_database@@3PAUAIRCRAFT_DATA@@A:BYTE	; aircraft_database
EXTRN	?group_database@@3PAUGROUP_DATA@@A:BYTE		; group_database
EXTRN	?keysite_database@@3PAUKEYSITE_DATA@@A:BYTE	; keysite_database
EXTRN	?session_entity@@3PAUENTITY@@A:DWORD		; session_entity
EXTRN	?task_database@@3PAUTASK_DATA@@A:BYTE		; task_database
EXTRN	__fltused:DWORD
;	COMDAT __real@bf800000
CONST	SEGMENT
__real@bf800000 DD 0bf800000r			; -1
CONST	ENDS
;	COMDAT __real@461c4000
CONST	SEGMENT
__real@461c4000 DD 0461c4000r			; 10000
CONST	ENDS
;	COMDAT __real@42700000
CONST	SEGMENT
__real@42700000 DD 042700000r			; 60
CONST	ENDS
;	COMDAT __real@41200000
CONST	SEGMENT
__real@41200000 DD 041200000r			; 10
CONST	ENDS
;	COMDAT __real@3f800000
CONST	SEGMENT
__real@3f800000 DD 03f800000r			; 1
CONST	ENDS
;	COMDAT __real@0000000000000000
CONST	SEGMENT
__real@0000000000000000 DQ 00000000000000000r	; 0
CONST	ENDS
;	COMDAT ??_C@_0FA@OAMCLOLL@get_local_entity_int_value?5?$CIsen@
CONST	SEGMENT
??_C@_0FA@OAMCLOLL@get_local_entity_int_value?5?$CIsen@ DB 'get_local_ent'
	DB	'ity_int_value (sender, INT_TYPE_TASK_COMPLETED) != TASK_INCOM'
	DB	'PLETE', 00H					; `string'
CONST	ENDS
;	COMDAT ??_C@_0CG@FDIGOKDB@task_database?5?$FLsub_type?$FN?4primar@
CONST	SEGMENT
??_C@_0CG@FDIGOKDB@task_database?5?$FLsub_type?$FN?4primar@ DB 'task_data'
	DB	'base [sub_type].primary_task', 00H		; `string'
CONST	ENDS
;	COMDAT ??_C@_0DD@KBEJLCDL@get_local_entity_type?5?$CIsender?$CJ?5@
CONST	SEGMENT
??_C@_0DD@KBEJLCDL@get_local_entity_type?5?$CIsender?$CJ?5@ DB 'get_local'
	DB	'_entity_type (sender) == ENTITY_TYPE_TASK', 00H ; `string'
CONST	ENDS
;	COMDAT ?__LINE__Var@?0??response_to_task_completed@@YGHW4ENTITY_MESSAGES@@PAUENTITY@@1PAD@Z@4JA
_DATA	SEGMENT
?__LINE__Var@?0??response_to_task_completed@@YGHW4ENTITY_MESSAGES@@PAUENTITY@@1PAD@Z@4JA DD 04eeH ; `response_to_task_completed'::`1'::__LINE__Var
_DATA	ENDS
;	COMDAT ?__LINE__Var@?0??response_to_task_assigned@@YGHW4ENTITY_MESSAGES@@PAUENTITY@@1PAD@Z@4JA
_DATA	SEGMENT
?__LINE__Var@?0??response_to_task_assigned@@YGHW4ENTITY_MESSAGES@@PAUENTITY@@1PAD@Z@4JA DD 04ddH ; `response_to_task_assigned'::`1'::__LINE__Var
_DATA	ENDS
;	COMDAT ??_C@_0CB@JCFBNGNO@sender?9?$DOtype?5?$DN?$DN?5ENTITY_TYPE_TAS@
CONST	SEGMENT
??_C@_0CB@JCFBNGNO@sender?9?$DOtype?5?$DN?$DN?5ENTITY_TYPE_TAS@ DB 'sende'
	DB	'r->type == ENTITY_TYPE_TASK', 00H		; `string'
CONST	ENDS
;	COMDAT ?__LINE__Var@?0??response_to_task_created@@YGHW4ENTITY_MESSAGES@@PAUENTITY@@1PAD@Z@4JA
_DATA	SEGMENT
?__LINE__Var@?0??response_to_task_created@@YGHW4ENTITY_MESSAGES@@PAUENTITY@@1PAD@Z@4JA DD 04adH ; `response_to_task_created'::`1'::__LINE__Var
_DATA	ENDS
;	COMDAT ??_C@_0CM@HMLAOKNP@?$CIASSIST?$CJ?5?$CFs?5assisting?5?$CFs?5under?5@
CONST	SEGMENT
??_C@_0CM@HMLAOKNP@?$CIASSIST?$CJ?5?$CFs?5assisting?5?$CFs?5under?5@ DB '('
	DB	'ASSIST) %s assisting %s under attack by %s', 00H ; `string'
CONST	ENDS
;	COMDAT ??_C@_0N@MPJEABLJ@target_group@
CONST	SEGMENT
??_C@_0N@MPJEABLJ@target_group@ DB 'target_group', 00H	; `string'
CONST	ENDS
;	COMDAT ??_C@_03PCBNCGFH@pos@
CONST	SEGMENT
??_C@_03PCBNCGFH@pos@ DB 'pos', 00H			; `string'
CONST	ENDS
;	COMDAT ??_C@_0N@IPOFDKPI@victim_group@
CONST	SEGMENT
??_C@_0N@IPOFDKPI@victim_group@ DB 'victim_group', 00H	; `string'
CONST	ENDS
;	COMDAT ??_C@_09HKMIOAOH@aggressor@
CONST	SEGMENT
??_C@_09HKMIOAOH@aggressor@ DB 'aggressor', 00H		; `string'
CONST	ENDS
;	COMDAT ?__LINE__Var@?0??response_to_request_assistance@@YGHW4ENTITY_MESSAGES@@PAUENTITY@@1PAD@Z@4JA
_DATA	SEGMENT
?__LINE__Var@?0??response_to_request_assistance@@YGHW4ENTITY_MESSAGES@@PAUENTITY@@1PAD@Z@4JA DD 03f1H ; `response_to_request_assistance'::`1'::__LINE__Var
_DATA	ENDS
;	COMDAT ?__LINE__Var@?0??response_to_force_waypoint_reached@@YGHW4ENTITY_MESSAGES@@PAUENTITY@@1PAD@Z@4JA
_DATA	SEGMENT
?__LINE__Var@?0??response_to_force_waypoint_reached@@YGHW4ENTITY_MESSAGES@@PAUENTITY@@1PAD@Z@4JA DD 03c5H ; `response_to_force_waypoint_reached'::`1'::__LINE__Var
_DATA	ENDS
;	COMDAT ?__LINE__Var@?0??response_to_force_vacant_farp@@YGHW4ENTITY_MESSAGES@@PAUENTITY@@1PAD@Z@4JA
_DATA	SEGMENT
?__LINE__Var@?0??response_to_force_vacant_farp@@YGHW4ENTITY_MESSAGES@@PAUENTITY@@1PAD@Z@4JA DD 03a0H ; `response_to_force_vacant_farp'::`1'::__LINE__Var
_DATA	ENDS
;	COMDAT ?__LINE__Var@?0??response_to_force_special_kill@@YGHW4ENTITY_MESSAGES@@PAUENTITY@@1PAD@Z@4JA
_DATA	SEGMENT
?__LINE__Var@?0??response_to_force_special_kill@@YGHW4ENTITY_MESSAGES@@PAUENTITY@@1PAD@Z@4JA DD 0375H ; `response_to_force_special_kill'::`1'::__LINE__Var
_DATA	ENDS
;	COMDAT ?__LINE__Var@?0??response_to_force_low_on_supplies@@YGHW4ENTITY_MESSAGES@@PAUENTITY@@1PAD@Z@4JA
_DATA	SEGMENT
?__LINE__Var@?0??response_to_force_low_on_supplies@@YGHW4ENTITY_MESSAGES@@PAUENTITY@@1PAD@Z@4JA DD 0293H ; `response_to_force_low_on_supplies'::`1'::__LINE__Var
_DATA	ENDS
;	COMDAT ?__LINE__Var@?0??response_to_force_entered_sector@@YGHW4ENTITY_MESSAGES@@PAUENTITY@@1PAD@Z@4JA
_DATA	SEGMENT
?__LINE__Var@?0??response_to_force_entered_sector@@YGHW4ENTITY_MESSAGES@@PAUENTITY@@1PAD@Z@4JA DD 0239H ; `response_to_force_entered_sector'::`1'::__LINE__Var
_DATA	ENDS
;	COMDAT ?__LINE__Var@?0??response_to_force_destroyed@@YGHW4ENTITY_MESSAGES@@PAUENTITY@@1PAD@Z@4JA
_DATA	SEGMENT
?__LINE__Var@?0??response_to_force_destroyed@@YGHW4ENTITY_MESSAGES@@PAUENTITY@@1PAD@Z@4JA DD 01f1H ; `response_to_force_destroyed'::`1'::__LINE__Var
_DATA	ENDS
;	COMDAT ?__LINE__Var@?0??response_to_force_armour_resisting@@YGHW4ENTITY_MESSAGES@@PAUENTITY@@1PAD@Z@4JA
_DATA	SEGMENT
?__LINE__Var@?0??response_to_force_armour_resisting@@YGHW4ENTITY_MESSAGES@@PAUENTITY@@1PAD@Z@4JA DD 0174H ; `response_to_force_armour_resisting'::`1'::__LINE__Var
_DATA	ENDS
;	COMDAT ??_C@_06GPEKEEBB@victim@
CONST	SEGMENT
??_C@_06GPEKEEBB@victim@ DB 'victim', 00H		; `string'
CONST	ENDS
;	COMDAT ??_C@_06CGHJMPBJ@sender@
CONST	SEGMENT
??_C@_06CGHJMPBJ@sender@ DB 'sender', 00H		; `string'
CONST	ENDS
;	COMDAT ?__LINE__Var@?0??response_to_entity_fired_at@@YGHW4ENTITY_MESSAGES@@PAUENTITY@@1PAD@Z@4JA
_DATA	SEGMENT
?__LINE__Var@?0??response_to_entity_fired_at@@YGHW4ENTITY_MESSAGES@@PAUENTITY@@1PAD@Z@4JA DD 013eH ; `response_to_entity_fired_at'::`1'::__LINE__Var
_DATA	ENDS
;	COMDAT ??_C@_0DJ@BECNKEJK@?$CIFORCE?$CJ?5Side?5?$CFs?5Has?5No?5Player?5C@
CONST	SEGMENT
??_C@_0DJ@BECNKEJK@?$CIFORCE?$CJ?5Side?5?$CFs?5Has?5No?5Player?5C@ DB '(F'
	DB	'ORCE) Side %s Has No Player Controllable Gunships Left', 00H ; `string'
CONST	ENDS
;	COMDAT ??_C@_0CF@CCHAANJ@?$CIFORCE?$CJ?5Side?5?$CFs?5Has?5No?5Keysites@
CONST	SEGMENT
??_C@_0CF@CCHAANJ@?$CIFORCE?$CJ?5Side?5?$CFs?5Has?5No?5Keysites@ DB '(FOR'
	DB	'CE) Side %s Has No Keysites Left', 00H	; `string'
CONST	ENDS
;	COMDAT ??_C@_0CN@NAPBLNNJ@?$CIFORCE?$CJ?5Side?5?$CFs?5Completed?5Keysi@
CONST	SEGMENT
??_C@_0CN@NAPBLNNJ@?$CIFORCE?$CJ?5Side?5?$CFs?5Completed?5Keysi@ DB '(FOR'
	DB	'CE) Side %s Completed Keysite Objectives', 00H ; `string'
CONST	ENDS
;	COMDAT ??_C@_0M@JMPLKLMD@enemy_force@
CONST	SEGMENT
??_C@_0M@JMPLKLMD@enemy_force@ DB 'enemy_force', 00H	; `string'
CONST	ENDS
;	COMDAT ??_C@_0CJ@DMBLBJBK@get_comms_model?5?$CI?$CJ?5?$DN?$DN?5COMMS_MOD@
CONST	SEGMENT
??_C@_0CJ@DMBLBJBK@get_comms_model?5?$CI?$CJ?5?$DN?$DN?5COMMS_MOD@ DB 'ge'
	DB	't_comms_model () == COMMS_MODEL_SERVER', 00H ; `string'
CONST	ENDS
;	COMDAT ??_C@_0EL@MMNLIBAL@c?3?2users?2nhv90?2projects?2eech?2ap@
CONST	SEGMENT
??_C@_0EL@MMNLIBAL@c?3?2users?2nhv90?2projects?2eech?2ap@ DB 'c:\users\nh'
	DB	'v90\projects\eech\aphavoc\source\entity\special\force\fc_msgs'
	DB	'.c', 00H					; `string'
CONST	ENDS
;	COMDAT ?__LINE__Var@?0??response_to_check_campaign_objectives@@YGHW4ENTITY_MESSAGES@@PAUENTITY@@1PAD@Z@4JA
_DATA	SEGMENT
?__LINE__Var@?0??response_to_check_campaign_objectives@@YGHW4ENTITY_MESSAGES@@PAUENTITY@@1PAD@Z@4JA DD 091H ; `response_to_check_campaign_objectives'::`1'::__LINE__Var
_DATA	ENDS
; Function compile flags: /Odtp /ZI
; File c:\users\nhv90\projects\eech\aphavoc\source\entity\special\force\fc_msgs.c
;	COMDAT ?response_to_task_completed@@YGHW4ENTITY_MESSAGES@@PAUENTITY@@1PAD@Z
_TEXT	SEGMENT
tv189 = -84						; size = 4
tv166 = -84						; size = 4
tv134 = -84						; size = 4
tv182 = -80						; size = 4
tv158 = -80						; size = 4
tv94 = -80						; size = 4
tv80 = -80						; size = 4
_task_terminated$ = -12					; size = 4
_force_raw$ = -8					; size = 4
_sub_type$ = -4						; size = 4
_message$ = 8						; size = 4
_receiver$ = 12						; size = 4
_sender$ = 16						; size = 4
_pargs$ = 20						; size = 4
?response_to_task_completed@@YGHW4ENTITY_MESSAGES@@PAUENTITY@@1PAD@Z PROC ; response_to_task_completed, COMDAT

; 1262 : {

  00000	55		 push	 ebp
  00001	8b ec		 mov	 ebp, esp
  00003	83 ec 54	 sub	 esp, 84			; 00000054H
  00006	53		 push	 ebx
  00007	56		 push	 esi
  00008	57		 push	 edi

; 1263 : 	entity_sub_types
; 1264 : 		sub_type;
; 1265 : 
; 1266 : 	force
; 1267 : 		*force_raw;
; 1268 : 
; 1269 : 	task_terminated_types
; 1270 : 		task_terminated;
; 1271 : 
; 1272 : 	ASSERT (get_comms_model () == COMMS_MODEL_SERVER);

  00009	83 3d 00 00 00
	00 00		 cmp	 DWORD PTR ?system_comms_model@@3W4COMMS_MODEL_TYPES@@A, 0 ; system_comms_model
  00010	74 18		 je	 SHORT $LN2@response_t
  00012	a1 00 00 00 00	 mov	 eax, DWORD PTR ?__LINE__Var@?0??response_to_task_completed@@YGHW4ENTITY_MESSAGES@@PAUENTITY@@1PAD@Z@4JA
  00017	83 c0 0a	 add	 eax, 10			; 0000000aH
  0001a	50		 push	 eax
  0001b	68 00 00 00 00	 push	 OFFSET ??_C@_0EL@MMNLIBAL@c?3?2users?2nhv90?2projects?2eech?2ap@
  00020	68 00 00 00 00	 push	 OFFSET ??_C@_0CJ@DMBLBJBK@get_comms_model?5?$CI?$CJ?5?$DN?$DN?5COMMS_MOD@
  00025	e8 00 00 00 00	 call	 ?process_assert@@YGXPBD0H@Z ; process_assert
$LN2@response_t:

; 1273 : 
; 1274 : 	ASSERT (sender);

  0002a	83 7d 10 00	 cmp	 DWORD PTR _sender$[ebp], 0
  0002e	75 18		 jne	 SHORT $LN3@response_t
  00030	a1 00 00 00 00	 mov	 eax, DWORD PTR ?__LINE__Var@?0??response_to_task_completed@@YGHW4ENTITY_MESSAGES@@PAUENTITY@@1PAD@Z@4JA
  00035	83 c0 0c	 add	 eax, 12			; 0000000cH
  00038	50		 push	 eax
  00039	68 00 00 00 00	 push	 OFFSET ??_C@_0EL@MMNLIBAL@c?3?2users?2nhv90?2projects?2eech?2ap@
  0003e	68 00 00 00 00	 push	 OFFSET ??_C@_06CGHJMPBJ@sender@
  00043	e8 00 00 00 00	 call	 ?process_assert@@YGXPBD0H@Z ; process_assert
$LN3@response_t:

; 1275 : 
; 1276 : 	ASSERT (get_local_entity_type (sender) == ENTITY_TYPE_TASK);

  00048	83 7d 10 00	 cmp	 DWORD PTR _sender$[ebp], 0
  0004c	74 0a		 je	 SHORT $LN10@response_t
  0004e	8b 45 10	 mov	 eax, DWORD PTR _sender$[ebp]
  00051	8b 08		 mov	 ecx, DWORD PTR [eax]
  00053	89 4d b0	 mov	 DWORD PTR tv80[ebp], ecx
  00056	eb 21		 jmp	 SHORT $LN11@response_t
$LN10@response_t:
  00058	8b 15 00 00 00
	00		 mov	 edx, DWORD PTR ?__LINE__Var@?0??response_to_task_completed@@YGHW4ENTITY_MESSAGES@@PAUENTITY@@1PAD@Z@4JA
  0005e	83 c2 0e	 add	 edx, 14			; 0000000eH
  00061	52		 push	 edx
  00062	68 00 00 00 00	 push	 OFFSET ??_C@_0EL@MMNLIBAL@c?3?2users?2nhv90?2projects?2eech?2ap@
  00067	a1 00 00 00 00	 mov	 eax, DWORD PTR ?null_entity_pointer_message@@3PBDB ; null_entity_pointer_message
  0006c	50		 push	 eax
  0006d	e8 00 00 00 00	 call	 ?process_assert@@YGXPBD0H@Z ; process_assert
  00072	c7 45 b0 00 00
	00 00		 mov	 DWORD PTR tv80[ebp], 0
$LN11@response_t:
  00079	83 7d b0 22	 cmp	 DWORD PTR tv80[ebp], 34	; 00000022H
  0007d	74 18		 je	 SHORT $LN4@response_t
  0007f	a1 00 00 00 00	 mov	 eax, DWORD PTR ?__LINE__Var@?0??response_to_task_completed@@YGHW4ENTITY_MESSAGES@@PAUENTITY@@1PAD@Z@4JA
  00084	83 c0 0e	 add	 eax, 14			; 0000000eH
  00087	50		 push	 eax
  00088	68 00 00 00 00	 push	 OFFSET ??_C@_0EL@MMNLIBAL@c?3?2users?2nhv90?2projects?2eech?2ap@
  0008d	68 00 00 00 00	 push	 OFFSET ??_C@_0DD@KBEJLCDL@get_local_entity_type?5?$CIsender?$CJ?5@
  00092	e8 00 00 00 00	 call	 ?process_assert@@YGXPBD0H@Z ; process_assert
$LN4@response_t:

; 1277 : 
; 1278 : 	task_terminated = (task_terminated_types) va_arg (pargs, int);

  00097	8b 45 14	 mov	 eax, DWORD PTR _pargs$[ebp]
  0009a	83 c0 04	 add	 eax, 4
  0009d	89 45 14	 mov	 DWORD PTR _pargs$[ebp], eax
  000a0	8b 4d 14	 mov	 ecx, DWORD PTR _pargs$[ebp]
  000a3	8b 51 fc	 mov	 edx, DWORD PTR [ecx-4]
  000a6	89 55 f4	 mov	 DWORD PTR _task_terminated$[ebp], edx

; 1279 : 
; 1280 : 	sub_type = get_local_entity_int_value (sender, INT_TYPE_ENTITY_SUB_TYPE);

  000a9	83 7d 10 00	 cmp	 DWORD PTR _sender$[ebp], 0
  000ad	74 0a		 je	 SHORT $LN12@response_t
  000af	8b 45 10	 mov	 eax, DWORD PTR _sender$[ebp]
  000b2	8b 08		 mov	 ecx, DWORD PTR [eax]
  000b4	89 4d b0	 mov	 DWORD PTR tv94[ebp], ecx
  000b7	eb 21		 jmp	 SHORT $LN13@response_t
$LN12@response_t:
  000b9	8b 15 00 00 00
	00		 mov	 edx, DWORD PTR ?__LINE__Var@?0??response_to_task_completed@@YGHW4ENTITY_MESSAGES@@PAUENTITY@@1PAD@Z@4JA
  000bf	83 c2 12	 add	 edx, 18			; 00000012H
  000c2	52		 push	 edx
  000c3	68 00 00 00 00	 push	 OFFSET ??_C@_0EL@MMNLIBAL@c?3?2users?2nhv90?2projects?2eech?2ap@
  000c8	a1 00 00 00 00	 mov	 eax, DWORD PTR ?null_entity_pointer_message@@3PBDB ; null_entity_pointer_message
  000cd	50		 push	 eax
  000ce	e8 00 00 00 00	 call	 ?process_assert@@YGXPBD0H@Z ; process_assert
  000d3	c7 45 b0 00 00
	00 00		 mov	 DWORD PTR tv94[ebp], 0
$LN13@response_t:
  000da	b9 01 00 00 00	 mov	 ecx, 1
  000df	85 c9		 test	 ecx, ecx
  000e1	74 09		 je	 SHORT $LN14@response_t
  000e3	c7 45 ac 34 00
	00 00		 mov	 DWORD PTR tv134[ebp], 52 ; 00000034H
  000ea	eb 21		 jmp	 SHORT $LN15@response_t
$LN14@response_t:
  000ec	8b 15 00 00 00
	00		 mov	 edx, DWORD PTR ?__LINE__Var@?0??response_to_task_completed@@YGHW4ENTITY_MESSAGES@@PAUENTITY@@1PAD@Z@4JA
  000f2	83 c2 12	 add	 edx, 18			; 00000012H
  000f5	52		 push	 edx
  000f6	68 00 00 00 00	 push	 OFFSET ??_C@_0EL@MMNLIBAL@c?3?2users?2nhv90?2projects?2eech?2ap@
  000fb	a1 00 00 00 00	 mov	 eax, DWORD PTR ?overload_invalid_int_type_message@@3PBDB ; overload_invalid_int_type_message
  00100	50		 push	 eax
  00101	e8 00 00 00 00	 call	 ?process_assert@@YGXPBD0H@Z ; process_assert
  00106	c7 45 ac 00 00
	00 00		 mov	 DWORD PTR tv134[ebp], 0
$LN15@response_t:
  0010d	6a 34		 push	 52			; 00000034H
  0010f	8b 4d 10	 mov	 ecx, DWORD PTR _sender$[ebp]
  00112	51		 push	 ecx
  00113	69 55 b0 5c 04
	00 00		 imul	 edx, DWORD PTR tv94[ebp], 1116
  0011a	8b 45 ac	 mov	 eax, DWORD PTR tv134[ebp]
  0011d	8b 8c 82 00 00
	00 00		 mov	 ecx, DWORD PTR ?fn_get_local_entity_int_value@@3PAY0BBH@P6GHPAUENTITY@@W4INT_TYPES@@@ZA[edx+eax*4]
  00124	ff d1		 call	 ecx
  00126	89 45 fc	 mov	 DWORD PTR _sub_type$[ebp], eax

; 1281 : 
; 1282 : 	ASSERT (task_database [sub_type].primary_task);

  00129	6b 45 fc 50	 imul	 eax, DWORD PTR _sub_type$[ebp], 80
  0012d	8b 88 28 00 00
	00		 mov	 ecx, DWORD PTR ?task_database@@3PAUTASK_DATA@@A[eax+40]
  00133	d1 e9		 shr	 ecx, 1
  00135	83 e1 01	 and	 ecx, 1
  00138	75 18		 jne	 SHORT $LN5@response_t
  0013a	a1 00 00 00 00	 mov	 eax, DWORD PTR ?__LINE__Var@?0??response_to_task_completed@@YGHW4ENTITY_MESSAGES@@PAUENTITY@@1PAD@Z@4JA
  0013f	83 c0 14	 add	 eax, 20			; 00000014H
  00142	50		 push	 eax
  00143	68 00 00 00 00	 push	 OFFSET ??_C@_0EL@MMNLIBAL@c?3?2users?2nhv90?2projects?2eech?2ap@
  00148	68 00 00 00 00	 push	 OFFSET ??_C@_0CG@FDIGOKDB@task_database?5?$FLsub_type?$FN?4primar@
  0014d	e8 00 00 00 00	 call	 ?process_assert@@YGXPBD0H@Z ; process_assert
$LN5@response_t:

; 1283 : 
; 1284 : 	#if DEBUG_MODULE
; 1285 : 		
; 1286 : 	debug_log ("FC_MSGS(%s): force %s complete", entity_side_names [get_local_entity_int_value (receiver, INT_TYPE_SIDE)], entity_sub_type_task_names [sub_type]);
; 1287 : 	
; 1288 : 	#endif
; 1289 : 
; 1290 : 	//
; 1291 : 	// Create reactionary tasks
; 1292 : 	//
; 1293 : 
; 1294 : 	create_task_completed_reactionary_tasks (sender);

  00152	8b 45 10	 mov	 eax, DWORD PTR _sender$[ebp]
  00155	50		 push	 eax
  00156	e8 00 00 00 00	 call	 ?create_task_completed_reactionary_tasks@@YGXPAUENTITY@@@Z ; create_task_completed_reactionary_tasks

; 1295 : 
; 1296 : 	//
; 1297 : 	// Update force statistics
; 1298 : 	//
; 1299 : 	
; 1300 : 	force_raw = (force *) get_local_entity_data (receiver);

  0015b	8b 45 0c	 mov	 eax, DWORD PTR _receiver$[ebp]
  0015e	8b 48 04	 mov	 ecx, DWORD PTR [eax+4]
  00161	89 4d f8	 mov	 DWORD PTR _force_raw$[ebp], ecx

; 1301 : 
; 1302 : 	ASSERT (get_local_entity_int_value (sender, INT_TYPE_TASK_COMPLETED) != TASK_INCOMPLETE);

  00164	83 7d 10 00	 cmp	 DWORD PTR _sender$[ebp], 0
  00168	74 0a		 je	 SHORT $LN16@response_t
  0016a	8b 45 10	 mov	 eax, DWORD PTR _sender$[ebp]
  0016d	8b 08		 mov	 ecx, DWORD PTR [eax]
  0016f	89 4d b0	 mov	 DWORD PTR tv158[ebp], ecx
  00172	eb 21		 jmp	 SHORT $LN17@response_t
$LN16@response_t:
  00174	8b 15 00 00 00
	00		 mov	 edx, DWORD PTR ?__LINE__Var@?0??response_to_task_completed@@YGHW4ENTITY_MESSAGES@@PAUENTITY@@1PAD@Z@4JA
  0017a	83 c2 28	 add	 edx, 40			; 00000028H
  0017d	52		 push	 edx
  0017e	68 00 00 00 00	 push	 OFFSET ??_C@_0EL@MMNLIBAL@c?3?2users?2nhv90?2projects?2eech?2ap@
  00183	a1 00 00 00 00	 mov	 eax, DWORD PTR ?null_entity_pointer_message@@3PBDB ; null_entity_pointer_message
  00188	50		 push	 eax
  00189	e8 00 00 00 00	 call	 ?process_assert@@YGXPBD0H@Z ; process_assert
  0018e	c7 45 b0 00 00
	00 00		 mov	 DWORD PTR tv158[ebp], 0
$LN17@response_t:
  00195	b9 01 00 00 00	 mov	 ecx, 1
  0019a	85 c9		 test	 ecx, ecx
  0019c	74 09		 je	 SHORT $LN18@response_t
  0019e	c7 45 ac d9 00
	00 00		 mov	 DWORD PTR tv166[ebp], 217 ; 000000d9H
  001a5	eb 21		 jmp	 SHORT $LN19@response_t
$LN18@response_t:
  001a7	8b 15 00 00 00
	00		 mov	 edx, DWORD PTR ?__LINE__Var@?0??response_to_task_completed@@YGHW4ENTITY_MESSAGES@@PAUENTITY@@1PAD@Z@4JA
  001ad	83 c2 28	 add	 edx, 40			; 00000028H
  001b0	52		 push	 edx
  001b1	68 00 00 00 00	 push	 OFFSET ??_C@_0EL@MMNLIBAL@c?3?2users?2nhv90?2projects?2eech?2ap@
  001b6	a1 00 00 00 00	 mov	 eax, DWORD PTR ?overload_invalid_int_type_message@@3PBDB ; overload_invalid_int_type_message
  001bb	50		 push	 eax
  001bc	e8 00 00 00 00	 call	 ?process_assert@@YGXPBD0H@Z ; process_assert
  001c1	c7 45 ac 00 00
	00 00		 mov	 DWORD PTR tv166[ebp], 0
$LN19@response_t:
  001c8	68 d9 00 00 00	 push	 217			; 000000d9H
  001cd	8b 4d 10	 mov	 ecx, DWORD PTR _sender$[ebp]
  001d0	51		 push	 ecx
  001d1	69 55 b0 5c 04
	00 00		 imul	 edx, DWORD PTR tv158[ebp], 1116
  001d8	8b 45 ac	 mov	 eax, DWORD PTR tv166[ebp]
  001db	8b 8c 82 00 00
	00 00		 mov	 ecx, DWORD PTR ?fn_get_local_entity_int_value@@3PAY0BBH@P6GHPAUENTITY@@W4INT_TYPES@@@ZA[edx+eax*4]
  001e2	ff d1		 call	 ecx
  001e4	85 c0		 test	 eax, eax
  001e6	75 18		 jne	 SHORT $LN6@response_t
  001e8	a1 00 00 00 00	 mov	 eax, DWORD PTR ?__LINE__Var@?0??response_to_task_completed@@YGHW4ENTITY_MESSAGES@@PAUENTITY@@1PAD@Z@4JA
  001ed	83 c0 28	 add	 eax, 40			; 00000028H
  001f0	50		 push	 eax
  001f1	68 00 00 00 00	 push	 OFFSET ??_C@_0EL@MMNLIBAL@c?3?2users?2nhv90?2projects?2eech?2ap@
  001f6	68 00 00 00 00	 push	 OFFSET ??_C@_0FA@OAMCLOLL@get_local_entity_int_value?5?$CIsen@
  001fb	e8 00 00 00 00	 call	 ?process_assert@@YGXPBD0H@Z ; process_assert
$LN6@response_t:

; 1303 : 
; 1304 : 	if (get_local_entity_int_value (sender, INT_TYPE_TASK_COMPLETED) == TASK_COMPLETED_FAILURE)

  00200	83 7d 10 00	 cmp	 DWORD PTR _sender$[ebp], 0
  00204	74 0a		 je	 SHORT $LN20@response_t
  00206	8b 45 10	 mov	 eax, DWORD PTR _sender$[ebp]
  00209	8b 08		 mov	 ecx, DWORD PTR [eax]
  0020b	89 4d b0	 mov	 DWORD PTR tv182[ebp], ecx
  0020e	eb 1d		 jmp	 SHORT $LN21@response_t
$LN20@response_t:
  00210	68 18 05 00 00	 push	 1304			; 00000518H
  00215	68 00 00 00 00	 push	 OFFSET ??_C@_0EL@MMNLIBAL@c?3?2users?2nhv90?2projects?2eech?2ap@
  0021a	8b 15 00 00 00
	00		 mov	 edx, DWORD PTR ?null_entity_pointer_message@@3PBDB ; null_entity_pointer_message
  00220	52		 push	 edx
  00221	e8 00 00 00 00	 call	 ?process_assert@@YGXPBD0H@Z ; process_assert
  00226	c7 45 b0 00 00
	00 00		 mov	 DWORD PTR tv182[ebp], 0
$LN21@response_t:
  0022d	b8 01 00 00 00	 mov	 eax, 1
  00232	85 c0		 test	 eax, eax
  00234	74 09		 je	 SHORT $LN22@response_t
  00236	c7 45 ac d9 00
	00 00		 mov	 DWORD PTR tv189[ebp], 217 ; 000000d9H
  0023d	eb 1d		 jmp	 SHORT $LN23@response_t
$LN22@response_t:
  0023f	68 18 05 00 00	 push	 1304			; 00000518H
  00244	68 00 00 00 00	 push	 OFFSET ??_C@_0EL@MMNLIBAL@c?3?2users?2nhv90?2projects?2eech?2ap@
  00249	8b 0d 00 00 00
	00		 mov	 ecx, DWORD PTR ?overload_invalid_int_type_message@@3PBDB ; overload_invalid_int_type_message
  0024f	51		 push	 ecx
  00250	e8 00 00 00 00	 call	 ?process_assert@@YGXPBD0H@Z ; process_assert
  00255	c7 45 ac 00 00
	00 00		 mov	 DWORD PTR tv189[ebp], 0
$LN23@response_t:
  0025c	68 d9 00 00 00	 push	 217			; 000000d9H
  00261	8b 55 10	 mov	 edx, DWORD PTR _sender$[ebp]
  00264	52		 push	 edx
  00265	69 45 b0 5c 04
	00 00		 imul	 eax, DWORD PTR tv182[ebp], 1116
  0026c	8b 4d ac	 mov	 ecx, DWORD PTR tv189[ebp]
  0026f	8b 94 88 00 00
	00 00		 mov	 edx, DWORD PTR ?fn_get_local_entity_int_value@@3PAY0BBH@P6GHPAUENTITY@@W4INT_TYPES@@@ZA[eax+ecx*4]
  00276	ff d2		 call	 edx
  00278	83 f8 01	 cmp	 eax, 1
  0027b	75 25		 jne	 SHORT $LN7@response_t

; 1305 : 	{
; 1306 : 		force_raw->task_generation [sub_type].failed ++;

  0027d	8b 45 fc	 mov	 eax, DWORD PTR _sub_type$[ebp]
  00280	c1 e0 04	 shl	 eax, 4
  00283	8b 4d f8	 mov	 ecx, DWORD PTR _force_raw$[ebp]
  00286	8b 94 01 48 01
	00 00		 mov	 edx, DWORD PTR [ecx+eax+328]
  0028d	83 c2 01	 add	 edx, 1
  00290	8b 45 fc	 mov	 eax, DWORD PTR _sub_type$[ebp]
  00293	c1 e0 04	 shl	 eax, 4
  00296	8b 4d f8	 mov	 ecx, DWORD PTR _force_raw$[ebp]
  00299	89 94 01 48 01
	00 00		 mov	 DWORD PTR [ecx+eax+328], edx

; 1307 : 	}
; 1308 : 	else

  002a0	eb 23		 jmp	 SHORT $LN8@response_t
$LN7@response_t:

; 1309 : 	{
; 1310 : 		force_raw->task_generation [sub_type].completed ++;

  002a2	8b 45 fc	 mov	 eax, DWORD PTR _sub_type$[ebp]
  002a5	c1 e0 04	 shl	 eax, 4
  002a8	8b 4d f8	 mov	 ecx, DWORD PTR _force_raw$[ebp]
  002ab	8b 94 01 44 01
	00 00		 mov	 edx, DWORD PTR [ecx+eax+324]
  002b2	83 c2 01	 add	 edx, 1
  002b5	8b 45 fc	 mov	 eax, DWORD PTR _sub_type$[ebp]
  002b8	c1 e0 04	 shl	 eax, 4
  002bb	8b 4d f8	 mov	 ecx, DWORD PTR _force_raw$[ebp]
  002be	89 94 01 44 01
	00 00		 mov	 DWORD PTR [ecx+eax+324], edx
$LN8@response_t:

; 1311 : 	}
; 1312 : 
; 1313 : 	return (TRUE);

  002c5	b8 01 00 00 00	 mov	 eax, 1

; 1314 : }

  002ca	5f		 pop	 edi
  002cb	5e		 pop	 esi
  002cc	5b		 pop	 ebx
  002cd	8b e5		 mov	 esp, ebp
  002cf	5d		 pop	 ebp
  002d0	c2 10 00	 ret	 16			; 00000010H
?response_to_task_completed@@YGHW4ENTITY_MESSAGES@@PAUENTITY@@1PAD@Z ENDP ; response_to_task_completed
_TEXT	ENDS
; Function compile flags: /Odtp /ZI
; File c:\users\nhv90\projects\eech\aphavoc\source\entity\special\force\fc_msgs.c
;	COMDAT ?response_to_task_assigned@@YGHW4ENTITY_MESSAGES@@PAUENTITY@@1PAD@Z
_TEXT	SEGMENT
_message$ = 8						; size = 4
_receiver$ = 12						; size = 4
_sender$ = 16						; size = 4
_pargs$ = 20						; size = 4
?response_to_task_assigned@@YGHW4ENTITY_MESSAGES@@PAUENTITY@@1PAD@Z PROC ; response_to_task_assigned, COMDAT

; 1245 : {

  00000	55		 push	 ebp
  00001	8b ec		 mov	 ebp, esp
  00003	83 ec 40	 sub	 esp, 64			; 00000040H
  00006	53		 push	 ebx
  00007	56		 push	 esi
  00008	57		 push	 edi

; 1246 : 	ASSERT (sender);

  00009	83 7d 10 00	 cmp	 DWORD PTR _sender$[ebp], 0
  0000d	75 18		 jne	 SHORT $LN2@response_t
  0000f	a1 00 00 00 00	 mov	 eax, DWORD PTR ?__LINE__Var@?0??response_to_task_assigned@@YGHW4ENTITY_MESSAGES@@PAUENTITY@@1PAD@Z@4JA
  00014	83 c0 01	 add	 eax, 1
  00017	50		 push	 eax
  00018	68 00 00 00 00	 push	 OFFSET ??_C@_0EL@MMNLIBAL@c?3?2users?2nhv90?2projects?2eech?2ap@
  0001d	68 00 00 00 00	 push	 OFFSET ??_C@_06CGHJMPBJ@sender@
  00022	e8 00 00 00 00	 call	 ?process_assert@@YGXPBD0H@Z ; process_assert
$LN2@response_t:

; 1247 : 
; 1248 : 	ASSERT (sender->type == ENTITY_TYPE_TASK);

  00027	8b 45 10	 mov	 eax, DWORD PTR _sender$[ebp]
  0002a	83 38 22	 cmp	 DWORD PTR [eax], 34	; 00000022H
  0002d	74 18		 je	 SHORT $LN3@response_t
  0002f	a1 00 00 00 00	 mov	 eax, DWORD PTR ?__LINE__Var@?0??response_to_task_assigned@@YGHW4ENTITY_MESSAGES@@PAUENTITY@@1PAD@Z@4JA
  00034	83 c0 03	 add	 eax, 3
  00037	50		 push	 eax
  00038	68 00 00 00 00	 push	 OFFSET ??_C@_0EL@MMNLIBAL@c?3?2users?2nhv90?2projects?2eech?2ap@
  0003d	68 00 00 00 00	 push	 OFFSET ??_C@_0CB@JCFBNGNO@sender?9?$DOtype?5?$DN?$DN?5ENTITY_TYPE_TAS@
  00042	e8 00 00 00 00	 call	 ?process_assert@@YGXPBD0H@Z ; process_assert
$LN3@response_t:

; 1249 : 
; 1250 : 	ASSERT (get_comms_model () == COMMS_MODEL_SERVER);

  00047	83 3d 00 00 00
	00 00		 cmp	 DWORD PTR ?system_comms_model@@3W4COMMS_MODEL_TYPES@@A, 0 ; system_comms_model
  0004e	74 18		 je	 SHORT $LN4@response_t
  00050	a1 00 00 00 00	 mov	 eax, DWORD PTR ?__LINE__Var@?0??response_to_task_assigned@@YGHW4ENTITY_MESSAGES@@PAUENTITY@@1PAD@Z@4JA
  00055	83 c0 05	 add	 eax, 5
  00058	50		 push	 eax
  00059	68 00 00 00 00	 push	 OFFSET ??_C@_0EL@MMNLIBAL@c?3?2users?2nhv90?2projects?2eech?2ap@
  0005e	68 00 00 00 00	 push	 OFFSET ??_C@_0CJ@DMBLBJBK@get_comms_model?5?$CI?$CJ?5?$DN?$DN?5COMMS_MOD@
  00063	e8 00 00 00 00	 call	 ?process_assert@@YGXPBD0H@Z ; process_assert
$LN4@response_t:

; 1251 : 
; 1252 : 	create_task_assigned_reactionary_tasks (sender);

  00068	8b 45 10	 mov	 eax, DWORD PTR _sender$[ebp]
  0006b	50		 push	 eax
  0006c	e8 00 00 00 00	 call	 ?create_task_assigned_reactionary_tasks@@YGXPAUENTITY@@@Z ; create_task_assigned_reactionary_tasks

; 1253 : 
; 1254 : 	return (TRUE);

  00071	b8 01 00 00 00	 mov	 eax, 1

; 1255 : }

  00076	5f		 pop	 edi
  00077	5e		 pop	 esi
  00078	5b		 pop	 ebx
  00079	8b e5		 mov	 esp, ebp
  0007b	5d		 pop	 ebp
  0007c	c2 10 00	 ret	 16			; 00000010H
?response_to_task_assigned@@YGHW4ENTITY_MESSAGES@@PAUENTITY@@1PAD@Z ENDP ; response_to_task_assigned
_TEXT	ENDS
; Function compile flags: /Odtp /ZI
; File c:\users\nhv90\projects\eech\aphavoc\source\entity\special\force\fc_msgs.c
;	COMDAT ?response_to_task_created@@YGHW4ENTITY_MESSAGES@@PAUENTITY@@1PAD@Z
_TEXT	SEGMENT
_objective$ = -4					; size = 4
_message$ = 8						; size = 4
_receiver$ = 12						; size = 4
_sender$ = 16						; size = 4
_pargs$ = 20						; size = 4
?response_to_task_created@@YGHW4ENTITY_MESSAGES@@PAUENTITY@@1PAD@Z PROC ; response_to_task_created, COMDAT

; 1197 : {

  00000	55		 push	 ebp
  00001	8b ec		 mov	 ebp, esp
  00003	83 ec 44	 sub	 esp, 68			; 00000044H
  00006	53		 push	 ebx
  00007	56		 push	 esi
  00008	57		 push	 edi

; 1198 : 	entity
; 1199 : 		*objective;
; 1200 : 
; 1201 : 	ASSERT (sender);

  00009	83 7d 10 00	 cmp	 DWORD PTR _sender$[ebp], 0
  0000d	75 18		 jne	 SHORT $LN2@response_t
  0000f	a1 00 00 00 00	 mov	 eax, DWORD PTR ?__LINE__Var@?0??response_to_task_created@@YGHW4ENTITY_MESSAGES@@PAUENTITY@@1PAD@Z@4JA
  00014	83 c0 04	 add	 eax, 4
  00017	50		 push	 eax
  00018	68 00 00 00 00	 push	 OFFSET ??_C@_0EL@MMNLIBAL@c?3?2users?2nhv90?2projects?2eech?2ap@
  0001d	68 00 00 00 00	 push	 OFFSET ??_C@_06CGHJMPBJ@sender@
  00022	e8 00 00 00 00	 call	 ?process_assert@@YGXPBD0H@Z ; process_assert
$LN2@response_t:

; 1202 : 
; 1203 : 	ASSERT (sender->type == ENTITY_TYPE_TASK);

  00027	8b 45 10	 mov	 eax, DWORD PTR _sender$[ebp]
  0002a	83 38 22	 cmp	 DWORD PTR [eax], 34	; 00000022H
  0002d	74 18		 je	 SHORT $LN3@response_t
  0002f	a1 00 00 00 00	 mov	 eax, DWORD PTR ?__LINE__Var@?0??response_to_task_created@@YGHW4ENTITY_MESSAGES@@PAUENTITY@@1PAD@Z@4JA
  00034	83 c0 06	 add	 eax, 6
  00037	50		 push	 eax
  00038	68 00 00 00 00	 push	 OFFSET ??_C@_0EL@MMNLIBAL@c?3?2users?2nhv90?2projects?2eech?2ap@
  0003d	68 00 00 00 00	 push	 OFFSET ??_C@_0CB@JCFBNGNO@sender?9?$DOtype?5?$DN?$DN?5ENTITY_TYPE_TAS@
  00042	e8 00 00 00 00	 call	 ?process_assert@@YGXPBD0H@Z ; process_assert
$LN3@response_t:

; 1204 : 
; 1205 : 	if ((get_game_status () != GAME_STATUS_INITIALISED) || (get_comms_model () == COMMS_MODEL_CLIENT))

  00047	83 3d 00 00 00
	00 03		 cmp	 DWORD PTR ?game_status@@3W4GAME_STATUS_TYPES@@A, 3 ; game_status
  0004e	75 09		 jne	 SHORT $LN5@response_t
  00050	83 3d 00 00 00
	00 01		 cmp	 DWORD PTR ?system_comms_model@@3W4COMMS_MODEL_TYPES@@A, 1 ; system_comms_model
  00057	75 04		 jne	 SHORT $LN4@response_t
$LN5@response_t:

; 1206 : 	{
; 1207 : 
; 1208 : 		return (FALSE);

  00059	33 c0		 xor	 eax, eax
  0005b	eb 17		 jmp	 SHORT $LN1@response_t
$LN4@response_t:

; 1209 : 	}
; 1210 : 
; 1211 : 	objective = va_arg (pargs, entity *);

  0005d	8b 45 14	 mov	 eax, DWORD PTR _pargs$[ebp]
  00060	83 c0 04	 add	 eax, 4
  00063	89 45 14	 mov	 DWORD PTR _pargs$[ebp], eax
  00066	8b 4d 14	 mov	 ecx, DWORD PTR _pargs$[ebp]
  00069	8b 51 fc	 mov	 edx, DWORD PTR [ecx-4]
  0006c	89 55 fc	 mov	 DWORD PTR _objective$[ebp], edx

; 1212 : 
; 1213 : 	if (objective)
; 1214 : 	{
; 1215 : 	
; 1216 : 		#if DEBUG_MODULE
; 1217 : 			
; 1218 : 		debug_log ("FC_MSGS(%s): enemy created task %s objective %s",
; 1219 : 						entity_side_names [get_local_entity_int_value (receiver, INT_TYPE_SIDE)],
; 1220 : 						entity_sub_type_task_names [get_local_entity_int_value (sender, INT_TYPE_ENTITY_SUB_TYPE)],
; 1221 : 						entity_type_names [objective->type]);
; 1222 : 		
; 1223 : 		#endif
; 1224 : 	}
; 1225 : 	else
; 1226 : 	{
; 1227 : 	
; 1228 : 		#if DEBUG_MODULE
; 1229 : 			
; 1230 : 		debug_log ("FC_MSGS(%s): enemy created task %s",
; 1231 : 						entity_side_names [get_local_entity_int_value (receiver, INT_TYPE_SIDE)],
; 1232 : 						entity_sub_type_task_names [get_local_entity_int_value (sender, INT_TYPE_ENTITY_SUB_TYPE)]);
; 1233 : 		
; 1234 : 		#endif
; 1235 : 	}
; 1236 : 
; 1237 : 	return (TRUE);

  0006f	b8 01 00 00 00	 mov	 eax, 1
$LN1@response_t:

; 1238 : }

  00074	5f		 pop	 edi
  00075	5e		 pop	 esi
  00076	5b		 pop	 ebx
  00077	8b e5		 mov	 esp, ebp
  00079	5d		 pop	 ebp
  0007a	c2 10 00	 ret	 16			; 00000010H
?response_to_task_created@@YGHW4ENTITY_MESSAGES@@PAUENTITY@@1PAD@Z ENDP ; response_to_task_created
_TEXT	ENDS
; Function compile flags: /Odtp /ZI
; File c:\users\nhv90\projects\eech\aphavoc\source\entity\special\force\fc_msgs.c
;	COMDAT ?response_to_request_assistance@@YGHW4ENTITY_MESSAGES@@PAUENTITY@@1PAD@Z
_TEXT	SEGMENT
tv467 = -144						; size = 4
tv459 = -140						; size = 4
tv446 = -136						; size = 4
tv438 = -132						; size = 4
tv513 = -128						; size = 4
tv489 = -128						; size = 4
tv425 = -128						; size = 4
tv389 = -128						; size = 4
tv368 = -128						; size = 4
tv347 = -128						; size = 4
tv328 = -128						; size = 4
tv303 = -128						; size = 4
tv273 = -128						; size = 4
tv252 = -128						; size = 4
tv233 = -128						; size = 4
tv212 = -128						; size = 4
tv183 = -128						; size = 4
tv158 = -128						; size = 4
tv131 = -128						; size = 4
tv505 = -124						; size = 4
tv481 = -124						; size = 4
tv417 = -124						; size = 4
tv381 = -124						; size = 4
tv360 = -124						; size = 4
tv340 = -124						; size = 4
tv320 = -124						; size = 4
tv296 = -124						; size = 4
tv265 = -124						; size = 4
tv245 = -124						; size = 4
tv226 = -124						; size = 4
tv204 = -124						; size = 4
tv175 = -124						; size = 4
tv150 = -124						; size = 4
tv91 = -124						; size = 4
tv81 = -124						; size = 4
_max_range$ = -56					; size = 4
_range$ = -52						; size = 4
_response$ = -48					; size = 4
_group_type$ = -44					; size = 4
_flag$ = -40						; size = 4
_group_pos$ = -36					; size = 4
_pos$ = -32						; size = 4
_target_group$ = -28					; size = 4
_aggressor$ = -24					; size = 4
_member$ = -20						; size = 4
_victim_group$ = -16					; size = 4
_victim$ = -12						; size = 4
_group$ = -8						; size = 4
_task$ = -4						; size = 4
_message$ = 8						; size = 4
_receiver$ = 12						; size = 4
_sender$ = 16						; size = 4
_pargs$ = 20						; size = 4
?response_to_request_assistance@@YGHW4ENTITY_MESSAGES@@PAUENTITY@@1PAD@Z PROC ; response_to_request_assistance, COMDAT

; 1009 : {

  00000	55		 push	 ebp
  00001	8b ec		 mov	 ebp, esp
  00003	81 ec 90 00 00
	00		 sub	 esp, 144		; 00000090H
  00009	53		 push	 ebx
  0000a	56		 push	 esi
  0000b	57		 push	 edi

; 1010 : 	entity
; 1011 : 		*task,
; 1012 : 		*group,
; 1013 : 		*victim,
; 1014 : 		*victim_group,
; 1015 : 		*member,
; 1016 : 		*aggressor,
; 1017 : 		*target_group;
; 1018 : 
; 1019 : 	vec3d
; 1020 : 		*pos,
; 1021 : 		*group_pos;
; 1022 : 
; 1023 : 	int
; 1024 : 		flag,
; 1025 : 		group_type,
; 1026 : 		response;
; 1027 : 
; 1028 : 	float
; 1029 : 		range,
; 1030 : 		max_range;
; 1031 : 
; 1032 : 	aggressor = va_arg (pargs, entity *);

  0000c	8b 45 14	 mov	 eax, DWORD PTR _pargs$[ebp]
  0000f	83 c0 04	 add	 eax, 4
  00012	89 45 14	 mov	 DWORD PTR _pargs$[ebp], eax
  00015	8b 4d 14	 mov	 ecx, DWORD PTR _pargs$[ebp]
  00018	8b 51 fc	 mov	 edx, DWORD PTR [ecx-4]
  0001b	89 55 e8	 mov	 DWORD PTR _aggressor$[ebp], edx

; 1033 : 
; 1034 : 	ASSERT (aggressor);

  0001e	83 7d e8 00	 cmp	 DWORD PTR _aggressor$[ebp], 0
  00022	75 18		 jne	 SHORT $LN6@response_t
  00024	a1 00 00 00 00	 mov	 eax, DWORD PTR ?__LINE__Var@?0??response_to_request_assistance@@YGHW4ENTITY_MESSAGES@@PAUENTITY@@1PAD@Z@4JA
  00029	83 c0 19	 add	 eax, 25			; 00000019H
  0002c	50		 push	 eax
  0002d	68 00 00 00 00	 push	 OFFSET ??_C@_0EL@MMNLIBAL@c?3?2users?2nhv90?2projects?2eech?2ap@
  00032	68 00 00 00 00	 push	 OFFSET ??_C@_09HKMIOAOH@aggressor@
  00037	e8 00 00 00 00	 call	 ?process_assert@@YGXPBD0H@Z ; process_assert
$LN6@response_t:

; 1035 : 
; 1036 : 	ASSERT (sender);

  0003c	83 7d 10 00	 cmp	 DWORD PTR _sender$[ebp], 0
  00040	75 18		 jne	 SHORT $LN7@response_t
  00042	a1 00 00 00 00	 mov	 eax, DWORD PTR ?__LINE__Var@?0??response_to_request_assistance@@YGHW4ENTITY_MESSAGES@@PAUENTITY@@1PAD@Z@4JA
  00047	83 c0 1b	 add	 eax, 27			; 0000001bH
  0004a	50		 push	 eax
  0004b	68 00 00 00 00	 push	 OFFSET ??_C@_0EL@MMNLIBAL@c?3?2users?2nhv90?2projects?2eech?2ap@
  00050	68 00 00 00 00	 push	 OFFSET ??_C@_06CGHJMPBJ@sender@
  00055	e8 00 00 00 00	 call	 ?process_assert@@YGXPBD0H@Z ; process_assert
$LN7@response_t:

; 1037 : 
; 1038 : 	victim = sender;

  0005a	8b 45 10	 mov	 eax, DWORD PTR _sender$[ebp]
  0005d	89 45 f4	 mov	 DWORD PTR _victim$[ebp], eax

; 1039 : 
; 1040 : 	if (get_local_entity_type (victim) == ENTITY_TYPE_KEYSITE)

  00060	83 7d f4 00	 cmp	 DWORD PTR _victim$[ebp], 0
  00064	74 0a		 je	 SHORT $LN27@response_t
  00066	8b 45 f4	 mov	 eax, DWORD PTR _victim$[ebp]
  00069	8b 08		 mov	 ecx, DWORD PTR [eax]
  0006b	89 4d 84	 mov	 DWORD PTR tv81[ebp], ecx
  0006e	eb 1d		 jmp	 SHORT $LN28@response_t
$LN27@response_t:
  00070	68 10 04 00 00	 push	 1040			; 00000410H
  00075	68 00 00 00 00	 push	 OFFSET ??_C@_0EL@MMNLIBAL@c?3?2users?2nhv90?2projects?2eech?2ap@
  0007a	8b 15 00 00 00
	00		 mov	 edx, DWORD PTR ?null_entity_pointer_message@@3PBDB ; null_entity_pointer_message
  00080	52		 push	 edx
  00081	e8 00 00 00 00	 call	 ?process_assert@@YGXPBD0H@Z ; process_assert
  00086	c7 45 84 00 00
	00 00		 mov	 DWORD PTR tv81[ebp], 0
$LN28@response_t:
  0008d	83 7d 84 0f	 cmp	 DWORD PTR tv81[ebp], 15	; 0000000fH
  00091	75 18		 jne	 SHORT $LN8@response_t

; 1041 : 	{
; 1042 : 		victim_group = victim;

  00093	8b 45 f4	 mov	 eax, DWORD PTR _victim$[ebp]
  00096	89 45 f0	 mov	 DWORD PTR _victim_group$[ebp], eax

; 1043 : 
; 1044 : 		play_keysite_under_attack_speech (victim, aggressor);

  00099	8b 45 e8	 mov	 eax, DWORD PTR _aggressor$[ebp]
  0009c	50		 push	 eax
  0009d	8b 4d f4	 mov	 ecx, DWORD PTR _victim$[ebp]
  000a0	51		 push	 ecx
  000a1	e8 00 00 00 00	 call	 ?play_keysite_under_attack_speech@@YGXPAUENTITY@@0@Z ; play_keysite_under_attack_speech

; 1045 : 	}
; 1046 : 	else

  000a6	e9 8d 00 00 00	 jmp	 $LN9@response_t
$LN8@response_t:

; 1047 : 	{
; 1048 : 		victim_group = get_local_entity_parent (victim, LIST_TYPE_MEMBER);

  000ab	83 7d f4 00	 cmp	 DWORD PTR _victim$[ebp], 0
  000af	74 0a		 je	 SHORT $LN29@response_t
  000b1	8b 45 f4	 mov	 eax, DWORD PTR _victim$[ebp]
  000b4	8b 08		 mov	 ecx, DWORD PTR [eax]
  000b6	89 4d 84	 mov	 DWORD PTR tv91[ebp], ecx
  000b9	eb 21		 jmp	 SHORT $LN30@response_t
$LN29@response_t:
  000bb	8b 15 00 00 00
	00		 mov	 edx, DWORD PTR ?__LINE__Var@?0??response_to_request_assistance@@YGHW4ENTITY_MESSAGES@@PAUENTITY@@1PAD@Z@4JA
  000c1	83 c2 27	 add	 edx, 39			; 00000027H
  000c4	52		 push	 edx
  000c5	68 00 00 00 00	 push	 OFFSET ??_C@_0EL@MMNLIBAL@c?3?2users?2nhv90?2projects?2eech?2ap@
  000ca	a1 00 00 00 00	 mov	 eax, DWORD PTR ?null_entity_pointer_message@@3PBDB ; null_entity_pointer_message
  000cf	50		 push	 eax
  000d0	e8 00 00 00 00	 call	 ?process_assert@@YGXPBD0H@Z ; process_assert
  000d5	c7 45 84 00 00
	00 00		 mov	 DWORD PTR tv91[ebp], 0
$LN30@response_t:
  000dc	b9 01 00 00 00	 mov	 ecx, 1
  000e1	85 c9		 test	 ecx, ecx
  000e3	74 09		 je	 SHORT $LN31@response_t
  000e5	c7 45 80 19 00
	00 00		 mov	 DWORD PTR tv131[ebp], 25 ; 00000019H
  000ec	eb 21		 jmp	 SHORT $LN32@response_t
$LN31@response_t:
  000ee	8b 15 00 00 00
	00		 mov	 edx, DWORD PTR ?__LINE__Var@?0??response_to_request_assistance@@YGHW4ENTITY_MESSAGES@@PAUENTITY@@1PAD@Z@4JA
  000f4	83 c2 27	 add	 edx, 39			; 00000027H
  000f7	52		 push	 edx
  000f8	68 00 00 00 00	 push	 OFFSET ??_C@_0EL@MMNLIBAL@c?3?2users?2nhv90?2projects?2eech?2ap@
  000fd	a1 00 00 00 00	 mov	 eax, DWORD PTR ?overload_invalid_list_type_message@@3PBDB ; overload_invalid_list_type_message
  00102	50		 push	 eax
  00103	e8 00 00 00 00	 call	 ?process_assert@@YGXPBD0H@Z ; process_assert
  00108	c7 45 80 00 00
	00 00		 mov	 DWORD PTR tv131[ebp], 0
$LN32@response_t:
  0010f	6a 19		 push	 25			; 00000019H
  00111	8b 4d f4	 mov	 ecx, DWORD PTR _victim$[ebp]
  00114	51		 push	 ecx
  00115	69 55 84 b4 00
	00 00		 imul	 edx, DWORD PTR tv91[ebp], 180
  0011c	8b 45 80	 mov	 eax, DWORD PTR tv131[ebp]
  0011f	8b 8c 82 00 00
	00 00		 mov	 ecx, DWORD PTR ?fn_get_local_entity_parent@@3PAY0CN@P6GPAUENTITY@@PAU1@W4LIST_TYPES@@@ZA[edx+eax*4]
  00126	ff d1		 call	 ecx
  00128	89 45 f0	 mov	 DWORD PTR _victim_group$[ebp], eax

; 1049 : 
; 1050 : 		play_mobile_under_attack_speech (victim, aggressor);

  0012b	8b 45 e8	 mov	 eax, DWORD PTR _aggressor$[ebp]
  0012e	50		 push	 eax
  0012f	8b 4d f4	 mov	 ecx, DWORD PTR _victim$[ebp]
  00132	51		 push	 ecx
  00133	e8 00 00 00 00	 call	 ?play_mobile_under_attack_speech@@YGXPAUENTITY@@0@Z ; play_mobile_under_attack_speech
$LN9@response_t:

; 1051 : 	}
; 1052 : 	
; 1053 : 	ASSERT (victim_group);

  00138	83 7d f0 00	 cmp	 DWORD PTR _victim_group$[ebp], 0
  0013c	75 18		 jne	 SHORT $LN10@response_t
  0013e	a1 00 00 00 00	 mov	 eax, DWORD PTR ?__LINE__Var@?0??response_to_request_assistance@@YGHW4ENTITY_MESSAGES@@PAUENTITY@@1PAD@Z@4JA
  00143	83 c0 2c	 add	 eax, 44			; 0000002cH
  00146	50		 push	 eax
  00147	68 00 00 00 00	 push	 OFFSET ??_C@_0EL@MMNLIBAL@c?3?2users?2nhv90?2projects?2eech?2ap@
  0014c	68 00 00 00 00	 push	 OFFSET ??_C@_0N@IPOFDKPI@victim_group@
  00151	e8 00 00 00 00	 call	 ?process_assert@@YGXPBD0H@Z ; process_assert
$LN10@response_t:

; 1054 : 
; 1055 : 	pos = get_local_entity_vec3d_ptr (victim, VEC3D_TYPE_POSITION);

  00156	83 7d f4 00	 cmp	 DWORD PTR _victim$[ebp], 0
  0015a	74 0a		 je	 SHORT $LN33@response_t
  0015c	8b 45 f4	 mov	 eax, DWORD PTR _victim$[ebp]
  0015f	8b 08		 mov	 ecx, DWORD PTR [eax]
  00161	89 4d 84	 mov	 DWORD PTR tv150[ebp], ecx
  00164	eb 21		 jmp	 SHORT $LN34@response_t
$LN33@response_t:
  00166	8b 15 00 00 00
	00		 mov	 edx, DWORD PTR ?__LINE__Var@?0??response_to_request_assistance@@YGHW4ENTITY_MESSAGES@@PAUENTITY@@1PAD@Z@4JA
  0016c	83 c2 2e	 add	 edx, 46			; 0000002eH
  0016f	52		 push	 edx
  00170	68 00 00 00 00	 push	 OFFSET ??_C@_0EL@MMNLIBAL@c?3?2users?2nhv90?2projects?2eech?2ap@
  00175	a1 00 00 00 00	 mov	 eax, DWORD PTR ?null_entity_pointer_message@@3PBDB ; null_entity_pointer_message
  0017a	50		 push	 eax
  0017b	e8 00 00 00 00	 call	 ?process_assert@@YGXPBD0H@Z ; process_assert
  00180	c7 45 84 00 00
	00 00		 mov	 DWORD PTR tv150[ebp], 0
$LN34@response_t:
  00187	b9 01 00 00 00	 mov	 ecx, 1
  0018c	85 c9		 test	 ecx, ecx
  0018e	74 09		 je	 SHORT $LN35@response_t
  00190	c7 45 80 08 00
	00 00		 mov	 DWORD PTR tv158[ebp], 8
  00197	eb 21		 jmp	 SHORT $LN36@response_t
$LN35@response_t:
  00199	8b 15 00 00 00
	00		 mov	 edx, DWORD PTR ?__LINE__Var@?0??response_to_request_assistance@@YGHW4ENTITY_MESSAGES@@PAUENTITY@@1PAD@Z@4JA
  0019f	83 c2 2e	 add	 edx, 46			; 0000002eH
  001a2	52		 push	 edx
  001a3	68 00 00 00 00	 push	 OFFSET ??_C@_0EL@MMNLIBAL@c?3?2users?2nhv90?2projects?2eech?2ap@
  001a8	a1 00 00 00 00	 mov	 eax, DWORD PTR ?overload_invalid_vec3d_type_message@@3PBDB ; overload_invalid_vec3d_type_message
  001ad	50		 push	 eax
  001ae	e8 00 00 00 00	 call	 ?process_assert@@YGXPBD0H@Z ; process_assert
  001b3	c7 45 80 00 00
	00 00		 mov	 DWORD PTR tv158[ebp], 0
$LN36@response_t:
  001ba	6a 08		 push	 8
  001bc	8b 4d f4	 mov	 ecx, DWORD PTR _victim$[ebp]
  001bf	51		 push	 ecx
  001c0	6b 55 84 60	 imul	 edx, DWORD PTR tv150[ebp], 96
  001c4	8b 45 80	 mov	 eax, DWORD PTR tv158[ebp]
  001c7	8b 8c 82 00 00
	00 00		 mov	 ecx, DWORD PTR ?fn_get_local_entity_vec3d_ptr@@3PAY0BI@P6GPAUVEC3D@@PAUENTITY@@W4VEC3D_TYPES@@@ZA[edx+eax*4]
  001ce	ff d1		 call	 ecx
  001d0	89 45 e0	 mov	 DWORD PTR _pos$[ebp], eax

; 1056 : 
; 1057 : 	ASSERT (pos);

  001d3	83 7d e0 00	 cmp	 DWORD PTR _pos$[ebp], 0
  001d7	75 18		 jne	 SHORT $LN11@response_t
  001d9	a1 00 00 00 00	 mov	 eax, DWORD PTR ?__LINE__Var@?0??response_to_request_assistance@@YGHW4ENTITY_MESSAGES@@PAUENTITY@@1PAD@Z@4JA
  001de	83 c0 30	 add	 eax, 48			; 00000030H
  001e1	50		 push	 eax
  001e2	68 00 00 00 00	 push	 OFFSET ??_C@_0EL@MMNLIBAL@c?3?2users?2nhv90?2projects?2eech?2ap@
  001e7	68 00 00 00 00	 push	 OFFSET ??_C@_03PCBNCGFH@pos@
  001ec	e8 00 00 00 00	 call	 ?process_assert@@YGXPBD0H@Z ; process_assert
$LN11@response_t:

; 1058 : 
; 1059 : 	target_group = get_local_entity_parent (aggressor, LIST_TYPE_MEMBER);

  001f1	83 7d e8 00	 cmp	 DWORD PTR _aggressor$[ebp], 0
  001f5	74 0a		 je	 SHORT $LN37@response_t
  001f7	8b 45 e8	 mov	 eax, DWORD PTR _aggressor$[ebp]
  001fa	8b 08		 mov	 ecx, DWORD PTR [eax]
  001fc	89 4d 84	 mov	 DWORD PTR tv175[ebp], ecx
  001ff	eb 21		 jmp	 SHORT $LN38@response_t
$LN37@response_t:
  00201	8b 15 00 00 00
	00		 mov	 edx, DWORD PTR ?__LINE__Var@?0??response_to_request_assistance@@YGHW4ENTITY_MESSAGES@@PAUENTITY@@1PAD@Z@4JA
  00207	83 c2 32	 add	 edx, 50			; 00000032H
  0020a	52		 push	 edx
  0020b	68 00 00 00 00	 push	 OFFSET ??_C@_0EL@MMNLIBAL@c?3?2users?2nhv90?2projects?2eech?2ap@
  00210	a1 00 00 00 00	 mov	 eax, DWORD PTR ?null_entity_pointer_message@@3PBDB ; null_entity_pointer_message
  00215	50		 push	 eax
  00216	e8 00 00 00 00	 call	 ?process_assert@@YGXPBD0H@Z ; process_assert
  0021b	c7 45 84 00 00
	00 00		 mov	 DWORD PTR tv175[ebp], 0
$LN38@response_t:
  00222	b9 01 00 00 00	 mov	 ecx, 1
  00227	85 c9		 test	 ecx, ecx
  00229	74 09		 je	 SHORT $LN39@response_t
  0022b	c7 45 80 19 00
	00 00		 mov	 DWORD PTR tv183[ebp], 25 ; 00000019H
  00232	eb 21		 jmp	 SHORT $LN40@response_t
$LN39@response_t:
  00234	8b 15 00 00 00
	00		 mov	 edx, DWORD PTR ?__LINE__Var@?0??response_to_request_assistance@@YGHW4ENTITY_MESSAGES@@PAUENTITY@@1PAD@Z@4JA
  0023a	83 c2 32	 add	 edx, 50			; 00000032H
  0023d	52		 push	 edx
  0023e	68 00 00 00 00	 push	 OFFSET ??_C@_0EL@MMNLIBAL@c?3?2users?2nhv90?2projects?2eech?2ap@
  00243	a1 00 00 00 00	 mov	 eax, DWORD PTR ?overload_invalid_list_type_message@@3PBDB ; overload_invalid_list_type_message
  00248	50		 push	 eax
  00249	e8 00 00 00 00	 call	 ?process_assert@@YGXPBD0H@Z ; process_assert
  0024e	c7 45 80 00 00
	00 00		 mov	 DWORD PTR tv183[ebp], 0
$LN40@response_t:
  00255	6a 19		 push	 25			; 00000019H
  00257	8b 4d e8	 mov	 ecx, DWORD PTR _aggressor$[ebp]
  0025a	51		 push	 ecx
  0025b	69 55 84 b4 00
	00 00		 imul	 edx, DWORD PTR tv175[ebp], 180
  00262	8b 45 80	 mov	 eax, DWORD PTR tv183[ebp]
  00265	8b 8c 82 00 00
	00 00		 mov	 ecx, DWORD PTR ?fn_get_local_entity_parent@@3PAY0CN@P6GPAUENTITY@@PAU1@W4LIST_TYPES@@@ZA[edx+eax*4]
  0026c	ff d1		 call	 ecx
  0026e	89 45 e4	 mov	 DWORD PTR _target_group$[ebp], eax

; 1060 : 
; 1061 : 	ASSERT (target_group);

  00271	83 7d e4 00	 cmp	 DWORD PTR _target_group$[ebp], 0
  00275	75 18		 jne	 SHORT $LN12@response_t
  00277	a1 00 00 00 00	 mov	 eax, DWORD PTR ?__LINE__Var@?0??response_to_request_assistance@@YGHW4ENTITY_MESSAGES@@PAUENTITY@@1PAD@Z@4JA
  0027c	83 c0 34	 add	 eax, 52			; 00000034H
  0027f	50		 push	 eax
  00280	68 00 00 00 00	 push	 OFFSET ??_C@_0EL@MMNLIBAL@c?3?2users?2nhv90?2projects?2eech?2ap@
  00285	68 00 00 00 00	 push	 OFFSET ??_C@_0N@MPJEABLJ@target_group@
  0028a	e8 00 00 00 00	 call	 ?process_assert@@YGXPBD0H@Z ; process_assert
$LN12@response_t:

; 1062 : 
; 1063 : 	response = FALSE;

  0028f	c7 45 d0 00 00
	00 00		 mov	 DWORD PTR _response$[ebp], 0

; 1064 : 
; 1065 : 	//
; 1066 : 	// Send Text Message
; 1067 : 	//
; 1068 : 
; 1069 : 	send_text_message (target_group, victim_group, MESSAGE_TEXT_SYSTEM_ENTITY_UNDER_ATTACK, NULL);

  00296	6a 00		 push	 0
  00298	6a 02		 push	 2
  0029a	8b 45 f0	 mov	 eax, DWORD PTR _victim_group$[ebp]
  0029d	50		 push	 eax
  0029e	8b 4d e4	 mov	 ecx, DWORD PTR _target_group$[ebp]
  002a1	51		 push	 ecx
  002a2	e8 00 00 00 00	 call	 ?send_text_message@@YGXPAUENTITY@@0W4MESSAGE_TEXT_TYPES@@PBD@Z ; send_text_message

; 1070 : 
; 1071 : 	//
; 1072 : 	// Play Speech
; 1073 : 	// 
; 1074 : 
; 1075 : 	
; 1076 : 
; 1077 : 	//
; 1078 : 	// find nearby suitable group
; 1079 : 	//
; 1080 : 
; 1081 : 	group = get_local_entity_first_child (receiver, LIST_TYPE_AIR_REGISTRY);

  002a7	83 7d 0c 00	 cmp	 DWORD PTR _receiver$[ebp], 0
  002ab	74 0a		 je	 SHORT $LN41@response_t
  002ad	8b 45 0c	 mov	 eax, DWORD PTR _receiver$[ebp]
  002b0	8b 08		 mov	 ecx, DWORD PTR [eax]
  002b2	89 4d 84	 mov	 DWORD PTR tv204[ebp], ecx
  002b5	eb 21		 jmp	 SHORT $LN42@response_t
$LN41@response_t:
  002b7	8b 15 00 00 00
	00		 mov	 edx, DWORD PTR ?__LINE__Var@?0??response_to_request_assistance@@YGHW4ENTITY_MESSAGES@@PAUENTITY@@1PAD@Z@4JA
  002bd	83 c2 48	 add	 edx, 72			; 00000048H
  002c0	52		 push	 edx
  002c1	68 00 00 00 00	 push	 OFFSET ??_C@_0EL@MMNLIBAL@c?3?2users?2nhv90?2projects?2eech?2ap@
  002c6	a1 00 00 00 00	 mov	 eax, DWORD PTR ?null_entity_pointer_message@@3PBDB ; null_entity_pointer_message
  002cb	50		 push	 eax
  002cc	e8 00 00 00 00	 call	 ?process_assert@@YGXPBD0H@Z ; process_assert
  002d1	c7 45 84 00 00
	00 00		 mov	 DWORD PTR tv204[ebp], 0
$LN42@response_t:
  002d8	b9 01 00 00 00	 mov	 ecx, 1
  002dd	85 c9		 test	 ecx, ecx
  002df	74 09		 je	 SHORT $LN43@response_t
  002e1	c7 45 80 02 00
	00 00		 mov	 DWORD PTR tv212[ebp], 2
  002e8	eb 21		 jmp	 SHORT $LN44@response_t
$LN43@response_t:
  002ea	8b 15 00 00 00
	00		 mov	 edx, DWORD PTR ?__LINE__Var@?0??response_to_request_assistance@@YGHW4ENTITY_MESSAGES@@PAUENTITY@@1PAD@Z@4JA
  002f0	83 c2 48	 add	 edx, 72			; 00000048H
  002f3	52		 push	 edx
  002f4	68 00 00 00 00	 push	 OFFSET ??_C@_0EL@MMNLIBAL@c?3?2users?2nhv90?2projects?2eech?2ap@
  002f9	a1 00 00 00 00	 mov	 eax, DWORD PTR ?overload_invalid_list_type_message@@3PBDB ; overload_invalid_list_type_message
  002fe	50		 push	 eax
  002ff	e8 00 00 00 00	 call	 ?process_assert@@YGXPBD0H@Z ; process_assert
  00304	c7 45 80 00 00
	00 00		 mov	 DWORD PTR tv212[ebp], 0
$LN44@response_t:
  0030b	6a 02		 push	 2
  0030d	8b 4d 0c	 mov	 ecx, DWORD PTR _receiver$[ebp]
  00310	51		 push	 ecx
  00311	69 55 84 b4 00
	00 00		 imul	 edx, DWORD PTR tv204[ebp], 180
  00318	8b 45 80	 mov	 eax, DWORD PTR tv212[ebp]
  0031b	8b 8c 82 00 00
	00 00		 mov	 ecx, DWORD PTR ?fn_get_local_entity_first_child@@3PAY0CN@P6GPAUENTITY@@PAU1@W4LIST_TYPES@@@ZA[edx+eax*4]
  00322	ff d1		 call	 ecx
  00324	89 45 f8	 mov	 DWORD PTR _group$[ebp], eax
$LN2@response_t:

; 1082 : 
; 1083 : 	while (group)

  00327	83 7d f8 00	 cmp	 DWORD PTR _group$[ebp], 0
  0032b	0f 84 da 07 00
	00		 je	 $LN3@response_t

; 1084 : 	{
; 1085 : 		if (group != victim_group)			// if sender is a group, we don't want itself responding to its own request !

  00331	8b 45 f8	 mov	 eax, DWORD PTR _group$[ebp]
  00334	3b 45 f0	 cmp	 eax, DWORD PTR _victim_group$[ebp]
  00337	0f 84 43 07 00
	00		 je	 $LN25@response_t

; 1086 : 		{
; 1087 : 			if (group != target_group)			// In certain FF incidents the aggressor may try to attack itself !

  0033d	8b 45 f8	 mov	 eax, DWORD PTR _group$[ebp]
  00340	3b 45 e4	 cmp	 eax, DWORD PTR _target_group$[ebp]
  00343	0f 84 37 07 00
	00		 je	 $LN25@response_t

; 1088 : 			{
; 1089 : 				if (get_local_entity_int_value (group, INT_TYPE_ALIVE))

  00349	83 7d f8 00	 cmp	 DWORD PTR _group$[ebp], 0
  0034d	74 0a		 je	 SHORT $LN45@response_t
  0034f	8b 45 f8	 mov	 eax, DWORD PTR _group$[ebp]
  00352	8b 08		 mov	 ecx, DWORD PTR [eax]
  00354	89 4d 84	 mov	 DWORD PTR tv226[ebp], ecx
  00357	eb 1d		 jmp	 SHORT $LN46@response_t
$LN45@response_t:
  00359	68 41 04 00 00	 push	 1089			; 00000441H
  0035e	68 00 00 00 00	 push	 OFFSET ??_C@_0EL@MMNLIBAL@c?3?2users?2nhv90?2projects?2eech?2ap@
  00363	8b 15 00 00 00
	00		 mov	 edx, DWORD PTR ?null_entity_pointer_message@@3PBDB ; null_entity_pointer_message
  00369	52		 push	 edx
  0036a	e8 00 00 00 00	 call	 ?process_assert@@YGXPBD0H@Z ; process_assert
  0036f	c7 45 84 00 00
	00 00		 mov	 DWORD PTR tv226[ebp], 0
$LN46@response_t:
  00376	b8 01 00 00 00	 mov	 eax, 1
  0037b	85 c0		 test	 eax, eax
  0037d	74 09		 je	 SHORT $LN47@response_t
  0037f	c7 45 80 07 00
	00 00		 mov	 DWORD PTR tv233[ebp], 7
  00386	eb 1d		 jmp	 SHORT $LN48@response_t
$LN47@response_t:
  00388	68 41 04 00 00	 push	 1089			; 00000441H
  0038d	68 00 00 00 00	 push	 OFFSET ??_C@_0EL@MMNLIBAL@c?3?2users?2nhv90?2projects?2eech?2ap@
  00392	8b 0d 00 00 00
	00		 mov	 ecx, DWORD PTR ?overload_invalid_int_type_message@@3PBDB ; overload_invalid_int_type_message
  00398	51		 push	 ecx
  00399	e8 00 00 00 00	 call	 ?process_assert@@YGXPBD0H@Z ; process_assert
  0039e	c7 45 80 00 00
	00 00		 mov	 DWORD PTR tv233[ebp], 0
$LN48@response_t:
  003a5	6a 07		 push	 7
  003a7	8b 55 f8	 mov	 edx, DWORD PTR _group$[ebp]
  003aa	52		 push	 edx
  003ab	69 45 84 5c 04
	00 00		 imul	 eax, DWORD PTR tv226[ebp], 1116
  003b2	8b 4d 80	 mov	 ecx, DWORD PTR tv233[ebp]
  003b5	8b 94 88 00 00
	00 00		 mov	 edx, DWORD PTR ?fn_get_local_entity_int_value@@3PAY0BBH@P6GHPAUENTITY@@W4INT_TYPES@@@ZA[eax+ecx*4]
  003bc	ff d2		 call	 edx
  003be	85 c0		 test	 eax, eax
  003c0	0f 84 ba 06 00
	00		 je	 $LN25@response_t

; 1090 : 				{
; 1091 : 					if (get_local_entity_int_value (group, INT_TYPE_ENGAGE_ENEMY))

  003c6	83 7d f8 00	 cmp	 DWORD PTR _group$[ebp], 0
  003ca	74 0a		 je	 SHORT $LN49@response_t
  003cc	8b 45 f8	 mov	 eax, DWORD PTR _group$[ebp]
  003cf	8b 08		 mov	 ecx, DWORD PTR [eax]
  003d1	89 4d 84	 mov	 DWORD PTR tv245[ebp], ecx
  003d4	eb 1d		 jmp	 SHORT $LN50@response_t
$LN49@response_t:
  003d6	68 43 04 00 00	 push	 1091			; 00000443H
  003db	68 00 00 00 00	 push	 OFFSET ??_C@_0EL@MMNLIBAL@c?3?2users?2nhv90?2projects?2eech?2ap@
  003e0	8b 15 00 00 00
	00		 mov	 edx, DWORD PTR ?null_entity_pointer_message@@3PBDB ; null_entity_pointer_message
  003e6	52		 push	 edx
  003e7	e8 00 00 00 00	 call	 ?process_assert@@YGXPBD0H@Z ; process_assert
  003ec	c7 45 84 00 00
	00 00		 mov	 DWORD PTR tv245[ebp], 0
$LN50@response_t:
  003f3	b8 01 00 00 00	 mov	 eax, 1
  003f8	85 c0		 test	 eax, eax
  003fa	74 09		 je	 SHORT $LN51@response_t
  003fc	c7 45 80 33 00
	00 00		 mov	 DWORD PTR tv252[ebp], 51 ; 00000033H
  00403	eb 1d		 jmp	 SHORT $LN52@response_t
$LN51@response_t:
  00405	68 43 04 00 00	 push	 1091			; 00000443H
  0040a	68 00 00 00 00	 push	 OFFSET ??_C@_0EL@MMNLIBAL@c?3?2users?2nhv90?2projects?2eech?2ap@
  0040f	8b 0d 00 00 00
	00		 mov	 ecx, DWORD PTR ?overload_invalid_int_type_message@@3PBDB ; overload_invalid_int_type_message
  00415	51		 push	 ecx
  00416	e8 00 00 00 00	 call	 ?process_assert@@YGXPBD0H@Z ; process_assert
  0041b	c7 45 80 00 00
	00 00		 mov	 DWORD PTR tv252[ebp], 0
$LN52@response_t:
  00422	6a 33		 push	 51			; 00000033H
  00424	8b 55 f8	 mov	 edx, DWORD PTR _group$[ebp]
  00427	52		 push	 edx
  00428	69 45 84 5c 04
	00 00		 imul	 eax, DWORD PTR tv245[ebp], 1116
  0042f	8b 4d 80	 mov	 ecx, DWORD PTR tv252[ebp]
  00432	8b 94 88 00 00
	00 00		 mov	 edx, DWORD PTR ?fn_get_local_entity_int_value@@3PAY0BBH@P6GHPAUENTITY@@W4INT_TYPES@@@ZA[eax+ecx*4]
  00439	ff d2		 call	 edx
  0043b	85 c0		 test	 eax, eax
  0043d	0f 84 3d 06 00
	00		 je	 $LN25@response_t

; 1092 : 					{
; 1093 : 						group_type = get_local_entity_int_value (group, INT_TYPE_ENTITY_SUB_TYPE);

  00443	83 7d f8 00	 cmp	 DWORD PTR _group$[ebp], 0
  00447	74 0a		 je	 SHORT $LN53@response_t
  00449	8b 45 f8	 mov	 eax, DWORD PTR _group$[ebp]
  0044c	8b 08		 mov	 ecx, DWORD PTR [eax]
  0044e	89 4d 84	 mov	 DWORD PTR tv265[ebp], ecx
  00451	eb 21		 jmp	 SHORT $LN54@response_t
$LN53@response_t:
  00453	8b 15 00 00 00
	00		 mov	 edx, DWORD PTR ?__LINE__Var@?0??response_to_request_assistance@@YGHW4ENTITY_MESSAGES@@PAUENTITY@@1PAD@Z@4JA
  00459	83 c2 54	 add	 edx, 84			; 00000054H
  0045c	52		 push	 edx
  0045d	68 00 00 00 00	 push	 OFFSET ??_C@_0EL@MMNLIBAL@c?3?2users?2nhv90?2projects?2eech?2ap@
  00462	a1 00 00 00 00	 mov	 eax, DWORD PTR ?null_entity_pointer_message@@3PBDB ; null_entity_pointer_message
  00467	50		 push	 eax
  00468	e8 00 00 00 00	 call	 ?process_assert@@YGXPBD0H@Z ; process_assert
  0046d	c7 45 84 00 00
	00 00		 mov	 DWORD PTR tv265[ebp], 0
$LN54@response_t:
  00474	b9 01 00 00 00	 mov	 ecx, 1
  00479	85 c9		 test	 ecx, ecx
  0047b	74 09		 je	 SHORT $LN55@response_t
  0047d	c7 45 80 34 00
	00 00		 mov	 DWORD PTR tv273[ebp], 52 ; 00000034H
  00484	eb 21		 jmp	 SHORT $LN56@response_t
$LN55@response_t:
  00486	8b 15 00 00 00
	00		 mov	 edx, DWORD PTR ?__LINE__Var@?0??response_to_request_assistance@@YGHW4ENTITY_MESSAGES@@PAUENTITY@@1PAD@Z@4JA
  0048c	83 c2 54	 add	 edx, 84			; 00000054H
  0048f	52		 push	 edx
  00490	68 00 00 00 00	 push	 OFFSET ??_C@_0EL@MMNLIBAL@c?3?2users?2nhv90?2projects?2eech?2ap@
  00495	a1 00 00 00 00	 mov	 eax, DWORD PTR ?overload_invalid_int_type_message@@3PBDB ; overload_invalid_int_type_message
  0049a	50		 push	 eax
  0049b	e8 00 00 00 00	 call	 ?process_assert@@YGXPBD0H@Z ; process_assert
  004a0	c7 45 80 00 00
	00 00		 mov	 DWORD PTR tv273[ebp], 0
$LN56@response_t:
  004a7	6a 34		 push	 52			; 00000034H
  004a9	8b 4d f8	 mov	 ecx, DWORD PTR _group$[ebp]
  004ac	51		 push	 ecx
  004ad	69 55 84 5c 04
	00 00		 imul	 edx, DWORD PTR tv265[ebp], 1116
  004b4	8b 45 80	 mov	 eax, DWORD PTR tv273[ebp]
  004b7	8b 8c 82 00 00
	00 00		 mov	 ecx, DWORD PTR ?fn_get_local_entity_int_value@@3PAY0BBH@P6GHPAUENTITY@@W4INT_TYPES@@@ZA[edx+eax*4]
  004be	ff d1		 call	 ecx
  004c0	89 45 d4	 mov	 DWORD PTR _group_type$[ebp], eax

; 1094 : 		
; 1095 : 						// group must be aircraft
; 1096 : 						if (group_database [group_type].movement_type == MOVEMENT_TYPE_AIR)

  004c3	6b 45 d4 64	 imul	 eax, DWORD PTR _group_type$[ebp], 100
  004c7	83 b8 14 00 00
	00 01		 cmp	 DWORD PTR ?group_database@@3PAUGROUP_DATA@@A[eax+20], 1
  004ce	0f 85 ac 05 00
	00		 jne	 $LN25@response_t

; 1097 : 						{
; 1098 : 							// group must be able to intercept with reasonable speed
; 1099 : 							if (group_database [group_type].ai_stats.movement_speed >= 3)

  004d4	6b 45 d4 64	 imul	 eax, DWORD PTR _group_type$[ebp], 100
  004d8	83 b8 54 00 00
	00 03		 cmp	 DWORD PTR ?group_database@@3PAUGROUP_DATA@@A[eax+84], 3
  004df	0f 8c 9b 05 00
	00		 jl	 $LN25@response_t

; 1100 : 							{
; 1101 : 								//
; 1102 : 								// group must already be airborne (i.e. navigating)
; 1103 : 								//
; 1104 : 	
; 1105 : 								task = get_local_group_primary_task (group);

  004e5	8b 45 f8	 mov	 eax, DWORD PTR _group$[ebp]
  004e8	50		 push	 eax
  004e9	e8 00 00 00 00	 call	 ?get_local_group_primary_task@@YGPAUENTITY@@PAU1@@Z ; get_local_group_primary_task
  004ee	89 45 fc	 mov	 DWORD PTR _task$[ebp], eax

; 1106 : 	
; 1107 : 								if (task)

  004f1	83 7d fc 00	 cmp	 DWORD PTR _task$[ebp], 0
  004f5	0f 84 85 05 00
	00		 je	 $LN25@response_t

; 1108 : 								{
; 1109 : 									if (get_local_entity_int_value (task, INT_TYPE_DEFAULT_ENGAGE_ENEMY))

  004fb	83 7d fc 00	 cmp	 DWORD PTR _task$[ebp], 0
  004ff	74 0a		 je	 SHORT $LN57@response_t
  00501	8b 45 fc	 mov	 eax, DWORD PTR _task$[ebp]
  00504	8b 08		 mov	 ecx, DWORD PTR [eax]
  00506	89 4d 84	 mov	 DWORD PTR tv296[ebp], ecx
  00509	eb 1d		 jmp	 SHORT $LN58@response_t
$LN57@response_t:
  0050b	68 55 04 00 00	 push	 1109			; 00000455H
  00510	68 00 00 00 00	 push	 OFFSET ??_C@_0EL@MMNLIBAL@c?3?2users?2nhv90?2projects?2eech?2ap@
  00515	8b 15 00 00 00
	00		 mov	 edx, DWORD PTR ?null_entity_pointer_message@@3PBDB ; null_entity_pointer_message
  0051b	52		 push	 edx
  0051c	e8 00 00 00 00	 call	 ?process_assert@@YGXPBD0H@Z ; process_assert
  00521	c7 45 84 00 00
	00 00		 mov	 DWORD PTR tv296[ebp], 0
$LN58@response_t:
  00528	b8 01 00 00 00	 mov	 eax, 1
  0052d	85 c0		 test	 eax, eax
  0052f	74 09		 je	 SHORT $LN59@response_t
  00531	c7 45 80 2a 00
	00 00		 mov	 DWORD PTR tv303[ebp], 42 ; 0000002aH
  00538	eb 1d		 jmp	 SHORT $LN60@response_t
$LN59@response_t:
  0053a	68 55 04 00 00	 push	 1109			; 00000455H
  0053f	68 00 00 00 00	 push	 OFFSET ??_C@_0EL@MMNLIBAL@c?3?2users?2nhv90?2projects?2eech?2ap@
  00544	8b 0d 00 00 00
	00		 mov	 ecx, DWORD PTR ?overload_invalid_int_type_message@@3PBDB ; overload_invalid_int_type_message
  0054a	51		 push	 ecx
  0054b	e8 00 00 00 00	 call	 ?process_assert@@YGXPBD0H@Z ; process_assert
  00550	c7 45 80 00 00
	00 00		 mov	 DWORD PTR tv303[ebp], 0
$LN60@response_t:
  00557	6a 2a		 push	 42			; 0000002aH
  00559	8b 55 fc	 mov	 edx, DWORD PTR _task$[ebp]
  0055c	52		 push	 edx
  0055d	69 45 84 5c 04
	00 00		 imul	 eax, DWORD PTR tv296[ebp], 1116
  00564	8b 4d 80	 mov	 ecx, DWORD PTR tv303[ebp]
  00567	8b 94 88 00 00
	00 00		 mov	 edx, DWORD PTR ?fn_get_local_entity_int_value@@3PAY0BBH@P6GHPAUENTITY@@W4INT_TYPES@@@ZA[eax+ecx*4]
  0056e	ff d2		 call	 edx
  00570	85 c0		 test	 eax, eax
  00572	0f 84 08 05 00
	00		 je	 $LN25@response_t

; 1110 : 									{
; 1111 : 										//
; 1112 : 										// Check group is not already engaging
; 1113 : 										//
; 1114 : 		
; 1115 : 										if (!check_group_task_type (group, ENTITY_SUB_TYPE_TASK_ENGAGE))

  00578	6a 09		 push	 9
  0057a	8b 45 f8	 mov	 eax, DWORD PTR _group$[ebp]
  0057d	50		 push	 eax
  0057e	e8 00 00 00 00	 call	 ?check_group_task_type@@YGHPAUENTITY@@H@Z ; check_group_task_type
  00583	85 c0		 test	 eax, eax
  00585	0f 85 f5 04 00
	00		 jne	 $LN25@response_t

; 1116 : 										{
; 1117 : 											flag = TRUE;

  0058b	c7 45 d8 01 00
	00 00		 mov	 DWORD PTR _flag$[ebp], 1

; 1118 : 				
; 1119 : 											member = get_local_entity_first_child (group, LIST_TYPE_MEMBER);

  00592	83 7d f8 00	 cmp	 DWORD PTR _group$[ebp], 0
  00596	74 0a		 je	 SHORT $LN61@response_t
  00598	8b 45 f8	 mov	 eax, DWORD PTR _group$[ebp]
  0059b	8b 08		 mov	 ecx, DWORD PTR [eax]
  0059d	89 4d 84	 mov	 DWORD PTR tv320[ebp], ecx
  005a0	eb 21		 jmp	 SHORT $LN62@response_t
$LN61@response_t:
  005a2	8b 15 00 00 00
	00		 mov	 edx, DWORD PTR ?__LINE__Var@?0??response_to_request_assistance@@YGHW4ENTITY_MESSAGES@@PAUENTITY@@1PAD@Z@4JA
  005a8	83 c2 6e	 add	 edx, 110		; 0000006eH
  005ab	52		 push	 edx
  005ac	68 00 00 00 00	 push	 OFFSET ??_C@_0EL@MMNLIBAL@c?3?2users?2nhv90?2projects?2eech?2ap@
  005b1	a1 00 00 00 00	 mov	 eax, DWORD PTR ?null_entity_pointer_message@@3PBDB ; null_entity_pointer_message
  005b6	50		 push	 eax
  005b7	e8 00 00 00 00	 call	 ?process_assert@@YGXPBD0H@Z ; process_assert
  005bc	c7 45 84 00 00
	00 00		 mov	 DWORD PTR tv320[ebp], 0
$LN62@response_t:
  005c3	b9 01 00 00 00	 mov	 ecx, 1
  005c8	85 c9		 test	 ecx, ecx
  005ca	74 09		 je	 SHORT $LN63@response_t
  005cc	c7 45 80 19 00
	00 00		 mov	 DWORD PTR tv328[ebp], 25 ; 00000019H
  005d3	eb 21		 jmp	 SHORT $LN64@response_t
$LN63@response_t:
  005d5	8b 15 00 00 00
	00		 mov	 edx, DWORD PTR ?__LINE__Var@?0??response_to_request_assistance@@YGHW4ENTITY_MESSAGES@@PAUENTITY@@1PAD@Z@4JA
  005db	83 c2 6e	 add	 edx, 110		; 0000006eH
  005de	52		 push	 edx
  005df	68 00 00 00 00	 push	 OFFSET ??_C@_0EL@MMNLIBAL@c?3?2users?2nhv90?2projects?2eech?2ap@
  005e4	a1 00 00 00 00	 mov	 eax, DWORD PTR ?overload_invalid_list_type_message@@3PBDB ; overload_invalid_list_type_message
  005e9	50		 push	 eax
  005ea	e8 00 00 00 00	 call	 ?process_assert@@YGXPBD0H@Z ; process_assert
  005ef	c7 45 80 00 00
	00 00		 mov	 DWORD PTR tv328[ebp], 0
$LN64@response_t:
  005f6	6a 19		 push	 25			; 00000019H
  005f8	8b 4d f8	 mov	 ecx, DWORD PTR _group$[ebp]
  005fb	51		 push	 ecx
  005fc	69 55 84 b4 00
	00 00		 imul	 edx, DWORD PTR tv320[ebp], 180
  00603	8b 45 80	 mov	 eax, DWORD PTR tv328[ebp]
  00606	8b 8c 82 00 00
	00 00		 mov	 ecx, DWORD PTR ?fn_get_local_entity_first_child@@3PAY0CN@P6GPAUENTITY@@PAU1@W4LIST_TYPES@@@ZA[edx+eax*4]
  0060d	ff d1		 call	 ecx
  0060f	89 45 ec	 mov	 DWORD PTR _member$[ebp], eax
$LN4@response_t:

; 1120 : 				
; 1121 : 											while (member)

  00612	83 7d ec 00	 cmp	 DWORD PTR _member$[ebp], 0
  00616	0f 84 0e 01 00
	00		 je	 $LN5@response_t

; 1122 : 											{
; 1123 : 												if (get_local_entity_int_value (member, INT_TYPE_OPERATIONAL_STATE) != OPERATIONAL_STATE_NAVIGATING)

  0061c	83 7d ec 00	 cmp	 DWORD PTR _member$[ebp], 0
  00620	74 0a		 je	 SHORT $LN65@response_t
  00622	8b 45 ec	 mov	 eax, DWORD PTR _member$[ebp]
  00625	8b 08		 mov	 ecx, DWORD PTR [eax]
  00627	89 4d 84	 mov	 DWORD PTR tv340[ebp], ecx
  0062a	eb 1d		 jmp	 SHORT $LN66@response_t
$LN65@response_t:
  0062c	68 63 04 00 00	 push	 1123			; 00000463H
  00631	68 00 00 00 00	 push	 OFFSET ??_C@_0EL@MMNLIBAL@c?3?2users?2nhv90?2projects?2eech?2ap@
  00636	8b 15 00 00 00
	00		 mov	 edx, DWORD PTR ?null_entity_pointer_message@@3PBDB ; null_entity_pointer_message
  0063c	52		 push	 edx
  0063d	e8 00 00 00 00	 call	 ?process_assert@@YGXPBD0H@Z ; process_assert
  00642	c7 45 84 00 00
	00 00		 mov	 DWORD PTR tv340[ebp], 0
$LN66@response_t:
  00649	b8 01 00 00 00	 mov	 eax, 1
  0064e	85 c0		 test	 eax, eax
  00650	74 09		 je	 SHORT $LN67@response_t
  00652	c7 45 80 97 00
	00 00		 mov	 DWORD PTR tv347[ebp], 151 ; 00000097H
  00659	eb 1d		 jmp	 SHORT $LN68@response_t
$LN67@response_t:
  0065b	68 63 04 00 00	 push	 1123			; 00000463H
  00660	68 00 00 00 00	 push	 OFFSET ??_C@_0EL@MMNLIBAL@c?3?2users?2nhv90?2projects?2eech?2ap@
  00665	8b 0d 00 00 00
	00		 mov	 ecx, DWORD PTR ?overload_invalid_int_type_message@@3PBDB ; overload_invalid_int_type_message
  0066b	51		 push	 ecx
  0066c	e8 00 00 00 00	 call	 ?process_assert@@YGXPBD0H@Z ; process_assert
  00671	c7 45 80 00 00
	00 00		 mov	 DWORD PTR tv347[ebp], 0
$LN68@response_t:
  00678	68 97 00 00 00	 push	 151			; 00000097H
  0067d	8b 55 ec	 mov	 edx, DWORD PTR _member$[ebp]
  00680	52		 push	 edx
  00681	69 45 84 5c 04
	00 00		 imul	 eax, DWORD PTR tv340[ebp], 1116
  00688	8b 4d 80	 mov	 ecx, DWORD PTR tv347[ebp]
  0068b	8b 94 88 00 00
	00 00		 mov	 edx, DWORD PTR ?fn_get_local_entity_int_value@@3PAY0BBH@P6GHPAUENTITY@@W4INT_TYPES@@@ZA[eax+ecx*4]
  00692	ff d2		 call	 edx
  00694	83 f8 07	 cmp	 eax, 7
  00697	74 0c		 je	 SHORT $LN22@response_t

; 1124 : 												{
; 1125 : 													flag = FALSE;

  00699	c7 45 d8 00 00
	00 00		 mov	 DWORD PTR _flag$[ebp], 0

; 1126 : 				
; 1127 : 													break;

  006a0	e9 85 00 00 00	 jmp	 $LN5@response_t
$LN22@response_t:

; 1128 : 												}
; 1129 : 				
; 1130 : 												member = get_local_entity_child_succ (member, LIST_TYPE_MEMBER);

  006a5	83 7d ec 00	 cmp	 DWORD PTR _member$[ebp], 0
  006a9	74 0a		 je	 SHORT $LN69@response_t
  006ab	8b 45 ec	 mov	 eax, DWORD PTR _member$[ebp]
  006ae	8b 08		 mov	 ecx, DWORD PTR [eax]
  006b0	89 4d 84	 mov	 DWORD PTR tv360[ebp], ecx
  006b3	eb 21		 jmp	 SHORT $LN70@response_t
$LN69@response_t:
  006b5	8b 15 00 00 00
	00		 mov	 edx, DWORD PTR ?__LINE__Var@?0??response_to_request_assistance@@YGHW4ENTITY_MESSAGES@@PAUENTITY@@1PAD@Z@4JA
  006bb	83 c2 79	 add	 edx, 121		; 00000079H
  006be	52		 push	 edx
  006bf	68 00 00 00 00	 push	 OFFSET ??_C@_0EL@MMNLIBAL@c?3?2users?2nhv90?2projects?2eech?2ap@
  006c4	a1 00 00 00 00	 mov	 eax, DWORD PTR ?null_entity_pointer_message@@3PBDB ; null_entity_pointer_message
  006c9	50		 push	 eax
  006ca	e8 00 00 00 00	 call	 ?process_assert@@YGXPBD0H@Z ; process_assert
  006cf	c7 45 84 00 00
	00 00		 mov	 DWORD PTR tv360[ebp], 0
$LN70@response_t:
  006d6	b9 01 00 00 00	 mov	 ecx, 1
  006db	85 c9		 test	 ecx, ecx
  006dd	74 09		 je	 SHORT $LN71@response_t
  006df	c7 45 80 19 00
	00 00		 mov	 DWORD PTR tv368[ebp], 25 ; 00000019H
  006e6	eb 21		 jmp	 SHORT $LN72@response_t
$LN71@response_t:
  006e8	8b 15 00 00 00
	00		 mov	 edx, DWORD PTR ?__LINE__Var@?0??response_to_request_assistance@@YGHW4ENTITY_MESSAGES@@PAUENTITY@@1PAD@Z@4JA
  006ee	83 c2 79	 add	 edx, 121		; 00000079H
  006f1	52		 push	 edx
  006f2	68 00 00 00 00	 push	 OFFSET ??_C@_0EL@MMNLIBAL@c?3?2users?2nhv90?2projects?2eech?2ap@
  006f7	a1 00 00 00 00	 mov	 eax, DWORD PTR ?overload_invalid_list_type_message@@3PBDB ; overload_invalid_list_type_message
  006fc	50		 push	 eax
  006fd	e8 00 00 00 00	 call	 ?process_assert@@YGXPBD0H@Z ; process_assert
  00702	c7 45 80 00 00
	00 00		 mov	 DWORD PTR tv368[ebp], 0
$LN72@response_t:
  00709	6a 19		 push	 25			; 00000019H
  0070b	8b 4d ec	 mov	 ecx, DWORD PTR _member$[ebp]
  0070e	51		 push	 ecx
  0070f	69 55 84 b4 00
	00 00		 imul	 edx, DWORD PTR tv360[ebp], 180
  00716	8b 45 80	 mov	 eax, DWORD PTR tv368[ebp]
  00719	8b 8c 82 00 00
	00 00		 mov	 ecx, DWORD PTR ?fn_get_local_entity_child_succ@@3PAY0CN@P6GPAUENTITY@@PAU1@W4LIST_TYPES@@@ZA[edx+eax*4]
  00720	ff d1		 call	 ecx
  00722	89 45 ec	 mov	 DWORD PTR _member$[ebp], eax

; 1131 : 											}

  00725	e9 e8 fe ff ff	 jmp	 $LN4@response_t
$LN5@response_t:

; 1132 : 				
; 1133 : 											if (flag)

  0072a	83 7d d8 00	 cmp	 DWORD PTR _flag$[ebp], 0
  0072e	0f 84 4c 03 00
	00		 je	 $LN25@response_t

; 1134 : 											{
; 1135 : 												//
; 1136 : 												// calculate range
; 1137 : 												//
; 1138 : 				
; 1139 : 												group_pos = get_local_entity_vec3d_ptr (group, VEC3D_TYPE_POSITION);

  00734	83 7d f8 00	 cmp	 DWORD PTR _group$[ebp], 0
  00738	74 0a		 je	 SHORT $LN73@response_t
  0073a	8b 45 f8	 mov	 eax, DWORD PTR _group$[ebp]
  0073d	8b 08		 mov	 ecx, DWORD PTR [eax]
  0073f	89 4d 84	 mov	 DWORD PTR tv381[ebp], ecx
  00742	eb 24		 jmp	 SHORT $LN74@response_t
$LN73@response_t:
  00744	8b 15 00 00 00
	00		 mov	 edx, DWORD PTR ?__LINE__Var@?0??response_to_request_assistance@@YGHW4ENTITY_MESSAGES@@PAUENTITY@@1PAD@Z@4JA
  0074a	81 c2 82 00 00
	00		 add	 edx, 130		; 00000082H
  00750	52		 push	 edx
  00751	68 00 00 00 00	 push	 OFFSET ??_C@_0EL@MMNLIBAL@c?3?2users?2nhv90?2projects?2eech?2ap@
  00756	a1 00 00 00 00	 mov	 eax, DWORD PTR ?null_entity_pointer_message@@3PBDB ; null_entity_pointer_message
  0075b	50		 push	 eax
  0075c	e8 00 00 00 00	 call	 ?process_assert@@YGXPBD0H@Z ; process_assert
  00761	c7 45 84 00 00
	00 00		 mov	 DWORD PTR tv381[ebp], 0
$LN74@response_t:
  00768	b9 01 00 00 00	 mov	 ecx, 1
  0076d	85 c9		 test	 ecx, ecx
  0076f	74 09		 je	 SHORT $LN75@response_t
  00771	c7 45 80 08 00
	00 00		 mov	 DWORD PTR tv389[ebp], 8
  00778	eb 24		 jmp	 SHORT $LN76@response_t
$LN75@response_t:
  0077a	8b 15 00 00 00
	00		 mov	 edx, DWORD PTR ?__LINE__Var@?0??response_to_request_assistance@@YGHW4ENTITY_MESSAGES@@PAUENTITY@@1PAD@Z@4JA
  00780	81 c2 82 00 00
	00		 add	 edx, 130		; 00000082H
  00786	52		 push	 edx
  00787	68 00 00 00 00	 push	 OFFSET ??_C@_0EL@MMNLIBAL@c?3?2users?2nhv90?2projects?2eech?2ap@
  0078c	a1 00 00 00 00	 mov	 eax, DWORD PTR ?overload_invalid_vec3d_type_message@@3PBDB ; overload_invalid_vec3d_type_message
  00791	50		 push	 eax
  00792	e8 00 00 00 00	 call	 ?process_assert@@YGXPBD0H@Z ; process_assert
  00797	c7 45 80 00 00
	00 00		 mov	 DWORD PTR tv389[ebp], 0
$LN76@response_t:
  0079e	6a 08		 push	 8
  007a0	8b 4d f8	 mov	 ecx, DWORD PTR _group$[ebp]
  007a3	51		 push	 ecx
  007a4	6b 55 84 60	 imul	 edx, DWORD PTR tv381[ebp], 96
  007a8	8b 45 80	 mov	 eax, DWORD PTR tv389[ebp]
  007ab	8b 8c 82 00 00
	00 00		 mov	 ecx, DWORD PTR ?fn_get_local_entity_vec3d_ptr@@3PAY0BI@P6GPAUVEC3D@@PAUENTITY@@W4VEC3D_TYPES@@@ZA[edx+eax*4]
  007b2	ff d1		 call	 ecx
  007b4	89 45 dc	 mov	 DWORD PTR _group_pos$[ebp], eax

; 1140 : 				
; 1141 : 												range = get_sqr_2d_range (pos, group_pos);

  007b7	8b 45 dc	 mov	 eax, DWORD PTR _group_pos$[ebp]
  007ba	50		 push	 eax
  007bb	8b 4d e0	 mov	 ecx, DWORD PTR _pos$[ebp]
  007be	51		 push	 ecx
  007bf	e8 00 00 00 00	 call	 ?get_sqr_2d_range@@YGMPBUVEC3D@@0@Z ; get_sqr_2d_range
  007c4	d9 5d cc	 fstp	 DWORD PTR _range$[ebp]

; 1142 : 				
; 1143 : 												#if DEBUG_MODULE
; 1144 : 				
; 1145 : 												debug_log ("FC_MSGS: found possible group for persuer %s, group %s (range = %.2f)", get_local_entity_string (target, STRING_TYPE_FULL_NAME), get_local_entity_string (group, STRING_TYPE_FULL_NAME), sqrt (range));
; 1146 : 				
; 1147 : 												#endif
; 1148 : 				
; 1149 : 												max_range = group_database [group_type].ai_stats.movement_speed * REQUEST_ASSISTANCE_RANGE_MULTIPLIER;

  007c7	6b 45 d4 64	 imul	 eax, DWORD PTR _group_type$[ebp], 100
  007cb	69 88 54 00 00
	00 d0 07 00 00	 imul	 ecx, DWORD PTR ?group_database@@3PAUGROUP_DATA@@A[eax+84], 2000
  007d5	f3 0f 2a c1	 cvtsi2ss xmm0, ecx
  007d9	f3 0f 11 45 c8	 movss	 DWORD PTR _max_range$[ebp], xmm0

; 1150 : 				
; 1151 : 												max_range *= max_range;

  007de	f3 0f 10 45 c8	 movss	 xmm0, DWORD PTR _max_range$[ebp]
  007e3	f3 0f 59 45 c8	 mulss	 xmm0, DWORD PTR _max_range$[ebp]
  007e8	f3 0f 11 45 c8	 movss	 DWORD PTR _max_range$[ebp], xmm0

; 1152 : 				
; 1153 : 												if (range < max_range)

  007ed	f3 0f 10 45 c8	 movss	 xmm0, DWORD PTR _max_range$[ebp]
  007f2	0f 2f 45 cc	 comiss	 xmm0, DWORD PTR _range$[ebp]
  007f6	0f 86 84 02 00
	00		 jbe	 $LN25@response_t

; 1154 : 												{
; 1155 : 													//
; 1156 : 													// assign engage tasks
; 1157 : 													//
; 1158 : 			
; 1159 : 													if (engage_targets_in_group (group, target_group, TRUE))

  007fc	6a 01		 push	 1
  007fe	8b 45 e4	 mov	 eax, DWORD PTR _target_group$[ebp]
  00801	50		 push	 eax
  00802	8b 4d f8	 mov	 ecx, DWORD PTR _group$[ebp]
  00805	51		 push	 ecx
  00806	e8 00 00 00 00	 call	 ?engage_targets_in_group@@YGHPAUENTITY@@0H@Z ; engage_targets_in_group
  0080b	85 c0		 test	 eax, eax
  0080d	0f 84 6d 02 00
	00		 je	 $LN25@response_t

; 1160 : 													{
; 1161 : 														ai_log ("(ASSIST) %s assisting %s under attack by %s",

  00813	83 7d e8 00	 cmp	 DWORD PTR _aggressor$[ebp], 0
  00817	74 0a		 je	 SHORT $LN77@response_t
  00819	8b 45 e8	 mov	 eax, DWORD PTR _aggressor$[ebp]
  0081c	8b 08		 mov	 ecx, DWORD PTR [eax]
  0081e	89 4d 84	 mov	 DWORD PTR tv417[ebp], ecx
  00821	eb 24		 jmp	 SHORT $LN78@response_t
$LN77@response_t:
  00823	8b 15 00 00 00
	00		 mov	 edx, DWORD PTR ?__LINE__Var@?0??response_to_request_assistance@@YGHW4ENTITY_MESSAGES@@PAUENTITY@@1PAD@Z@4JA
  00829	81 c2 9b 00 00
	00		 add	 edx, 155		; 0000009bH
  0082f	52		 push	 edx
  00830	68 00 00 00 00	 push	 OFFSET ??_C@_0EL@MMNLIBAL@c?3?2users?2nhv90?2projects?2eech?2ap@
  00835	a1 00 00 00 00	 mov	 eax, DWORD PTR ?null_entity_pointer_message@@3PBDB ; null_entity_pointer_message
  0083a	50		 push	 eax
  0083b	e8 00 00 00 00	 call	 ?process_assert@@YGXPBD0H@Z ; process_assert
  00840	c7 45 84 00 00
	00 00		 mov	 DWORD PTR tv417[ebp], 0
$LN78@response_t:
  00847	b9 01 00 00 00	 mov	 ecx, 1
  0084c	85 c9		 test	 ecx, ecx
  0084e	74 09		 je	 SHORT $LN79@response_t
  00850	c7 45 80 03 00
	00 00		 mov	 DWORD PTR tv425[ebp], 3
  00857	eb 24		 jmp	 SHORT $LN80@response_t
$LN79@response_t:
  00859	8b 15 00 00 00
	00		 mov	 edx, DWORD PTR ?__LINE__Var@?0??response_to_request_assistance@@YGHW4ENTITY_MESSAGES@@PAUENTITY@@1PAD@Z@4JA
  0085f	81 c2 9b 00 00
	00		 add	 edx, 155		; 0000009bH
  00865	52		 push	 edx
  00866	68 00 00 00 00	 push	 OFFSET ??_C@_0EL@MMNLIBAL@c?3?2users?2nhv90?2projects?2eech?2ap@
  0086b	a1 00 00 00 00	 mov	 eax, DWORD PTR ?overload_invalid_string_type_message@@3PBDB ; overload_invalid_string_type_message
  00870	50		 push	 eax
  00871	e8 00 00 00 00	 call	 ?process_assert@@YGXPBD0H@Z ; process_assert
  00876	c7 45 80 00 00
	00 00		 mov	 DWORD PTR tv425[ebp], 0
$LN80@response_t:
  0087d	83 7d f4 00	 cmp	 DWORD PTR _victim$[ebp], 0
  00881	74 0d		 je	 SHORT $LN81@response_t
  00883	8b 4d f4	 mov	 ecx, DWORD PTR _victim$[ebp]
  00886	8b 11		 mov	 edx, DWORD PTR [ecx]
  00888	89 95 7c ff ff
	ff		 mov	 DWORD PTR tv438[ebp], edx
  0088e	eb 26		 jmp	 SHORT $LN82@response_t
$LN81@response_t:
  00890	a1 00 00 00 00	 mov	 eax, DWORD PTR ?__LINE__Var@?0??response_to_request_assistance@@YGHW4ENTITY_MESSAGES@@PAUENTITY@@1PAD@Z@4JA
  00895	05 9a 00 00 00	 add	 eax, 154		; 0000009aH
  0089a	50		 push	 eax
  0089b	68 00 00 00 00	 push	 OFFSET ??_C@_0EL@MMNLIBAL@c?3?2users?2nhv90?2projects?2eech?2ap@
  008a0	8b 0d 00 00 00
	00		 mov	 ecx, DWORD PTR ?null_entity_pointer_message@@3PBDB ; null_entity_pointer_message
  008a6	51		 push	 ecx
  008a7	e8 00 00 00 00	 call	 ?process_assert@@YGXPBD0H@Z ; process_assert
  008ac	c7 85 7c ff ff
	ff 00 00 00 00	 mov	 DWORD PTR tv438[ebp], 0
$LN82@response_t:
  008b6	ba 01 00 00 00	 mov	 edx, 1
  008bb	85 d2		 test	 edx, edx
  008bd	74 0c		 je	 SHORT $LN83@response_t
  008bf	c7 85 78 ff ff
	ff 03 00 00 00	 mov	 DWORD PTR tv446[ebp], 3
  008c9	eb 26		 jmp	 SHORT $LN84@response_t
$LN83@response_t:
  008cb	a1 00 00 00 00	 mov	 eax, DWORD PTR ?__LINE__Var@?0??response_to_request_assistance@@YGHW4ENTITY_MESSAGES@@PAUENTITY@@1PAD@Z@4JA
  008d0	05 9a 00 00 00	 add	 eax, 154		; 0000009aH
  008d5	50		 push	 eax
  008d6	68 00 00 00 00	 push	 OFFSET ??_C@_0EL@MMNLIBAL@c?3?2users?2nhv90?2projects?2eech?2ap@
  008db	8b 0d 00 00 00
	00		 mov	 ecx, DWORD PTR ?overload_invalid_string_type_message@@3PBDB ; overload_invalid_string_type_message
  008e1	51		 push	 ecx
  008e2	e8 00 00 00 00	 call	 ?process_assert@@YGXPBD0H@Z ; process_assert
  008e7	c7 85 78 ff ff
	ff 00 00 00 00	 mov	 DWORD PTR tv446[ebp], 0
$LN84@response_t:
  008f1	83 7d f8 00	 cmp	 DWORD PTR _group$[ebp], 0
  008f5	74 0d		 je	 SHORT $LN85@response_t
  008f7	8b 55 f8	 mov	 edx, DWORD PTR _group$[ebp]
  008fa	8b 02		 mov	 eax, DWORD PTR [edx]
  008fc	89 85 74 ff ff
	ff		 mov	 DWORD PTR tv459[ebp], eax
  00902	eb 28		 jmp	 SHORT $LN86@response_t
$LN85@response_t:
  00904	8b 0d 00 00 00
	00		 mov	 ecx, DWORD PTR ?__LINE__Var@?0??response_to_request_assistance@@YGHW4ENTITY_MESSAGES@@PAUENTITY@@1PAD@Z@4JA
  0090a	81 c1 99 00 00
	00		 add	 ecx, 153		; 00000099H
  00910	51		 push	 ecx
  00911	68 00 00 00 00	 push	 OFFSET ??_C@_0EL@MMNLIBAL@c?3?2users?2nhv90?2projects?2eech?2ap@
  00916	8b 15 00 00 00
	00		 mov	 edx, DWORD PTR ?null_entity_pointer_message@@3PBDB ; null_entity_pointer_message
  0091c	52		 push	 edx
  0091d	e8 00 00 00 00	 call	 ?process_assert@@YGXPBD0H@Z ; process_assert
  00922	c7 85 74 ff ff
	ff 00 00 00 00	 mov	 DWORD PTR tv459[ebp], 0
$LN86@response_t:
  0092c	b8 01 00 00 00	 mov	 eax, 1
  00931	85 c0		 test	 eax, eax
  00933	74 0c		 je	 SHORT $LN87@response_t
  00935	c7 85 70 ff ff
	ff 03 00 00 00	 mov	 DWORD PTR tv467[ebp], 3
  0093f	eb 28		 jmp	 SHORT $LN88@response_t
$LN87@response_t:
  00941	8b 0d 00 00 00
	00		 mov	 ecx, DWORD PTR ?__LINE__Var@?0??response_to_request_assistance@@YGHW4ENTITY_MESSAGES@@PAUENTITY@@1PAD@Z@4JA
  00947	81 c1 99 00 00
	00		 add	 ecx, 153		; 00000099H
  0094d	51		 push	 ecx
  0094e	68 00 00 00 00	 push	 OFFSET ??_C@_0EL@MMNLIBAL@c?3?2users?2nhv90?2projects?2eech?2ap@
  00953	8b 15 00 00 00
	00		 mov	 edx, DWORD PTR ?overload_invalid_string_type_message@@3PBDB ; overload_invalid_string_type_message
  00959	52		 push	 edx
  0095a	e8 00 00 00 00	 call	 ?process_assert@@YGXPBD0H@Z ; process_assert
  0095f	c7 85 70 ff ff
	ff 00 00 00 00	 mov	 DWORD PTR tv467[ebp], 0
$LN88@response_t:
  00969	6a 03		 push	 3
  0096b	8b 45 e8	 mov	 eax, DWORD PTR _aggressor$[ebp]
  0096e	50		 push	 eax
  0096f	6b 4d 84 34	 imul	 ecx, DWORD PTR tv417[ebp], 52
  00973	8b 55 80	 mov	 edx, DWORD PTR tv425[ebp]
  00976	8b 84 91 00 00
	00 00		 mov	 eax, DWORD PTR ?fn_get_local_entity_string@@3PAY0N@P6GPBDPAUENTITY@@W4STRING_TYPES@@@ZA[ecx+edx*4]
  0097d	ff d0		 call	 eax
  0097f	50		 push	 eax
  00980	6a 03		 push	 3
  00982	8b 4d f4	 mov	 ecx, DWORD PTR _victim$[ebp]
  00985	51		 push	 ecx
  00986	6b 95 7c ff ff
	ff 34		 imul	 edx, DWORD PTR tv438[ebp], 52
  0098d	8b 85 78 ff ff
	ff		 mov	 eax, DWORD PTR tv446[ebp]
  00993	8b 8c 82 00 00
	00 00		 mov	 ecx, DWORD PTR ?fn_get_local_entity_string@@3PAY0N@P6GPBDPAUENTITY@@W4STRING_TYPES@@@ZA[edx+eax*4]
  0099a	ff d1		 call	 ecx
  0099c	50		 push	 eax
  0099d	6a 03		 push	 3
  0099f	8b 55 f8	 mov	 edx, DWORD PTR _group$[ebp]
  009a2	52		 push	 edx
  009a3	6b 85 74 ff ff
	ff 34		 imul	 eax, DWORD PTR tv459[ebp], 52
  009aa	8b 8d 70 ff ff
	ff		 mov	 ecx, DWORD PTR tv467[ebp]
  009b0	8b 94 88 00 00
	00 00		 mov	 edx, DWORD PTR ?fn_get_local_entity_string@@3PAY0N@P6GPBDPAUENTITY@@W4STRING_TYPES@@@ZA[eax+ecx*4]
  009b7	ff d2		 call	 edx
  009b9	50		 push	 eax
  009ba	68 00 00 00 00	 push	 OFFSET ??_C@_0CM@HMLAOKNP@?$CIASSIST?$CJ?5?$CFs?5assisting?5?$CFs?5under?5@
  009bf	e8 00 00 00 00	 call	 ?ai_log@@YAXPBDZZ	; ai_log
  009c4	83 c4 10	 add	 esp, 16			; 00000010H

; 1162 : 																	get_local_entity_string (group, STRING_TYPE_FULL_NAME),
; 1163 : 																	get_local_entity_string (victim, STRING_TYPE_FULL_NAME),
; 1164 : 																	get_local_entity_string (aggressor, STRING_TYPE_FULL_NAME));
; 1165 : 			
; 1166 : 														member = get_local_entity_first_child (group, LIST_TYPE_MEMBER);

  009c7	83 7d f8 00	 cmp	 DWORD PTR _group$[ebp], 0
  009cb	74 0a		 je	 SHORT $LN89@response_t
  009cd	8b 45 f8	 mov	 eax, DWORD PTR _group$[ebp]
  009d0	8b 08		 mov	 ecx, DWORD PTR [eax]
  009d2	89 4d 84	 mov	 DWORD PTR tv481[ebp], ecx
  009d5	eb 24		 jmp	 SHORT $LN90@response_t
$LN89@response_t:
  009d7	8b 15 00 00 00
	00		 mov	 edx, DWORD PTR ?__LINE__Var@?0??response_to_request_assistance@@YGHW4ENTITY_MESSAGES@@PAUENTITY@@1PAD@Z@4JA
  009dd	81 c2 9d 00 00
	00		 add	 edx, 157		; 0000009dH
  009e3	52		 push	 edx
  009e4	68 00 00 00 00	 push	 OFFSET ??_C@_0EL@MMNLIBAL@c?3?2users?2nhv90?2projects?2eech?2ap@
  009e9	a1 00 00 00 00	 mov	 eax, DWORD PTR ?null_entity_pointer_message@@3PBDB ; null_entity_pointer_message
  009ee	50		 push	 eax
  009ef	e8 00 00 00 00	 call	 ?process_assert@@YGXPBD0H@Z ; process_assert
  009f4	c7 45 84 00 00
	00 00		 mov	 DWORD PTR tv481[ebp], 0
$LN90@response_t:
  009fb	b9 01 00 00 00	 mov	 ecx, 1
  00a00	85 c9		 test	 ecx, ecx
  00a02	74 09		 je	 SHORT $LN91@response_t
  00a04	c7 45 80 19 00
	00 00		 mov	 DWORD PTR tv489[ebp], 25 ; 00000019H
  00a0b	eb 24		 jmp	 SHORT $LN92@response_t
$LN91@response_t:
  00a0d	8b 15 00 00 00
	00		 mov	 edx, DWORD PTR ?__LINE__Var@?0??response_to_request_assistance@@YGHW4ENTITY_MESSAGES@@PAUENTITY@@1PAD@Z@4JA
  00a13	81 c2 9d 00 00
	00		 add	 edx, 157		; 0000009dH
  00a19	52		 push	 edx
  00a1a	68 00 00 00 00	 push	 OFFSET ??_C@_0EL@MMNLIBAL@c?3?2users?2nhv90?2projects?2eech?2ap@
  00a1f	a1 00 00 00 00	 mov	 eax, DWORD PTR ?overload_invalid_list_type_message@@3PBDB ; overload_invalid_list_type_message
  00a24	50		 push	 eax
  00a25	e8 00 00 00 00	 call	 ?process_assert@@YGXPBD0H@Z ; process_assert
  00a2a	c7 45 80 00 00
	00 00		 mov	 DWORD PTR tv489[ebp], 0
$LN92@response_t:
  00a31	6a 19		 push	 25			; 00000019H
  00a33	8b 4d f8	 mov	 ecx, DWORD PTR _group$[ebp]
  00a36	51		 push	 ecx
  00a37	69 55 84 b4 00
	00 00		 imul	 edx, DWORD PTR tv481[ebp], 180
  00a3e	8b 45 80	 mov	 eax, DWORD PTR tv489[ebp]
  00a41	8b 8c 82 00 00
	00 00		 mov	 ecx, DWORD PTR ?fn_get_local_entity_first_child@@3PAY0CN@P6GPAUENTITY@@PAU1@W4LIST_TYPES@@@ZA[edx+eax*4]
  00a48	ff d1		 call	 ecx
  00a4a	89 45 ec	 mov	 DWORD PTR _member$[ebp], eax

; 1167 : 				
; 1168 : 														play_client_server_radio_message_response (member, SPEECH_WINGMAN_ROGER_COMING_TO_ASSIST, 1.0, 10.0);

  00a4d	51		 push	 ecx
  00a4e	f3 0f 10 05 00
	00 00 00	 movss	 xmm0, DWORD PTR __real@41200000
  00a56	f3 0f 11 04 24	 movss	 DWORD PTR [esp], xmm0
  00a5b	51		 push	 ecx
  00a5c	f3 0f 10 05 00
	00 00 00	 movss	 xmm0, DWORD PTR __real@3f800000
  00a64	f3 0f 11 04 24	 movss	 DWORD PTR [esp], xmm0
  00a69	6a 1d		 push	 29			; 0000001dH
  00a6b	8b 45 ec	 mov	 eax, DWORD PTR _member$[ebp]
  00a6e	50		 push	 eax
  00a6f	e8 00 00 00 00	 call	 ?play_client_server_radio_message_response@@YGXPAUENTITY@@HMM@Z ; play_client_server_radio_message_response

; 1169 : 			
; 1170 : 														response = TRUE;

  00a74	c7 45 d0 01 00
	00 00		 mov	 DWORD PTR _response$[ebp], 1

; 1171 : 
; 1172 : 														break;

  00a7b	e9 8b 00 00 00	 jmp	 $LN3@response_t
$LN25@response_t:

; 1173 : 													}
; 1174 : 												}
; 1175 : 											}
; 1176 : 										}
; 1177 : 									}
; 1178 : 								}
; 1179 : 							}
; 1180 : 						}
; 1181 : 					}
; 1182 : 				}
; 1183 : 			}
; 1184 : 		}
; 1185 : 
; 1186 : 		group = get_local_entity_child_succ (group, LIST_TYPE_AIR_REGISTRY);

  00a80	83 7d f8 00	 cmp	 DWORD PTR _group$[ebp], 0
  00a84	74 0a		 je	 SHORT $LN93@response_t
  00a86	8b 45 f8	 mov	 eax, DWORD PTR _group$[ebp]
  00a89	8b 08		 mov	 ecx, DWORD PTR [eax]
  00a8b	89 4d 84	 mov	 DWORD PTR tv505[ebp], ecx
  00a8e	eb 24		 jmp	 SHORT $LN94@response_t
$LN93@response_t:
  00a90	8b 15 00 00 00
	00		 mov	 edx, DWORD PTR ?__LINE__Var@?0??response_to_request_assistance@@YGHW4ENTITY_MESSAGES@@PAUENTITY@@1PAD@Z@4JA
  00a96	81 c2 b1 00 00
	00		 add	 edx, 177		; 000000b1H
  00a9c	52		 push	 edx
  00a9d	68 00 00 00 00	 push	 OFFSET ??_C@_0EL@MMNLIBAL@c?3?2users?2nhv90?2projects?2eech?2ap@
  00aa2	a1 00 00 00 00	 mov	 eax, DWORD PTR ?null_entity_pointer_message@@3PBDB ; null_entity_pointer_message
  00aa7	50		 push	 eax
  00aa8	e8 00 00 00 00	 call	 ?process_assert@@YGXPBD0H@Z ; process_assert
  00aad	c7 45 84 00 00
	00 00		 mov	 DWORD PTR tv505[ebp], 0
$LN94@response_t:
  00ab4	b9 01 00 00 00	 mov	 ecx, 1
  00ab9	85 c9		 test	 ecx, ecx
  00abb	74 09		 je	 SHORT $LN95@response_t
  00abd	c7 45 80 02 00
	00 00		 mov	 DWORD PTR tv513[ebp], 2
  00ac4	eb 24		 jmp	 SHORT $LN96@response_t
$LN95@response_t:
  00ac6	8b 15 00 00 00
	00		 mov	 edx, DWORD PTR ?__LINE__Var@?0??response_to_request_assistance@@YGHW4ENTITY_MESSAGES@@PAUENTITY@@1PAD@Z@4JA
  00acc	81 c2 b1 00 00
	00		 add	 edx, 177		; 000000b1H
  00ad2	52		 push	 edx
  00ad3	68 00 00 00 00	 push	 OFFSET ??_C@_0EL@MMNLIBAL@c?3?2users?2nhv90?2projects?2eech?2ap@
  00ad8	a1 00 00 00 00	 mov	 eax, DWORD PTR ?overload_invalid_list_type_message@@3PBDB ; overload_invalid_list_type_message
  00add	50		 push	 eax
  00ade	e8 00 00 00 00	 call	 ?process_assert@@YGXPBD0H@Z ; process_assert
  00ae3	c7 45 80 00 00
	00 00		 mov	 DWORD PTR tv513[ebp], 0
$LN96@response_t:
  00aea	6a 02		 push	 2
  00aec	8b 4d f8	 mov	 ecx, DWORD PTR _group$[ebp]
  00aef	51		 push	 ecx
  00af0	69 55 84 b4 00
	00 00		 imul	 edx, DWORD PTR tv505[ebp], 180
  00af7	8b 45 80	 mov	 eax, DWORD PTR tv513[ebp]
  00afa	8b 8c 82 00 00
	00 00		 mov	 ecx, DWORD PTR ?fn_get_local_entity_child_succ@@3PAY0CN@P6GPAUENTITY@@PAU1@W4LIST_TYPES@@@ZA[edx+eax*4]
  00b01	ff d1		 call	 ecx
  00b03	89 45 f8	 mov	 DWORD PTR _group$[ebp], eax

; 1187 : 	}

  00b06	e9 1c f8 ff ff	 jmp	 $LN2@response_t
$LN3@response_t:

; 1188 : 
; 1189 : 	return response;

  00b0b	8b 45 d0	 mov	 eax, DWORD PTR _response$[ebp]

; 1190 : }

  00b0e	5f		 pop	 edi
  00b0f	5e		 pop	 esi
  00b10	5b		 pop	 ebx
  00b11	8b e5		 mov	 esp, ebp
  00b13	5d		 pop	 ebp
  00b14	c2 10 00	 ret	 16			; 00000010H
?response_to_request_assistance@@YGHW4ENTITY_MESSAGES@@PAUENTITY@@1PAD@Z ENDP ; response_to_request_assistance
_TEXT	ENDS
; Function compile flags: /Odtp /ZI
; File c:\users\nhv90\projects\eech\aphavoc\source\entity\special\force\fc_msgs.c
;	COMDAT ?response_to_force_waypoint_reached@@YGHW4ENTITY_MESSAGES@@PAUENTITY@@1PAD@Z
_TEXT	SEGMENT
tv80 = -76						; size = 4
tv72 = -72						; size = 4
_sub_type$ = -4						; size = 4
_message$ = 8						; size = 4
_receiver$ = 12						; size = 4
_sender$ = 16						; size = 4
_pargs$ = 20						; size = 4
?response_to_force_waypoint_reached@@YGHW4ENTITY_MESSAGES@@PAUENTITY@@1PAD@Z PROC ; response_to_force_waypoint_reached, COMDAT

; 965  : {

  00000	55		 push	 ebp
  00001	8b ec		 mov	 ebp, esp
  00003	83 ec 4c	 sub	 esp, 76			; 0000004cH
  00006	53		 push	 ebx
  00007	56		 push	 esi
  00008	57		 push	 edi

; 966  : 
; 967  : 	entity_sub_types
; 968  : 		sub_type;
; 969  : 
; 970  : 	//campaign_criteria_type
; 971  : 		//*campaign_criteria;
; 972  : 
; 973  : 	if ((get_game_status () != GAME_STATUS_INITIALISED) || (get_comms_model () == COMMS_MODEL_CLIENT))

  00009	83 3d 00 00 00
	00 03		 cmp	 DWORD PTR ?game_status@@3W4GAME_STATUS_TYPES@@A, 3 ; game_status
  00010	75 09		 jne	 SHORT $LN3@response_t
  00012	83 3d 00 00 00
	00 01		 cmp	 DWORD PTR ?system_comms_model@@3W4COMMS_MODEL_TYPES@@A, 1 ; system_comms_model
  00019	75 07		 jne	 SHORT $LN2@response_t
$LN3@response_t:

; 974  : 	{
; 975  : 
; 976  : 		return (FALSE);

  0001b	33 c0		 xor	 eax, eax
  0001d	e9 85 00 00 00	 jmp	 $LN1@response_t
$LN2@response_t:

; 977  : 	}
; 978  : 
; 979  : 	sub_type = get_local_entity_int_value (sender, INT_TYPE_ENTITY_SUB_TYPE);

  00022	83 7d 10 00	 cmp	 DWORD PTR _sender$[ebp], 0
  00026	74 0a		 je	 SHORT $LN5@response_t
  00028	8b 45 10	 mov	 eax, DWORD PTR _sender$[ebp]
  0002b	8b 08		 mov	 ecx, DWORD PTR [eax]
  0002d	89 4d b8	 mov	 DWORD PTR tv72[ebp], ecx
  00030	eb 21		 jmp	 SHORT $LN6@response_t
$LN5@response_t:
  00032	8b 15 00 00 00
	00		 mov	 edx, DWORD PTR ?__LINE__Var@?0??response_to_force_waypoint_reached@@YGHW4ENTITY_MESSAGES@@PAUENTITY@@1PAD@Z@4JA
  00038	83 c2 0e	 add	 edx, 14			; 0000000eH
  0003b	52		 push	 edx
  0003c	68 00 00 00 00	 push	 OFFSET ??_C@_0EL@MMNLIBAL@c?3?2users?2nhv90?2projects?2eech?2ap@
  00041	a1 00 00 00 00	 mov	 eax, DWORD PTR ?null_entity_pointer_message@@3PBDB ; null_entity_pointer_message
  00046	50		 push	 eax
  00047	e8 00 00 00 00	 call	 ?process_assert@@YGXPBD0H@Z ; process_assert
  0004c	c7 45 b8 00 00
	00 00		 mov	 DWORD PTR tv72[ebp], 0
$LN6@response_t:
  00053	b9 01 00 00 00	 mov	 ecx, 1
  00058	85 c9		 test	 ecx, ecx
  0005a	74 09		 je	 SHORT $LN7@response_t
  0005c	c7 45 b4 34 00
	00 00		 mov	 DWORD PTR tv80[ebp], 52	; 00000034H
  00063	eb 21		 jmp	 SHORT $LN8@response_t
$LN7@response_t:
  00065	8b 15 00 00 00
	00		 mov	 edx, DWORD PTR ?__LINE__Var@?0??response_to_force_waypoint_reached@@YGHW4ENTITY_MESSAGES@@PAUENTITY@@1PAD@Z@4JA
  0006b	83 c2 0e	 add	 edx, 14			; 0000000eH
  0006e	52		 push	 edx
  0006f	68 00 00 00 00	 push	 OFFSET ??_C@_0EL@MMNLIBAL@c?3?2users?2nhv90?2projects?2eech?2ap@
  00074	a1 00 00 00 00	 mov	 eax, DWORD PTR ?overload_invalid_int_type_message@@3PBDB ; overload_invalid_int_type_message
  00079	50		 push	 eax
  0007a	e8 00 00 00 00	 call	 ?process_assert@@YGXPBD0H@Z ; process_assert
  0007f	c7 45 b4 00 00
	00 00		 mov	 DWORD PTR tv80[ebp], 0
$LN8@response_t:
  00086	6a 34		 push	 52			; 00000034H
  00088	8b 4d 10	 mov	 ecx, DWORD PTR _sender$[ebp]
  0008b	51		 push	 ecx
  0008c	69 55 b8 5c 04
	00 00		 imul	 edx, DWORD PTR tv72[ebp], 1116
  00093	8b 45 b4	 mov	 eax, DWORD PTR tv80[ebp]
  00096	8b 8c 82 00 00
	00 00		 mov	 ecx, DWORD PTR ?fn_get_local_entity_int_value@@3PAY0BBH@P6GHPAUENTITY@@W4INT_TYPES@@@ZA[edx+eax*4]
  0009d	ff d1		 call	 ecx
  0009f	89 45 fc	 mov	 DWORD PTR _sub_type$[ebp], eax

; 980  : 
; 981  : 	//////////////////////////////////////////////////////////////////////////
; 982  : /*
; 983  : 	campaign_criteria = get_force_campaign_criteria (receiver, CAMPAIGN_CRITERIA_REACHED_WAYPOINTS, sub_type);
; 984  : 
; 985  : 	if (campaign_criteria)
; 986  : 	{
; 987  : 	
; 988  : 		campaign_criteria->count ++;
; 989  : 	}
; 990  : */
; 991  : 	//////////////////////////////////////////////////////////////////////////
; 992  : 	
; 993  : 	#if DEBUG_MODULE
; 994  : 		
; 995  : 	debug_log ("FC_MSGS(%s): force %s reached", entity_side_names [get_local_entity_int_value (receiver, INT_TYPE_SIDE)], entity_sub_type_waypoint_names [sub_type]);
; 996  : 	
; 997  : 	#endif
; 998  : 
; 999  : 	return (TRUE);

  000a2	b8 01 00 00 00	 mov	 eax, 1
$LN1@response_t:

; 1000 : }

  000a7	5f		 pop	 edi
  000a8	5e		 pop	 esi
  000a9	5b		 pop	 ebx
  000aa	8b e5		 mov	 esp, ebp
  000ac	5d		 pop	 ebp
  000ad	c2 10 00	 ret	 16			; 00000010H
?response_to_force_waypoint_reached@@YGHW4ENTITY_MESSAGES@@PAUENTITY@@1PAD@Z ENDP ; response_to_force_waypoint_reached
_TEXT	ENDS
; Function compile flags: /Odtp /ZI
; File c:\users\nhv90\projects\eech\aphavoc\source\entity\special\force\fc_msgs.c
;	COMDAT ?response_to_force_vacant_farp@@YGHW4ENTITY_MESSAGES@@PAUENTITY@@1PAD@Z
_TEXT	SEGMENT
tv80 = -76						; size = 4
tv72 = -72						; size = 4
_this_side$ = -4					; size = 4
_message$ = 8						; size = 4
_receiver$ = 12						; size = 4
_sender$ = 16						; size = 4
_pargs$ = 20						; size = 4
?response_to_force_vacant_farp@@YGHW4ENTITY_MESSAGES@@PAUENTITY@@1PAD@Z PROC ; response_to_force_vacant_farp, COMDAT

; 928  : {

  00000	55		 push	 ebp
  00001	8b ec		 mov	 ebp, esp
  00003	83 ec 4c	 sub	 esp, 76			; 0000004cH
  00006	53		 push	 ebx
  00007	56		 push	 esi
  00008	57		 push	 edi

; 929  : 	entity_sides
; 930  : 		this_side;
; 931  : 
; 932  : 	if ((get_game_status () != GAME_STATUS_INITIALISED) || (get_comms_model () == COMMS_MODEL_CLIENT))

  00009	83 3d 00 00 00
	00 03		 cmp	 DWORD PTR ?game_status@@3W4GAME_STATUS_TYPES@@A, 3 ; game_status
  00010	75 09		 jne	 SHORT $LN3@response_t
  00012	83 3d 00 00 00
	00 01		 cmp	 DWORD PTR ?system_comms_model@@3W4COMMS_MODEL_TYPES@@A, 1 ; system_comms_model
  00019	75 07		 jne	 SHORT $LN2@response_t
$LN3@response_t:

; 933  : 	{
; 934  : 
; 935  : 		return (FALSE);

  0001b	33 c0		 xor	 eax, eax
  0001d	e9 97 00 00 00	 jmp	 $LN1@response_t
$LN2@response_t:

; 936  : 	}
; 937  : 
; 938  : 	#if DEBUG_MODULE
; 939  : 	{
; 940  : 
; 941  : 		vec3d
; 942  : 			*pos;
; 943  : 
; 944  : 		pos = get_local_entity_vec3d_ptr (sender, VEC3D_TYPE_POSITION);
; 945  : 
; 946  : 		debug_log ("FC_MSGS(%s): vacant keysite %s at %f, %f", entity_side_names [get_local_entity_int_value (receiver, INT_TYPE_SIDE)], get_local_entity_string (sender, STRING_TYPE_KEYSITE_NAME), pos->x, pos->z);
; 947  : 	}
; 948  : 	#endif
; 949  : 
; 950  : 	this_side = (entity_sides) get_local_entity_int_value (receiver, INT_TYPE_SIDE);

  00022	83 7d 0c 00	 cmp	 DWORD PTR _receiver$[ebp], 0
  00026	74 0a		 je	 SHORT $LN6@response_t
  00028	8b 45 0c	 mov	 eax, DWORD PTR _receiver$[ebp]
  0002b	8b 08		 mov	 ecx, DWORD PTR [eax]
  0002d	89 4d b8	 mov	 DWORD PTR tv72[ebp], ecx
  00030	eb 21		 jmp	 SHORT $LN7@response_t
$LN6@response_t:
  00032	8b 15 00 00 00
	00		 mov	 edx, DWORD PTR ?__LINE__Var@?0??response_to_force_vacant_farp@@YGHW4ENTITY_MESSAGES@@PAUENTITY@@1PAD@Z@4JA
  00038	83 c2 16	 add	 edx, 22			; 00000016H
  0003b	52		 push	 edx
  0003c	68 00 00 00 00	 push	 OFFSET ??_C@_0EL@MMNLIBAL@c?3?2users?2nhv90?2projects?2eech?2ap@
  00041	a1 00 00 00 00	 mov	 eax, DWORD PTR ?null_entity_pointer_message@@3PBDB ; null_entity_pointer_message
  00046	50		 push	 eax
  00047	e8 00 00 00 00	 call	 ?process_assert@@YGXPBD0H@Z ; process_assert
  0004c	c7 45 b8 00 00
	00 00		 mov	 DWORD PTR tv72[ebp], 0
$LN7@response_t:
  00053	b9 01 00 00 00	 mov	 ecx, 1
  00058	85 c9		 test	 ecx, ecx
  0005a	74 09		 je	 SHORT $LN8@response_t
  0005c	c7 45 b4 bb 00
	00 00		 mov	 DWORD PTR tv80[ebp], 187 ; 000000bbH
  00063	eb 21		 jmp	 SHORT $LN9@response_t
$LN8@response_t:
  00065	8b 15 00 00 00
	00		 mov	 edx, DWORD PTR ?__LINE__Var@?0??response_to_force_vacant_farp@@YGHW4ENTITY_MESSAGES@@PAUENTITY@@1PAD@Z@4JA
  0006b	83 c2 16	 add	 edx, 22			; 00000016H
  0006e	52		 push	 edx
  0006f	68 00 00 00 00	 push	 OFFSET ??_C@_0EL@MMNLIBAL@c?3?2users?2nhv90?2projects?2eech?2ap@
  00074	a1 00 00 00 00	 mov	 eax, DWORD PTR ?overload_invalid_int_type_message@@3PBDB ; overload_invalid_int_type_message
  00079	50		 push	 eax
  0007a	e8 00 00 00 00	 call	 ?process_assert@@YGXPBD0H@Z ; process_assert
  0007f	c7 45 b4 00 00
	00 00		 mov	 DWORD PTR tv80[ebp], 0
$LN9@response_t:
  00086	68 bb 00 00 00	 push	 187			; 000000bbH
  0008b	8b 4d 0c	 mov	 ecx, DWORD PTR _receiver$[ebp]
  0008e	51		 push	 ecx
  0008f	69 55 b8 5c 04
	00 00		 imul	 edx, DWORD PTR tv72[ebp], 1116
  00096	8b 45 b4	 mov	 eax, DWORD PTR tv80[ebp]
  00099	8b 8c 82 00 00
	00 00		 mov	 ecx, DWORD PTR ?fn_get_local_entity_int_value@@3PAY0BBH@P6GHPAUENTITY@@W4INT_TYPES@@@ZA[edx+eax*4]
  000a0	ff d1		 call	 ecx
  000a2	89 45 fc	 mov	 DWORD PTR _this_side$[ebp], eax

; 951  : 
; 952  : 	if (!entity_is_object_of_task (sender, ENTITY_SUB_TYPE_TASK_RECON, this_side))

  000a5	8b 45 fc	 mov	 eax, DWORD PTR _this_side$[ebp]
  000a8	50		 push	 eax
  000a9	6a 11		 push	 17			; 00000011H
  000ab	8b 4d 10	 mov	 ecx, DWORD PTR _sender$[ebp]
  000ae	51		 push	 ecx
  000af	e8 00 00 00 00	 call	 ?entity_is_object_of_task@@YGHPAUENTITY@@HW4ENTITY_SIDES@@@Z ; entity_is_object_of_task

; 953  : 	{
; 954  : //		create_farp_recon_task (this_side, sender);
; 955  : 	}
; 956  : 
; 957  : 	return (TRUE);

  000b4	b8 01 00 00 00	 mov	 eax, 1
$LN1@response_t:

; 958  : }

  000b9	5f		 pop	 edi
  000ba	5e		 pop	 esi
  000bb	5b		 pop	 ebx
  000bc	8b e5		 mov	 esp, ebp
  000be	5d		 pop	 ebp
  000bf	c2 10 00	 ret	 16			; 00000010H
?response_to_force_vacant_farp@@YGHW4ENTITY_MESSAGES@@PAUENTITY@@1PAD@Z ENDP ; response_to_force_vacant_farp
_TEXT	ENDS
; Function compile flags: /Odtp /ZI
; File c:\users\nhv90\projects\eech\aphavoc\source\entity\special\force\fc_msgs.c
;	COMDAT ?response_to_force_special_kill@@YGHW4ENTITY_MESSAGES@@PAUENTITY@@1PAD@Z
_TEXT	SEGMENT
_kills$ = -8						; size = 4
_force_raw$ = -4					; size = 4
_message$ = 8						; size = 4
_receiver$ = 12						; size = 4
_sender$ = 16						; size = 4
_pargs$ = 20						; size = 4
?response_to_force_special_kill@@YGHW4ENTITY_MESSAGES@@PAUENTITY@@1PAD@Z PROC ; response_to_force_special_kill, COMDAT

; 885  : {

  00000	55		 push	 ebp
  00001	8b ec		 mov	 ebp, esp
  00003	83 ec 48	 sub	 esp, 72			; 00000048H
  00006	53		 push	 ebx
  00007	56		 push	 esi
  00008	57		 push	 edi

; 886  : 
; 887  : 	force
; 888  : 		*force_raw;
; 889  : 
; 890  : 	int
; 891  : 		kills;
; 892  : 
; 893  : 	//campaign_criteria
; 894  : 		//criteria;
; 895  : 
; 896  : 	//campaign_criteria_type
; 897  : 		//*campaign_criteria;
; 898  : 
; 899  : 	ASSERT (get_comms_model () == COMMS_MODEL_SERVER);

  00009	83 3d 00 00 00
	00 00		 cmp	 DWORD PTR ?system_comms_model@@3W4COMMS_MODEL_TYPES@@A, 0 ; system_comms_model
  00010	74 18		 je	 SHORT $LN2@response_t
  00012	a1 00 00 00 00	 mov	 eax, DWORD PTR ?__LINE__Var@?0??response_to_force_special_kill@@YGHW4ENTITY_MESSAGES@@PAUENTITY@@1PAD@Z@4JA
  00017	83 c0 0e	 add	 eax, 14			; 0000000eH
  0001a	50		 push	 eax
  0001b	68 00 00 00 00	 push	 OFFSET ??_C@_0EL@MMNLIBAL@c?3?2users?2nhv90?2projects?2eech?2ap@
  00020	68 00 00 00 00	 push	 OFFSET ??_C@_0CJ@DMBLBJBK@get_comms_model?5?$CI?$CJ?5?$DN?$DN?5COMMS_MOD@
  00025	e8 00 00 00 00	 call	 ?process_assert@@YGXPBD0H@Z ; process_assert
$LN2@response_t:

; 900  : 
; 901  : 	force_raw = (force *) get_local_entity_data (receiver);

  0002a	8b 45 0c	 mov	 eax, DWORD PTR _receiver$[ebp]
  0002d	8b 48 04	 mov	 ecx, DWORD PTR [eax+4]
  00030	89 4d fc	 mov	 DWORD PTR _force_raw$[ebp], ecx

; 902  : 
; 903  : 	kills = va_arg (pargs, int);

  00033	8b 45 14	 mov	 eax, DWORD PTR _pargs$[ebp]
  00036	83 c0 04	 add	 eax, 4
  00039	89 45 14	 mov	 DWORD PTR _pargs$[ebp], eax
  0003c	8b 4d 14	 mov	 ecx, DWORD PTR _pargs$[ebp]
  0003f	8b 51 fc	 mov	 edx, DWORD PTR [ecx-4]
  00042	89 55 f8	 mov	 DWORD PTR _kills$[ebp], edx

; 904  : 
; 905  : 	#if DEBUG_MODULE
; 906  : 	
; 907  : 	debug_log ("FC_MSGS(%s): entity %s destroyed - aggressor kills = %d", entity_side_names [get_local_entity_int_value (receiver, INT_TYPE_SIDE)], get_local_entity_string (sender, STRING_TYPE_FULL_NAME), kills);
; 908  : 
; 909  : 	#endif
; 910  : /*
; 911  : 	criteria = CAMPAIGN_CRITERIA_SPECIAL_KILLS;
; 912  : 
; 913  : 	campaign_criteria = get_force_campaign_criteria (receiver, criteria, -1);
; 914  : 
; 915  : 	if (campaign_criteria)
; 916  : 	{
; 917  : 		campaign_criteria->count = max (campaign_criteria->count, kills);
; 918  : 	}
; 919  : */
; 920  : 	return TRUE;

  00045	b8 01 00 00 00	 mov	 eax, 1

; 921  : }

  0004a	5f		 pop	 edi
  0004b	5e		 pop	 esi
  0004c	5b		 pop	 ebx
  0004d	8b e5		 mov	 esp, ebp
  0004f	5d		 pop	 ebp
  00050	c2 10 00	 ret	 16			; 00000010H
?response_to_force_special_kill@@YGHW4ENTITY_MESSAGES@@PAUENTITY@@1PAD@Z ENDP ; response_to_force_special_kill
_TEXT	ENDS
; Function compile flags: /Odtp /ZI
; File c:\users\nhv90\projects\eech\aphavoc\source\entity\special\force\fc_msgs.c
;	COMDAT ?response_to_force_low_on_supplies@@YGHW4ENTITY_MESSAGES@@PAUENTITY@@1PAD@Z
_TEXT	SEGMENT
tv393 = -116						; size = 4
tv329 = -112						; size = 4
tv308 = -112						; size = 4
tv289 = -112						; size = 4
tv217 = -112						; size = 4
tv197 = -112						; size = 4
tv175 = -112						; size = 4
tv156 = -112						; size = 4
tv137 = -112						; size = 4
tv81 = -112						; size = 4
tv321 = -108						; size = 4
tv301 = -108						; size = 4
tv281 = -108						; size = 4
tv225 = -108						; size = 4
tv209 = -108						; size = 4
tv189 = -108						; size = 4
tv168 = -108						; size = 4
tv149 = -108						; size = 4
tv129 = -108						; size = 4
tv74 = -108						; size = 4
_factory$ = -40						; size = 4
_airbase$ = -36						; size = 4
_cargo$ = -32						; size = 4
_task$ = -28						; size = 4
_pos$ = -24						; size = 4
_airbase_actual_range$ = -20				; size = 4
_factory_actual_range$ = -16				; size = 4
_sub_type$ = -12					; size = 4
_movement_type$ = -8					; size = 4
_side$ = -4						; size = 4
_message$ = 8						; size = 4
_receiver$ = 12						; size = 4
_sender$ = 16						; size = 4
_pargs$ = 20						; size = 4
?response_to_force_low_on_supplies@@YGHW4ENTITY_MESSAGES@@PAUENTITY@@1PAD@Z PROC ; response_to_force_low_on_supplies, COMDAT

; 659  : {

  00000	55		 push	 ebp
  00001	8b ec		 mov	 ebp, esp
  00003	83 ec 74	 sub	 esp, 116		; 00000074H
  00006	53		 push	 ebx
  00007	56		 push	 esi
  00008	57		 push	 edi

; 660  : 
; 661  : 	entity_sides
; 662  : 		side;
; 663  : 
; 664  : 	movement_types
; 665  : 		movement_type;
; 666  : 
; 667  : 	entity_sub_types
; 668  : 		sub_type;
; 669  : 
; 670  : 	float
; 671  : 		factory_actual_range,
; 672  : 		airbase_actual_range;
; 673  : 
; 674  : 	vec3d
; 675  : 		*pos;
; 676  : 
; 677  : 	entity
; 678  : 		*task,
; 679  : 		*cargo,
; 680  : 		*airbase,
; 681  : 		*factory;
; 682  : 
; 683  : 	if ((get_game_status () != GAME_STATUS_INITIALISED) || (get_comms_model () == COMMS_MODEL_CLIENT))

  00009	83 3d 00 00 00
	00 03		 cmp	 DWORD PTR ?game_status@@3W4GAME_STATUS_TYPES@@A, 3 ; game_status
  00010	75 09		 jne	 SHORT $LN9@response_t
  00012	83 3d 00 00 00
	00 01		 cmp	 DWORD PTR ?system_comms_model@@3W4COMMS_MODEL_TYPES@@A, 1 ; system_comms_model
  00019	75 07		 jne	 SHORT $LN8@response_t
$LN9@response_t:

; 684  : 	{
; 685  : 
; 686  : 		return (FALSE);

  0001b	33 c0		 xor	 eax, eax
  0001d	e9 7d 06 00 00	 jmp	 $LN1@response_t
$LN8@response_t:

; 687  : 	}
; 688  : 
; 689  : 	sub_type = va_arg (pargs, entity_sub_types);

  00022	8b 45 14	 mov	 eax, DWORD PTR _pargs$[ebp]
  00025	83 c0 04	 add	 eax, 4
  00028	89 45 14	 mov	 DWORD PTR _pargs$[ebp], eax
  0002b	8b 4d 14	 mov	 ecx, DWORD PTR _pargs$[ebp]
  0002e	8b 51 fc	 mov	 edx, DWORD PTR [ecx-4]
  00031	89 55 f4	 mov	 DWORD PTR _sub_type$[ebp], edx

; 690  : 
; 691  : 	#if DEBUG_MODULE || DEBUG_SUPPLY
; 692  : 
; 693  : 	debug_log ("FC_MSGS(%s): SUPPLY_INFO: allied keysite/group %s (%d) low on %s supplies (ammo = %f, fuel = %f)",
; 694  : 					entity_side_names [get_local_entity_int_value (receiver, INT_TYPE_SIDE)],
; 695  : 					get_local_entity_string (sender, STRING_TYPE_FULL_NAME),
; 696  : 					get_local_entity_index (sender),
; 697  : 					entity_sub_type_cargo_names [sub_type],
; 698  : 					get_local_entity_float_value (sender, FLOAT_TYPE_AMMO_SUPPLY_LEVEL),
; 699  : 					get_local_entity_float_value (sender, FLOAT_TYPE_FUEL_SUPPLY_LEVEL));
; 700  : 
; 701  : 	#endif
; 702  : 
; 703  : 
; 704  : 	// ensure no other task is already taking care of this supply requirement
; 705  : 
; 706  : 	// replace en with sender!
; 707  : 
; 708  : 	if ((entity_is_object_of_task (sender, ENTITY_SUB_TYPE_TASK_SUPPLY, (entity_sides) get_local_entity_int_value (sender, INT_TYPE_SIDE))))

  00034	83 7d 10 00	 cmp	 DWORD PTR _sender$[ebp], 0
  00038	74 0a		 je	 SHORT $LN25@response_t
  0003a	8b 45 10	 mov	 eax, DWORD PTR _sender$[ebp]
  0003d	8b 08		 mov	 ecx, DWORD PTR [eax]
  0003f	89 4d 94	 mov	 DWORD PTR tv74[ebp], ecx
  00042	eb 1d		 jmp	 SHORT $LN26@response_t
$LN25@response_t:
  00044	68 c4 02 00 00	 push	 708			; 000002c4H
  00049	68 00 00 00 00	 push	 OFFSET ??_C@_0EL@MMNLIBAL@c?3?2users?2nhv90?2projects?2eech?2ap@
  0004e	8b 15 00 00 00
	00		 mov	 edx, DWORD PTR ?null_entity_pointer_message@@3PBDB ; null_entity_pointer_message
  00054	52		 push	 edx
  00055	e8 00 00 00 00	 call	 ?process_assert@@YGXPBD0H@Z ; process_assert
  0005a	c7 45 94 00 00
	00 00		 mov	 DWORD PTR tv74[ebp], 0
$LN26@response_t:
  00061	b8 01 00 00 00	 mov	 eax, 1
  00066	85 c0		 test	 eax, eax
  00068	74 09		 je	 SHORT $LN27@response_t
  0006a	c7 45 90 bb 00
	00 00		 mov	 DWORD PTR tv81[ebp], 187 ; 000000bbH
  00071	eb 1d		 jmp	 SHORT $LN28@response_t
$LN27@response_t:
  00073	68 c4 02 00 00	 push	 708			; 000002c4H
  00078	68 00 00 00 00	 push	 OFFSET ??_C@_0EL@MMNLIBAL@c?3?2users?2nhv90?2projects?2eech?2ap@
  0007d	8b 0d 00 00 00
	00		 mov	 ecx, DWORD PTR ?overload_invalid_int_type_message@@3PBDB ; overload_invalid_int_type_message
  00083	51		 push	 ecx
  00084	e8 00 00 00 00	 call	 ?process_assert@@YGXPBD0H@Z ; process_assert
  00089	c7 45 90 00 00
	00 00		 mov	 DWORD PTR tv81[ebp], 0
$LN28@response_t:
  00090	68 bb 00 00 00	 push	 187			; 000000bbH
  00095	8b 55 10	 mov	 edx, DWORD PTR _sender$[ebp]
  00098	52		 push	 edx
  00099	69 45 94 5c 04
	00 00		 imul	 eax, DWORD PTR tv74[ebp], 1116
  000a0	8b 4d 90	 mov	 ecx, DWORD PTR tv81[ebp]
  000a3	8b 94 88 00 00
	00 00		 mov	 edx, DWORD PTR ?fn_get_local_entity_int_value@@3PAY0BBH@P6GHPAUENTITY@@W4INT_TYPES@@@ZA[eax+ecx*4]
  000aa	ff d2		 call	 edx
  000ac	50		 push	 eax
  000ad	6a 15		 push	 21			; 00000015H
  000af	8b 45 10	 mov	 eax, DWORD PTR _sender$[ebp]
  000b2	50		 push	 eax
  000b3	e8 00 00 00 00	 call	 ?entity_is_object_of_task@@YGHPAUENTITY@@HW4ENTITY_SIDES@@@Z ; entity_is_object_of_task
  000b8	85 c0		 test	 eax, eax
  000ba	0f 84 22 02 00
	00		 je	 $LN3@response_t

; 709  : 	{
; 710  : 		task = get_local_entity_first_child (sender, LIST_TYPE_TASK_DEPENDENT);

  000c0	83 7d 10 00	 cmp	 DWORD PTR _sender$[ebp], 0
  000c4	74 0a		 je	 SHORT $LN29@response_t
  000c6	8b 45 10	 mov	 eax, DWORD PTR _sender$[ebp]
  000c9	8b 08		 mov	 ecx, DWORD PTR [eax]
  000cb	89 4d 94	 mov	 DWORD PTR tv129[ebp], ecx
  000ce	eb 21		 jmp	 SHORT $LN30@response_t
$LN29@response_t:
  000d0	8b 15 00 00 00
	00		 mov	 edx, DWORD PTR ?__LINE__Var@?0??response_to_force_low_on_supplies@@YGHW4ENTITY_MESSAGES@@PAUENTITY@@1PAD@Z@4JA
  000d6	83 c2 33	 add	 edx, 51			; 00000033H
  000d9	52		 push	 edx
  000da	68 00 00 00 00	 push	 OFFSET ??_C@_0EL@MMNLIBAL@c?3?2users?2nhv90?2projects?2eech?2ap@
  000df	a1 00 00 00 00	 mov	 eax, DWORD PTR ?null_entity_pointer_message@@3PBDB ; null_entity_pointer_message
  000e4	50		 push	 eax
  000e5	e8 00 00 00 00	 call	 ?process_assert@@YGXPBD0H@Z ; process_assert
  000ea	c7 45 94 00 00
	00 00		 mov	 DWORD PTR tv129[ebp], 0
$LN30@response_t:
  000f1	b9 01 00 00 00	 mov	 ecx, 1
  000f6	85 c9		 test	 ecx, ecx
  000f8	74 09		 je	 SHORT $LN31@response_t
  000fa	c7 45 90 27 00
	00 00		 mov	 DWORD PTR tv137[ebp], 39 ; 00000027H
  00101	eb 21		 jmp	 SHORT $LN32@response_t
$LN31@response_t:
  00103	8b 15 00 00 00
	00		 mov	 edx, DWORD PTR ?__LINE__Var@?0??response_to_force_low_on_supplies@@YGHW4ENTITY_MESSAGES@@PAUENTITY@@1PAD@Z@4JA
  00109	83 c2 33	 add	 edx, 51			; 00000033H
  0010c	52		 push	 edx
  0010d	68 00 00 00 00	 push	 OFFSET ??_C@_0EL@MMNLIBAL@c?3?2users?2nhv90?2projects?2eech?2ap@
  00112	a1 00 00 00 00	 mov	 eax, DWORD PTR ?overload_invalid_list_type_message@@3PBDB ; overload_invalid_list_type_message
  00117	50		 push	 eax
  00118	e8 00 00 00 00	 call	 ?process_assert@@YGXPBD0H@Z ; process_assert
  0011d	c7 45 90 00 00
	00 00		 mov	 DWORD PTR tv137[ebp], 0
$LN32@response_t:
  00124	6a 27		 push	 39			; 00000027H
  00126	8b 4d 10	 mov	 ecx, DWORD PTR _sender$[ebp]
  00129	51		 push	 ecx
  0012a	69 55 94 b4 00
	00 00		 imul	 edx, DWORD PTR tv129[ebp], 180
  00131	8b 45 90	 mov	 eax, DWORD PTR tv137[ebp]
  00134	8b 8c 82 00 00
	00 00		 mov	 ecx, DWORD PTR ?fn_get_local_entity_first_child@@3PAY0CN@P6GPAUENTITY@@PAU1@W4LIST_TYPES@@@ZA[edx+eax*4]
  0013b	ff d1		 call	 ecx
  0013d	89 45 e4	 mov	 DWORD PTR _task$[ebp], eax
$LN2@response_t:

; 711  : 
; 712  : 		while (task)

  00140	83 7d e4 00	 cmp	 DWORD PTR _task$[ebp], 0
  00144	0f 84 98 01 00
	00		 je	 $LN3@response_t

; 713  : 		{
; 714  : 
; 715  : 			if (get_local_entity_int_value (task, INT_TYPE_ENTITY_SUB_TYPE) == ENTITY_SUB_TYPE_TASK_SUPPLY)

  0014a	83 7d e4 00	 cmp	 DWORD PTR _task$[ebp], 0
  0014e	74 0a		 je	 SHORT $LN33@response_t
  00150	8b 45 e4	 mov	 eax, DWORD PTR _task$[ebp]
  00153	8b 08		 mov	 ecx, DWORD PTR [eax]
  00155	89 4d 94	 mov	 DWORD PTR tv149[ebp], ecx
  00158	eb 1d		 jmp	 SHORT $LN34@response_t
$LN33@response_t:
  0015a	68 cb 02 00 00	 push	 715			; 000002cbH
  0015f	68 00 00 00 00	 push	 OFFSET ??_C@_0EL@MMNLIBAL@c?3?2users?2nhv90?2projects?2eech?2ap@
  00164	8b 15 00 00 00
	00		 mov	 edx, DWORD PTR ?null_entity_pointer_message@@3PBDB ; null_entity_pointer_message
  0016a	52		 push	 edx
  0016b	e8 00 00 00 00	 call	 ?process_assert@@YGXPBD0H@Z ; process_assert
  00170	c7 45 94 00 00
	00 00		 mov	 DWORD PTR tv149[ebp], 0
$LN34@response_t:
  00177	b8 01 00 00 00	 mov	 eax, 1
  0017c	85 c0		 test	 eax, eax
  0017e	74 09		 je	 SHORT $LN35@response_t
  00180	c7 45 90 34 00
	00 00		 mov	 DWORD PTR tv156[ebp], 52 ; 00000034H
  00187	eb 1d		 jmp	 SHORT $LN36@response_t
$LN35@response_t:
  00189	68 cb 02 00 00	 push	 715			; 000002cbH
  0018e	68 00 00 00 00	 push	 OFFSET ??_C@_0EL@MMNLIBAL@c?3?2users?2nhv90?2projects?2eech?2ap@
  00193	8b 0d 00 00 00
	00		 mov	 ecx, DWORD PTR ?overload_invalid_int_type_message@@3PBDB ; overload_invalid_int_type_message
  00199	51		 push	 ecx
  0019a	e8 00 00 00 00	 call	 ?process_assert@@YGXPBD0H@Z ; process_assert
  0019f	c7 45 90 00 00
	00 00		 mov	 DWORD PTR tv156[ebp], 0
$LN36@response_t:
  001a6	6a 34		 push	 52			; 00000034H
  001a8	8b 55 e4	 mov	 edx, DWORD PTR _task$[ebp]
  001ab	52		 push	 edx
  001ac	69 45 94 5c 04
	00 00		 imul	 eax, DWORD PTR tv149[ebp], 1116
  001b3	8b 4d 90	 mov	 ecx, DWORD PTR tv156[ebp]
  001b6	8b 94 88 00 00
	00 00		 mov	 edx, DWORD PTR ?fn_get_local_entity_int_value@@3PAY0BBH@P6GHPAUENTITY@@W4INT_TYPES@@@ZA[eax+ecx*4]
  001bd	ff d2		 call	 edx
  001bf	83 f8 15	 cmp	 eax, 21			; 00000015H
  001c2	0f 85 95 00 00
	00		 jne	 $LN12@response_t

; 716  : 			{
; 717  : 
; 718  : 				if (get_local_entity_float_value (task, FLOAT_TYPE_TASK_USER_DATA) == sub_type)

  001c8	83 7d e4 00	 cmp	 DWORD PTR _task$[ebp], 0
  001cc	74 0a		 je	 SHORT $LN37@response_t
  001ce	8b 45 e4	 mov	 eax, DWORD PTR _task$[ebp]
  001d1	8b 08		 mov	 ecx, DWORD PTR [eax]
  001d3	89 4d 94	 mov	 DWORD PTR tv168[ebp], ecx
  001d6	eb 1d		 jmp	 SHORT $LN38@response_t
$LN37@response_t:
  001d8	68 ce 02 00 00	 push	 718			; 000002ceH
  001dd	68 00 00 00 00	 push	 OFFSET ??_C@_0EL@MMNLIBAL@c?3?2users?2nhv90?2projects?2eech?2ap@
  001e2	8b 15 00 00 00
	00		 mov	 edx, DWORD PTR ?null_entity_pointer_message@@3PBDB ; null_entity_pointer_message
  001e8	52		 push	 edx
  001e9	e8 00 00 00 00	 call	 ?process_assert@@YGXPBD0H@Z ; process_assert
  001ee	c7 45 94 00 00
	00 00		 mov	 DWORD PTR tv168[ebp], 0
$LN38@response_t:
  001f5	b8 01 00 00 00	 mov	 eax, 1
  001fa	85 c0		 test	 eax, eax
  001fc	74 09		 je	 SHORT $LN39@response_t
  001fe	c7 45 90 8c 00
	00 00		 mov	 DWORD PTR tv175[ebp], 140 ; 0000008cH
  00205	eb 1d		 jmp	 SHORT $LN40@response_t
$LN39@response_t:
  00207	68 ce 02 00 00	 push	 718			; 000002ceH
  0020c	68 00 00 00 00	 push	 OFFSET ??_C@_0EL@MMNLIBAL@c?3?2users?2nhv90?2projects?2eech?2ap@
  00211	8b 0d 00 00 00
	00		 mov	 ecx, DWORD PTR ?overload_invalid_float_type_message@@3PBDB ; overload_invalid_float_type_message
  00217	51		 push	 ecx
  00218	e8 00 00 00 00	 call	 ?process_assert@@YGXPBD0H@Z ; process_assert
  0021d	c7 45 90 00 00
	00 00		 mov	 DWORD PTR tv175[ebp], 0
$LN40@response_t:
  00224	68 8c 00 00 00	 push	 140			; 0000008cH
  00229	8b 55 e4	 mov	 edx, DWORD PTR _task$[ebp]
  0022c	52		 push	 edx
  0022d	69 45 94 bc 02
	00 00		 imul	 eax, DWORD PTR tv168[ebp], 700
  00234	8b 4d 90	 mov	 ecx, DWORD PTR tv175[ebp]
  00237	8b 94 88 00 00
	00 00		 mov	 edx, DWORD PTR ?fn_get_local_entity_float_value@@3PAY0KP@P6GMPAUENTITY@@W4FLOAT_TYPES@@@ZA[eax+ecx*4]
  0023e	ff d2		 call	 edx
  00240	d9 5d 8c	 fstp	 DWORD PTR tv393[ebp]
  00243	f3 0f 10 45 8c	 movss	 xmm0, DWORD PTR tv393[ebp]
  00248	f3 0f 2a 4d f4	 cvtsi2ss xmm1, DWORD PTR _sub_type$[ebp]
  0024d	0f 2e c1	 ucomiss xmm0, xmm1
  00250	9f		 lahf
  00251	f6 c4 44	 test	 ah, 68			; 00000044H
  00254	7a 07		 jp	 SHORT $LN12@response_t

; 719  : 				{
; 720  : 
; 721  : 					// already got a supply task for this type.
; 722  : 
; 723  : 					return (FALSE);

  00256	33 c0		 xor	 eax, eax
  00258	e9 42 04 00 00	 jmp	 $LN1@response_t
$LN12@response_t:

; 724  : 				}
; 725  : 			}
; 726  : 
; 727  : 			task = get_local_entity_child_succ (task, LIST_TYPE_TASK_DEPENDENT);

  0025d	83 7d e4 00	 cmp	 DWORD PTR _task$[ebp], 0
  00261	74 0a		 je	 SHORT $LN41@response_t
  00263	8b 45 e4	 mov	 eax, DWORD PTR _task$[ebp]
  00266	8b 08		 mov	 ecx, DWORD PTR [eax]
  00268	89 4d 94	 mov	 DWORD PTR tv189[ebp], ecx
  0026b	eb 21		 jmp	 SHORT $LN42@response_t
$LN41@response_t:
  0026d	8b 15 00 00 00
	00		 mov	 edx, DWORD PTR ?__LINE__Var@?0??response_to_force_low_on_supplies@@YGHW4ENTITY_MESSAGES@@PAUENTITY@@1PAD@Z@4JA
  00273	83 c2 44	 add	 edx, 68			; 00000044H
  00276	52		 push	 edx
  00277	68 00 00 00 00	 push	 OFFSET ??_C@_0EL@MMNLIBAL@c?3?2users?2nhv90?2projects?2eech?2ap@
  0027c	a1 00 00 00 00	 mov	 eax, DWORD PTR ?null_entity_pointer_message@@3PBDB ; null_entity_pointer_message
  00281	50		 push	 eax
  00282	e8 00 00 00 00	 call	 ?process_assert@@YGXPBD0H@Z ; process_assert
  00287	c7 45 94 00 00
	00 00		 mov	 DWORD PTR tv189[ebp], 0
$LN42@response_t:
  0028e	b9 01 00 00 00	 mov	 ecx, 1
  00293	85 c9		 test	 ecx, ecx
  00295	74 09		 je	 SHORT $LN43@response_t
  00297	c7 45 90 27 00
	00 00		 mov	 DWORD PTR tv197[ebp], 39 ; 00000027H
  0029e	eb 21		 jmp	 SHORT $LN44@response_t
$LN43@response_t:
  002a0	8b 15 00 00 00
	00		 mov	 edx, DWORD PTR ?__LINE__Var@?0??response_to_force_low_on_supplies@@YGHW4ENTITY_MESSAGES@@PAUENTITY@@1PAD@Z@4JA
  002a6	83 c2 44	 add	 edx, 68			; 00000044H
  002a9	52		 push	 edx
  002aa	68 00 00 00 00	 push	 OFFSET ??_C@_0EL@MMNLIBAL@c?3?2users?2nhv90?2projects?2eech?2ap@
  002af	a1 00 00 00 00	 mov	 eax, DWORD PTR ?overload_invalid_list_type_message@@3PBDB ; overload_invalid_list_type_message
  002b4	50		 push	 eax
  002b5	e8 00 00 00 00	 call	 ?process_assert@@YGXPBD0H@Z ; process_assert
  002ba	c7 45 90 00 00
	00 00		 mov	 DWORD PTR tv197[ebp], 0
$LN44@response_t:
  002c1	6a 27		 push	 39			; 00000027H
  002c3	8b 4d e4	 mov	 ecx, DWORD PTR _task$[ebp]
  002c6	51		 push	 ecx
  002c7	69 55 94 b4 00
	00 00		 imul	 edx, DWORD PTR tv189[ebp], 180
  002ce	8b 45 90	 mov	 eax, DWORD PTR tv197[ebp]
  002d1	8b 8c 82 00 00
	00 00		 mov	 ecx, DWORD PTR ?fn_get_local_entity_child_succ@@3PAY0CN@P6GPAUENTITY@@PAU1@W4LIST_TYPES@@@ZA[edx+eax*4]
  002d8	ff d1		 call	 ecx
  002da	89 45 e4	 mov	 DWORD PTR _task$[ebp], eax

; 728  : 		}

  002dd	e9 5e fe ff ff	 jmp	 $LN2@response_t
$LN3@response_t:

; 729  : 	}
; 730  : 
; 731  : 	//
; 732  : 	// Locate correct supplier
; 733  : 	//
; 734  : 
; 735  : 	side = (entity_sides) get_local_entity_int_value (sender, INT_TYPE_SIDE);

  002e2	83 7d 10 00	 cmp	 DWORD PTR _sender$[ebp], 0
  002e6	74 0a		 je	 SHORT $LN45@response_t
  002e8	8b 45 10	 mov	 eax, DWORD PTR _sender$[ebp]
  002eb	8b 08		 mov	 ecx, DWORD PTR [eax]
  002ed	89 4d 94	 mov	 DWORD PTR tv209[ebp], ecx
  002f0	eb 21		 jmp	 SHORT $LN46@response_t
$LN45@response_t:
  002f2	8b 15 00 00 00
	00		 mov	 edx, DWORD PTR ?__LINE__Var@?0??response_to_force_low_on_supplies@@YGHW4ENTITY_MESSAGES@@PAUENTITY@@1PAD@Z@4JA
  002f8	83 c2 4c	 add	 edx, 76			; 0000004cH
  002fb	52		 push	 edx
  002fc	68 00 00 00 00	 push	 OFFSET ??_C@_0EL@MMNLIBAL@c?3?2users?2nhv90?2projects?2eech?2ap@
  00301	a1 00 00 00 00	 mov	 eax, DWORD PTR ?null_entity_pointer_message@@3PBDB ; null_entity_pointer_message
  00306	50		 push	 eax
  00307	e8 00 00 00 00	 call	 ?process_assert@@YGXPBD0H@Z ; process_assert
  0030c	c7 45 94 00 00
	00 00		 mov	 DWORD PTR tv209[ebp], 0
$LN46@response_t:
  00313	b9 01 00 00 00	 mov	 ecx, 1
  00318	85 c9		 test	 ecx, ecx
  0031a	74 09		 je	 SHORT $LN47@response_t
  0031c	c7 45 90 bb 00
	00 00		 mov	 DWORD PTR tv217[ebp], 187 ; 000000bbH
  00323	eb 21		 jmp	 SHORT $LN48@response_t
$LN47@response_t:
  00325	8b 15 00 00 00
	00		 mov	 edx, DWORD PTR ?__LINE__Var@?0??response_to_force_low_on_supplies@@YGHW4ENTITY_MESSAGES@@PAUENTITY@@1PAD@Z@4JA
  0032b	83 c2 4c	 add	 edx, 76			; 0000004cH
  0032e	52		 push	 edx
  0032f	68 00 00 00 00	 push	 OFFSET ??_C@_0EL@MMNLIBAL@c?3?2users?2nhv90?2projects?2eech?2ap@
  00334	a1 00 00 00 00	 mov	 eax, DWORD PTR ?overload_invalid_int_type_message@@3PBDB ; overload_invalid_int_type_message
  00339	50		 push	 eax
  0033a	e8 00 00 00 00	 call	 ?process_assert@@YGXPBD0H@Z ; process_assert
  0033f	c7 45 90 00 00
	00 00		 mov	 DWORD PTR tv217[ebp], 0
$LN48@response_t:
  00346	68 bb 00 00 00	 push	 187			; 000000bbH
  0034b	8b 4d 10	 mov	 ecx, DWORD PTR _sender$[ebp]
  0034e	51		 push	 ecx
  0034f	69 55 94 5c 04
	00 00		 imul	 edx, DWORD PTR tv209[ebp], 1116
  00356	8b 45 90	 mov	 eax, DWORD PTR tv217[ebp]
  00359	8b 8c 82 00 00
	00 00		 mov	 ecx, DWORD PTR ?fn_get_local_entity_int_value@@3PAY0BBH@P6GHPAUENTITY@@W4INT_TYPES@@@ZA[edx+eax*4]
  00360	ff d1		 call	 ecx
  00362	89 45 fc	 mov	 DWORD PTR _side$[ebp], eax

; 736  : 
; 737  : 	pos = get_keysite_supply_position (sender);

  00365	8b 45 10	 mov	 eax, DWORD PTR _sender$[ebp]
  00368	50		 push	 eax
  00369	e8 00 00 00 00	 call	 ?get_keysite_supply_position@@YGPAUVEC3D@@PAUENTITY@@@Z ; get_keysite_supply_position
  0036e	89 45 e8	 mov	 DWORD PTR _pos$[ebp], eax

; 738  : 
; 739  : 	switch (sub_type)

  00371	8b 45 f4	 mov	 eax, DWORD PTR _sub_type$[ebp]
  00374	89 45 94	 mov	 DWORD PTR tv225[ebp], eax
  00377	83 7d 94 00	 cmp	 DWORD PTR tv225[ebp], 0
  0037b	74 0f		 je	 SHORT $LN13@response_t
  0037d	83 7d 94 01	 cmp	 DWORD PTR tv225[ebp], 1
  00381	0f 84 9d 00 00
	00		 je	 $LN16@response_t
  00387	e9 2b 01 00 00	 jmp	 $LN4@response_t
$LN13@response_t:

; 740  : 	{
; 741  : 
; 742  : 		case ENTITY_SUB_TYPE_CARGO_AMMO:
; 743  : 		{
; 744  : 
; 745  : 			factory = get_closest_keysite (ENTITY_SUB_TYPE_KEYSITE_FACTORY, side, pos, 10 * KILOMETRE, &factory_actual_range, NULL);

  0038c	6a 00		 push	 0
  0038e	8d 45 f0	 lea	 eax, DWORD PTR _factory_actual_range$[ebp]
  00391	50		 push	 eax
  00392	51		 push	 ecx
  00393	f3 0f 10 05 00
	00 00 00	 movss	 xmm0, DWORD PTR __real@461c4000
  0039b	f3 0f 11 04 24	 movss	 DWORD PTR [esp], xmm0
  003a0	8b 4d e8	 mov	 ecx, DWORD PTR _pos$[ebp]
  003a3	51		 push	 ecx
  003a4	8b 55 fc	 mov	 edx, DWORD PTR _side$[ebp]
  003a7	52		 push	 edx
  003a8	6a 02		 push	 2
  003aa	e8 00 00 00 00	 call	 ?get_closest_keysite@@YGPAUENTITY@@HW4ENTITY_SIDES@@PAUVEC3D@@MPAMPAU1@@Z ; get_closest_keysite
  003af	89 45 d8	 mov	 DWORD PTR _factory$[ebp], eax

; 746  : 
; 747  : 			if (!factory)

  003b2	83 7d d8 00	 cmp	 DWORD PTR _factory$[ebp], 0
  003b6	75 26		 jne	 SHORT $LN14@response_t

; 748  : 			{
; 749  : 
; 750  : 				factory = get_closest_keysite (ENTITY_SUB_TYPE_KEYSITE_OIL_REFINERY, side, pos, 10 * KILOMETRE, &factory_actual_range, NULL);

  003b8	6a 00		 push	 0
  003ba	8d 45 f0	 lea	 eax, DWORD PTR _factory_actual_range$[ebp]
  003bd	50		 push	 eax
  003be	51		 push	 ecx
  003bf	f3 0f 10 05 00
	00 00 00	 movss	 xmm0, DWORD PTR __real@461c4000
  003c7	f3 0f 11 04 24	 movss	 DWORD PTR [esp], xmm0
  003cc	8b 4d e8	 mov	 ecx, DWORD PTR _pos$[ebp]
  003cf	51		 push	 ecx
  003d0	8b 55 fc	 mov	 edx, DWORD PTR _side$[ebp]
  003d3	52		 push	 edx
  003d4	6a 07		 push	 7
  003d6	e8 00 00 00 00	 call	 ?get_closest_keysite@@YGPAUENTITY@@HW4ENTITY_SIDES@@PAUVEC3D@@MPAMPAU1@@Z ; get_closest_keysite
  003db	89 45 d8	 mov	 DWORD PTR _factory$[ebp], eax
$LN14@response_t:

; 751  : 			}
; 752  : 
; 753  : 			airbase = get_closest_keysite (ENTITY_SUB_TYPE_KEYSITE_AIRBASE, side, pos, 10 * KILOMETRE, &airbase_actual_range, NULL);

  003de	6a 00		 push	 0
  003e0	8d 45 ec	 lea	 eax, DWORD PTR _airbase_actual_range$[ebp]
  003e3	50		 push	 eax
  003e4	51		 push	 ecx
  003e5	f3 0f 10 05 00
	00 00 00	 movss	 xmm0, DWORD PTR __real@461c4000
  003ed	f3 0f 11 04 24	 movss	 DWORD PTR [esp], xmm0
  003f2	8b 4d e8	 mov	 ecx, DWORD PTR _pos$[ebp]
  003f5	51		 push	 ecx
  003f6	8b 55 fc	 mov	 edx, DWORD PTR _side$[ebp]
  003f9	52		 push	 edx
  003fa	6a 00		 push	 0
  003fc	e8 00 00 00 00	 call	 ?get_closest_keysite@@YGPAUENTITY@@HW4ENTITY_SIDES@@PAUVEC3D@@MPAMPAU1@@Z ; get_closest_keysite
  00401	89 45 dc	 mov	 DWORD PTR _airbase$[ebp], eax

; 754  : 
; 755  : 			if (airbase_actual_range < factory_actual_range)

  00404	f3 0f 10 45 f0	 movss	 xmm0, DWORD PTR _factory_actual_range$[ebp]
  00409	0f 2f 45 ec	 comiss	 xmm0, DWORD PTR _airbase_actual_range$[ebp]
  0040d	76 10		 jbe	 SHORT $LN15@response_t

; 756  : 			{
; 757  : 
; 758  : 				factory = airbase;

  0040f	8b 45 dc	 mov	 eax, DWORD PTR _airbase$[ebp]
  00412	89 45 d8	 mov	 DWORD PTR _factory$[ebp], eax

; 759  : 
; 760  : 				factory_actual_range = airbase_actual_range;

  00415	f3 0f 10 45 ec	 movss	 xmm0, DWORD PTR _airbase_actual_range$[ebp]
  0041a	f3 0f 11 45 f0	 movss	 DWORD PTR _factory_actual_range$[ebp], xmm0
$LN15@response_t:

; 761  : 			}
; 762  : 
; 763  : 			break;

  0041f	e9 93 00 00 00	 jmp	 $LN4@response_t
$LN16@response_t:

; 764  : 		}
; 765  : 
; 766  : 		case ENTITY_SUB_TYPE_CARGO_FUEL:
; 767  : 		{
; 768  : 
; 769  : 			factory = get_closest_keysite (ENTITY_SUB_TYPE_KEYSITE_OIL_REFINERY, side, pos, 10 * KILOMETRE, &factory_actual_range, NULL);

  00424	6a 00		 push	 0
  00426	8d 45 f0	 lea	 eax, DWORD PTR _factory_actual_range$[ebp]
  00429	50		 push	 eax
  0042a	51		 push	 ecx
  0042b	f3 0f 10 05 00
	00 00 00	 movss	 xmm0, DWORD PTR __real@461c4000
  00433	f3 0f 11 04 24	 movss	 DWORD PTR [esp], xmm0
  00438	8b 4d e8	 mov	 ecx, DWORD PTR _pos$[ebp]
  0043b	51		 push	 ecx
  0043c	8b 55 fc	 mov	 edx, DWORD PTR _side$[ebp]
  0043f	52		 push	 edx
  00440	6a 07		 push	 7
  00442	e8 00 00 00 00	 call	 ?get_closest_keysite@@YGPAUENTITY@@HW4ENTITY_SIDES@@PAUVEC3D@@MPAMPAU1@@Z ; get_closest_keysite
  00447	89 45 d8	 mov	 DWORD PTR _factory$[ebp], eax

; 770  : 
; 771  : 			if (!factory)

  0044a	83 7d d8 00	 cmp	 DWORD PTR _factory$[ebp], 0
  0044e	75 26		 jne	 SHORT $LN17@response_t

; 772  : 			{
; 773  : 
; 774  : 				factory = get_closest_keysite (ENTITY_SUB_TYPE_KEYSITE_FACTORY, side, pos, 10 * KILOMETRE, &factory_actual_range, NULL);

  00450	6a 00		 push	 0
  00452	8d 45 f0	 lea	 eax, DWORD PTR _factory_actual_range$[ebp]
  00455	50		 push	 eax
  00456	51		 push	 ecx
  00457	f3 0f 10 05 00
	00 00 00	 movss	 xmm0, DWORD PTR __real@461c4000
  0045f	f3 0f 11 04 24	 movss	 DWORD PTR [esp], xmm0
  00464	8b 4d e8	 mov	 ecx, DWORD PTR _pos$[ebp]
  00467	51		 push	 ecx
  00468	8b 55 fc	 mov	 edx, DWORD PTR _side$[ebp]
  0046b	52		 push	 edx
  0046c	6a 02		 push	 2
  0046e	e8 00 00 00 00	 call	 ?get_closest_keysite@@YGPAUENTITY@@HW4ENTITY_SIDES@@PAUVEC3D@@MPAMPAU1@@Z ; get_closest_keysite
  00473	89 45 d8	 mov	 DWORD PTR _factory$[ebp], eax
$LN17@response_t:

; 775  : 			}
; 776  : 
; 777  : 			airbase = get_closest_keysite (ENTITY_SUB_TYPE_KEYSITE_AIRBASE, side, pos, 10 * KILOMETRE, &airbase_actual_range, NULL);

  00476	6a 00		 push	 0
  00478	8d 45 ec	 lea	 eax, DWORD PTR _airbase_actual_range$[ebp]
  0047b	50		 push	 eax
  0047c	51		 push	 ecx
  0047d	f3 0f 10 05 00
	00 00 00	 movss	 xmm0, DWORD PTR __real@461c4000
  00485	f3 0f 11 04 24	 movss	 DWORD PTR [esp], xmm0
  0048a	8b 4d e8	 mov	 ecx, DWORD PTR _pos$[ebp]
  0048d	51		 push	 ecx
  0048e	8b 55 fc	 mov	 edx, DWORD PTR _side$[ebp]
  00491	52		 push	 edx
  00492	6a 00		 push	 0
  00494	e8 00 00 00 00	 call	 ?get_closest_keysite@@YGPAUENTITY@@HW4ENTITY_SIDES@@PAUVEC3D@@MPAMPAU1@@Z ; get_closest_keysite
  00499	89 45 dc	 mov	 DWORD PTR _airbase$[ebp], eax

; 778  : 
; 779  : 			if (airbase_actual_range < factory_actual_range)

  0049c	f3 0f 10 45 f0	 movss	 xmm0, DWORD PTR _factory_actual_range$[ebp]
  004a1	0f 2f 45 ec	 comiss	 xmm0, DWORD PTR _airbase_actual_range$[ebp]
  004a5	76 10		 jbe	 SHORT $LN18@response_t

; 780  : 			{
; 781  : 
; 782  : 				factory = airbase;

  004a7	8b 45 dc	 mov	 eax, DWORD PTR _airbase$[ebp]
  004aa	89 45 d8	 mov	 DWORD PTR _factory$[ebp], eax

; 783  : 
; 784  : 				factory_actual_range = airbase_actual_range;

  004ad	f3 0f 10 45 ec	 movss	 xmm0, DWORD PTR _airbase_actual_range$[ebp]
  004b2	f3 0f 11 45 f0	 movss	 DWORD PTR _factory_actual_range$[ebp], xmm0
$LN18@response_t:
$LN4@response_t:

; 785  : 			}
; 786  : 
; 787  : 			break;
; 788  : 		}
; 789  : 	}
; 790  : 
; 791  : 	if (factory)

  004b7	83 7d d8 00	 cmp	 DWORD PTR _factory$[ebp], 0
  004bb	0f 84 d9 01 00
	00		 je	 $LN19@response_t

; 792  : 	{
; 793  : 
; 794  : 		//
; 795  : 		// Get exact cargo to be picked up
; 796  : 		//
; 797  : 
; 798  : 		cargo = get_local_entity_first_child (factory, LIST_TYPE_CARGO);

  004c1	83 7d d8 00	 cmp	 DWORD PTR _factory$[ebp], 0
  004c5	74 0a		 je	 SHORT $LN49@response_t
  004c7	8b 45 d8	 mov	 eax, DWORD PTR _factory$[ebp]
  004ca	8b 08		 mov	 ecx, DWORD PTR [eax]
  004cc	89 4d 94	 mov	 DWORD PTR tv281[ebp], ecx
  004cf	eb 24		 jmp	 SHORT $LN50@response_t
$LN49@response_t:
  004d1	8b 15 00 00 00
	00		 mov	 edx, DWORD PTR ?__LINE__Var@?0??response_to_force_low_on_supplies@@YGHW4ENTITY_MESSAGES@@PAUENTITY@@1PAD@Z@4JA
  004d7	81 c2 8b 00 00
	00		 add	 edx, 139		; 0000008bH
  004dd	52		 push	 edx
  004de	68 00 00 00 00	 push	 OFFSET ??_C@_0EL@MMNLIBAL@c?3?2users?2nhv90?2projects?2eech?2ap@
  004e3	a1 00 00 00 00	 mov	 eax, DWORD PTR ?null_entity_pointer_message@@3PBDB ; null_entity_pointer_message
  004e8	50		 push	 eax
  004e9	e8 00 00 00 00	 call	 ?process_assert@@YGXPBD0H@Z ; process_assert
  004ee	c7 45 94 00 00
	00 00		 mov	 DWORD PTR tv281[ebp], 0
$LN50@response_t:
  004f5	b9 01 00 00 00	 mov	 ecx, 1
  004fa	85 c9		 test	 ecx, ecx
  004fc	74 09		 je	 SHORT $LN51@response_t
  004fe	c7 45 90 06 00
	00 00		 mov	 DWORD PTR tv289[ebp], 6
  00505	eb 24		 jmp	 SHORT $LN52@response_t
$LN51@response_t:
  00507	8b 15 00 00 00
	00		 mov	 edx, DWORD PTR ?__LINE__Var@?0??response_to_force_low_on_supplies@@YGHW4ENTITY_MESSAGES@@PAUENTITY@@1PAD@Z@4JA
  0050d	81 c2 8b 00 00
	00		 add	 edx, 139		; 0000008bH
  00513	52		 push	 edx
  00514	68 00 00 00 00	 push	 OFFSET ??_C@_0EL@MMNLIBAL@c?3?2users?2nhv90?2projects?2eech?2ap@
  00519	a1 00 00 00 00	 mov	 eax, DWORD PTR ?overload_invalid_list_type_message@@3PBDB ; overload_invalid_list_type_message
  0051e	50		 push	 eax
  0051f	e8 00 00 00 00	 call	 ?process_assert@@YGXPBD0H@Z ; process_assert
  00524	c7 45 90 00 00
	00 00		 mov	 DWORD PTR tv289[ebp], 0
$LN52@response_t:
  0052b	6a 06		 push	 6
  0052d	8b 4d d8	 mov	 ecx, DWORD PTR _factory$[ebp]
  00530	51		 push	 ecx
  00531	69 55 94 b4 00
	00 00		 imul	 edx, DWORD PTR tv281[ebp], 180
  00538	8b 45 90	 mov	 eax, DWORD PTR tv289[ebp]
  0053b	8b 8c 82 00 00
	00 00		 mov	 ecx, DWORD PTR ?fn_get_local_entity_first_child@@3PAY0CN@P6GPAUENTITY@@PAU1@W4LIST_TYPES@@@ZA[edx+eax*4]
  00542	ff d1		 call	 ecx
  00544	89 45 e0	 mov	 DWORD PTR _cargo$[ebp], eax
$LN6@response_t:

; 799  : 
; 800  : 		while (cargo)

  00547	83 7d e0 00	 cmp	 DWORD PTR _cargo$[ebp], 0
  0054b	0f 84 0a 01 00
	00		 je	 $LN7@response_t

; 801  : 		{
; 802  : 
; 803  : 			if (get_local_entity_int_value (cargo, INT_TYPE_ENTITY_SUB_TYPE) == sub_type)

  00551	83 7d e0 00	 cmp	 DWORD PTR _cargo$[ebp], 0
  00555	74 0a		 je	 SHORT $LN53@response_t
  00557	8b 45 e0	 mov	 eax, DWORD PTR _cargo$[ebp]
  0055a	8b 08		 mov	 ecx, DWORD PTR [eax]
  0055c	89 4d 94	 mov	 DWORD PTR tv301[ebp], ecx
  0055f	eb 1d		 jmp	 SHORT $LN54@response_t
$LN53@response_t:
  00561	68 23 03 00 00	 push	 803			; 00000323H
  00566	68 00 00 00 00	 push	 OFFSET ??_C@_0EL@MMNLIBAL@c?3?2users?2nhv90?2projects?2eech?2ap@
  0056b	8b 15 00 00 00
	00		 mov	 edx, DWORD PTR ?null_entity_pointer_message@@3PBDB ; null_entity_pointer_message
  00571	52		 push	 edx
  00572	e8 00 00 00 00	 call	 ?process_assert@@YGXPBD0H@Z ; process_assert
  00577	c7 45 94 00 00
	00 00		 mov	 DWORD PTR tv301[ebp], 0
$LN54@response_t:
  0057e	b8 01 00 00 00	 mov	 eax, 1
  00583	85 c0		 test	 eax, eax
  00585	74 09		 je	 SHORT $LN55@response_t
  00587	c7 45 90 34 00
	00 00		 mov	 DWORD PTR tv308[ebp], 52 ; 00000034H
  0058e	eb 1d		 jmp	 SHORT $LN56@response_t
$LN55@response_t:
  00590	68 23 03 00 00	 push	 803			; 00000323H
  00595	68 00 00 00 00	 push	 OFFSET ??_C@_0EL@MMNLIBAL@c?3?2users?2nhv90?2projects?2eech?2ap@
  0059a	8b 0d 00 00 00
	00		 mov	 ecx, DWORD PTR ?overload_invalid_int_type_message@@3PBDB ; overload_invalid_int_type_message
  005a0	51		 push	 ecx
  005a1	e8 00 00 00 00	 call	 ?process_assert@@YGXPBD0H@Z ; process_assert
  005a6	c7 45 90 00 00
	00 00		 mov	 DWORD PTR tv308[ebp], 0
$LN56@response_t:
  005ad	6a 34		 push	 52			; 00000034H
  005af	8b 55 e0	 mov	 edx, DWORD PTR _cargo$[ebp]
  005b2	52		 push	 edx
  005b3	69 45 94 5c 04
	00 00		 imul	 eax, DWORD PTR tv301[ebp], 1116
  005ba	8b 4d 90	 mov	 ecx, DWORD PTR tv308[ebp]
  005bd	8b 94 88 00 00
	00 00		 mov	 edx, DWORD PTR ?fn_get_local_entity_int_value@@3PAY0BBH@P6GHPAUENTITY@@W4INT_TYPES@@@ZA[eax+ecx*4]
  005c4	ff d2		 call	 edx
  005c6	3b 45 f4	 cmp	 eax, DWORD PTR _sub_type$[ebp]
  005c9	75 05		 jne	 SHORT $LN21@response_t

; 804  : 			{
; 805  : 
; 806  : 				break;

  005cb	e9 8b 00 00 00	 jmp	 $LN7@response_t
$LN21@response_t:

; 807  : 			}
; 808  : 
; 809  : 			cargo = get_local_entity_child_succ (cargo, LIST_TYPE_CARGO);

  005d0	83 7d e0 00	 cmp	 DWORD PTR _cargo$[ebp], 0
  005d4	74 0a		 je	 SHORT $LN57@response_t
  005d6	8b 45 e0	 mov	 eax, DWORD PTR _cargo$[ebp]
  005d9	8b 08		 mov	 ecx, DWORD PTR [eax]
  005db	89 4d 94	 mov	 DWORD PTR tv321[ebp], ecx
  005de	eb 24		 jmp	 SHORT $LN58@response_t
$LN57@response_t:
  005e0	8b 15 00 00 00
	00		 mov	 edx, DWORD PTR ?__LINE__Var@?0??response_to_force_low_on_supplies@@YGHW4ENTITY_MESSAGES@@PAUENTITY@@1PAD@Z@4JA
  005e6	81 c2 96 00 00
	00		 add	 edx, 150		; 00000096H
  005ec	52		 push	 edx
  005ed	68 00 00 00 00	 push	 OFFSET ??_C@_0EL@MMNLIBAL@c?3?2users?2nhv90?2projects?2eech?2ap@
  005f2	a1 00 00 00 00	 mov	 eax, DWORD PTR ?null_entity_pointer_message@@3PBDB ; null_entity_pointer_message
  005f7	50		 push	 eax
  005f8	e8 00 00 00 00	 call	 ?process_assert@@YGXPBD0H@Z ; process_assert
  005fd	c7 45 94 00 00
	00 00		 mov	 DWORD PTR tv321[ebp], 0
$LN58@response_t:
  00604	b9 01 00 00 00	 mov	 ecx, 1
  00609	85 c9		 test	 ecx, ecx
  0060b	74 09		 je	 SHORT $LN59@response_t
  0060d	c7 45 90 06 00
	00 00		 mov	 DWORD PTR tv329[ebp], 6
  00614	eb 24		 jmp	 SHORT $LN60@response_t
$LN59@response_t:
  00616	8b 15 00 00 00
	00		 mov	 edx, DWORD PTR ?__LINE__Var@?0??response_to_force_low_on_supplies@@YGHW4ENTITY_MESSAGES@@PAUENTITY@@1PAD@Z@4JA
  0061c	81 c2 96 00 00
	00		 add	 edx, 150		; 00000096H
  00622	52		 push	 edx
  00623	68 00 00 00 00	 push	 OFFSET ??_C@_0EL@MMNLIBAL@c?3?2users?2nhv90?2projects?2eech?2ap@
  00628	a1 00 00 00 00	 mov	 eax, DWORD PTR ?overload_invalid_list_type_message@@3PBDB ; overload_invalid_list_type_message
  0062d	50		 push	 eax
  0062e	e8 00 00 00 00	 call	 ?process_assert@@YGXPBD0H@Z ; process_assert
  00633	c7 45 90 00 00
	00 00		 mov	 DWORD PTR tv329[ebp], 0
$LN60@response_t:
  0063a	6a 06		 push	 6
  0063c	8b 4d e0	 mov	 ecx, DWORD PTR _cargo$[ebp]
  0063f	51		 push	 ecx
  00640	69 55 94 b4 00
	00 00		 imul	 edx, DWORD PTR tv321[ebp], 180
  00647	8b 45 90	 mov	 eax, DWORD PTR tv329[ebp]
  0064a	8b 8c 82 00 00
	00 00		 mov	 ecx, DWORD PTR ?fn_get_local_entity_child_succ@@3PAY0CN@P6GPAUENTITY@@PAU1@W4LIST_TYPES@@@ZA[edx+eax*4]
  00651	ff d1		 call	 ecx
  00653	89 45 e0	 mov	 DWORD PTR _cargo$[ebp], eax

; 810  : 		}

  00656	e9 ec fe ff ff	 jmp	 $LN6@response_t
$LN7@response_t:

; 811  : 
; 812  : 		if (cargo)

  0065b	83 7d e0 00	 cmp	 DWORD PTR _cargo$[ebp], 0
  0065f	74 39		 je	 SHORT $LN22@response_t

; 813  : 		{
; 814  : 	
; 815  : 			//
; 816  : 			// create task
; 817  : 			//
; 818  : /*
; 819  : 			if (factory_actual_range > 75 * KILOMETRE)
; 820  : 			{
; 821  : 
; 822  : 				#if DEBUG_MODULE || DEBUG_SUPPLY
; 823  : 
; 824  : 				debug_log ("FC_MSGS: SUPPLY_INFO: keysite/group %s too far to re-supply %s.... ", get_local_entity_string (factory, STRING_TYPE_KEYSITE_NAME), get_local_entity_string (sender, STRING_TYPE_FULL_NAME));
; 825  : 
; 826  : 				#endif
; 827  : 		
; 828  : 				return (FALSE);
; 829  : 			}
; 830  : 			else */
; 831  : 
; 832  : 			movement_type = MOVEMENT_TYPE_AIR;

  00661	c7 45 f8 01 00
	00 00		 mov	 DWORD PTR _movement_type$[ebp], 1

; 833  : 
; 834  : 			task = create_supply_task (sender, factory, cargo, movement_type, task_database [ENTITY_SUB_TYPE_TASK_SUPPLY].task_priority, NULL, NULL);

  00668	6a 00		 push	 0
  0066a	6a 00		 push	 0
  0066c	b8 50 00 00 00	 mov	 eax, 80			; 00000050H
  00671	6b c8 15	 imul	 ecx, eax, 21
  00674	51		 push	 ecx
  00675	f3 0f 10 81 10
	00 00 00	 movss	 xmm0, DWORD PTR ?task_database@@3PAUTASK_DATA@@A[ecx+16]
  0067d	f3 0f 11 04 24	 movss	 DWORD PTR [esp], xmm0
  00682	8b 55 f8	 mov	 edx, DWORD PTR _movement_type$[ebp]
  00685	52		 push	 edx
  00686	8b 45 e0	 mov	 eax, DWORD PTR _cargo$[ebp]
  00689	50		 push	 eax
  0068a	8b 4d d8	 mov	 ecx, DWORD PTR _factory$[ebp]
  0068d	51		 push	 ecx
  0068e	8b 55 10	 mov	 edx, DWORD PTR _sender$[ebp]
  00691	52		 push	 edx
  00692	e8 00 00 00 00	 call	 ?create_supply_task@@YGPAUENTITY@@PAU1@00W4MOVEMENT_TYPES@@M00@Z ; create_supply_task
  00697	89 45 e4	 mov	 DWORD PTR _task$[ebp], eax
$LN22@response_t:
$LN19@response_t:

; 835  : 	
; 836  : 			#if DEBUG_MODULE || DEBUG_SUPPLY
; 837  : 
; 838  : 			if (task)
; 839  : 			{
; 840  : 		
; 841  : 				debug_log ("FC_MSGS(%s): SUPPLY_INFO: creating %s (%d) pick up and drop off task for keysite %s (%d), range %f",
; 842  : 								entity_side_names [get_local_entity_int_value (receiver, INT_TYPE_SIDE)],
; 843  : 								movement_names [movement_type],
; 844  : 								get_local_entity_index (task),
; 845  : 								get_local_entity_string (sender, STRING_TYPE_FULL_NAME),
; 846  : 								get_local_entity_index (sender),
; 847  : 								factory_actual_range);
; 848  : 			}
; 849  : 	
; 850  : 			#endif
; 851  : 		}
; 852  : 		else
; 853  : 		{
; 854  : 	
; 855  : 			#if DEBUG_MODULE || DEBUG_SUPPLY
; 856  : 	
; 857  : 			debug_log ("FC_MSGS(%s): SUPPLY_INFO: cannot locate cargo at factory to supply keysite %s",
; 858  : 							entity_side_names [get_local_entity_int_value (receiver, INT_TYPE_SIDE)],
; 859  : 							get_local_entity_string (sender, STRING_TYPE_FULL_NAME));
; 860  : 							//entity_sub_type_keysite_names [get_local_entity_int_value (sender, INT_TYPE_ENTITY_SUB_TYPE)]);
; 861  : 	
; 862  : 			#endif
; 863  : 		}
; 864  : 	}
; 865  : 	else
; 866  : 	{
; 867  : 
; 868  : 		#if DEBUG_MODULE || DEBUG_SUPPLY
; 869  : 
; 870  : 		debug_log ("FC_MSGS(%s): SUPPLY_INFO: cannot locate factory to supply keysite %s",
; 871  : 						entity_side_names [get_local_entity_int_value (receiver, INT_TYPE_SIDE)],
; 872  : 						get_local_entity_string (sender, STRING_TYPE_FULL_NAME));
; 873  : 
; 874  : 		#endif
; 875  : 	}
; 876  : 
; 877  : 	return (TRUE);

  0069a	b8 01 00 00 00	 mov	 eax, 1
$LN1@response_t:

; 878  : }

  0069f	5f		 pop	 edi
  006a0	5e		 pop	 esi
  006a1	5b		 pop	 ebx
  006a2	8b e5		 mov	 esp, ebp
  006a4	5d		 pop	 ebp
  006a5	c2 10 00	 ret	 16			; 00000010H
?response_to_force_low_on_supplies@@YGHW4ENTITY_MESSAGES@@PAUENTITY@@1PAD@Z ENDP ; response_to_force_low_on_supplies
_TEXT	ENDS
; Function compile flags: /Odtp /ZI
; File c:\users\nhv90\projects\eech\aphavoc\source\entity\special\force\fc_msgs.c
;	COMDAT ?response_to_force_inefficient_keysite@@YGHW4ENTITY_MESSAGES@@PAUENTITY@@1PAD@Z
_TEXT	SEGMENT
_message$ = 8						; size = 4
_receiver$ = 12						; size = 4
_sender$ = 16						; size = 4
_pargs$ = 20						; size = 4
?response_to_force_inefficient_keysite@@YGHW4ENTITY_MESSAGES@@PAUENTITY@@1PAD@Z PROC ; response_to_force_inefficient_keysite, COMDAT

; 600  : {

  00000	55		 push	 ebp
  00001	8b ec		 mov	 ebp, esp
  00003	83 ec 40	 sub	 esp, 64			; 00000040H
  00006	53		 push	 ebx
  00007	56		 push	 esi
  00008	57		 push	 edi

; 601  : 
; 602  : 	//campaign_criteria
; 603  : 		//criteria;
; 604  : 
; 605  : 	//campaign_criteria_type
; 606  : 		//*campaign_criteria;
; 607  : 
; 608  : 	if ((get_game_status () != GAME_STATUS_INITIALISED) || (get_comms_model () == COMMS_MODEL_CLIENT))

  00009	83 3d 00 00 00
	00 03		 cmp	 DWORD PTR ?game_status@@3W4GAME_STATUS_TYPES@@A, 3 ; game_status
  00010	75 09		 jne	 SHORT $LN3@response_t
  00012	83 3d 00 00 00
	00 01		 cmp	 DWORD PTR ?system_comms_model@@3W4COMMS_MODEL_TYPES@@A, 1 ; system_comms_model
  00019	75 04		 jne	 SHORT $LN2@response_t
$LN3@response_t:

; 609  : 	{
; 610  : 
; 611  : 		return (FALSE);

  0001b	33 c0		 xor	 eax, eax
  0001d	eb 05		 jmp	 SHORT $LN1@response_t
$LN2@response_t:

; 612  : 	}
; 613  : 
; 614  : 	#if DEBUG_MODULE
; 615  : 
; 616  : 	debug_log ("FC_MSGS: allied keysite %s inefficient", get_local_entity_string (sender, STRING_TYPE_KEYSITE_NAME));
; 617  : 
; 618  : 	#endif
; 619  : 	
; 620  : 	//////////////////////////////////////////////////////////////////////////
; 621  : /*
; 622  : 	if (get_local_entity_int_value (receiver, INT_TYPE_SIDE) == get_local_entity_int_value (sender, INT_TYPE_SIDE))
; 623  : 	{
; 624  : 
; 625  : 		criteria = CAMPAIGN_CRITERIA_INEFFICIENT_ALLIED_KEYSITES;
; 626  : 	}
; 627  : 	else
; 628  : 	{
; 629  : 
; 630  : 		criteria = CAMPAIGN_CRITERIA_INEFFICIENT_ENEMY_KEYSITES;
; 631  : 	}
; 632  : 
; 633  : 	campaign_criteria = get_force_campaign_criteria (receiver, criteria, -1);
; 634  : 
; 635  : 	if (campaign_criteria)
; 636  : 	{
; 637  : 	
; 638  : 		campaign_criteria->count ++;
; 639  : 	}
; 640  : */
; 641  : 	//////////////////////////////////////////////////////////////////////////
; 642  : 
; 643  : 	//
; 644  : 	// RETALIATION
; 645  : 	//
; 646  : 
; 647  : 	//
; 648  : 	//
; 649  : 	//
; 650  : 
; 651  : 	return (TRUE);

  0001f	b8 01 00 00 00	 mov	 eax, 1
$LN1@response_t:

; 652  : }

  00024	5f		 pop	 edi
  00025	5e		 pop	 esi
  00026	5b		 pop	 ebx
  00027	8b e5		 mov	 esp, ebp
  00029	5d		 pop	 ebp
  0002a	c2 10 00	 ret	 16			; 00000010H
?response_to_force_inefficient_keysite@@YGHW4ENTITY_MESSAGES@@PAUENTITY@@1PAD@Z ENDP ; response_to_force_inefficient_keysite
_TEXT	ENDS
; Function compile flags: /Odtp /ZI
; File c:\users\nhv90\projects\eech\aphavoc\source\entity\special\force\fc_msgs.c
;	COMDAT ?response_to_force_entered_sector@@YGHW4ENTITY_MESSAGES@@PAUENTITY@@1PAD@Z
_TEXT	SEGMENT
tv82 = -80						; size = 4
tv74 = -76						; size = 4
_side$ = -8						; size = 4
_sector_en$ = -4					; size = 4
_message$ = 8						; size = 4
_receiver$ = 12						; size = 4
_sender$ = 16						; size = 4
_pargs$ = 20						; size = 4
?response_to_force_entered_sector@@YGHW4ENTITY_MESSAGES@@PAUENTITY@@1PAD@Z PROC ; response_to_force_entered_sector, COMDAT

; 569  : {

  00000	55		 push	 ebp
  00001	8b ec		 mov	 ebp, esp
  00003	83 ec 50	 sub	 esp, 80			; 00000050H
  00006	53		 push	 ebx
  00007	56		 push	 esi
  00008	57		 push	 edi

; 570  : 	entity
; 571  : 		*sector_en;
; 572  : 
; 573  : 	int
; 574  : 		side;
; 575  : 
; 576  : 	if ((get_game_status () != GAME_STATUS_INITIALISED) || (get_comms_model () == COMMS_MODEL_CLIENT))

  00009	83 3d 00 00 00
	00 03		 cmp	 DWORD PTR ?game_status@@3W4GAME_STATUS_TYPES@@A, 3 ; game_status
  00010	75 09		 jne	 SHORT $LN3@response_t
  00012	83 3d 00 00 00
	00 01		 cmp	 DWORD PTR ?system_comms_model@@3W4COMMS_MODEL_TYPES@@A, 1 ; system_comms_model
  00019	75 07		 jne	 SHORT $LN2@response_t
$LN3@response_t:

; 577  : 	{
; 578  : 
; 579  : 		return (FALSE);

  0001b	33 c0		 xor	 eax, eax
  0001d	e9 9a 00 00 00	 jmp	 $LN1@response_t
$LN2@response_t:

; 580  : 	}
; 581  : 
; 582  : 	sector_en = va_arg (pargs, entity *);

  00022	8b 45 14	 mov	 eax, DWORD PTR _pargs$[ebp]
  00025	83 c0 04	 add	 eax, 4
  00028	89 45 14	 mov	 DWORD PTR _pargs$[ebp], eax
  0002b	8b 4d 14	 mov	 ecx, DWORD PTR _pargs$[ebp]
  0002e	8b 51 fc	 mov	 edx, DWORD PTR [ecx-4]
  00031	89 55 fc	 mov	 DWORD PTR _sector_en$[ebp], edx

; 583  : 
; 584  : 	side = get_local_entity_int_value (receiver, INT_TYPE_SIDE);

  00034	83 7d 0c 00	 cmp	 DWORD PTR _receiver$[ebp], 0
  00038	74 0a		 je	 SHORT $LN5@response_t
  0003a	8b 45 0c	 mov	 eax, DWORD PTR _receiver$[ebp]
  0003d	8b 08		 mov	 ecx, DWORD PTR [eax]
  0003f	89 4d b4	 mov	 DWORD PTR tv74[ebp], ecx
  00042	eb 21		 jmp	 SHORT $LN6@response_t
$LN5@response_t:
  00044	8b 15 00 00 00
	00		 mov	 edx, DWORD PTR ?__LINE__Var@?0??response_to_force_entered_sector@@YGHW4ENTITY_MESSAGES@@PAUENTITY@@1PAD@Z@4JA
  0004a	83 c2 0f	 add	 edx, 15			; 0000000fH
  0004d	52		 push	 edx
  0004e	68 00 00 00 00	 push	 OFFSET ??_C@_0EL@MMNLIBAL@c?3?2users?2nhv90?2projects?2eech?2ap@
  00053	a1 00 00 00 00	 mov	 eax, DWORD PTR ?null_entity_pointer_message@@3PBDB ; null_entity_pointer_message
  00058	50		 push	 eax
  00059	e8 00 00 00 00	 call	 ?process_assert@@YGXPBD0H@Z ; process_assert
  0005e	c7 45 b4 00 00
	00 00		 mov	 DWORD PTR tv74[ebp], 0
$LN6@response_t:
  00065	b9 01 00 00 00	 mov	 ecx, 1
  0006a	85 c9		 test	 ecx, ecx
  0006c	74 09		 je	 SHORT $LN7@response_t
  0006e	c7 45 b0 bb 00
	00 00		 mov	 DWORD PTR tv82[ebp], 187 ; 000000bbH
  00075	eb 21		 jmp	 SHORT $LN8@response_t
$LN7@response_t:
  00077	8b 15 00 00 00
	00		 mov	 edx, DWORD PTR ?__LINE__Var@?0??response_to_force_entered_sector@@YGHW4ENTITY_MESSAGES@@PAUENTITY@@1PAD@Z@4JA
  0007d	83 c2 0f	 add	 edx, 15			; 0000000fH
  00080	52		 push	 edx
  00081	68 00 00 00 00	 push	 OFFSET ??_C@_0EL@MMNLIBAL@c?3?2users?2nhv90?2projects?2eech?2ap@
  00086	a1 00 00 00 00	 mov	 eax, DWORD PTR ?overload_invalid_int_type_message@@3PBDB ; overload_invalid_int_type_message
  0008b	50		 push	 eax
  0008c	e8 00 00 00 00	 call	 ?process_assert@@YGXPBD0H@Z ; process_assert
  00091	c7 45 b0 00 00
	00 00		 mov	 DWORD PTR tv82[ebp], 0
$LN8@response_t:
  00098	68 bb 00 00 00	 push	 187			; 000000bbH
  0009d	8b 4d 0c	 mov	 ecx, DWORD PTR _receiver$[ebp]
  000a0	51		 push	 ecx
  000a1	69 55 b4 5c 04
	00 00		 imul	 edx, DWORD PTR tv74[ebp], 1116
  000a8	8b 45 b0	 mov	 eax, DWORD PTR tv82[ebp]
  000ab	8b 8c 82 00 00
	00 00		 mov	 ecx, DWORD PTR ?fn_get_local_entity_int_value@@3PAY0BBH@P6GHPAUENTITY@@W4INT_TYPES@@@ZA[edx+eax*4]
  000b2	ff d1		 call	 ecx
  000b4	89 45 f8	 mov	 DWORD PTR _side$[ebp], eax

; 585  : 
; 586  : 	#if DEBUG_MODULE
; 587  : 		
; 588  : 	debug_log ("FC_MSGS(%s): allied entity %s entered enemy sector", entity_side_names [side], get_local_entity_string (sender, STRING_TYPE_FULL_NAME));
; 589  : 	
; 590  : 	#endif
; 591  : 	
; 592  : 	return (TRUE);

  000b7	b8 01 00 00 00	 mov	 eax, 1
$LN1@response_t:

; 593  : }

  000bc	5f		 pop	 edi
  000bd	5e		 pop	 esi
  000be	5b		 pop	 ebx
  000bf	8b e5		 mov	 esp, ebp
  000c1	5d		 pop	 ebp
  000c2	c2 10 00	 ret	 16			; 00000010H
?response_to_force_entered_sector@@YGHW4ENTITY_MESSAGES@@PAUENTITY@@1PAD@Z ENDP ; response_to_force_entered_sector
_TEXT	ENDS
; Function compile flags: /Odtp /ZI
; File c:\users\nhv90\projects\eech\aphavoc\source\entity\special\force\fc_msgs.c
;	COMDAT ?response_to_force_destroyed@@YGHW4ENTITY_MESSAGES@@PAUENTITY@@1PAD@Z
_TEXT	SEGMENT
tv83 = -84						; size = 4
tv75 = -80						; size = 4
_sub_type$ = -12					; size = 4
_enemy_entity$ = -8					; size = 4
_force_raw$ = -4					; size = 4
_message$ = 8						; size = 4
_receiver$ = 12						; size = 4
_sender$ = 16						; size = 4
_pargs$ = 20						; size = 4
?response_to_force_destroyed@@YGHW4ENTITY_MESSAGES@@PAUENTITY@@1PAD@Z PROC ; response_to_force_destroyed, COMDAT

; 497  : {

  00000	55		 push	 ebp
  00001	8b ec		 mov	 ebp, esp
  00003	83 ec 54	 sub	 esp, 84			; 00000054H
  00006	53		 push	 ebx
  00007	56		 push	 esi
  00008	57		 push	 edi

; 498  : 
; 499  : 	force
; 500  : 		*force_raw;
; 501  : 
; 502  : 	entity
; 503  : 		*enemy_entity;
; 504  : 
; 505  : 	//campaign_criteria
; 506  : 		//criteria;
; 507  : 
; 508  : 	//campaign_criteria_type
; 509  : 		//*campaign_criteria;
; 510  : 
; 511  : 	int
; 512  : 		sub_type;
; 513  : 
; 514  : 	if ((get_game_status () != GAME_STATUS_INITIALISED) || (get_comms_model () == COMMS_MODEL_CLIENT))

  00009	83 3d 00 00 00
	00 03		 cmp	 DWORD PTR ?game_status@@3W4GAME_STATUS_TYPES@@A, 3 ; game_status
  00010	75 09		 jne	 SHORT $LN3@response_t
  00012	83 3d 00 00 00
	00 01		 cmp	 DWORD PTR ?system_comms_model@@3W4COMMS_MODEL_TYPES@@A, 1 ; system_comms_model
  00019	75 07		 jne	 SHORT $LN2@response_t
$LN3@response_t:

; 515  : 	{
; 516  : 
; 517  : 		return FALSE;

  0001b	33 c0		 xor	 eax, eax
  0001d	e9 a3 00 00 00	 jmp	 $LN1@response_t
$LN2@response_t:

; 518  : 		//debug_fatal ("FC_MSGS: client not allowed here");
; 519  : 	}
; 520  : 
; 521  : 	force_raw = (force *) get_local_entity_data (receiver);

  00022	8b 45 0c	 mov	 eax, DWORD PTR _receiver$[ebp]
  00025	8b 48 04	 mov	 ecx, DWORD PTR [eax+4]
  00028	89 4d fc	 mov	 DWORD PTR _force_raw$[ebp], ecx

; 522  : 
; 523  : 	#if DEBUG_MODULE
; 524  : 	
; 525  : 	debug_log ("FC_MSGS(%s): allied entity %s destroyed", entity_side_names [get_local_entity_int_value (receiver, INT_TYPE_SIDE)], entity_type_names [sender->type]);
; 526  : 
; 527  : 	#endif
; 528  : 
; 529  : 	enemy_entity = va_arg (pargs, entity *);

  0002b	8b 45 14	 mov	 eax, DWORD PTR _pargs$[ebp]
  0002e	83 c0 04	 add	 eax, 4
  00031	89 45 14	 mov	 DWORD PTR _pargs$[ebp], eax
  00034	8b 4d 14	 mov	 ecx, DWORD PTR _pargs$[ebp]
  00037	8b 51 fc	 mov	 edx, DWORD PTR [ecx-4]
  0003a	89 55 f8	 mov	 DWORD PTR _enemy_entity$[ebp], edx

; 530  : 
; 531  : 	sub_type = get_local_entity_int_value (sender, INT_TYPE_OBJECT_3D_SHAPE);

  0003d	83 7d 10 00	 cmp	 DWORD PTR _sender$[ebp], 0
  00041	74 0a		 je	 SHORT $LN5@response_t
  00043	8b 45 10	 mov	 eax, DWORD PTR _sender$[ebp]
  00046	8b 08		 mov	 ecx, DWORD PTR [eax]
  00048	89 4d b0	 mov	 DWORD PTR tv75[ebp], ecx
  0004b	eb 21		 jmp	 SHORT $LN6@response_t
$LN5@response_t:
  0004d	8b 15 00 00 00
	00		 mov	 edx, DWORD PTR ?__LINE__Var@?0??response_to_force_destroyed@@YGHW4ENTITY_MESSAGES@@PAUENTITY@@1PAD@Z@4JA
  00053	83 c2 22	 add	 edx, 34			; 00000022H
  00056	52		 push	 edx
  00057	68 00 00 00 00	 push	 OFFSET ??_C@_0EL@MMNLIBAL@c?3?2users?2nhv90?2projects?2eech?2ap@
  0005c	a1 00 00 00 00	 mov	 eax, DWORD PTR ?null_entity_pointer_message@@3PBDB ; null_entity_pointer_message
  00061	50		 push	 eax
  00062	e8 00 00 00 00	 call	 ?process_assert@@YGXPBD0H@Z ; process_assert
  00067	c7 45 b0 00 00
	00 00		 mov	 DWORD PTR tv75[ebp], 0
$LN6@response_t:
  0006e	b9 01 00 00 00	 mov	 ecx, 1
  00073	85 c9		 test	 ecx, ecx
  00075	74 09		 je	 SHORT $LN7@response_t
  00077	c7 45 ac 92 00
	00 00		 mov	 DWORD PTR tv83[ebp], 146 ; 00000092H
  0007e	eb 21		 jmp	 SHORT $LN8@response_t
$LN7@response_t:
  00080	8b 15 00 00 00
	00		 mov	 edx, DWORD PTR ?__LINE__Var@?0??response_to_force_destroyed@@YGHW4ENTITY_MESSAGES@@PAUENTITY@@1PAD@Z@4JA
  00086	83 c2 22	 add	 edx, 34			; 00000022H
  00089	52		 push	 edx
  0008a	68 00 00 00 00	 push	 OFFSET ??_C@_0EL@MMNLIBAL@c?3?2users?2nhv90?2projects?2eech?2ap@
  0008f	a1 00 00 00 00	 mov	 eax, DWORD PTR ?overload_invalid_int_type_message@@3PBDB ; overload_invalid_int_type_message
  00094	50		 push	 eax
  00095	e8 00 00 00 00	 call	 ?process_assert@@YGXPBD0H@Z ; process_assert
  0009a	c7 45 ac 00 00
	00 00		 mov	 DWORD PTR tv83[ebp], 0
$LN8@response_t:
  000a1	68 92 00 00 00	 push	 146			; 00000092H
  000a6	8b 4d 10	 mov	 ecx, DWORD PTR _sender$[ebp]
  000a9	51		 push	 ecx
  000aa	69 55 b0 5c 04
	00 00		 imul	 edx, DWORD PTR tv75[ebp], 1116
  000b1	8b 45 ac	 mov	 eax, DWORD PTR tv83[ebp]
  000b4	8b 8c 82 00 00
	00 00		 mov	 ecx, DWORD PTR ?fn_get_local_entity_int_value@@3PAY0BBH@P6GHPAUENTITY@@W4INT_TYPES@@@ZA[edx+eax*4]
  000bb	ff d1		 call	 ecx
  000bd	89 45 f4	 mov	 DWORD PTR _sub_type$[ebp], eax

; 532  : 
; 533  : 	//////////////////////////////////////////////////////////////////////////
; 534  : /*
; 535  : 	if (get_local_entity_int_value (receiver, INT_TYPE_SIDE) != get_local_entity_int_value (sender, INT_TYPE_SIDE))
; 536  : 	{
; 537  : 
; 538  : 		criteria = CAMPAIGN_CRITERIA_DESTROYED_ENEMY_OBJECTS;
; 539  : 	}
; 540  : 	else
; 541  : 	{
; 542  : 
; 543  : 		criteria = CAMPAIGN_CRITERIA_DESTROYED_ALLIED_OBJECTS;
; 544  : 	}
; 545  : 
; 546  : 	campaign_criteria = get_force_campaign_criteria (receiver, criteria, sub_type);
; 547  : 
; 548  : 	if (!campaign_criteria)
; 549  : 	{
; 550  : 
; 551  : 		campaign_criteria = get_force_campaign_criteria (receiver, criteria, OBJECT_3D_LAST);
; 552  : 	}
; 553  : 
; 554  : 	if (campaign_criteria)
; 555  : 	{
; 556  : 	
; 557  : 		campaign_criteria->count ++;
; 558  : 	}
; 559  : */
; 560  : 
; 561  : 	return (TRUE);

  000c0	b8 01 00 00 00	 mov	 eax, 1
$LN1@response_t:

; 562  : }

  000c5	5f		 pop	 edi
  000c6	5e		 pop	 esi
  000c7	5b		 pop	 ebx
  000c8	8b e5		 mov	 esp, ebp
  000ca	5d		 pop	 ebp
  000cb	c2 10 00	 ret	 16			; 00000010H
?response_to_force_destroyed@@YGHW4ENTITY_MESSAGES@@PAUENTITY@@1PAD@Z ENDP ; response_to_force_destroyed
_TEXT	ENDS
; Function compile flags: /Odtp /ZI
; File c:\users\nhv90\projects\eech\aphavoc\source\entity\special\force\fc_msgs.c
;	COMDAT ?response_to_force_armour_stuck@@YGHW4ENTITY_MESSAGES@@PAUENTITY@@1PAD@Z
_TEXT	SEGMENT
_message$ = 8						; size = 4
_receiver$ = 12						; size = 4
_sender$ = 16						; size = 4
_pargs$ = 20						; size = 4
?response_to_force_armour_stuck@@YGHW4ENTITY_MESSAGES@@PAUENTITY@@1PAD@Z PROC ; response_to_force_armour_stuck, COMDAT

; 481  : {

  00000	55		 push	 ebp
  00001	8b ec		 mov	 ebp, esp
  00003	83 ec 40	 sub	 esp, 64			; 00000040H
  00006	53		 push	 ebx
  00007	56		 push	 esi
  00008	57		 push	 edi

; 482  : 
; 483  : 	#if DEBUG_MODULE
; 484  : 	
; 485  : 	debug_log ("FC_MSGS: allied armour is stuck at node");
; 486  : 
; 487  : 	#endif
; 488  : 
; 489  : 	return (TRUE);

  00009	b8 01 00 00 00	 mov	 eax, 1

; 490  : }

  0000e	5f		 pop	 edi
  0000f	5e		 pop	 esi
  00010	5b		 pop	 ebx
  00011	8b e5		 mov	 esp, ebp
  00013	5d		 pop	 ebp
  00014	c2 10 00	 ret	 16			; 00000010H
?response_to_force_armour_stuck@@YGHW4ENTITY_MESSAGES@@PAUENTITY@@1PAD@Z ENDP ; response_to_force_armour_stuck
_TEXT	ENDS
; Function compile flags: /Odtp /ZI
; File c:\users\nhv90\projects\eech\aphavoc\source\entity\special\force\fc_msgs.c
;	COMDAT ?response_to_force_armour_retreating@@YGHW4ENTITY_MESSAGES@@PAUENTITY@@1PAD@Z
_TEXT	SEGMENT
_enemy_entity$ = -4					; size = 4
_message$ = 8						; size = 4
_receiver$ = 12						; size = 4
_sender$ = 16						; size = 4
_pargs$ = 20						; size = 4
?response_to_force_armour_retreating@@YGHW4ENTITY_MESSAGES@@PAUENTITY@@1PAD@Z PROC ; response_to_force_armour_retreating, COMDAT

; 455  : {

  00000	55		 push	 ebp
  00001	8b ec		 mov	 ebp, esp
  00003	83 ec 44	 sub	 esp, 68			; 00000044H
  00006	53		 push	 ebx
  00007	56		 push	 esi
  00008	57		 push	 edi

; 456  : 	entity
; 457  : 		*enemy_entity;
; 458  : 
; 459  : 	if ((get_game_status () != GAME_STATUS_INITIALISED) || (get_comms_model () == COMMS_MODEL_CLIENT))

  00009	83 3d 00 00 00
	00 03		 cmp	 DWORD PTR ?game_status@@3W4GAME_STATUS_TYPES@@A, 3 ; game_status
  00010	75 09		 jne	 SHORT $LN3@response_t
  00012	83 3d 00 00 00
	00 01		 cmp	 DWORD PTR ?system_comms_model@@3W4COMMS_MODEL_TYPES@@A, 1 ; system_comms_model
  00019	75 04		 jne	 SHORT $LN2@response_t
$LN3@response_t:

; 460  : 	{
; 461  : 
; 462  : 		return (FALSE);

  0001b	33 c0		 xor	 eax, eax
  0001d	eb 17		 jmp	 SHORT $LN1@response_t
$LN2@response_t:

; 463  : 	}
; 464  : 
; 465  : 	enemy_entity = va_arg (pargs, entity *);

  0001f	8b 45 14	 mov	 eax, DWORD PTR _pargs$[ebp]
  00022	83 c0 04	 add	 eax, 4
  00025	89 45 14	 mov	 DWORD PTR _pargs$[ebp], eax
  00028	8b 4d 14	 mov	 ecx, DWORD PTR _pargs$[ebp]
  0002b	8b 51 fc	 mov	 edx, DWORD PTR [ecx-4]
  0002e	89 55 fc	 mov	 DWORD PTR _enemy_entity$[ebp], edx

; 466  : 
; 467  : 	#if DEBUG_MODULE
; 468  : 
; 469  : 	debug_log ("FC_MSGS: allied armour is retreating");
; 470  : 
; 471  : 	#endif
; 472  : 
; 473  : 	return (TRUE);

  00031	b8 01 00 00 00	 mov	 eax, 1
$LN1@response_t:

; 474  : }

  00036	5f		 pop	 edi
  00037	5e		 pop	 esi
  00038	5b		 pop	 ebx
  00039	8b e5		 mov	 esp, ebp
  0003b	5d		 pop	 ebp
  0003c	c2 10 00	 ret	 16			; 00000010H
?response_to_force_armour_retreating@@YGHW4ENTITY_MESSAGES@@PAUENTITY@@1PAD@Z ENDP ; response_to_force_armour_retreating
_TEXT	ENDS
; Function compile flags: /Odtp /ZI
; File c:\users\nhv90\projects\eech\aphavoc\source\entity\special\force\fc_msgs.c
;	COMDAT ?response_to_force_armour_resisting@@YGHW4ENTITY_MESSAGES@@PAUENTITY@@1PAD@Z
_TEXT	SEGMENT
tv138 = -88						; size = 4
tv85 = -88						; size = 4
tv205 = -84						; size = 4
tv130 = -84						; size = 4
tv77 = -84						; size = 4
_threat_level$1 = -16					; size = 4
_side$2 = -12						; size = 4
_sector_en$3 = -8					; size = 4
_enemy_entity$ = -4					; size = 4
_message$ = 8						; size = 4
_receiver$ = 12						; size = 4
_sender$ = 16						; size = 4
_pargs$ = 20						; size = 4
?response_to_force_armour_resisting@@YGHW4ENTITY_MESSAGES@@PAUENTITY@@1PAD@Z PROC ; response_to_force_armour_resisting, COMDAT

; 372  : {

  00000	55		 push	 ebp
  00001	8b ec		 mov	 ebp, esp
  00003	83 ec 58	 sub	 esp, 88			; 00000058H
  00006	53		 push	 ebx
  00007	56		 push	 esi
  00008	57		 push	 edi

; 373  : 
; 374  : 	entity
; 375  : 		*enemy_entity;
; 376  : 
; 377  : 	if ((get_game_status () != GAME_STATUS_INITIALISED) || (get_comms_model () == COMMS_MODEL_CLIENT))

  00009	83 3d 00 00 00
	00 03		 cmp	 DWORD PTR ?game_status@@3W4GAME_STATUS_TYPES@@A, 3 ; game_status
  00010	75 09		 jne	 SHORT $LN3@response_t
  00012	83 3d 00 00 00
	00 01		 cmp	 DWORD PTR ?system_comms_model@@3W4COMMS_MODEL_TYPES@@A, 1 ; system_comms_model
  00019	75 07		 jne	 SHORT $LN2@response_t
$LN3@response_t:

; 378  : 	{
; 379  : 
; 380  : 		return (FALSE);

  0001b	33 c0		 xor	 eax, eax
  0001d	e9 cb 01 00 00	 jmp	 $LN1@response_t
$LN2@response_t:

; 381  : 	}
; 382  : 
; 383  : 	enemy_entity = va_arg (pargs, entity *);

  00022	8b 45 14	 mov	 eax, DWORD PTR _pargs$[ebp]
  00025	83 c0 04	 add	 eax, 4
  00028	89 45 14	 mov	 DWORD PTR _pargs$[ebp], eax
  0002b	8b 4d 14	 mov	 ecx, DWORD PTR _pargs$[ebp]
  0002e	8b 51 fc	 mov	 edx, DWORD PTR [ecx-4]
  00031	89 55 fc	 mov	 DWORD PTR _enemy_entity$[ebp], edx

; 384  : 
; 385  : 	#if DEBUG_MODULE
; 386  : 	
; 387  : 	debug_log ("FC_MSGS: allied armour is resisting");
; 388  : 
; 389  : 	#endif
; 390  : 
; 391  : 	//////////////////////////////////////////////////////////////////////////
; 392  : 
; 393  : 	//
; 394  : 	// RETALIATION
; 395  : 	//
; 396  : 
; 397  : 	if ((sender) && (enemy_entity))

  00034	83 7d 10 00	 cmp	 DWORD PTR _sender$[ebp], 0
  00038	0f 84 aa 01 00
	00		 je	 $LN5@response_t
  0003e	83 7d fc 00	 cmp	 DWORD PTR _enemy_entity$[ebp], 0
  00042	0f 84 a0 01 00
	00		 je	 $LN5@response_t

; 398  : 	{
; 399  : 	
; 400  : 		entity
; 401  : 			*sector_en;
; 402  : 
; 403  : 		entity_sides
; 404  : 			side;
; 405  : 
; 406  : 		float
; 407  : 			threat_level;			//TEMP
; 408  : 	
; 409  : 		sector_en = get_local_sector_entity (get_local_entity_vec3d_ptr (enemy_entity, VEC3D_TYPE_POSITION));

  00048	83 7d fc 00	 cmp	 DWORD PTR _enemy_entity$[ebp], 0
  0004c	74 0a		 je	 SHORT $LN7@response_t
  0004e	8b 45 fc	 mov	 eax, DWORD PTR _enemy_entity$[ebp]
  00051	8b 08		 mov	 ecx, DWORD PTR [eax]
  00053	89 4d ac	 mov	 DWORD PTR tv77[ebp], ecx
  00056	eb 21		 jmp	 SHORT $LN8@response_t
$LN7@response_t:
  00058	8b 15 00 00 00
	00		 mov	 edx, DWORD PTR ?__LINE__Var@?0??response_to_force_armour_resisting@@YGHW4ENTITY_MESSAGES@@PAUENTITY@@1PAD@Z@4JA
  0005e	83 c2 25	 add	 edx, 37			; 00000025H
  00061	52		 push	 edx
  00062	68 00 00 00 00	 push	 OFFSET ??_C@_0EL@MMNLIBAL@c?3?2users?2nhv90?2projects?2eech?2ap@
  00067	a1 00 00 00 00	 mov	 eax, DWORD PTR ?null_entity_pointer_message@@3PBDB ; null_entity_pointer_message
  0006c	50		 push	 eax
  0006d	e8 00 00 00 00	 call	 ?process_assert@@YGXPBD0H@Z ; process_assert
  00072	c7 45 ac 00 00
	00 00		 mov	 DWORD PTR tv77[ebp], 0
$LN8@response_t:
  00079	b9 01 00 00 00	 mov	 ecx, 1
  0007e	85 c9		 test	 ecx, ecx
  00080	74 09		 je	 SHORT $LN9@response_t
  00082	c7 45 a8 08 00
	00 00		 mov	 DWORD PTR tv85[ebp], 8
  00089	eb 21		 jmp	 SHORT $LN10@response_t
$LN9@response_t:
  0008b	8b 15 00 00 00
	00		 mov	 edx, DWORD PTR ?__LINE__Var@?0??response_to_force_armour_resisting@@YGHW4ENTITY_MESSAGES@@PAUENTITY@@1PAD@Z@4JA
  00091	83 c2 25	 add	 edx, 37			; 00000025H
  00094	52		 push	 edx
  00095	68 00 00 00 00	 push	 OFFSET ??_C@_0EL@MMNLIBAL@c?3?2users?2nhv90?2projects?2eech?2ap@
  0009a	a1 00 00 00 00	 mov	 eax, DWORD PTR ?overload_invalid_vec3d_type_message@@3PBDB ; overload_invalid_vec3d_type_message
  0009f	50		 push	 eax
  000a0	e8 00 00 00 00	 call	 ?process_assert@@YGXPBD0H@Z ; process_assert
  000a5	c7 45 a8 00 00
	00 00		 mov	 DWORD PTR tv85[ebp], 0
$LN10@response_t:
  000ac	6a 08		 push	 8
  000ae	8b 4d fc	 mov	 ecx, DWORD PTR _enemy_entity$[ebp]
  000b1	51		 push	 ecx
  000b2	6b 55 ac 60	 imul	 edx, DWORD PTR tv77[ebp], 96
  000b6	8b 45 a8	 mov	 eax, DWORD PTR tv85[ebp]
  000b9	8b 8c 82 00 00
	00 00		 mov	 ecx, DWORD PTR ?fn_get_local_entity_vec3d_ptr@@3PAY0BI@P6GPAUVEC3D@@PAUENTITY@@W4VEC3D_TYPES@@@ZA[edx+eax*4]
  000c0	ff d1		 call	 ecx
  000c2	50		 push	 eax
  000c3	e8 00 00 00 00	 call	 ?get_local_sector_entity@@YGPAUENTITY@@PAUVEC3D@@@Z ; get_local_sector_entity
  000c8	89 45 f8	 mov	 DWORD PTR _sector_en$3[ebp], eax

; 410  : 
; 411  : 		side = (entity_sides) get_local_entity_int_value (receiver, INT_TYPE_SIDE);

  000cb	83 7d 0c 00	 cmp	 DWORD PTR _receiver$[ebp], 0
  000cf	74 0a		 je	 SHORT $LN11@response_t
  000d1	8b 45 0c	 mov	 eax, DWORD PTR _receiver$[ebp]
  000d4	8b 08		 mov	 ecx, DWORD PTR [eax]
  000d6	89 4d ac	 mov	 DWORD PTR tv130[ebp], ecx
  000d9	eb 21		 jmp	 SHORT $LN12@response_t
$LN11@response_t:
  000db	8b 15 00 00 00
	00		 mov	 edx, DWORD PTR ?__LINE__Var@?0??response_to_force_armour_resisting@@YGHW4ENTITY_MESSAGES@@PAUENTITY@@1PAD@Z@4JA
  000e1	83 c2 27	 add	 edx, 39			; 00000027H
  000e4	52		 push	 edx
  000e5	68 00 00 00 00	 push	 OFFSET ??_C@_0EL@MMNLIBAL@c?3?2users?2nhv90?2projects?2eech?2ap@
  000ea	a1 00 00 00 00	 mov	 eax, DWORD PTR ?null_entity_pointer_message@@3PBDB ; null_entity_pointer_message
  000ef	50		 push	 eax
  000f0	e8 00 00 00 00	 call	 ?process_assert@@YGXPBD0H@Z ; process_assert
  000f5	c7 45 ac 00 00
	00 00		 mov	 DWORD PTR tv130[ebp], 0
$LN12@response_t:
  000fc	b9 01 00 00 00	 mov	 ecx, 1
  00101	85 c9		 test	 ecx, ecx
  00103	74 09		 je	 SHORT $LN13@response_t
  00105	c7 45 a8 bb 00
	00 00		 mov	 DWORD PTR tv138[ebp], 187 ; 000000bbH
  0010c	eb 21		 jmp	 SHORT $LN14@response_t
$LN13@response_t:
  0010e	8b 15 00 00 00
	00		 mov	 edx, DWORD PTR ?__LINE__Var@?0??response_to_force_armour_resisting@@YGHW4ENTITY_MESSAGES@@PAUENTITY@@1PAD@Z@4JA
  00114	83 c2 27	 add	 edx, 39			; 00000027H
  00117	52		 push	 edx
  00118	68 00 00 00 00	 push	 OFFSET ??_C@_0EL@MMNLIBAL@c?3?2users?2nhv90?2projects?2eech?2ap@
  0011d	a1 00 00 00 00	 mov	 eax, DWORD PTR ?overload_invalid_int_type_message@@3PBDB ; overload_invalid_int_type_message
  00122	50		 push	 eax
  00123	e8 00 00 00 00	 call	 ?process_assert@@YGXPBD0H@Z ; process_assert
  00128	c7 45 a8 00 00
	00 00		 mov	 DWORD PTR tv138[ebp], 0
$LN14@response_t:
  0012f	68 bb 00 00 00	 push	 187			; 000000bbH
  00134	8b 4d 0c	 mov	 ecx, DWORD PTR _receiver$[ebp]
  00137	51		 push	 ecx
  00138	69 55 ac 5c 04
	00 00		 imul	 edx, DWORD PTR tv130[ebp], 1116
  0013f	8b 45 a8	 mov	 eax, DWORD PTR tv138[ebp]
  00142	8b 8c 82 00 00
	00 00		 mov	 ecx, DWORD PTR ?fn_get_local_entity_int_value@@3PAY0BBH@P6GHPAUENTITY@@W4INT_TYPES@@@ZA[edx+eax*4]
  00149	ff d1		 call	 ecx
  0014b	89 45 f4	 mov	 DWORD PTR _side$2[ebp], eax

; 412  : 
; 413  : 		threat_level = get_local_sector_entity_enemy_surface_to_surface_defence_level (sector_en, side);

  0014e	8b 45 f4	 mov	 eax, DWORD PTR _side$2[ebp]
  00151	50		 push	 eax
  00152	8b 4d f8	 mov	 ecx, DWORD PTR _sector_en$3[ebp]
  00155	51		 push	 ecx
  00156	e8 00 00 00 00	 call	 ?get_local_sector_entity_enemy_surface_to_surface_defence_level@@YGMPAUENTITY@@W4ENTITY_SIDES@@@Z ; get_local_sector_entity_enemy_surface_to_surface_defence_level
  0015b	d9 5d f0	 fstp	 DWORD PTR _threat_level$1[ebp]

; 414  : 		threat_level += get_local_sector_entity_enemy_surface_to_air_defence_level (sector_en, side);

  0015e	8b 45 f4	 mov	 eax, DWORD PTR _side$2[ebp]
  00161	50		 push	 eax
  00162	8b 4d f8	 mov	 ecx, DWORD PTR _sector_en$3[ebp]
  00165	51		 push	 ecx
  00166	e8 00 00 00 00	 call	 ?get_local_sector_entity_enemy_surface_to_air_defence_level@@YGMPAUENTITY@@W4ENTITY_SIDES@@@Z ; get_local_sector_entity_enemy_surface_to_air_defence_level
  0016b	d9 5d ac	 fstp	 DWORD PTR tv205[ebp]
  0016e	f3 0f 10 45 ac	 movss	 xmm0, DWORD PTR tv205[ebp]
  00173	f3 0f 58 45 f0	 addss	 xmm0, DWORD PTR _threat_level$1[ebp]
  00178	f3 0f 11 45 f0	 movss	 DWORD PTR _threat_level$1[ebp], xmm0

; 415  : 
; 416  : 		if (threat_level > 0.0)	//TEMP - should never really get here if no enemy threat

  0017d	f3 0f 5a 45 f0	 cvtss2sd xmm0, DWORD PTR _threat_level$1[ebp]
  00182	66 0f 2f 05 00
	00 00 00	 comisd	 xmm0, QWORD PTR __real@0000000000000000
  0018a	76 5c		 jbe	 SHORT $LN5@response_t

; 417  : 		{
; 418  : 			// PLAY_SPEECH (GC)
; 419  : 			//
; 420  : 			// [GC Introduction],
; 421  : 			// Requesting support 
; 422  : 	
; 423  : 			play_client_server_speech

  0018c	6a ff		 push	 -1
  0018e	6a 01		 push	 1
  00190	6a 05		 push	 5
  00192	6a 00		 push	 0
  00194	6a 05		 push	 5
  00196	51		 push	 ecx
  00197	f3 0f 10 05 00
	00 00 00	 movss	 xmm0, DWORD PTR __real@bf800000
  0019f	f3 0f 11 04 24	 movss	 DWORD PTR [esp], xmm0
  001a4	6a 0b		 push	 11			; 0000000bH
  001a6	6a 06		 push	 6
  001a8	51		 push	 ecx
  001a9	f3 0f 10 05 00
	00 00 00	 movss	 xmm0, DWORD PTR __real@42700000
  001b1	f3 0f 11 04 24	 movss	 DWORD PTR [esp], xmm0
  001b6	51		 push	 ecx
  001b7	f3 0f 10 05 00
	00 00 00	 movss	 xmm0, DWORD PTR __real@3f800000
  001bf	f3 0f 11 04 24	 movss	 DWORD PTR [esp], xmm0
  001c4	51		 push	 ecx
  001c5	0f 57 c0	 xorps	 xmm0, xmm0
  001c8	f3 0f 11 04 24	 movss	 DWORD PTR [esp], xmm0
  001cd	6a 00		 push	 0
  001cf	6a 1e		 push	 30			; 0000001eH
  001d1	8b 45 f4	 mov	 eax, DWORD PTR _side$2[ebp]
  001d4	50		 push	 eax
  001d5	8b 4d 0c	 mov	 ecx, DWORD PTR _receiver$[ebp]
  001d8	51		 push	 ecx
  001d9	8b 15 00 00 00
	00		 mov	 edx, DWORD PTR ?session_entity@@3PAUENTITY@@A ; session_entity
  001df	52		 push	 edx
  001e0	e8 00 00 00 00	 call	 ?play_client_server_speech@@YAHPAUENTITY@@0W4ENTITY_SIDES@@HW4SOUND_LOCALITY_TYPES@@MMMW4speech_originator_types@@W4speech_category_types@@MZZ ; play_client_server_speech
  001e5	83 c4 40	 add	 esp, 64			; 00000040H
$LN5@response_t:

; 424  : 			(
; 425  : 				get_session_entity (),
; 426  : 				receiver,
; 427  : 				side,
; 428  : 				ENTITY_SUB_TYPE_EFFECT_SOUND_RADIO_MESSAGE,
; 429  : 				SOUND_LOCALITY_RADIO,
; 430  : 				0.0,
; 431  : 				1.0,
; 432  : 				60.0,
; 433  : 				SPEECH_ORIGINATOR_GROUND_CONTROLLER,
; 434  : 				SPEECH_CATEGORY_MOVING,
; 435  : 				-1.0,
; 436  : 				SPEECH_ARRAY_GC_MESSAGES, SPEECH_GC_INTRODUCTION,
; 437  : 				SPEECH_ARRAY_GC_MESSAGES, SPEECH_GC_REQUEST_SUPPORT_AT,
; 438  : 				-1
; 439  : 			);
; 440  : 		}
; 441  : 	}
; 442  : 
; 443  : 	//
; 444  : 	//
; 445  : 	//
; 446  : 
; 447  : 	return (TRUE);

  001e8	b8 01 00 00 00	 mov	 eax, 1
$LN1@response_t:

; 448  : }

  001ed	5f		 pop	 edi
  001ee	5e		 pop	 esi
  001ef	5b		 pop	 ebx
  001f0	8b e5		 mov	 esp, ebp
  001f2	5d		 pop	 ebp
  001f3	c2 10 00	 ret	 16			; 00000010H
?response_to_force_armour_resisting@@YGHW4ENTITY_MESSAGES@@PAUENTITY@@1PAD@Z ENDP ; response_to_force_armour_resisting
_TEXT	ENDS
; Function compile flags: /Odtp /ZI
; File c:\users\nhv90\projects\eech\aphavoc\source\entity\special\force\fc_msgs.c
;	COMDAT ?response_to_force_armour_advancing@@YGHW4ENTITY_MESSAGES@@PAUENTITY@@1PAD@Z
_TEXT	SEGMENT
_message$ = 8						; size = 4
_receiver$ = 12						; size = 4
_sender$ = 16						; size = 4
_pargs$ = 20						; size = 4
?response_to_force_armour_advancing@@YGHW4ENTITY_MESSAGES@@PAUENTITY@@1PAD@Z PROC ; response_to_force_armour_advancing, COMDAT

; 356  : {

  00000	55		 push	 ebp
  00001	8b ec		 mov	 ebp, esp
  00003	83 ec 40	 sub	 esp, 64			; 00000040H
  00006	53		 push	 ebx
  00007	56		 push	 esi
  00008	57		 push	 edi

; 357  : 
; 358  : 	#if DEBUG_MODULE
; 359  : 	
; 360  : 	debug_log ("FC_MSGS: allied armour is advancing");
; 361  : 
; 362  : 	#endif
; 363  : 
; 364  : 	return (TRUE);

  00009	b8 01 00 00 00	 mov	 eax, 1

; 365  : }

  0000e	5f		 pop	 edi
  0000f	5e		 pop	 esi
  00010	5b		 pop	 ebx
  00011	8b e5		 mov	 esp, ebp
  00013	5d		 pop	 ebp
  00014	c2 10 00	 ret	 16			; 00000010H
?response_to_force_armour_advancing@@YGHW4ENTITY_MESSAGES@@PAUENTITY@@1PAD@Z ENDP ; response_to_force_armour_advancing
_TEXT	ENDS
; Function compile flags: /Odtp /ZI
; File c:\users\nhv90\projects\eech\aphavoc\source\entity\special\force\fc_msgs.c
;	COMDAT ?response_to_entity_fired_at@@YGHW4ENTITY_MESSAGES@@PAUENTITY@@1PAD@Z
_TEXT	SEGMENT
tv165 = -80						; size = 4
tv144 = -80						; size = 4
tv93 = -80						; size = 4
tv157 = -76						; size = 4
tv137 = -76						; size = 4
tv86 = -76						; size = 4
_group$ = -8						; size = 4
_victim$ = -4						; size = 4
_message$ = 8						; size = 4
_receiver$ = 12						; size = 4
_sender$ = 16						; size = 4
_pargs$ = 20						; size = 4
?response_to_entity_fired_at@@YGHW4ENTITY_MESSAGES@@PAUENTITY@@1PAD@Z PROC ; response_to_entity_fired_at, COMDAT

; 318  : {

  00000	55		 push	 ebp
  00001	8b ec		 mov	 ebp, esp
  00003	83 ec 50	 sub	 esp, 80			; 00000050H
  00006	53		 push	 ebx
  00007	56		 push	 esi
  00008	57		 push	 edi

; 319  : 	entity
; 320  : 		*victim,
; 321  : 		*group;
; 322  : 
; 323  : 	ASSERT (get_comms_model () == COMMS_MODEL_SERVER);

  00009	83 3d 00 00 00
	00 00		 cmp	 DWORD PTR ?system_comms_model@@3W4COMMS_MODEL_TYPES@@A, 0 ; system_comms_model
  00010	74 18		 je	 SHORT $LN2@response_t
  00012	a1 00 00 00 00	 mov	 eax, DWORD PTR ?__LINE__Var@?0??response_to_entity_fired_at@@YGHW4ENTITY_MESSAGES@@PAUENTITY@@1PAD@Z@4JA
  00017	83 c0 05	 add	 eax, 5
  0001a	50		 push	 eax
  0001b	68 00 00 00 00	 push	 OFFSET ??_C@_0EL@MMNLIBAL@c?3?2users?2nhv90?2projects?2eech?2ap@
  00020	68 00 00 00 00	 push	 OFFSET ??_C@_0CJ@DMBLBJBK@get_comms_model?5?$CI?$CJ?5?$DN?$DN?5COMMS_MOD@
  00025	e8 00 00 00 00	 call	 ?process_assert@@YGXPBD0H@Z ; process_assert
$LN2@response_t:

; 324  : 
; 325  : 	ASSERT (sender);

  0002a	83 7d 10 00	 cmp	 DWORD PTR _sender$[ebp], 0
  0002e	75 18		 jne	 SHORT $LN3@response_t
  00030	a1 00 00 00 00	 mov	 eax, DWORD PTR ?__LINE__Var@?0??response_to_entity_fired_at@@YGHW4ENTITY_MESSAGES@@PAUENTITY@@1PAD@Z@4JA
  00035	83 c0 07	 add	 eax, 7
  00038	50		 push	 eax
  00039	68 00 00 00 00	 push	 OFFSET ??_C@_0EL@MMNLIBAL@c?3?2users?2nhv90?2projects?2eech?2ap@
  0003e	68 00 00 00 00	 push	 OFFSET ??_C@_06CGHJMPBJ@sender@
  00043	e8 00 00 00 00	 call	 ?process_assert@@YGXPBD0H@Z ; process_assert
$LN3@response_t:

; 326  : 
; 327  : 	victim = va_arg (pargs, entity *);

  00048	8b 45 14	 mov	 eax, DWORD PTR _pargs$[ebp]
  0004b	83 c0 04	 add	 eax, 4
  0004e	89 45 14	 mov	 DWORD PTR _pargs$[ebp], eax
  00051	8b 4d 14	 mov	 ecx, DWORD PTR _pargs$[ebp]
  00054	8b 51 fc	 mov	 edx, DWORD PTR [ecx-4]
  00057	89 55 fc	 mov	 DWORD PTR _victim$[ebp], edx

; 328  : 
; 329  : 	ASSERT (victim);

  0005a	83 7d fc 00	 cmp	 DWORD PTR _victim$[ebp], 0
  0005e	75 18		 jne	 SHORT $LN4@response_t
  00060	a1 00 00 00 00	 mov	 eax, DWORD PTR ?__LINE__Var@?0??response_to_entity_fired_at@@YGHW4ENTITY_MESSAGES@@PAUENTITY@@1PAD@Z@4JA
  00065	83 c0 0b	 add	 eax, 11			; 0000000bH
  00068	50		 push	 eax
  00069	68 00 00 00 00	 push	 OFFSET ??_C@_0EL@MMNLIBAL@c?3?2users?2nhv90?2projects?2eech?2ap@
  0006e	68 00 00 00 00	 push	 OFFSET ??_C@_06GPEKEEBB@victim@
  00073	e8 00 00 00 00	 call	 ?process_assert@@YGXPBD0H@Z ; process_assert
$LN4@response_t:

; 330  : 
; 331  : 	if (get_local_entity_int_value (sender, INT_TYPE_ALIVE))

  00078	83 7d 10 00	 cmp	 DWORD PTR _sender$[ebp], 0
  0007c	74 0a		 je	 SHORT $LN9@response_t
  0007e	8b 45 10	 mov	 eax, DWORD PTR _sender$[ebp]
  00081	8b 08		 mov	 ecx, DWORD PTR [eax]
  00083	89 4d b4	 mov	 DWORD PTR tv86[ebp], ecx
  00086	eb 1d		 jmp	 SHORT $LN10@response_t
$LN9@response_t:
  00088	68 4b 01 00 00	 push	 331			; 0000014bH
  0008d	68 00 00 00 00	 push	 OFFSET ??_C@_0EL@MMNLIBAL@c?3?2users?2nhv90?2projects?2eech?2ap@
  00092	8b 15 00 00 00
	00		 mov	 edx, DWORD PTR ?null_entity_pointer_message@@3PBDB ; null_entity_pointer_message
  00098	52		 push	 edx
  00099	e8 00 00 00 00	 call	 ?process_assert@@YGXPBD0H@Z ; process_assert
  0009e	c7 45 b4 00 00
	00 00		 mov	 DWORD PTR tv86[ebp], 0
$LN10@response_t:
  000a5	b8 01 00 00 00	 mov	 eax, 1
  000aa	85 c0		 test	 eax, eax
  000ac	74 09		 je	 SHORT $LN11@response_t
  000ae	c7 45 b0 07 00
	00 00		 mov	 DWORD PTR tv93[ebp], 7
  000b5	eb 1d		 jmp	 SHORT $LN12@response_t
$LN11@response_t:
  000b7	68 4b 01 00 00	 push	 331			; 0000014bH
  000bc	68 00 00 00 00	 push	 OFFSET ??_C@_0EL@MMNLIBAL@c?3?2users?2nhv90?2projects?2eech?2ap@
  000c1	8b 0d 00 00 00
	00		 mov	 ecx, DWORD PTR ?overload_invalid_int_type_message@@3PBDB ; overload_invalid_int_type_message
  000c7	51		 push	 ecx
  000c8	e8 00 00 00 00	 call	 ?process_assert@@YGXPBD0H@Z ; process_assert
  000cd	c7 45 b0 00 00
	00 00		 mov	 DWORD PTR tv93[ebp], 0
$LN12@response_t:
  000d4	6a 07		 push	 7
  000d6	8b 55 10	 mov	 edx, DWORD PTR _sender$[ebp]
  000d9	52		 push	 edx
  000da	69 45 b4 5c 04
	00 00		 imul	 eax, DWORD PTR tv86[ebp], 1116
  000e1	8b 4d b0	 mov	 ecx, DWORD PTR tv93[ebp]
  000e4	8b 94 88 00 00
	00 00		 mov	 edx, DWORD PTR ?fn_get_local_entity_int_value@@3PAY0BBH@P6GHPAUENTITY@@W4INT_TYPES@@@ZA[eax+ecx*4]
  000eb	ff d2		 call	 edx
  000ed	85 c0		 test	 eax, eax
  000ef	0f 84 19 01 00
	00		 je	 $LN5@response_t

; 332  : 	{
; 333  : 		//
; 334  : 		// Only respond to MOBILE Targets (Keysites are handled elsewhere)
; 335  : 		//
; 336  : 		
; 337  : 		if (get_local_entity_int_value (victim, INT_TYPE_IDENTIFY_MOBILE))

  000f5	83 7d fc 00	 cmp	 DWORD PTR _victim$[ebp], 0
  000f9	74 0a		 je	 SHORT $LN13@response_t
  000fb	8b 45 fc	 mov	 eax, DWORD PTR _victim$[ebp]
  000fe	8b 08		 mov	 ecx, DWORD PTR [eax]
  00100	89 4d b4	 mov	 DWORD PTR tv137[ebp], ecx
  00103	eb 1d		 jmp	 SHORT $LN14@response_t
$LN13@response_t:
  00105	68 51 01 00 00	 push	 337			; 00000151H
  0010a	68 00 00 00 00	 push	 OFFSET ??_C@_0EL@MMNLIBAL@c?3?2users?2nhv90?2projects?2eech?2ap@
  0010f	8b 15 00 00 00
	00		 mov	 edx, DWORD PTR ?null_entity_pointer_message@@3PBDB ; null_entity_pointer_message
  00115	52		 push	 edx
  00116	e8 00 00 00 00	 call	 ?process_assert@@YGXPBD0H@Z ; process_assert
  0011b	c7 45 b4 00 00
	00 00		 mov	 DWORD PTR tv137[ebp], 0
$LN14@response_t:
  00122	b8 01 00 00 00	 mov	 eax, 1
  00127	85 c0		 test	 eax, eax
  00129	74 09		 je	 SHORT $LN15@response_t
  0012b	c7 45 b0 5d 00
	00 00		 mov	 DWORD PTR tv144[ebp], 93 ; 0000005dH
  00132	eb 1d		 jmp	 SHORT $LN16@response_t
$LN15@response_t:
  00134	68 51 01 00 00	 push	 337			; 00000151H
  00139	68 00 00 00 00	 push	 OFFSET ??_C@_0EL@MMNLIBAL@c?3?2users?2nhv90?2projects?2eech?2ap@
  0013e	8b 0d 00 00 00
	00		 mov	 ecx, DWORD PTR ?overload_invalid_int_type_message@@3PBDB ; overload_invalid_int_type_message
  00144	51		 push	 ecx
  00145	e8 00 00 00 00	 call	 ?process_assert@@YGXPBD0H@Z ; process_assert
  0014a	c7 45 b0 00 00
	00 00		 mov	 DWORD PTR tv144[ebp], 0
$LN16@response_t:
  00151	6a 5d		 push	 93			; 0000005dH
  00153	8b 55 fc	 mov	 edx, DWORD PTR _victim$[ebp]
  00156	52		 push	 edx
  00157	69 45 b4 5c 04
	00 00		 imul	 eax, DWORD PTR tv137[ebp], 1116
  0015e	8b 4d b0	 mov	 ecx, DWORD PTR tv144[ebp]
  00161	8b 94 88 00 00
	00 00		 mov	 edx, DWORD PTR ?fn_get_local_entity_int_value@@3PAY0BBH@P6GHPAUENTITY@@W4INT_TYPES@@@ZA[eax+ecx*4]
  00168	ff d2		 call	 edx
  0016a	85 c0		 test	 eax, eax
  0016c	0f 84 9c 00 00
	00		 je	 $LN5@response_t

; 338  : 		{
; 339  : 			group = get_local_entity_parent (victim, LIST_TYPE_MEMBER);

  00172	83 7d fc 00	 cmp	 DWORD PTR _victim$[ebp], 0
  00176	74 0a		 je	 SHORT $LN17@response_t
  00178	8b 45 fc	 mov	 eax, DWORD PTR _victim$[ebp]
  0017b	8b 08		 mov	 ecx, DWORD PTR [eax]
  0017d	89 4d b4	 mov	 DWORD PTR tv157[ebp], ecx
  00180	eb 21		 jmp	 SHORT $LN18@response_t
$LN17@response_t:
  00182	8b 15 00 00 00
	00		 mov	 edx, DWORD PTR ?__LINE__Var@?0??response_to_entity_fired_at@@YGHW4ENTITY_MESSAGES@@PAUENTITY@@1PAD@Z@4JA
  00188	83 c2 15	 add	 edx, 21			; 00000015H
  0018b	52		 push	 edx
  0018c	68 00 00 00 00	 push	 OFFSET ??_C@_0EL@MMNLIBAL@c?3?2users?2nhv90?2projects?2eech?2ap@
  00191	a1 00 00 00 00	 mov	 eax, DWORD PTR ?null_entity_pointer_message@@3PBDB ; null_entity_pointer_message
  00196	50		 push	 eax
  00197	e8 00 00 00 00	 call	 ?process_assert@@YGXPBD0H@Z ; process_assert
  0019c	c7 45 b4 00 00
	00 00		 mov	 DWORD PTR tv157[ebp], 0
$LN18@response_t:
  001a3	b9 01 00 00 00	 mov	 ecx, 1
  001a8	85 c9		 test	 ecx, ecx
  001aa	74 09		 je	 SHORT $LN19@response_t
  001ac	c7 45 b0 19 00
	00 00		 mov	 DWORD PTR tv165[ebp], 25 ; 00000019H
  001b3	eb 21		 jmp	 SHORT $LN20@response_t
$LN19@response_t:
  001b5	8b 15 00 00 00
	00		 mov	 edx, DWORD PTR ?__LINE__Var@?0??response_to_entity_fired_at@@YGHW4ENTITY_MESSAGES@@PAUENTITY@@1PAD@Z@4JA
  001bb	83 c2 15	 add	 edx, 21			; 00000015H
  001be	52		 push	 edx
  001bf	68 00 00 00 00	 push	 OFFSET ??_C@_0EL@MMNLIBAL@c?3?2users?2nhv90?2projects?2eech?2ap@
  001c4	a1 00 00 00 00	 mov	 eax, DWORD PTR ?overload_invalid_list_type_message@@3PBDB ; overload_invalid_list_type_message
  001c9	50		 push	 eax
  001ca	e8 00 00 00 00	 call	 ?process_assert@@YGXPBD0H@Z ; process_assert
  001cf	c7 45 b0 00 00
	00 00		 mov	 DWORD PTR tv165[ebp], 0
$LN20@response_t:
  001d6	6a 19		 push	 25			; 00000019H
  001d8	8b 4d fc	 mov	 ecx, DWORD PTR _victim$[ebp]
  001db	51		 push	 ecx
  001dc	69 55 b4 b4 00
	00 00		 imul	 edx, DWORD PTR tv157[ebp], 180
  001e3	8b 45 b0	 mov	 eax, DWORD PTR tv165[ebp]
  001e6	8b 8c 82 00 00
	00 00		 mov	 ecx, DWORD PTR ?fn_get_local_entity_parent@@3PAY0CN@P6GPAUENTITY@@PAU1@W4LIST_TYPES@@@ZA[edx+eax*4]
  001ed	ff d1		 call	 ecx
  001ef	89 45 f8	 mov	 DWORD PTR _group$[ebp], eax

; 340  : 	
; 341  : 			if (group)

  001f2	83 7d f8 00	 cmp	 DWORD PTR _group$[ebp], 0
  001f6	74 16		 je	 SHORT $LN5@response_t

; 342  : 			{
; 343  : 				notify_local_entity (ENTITY_MESSAGE_ENTITY_FIRED_AT, group, sender, victim);

  001f8	8b 45 fc	 mov	 eax, DWORD PTR _victim$[ebp]
  001fb	50		 push	 eax
  001fc	8b 4d 10	 mov	 ecx, DWORD PTR _sender$[ebp]
  001ff	51		 push	 ecx
  00200	8b 55 f8	 mov	 edx, DWORD PTR _group$[ebp]
  00203	52		 push	 edx
  00204	6a 0d		 push	 13			; 0000000dH
  00206	e8 00 00 00 00	 call	 ?notify_local_entity@@YAHW4ENTITY_MESSAGES@@PAUENTITY@@1ZZ ; notify_local_entity
  0020b	83 c4 10	 add	 esp, 16			; 00000010H
$LN5@response_t:

; 344  : 			}
; 345  : 		}
; 346  : 	}
; 347  : 
; 348  : 	return (TRUE);

  0020e	b8 01 00 00 00	 mov	 eax, 1

; 349  : }

  00213	5f		 pop	 edi
  00214	5e		 pop	 esi
  00215	5b		 pop	 ebx
  00216	8b e5		 mov	 esp, ebp
  00218	5d		 pop	 ebp
  00219	c2 10 00	 ret	 16			; 00000010H
?response_to_entity_fired_at@@YGHW4ENTITY_MESSAGES@@PAUENTITY@@1PAD@Z ENDP ; response_to_entity_fired_at
_TEXT	ENDS
; Function compile flags: /Odtp /ZI
; File c:\users\nhv90\projects\eech\aphavoc\source\entity\special\force\fc_msgs.c
;	COMDAT ?response_to_check_campaign_objectives@@YGHW4ENTITY_MESSAGES@@PAUENTITY@@1PAD@Z
_TEXT	SEGMENT
tv509 = -100						; size = 4
tv488 = -100						; size = 4
tv458 = -100						; size = 4
tv437 = -100						; size = 4
tv413 = -100						; size = 4
tv392 = -100						; size = 4
tv366 = -100						; size = 4
tv345 = -100						; size = 4
tv326 = -100						; size = 4
tv302 = -100						; size = 4
tv281 = -100						; size = 4
tv255 = -100						; size = 4
tv234 = -100						; size = 4
tv215 = -100						; size = 4
tv191 = -100						; size = 4
tv163 = -100						; size = 4
tv134 = -100						; size = 4
tv81 = -100						; size = 4
tv501 = -96						; size = 4
tv480 = -96						; size = 4
tv450 = -96						; size = 4
tv429 = -96						; size = 4
tv405 = -96						; size = 4
tv384 = -96						; size = 4
tv358 = -96						; size = 4
tv338 = -96						; size = 4
tv319 = -96						; size = 4
tv294 = -96						; size = 4
tv273 = -96						; size = 4
tv247 = -96						; size = 4
tv227 = -96						; size = 4
tv208 = -96						; size = 4
tv183 = -96						; size = 4
tv175 = -96						; size = 4
tv155 = -96						; size = 4
tv141 = -96						; size = 4
tv94 = -96						; size = 4
tv74 = -96						; size = 4
_complete$ = -28					; size = 4
_sub_type$ = -24					; size = 4
_enemy_side$ = -20					; size = 4
_side$ = -16						; size = 4
_enemy_force$ = -12					; size = 4
_group$ = -8						; size = 4
_en$ = -4						; size = 4
_message$ = 8						; size = 4
_receiver$ = 12						; size = 4
_sender$ = 16						; size = 4
_pargs$ = 20						; size = 4
?response_to_check_campaign_objectives@@YGHW4ENTITY_MESSAGES@@PAUENTITY@@1PAD@Z PROC ; response_to_check_campaign_objectives, COMDAT

; 145  : {

  00000	55		 push	 ebp
  00001	8b ec		 mov	 ebp, esp
  00003	83 ec 64	 sub	 esp, 100		; 00000064H
  00006	53		 push	 ebx
  00007	56		 push	 esi
  00008	57		 push	 edi

; 146  : 	entity
; 147  : 		*en,
; 148  : 		*group,
; 149  : 		*enemy_force;
; 150  : 
; 151  : 	int
; 152  : 		side,
; 153  : 		enemy_side,
; 154  : 		sub_type;
; 155  : 
; 156  : 	campaign_completed_types
; 157  : 		complete;
; 158  : 
; 159  : 	complete = CAMPAIGN_COMPLETED_FALSE;

  00009	c7 45 e4 00 00
	00 00		 mov	 DWORD PTR _complete$[ebp], 0

; 160  : 
; 161  : 	ASSERT (get_comms_model () == COMMS_MODEL_SERVER);

  00010	83 3d 00 00 00
	00 00		 cmp	 DWORD PTR ?system_comms_model@@3W4COMMS_MODEL_TYPES@@A, 0 ; system_comms_model
  00017	74 18		 je	 SHORT $LN10@response_t
  00019	a1 00 00 00 00	 mov	 eax, DWORD PTR ?__LINE__Var@?0??response_to_check_campaign_objectives@@YGHW4ENTITY_MESSAGES@@PAUENTITY@@1PAD@Z@4JA
  0001e	83 c0 10	 add	 eax, 16			; 00000010H
  00021	50		 push	 eax
  00022	68 00 00 00 00	 push	 OFFSET ??_C@_0EL@MMNLIBAL@c?3?2users?2nhv90?2projects?2eech?2ap@
  00027	68 00 00 00 00	 push	 OFFSET ??_C@_0CJ@DMBLBJBK@get_comms_model?5?$CI?$CJ?5?$DN?$DN?5COMMS_MOD@
  0002c	e8 00 00 00 00	 call	 ?process_assert@@YGXPBD0H@Z ; process_assert
$LN10@response_t:

; 162  : 
; 163  : 	if (get_local_entity_int_value (get_session_entity (), INT_TYPE_SESSION_COMPLETE))

  00031	83 3d 00 00 00
	00 00		 cmp	 DWORD PTR ?session_entity@@3PAUENTITY@@A, 0 ; session_entity
  00038	74 0c		 je	 SHORT $LN31@response_t
  0003a	a1 00 00 00 00	 mov	 eax, DWORD PTR ?session_entity@@3PAUENTITY@@A ; session_entity
  0003f	8b 08		 mov	 ecx, DWORD PTR [eax]
  00041	89 4d a0	 mov	 DWORD PTR tv74[ebp], ecx
  00044	eb 1d		 jmp	 SHORT $LN32@response_t
$LN31@response_t:
  00046	68 a3 00 00 00	 push	 163			; 000000a3H
  0004b	68 00 00 00 00	 push	 OFFSET ??_C@_0EL@MMNLIBAL@c?3?2users?2nhv90?2projects?2eech?2ap@
  00050	8b 15 00 00 00
	00		 mov	 edx, DWORD PTR ?null_entity_pointer_message@@3PBDB ; null_entity_pointer_message
  00056	52		 push	 edx
  00057	e8 00 00 00 00	 call	 ?process_assert@@YGXPBD0H@Z ; process_assert
  0005c	c7 45 a0 00 00
	00 00		 mov	 DWORD PTR tv74[ebp], 0
$LN32@response_t:
  00063	b8 01 00 00 00	 mov	 eax, 1
  00068	85 c0		 test	 eax, eax
  0006a	74 09		 je	 SHORT $LN33@response_t
  0006c	c7 45 9c ba 00
	00 00		 mov	 DWORD PTR tv81[ebp], 186 ; 000000baH
  00073	eb 1d		 jmp	 SHORT $LN34@response_t
$LN33@response_t:
  00075	68 a3 00 00 00	 push	 163			; 000000a3H
  0007a	68 00 00 00 00	 push	 OFFSET ??_C@_0EL@MMNLIBAL@c?3?2users?2nhv90?2projects?2eech?2ap@
  0007f	8b 0d 00 00 00
	00		 mov	 ecx, DWORD PTR ?overload_invalid_int_type_message@@3PBDB ; overload_invalid_int_type_message
  00085	51		 push	 ecx
  00086	e8 00 00 00 00	 call	 ?process_assert@@YGXPBD0H@Z ; process_assert
  0008b	c7 45 9c 00 00
	00 00		 mov	 DWORD PTR tv81[ebp], 0
$LN34@response_t:
  00092	68 ba 00 00 00	 push	 186			; 000000baH
  00097	8b 15 00 00 00
	00		 mov	 edx, DWORD PTR ?session_entity@@3PAUENTITY@@A ; session_entity
  0009d	52		 push	 edx
  0009e	69 45 a0 5c 04
	00 00		 imul	 eax, DWORD PTR tv74[ebp], 1116
  000a5	8b 4d 9c	 mov	 ecx, DWORD PTR tv81[ebp]
  000a8	8b 94 88 00 00
	00 00		 mov	 edx, DWORD PTR ?fn_get_local_entity_int_value@@3PAY0BBH@P6GHPAUENTITY@@W4INT_TYPES@@@ZA[eax+ecx*4]
  000af	ff d2		 call	 edx
  000b1	85 c0		 test	 eax, eax
  000b3	74 0a		 je	 SHORT $LN11@response_t

; 164  : 	{
; 165  : 		return TRUE;

  000b5	b8 01 00 00 00	 mov	 eax, 1
  000ba	e9 71 0a 00 00	 jmp	 $LN1@response_t
$LN11@response_t:

; 166  : 	}
; 167  : 
; 168  : 	side = get_local_entity_int_value (receiver, INT_TYPE_SIDE);

  000bf	83 7d 0c 00	 cmp	 DWORD PTR _receiver$[ebp], 0
  000c3	74 0a		 je	 SHORT $LN35@response_t
  000c5	8b 45 0c	 mov	 eax, DWORD PTR _receiver$[ebp]
  000c8	8b 08		 mov	 ecx, DWORD PTR [eax]
  000ca	89 4d a0	 mov	 DWORD PTR tv94[ebp], ecx
  000cd	eb 21		 jmp	 SHORT $LN36@response_t
$LN35@response_t:
  000cf	8b 15 00 00 00
	00		 mov	 edx, DWORD PTR ?__LINE__Var@?0??response_to_check_campaign_objectives@@YGHW4ENTITY_MESSAGES@@PAUENTITY@@1PAD@Z@4JA
  000d5	83 c2 17	 add	 edx, 23			; 00000017H
  000d8	52		 push	 edx
  000d9	68 00 00 00 00	 push	 OFFSET ??_C@_0EL@MMNLIBAL@c?3?2users?2nhv90?2projects?2eech?2ap@
  000de	a1 00 00 00 00	 mov	 eax, DWORD PTR ?null_entity_pointer_message@@3PBDB ; null_entity_pointer_message
  000e3	50		 push	 eax
  000e4	e8 00 00 00 00	 call	 ?process_assert@@YGXPBD0H@Z ; process_assert
  000e9	c7 45 a0 00 00
	00 00		 mov	 DWORD PTR tv94[ebp], 0
$LN36@response_t:
  000f0	b9 01 00 00 00	 mov	 ecx, 1
  000f5	85 c9		 test	 ecx, ecx
  000f7	74 09		 je	 SHORT $LN37@response_t
  000f9	c7 45 9c bb 00
	00 00		 mov	 DWORD PTR tv134[ebp], 187 ; 000000bbH
  00100	eb 21		 jmp	 SHORT $LN38@response_t
$LN37@response_t:
  00102	8b 15 00 00 00
	00		 mov	 edx, DWORD PTR ?__LINE__Var@?0??response_to_check_campaign_objectives@@YGHW4ENTITY_MESSAGES@@PAUENTITY@@1PAD@Z@4JA
  00108	83 c2 17	 add	 edx, 23			; 00000017H
  0010b	52		 push	 edx
  0010c	68 00 00 00 00	 push	 OFFSET ??_C@_0EL@MMNLIBAL@c?3?2users?2nhv90?2projects?2eech?2ap@
  00111	a1 00 00 00 00	 mov	 eax, DWORD PTR ?overload_invalid_int_type_message@@3PBDB ; overload_invalid_int_type_message
  00116	50		 push	 eax
  00117	e8 00 00 00 00	 call	 ?process_assert@@YGXPBD0H@Z ; process_assert
  0011c	c7 45 9c 00 00
	00 00		 mov	 DWORD PTR tv134[ebp], 0
$LN38@response_t:
  00123	68 bb 00 00 00	 push	 187			; 000000bbH
  00128	8b 4d 0c	 mov	 ecx, DWORD PTR _receiver$[ebp]
  0012b	51		 push	 ecx
  0012c	69 55 a0 5c 04
	00 00		 imul	 edx, DWORD PTR tv94[ebp], 1116
  00133	8b 45 9c	 mov	 eax, DWORD PTR tv134[ebp]
  00136	8b 8c 82 00 00
	00 00		 mov	 ecx, DWORD PTR ?fn_get_local_entity_int_value@@3PAY0BBH@P6GHPAUENTITY@@W4INT_TYPES@@@ZA[edx+eax*4]
  0013d	ff d1		 call	 ecx
  0013f	89 45 f0	 mov	 DWORD PTR _side$[ebp], eax

; 169  : 
; 170  : 	enemy_side = get_enemy_side (side);

  00142	83 7d f0 01	 cmp	 DWORD PTR _side$[ebp], 1
  00146	75 09		 jne	 SHORT $LN39@response_t
  00148	c7 45 a0 02 00
	00 00		 mov	 DWORD PTR tv141[ebp], 2
  0014f	eb 07		 jmp	 SHORT $LN40@response_t
$LN39@response_t:
  00151	c7 45 a0 01 00
	00 00		 mov	 DWORD PTR tv141[ebp], 1
$LN40@response_t:
  00158	8b 45 a0	 mov	 eax, DWORD PTR tv141[ebp]
  0015b	89 45 ec	 mov	 DWORD PTR _enemy_side$[ebp], eax

; 171  : 
; 172  : 	enemy_force = get_local_force_entity ((entity_sides) enemy_side);

  0015e	8b 45 ec	 mov	 eax, DWORD PTR _enemy_side$[ebp]
  00161	50		 push	 eax
  00162	e8 00 00 00 00	 call	 ?get_local_force_entity@@YGPAUENTITY@@W4ENTITY_SIDES@@@Z ; get_local_force_entity
  00167	89 45 f4	 mov	 DWORD PTR _enemy_force$[ebp], eax

; 173  : 
; 174  : 	ASSERT (enemy_force);

  0016a	83 7d f4 00	 cmp	 DWORD PTR _enemy_force$[ebp], 0
  0016e	75 18		 jne	 SHORT $LN12@response_t
  00170	a1 00 00 00 00	 mov	 eax, DWORD PTR ?__LINE__Var@?0??response_to_check_campaign_objectives@@YGHW4ENTITY_MESSAGES@@PAUENTITY@@1PAD@Z@4JA
  00175	83 c0 1d	 add	 eax, 29			; 0000001dH
  00178	50		 push	 eax
  00179	68 00 00 00 00	 push	 OFFSET ??_C@_0EL@MMNLIBAL@c?3?2users?2nhv90?2projects?2eech?2ap@
  0017e	68 00 00 00 00	 push	 OFFSET ??_C@_0M@JMPLKLMD@enemy_force@
  00183	e8 00 00 00 00	 call	 ?process_assert@@YGXPBD0H@Z ; process_assert
$LN12@response_t:

; 175  : 
; 176  : 	//
; 177  : 	// Check Keysite Objectives
; 178  : 	//
; 179  : 
; 180  : 	complete = CAMPAIGN_COMPLETED_OBJECTIVES;

  00188	c7 45 e4 01 00
	00 00		 mov	 DWORD PTR _complete$[ebp], 1

; 181  : 
; 182  : 	en = get_local_entity_first_child (receiver, LIST_TYPE_CAMPAIGN_OBJECTIVE);

  0018f	83 7d 0c 00	 cmp	 DWORD PTR _receiver$[ebp], 0
  00193	74 0a		 je	 SHORT $LN41@response_t
  00195	8b 45 0c	 mov	 eax, DWORD PTR _receiver$[ebp]
  00198	8b 08		 mov	 ecx, DWORD PTR [eax]
  0019a	89 4d a0	 mov	 DWORD PTR tv155[ebp], ecx
  0019d	eb 21		 jmp	 SHORT $LN42@response_t
$LN41@response_t:
  0019f	8b 15 00 00 00
	00		 mov	 edx, DWORD PTR ?__LINE__Var@?0??response_to_check_campaign_objectives@@YGHW4ENTITY_MESSAGES@@PAUENTITY@@1PAD@Z@4JA
  001a5	83 c2 25	 add	 edx, 37			; 00000025H
  001a8	52		 push	 edx
  001a9	68 00 00 00 00	 push	 OFFSET ??_C@_0EL@MMNLIBAL@c?3?2users?2nhv90?2projects?2eech?2ap@
  001ae	a1 00 00 00 00	 mov	 eax, DWORD PTR ?null_entity_pointer_message@@3PBDB ; null_entity_pointer_message
  001b3	50		 push	 eax
  001b4	e8 00 00 00 00	 call	 ?process_assert@@YGXPBD0H@Z ; process_assert
  001b9	c7 45 a0 00 00
	00 00		 mov	 DWORD PTR tv155[ebp], 0
$LN42@response_t:
  001c0	b9 01 00 00 00	 mov	 ecx, 1
  001c5	85 c9		 test	 ecx, ecx
  001c7	74 09		 je	 SHORT $LN43@response_t
  001c9	c7 45 9c 05 00
	00 00		 mov	 DWORD PTR tv163[ebp], 5
  001d0	eb 21		 jmp	 SHORT $LN44@response_t
$LN43@response_t:
  001d2	8b 15 00 00 00
	00		 mov	 edx, DWORD PTR ?__LINE__Var@?0??response_to_check_campaign_objectives@@YGHW4ENTITY_MESSAGES@@PAUENTITY@@1PAD@Z@4JA
  001d8	83 c2 25	 add	 edx, 37			; 00000025H
  001db	52		 push	 edx
  001dc	68 00 00 00 00	 push	 OFFSET ??_C@_0EL@MMNLIBAL@c?3?2users?2nhv90?2projects?2eech?2ap@
  001e1	a1 00 00 00 00	 mov	 eax, DWORD PTR ?overload_invalid_list_type_message@@3PBDB ; overload_invalid_list_type_message
  001e6	50		 push	 eax
  001e7	e8 00 00 00 00	 call	 ?process_assert@@YGXPBD0H@Z ; process_assert
  001ec	c7 45 9c 00 00
	00 00		 mov	 DWORD PTR tv163[ebp], 0
$LN44@response_t:
  001f3	6a 05		 push	 5
  001f5	8b 4d 0c	 mov	 ecx, DWORD PTR _receiver$[ebp]
  001f8	51		 push	 ecx
  001f9	69 55 a0 b4 00
	00 00		 imul	 edx, DWORD PTR tv155[ebp], 180
  00200	8b 45 9c	 mov	 eax, DWORD PTR tv163[ebp]
  00203	8b 8c 82 00 00
	00 00		 mov	 ecx, DWORD PTR ?fn_get_local_entity_first_child@@3PAY0CN@P6GPAUENTITY@@PAU1@W4LIST_TYPES@@@ZA[edx+eax*4]
  0020a	ff d1		 call	 ecx
  0020c	89 45 fc	 mov	 DWORD PTR _en$[ebp], eax
$LN2@response_t:

; 183  : 
; 184  : 	while (en)

  0020f	83 7d fc 00	 cmp	 DWORD PTR _en$[ebp], 0
  00213	0f 84 65 02 00
	00		 je	 $LN3@response_t

; 185  : 	{
; 186  : 		if (get_local_entity_type (en) == ENTITY_TYPE_KEYSITE)

  00219	83 7d fc 00	 cmp	 DWORD PTR _en$[ebp], 0
  0021d	74 0a		 je	 SHORT $LN45@response_t
  0021f	8b 45 fc	 mov	 eax, DWORD PTR _en$[ebp]
  00222	8b 08		 mov	 ecx, DWORD PTR [eax]
  00224	89 4d a0	 mov	 DWORD PTR tv175[ebp], ecx
  00227	eb 1d		 jmp	 SHORT $LN46@response_t
$LN45@response_t:
  00229	68 ba 00 00 00	 push	 186			; 000000baH
  0022e	68 00 00 00 00	 push	 OFFSET ??_C@_0EL@MMNLIBAL@c?3?2users?2nhv90?2projects?2eech?2ap@
  00233	8b 15 00 00 00
	00		 mov	 edx, DWORD PTR ?null_entity_pointer_message@@3PBDB ; null_entity_pointer_message
  00239	52		 push	 edx
  0023a	e8 00 00 00 00	 call	 ?process_assert@@YGXPBD0H@Z ; process_assert
  0023f	c7 45 a0 00 00
	00 00		 mov	 DWORD PTR tv175[ebp], 0
$LN46@response_t:
  00246	83 7d a0 0f	 cmp	 DWORD PTR tv175[ebp], 15 ; 0000000fH
  0024a	0f 85 a9 01 00
	00		 jne	 $LN13@response_t

; 187  : 		{
; 188  : 			sub_type = get_local_entity_int_value (en, INT_TYPE_ENTITY_SUB_TYPE);

  00250	83 7d fc 00	 cmp	 DWORD PTR _en$[ebp], 0
  00254	74 0a		 je	 SHORT $LN47@response_t
  00256	8b 45 fc	 mov	 eax, DWORD PTR _en$[ebp]
  00259	8b 08		 mov	 ecx, DWORD PTR [eax]
  0025b	89 4d a0	 mov	 DWORD PTR tv183[ebp], ecx
  0025e	eb 21		 jmp	 SHORT $LN48@response_t
$LN47@response_t:
  00260	8b 15 00 00 00
	00		 mov	 edx, DWORD PTR ?__LINE__Var@?0??response_to_check_campaign_objectives@@YGHW4ENTITY_MESSAGES@@PAUENTITY@@1PAD@Z@4JA
  00266	83 c2 2b	 add	 edx, 43			; 0000002bH
  00269	52		 push	 edx
  0026a	68 00 00 00 00	 push	 OFFSET ??_C@_0EL@MMNLIBAL@c?3?2users?2nhv90?2projects?2eech?2ap@
  0026f	a1 00 00 00 00	 mov	 eax, DWORD PTR ?null_entity_pointer_message@@3PBDB ; null_entity_pointer_message
  00274	50		 push	 eax
  00275	e8 00 00 00 00	 call	 ?process_assert@@YGXPBD0H@Z ; process_assert
  0027a	c7 45 a0 00 00
	00 00		 mov	 DWORD PTR tv183[ebp], 0
$LN48@response_t:
  00281	b9 01 00 00 00	 mov	 ecx, 1
  00286	85 c9		 test	 ecx, ecx
  00288	74 09		 je	 SHORT $LN49@response_t
  0028a	c7 45 9c 34 00
	00 00		 mov	 DWORD PTR tv191[ebp], 52 ; 00000034H
  00291	eb 21		 jmp	 SHORT $LN50@response_t
$LN49@response_t:
  00293	8b 15 00 00 00
	00		 mov	 edx, DWORD PTR ?__LINE__Var@?0??response_to_check_campaign_objectives@@YGHW4ENTITY_MESSAGES@@PAUENTITY@@1PAD@Z@4JA
  00299	83 c2 2b	 add	 edx, 43			; 0000002bH
  0029c	52		 push	 edx
  0029d	68 00 00 00 00	 push	 OFFSET ??_C@_0EL@MMNLIBAL@c?3?2users?2nhv90?2projects?2eech?2ap@
  002a2	a1 00 00 00 00	 mov	 eax, DWORD PTR ?overload_invalid_int_type_message@@3PBDB ; overload_invalid_int_type_message
  002a7	50		 push	 eax
  002a8	e8 00 00 00 00	 call	 ?process_assert@@YGXPBD0H@Z ; process_assert
  002ad	c7 45 9c 00 00
	00 00		 mov	 DWORD PTR tv191[ebp], 0
$LN50@response_t:
  002b4	6a 34		 push	 52			; 00000034H
  002b6	8b 4d fc	 mov	 ecx, DWORD PTR _en$[ebp]
  002b9	51		 push	 ecx
  002ba	69 55 a0 5c 04
	00 00		 imul	 edx, DWORD PTR tv183[ebp], 1116
  002c1	8b 45 9c	 mov	 eax, DWORD PTR tv191[ebp]
  002c4	8b 8c 82 00 00
	00 00		 mov	 ecx, DWORD PTR ?fn_get_local_entity_int_value@@3PAY0BBH@P6GHPAUENTITY@@W4INT_TYPES@@@ZA[edx+eax*4]
  002cb	ff d1		 call	 ecx
  002cd	89 45 e8	 mov	 DWORD PTR _sub_type$[ebp], eax

; 189  : 
; 190  : 			if (keysite_database [sub_type].troop_insertion_target)

  002d0	6b 45 e8 44	 imul	 eax, DWORD PTR _sub_type$[ebp], 68
  002d4	8b 88 40 00 00
	00		 mov	 ecx, DWORD PTR ?keysite_database@@3PAUKEYSITE_DATA@@A[eax+64]
  002da	c1 e9 0c	 shr	 ecx, 12			; 0000000cH
  002dd	83 e1 01	 and	 ecx, 1
  002e0	0f 84 8e 00 00
	00		 je	 $LN14@response_t

; 191  : 			{
; 192  : 				if (get_local_entity_int_value (en, INT_TYPE_SIDE) != side)

  002e6	83 7d fc 00	 cmp	 DWORD PTR _en$[ebp], 0
  002ea	74 0a		 je	 SHORT $LN51@response_t
  002ec	8b 45 fc	 mov	 eax, DWORD PTR _en$[ebp]
  002ef	8b 08		 mov	 ecx, DWORD PTR [eax]
  002f1	89 4d a0	 mov	 DWORD PTR tv208[ebp], ecx
  002f4	eb 1d		 jmp	 SHORT $LN52@response_t
$LN51@response_t:
  002f6	68 c0 00 00 00	 push	 192			; 000000c0H
  002fb	68 00 00 00 00	 push	 OFFSET ??_C@_0EL@MMNLIBAL@c?3?2users?2nhv90?2projects?2eech?2ap@
  00300	8b 15 00 00 00
	00		 mov	 edx, DWORD PTR ?null_entity_pointer_message@@3PBDB ; null_entity_pointer_message
  00306	52		 push	 edx
  00307	e8 00 00 00 00	 call	 ?process_assert@@YGXPBD0H@Z ; process_assert
  0030c	c7 45 a0 00 00
	00 00		 mov	 DWORD PTR tv208[ebp], 0
$LN52@response_t:
  00313	b8 01 00 00 00	 mov	 eax, 1
  00318	85 c0		 test	 eax, eax
  0031a	74 09		 je	 SHORT $LN53@response_t
  0031c	c7 45 9c bb 00
	00 00		 mov	 DWORD PTR tv215[ebp], 187 ; 000000bbH
  00323	eb 1d		 jmp	 SHORT $LN54@response_t
$LN53@response_t:
  00325	68 c0 00 00 00	 push	 192			; 000000c0H
  0032a	68 00 00 00 00	 push	 OFFSET ??_C@_0EL@MMNLIBAL@c?3?2users?2nhv90?2projects?2eech?2ap@
  0032f	8b 0d 00 00 00
	00		 mov	 ecx, DWORD PTR ?overload_invalid_int_type_message@@3PBDB ; overload_invalid_int_type_message
  00335	51		 push	 ecx
  00336	e8 00 00 00 00	 call	 ?process_assert@@YGXPBD0H@Z ; process_assert
  0033b	c7 45 9c 00 00
	00 00		 mov	 DWORD PTR tv215[ebp], 0
$LN54@response_t:
  00342	68 bb 00 00 00	 push	 187			; 000000bbH
  00347	8b 55 fc	 mov	 edx, DWORD PTR _en$[ebp]
  0034a	52		 push	 edx
  0034b	69 45 a0 5c 04
	00 00		 imul	 eax, DWORD PTR tv208[ebp], 1116
  00352	8b 4d 9c	 mov	 ecx, DWORD PTR tv215[ebp]
  00355	8b 94 88 00 00
	00 00		 mov	 edx, DWORD PTR ?fn_get_local_entity_int_value@@3PAY0BBH@P6GHPAUENTITY@@W4INT_TYPES@@@ZA[eax+ecx*4]
  0035c	ff d2		 call	 edx
  0035e	3b 45 f0	 cmp	 eax, DWORD PTR _side$[ebp]
  00361	74 0c		 je	 SHORT $LN16@response_t

; 193  : 				{
; 194  : 					complete = CAMPAIGN_COMPLETED_FALSE;

  00363	c7 45 e4 00 00
	00 00		 mov	 DWORD PTR _complete$[ebp], 0

; 195  : 
; 196  : 					break;

  0036a	e9 0f 01 00 00	 jmp	 $LN3@response_t
$LN16@response_t:

; 197  : 				}
; 198  : 			}
; 199  : 			else

  0036f	e9 85 00 00 00	 jmp	 $LN13@response_t
$LN14@response_t:

; 200  : 			{
; 201  : 				if (get_local_entity_int_value (en, INT_TYPE_ALIVE))

  00374	83 7d fc 00	 cmp	 DWORD PTR _en$[ebp], 0
  00378	74 0a		 je	 SHORT $LN55@response_t
  0037a	8b 45 fc	 mov	 eax, DWORD PTR _en$[ebp]
  0037d	8b 08		 mov	 ecx, DWORD PTR [eax]
  0037f	89 4d a0	 mov	 DWORD PTR tv227[ebp], ecx
  00382	eb 1d		 jmp	 SHORT $LN56@response_t
$LN55@response_t:
  00384	68 c9 00 00 00	 push	 201			; 000000c9H
  00389	68 00 00 00 00	 push	 OFFSET ??_C@_0EL@MMNLIBAL@c?3?2users?2nhv90?2projects?2eech?2ap@
  0038e	8b 15 00 00 00
	00		 mov	 edx, DWORD PTR ?null_entity_pointer_message@@3PBDB ; null_entity_pointer_message
  00394	52		 push	 edx
  00395	e8 00 00 00 00	 call	 ?process_assert@@YGXPBD0H@Z ; process_assert
  0039a	c7 45 a0 00 00
	00 00		 mov	 DWORD PTR tv227[ebp], 0
$LN56@response_t:
  003a1	b8 01 00 00 00	 mov	 eax, 1
  003a6	85 c0		 test	 eax, eax
  003a8	74 09		 je	 SHORT $LN57@response_t
  003aa	c7 45 9c 07 00
	00 00		 mov	 DWORD PTR tv234[ebp], 7
  003b1	eb 1d		 jmp	 SHORT $LN58@response_t
$LN57@response_t:
  003b3	68 c9 00 00 00	 push	 201			; 000000c9H
  003b8	68 00 00 00 00	 push	 OFFSET ??_C@_0EL@MMNLIBAL@c?3?2users?2nhv90?2projects?2eech?2ap@
  003bd	8b 0d 00 00 00
	00		 mov	 ecx, DWORD PTR ?overload_invalid_int_type_message@@3PBDB ; overload_invalid_int_type_message
  003c3	51		 push	 ecx
  003c4	e8 00 00 00 00	 call	 ?process_assert@@YGXPBD0H@Z ; process_assert
  003c9	c7 45 9c 00 00
	00 00		 mov	 DWORD PTR tv234[ebp], 0
$LN58@response_t:
  003d0	6a 07		 push	 7
  003d2	8b 55 fc	 mov	 edx, DWORD PTR _en$[ebp]
  003d5	52		 push	 edx
  003d6	69 45 a0 5c 04
	00 00		 imul	 eax, DWORD PTR tv227[ebp], 1116
  003dd	8b 4d 9c	 mov	 ecx, DWORD PTR tv234[ebp]
  003e0	8b 94 88 00 00
	00 00		 mov	 edx, DWORD PTR ?fn_get_local_entity_int_value@@3PAY0BBH@P6GHPAUENTITY@@W4INT_TYPES@@@ZA[eax+ecx*4]
  003e7	ff d2		 call	 edx
  003e9	85 c0		 test	 eax, eax
  003eb	74 0c		 je	 SHORT $LN13@response_t

; 202  : 				{
; 203  : 					complete = CAMPAIGN_COMPLETED_FALSE;

  003ed	c7 45 e4 00 00
	00 00		 mov	 DWORD PTR _complete$[ebp], 0

; 204  : 
; 205  : 					break;

  003f4	e9 85 00 00 00	 jmp	 $LN3@response_t
$LN13@response_t:

; 206  : 				}
; 207  : 			}
; 208  : 		}
; 209  : 		
; 210  : 		en = get_local_entity_child_succ (en, LIST_TYPE_CAMPAIGN_OBJECTIVE);

  003f9	83 7d fc 00	 cmp	 DWORD PTR _en$[ebp], 0
  003fd	74 0a		 je	 SHORT $LN59@response_t
  003ff	8b 45 fc	 mov	 eax, DWORD PTR _en$[ebp]
  00402	8b 08		 mov	 ecx, DWORD PTR [eax]
  00404	89 4d a0	 mov	 DWORD PTR tv247[ebp], ecx
  00407	eb 21		 jmp	 SHORT $LN60@response_t
$LN59@response_t:
  00409	8b 15 00 00 00
	00		 mov	 edx, DWORD PTR ?__LINE__Var@?0??response_to_check_campaign_objectives@@YGHW4ENTITY_MESSAGES@@PAUENTITY@@1PAD@Z@4JA
  0040f	83 c2 41	 add	 edx, 65			; 00000041H
  00412	52		 push	 edx
  00413	68 00 00 00 00	 push	 OFFSET ??_C@_0EL@MMNLIBAL@c?3?2users?2nhv90?2projects?2eech?2ap@
  00418	a1 00 00 00 00	 mov	 eax, DWORD PTR ?null_entity_pointer_message@@3PBDB ; null_entity_pointer_message
  0041d	50		 push	 eax
  0041e	e8 00 00 00 00	 call	 ?process_assert@@YGXPBD0H@Z ; process_assert
  00423	c7 45 a0 00 00
	00 00		 mov	 DWORD PTR tv247[ebp], 0
$LN60@response_t:
  0042a	b9 01 00 00 00	 mov	 ecx, 1
  0042f	85 c9		 test	 ecx, ecx
  00431	74 09		 je	 SHORT $LN61@response_t
  00433	c7 45 9c 05 00
	00 00		 mov	 DWORD PTR tv255[ebp], 5
  0043a	eb 21		 jmp	 SHORT $LN62@response_t
$LN61@response_t:
  0043c	8b 15 00 00 00
	00		 mov	 edx, DWORD PTR ?__LINE__Var@?0??response_to_check_campaign_objectives@@YGHW4ENTITY_MESSAGES@@PAUENTITY@@1PAD@Z@4JA
  00442	83 c2 41	 add	 edx, 65			; 00000041H
  00445	52		 push	 edx
  00446	68 00 00 00 00	 push	 OFFSET ??_C@_0EL@MMNLIBAL@c?3?2users?2nhv90?2projects?2eech?2ap@
  0044b	a1 00 00 00 00	 mov	 eax, DWORD PTR ?overload_invalid_list_type_message@@3PBDB ; overload_invalid_list_type_message
  00450	50		 push	 eax
  00451	e8 00 00 00 00	 call	 ?process_assert@@YGXPBD0H@Z ; process_assert
  00456	c7 45 9c 00 00
	00 00		 mov	 DWORD PTR tv255[ebp], 0
$LN62@response_t:
  0045d	6a 05		 push	 5
  0045f	8b 4d fc	 mov	 ecx, DWORD PTR _en$[ebp]
  00462	51		 push	 ecx
  00463	69 55 a0 b4 00
	00 00		 imul	 edx, DWORD PTR tv247[ebp], 180
  0046a	8b 45 9c	 mov	 eax, DWORD PTR tv255[ebp]
  0046d	8b 8c 82 00 00
	00 00		 mov	 ecx, DWORD PTR ?fn_get_local_entity_child_succ@@3PAY0CN@P6GPAUENTITY@@PAU1@W4LIST_TYPES@@@ZA[edx+eax*4]
  00474	ff d1		 call	 ecx
  00476	89 45 fc	 mov	 DWORD PTR _en$[ebp], eax

; 211  : 	}

  00479	e9 91 fd ff ff	 jmp	 $LN2@response_t
$LN3@response_t:

; 212  : 
; 213  : 	if (complete != CAMPAIGN_COMPLETED_FALSE)

  0047e	83 7d e4 00	 cmp	 DWORD PTR _complete$[ebp], 0
  00482	74 18		 je	 SHORT $LN18@response_t

; 214  : 	{
; 215  : 		ai_log ("(FORCE) Side %s Completed Keysite Objectives", entity_side_short_names [side]);

  00484	8b 45 f0	 mov	 eax, DWORD PTR _side$[ebp]
  00487	8b 0c 85 00 00
	00 00		 mov	 ecx, DWORD PTR ?entity_side_short_names@@3PAPBDA[eax*4]
  0048e	51		 push	 ecx
  0048f	68 00 00 00 00	 push	 OFFSET ??_C@_0CN@NAPBLNNJ@?$CIFORCE?$CJ?5Side?5?$CFs?5Completed?5Keysi@
  00494	e8 00 00 00 00	 call	 ?ai_log@@YAXPBDZZ	; ai_log
  00499	83 c4 08	 add	 esp, 8
$LN18@response_t:

; 216  : 	}
; 217  : 
; 218  : 	//
; 219  : 	// Check Opposing Forces for Minimum Keysite count
; 220  : 	//
; 221  : 
; 222  : 	if (complete == CAMPAIGN_COMPLETED_FALSE)

  0049c	83 7d e4 00	 cmp	 DWORD PTR _complete$[ebp], 0
  004a0	0f 85 cc 02 00
	00		 jne	 $LN19@response_t

; 223  : 	{
; 224  : 		complete = CAMPAIGN_COMPLETED_OBJECTIVES;

  004a6	c7 45 e4 01 00
	00 00		 mov	 DWORD PTR _complete$[ebp], 1

; 225  : 
; 226  : 		en = get_local_entity_first_child (enemy_force, LIST_TYPE_KEYSITE_FORCE);

  004ad	83 7d f4 00	 cmp	 DWORD PTR _enemy_force$[ebp], 0
  004b1	74 0a		 je	 SHORT $LN63@response_t
  004b3	8b 45 f4	 mov	 eax, DWORD PTR _enemy_force$[ebp]
  004b6	8b 08		 mov	 ecx, DWORD PTR [eax]
  004b8	89 4d a0	 mov	 DWORD PTR tv273[ebp], ecx
  004bb	eb 21		 jmp	 SHORT $LN64@response_t
$LN63@response_t:
  004bd	8b 15 00 00 00
	00		 mov	 edx, DWORD PTR ?__LINE__Var@?0??response_to_check_campaign_objectives@@YGHW4ENTITY_MESSAGES@@PAUENTITY@@1PAD@Z@4JA
  004c3	83 c2 51	 add	 edx, 81			; 00000051H
  004c6	52		 push	 edx
  004c7	68 00 00 00 00	 push	 OFFSET ??_C@_0EL@MMNLIBAL@c?3?2users?2nhv90?2projects?2eech?2ap@
  004cc	a1 00 00 00 00	 mov	 eax, DWORD PTR ?null_entity_pointer_message@@3PBDB ; null_entity_pointer_message
  004d1	50		 push	 eax
  004d2	e8 00 00 00 00	 call	 ?process_assert@@YGXPBD0H@Z ; process_assert
  004d7	c7 45 a0 00 00
	00 00		 mov	 DWORD PTR tv273[ebp], 0
$LN64@response_t:
  004de	b9 01 00 00 00	 mov	 ecx, 1
  004e3	85 c9		 test	 ecx, ecx
  004e5	74 09		 je	 SHORT $LN65@response_t
  004e7	c7 45 9c 15 00
	00 00		 mov	 DWORD PTR tv281[ebp], 21 ; 00000015H
  004ee	eb 21		 jmp	 SHORT $LN66@response_t
$LN65@response_t:
  004f0	8b 15 00 00 00
	00		 mov	 edx, DWORD PTR ?__LINE__Var@?0??response_to_check_campaign_objectives@@YGHW4ENTITY_MESSAGES@@PAUENTITY@@1PAD@Z@4JA
  004f6	83 c2 51	 add	 edx, 81			; 00000051H
  004f9	52		 push	 edx
  004fa	68 00 00 00 00	 push	 OFFSET ??_C@_0EL@MMNLIBAL@c?3?2users?2nhv90?2projects?2eech?2ap@
  004ff	a1 00 00 00 00	 mov	 eax, DWORD PTR ?overload_invalid_list_type_message@@3PBDB ; overload_invalid_list_type_message
  00504	50		 push	 eax
  00505	e8 00 00 00 00	 call	 ?process_assert@@YGXPBD0H@Z ; process_assert
  0050a	c7 45 9c 00 00
	00 00		 mov	 DWORD PTR tv281[ebp], 0
$LN66@response_t:
  00511	6a 15		 push	 21			; 00000015H
  00513	8b 4d f4	 mov	 ecx, DWORD PTR _enemy_force$[ebp]
  00516	51		 push	 ecx
  00517	69 55 a0 b4 00
	00 00		 imul	 edx, DWORD PTR tv273[ebp], 180
  0051e	8b 45 9c	 mov	 eax, DWORD PTR tv281[ebp]
  00521	8b 8c 82 00 00
	00 00		 mov	 ecx, DWORD PTR ?fn_get_local_entity_first_child@@3PAY0CN@P6GPAUENTITY@@PAU1@W4LIST_TYPES@@@ZA[edx+eax*4]
  00528	ff d1		 call	 ecx
  0052a	89 45 fc	 mov	 DWORD PTR _en$[ebp], eax
$LN4@response_t:

; 227  : 
; 228  : 		while (en)

  0052d	83 7d fc 00	 cmp	 DWORD PTR _en$[ebp], 0
  00531	0f 84 1d 02 00
	00		 je	 $LN5@response_t

; 229  : 		{
; 230  : 			sub_type = get_local_entity_int_value (en, INT_TYPE_ENTITY_SUB_TYPE);

  00537	83 7d fc 00	 cmp	 DWORD PTR _en$[ebp], 0
  0053b	74 0a		 je	 SHORT $LN67@response_t
  0053d	8b 45 fc	 mov	 eax, DWORD PTR _en$[ebp]
  00540	8b 08		 mov	 ecx, DWORD PTR [eax]
  00542	89 4d a0	 mov	 DWORD PTR tv294[ebp], ecx
  00545	eb 21		 jmp	 SHORT $LN68@response_t
$LN67@response_t:
  00547	8b 15 00 00 00
	00		 mov	 edx, DWORD PTR ?__LINE__Var@?0??response_to_check_campaign_objectives@@YGHW4ENTITY_MESSAGES@@PAUENTITY@@1PAD@Z@4JA
  0054d	83 c2 55	 add	 edx, 85			; 00000055H
  00550	52		 push	 edx
  00551	68 00 00 00 00	 push	 OFFSET ??_C@_0EL@MMNLIBAL@c?3?2users?2nhv90?2projects?2eech?2ap@
  00556	a1 00 00 00 00	 mov	 eax, DWORD PTR ?null_entity_pointer_message@@3PBDB ; null_entity_pointer_message
  0055b	50		 push	 eax
  0055c	e8 00 00 00 00	 call	 ?process_assert@@YGXPBD0H@Z ; process_assert
  00561	c7 45 a0 00 00
	00 00		 mov	 DWORD PTR tv294[ebp], 0
$LN68@response_t:
  00568	b9 01 00 00 00	 mov	 ecx, 1
  0056d	85 c9		 test	 ecx, ecx
  0056f	74 09		 je	 SHORT $LN69@response_t
  00571	c7 45 9c 34 00
	00 00		 mov	 DWORD PTR tv302[ebp], 52 ; 00000034H
  00578	eb 21		 jmp	 SHORT $LN70@response_t
$LN69@response_t:
  0057a	8b 15 00 00 00
	00		 mov	 edx, DWORD PTR ?__LINE__Var@?0??response_to_check_campaign_objectives@@YGHW4ENTITY_MESSAGES@@PAUENTITY@@1PAD@Z@4JA
  00580	83 c2 55	 add	 edx, 85			; 00000055H
  00583	52		 push	 edx
  00584	68 00 00 00 00	 push	 OFFSET ??_C@_0EL@MMNLIBAL@c?3?2users?2nhv90?2projects?2eech?2ap@
  00589	a1 00 00 00 00	 mov	 eax, DWORD PTR ?overload_invalid_int_type_message@@3PBDB ; overload_invalid_int_type_message
  0058e	50		 push	 eax
  0058f	e8 00 00 00 00	 call	 ?process_assert@@YGXPBD0H@Z ; process_assert
  00594	c7 45 9c 00 00
	00 00		 mov	 DWORD PTR tv302[ebp], 0
$LN70@response_t:
  0059b	6a 34		 push	 52			; 00000034H
  0059d	8b 4d fc	 mov	 ecx, DWORD PTR _en$[ebp]
  005a0	51		 push	 ecx
  005a1	69 55 a0 5c 04
	00 00		 imul	 edx, DWORD PTR tv294[ebp], 1116
  005a8	8b 45 9c	 mov	 eax, DWORD PTR tv302[ebp]
  005ab	8b 8c 82 00 00
	00 00		 mov	 ecx, DWORD PTR ?fn_get_local_entity_int_value@@3PAY0BBH@P6GHPAUENTITY@@W4INT_TYPES@@@ZA[edx+eax*4]
  005b2	ff d1		 call	 ecx
  005b4	89 45 e8	 mov	 DWORD PTR _sub_type$[ebp], eax

; 231  : 
; 232  : 			if (keysite_database [sub_type].air_force_capacity != KEYSITE_AIR_FORCE_CAPACITY_NONE)

  005b7	6b 45 e8 44	 imul	 eax, DWORD PTR _sub_type$[ebp], 68
  005bb	8b 88 30 00 00
	00		 mov	 ecx, DWORD PTR ?keysite_database@@3PAUKEYSITE_DATA@@A[eax+48]
  005c1	c1 e9 0f	 shr	 ecx, 15			; 0000000fH
  005c4	83 e1 03	 and	 ecx, 3
  005c7	0f 84 02 01 00
	00		 je	 $LN20@response_t

; 233  : 			{
; 234  : 				if ((get_local_entity_int_value (en, INT_TYPE_ALIVE)) && (get_local_entity_int_value (en, INT_TYPE_IN_USE)))

  005cd	83 7d fc 00	 cmp	 DWORD PTR _en$[ebp], 0
  005d1	74 0a		 je	 SHORT $LN71@response_t
  005d3	8b 45 fc	 mov	 eax, DWORD PTR _en$[ebp]
  005d6	8b 08		 mov	 ecx, DWORD PTR [eax]
  005d8	89 4d a0	 mov	 DWORD PTR tv319[ebp], ecx
  005db	eb 1d		 jmp	 SHORT $LN72@response_t
$LN71@response_t:
  005dd	68 ea 00 00 00	 push	 234			; 000000eaH
  005e2	68 00 00 00 00	 push	 OFFSET ??_C@_0EL@MMNLIBAL@c?3?2users?2nhv90?2projects?2eech?2ap@
  005e7	8b 15 00 00 00
	00		 mov	 edx, DWORD PTR ?null_entity_pointer_message@@3PBDB ; null_entity_pointer_message
  005ed	52		 push	 edx
  005ee	e8 00 00 00 00	 call	 ?process_assert@@YGXPBD0H@Z ; process_assert
  005f3	c7 45 a0 00 00
	00 00		 mov	 DWORD PTR tv319[ebp], 0
$LN72@response_t:
  005fa	b8 01 00 00 00	 mov	 eax, 1
  005ff	85 c0		 test	 eax, eax
  00601	74 09		 je	 SHORT $LN73@response_t
  00603	c7 45 9c 07 00
	00 00		 mov	 DWORD PTR tv326[ebp], 7
  0060a	eb 1d		 jmp	 SHORT $LN74@response_t
$LN73@response_t:
  0060c	68 ea 00 00 00	 push	 234			; 000000eaH
  00611	68 00 00 00 00	 push	 OFFSET ??_C@_0EL@MMNLIBAL@c?3?2users?2nhv90?2projects?2eech?2ap@
  00616	8b 0d 00 00 00
	00		 mov	 ecx, DWORD PTR ?overload_invalid_int_type_message@@3PBDB ; overload_invalid_int_type_message
  0061c	51		 push	 ecx
  0061d	e8 00 00 00 00	 call	 ?process_assert@@YGXPBD0H@Z ; process_assert
  00622	c7 45 9c 00 00
	00 00		 mov	 DWORD PTR tv326[ebp], 0
$LN74@response_t:
  00629	6a 07		 push	 7
  0062b	8b 55 fc	 mov	 edx, DWORD PTR _en$[ebp]
  0062e	52		 push	 edx
  0062f	69 45 a0 5c 04
	00 00		 imul	 eax, DWORD PTR tv319[ebp], 1116
  00636	8b 4d 9c	 mov	 ecx, DWORD PTR tv326[ebp]
  00639	8b 94 88 00 00
	00 00		 mov	 edx, DWORD PTR ?fn_get_local_entity_int_value@@3PAY0BBH@P6GHPAUENTITY@@W4INT_TYPES@@@ZA[eax+ecx*4]
  00640	ff d2		 call	 edx
  00642	85 c0		 test	 eax, eax
  00644	0f 84 85 00 00
	00		 je	 $LN20@response_t
  0064a	83 7d fc 00	 cmp	 DWORD PTR _en$[ebp], 0
  0064e	74 0a		 je	 SHORT $LN75@response_t
  00650	8b 45 fc	 mov	 eax, DWORD PTR _en$[ebp]
  00653	8b 08		 mov	 ecx, DWORD PTR [eax]
  00655	89 4d a0	 mov	 DWORD PTR tv338[ebp], ecx
  00658	eb 1d		 jmp	 SHORT $LN76@response_t
$LN75@response_t:
  0065a	68 ea 00 00 00	 push	 234			; 000000eaH
  0065f	68 00 00 00 00	 push	 OFFSET ??_C@_0EL@MMNLIBAL@c?3?2users?2nhv90?2projects?2eech?2ap@
  00664	8b 15 00 00 00
	00		 mov	 edx, DWORD PTR ?null_entity_pointer_message@@3PBDB ; null_entity_pointer_message
  0066a	52		 push	 edx
  0066b	e8 00 00 00 00	 call	 ?process_assert@@YGXPBD0H@Z ; process_assert
  00670	c7 45 a0 00 00
	00 00		 mov	 DWORD PTR tv338[ebp], 0
$LN76@response_t:
  00677	b8 01 00 00 00	 mov	 eax, 1
  0067c	85 c0		 test	 eax, eax
  0067e	74 09		 je	 SHORT $LN77@response_t
  00680	c7 45 9c 6d 00
	00 00		 mov	 DWORD PTR tv345[ebp], 109 ; 0000006dH
  00687	eb 1d		 jmp	 SHORT $LN78@response_t
$LN77@response_t:
  00689	68 ea 00 00 00	 push	 234			; 000000eaH
  0068e	68 00 00 00 00	 push	 OFFSET ??_C@_0EL@MMNLIBAL@c?3?2users?2nhv90?2projects?2eech?2ap@
  00693	8b 0d 00 00 00
	00		 mov	 ecx, DWORD PTR ?overload_invalid_int_type_message@@3PBDB ; overload_invalid_int_type_message
  00699	51		 push	 ecx
  0069a	e8 00 00 00 00	 call	 ?process_assert@@YGXPBD0H@Z ; process_assert
  0069f	c7 45 9c 00 00
	00 00		 mov	 DWORD PTR tv345[ebp], 0
$LN78@response_t:
  006a6	6a 6d		 push	 109			; 0000006dH
  006a8	8b 55 fc	 mov	 edx, DWORD PTR _en$[ebp]
  006ab	52		 push	 edx
  006ac	69 45 a0 5c 04
	00 00		 imul	 eax, DWORD PTR tv338[ebp], 1116
  006b3	8b 4d 9c	 mov	 ecx, DWORD PTR tv345[ebp]
  006b6	8b 94 88 00 00
	00 00		 mov	 edx, DWORD PTR ?fn_get_local_entity_int_value@@3PAY0BBH@P6GHPAUENTITY@@W4INT_TYPES@@@ZA[eax+ecx*4]
  006bd	ff d2		 call	 edx
  006bf	85 c0		 test	 eax, eax
  006c1	74 0c		 je	 SHORT $LN20@response_t

; 235  : 				{
; 236  : 					complete = CAMPAIGN_COMPLETED_FALSE;

  006c3	c7 45 e4 00 00
	00 00		 mov	 DWORD PTR _complete$[ebp], 0

; 237  : 
; 238  : 					break;

  006ca	e9 85 00 00 00	 jmp	 $LN5@response_t
$LN20@response_t:

; 239  : 				}
; 240  : 			}
; 241  : 
; 242  : 			en = get_local_entity_child_succ (en, LIST_TYPE_KEYSITE_FORCE);

  006cf	83 7d fc 00	 cmp	 DWORD PTR _en$[ebp], 0
  006d3	74 0a		 je	 SHORT $LN79@response_t
  006d5	8b 45 fc	 mov	 eax, DWORD PTR _en$[ebp]
  006d8	8b 08		 mov	 ecx, DWORD PTR [eax]
  006da	89 4d a0	 mov	 DWORD PTR tv358[ebp], ecx
  006dd	eb 21		 jmp	 SHORT $LN80@response_t
$LN79@response_t:
  006df	8b 15 00 00 00
	00		 mov	 edx, DWORD PTR ?__LINE__Var@?0??response_to_check_campaign_objectives@@YGHW4ENTITY_MESSAGES@@PAUENTITY@@1PAD@Z@4JA
  006e5	83 c2 61	 add	 edx, 97			; 00000061H
  006e8	52		 push	 edx
  006e9	68 00 00 00 00	 push	 OFFSET ??_C@_0EL@MMNLIBAL@c?3?2users?2nhv90?2projects?2eech?2ap@
  006ee	a1 00 00 00 00	 mov	 eax, DWORD PTR ?null_entity_pointer_message@@3PBDB ; null_entity_pointer_message
  006f3	50		 push	 eax
  006f4	e8 00 00 00 00	 call	 ?process_assert@@YGXPBD0H@Z ; process_assert
  006f9	c7 45 a0 00 00
	00 00		 mov	 DWORD PTR tv358[ebp], 0
$LN80@response_t:
  00700	b9 01 00 00 00	 mov	 ecx, 1
  00705	85 c9		 test	 ecx, ecx
  00707	74 09		 je	 SHORT $LN81@response_t
  00709	c7 45 9c 15 00
	00 00		 mov	 DWORD PTR tv366[ebp], 21 ; 00000015H
  00710	eb 21		 jmp	 SHORT $LN82@response_t
$LN81@response_t:
  00712	8b 15 00 00 00
	00		 mov	 edx, DWORD PTR ?__LINE__Var@?0??response_to_check_campaign_objectives@@YGHW4ENTITY_MESSAGES@@PAUENTITY@@1PAD@Z@4JA
  00718	83 c2 61	 add	 edx, 97			; 00000061H
  0071b	52		 push	 edx
  0071c	68 00 00 00 00	 push	 OFFSET ??_C@_0EL@MMNLIBAL@c?3?2users?2nhv90?2projects?2eech?2ap@
  00721	a1 00 00 00 00	 mov	 eax, DWORD PTR ?overload_invalid_list_type_message@@3PBDB ; overload_invalid_list_type_message
  00726	50		 push	 eax
  00727	e8 00 00 00 00	 call	 ?process_assert@@YGXPBD0H@Z ; process_assert
  0072c	c7 45 9c 00 00
	00 00		 mov	 DWORD PTR tv366[ebp], 0
$LN82@response_t:
  00733	6a 15		 push	 21			; 00000015H
  00735	8b 4d fc	 mov	 ecx, DWORD PTR _en$[ebp]
  00738	51		 push	 ecx
  00739	69 55 a0 b4 00
	00 00		 imul	 edx, DWORD PTR tv358[ebp], 180
  00740	8b 45 9c	 mov	 eax, DWORD PTR tv366[ebp]
  00743	8b 8c 82 00 00
	00 00		 mov	 ecx, DWORD PTR ?fn_get_local_entity_child_succ@@3PAY0CN@P6GPAUENTITY@@PAU1@W4LIST_TYPES@@@ZA[edx+eax*4]
  0074a	ff d1		 call	 ecx
  0074c	89 45 fc	 mov	 DWORD PTR _en$[ebp], eax

; 243  : 		}

  0074f	e9 d9 fd ff ff	 jmp	 $LN4@response_t
$LN5@response_t:

; 244  : 
; 245  : 		if (complete != CAMPAIGN_COMPLETED_FALSE)

  00754	83 7d e4 00	 cmp	 DWORD PTR _complete$[ebp], 0
  00758	74 18		 je	 SHORT $LN19@response_t

; 246  : 		{
; 247  : 			ai_log ("(FORCE) Side %s Has No Keysites Left", entity_side_short_names [enemy_side]);

  0075a	8b 45 ec	 mov	 eax, DWORD PTR _enemy_side$[ebp]
  0075d	8b 0c 85 00 00
	00 00		 mov	 ecx, DWORD PTR ?entity_side_short_names@@3PAPBDA[eax*4]
  00764	51		 push	 ecx
  00765	68 00 00 00 00	 push	 OFFSET ??_C@_0CF@CCHAANJ@?$CIFORCE?$CJ?5Side?5?$CFs?5Has?5No?5Keysites@
  0076a	e8 00 00 00 00	 call	 ?ai_log@@YAXPBDZZ	; ai_log
  0076f	83 c4 08	 add	 esp, 8
$LN19@response_t:

; 248  : 		}
; 249  : 	}
; 250  : 
; 251  : 	//
; 252  : 	// Check Opposing Forces for Player gunships
; 253  : 	//
; 254  : 
; 255  : 	if (complete == CAMPAIGN_COMPLETED_FALSE)

  00772	83 7d e4 00	 cmp	 DWORD PTR _complete$[ebp], 0
  00776	0f 85 9c 03 00
	00		 jne	 $LN23@response_t

; 256  : 	{
; 257  : 		complete = CAMPAIGN_COMPLETED_VALID_GUNSHIPS;

  0077c	c7 45 e4 02 00
	00 00		 mov	 DWORD PTR _complete$[ebp], 2

; 258  : 
; 259  : 		group = get_local_entity_first_child (enemy_force, LIST_TYPE_AIR_REGISTRY);

  00783	83 7d f4 00	 cmp	 DWORD PTR _enemy_force$[ebp], 0
  00787	74 0a		 je	 SHORT $LN83@response_t
  00789	8b 45 f4	 mov	 eax, DWORD PTR _enemy_force$[ebp]
  0078c	8b 08		 mov	 ecx, DWORD PTR [eax]
  0078e	89 4d a0	 mov	 DWORD PTR tv384[ebp], ecx
  00791	eb 21		 jmp	 SHORT $LN84@response_t
$LN83@response_t:
  00793	8b 15 00 00 00
	00		 mov	 edx, DWORD PTR ?__LINE__Var@?0??response_to_check_campaign_objectives@@YGHW4ENTITY_MESSAGES@@PAUENTITY@@1PAD@Z@4JA
  00799	83 c2 72	 add	 edx, 114		; 00000072H
  0079c	52		 push	 edx
  0079d	68 00 00 00 00	 push	 OFFSET ??_C@_0EL@MMNLIBAL@c?3?2users?2nhv90?2projects?2eech?2ap@
  007a2	a1 00 00 00 00	 mov	 eax, DWORD PTR ?null_entity_pointer_message@@3PBDB ; null_entity_pointer_message
  007a7	50		 push	 eax
  007a8	e8 00 00 00 00	 call	 ?process_assert@@YGXPBD0H@Z ; process_assert
  007ad	c7 45 a0 00 00
	00 00		 mov	 DWORD PTR tv384[ebp], 0
$LN84@response_t:
  007b4	b9 01 00 00 00	 mov	 ecx, 1
  007b9	85 c9		 test	 ecx, ecx
  007bb	74 09		 je	 SHORT $LN85@response_t
  007bd	c7 45 9c 02 00
	00 00		 mov	 DWORD PTR tv392[ebp], 2
  007c4	eb 21		 jmp	 SHORT $LN86@response_t
$LN85@response_t:
  007c6	8b 15 00 00 00
	00		 mov	 edx, DWORD PTR ?__LINE__Var@?0??response_to_check_campaign_objectives@@YGHW4ENTITY_MESSAGES@@PAUENTITY@@1PAD@Z@4JA
  007cc	83 c2 72	 add	 edx, 114		; 00000072H
  007cf	52		 push	 edx
  007d0	68 00 00 00 00	 push	 OFFSET ??_C@_0EL@MMNLIBAL@c?3?2users?2nhv90?2projects?2eech?2ap@
  007d5	a1 00 00 00 00	 mov	 eax, DWORD PTR ?overload_invalid_list_type_message@@3PBDB ; overload_invalid_list_type_message
  007da	50		 push	 eax
  007db	e8 00 00 00 00	 call	 ?process_assert@@YGXPBD0H@Z ; process_assert
  007e0	c7 45 9c 00 00
	00 00		 mov	 DWORD PTR tv392[ebp], 0
$LN86@response_t:
  007e7	6a 02		 push	 2
  007e9	8b 4d f4	 mov	 ecx, DWORD PTR _enemy_force$[ebp]
  007ec	51		 push	 ecx
  007ed	69 55 a0 b4 00
	00 00		 imul	 edx, DWORD PTR tv384[ebp], 180
  007f4	8b 45 9c	 mov	 eax, DWORD PTR tv392[ebp]
  007f7	8b 8c 82 00 00
	00 00		 mov	 ecx, DWORD PTR ?fn_get_local_entity_first_child@@3PAY0CN@P6GPAUENTITY@@PAU1@W4LIST_TYPES@@@ZA[edx+eax*4]
  007fe	ff d1		 call	 ecx
  00800	89 45 f8	 mov	 DWORD PTR _group$[ebp], eax
$LN6@response_t:

; 260  : 
; 261  : 		while (group)

  00803	83 7d f8 00	 cmp	 DWORD PTR _group$[ebp], 0
  00807	0f 84 ed 02 00
	00		 je	 $LN7@response_t

; 262  : 		{
; 263  : 			sub_type = get_local_entity_int_value (group, INT_TYPE_ENTITY_SUB_TYPE);

  0080d	83 7d f8 00	 cmp	 DWORD PTR _group$[ebp], 0
  00811	74 0a		 je	 SHORT $LN87@response_t
  00813	8b 45 f8	 mov	 eax, DWORD PTR _group$[ebp]
  00816	8b 08		 mov	 ecx, DWORD PTR [eax]
  00818	89 4d a0	 mov	 DWORD PTR tv405[ebp], ecx
  0081b	eb 21		 jmp	 SHORT $LN88@response_t
$LN87@response_t:
  0081d	8b 15 00 00 00
	00		 mov	 edx, DWORD PTR ?__LINE__Var@?0??response_to_check_campaign_objectives@@YGHW4ENTITY_MESSAGES@@PAUENTITY@@1PAD@Z@4JA
  00823	83 c2 76	 add	 edx, 118		; 00000076H
  00826	52		 push	 edx
  00827	68 00 00 00 00	 push	 OFFSET ??_C@_0EL@MMNLIBAL@c?3?2users?2nhv90?2projects?2eech?2ap@
  0082c	a1 00 00 00 00	 mov	 eax, DWORD PTR ?null_entity_pointer_message@@3PBDB ; null_entity_pointer_message
  00831	50		 push	 eax
  00832	e8 00 00 00 00	 call	 ?process_assert@@YGXPBD0H@Z ; process_assert
  00837	c7 45 a0 00 00
	00 00		 mov	 DWORD PTR tv405[ebp], 0
$LN88@response_t:
  0083e	b9 01 00 00 00	 mov	 ecx, 1
  00843	85 c9		 test	 ecx, ecx
  00845	74 09		 je	 SHORT $LN89@response_t
  00847	c7 45 9c 34 00
	00 00		 mov	 DWORD PTR tv413[ebp], 52 ; 00000034H
  0084e	eb 21		 jmp	 SHORT $LN90@response_t
$LN89@response_t:
  00850	8b 15 00 00 00
	00		 mov	 edx, DWORD PTR ?__LINE__Var@?0??response_to_check_campaign_objectives@@YGHW4ENTITY_MESSAGES@@PAUENTITY@@1PAD@Z@4JA
  00856	83 c2 76	 add	 edx, 118		; 00000076H
  00859	52		 push	 edx
  0085a	68 00 00 00 00	 push	 OFFSET ??_C@_0EL@MMNLIBAL@c?3?2users?2nhv90?2projects?2eech?2ap@
  0085f	a1 00 00 00 00	 mov	 eax, DWORD PTR ?overload_invalid_int_type_message@@3PBDB ; overload_invalid_int_type_message
  00864	50		 push	 eax
  00865	e8 00 00 00 00	 call	 ?process_assert@@YGXPBD0H@Z ; process_assert
  0086a	c7 45 9c 00 00
	00 00		 mov	 DWORD PTR tv413[ebp], 0
$LN90@response_t:
  00871	6a 34		 push	 52			; 00000034H
  00873	8b 4d f8	 mov	 ecx, DWORD PTR _group$[ebp]
  00876	51		 push	 ecx
  00877	69 55 a0 5c 04
	00 00		 imul	 edx, DWORD PTR tv405[ebp], 1116
  0087e	8b 45 9c	 mov	 eax, DWORD PTR tv413[ebp]
  00881	8b 8c 82 00 00
	00 00		 mov	 ecx, DWORD PTR ?fn_get_local_entity_int_value@@3PAY0BBH@P6GHPAUENTITY@@W4INT_TYPES@@@ZA[edx+eax*4]
  00888	ff d1		 call	 ecx
  0088a	89 45 e8	 mov	 DWORD PTR _sub_type$[ebp], eax

; 264  : 
; 265  : 			if (group_database [sub_type].default_entity_type == ENTITY_TYPE_HELICOPTER)

  0088d	6b 45 e8 64	 imul	 eax, DWORD PTR _sub_type$[ebp], 100
  00891	83 b8 1c 00 00
	00 0e		 cmp	 DWORD PTR ?group_database@@3PAUGROUP_DATA@@A[eax+28], 14 ; 0000000eH
  00898	0f 85 c6 01 00
	00		 jne	 $LN24@response_t

; 266  : 			{
; 267  : 				en = get_local_entity_first_child (group, LIST_TYPE_MEMBER);

  0089e	83 7d f8 00	 cmp	 DWORD PTR _group$[ebp], 0
  008a2	74 0a		 je	 SHORT $LN91@response_t
  008a4	8b 45 f8	 mov	 eax, DWORD PTR _group$[ebp]
  008a7	8b 08		 mov	 ecx, DWORD PTR [eax]
  008a9	89 4d a0	 mov	 DWORD PTR tv429[ebp], ecx
  008ac	eb 21		 jmp	 SHORT $LN92@response_t
$LN91@response_t:
  008ae	8b 15 00 00 00
	00		 mov	 edx, DWORD PTR ?__LINE__Var@?0??response_to_check_campaign_objectives@@YGHW4ENTITY_MESSAGES@@PAUENTITY@@1PAD@Z@4JA
  008b4	83 c2 7a	 add	 edx, 122		; 0000007aH
  008b7	52		 push	 edx
  008b8	68 00 00 00 00	 push	 OFFSET ??_C@_0EL@MMNLIBAL@c?3?2users?2nhv90?2projects?2eech?2ap@
  008bd	a1 00 00 00 00	 mov	 eax, DWORD PTR ?null_entity_pointer_message@@3PBDB ; null_entity_pointer_message
  008c2	50		 push	 eax
  008c3	e8 00 00 00 00	 call	 ?process_assert@@YGXPBD0H@Z ; process_assert
  008c8	c7 45 a0 00 00
	00 00		 mov	 DWORD PTR tv429[ebp], 0
$LN92@response_t:
  008cf	b9 01 00 00 00	 mov	 ecx, 1
  008d4	85 c9		 test	 ecx, ecx
  008d6	74 09		 je	 SHORT $LN93@response_t
  008d8	c7 45 9c 19 00
	00 00		 mov	 DWORD PTR tv437[ebp], 25 ; 00000019H
  008df	eb 21		 jmp	 SHORT $LN94@response_t
$LN93@response_t:
  008e1	8b 15 00 00 00
	00		 mov	 edx, DWORD PTR ?__LINE__Var@?0??response_to_check_campaign_objectives@@YGHW4ENTITY_MESSAGES@@PAUENTITY@@1PAD@Z@4JA
  008e7	83 c2 7a	 add	 edx, 122		; 0000007aH
  008ea	52		 push	 edx
  008eb	68 00 00 00 00	 push	 OFFSET ??_C@_0EL@MMNLIBAL@c?3?2users?2nhv90?2projects?2eech?2ap@
  008f0	a1 00 00 00 00	 mov	 eax, DWORD PTR ?overload_invalid_list_type_message@@3PBDB ; overload_invalid_list_type_message
  008f5	50		 push	 eax
  008f6	e8 00 00 00 00	 call	 ?process_assert@@YGXPBD0H@Z ; process_assert
  008fb	c7 45 9c 00 00
	00 00		 mov	 DWORD PTR tv437[ebp], 0
$LN94@response_t:
  00902	6a 19		 push	 25			; 00000019H
  00904	8b 4d f8	 mov	 ecx, DWORD PTR _group$[ebp]
  00907	51		 push	 ecx
  00908	69 55 a0 b4 00
	00 00		 imul	 edx, DWORD PTR tv429[ebp], 180
  0090f	8b 45 9c	 mov	 eax, DWORD PTR tv437[ebp]
  00912	8b 8c 82 00 00
	00 00		 mov	 ecx, DWORD PTR ?fn_get_local_entity_first_child@@3PAY0CN@P6GPAUENTITY@@PAU1@W4LIST_TYPES@@@ZA[edx+eax*4]
  00919	ff d1		 call	 ecx
  0091b	89 45 fc	 mov	 DWORD PTR _en$[ebp], eax
$LN8@response_t:

; 268  : 
; 269  : 				while (en)

  0091e	83 7d fc 00	 cmp	 DWORD PTR _en$[ebp], 0
  00922	0f 84 3c 01 00
	00		 je	 $LN24@response_t

; 270  : 				{
; 271  : 					sub_type = get_local_entity_int_value (en, INT_TYPE_ENTITY_SUB_TYPE);

  00928	83 7d fc 00	 cmp	 DWORD PTR _en$[ebp], 0
  0092c	74 0a		 je	 SHORT $LN95@response_t
  0092e	8b 45 fc	 mov	 eax, DWORD PTR _en$[ebp]
  00931	8b 08		 mov	 ecx, DWORD PTR [eax]
  00933	89 4d a0	 mov	 DWORD PTR tv450[ebp], ecx
  00936	eb 21		 jmp	 SHORT $LN96@response_t
$LN95@response_t:
  00938	8b 15 00 00 00
	00		 mov	 edx, DWORD PTR ?__LINE__Var@?0??response_to_check_campaign_objectives@@YGHW4ENTITY_MESSAGES@@PAUENTITY@@1PAD@Z@4JA
  0093e	83 c2 7e	 add	 edx, 126		; 0000007eH
  00941	52		 push	 edx
  00942	68 00 00 00 00	 push	 OFFSET ??_C@_0EL@MMNLIBAL@c?3?2users?2nhv90?2projects?2eech?2ap@
  00947	a1 00 00 00 00	 mov	 eax, DWORD PTR ?null_entity_pointer_message@@3PBDB ; null_entity_pointer_message
  0094c	50		 push	 eax
  0094d	e8 00 00 00 00	 call	 ?process_assert@@YGXPBD0H@Z ; process_assert
  00952	c7 45 a0 00 00
	00 00		 mov	 DWORD PTR tv450[ebp], 0
$LN96@response_t:
  00959	b9 01 00 00 00	 mov	 ecx, 1
  0095e	85 c9		 test	 ecx, ecx
  00960	74 09		 je	 SHORT $LN97@response_t
  00962	c7 45 9c 34 00
	00 00		 mov	 DWORD PTR tv458[ebp], 52 ; 00000034H
  00969	eb 21		 jmp	 SHORT $LN98@response_t
$LN97@response_t:
  0096b	8b 15 00 00 00
	00		 mov	 edx, DWORD PTR ?__LINE__Var@?0??response_to_check_campaign_objectives@@YGHW4ENTITY_MESSAGES@@PAUENTITY@@1PAD@Z@4JA
  00971	83 c2 7e	 add	 edx, 126		; 0000007eH
  00974	52		 push	 edx
  00975	68 00 00 00 00	 push	 OFFSET ??_C@_0EL@MMNLIBAL@c?3?2users?2nhv90?2projects?2eech?2ap@
  0097a	a1 00 00 00 00	 mov	 eax, DWORD PTR ?overload_invalid_int_type_message@@3PBDB ; overload_invalid_int_type_message
  0097f	50		 push	 eax
  00980	e8 00 00 00 00	 call	 ?process_assert@@YGXPBD0H@Z ; process_assert
  00985	c7 45 9c 00 00
	00 00		 mov	 DWORD PTR tv458[ebp], 0
$LN98@response_t:
  0098c	6a 34		 push	 52			; 00000034H
  0098e	8b 4d fc	 mov	 ecx, DWORD PTR _en$[ebp]
  00991	51		 push	 ecx
  00992	69 55 a0 5c 04
	00 00		 imul	 edx, DWORD PTR tv450[ebp], 1116
  00999	8b 45 9c	 mov	 eax, DWORD PTR tv458[ebp]
  0099c	8b 8c 82 00 00
	00 00		 mov	 ecx, DWORD PTR ?fn_get_local_entity_int_value@@3PAY0BBH@P6GHPAUENTITY@@W4INT_TYPES@@@ZA[edx+eax*4]
  009a3	ff d1		 call	 ecx
  009a5	89 45 e8	 mov	 DWORD PTR _sub_type$[ebp], eax

; 272  : 		
; 273  : 					if (aircraft_database [sub_type].player_controllable)

  009a8	69 45 e8 f4 00
	00 00		 imul	 eax, DWORD PTR _sub_type$[ebp], 244
  009af	8b 88 e4 00 00
	00		 mov	 ecx, DWORD PTR ?aircraft_database@@3PAUAIRCRAFT_DATA@@A[eax+228]
  009b5	c1 e9 09	 shr	 ecx, 9
  009b8	83 e1 01	 and	 ecx, 1
  009bb	74 1c		 je	 SHORT $LN25@response_t

; 274  : 					{
; 275  : 						if (aircraft_database[sub_type].view_category == VIEW_CATEGORY_COMBAT_HELICOPTERS)

  009bd	69 45 e8 f4 00
	00 00		 imul	 eax, DWORD PTR _sub_type$[ebp], 244
  009c4	83 b8 48 00 00
	00 01		 cmp	 DWORD PTR ?aircraft_database@@3PAUAIRCRAFT_DATA@@A[eax+72], 1
  009cb	75 0c		 jne	 SHORT $LN25@response_t

; 276  : 						{
; 277  : 								complete = CAMPAIGN_COMPLETED_FALSE;

  009cd	c7 45 e4 00 00
	00 00		 mov	 DWORD PTR _complete$[ebp], 0

; 278  : 								break;

  009d4	e9 8b 00 00 00	 jmp	 $LN24@response_t
$LN25@response_t:

; 279  : 						}
; 280  : 					}
; 281  : 
; 282  : 					en = get_local_entity_child_succ (en, LIST_TYPE_MEMBER);

  009d9	83 7d fc 00	 cmp	 DWORD PTR _en$[ebp], 0
  009dd	74 0a		 je	 SHORT $LN99@response_t
  009df	8b 45 fc	 mov	 eax, DWORD PTR _en$[ebp]
  009e2	8b 08		 mov	 ecx, DWORD PTR [eax]
  009e4	89 4d a0	 mov	 DWORD PTR tv480[ebp], ecx
  009e7	eb 24		 jmp	 SHORT $LN100@response_t
$LN99@response_t:
  009e9	8b 15 00 00 00
	00		 mov	 edx, DWORD PTR ?__LINE__Var@?0??response_to_check_campaign_objectives@@YGHW4ENTITY_MESSAGES@@PAUENTITY@@1PAD@Z@4JA
  009ef	81 c2 89 00 00
	00		 add	 edx, 137		; 00000089H
  009f5	52		 push	 edx
  009f6	68 00 00 00 00	 push	 OFFSET ??_C@_0EL@MMNLIBAL@c?3?2users?2nhv90?2projects?2eech?2ap@
  009fb	a1 00 00 00 00	 mov	 eax, DWORD PTR ?null_entity_pointer_message@@3PBDB ; null_entity_pointer_message
  00a00	50		 push	 eax
  00a01	e8 00 00 00 00	 call	 ?process_assert@@YGXPBD0H@Z ; process_assert
  00a06	c7 45 a0 00 00
	00 00		 mov	 DWORD PTR tv480[ebp], 0
$LN100@response_t:
  00a0d	b9 01 00 00 00	 mov	 ecx, 1
  00a12	85 c9		 test	 ecx, ecx
  00a14	74 09		 je	 SHORT $LN101@response_t
  00a16	c7 45 9c 19 00
	00 00		 mov	 DWORD PTR tv488[ebp], 25 ; 00000019H
  00a1d	eb 24		 jmp	 SHORT $LN102@response_t
$LN101@response_t:
  00a1f	8b 15 00 00 00
	00		 mov	 edx, DWORD PTR ?__LINE__Var@?0??response_to_check_campaign_objectives@@YGHW4ENTITY_MESSAGES@@PAUENTITY@@1PAD@Z@4JA
  00a25	81 c2 89 00 00
	00		 add	 edx, 137		; 00000089H
  00a2b	52		 push	 edx
  00a2c	68 00 00 00 00	 push	 OFFSET ??_C@_0EL@MMNLIBAL@c?3?2users?2nhv90?2projects?2eech?2ap@
  00a31	a1 00 00 00 00	 mov	 eax, DWORD PTR ?overload_invalid_list_type_message@@3PBDB ; overload_invalid_list_type_message
  00a36	50		 push	 eax
  00a37	e8 00 00 00 00	 call	 ?process_assert@@YGXPBD0H@Z ; process_assert
  00a3c	c7 45 9c 00 00
	00 00		 mov	 DWORD PTR tv488[ebp], 0
$LN102@response_t:
  00a43	6a 19		 push	 25			; 00000019H
  00a45	8b 4d fc	 mov	 ecx, DWORD PTR _en$[ebp]
  00a48	51		 push	 ecx
  00a49	69 55 a0 b4 00
	00 00		 imul	 edx, DWORD PTR tv480[ebp], 180
  00a50	8b 45 9c	 mov	 eax, DWORD PTR tv488[ebp]
  00a53	8b 8c 82 00 00
	00 00		 mov	 ecx, DWORD PTR ?fn_get_local_entity_child_succ@@3PAY0CN@P6GPAUENTITY@@PAU1@W4LIST_TYPES@@@ZA[edx+eax*4]
  00a5a	ff d1		 call	 ecx
  00a5c	89 45 fc	 mov	 DWORD PTR _en$[ebp], eax

; 283  : 				}

  00a5f	e9 ba fe ff ff	 jmp	 $LN8@response_t
$LN24@response_t:

; 284  : 			}
; 285  : 
; 286  : 			if (complete == CAMPAIGN_COMPLETED_FALSE) break;

  00a64	83 7d e4 00	 cmp	 DWORD PTR _complete$[ebp], 0
  00a68	75 05		 jne	 SHORT $LN27@response_t
  00a6a	e9 8b 00 00 00	 jmp	 $LN7@response_t
$LN27@response_t:

; 287  : 
; 288  : 			group = get_local_entity_child_succ (group, LIST_TYPE_AIR_REGISTRY);

  00a6f	83 7d f8 00	 cmp	 DWORD PTR _group$[ebp], 0
  00a73	74 0a		 je	 SHORT $LN103@response_t
  00a75	8b 45 f8	 mov	 eax, DWORD PTR _group$[ebp]
  00a78	8b 08		 mov	 ecx, DWORD PTR [eax]
  00a7a	89 4d a0	 mov	 DWORD PTR tv501[ebp], ecx
  00a7d	eb 24		 jmp	 SHORT $LN104@response_t
$LN103@response_t:
  00a7f	8b 15 00 00 00
	00		 mov	 edx, DWORD PTR ?__LINE__Var@?0??response_to_check_campaign_objectives@@YGHW4ENTITY_MESSAGES@@PAUENTITY@@1PAD@Z@4JA
  00a85	81 c2 8f 00 00
	00		 add	 edx, 143		; 0000008fH
  00a8b	52		 push	 edx
  00a8c	68 00 00 00 00	 push	 OFFSET ??_C@_0EL@MMNLIBAL@c?3?2users?2nhv90?2projects?2eech?2ap@
  00a91	a1 00 00 00 00	 mov	 eax, DWORD PTR ?null_entity_pointer_message@@3PBDB ; null_entity_pointer_message
  00a96	50		 push	 eax
  00a97	e8 00 00 00 00	 call	 ?process_assert@@YGXPBD0H@Z ; process_assert
  00a9c	c7 45 a0 00 00
	00 00		 mov	 DWORD PTR tv501[ebp], 0
$LN104@response_t:
  00aa3	b9 01 00 00 00	 mov	 ecx, 1
  00aa8	85 c9		 test	 ecx, ecx
  00aaa	74 09		 je	 SHORT $LN105@response_t
  00aac	c7 45 9c 02 00
	00 00		 mov	 DWORD PTR tv509[ebp], 2
  00ab3	eb 24		 jmp	 SHORT $LN106@response_t
$LN105@response_t:
  00ab5	8b 15 00 00 00
	00		 mov	 edx, DWORD PTR ?__LINE__Var@?0??response_to_check_campaign_objectives@@YGHW4ENTITY_MESSAGES@@PAUENTITY@@1PAD@Z@4JA
  00abb	81 c2 8f 00 00
	00		 add	 edx, 143		; 0000008fH
  00ac1	52		 push	 edx
  00ac2	68 00 00 00 00	 push	 OFFSET ??_C@_0EL@MMNLIBAL@c?3?2users?2nhv90?2projects?2eech?2ap@
  00ac7	a1 00 00 00 00	 mov	 eax, DWORD PTR ?overload_invalid_list_type_message@@3PBDB ; overload_invalid_list_type_message
  00acc	50		 push	 eax
  00acd	e8 00 00 00 00	 call	 ?process_assert@@YGXPBD0H@Z ; process_assert
  00ad2	c7 45 9c 00 00
	00 00		 mov	 DWORD PTR tv509[ebp], 0
$LN106@response_t:
  00ad9	6a 02		 push	 2
  00adb	8b 4d f8	 mov	 ecx, DWORD PTR _group$[ebp]
  00ade	51		 push	 ecx
  00adf	69 55 a0 b4 00
	00 00		 imul	 edx, DWORD PTR tv501[ebp], 180
  00ae6	8b 45 9c	 mov	 eax, DWORD PTR tv509[ebp]
  00ae9	8b 8c 82 00 00
	00 00		 mov	 ecx, DWORD PTR ?fn_get_local_entity_child_succ@@3PAY0CN@P6GPAUENTITY@@PAU1@W4LIST_TYPES@@@ZA[edx+eax*4]
  00af0	ff d1		 call	 ecx
  00af2	89 45 f8	 mov	 DWORD PTR _group$[ebp], eax

; 289  : 		}

  00af5	e9 09 fd ff ff	 jmp	 $LN6@response_t
$LN7@response_t:

; 290  : 
; 291  : 		if (complete != CAMPAIGN_COMPLETED_FALSE)

  00afa	83 7d e4 00	 cmp	 DWORD PTR _complete$[ebp], 0
  00afe	74 18		 je	 SHORT $LN23@response_t

; 292  : 		{
; 293  : 			ai_log ("(FORCE) Side %s Has No Player Controllable Gunships Left", entity_side_short_names [enemy_side]);

  00b00	8b 45 ec	 mov	 eax, DWORD PTR _enemy_side$[ebp]
  00b03	8b 0c 85 00 00
	00 00		 mov	 ecx, DWORD PTR ?entity_side_short_names@@3PAPBDA[eax*4]
  00b0a	51		 push	 ecx
  00b0b	68 00 00 00 00	 push	 OFFSET ??_C@_0DJ@BECNKEJK@?$CIFORCE?$CJ?5Side?5?$CFs?5Has?5No?5Player?5C@
  00b10	e8 00 00 00 00	 call	 ?ai_log@@YAXPBDZZ	; ai_log
  00b15	83 c4 08	 add	 esp, 8
$LN23@response_t:

; 294  : 		}
; 295  : 	}
; 296  : 
; 297  : 	//
; 298  : 	//
; 299  : 	//
; 300  : 	
; 301  : 	if (complete != CAMPAIGN_COMPLETED_FALSE)

  00b18	83 7d e4 00	 cmp	 DWORD PTR _complete$[ebp], 0
  00b1c	74 0d		 je	 SHORT $LN29@response_t

; 302  : 	{
; 303  : 		//
; 304  : 		// THIS FORCE HAS MET ALL CAMPAIGN OBJECTIVES 
; 305  : 		//
; 306  : 
; 307  : 		campaign_completed ((entity_sides) side, complete);

  00b1e	8b 45 e4	 mov	 eax, DWORD PTR _complete$[ebp]
  00b21	50		 push	 eax
  00b22	8b 4d f0	 mov	 ecx, DWORD PTR _side$[ebp]
  00b25	51		 push	 ecx
  00b26	e8 00 00 00 00	 call	 ?campaign_completed@@YGXW4ENTITY_SIDES@@W4CAMPAIGN_COMPLETED_TYPES@@@Z ; campaign_completed
$LN29@response_t:

; 308  : 	}
; 309  : 
; 310  : 	return (TRUE);

  00b2b	b8 01 00 00 00	 mov	 eax, 1
$LN1@response_t:

; 311  : }

  00b30	5f		 pop	 edi
  00b31	5e		 pop	 esi
  00b32	5b		 pop	 ebx
  00b33	8b e5		 mov	 esp, ebp
  00b35	5d		 pop	 ebp
  00b36	c2 10 00	 ret	 16			; 00000010H
?response_to_check_campaign_objectives@@YGHW4ENTITY_MESSAGES@@PAUENTITY@@1PAD@Z ENDP ; response_to_check_campaign_objectives
_TEXT	ENDS
; Function compile flags: /Odtp /ZI
; File c:\users\nhv90\projects\eech\aphavoc\source\entity\special\force\fc_msgs.c
;	COMDAT ?overload_force_message_responses@@YGXXZ
_TEXT	SEGMENT
?overload_force_message_responses@@YGXXZ PROC		; overload_force_message_responses, COMDAT

; 1321 : {

  00000	55		 push	 ebp
  00001	8b ec		 mov	 ebp, esp
  00003	83 ec 40	 sub	 esp, 64			; 00000040H
  00006	53		 push	 ebx
  00007	56		 push	 esi
  00008	57		 push	 edi

; 1322 : 	#if DEBUG_MODULE >= 2
; 1323 : 
; 1324 : 	message_responses[ENTITY_TYPE_FORCE][ENTITY_MESSAGE_LINK_CHILD] 										= response_to_link_child;
; 1325 : 
; 1326 : 	message_responses[ENTITY_TYPE_FORCE][ENTITY_MESSAGE_UNLINK_CHILD]										= response_to_unlink_child;
; 1327 : 
; 1328 : 	message_responses[ENTITY_TYPE_FORCE][ENTITY_MESSAGE_LINK_PARENT]										= response_to_link_parent;
; 1329 : 
; 1330 : 	message_responses[ENTITY_TYPE_FORCE][ENTITY_MESSAGE_UNLINK_PARENT]									= response_to_unlink_parent;
; 1331 : 
; 1332 : 	#endif
; 1333 : 
; 1334 : 	message_responses[ENTITY_TYPE_FORCE][ENTITY_MESSAGE_CHECK_CAMPAIGN_OBJECTIVES]					= response_to_check_campaign_objectives;

  00009	b8 84 01 00 00	 mov	 eax, 388		; 00000184H
  0000e	6b c8 0b	 imul	 ecx, eax, 11
  00011	ba 04 00 00 00	 mov	 edx, 4
  00016	6b c2 03	 imul	 eax, edx, 3
  00019	c7 84 01 00 00
	00 00 00 00 00
	00		 mov	 DWORD PTR ?message_responses@@3PAY0GB@P6GHW4ENTITY_MESSAGES@@PAUENTITY@@1PAD@ZA[ecx+eax], OFFSET ?response_to_check_campaign_objectives@@YGHW4ENTITY_MESSAGES@@PAUENTITY@@1PAD@Z ; response_to_check_campaign_objectives

; 1335 : 
; 1336 : 	message_responses[ENTITY_TYPE_FORCE][ENTITY_MESSAGE_ENTITY_FIRED_AT]									= response_to_entity_fired_at;

  00024	b8 84 01 00 00	 mov	 eax, 388		; 00000184H
  00029	6b c8 0b	 imul	 ecx, eax, 11
  0002c	ba 04 00 00 00	 mov	 edx, 4
  00031	6b c2 0d	 imul	 eax, edx, 13
  00034	c7 84 01 00 00
	00 00 00 00 00
	00		 mov	 DWORD PTR ?message_responses@@3PAY0GB@P6GHW4ENTITY_MESSAGES@@PAUENTITY@@1PAD@ZA[ecx+eax], OFFSET ?response_to_entity_fired_at@@YGHW4ENTITY_MESSAGES@@PAUENTITY@@1PAD@Z ; response_to_entity_fired_at

; 1337 : 
; 1338 : 	message_responses[ENTITY_TYPE_FORCE][ENTITY_MESSAGE_FORCE_ARMOUR_ADVANCING]						= response_to_force_armour_advancing;

  0003f	b8 84 01 00 00	 mov	 eax, 388		; 00000184H
  00044	6b c8 0b	 imul	 ecx, eax, 11
  00047	ba 04 00 00 00	 mov	 edx, 4
  0004c	6b c2 11	 imul	 eax, edx, 17
  0004f	c7 84 01 00 00
	00 00 00 00 00
	00		 mov	 DWORD PTR ?message_responses@@3PAY0GB@P6GHW4ENTITY_MESSAGES@@PAUENTITY@@1PAD@ZA[ecx+eax], OFFSET ?response_to_force_armour_advancing@@YGHW4ENTITY_MESSAGES@@PAUENTITY@@1PAD@Z ; response_to_force_armour_advancing

; 1339 : 
; 1340 : 	message_responses[ENTITY_TYPE_FORCE][ENTITY_MESSAGE_FORCE_ARMOUR_RESISTING]						= response_to_force_armour_resisting;

  0005a	b8 84 01 00 00	 mov	 eax, 388		; 00000184H
  0005f	6b c8 0b	 imul	 ecx, eax, 11
  00062	ba 04 00 00 00	 mov	 edx, 4
  00067	6b c2 12	 imul	 eax, edx, 18
  0006a	c7 84 01 00 00
	00 00 00 00 00
	00		 mov	 DWORD PTR ?message_responses@@3PAY0GB@P6GHW4ENTITY_MESSAGES@@PAUENTITY@@1PAD@ZA[ecx+eax], OFFSET ?response_to_force_armour_resisting@@YGHW4ENTITY_MESSAGES@@PAUENTITY@@1PAD@Z ; response_to_force_armour_resisting

; 1341 : 
; 1342 : 	message_responses[ENTITY_TYPE_FORCE][ENTITY_MESSAGE_FORCE_ARMOUR_RETREATING]						= response_to_force_armour_retreating;

  00075	b8 84 01 00 00	 mov	 eax, 388		; 00000184H
  0007a	6b c8 0b	 imul	 ecx, eax, 11
  0007d	ba 04 00 00 00	 mov	 edx, 4
  00082	6b c2 13	 imul	 eax, edx, 19
  00085	c7 84 01 00 00
	00 00 00 00 00
	00		 mov	 DWORD PTR ?message_responses@@3PAY0GB@P6GHW4ENTITY_MESSAGES@@PAUENTITY@@1PAD@ZA[ecx+eax], OFFSET ?response_to_force_armour_retreating@@YGHW4ENTITY_MESSAGES@@PAUENTITY@@1PAD@Z ; response_to_force_armour_retreating

; 1343 : 
; 1344 : 	message_responses[ENTITY_TYPE_FORCE][ENTITY_MESSAGE_FORCE_ARMOUR_STUCK]								= response_to_force_armour_stuck;

  00090	b8 84 01 00 00	 mov	 eax, 388		; 00000184H
  00095	6b c8 0b	 imul	 ecx, eax, 11
  00098	ba 04 00 00 00	 mov	 edx, 4
  0009d	6b c2 14	 imul	 eax, edx, 20
  000a0	c7 84 01 00 00
	00 00 00 00 00
	00		 mov	 DWORD PTR ?message_responses@@3PAY0GB@P6GHW4ENTITY_MESSAGES@@PAUENTITY@@1PAD@ZA[ecx+eax], OFFSET ?response_to_force_armour_stuck@@YGHW4ENTITY_MESSAGES@@PAUENTITY@@1PAD@Z ; response_to_force_armour_stuck

; 1345 : 
; 1346 : 	message_responses[ENTITY_TYPE_FORCE][ENTITY_MESSAGE_FORCE_DESTROYED]									= response_to_force_destroyed;

  000ab	b8 84 01 00 00	 mov	 eax, 388		; 00000184H
  000b0	6b c8 0b	 imul	 ecx, eax, 11
  000b3	ba 04 00 00 00	 mov	 edx, 4
  000b8	6b c2 15	 imul	 eax, edx, 21
  000bb	c7 84 01 00 00
	00 00 00 00 00
	00		 mov	 DWORD PTR ?message_responses@@3PAY0GB@P6GHW4ENTITY_MESSAGES@@PAUENTITY@@1PAD@ZA[ecx+eax], OFFSET ?response_to_force_destroyed@@YGHW4ENTITY_MESSAGES@@PAUENTITY@@1PAD@Z ; response_to_force_destroyed

; 1347 : 
; 1348 : 	message_responses[ENTITY_TYPE_FORCE][ENTITY_MESSAGE_FORCE_ENTERED_SECTOR]							= response_to_force_entered_sector;

  000c6	b8 84 01 00 00	 mov	 eax, 388		; 00000184H
  000cb	6b c8 0b	 imul	 ecx, eax, 11
  000ce	ba 04 00 00 00	 mov	 edx, 4
  000d3	6b c2 16	 imul	 eax, edx, 22
  000d6	c7 84 01 00 00
	00 00 00 00 00
	00		 mov	 DWORD PTR ?message_responses@@3PAY0GB@P6GHW4ENTITY_MESSAGES@@PAUENTITY@@1PAD@ZA[ecx+eax], OFFSET ?response_to_force_entered_sector@@YGHW4ENTITY_MESSAGES@@PAUENTITY@@1PAD@Z ; response_to_force_entered_sector

; 1349 : 
; 1350 : 	message_responses[ENTITY_TYPE_FORCE][ENTITY_MESSAGE_FORCE_INEFFICIENT_KEYSITE]					= response_to_force_inefficient_keysite;

  000e1	b8 84 01 00 00	 mov	 eax, 388		; 00000184H
  000e6	6b c8 0b	 imul	 ecx, eax, 11
  000e9	ba 04 00 00 00	 mov	 edx, 4
  000ee	6b c2 17	 imul	 eax, edx, 23
  000f1	c7 84 01 00 00
	00 00 00 00 00
	00		 mov	 DWORD PTR ?message_responses@@3PAY0GB@P6GHW4ENTITY_MESSAGES@@PAUENTITY@@1PAD@ZA[ecx+eax], OFFSET ?response_to_force_inefficient_keysite@@YGHW4ENTITY_MESSAGES@@PAUENTITY@@1PAD@Z ; response_to_force_inefficient_keysite

; 1351 : 
; 1352 : 	message_responses[ENTITY_TYPE_FORCE][ENTITY_MESSAGE_FORCE_LOW_ON_SUPPLIES]							= response_to_force_low_on_supplies;

  000fc	b8 84 01 00 00	 mov	 eax, 388		; 00000184H
  00101	6b c8 0b	 imul	 ecx, eax, 11
  00104	ba 04 00 00 00	 mov	 edx, 4
  00109	6b c2 18	 imul	 eax, edx, 24
  0010c	c7 84 01 00 00
	00 00 00 00 00
	00		 mov	 DWORD PTR ?message_responses@@3PAY0GB@P6GHW4ENTITY_MESSAGES@@PAUENTITY@@1PAD@ZA[ecx+eax], OFFSET ?response_to_force_low_on_supplies@@YGHW4ENTITY_MESSAGES@@PAUENTITY@@1PAD@Z ; response_to_force_low_on_supplies

; 1353 : 
; 1354 : 	message_responses[ENTITY_TYPE_FORCE][ENTITY_MESSAGE_FORCE_SPECIAL_KILL]								= response_to_force_special_kill;

  00117	b8 84 01 00 00	 mov	 eax, 388		; 00000184H
  0011c	6b c8 0b	 imul	 ecx, eax, 11
  0011f	ba 04 00 00 00	 mov	 edx, 4
  00124	6b c2 1a	 imul	 eax, edx, 26
  00127	c7 84 01 00 00
	00 00 00 00 00
	00		 mov	 DWORD PTR ?message_responses@@3PAY0GB@P6GHW4ENTITY_MESSAGES@@PAUENTITY@@1PAD@ZA[ecx+eax], OFFSET ?response_to_force_special_kill@@YGHW4ENTITY_MESSAGES@@PAUENTITY@@1PAD@Z ; response_to_force_special_kill

; 1355 : 
; 1356 : 	message_responses[ENTITY_TYPE_FORCE][ENTITY_MESSAGE_FORCE_VACANT_FARP] 								= response_to_force_vacant_farp;

  00132	b8 84 01 00 00	 mov	 eax, 388		; 00000184H
  00137	6b c8 0b	 imul	 ecx, eax, 11
  0013a	ba 04 00 00 00	 mov	 edx, 4
  0013f	6b c2 1b	 imul	 eax, edx, 27
  00142	c7 84 01 00 00
	00 00 00 00 00
	00		 mov	 DWORD PTR ?message_responses@@3PAY0GB@P6GHW4ENTITY_MESSAGES@@PAUENTITY@@1PAD@ZA[ecx+eax], OFFSET ?response_to_force_vacant_farp@@YGHW4ENTITY_MESSAGES@@PAUENTITY@@1PAD@Z ; response_to_force_vacant_farp

; 1357 : 
; 1358 : 	message_responses[ENTITY_TYPE_FORCE][ENTITY_MESSAGE_FORCE_WAYPOINT_REACHED]						= response_to_force_waypoint_reached;

  0014d	b8 84 01 00 00	 mov	 eax, 388		; 00000184H
  00152	6b c8 0b	 imul	 ecx, eax, 11
  00155	ba 04 00 00 00	 mov	 edx, 4
  0015a	6b c2 1c	 imul	 eax, edx, 28
  0015d	c7 84 01 00 00
	00 00 00 00 00
	00		 mov	 DWORD PTR ?message_responses@@3PAY0GB@P6GHW4ENTITY_MESSAGES@@PAUENTITY@@1PAD@ZA[ecx+eax], OFFSET ?response_to_force_waypoint_reached@@YGHW4ENTITY_MESSAGES@@PAUENTITY@@1PAD@Z ; response_to_force_waypoint_reached

; 1359 : 
; 1360 : 	message_responses[ENTITY_TYPE_FORCE][ENTITY_MESSAGE_REQUEST_ASSISTANCE]								= response_to_request_assistance;

  00168	b8 84 01 00 00	 mov	 eax, 388		; 00000184H
  0016d	6b c8 0b	 imul	 ecx, eax, 11
  00170	ba 04 00 00 00	 mov	 edx, 4
  00175	6b c2 2d	 imul	 eax, edx, 45
  00178	c7 84 01 00 00
	00 00 00 00 00
	00		 mov	 DWORD PTR ?message_responses@@3PAY0GB@P6GHW4ENTITY_MESSAGES@@PAUENTITY@@1PAD@ZA[ecx+eax], OFFSET ?response_to_request_assistance@@YGHW4ENTITY_MESSAGES@@PAUENTITY@@1PAD@Z ; response_to_request_assistance

; 1361 : 
; 1362 : 	message_responses[ENTITY_TYPE_FORCE][ENTITY_MESSAGE_TASK_CREATED]										= response_to_task_created;

  00183	b8 84 01 00 00	 mov	 eax, 388		; 00000184H
  00188	6b c8 0b	 imul	 ecx, eax, 11
  0018b	ba 04 00 00 00	 mov	 edx, 4
  00190	6b c2 33	 imul	 eax, edx, 51
  00193	c7 84 01 00 00
	00 00 00 00 00
	00		 mov	 DWORD PTR ?message_responses@@3PAY0GB@P6GHW4ENTITY_MESSAGES@@PAUENTITY@@1PAD@ZA[ecx+eax], OFFSET ?response_to_task_created@@YGHW4ENTITY_MESSAGES@@PAUENTITY@@1PAD@Z ; response_to_task_created

; 1363 : 
; 1364 : 	message_responses[ENTITY_TYPE_FORCE][ENTITY_MESSAGE_TASK_ASSIGNED] 									= response_to_task_assigned;

  0019e	b8 84 01 00 00	 mov	 eax, 388		; 00000184H
  001a3	6b c8 0b	 imul	 ecx, eax, 11
  001a6	ba 04 00 00 00	 mov	 edx, 4
  001ab	6b c2 31	 imul	 eax, edx, 49
  001ae	c7 84 01 00 00
	00 00 00 00 00
	00		 mov	 DWORD PTR ?message_responses@@3PAY0GB@P6GHW4ENTITY_MESSAGES@@PAUENTITY@@1PAD@ZA[ecx+eax], OFFSET ?response_to_task_assigned@@YGHW4ENTITY_MESSAGES@@PAUENTITY@@1PAD@Z ; response_to_task_assigned

; 1365 : 
; 1366 : 	message_responses[ENTITY_TYPE_FORCE][ENTITY_MESSAGE_TASK_COMPLETED] 									= response_to_task_completed;

  001b9	b8 84 01 00 00	 mov	 eax, 388		; 00000184H
  001be	6b c8 0b	 imul	 ecx, eax, 11
  001c1	ba 04 00 00 00	 mov	 edx, 4
  001c6	6b c2 32	 imul	 eax, edx, 50
  001c9	c7 84 01 00 00
	00 00 00 00 00
	00		 mov	 DWORD PTR ?message_responses@@3PAY0GB@P6GHW4ENTITY_MESSAGES@@PAUENTITY@@1PAD@ZA[ecx+eax], OFFSET ?response_to_task_completed@@YGHW4ENTITY_MESSAGES@@PAUENTITY@@1PAD@Z ; response_to_task_completed

; 1367 : }

  001d4	5f		 pop	 edi
  001d5	5e		 pop	 esi
  001d6	5b		 pop	 ebx
  001d7	8b e5		 mov	 esp, ebp
  001d9	5d		 pop	 ebp
  001da	c3		 ret	 0
?overload_force_message_responses@@YGXXZ ENDP		; overload_force_message_responses
_TEXT	ENDS
END
