; Listing generated by Microsoft (R) Optimizing Compiler Version 19.16.27045.0 

	TITLE	C:\Users\nhv90\Projects\eech\aphavoc\source\ui_menu\ingame\fflight\fflight.c
	.686P
	.XMM
	include listing.inc
	.model	flat

INCLUDELIB MSVCRTD
INCLUDELIB OLDNAMES

PUBLIC	?free_flight_screen@@3PAUUI_OBJECT@@A		; free_flight_screen
PUBLIC	?free_flight_gunship_type@@3W4GUNSHIP_TYPES@@A	; free_flight_gunship_type
_BSS	SEGMENT
?free_flight_screen@@3PAUUI_OBJECT@@A DD 01H DUP (?)	; free_flight_screen
_BSS	ENDS
_DATA	SEGMENT
?free_flight_gunship_type@@3W4GUNSHIP_TYPES@@A DD 03H	; free_flight_gunship_type
_DATA	ENDS
PUBLIC	___local_stdio_printf_options
PUBLIC	__vsnprintf_l
PUBLIC	__vsprintf_l
PUBLIC	_sprintf
PUBLIC	?initialise_main_free_flight_screen@@YGXXZ	; initialise_main_free_flight_screen
PUBLIC	?setup_free_flight_quit_campaign_dialog@@YGXXZ	; setup_free_flight_quit_campaign_dialog
PUBLIC	?initialise_free_flight_screen@@YGXXZ		; initialise_free_flight_screen
PUBLIC	?free_flight_auto_assign_gunship@@YGPAUENTITY@@XZ ; free_flight_auto_assign_gunship
PUBLIC	?get_free_flight_gunship_type@@YG?AW4GUNSHIP_TYPES@@XZ ; get_free_flight_gunship_type
PUBLIC	?set_free_flight_gunship_type@@YGXW4GUNSHIP_TYPES@@@Z ; set_free_flight_gunship_type
PUBLIC	?_OptionsStorage@?1??__local_stdio_printf_options@@9@4_KA ; `__local_stdio_printf_options'::`2'::_OptionsStorage
PUBLIC	??_C@_0BI@DOHPEMEI@quit?5free?5flight?5events@	; `string'
PUBLIC	??_C@_0CF@EBOMMOO@graphics?2ui?2cohokum?2map?2quitcam@ ; `string'
PUBLIC	??_C@_0BB@OMJKJBIF@Quit?5Free?5Flight@		; `string'
PUBLIC	??_C@_03EHDOIDNK@?$CFs?$DP@			; `string'
PUBLIC	??_C@_03CCLAEDDF@Yes@				; `string'
PUBLIC	??_C@_02JINPPBEP@No@				; `string'
PUBLIC	?__LINE__Var@?0??free_flight_auto_assign_gunship@@YGPAUENTITY@@XZ@4JA ; `free_flight_auto_assign_gunship'::`1'::__LINE__Var
PUBLIC	??_C@_0EN@OPENIFFC@c?3?2users?2nhv90?2projects?2eech?2ap@ ; `string'
PUBLIC	??_C@_0CJ@DMBLBJBK@get_comms_model?5?$CI?$CJ?5?$DN?$DN?5COMMS_MOD@ ; `string'
PUBLIC	??_C@_0CK@NIFCBNLB@get_game_type?5?$CI?$CJ?5?$DN?$DN?5GAME_TYPE_F@ ; `string'
PUBLIC	??_C@_0BE@KOLCCDEB@get_pilot_entity?5?$CI?$CJ@	; `string'
PUBLIC	??_C@_05BINPNAAL@force@				; `string'
PUBLIC	??_C@_09DMMLFBJB@count?5?$DO?50@		; `string'
PUBLIC	??_C@_0CK@NKBDFNAO@FLIGHT?3?5can?8t?5assign?5user?5to?5Cr@ ; `string'
PUBLIC	__real@3dcccccd
PUBLIC	__real@3e839581
PUBLIC	__real@3e9b22d1
PUBLIC	__real@3f19999a
PUBLIC	__real@3f1cac08
PUBLIC	__real@3f266666
PUBLIC	__real@3f3d70a4
PUBLIC	__real@3f4ccccd
PUBLIC	__real@3f800000
EXTRN	__imp____stdio_common_vsprintf:PROC
EXTRN	?process_assert@@YGXPBD0H@Z:PROC		; process_assert
EXTRN	?debug_log@@YAXPBDZZ:PROC			; debug_log
EXTRN	?set_mouse_graphic_on@@YGXXZ:PROC		; set_mouse_graphic_on
EXTRN	?set_event@@YGXHHHP6GXPAUEVENT@@@Z@Z:PROC	; set_event
EXTRN	?push_event@@YGXP6GXXZPBD@Z:PROC		; push_event
EXTRN	?pop_event@@YGXP6GXXZ@Z:PROC			; pop_event
EXTRN	?safe_malloc_memory@@YGPAXI@Z:PROC		; safe_malloc_memory
EXTRN	?safe_free@@YGXPAX@Z:PROC			; safe_free
EXTRN	?create_texture_graphic@@YGPAUTEXTURE_GRAPHIC@@PBD@Z:PROC ; create_texture_graphic
EXTRN	?ui_left_mouse_button@@YGXPAUEVENT@@@Z:PROC	; ui_left_mouse_button
EXTRN	?ui_right_mouse_button@@YGXPAUEVENT@@@Z:PROC	; ui_right_mouse_button
EXTRN	?create_ui_object@@YAPAUUI_OBJECT@@HZZ:PROC	; create_ui_object
EXTRN	?set_gunship_entity@@YGXPAUENTITY@@@Z:PROC	; set_gunship_entity
EXTRN	?get_local_entity_suitable_for_player@@YGHPAUENTITY@@0@Z:PROC ; get_local_entity_suitable_for_player
EXTRN	?set_view_mode@@YGHW4VIEW_MODES@@@Z:PROC	; set_view_mode
EXTRN	?exit_apache_havoc@@YGXPAUEVENT@@@Z:PROC	; exit_apache_havoc
EXTRN	?get_trans@@YGPBDPBD@Z:PROC			; get_trans
EXTRN	?initialise_map_data@@YGXXZ:PROC		; initialise_map_data
EXTRN	?set_last_drawn_map_object@@YGXPAUUI_OBJECT@@@Z:PROC ; set_last_drawn_map_object
EXTRN	?ingame_screen_draw_function@@YGXPAUUI_OBJECT@@PAX@Z:PROC ; ingame_screen_draw_function
EXTRN	?player_quit_session@@YGXPAUEVENT@@@Z:PROC	; player_quit_session
EXTRN	?initialise_free_flight_screen_info_objects@@YGXXZ:PROC ; initialise_free_flight_screen_info_objects
EXTRN	?define_free_flight_screen_info_objects@@YGXXZ:PROC ; define_free_flight_screen_info_objects
EXTRN	?initialise_free_flight_screen_map_page_objects@@YGXXZ:PROC ; initialise_free_flight_screen_map_page_objects
EXTRN	?define_free_flight_screen_map_page_objects@@YGXXZ:PROC ; define_free_flight_screen_map_page_objects
EXTRN	?define_free_flight_screen_selection_objects@@YGXXZ:PROC ; define_free_flight_screen_selection_objects
EXTRN	?assign_primary_task_to_group@@YGHPAUENTITY@@0@Z:PROC ; assign_primary_task_to_group
EXTRN	?create_user_task@@YGPAUENTITY@@PAU1@HPAUVEC3D@@00@Z:PROC ; create_user_task
EXTRN	?random_number_seed@@3HA:DWORD			; random_number_seed
EXTRN	?fn_set_ui_object_drawable@@3PAP6GXPAUUI_OBJECT@@H@ZA:BYTE ; fn_set_ui_object_drawable
EXTRN	?ui_ingame_live_text_colour@@3UREAL_COLOUR@@A:DWORD ; ui_ingame_live_text_colour
EXTRN	?ui_ingame_dead_text_colour@@3UREAL_COLOUR@@A:DWORD ; ui_ingame_dead_text_colour
EXTRN	?ui_ingame_highlight_text_colour@@3UREAL_COLOUR@@A:DWORD ; ui_ingame_highlight_text_colour
EXTRN	?ui_ingame_selected_text_colour@@3UREAL_COLOUR@@A:DWORD ; ui_ingame_selected_text_colour
EXTRN	?command_line_ui_sounds_muted@@3HA:DWORD	; command_line_ui_sounds_muted
EXTRN	?null_entity_pointer_message@@3PBDB:DWORD	; null_entity_pointer_message
EXTRN	?gunship_sub_types@@3PAHA:BYTE			; gunship_sub_types
EXTRN	?system_comms_model@@3W4COMMS_MODEL_TYPES@@A:DWORD ; system_comms_model
EXTRN	?overload_invalid_list_type_message@@3PBDB:DWORD ; overload_invalid_list_type_message
EXTRN	?fn_get_local_entity_first_child@@3PAY0CN@P6GPAUENTITY@@PAU1@W4LIST_TYPES@@@ZA:BYTE ; fn_get_local_entity_first_child
EXTRN	?fn_get_local_entity_parent@@3PAY0CN@P6GPAUENTITY@@PAU1@W4LIST_TYPES@@@ZA:BYTE ; fn_get_local_entity_parent
EXTRN	?fn_get_local_entity_child_succ@@3PAY0CN@P6GPAUENTITY@@PAU1@W4LIST_TYPES@@@ZA:BYTE ; fn_get_local_entity_child_succ
EXTRN	?fn_destroy_client_server_entity@@3PAY01P6GXPAUENTITY@@@ZA:BYTE ; fn_destroy_client_server_entity
EXTRN	?overload_invalid_int_type_message@@3PBDB:DWORD	; overload_invalid_int_type_message
EXTRN	?fn_get_local_entity_int_value@@3PAY0BBH@P6GHPAUENTITY@@W4INT_TYPES@@@ZA:BYTE ; fn_get_local_entity_int_value
EXTRN	?overload_invalid_vec3d_type_message@@3PBDB:DWORD ; overload_invalid_vec3d_type_message
EXTRN	?fn_get_local_entity_vec3d_ptr@@3PAY0BI@P6GPAUVEC3D@@PAUENTITY@@W4VEC3D_TYPES@@@ZA:BYTE ; fn_get_local_entity_vec3d_ptr
EXTRN	?gunship_entity@@3PAUENTITY@@A:DWORD		; gunship_entity
EXTRN	?ui_sounds_muted@@3HA:DWORD			; ui_sounds_muted
EXTRN	?pilot_entity@@3PAUENTITY@@A:DWORD		; pilot_entity
EXTRN	?game_type@@3W4GAME_TYPES@@A:DWORD		; game_type
EXTRN	?common_grey_alpha_mask@@3PAUTEXTURE_GRAPHIC@@A:DWORD ; common_grey_alpha_mask
EXTRN	?assign_create_waypoint_route@@3HA:DWORD	; assign_create_waypoint_route
EXTRN	__fltused:DWORD
;	COMDAT ?_OptionsStorage@?1??__local_stdio_printf_options@@9@4_KA
_BSS	SEGMENT
?_OptionsStorage@?1??__local_stdio_printf_options@@9@4_KA DQ 01H DUP (?) ; `__local_stdio_printf_options'::`2'::_OptionsStorage
_BSS	ENDS
_BSS	SEGMENT
?free_flight_dialog_area@@3PAUUI_OBJECT@@A DD 01H DUP (?) ; free_flight_dialog_area
?free_flight_quit_campaign_area@@3PAUUI_OBJECT@@A DD 01H DUP (?) ; free_flight_quit_campaign_area
_BSS	ENDS
;	COMDAT __real@3f800000
CONST	SEGMENT
__real@3f800000 DD 03f800000r			; 1
CONST	ENDS
;	COMDAT __real@3f4ccccd
CONST	SEGMENT
__real@3f4ccccd DD 03f4ccccdr			; 0.8
CONST	ENDS
;	COMDAT __real@3f3d70a4
CONST	SEGMENT
__real@3f3d70a4 DD 03f3d70a4r			; 0.74
CONST	ENDS
;	COMDAT __real@3f266666
CONST	SEGMENT
__real@3f266666 DD 03f266666r			; 0.65
CONST	ENDS
;	COMDAT __real@3f1cac08
CONST	SEGMENT
__real@3f1cac08 DD 03f1cac08r			; 0.612
CONST	ENDS
;	COMDAT __real@3f19999a
CONST	SEGMENT
__real@3f19999a DD 03f19999ar			; 0.6
CONST	ENDS
;	COMDAT __real@3e9b22d1
CONST	SEGMENT
__real@3e9b22d1 DD 03e9b22d1r			; 0.303
CONST	ENDS
;	COMDAT __real@3e839581
CONST	SEGMENT
__real@3e839581 DD 03e839581r			; 0.257
CONST	ENDS
;	COMDAT __real@3dcccccd
CONST	SEGMENT
__real@3dcccccd DD 03dcccccdr			; 0.1
CONST	ENDS
;	COMDAT ??_C@_0CK@NKBDFNAO@FLIGHT?3?5can?8t?5assign?5user?5to?5Cr@
CONST	SEGMENT
??_C@_0CK@NKBDFNAO@FLIGHT?3?5can?8t?5assign?5user?5to?5Cr@ DB 'FLIGHT: ca'
	DB	'n''t assign user to Created task', 00H	; `string'
CONST	ENDS
;	COMDAT ??_C@_09DMMLFBJB@count?5?$DO?50@
CONST	SEGMENT
??_C@_09DMMLFBJB@count?5?$DO?50@ DB 'count > 0', 00H	; `string'
CONST	ENDS
;	COMDAT ??_C@_05BINPNAAL@force@
CONST	SEGMENT
??_C@_05BINPNAAL@force@ DB 'force', 00H			; `string'
CONST	ENDS
;	COMDAT ??_C@_0BE@KOLCCDEB@get_pilot_entity?5?$CI?$CJ@
CONST	SEGMENT
??_C@_0BE@KOLCCDEB@get_pilot_entity?5?$CI?$CJ@ DB 'get_pilot_entity ()', 00H ; `string'
CONST	ENDS
;	COMDAT ??_C@_0CK@NIFCBNLB@get_game_type?5?$CI?$CJ?5?$DN?$DN?5GAME_TYPE_F@
CONST	SEGMENT
??_C@_0CK@NIFCBNLB@get_game_type?5?$CI?$CJ?5?$DN?$DN?5GAME_TYPE_F@ DB 'ge'
	DB	't_game_type () == GAME_TYPE_FREE_FLIGHT', 00H ; `string'
CONST	ENDS
;	COMDAT ??_C@_0CJ@DMBLBJBK@get_comms_model?5?$CI?$CJ?5?$DN?$DN?5COMMS_MOD@
CONST	SEGMENT
??_C@_0CJ@DMBLBJBK@get_comms_model?5?$CI?$CJ?5?$DN?$DN?5COMMS_MOD@ DB 'ge'
	DB	't_comms_model () == COMMS_MODEL_SERVER', 00H ; `string'
CONST	ENDS
;	COMDAT ??_C@_0EN@OPENIFFC@c?3?2users?2nhv90?2projects?2eech?2ap@
CONST	SEGMENT
??_C@_0EN@OPENIFFC@c?3?2users?2nhv90?2projects?2eech?2ap@ DB 'c:\users\nh'
	DB	'v90\projects\eech\aphavoc\source\ui_menu\ingame\fflight\fflig'
	DB	'ht.c', 00H					; `string'
CONST	ENDS
;	COMDAT ?__LINE__Var@?0??free_flight_auto_assign_gunship@@YGPAUENTITY@@XZ@4JA
_DATA	SEGMENT
?__LINE__Var@?0??free_flight_auto_assign_gunship@@YGPAUENTITY@@XZ@4JA DD 017cH ; `free_flight_auto_assign_gunship'::`1'::__LINE__Var
_DATA	ENDS
;	COMDAT ??_C@_02JINPPBEP@No@
CONST	SEGMENT
??_C@_02JINPPBEP@No@ DB 'No', 00H			; `string'
CONST	ENDS
;	COMDAT ??_C@_03CCLAEDDF@Yes@
CONST	SEGMENT
??_C@_03CCLAEDDF@Yes@ DB 'Yes', 00H			; `string'
CONST	ENDS
;	COMDAT ??_C@_03EHDOIDNK@?$CFs?$DP@
CONST	SEGMENT
??_C@_03EHDOIDNK@?$CFs?$DP@ DB '%s?', 00H		; `string'
CONST	ENDS
;	COMDAT ??_C@_0BB@OMJKJBIF@Quit?5Free?5Flight@
CONST	SEGMENT
??_C@_0BB@OMJKJBIF@Quit?5Free?5Flight@ DB 'Quit Free Flight', 00H ; `string'
CONST	ENDS
;	COMDAT ??_C@_0CF@EBOMMOO@graphics?2ui?2cohokum?2map?2quitcam@
CONST	SEGMENT
??_C@_0CF@EBOMMOO@graphics?2ui?2cohokum?2map?2quitcam@ DB 'graphics\ui\co'
	DB	'hokum\map\quitcamp.psd', 00H		; `string'
CONST	ENDS
;	COMDAT ??_C@_0BI@DOHPEMEI@quit?5free?5flight?5events@
CONST	SEGMENT
??_C@_0BI@DOHPEMEI@quit?5free?5flight?5events@ DB 'quit free flight event'
	DB	's', 00H					; `string'
CONST	ENDS
; Function compile flags: /Odtp /ZI
; File c:\users\nhv90\projects\eech\aphavoc\source\ui_menu\ingame\fflight\fflight.c
;	COMDAT ?notify_free_flight_accept_quit_campaign_button@@YGXPAUUI_OBJECT@@PAX@Z
_TEXT	SEGMENT
_obj$ = 8						; size = 4
_arg$ = 12						; size = 4
?notify_free_flight_accept_quit_campaign_button@@YGXPAUUI_OBJECT@@PAX@Z PROC ; notify_free_flight_accept_quit_campaign_button, COMDAT

; 190  : {

  00000	55		 push	 ebp
  00001	8b ec		 mov	 ebp, esp
  00003	83 ec 40	 sub	 esp, 64			; 00000040H
  00006	53		 push	 ebx
  00007	56		 push	 esi
  00008	57		 push	 edi

; 191  : 	free_flight_accept_quit_campaign (NULL);

  00009	6a 00		 push	 0
  0000b	e8 00 00 00 00	 call	 ?free_flight_accept_quit_campaign@@YGXPAUEVENT@@@Z ; free_flight_accept_quit_campaign

; 192  : }

  00010	5f		 pop	 edi
  00011	5e		 pop	 esi
  00012	5b		 pop	 ebx
  00013	8b e5		 mov	 esp, ebp
  00015	5d		 pop	 ebp
  00016	c2 08 00	 ret	 8
?notify_free_flight_accept_quit_campaign_button@@YGXPAUUI_OBJECT@@PAX@Z ENDP ; notify_free_flight_accept_quit_campaign_button
_TEXT	ENDS
; Function compile flags: /Odtp /ZI
; File c:\users\nhv90\projects\eech\aphavoc\source\ui_menu\ingame\fflight\fflight.c
;	COMDAT ?free_flight_accept_quit_campaign@@YGXPAUEVENT@@@Z
_TEXT	SEGMENT
_ev$ = 8						; size = 4
?free_flight_accept_quit_campaign@@YGXPAUEVENT@@@Z PROC	; free_flight_accept_quit_campaign, COMDAT

; 176  : {

  00000	55		 push	 ebp
  00001	8b ec		 mov	 ebp, esp
  00003	83 ec 40	 sub	 esp, 64			; 00000040H
  00006	53		 push	 ebx
  00007	56		 push	 esi
  00008	57		 push	 edi

; 177  : 	if (command_line_ui_sounds_muted)

  00009	83 3d 00 00 00
	00 00		 cmp	 DWORD PTR ?command_line_ui_sounds_muted@@3HA, 0 ; command_line_ui_sounds_muted
  00010	74 0a		 je	 SHORT $LN2@free_fligh

; 178  : 		ui_sounds_muted = FALSE; //ataribaby 29/12/2008 for muted UI sounds 

  00012	c7 05 00 00 00
	00 00 00 00 00	 mov	 DWORD PTR ?ui_sounds_muted@@3HA, 0 ; ui_sounds_muted
$LN2@free_fligh:

; 179  :   
; 180  : 	free_flight_cancel_quit_campaign (ev);

  0001c	8b 45 08	 mov	 eax, DWORD PTR _ev$[ebp]
  0001f	50		 push	 eax
  00020	e8 00 00 00 00	 call	 ?free_flight_cancel_quit_campaign@@YGXPAUEVENT@@@Z ; free_flight_cancel_quit_campaign

; 181  : 
; 182  : 	player_quit_session (NULL);

  00025	6a 00		 push	 0
  00027	e8 00 00 00 00	 call	 ?player_quit_session@@YGXPAUEVENT@@@Z ; player_quit_session

; 183  : }

  0002c	5f		 pop	 edi
  0002d	5e		 pop	 esi
  0002e	5b		 pop	 ebx
  0002f	8b e5		 mov	 esp, ebp
  00031	5d		 pop	 ebp
  00032	c2 04 00	 ret	 4
?free_flight_accept_quit_campaign@@YGXPAUEVENT@@@Z ENDP	; free_flight_accept_quit_campaign
_TEXT	ENDS
; Function compile flags: /Odtp /ZI
; File c:\users\nhv90\projects\eech\aphavoc\source\ui_menu\ingame\fflight\fflight.c
;	COMDAT ?notify_free_flight_cancel_quit_campaign_button@@YGXPAUUI_OBJECT@@PAX@Z
_TEXT	SEGMENT
_obj$ = 8						; size = 4
_arg$ = 12						; size = 4
?notify_free_flight_cancel_quit_campaign_button@@YGXPAUUI_OBJECT@@PAX@Z PROC ; notify_free_flight_cancel_quit_campaign_button, COMDAT

; 167  : {

  00000	55		 push	 ebp
  00001	8b ec		 mov	 ebp, esp
  00003	83 ec 40	 sub	 esp, 64			; 00000040H
  00006	53		 push	 ebx
  00007	56		 push	 esi
  00008	57		 push	 edi

; 168  : 	free_flight_cancel_quit_campaign (NULL);

  00009	6a 00		 push	 0
  0000b	e8 00 00 00 00	 call	 ?free_flight_cancel_quit_campaign@@YGXPAUEVENT@@@Z ; free_flight_cancel_quit_campaign

; 169  : }

  00010	5f		 pop	 edi
  00011	5e		 pop	 esi
  00012	5b		 pop	 ebx
  00013	8b e5		 mov	 esp, ebp
  00015	5d		 pop	 ebp
  00016	c2 08 00	 ret	 8
?notify_free_flight_cancel_quit_campaign_button@@YGXPAUUI_OBJECT@@PAX@Z ENDP ; notify_free_flight_cancel_quit_campaign_button
_TEXT	ENDS
; Function compile flags: /Odtp /ZI
; File c:\users\nhv90\projects\eech\aphavoc\source\ui_menu\ingame\fflight\fflight.c
;	COMDAT ?free_flight_cancel_quit_campaign@@YGXPAUEVENT@@@Z
_TEXT	SEGMENT
_ev$ = 8						; size = 4
?free_flight_cancel_quit_campaign@@YGXPAUEVENT@@@Z PROC	; free_flight_cancel_quit_campaign, COMDAT

; 154  : {

  00000	55		 push	 ebp
  00001	8b ec		 mov	 ebp, esp
  00003	83 ec 40	 sub	 esp, 64			; 00000040H
  00006	53		 push	 ebx
  00007	56		 push	 esi
  00008	57		 push	 edi

; 155  : 	set_ui_object_drawable (free_flight_dialog_area, FALSE);

  00009	6a 00		 push	 0
  0000b	a1 00 00 00 00	 mov	 eax, DWORD PTR ?free_flight_dialog_area@@3PAUUI_OBJECT@@A
  00010	50		 push	 eax
  00011	8b 0d 00 00 00
	00		 mov	 ecx, DWORD PTR ?free_flight_dialog_area@@3PAUUI_OBJECT@@A
  00017	8b 11		 mov	 edx, DWORD PTR [ecx]
  00019	8b 04 95 00 00
	00 00		 mov	 eax, DWORD PTR ?fn_set_ui_object_drawable@@3PAP6GXPAUUI_OBJECT@@H@ZA[edx*4]
  00020	ff d0		 call	 eax

; 156  : 
; 157  : 	set_ui_object_drawable (free_flight_quit_campaign_area, FALSE);

  00022	6a 00		 push	 0
  00024	a1 00 00 00 00	 mov	 eax, DWORD PTR ?free_flight_quit_campaign_area@@3PAUUI_OBJECT@@A
  00029	50		 push	 eax
  0002a	8b 0d 00 00 00
	00		 mov	 ecx, DWORD PTR ?free_flight_quit_campaign_area@@3PAUUI_OBJECT@@A
  00030	8b 11		 mov	 edx, DWORD PTR [ecx]
  00032	8b 04 95 00 00
	00 00		 mov	 eax, DWORD PTR ?fn_set_ui_object_drawable@@3PAP6GXPAUUI_OBJECT@@H@ZA[edx*4]
  00039	ff d0		 call	 eax

; 158  : 
; 159  : 	pop_event (quit_free_flight_set_events);

  0003b	68 00 00 00 00	 push	 OFFSET ?quit_free_flight_set_events@@YGXXZ ; quit_free_flight_set_events
  00040	e8 00 00 00 00	 call	 ?pop_event@@YGXP6GXXZ@Z	; pop_event

; 160  : }

  00045	5f		 pop	 edi
  00046	5e		 pop	 esi
  00047	5b		 pop	 ebx
  00048	8b e5		 mov	 esp, ebp
  0004a	5d		 pop	 ebp
  0004b	c2 04 00	 ret	 4
?free_flight_cancel_quit_campaign@@YGXPAUEVENT@@@Z ENDP	; free_flight_cancel_quit_campaign
_TEXT	ENDS
; Function compile flags: /Odtp /ZI
; File c:\users\nhv90\projects\eech\aphavoc\source\ui_menu\ingame\fflight\fflight.c
;	COMDAT ?free_flight_screen_draw_function@@YGXPAUUI_OBJECT@@PAX@Z
_TEXT	SEGMENT
_obj$ = 8						; size = 4
_arg$ = 12						; size = 4
?free_flight_screen_draw_function@@YGXPAUUI_OBJECT@@PAX@Z PROC ; free_flight_screen_draw_function, COMDAT

; 129  : {

  00000	55		 push	 ebp
  00001	8b ec		 mov	 ebp, esp
  00003	83 ec 40	 sub	 esp, 64			; 00000040H
  00006	53		 push	 ebx
  00007	56		 push	 esi
  00008	57		 push	 edi

; 130  : 	//
; 131  : 	// Initialise
; 132  : 	//
; 133  : 
; 134  : 	set_last_drawn_map_object (NULL);

  00009	6a 00		 push	 0
  0000b	e8 00 00 00 00	 call	 ?set_last_drawn_map_object@@YGXPAUUI_OBJECT@@@Z ; set_last_drawn_map_object

; 135  : 
; 136  : 	//
; 137  : 	// General
; 138  : 	//
; 139  : 	
; 140  : 	ingame_screen_draw_function (obj, arg);

  00010	8b 45 0c	 mov	 eax, DWORD PTR _arg$[ebp]
  00013	50		 push	 eax
  00014	8b 4d 08	 mov	 ecx, DWORD PTR _obj$[ebp]
  00017	51		 push	 ecx
  00018	e8 00 00 00 00	 call	 ?ingame_screen_draw_function@@YGXPAUUI_OBJECT@@PAX@Z ; ingame_screen_draw_function

; 141  : }

  0001d	5f		 pop	 edi
  0001e	5e		 pop	 esi
  0001f	5b		 pop	 ebx
  00020	8b e5		 mov	 esp, ebp
  00022	5d		 pop	 ebp
  00023	c2 08 00	 ret	 8
?free_flight_screen_draw_function@@YGXPAUUI_OBJECT@@PAX@Z ENDP ; free_flight_screen_draw_function
_TEXT	ENDS
; Function compile flags: /Odtp /ZI
; File c:\users\nhv90\projects\eech\aphavoc\source\ui_menu\ingame\fflight\fflight.c
;	COMDAT ?notify_free_flight_screen_entered@@YGXPAUUI_OBJECT@@PAX@Z
_TEXT	SEGMENT
_obj$ = 8						; size = 4
_arg$ = 12						; size = 4
?notify_free_flight_screen_entered@@YGXPAUUI_OBJECT@@PAX@Z PROC ; notify_free_flight_screen_entered, COMDAT

; 117  : {

  00000	55		 push	 ebp
  00001	8b ec		 mov	 ebp, esp
  00003	83 ec 40	 sub	 esp, 64			; 00000040H
  00006	53		 push	 ebx
  00007	56		 push	 esi
  00008	57		 push	 edi

; 118  :  	if (command_line_ui_sounds_muted)

  00009	83 3d 00 00 00
	00 00		 cmp	 DWORD PTR ?command_line_ui_sounds_muted@@3HA, 0 ; command_line_ui_sounds_muted
  00010	74 0a		 je	 SHORT $LN2@notify_fre

; 119  :  		ui_sounds_muted = TRUE; //ataribaby 29/12/2008 for muted UI sounds

  00012	c7 05 00 00 00
	00 01 00 00 00	 mov	 DWORD PTR ?ui_sounds_muted@@3HA, 1 ; ui_sounds_muted
$LN2@notify_fre:

; 120  :   
; 121  : 	set_mouse_graphic_on ();

  0001c	e8 00 00 00 00	 call	 ?set_mouse_graphic_on@@YGXXZ ; set_mouse_graphic_on

; 122  : }

  00021	5f		 pop	 edi
  00022	5e		 pop	 esi
  00023	5b		 pop	 ebx
  00024	8b e5		 mov	 esp, ebp
  00026	5d		 pop	 ebp
  00027	c2 08 00	 ret	 8
?notify_free_flight_screen_entered@@YGXPAUUI_OBJECT@@PAX@Z ENDP ; notify_free_flight_screen_entered
_TEXT	ENDS
; Function compile flags: /Odtp /ZI
; File c:\users\nhv90\projects\eech\aphavoc\source\ui_menu\ingame\fflight\fflight.c
;	COMDAT ?free_flight_gunship_type_matches@@YGHH@Z
_TEXT	SEGMENT
tv71 = -68						; size = 4
tv67 = -68						; size = 4
_entity_type$ = 8					; size = 4
?free_flight_gunship_type_matches@@YGHH@Z PROC		; free_flight_gunship_type_matches, COMDAT

; 557  : {

  00000	55		 push	 ebp
  00001	8b ec		 mov	 ebp, esp
  00003	83 ec 44	 sub	 esp, 68			; 00000044H
  00006	53		 push	 ebx
  00007	56		 push	 esi
  00008	57		 push	 edi

; 558  : 	if (free_flight_gunship_type == NUM_GUNSHIP_TYPES)

  00009	83 3d 00 00 00
	00 0a		 cmp	 DWORD PTR ?free_flight_gunship_type@@3W4GUNSHIP_TYPES@@A, 10 ; free_flight_gunship_type, 0000000aH
  00010	75 21		 jne	 SHORT $LN2@free_fligh

; 559  : 	{
; 560  : 		// if none other selected, default to comanche or hokum
; 561  : 		return entity_type == ENTITY_SUB_TYPE_AIRCRAFT_RAH66_COMANCHE || entity_type == ENTITY_SUB_TYPE_AIRCRAFT_KA52_HOKUM_B;

  00012	83 7d 08 02	 cmp	 DWORD PTR _entity_type$[ebp], 2
  00016	74 0f		 je	 SHORT $LN4@free_fligh
  00018	83 7d 08 03	 cmp	 DWORD PTR _entity_type$[ebp], 3
  0001c	74 09		 je	 SHORT $LN4@free_fligh
  0001e	c7 45 bc 00 00
	00 00		 mov	 DWORD PTR tv67[ebp], 0
  00025	eb 07		 jmp	 SHORT $LN5@free_fligh
$LN4@free_fligh:
  00027	c7 45 bc 01 00
	00 00		 mov	 DWORD PTR tv67[ebp], 1
$LN5@free_fligh:
  0002e	8b 45 bc	 mov	 eax, DWORD PTR tv67[ebp]
  00031	eb 24		 jmp	 SHORT $LN1@free_fligh
$LN2@free_fligh:

; 562  : 	}
; 563  : 	return entity_type == gunship_sub_types[free_flight_gunship_type];

  00033	a1 00 00 00 00	 mov	 eax, DWORD PTR ?free_flight_gunship_type@@3W4GUNSHIP_TYPES@@A ; free_flight_gunship_type
  00038	8b 4d 08	 mov	 ecx, DWORD PTR _entity_type$[ebp]
  0003b	3b 0c 85 00 00
	00 00		 cmp	 ecx, DWORD PTR ?gunship_sub_types@@3PAHA[eax*4]
  00042	75 09		 jne	 SHORT $LN6@free_fligh
  00044	c7 45 bc 01 00
	00 00		 mov	 DWORD PTR tv71[ebp], 1
  0004b	eb 07		 jmp	 SHORT $LN7@free_fligh
$LN6@free_fligh:
  0004d	c7 45 bc 00 00
	00 00		 mov	 DWORD PTR tv71[ebp], 0
$LN7@free_fligh:
  00054	8b 45 bc	 mov	 eax, DWORD PTR tv71[ebp]
$LN1@free_fligh:

; 564  : }

  00057	5f		 pop	 edi
  00058	5e		 pop	 esi
  00059	5b		 pop	 ebx
  0005a	8b e5		 mov	 esp, ebp
  0005c	5d		 pop	 ebp
  0005d	c2 04 00	 ret	 4
?free_flight_gunship_type_matches@@YGHH@Z ENDP		; free_flight_gunship_type_matches
_TEXT	ENDS
; Function compile flags: /Odtp /ZI
; File c:\users\nhv90\projects\eech\aphavoc\source\ui_menu\ingame\fflight\fflight.c
;	COMDAT ?quit_free_flight_set_events@@YGXXZ
_TEXT	SEGMENT
?quit_free_flight_set_events@@YGXXZ PROC		; quit_free_flight_set_events, COMDAT

; 199  : {

  00000	55		 push	 ebp
  00001	8b ec		 mov	 ebp, esp
  00003	83 ec 40	 sub	 esp, 64			; 00000040H
  00006	53		 push	 ebx
  00007	56		 push	 esi
  00008	57		 push	 edi

; 200  : 	set_event (DIK_S, MODIFIER_NONE, KEY_STATE_DOWN, free_flight_accept_quit_campaign);

  00009	68 00 00 00 00	 push	 OFFSET ?free_flight_accept_quit_campaign@@YGXPAUEVENT@@@Z ; free_flight_accept_quit_campaign
  0000e	6a 02		 push	 2
  00010	6a 00		 push	 0
  00012	6a 1f		 push	 31			; 0000001fH
  00014	e8 00 00 00 00	 call	 ?set_event@@YGXHHHP6GXPAUEVENT@@@Z@Z ; set_event

; 201  : 	set_event (DIK_Y, MODIFIER_NONE, KEY_STATE_DOWN, free_flight_accept_quit_campaign);

  00019	68 00 00 00 00	 push	 OFFSET ?free_flight_accept_quit_campaign@@YGXPAUEVENT@@@Z ; free_flight_accept_quit_campaign
  0001e	6a 02		 push	 2
  00020	6a 00		 push	 0
  00022	6a 15		 push	 21			; 00000015H
  00024	e8 00 00 00 00	 call	 ?set_event@@YGXHHHP6GXPAUEVENT@@@Z@Z ; set_event

; 202  : 	set_event (DIK_J, MODIFIER_NONE, KEY_STATE_DOWN, free_flight_accept_quit_campaign);

  00029	68 00 00 00 00	 push	 OFFSET ?free_flight_accept_quit_campaign@@YGXPAUEVENT@@@Z ; free_flight_accept_quit_campaign
  0002e	6a 02		 push	 2
  00030	6a 00		 push	 0
  00032	6a 24		 push	 36			; 00000024H
  00034	e8 00 00 00 00	 call	 ?set_event@@YGXHHHP6GXPAUEVENT@@@Z@Z ; set_event

; 203  : 	set_event (DIK_O, MODIFIER_NONE, KEY_STATE_DOWN, free_flight_accept_quit_campaign);

  00039	68 00 00 00 00	 push	 OFFSET ?free_flight_accept_quit_campaign@@YGXPAUEVENT@@@Z ; free_flight_accept_quit_campaign
  0003e	6a 02		 push	 2
  00040	6a 00		 push	 0
  00042	6a 18		 push	 24			; 00000018H
  00044	e8 00 00 00 00	 call	 ?set_event@@YGXHHHP6GXPAUEVENT@@@Z@Z ; set_event

; 204  : 	set_event (DIK_T, MODIFIER_NONE, KEY_STATE_DOWN, free_flight_accept_quit_campaign);

  00049	68 00 00 00 00	 push	 OFFSET ?free_flight_accept_quit_campaign@@YGXPAUEVENT@@@Z ; free_flight_accept_quit_campaign
  0004e	6a 02		 push	 2
  00050	6a 00		 push	 0
  00052	6a 14		 push	 20			; 00000014H
  00054	e8 00 00 00 00	 call	 ?set_event@@YGXHHHP6GXPAUEVENT@@@Z@Z ; set_event

; 205  : 
; 206  : 	set_event (DIK_N, MODIFIER_NONE, KEY_STATE_DOWN, free_flight_cancel_quit_campaign);

  00059	68 00 00 00 00	 push	 OFFSET ?free_flight_cancel_quit_campaign@@YGXPAUEVENT@@@Z ; free_flight_cancel_quit_campaign
  0005e	6a 02		 push	 2
  00060	6a 00		 push	 0
  00062	6a 31		 push	 49			; 00000031H
  00064	e8 00 00 00 00	 call	 ?set_event@@YGXHHHP6GXPAUEVENT@@@Z@Z ; set_event

; 207  : 
; 208  : 	set_event (DIK_X, MODIFIER_LEFT_CONTROL, KEY_STATE_UP, exit_apache_havoc);

  00069	68 00 00 00 00	 push	 OFFSET ?exit_apache_havoc@@YGXPAUEVENT@@@Z ; exit_apache_havoc
  0006e	6a 01		 push	 1
  00070	6a 02		 push	 2
  00072	6a 2d		 push	 45			; 0000002dH
  00074	e8 00 00 00 00	 call	 ?set_event@@YGXHHHP6GXPAUEVENT@@@Z@Z ; set_event

; 209  : 
; 210  : 	set_event (MOUSE_LEFT_BUTTON, MODIFIER_NONE, BUTTON_STATE_EITHER, ui_left_mouse_button);

  00079	68 00 00 00 00	 push	 OFFSET ?ui_left_mouse_button@@YGXPAUEVENT@@@Z ; ui_left_mouse_button
  0007e	6a 03		 push	 3
  00080	6a 00		 push	 0
  00082	68 00 01 00 00	 push	 256			; 00000100H
  00087	e8 00 00 00 00	 call	 ?set_event@@YGXHHHP6GXPAUEVENT@@@Z@Z ; set_event

; 211  : 	set_event (MOUSE_LEFT_BUTTON, MODIFIER_LEFT_SHIFT, BUTTON_STATE_EITHER, ui_left_mouse_button);

  0008c	68 00 00 00 00	 push	 OFFSET ?ui_left_mouse_button@@YGXPAUEVENT@@@Z ; ui_left_mouse_button
  00091	6a 03		 push	 3
  00093	6a 01		 push	 1
  00095	68 00 01 00 00	 push	 256			; 00000100H
  0009a	e8 00 00 00 00	 call	 ?set_event@@YGXHHHP6GXPAUEVENT@@@Z@Z ; set_event

; 212  : 
; 213  : 	set_event (MOUSE_RIGHT_BUTTON, MODIFIER_NONE, BUTTON_STATE_EITHER, ui_right_mouse_button);

  0009f	68 00 00 00 00	 push	 OFFSET ?ui_right_mouse_button@@YGXPAUEVENT@@@Z ; ui_right_mouse_button
  000a4	6a 03		 push	 3
  000a6	6a 00		 push	 0
  000a8	68 01 01 00 00	 push	 257			; 00000101H
  000ad	e8 00 00 00 00	 call	 ?set_event@@YGXHHHP6GXPAUEVENT@@@Z@Z ; set_event

; 214  : 	set_event (MOUSE_RIGHT_BUTTON, MODIFIER_LEFT_SHIFT, BUTTON_STATE_EITHER, ui_right_mouse_button);

  000b2	68 00 00 00 00	 push	 OFFSET ?ui_right_mouse_button@@YGXPAUEVENT@@@Z ; ui_right_mouse_button
  000b7	6a 03		 push	 3
  000b9	6a 01		 push	 1
  000bb	68 01 01 00 00	 push	 257			; 00000101H
  000c0	e8 00 00 00 00	 call	 ?set_event@@YGXHHHP6GXPAUEVENT@@@Z@Z ; set_event

; 215  : }

  000c5	5f		 pop	 edi
  000c6	5e		 pop	 esi
  000c7	5b		 pop	 ebx
  000c8	8b e5		 mov	 esp, ebp
  000ca	5d		 pop	 ebp
  000cb	c3		 ret	 0
?quit_free_flight_set_events@@YGXXZ ENDP		; quit_free_flight_set_events
_TEXT	ENDS
; Function compile flags: /Odtp /ZI
; File c:\users\nhv90\projects\eech\aphavoc\source\ui_menu\ingame\fflight\fflight.c
;	COMDAT ?set_free_flight_gunship_type@@YGXW4GUNSHIP_TYPES@@@Z
_TEXT	SEGMENT
_type$ = 8						; size = 4
?set_free_flight_gunship_type@@YGXW4GUNSHIP_TYPES@@@Z PROC ; set_free_flight_gunship_type, COMDAT

; 552  : {

  00000	55		 push	 ebp
  00001	8b ec		 mov	 ebp, esp
  00003	83 ec 40	 sub	 esp, 64			; 00000040H
  00006	53		 push	 ebx
  00007	56		 push	 esi
  00008	57		 push	 edi

; 553  : 	free_flight_gunship_type = type;	

  00009	8b 45 08	 mov	 eax, DWORD PTR _type$[ebp]
  0000c	a3 00 00 00 00	 mov	 DWORD PTR ?free_flight_gunship_type@@3W4GUNSHIP_TYPES@@A, eax ; free_flight_gunship_type

; 554  : }

  00011	5f		 pop	 edi
  00012	5e		 pop	 esi
  00013	5b		 pop	 ebx
  00014	8b e5		 mov	 esp, ebp
  00016	5d		 pop	 ebp
  00017	c2 04 00	 ret	 4
?set_free_flight_gunship_type@@YGXW4GUNSHIP_TYPES@@@Z ENDP ; set_free_flight_gunship_type
_TEXT	ENDS
; Function compile flags: /Odtp /ZI
; File c:\users\nhv90\projects\eech\aphavoc\source\ui_menu\ingame\fflight\fflight.c
;	COMDAT ?get_free_flight_gunship_type@@YG?AW4GUNSHIP_TYPES@@XZ
_TEXT	SEGMENT
?get_free_flight_gunship_type@@YG?AW4GUNSHIP_TYPES@@XZ PROC ; get_free_flight_gunship_type, COMDAT

; 547  : {

  00000	55		 push	 ebp
  00001	8b ec		 mov	 ebp, esp
  00003	83 ec 40	 sub	 esp, 64			; 00000040H
  00006	53		 push	 ebx
  00007	56		 push	 esi
  00008	57		 push	 edi

; 548  : 	return free_flight_gunship_type;

  00009	a1 00 00 00 00	 mov	 eax, DWORD PTR ?free_flight_gunship_type@@3W4GUNSHIP_TYPES@@A ; free_flight_gunship_type

; 549  : }

  0000e	5f		 pop	 edi
  0000f	5e		 pop	 esi
  00010	5b		 pop	 ebx
  00011	8b e5		 mov	 esp, ebp
  00013	5d		 pop	 ebp
  00014	c3		 ret	 0
?get_free_flight_gunship_type@@YG?AW4GUNSHIP_TYPES@@XZ ENDP ; get_free_flight_gunship_type
_TEXT	ENDS
; Function compile flags: /Odtp /ZI
; File c:\users\nhv90\projects\eech\aphavoc\source\ui_menu\ingame\fflight\fflight.c
;	COMDAT ?free_flight_auto_assign_gunship@@YGPAUENTITY@@XZ
_TEXT	SEGMENT
tv449 = -116						; size = 4
tv429 = -116						; size = 4
tv395 = -116						; size = 4
tv375 = -116						; size = 4
tv345 = -116						; size = 4
tv324 = -116						; size = 4
tv303 = -116						; size = 4
tv284 = -116						; size = 4
tv260 = -116						; size = 4
tv240 = -116						; size = 4
tv212 = -116						; size = 4
tv191 = -116						; size = 4
tv170 = -116						; size = 4
tv151 = -116						; size = 4
tv94 = -116						; size = 4
tv475 = -112						; size = 4
tv441 = -112						; size = 4
tv421 = -112						; size = 4
tv387 = -112						; size = 4
tv367 = -112						; size = 4
tv337 = -112						; size = 4
tv316 = -112						; size = 4
tv296 = -112						; size = 4
tv276 = -112						; size = 4
tv252 = -112						; size = 4
tv232 = -112						; size = 4
tv204 = -112						; size = 4
tv183 = -112						; size = 4
tv163 = -112						; size = 4
tv143 = -112						; size = 4
tv86 = -112						; size = 4
_count$ = -44						; size = 4
_index$ = -40						; size = 4
_c$ = -36						; size = 4
_sub_type$ = -32					; size = 4
_en$ = -28						; size = 4
_gunship_list$ = -24					; size = 4
_member$ = -20						; size = 4
_group$ = -16						; size = 4
_new_task$ = -12					; size = 4
_force$ = -8						; size = 4
_pos$ = -4						; size = 4
?free_flight_auto_assign_gunship@@YGPAUENTITY@@XZ PROC	; free_flight_auto_assign_gunship, COMDAT

; 380  : {

  00000	55		 push	 ebp
  00001	8b ec		 mov	 ebp, esp
  00003	83 ec 74	 sub	 esp, 116		; 00000074H
  00006	53		 push	 ebx
  00007	56		 push	 esi
  00008	57		 push	 edi

; 381  : 	vec3d
; 382  : 		*pos;
; 383  : 	
; 384  : 	entity
; 385  : 		*force,
; 386  : 		*new_task,
; 387  : 		*group,
; 388  : 		*member,
; 389  : 		**gunship_list,
; 390  : 		*en;
; 391  : 
; 392  : 	entity_sub_types
; 393  : 		sub_type;
; 394  : 
; 395  : 	int
; 396  : 		c,
; 397  : 		index,
; 398  : 		count;
; 399  : 
; 400  : 	//
; 401  : 	// Auto assign a helicopter for free flight
; 402  : 	//
; 403  : 
; 404  : 	ASSERT (get_comms_model () == COMMS_MODEL_SERVER);

  00009	83 3d 00 00 00
	00 00		 cmp	 DWORD PTR ?system_comms_model@@3W4COMMS_MODEL_TYPES@@A, 0 ; system_comms_model
  00010	74 18		 je	 SHORT $LN13@free_fligh
  00012	a1 00 00 00 00	 mov	 eax, DWORD PTR ?__LINE__Var@?0??free_flight_auto_assign_gunship@@YGPAUENTITY@@XZ@4JA
  00017	83 c0 18	 add	 eax, 24			; 00000018H
  0001a	50		 push	 eax
  0001b	68 00 00 00 00	 push	 OFFSET ??_C@_0EN@OPENIFFC@c?3?2users?2nhv90?2projects?2eech?2ap@
  00020	68 00 00 00 00	 push	 OFFSET ??_C@_0CJ@DMBLBJBK@get_comms_model?5?$CI?$CJ?5?$DN?$DN?5COMMS_MOD@
  00025	e8 00 00 00 00	 call	 ?process_assert@@YGXPBD0H@Z ; process_assert
$LN13@free_fligh:

; 405  : 
; 406  : 	ASSERT (get_game_type () == GAME_TYPE_FREE_FLIGHT);

  0002a	83 3d 00 00 00
	00 01		 cmp	 DWORD PTR ?game_type@@3W4GAME_TYPES@@A, 1 ; game_type
  00031	74 18		 je	 SHORT $LN14@free_fligh
  00033	a1 00 00 00 00	 mov	 eax, DWORD PTR ?__LINE__Var@?0??free_flight_auto_assign_gunship@@YGPAUENTITY@@XZ@4JA
  00038	83 c0 1a	 add	 eax, 26			; 0000001aH
  0003b	50		 push	 eax
  0003c	68 00 00 00 00	 push	 OFFSET ??_C@_0EN@OPENIFFC@c?3?2users?2nhv90?2projects?2eech?2ap@
  00041	68 00 00 00 00	 push	 OFFSET ??_C@_0CK@NIFCBNLB@get_game_type?5?$CI?$CJ?5?$DN?$DN?5GAME_TYPE_F@
  00046	e8 00 00 00 00	 call	 ?process_assert@@YGXPBD0H@Z ; process_assert
$LN14@free_fligh:

; 407  : 
; 408  : 	ASSERT (get_pilot_entity ());

  0004b	83 3d 00 00 00
	00 00		 cmp	 DWORD PTR ?pilot_entity@@3PAUENTITY@@A, 0 ; pilot_entity
  00052	75 18		 jne	 SHORT $LN15@free_fligh
  00054	a1 00 00 00 00	 mov	 eax, DWORD PTR ?__LINE__Var@?0??free_flight_auto_assign_gunship@@YGPAUENTITY@@XZ@4JA
  00059	83 c0 1c	 add	 eax, 28			; 0000001cH
  0005c	50		 push	 eax
  0005d	68 00 00 00 00	 push	 OFFSET ??_C@_0EN@OPENIFFC@c?3?2users?2nhv90?2projects?2eech?2ap@
  00062	68 00 00 00 00	 push	 OFFSET ??_C@_0BE@KOLCCDEB@get_pilot_entity?5?$CI?$CJ@
  00067	e8 00 00 00 00	 call	 ?process_assert@@YGXPBD0H@Z ; process_assert
$LN15@free_fligh:

; 409  : 
; 410  : 	if (get_gunship_entity ())

  0006c	83 3d 00 00 00
	00 00		 cmp	 DWORD PTR ?gunship_entity@@3PAUENTITY@@A, 0 ; gunship_entity
  00073	74 07		 je	 SHORT $LN16@free_fligh

; 411  : 	{
; 412  : 		return NULL;

  00075	33 c0		 xor	 eax, eax
  00077	e9 b6 09 00 00	 jmp	 $LN1@free_fligh
$LN16@free_fligh:

; 413  : 	}
; 414  : 
; 415  : 	force = get_local_entity_parent (get_pilot_entity (), LIST_TYPE_PILOT);

  0007c	83 3d 00 00 00
	00 00		 cmp	 DWORD PTR ?pilot_entity@@3PAUENTITY@@A, 0 ; pilot_entity
  00083	74 0c		 je	 SHORT $LN30@free_fligh
  00085	a1 00 00 00 00	 mov	 eax, DWORD PTR ?pilot_entity@@3PAUENTITY@@A ; pilot_entity
  0008a	8b 08		 mov	 ecx, DWORD PTR [eax]
  0008c	89 4d 90	 mov	 DWORD PTR tv86[ebp], ecx
  0008f	eb 21		 jmp	 SHORT $LN31@free_fligh
$LN30@free_fligh:
  00091	8b 15 00 00 00
	00		 mov	 edx, DWORD PTR ?__LINE__Var@?0??free_flight_auto_assign_gunship@@YGPAUENTITY@@XZ@4JA
  00097	83 c2 23	 add	 edx, 35			; 00000023H
  0009a	52		 push	 edx
  0009b	68 00 00 00 00	 push	 OFFSET ??_C@_0EN@OPENIFFC@c?3?2users?2nhv90?2projects?2eech?2ap@
  000a0	a1 00 00 00 00	 mov	 eax, DWORD PTR ?null_entity_pointer_message@@3PBDB ; null_entity_pointer_message
  000a5	50		 push	 eax
  000a6	e8 00 00 00 00	 call	 ?process_assert@@YGXPBD0H@Z ; process_assert
  000ab	c7 45 90 00 00
	00 00		 mov	 DWORD PTR tv86[ebp], 0
$LN31@free_fligh:
  000b2	b9 01 00 00 00	 mov	 ecx, 1
  000b7	85 c9		 test	 ecx, ecx
  000b9	74 09		 je	 SHORT $LN32@free_fligh
  000bb	c7 45 8c 1c 00
	00 00		 mov	 DWORD PTR tv94[ebp], 28	; 0000001cH
  000c2	eb 21		 jmp	 SHORT $LN33@free_fligh
$LN32@free_fligh:
  000c4	8b 15 00 00 00
	00		 mov	 edx, DWORD PTR ?__LINE__Var@?0??free_flight_auto_assign_gunship@@YGPAUENTITY@@XZ@4JA
  000ca	83 c2 23	 add	 edx, 35			; 00000023H
  000cd	52		 push	 edx
  000ce	68 00 00 00 00	 push	 OFFSET ??_C@_0EN@OPENIFFC@c?3?2users?2nhv90?2projects?2eech?2ap@
  000d3	a1 00 00 00 00	 mov	 eax, DWORD PTR ?overload_invalid_list_type_message@@3PBDB ; overload_invalid_list_type_message
  000d8	50		 push	 eax
  000d9	e8 00 00 00 00	 call	 ?process_assert@@YGXPBD0H@Z ; process_assert
  000de	c7 45 8c 00 00
	00 00		 mov	 DWORD PTR tv94[ebp], 0
$LN33@free_fligh:
  000e5	6a 1c		 push	 28			; 0000001cH
  000e7	8b 0d 00 00 00
	00		 mov	 ecx, DWORD PTR ?pilot_entity@@3PAUENTITY@@A ; pilot_entity
  000ed	51		 push	 ecx
  000ee	69 55 90 b4 00
	00 00		 imul	 edx, DWORD PTR tv86[ebp], 180
  000f5	8b 45 8c	 mov	 eax, DWORD PTR tv94[ebp]
  000f8	8b 8c 82 00 00
	00 00		 mov	 ecx, DWORD PTR ?fn_get_local_entity_parent@@3PAY0CN@P6GPAUENTITY@@PAU1@W4LIST_TYPES@@@ZA[edx+eax*4]
  000ff	ff d1		 call	 ecx
  00101	89 45 f8	 mov	 DWORD PTR _force$[ebp], eax

; 416  : 
; 417  : 	ASSERT (force);

  00104	83 7d f8 00	 cmp	 DWORD PTR _force$[ebp], 0
  00108	75 18		 jne	 SHORT $LN17@free_fligh
  0010a	a1 00 00 00 00	 mov	 eax, DWORD PTR ?__LINE__Var@?0??free_flight_auto_assign_gunship@@YGPAUENTITY@@XZ@4JA
  0010f	83 c0 25	 add	 eax, 37			; 00000025H
  00112	50		 push	 eax
  00113	68 00 00 00 00	 push	 OFFSET ??_C@_0EN@OPENIFFC@c?3?2users?2nhv90?2projects?2eech?2ap@
  00118	68 00 00 00 00	 push	 OFFSET ??_C@_05BINPNAAL@force@
  0011d	e8 00 00 00 00	 call	 ?process_assert@@YGXPBD0H@Z ; process_assert
$LN17@free_fligh:

; 418  : 
; 419  : 	//
; 420  : 	// Count up candidates
; 421  : 	//
; 422  : 
; 423  : 	count = 0;

  00122	c7 45 d4 00 00
	00 00		 mov	 DWORD PTR _count$[ebp], 0

; 424  : 
; 425  : 	en = get_local_entity_first_child (force, LIST_TYPE_AIR_REGISTRY);

  00129	83 7d f8 00	 cmp	 DWORD PTR _force$[ebp], 0
  0012d	74 0a		 je	 SHORT $LN34@free_fligh
  0012f	8b 45 f8	 mov	 eax, DWORD PTR _force$[ebp]
  00132	8b 08		 mov	 ecx, DWORD PTR [eax]
  00134	89 4d 90	 mov	 DWORD PTR tv143[ebp], ecx
  00137	eb 21		 jmp	 SHORT $LN35@free_fligh
$LN34@free_fligh:
  00139	8b 15 00 00 00
	00		 mov	 edx, DWORD PTR ?__LINE__Var@?0??free_flight_auto_assign_gunship@@YGPAUENTITY@@XZ@4JA
  0013f	83 c2 2d	 add	 edx, 45			; 0000002dH
  00142	52		 push	 edx
  00143	68 00 00 00 00	 push	 OFFSET ??_C@_0EN@OPENIFFC@c?3?2users?2nhv90?2projects?2eech?2ap@
  00148	a1 00 00 00 00	 mov	 eax, DWORD PTR ?null_entity_pointer_message@@3PBDB ; null_entity_pointer_message
  0014d	50		 push	 eax
  0014e	e8 00 00 00 00	 call	 ?process_assert@@YGXPBD0H@Z ; process_assert
  00153	c7 45 90 00 00
	00 00		 mov	 DWORD PTR tv143[ebp], 0
$LN35@free_fligh:
  0015a	b9 01 00 00 00	 mov	 ecx, 1
  0015f	85 c9		 test	 ecx, ecx
  00161	74 09		 je	 SHORT $LN36@free_fligh
  00163	c7 45 8c 02 00
	00 00		 mov	 DWORD PTR tv151[ebp], 2
  0016a	eb 21		 jmp	 SHORT $LN37@free_fligh
$LN36@free_fligh:
  0016c	8b 15 00 00 00
	00		 mov	 edx, DWORD PTR ?__LINE__Var@?0??free_flight_auto_assign_gunship@@YGPAUENTITY@@XZ@4JA
  00172	83 c2 2d	 add	 edx, 45			; 0000002dH
  00175	52		 push	 edx
  00176	68 00 00 00 00	 push	 OFFSET ??_C@_0EN@OPENIFFC@c?3?2users?2nhv90?2projects?2eech?2ap@
  0017b	a1 00 00 00 00	 mov	 eax, DWORD PTR ?overload_invalid_list_type_message@@3PBDB ; overload_invalid_list_type_message
  00180	50		 push	 eax
  00181	e8 00 00 00 00	 call	 ?process_assert@@YGXPBD0H@Z ; process_assert
  00186	c7 45 8c 00 00
	00 00		 mov	 DWORD PTR tv151[ebp], 0
$LN37@free_fligh:
  0018d	6a 02		 push	 2
  0018f	8b 4d f8	 mov	 ecx, DWORD PTR _force$[ebp]
  00192	51		 push	 ecx
  00193	69 55 90 b4 00
	00 00		 imul	 edx, DWORD PTR tv143[ebp], 180
  0019a	8b 45 8c	 mov	 eax, DWORD PTR tv151[ebp]
  0019d	8b 8c 82 00 00
	00 00		 mov	 ecx, DWORD PTR ?fn_get_local_entity_first_child@@3PAY0CN@P6GPAUENTITY@@PAU1@W4LIST_TYPES@@@ZA[edx+eax*4]
  001a4	ff d1		 call	 ecx
  001a6	89 45 e4	 mov	 DWORD PTR _en$[ebp], eax
$LN2@free_fligh:

; 426  : 	
; 427  : 	while (en)

  001a9	83 7d e4 00	 cmp	 DWORD PTR _en$[ebp], 0
  001ad	0f 84 ba 02 00
	00		 je	 $LN3@free_fligh

; 428  : 	{
; 429  : 		if (get_local_entity_int_value (en, INT_TYPE_GROUP_MODE) == GROUP_MODE_IDLE)

  001b3	83 7d e4 00	 cmp	 DWORD PTR _en$[ebp], 0
  001b7	74 0a		 je	 SHORT $LN38@free_fligh
  001b9	8b 45 e4	 mov	 eax, DWORD PTR _en$[ebp]
  001bc	8b 08		 mov	 ecx, DWORD PTR [eax]
  001be	89 4d 90	 mov	 DWORD PTR tv163[ebp], ecx
  001c1	eb 1d		 jmp	 SHORT $LN39@free_fligh
$LN38@free_fligh:
  001c3	68 ad 01 00 00	 push	 429			; 000001adH
  001c8	68 00 00 00 00	 push	 OFFSET ??_C@_0EN@OPENIFFC@c?3?2users?2nhv90?2projects?2eech?2ap@
  001cd	8b 15 00 00 00
	00		 mov	 edx, DWORD PTR ?null_entity_pointer_message@@3PBDB ; null_entity_pointer_message
  001d3	52		 push	 edx
  001d4	e8 00 00 00 00	 call	 ?process_assert@@YGXPBD0H@Z ; process_assert
  001d9	c7 45 90 00 00
	00 00		 mov	 DWORD PTR tv163[ebp], 0
$LN39@free_fligh:
  001e0	b8 01 00 00 00	 mov	 eax, 1
  001e5	85 c0		 test	 eax, eax
  001e7	74 09		 je	 SHORT $LN40@free_fligh
  001e9	c7 45 8c 4d 00
	00 00		 mov	 DWORD PTR tv170[ebp], 77 ; 0000004dH
  001f0	eb 1d		 jmp	 SHORT $LN41@free_fligh
$LN40@free_fligh:
  001f2	68 ad 01 00 00	 push	 429			; 000001adH
  001f7	68 00 00 00 00	 push	 OFFSET ??_C@_0EN@OPENIFFC@c?3?2users?2nhv90?2projects?2eech?2ap@
  001fc	8b 0d 00 00 00
	00		 mov	 ecx, DWORD PTR ?overload_invalid_int_type_message@@3PBDB ; overload_invalid_int_type_message
  00202	51		 push	 ecx
  00203	e8 00 00 00 00	 call	 ?process_assert@@YGXPBD0H@Z ; process_assert
  00208	c7 45 8c 00 00
	00 00		 mov	 DWORD PTR tv170[ebp], 0
$LN41@free_fligh:
  0020f	6a 4d		 push	 77			; 0000004dH
  00211	8b 55 e4	 mov	 edx, DWORD PTR _en$[ebp]
  00214	52		 push	 edx
  00215	69 45 90 5c 04
	00 00		 imul	 eax, DWORD PTR tv163[ebp], 1116
  0021c	8b 4d 8c	 mov	 ecx, DWORD PTR tv170[ebp]
  0021f	8b 94 88 00 00
	00 00		 mov	 edx, DWORD PTR ?fn_get_local_entity_int_value@@3PAY0BBH@P6GHPAUENTITY@@W4INT_TYPES@@@ZA[eax+ecx*4]
  00226	ff d2		 call	 edx
  00228	85 c0		 test	 eax, eax
  0022a	0f 85 b8 01 00
	00		 jne	 $LN18@free_fligh

; 430  : 		{
; 431  : 			member = get_local_entity_first_child (en, LIST_TYPE_MEMBER);

  00230	83 7d e4 00	 cmp	 DWORD PTR _en$[ebp], 0
  00234	74 0a		 je	 SHORT $LN42@free_fligh
  00236	8b 45 e4	 mov	 eax, DWORD PTR _en$[ebp]
  00239	8b 08		 mov	 ecx, DWORD PTR [eax]
  0023b	89 4d 90	 mov	 DWORD PTR tv183[ebp], ecx
  0023e	eb 21		 jmp	 SHORT $LN43@free_fligh
$LN42@free_fligh:
  00240	8b 15 00 00 00
	00		 mov	 edx, DWORD PTR ?__LINE__Var@?0??free_flight_auto_assign_gunship@@YGPAUENTITY@@XZ@4JA
  00246	83 c2 33	 add	 edx, 51			; 00000033H
  00249	52		 push	 edx
  0024a	68 00 00 00 00	 push	 OFFSET ??_C@_0EN@OPENIFFC@c?3?2users?2nhv90?2projects?2eech?2ap@
  0024f	a1 00 00 00 00	 mov	 eax, DWORD PTR ?null_entity_pointer_message@@3PBDB ; null_entity_pointer_message
  00254	50		 push	 eax
  00255	e8 00 00 00 00	 call	 ?process_assert@@YGXPBD0H@Z ; process_assert
  0025a	c7 45 90 00 00
	00 00		 mov	 DWORD PTR tv183[ebp], 0
$LN43@free_fligh:
  00261	b9 01 00 00 00	 mov	 ecx, 1
  00266	85 c9		 test	 ecx, ecx
  00268	74 09		 je	 SHORT $LN44@free_fligh
  0026a	c7 45 8c 19 00
	00 00		 mov	 DWORD PTR tv191[ebp], 25 ; 00000019H
  00271	eb 21		 jmp	 SHORT $LN45@free_fligh
$LN44@free_fligh:
  00273	8b 15 00 00 00
	00		 mov	 edx, DWORD PTR ?__LINE__Var@?0??free_flight_auto_assign_gunship@@YGPAUENTITY@@XZ@4JA
  00279	83 c2 33	 add	 edx, 51			; 00000033H
  0027c	52		 push	 edx
  0027d	68 00 00 00 00	 push	 OFFSET ??_C@_0EN@OPENIFFC@c?3?2users?2nhv90?2projects?2eech?2ap@
  00282	a1 00 00 00 00	 mov	 eax, DWORD PTR ?overload_invalid_list_type_message@@3PBDB ; overload_invalid_list_type_message
  00287	50		 push	 eax
  00288	e8 00 00 00 00	 call	 ?process_assert@@YGXPBD0H@Z ; process_assert
  0028d	c7 45 8c 00 00
	00 00		 mov	 DWORD PTR tv191[ebp], 0
$LN45@free_fligh:
  00294	6a 19		 push	 25			; 00000019H
  00296	8b 4d e4	 mov	 ecx, DWORD PTR _en$[ebp]
  00299	51		 push	 ecx
  0029a	69 55 90 b4 00
	00 00		 imul	 edx, DWORD PTR tv183[ebp], 180
  002a1	8b 45 8c	 mov	 eax, DWORD PTR tv191[ebp]
  002a4	8b 8c 82 00 00
	00 00		 mov	 ecx, DWORD PTR ?fn_get_local_entity_first_child@@3PAY0CN@P6GPAUENTITY@@PAU1@W4LIST_TYPES@@@ZA[edx+eax*4]
  002ab	ff d1		 call	 ecx
  002ad	89 45 ec	 mov	 DWORD PTR _member$[ebp], eax
$LN4@free_fligh:

; 432  : 
; 433  : 			while (member)

  002b0	83 7d ec 00	 cmp	 DWORD PTR _member$[ebp], 0
  002b4	0f 84 2e 01 00
	00		 je	 $LN18@free_fligh

; 434  : 			{
; 435  : 				sub_type = get_local_entity_int_value (member, INT_TYPE_ENTITY_SUB_TYPE);

  002ba	83 7d ec 00	 cmp	 DWORD PTR _member$[ebp], 0
  002be	74 0a		 je	 SHORT $LN46@free_fligh
  002c0	8b 45 ec	 mov	 eax, DWORD PTR _member$[ebp]
  002c3	8b 08		 mov	 ecx, DWORD PTR [eax]
  002c5	89 4d 90	 mov	 DWORD PTR tv204[ebp], ecx
  002c8	eb 21		 jmp	 SHORT $LN47@free_fligh
$LN46@free_fligh:
  002ca	8b 15 00 00 00
	00		 mov	 edx, DWORD PTR ?__LINE__Var@?0??free_flight_auto_assign_gunship@@YGPAUENTITY@@XZ@4JA
  002d0	83 c2 37	 add	 edx, 55			; 00000037H
  002d3	52		 push	 edx
  002d4	68 00 00 00 00	 push	 OFFSET ??_C@_0EN@OPENIFFC@c?3?2users?2nhv90?2projects?2eech?2ap@
  002d9	a1 00 00 00 00	 mov	 eax, DWORD PTR ?null_entity_pointer_message@@3PBDB ; null_entity_pointer_message
  002de	50		 push	 eax
  002df	e8 00 00 00 00	 call	 ?process_assert@@YGXPBD0H@Z ; process_assert
  002e4	c7 45 90 00 00
	00 00		 mov	 DWORD PTR tv204[ebp], 0
$LN47@free_fligh:
  002eb	b9 01 00 00 00	 mov	 ecx, 1
  002f0	85 c9		 test	 ecx, ecx
  002f2	74 09		 je	 SHORT $LN48@free_fligh
  002f4	c7 45 8c 34 00
	00 00		 mov	 DWORD PTR tv212[ebp], 52 ; 00000034H
  002fb	eb 21		 jmp	 SHORT $LN49@free_fligh
$LN48@free_fligh:
  002fd	8b 15 00 00 00
	00		 mov	 edx, DWORD PTR ?__LINE__Var@?0??free_flight_auto_assign_gunship@@YGPAUENTITY@@XZ@4JA
  00303	83 c2 37	 add	 edx, 55			; 00000037H
  00306	52		 push	 edx
  00307	68 00 00 00 00	 push	 OFFSET ??_C@_0EN@OPENIFFC@c?3?2users?2nhv90?2projects?2eech?2ap@
  0030c	a1 00 00 00 00	 mov	 eax, DWORD PTR ?overload_invalid_int_type_message@@3PBDB ; overload_invalid_int_type_message
  00311	50		 push	 eax
  00312	e8 00 00 00 00	 call	 ?process_assert@@YGXPBD0H@Z ; process_assert
  00317	c7 45 8c 00 00
	00 00		 mov	 DWORD PTR tv212[ebp], 0
$LN49@free_fligh:
  0031e	6a 34		 push	 52			; 00000034H
  00320	8b 4d ec	 mov	 ecx, DWORD PTR _member$[ebp]
  00323	51		 push	 ecx
  00324	69 55 90 5c 04
	00 00		 imul	 edx, DWORD PTR tv204[ebp], 1116
  0032b	8b 45 8c	 mov	 eax, DWORD PTR tv212[ebp]
  0032e	8b 8c 82 00 00
	00 00		 mov	 ecx, DWORD PTR ?fn_get_local_entity_int_value@@3PAY0BBH@P6GHPAUENTITY@@W4INT_TYPES@@@ZA[edx+eax*4]
  00335	ff d1		 call	 ecx
  00337	89 45 e0	 mov	 DWORD PTR _sub_type$[ebp], eax

; 436  : 
; 437  : 				if (free_flight_gunship_type_matches(sub_type))

  0033a	8b 45 e0	 mov	 eax, DWORD PTR _sub_type$[ebp]
  0033d	50		 push	 eax
  0033e	e8 00 00 00 00	 call	 ?free_flight_gunship_type_matches@@YGHH@Z ; free_flight_gunship_type_matches
  00343	85 c0		 test	 eax, eax
  00345	74 1c		 je	 SHORT $LN19@free_fligh

; 438  : 					if (get_local_entity_suitable_for_player (member, get_pilot_entity ()))

  00347	a1 00 00 00 00	 mov	 eax, DWORD PTR ?pilot_entity@@3PAUENTITY@@A ; pilot_entity
  0034c	50		 push	 eax
  0034d	8b 4d ec	 mov	 ecx, DWORD PTR _member$[ebp]
  00350	51		 push	 ecx
  00351	e8 00 00 00 00	 call	 ?get_local_entity_suitable_for_player@@YGHPAUENTITY@@0@Z ; get_local_entity_suitable_for_player
  00356	85 c0		 test	 eax, eax
  00358	74 09		 je	 SHORT $LN19@free_fligh

; 439  : 						count ++;

  0035a	8b 45 d4	 mov	 eax, DWORD PTR _count$[ebp]
  0035d	83 c0 01	 add	 eax, 1
  00360	89 45 d4	 mov	 DWORD PTR _count$[ebp], eax
$LN19@free_fligh:

; 440  : 
; 441  : 				member = get_local_entity_child_succ (member, LIST_TYPE_MEMBER);

  00363	83 7d ec 00	 cmp	 DWORD PTR _member$[ebp], 0
  00367	74 0a		 je	 SHORT $LN50@free_fligh
  00369	8b 45 ec	 mov	 eax, DWORD PTR _member$[ebp]
  0036c	8b 08		 mov	 ecx, DWORD PTR [eax]
  0036e	89 4d 90	 mov	 DWORD PTR tv232[ebp], ecx
  00371	eb 21		 jmp	 SHORT $LN51@free_fligh
$LN50@free_fligh:
  00373	8b 15 00 00 00
	00		 mov	 edx, DWORD PTR ?__LINE__Var@?0??free_flight_auto_assign_gunship@@YGPAUENTITY@@XZ@4JA
  00379	83 c2 3d	 add	 edx, 61			; 0000003dH
  0037c	52		 push	 edx
  0037d	68 00 00 00 00	 push	 OFFSET ??_C@_0EN@OPENIFFC@c?3?2users?2nhv90?2projects?2eech?2ap@
  00382	a1 00 00 00 00	 mov	 eax, DWORD PTR ?null_entity_pointer_message@@3PBDB ; null_entity_pointer_message
  00387	50		 push	 eax
  00388	e8 00 00 00 00	 call	 ?process_assert@@YGXPBD0H@Z ; process_assert
  0038d	c7 45 90 00 00
	00 00		 mov	 DWORD PTR tv232[ebp], 0
$LN51@free_fligh:
  00394	b9 01 00 00 00	 mov	 ecx, 1
  00399	85 c9		 test	 ecx, ecx
  0039b	74 09		 je	 SHORT $LN52@free_fligh
  0039d	c7 45 8c 19 00
	00 00		 mov	 DWORD PTR tv240[ebp], 25 ; 00000019H
  003a4	eb 21		 jmp	 SHORT $LN53@free_fligh
$LN52@free_fligh:
  003a6	8b 15 00 00 00
	00		 mov	 edx, DWORD PTR ?__LINE__Var@?0??free_flight_auto_assign_gunship@@YGPAUENTITY@@XZ@4JA
  003ac	83 c2 3d	 add	 edx, 61			; 0000003dH
  003af	52		 push	 edx
  003b0	68 00 00 00 00	 push	 OFFSET ??_C@_0EN@OPENIFFC@c?3?2users?2nhv90?2projects?2eech?2ap@
  003b5	a1 00 00 00 00	 mov	 eax, DWORD PTR ?overload_invalid_list_type_message@@3PBDB ; overload_invalid_list_type_message
  003ba	50		 push	 eax
  003bb	e8 00 00 00 00	 call	 ?process_assert@@YGXPBD0H@Z ; process_assert
  003c0	c7 45 8c 00 00
	00 00		 mov	 DWORD PTR tv240[ebp], 0
$LN53@free_fligh:
  003c7	6a 19		 push	 25			; 00000019H
  003c9	8b 4d ec	 mov	 ecx, DWORD PTR _member$[ebp]
  003cc	51		 push	 ecx
  003cd	69 55 90 b4 00
	00 00		 imul	 edx, DWORD PTR tv232[ebp], 180
  003d4	8b 45 8c	 mov	 eax, DWORD PTR tv240[ebp]
  003d7	8b 8c 82 00 00
	00 00		 mov	 ecx, DWORD PTR ?fn_get_local_entity_child_succ@@3PAY0CN@P6GPAUENTITY@@PAU1@W4LIST_TYPES@@@ZA[edx+eax*4]
  003de	ff d1		 call	 ecx
  003e0	89 45 ec	 mov	 DWORD PTR _member$[ebp], eax

; 442  : 			}

  003e3	e9 c8 fe ff ff	 jmp	 $LN4@free_fligh
$LN18@free_fligh:

; 443  : 		}
; 444  : 
; 445  : 		en = get_local_entity_child_succ (en, LIST_TYPE_AIR_REGISTRY);

  003e8	83 7d e4 00	 cmp	 DWORD PTR _en$[ebp], 0
  003ec	74 0a		 je	 SHORT $LN54@free_fligh
  003ee	8b 45 e4	 mov	 eax, DWORD PTR _en$[ebp]
  003f1	8b 08		 mov	 ecx, DWORD PTR [eax]
  003f3	89 4d 90	 mov	 DWORD PTR tv252[ebp], ecx
  003f6	eb 21		 jmp	 SHORT $LN55@free_fligh
$LN54@free_fligh:
  003f8	8b 15 00 00 00
	00		 mov	 edx, DWORD PTR ?__LINE__Var@?0??free_flight_auto_assign_gunship@@YGPAUENTITY@@XZ@4JA
  003fe	83 c2 41	 add	 edx, 65			; 00000041H
  00401	52		 push	 edx
  00402	68 00 00 00 00	 push	 OFFSET ??_C@_0EN@OPENIFFC@c?3?2users?2nhv90?2projects?2eech?2ap@
  00407	a1 00 00 00 00	 mov	 eax, DWORD PTR ?null_entity_pointer_message@@3PBDB ; null_entity_pointer_message
  0040c	50		 push	 eax
  0040d	e8 00 00 00 00	 call	 ?process_assert@@YGXPBD0H@Z ; process_assert
  00412	c7 45 90 00 00
	00 00		 mov	 DWORD PTR tv252[ebp], 0
$LN55@free_fligh:
  00419	b9 01 00 00 00	 mov	 ecx, 1
  0041e	85 c9		 test	 ecx, ecx
  00420	74 09		 je	 SHORT $LN56@free_fligh
  00422	c7 45 8c 02 00
	00 00		 mov	 DWORD PTR tv260[ebp], 2
  00429	eb 21		 jmp	 SHORT $LN57@free_fligh
$LN56@free_fligh:
  0042b	8b 15 00 00 00
	00		 mov	 edx, DWORD PTR ?__LINE__Var@?0??free_flight_auto_assign_gunship@@YGPAUENTITY@@XZ@4JA
  00431	83 c2 41	 add	 edx, 65			; 00000041H
  00434	52		 push	 edx
  00435	68 00 00 00 00	 push	 OFFSET ??_C@_0EN@OPENIFFC@c?3?2users?2nhv90?2projects?2eech?2ap@
  0043a	a1 00 00 00 00	 mov	 eax, DWORD PTR ?overload_invalid_list_type_message@@3PBDB ; overload_invalid_list_type_message
  0043f	50		 push	 eax
  00440	e8 00 00 00 00	 call	 ?process_assert@@YGXPBD0H@Z ; process_assert
  00445	c7 45 8c 00 00
	00 00		 mov	 DWORD PTR tv260[ebp], 0
$LN57@free_fligh:
  0044c	6a 02		 push	 2
  0044e	8b 4d e4	 mov	 ecx, DWORD PTR _en$[ebp]
  00451	51		 push	 ecx
  00452	69 55 90 b4 00
	00 00		 imul	 edx, DWORD PTR tv252[ebp], 180
  00459	8b 45 8c	 mov	 eax, DWORD PTR tv260[ebp]
  0045c	8b 8c 82 00 00
	00 00		 mov	 ecx, DWORD PTR ?fn_get_local_entity_child_succ@@3PAY0CN@P6GPAUENTITY@@PAU1@W4LIST_TYPES@@@ZA[edx+eax*4]
  00463	ff d1		 call	 ecx
  00465	89 45 e4	 mov	 DWORD PTR _en$[ebp], eax

; 446  : 	}

  00468	e9 3c fd ff ff	 jmp	 $LN2@free_fligh
$LN3@free_fligh:

; 447  : 
; 448  : 	if (count == 0)

  0046d	83 7d d4 00	 cmp	 DWORD PTR _count$[ebp], 0
  00471	75 07		 jne	 SHORT $LN21@free_fligh

; 449  : 	{
; 450  : 		return NULL;

  00473	33 c0		 xor	 eax, eax
  00475	e9 b8 05 00 00	 jmp	 $LN1@free_fligh
$LN21@free_fligh:

; 451  : 	}
; 452  : 
; 453  : 	//
; 454  : 	// Create list of candidates
; 455  : 	//
; 456  : 	
; 457  : 	gunship_list = (entity **) safe_malloc (sizeof (entity *) * count);

  0047a	8b 45 d4	 mov	 eax, DWORD PTR _count$[ebp]
  0047d	c1 e0 02	 shl	 eax, 2
  00480	50		 push	 eax
  00481	e8 00 00 00 00	 call	 ?safe_malloc_memory@@YGPAXI@Z ; safe_malloc_memory
  00486	89 45 e8	 mov	 DWORD PTR _gunship_list$[ebp], eax

; 458  : 
; 459  : 	count = 0;

  00489	c7 45 d4 00 00
	00 00		 mov	 DWORD PTR _count$[ebp], 0

; 460  : 
; 461  : 	en = get_local_entity_first_child (force, LIST_TYPE_AIR_REGISTRY);

  00490	83 7d f8 00	 cmp	 DWORD PTR _force$[ebp], 0
  00494	74 0a		 je	 SHORT $LN58@free_fligh
  00496	8b 45 f8	 mov	 eax, DWORD PTR _force$[ebp]
  00499	8b 08		 mov	 ecx, DWORD PTR [eax]
  0049b	89 4d 90	 mov	 DWORD PTR tv276[ebp], ecx
  0049e	eb 21		 jmp	 SHORT $LN59@free_fligh
$LN58@free_fligh:
  004a0	8b 15 00 00 00
	00		 mov	 edx, DWORD PTR ?__LINE__Var@?0??free_flight_auto_assign_gunship@@YGPAUENTITY@@XZ@4JA
  004a6	83 c2 51	 add	 edx, 81			; 00000051H
  004a9	52		 push	 edx
  004aa	68 00 00 00 00	 push	 OFFSET ??_C@_0EN@OPENIFFC@c?3?2users?2nhv90?2projects?2eech?2ap@
  004af	a1 00 00 00 00	 mov	 eax, DWORD PTR ?null_entity_pointer_message@@3PBDB ; null_entity_pointer_message
  004b4	50		 push	 eax
  004b5	e8 00 00 00 00	 call	 ?process_assert@@YGXPBD0H@Z ; process_assert
  004ba	c7 45 90 00 00
	00 00		 mov	 DWORD PTR tv276[ebp], 0
$LN59@free_fligh:
  004c1	b9 01 00 00 00	 mov	 ecx, 1
  004c6	85 c9		 test	 ecx, ecx
  004c8	74 09		 je	 SHORT $LN60@free_fligh
  004ca	c7 45 8c 02 00
	00 00		 mov	 DWORD PTR tv284[ebp], 2
  004d1	eb 21		 jmp	 SHORT $LN61@free_fligh
$LN60@free_fligh:
  004d3	8b 15 00 00 00
	00		 mov	 edx, DWORD PTR ?__LINE__Var@?0??free_flight_auto_assign_gunship@@YGPAUENTITY@@XZ@4JA
  004d9	83 c2 51	 add	 edx, 81			; 00000051H
  004dc	52		 push	 edx
  004dd	68 00 00 00 00	 push	 OFFSET ??_C@_0EN@OPENIFFC@c?3?2users?2nhv90?2projects?2eech?2ap@
  004e2	a1 00 00 00 00	 mov	 eax, DWORD PTR ?overload_invalid_list_type_message@@3PBDB ; overload_invalid_list_type_message
  004e7	50		 push	 eax
  004e8	e8 00 00 00 00	 call	 ?process_assert@@YGXPBD0H@Z ; process_assert
  004ed	c7 45 8c 00 00
	00 00		 mov	 DWORD PTR tv284[ebp], 0
$LN61@free_fligh:
  004f4	6a 02		 push	 2
  004f6	8b 4d f8	 mov	 ecx, DWORD PTR _force$[ebp]
  004f9	51		 push	 ecx
  004fa	69 55 90 b4 00
	00 00		 imul	 edx, DWORD PTR tv276[ebp], 180
  00501	8b 45 8c	 mov	 eax, DWORD PTR tv284[ebp]
  00504	8b 8c 82 00 00
	00 00		 mov	 ecx, DWORD PTR ?fn_get_local_entity_first_child@@3PAY0CN@P6GPAUENTITY@@PAU1@W4LIST_TYPES@@@ZA[edx+eax*4]
  0050b	ff d1		 call	 ecx
  0050d	89 45 e4	 mov	 DWORD PTR _en$[ebp], eax
$LN6@free_fligh:

; 462  : 	
; 463  : 	while (en)

  00510	83 7d e4 00	 cmp	 DWORD PTR _en$[ebp], 0
  00514	0f 84 c6 02 00
	00		 je	 $LN7@free_fligh

; 464  : 	{
; 465  : 		if (get_local_entity_int_value (en, INT_TYPE_GROUP_MODE) == GROUP_MODE_IDLE)

  0051a	83 7d e4 00	 cmp	 DWORD PTR _en$[ebp], 0
  0051e	74 0a		 je	 SHORT $LN62@free_fligh
  00520	8b 45 e4	 mov	 eax, DWORD PTR _en$[ebp]
  00523	8b 08		 mov	 ecx, DWORD PTR [eax]
  00525	89 4d 90	 mov	 DWORD PTR tv296[ebp], ecx
  00528	eb 1d		 jmp	 SHORT $LN63@free_fligh
$LN62@free_fligh:
  0052a	68 d1 01 00 00	 push	 465			; 000001d1H
  0052f	68 00 00 00 00	 push	 OFFSET ??_C@_0EN@OPENIFFC@c?3?2users?2nhv90?2projects?2eech?2ap@
  00534	8b 15 00 00 00
	00		 mov	 edx, DWORD PTR ?null_entity_pointer_message@@3PBDB ; null_entity_pointer_message
  0053a	52		 push	 edx
  0053b	e8 00 00 00 00	 call	 ?process_assert@@YGXPBD0H@Z ; process_assert
  00540	c7 45 90 00 00
	00 00		 mov	 DWORD PTR tv296[ebp], 0
$LN63@free_fligh:
  00547	b8 01 00 00 00	 mov	 eax, 1
  0054c	85 c0		 test	 eax, eax
  0054e	74 09		 je	 SHORT $LN64@free_fligh
  00550	c7 45 8c 4d 00
	00 00		 mov	 DWORD PTR tv303[ebp], 77 ; 0000004dH
  00557	eb 1d		 jmp	 SHORT $LN65@free_fligh
$LN64@free_fligh:
  00559	68 d1 01 00 00	 push	 465			; 000001d1H
  0055e	68 00 00 00 00	 push	 OFFSET ??_C@_0EN@OPENIFFC@c?3?2users?2nhv90?2projects?2eech?2ap@
  00563	8b 0d 00 00 00
	00		 mov	 ecx, DWORD PTR ?overload_invalid_int_type_message@@3PBDB ; overload_invalid_int_type_message
  00569	51		 push	 ecx
  0056a	e8 00 00 00 00	 call	 ?process_assert@@YGXPBD0H@Z ; process_assert
  0056f	c7 45 8c 00 00
	00 00		 mov	 DWORD PTR tv303[ebp], 0
$LN65@free_fligh:
  00576	6a 4d		 push	 77			; 0000004dH
  00578	8b 55 e4	 mov	 edx, DWORD PTR _en$[ebp]
  0057b	52		 push	 edx
  0057c	69 45 90 5c 04
	00 00		 imul	 eax, DWORD PTR tv296[ebp], 1116
  00583	8b 4d 8c	 mov	 ecx, DWORD PTR tv303[ebp]
  00586	8b 94 88 00 00
	00 00		 mov	 edx, DWORD PTR ?fn_get_local_entity_int_value@@3PAY0BBH@P6GHPAUENTITY@@W4INT_TYPES@@@ZA[eax+ecx*4]
  0058d	ff d2		 call	 edx
  0058f	85 c0		 test	 eax, eax
  00591	0f 85 c4 01 00
	00		 jne	 $LN22@free_fligh

; 466  : 		{
; 467  : 			member = get_local_entity_first_child (en, LIST_TYPE_MEMBER);

  00597	83 7d e4 00	 cmp	 DWORD PTR _en$[ebp], 0
  0059b	74 0a		 je	 SHORT $LN66@free_fligh
  0059d	8b 45 e4	 mov	 eax, DWORD PTR _en$[ebp]
  005a0	8b 08		 mov	 ecx, DWORD PTR [eax]
  005a2	89 4d 90	 mov	 DWORD PTR tv316[ebp], ecx
  005a5	eb 21		 jmp	 SHORT $LN67@free_fligh
$LN66@free_fligh:
  005a7	8b 15 00 00 00
	00		 mov	 edx, DWORD PTR ?__LINE__Var@?0??free_flight_auto_assign_gunship@@YGPAUENTITY@@XZ@4JA
  005ad	83 c2 57	 add	 edx, 87			; 00000057H
  005b0	52		 push	 edx
  005b1	68 00 00 00 00	 push	 OFFSET ??_C@_0EN@OPENIFFC@c?3?2users?2nhv90?2projects?2eech?2ap@
  005b6	a1 00 00 00 00	 mov	 eax, DWORD PTR ?null_entity_pointer_message@@3PBDB ; null_entity_pointer_message
  005bb	50		 push	 eax
  005bc	e8 00 00 00 00	 call	 ?process_assert@@YGXPBD0H@Z ; process_assert
  005c1	c7 45 90 00 00
	00 00		 mov	 DWORD PTR tv316[ebp], 0
$LN67@free_fligh:
  005c8	b9 01 00 00 00	 mov	 ecx, 1
  005cd	85 c9		 test	 ecx, ecx
  005cf	74 09		 je	 SHORT $LN68@free_fligh
  005d1	c7 45 8c 19 00
	00 00		 mov	 DWORD PTR tv324[ebp], 25 ; 00000019H
  005d8	eb 21		 jmp	 SHORT $LN69@free_fligh
$LN68@free_fligh:
  005da	8b 15 00 00 00
	00		 mov	 edx, DWORD PTR ?__LINE__Var@?0??free_flight_auto_assign_gunship@@YGPAUENTITY@@XZ@4JA
  005e0	83 c2 57	 add	 edx, 87			; 00000057H
  005e3	52		 push	 edx
  005e4	68 00 00 00 00	 push	 OFFSET ??_C@_0EN@OPENIFFC@c?3?2users?2nhv90?2projects?2eech?2ap@
  005e9	a1 00 00 00 00	 mov	 eax, DWORD PTR ?overload_invalid_list_type_message@@3PBDB ; overload_invalid_list_type_message
  005ee	50		 push	 eax
  005ef	e8 00 00 00 00	 call	 ?process_assert@@YGXPBD0H@Z ; process_assert
  005f4	c7 45 8c 00 00
	00 00		 mov	 DWORD PTR tv324[ebp], 0
$LN69@free_fligh:
  005fb	6a 19		 push	 25			; 00000019H
  005fd	8b 4d e4	 mov	 ecx, DWORD PTR _en$[ebp]
  00600	51		 push	 ecx
  00601	69 55 90 b4 00
	00 00		 imul	 edx, DWORD PTR tv316[ebp], 180
  00608	8b 45 8c	 mov	 eax, DWORD PTR tv324[ebp]
  0060b	8b 8c 82 00 00
	00 00		 mov	 ecx, DWORD PTR ?fn_get_local_entity_first_child@@3PAY0CN@P6GPAUENTITY@@PAU1@W4LIST_TYPES@@@ZA[edx+eax*4]
  00612	ff d1		 call	 ecx
  00614	89 45 ec	 mov	 DWORD PTR _member$[ebp], eax
$LN8@free_fligh:

; 468  : 
; 469  : 			while (member)

  00617	83 7d ec 00	 cmp	 DWORD PTR _member$[ebp], 0
  0061b	0f 84 3a 01 00
	00		 je	 $LN22@free_fligh

; 470  : 			{
; 471  : 				sub_type = get_local_entity_int_value (member, INT_TYPE_ENTITY_SUB_TYPE);

  00621	83 7d ec 00	 cmp	 DWORD PTR _member$[ebp], 0
  00625	74 0a		 je	 SHORT $LN70@free_fligh
  00627	8b 45 ec	 mov	 eax, DWORD PTR _member$[ebp]
  0062a	8b 08		 mov	 ecx, DWORD PTR [eax]
  0062c	89 4d 90	 mov	 DWORD PTR tv337[ebp], ecx
  0062f	eb 21		 jmp	 SHORT $LN71@free_fligh
$LN70@free_fligh:
  00631	8b 15 00 00 00
	00		 mov	 edx, DWORD PTR ?__LINE__Var@?0??free_flight_auto_assign_gunship@@YGPAUENTITY@@XZ@4JA
  00637	83 c2 5b	 add	 edx, 91			; 0000005bH
  0063a	52		 push	 edx
  0063b	68 00 00 00 00	 push	 OFFSET ??_C@_0EN@OPENIFFC@c?3?2users?2nhv90?2projects?2eech?2ap@
  00640	a1 00 00 00 00	 mov	 eax, DWORD PTR ?null_entity_pointer_message@@3PBDB ; null_entity_pointer_message
  00645	50		 push	 eax
  00646	e8 00 00 00 00	 call	 ?process_assert@@YGXPBD0H@Z ; process_assert
  0064b	c7 45 90 00 00
	00 00		 mov	 DWORD PTR tv337[ebp], 0
$LN71@free_fligh:
  00652	b9 01 00 00 00	 mov	 ecx, 1
  00657	85 c9		 test	 ecx, ecx
  00659	74 09		 je	 SHORT $LN72@free_fligh
  0065b	c7 45 8c 34 00
	00 00		 mov	 DWORD PTR tv345[ebp], 52 ; 00000034H
  00662	eb 21		 jmp	 SHORT $LN73@free_fligh
$LN72@free_fligh:
  00664	8b 15 00 00 00
	00		 mov	 edx, DWORD PTR ?__LINE__Var@?0??free_flight_auto_assign_gunship@@YGPAUENTITY@@XZ@4JA
  0066a	83 c2 5b	 add	 edx, 91			; 0000005bH
  0066d	52		 push	 edx
  0066e	68 00 00 00 00	 push	 OFFSET ??_C@_0EN@OPENIFFC@c?3?2users?2nhv90?2projects?2eech?2ap@
  00673	a1 00 00 00 00	 mov	 eax, DWORD PTR ?overload_invalid_int_type_message@@3PBDB ; overload_invalid_int_type_message
  00678	50		 push	 eax
  00679	e8 00 00 00 00	 call	 ?process_assert@@YGXPBD0H@Z ; process_assert
  0067e	c7 45 8c 00 00
	00 00		 mov	 DWORD PTR tv345[ebp], 0
$LN73@free_fligh:
  00685	6a 34		 push	 52			; 00000034H
  00687	8b 4d ec	 mov	 ecx, DWORD PTR _member$[ebp]
  0068a	51		 push	 ecx
  0068b	69 55 90 5c 04
	00 00		 imul	 edx, DWORD PTR tv337[ebp], 1116
  00692	8b 45 8c	 mov	 eax, DWORD PTR tv345[ebp]
  00695	8b 8c 82 00 00
	00 00		 mov	 ecx, DWORD PTR ?fn_get_local_entity_int_value@@3PAY0BBH@P6GHPAUENTITY@@W4INT_TYPES@@@ZA[edx+eax*4]
  0069c	ff d1		 call	 ecx
  0069e	89 45 e0	 mov	 DWORD PTR _sub_type$[ebp], eax

; 472  : 
; 473  : 				if (free_flight_gunship_type_matches(sub_type))

  006a1	8b 45 e0	 mov	 eax, DWORD PTR _sub_type$[ebp]
  006a4	50		 push	 eax
  006a5	e8 00 00 00 00	 call	 ?free_flight_gunship_type_matches@@YGHH@Z ; free_flight_gunship_type_matches
  006aa	85 c0		 test	 eax, eax
  006ac	74 28		 je	 SHORT $LN23@free_fligh

; 474  : 					if (get_local_entity_suitable_for_player (member, get_pilot_entity ()))

  006ae	a1 00 00 00 00	 mov	 eax, DWORD PTR ?pilot_entity@@3PAUENTITY@@A ; pilot_entity
  006b3	50		 push	 eax
  006b4	8b 4d ec	 mov	 ecx, DWORD PTR _member$[ebp]
  006b7	51		 push	 ecx
  006b8	e8 00 00 00 00	 call	 ?get_local_entity_suitable_for_player@@YGHPAUENTITY@@0@Z ; get_local_entity_suitable_for_player
  006bd	85 c0		 test	 eax, eax
  006bf	74 15		 je	 SHORT $LN23@free_fligh

; 475  : 					{
; 476  : 						gunship_list [count] = member;

  006c1	8b 45 d4	 mov	 eax, DWORD PTR _count$[ebp]
  006c4	8b 4d e8	 mov	 ecx, DWORD PTR _gunship_list$[ebp]
  006c7	8b 55 ec	 mov	 edx, DWORD PTR _member$[ebp]
  006ca	89 14 81	 mov	 DWORD PTR [ecx+eax*4], edx

; 477  : 
; 478  : 						count ++;

  006cd	8b 45 d4	 mov	 eax, DWORD PTR _count$[ebp]
  006d0	83 c0 01	 add	 eax, 1
  006d3	89 45 d4	 mov	 DWORD PTR _count$[ebp], eax
$LN23@free_fligh:

; 479  : 					}
; 480  : 
; 481  : 				member = get_local_entity_child_succ (member, LIST_TYPE_MEMBER);

  006d6	83 7d ec 00	 cmp	 DWORD PTR _member$[ebp], 0
  006da	74 0a		 je	 SHORT $LN74@free_fligh
  006dc	8b 45 ec	 mov	 eax, DWORD PTR _member$[ebp]
  006df	8b 08		 mov	 ecx, DWORD PTR [eax]
  006e1	89 4d 90	 mov	 DWORD PTR tv367[ebp], ecx
  006e4	eb 21		 jmp	 SHORT $LN75@free_fligh
$LN74@free_fligh:
  006e6	8b 15 00 00 00
	00		 mov	 edx, DWORD PTR ?__LINE__Var@?0??free_flight_auto_assign_gunship@@YGPAUENTITY@@XZ@4JA
  006ec	83 c2 65	 add	 edx, 101		; 00000065H
  006ef	52		 push	 edx
  006f0	68 00 00 00 00	 push	 OFFSET ??_C@_0EN@OPENIFFC@c?3?2users?2nhv90?2projects?2eech?2ap@
  006f5	a1 00 00 00 00	 mov	 eax, DWORD PTR ?null_entity_pointer_message@@3PBDB ; null_entity_pointer_message
  006fa	50		 push	 eax
  006fb	e8 00 00 00 00	 call	 ?process_assert@@YGXPBD0H@Z ; process_assert
  00700	c7 45 90 00 00
	00 00		 mov	 DWORD PTR tv367[ebp], 0
$LN75@free_fligh:
  00707	b9 01 00 00 00	 mov	 ecx, 1
  0070c	85 c9		 test	 ecx, ecx
  0070e	74 09		 je	 SHORT $LN76@free_fligh
  00710	c7 45 8c 19 00
	00 00		 mov	 DWORD PTR tv375[ebp], 25 ; 00000019H
  00717	eb 21		 jmp	 SHORT $LN77@free_fligh
$LN76@free_fligh:
  00719	8b 15 00 00 00
	00		 mov	 edx, DWORD PTR ?__LINE__Var@?0??free_flight_auto_assign_gunship@@YGPAUENTITY@@XZ@4JA
  0071f	83 c2 65	 add	 edx, 101		; 00000065H
  00722	52		 push	 edx
  00723	68 00 00 00 00	 push	 OFFSET ??_C@_0EN@OPENIFFC@c?3?2users?2nhv90?2projects?2eech?2ap@
  00728	a1 00 00 00 00	 mov	 eax, DWORD PTR ?overload_invalid_list_type_message@@3PBDB ; overload_invalid_list_type_message
  0072d	50		 push	 eax
  0072e	e8 00 00 00 00	 call	 ?process_assert@@YGXPBD0H@Z ; process_assert
  00733	c7 45 8c 00 00
	00 00		 mov	 DWORD PTR tv375[ebp], 0
$LN77@free_fligh:
  0073a	6a 19		 push	 25			; 00000019H
  0073c	8b 4d ec	 mov	 ecx, DWORD PTR _member$[ebp]
  0073f	51		 push	 ecx
  00740	69 55 90 b4 00
	00 00		 imul	 edx, DWORD PTR tv367[ebp], 180
  00747	8b 45 8c	 mov	 eax, DWORD PTR tv375[ebp]
  0074a	8b 8c 82 00 00
	00 00		 mov	 ecx, DWORD PTR ?fn_get_local_entity_child_succ@@3PAY0CN@P6GPAUENTITY@@PAU1@W4LIST_TYPES@@@ZA[edx+eax*4]
  00751	ff d1		 call	 ecx
  00753	89 45 ec	 mov	 DWORD PTR _member$[ebp], eax

; 482  : 			}

  00756	e9 bc fe ff ff	 jmp	 $LN8@free_fligh
$LN22@free_fligh:

; 483  : 		}
; 484  : 
; 485  : 		en = get_local_entity_child_succ (en, LIST_TYPE_AIR_REGISTRY);

  0075b	83 7d e4 00	 cmp	 DWORD PTR _en$[ebp], 0
  0075f	74 0a		 je	 SHORT $LN78@free_fligh
  00761	8b 45 e4	 mov	 eax, DWORD PTR _en$[ebp]
  00764	8b 08		 mov	 ecx, DWORD PTR [eax]
  00766	89 4d 90	 mov	 DWORD PTR tv387[ebp], ecx
  00769	eb 21		 jmp	 SHORT $LN79@free_fligh
$LN78@free_fligh:
  0076b	8b 15 00 00 00
	00		 mov	 edx, DWORD PTR ?__LINE__Var@?0??free_flight_auto_assign_gunship@@YGPAUENTITY@@XZ@4JA
  00771	83 c2 69	 add	 edx, 105		; 00000069H
  00774	52		 push	 edx
  00775	68 00 00 00 00	 push	 OFFSET ??_C@_0EN@OPENIFFC@c?3?2users?2nhv90?2projects?2eech?2ap@
  0077a	a1 00 00 00 00	 mov	 eax, DWORD PTR ?null_entity_pointer_message@@3PBDB ; null_entity_pointer_message
  0077f	50		 push	 eax
  00780	e8 00 00 00 00	 call	 ?process_assert@@YGXPBD0H@Z ; process_assert
  00785	c7 45 90 00 00
	00 00		 mov	 DWORD PTR tv387[ebp], 0
$LN79@free_fligh:
  0078c	b9 01 00 00 00	 mov	 ecx, 1
  00791	85 c9		 test	 ecx, ecx
  00793	74 09		 je	 SHORT $LN80@free_fligh
  00795	c7 45 8c 02 00
	00 00		 mov	 DWORD PTR tv395[ebp], 2
  0079c	eb 21		 jmp	 SHORT $LN81@free_fligh
$LN80@free_fligh:
  0079e	8b 15 00 00 00
	00		 mov	 edx, DWORD PTR ?__LINE__Var@?0??free_flight_auto_assign_gunship@@YGPAUENTITY@@XZ@4JA
  007a4	83 c2 69	 add	 edx, 105		; 00000069H
  007a7	52		 push	 edx
  007a8	68 00 00 00 00	 push	 OFFSET ??_C@_0EN@OPENIFFC@c?3?2users?2nhv90?2projects?2eech?2ap@
  007ad	a1 00 00 00 00	 mov	 eax, DWORD PTR ?overload_invalid_list_type_message@@3PBDB ; overload_invalid_list_type_message
  007b2	50		 push	 eax
  007b3	e8 00 00 00 00	 call	 ?process_assert@@YGXPBD0H@Z ; process_assert
  007b8	c7 45 8c 00 00
	00 00		 mov	 DWORD PTR tv395[ebp], 0
$LN81@free_fligh:
  007bf	6a 02		 push	 2
  007c1	8b 4d e4	 mov	 ecx, DWORD PTR _en$[ebp]
  007c4	51		 push	 ecx
  007c5	69 55 90 b4 00
	00 00		 imul	 edx, DWORD PTR tv387[ebp], 180
  007cc	8b 45 8c	 mov	 eax, DWORD PTR tv395[ebp]
  007cf	8b 8c 82 00 00
	00 00		 mov	 ecx, DWORD PTR ?fn_get_local_entity_child_succ@@3PAY0CN@P6GPAUENTITY@@PAU1@W4LIST_TYPES@@@ZA[edx+eax*4]
  007d6	ff d1		 call	 ecx
  007d8	89 45 e4	 mov	 DWORD PTR _en$[ebp], eax

; 486  : 	}

  007db	e9 30 fd ff ff	 jmp	 $LN6@free_fligh
$LN7@free_fligh:

; 487  : 
; 488  : 	//
; 489  : 	// Pick one...
; 490  : 	//
; 491  : 
; 492  : 	ASSERT (count > 0);

  007e0	83 7d d4 00	 cmp	 DWORD PTR _count$[ebp], 0
  007e4	7f 18		 jg	 SHORT $LN25@free_fligh
  007e6	a1 00 00 00 00	 mov	 eax, DWORD PTR ?__LINE__Var@?0??free_flight_auto_assign_gunship@@YGPAUENTITY@@XZ@4JA
  007eb	83 c0 70	 add	 eax, 112		; 00000070H
  007ee	50		 push	 eax
  007ef	68 00 00 00 00	 push	 OFFSET ??_C@_0EN@OPENIFFC@c?3?2users?2nhv90?2projects?2eech?2ap@
  007f4	68 00 00 00 00	 push	 OFFSET ??_C@_09DMMLFBJB@count?5?$DO?50@
  007f9	e8 00 00 00 00	 call	 ?process_assert@@YGXPBD0H@Z ; process_assert
$LN25@free_fligh:

; 493  : 
; 494  : 	index = rand16 () % count;

  007fe	69 05 00 00 00
	00 6d 4e c6 41	 imul	 eax, DWORD PTR ?random_number_seed@@3HA, 1103515245 ; random_number_seed
  00808	05 39 30 00 00	 add	 eax, 12345		; 00003039H
  0080d	a3 00 00 00 00	 mov	 DWORD PTR ?random_number_seed@@3HA, eax ; random_number_seed
  00812	a1 00 00 00 00	 mov	 eax, DWORD PTR ?random_number_seed@@3HA ; random_number_seed
  00817	c1 f8 10	 sar	 eax, 16			; 00000010H
  0081a	25 ff 7f 00 00	 and	 eax, 32767		; 00007fffH
  0081f	99		 cdq
  00820	f7 7d d4	 idiv	 DWORD PTR _count$[ebp]
  00823	89 55 d8	 mov	 DWORD PTR _index$[ebp], edx

; 495  : 
; 496  : 	for (c = 0; c < count; c ++)

  00826	c7 45 dc 00 00
	00 00		 mov	 DWORD PTR _c$[ebp], 0
  0082d	eb 09		 jmp	 SHORT $LN12@free_fligh
$LN10@free_fligh:
  0082f	8b 45 dc	 mov	 eax, DWORD PTR _c$[ebp]
  00832	83 c0 01	 add	 eax, 1
  00835	89 45 dc	 mov	 DWORD PTR _c$[ebp], eax
$LN12@free_fligh:
  00838	8b 45 dc	 mov	 eax, DWORD PTR _c$[ebp]
  0083b	3b 45 d4	 cmp	 eax, DWORD PTR _count$[ebp]
  0083e	0f 8d e3 01 00
	00		 jge	 $LN11@free_fligh

; 497  : 	{
; 498  : 		en = gunship_list [index];

  00844	8b 45 d8	 mov	 eax, DWORD PTR _index$[ebp]
  00847	8b 4d e8	 mov	 ecx, DWORD PTR _gunship_list$[ebp]
  0084a	8b 14 81	 mov	 edx, DWORD PTR [ecx+eax*4]
  0084d	89 55 e4	 mov	 DWORD PTR _en$[ebp], edx

; 499  : 
; 500  : 		group = get_local_entity_parent (en, LIST_TYPE_MEMBER);

  00850	83 7d e4 00	 cmp	 DWORD PTR _en$[ebp], 0
  00854	74 0a		 je	 SHORT $LN82@free_fligh
  00856	8b 45 e4	 mov	 eax, DWORD PTR _en$[ebp]
  00859	8b 08		 mov	 ecx, DWORD PTR [eax]
  0085b	89 4d 90	 mov	 DWORD PTR tv421[ebp], ecx
  0085e	eb 21		 jmp	 SHORT $LN83@free_fligh
$LN82@free_fligh:
  00860	8b 15 00 00 00
	00		 mov	 edx, DWORD PTR ?__LINE__Var@?0??free_flight_auto_assign_gunship@@YGPAUENTITY@@XZ@4JA
  00866	83 c2 78	 add	 edx, 120		; 00000078H
  00869	52		 push	 edx
  0086a	68 00 00 00 00	 push	 OFFSET ??_C@_0EN@OPENIFFC@c?3?2users?2nhv90?2projects?2eech?2ap@
  0086f	a1 00 00 00 00	 mov	 eax, DWORD PTR ?null_entity_pointer_message@@3PBDB ; null_entity_pointer_message
  00874	50		 push	 eax
  00875	e8 00 00 00 00	 call	 ?process_assert@@YGXPBD0H@Z ; process_assert
  0087a	c7 45 90 00 00
	00 00		 mov	 DWORD PTR tv421[ebp], 0
$LN83@free_fligh:
  00881	b9 01 00 00 00	 mov	 ecx, 1
  00886	85 c9		 test	 ecx, ecx
  00888	74 09		 je	 SHORT $LN84@free_fligh
  0088a	c7 45 8c 19 00
	00 00		 mov	 DWORD PTR tv429[ebp], 25 ; 00000019H
  00891	eb 21		 jmp	 SHORT $LN85@free_fligh
$LN84@free_fligh:
  00893	8b 15 00 00 00
	00		 mov	 edx, DWORD PTR ?__LINE__Var@?0??free_flight_auto_assign_gunship@@YGPAUENTITY@@XZ@4JA
  00899	83 c2 78	 add	 edx, 120		; 00000078H
  0089c	52		 push	 edx
  0089d	68 00 00 00 00	 push	 OFFSET ??_C@_0EN@OPENIFFC@c?3?2users?2nhv90?2projects?2eech?2ap@
  008a2	a1 00 00 00 00	 mov	 eax, DWORD PTR ?overload_invalid_list_type_message@@3PBDB ; overload_invalid_list_type_message
  008a7	50		 push	 eax
  008a8	e8 00 00 00 00	 call	 ?process_assert@@YGXPBD0H@Z ; process_assert
  008ad	c7 45 8c 00 00
	00 00		 mov	 DWORD PTR tv429[ebp], 0
$LN85@free_fligh:
  008b4	6a 19		 push	 25			; 00000019H
  008b6	8b 4d e4	 mov	 ecx, DWORD PTR _en$[ebp]
  008b9	51		 push	 ecx
  008ba	69 55 90 b4 00
	00 00		 imul	 edx, DWORD PTR tv421[ebp], 180
  008c1	8b 45 8c	 mov	 eax, DWORD PTR tv429[ebp]
  008c4	8b 8c 82 00 00
	00 00		 mov	 ecx, DWORD PTR ?fn_get_local_entity_parent@@3PAY0CN@P6GPAUENTITY@@PAU1@W4LIST_TYPES@@@ZA[edx+eax*4]
  008cb	ff d1		 call	 ecx
  008cd	89 45 f0	 mov	 DWORD PTR _group$[ebp], eax

; 501  : 
; 502  : 		pos = get_local_entity_vec3d_ptr (en, VEC3D_TYPE_POSITION);

  008d0	83 7d e4 00	 cmp	 DWORD PTR _en$[ebp], 0
  008d4	74 0a		 je	 SHORT $LN86@free_fligh
  008d6	8b 45 e4	 mov	 eax, DWORD PTR _en$[ebp]
  008d9	8b 08		 mov	 ecx, DWORD PTR [eax]
  008db	89 4d 90	 mov	 DWORD PTR tv441[ebp], ecx
  008de	eb 21		 jmp	 SHORT $LN87@free_fligh
$LN86@free_fligh:
  008e0	8b 15 00 00 00
	00		 mov	 edx, DWORD PTR ?__LINE__Var@?0??free_flight_auto_assign_gunship@@YGPAUENTITY@@XZ@4JA
  008e6	83 c2 7a	 add	 edx, 122		; 0000007aH
  008e9	52		 push	 edx
  008ea	68 00 00 00 00	 push	 OFFSET ??_C@_0EN@OPENIFFC@c?3?2users?2nhv90?2projects?2eech?2ap@
  008ef	a1 00 00 00 00	 mov	 eax, DWORD PTR ?null_entity_pointer_message@@3PBDB ; null_entity_pointer_message
  008f4	50		 push	 eax
  008f5	e8 00 00 00 00	 call	 ?process_assert@@YGXPBD0H@Z ; process_assert
  008fa	c7 45 90 00 00
	00 00		 mov	 DWORD PTR tv441[ebp], 0
$LN87@free_fligh:
  00901	b9 01 00 00 00	 mov	 ecx, 1
  00906	85 c9		 test	 ecx, ecx
  00908	74 09		 je	 SHORT $LN88@free_fligh
  0090a	c7 45 8c 08 00
	00 00		 mov	 DWORD PTR tv449[ebp], 8
  00911	eb 21		 jmp	 SHORT $LN89@free_fligh
$LN88@free_fligh:
  00913	8b 15 00 00 00
	00		 mov	 edx, DWORD PTR ?__LINE__Var@?0??free_flight_auto_assign_gunship@@YGPAUENTITY@@XZ@4JA
  00919	83 c2 7a	 add	 edx, 122		; 0000007aH
  0091c	52		 push	 edx
  0091d	68 00 00 00 00	 push	 OFFSET ??_C@_0EN@OPENIFFC@c?3?2users?2nhv90?2projects?2eech?2ap@
  00922	a1 00 00 00 00	 mov	 eax, DWORD PTR ?overload_invalid_vec3d_type_message@@3PBDB ; overload_invalid_vec3d_type_message
  00927	50		 push	 eax
  00928	e8 00 00 00 00	 call	 ?process_assert@@YGXPBD0H@Z ; process_assert
  0092d	c7 45 8c 00 00
	00 00		 mov	 DWORD PTR tv449[ebp], 0
$LN89@free_fligh:
  00934	6a 08		 push	 8
  00936	8b 4d e4	 mov	 ecx, DWORD PTR _en$[ebp]
  00939	51		 push	 ecx
  0093a	6b 55 90 60	 imul	 edx, DWORD PTR tv441[ebp], 96
  0093e	8b 45 8c	 mov	 eax, DWORD PTR tv449[ebp]
  00941	8b 8c 82 00 00
	00 00		 mov	 ecx, DWORD PTR ?fn_get_local_entity_vec3d_ptr@@3PAY0BI@P6GPAUVEC3D@@PAUENTITY@@W4VEC3D_TYPES@@@ZA[edx+eax*4]
  00948	ff d1		 call	 ecx
  0094a	89 45 fc	 mov	 DWORD PTR _pos$[ebp], eax

; 503  : 
; 504  : 		new_task = create_user_task (en, ENTITY_SUB_TYPE_TASK_FREE_FLIGHT, pos, NULL, NULL);

  0094d	6a 00		 push	 0
  0094f	6a 00		 push	 0
  00951	8b 45 fc	 mov	 eax, DWORD PTR _pos$[ebp]
  00954	50		 push	 eax
  00955	6a 0b		 push	 11			; 0000000bH
  00957	8b 4d e4	 mov	 ecx, DWORD PTR _en$[ebp]
  0095a	51		 push	 ecx
  0095b	e8 00 00 00 00	 call	 ?create_user_task@@YGPAUENTITY@@PAU1@HPAUVEC3D@@00@Z ; create_user_task
  00960	89 45 f4	 mov	 DWORD PTR _new_task$[ebp], eax

; 505  : 					
; 506  : 		set_assign_create_waypoint_route (FALSE);

  00963	c7 05 00 00 00
	00 00 00 00 00	 mov	 DWORD PTR ?assign_create_waypoint_route@@3HA, 0 ; assign_create_waypoint_route

; 507  : 					
; 508  : 		if (assign_primary_task_to_group (group, new_task))

  0096d	8b 45 f4	 mov	 eax, DWORD PTR _new_task$[ebp]
  00970	50		 push	 eax
  00971	8b 4d f0	 mov	 ecx, DWORD PTR _group$[ebp]
  00974	51		 push	 ecx
  00975	e8 00 00 00 00	 call	 ?assign_primary_task_to_group@@YGHPAUENTITY@@0@Z ; assign_primary_task_to_group
  0097a	85 c0		 test	 eax, eax
  0097c	74 28		 je	 SHORT $LN26@free_fligh

; 509  : 		{
; 510  : 			set_gunship_entity (en);

  0097e	8b 45 e4	 mov	 eax, DWORD PTR _en$[ebp]
  00981	50		 push	 eax
  00982	e8 00 00 00 00	 call	 ?set_gunship_entity@@YGXPAUENTITY@@@Z ; set_gunship_entity

; 511  : 
; 512  : 			set_view_mode (VIEW_MODE_COCKPIT_PANEL_LEVEL_AHEAD);

  00987	6a 11		 push	 17			; 00000011H
  00989	e8 00 00 00 00	 call	 ?set_view_mode@@YGHW4VIEW_MODES@@@Z ; set_view_mode

; 513  : 
; 514  : 			safe_free (gunship_list);

  0098e	8b 45 e8	 mov	 eax, DWORD PTR _gunship_list$[ebp]
  00991	50		 push	 eax
  00992	e8 00 00 00 00	 call	 ?safe_free@@YGXPAX@Z	; safe_free

; 515  : 
; 516  : 			initialise_free_flight_screen_map_page_objects ();

  00997	e8 00 00 00 00	 call	 ?initialise_free_flight_screen_map_page_objects@@YGXXZ ; initialise_free_flight_screen_map_page_objects

; 517  : 
; 518  : 			return en;

  0099c	8b 45 e4	 mov	 eax, DWORD PTR _en$[ebp]
  0099f	e9 8e 00 00 00	 jmp	 $LN1@free_fligh

; 519  : 		}
; 520  : 		else

  009a4	eb 5a		 jmp	 SHORT $LN27@free_fligh
$LN26@free_fligh:

; 521  : 		{						
; 522  : 			debug_log ("FLIGHT: can't assign user to Created task");

  009a6	68 00 00 00 00	 push	 OFFSET ??_C@_0CK@NKBDFNAO@FLIGHT?3?5can?8t?5assign?5user?5to?5Cr@
  009ab	e8 00 00 00 00	 call	 ?debug_log@@YAXPBDZZ	; debug_log
  009b0	83 c4 04	 add	 esp, 4

; 523  : 
; 524  : 			destroy_client_server_entity (new_task);

  009b3	83 7d f4 00	 cmp	 DWORD PTR _new_task$[ebp], 0
  009b7	74 0a		 je	 SHORT $LN90@free_fligh
  009b9	8b 45 f4	 mov	 eax, DWORD PTR _new_task$[ebp]
  009bc	8b 08		 mov	 ecx, DWORD PTR [eax]
  009be	89 4d 90	 mov	 DWORD PTR tv475[ebp], ecx
  009c1	eb 24		 jmp	 SHORT $LN91@free_fligh
$LN90@free_fligh:
  009c3	8b 15 00 00 00
	00		 mov	 edx, DWORD PTR ?__LINE__Var@?0??free_flight_auto_assign_gunship@@YGPAUENTITY@@XZ@4JA
  009c9	81 c2 90 00 00
	00		 add	 edx, 144		; 00000090H
  009cf	52		 push	 edx
  009d0	68 00 00 00 00	 push	 OFFSET ??_C@_0EN@OPENIFFC@c?3?2users?2nhv90?2projects?2eech?2ap@
  009d5	a1 00 00 00 00	 mov	 eax, DWORD PTR ?null_entity_pointer_message@@3PBDB ; null_entity_pointer_message
  009da	50		 push	 eax
  009db	e8 00 00 00 00	 call	 ?process_assert@@YGXPBD0H@Z ; process_assert
  009e0	c7 45 90 00 00
	00 00		 mov	 DWORD PTR tv475[ebp], 0
$LN91@free_fligh:
  009e7	8b 4d f4	 mov	 ecx, DWORD PTR _new_task$[ebp]
  009ea	51		 push	 ecx
  009eb	8b 15 00 00 00
	00		 mov	 edx, DWORD PTR ?system_comms_model@@3W4COMMS_MODEL_TYPES@@A ; system_comms_model
  009f1	c1 e2 02	 shl	 edx, 2
  009f4	8b 45 90	 mov	 eax, DWORD PTR tv475[ebp]
  009f7	8b 8c c2 00 00
	00 00		 mov	 ecx, DWORD PTR ?fn_destroy_client_server_entity@@3PAY01P6GXPAUENTITY@@@ZA[edx+eax*8]
  009fe	ff d1		 call	 ecx
$LN27@free_fligh:

; 525  : 		}
; 526  : 
; 527  : 		set_assign_create_waypoint_route (TRUE);

  00a00	c7 05 00 00 00
	00 01 00 00 00	 mov	 DWORD PTR ?assign_create_waypoint_route@@3HA, 1 ; assign_create_waypoint_route

; 528  : 
; 529  : 		index ++;

  00a0a	8b 45 d8	 mov	 eax, DWORD PTR _index$[ebp]
  00a0d	83 c0 01	 add	 eax, 1
  00a10	89 45 d8	 mov	 DWORD PTR _index$[ebp], eax

; 530  : 
; 531  : 		if (index == count)

  00a13	8b 45 d8	 mov	 eax, DWORD PTR _index$[ebp]
  00a16	3b 45 d4	 cmp	 eax, DWORD PTR _count$[ebp]
  00a19	75 07		 jne	 SHORT $LN28@free_fligh

; 532  : 		{
; 533  : 			index = 0;

  00a1b	c7 45 d8 00 00
	00 00		 mov	 DWORD PTR _index$[ebp], 0
$LN28@free_fligh:

; 534  : 		}
; 535  : 	}

  00a22	e9 08 fe ff ff	 jmp	 $LN10@free_fligh
$LN11@free_fligh:

; 536  : 
; 537  : 	safe_free (gunship_list);

  00a27	8b 45 e8	 mov	 eax, DWORD PTR _gunship_list$[ebp]
  00a2a	50		 push	 eax
  00a2b	e8 00 00 00 00	 call	 ?safe_free@@YGXPAX@Z	; safe_free

; 538  : 
; 539  : 	return NULL;

  00a30	33 c0		 xor	 eax, eax
$LN1@free_fligh:

; 540  : }

  00a32	5f		 pop	 edi
  00a33	5e		 pop	 esi
  00a34	5b		 pop	 ebx
  00a35	8b e5		 mov	 esp, ebp
  00a37	5d		 pop	 ebp
  00a38	c3		 ret	 0
?free_flight_auto_assign_gunship@@YGPAUENTITY@@XZ ENDP	; free_flight_auto_assign_gunship
_TEXT	ENDS
; Function compile flags: /Odtp /ZI
; File c:\users\nhv90\projects\eech\aphavoc\source\ui_menu\ingame\fflight\fflight.c
;	COMDAT ?initialise_free_flight_screen@@YGXXZ
_TEXT	SEGMENT
_string$ = -280						; size = 256
_y_size$ = -24						; size = 4
_x_size$ = -20						; size = 4
_y2$ = -16						; size = 4
_y1$ = -12						; size = 4
_x2$ = -8						; size = 4
_x1$ = -4						; size = 4
?initialise_free_flight_screen@@YGXXZ PROC		; initialise_free_flight_screen, COMDAT

; 239  : {

  00000	55		 push	 ebp
  00001	8b ec		 mov	 ebp, esp
  00003	81 ec 58 01 00
	00		 sub	 esp, 344		; 00000158H
  00009	53		 push	 ebx
  0000a	56		 push	 esi
  0000b	57		 push	 edi

; 240  : 	float
; 241  : 		x1, x2,
; 242  : 		y1, y2,
; 243  : 		x_size,
; 244  : 		y_size;
; 245  : 
; 246  : 	char
; 247  : 		string [256];
; 248  : 
; 249  : 	x_size = 1.0;

  0000c	f3 0f 10 05 00
	00 00 00	 movss	 xmm0, DWORD PTR __real@3f800000
  00014	f3 0f 11 45 ec	 movss	 DWORD PTR _x_size$[ebp], xmm0

; 250  : 	y_size = 1.0;

  00019	f3 0f 10 05 00
	00 00 00	 movss	 xmm0, DWORD PTR __real@3f800000
  00021	f3 0f 11 45 e8	 movss	 DWORD PTR _y_size$[ebp], xmm0

; 251  : 
; 252  : 	/////////////////////////////////////////////////////////////////
; 253  : 
; 254  :    free_flight_screen = create_ui_object

  00026	6a 11		 push	 17			; 00000011H
  00028	6a 01		 push	 1
  0002a	6a 07		 push	 7
  0002c	68 00 00 00 00	 push	 OFFSET ?free_flight_screen_draw_function@@YGXPAUUI_OBJECT@@PAX@Z ; free_flight_screen_draw_function
  00031	6a 0f		 push	 15			; 0000000fH
  00033	68 00 00 00 00	 push	 OFFSET ?notify_free_flight_screen_entered@@YGXPAUUI_OBJECT@@PAX@Z ; notify_free_flight_screen_entered
  00038	6a 16		 push	 22			; 00000016H
  0003a	f3 0f 5a 45 e8	 cvtss2sd xmm0, DWORD PTR _y_size$[ebp]
  0003f	83 ec 08	 sub	 esp, 8
  00042	f2 0f 11 04 24	 movsd	 QWORD PTR [esp], xmm0
  00047	f3 0f 5a 45 ec	 cvtss2sd xmm0, DWORD PTR _x_size$[ebp]
  0004c	83 ec 08	 sub	 esp, 8
  0004f	f2 0f 11 04 24	 movsd	 QWORD PTR [esp], xmm0
  00054	6a 59		 push	 89			; 00000059H
  00056	83 ec 08	 sub	 esp, 8
  00059	0f 57 c0	 xorps	 xmm0, xmm0
  0005c	f2 0f 11 04 24	 movsd	 QWORD PTR [esp], xmm0
  00061	83 ec 08	 sub	 esp, 8
  00064	0f 57 c0	 xorps	 xmm0, xmm0
  00067	f2 0f 11 04 24	 movsd	 QWORD PTR [esp], xmm0
  0006c	6a 58		 push	 88			; 00000058H
  0006e	6a 06		 push	 6
  00070	e8 00 00 00 00	 call	 ?create_ui_object@@YAPAUUI_OBJECT@@HZZ ; create_ui_object
  00075	83 c4 48	 add	 esp, 72			; 00000048H
  00078	a3 00 00 00 00	 mov	 DWORD PTR ?free_flight_screen@@3PAUUI_OBJECT@@A, eax ; free_flight_screen

; 255  :             (
; 256  :                UI_TYPE_SCREEN,
; 257  :                UI_ATTR_VIRTUAL_POSITION (0, 0),
; 258  :                UI_ATTR_VIRTUAL_SIZE (x_size, y_size),
; 259  : 					UI_ATTR_FUNCTION (notify_free_flight_screen_entered),
; 260  : 					UI_ATTR_DRAW_FUNCTION (free_flight_screen_draw_function),
; 261  : 					UI_ATTR_CLEAR (TRUE),
; 262  :                UI_ATTR_END
; 263  :             );
; 264  : 
; 265  : 	define_free_flight_screen_map_page_objects ();

  0007d	e8 00 00 00 00	 call	 ?define_free_flight_screen_map_page_objects@@YGXXZ ; define_free_flight_screen_map_page_objects

; 266  : 
; 267  : 	define_free_flight_screen_info_objects ();

  00082	e8 00 00 00 00	 call	 ?define_free_flight_screen_info_objects@@YGXXZ ; define_free_flight_screen_info_objects

; 268  : 
; 269  : 	define_free_flight_screen_selection_objects ();

  00087	e8 00 00 00 00	 call	 ?define_free_flight_screen_selection_objects@@YGXXZ ; define_free_flight_screen_selection_objects

; 270  : 
; 271  : 	/////////////////////////////////////////////////////////////////
; 272  : 
; 273  : 	x1 = 0.0;

  0008c	0f 57 c0	 xorps	 xmm0, xmm0
  0008f	f3 0f 11 45 fc	 movss	 DWORD PTR _x1$[ebp], xmm0

; 274  : 	y1 = 0.0;

  00094	0f 57 c0	 xorps	 xmm0, xmm0
  00097	f3 0f 11 45 f4	 movss	 DWORD PTR _y1$[ebp], xmm0

; 275  : 	x2 = 1.0;

  0009c	f3 0f 10 05 00
	00 00 00	 movss	 xmm0, DWORD PTR __real@3f800000
  000a4	f3 0f 11 45 f8	 movss	 DWORD PTR _x2$[ebp], xmm0

; 276  : 	y2 = 1.0;

  000a9	f3 0f 10 05 00
	00 00 00	 movss	 xmm0, DWORD PTR __real@3f800000
  000b1	f3 0f 11 45 f0	 movss	 DWORD PTR _y2$[ebp], xmm0

; 277  : 
; 278  : 	free_flight_dialog_area = create_ui_object

  000b6	6a 11		 push	 17			; 00000011H
  000b8	a1 00 00 00 00	 mov	 eax, DWORD PTR ?common_grey_alpha_mask@@3PAUTEXTURE_GRAPHIC@@A ; common_grey_alpha_mask
  000bd	50		 push	 eax
  000be	6a 4c		 push	 76			; 0000004cH
  000c0	f3 0f 10 45 f0	 movss	 xmm0, DWORD PTR _y2$[ebp]
  000c5	f3 0f 5c 45 f4	 subss	 xmm0, DWORD PTR _y1$[ebp]
  000ca	f3 0f 5a c0	 cvtss2sd xmm0, xmm0
  000ce	83 ec 08	 sub	 esp, 8
  000d1	f2 0f 11 04 24	 movsd	 QWORD PTR [esp], xmm0
  000d6	f3 0f 10 45 f8	 movss	 xmm0, DWORD PTR _x2$[ebp]
  000db	f3 0f 5c 45 fc	 subss	 xmm0, DWORD PTR _x1$[ebp]
  000e0	f3 0f 5a c0	 cvtss2sd xmm0, xmm0
  000e4	83 ec 08	 sub	 esp, 8
  000e7	f2 0f 11 04 24	 movsd	 QWORD PTR [esp], xmm0
  000ec	6a 59		 push	 89			; 00000059H
  000ee	f3 0f 5a 45 f4	 cvtss2sd xmm0, DWORD PTR _y1$[ebp]
  000f3	83 ec 08	 sub	 esp, 8
  000f6	f2 0f 11 04 24	 movsd	 QWORD PTR [esp], xmm0
  000fb	f3 0f 5a 45 fc	 cvtss2sd xmm0, DWORD PTR _x1$[ebp]
  00100	83 ec 08	 sub	 esp, 8
  00103	f2 0f 11 04 24	 movsd	 QWORD PTR [esp], xmm0
  00108	6a 58		 push	 88			; 00000058H
  0010a	8b 0d 00 00 00
	00		 mov	 ecx, DWORD PTR ?free_flight_screen@@3PAUUI_OBJECT@@A ; free_flight_screen
  00110	51		 push	 ecx
  00111	6a 32		 push	 50			; 00000032H
  00113	6a 01		 push	 1
  00115	e8 00 00 00 00	 call	 ?create_ui_object@@YAPAUUI_OBJECT@@HZZ ; create_ui_object
  0011a	83 c4 40	 add	 esp, 64			; 00000040H
  0011d	a3 00 00 00 00	 mov	 DWORD PTR ?free_flight_dialog_area@@3PAUUI_OBJECT@@A, eax

; 279  : 		(
; 280  : 			UI_TYPE_AREA,
; 281  : 			UI_ATTR_PARENT (free_flight_screen),
; 282  : 			UI_ATTR_VIRTUAL_POSITION (x1, y1),
; 283  : 			UI_ATTR_VIRTUAL_SIZE (x2 - x1, y2 - y1),
; 284  : 			UI_ATTR_TEXTURE_GRAPHIC (common_grey_alpha_mask),
; 285  : 			UI_ATTR_END
; 286  : 		);
; 287  : 
; 288  : 	/////////////////////////////////////////////////////////////////
; 289  : 	//
; 290  : 	// Quit Free Flight
; 291  : 	//
; 292  : 	/////////////////////////////////////////////////////////////////
; 293  : 
; 294  : 	x1 = 0.257;

  00122	f3 0f 10 05 00
	00 00 00	 movss	 xmm0, DWORD PTR __real@3e839581
  0012a	f3 0f 11 45 fc	 movss	 DWORD PTR _x1$[ebp], xmm0

; 295  : 	y1 = 0.303;

  0012f	f3 0f 10 05 00
	00 00 00	 movss	 xmm0, DWORD PTR __real@3e9b22d1
  00137	f3 0f 11 45 f4	 movss	 DWORD PTR _y1$[ebp], xmm0

; 296  : 	x2 = 0.74;

  0013c	f3 0f 10 05 00
	00 00 00	 movss	 xmm0, DWORD PTR __real@3f3d70a4
  00144	f3 0f 11 45 f8	 movss	 DWORD PTR _x2$[ebp], xmm0

; 297  : 	y2 = 0.612;

  00149	f3 0f 10 05 00
	00 00 00	 movss	 xmm0, DWORD PTR __real@3f1cac08
  00151	f3 0f 11 45 f0	 movss	 DWORD PTR _y2$[ebp], xmm0

; 298  : 
; 299  : 	free_flight_quit_campaign_area = create_ui_object

  00156	6a 11		 push	 17			; 00000011H
  00158	68 00 00 00 00	 push	 OFFSET ??_C@_0CF@EBOMMOO@graphics?2ui?2cohokum?2map?2quitcam@
  0015d	e8 00 00 00 00	 call	 ?create_texture_graphic@@YGPAUTEXTURE_GRAPHIC@@PBD@Z ; create_texture_graphic
  00162	50		 push	 eax
  00163	6a 4c		 push	 76			; 0000004cH
  00165	f3 0f 10 45 f0	 movss	 xmm0, DWORD PTR _y2$[ebp]
  0016a	f3 0f 5c 45 f4	 subss	 xmm0, DWORD PTR _y1$[ebp]
  0016f	f3 0f 5a c0	 cvtss2sd xmm0, xmm0
  00173	83 ec 08	 sub	 esp, 8
  00176	f2 0f 11 04 24	 movsd	 QWORD PTR [esp], xmm0
  0017b	f3 0f 10 45 f8	 movss	 xmm0, DWORD PTR _x2$[ebp]
  00180	f3 0f 5c 45 fc	 subss	 xmm0, DWORD PTR _x1$[ebp]
  00185	f3 0f 5a c0	 cvtss2sd xmm0, xmm0
  00189	83 ec 08	 sub	 esp, 8
  0018c	f2 0f 11 04 24	 movsd	 QWORD PTR [esp], xmm0
  00191	6a 59		 push	 89			; 00000059H
  00193	f3 0f 5a 45 f4	 cvtss2sd xmm0, DWORD PTR _y1$[ebp]
  00198	83 ec 08	 sub	 esp, 8
  0019b	f2 0f 11 04 24	 movsd	 QWORD PTR [esp], xmm0
  001a0	f3 0f 5a 45 fc	 cvtss2sd xmm0, DWORD PTR _x1$[ebp]
  001a5	83 ec 08	 sub	 esp, 8
  001a8	f2 0f 11 04 24	 movsd	 QWORD PTR [esp], xmm0
  001ad	6a 58		 push	 88			; 00000058H
  001af	a1 00 00 00 00	 mov	 eax, DWORD PTR ?free_flight_dialog_area@@3PAUUI_OBJECT@@A
  001b4	50		 push	 eax
  001b5	6a 32		 push	 50			; 00000032H
  001b7	6a 01		 push	 1
  001b9	e8 00 00 00 00	 call	 ?create_ui_object@@YAPAUUI_OBJECT@@HZZ ; create_ui_object
  001be	83 c4 40	 add	 esp, 64			; 00000040H
  001c1	a3 00 00 00 00	 mov	 DWORD PTR ?free_flight_quit_campaign_area@@3PAUUI_OBJECT@@A, eax

; 300  : 		(
; 301  : 			UI_TYPE_AREA,
; 302  : 			UI_ATTR_PARENT (free_flight_dialog_area),
; 303  : 			UI_ATTR_VIRTUAL_POSITION (x1, y1),
; 304  : 			UI_ATTR_VIRTUAL_SIZE (x2 - x1, y2 - y1),
; 305  : 			UI_ATTR_TEXTURE_GRAPHIC (create_texture_graphic ("graphics\\ui\\cohokum\\map\\quitcamp.psd")),
; 306  : 			UI_ATTR_END
; 307  : 		);
; 308  : 
; 309  : 	x1 = 0.1;

  001c6	f3 0f 10 05 00
	00 00 00	 movss	 xmm0, DWORD PTR __real@3dcccccd
  001ce	f3 0f 11 45 fc	 movss	 DWORD PTR _x1$[ebp], xmm0

; 310  : 	y1 = 0.65;

  001d3	f3 0f 10 05 00
	00 00 00	 movss	 xmm0, DWORD PTR __real@3f266666
  001db	f3 0f 11 45 f4	 movss	 DWORD PTR _y1$[ebp], xmm0

; 311  : 	x2 = 0.6;

  001e0	f3 0f 10 05 00
	00 00 00	 movss	 xmm0, DWORD PTR __real@3f19999a
  001e8	f3 0f 11 45 f8	 movss	 DWORD PTR _x2$[ebp], xmm0

; 312  : 	y2 = 1.0;

  001ed	f3 0f 10 05 00
	00 00 00	 movss	 xmm0, DWORD PTR __real@3f800000
  001f5	f3 0f 11 45 f0	 movss	 DWORD PTR _y2$[ebp], xmm0

; 313  : 
; 314  : 	sprintf (string, "%s?", get_trans ("Quit Free Flight"));

  001fa	68 00 00 00 00	 push	 OFFSET ??_C@_0BB@OMJKJBIF@Quit?5Free?5Flight@
  001ff	e8 00 00 00 00	 call	 ?get_trans@@YGPBDPBD@Z	; get_trans
  00204	50		 push	 eax
  00205	68 00 00 00 00	 push	 OFFSET ??_C@_03EHDOIDNK@?$CFs?$DP@
  0020a	8d 85 e8 fe ff
	ff		 lea	 eax, DWORD PTR _string$[ebp]
  00210	50		 push	 eax
  00211	e8 00 00 00 00	 call	 _sprintf
  00216	83 c4 0c	 add	 esp, 12			; 0000000cH

; 315  : 
; 316  : 	create_ui_object

  00219	6a 11		 push	 17			; 00000011H
  0021b	6a 01		 push	 1
  0021d	6a 07		 push	 7
  0021f	0f b6 05 03 00
	00 00		 movzx	 eax, BYTE PTR ?ui_ingame_dead_text_colour@@3UREAL_COLOUR@@A+3
  00226	50		 push	 eax
  00227	0f b6 0d 00 00
	00 00		 movzx	 ecx, BYTE PTR ?ui_ingame_dead_text_colour@@3UREAL_COLOUR@@A
  0022e	51		 push	 ecx
  0022f	0f b6 15 01 00
	00 00		 movzx	 edx, BYTE PTR ?ui_ingame_dead_text_colour@@3UREAL_COLOUR@@A+1
  00236	52		 push	 edx
  00237	0f b6 05 02 00
	00 00		 movzx	 eax, BYTE PTR ?ui_ingame_dead_text_colour@@3UREAL_COLOUR@@A+2
  0023e	50		 push	 eax
  0023f	6a 13		 push	 19			; 00000013H
  00241	6a 03		 push	 3
  00243	6a 12		 push	 18			; 00000012H
  00245	6a 01		 push	 1
  00247	6a 4b		 push	 75			; 0000004bH
  00249	8d 8d e8 fe ff
	ff		 lea	 ecx, DWORD PTR _string$[ebp]
  0024f	51		 push	 ecx
  00250	6a 4a		 push	 74			; 0000004aH
  00252	f3 0f 10 45 f0	 movss	 xmm0, DWORD PTR _y2$[ebp]
  00257	f3 0f 5c 45 f4	 subss	 xmm0, DWORD PTR _y1$[ebp]
  0025c	f3 0f 5a c0	 cvtss2sd xmm0, xmm0
  00260	83 ec 08	 sub	 esp, 8
  00263	f2 0f 11 04 24	 movsd	 QWORD PTR [esp], xmm0
  00268	f3 0f 10 45 f8	 movss	 xmm0, DWORD PTR _x2$[ebp]
  0026d	f3 0f 5c 45 fc	 subss	 xmm0, DWORD PTR _x1$[ebp]
  00272	f3 0f 5a c0	 cvtss2sd xmm0, xmm0
  00276	83 ec 08	 sub	 esp, 8
  00279	f2 0f 11 04 24	 movsd	 QWORD PTR [esp], xmm0
  0027e	6a 59		 push	 89			; 00000059H
  00280	f3 0f 5a 45 f4	 cvtss2sd xmm0, DWORD PTR _y1$[ebp]
  00285	83 ec 08	 sub	 esp, 8
  00288	f2 0f 11 04 24	 movsd	 QWORD PTR [esp], xmm0
  0028d	f3 0f 5a 45 fc	 cvtss2sd xmm0, DWORD PTR _x1$[ebp]
  00292	83 ec 08	 sub	 esp, 8
  00295	f2 0f 11 04 24	 movsd	 QWORD PTR [esp], xmm0
  0029a	6a 58		 push	 88			; 00000058H
  0029c	8b 15 00 00 00
	00		 mov	 edx, DWORD PTR ?free_flight_quit_campaign_area@@3PAUUI_OBJECT@@A
  002a2	52		 push	 edx
  002a3	6a 32		 push	 50			; 00000032H
  002a5	6a 01		 push	 1
  002a7	e8 00 00 00 00	 call	 ?create_ui_object@@YAPAUUI_OBJECT@@HZZ ; create_ui_object
  002ac	83 c4 6c	 add	 esp, 108		; 0000006cH

; 317  : 		(
; 318  : 			UI_TYPE_AREA,
; 319  : 			UI_ATTR_PARENT (free_flight_quit_campaign_area),
; 320  : 			UI_ATTR_VIRTUAL_POSITION (x1, y1),
; 321  : 			UI_ATTR_VIRTUAL_SIZE (x2 - x1, y2 - y1),
; 322  : 			UI_ATTR_TEXT (string),
; 323  : 			UI_ATTR_TEXT_JUSTIFY (TEXT_JUSTIFY_LEFT_CENTRE),
; 324  : 			UI_ATTR_FONT_TYPE (UI_FONT_ARIAL_16),
; 325  : 			UI_ATTR_FONT_COLOUR (ui_ingame_dead_text_colour.r, ui_ingame_dead_text_colour.g, ui_ingame_dead_text_colour.b, ui_ingame_dead_text_colour.a),
; 326  : 			UI_ATTR_CLEAR (TRUE),
; 327  : 			UI_ATTR_END
; 328  : 		);
; 329  : 
; 330  : 	x1 = 0.6;

  002af	f3 0f 10 05 00
	00 00 00	 movss	 xmm0, DWORD PTR __real@3f19999a
  002b7	f3 0f 11 45 fc	 movss	 DWORD PTR _x1$[ebp], xmm0

; 331  : 	y1 = 0.65;

  002bc	f3 0f 10 05 00
	00 00 00	 movss	 xmm0, DWORD PTR __real@3f266666
  002c4	f3 0f 11 45 f4	 movss	 DWORD PTR _y1$[ebp], xmm0

; 332  : 	x2 = 0.8;

  002c9	f3 0f 10 05 00
	00 00 00	 movss	 xmm0, DWORD PTR __real@3f4ccccd
  002d1	f3 0f 11 45 f8	 movss	 DWORD PTR _x2$[ebp], xmm0

; 333  : 	y2 = 1.0;

  002d6	f3 0f 10 05 00
	00 00 00	 movss	 xmm0, DWORD PTR __real@3f800000
  002de	f3 0f 11 45 f0	 movss	 DWORD PTR _y2$[ebp], xmm0

; 334  : 
; 335  : 	create_ui_object

  002e3	6a 11		 push	 17			; 00000011H
  002e5	6a 01		 push	 1
  002e7	6a 07		 push	 7
  002e9	6a 01		 push	 1
  002eb	6a 1b		 push	 27			; 0000001bH
  002ed	0f b6 05 03 00
	00 00		 movzx	 eax, BYTE PTR ?ui_ingame_selected_text_colour@@3UREAL_COLOUR@@A+3
  002f4	50		 push	 eax
  002f5	0f b6 0d 00 00
	00 00		 movzx	 ecx, BYTE PTR ?ui_ingame_selected_text_colour@@3UREAL_COLOUR@@A
  002fc	51		 push	 ecx
  002fd	0f b6 15 01 00
	00 00		 movzx	 edx, BYTE PTR ?ui_ingame_selected_text_colour@@3UREAL_COLOUR@@A+1
  00304	52		 push	 edx
  00305	0f b6 05 02 00
	00 00		 movzx	 eax, BYTE PTR ?ui_ingame_selected_text_colour@@3UREAL_COLOUR@@A+2
  0030c	50		 push	 eax
  0030d	6a 3d		 push	 61			; 0000003dH
  0030f	0f b6 0d 03 00
	00 00		 movzx	 ecx, BYTE PTR ?ui_ingame_highlight_text_colour@@3UREAL_COLOUR@@A+3
  00316	51		 push	 ecx
  00317	0f b6 15 00 00
	00 00		 movzx	 edx, BYTE PTR ?ui_ingame_highlight_text_colour@@3UREAL_COLOUR@@A
  0031e	52		 push	 edx
  0031f	0f b6 05 01 00
	00 00		 movzx	 eax, BYTE PTR ?ui_ingame_highlight_text_colour@@3UREAL_COLOUR@@A+1
  00326	50		 push	 eax
  00327	0f b6 0d 02 00
	00 00		 movzx	 ecx, BYTE PTR ?ui_ingame_highlight_text_colour@@3UREAL_COLOUR@@A+2
  0032e	51		 push	 ecx
  0032f	6a 21		 push	 33			; 00000021H
  00331	0f b6 15 03 00
	00 00		 movzx	 edx, BYTE PTR ?ui_ingame_live_text_colour@@3UREAL_COLOUR@@A+3
  00338	52		 push	 edx
  00339	0f b6 05 00 00
	00 00		 movzx	 eax, BYTE PTR ?ui_ingame_live_text_colour@@3UREAL_COLOUR@@A
  00340	50		 push	 eax
  00341	0f b6 0d 01 00
	00 00		 movzx	 ecx, BYTE PTR ?ui_ingame_live_text_colour@@3UREAL_COLOUR@@A+1
  00348	51		 push	 ecx
  00349	0f b6 15 02 00
	00 00		 movzx	 edx, BYTE PTR ?ui_ingame_live_text_colour@@3UREAL_COLOUR@@A+2
  00350	52		 push	 edx
  00351	6a 13		 push	 19			; 00000013H
  00353	6a 03		 push	 3
  00355	6a 12		 push	 18			; 00000012H
  00357	68 00 00 00 00	 push	 OFFSET ?notify_free_flight_accept_quit_campaign_button@@YGXPAUUI_OBJECT@@PAX@Z ; notify_free_flight_accept_quit_campaign_button
  0035c	6a 16		 push	 22			; 00000016H
  0035e	68 00 00 00 00	 push	 OFFSET ??_C@_03CCLAEDDF@Yes@
  00363	e8 00 00 00 00	 call	 ?get_trans@@YGPBDPBD@Z	; get_trans
  00368	50		 push	 eax
  00369	6a 4a		 push	 74			; 0000004aH
  0036b	f3 0f 10 45 f0	 movss	 xmm0, DWORD PTR _y2$[ebp]
  00370	f3 0f 5c 45 f4	 subss	 xmm0, DWORD PTR _y1$[ebp]
  00375	f3 0f 5a c0	 cvtss2sd xmm0, xmm0
  00379	83 ec 08	 sub	 esp, 8
  0037c	f2 0f 11 04 24	 movsd	 QWORD PTR [esp], xmm0
  00381	f3 0f 10 45 f8	 movss	 xmm0, DWORD PTR _x2$[ebp]
  00386	f3 0f 5c 45 fc	 subss	 xmm0, DWORD PTR _x1$[ebp]
  0038b	f3 0f 5a c0	 cvtss2sd xmm0, xmm0
  0038f	83 ec 08	 sub	 esp, 8
  00392	f2 0f 11 04 24	 movsd	 QWORD PTR [esp], xmm0
  00397	6a 59		 push	 89			; 00000059H
  00399	f3 0f 5a 45 f4	 cvtss2sd xmm0, DWORD PTR _y1$[ebp]
  0039e	83 ec 08	 sub	 esp, 8
  003a1	f2 0f 11 04 24	 movsd	 QWORD PTR [esp], xmm0
  003a6	f3 0f 5a 45 fc	 cvtss2sd xmm0, DWORD PTR _x1$[ebp]
  003ab	83 ec 08	 sub	 esp, 8
  003ae	f2 0f 11 04 24	 movsd	 QWORD PTR [esp], xmm0
  003b3	6a 58		 push	 88			; 00000058H
  003b5	a1 00 00 00 00	 mov	 eax, DWORD PTR ?free_flight_quit_campaign_area@@3PAUUI_OBJECT@@A
  003ba	50		 push	 eax
  003bb	6a 32		 push	 50			; 00000032H
  003bd	6a 02		 push	 2
  003bf	e8 00 00 00 00	 call	 ?create_ui_object@@YAPAUUI_OBJECT@@HZZ ; create_ui_object
  003c4	81 c4 9c 00 00
	00		 add	 esp, 156		; 0000009cH

; 336  : 		(
; 337  : 			UI_TYPE_BUTTON,
; 338  : 			UI_ATTR_PARENT (free_flight_quit_campaign_area),
; 339  : 			UI_ATTR_VIRTUAL_POSITION (x1, y1),
; 340  : 			UI_ATTR_VIRTUAL_SIZE (x2 - x1, y2 - y1),
; 341  : 			UI_ATTR_TEXT (get_trans ("Yes")),
; 342  : 			UI_ATTR_FUNCTION (notify_free_flight_accept_quit_campaign_button),
; 343  : 			UI_ATTR_FONT_TYPE (UI_FONT_ARIAL_16),
; 344  : 			UI_ATTR_FONT_COLOUR (ui_ingame_live_text_colour.r, ui_ingame_live_text_colour.g, ui_ingame_live_text_colour.b, ui_ingame_live_text_colour.a),
; 345  : 			UI_ATTR_HIGHLIGHTED_FONT_COLOUR (ui_ingame_highlight_text_colour.r, ui_ingame_highlight_text_colour.g, ui_ingame_highlight_text_colour.b, ui_ingame_highlight_text_colour.a),
; 346  : 			UI_ATTR_SELECTED_FONT_COLOUR (ui_ingame_selected_text_colour.r, ui_ingame_selected_text_colour.g, ui_ingame_selected_text_colour.b, ui_ingame_selected_text_colour.a),
; 347  : 			UI_ATTR_HIGHLIGHTABLE (TRUE),
; 348  : 			UI_ATTR_CLEAR (TRUE),
; 349  : 			UI_ATTR_END
; 350  : 		);
; 351  : 
; 352  : 	x1 = 0.8;

  003ca	f3 0f 10 05 00
	00 00 00	 movss	 xmm0, DWORD PTR __real@3f4ccccd
  003d2	f3 0f 11 45 fc	 movss	 DWORD PTR _x1$[ebp], xmm0

; 353  : 	y1 = 0.65;

  003d7	f3 0f 10 05 00
	00 00 00	 movss	 xmm0, DWORD PTR __real@3f266666
  003df	f3 0f 11 45 f4	 movss	 DWORD PTR _y1$[ebp], xmm0

; 354  : 	x2 = 1.0;

  003e4	f3 0f 10 05 00
	00 00 00	 movss	 xmm0, DWORD PTR __real@3f800000
  003ec	f3 0f 11 45 f8	 movss	 DWORD PTR _x2$[ebp], xmm0

; 355  : 	y2 = 1.0;

  003f1	f3 0f 10 05 00
	00 00 00	 movss	 xmm0, DWORD PTR __real@3f800000
  003f9	f3 0f 11 45 f0	 movss	 DWORD PTR _y2$[ebp], xmm0

; 356  : 
; 357  : 	create_ui_object

  003fe	6a 11		 push	 17			; 00000011H
  00400	6a 01		 push	 1
  00402	6a 07		 push	 7
  00404	6a 01		 push	 1
  00406	6a 1b		 push	 27			; 0000001bH
  00408	0f b6 05 03 00
	00 00		 movzx	 eax, BYTE PTR ?ui_ingame_selected_text_colour@@3UREAL_COLOUR@@A+3
  0040f	50		 push	 eax
  00410	0f b6 0d 00 00
	00 00		 movzx	 ecx, BYTE PTR ?ui_ingame_selected_text_colour@@3UREAL_COLOUR@@A
  00417	51		 push	 ecx
  00418	0f b6 15 01 00
	00 00		 movzx	 edx, BYTE PTR ?ui_ingame_selected_text_colour@@3UREAL_COLOUR@@A+1
  0041f	52		 push	 edx
  00420	0f b6 05 02 00
	00 00		 movzx	 eax, BYTE PTR ?ui_ingame_selected_text_colour@@3UREAL_COLOUR@@A+2
  00427	50		 push	 eax
  00428	6a 3d		 push	 61			; 0000003dH
  0042a	0f b6 0d 03 00
	00 00		 movzx	 ecx, BYTE PTR ?ui_ingame_highlight_text_colour@@3UREAL_COLOUR@@A+3
  00431	51		 push	 ecx
  00432	0f b6 15 00 00
	00 00		 movzx	 edx, BYTE PTR ?ui_ingame_highlight_text_colour@@3UREAL_COLOUR@@A
  00439	52		 push	 edx
  0043a	0f b6 05 01 00
	00 00		 movzx	 eax, BYTE PTR ?ui_ingame_highlight_text_colour@@3UREAL_COLOUR@@A+1
  00441	50		 push	 eax
  00442	0f b6 0d 02 00
	00 00		 movzx	 ecx, BYTE PTR ?ui_ingame_highlight_text_colour@@3UREAL_COLOUR@@A+2
  00449	51		 push	 ecx
  0044a	6a 21		 push	 33			; 00000021H
  0044c	0f b6 15 03 00
	00 00		 movzx	 edx, BYTE PTR ?ui_ingame_live_text_colour@@3UREAL_COLOUR@@A+3
  00453	52		 push	 edx
  00454	0f b6 05 00 00
	00 00		 movzx	 eax, BYTE PTR ?ui_ingame_live_text_colour@@3UREAL_COLOUR@@A
  0045b	50		 push	 eax
  0045c	0f b6 0d 01 00
	00 00		 movzx	 ecx, BYTE PTR ?ui_ingame_live_text_colour@@3UREAL_COLOUR@@A+1
  00463	51		 push	 ecx
  00464	0f b6 15 02 00
	00 00		 movzx	 edx, BYTE PTR ?ui_ingame_live_text_colour@@3UREAL_COLOUR@@A+2
  0046b	52		 push	 edx
  0046c	6a 13		 push	 19			; 00000013H
  0046e	6a 03		 push	 3
  00470	6a 12		 push	 18			; 00000012H
  00472	68 00 00 00 00	 push	 OFFSET ?notify_free_flight_cancel_quit_campaign_button@@YGXPAUUI_OBJECT@@PAX@Z ; notify_free_flight_cancel_quit_campaign_button
  00477	6a 16		 push	 22			; 00000016H
  00479	68 00 00 00 00	 push	 OFFSET ??_C@_02JINPPBEP@No@
  0047e	e8 00 00 00 00	 call	 ?get_trans@@YGPBDPBD@Z	; get_trans
  00483	50		 push	 eax
  00484	6a 4a		 push	 74			; 0000004aH
  00486	f3 0f 10 45 f0	 movss	 xmm0, DWORD PTR _y2$[ebp]
  0048b	f3 0f 5c 45 f4	 subss	 xmm0, DWORD PTR _y1$[ebp]
  00490	f3 0f 5a c0	 cvtss2sd xmm0, xmm0
  00494	83 ec 08	 sub	 esp, 8
  00497	f2 0f 11 04 24	 movsd	 QWORD PTR [esp], xmm0
  0049c	f3 0f 10 45 f8	 movss	 xmm0, DWORD PTR _x2$[ebp]
  004a1	f3 0f 5c 45 fc	 subss	 xmm0, DWORD PTR _x1$[ebp]
  004a6	f3 0f 5a c0	 cvtss2sd xmm0, xmm0
  004aa	83 ec 08	 sub	 esp, 8
  004ad	f2 0f 11 04 24	 movsd	 QWORD PTR [esp], xmm0
  004b2	6a 59		 push	 89			; 00000059H
  004b4	f3 0f 5a 45 f4	 cvtss2sd xmm0, DWORD PTR _y1$[ebp]
  004b9	83 ec 08	 sub	 esp, 8
  004bc	f2 0f 11 04 24	 movsd	 QWORD PTR [esp], xmm0
  004c1	f3 0f 5a 45 fc	 cvtss2sd xmm0, DWORD PTR _x1$[ebp]
  004c6	83 ec 08	 sub	 esp, 8
  004c9	f2 0f 11 04 24	 movsd	 QWORD PTR [esp], xmm0
  004ce	6a 58		 push	 88			; 00000058H
  004d0	a1 00 00 00 00	 mov	 eax, DWORD PTR ?free_flight_quit_campaign_area@@3PAUUI_OBJECT@@A
  004d5	50		 push	 eax
  004d6	6a 32		 push	 50			; 00000032H
  004d8	6a 02		 push	 2
  004da	e8 00 00 00 00	 call	 ?create_ui_object@@YAPAUUI_OBJECT@@HZZ ; create_ui_object
  004df	81 c4 9c 00 00
	00		 add	 esp, 156		; 0000009cH

; 358  : 		(
; 359  : 			UI_TYPE_BUTTON,
; 360  : 			UI_ATTR_PARENT (free_flight_quit_campaign_area),
; 361  : 			UI_ATTR_VIRTUAL_POSITION (x1, y1),
; 362  : 			UI_ATTR_VIRTUAL_SIZE (x2 - x1, y2 - y1),
; 363  : 			UI_ATTR_TEXT (get_trans ("No")),
; 364  : 			UI_ATTR_FUNCTION (notify_free_flight_cancel_quit_campaign_button),
; 365  : 			UI_ATTR_FONT_TYPE (UI_FONT_ARIAL_16),
; 366  : 			UI_ATTR_FONT_COLOUR (ui_ingame_live_text_colour.r, ui_ingame_live_text_colour.g, ui_ingame_live_text_colour.b, ui_ingame_live_text_colour.a),
; 367  : 			UI_ATTR_HIGHLIGHTED_FONT_COLOUR (ui_ingame_highlight_text_colour.r, ui_ingame_highlight_text_colour.g, ui_ingame_highlight_text_colour.b, ui_ingame_highlight_text_colour.a),
; 368  : 			UI_ATTR_SELECTED_FONT_COLOUR (ui_ingame_selected_text_colour.r, ui_ingame_selected_text_colour.g, ui_ingame_selected_text_colour.b, ui_ingame_selected_text_colour.a),
; 369  : 			UI_ATTR_HIGHLIGHTABLE (TRUE),
; 370  : 			UI_ATTR_CLEAR (TRUE),
; 371  : 			UI_ATTR_END
; 372  : 		);
; 373  : }

  004e5	5f		 pop	 edi
  004e6	5e		 pop	 esi
  004e7	5b		 pop	 ebx
  004e8	8b e5		 mov	 esp, ebp
  004ea	5d		 pop	 ebp
  004eb	c3		 ret	 0
?initialise_free_flight_screen@@YGXXZ ENDP		; initialise_free_flight_screen
_TEXT	ENDS
; Function compile flags: /Odtp /ZI
; File c:\users\nhv90\projects\eech\aphavoc\source\ui_menu\ingame\fflight\fflight.c
;	COMDAT ?setup_free_flight_quit_campaign_dialog@@YGXXZ
_TEXT	SEGMENT
?setup_free_flight_quit_campaign_dialog@@YGXXZ PROC	; setup_free_flight_quit_campaign_dialog, COMDAT

; 222  : {

  00000	55		 push	 ebp
  00001	8b ec		 mov	 ebp, esp
  00003	83 ec 40	 sub	 esp, 64			; 00000040H
  00006	53		 push	 ebx
  00007	56		 push	 esi
  00008	57		 push	 edi

; 223  : 	set_ui_object_drawable (free_flight_dialog_area, TRUE);

  00009	6a 01		 push	 1
  0000b	a1 00 00 00 00	 mov	 eax, DWORD PTR ?free_flight_dialog_area@@3PAUUI_OBJECT@@A
  00010	50		 push	 eax
  00011	8b 0d 00 00 00
	00		 mov	 ecx, DWORD PTR ?free_flight_dialog_area@@3PAUUI_OBJECT@@A
  00017	8b 11		 mov	 edx, DWORD PTR [ecx]
  00019	8b 04 95 00 00
	00 00		 mov	 eax, DWORD PTR ?fn_set_ui_object_drawable@@3PAP6GXPAUUI_OBJECT@@H@ZA[edx*4]
  00020	ff d0		 call	 eax

; 224  : 
; 225  : 	set_ui_object_drawable (free_flight_quit_campaign_area, TRUE);

  00022	6a 01		 push	 1
  00024	a1 00 00 00 00	 mov	 eax, DWORD PTR ?free_flight_quit_campaign_area@@3PAUUI_OBJECT@@A
  00029	50		 push	 eax
  0002a	8b 0d 00 00 00
	00		 mov	 ecx, DWORD PTR ?free_flight_quit_campaign_area@@3PAUUI_OBJECT@@A
  00030	8b 11		 mov	 edx, DWORD PTR [ecx]
  00032	8b 04 95 00 00
	00 00		 mov	 eax, DWORD PTR ?fn_set_ui_object_drawable@@3PAP6GXPAUUI_OBJECT@@H@ZA[edx*4]
  00039	ff d0		 call	 eax

; 226  : 
; 227  : 	push_event (quit_free_flight_set_events, "quit free flight events");

  0003b	68 00 00 00 00	 push	 OFFSET ??_C@_0BI@DOHPEMEI@quit?5free?5flight?5events@
  00040	68 00 00 00 00	 push	 OFFSET ?quit_free_flight_set_events@@YGXXZ ; quit_free_flight_set_events
  00045	e8 00 00 00 00	 call	 ?push_event@@YGXP6GXXZPBD@Z ; push_event

; 228  : }

  0004a	5f		 pop	 edi
  0004b	5e		 pop	 esi
  0004c	5b		 pop	 ebx
  0004d	8b e5		 mov	 esp, ebp
  0004f	5d		 pop	 ebp
  00050	c3		 ret	 0
?setup_free_flight_quit_campaign_dialog@@YGXXZ ENDP	; setup_free_flight_quit_campaign_dialog
_TEXT	ENDS
; Function compile flags: /Odtp /ZI
; File c:\users\nhv90\projects\eech\aphavoc\source\ui_menu\ingame\fflight\fflight.c
;	COMDAT ?initialise_main_free_flight_screen@@YGXXZ
_TEXT	SEGMENT
?initialise_main_free_flight_screen@@YGXXZ PROC		; initialise_main_free_flight_screen, COMDAT

; 100  : {

  00000	55		 push	 ebp
  00001	8b ec		 mov	 ebp, esp
  00003	83 ec 40	 sub	 esp, 64			; 00000040H
  00006	53		 push	 ebx
  00007	56		 push	 esi
  00008	57		 push	 edi

; 101  : 	initialise_map_data ();

  00009	e8 00 00 00 00	 call	 ?initialise_map_data@@YGXXZ ; initialise_map_data

; 102  : 
; 103  : 	initialise_free_flight_screen_map_page_objects ();

  0000e	e8 00 00 00 00	 call	 ?initialise_free_flight_screen_map_page_objects@@YGXXZ ; initialise_free_flight_screen_map_page_objects

; 104  : 
; 105  : 	initialise_free_flight_screen_info_objects ();

  00013	e8 00 00 00 00	 call	 ?initialise_free_flight_screen_info_objects@@YGXXZ ; initialise_free_flight_screen_info_objects

; 106  : 
; 107  : 	set_ui_object_drawable (free_flight_dialog_area, FALSE);

  00018	6a 00		 push	 0
  0001a	a1 00 00 00 00	 mov	 eax, DWORD PTR ?free_flight_dialog_area@@3PAUUI_OBJECT@@A
  0001f	50		 push	 eax
  00020	8b 0d 00 00 00
	00		 mov	 ecx, DWORD PTR ?free_flight_dialog_area@@3PAUUI_OBJECT@@A
  00026	8b 11		 mov	 edx, DWORD PTR [ecx]
  00028	8b 04 95 00 00
	00 00		 mov	 eax, DWORD PTR ?fn_set_ui_object_drawable@@3PAP6GXPAUUI_OBJECT@@H@ZA[edx*4]
  0002f	ff d0		 call	 eax

; 108  : 
; 109  : 	set_ui_object_drawable (free_flight_quit_campaign_area, FALSE);

  00031	6a 00		 push	 0
  00033	a1 00 00 00 00	 mov	 eax, DWORD PTR ?free_flight_quit_campaign_area@@3PAUUI_OBJECT@@A
  00038	50		 push	 eax
  00039	8b 0d 00 00 00
	00		 mov	 ecx, DWORD PTR ?free_flight_quit_campaign_area@@3PAUUI_OBJECT@@A
  0003f	8b 11		 mov	 edx, DWORD PTR [ecx]
  00041	8b 04 95 00 00
	00 00		 mov	 eax, DWORD PTR ?fn_set_ui_object_drawable@@3PAP6GXPAUUI_OBJECT@@H@ZA[edx*4]
  00048	ff d0		 call	 eax

; 110  : }

  0004a	5f		 pop	 edi
  0004b	5e		 pop	 esi
  0004c	5b		 pop	 ebx
  0004d	8b e5		 mov	 esp, ebp
  0004f	5d		 pop	 ebp
  00050	c3		 ret	 0
?initialise_main_free_flight_screen@@YGXXZ ENDP		; initialise_main_free_flight_screen
_TEXT	ENDS
; Function compile flags: /Odtp /ZI
; File c:\program files (x86)\windows kits\10\include\10.0.18362.0\ucrt\stdio.h
;	COMDAT _sprintf
_TEXT	SEGMENT
__ArgList$ = -8						; size = 4
__Result$ = -4						; size = 4
__Buffer$ = 8						; size = 4
__Format$ = 12						; size = 4
_sprintf PROC						; COMDAT

; 1781 :     {

  00000	55		 push	 ebp
  00001	8b ec		 mov	 ebp, esp
  00003	83 ec 4c	 sub	 esp, 76			; 0000004cH
  00006	53		 push	 ebx
  00007	56		 push	 esi
  00008	57		 push	 edi

; 1782 :         int _Result;
; 1783 :         va_list _ArgList;
; 1784 :         __crt_va_start(_ArgList, _Format);

  00009	8d 45 10	 lea	 eax, DWORD PTR __Format$[ebp+4]
  0000c	89 45 f8	 mov	 DWORD PTR __ArgList$[ebp], eax

; 1785 : 
; 1786 :         #pragma warning(push)
; 1787 :         #pragma warning(disable: 4996) // Deprecation
; 1788 :         _Result = _vsprintf_l(_Buffer, _Format, NULL, _ArgList);

  0000f	8b 45 f8	 mov	 eax, DWORD PTR __ArgList$[ebp]
  00012	50		 push	 eax
  00013	6a 00		 push	 0
  00015	8b 4d 0c	 mov	 ecx, DWORD PTR __Format$[ebp]
  00018	51		 push	 ecx
  00019	8b 55 08	 mov	 edx, DWORD PTR __Buffer$[ebp]
  0001c	52		 push	 edx
  0001d	e8 00 00 00 00	 call	 __vsprintf_l
  00022	83 c4 10	 add	 esp, 16			; 00000010H
  00025	89 45 fc	 mov	 DWORD PTR __Result$[ebp], eax

; 1789 :         #pragma warning(pop)
; 1790 : 
; 1791 :         __crt_va_end(_ArgList);

  00028	c7 45 f8 00 00
	00 00		 mov	 DWORD PTR __ArgList$[ebp], 0

; 1792 :         return _Result;

  0002f	8b 45 fc	 mov	 eax, DWORD PTR __Result$[ebp]

; 1793 :     }

  00032	5f		 pop	 edi
  00033	5e		 pop	 esi
  00034	5b		 pop	 ebx
  00035	8b e5		 mov	 esp, ebp
  00037	5d		 pop	 ebp
  00038	c3		 ret	 0
_sprintf ENDP
_TEXT	ENDS
; Function compile flags: /Odtp /ZI
; File c:\program files (x86)\windows kits\10\include\10.0.18362.0\ucrt\stdio.h
;	COMDAT __vsprintf_l
_TEXT	SEGMENT
__Buffer$ = 8						; size = 4
__Format$ = 12						; size = 4
__Locale$ = 16						; size = 4
__ArgList$ = 20						; size = 4
__vsprintf_l PROC					; COMDAT

; 1459 :     {

  00000	55		 push	 ebp
  00001	8b ec		 mov	 ebp, esp
  00003	83 ec 40	 sub	 esp, 64			; 00000040H
  00006	53		 push	 ebx
  00007	56		 push	 esi
  00008	57		 push	 edi

; 1460 :         #pragma warning(push)
; 1461 :         #pragma warning(disable: 4996) // Deprecation
; 1462 :         return _vsnprintf_l(_Buffer, (size_t)-1, _Format, _Locale, _ArgList);

  00009	8b 45 14	 mov	 eax, DWORD PTR __ArgList$[ebp]
  0000c	50		 push	 eax
  0000d	8b 4d 10	 mov	 ecx, DWORD PTR __Locale$[ebp]
  00010	51		 push	 ecx
  00011	8b 55 0c	 mov	 edx, DWORD PTR __Format$[ebp]
  00014	52		 push	 edx
  00015	6a ff		 push	 -1
  00017	8b 45 08	 mov	 eax, DWORD PTR __Buffer$[ebp]
  0001a	50		 push	 eax
  0001b	e8 00 00 00 00	 call	 __vsnprintf_l
  00020	83 c4 14	 add	 esp, 20			; 00000014H

; 1463 :         #pragma warning(pop)
; 1464 :     }

  00023	5f		 pop	 edi
  00024	5e		 pop	 esi
  00025	5b		 pop	 ebx
  00026	8b e5		 mov	 esp, ebp
  00028	5d		 pop	 ebp
  00029	c3		 ret	 0
__vsprintf_l ENDP
_TEXT	ENDS
; Function compile flags: /Odtp /ZI
; File c:\program files (x86)\windows kits\10\include\10.0.18362.0\ucrt\stdio.h
;	COMDAT __vsnprintf_l
_TEXT	SEGMENT
tv74 = -72						; size = 4
__Result$ = -4						; size = 4
__Buffer$ = 8						; size = 4
__BufferCount$ = 12					; size = 4
__Format$ = 16						; size = 4
__Locale$ = 20						; size = 4
__ArgList$ = 24						; size = 4
__vsnprintf_l PROC					; COMDAT

; 1389 :     {

  00000	55		 push	 ebp
  00001	8b ec		 mov	 ebp, esp
  00003	83 ec 48	 sub	 esp, 72			; 00000048H
  00006	53		 push	 ebx
  00007	56		 push	 esi
  00008	57		 push	 edi

; 1390 :         int const _Result = __stdio_common_vsprintf(

  00009	8b 45 18	 mov	 eax, DWORD PTR __ArgList$[ebp]
  0000c	50		 push	 eax
  0000d	8b 4d 14	 mov	 ecx, DWORD PTR __Locale$[ebp]
  00010	51		 push	 ecx
  00011	8b 55 10	 mov	 edx, DWORD PTR __Format$[ebp]
  00014	52		 push	 edx
  00015	8b 45 0c	 mov	 eax, DWORD PTR __BufferCount$[ebp]
  00018	50		 push	 eax
  00019	8b 4d 08	 mov	 ecx, DWORD PTR __Buffer$[ebp]
  0001c	51		 push	 ecx
  0001d	e8 00 00 00 00	 call	 ___local_stdio_printf_options
  00022	8b 10		 mov	 edx, DWORD PTR [eax]
  00024	83 ca 01	 or	 edx, 1
  00027	8b 40 04	 mov	 eax, DWORD PTR [eax+4]
  0002a	50		 push	 eax
  0002b	52		 push	 edx
  0002c	ff 15 00 00 00
	00		 call	 DWORD PTR __imp____stdio_common_vsprintf
  00032	83 c4 1c	 add	 esp, 28			; 0000001cH
  00035	89 45 fc	 mov	 DWORD PTR __Result$[ebp], eax

; 1391 :             _CRT_INTERNAL_LOCAL_PRINTF_OPTIONS | _CRT_INTERNAL_PRINTF_LEGACY_VSPRINTF_NULL_TERMINATION,
; 1392 :             _Buffer, _BufferCount, _Format, _Locale, _ArgList);
; 1393 : 
; 1394 :         return _Result < 0 ? -1 : _Result;

  00038	83 7d fc 00	 cmp	 DWORD PTR __Result$[ebp], 0
  0003c	7d 09		 jge	 SHORT $LN3@vsnprintf_
  0003e	c7 45 b8 ff ff
	ff ff		 mov	 DWORD PTR tv74[ebp], -1
  00045	eb 06		 jmp	 SHORT $LN4@vsnprintf_
$LN3@vsnprintf_:
  00047	8b 45 fc	 mov	 eax, DWORD PTR __Result$[ebp]
  0004a	89 45 b8	 mov	 DWORD PTR tv74[ebp], eax
$LN4@vsnprintf_:
  0004d	8b 45 b8	 mov	 eax, DWORD PTR tv74[ebp]

; 1395 :     }

  00050	5f		 pop	 edi
  00051	5e		 pop	 esi
  00052	5b		 pop	 ebx
  00053	8b e5		 mov	 esp, ebp
  00055	5d		 pop	 ebp
  00056	c3		 ret	 0
__vsnprintf_l ENDP
_TEXT	ENDS
; Function compile flags: /Odtp /ZI
; File c:\program files (x86)\windows kits\10\include\10.0.18362.0\ucrt\corecrt_stdio_config.h
;	COMDAT ___local_stdio_printf_options
_TEXT	SEGMENT
___local_stdio_printf_options PROC			; COMDAT

; 86   :     {

  00000	55		 push	 ebp
  00001	8b ec		 mov	 ebp, esp
  00003	83 ec 40	 sub	 esp, 64			; 00000040H
  00006	53		 push	 ebx
  00007	56		 push	 esi
  00008	57		 push	 edi

; 87   :         static unsigned __int64 _OptionsStorage;
; 88   :         return &_OptionsStorage;

  00009	b8 00 00 00 00	 mov	 eax, OFFSET ?_OptionsStorage@?1??__local_stdio_printf_options@@9@4_KA ; `__local_stdio_printf_options'::`2'::_OptionsStorage

; 89   :     }

  0000e	5f		 pop	 edi
  0000f	5e		 pop	 esi
  00010	5b		 pop	 ebx
  00011	8b e5		 mov	 esp, ebp
  00013	5d		 pop	 ebp
  00014	c3		 ret	 0
___local_stdio_printf_options ENDP
_TEXT	ENDS
END
