; Listing generated by Microsoft (R) Optimizing Compiler Version 19.16.27045.0 

	TITLE	C:\Users\nhv90\Projects\eech\aphavoc\source\entity\mobile\aircraft\fixwing\fw_creat.c
	.686P
	.XMM
	include listing.inc
	.model	flat

INCLUDELIB MSVCRTD
INCLUDELIB OLDNAMES

PUBLIC	?overload_fixed_wing_create_functions@@YGXXZ	; overload_fixed_wing_create_functions
PUBLIC	?create_client_server_entity_fixed_wing@@YGPAUENTITY@@HHPAU1@PAUVEC3D@@@Z ; create_client_server_entity_fixed_wing
PUBLIC	?__LINE__Var@?0??create_local@@YGPAUENTITY@@W4ENTITY_TYPES@@HPAD@Z@4JA ; `create_local'::`1'::__LINE__Var
PUBLIC	??_C@_0FG@MDINGGKI@c?3?2users?2nhv90?2projects?2eech?2ap@ ; `string'
PUBLIC	??_C@_0CL@OOPHFNJI@assert_local_create_entity_inde@ ; `string'
PUBLIC	??_C@_0BL@KLFILFGE@raw?9?$DOac?4member_link?4parent@ ; `string'
PUBLIC	??_C@_0EI@LMPOBACG@get_local_entity_type?5?$CIraw?9?$DOac?4@ ; `string'
PUBLIC	??_C@_0CI@CGPGOOPC@raw?9?$DOac?4mob?4side?5?$CB?$DN?5ENTITY_SIDE@ ; `string'
PUBLIC	??_C@_0DG@KEJHCNJ@entity_sub_type_aircraft_valid?5@ ; `string'
PUBLIC	??_C@_0DG@OOAIMCDD@weapon_config_type_valid?5?$CIraw?9?$DO@ ; `string'
PUBLIC	?__LINE__Var@?0??create_remote@@YGPAUENTITY@@W4ENTITY_TYPES@@HPAD@Z@4JA ; `create_remote'::`1'::__LINE__Var
PUBLIC	??_C@_0CM@DHBIKIGD@assert_remote_create_entity_ind@ ; `string'
PUBLIC	?__LINE__Var@?0??create_server@@YGPAUENTITY@@W4ENTITY_TYPES@@HPAD@Z@4JA ; `create_server'::`1'::__LINE__Var
PUBLIC	??_C@_0CB@CFOCLFOK@assert_client_server_local_fn?5?$CI@ ; `string'
PUBLIC	??_C@_0CC@BNNNEGEG@assert_client_server_remote_fn?5@ ; `string'
PUBLIC	?__LINE__Var@?0??create_client@@YGPAUENTITY@@W4ENTITY_TYPES@@HPAD@Z@4JA ; `create_client'::`1'::__LINE__Var
PUBLIC	?__LINE__Var@?0??create_client_server_entity_fixed_wing@@YGPAUENTITY@@HHPAU2@PAUVEC3D@@@Z@4JA ; `create_client_server_entity_fixed_wing'::`1'::__LINE__Var
PUBLIC	??_C@_0CI@NLFHFOLH@get_comms_model?$CI?$CJ?5?$DN?$DN?5COMMS_MODE@ ; `string'
PUBLIC	__real@3f800000
PUBLIC	__real@40000000
PUBLIC	__real@49742400
PUBLIC	__real@bf800000
EXTRN	_memset:PROC
EXTRN	?process_assert@@YGXPBD0H@Z:PROC		; process_assert
EXTRN	?malloc_fast_memory@@YGPAXI@Z:PROC		; malloc_fast_memory
EXTRN	?get_identity_matrix3x3@@YGXQAY02M@Z:PROC	; get_identity_matrix3x3
EXTRN	?construct_3d_object@@YGPAUOBJECT_3D_INSTANCE@@H@Z:PROC ; construct_3d_object
EXTRN	?get_3d_terrain_point_data@@YGMMMPAUTERRAIN_3D_POINT_DATA@@@Z:PROC ; get_3d_terrain_point_data
EXTRN	?set_local_entity_attributes@@YGXPAUENTITY@@PAD@Z:PROC ; set_local_entity_attributes
EXTRN	?insert_local_entity_into_parents_child_list@@YGXPAUENTITY@@W4LIST_TYPES@@00@Z:PROC ; insert_local_entity_into_parents_child_list
EXTRN	?create_client_server_entity@@YAPAUENTITY@@W4ENTITY_TYPES@@HZZ:PROC ; create_client_server_entity
EXTRN	?transmit_entity_comms_message@@YAXW4ENTITY_COMMS_MESSAGES@@PAUENTITY@@ZZ:PROC ; transmit_entity_comms_message
EXTRN	?assert_client_server_local_fn@@YGHXZ:PROC	; assert_client_server_local_fn
EXTRN	?assert_client_server_remote_fn@@YGHXZ:PROC	; assert_client_server_remote_fn
EXTRN	?assert_local_create_entity_index@@YGHH@Z:PROC	; assert_local_create_entity_index
EXTRN	?assert_remote_create_entity_index@@YGHH@Z:PROC	; assert_remote_create_entity_index
EXTRN	?get_free_entity@@YGPAUENTITY@@H@Z:PROC		; get_free_entity
EXTRN	?load_local_entity_weapon_config@@YGXPAUENTITY@@@Z:PROC ; load_local_entity_weapon_config
EXTRN	?initialise_fixed_wing_propellors@@YGXPAUENTITY@@@Z:PROC ; initialise_fixed_wing_propellors
EXTRN	?set_fixed_wing_id_number@@YGXPAUENTITY@@@Z:PROC ; set_fixed_wing_id_number
EXTRN	?attach_fixed_wing_meta_smoke_lists@@YGXPAUENTITY@@@Z:PROC ; attach_fixed_wing_meta_smoke_lists
EXTRN	?get_local_entity_view_list_pred@@YGPAUENTITY@@PAU1@@Z:PROC ; get_local_entity_view_list_pred
EXTRN	?create_client_server_sound_effect_entity@@YGPAUENTITY@@PAU1@W4ENTITY_SIDES@@HW4SOUND_CHANNEL_TYPES@@W4SOUND_LOCALITY_TYPES@@PAUVEC3D@@MMHHHPAH@Z:PROC ; create_client_server_sound_effect_entity
EXTRN	?get_local_force_entity@@YGPAUENTITY@@W4ENTITY_SIDES@@@Z:PROC ; get_local_force_entity
EXTRN	?add_to_force_info@@YGXPAUENTITY@@0@Z:PROC	; add_to_force_info
EXTRN	?get_local_sector_entity@@YGPAUENTITY@@PAUVEC3D@@@Z:PROC ; get_local_sector_entity
EXTRN	?write_tacview_new_unit@@YGXPAUENTITY@@@Z:PROC	; write_tacview_new_unit
EXTRN	?null_entity_pointer_message@@3PBDB:DWORD	; null_entity_pointer_message
EXTRN	?system_comms_model@@3W4COMMS_MODEL_TYPES@@A:DWORD ; system_comms_model
EXTRN	?system_comms_data_flow@@3W4COMMS_DATA_FLOW_TYPES@@A:DWORD ; system_comms_data_flow
EXTRN	?world_map@@3UWORLD_MAP_DATA@@A:BYTE		; world_map
EXTRN	?fn_create_local_entity@@3PAP6GPAUENTITY@@W4ENTITY_TYPES@@HPAD@ZA:BYTE ; fn_create_local_entity
EXTRN	?fn_create_client_server_entity@@3PAY01P6GPAUENTITY@@W4ENTITY_TYPES@@HPAD@ZA:BYTE ; fn_create_client_server_entity
EXTRN	?overload_invalid_int_type_message@@3PBDB:DWORD	; overload_invalid_int_type_message
EXTRN	?fn_get_local_entity_int_value@@3PAY0BBH@P6GHPAUENTITY@@W4INT_TYPES@@@ZA:BYTE ; fn_get_local_entity_int_value
EXTRN	?entities@@3PAUENTITY@@A:DWORD			; entities
EXTRN	?aircraft_database@@3PAUAIRCRAFT_DATA@@A:BYTE	; aircraft_database
EXTRN	?camera_entity@@3PAUENTITY@@A:DWORD		; camera_entity
EXTRN	?group_database@@3PAUGROUP_DATA@@A:BYTE		; group_database
EXTRN	?update_entity@@3PAUENTITY@@A:DWORD		; update_entity
EXTRN	?tacview_log_file@@3PAU_iobuf@@A:DWORD		; tacview_log_file
EXTRN	__fltused:DWORD
;	COMDAT __real@bf800000
CONST	SEGMENT
__real@bf800000 DD 0bf800000r			; -1
CONST	ENDS
;	COMDAT __real@49742400
CONST	SEGMENT
__real@49742400 DD 049742400r			; 1e+06
CONST	ENDS
;	COMDAT __real@40000000
CONST	SEGMENT
__real@40000000 DD 040000000r			; 2
CONST	ENDS
;	COMDAT __real@3f800000
CONST	SEGMENT
__real@3f800000 DD 03f800000r			; 1
CONST	ENDS
;	COMDAT ??_C@_0CI@NLFHFOLH@get_comms_model?$CI?$CJ?5?$DN?$DN?5COMMS_MODE@
CONST	SEGMENT
??_C@_0CI@NLFHFOLH@get_comms_model?$CI?$CJ?5?$DN?$DN?5COMMS_MODE@ DB 'get'
	DB	'_comms_model() == COMMS_MODEL_SERVER', 00H	; `string'
CONST	ENDS
;	COMDAT ?__LINE__Var@?0??create_client_server_entity_fixed_wing@@YGPAUENTITY@@HHPAU2@PAUVEC3D@@@Z@4JA
_DATA	SEGMENT
?__LINE__Var@?0??create_client_server_entity_fixed_wing@@YGPAUENTITY@@HHPAU2@PAUVEC3D@@@Z@4JA DD 0198H ; `create_client_server_entity_fixed_wing'::`1'::__LINE__Var
_DATA	ENDS
;	COMDAT ?__LINE__Var@?0??create_client@@YGPAUENTITY@@W4ENTITY_TYPES@@HPAD@Z@4JA
_DATA	SEGMENT
?__LINE__Var@?0??create_client@@YGPAUENTITY@@W4ENTITY_TYPES@@HPAD@Z@4JA DD 0172H ; `create_client'::`1'::__LINE__Var
_DATA	ENDS
;	COMDAT ??_C@_0CC@BNNNEGEG@assert_client_server_remote_fn?5@
CONST	SEGMENT
??_C@_0CC@BNNNEGEG@assert_client_server_remote_fn?5@ DB 'assert_client_se'
	DB	'rver_remote_fn ()', 00H			; `string'
CONST	ENDS
;	COMDAT ??_C@_0CB@CFOCLFOK@assert_client_server_local_fn?5?$CI@
CONST	SEGMENT
??_C@_0CB@CFOCLFOK@assert_client_server_local_fn?5?$CI@ DB 'assert_client'
	DB	'_server_local_fn ()', 00H			; `string'
CONST	ENDS
;	COMDAT ?__LINE__Var@?0??create_server@@YGPAUENTITY@@W4ENTITY_TYPES@@HPAD@Z@4JA
_DATA	SEGMENT
?__LINE__Var@?0??create_server@@YGPAUENTITY@@W4ENTITY_TYPES@@HPAD@Z@4JA DD 015bH ; `create_server'::`1'::__LINE__Var
_DATA	ENDS
;	COMDAT ??_C@_0CM@DHBIKIGD@assert_remote_create_entity_ind@
CONST	SEGMENT
??_C@_0CM@DHBIKIGD@assert_remote_create_entity_ind@ DB 'assert_remote_cre'
	DB	'ate_entity_index ((index))', 00H		; `string'
CONST	ENDS
;	COMDAT ?__LINE__Var@?0??create_remote@@YGPAUENTITY@@W4ENTITY_TYPES@@HPAD@Z@4JA
_DATA	SEGMENT
?__LINE__Var@?0??create_remote@@YGPAUENTITY@@W4ENTITY_TYPES@@HPAD@Z@4JA DD 0148H ; `create_remote'::`1'::__LINE__Var
_DATA	ENDS
;	COMDAT ??_C@_0DG@OOAIMCDD@weapon_config_type_valid?5?$CIraw?9?$DO@
CONST	SEGMENT
??_C@_0DG@OOAIMCDD@weapon_config_type_valid?5?$CIraw?9?$DO@ DB 'weapon_co'
	DB	'nfig_type_valid (raw->ac.weapon_config_type)', 00H ; `string'
CONST	ENDS
;	COMDAT ??_C@_0DG@KEJHCNJ@entity_sub_type_aircraft_valid?5@
CONST	SEGMENT
??_C@_0DG@KEJHCNJ@entity_sub_type_aircraft_valid?5@ DB 'entity_sub_type_a'
	DB	'ircraft_valid (raw->ac.mob.sub_type)', 00H	; `string'
CONST	ENDS
;	COMDAT ??_C@_0CI@CGPGOOPC@raw?9?$DOac?4mob?4side?5?$CB?$DN?5ENTITY_SIDE@
CONST	SEGMENT
??_C@_0CI@CGPGOOPC@raw?9?$DOac?4mob?4side?5?$CB?$DN?5ENTITY_SIDE@ DB 'raw'
	DB	'->ac.mob.side != ENTITY_SIDE_NEUTRAL', 00H	; `string'
CONST	ENDS
;	COMDAT ??_C@_0EI@LMPOBACG@get_local_entity_type?5?$CIraw?9?$DOac?4@
CONST	SEGMENT
??_C@_0EI@LMPOBACG@get_local_entity_type?5?$CIraw?9?$DOac?4@ DB 'get_loca'
	DB	'l_entity_type (raw->ac.member_link.parent) == ENTITY_TYPE_GRO'
	DB	'UP', 00H					; `string'
CONST	ENDS
;	COMDAT ??_C@_0BL@KLFILFGE@raw?9?$DOac?4member_link?4parent@
CONST	SEGMENT
??_C@_0BL@KLFILFGE@raw?9?$DOac?4member_link?4parent@ DB 'raw->ac.member_l'
	DB	'ink.parent', 00H				; `string'
CONST	ENDS
;	COMDAT ??_C@_0CL@OOPHFNJI@assert_local_create_entity_inde@
CONST	SEGMENT
??_C@_0CL@OOPHFNJI@assert_local_create_entity_inde@ DB 'assert_local_crea'
	DB	'te_entity_index ((index))', 00H		; `string'
CONST	ENDS
;	COMDAT ??_C@_0FG@MDINGGKI@c?3?2users?2nhv90?2projects?2eech?2ap@
CONST	SEGMENT
??_C@_0FG@MDINGGKI@c?3?2users?2nhv90?2projects?2eech?2ap@ DB 'c:\users\nh'
	DB	'v90\projects\eech\aphavoc\source\entity\mobile\aircraft\fixwi'
	DB	'ng\fw_creat.c', 00H				; `string'
CONST	ENDS
;	COMDAT ?__LINE__Var@?0??create_local@@YGPAUENTITY@@W4ENTITY_TYPES@@HPAD@Z@4JA
_DATA	SEGMENT
?__LINE__Var@?0??create_local@@YGPAUENTITY@@W4ENTITY_TYPES@@HPAD@Z@4JA DD 052H ; `create_local'::`1'::__LINE__Var
_DATA	ENDS
; Function compile flags: /Odtp /ZI
; File c:\users\nhv90\projects\eech\aphavoc\source\entity\mobile\aircraft\fixwing\fw_creat.c
;	COMDAT ?create_client@@YGPAUENTITY@@W4ENTITY_TYPES@@HPAD@Z
_TEXT	SEGMENT
_en$ = -4						; size = 4
_type$ = 8						; size = 4
_index$ = 12						; size = 4
_pargs$ = 16						; size = 4
?create_client@@YGPAUENTITY@@W4ENTITY_TYPES@@HPAD@Z PROC ; create_client, COMDAT

; 370  : {

  00000	55		 push	 ebp
  00001	8b ec		 mov	 ebp, esp
  00003	83 ec 44	 sub	 esp, 68			; 00000044H
  00006	53		 push	 ebx
  00007	56		 push	 esi
  00008	57		 push	 edi

; 371  : 	entity
; 372  : 		*en;
; 373  : 
; 374  : 	if (get_comms_data_flow () == COMMS_DATA_FLOW_TX)

  00009	83 3d 00 00 00
	00 00		 cmp	 DWORD PTR ?system_comms_data_flow@@3W4COMMS_DATA_FLOW_TYPES@@A, 0 ; system_comms_data_flow
  00010	75 37		 jne	 SHORT $LN2@create_cli

; 375  : 	{
; 376  : 		validate_client_server_remote_fn ();

  00012	e8 00 00 00 00	 call	 ?assert_client_server_remote_fn@@YGHXZ ; assert_client_server_remote_fn
  00017	85 c0		 test	 eax, eax
  00019	75 18		 jne	 SHORT $LN4@create_cli
  0001b	a1 00 00 00 00	 mov	 eax, DWORD PTR ?__LINE__Var@?0??create_client@@YGPAUENTITY@@W4ENTITY_TYPES@@HPAD@Z@4JA
  00020	83 c0 06	 add	 eax, 6
  00023	50		 push	 eax
  00024	68 00 00 00 00	 push	 OFFSET ??_C@_0FG@MDINGGKI@c?3?2users?2nhv90?2projects?2eech?2ap@
  00029	68 00 00 00 00	 push	 OFFSET ??_C@_0CC@BNNNEGEG@assert_client_server_remote_fn?5@
  0002e	e8 00 00 00 00	 call	 ?process_assert@@YGXPBD0H@Z ; process_assert
$LN4@create_cli:

; 377  : 
; 378  : 		en = create_remote (type, index, pargs);

  00033	8b 45 10	 mov	 eax, DWORD PTR _pargs$[ebp]
  00036	50		 push	 eax
  00037	8b 4d 0c	 mov	 ecx, DWORD PTR _index$[ebp]
  0003a	51		 push	 ecx
  0003b	8b 55 08	 mov	 edx, DWORD PTR _type$[ebp]
  0003e	52		 push	 edx
  0003f	e8 00 00 00 00	 call	 ?create_remote@@YGPAUENTITY@@W4ENTITY_TYPES@@HPAD@Z ; create_remote
  00044	89 45 fc	 mov	 DWORD PTR _en$[ebp], eax

; 379  : 	}
; 380  : 	else

  00047	eb 35		 jmp	 SHORT $LN3@create_cli
$LN2@create_cli:

; 381  : 	{
; 382  : 		validate_client_server_local_fn ();

  00049	e8 00 00 00 00	 call	 ?assert_client_server_local_fn@@YGHXZ ; assert_client_server_local_fn
  0004e	85 c0		 test	 eax, eax
  00050	75 18		 jne	 SHORT $LN5@create_cli
  00052	a1 00 00 00 00	 mov	 eax, DWORD PTR ?__LINE__Var@?0??create_client@@YGPAUENTITY@@W4ENTITY_TYPES@@HPAD@Z@4JA
  00057	83 c0 0c	 add	 eax, 12			; 0000000cH
  0005a	50		 push	 eax
  0005b	68 00 00 00 00	 push	 OFFSET ??_C@_0FG@MDINGGKI@c?3?2users?2nhv90?2projects?2eech?2ap@
  00060	68 00 00 00 00	 push	 OFFSET ??_C@_0CB@CFOCLFOK@assert_client_server_local_fn?5?$CI@
  00065	e8 00 00 00 00	 call	 ?process_assert@@YGXPBD0H@Z ; process_assert
$LN5@create_cli:

; 383  : 
; 384  : 		en = create_local (type, index, pargs);

  0006a	8b 45 10	 mov	 eax, DWORD PTR _pargs$[ebp]
  0006d	50		 push	 eax
  0006e	8b 4d 0c	 mov	 ecx, DWORD PTR _index$[ebp]
  00071	51		 push	 ecx
  00072	8b 55 08	 mov	 edx, DWORD PTR _type$[ebp]
  00075	52		 push	 edx
  00076	e8 00 00 00 00	 call	 ?create_local@@YGPAUENTITY@@W4ENTITY_TYPES@@HPAD@Z ; create_local
  0007b	89 45 fc	 mov	 DWORD PTR _en$[ebp], eax
$LN3@create_cli:

; 385  : 	}
; 386  : 
; 387  : 	return (en);

  0007e	8b 45 fc	 mov	 eax, DWORD PTR _en$[ebp]

; 388  : }

  00081	5f		 pop	 edi
  00082	5e		 pop	 esi
  00083	5b		 pop	 ebx
  00084	8b e5		 mov	 esp, ebp
  00086	5d		 pop	 ebp
  00087	c2 0c 00	 ret	 12			; 0000000cH
?create_client@@YGPAUENTITY@@W4ENTITY_TYPES@@HPAD@Z ENDP ; create_client
_TEXT	ENDS
; Function compile flags: /Odtp /ZI
; File c:\users\nhv90\projects\eech\aphavoc\source\entity\mobile\aircraft\fixwing\fw_creat.c
;	COMDAT ?create_server@@YGPAUENTITY@@W4ENTITY_TYPES@@HPAD@Z
_TEXT	SEGMENT
_en$ = -4						; size = 4
_type$ = 8						; size = 4
_index$ = 12						; size = 4
_pargs$ = 16						; size = 4
?create_server@@YGPAUENTITY@@W4ENTITY_TYPES@@HPAD@Z PROC ; create_server, COMDAT

; 347  : {

  00000	55		 push	 ebp
  00001	8b ec		 mov	 ebp, esp
  00003	83 ec 44	 sub	 esp, 68			; 00000044H
  00006	53		 push	 ebx
  00007	56		 push	 esi
  00008	57		 push	 edi

; 348  : 	entity
; 349  : 		*en;
; 350  : 
; 351  : 	validate_client_server_local_fn ();

  00009	e8 00 00 00 00	 call	 ?assert_client_server_local_fn@@YGHXZ ; assert_client_server_local_fn
  0000e	85 c0		 test	 eax, eax
  00010	75 18		 jne	 SHORT $LN2@create_ser
  00012	a1 00 00 00 00	 mov	 eax, DWORD PTR ?__LINE__Var@?0??create_server@@YGPAUENTITY@@W4ENTITY_TYPES@@HPAD@Z@4JA
  00017	83 c0 04	 add	 eax, 4
  0001a	50		 push	 eax
  0001b	68 00 00 00 00	 push	 OFFSET ??_C@_0FG@MDINGGKI@c?3?2users?2nhv90?2projects?2eech?2ap@
  00020	68 00 00 00 00	 push	 OFFSET ??_C@_0CB@CFOCLFOK@assert_client_server_local_fn?5?$CI@
  00025	e8 00 00 00 00	 call	 ?process_assert@@YGXPBD0H@Z ; process_assert
$LN2@create_ser:

; 352  : 
; 353  : 	en = create_local (type, index, pargs);

  0002a	8b 45 10	 mov	 eax, DWORD PTR _pargs$[ebp]
  0002d	50		 push	 eax
  0002e	8b 4d 0c	 mov	 ecx, DWORD PTR _index$[ebp]
  00031	51		 push	 ecx
  00032	8b 55 08	 mov	 edx, DWORD PTR _type$[ebp]
  00035	52		 push	 edx
  00036	e8 00 00 00 00	 call	 ?create_local@@YGPAUENTITY@@W4ENTITY_TYPES@@HPAD@Z ; create_local
  0003b	89 45 fc	 mov	 DWORD PTR _en$[ebp], eax

; 354  : 
; 355  : 	if (en)

  0003e	83 7d fc 00	 cmp	 DWORD PTR _en$[ebp], 0
  00042	74 3b		 je	 SHORT $LN3@create_ser

; 356  : 	{
; 357  : 		validate_client_server_remote_fn ();

  00044	e8 00 00 00 00	 call	 ?assert_client_server_remote_fn@@YGHXZ ; assert_client_server_remote_fn
  00049	85 c0		 test	 eax, eax
  0004b	75 18		 jne	 SHORT $LN4@create_ser
  0004d	a1 00 00 00 00	 mov	 eax, DWORD PTR ?__LINE__Var@?0??create_server@@YGPAUENTITY@@W4ENTITY_TYPES@@HPAD@Z@4JA
  00052	83 c0 0a	 add	 eax, 10			; 0000000aH
  00055	50		 push	 eax
  00056	68 00 00 00 00	 push	 OFFSET ??_C@_0FG@MDINGGKI@c?3?2users?2nhv90?2projects?2eech?2ap@
  0005b	68 00 00 00 00	 push	 OFFSET ??_C@_0CC@BNNNEGEG@assert_client_server_remote_fn?5@
  00060	e8 00 00 00 00	 call	 ?process_assert@@YGXPBD0H@Z ; process_assert
$LN4@create_ser:

; 358  : 
; 359  : 		create_remote (type, get_local_entity_index (en), pargs);

  00065	8b 45 10	 mov	 eax, DWORD PTR _pargs$[ebp]
  00068	50		 push	 eax
  00069	8b 4d fc	 mov	 ecx, DWORD PTR _en$[ebp]
  0006c	2b 0d 00 00 00
	00		 sub	 ecx, DWORD PTR ?entities@@3PAUENTITY@@A ; entities
  00072	c1 f9 04	 sar	 ecx, 4
  00075	51		 push	 ecx
  00076	8b 55 08	 mov	 edx, DWORD PTR _type$[ebp]
  00079	52		 push	 edx
  0007a	e8 00 00 00 00	 call	 ?create_remote@@YGPAUENTITY@@W4ENTITY_TYPES@@HPAD@Z ; create_remote
$LN3@create_ser:

; 360  : 	}
; 361  : 
; 362  : 	return (en);

  0007f	8b 45 fc	 mov	 eax, DWORD PTR _en$[ebp]

; 363  : }

  00082	5f		 pop	 edi
  00083	5e		 pop	 esi
  00084	5b		 pop	 ebx
  00085	8b e5		 mov	 esp, ebp
  00087	5d		 pop	 ebp
  00088	c2 0c 00	 ret	 12			; 0000000cH
?create_server@@YGPAUENTITY@@W4ENTITY_TYPES@@HPAD@Z ENDP ; create_server
_TEXT	ENDS
; Function compile flags: /Odtp /ZI
; File c:\users\nhv90\projects\eech\aphavoc\source\entity\mobile\aircraft\fixwing\fw_creat.c
;	COMDAT ?create_remote@@YGPAUENTITY@@W4ENTITY_TYPES@@HPAD@Z
_TEXT	SEGMENT
_type$ = 8						; size = 4
_index$ = 12						; size = 4
_pargs$ = 16						; size = 4
?create_remote@@YGPAUENTITY@@W4ENTITY_TYPES@@HPAD@Z PROC ; create_remote, COMDAT

; 328  : {

  00000	55		 push	 ebp
  00001	8b ec		 mov	 ebp, esp
  00003	83 ec 40	 sub	 esp, 64			; 00000040H
  00006	53		 push	 ebx
  00007	56		 push	 esi
  00008	57		 push	 edi

; 329  : 	validate_remote_create_entity_index (index);

  00009	8b 45 0c	 mov	 eax, DWORD PTR _index$[ebp]
  0000c	50		 push	 eax
  0000d	e8 00 00 00 00	 call	 ?assert_remote_create_entity_index@@YGHH@Z ; assert_remote_create_entity_index
  00012	85 c0		 test	 eax, eax
  00014	75 18		 jne	 SHORT $LN2@create_rem
  00016	a1 00 00 00 00	 mov	 eax, DWORD PTR ?__LINE__Var@?0??create_remote@@YGPAUENTITY@@W4ENTITY_TYPES@@HPAD@Z@4JA
  0001b	83 c0 01	 add	 eax, 1
  0001e	50		 push	 eax
  0001f	68 00 00 00 00	 push	 OFFSET ??_C@_0FG@MDINGGKI@c?3?2users?2nhv90?2projects?2eech?2ap@
  00024	68 00 00 00 00	 push	 OFFSET ??_C@_0CM@DHBIKIGD@assert_remote_create_entity_ind@
  00029	e8 00 00 00 00	 call	 ?process_assert@@YGXPBD0H@Z ; process_assert
$LN2@create_rem:

; 330  : 
; 331  : 	#if DEBUG_MODULE
; 332  : 
; 333  : 	debug_log_entity_args (ENTITY_DEBUG_REMOTE, ENTITY_DEBUG_CREATE, NULL, type, index);
; 334  : 
; 335  : 	#endif
; 336  : 
; 337  : 	transmit_entity_comms_message (ENTITY_COMMS_CREATE, NULL, type, index, pargs);

  0002e	8b 45 10	 mov	 eax, DWORD PTR _pargs$[ebp]
  00031	50		 push	 eax
  00032	8b 4d 0c	 mov	 ecx, DWORD PTR _index$[ebp]
  00035	51		 push	 ecx
  00036	8b 55 08	 mov	 edx, DWORD PTR _type$[ebp]
  00039	52		 push	 edx
  0003a	6a 00		 push	 0
  0003c	6a 08		 push	 8
  0003e	e8 00 00 00 00	 call	 ?transmit_entity_comms_message@@YAXW4ENTITY_COMMS_MESSAGES@@PAUENTITY@@ZZ ; transmit_entity_comms_message
  00043	83 c4 14	 add	 esp, 20			; 00000014H

; 338  : 
; 339  : 	return (NULL);

  00046	33 c0		 xor	 eax, eax

; 340  : }

  00048	5f		 pop	 edi
  00049	5e		 pop	 esi
  0004a	5b		 pop	 ebx
  0004b	8b e5		 mov	 esp, ebp
  0004d	5d		 pop	 ebp
  0004e	c2 0c 00	 ret	 12			; 0000000cH
?create_remote@@YGPAUENTITY@@W4ENTITY_TYPES@@HPAD@Z ENDP ; create_remote
_TEXT	ENDS
; Function compile flags: /Odtp /ZI
; File c:\users\nhv90\projects\eech\aphavoc\source\entity\mobile\aircraft\fixwing\fw_creat.c
;	COMDAT ?create_local@@YGPAUENTITY@@W4ENTITY_TYPES@@HPAD@Z
_TEXT	SEGMENT
tv247 = -88						; size = 4
tv289 = -84						; size = 4
tv238 = -84						; size = 4
tv281 = -80						; size = 4
tv230 = -80						; size = 4
tv203 = -80						; size = 4
_group_sub_type$ = -12					; size = 4
_raw$ = -8						; size = 4
_en$ = -4						; size = 4
_type$ = 8						; size = 4
_index$ = 12						; size = 4
_pargs$ = 16						; size = 4
?create_local@@YGPAUENTITY@@W4ENTITY_TYPES@@HPAD@Z PROC	; create_local, COMDAT

; 82   : {

  00000	55		 push	 ebp
  00001	8b ec		 mov	 ebp, esp
  00003	83 ec 58	 sub	 esp, 88			; 00000058H
  00006	53		 push	 ebx
  00007	56		 push	 esi
  00008	57		 push	 edi

; 83   : 	entity
; 84   : 		*en;
; 85   : 
; 86   : 	fixed_wing
; 87   : 		*raw;
; 88   : 
; 89   : 	entity_sub_types
; 90   : 		group_sub_type;
; 91   : 
; 92   : 	////////////////////////////////////////
; 93   :   	//
; 94   :   	// VALIDATE
; 95   :   	//
; 96   : 	////////////////////////////////////////
; 97   : 
; 98   : 	validate_local_create_entity_index (index);

  00009	8b 45 0c	 mov	 eax, DWORD PTR _index$[ebp]
  0000c	50		 push	 eax
  0000d	e8 00 00 00 00	 call	 ?assert_local_create_entity_index@@YGHH@Z ; assert_local_create_entity_index
  00012	85 c0		 test	 eax, eax
  00014	75 18		 jne	 SHORT $LN2@create_loc
  00016	a1 00 00 00 00	 mov	 eax, DWORD PTR ?__LINE__Var@?0??create_local@@YGPAUENTITY@@W4ENTITY_TYPES@@HPAD@Z@4JA
  0001b	83 c0 10	 add	 eax, 16			; 00000010H
  0001e	50		 push	 eax
  0001f	68 00 00 00 00	 push	 OFFSET ??_C@_0FG@MDINGGKI@c?3?2users?2nhv90?2projects?2eech?2ap@
  00024	68 00 00 00 00	 push	 OFFSET ??_C@_0CL@OOPHFNJI@assert_local_create_entity_inde@
  00029	e8 00 00 00 00	 call	 ?process_assert@@YGXPBD0H@Z ; process_assert
$LN2@create_loc:

; 99   : 
; 100  : 	#if DEBUG_MODULE
; 101  : 
; 102  : 	debug_log_entity_args (ENTITY_DEBUG_LOCAL, ENTITY_DEBUG_CREATE, NULL, type, index);
; 103  : 
; 104  : 	#endif
; 105  : 
; 106  : 	en = get_free_entity (index);

  0002e	8b 45 0c	 mov	 eax, DWORD PTR _index$[ebp]
  00031	50		 push	 eax
  00032	e8 00 00 00 00	 call	 ?get_free_entity@@YGPAUENTITY@@H@Z ; get_free_entity
  00037	89 45 fc	 mov	 DWORD PTR _en$[ebp], eax

; 107  : 
; 108  : 	if (en)

  0003a	83 7d fc 00	 cmp	 DWORD PTR _en$[ebp], 0
  0003e	0f 84 6b 05 00
	00		 je	 $LN17@create_loc

; 109  : 	{
; 110  : 		////////////////////////////////////////
; 111  :    	//
; 112  :    	// MALLOC ENTITY DATA
; 113  :    	//
; 114  : 		////////////////////////////////////////
; 115  : 
; 116  : 		set_local_entity_type (en, type);

  00044	8b 45 fc	 mov	 eax, DWORD PTR _en$[ebp]
  00047	8b 4d 08	 mov	 ecx, DWORD PTR _type$[ebp]
  0004a	89 08		 mov	 DWORD PTR [eax], ecx

; 117  : 
; 118  : 		raw = (fixed_wing *) malloc_fast_mem (sizeof (fixed_wing));

  0004c	68 90 01 00 00	 push	 400			; 00000190H
  00051	e8 00 00 00 00	 call	 ?malloc_fast_memory@@YGPAXI@Z ; malloc_fast_memory
  00056	89 45 f8	 mov	 DWORD PTR _raw$[ebp], eax

; 119  : 
; 120  : 		set_local_entity_data (en, raw);

  00059	8b 45 fc	 mov	 eax, DWORD PTR _en$[ebp]
  0005c	8b 4d f8	 mov	 ecx, DWORD PTR _raw$[ebp]
  0005f	89 48 04	 mov	 DWORD PTR [eax+4], ecx

; 121  : 
; 122  : 		////////////////////////////////////////
; 123  :    	//
; 124  :    	// INITIALISE ALL ENTITY DATA TO 'WORKING' DEFAULT VALUES
; 125  : 		//
; 126  : 		// DO NOT USE ACCESS FUNCTIONS
; 127  : 		//
; 128  : 		// DO NOT USE RANDOM VALUES
; 129  : 		//
; 130  : 		////////////////////////////////////////
; 131  : 
; 132  : 		memset (raw, 0, sizeof (fixed_wing));

  00062	68 90 01 00 00	 push	 400			; 00000190H
  00067	6a 00		 push	 0
  00069	8b 45 f8	 mov	 eax, DWORD PTR _raw$[ebp]
  0006c	50		 push	 eax
  0006d	e8 00 00 00 00	 call	 _memset
  00072	83 c4 0c	 add	 esp, 12			; 0000000cH

; 133  : 
; 134  : 		//
; 135  : 		// mobile
; 136  : 		//
; 137  : 
; 138  : 		raw->ac.mob.sub_type = ENTITY_SUB_TYPE_UNINITIALISED;

  00075	8b 45 f8	 mov	 eax, DWORD PTR _raw$[ebp]
  00078	c7 00 ff ff ff
	ff		 mov	 DWORD PTR [eax], -1

; 139  : 
; 140  : 		raw->ac.mob.position.x = MID_MAP_X;

  0007e	8b 45 f8	 mov	 eax, DWORD PTR _raw$[ebp]
  00081	f3 0f 10 05 30
	00 00 00	 movss	 xmm0, DWORD PTR ?world_map@@3UWORLD_MAP_DATA@@A+48
  00089	f3 0f 11 40 04	 movss	 DWORD PTR [eax+4], xmm0

; 141  : 		raw->ac.mob.position.y = MID_MAP_Y;

  0008e	8b 45 f8	 mov	 eax, DWORD PTR _raw$[ebp]
  00091	f3 0f 10 05 34
	00 00 00	 movss	 xmm0, DWORD PTR ?world_map@@3UWORLD_MAP_DATA@@A+52
  00099	f3 0f 11 40 08	 movss	 DWORD PTR [eax+8], xmm0

; 142  : 		raw->ac.mob.position.z = MID_MAP_Z;

  0009e	8b 45 f8	 mov	 eax, DWORD PTR _raw$[ebp]
  000a1	f3 0f 10 05 38
	00 00 00	 movss	 xmm0, DWORD PTR ?world_map@@3UWORLD_MAP_DATA@@A+56
  000a9	f3 0f 11 40 0c	 movss	 DWORD PTR [eax+12], xmm0

; 143  : 
; 144  : 		get_identity_matrix3x3 (raw->ac.mob.attitude);

  000ae	8b 45 f8	 mov	 eax, DWORD PTR _raw$[ebp]
  000b1	83 c0 10	 add	 eax, 16			; 00000010H
  000b4	50		 push	 eax
  000b5	e8 00 00 00 00	 call	 ?get_identity_matrix3x3@@YGXQAY02M@Z ; get_identity_matrix3x3

; 145  : 
; 146  : 		raw->ac.mob.alive = TRUE;

  000ba	8b 45 f8	 mov	 eax, DWORD PTR _raw$[ebp]
  000bd	8b 48 7c	 mov	 ecx, DWORD PTR [eax+124]
  000c0	83 c9 01	 or	 ecx, 1
  000c3	8b 55 f8	 mov	 edx, DWORD PTR _raw$[ebp]
  000c6	89 4a 7c	 mov	 DWORD PTR [edx+124], ecx

; 147  : 
; 148  : 		raw->ac.mob.side = ENTITY_SIDE_UNINITIALISED;

  000c9	8b 45 f8	 mov	 eax, DWORD PTR _raw$[ebp]
  000cc	8b 48 7c	 mov	 ecx, DWORD PTR [eax+124]
  000cf	83 c9 06	 or	 ecx, 6
  000d2	8b 55 f8	 mov	 edx, DWORD PTR _raw$[ebp]
  000d5	89 4a 7c	 mov	 DWORD PTR [edx+124], ecx

; 149  : 
; 150  : 		raw->ac.operational_state = OPERATIONAL_STATE_UNKNOWN;

  000d8	8b 45 f8	 mov	 eax, DWORD PTR _raw$[ebp]
  000db	8b 88 2c 01 00
	00		 mov	 ecx, DWORD PTR [eax+300]
  000e1	81 e1 1f fc ff
	ff		 and	 ecx, -993		; fffffc1fH
  000e7	8b 55 f8	 mov	 edx, DWORD PTR _raw$[ebp]
  000ea	89 8a 2c 01 00
	00		 mov	 DWORD PTR [edx+300], ecx

; 151  : 
; 152  : 		//
; 153  : 		// aircraft
; 154  : 		//
; 155  : 
; 156  : 		raw->ac.object_3d_shape = OBJECT_3D_INVALID_OBJECT_INDEX;

  000f0	8b 45 f8	 mov	 eax, DWORD PTR _raw$[ebp]
  000f3	c7 80 80 00 00
	00 00 00 00 00	 mov	 DWORD PTR [eax+128], 0

; 157  : 
; 158  : 		raw->ac.weapon_config_type = WEAPON_CONFIG_TYPE_UNINITIALISED;

  000fd	8b 45 f8	 mov	 eax, DWORD PTR _raw$[ebp]
  00100	c7 80 1c 01 00
	00 ff ff ff ff	 mov	 DWORD PTR [eax+284], -1

; 159  : 
; 160  : 		raw->ac.selected_weapon = ENTITY_SUB_TYPE_WEAPON_NO_WEAPON;

  0010a	8b 45 f8	 mov	 eax, DWORD PTR _raw$[ebp]
  0010d	c7 80 24 01 00
	00 00 00 00 00	 mov	 DWORD PTR [eax+292], 0

; 161  : 
; 162  : 		raw->ac.weapon_vector.x = 0.0;

  00117	8b 45 f8	 mov	 eax, DWORD PTR _raw$[ebp]
  0011a	0f 57 c0	 xorps	 xmm0, xmm0
  0011d	f3 0f 11 80 3c
	01 00 00	 movss	 DWORD PTR [eax+316], xmm0

; 163  : 		raw->ac.weapon_vector.y = 0.0;

  00125	8b 45 f8	 mov	 eax, DWORD PTR _raw$[ebp]
  00128	0f 57 c0	 xorps	 xmm0, xmm0
  0012b	f3 0f 11 80 40
	01 00 00	 movss	 DWORD PTR [eax+320], xmm0

; 164  : 		raw->ac.weapon_vector.z = 1.0;

  00133	8b 45 f8	 mov	 eax, DWORD PTR _raw$[ebp]
  00136	f3 0f 10 05 00
	00 00 00	 movss	 xmm0, DWORD PTR __real@3f800000
  0013e	f3 0f 11 80 44
	01 00 00	 movss	 DWORD PTR [eax+324], xmm0

; 165  : 
; 166  : 		raw->ac.weapon_to_target_vector.x = 0.0;

  00146	8b 45 f8	 mov	 eax, DWORD PTR _raw$[ebp]
  00149	0f 57 c0	 xorps	 xmm0, xmm0
  0014c	f3 0f 11 80 48
	01 00 00	 movss	 DWORD PTR [eax+328], xmm0

; 167  : 		raw->ac.weapon_to_target_vector.y = 0.0;

  00154	8b 45 f8	 mov	 eax, DWORD PTR _raw$[ebp]
  00157	0f 57 c0	 xorps	 xmm0, xmm0
  0015a	f3 0f 11 80 4c
	01 00 00	 movss	 DWORD PTR [eax+332], xmm0

; 168  : 		raw->ac.weapon_to_target_vector.z = -1.0;

  00162	8b 45 f8	 mov	 eax, DWORD PTR _raw$[ebp]
  00165	f3 0f 10 05 00
	00 00 00	 movss	 xmm0, DWORD PTR __real@bf800000
  0016d	f3 0f 11 80 50
	01 00 00	 movss	 DWORD PTR [eax+336], xmm0

; 169  : 
; 170  : 		raw->ac.loading_door_state = AIRCRAFT_LOADING_DOORS_OPEN_FLOAT_VALUE;

  00175	8b 45 f8	 mov	 eax, DWORD PTR _raw$[ebp]
  00178	f3 0f 10 05 00
	00 00 00	 movss	 xmm0, DWORD PTR __real@40000000
  00180	f3 0f 11 80 f4
	00 00 00	 movss	 DWORD PTR [eax+244], xmm0

; 171  : 		raw->ac.undercarriage_state = AIRCRAFT_UNDERCARRIAGE_DOWN_FLOAT_VALUE;

  00188	8b 45 f8	 mov	 eax, DWORD PTR _raw$[ebp]
  0018b	f3 0f 10 05 00
	00 00 00	 movss	 xmm0, DWORD PTR __real@40000000
  00193	f3 0f 11 80 fc
	00 00 00	 movss	 DWORD PTR [eax+252], xmm0

; 172  : 
; 173  : 		raw->ac.air_radar_contact_timeout = AIR_RADAR_CONTACT_TIMEOUT_INVALID;

  0019b	8b 45 f8	 mov	 eax, DWORD PTR _raw$[ebp]
  0019e	f3 0f 10 05 00
	00 00 00	 movss	 xmm0, DWORD PTR __real@49742400
  001a6	f3 0f 11 80 14
	01 00 00	 movss	 DWORD PTR [eax+276], xmm0

; 174  : 
; 175  : 		//
; 176  : 		// fixed_wing
; 177  : 		//
; 178  : 
; 179  : 		////////////////////////////////////////
; 180  : 		//
; 181  : 		// OVERWRITE DEFAULT VALUES WITH GIVEN ATTRIBUTES
; 182  : 		//
; 183  : 		////////////////////////////////////////
; 184  : 
; 185  : 		set_local_entity_attributes (en, pargs);

  001ae	8b 45 10	 mov	 eax, DWORD PTR _pargs$[ebp]
  001b1	50		 push	 eax
  001b2	8b 4d fc	 mov	 ecx, DWORD PTR _en$[ebp]
  001b5	51		 push	 ecx
  001b6	e8 00 00 00 00	 call	 ?set_local_entity_attributes@@YGXPAUENTITY@@PAD@Z ; set_local_entity_attributes

; 186  : 
; 187  : 		////////////////////////////////////////
; 188  : 		//
; 189  : 		// CHECK MANDATORY ATTRIBUTES HAVE BEEN GIVEN
; 190  : 		//
; 191  : 		////////////////////////////////////////
; 192  : 
; 193  : 		ASSERT (raw->ac.member_link.parent);

  001bb	8b 45 f8	 mov	 eax, DWORD PTR _raw$[ebp]
  001be	83 b8 bc 00 00
	00 00		 cmp	 DWORD PTR [eax+188], 0
  001c5	75 18		 jne	 SHORT $LN4@create_loc
  001c7	a1 00 00 00 00	 mov	 eax, DWORD PTR ?__LINE__Var@?0??create_local@@YGPAUENTITY@@W4ENTITY_TYPES@@HPAD@Z@4JA
  001cc	83 c0 6f	 add	 eax, 111		; 0000006fH
  001cf	50		 push	 eax
  001d0	68 00 00 00 00	 push	 OFFSET ??_C@_0FG@MDINGGKI@c?3?2users?2nhv90?2projects?2eech?2ap@
  001d5	68 00 00 00 00	 push	 OFFSET ??_C@_0BL@KLFILFGE@raw?9?$DOac?4member_link?4parent@
  001da	e8 00 00 00 00	 call	 ?process_assert@@YGXPBD0H@Z ; process_assert
$LN4@create_loc:

; 194  : 
; 195  : 		ASSERT (get_local_entity_type (raw->ac.member_link.parent) == ENTITY_TYPE_GROUP);

  001df	8b 45 f8	 mov	 eax, DWORD PTR _raw$[ebp]
  001e2	83 b8 bc 00 00
	00 00		 cmp	 DWORD PTR [eax+188], 0
  001e9	74 10		 je	 SHORT $LN19@create_loc
  001eb	8b 4d f8	 mov	 ecx, DWORD PTR _raw$[ebp]
  001ee	8b 91 bc 00 00
	00		 mov	 edx, DWORD PTR [ecx+188]
  001f4	8b 02		 mov	 eax, DWORD PTR [edx]
  001f6	89 45 b0	 mov	 DWORD PTR tv203[ebp], eax
  001f9	eb 22		 jmp	 SHORT $LN20@create_loc
$LN19@create_loc:
  001fb	8b 0d 00 00 00
	00		 mov	 ecx, DWORD PTR ?__LINE__Var@?0??create_local@@YGPAUENTITY@@W4ENTITY_TYPES@@HPAD@Z@4JA
  00201	83 c1 71	 add	 ecx, 113		; 00000071H
  00204	51		 push	 ecx
  00205	68 00 00 00 00	 push	 OFFSET ??_C@_0FG@MDINGGKI@c?3?2users?2nhv90?2projects?2eech?2ap@
  0020a	8b 15 00 00 00
	00		 mov	 edx, DWORD PTR ?null_entity_pointer_message@@3PBDB ; null_entity_pointer_message
  00210	52		 push	 edx
  00211	e8 00 00 00 00	 call	 ?process_assert@@YGXPBD0H@Z ; process_assert
  00216	c7 45 b0 00 00
	00 00		 mov	 DWORD PTR tv203[ebp], 0
$LN20@create_loc:
  0021d	83 7d b0 0c	 cmp	 DWORD PTR tv203[ebp], 12 ; 0000000cH
  00221	74 18		 je	 SHORT $LN5@create_loc
  00223	a1 00 00 00 00	 mov	 eax, DWORD PTR ?__LINE__Var@?0??create_local@@YGPAUENTITY@@W4ENTITY_TYPES@@HPAD@Z@4JA
  00228	83 c0 71	 add	 eax, 113		; 00000071H
  0022b	50		 push	 eax
  0022c	68 00 00 00 00	 push	 OFFSET ??_C@_0FG@MDINGGKI@c?3?2users?2nhv90?2projects?2eech?2ap@
  00231	68 00 00 00 00	 push	 OFFSET ??_C@_0EI@LMPOBACG@get_local_entity_type?5?$CIraw?9?$DOac?4@
  00236	e8 00 00 00 00	 call	 ?process_assert@@YGXPBD0H@Z ; process_assert
$LN5@create_loc:

; 196  : 
; 197  : 		////////////////////////////////////////
; 198  : 		//
; 199  : 		// RESOLVE DEFAULT VALUES
; 200  : 		//
; 201  : 		////////////////////////////////////////
; 202  : 
; 203  : 		//
; 204  : 		// side
; 205  : 		//
; 206  : 
; 207  : 		if (raw->ac.mob.side == ENTITY_SIDE_UNINITIALISED)

  0023b	8b 45 f8	 mov	 eax, DWORD PTR _raw$[ebp]
  0023e	8b 48 7c	 mov	 ecx, DWORD PTR [eax+124]
  00241	d1 e9		 shr	 ecx, 1
  00243	83 e1 03	 and	 ecx, 3
  00246	83 f9 03	 cmp	 ecx, 3
  00249	0f 85 b0 00 00
	00		 jne	 $LN6@create_loc

; 208  : 		{
; 209  : 			raw->ac.mob.side = get_local_entity_int_value (raw->ac.member_link.parent, INT_TYPE_SIDE);

  0024f	8b 45 f8	 mov	 eax, DWORD PTR _raw$[ebp]
  00252	83 b8 bc 00 00
	00 00		 cmp	 DWORD PTR [eax+188], 0
  00259	74 10		 je	 SHORT $LN21@create_loc
  0025b	8b 4d f8	 mov	 ecx, DWORD PTR _raw$[ebp]
  0025e	8b 91 bc 00 00
	00		 mov	 edx, DWORD PTR [ecx+188]
  00264	8b 02		 mov	 eax, DWORD PTR [edx]
  00266	89 45 b0	 mov	 DWORD PTR tv230[ebp], eax
  00269	eb 22		 jmp	 SHORT $LN22@create_loc
$LN21@create_loc:
  0026b	8b 0d 00 00 00
	00		 mov	 ecx, DWORD PTR ?__LINE__Var@?0??create_local@@YGPAUENTITY@@W4ENTITY_TYPES@@HPAD@Z@4JA
  00271	83 c1 7f	 add	 ecx, 127		; 0000007fH
  00274	51		 push	 ecx
  00275	68 00 00 00 00	 push	 OFFSET ??_C@_0FG@MDINGGKI@c?3?2users?2nhv90?2projects?2eech?2ap@
  0027a	8b 15 00 00 00
	00		 mov	 edx, DWORD PTR ?null_entity_pointer_message@@3PBDB ; null_entity_pointer_message
  00280	52		 push	 edx
  00281	e8 00 00 00 00	 call	 ?process_assert@@YGXPBD0H@Z ; process_assert
  00286	c7 45 b0 00 00
	00 00		 mov	 DWORD PTR tv230[ebp], 0
$LN22@create_loc:
  0028d	b8 01 00 00 00	 mov	 eax, 1
  00292	85 c0		 test	 eax, eax
  00294	74 09		 je	 SHORT $LN23@create_loc
  00296	c7 45 ac bb 00
	00 00		 mov	 DWORD PTR tv238[ebp], 187 ; 000000bbH
  0029d	eb 22		 jmp	 SHORT $LN24@create_loc
$LN23@create_loc:
  0029f	8b 0d 00 00 00
	00		 mov	 ecx, DWORD PTR ?__LINE__Var@?0??create_local@@YGPAUENTITY@@W4ENTITY_TYPES@@HPAD@Z@4JA
  002a5	83 c1 7f	 add	 ecx, 127		; 0000007fH
  002a8	51		 push	 ecx
  002a9	68 00 00 00 00	 push	 OFFSET ??_C@_0FG@MDINGGKI@c?3?2users?2nhv90?2projects?2eech?2ap@
  002ae	8b 15 00 00 00
	00		 mov	 edx, DWORD PTR ?overload_invalid_int_type_message@@3PBDB ; overload_invalid_int_type_message
  002b4	52		 push	 edx
  002b5	e8 00 00 00 00	 call	 ?process_assert@@YGXPBD0H@Z ; process_assert
  002ba	c7 45 ac 00 00
	00 00		 mov	 DWORD PTR tv238[ebp], 0
$LN24@create_loc:
  002c1	68 bb 00 00 00	 push	 187			; 000000bbH
  002c6	8b 45 f8	 mov	 eax, DWORD PTR _raw$[ebp]
  002c9	8b 88 bc 00 00
	00		 mov	 ecx, DWORD PTR [eax+188]
  002cf	51		 push	 ecx
  002d0	69 55 b0 5c 04
	00 00		 imul	 edx, DWORD PTR tv230[ebp], 1116
  002d7	8b 45 ac	 mov	 eax, DWORD PTR tv238[ebp]
  002da	8b 8c 82 00 00
	00 00		 mov	 ecx, DWORD PTR ?fn_get_local_entity_int_value@@3PAY0BBH@P6GHPAUENTITY@@W4INT_TYPES@@@ZA[edx+eax*4]
  002e1	ff d1		 call	 ecx
  002e3	89 45 a8	 mov	 DWORD PTR tv247[ebp], eax
  002e6	8b 55 a8	 mov	 edx, DWORD PTR tv247[ebp]
  002e9	83 e2 03	 and	 edx, 3
  002ec	d1 e2		 shl	 edx, 1
  002ee	8b 45 f8	 mov	 eax, DWORD PTR _raw$[ebp]
  002f1	8b 48 7c	 mov	 ecx, DWORD PTR [eax+124]
  002f4	83 e1 f9	 and	 ecx, -7			; fffffff9H
  002f7	0b ca		 or	 ecx, edx
  002f9	8b 55 f8	 mov	 edx, DWORD PTR _raw$[ebp]
  002fc	89 4a 7c	 mov	 DWORD PTR [edx+124], ecx
$LN6@create_loc:

; 210  : 		}
; 211  : 
; 212  : 		ASSERT (raw->ac.mob.side != ENTITY_SIDE_NEUTRAL);

  002ff	8b 45 f8	 mov	 eax, DWORD PTR _raw$[ebp]
  00302	8b 48 7c	 mov	 ecx, DWORD PTR [eax+124]
  00305	d1 e9		 shr	 ecx, 1
  00307	83 e1 03	 and	 ecx, 3
  0030a	75 1a		 jne	 SHORT $LN7@create_loc
  0030c	a1 00 00 00 00	 mov	 eax, DWORD PTR ?__LINE__Var@?0??create_local@@YGPAUENTITY@@W4ENTITY_TYPES@@HPAD@Z@4JA
  00311	05 82 00 00 00	 add	 eax, 130		; 00000082H
  00316	50		 push	 eax
  00317	68 00 00 00 00	 push	 OFFSET ??_C@_0FG@MDINGGKI@c?3?2users?2nhv90?2projects?2eech?2ap@
  0031c	68 00 00 00 00	 push	 OFFSET ??_C@_0CI@CGPGOOPC@raw?9?$DOac?4mob?4side?5?$CB?$DN?5ENTITY_SIDE@
  00321	e8 00 00 00 00	 call	 ?process_assert@@YGXPBD0H@Z ; process_assert
$LN7@create_loc:

; 213  : 
; 214  : 		//
; 215  : 		// sub_type
; 216  : 		//
; 217  : 
; 218  : 		if (raw->ac.mob.sub_type == ENTITY_SUB_TYPE_UNINITIALISED)

  00326	8b 45 f8	 mov	 eax, DWORD PTR _raw$[ebp]
  00329	83 38 ff	 cmp	 DWORD PTR [eax], -1
  0032c	0f 85 ca 00 00
	00		 jne	 $LN10@create_loc

; 219  : 		{
; 220  : 			group_sub_type = get_local_entity_int_value (raw->ac.member_link.parent, INT_TYPE_ENTITY_SUB_TYPE);

  00332	8b 45 f8	 mov	 eax, DWORD PTR _raw$[ebp]
  00335	83 b8 bc 00 00
	00 00		 cmp	 DWORD PTR [eax+188], 0
  0033c	74 10		 je	 SHORT $LN25@create_loc
  0033e	8b 4d f8	 mov	 ecx, DWORD PTR _raw$[ebp]
  00341	8b 91 bc 00 00
	00		 mov	 edx, DWORD PTR [ecx+188]
  00347	8b 02		 mov	 eax, DWORD PTR [edx]
  00349	89 45 b0	 mov	 DWORD PTR tv281[ebp], eax
  0034c	eb 25		 jmp	 SHORT $LN26@create_loc
$LN25@create_loc:
  0034e	8b 0d 00 00 00
	00		 mov	 ecx, DWORD PTR ?__LINE__Var@?0??create_local@@YGPAUENTITY@@W4ENTITY_TYPES@@HPAD@Z@4JA
  00354	81 c1 8a 00 00
	00		 add	 ecx, 138		; 0000008aH
  0035a	51		 push	 ecx
  0035b	68 00 00 00 00	 push	 OFFSET ??_C@_0FG@MDINGGKI@c?3?2users?2nhv90?2projects?2eech?2ap@
  00360	8b 15 00 00 00
	00		 mov	 edx, DWORD PTR ?null_entity_pointer_message@@3PBDB ; null_entity_pointer_message
  00366	52		 push	 edx
  00367	e8 00 00 00 00	 call	 ?process_assert@@YGXPBD0H@Z ; process_assert
  0036c	c7 45 b0 00 00
	00 00		 mov	 DWORD PTR tv281[ebp], 0
$LN26@create_loc:
  00373	b8 01 00 00 00	 mov	 eax, 1
  00378	85 c0		 test	 eax, eax
  0037a	74 09		 je	 SHORT $LN27@create_loc
  0037c	c7 45 ac 34 00
	00 00		 mov	 DWORD PTR tv289[ebp], 52 ; 00000034H
  00383	eb 25		 jmp	 SHORT $LN28@create_loc
$LN27@create_loc:
  00385	8b 0d 00 00 00
	00		 mov	 ecx, DWORD PTR ?__LINE__Var@?0??create_local@@YGPAUENTITY@@W4ENTITY_TYPES@@HPAD@Z@4JA
  0038b	81 c1 8a 00 00
	00		 add	 ecx, 138		; 0000008aH
  00391	51		 push	 ecx
  00392	68 00 00 00 00	 push	 OFFSET ??_C@_0FG@MDINGGKI@c?3?2users?2nhv90?2projects?2eech?2ap@
  00397	8b 15 00 00 00
	00		 mov	 edx, DWORD PTR ?overload_invalid_int_type_message@@3PBDB ; overload_invalid_int_type_message
  0039d	52		 push	 edx
  0039e	e8 00 00 00 00	 call	 ?process_assert@@YGXPBD0H@Z ; process_assert
  003a3	c7 45 ac 00 00
	00 00		 mov	 DWORD PTR tv289[ebp], 0
$LN28@create_loc:
  003aa	6a 34		 push	 52			; 00000034H
  003ac	8b 45 f8	 mov	 eax, DWORD PTR _raw$[ebp]
  003af	8b 88 bc 00 00
	00		 mov	 ecx, DWORD PTR [eax+188]
  003b5	51		 push	 ecx
  003b6	69 55 b0 5c 04
	00 00		 imul	 edx, DWORD PTR tv281[ebp], 1116
  003bd	8b 45 ac	 mov	 eax, DWORD PTR tv289[ebp]
  003c0	8b 8c 82 00 00
	00 00		 mov	 ecx, DWORD PTR ?fn_get_local_entity_int_value@@3PAY0BBH@P6GHPAUENTITY@@W4INT_TYPES@@@ZA[edx+eax*4]
  003c7	ff d1		 call	 ecx
  003c9	89 45 f4	 mov	 DWORD PTR _group_sub_type$[ebp], eax

; 221  : 
; 222  : 			if (raw->ac.mob.side == ENTITY_SIDE_BLUE_FORCE)

  003cc	8b 45 f8	 mov	 eax, DWORD PTR _raw$[ebp]
  003cf	8b 48 7c	 mov	 ecx, DWORD PTR [eax+124]
  003d2	d1 e9		 shr	 ecx, 1
  003d4	83 e1 03	 and	 ecx, 3
  003d7	83 f9 01	 cmp	 ecx, 1
  003da	75 11		 jne	 SHORT $LN9@create_loc

; 223  : 			{
; 224  : 				raw->ac.mob.sub_type = group_database[group_sub_type].default_blue_force_sub_type;

  003dc	6b 45 f4 64	 imul	 eax, DWORD PTR _group_sub_type$[ebp], 100
  003e0	8b 4d f8	 mov	 ecx, DWORD PTR _raw$[ebp]
  003e3	8b 90 20 00 00
	00		 mov	 edx, DWORD PTR ?group_database@@3PAUGROUP_DATA@@A[eax+32]
  003e9	89 11		 mov	 DWORD PTR [ecx], edx

; 225  : 			}
; 226  : 			else

  003eb	eb 0f		 jmp	 SHORT $LN10@create_loc
$LN9@create_loc:

; 227  : 			{
; 228  : 				raw->ac.mob.sub_type = group_database[group_sub_type].default_red_force_sub_type;

  003ed	6b 45 f4 64	 imul	 eax, DWORD PTR _group_sub_type$[ebp], 100
  003f1	8b 4d f8	 mov	 ecx, DWORD PTR _raw$[ebp]
  003f4	8b 90 24 00 00
	00		 mov	 edx, DWORD PTR ?group_database@@3PAUGROUP_DATA@@A[eax+36]
  003fa	89 11		 mov	 DWORD PTR [ecx], edx
$LN10@create_loc:

; 229  : 			}
; 230  : 		}
; 231  : 
; 232  : 		ASSERT (entity_sub_type_aircraft_valid (raw->ac.mob.sub_type));

  003fc	8b 45 f8	 mov	 eax, DWORD PTR _raw$[ebp]
  003ff	83 38 00	 cmp	 DWORD PTR [eax], 0
  00402	7c 08		 jl	 SHORT $LN12@create_loc
  00404	8b 45 f8	 mov	 eax, DWORD PTR _raw$[ebp]
  00407	83 38 20	 cmp	 DWORD PTR [eax], 32	; 00000020H
  0040a	7c 1a		 jl	 SHORT $LN11@create_loc
$LN12@create_loc:
  0040c	a1 00 00 00 00	 mov	 eax, DWORD PTR ?__LINE__Var@?0??create_local@@YGPAUENTITY@@W4ENTITY_TYPES@@HPAD@Z@4JA
  00411	05 96 00 00 00	 add	 eax, 150		; 00000096H
  00416	50		 push	 eax
  00417	68 00 00 00 00	 push	 OFFSET ??_C@_0FG@MDINGGKI@c?3?2users?2nhv90?2projects?2eech?2ap@
  0041c	68 00 00 00 00	 push	 OFFSET ??_C@_0DG@KEJHCNJ@entity_sub_type_aircraft_valid?5@
  00421	e8 00 00 00 00	 call	 ?process_assert@@YGXPBD0H@Z ; process_assert
$LN11@create_loc:

; 233  : 
; 234  : 		//
; 235  : 		// 3D shape
; 236  : 		//
; 237  : 
; 238  : 		if (raw->ac.object_3d_shape == OBJECT_3D_INVALID_OBJECT_INDEX)

  00426	8b 45 f8	 mov	 eax, DWORD PTR _raw$[ebp]
  00429	83 b8 80 00 00
	00 00		 cmp	 DWORD PTR [eax+128], 0
  00430	75 18		 jne	 SHORT $LN13@create_loc

; 239  : 		{
; 240  : 			raw->ac.object_3d_shape = aircraft_database[raw->ac.mob.sub_type].default_3d_shape;

  00432	8b 45 f8	 mov	 eax, DWORD PTR _raw$[ebp]
  00435	69 08 f4 00 00
	00		 imul	 ecx, DWORD PTR [eax], 244
  0043b	8b 55 f8	 mov	 edx, DWORD PTR _raw$[ebp]
  0043e	8b 81 10 00 00
	00		 mov	 eax, DWORD PTR ?aircraft_database@@3PAUAIRCRAFT_DATA@@A[ecx+16]
  00444	89 82 80 00 00
	00		 mov	 DWORD PTR [edx+128], eax
$LN13@create_loc:

; 241  : 		}
; 242  : 
; 243  : 		//
; 244  : 		// weapon config
; 245  : 		//
; 246  : 
; 247  : 		if (raw->ac.weapon_config_type == WEAPON_CONFIG_TYPE_UNINITIALISED)

  0044a	8b 45 f8	 mov	 eax, DWORD PTR _raw$[ebp]
  0044d	83 b8 1c 01 00
	00 ff		 cmp	 DWORD PTR [eax+284], -1
  00454	75 18		 jne	 SHORT $LN14@create_loc

; 248  : 		{
; 249  : 			raw->ac.weapon_config_type = aircraft_database[raw->ac.mob.sub_type].default_weapon_config_type;

  00456	8b 45 f8	 mov	 eax, DWORD PTR _raw$[ebp]
  00459	69 08 f4 00 00
	00		 imul	 ecx, DWORD PTR [eax], 244
  0045f	8b 55 f8	 mov	 edx, DWORD PTR _raw$[ebp]
  00462	8b 81 1c 00 00
	00		 mov	 eax, DWORD PTR ?aircraft_database@@3PAUAIRCRAFT_DATA@@A[ecx+28]
  00468	89 82 1c 01 00
	00		 mov	 DWORD PTR [edx+284], eax
$LN14@create_loc:

; 250  : 		}
; 251  : 
; 252  : 		ASSERT (weapon_config_type_valid (raw->ac.weapon_config_type));

  0046e	8b 45 f8	 mov	 eax, DWORD PTR _raw$[ebp]
  00471	83 b8 1c 01 00
	00 00		 cmp	 DWORD PTR [eax+284], 0
  00478	7c 0f		 jl	 SHORT $LN16@create_loc
  0047a	8b 45 f8	 mov	 eax, DWORD PTR _raw$[ebp]
  0047d	81 b8 1c 01 00
	00 cc 02 00 00	 cmp	 DWORD PTR [eax+284], 716 ; 000002ccH
  00487	7c 1a		 jl	 SHORT $LN15@create_loc
$LN16@create_loc:
  00489	a1 00 00 00 00	 mov	 eax, DWORD PTR ?__LINE__Var@?0??create_local@@YGPAUENTITY@@W4ENTITY_TYPES@@HPAD@Z@4JA
  0048e	05 aa 00 00 00	 add	 eax, 170		; 000000aaH
  00493	50		 push	 eax
  00494	68 00 00 00 00	 push	 OFFSET ??_C@_0FG@MDINGGKI@c?3?2users?2nhv90?2projects?2eech?2ap@
  00499	68 00 00 00 00	 push	 OFFSET ??_C@_0DG@OOAIMCDD@weapon_config_type_valid?5?$CIraw?9?$DO@
  0049e	e8 00 00 00 00	 call	 ?process_assert@@YGXPBD0H@Z ; process_assert
$LN15@create_loc:

; 253  : 
; 254  : 		//
; 255  : 		// damage levels
; 256  : 		//
; 257  : 
; 258  : 		raw->ac.damage_level = aircraft_database[raw->ac.mob.sub_type].initial_damage_level;

  004a3	8b 45 f8	 mov	 eax, DWORD PTR _raw$[ebp]
  004a6	69 08 f4 00 00
	00		 imul	 ecx, DWORD PTR [eax], 244
  004ac	8b 55 f8	 mov	 edx, DWORD PTR _raw$[ebp]
  004af	8b 81 e0 00 00
	00		 mov	 eax, DWORD PTR ?aircraft_database@@3PAUAIRCRAFT_DATA@@A[ecx+224]
  004b5	89 82 34 01 00
	00		 mov	 DWORD PTR [edx+308], eax

; 259  : 
; 260  : 		////////////////////////////////////////
; 261  : 		//
; 262  : 		// BUILD COMPONENTS
; 263  : 		//
; 264  : 		////////////////////////////////////////
; 265  : 
; 266  : 		//
; 267  : 		// 3D object
; 268  : 		//
; 269  : 
; 270  : 		raw->ac.inst3d = construct_3d_object (raw->ac.object_3d_shape);

  004bb	8b 45 f8	 mov	 eax, DWORD PTR _raw$[ebp]
  004be	8b 88 80 00 00
	00		 mov	 ecx, DWORD PTR [eax+128]
  004c4	51		 push	 ecx
  004c5	e8 00 00 00 00	 call	 ?construct_3d_object@@YGPAUOBJECT_3D_INSTANCE@@H@Z ; construct_3d_object
  004ca	8b 55 f8	 mov	 edx, DWORD PTR _raw$[ebp]
  004cd	89 82 84 00 00
	00		 mov	 DWORD PTR [edx+132], eax

; 271  : 
; 272  : 		set_fixed_wing_id_number (en);

  004d3	8b 45 fc	 mov	 eax, DWORD PTR _en$[ebp]
  004d6	50		 push	 eax
  004d7	e8 00 00 00 00	 call	 ?set_fixed_wing_id_number@@YGXPAUENTITY@@@Z ; set_fixed_wing_id_number

; 273  : 
; 274  : 		initialise_fixed_wing_propellors (en);

  004dc	8b 45 fc	 mov	 eax, DWORD PTR _en$[ebp]
  004df	50		 push	 eax
  004e0	e8 00 00 00 00	 call	 ?initialise_fixed_wing_propellors@@YGXPAUENTITY@@@Z ; initialise_fixed_wing_propellors

; 275  : 
; 276  : 		#if RECOGNITION_GUIDE
; 277  : 
; 278  : 		raw->ac.loading_door_state = AIRCRAFT_LOADING_DOORS_CLOSED_FLOAT_VALUE;
; 279  : 
; 280  : 		#endif
; 281  : 
; 282  : 		//
; 283  : 		// weapon config
; 284  : 		//
; 285  : 
; 286  : 		raw->ac.weapon_package_status_array = (weapon_package_status *) malloc_fast_mem (SIZE_WEAPON_PACKAGE_STATUS_ARRAY);

  004e5	68 00 02 00 00	 push	 512			; 00000200H
  004ea	e8 00 00 00 00	 call	 ?malloc_fast_memory@@YGPAXI@Z ; malloc_fast_memory
  004ef	8b 4d f8	 mov	 ecx, DWORD PTR _raw$[ebp]
  004f2	89 81 20 01 00
	00		 mov	 DWORD PTR [ecx+288], eax

; 287  : 
; 288  : 		memset (raw->ac.weapon_package_status_array, 0, SIZE_WEAPON_PACKAGE_STATUS_ARRAY);

  004f8	68 00 02 00 00	 push	 512			; 00000200H
  004fd	6a 00		 push	 0
  004ff	8b 45 f8	 mov	 eax, DWORD PTR _raw$[ebp]
  00502	8b 88 20 01 00
	00		 mov	 ecx, DWORD PTR [eax+288]
  00508	51		 push	 ecx
  00509	e8 00 00 00 00	 call	 _memset
  0050e	83 c4 0c	 add	 esp, 12			; 0000000cH

; 289  : 
; 290  : 		load_local_entity_weapon_config (en);

  00511	8b 45 fc	 mov	 eax, DWORD PTR _en$[ebp]
  00514	50		 push	 eax
  00515	e8 00 00 00 00	 call	 ?load_local_entity_weapon_config@@YGXPAUENTITY@@@Z ; load_local_entity_weapon_config

; 291  : 
; 292  : 		//
; 293  : 		// update force info
; 294  : 		//
; 295  : 
; 296  : 		add_to_force_info (get_local_force_entity ((entity_sides) raw->ac.mob.side), en);

  0051a	8b 45 fc	 mov	 eax, DWORD PTR _en$[ebp]
  0051d	50		 push	 eax
  0051e	8b 4d f8	 mov	 ecx, DWORD PTR _raw$[ebp]
  00521	8b 51 7c	 mov	 edx, DWORD PTR [ecx+124]
  00524	d1 ea		 shr	 edx, 1
  00526	83 e2 03	 and	 edx, 3
  00529	52		 push	 edx
  0052a	e8 00 00 00 00	 call	 ?get_local_force_entity@@YGPAUENTITY@@W4ENTITY_SIDES@@@Z ; get_local_force_entity
  0052f	50		 push	 eax
  00530	e8 00 00 00 00	 call	 ?add_to_force_info@@YGXPAUENTITY@@0@Z ; add_to_force_info

; 297  : 
; 298  : 		////////////////////////////////////////
; 299  : 		//
; 300  : 		// LINK INTO SYSTEM
; 301  : 		//
; 302  : 		////////////////////////////////////////
; 303  : 
; 304  : 		insert_local_entity_into_parents_child_list (en, LIST_TYPE_MEMBER, raw->ac.member_link.parent, raw->ac.member_link.child_pred);

  00535	8b 45 f8	 mov	 eax, DWORD PTR _raw$[ebp]
  00538	8b 88 c4 00 00
	00		 mov	 ecx, DWORD PTR [eax+196]
  0053e	51		 push	 ecx
  0053f	8b 55 f8	 mov	 edx, DWORD PTR _raw$[ebp]
  00542	8b 82 bc 00 00
	00		 mov	 eax, DWORD PTR [edx+188]
  00548	50		 push	 eax
  00549	6a 19		 push	 25			; 00000019H
  0054b	8b 4d fc	 mov	 ecx, DWORD PTR _en$[ebp]
  0054e	51		 push	 ecx
  0054f	e8 00 00 00 00	 call	 ?insert_local_entity_into_parents_child_list@@YGXPAUENTITY@@W4LIST_TYPES@@00@Z ; insert_local_entity_into_parents_child_list

; 305  : 
; 306  : 		//
; 307  : 		// insert into LIST_TYPE_MEMBER before LIST_TYPE_VIEW
; 308  : 		//
; 309  : 
; 310  : 		insert_local_entity_into_parents_child_list (en, LIST_TYPE_VIEW, get_camera_entity (), get_local_entity_view_list_pred (en));

  00554	8b 45 fc	 mov	 eax, DWORD PTR _en$[ebp]
  00557	50		 push	 eax
  00558	e8 00 00 00 00	 call	 ?get_local_entity_view_list_pred@@YGPAUENTITY@@PAU1@@Z ; get_local_entity_view_list_pred
  0055d	50		 push	 eax
  0055e	8b 0d 00 00 00
	00		 mov	 ecx, DWORD PTR ?camera_entity@@3PAUENTITY@@A ; camera_entity
  00564	51		 push	 ecx
  00565	6a 2a		 push	 42			; 0000002aH
  00567	8b 55 fc	 mov	 edx, DWORD PTR _en$[ebp]
  0056a	52		 push	 edx
  0056b	e8 00 00 00 00	 call	 ?insert_local_entity_into_parents_child_list@@YGXPAUENTITY@@W4LIST_TYPES@@00@Z ; insert_local_entity_into_parents_child_list

; 311  : 
; 312  : 		insert_local_entity_into_parents_child_list (en, LIST_TYPE_SECTOR, get_local_sector_entity (&raw->ac.mob.position), NULL);

  00570	6a 00		 push	 0
  00572	8b 45 f8	 mov	 eax, DWORD PTR _raw$[ebp]
  00575	83 c0 04	 add	 eax, 4
  00578	50		 push	 eax
  00579	e8 00 00 00 00	 call	 ?get_local_sector_entity@@YGPAUENTITY@@PAUVEC3D@@@Z ; get_local_sector_entity
  0057e	50		 push	 eax
  0057f	6a 21		 push	 33			; 00000021H
  00581	8b 4d fc	 mov	 ecx, DWORD PTR _en$[ebp]
  00584	51		 push	 ecx
  00585	e8 00 00 00 00	 call	 ?insert_local_entity_into_parents_child_list@@YGXPAUENTITY@@W4LIST_TYPES@@00@Z ; insert_local_entity_into_parents_child_list

; 313  : 
; 314  : 		insert_local_entity_into_parents_child_list (en, LIST_TYPE_UPDATE, get_update_entity (), NULL);

  0058a	6a 00		 push	 0
  0058c	a1 00 00 00 00	 mov	 eax, DWORD PTR ?update_entity@@3PAUENTITY@@A ; update_entity
  00591	50		 push	 eax
  00592	6a 29		 push	 41			; 00000029H
  00594	8b 4d fc	 mov	 ecx, DWORD PTR _en$[ebp]
  00597	51		 push	 ecx
  00598	e8 00 00 00 00	 call	 ?insert_local_entity_into_parents_child_list@@YGXPAUENTITY@@W4LIST_TYPES@@00@Z ; insert_local_entity_into_parents_child_list

; 315  : 
; 316  : 		if (tacview_is_logging())

  0059d	83 3d 00 00 00
	00 00		 cmp	 DWORD PTR ?tacview_log_file@@3PAU_iobuf@@A, 0 ; tacview_log_file
  005a4	74 09		 je	 SHORT $LN17@create_loc

; 317  : 			write_tacview_new_unit(en);

  005a6	8b 45 fc	 mov	 eax, DWORD PTR _en$[ebp]
  005a9	50		 push	 eax
  005aa	e8 00 00 00 00	 call	 ?write_tacview_new_unit@@YGXPAUENTITY@@@Z ; write_tacview_new_unit
$LN17@create_loc:

; 318  : 	}
; 319  : 
; 320  : 	return (en);

  005af	8b 45 fc	 mov	 eax, DWORD PTR _en$[ebp]

; 321  : }

  005b2	5f		 pop	 edi
  005b3	5e		 pop	 esi
  005b4	5b		 pop	 ebx
  005b5	8b e5		 mov	 esp, ebp
  005b7	5d		 pop	 ebp
  005b8	c2 0c 00	 ret	 12			; 0000000cH
?create_local@@YGPAUENTITY@@W4ENTITY_TYPES@@HPAD@Z ENDP	; create_local
_TEXT	ENDS
; Function compile flags: /Odtp /ZI
; File c:\users\nhv90\projects\eech\aphavoc\source\entity\mobile\aircraft\fixwing\fw_creat.c
;	COMDAT ?create_client_server_entity_fixed_wing@@YGPAUENTITY@@HHPAU1@PAUVEC3D@@@Z
_TEXT	SEGMENT
_sound_sample_index$1 = -12				; size = 4
_raw$ = -8						; size = 4
_new_entity$ = -4					; size = 4
_index$ = 8						; size = 4
_sub_type$ = 12						; size = 4
_group$ = 16						; size = 4
_position$ = 20						; size = 4
?create_client_server_entity_fixed_wing@@YGPAUENTITY@@HHPAU1@PAUVEC3D@@@Z PROC ; create_client_server_entity_fixed_wing, COMDAT

; 408  : {

  00000	55		 push	 ebp
  00001	8b ec		 mov	 ebp, esp
  00003	83 ec 4c	 sub	 esp, 76			; 0000004cH
  00006	53		 push	 ebx
  00007	56		 push	 esi
  00008	57		 push	 edi

; 409  : 	entity
; 410  : 		*new_entity;
; 411  : 
; 412  : 	fixed_wing
; 413  : 		*raw;
; 414  : 
; 415  : 	ASSERT (get_comms_model() == COMMS_MODEL_SERVER);

  00009	83 3d 00 00 00
	00 00		 cmp	 DWORD PTR ?system_comms_model@@3W4COMMS_MODEL_TYPES@@A, 0 ; system_comms_model
  00010	74 18		 je	 SHORT $LN2@create_cli
  00012	a1 00 00 00 00	 mov	 eax, DWORD PTR ?__LINE__Var@?0??create_client_server_entity_fixed_wing@@YGPAUENTITY@@HHPAU2@PAUVEC3D@@@Z@4JA
  00017	83 c0 07	 add	 eax, 7
  0001a	50		 push	 eax
  0001b	68 00 00 00 00	 push	 OFFSET ??_C@_0FG@MDINGGKI@c?3?2users?2nhv90?2projects?2eech?2ap@
  00020	68 00 00 00 00	 push	 OFFSET ??_C@_0CI@NLFHFOLH@get_comms_model?$CI?$CJ?5?$DN?$DN?5COMMS_MODE@
  00025	e8 00 00 00 00	 call	 ?process_assert@@YGXPBD0H@Z ; process_assert
$LN2@create_cli:

; 416  : 
; 417  : 	//
; 418  : 	// create fixed wing entity
; 419  : 	//
; 420  : 
; 421  : 	new_entity = create_client_server_entity

  0002a	6a 00		 push	 0
  0002c	8b 45 14	 mov	 eax, DWORD PTR _position$[ebp]
  0002f	f3 0f 10 40 08	 movss	 xmm0, DWORD PTR [eax+8]
  00034	f3 0f 5a c0	 cvtss2sd xmm0, xmm0
  00038	83 ec 08	 sub	 esp, 8
  0003b	f2 0f 11 04 24	 movsd	 QWORD PTR [esp], xmm0
  00040	8b 4d 14	 mov	 ecx, DWORD PTR _position$[ebp]
  00043	f3 0f 10 41 04	 movss	 xmm0, DWORD PTR [ecx+4]
  00048	f3 0f 5a c0	 cvtss2sd xmm0, xmm0
  0004c	83 ec 08	 sub	 esp, 8
  0004f	f2 0f 11 04 24	 movsd	 QWORD PTR [esp], xmm0
  00054	8b 55 14	 mov	 edx, DWORD PTR _position$[ebp]
  00057	f3 0f 10 02	 movss	 xmm0, DWORD PTR [edx]
  0005b	f3 0f 5a c0	 cvtss2sd xmm0, xmm0
  0005f	83 ec 08	 sub	 esp, 8
  00062	f2 0f 11 04 24	 movsd	 QWORD PTR [esp], xmm0
  00067	6a 08		 push	 8
  00069	6a 09		 push	 9
  0006b	8b 45 0c	 mov	 eax, DWORD PTR _sub_type$[ebp]
  0006e	50		 push	 eax
  0006f	6a 34		 push	 52			; 00000034H
  00071	6a 05		 push	 5
  00073	8b 4d 10	 mov	 ecx, DWORD PTR _group$[ebp]
  00076	51		 push	 ecx
  00077	6a 19		 push	 25			; 00000019H
  00079	6a 06		 push	 6
  0007b	8b 55 08	 mov	 edx, DWORD PTR _index$[ebp]
  0007e	52		 push	 edx
  0007f	6a 0a		 push	 10			; 0000000aH
  00081	e8 00 00 00 00	 call	 ?create_client_server_entity@@YAPAUENTITY@@W4ENTITY_TYPES@@HZZ ; create_client_server_entity
  00086	83 c4 44	 add	 esp, 68			; 00000044H
  00089	89 45 fc	 mov	 DWORD PTR _new_entity$[ebp], eax

; 422  : 	(
; 423  : 		ENTITY_TYPE_FIXED_WING,
; 424  : 		index,
; 425  : 		ENTITY_ATTR_PARENT (LIST_TYPE_MEMBER, group),
; 426  : 		ENTITY_ATTR_INT_VALUE (INT_TYPE_ENTITY_SUB_TYPE, sub_type),
; 427  : 		ENTITY_ATTR_VEC3D (VEC3D_TYPE_POSITION, position->x, position->y, position->z),
; 428  : 		ENTITY_ATTR_END
; 429  : 	);
; 430  : 
; 431  : 	//
; 432  : 	// create and attach special effects
; 433  : 	//
; 434  : 
; 435  : 	{
; 436  : 		sound_sample_indices
; 437  : 			sound_sample_index;
; 438  : 
; 439  : 		//
; 440  : 		// damage smoke
; 441  : 		//
; 442  : 
; 443  : 		attach_fixed_wing_meta_smoke_lists (new_entity);

  0008c	8b 45 fc	 mov	 eax, DWORD PTR _new_entity$[ebp]
  0008f	50		 push	 eax
  00090	e8 00 00 00 00	 call	 ?attach_fixed_wing_meta_smoke_lists@@YGXPAUENTITY@@@Z ; attach_fixed_wing_meta_smoke_lists

; 444  : 
; 445  : 		//
; 446  : 		// sound effects
; 447  : 		//
; 448  : 
; 449  : 		sound_sample_index = aircraft_database [sub_type].continuous_sound_effect_index;

  00095	69 45 0c f4 00
	00 00		 imul	 eax, DWORD PTR _sub_type$[ebp], 244
  0009c	8b 88 e8 00 00
	00		 mov	 ecx, DWORD PTR ?aircraft_database@@3PAUAIRCRAFT_DATA@@A[eax+232]
  000a2	89 4d f4	 mov	 DWORD PTR _sound_sample_index$1[ebp], ecx

; 450  : 
; 451  : 		create_client_server_sound_effect_entity

  000a5	8d 45 f4	 lea	 eax, DWORD PTR _sound_sample_index$1[ebp]
  000a8	50		 push	 eax
  000a9	6a 01		 push	 1
  000ab	6a 01		 push	 1
  000ad	6a 00		 push	 0
  000af	51		 push	 ecx
  000b0	f3 0f 10 05 00
	00 00 00	 movss	 xmm0, DWORD PTR __real@3f800000
  000b8	f3 0f 11 04 24	 movss	 DWORD PTR [esp], xmm0
  000bd	51		 push	 ecx
  000be	f3 0f 10 05 00
	00 00 00	 movss	 xmm0, DWORD PTR __real@3f800000
  000c6	f3 0f 11 04 24	 movss	 DWORD PTR [esp], xmm0
  000cb	6a 00		 push	 0
  000cd	6a 00		 push	 0
  000cf	6a 00		 push	 0
  000d1	6a 15		 push	 21			; 00000015H
  000d3	6a 00		 push	 0
  000d5	8b 4d fc	 mov	 ecx, DWORD PTR _new_entity$[ebp]
  000d8	51		 push	 ecx
  000d9	e8 00 00 00 00	 call	 ?create_client_server_sound_effect_entity@@YGPAUENTITY@@PAU1@W4ENTITY_SIDES@@HW4SOUND_CHANNEL_TYPES@@W4SOUND_LOCALITY_TYPES@@PAUVEC3D@@MMHHHPAH@Z ; create_client_server_sound_effect_entity

; 452  : 		(
; 453  : 			new_entity,
; 454  : 			ENTITY_SIDE_NEUTRAL,
; 455  : 			ENTITY_SUB_TYPE_EFFECT_SOUND_ENGINE_LOOPING1,
; 456  : 			SOUND_CHANNEL_SOUND_EFFECT,
; 457  : 			SOUND_LOCALITY_ALL,
; 458  : 			NULL,												// position
; 459  : 			1.0,												// amplification
; 460  : 			1.0,												// Werewolf pitch
; 461  : 			FALSE,											// valid sound effect
; 462  : 			TRUE,												// looping
; 463  : 			1,													// sample count
; 464  : 			&sound_sample_index							// sample index list
; 465  : 		);
; 466  : 
; 467  : 		sound_sample_index = SOUND_SAMPLE_INDEX_JET_AFTERBURNER;

  000de	c7 45 f4 30 00
	00 00		 mov	 DWORD PTR _sound_sample_index$1[ebp], 48 ; 00000030H

; 468  : 
; 469  : 		create_client_server_sound_effect_entity

  000e5	8d 45 f4	 lea	 eax, DWORD PTR _sound_sample_index$1[ebp]
  000e8	50		 push	 eax
  000e9	6a 01		 push	 1
  000eb	6a 01		 push	 1
  000ed	6a 00		 push	 0
  000ef	51		 push	 ecx
  000f0	f3 0f 10 05 00
	00 00 00	 movss	 xmm0, DWORD PTR __real@3f800000
  000f8	f3 0f 11 04 24	 movss	 DWORD PTR [esp], xmm0
  000fd	51		 push	 ecx
  000fe	f3 0f 10 05 00
	00 00 00	 movss	 xmm0, DWORD PTR __real@3f800000
  00106	f3 0f 11 04 24	 movss	 DWORD PTR [esp], xmm0
  0010b	6a 00		 push	 0
  0010d	6a 00		 push	 0
  0010f	6a 00		 push	 0
  00111	6a 16		 push	 22			; 00000016H
  00113	6a 00		 push	 0
  00115	8b 4d fc	 mov	 ecx, DWORD PTR _new_entity$[ebp]
  00118	51		 push	 ecx
  00119	e8 00 00 00 00	 call	 ?create_client_server_sound_effect_entity@@YGPAUENTITY@@PAU1@W4ENTITY_SIDES@@HW4SOUND_CHANNEL_TYPES@@W4SOUND_LOCALITY_TYPES@@PAUVEC3D@@MMHHHPAH@Z ; create_client_server_sound_effect_entity

; 470  : 		(
; 471  : 			new_entity,
; 472  : 			ENTITY_SIDE_NEUTRAL,
; 473  : 			ENTITY_SUB_TYPE_EFFECT_SOUND_ENGINE_LOOPING2,
; 474  : 			SOUND_CHANNEL_SOUND_EFFECT,
; 475  : 			SOUND_LOCALITY_ALL,
; 476  : 			NULL,												// position
; 477  : 			1.0,												// amplification
; 478  : 			1.0,												// Werewolf pitch
; 479  : 			FALSE,											// valid sound effect
; 480  : 			TRUE,												// looping
; 481  : 			1,													// sample count
; 482  : 			&sound_sample_index							// sample index list
; 483  : 		);
; 484  : 	}
; 485  : 
; 486  : 	//
; 487  : 	// initialise terrain elevation cache
; 488  : 	//
; 489  : 
; 490  : 	raw = (fixed_wing *) get_local_entity_data (new_entity);

  0011e	8b 45 fc	 mov	 eax, DWORD PTR _new_entity$[ebp]
  00121	8b 48 04	 mov	 ecx, DWORD PTR [eax+4]
  00124	89 4d f8	 mov	 DWORD PTR _raw$[ebp], ecx

; 491  : 
; 492  : 	get_3d_terrain_point_data (position->x, position->z, &raw->ac.terrain_info);

  00127	8b 45 f8	 mov	 eax, DWORD PTR _raw$[ebp]
  0012a	05 54 01 00 00	 add	 eax, 340		; 00000154H
  0012f	50		 push	 eax
  00130	8b 4d 14	 mov	 ecx, DWORD PTR _position$[ebp]
  00133	51		 push	 ecx
  00134	f3 0f 10 41 08	 movss	 xmm0, DWORD PTR [ecx+8]
  00139	f3 0f 11 04 24	 movss	 DWORD PTR [esp], xmm0
  0013e	8b 55 14	 mov	 edx, DWORD PTR _position$[ebp]
  00141	51		 push	 ecx
  00142	f3 0f 10 02	 movss	 xmm0, DWORD PTR [edx]
  00146	f3 0f 11 04 24	 movss	 DWORD PTR [esp], xmm0
  0014b	e8 00 00 00 00	 call	 ?get_3d_terrain_point_data@@YGMMMPAUTERRAIN_3D_POINT_DATA@@@Z ; get_3d_terrain_point_data
  00150	dd d8		 fstp	 ST(0)

; 493  : 
; 494  : 	return new_entity;

  00152	8b 45 fc	 mov	 eax, DWORD PTR _new_entity$[ebp]

; 495  : }

  00155	5f		 pop	 edi
  00156	5e		 pop	 esi
  00157	5b		 pop	 ebx
  00158	8b e5		 mov	 esp, ebp
  0015a	5d		 pop	 ebp
  0015b	c2 10 00	 ret	 16			; 00000010H
?create_client_server_entity_fixed_wing@@YGPAUENTITY@@HHPAU1@PAUVEC3D@@@Z ENDP ; create_client_server_entity_fixed_wing
_TEXT	ENDS
; Function compile flags: /Odtp /ZI
; File c:\users\nhv90\projects\eech\aphavoc\source\entity\mobile\aircraft\fixwing\fw_creat.c
;	COMDAT ?overload_fixed_wing_create_functions@@YGXXZ
_TEXT	SEGMENT
?overload_fixed_wing_create_functions@@YGXXZ PROC	; overload_fixed_wing_create_functions, COMDAT

; 395  : {

  00000	55		 push	 ebp
  00001	8b ec		 mov	 ebp, esp
  00003	83 ec 40	 sub	 esp, 64			; 00000040H
  00006	53		 push	 ebx
  00007	56		 push	 esi
  00008	57		 push	 edi

; 396  : 	fn_create_local_entity[ENTITY_TYPE_FIXED_WING]		  								= create_local;

  00009	b8 04 00 00 00	 mov	 eax, 4
  0000e	6b c8 0a	 imul	 ecx, eax, 10
  00011	c7 81 00 00 00
	00 00 00 00 00	 mov	 DWORD PTR ?fn_create_local_entity@@3PAP6GPAUENTITY@@W4ENTITY_TYPES@@HPAD@ZA[ecx], OFFSET ?create_local@@YGPAUENTITY@@W4ENTITY_TYPES@@HPAD@Z ; create_local

; 397  : 
; 398  : 	fn_create_client_server_entity[ENTITY_TYPE_FIXED_WING][COMMS_MODEL_SERVER]	= create_server;

  0001b	b8 08 00 00 00	 mov	 eax, 8
  00020	6b c8 0a	 imul	 ecx, eax, 10
  00023	ba 04 00 00 00	 mov	 edx, 4
  00028	6b c2 00	 imul	 eax, edx, 0
  0002b	c7 84 01 00 00
	00 00 00 00 00
	00		 mov	 DWORD PTR ?fn_create_client_server_entity@@3PAY01P6GPAUENTITY@@W4ENTITY_TYPES@@HPAD@ZA[ecx+eax], OFFSET ?create_server@@YGPAUENTITY@@W4ENTITY_TYPES@@HPAD@Z ; create_server

; 399  : 
; 400  : 	fn_create_client_server_entity[ENTITY_TYPE_FIXED_WING][COMMS_MODEL_CLIENT]	= create_client;

  00036	b8 08 00 00 00	 mov	 eax, 8
  0003b	6b c8 0a	 imul	 ecx, eax, 10
  0003e	ba 04 00 00 00	 mov	 edx, 4
  00043	c1 e2 00	 shl	 edx, 0
  00046	c7 84 11 00 00
	00 00 00 00 00
	00		 mov	 DWORD PTR ?fn_create_client_server_entity@@3PAY01P6GPAUENTITY@@W4ENTITY_TYPES@@HPAD@ZA[ecx+edx], OFFSET ?create_client@@YGPAUENTITY@@W4ENTITY_TYPES@@HPAD@Z ; create_client

; 401  : }

  00051	5f		 pop	 edi
  00052	5e		 pop	 esi
  00053	5b		 pop	 ebx
  00054	8b e5		 mov	 esp, ebp
  00056	5d		 pop	 ebp
  00057	c3		 ret	 0
?overload_fixed_wing_create_functions@@YGXXZ ENDP	; overload_fixed_wing_create_functions
_TEXT	ENDS
END
