; Listing generated by Microsoft (R) Optimizing Compiler Version 19.16.27045.0 

	TITLE	C:\Users\nhv90\Projects\eech\aphavoc\source\entity\mobile\aircraft\fixwing\fw_dstry.c
	.686P
	.XMM
	include listing.inc
	.model	flat

INCLUDELIB MSVCRTD
INCLUDELIB OLDNAMES

PUBLIC	?overload_fixed_wing_destroy_functions@@YGXXZ	; overload_fixed_wing_destroy_functions
PUBLIC	?__LINE__Var@?0??destroy_local@@YGXPAUENTITY@@@Z@4JA ; `destroy_local'::`1'::__LINE__Var
PUBLIC	??_C@_0FG@HCJPIALE@c?3?2users?2nhv90?2projects?2eech?2ap@ ; `string'
PUBLIC	??_C@_0DB@EMHJHKIB@?$CBget_local_entity_int_value?5?$CIen@ ; `string'
PUBLIC	?__LINE__Var@?0??destroy_server@@YGXPAUENTITY@@@Z@4JA ; `destroy_server'::`1'::__LINE__Var
PUBLIC	??_C@_0CC@BNNNEGEG@assert_client_server_remote_fn?5@ ; `string'
PUBLIC	??_C@_0CB@CFOCLFOK@assert_client_server_local_fn?5?$CI@ ; `string'
PUBLIC	?__LINE__Var@?0??destroy_client@@YGXPAUENTITY@@@Z@4JA ; `destroy_client'::`1'::__LINE__Var
PUBLIC	?__LINE__Var@?0??destroy_server_family@@YGXPAUENTITY@@@Z@4JA ; `destroy_server_family'::`1'::__LINE__Var
PUBLIC	?__LINE__Var@?0??kill_local@@YGXPAUENTITY@@@Z@4JA ; `kill_local'::`1'::__LINE__Var
PUBLIC	??_C@_05MGJOOGAJ@group@				; `string'
PUBLIC	?__LINE__Var@?0??kill_server@@YGXPAUENTITY@@@Z@4JA ; `kill_server'::`1'::__LINE__Var
PUBLIC	?__LINE__Var@?0??kill_client@@YGXPAUENTITY@@@Z@4JA ; `kill_client'::`1'::__LINE__Var
PUBLIC	__real@3f800000
EXTRN	?process_assert@@YGXPBD0H@Z:PROC		; process_assert
EXTRN	?free_mem@@YGXPAX@Z:PROC			; free_mem
EXTRN	?destruct_3d_object@@YGXPAUOBJECT_3D_INSTANCE@@@Z:PROC ; destruct_3d_object
EXTRN	?destroy_system_sound_effect@@YGXPAUSYSTEM_SOUND_EFFECT@@@Z:PROC ; destroy_system_sound_effect
EXTRN	?notify_local_entity@@YAHW4ENTITY_MESSAGES@@PAUENTITY@@1ZZ:PROC ; notify_local_entity
EXTRN	?delete_local_entity_from_parents_child_list@@YGXPAUENTITY@@W4LIST_TYPES@@@Z:PROC ; delete_local_entity_from_parents_child_list
EXTRN	?unlink_local_entity_children@@YGXPAUENTITY@@W4LIST_TYPES@@@Z:PROC ; unlink_local_entity_children
EXTRN	?destroy_local_entity@@YGXPAUENTITY@@@Z:PROC	; destroy_local_entity
EXTRN	?destroy_local_entity_children@@YGXPAUENTITY@@W4LIST_TYPES@@@Z:PROC ; destroy_local_entity_children
EXTRN	?destroy_client_server_entity_children@@YGXPAUENTITY@@W4LIST_TYPES@@@Z:PROC ; destroy_client_server_entity_children
EXTRN	?transmit_entity_comms_message@@YAXW4ENTITY_COMMS_MESSAGES@@PAUENTITY@@ZZ:PROC ; transmit_entity_comms_message
EXTRN	?assert_client_server_local_fn@@YGHXZ:PROC	; assert_client_server_local_fn
EXTRN	?assert_client_server_remote_fn@@YGHXZ:PROC	; assert_client_server_remote_fn
EXTRN	?set_free_entity@@YGXPAUENTITY@@@Z:PROC		; set_free_entity
EXTRN	?set_local_fixed_wing_afterburner_state@@YGXPAUENTITY@@H@Z:PROC ; set_local_fixed_wing_afterburner_state
EXTRN	?damage_fixed_wing_3d_object@@YGXPAUENTITY@@@Z:PROC ; damage_fixed_wing_3d_object
EXTRN	?fixed_wing_impact_movement@@YGXPAUENTITY@@@Z:PROC ; fixed_wing_impact_movement
EXTRN	?calculate_mobile_death_timer_value@@YGMPAUENTITY@@@Z:PROC ; calculate_mobile_death_timer_value
EXTRN	?create_client_server_object_killed_explosion_effect@@YGXPAUENTITY@@@Z:PROC ; create_client_server_object_killed_explosion_effect
EXTRN	?notify_speech_buffers_entity_killed@@YGXPAUENTITY@@@Z:PROC ; notify_speech_buffers_entity_killed
EXTRN	?kill_local_entity_sound_type@@YGXPAUENTITY@@H@Z:PROC ; kill_local_entity_sound_type
EXTRN	?destroy_local_sound_effects@@YGXPAUENTITY@@@Z:PROC ; destroy_local_sound_effects
EXTRN	?destroy_client_server_sound_effects@@YGXPAUENTITY@@@Z:PROC ; destroy_client_server_sound_effects
EXTRN	?create_client_server_sound_effect_entity@@YGPAUENTITY@@PAU1@W4ENTITY_SIDES@@HW4SOUND_CHANNEL_TYPES@@W4SOUND_LOCALITY_TYPES@@PAUVEC3D@@MMHHHPAH@Z:PROC ; create_client_server_sound_effect_entity
EXTRN	?get_local_force_entity@@YGPAUENTITY@@W4ENTITY_SIDES@@@Z:PROC ; get_local_force_entity
EXTRN	?remove_from_force_info@@YGXPAUENTITY@@0@Z:PROC	; remove_from_force_info
EXTRN	?destroy_debug_entity_landing_route_check@@YGXPAUENTITY@@@Z:PROC ; destroy_debug_entity_landing_route_check
EXTRN	?release_mobile_entity_landing_locks@@YGXPAUENTITY@@@Z:PROC ; release_mobile_entity_landing_locks
EXTRN	?add_entity_to_regen_queue@@YGXW4ENTITY_SIDES@@W4ENTITY_TYPES@@HH@Z:PROC ; add_entity_to_regen_queue
EXTRN	?remove_mobile_values_from_sector@@YGXPAUENTITY@@0@Z:PROC ; remove_mobile_values_from_sector
EXTRN	?get_local_group_primary_task@@YGPAUENTITY@@PAU1@@Z:PROC ; get_local_group_primary_task
EXTRN	?notify_campaign_screen@@YGHW4CAMPAIGN_SCREEN_MESSAGES@@PAUENTITY@@@Z:PROC ; notify_campaign_screen
EXTRN	?write_tacview_unit_event@@YGXPAUENTITY@@W4tacview_event_type@@0@Z:PROC ; write_tacview_unit_event
EXTRN	?game_status@@3W4GAME_STATUS_TYPES@@A:DWORD	; game_status
EXTRN	?null_entity_pointer_message@@3PBDB:DWORD	; null_entity_pointer_message
EXTRN	?system_comms_model@@3W4COMMS_MODEL_TYPES@@A:DWORD ; system_comms_model
EXTRN	?system_comms_data_flow@@3W4COMMS_DATA_FLOW_TYPES@@A:DWORD ; system_comms_data_flow
EXTRN	?overload_invalid_list_type_message@@3PBDB:DWORD ; overload_invalid_list_type_message
EXTRN	?fn_get_local_entity_first_child@@3PAY0CN@P6GPAUENTITY@@PAU1@W4LIST_TYPES@@@ZA:BYTE ; fn_get_local_entity_first_child
EXTRN	?fn_get_local_entity_parent@@3PAY0CN@P6GPAUENTITY@@PAU1@W4LIST_TYPES@@@ZA:BYTE ; fn_get_local_entity_parent
EXTRN	?fn_get_local_entity_child_succ@@3PAY0CN@P6GPAUENTITY@@PAU1@W4LIST_TYPES@@@ZA:BYTE ; fn_get_local_entity_child_succ
EXTRN	?fn_destroy_local_entity@@3PAP6GXPAUENTITY@@@ZA:BYTE ; fn_destroy_local_entity
EXTRN	?fn_destroy_client_server_entity@@3PAY01P6GXPAUENTITY@@@ZA:BYTE ; fn_destroy_client_server_entity
EXTRN	?fn_destroy_local_entity_family@@3PAP6GXPAUENTITY@@@ZA:BYTE ; fn_destroy_local_entity_family
EXTRN	?fn_destroy_client_server_entity_family@@3PAY01P6GXPAUENTITY@@@ZA:BYTE ; fn_destroy_client_server_entity_family
EXTRN	?fn_kill_local_entity@@3PAP6GXPAUENTITY@@@ZA:BYTE ; fn_kill_local_entity
EXTRN	?fn_kill_client_server_entity@@3PAY01P6GXPAUENTITY@@@ZA:BYTE ; fn_kill_client_server_entity
EXTRN	?overload_invalid_float_type_message@@3PBDB:DWORD ; overload_invalid_float_type_message
EXTRN	?fn_set_local_entity_float_value@@3PAY0KP@P6GXPAUENTITY@@W4FLOAT_TYPES@@M@ZA:BYTE ; fn_set_local_entity_float_value
EXTRN	?overload_invalid_int_type_message@@3PBDB:DWORD	; overload_invalid_int_type_message
EXTRN	?fn_set_local_entity_int_value@@3PAY0BBH@P6GXPAUENTITY@@W4INT_TYPES@@H@ZA:BYTE ; fn_set_local_entity_int_value
EXTRN	?fn_get_local_entity_int_value@@3PAY0BBH@P6GHPAUENTITY@@W4INT_TYPES@@@ZA:BYTE ; fn_get_local_entity_int_value
EXTRN	?overload_invalid_vec3d_type_message@@3PBDB:DWORD ; overload_invalid_vec3d_type_message
EXTRN	?fn_get_local_entity_vec3d_ptr@@3PAY0BI@P6GPAUVEC3D@@PAUENTITY@@W4VEC3D_TYPES@@@ZA:BYTE ; fn_get_local_entity_vec3d_ptr
EXTRN	?tacview_log_file@@3PAU_iobuf@@A:DWORD		; tacview_log_file
EXTRN	__fltused:DWORD
;	COMDAT __real@3f800000
CONST	SEGMENT
__real@3f800000 DD 03f800000r			; 1
CONST	ENDS
;	COMDAT ?__LINE__Var@?0??kill_client@@YGXPAUENTITY@@@Z@4JA
_DATA	SEGMENT
?__LINE__Var@?0??kill_client@@YGXPAUENTITY@@@Z@4JA DD 027bH ; `kill_client'::`1'::__LINE__Var
_DATA	ENDS
;	COMDAT ?__LINE__Var@?0??kill_server@@YGXPAUENTITY@@@Z@4JA
_DATA	SEGMENT
?__LINE__Var@?0??kill_server@@YGXPAUENTITY@@@Z@4JA DD 0264H ; `kill_server'::`1'::__LINE__Var
_DATA	ENDS
;	COMDAT ??_C@_05MGJOOGAJ@group@
CONST	SEGMENT
??_C@_05MGJOOGAJ@group@ DB 'group', 00H			; `string'
CONST	ENDS
;	COMDAT ?__LINE__Var@?0??kill_local@@YGXPAUENTITY@@@Z@4JA
_DATA	SEGMENT
?__LINE__Var@?0??kill_local@@YGXPAUENTITY@@@Z@4JA DD 0133H ; `kill_local'::`1'::__LINE__Var
_DATA	ENDS
;	COMDAT ?__LINE__Var@?0??destroy_server_family@@YGXPAUENTITY@@@Z@4JA
_DATA	SEGMENT
?__LINE__Var@?0??destroy_server_family@@YGXPAUENTITY@@@Z@4JA DD 0117H ; `destroy_server_family'::`1'::__LINE__Var
_DATA	ENDS
;	COMDAT ?__LINE__Var@?0??destroy_client@@YGXPAUENTITY@@@Z@4JA
_DATA	SEGMENT
?__LINE__Var@?0??destroy_client@@YGXPAUENTITY@@@Z@4JA DD 0f2H ; `destroy_client'::`1'::__LINE__Var
_DATA	ENDS
;	COMDAT ??_C@_0CB@CFOCLFOK@assert_client_server_local_fn?5?$CI@
CONST	SEGMENT
??_C@_0CB@CFOCLFOK@assert_client_server_local_fn?5?$CI@ DB 'assert_client'
	DB	'_server_local_fn ()', 00H			; `string'
CONST	ENDS
;	COMDAT ??_C@_0CC@BNNNEGEG@assert_client_server_remote_fn?5@
CONST	SEGMENT
??_C@_0CC@BNNNEGEG@assert_client_server_remote_fn?5@ DB 'assert_client_se'
	DB	'rver_remote_fn ()', 00H			; `string'
CONST	ENDS
;	COMDAT ?__LINE__Var@?0??destroy_server@@YGXPAUENTITY@@@Z@4JA
_DATA	SEGMENT
?__LINE__Var@?0??destroy_server@@YGXPAUENTITY@@@Z@4JA DD 0dbH ; `destroy_server'::`1'::__LINE__Var
_DATA	ENDS
;	COMDAT ??_C@_0DB@EMHJHKIB@?$CBget_local_entity_int_value?5?$CIen@
CONST	SEGMENT
??_C@_0DB@EMHJHKIB@?$CBget_local_entity_int_value?5?$CIen@ DB '!get_local'
	DB	'_entity_int_value (en, INT_TYPE_ALIVE)', 00H ; `string'
CONST	ENDS
;	COMDAT ??_C@_0FG@HCJPIALE@c?3?2users?2nhv90?2projects?2eech?2ap@
CONST	SEGMENT
??_C@_0FG@HCJPIALE@c?3?2users?2nhv90?2projects?2eech?2ap@ DB 'c:\users\nh'
	DB	'v90\projects\eech\aphavoc\source\entity\mobile\aircraft\fixwi'
	DB	'ng\fw_dstry.c', 00H				; `string'
CONST	ENDS
;	COMDAT ?__LINE__Var@?0??destroy_local@@YGXPAUENTITY@@@Z@4JA
_DATA	SEGMENT
?__LINE__Var@?0??destroy_local@@YGXPAUENTITY@@@Z@4JA DD 054H ; `destroy_local'::`1'::__LINE__Var
_DATA	ENDS
; Function compile flags: /Odtp /ZI
; File c:\users\nhv90\projects\eech\aphavoc\source\entity\mobile\aircraft\fixwing\fw_dstry.c
;	COMDAT ?kill_client@@YGXPAUENTITY@@@Z
_TEXT	SEGMENT
tv84 = -68						; size = 4
_en$ = 8						; size = 4
?kill_client@@YGXPAUENTITY@@@Z PROC			; kill_client, COMDAT

; 635  : {

  00000	55		 push	 ebp
  00001	8b ec		 mov	 ebp, esp
  00003	83 ec 44	 sub	 esp, 68			; 00000044H
  00006	53		 push	 ebx
  00007	56		 push	 esi
  00008	57		 push	 edi

; 636  : 	if (get_comms_data_flow () == COMMS_DATA_FLOW_TX)

  00009	83 3d 00 00 00
	00 00		 cmp	 DWORD PTR ?system_comms_data_flow@@3W4COMMS_DATA_FLOW_TYPES@@A, 0 ; system_comms_data_flow
  00010	75 2c		 jne	 SHORT $LN2@kill_clien

; 637  : 	{
; 638  : 		validate_client_server_remote_fn ();

  00012	e8 00 00 00 00	 call	 ?assert_client_server_remote_fn@@YGHXZ ; assert_client_server_remote_fn
  00017	85 c0		 test	 eax, eax
  00019	75 18		 jne	 SHORT $LN4@kill_clien
  0001b	a1 00 00 00 00	 mov	 eax, DWORD PTR ?__LINE__Var@?0??kill_client@@YGXPAUENTITY@@@Z@4JA
  00020	83 c0 03	 add	 eax, 3
  00023	50		 push	 eax
  00024	68 00 00 00 00	 push	 OFFSET ??_C@_0FG@HCJPIALE@c?3?2users?2nhv90?2projects?2eech?2ap@
  00029	68 00 00 00 00	 push	 OFFSET ??_C@_0CC@BNNNEGEG@assert_client_server_remote_fn?5@
  0002e	e8 00 00 00 00	 call	 ?process_assert@@YGXPBD0H@Z ; process_assert
$LN4@kill_clien:

; 639  : 
; 640  : 		kill_remote (en);

  00033	8b 45 08	 mov	 eax, DWORD PTR _en$[ebp]
  00036	50		 push	 eax
  00037	e8 00 00 00 00	 call	 ?kill_remote@@YGXPAUENTITY@@@Z ; kill_remote

; 641  : 	}
; 642  : 	else

  0003c	eb 62		 jmp	 SHORT $LN1@kill_clien
$LN2@kill_clien:

; 643  : 	{
; 644  : 		validate_client_server_local_fn ();

  0003e	e8 00 00 00 00	 call	 ?assert_client_server_local_fn@@YGHXZ ; assert_client_server_local_fn
  00043	85 c0		 test	 eax, eax
  00045	75 18		 jne	 SHORT $LN5@kill_clien
  00047	a1 00 00 00 00	 mov	 eax, DWORD PTR ?__LINE__Var@?0??kill_client@@YGXPAUENTITY@@@Z@4JA
  0004c	83 c0 09	 add	 eax, 9
  0004f	50		 push	 eax
  00050	68 00 00 00 00	 push	 OFFSET ??_C@_0FG@HCJPIALE@c?3?2users?2nhv90?2projects?2eech?2ap@
  00055	68 00 00 00 00	 push	 OFFSET ??_C@_0CB@CFOCLFOK@assert_client_server_local_fn?5?$CI@
  0005a	e8 00 00 00 00	 call	 ?process_assert@@YGXPBD0H@Z ; process_assert
$LN5@kill_clien:

; 645  : 
; 646  : 		//
; 647  : 		// kill local using 'full' function
; 648  : 		//
; 649  : 
; 650  : 		kill_local_entity (en);

  0005f	83 7d 08 00	 cmp	 DWORD PTR _en$[ebp], 0
  00063	74 0a		 je	 SHORT $LN7@kill_clien
  00065	8b 45 08	 mov	 eax, DWORD PTR _en$[ebp]
  00068	8b 08		 mov	 ecx, DWORD PTR [eax]
  0006a	89 4d bc	 mov	 DWORD PTR tv84[ebp], ecx
  0006d	eb 21		 jmp	 SHORT $LN8@kill_clien
$LN7@kill_clien:
  0006f	8b 15 00 00 00
	00		 mov	 edx, DWORD PTR ?__LINE__Var@?0??kill_client@@YGXPAUENTITY@@@Z@4JA
  00075	83 c2 0f	 add	 edx, 15			; 0000000fH
  00078	52		 push	 edx
  00079	68 00 00 00 00	 push	 OFFSET ??_C@_0FG@HCJPIALE@c?3?2users?2nhv90?2projects?2eech?2ap@
  0007e	a1 00 00 00 00	 mov	 eax, DWORD PTR ?null_entity_pointer_message@@3PBDB ; null_entity_pointer_message
  00083	50		 push	 eax
  00084	e8 00 00 00 00	 call	 ?process_assert@@YGXPBD0H@Z ; process_assert
  00089	c7 45 bc 00 00
	00 00		 mov	 DWORD PTR tv84[ebp], 0
$LN8@kill_clien:
  00090	8b 4d 08	 mov	 ecx, DWORD PTR _en$[ebp]
  00093	51		 push	 ecx
  00094	8b 55 bc	 mov	 edx, DWORD PTR tv84[ebp]
  00097	8b 04 95 00 00
	00 00		 mov	 eax, DWORD PTR ?fn_kill_local_entity@@3PAP6GXPAUENTITY@@@ZA[edx*4]
  0009e	ff d0		 call	 eax
$LN1@kill_clien:

; 651  : 	}
; 652  : }

  000a0	5f		 pop	 edi
  000a1	5e		 pop	 esi
  000a2	5b		 pop	 ebx
  000a3	8b e5		 mov	 esp, ebp
  000a5	5d		 pop	 ebp
  000a6	c2 04 00	 ret	 4
?kill_client@@YGXPAUENTITY@@@Z ENDP			; kill_client
_TEXT	ENDS
; Function compile flags: /Odtp /ZI
; File c:\users\nhv90\projects\eech\aphavoc\source\entity\mobile\aircraft\fixwing\fw_dstry.c
;	COMDAT ?kill_server@@YGXPAUENTITY@@@Z
_TEXT	SEGMENT
tv83 = -68						; size = 4
_en$ = 8						; size = 4
?kill_server@@YGXPAUENTITY@@@Z PROC			; kill_server, COMDAT

; 612  : {

  00000	55		 push	 ebp
  00001	8b ec		 mov	 ebp, esp
  00003	83 ec 44	 sub	 esp, 68			; 00000044H
  00006	53		 push	 ebx
  00007	56		 push	 esi
  00008	57		 push	 edi

; 613  : 	//
; 614  : 	// kill remote entity first (keeping local entity valid)
; 615  : 	//
; 616  : 
; 617  : 	validate_client_server_remote_fn ();

  00009	e8 00 00 00 00	 call	 ?assert_client_server_remote_fn@@YGHXZ ; assert_client_server_remote_fn
  0000e	85 c0		 test	 eax, eax
  00010	75 18		 jne	 SHORT $LN2@kill_serve
  00012	a1 00 00 00 00	 mov	 eax, DWORD PTR ?__LINE__Var@?0??kill_server@@YGXPAUENTITY@@@Z@4JA
  00017	83 c0 05	 add	 eax, 5
  0001a	50		 push	 eax
  0001b	68 00 00 00 00	 push	 OFFSET ??_C@_0FG@HCJPIALE@c?3?2users?2nhv90?2projects?2eech?2ap@
  00020	68 00 00 00 00	 push	 OFFSET ??_C@_0CC@BNNNEGEG@assert_client_server_remote_fn?5@
  00025	e8 00 00 00 00	 call	 ?process_assert@@YGXPBD0H@Z ; process_assert
$LN2@kill_serve:

; 618  : 
; 619  : 	kill_remote (en);

  0002a	8b 45 08	 mov	 eax, DWORD PTR _en$[ebp]
  0002d	50		 push	 eax
  0002e	e8 00 00 00 00	 call	 ?kill_remote@@YGXPAUENTITY@@@Z ; kill_remote

; 620  : 
; 621  : 	validate_client_server_local_fn ();

  00033	e8 00 00 00 00	 call	 ?assert_client_server_local_fn@@YGHXZ ; assert_client_server_local_fn
  00038	85 c0		 test	 eax, eax
  0003a	75 18		 jne	 SHORT $LN3@kill_serve
  0003c	a1 00 00 00 00	 mov	 eax, DWORD PTR ?__LINE__Var@?0??kill_server@@YGXPAUENTITY@@@Z@4JA
  00041	83 c0 09	 add	 eax, 9
  00044	50		 push	 eax
  00045	68 00 00 00 00	 push	 OFFSET ??_C@_0FG@HCJPIALE@c?3?2users?2nhv90?2projects?2eech?2ap@
  0004a	68 00 00 00 00	 push	 OFFSET ??_C@_0CB@CFOCLFOK@assert_client_server_local_fn?5?$CI@
  0004f	e8 00 00 00 00	 call	 ?process_assert@@YGXPBD0H@Z ; process_assert
$LN3@kill_serve:

; 622  : 
; 623  : 	//
; 624  : 	// kill local using 'full' function
; 625  : 	//
; 626  : 
; 627  : 	kill_local_entity (en);

  00054	83 7d 08 00	 cmp	 DWORD PTR _en$[ebp], 0
  00058	74 0a		 je	 SHORT $LN5@kill_serve
  0005a	8b 45 08	 mov	 eax, DWORD PTR _en$[ebp]
  0005d	8b 08		 mov	 ecx, DWORD PTR [eax]
  0005f	89 4d bc	 mov	 DWORD PTR tv83[ebp], ecx
  00062	eb 21		 jmp	 SHORT $LN6@kill_serve
$LN5@kill_serve:
  00064	8b 15 00 00 00
	00		 mov	 edx, DWORD PTR ?__LINE__Var@?0??kill_server@@YGXPAUENTITY@@@Z@4JA
  0006a	83 c2 0f	 add	 edx, 15			; 0000000fH
  0006d	52		 push	 edx
  0006e	68 00 00 00 00	 push	 OFFSET ??_C@_0FG@HCJPIALE@c?3?2users?2nhv90?2projects?2eech?2ap@
  00073	a1 00 00 00 00	 mov	 eax, DWORD PTR ?null_entity_pointer_message@@3PBDB ; null_entity_pointer_message
  00078	50		 push	 eax
  00079	e8 00 00 00 00	 call	 ?process_assert@@YGXPBD0H@Z ; process_assert
  0007e	c7 45 bc 00 00
	00 00		 mov	 DWORD PTR tv83[ebp], 0
$LN6@kill_serve:
  00085	8b 4d 08	 mov	 ecx, DWORD PTR _en$[ebp]
  00088	51		 push	 ecx
  00089	8b 55 bc	 mov	 edx, DWORD PTR tv83[ebp]
  0008c	8b 04 95 00 00
	00 00		 mov	 eax, DWORD PTR ?fn_kill_local_entity@@3PAP6GXPAUENTITY@@@ZA[edx*4]
  00093	ff d0		 call	 eax

; 628  : }

  00095	5f		 pop	 edi
  00096	5e		 pop	 esi
  00097	5b		 pop	 ebx
  00098	8b e5		 mov	 esp, ebp
  0009a	5d		 pop	 ebp
  0009b	c2 04 00	 ret	 4
?kill_server@@YGXPAUENTITY@@@Z ENDP			; kill_server
_TEXT	ENDS
; Function compile flags: /Odtp /ZI
; File c:\users\nhv90\projects\eech\aphavoc\source\entity\mobile\aircraft\fixwing\fw_dstry.c
;	COMDAT ?kill_remote@@YGXPAUENTITY@@@Z
_TEXT	SEGMENT
_en$ = 8						; size = 4
?kill_remote@@YGXPAUENTITY@@@Z PROC			; kill_remote, COMDAT

; 597  : {

  00000	55		 push	 ebp
  00001	8b ec		 mov	 ebp, esp
  00003	83 ec 40	 sub	 esp, 64			; 00000040H
  00006	53		 push	 ebx
  00007	56		 push	 esi
  00008	57		 push	 edi

; 598  : 	#if DEBUG_MODULE >= 2
; 599  : 
; 600  : 	debug_log_entity_args (ENTITY_DEBUG_REMOTE, ENTITY_DEBUG_KILL, en);
; 601  : 
; 602  : 	#endif
; 603  : 
; 604  : 	transmit_entity_comms_message (ENTITY_COMMS_KILL, en);

  00009	8b 45 08	 mov	 eax, DWORD PTR _en$[ebp]
  0000c	50		 push	 eax
  0000d	6a 18		 push	 24			; 00000018H
  0000f	e8 00 00 00 00	 call	 ?transmit_entity_comms_message@@YAXW4ENTITY_COMMS_MESSAGES@@PAUENTITY@@ZZ ; transmit_entity_comms_message
  00014	83 c4 08	 add	 esp, 8

; 605  : }

  00017	5f		 pop	 edi
  00018	5e		 pop	 esi
  00019	5b		 pop	 ebx
  0001a	8b e5		 mov	 esp, ebp
  0001c	5d		 pop	 ebp
  0001d	c2 04 00	 ret	 4
?kill_remote@@YGXPAUENTITY@@@Z ENDP			; kill_remote
_TEXT	ENDS
; Function compile flags: /Odtp /ZI
; File c:\users\nhv90\projects\eech\aphavoc\source\entity\mobile\aircraft\fixwing\fw_dstry.c
;	COMDAT ?kill_local@@YGXPAUENTITY@@@Z
_TEXT	SEGMENT
tv219 = -120						; size = 4
tv211 = -116						; size = 4
tv203 = -112						; size = 4
tv190 = -108						; size = 4
tv636 = -104						; size = 4
tv182 = -104						; size = 4
tv491 = -100						; size = 4
tv460 = -100						; size = 4
tv439 = -100						; size = 4
tv416 = -100						; size = 4
tv395 = -100						; size = 4
tv375 = -100						; size = 4
tv354 = -100						; size = 4
tv329 = -100						; size = 4
tv309 = -100						; size = 4
tv261 = -100						; size = 4
tv240 = -100						; size = 4
tv169 = -100						; size = 4
tv130 = -100						; size = 4
tv76 = -100						; size = 4
tv483 = -96						; size = 4
tv452 = -96						; size = 4
tv431 = -96						; size = 4
tv408 = -96						; size = 4
tv387 = -96						; size = 4
tv367 = -96						; size = 4
tv346 = -96						; size = 4
tv321 = -96						; size = 4
tv301 = -96						; size = 4
tv253 = -96						; size = 4
tv232 = -96						; size = 4
tv161 = -96						; size = 4
tv90 = -96						; size = 4
tv69 = -96						; size = 4
_sound_sample_index$1 = -28				; size = 4
_position$2 = -24					; size = 4
_raw$ = -20						; size = 4
_destroy_task$ = -16					; size = 4
_group$ = -12						; size = 4
_task$ = -8						; size = 4
_losses$ = -4						; size = 4
_en$ = 8						; size = 4
?kill_local@@YGXPAUENTITY@@@Z PROC			; kill_local, COMDAT

; 307  : {

  00000	55		 push	 ebp
  00001	8b ec		 mov	 ebp, esp
  00003	83 ec 78	 sub	 esp, 120		; 00000078H
  00006	53		 push	 ebx
  00007	56		 push	 esi
  00008	57		 push	 edi

; 308  : 
; 309  : 	int
; 310  : 		losses;
; 311  : 
; 312  : 	entity
; 313  : 		*task,
; 314  : 		*group,
; 315  : 		*destroy_task;
; 316  : 
; 317  : 	fixed_wing
; 318  : 		*raw;
; 319  : 
; 320  : 	////////////////////////////////////////
; 321  : 	//
; 322  : 	// PRE-AMBLE
; 323  : 	//
; 324  : 	////////////////////////////////////////
; 325  : 
; 326  : 	#if DEBUG_MODULE >= 2
; 327  : 
; 328  : 	debug_log_entity_args (ENTITY_DEBUG_LOCAL, ENTITY_DEBUG_KILL, en);
; 329  : 
; 330  : 	#endif
; 331  : 
; 332  : 	if (!get_local_entity_int_value (en, INT_TYPE_ALIVE))

  00009	83 7d 08 00	 cmp	 DWORD PTR _en$[ebp], 0
  0000d	74 0a		 je	 SHORT $LN13@kill_local
  0000f	8b 45 08	 mov	 eax, DWORD PTR _en$[ebp]
  00012	8b 08		 mov	 ecx, DWORD PTR [eax]
  00014	89 4d a0	 mov	 DWORD PTR tv69[ebp], ecx
  00017	eb 1d		 jmp	 SHORT $LN14@kill_local
$LN13@kill_local:
  00019	68 4c 01 00 00	 push	 332			; 0000014cH
  0001e	68 00 00 00 00	 push	 OFFSET ??_C@_0FG@HCJPIALE@c?3?2users?2nhv90?2projects?2eech?2ap@
  00023	8b 15 00 00 00
	00		 mov	 edx, DWORD PTR ?null_entity_pointer_message@@3PBDB ; null_entity_pointer_message
  00029	52		 push	 edx
  0002a	e8 00 00 00 00	 call	 ?process_assert@@YGXPBD0H@Z ; process_assert
  0002f	c7 45 a0 00 00
	00 00		 mov	 DWORD PTR tv69[ebp], 0
$LN14@kill_local:
  00036	b8 01 00 00 00	 mov	 eax, 1
  0003b	85 c0		 test	 eax, eax
  0003d	74 09		 je	 SHORT $LN15@kill_local
  0003f	c7 45 9c 07 00
	00 00		 mov	 DWORD PTR tv76[ebp], 7
  00046	eb 1d		 jmp	 SHORT $LN16@kill_local
$LN15@kill_local:
  00048	68 4c 01 00 00	 push	 332			; 0000014cH
  0004d	68 00 00 00 00	 push	 OFFSET ??_C@_0FG@HCJPIALE@c?3?2users?2nhv90?2projects?2eech?2ap@
  00052	8b 0d 00 00 00
	00		 mov	 ecx, DWORD PTR ?overload_invalid_int_type_message@@3PBDB ; overload_invalid_int_type_message
  00058	51		 push	 ecx
  00059	e8 00 00 00 00	 call	 ?process_assert@@YGXPBD0H@Z ; process_assert
  0005e	c7 45 9c 00 00
	00 00		 mov	 DWORD PTR tv76[ebp], 0
$LN16@kill_local:
  00065	6a 07		 push	 7
  00067	8b 55 08	 mov	 edx, DWORD PTR _en$[ebp]
  0006a	52		 push	 edx
  0006b	69 45 a0 5c 04
	00 00		 imul	 eax, DWORD PTR tv69[ebp], 1116
  00072	8b 4d 9c	 mov	 ecx, DWORD PTR tv76[ebp]
  00075	8b 94 88 00 00
	00 00		 mov	 edx, DWORD PTR ?fn_get_local_entity_int_value@@3PAY0BBH@P6GHPAUENTITY@@W4INT_TYPES@@@ZA[eax+ecx*4]
  0007c	ff d2		 call	 edx
  0007e	85 c0		 test	 eax, eax
  00080	75 05		 jne	 SHORT $LN4@kill_local

; 333  : 	{
; 334  : 		return;

  00082	e9 e9 09 00 00	 jmp	 $LN1@kill_local
$LN4@kill_local:

; 335  : 	}
; 336  : 
; 337  : 	raw = (fixed_wing *) get_local_entity_data (en);

  00087	8b 45 08	 mov	 eax, DWORD PTR _en$[ebp]
  0008a	8b 48 04	 mov	 ecx, DWORD PTR [eax+4]
  0008d	89 4d ec	 mov	 DWORD PTR _raw$[ebp], ecx

; 338  : 
; 339  : 	group = get_local_entity_parent (en, LIST_TYPE_MEMBER);

  00090	83 7d 08 00	 cmp	 DWORD PTR _en$[ebp], 0
  00094	74 0a		 je	 SHORT $LN17@kill_local
  00096	8b 45 08	 mov	 eax, DWORD PTR _en$[ebp]
  00099	8b 08		 mov	 ecx, DWORD PTR [eax]
  0009b	89 4d a0	 mov	 DWORD PTR tv90[ebp], ecx
  0009e	eb 21		 jmp	 SHORT $LN18@kill_local
$LN17@kill_local:
  000a0	8b 15 00 00 00
	00		 mov	 edx, DWORD PTR ?__LINE__Var@?0??kill_local@@YGXPAUENTITY@@@Z@4JA
  000a6	83 c2 20	 add	 edx, 32			; 00000020H
  000a9	52		 push	 edx
  000aa	68 00 00 00 00	 push	 OFFSET ??_C@_0FG@HCJPIALE@c?3?2users?2nhv90?2projects?2eech?2ap@
  000af	a1 00 00 00 00	 mov	 eax, DWORD PTR ?null_entity_pointer_message@@3PBDB ; null_entity_pointer_message
  000b4	50		 push	 eax
  000b5	e8 00 00 00 00	 call	 ?process_assert@@YGXPBD0H@Z ; process_assert
  000ba	c7 45 a0 00 00
	00 00		 mov	 DWORD PTR tv90[ebp], 0
$LN18@kill_local:
  000c1	b9 01 00 00 00	 mov	 ecx, 1
  000c6	85 c9		 test	 ecx, ecx
  000c8	74 09		 je	 SHORT $LN19@kill_local
  000ca	c7 45 9c 19 00
	00 00		 mov	 DWORD PTR tv130[ebp], 25 ; 00000019H
  000d1	eb 21		 jmp	 SHORT $LN20@kill_local
$LN19@kill_local:
  000d3	8b 15 00 00 00
	00		 mov	 edx, DWORD PTR ?__LINE__Var@?0??kill_local@@YGXPAUENTITY@@@Z@4JA
  000d9	83 c2 20	 add	 edx, 32			; 00000020H
  000dc	52		 push	 edx
  000dd	68 00 00 00 00	 push	 OFFSET ??_C@_0FG@HCJPIALE@c?3?2users?2nhv90?2projects?2eech?2ap@
  000e2	a1 00 00 00 00	 mov	 eax, DWORD PTR ?overload_invalid_list_type_message@@3PBDB ; overload_invalid_list_type_message
  000e7	50		 push	 eax
  000e8	e8 00 00 00 00	 call	 ?process_assert@@YGXPBD0H@Z ; process_assert
  000ed	c7 45 9c 00 00
	00 00		 mov	 DWORD PTR tv130[ebp], 0
$LN20@kill_local:
  000f4	6a 19		 push	 25			; 00000019H
  000f6	8b 4d 08	 mov	 ecx, DWORD PTR _en$[ebp]
  000f9	51		 push	 ecx
  000fa	69 55 a0 b4 00
	00 00		 imul	 edx, DWORD PTR tv90[ebp], 180
  00101	8b 45 9c	 mov	 eax, DWORD PTR tv130[ebp]
  00104	8b 8c 82 00 00
	00 00		 mov	 ecx, DWORD PTR ?fn_get_local_entity_parent@@3PAY0CN@P6GPAUENTITY@@PAU1@W4LIST_TYPES@@@ZA[edx+eax*4]
  0010b	ff d1		 call	 ecx
  0010d	89 45 f4	 mov	 DWORD PTR _group$[ebp], eax

; 340  : 
; 341  : 	ASSERT (group);

  00110	83 7d f4 00	 cmp	 DWORD PTR _group$[ebp], 0
  00114	75 18		 jne	 SHORT $LN5@kill_local
  00116	a1 00 00 00 00	 mov	 eax, DWORD PTR ?__LINE__Var@?0??kill_local@@YGXPAUENTITY@@@Z@4JA
  0011b	83 c0 22	 add	 eax, 34			; 00000022H
  0011e	50		 push	 eax
  0011f	68 00 00 00 00	 push	 OFFSET ??_C@_0FG@HCJPIALE@c?3?2users?2nhv90?2projects?2eech?2ap@
  00124	68 00 00 00 00	 push	 OFFSET ??_C@_05MGJOOGAJ@group@
  00129	e8 00 00 00 00	 call	 ?process_assert@@YGXPBD0H@Z ; process_assert
$LN5@kill_local:

; 342  : 
; 343  : 	//
; 344  : 	// update force info
; 345  : 	//
; 346  : 
; 347  : 	remove_from_force_info (get_local_force_entity ((entity_sides) raw->ac.mob.side), en);

  0012e	8b 45 08	 mov	 eax, DWORD PTR _en$[ebp]
  00131	50		 push	 eax
  00132	8b 4d ec	 mov	 ecx, DWORD PTR _raw$[ebp]
  00135	8b 51 7c	 mov	 edx, DWORD PTR [ecx+124]
  00138	d1 ea		 shr	 edx, 1
  0013a	83 e2 03	 and	 edx, 3
  0013d	52		 push	 edx
  0013e	e8 00 00 00 00	 call	 ?get_local_force_entity@@YGPAUENTITY@@W4ENTITY_SIDES@@@Z ; get_local_force_entity
  00143	50		 push	 eax
  00144	e8 00 00 00 00	 call	 ?remove_from_force_info@@YGXPAUENTITY@@0@Z ; remove_from_force_info

; 348  : 
; 349  : 	if (tacview_is_logging())

  00149	83 3d 00 00 00
	00 00		 cmp	 DWORD PTR ?tacview_log_file@@3PAU_iobuf@@A, 0 ; tacview_log_file
  00150	74 0d		 je	 SHORT $LN6@kill_local

; 350  : 		write_tacview_unit_event(en, TACVIEW_UNIT_DESTROYED, NULL);

  00152	6a 00		 push	 0
  00154	6a 01		 push	 1
  00156	8b 45 08	 mov	 eax, DWORD PTR _en$[ebp]
  00159	50		 push	 eax
  0015a	e8 00 00 00 00	 call	 ?write_tacview_unit_event@@YGXPAUENTITY@@W4tacview_event_type@@0@Z ; write_tacview_unit_event
$LN6@kill_local:

; 351  : 
; 352  : 	////////////////////////////////////////
; 353  : 	//
; 354  : 	// VALIDATE
; 355  : 	//
; 356  : 	////////////////////////////////////////
; 357  : 
; 358  : 	////////////////////////////////////////
; 359  : 	//
; 360  : 	// SEND NOTIFY MESSAGES
; 361  : 	//
; 362  : 	////////////////////////////////////////
; 363  : 
; 364  : 	if (get_comms_model () == COMMS_MODEL_SERVER)

  0015f	83 3d 00 00 00
	00 00		 cmp	 DWORD PTR ?system_comms_model@@3W4COMMS_MODEL_TYPES@@A, 0 ; system_comms_model
  00166	0f 85 f2 02 00
	00		 jne	 $LN7@kill_local

; 365  : 	{
; 366  : 		// notify regen of kill
; 367  : 
; 368  : 		add_entity_to_regen_queue

  0016c	83 7d f4 00	 cmp	 DWORD PTR _group$[ebp], 0
  00170	74 0a		 je	 SHORT $LN21@kill_local
  00172	8b 45 f4	 mov	 eax, DWORD PTR _group$[ebp]
  00175	8b 08		 mov	 ecx, DWORD PTR [eax]
  00177	89 4d a0	 mov	 DWORD PTR tv161[ebp], ecx
  0017a	eb 21		 jmp	 SHORT $LN22@kill_local
$LN21@kill_local:
  0017c	8b 15 00 00 00
	00		 mov	 edx, DWORD PTR ?__LINE__Var@?0??kill_local@@YGXPAUENTITY@@@Z@4JA
  00182	83 c2 42	 add	 edx, 66			; 00000042H
  00185	52		 push	 edx
  00186	68 00 00 00 00	 push	 OFFSET ??_C@_0FG@HCJPIALE@c?3?2users?2nhv90?2projects?2eech?2ap@
  0018b	a1 00 00 00 00	 mov	 eax, DWORD PTR ?null_entity_pointer_message@@3PBDB ; null_entity_pointer_message
  00190	50		 push	 eax
  00191	e8 00 00 00 00	 call	 ?process_assert@@YGXPBD0H@Z ; process_assert
  00196	c7 45 a0 00 00
	00 00		 mov	 DWORD PTR tv161[ebp], 0
$LN22@kill_local:
  0019d	b9 01 00 00 00	 mov	 ecx, 1
  001a2	85 c9		 test	 ecx, ecx
  001a4	74 09		 je	 SHORT $LN23@kill_local
  001a6	c7 45 9c 34 00
	00 00		 mov	 DWORD PTR tv169[ebp], 52 ; 00000034H
  001ad	eb 21		 jmp	 SHORT $LN24@kill_local
$LN23@kill_local:
  001af	8b 15 00 00 00
	00		 mov	 edx, DWORD PTR ?__LINE__Var@?0??kill_local@@YGXPAUENTITY@@@Z@4JA
  001b5	83 c2 42	 add	 edx, 66			; 00000042H
  001b8	52		 push	 edx
  001b9	68 00 00 00 00	 push	 OFFSET ??_C@_0FG@HCJPIALE@c?3?2users?2nhv90?2projects?2eech?2ap@
  001be	a1 00 00 00 00	 mov	 eax, DWORD PTR ?overload_invalid_int_type_message@@3PBDB ; overload_invalid_int_type_message
  001c3	50		 push	 eax
  001c4	e8 00 00 00 00	 call	 ?process_assert@@YGXPBD0H@Z ; process_assert
  001c9	c7 45 9c 00 00
	00 00		 mov	 DWORD PTR tv169[ebp], 0
$LN24@kill_local:
  001d0	83 7d 08 00	 cmp	 DWORD PTR _en$[ebp], 0
  001d4	74 0a		 je	 SHORT $LN25@kill_local
  001d6	8b 4d 08	 mov	 ecx, DWORD PTR _en$[ebp]
  001d9	8b 11		 mov	 edx, DWORD PTR [ecx]
  001db	89 55 98	 mov	 DWORD PTR tv182[ebp], edx
  001de	eb 21		 jmp	 SHORT $LN26@kill_local
$LN25@kill_local:
  001e0	a1 00 00 00 00	 mov	 eax, DWORD PTR ?__LINE__Var@?0??kill_local@@YGXPAUENTITY@@@Z@4JA
  001e5	83 c0 41	 add	 eax, 65			; 00000041H
  001e8	50		 push	 eax
  001e9	68 00 00 00 00	 push	 OFFSET ??_C@_0FG@HCJPIALE@c?3?2users?2nhv90?2projects?2eech?2ap@
  001ee	8b 0d 00 00 00
	00		 mov	 ecx, DWORD PTR ?null_entity_pointer_message@@3PBDB ; null_entity_pointer_message
  001f4	51		 push	 ecx
  001f5	e8 00 00 00 00	 call	 ?process_assert@@YGXPBD0H@Z ; process_assert
  001fa	c7 45 98 00 00
	00 00		 mov	 DWORD PTR tv182[ebp], 0
$LN26@kill_local:
  00201	ba 01 00 00 00	 mov	 edx, 1
  00206	85 d2		 test	 edx, edx
  00208	74 09		 je	 SHORT $LN27@kill_local
  0020a	c7 45 94 34 00
	00 00		 mov	 DWORD PTR tv190[ebp], 52 ; 00000034H
  00211	eb 21		 jmp	 SHORT $LN28@kill_local
$LN27@kill_local:
  00213	a1 00 00 00 00	 mov	 eax, DWORD PTR ?__LINE__Var@?0??kill_local@@YGXPAUENTITY@@@Z@4JA
  00218	83 c0 41	 add	 eax, 65			; 00000041H
  0021b	50		 push	 eax
  0021c	68 00 00 00 00	 push	 OFFSET ??_C@_0FG@HCJPIALE@c?3?2users?2nhv90?2projects?2eech?2ap@
  00221	8b 0d 00 00 00
	00		 mov	 ecx, DWORD PTR ?overload_invalid_int_type_message@@3PBDB ; overload_invalid_int_type_message
  00227	51		 push	 ecx
  00228	e8 00 00 00 00	 call	 ?process_assert@@YGXPBD0H@Z ; process_assert
  0022d	c7 45 94 00 00
	00 00		 mov	 DWORD PTR tv190[ebp], 0
$LN28@kill_local:
  00234	83 7d 08 00	 cmp	 DWORD PTR _en$[ebp], 0
  00238	74 0a		 je	 SHORT $LN29@kill_local
  0023a	8b 55 08	 mov	 edx, DWORD PTR _en$[ebp]
  0023d	8b 02		 mov	 eax, DWORD PTR [edx]
  0023f	89 45 90	 mov	 DWORD PTR tv203[ebp], eax
  00242	eb 22		 jmp	 SHORT $LN30@kill_local
$LN29@kill_local:
  00244	8b 0d 00 00 00
	00		 mov	 ecx, DWORD PTR ?__LINE__Var@?0??kill_local@@YGXPAUENTITY@@@Z@4JA
  0024a	83 c1 40	 add	 ecx, 64			; 00000040H
  0024d	51		 push	 ecx
  0024e	68 00 00 00 00	 push	 OFFSET ??_C@_0FG@HCJPIALE@c?3?2users?2nhv90?2projects?2eech?2ap@
  00253	8b 15 00 00 00
	00		 mov	 edx, DWORD PTR ?null_entity_pointer_message@@3PBDB ; null_entity_pointer_message
  00259	52		 push	 edx
  0025a	e8 00 00 00 00	 call	 ?process_assert@@YGXPBD0H@Z ; process_assert
  0025f	c7 45 90 00 00
	00 00		 mov	 DWORD PTR tv203[ebp], 0
$LN30@kill_local:
  00266	83 7d 08 00	 cmp	 DWORD PTR _en$[ebp], 0
  0026a	74 0a		 je	 SHORT $LN31@kill_local
  0026c	8b 45 08	 mov	 eax, DWORD PTR _en$[ebp]
  0026f	8b 08		 mov	 ecx, DWORD PTR [eax]
  00271	89 4d 8c	 mov	 DWORD PTR tv211[ebp], ecx
  00274	eb 21		 jmp	 SHORT $LN32@kill_local
$LN31@kill_local:
  00276	8b 15 00 00 00
	00		 mov	 edx, DWORD PTR ?__LINE__Var@?0??kill_local@@YGXPAUENTITY@@@Z@4JA
  0027c	83 c2 3f	 add	 edx, 63			; 0000003fH
  0027f	52		 push	 edx
  00280	68 00 00 00 00	 push	 OFFSET ??_C@_0FG@HCJPIALE@c?3?2users?2nhv90?2projects?2eech?2ap@
  00285	a1 00 00 00 00	 mov	 eax, DWORD PTR ?null_entity_pointer_message@@3PBDB ; null_entity_pointer_message
  0028a	50		 push	 eax
  0028b	e8 00 00 00 00	 call	 ?process_assert@@YGXPBD0H@Z ; process_assert
  00290	c7 45 8c 00 00
	00 00		 mov	 DWORD PTR tv211[ebp], 0
$LN32@kill_local:
  00297	b9 01 00 00 00	 mov	 ecx, 1
  0029c	85 c9		 test	 ecx, ecx
  0029e	74 09		 je	 SHORT $LN33@kill_local
  002a0	c7 45 88 bb 00
	00 00		 mov	 DWORD PTR tv219[ebp], 187 ; 000000bbH
  002a7	eb 21		 jmp	 SHORT $LN34@kill_local
$LN33@kill_local:
  002a9	8b 15 00 00 00
	00		 mov	 edx, DWORD PTR ?__LINE__Var@?0??kill_local@@YGXPAUENTITY@@@Z@4JA
  002af	83 c2 3f	 add	 edx, 63			; 0000003fH
  002b2	52		 push	 edx
  002b3	68 00 00 00 00	 push	 OFFSET ??_C@_0FG@HCJPIALE@c?3?2users?2nhv90?2projects?2eech?2ap@
  002b8	a1 00 00 00 00	 mov	 eax, DWORD PTR ?overload_invalid_int_type_message@@3PBDB ; overload_invalid_int_type_message
  002bd	50		 push	 eax
  002be	e8 00 00 00 00	 call	 ?process_assert@@YGXPBD0H@Z ; process_assert
  002c3	c7 45 88 00 00
	00 00		 mov	 DWORD PTR tv219[ebp], 0
$LN34@kill_local:
  002ca	6a 34		 push	 52			; 00000034H
  002cc	8b 4d f4	 mov	 ecx, DWORD PTR _group$[ebp]
  002cf	51		 push	 ecx
  002d0	69 55 a0 5c 04
	00 00		 imul	 edx, DWORD PTR tv161[ebp], 1116
  002d7	8b 45 9c	 mov	 eax, DWORD PTR tv169[ebp]
  002da	8b 8c 82 00 00
	00 00		 mov	 ecx, DWORD PTR ?fn_get_local_entity_int_value@@3PAY0BBH@P6GHPAUENTITY@@W4INT_TYPES@@@ZA[edx+eax*4]
  002e1	ff d1		 call	 ecx
  002e3	50		 push	 eax
  002e4	6a 34		 push	 52			; 00000034H
  002e6	8b 55 08	 mov	 edx, DWORD PTR _en$[ebp]
  002e9	52		 push	 edx
  002ea	69 45 98 5c 04
	00 00		 imul	 eax, DWORD PTR tv182[ebp], 1116
  002f1	8b 4d 94	 mov	 ecx, DWORD PTR tv190[ebp]
  002f4	8b 94 88 00 00
	00 00		 mov	 edx, DWORD PTR ?fn_get_local_entity_int_value@@3PAY0BBH@P6GHPAUENTITY@@W4INT_TYPES@@@ZA[eax+ecx*4]
  002fb	ff d2		 call	 edx
  002fd	50		 push	 eax
  002fe	8b 45 90	 mov	 eax, DWORD PTR tv203[ebp]
  00301	50		 push	 eax
  00302	68 bb 00 00 00	 push	 187			; 000000bbH
  00307	8b 4d 08	 mov	 ecx, DWORD PTR _en$[ebp]
  0030a	51		 push	 ecx
  0030b	69 55 8c 5c 04
	00 00		 imul	 edx, DWORD PTR tv211[ebp], 1116
  00312	8b 45 88	 mov	 eax, DWORD PTR tv219[ebp]
  00315	8b 8c 82 00 00
	00 00		 mov	 ecx, DWORD PTR ?fn_get_local_entity_int_value@@3PAY0BBH@P6GHPAUENTITY@@W4INT_TYPES@@@ZA[edx+eax*4]
  0031c	ff d1		 call	 ecx
  0031e	50		 push	 eax
  0031f	e8 00 00 00 00	 call	 ?add_entity_to_regen_queue@@YGXW4ENTITY_SIDES@@W4ENTITY_TYPES@@HH@Z ; add_entity_to_regen_queue

; 369  : 		(
; 370  : 			(entity_sides) get_local_entity_int_value(en, INT_TYPE_SIDE),
; 371  : 			get_local_entity_type(en),
; 372  : 			get_local_entity_int_value (en, INT_TYPE_ENTITY_SUB_TYPE),
; 373  : 			get_local_entity_int_value (group, INT_TYPE_ENTITY_SUB_TYPE)
; 374  : 		);
; 375  : 
; 376  : 		task = get_local_entity_first_child (en, LIST_TYPE_TASK_DEPENDENT);

  00324	83 7d 08 00	 cmp	 DWORD PTR _en$[ebp], 0
  00328	74 0a		 je	 SHORT $LN35@kill_local
  0032a	8b 45 08	 mov	 eax, DWORD PTR _en$[ebp]
  0032d	8b 08		 mov	 ecx, DWORD PTR [eax]
  0032f	89 4d a0	 mov	 DWORD PTR tv232[ebp], ecx
  00332	eb 21		 jmp	 SHORT $LN36@kill_local
$LN35@kill_local:
  00334	8b 15 00 00 00
	00		 mov	 edx, DWORD PTR ?__LINE__Var@?0??kill_local@@YGXPAUENTITY@@@Z@4JA
  0033a	83 c2 45	 add	 edx, 69			; 00000045H
  0033d	52		 push	 edx
  0033e	68 00 00 00 00	 push	 OFFSET ??_C@_0FG@HCJPIALE@c?3?2users?2nhv90?2projects?2eech?2ap@
  00343	a1 00 00 00 00	 mov	 eax, DWORD PTR ?null_entity_pointer_message@@3PBDB ; null_entity_pointer_message
  00348	50		 push	 eax
  00349	e8 00 00 00 00	 call	 ?process_assert@@YGXPBD0H@Z ; process_assert
  0034e	c7 45 a0 00 00
	00 00		 mov	 DWORD PTR tv232[ebp], 0
$LN36@kill_local:
  00355	b9 01 00 00 00	 mov	 ecx, 1
  0035a	85 c9		 test	 ecx, ecx
  0035c	74 09		 je	 SHORT $LN37@kill_local
  0035e	c7 45 9c 27 00
	00 00		 mov	 DWORD PTR tv240[ebp], 39 ; 00000027H
  00365	eb 21		 jmp	 SHORT $LN38@kill_local
$LN37@kill_local:
  00367	8b 15 00 00 00
	00		 mov	 edx, DWORD PTR ?__LINE__Var@?0??kill_local@@YGXPAUENTITY@@@Z@4JA
  0036d	83 c2 45	 add	 edx, 69			; 00000045H
  00370	52		 push	 edx
  00371	68 00 00 00 00	 push	 OFFSET ??_C@_0FG@HCJPIALE@c?3?2users?2nhv90?2projects?2eech?2ap@
  00376	a1 00 00 00 00	 mov	 eax, DWORD PTR ?overload_invalid_list_type_message@@3PBDB ; overload_invalid_list_type_message
  0037b	50		 push	 eax
  0037c	e8 00 00 00 00	 call	 ?process_assert@@YGXPBD0H@Z ; process_assert
  00381	c7 45 9c 00 00
	00 00		 mov	 DWORD PTR tv240[ebp], 0
$LN38@kill_local:
  00388	6a 27		 push	 39			; 00000027H
  0038a	8b 4d 08	 mov	 ecx, DWORD PTR _en$[ebp]
  0038d	51		 push	 ecx
  0038e	69 55 a0 b4 00
	00 00		 imul	 edx, DWORD PTR tv232[ebp], 180
  00395	8b 45 9c	 mov	 eax, DWORD PTR tv240[ebp]
  00398	8b 8c 82 00 00
	00 00		 mov	 ecx, DWORD PTR ?fn_get_local_entity_first_child@@3PAY0CN@P6GPAUENTITY@@PAU1@W4LIST_TYPES@@@ZA[edx+eax*4]
  0039f	ff d1		 call	 ecx
  003a1	89 45 f8	 mov	 DWORD PTR _task$[ebp], eax
$LN2@kill_local:

; 377  : 
; 378  : 		while (task)

  003a4	83 7d f8 00	 cmp	 DWORD PTR _task$[ebp], 0
  003a8	0f 84 a7 00 00
	00		 je	 $LN3@kill_local

; 379  : 		{
; 380  : 
; 381  : 			destroy_task = task;

  003ae	8b 45 f8	 mov	 eax, DWORD PTR _task$[ebp]
  003b1	89 45 f0	 mov	 DWORD PTR _destroy_task$[ebp], eax

; 382  : 
; 383  : 			task = get_local_entity_child_succ (task, LIST_TYPE_TASK_DEPENDENT);

  003b4	83 7d f8 00	 cmp	 DWORD PTR _task$[ebp], 0
  003b8	74 0a		 je	 SHORT $LN39@kill_local
  003ba	8b 45 f8	 mov	 eax, DWORD PTR _task$[ebp]
  003bd	8b 08		 mov	 ecx, DWORD PTR [eax]
  003bf	89 4d a0	 mov	 DWORD PTR tv253[ebp], ecx
  003c2	eb 21		 jmp	 SHORT $LN40@kill_local
$LN39@kill_local:
  003c4	8b 15 00 00 00
	00		 mov	 edx, DWORD PTR ?__LINE__Var@?0??kill_local@@YGXPAUENTITY@@@Z@4JA
  003ca	83 c2 4c	 add	 edx, 76			; 0000004cH
  003cd	52		 push	 edx
  003ce	68 00 00 00 00	 push	 OFFSET ??_C@_0FG@HCJPIALE@c?3?2users?2nhv90?2projects?2eech?2ap@
  003d3	a1 00 00 00 00	 mov	 eax, DWORD PTR ?null_entity_pointer_message@@3PBDB ; null_entity_pointer_message
  003d8	50		 push	 eax
  003d9	e8 00 00 00 00	 call	 ?process_assert@@YGXPBD0H@Z ; process_assert
  003de	c7 45 a0 00 00
	00 00		 mov	 DWORD PTR tv253[ebp], 0
$LN40@kill_local:
  003e5	b9 01 00 00 00	 mov	 ecx, 1
  003ea	85 c9		 test	 ecx, ecx
  003ec	74 09		 je	 SHORT $LN41@kill_local
  003ee	c7 45 9c 27 00
	00 00		 mov	 DWORD PTR tv261[ebp], 39 ; 00000027H
  003f5	eb 21		 jmp	 SHORT $LN42@kill_local
$LN41@kill_local:
  003f7	8b 15 00 00 00
	00		 mov	 edx, DWORD PTR ?__LINE__Var@?0??kill_local@@YGXPAUENTITY@@@Z@4JA
  003fd	83 c2 4c	 add	 edx, 76			; 0000004cH
  00400	52		 push	 edx
  00401	68 00 00 00 00	 push	 OFFSET ??_C@_0FG@HCJPIALE@c?3?2users?2nhv90?2projects?2eech?2ap@
  00406	a1 00 00 00 00	 mov	 eax, DWORD PTR ?overload_invalid_list_type_message@@3PBDB ; overload_invalid_list_type_message
  0040b	50		 push	 eax
  0040c	e8 00 00 00 00	 call	 ?process_assert@@YGXPBD0H@Z ; process_assert
  00411	c7 45 9c 00 00
	00 00		 mov	 DWORD PTR tv261[ebp], 0
$LN42@kill_local:
  00418	6a 27		 push	 39			; 00000027H
  0041a	8b 4d f8	 mov	 ecx, DWORD PTR _task$[ebp]
  0041d	51		 push	 ecx
  0041e	69 55 a0 b4 00
	00 00		 imul	 edx, DWORD PTR tv253[ebp], 180
  00425	8b 45 9c	 mov	 eax, DWORD PTR tv261[ebp]
  00428	8b 8c 82 00 00
	00 00		 mov	 ecx, DWORD PTR ?fn_get_local_entity_child_succ@@3PAY0CN@P6GPAUENTITY@@PAU1@W4LIST_TYPES@@@ZA[edx+eax*4]
  0042f	ff d1		 call	 ecx
  00431	89 45 f8	 mov	 DWORD PTR _task$[ebp], eax

; 384  : 
; 385  : 			if (destroy_task->type == ENTITY_TYPE_TASK)

  00434	8b 45 f0	 mov	 eax, DWORD PTR _destroy_task$[ebp]
  00437	83 38 22	 cmp	 DWORD PTR [eax], 34	; 00000022H
  0043a	75 14		 jne	 SHORT $LN8@kill_local

; 386  : 			{
; 387  : 
; 388  : 				#if DEBUG_MODULE
; 389  : 
; 390  : 				debug_log ("FW_DSTRY: killing fixed wing, notifying task %s complete", entity_sub_type_task_names [get_local_entity_int_value (destroy_task, INT_TYPE_ENTITY_SUB_TYPE)]);
; 391  : 
; 392  : 				#endif
; 393  : 
; 394  : 				notify_local_entity (ENTITY_MESSAGE_TASK_COMPLETED, destroy_task, en, TASK_TERMINATED_OBJECTIVE_MESSAGE);

  0043c	6a 04		 push	 4
  0043e	8b 45 08	 mov	 eax, DWORD PTR _en$[ebp]
  00441	50		 push	 eax
  00442	8b 4d f0	 mov	 ecx, DWORD PTR _destroy_task$[ebp]
  00445	51		 push	 ecx
  00446	6a 32		 push	 50			; 00000032H
  00448	e8 00 00 00 00	 call	 ?notify_local_entity@@YAHW4ENTITY_MESSAGES@@PAUENTITY@@1ZZ ; notify_local_entity
  0044d	83 c4 10	 add	 esp, 16			; 00000010H
$LN8@kill_local:

; 395  : 			}
; 396  : 		}

  00450	e9 4f ff ff ff	 jmp	 $LN2@kill_local
$LN3@kill_local:

; 397  : 
; 398  : 		//
; 399  : 		// Release landing lock (if any)
; 400  : 		//
; 401  : 
; 402  : 		release_mobile_entity_landing_locks (en);

  00455	8b 45 08	 mov	 eax, DWORD PTR _en$[ebp]
  00458	50		 push	 eax
  00459	e8 00 00 00 00	 call	 ?release_mobile_entity_landing_locks@@YGXPAUENTITY@@@Z ; release_mobile_entity_landing_locks
$LN7@kill_local:

; 403  : 	}
; 404  : 
; 405  : 	////////////////////////////////////////
; 406  : 	//
; 407  : 	// UNLINK FROM SYSTEM
; 408  : 	//
; 409  : 	////////////////////////////////////////
; 410  : 
; 411  : 	//
; 412  : 	// fixed_wing
; 413  : 	//
; 414  : 
; 415  : 	//
; 416  : 	// aircraft
; 417  : 	//
; 418  : 
; 419  : 	// aircrew_root
; 420  : 
; 421  : 	unlink_local_entity_children (en, LIST_TYPE_TASK_DEPENDENT);

  0045e	6a 27		 push	 39			; 00000027H
  00460	8b 45 08	 mov	 eax, DWORD PTR _en$[ebp]
  00463	50		 push	 eax
  00464	e8 00 00 00 00	 call	 ?unlink_local_entity_children@@YGXPAUENTITY@@W4LIST_TYPES@@@Z ; unlink_local_entity_children

; 422  : 
; 423  : 	// unlink_local_entity_children (en, LIST_TYPE_LAUNCHED_WEAPON);
; 424  : 
; 425  : 	delete_local_entity_from_parents_child_list (en, LIST_TYPE_FOLLOWER);

  00469	6a 0d		 push	 13			; 0000000dH
  0046b	8b 45 08	 mov	 eax, DWORD PTR _en$[ebp]
  0046e	50		 push	 eax
  0046f	e8 00 00 00 00	 call	 ?delete_local_entity_from_parents_child_list@@YGXPAUENTITY@@W4LIST_TYPES@@@Z ; delete_local_entity_from_parents_child_list

; 426  : 
; 427  : 	delete_local_entity_from_parents_child_list (en, LIST_TYPE_MEMBER);

  00474	6a 19		 push	 25			; 00000019H
  00476	8b 45 08	 mov	 eax, DWORD PTR _en$[ebp]
  00479	50		 push	 eax
  0047a	e8 00 00 00 00	 call	 ?delete_local_entity_from_parents_child_list@@YGXPAUENTITY@@W4LIST_TYPES@@@Z ; delete_local_entity_from_parents_child_list

; 428  : 
; 429  : 	// gunship_target_link
; 430  : 
; 431  : 	// member_link
; 432  : 
; 433  : 	// view_link
; 434  : 
; 435  : 	delete_local_entity_from_parents_child_list (en, LIST_TYPE_TAKEOFF_QUEUE);

  0047f	6a 25		 push	 37			; 00000025H
  00481	8b 45 08	 mov	 eax, DWORD PTR _en$[ebp]
  00484	50		 push	 eax
  00485	e8 00 00 00 00	 call	 ?delete_local_entity_from_parents_child_list@@YGXPAUENTITY@@W4LIST_TYPES@@@Z ; delete_local_entity_from_parents_child_list

; 436  : 
; 437  : 	//
; 438  : 	// mobile
; 439  : 	//
; 440  : 
; 441  : 	//
; 442  : 	// kill weapon sound effects
; 443  : 	//
; 444  : 
; 445  : 	kill_local_entity_sound_type (en, ENTITY_SUB_TYPE_EFFECT_SOUND_CHAIN_GUN);

  0048a	6a 10		 push	 16			; 00000010H
  0048c	8b 45 08	 mov	 eax, DWORD PTR _en$[ebp]
  0048f	50		 push	 eax
  00490	e8 00 00 00 00	 call	 ?kill_local_entity_sound_type@@YGXPAUENTITY@@H@Z ; kill_local_entity_sound_type

; 446  : 
; 447  : 	//
; 448  : 	// kill engine sound effects
; 449  : 	//
; 450  : 
; 451  : 	kill_local_entity_sound_type (en, ENTITY_SUB_TYPE_EFFECT_SOUND_ENGINE_LOOPING1);

  00495	6a 15		 push	 21			; 00000015H
  00497	8b 45 08	 mov	 eax, DWORD PTR _en$[ebp]
  0049a	50		 push	 eax
  0049b	e8 00 00 00 00	 call	 ?kill_local_entity_sound_type@@YGXPAUENTITY@@H@Z ; kill_local_entity_sound_type

; 452  : 	kill_local_entity_sound_type (en, ENTITY_SUB_TYPE_EFFECT_SOUND_ENGINE_LOOPING2);

  004a0	6a 16		 push	 22			; 00000016H
  004a2	8b 45 08	 mov	 eax, DWORD PTR _en$[ebp]
  004a5	50		 push	 eax
  004a6	e8 00 00 00 00	 call	 ?kill_local_entity_sound_type@@YGXPAUENTITY@@H@Z ; kill_local_entity_sound_type

; 453  : 
; 454  : 	//
; 455  : 	// Kill speech
; 456  : 	//
; 457  : 
; 458  : 	notify_speech_buffers_entity_killed (en);

  004ab	8b 45 08	 mov	 eax, DWORD PTR _en$[ebp]
  004ae	50		 push	 eax
  004af	e8 00 00 00 00	 call	 ?notify_speech_buffers_entity_killed@@YGXPAUENTITY@@@Z ; notify_speech_buffers_entity_killed

; 459  : 
; 460  : 	// special_effect root
; 461  : 
; 462  : 	unlink_local_entity_children (en, LIST_TYPE_TARGET);

  004b4	6a 26		 push	 38			; 00000026H
  004b6	8b 45 08	 mov	 eax, DWORD PTR _en$[ebp]
  004b9	50		 push	 eax
  004ba	e8 00 00 00 00	 call	 ?unlink_local_entity_children@@YGXPAUENTITY@@W4LIST_TYPES@@@Z ; unlink_local_entity_children

; 463  : 
; 464  : 	delete_local_entity_from_parents_child_list (en, LIST_TYPE_PADLOCK);

  004bf	6a 1b		 push	 27			; 0000001bH
  004c1	8b 45 08	 mov	 eax, DWORD PTR _en$[ebp]
  004c4	50		 push	 eax
  004c5	e8 00 00 00 00	 call	 ?delete_local_entity_from_parents_child_list@@YGXPAUENTITY@@W4LIST_TYPES@@@Z ; delete_local_entity_from_parents_child_list

; 465  : 
; 466  : 	// sector_link
; 467  : 
; 468  : 	delete_local_entity_from_parents_child_list (en, LIST_TYPE_TARGET);

  004ca	6a 26		 push	 38			; 00000026H
  004cc	8b 45 08	 mov	 eax, DWORD PTR _en$[ebp]
  004cf	50		 push	 eax
  004d0	e8 00 00 00 00	 call	 ?delete_local_entity_from_parents_child_list@@YGXPAUENTITY@@W4LIST_TYPES@@@Z ; delete_local_entity_from_parents_child_list

; 469  : 
; 470  : 	// update_link
; 471  : 
; 472  : 	set_local_entity_int_value (en, INT_TYPE_OPERATIONAL_STATE, OPERATIONAL_STATE_DYING);

  004d5	83 7d 08 00	 cmp	 DWORD PTR _en$[ebp], 0
  004d9	74 0a		 je	 SHORT $LN43@kill_local
  004db	8b 45 08	 mov	 eax, DWORD PTR _en$[ebp]
  004de	8b 08		 mov	 ecx, DWORD PTR [eax]
  004e0	89 4d a0	 mov	 DWORD PTR tv301[ebp], ecx
  004e3	eb 24		 jmp	 SHORT $LN44@kill_local
$LN43@kill_local:
  004e5	8b 15 00 00 00
	00		 mov	 edx, DWORD PTR ?__LINE__Var@?0??kill_local@@YGXPAUENTITY@@@Z@4JA
  004eb	81 c2 a5 00 00
	00		 add	 edx, 165		; 000000a5H
  004f1	52		 push	 edx
  004f2	68 00 00 00 00	 push	 OFFSET ??_C@_0FG@HCJPIALE@c?3?2users?2nhv90?2projects?2eech?2ap@
  004f7	a1 00 00 00 00	 mov	 eax, DWORD PTR ?null_entity_pointer_message@@3PBDB ; null_entity_pointer_message
  004fc	50		 push	 eax
  004fd	e8 00 00 00 00	 call	 ?process_assert@@YGXPBD0H@Z ; process_assert
  00502	c7 45 a0 00 00
	00 00		 mov	 DWORD PTR tv301[ebp], 0
$LN44@kill_local:
  00509	b9 01 00 00 00	 mov	 ecx, 1
  0050e	85 c9		 test	 ecx, ecx
  00510	74 09		 je	 SHORT $LN45@kill_local
  00512	c7 45 9c 97 00
	00 00		 mov	 DWORD PTR tv309[ebp], 151 ; 00000097H
  00519	eb 24		 jmp	 SHORT $LN46@kill_local
$LN45@kill_local:
  0051b	8b 15 00 00 00
	00		 mov	 edx, DWORD PTR ?__LINE__Var@?0??kill_local@@YGXPAUENTITY@@@Z@4JA
  00521	81 c2 a5 00 00
	00		 add	 edx, 165		; 000000a5H
  00527	52		 push	 edx
  00528	68 00 00 00 00	 push	 OFFSET ??_C@_0FG@HCJPIALE@c?3?2users?2nhv90?2projects?2eech?2ap@
  0052d	a1 00 00 00 00	 mov	 eax, DWORD PTR ?overload_invalid_int_type_message@@3PBDB ; overload_invalid_int_type_message
  00532	50		 push	 eax
  00533	e8 00 00 00 00	 call	 ?process_assert@@YGXPBD0H@Z ; process_assert
  00538	c7 45 9c 00 00
	00 00		 mov	 DWORD PTR tv309[ebp], 0
$LN46@kill_local:
  0053f	6a 03		 push	 3
  00541	68 97 00 00 00	 push	 151			; 00000097H
  00546	8b 4d 08	 mov	 ecx, DWORD PTR _en$[ebp]
  00549	51		 push	 ecx
  0054a	69 55 a0 5c 04
	00 00		 imul	 edx, DWORD PTR tv301[ebp], 1116
  00551	8b 45 9c	 mov	 eax, DWORD PTR tv309[ebp]
  00554	8b 8c 82 00 00
	00 00		 mov	 ecx, DWORD PTR ?fn_set_local_entity_int_value@@3PAY0BBH@P6GXPAUENTITY@@W4INT_TYPES@@H@ZA[edx+eax*4]
  0055b	ff d1		 call	 ecx

; 473  : 
; 474  : 	//
; 475  : 	// death timer (set time after which entity is totally destroyed)
; 476  : 	//
; 477  : 
; 478  : 	set_local_entity_float_value (en, FLOAT_TYPE_DEATH_TIMER, calculate_mobile_death_timer_value (en));

  0055d	83 7d 08 00	 cmp	 DWORD PTR _en$[ebp], 0
  00561	74 0a		 je	 SHORT $LN47@kill_local
  00563	8b 45 08	 mov	 eax, DWORD PTR _en$[ebp]
  00566	8b 08		 mov	 ecx, DWORD PTR [eax]
  00568	89 4d a0	 mov	 DWORD PTR tv321[ebp], ecx
  0056b	eb 24		 jmp	 SHORT $LN48@kill_local
$LN47@kill_local:
  0056d	8b 15 00 00 00
	00		 mov	 edx, DWORD PTR ?__LINE__Var@?0??kill_local@@YGXPAUENTITY@@@Z@4JA
  00573	81 c2 ab 00 00
	00		 add	 edx, 171		; 000000abH
  00579	52		 push	 edx
  0057a	68 00 00 00 00	 push	 OFFSET ??_C@_0FG@HCJPIALE@c?3?2users?2nhv90?2projects?2eech?2ap@
  0057f	a1 00 00 00 00	 mov	 eax, DWORD PTR ?null_entity_pointer_message@@3PBDB ; null_entity_pointer_message
  00584	50		 push	 eax
  00585	e8 00 00 00 00	 call	 ?process_assert@@YGXPBD0H@Z ; process_assert
  0058a	c7 45 a0 00 00
	00 00		 mov	 DWORD PTR tv321[ebp], 0
$LN48@kill_local:
  00591	b9 01 00 00 00	 mov	 ecx, 1
  00596	85 c9		 test	 ecx, ecx
  00598	74 09		 je	 SHORT $LN49@kill_local
  0059a	c7 45 9c 1b 00
	00 00		 mov	 DWORD PTR tv329[ebp], 27 ; 0000001bH
  005a1	eb 24		 jmp	 SHORT $LN50@kill_local
$LN49@kill_local:
  005a3	8b 15 00 00 00
	00		 mov	 edx, DWORD PTR ?__LINE__Var@?0??kill_local@@YGXPAUENTITY@@@Z@4JA
  005a9	81 c2 ab 00 00
	00		 add	 edx, 171		; 000000abH
  005af	52		 push	 edx
  005b0	68 00 00 00 00	 push	 OFFSET ??_C@_0FG@HCJPIALE@c?3?2users?2nhv90?2projects?2eech?2ap@
  005b5	a1 00 00 00 00	 mov	 eax, DWORD PTR ?overload_invalid_float_type_message@@3PBDB ; overload_invalid_float_type_message
  005ba	50		 push	 eax
  005bb	e8 00 00 00 00	 call	 ?process_assert@@YGXPBD0H@Z ; process_assert
  005c0	c7 45 9c 00 00
	00 00		 mov	 DWORD PTR tv329[ebp], 0
$LN50@kill_local:
  005c7	8b 4d 08	 mov	 ecx, DWORD PTR _en$[ebp]
  005ca	51		 push	 ecx
  005cb	e8 00 00 00 00	 call	 ?calculate_mobile_death_timer_value@@YGMPAUENTITY@@@Z ; calculate_mobile_death_timer_value
  005d0	d9 5d 98	 fstp	 DWORD PTR tv636[ebp]
  005d3	f3 0f 10 45 98	 movss	 xmm0, DWORD PTR tv636[ebp]
  005d8	51		 push	 ecx
  005d9	f3 0f 11 04 24	 movss	 DWORD PTR [esp], xmm0
  005de	6a 1b		 push	 27			; 0000001bH
  005e0	8b 55 08	 mov	 edx, DWORD PTR _en$[ebp]
  005e3	52		 push	 edx
  005e4	69 45 a0 bc 02
	00 00		 imul	 eax, DWORD PTR tv321[ebp], 700
  005eb	8b 4d 9c	 mov	 ecx, DWORD PTR tv329[ebp]
  005ee	8b 94 88 00 00
	00 00		 mov	 edx, DWORD PTR ?fn_set_local_entity_float_value@@3PAY0KP@P6GXPAUENTITY@@W4FLOAT_TYPES@@M@ZA[eax+ecx*4]
  005f5	ff d2		 call	 edx

; 479  : 
; 480  : 	////////////////////////////////////////
; 481  : 	//
; 482  : 	// KILL
; 483  : 	//
; 484  : 	////////////////////////////////////////
; 485  : 
; 486  : 	damage_fixed_wing_3d_object (en);

  005f7	8b 45 08	 mov	 eax, DWORD PTR _en$[ebp]
  005fa	50		 push	 eax
  005fb	e8 00 00 00 00	 call	 ?damage_fixed_wing_3d_object@@YGXPAUENTITY@@@Z ; damage_fixed_wing_3d_object

; 487  : 
; 488  : 	// must be done before alive flag set to FALSE
; 489  : 	remove_mobile_values_from_sector (get_local_entity_parent (en, LIST_TYPE_SECTOR), en);

  00600	83 7d 08 00	 cmp	 DWORD PTR _en$[ebp], 0
  00604	74 0a		 je	 SHORT $LN51@kill_local
  00606	8b 45 08	 mov	 eax, DWORD PTR _en$[ebp]
  00609	8b 08		 mov	 ecx, DWORD PTR [eax]
  0060b	89 4d a0	 mov	 DWORD PTR tv346[ebp], ecx
  0060e	eb 24		 jmp	 SHORT $LN52@kill_local
$LN51@kill_local:
  00610	8b 15 00 00 00
	00		 mov	 edx, DWORD PTR ?__LINE__Var@?0??kill_local@@YGXPAUENTITY@@@Z@4JA
  00616	81 c2 b6 00 00
	00		 add	 edx, 182		; 000000b6H
  0061c	52		 push	 edx
  0061d	68 00 00 00 00	 push	 OFFSET ??_C@_0FG@HCJPIALE@c?3?2users?2nhv90?2projects?2eech?2ap@
  00622	a1 00 00 00 00	 mov	 eax, DWORD PTR ?null_entity_pointer_message@@3PBDB ; null_entity_pointer_message
  00627	50		 push	 eax
  00628	e8 00 00 00 00	 call	 ?process_assert@@YGXPBD0H@Z ; process_assert
  0062d	c7 45 a0 00 00
	00 00		 mov	 DWORD PTR tv346[ebp], 0
$LN52@kill_local:
  00634	b9 01 00 00 00	 mov	 ecx, 1
  00639	85 c9		 test	 ecx, ecx
  0063b	74 09		 je	 SHORT $LN53@kill_local
  0063d	c7 45 9c 21 00
	00 00		 mov	 DWORD PTR tv354[ebp], 33 ; 00000021H
  00644	eb 24		 jmp	 SHORT $LN54@kill_local
$LN53@kill_local:
  00646	8b 15 00 00 00
	00		 mov	 edx, DWORD PTR ?__LINE__Var@?0??kill_local@@YGXPAUENTITY@@@Z@4JA
  0064c	81 c2 b6 00 00
	00		 add	 edx, 182		; 000000b6H
  00652	52		 push	 edx
  00653	68 00 00 00 00	 push	 OFFSET ??_C@_0FG@HCJPIALE@c?3?2users?2nhv90?2projects?2eech?2ap@
  00658	a1 00 00 00 00	 mov	 eax, DWORD PTR ?overload_invalid_list_type_message@@3PBDB ; overload_invalid_list_type_message
  0065d	50		 push	 eax
  0065e	e8 00 00 00 00	 call	 ?process_assert@@YGXPBD0H@Z ; process_assert
  00663	c7 45 9c 00 00
	00 00		 mov	 DWORD PTR tv354[ebp], 0
$LN54@kill_local:
  0066a	8b 4d 08	 mov	 ecx, DWORD PTR _en$[ebp]
  0066d	51		 push	 ecx
  0066e	6a 21		 push	 33			; 00000021H
  00670	8b 55 08	 mov	 edx, DWORD PTR _en$[ebp]
  00673	52		 push	 edx
  00674	69 45 a0 b4 00
	00 00		 imul	 eax, DWORD PTR tv346[ebp], 180
  0067b	8b 4d 9c	 mov	 ecx, DWORD PTR tv354[ebp]
  0067e	8b 94 88 00 00
	00 00		 mov	 edx, DWORD PTR ?fn_get_local_entity_parent@@3PAY0CN@P6GPAUENTITY@@PAU1@W4LIST_TYPES@@@ZA[eax+ecx*4]
  00685	ff d2		 call	 edx
  00687	50		 push	 eax
  00688	e8 00 00 00 00	 call	 ?remove_mobile_values_from_sector@@YGXPAUENTITY@@0@Z ; remove_mobile_values_from_sector

; 490  : 
; 491  : 	set_local_entity_int_value (en, INT_TYPE_ALIVE, FALSE);

  0068d	83 7d 08 00	 cmp	 DWORD PTR _en$[ebp], 0
  00691	74 0a		 je	 SHORT $LN55@kill_local
  00693	8b 45 08	 mov	 eax, DWORD PTR _en$[ebp]
  00696	8b 08		 mov	 ecx, DWORD PTR [eax]
  00698	89 4d a0	 mov	 DWORD PTR tv367[ebp], ecx
  0069b	eb 24		 jmp	 SHORT $LN56@kill_local
$LN55@kill_local:
  0069d	8b 15 00 00 00
	00		 mov	 edx, DWORD PTR ?__LINE__Var@?0??kill_local@@YGXPAUENTITY@@@Z@4JA
  006a3	81 c2 b8 00 00
	00		 add	 edx, 184		; 000000b8H
  006a9	52		 push	 edx
  006aa	68 00 00 00 00	 push	 OFFSET ??_C@_0FG@HCJPIALE@c?3?2users?2nhv90?2projects?2eech?2ap@
  006af	a1 00 00 00 00	 mov	 eax, DWORD PTR ?null_entity_pointer_message@@3PBDB ; null_entity_pointer_message
  006b4	50		 push	 eax
  006b5	e8 00 00 00 00	 call	 ?process_assert@@YGXPBD0H@Z ; process_assert
  006ba	c7 45 a0 00 00
	00 00		 mov	 DWORD PTR tv367[ebp], 0
$LN56@kill_local:
  006c1	b9 01 00 00 00	 mov	 ecx, 1
  006c6	85 c9		 test	 ecx, ecx
  006c8	74 09		 je	 SHORT $LN57@kill_local
  006ca	c7 45 9c 07 00
	00 00		 mov	 DWORD PTR tv375[ebp], 7
  006d1	eb 24		 jmp	 SHORT $LN58@kill_local
$LN57@kill_local:
  006d3	8b 15 00 00 00
	00		 mov	 edx, DWORD PTR ?__LINE__Var@?0??kill_local@@YGXPAUENTITY@@@Z@4JA
  006d9	81 c2 b8 00 00
	00		 add	 edx, 184		; 000000b8H
  006df	52		 push	 edx
  006e0	68 00 00 00 00	 push	 OFFSET ??_C@_0FG@HCJPIALE@c?3?2users?2nhv90?2projects?2eech?2ap@
  006e5	a1 00 00 00 00	 mov	 eax, DWORD PTR ?overload_invalid_int_type_message@@3PBDB ; overload_invalid_int_type_message
  006ea	50		 push	 eax
  006eb	e8 00 00 00 00	 call	 ?process_assert@@YGXPBD0H@Z ; process_assert
  006f0	c7 45 9c 00 00
	00 00		 mov	 DWORD PTR tv375[ebp], 0
$LN58@kill_local:
  006f7	6a 00		 push	 0
  006f9	6a 07		 push	 7
  006fb	8b 4d 08	 mov	 ecx, DWORD PTR _en$[ebp]
  006fe	51		 push	 ecx
  006ff	69 55 a0 5c 04
	00 00		 imul	 edx, DWORD PTR tv367[ebp], 1116
  00706	8b 45 9c	 mov	 eax, DWORD PTR tv375[ebp]
  00709	8b 8c 82 00 00
	00 00		 mov	 ecx, DWORD PTR ?fn_set_local_entity_int_value@@3PAY0BBH@P6GXPAUENTITY@@W4INT_TYPES@@H@ZA[edx+eax*4]
  00710	ff d1		 call	 ecx

; 492  : 
; 493  : 	//
; 494  : 	// group losses
; 495  : 	//
; 496  : 
; 497  : 	losses = get_local_entity_int_value (group, INT_TYPE_LOSSES);

  00712	83 7d f4 00	 cmp	 DWORD PTR _group$[ebp], 0
  00716	74 0a		 je	 SHORT $LN59@kill_local
  00718	8b 45 f4	 mov	 eax, DWORD PTR _group$[ebp]
  0071b	8b 08		 mov	 ecx, DWORD PTR [eax]
  0071d	89 4d a0	 mov	 DWORD PTR tv387[ebp], ecx
  00720	eb 24		 jmp	 SHORT $LN60@kill_local
$LN59@kill_local:
  00722	8b 15 00 00 00
	00		 mov	 edx, DWORD PTR ?__LINE__Var@?0??kill_local@@YGXPAUENTITY@@@Z@4JA
  00728	81 c2 be 00 00
	00		 add	 edx, 190		; 000000beH
  0072e	52		 push	 edx
  0072f	68 00 00 00 00	 push	 OFFSET ??_C@_0FG@HCJPIALE@c?3?2users?2nhv90?2projects?2eech?2ap@
  00734	a1 00 00 00 00	 mov	 eax, DWORD PTR ?null_entity_pointer_message@@3PBDB ; null_entity_pointer_message
  00739	50		 push	 eax
  0073a	e8 00 00 00 00	 call	 ?process_assert@@YGXPBD0H@Z ; process_assert
  0073f	c7 45 a0 00 00
	00 00		 mov	 DWORD PTR tv387[ebp], 0
$LN60@kill_local:
  00746	b9 01 00 00 00	 mov	 ecx, 1
  0074b	85 c9		 test	 ecx, ecx
  0074d	74 09		 je	 SHORT $LN61@kill_local
  0074f	c7 45 9c 7f 00
	00 00		 mov	 DWORD PTR tv395[ebp], 127 ; 0000007fH
  00756	eb 24		 jmp	 SHORT $LN62@kill_local
$LN61@kill_local:
  00758	8b 15 00 00 00
	00		 mov	 edx, DWORD PTR ?__LINE__Var@?0??kill_local@@YGXPAUENTITY@@@Z@4JA
  0075e	81 c2 be 00 00
	00		 add	 edx, 190		; 000000beH
  00764	52		 push	 edx
  00765	68 00 00 00 00	 push	 OFFSET ??_C@_0FG@HCJPIALE@c?3?2users?2nhv90?2projects?2eech?2ap@
  0076a	a1 00 00 00 00	 mov	 eax, DWORD PTR ?overload_invalid_int_type_message@@3PBDB ; overload_invalid_int_type_message
  0076f	50		 push	 eax
  00770	e8 00 00 00 00	 call	 ?process_assert@@YGXPBD0H@Z ; process_assert
  00775	c7 45 9c 00 00
	00 00		 mov	 DWORD PTR tv395[ebp], 0
$LN62@kill_local:
  0077c	6a 7f		 push	 127			; 0000007fH
  0077e	8b 4d f4	 mov	 ecx, DWORD PTR _group$[ebp]
  00781	51		 push	 ecx
  00782	69 55 a0 5c 04
	00 00		 imul	 edx, DWORD PTR tv387[ebp], 1116
  00789	8b 45 9c	 mov	 eax, DWORD PTR tv395[ebp]
  0078c	8b 8c 82 00 00
	00 00		 mov	 ecx, DWORD PTR ?fn_get_local_entity_int_value@@3PAY0BBH@P6GHPAUENTITY@@W4INT_TYPES@@@ZA[edx+eax*4]
  00793	ff d1		 call	 ecx
  00795	89 45 fc	 mov	 DWORD PTR _losses$[ebp], eax

; 498  : 
; 499  : 	losses ++;

  00798	8b 45 fc	 mov	 eax, DWORD PTR _losses$[ebp]
  0079b	83 c0 01	 add	 eax, 1
  0079e	89 45 fc	 mov	 DWORD PTR _losses$[ebp], eax

; 500  : 
; 501  : 	set_local_entity_int_value (group, INT_TYPE_LOSSES, losses);

  007a1	83 7d f4 00	 cmp	 DWORD PTR _group$[ebp], 0
  007a5	74 0a		 je	 SHORT $LN63@kill_local
  007a7	8b 45 f4	 mov	 eax, DWORD PTR _group$[ebp]
  007aa	8b 08		 mov	 ecx, DWORD PTR [eax]
  007ac	89 4d a0	 mov	 DWORD PTR tv408[ebp], ecx
  007af	eb 24		 jmp	 SHORT $LN64@kill_local
$LN63@kill_local:
  007b1	8b 15 00 00 00
	00		 mov	 edx, DWORD PTR ?__LINE__Var@?0??kill_local@@YGXPAUENTITY@@@Z@4JA
  007b7	81 c2 c2 00 00
	00		 add	 edx, 194		; 000000c2H
  007bd	52		 push	 edx
  007be	68 00 00 00 00	 push	 OFFSET ??_C@_0FG@HCJPIALE@c?3?2users?2nhv90?2projects?2eech?2ap@
  007c3	a1 00 00 00 00	 mov	 eax, DWORD PTR ?null_entity_pointer_message@@3PBDB ; null_entity_pointer_message
  007c8	50		 push	 eax
  007c9	e8 00 00 00 00	 call	 ?process_assert@@YGXPBD0H@Z ; process_assert
  007ce	c7 45 a0 00 00
	00 00		 mov	 DWORD PTR tv408[ebp], 0
$LN64@kill_local:
  007d5	b9 01 00 00 00	 mov	 ecx, 1
  007da	85 c9		 test	 ecx, ecx
  007dc	74 09		 je	 SHORT $LN65@kill_local
  007de	c7 45 9c 7f 00
	00 00		 mov	 DWORD PTR tv416[ebp], 127 ; 0000007fH
  007e5	eb 24		 jmp	 SHORT $LN66@kill_local
$LN65@kill_local:
  007e7	8b 15 00 00 00
	00		 mov	 edx, DWORD PTR ?__LINE__Var@?0??kill_local@@YGXPAUENTITY@@@Z@4JA
  007ed	81 c2 c2 00 00
	00		 add	 edx, 194		; 000000c2H
  007f3	52		 push	 edx
  007f4	68 00 00 00 00	 push	 OFFSET ??_C@_0FG@HCJPIALE@c?3?2users?2nhv90?2projects?2eech?2ap@
  007f9	a1 00 00 00 00	 mov	 eax, DWORD PTR ?overload_invalid_int_type_message@@3PBDB ; overload_invalid_int_type_message
  007fe	50		 push	 eax
  007ff	e8 00 00 00 00	 call	 ?process_assert@@YGXPBD0H@Z ; process_assert
  00804	c7 45 9c 00 00
	00 00		 mov	 DWORD PTR tv416[ebp], 0
$LN66@kill_local:
  0080b	8b 4d fc	 mov	 ecx, DWORD PTR _losses$[ebp]
  0080e	51		 push	 ecx
  0080f	6a 7f		 push	 127			; 0000007fH
  00811	8b 55 f4	 mov	 edx, DWORD PTR _group$[ebp]
  00814	52		 push	 edx
  00815	69 45 a0 5c 04
	00 00		 imul	 eax, DWORD PTR tv408[ebp], 1116
  0081c	8b 4d 9c	 mov	 ecx, DWORD PTR tv416[ebp]
  0081f	8b 94 88 00 00
	00 00		 mov	 edx, DWORD PTR ?fn_set_local_entity_int_value@@3PAY0BBH@P6GXPAUENTITY@@W4INT_TYPES@@H@ZA[eax+ecx*4]
  00826	ff d2		 call	 edx

; 502  : 
; 503  : 	//
; 504  : 	// task losses
; 505  : 	//
; 506  : 
; 507  : 	task = get_local_group_primary_task (group);

  00828	8b 45 f4	 mov	 eax, DWORD PTR _group$[ebp]
  0082b	50		 push	 eax
  0082c	e8 00 00 00 00	 call	 ?get_local_group_primary_task@@YGPAUENTITY@@PAU1@@Z ; get_local_group_primary_task
  00831	89 45 f8	 mov	 DWORD PTR _task$[ebp], eax

; 508  : 
; 509  : 	if (task)

  00834	83 7d f8 00	 cmp	 DWORD PTR _task$[ebp], 0
  00838	0f 84 16 01 00
	00		 je	 $LN9@kill_local

; 510  : 	{
; 511  : 		losses = get_local_entity_int_value (task, INT_TYPE_LOSSES);

  0083e	83 7d f8 00	 cmp	 DWORD PTR _task$[ebp], 0
  00842	74 0a		 je	 SHORT $LN67@kill_local
  00844	8b 45 f8	 mov	 eax, DWORD PTR _task$[ebp]
  00847	8b 08		 mov	 ecx, DWORD PTR [eax]
  00849	89 4d a0	 mov	 DWORD PTR tv431[ebp], ecx
  0084c	eb 24		 jmp	 SHORT $LN68@kill_local
$LN67@kill_local:
  0084e	8b 15 00 00 00
	00		 mov	 edx, DWORD PTR ?__LINE__Var@?0??kill_local@@YGXPAUENTITY@@@Z@4JA
  00854	81 c2 cc 00 00
	00		 add	 edx, 204		; 000000ccH
  0085a	52		 push	 edx
  0085b	68 00 00 00 00	 push	 OFFSET ??_C@_0FG@HCJPIALE@c?3?2users?2nhv90?2projects?2eech?2ap@
  00860	a1 00 00 00 00	 mov	 eax, DWORD PTR ?null_entity_pointer_message@@3PBDB ; null_entity_pointer_message
  00865	50		 push	 eax
  00866	e8 00 00 00 00	 call	 ?process_assert@@YGXPBD0H@Z ; process_assert
  0086b	c7 45 a0 00 00
	00 00		 mov	 DWORD PTR tv431[ebp], 0
$LN68@kill_local:
  00872	b9 01 00 00 00	 mov	 ecx, 1
  00877	85 c9		 test	 ecx, ecx
  00879	74 09		 je	 SHORT $LN69@kill_local
  0087b	c7 45 9c 7f 00
	00 00		 mov	 DWORD PTR tv439[ebp], 127 ; 0000007fH
  00882	eb 24		 jmp	 SHORT $LN70@kill_local
$LN69@kill_local:
  00884	8b 15 00 00 00
	00		 mov	 edx, DWORD PTR ?__LINE__Var@?0??kill_local@@YGXPAUENTITY@@@Z@4JA
  0088a	81 c2 cc 00 00
	00		 add	 edx, 204		; 000000ccH
  00890	52		 push	 edx
  00891	68 00 00 00 00	 push	 OFFSET ??_C@_0FG@HCJPIALE@c?3?2users?2nhv90?2projects?2eech?2ap@
  00896	a1 00 00 00 00	 mov	 eax, DWORD PTR ?overload_invalid_int_type_message@@3PBDB ; overload_invalid_int_type_message
  0089b	50		 push	 eax
  0089c	e8 00 00 00 00	 call	 ?process_assert@@YGXPBD0H@Z ; process_assert
  008a1	c7 45 9c 00 00
	00 00		 mov	 DWORD PTR tv439[ebp], 0
$LN70@kill_local:
  008a8	6a 7f		 push	 127			; 0000007fH
  008aa	8b 4d f8	 mov	 ecx, DWORD PTR _task$[ebp]
  008ad	51		 push	 ecx
  008ae	69 55 a0 5c 04
	00 00		 imul	 edx, DWORD PTR tv431[ebp], 1116
  008b5	8b 45 9c	 mov	 eax, DWORD PTR tv439[ebp]
  008b8	8b 8c 82 00 00
	00 00		 mov	 ecx, DWORD PTR ?fn_get_local_entity_int_value@@3PAY0BBH@P6GHPAUENTITY@@W4INT_TYPES@@@ZA[edx+eax*4]
  008bf	ff d1		 call	 ecx
  008c1	89 45 fc	 mov	 DWORD PTR _losses$[ebp], eax

; 512  : 
; 513  : 		losses ++;

  008c4	8b 45 fc	 mov	 eax, DWORD PTR _losses$[ebp]
  008c7	83 c0 01	 add	 eax, 1
  008ca	89 45 fc	 mov	 DWORD PTR _losses$[ebp], eax

; 514  : 
; 515  : 		set_local_entity_int_value (task, INT_TYPE_LOSSES, losses);

  008cd	83 7d f8 00	 cmp	 DWORD PTR _task$[ebp], 0
  008d1	74 0a		 je	 SHORT $LN71@kill_local
  008d3	8b 45 f8	 mov	 eax, DWORD PTR _task$[ebp]
  008d6	8b 08		 mov	 ecx, DWORD PTR [eax]
  008d8	89 4d a0	 mov	 DWORD PTR tv452[ebp], ecx
  008db	eb 24		 jmp	 SHORT $LN72@kill_local
$LN71@kill_local:
  008dd	8b 15 00 00 00
	00		 mov	 edx, DWORD PTR ?__LINE__Var@?0??kill_local@@YGXPAUENTITY@@@Z@4JA
  008e3	81 c2 d0 00 00
	00		 add	 edx, 208		; 000000d0H
  008e9	52		 push	 edx
  008ea	68 00 00 00 00	 push	 OFFSET ??_C@_0FG@HCJPIALE@c?3?2users?2nhv90?2projects?2eech?2ap@
  008ef	a1 00 00 00 00	 mov	 eax, DWORD PTR ?null_entity_pointer_message@@3PBDB ; null_entity_pointer_message
  008f4	50		 push	 eax
  008f5	e8 00 00 00 00	 call	 ?process_assert@@YGXPBD0H@Z ; process_assert
  008fa	c7 45 a0 00 00
	00 00		 mov	 DWORD PTR tv452[ebp], 0
$LN72@kill_local:
  00901	b9 01 00 00 00	 mov	 ecx, 1
  00906	85 c9		 test	 ecx, ecx
  00908	74 09		 je	 SHORT $LN73@kill_local
  0090a	c7 45 9c 7f 00
	00 00		 mov	 DWORD PTR tv460[ebp], 127 ; 0000007fH
  00911	eb 24		 jmp	 SHORT $LN74@kill_local
$LN73@kill_local:
  00913	8b 15 00 00 00
	00		 mov	 edx, DWORD PTR ?__LINE__Var@?0??kill_local@@YGXPAUENTITY@@@Z@4JA
  00919	81 c2 d0 00 00
	00		 add	 edx, 208		; 000000d0H
  0091f	52		 push	 edx
  00920	68 00 00 00 00	 push	 OFFSET ??_C@_0FG@HCJPIALE@c?3?2users?2nhv90?2projects?2eech?2ap@
  00925	a1 00 00 00 00	 mov	 eax, DWORD PTR ?overload_invalid_int_type_message@@3PBDB ; overload_invalid_int_type_message
  0092a	50		 push	 eax
  0092b	e8 00 00 00 00	 call	 ?process_assert@@YGXPBD0H@Z ; process_assert
  00930	c7 45 9c 00 00
	00 00		 mov	 DWORD PTR tv460[ebp], 0
$LN74@kill_local:
  00937	8b 4d fc	 mov	 ecx, DWORD PTR _losses$[ebp]
  0093a	51		 push	 ecx
  0093b	6a 7f		 push	 127			; 0000007fH
  0093d	8b 55 f8	 mov	 edx, DWORD PTR _task$[ebp]
  00940	52		 push	 edx
  00941	69 45 a0 5c 04
	00 00		 imul	 eax, DWORD PTR tv452[ebp], 1116
  00948	8b 4d 9c	 mov	 ecx, DWORD PTR tv460[ebp]
  0094b	8b 94 88 00 00
	00 00		 mov	 edx, DWORD PTR ?fn_set_local_entity_int_value@@3PAY0BBH@P6GXPAUENTITY@@W4INT_TYPES@@H@ZA[eax+ecx*4]
  00952	ff d2		 call	 edx
$LN9@kill_local:

; 516  : 	}
; 517  : 
; 518  : 	//
; 519  : 	// Notify Campaign Screen
; 520  : 	//
; 521  : 
; 522  : 	notify_campaign_screen (CAMPAIGN_SCREEN_GROUP_REMOVE_MEMBER, group);

  00954	8b 45 f4	 mov	 eax, DWORD PTR _group$[ebp]
  00957	50		 push	 eax
  00958	6a 08		 push	 8
  0095a	e8 00 00 00 00	 call	 ?notify_campaign_screen@@YGHW4CAMPAIGN_SCREEN_MESSAGES@@PAUENTITY@@@Z ; notify_campaign_screen

; 523  : 
; 524  : 	//
; 525  : 	// Notify the GROUP that the mobile has been killed  (N.B. must be done AFTER mobile is unlinked from member list)
; 526  : 	//
; 527  : 
; 528  : 	if (get_comms_model () == COMMS_MODEL_SERVER)

  0095f	83 3d 00 00 00
	00 00		 cmp	 DWORD PTR ?system_comms_model@@3W4COMMS_MODEL_TYPES@@A, 0 ; system_comms_model
  00966	75 12		 jne	 SHORT $LN10@kill_local

; 529  : 	{
; 530  : 		notify_local_entity (ENTITY_MESSAGE_MOBILE_KILLED, group, en);

  00968	8b 45 08	 mov	 eax, DWORD PTR _en$[ebp]
  0096b	50		 push	 eax
  0096c	8b 4d f4	 mov	 ecx, DWORD PTR _group$[ebp]
  0096f	51		 push	 ecx
  00970	6a 28		 push	 40			; 00000028H
  00972	e8 00 00 00 00	 call	 ?notify_local_entity@@YAHW4ENTITY_MESSAGES@@PAUENTITY@@1ZZ ; notify_local_entity
  00977	83 c4 0c	 add	 esp, 12			; 0000000cH
$LN10@kill_local:

; 531  : 	}
; 532  : 
; 533  : 	////////////////////////////////////////
; 534  : 	//
; 535  : 	// SPECIAL EFFECTS
; 536  : 	//
; 537  : 	////////////////////////////////////////
; 538  : 
; 539  : 	set_local_fixed_wing_afterburner_state (en, OFF);

  0097a	6a 00		 push	 0
  0097c	8b 45 08	 mov	 eax, DWORD PTR _en$[ebp]
  0097f	50		 push	 eax
  00980	e8 00 00 00 00	 call	 ?set_local_fixed_wing_afterburner_state@@YGXPAUENTITY@@H@Z ; set_local_fixed_wing_afterburner_state

; 540  : 
; 541  : 	fixed_wing_impact_movement (en);

  00985	8b 45 08	 mov	 eax, DWORD PTR _en$[ebp]
  00988	50		 push	 eax
  00989	e8 00 00 00 00	 call	 ?fixed_wing_impact_movement@@YGXPAUENTITY@@@Z ; fixed_wing_impact_movement

; 542  : 
; 543  : 	if (get_comms_model () == COMMS_MODEL_SERVER)

  0098e	83 3d 00 00 00
	00 00		 cmp	 DWORD PTR ?system_comms_model@@3W4COMMS_MODEL_TYPES@@A, 0 ; system_comms_model
  00995	0f 85 cc 00 00
	00		 jne	 $LN11@kill_local

; 544  : 	{
; 545  : 		vec3d
; 546  : 			*position;
; 547  : 
; 548  : 		sound_sample_indices
; 549  : 			sound_sample_index;
; 550  : 
; 551  : 		create_client_server_object_killed_explosion_effect (en);

  0099b	8b 45 08	 mov	 eax, DWORD PTR _en$[ebp]
  0099e	50		 push	 eax
  0099f	e8 00 00 00 00	 call	 ?create_client_server_object_killed_explosion_effect@@YGXPAUENTITY@@@Z ; create_client_server_object_killed_explosion_effect

; 552  : 
; 553  : 		position = get_local_entity_vec3d_ptr (en, VEC3D_TYPE_POSITION);

  009a4	83 7d 08 00	 cmp	 DWORD PTR _en$[ebp], 0
  009a8	74 0a		 je	 SHORT $LN75@kill_local
  009aa	8b 45 08	 mov	 eax, DWORD PTR _en$[ebp]
  009ad	8b 08		 mov	 ecx, DWORD PTR [eax]
  009af	89 4d a0	 mov	 DWORD PTR tv483[ebp], ecx
  009b2	eb 24		 jmp	 SHORT $LN76@kill_local
$LN75@kill_local:
  009b4	8b 15 00 00 00
	00		 mov	 edx, DWORD PTR ?__LINE__Var@?0??kill_local@@YGXPAUENTITY@@@Z@4JA
  009ba	81 c2 f6 00 00
	00		 add	 edx, 246		; 000000f6H
  009c0	52		 push	 edx
  009c1	68 00 00 00 00	 push	 OFFSET ??_C@_0FG@HCJPIALE@c?3?2users?2nhv90?2projects?2eech?2ap@
  009c6	a1 00 00 00 00	 mov	 eax, DWORD PTR ?null_entity_pointer_message@@3PBDB ; null_entity_pointer_message
  009cb	50		 push	 eax
  009cc	e8 00 00 00 00	 call	 ?process_assert@@YGXPBD0H@Z ; process_assert
  009d1	c7 45 a0 00 00
	00 00		 mov	 DWORD PTR tv483[ebp], 0
$LN76@kill_local:
  009d8	b9 01 00 00 00	 mov	 ecx, 1
  009dd	85 c9		 test	 ecx, ecx
  009df	74 09		 je	 SHORT $LN77@kill_local
  009e1	c7 45 9c 08 00
	00 00		 mov	 DWORD PTR tv491[ebp], 8
  009e8	eb 24		 jmp	 SHORT $LN78@kill_local
$LN77@kill_local:
  009ea	8b 15 00 00 00
	00		 mov	 edx, DWORD PTR ?__LINE__Var@?0??kill_local@@YGXPAUENTITY@@@Z@4JA
  009f0	81 c2 f6 00 00
	00		 add	 edx, 246		; 000000f6H
  009f6	52		 push	 edx
  009f7	68 00 00 00 00	 push	 OFFSET ??_C@_0FG@HCJPIALE@c?3?2users?2nhv90?2projects?2eech?2ap@
  009fc	a1 00 00 00 00	 mov	 eax, DWORD PTR ?overload_invalid_vec3d_type_message@@3PBDB ; overload_invalid_vec3d_type_message
  00a01	50		 push	 eax
  00a02	e8 00 00 00 00	 call	 ?process_assert@@YGXPBD0H@Z ; process_assert
  00a07	c7 45 9c 00 00
	00 00		 mov	 DWORD PTR tv491[ebp], 0
$LN78@kill_local:
  00a0e	6a 08		 push	 8
  00a10	8b 4d 08	 mov	 ecx, DWORD PTR _en$[ebp]
  00a13	51		 push	 ecx
  00a14	6b 55 a0 60	 imul	 edx, DWORD PTR tv483[ebp], 96
  00a18	8b 45 9c	 mov	 eax, DWORD PTR tv491[ebp]
  00a1b	8b 8c 82 00 00
	00 00		 mov	 ecx, DWORD PTR ?fn_get_local_entity_vec3d_ptr@@3PAY0BI@P6GPAUVEC3D@@PAUENTITY@@W4VEC3D_TYPES@@@ZA[edx+eax*4]
  00a22	ff d1		 call	 ecx
  00a24	89 45 e8	 mov	 DWORD PTR _position$2[ebp], eax

; 554  : 
; 555  : 		sound_sample_index = SOUND_SAMPLE_INDEX_SHOT_DOWN_AIRCRAFT;

  00a27	c7 45 e4 4b 00
	00 00		 mov	 DWORD PTR _sound_sample_index$1[ebp], 75 ; 0000004bH

; 556  : 
; 557  : 		create_client_server_sound_effect_entity

  00a2e	8d 45 e4	 lea	 eax, DWORD PTR _sound_sample_index$1[ebp]
  00a31	50		 push	 eax
  00a32	6a 01		 push	 1
  00a34	6a 01		 push	 1
  00a36	6a 01		 push	 1
  00a38	51		 push	 ecx
  00a39	f3 0f 10 05 00
	00 00 00	 movss	 xmm0, DWORD PTR __real@3f800000
  00a41	f3 0f 11 04 24	 movss	 DWORD PTR [esp], xmm0
  00a46	51		 push	 ecx
  00a47	f3 0f 10 05 00
	00 00 00	 movss	 xmm0, DWORD PTR __real@3f800000
  00a4f	f3 0f 11 04 24	 movss	 DWORD PTR [esp], xmm0
  00a54	6a 00		 push	 0
  00a56	6a 00		 push	 0
  00a58	6a 00		 push	 0
  00a5a	6a 15		 push	 21			; 00000015H
  00a5c	6a 00		 push	 0
  00a5e	8b 4d 08	 mov	 ecx, DWORD PTR _en$[ebp]
  00a61	51		 push	 ecx
  00a62	e8 00 00 00 00	 call	 ?create_client_server_sound_effect_entity@@YGPAUENTITY@@PAU1@W4ENTITY_SIDES@@HW4SOUND_CHANNEL_TYPES@@W4SOUND_LOCALITY_TYPES@@PAUVEC3D@@MMHHHPAH@Z ; create_client_server_sound_effect_entity
$LN11@kill_local:

; 558  : 		(
; 559  : 			en,
; 560  : 			ENTITY_SIDE_NEUTRAL,
; 561  : 			ENTITY_SUB_TYPE_EFFECT_SOUND_ENGINE_LOOPING1,
; 562  : 			SOUND_CHANNEL_SOUND_EFFECT,
; 563  : 			SOUND_LOCALITY_ALL,
; 564  : 			NULL,												// position
; 565  : 			1.0,												// amplification
; 566  : 			1.0,												// Werewolf pitch
; 567  : 			TRUE,												// valid sound effect
; 568  : 			TRUE,												// looping
; 569  : 			1,													// sample count
; 570  : 			&sound_sample_index							// sample index list
; 571  : 		);
; 572  : 	}
; 573  : 
; 574  : 	#if LANDING_ROUTE_CHECK
; 575  : 
; 576  : 	destroy_debug_entity_landing_route_check (en);

  00a67	8b 45 08	 mov	 eax, DWORD PTR _en$[ebp]
  00a6a	50		 push	 eax
  00a6b	e8 00 00 00 00	 call	 ?destroy_debug_entity_landing_route_check@@YGXPAUENTITY@@@Z ; destroy_debug_entity_landing_route_check
$LN1@kill_local:

; 577  : 
; 578  : 	#endif
; 579  : 
; 580  : 	/////////////////////////////////////////////////////////////////
; 581  : 	//
; 582  : 	// SPECIAL_EFFECT_HOOK FOR BEING_DESTROYED
; 583  : 	//
; 584  : 	/////////////////////////////////////////////////////////////////
; 585  : 
; 586  : 	/////////////////////////////////////////////////////////////////
; 587  : 	//
; 588  : 	//
; 589  : 	/////////////////////////////////////////////////////////////////
; 590  : }

  00a70	5f		 pop	 edi
  00a71	5e		 pop	 esi
  00a72	5b		 pop	 ebx
  00a73	8b e5		 mov	 esp, ebp
  00a75	5d		 pop	 ebp
  00a76	c2 04 00	 ret	 4
?kill_local@@YGXPAUENTITY@@@Z ENDP			; kill_local
_TEXT	ENDS
; Function compile flags: /Odtp /ZI
; File c:\users\nhv90\projects\eech\aphavoc\source\entity\mobile\aircraft\fixwing\fw_dstry.c
;	COMDAT ?destroy_client_family@@YGXPAUENTITY@@@Z
_TEXT	SEGMENT
_en$ = 8						; size = 4
?destroy_client_family@@YGXPAUENTITY@@@Z PROC		; destroy_client_family, COMDAT

; 292  : {

  00000	55		 push	 ebp
  00001	8b ec		 mov	 ebp, esp
  00003	83 ec 40	 sub	 esp, 64			; 00000040H
  00006	53		 push	 ebx
  00007	56		 push	 esi
  00008	57		 push	 edi

; 293  : 	#if DEBUG_MODULE >= 2
; 294  : 
; 295  : 	debug_log_entity_args (ENTITY_DEBUG_REMOTE, ENTITY_DEBUG_DESTROY_FAMILY, en);
; 296  : 
; 297  : 	#endif
; 298  : 
; 299  : 	transmit_entity_comms_message (ENTITY_COMMS_DESTROY_FAMILY, en);

  00009	8b 45 08	 mov	 eax, DWORD PTR _en$[ebp]
  0000c	50		 push	 eax
  0000d	6a 13		 push	 19			; 00000013H
  0000f	e8 00 00 00 00	 call	 ?transmit_entity_comms_message@@YAXW4ENTITY_COMMS_MESSAGES@@PAUENTITY@@ZZ ; transmit_entity_comms_message
  00014	83 c4 08	 add	 esp, 8

; 300  : }

  00017	5f		 pop	 edi
  00018	5e		 pop	 esi
  00019	5b		 pop	 ebx
  0001a	8b e5		 mov	 esp, ebp
  0001c	5d		 pop	 ebp
  0001d	c2 04 00	 ret	 4
?destroy_client_family@@YGXPAUENTITY@@@Z ENDP		; destroy_client_family
_TEXT	ENDS
; Function compile flags: /Odtp /ZI
; File c:\users\nhv90\projects\eech\aphavoc\source\entity\mobile\aircraft\fixwing\fw_dstry.c
;	COMDAT ?destroy_server_family@@YGXPAUENTITY@@@Z
_TEXT	SEGMENT
tv73 = -68						; size = 4
_en$ = 8						; size = 4
?destroy_server_family@@YGXPAUENTITY@@@Z PROC		; destroy_server_family, COMDAT

; 279  : {

  00000	55		 push	 ebp
  00001	8b ec		 mov	 ebp, esp
  00003	83 ec 44	 sub	 esp, 68			; 00000044H
  00006	53		 push	 ebx
  00007	56		 push	 esi
  00008	57		 push	 edi

; 280  : 	destroy_client_server_entity_children (en, LIST_TYPE_MOVEMENT_DEPENDENT);

  00009	6a 1a		 push	 26			; 0000001aH
  0000b	8b 45 08	 mov	 eax, DWORD PTR _en$[ebp]
  0000e	50		 push	 eax
  0000f	e8 00 00 00 00	 call	 ?destroy_client_server_entity_children@@YGXPAUENTITY@@W4LIST_TYPES@@@Z ; destroy_client_server_entity_children

; 281  : 
; 282  : 	destroy_client_server_sound_effects (en);

  00014	8b 45 08	 mov	 eax, DWORD PTR _en$[ebp]
  00017	50		 push	 eax
  00018	e8 00 00 00 00	 call	 ?destroy_client_server_sound_effects@@YGXPAUENTITY@@@Z ; destroy_client_server_sound_effects

; 283  : 
; 284  : 	destroy_client_server_entity (en);

  0001d	83 7d 08 00	 cmp	 DWORD PTR _en$[ebp], 0
  00021	74 0a		 je	 SHORT $LN3@destroy_se
  00023	8b 45 08	 mov	 eax, DWORD PTR _en$[ebp]
  00026	8b 08		 mov	 ecx, DWORD PTR [eax]
  00028	89 4d bc	 mov	 DWORD PTR tv73[ebp], ecx
  0002b	eb 21		 jmp	 SHORT $LN4@destroy_se
$LN3@destroy_se:
  0002d	8b 15 00 00 00
	00		 mov	 edx, DWORD PTR ?__LINE__Var@?0??destroy_server_family@@YGXPAUENTITY@@@Z@4JA
  00033	83 c2 05	 add	 edx, 5
  00036	52		 push	 edx
  00037	68 00 00 00 00	 push	 OFFSET ??_C@_0FG@HCJPIALE@c?3?2users?2nhv90?2projects?2eech?2ap@
  0003c	a1 00 00 00 00	 mov	 eax, DWORD PTR ?null_entity_pointer_message@@3PBDB ; null_entity_pointer_message
  00041	50		 push	 eax
  00042	e8 00 00 00 00	 call	 ?process_assert@@YGXPBD0H@Z ; process_assert
  00047	c7 45 bc 00 00
	00 00		 mov	 DWORD PTR tv73[ebp], 0
$LN4@destroy_se:
  0004e	8b 4d 08	 mov	 ecx, DWORD PTR _en$[ebp]
  00051	51		 push	 ecx
  00052	8b 15 00 00 00
	00		 mov	 edx, DWORD PTR ?system_comms_model@@3W4COMMS_MODEL_TYPES@@A ; system_comms_model
  00058	c1 e2 02	 shl	 edx, 2
  0005b	8b 45 bc	 mov	 eax, DWORD PTR tv73[ebp]
  0005e	8b 8c c2 00 00
	00 00		 mov	 ecx, DWORD PTR ?fn_destroy_client_server_entity@@3PAY01P6GXPAUENTITY@@@ZA[edx+eax*8]
  00065	ff d1		 call	 ecx

; 285  : }

  00067	5f		 pop	 edi
  00068	5e		 pop	 esi
  00069	5b		 pop	 ebx
  0006a	8b e5		 mov	 esp, ebp
  0006c	5d		 pop	 ebp
  0006d	c2 04 00	 ret	 4
?destroy_server_family@@YGXPAUENTITY@@@Z ENDP		; destroy_server_family
_TEXT	ENDS
; Function compile flags: /Odtp /ZI
; File c:\users\nhv90\projects\eech\aphavoc\source\entity\mobile\aircraft\fixwing\fw_dstry.c
;	COMDAT ?destroy_local_family@@YGXPAUENTITY@@@Z
_TEXT	SEGMENT
_en$ = 8						; size = 4
?destroy_local_family@@YGXPAUENTITY@@@Z PROC		; destroy_local_family, COMDAT

; 266  : {

  00000	55		 push	 ebp
  00001	8b ec		 mov	 ebp, esp
  00003	83 ec 40	 sub	 esp, 64			; 00000040H
  00006	53		 push	 ebx
  00007	56		 push	 esi
  00008	57		 push	 edi

; 267  : 	destroy_local_entity_children (en, LIST_TYPE_MOVEMENT_DEPENDENT);

  00009	6a 1a		 push	 26			; 0000001aH
  0000b	8b 45 08	 mov	 eax, DWORD PTR _en$[ebp]
  0000e	50		 push	 eax
  0000f	e8 00 00 00 00	 call	 ?destroy_local_entity_children@@YGXPAUENTITY@@W4LIST_TYPES@@@Z ; destroy_local_entity_children

; 268  : 
; 269  : 	destroy_local_sound_effects (en);

  00014	8b 45 08	 mov	 eax, DWORD PTR _en$[ebp]
  00017	50		 push	 eax
  00018	e8 00 00 00 00	 call	 ?destroy_local_sound_effects@@YGXPAUENTITY@@@Z ; destroy_local_sound_effects

; 270  : 
; 271  : 	destroy_local_entity (en);

  0001d	8b 45 08	 mov	 eax, DWORD PTR _en$[ebp]
  00020	50		 push	 eax
  00021	e8 00 00 00 00	 call	 ?destroy_local_entity@@YGXPAUENTITY@@@Z ; destroy_local_entity

; 272  : }

  00026	5f		 pop	 edi
  00027	5e		 pop	 esi
  00028	5b		 pop	 ebx
  00029	8b e5		 mov	 esp, ebp
  0002b	5d		 pop	 ebp
  0002c	c2 04 00	 ret	 4
?destroy_local_family@@YGXPAUENTITY@@@Z ENDP		; destroy_local_family
_TEXT	ENDS
; Function compile flags: /Odtp /ZI
; File c:\users\nhv90\projects\eech\aphavoc\source\entity\mobile\aircraft\fixwing\fw_dstry.c
;	COMDAT ?destroy_client@@YGXPAUENTITY@@@Z
_TEXT	SEGMENT
_en$ = 8						; size = 4
?destroy_client@@YGXPAUENTITY@@@Z PROC			; destroy_client, COMDAT

; 242  : {

  00000	55		 push	 ebp
  00001	8b ec		 mov	 ebp, esp
  00003	83 ec 40	 sub	 esp, 64			; 00000040H
  00006	53		 push	 ebx
  00007	56		 push	 esi
  00008	57		 push	 edi

; 243  : 	if (get_comms_data_flow () == COMMS_DATA_FLOW_TX)

  00009	83 3d 00 00 00
	00 00		 cmp	 DWORD PTR ?system_comms_data_flow@@3W4COMMS_DATA_FLOW_TYPES@@A, 0 ; system_comms_data_flow
  00010	75 2c		 jne	 SHORT $LN2@destroy_cl

; 244  : 	{
; 245  : 		validate_client_server_remote_fn ();

  00012	e8 00 00 00 00	 call	 ?assert_client_server_remote_fn@@YGHXZ ; assert_client_server_remote_fn
  00017	85 c0		 test	 eax, eax
  00019	75 18		 jne	 SHORT $LN4@destroy_cl
  0001b	a1 00 00 00 00	 mov	 eax, DWORD PTR ?__LINE__Var@?0??destroy_client@@YGXPAUENTITY@@@Z@4JA
  00020	83 c0 03	 add	 eax, 3
  00023	50		 push	 eax
  00024	68 00 00 00 00	 push	 OFFSET ??_C@_0FG@HCJPIALE@c?3?2users?2nhv90?2projects?2eech?2ap@
  00029	68 00 00 00 00	 push	 OFFSET ??_C@_0CC@BNNNEGEG@assert_client_server_remote_fn?5@
  0002e	e8 00 00 00 00	 call	 ?process_assert@@YGXPBD0H@Z ; process_assert
$LN4@destroy_cl:

; 246  : 
; 247  : 		destroy_remote (en);

  00033	8b 45 08	 mov	 eax, DWORD PTR _en$[ebp]
  00036	50		 push	 eax
  00037	e8 00 00 00 00	 call	 ?destroy_remote@@YGXPAUENTITY@@@Z ; destroy_remote

; 248  : 	}
; 249  : 	else

  0003c	eb 2a		 jmp	 SHORT $LN1@destroy_cl
$LN2@destroy_cl:

; 250  : 	{
; 251  : 		validate_client_server_local_fn ();

  0003e	e8 00 00 00 00	 call	 ?assert_client_server_local_fn@@YGHXZ ; assert_client_server_local_fn
  00043	85 c0		 test	 eax, eax
  00045	75 18		 jne	 SHORT $LN5@destroy_cl
  00047	a1 00 00 00 00	 mov	 eax, DWORD PTR ?__LINE__Var@?0??destroy_client@@YGXPAUENTITY@@@Z@4JA
  0004c	83 c0 09	 add	 eax, 9
  0004f	50		 push	 eax
  00050	68 00 00 00 00	 push	 OFFSET ??_C@_0FG@HCJPIALE@c?3?2users?2nhv90?2projects?2eech?2ap@
  00055	68 00 00 00 00	 push	 OFFSET ??_C@_0CB@CFOCLFOK@assert_client_server_local_fn?5?$CI@
  0005a	e8 00 00 00 00	 call	 ?process_assert@@YGXPBD0H@Z ; process_assert
$LN5@destroy_cl:

; 252  : 
; 253  : 		//
; 254  : 		// destroy local using 'full' function
; 255  : 		//
; 256  : 
; 257  : 		destroy_local_entity (en);

  0005f	8b 45 08	 mov	 eax, DWORD PTR _en$[ebp]
  00062	50		 push	 eax
  00063	e8 00 00 00 00	 call	 ?destroy_local_entity@@YGXPAUENTITY@@@Z ; destroy_local_entity
$LN1@destroy_cl:

; 258  : 	}
; 259  : }

  00068	5f		 pop	 edi
  00069	5e		 pop	 esi
  0006a	5b		 pop	 ebx
  0006b	8b e5		 mov	 esp, ebp
  0006d	5d		 pop	 ebp
  0006e	c2 04 00	 ret	 4
?destroy_client@@YGXPAUENTITY@@@Z ENDP			; destroy_client
_TEXT	ENDS
; Function compile flags: /Odtp /ZI
; File c:\users\nhv90\projects\eech\aphavoc\source\entity\mobile\aircraft\fixwing\fw_dstry.c
;	COMDAT ?destroy_server@@YGXPAUENTITY@@@Z
_TEXT	SEGMENT
_en$ = 8						; size = 4
?destroy_server@@YGXPAUENTITY@@@Z PROC			; destroy_server, COMDAT

; 219  : {

  00000	55		 push	 ebp
  00001	8b ec		 mov	 ebp, esp
  00003	83 ec 40	 sub	 esp, 64			; 00000040H
  00006	53		 push	 ebx
  00007	56		 push	 esi
  00008	57		 push	 edi

; 220  : 	//
; 221  : 	// destroy remote entity first (keeping local entity valid)
; 222  : 	//
; 223  : 
; 224  : 	validate_client_server_remote_fn ();

  00009	e8 00 00 00 00	 call	 ?assert_client_server_remote_fn@@YGHXZ ; assert_client_server_remote_fn
  0000e	85 c0		 test	 eax, eax
  00010	75 18		 jne	 SHORT $LN2@destroy_se
  00012	a1 00 00 00 00	 mov	 eax, DWORD PTR ?__LINE__Var@?0??destroy_server@@YGXPAUENTITY@@@Z@4JA
  00017	83 c0 05	 add	 eax, 5
  0001a	50		 push	 eax
  0001b	68 00 00 00 00	 push	 OFFSET ??_C@_0FG@HCJPIALE@c?3?2users?2nhv90?2projects?2eech?2ap@
  00020	68 00 00 00 00	 push	 OFFSET ??_C@_0CC@BNNNEGEG@assert_client_server_remote_fn?5@
  00025	e8 00 00 00 00	 call	 ?process_assert@@YGXPBD0H@Z ; process_assert
$LN2@destroy_se:

; 225  : 
; 226  : 	destroy_remote (en);

  0002a	8b 45 08	 mov	 eax, DWORD PTR _en$[ebp]
  0002d	50		 push	 eax
  0002e	e8 00 00 00 00	 call	 ?destroy_remote@@YGXPAUENTITY@@@Z ; destroy_remote

; 227  : 
; 228  : 	validate_client_server_local_fn ();

  00033	e8 00 00 00 00	 call	 ?assert_client_server_local_fn@@YGHXZ ; assert_client_server_local_fn
  00038	85 c0		 test	 eax, eax
  0003a	75 18		 jne	 SHORT $LN3@destroy_se
  0003c	a1 00 00 00 00	 mov	 eax, DWORD PTR ?__LINE__Var@?0??destroy_server@@YGXPAUENTITY@@@Z@4JA
  00041	83 c0 09	 add	 eax, 9
  00044	50		 push	 eax
  00045	68 00 00 00 00	 push	 OFFSET ??_C@_0FG@HCJPIALE@c?3?2users?2nhv90?2projects?2eech?2ap@
  0004a	68 00 00 00 00	 push	 OFFSET ??_C@_0CB@CFOCLFOK@assert_client_server_local_fn?5?$CI@
  0004f	e8 00 00 00 00	 call	 ?process_assert@@YGXPBD0H@Z ; process_assert
$LN3@destroy_se:

; 229  : 
; 230  : 	//
; 231  : 	// destroy local using 'full' function
; 232  : 	//
; 233  : 
; 234  : 	destroy_local_entity (en);

  00054	8b 45 08	 mov	 eax, DWORD PTR _en$[ebp]
  00057	50		 push	 eax
  00058	e8 00 00 00 00	 call	 ?destroy_local_entity@@YGXPAUENTITY@@@Z ; destroy_local_entity

; 235  : }

  0005d	5f		 pop	 edi
  0005e	5e		 pop	 esi
  0005f	5b		 pop	 ebx
  00060	8b e5		 mov	 esp, ebp
  00062	5d		 pop	 ebp
  00063	c2 04 00	 ret	 4
?destroy_server@@YGXPAUENTITY@@@Z ENDP			; destroy_server
_TEXT	ENDS
; Function compile flags: /Odtp /ZI
; File c:\users\nhv90\projects\eech\aphavoc\source\entity\mobile\aircraft\fixwing\fw_dstry.c
;	COMDAT ?destroy_remote@@YGXPAUENTITY@@@Z
_TEXT	SEGMENT
_en$ = 8						; size = 4
?destroy_remote@@YGXPAUENTITY@@@Z PROC			; destroy_remote, COMDAT

; 204  : {

  00000	55		 push	 ebp
  00001	8b ec		 mov	 ebp, esp
  00003	83 ec 40	 sub	 esp, 64			; 00000040H
  00006	53		 push	 ebx
  00007	56		 push	 esi
  00008	57		 push	 edi

; 205  : 	#if DEBUG_MODULE >= 2
; 206  : 
; 207  : 	debug_log_entity_args (ENTITY_DEBUG_REMOTE, ENTITY_DEBUG_DESTROY, en);
; 208  : 
; 209  : 	#endif
; 210  : 
; 211  : 	transmit_entity_comms_message (ENTITY_COMMS_DESTROY, en);

  00009	8b 45 08	 mov	 eax, DWORD PTR _en$[ebp]
  0000c	50		 push	 eax
  0000d	6a 12		 push	 18			; 00000012H
  0000f	e8 00 00 00 00	 call	 ?transmit_entity_comms_message@@YAXW4ENTITY_COMMS_MESSAGES@@PAUENTITY@@ZZ ; transmit_entity_comms_message
  00014	83 c4 08	 add	 esp, 8

; 212  : }

  00017	5f		 pop	 edi
  00018	5e		 pop	 esi
  00019	5b		 pop	 ebx
  0001a	8b e5		 mov	 esp, ebp
  0001c	5d		 pop	 ebp
  0001d	c2 04 00	 ret	 4
?destroy_remote@@YGXPAUENTITY@@@Z ENDP			; destroy_remote
_TEXT	ENDS
; Function compile flags: /Odtp /ZI
; File c:\users\nhv90\projects\eech\aphavoc\source\entity\mobile\aircraft\fixwing\fw_dstry.c
;	COMDAT ?destroy_local@@YGXPAUENTITY@@@Z
_TEXT	SEGMENT
tv137 = -76						; size = 4
tv80 = -76						; size = 4
tv129 = -72						; size = 4
tv72 = -72						; size = 4
_raw$ = -4						; size = 4
_en$ = 8						; size = 4
?destroy_local@@YGXPAUENTITY@@@Z PROC			; destroy_local, COMDAT

; 84   : {

  00000	55		 push	 ebp
  00001	8b ec		 mov	 ebp, esp
  00003	83 ec 4c	 sub	 esp, 76			; 0000004cH
  00006	53		 push	 ebx
  00007	56		 push	 esi
  00008	57		 push	 edi

; 85   : 
; 86   : 	fixed_wing
; 87   : 		*raw;
; 88   : 
; 89   : 	////////////////////////////////////////
; 90   : 	//
; 91   : 	// PRE-AMBLE
; 92   : 	//
; 93   : 	////////////////////////////////////////
; 94   : 
; 95   : 	#if DEBUG_MODULE >= 2
; 96   : 
; 97   : 	debug_log_entity_args (ENTITY_DEBUG_LOCAL, ENTITY_DEBUG_DESTROY, en);
; 98   : 
; 99   : 	#endif
; 100  : 
; 101  : 	raw = (fixed_wing *) get_local_entity_data (en);

  00009	8b 45 08	 mov	 eax, DWORD PTR _en$[ebp]
  0000c	8b 48 04	 mov	 ecx, DWORD PTR [eax+4]
  0000f	89 4d fc	 mov	 DWORD PTR _raw$[ebp], ecx

; 102  : 
; 103  : 	if (get_game_status () == GAME_STATUS_INITIALISED)

  00012	83 3d 00 00 00
	00 03		 cmp	 DWORD PTR ?game_status@@3W4GAME_STATUS_TYPES@@A, 3 ; game_status
  00019	0f 85 9b 00 00
	00		 jne	 $LN2@destroy_lo

; 104  : 	{
; 105  : 		ASSERT (!get_local_entity_int_value (en, INT_TYPE_ALIVE));

  0001f	83 7d 08 00	 cmp	 DWORD PTR _en$[ebp], 0
  00023	74 0a		 je	 SHORT $LN7@destroy_lo
  00025	8b 45 08	 mov	 eax, DWORD PTR _en$[ebp]
  00028	8b 08		 mov	 ecx, DWORD PTR [eax]
  0002a	89 4d b8	 mov	 DWORD PTR tv72[ebp], ecx
  0002d	eb 21		 jmp	 SHORT $LN8@destroy_lo
$LN7@destroy_lo:
  0002f	8b 15 00 00 00
	00		 mov	 edx, DWORD PTR ?__LINE__Var@?0??destroy_local@@YGXPAUENTITY@@@Z@4JA
  00035	83 c2 15	 add	 edx, 21			; 00000015H
  00038	52		 push	 edx
  00039	68 00 00 00 00	 push	 OFFSET ??_C@_0FG@HCJPIALE@c?3?2users?2nhv90?2projects?2eech?2ap@
  0003e	a1 00 00 00 00	 mov	 eax, DWORD PTR ?null_entity_pointer_message@@3PBDB ; null_entity_pointer_message
  00043	50		 push	 eax
  00044	e8 00 00 00 00	 call	 ?process_assert@@YGXPBD0H@Z ; process_assert
  00049	c7 45 b8 00 00
	00 00		 mov	 DWORD PTR tv72[ebp], 0
$LN8@destroy_lo:
  00050	b9 01 00 00 00	 mov	 ecx, 1
  00055	85 c9		 test	 ecx, ecx
  00057	74 09		 je	 SHORT $LN9@destroy_lo
  00059	c7 45 b4 07 00
	00 00		 mov	 DWORD PTR tv80[ebp], 7
  00060	eb 21		 jmp	 SHORT $LN10@destroy_lo
$LN9@destroy_lo:
  00062	8b 15 00 00 00
	00		 mov	 edx, DWORD PTR ?__LINE__Var@?0??destroy_local@@YGXPAUENTITY@@@Z@4JA
  00068	83 c2 15	 add	 edx, 21			; 00000015H
  0006b	52		 push	 edx
  0006c	68 00 00 00 00	 push	 OFFSET ??_C@_0FG@HCJPIALE@c?3?2users?2nhv90?2projects?2eech?2ap@
  00071	a1 00 00 00 00	 mov	 eax, DWORD PTR ?overload_invalid_int_type_message@@3PBDB ; overload_invalid_int_type_message
  00076	50		 push	 eax
  00077	e8 00 00 00 00	 call	 ?process_assert@@YGXPBD0H@Z ; process_assert
  0007c	c7 45 b4 00 00
	00 00		 mov	 DWORD PTR tv80[ebp], 0
$LN10@destroy_lo:
  00083	6a 07		 push	 7
  00085	8b 4d 08	 mov	 ecx, DWORD PTR _en$[ebp]
  00088	51		 push	 ecx
  00089	69 55 b8 5c 04
	00 00		 imul	 edx, DWORD PTR tv72[ebp], 1116
  00090	8b 45 b4	 mov	 eax, DWORD PTR tv80[ebp]
  00093	8b 8c 82 00 00
	00 00		 mov	 ecx, DWORD PTR ?fn_get_local_entity_int_value@@3PAY0BBH@P6GHPAUENTITY@@W4INT_TYPES@@@ZA[edx+eax*4]
  0009a	ff d1		 call	 ecx
  0009c	85 c0		 test	 eax, eax
  0009e	74 18		 je	 SHORT $LN4@destroy_lo
  000a0	a1 00 00 00 00	 mov	 eax, DWORD PTR ?__LINE__Var@?0??destroy_local@@YGXPAUENTITY@@@Z@4JA
  000a5	83 c0 15	 add	 eax, 21			; 00000015H
  000a8	50		 push	 eax
  000a9	68 00 00 00 00	 push	 OFFSET ??_C@_0FG@HCJPIALE@c?3?2users?2nhv90?2projects?2eech?2ap@
  000ae	68 00 00 00 00	 push	 OFFSET ??_C@_0DB@EMHJHKIB@?$CBget_local_entity_int_value?5?$CIen@
  000b3	e8 00 00 00 00	 call	 ?process_assert@@YGXPBD0H@Z ; process_assert
$LN4@destroy_lo:

; 106  : 	}
; 107  : 	else

  000b8	eb 7f		 jmp	 SHORT $LN3@destroy_lo
$LN2@destroy_lo:

; 108  : 	{
; 109  : 		set_local_entity_int_value (en, INT_TYPE_ALIVE, FALSE);

  000ba	83 7d 08 00	 cmp	 DWORD PTR _en$[ebp], 0
  000be	74 0a		 je	 SHORT $LN11@destroy_lo
  000c0	8b 45 08	 mov	 eax, DWORD PTR _en$[ebp]
  000c3	8b 08		 mov	 ecx, DWORD PTR [eax]
  000c5	89 4d b8	 mov	 DWORD PTR tv129[ebp], ecx
  000c8	eb 21		 jmp	 SHORT $LN12@destroy_lo
$LN11@destroy_lo:
  000ca	8b 15 00 00 00
	00		 mov	 edx, DWORD PTR ?__LINE__Var@?0??destroy_local@@YGXPAUENTITY@@@Z@4JA
  000d0	83 c2 19	 add	 edx, 25			; 00000019H
  000d3	52		 push	 edx
  000d4	68 00 00 00 00	 push	 OFFSET ??_C@_0FG@HCJPIALE@c?3?2users?2nhv90?2projects?2eech?2ap@
  000d9	a1 00 00 00 00	 mov	 eax, DWORD PTR ?null_entity_pointer_message@@3PBDB ; null_entity_pointer_message
  000de	50		 push	 eax
  000df	e8 00 00 00 00	 call	 ?process_assert@@YGXPBD0H@Z ; process_assert
  000e4	c7 45 b8 00 00
	00 00		 mov	 DWORD PTR tv129[ebp], 0
$LN12@destroy_lo:
  000eb	b9 01 00 00 00	 mov	 ecx, 1
  000f0	85 c9		 test	 ecx, ecx
  000f2	74 09		 je	 SHORT $LN13@destroy_lo
  000f4	c7 45 b4 07 00
	00 00		 mov	 DWORD PTR tv137[ebp], 7
  000fb	eb 21		 jmp	 SHORT $LN14@destroy_lo
$LN13@destroy_lo:
  000fd	8b 15 00 00 00
	00		 mov	 edx, DWORD PTR ?__LINE__Var@?0??destroy_local@@YGXPAUENTITY@@@Z@4JA
  00103	83 c2 19	 add	 edx, 25			; 00000019H
  00106	52		 push	 edx
  00107	68 00 00 00 00	 push	 OFFSET ??_C@_0FG@HCJPIALE@c?3?2users?2nhv90?2projects?2eech?2ap@
  0010c	a1 00 00 00 00	 mov	 eax, DWORD PTR ?overload_invalid_int_type_message@@3PBDB ; overload_invalid_int_type_message
  00111	50		 push	 eax
  00112	e8 00 00 00 00	 call	 ?process_assert@@YGXPBD0H@Z ; process_assert
  00117	c7 45 b4 00 00
	00 00		 mov	 DWORD PTR tv137[ebp], 0
$LN14@destroy_lo:
  0011e	6a 00		 push	 0
  00120	6a 07		 push	 7
  00122	8b 4d 08	 mov	 ecx, DWORD PTR _en$[ebp]
  00125	51		 push	 ecx
  00126	69 55 b8 5c 04
	00 00		 imul	 edx, DWORD PTR tv129[ebp], 1116
  0012d	8b 45 b4	 mov	 eax, DWORD PTR tv137[ebp]
  00130	8b 8c 82 00 00
	00 00		 mov	 ecx, DWORD PTR ?fn_set_local_entity_int_value@@3PAY0BBH@P6GXPAUENTITY@@W4INT_TYPES@@H@ZA[edx+eax*4]
  00137	ff d1		 call	 ecx
$LN3@destroy_lo:

; 110  : 	}
; 111  : 
; 112  : 	////////////////////////////////////////
; 113  : 	//
; 114  : 	// VALIDATE
; 115  : 	//
; 116  : 	////////////////////////////////////////
; 117  : 
; 118  : 	////////////////////////////////////////
; 119  : 	//
; 120  : 	// DESTROY COMPONENTS
; 121  : 	//
; 122  : 	////////////////////////////////////////
; 123  : 
; 124  : 	destruct_3d_object (raw->ac.inst3d);

  00139	8b 45 fc	 mov	 eax, DWORD PTR _raw$[ebp]
  0013c	8b 88 84 00 00
	00		 mov	 ecx, DWORD PTR [eax+132]
  00142	51		 push	 ecx
  00143	e8 00 00 00 00	 call	 ?destruct_3d_object@@YGXPAUOBJECT_3D_INSTANCE@@@Z ; destruct_3d_object

; 125  : 
; 126  : 	free_mem (raw->ac.weapon_package_status_array);

  00148	8b 45 fc	 mov	 eax, DWORD PTR _raw$[ebp]
  0014b	8b 88 20 01 00
	00		 mov	 ecx, DWORD PTR [eax+288]
  00151	51		 push	 ecx
  00152	e8 00 00 00 00	 call	 ?free_mem@@YGXPAX@Z	; free_mem

; 127  : 
; 128  : 	if (raw->ac.sound_effect_data)

  00157	8b 45 fc	 mov	 eax, DWORD PTR _raw$[ebp]
  0015a	83 b8 28 01 00
	00 00		 cmp	 DWORD PTR [eax+296], 0
  00161	74 0f		 je	 SHORT $LN5@destroy_lo

; 129  : 	{
; 130  : 
; 131  : 		destroy_system_sound_effect (raw->ac.sound_effect_data);

  00163	8b 45 fc	 mov	 eax, DWORD PTR _raw$[ebp]
  00166	8b 88 28 01 00
	00		 mov	 ecx, DWORD PTR [eax+296]
  0016c	51		 push	 ecx
  0016d	e8 00 00 00 00	 call	 ?destroy_system_sound_effect@@YGXPAUSYSTEM_SOUND_EFFECT@@@Z ; destroy_system_sound_effect
$LN5@destroy_lo:

; 132  : 	}
; 133  : 
; 134  : 	////////////////////////////////////////
; 135  : 	//
; 136  : 	// UNLINK FROM SYSTEM
; 137  : 	//
; 138  : 	////////////////////////////////////////
; 139  : 
; 140  : 	//
; 141  : 	// fixed_wing
; 142  : 	//
; 143  : 
; 144  : 	//
; 145  : 	// aircraft
; 146  : 	//
; 147  : 
; 148  : 	// aircrew_root
; 149  : 
; 150  : 	unlink_local_entity_children (en, LIST_TYPE_TASK_DEPENDENT);

  00172	6a 27		 push	 39			; 00000027H
  00174	8b 45 08	 mov	 eax, DWORD PTR _en$[ebp]
  00177	50		 push	 eax
  00178	e8 00 00 00 00	 call	 ?unlink_local_entity_children@@YGXPAUENTITY@@W4LIST_TYPES@@@Z ; unlink_local_entity_children

; 151  : 
; 152  : 	unlink_local_entity_children (en, LIST_TYPE_LAUNCHED_WEAPON);

  0017d	6a 18		 push	 24			; 00000018H
  0017f	8b 45 08	 mov	 eax, DWORD PTR _en$[ebp]
  00182	50		 push	 eax
  00183	e8 00 00 00 00	 call	 ?unlink_local_entity_children@@YGXPAUENTITY@@W4LIST_TYPES@@@Z ; unlink_local_entity_children

; 153  : 
; 154  : 	delete_local_entity_from_parents_child_list (en, LIST_TYPE_FOLLOWER);

  00188	6a 0d		 push	 13			; 0000000dH
  0018a	8b 45 08	 mov	 eax, DWORD PTR _en$[ebp]
  0018d	50		 push	 eax
  0018e	e8 00 00 00 00	 call	 ?delete_local_entity_from_parents_child_list@@YGXPAUENTITY@@W4LIST_TYPES@@@Z ; delete_local_entity_from_parents_child_list

; 155  : 
; 156  : 	delete_local_entity_from_parents_child_list (en, LIST_TYPE_DESIGNATED_TARGET); // Jabberwock 031107 Designated targets

  00193	6a 0a		 push	 10			; 0000000aH
  00195	8b 45 08	 mov	 eax, DWORD PTR _en$[ebp]
  00198	50		 push	 eax
  00199	e8 00 00 00 00	 call	 ?delete_local_entity_from_parents_child_list@@YGXPAUENTITY@@W4LIST_TYPES@@@Z ; delete_local_entity_from_parents_child_list

; 157  : 
; 158  : 	delete_local_entity_from_parents_child_list (en, LIST_TYPE_GUNSHIP_TARGET);

  0019e	6a 12		 push	 18			; 00000012H
  001a0	8b 45 08	 mov	 eax, DWORD PTR _en$[ebp]
  001a3	50		 push	 eax
  001a4	e8 00 00 00 00	 call	 ?delete_local_entity_from_parents_child_list@@YGXPAUENTITY@@W4LIST_TYPES@@@Z ; delete_local_entity_from_parents_child_list

; 159  : 
; 160  : 	delete_local_entity_from_parents_child_list (en, LIST_TYPE_MEMBER);

  001a9	6a 19		 push	 25			; 00000019H
  001ab	8b 45 08	 mov	 eax, DWORD PTR _en$[ebp]
  001ae	50		 push	 eax
  001af	e8 00 00 00 00	 call	 ?delete_local_entity_from_parents_child_list@@YGXPAUENTITY@@W4LIST_TYPES@@@Z ; delete_local_entity_from_parents_child_list

; 161  : 
; 162  : 	delete_local_entity_from_parents_child_list (en, LIST_TYPE_VIEW);

  001b4	6a 2a		 push	 42			; 0000002aH
  001b6	8b 45 08	 mov	 eax, DWORD PTR _en$[ebp]
  001b9	50		 push	 eax
  001ba	e8 00 00 00 00	 call	 ?delete_local_entity_from_parents_child_list@@YGXPAUENTITY@@W4LIST_TYPES@@@Z ; delete_local_entity_from_parents_child_list

; 163  : 
; 164  : 	delete_local_entity_from_parents_child_list (en, LIST_TYPE_TAKEOFF_QUEUE);

  001bf	6a 25		 push	 37			; 00000025H
  001c1	8b 45 08	 mov	 eax, DWORD PTR _en$[ebp]
  001c4	50		 push	 eax
  001c5	e8 00 00 00 00	 call	 ?delete_local_entity_from_parents_child_list@@YGXPAUENTITY@@W4LIST_TYPES@@@Z ; delete_local_entity_from_parents_child_list

; 165  : 
; 166  : 	//
; 167  : 	// mobile
; 168  : 	//
; 169  : 
; 170  : 	unlink_local_entity_children (en, LIST_TYPE_SPECIAL_EFFECT);

  001ca	6a 24		 push	 36			; 00000024H
  001cc	8b 45 08	 mov	 eax, DWORD PTR _en$[ebp]
  001cf	50		 push	 eax
  001d0	e8 00 00 00 00	 call	 ?unlink_local_entity_children@@YGXPAUENTITY@@W4LIST_TYPES@@@Z ; unlink_local_entity_children

; 171  : 
; 172  : 	unlink_local_entity_children (en, LIST_TYPE_TARGET);

  001d5	6a 26		 push	 38			; 00000026H
  001d7	8b 45 08	 mov	 eax, DWORD PTR _en$[ebp]
  001da	50		 push	 eax
  001db	e8 00 00 00 00	 call	 ?unlink_local_entity_children@@YGXPAUENTITY@@W4LIST_TYPES@@@Z ; unlink_local_entity_children

; 173  : 
; 174  : 	delete_local_entity_from_parents_child_list (en, LIST_TYPE_PADLOCK);

  001e0	6a 1b		 push	 27			; 0000001bH
  001e2	8b 45 08	 mov	 eax, DWORD PTR _en$[ebp]
  001e5	50		 push	 eax
  001e6	e8 00 00 00 00	 call	 ?delete_local_entity_from_parents_child_list@@YGXPAUENTITY@@W4LIST_TYPES@@@Z ; delete_local_entity_from_parents_child_list

; 175  : 
; 176  : 	delete_local_entity_from_parents_child_list (en, LIST_TYPE_SECTOR);

  001eb	6a 21		 push	 33			; 00000021H
  001ed	8b 45 08	 mov	 eax, DWORD PTR _en$[ebp]
  001f0	50		 push	 eax
  001f1	e8 00 00 00 00	 call	 ?delete_local_entity_from_parents_child_list@@YGXPAUENTITY@@W4LIST_TYPES@@@Z ; delete_local_entity_from_parents_child_list

; 177  : 
; 178  : 	delete_local_entity_from_parents_child_list (en, LIST_TYPE_TARGET);

  001f6	6a 26		 push	 38			; 00000026H
  001f8	8b 45 08	 mov	 eax, DWORD PTR _en$[ebp]
  001fb	50		 push	 eax
  001fc	e8 00 00 00 00	 call	 ?delete_local_entity_from_parents_child_list@@YGXPAUENTITY@@W4LIST_TYPES@@@Z ; delete_local_entity_from_parents_child_list

; 179  : 
; 180  : 	delete_local_entity_from_parents_child_list (en, LIST_TYPE_UPDATE);

  00201	6a 29		 push	 41			; 00000029H
  00203	8b 45 08	 mov	 eax, DWORD PTR _en$[ebp]
  00206	50		 push	 eax
  00207	e8 00 00 00 00	 call	 ?delete_local_entity_from_parents_child_list@@YGXPAUENTITY@@W4LIST_TYPES@@@Z ; delete_local_entity_from_parents_child_list

; 181  : 
; 182  : 	#if LANDING_ROUTE_CHECK
; 183  : 
; 184  : 	destroy_debug_entity_landing_route_check (en);

  0020c	8b 45 08	 mov	 eax, DWORD PTR _en$[ebp]
  0020f	50		 push	 eax
  00210	e8 00 00 00 00	 call	 ?destroy_debug_entity_landing_route_check@@YGXPAUENTITY@@@Z ; destroy_debug_entity_landing_route_check

; 185  : 
; 186  : 	#endif
; 187  : 
; 188  : 	////////////////////////////////////////
; 189  : 	//
; 190  : 	// FREE ENTITY DATA
; 191  : 	//
; 192  : 	////////////////////////////////////////
; 193  : 
; 194  : 	free_mem (raw);

  00215	8b 45 fc	 mov	 eax, DWORD PTR _raw$[ebp]
  00218	50		 push	 eax
  00219	e8 00 00 00 00	 call	 ?free_mem@@YGXPAX@Z	; free_mem

; 195  : 
; 196  : 	set_free_entity (en);

  0021e	8b 45 08	 mov	 eax, DWORD PTR _en$[ebp]
  00221	50		 push	 eax
  00222	e8 00 00 00 00	 call	 ?set_free_entity@@YGXPAUENTITY@@@Z ; set_free_entity

; 197  : }

  00227	5f		 pop	 edi
  00228	5e		 pop	 esi
  00229	5b		 pop	 ebx
  0022a	8b e5		 mov	 esp, ebp
  0022c	5d		 pop	 ebp
  0022d	c2 04 00	 ret	 4
?destroy_local@@YGXPAUENTITY@@@Z ENDP			; destroy_local
_TEXT	ENDS
; Function compile flags: /Odtp /ZI
; File c:\users\nhv90\projects\eech\aphavoc\source\entity\mobile\aircraft\fixwing\fw_dstry.c
;	COMDAT ?overload_fixed_wing_destroy_functions@@YGXXZ
_TEXT	SEGMENT
?overload_fixed_wing_destroy_functions@@YGXXZ PROC	; overload_fixed_wing_destroy_functions, COMDAT

; 659  : {

  00000	55		 push	 ebp
  00001	8b ec		 mov	 ebp, esp
  00003	83 ec 40	 sub	 esp, 64			; 00000040H
  00006	53		 push	 ebx
  00007	56		 push	 esi
  00008	57		 push	 edi

; 660  : 	fn_destroy_local_entity						[ENTITY_TYPE_FIXED_WING]		  					= destroy_local;

  00009	b8 04 00 00 00	 mov	 eax, 4
  0000e	6b c8 0a	 imul	 ecx, eax, 10
  00011	c7 81 00 00 00
	00 00 00 00 00	 mov	 DWORD PTR ?fn_destroy_local_entity@@3PAP6GXPAUENTITY@@@ZA[ecx], OFFSET ?destroy_local@@YGXPAUENTITY@@@Z ; destroy_local

; 661  : 	fn_destroy_client_server_entity			[ENTITY_TYPE_FIXED_WING][COMMS_MODEL_SERVER]	= destroy_server;

  0001b	b8 08 00 00 00	 mov	 eax, 8
  00020	6b c8 0a	 imul	 ecx, eax, 10
  00023	ba 04 00 00 00	 mov	 edx, 4
  00028	6b c2 00	 imul	 eax, edx, 0
  0002b	c7 84 01 00 00
	00 00 00 00 00
	00		 mov	 DWORD PTR ?fn_destroy_client_server_entity@@3PAY01P6GXPAUENTITY@@@ZA[ecx+eax], OFFSET ?destroy_server@@YGXPAUENTITY@@@Z ; destroy_server

; 662  : 	fn_destroy_client_server_entity			[ENTITY_TYPE_FIXED_WING][COMMS_MODEL_CLIENT]	= destroy_client;

  00036	b8 08 00 00 00	 mov	 eax, 8
  0003b	6b c8 0a	 imul	 ecx, eax, 10
  0003e	ba 04 00 00 00	 mov	 edx, 4
  00043	c1 e2 00	 shl	 edx, 0
  00046	c7 84 11 00 00
	00 00 00 00 00
	00		 mov	 DWORD PTR ?fn_destroy_client_server_entity@@3PAY01P6GXPAUENTITY@@@ZA[ecx+edx], OFFSET ?destroy_client@@YGXPAUENTITY@@@Z ; destroy_client

; 663  : 
; 664  : 	fn_destroy_local_entity_family			[ENTITY_TYPE_FIXED_WING]		  	  			  	= destroy_local_family;

  00051	b8 04 00 00 00	 mov	 eax, 4
  00056	6b c8 0a	 imul	 ecx, eax, 10
  00059	c7 81 00 00 00
	00 00 00 00 00	 mov	 DWORD PTR ?fn_destroy_local_entity_family@@3PAP6GXPAUENTITY@@@ZA[ecx], OFFSET ?destroy_local_family@@YGXPAUENTITY@@@Z ; destroy_local_family

; 665  : 	fn_destroy_client_server_entity_family	[ENTITY_TYPE_FIXED_WING][COMMS_MODEL_SERVER]	= destroy_server_family;

  00063	b8 08 00 00 00	 mov	 eax, 8
  00068	6b c8 0a	 imul	 ecx, eax, 10
  0006b	ba 04 00 00 00	 mov	 edx, 4
  00070	6b c2 00	 imul	 eax, edx, 0
  00073	c7 84 01 00 00
	00 00 00 00 00
	00		 mov	 DWORD PTR ?fn_destroy_client_server_entity_family@@3PAY01P6GXPAUENTITY@@@ZA[ecx+eax], OFFSET ?destroy_server_family@@YGXPAUENTITY@@@Z ; destroy_server_family

; 666  : 	fn_destroy_client_server_entity_family	[ENTITY_TYPE_FIXED_WING][COMMS_MODEL_CLIENT]	= destroy_client_family;

  0007e	b8 08 00 00 00	 mov	 eax, 8
  00083	6b c8 0a	 imul	 ecx, eax, 10
  00086	ba 04 00 00 00	 mov	 edx, 4
  0008b	c1 e2 00	 shl	 edx, 0
  0008e	c7 84 11 00 00
	00 00 00 00 00
	00		 mov	 DWORD PTR ?fn_destroy_client_server_entity_family@@3PAY01P6GXPAUENTITY@@@ZA[ecx+edx], OFFSET ?destroy_client_family@@YGXPAUENTITY@@@Z ; destroy_client_family

; 667  : 
; 668  : 	fn_kill_local_entity							[ENTITY_TYPE_FIXED_WING]		  	  			  	= kill_local;

  00099	b8 04 00 00 00	 mov	 eax, 4
  0009e	6b c8 0a	 imul	 ecx, eax, 10
  000a1	c7 81 00 00 00
	00 00 00 00 00	 mov	 DWORD PTR ?fn_kill_local_entity@@3PAP6GXPAUENTITY@@@ZA[ecx], OFFSET ?kill_local@@YGXPAUENTITY@@@Z ; kill_local

; 669  : 	fn_kill_client_server_entity				[ENTITY_TYPE_FIXED_WING][COMMS_MODEL_SERVER]	= kill_server;

  000ab	b8 08 00 00 00	 mov	 eax, 8
  000b0	6b c8 0a	 imul	 ecx, eax, 10
  000b3	ba 04 00 00 00	 mov	 edx, 4
  000b8	6b c2 00	 imul	 eax, edx, 0
  000bb	c7 84 01 00 00
	00 00 00 00 00
	00		 mov	 DWORD PTR ?fn_kill_client_server_entity@@3PAY01P6GXPAUENTITY@@@ZA[ecx+eax], OFFSET ?kill_server@@YGXPAUENTITY@@@Z ; kill_server

; 670  : 	fn_kill_client_server_entity				[ENTITY_TYPE_FIXED_WING][COMMS_MODEL_CLIENT]	= kill_client;

  000c6	b8 08 00 00 00	 mov	 eax, 8
  000cb	6b c8 0a	 imul	 ecx, eax, 10
  000ce	ba 04 00 00 00	 mov	 edx, 4
  000d3	c1 e2 00	 shl	 edx, 0
  000d6	c7 84 11 00 00
	00 00 00 00 00
	00		 mov	 DWORD PTR ?fn_kill_client_server_entity@@3PAY01P6GXPAUENTITY@@@ZA[ecx+edx], OFFSET ?kill_client@@YGXPAUENTITY@@@Z ; kill_client

; 671  : }

  000e1	5f		 pop	 edi
  000e2	5e		 pop	 esi
  000e3	5b		 pop	 ebx
  000e4	8b e5		 mov	 esp, ebp
  000e6	5d		 pop	 ebp
  000e7	c3		 ret	 0
?overload_fixed_wing_destroy_functions@@YGXXZ ENDP	; overload_fixed_wing_destroy_functions
_TEXT	ENDS
END
