; Listing generated by Microsoft (R) Optimizing Compiler Version 19.16.27045.0 

	TITLE	C:\Users\nhv90\Projects\eech\aphavoc\source\entity\mobile\aircraft\fixwing\fw_float.c
	.686P
	.XMM
	include listing.inc
	.model	flat

INCLUDELIB MSVCRTD
INCLUDELIB OLDNAMES

PUBLIC	?overload_fixed_wing_float_value_functions@@YGXXZ ; overload_fixed_wing_float_value_functions
PUBLIC	?__LINE__Var@?0??set_local_float_value@@YGXPAUENTITY@@W4FLOAT_TYPES@@M@Z@4JA ; `set_local_float_value'::`1'::__LINE__Var
PUBLIC	??_C@_0FG@BNBHKMDJ@c?3?2users?2nhv90?2projects?2eech?2ap@ ; `string'
PUBLIC	?__LINE__Var@?0??set_server_float_value@@YGXPAUENTITY@@W4FLOAT_TYPES@@M@Z@4JA ; `set_server_float_value'::`1'::__LINE__Var
PUBLIC	??_C@_0CB@CFOCLFOK@assert_client_server_local_fn?5?$CI@ ; `string'
PUBLIC	??_C@_0CC@BNNNEGEG@assert_client_server_remote_fn?5@ ; `string'
PUBLIC	?__LINE__Var@?0??set_client_float_value@@YGXPAUENTITY@@W4FLOAT_TYPES@@M@Z@4JA ; `set_client_float_value'::`1'::__LINE__Var
PUBLIC	?__LINE__Var@?0??get_local_float_value@@YGMPAUENTITY@@W4FLOAT_TYPES@@@Z@4JA ; `get_local_float_value'::`1'::__LINE__Var
EXTRN	?process_assert@@YGXPBD0H@Z:PROC		; process_assert
EXTRN	?debug_fatal@@YAXPBDZZ:PROC			; debug_fatal
EXTRN	?transmit_entity_comms_message@@YAXW4ENTITY_COMMS_MESSAGES@@PAUENTITY@@ZZ:PROC ; transmit_entity_comms_message
EXTRN	?assert_client_server_local_fn@@YGHXZ:PROC	; assert_client_server_local_fn
EXTRN	?assert_client_server_remote_fn@@YGHXZ:PROC	; assert_client_server_remote_fn
EXTRN	?null_entity_pointer_message@@3PBDB:DWORD	; null_entity_pointer_message
EXTRN	?entity_type_database@@3PAUENTITY_TYPE_DATA@@A:BYTE ; entity_type_database
EXTRN	?system_comms_data_flow@@3W4COMMS_DATA_FLOW_TYPES@@A:DWORD ; system_comms_data_flow
EXTRN	?float_type_database@@3PAUFLOAT_TYPE_DATA@@A:BYTE ; float_type_database
EXTRN	?debug_fatal_invalid_float_type_message@@3PBDB:DWORD ; debug_fatal_invalid_float_type_message
EXTRN	?fn_set_local_entity_raw_float_value@@3PAY0KP@P6GXPAUENTITY@@W4FLOAT_TYPES@@M@ZA:BYTE ; fn_set_local_entity_raw_float_value
EXTRN	?fn_set_local_entity_float_value@@3PAY0KP@P6GXPAUENTITY@@W4FLOAT_TYPES@@M@ZA:BYTE ; fn_set_local_entity_float_value
EXTRN	?fn_set_client_server_entity_float_value@@3PAY1KP@1P6GXPAUENTITY@@W4FLOAT_TYPES@@M@ZA:BYTE ; fn_set_client_server_entity_float_value
EXTRN	?fn_get_local_entity_float_value@@3PAY0KP@P6GMPAUENTITY@@W4FLOAT_TYPES@@@ZA:BYTE ; fn_get_local_entity_float_value
EXTRN	?entities@@3PAUENTITY@@A:DWORD			; entities
EXTRN	__fltused:DWORD
;	COMDAT ?__LINE__Var@?0??get_local_float_value@@YGMPAUENTITY@@W4FLOAT_TYPES@@@Z@4JA
_DATA	SEGMENT
?__LINE__Var@?0??get_local_float_value@@YGMPAUENTITY@@W4FLOAT_TYPES@@@Z@4JA DD 0c0H ; `get_local_float_value'::`1'::__LINE__Var
_DATA	ENDS
;	COMDAT ?__LINE__Var@?0??set_client_float_value@@YGXPAUENTITY@@W4FLOAT_TYPES@@M@Z@4JA
_DATA	SEGMENT
?__LINE__Var@?0??set_client_float_value@@YGXPAUENTITY@@W4FLOAT_TYPES@@M@Z@4JA DD 0acH ; `set_client_float_value'::`1'::__LINE__Var
_DATA	ENDS
;	COMDAT ??_C@_0CC@BNNNEGEG@assert_client_server_remote_fn?5@
CONST	SEGMENT
??_C@_0CC@BNNNEGEG@assert_client_server_remote_fn?5@ DB 'assert_client_se'
	DB	'rver_remote_fn ()', 00H			; `string'
CONST	ENDS
;	COMDAT ??_C@_0CB@CFOCLFOK@assert_client_server_local_fn?5?$CI@
CONST	SEGMENT
??_C@_0CB@CFOCLFOK@assert_client_server_local_fn?5?$CI@ DB 'assert_client'
	DB	'_server_local_fn ()', 00H			; `string'
CONST	ENDS
;	COMDAT ?__LINE__Var@?0??set_server_float_value@@YGXPAUENTITY@@W4FLOAT_TYPES@@M@Z@4JA
_DATA	SEGMENT
?__LINE__Var@?0??set_server_float_value@@YGXPAUENTITY@@W4FLOAT_TYPES@@M@Z@4JA DD 09dH ; `set_server_float_value'::`1'::__LINE__Var
_DATA	ENDS
;	COMDAT ??_C@_0FG@BNBHKMDJ@c?3?2users?2nhv90?2projects?2eech?2ap@
CONST	SEGMENT
??_C@_0FG@BNBHKMDJ@c?3?2users?2nhv90?2projects?2eech?2ap@ DB 'c:\users\nh'
	DB	'v90\projects\eech\aphavoc\source\entity\mobile\aircraft\fixwi'
	DB	'ng\fw_float.c', 00H				; `string'
CONST	ENDS
;	COMDAT ?__LINE__Var@?0??set_local_float_value@@YGXPAUENTITY@@W4FLOAT_TYPES@@M@Z@4JA
_DATA	SEGMENT
?__LINE__Var@?0??set_local_float_value@@YGXPAUENTITY@@W4FLOAT_TYPES@@M@Z@4JA DD 050H ; `set_local_float_value'::`1'::__LINE__Var
_DATA	ENDS
; Function compile flags: /Odtp /ZI
; File c:\users\nhv90\projects\eech\aphavoc\source\entity\mobile\aircraft\fixwing\fw_float.c
;	COMDAT ?get_local_float_value@@YGMPAUENTITY@@W4FLOAT_TYPES@@@Z
_TEXT	SEGMENT
tv86 = -76						; size = 4
tv65 = -76						; size = 4
_value$ = -8						; size = 4
_raw$ = -4						; size = 4
_en$ = 8						; size = 4
_type$ = 12						; size = 4
?get_local_float_value@@YGMPAUENTITY@@W4FLOAT_TYPES@@@Z PROC ; get_local_float_value, COMDAT

; 192  : {

  00000	55		 push	 ebp
  00001	8b ec		 mov	 ebp, esp
  00003	83 ec 4c	 sub	 esp, 76			; 0000004cH
  00006	53		 push	 ebx
  00007	56		 push	 esi
  00008	57		 push	 edi

; 193  : 	fixed_wing
; 194  : 		*raw;
; 195  : 
; 196  : 	float
; 197  : 		value;
; 198  : 
; 199  : 	raw = (fixed_wing *) get_local_entity_data (en);

  00009	8b 45 08	 mov	 eax, DWORD PTR _en$[ebp]
  0000c	8b 48 04	 mov	 ecx, DWORD PTR [eax+4]
  0000f	89 4d fc	 mov	 DWORD PTR _raw$[ebp], ecx

; 200  : 
; 201  : 	switch (type)

  00012	8b 45 0c	 mov	 eax, DWORD PTR _type$[ebp]
  00015	89 45 b4	 mov	 DWORD PTR tv65[ebp], eax
  00018	83 7d b4 63	 cmp	 DWORD PTR tv65[ebp], 99	; 00000063H
  0001c	77 62		 ja	 SHORT $LN8@get_local_
  0001e	8b 4d b4	 mov	 ecx, DWORD PTR tv65[ebp]
  00021	0f b6 91 00 00
	00 00		 movzx	 edx, BYTE PTR $LN12@get_local_[ecx]
  00028	ff 24 95 00 00
	00 00		 jmp	 DWORD PTR $LN13@get_local_[edx*4]
$LN4@get_local_:

; 202  : 	{
; 203  : 		////////////////////////////////////////
; 204  : 		case FLOAT_TYPE_AFTERBURNER_STATE:
; 205  : 		////////////////////////////////////////
; 206  : 		{
; 207  : 			value = raw->afterburner_state;

  0002f	8b 45 fc	 mov	 eax, DWORD PTR _raw$[ebp]
  00032	f3 0f 10 80 80
	01 00 00	 movss	 xmm0, DWORD PTR [eax+384]
  0003a	f3 0f 11 45 f8	 movss	 DWORD PTR _value$[ebp], xmm0

; 208  : 
; 209  : 			break;

  0003f	e9 ae 00 00 00	 jmp	 $LN2@get_local_
$LN5@get_local_:

; 210  : 		}
; 211  : 		////////////////////////////////////////
; 212  : 		case FLOAT_TYPE_AIRBRAKE_STATE:
; 213  : 		////////////////////////////////////////
; 214  : 		{
; 215  : 			value = raw->airbrake_state;

  00044	8b 45 fc	 mov	 eax, DWORD PTR _raw$[ebp]
  00047	f3 0f 10 80 84
	01 00 00	 movss	 xmm0, DWORD PTR [eax+388]
  0004f	f3 0f 11 45 f8	 movss	 DWORD PTR _value$[ebp], xmm0

; 216  : 
; 217  : 			break;

  00054	e9 99 00 00 00	 jmp	 $LN2@get_local_
$LN6@get_local_:

; 218  : 		}
; 219  : 		////////////////////////////////////////
; 220  : 		case FLOAT_TYPE_FLAP_STATE:
; 221  : 		////////////////////////////////////////
; 222  : 		{
; 223  : 			value = raw->flap_state;

  00059	8b 45 fc	 mov	 eax, DWORD PTR _raw$[ebp]
  0005c	f3 0f 10 80 88
	01 00 00	 movss	 xmm0, DWORD PTR [eax+392]
  00064	f3 0f 11 45 f8	 movss	 DWORD PTR _value$[ebp], xmm0

; 224  : 
; 225  : 			break;

  00069	e9 84 00 00 00	 jmp	 $LN2@get_local_
$LN7@get_local_:

; 226  : 		}
; 227  : 		////////////////////////////////////////
; 228  : 		case FLOAT_TYPE_PROPELLOR_RPM:
; 229  : 		////////////////////////////////////////
; 230  : 		{
; 231  : 			value = raw->propellor_rpm;

  0006e	8b 45 fc	 mov	 eax, DWORD PTR _raw$[ebp]
  00071	f3 0f 10 80 8c
	01 00 00	 movss	 xmm0, DWORD PTR [eax+396]
  00079	f3 0f 11 45 f8	 movss	 DWORD PTR _value$[ebp], xmm0

; 232  : 
; 233  : 			break;

  0007e	eb 72		 jmp	 SHORT $LN2@get_local_
$LN8@get_local_:

; 234  : 		}
; 235  : 		////////////////////////////////////////
; 236  : 		default:
; 237  : 		////////////////////////////////////////
; 238  : 		{
; 239  : 			debug_fatal_invalid_float_type (en, type);

  00080	83 7d 08 00	 cmp	 DWORD PTR _en$[ebp], 0
  00084	74 0a		 je	 SHORT $LN10@get_local_
  00086	8b 45 08	 mov	 eax, DWORD PTR _en$[ebp]
  00089	8b 08		 mov	 ecx, DWORD PTR [eax]
  0008b	89 4d b4	 mov	 DWORD PTR tv86[ebp], ecx
  0008e	eb 21		 jmp	 SHORT $LN11@get_local_
$LN10@get_local_:
  00090	8b 15 00 00 00
	00		 mov	 edx, DWORD PTR ?__LINE__Var@?0??get_local_float_value@@YGMPAUENTITY@@W4FLOAT_TYPES@@@Z@4JA
  00096	83 c2 2f	 add	 edx, 47			; 0000002fH
  00099	52		 push	 edx
  0009a	68 00 00 00 00	 push	 OFFSET ??_C@_0FG@BNBHKMDJ@c?3?2users?2nhv90?2projects?2eech?2ap@
  0009f	a1 00 00 00 00	 mov	 eax, DWORD PTR ?null_entity_pointer_message@@3PBDB ; null_entity_pointer_message
  000a4	50		 push	 eax
  000a5	e8 00 00 00 00	 call	 ?process_assert@@YGXPBD0H@Z ; process_assert
  000aa	c7 45 b4 00 00
	00 00		 mov	 DWORD PTR tv86[ebp], 0
$LN11@get_local_:
  000b1	8b 0d 00 00 00
	00		 mov	 ecx, DWORD PTR ?__LINE__Var@?0??get_local_float_value@@YGMPAUENTITY@@W4FLOAT_TYPES@@@Z@4JA
  000b7	83 c1 2f	 add	 ecx, 47			; 0000002fH
  000ba	51		 push	 ecx
  000bb	68 00 00 00 00	 push	 OFFSET ??_C@_0FG@BNBHKMDJ@c?3?2users?2nhv90?2projects?2eech?2ap@
  000c0	6b 55 0c 18	 imul	 edx, DWORD PTR _type$[ebp], 24
  000c4	8b 82 00 00 00
	00		 mov	 eax, DWORD PTR ?float_type_database@@3PAUFLOAT_TYPE_DATA@@A[edx]
  000ca	50		 push	 eax
  000cb	8b 4d 08	 mov	 ecx, DWORD PTR _en$[ebp]
  000ce	2b 0d 00 00 00
	00		 sub	 ecx, DWORD PTR ?entities@@3PAUENTITY@@A ; entities
  000d4	c1 f9 04	 sar	 ecx, 4
  000d7	51		 push	 ecx
  000d8	6b 55 b4 0c	 imul	 edx, DWORD PTR tv86[ebp], 12
  000dc	8b 82 00 00 00
	00		 mov	 eax, DWORD PTR ?entity_type_database@@3PAUENTITY_TYPE_DATA@@A[edx]
  000e2	50		 push	 eax
  000e3	8b 0d 00 00 00
	00		 mov	 ecx, DWORD PTR ?debug_fatal_invalid_float_type_message@@3PBDB ; debug_fatal_invalid_float_type_message
  000e9	51		 push	 ecx
  000ea	e8 00 00 00 00	 call	 ?debug_fatal@@YAXPBDZZ	; debug_fatal
  000ef	83 c4 18	 add	 esp, 24			; 00000018H
$LN2@get_local_:

; 240  : 
; 241  : 			break;
; 242  : 		}
; 243  : 	}
; 244  : 
; 245  : 	return (value);

  000f2	d9 45 f8	 fld	 DWORD PTR _value$[ebp]

; 246  : }

  000f5	5f		 pop	 edi
  000f6	5e		 pop	 esi
  000f7	5b		 pop	 ebx
  000f8	8b e5		 mov	 esp, ebp
  000fa	5d		 pop	 ebp
  000fb	c2 08 00	 ret	 8
  000fe	66 90		 npad	 2
$LN13@get_local_:
  00100	00 00 00 00	 DD	 $LN4@get_local_
  00104	00 00 00 00	 DD	 $LN5@get_local_
  00108	00 00 00 00	 DD	 $LN6@get_local_
  0010c	00 00 00 00	 DD	 $LN7@get_local_
  00110	00 00 00 00	 DD	 $LN8@get_local_
$LN12@get_local_:
  00114	00		 DB	 0
  00115	01		 DB	 1
  00116	04		 DB	 4
  00117	04		 DB	 4
  00118	04		 DB	 4
  00119	04		 DB	 4
  0011a	04		 DB	 4
  0011b	04		 DB	 4
  0011c	04		 DB	 4
  0011d	04		 DB	 4
  0011e	04		 DB	 4
  0011f	04		 DB	 4
  00120	04		 DB	 4
  00121	04		 DB	 4
  00122	04		 DB	 4
  00123	04		 DB	 4
  00124	04		 DB	 4
  00125	04		 DB	 4
  00126	04		 DB	 4
  00127	04		 DB	 4
  00128	04		 DB	 4
  00129	04		 DB	 4
  0012a	04		 DB	 4
  0012b	04		 DB	 4
  0012c	04		 DB	 4
  0012d	04		 DB	 4
  0012e	04		 DB	 4
  0012f	04		 DB	 4
  00130	04		 DB	 4
  00131	04		 DB	 4
  00132	04		 DB	 4
  00133	04		 DB	 4
  00134	04		 DB	 4
  00135	04		 DB	 4
  00136	04		 DB	 4
  00137	04		 DB	 4
  00138	04		 DB	 4
  00139	04		 DB	 4
  0013a	04		 DB	 4
  0013b	04		 DB	 4
  0013c	04		 DB	 4
  0013d	02		 DB	 2
  0013e	04		 DB	 4
  0013f	04		 DB	 4
  00140	04		 DB	 4
  00141	04		 DB	 4
  00142	04		 DB	 4
  00143	04		 DB	 4
  00144	04		 DB	 4
  00145	04		 DB	 4
  00146	04		 DB	 4
  00147	04		 DB	 4
  00148	04		 DB	 4
  00149	04		 DB	 4
  0014a	04		 DB	 4
  0014b	04		 DB	 4
  0014c	04		 DB	 4
  0014d	04		 DB	 4
  0014e	04		 DB	 4
  0014f	04		 DB	 4
  00150	04		 DB	 4
  00151	04		 DB	 4
  00152	04		 DB	 4
  00153	04		 DB	 4
  00154	04		 DB	 4
  00155	04		 DB	 4
  00156	04		 DB	 4
  00157	04		 DB	 4
  00158	04		 DB	 4
  00159	04		 DB	 4
  0015a	04		 DB	 4
  0015b	04		 DB	 4
  0015c	04		 DB	 4
  0015d	04		 DB	 4
  0015e	04		 DB	 4
  0015f	04		 DB	 4
  00160	04		 DB	 4
  00161	04		 DB	 4
  00162	04		 DB	 4
  00163	04		 DB	 4
  00164	04		 DB	 4
  00165	04		 DB	 4
  00166	04		 DB	 4
  00167	04		 DB	 4
  00168	04		 DB	 4
  00169	04		 DB	 4
  0016a	04		 DB	 4
  0016b	04		 DB	 4
  0016c	04		 DB	 4
  0016d	04		 DB	 4
  0016e	04		 DB	 4
  0016f	04		 DB	 4
  00170	04		 DB	 4
  00171	04		 DB	 4
  00172	04		 DB	 4
  00173	04		 DB	 4
  00174	04		 DB	 4
  00175	04		 DB	 4
  00176	04		 DB	 4
  00177	03		 DB	 3
?get_local_float_value@@YGMPAUENTITY@@W4FLOAT_TYPES@@@Z ENDP ; get_local_float_value
_TEXT	ENDS
; Function compile flags: /Odtp /ZI
; File c:\users\nhv90\projects\eech\aphavoc\source\entity\mobile\aircraft\fixwing\fw_float.c
;	COMDAT ?set_client_float_value@@YGXPAUENTITY@@W4FLOAT_TYPES@@M@Z
_TEXT	SEGMENT
_en$ = 8						; size = 4
_type$ = 12						; size = 4
_value$ = 16						; size = 4
?set_client_float_value@@YGXPAUENTITY@@W4FLOAT_TYPES@@M@Z PROC ; set_client_float_value, COMDAT

; 172  : {

  00000	55		 push	 ebp
  00001	8b ec		 mov	 ebp, esp
  00003	83 ec 40	 sub	 esp, 64			; 00000040H
  00006	53		 push	 ebx
  00007	56		 push	 esi
  00008	57		 push	 edi

; 173  : 	if (get_comms_data_flow () == COMMS_DATA_FLOW_TX)

  00009	83 3d 00 00 00
	00 00		 cmp	 DWORD PTR ?system_comms_data_flow@@3W4COMMS_DATA_FLOW_TYPES@@A, 0 ; system_comms_data_flow
  00010	75 3b		 jne	 SHORT $LN2@set_client

; 174  : 	{
; 175  : 		validate_client_server_remote_fn ();

  00012	e8 00 00 00 00	 call	 ?assert_client_server_remote_fn@@YGHXZ ; assert_client_server_remote_fn
  00017	85 c0		 test	 eax, eax
  00019	75 18		 jne	 SHORT $LN4@set_client
  0001b	a1 00 00 00 00	 mov	 eax, DWORD PTR ?__LINE__Var@?0??set_client_float_value@@YGXPAUENTITY@@W4FLOAT_TYPES@@M@Z@4JA
  00020	83 c0 03	 add	 eax, 3
  00023	50		 push	 eax
  00024	68 00 00 00 00	 push	 OFFSET ??_C@_0FG@BNBHKMDJ@c?3?2users?2nhv90?2projects?2eech?2ap@
  00029	68 00 00 00 00	 push	 OFFSET ??_C@_0CC@BNNNEGEG@assert_client_server_remote_fn?5@
  0002e	e8 00 00 00 00	 call	 ?process_assert@@YGXPBD0H@Z ; process_assert
$LN4@set_client:

; 176  : 
; 177  : 		set_remote_float_value (en, type, value);

  00033	51		 push	 ecx
  00034	f3 0f 10 45 10	 movss	 xmm0, DWORD PTR _value$[ebp]
  00039	f3 0f 11 04 24	 movss	 DWORD PTR [esp], xmm0
  0003e	8b 45 0c	 mov	 eax, DWORD PTR _type$[ebp]
  00041	50		 push	 eax
  00042	8b 4d 08	 mov	 ecx, DWORD PTR _en$[ebp]
  00045	51		 push	 ecx
  00046	e8 00 00 00 00	 call	 ?set_remote_float_value@@YGXPAUENTITY@@W4FLOAT_TYPES@@M@Z ; set_remote_float_value

; 178  : 	}
; 179  : 	else

  0004b	eb 39		 jmp	 SHORT $LN3@set_client
$LN2@set_client:

; 180  : 	{
; 181  : 		validate_client_server_local_fn ();

  0004d	e8 00 00 00 00	 call	 ?assert_client_server_local_fn@@YGHXZ ; assert_client_server_local_fn
  00052	85 c0		 test	 eax, eax
  00054	75 18		 jne	 SHORT $LN5@set_client
  00056	a1 00 00 00 00	 mov	 eax, DWORD PTR ?__LINE__Var@?0??set_client_float_value@@YGXPAUENTITY@@W4FLOAT_TYPES@@M@Z@4JA
  0005b	83 c0 09	 add	 eax, 9
  0005e	50		 push	 eax
  0005f	68 00 00 00 00	 push	 OFFSET ??_C@_0FG@BNBHKMDJ@c?3?2users?2nhv90?2projects?2eech?2ap@
  00064	68 00 00 00 00	 push	 OFFSET ??_C@_0CB@CFOCLFOK@assert_client_server_local_fn?5?$CI@
  00069	e8 00 00 00 00	 call	 ?process_assert@@YGXPBD0H@Z ; process_assert
$LN5@set_client:

; 182  : 
; 183  : 		set_local_float_value (en, type, value);

  0006e	51		 push	 ecx
  0006f	f3 0f 10 45 10	 movss	 xmm0, DWORD PTR _value$[ebp]
  00074	f3 0f 11 04 24	 movss	 DWORD PTR [esp], xmm0
  00079	8b 45 0c	 mov	 eax, DWORD PTR _type$[ebp]
  0007c	50		 push	 eax
  0007d	8b 4d 08	 mov	 ecx, DWORD PTR _en$[ebp]
  00080	51		 push	 ecx
  00081	e8 00 00 00 00	 call	 ?set_local_float_value@@YGXPAUENTITY@@W4FLOAT_TYPES@@M@Z ; set_local_float_value
$LN3@set_client:

; 184  : 	}
; 185  : }

  00086	5f		 pop	 edi
  00087	5e		 pop	 esi
  00088	5b		 pop	 ebx
  00089	8b e5		 mov	 esp, ebp
  0008b	5d		 pop	 ebp
  0008c	c2 0c 00	 ret	 12			; 0000000cH
?set_client_float_value@@YGXPAUENTITY@@W4FLOAT_TYPES@@M@Z ENDP ; set_client_float_value
_TEXT	ENDS
; Function compile flags: /Odtp /ZI
; File c:\users\nhv90\projects\eech\aphavoc\source\entity\mobile\aircraft\fixwing\fw_float.c
;	COMDAT ?set_server_float_value@@YGXPAUENTITY@@W4FLOAT_TYPES@@M@Z
_TEXT	SEGMENT
_en$ = 8						; size = 4
_type$ = 12						; size = 4
_value$ = 16						; size = 4
?set_server_float_value@@YGXPAUENTITY@@W4FLOAT_TYPES@@M@Z PROC ; set_server_float_value, COMDAT

; 157  : {

  00000	55		 push	 ebp
  00001	8b ec		 mov	 ebp, esp
  00003	83 ec 40	 sub	 esp, 64			; 00000040H
  00006	53		 push	 ebx
  00007	56		 push	 esi
  00008	57		 push	 edi

; 158  : 	validate_client_server_local_fn ();

  00009	e8 00 00 00 00	 call	 ?assert_client_server_local_fn@@YGHXZ ; assert_client_server_local_fn
  0000e	85 c0		 test	 eax, eax
  00010	75 18		 jne	 SHORT $LN2@set_server
  00012	a1 00 00 00 00	 mov	 eax, DWORD PTR ?__LINE__Var@?0??set_server_float_value@@YGXPAUENTITY@@W4FLOAT_TYPES@@M@Z@4JA
  00017	83 c0 01	 add	 eax, 1
  0001a	50		 push	 eax
  0001b	68 00 00 00 00	 push	 OFFSET ??_C@_0FG@BNBHKMDJ@c?3?2users?2nhv90?2projects?2eech?2ap@
  00020	68 00 00 00 00	 push	 OFFSET ??_C@_0CB@CFOCLFOK@assert_client_server_local_fn?5?$CI@
  00025	e8 00 00 00 00	 call	 ?process_assert@@YGXPBD0H@Z ; process_assert
$LN2@set_server:

; 159  : 
; 160  : 	set_local_float_value (en, type, value);

  0002a	51		 push	 ecx
  0002b	f3 0f 10 45 10	 movss	 xmm0, DWORD PTR _value$[ebp]
  00030	f3 0f 11 04 24	 movss	 DWORD PTR [esp], xmm0
  00035	8b 45 0c	 mov	 eax, DWORD PTR _type$[ebp]
  00038	50		 push	 eax
  00039	8b 4d 08	 mov	 ecx, DWORD PTR _en$[ebp]
  0003c	51		 push	 ecx
  0003d	e8 00 00 00 00	 call	 ?set_local_float_value@@YGXPAUENTITY@@W4FLOAT_TYPES@@M@Z ; set_local_float_value

; 161  : 
; 162  : 	validate_client_server_remote_fn ();

  00042	e8 00 00 00 00	 call	 ?assert_client_server_remote_fn@@YGHXZ ; assert_client_server_remote_fn
  00047	85 c0		 test	 eax, eax
  00049	75 18		 jne	 SHORT $LN3@set_server
  0004b	a1 00 00 00 00	 mov	 eax, DWORD PTR ?__LINE__Var@?0??set_server_float_value@@YGXPAUENTITY@@W4FLOAT_TYPES@@M@Z@4JA
  00050	83 c0 05	 add	 eax, 5
  00053	50		 push	 eax
  00054	68 00 00 00 00	 push	 OFFSET ??_C@_0FG@BNBHKMDJ@c?3?2users?2nhv90?2projects?2eech?2ap@
  00059	68 00 00 00 00	 push	 OFFSET ??_C@_0CC@BNNNEGEG@assert_client_server_remote_fn?5@
  0005e	e8 00 00 00 00	 call	 ?process_assert@@YGXPBD0H@Z ; process_assert
$LN3@set_server:

; 163  : 
; 164  : 	set_remote_float_value (en, type, value);

  00063	51		 push	 ecx
  00064	f3 0f 10 45 10	 movss	 xmm0, DWORD PTR _value$[ebp]
  00069	f3 0f 11 04 24	 movss	 DWORD PTR [esp], xmm0
  0006e	8b 45 0c	 mov	 eax, DWORD PTR _type$[ebp]
  00071	50		 push	 eax
  00072	8b 4d 08	 mov	 ecx, DWORD PTR _en$[ebp]
  00075	51		 push	 ecx
  00076	e8 00 00 00 00	 call	 ?set_remote_float_value@@YGXPAUENTITY@@W4FLOAT_TYPES@@M@Z ; set_remote_float_value

; 165  : }

  0007b	5f		 pop	 edi
  0007c	5e		 pop	 esi
  0007d	5b		 pop	 ebx
  0007e	8b e5		 mov	 esp, ebp
  00080	5d		 pop	 ebp
  00081	c2 0c 00	 ret	 12			; 0000000cH
?set_server_float_value@@YGXPAUENTITY@@W4FLOAT_TYPES@@M@Z ENDP ; set_server_float_value
_TEXT	ENDS
; Function compile flags: /Odtp /ZI
; File c:\users\nhv90\projects\eech\aphavoc\source\entity\mobile\aircraft\fixwing\fw_float.c
;	COMDAT ?set_remote_float_value@@YGXPAUENTITY@@W4FLOAT_TYPES@@M@Z
_TEXT	SEGMENT
_en$ = 8						; size = 4
_type$ = 12						; size = 4
_value$ = 16						; size = 4
?set_remote_float_value@@YGXPAUENTITY@@W4FLOAT_TYPES@@M@Z PROC ; set_remote_float_value, COMDAT

; 142  : {

  00000	55		 push	 ebp
  00001	8b ec		 mov	 ebp, esp
  00003	83 ec 40	 sub	 esp, 64			; 00000040H
  00006	53		 push	 ebx
  00007	56		 push	 esi
  00008	57		 push	 edi

; 143  : 	#if DEBUG_MODULE
; 144  : 
; 145  : 	debug_log_entity_args (ENTITY_DEBUG_REMOTE, ENTITY_DEBUG_FLOAT_VALUE, en, type, value);
; 146  : 
; 147  : 	#endif
; 148  : 
; 149  : 	transmit_entity_comms_message (ENTITY_COMMS_FLOAT_VALUE, en, type, value);

  00009	f3 0f 5a 45 10	 cvtss2sd xmm0, DWORD PTR _value$[ebp]
  0000e	83 ec 08	 sub	 esp, 8
  00011	f2 0f 11 04 24	 movsd	 QWORD PTR [esp], xmm0
  00016	8b 45 0c	 mov	 eax, DWORD PTR _type$[ebp]
  00019	50		 push	 eax
  0001a	8b 4d 08	 mov	 ecx, DWORD PTR _en$[ebp]
  0001d	51		 push	 ecx
  0001e	6a 16		 push	 22			; 00000016H
  00020	e8 00 00 00 00	 call	 ?transmit_entity_comms_message@@YAXW4ENTITY_COMMS_MESSAGES@@PAUENTITY@@ZZ ; transmit_entity_comms_message
  00025	83 c4 14	 add	 esp, 20			; 00000014H

; 150  : }

  00028	5f		 pop	 edi
  00029	5e		 pop	 esi
  0002a	5b		 pop	 ebx
  0002b	8b e5		 mov	 esp, ebp
  0002d	5d		 pop	 ebp
  0002e	c2 0c 00	 ret	 12			; 0000000cH
?set_remote_float_value@@YGXPAUENTITY@@W4FLOAT_TYPES@@M@Z ENDP ; set_remote_float_value
_TEXT	ENDS
; Function compile flags: /Odtp /ZI
; File c:\users\nhv90\projects\eech\aphavoc\source\entity\mobile\aircraft\fixwing\fw_float.c
;	COMDAT ?set_local_float_value@@YGXPAUENTITY@@W4FLOAT_TYPES@@M@Z
_TEXT	SEGMENT
tv86 = -72						; size = 4
tv65 = -72						; size = 4
_raw$ = -4						; size = 4
_en$ = 8						; size = 4
_type$ = 12						; size = 4
_value$ = 16						; size = 4
?set_local_float_value@@YGXPAUENTITY@@W4FLOAT_TYPES@@M@Z PROC ; set_local_float_value, COMDAT

; 80   : {

  00000	55		 push	 ebp
  00001	8b ec		 mov	 ebp, esp
  00003	83 ec 48	 sub	 esp, 72			; 00000048H
  00006	53		 push	 ebx
  00007	56		 push	 esi
  00008	57		 push	 edi

; 81   : 	fixed_wing
; 82   : 		*raw;
; 83   : 
; 84   : 	#if DEBUG_MODULE
; 85   : 
; 86   : 	debug_log_entity_args (ENTITY_DEBUG_LOCAL, ENTITY_DEBUG_FLOAT_VALUE, en, type, value);
; 87   : 
; 88   : 	#endif
; 89   : 
; 90   : 	raw = (fixed_wing *) get_local_entity_data (en);

  00009	8b 45 08	 mov	 eax, DWORD PTR _en$[ebp]
  0000c	8b 48 04	 mov	 ecx, DWORD PTR [eax+4]
  0000f	89 4d fc	 mov	 DWORD PTR _raw$[ebp], ecx

; 91   : 
; 92   : 	switch (type)

  00012	8b 45 0c	 mov	 eax, DWORD PTR _type$[ebp]
  00015	89 45 b8	 mov	 DWORD PTR tv65[ebp], eax
  00018	83 7d b8 63	 cmp	 DWORD PTR tv65[ebp], 99	; 00000063H
  0001c	77 62		 ja	 SHORT $LN8@set_local_
  0001e	8b 4d b8	 mov	 ecx, DWORD PTR tv65[ebp]
  00021	0f b6 91 00 00
	00 00		 movzx	 edx, BYTE PTR $LN12@set_local_[ecx]
  00028	ff 24 95 00 00
	00 00		 jmp	 DWORD PTR $LN13@set_local_[edx*4]
$LN4@set_local_:

; 93   : 	{
; 94   : 		////////////////////////////////////////
; 95   : 		case FLOAT_TYPE_AFTERBURNER_STATE:
; 96   : 		////////////////////////////////////////
; 97   : 		{
; 98   : 			raw->afterburner_state = value;

  0002f	8b 45 fc	 mov	 eax, DWORD PTR _raw$[ebp]
  00032	f3 0f 10 45 10	 movss	 xmm0, DWORD PTR _value$[ebp]
  00037	f3 0f 11 80 80
	01 00 00	 movss	 DWORD PTR [eax+384], xmm0

; 99   : 
; 100  : 			break;

  0003f	e9 ae 00 00 00	 jmp	 $LN2@set_local_
$LN5@set_local_:

; 101  : 		}
; 102  : 		////////////////////////////////////////
; 103  : 		case FLOAT_TYPE_AIRBRAKE_STATE:
; 104  : 		////////////////////////////////////////
; 105  : 		{
; 106  : 			raw->airbrake_state = value;

  00044	8b 45 fc	 mov	 eax, DWORD PTR _raw$[ebp]
  00047	f3 0f 10 45 10	 movss	 xmm0, DWORD PTR _value$[ebp]
  0004c	f3 0f 11 80 84
	01 00 00	 movss	 DWORD PTR [eax+388], xmm0

; 107  : 
; 108  : 			break;

  00054	e9 99 00 00 00	 jmp	 $LN2@set_local_
$LN6@set_local_:

; 109  : 		}
; 110  : 		////////////////////////////////////////
; 111  : 		case FLOAT_TYPE_FLAP_STATE:
; 112  : 		////////////////////////////////////////
; 113  : 		{
; 114  : 			raw->flap_state = value;

  00059	8b 45 fc	 mov	 eax, DWORD PTR _raw$[ebp]
  0005c	f3 0f 10 45 10	 movss	 xmm0, DWORD PTR _value$[ebp]
  00061	f3 0f 11 80 88
	01 00 00	 movss	 DWORD PTR [eax+392], xmm0

; 115  : 
; 116  : 			break;

  00069	e9 84 00 00 00	 jmp	 $LN2@set_local_
$LN7@set_local_:

; 117  : 		}
; 118  : 		////////////////////////////////////////
; 119  : 		case FLOAT_TYPE_PROPELLOR_RPM:
; 120  : 		////////////////////////////////////////
; 121  : 		{
; 122  : 			raw->propellor_rpm = value;

  0006e	8b 45 fc	 mov	 eax, DWORD PTR _raw$[ebp]
  00071	f3 0f 10 45 10	 movss	 xmm0, DWORD PTR _value$[ebp]
  00076	f3 0f 11 80 8c
	01 00 00	 movss	 DWORD PTR [eax+396], xmm0

; 123  : 
; 124  : 			break;

  0007e	eb 72		 jmp	 SHORT $LN2@set_local_
$LN8@set_local_:

; 125  : 		}
; 126  : 		////////////////////////////////////////
; 127  : 		default:
; 128  : 		////////////////////////////////////////
; 129  : 		{
; 130  : 			debug_fatal_invalid_float_type (en, type);

  00080	83 7d 08 00	 cmp	 DWORD PTR _en$[ebp], 0
  00084	74 0a		 je	 SHORT $LN10@set_local_
  00086	8b 45 08	 mov	 eax, DWORD PTR _en$[ebp]
  00089	8b 08		 mov	 ecx, DWORD PTR [eax]
  0008b	89 4d b8	 mov	 DWORD PTR tv86[ebp], ecx
  0008e	eb 21		 jmp	 SHORT $LN11@set_local_
$LN10@set_local_:
  00090	8b 15 00 00 00
	00		 mov	 edx, DWORD PTR ?__LINE__Var@?0??set_local_float_value@@YGXPAUENTITY@@W4FLOAT_TYPES@@M@Z@4JA
  00096	83 c2 32	 add	 edx, 50			; 00000032H
  00099	52		 push	 edx
  0009a	68 00 00 00 00	 push	 OFFSET ??_C@_0FG@BNBHKMDJ@c?3?2users?2nhv90?2projects?2eech?2ap@
  0009f	a1 00 00 00 00	 mov	 eax, DWORD PTR ?null_entity_pointer_message@@3PBDB ; null_entity_pointer_message
  000a4	50		 push	 eax
  000a5	e8 00 00 00 00	 call	 ?process_assert@@YGXPBD0H@Z ; process_assert
  000aa	c7 45 b8 00 00
	00 00		 mov	 DWORD PTR tv86[ebp], 0
$LN11@set_local_:
  000b1	8b 0d 00 00 00
	00		 mov	 ecx, DWORD PTR ?__LINE__Var@?0??set_local_float_value@@YGXPAUENTITY@@W4FLOAT_TYPES@@M@Z@4JA
  000b7	83 c1 32	 add	 ecx, 50			; 00000032H
  000ba	51		 push	 ecx
  000bb	68 00 00 00 00	 push	 OFFSET ??_C@_0FG@BNBHKMDJ@c?3?2users?2nhv90?2projects?2eech?2ap@
  000c0	6b 55 0c 18	 imul	 edx, DWORD PTR _type$[ebp], 24
  000c4	8b 82 00 00 00
	00		 mov	 eax, DWORD PTR ?float_type_database@@3PAUFLOAT_TYPE_DATA@@A[edx]
  000ca	50		 push	 eax
  000cb	8b 4d 08	 mov	 ecx, DWORD PTR _en$[ebp]
  000ce	2b 0d 00 00 00
	00		 sub	 ecx, DWORD PTR ?entities@@3PAUENTITY@@A ; entities
  000d4	c1 f9 04	 sar	 ecx, 4
  000d7	51		 push	 ecx
  000d8	6b 55 b8 0c	 imul	 edx, DWORD PTR tv86[ebp], 12
  000dc	8b 82 00 00 00
	00		 mov	 eax, DWORD PTR ?entity_type_database@@3PAUENTITY_TYPE_DATA@@A[edx]
  000e2	50		 push	 eax
  000e3	8b 0d 00 00 00
	00		 mov	 ecx, DWORD PTR ?debug_fatal_invalid_float_type_message@@3PBDB ; debug_fatal_invalid_float_type_message
  000e9	51		 push	 ecx
  000ea	e8 00 00 00 00	 call	 ?debug_fatal@@YAXPBDZZ	; debug_fatal
  000ef	83 c4 18	 add	 esp, 24			; 00000018H
$LN2@set_local_:

; 131  : 
; 132  : 			break;
; 133  : 		}
; 134  : 	}
; 135  : }

  000f2	5f		 pop	 edi
  000f3	5e		 pop	 esi
  000f4	5b		 pop	 ebx
  000f5	8b e5		 mov	 esp, ebp
  000f7	5d		 pop	 ebp
  000f8	c2 0c 00	 ret	 12			; 0000000cH
  000fb	90		 npad	 1
$LN13@set_local_:
  000fc	00 00 00 00	 DD	 $LN4@set_local_
  00100	00 00 00 00	 DD	 $LN5@set_local_
  00104	00 00 00 00	 DD	 $LN6@set_local_
  00108	00 00 00 00	 DD	 $LN7@set_local_
  0010c	00 00 00 00	 DD	 $LN8@set_local_
$LN12@set_local_:
  00110	00		 DB	 0
  00111	01		 DB	 1
  00112	04		 DB	 4
  00113	04		 DB	 4
  00114	04		 DB	 4
  00115	04		 DB	 4
  00116	04		 DB	 4
  00117	04		 DB	 4
  00118	04		 DB	 4
  00119	04		 DB	 4
  0011a	04		 DB	 4
  0011b	04		 DB	 4
  0011c	04		 DB	 4
  0011d	04		 DB	 4
  0011e	04		 DB	 4
  0011f	04		 DB	 4
  00120	04		 DB	 4
  00121	04		 DB	 4
  00122	04		 DB	 4
  00123	04		 DB	 4
  00124	04		 DB	 4
  00125	04		 DB	 4
  00126	04		 DB	 4
  00127	04		 DB	 4
  00128	04		 DB	 4
  00129	04		 DB	 4
  0012a	04		 DB	 4
  0012b	04		 DB	 4
  0012c	04		 DB	 4
  0012d	04		 DB	 4
  0012e	04		 DB	 4
  0012f	04		 DB	 4
  00130	04		 DB	 4
  00131	04		 DB	 4
  00132	04		 DB	 4
  00133	04		 DB	 4
  00134	04		 DB	 4
  00135	04		 DB	 4
  00136	04		 DB	 4
  00137	04		 DB	 4
  00138	04		 DB	 4
  00139	02		 DB	 2
  0013a	04		 DB	 4
  0013b	04		 DB	 4
  0013c	04		 DB	 4
  0013d	04		 DB	 4
  0013e	04		 DB	 4
  0013f	04		 DB	 4
  00140	04		 DB	 4
  00141	04		 DB	 4
  00142	04		 DB	 4
  00143	04		 DB	 4
  00144	04		 DB	 4
  00145	04		 DB	 4
  00146	04		 DB	 4
  00147	04		 DB	 4
  00148	04		 DB	 4
  00149	04		 DB	 4
  0014a	04		 DB	 4
  0014b	04		 DB	 4
  0014c	04		 DB	 4
  0014d	04		 DB	 4
  0014e	04		 DB	 4
  0014f	04		 DB	 4
  00150	04		 DB	 4
  00151	04		 DB	 4
  00152	04		 DB	 4
  00153	04		 DB	 4
  00154	04		 DB	 4
  00155	04		 DB	 4
  00156	04		 DB	 4
  00157	04		 DB	 4
  00158	04		 DB	 4
  00159	04		 DB	 4
  0015a	04		 DB	 4
  0015b	04		 DB	 4
  0015c	04		 DB	 4
  0015d	04		 DB	 4
  0015e	04		 DB	 4
  0015f	04		 DB	 4
  00160	04		 DB	 4
  00161	04		 DB	 4
  00162	04		 DB	 4
  00163	04		 DB	 4
  00164	04		 DB	 4
  00165	04		 DB	 4
  00166	04		 DB	 4
  00167	04		 DB	 4
  00168	04		 DB	 4
  00169	04		 DB	 4
  0016a	04		 DB	 4
  0016b	04		 DB	 4
  0016c	04		 DB	 4
  0016d	04		 DB	 4
  0016e	04		 DB	 4
  0016f	04		 DB	 4
  00170	04		 DB	 4
  00171	04		 DB	 4
  00172	04		 DB	 4
  00173	03		 DB	 3
?set_local_float_value@@YGXPAUENTITY@@W4FLOAT_TYPES@@M@Z ENDP ; set_local_float_value
_TEXT	ENDS
; Function compile flags: /Odtp /ZI
; File c:\users\nhv90\projects\eech\aphavoc\source\entity\mobile\aircraft\fixwing\fw_float.c
;	COMDAT ?overload_fixed_wing_float_value_functions@@YGXXZ
_TEXT	SEGMENT
?overload_fixed_wing_float_value_functions@@YGXXZ PROC	; overload_fixed_wing_float_value_functions, COMDAT

; 253  : {

  00000	55		 push	 ebp
  00001	8b ec		 mov	 ebp, esp
  00003	83 ec 40	 sub	 esp, 64			; 00000040H
  00006	53		 push	 ebx
  00007	56		 push	 esi
  00008	57		 push	 edi

; 254  : 	fn_set_local_entity_raw_float_value			[ENTITY_TYPE_FIXED_WING][FLOAT_TYPE_AFTERBURNER_STATE]				 			= set_local_float_value;

  00009	b8 bc 02 00 00	 mov	 eax, 700		; 000002bcH
  0000e	6b c8 0a	 imul	 ecx, eax, 10
  00011	ba 04 00 00 00	 mov	 edx, 4
  00016	6b c2 00	 imul	 eax, edx, 0
  00019	c7 84 01 00 00
	00 00 00 00 00
	00		 mov	 DWORD PTR ?fn_set_local_entity_raw_float_value@@3PAY0KP@P6GXPAUENTITY@@W4FLOAT_TYPES@@M@ZA[ecx+eax], OFFSET ?set_local_float_value@@YGXPAUENTITY@@W4FLOAT_TYPES@@M@Z ; set_local_float_value

; 255  : 	fn_set_local_entity_float_value				[ENTITY_TYPE_FIXED_WING][FLOAT_TYPE_AFTERBURNER_STATE]							= set_local_float_value;

  00024	b8 bc 02 00 00	 mov	 eax, 700		; 000002bcH
  00029	6b c8 0a	 imul	 ecx, eax, 10
  0002c	ba 04 00 00 00	 mov	 edx, 4
  00031	6b c2 00	 imul	 eax, edx, 0
  00034	c7 84 01 00 00
	00 00 00 00 00
	00		 mov	 DWORD PTR ?fn_set_local_entity_float_value@@3PAY0KP@P6GXPAUENTITY@@W4FLOAT_TYPES@@M@ZA[ecx+eax], OFFSET ?set_local_float_value@@YGXPAUENTITY@@W4FLOAT_TYPES@@M@Z ; set_local_float_value

; 256  : 	fn_set_client_server_entity_float_value	[ENTITY_TYPE_FIXED_WING][FLOAT_TYPE_AFTERBURNER_STATE][COMMS_MODEL_SERVER]	= set_server_float_value;

  0003f	b8 78 05 00 00	 mov	 eax, 1400		; 00000578H
  00044	6b c8 0a	 imul	 ecx, eax, 10
  00047	ba 08 00 00 00	 mov	 edx, 8
  0004c	6b c2 00	 imul	 eax, edx, 0
  0004f	8d 8c 01 00 00
	00 00		 lea	 ecx, DWORD PTR ?fn_set_client_server_entity_float_value@@3PAY1KP@1P6GXPAUENTITY@@W4FLOAT_TYPES@@M@ZA[ecx+eax]
  00056	ba 04 00 00 00	 mov	 edx, 4
  0005b	6b c2 00	 imul	 eax, edx, 0
  0005e	c7 04 01 00 00
	00 00		 mov	 DWORD PTR [ecx+eax], OFFSET ?set_server_float_value@@YGXPAUENTITY@@W4FLOAT_TYPES@@M@Z ; set_server_float_value

; 257  : 	fn_set_client_server_entity_float_value	[ENTITY_TYPE_FIXED_WING][FLOAT_TYPE_AFTERBURNER_STATE][COMMS_MODEL_CLIENT]	= set_client_float_value;

  00065	b8 78 05 00 00	 mov	 eax, 1400		; 00000578H
  0006a	6b c8 0a	 imul	 ecx, eax, 10
  0006d	ba 08 00 00 00	 mov	 edx, 8
  00072	6b c2 00	 imul	 eax, edx, 0
  00075	8d 8c 01 00 00
	00 00		 lea	 ecx, DWORD PTR ?fn_set_client_server_entity_float_value@@3PAY1KP@1P6GXPAUENTITY@@W4FLOAT_TYPES@@M@ZA[ecx+eax]
  0007c	ba 04 00 00 00	 mov	 edx, 4
  00081	c1 e2 00	 shl	 edx, 0
  00084	c7 04 11 00 00
	00 00		 mov	 DWORD PTR [ecx+edx], OFFSET ?set_client_float_value@@YGXPAUENTITY@@W4FLOAT_TYPES@@M@Z ; set_client_float_value

; 258  : 	fn_get_local_entity_float_value				[ENTITY_TYPE_FIXED_WING][FLOAT_TYPE_AFTERBURNER_STATE]					  		= get_local_float_value;

  0008b	b8 bc 02 00 00	 mov	 eax, 700		; 000002bcH
  00090	6b c8 0a	 imul	 ecx, eax, 10
  00093	ba 04 00 00 00	 mov	 edx, 4
  00098	6b c2 00	 imul	 eax, edx, 0
  0009b	c7 84 01 00 00
	00 00 00 00 00
	00		 mov	 DWORD PTR ?fn_get_local_entity_float_value@@3PAY0KP@P6GMPAUENTITY@@W4FLOAT_TYPES@@@ZA[ecx+eax], OFFSET ?get_local_float_value@@YGMPAUENTITY@@W4FLOAT_TYPES@@@Z ; get_local_float_value

; 259  : 
; 260  : 	fn_set_local_entity_raw_float_value			[ENTITY_TYPE_FIXED_WING][FLOAT_TYPE_AIRBRAKE_STATE]				 				= set_local_float_value;

  000a6	b8 bc 02 00 00	 mov	 eax, 700		; 000002bcH
  000ab	6b c8 0a	 imul	 ecx, eax, 10
  000ae	ba 04 00 00 00	 mov	 edx, 4
  000b3	c1 e2 00	 shl	 edx, 0
  000b6	c7 84 11 00 00
	00 00 00 00 00
	00		 mov	 DWORD PTR ?fn_set_local_entity_raw_float_value@@3PAY0KP@P6GXPAUENTITY@@W4FLOAT_TYPES@@M@ZA[ecx+edx], OFFSET ?set_local_float_value@@YGXPAUENTITY@@W4FLOAT_TYPES@@M@Z ; set_local_float_value

; 261  : 	fn_set_local_entity_float_value				[ENTITY_TYPE_FIXED_WING][FLOAT_TYPE_AIRBRAKE_STATE]								= set_local_float_value;

  000c1	b8 bc 02 00 00	 mov	 eax, 700		; 000002bcH
  000c6	6b c8 0a	 imul	 ecx, eax, 10
  000c9	ba 04 00 00 00	 mov	 edx, 4
  000ce	c1 e2 00	 shl	 edx, 0
  000d1	c7 84 11 00 00
	00 00 00 00 00
	00		 mov	 DWORD PTR ?fn_set_local_entity_float_value@@3PAY0KP@P6GXPAUENTITY@@W4FLOAT_TYPES@@M@ZA[ecx+edx], OFFSET ?set_local_float_value@@YGXPAUENTITY@@W4FLOAT_TYPES@@M@Z ; set_local_float_value

; 262  : 	fn_set_client_server_entity_float_value	[ENTITY_TYPE_FIXED_WING][FLOAT_TYPE_AIRBRAKE_STATE][COMMS_MODEL_SERVER]		= set_server_float_value;

  000dc	b8 78 05 00 00	 mov	 eax, 1400		; 00000578H
  000e1	6b c8 0a	 imul	 ecx, eax, 10
  000e4	ba 08 00 00 00	 mov	 edx, 8
  000e9	c1 e2 00	 shl	 edx, 0
  000ec	8d 84 11 00 00
	00 00		 lea	 eax, DWORD PTR ?fn_set_client_server_entity_float_value@@3PAY1KP@1P6GXPAUENTITY@@W4FLOAT_TYPES@@M@ZA[ecx+edx]
  000f3	b9 04 00 00 00	 mov	 ecx, 4
  000f8	6b d1 00	 imul	 edx, ecx, 0
  000fb	c7 04 10 00 00
	00 00		 mov	 DWORD PTR [eax+edx], OFFSET ?set_server_float_value@@YGXPAUENTITY@@W4FLOAT_TYPES@@M@Z ; set_server_float_value

; 263  : 	fn_set_client_server_entity_float_value	[ENTITY_TYPE_FIXED_WING][FLOAT_TYPE_AIRBRAKE_STATE][COMMS_MODEL_CLIENT]		= set_client_float_value;

  00102	b8 78 05 00 00	 mov	 eax, 1400		; 00000578H
  00107	6b c8 0a	 imul	 ecx, eax, 10
  0010a	ba 08 00 00 00	 mov	 edx, 8
  0010f	c1 e2 00	 shl	 edx, 0
  00112	8d 84 11 00 00
	00 00		 lea	 eax, DWORD PTR ?fn_set_client_server_entity_float_value@@3PAY1KP@1P6GXPAUENTITY@@W4FLOAT_TYPES@@M@ZA[ecx+edx]
  00119	b9 04 00 00 00	 mov	 ecx, 4
  0011e	c1 e1 00	 shl	 ecx, 0
  00121	c7 04 08 00 00
	00 00		 mov	 DWORD PTR [eax+ecx], OFFSET ?set_client_float_value@@YGXPAUENTITY@@W4FLOAT_TYPES@@M@Z ; set_client_float_value

; 264  : 	fn_get_local_entity_float_value				[ENTITY_TYPE_FIXED_WING][FLOAT_TYPE_AIRBRAKE_STATE]					  			= get_local_float_value;

  00128	b8 bc 02 00 00	 mov	 eax, 700		; 000002bcH
  0012d	6b c8 0a	 imul	 ecx, eax, 10
  00130	ba 04 00 00 00	 mov	 edx, 4
  00135	c1 e2 00	 shl	 edx, 0
  00138	c7 84 11 00 00
	00 00 00 00 00
	00		 mov	 DWORD PTR ?fn_get_local_entity_float_value@@3PAY0KP@P6GMPAUENTITY@@W4FLOAT_TYPES@@@ZA[ecx+edx], OFFSET ?get_local_float_value@@YGMPAUENTITY@@W4FLOAT_TYPES@@@Z ; get_local_float_value

; 265  : 
; 266  : 	fn_set_local_entity_raw_float_value			[ENTITY_TYPE_FIXED_WING][FLOAT_TYPE_FLAP_STATE]				 						= set_local_float_value;

  00143	b8 bc 02 00 00	 mov	 eax, 700		; 000002bcH
  00148	6b c8 0a	 imul	 ecx, eax, 10
  0014b	ba 04 00 00 00	 mov	 edx, 4
  00150	6b c2 29	 imul	 eax, edx, 41
  00153	c7 84 01 00 00
	00 00 00 00 00
	00		 mov	 DWORD PTR ?fn_set_local_entity_raw_float_value@@3PAY0KP@P6GXPAUENTITY@@W4FLOAT_TYPES@@M@ZA[ecx+eax], OFFSET ?set_local_float_value@@YGXPAUENTITY@@W4FLOAT_TYPES@@M@Z ; set_local_float_value

; 267  : 	fn_set_local_entity_float_value				[ENTITY_TYPE_FIXED_WING][FLOAT_TYPE_FLAP_STATE]										= set_local_float_value;

  0015e	b8 bc 02 00 00	 mov	 eax, 700		; 000002bcH
  00163	6b c8 0a	 imul	 ecx, eax, 10
  00166	ba 04 00 00 00	 mov	 edx, 4
  0016b	6b c2 29	 imul	 eax, edx, 41
  0016e	c7 84 01 00 00
	00 00 00 00 00
	00		 mov	 DWORD PTR ?fn_set_local_entity_float_value@@3PAY0KP@P6GXPAUENTITY@@W4FLOAT_TYPES@@M@ZA[ecx+eax], OFFSET ?set_local_float_value@@YGXPAUENTITY@@W4FLOAT_TYPES@@M@Z ; set_local_float_value

; 268  : 	fn_set_client_server_entity_float_value	[ENTITY_TYPE_FIXED_WING][FLOAT_TYPE_FLAP_STATE][COMMS_MODEL_SERVER]			= set_server_float_value;

  00179	b8 78 05 00 00	 mov	 eax, 1400		; 00000578H
  0017e	6b c8 0a	 imul	 ecx, eax, 10
  00181	ba 08 00 00 00	 mov	 edx, 8
  00186	6b c2 29	 imul	 eax, edx, 41
  00189	8d 8c 01 00 00
	00 00		 lea	 ecx, DWORD PTR ?fn_set_client_server_entity_float_value@@3PAY1KP@1P6GXPAUENTITY@@W4FLOAT_TYPES@@M@ZA[ecx+eax]
  00190	ba 04 00 00 00	 mov	 edx, 4
  00195	6b c2 00	 imul	 eax, edx, 0
  00198	c7 04 01 00 00
	00 00		 mov	 DWORD PTR [ecx+eax], OFFSET ?set_server_float_value@@YGXPAUENTITY@@W4FLOAT_TYPES@@M@Z ; set_server_float_value

; 269  : 	fn_set_client_server_entity_float_value	[ENTITY_TYPE_FIXED_WING][FLOAT_TYPE_FLAP_STATE][COMMS_MODEL_CLIENT]			= set_client_float_value;

  0019f	b8 78 05 00 00	 mov	 eax, 1400		; 00000578H
  001a4	6b c8 0a	 imul	 ecx, eax, 10
  001a7	ba 08 00 00 00	 mov	 edx, 8
  001ac	6b c2 29	 imul	 eax, edx, 41
  001af	8d 8c 01 00 00
	00 00		 lea	 ecx, DWORD PTR ?fn_set_client_server_entity_float_value@@3PAY1KP@1P6GXPAUENTITY@@W4FLOAT_TYPES@@M@ZA[ecx+eax]
  001b6	ba 04 00 00 00	 mov	 edx, 4
  001bb	c1 e2 00	 shl	 edx, 0
  001be	c7 04 11 00 00
	00 00		 mov	 DWORD PTR [ecx+edx], OFFSET ?set_client_float_value@@YGXPAUENTITY@@W4FLOAT_TYPES@@M@Z ; set_client_float_value

; 270  : 	fn_get_local_entity_float_value				[ENTITY_TYPE_FIXED_WING][FLOAT_TYPE_FLAP_STATE]					  					= get_local_float_value;

  001c5	b8 bc 02 00 00	 mov	 eax, 700		; 000002bcH
  001ca	6b c8 0a	 imul	 ecx, eax, 10
  001cd	ba 04 00 00 00	 mov	 edx, 4
  001d2	6b c2 29	 imul	 eax, edx, 41
  001d5	c7 84 01 00 00
	00 00 00 00 00
	00		 mov	 DWORD PTR ?fn_get_local_entity_float_value@@3PAY0KP@P6GMPAUENTITY@@W4FLOAT_TYPES@@@ZA[ecx+eax], OFFSET ?get_local_float_value@@YGMPAUENTITY@@W4FLOAT_TYPES@@@Z ; get_local_float_value

; 271  : 
; 272  : }

  001e0	5f		 pop	 edi
  001e1	5e		 pop	 esi
  001e2	5b		 pop	 ebx
  001e3	8b e5		 mov	 esp, ebp
  001e5	5d		 pop	 ebp
  001e6	c3		 ret	 0
?overload_fixed_wing_float_value_functions@@YGXXZ ENDP	; overload_fixed_wing_float_value_functions
_TEXT	ENDS
END
