; Listing generated by Microsoft (R) Optimizing Compiler Version 19.16.27045.0 

	TITLE	C:\Users\nhv90\Projects\eech\aphavoc\source\entity\fixed\fx_float.c
	.686P
	.XMM
	include listing.inc
	.model	flat

INCLUDELIB MSVCRTD
INCLUDELIB OLDNAMES

PUBLIC	?overload_fixed_float_value_functions@@YGXW4ENTITY_TYPES@@@Z ; overload_fixed_float_value_functions
PUBLIC	?__LINE__Var@?0??set_local_float_value@@YGXPAUENTITY@@W4FLOAT_TYPES@@M@Z@4JA ; `set_local_float_value'::`1'::__LINE__Var
PUBLIC	??_C@_0EE@IJMCKKPF@c?3?2users?2nhv90?2projects?2eech?2ap@ ; `string'
PUBLIC	?__LINE__Var@?0??set_server_float_value@@YGXPAUENTITY@@W4FLOAT_TYPES@@M@Z@4JA ; `set_server_float_value'::`1'::__LINE__Var
PUBLIC	??_C@_0CB@CFOCLFOK@assert_client_server_local_fn?5?$CI@ ; `string'
PUBLIC	??_C@_0CC@BNNNEGEG@assert_client_server_remote_fn?5@ ; `string'
PUBLIC	?__LINE__Var@?0??set_client_float_value@@YGXPAUENTITY@@W4FLOAT_TYPES@@M@Z@4JA ; `set_client_float_value'::`1'::__LINE__Var
PUBLIC	?__LINE__Var@?0??get_local_float_value@@YGMPAUENTITY@@W4FLOAT_TYPES@@@Z@4JA ; `get_local_float_value'::`1'::__LINE__Var
PUBLIC	__real@3fd0000000000000
EXTRN	?process_assert@@YGXPBD0H@Z:PROC		; process_assert
EXTRN	?debug_fatal@@YAXPBDZZ:PROC			; debug_fatal
EXTRN	?get_object_3d_bounding_box@@YGPAUOBJECT_3D_BOUNDS@@H@Z:PROC ; get_object_3d_bounding_box
EXTRN	?transmit_entity_comms_message@@YAXW4ENTITY_COMMS_MESSAGES@@PAUENTITY@@ZZ:PROC ; transmit_entity_comms_message
EXTRN	?assert_client_server_local_fn@@YGHXZ:PROC	; assert_client_server_local_fn
EXTRN	?assert_client_server_remote_fn@@YGHXZ:PROC	; assert_client_server_remote_fn
EXTRN	?object_3d_information_database@@3PAUOBJECT_3D_INFORMATION@@A:DWORD ; object_3d_information_database
EXTRN	?null_entity_pointer_message@@3PBDB:DWORD	; null_entity_pointer_message
EXTRN	?entity_type_database@@3PAUENTITY_TYPE_DATA@@A:BYTE ; entity_type_database
EXTRN	?system_comms_data_flow@@3W4COMMS_DATA_FLOW_TYPES@@A:DWORD ; system_comms_data_flow
EXTRN	?float_type_database@@3PAUFLOAT_TYPE_DATA@@A:BYTE ; float_type_database
EXTRN	?overload_invalid_float_type_message@@3PBDB:DWORD ; overload_invalid_float_type_message
EXTRN	?debug_fatal_invalid_float_type_message@@3PBDB:DWORD ; debug_fatal_invalid_float_type_message
EXTRN	?fn_set_local_entity_raw_float_value@@3PAY0KP@P6GXPAUENTITY@@W4FLOAT_TYPES@@M@ZA:BYTE ; fn_set_local_entity_raw_float_value
EXTRN	?fn_set_local_entity_float_value@@3PAY0KP@P6GXPAUENTITY@@W4FLOAT_TYPES@@M@ZA:BYTE ; fn_set_local_entity_float_value
EXTRN	?fn_set_client_server_entity_float_value@@3PAY1KP@1P6GXPAUENTITY@@W4FLOAT_TYPES@@M@ZA:BYTE ; fn_set_client_server_entity_float_value
EXTRN	?fn_get_local_entity_float_value@@3PAY0KP@P6GMPAUENTITY@@W4FLOAT_TYPES@@@ZA:BYTE ; fn_get_local_entity_float_value
EXTRN	?entities@@3PAUENTITY@@A:DWORD			; entities
EXTRN	?fixed_3d_object_database@@3PAUFIXED_3D_OBJECT_DATA@@A:BYTE ; fixed_3d_object_database
EXTRN	__fltused:DWORD
;	COMDAT __real@3fd0000000000000
CONST	SEGMENT
__real@3fd0000000000000 DQ 03fd0000000000000r	; 0.25
CONST	ENDS
;	COMDAT ?__LINE__Var@?0??get_local_float_value@@YGMPAUENTITY@@W4FLOAT_TYPES@@@Z@4JA
_DATA	SEGMENT
?__LINE__Var@?0??get_local_float_value@@YGMPAUENTITY@@W4FLOAT_TYPES@@@Z@4JA DD 0c2H ; `get_local_float_value'::`1'::__LINE__Var
_DATA	ENDS
;	COMDAT ?__LINE__Var@?0??set_client_float_value@@YGXPAUENTITY@@W4FLOAT_TYPES@@M@Z@4JA
_DATA	SEGMENT
?__LINE__Var@?0??set_client_float_value@@YGXPAUENTITY@@W4FLOAT_TYPES@@M@Z@4JA DD 0aaH ; `set_client_float_value'::`1'::__LINE__Var
_DATA	ENDS
;	COMDAT ??_C@_0CC@BNNNEGEG@assert_client_server_remote_fn?5@
CONST	SEGMENT
??_C@_0CC@BNNNEGEG@assert_client_server_remote_fn?5@ DB 'assert_client_se'
	DB	'rver_remote_fn ()', 00H			; `string'
CONST	ENDS
;	COMDAT ??_C@_0CB@CFOCLFOK@assert_client_server_local_fn?5?$CI@
CONST	SEGMENT
??_C@_0CB@CFOCLFOK@assert_client_server_local_fn?5?$CI@ DB 'assert_client'
	DB	'_server_local_fn ()', 00H			; `string'
CONST	ENDS
;	COMDAT ?__LINE__Var@?0??set_server_float_value@@YGXPAUENTITY@@W4FLOAT_TYPES@@M@Z@4JA
_DATA	SEGMENT
?__LINE__Var@?0??set_server_float_value@@YGXPAUENTITY@@W4FLOAT_TYPES@@M@Z@4JA DD 097H ; `set_server_float_value'::`1'::__LINE__Var
_DATA	ENDS
;	COMDAT ??_C@_0EE@IJMCKKPF@c?3?2users?2nhv90?2projects?2eech?2ap@
CONST	SEGMENT
??_C@_0EE@IJMCKKPF@c?3?2users?2nhv90?2projects?2eech?2ap@ DB 'c:\users\nh'
	DB	'v90\projects\eech\aphavoc\source\entity\fixed\fx_float.c', 00H ; `string'
CONST	ENDS
;	COMDAT ?__LINE__Var@?0??set_local_float_value@@YGXPAUENTITY@@W4FLOAT_TYPES@@M@Z@4JA
_DATA	SEGMENT
?__LINE__Var@?0??set_local_float_value@@YGXPAUENTITY@@W4FLOAT_TYPES@@M@Z@4JA DD 05aH ; `set_local_float_value'::`1'::__LINE__Var
_DATA	ENDS
; Function compile flags: /Odtp /ZI
; File c:\users\nhv90\projects\eech\aphavoc\source\entity\fixed\fx_float.c
;	COMDAT ?get_local_float_value@@YGMPAUENTITY@@W4FLOAT_TYPES@@@Z
_TEXT	SEGMENT
tv160 = -84						; size = 4
tv137 = -84						; size = 4
tv185 = -80						; size = 4
tv152 = -80						; size = 4
tv129 = -80						; size = 4
tv65 = -80						; size = 4
_bounding_box$1 = -12					; size = 4
_value$ = -8						; size = 4
_raw$ = -4						; size = 4
_en$ = 8						; size = 4
_type$ = 12						; size = 4
?get_local_float_value@@YGMPAUENTITY@@W4FLOAT_TYPES@@@Z PROC ; get_local_float_value, COMDAT

; 194  : {

  00000	55		 push	 ebp
  00001	8b ec		 mov	 ebp, esp
  00003	83 ec 54	 sub	 esp, 84			; 00000054H
  00006	53		 push	 ebx
  00007	56		 push	 esi
  00008	57		 push	 edi

; 195  : 	fixed
; 196  : 		*raw;
; 197  : 
; 198  : 	float
; 199  : 		value;
; 200  : 
; 201  : 	raw = (fixed *) get_local_entity_data (en);

  00009	8b 45 08	 mov	 eax, DWORD PTR _en$[ebp]
  0000c	8b 48 04	 mov	 ecx, DWORD PTR [eax+4]
  0000f	89 4d fc	 mov	 DWORD PTR _raw$[ebp], ecx

; 202  : 
; 203  : 	switch (type)

  00012	8b 45 0c	 mov	 eax, DWORD PTR _type$[ebp]
  00015	89 45 b0	 mov	 DWORD PTR tv65[ebp], eax
  00018	8b 4d b0	 mov	 ecx, DWORD PTR tv65[ebp]
  0001b	83 e9 06	 sub	 ecx, 6
  0001e	89 4d b0	 mov	 DWORD PTR tv65[ebp], ecx
  00021	83 7d b0 7f	 cmp	 DWORD PTR tv65[ebp], 127 ; 0000007fH
  00025	0f 87 ea 01 00
	00		 ja	 $LN12@get_local_
  0002b	8b 55 b0	 mov	 edx, DWORD PTR tv65[ebp]
  0002e	0f b6 82 00 00
	00 00		 movzx	 eax, BYTE PTR $LN24@get_local_[edx]
  00035	ff 24 85 00 00
	00 00		 jmp	 DWORD PTR $LN25@get_local_[eax*4]
$LN4@get_local_:

; 204  : 	{
; 205  : 		////////////////////////////////////////
; 206  : 		case FLOAT_TYPE_ALTITUDE:
; 207  : 		////////////////////////////////////////
; 208  : 		{
; 209  : 			value = raw->position.y;

  0003c	8b 45 fc	 mov	 eax, DWORD PTR _raw$[ebp]
  0003f	f3 0f 10 40 04	 movss	 xmm0, DWORD PTR [eax+4]
  00044	f3 0f 11 45 f8	 movss	 DWORD PTR _value$[ebp], xmm0

; 210  : 
; 211  : 			break;

  00049	e9 39 02 00 00	 jmp	 $LN2@get_local_
$LN5@get_local_:

; 212  : 		}
; 213  : 		////////////////////////////////////////
; 214  : 		case FLOAT_TYPE_FIXED_OBJECT_IMPORTANCE:
; 215  : 		////////////////////////////////////////
; 216  : 		{
; 217  : 			value = fixed_3d_object_database[raw->object_3d_shape].importance;

  0004e	8b 45 fc	 mov	 eax, DWORD PTR _raw$[ebp]
  00051	8b 48 38	 mov	 ecx, DWORD PTR [eax+56]
  00054	c1 e9 08	 shr	 ecx, 8
  00057	81 e1 ff 0f 00
	00		 and	 ecx, 4095		; 00000fffH
  0005d	f3 0f 10 04 cd
	00 00 00 00	 movss	 xmm0, DWORD PTR ?fixed_3d_object_database@@3PAUFIXED_3D_OBJECT_DATA@@A[ecx*8]
  00066	f3 0f 11 45 f8	 movss	 DWORD PTR _value$[ebp], xmm0

; 218  : 
; 219  : 			break;

  0006b	e9 17 02 00 00	 jmp	 $LN2@get_local_
$LN6@get_local_:

; 220  : 		}
; 221  : 		////////////////////////////////////////
; 222  : 		case FLOAT_TYPE_FIXED_STRUCTURE_HEIGHT:
; 223  : 		////////////////////////////////////////
; 224  : 		{
; 225  : 			object_3d_bounds
; 226  : 				*bounding_box;
; 227  : 
; 228  : 			if (raw->object_3d_shape != OBJECT_3D_INVALID_OBJECT_INDEX)

  00070	8b 45 fc	 mov	 eax, DWORD PTR _raw$[ebp]
  00073	8b 48 38	 mov	 ecx, DWORD PTR [eax+56]
  00076	c1 e9 08	 shr	 ecx, 8
  00079	81 e1 ff 0f 00
	00		 and	 ecx, 4095		; 00000fffH
  0007f	74 25		 je	 SHORT $LN7@get_local_

; 229  : 			{
; 230  : 				bounding_box = get_object_3d_bounding_box (raw->object_3d_shape);

  00081	8b 45 fc	 mov	 eax, DWORD PTR _raw$[ebp]
  00084	8b 48 38	 mov	 ecx, DWORD PTR [eax+56]
  00087	c1 e9 08	 shr	 ecx, 8
  0008a	81 e1 ff 0f 00
	00		 and	 ecx, 4095		; 00000fffH
  00090	51		 push	 ecx
  00091	e8 00 00 00 00	 call	 ?get_object_3d_bounding_box@@YGPAUOBJECT_3D_BOUNDS@@H@Z ; get_object_3d_bounding_box
  00096	89 45 f4	 mov	 DWORD PTR _bounding_box$1[ebp], eax

; 231  : 
; 232  : 				value = bounding_box->ymax;

  00099	8b 45 f4	 mov	 eax, DWORD PTR _bounding_box$1[ebp]
  0009c	f3 0f 10 40 0c	 movss	 xmm0, DWORD PTR [eax+12]
  000a1	f3 0f 11 45 f8	 movss	 DWORD PTR _value$[ebp], xmm0
$LN7@get_local_:

; 233  : 			}
; 234  : 
; 235  : 			break;

  000a6	e9 dc 01 00 00	 jmp	 $LN2@get_local_
$LN8@get_local_:

; 236  : 		}
; 237  : 
; 238  : 		////////////////////////////////////////
; 239  : 		case FLOAT_TYPE_HEADING:
; 240  : 		////////////////////////////////////////
; 241  : 		{
; 242  : 			value = raw->heading;

  000ab	8b 45 fc	 mov	 eax, DWORD PTR _raw$[ebp]
  000ae	f3 0f 10 40 3c	 movss	 xmm0, DWORD PTR [eax+60]
  000b3	f3 0f 11 45 f8	 movss	 DWORD PTR _value$[ebp], xmm0

; 243  : 
; 244  : 			break;

  000b8	e9 ca 01 00 00	 jmp	 $LN2@get_local_
$LN9@get_local_:

; 245  : 		}
; 246  : 		////////////////////////////////////////
; 247  : 		case FLOAT_TYPE_MAX_3D_OBJECT_VISUAL_RANGE:
; 248  : 		////////////////////////////////////////
; 249  : 		{
; 250  : 			value = object_3d_information_database[raw->object_3d_shape].maximum_distance;

  000bd	8b 45 fc	 mov	 eax, DWORD PTR _raw$[ebp]
  000c0	8b 48 38	 mov	 ecx, DWORD PTR [eax+56]
  000c3	c1 e9 08	 shr	 ecx, 8
  000c6	81 e1 ff 0f 00
	00		 and	 ecx, 4095		; 00000fffH
  000cc	8b 15 00 00 00
	00		 mov	 edx, DWORD PTR ?object_3d_information_database@@3PAUOBJECT_3D_INFORMATION@@A ; object_3d_information_database
  000d2	f3 0f 10 44 ca
	04		 movss	 xmm0, DWORD PTR [edx+ecx*8+4]
  000d8	f3 0f 11 45 f8	 movss	 DWORD PTR _value$[ebp], xmm0

; 251  : 
; 252  : 			break;

  000dd	e9 a5 01 00 00	 jmp	 $LN2@get_local_
$LN10@get_local_:

; 253  : 		}
; 254  : 		////////////////////////////////////////
; 255  : 		case FLOAT_TYPE_TARGET_PRIORITY_AIR_ATTACK:
; 256  : 		////////////////////////////////////////
; 257  : 		{
; 258  : 			//
; 259  : 			// Target priority is object importance - scaled down so any mobile threats have higher priority
; 260  : 			//
; 261  : 			
; 262  : 			value = get_local_entity_float_value (en, FLOAT_TYPE_FIXED_OBJECT_IMPORTANCE);

  000e2	83 7d 08 00	 cmp	 DWORD PTR _en$[ebp], 0
  000e6	74 0a		 je	 SHORT $LN14@get_local_
  000e8	8b 45 08	 mov	 eax, DWORD PTR _en$[ebp]
  000eb	8b 08		 mov	 ecx, DWORD PTR [eax]
  000ed	89 4d b0	 mov	 DWORD PTR tv129[ebp], ecx
  000f0	eb 21		 jmp	 SHORT $LN15@get_local_
$LN14@get_local_:
  000f2	8b 15 00 00 00
	00		 mov	 edx, DWORD PTR ?__LINE__Var@?0??get_local_float_value@@YGMPAUENTITY@@W4FLOAT_TYPES@@@Z@4JA
  000f8	83 c2 44	 add	 edx, 68			; 00000044H
  000fb	52		 push	 edx
  000fc	68 00 00 00 00	 push	 OFFSET ??_C@_0EE@IJMCKKPF@c?3?2users?2nhv90?2projects?2eech?2ap@
  00101	a1 00 00 00 00	 mov	 eax, DWORD PTR ?null_entity_pointer_message@@3PBDB ; null_entity_pointer_message
  00106	50		 push	 eax
  00107	e8 00 00 00 00	 call	 ?process_assert@@YGXPBD0H@Z ; process_assert
  0010c	c7 45 b0 00 00
	00 00		 mov	 DWORD PTR tv129[ebp], 0
$LN15@get_local_:
  00113	b9 01 00 00 00	 mov	 ecx, 1
  00118	85 c9		 test	 ecx, ecx
  0011a	74 09		 je	 SHORT $LN16@get_local_
  0011c	c7 45 ac 27 00
	00 00		 mov	 DWORD PTR tv137[ebp], 39 ; 00000027H
  00123	eb 21		 jmp	 SHORT $LN17@get_local_
$LN16@get_local_:
  00125	8b 15 00 00 00
	00		 mov	 edx, DWORD PTR ?__LINE__Var@?0??get_local_float_value@@YGMPAUENTITY@@W4FLOAT_TYPES@@@Z@4JA
  0012b	83 c2 44	 add	 edx, 68			; 00000044H
  0012e	52		 push	 edx
  0012f	68 00 00 00 00	 push	 OFFSET ??_C@_0EE@IJMCKKPF@c?3?2users?2nhv90?2projects?2eech?2ap@
  00134	a1 00 00 00 00	 mov	 eax, DWORD PTR ?overload_invalid_float_type_message@@3PBDB ; overload_invalid_float_type_message
  00139	50		 push	 eax
  0013a	e8 00 00 00 00	 call	 ?process_assert@@YGXPBD0H@Z ; process_assert
  0013f	c7 45 ac 00 00
	00 00		 mov	 DWORD PTR tv137[ebp], 0
$LN17@get_local_:
  00146	6a 27		 push	 39			; 00000027H
  00148	8b 4d 08	 mov	 ecx, DWORD PTR _en$[ebp]
  0014b	51		 push	 ecx
  0014c	69 55 b0 bc 02
	00 00		 imul	 edx, DWORD PTR tv129[ebp], 700
  00153	8b 45 ac	 mov	 eax, DWORD PTR tv137[ebp]
  00156	8b 8c 82 00 00
	00 00		 mov	 ecx, DWORD PTR ?fn_get_local_entity_float_value@@3PAY0KP@P6GMPAUENTITY@@W4FLOAT_TYPES@@@ZA[edx+eax*4]
  0015d	ff d1		 call	 ecx
  0015f	d9 5d f8	 fstp	 DWORD PTR _value$[ebp]

; 263  : 
; 264  : 			value *= 0.25;

  00162	f3 0f 5a 45 f8	 cvtss2sd xmm0, DWORD PTR _value$[ebp]
  00167	f2 0f 59 05 00
	00 00 00	 mulsd	 xmm0, QWORD PTR __real@3fd0000000000000
  0016f	f2 0f 5a c0	 cvtsd2ss xmm0, xmm0
  00173	f3 0f 11 45 f8	 movss	 DWORD PTR _value$[ebp], xmm0

; 265  : 
; 266  : 			break;

  00178	e9 0a 01 00 00	 jmp	 $LN2@get_local_
$LN11@get_local_:

; 267  : 		}
; 268  : 		////////////////////////////////////////
; 269  : 		case FLOAT_TYPE_TARGET_PRIORITY_GROUND_ATTACK:
; 270  : 		////////////////////////////////////////
; 271  : 		{
; 272  : 			//
; 273  : 			// Target priority is object importance - scaled down so any mobile threats have higher priority
; 274  : 			//
; 275  : 			
; 276  : 			value = get_local_entity_float_value (en, FLOAT_TYPE_FIXED_OBJECT_IMPORTANCE);

  0017d	83 7d 08 00	 cmp	 DWORD PTR _en$[ebp], 0
  00181	74 0a		 je	 SHORT $LN18@get_local_
  00183	8b 45 08	 mov	 eax, DWORD PTR _en$[ebp]
  00186	8b 08		 mov	 ecx, DWORD PTR [eax]
  00188	89 4d b0	 mov	 DWORD PTR tv152[ebp], ecx
  0018b	eb 21		 jmp	 SHORT $LN19@get_local_
$LN18@get_local_:
  0018d	8b 15 00 00 00
	00		 mov	 edx, DWORD PTR ?__LINE__Var@?0??get_local_float_value@@YGMPAUENTITY@@W4FLOAT_TYPES@@@Z@4JA
  00193	83 c2 52	 add	 edx, 82			; 00000052H
  00196	52		 push	 edx
  00197	68 00 00 00 00	 push	 OFFSET ??_C@_0EE@IJMCKKPF@c?3?2users?2nhv90?2projects?2eech?2ap@
  0019c	a1 00 00 00 00	 mov	 eax, DWORD PTR ?null_entity_pointer_message@@3PBDB ; null_entity_pointer_message
  001a1	50		 push	 eax
  001a2	e8 00 00 00 00	 call	 ?process_assert@@YGXPBD0H@Z ; process_assert
  001a7	c7 45 b0 00 00
	00 00		 mov	 DWORD PTR tv152[ebp], 0
$LN19@get_local_:
  001ae	b9 01 00 00 00	 mov	 ecx, 1
  001b3	85 c9		 test	 ecx, ecx
  001b5	74 09		 je	 SHORT $LN20@get_local_
  001b7	c7 45 ac 27 00
	00 00		 mov	 DWORD PTR tv160[ebp], 39 ; 00000027H
  001be	eb 21		 jmp	 SHORT $LN21@get_local_
$LN20@get_local_:
  001c0	8b 15 00 00 00
	00		 mov	 edx, DWORD PTR ?__LINE__Var@?0??get_local_float_value@@YGMPAUENTITY@@W4FLOAT_TYPES@@@Z@4JA
  001c6	83 c2 52	 add	 edx, 82			; 00000052H
  001c9	52		 push	 edx
  001ca	68 00 00 00 00	 push	 OFFSET ??_C@_0EE@IJMCKKPF@c?3?2users?2nhv90?2projects?2eech?2ap@
  001cf	a1 00 00 00 00	 mov	 eax, DWORD PTR ?overload_invalid_float_type_message@@3PBDB ; overload_invalid_float_type_message
  001d4	50		 push	 eax
  001d5	e8 00 00 00 00	 call	 ?process_assert@@YGXPBD0H@Z ; process_assert
  001da	c7 45 ac 00 00
	00 00		 mov	 DWORD PTR tv160[ebp], 0
$LN21@get_local_:
  001e1	6a 27		 push	 39			; 00000027H
  001e3	8b 4d 08	 mov	 ecx, DWORD PTR _en$[ebp]
  001e6	51		 push	 ecx
  001e7	69 55 b0 bc 02
	00 00		 imul	 edx, DWORD PTR tv152[ebp], 700
  001ee	8b 45 ac	 mov	 eax, DWORD PTR tv160[ebp]
  001f1	8b 8c 82 00 00
	00 00		 mov	 ecx, DWORD PTR ?fn_get_local_entity_float_value@@3PAY0KP@P6GMPAUENTITY@@W4FLOAT_TYPES@@@ZA[edx+eax*4]
  001f8	ff d1		 call	 ecx
  001fa	d9 5d f8	 fstp	 DWORD PTR _value$[ebp]

; 277  : 
; 278  : 			value *= 0.25;

  001fd	f3 0f 5a 45 f8	 cvtss2sd xmm0, DWORD PTR _value$[ebp]
  00202	f2 0f 59 05 00
	00 00 00	 mulsd	 xmm0, QWORD PTR __real@3fd0000000000000
  0020a	f2 0f 5a c0	 cvtsd2ss xmm0, xmm0
  0020e	f3 0f 11 45 f8	 movss	 DWORD PTR _value$[ebp], xmm0

; 279  : 
; 280  : 			break;

  00213	eb 72		 jmp	 SHORT $LN2@get_local_
$LN12@get_local_:

; 281  : 		}
; 282  : 		////////////////////////////////////////
; 283  : 		default:
; 284  : 		////////////////////////////////////////
; 285  : 		{
; 286  : 			debug_fatal_invalid_float_type (en, type);

  00215	83 7d 08 00	 cmp	 DWORD PTR _en$[ebp], 0
  00219	74 0a		 je	 SHORT $LN22@get_local_
  0021b	8b 45 08	 mov	 eax, DWORD PTR _en$[ebp]
  0021e	8b 08		 mov	 ecx, DWORD PTR [eax]
  00220	89 4d b0	 mov	 DWORD PTR tv185[ebp], ecx
  00223	eb 21		 jmp	 SHORT $LN23@get_local_
$LN22@get_local_:
  00225	8b 15 00 00 00
	00		 mov	 edx, DWORD PTR ?__LINE__Var@?0??get_local_float_value@@YGMPAUENTITY@@W4FLOAT_TYPES@@@Z@4JA
  0022b	83 c2 5c	 add	 edx, 92			; 0000005cH
  0022e	52		 push	 edx
  0022f	68 00 00 00 00	 push	 OFFSET ??_C@_0EE@IJMCKKPF@c?3?2users?2nhv90?2projects?2eech?2ap@
  00234	a1 00 00 00 00	 mov	 eax, DWORD PTR ?null_entity_pointer_message@@3PBDB ; null_entity_pointer_message
  00239	50		 push	 eax
  0023a	e8 00 00 00 00	 call	 ?process_assert@@YGXPBD0H@Z ; process_assert
  0023f	c7 45 b0 00 00
	00 00		 mov	 DWORD PTR tv185[ebp], 0
$LN23@get_local_:
  00246	8b 0d 00 00 00
	00		 mov	 ecx, DWORD PTR ?__LINE__Var@?0??get_local_float_value@@YGMPAUENTITY@@W4FLOAT_TYPES@@@Z@4JA
  0024c	83 c1 5c	 add	 ecx, 92			; 0000005cH
  0024f	51		 push	 ecx
  00250	68 00 00 00 00	 push	 OFFSET ??_C@_0EE@IJMCKKPF@c?3?2users?2nhv90?2projects?2eech?2ap@
  00255	6b 55 0c 18	 imul	 edx, DWORD PTR _type$[ebp], 24
  00259	8b 82 00 00 00
	00		 mov	 eax, DWORD PTR ?float_type_database@@3PAUFLOAT_TYPE_DATA@@A[edx]
  0025f	50		 push	 eax
  00260	8b 4d 08	 mov	 ecx, DWORD PTR _en$[ebp]
  00263	2b 0d 00 00 00
	00		 sub	 ecx, DWORD PTR ?entities@@3PAUENTITY@@A ; entities
  00269	c1 f9 04	 sar	 ecx, 4
  0026c	51		 push	 ecx
  0026d	6b 55 b0 0c	 imul	 edx, DWORD PTR tv185[ebp], 12
  00271	8b 82 00 00 00
	00		 mov	 eax, DWORD PTR ?entity_type_database@@3PAUENTITY_TYPE_DATA@@A[edx]
  00277	50		 push	 eax
  00278	8b 0d 00 00 00
	00		 mov	 ecx, DWORD PTR ?debug_fatal_invalid_float_type_message@@3PBDB ; debug_fatal_invalid_float_type_message
  0027e	51		 push	 ecx
  0027f	e8 00 00 00 00	 call	 ?debug_fatal@@YAXPBDZZ	; debug_fatal
  00284	83 c4 18	 add	 esp, 24			; 00000018H
$LN2@get_local_:

; 287  : 
; 288  : 			break;
; 289  : 		}
; 290  : 	}
; 291  : 
; 292  : 	return (value);

  00287	d9 45 f8	 fld	 DWORD PTR _value$[ebp]

; 293  : }

  0028a	5f		 pop	 edi
  0028b	5e		 pop	 esi
  0028c	5b		 pop	 ebx
  0028d	8b e5		 mov	 esp, ebp
  0028f	5d		 pop	 ebp
  00290	c2 08 00	 ret	 8
  00293	90		 npad	 1
$LN25@get_local_:
  00294	00 00 00 00	 DD	 $LN4@get_local_
  00298	00 00 00 00	 DD	 $LN5@get_local_
  0029c	00 00 00 00	 DD	 $LN6@get_local_
  002a0	00 00 00 00	 DD	 $LN8@get_local_
  002a4	00 00 00 00	 DD	 $LN9@get_local_
  002a8	00 00 00 00	 DD	 $LN10@get_local_
  002ac	00 00 00 00	 DD	 $LN11@get_local_
  002b0	00 00 00 00	 DD	 $LN12@get_local_
$LN24@get_local_:
  002b4	00		 DB	 0
  002b5	07		 DB	 7
  002b6	07		 DB	 7
  002b7	07		 DB	 7
  002b8	07		 DB	 7
  002b9	07		 DB	 7
  002ba	07		 DB	 7
  002bb	07		 DB	 7
  002bc	07		 DB	 7
  002bd	07		 DB	 7
  002be	07		 DB	 7
  002bf	07		 DB	 7
  002c0	07		 DB	 7
  002c1	07		 DB	 7
  002c2	07		 DB	 7
  002c3	07		 DB	 7
  002c4	07		 DB	 7
  002c5	07		 DB	 7
  002c6	07		 DB	 7
  002c7	07		 DB	 7
  002c8	07		 DB	 7
  002c9	07		 DB	 7
  002ca	07		 DB	 7
  002cb	07		 DB	 7
  002cc	07		 DB	 7
  002cd	07		 DB	 7
  002ce	07		 DB	 7
  002cf	07		 DB	 7
  002d0	07		 DB	 7
  002d1	07		 DB	 7
  002d2	07		 DB	 7
  002d3	07		 DB	 7
  002d4	07		 DB	 7
  002d5	01		 DB	 1
  002d6	02		 DB	 2
  002d7	07		 DB	 7
  002d8	07		 DB	 7
  002d9	07		 DB	 7
  002da	07		 DB	 7
  002db	07		 DB	 7
  002dc	07		 DB	 7
  002dd	07		 DB	 7
  002de	07		 DB	 7
  002df	07		 DB	 7
  002e0	07		 DB	 7
  002e1	07		 DB	 7
  002e2	03		 DB	 3
  002e3	07		 DB	 7
  002e4	07		 DB	 7
  002e5	07		 DB	 7
  002e6	07		 DB	 7
  002e7	07		 DB	 7
  002e8	07		 DB	 7
  002e9	07		 DB	 7
  002ea	07		 DB	 7
  002eb	07		 DB	 7
  002ec	07		 DB	 7
  002ed	07		 DB	 7
  002ee	07		 DB	 7
  002ef	07		 DB	 7
  002f0	07		 DB	 7
  002f1	07		 DB	 7
  002f2	07		 DB	 7
  002f3	07		 DB	 7
  002f4	07		 DB	 7
  002f5	07		 DB	 7
  002f6	07		 DB	 7
  002f7	07		 DB	 7
  002f8	07		 DB	 7
  002f9	04		 DB	 4
  002fa	07		 DB	 7
  002fb	07		 DB	 7
  002fc	07		 DB	 7
  002fd	07		 DB	 7
  002fe	07		 DB	 7
  002ff	07		 DB	 7
  00300	07		 DB	 7
  00301	07		 DB	 7
  00302	07		 DB	 7
  00303	07		 DB	 7
  00304	07		 DB	 7
  00305	07		 DB	 7
  00306	07		 DB	 7
  00307	07		 DB	 7
  00308	07		 DB	 7
  00309	07		 DB	 7
  0030a	07		 DB	 7
  0030b	07		 DB	 7
  0030c	07		 DB	 7
  0030d	07		 DB	 7
  0030e	07		 DB	 7
  0030f	07		 DB	 7
  00310	07		 DB	 7
  00311	07		 DB	 7
  00312	07		 DB	 7
  00313	07		 DB	 7
  00314	07		 DB	 7
  00315	07		 DB	 7
  00316	07		 DB	 7
  00317	07		 DB	 7
  00318	07		 DB	 7
  00319	07		 DB	 7
  0031a	07		 DB	 7
  0031b	07		 DB	 7
  0031c	07		 DB	 7
  0031d	07		 DB	 7
  0031e	07		 DB	 7
  0031f	07		 DB	 7
  00320	07		 DB	 7
  00321	07		 DB	 7
  00322	07		 DB	 7
  00323	07		 DB	 7
  00324	07		 DB	 7
  00325	07		 DB	 7
  00326	07		 DB	 7
  00327	07		 DB	 7
  00328	07		 DB	 7
  00329	07		 DB	 7
  0032a	07		 DB	 7
  0032b	07		 DB	 7
  0032c	07		 DB	 7
  0032d	07		 DB	 7
  0032e	07		 DB	 7
  0032f	07		 DB	 7
  00330	07		 DB	 7
  00331	07		 DB	 7
  00332	05		 DB	 5
  00333	06		 DB	 6
?get_local_float_value@@YGMPAUENTITY@@W4FLOAT_TYPES@@@Z ENDP ; get_local_float_value
_TEXT	ENDS
; Function compile flags: /Odtp /ZI
; File c:\users\nhv90\projects\eech\aphavoc\source\entity\fixed\fx_float.c
;	COMDAT ?set_client_float_value@@YGXPAUENTITY@@W4FLOAT_TYPES@@M@Z
_TEXT	SEGMENT
_en$ = 8						; size = 4
_type$ = 12						; size = 4
_value$ = 16						; size = 4
?set_client_float_value@@YGXPAUENTITY@@W4FLOAT_TYPES@@M@Z PROC ; set_client_float_value, COMDAT

; 170  : {

  00000	55		 push	 ebp
  00001	8b ec		 mov	 ebp, esp
  00003	83 ec 40	 sub	 esp, 64			; 00000040H
  00006	53		 push	 ebx
  00007	56		 push	 esi
  00008	57		 push	 edi

; 171  : 	if (get_comms_data_flow () == COMMS_DATA_FLOW_TX)

  00009	83 3d 00 00 00
	00 00		 cmp	 DWORD PTR ?system_comms_data_flow@@3W4COMMS_DATA_FLOW_TYPES@@A, 0 ; system_comms_data_flow
  00010	75 3b		 jne	 SHORT $LN2@set_client

; 172  : 	{
; 173  : 		validate_client_server_remote_fn ();

  00012	e8 00 00 00 00	 call	 ?assert_client_server_remote_fn@@YGHXZ ; assert_client_server_remote_fn
  00017	85 c0		 test	 eax, eax
  00019	75 18		 jne	 SHORT $LN4@set_client
  0001b	a1 00 00 00 00	 mov	 eax, DWORD PTR ?__LINE__Var@?0??set_client_float_value@@YGXPAUENTITY@@W4FLOAT_TYPES@@M@Z@4JA
  00020	83 c0 03	 add	 eax, 3
  00023	50		 push	 eax
  00024	68 00 00 00 00	 push	 OFFSET ??_C@_0EE@IJMCKKPF@c?3?2users?2nhv90?2projects?2eech?2ap@
  00029	68 00 00 00 00	 push	 OFFSET ??_C@_0CC@BNNNEGEG@assert_client_server_remote_fn?5@
  0002e	e8 00 00 00 00	 call	 ?process_assert@@YGXPBD0H@Z ; process_assert
$LN4@set_client:

; 174  : 
; 175  : 		set_remote_float_value (en, type, value);

  00033	51		 push	 ecx
  00034	f3 0f 10 45 10	 movss	 xmm0, DWORD PTR _value$[ebp]
  00039	f3 0f 11 04 24	 movss	 DWORD PTR [esp], xmm0
  0003e	8b 45 0c	 mov	 eax, DWORD PTR _type$[ebp]
  00041	50		 push	 eax
  00042	8b 4d 08	 mov	 ecx, DWORD PTR _en$[ebp]
  00045	51		 push	 ecx
  00046	e8 00 00 00 00	 call	 ?set_remote_float_value@@YGXPAUENTITY@@W4FLOAT_TYPES@@M@Z ; set_remote_float_value

; 176  : 	}
; 177  : 	else

  0004b	eb 39		 jmp	 SHORT $LN3@set_client
$LN2@set_client:

; 178  : 	{
; 179  : 		validate_client_server_local_fn ();

  0004d	e8 00 00 00 00	 call	 ?assert_client_server_local_fn@@YGHXZ ; assert_client_server_local_fn
  00052	85 c0		 test	 eax, eax
  00054	75 18		 jne	 SHORT $LN5@set_client
  00056	a1 00 00 00 00	 mov	 eax, DWORD PTR ?__LINE__Var@?0??set_client_float_value@@YGXPAUENTITY@@W4FLOAT_TYPES@@M@Z@4JA
  0005b	83 c0 09	 add	 eax, 9
  0005e	50		 push	 eax
  0005f	68 00 00 00 00	 push	 OFFSET ??_C@_0EE@IJMCKKPF@c?3?2users?2nhv90?2projects?2eech?2ap@
  00064	68 00 00 00 00	 push	 OFFSET ??_C@_0CB@CFOCLFOK@assert_client_server_local_fn?5?$CI@
  00069	e8 00 00 00 00	 call	 ?process_assert@@YGXPBD0H@Z ; process_assert
$LN5@set_client:

; 180  : 
; 181  : 		set_local_float_value (en, type, value);

  0006e	51		 push	 ecx
  0006f	f3 0f 10 45 10	 movss	 xmm0, DWORD PTR _value$[ebp]
  00074	f3 0f 11 04 24	 movss	 DWORD PTR [esp], xmm0
  00079	8b 45 0c	 mov	 eax, DWORD PTR _type$[ebp]
  0007c	50		 push	 eax
  0007d	8b 4d 08	 mov	 ecx, DWORD PTR _en$[ebp]
  00080	51		 push	 ecx
  00081	e8 00 00 00 00	 call	 ?set_local_float_value@@YGXPAUENTITY@@W4FLOAT_TYPES@@M@Z ; set_local_float_value
$LN3@set_client:

; 182  : 	}
; 183  : }

  00086	5f		 pop	 edi
  00087	5e		 pop	 esi
  00088	5b		 pop	 ebx
  00089	8b e5		 mov	 esp, ebp
  0008b	5d		 pop	 ebp
  0008c	c2 0c 00	 ret	 12			; 0000000cH
?set_client_float_value@@YGXPAUENTITY@@W4FLOAT_TYPES@@M@Z ENDP ; set_client_float_value
_TEXT	ENDS
; Function compile flags: /Odtp /ZI
; File c:\users\nhv90\projects\eech\aphavoc\source\entity\fixed\fx_float.c
;	COMDAT ?set_server_float_value@@YGXPAUENTITY@@W4FLOAT_TYPES@@M@Z
_TEXT	SEGMENT
_en$ = 8						; size = 4
_type$ = 12						; size = 4
_value$ = 16						; size = 4
?set_server_float_value@@YGXPAUENTITY@@W4FLOAT_TYPES@@M@Z PROC ; set_server_float_value, COMDAT

; 151  : {

  00000	55		 push	 ebp
  00001	8b ec		 mov	 ebp, esp
  00003	83 ec 40	 sub	 esp, 64			; 00000040H
  00006	53		 push	 ebx
  00007	56		 push	 esi
  00008	57		 push	 edi

; 152  : 	validate_client_server_local_fn ();

  00009	e8 00 00 00 00	 call	 ?assert_client_server_local_fn@@YGHXZ ; assert_client_server_local_fn
  0000e	85 c0		 test	 eax, eax
  00010	75 18		 jne	 SHORT $LN2@set_server
  00012	a1 00 00 00 00	 mov	 eax, DWORD PTR ?__LINE__Var@?0??set_server_float_value@@YGXPAUENTITY@@W4FLOAT_TYPES@@M@Z@4JA
  00017	83 c0 01	 add	 eax, 1
  0001a	50		 push	 eax
  0001b	68 00 00 00 00	 push	 OFFSET ??_C@_0EE@IJMCKKPF@c?3?2users?2nhv90?2projects?2eech?2ap@
  00020	68 00 00 00 00	 push	 OFFSET ??_C@_0CB@CFOCLFOK@assert_client_server_local_fn?5?$CI@
  00025	e8 00 00 00 00	 call	 ?process_assert@@YGXPBD0H@Z ; process_assert
$LN2@set_server:

; 153  : 
; 154  : 	set_local_float_value (en, type, value);

  0002a	51		 push	 ecx
  0002b	f3 0f 10 45 10	 movss	 xmm0, DWORD PTR _value$[ebp]
  00030	f3 0f 11 04 24	 movss	 DWORD PTR [esp], xmm0
  00035	8b 45 0c	 mov	 eax, DWORD PTR _type$[ebp]
  00038	50		 push	 eax
  00039	8b 4d 08	 mov	 ecx, DWORD PTR _en$[ebp]
  0003c	51		 push	 ecx
  0003d	e8 00 00 00 00	 call	 ?set_local_float_value@@YGXPAUENTITY@@W4FLOAT_TYPES@@M@Z ; set_local_float_value

; 155  : 
; 156  : 	validate_client_server_remote_fn ();

  00042	e8 00 00 00 00	 call	 ?assert_client_server_remote_fn@@YGHXZ ; assert_client_server_remote_fn
  00047	85 c0		 test	 eax, eax
  00049	75 18		 jne	 SHORT $LN3@set_server
  0004b	a1 00 00 00 00	 mov	 eax, DWORD PTR ?__LINE__Var@?0??set_server_float_value@@YGXPAUENTITY@@W4FLOAT_TYPES@@M@Z@4JA
  00050	83 c0 05	 add	 eax, 5
  00053	50		 push	 eax
  00054	68 00 00 00 00	 push	 OFFSET ??_C@_0EE@IJMCKKPF@c?3?2users?2nhv90?2projects?2eech?2ap@
  00059	68 00 00 00 00	 push	 OFFSET ??_C@_0CC@BNNNEGEG@assert_client_server_remote_fn?5@
  0005e	e8 00 00 00 00	 call	 ?process_assert@@YGXPBD0H@Z ; process_assert
$LN3@set_server:

; 157  : 
; 158  : 	set_remote_float_value (en, type, value);

  00063	51		 push	 ecx
  00064	f3 0f 10 45 10	 movss	 xmm0, DWORD PTR _value$[ebp]
  00069	f3 0f 11 04 24	 movss	 DWORD PTR [esp], xmm0
  0006e	8b 45 0c	 mov	 eax, DWORD PTR _type$[ebp]
  00071	50		 push	 eax
  00072	8b 4d 08	 mov	 ecx, DWORD PTR _en$[ebp]
  00075	51		 push	 ecx
  00076	e8 00 00 00 00	 call	 ?set_remote_float_value@@YGXPAUENTITY@@W4FLOAT_TYPES@@M@Z ; set_remote_float_value

; 159  : }

  0007b	5f		 pop	 edi
  0007c	5e		 pop	 esi
  0007d	5b		 pop	 ebx
  0007e	8b e5		 mov	 esp, ebp
  00080	5d		 pop	 ebp
  00081	c2 0c 00	 ret	 12			; 0000000cH
?set_server_float_value@@YGXPAUENTITY@@W4FLOAT_TYPES@@M@Z ENDP ; set_server_float_value
_TEXT	ENDS
; Function compile flags: /Odtp /ZI
; File c:\users\nhv90\projects\eech\aphavoc\source\entity\fixed\fx_float.c
;	COMDAT ?set_remote_float_value@@YGXPAUENTITY@@W4FLOAT_TYPES@@M@Z
_TEXT	SEGMENT
_en$ = 8						; size = 4
_type$ = 12						; size = 4
_value$ = 16						; size = 4
?set_remote_float_value@@YGXPAUENTITY@@W4FLOAT_TYPES@@M@Z PROC ; set_remote_float_value, COMDAT

; 132  : {

  00000	55		 push	 ebp
  00001	8b ec		 mov	 ebp, esp
  00003	83 ec 40	 sub	 esp, 64			; 00000040H
  00006	53		 push	 ebx
  00007	56		 push	 esi
  00008	57		 push	 edi

; 133  : 	#if DEBUG_MODULE
; 134  : 
; 135  : 	debug_log_entity_args (ENTITY_DEBUG_REMOTE, ENTITY_DEBUG_FLOAT_VALUE, en, type, value);
; 136  : 
; 137  : 	#endif
; 138  : 
; 139  : 	transmit_entity_comms_message (ENTITY_COMMS_FLOAT_VALUE, en, type, value);

  00009	f3 0f 5a 45 10	 cvtss2sd xmm0, DWORD PTR _value$[ebp]
  0000e	83 ec 08	 sub	 esp, 8
  00011	f2 0f 11 04 24	 movsd	 QWORD PTR [esp], xmm0
  00016	8b 45 0c	 mov	 eax, DWORD PTR _type$[ebp]
  00019	50		 push	 eax
  0001a	8b 4d 08	 mov	 ecx, DWORD PTR _en$[ebp]
  0001d	51		 push	 ecx
  0001e	6a 16		 push	 22			; 00000016H
  00020	e8 00 00 00 00	 call	 ?transmit_entity_comms_message@@YAXW4ENTITY_COMMS_MESSAGES@@PAUENTITY@@ZZ ; transmit_entity_comms_message
  00025	83 c4 14	 add	 esp, 20			; 00000014H

; 140  : }

  00028	5f		 pop	 edi
  00029	5e		 pop	 esi
  0002a	5b		 pop	 ebx
  0002b	8b e5		 mov	 esp, ebp
  0002d	5d		 pop	 ebp
  0002e	c2 0c 00	 ret	 12			; 0000000cH
?set_remote_float_value@@YGXPAUENTITY@@W4FLOAT_TYPES@@M@Z ENDP ; set_remote_float_value
_TEXT	ENDS
; Function compile flags: /Odtp /ZI
; File c:\users\nhv90\projects\eech\aphavoc\source\entity\fixed\fx_float.c
;	COMDAT ?set_local_float_value@@YGXPAUENTITY@@W4FLOAT_TYPES@@M@Z
_TEXT	SEGMENT
tv83 = -72						; size = 4
tv65 = -72						; size = 4
_raw$ = -4						; size = 4
_en$ = 8						; size = 4
_type$ = 12						; size = 4
_value$ = 16						; size = 4
?set_local_float_value@@YGXPAUENTITY@@W4FLOAT_TYPES@@M@Z PROC ; set_local_float_value, COMDAT

; 90   : {

  00000	55		 push	 ebp
  00001	8b ec		 mov	 ebp, esp
  00003	83 ec 48	 sub	 esp, 72			; 00000048H
  00006	53		 push	 ebx
  00007	56		 push	 esi
  00008	57		 push	 edi

; 91   : 	fixed
; 92   : 		*raw;
; 93   : 
; 94   : 	#if DEBUG_MODULE
; 95   : 
; 96   : 	debug_log_entity_args (ENTITY_DEBUG_LOCAL, ENTITY_DEBUG_FLOAT_VALUE, en, type, value);
; 97   : 
; 98   : 	#endif
; 99   : 
; 100  : 	raw = (fixed *) get_local_entity_data (en);

  00009	8b 45 08	 mov	 eax, DWORD PTR _en$[ebp]
  0000c	8b 48 04	 mov	 ecx, DWORD PTR [eax+4]
  0000f	89 4d fc	 mov	 DWORD PTR _raw$[ebp], ecx

; 101  : 
; 102  : 	switch (type)

  00012	8b 45 0c	 mov	 eax, DWORD PTR _type$[ebp]
  00015	89 45 b8	 mov	 DWORD PTR tv65[ebp], eax
  00018	83 7d b8 34	 cmp	 DWORD PTR tv65[ebp], 52	; 00000034H
  0001c	74 02		 je	 SHORT $LN4@set_local_
  0001e	eb 0f		 jmp	 SHORT $LN5@set_local_
$LN4@set_local_:

; 103  : 	{
; 104  : 		////////////////////////////////////////
; 105  : 		case FLOAT_TYPE_HEADING:
; 106  : 		////////////////////////////////////////
; 107  : 		{
; 108  : 			raw->heading = value;

  00020	8b 45 fc	 mov	 eax, DWORD PTR _raw$[ebp]
  00023	f3 0f 10 45 10	 movss	 xmm0, DWORD PTR _value$[ebp]
  00028	f3 0f 11 40 3c	 movss	 DWORD PTR [eax+60], xmm0

; 109  : 
; 110  : 			break;

  0002d	eb 72		 jmp	 SHORT $LN2@set_local_
$LN5@set_local_:

; 111  : 		}
; 112  : 		////////////////////////////////////////
; 113  : 		default:
; 114  : 		////////////////////////////////////////
; 115  : 		{
; 116  : 			debug_fatal_invalid_float_type (en, type);

  0002f	83 7d 08 00	 cmp	 DWORD PTR _en$[ebp], 0
  00033	74 0a		 je	 SHORT $LN7@set_local_
  00035	8b 45 08	 mov	 eax, DWORD PTR _en$[ebp]
  00038	8b 08		 mov	 ecx, DWORD PTR [eax]
  0003a	89 4d b8	 mov	 DWORD PTR tv83[ebp], ecx
  0003d	eb 21		 jmp	 SHORT $LN8@set_local_
$LN7@set_local_:
  0003f	8b 15 00 00 00
	00		 mov	 edx, DWORD PTR ?__LINE__Var@?0??set_local_float_value@@YGXPAUENTITY@@W4FLOAT_TYPES@@M@Z@4JA
  00045	83 c2 1a	 add	 edx, 26			; 0000001aH
  00048	52		 push	 edx
  00049	68 00 00 00 00	 push	 OFFSET ??_C@_0EE@IJMCKKPF@c?3?2users?2nhv90?2projects?2eech?2ap@
  0004e	a1 00 00 00 00	 mov	 eax, DWORD PTR ?null_entity_pointer_message@@3PBDB ; null_entity_pointer_message
  00053	50		 push	 eax
  00054	e8 00 00 00 00	 call	 ?process_assert@@YGXPBD0H@Z ; process_assert
  00059	c7 45 b8 00 00
	00 00		 mov	 DWORD PTR tv83[ebp], 0
$LN8@set_local_:
  00060	8b 0d 00 00 00
	00		 mov	 ecx, DWORD PTR ?__LINE__Var@?0??set_local_float_value@@YGXPAUENTITY@@W4FLOAT_TYPES@@M@Z@4JA
  00066	83 c1 1a	 add	 ecx, 26			; 0000001aH
  00069	51		 push	 ecx
  0006a	68 00 00 00 00	 push	 OFFSET ??_C@_0EE@IJMCKKPF@c?3?2users?2nhv90?2projects?2eech?2ap@
  0006f	6b 55 0c 18	 imul	 edx, DWORD PTR _type$[ebp], 24
  00073	8b 82 00 00 00
	00		 mov	 eax, DWORD PTR ?float_type_database@@3PAUFLOAT_TYPE_DATA@@A[edx]
  00079	50		 push	 eax
  0007a	8b 4d 08	 mov	 ecx, DWORD PTR _en$[ebp]
  0007d	2b 0d 00 00 00
	00		 sub	 ecx, DWORD PTR ?entities@@3PAUENTITY@@A ; entities
  00083	c1 f9 04	 sar	 ecx, 4
  00086	51		 push	 ecx
  00087	6b 55 b8 0c	 imul	 edx, DWORD PTR tv83[ebp], 12
  0008b	8b 82 00 00 00
	00		 mov	 eax, DWORD PTR ?entity_type_database@@3PAUENTITY_TYPE_DATA@@A[edx]
  00091	50		 push	 eax
  00092	8b 0d 00 00 00
	00		 mov	 ecx, DWORD PTR ?debug_fatal_invalid_float_type_message@@3PBDB ; debug_fatal_invalid_float_type_message
  00098	51		 push	 ecx
  00099	e8 00 00 00 00	 call	 ?debug_fatal@@YAXPBDZZ	; debug_fatal
  0009e	83 c4 18	 add	 esp, 24			; 00000018H
$LN2@set_local_:

; 117  : 
; 118  : 			break;
; 119  : 		}
; 120  : 	}
; 121  : }

  000a1	5f		 pop	 edi
  000a2	5e		 pop	 esi
  000a3	5b		 pop	 ebx
  000a4	8b e5		 mov	 esp, ebp
  000a6	5d		 pop	 ebp
  000a7	c2 0c 00	 ret	 12			; 0000000cH
?set_local_float_value@@YGXPAUENTITY@@W4FLOAT_TYPES@@M@Z ENDP ; set_local_float_value
_TEXT	ENDS
; Function compile flags: /Odtp /ZI
; File c:\users\nhv90\projects\eech\aphavoc\source\entity\fixed\fx_float.c
;	COMDAT ?overload_fixed_float_value_functions@@YGXW4ENTITY_TYPES@@@Z
_TEXT	SEGMENT
_type$ = 8						; size = 4
?overload_fixed_float_value_functions@@YGXW4ENTITY_TYPES@@@Z PROC ; overload_fixed_float_value_functions, COMDAT

; 302  : {

  00000	55		 push	 ebp
  00001	8b ec		 mov	 ebp, esp
  00003	83 ec 40	 sub	 esp, 64			; 00000040H
  00006	53		 push	 ebx
  00007	56		 push	 esi
  00008	57		 push	 edi

; 303  : 	fn_get_local_entity_float_value				[type][FLOAT_TYPE_ALTITUDE]							= get_local_float_value;

  00009	69 45 08 bc 02
	00 00		 imul	 eax, DWORD PTR _type$[ebp], 700
  00010	b9 04 00 00 00	 mov	 ecx, 4
  00015	6b d1 06	 imul	 edx, ecx, 6
  00018	c7 84 10 00 00
	00 00 00 00 00
	00		 mov	 DWORD PTR ?fn_get_local_entity_float_value@@3PAY0KP@P6GMPAUENTITY@@W4FLOAT_TYPES@@@ZA[eax+edx], OFFSET ?get_local_float_value@@YGMPAUENTITY@@W4FLOAT_TYPES@@@Z ; get_local_float_value

; 304  : 
; 305  : 	fn_get_local_entity_float_value				[type][FLOAT_TYPE_FIXED_OBJECT_IMPORTANCE]		= get_local_float_value;

  00023	69 45 08 bc 02
	00 00		 imul	 eax, DWORD PTR _type$[ebp], 700
  0002a	b9 04 00 00 00	 mov	 ecx, 4
  0002f	6b d1 27	 imul	 edx, ecx, 39
  00032	c7 84 10 00 00
	00 00 00 00 00
	00		 mov	 DWORD PTR ?fn_get_local_entity_float_value@@3PAY0KP@P6GMPAUENTITY@@W4FLOAT_TYPES@@@ZA[eax+edx], OFFSET ?get_local_float_value@@YGMPAUENTITY@@W4FLOAT_TYPES@@@Z ; get_local_float_value

; 306  : 
; 307  : 	fn_get_local_entity_float_value				[type][FLOAT_TYPE_FIXED_STRUCTURE_HEIGHT]			= get_local_float_value;

  0003d	69 45 08 bc 02
	00 00		 imul	 eax, DWORD PTR _type$[ebp], 700
  00044	b9 04 00 00 00	 mov	 ecx, 4
  00049	6b d1 28	 imul	 edx, ecx, 40
  0004c	c7 84 10 00 00
	00 00 00 00 00
	00		 mov	 DWORD PTR ?fn_get_local_entity_float_value@@3PAY0KP@P6GMPAUENTITY@@W4FLOAT_TYPES@@@ZA[eax+edx], OFFSET ?get_local_float_value@@YGMPAUENTITY@@W4FLOAT_TYPES@@@Z ; get_local_float_value

; 308  : 
; 309  : 	fn_set_local_entity_raw_float_value			[type][FLOAT_TYPE_HEADING]								= set_local_float_value;

  00057	69 45 08 bc 02
	00 00		 imul	 eax, DWORD PTR _type$[ebp], 700
  0005e	b9 04 00 00 00	 mov	 ecx, 4
  00063	6b d1 34	 imul	 edx, ecx, 52
  00066	c7 84 10 00 00
	00 00 00 00 00
	00		 mov	 DWORD PTR ?fn_set_local_entity_raw_float_value@@3PAY0KP@P6GXPAUENTITY@@W4FLOAT_TYPES@@M@ZA[eax+edx], OFFSET ?set_local_float_value@@YGXPAUENTITY@@W4FLOAT_TYPES@@M@Z ; set_local_float_value

; 310  : 	fn_set_local_entity_float_value				[type][FLOAT_TYPE_HEADING]								= set_local_float_value;

  00071	69 45 08 bc 02
	00 00		 imul	 eax, DWORD PTR _type$[ebp], 700
  00078	b9 04 00 00 00	 mov	 ecx, 4
  0007d	6b d1 34	 imul	 edx, ecx, 52
  00080	c7 84 10 00 00
	00 00 00 00 00
	00		 mov	 DWORD PTR ?fn_set_local_entity_float_value@@3PAY0KP@P6GXPAUENTITY@@W4FLOAT_TYPES@@M@ZA[eax+edx], OFFSET ?set_local_float_value@@YGXPAUENTITY@@W4FLOAT_TYPES@@M@Z ; set_local_float_value

; 311  : 	fn_set_client_server_entity_float_value	[type][FLOAT_TYPE_HEADING][COMMS_MODEL_SERVER]	= set_server_float_value;

  0008b	69 45 08 78 05
	00 00		 imul	 eax, DWORD PTR _type$[ebp], 1400
  00092	b9 08 00 00 00	 mov	 ecx, 8
  00097	6b d1 34	 imul	 edx, ecx, 52
  0009a	8d 84 10 00 00
	00 00		 lea	 eax, DWORD PTR ?fn_set_client_server_entity_float_value@@3PAY1KP@1P6GXPAUENTITY@@W4FLOAT_TYPES@@M@ZA[eax+edx]
  000a1	b9 04 00 00 00	 mov	 ecx, 4
  000a6	6b d1 00	 imul	 edx, ecx, 0
  000a9	c7 04 10 00 00
	00 00		 mov	 DWORD PTR [eax+edx], OFFSET ?set_server_float_value@@YGXPAUENTITY@@W4FLOAT_TYPES@@M@Z ; set_server_float_value

; 312  : 	fn_set_client_server_entity_float_value	[type][FLOAT_TYPE_HEADING][COMMS_MODEL_CLIENT]	= set_client_float_value;

  000b0	69 45 08 78 05
	00 00		 imul	 eax, DWORD PTR _type$[ebp], 1400
  000b7	b9 08 00 00 00	 mov	 ecx, 8
  000bc	6b d1 34	 imul	 edx, ecx, 52
  000bf	8d 84 10 00 00
	00 00		 lea	 eax, DWORD PTR ?fn_set_client_server_entity_float_value@@3PAY1KP@1P6GXPAUENTITY@@W4FLOAT_TYPES@@M@ZA[eax+edx]
  000c6	b9 04 00 00 00	 mov	 ecx, 4
  000cb	c1 e1 00	 shl	 ecx, 0
  000ce	c7 04 08 00 00
	00 00		 mov	 DWORD PTR [eax+ecx], OFFSET ?set_client_float_value@@YGXPAUENTITY@@W4FLOAT_TYPES@@M@Z ; set_client_float_value

; 313  : 	fn_get_local_entity_float_value				[type][FLOAT_TYPE_HEADING]								= get_local_float_value;

  000d5	69 45 08 bc 02
	00 00		 imul	 eax, DWORD PTR _type$[ebp], 700
  000dc	b9 04 00 00 00	 mov	 ecx, 4
  000e1	6b d1 34	 imul	 edx, ecx, 52
  000e4	c7 84 10 00 00
	00 00 00 00 00
	00		 mov	 DWORD PTR ?fn_get_local_entity_float_value@@3PAY0KP@P6GMPAUENTITY@@W4FLOAT_TYPES@@@ZA[eax+edx], OFFSET ?get_local_float_value@@YGMPAUENTITY@@W4FLOAT_TYPES@@@Z ; get_local_float_value

; 314  : 
; 315  : 	fn_get_local_entity_float_value				[type][FLOAT_TYPE_MAX_3D_OBJECT_VISUAL_RANGE]	= get_local_float_value;

  000ef	69 45 08 bc 02
	00 00		 imul	 eax, DWORD PTR _type$[ebp], 700
  000f6	b9 04 00 00 00	 mov	 ecx, 4
  000fb	6b d1 4b	 imul	 edx, ecx, 75
  000fe	c7 84 10 00 00
	00 00 00 00 00
	00		 mov	 DWORD PTR ?fn_get_local_entity_float_value@@3PAY0KP@P6GMPAUENTITY@@W4FLOAT_TYPES@@@ZA[eax+edx], OFFSET ?get_local_float_value@@YGMPAUENTITY@@W4FLOAT_TYPES@@@Z ; get_local_float_value

; 316  : 
; 317  : 	fn_get_local_entity_float_value				[type][FLOAT_TYPE_TARGET_PRIORITY_AIR_ATTACK]		= get_local_float_value;

  00109	69 45 08 bc 02
	00 00		 imul	 eax, DWORD PTR _type$[ebp], 700
  00110	b9 04 00 00 00	 mov	 ecx, 4
  00115	69 d1 84 00 00
	00		 imul	 edx, ecx, 132
  0011b	c7 84 10 00 00
	00 00 00 00 00
	00		 mov	 DWORD PTR ?fn_get_local_entity_float_value@@3PAY0KP@P6GMPAUENTITY@@W4FLOAT_TYPES@@@ZA[eax+edx], OFFSET ?get_local_float_value@@YGMPAUENTITY@@W4FLOAT_TYPES@@@Z ; get_local_float_value

; 318  : 
; 319  : 	fn_get_local_entity_float_value				[type][FLOAT_TYPE_TARGET_PRIORITY_GROUND_ATTACK]	= get_local_float_value;

  00126	69 45 08 bc 02
	00 00		 imul	 eax, DWORD PTR _type$[ebp], 700
  0012d	b9 04 00 00 00	 mov	 ecx, 4
  00132	69 d1 85 00 00
	00		 imul	 edx, ecx, 133
  00138	c7 84 10 00 00
	00 00 00 00 00
	00		 mov	 DWORD PTR ?fn_get_local_entity_float_value@@3PAY0KP@P6GMPAUENTITY@@W4FLOAT_TYPES@@@ZA[eax+edx], OFFSET ?get_local_float_value@@YGMPAUENTITY@@W4FLOAT_TYPES@@@Z ; get_local_float_value

; 320  : }

  00143	5f		 pop	 edi
  00144	5e		 pop	 esi
  00145	5b		 pop	 ebx
  00146	8b e5		 mov	 esp, ebp
  00148	5d		 pop	 ebp
  00149	c2 04 00	 ret	 4
?overload_fixed_float_value_functions@@YGXW4ENTITY_TYPES@@@Z ENDP ; overload_fixed_float_value_functions
_TEXT	ENDS
END
