; Listing generated by Microsoft (R) Optimizing Compiler Version 19.16.27045.0 

	TITLE	C:\Users\nhv90\Projects\eech\aphavoc\source\entity\fixed\fx_int.c
	.686P
	.XMM
	include listing.inc
	.model	flat

INCLUDELIB MSVCRTD
INCLUDELIB OLDNAMES

PUBLIC	?overload_fixed_int_value_functions@@YGXW4ENTITY_TYPES@@@Z ; overload_fixed_int_value_functions
PUBLIC	?__LINE__Var@?0??set_local_int_value@@YGXPAUENTITY@@W4INT_TYPES@@H@Z@4JA ; `set_local_int_value'::`1'::__LINE__Var
PUBLIC	??_C@_0EC@COADLHDH@c?3?2users?2nhv90?2projects?2eech?2ap@ ; `string'
PUBLIC	?__LINE__Var@?0??set_server_int_value@@YGXPAUENTITY@@W4INT_TYPES@@H@Z@4JA ; `set_server_int_value'::`1'::__LINE__Var
PUBLIC	??_C@_0CB@CFOCLFOK@assert_client_server_local_fn?5?$CI@ ; `string'
PUBLIC	??_C@_0CC@BNNNEGEG@assert_client_server_remote_fn?5@ ; `string'
PUBLIC	?__LINE__Var@?0??set_client_int_value@@YGXPAUENTITY@@W4INT_TYPES@@H@Z@4JA ; `set_client_int_value'::`1'::__LINE__Var
PUBLIC	?__LINE__Var@?0??get_local_int_value@@YGHPAUENTITY@@W4INT_TYPES@@@Z@4JA ; `get_local_int_value'::`1'::__LINE__Var
PUBLIC	__real@407f400000000000
EXTRN	?process_assert@@YGXPBD0H@Z:PROC		; process_assert
EXTRN	?convert_float_to_int@@YGXMPAH@Z:PROC		; convert_float_to_int
EXTRN	?debug_fatal@@YAXPBDZZ:PROC			; debug_fatal
EXTRN	?transmit_entity_comms_message@@YAXW4ENTITY_COMMS_MESSAGES@@PAUENTITY@@ZZ:PROC ; transmit_entity_comms_message
EXTRN	?assert_client_server_local_fn@@YGHXZ:PROC	; assert_client_server_local_fn
EXTRN	?assert_client_server_remote_fn@@YGHXZ:PROC	; assert_client_server_remote_fn
EXTRN	?null_entity_pointer_message@@3PBDB:DWORD	; null_entity_pointer_message
EXTRN	?entity_type_database@@3PAUENTITY_TYPE_DATA@@A:BYTE ; entity_type_database
EXTRN	?system_comms_data_flow@@3W4COMMS_DATA_FLOW_TYPES@@A:DWORD ; system_comms_data_flow
EXTRN	?int_type_database@@3PAUINT_TYPE_DATA@@A:BYTE	; int_type_database
EXTRN	?debug_fatal_invalid_int_type_message@@3PBDB:DWORD ; debug_fatal_invalid_int_type_message
EXTRN	?fn_set_local_entity_raw_int_value@@3PAY0BBH@P6GXPAUENTITY@@W4INT_TYPES@@H@ZA:BYTE ; fn_set_local_entity_raw_int_value
EXTRN	?fn_set_local_entity_int_value@@3PAY0BBH@P6GXPAUENTITY@@W4INT_TYPES@@H@ZA:BYTE ; fn_set_local_entity_int_value
EXTRN	?fn_set_client_server_entity_int_value@@3PAY1BBH@1P6GXPAUENTITY@@W4INT_TYPES@@H@ZA:BYTE ; fn_set_client_server_entity_int_value
EXTRN	?fn_get_local_entity_int_value@@3PAY0BBH@P6GHPAUENTITY@@W4INT_TYPES@@@ZA:BYTE ; fn_get_local_entity_int_value
EXTRN	?entities@@3PAUENTITY@@A:DWORD			; entities
EXTRN	?fixed_database@@3QBUFIXED_DATA@@B:BYTE		; fixed_database
EXTRN	?fixed_3d_object_database@@3PAUFIXED_3D_OBJECT_DATA@@A:BYTE ; fixed_3d_object_database
EXTRN	__fltused:DWORD
;	COMDAT __real@407f400000000000
CONST	SEGMENT
__real@407f400000000000 DQ 0407f400000000000r	; 500
CONST	ENDS
;	COMDAT ?__LINE__Var@?0??get_local_int_value@@YGHPAUENTITY@@W4INT_TYPES@@@Z@4JA
_DATA	SEGMENT
?__LINE__Var@?0??get_local_int_value@@YGHPAUENTITY@@W4INT_TYPES@@@Z@4JA DD 0d0H ; `get_local_int_value'::`1'::__LINE__Var
_DATA	ENDS
;	COMDAT ?__LINE__Var@?0??set_client_int_value@@YGXPAUENTITY@@W4INT_TYPES@@H@Z@4JA
_DATA	SEGMENT
?__LINE__Var@?0??set_client_int_value@@YGXPAUENTITY@@W4INT_TYPES@@H@Z@4JA DD 0bcH ; `set_client_int_value'::`1'::__LINE__Var
_DATA	ENDS
;	COMDAT ??_C@_0CC@BNNNEGEG@assert_client_server_remote_fn?5@
CONST	SEGMENT
??_C@_0CC@BNNNEGEG@assert_client_server_remote_fn?5@ DB 'assert_client_se'
	DB	'rver_remote_fn ()', 00H			; `string'
CONST	ENDS
;	COMDAT ??_C@_0CB@CFOCLFOK@assert_client_server_local_fn?5?$CI@
CONST	SEGMENT
??_C@_0CB@CFOCLFOK@assert_client_server_local_fn?5?$CI@ DB 'assert_client'
	DB	'_server_local_fn ()', 00H			; `string'
CONST	ENDS
;	COMDAT ?__LINE__Var@?0??set_server_int_value@@YGXPAUENTITY@@W4INT_TYPES@@H@Z@4JA
_DATA	SEGMENT
?__LINE__Var@?0??set_server_int_value@@YGXPAUENTITY@@W4INT_TYPES@@H@Z@4JA DD 0adH ; `set_server_int_value'::`1'::__LINE__Var
_DATA	ENDS
;	COMDAT ??_C@_0EC@COADLHDH@c?3?2users?2nhv90?2projects?2eech?2ap@
CONST	SEGMENT
??_C@_0EC@COADLHDH@c?3?2users?2nhv90?2projects?2eech?2ap@ DB 'c:\users\nh'
	DB	'v90\projects\eech\aphavoc\source\entity\fixed\fx_int.c', 00H ; `string'
CONST	ENDS
;	COMDAT ?__LINE__Var@?0??set_local_int_value@@YGXPAUENTITY@@W4INT_TYPES@@H@Z@4JA
_DATA	SEGMENT
?__LINE__Var@?0??set_local_int_value@@YGXPAUENTITY@@W4INT_TYPES@@H@Z@4JA DD 050H ; `set_local_int_value'::`1'::__LINE__Var
_DATA	ENDS
; Function compile flags: /Odtp /ZI
; File c:\users\nhv90\projects\eech\aphavoc\source\entity\fixed\fx_int.c
;	COMDAT ?get_local_int_value@@YGHPAUENTITY@@W4INT_TYPES@@@Z
_TEXT	SEGMENT
tv212 = -80						; size = 4
tv193 = -80						; size = 4
tv65 = -80						; size = 4
_t$1 = -12						; size = 4
_value$ = -8						; size = 4
_raw$ = -4						; size = 4
_en$ = 8						; size = 4
_type$ = 12						; size = 4
?get_local_int_value@@YGHPAUENTITY@@W4INT_TYPES@@@Z PROC ; get_local_int_value, COMDAT

; 208  : {

  00000	55		 push	 ebp
  00001	8b ec		 mov	 ebp, esp
  00003	83 ec 50	 sub	 esp, 80			; 00000050H
  00006	53		 push	 ebx
  00007	56		 push	 esi
  00008	57		 push	 edi

; 209  : 	fixed
; 210  : 		*raw;
; 211  : 
; 212  : 	int
; 213  : 		value;
; 214  : 
; 215  : 	raw = (fixed *) get_local_entity_data (en);

  00009	8b 45 08	 mov	 eax, DWORD PTR _en$[ebp]
  0000c	8b 48 04	 mov	 ecx, DWORD PTR [eax+4]
  0000f	89 4d fc	 mov	 DWORD PTR _raw$[ebp], ecx

; 216  : 
; 217  : 	switch (type)

  00012	8b 45 0c	 mov	 eax, DWORD PTR _type$[ebp]
  00015	89 45 b0	 mov	 DWORD PTR tv65[ebp], eax
  00018	8b 4d b0	 mov	 ecx, DWORD PTR tv65[ebp]
  0001b	83 e9 06	 sub	 ecx, 6
  0001e	89 4d b0	 mov	 DWORD PTR tv65[ebp], ecx
  00021	81 7d b0 f6 00
	00 00		 cmp	 DWORD PTR tv65[ebp], 246 ; 000000f6H
  00028	0f 87 6e 02 00
	00		 ja	 $LN30@get_local_
  0002e	8b 55 b0	 mov	 edx, DWORD PTR tv65[ebp]
  00031	0f b6 82 00 00
	00 00		 movzx	 eax, BYTE PTR $LN34@get_local_[edx]
  00038	ff 24 85 00 00
	00 00		 jmp	 DWORD PTR $LN35@get_local_[eax*4]
$LN6@get_local_:

; 218  : 	{
; 219  : 		////////////////////////////////////////
; 220  : 		case INT_TYPE_ALIGN_WITH_TERRAIN:
; 221  : 		////////////////////////////////////////
; 222  : 		{
; 223  : 			value = fixed_database[raw->sub_type].align_with_terrain;

  0003f	8b 45 fc	 mov	 eax, DWORD PTR _raw$[ebp]
  00042	8b 48 38	 mov	 ecx, DWORD PTR [eax+56]
  00045	81 e1 ff 00 00
	00		 and	 ecx, 255		; 000000ffH
  0004b	c1 e1 04	 shl	 ecx, 4
  0004e	8b 91 04 00 00
	00		 mov	 edx, DWORD PTR ?fixed_database@@3QBUFIXED_DATA@@B[ecx+4]
  00054	89 55 f8	 mov	 DWORD PTR _value$[ebp], edx

; 224  : 
; 225  : 			break;

  00057	e9 b8 02 00 00	 jmp	 $LN2@get_local_
$LN7@get_local_:

; 226  : 		}
; 227  : 		////////////////////////////////////////
; 228  : 		case INT_TYPE_ALIVE:
; 229  : 		////////////////////////////////////////
; 230  : 		{
; 231  : 			value = raw->alive;

  0005c	8b 45 fc	 mov	 eax, DWORD PTR _raw$[ebp]
  0005f	8b 48 38	 mov	 ecx, DWORD PTR [eax+56]
  00062	c1 e9 14	 shr	 ecx, 20			; 00000014H
  00065	83 e1 01	 and	 ecx, 1
  00068	89 4d f8	 mov	 DWORD PTR _value$[ebp], ecx

; 232  : 
; 233  : 			break;

  0006b	e9 a4 02 00 00	 jmp	 $LN2@get_local_
$LN8@get_local_:

; 234  : 		}
; 235  : 		////////////////////////////////////////
; 236  : 		case INT_TYPE_COLLISION_TEST_FIXED:
; 237  : 		////////////////////////////////////////
; 238  : 		{
; 239  : 			value = fixed_database[raw->sub_type].collision_test_fixed;

  00070	8b 45 fc	 mov	 eax, DWORD PTR _raw$[ebp]
  00073	8b 48 38	 mov	 ecx, DWORD PTR [eax+56]
  00076	81 e1 ff 00 00
	00		 and	 ecx, 255		; 000000ffH
  0007c	c1 e1 04	 shl	 ecx, 4
  0007f	8b 91 08 00 00
	00		 mov	 edx, DWORD PTR ?fixed_database@@3QBUFIXED_DATA@@B[ecx+8]
  00085	89 55 f8	 mov	 DWORD PTR _value$[ebp], edx

; 240  : 
; 241  : 			break;

  00088	e9 87 02 00 00	 jmp	 $LN2@get_local_
$LN9@get_local_:

; 242  : 		}
; 243  : 		////////////////////////////////////////
; 244  : 		case INT_TYPE_DEFAULT_3D_SHAPE:
; 245  : 		////////////////////////////////////////
; 246  : 		{
; 247  : 			value = fixed_database[raw->sub_type].default_3d_shape;

  0008d	8b 45 fc	 mov	 eax, DWORD PTR _raw$[ebp]
  00090	8b 48 38	 mov	 ecx, DWORD PTR [eax+56]
  00093	81 e1 ff 00 00
	00		 and	 ecx, 255		; 000000ffH
  00099	c1 e1 04	 shl	 ecx, 4
  0009c	8b 91 00 00 00
	00		 mov	 edx, DWORD PTR ?fixed_database@@3QBUFIXED_DATA@@B[ecx]
  000a2	89 55 f8	 mov	 DWORD PTR _value$[ebp], edx

; 248  : 
; 249  : 			break;

  000a5	e9 6a 02 00 00	 jmp	 $LN2@get_local_
$LN10@get_local_:

; 250  : 		}
; 251  : 		////////////////////////////////////////
; 252  : 		case INT_TYPE_ENTITY_SUB_TYPE:
; 253  : 		////////////////////////////////////////
; 254  : 		{
; 255  : 			value = raw->sub_type;

  000aa	8b 45 fc	 mov	 eax, DWORD PTR _raw$[ebp]
  000ad	8b 48 38	 mov	 ecx, DWORD PTR [eax+56]
  000b0	81 e1 ff 00 00
	00		 and	 ecx, 255		; 000000ffH
  000b6	89 4d f8	 mov	 DWORD PTR _value$[ebp], ecx

; 256  : 
; 257  : 			break;

  000b9	e9 56 02 00 00	 jmp	 $LN2@get_local_
$LN11@get_local_:

; 258  : 		}
; 259  : 		////////////////////////////////////////
; 260  : 		case INT_TYPE_EXPLOSIVE_POWER:
; 261  : 		////////////////////////////////////////
; 262  : 		{
; 263  : 			value = fixed_3d_object_database [raw->object_3d_shape].explosive_power;

  000be	8b 45 fc	 mov	 eax, DWORD PTR _raw$[ebp]
  000c1	8b 48 38	 mov	 ecx, DWORD PTR [eax+56]
  000c4	c1 e9 08	 shr	 ecx, 8
  000c7	81 e1 ff 0f 00
	00		 and	 ecx, 4095		; 00000fffH
  000cd	8b 14 cd 04 00
	00 00		 mov	 edx, DWORD PTR ?fixed_3d_object_database@@3PAUFIXED_3D_OBJECT_DATA@@A[ecx*8+4]
  000d4	c1 ea 03	 shr	 edx, 3
  000d7	83 e2 03	 and	 edx, 3
  000da	89 55 f8	 mov	 DWORD PTR _value$[ebp], edx

; 264  : 
; 265  : 			break;

  000dd	e9 32 02 00 00	 jmp	 $LN2@get_local_
$LN12@get_local_:

; 266  : 		}
; 267  : 		////////////////////////////////////////
; 268  : 		case INT_TYPE_EXPLOSIVE_QUALITY:
; 269  : 		////////////////////////////////////////
; 270  : 		{
; 271  : 			value = fixed_3d_object_database [raw->object_3d_shape].explosive_quality;

  000e2	8b 45 fc	 mov	 eax, DWORD PTR _raw$[ebp]
  000e5	8b 48 38	 mov	 ecx, DWORD PTR [eax+56]
  000e8	c1 e9 08	 shr	 ecx, 8
  000eb	81 e1 ff 0f 00
	00		 and	 ecx, 4095		; 00000fffH
  000f1	8b 14 cd 04 00
	00 00		 mov	 edx, DWORD PTR ?fixed_3d_object_database@@3PAUFIXED_3D_OBJECT_DATA@@A[ecx*8+4]
  000f8	83 e2 07	 and	 edx, 7
  000fb	89 55 f8	 mov	 DWORD PTR _value$[ebp], edx

; 272  : 
; 273  : 			break;

  000fe	e9 11 02 00 00	 jmp	 $LN2@get_local_
$LN13@get_local_:

; 274  : 		}
; 275  : 		////////////////////////////////////////
; 276  : 		case INT_TYPE_GROUND_RADAR_CLUTTER:
; 277  : 		////////////////////////////////////////
; 278  : 		{
; 279  : 			value = fixed_database[raw->sub_type].ground_radar_clutter;

  00103	8b 45 fc	 mov	 eax, DWORD PTR _raw$[ebp]
  00106	8b 48 38	 mov	 ecx, DWORD PTR [eax+56]
  00109	81 e1 ff 00 00
	00		 and	 ecx, 255		; 000000ffH
  0010f	c1 e1 04	 shl	 ecx, 4
  00112	8b 91 0c 00 00
	00		 mov	 edx, DWORD PTR ?fixed_database@@3QBUFIXED_DATA@@B[ecx+12]
  00118	89 55 f8	 mov	 DWORD PTR _value$[ebp], edx

; 280  : 
; 281  : 			break;

  0011b	e9 f4 01 00 00	 jmp	 $LN2@get_local_
$LN14@get_local_:

; 282  : 		}
; 283  : 		////////////////////////////////////////
; 284  : 		case INT_TYPE_GUNSHIP_RADAR_LOS_CLEAR:
; 285  : 		////////////////////////////////////////
; 286  : 		{
; 287  : 			value = raw->gunship_radar_los_clear;

  00120	8b 45 fc	 mov	 eax, DWORD PTR _raw$[ebp]
  00123	8b 48 38	 mov	 ecx, DWORD PTR [eax+56]
  00126	c1 e9 17	 shr	 ecx, 23			; 00000017H
  00129	83 e1 01	 and	 ecx, 1
  0012c	89 4d f8	 mov	 DWORD PTR _value$[ebp], ecx

; 288  : 
; 289  : 			break;

  0012f	e9 e0 01 00 00	 jmp	 $LN2@get_local_
$LN15@get_local_:

; 290  : 		}
; 291  : 		////////////////////////////////////////
; 292  : 		case INT_TYPE_IDENTIFY_FIXED:
; 293  : 		////////////////////////////////////////
; 294  : 		{
; 295  : 			value = TRUE;

  00134	c7 45 f8 01 00
	00 00		 mov	 DWORD PTR _value$[ebp], 1

; 296  : 
; 297  : 			break;

  0013b	e9 d4 01 00 00	 jmp	 $LN2@get_local_
$LN16@get_local_:

; 298  : 		}
; 299  : 		////////////////////////////////////////
; 300  : 		case INT_TYPE_INITIAL_DAMAGE_LEVEL:
; 301  : 		////////////////////////////////////////
; 302  : 		{
; 303  : 			value = fixed_3d_object_database [raw->object_3d_shape].initial_damage;

  00140	8b 45 fc	 mov	 eax, DWORD PTR _raw$[ebp]
  00143	8b 48 38	 mov	 ecx, DWORD PTR [eax+56]
  00146	c1 e9 08	 shr	 ecx, 8
  00149	81 e1 ff 0f 00
	00		 and	 ecx, 4095		; 00000fffH
  0014f	8b 14 cd 04 00
	00 00		 mov	 edx, DWORD PTR ?fixed_3d_object_database@@3PAUFIXED_3D_OBJECT_DATA@@A[ecx*8+4]
  00156	c1 ea 0c	 shr	 edx, 12			; 0000000cH
  00159	81 e2 ff 0f 00
	00		 and	 edx, 4095		; 00000fffH
  0015f	89 55 f8	 mov	 DWORD PTR _value$[ebp], edx

; 304  : 
; 305  : 			break;

  00162	e9 ad 01 00 00	 jmp	 $LN2@get_local_
$LN17@get_local_:

; 306  : 		}
; 307  : 		////////////////////////////////////////
; 308  : 		case INT_TYPE_MOVEMENT_TYPE:
; 309  : 		////////////////////////////////////////
; 310  : 		{
; 311  : 			value = MOVEMENT_TYPE_ALL;

  00167	c7 45 f8 04 00
	00 00		 mov	 DWORD PTR _value$[ebp], 4

; 312  : 
; 313  : 			break;

  0016e	e9 a1 01 00 00	 jmp	 $LN2@get_local_
$LN18@get_local_:

; 314  : 		}
; 315  : 		////////////////////////////////////////
; 316  : 		case INT_TYPE_OBJECT_3D_SHAPE:
; 317  : 		////////////////////////////////////////
; 318  : 		{
; 319  : 			value = raw->object_3d_shape;

  00173	8b 45 fc	 mov	 eax, DWORD PTR _raw$[ebp]
  00176	8b 48 38	 mov	 ecx, DWORD PTR [eax+56]
  00179	c1 e9 08	 shr	 ecx, 8
  0017c	81 e1 ff 0f 00
	00		 and	 ecx, 4095		; 00000fffH
  00182	89 4d f8	 mov	 DWORD PTR _value$[ebp], ecx

; 320  : 
; 321  : 			break;

  00185	e9 8a 01 00 00	 jmp	 $LN2@get_local_
$LN19@get_local_:

; 322  : 		}
; 323  : 		////////////////////////////////////////
; 324  : 		case INT_TYPE_OBJECT_DRAWN_ONCE_THIS_FRAME:
; 325  : 		////////////////////////////////////////
; 326  : 		{
; 327  : 			value = raw->object_drawn_once_this_frame;

  0018a	8b 45 fc	 mov	 eax, DWORD PTR _raw$[ebp]
  0018d	8b 48 38	 mov	 ecx, DWORD PTR [eax+56]
  00190	c1 e9 18	 shr	 ecx, 24			; 00000018H
  00193	83 e1 01	 and	 ecx, 1
  00196	89 4d f8	 mov	 DWORD PTR _value$[ebp], ecx

; 328  : 
; 329  : 			break;

  00199	e9 76 01 00 00	 jmp	 $LN2@get_local_
$LN20@get_local_:

; 330  : 		}
; 331  : 		////////////////////////////////////////
; 332  : 		case INT_TYPE_POINTS_VALUE:
; 333  : 		////////////////////////////////////////
; 334  : 		{
; 335  : 			float
; 336  : 				t;
; 337  : 
; 338  : 			t = fixed_3d_object_database [raw->object_3d_shape].importance * 500.0;

  0019e	8b 45 fc	 mov	 eax, DWORD PTR _raw$[ebp]
  001a1	8b 48 38	 mov	 ecx, DWORD PTR [eax+56]
  001a4	c1 e9 08	 shr	 ecx, 8
  001a7	81 e1 ff 0f 00
	00		 and	 ecx, 4095		; 00000fffH
  001ad	f3 0f 5a 04 cd
	00 00 00 00	 cvtss2sd xmm0, DWORD PTR ?fixed_3d_object_database@@3PAUFIXED_3D_OBJECT_DATA@@A[ecx*8]
  001b6	f2 0f 59 05 00
	00 00 00	 mulsd	 xmm0, QWORD PTR __real@407f400000000000
  001be	f2 0f 5a c0	 cvtsd2ss xmm0, xmm0
  001c2	f3 0f 11 45 f4	 movss	 DWORD PTR _t$1[ebp], xmm0

; 339  : 
; 340  : 			convert_float_to_int (t, &value);

  001c7	8d 45 f8	 lea	 eax, DWORD PTR _value$[ebp]
  001ca	50		 push	 eax
  001cb	51		 push	 ecx
  001cc	f3 0f 10 45 f4	 movss	 xmm0, DWORD PTR _t$1[ebp]
  001d1	f3 0f 11 04 24	 movss	 DWORD PTR [esp], xmm0
  001d6	e8 00 00 00 00	 call	 ?convert_float_to_int@@YGXMPAH@Z ; convert_float_to_int

; 341  : 
; 342  : 			break;

  001db	e9 34 01 00 00	 jmp	 $LN2@get_local_
$LN21@get_local_:

; 343  : 		}
; 344  : 		////////////////////////////////////////
; 345  : 		case INT_TYPE_SIDE:
; 346  : 		////////////////////////////////////////
; 347  : 		{
; 348  : 			value = raw->side;

  001e0	8b 45 fc	 mov	 eax, DWORD PTR _raw$[ebp]
  001e3	8b 48 38	 mov	 ecx, DWORD PTR [eax+56]
  001e6	c1 e9 15	 shr	 ecx, 21			; 00000015H
  001e9	83 e1 03	 and	 ecx, 3
  001ec	89 4d f8	 mov	 DWORD PTR _value$[ebp], ecx

; 349  : 
; 350  : 			break;

  001ef	e9 20 01 00 00	 jmp	 $LN2@get_local_
$LN22@get_local_:

; 351  : 		}
; 352  : 		////////////////////////////////////////
; 353  : 		case INT_TYPE_TARGET_PRIORITY_TYPE:
; 354  : 		////////////////////////////////////////
; 355  : 		{
; 356  : 			value = TARGET_PRIORITY_LOW;

  001f4	c7 45 f8 01 00
	00 00		 mov	 DWORD PTR _value$[ebp], 1

; 357  : 
; 358  : 			break;

  001fb	e9 14 01 00 00	 jmp	 $LN2@get_local_
$LN23@get_local_:

; 359  : 		}
; 360  : 		////////////////////////////////////////
; 361  : 		case INT_TYPE_TARGET_SYMBOL_TYPE:
; 362  : 		////////////////////////////////////////
; 363  : 		{
; 364  : 			value = fixed_3d_object_database [raw->object_3d_shape].target_symbol;

  00200	8b 45 fc	 mov	 eax, DWORD PTR _raw$[ebp]
  00203	8b 48 38	 mov	 ecx, DWORD PTR [eax+56]
  00206	c1 e9 08	 shr	 ecx, 8
  00209	81 e1 ff 0f 00
	00		 and	 ecx, 4095		; 00000fffH
  0020f	8b 14 cd 04 00
	00 00		 mov	 edx, DWORD PTR ?fixed_3d_object_database@@3PAUFIXED_3D_OBJECT_DATA@@A[ecx*8+4]
  00216	c1 ea 08	 shr	 edx, 8
  00219	83 e2 0f	 and	 edx, 15			; 0000000fH
  0021c	89 55 f8	 mov	 DWORD PTR _value$[ebp], edx

; 365  : 
; 366  : 			break;

  0021f	e9 f0 00 00 00	 jmp	 $LN2@get_local_
$LN24@get_local_:

; 367  : 		}
; 368  : 		////////////////////////////////////////
; 369  : 		case INT_TYPE_TARGET_TYPE:
; 370  : 		////////////////////////////////////////
; 371  : 		{
; 372  : 			value = fixed_3d_object_database [raw->object_3d_shape].target_type;

  00224	8b 45 fc	 mov	 eax, DWORD PTR _raw$[ebp]
  00227	8b 48 38	 mov	 ecx, DWORD PTR [eax+56]
  0022a	c1 e9 08	 shr	 ecx, 8
  0022d	81 e1 ff 0f 00
	00		 and	 ecx, 4095		; 00000fffH
  00233	8b 14 cd 04 00
	00 00		 mov	 edx, DWORD PTR ?fixed_3d_object_database@@3PAUFIXED_3D_OBJECT_DATA@@A[ecx*8+4]
  0023a	c1 ea 07	 shr	 edx, 7
  0023d	83 e2 01	 and	 edx, 1
  00240	89 55 f8	 mov	 DWORD PTR _value$[ebp], edx

; 373  : 
; 374  : 			break;

  00243	e9 cc 00 00 00	 jmp	 $LN2@get_local_
$LN25@get_local_:

; 375  : 		}
; 376  : 		////////////////////////////////////////
; 377  : 		case INT_TYPE_TASK_TARGET_TYPE:
; 378  : 		////////////////////////////////////////
; 379  : 		{
; 380  : 			value = TASK_TARGET_TYPE_NONE;

  00248	c7 45 f8 00 00
	00 00		 mov	 DWORD PTR _value$[ebp], 0

; 381  : 
; 382  : 			break;

  0024f	e9 c0 00 00 00	 jmp	 $LN2@get_local_
$LN26@get_local_:

; 383  : 		}
; 384  : 		////////////////////////////////////////
; 385  : 		case INT_TYPE_WARHEAD_EFFECTIVE_CLASS:
; 386  : 		////////////////////////////////////////
; 387  : 		{
; 388  : 
; 389  : 			switch (fixed_3d_object_database [raw->object_3d_shape].hardness)

  00254	8b 45 fc	 mov	 eax, DWORD PTR _raw$[ebp]
  00257	8b 48 38	 mov	 ecx, DWORD PTR [eax+56]
  0025a	c1 e9 08	 shr	 ecx, 8
  0025d	81 e1 ff 0f 00
	00		 and	 ecx, 4095		; 00000fffH
  00263	8b 14 cd 04 00
	00 00		 mov	 edx, DWORD PTR ?fixed_3d_object_database@@3PAUFIXED_3D_OBJECT_DATA@@A[ecx*8+4]
  0026a	c1 ea 05	 shr	 edx, 5
  0026d	83 e2 03	 and	 edx, 3
  00270	89 55 b0	 mov	 DWORD PTR tv193[ebp], edx
  00273	83 7d b0 01	 cmp	 DWORD PTR tv193[ebp], 1
  00277	74 11		 je	 SHORT $LN28@get_local_
  00279	83 7d b0 02	 cmp	 DWORD PTR tv193[ebp], 2
  0027d	74 02		 je	 SHORT $LN27@get_local_
  0027f	eb 12		 jmp	 SHORT $LN29@get_local_
$LN27@get_local_:

; 390  : 			{
; 391  : 				case 2:
; 392  : 				{
; 393  : 					value = WARHEAD_EFFECTIVE_HARDENED_BUILDING;

  00281	c7 45 f8 00 20
	00 00		 mov	 DWORD PTR _value$[ebp], 8192 ; 00002000H

; 394  : 
; 395  : 					break;

  00288	eb 10		 jmp	 SHORT $LN4@get_local_
$LN28@get_local_:

; 396  : 				}
; 397  : 				case 1:
; 398  : 				{
; 399  : 					value = WARHEAD_EFFECTIVE_STONE_BUILDING;

  0028a	c7 45 f8 00 01
	00 00		 mov	 DWORD PTR _value$[ebp], 256 ; 00000100H

; 400  : 
; 401  : 					break;

  00291	eb 07		 jmp	 SHORT $LN4@get_local_
$LN29@get_local_:

; 402  : 				}
; 403  : 				default:
; 404  : 				{
; 405  : 					value = WARHEAD_EFFECTIVE_LIGHT_BUILDING;

  00293	c7 45 f8 80 00
	00 00		 mov	 DWORD PTR _value$[ebp], 128 ; 00000080H
$LN4@get_local_:

; 406  : 
; 407  : 					break;
; 408  : 				}
; 409  : 			}
; 410  : 
; 411  : 			break;

  0029a	eb 78		 jmp	 SHORT $LN2@get_local_
$LN30@get_local_:

; 412  : 		}
; 413  : 		////////////////////////////////////////
; 414  : 		default:
; 415  : 		////////////////////////////////////////
; 416  : 		{
; 417  : 			debug_fatal_invalid_int_type (en, type);

  0029c	83 7d 08 00	 cmp	 DWORD PTR _en$[ebp], 0
  002a0	74 0a		 je	 SHORT $LN32@get_local_
  002a2	8b 45 08	 mov	 eax, DWORD PTR _en$[ebp]
  002a5	8b 08		 mov	 ecx, DWORD PTR [eax]
  002a7	89 4d b0	 mov	 DWORD PTR tv212[ebp], ecx
  002aa	eb 24		 jmp	 SHORT $LN33@get_local_
$LN32@get_local_:
  002ac	8b 15 00 00 00
	00		 mov	 edx, DWORD PTR ?__LINE__Var@?0??get_local_int_value@@YGHPAUENTITY@@W4INT_TYPES@@@Z@4JA
  002b2	81 c2 d1 00 00
	00		 add	 edx, 209		; 000000d1H
  002b8	52		 push	 edx
  002b9	68 00 00 00 00	 push	 OFFSET ??_C@_0EC@COADLHDH@c?3?2users?2nhv90?2projects?2eech?2ap@
  002be	a1 00 00 00 00	 mov	 eax, DWORD PTR ?null_entity_pointer_message@@3PBDB ; null_entity_pointer_message
  002c3	50		 push	 eax
  002c4	e8 00 00 00 00	 call	 ?process_assert@@YGXPBD0H@Z ; process_assert
  002c9	c7 45 b0 00 00
	00 00		 mov	 DWORD PTR tv212[ebp], 0
$LN33@get_local_:
  002d0	8b 0d 00 00 00
	00		 mov	 ecx, DWORD PTR ?__LINE__Var@?0??get_local_int_value@@YGHPAUENTITY@@W4INT_TYPES@@@Z@4JA
  002d6	81 c1 d1 00 00
	00		 add	 ecx, 209		; 000000d1H
  002dc	51		 push	 ecx
  002dd	68 00 00 00 00	 push	 OFFSET ??_C@_0EC@COADLHDH@c?3?2users?2nhv90?2projects?2eech?2ap@
  002e2	6b 55 0c 14	 imul	 edx, DWORD PTR _type$[ebp], 20
  002e6	8b 82 00 00 00
	00		 mov	 eax, DWORD PTR ?int_type_database@@3PAUINT_TYPE_DATA@@A[edx]
  002ec	50		 push	 eax
  002ed	8b 4d 08	 mov	 ecx, DWORD PTR _en$[ebp]
  002f0	2b 0d 00 00 00
	00		 sub	 ecx, DWORD PTR ?entities@@3PAUENTITY@@A ; entities
  002f6	c1 f9 04	 sar	 ecx, 4
  002f9	51		 push	 ecx
  002fa	6b 55 b0 0c	 imul	 edx, DWORD PTR tv212[ebp], 12
  002fe	8b 82 00 00 00
	00		 mov	 eax, DWORD PTR ?entity_type_database@@3PAUENTITY_TYPE_DATA@@A[edx]
  00304	50		 push	 eax
  00305	8b 0d 00 00 00
	00		 mov	 ecx, DWORD PTR ?debug_fatal_invalid_int_type_message@@3PBDB ; debug_fatal_invalid_int_type_message
  0030b	51		 push	 ecx
  0030c	e8 00 00 00 00	 call	 ?debug_fatal@@YAXPBDZZ	; debug_fatal
  00311	83 c4 18	 add	 esp, 24			; 00000018H
$LN2@get_local_:

; 418  : 
; 419  : 			break;
; 420  : 		}
; 421  : 	}
; 422  : 
; 423  : 	return (value);

  00314	8b 45 f8	 mov	 eax, DWORD PTR _value$[ebp]

; 424  : }

  00317	5f		 pop	 edi
  00318	5e		 pop	 esi
  00319	5b		 pop	 ebx
  0031a	8b e5		 mov	 esp, ebp
  0031c	5d		 pop	 ebp
  0031d	c2 08 00	 ret	 8
$LN35@get_local_:
  00320	00 00 00 00	 DD	 $LN6@get_local_
  00324	00 00 00 00	 DD	 $LN7@get_local_
  00328	00 00 00 00	 DD	 $LN8@get_local_
  0032c	00 00 00 00	 DD	 $LN9@get_local_
  00330	00 00 00 00	 DD	 $LN10@get_local_
  00334	00 00 00 00	 DD	 $LN11@get_local_
  00338	00 00 00 00	 DD	 $LN12@get_local_
  0033c	00 00 00 00	 DD	 $LN13@get_local_
  00340	00 00 00 00	 DD	 $LN14@get_local_
  00344	00 00 00 00	 DD	 $LN15@get_local_
  00348	00 00 00 00	 DD	 $LN16@get_local_
  0034c	00 00 00 00	 DD	 $LN17@get_local_
  00350	00 00 00 00	 DD	 $LN18@get_local_
  00354	00 00 00 00	 DD	 $LN19@get_local_
  00358	00 00 00 00	 DD	 $LN20@get_local_
  0035c	00 00 00 00	 DD	 $LN21@get_local_
  00360	00 00 00 00	 DD	 $LN22@get_local_
  00364	00 00 00 00	 DD	 $LN23@get_local_
  00368	00 00 00 00	 DD	 $LN24@get_local_
  0036c	00 00 00 00	 DD	 $LN25@get_local_
  00370	00 00 00 00	 DD	 $LN26@get_local_
  00374	00 00 00 00	 DD	 $LN30@get_local_
$LN34@get_local_:
  00378	00		 DB	 0
  00379	01		 DB	 1
  0037a	15		 DB	 21			; 00000015H
  0037b	15		 DB	 21			; 00000015H
  0037c	15		 DB	 21			; 00000015H
  0037d	15		 DB	 21			; 00000015H
  0037e	15		 DB	 21			; 00000015H
  0037f	15		 DB	 21			; 00000015H
  00380	15		 DB	 21			; 00000015H
  00381	15		 DB	 21			; 00000015H
  00382	15		 DB	 21			; 00000015H
  00383	15		 DB	 21			; 00000015H
  00384	15		 DB	 21			; 00000015H
  00385	15		 DB	 21			; 00000015H
  00386	15		 DB	 21			; 00000015H
  00387	15		 DB	 21			; 00000015H
  00388	15		 DB	 21			; 00000015H
  00389	15		 DB	 21			; 00000015H
  0038a	15		 DB	 21			; 00000015H
  0038b	15		 DB	 21			; 00000015H
  0038c	02		 DB	 2
  0038d	15		 DB	 21			; 00000015H
  0038e	15		 DB	 21			; 00000015H
  0038f	15		 DB	 21			; 00000015H
  00390	15		 DB	 21			; 00000015H
  00391	15		 DB	 21			; 00000015H
  00392	15		 DB	 21			; 00000015H
  00393	15		 DB	 21			; 00000015H
  00394	15		 DB	 21			; 00000015H
  00395	15		 DB	 21			; 00000015H
  00396	15		 DB	 21			; 00000015H
  00397	15		 DB	 21			; 00000015H
  00398	15		 DB	 21			; 00000015H
  00399	15		 DB	 21			; 00000015H
  0039a	15		 DB	 21			; 00000015H
  0039b	03		 DB	 3
  0039c	15		 DB	 21			; 00000015H
  0039d	15		 DB	 21			; 00000015H
  0039e	15		 DB	 21			; 00000015H
  0039f	15		 DB	 21			; 00000015H
  003a0	15		 DB	 21			; 00000015H
  003a1	15		 DB	 21			; 00000015H
  003a2	15		 DB	 21			; 00000015H
  003a3	15		 DB	 21			; 00000015H
  003a4	15		 DB	 21			; 00000015H
  003a5	15		 DB	 21			; 00000015H
  003a6	04		 DB	 4
  003a7	15		 DB	 21			; 00000015H
  003a8	05		 DB	 5
  003a9	06		 DB	 6
  003aa	15		 DB	 21			; 00000015H
  003ab	15		 DB	 21			; 00000015H
  003ac	15		 DB	 21			; 00000015H
  003ad	15		 DB	 21			; 00000015H
  003ae	15		 DB	 21			; 00000015H
  003af	15		 DB	 21			; 00000015H
  003b0	15		 DB	 21			; 00000015H
  003b1	15		 DB	 21			; 00000015H
  003b2	15		 DB	 21			; 00000015H
  003b3	15		 DB	 21			; 00000015H
  003b4	07		 DB	 7
  003b5	15		 DB	 21			; 00000015H
  003b6	15		 DB	 21			; 00000015H
  003b7	15		 DB	 21			; 00000015H
  003b8	15		 DB	 21			; 00000015H
  003b9	15		 DB	 21			; 00000015H
  003ba	15		 DB	 21			; 00000015H
  003bb	15		 DB	 21			; 00000015H
  003bc	15		 DB	 21			; 00000015H
  003bd	15		 DB	 21			; 00000015H
  003be	15		 DB	 21			; 00000015H
  003bf	15		 DB	 21			; 00000015H
  003c0	15		 DB	 21			; 00000015H
  003c1	15		 DB	 21			; 00000015H
  003c2	08		 DB	 8
  003c3	15		 DB	 21			; 00000015H
  003c4	15		 DB	 21			; 00000015H
  003c5	15		 DB	 21			; 00000015H
  003c6	15		 DB	 21			; 00000015H
  003c7	15		 DB	 21			; 00000015H
  003c8	15		 DB	 21			; 00000015H
  003c9	15		 DB	 21			; 00000015H
  003ca	15		 DB	 21			; 00000015H
  003cb	15		 DB	 21			; 00000015H
  003cc	09		 DB	 9
  003cd	15		 DB	 21			; 00000015H
  003ce	15		 DB	 21			; 00000015H
  003cf	15		 DB	 21			; 00000015H
  003d0	15		 DB	 21			; 00000015H
  003d1	15		 DB	 21			; 00000015H
  003d2	15		 DB	 21			; 00000015H
  003d3	15		 DB	 21			; 00000015H
  003d4	15		 DB	 21			; 00000015H
  003d5	15		 DB	 21			; 00000015H
  003d6	15		 DB	 21			; 00000015H
  003d7	15		 DB	 21			; 00000015H
  003d8	15		 DB	 21			; 00000015H
  003d9	15		 DB	 21			; 00000015H
  003da	15		 DB	 21			; 00000015H
  003db	0a		 DB	 10			; 0000000aH
  003dc	15		 DB	 21			; 00000015H
  003dd	15		 DB	 21			; 00000015H
  003de	15		 DB	 21			; 00000015H
  003df	15		 DB	 21			; 00000015H
  003e0	15		 DB	 21			; 00000015H
  003e1	15		 DB	 21			; 00000015H
  003e2	15		 DB	 21			; 00000015H
  003e3	15		 DB	 21			; 00000015H
  003e4	15		 DB	 21			; 00000015H
  003e5	15		 DB	 21			; 00000015H
  003e6	15		 DB	 21			; 00000015H
  003e7	15		 DB	 21			; 00000015H
  003e8	15		 DB	 21			; 00000015H
  003e9	15		 DB	 21			; 00000015H
  003ea	15		 DB	 21			; 00000015H
  003eb	15		 DB	 21			; 00000015H
  003ec	15		 DB	 21			; 00000015H
  003ed	15		 DB	 21			; 00000015H
  003ee	15		 DB	 21			; 00000015H
  003ef	15		 DB	 21			; 00000015H
  003f0	15		 DB	 21			; 00000015H
  003f1	15		 DB	 21			; 00000015H
  003f2	15		 DB	 21			; 00000015H
  003f3	15		 DB	 21			; 00000015H
  003f4	15		 DB	 21			; 00000015H
  003f5	15		 DB	 21			; 00000015H
  003f6	15		 DB	 21			; 00000015H
  003f7	15		 DB	 21			; 00000015H
  003f8	15		 DB	 21			; 00000015H
  003f9	15		 DB	 21			; 00000015H
  003fa	15		 DB	 21			; 00000015H
  003fb	15		 DB	 21			; 00000015H
  003fc	15		 DB	 21			; 00000015H
  003fd	15		 DB	 21			; 00000015H
  003fe	15		 DB	 21			; 00000015H
  003ff	15		 DB	 21			; 00000015H
  00400	15		 DB	 21			; 00000015H
  00401	15		 DB	 21			; 00000015H
  00402	0b		 DB	 11			; 0000000bH
  00403	15		 DB	 21			; 00000015H
  00404	0c		 DB	 12			; 0000000cH
  00405	0d		 DB	 13			; 0000000dH
  00406	15		 DB	 21			; 00000015H
  00407	15		 DB	 21			; 00000015H
  00408	15		 DB	 21			; 00000015H
  00409	15		 DB	 21			; 00000015H
  0040a	15		 DB	 21			; 00000015H
  0040b	15		 DB	 21			; 00000015H
  0040c	15		 DB	 21			; 00000015H
  0040d	15		 DB	 21			; 00000015H
  0040e	15		 DB	 21			; 00000015H
  0040f	15		 DB	 21			; 00000015H
  00410	15		 DB	 21			; 00000015H
  00411	0e		 DB	 14			; 0000000eH
  00412	15		 DB	 21			; 00000015H
  00413	15		 DB	 21			; 00000015H
  00414	15		 DB	 21			; 00000015H
  00415	15		 DB	 21			; 00000015H
  00416	15		 DB	 21			; 00000015H
  00417	15		 DB	 21			; 00000015H
  00418	15		 DB	 21			; 00000015H
  00419	15		 DB	 21			; 00000015H
  0041a	15		 DB	 21			; 00000015H
  0041b	15		 DB	 21			; 00000015H
  0041c	15		 DB	 21			; 00000015H
  0041d	15		 DB	 21			; 00000015H
  0041e	15		 DB	 21			; 00000015H
  0041f	15		 DB	 21			; 00000015H
  00420	15		 DB	 21			; 00000015H
  00421	15		 DB	 21			; 00000015H
  00422	15		 DB	 21			; 00000015H
  00423	15		 DB	 21			; 00000015H
  00424	15		 DB	 21			; 00000015H
  00425	15		 DB	 21			; 00000015H
  00426	15		 DB	 21			; 00000015H
  00427	15		 DB	 21			; 00000015H
  00428	15		 DB	 21			; 00000015H
  00429	15		 DB	 21			; 00000015H
  0042a	15		 DB	 21			; 00000015H
  0042b	15		 DB	 21			; 00000015H
  0042c	15		 DB	 21			; 00000015H
  0042d	0f		 DB	 15			; 0000000fH
  0042e	15		 DB	 21			; 00000015H
  0042f	15		 DB	 21			; 00000015H
  00430	15		 DB	 21			; 00000015H
  00431	15		 DB	 21			; 00000015H
  00432	15		 DB	 21			; 00000015H
  00433	15		 DB	 21			; 00000015H
  00434	15		 DB	 21			; 00000015H
  00435	15		 DB	 21			; 00000015H
  00436	15		 DB	 21			; 00000015H
  00437	15		 DB	 21			; 00000015H
  00438	15		 DB	 21			; 00000015H
  00439	15		 DB	 21			; 00000015H
  0043a	15		 DB	 21			; 00000015H
  0043b	15		 DB	 21			; 00000015H
  0043c	15		 DB	 21			; 00000015H
  0043d	15		 DB	 21			; 00000015H
  0043e	15		 DB	 21			; 00000015H
  0043f	15		 DB	 21			; 00000015H
  00440	15		 DB	 21			; 00000015H
  00441	15		 DB	 21			; 00000015H
  00442	15		 DB	 21			; 00000015H
  00443	15		 DB	 21			; 00000015H
  00444	15		 DB	 21			; 00000015H
  00445	15		 DB	 21			; 00000015H
  00446	10		 DB	 16			; 00000010H
  00447	11		 DB	 17			; 00000011H
  00448	12		 DB	 18			; 00000012H
  00449	15		 DB	 21			; 00000015H
  0044a	15		 DB	 21			; 00000015H
  0044b	15		 DB	 21			; 00000015H
  0044c	15		 DB	 21			; 00000015H
  0044d	15		 DB	 21			; 00000015H
  0044e	15		 DB	 21			; 00000015H
  0044f	15		 DB	 21			; 00000015H
  00450	15		 DB	 21			; 00000015H
  00451	15		 DB	 21			; 00000015H
  00452	15		 DB	 21			; 00000015H
  00453	15		 DB	 21			; 00000015H
  00454	15		 DB	 21			; 00000015H
  00455	15		 DB	 21			; 00000015H
  00456	15		 DB	 21			; 00000015H
  00457	15		 DB	 21			; 00000015H
  00458	13		 DB	 19			; 00000013H
  00459	15		 DB	 21			; 00000015H
  0045a	15		 DB	 21			; 00000015H
  0045b	15		 DB	 21			; 00000015H
  0045c	15		 DB	 21			; 00000015H
  0045d	15		 DB	 21			; 00000015H
  0045e	15		 DB	 21			; 00000015H
  0045f	15		 DB	 21			; 00000015H
  00460	15		 DB	 21			; 00000015H
  00461	15		 DB	 21			; 00000015H
  00462	15		 DB	 21			; 00000015H
  00463	15		 DB	 21			; 00000015H
  00464	15		 DB	 21			; 00000015H
  00465	15		 DB	 21			; 00000015H
  00466	15		 DB	 21			; 00000015H
  00467	15		 DB	 21			; 00000015H
  00468	15		 DB	 21			; 00000015H
  00469	15		 DB	 21			; 00000015H
  0046a	15		 DB	 21			; 00000015H
  0046b	15		 DB	 21			; 00000015H
  0046c	15		 DB	 21			; 00000015H
  0046d	15		 DB	 21			; 00000015H
  0046e	14		 DB	 20			; 00000014H
?get_local_int_value@@YGHPAUENTITY@@W4INT_TYPES@@@Z ENDP ; get_local_int_value
_TEXT	ENDS
; Function compile flags: /Odtp /ZI
; File c:\users\nhv90\projects\eech\aphavoc\source\entity\fixed\fx_int.c
;	COMDAT ?set_client_int_value@@YGXPAUENTITY@@W4INT_TYPES@@H@Z
_TEXT	SEGMENT
_en$ = 8						; size = 4
_type$ = 12						; size = 4
_value$ = 16						; size = 4
?set_client_int_value@@YGXPAUENTITY@@W4INT_TYPES@@H@Z PROC ; set_client_int_value, COMDAT

; 188  : {

  00000	55		 push	 ebp
  00001	8b ec		 mov	 ebp, esp
  00003	83 ec 40	 sub	 esp, 64			; 00000040H
  00006	53		 push	 ebx
  00007	56		 push	 esi
  00008	57		 push	 edi

; 189  : 	if (get_comms_data_flow () == COMMS_DATA_FLOW_TX)

  00009	83 3d 00 00 00
	00 00		 cmp	 DWORD PTR ?system_comms_data_flow@@3W4COMMS_DATA_FLOW_TYPES@@A, 0 ; system_comms_data_flow
  00010	75 34		 jne	 SHORT $LN2@set_client

; 190  : 	{
; 191  : 		validate_client_server_remote_fn ();

  00012	e8 00 00 00 00	 call	 ?assert_client_server_remote_fn@@YGHXZ ; assert_client_server_remote_fn
  00017	85 c0		 test	 eax, eax
  00019	75 18		 jne	 SHORT $LN4@set_client
  0001b	a1 00 00 00 00	 mov	 eax, DWORD PTR ?__LINE__Var@?0??set_client_int_value@@YGXPAUENTITY@@W4INT_TYPES@@H@Z@4JA
  00020	83 c0 03	 add	 eax, 3
  00023	50		 push	 eax
  00024	68 00 00 00 00	 push	 OFFSET ??_C@_0EC@COADLHDH@c?3?2users?2nhv90?2projects?2eech?2ap@
  00029	68 00 00 00 00	 push	 OFFSET ??_C@_0CC@BNNNEGEG@assert_client_server_remote_fn?5@
  0002e	e8 00 00 00 00	 call	 ?process_assert@@YGXPBD0H@Z ; process_assert
$LN4@set_client:

; 192  : 
; 193  : 		set_remote_int_value (en, type, value);

  00033	8b 45 10	 mov	 eax, DWORD PTR _value$[ebp]
  00036	50		 push	 eax
  00037	8b 4d 0c	 mov	 ecx, DWORD PTR _type$[ebp]
  0003a	51		 push	 ecx
  0003b	8b 55 08	 mov	 edx, DWORD PTR _en$[ebp]
  0003e	52		 push	 edx
  0003f	e8 00 00 00 00	 call	 ?set_remote_int_value@@YGXPAUENTITY@@W4INT_TYPES@@H@Z ; set_remote_int_value

; 194  : 	}
; 195  : 	else

  00044	eb 32		 jmp	 SHORT $LN1@set_client
$LN2@set_client:

; 196  : 	{
; 197  : 		validate_client_server_local_fn ();

  00046	e8 00 00 00 00	 call	 ?assert_client_server_local_fn@@YGHXZ ; assert_client_server_local_fn
  0004b	85 c0		 test	 eax, eax
  0004d	75 18		 jne	 SHORT $LN5@set_client
  0004f	a1 00 00 00 00	 mov	 eax, DWORD PTR ?__LINE__Var@?0??set_client_int_value@@YGXPAUENTITY@@W4INT_TYPES@@H@Z@4JA
  00054	83 c0 09	 add	 eax, 9
  00057	50		 push	 eax
  00058	68 00 00 00 00	 push	 OFFSET ??_C@_0EC@COADLHDH@c?3?2users?2nhv90?2projects?2eech?2ap@
  0005d	68 00 00 00 00	 push	 OFFSET ??_C@_0CB@CFOCLFOK@assert_client_server_local_fn?5?$CI@
  00062	e8 00 00 00 00	 call	 ?process_assert@@YGXPBD0H@Z ; process_assert
$LN5@set_client:

; 198  : 
; 199  : 		set_local_int_value (en, type, value);

  00067	8b 45 10	 mov	 eax, DWORD PTR _value$[ebp]
  0006a	50		 push	 eax
  0006b	8b 4d 0c	 mov	 ecx, DWORD PTR _type$[ebp]
  0006e	51		 push	 ecx
  0006f	8b 55 08	 mov	 edx, DWORD PTR _en$[ebp]
  00072	52		 push	 edx
  00073	e8 00 00 00 00	 call	 ?set_local_int_value@@YGXPAUENTITY@@W4INT_TYPES@@H@Z ; set_local_int_value
$LN1@set_client:

; 200  : 	}
; 201  : }

  00078	5f		 pop	 edi
  00079	5e		 pop	 esi
  0007a	5b		 pop	 ebx
  0007b	8b e5		 mov	 esp, ebp
  0007d	5d		 pop	 ebp
  0007e	c2 0c 00	 ret	 12			; 0000000cH
?set_client_int_value@@YGXPAUENTITY@@W4INT_TYPES@@H@Z ENDP ; set_client_int_value
_TEXT	ENDS
; Function compile flags: /Odtp /ZI
; File c:\users\nhv90\projects\eech\aphavoc\source\entity\fixed\fx_int.c
;	COMDAT ?set_server_int_value@@YGXPAUENTITY@@W4INT_TYPES@@H@Z
_TEXT	SEGMENT
_en$ = 8						; size = 4
_type$ = 12						; size = 4
_value$ = 16						; size = 4
?set_server_int_value@@YGXPAUENTITY@@W4INT_TYPES@@H@Z PROC ; set_server_int_value, COMDAT

; 173  : {

  00000	55		 push	 ebp
  00001	8b ec		 mov	 ebp, esp
  00003	83 ec 40	 sub	 esp, 64			; 00000040H
  00006	53		 push	 ebx
  00007	56		 push	 esi
  00008	57		 push	 edi

; 174  : 	validate_client_server_local_fn ();

  00009	e8 00 00 00 00	 call	 ?assert_client_server_local_fn@@YGHXZ ; assert_client_server_local_fn
  0000e	85 c0		 test	 eax, eax
  00010	75 18		 jne	 SHORT $LN2@set_server
  00012	a1 00 00 00 00	 mov	 eax, DWORD PTR ?__LINE__Var@?0??set_server_int_value@@YGXPAUENTITY@@W4INT_TYPES@@H@Z@4JA
  00017	83 c0 01	 add	 eax, 1
  0001a	50		 push	 eax
  0001b	68 00 00 00 00	 push	 OFFSET ??_C@_0EC@COADLHDH@c?3?2users?2nhv90?2projects?2eech?2ap@
  00020	68 00 00 00 00	 push	 OFFSET ??_C@_0CB@CFOCLFOK@assert_client_server_local_fn?5?$CI@
  00025	e8 00 00 00 00	 call	 ?process_assert@@YGXPBD0H@Z ; process_assert
$LN2@set_server:

; 175  : 
; 176  : 	set_local_int_value (en, type, value);

  0002a	8b 45 10	 mov	 eax, DWORD PTR _value$[ebp]
  0002d	50		 push	 eax
  0002e	8b 4d 0c	 mov	 ecx, DWORD PTR _type$[ebp]
  00031	51		 push	 ecx
  00032	8b 55 08	 mov	 edx, DWORD PTR _en$[ebp]
  00035	52		 push	 edx
  00036	e8 00 00 00 00	 call	 ?set_local_int_value@@YGXPAUENTITY@@W4INT_TYPES@@H@Z ; set_local_int_value

; 177  : 
; 178  : 	validate_client_server_remote_fn ();

  0003b	e8 00 00 00 00	 call	 ?assert_client_server_remote_fn@@YGHXZ ; assert_client_server_remote_fn
  00040	85 c0		 test	 eax, eax
  00042	75 18		 jne	 SHORT $LN3@set_server
  00044	a1 00 00 00 00	 mov	 eax, DWORD PTR ?__LINE__Var@?0??set_server_int_value@@YGXPAUENTITY@@W4INT_TYPES@@H@Z@4JA
  00049	83 c0 05	 add	 eax, 5
  0004c	50		 push	 eax
  0004d	68 00 00 00 00	 push	 OFFSET ??_C@_0EC@COADLHDH@c?3?2users?2nhv90?2projects?2eech?2ap@
  00052	68 00 00 00 00	 push	 OFFSET ??_C@_0CC@BNNNEGEG@assert_client_server_remote_fn?5@
  00057	e8 00 00 00 00	 call	 ?process_assert@@YGXPBD0H@Z ; process_assert
$LN3@set_server:

; 179  : 
; 180  : 	set_remote_int_value (en, type, value);

  0005c	8b 45 10	 mov	 eax, DWORD PTR _value$[ebp]
  0005f	50		 push	 eax
  00060	8b 4d 0c	 mov	 ecx, DWORD PTR _type$[ebp]
  00063	51		 push	 ecx
  00064	8b 55 08	 mov	 edx, DWORD PTR _en$[ebp]
  00067	52		 push	 edx
  00068	e8 00 00 00 00	 call	 ?set_remote_int_value@@YGXPAUENTITY@@W4INT_TYPES@@H@Z ; set_remote_int_value

; 181  : }

  0006d	5f		 pop	 edi
  0006e	5e		 pop	 esi
  0006f	5b		 pop	 ebx
  00070	8b e5		 mov	 esp, ebp
  00072	5d		 pop	 ebp
  00073	c2 0c 00	 ret	 12			; 0000000cH
?set_server_int_value@@YGXPAUENTITY@@W4INT_TYPES@@H@Z ENDP ; set_server_int_value
_TEXT	ENDS
; Function compile flags: /Odtp /ZI
; File c:\users\nhv90\projects\eech\aphavoc\source\entity\fixed\fx_int.c
;	COMDAT ?set_remote_int_value@@YGXPAUENTITY@@W4INT_TYPES@@H@Z
_TEXT	SEGMENT
_en$ = 8						; size = 4
_type$ = 12						; size = 4
_value$ = 16						; size = 4
?set_remote_int_value@@YGXPAUENTITY@@W4INT_TYPES@@H@Z PROC ; set_remote_int_value, COMDAT

; 158  : {

  00000	55		 push	 ebp
  00001	8b ec		 mov	 ebp, esp
  00003	83 ec 40	 sub	 esp, 64			; 00000040H
  00006	53		 push	 ebx
  00007	56		 push	 esi
  00008	57		 push	 edi

; 159  : 	#if DEBUG_MODULE
; 160  : 
; 161  : 	debug_log_entity_args (ENTITY_DEBUG_REMOTE, ENTITY_DEBUG_INT_VALUE, en, type, value);
; 162  : 
; 163  : 	#endif
; 164  : 
; 165  : 	transmit_entity_comms_message (ENTITY_COMMS_INT_VALUE, en, type, value);

  00009	8b 45 10	 mov	 eax, DWORD PTR _value$[ebp]
  0000c	50		 push	 eax
  0000d	8b 4d 0c	 mov	 ecx, DWORD PTR _type$[ebp]
  00010	51		 push	 ecx
  00011	8b 55 08	 mov	 edx, DWORD PTR _en$[ebp]
  00014	52		 push	 edx
  00015	6a 17		 push	 23			; 00000017H
  00017	e8 00 00 00 00	 call	 ?transmit_entity_comms_message@@YAXW4ENTITY_COMMS_MESSAGES@@PAUENTITY@@ZZ ; transmit_entity_comms_message
  0001c	83 c4 10	 add	 esp, 16			; 00000010H

; 166  : }

  0001f	5f		 pop	 edi
  00020	5e		 pop	 esi
  00021	5b		 pop	 ebx
  00022	8b e5		 mov	 esp, ebp
  00024	5d		 pop	 ebp
  00025	c2 0c 00	 ret	 12			; 0000000cH
?set_remote_int_value@@YGXPAUENTITY@@W4INT_TYPES@@H@Z ENDP ; set_remote_int_value
_TEXT	ENDS
; Function compile flags: /Odtp /ZI
; File c:\users\nhv90\projects\eech\aphavoc\source\entity\fixed\fx_int.c
;	COMDAT ?set_local_int_value@@YGXPAUENTITY@@W4INT_TYPES@@H@Z
_TEXT	SEGMENT
tv149 = -72						; size = 4
tv65 = -72						; size = 4
_raw$ = -4						; size = 4
_en$ = 8						; size = 4
_type$ = 12						; size = 4
_value$ = 16						; size = 4
?set_local_int_value@@YGXPAUENTITY@@W4INT_TYPES@@H@Z PROC ; set_local_int_value, COMDAT

; 80   : {

  00000	55		 push	 ebp
  00001	8b ec		 mov	 ebp, esp
  00003	83 ec 48	 sub	 esp, 72			; 00000048H
  00006	53		 push	 ebx
  00007	56		 push	 esi
  00008	57		 push	 edi

; 81   : 	fixed
; 82   : 		*raw;
; 83   : 
; 84   : 	#if DEBUG_MODULE
; 85   : 
; 86   : 	debug_log_entity_args (ENTITY_DEBUG_LOCAL, ENTITY_DEBUG_INT_VALUE, en, type, value);
; 87   : 
; 88   : 	#endif
; 89   : 
; 90   : 	raw = (fixed *) get_local_entity_data (en);

  00009	8b 45 08	 mov	 eax, DWORD PTR _en$[ebp]
  0000c	8b 48 04	 mov	 ecx, DWORD PTR [eax+4]
  0000f	89 4d fc	 mov	 DWORD PTR _raw$[ebp], ecx

; 91   : 
; 92   : 	switch (type)

  00012	8b 45 0c	 mov	 eax, DWORD PTR _type$[ebp]
  00015	89 45 b8	 mov	 DWORD PTR tv65[ebp], eax
  00018	8b 4d b8	 mov	 ecx, DWORD PTR tv65[ebp]
  0001b	83 e9 07	 sub	 ecx, 7
  0001e	89 4d b8	 mov	 DWORD PTR tv65[ebp], ecx
  00021	81 7d b8 b4 00
	00 00		 cmp	 DWORD PTR tv65[ebp], 180 ; 000000b4H
  00028	0f 87 db 00 00
	00		 ja	 $LN10@set_local_
  0002e	8b 55 b8	 mov	 edx, DWORD PTR tv65[ebp]
  00031	0f b6 82 00 00
	00 00		 movzx	 eax, BYTE PTR $LN14@set_local_[edx]
  00038	ff 24 85 00 00
	00 00		 jmp	 DWORD PTR $LN15@set_local_[eax*4]
$LN4@set_local_:

; 93   : 	{
; 94   : 		////////////////////////////////////////
; 95   : 		case INT_TYPE_ALIVE:
; 96   : 		////////////////////////////////////////
; 97   : 		{
; 98   : 			raw->alive = value;

  0003f	8b 45 10	 mov	 eax, DWORD PTR _value$[ebp]
  00042	83 e0 01	 and	 eax, 1
  00045	c1 e0 14	 shl	 eax, 20			; 00000014H
  00048	8b 4d fc	 mov	 ecx, DWORD PTR _raw$[ebp]
  0004b	8b 51 38	 mov	 edx, DWORD PTR [ecx+56]
  0004e	81 e2 ff ff ef
	ff		 and	 edx, -1048577		; ffefffffH
  00054	0b d0		 or	 edx, eax
  00056	8b 45 fc	 mov	 eax, DWORD PTR _raw$[ebp]
  00059	89 50 38	 mov	 DWORD PTR [eax+56], edx

; 99   : 
; 100  : 			break;

  0005c	e9 1a 01 00 00	 jmp	 $LN1@set_local_
$LN5@set_local_:

; 101  : 		}
; 102  : 		////////////////////////////////////////
; 103  : 		case INT_TYPE_ENTITY_SUB_TYPE:
; 104  : 		////////////////////////////////////////
; 105  : 		{
; 106  : 			raw->sub_type = value;

  00061	8b 45 10	 mov	 eax, DWORD PTR _value$[ebp]
  00064	25 ff 00 00 00	 and	 eax, 255		; 000000ffH
  00069	8b 4d fc	 mov	 ecx, DWORD PTR _raw$[ebp]
  0006c	8b 51 38	 mov	 edx, DWORD PTR [ecx+56]
  0006f	81 e2 00 ff ff
	ff		 and	 edx, -256		; ffffff00H
  00075	0b d0		 or	 edx, eax
  00077	8b 45 fc	 mov	 eax, DWORD PTR _raw$[ebp]
  0007a	89 50 38	 mov	 DWORD PTR [eax+56], edx

; 107  : 
; 108  : 			break;

  0007d	e9 f9 00 00 00	 jmp	 $LN1@set_local_
$LN6@set_local_:

; 109  : 		}
; 110  : 		////////////////////////////////////////
; 111  : 		case INT_TYPE_GUNSHIP_RADAR_LOS_CLEAR:
; 112  : 		////////////////////////////////////////
; 113  : 		{
; 114  : 			raw->gunship_radar_los_clear = value;

  00082	8b 45 10	 mov	 eax, DWORD PTR _value$[ebp]
  00085	83 e0 01	 and	 eax, 1
  00088	c1 e0 17	 shl	 eax, 23			; 00000017H
  0008b	8b 4d fc	 mov	 ecx, DWORD PTR _raw$[ebp]
  0008e	8b 51 38	 mov	 edx, DWORD PTR [ecx+56]
  00091	81 e2 ff ff 7f
	ff		 and	 edx, -8388609		; ff7fffffH
  00097	0b d0		 or	 edx, eax
  00099	8b 45 fc	 mov	 eax, DWORD PTR _raw$[ebp]
  0009c	89 50 38	 mov	 DWORD PTR [eax+56], edx

; 115  : 
; 116  : 			break;

  0009f	e9 d7 00 00 00	 jmp	 $LN1@set_local_
$LN7@set_local_:

; 117  : 		}
; 118  : 		////////////////////////////////////////
; 119  : 		case INT_TYPE_OBJECT_3D_SHAPE:
; 120  : 		////////////////////////////////////////
; 121  : 		{
; 122  : 			raw->object_3d_shape = value;

  000a4	8b 45 10	 mov	 eax, DWORD PTR _value$[ebp]
  000a7	25 ff 0f 00 00	 and	 eax, 4095		; 00000fffH
  000ac	c1 e0 08	 shl	 eax, 8
  000af	8b 4d fc	 mov	 ecx, DWORD PTR _raw$[ebp]
  000b2	8b 51 38	 mov	 edx, DWORD PTR [ecx+56]
  000b5	81 e2 ff 00 f0
	ff		 and	 edx, -1048321		; fff000ffH
  000bb	0b d0		 or	 edx, eax
  000bd	8b 45 fc	 mov	 eax, DWORD PTR _raw$[ebp]
  000c0	89 50 38	 mov	 DWORD PTR [eax+56], edx

; 123  : 
; 124  : 			break;

  000c3	e9 b3 00 00 00	 jmp	 $LN1@set_local_
$LN8@set_local_:

; 125  : 		}
; 126  : 		////////////////////////////////////////
; 127  : 		case INT_TYPE_OBJECT_DRAWN_ONCE_THIS_FRAME:
; 128  : 		////////////////////////////////////////
; 129  : 		{
; 130  : 			raw->object_drawn_once_this_frame = value;

  000c8	8b 45 10	 mov	 eax, DWORD PTR _value$[ebp]
  000cb	83 e0 01	 and	 eax, 1
  000ce	c1 e0 18	 shl	 eax, 24			; 00000018H
  000d1	8b 4d fc	 mov	 ecx, DWORD PTR _raw$[ebp]
  000d4	8b 51 38	 mov	 edx, DWORD PTR [ecx+56]
  000d7	81 e2 ff ff ff
	fe		 and	 edx, -16777217		; feffffffH
  000dd	0b d0		 or	 edx, eax
  000df	8b 45 fc	 mov	 eax, DWORD PTR _raw$[ebp]
  000e2	89 50 38	 mov	 DWORD PTR [eax+56], edx

; 131  : 
; 132  : 			break;

  000e5	e9 91 00 00 00	 jmp	 $LN1@set_local_
$LN9@set_local_:

; 133  : 		}
; 134  : 		////////////////////////////////////////
; 135  : 		case INT_TYPE_SIDE:
; 136  : 		////////////////////////////////////////
; 137  : 		{
; 138  : 			raw->side = value;

  000ea	8b 45 10	 mov	 eax, DWORD PTR _value$[ebp]
  000ed	83 e0 03	 and	 eax, 3
  000f0	c1 e0 15	 shl	 eax, 21			; 00000015H
  000f3	8b 4d fc	 mov	 ecx, DWORD PTR _raw$[ebp]
  000f6	8b 51 38	 mov	 edx, DWORD PTR [ecx+56]
  000f9	81 e2 ff ff 9f
	ff		 and	 edx, -6291457		; ff9fffffH
  000ff	0b d0		 or	 edx, eax
  00101	8b 45 fc	 mov	 eax, DWORD PTR _raw$[ebp]
  00104	89 50 38	 mov	 DWORD PTR [eax+56], edx

; 139  : 
; 140  : 			break;

  00107	eb 72		 jmp	 SHORT $LN1@set_local_
$LN10@set_local_:

; 141  : 		}
; 142  : 		////////////////////////////////////////
; 143  : 		default:
; 144  : 		////////////////////////////////////////
; 145  : 		{
; 146  : 			debug_fatal_invalid_int_type (en, type);

  00109	83 7d 08 00	 cmp	 DWORD PTR _en$[ebp], 0
  0010d	74 0a		 je	 SHORT $LN12@set_local_
  0010f	8b 45 08	 mov	 eax, DWORD PTR _en$[ebp]
  00112	8b 08		 mov	 ecx, DWORD PTR [eax]
  00114	89 4d b8	 mov	 DWORD PTR tv149[ebp], ecx
  00117	eb 21		 jmp	 SHORT $LN13@set_local_
$LN12@set_local_:
  00119	8b 15 00 00 00
	00		 mov	 edx, DWORD PTR ?__LINE__Var@?0??set_local_int_value@@YGXPAUENTITY@@W4INT_TYPES@@H@Z@4JA
  0011f	83 c2 42	 add	 edx, 66			; 00000042H
  00122	52		 push	 edx
  00123	68 00 00 00 00	 push	 OFFSET ??_C@_0EC@COADLHDH@c?3?2users?2nhv90?2projects?2eech?2ap@
  00128	a1 00 00 00 00	 mov	 eax, DWORD PTR ?null_entity_pointer_message@@3PBDB ; null_entity_pointer_message
  0012d	50		 push	 eax
  0012e	e8 00 00 00 00	 call	 ?process_assert@@YGXPBD0H@Z ; process_assert
  00133	c7 45 b8 00 00
	00 00		 mov	 DWORD PTR tv149[ebp], 0
$LN13@set_local_:
  0013a	8b 0d 00 00 00
	00		 mov	 ecx, DWORD PTR ?__LINE__Var@?0??set_local_int_value@@YGXPAUENTITY@@W4INT_TYPES@@H@Z@4JA
  00140	83 c1 42	 add	 ecx, 66			; 00000042H
  00143	51		 push	 ecx
  00144	68 00 00 00 00	 push	 OFFSET ??_C@_0EC@COADLHDH@c?3?2users?2nhv90?2projects?2eech?2ap@
  00149	6b 55 0c 14	 imul	 edx, DWORD PTR _type$[ebp], 20
  0014d	8b 82 00 00 00
	00		 mov	 eax, DWORD PTR ?int_type_database@@3PAUINT_TYPE_DATA@@A[edx]
  00153	50		 push	 eax
  00154	8b 4d 08	 mov	 ecx, DWORD PTR _en$[ebp]
  00157	2b 0d 00 00 00
	00		 sub	 ecx, DWORD PTR ?entities@@3PAUENTITY@@A ; entities
  0015d	c1 f9 04	 sar	 ecx, 4
  00160	51		 push	 ecx
  00161	6b 55 b8 0c	 imul	 edx, DWORD PTR tv149[ebp], 12
  00165	8b 82 00 00 00
	00		 mov	 eax, DWORD PTR ?entity_type_database@@3PAUENTITY_TYPE_DATA@@A[edx]
  0016b	50		 push	 eax
  0016c	8b 0d 00 00 00
	00		 mov	 ecx, DWORD PTR ?debug_fatal_invalid_int_type_message@@3PBDB ; debug_fatal_invalid_int_type_message
  00172	51		 push	 ecx
  00173	e8 00 00 00 00	 call	 ?debug_fatal@@YAXPBDZZ	; debug_fatal
  00178	83 c4 18	 add	 esp, 24			; 00000018H
$LN1@set_local_:

; 147  : 
; 148  : 			break;
; 149  : 		}
; 150  : 	}
; 151  : }

  0017b	5f		 pop	 edi
  0017c	5e		 pop	 esi
  0017d	5b		 pop	 ebx
  0017e	8b e5		 mov	 esp, ebp
  00180	5d		 pop	 ebp
  00181	c2 0c 00	 ret	 12			; 0000000cH
$LN15@set_local_:
  00184	00 00 00 00	 DD	 $LN4@set_local_
  00188	00 00 00 00	 DD	 $LN5@set_local_
  0018c	00 00 00 00	 DD	 $LN6@set_local_
  00190	00 00 00 00	 DD	 $LN7@set_local_
  00194	00 00 00 00	 DD	 $LN8@set_local_
  00198	00 00 00 00	 DD	 $LN9@set_local_
  0019c	00 00 00 00	 DD	 $LN10@set_local_
$LN14@set_local_:
  001a0	00		 DB	 0
  001a1	06		 DB	 6
  001a2	06		 DB	 6
  001a3	06		 DB	 6
  001a4	06		 DB	 6
  001a5	06		 DB	 6
  001a6	06		 DB	 6
  001a7	06		 DB	 6
  001a8	06		 DB	 6
  001a9	06		 DB	 6
  001aa	06		 DB	 6
  001ab	06		 DB	 6
  001ac	06		 DB	 6
  001ad	06		 DB	 6
  001ae	06		 DB	 6
  001af	06		 DB	 6
  001b0	06		 DB	 6
  001b1	06		 DB	 6
  001b2	06		 DB	 6
  001b3	06		 DB	 6
  001b4	06		 DB	 6
  001b5	06		 DB	 6
  001b6	06		 DB	 6
  001b7	06		 DB	 6
  001b8	06		 DB	 6
  001b9	06		 DB	 6
  001ba	06		 DB	 6
  001bb	06		 DB	 6
  001bc	06		 DB	 6
  001bd	06		 DB	 6
  001be	06		 DB	 6
  001bf	06		 DB	 6
  001c0	06		 DB	 6
  001c1	06		 DB	 6
  001c2	06		 DB	 6
  001c3	06		 DB	 6
  001c4	06		 DB	 6
  001c5	06		 DB	 6
  001c6	06		 DB	 6
  001c7	06		 DB	 6
  001c8	06		 DB	 6
  001c9	06		 DB	 6
  001ca	06		 DB	 6
  001cb	06		 DB	 6
  001cc	06		 DB	 6
  001cd	01		 DB	 1
  001ce	06		 DB	 6
  001cf	06		 DB	 6
  001d0	06		 DB	 6
  001d1	06		 DB	 6
  001d2	06		 DB	 6
  001d3	06		 DB	 6
  001d4	06		 DB	 6
  001d5	06		 DB	 6
  001d6	06		 DB	 6
  001d7	06		 DB	 6
  001d8	06		 DB	 6
  001d9	06		 DB	 6
  001da	06		 DB	 6
  001db	06		 DB	 6
  001dc	06		 DB	 6
  001dd	06		 DB	 6
  001de	06		 DB	 6
  001df	06		 DB	 6
  001e0	06		 DB	 6
  001e1	06		 DB	 6
  001e2	06		 DB	 6
  001e3	06		 DB	 6
  001e4	06		 DB	 6
  001e5	06		 DB	 6
  001e6	06		 DB	 6
  001e7	06		 DB	 6
  001e8	06		 DB	 6
  001e9	02		 DB	 2
  001ea	06		 DB	 6
  001eb	06		 DB	 6
  001ec	06		 DB	 6
  001ed	06		 DB	 6
  001ee	06		 DB	 6
  001ef	06		 DB	 6
  001f0	06		 DB	 6
  001f1	06		 DB	 6
  001f2	06		 DB	 6
  001f3	06		 DB	 6
  001f4	06		 DB	 6
  001f5	06		 DB	 6
  001f6	06		 DB	 6
  001f7	06		 DB	 6
  001f8	06		 DB	 6
  001f9	06		 DB	 6
  001fa	06		 DB	 6
  001fb	06		 DB	 6
  001fc	06		 DB	 6
  001fd	06		 DB	 6
  001fe	06		 DB	 6
  001ff	06		 DB	 6
  00200	06		 DB	 6
  00201	06		 DB	 6
  00202	06		 DB	 6
  00203	06		 DB	 6
  00204	06		 DB	 6
  00205	06		 DB	 6
  00206	06		 DB	 6
  00207	06		 DB	 6
  00208	06		 DB	 6
  00209	06		 DB	 6
  0020a	06		 DB	 6
  0020b	06		 DB	 6
  0020c	06		 DB	 6
  0020d	06		 DB	 6
  0020e	06		 DB	 6
  0020f	06		 DB	 6
  00210	06		 DB	 6
  00211	06		 DB	 6
  00212	06		 DB	 6
  00213	06		 DB	 6
  00214	06		 DB	 6
  00215	06		 DB	 6
  00216	06		 DB	 6
  00217	06		 DB	 6
  00218	06		 DB	 6
  00219	06		 DB	 6
  0021a	06		 DB	 6
  0021b	06		 DB	 6
  0021c	06		 DB	 6
  0021d	06		 DB	 6
  0021e	06		 DB	 6
  0021f	06		 DB	 6
  00220	06		 DB	 6
  00221	06		 DB	 6
  00222	06		 DB	 6
  00223	06		 DB	 6
  00224	06		 DB	 6
  00225	06		 DB	 6
  00226	06		 DB	 6
  00227	06		 DB	 6
  00228	06		 DB	 6
  00229	06		 DB	 6
  0022a	06		 DB	 6
  0022b	03		 DB	 3
  0022c	04		 DB	 4
  0022d	06		 DB	 6
  0022e	06		 DB	 6
  0022f	06		 DB	 6
  00230	06		 DB	 6
  00231	06		 DB	 6
  00232	06		 DB	 6
  00233	06		 DB	 6
  00234	06		 DB	 6
  00235	06		 DB	 6
  00236	06		 DB	 6
  00237	06		 DB	 6
  00238	06		 DB	 6
  00239	06		 DB	 6
  0023a	06		 DB	 6
  0023b	06		 DB	 6
  0023c	06		 DB	 6
  0023d	06		 DB	 6
  0023e	06		 DB	 6
  0023f	06		 DB	 6
  00240	06		 DB	 6
  00241	06		 DB	 6
  00242	06		 DB	 6
  00243	06		 DB	 6
  00244	06		 DB	 6
  00245	06		 DB	 6
  00246	06		 DB	 6
  00247	06		 DB	 6
  00248	06		 DB	 6
  00249	06		 DB	 6
  0024a	06		 DB	 6
  0024b	06		 DB	 6
  0024c	06		 DB	 6
  0024d	06		 DB	 6
  0024e	06		 DB	 6
  0024f	06		 DB	 6
  00250	06		 DB	 6
  00251	06		 DB	 6
  00252	06		 DB	 6
  00253	06		 DB	 6
  00254	05		 DB	 5
?set_local_int_value@@YGXPAUENTITY@@W4INT_TYPES@@H@Z ENDP ; set_local_int_value
_TEXT	ENDS
; Function compile flags: /Odtp /ZI
; File c:\users\nhv90\projects\eech\aphavoc\source\entity\fixed\fx_int.c
;	COMDAT ?overload_fixed_int_value_functions@@YGXW4ENTITY_TYPES@@@Z
_TEXT	SEGMENT
_type$ = 8						; size = 4
?overload_fixed_int_value_functions@@YGXW4ENTITY_TYPES@@@Z PROC ; overload_fixed_int_value_functions, COMDAT

; 431  : {

  00000	55		 push	 ebp
  00001	8b ec		 mov	 ebp, esp
  00003	83 ec 40	 sub	 esp, 64			; 00000040H
  00006	53		 push	 ebx
  00007	56		 push	 esi
  00008	57		 push	 edi

; 432  : 	fn_get_local_entity_int_value				[type][INT_TYPE_ALIGN_WITH_TERRAIN]							= get_local_int_value;

  00009	69 45 08 5c 04
	00 00		 imul	 eax, DWORD PTR _type$[ebp], 1116
  00010	b9 04 00 00 00	 mov	 ecx, 4
  00015	6b d1 06	 imul	 edx, ecx, 6
  00018	c7 84 10 00 00
	00 00 00 00 00
	00		 mov	 DWORD PTR ?fn_get_local_entity_int_value@@3PAY0BBH@P6GHPAUENTITY@@W4INT_TYPES@@@ZA[eax+edx], OFFSET ?get_local_int_value@@YGHPAUENTITY@@W4INT_TYPES@@@Z ; get_local_int_value

; 433  : 
; 434  : 	fn_set_local_entity_raw_int_value		[type][INT_TYPE_ALIVE]											= set_local_int_value;

  00023	69 45 08 5c 04
	00 00		 imul	 eax, DWORD PTR _type$[ebp], 1116
  0002a	b9 04 00 00 00	 mov	 ecx, 4
  0002f	6b d1 07	 imul	 edx, ecx, 7
  00032	c7 84 10 00 00
	00 00 00 00 00
	00		 mov	 DWORD PTR ?fn_set_local_entity_raw_int_value@@3PAY0BBH@P6GXPAUENTITY@@W4INT_TYPES@@H@ZA[eax+edx], OFFSET ?set_local_int_value@@YGXPAUENTITY@@W4INT_TYPES@@H@Z ; set_local_int_value

; 435  : 	fn_set_local_entity_int_value				[type][INT_TYPE_ALIVE]						 					= set_local_int_value;

  0003d	69 45 08 5c 04
	00 00		 imul	 eax, DWORD PTR _type$[ebp], 1116
  00044	b9 04 00 00 00	 mov	 ecx, 4
  00049	6b d1 07	 imul	 edx, ecx, 7
  0004c	c7 84 10 00 00
	00 00 00 00 00
	00		 mov	 DWORD PTR ?fn_set_local_entity_int_value@@3PAY0BBH@P6GXPAUENTITY@@W4INT_TYPES@@H@ZA[eax+edx], OFFSET ?set_local_int_value@@YGXPAUENTITY@@W4INT_TYPES@@H@Z ; set_local_int_value

; 436  : 	fn_set_client_server_entity_int_value	[type][INT_TYPE_ALIVE][COMMS_MODEL_SERVER] 	  			= set_server_int_value;

  00057	69 45 08 b8 08
	00 00		 imul	 eax, DWORD PTR _type$[ebp], 2232
  0005e	b9 08 00 00 00	 mov	 ecx, 8
  00063	6b d1 07	 imul	 edx, ecx, 7
  00066	8d 84 10 00 00
	00 00		 lea	 eax, DWORD PTR ?fn_set_client_server_entity_int_value@@3PAY1BBH@1P6GXPAUENTITY@@W4INT_TYPES@@H@ZA[eax+edx]
  0006d	b9 04 00 00 00	 mov	 ecx, 4
  00072	6b d1 00	 imul	 edx, ecx, 0
  00075	c7 04 10 00 00
	00 00		 mov	 DWORD PTR [eax+edx], OFFSET ?set_server_int_value@@YGXPAUENTITY@@W4INT_TYPES@@H@Z ; set_server_int_value

; 437  : 	fn_set_client_server_entity_int_value	[type][INT_TYPE_ALIVE][COMMS_MODEL_CLIENT]				= set_client_int_value;

  0007c	69 45 08 b8 08
	00 00		 imul	 eax, DWORD PTR _type$[ebp], 2232
  00083	b9 08 00 00 00	 mov	 ecx, 8
  00088	6b d1 07	 imul	 edx, ecx, 7
  0008b	8d 84 10 00 00
	00 00		 lea	 eax, DWORD PTR ?fn_set_client_server_entity_int_value@@3PAY1BBH@1P6GXPAUENTITY@@W4INT_TYPES@@H@ZA[eax+edx]
  00092	b9 04 00 00 00	 mov	 ecx, 4
  00097	c1 e1 00	 shl	 ecx, 0
  0009a	c7 04 08 00 00
	00 00		 mov	 DWORD PTR [eax+ecx], OFFSET ?set_client_int_value@@YGXPAUENTITY@@W4INT_TYPES@@H@Z ; set_client_int_value

; 438  : 	fn_get_local_entity_int_value				[type][INT_TYPE_ALIVE]											= get_local_int_value;

  000a1	69 45 08 5c 04
	00 00		 imul	 eax, DWORD PTR _type$[ebp], 1116
  000a8	b9 04 00 00 00	 mov	 ecx, 4
  000ad	6b d1 07	 imul	 edx, ecx, 7
  000b0	c7 84 10 00 00
	00 00 00 00 00
	00		 mov	 DWORD PTR ?fn_get_local_entity_int_value@@3PAY0BBH@P6GHPAUENTITY@@W4INT_TYPES@@@ZA[eax+edx], OFFSET ?get_local_int_value@@YGHPAUENTITY@@W4INT_TYPES@@@Z ; get_local_int_value

; 439  : 
; 440  : 	fn_get_local_entity_int_value				[type][INT_TYPE_COLLISION_TEST_FIXED]	  					= get_local_int_value;

  000bb	69 45 08 5c 04
	00 00		 imul	 eax, DWORD PTR _type$[ebp], 1116
  000c2	b9 04 00 00 00	 mov	 ecx, 4
  000c7	6b d1 1a	 imul	 edx, ecx, 26
  000ca	c7 84 10 00 00
	00 00 00 00 00
	00		 mov	 DWORD PTR ?fn_get_local_entity_int_value@@3PAY0BBH@P6GHPAUENTITY@@W4INT_TYPES@@@ZA[eax+edx], OFFSET ?get_local_int_value@@YGHPAUENTITY@@W4INT_TYPES@@@Z ; get_local_int_value

; 441  : 
; 442  : 	fn_get_local_entity_int_value				[type][INT_TYPE_DEFAULT_3D_SHAPE]							= get_local_int_value;

  000d5	69 45 08 5c 04
	00 00		 imul	 eax, DWORD PTR _type$[ebp], 1116
  000dc	b9 04 00 00 00	 mov	 ecx, 4
  000e1	6b d1 29	 imul	 edx, ecx, 41
  000e4	c7 84 10 00 00
	00 00 00 00 00
	00		 mov	 DWORD PTR ?fn_get_local_entity_int_value@@3PAY0BBH@P6GHPAUENTITY@@W4INT_TYPES@@@ZA[eax+edx], OFFSET ?get_local_int_value@@YGHPAUENTITY@@W4INT_TYPES@@@Z ; get_local_int_value

; 443  : 
; 444  : 	fn_set_local_entity_raw_int_value  		[type][INT_TYPE_ENTITY_SUB_TYPE]							  	= set_local_int_value;

  000ef	69 45 08 5c 04
	00 00		 imul	 eax, DWORD PTR _type$[ebp], 1116
  000f6	b9 04 00 00 00	 mov	 ecx, 4
  000fb	6b d1 34	 imul	 edx, ecx, 52
  000fe	c7 84 10 00 00
	00 00 00 00 00
	00		 mov	 DWORD PTR ?fn_set_local_entity_raw_int_value@@3PAY0BBH@P6GXPAUENTITY@@W4INT_TYPES@@H@ZA[eax+edx], OFFSET ?set_local_int_value@@YGXPAUENTITY@@W4INT_TYPES@@H@Z ; set_local_int_value

; 445  : 	fn_set_local_entity_int_value				[type][INT_TYPE_ENTITY_SUB_TYPE]							 	= set_local_int_value;

  00109	69 45 08 5c 04
	00 00		 imul	 eax, DWORD PTR _type$[ebp], 1116
  00110	b9 04 00 00 00	 mov	 ecx, 4
  00115	6b d1 34	 imul	 edx, ecx, 52
  00118	c7 84 10 00 00
	00 00 00 00 00
	00		 mov	 DWORD PTR ?fn_set_local_entity_int_value@@3PAY0BBH@P6GXPAUENTITY@@W4INT_TYPES@@H@ZA[eax+edx], OFFSET ?set_local_int_value@@YGXPAUENTITY@@W4INT_TYPES@@H@Z ; set_local_int_value

; 446  : 	fn_set_client_server_entity_int_value	[type][INT_TYPE_ENTITY_SUB_TYPE][COMMS_MODEL_SERVER]	= set_server_int_value;

  00123	69 45 08 b8 08
	00 00		 imul	 eax, DWORD PTR _type$[ebp], 2232
  0012a	b9 08 00 00 00	 mov	 ecx, 8
  0012f	6b d1 34	 imul	 edx, ecx, 52
  00132	8d 84 10 00 00
	00 00		 lea	 eax, DWORD PTR ?fn_set_client_server_entity_int_value@@3PAY1BBH@1P6GXPAUENTITY@@W4INT_TYPES@@H@ZA[eax+edx]
  00139	b9 04 00 00 00	 mov	 ecx, 4
  0013e	6b d1 00	 imul	 edx, ecx, 0
  00141	c7 04 10 00 00
	00 00		 mov	 DWORD PTR [eax+edx], OFFSET ?set_server_int_value@@YGXPAUENTITY@@W4INT_TYPES@@H@Z ; set_server_int_value

; 447  : 	fn_set_client_server_entity_int_value	[type][INT_TYPE_ENTITY_SUB_TYPE][COMMS_MODEL_CLIENT] 	= set_client_int_value;

  00148	69 45 08 b8 08
	00 00		 imul	 eax, DWORD PTR _type$[ebp], 2232
  0014f	b9 08 00 00 00	 mov	 ecx, 8
  00154	6b d1 34	 imul	 edx, ecx, 52
  00157	8d 84 10 00 00
	00 00		 lea	 eax, DWORD PTR ?fn_set_client_server_entity_int_value@@3PAY1BBH@1P6GXPAUENTITY@@W4INT_TYPES@@H@ZA[eax+edx]
  0015e	b9 04 00 00 00	 mov	 ecx, 4
  00163	c1 e1 00	 shl	 ecx, 0
  00166	c7 04 08 00 00
	00 00		 mov	 DWORD PTR [eax+ecx], OFFSET ?set_client_int_value@@YGXPAUENTITY@@W4INT_TYPES@@H@Z ; set_client_int_value

; 448  : 	fn_get_local_entity_int_value				[type][INT_TYPE_ENTITY_SUB_TYPE]				 				= get_local_int_value;

  0016d	69 45 08 5c 04
	00 00		 imul	 eax, DWORD PTR _type$[ebp], 1116
  00174	b9 04 00 00 00	 mov	 ecx, 4
  00179	6b d1 34	 imul	 edx, ecx, 52
  0017c	c7 84 10 00 00
	00 00 00 00 00
	00		 mov	 DWORD PTR ?fn_get_local_entity_int_value@@3PAY0BBH@P6GHPAUENTITY@@W4INT_TYPES@@@ZA[eax+edx], OFFSET ?get_local_int_value@@YGHPAUENTITY@@W4INT_TYPES@@@Z ; get_local_int_value

; 449  : 
; 450  : 	fn_get_local_entity_int_value				[type][INT_TYPE_EXPLOSIVE_POWER]								= get_local_int_value;

  00187	69 45 08 5c 04
	00 00		 imul	 eax, DWORD PTR _type$[ebp], 1116
  0018e	b9 04 00 00 00	 mov	 ecx, 4
  00193	6b d1 36	 imul	 edx, ecx, 54
  00196	c7 84 10 00 00
	00 00 00 00 00
	00		 mov	 DWORD PTR ?fn_get_local_entity_int_value@@3PAY0BBH@P6GHPAUENTITY@@W4INT_TYPES@@@ZA[eax+edx], OFFSET ?get_local_int_value@@YGHPAUENTITY@@W4INT_TYPES@@@Z ; get_local_int_value

; 451  : 
; 452  : 	fn_get_local_entity_int_value				[type][INT_TYPE_EXPLOSIVE_QUALITY]							= get_local_int_value;

  001a1	69 45 08 5c 04
	00 00		 imul	 eax, DWORD PTR _type$[ebp], 1116
  001a8	b9 04 00 00 00	 mov	 ecx, 4
  001ad	6b d1 37	 imul	 edx, ecx, 55
  001b0	c7 84 10 00 00
	00 00 00 00 00
	00		 mov	 DWORD PTR ?fn_get_local_entity_int_value@@3PAY0BBH@P6GHPAUENTITY@@W4INT_TYPES@@@ZA[eax+edx], OFFSET ?get_local_int_value@@YGHPAUENTITY@@W4INT_TYPES@@@Z ; get_local_int_value

; 453  : 
; 454  : 	fn_get_local_entity_int_value				[type][INT_TYPE_GROUND_RADAR_CLUTTER]						= get_local_int_value;

  001bb	69 45 08 5c 04
	00 00		 imul	 eax, DWORD PTR _type$[ebp], 1116
  001c2	b9 04 00 00 00	 mov	 ecx, 4
  001c7	6b d1 42	 imul	 edx, ecx, 66
  001ca	c7 84 10 00 00
	00 00 00 00 00
	00		 mov	 DWORD PTR ?fn_get_local_entity_int_value@@3PAY0BBH@P6GHPAUENTITY@@W4INT_TYPES@@@ZA[eax+edx], OFFSET ?get_local_int_value@@YGHPAUENTITY@@W4INT_TYPES@@@Z ; get_local_int_value

; 455  : 
; 456  : 	fn_set_local_entity_raw_int_value  		[type][INT_TYPE_GUNSHIP_RADAR_LOS_CLEAR]					= set_local_int_value;

  001d5	69 45 08 5c 04
	00 00		 imul	 eax, DWORD PTR _type$[ebp], 1116
  001dc	b9 04 00 00 00	 mov	 ecx, 4
  001e1	6b d1 50	 imul	 edx, ecx, 80
  001e4	c7 84 10 00 00
	00 00 00 00 00
	00		 mov	 DWORD PTR ?fn_set_local_entity_raw_int_value@@3PAY0BBH@P6GXPAUENTITY@@W4INT_TYPES@@H@ZA[eax+edx], OFFSET ?set_local_int_value@@YGXPAUENTITY@@W4INT_TYPES@@H@Z ; set_local_int_value

; 457  : 	fn_set_local_entity_int_value				[type][INT_TYPE_GUNSHIP_RADAR_LOS_CLEAR]					= set_local_int_value;

  001ef	69 45 08 5c 04
	00 00		 imul	 eax, DWORD PTR _type$[ebp], 1116
  001f6	b9 04 00 00 00	 mov	 ecx, 4
  001fb	6b d1 50	 imul	 edx, ecx, 80
  001fe	c7 84 10 00 00
	00 00 00 00 00
	00		 mov	 DWORD PTR ?fn_set_local_entity_int_value@@3PAY0BBH@P6GXPAUENTITY@@W4INT_TYPES@@H@ZA[eax+edx], OFFSET ?set_local_int_value@@YGXPAUENTITY@@W4INT_TYPES@@H@Z ; set_local_int_value

; 458  : 	fn_get_local_entity_int_value				[type][INT_TYPE_GUNSHIP_RADAR_LOS_CLEAR]					= get_local_int_value;

  00209	69 45 08 5c 04
	00 00		 imul	 eax, DWORD PTR _type$[ebp], 1116
  00210	b9 04 00 00 00	 mov	 ecx, 4
  00215	6b d1 50	 imul	 edx, ecx, 80
  00218	c7 84 10 00 00
	00 00 00 00 00
	00		 mov	 DWORD PTR ?fn_get_local_entity_int_value@@3PAY0BBH@P6GHPAUENTITY@@W4INT_TYPES@@@ZA[eax+edx], OFFSET ?get_local_int_value@@YGHPAUENTITY@@W4INT_TYPES@@@Z ; get_local_int_value

; 459  : 
; 460  : 	fn_get_local_entity_int_value				[type][INT_TYPE_IDENTIFY_FIXED]								= get_local_int_value;

  00223	69 45 08 5c 04
	00 00		 imul	 eax, DWORD PTR _type$[ebp], 1116
  0022a	b9 04 00 00 00	 mov	 ecx, 4
  0022f	6b d1 5a	 imul	 edx, ecx, 90
  00232	c7 84 10 00 00
	00 00 00 00 00
	00		 mov	 DWORD PTR ?fn_get_local_entity_int_value@@3PAY0BBH@P6GHPAUENTITY@@W4INT_TYPES@@@ZA[eax+edx], OFFSET ?get_local_int_value@@YGHPAUENTITY@@W4INT_TYPES@@@Z ; get_local_int_value

; 461  : 
; 462  : 	fn_get_local_entity_int_value				[type][INT_TYPE_INITIAL_DAMAGE_LEVEL]						= get_local_int_value;

  0023d	69 45 08 5c 04
	00 00		 imul	 eax, DWORD PTR _type$[ebp], 1116
  00244	b9 04 00 00 00	 mov	 ecx, 4
  00249	6b d1 69	 imul	 edx, ecx, 105
  0024c	c7 84 10 00 00
	00 00 00 00 00
	00		 mov	 DWORD PTR ?fn_get_local_entity_int_value@@3PAY0BBH@P6GHPAUENTITY@@W4INT_TYPES@@@ZA[eax+edx], OFFSET ?get_local_int_value@@YGHPAUENTITY@@W4INT_TYPES@@@Z ; get_local_int_value

; 463  : 
; 464  : 	fn_get_local_entity_int_value				[type][INT_TYPE_MOVEMENT_TYPE]								= get_local_int_value;

  00257	69 45 08 5c 04
	00 00		 imul	 eax, DWORD PTR _type$[ebp], 1116
  0025e	b9 04 00 00 00	 mov	 ecx, 4
  00263	69 d1 90 00 00
	00		 imul	 edx, ecx, 144
  00269	c7 84 10 00 00
	00 00 00 00 00
	00		 mov	 DWORD PTR ?fn_get_local_entity_int_value@@3PAY0BBH@P6GHPAUENTITY@@W4INT_TYPES@@@ZA[eax+edx], OFFSET ?get_local_int_value@@YGHPAUENTITY@@W4INT_TYPES@@@Z ; get_local_int_value

; 465  : 
; 466  : 	fn_set_local_entity_raw_int_value  		[type][INT_TYPE_OBJECT_3D_SHAPE]								= set_local_int_value;

  00274	69 45 08 5c 04
	00 00		 imul	 eax, DWORD PTR _type$[ebp], 1116
  0027b	b9 04 00 00 00	 mov	 ecx, 4
  00280	69 d1 92 00 00
	00		 imul	 edx, ecx, 146
  00286	c7 84 10 00 00
	00 00 00 00 00
	00		 mov	 DWORD PTR ?fn_set_local_entity_raw_int_value@@3PAY0BBH@P6GXPAUENTITY@@W4INT_TYPES@@H@ZA[eax+edx], OFFSET ?set_local_int_value@@YGXPAUENTITY@@W4INT_TYPES@@H@Z ; set_local_int_value

; 467  : 	fn_set_local_entity_int_value				[type][INT_TYPE_OBJECT_3D_SHAPE]								= set_local_int_value;

  00291	69 45 08 5c 04
	00 00		 imul	 eax, DWORD PTR _type$[ebp], 1116
  00298	b9 04 00 00 00	 mov	 ecx, 4
  0029d	69 d1 92 00 00
	00		 imul	 edx, ecx, 146
  002a3	c7 84 10 00 00
	00 00 00 00 00
	00		 mov	 DWORD PTR ?fn_set_local_entity_int_value@@3PAY0BBH@P6GXPAUENTITY@@W4INT_TYPES@@H@ZA[eax+edx], OFFSET ?set_local_int_value@@YGXPAUENTITY@@W4INT_TYPES@@H@Z ; set_local_int_value

; 468  : 	fn_get_local_entity_int_value				[type][INT_TYPE_OBJECT_3D_SHAPE]								= get_local_int_value;

  002ae	69 45 08 5c 04
	00 00		 imul	 eax, DWORD PTR _type$[ebp], 1116
  002b5	b9 04 00 00 00	 mov	 ecx, 4
  002ba	69 d1 92 00 00
	00		 imul	 edx, ecx, 146
  002c0	c7 84 10 00 00
	00 00 00 00 00
	00		 mov	 DWORD PTR ?fn_get_local_entity_int_value@@3PAY0BBH@P6GHPAUENTITY@@W4INT_TYPES@@@ZA[eax+edx], OFFSET ?get_local_int_value@@YGHPAUENTITY@@W4INT_TYPES@@@Z ; get_local_int_value

; 469  : 
; 470  : 	fn_set_local_entity_raw_int_value  		[type][INT_TYPE_OBJECT_DRAWN_ONCE_THIS_FRAME]			= set_local_int_value;

  002cb	69 45 08 5c 04
	00 00		 imul	 eax, DWORD PTR _type$[ebp], 1116
  002d2	b9 04 00 00 00	 mov	 ecx, 4
  002d7	69 d1 93 00 00
	00		 imul	 edx, ecx, 147
  002dd	c7 84 10 00 00
	00 00 00 00 00
	00		 mov	 DWORD PTR ?fn_set_local_entity_raw_int_value@@3PAY0BBH@P6GXPAUENTITY@@W4INT_TYPES@@H@ZA[eax+edx], OFFSET ?set_local_int_value@@YGXPAUENTITY@@W4INT_TYPES@@H@Z ; set_local_int_value

; 471  : 	fn_set_local_entity_int_value				[type][INT_TYPE_OBJECT_DRAWN_ONCE_THIS_FRAME]			= set_local_int_value;

  002e8	69 45 08 5c 04
	00 00		 imul	 eax, DWORD PTR _type$[ebp], 1116
  002ef	b9 04 00 00 00	 mov	 ecx, 4
  002f4	69 d1 93 00 00
	00		 imul	 edx, ecx, 147
  002fa	c7 84 10 00 00
	00 00 00 00 00
	00		 mov	 DWORD PTR ?fn_set_local_entity_int_value@@3PAY0BBH@P6GXPAUENTITY@@W4INT_TYPES@@H@ZA[eax+edx], OFFSET ?set_local_int_value@@YGXPAUENTITY@@W4INT_TYPES@@H@Z ; set_local_int_value

; 472  : 	fn_get_local_entity_int_value				[type][INT_TYPE_OBJECT_DRAWN_ONCE_THIS_FRAME]			= get_local_int_value;

  00305	69 45 08 5c 04
	00 00		 imul	 eax, DWORD PTR _type$[ebp], 1116
  0030c	b9 04 00 00 00	 mov	 ecx, 4
  00311	69 d1 93 00 00
	00		 imul	 edx, ecx, 147
  00317	c7 84 10 00 00
	00 00 00 00 00
	00		 mov	 DWORD PTR ?fn_get_local_entity_int_value@@3PAY0BBH@P6GHPAUENTITY@@W4INT_TYPES@@@ZA[eax+edx], OFFSET ?get_local_int_value@@YGHPAUENTITY@@W4INT_TYPES@@@Z ; get_local_int_value

; 473  : 
; 474  : 	fn_set_local_entity_raw_int_value  		[type][INT_TYPE_SIDE]				 							= set_local_int_value;

  00322	69 45 08 5c 04
	00 00		 imul	 eax, DWORD PTR _type$[ebp], 1116
  00329	b9 04 00 00 00	 mov	 ecx, 4
  0032e	69 d1 bb 00 00
	00		 imul	 edx, ecx, 187
  00334	c7 84 10 00 00
	00 00 00 00 00
	00		 mov	 DWORD PTR ?fn_set_local_entity_raw_int_value@@3PAY0BBH@P6GXPAUENTITY@@W4INT_TYPES@@H@ZA[eax+edx], OFFSET ?set_local_int_value@@YGXPAUENTITY@@W4INT_TYPES@@H@Z ; set_local_int_value

; 475  : 	fn_set_local_entity_int_value				[type][INT_TYPE_SIDE]						 					= set_local_int_value;

  0033f	69 45 08 5c 04
	00 00		 imul	 eax, DWORD PTR _type$[ebp], 1116
  00346	b9 04 00 00 00	 mov	 ecx, 4
  0034b	69 d1 bb 00 00
	00		 imul	 edx, ecx, 187
  00351	c7 84 10 00 00
	00 00 00 00 00
	00		 mov	 DWORD PTR ?fn_set_local_entity_int_value@@3PAY0BBH@P6GXPAUENTITY@@W4INT_TYPES@@H@ZA[eax+edx], OFFSET ?set_local_int_value@@YGXPAUENTITY@@W4INT_TYPES@@H@Z ; set_local_int_value

; 476  : 	fn_set_client_server_entity_int_value	[type][INT_TYPE_SIDE][COMMS_MODEL_SERVER]					= set_server_int_value;

  0035c	69 45 08 b8 08
	00 00		 imul	 eax, DWORD PTR _type$[ebp], 2232
  00363	b9 08 00 00 00	 mov	 ecx, 8
  00368	69 d1 bb 00 00
	00		 imul	 edx, ecx, 187
  0036e	8d 84 10 00 00
	00 00		 lea	 eax, DWORD PTR ?fn_set_client_server_entity_int_value@@3PAY1BBH@1P6GXPAUENTITY@@W4INT_TYPES@@H@ZA[eax+edx]
  00375	b9 04 00 00 00	 mov	 ecx, 4
  0037a	6b d1 00	 imul	 edx, ecx, 0
  0037d	c7 04 10 00 00
	00 00		 mov	 DWORD PTR [eax+edx], OFFSET ?set_server_int_value@@YGXPAUENTITY@@W4INT_TYPES@@H@Z ; set_server_int_value

; 477  : 	fn_set_client_server_entity_int_value	[type][INT_TYPE_SIDE][COMMS_MODEL_CLIENT]					= set_client_int_value;

  00384	69 45 08 b8 08
	00 00		 imul	 eax, DWORD PTR _type$[ebp], 2232
  0038b	b9 08 00 00 00	 mov	 ecx, 8
  00390	69 d1 bb 00 00
	00		 imul	 edx, ecx, 187
  00396	8d 84 10 00 00
	00 00		 lea	 eax, DWORD PTR ?fn_set_client_server_entity_int_value@@3PAY1BBH@1P6GXPAUENTITY@@W4INT_TYPES@@H@ZA[eax+edx]
  0039d	b9 04 00 00 00	 mov	 ecx, 4
  003a2	c1 e1 00	 shl	 ecx, 0
  003a5	c7 04 08 00 00
	00 00		 mov	 DWORD PTR [eax+ecx], OFFSET ?set_client_int_value@@YGXPAUENTITY@@W4INT_TYPES@@H@Z ; set_client_int_value

; 478  : 	fn_get_local_entity_int_value				[type][INT_TYPE_SIDE]											= get_local_int_value;

  003ac	69 45 08 5c 04
	00 00		 imul	 eax, DWORD PTR _type$[ebp], 1116
  003b3	b9 04 00 00 00	 mov	 ecx, 4
  003b8	69 d1 bb 00 00
	00		 imul	 edx, ecx, 187
  003be	c7 84 10 00 00
	00 00 00 00 00
	00		 mov	 DWORD PTR ?fn_get_local_entity_int_value@@3PAY0BBH@P6GHPAUENTITY@@W4INT_TYPES@@@ZA[eax+edx], OFFSET ?get_local_int_value@@YGHPAUENTITY@@W4INT_TYPES@@@Z ; get_local_int_value

; 479  : 
; 480  : 	fn_get_local_entity_int_value				[type][INT_TYPE_TARGET_PRIORITY_TYPE]						= get_local_int_value;

  003c9	69 45 08 5c 04
	00 00		 imul	 eax, DWORD PTR _type$[ebp], 1116
  003d0	b9 04 00 00 00	 mov	 ecx, 4
  003d5	69 d1 d4 00 00
	00		 imul	 edx, ecx, 212
  003db	c7 84 10 00 00
	00 00 00 00 00
	00		 mov	 DWORD PTR ?fn_get_local_entity_int_value@@3PAY0BBH@P6GHPAUENTITY@@W4INT_TYPES@@@ZA[eax+edx], OFFSET ?get_local_int_value@@YGHPAUENTITY@@W4INT_TYPES@@@Z ; get_local_int_value

; 481  : 
; 482  : 	fn_get_local_entity_int_value				[type][INT_TYPE_TARGET_SYMBOL_TYPE]							= get_local_int_value;

  003e6	69 45 08 5c 04
	00 00		 imul	 eax, DWORD PTR _type$[ebp], 1116
  003ed	b9 04 00 00 00	 mov	 ecx, 4
  003f2	69 d1 d5 00 00
	00		 imul	 edx, ecx, 213
  003f8	c7 84 10 00 00
	00 00 00 00 00
	00		 mov	 DWORD PTR ?fn_get_local_entity_int_value@@3PAY0BBH@P6GHPAUENTITY@@W4INT_TYPES@@@ZA[eax+edx], OFFSET ?get_local_int_value@@YGHPAUENTITY@@W4INT_TYPES@@@Z ; get_local_int_value

; 483  : 
; 484  : 	fn_get_local_entity_int_value				[type][INT_TYPE_TARGET_TYPE]									= get_local_int_value;

  00403	69 45 08 5c 04
	00 00		 imul	 eax, DWORD PTR _type$[ebp], 1116
  0040a	b9 04 00 00 00	 mov	 ecx, 4
  0040f	69 d1 d6 00 00
	00		 imul	 edx, ecx, 214
  00415	c7 84 10 00 00
	00 00 00 00 00
	00		 mov	 DWORD PTR ?fn_get_local_entity_int_value@@3PAY0BBH@P6GHPAUENTITY@@W4INT_TYPES@@@ZA[eax+edx], OFFSET ?get_local_int_value@@YGHPAUENTITY@@W4INT_TYPES@@@Z ; get_local_int_value

; 485  : 
; 486  : 	fn_get_local_entity_int_value				[type][INT_TYPE_TASK_TARGET_TYPE]							= get_local_int_value;

  00420	69 45 08 5c 04
	00 00		 imul	 eax, DWORD PTR _type$[ebp], 1116
  00427	b9 04 00 00 00	 mov	 ecx, 4
  0042c	69 d1 e6 00 00
	00		 imul	 edx, ecx, 230
  00432	c7 84 10 00 00
	00 00 00 00 00
	00		 mov	 DWORD PTR ?fn_get_local_entity_int_value@@3PAY0BBH@P6GHPAUENTITY@@W4INT_TYPES@@@ZA[eax+edx], OFFSET ?get_local_int_value@@YGHPAUENTITY@@W4INT_TYPES@@@Z ; get_local_int_value

; 487  : 
; 488  : 	fn_get_local_entity_int_value				[type][INT_TYPE_WARHEAD_EFFECTIVE_CLASS]					= get_local_int_value;

  0043d	69 45 08 5c 04
	00 00		 imul	 eax, DWORD PTR _type$[ebp], 1116
  00444	b9 04 00 00 00	 mov	 ecx, 4
  00449	69 d1 fc 00 00
	00		 imul	 edx, ecx, 252
  0044f	c7 84 10 00 00
	00 00 00 00 00
	00		 mov	 DWORD PTR ?fn_get_local_entity_int_value@@3PAY0BBH@P6GHPAUENTITY@@W4INT_TYPES@@@ZA[eax+edx], OFFSET ?get_local_int_value@@YGHPAUENTITY@@W4INT_TYPES@@@Z ; get_local_int_value

; 489  : }

  0045a	5f		 pop	 edi
  0045b	5e		 pop	 esi
  0045c	5b		 pop	 ebx
  0045d	8b e5		 mov	 esp, ebp
  0045f	5d		 pop	 ebp
  00460	c2 04 00	 ret	 4
?overload_fixed_int_value_functions@@YGXW4ENTITY_TYPES@@@Z ENDP ; overload_fixed_int_value_functions
_TEXT	ENDS
END
