; Listing generated by Microsoft (R) Optimizing Compiler Version 19.16.27045.0 

	TITLE	C:\Users\nhv90\Projects\eech\aphavoc\source\entity\fixed\fx_objdb.c
	.686P
	.XMM
	include listing.inc
	.model	flat

INCLUDELIB MSVCRTD
INCLUDELIB OLDNAMES

PUBLIC	?fixed_3d_object_database@@3PAUFIXED_3D_OBJECT_DATA@@A ; fixed_3d_object_database
_BSS	SEGMENT
?fixed_3d_object_database@@3PAUFIXED_3D_OBJECT_DATA@@A DQ 0ae4H DUP (?) ; fixed_3d_object_database
_BSS	ENDS
PUBLIC	?initialise_fixed_3d_object_database@@YGXXZ	; initialise_fixed_3d_object_database
PUBLIC	?report_non_entries_in_fixed_3d_object_database@@YGXXZ ; report_non_entries_in_fixed_3d_object_database
PUBLIC	?__LINE__Var@?0??set_fixed_3d_object_database_item@@YGXHHHHHMW4TARGET_TYPES@@W4TARGET_SYMBOL_TYPES@@@Z@4JA ; `set_fixed_3d_object_database_item'::`1'::__LINE__Var
PUBLIC	??_C@_0EE@CLONNMAD@c?3?2users?2nhv90?2projects?2eech?2ap@ ; `string'
PUBLIC	??_C@_0FD@EADADOAC@?$CIobject_index?5?$DO?5OBJECT_3D_INVAL@ ; `string'
PUBLIC	??_C@_0GE@GABKNGKL@?$CIexplosive_quality?5?$DO?$DN?5EXPLOSIVE@ ; `string'
PUBLIC	??_C@_0FH@MICOEKLJ@?$CIexplosive_power?5?$DO?$DN?5EXPLOSIVE_P@ ; `string'
PUBLIC	??_C@_0JG@CFMAPFKC@?$CIhardness?5?$DN?$DN?5WARHEAD_EFFECTIVE_@ ; `string'
PUBLIC	??_C@_0IH@ENELLFDJ@?$CIimportance?5?$DN?$DN?5IMPORTANCE_NONE?$CJ@ ; `string'
PUBLIC	??_C@_0BL@ONPPAIEH@initial_damage?5?$DM?5?$CI1?5?$DM?$DM?512?$CJ@ ; `string'
PUBLIC	??_C@_0EM@BOHPNMPB@?$CItarget_type?5?$DN?$DN?5TARGET_TYPE_INV@ ; `string'
PUBLIC	??_C@_0CI@PHICKBKK@target_symbol?5?$DM?5NUM_TARGET_SYMB@ ; `string'
PUBLIC	??_C@_0BO@CCEONLGH@importance?5?$DN?$DN?5IMPORTANCE_NONE@ ; `string'
PUBLIC	??_C@_0CM@MJAPEJB@FX_OBJDB?3?5WARNING?5Object?5?$CFs?5alr@ ; `string'
PUBLIC	??_C@_09NMLGKMPM@DESTROYED@			; `string'
PUBLIC	??_C@_06EJAPDIHK@BRIDGE@			; `string'
PUBLIC	??_C@_0BL@GELAOCCA@FX_OBJDB?5?3?5No?5Entry?5for?5?$CFs@ ; `string'
PUBLIC	__real@0000000000000000
PUBLIC	__real@3e800000
PUBLIC	__real@3f000000
PUBLIC	__real@3f800000
PUBLIC	__real@3fd0000000000000
PUBLIC	__real@3fe0000000000000
PUBLIC	__real@3ff0000000000000
EXTRN	_memset:PROC
EXTRN	_strstr:PROC
EXTRN	?process_assert@@YGXPBD0H@Z:PROC		; process_assert
EXTRN	?debug_filtered_log@@YAXPBDZZ:PROC		; debug_filtered_log
EXTRN	?get_3d_object_destroyed_object_index@@YGHH@Z:PROC ; get_3d_object_destroyed_object_index
EXTRN	?object_3d_information_database@@3PAUOBJECT_3D_INFORMATION@@A:DWORD ; object_3d_information_database
EXTRN	__fltused:DWORD
;	COMDAT __real@3ff0000000000000
CONST	SEGMENT
__real@3ff0000000000000 DQ 03ff0000000000000r	; 1
CONST	ENDS
;	COMDAT __real@3fe0000000000000
CONST	SEGMENT
__real@3fe0000000000000 DQ 03fe0000000000000r	; 0.5
CONST	ENDS
;	COMDAT __real@3fd0000000000000
CONST	SEGMENT
__real@3fd0000000000000 DQ 03fd0000000000000r	; 0.25
CONST	ENDS
;	COMDAT __real@3f800000
CONST	SEGMENT
__real@3f800000 DD 03f800000r			; 1
CONST	ENDS
;	COMDAT __real@3f000000
CONST	SEGMENT
__real@3f000000 DD 03f000000r			; 0.5
CONST	ENDS
;	COMDAT __real@3e800000
CONST	SEGMENT
__real@3e800000 DD 03e800000r			; 0.25
CONST	ENDS
;	COMDAT __real@0000000000000000
CONST	SEGMENT
__real@0000000000000000 DQ 00000000000000000r	; 0
CONST	ENDS
;	COMDAT ??_C@_0BL@GELAOCCA@FX_OBJDB?5?3?5No?5Entry?5for?5?$CFs@
CONST	SEGMENT
??_C@_0BL@GELAOCCA@FX_OBJDB?5?3?5No?5Entry?5for?5?$CFs@ DB 'FX_OBJDB : No'
	DB	' Entry for %s', 00H				; `string'
CONST	ENDS
;	COMDAT ??_C@_06EJAPDIHK@BRIDGE@
CONST	SEGMENT
??_C@_06EJAPDIHK@BRIDGE@ DB 'BRIDGE', 00H		; `string'
CONST	ENDS
;	COMDAT ??_C@_09NMLGKMPM@DESTROYED@
CONST	SEGMENT
??_C@_09NMLGKMPM@DESTROYED@ DB 'DESTROYED', 00H		; `string'
CONST	ENDS
;	COMDAT ??_C@_0CM@MJAPEJB@FX_OBJDB?3?5WARNING?5Object?5?$CFs?5alr@
CONST	SEGMENT
??_C@_0CM@MJAPEJB@FX_OBJDB?3?5WARNING?5Object?5?$CFs?5alr@ DB 'FX_OBJDB: '
	DB	'WARNING Object %s already defined', 00H	; `string'
CONST	ENDS
;	COMDAT ??_C@_0BO@CCEONLGH@importance?5?$DN?$DN?5IMPORTANCE_NONE@
CONST	SEGMENT
??_C@_0BO@CCEONLGH@importance?5?$DN?$DN?5IMPORTANCE_NONE@ DB 'importance '
	DB	'== IMPORTANCE_NONE', 00H			; `string'
CONST	ENDS
;	COMDAT ??_C@_0CI@PHICKBKK@target_symbol?5?$DM?5NUM_TARGET_SYMB@
CONST	SEGMENT
??_C@_0CI@PHICKBKK@target_symbol?5?$DM?5NUM_TARGET_SYMB@ DB 'target_symbo'
	DB	'l < NUM_TARGET_SYMBOL_TYPES', 00H		; `string'
CONST	ENDS
;	COMDAT ??_C@_0EM@BOHPNMPB@?$CItarget_type?5?$DN?$DN?5TARGET_TYPE_INV@
CONST	SEGMENT
??_C@_0EM@BOHPNMPB@?$CItarget_type?5?$DN?$DN?5TARGET_TYPE_INV@ DB '(targe'
	DB	't_type == TARGET_TYPE_INVALID) || (target_type == TARGET_TYPE'
	DB	'_GROUND)', 00H				; `string'
CONST	ENDS
;	COMDAT ??_C@_0BL@ONPPAIEH@initial_damage?5?$DM?5?$CI1?5?$DM?$DM?512?$CJ@
CONST	SEGMENT
??_C@_0BL@ONPPAIEH@initial_damage?5?$DM?5?$CI1?5?$DM?$DM?512?$CJ@ DB 'ini'
	DB	'tial_damage < (1 << 12)', 00H		; `string'
CONST	ENDS
;	COMDAT ??_C@_0IH@ENELLFDJ@?$CIimportance?5?$DN?$DN?5IMPORTANCE_NONE?$CJ@
CONST	SEGMENT
??_C@_0IH@ENELLFDJ@?$CIimportance?5?$DN?$DN?5IMPORTANCE_NONE?$CJ@ DB '(im'
	DB	'portance == IMPORTANCE_NONE) || (importance == IMPORTANCE_LOW'
	DB	') || (importance == IMPORTANCE_MED) || (importance == IMPORTA'
	DB	'NCE_HIGH)', 00H				; `string'
CONST	ENDS
;	COMDAT ??_C@_0JG@CFMAPFKC@?$CIhardness?5?$DN?$DN?5WARHEAD_EFFECTIVE_@
CONST	SEGMENT
??_C@_0JG@CFMAPFKC@?$CIhardness?5?$DN?$DN?5WARHEAD_EFFECTIVE_@ DB '(hardn'
	DB	'ess == WARHEAD_EFFECTIVE_LIGHT_BUILDING) || (hardness == WARH'
	DB	'EAD_EFFECTIVE_STONE_BUILDING) || (hardness == WARHEAD_EFFECTI'
	DB	'VE_HARDENED_BUILDING)', 00H			; `string'
CONST	ENDS
;	COMDAT ??_C@_0FH@MICOEKLJ@?$CIexplosive_power?5?$DO?$DN?5EXPLOSIVE_P@
CONST	SEGMENT
??_C@_0FH@MICOEKLJ@?$CIexplosive_power?5?$DO?$DN?5EXPLOSIVE_P@ DB '(explo'
	DB	'sive_power >= EXPLOSIVE_POWER_NONE) && (explosive_power <= EX'
	DB	'PLOSIVE_POWER_HIGH)', 00H			; `string'
CONST	ENDS
;	COMDAT ??_C@_0GE@GABKNGKL@?$CIexplosive_quality?5?$DO?$DN?5EXPLOSIVE@
CONST	SEGMENT
??_C@_0GE@GABKNGKL@?$CIexplosive_quality?5?$DO?$DN?5EXPLOSIVE@ DB '(explo'
	DB	'sive_quality >= EXPLOSIVE_QUALITY_NONE) && (explosive_quality'
	DB	' <= EXPLOSIVE_QUALITY_FLAMMABLE)', 00H	; `string'
CONST	ENDS
;	COMDAT ??_C@_0FD@EADADOAC@?$CIobject_index?5?$DO?5OBJECT_3D_INVAL@
CONST	SEGMENT
??_C@_0FD@EADADOAC@?$CIobject_index?5?$DO?5OBJECT_3D_INVAL@ DB '(object_i'
	DB	'ndex > OBJECT_3D_INVALID_OBJECT_INDEX) && (object_index < OBJ'
	DB	'ECT_3D_LAST)', 00H				; `string'
CONST	ENDS
;	COMDAT ??_C@_0EE@CLONNMAD@c?3?2users?2nhv90?2projects?2eech?2ap@
CONST	SEGMENT
??_C@_0EE@CLONNMAD@c?3?2users?2nhv90?2projects?2eech?2ap@ DB 'c:\users\nh'
	DB	'v90\projects\eech\aphavoc\source\entity\fixed\fx_objdb.c', 00H ; `string'
CONST	ENDS
;	COMDAT ?__LINE__Var@?0??set_fixed_3d_object_database_item@@YGXHHHHHMW4TARGET_TYPES@@W4TARGET_SYMBOL_TYPES@@@Z@4JA
_DATA	SEGMENT
?__LINE__Var@?0??set_fixed_3d_object_database_item@@YGXHHHHHMW4TARGET_TYPES@@W4TARGET_SYMBOL_TYPES@@@Z@4JA DD 05dH ; `set_fixed_3d_object_database_item'::`1'::__LINE__Var
_DATA	ENDS
; Function compile flags: /Odtp /ZI
; File c:\users\nhv90\projects\eech\aphavoc\source\entity\fixed\fx_objdb.c
;	COMDAT ?initialise_zero_importance_light_buildings@@YGXXZ
_TEXT	SEGMENT
?initialise_zero_importance_light_buildings@@YGXXZ PROC	; initialise_zero_importance_light_buildings, COMDAT

; 1498 : {

  00000	55		 push	 ebp
  00001	8b ec		 mov	 ebp, esp
  00003	83 ec 40	 sub	 esp, 64			; 00000040H
  00006	53		 push	 ebx
  00007	56		 push	 esi
  00008	57		 push	 edi

; 1499 : 	////////////////////////////////////////////////////////////////////////////////////
; 1500 : 	//
; 1501 : 	// ZERO IMPORTANCE LIGHT BUILDINGS
; 1502 : 	//
; 1503 : 	////////////////////////////////////////////////////////////////////////////////////
; 1504 : 
; 1505 : 	// VALID TARGETS
; 1506 : 
; 1507 : 	// INVALID TARGETS
; 1508 : 
; 1509 : 	set_fixed_3d_object_database_item (OBJECT_3D_MILITARY_FC_TOWER001_1X1, EXPLOSIVE_QUALITY_NONE, EXPLOSIVE_POWER_NONE, WARHEAD_EFFECTIVE_LIGHT_BUILDING, 150, 0.0, TARGET_TYPE_INVALID, TARGET_SYMBOL_UNKNOWN);

  00009	6a 00		 push	 0
  0000b	6a 00		 push	 0
  0000d	51		 push	 ecx
  0000e	0f 57 c0	 xorps	 xmm0, xmm0
  00011	f3 0f 11 04 24	 movss	 DWORD PTR [esp], xmm0
  00016	68 96 00 00 00	 push	 150			; 00000096H
  0001b	68 80 00 00 00	 push	 128			; 00000080H
  00020	6a 00		 push	 0
  00022	6a 00		 push	 0
  00024	68 a7 02 00 00	 push	 679			; 000002a7H
  00029	e8 00 00 00 00	 call	 ?set_fixed_3d_object_database_item@@YGXHHHHHMW4TARGET_TYPES@@W4TARGET_SYMBOL_TYPES@@@Z ; set_fixed_3d_object_database_item

; 1510 : 
; 1511 : 	set_fixed_3d_object_database_item (OBJECT_3D_FARM_FC_BOHIOS001, EXPLOSIVE_QUALITY_NONE, EXPLOSIVE_POWER_NONE, WARHEAD_EFFECTIVE_LIGHT_BUILDING, 150, 0.0, TARGET_TYPE_INVALID, TARGET_SYMBOL_UNKNOWN);

  0002e	6a 00		 push	 0
  00030	6a 00		 push	 0
  00032	51		 push	 ecx
  00033	0f 57 c0	 xorps	 xmm0, xmm0
  00036	f3 0f 11 04 24	 movss	 DWORD PTR [esp], xmm0
  0003b	68 96 00 00 00	 push	 150			; 00000096H
  00040	68 80 00 00 00	 push	 128			; 00000080H
  00045	6a 00		 push	 0
  00047	6a 00		 push	 0
  00049	68 e6 01 00 00	 push	 486			; 000001e6H
  0004e	e8 00 00 00 00	 call	 ?set_fixed_3d_object_database_item@@YGXHHHHHMW4TARGET_TYPES@@W4TARGET_SYMBOL_TYPES@@@Z ; set_fixed_3d_object_database_item

; 1512 : 	set_fixed_3d_object_database_item (OBJECT_3D_FARM_FC_BOHIOS003, EXPLOSIVE_QUALITY_NONE, EXPLOSIVE_POWER_NONE, WARHEAD_EFFECTIVE_LIGHT_BUILDING, 150, 0.0, TARGET_TYPE_INVALID, TARGET_SYMBOL_UNKNOWN);

  00053	6a 00		 push	 0
  00055	6a 00		 push	 0
  00057	51		 push	 ecx
  00058	0f 57 c0	 xorps	 xmm0, xmm0
  0005b	f3 0f 11 04 24	 movss	 DWORD PTR [esp], xmm0
  00060	68 96 00 00 00	 push	 150			; 00000096H
  00065	68 80 00 00 00	 push	 128			; 00000080H
  0006a	6a 00		 push	 0
  0006c	6a 00		 push	 0
  0006e	68 e8 01 00 00	 push	 488			; 000001e8H
  00073	e8 00 00 00 00	 call	 ?set_fixed_3d_object_database_item@@YGXHHHHHMW4TARGET_TYPES@@W4TARGET_SYMBOL_TYPES@@@Z ; set_fixed_3d_object_database_item

; 1513 : 	set_fixed_3d_object_database_item (OBJECT_3D_OUTSKIRTS_FC_BOHIOS002, EXPLOSIVE_QUALITY_NONE, EXPLOSIVE_POWER_NONE, WARHEAD_EFFECTIVE_LIGHT_BUILDING, 150, 0.0, TARGET_TYPE_INVALID, TARGET_SYMBOL_UNKNOWN);

  00078	6a 00		 push	 0
  0007a	6a 00		 push	 0
  0007c	51		 push	 ecx
  0007d	0f 57 c0	 xorps	 xmm0, xmm0
  00080	f3 0f 11 04 24	 movss	 DWORD PTR [esp], xmm0
  00085	68 96 00 00 00	 push	 150			; 00000096H
  0008a	68 80 00 00 00	 push	 128			; 00000080H
  0008f	6a 00		 push	 0
  00091	6a 00		 push	 0
  00093	68 cd 02 00 00	 push	 717			; 000002cdH
  00098	e8 00 00 00 00	 call	 ?set_fixed_3d_object_database_item@@YGXHHHHHMW4TARGET_TYPES@@W4TARGET_SYMBOL_TYPES@@@Z ; set_fixed_3d_object_database_item

; 1514 : 	set_fixed_3d_object_database_item (OBJECT_3D_OUTSKIRTS_FC_BOHIOS004, EXPLOSIVE_QUALITY_NONE, EXPLOSIVE_POWER_NONE, WARHEAD_EFFECTIVE_LIGHT_BUILDING, 150, 0.0, TARGET_TYPE_INVALID, TARGET_SYMBOL_UNKNOWN);

  0009d	6a 00		 push	 0
  0009f	6a 00		 push	 0
  000a1	51		 push	 ecx
  000a2	0f 57 c0	 xorps	 xmm0, xmm0
  000a5	f3 0f 11 04 24	 movss	 DWORD PTR [esp], xmm0
  000aa	68 96 00 00 00	 push	 150			; 00000096H
  000af	68 80 00 00 00	 push	 128			; 00000080H
  000b4	6a 00		 push	 0
  000b6	6a 00		 push	 0
  000b8	68 cf 02 00 00	 push	 719			; 000002cfH
  000bd	e8 00 00 00 00	 call	 ?set_fixed_3d_object_database_item@@YGXHHHHHMW4TARGET_TYPES@@W4TARGET_SYMBOL_TYPES@@@Z ; set_fixed_3d_object_database_item

; 1515 : 
; 1516 : 	set_fixed_3d_object_database_item (OBJECT_3D_THAI_OUTSKIRTS_FR_TENTS, EXPLOSIVE_QUALITY_NONE, EXPLOSIVE_POWER_NONE, WARHEAD_EFFECTIVE_LIGHT_BUILDING, 150, 0.0, TARGET_TYPE_INVALID, TARGET_SYMBOL_UNKNOWN);

  000c2	6a 00		 push	 0
  000c4	6a 00		 push	 0
  000c6	51		 push	 ecx
  000c7	0f 57 c0	 xorps	 xmm0, xmm0
  000ca	f3 0f 11 04 24	 movss	 DWORD PTR [esp], xmm0
  000cf	68 96 00 00 00	 push	 150			; 00000096H
  000d4	68 80 00 00 00	 push	 128			; 00000080H
  000d9	6a 00		 push	 0
  000db	6a 00		 push	 0
  000dd	68 56 04 00 00	 push	 1110			; 00000456H
  000e2	e8 00 00 00 00	 call	 ?set_fixed_3d_object_database_item@@YGXHHHHHMW4TARGET_TYPES@@W4TARGET_SYMBOL_TYPES@@@Z ; set_fixed_3d_object_database_item

; 1517 : 
; 1518 : 	set_fixed_3d_object_database_item (OBJECT_3D_KEY_MILITARY_FC_PALMTREE001_20M, EXPLOSIVE_QUALITY_NONE, EXPLOSIVE_POWER_NONE, WARHEAD_EFFECTIVE_LIGHT_BUILDING, 250, 0.0, TARGET_TYPE_INVALID, TARGET_SYMBOL_UNKNOWN);

  000e7	6a 00		 push	 0
  000e9	6a 00		 push	 0
  000eb	51		 push	 ecx
  000ec	0f 57 c0	 xorps	 xmm0, xmm0
  000ef	f3 0f 11 04 24	 movss	 DWORD PTR [esp], xmm0
  000f4	68 fa 00 00 00	 push	 250			; 000000faH
  000f9	68 80 00 00 00	 push	 128			; 00000080H
  000fe	6a 00		 push	 0
  00100	6a 00		 push	 0
  00102	68 1e 06 00 00	 push	 1566			; 0000061eH
  00107	e8 00 00 00 00	 call	 ?set_fixed_3d_object_database_item@@YGXHHHHHMW4TARGET_TYPES@@W4TARGET_SYMBOL_TYPES@@@Z ; set_fixed_3d_object_database_item

; 1519 : 	set_fixed_3d_object_database_item (OBJECT_3D_KEY_MILITARY_FR_FLAG001_1X2, EXPLOSIVE_QUALITY_NONE, EXPLOSIVE_POWER_NONE, WARHEAD_EFFECTIVE_LIGHT_BUILDING, 250, 0.0, TARGET_TYPE_INVALID, TARGET_SYMBOL_UNKNOWN);

  0010c	6a 00		 push	 0
  0010e	6a 00		 push	 0
  00110	51		 push	 ecx
  00111	0f 57 c0	 xorps	 xmm0, xmm0
  00114	f3 0f 11 04 24	 movss	 DWORD PTR [esp], xmm0
  00119	68 fa 00 00 00	 push	 250			; 000000faH
  0011e	68 80 00 00 00	 push	 128			; 00000080H
  00123	6a 00		 push	 0
  00125	6a 00		 push	 0
  00127	68 26 06 00 00	 push	 1574			; 00000626H
  0012c	e8 00 00 00 00	 call	 ?set_fixed_3d_object_database_item@@YGXHHHHHMW4TARGET_TYPES@@W4TARGET_SYMBOL_TYPES@@@Z ; set_fixed_3d_object_database_item

; 1520 : 
; 1521 : 	set_fixed_3d_object_database_item (OBJECT_3D_LEBANON_KEY_RADIO_FC_FRAMEBLOCK001_10X20, EXPLOSIVE_QUALITY_NONE, EXPLOSIVE_POWER_NONE, WARHEAD_EFFECTIVE_LIGHT_BUILDING, 250, 0.0, TARGET_TYPE_INVALID, TARGET_SYMBOL_UNKNOWN);

  00131	6a 00		 push	 0
  00133	6a 00		 push	 0
  00135	51		 push	 ecx
  00136	0f 57 c0	 xorps	 xmm0, xmm0
  00139	f3 0f 11 04 24	 movss	 DWORD PTR [esp], xmm0
  0013e	68 fa 00 00 00	 push	 250			; 000000faH
  00143	68 80 00 00 00	 push	 128			; 00000080H
  00148	6a 00		 push	 0
  0014a	6a 00		 push	 0
  0014c	68 f6 06 00 00	 push	 1782			; 000006f6H
  00151	e8 00 00 00 00	 call	 ?set_fixed_3d_object_database_item@@YGXHHHHHMW4TARGET_TYPES@@W4TARGET_SYMBOL_TYPES@@@Z ; set_fixed_3d_object_database_item

; 1522 : 	set_fixed_3d_object_database_item (OBJECT_3D_LEBANON_KEY_POWER_FC_COMPOUND01_200X80, EXPLOSIVE_QUALITY_NONE, EXPLOSIVE_POWER_NONE, WARHEAD_EFFECTIVE_LIGHT_BUILDING, 250, 0.0, TARGET_TYPE_INVALID, TARGET_SYMBOL_UNKNOWN);

  00156	6a 00		 push	 0
  00158	6a 00		 push	 0
  0015a	51		 push	 ecx
  0015b	0f 57 c0	 xorps	 xmm0, xmm0
  0015e	f3 0f 11 04 24	 movss	 DWORD PTR [esp], xmm0
  00163	68 fa 00 00 00	 push	 250			; 000000faH
  00168	68 80 00 00 00	 push	 128			; 00000080H
  0016d	6a 00		 push	 0
  0016f	6a 00		 push	 0
  00171	68 d6 06 00 00	 push	 1750			; 000006d6H
  00176	e8 00 00 00 00	 call	 ?set_fixed_3d_object_database_item@@YGXHHHHHMW4TARGET_TYPES@@W4TARGET_SYMBOL_TYPES@@@Z ; set_fixed_3d_object_database_item

; 1523 : 
; 1524 : 	set_fixed_3d_object_database_item (OBJECT_3D_YEMEN_KEY_POWER_FC_COMPOUND01_200X80, EXPLOSIVE_QUALITY_NONE, EXPLOSIVE_POWER_NONE, WARHEAD_EFFECTIVE_LIGHT_BUILDING, 250, 0.0, TARGET_TYPE_INVALID, TARGET_SYMBOL_UNKNOWN);

  0017b	6a 00		 push	 0
  0017d	6a 00		 push	 0
  0017f	51		 push	 ecx
  00180	0f 57 c0	 xorps	 xmm0, xmm0
  00183	f3 0f 11 04 24	 movss	 DWORD PTR [esp], xmm0
  00188	68 fa 00 00 00	 push	 250			; 000000faH
  0018d	68 80 00 00 00	 push	 128			; 00000080H
  00192	6a 00		 push	 0
  00194	6a 00		 push	 0
  00196	68 89 09 00 00	 push	 2441			; 00000989H
  0019b	e8 00 00 00 00	 call	 ?set_fixed_3d_object_database_item@@YGXHHHHHMW4TARGET_TYPES@@W4TARGET_SYMBOL_TYPES@@@Z ; set_fixed_3d_object_database_item

; 1525 : 
; 1526 : 	set_fixed_3d_object_database_item (OBJECT_3D_TAIWAN_KEY_RADIO_FC_FRAMEBLOCK001_10X20, EXPLOSIVE_QUALITY_NONE, EXPLOSIVE_POWER_NONE, WARHEAD_EFFECTIVE_LIGHT_BUILDING, 250, 0.0, TARGET_TYPE_INVALID, TARGET_SYMBOL_UNKNOWN);

  001a0	6a 00		 push	 0
  001a2	6a 00		 push	 0
  001a4	51		 push	 ecx
  001a5	0f 57 c0	 xorps	 xmm0, xmm0
  001a8	f3 0f 11 04 24	 movss	 DWORD PTR [esp], xmm0
  001ad	68 fa 00 00 00	 push	 250			; 000000faH
  001b2	68 80 00 00 00	 push	 128			; 00000080H
  001b7	6a 00		 push	 0
  001b9	6a 00		 push	 0
  001bb	68 99 08 00 00	 push	 2201			; 00000899H
  001c0	e8 00 00 00 00	 call	 ?set_fixed_3d_object_database_item@@YGXHHHHHMW4TARGET_TYPES@@W4TARGET_SYMBOL_TYPES@@@Z ; set_fixed_3d_object_database_item

; 1527 : 	set_fixed_3d_object_database_item (OBJECT_3D_TAIWAN_KEY_POWER_FC_COMPOUND01_200X80, EXPLOSIVE_QUALITY_NONE, EXPLOSIVE_POWER_NONE, WARHEAD_EFFECTIVE_LIGHT_BUILDING, 250, 0.0, TARGET_TYPE_INVALID, TARGET_SYMBOL_UNKNOWN);

  001c5	6a 00		 push	 0
  001c7	6a 00		 push	 0
  001c9	51		 push	 ecx
  001ca	0f 57 c0	 xorps	 xmm0, xmm0
  001cd	f3 0f 11 04 24	 movss	 DWORD PTR [esp], xmm0
  001d2	68 fa 00 00 00	 push	 250			; 000000faH
  001d7	68 80 00 00 00	 push	 128			; 00000080H
  001dc	6a 00		 push	 0
  001de	6a 00		 push	 0
  001e0	68 79 08 00 00	 push	 2169			; 00000879H
  001e5	e8 00 00 00 00	 call	 ?set_fixed_3d_object_database_item@@YGXHHHHHMW4TARGET_TYPES@@W4TARGET_SYMBOL_TYPES@@@Z ; set_fixed_3d_object_database_item

; 1528 : 
; 1529 : 	set_fixed_3d_object_database_item (OBJECT_3D_TAIWAN_KEY_MILITARY_FC_PALMTREE001_20M, EXPLOSIVE_QUALITY_NONE, EXPLOSIVE_POWER_NONE, WARHEAD_EFFECTIVE_LIGHT_BUILDING, 250, 0.0, TARGET_TYPE_INVALID, TARGET_SYMBOL_UNKNOWN);

  001ea	6a 00		 push	 0
  001ec	6a 00		 push	 0
  001ee	51		 push	 ecx
  001ef	0f 57 c0	 xorps	 xmm0, xmm0
  001f2	f3 0f 11 04 24	 movss	 DWORD PTR [esp], xmm0
  001f7	68 fa 00 00 00	 push	 250			; 000000faH
  001fc	68 80 00 00 00	 push	 128			; 00000080H
  00201	6a 00		 push	 0
  00203	6a 00		 push	 0
  00205	68 f5 07 00 00	 push	 2037			; 000007f5H
  0020a	e8 00 00 00 00	 call	 ?set_fixed_3d_object_database_item@@YGXHHHHHMW4TARGET_TYPES@@W4TARGET_SYMBOL_TYPES@@@Z ; set_fixed_3d_object_database_item

; 1530 : 	set_fixed_3d_object_database_item (OBJECT_3D_TAIWAN_KEY_MILITARY_FR_FLAG001_1X2, EXPLOSIVE_QUALITY_NONE, EXPLOSIVE_POWER_NONE, WARHEAD_EFFECTIVE_LIGHT_BUILDING, 250, 0.0, TARGET_TYPE_INVALID, TARGET_SYMBOL_UNKNOWN);

  0020f	6a 00		 push	 0
  00211	6a 00		 push	 0
  00213	51		 push	 ecx
  00214	0f 57 c0	 xorps	 xmm0, xmm0
  00217	f3 0f 11 04 24	 movss	 DWORD PTR [esp], xmm0
  0021c	68 fa 00 00 00	 push	 250			; 000000faH
  00221	68 80 00 00 00	 push	 128			; 00000080H
  00226	6a 00		 push	 0
  00228	6a 00		 push	 0
  0022a	68 fd 07 00 00	 push	 2045			; 000007fdH
  0022f	e8 00 00 00 00	 call	 ?set_fixed_3d_object_database_item@@YGXHHHHHMW4TARGET_TYPES@@W4TARGET_SYMBOL_TYPES@@@Z ; set_fixed_3d_object_database_item

; 1531 : 	set_fixed_3d_object_database_item (OBJECT_3D_TAIWAN_KEY_MILITARY_FC_LAMP01_10X10, EXPLOSIVE_QUALITY_NONE, EXPLOSIVE_POWER_NONE, WARHEAD_EFFECTIVE_LIGHT_BUILDING, 1000, 0.0, TARGET_TYPE_INVALID, TARGET_SYMBOL_UNKNOWN);

  00234	6a 00		 push	 0
  00236	6a 00		 push	 0
  00238	51		 push	 ecx
  00239	0f 57 c0	 xorps	 xmm0, xmm0
  0023c	f3 0f 11 04 24	 movss	 DWORD PTR [esp], xmm0
  00241	68 e8 03 00 00	 push	 1000			; 000003e8H
  00246	68 80 00 00 00	 push	 128			; 00000080H
  0024b	6a 00		 push	 0
  0024d	6a 00		 push	 0
  0024f	68 f3 07 00 00	 push	 2035			; 000007f3H
  00254	e8 00 00 00 00	 call	 ?set_fixed_3d_object_database_item@@YGXHHHHHMW4TARGET_TYPES@@W4TARGET_SYMBOL_TYPES@@@Z ; set_fixed_3d_object_database_item

; 1532 : 
; 1533 : 	set_fixed_3d_object_database_item (OBJECT_3D_TAIWAN_KEY_MILITARY_FC_SANDBAGS_U1, EXPLOSIVE_QUALITY_NONE, EXPLOSIVE_POWER_NONE, WARHEAD_EFFECTIVE_LIGHT_BUILDING, 1000, 0.0, TARGET_TYPE_INVALID, TARGET_SYMBOL_UNKNOWN);

  00259	6a 00		 push	 0
  0025b	6a 00		 push	 0
  0025d	51		 push	 ecx
  0025e	0f 57 c0	 xorps	 xmm0, xmm0
  00261	f3 0f 11 04 24	 movss	 DWORD PTR [esp], xmm0
  00266	68 e8 03 00 00	 push	 1000			; 000003e8H
  0026b	68 80 00 00 00	 push	 128			; 00000080H
  00270	6a 00		 push	 0
  00272	6a 00		 push	 0
  00274	68 d4 07 00 00	 push	 2004			; 000007d4H
  00279	e8 00 00 00 00	 call	 ?set_fixed_3d_object_database_item@@YGXHHHHHMW4TARGET_TYPES@@W4TARGET_SYMBOL_TYPES@@@Z ; set_fixed_3d_object_database_item

; 1534 : 	set_fixed_3d_object_database_item (OBJECT_3D_TAIWAN_KEY_MILITARY_FC_SANDBAGS_U2, EXPLOSIVE_QUALITY_NONE, EXPLOSIVE_POWER_NONE, WARHEAD_EFFECTIVE_LIGHT_BUILDING, 1000, 0.0, TARGET_TYPE_INVALID, TARGET_SYMBOL_UNKNOWN);

  0027e	6a 00		 push	 0
  00280	6a 00		 push	 0
  00282	51		 push	 ecx
  00283	0f 57 c0	 xorps	 xmm0, xmm0
  00286	f3 0f 11 04 24	 movss	 DWORD PTR [esp], xmm0
  0028b	68 e8 03 00 00	 push	 1000			; 000003e8H
  00290	68 80 00 00 00	 push	 128			; 00000080H
  00295	6a 00		 push	 0
  00297	6a 00		 push	 0
  00299	68 d5 07 00 00	 push	 2005			; 000007d5H
  0029e	e8 00 00 00 00	 call	 ?set_fixed_3d_object_database_item@@YGXHHHHHMW4TARGET_TYPES@@W4TARGET_SYMBOL_TYPES@@@Z ; set_fixed_3d_object_database_item

; 1535 : 
; 1536 : 	set_fixed_3d_object_database_item (OBJECT_3D_KEY_MILITARY_FC_LAMP01_10X10, EXPLOSIVE_QUALITY_NONE, EXPLOSIVE_POWER_NONE, WARHEAD_EFFECTIVE_LIGHT_BUILDING, 1000, 0.0, TARGET_TYPE_INVALID, TARGET_SYMBOL_UNKNOWN);

  002a3	6a 00		 push	 0
  002a5	6a 00		 push	 0
  002a7	51		 push	 ecx
  002a8	0f 57 c0	 xorps	 xmm0, xmm0
  002ab	f3 0f 11 04 24	 movss	 DWORD PTR [esp], xmm0
  002b0	68 e8 03 00 00	 push	 1000			; 000003e8H
  002b5	68 80 00 00 00	 push	 128			; 00000080H
  002ba	6a 00		 push	 0
  002bc	6a 00		 push	 0
  002be	68 1c 06 00 00	 push	 1564			; 0000061cH
  002c3	e8 00 00 00 00	 call	 ?set_fixed_3d_object_database_item@@YGXHHHHHMW4TARGET_TYPES@@W4TARGET_SYMBOL_TYPES@@@Z ; set_fixed_3d_object_database_item

; 1537 : 
; 1538 : 	set_fixed_3d_object_database_item (OBJECT_3D_Y_KEY_MILITARY_FC_SANDBAGS_U1, EXPLOSIVE_QUALITY_NONE, EXPLOSIVE_POWER_NONE, WARHEAD_EFFECTIVE_LIGHT_BUILDING, 1000, 0.0, TARGET_TYPE_INVALID, TARGET_SYMBOL_UNKNOWN);

  002c8	6a 00		 push	 0
  002ca	6a 00		 push	 0
  002cc	51		 push	 ecx
  002cd	0f 57 c0	 xorps	 xmm0, xmm0
  002d0	f3 0f 11 04 24	 movss	 DWORD PTR [esp], xmm0
  002d5	68 e8 03 00 00	 push	 1000			; 000003e8H
  002da	68 80 00 00 00	 push	 128			; 00000080H
  002df	6a 00		 push	 0
  002e1	6a 00		 push	 0
  002e3	68 03 09 00 00	 push	 2307			; 00000903H
  002e8	e8 00 00 00 00	 call	 ?set_fixed_3d_object_database_item@@YGXHHHHHMW4TARGET_TYPES@@W4TARGET_SYMBOL_TYPES@@@Z ; set_fixed_3d_object_database_item

; 1539 : 	set_fixed_3d_object_database_item (OBJECT_3D_Y_KEY_MILITARY_FC_SANDBAGS_U2, EXPLOSIVE_QUALITY_NONE, EXPLOSIVE_POWER_NONE, WARHEAD_EFFECTIVE_LIGHT_BUILDING, 1000, 0.0, TARGET_TYPE_INVALID, TARGET_SYMBOL_UNKNOWN);

  002ed	6a 00		 push	 0
  002ef	6a 00		 push	 0
  002f1	51		 push	 ecx
  002f2	0f 57 c0	 xorps	 xmm0, xmm0
  002f5	f3 0f 11 04 24	 movss	 DWORD PTR [esp], xmm0
  002fa	68 e8 03 00 00	 push	 1000			; 000003e8H
  002ff	68 80 00 00 00	 push	 128			; 00000080H
  00304	6a 00		 push	 0
  00306	6a 00		 push	 0
  00308	68 04 09 00 00	 push	 2308			; 00000904H
  0030d	e8 00 00 00 00	 call	 ?set_fixed_3d_object_database_item@@YGXHHHHHMW4TARGET_TYPES@@W4TARGET_SYMBOL_TYPES@@@Z ; set_fixed_3d_object_database_item

; 1540 : }

  00312	5f		 pop	 edi
  00313	5e		 pop	 esi
  00314	5b		 pop	 ebx
  00315	8b e5		 mov	 esp, ebp
  00317	5d		 pop	 ebp
  00318	c3		 ret	 0
?initialise_zero_importance_light_buildings@@YGXXZ ENDP	; initialise_zero_importance_light_buildings
_TEXT	ENDS
; Function compile flags: /Odtp /ZI
; File c:\users\nhv90\projects\eech\aphavoc\source\entity\fixed\fx_objdb.c
;	COMDAT ?initialise_zero_importance_small_explosive_buildings@@YGXXZ
_TEXT	SEGMENT
?initialise_zero_importance_small_explosive_buildings@@YGXXZ PROC ; initialise_zero_importance_small_explosive_buildings, COMDAT

; 1471 : {

  00000	55		 push	 ebp
  00001	8b ec		 mov	 ebp, esp
  00003	83 ec 40	 sub	 esp, 64			; 00000040H
  00006	53		 push	 ebx
  00007	56		 push	 esi
  00008	57		 push	 edi

; 1472 : 	////////////////////////////////////////////////////////////////////////////////////
; 1473 : 	//
; 1474 : 	// ZERO IMPORTANCE SMALL EXPLOSIVE BUILDINGS
; 1475 : 	//
; 1476 : 	////////////////////////////////////////////////////////////////////////////////////
; 1477 : 
; 1478 : 	// VALID TARGETS
; 1479 : 
; 1480 : 	// INVALID TARGETS
; 1481 : 
; 1482 : 	set_fixed_3d_object_database_item (OBJECT_3D_CRATES_UNDER_CAMO01, EXPLOSIVE_QUALITY_EXPLOSIVE, EXPLOSIVE_POWER_LOW, WARHEAD_EFFECTIVE_LIGHT_BUILDING, 10, 0.0, TARGET_TYPE_INVALID, TARGET_SYMBOL_UNKNOWN);

  00009	6a 00		 push	 0
  0000b	6a 00		 push	 0
  0000d	51		 push	 ecx
  0000e	0f 57 c0	 xorps	 xmm0, xmm0
  00011	f3 0f 11 04 24	 movss	 DWORD PTR [esp], xmm0
  00016	6a 0a		 push	 10			; 0000000aH
  00018	68 80 00 00 00	 push	 128			; 00000080H
  0001d	6a 01		 push	 1
  0001f	6a 02		 push	 2
  00021	68 a3 00 00 00	 push	 163			; 000000a3H
  00026	e8 00 00 00 00	 call	 ?set_fixed_3d_object_database_item@@YGXHHHHHMW4TARGET_TYPES@@W4TARGET_SYMBOL_TYPES@@@Z ; set_fixed_3d_object_database_item

; 1483 : 	set_fixed_3d_object_database_item (OBJECT_3D_CRATES_UNDER_CAMO02, EXPLOSIVE_QUALITY_EXPLOSIVE, EXPLOSIVE_POWER_LOW, WARHEAD_EFFECTIVE_LIGHT_BUILDING, 10, 0.0, TARGET_TYPE_INVALID, TARGET_SYMBOL_UNKNOWN);

  0002b	6a 00		 push	 0
  0002d	6a 00		 push	 0
  0002f	51		 push	 ecx
  00030	0f 57 c0	 xorps	 xmm0, xmm0
  00033	f3 0f 11 04 24	 movss	 DWORD PTR [esp], xmm0
  00038	6a 0a		 push	 10			; 0000000aH
  0003a	68 80 00 00 00	 push	 128			; 00000080H
  0003f	6a 01		 push	 1
  00041	6a 02		 push	 2
  00043	68 a5 00 00 00	 push	 165			; 000000a5H
  00048	e8 00 00 00 00	 call	 ?set_fixed_3d_object_database_item@@YGXHHHHHMW4TARGET_TYPES@@W4TARGET_SYMBOL_TYPES@@@Z ; set_fixed_3d_object_database_item

; 1484 : 	set_fixed_3d_object_database_item (OBJECT_3D_CRATES_UNDER_CAMO03, EXPLOSIVE_QUALITY_EXPLOSIVE, EXPLOSIVE_POWER_LOW, WARHEAD_EFFECTIVE_LIGHT_BUILDING, 10, 0.0, TARGET_TYPE_INVALID, TARGET_SYMBOL_UNKNOWN);

  0004d	6a 00		 push	 0
  0004f	6a 00		 push	 0
  00051	51		 push	 ecx
  00052	0f 57 c0	 xorps	 xmm0, xmm0
  00055	f3 0f 11 04 24	 movss	 DWORD PTR [esp], xmm0
  0005a	6a 0a		 push	 10			; 0000000aH
  0005c	68 80 00 00 00	 push	 128			; 00000080H
  00061	6a 01		 push	 1
  00063	6a 02		 push	 2
  00065	68 a7 00 00 00	 push	 167			; 000000a7H
  0006a	e8 00 00 00 00	 call	 ?set_fixed_3d_object_database_item@@YGXHHHHHMW4TARGET_TYPES@@W4TARGET_SYMBOL_TYPES@@@Z ; set_fixed_3d_object_database_item

; 1485 : 	set_fixed_3d_object_database_item (OBJECT_3D_CRATES_UNDER_CAMO04, EXPLOSIVE_QUALITY_EXPLOSIVE, EXPLOSIVE_POWER_LOW, WARHEAD_EFFECTIVE_LIGHT_BUILDING, 10, 0.0, TARGET_TYPE_INVALID, TARGET_SYMBOL_UNKNOWN);

  0006f	6a 00		 push	 0
  00071	6a 00		 push	 0
  00073	51		 push	 ecx
  00074	0f 57 c0	 xorps	 xmm0, xmm0
  00077	f3 0f 11 04 24	 movss	 DWORD PTR [esp], xmm0
  0007c	6a 0a		 push	 10			; 0000000aH
  0007e	68 80 00 00 00	 push	 128			; 00000080H
  00083	6a 01		 push	 1
  00085	6a 02		 push	 2
  00087	68 a9 00 00 00	 push	 169			; 000000a9H
  0008c	e8 00 00 00 00	 call	 ?set_fixed_3d_object_database_item@@YGXHHHHHMW4TARGET_TYPES@@W4TARGET_SYMBOL_TYPES@@@Z ; set_fixed_3d_object_database_item

; 1486 : 	set_fixed_3d_object_database_item (OBJECT_3D_CRATES_UNDER_CAMO05, EXPLOSIVE_QUALITY_EXPLOSIVE, EXPLOSIVE_POWER_LOW, WARHEAD_EFFECTIVE_LIGHT_BUILDING, 10, 0.0, TARGET_TYPE_INVALID, TARGET_SYMBOL_UNKNOWN);

  00091	6a 00		 push	 0
  00093	6a 00		 push	 0
  00095	51		 push	 ecx
  00096	0f 57 c0	 xorps	 xmm0, xmm0
  00099	f3 0f 11 04 24	 movss	 DWORD PTR [esp], xmm0
  0009e	6a 0a		 push	 10			; 0000000aH
  000a0	68 80 00 00 00	 push	 128			; 00000080H
  000a5	6a 01		 push	 1
  000a7	6a 02		 push	 2
  000a9	68 ab 00 00 00	 push	 171			; 000000abH
  000ae	e8 00 00 00 00	 call	 ?set_fixed_3d_object_database_item@@YGXHHHHHMW4TARGET_TYPES@@W4TARGET_SYMBOL_TYPES@@@Z ; set_fixed_3d_object_database_item

; 1487 : 
; 1488 : 	set_fixed_3d_object_database_item (OBJECT_3D_Y_KEY_MILITARY_FC_CRATES_UNDER_CAMO01, EXPLOSIVE_QUALITY_EXPLOSIVE, EXPLOSIVE_POWER_LOW, WARHEAD_EFFECTIVE_LIGHT_BUILDING, 10, 0.0, TARGET_TYPE_INVALID, TARGET_SYMBOL_UNKNOWN);

  000b3	6a 00		 push	 0
  000b5	6a 00		 push	 0
  000b7	51		 push	 ecx
  000b8	0f 57 c0	 xorps	 xmm0, xmm0
  000bb	f3 0f 11 04 24	 movss	 DWORD PTR [esp], xmm0
  000c0	6a 0a		 push	 10			; 0000000aH
  000c2	68 80 00 00 00	 push	 128			; 00000080H
  000c7	6a 01		 push	 1
  000c9	6a 02		 push	 2
  000cb	68 0b 09 00 00	 push	 2315			; 0000090bH
  000d0	e8 00 00 00 00	 call	 ?set_fixed_3d_object_database_item@@YGXHHHHHMW4TARGET_TYPES@@W4TARGET_SYMBOL_TYPES@@@Z ; set_fixed_3d_object_database_item

; 1489 : 	set_fixed_3d_object_database_item (OBJECT_3D_Y_KEY_MILITARY_FC_DRUMS_ON_PALETTE, EXPLOSIVE_QUALITY_EXPLOSIVE, EXPLOSIVE_POWER_LOW, WARHEAD_EFFECTIVE_LIGHT_BUILDING, 10, 0.0, TARGET_TYPE_INVALID, TARGET_SYMBOL_UNKNOWN);

  000d5	6a 00		 push	 0
  000d7	6a 00		 push	 0
  000d9	51		 push	 ecx
  000da	0f 57 c0	 xorps	 xmm0, xmm0
  000dd	f3 0f 11 04 24	 movss	 DWORD PTR [esp], xmm0
  000e2	6a 0a		 push	 10			; 0000000aH
  000e4	68 80 00 00 00	 push	 128			; 00000080H
  000e9	6a 01		 push	 1
  000eb	6a 02		 push	 2
  000ed	68 22 09 00 00	 push	 2338			; 00000922H
  000f2	e8 00 00 00 00	 call	 ?set_fixed_3d_object_database_item@@YGXHHHHHMW4TARGET_TYPES@@W4TARGET_SYMBOL_TYPES@@@Z ; set_fixed_3d_object_database_item

; 1490 : 	set_fixed_3d_object_database_item (OBJECT_3D_Y_KEY_MILITARY_FC_DRUM, EXPLOSIVE_QUALITY_EXPLOSIVE, EXPLOSIVE_POWER_LOW, WARHEAD_EFFECTIVE_LIGHT_BUILDING, 10, 0.0, TARGET_TYPE_INVALID, TARGET_SYMBOL_UNKNOWN);

  000f7	6a 00		 push	 0
  000f9	6a 00		 push	 0
  000fb	51		 push	 ecx
  000fc	0f 57 c0	 xorps	 xmm0, xmm0
  000ff	f3 0f 11 04 24	 movss	 DWORD PTR [esp], xmm0
  00104	6a 0a		 push	 10			; 0000000aH
  00106	68 80 00 00 00	 push	 128			; 00000080H
  0010b	6a 01		 push	 1
  0010d	6a 02		 push	 2
  0010f	68 24 09 00 00	 push	 2340			; 00000924H
  00114	e8 00 00 00 00	 call	 ?set_fixed_3d_object_database_item@@YGXHHHHHMW4TARGET_TYPES@@W4TARGET_SYMBOL_TYPES@@@Z ; set_fixed_3d_object_database_item

; 1491 : }

  00119	5f		 pop	 edi
  0011a	5e		 pop	 esi
  0011b	5b		 pop	 ebx
  0011c	8b e5		 mov	 esp, ebp
  0011e	5d		 pop	 ebp
  0011f	c3		 ret	 0
?initialise_zero_importance_small_explosive_buildings@@YGXXZ ENDP ; initialise_zero_importance_small_explosive_buildings
_TEXT	ENDS
; Function compile flags: /Odtp /ZI
; File c:\users\nhv90\projects\eech\aphavoc\source\entity\fixed\fx_objdb.c
;	COMDAT ?initialise_zero_importance_medium_explosive_buildings@@YGXXZ
_TEXT	SEGMENT
?initialise_zero_importance_medium_explosive_buildings@@YGXXZ PROC ; initialise_zero_importance_medium_explosive_buildings, COMDAT

; 1445 : {

  00000	55		 push	 ebp
  00001	8b ec		 mov	 ebp, esp
  00003	83 ec 40	 sub	 esp, 64			; 00000040H
  00006	53		 push	 ebx
  00007	56		 push	 esi
  00008	57		 push	 edi

; 1446 : 	////////////////////////////////////////////////////////////////////////////////////
; 1447 : 	//
; 1448 : 	// ZERO IMPORTANCE MEDIUM EXPLOSIVE BUILDINGS
; 1449 : 	//
; 1450 : 	////////////////////////////////////////////////////////////////////////////////////
; 1451 : 
; 1452 : 	// VALID TARGETS
; 1453 : 
; 1454 : 	// INVALID TARGETS
; 1455 : 
; 1456 : 	set_fixed_3d_object_database_item (OBJECT_3D_OIL_DRUM, EXPLOSIVE_QUALITY_EXPLOSIVE, EXPLOSIVE_POWER_MEDIUM, WARHEAD_EFFECTIVE_LIGHT_BUILDING, 50, 0.0, TARGET_TYPE_INVALID, TARGET_SYMBOL_UNKNOWN);

  00009	6a 00		 push	 0
  0000b	6a 00		 push	 0
  0000d	51		 push	 ecx
  0000e	0f 57 c0	 xorps	 xmm0, xmm0
  00011	f3 0f 11 04 24	 movss	 DWORD PTR [esp], xmm0
  00016	6a 32		 push	 50			; 00000032H
  00018	68 80 00 00 00	 push	 128			; 00000080H
  0001d	6a 02		 push	 2
  0001f	6a 02		 push	 2
  00021	68 bd 00 00 00	 push	 189			; 000000bdH
  00026	e8 00 00 00 00	 call	 ?set_fixed_3d_object_database_item@@YGXHHHHHMW4TARGET_TYPES@@W4TARGET_SYMBOL_TYPES@@@Z ; set_fixed_3d_object_database_item

; 1457 : 	set_fixed_3d_object_database_item (OBJECT_3D_OIL_DRUMS_ON_PALETTE, EXPLOSIVE_QUALITY_EXPLOSIVE, EXPLOSIVE_POWER_MEDIUM, WARHEAD_EFFECTIVE_LIGHT_BUILDING, 50, 0.0, TARGET_TYPE_INVALID, TARGET_SYMBOL_UNKNOWN);

  0002b	6a 00		 push	 0
  0002d	6a 00		 push	 0
  0002f	51		 push	 ecx
  00030	0f 57 c0	 xorps	 xmm0, xmm0
  00033	f3 0f 11 04 24	 movss	 DWORD PTR [esp], xmm0
  00038	6a 32		 push	 50			; 00000032H
  0003a	68 80 00 00 00	 push	 128			; 00000080H
  0003f	6a 02		 push	 2
  00041	6a 02		 push	 2
  00043	68 be 00 00 00	 push	 190			; 000000beH
  00048	e8 00 00 00 00	 call	 ?set_fixed_3d_object_database_item@@YGXHHHHHMW4TARGET_TYPES@@W4TARGET_SYMBOL_TYPES@@@Z ; set_fixed_3d_object_database_item

; 1458 : 
; 1459 : 	set_fixed_3d_object_database_item (OBJECT_3D_PORTNW_FC_PIPES_CORNER_6X5, EXPLOSIVE_QUALITY_EXPLOSIVE, EXPLOSIVE_POWER_MEDIUM, WARHEAD_EFFECTIVE_LIGHT_BUILDING, 50, 0.0, TARGET_TYPE_INVALID, TARGET_SYMBOL_UNKNOWN);

  0004d	6a 00		 push	 0
  0004f	6a 00		 push	 0
  00051	51		 push	 ecx
  00052	0f 57 c0	 xorps	 xmm0, xmm0
  00055	f3 0f 11 04 24	 movss	 DWORD PTR [esp], xmm0
  0005a	6a 32		 push	 50			; 00000032H
  0005c	68 80 00 00 00	 push	 128			; 00000080H
  00061	6a 02		 push	 2
  00063	6a 02		 push	 2
  00065	68 d7 02 00 00	 push	 727			; 000002d7H
  0006a	e8 00 00 00 00	 call	 ?set_fixed_3d_object_database_item@@YGXHHHHHMW4TARGET_TYPES@@W4TARGET_SYMBOL_TYPES@@@Z ; set_fixed_3d_object_database_item

; 1460 : 	set_fixed_3d_object_database_item (OBJECT_3D_PORTNW_FC_PIPES_CORNER_7X5, EXPLOSIVE_QUALITY_EXPLOSIVE, EXPLOSIVE_POWER_MEDIUM, WARHEAD_EFFECTIVE_LIGHT_BUILDING, 50, 0.0, TARGET_TYPE_INVALID, TARGET_SYMBOL_UNKNOWN);

  0006f	6a 00		 push	 0
  00071	6a 00		 push	 0
  00073	51		 push	 ecx
  00074	0f 57 c0	 xorps	 xmm0, xmm0
  00077	f3 0f 11 04 24	 movss	 DWORD PTR [esp], xmm0
  0007c	6a 32		 push	 50			; 00000032H
  0007e	68 80 00 00 00	 push	 128			; 00000080H
  00083	6a 02		 push	 2
  00085	6a 02		 push	 2
  00087	68 d9 02 00 00	 push	 729			; 000002d9H
  0008c	e8 00 00 00 00	 call	 ?set_fixed_3d_object_database_item@@YGXHHHHHMW4TARGET_TYPES@@W4TARGET_SYMBOL_TYPES@@@Z ; set_fixed_3d_object_database_item

; 1461 : 	set_fixed_3d_object_database_item (OBJECT_3D_PORTNW_FC_PIPES_END, EXPLOSIVE_QUALITY_EXPLOSIVE, EXPLOSIVE_POWER_MEDIUM, WARHEAD_EFFECTIVE_LIGHT_BUILDING, 50, 0.0, TARGET_TYPE_INVALID, TARGET_SYMBOL_UNKNOWN);

  00091	6a 00		 push	 0
  00093	6a 00		 push	 0
  00095	51		 push	 ecx
  00096	0f 57 c0	 xorps	 xmm0, xmm0
  00099	f3 0f 11 04 24	 movss	 DWORD PTR [esp], xmm0
  0009e	6a 32		 push	 50			; 00000032H
  000a0	68 80 00 00 00	 push	 128			; 00000080H
  000a5	6a 02		 push	 2
  000a7	6a 02		 push	 2
  000a9	68 db 02 00 00	 push	 731			; 000002dbH
  000ae	e8 00 00 00 00	 call	 ?set_fixed_3d_object_database_item@@YGXHHHHHMW4TARGET_TYPES@@W4TARGET_SYMBOL_TYPES@@@Z ; set_fixed_3d_object_database_item

; 1462 : 	set_fixed_3d_object_database_item (OBJECT_3D_PORTNW_FC_PIPES_STRAIGHT, EXPLOSIVE_QUALITY_EXPLOSIVE, EXPLOSIVE_POWER_MEDIUM, WARHEAD_EFFECTIVE_LIGHT_BUILDING, 50, 0.0, TARGET_TYPE_INVALID, TARGET_SYMBOL_UNKNOWN);

  000b3	6a 00		 push	 0
  000b5	6a 00		 push	 0
  000b7	51		 push	 ecx
  000b8	0f 57 c0	 xorps	 xmm0, xmm0
  000bb	f3 0f 11 04 24	 movss	 DWORD PTR [esp], xmm0
  000c0	6a 32		 push	 50			; 00000032H
  000c2	68 80 00 00 00	 push	 128			; 00000080H
  000c7	6a 02		 push	 2
  000c9	6a 02		 push	 2
  000cb	68 dd 02 00 00	 push	 733			; 000002ddH
  000d0	e8 00 00 00 00	 call	 ?set_fixed_3d_object_database_item@@YGXHHHHHMW4TARGET_TYPES@@W4TARGET_SYMBOL_TYPES@@@Z ; set_fixed_3d_object_database_item

; 1463 : 	set_fixed_3d_object_database_item (OBJECT_3D_PORTNW_FC_PIPES_T, EXPLOSIVE_QUALITY_EXPLOSIVE, EXPLOSIVE_POWER_MEDIUM, WARHEAD_EFFECTIVE_LIGHT_BUILDING, 50, 0.0, TARGET_TYPE_INVALID, TARGET_SYMBOL_UNKNOWN);

  000d5	6a 00		 push	 0
  000d7	6a 00		 push	 0
  000d9	51		 push	 ecx
  000da	0f 57 c0	 xorps	 xmm0, xmm0
  000dd	f3 0f 11 04 24	 movss	 DWORD PTR [esp], xmm0
  000e2	6a 32		 push	 50			; 00000032H
  000e4	68 80 00 00 00	 push	 128			; 00000080H
  000e9	6a 02		 push	 2
  000eb	6a 02		 push	 2
  000ed	68 df 02 00 00	 push	 735			; 000002dfH
  000f2	e8 00 00 00 00	 call	 ?set_fixed_3d_object_database_item@@YGXHHHHHMW4TARGET_TYPES@@W4TARGET_SYMBOL_TYPES@@@Z ; set_fixed_3d_object_database_item

; 1464 : }

  000f7	5f		 pop	 edi
  000f8	5e		 pop	 esi
  000f9	5b		 pop	 ebx
  000fa	8b e5		 mov	 esp, ebp
  000fc	5d		 pop	 ebp
  000fd	c3		 ret	 0
?initialise_zero_importance_medium_explosive_buildings@@YGXXZ ENDP ; initialise_zero_importance_medium_explosive_buildings
_TEXT	ENDS
; Function compile flags: /Odtp /ZI
; File c:\users\nhv90\projects\eech\aphavoc\source\entity\fixed\fx_objdb.c
;	COMDAT ?initialise_zero_importance_high_explosive_buildings@@YGXXZ
_TEXT	SEGMENT
?initialise_zero_importance_high_explosive_buildings@@YGXXZ PROC ; initialise_zero_importance_high_explosive_buildings, COMDAT

; 1410 : {

  00000	55		 push	 ebp
  00001	8b ec		 mov	 ebp, esp
  00003	83 ec 40	 sub	 esp, 64			; 00000040H
  00006	53		 push	 ebx
  00007	56		 push	 esi
  00008	57		 push	 edi

; 1411 : 	////////////////////////////////////////////////////////////////////////////////////
; 1412 : 	//
; 1413 : 	// ZERO IMPORTANCE HIGH EXPLOSIVE BUILDINGS
; 1414 : 	//
; 1415 : 	////////////////////////////////////////////////////////////////////////////////////
; 1416 : 
; 1417 : 	// VALID TARGETS
; 1418 : 
; 1419 : 	// INVALID TARGETS
; 1420 : 
; 1421 : 	set_fixed_3d_object_database_item (OBJECT_3D_MILITARY_FC_SHED001_10M_8X3_1, EXPLOSIVE_QUALITY_EXPLOSIVE, EXPLOSIVE_POWER_HIGH, WARHEAD_EFFECTIVE_LIGHT_BUILDING, 800, 0.0, TARGET_TYPE_INVALID, TARGET_SYMBOL_UNKNOWN);

  00009	6a 00		 push	 0
  0000b	6a 00		 push	 0
  0000d	51		 push	 ecx
  0000e	0f 57 c0	 xorps	 xmm0, xmm0
  00011	f3 0f 11 04 24	 movss	 DWORD PTR [esp], xmm0
  00016	68 20 03 00 00	 push	 800			; 00000320H
  0001b	68 80 00 00 00	 push	 128			; 00000080H
  00020	6a 03		 push	 3
  00022	6a 02		 push	 2
  00024	68 a5 02 00 00	 push	 677			; 000002a5H
  00029	e8 00 00 00 00	 call	 ?set_fixed_3d_object_database_item@@YGXHHHHHMW4TARGET_TYPES@@W4TARGET_SYMBOL_TYPES@@@Z ; set_fixed_3d_object_database_item

; 1422 : 
; 1423 : 	set_fixed_3d_object_database_item (OBJECT_3D_KEY_PORT_FC_BARRELS001_10M_3X3, EXPLOSIVE_QUALITY_EXPLOSIVE, EXPLOSIVE_POWER_HIGH, WARHEAD_EFFECTIVE_LIGHT_BUILDING, 50, 0.0, TARGET_TYPE_INVALID, TARGET_SYMBOL_UNKNOWN);

  0002e	6a 00		 push	 0
  00030	6a 00		 push	 0
  00032	51		 push	 ecx
  00033	0f 57 c0	 xorps	 xmm0, xmm0
  00036	f3 0f 11 04 24	 movss	 DWORD PTR [esp], xmm0
  0003b	6a 32		 push	 50			; 00000032H
  0003d	68 80 00 00 00	 push	 128			; 00000080H
  00042	6a 03		 push	 3
  00044	6a 02		 push	 2
  00046	68 97 06 00 00	 push	 1687			; 00000697H
  0004b	e8 00 00 00 00	 call	 ?set_fixed_3d_object_database_item@@YGXHHHHHMW4TARGET_TYPES@@W4TARGET_SYMBOL_TYPES@@@Z ; set_fixed_3d_object_database_item

; 1424 : 
; 1425 : 	set_fixed_3d_object_database_item (OBJECT_3D_PORTNW_FC_BARRELS001_10M_3X3, EXPLOSIVE_QUALITY_EXPLOSIVE, EXPLOSIVE_POWER_HIGH, WARHEAD_EFFECTIVE_LIGHT_BUILDING, 50, 0.0, TARGET_TYPE_INVALID, TARGET_SYMBOL_UNKNOWN);

  00050	6a 00		 push	 0
  00052	6a 00		 push	 0
  00054	51		 push	 ecx
  00055	0f 57 c0	 xorps	 xmm0, xmm0
  00058	f3 0f 11 04 24	 movss	 DWORD PTR [esp], xmm0
  0005d	6a 32		 push	 50			; 00000032H
  0005f	68 80 00 00 00	 push	 128			; 00000080H
  00064	6a 03		 push	 3
  00066	6a 02		 push	 2
  00068	68 d3 02 00 00	 push	 723			; 000002d3H
  0006d	e8 00 00 00 00	 call	 ?set_fixed_3d_object_database_item@@YGXHHHHHMW4TARGET_TYPES@@W4TARGET_SYMBOL_TYPES@@@Z ; set_fixed_3d_object_database_item

; 1426 : 	set_fixed_3d_object_database_item (OBJECT_3D_PORTSE_FC_BARRELS001_10M_3X3, EXPLOSIVE_QUALITY_EXPLOSIVE, EXPLOSIVE_POWER_HIGH, WARHEAD_EFFECTIVE_LIGHT_BUILDING, 50, 0.0, TARGET_TYPE_INVALID, TARGET_SYMBOL_UNKNOWN);

  00072	6a 00		 push	 0
  00074	6a 00		 push	 0
  00076	51		 push	 ecx
  00077	0f 57 c0	 xorps	 xmm0, xmm0
  0007a	f3 0f 11 04 24	 movss	 DWORD PTR [esp], xmm0
  0007f	6a 32		 push	 50			; 00000032H
  00081	68 80 00 00 00	 push	 128			; 00000080H
  00086	6a 03		 push	 3
  00088	6a 02		 push	 2
  0008a	68 ed 02 00 00	 push	 749			; 000002edH
  0008f	e8 00 00 00 00	 call	 ?set_fixed_3d_object_database_item@@YGXHHHHHMW4TARGET_TYPES@@W4TARGET_SYMBOL_TYPES@@@Z ; set_fixed_3d_object_database_item

; 1427 : 	set_fixed_3d_object_database_item (OBJECT_3D_PORTNW_FC_TANKGROUP002_10M_4X4, EXPLOSIVE_QUALITY_EXPLOSIVE, EXPLOSIVE_POWER_HIGH, WARHEAD_EFFECTIVE_LIGHT_BUILDING, 200, 0.0, TARGET_TYPE_INVALID, TARGET_SYMBOL_UNKNOWN);

  00094	6a 00		 push	 0
  00096	6a 00		 push	 0
  00098	51		 push	 ecx
  00099	0f 57 c0	 xorps	 xmm0, xmm0
  0009c	f3 0f 11 04 24	 movss	 DWORD PTR [esp], xmm0
  000a1	68 c8 00 00 00	 push	 200			; 000000c8H
  000a6	68 80 00 00 00	 push	 128			; 00000080H
  000ab	6a 03		 push	 3
  000ad	6a 02		 push	 2
  000af	68 eb 02 00 00	 push	 747			; 000002ebH
  000b4	e8 00 00 00 00	 call	 ?set_fixed_3d_object_database_item@@YGXHHHHHMW4TARGET_TYPES@@W4TARGET_SYMBOL_TYPES@@@Z ; set_fixed_3d_object_database_item

; 1428 : 	set_fixed_3d_object_database_item (OBJECT_3D_PORTSE_FC_TANKGROUP002_10M_4X4, EXPLOSIVE_QUALITY_EXPLOSIVE, EXPLOSIVE_POWER_HIGH, WARHEAD_EFFECTIVE_LIGHT_BUILDING, 200, 0.0, TARGET_TYPE_INVALID, TARGET_SYMBOL_UNKNOWN);

  000b9	6a 00		 push	 0
  000bb	6a 00		 push	 0
  000bd	51		 push	 ecx
  000be	0f 57 c0	 xorps	 xmm0, xmm0
  000c1	f3 0f 11 04 24	 movss	 DWORD PTR [esp], xmm0
  000c6	68 c8 00 00 00	 push	 200			; 000000c8H
  000cb	68 80 00 00 00	 push	 128			; 00000080H
  000d0	6a 03		 push	 3
  000d2	6a 02		 push	 2
  000d4	68 f9 02 00 00	 push	 761			; 000002f9H
  000d9	e8 00 00 00 00	 call	 ?set_fixed_3d_object_database_item@@YGXHHHHHMW4TARGET_TYPES@@W4TARGET_SYMBOL_TYPES@@@Z ; set_fixed_3d_object_database_item

; 1429 : 	set_fixed_3d_object_database_item (OBJECT_3D_PORTNW_FC_TANKGROUP001_10M_10X10, EXPLOSIVE_QUALITY_EXPLOSIVE, EXPLOSIVE_POWER_HIGH, WARHEAD_EFFECTIVE_LIGHT_BUILDING, 200, 0.0, TARGET_TYPE_INVALID, TARGET_SYMBOL_UNKNOWN);

  000de	6a 00		 push	 0
  000e0	6a 00		 push	 0
  000e2	51		 push	 ecx
  000e3	0f 57 c0	 xorps	 xmm0, xmm0
  000e6	f3 0f 11 04 24	 movss	 DWORD PTR [esp], xmm0
  000eb	68 c8 00 00 00	 push	 200			; 000000c8H
  000f0	68 80 00 00 00	 push	 128			; 00000080H
  000f5	6a 03		 push	 3
  000f7	6a 02		 push	 2
  000f9	68 e9 02 00 00	 push	 745			; 000002e9H
  000fe	e8 00 00 00 00	 call	 ?set_fixed_3d_object_database_item@@YGXHHHHHMW4TARGET_TYPES@@W4TARGET_SYMBOL_TYPES@@@Z ; set_fixed_3d_object_database_item

; 1430 : 
; 1431 : 	set_fixed_3d_object_database_item (OBJECT_3D_LEBANON_KEY_OIL_FC_BARRELS001_10M_3X3, EXPLOSIVE_QUALITY_EXPLOSIVE, EXPLOSIVE_POWER_HIGH, WARHEAD_EFFECTIVE_LIGHT_BUILDING, 50, 0.0, TARGET_TYPE_INVALID, TARGET_SYMBOL_UNKNOWN);

  00103	6a 00		 push	 0
  00105	6a 00		 push	 0
  00107	51		 push	 ecx
  00108	0f 57 c0	 xorps	 xmm0, xmm0
  0010b	f3 0f 11 04 24	 movss	 DWORD PTR [esp], xmm0
  00110	6a 32		 push	 50			; 00000032H
  00112	68 80 00 00 00	 push	 128			; 00000080H
  00117	6a 03		 push	 3
  00119	6a 02		 push	 2
  0011b	68 47 06 00 00	 push	 1607			; 00000647H
  00120	e8 00 00 00 00	 call	 ?set_fixed_3d_object_database_item@@YGXHHHHHMW4TARGET_TYPES@@W4TARGET_SYMBOL_TYPES@@@Z ; set_fixed_3d_object_database_item

; 1432 : 
; 1433 : 	set_fixed_3d_object_database_item (OBJECT_3D_LEBANON_KEY_INDUSTRY_FC_BARRELS001_10M_3X3, EXPLOSIVE_QUALITY_EXPLOSIVE, EXPLOSIVE_POWER_HIGH, WARHEAD_EFFECTIVE_LIGHT_BUILDING, 50, 0.0, TARGET_TYPE_INVALID, TARGET_SYMBOL_UNKNOWN);

  00125	6a 00		 push	 0
  00127	6a 00		 push	 0
  00129	51		 push	 ecx
  0012a	0f 57 c0	 xorps	 xmm0, xmm0
  0012d	f3 0f 11 04 24	 movss	 DWORD PTR [esp], xmm0
  00132	6a 32		 push	 50			; 00000032H
  00134	68 80 00 00 00	 push	 128			; 00000080H
  00139	6a 03		 push	 3
  0013b	6a 02		 push	 2
  0013d	68 d4 05 00 00	 push	 1492			; 000005d4H
  00142	e8 00 00 00 00	 call	 ?set_fixed_3d_object_database_item@@YGXHHHHHMW4TARGET_TYPES@@W4TARGET_SYMBOL_TYPES@@@Z ; set_fixed_3d_object_database_item

; 1434 : 
; 1435 : 	set_fixed_3d_object_database_item (OBJECT_3D_YEMEN_KEY_OIL_FC_BARRELS001_10M_3X3, EXPLOSIVE_QUALITY_EXPLOSIVE, EXPLOSIVE_POWER_HIGH, WARHEAD_EFFECTIVE_LIGHT_BUILDING, 50, 0.0, TARGET_TYPE_INVALID, TARGET_SYMBOL_UNKNOWN);

  00147	6a 00		 push	 0
  00149	6a 00		 push	 0
  0014b	51		 push	 ecx
  0014c	0f 57 c0	 xorps	 xmm0, xmm0
  0014f	f3 0f 11 04 24	 movss	 DWORD PTR [esp], xmm0
  00154	6a 32		 push	 50			; 00000032H
  00156	68 80 00 00 00	 push	 128			; 00000080H
  0015b	6a 03		 push	 3
  0015d	6a 02		 push	 2
  0015f	68 41 09 00 00	 push	 2369			; 00000941H
  00164	e8 00 00 00 00	 call	 ?set_fixed_3d_object_database_item@@YGXHHHHHMW4TARGET_TYPES@@W4TARGET_SYMBOL_TYPES@@@Z ; set_fixed_3d_object_database_item

; 1436 : 
; 1437 : 	set_fixed_3d_object_database_item (OBJECT_3D_TAIWAN_KEY_OIL_FC_BARRELS001_10M_3X3, EXPLOSIVE_QUALITY_EXPLOSIVE, EXPLOSIVE_POWER_HIGH, WARHEAD_EFFECTIVE_LIGHT_BUILDING, 50, 0.0, TARGET_TYPE_INVALID, TARGET_SYMBOL_UNKNOWN);

  00169	6a 00		 push	 0
  0016b	6a 00		 push	 0
  0016d	51		 push	 ecx
  0016e	0f 57 c0	 xorps	 xmm0, xmm0
  00171	f3 0f 11 04 24	 movss	 DWORD PTR [esp], xmm0
  00176	6a 32		 push	 50			; 00000032H
  00178	68 80 00 00 00	 push	 128			; 00000080H
  0017d	6a 03		 push	 3
  0017f	6a 02		 push	 2
  00181	68 35 08 00 00	 push	 2101			; 00000835H
  00186	e8 00 00 00 00	 call	 ?set_fixed_3d_object_database_item@@YGXHHHHHMW4TARGET_TYPES@@W4TARGET_SYMBOL_TYPES@@@Z ; set_fixed_3d_object_database_item

; 1438 : }

  0018b	5f		 pop	 edi
  0018c	5e		 pop	 esi
  0018d	5b		 pop	 ebx
  0018e	8b e5		 mov	 esp, ebp
  00190	5d		 pop	 ebp
  00191	c3		 ret	 0
?initialise_zero_importance_high_explosive_buildings@@YGXXZ ENDP ; initialise_zero_importance_high_explosive_buildings
_TEXT	ENDS
; Function compile flags: /Odtp /ZI
; File c:\users\nhv90\projects\eech\aphavoc\source\entity\fixed\fx_objdb.c
;	COMDAT ?initialise_zero_importance_small_stone_buildings@@YGXXZ
_TEXT	SEGMENT
?initialise_zero_importance_small_stone_buildings@@YGXXZ PROC ; initialise_zero_importance_small_stone_buildings, COMDAT

; 1279 : {

  00000	55		 push	 ebp
  00001	8b ec		 mov	 ebp, esp
  00003	83 ec 40	 sub	 esp, 64			; 00000040H
  00006	53		 push	 ebx
  00007	56		 push	 esi
  00008	57		 push	 edi

; 1280 : 	////////////////////////////////////////////////////////////////////////////////////
; 1281 : 	//
; 1282 : 	// ZERO IMPORTANCE SMALL STONE BUILDINGS
; 1283 : 	//
; 1284 : 	////////////////////////////////////////////////////////////////////////////////////
; 1285 : 
; 1286 : 	// VALID TARGETS
; 1287 : 
; 1288 : 	// INVALID TARGETS
; 1289 : 
; 1290 : 	set_fixed_3d_object_database_item (OBJECT_3D_AMERICAN_SHED01, EXPLOSIVE_QUALITY_DUST, EXPLOSIVE_POWER_LOW, WARHEAD_EFFECTIVE_STONE_BUILDING, 500, 0.0, TARGET_TYPE_INVALID, TARGET_SYMBOL_UNKNOWN);

  00009	6a 00		 push	 0
  0000b	6a 00		 push	 0
  0000d	51		 push	 ecx
  0000e	0f 57 c0	 xorps	 xmm0, xmm0
  00011	f3 0f 11 04 24	 movss	 DWORD PTR [esp], xmm0
  00016	68 f4 01 00 00	 push	 500			; 000001f4H
  0001b	68 00 01 00 00	 push	 256			; 00000100H
  00020	6a 01		 push	 1
  00022	6a 01		 push	 1
  00024	68 85 00 00 00	 push	 133			; 00000085H
  00029	e8 00 00 00 00	 call	 ?set_fixed_3d_object_database_item@@YGXHHHHHMW4TARGET_TYPES@@W4TARGET_SYMBOL_TYPES@@@Z ; set_fixed_3d_object_database_item

; 1291 : 
; 1292 : 	set_fixed_3d_object_database_item (OBJECT_3D_RUSSIAN_SHED01, EXPLOSIVE_QUALITY_DUST, EXPLOSIVE_POWER_LOW, WARHEAD_EFFECTIVE_STONE_BUILDING, 500, 0.0, TARGET_TYPE_INVALID, TARGET_SYMBOL_UNKNOWN);

  0002e	6a 00		 push	 0
  00030	6a 00		 push	 0
  00032	51		 push	 ecx
  00033	0f 57 c0	 xorps	 xmm0, xmm0
  00036	f3 0f 11 04 24	 movss	 DWORD PTR [esp], xmm0
  0003b	68 f4 01 00 00	 push	 500			; 000001f4H
  00040	68 00 01 00 00	 push	 256			; 00000100H
  00045	6a 01		 push	 1
  00047	6a 01		 push	 1
  00049	68 1a 01 00 00	 push	 282			; 0000011aH
  0004e	e8 00 00 00 00	 call	 ?set_fixed_3d_object_database_item@@YGXHHHHHMW4TARGET_TYPES@@W4TARGET_SYMBOL_TYPES@@@Z ; set_fixed_3d_object_database_item

; 1293 : 	set_fixed_3d_object_database_item (OBJECT_3D_RUSSIAN_SHED02, EXPLOSIVE_QUALITY_DUST, EXPLOSIVE_POWER_LOW, WARHEAD_EFFECTIVE_STONE_BUILDING, 500, 0.0, TARGET_TYPE_INVALID, TARGET_SYMBOL_UNKNOWN);

  00053	6a 00		 push	 0
  00055	6a 00		 push	 0
  00057	51		 push	 ecx
  00058	0f 57 c0	 xorps	 xmm0, xmm0
  0005b	f3 0f 11 04 24	 movss	 DWORD PTR [esp], xmm0
  00060	68 f4 01 00 00	 push	 500			; 000001f4H
  00065	68 00 01 00 00	 push	 256			; 00000100H
  0006a	6a 01		 push	 1
  0006c	6a 01		 push	 1
  0006e	68 1c 01 00 00	 push	 284			; 0000011cH
  00073	e8 00 00 00 00	 call	 ?set_fixed_3d_object_database_item@@YGXHHHHHMW4TARGET_TYPES@@W4TARGET_SYMBOL_TYPES@@@Z ; set_fixed_3d_object_database_item

; 1294 : 
; 1295 : 	set_fixed_3d_object_database_item (OBJECT_3D_HOUSING_FC_SMALLHOLD001_5M, EXPLOSIVE_QUALITY_DUST, EXPLOSIVE_POWER_LOW, WARHEAD_EFFECTIVE_STONE_BUILDING, 500, 0.0, TARGET_TYPE_INVALID, TARGET_SYMBOL_UNKNOWN);

  00078	6a 00		 push	 0
  0007a	6a 00		 push	 0
  0007c	51		 push	 ecx
  0007d	0f 57 c0	 xorps	 xmm0, xmm0
  00080	f3 0f 11 04 24	 movss	 DWORD PTR [esp], xmm0
  00085	68 f4 01 00 00	 push	 500			; 000001f4H
  0008a	68 00 01 00 00	 push	 256			; 00000100H
  0008f	6a 01		 push	 1
  00091	6a 01		 push	 1
  00093	68 0c 02 00 00	 push	 524			; 0000020cH
  00098	e8 00 00 00 00	 call	 ?set_fixed_3d_object_database_item@@YGXHHHHHMW4TARGET_TYPES@@W4TARGET_SYMBOL_TYPES@@@Z ; set_fixed_3d_object_database_item

; 1296 : 	set_fixed_3d_object_database_item (OBJECT_3D_HOUSING_FC_SMALLHOLD002_5M, EXPLOSIVE_QUALITY_DUST, EXPLOSIVE_POWER_LOW, WARHEAD_EFFECTIVE_STONE_BUILDING, 500, 0.0, TARGET_TYPE_INVALID, TARGET_SYMBOL_UNKNOWN);

  0009d	6a 00		 push	 0
  0009f	6a 00		 push	 0
  000a1	51		 push	 ecx
  000a2	0f 57 c0	 xorps	 xmm0, xmm0
  000a5	f3 0f 11 04 24	 movss	 DWORD PTR [esp], xmm0
  000aa	68 f4 01 00 00	 push	 500			; 000001f4H
  000af	68 00 01 00 00	 push	 256			; 00000100H
  000b4	6a 01		 push	 1
  000b6	6a 01		 push	 1
  000b8	68 0e 02 00 00	 push	 526			; 0000020eH
  000bd	e8 00 00 00 00	 call	 ?set_fixed_3d_object_database_item@@YGXHHHHHMW4TARGET_TYPES@@W4TARGET_SYMBOL_TYPES@@@Z ; set_fixed_3d_object_database_item

; 1297 : 	set_fixed_3d_object_database_item (OBJECT_3D_HOUSING_FC_SMALLHOLD003_5M, EXPLOSIVE_QUALITY_DUST, EXPLOSIVE_POWER_LOW, WARHEAD_EFFECTIVE_STONE_BUILDING, 500, 0.0, TARGET_TYPE_INVALID, TARGET_SYMBOL_UNKNOWN);

  000c2	6a 00		 push	 0
  000c4	6a 00		 push	 0
  000c6	51		 push	 ecx
  000c7	0f 57 c0	 xorps	 xmm0, xmm0
  000ca	f3 0f 11 04 24	 movss	 DWORD PTR [esp], xmm0
  000cf	68 f4 01 00 00	 push	 500			; 000001f4H
  000d4	68 00 01 00 00	 push	 256			; 00000100H
  000d9	6a 01		 push	 1
  000db	6a 01		 push	 1
  000dd	68 10 02 00 00	 push	 528			; 00000210H
  000e2	e8 00 00 00 00	 call	 ?set_fixed_3d_object_database_item@@YGXHHHHHMW4TARGET_TYPES@@W4TARGET_SYMBOL_TYPES@@@Z ; set_fixed_3d_object_database_item

; 1298 : 	set_fixed_3d_object_database_item (OBJECT_3D_HOUSING_FC_SMALLHOLD004_5M, EXPLOSIVE_QUALITY_DUST, EXPLOSIVE_POWER_LOW, WARHEAD_EFFECTIVE_STONE_BUILDING, 500, 0.0, TARGET_TYPE_INVALID, TARGET_SYMBOL_UNKNOWN);

  000e7	6a 00		 push	 0
  000e9	6a 00		 push	 0
  000eb	51		 push	 ecx
  000ec	0f 57 c0	 xorps	 xmm0, xmm0
  000ef	f3 0f 11 04 24	 movss	 DWORD PTR [esp], xmm0
  000f4	68 f4 01 00 00	 push	 500			; 000001f4H
  000f9	68 00 01 00 00	 push	 256			; 00000100H
  000fe	6a 01		 push	 1
  00100	6a 01		 push	 1
  00102	68 12 02 00 00	 push	 530			; 00000212H
  00107	e8 00 00 00 00	 call	 ?set_fixed_3d_object_database_item@@YGXHHHHHMW4TARGET_TYPES@@W4TARGET_SYMBOL_TYPES@@@Z ; set_fixed_3d_object_database_item

; 1299 : 	set_fixed_3d_object_database_item (OBJECT_3D_HOUSING_FC_SMALLHOLD005_5M, EXPLOSIVE_QUALITY_DUST, EXPLOSIVE_POWER_LOW, WARHEAD_EFFECTIVE_STONE_BUILDING, 500, 0.0, TARGET_TYPE_INVALID, TARGET_SYMBOL_UNKNOWN);

  0010c	6a 00		 push	 0
  0010e	6a 00		 push	 0
  00110	51		 push	 ecx
  00111	0f 57 c0	 xorps	 xmm0, xmm0
  00114	f3 0f 11 04 24	 movss	 DWORD PTR [esp], xmm0
  00119	68 f4 01 00 00	 push	 500			; 000001f4H
  0011e	68 00 01 00 00	 push	 256			; 00000100H
  00123	6a 01		 push	 1
  00125	6a 01		 push	 1
  00127	68 14 02 00 00	 push	 532			; 00000214H
  0012c	e8 00 00 00 00	 call	 ?set_fixed_3d_object_database_item@@YGXHHHHHMW4TARGET_TYPES@@W4TARGET_SYMBOL_TYPES@@@Z ; set_fixed_3d_object_database_item

; 1300 : 
; 1301 : 	set_fixed_3d_object_database_item (OBJECT_3D_HOUSING_FC_VERANDA001_10M, EXPLOSIVE_QUALITY_DUST, EXPLOSIVE_POWER_LOW, WARHEAD_EFFECTIVE_STONE_BUILDING, 500, 0.0, TARGET_TYPE_INVALID, TARGET_SYMBOL_UNKNOWN);

  00131	6a 00		 push	 0
  00133	6a 00		 push	 0
  00135	51		 push	 ecx
  00136	0f 57 c0	 xorps	 xmm0, xmm0
  00139	f3 0f 11 04 24	 movss	 DWORD PTR [esp], xmm0
  0013e	68 f4 01 00 00	 push	 500			; 000001f4H
  00143	68 00 01 00 00	 push	 256			; 00000100H
  00148	6a 01		 push	 1
  0014a	6a 01		 push	 1
  0014c	68 2a 02 00 00	 push	 554			; 0000022aH
  00151	e8 00 00 00 00	 call	 ?set_fixed_3d_object_database_item@@YGXHHHHHMW4TARGET_TYPES@@W4TARGET_SYMBOL_TYPES@@@Z ; set_fixed_3d_object_database_item

; 1302 : 	set_fixed_3d_object_database_item (OBJECT_3D_HOUSING_FC_VERANDA002_10M, EXPLOSIVE_QUALITY_DUST, EXPLOSIVE_POWER_LOW, WARHEAD_EFFECTIVE_STONE_BUILDING, 500, 0.0, TARGET_TYPE_INVALID, TARGET_SYMBOL_UNKNOWN);

  00156	6a 00		 push	 0
  00158	6a 00		 push	 0
  0015a	51		 push	 ecx
  0015b	0f 57 c0	 xorps	 xmm0, xmm0
  0015e	f3 0f 11 04 24	 movss	 DWORD PTR [esp], xmm0
  00163	68 f4 01 00 00	 push	 500			; 000001f4H
  00168	68 00 01 00 00	 push	 256			; 00000100H
  0016d	6a 01		 push	 1
  0016f	6a 01		 push	 1
  00171	68 2c 02 00 00	 push	 556			; 0000022cH
  00176	e8 00 00 00 00	 call	 ?set_fixed_3d_object_database_item@@YGXHHHHHMW4TARGET_TYPES@@W4TARGET_SYMBOL_TYPES@@@Z ; set_fixed_3d_object_database_item

; 1303 : 	set_fixed_3d_object_database_item (OBJECT_3D_HOUSING_FC_VERANDA003_6M, EXPLOSIVE_QUALITY_DUST, EXPLOSIVE_POWER_LOW, WARHEAD_EFFECTIVE_STONE_BUILDING, 500, 0.0, TARGET_TYPE_INVALID, TARGET_SYMBOL_UNKNOWN);

  0017b	6a 00		 push	 0
  0017d	6a 00		 push	 0
  0017f	51		 push	 ecx
  00180	0f 57 c0	 xorps	 xmm0, xmm0
  00183	f3 0f 11 04 24	 movss	 DWORD PTR [esp], xmm0
  00188	68 f4 01 00 00	 push	 500			; 000001f4H
  0018d	68 00 01 00 00	 push	 256			; 00000100H
  00192	6a 01		 push	 1
  00194	6a 01		 push	 1
  00196	68 2e 02 00 00	 push	 558			; 0000022eH
  0019b	e8 00 00 00 00	 call	 ?set_fixed_3d_object_database_item@@YGXHHHHHMW4TARGET_TYPES@@W4TARGET_SYMBOL_TYPES@@@Z ; set_fixed_3d_object_database_item

; 1304 : 
; 1305 : 	set_fixed_3d_object_database_item (OBJECT_3D_INDUSTRY_FC_SHED003_5M, EXPLOSIVE_QUALITY_DUST, EXPLOSIVE_POWER_LOW, WARHEAD_EFFECTIVE_STONE_BUILDING, 500, 0.0, TARGET_TYPE_INVALID, TARGET_SYMBOL_UNKNOWN);

  001a0	6a 00		 push	 0
  001a2	6a 00		 push	 0
  001a4	51		 push	 ecx
  001a5	0f 57 c0	 xorps	 xmm0, xmm0
  001a8	f3 0f 11 04 24	 movss	 DWORD PTR [esp], xmm0
  001ad	68 f4 01 00 00	 push	 500			; 000001f4H
  001b2	68 00 01 00 00	 push	 256			; 00000100H
  001b7	6a 01		 push	 1
  001b9	6a 01		 push	 1
  001bb	68 5a 02 00 00	 push	 602			; 0000025aH
  001c0	e8 00 00 00 00	 call	 ?set_fixed_3d_object_database_item@@YGXHHHHHMW4TARGET_TYPES@@W4TARGET_SYMBOL_TYPES@@@Z ; set_fixed_3d_object_database_item

; 1306 : 
; 1307 : 	set_fixed_3d_object_database_item (OBJECT_3D_OUTSKIRTS_FC_FARMHOUSE001_9M, EXPLOSIVE_QUALITY_DUST, EXPLOSIVE_POWER_LOW, WARHEAD_EFFECTIVE_STONE_BUILDING, 500, 0.0, TARGET_TYPE_INVALID, TARGET_SYMBOL_UNKNOWN);

  001c5	6a 00		 push	 0
  001c7	6a 00		 push	 0
  001c9	51		 push	 ecx
  001ca	0f 57 c0	 xorps	 xmm0, xmm0
  001cd	f3 0f 11 04 24	 movss	 DWORD PTR [esp], xmm0
  001d2	68 f4 01 00 00	 push	 500			; 000001f4H
  001d7	68 00 01 00 00	 push	 256			; 00000100H
  001dc	6a 01		 push	 1
  001de	6a 01		 push	 1
  001e0	68 bf 02 00 00	 push	 703			; 000002bfH
  001e5	e8 00 00 00 00	 call	 ?set_fixed_3d_object_database_item@@YGXHHHHHMW4TARGET_TYPES@@W4TARGET_SYMBOL_TYPES@@@Z ; set_fixed_3d_object_database_item

; 1308 : 	set_fixed_3d_object_database_item (OBJECT_3D_OUTSKIRTS_FC_FARMHOUSE002_9M, EXPLOSIVE_QUALITY_DUST, EXPLOSIVE_POWER_LOW, WARHEAD_EFFECTIVE_STONE_BUILDING, 500, 0.0, TARGET_TYPE_INVALID, TARGET_SYMBOL_UNKNOWN);

  001ea	6a 00		 push	 0
  001ec	6a 00		 push	 0
  001ee	51		 push	 ecx
  001ef	0f 57 c0	 xorps	 xmm0, xmm0
  001f2	f3 0f 11 04 24	 movss	 DWORD PTR [esp], xmm0
  001f7	68 f4 01 00 00	 push	 500			; 000001f4H
  001fc	68 00 01 00 00	 push	 256			; 00000100H
  00201	6a 01		 push	 1
  00203	6a 01		 push	 1
  00205	68 c1 02 00 00	 push	 705			; 000002c1H
  0020a	e8 00 00 00 00	 call	 ?set_fixed_3d_object_database_item@@YGXHHHHHMW4TARGET_TYPES@@W4TARGET_SYMBOL_TYPES@@@Z ; set_fixed_3d_object_database_item

; 1309 : 	set_fixed_3d_object_database_item (OBJECT_3D_OUTSKIRTS_FC_STUCCO_VILLA002_6M, EXPLOSIVE_QUALITY_DUST, EXPLOSIVE_POWER_LOW, WARHEAD_EFFECTIVE_STONE_BUILDING, 500, 0.0, TARGET_TYPE_INVALID, TARGET_SYMBOL_UNKNOWN);

  0020f	6a 00		 push	 0
  00211	6a 00		 push	 0
  00213	51		 push	 ecx
  00214	0f 57 c0	 xorps	 xmm0, xmm0
  00217	f3 0f 11 04 24	 movss	 DWORD PTR [esp], xmm0
  0021c	68 f4 01 00 00	 push	 500			; 000001f4H
  00221	68 00 01 00 00	 push	 256			; 00000100H
  00226	6a 01		 push	 1
  00228	6a 01		 push	 1
  0022a	68 c3 02 00 00	 push	 707			; 000002c3H
  0022f	e8 00 00 00 00	 call	 ?set_fixed_3d_object_database_item@@YGXHHHHHMW4TARGET_TYPES@@W4TARGET_SYMBOL_TYPES@@@Z ; set_fixed_3d_object_database_item

; 1310 : 	set_fixed_3d_object_database_item (OBJECT_3D_OUTSKIRTS_FC_STUCCO_VILLA005_6M, EXPLOSIVE_QUALITY_DUST, EXPLOSIVE_POWER_LOW, WARHEAD_EFFECTIVE_STONE_BUILDING, 500, 0.0, TARGET_TYPE_INVALID, TARGET_SYMBOL_UNKNOWN);

  00234	6a 00		 push	 0
  00236	6a 00		 push	 0
  00238	51		 push	 ecx
  00239	0f 57 c0	 xorps	 xmm0, xmm0
  0023c	f3 0f 11 04 24	 movss	 DWORD PTR [esp], xmm0
  00241	68 f4 01 00 00	 push	 500			; 000001f4H
  00246	68 00 01 00 00	 push	 256			; 00000100H
  0024b	6a 01		 push	 1
  0024d	6a 01		 push	 1
  0024f	68 c5 02 00 00	 push	 709			; 000002c5H
  00254	e8 00 00 00 00	 call	 ?set_fixed_3d_object_database_item@@YGXHHHHHMW4TARGET_TYPES@@W4TARGET_SYMBOL_TYPES@@@Z ; set_fixed_3d_object_database_item

; 1311 : 	set_fixed_3d_object_database_item (OBJECT_3D_OUTSKIRTS_FC_STUCCO_VILLA006_6M, EXPLOSIVE_QUALITY_DUST, EXPLOSIVE_POWER_LOW, WARHEAD_EFFECTIVE_STONE_BUILDING, 500, 0.0, TARGET_TYPE_INVALID, TARGET_SYMBOL_UNKNOWN);

  00259	6a 00		 push	 0
  0025b	6a 00		 push	 0
  0025d	51		 push	 ecx
  0025e	0f 57 c0	 xorps	 xmm0, xmm0
  00261	f3 0f 11 04 24	 movss	 DWORD PTR [esp], xmm0
  00266	68 f4 01 00 00	 push	 500			; 000001f4H
  0026b	68 00 01 00 00	 push	 256			; 00000100H
  00270	6a 01		 push	 1
  00272	6a 01		 push	 1
  00274	68 c7 02 00 00	 push	 711			; 000002c7H
  00279	e8 00 00 00 00	 call	 ?set_fixed_3d_object_database_item@@YGXHHHHHMW4TARGET_TYPES@@W4TARGET_SYMBOL_TYPES@@@Z ; set_fixed_3d_object_database_item

; 1312 : 	set_fixed_3d_object_database_item (OBJECT_3D_OUTSKIRTS_FC_VERANDA001_6M, EXPLOSIVE_QUALITY_DUST, EXPLOSIVE_POWER_LOW, WARHEAD_EFFECTIVE_STONE_BUILDING, 500, 0.0, TARGET_TYPE_INVALID, TARGET_SYMBOL_UNKNOWN);

  0027e	6a 00		 push	 0
  00280	6a 00		 push	 0
  00282	51		 push	 ecx
  00283	0f 57 c0	 xorps	 xmm0, xmm0
  00286	f3 0f 11 04 24	 movss	 DWORD PTR [esp], xmm0
  0028b	68 f4 01 00 00	 push	 500			; 000001f4H
  00290	68 00 01 00 00	 push	 256			; 00000100H
  00295	6a 01		 push	 1
  00297	6a 01		 push	 1
  00299	68 c9 02 00 00	 push	 713			; 000002c9H
  0029e	e8 00 00 00 00	 call	 ?set_fixed_3d_object_database_item@@YGXHHHHHMW4TARGET_TYPES@@W4TARGET_SYMBOL_TYPES@@@Z ; set_fixed_3d_object_database_item

; 1313 : 	set_fixed_3d_object_database_item (OBJECT_3D_OUTSKIRTS_FC_VERANDA002_6M, EXPLOSIVE_QUALITY_DUST, EXPLOSIVE_POWER_LOW, WARHEAD_EFFECTIVE_STONE_BUILDING, 500, 0.0, TARGET_TYPE_INVALID, TARGET_SYMBOL_UNKNOWN);

  002a3	6a 00		 push	 0
  002a5	6a 00		 push	 0
  002a7	51		 push	 ecx
  002a8	0f 57 c0	 xorps	 xmm0, xmm0
  002ab	f3 0f 11 04 24	 movss	 DWORD PTR [esp], xmm0
  002b0	68 f4 01 00 00	 push	 500			; 000001f4H
  002b5	68 00 01 00 00	 push	 256			; 00000100H
  002ba	6a 01		 push	 1
  002bc	6a 01		 push	 1
  002be	68 cb 02 00 00	 push	 715			; 000002cbH
  002c3	e8 00 00 00 00	 call	 ?set_fixed_3d_object_database_item@@YGXHHHHHMW4TARGET_TYPES@@W4TARGET_SYMBOL_TYPES@@@Z ; set_fixed_3d_object_database_item

; 1314 : 
; 1315 : 	set_fixed_3d_object_database_item (OBJECT_3D_PORTNW_FC_CRANE001_40M_1X2, EXPLOSIVE_QUALITY_DUST, EXPLOSIVE_POWER_LOW, WARHEAD_EFFECTIVE_STONE_BUILDING, 500, 0.0, TARGET_TYPE_INVALID, TARGET_SYMBOL_UNKNOWN);

  002c8	6a 00		 push	 0
  002ca	6a 00		 push	 0
  002cc	51		 push	 ecx
  002cd	0f 57 c0	 xorps	 xmm0, xmm0
  002d0	f3 0f 11 04 24	 movss	 DWORD PTR [esp], xmm0
  002d5	68 f4 01 00 00	 push	 500			; 000001f4H
  002da	68 00 01 00 00	 push	 256			; 00000100H
  002df	6a 01		 push	 1
  002e1	6a 01		 push	 1
  002e3	68 d5 02 00 00	 push	 725			; 000002d5H
  002e8	e8 00 00 00 00	 call	 ?set_fixed_3d_object_database_item@@YGXHHHHHMW4TARGET_TYPES@@W4TARGET_SYMBOL_TYPES@@@Z ; set_fixed_3d_object_database_item

; 1316 : 	set_fixed_3d_object_database_item (OBJECT_3D_PORTSE_FC_CRANE001_40M_1X2, EXPLOSIVE_QUALITY_DUST, EXPLOSIVE_POWER_LOW, WARHEAD_EFFECTIVE_STONE_BUILDING, 500, 0.0, TARGET_TYPE_INVALID, TARGET_SYMBOL_UNKNOWN);

  002ed	6a 00		 push	 0
  002ef	6a 00		 push	 0
  002f1	51		 push	 ecx
  002f2	0f 57 c0	 xorps	 xmm0, xmm0
  002f5	f3 0f 11 04 24	 movss	 DWORD PTR [esp], xmm0
  002fa	68 f4 01 00 00	 push	 500			; 000001f4H
  002ff	68 00 01 00 00	 push	 256			; 00000100H
  00304	6a 01		 push	 1
  00306	6a 01		 push	 1
  00308	68 ef 02 00 00	 push	 751			; 000002efH
  0030d	e8 00 00 00 00	 call	 ?set_fixed_3d_object_database_item@@YGXHHHHHMW4TARGET_TYPES@@W4TARGET_SYMBOL_TYPES@@@Z ; set_fixed_3d_object_database_item

; 1317 : 
; 1318 : 	set_fixed_3d_object_database_item (OBJECT_3D_THAI_HOUSING_FC_COMP1X1_4, EXPLOSIVE_QUALITY_DUST, EXPLOSIVE_POWER_LOW, WARHEAD_EFFECTIVE_STONE_BUILDING, 500, 0.0, TARGET_TYPE_INVALID, TARGET_SYMBOL_UNKNOWN);

  00312	6a 00		 push	 0
  00314	6a 00		 push	 0
  00316	51		 push	 ecx
  00317	0f 57 c0	 xorps	 xmm0, xmm0
  0031a	f3 0f 11 04 24	 movss	 DWORD PTR [esp], xmm0
  0031f	68 f4 01 00 00	 push	 500			; 000001f4H
  00324	68 00 01 00 00	 push	 256			; 00000100H
  00329	6a 01		 push	 1
  0032b	6a 01		 push	 1
  0032d	68 1c 04 00 00	 push	 1052			; 0000041cH
  00332	e8 00 00 00 00	 call	 ?set_fixed_3d_object_database_item@@YGXHHHHHMW4TARGET_TYPES@@W4TARGET_SYMBOL_TYPES@@@Z ; set_fixed_3d_object_database_item

; 1319 : 	set_fixed_3d_object_database_item (OBJECT_3D_THAI_HOUSING_FC_COMP_2X1_5, EXPLOSIVE_QUALITY_DUST, EXPLOSIVE_POWER_LOW, WARHEAD_EFFECTIVE_STONE_BUILDING, 500, 0.0, TARGET_TYPE_INVALID, TARGET_SYMBOL_UNKNOWN);

  00337	6a 00		 push	 0
  00339	6a 00		 push	 0
  0033b	51		 push	 ecx
  0033c	0f 57 c0	 xorps	 xmm0, xmm0
  0033f	f3 0f 11 04 24	 movss	 DWORD PTR [esp], xmm0
  00344	68 f4 01 00 00	 push	 500			; 000001f4H
  00349	68 00 01 00 00	 push	 256			; 00000100H
  0034e	6a 01		 push	 1
  00350	6a 01		 push	 1
  00352	68 20 04 00 00	 push	 1056			; 00000420H
  00357	e8 00 00 00 00	 call	 ?set_fixed_3d_object_database_item@@YGXHHHHHMW4TARGET_TYPES@@W4TARGET_SYMBOL_TYPES@@@Z ; set_fixed_3d_object_database_item

; 1320 : 
; 1321 : 	set_fixed_3d_object_database_item (OBJECT_3D_GRG_HOUSING_FC_SHOPS1, EXPLOSIVE_QUALITY_DUST, EXPLOSIVE_POWER_LOW, WARHEAD_EFFECTIVE_STONE_BUILDING, 500, 0.0, TARGET_TYPE_INVALID, TARGET_SYMBOL_UNKNOWN);

  0035c	6a 00		 push	 0
  0035e	6a 00		 push	 0
  00360	51		 push	 ecx
  00361	0f 57 c0	 xorps	 xmm0, xmm0
  00364	f3 0f 11 04 24	 movss	 DWORD PTR [esp], xmm0
  00369	68 f4 01 00 00	 push	 500			; 000001f4H
  0036e	68 00 01 00 00	 push	 256			; 00000100H
  00373	6a 01		 push	 1
  00375	6a 01		 push	 1
  00377	68 54 03 00 00	 push	 852			; 00000354H
  0037c	e8 00 00 00 00	 call	 ?set_fixed_3d_object_database_item@@YGXHHHHHMW4TARGET_TYPES@@W4TARGET_SYMBOL_TYPES@@@Z ; set_fixed_3d_object_database_item

; 1322 : 	set_fixed_3d_object_database_item (OBJECT_3D_GRG_HOUSING_FC_SHOPS2, EXPLOSIVE_QUALITY_DUST, EXPLOSIVE_POWER_LOW, WARHEAD_EFFECTIVE_STONE_BUILDING, 500, 0.0, TARGET_TYPE_INVALID, TARGET_SYMBOL_UNKNOWN);

  00381	6a 00		 push	 0
  00383	6a 00		 push	 0
  00385	51		 push	 ecx
  00386	0f 57 c0	 xorps	 xmm0, xmm0
  00389	f3 0f 11 04 24	 movss	 DWORD PTR [esp], xmm0
  0038e	68 f4 01 00 00	 push	 500			; 000001f4H
  00393	68 00 01 00 00	 push	 256			; 00000100H
  00398	6a 01		 push	 1
  0039a	6a 01		 push	 1
  0039c	68 56 03 00 00	 push	 854			; 00000356H
  003a1	e8 00 00 00 00	 call	 ?set_fixed_3d_object_database_item@@YGXHHHHHMW4TARGET_TYPES@@W4TARGET_SYMBOL_TYPES@@@Z ; set_fixed_3d_object_database_item

; 1323 : 
; 1324 : 	set_fixed_3d_object_database_item (OBJECT_3D_GRG_HOUSING_FC_SIMPLE1, EXPLOSIVE_QUALITY_DUST, EXPLOSIVE_POWER_LOW, WARHEAD_EFFECTIVE_STONE_BUILDING, 500, 0.0, TARGET_TYPE_INVALID, TARGET_SYMBOL_UNKNOWN);

  003a6	6a 00		 push	 0
  003a8	6a 00		 push	 0
  003aa	51		 push	 ecx
  003ab	0f 57 c0	 xorps	 xmm0, xmm0
  003ae	f3 0f 11 04 24	 movss	 DWORD PTR [esp], xmm0
  003b3	68 f4 01 00 00	 push	 500			; 000001f4H
  003b8	68 00 01 00 00	 push	 256			; 00000100H
  003bd	6a 01		 push	 1
  003bf	6a 01		 push	 1
  003c1	68 5c 03 00 00	 push	 860			; 0000035cH
  003c6	e8 00 00 00 00	 call	 ?set_fixed_3d_object_database_item@@YGXHHHHHMW4TARGET_TYPES@@W4TARGET_SYMBOL_TYPES@@@Z ; set_fixed_3d_object_database_item

; 1325 : 	set_fixed_3d_object_database_item (OBJECT_3D_GRG_HOUSING_FC_SIMPLE2, EXPLOSIVE_QUALITY_DUST, EXPLOSIVE_POWER_LOW, WARHEAD_EFFECTIVE_STONE_BUILDING, 500, 0.0, TARGET_TYPE_INVALID, TARGET_SYMBOL_UNKNOWN);

  003cb	6a 00		 push	 0
  003cd	6a 00		 push	 0
  003cf	51		 push	 ecx
  003d0	0f 57 c0	 xorps	 xmm0, xmm0
  003d3	f3 0f 11 04 24	 movss	 DWORD PTR [esp], xmm0
  003d8	68 f4 01 00 00	 push	 500			; 000001f4H
  003dd	68 00 01 00 00	 push	 256			; 00000100H
  003e2	6a 01		 push	 1
  003e4	6a 01		 push	 1
  003e6	68 5e 03 00 00	 push	 862			; 0000035eH
  003eb	e8 00 00 00 00	 call	 ?set_fixed_3d_object_database_item@@YGXHHHHHMW4TARGET_TYPES@@W4TARGET_SYMBOL_TYPES@@@Z ; set_fixed_3d_object_database_item

; 1326 : 
; 1327 : 	set_fixed_3d_object_database_item (OBJECT_3D_THAI_CHURCH_EX_WALL_CORNER, EXPLOSIVE_QUALITY_DUST, EXPLOSIVE_POWER_LOW, WARHEAD_EFFECTIVE_STONE_BUILDING, 500, 0.0, TARGET_TYPE_INVALID, TARGET_SYMBOL_UNKNOWN);

  003f0	6a 00		 push	 0
  003f2	6a 00		 push	 0
  003f4	51		 push	 ecx
  003f5	0f 57 c0	 xorps	 xmm0, xmm0
  003f8	f3 0f 11 04 24	 movss	 DWORD PTR [esp], xmm0
  003fd	68 f4 01 00 00	 push	 500			; 000001f4H
  00402	68 00 01 00 00	 push	 256			; 00000100H
  00407	6a 01		 push	 1
  00409	6a 01		 push	 1
  0040b	68 e4 03 00 00	 push	 996			; 000003e4H
  00410	e8 00 00 00 00	 call	 ?set_fixed_3d_object_database_item@@YGXHHHHHMW4TARGET_TYPES@@W4TARGET_SYMBOL_TYPES@@@Z ; set_fixed_3d_object_database_item

; 1328 : 	set_fixed_3d_object_database_item (OBJECT_3D_THAI_CHURCH_FC_WALL_CLOISTER, EXPLOSIVE_QUALITY_DUST, EXPLOSIVE_POWER_LOW, WARHEAD_EFFECTIVE_STONE_BUILDING, 500, 0.0, TARGET_TYPE_INVALID, TARGET_SYMBOL_UNKNOWN);

  00415	6a 00		 push	 0
  00417	6a 00		 push	 0
  00419	51		 push	 ecx
  0041a	0f 57 c0	 xorps	 xmm0, xmm0
  0041d	f3 0f 11 04 24	 movss	 DWORD PTR [esp], xmm0
  00422	68 f4 01 00 00	 push	 500			; 000001f4H
  00427	68 00 01 00 00	 push	 256			; 00000100H
  0042c	6a 01		 push	 1
  0042e	6a 01		 push	 1
  00430	68 e6 03 00 00	 push	 998			; 000003e6H
  00435	e8 00 00 00 00	 call	 ?set_fixed_3d_object_database_item@@YGXHHHHHMW4TARGET_TYPES@@W4TARGET_SYMBOL_TYPES@@@Z ; set_fixed_3d_object_database_item

; 1329 : 	set_fixed_3d_object_database_item (OBJECT_3D_THAI_CHURCH_FC_WALL_FANCY_DOOR, EXPLOSIVE_QUALITY_DUST, EXPLOSIVE_POWER_LOW, WARHEAD_EFFECTIVE_STONE_BUILDING, 500, 0.0, TARGET_TYPE_INVALID, TARGET_SYMBOL_UNKNOWN);

  0043a	6a 00		 push	 0
  0043c	6a 00		 push	 0
  0043e	51		 push	 ecx
  0043f	0f 57 c0	 xorps	 xmm0, xmm0
  00442	f3 0f 11 04 24	 movss	 DWORD PTR [esp], xmm0
  00447	68 f4 01 00 00	 push	 500			; 000001f4H
  0044c	68 00 01 00 00	 push	 256			; 00000100H
  00451	6a 01		 push	 1
  00453	6a 01		 push	 1
  00455	68 e8 03 00 00	 push	 1000			; 000003e8H
  0045a	e8 00 00 00 00	 call	 ?set_fixed_3d_object_database_item@@YGXHHHHHMW4TARGET_TYPES@@W4TARGET_SYMBOL_TYPES@@@Z ; set_fixed_3d_object_database_item

; 1330 : 	set_fixed_3d_object_database_item (OBJECT_3D_THAI_CHURCH_FC_WALL_SIMPLE_DOOR, EXPLOSIVE_QUALITY_DUST, EXPLOSIVE_POWER_LOW, WARHEAD_EFFECTIVE_STONE_BUILDING, 500, 0.0, TARGET_TYPE_INVALID, TARGET_SYMBOL_UNKNOWN);

  0045f	6a 00		 push	 0
  00461	6a 00		 push	 0
  00463	51		 push	 ecx
  00464	0f 57 c0	 xorps	 xmm0, xmm0
  00467	f3 0f 11 04 24	 movss	 DWORD PTR [esp], xmm0
  0046c	68 f4 01 00 00	 push	 500			; 000001f4H
  00471	68 00 01 00 00	 push	 256			; 00000100H
  00476	6a 01		 push	 1
  00478	6a 01		 push	 1
  0047a	68 ea 03 00 00	 push	 1002			; 000003eaH
  0047f	e8 00 00 00 00	 call	 ?set_fixed_3d_object_database_item@@YGXHHHHHMW4TARGET_TYPES@@W4TARGET_SYMBOL_TYPES@@@Z ; set_fixed_3d_object_database_item

; 1331 : 	set_fixed_3d_object_database_item (OBJECT_3D_THAI_CHURCH_FC_WALL_SOLID1, EXPLOSIVE_QUALITY_DUST, EXPLOSIVE_POWER_LOW, WARHEAD_EFFECTIVE_STONE_BUILDING, 500, 0.0, TARGET_TYPE_INVALID, TARGET_SYMBOL_UNKNOWN);

  00484	6a 00		 push	 0
  00486	6a 00		 push	 0
  00488	51		 push	 ecx
  00489	0f 57 c0	 xorps	 xmm0, xmm0
  0048c	f3 0f 11 04 24	 movss	 DWORD PTR [esp], xmm0
  00491	68 f4 01 00 00	 push	 500			; 000001f4H
  00496	68 00 01 00 00	 push	 256			; 00000100H
  0049b	6a 01		 push	 1
  0049d	6a 01		 push	 1
  0049f	68 ec 03 00 00	 push	 1004			; 000003ecH
  004a4	e8 00 00 00 00	 call	 ?set_fixed_3d_object_database_item@@YGXHHHHHMW4TARGET_TYPES@@W4TARGET_SYMBOL_TYPES@@@Z ; set_fixed_3d_object_database_item

; 1332 : 	set_fixed_3d_object_database_item (OBJECT_3D_THAI_WALL_SOLID2, EXPLOSIVE_QUALITY_DUST, EXPLOSIVE_POWER_LOW, WARHEAD_EFFECTIVE_STONE_BUILDING, 500, 0.0, TARGET_TYPE_INVALID, TARGET_SYMBOL_UNKNOWN);

  004a9	6a 00		 push	 0
  004ab	6a 00		 push	 0
  004ad	51		 push	 ecx
  004ae	0f 57 c0	 xorps	 xmm0, xmm0
  004b1	f3 0f 11 04 24	 movss	 DWORD PTR [esp], xmm0
  004b6	68 f4 01 00 00	 push	 500			; 000001f4H
  004bb	68 00 01 00 00	 push	 256			; 00000100H
  004c0	6a 01		 push	 1
  004c2	6a 01		 push	 1
  004c4	68 ee 03 00 00	 push	 1006			; 000003eeH
  004c9	e8 00 00 00 00	 call	 ?set_fixed_3d_object_database_item@@YGXHHHHHMW4TARGET_TYPES@@W4TARGET_SYMBOL_TYPES@@@Z ; set_fixed_3d_object_database_item

; 1333 : 	set_fixed_3d_object_database_item (OBJECT_3D_THAI_CHURCH_FC_WALL_SOLID4, EXPLOSIVE_QUALITY_DUST, EXPLOSIVE_POWER_LOW, WARHEAD_EFFECTIVE_STONE_BUILDING, 500, 0.0, TARGET_TYPE_INVALID, TARGET_SYMBOL_UNKNOWN);

  004ce	6a 00		 push	 0
  004d0	6a 00		 push	 0
  004d2	51		 push	 ecx
  004d3	0f 57 c0	 xorps	 xmm0, xmm0
  004d6	f3 0f 11 04 24	 movss	 DWORD PTR [esp], xmm0
  004db	68 f4 01 00 00	 push	 500			; 000001f4H
  004e0	68 00 01 00 00	 push	 256			; 00000100H
  004e5	6a 01		 push	 1
  004e7	6a 01		 push	 1
  004e9	68 f0 03 00 00	 push	 1008			; 000003f0H
  004ee	e8 00 00 00 00	 call	 ?set_fixed_3d_object_database_item@@YGXHHHHHMW4TARGET_TYPES@@W4TARGET_SYMBOL_TYPES@@@Z ; set_fixed_3d_object_database_item

; 1334 : 	set_fixed_3d_object_database_item (OBJECT_3D_THAI_CHURCH_FC_WALL_SOLID8, EXPLOSIVE_QUALITY_DUST, EXPLOSIVE_POWER_LOW, WARHEAD_EFFECTIVE_STONE_BUILDING, 500, 0.0, TARGET_TYPE_INVALID, TARGET_SYMBOL_UNKNOWN);

  004f3	6a 00		 push	 0
  004f5	6a 00		 push	 0
  004f7	51		 push	 ecx
  004f8	0f 57 c0	 xorps	 xmm0, xmm0
  004fb	f3 0f 11 04 24	 movss	 DWORD PTR [esp], xmm0
  00500	68 f4 01 00 00	 push	 500			; 000001f4H
  00505	68 00 01 00 00	 push	 256			; 00000100H
  0050a	6a 01		 push	 1
  0050c	6a 01		 push	 1
  0050e	68 f2 03 00 00	 push	 1010			; 000003f2H
  00513	e8 00 00 00 00	 call	 ?set_fixed_3d_object_database_item@@YGXHHHHHMW4TARGET_TYPES@@W4TARGET_SYMBOL_TYPES@@@Z ; set_fixed_3d_object_database_item

; 1335 : 	set_fixed_3d_object_database_item (OBJECT_3D_THAI_CHURCH_IN_WALL_CORNER, EXPLOSIVE_QUALITY_DUST, EXPLOSIVE_POWER_LOW, WARHEAD_EFFECTIVE_STONE_BUILDING, 500, 0.0, TARGET_TYPE_INVALID, TARGET_SYMBOL_UNKNOWN);

  00518	6a 00		 push	 0
  0051a	6a 00		 push	 0
  0051c	51		 push	 ecx
  0051d	0f 57 c0	 xorps	 xmm0, xmm0
  00520	f3 0f 11 04 24	 movss	 DWORD PTR [esp], xmm0
  00525	68 f4 01 00 00	 push	 500			; 000001f4H
  0052a	68 00 01 00 00	 push	 256			; 00000100H
  0052f	6a 01		 push	 1
  00531	6a 01		 push	 1
  00533	68 06 04 00 00	 push	 1030			; 00000406H
  00538	e8 00 00 00 00	 call	 ?set_fixed_3d_object_database_item@@YGXHHHHHMW4TARGET_TYPES@@W4TARGET_SYMBOL_TYPES@@@Z ; set_fixed_3d_object_database_item

; 1336 : 	set_fixed_3d_object_database_item (OBJECT_3D_THAI_CHURCH_FR_BUDDHA, EXPLOSIVE_QUALITY_DUST, EXPLOSIVE_POWER_LOW, WARHEAD_EFFECTIVE_STONE_BUILDING, 500, 0.0, TARGET_TYPE_INVALID, TARGET_SYMBOL_UNKNOWN);

  0053d	6a 00		 push	 0
  0053f	6a 00		 push	 0
  00541	51		 push	 ecx
  00542	0f 57 c0	 xorps	 xmm0, xmm0
  00545	f3 0f 11 04 24	 movss	 DWORD PTR [esp], xmm0
  0054a	68 f4 01 00 00	 push	 500			; 000001f4H
  0054f	68 00 01 00 00	 push	 256			; 00000100H
  00554	6a 01		 push	 1
  00556	6a 01		 push	 1
  00558	68 f4 03 00 00	 push	 1012			; 000003f4H
  0055d	e8 00 00 00 00	 call	 ?set_fixed_3d_object_database_item@@YGXHHHHHMW4TARGET_TYPES@@W4TARGET_SYMBOL_TYPES@@@Z ; set_fixed_3d_object_database_item

; 1337 : 
; 1338 : 	set_fixed_3d_object_database_item (OBJECT_3D_THAI_HOUSING_FR_COMPO_HUT1, EXPLOSIVE_QUALITY_DUST, EXPLOSIVE_POWER_LOW, WARHEAD_EFFECTIVE_STONE_BUILDING, 500, 0.0, TARGET_TYPE_INVALID, TARGET_SYMBOL_UNKNOWN);

  00562	6a 00		 push	 0
  00564	6a 00		 push	 0
  00566	51		 push	 ecx
  00567	0f 57 c0	 xorps	 xmm0, xmm0
  0056a	f3 0f 11 04 24	 movss	 DWORD PTR [esp], xmm0
  0056f	68 f4 01 00 00	 push	 500			; 000001f4H
  00574	68 00 01 00 00	 push	 256			; 00000100H
  00579	6a 01		 push	 1
  0057b	6a 01		 push	 1
  0057d	68 2c 04 00 00	 push	 1068			; 0000042cH
  00582	e8 00 00 00 00	 call	 ?set_fixed_3d_object_database_item@@YGXHHHHHMW4TARGET_TYPES@@W4TARGET_SYMBOL_TYPES@@@Z ; set_fixed_3d_object_database_item

; 1339 : 	set_fixed_3d_object_database_item (OBJECT_3D_THAI_HOUSING_FR_COMPO_HUT2, EXPLOSIVE_QUALITY_DUST, EXPLOSIVE_POWER_LOW, WARHEAD_EFFECTIVE_STONE_BUILDING, 500, 0.0, TARGET_TYPE_INVALID, TARGET_SYMBOL_UNKNOWN);

  00587	6a 00		 push	 0
  00589	6a 00		 push	 0
  0058b	51		 push	 ecx
  0058c	0f 57 c0	 xorps	 xmm0, xmm0
  0058f	f3 0f 11 04 24	 movss	 DWORD PTR [esp], xmm0
  00594	68 f4 01 00 00	 push	 500			; 000001f4H
  00599	68 00 01 00 00	 push	 256			; 00000100H
  0059e	6a 01		 push	 1
  005a0	6a 01		 push	 1
  005a2	68 2e 04 00 00	 push	 1070			; 0000042eH
  005a7	e8 00 00 00 00	 call	 ?set_fixed_3d_object_database_item@@YGXHHHHHMW4TARGET_TYPES@@W4TARGET_SYMBOL_TYPES@@@Z ; set_fixed_3d_object_database_item

; 1340 : 	set_fixed_3d_object_database_item (OBJECT_3D_THAI_HOUSING_FR_COMPO_HUT3, EXPLOSIVE_QUALITY_DUST, EXPLOSIVE_POWER_LOW, WARHEAD_EFFECTIVE_STONE_BUILDING, 500, 0.0, TARGET_TYPE_INVALID, TARGET_SYMBOL_UNKNOWN);

  005ac	6a 00		 push	 0
  005ae	6a 00		 push	 0
  005b0	51		 push	 ecx
  005b1	0f 57 c0	 xorps	 xmm0, xmm0
  005b4	f3 0f 11 04 24	 movss	 DWORD PTR [esp], xmm0
  005b9	68 f4 01 00 00	 push	 500			; 000001f4H
  005be	68 00 01 00 00	 push	 256			; 00000100H
  005c3	6a 01		 push	 1
  005c5	6a 01		 push	 1
  005c7	68 30 04 00 00	 push	 1072			; 00000430H
  005cc	e8 00 00 00 00	 call	 ?set_fixed_3d_object_database_item@@YGXHHHHHMW4TARGET_TYPES@@W4TARGET_SYMBOL_TYPES@@@Z ; set_fixed_3d_object_database_item

; 1341 : 	set_fixed_3d_object_database_item (OBJECT_3D_THAI_HOUSING_FC_CROSS_HOUSE, EXPLOSIVE_QUALITY_DUST, EXPLOSIVE_POWER_LOW, WARHEAD_EFFECTIVE_STONE_BUILDING, 500, 0.0, TARGET_TYPE_INVALID, TARGET_SYMBOL_UNKNOWN);

  005d1	6a 00		 push	 0
  005d3	6a 00		 push	 0
  005d5	51		 push	 ecx
  005d6	0f 57 c0	 xorps	 xmm0, xmm0
  005d9	f3 0f 11 04 24	 movss	 DWORD PTR [esp], xmm0
  005de	68 f4 01 00 00	 push	 500			; 000001f4H
  005e3	68 00 01 00 00	 push	 256			; 00000100H
  005e8	6a 01		 push	 1
  005ea	6a 01		 push	 1
  005ec	68 32 04 00 00	 push	 1074			; 00000432H
  005f1	e8 00 00 00 00	 call	 ?set_fixed_3d_object_database_item@@YGXHHHHHMW4TARGET_TYPES@@W4TARGET_SYMBOL_TYPES@@@Z ; set_fixed_3d_object_database_item

; 1342 : 	set_fixed_3d_object_database_item (OBJECT_3D_THAI_CULTURAL_FR_REST1, EXPLOSIVE_QUALITY_DUST, EXPLOSIVE_POWER_LOW, WARHEAD_EFFECTIVE_STONE_BUILDING, 500, 0.0, TARGET_TYPE_INVALID, TARGET_SYMBOL_UNKNOWN);

  005f6	6a 00		 push	 0
  005f8	6a 00		 push	 0
  005fa	51		 push	 ecx
  005fb	0f 57 c0	 xorps	 xmm0, xmm0
  005fe	f3 0f 11 04 24	 movss	 DWORD PTR [esp], xmm0
  00603	68 f4 01 00 00	 push	 500			; 000001f4H
  00608	68 00 01 00 00	 push	 256			; 00000100H
  0060d	6a 01		 push	 1
  0060f	6a 01		 push	 1
  00611	68 34 04 00 00	 push	 1076			; 00000434H
  00616	e8 00 00 00 00	 call	 ?set_fixed_3d_object_database_item@@YGXHHHHHMW4TARGET_TYPES@@W4TARGET_SYMBOL_TYPES@@@Z ; set_fixed_3d_object_database_item

; 1343 : 	set_fixed_3d_object_database_item (OBJECT_3D_THAI_HOUSING_FC_SLUM_BASIC4, EXPLOSIVE_QUALITY_DUST, EXPLOSIVE_POWER_LOW, WARHEAD_EFFECTIVE_STONE_BUILDING, 500, 0.0, TARGET_TYPE_INVALID, TARGET_SYMBOL_UNKNOWN);

  0061b	6a 00		 push	 0
  0061d	6a 00		 push	 0
  0061f	51		 push	 ecx
  00620	0f 57 c0	 xorps	 xmm0, xmm0
  00623	f3 0f 11 04 24	 movss	 DWORD PTR [esp], xmm0
  00628	68 f4 01 00 00	 push	 500			; 000001f4H
  0062d	68 00 01 00 00	 push	 256			; 00000100H
  00632	6a 01		 push	 1
  00634	6a 01		 push	 1
  00636	68 36 04 00 00	 push	 1078			; 00000436H
  0063b	e8 00 00 00 00	 call	 ?set_fixed_3d_object_database_item@@YGXHHHHHMW4TARGET_TYPES@@W4TARGET_SYMBOL_TYPES@@@Z ; set_fixed_3d_object_database_item

; 1344 : 	set_fixed_3d_object_database_item (OBJECT_3D_THAI_HOUSING_FC_SLUM_BASIC, EXPLOSIVE_QUALITY_DUST, EXPLOSIVE_POWER_LOW, WARHEAD_EFFECTIVE_STONE_BUILDING, 500, 0.0, TARGET_TYPE_INVALID, TARGET_SYMBOL_UNKNOWN);

  00640	6a 00		 push	 0
  00642	6a 00		 push	 0
  00644	51		 push	 ecx
  00645	0f 57 c0	 xorps	 xmm0, xmm0
  00648	f3 0f 11 04 24	 movss	 DWORD PTR [esp], xmm0
  0064d	68 f4 01 00 00	 push	 500			; 000001f4H
  00652	68 00 01 00 00	 push	 256			; 00000100H
  00657	6a 01		 push	 1
  00659	6a 01		 push	 1
  0065b	68 38 04 00 00	 push	 1080			; 00000438H
  00660	e8 00 00 00 00	 call	 ?set_fixed_3d_object_database_item@@YGXHHHHHMW4TARGET_TYPES@@W4TARGET_SYMBOL_TYPES@@@Z ; set_fixed_3d_object_database_item

; 1345 : 	set_fixed_3d_object_database_item (OBJECT_3D_THAI_HOUSING_FC_SLUM_BASIC2, EXPLOSIVE_QUALITY_DUST, EXPLOSIVE_POWER_LOW, WARHEAD_EFFECTIVE_STONE_BUILDING, 500, 0.0, TARGET_TYPE_INVALID, TARGET_SYMBOL_UNKNOWN);

  00665	6a 00		 push	 0
  00667	6a 00		 push	 0
  00669	51		 push	 ecx
  0066a	0f 57 c0	 xorps	 xmm0, xmm0
  0066d	f3 0f 11 04 24	 movss	 DWORD PTR [esp], xmm0
  00672	68 f4 01 00 00	 push	 500			; 000001f4H
  00677	68 00 01 00 00	 push	 256			; 00000100H
  0067c	6a 01		 push	 1
  0067e	6a 01		 push	 1
  00680	68 3a 04 00 00	 push	 1082			; 0000043aH
  00685	e8 00 00 00 00	 call	 ?set_fixed_3d_object_database_item@@YGXHHHHHMW4TARGET_TYPES@@W4TARGET_SYMBOL_TYPES@@@Z ; set_fixed_3d_object_database_item

; 1346 : 	set_fixed_3d_object_database_item (OBJECT_3D_THAI_HOUSING_FC_SLUM_BASIC3, EXPLOSIVE_QUALITY_DUST, EXPLOSIVE_POWER_LOW, WARHEAD_EFFECTIVE_STONE_BUILDING, 500, 0.0, TARGET_TYPE_INVALID, TARGET_SYMBOL_UNKNOWN);

  0068a	6a 00		 push	 0
  0068c	6a 00		 push	 0
  0068e	51		 push	 ecx
  0068f	0f 57 c0	 xorps	 xmm0, xmm0
  00692	f3 0f 11 04 24	 movss	 DWORD PTR [esp], xmm0
  00697	68 f4 01 00 00	 push	 500			; 000001f4H
  0069c	68 00 01 00 00	 push	 256			; 00000100H
  006a1	6a 01		 push	 1
  006a3	6a 01		 push	 1
  006a5	68 3c 04 00 00	 push	 1084			; 0000043cH
  006aa	e8 00 00 00 00	 call	 ?set_fixed_3d_object_database_item@@YGXHHHHHMW4TARGET_TYPES@@W4TARGET_SYMBOL_TYPES@@@Z ; set_fixed_3d_object_database_item

; 1347 : 	set_fixed_3d_object_database_item (OBJECT_3D_THAI_HOUSING_FC_SLUM_LEAN3, EXPLOSIVE_QUALITY_DUST, EXPLOSIVE_POWER_LOW, WARHEAD_EFFECTIVE_STONE_BUILDING, 500, 0.0, TARGET_TYPE_INVALID, TARGET_SYMBOL_UNKNOWN);

  006af	6a 00		 push	 0
  006b1	6a 00		 push	 0
  006b3	51		 push	 ecx
  006b4	0f 57 c0	 xorps	 xmm0, xmm0
  006b7	f3 0f 11 04 24	 movss	 DWORD PTR [esp], xmm0
  006bc	68 f4 01 00 00	 push	 500			; 000001f4H
  006c1	68 00 01 00 00	 push	 256			; 00000100H
  006c6	6a 01		 push	 1
  006c8	6a 01		 push	 1
  006ca	68 3e 04 00 00	 push	 1086			; 0000043eH
  006cf	e8 00 00 00 00	 call	 ?set_fixed_3d_object_database_item@@YGXHHHHHMW4TARGET_TYPES@@W4TARGET_SYMBOL_TYPES@@@Z ; set_fixed_3d_object_database_item

; 1348 : 	set_fixed_3d_object_database_item (OBJECT_3D_THAI_HOUSING_FR_LEAN_TO_4040, EXPLOSIVE_QUALITY_DUST, EXPLOSIVE_POWER_LOW, WARHEAD_EFFECTIVE_STONE_BUILDING, 500, 0.0, TARGET_TYPE_INVALID, TARGET_SYMBOL_UNKNOWN);

  006d4	6a 00		 push	 0
  006d6	6a 00		 push	 0
  006d8	51		 push	 ecx
  006d9	0f 57 c0	 xorps	 xmm0, xmm0
  006dc	f3 0f 11 04 24	 movss	 DWORD PTR [esp], xmm0
  006e1	68 f4 01 00 00	 push	 500			; 000001f4H
  006e6	68 00 01 00 00	 push	 256			; 00000100H
  006eb	6a 01		 push	 1
  006ed	6a 01		 push	 1
  006ef	68 40 04 00 00	 push	 1088			; 00000440H
  006f4	e8 00 00 00 00	 call	 ?set_fixed_3d_object_database_item@@YGXHHHHHMW4TARGET_TYPES@@W4TARGET_SYMBOL_TYPES@@@Z ; set_fixed_3d_object_database_item

; 1349 : 	set_fixed_3d_object_database_item (OBJECT_3D_THAI_HOUSING_FC_SLUM_LEAN, EXPLOSIVE_QUALITY_DUST, EXPLOSIVE_POWER_LOW, WARHEAD_EFFECTIVE_STONE_BUILDING, 500, 0.0, TARGET_TYPE_INVALID, TARGET_SYMBOL_UNKNOWN);

  006f9	6a 00		 push	 0
  006fb	6a 00		 push	 0
  006fd	51		 push	 ecx
  006fe	0f 57 c0	 xorps	 xmm0, xmm0
  00701	f3 0f 11 04 24	 movss	 DWORD PTR [esp], xmm0
  00706	68 f4 01 00 00	 push	 500			; 000001f4H
  0070b	68 00 01 00 00	 push	 256			; 00000100H
  00710	6a 01		 push	 1
  00712	6a 01		 push	 1
  00714	68 42 04 00 00	 push	 1090			; 00000442H
  00719	e8 00 00 00 00	 call	 ?set_fixed_3d_object_database_item@@YGXHHHHHMW4TARGET_TYPES@@W4TARGET_SYMBOL_TYPES@@@Z ; set_fixed_3d_object_database_item

; 1350 : 	set_fixed_3d_object_database_item (OBJECT_3D_THAI_HOUSING_FC_SLUM_LEAN2, EXPLOSIVE_QUALITY_DUST, EXPLOSIVE_POWER_LOW, WARHEAD_EFFECTIVE_STONE_BUILDING, 500, 0.0, TARGET_TYPE_INVALID, TARGET_SYMBOL_UNKNOWN);

  0071e	6a 00		 push	 0
  00720	6a 00		 push	 0
  00722	51		 push	 ecx
  00723	0f 57 c0	 xorps	 xmm0, xmm0
  00726	f3 0f 11 04 24	 movss	 DWORD PTR [esp], xmm0
  0072b	68 f4 01 00 00	 push	 500			; 000001f4H
  00730	68 00 01 00 00	 push	 256			; 00000100H
  00735	6a 01		 push	 1
  00737	6a 01		 push	 1
  00739	68 44 04 00 00	 push	 1092			; 00000444H
  0073e	e8 00 00 00 00	 call	 ?set_fixed_3d_object_database_item@@YGXHHHHHMW4TARGET_TYPES@@W4TARGET_SYMBOL_TYPES@@@Z ; set_fixed_3d_object_database_item

; 1351 : 	set_fixed_3d_object_database_item (OBJECT_3D_THAI_HOUSING_FC_SLUM_STRAD3, EXPLOSIVE_QUALITY_DUST, EXPLOSIVE_POWER_LOW, WARHEAD_EFFECTIVE_STONE_BUILDING, 500, 0.0, TARGET_TYPE_INVALID, TARGET_SYMBOL_UNKNOWN);

  00743	6a 00		 push	 0
  00745	6a 00		 push	 0
  00747	51		 push	 ecx
  00748	0f 57 c0	 xorps	 xmm0, xmm0
  0074b	f3 0f 11 04 24	 movss	 DWORD PTR [esp], xmm0
  00750	68 f4 01 00 00	 push	 500			; 000001f4H
  00755	68 00 01 00 00	 push	 256			; 00000100H
  0075a	6a 01		 push	 1
  0075c	6a 01		 push	 1
  0075e	68 46 04 00 00	 push	 1094			; 00000446H
  00763	e8 00 00 00 00	 call	 ?set_fixed_3d_object_database_item@@YGXHHHHHMW4TARGET_TYPES@@W4TARGET_SYMBOL_TYPES@@@Z ; set_fixed_3d_object_database_item

; 1352 : 	set_fixed_3d_object_database_item (OBJECT_3D_THAI_HOUSING_FC_SLUM_STRAD, EXPLOSIVE_QUALITY_DUST, EXPLOSIVE_POWER_LOW, WARHEAD_EFFECTIVE_STONE_BUILDING, 500, 0.0, TARGET_TYPE_INVALID, TARGET_SYMBOL_UNKNOWN);

  00768	6a 00		 push	 0
  0076a	6a 00		 push	 0
  0076c	51		 push	 ecx
  0076d	0f 57 c0	 xorps	 xmm0, xmm0
  00770	f3 0f 11 04 24	 movss	 DWORD PTR [esp], xmm0
  00775	68 f4 01 00 00	 push	 500			; 000001f4H
  0077a	68 00 01 00 00	 push	 256			; 00000100H
  0077f	6a 01		 push	 1
  00781	6a 01		 push	 1
  00783	68 48 04 00 00	 push	 1096			; 00000448H
  00788	e8 00 00 00 00	 call	 ?set_fixed_3d_object_database_item@@YGXHHHHHMW4TARGET_TYPES@@W4TARGET_SYMBOL_TYPES@@@Z ; set_fixed_3d_object_database_item

; 1353 : 	set_fixed_3d_object_database_item (OBJECT_3D_THAI_HOUSING_FC_SLUM_STRAD2, EXPLOSIVE_QUALITY_DUST, EXPLOSIVE_POWER_LOW, WARHEAD_EFFECTIVE_STONE_BUILDING, 500, 0.0, TARGET_TYPE_INVALID, TARGET_SYMBOL_UNKNOWN);

  0078d	6a 00		 push	 0
  0078f	6a 00		 push	 0
  00791	51		 push	 ecx
  00792	0f 57 c0	 xorps	 xmm0, xmm0
  00795	f3 0f 11 04 24	 movss	 DWORD PTR [esp], xmm0
  0079a	68 f4 01 00 00	 push	 500			; 000001f4H
  0079f	68 00 01 00 00	 push	 256			; 00000100H
  007a4	6a 01		 push	 1
  007a6	6a 01		 push	 1
  007a8	68 4a 04 00 00	 push	 1098			; 0000044aH
  007ad	e8 00 00 00 00	 call	 ?set_fixed_3d_object_database_item@@YGXHHHHHMW4TARGET_TYPES@@W4TARGET_SYMBOL_TYPES@@@Z ; set_fixed_3d_object_database_item

; 1354 : 	set_fixed_3d_object_database_item (OBJECT_3D_THAI_HOUSING_FC_SLUM_TRAD3, EXPLOSIVE_QUALITY_DUST, EXPLOSIVE_POWER_LOW, WARHEAD_EFFECTIVE_STONE_BUILDING, 500, 0.0, TARGET_TYPE_INVALID, TARGET_SYMBOL_UNKNOWN);

  007b2	6a 00		 push	 0
  007b4	6a 00		 push	 0
  007b6	51		 push	 ecx
  007b7	0f 57 c0	 xorps	 xmm0, xmm0
  007ba	f3 0f 11 04 24	 movss	 DWORD PTR [esp], xmm0
  007bf	68 f4 01 00 00	 push	 500			; 000001f4H
  007c4	68 00 01 00 00	 push	 256			; 00000100H
  007c9	6a 01		 push	 1
  007cb	6a 01		 push	 1
  007cd	68 4c 04 00 00	 push	 1100			; 0000044cH
  007d2	e8 00 00 00 00	 call	 ?set_fixed_3d_object_database_item@@YGXHHHHHMW4TARGET_TYPES@@W4TARGET_SYMBOL_TYPES@@@Z ; set_fixed_3d_object_database_item

; 1355 : 	set_fixed_3d_object_database_item (OBJECT_3D_THAI_HOUSING_FC_SLUM_TRAD, EXPLOSIVE_QUALITY_DUST, EXPLOSIVE_POWER_LOW, WARHEAD_EFFECTIVE_STONE_BUILDING, 500, 0.0, TARGET_TYPE_INVALID, TARGET_SYMBOL_UNKNOWN);

  007d7	6a 00		 push	 0
  007d9	6a 00		 push	 0
  007db	51		 push	 ecx
  007dc	0f 57 c0	 xorps	 xmm0, xmm0
  007df	f3 0f 11 04 24	 movss	 DWORD PTR [esp], xmm0
  007e4	68 f4 01 00 00	 push	 500			; 000001f4H
  007e9	68 00 01 00 00	 push	 256			; 00000100H
  007ee	6a 01		 push	 1
  007f0	6a 01		 push	 1
  007f2	68 4e 04 00 00	 push	 1102			; 0000044eH
  007f7	e8 00 00 00 00	 call	 ?set_fixed_3d_object_database_item@@YGXHHHHHMW4TARGET_TYPES@@W4TARGET_SYMBOL_TYPES@@@Z ; set_fixed_3d_object_database_item

; 1356 : 	set_fixed_3d_object_database_item (OBJECT_3D_THAI_HOUSING_FC_SLUM_TRAD2, EXPLOSIVE_QUALITY_DUST, EXPLOSIVE_POWER_LOW, WARHEAD_EFFECTIVE_STONE_BUILDING, 500, 0.0, TARGET_TYPE_INVALID, TARGET_SYMBOL_UNKNOWN);

  007fc	6a 00		 push	 0
  007fe	6a 00		 push	 0
  00800	51		 push	 ecx
  00801	0f 57 c0	 xorps	 xmm0, xmm0
  00804	f3 0f 11 04 24	 movss	 DWORD PTR [esp], xmm0
  00809	68 f4 01 00 00	 push	 500			; 000001f4H
  0080e	68 00 01 00 00	 push	 256			; 00000100H
  00813	6a 01		 push	 1
  00815	6a 01		 push	 1
  00817	68 50 04 00 00	 push	 1104			; 00000450H
  0081c	e8 00 00 00 00	 call	 ?set_fixed_3d_object_database_item@@YGXHHHHHMW4TARGET_TYPES@@W4TARGET_SYMBOL_TYPES@@@Z ; set_fixed_3d_object_database_item

; 1357 : 
; 1358 : 	set_fixed_3d_object_database_item (OBJECT_3D_THAI_OUTSKIRTS_FC_PORCH_HUT, EXPLOSIVE_QUALITY_DUST, EXPLOSIVE_POWER_LOW, WARHEAD_EFFECTIVE_STONE_BUILDING, 500, 0.0, TARGET_TYPE_INVALID, TARGET_SYMBOL_UNKNOWN);

  00821	6a 00		 push	 0
  00823	6a 00		 push	 0
  00825	51		 push	 ecx
  00826	0f 57 c0	 xorps	 xmm0, xmm0
  00829	f3 0f 11 04 24	 movss	 DWORD PTR [esp], xmm0
  0082e	68 f4 01 00 00	 push	 500			; 000001f4H
  00833	68 00 01 00 00	 push	 256			; 00000100H
  00838	6a 01		 push	 1
  0083a	6a 01		 push	 1
  0083c	68 7e 04 00 00	 push	 1150			; 0000047eH
  00841	e8 00 00 00 00	 call	 ?set_fixed_3d_object_database_item@@YGXHHHHHMW4TARGET_TYPES@@W4TARGET_SYMBOL_TYPES@@@Z ; set_fixed_3d_object_database_item

; 1359 : 	set_fixed_3d_object_database_item (OBJECT_3D_THAI_OUTSKIRTS_FC_RICE_BARN, EXPLOSIVE_QUALITY_DUST, EXPLOSIVE_POWER_LOW, WARHEAD_EFFECTIVE_STONE_BUILDING, 500, 0.0, TARGET_TYPE_INVALID, TARGET_SYMBOL_UNKNOWN);

  00846	6a 00		 push	 0
  00848	6a 00		 push	 0
  0084a	51		 push	 ecx
  0084b	0f 57 c0	 xorps	 xmm0, xmm0
  0084e	f3 0f 11 04 24	 movss	 DWORD PTR [esp], xmm0
  00853	68 f4 01 00 00	 push	 500			; 000001f4H
  00858	68 00 01 00 00	 push	 256			; 00000100H
  0085d	6a 01		 push	 1
  0085f	6a 01		 push	 1
  00861	68 80 04 00 00	 push	 1152			; 00000480H
  00866	e8 00 00 00 00	 call	 ?set_fixed_3d_object_database_item@@YGXHHHHHMW4TARGET_TYPES@@W4TARGET_SYMBOL_TYPES@@@Z ; set_fixed_3d_object_database_item

; 1360 : 	set_fixed_3d_object_database_item (OBJECT_3D_THAI_OUTSKIRTS_FC_STILT_HUT, EXPLOSIVE_QUALITY_DUST, EXPLOSIVE_POWER_LOW, WARHEAD_EFFECTIVE_STONE_BUILDING, 500, 0.0, TARGET_TYPE_INVALID, TARGET_SYMBOL_UNKNOWN);

  0086b	6a 00		 push	 0
  0086d	6a 00		 push	 0
  0086f	51		 push	 ecx
  00870	0f 57 c0	 xorps	 xmm0, xmm0
  00873	f3 0f 11 04 24	 movss	 DWORD PTR [esp], xmm0
  00878	68 f4 01 00 00	 push	 500			; 000001f4H
  0087d	68 00 01 00 00	 push	 256			; 00000100H
  00882	6a 01		 push	 1
  00884	6a 01		 push	 1
  00886	68 82 04 00 00	 push	 1154			; 00000482H
  0088b	e8 00 00 00 00	 call	 ?set_fixed_3d_object_database_item@@YGXHHHHHMW4TARGET_TYPES@@W4TARGET_SYMBOL_TYPES@@@Z ; set_fixed_3d_object_database_item

; 1361 : 	set_fixed_3d_object_database_item (OBJECT_3D_THAI_OUTSKIRTS_FC_THATCHED_HUT, EXPLOSIVE_QUALITY_DUST, EXPLOSIVE_POWER_LOW, WARHEAD_EFFECTIVE_STONE_BUILDING, 500, 0.0, TARGET_TYPE_INVALID, TARGET_SYMBOL_UNKNOWN);

  00890	6a 00		 push	 0
  00892	6a 00		 push	 0
  00894	51		 push	 ecx
  00895	0f 57 c0	 xorps	 xmm0, xmm0
  00898	f3 0f 11 04 24	 movss	 DWORD PTR [esp], xmm0
  0089d	68 f4 01 00 00	 push	 500			; 000001f4H
  008a2	68 00 01 00 00	 push	 256			; 00000100H
  008a7	6a 01		 push	 1
  008a9	6a 01		 push	 1
  008ab	68 86 04 00 00	 push	 1158			; 00000486H
  008b0	e8 00 00 00 00	 call	 ?set_fixed_3d_object_database_item@@YGXHHHHHMW4TARGET_TYPES@@W4TARGET_SYMBOL_TYPES@@@Z ; set_fixed_3d_object_database_item

; 1362 : 	set_fixed_3d_object_database_item (OBJECT_3D_THAI_OUTSKIRTS_FC_TIN_ROOF_HUT, EXPLOSIVE_QUALITY_DUST, EXPLOSIVE_POWER_LOW, WARHEAD_EFFECTIVE_STONE_BUILDING, 500, 0.0, TARGET_TYPE_INVALID, TARGET_SYMBOL_UNKNOWN);

  008b5	6a 00		 push	 0
  008b7	6a 00		 push	 0
  008b9	51		 push	 ecx
  008ba	0f 57 c0	 xorps	 xmm0, xmm0
  008bd	f3 0f 11 04 24	 movss	 DWORD PTR [esp], xmm0
  008c2	68 f4 01 00 00	 push	 500			; 000001f4H
  008c7	68 00 01 00 00	 push	 256			; 00000100H
  008cc	6a 01		 push	 1
  008ce	6a 01		 push	 1
  008d0	68 88 04 00 00	 push	 1160			; 00000488H
  008d5	e8 00 00 00 00	 call	 ?set_fixed_3d_object_database_item@@YGXHHHHHMW4TARGET_TYPES@@W4TARGET_SYMBOL_TYPES@@@Z ; set_fixed_3d_object_database_item

; 1363 : 
; 1364 : 	set_fixed_3d_object_database_item (OBJECT_3D_HOUSING_FC_SMALLHOLDGROUP001_5M, EXPLOSIVE_QUALITY_DUST, EXPLOSIVE_POWER_LOW, WARHEAD_EFFECTIVE_STONE_BUILDING, 500, 0.0, TARGET_TYPE_INVALID, TARGET_SYMBOL_UNKNOWN);

  008da	6a 00		 push	 0
  008dc	6a 00		 push	 0
  008de	51		 push	 ecx
  008df	0f 57 c0	 xorps	 xmm0, xmm0
  008e2	f3 0f 11 04 24	 movss	 DWORD PTR [esp], xmm0
  008e7	68 f4 01 00 00	 push	 500			; 000001f4H
  008ec	68 00 01 00 00	 push	 256			; 00000100H
  008f1	6a 01		 push	 1
  008f3	6a 01		 push	 1
  008f5	68 32 02 00 00	 push	 562			; 00000232H
  008fa	e8 00 00 00 00	 call	 ?set_fixed_3d_object_database_item@@YGXHHHHHMW4TARGET_TYPES@@W4TARGET_SYMBOL_TYPES@@@Z ; set_fixed_3d_object_database_item

; 1365 : 	set_fixed_3d_object_database_item (OBJECT_3D_HOUSING_FC_SMALLHOLDGROUP002_5M, EXPLOSIVE_QUALITY_DUST, EXPLOSIVE_POWER_LOW, WARHEAD_EFFECTIVE_STONE_BUILDING, 500, 0.0, TARGET_TYPE_INVALID, TARGET_SYMBOL_UNKNOWN);

  008ff	6a 00		 push	 0
  00901	6a 00		 push	 0
  00903	51		 push	 ecx
  00904	0f 57 c0	 xorps	 xmm0, xmm0
  00907	f3 0f 11 04 24	 movss	 DWORD PTR [esp], xmm0
  0090c	68 f4 01 00 00	 push	 500			; 000001f4H
  00911	68 00 01 00 00	 push	 256			; 00000100H
  00916	6a 01		 push	 1
  00918	6a 01		 push	 1
  0091a	68 34 02 00 00	 push	 564			; 00000234H
  0091f	e8 00 00 00 00	 call	 ?set_fixed_3d_object_database_item@@YGXHHHHHMW4TARGET_TYPES@@W4TARGET_SYMBOL_TYPES@@@Z ; set_fixed_3d_object_database_item

; 1366 : 
; 1367 : 	set_fixed_3d_object_database_item (OBJECT_3D_GRG_HOUSING1_2X2, EXPLOSIVE_QUALITY_DUST, EXPLOSIVE_POWER_LOW, WARHEAD_EFFECTIVE_STONE_BUILDING, 500, 0.0, TARGET_TYPE_INVALID, TARGET_SYMBOL_UNKNOWN);

  00924	6a 00		 push	 0
  00926	6a 00		 push	 0
  00928	51		 push	 ecx
  00929	0f 57 c0	 xorps	 xmm0, xmm0
  0092c	f3 0f 11 04 24	 movss	 DWORD PTR [esp], xmm0
  00931	68 f4 01 00 00	 push	 500			; 000001f4H
  00936	68 00 01 00 00	 push	 256			; 00000100H
  0093b	6a 01		 push	 1
  0093d	6a 01		 push	 1
  0093f	68 19 03 00 00	 push	 793			; 00000319H
  00944	e8 00 00 00 00	 call	 ?set_fixed_3d_object_database_item@@YGXHHHHHMW4TARGET_TYPES@@W4TARGET_SYMBOL_TYPES@@@Z ; set_fixed_3d_object_database_item

; 1368 : 	set_fixed_3d_object_database_item (OBJECT_3D_GRG_HOUSING2_2X2, EXPLOSIVE_QUALITY_DUST, EXPLOSIVE_POWER_LOW, WARHEAD_EFFECTIVE_STONE_BUILDING, 500, 0.0, TARGET_TYPE_INVALID, TARGET_SYMBOL_UNKNOWN);

  00949	6a 00		 push	 0
  0094b	6a 00		 push	 0
  0094d	51		 push	 ecx
  0094e	0f 57 c0	 xorps	 xmm0, xmm0
  00951	f3 0f 11 04 24	 movss	 DWORD PTR [esp], xmm0
  00956	68 f4 01 00 00	 push	 500			; 000001f4H
  0095b	68 00 01 00 00	 push	 256			; 00000100H
  00960	6a 01		 push	 1
  00962	6a 01		 push	 1
  00964	68 1a 03 00 00	 push	 794			; 0000031aH
  00969	e8 00 00 00 00	 call	 ?set_fixed_3d_object_database_item@@YGXHHHHHMW4TARGET_TYPES@@W4TARGET_SYMBOL_TYPES@@@Z ; set_fixed_3d_object_database_item

; 1369 : 	set_fixed_3d_object_database_item (OBJECT_3D_GRG_HOUSING3_2X2, EXPLOSIVE_QUALITY_DUST, EXPLOSIVE_POWER_LOW, WARHEAD_EFFECTIVE_STONE_BUILDING, 500, 0.0, TARGET_TYPE_INVALID, TARGET_SYMBOL_UNKNOWN);

  0096e	6a 00		 push	 0
  00970	6a 00		 push	 0
  00972	51		 push	 ecx
  00973	0f 57 c0	 xorps	 xmm0, xmm0
  00976	f3 0f 11 04 24	 movss	 DWORD PTR [esp], xmm0
  0097b	68 f4 01 00 00	 push	 500			; 000001f4H
  00980	68 00 01 00 00	 push	 256			; 00000100H
  00985	6a 01		 push	 1
  00987	6a 01		 push	 1
  00989	68 1b 03 00 00	 push	 795			; 0000031bH
  0098e	e8 00 00 00 00	 call	 ?set_fixed_3d_object_database_item@@YGXHHHHHMW4TARGET_TYPES@@W4TARGET_SYMBOL_TYPES@@@Z ; set_fixed_3d_object_database_item

; 1370 : 	set_fixed_3d_object_database_item (OBJECT_3D_GRG_HOUSING4_2X2, EXPLOSIVE_QUALITY_DUST, EXPLOSIVE_POWER_LOW, WARHEAD_EFFECTIVE_STONE_BUILDING, 500, 0.0, TARGET_TYPE_INVALID, TARGET_SYMBOL_UNKNOWN);

  00993	6a 00		 push	 0
  00995	6a 00		 push	 0
  00997	51		 push	 ecx
  00998	0f 57 c0	 xorps	 xmm0, xmm0
  0099b	f3 0f 11 04 24	 movss	 DWORD PTR [esp], xmm0
  009a0	68 f4 01 00 00	 push	 500			; 000001f4H
  009a5	68 00 01 00 00	 push	 256			; 00000100H
  009aa	6a 01		 push	 1
  009ac	6a 01		 push	 1
  009ae	68 1c 03 00 00	 push	 796			; 0000031cH
  009b3	e8 00 00 00 00	 call	 ?set_fixed_3d_object_database_item@@YGXHHHHHMW4TARGET_TYPES@@W4TARGET_SYMBOL_TYPES@@@Z ; set_fixed_3d_object_database_item

; 1371 : 	set_fixed_3d_object_database_item (OBJECT_3D_GRG_HOUSING5_2X2, EXPLOSIVE_QUALITY_DUST, EXPLOSIVE_POWER_LOW, WARHEAD_EFFECTIVE_STONE_BUILDING, 500, 0.0, TARGET_TYPE_INVALID, TARGET_SYMBOL_UNKNOWN);

  009b8	6a 00		 push	 0
  009ba	6a 00		 push	 0
  009bc	51		 push	 ecx
  009bd	0f 57 c0	 xorps	 xmm0, xmm0
  009c0	f3 0f 11 04 24	 movss	 DWORD PTR [esp], xmm0
  009c5	68 f4 01 00 00	 push	 500			; 000001f4H
  009ca	68 00 01 00 00	 push	 256			; 00000100H
  009cf	6a 01		 push	 1
  009d1	6a 01		 push	 1
  009d3	68 1d 03 00 00	 push	 797			; 0000031dH
  009d8	e8 00 00 00 00	 call	 ?set_fixed_3d_object_database_item@@YGXHHHHHMW4TARGET_TYPES@@W4TARGET_SYMBOL_TYPES@@@Z ; set_fixed_3d_object_database_item

; 1372 : 	set_fixed_3d_object_database_item (OBJECT_3D_GRG_HOUSING6_2X2, EXPLOSIVE_QUALITY_DUST, EXPLOSIVE_POWER_LOW, WARHEAD_EFFECTIVE_STONE_BUILDING, 500, 0.0, TARGET_TYPE_INVALID, TARGET_SYMBOL_UNKNOWN);

  009dd	6a 00		 push	 0
  009df	6a 00		 push	 0
  009e1	51		 push	 ecx
  009e2	0f 57 c0	 xorps	 xmm0, xmm0
  009e5	f3 0f 11 04 24	 movss	 DWORD PTR [esp], xmm0
  009ea	68 f4 01 00 00	 push	 500			; 000001f4H
  009ef	68 00 01 00 00	 push	 256			; 00000100H
  009f4	6a 01		 push	 1
  009f6	6a 01		 push	 1
  009f8	68 1e 03 00 00	 push	 798			; 0000031eH
  009fd	e8 00 00 00 00	 call	 ?set_fixed_3d_object_database_item@@YGXHHHHHMW4TARGET_TYPES@@W4TARGET_SYMBOL_TYPES@@@Z ; set_fixed_3d_object_database_item

; 1373 : 	set_fixed_3d_object_database_item (OBJECT_3D_GRG_HOUSING7_2X2, EXPLOSIVE_QUALITY_DUST, EXPLOSIVE_POWER_LOW, WARHEAD_EFFECTIVE_STONE_BUILDING, 500, 0.0, TARGET_TYPE_INVALID, TARGET_SYMBOL_UNKNOWN);

  00a02	6a 00		 push	 0
  00a04	6a 00		 push	 0
  00a06	51		 push	 ecx
  00a07	0f 57 c0	 xorps	 xmm0, xmm0
  00a0a	f3 0f 11 04 24	 movss	 DWORD PTR [esp], xmm0
  00a0f	68 f4 01 00 00	 push	 500			; 000001f4H
  00a14	68 00 01 00 00	 push	 256			; 00000100H
  00a19	6a 01		 push	 1
  00a1b	6a 01		 push	 1
  00a1d	68 1f 03 00 00	 push	 799			; 0000031fH
  00a22	e8 00 00 00 00	 call	 ?set_fixed_3d_object_database_item@@YGXHHHHHMW4TARGET_TYPES@@W4TARGET_SYMBOL_TYPES@@@Z ; set_fixed_3d_object_database_item

; 1374 : 	set_fixed_3d_object_database_item (OBJECT_3D_GRG_OFFICE1_2X2, EXPLOSIVE_QUALITY_DUST, EXPLOSIVE_POWER_LOW, WARHEAD_EFFECTIVE_STONE_BUILDING, 500, 0.0, TARGET_TYPE_INVALID, TARGET_SYMBOL_UNKNOWN);

  00a27	6a 00		 push	 0
  00a29	6a 00		 push	 0
  00a2b	51		 push	 ecx
  00a2c	0f 57 c0	 xorps	 xmm0, xmm0
  00a2f	f3 0f 11 04 24	 movss	 DWORD PTR [esp], xmm0
  00a34	68 f4 01 00 00	 push	 500			; 000001f4H
  00a39	68 00 01 00 00	 push	 256			; 00000100H
  00a3e	6a 01		 push	 1
  00a40	6a 01		 push	 1
  00a42	68 20 03 00 00	 push	 800			; 00000320H
  00a47	e8 00 00 00 00	 call	 ?set_fixed_3d_object_database_item@@YGXHHHHHMW4TARGET_TYPES@@W4TARGET_SYMBOL_TYPES@@@Z ; set_fixed_3d_object_database_item

; 1375 : 	set_fixed_3d_object_database_item (OBJECT_3D_GRG_OFFICE2_2X2, EXPLOSIVE_QUALITY_DUST, EXPLOSIVE_POWER_LOW, WARHEAD_EFFECTIVE_STONE_BUILDING, 500, 0.0, TARGET_TYPE_INVALID, TARGET_SYMBOL_UNKNOWN);

  00a4c	6a 00		 push	 0
  00a4e	6a 00		 push	 0
  00a50	51		 push	 ecx
  00a51	0f 57 c0	 xorps	 xmm0, xmm0
  00a54	f3 0f 11 04 24	 movss	 DWORD PTR [esp], xmm0
  00a59	68 f4 01 00 00	 push	 500			; 000001f4H
  00a5e	68 00 01 00 00	 push	 256			; 00000100H
  00a63	6a 01		 push	 1
  00a65	6a 01		 push	 1
  00a67	68 21 03 00 00	 push	 801			; 00000321H
  00a6c	e8 00 00 00 00	 call	 ?set_fixed_3d_object_database_item@@YGXHHHHHMW4TARGET_TYPES@@W4TARGET_SYMBOL_TYPES@@@Z ; set_fixed_3d_object_database_item

; 1376 : 	set_fixed_3d_object_database_item (OBJECT_3D_GRG_OFFICE3_2X2, EXPLOSIVE_QUALITY_DUST, EXPLOSIVE_POWER_LOW, WARHEAD_EFFECTIVE_STONE_BUILDING, 500, 0.0, TARGET_TYPE_INVALID, TARGET_SYMBOL_UNKNOWN);

  00a71	6a 00		 push	 0
  00a73	6a 00		 push	 0
  00a75	51		 push	 ecx
  00a76	0f 57 c0	 xorps	 xmm0, xmm0
  00a79	f3 0f 11 04 24	 movss	 DWORD PTR [esp], xmm0
  00a7e	68 f4 01 00 00	 push	 500			; 000001f4H
  00a83	68 00 01 00 00	 push	 256			; 00000100H
  00a88	6a 01		 push	 1
  00a8a	6a 01		 push	 1
  00a8c	68 22 03 00 00	 push	 802			; 00000322H
  00a91	e8 00 00 00 00	 call	 ?set_fixed_3d_object_database_item@@YGXHHHHHMW4TARGET_TYPES@@W4TARGET_SYMBOL_TYPES@@@Z ; set_fixed_3d_object_database_item

; 1377 : 	set_fixed_3d_object_database_item (OBJECT_3D_GRG_OUTSKIRTS1_2X2, EXPLOSIVE_QUALITY_DUST, EXPLOSIVE_POWER_LOW, WARHEAD_EFFECTIVE_STONE_BUILDING, 500, 0.0, TARGET_TYPE_INVALID, TARGET_SYMBOL_UNKNOWN);

  00a96	6a 00		 push	 0
  00a98	6a 00		 push	 0
  00a9a	51		 push	 ecx
  00a9b	0f 57 c0	 xorps	 xmm0, xmm0
  00a9e	f3 0f 11 04 24	 movss	 DWORD PTR [esp], xmm0
  00aa3	68 f4 01 00 00	 push	 500			; 000001f4H
  00aa8	68 00 01 00 00	 push	 256			; 00000100H
  00aad	6a 01		 push	 1
  00aaf	6a 01		 push	 1
  00ab1	68 23 03 00 00	 push	 803			; 00000323H
  00ab6	e8 00 00 00 00	 call	 ?set_fixed_3d_object_database_item@@YGXHHHHHMW4TARGET_TYPES@@W4TARGET_SYMBOL_TYPES@@@Z ; set_fixed_3d_object_database_item

; 1378 : 
; 1379 : 	set_fixed_3d_object_database_item (OBJECT_3D_GRG_OFFICE_FC_CONCRETE_BAR, EXPLOSIVE_QUALITY_DUST, EXPLOSIVE_POWER_LOW, WARHEAD_EFFECTIVE_STONE_BUILDING, 500, 0.0, TARGET_TYPE_INVALID, TARGET_SYMBOL_UNKNOWN);

  00abb	6a 00		 push	 0
  00abd	6a 00		 push	 0
  00abf	51		 push	 ecx
  00ac0	0f 57 c0	 xorps	 xmm0, xmm0
  00ac3	f3 0f 11 04 24	 movss	 DWORD PTR [esp], xmm0
  00ac8	68 f4 01 00 00	 push	 500			; 000001f4H
  00acd	68 00 01 00 00	 push	 256			; 00000100H
  00ad2	6a 01		 push	 1
  00ad4	6a 01		 push	 1
  00ad6	68 41 03 00 00	 push	 833			; 00000341H
  00adb	e8 00 00 00 00	 call	 ?set_fixed_3d_object_database_item@@YGXHHHHHMW4TARGET_TYPES@@W4TARGET_SYMBOL_TYPES@@@Z ; set_fixed_3d_object_database_item

; 1380 : 	set_fixed_3d_object_database_item (OBJECT_3D_GRG_HOUSING_EX_CORNER2X2, EXPLOSIVE_QUALITY_DUST, EXPLOSIVE_POWER_LOW, WARHEAD_EFFECTIVE_STONE_BUILDING, 500, 0.0, TARGET_TYPE_INVALID, TARGET_SYMBOL_UNKNOWN);

  00ae0	6a 00		 push	 0
  00ae2	6a 00		 push	 0
  00ae4	51		 push	 ecx
  00ae5	0f 57 c0	 xorps	 xmm0, xmm0
  00ae8	f3 0f 11 04 24	 movss	 DWORD PTR [esp], xmm0
  00aed	68 f4 01 00 00	 push	 500			; 000001f4H
  00af2	68 00 01 00 00	 push	 256			; 00000100H
  00af7	6a 01		 push	 1
  00af9	6a 01		 push	 1
  00afb	68 43 03 00 00	 push	 835			; 00000343H
  00b00	e8 00 00 00 00	 call	 ?set_fixed_3d_object_database_item@@YGXHHHHHMW4TARGET_TYPES@@W4TARGET_SYMBOL_TYPES@@@Z ; set_fixed_3d_object_database_item

; 1381 : 	set_fixed_3d_object_database_item (OBJECT_3D_GRG_INDUSTRY_FC_SHED001, EXPLOSIVE_QUALITY_DUST, EXPLOSIVE_POWER_LOW, WARHEAD_EFFECTIVE_STONE_BUILDING, 500, 0.0, TARGET_TYPE_INVALID, TARGET_SYMBOL_UNKNOWN);

  00b05	6a 00		 push	 0
  00b07	6a 00		 push	 0
  00b09	51		 push	 ecx
  00b0a	0f 57 c0	 xorps	 xmm0, xmm0
  00b0d	f3 0f 11 04 24	 movss	 DWORD PTR [esp], xmm0
  00b12	68 f4 01 00 00	 push	 500			; 000001f4H
  00b17	68 00 01 00 00	 push	 256			; 00000100H
  00b1c	6a 01		 push	 1
  00b1e	6a 01		 push	 1
  00b20	68 70 03 00 00	 push	 880			; 00000370H
  00b25	e8 00 00 00 00	 call	 ?set_fixed_3d_object_database_item@@YGXHHHHHMW4TARGET_TYPES@@W4TARGET_SYMBOL_TYPES@@@Z ; set_fixed_3d_object_database_item

; 1382 : 	set_fixed_3d_object_database_item (OBJECT_3D_GRG_INDUSTRY_FC_SHED002, EXPLOSIVE_QUALITY_DUST, EXPLOSIVE_POWER_LOW, WARHEAD_EFFECTIVE_STONE_BUILDING, 500, 0.0, TARGET_TYPE_INVALID, TARGET_SYMBOL_UNKNOWN);

  00b2a	6a 00		 push	 0
  00b2c	6a 00		 push	 0
  00b2e	51		 push	 ecx
  00b2f	0f 57 c0	 xorps	 xmm0, xmm0
  00b32	f3 0f 11 04 24	 movss	 DWORD PTR [esp], xmm0
  00b37	68 f4 01 00 00	 push	 500			; 000001f4H
  00b3c	68 00 01 00 00	 push	 256			; 00000100H
  00b41	6a 01		 push	 1
  00b43	6a 01		 push	 1
  00b45	68 71 03 00 00	 push	 881			; 00000371H
  00b4a	e8 00 00 00 00	 call	 ?set_fixed_3d_object_database_item@@YGXHHHHHMW4TARGET_TYPES@@W4TARGET_SYMBOL_TYPES@@@Z ; set_fixed_3d_object_database_item

; 1383 : 	set_fixed_3d_object_database_item (OBJECT_3D_GRG_INDUSTRY_FC_SHED003, EXPLOSIVE_QUALITY_DUST, EXPLOSIVE_POWER_LOW, WARHEAD_EFFECTIVE_STONE_BUILDING, 500, 0.0, TARGET_TYPE_INVALID, TARGET_SYMBOL_UNKNOWN);

  00b4f	6a 00		 push	 0
  00b51	6a 00		 push	 0
  00b53	51		 push	 ecx
  00b54	0f 57 c0	 xorps	 xmm0, xmm0
  00b57	f3 0f 11 04 24	 movss	 DWORD PTR [esp], xmm0
  00b5c	68 f4 01 00 00	 push	 500			; 000001f4H
  00b61	68 00 01 00 00	 push	 256			; 00000100H
  00b66	6a 01		 push	 1
  00b68	6a 01		 push	 1
  00b6a	68 72 03 00 00	 push	 882			; 00000372H
  00b6f	e8 00 00 00 00	 call	 ?set_fixed_3d_object_database_item@@YGXHHHHHMW4TARGET_TYPES@@W4TARGET_SYMBOL_TYPES@@@Z ; set_fixed_3d_object_database_item

; 1384 : 	set_fixed_3d_object_database_item (OBJECT_3D_GRG_INDUSTRY_FC_SHED004, EXPLOSIVE_QUALITY_DUST, EXPLOSIVE_POWER_LOW, WARHEAD_EFFECTIVE_STONE_BUILDING, 500, 0.0, TARGET_TYPE_INVALID, TARGET_SYMBOL_UNKNOWN);

  00b74	6a 00		 push	 0
  00b76	6a 00		 push	 0
  00b78	51		 push	 ecx
  00b79	0f 57 c0	 xorps	 xmm0, xmm0
  00b7c	f3 0f 11 04 24	 movss	 DWORD PTR [esp], xmm0
  00b81	68 f4 01 00 00	 push	 500			; 000001f4H
  00b86	68 00 01 00 00	 push	 256			; 00000100H
  00b8b	6a 01		 push	 1
  00b8d	6a 01		 push	 1
  00b8f	68 73 03 00 00	 push	 883			; 00000373H
  00b94	e8 00 00 00 00	 call	 ?set_fixed_3d_object_database_item@@YGXHHHHHMW4TARGET_TYPES@@W4TARGET_SYMBOL_TYPES@@@Z ; set_fixed_3d_object_database_item

; 1385 : 	set_fixed_3d_object_database_item (OBJECT_3D_GRG_INDUSTRY_FC_SHED005, EXPLOSIVE_QUALITY_DUST, EXPLOSIVE_POWER_LOW, WARHEAD_EFFECTIVE_STONE_BUILDING, 500, 0.0, TARGET_TYPE_INVALID, TARGET_SYMBOL_UNKNOWN);

  00b99	6a 00		 push	 0
  00b9b	6a 00		 push	 0
  00b9d	51		 push	 ecx
  00b9e	0f 57 c0	 xorps	 xmm0, xmm0
  00ba1	f3 0f 11 04 24	 movss	 DWORD PTR [esp], xmm0
  00ba6	68 f4 01 00 00	 push	 500			; 000001f4H
  00bab	68 00 01 00 00	 push	 256			; 00000100H
  00bb0	6a 01		 push	 1
  00bb2	6a 01		 push	 1
  00bb4	68 74 03 00 00	 push	 884			; 00000374H
  00bb9	e8 00 00 00 00	 call	 ?set_fixed_3d_object_database_item@@YGXHHHHHMW4TARGET_TYPES@@W4TARGET_SYMBOL_TYPES@@@Z ; set_fixed_3d_object_database_item

; 1386 : 
; 1387 : 	set_fixed_3d_object_database_item (OBJECT_3D_GRG_OUTSKIRTS_FC_HOUSE1, EXPLOSIVE_QUALITY_DUST, EXPLOSIVE_POWER_LOW, WARHEAD_EFFECTIVE_STONE_BUILDING, 500, 0.0, TARGET_TYPE_INVALID, TARGET_SYMBOL_UNKNOWN);

  00bbe	6a 00		 push	 0
  00bc0	6a 00		 push	 0
  00bc2	51		 push	 ecx
  00bc3	0f 57 c0	 xorps	 xmm0, xmm0
  00bc6	f3 0f 11 04 24	 movss	 DWORD PTR [esp], xmm0
  00bcb	68 f4 01 00 00	 push	 500			; 000001f4H
  00bd0	68 00 01 00 00	 push	 256			; 00000100H
  00bd5	6a 01		 push	 1
  00bd7	6a 01		 push	 1
  00bd9	68 8e 03 00 00	 push	 910			; 0000038eH
  00bde	e8 00 00 00 00	 call	 ?set_fixed_3d_object_database_item@@YGXHHHHHMW4TARGET_TYPES@@W4TARGET_SYMBOL_TYPES@@@Z ; set_fixed_3d_object_database_item

; 1388 : 
; 1389 : 	set_fixed_3d_object_database_item (OBJECT_3D_GRG_OUTSKIRTS_FR_LSHACK, EXPLOSIVE_QUALITY_DUST, EXPLOSIVE_POWER_LOW, WARHEAD_EFFECTIVE_STONE_BUILDING, 500, 0.0, TARGET_TYPE_INVALID, TARGET_SYMBOL_UNKNOWN);

  00be3	6a 00		 push	 0
  00be5	6a 00		 push	 0
  00be7	51		 push	 ecx
  00be8	0f 57 c0	 xorps	 xmm0, xmm0
  00beb	f3 0f 11 04 24	 movss	 DWORD PTR [esp], xmm0
  00bf0	68 f4 01 00 00	 push	 500			; 000001f4H
  00bf5	68 00 01 00 00	 push	 256			; 00000100H
  00bfa	6a 01		 push	 1
  00bfc	6a 01		 push	 1
  00bfe	68 8c 03 00 00	 push	 908			; 0000038cH
  00c03	e8 00 00 00 00	 call	 ?set_fixed_3d_object_database_item@@YGXHHHHHMW4TARGET_TYPES@@W4TARGET_SYMBOL_TYPES@@@Z ; set_fixed_3d_object_database_item

; 1390 : 	set_fixed_3d_object_database_item (OBJECT_3D_GRG_OUTSKIRTS_FC_HOUSE2, EXPLOSIVE_QUALITY_DUST, EXPLOSIVE_POWER_LOW, WARHEAD_EFFECTIVE_STONE_BUILDING, 500, 0.0, TARGET_TYPE_INVALID, TARGET_SYMBOL_UNKNOWN);

  00c08	6a 00		 push	 0
  00c0a	6a 00		 push	 0
  00c0c	51		 push	 ecx
  00c0d	0f 57 c0	 xorps	 xmm0, xmm0
  00c10	f3 0f 11 04 24	 movss	 DWORD PTR [esp], xmm0
  00c15	68 f4 01 00 00	 push	 500			; 000001f4H
  00c1a	68 00 01 00 00	 push	 256			; 00000100H
  00c1f	6a 01		 push	 1
  00c21	6a 01		 push	 1
  00c23	68 90 03 00 00	 push	 912			; 00000390H
  00c28	e8 00 00 00 00	 call	 ?set_fixed_3d_object_database_item@@YGXHHHHHMW4TARGET_TYPES@@W4TARGET_SYMBOL_TYPES@@@Z ; set_fixed_3d_object_database_item

; 1391 : 	set_fixed_3d_object_database_item (OBJECT_3D_GRG_OUTSKIRTS_FC_HOUSE3, EXPLOSIVE_QUALITY_DUST, EXPLOSIVE_POWER_LOW, WARHEAD_EFFECTIVE_STONE_BUILDING, 500, 0.0, TARGET_TYPE_INVALID, TARGET_SYMBOL_UNKNOWN);

  00c2d	6a 00		 push	 0
  00c2f	6a 00		 push	 0
  00c31	51		 push	 ecx
  00c32	0f 57 c0	 xorps	 xmm0, xmm0
  00c35	f3 0f 11 04 24	 movss	 DWORD PTR [esp], xmm0
  00c3a	68 f4 01 00 00	 push	 500			; 000001f4H
  00c3f	68 00 01 00 00	 push	 256			; 00000100H
  00c44	6a 01		 push	 1
  00c46	6a 01		 push	 1
  00c48	68 92 03 00 00	 push	 914			; 00000392H
  00c4d	e8 00 00 00 00	 call	 ?set_fixed_3d_object_database_item@@YGXHHHHHMW4TARGET_TYPES@@W4TARGET_SYMBOL_TYPES@@@Z ; set_fixed_3d_object_database_item

; 1392 : 	set_fixed_3d_object_database_item (OBJECT_3D_GRG_OUTSKIRTS_FC_HOUSE4, EXPLOSIVE_QUALITY_DUST, EXPLOSIVE_POWER_LOW, WARHEAD_EFFECTIVE_STONE_BUILDING, 500, 0.0, TARGET_TYPE_INVALID, TARGET_SYMBOL_UNKNOWN);

  00c52	6a 00		 push	 0
  00c54	6a 00		 push	 0
  00c56	51		 push	 ecx
  00c57	0f 57 c0	 xorps	 xmm0, xmm0
  00c5a	f3 0f 11 04 24	 movss	 DWORD PTR [esp], xmm0
  00c5f	68 f4 01 00 00	 push	 500			; 000001f4H
  00c64	68 00 01 00 00	 push	 256			; 00000100H
  00c69	6a 01		 push	 1
  00c6b	6a 01		 push	 1
  00c6d	68 94 03 00 00	 push	 916			; 00000394H
  00c72	e8 00 00 00 00	 call	 ?set_fixed_3d_object_database_item@@YGXHHHHHMW4TARGET_TYPES@@W4TARGET_SYMBOL_TYPES@@@Z ; set_fixed_3d_object_database_item

; 1393 : 	set_fixed_3d_object_database_item (OBJECT_3D_GRG_OUTSKIRTS_FC_HOUSE5, EXPLOSIVE_QUALITY_DUST, EXPLOSIVE_POWER_LOW, WARHEAD_EFFECTIVE_STONE_BUILDING, 500, 0.0, TARGET_TYPE_INVALID, TARGET_SYMBOL_UNKNOWN);

  00c77	6a 00		 push	 0
  00c79	6a 00		 push	 0
  00c7b	51		 push	 ecx
  00c7c	0f 57 c0	 xorps	 xmm0, xmm0
  00c7f	f3 0f 11 04 24	 movss	 DWORD PTR [esp], xmm0
  00c84	68 f4 01 00 00	 push	 500			; 000001f4H
  00c89	68 00 01 00 00	 push	 256			; 00000100H
  00c8e	6a 01		 push	 1
  00c90	6a 01		 push	 1
  00c92	68 96 03 00 00	 push	 918			; 00000396H
  00c97	e8 00 00 00 00	 call	 ?set_fixed_3d_object_database_item@@YGXHHHHHMW4TARGET_TYPES@@W4TARGET_SYMBOL_TYPES@@@Z ; set_fixed_3d_object_database_item

; 1394 : 
; 1395 : 	set_fixed_3d_object_database_item (OBJECT_3D_GRG_CHURCH_EX_CHURCH2, EXPLOSIVE_QUALITY_DUST, EXPLOSIVE_POWER_LOW, WARHEAD_EFFECTIVE_STONE_BUILDING, 500, 0.0, TARGET_TYPE_INVALID, TARGET_SYMBOL_UNKNOWN);

  00c9c	6a 00		 push	 0
  00c9e	6a 00		 push	 0
  00ca0	51		 push	 ecx
  00ca1	0f 57 c0	 xorps	 xmm0, xmm0
  00ca4	f3 0f 11 04 24	 movss	 DWORD PTR [esp], xmm0
  00ca9	68 f4 01 00 00	 push	 500			; 000001f4H
  00cae	68 00 01 00 00	 push	 256			; 00000100H
  00cb3	6a 01		 push	 1
  00cb5	6a 01		 push	 1
  00cb7	68 2e 03 00 00	 push	 814			; 0000032eH
  00cbc	e8 00 00 00 00	 call	 ?set_fixed_3d_object_database_item@@YGXHHHHHMW4TARGET_TYPES@@W4TARGET_SYMBOL_TYPES@@@Z ; set_fixed_3d_object_database_item

; 1396 : 	set_fixed_3d_object_database_item (OBJECT_3D_GRG_CHURCH_IN_CHURCH2, EXPLOSIVE_QUALITY_DUST, EXPLOSIVE_POWER_LOW, WARHEAD_EFFECTIVE_STONE_BUILDING, 500, 0.0, TARGET_TYPE_INVALID, TARGET_SYMBOL_UNKNOWN);

  00cc1	6a 00		 push	 0
  00cc3	6a 00		 push	 0
  00cc5	51		 push	 ecx
  00cc6	0f 57 c0	 xorps	 xmm0, xmm0
  00cc9	f3 0f 11 04 24	 movss	 DWORD PTR [esp], xmm0
  00cce	68 f4 01 00 00	 push	 500			; 000001f4H
  00cd3	68 00 01 00 00	 push	 256			; 00000100H
  00cd8	6a 01		 push	 1
  00cda	6a 01		 push	 1
  00cdc	68 30 03 00 00	 push	 816			; 00000330H
  00ce1	e8 00 00 00 00	 call	 ?set_fixed_3d_object_database_item@@YGXHHHHHMW4TARGET_TYPES@@W4TARGET_SYMBOL_TYPES@@@Z ; set_fixed_3d_object_database_item

; 1397 : 	set_fixed_3d_object_database_item (OBJECT_3D_GRG_CHURCH_EX_CHURCH1, EXPLOSIVE_QUALITY_DUST, EXPLOSIVE_POWER_LOW, WARHEAD_EFFECTIVE_STONE_BUILDING, 500, 0.0, TARGET_TYPE_INVALID, TARGET_SYMBOL_UNKNOWN);

  00ce6	6a 00		 push	 0
  00ce8	6a 00		 push	 0
  00cea	51		 push	 ecx
  00ceb	0f 57 c0	 xorps	 xmm0, xmm0
  00cee	f3 0f 11 04 24	 movss	 DWORD PTR [esp], xmm0
  00cf3	68 f4 01 00 00	 push	 500			; 000001f4H
  00cf8	68 00 01 00 00	 push	 256			; 00000100H
  00cfd	6a 01		 push	 1
  00cff	6a 01		 push	 1
  00d01	68 34 03 00 00	 push	 820			; 00000334H
  00d06	e8 00 00 00 00	 call	 ?set_fixed_3d_object_database_item@@YGXHHHHHMW4TARGET_TYPES@@W4TARGET_SYMBOL_TYPES@@@Z ; set_fixed_3d_object_database_item

; 1398 : 	set_fixed_3d_object_database_item (OBJECT_3D_GRG_CHURCH_IN_CHURCH1, EXPLOSIVE_QUALITY_DUST, EXPLOSIVE_POWER_LOW, WARHEAD_EFFECTIVE_STONE_BUILDING, 500, 0.0, TARGET_TYPE_INVALID, TARGET_SYMBOL_UNKNOWN);

  00d0b	6a 00		 push	 0
  00d0d	6a 00		 push	 0
  00d0f	51		 push	 ecx
  00d10	0f 57 c0	 xorps	 xmm0, xmm0
  00d13	f3 0f 11 04 24	 movss	 DWORD PTR [esp], xmm0
  00d18	68 f4 01 00 00	 push	 500			; 000001f4H
  00d1d	68 00 01 00 00	 push	 256			; 00000100H
  00d22	6a 01		 push	 1
  00d24	6a 01		 push	 1
  00d26	68 36 03 00 00	 push	 822			; 00000336H
  00d2b	e8 00 00 00 00	 call	 ?set_fixed_3d_object_database_item@@YGXHHHHHMW4TARGET_TYPES@@W4TARGET_SYMBOL_TYPES@@@Z ; set_fixed_3d_object_database_item

; 1399 : 
; 1400 : 	set_fixed_3d_object_database_item (OBJECT_3D_LEBANON_KEY_MILITARY_FR_AMERICAN_HUT01, EXPLOSIVE_QUALITY_DUST, EXPLOSIVE_POWER_LOW, WARHEAD_EFFECTIVE_STONE_BUILDING, 500, 0.0, TARGET_TYPE_INVALID, TARGET_SYMBOL_UNKNOWN);

  00d30	6a 00		 push	 0
  00d32	6a 00		 push	 0
  00d34	51		 push	 ecx
  00d35	0f 57 c0	 xorps	 xmm0, xmm0
  00d38	f3 0f 11 04 24	 movss	 DWORD PTR [esp], xmm0
  00d3d	68 f4 01 00 00	 push	 500			; 000001f4H
  00d42	68 00 01 00 00	 push	 256			; 00000100H
  00d47	6a 01		 push	 1
  00d49	6a 01		 push	 1
  00d4b	68 12 06 00 00	 push	 1554			; 00000612H
  00d50	e8 00 00 00 00	 call	 ?set_fixed_3d_object_database_item@@YGXHHHHHMW4TARGET_TYPES@@W4TARGET_SYMBOL_TYPES@@@Z ; set_fixed_3d_object_database_item

; 1401 : 
; 1402 : 	set_fixed_3d_object_database_item (OBJECT_3D_Y_KEY_MILITARY_FC_GUARD_POST01, EXPLOSIVE_QUALITY_DUST, EXPLOSIVE_POWER_LOW, WARHEAD_EFFECTIVE_STONE_BUILDING, 250, 0.0, TARGET_TYPE_INVALID, TARGET_SYMBOL_UNKNOWN);

  00d55	6a 00		 push	 0
  00d57	6a 00		 push	 0
  00d59	51		 push	 ecx
  00d5a	0f 57 c0	 xorps	 xmm0, xmm0
  00d5d	f3 0f 11 04 24	 movss	 DWORD PTR [esp], xmm0
  00d62	68 fa 00 00 00	 push	 250			; 000000faH
  00d67	68 00 01 00 00	 push	 256			; 00000100H
  00d6c	6a 01		 push	 1
  00d6e	6a 01		 push	 1
  00d70	68 15 09 00 00	 push	 2325			; 00000915H
  00d75	e8 00 00 00 00	 call	 ?set_fixed_3d_object_database_item@@YGXHHHHHMW4TARGET_TYPES@@W4TARGET_SYMBOL_TYPES@@@Z ; set_fixed_3d_object_database_item

; 1403 : }

  00d7a	5f		 pop	 edi
  00d7b	5e		 pop	 esi
  00d7c	5b		 pop	 ebx
  00d7d	8b e5		 mov	 esp, ebp
  00d7f	5d		 pop	 ebp
  00d80	c3		 ret	 0
?initialise_zero_importance_small_stone_buildings@@YGXXZ ENDP ; initialise_zero_importance_small_stone_buildings
_TEXT	ENDS
; Function compile flags: /Odtp /ZI
; File c:\users\nhv90\projects\eech\aphavoc\source\entity\fixed\fx_objdb.c
;	COMDAT ?initialise_zero_importance_medium_stone_buildings@@YGXXZ
_TEXT	SEGMENT
?initialise_zero_importance_medium_stone_buildings@@YGXXZ PROC ; initialise_zero_importance_medium_stone_buildings, COMDAT

; 1134 : {

  00000	55		 push	 ebp
  00001	8b ec		 mov	 ebp, esp
  00003	83 ec 40	 sub	 esp, 64			; 00000040H
  00006	53		 push	 ebx
  00007	56		 push	 esi
  00008	57		 push	 edi

; 1135 : 	////////////////////////////////////////////////////////////////////////////////////
; 1136 : 	//
; 1137 : 	// ZERO IMPORTANCE MEDIUM STONE BUILDINGS
; 1138 : 	//
; 1139 : 	////////////////////////////////////////////////////////////////////////////////////
; 1140 : 
; 1141 : 	// VALID TARGETS
; 1142 : 
; 1143 : 	// INVALID TARGETS
; 1144 : 
; 1145 : 	set_fixed_3d_object_database_item (OBJECT_3D_CHURCH_FC_CATHEDRAL001_75M, EXPLOSIVE_QUALITY_DUST, EXPLOSIVE_POWER_MEDIUM, WARHEAD_EFFECTIVE_STONE_BUILDING, 1200, 0.0, TARGET_TYPE_INVALID, TARGET_SYMBOL_UNKNOWN);

  00009	6a 00		 push	 0
  0000b	6a 00		 push	 0
  0000d	51		 push	 ecx
  0000e	0f 57 c0	 xorps	 xmm0, xmm0
  00011	f3 0f 11 04 24	 movss	 DWORD PTR [esp], xmm0
  00016	68 b0 04 00 00	 push	 1200			; 000004b0H
  0001b	68 00 01 00 00	 push	 256			; 00000100H
  00020	6a 02		 push	 2
  00022	6a 01		 push	 1
  00024	68 d8 01 00 00	 push	 472			; 000001d8H
  00029	e8 00 00 00 00	 call	 ?set_fixed_3d_object_database_item@@YGXHHHHHMW4TARGET_TYPES@@W4TARGET_SYMBOL_TYPES@@@Z ; set_fixed_3d_object_database_item

; 1146 : 	set_fixed_3d_object_database_item (OBJECT_3D_CHURCH_FC_SINGLETOWER001_40M, EXPLOSIVE_QUALITY_DUST, EXPLOSIVE_POWER_MEDIUM, WARHEAD_EFFECTIVE_STONE_BUILDING, 1200, 0.0, TARGET_TYPE_INVALID, TARGET_SYMBOL_UNKNOWN);

  0002e	6a 00		 push	 0
  00030	6a 00		 push	 0
  00032	51		 push	 ecx
  00033	0f 57 c0	 xorps	 xmm0, xmm0
  00036	f3 0f 11 04 24	 movss	 DWORD PTR [esp], xmm0
  0003b	68 b0 04 00 00	 push	 1200			; 000004b0H
  00040	68 00 01 00 00	 push	 256			; 00000100H
  00045	6a 02		 push	 2
  00047	6a 01		 push	 1
  00049	68 da 01 00 00	 push	 474			; 000001daH
  0004e	e8 00 00 00 00	 call	 ?set_fixed_3d_object_database_item@@YGXHHHHHMW4TARGET_TYPES@@W4TARGET_SYMBOL_TYPES@@@Z ; set_fixed_3d_object_database_item

; 1147 : 	set_fixed_3d_object_database_item (OBJECT_3D_CHURCH_FC_TWINTOWER001_50M, EXPLOSIVE_QUALITY_DUST, EXPLOSIVE_POWER_MEDIUM, WARHEAD_EFFECTIVE_STONE_BUILDING, 1200, 0.0, TARGET_TYPE_INVALID, TARGET_SYMBOL_UNKNOWN);

  00053	6a 00		 push	 0
  00055	6a 00		 push	 0
  00057	51		 push	 ecx
  00058	0f 57 c0	 xorps	 xmm0, xmm0
  0005b	f3 0f 11 04 24	 movss	 DWORD PTR [esp], xmm0
  00060	68 b0 04 00 00	 push	 1200			; 000004b0H
  00065	68 00 01 00 00	 push	 256			; 00000100H
  0006a	6a 02		 push	 2
  0006c	6a 01		 push	 1
  0006e	68 dc 01 00 00	 push	 476			; 000001dcH
  00073	e8 00 00 00 00	 call	 ?set_fixed_3d_object_database_item@@YGXHHHHHMW4TARGET_TYPES@@W4TARGET_SYMBOL_TYPES@@@Z ; set_fixed_3d_object_database_item

; 1148 : 
; 1149 : 	set_fixed_3d_object_database_item (OBJECT_3D_CULTURAL_FC_GOVTOFFICE001_60M, EXPLOSIVE_QUALITY_DUST, EXPLOSIVE_POWER_MEDIUM, WARHEAD_EFFECTIVE_STONE_BUILDING, 1200, 0.0, TARGET_TYPE_INVALID, TARGET_SYMBOL_UNKNOWN);

  00078	6a 00		 push	 0
  0007a	6a 00		 push	 0
  0007c	51		 push	 ecx
  0007d	0f 57 c0	 xorps	 xmm0, xmm0
  00080	f3 0f 11 04 24	 movss	 DWORD PTR [esp], xmm0
  00085	68 b0 04 00 00	 push	 1200			; 000004b0H
  0008a	68 00 01 00 00	 push	 256			; 00000100H
  0008f	6a 02		 push	 2
  00091	6a 01		 push	 1
  00093	68 e0 01 00 00	 push	 480			; 000001e0H
  00098	e8 00 00 00 00	 call	 ?set_fixed_3d_object_database_item@@YGXHHHHHMW4TARGET_TYPES@@W4TARGET_SYMBOL_TYPES@@@Z ; set_fixed_3d_object_database_item

; 1150 : 	set_fixed_3d_object_database_item (OBJECT_3D_CULTURAL_FC_TOWNHALL001_19M, EXPLOSIVE_QUALITY_DUST, EXPLOSIVE_POWER_MEDIUM, WARHEAD_EFFECTIVE_STONE_BUILDING, 1200, 0.0, TARGET_TYPE_INVALID, TARGET_SYMBOL_UNKNOWN);

  0009d	6a 00		 push	 0
  0009f	6a 00		 push	 0
  000a1	51		 push	 ecx
  000a2	0f 57 c0	 xorps	 xmm0, xmm0
  000a5	f3 0f 11 04 24	 movss	 DWORD PTR [esp], xmm0
  000aa	68 b0 04 00 00	 push	 1200			; 000004b0H
  000af	68 00 01 00 00	 push	 256			; 00000100H
  000b4	6a 02		 push	 2
  000b6	6a 01		 push	 1
  000b8	68 e2 01 00 00	 push	 482			; 000001e2H
  000bd	e8 00 00 00 00	 call	 ?set_fixed_3d_object_database_item@@YGXHHHHHMW4TARGET_TYPES@@W4TARGET_SYMBOL_TYPES@@@Z ; set_fixed_3d_object_database_item

; 1151 : 	set_fixed_3d_object_database_item (OBJECT_3D_CULTURAL_FC_TOWNHALL001_28M, EXPLOSIVE_QUALITY_DUST, EXPLOSIVE_POWER_MEDIUM, WARHEAD_EFFECTIVE_STONE_BUILDING, 1200, 0.0, TARGET_TYPE_INVALID, TARGET_SYMBOL_UNKNOWN);

  000c2	6a 00		 push	 0
  000c4	6a 00		 push	 0
  000c6	51		 push	 ecx
  000c7	0f 57 c0	 xorps	 xmm0, xmm0
  000ca	f3 0f 11 04 24	 movss	 DWORD PTR [esp], xmm0
  000cf	68 b0 04 00 00	 push	 1200			; 000004b0H
  000d4	68 00 01 00 00	 push	 256			; 00000100H
  000d9	6a 02		 push	 2
  000db	6a 01		 push	 1
  000dd	68 e4 01 00 00	 push	 484			; 000001e4H
  000e2	e8 00 00 00 00	 call	 ?set_fixed_3d_object_database_item@@YGXHHHHHMW4TARGET_TYPES@@W4TARGET_SYMBOL_TYPES@@@Z ; set_fixed_3d_object_database_item

; 1152 : 
; 1153 : 	set_fixed_3d_object_database_item (OBJECT_3D_HOUSING_FC_STONEAPART002_10M, EXPLOSIVE_QUALITY_DUST, EXPLOSIVE_POWER_MEDIUM, WARHEAD_EFFECTIVE_STONE_BUILDING, 1200, 0.0, TARGET_TYPE_INVALID, TARGET_SYMBOL_UNKNOWN);

  000e7	6a 00		 push	 0
  000e9	6a 00		 push	 0
  000eb	51		 push	 ecx
  000ec	0f 57 c0	 xorps	 xmm0, xmm0
  000ef	f3 0f 11 04 24	 movss	 DWORD PTR [esp], xmm0
  000f4	68 b0 04 00 00	 push	 1200			; 000004b0H
  000f9	68 00 01 00 00	 push	 256			; 00000100H
  000fe	6a 02		 push	 2
  00100	6a 01		 push	 1
  00102	68 16 02 00 00	 push	 534			; 00000216H
  00107	e8 00 00 00 00	 call	 ?set_fixed_3d_object_database_item@@YGXHHHHHMW4TARGET_TYPES@@W4TARGET_SYMBOL_TYPES@@@Z ; set_fixed_3d_object_database_item

; 1154 : 	set_fixed_3d_object_database_item (OBJECT_3D_HOUSING_FC_STONEAPART002_19M, EXPLOSIVE_QUALITY_DUST, EXPLOSIVE_POWER_MEDIUM, WARHEAD_EFFECTIVE_STONE_BUILDING, 1200, 0.0, TARGET_TYPE_INVALID, TARGET_SYMBOL_UNKNOWN);

  0010c	6a 00		 push	 0
  0010e	6a 00		 push	 0
  00110	51		 push	 ecx
  00111	0f 57 c0	 xorps	 xmm0, xmm0
  00114	f3 0f 11 04 24	 movss	 DWORD PTR [esp], xmm0
  00119	68 b0 04 00 00	 push	 1200			; 000004b0H
  0011e	68 00 01 00 00	 push	 256			; 00000100H
  00123	6a 02		 push	 2
  00125	6a 01		 push	 1
  00127	68 18 02 00 00	 push	 536			; 00000218H
  0012c	e8 00 00 00 00	 call	 ?set_fixed_3d_object_database_item@@YGXHHHHHMW4TARGET_TYPES@@W4TARGET_SYMBOL_TYPES@@@Z ; set_fixed_3d_object_database_item

; 1155 : 
; 1156 : 	set_fixed_3d_object_database_item (OBJECT_3D_INDUSTRY_FC_SHED001_10M, EXPLOSIVE_QUALITY_DUST, EXPLOSIVE_POWER_MEDIUM, WARHEAD_EFFECTIVE_STONE_BUILDING, 1200, 0.0, TARGET_TYPE_INVALID, TARGET_SYMBOL_UNKNOWN);

  00131	6a 00		 push	 0
  00133	6a 00		 push	 0
  00135	51		 push	 ecx
  00136	0f 57 c0	 xorps	 xmm0, xmm0
  00139	f3 0f 11 04 24	 movss	 DWORD PTR [esp], xmm0
  0013e	68 b0 04 00 00	 push	 1200			; 000004b0H
  00143	68 00 01 00 00	 push	 256			; 00000100H
  00148	6a 02		 push	 2
  0014a	6a 01		 push	 1
  0014c	68 50 02 00 00	 push	 592			; 00000250H
  00151	e8 00 00 00 00	 call	 ?set_fixed_3d_object_database_item@@YGXHHHHHMW4TARGET_TYPES@@W4TARGET_SYMBOL_TYPES@@@Z ; set_fixed_3d_object_database_item

; 1157 : 	set_fixed_3d_object_database_item (OBJECT_3D_INDUSTRY_FC_SHED001_20M, EXPLOSIVE_QUALITY_DUST, EXPLOSIVE_POWER_MEDIUM, WARHEAD_EFFECTIVE_STONE_BUILDING, 1200, 0.0, TARGET_TYPE_INVALID, TARGET_SYMBOL_UNKNOWN);

  00156	6a 00		 push	 0
  00158	6a 00		 push	 0
  0015a	51		 push	 ecx
  0015b	0f 57 c0	 xorps	 xmm0, xmm0
  0015e	f3 0f 11 04 24	 movss	 DWORD PTR [esp], xmm0
  00163	68 b0 04 00 00	 push	 1200			; 000004b0H
  00168	68 00 01 00 00	 push	 256			; 00000100H
  0016d	6a 02		 push	 2
  0016f	6a 01		 push	 1
  00171	68 52 02 00 00	 push	 594			; 00000252H
  00176	e8 00 00 00 00	 call	 ?set_fixed_3d_object_database_item@@YGXHHHHHMW4TARGET_TYPES@@W4TARGET_SYMBOL_TYPES@@@Z ; set_fixed_3d_object_database_item

; 1158 : 	set_fixed_3d_object_database_item (OBJECT_3D_INDUSTRY_FC_SHED001_20M_6X2, EXPLOSIVE_QUALITY_DUST, EXPLOSIVE_POWER_MEDIUM, WARHEAD_EFFECTIVE_STONE_BUILDING, 1200, 0.0, TARGET_TYPE_INVALID, TARGET_SYMBOL_UNKNOWN);

  0017b	6a 00		 push	 0
  0017d	6a 00		 push	 0
  0017f	51		 push	 ecx
  00180	0f 57 c0	 xorps	 xmm0, xmm0
  00183	f3 0f 11 04 24	 movss	 DWORD PTR [esp], xmm0
  00188	68 b0 04 00 00	 push	 1200			; 000004b0H
  0018d	68 00 01 00 00	 push	 256			; 00000100H
  00192	6a 02		 push	 2
  00194	6a 01		 push	 1
  00196	68 54 02 00 00	 push	 596			; 00000254H
  0019b	e8 00 00 00 00	 call	 ?set_fixed_3d_object_database_item@@YGXHHHHHMW4TARGET_TYPES@@W4TARGET_SYMBOL_TYPES@@@Z ; set_fixed_3d_object_database_item

; 1159 : 	set_fixed_3d_object_database_item (OBJECT_3D_INDUSTRY_FC_SHED002_10M_8X3, EXPLOSIVE_QUALITY_DUST, EXPLOSIVE_POWER_MEDIUM, WARHEAD_EFFECTIVE_STONE_BUILDING, 1200, 0.0, TARGET_TYPE_INVALID, TARGET_SYMBOL_UNKNOWN);

  001a0	6a 00		 push	 0
  001a2	6a 00		 push	 0
  001a4	51		 push	 ecx
  001a5	0f 57 c0	 xorps	 xmm0, xmm0
  001a8	f3 0f 11 04 24	 movss	 DWORD PTR [esp], xmm0
  001ad	68 b0 04 00 00	 push	 1200			; 000004b0H
  001b2	68 00 01 00 00	 push	 256			; 00000100H
  001b7	6a 02		 push	 2
  001b9	6a 01		 push	 1
  001bb	68 56 02 00 00	 push	 598			; 00000256H
  001c0	e8 00 00 00 00	 call	 ?set_fixed_3d_object_database_item@@YGXHHHHHMW4TARGET_TYPES@@W4TARGET_SYMBOL_TYPES@@@Z ; set_fixed_3d_object_database_item

; 1160 : 	set_fixed_3d_object_database_item (OBJECT_3D_INDUSTRY_FC_SHED003_10M_3X1, EXPLOSIVE_QUALITY_DUST, EXPLOSIVE_POWER_MEDIUM, WARHEAD_EFFECTIVE_STONE_BUILDING, 1200, 0.0, TARGET_TYPE_INVALID, TARGET_SYMBOL_UNKNOWN);

  001c5	6a 00		 push	 0
  001c7	6a 00		 push	 0
  001c9	51		 push	 ecx
  001ca	0f 57 c0	 xorps	 xmm0, xmm0
  001cd	f3 0f 11 04 24	 movss	 DWORD PTR [esp], xmm0
  001d2	68 b0 04 00 00	 push	 1200			; 000004b0H
  001d7	68 00 01 00 00	 push	 256			; 00000100H
  001dc	6a 02		 push	 2
  001de	6a 01		 push	 1
  001e0	68 58 02 00 00	 push	 600			; 00000258H
  001e5	e8 00 00 00 00	 call	 ?set_fixed_3d_object_database_item@@YGXHHHHHMW4TARGET_TYPES@@W4TARGET_SYMBOL_TYPES@@@Z ; set_fixed_3d_object_database_item

; 1161 : 	set_fixed_3d_object_database_item (OBJECT_3D_INDUSTRY_FC_SHED004_10M_5X2, EXPLOSIVE_QUALITY_DUST, EXPLOSIVE_POWER_MEDIUM, WARHEAD_EFFECTIVE_STONE_BUILDING, 1200, 0.0, TARGET_TYPE_INVALID, TARGET_SYMBOL_UNKNOWN);

  001ea	6a 00		 push	 0
  001ec	6a 00		 push	 0
  001ee	51		 push	 ecx
  001ef	0f 57 c0	 xorps	 xmm0, xmm0
  001f2	f3 0f 11 04 24	 movss	 DWORD PTR [esp], xmm0
  001f7	68 b0 04 00 00	 push	 1200			; 000004b0H
  001fc	68 00 01 00 00	 push	 256			; 00000100H
  00201	6a 02		 push	 2
  00203	6a 01		 push	 1
  00205	68 5c 02 00 00	 push	 604			; 0000025cH
  0020a	e8 00 00 00 00	 call	 ?set_fixed_3d_object_database_item@@YGXHHHHHMW4TARGET_TYPES@@W4TARGET_SYMBOL_TYPES@@@Z ; set_fixed_3d_object_database_item

; 1162 : 	set_fixed_3d_object_database_item (OBJECT_3D_INDUSTRY_FC_SHED005_10M_4X3, EXPLOSIVE_QUALITY_DUST, EXPLOSIVE_POWER_MEDIUM, WARHEAD_EFFECTIVE_STONE_BUILDING, 1200, 0.0, TARGET_TYPE_INVALID, TARGET_SYMBOL_UNKNOWN);

  0020f	6a 00		 push	 0
  00211	6a 00		 push	 0
  00213	51		 push	 ecx
  00214	0f 57 c0	 xorps	 xmm0, xmm0
  00217	f3 0f 11 04 24	 movss	 DWORD PTR [esp], xmm0
  0021c	68 b0 04 00 00	 push	 1200			; 000004b0H
  00221	68 00 01 00 00	 push	 256			; 00000100H
  00226	6a 02		 push	 2
  00228	6a 01		 push	 1
  0022a	68 5e 02 00 00	 push	 606			; 0000025eH
  0022f	e8 00 00 00 00	 call	 ?set_fixed_3d_object_database_item@@YGXHHHHHMW4TARGET_TYPES@@W4TARGET_SYMBOL_TYPES@@@Z ; set_fixed_3d_object_database_item

; 1163 : 
; 1164 : 	set_fixed_3d_object_database_item (OBJECT_3D_PORTNW_FC_SHED002_13M_10X3, EXPLOSIVE_QUALITY_DUST, EXPLOSIVE_POWER_MEDIUM, WARHEAD_EFFECTIVE_STONE_BUILDING, 1200, 0.0, TARGET_TYPE_INVALID, TARGET_SYMBOL_UNKNOWN);

  00234	6a 00		 push	 0
  00236	6a 00		 push	 0
  00238	51		 push	 ecx
  00239	0f 57 c0	 xorps	 xmm0, xmm0
  0023c	f3 0f 11 04 24	 movss	 DWORD PTR [esp], xmm0
  00241	68 b0 04 00 00	 push	 1200			; 000004b0H
  00246	68 00 01 00 00	 push	 256			; 00000100H
  0024b	6a 02		 push	 2
  0024d	6a 01		 push	 1
  0024f	68 e1 02 00 00	 push	 737			; 000002e1H
  00254	e8 00 00 00 00	 call	 ?set_fixed_3d_object_database_item@@YGXHHHHHMW4TARGET_TYPES@@W4TARGET_SYMBOL_TYPES@@@Z ; set_fixed_3d_object_database_item

; 1165 : 	set_fixed_3d_object_database_item (OBJECT_3D_PORTNW_FC_SHED002_13M_5X3, EXPLOSIVE_QUALITY_DUST, EXPLOSIVE_POWER_MEDIUM, WARHEAD_EFFECTIVE_STONE_BUILDING, 1200, 0.0, TARGET_TYPE_INVALID, TARGET_SYMBOL_UNKNOWN);

  00259	6a 00		 push	 0
  0025b	6a 00		 push	 0
  0025d	51		 push	 ecx
  0025e	0f 57 c0	 xorps	 xmm0, xmm0
  00261	f3 0f 11 04 24	 movss	 DWORD PTR [esp], xmm0
  00266	68 b0 04 00 00	 push	 1200			; 000004b0H
  0026b	68 00 01 00 00	 push	 256			; 00000100H
  00270	6a 02		 push	 2
  00272	6a 01		 push	 1
  00274	68 e3 02 00 00	 push	 739			; 000002e3H
  00279	e8 00 00 00 00	 call	 ?set_fixed_3d_object_database_item@@YGXHHHHHMW4TARGET_TYPES@@W4TARGET_SYMBOL_TYPES@@@Z ; set_fixed_3d_object_database_item

; 1166 : 	set_fixed_3d_object_database_item (OBJECT_3D_PORTNW_FC_SHED003_13M_10X6, EXPLOSIVE_QUALITY_DUST, EXPLOSIVE_POWER_MEDIUM, WARHEAD_EFFECTIVE_STONE_BUILDING, 1200, 0.0, TARGET_TYPE_INVALID, TARGET_SYMBOL_UNKNOWN);

  0027e	6a 00		 push	 0
  00280	6a 00		 push	 0
  00282	51		 push	 ecx
  00283	0f 57 c0	 xorps	 xmm0, xmm0
  00286	f3 0f 11 04 24	 movss	 DWORD PTR [esp], xmm0
  0028b	68 b0 04 00 00	 push	 1200			; 000004b0H
  00290	68 00 01 00 00	 push	 256			; 00000100H
  00295	6a 02		 push	 2
  00297	6a 01		 push	 1
  00299	68 e5 02 00 00	 push	 741			; 000002e5H
  0029e	e8 00 00 00 00	 call	 ?set_fixed_3d_object_database_item@@YGXHHHHHMW4TARGET_TYPES@@W4TARGET_SYMBOL_TYPES@@@Z ; set_fixed_3d_object_database_item

; 1167 : 	set_fixed_3d_object_database_item (OBJECT_3D_PORTNW_FC_SHED003_13M_10X9, EXPLOSIVE_QUALITY_DUST, EXPLOSIVE_POWER_MEDIUM, WARHEAD_EFFECTIVE_STONE_BUILDING, 1200, 0.0, TARGET_TYPE_INVALID, TARGET_SYMBOL_UNKNOWN);

  002a3	6a 00		 push	 0
  002a5	6a 00		 push	 0
  002a7	51		 push	 ecx
  002a8	0f 57 c0	 xorps	 xmm0, xmm0
  002ab	f3 0f 11 04 24	 movss	 DWORD PTR [esp], xmm0
  002b0	68 b0 04 00 00	 push	 1200			; 000004b0H
  002b5	68 00 01 00 00	 push	 256			; 00000100H
  002ba	6a 02		 push	 2
  002bc	6a 01		 push	 1
  002be	68 e7 02 00 00	 push	 743			; 000002e7H
  002c3	e8 00 00 00 00	 call	 ?set_fixed_3d_object_database_item@@YGXHHHHHMW4TARGET_TYPES@@W4TARGET_SYMBOL_TYPES@@@Z ; set_fixed_3d_object_database_item

; 1168 : 
; 1169 : 	set_fixed_3d_object_database_item (OBJECT_3D_PORTSE_FC_SHED002_13M_10X3, EXPLOSIVE_QUALITY_DUST, EXPLOSIVE_POWER_MEDIUM, WARHEAD_EFFECTIVE_STONE_BUILDING, 1200, 0.0, TARGET_TYPE_INVALID, TARGET_SYMBOL_UNKNOWN);

  002c8	6a 00		 push	 0
  002ca	6a 00		 push	 0
  002cc	51		 push	 ecx
  002cd	0f 57 c0	 xorps	 xmm0, xmm0
  002d0	f3 0f 11 04 24	 movss	 DWORD PTR [esp], xmm0
  002d5	68 b0 04 00 00	 push	 1200			; 000004b0H
  002da	68 00 01 00 00	 push	 256			; 00000100H
  002df	6a 02		 push	 2
  002e1	6a 01		 push	 1
  002e3	68 f1 02 00 00	 push	 753			; 000002f1H
  002e8	e8 00 00 00 00	 call	 ?set_fixed_3d_object_database_item@@YGXHHHHHMW4TARGET_TYPES@@W4TARGET_SYMBOL_TYPES@@@Z ; set_fixed_3d_object_database_item

; 1170 : 	set_fixed_3d_object_database_item (OBJECT_3D_PORTSE_FC_SHED002_13M_5X3, EXPLOSIVE_QUALITY_DUST, EXPLOSIVE_POWER_MEDIUM, WARHEAD_EFFECTIVE_STONE_BUILDING, 1200, 0.0, TARGET_TYPE_INVALID, TARGET_SYMBOL_UNKNOWN);

  002ed	6a 00		 push	 0
  002ef	6a 00		 push	 0
  002f1	51		 push	 ecx
  002f2	0f 57 c0	 xorps	 xmm0, xmm0
  002f5	f3 0f 11 04 24	 movss	 DWORD PTR [esp], xmm0
  002fa	68 b0 04 00 00	 push	 1200			; 000004b0H
  002ff	68 00 01 00 00	 push	 256			; 00000100H
  00304	6a 02		 push	 2
  00306	6a 01		 push	 1
  00308	68 f3 02 00 00	 push	 755			; 000002f3H
  0030d	e8 00 00 00 00	 call	 ?set_fixed_3d_object_database_item@@YGXHHHHHMW4TARGET_TYPES@@W4TARGET_SYMBOL_TYPES@@@Z ; set_fixed_3d_object_database_item

; 1171 : 	set_fixed_3d_object_database_item (OBJECT_3D_PORTSE_FC_SHED003_13M_10X6, EXPLOSIVE_QUALITY_DUST, EXPLOSIVE_POWER_MEDIUM, WARHEAD_EFFECTIVE_STONE_BUILDING, 1200, 0.0, TARGET_TYPE_INVALID, TARGET_SYMBOL_UNKNOWN);

  00312	6a 00		 push	 0
  00314	6a 00		 push	 0
  00316	51		 push	 ecx
  00317	0f 57 c0	 xorps	 xmm0, xmm0
  0031a	f3 0f 11 04 24	 movss	 DWORD PTR [esp], xmm0
  0031f	68 b0 04 00 00	 push	 1200			; 000004b0H
  00324	68 00 01 00 00	 push	 256			; 00000100H
  00329	6a 02		 push	 2
  0032b	6a 01		 push	 1
  0032d	68 f5 02 00 00	 push	 757			; 000002f5H
  00332	e8 00 00 00 00	 call	 ?set_fixed_3d_object_database_item@@YGXHHHHHMW4TARGET_TYPES@@W4TARGET_SYMBOL_TYPES@@@Z ; set_fixed_3d_object_database_item

; 1172 : 	set_fixed_3d_object_database_item (OBJECT_3D_PORTSE_FC_SHED003_13M_10X9, EXPLOSIVE_QUALITY_DUST, EXPLOSIVE_POWER_MEDIUM, WARHEAD_EFFECTIVE_STONE_BUILDING, 1200, 0.0, TARGET_TYPE_INVALID, TARGET_SYMBOL_UNKNOWN);

  00337	6a 00		 push	 0
  00339	6a 00		 push	 0
  0033b	51		 push	 ecx
  0033c	0f 57 c0	 xorps	 xmm0, xmm0
  0033f	f3 0f 11 04 24	 movss	 DWORD PTR [esp], xmm0
  00344	68 b0 04 00 00	 push	 1200			; 000004b0H
  00349	68 00 01 00 00	 push	 256			; 00000100H
  0034e	6a 02		 push	 2
  00350	6a 01		 push	 1
  00352	68 f7 02 00 00	 push	 759			; 000002f7H
  00357	e8 00 00 00 00	 call	 ?set_fixed_3d_object_database_item@@YGXHHHHHMW4TARGET_TYPES@@W4TARGET_SYMBOL_TYPES@@@Z ; set_fixed_3d_object_database_item

; 1173 : 
; 1174 : 	set_fixed_3d_object_database_item (OBJECT_3D_GRG_CHURCH_FR_CHURCH2, EXPLOSIVE_QUALITY_DUST, EXPLOSIVE_POWER_MEDIUM, WARHEAD_EFFECTIVE_STONE_BUILDING, 1200, 0.0, TARGET_TYPE_INVALID, TARGET_SYMBOL_UNKNOWN);

  0035c	6a 00		 push	 0
  0035e	6a 00		 push	 0
  00360	51		 push	 ecx
  00361	0f 57 c0	 xorps	 xmm0, xmm0
  00364	f3 0f 11 04 24	 movss	 DWORD PTR [esp], xmm0
  00369	68 b0 04 00 00	 push	 1200			; 000004b0H
  0036e	68 00 01 00 00	 push	 256			; 00000100H
  00373	6a 02		 push	 2
  00375	6a 01		 push	 1
  00377	68 2d 03 00 00	 push	 813			; 0000032dH
  0037c	e8 00 00 00 00	 call	 ?set_fixed_3d_object_database_item@@YGXHHHHHMW4TARGET_TYPES@@W4TARGET_SYMBOL_TYPES@@@Z ; set_fixed_3d_object_database_item

; 1175 : 	set_fixed_3d_object_database_item (OBJECT_3D_GRG_CHURCH_FR_CHURCH1, EXPLOSIVE_QUALITY_DUST, EXPLOSIVE_POWER_MEDIUM, WARHEAD_EFFECTIVE_STONE_BUILDING, 1200, 0.0, TARGET_TYPE_INVALID, TARGET_SYMBOL_UNKNOWN);

  00381	6a 00		 push	 0
  00383	6a 00		 push	 0
  00385	51		 push	 ecx
  00386	0f 57 c0	 xorps	 xmm0, xmm0
  00389	f3 0f 11 04 24	 movss	 DWORD PTR [esp], xmm0
  0038e	68 b0 04 00 00	 push	 1200			; 000004b0H
  00393	68 00 01 00 00	 push	 256			; 00000100H
  00398	6a 02		 push	 2
  0039a	6a 01		 push	 1
  0039c	68 33 03 00 00	 push	 819			; 00000333H
  003a1	e8 00 00 00 00	 call	 ?set_fixed_3d_object_database_item@@YGXHHHHHMW4TARGET_TYPES@@W4TARGET_SYMBOL_TYPES@@@Z ; set_fixed_3d_object_database_item

; 1176 : 	set_fixed_3d_object_database_item (OBJECT_3D_THAI_OFFICE_FC_CONCRETE_BAR, EXPLOSIVE_QUALITY_DUST, EXPLOSIVE_POWER_MEDIUM, WARHEAD_EFFECTIVE_STONE_BUILDING, 1200, 0.0, TARGET_TYPE_INVALID, TARGET_SYMBOL_UNKNOWN);

  003a6	6a 00		 push	 0
  003a8	6a 00		 push	 0
  003aa	51		 push	 ecx
  003ab	0f 57 c0	 xorps	 xmm0, xmm0
  003ae	f3 0f 11 04 24	 movss	 DWORD PTR [esp], xmm0
  003b3	68 b0 04 00 00	 push	 1200			; 000004b0H
  003b8	68 00 01 00 00	 push	 256			; 00000100H
  003bd	6a 02		 push	 2
  003bf	6a 01		 push	 1
  003c1	68 14 04 00 00	 push	 1044			; 00000414H
  003c6	e8 00 00 00 00	 call	 ?set_fixed_3d_object_database_item@@YGXHHHHHMW4TARGET_TYPES@@W4TARGET_SYMBOL_TYPES@@@Z ; set_fixed_3d_object_database_item

; 1177 : 	set_fixed_3d_object_database_item (OBJECT_3D_GRG_HOUSING_FC_APART1, EXPLOSIVE_QUALITY_DUST, EXPLOSIVE_POWER_MEDIUM, WARHEAD_EFFECTIVE_STONE_BUILDING, 1200, 0.0, TARGET_TYPE_INVALID, TARGET_SYMBOL_UNKNOWN);

  003cb	6a 00		 push	 0
  003cd	6a 00		 push	 0
  003cf	51		 push	 ecx
  003d0	0f 57 c0	 xorps	 xmm0, xmm0
  003d3	f3 0f 11 04 24	 movss	 DWORD PTR [esp], xmm0
  003d8	68 b0 04 00 00	 push	 1200			; 000004b0H
  003dd	68 00 01 00 00	 push	 256			; 00000100H
  003e2	6a 02		 push	 2
  003e4	6a 01		 push	 1
  003e6	68 44 03 00 00	 push	 836			; 00000344H
  003eb	e8 00 00 00 00	 call	 ?set_fixed_3d_object_database_item@@YGXHHHHHMW4TARGET_TYPES@@W4TARGET_SYMBOL_TYPES@@@Z ; set_fixed_3d_object_database_item

; 1178 : 
; 1179 : 	set_fixed_3d_object_database_item (OBJECT_3D_THAI_HOUSING_FC_COMP20X10_3M, EXPLOSIVE_QUALITY_DUST, EXPLOSIVE_POWER_MEDIUM, WARHEAD_EFFECTIVE_STONE_BUILDING, 1200, 0.0, TARGET_TYPE_INVALID, TARGET_SYMBOL_UNKNOWN);

  003f0	6a 00		 push	 0
  003f2	6a 00		 push	 0
  003f4	51		 push	 ecx
  003f5	0f 57 c0	 xorps	 xmm0, xmm0
  003f8	f3 0f 11 04 24	 movss	 DWORD PTR [esp], xmm0
  003fd	68 b0 04 00 00	 push	 1200			; 000004b0H
  00402	68 00 01 00 00	 push	 256			; 00000100H
  00407	6a 02		 push	 2
  00409	6a 01		 push	 1
  0040b	68 1e 04 00 00	 push	 1054			; 0000041eH
  00410	e8 00 00 00 00	 call	 ?set_fixed_3d_object_database_item@@YGXHHHHHMW4TARGET_TYPES@@W4TARGET_SYMBOL_TYPES@@@Z ; set_fixed_3d_object_database_item

; 1180 : 	set_fixed_3d_object_database_item (OBJECT_3D_THAI_HOUSING_FC_COMP40X10_4, EXPLOSIVE_QUALITY_DUST, EXPLOSIVE_POWER_MEDIUM, WARHEAD_EFFECTIVE_STONE_BUILDING, 1200, 0.0, TARGET_TYPE_INVALID, TARGET_SYMBOL_UNKNOWN);

  00415	6a 00		 push	 0
  00417	6a 00		 push	 0
  00419	51		 push	 ecx
  0041a	0f 57 c0	 xorps	 xmm0, xmm0
  0041d	f3 0f 11 04 24	 movss	 DWORD PTR [esp], xmm0
  00422	68 b0 04 00 00	 push	 1200			; 000004b0H
  00427	68 00 01 00 00	 push	 256			; 00000100H
  0042c	6a 02		 push	 2
  0042e	6a 01		 push	 1
  00430	68 22 04 00 00	 push	 1058			; 00000422H
  00435	e8 00 00 00 00	 call	 ?set_fixed_3d_object_database_item@@YGXHHHHHMW4TARGET_TYPES@@W4TARGET_SYMBOL_TYPES@@@Z ; set_fixed_3d_object_database_item

; 1181 : 	set_fixed_3d_object_database_item (OBJECT_3D_THAI_HOUSING_EX_COMP10X102_5, EXPLOSIVE_QUALITY_DUST, EXPLOSIVE_POWER_MEDIUM, WARHEAD_EFFECTIVE_STONE_BUILDING, 1200, 0.0, TARGET_TYPE_INVALID, TARGET_SYMBOL_UNKNOWN);

  0043a	6a 00		 push	 0
  0043c	6a 00		 push	 0
  0043e	51		 push	 ecx
  0043f	0f 57 c0	 xorps	 xmm0, xmm0
  00442	f3 0f 11 04 24	 movss	 DWORD PTR [esp], xmm0
  00447	68 b0 04 00 00	 push	 1200			; 000004b0H
  0044c	68 00 01 00 00	 push	 256			; 00000100H
  00451	6a 02		 push	 2
  00453	6a 01		 push	 1
  00455	68 24 04 00 00	 push	 1060			; 00000424H
  0045a	e8 00 00 00 00	 call	 ?set_fixed_3d_object_database_item@@YGXHHHHHMW4TARGET_TYPES@@W4TARGET_SYMBOL_TYPES@@@Z ; set_fixed_3d_object_database_item

; 1182 : 	set_fixed_3d_object_database_item (OBJECT_3D_THAI_HOUSING_FR_COMPTOWER3_5, EXPLOSIVE_QUALITY_DUST, EXPLOSIVE_POWER_MEDIUM, WARHEAD_EFFECTIVE_STONE_BUILDING, 1200, 0.0, TARGET_TYPE_INVALID, TARGET_SYMBOL_UNKNOWN);

  0045f	6a 00		 push	 0
  00461	6a 00		 push	 0
  00463	51		 push	 ecx
  00464	0f 57 c0	 xorps	 xmm0, xmm0
  00467	f3 0f 11 04 24	 movss	 DWORD PTR [esp], xmm0
  0046c	68 b0 04 00 00	 push	 1200			; 000004b0H
  00471	68 00 01 00 00	 push	 256			; 00000100H
  00476	6a 02		 push	 2
  00478	6a 01		 push	 1
  0047a	68 26 04 00 00	 push	 1062			; 00000426H
  0047f	e8 00 00 00 00	 call	 ?set_fixed_3d_object_database_item@@YGXHHHHHMW4TARGET_TYPES@@W4TARGET_SYMBOL_TYPES@@@Z ; set_fixed_3d_object_database_item

; 1183 : 	set_fixed_3d_object_database_item (OBJECT_3D_THAI_HOUSING_EX_COMP10X10_5, EXPLOSIVE_QUALITY_DUST, EXPLOSIVE_POWER_MEDIUM, WARHEAD_EFFECTIVE_STONE_BUILDING, 1200, 0.0, TARGET_TYPE_INVALID, TARGET_SYMBOL_UNKNOWN);

  00484	6a 00		 push	 0
  00486	6a 00		 push	 0
  00488	51		 push	 ecx
  00489	0f 57 c0	 xorps	 xmm0, xmm0
  0048c	f3 0f 11 04 24	 movss	 DWORD PTR [esp], xmm0
  00491	68 b0 04 00 00	 push	 1200			; 000004b0H
  00496	68 00 01 00 00	 push	 256			; 00000100H
  0049b	6a 02		 push	 2
  0049d	6a 01		 push	 1
  0049f	68 28 04 00 00	 push	 1064			; 00000428H
  004a4	e8 00 00 00 00	 call	 ?set_fixed_3d_object_database_item@@YGXHHHHHMW4TARGET_TYPES@@W4TARGET_SYMBOL_TYPES@@@Z ; set_fixed_3d_object_database_item

; 1184 : 
; 1185 : 	set_fixed_3d_object_database_item (OBJECT_3D_THAI_INDUSTRY_FC_SHED001, EXPLOSIVE_QUALITY_DUST, EXPLOSIVE_POWER_MEDIUM, WARHEAD_EFFECTIVE_STONE_BUILDING, 1200, 0.0, TARGET_TYPE_INVALID, TARGET_SYMBOL_UNKNOWN);

  004a9	6a 00		 push	 0
  004ab	6a 00		 push	 0
  004ad	51		 push	 ecx
  004ae	0f 57 c0	 xorps	 xmm0, xmm0
  004b1	f3 0f 11 04 24	 movss	 DWORD PTR [esp], xmm0
  004b6	68 b0 04 00 00	 push	 1200			; 000004b0H
  004bb	68 00 01 00 00	 push	 256			; 00000100H
  004c0	6a 02		 push	 2
  004c2	6a 01		 push	 1
  004c4	68 60 04 00 00	 push	 1120			; 00000460H
  004c9	e8 00 00 00 00	 call	 ?set_fixed_3d_object_database_item@@YGXHHHHHMW4TARGET_TYPES@@W4TARGET_SYMBOL_TYPES@@@Z ; set_fixed_3d_object_database_item

; 1186 : 	set_fixed_3d_object_database_item (OBJECT_3D_THAI_INDUSTRY_FC_SHED002, EXPLOSIVE_QUALITY_DUST, EXPLOSIVE_POWER_MEDIUM, WARHEAD_EFFECTIVE_STONE_BUILDING, 1200, 0.0, TARGET_TYPE_INVALID, TARGET_SYMBOL_UNKNOWN);

  004ce	6a 00		 push	 0
  004d0	6a 00		 push	 0
  004d2	51		 push	 ecx
  004d3	0f 57 c0	 xorps	 xmm0, xmm0
  004d6	f3 0f 11 04 24	 movss	 DWORD PTR [esp], xmm0
  004db	68 b0 04 00 00	 push	 1200			; 000004b0H
  004e0	68 00 01 00 00	 push	 256			; 00000100H
  004e5	6a 02		 push	 2
  004e7	6a 01		 push	 1
  004e9	68 62 04 00 00	 push	 1122			; 00000462H
  004ee	e8 00 00 00 00	 call	 ?set_fixed_3d_object_database_item@@YGXHHHHHMW4TARGET_TYPES@@W4TARGET_SYMBOL_TYPES@@@Z ; set_fixed_3d_object_database_item

; 1187 : 	set_fixed_3d_object_database_item (OBJECT_3D_THAI_INDUSTRY_FC_SHED003, EXPLOSIVE_QUALITY_DUST, EXPLOSIVE_POWER_MEDIUM, WARHEAD_EFFECTIVE_STONE_BUILDING, 1200, 0.0, TARGET_TYPE_INVALID, TARGET_SYMBOL_UNKNOWN);

  004f3	6a 00		 push	 0
  004f5	6a 00		 push	 0
  004f7	51		 push	 ecx
  004f8	0f 57 c0	 xorps	 xmm0, xmm0
  004fb	f3 0f 11 04 24	 movss	 DWORD PTR [esp], xmm0
  00500	68 b0 04 00 00	 push	 1200			; 000004b0H
  00505	68 00 01 00 00	 push	 256			; 00000100H
  0050a	6a 02		 push	 2
  0050c	6a 01		 push	 1
  0050e	68 64 04 00 00	 push	 1124			; 00000464H
  00513	e8 00 00 00 00	 call	 ?set_fixed_3d_object_database_item@@YGXHHHHHMW4TARGET_TYPES@@W4TARGET_SYMBOL_TYPES@@@Z ; set_fixed_3d_object_database_item

; 1188 : 	set_fixed_3d_object_database_item (OBJECT_3D_THAI_INDUSTRY_FC_SHED005, EXPLOSIVE_QUALITY_DUST, EXPLOSIVE_POWER_MEDIUM, WARHEAD_EFFECTIVE_STONE_BUILDING, 1200, 0.0, TARGET_TYPE_INVALID, TARGET_SYMBOL_UNKNOWN);

  00518	6a 00		 push	 0
  0051a	6a 00		 push	 0
  0051c	51		 push	 ecx
  0051d	0f 57 c0	 xorps	 xmm0, xmm0
  00520	f3 0f 11 04 24	 movss	 DWORD PTR [esp], xmm0
  00525	68 b0 04 00 00	 push	 1200			; 000004b0H
  0052a	68 00 01 00 00	 push	 256			; 00000100H
  0052f	6a 02		 push	 2
  00531	6a 01		 push	 1
  00533	68 66 04 00 00	 push	 1126			; 00000466H
  00538	e8 00 00 00 00	 call	 ?set_fixed_3d_object_database_item@@YGXHHHHHMW4TARGET_TYPES@@W4TARGET_SYMBOL_TYPES@@@Z ; set_fixed_3d_object_database_item

; 1189 : 
; 1190 : 	set_fixed_3d_object_database_item (OBJECT_3D_GRG_OFFICE_FC_OFFICE1, EXPLOSIVE_QUALITY_DUST, EXPLOSIVE_POWER_MEDIUM, WARHEAD_EFFECTIVE_STONE_BUILDING, 1200, 0.0, TARGET_TYPE_INVALID, TARGET_SYMBOL_UNKNOWN);

  0053d	6a 00		 push	 0
  0053f	6a 00		 push	 0
  00541	51		 push	 ecx
  00542	0f 57 c0	 xorps	 xmm0, xmm0
  00545	f3 0f 11 04 24	 movss	 DWORD PTR [esp], xmm0
  0054a	68 b0 04 00 00	 push	 1200			; 000004b0H
  0054f	68 00 01 00 00	 push	 256			; 00000100H
  00554	6a 02		 push	 2
  00556	6a 01		 push	 1
  00558	68 84 03 00 00	 push	 900			; 00000384H
  0055d	e8 00 00 00 00	 call	 ?set_fixed_3d_object_database_item@@YGXHHHHHMW4TARGET_TYPES@@W4TARGET_SYMBOL_TYPES@@@Z ; set_fixed_3d_object_database_item

; 1191 : 	set_fixed_3d_object_database_item (OBJECT_3D_GRG_OFFICE_FR_TOWNHALL, EXPLOSIVE_QUALITY_DUST, EXPLOSIVE_POWER_MEDIUM, WARHEAD_EFFECTIVE_STONE_BUILDING, 1200, 0.0, TARGET_TYPE_INVALID, TARGET_SYMBOL_UNKNOWN);

  00562	6a 00		 push	 0
  00564	6a 00		 push	 0
  00566	51		 push	 ecx
  00567	0f 57 c0	 xorps	 xmm0, xmm0
  0056a	f3 0f 11 04 24	 movss	 DWORD PTR [esp], xmm0
  0056f	68 b0 04 00 00	 push	 1200			; 000004b0H
  00574	68 00 01 00 00	 push	 256			; 00000100H
  00579	6a 02		 push	 2
  0057b	6a 01		 push	 1
  0057d	68 86 03 00 00	 push	 902			; 00000386H
  00582	e8 00 00 00 00	 call	 ?set_fixed_3d_object_database_item@@YGXHHHHHMW4TARGET_TYPES@@W4TARGET_SYMBOL_TYPES@@@Z ; set_fixed_3d_object_database_item

; 1192 : 
; 1193 : 	set_fixed_3d_object_database_item (OBJECT_3D_THAI_CHURCH_FR_CROSS_TEMPLE, EXPLOSIVE_QUALITY_DUST, EXPLOSIVE_POWER_MEDIUM, WARHEAD_EFFECTIVE_STONE_BUILDING, 1200, 0.0, TARGET_TYPE_INVALID, TARGET_SYMBOL_UNKNOWN);

  00587	6a 00		 push	 0
  00589	6a 00		 push	 0
  0058b	51		 push	 ecx
  0058c	0f 57 c0	 xorps	 xmm0, xmm0
  0058f	f3 0f 11 04 24	 movss	 DWORD PTR [esp], xmm0
  00594	68 b0 04 00 00	 push	 1200			; 000004b0H
  00599	68 00 01 00 00	 push	 256			; 00000100H
  0059e	6a 02		 push	 2
  005a0	6a 01		 push	 1
  005a2	68 f6 03 00 00	 push	 1014			; 000003f6H
  005a7	e8 00 00 00 00	 call	 ?set_fixed_3d_object_database_item@@YGXHHHHHMW4TARGET_TYPES@@W4TARGET_SYMBOL_TYPES@@@Z ; set_fixed_3d_object_database_item

; 1194 : 	set_fixed_3d_object_database_item (OBJECT_3D_THAI_CHURCH_FR_GOLDEN_CHEDI, EXPLOSIVE_QUALITY_DUST, EXPLOSIVE_POWER_MEDIUM, WARHEAD_EFFECTIVE_STONE_BUILDING, 1200, 0.0, TARGET_TYPE_INVALID, TARGET_SYMBOL_UNKNOWN);

  005ac	6a 00		 push	 0
  005ae	6a 00		 push	 0
  005b0	51		 push	 ecx
  005b1	0f 57 c0	 xorps	 xmm0, xmm0
  005b4	f3 0f 11 04 24	 movss	 DWORD PTR [esp], xmm0
  005b9	68 b0 04 00 00	 push	 1200			; 000004b0H
  005be	68 00 01 00 00	 push	 256			; 00000100H
  005c3	6a 02		 push	 2
  005c5	6a 01		 push	 1
  005c7	68 f8 03 00 00	 push	 1016			; 000003f8H
  005cc	e8 00 00 00 00	 call	 ?set_fixed_3d_object_database_item@@YGXHHHHHMW4TARGET_TYPES@@W4TARGET_SYMBOL_TYPES@@@Z ; set_fixed_3d_object_database_item

; 1195 : 	set_fixed_3d_object_database_item (OBJECT_3D_THAI_CHURCH_FR_TEMPLE_OUTBUILDING2, EXPLOSIVE_QUALITY_DUST, EXPLOSIVE_POWER_MEDIUM, WARHEAD_EFFECTIVE_STONE_BUILDING, 1200, 0.0, TARGET_TYPE_INVALID, TARGET_SYMBOL_UNKNOWN);

  005d1	6a 00		 push	 0
  005d3	6a 00		 push	 0
  005d5	51		 push	 ecx
  005d6	0f 57 c0	 xorps	 xmm0, xmm0
  005d9	f3 0f 11 04 24	 movss	 DWORD PTR [esp], xmm0
  005de	68 b0 04 00 00	 push	 1200			; 000004b0H
  005e3	68 00 01 00 00	 push	 256			; 00000100H
  005e8	6a 02		 push	 2
  005ea	6a 01		 push	 1
  005ec	68 fa 03 00 00	 push	 1018			; 000003faH
  005f1	e8 00 00 00 00	 call	 ?set_fixed_3d_object_database_item@@YGXHHHHHMW4TARGET_TYPES@@W4TARGET_SYMBOL_TYPES@@@Z ; set_fixed_3d_object_database_item

; 1196 : 	set_fixed_3d_object_database_item (OBJECT_3D_THAI_CHURCH_FR_TEMPLE_OUTBUILDING1, EXPLOSIVE_QUALITY_DUST, EXPLOSIVE_POWER_MEDIUM, WARHEAD_EFFECTIVE_STONE_BUILDING, 1200, 0.0, TARGET_TYPE_INVALID, TARGET_SYMBOL_UNKNOWN);

  005f6	6a 00		 push	 0
  005f8	6a 00		 push	 0
  005fa	51		 push	 ecx
  005fb	0f 57 c0	 xorps	 xmm0, xmm0
  005fe	f3 0f 11 04 24	 movss	 DWORD PTR [esp], xmm0
  00603	68 b0 04 00 00	 push	 1200			; 000004b0H
  00608	68 00 01 00 00	 push	 256			; 00000100H
  0060d	6a 02		 push	 2
  0060f	6a 01		 push	 1
  00611	68 fc 03 00 00	 push	 1020			; 000003fcH
  00616	e8 00 00 00 00	 call	 ?set_fixed_3d_object_database_item@@YGXHHHHHMW4TARGET_TYPES@@W4TARGET_SYMBOL_TYPES@@@Z ; set_fixed_3d_object_database_item

; 1197 : 	set_fixed_3d_object_database_item (OBJECT_3D_THAI_CHURCH_FR_STUPA_COMPOUND, EXPLOSIVE_QUALITY_DUST, EXPLOSIVE_POWER_MEDIUM, WARHEAD_EFFECTIVE_STONE_BUILDING, 1200, 0.0, TARGET_TYPE_INVALID, TARGET_SYMBOL_UNKNOWN);

  0061b	6a 00		 push	 0
  0061d	6a 00		 push	 0
  0061f	51		 push	 ecx
  00620	0f 57 c0	 xorps	 xmm0, xmm0
  00623	f3 0f 11 04 24	 movss	 DWORD PTR [esp], xmm0
  00628	68 b0 04 00 00	 push	 1200			; 000004b0H
  0062d	68 00 01 00 00	 push	 256			; 00000100H
  00632	6a 02		 push	 2
  00634	6a 01		 push	 1
  00636	68 fe 03 00 00	 push	 1022			; 000003feH
  0063b	e8 00 00 00 00	 call	 ?set_fixed_3d_object_database_item@@YGXHHHHHMW4TARGET_TYPES@@W4TARGET_SYMBOL_TYPES@@@Z ; set_fixed_3d_object_database_item

; 1198 : 	set_fixed_3d_object_database_item (OBJECT_3D_THAI_CHURCH_FR_TEMPLE_SIMPLE, EXPLOSIVE_QUALITY_DUST, EXPLOSIVE_POWER_MEDIUM, WARHEAD_EFFECTIVE_STONE_BUILDING, 1200, 0.0, TARGET_TYPE_INVALID, TARGET_SYMBOL_UNKNOWN);

  00640	6a 00		 push	 0
  00642	6a 00		 push	 0
  00644	51		 push	 ecx
  00645	0f 57 c0	 xorps	 xmm0, xmm0
  00648	f3 0f 11 04 24	 movss	 DWORD PTR [esp], xmm0
  0064d	68 b0 04 00 00	 push	 1200			; 000004b0H
  00652	68 00 01 00 00	 push	 256			; 00000100H
  00657	6a 02		 push	 2
  00659	6a 01		 push	 1
  0065b	68 00 04 00 00	 push	 1024			; 00000400H
  00660	e8 00 00 00 00	 call	 ?set_fixed_3d_object_database_item@@YGXHHHHHMW4TARGET_TYPES@@W4TARGET_SYMBOL_TYPES@@@Z ; set_fixed_3d_object_database_item

; 1199 : 	set_fixed_3d_object_database_item (OBJECT_3D_THAI_CHURCH_FR_VIHARN2, EXPLOSIVE_QUALITY_DUST, EXPLOSIVE_POWER_MEDIUM, WARHEAD_EFFECTIVE_STONE_BUILDING, 1200, 0.0, TARGET_TYPE_INVALID, TARGET_SYMBOL_UNKNOWN);

  00665	6a 00		 push	 0
  00667	6a 00		 push	 0
  00669	51		 push	 ecx
  0066a	0f 57 c0	 xorps	 xmm0, xmm0
  0066d	f3 0f 11 04 24	 movss	 DWORD PTR [esp], xmm0
  00672	68 b0 04 00 00	 push	 1200			; 000004b0H
  00677	68 00 01 00 00	 push	 256			; 00000100H
  0067c	6a 02		 push	 2
  0067e	6a 01		 push	 1
  00680	68 02 04 00 00	 push	 1026			; 00000402H
  00685	e8 00 00 00 00	 call	 ?set_fixed_3d_object_database_item@@YGXHHHHHMW4TARGET_TYPES@@W4TARGET_SYMBOL_TYPES@@@Z ; set_fixed_3d_object_database_item

; 1200 : 	set_fixed_3d_object_database_item (OBJECT_3D_THAI_CHURCH_FR_VIHARN1, EXPLOSIVE_QUALITY_DUST, EXPLOSIVE_POWER_MEDIUM, WARHEAD_EFFECTIVE_STONE_BUILDING, 1200, 0.0, TARGET_TYPE_INVALID, TARGET_SYMBOL_UNKNOWN);

  0068a	6a 00		 push	 0
  0068c	6a 00		 push	 0
  0068e	51		 push	 ecx
  0068f	0f 57 c0	 xorps	 xmm0, xmm0
  00692	f3 0f 11 04 24	 movss	 DWORD PTR [esp], xmm0
  00697	68 b0 04 00 00	 push	 1200			; 000004b0H
  0069c	68 00 01 00 00	 push	 256			; 00000100H
  006a1	6a 02		 push	 2
  006a3	6a 01		 push	 1
  006a5	68 04 04 00 00	 push	 1028			; 00000404H
  006aa	e8 00 00 00 00	 call	 ?set_fixed_3d_object_database_item@@YGXHHHHHMW4TARGET_TYPES@@W4TARGET_SYMBOL_TYPES@@@Z ; set_fixed_3d_object_database_item

; 1201 : 
; 1202 : 	set_fixed_3d_object_database_item (OBJECT_3D_THAI_CULTURAL_EX_BLOCK1, EXPLOSIVE_QUALITY_DUST, EXPLOSIVE_POWER_MEDIUM, WARHEAD_EFFECTIVE_STONE_BUILDING, 1200, 0.0, TARGET_TYPE_INVALID, TARGET_SYMBOL_UNKNOWN);

  006af	6a 00		 push	 0
  006b1	6a 00		 push	 0
  006b3	51		 push	 ecx
  006b4	0f 57 c0	 xorps	 xmm0, xmm0
  006b7	f3 0f 11 04 24	 movss	 DWORD PTR [esp], xmm0
  006bc	68 b0 04 00 00	 push	 1200			; 000004b0H
  006c1	68 00 01 00 00	 push	 256			; 00000100H
  006c6	6a 02		 push	 2
  006c8	6a 01		 push	 1
  006ca	68 08 04 00 00	 push	 1032			; 00000408H
  006cf	e8 00 00 00 00	 call	 ?set_fixed_3d_object_database_item@@YGXHHHHHMW4TARGET_TYPES@@W4TARGET_SYMBOL_TYPES@@@Z ; set_fixed_3d_object_database_item

; 1203 : 	set_fixed_3d_object_database_item (OBJECT_3D_THAI_CULTURAL_FC_BIG_HOUSE, EXPLOSIVE_QUALITY_DUST, EXPLOSIVE_POWER_MEDIUM, WARHEAD_EFFECTIVE_STONE_BUILDING, 1200, 0.0, TARGET_TYPE_INVALID, TARGET_SYMBOL_UNKNOWN);

  006d4	6a 00		 push	 0
  006d6	6a 00		 push	 0
  006d8	51		 push	 ecx
  006d9	0f 57 c0	 xorps	 xmm0, xmm0
  006dc	f3 0f 11 04 24	 movss	 DWORD PTR [esp], xmm0
  006e1	68 b0 04 00 00	 push	 1200			; 000004b0H
  006e6	68 00 01 00 00	 push	 256			; 00000100H
  006eb	6a 02		 push	 2
  006ed	6a 01		 push	 1
  006ef	68 0a 04 00 00	 push	 1034			; 0000040aH
  006f4	e8 00 00 00 00	 call	 ?set_fixed_3d_object_database_item@@YGXHHHHHMW4TARGET_TYPES@@W4TARGET_SYMBOL_TYPES@@@Z ; set_fixed_3d_object_database_item

; 1204 : 	set_fixed_3d_object_database_item (OBJECT_3D_THAI_CULTURAL_FC_BLOCK1, EXPLOSIVE_QUALITY_DUST, EXPLOSIVE_POWER_MEDIUM, WARHEAD_EFFECTIVE_STONE_BUILDING, 1200, 0.0, TARGET_TYPE_INVALID, TARGET_SYMBOL_UNKNOWN);

  006f9	6a 00		 push	 0
  006fb	6a 00		 push	 0
  006fd	51		 push	 ecx
  006fe	0f 57 c0	 xorps	 xmm0, xmm0
  00701	f3 0f 11 04 24	 movss	 DWORD PTR [esp], xmm0
  00706	68 b0 04 00 00	 push	 1200			; 000004b0H
  0070b	68 00 01 00 00	 push	 256			; 00000100H
  00710	6a 02		 push	 2
  00712	6a 01		 push	 1
  00714	68 0c 04 00 00	 push	 1036			; 0000040cH
  00719	e8 00 00 00 00	 call	 ?set_fixed_3d_object_database_item@@YGXHHHHHMW4TARGET_TYPES@@W4TARGET_SYMBOL_TYPES@@@Z ; set_fixed_3d_object_database_item

; 1205 : 	set_fixed_3d_object_database_item (OBJECT_3D_THAI_CULTURAL_FC_BLOCK2, EXPLOSIVE_QUALITY_DUST, EXPLOSIVE_POWER_MEDIUM, WARHEAD_EFFECTIVE_STONE_BUILDING, 1200, 0.0, TARGET_TYPE_INVALID, TARGET_SYMBOL_UNKNOWN);

  0071e	6a 00		 push	 0
  00720	6a 00		 push	 0
  00722	51		 push	 ecx
  00723	0f 57 c0	 xorps	 xmm0, xmm0
  00726	f3 0f 11 04 24	 movss	 DWORD PTR [esp], xmm0
  0072b	68 b0 04 00 00	 push	 1200			; 000004b0H
  00730	68 00 01 00 00	 push	 256			; 00000100H
  00735	6a 02		 push	 2
  00737	6a 01		 push	 1
  00739	68 0e 04 00 00	 push	 1038			; 0000040eH
  0073e	e8 00 00 00 00	 call	 ?set_fixed_3d_object_database_item@@YGXHHHHHMW4TARGET_TYPES@@W4TARGET_SYMBOL_TYPES@@@Z ; set_fixed_3d_object_database_item

; 1206 : 	set_fixed_3d_object_database_item (OBJECT_3D_THAI_CULTURAL_FC_BLOCK4, EXPLOSIVE_QUALITY_DUST, EXPLOSIVE_POWER_MEDIUM, WARHEAD_EFFECTIVE_STONE_BUILDING, 1200, 0.0, TARGET_TYPE_INVALID, TARGET_SYMBOL_UNKNOWN);

  00743	6a 00		 push	 0
  00745	6a 00		 push	 0
  00747	51		 push	 ecx
  00748	0f 57 c0	 xorps	 xmm0, xmm0
  0074b	f3 0f 11 04 24	 movss	 DWORD PTR [esp], xmm0
  00750	68 b0 04 00 00	 push	 1200			; 000004b0H
  00755	68 00 01 00 00	 push	 256			; 00000100H
  0075a	6a 02		 push	 2
  0075c	6a 01		 push	 1
  0075e	68 10 04 00 00	 push	 1040			; 00000410H
  00763	e8 00 00 00 00	 call	 ?set_fixed_3d_object_database_item@@YGXHHHHHMW4TARGET_TYPES@@W4TARGET_SYMBOL_TYPES@@@Z ; set_fixed_3d_object_database_item

; 1207 : 	set_fixed_3d_object_database_item (OBJECT_3D_THAI_CULTURAL_IN_BLOCK1, EXPLOSIVE_QUALITY_DUST, EXPLOSIVE_POWER_MEDIUM, WARHEAD_EFFECTIVE_STONE_BUILDING, 1200, 0.0, TARGET_TYPE_INVALID, TARGET_SYMBOL_UNKNOWN);

  00768	6a 00		 push	 0
  0076a	6a 00		 push	 0
  0076c	51		 push	 ecx
  0076d	0f 57 c0	 xorps	 xmm0, xmm0
  00770	f3 0f 11 04 24	 movss	 DWORD PTR [esp], xmm0
  00775	68 b0 04 00 00	 push	 1200			; 000004b0H
  0077a	68 00 01 00 00	 push	 256			; 00000100H
  0077f	6a 02		 push	 2
  00781	6a 01		 push	 1
  00783	68 12 04 00 00	 push	 1042			; 00000412H
  00788	e8 00 00 00 00	 call	 ?set_fixed_3d_object_database_item@@YGXHHHHHMW4TARGET_TYPES@@W4TARGET_SYMBOL_TYPES@@@Z ; set_fixed_3d_object_database_item

; 1208 : 	set_fixed_3d_object_database_item (OBJECT_3D_THAI_HOUSING_FC_COLONIAL_BIG_HOUSE, EXPLOSIVE_QUALITY_DUST, EXPLOSIVE_POWER_MEDIUM, WARHEAD_EFFECTIVE_STONE_BUILDING, 1200, 0.0, TARGET_TYPE_INVALID, TARGET_SYMBOL_UNKNOWN);

  0078d	6a 00		 push	 0
  0078f	6a 00		 push	 0
  00791	51		 push	 ecx
  00792	0f 57 c0	 xorps	 xmm0, xmm0
  00795	f3 0f 11 04 24	 movss	 DWORD PTR [esp], xmm0
  0079a	68 b0 04 00 00	 push	 1200			; 000004b0H
  0079f	68 00 01 00 00	 push	 256			; 00000100H
  007a4	6a 02		 push	 2
  007a6	6a 01		 push	 1
  007a8	68 16 04 00 00	 push	 1046			; 00000416H
  007ad	e8 00 00 00 00	 call	 ?set_fixed_3d_object_database_item@@YGXHHHHHMW4TARGET_TYPES@@W4TARGET_SYMBOL_TYPES@@@Z ; set_fixed_3d_object_database_item

; 1209 : 	set_fixed_3d_object_database_item (OBJECT_3D_THAI_HOUSING_FC_COLONIAL_HOUSE, EXPLOSIVE_QUALITY_DUST, EXPLOSIVE_POWER_MEDIUM, WARHEAD_EFFECTIVE_STONE_BUILDING, 1200, 0.0, TARGET_TYPE_INVALID, TARGET_SYMBOL_UNKNOWN);

  007b2	6a 00		 push	 0
  007b4	6a 00		 push	 0
  007b6	51		 push	 ecx
  007b7	0f 57 c0	 xorps	 xmm0, xmm0
  007ba	f3 0f 11 04 24	 movss	 DWORD PTR [esp], xmm0
  007bf	68 b0 04 00 00	 push	 1200			; 000004b0H
  007c4	68 00 01 00 00	 push	 256			; 00000100H
  007c9	6a 02		 push	 2
  007cb	6a 01		 push	 1
  007cd	68 18 04 00 00	 push	 1048			; 00000418H
  007d2	e8 00 00 00 00	 call	 ?set_fixed_3d_object_database_item@@YGXHHHHHMW4TARGET_TYPES@@W4TARGET_SYMBOL_TYPES@@@Z ; set_fixed_3d_object_database_item

; 1210 : 	set_fixed_3d_object_database_item (OBJECT_3D_THAI_HOUSING_FC_COMP2_20X10_3M, EXPLOSIVE_QUALITY_DUST, EXPLOSIVE_POWER_MEDIUM, WARHEAD_EFFECTIVE_STONE_BUILDING, 1200, 0.0, TARGET_TYPE_INVALID, TARGET_SYMBOL_UNKNOWN);

  007d7	6a 00		 push	 0
  007d9	6a 00		 push	 0
  007db	51		 push	 ecx
  007dc	0f 57 c0	 xorps	 xmm0, xmm0
  007df	f3 0f 11 04 24	 movss	 DWORD PTR [esp], xmm0
  007e4	68 b0 04 00 00	 push	 1200			; 000004b0H
  007e9	68 00 01 00 00	 push	 256			; 00000100H
  007ee	6a 02		 push	 2
  007f0	6a 01		 push	 1
  007f2	68 1a 04 00 00	 push	 1050			; 0000041aH
  007f7	e8 00 00 00 00	 call	 ?set_fixed_3d_object_database_item@@YGXHHHHHMW4TARGET_TYPES@@W4TARGET_SYMBOL_TYPES@@@Z ; set_fixed_3d_object_database_item

; 1211 : 	set_fixed_3d_object_database_item (OBJECT_3D_THAI_HOUSING_FC_BIGCROSS_HOUSE, EXPLOSIVE_QUALITY_DUST, EXPLOSIVE_POWER_MEDIUM, WARHEAD_EFFECTIVE_STONE_BUILDING, 1200, 0.0, TARGET_TYPE_INVALID, TARGET_SYMBOL_UNKNOWN);

  007fc	6a 00		 push	 0
  007fe	6a 00		 push	 0
  00800	51		 push	 ecx
  00801	0f 57 c0	 xorps	 xmm0, xmm0
  00804	f3 0f 11 04 24	 movss	 DWORD PTR [esp], xmm0
  00809	68 b0 04 00 00	 push	 1200			; 000004b0H
  0080e	68 00 01 00 00	 push	 256			; 00000100H
  00813	6a 02		 push	 2
  00815	6a 01		 push	 1
  00817	68 2a 04 00 00	 push	 1066			; 0000042aH
  0081c	e8 00 00 00 00	 call	 ?set_fixed_3d_object_database_item@@YGXHHHHHMW4TARGET_TYPES@@W4TARGET_SYMBOL_TYPES@@@Z ; set_fixed_3d_object_database_item

; 1212 : 
; 1213 : 	set_fixed_3d_object_database_item (OBJECT_3D_THAI_HOUSING_FR_SMALL_HOTEL2, EXPLOSIVE_QUALITY_DUST, EXPLOSIVE_POWER_MEDIUM, WARHEAD_EFFECTIVE_STONE_BUILDING, 1200, 0.0, TARGET_TYPE_INVALID, TARGET_SYMBOL_UNKNOWN);

  00821	6a 00		 push	 0
  00823	6a 00		 push	 0
  00825	51		 push	 ecx
  00826	0f 57 c0	 xorps	 xmm0, xmm0
  00829	f3 0f 11 04 24	 movss	 DWORD PTR [esp], xmm0
  0082e	68 b0 04 00 00	 push	 1200			; 000004b0H
  00833	68 00 01 00 00	 push	 256			; 00000100H
  00838	6a 02		 push	 2
  0083a	6a 01		 push	 1
  0083c	68 52 04 00 00	 push	 1106			; 00000452H
  00841	e8 00 00 00 00	 call	 ?set_fixed_3d_object_database_item@@YGXHHHHHMW4TARGET_TYPES@@W4TARGET_SYMBOL_TYPES@@@Z ; set_fixed_3d_object_database_item

; 1214 : 	set_fixed_3d_object_database_item (OBJECT_3D_THAI_HOUSING_FR_SMALL_HOTEL, EXPLOSIVE_QUALITY_DUST, EXPLOSIVE_POWER_MEDIUM, WARHEAD_EFFECTIVE_STONE_BUILDING, 1200, 0.0, TARGET_TYPE_INVALID, TARGET_SYMBOL_UNKNOWN);

  00846	6a 00		 push	 0
  00848	6a 00		 push	 0
  0084a	51		 push	 ecx
  0084b	0f 57 c0	 xorps	 xmm0, xmm0
  0084e	f3 0f 11 04 24	 movss	 DWORD PTR [esp], xmm0
  00853	68 b0 04 00 00	 push	 1200			; 000004b0H
  00858	68 00 01 00 00	 push	 256			; 00000100H
  0085d	6a 02		 push	 2
  0085f	6a 01		 push	 1
  00861	68 54 04 00 00	 push	 1108			; 00000454H
  00866	e8 00 00 00 00	 call	 ?set_fixed_3d_object_database_item@@YGXHHHHHMW4TARGET_TYPES@@W4TARGET_SYMBOL_TYPES@@@Z ; set_fixed_3d_object_database_item

; 1215 : 
; 1216 : 	set_fixed_3d_object_database_item (OBJECT_3D_THAI_OFFICE_FC_SQUAT_HOTEL, EXPLOSIVE_QUALITY_DUST, EXPLOSIVE_POWER_MEDIUM, WARHEAD_EFFECTIVE_STONE_BUILDING, 1200, 0.0, TARGET_TYPE_INVALID, TARGET_SYMBOL_UNKNOWN);

  0086b	6a 00		 push	 0
  0086d	6a 00		 push	 0
  0086f	51		 push	 ecx
  00870	0f 57 c0	 xorps	 xmm0, xmm0
  00873	f3 0f 11 04 24	 movss	 DWORD PTR [esp], xmm0
  00878	68 b0 04 00 00	 push	 1200			; 000004b0H
  0087d	68 00 01 00 00	 push	 256			; 00000100H
  00882	6a 02		 push	 2
  00884	6a 01		 push	 1
  00886	68 74 04 00 00	 push	 1140			; 00000474H
  0088b	e8 00 00 00 00	 call	 ?set_fixed_3d_object_database_item@@YGXHHHHHMW4TARGET_TYPES@@W4TARGET_SYMBOL_TYPES@@@Z ; set_fixed_3d_object_database_item

; 1217 : 
; 1218 : 	set_fixed_3d_object_database_item (OBJECT_3D_THAI_HOUSING_FR_TOWERBLOCKD, EXPLOSIVE_QUALITY_DUST, EXPLOSIVE_POWER_MEDIUM, WARHEAD_EFFECTIVE_STONE_BUILDING, 1200, 0.0, TARGET_TYPE_INVALID, TARGET_SYMBOL_UNKNOWN);

  00890	6a 00		 push	 0
  00892	6a 00		 push	 0
  00894	51		 push	 ecx
  00895	0f 57 c0	 xorps	 xmm0, xmm0
  00898	f3 0f 11 04 24	 movss	 DWORD PTR [esp], xmm0
  0089d	68 b0 04 00 00	 push	 1200			; 000004b0H
  008a2	68 00 01 00 00	 push	 256			; 00000100H
  008a7	6a 02		 push	 2
  008a9	6a 01		 push	 1
  008ab	68 5c 04 00 00	 push	 1116			; 0000045cH
  008b0	e8 00 00 00 00	 call	 ?set_fixed_3d_object_database_item@@YGXHHHHHMW4TARGET_TYPES@@W4TARGET_SYMBOL_TYPES@@@Z ; set_fixed_3d_object_database_item

; 1219 : 
; 1220 : 	set_fixed_3d_object_database_item (OBJECT_3D_GRG_HOUSING_FC_COMP1X1_4, EXPLOSIVE_QUALITY_DUST, EXPLOSIVE_POWER_MEDIUM, WARHEAD_EFFECTIVE_STONE_BUILDING, 1200, 0.0, TARGET_TYPE_INVALID, TARGET_SYMBOL_UNKNOWN);

  008b5	6a 00		 push	 0
  008b7	6a 00		 push	 0
  008b9	51		 push	 ecx
  008ba	0f 57 c0	 xorps	 xmm0, xmm0
  008bd	f3 0f 11 04 24	 movss	 DWORD PTR [esp], xmm0
  008c2	68 b0 04 00 00	 push	 1200			; 000004b0H
  008c7	68 00 01 00 00	 push	 256			; 00000100H
  008cc	6a 02		 push	 2
  008ce	6a 01		 push	 1
  008d0	68 46 03 00 00	 push	 838			; 00000346H
  008d5	e8 00 00 00 00	 call	 ?set_fixed_3d_object_database_item@@YGXHHHHHMW4TARGET_TYPES@@W4TARGET_SYMBOL_TYPES@@@Z ; set_fixed_3d_object_database_item

; 1221 : 	set_fixed_3d_object_database_item (OBJECT_3D_GRG_HOUSING_FC_COMP_2X1_5, EXPLOSIVE_QUALITY_DUST, EXPLOSIVE_POWER_MEDIUM, WARHEAD_EFFECTIVE_STONE_BUILDING, 1200, 0.0, TARGET_TYPE_INVALID, TARGET_SYMBOL_UNKNOWN);

  008da	6a 00		 push	 0
  008dc	6a 00		 push	 0
  008de	51		 push	 ecx
  008df	0f 57 c0	 xorps	 xmm0, xmm0
  008e2	f3 0f 11 04 24	 movss	 DWORD PTR [esp], xmm0
  008e7	68 b0 04 00 00	 push	 1200			; 000004b0H
  008ec	68 00 01 00 00	 push	 256			; 00000100H
  008f1	6a 02		 push	 2
  008f3	6a 01		 push	 1
  008f5	68 4a 03 00 00	 push	 842			; 0000034aH
  008fa	e8 00 00 00 00	 call	 ?set_fixed_3d_object_database_item@@YGXHHHHHMW4TARGET_TYPES@@W4TARGET_SYMBOL_TYPES@@@Z ; set_fixed_3d_object_database_item

; 1222 : 	set_fixed_3d_object_database_item (OBJECT_3D_GRG_HOUSING_FR_COMPTOWER3_5, EXPLOSIVE_QUALITY_DUST, EXPLOSIVE_POWER_MEDIUM, WARHEAD_EFFECTIVE_STONE_BUILDING, 1200, 0.0, TARGET_TYPE_INVALID, TARGET_SYMBOL_UNKNOWN);

  008ff	6a 00		 push	 0
  00901	6a 00		 push	 0
  00903	51		 push	 ecx
  00904	0f 57 c0	 xorps	 xmm0, xmm0
  00907	f3 0f 11 04 24	 movss	 DWORD PTR [esp], xmm0
  0090c	68 b0 04 00 00	 push	 1200			; 000004b0H
  00911	68 00 01 00 00	 push	 256			; 00000100H
  00916	6a 02		 push	 2
  00918	6a 01		 push	 1
  0091a	68 50 03 00 00	 push	 848			; 00000350H
  0091f	e8 00 00 00 00	 call	 ?set_fixed_3d_object_database_item@@YGXHHHHHMW4TARGET_TYPES@@W4TARGET_SYMBOL_TYPES@@@Z ; set_fixed_3d_object_database_item

; 1223 : 
; 1224 : 	set_fixed_3d_object_database_item (OBJECT_3D_GRG_HOUSING_FC_SHOPSLONG1, EXPLOSIVE_QUALITY_DUST, EXPLOSIVE_POWER_MEDIUM, WARHEAD_EFFECTIVE_STONE_BUILDING, 1200, 0.0, TARGET_TYPE_INVALID, TARGET_SYMBOL_UNKNOWN);

  00924	6a 00		 push	 0
  00926	6a 00		 push	 0
  00928	51		 push	 ecx
  00929	0f 57 c0	 xorps	 xmm0, xmm0
  0092c	f3 0f 11 04 24	 movss	 DWORD PTR [esp], xmm0
  00931	68 b0 04 00 00	 push	 1200			; 000004b0H
  00936	68 00 01 00 00	 push	 256			; 00000100H
  0093b	6a 02		 push	 2
  0093d	6a 01		 push	 1
  0093f	68 58 03 00 00	 push	 856			; 00000358H
  00944	e8 00 00 00 00	 call	 ?set_fixed_3d_object_database_item@@YGXHHHHHMW4TARGET_TYPES@@W4TARGET_SYMBOL_TYPES@@@Z ; set_fixed_3d_object_database_item

; 1225 : 	set_fixed_3d_object_database_item (OBJECT_3D_GRG_HOUSING_FC_SHOPSLONG2, EXPLOSIVE_QUALITY_DUST, EXPLOSIVE_POWER_MEDIUM, WARHEAD_EFFECTIVE_STONE_BUILDING, 1200, 0.0, TARGET_TYPE_INVALID, TARGET_SYMBOL_UNKNOWN);

  00949	6a 00		 push	 0
  0094b	6a 00		 push	 0
  0094d	51		 push	 ecx
  0094e	0f 57 c0	 xorps	 xmm0, xmm0
  00951	f3 0f 11 04 24	 movss	 DWORD PTR [esp], xmm0
  00956	68 b0 04 00 00	 push	 1200			; 000004b0H
  0095b	68 00 01 00 00	 push	 256			; 00000100H
  00960	6a 02		 push	 2
  00962	6a 01		 push	 1
  00964	68 5a 03 00 00	 push	 858			; 0000035aH
  00969	e8 00 00 00 00	 call	 ?set_fixed_3d_object_database_item@@YGXHHHHHMW4TARGET_TYPES@@W4TARGET_SYMBOL_TYPES@@@Z ; set_fixed_3d_object_database_item

; 1226 : 	set_fixed_3d_object_database_item (OBJECT_3D_GRG_HOUSING_FC_SIMPLE3, EXPLOSIVE_QUALITY_DUST, EXPLOSIVE_POWER_MEDIUM, WARHEAD_EFFECTIVE_STONE_BUILDING, 1200, 0.0, TARGET_TYPE_INVALID, TARGET_SYMBOL_UNKNOWN);

  0096e	6a 00		 push	 0
  00970	6a 00		 push	 0
  00972	51		 push	 ecx
  00973	0f 57 c0	 xorps	 xmm0, xmm0
  00976	f3 0f 11 04 24	 movss	 DWORD PTR [esp], xmm0
  0097b	68 b0 04 00 00	 push	 1200			; 000004b0H
  00980	68 00 01 00 00	 push	 256			; 00000100H
  00985	6a 02		 push	 2
  00987	6a 01		 push	 1
  00989	68 60 03 00 00	 push	 864			; 00000360H
  0098e	e8 00 00 00 00	 call	 ?set_fixed_3d_object_database_item@@YGXHHHHHMW4TARGET_TYPES@@W4TARGET_SYMBOL_TYPES@@@Z ; set_fixed_3d_object_database_item

; 1227 : 
; 1228 : 	set_fixed_3d_object_database_item (OBJECT_3D_GRG_OFFICE_FC_PILLAR_HOTEL, EXPLOSIVE_QUALITY_DUST, EXPLOSIVE_POWER_MEDIUM, WARHEAD_EFFECTIVE_STONE_BUILDING, 1200, 0.0, TARGET_TYPE_INVALID, TARGET_SYMBOL_UNKNOWN);

  00993	6a 00		 push	 0
  00995	6a 00		 push	 0
  00997	51		 push	 ecx
  00998	0f 57 c0	 xorps	 xmm0, xmm0
  0099b	f3 0f 11 04 24	 movss	 DWORD PTR [esp], xmm0
  009a0	68 b0 04 00 00	 push	 1200			; 000004b0H
  009a5	68 00 01 00 00	 push	 256			; 00000100H
  009aa	6a 02		 push	 2
  009ac	6a 01		 push	 1
  009ae	68 78 03 00 00	 push	 888			; 00000378H
  009b3	e8 00 00 00 00	 call	 ?set_fixed_3d_object_database_item@@YGXHHHHHMW4TARGET_TYPES@@W4TARGET_SYMBOL_TYPES@@@Z ; set_fixed_3d_object_database_item

; 1229 : 	set_fixed_3d_object_database_item (OBJECT_3D_GRG_OFFICE_FC_RECT_BLOCK, EXPLOSIVE_QUALITY_DUST, EXPLOSIVE_POWER_MEDIUM, WARHEAD_EFFECTIVE_STONE_BUILDING, 1200, 0.0, TARGET_TYPE_INVALID, TARGET_SYMBOL_UNKNOWN);

  009b8	6a 00		 push	 0
  009ba	6a 00		 push	 0
  009bc	51		 push	 ecx
  009bd	0f 57 c0	 xorps	 xmm0, xmm0
  009c0	f3 0f 11 04 24	 movss	 DWORD PTR [esp], xmm0
  009c5	68 b0 04 00 00	 push	 1200			; 000004b0H
  009ca	68 00 01 00 00	 push	 256			; 00000100H
  009cf	6a 02		 push	 2
  009d1	6a 01		 push	 1
  009d3	68 7a 03 00 00	 push	 890			; 0000037aH
  009d8	e8 00 00 00 00	 call	 ?set_fixed_3d_object_database_item@@YGXHHHHHMW4TARGET_TYPES@@W4TARGET_SYMBOL_TYPES@@@Z ; set_fixed_3d_object_database_item

; 1230 : 	set_fixed_3d_object_database_item (OBJECT_3D_GRG_OFFICE_FC_RECT_BLOCK2, EXPLOSIVE_QUALITY_DUST, EXPLOSIVE_POWER_MEDIUM, WARHEAD_EFFECTIVE_STONE_BUILDING, 1200, 0.0, TARGET_TYPE_INVALID, TARGET_SYMBOL_UNKNOWN);

  009dd	6a 00		 push	 0
  009df	6a 00		 push	 0
  009e1	51		 push	 ecx
  009e2	0f 57 c0	 xorps	 xmm0, xmm0
  009e5	f3 0f 11 04 24	 movss	 DWORD PTR [esp], xmm0
  009ea	68 b0 04 00 00	 push	 1200			; 000004b0H
  009ef	68 00 01 00 00	 push	 256			; 00000100H
  009f4	6a 02		 push	 2
  009f6	6a 01		 push	 1
  009f8	68 7b 03 00 00	 push	 891			; 0000037bH
  009fd	e8 00 00 00 00	 call	 ?set_fixed_3d_object_database_item@@YGXHHHHHMW4TARGET_TYPES@@W4TARGET_SYMBOL_TYPES@@@Z ; set_fixed_3d_object_database_item

; 1231 : 	set_fixed_3d_object_database_item (OBJECT_3D_GRG_OFFICE_FC_RECTHOTEL, EXPLOSIVE_QUALITY_DUST, EXPLOSIVE_POWER_MEDIUM, WARHEAD_EFFECTIVE_STONE_BUILDING, 1200, 0.0, TARGET_TYPE_INVALID, TARGET_SYMBOL_UNKNOWN);

  00a02	6a 00		 push	 0
  00a04	6a 00		 push	 0
  00a06	51		 push	 ecx
  00a07	0f 57 c0	 xorps	 xmm0, xmm0
  00a0a	f3 0f 11 04 24	 movss	 DWORD PTR [esp], xmm0
  00a0f	68 b0 04 00 00	 push	 1200			; 000004b0H
  00a14	68 00 01 00 00	 push	 256			; 00000100H
  00a19	6a 02		 push	 2
  00a1b	6a 01		 push	 1
  00a1d	68 7e 03 00 00	 push	 894			; 0000037eH
  00a22	e8 00 00 00 00	 call	 ?set_fixed_3d_object_database_item@@YGXHHHHHMW4TARGET_TYPES@@W4TARGET_SYMBOL_TYPES@@@Z ; set_fixed_3d_object_database_item

; 1232 : 	set_fixed_3d_object_database_item (OBJECT_3D_GRG_OFFICE_FC_TOWER_HOTEL, EXPLOSIVE_QUALITY_DUST, EXPLOSIVE_POWER_MEDIUM, WARHEAD_EFFECTIVE_STONE_BUILDING, 1200, 0.0, TARGET_TYPE_INVALID, TARGET_SYMBOL_UNKNOWN);

  00a27	6a 00		 push	 0
  00a29	6a 00		 push	 0
  00a2b	51		 push	 ecx
  00a2c	0f 57 c0	 xorps	 xmm0, xmm0
  00a2f	f3 0f 11 04 24	 movss	 DWORD PTR [esp], xmm0
  00a34	68 b0 04 00 00	 push	 1200			; 000004b0H
  00a39	68 00 01 00 00	 push	 256			; 00000100H
  00a3e	6a 02		 push	 2
  00a40	6a 01		 push	 1
  00a42	68 80 03 00 00	 push	 896			; 00000380H
  00a47	e8 00 00 00 00	 call	 ?set_fixed_3d_object_database_item@@YGXHHHHHMW4TARGET_TYPES@@W4TARGET_SYMBOL_TYPES@@@Z ; set_fixed_3d_object_database_item

; 1233 : 	set_fixed_3d_object_database_item (OBJECT_3D_GRG_OFFICE_FC_TOWER_OFFICE, EXPLOSIVE_QUALITY_DUST, EXPLOSIVE_POWER_MEDIUM, WARHEAD_EFFECTIVE_STONE_BUILDING, 1200, 0.0, TARGET_TYPE_INVALID, TARGET_SYMBOL_UNKNOWN);

  00a4c	6a 00		 push	 0
  00a4e	6a 00		 push	 0
  00a50	51		 push	 ecx
  00a51	0f 57 c0	 xorps	 xmm0, xmm0
  00a54	f3 0f 11 04 24	 movss	 DWORD PTR [esp], xmm0
  00a59	68 b0 04 00 00	 push	 1200			; 000004b0H
  00a5e	68 00 01 00 00	 push	 256			; 00000100H
  00a63	6a 02		 push	 2
  00a65	6a 01		 push	 1
  00a67	68 82 03 00 00	 push	 898			; 00000382H
  00a6c	e8 00 00 00 00	 call	 ?set_fixed_3d_object_database_item@@YGXHHHHHMW4TARGET_TYPES@@W4TARGET_SYMBOL_TYPES@@@Z ; set_fixed_3d_object_database_item

; 1234 : 	set_fixed_3d_object_database_item (OBJECT_3D_GRG_OFFICE_FC_CONCRETE_OFFICE, EXPLOSIVE_QUALITY_DUST, EXPLOSIVE_POWER_MEDIUM, WARHEAD_EFFECTIVE_STONE_BUILDING, 1200, 0.0, TARGET_TYPE_INVALID, TARGET_SYMBOL_UNKNOWN);

  00a71	6a 00		 push	 0
  00a73	6a 00		 push	 0
  00a75	51		 push	 ecx
  00a76	0f 57 c0	 xorps	 xmm0, xmm0
  00a79	f3 0f 11 04 24	 movss	 DWORD PTR [esp], xmm0
  00a7e	68 b0 04 00 00	 push	 1200			; 000004b0H
  00a83	68 00 01 00 00	 push	 256			; 00000100H
  00a88	6a 02		 push	 2
  00a8a	6a 01		 push	 1
  00a8c	68 88 03 00 00	 push	 904			; 00000388H
  00a91	e8 00 00 00 00	 call	 ?set_fixed_3d_object_database_item@@YGXHHHHHMW4TARGET_TYPES@@W4TARGET_SYMBOL_TYPES@@@Z ; set_fixed_3d_object_database_item

; 1235 : 	set_fixed_3d_object_database_item (OBJECT_3D_GRG_OFFICE_FR_SQUAREBLOCK, EXPLOSIVE_QUALITY_DUST, EXPLOSIVE_POWER_MEDIUM, WARHEAD_EFFECTIVE_STONE_BUILDING, 1200, 0.0, TARGET_TYPE_INVALID, TARGET_SYMBOL_UNKNOWN);

  00a96	6a 00		 push	 0
  00a98	6a 00		 push	 0
  00a9a	51		 push	 ecx
  00a9b	0f 57 c0	 xorps	 xmm0, xmm0
  00a9e	f3 0f 11 04 24	 movss	 DWORD PTR [esp], xmm0
  00aa3	68 b0 04 00 00	 push	 1200			; 000004b0H
  00aa8	68 00 01 00 00	 push	 256			; 00000100H
  00aad	6a 02		 push	 2
  00aaf	6a 01		 push	 1
  00ab1	68 8a 03 00 00	 push	 906			; 0000038aH
  00ab6	e8 00 00 00 00	 call	 ?set_fixed_3d_object_database_item@@YGXHHHHHMW4TARGET_TYPES@@W4TARGET_SYMBOL_TYPES@@@Z ; set_fixed_3d_object_database_item

; 1236 : 
; 1237 : 	set_fixed_3d_object_database_item (OBJECT_3D_HOUSING_FC_SYSTEM001_15M_3X5, EXPLOSIVE_QUALITY_DUST, EXPLOSIVE_POWER_MEDIUM, WARHEAD_EFFECTIVE_STONE_BUILDING, 1200, 0.0, TARGET_TYPE_INVALID, TARGET_SYMBOL_UNKNOWN);

  00abb	6a 00		 push	 0
  00abd	6a 00		 push	 0
  00abf	51		 push	 ecx
  00ac0	0f 57 c0	 xorps	 xmm0, xmm0
  00ac3	f3 0f 11 04 24	 movss	 DWORD PTR [esp], xmm0
  00ac8	68 b0 04 00 00	 push	 1200			; 000004b0H
  00acd	68 00 01 00 00	 push	 256			; 00000100H
  00ad2	6a 02		 push	 2
  00ad4	6a 01		 push	 1
  00ad6	68 36 02 00 00	 push	 566			; 00000236H
  00adb	e8 00 00 00 00	 call	 ?set_fixed_3d_object_database_item@@YGXHHHHHMW4TARGET_TYPES@@W4TARGET_SYMBOL_TYPES@@@Z ; set_fixed_3d_object_database_item

; 1238 : 	set_fixed_3d_object_database_item (OBJECT_3D_HOUSING_FC_SYSTEM001_20M_3X5, EXPLOSIVE_QUALITY_DUST, EXPLOSIVE_POWER_MEDIUM, WARHEAD_EFFECTIVE_STONE_BUILDING, 1200, 0.0, TARGET_TYPE_INVALID, TARGET_SYMBOL_UNKNOWN);

  00ae0	6a 00		 push	 0
  00ae2	6a 00		 push	 0
  00ae4	51		 push	 ecx
  00ae5	0f 57 c0	 xorps	 xmm0, xmm0
  00ae8	f3 0f 11 04 24	 movss	 DWORD PTR [esp], xmm0
  00aed	68 b0 04 00 00	 push	 1200			; 000004b0H
  00af2	68 00 01 00 00	 push	 256			; 00000100H
  00af7	6a 02		 push	 2
  00af9	6a 01		 push	 1
  00afb	68 38 02 00 00	 push	 568			; 00000238H
  00b00	e8 00 00 00 00	 call	 ?set_fixed_3d_object_database_item@@YGXHHHHHMW4TARGET_TYPES@@W4TARGET_SYMBOL_TYPES@@@Z ; set_fixed_3d_object_database_item

; 1239 : 	set_fixed_3d_object_database_item (OBJECT_3D_HOUSING_FC_SYSTEM001_25M_3X5, EXPLOSIVE_QUALITY_DUST, EXPLOSIVE_POWER_MEDIUM, WARHEAD_EFFECTIVE_STONE_BUILDING, 1200, 0.0, TARGET_TYPE_INVALID, TARGET_SYMBOL_UNKNOWN);

  00b05	6a 00		 push	 0
  00b07	6a 00		 push	 0
  00b09	51		 push	 ecx
  00b0a	0f 57 c0	 xorps	 xmm0, xmm0
  00b0d	f3 0f 11 04 24	 movss	 DWORD PTR [esp], xmm0
  00b12	68 b0 04 00 00	 push	 1200			; 000004b0H
  00b17	68 00 01 00 00	 push	 256			; 00000100H
  00b1c	6a 02		 push	 2
  00b1e	6a 01		 push	 1
  00b20	68 3a 02 00 00	 push	 570			; 0000023aH
  00b25	e8 00 00 00 00	 call	 ?set_fixed_3d_object_database_item@@YGXHHHHHMW4TARGET_TYPES@@W4TARGET_SYMBOL_TYPES@@@Z ; set_fixed_3d_object_database_item

; 1240 : 
; 1241 : 	set_fixed_3d_object_database_item (OBJECT_3D_GRG_CHURCH1_1X1, EXPLOSIVE_QUALITY_DUST, EXPLOSIVE_POWER_MEDIUM, WARHEAD_EFFECTIVE_STONE_BUILDING, 1200, 0.0, TARGET_TYPE_INVALID, TARGET_SYMBOL_UNKNOWN);

  00b2a	6a 00		 push	 0
  00b2c	6a 00		 push	 0
  00b2e	51		 push	 ecx
  00b2f	0f 57 c0	 xorps	 xmm0, xmm0
  00b32	f3 0f 11 04 24	 movss	 DWORD PTR [esp], xmm0
  00b37	68 b0 04 00 00	 push	 1200			; 000004b0H
  00b3c	68 00 01 00 00	 push	 256			; 00000100H
  00b41	6a 02		 push	 2
  00b43	6a 01		 push	 1
  00b45	68 16 03 00 00	 push	 790			; 00000316H
  00b4a	e8 00 00 00 00	 call	 ?set_fixed_3d_object_database_item@@YGXHHHHHMW4TARGET_TYPES@@W4TARGET_SYMBOL_TYPES@@@Z ; set_fixed_3d_object_database_item

; 1242 : 	set_fixed_3d_object_database_item (OBJECT_3D_GRG_CHURCH2_1X1, EXPLOSIVE_QUALITY_DUST, EXPLOSIVE_POWER_MEDIUM, WARHEAD_EFFECTIVE_STONE_BUILDING, 1200, 0.0, TARGET_TYPE_INVALID, TARGET_SYMBOL_UNKNOWN);

  00b4f	6a 00		 push	 0
  00b51	6a 00		 push	 0
  00b53	51		 push	 ecx
  00b54	0f 57 c0	 xorps	 xmm0, xmm0
  00b57	f3 0f 11 04 24	 movss	 DWORD PTR [esp], xmm0
  00b5c	68 b0 04 00 00	 push	 1200			; 000004b0H
  00b61	68 00 01 00 00	 push	 256			; 00000100H
  00b66	6a 02		 push	 2
  00b68	6a 01		 push	 1
  00b6a	68 17 03 00 00	 push	 791			; 00000317H
  00b6f	e8 00 00 00 00	 call	 ?set_fixed_3d_object_database_item@@YGXHHHHHMW4TARGET_TYPES@@W4TARGET_SYMBOL_TYPES@@@Z ; set_fixed_3d_object_database_item

; 1243 : 	set_fixed_3d_object_database_item (OBJECT_3D_GRG_CULTURAL1_1X1, EXPLOSIVE_QUALITY_DUST, EXPLOSIVE_POWER_MEDIUM, WARHEAD_EFFECTIVE_STONE_BUILDING, 1200, 0.0, TARGET_TYPE_INVALID, TARGET_SYMBOL_UNKNOWN);

  00b74	6a 00		 push	 0
  00b76	6a 00		 push	 0
  00b78	51		 push	 ecx
  00b79	0f 57 c0	 xorps	 xmm0, xmm0
  00b7c	f3 0f 11 04 24	 movss	 DWORD PTR [esp], xmm0
  00b81	68 b0 04 00 00	 push	 1200			; 000004b0H
  00b86	68 00 01 00 00	 push	 256			; 00000100H
  00b8b	6a 02		 push	 2
  00b8d	6a 01		 push	 1
  00b8f	68 18 03 00 00	 push	 792			; 00000318H
  00b94	e8 00 00 00 00	 call	 ?set_fixed_3d_object_database_item@@YGXHHHHHMW4TARGET_TYPES@@W4TARGET_SYMBOL_TYPES@@@Z ; set_fixed_3d_object_database_item

; 1244 : 	set_fixed_3d_object_database_item (OBJECT_3D_GRG_OUTSKIRTS2_2X2, EXPLOSIVE_QUALITY_DUST, EXPLOSIVE_POWER_MEDIUM, WARHEAD_EFFECTIVE_STONE_BUILDING, 1200, 0.0, TARGET_TYPE_INVALID, TARGET_SYMBOL_UNKNOWN);

  00b99	6a 00		 push	 0
  00b9b	6a 00		 push	 0
  00b9d	51		 push	 ecx
  00b9e	0f 57 c0	 xorps	 xmm0, xmm0
  00ba1	f3 0f 11 04 24	 movss	 DWORD PTR [esp], xmm0
  00ba6	68 b0 04 00 00	 push	 1200			; 000004b0H
  00bab	68 00 01 00 00	 push	 256			; 00000100H
  00bb0	6a 02		 push	 2
  00bb2	6a 01		 push	 1
  00bb4	68 24 03 00 00	 push	 804			; 00000324H
  00bb9	e8 00 00 00 00	 call	 ?set_fixed_3d_object_database_item@@YGXHHHHHMW4TARGET_TYPES@@W4TARGET_SYMBOL_TYPES@@@Z ; set_fixed_3d_object_database_item

; 1245 : 	set_fixed_3d_object_database_item (OBJECT_3D_GRG_OUTSKIRTS3_2X2, EXPLOSIVE_QUALITY_DUST, EXPLOSIVE_POWER_MEDIUM, WARHEAD_EFFECTIVE_STONE_BUILDING, 1200, 0.0, TARGET_TYPE_INVALID, TARGET_SYMBOL_UNKNOWN);

  00bbe	6a 00		 push	 0
  00bc0	6a 00		 push	 0
  00bc2	51		 push	 ecx
  00bc3	0f 57 c0	 xorps	 xmm0, xmm0
  00bc6	f3 0f 11 04 24	 movss	 DWORD PTR [esp], xmm0
  00bcb	68 b0 04 00 00	 push	 1200			; 000004b0H
  00bd0	68 00 01 00 00	 push	 256			; 00000100H
  00bd5	6a 02		 push	 2
  00bd7	6a 01		 push	 1
  00bd9	68 25 03 00 00	 push	 805			; 00000325H
  00bde	e8 00 00 00 00	 call	 ?set_fixed_3d_object_database_item@@YGXHHHHHMW4TARGET_TYPES@@W4TARGET_SYMBOL_TYPES@@@Z ; set_fixed_3d_object_database_item

; 1246 : 	set_fixed_3d_object_database_item (OBJECT_3D_GRG_OUTSKIRTS4_200X10, EXPLOSIVE_QUALITY_DUST, EXPLOSIVE_POWER_MEDIUM, WARHEAD_EFFECTIVE_STONE_BUILDING, 1200, 0.0, TARGET_TYPE_INVALID, TARGET_SYMBOL_UNKNOWN);

  00be3	6a 00		 push	 0
  00be5	6a 00		 push	 0
  00be7	51		 push	 ecx
  00be8	0f 57 c0	 xorps	 xmm0, xmm0
  00beb	f3 0f 11 04 24	 movss	 DWORD PTR [esp], xmm0
  00bf0	68 b0 04 00 00	 push	 1200			; 000004b0H
  00bf5	68 00 01 00 00	 push	 256			; 00000100H
  00bfa	6a 02		 push	 2
  00bfc	6a 01		 push	 1
  00bfe	68 26 03 00 00	 push	 806			; 00000326H
  00c03	e8 00 00 00 00	 call	 ?set_fixed_3d_object_database_item@@YGXHHHHHMW4TARGET_TYPES@@W4TARGET_SYMBOL_TYPES@@@Z ; set_fixed_3d_object_database_item

; 1247 : 	set_fixed_3d_object_database_item (OBJECT_3D_GRG_CHURCH_FR_TOWER, EXPLOSIVE_QUALITY_DUST, EXPLOSIVE_POWER_MEDIUM, WARHEAD_EFFECTIVE_STONE_BUILDING, 1200, 0.0, TARGET_TYPE_INVALID, TARGET_SYMBOL_UNKNOWN);

  00c08	6a 00		 push	 0
  00c0a	6a 00		 push	 0
  00c0c	51		 push	 ecx
  00c0d	0f 57 c0	 xorps	 xmm0, xmm0
  00c10	f3 0f 11 04 24	 movss	 DWORD PTR [esp], xmm0
  00c15	68 b0 04 00 00	 push	 1200			; 000004b0H
  00c1a	68 00 01 00 00	 push	 256			; 00000100H
  00c1f	6a 02		 push	 2
  00c21	6a 01		 push	 1
  00c23	68 29 03 00 00	 push	 809			; 00000329H
  00c28	e8 00 00 00 00	 call	 ?set_fixed_3d_object_database_item@@YGXHHHHHMW4TARGET_TYPES@@W4TARGET_SYMBOL_TYPES@@@Z ; set_fixed_3d_object_database_item

; 1248 : 
; 1249 : 	set_fixed_3d_object_database_item (OBJECT_3D_LEBANON_KEY_OIL_FC_CHIMNEY002_35M, EXPLOSIVE_QUALITY_DUST, EXPLOSIVE_POWER_MEDIUM, WARHEAD_EFFECTIVE_STONE_BUILDING, 1200, 0.0, TARGET_TYPE_INVALID, TARGET_SYMBOL_UNKNOWN);

  00c2d	6a 00		 push	 0
  00c2f	6a 00		 push	 0
  00c31	51		 push	 ecx
  00c32	0f 57 c0	 xorps	 xmm0, xmm0
  00c35	f3 0f 11 04 24	 movss	 DWORD PTR [esp], xmm0
  00c3a	68 b0 04 00 00	 push	 1200			; 000004b0H
  00c3f	68 00 01 00 00	 push	 256			; 00000100H
  00c44	6a 02		 push	 2
  00c46	6a 01		 push	 1
  00c48	68 49 06 00 00	 push	 1609			; 00000649H
  00c4d	e8 00 00 00 00	 call	 ?set_fixed_3d_object_database_item@@YGXHHHHHMW4TARGET_TYPES@@W4TARGET_SYMBOL_TYPES@@@Z ; set_fixed_3d_object_database_item

; 1250 : 	set_fixed_3d_object_database_item (OBJECT_3D_LEBANON_KEY_OIL_FC_CHIMNEY002_55M, EXPLOSIVE_QUALITY_DUST, EXPLOSIVE_POWER_MEDIUM, WARHEAD_EFFECTIVE_STONE_BUILDING, 1200, 0.0, TARGET_TYPE_INVALID, TARGET_SYMBOL_UNKNOWN);

  00c52	6a 00		 push	 0
  00c54	6a 00		 push	 0
  00c56	51		 push	 ecx
  00c57	0f 57 c0	 xorps	 xmm0, xmm0
  00c5a	f3 0f 11 04 24	 movss	 DWORD PTR [esp], xmm0
  00c5f	68 b0 04 00 00	 push	 1200			; 000004b0H
  00c64	68 00 01 00 00	 push	 256			; 00000100H
  00c69	6a 02		 push	 2
  00c6b	6a 01		 push	 1
  00c6d	68 4b 06 00 00	 push	 1611			; 0000064bH
  00c72	e8 00 00 00 00	 call	 ?set_fixed_3d_object_database_item@@YGXHHHHHMW4TARGET_TYPES@@W4TARGET_SYMBOL_TYPES@@@Z ; set_fixed_3d_object_database_item

; 1251 : 
; 1252 : 	set_fixed_3d_object_database_item (OBJECT_3D_LEBANON_KEY_POWER_FC_CHIMNEY002_35M, EXPLOSIVE_QUALITY_DUST, EXPLOSIVE_POWER_MEDIUM, WARHEAD_EFFECTIVE_STONE_BUILDING, 1200, 0.0, TARGET_TYPE_INVALID, TARGET_SYMBOL_UNKNOWN);

  00c77	6a 00		 push	 0
  00c79	6a 00		 push	 0
  00c7b	51		 push	 ecx
  00c7c	0f 57 c0	 xorps	 xmm0, xmm0
  00c7f	f3 0f 11 04 24	 movss	 DWORD PTR [esp], xmm0
  00c84	68 b0 04 00 00	 push	 1200			; 000004b0H
  00c89	68 00 01 00 00	 push	 256			; 00000100H
  00c8e	6a 02		 push	 2
  00c90	6a 01		 push	 1
  00c92	68 d0 06 00 00	 push	 1744			; 000006d0H
  00c97	e8 00 00 00 00	 call	 ?set_fixed_3d_object_database_item@@YGXHHHHHMW4TARGET_TYPES@@W4TARGET_SYMBOL_TYPES@@@Z ; set_fixed_3d_object_database_item

; 1253 : 	set_fixed_3d_object_database_item (OBJECT_3D_LEBANON_KEY_POWER_FC_CHIMNEY002_55M, EXPLOSIVE_QUALITY_DUST, EXPLOSIVE_POWER_MEDIUM, WARHEAD_EFFECTIVE_STONE_BUILDING, 1200, 0.0, TARGET_TYPE_INVALID, TARGET_SYMBOL_UNKNOWN);

  00c9c	6a 00		 push	 0
  00c9e	6a 00		 push	 0
  00ca0	51		 push	 ecx
  00ca1	0f 57 c0	 xorps	 xmm0, xmm0
  00ca4	f3 0f 11 04 24	 movss	 DWORD PTR [esp], xmm0
  00ca9	68 b0 04 00 00	 push	 1200			; 000004b0H
  00cae	68 00 01 00 00	 push	 256			; 00000100H
  00cb3	6a 02		 push	 2
  00cb5	6a 01		 push	 1
  00cb7	68 d2 06 00 00	 push	 1746			; 000006d2H
  00cbc	e8 00 00 00 00	 call	 ?set_fixed_3d_object_database_item@@YGXHHHHHMW4TARGET_TYPES@@W4TARGET_SYMBOL_TYPES@@@Z ; set_fixed_3d_object_database_item

; 1254 : 
; 1255 : 	set_fixed_3d_object_database_item (OBJECT_3D_LEBANON_KEY_INDUSTRY_FC_CHIMNEY002_35M, EXPLOSIVE_QUALITY_DUST, EXPLOSIVE_POWER_MEDIUM, WARHEAD_EFFECTIVE_STONE_BUILDING, 1200, 0.0, TARGET_TYPE_INVALID, TARGET_SYMBOL_UNKNOWN);

  00cc1	6a 00		 push	 0
  00cc3	6a 00		 push	 0
  00cc5	51		 push	 ecx
  00cc6	0f 57 c0	 xorps	 xmm0, xmm0
  00cc9	f3 0f 11 04 24	 movss	 DWORD PTR [esp], xmm0
  00cce	68 b0 04 00 00	 push	 1200			; 000004b0H
  00cd3	68 00 01 00 00	 push	 256			; 00000100H
  00cd8	6a 02		 push	 2
  00cda	6a 01		 push	 1
  00cdc	68 d6 05 00 00	 push	 1494			; 000005d6H
  00ce1	e8 00 00 00 00	 call	 ?set_fixed_3d_object_database_item@@YGXHHHHHMW4TARGET_TYPES@@W4TARGET_SYMBOL_TYPES@@@Z ; set_fixed_3d_object_database_item

; 1256 : 	set_fixed_3d_object_database_item (OBJECT_3D_LEBANON_KEY_INDUSTRY_FC_CHIMNEY002_55M, EXPLOSIVE_QUALITY_DUST, EXPLOSIVE_POWER_MEDIUM, WARHEAD_EFFECTIVE_STONE_BUILDING, 1200, 0.0, TARGET_TYPE_INVALID, TARGET_SYMBOL_UNKNOWN);

  00ce6	6a 00		 push	 0
  00ce8	6a 00		 push	 0
  00cea	51		 push	 ecx
  00ceb	0f 57 c0	 xorps	 xmm0, xmm0
  00cee	f3 0f 11 04 24	 movss	 DWORD PTR [esp], xmm0
  00cf3	68 b0 04 00 00	 push	 1200			; 000004b0H
  00cf8	68 00 01 00 00	 push	 256			; 00000100H
  00cfd	6a 02		 push	 2
  00cff	6a 01		 push	 1
  00d01	68 d8 05 00 00	 push	 1496			; 000005d8H
  00d06	e8 00 00 00 00	 call	 ?set_fixed_3d_object_database_item@@YGXHHHHHMW4TARGET_TYPES@@W4TARGET_SYMBOL_TYPES@@@Z ; set_fixed_3d_object_database_item

; 1257 : 
; 1258 : 	set_fixed_3d_object_database_item (OBJECT_3D_YEMEN_KEY_OIL_FC_CHIMNEY002_35M, EXPLOSIVE_QUALITY_DUST, EXPLOSIVE_POWER_MEDIUM, WARHEAD_EFFECTIVE_STONE_BUILDING, 1200, 0.0, TARGET_TYPE_INVALID, TARGET_SYMBOL_UNKNOWN);

  00d0b	6a 00		 push	 0
  00d0d	6a 00		 push	 0
  00d0f	51		 push	 ecx
  00d10	0f 57 c0	 xorps	 xmm0, xmm0
  00d13	f3 0f 11 04 24	 movss	 DWORD PTR [esp], xmm0
  00d18	68 b0 04 00 00	 push	 1200			; 000004b0H
  00d1d	68 00 01 00 00	 push	 256			; 00000100H
  00d22	6a 02		 push	 2
  00d24	6a 01		 push	 1
  00d26	68 43 09 00 00	 push	 2371			; 00000943H
  00d2b	e8 00 00 00 00	 call	 ?set_fixed_3d_object_database_item@@YGXHHHHHMW4TARGET_TYPES@@W4TARGET_SYMBOL_TYPES@@@Z ; set_fixed_3d_object_database_item

; 1259 : 	set_fixed_3d_object_database_item (OBJECT_3D_YEMEN_KEY_OIL_FC_CHIMNEY002_55M, EXPLOSIVE_QUALITY_DUST, EXPLOSIVE_POWER_MEDIUM, WARHEAD_EFFECTIVE_STONE_BUILDING, 1200, 0.0, TARGET_TYPE_INVALID, TARGET_SYMBOL_UNKNOWN);

  00d30	6a 00		 push	 0
  00d32	6a 00		 push	 0
  00d34	51		 push	 ecx
  00d35	0f 57 c0	 xorps	 xmm0, xmm0
  00d38	f3 0f 11 04 24	 movss	 DWORD PTR [esp], xmm0
  00d3d	68 b0 04 00 00	 push	 1200			; 000004b0H
  00d42	68 00 01 00 00	 push	 256			; 00000100H
  00d47	6a 02		 push	 2
  00d49	6a 01		 push	 1
  00d4b	68 45 09 00 00	 push	 2373			; 00000945H
  00d50	e8 00 00 00 00	 call	 ?set_fixed_3d_object_database_item@@YGXHHHHHMW4TARGET_TYPES@@W4TARGET_SYMBOL_TYPES@@@Z ; set_fixed_3d_object_database_item

; 1260 : 
; 1261 : 	set_fixed_3d_object_database_item (OBJECT_3D_YEMEN_KEY_POWER_FC_CHIMNEY002_35M, EXPLOSIVE_QUALITY_DUST, EXPLOSIVE_POWER_MEDIUM, WARHEAD_EFFECTIVE_STONE_BUILDING, 1200, 0.0, TARGET_TYPE_INVALID, TARGET_SYMBOL_UNKNOWN);

  00d55	6a 00		 push	 0
  00d57	6a 00		 push	 0
  00d59	51		 push	 ecx
  00d5a	0f 57 c0	 xorps	 xmm0, xmm0
  00d5d	f3 0f 11 04 24	 movss	 DWORD PTR [esp], xmm0
  00d62	68 b0 04 00 00	 push	 1200			; 000004b0H
  00d67	68 00 01 00 00	 push	 256			; 00000100H
  00d6c	6a 02		 push	 2
  00d6e	6a 01		 push	 1
  00d70	68 83 09 00 00	 push	 2435			; 00000983H
  00d75	e8 00 00 00 00	 call	 ?set_fixed_3d_object_database_item@@YGXHHHHHMW4TARGET_TYPES@@W4TARGET_SYMBOL_TYPES@@@Z ; set_fixed_3d_object_database_item

; 1262 : 	set_fixed_3d_object_database_item (OBJECT_3D_YEMEN_KEY_POWER_FC_CHIMNEY002_55M, EXPLOSIVE_QUALITY_DUST, EXPLOSIVE_POWER_MEDIUM, WARHEAD_EFFECTIVE_STONE_BUILDING, 1200, 0.0, TARGET_TYPE_INVALID, TARGET_SYMBOL_UNKNOWN);

  00d7a	6a 00		 push	 0
  00d7c	6a 00		 push	 0
  00d7e	51		 push	 ecx
  00d7f	0f 57 c0	 xorps	 xmm0, xmm0
  00d82	f3 0f 11 04 24	 movss	 DWORD PTR [esp], xmm0
  00d87	68 b0 04 00 00	 push	 1200			; 000004b0H
  00d8c	68 00 01 00 00	 push	 256			; 00000100H
  00d91	6a 02		 push	 2
  00d93	6a 01		 push	 1
  00d95	68 85 09 00 00	 push	 2437			; 00000985H
  00d9a	e8 00 00 00 00	 call	 ?set_fixed_3d_object_database_item@@YGXHHHHHMW4TARGET_TYPES@@W4TARGET_SYMBOL_TYPES@@@Z ; set_fixed_3d_object_database_item

; 1263 : 
; 1264 : 	set_fixed_3d_object_database_item (OBJECT_3D_TAIWAN_KEY_POWER_FC_CHIMNEY002_35M, EXPLOSIVE_QUALITY_DUST, EXPLOSIVE_POWER_MEDIUM, WARHEAD_EFFECTIVE_STONE_BUILDING, 1200, 0.0, TARGET_TYPE_INVALID, TARGET_SYMBOL_UNKNOWN);

  00d9f	6a 00		 push	 0
  00da1	6a 00		 push	 0
  00da3	51		 push	 ecx
  00da4	0f 57 c0	 xorps	 xmm0, xmm0
  00da7	f3 0f 11 04 24	 movss	 DWORD PTR [esp], xmm0
  00dac	68 b0 04 00 00	 push	 1200			; 000004b0H
  00db1	68 00 01 00 00	 push	 256			; 00000100H
  00db6	6a 02		 push	 2
  00db8	6a 01		 push	 1
  00dba	68 73 08 00 00	 push	 2163			; 00000873H
  00dbf	e8 00 00 00 00	 call	 ?set_fixed_3d_object_database_item@@YGXHHHHHMW4TARGET_TYPES@@W4TARGET_SYMBOL_TYPES@@@Z ; set_fixed_3d_object_database_item

; 1265 : 	set_fixed_3d_object_database_item (OBJECT_3D_TAIWAN_KEY_POWER_FC_CHIMNEY002_55M, EXPLOSIVE_QUALITY_DUST, EXPLOSIVE_POWER_MEDIUM, WARHEAD_EFFECTIVE_STONE_BUILDING, 1200, 0.0, TARGET_TYPE_INVALID, TARGET_SYMBOL_UNKNOWN);

  00dc4	6a 00		 push	 0
  00dc6	6a 00		 push	 0
  00dc8	51		 push	 ecx
  00dc9	0f 57 c0	 xorps	 xmm0, xmm0
  00dcc	f3 0f 11 04 24	 movss	 DWORD PTR [esp], xmm0
  00dd1	68 b0 04 00 00	 push	 1200			; 000004b0H
  00dd6	68 00 01 00 00	 push	 256			; 00000100H
  00ddb	6a 02		 push	 2
  00ddd	6a 01		 push	 1
  00ddf	68 75 08 00 00	 push	 2165			; 00000875H
  00de4	e8 00 00 00 00	 call	 ?set_fixed_3d_object_database_item@@YGXHHHHHMW4TARGET_TYPES@@W4TARGET_SYMBOL_TYPES@@@Z ; set_fixed_3d_object_database_item

; 1266 : 
; 1267 : 	set_fixed_3d_object_database_item (OBJECT_3D_TAIWAN_KEY_INDUSTRY_FC_CHIMNEY002_35M, EXPLOSIVE_QUALITY_DUST, EXPLOSIVE_POWER_MEDIUM, WARHEAD_EFFECTIVE_STONE_BUILDING, 1200, 0.0, TARGET_TYPE_INVALID, TARGET_SYMBOL_UNKNOWN);

  00de9	6a 00		 push	 0
  00deb	6a 00		 push	 0
  00ded	51		 push	 ecx
  00dee	0f 57 c0	 xorps	 xmm0, xmm0
  00df1	f3 0f 11 04 24	 movss	 DWORD PTR [esp], xmm0
  00df6	68 b0 04 00 00	 push	 1200			; 000004b0H
  00dfb	68 00 01 00 00	 push	 256			; 00000100H
  00e00	6a 02		 push	 2
  00e02	6a 01		 push	 1
  00e04	68 a9 07 00 00	 push	 1961			; 000007a9H
  00e09	e8 00 00 00 00	 call	 ?set_fixed_3d_object_database_item@@YGXHHHHHMW4TARGET_TYPES@@W4TARGET_SYMBOL_TYPES@@@Z ; set_fixed_3d_object_database_item

; 1268 : 	set_fixed_3d_object_database_item (OBJECT_3D_TAIWAN_KEY_INDUSTRY_FC_CHIMNEY002_55M, EXPLOSIVE_QUALITY_DUST, EXPLOSIVE_POWER_MEDIUM, WARHEAD_EFFECTIVE_STONE_BUILDING, 1200, 0.0, TARGET_TYPE_INVALID, TARGET_SYMBOL_UNKNOWN);

  00e0e	6a 00		 push	 0
  00e10	6a 00		 push	 0
  00e12	51		 push	 ecx
  00e13	0f 57 c0	 xorps	 xmm0, xmm0
  00e16	f3 0f 11 04 24	 movss	 DWORD PTR [esp], xmm0
  00e1b	68 b0 04 00 00	 push	 1200			; 000004b0H
  00e20	68 00 01 00 00	 push	 256			; 00000100H
  00e25	6a 02		 push	 2
  00e27	6a 01		 push	 1
  00e29	68 ab 07 00 00	 push	 1963			; 000007abH
  00e2e	e8 00 00 00 00	 call	 ?set_fixed_3d_object_database_item@@YGXHHHHHMW4TARGET_TYPES@@W4TARGET_SYMBOL_TYPES@@@Z ; set_fixed_3d_object_database_item

; 1269 : 
; 1270 : 	set_fixed_3d_object_database_item (OBJECT_3D_TAIWAN_KEY_OIL_FC_CHIMNEY002_35M, EXPLOSIVE_QUALITY_DUST, EXPLOSIVE_POWER_MEDIUM, WARHEAD_EFFECTIVE_STONE_BUILDING, 1200, 0.0, TARGET_TYPE_INVALID, TARGET_SYMBOL_UNKNOWN);

  00e33	6a 00		 push	 0
  00e35	6a 00		 push	 0
  00e37	51		 push	 ecx
  00e38	0f 57 c0	 xorps	 xmm0, xmm0
  00e3b	f3 0f 11 04 24	 movss	 DWORD PTR [esp], xmm0
  00e40	68 b0 04 00 00	 push	 1200			; 000004b0H
  00e45	68 00 01 00 00	 push	 256			; 00000100H
  00e4a	6a 02		 push	 2
  00e4c	6a 01		 push	 1
  00e4e	68 37 08 00 00	 push	 2103			; 00000837H
  00e53	e8 00 00 00 00	 call	 ?set_fixed_3d_object_database_item@@YGXHHHHHMW4TARGET_TYPES@@W4TARGET_SYMBOL_TYPES@@@Z ; set_fixed_3d_object_database_item

; 1271 : 	set_fixed_3d_object_database_item (OBJECT_3D_TAIWAN_KEY_OIL_FC_CHIMNEY002_55M, EXPLOSIVE_QUALITY_DUST, EXPLOSIVE_POWER_MEDIUM, WARHEAD_EFFECTIVE_STONE_BUILDING, 1200, 0.0, TARGET_TYPE_INVALID, TARGET_SYMBOL_UNKNOWN);

  00e58	6a 00		 push	 0
  00e5a	6a 00		 push	 0
  00e5c	51		 push	 ecx
  00e5d	0f 57 c0	 xorps	 xmm0, xmm0
  00e60	f3 0f 11 04 24	 movss	 DWORD PTR [esp], xmm0
  00e65	68 b0 04 00 00	 push	 1200			; 000004b0H
  00e6a	68 00 01 00 00	 push	 256			; 00000100H
  00e6f	6a 02		 push	 2
  00e71	6a 01		 push	 1
  00e73	68 39 08 00 00	 push	 2105			; 00000839H
  00e78	e8 00 00 00 00	 call	 ?set_fixed_3d_object_database_item@@YGXHHHHHMW4TARGET_TYPES@@W4TARGET_SYMBOL_TYPES@@@Z ; set_fixed_3d_object_database_item

; 1272 : }

  00e7d	5f		 pop	 edi
  00e7e	5e		 pop	 esi
  00e7f	5b		 pop	 ebx
  00e80	8b e5		 mov	 esp, ebp
  00e82	5d		 pop	 ebp
  00e83	c3		 ret	 0
?initialise_zero_importance_medium_stone_buildings@@YGXXZ ENDP ; initialise_zero_importance_medium_stone_buildings
_TEXT	ENDS
; Function compile flags: /Odtp /ZI
; File c:\users\nhv90\projects\eech\aphavoc\source\entity\fixed\fx_objdb.c
;	COMDAT ?initialise_zero_importance_large_stone_buildings@@YGXXZ
_TEXT	SEGMENT
?initialise_zero_importance_large_stone_buildings@@YGXXZ PROC ; initialise_zero_importance_large_stone_buildings, COMDAT

; 1037 : {

  00000	55		 push	 ebp
  00001	8b ec		 mov	 ebp, esp
  00003	83 ec 40	 sub	 esp, 64			; 00000040H
  00006	53		 push	 ebx
  00007	56		 push	 esi
  00008	57		 push	 edi

; 1038 : 	////////////////////////////////////////////////////////////////////////////////////
; 1039 : 	//
; 1040 : 	// ZERO IMPORTANCE LARGE STONE BUILDINGS
; 1041 : 	//
; 1042 : 	////////////////////////////////////////////////////////////////////////////////////
; 1043 : 
; 1044 : 	// VALID TARGETS
; 1045 : 
; 1046 : 	// INVALID TARGETS
; 1047 : 
; 1048 : 	set_fixed_3d_object_database_item (OBJECT_3D_HOUSING_EX_BLUEAPART001_20M, EXPLOSIVE_QUALITY_DUST, EXPLOSIVE_POWER_HIGH, WARHEAD_EFFECTIVE_STONE_BUILDING, 2000, IMPORTANCE_NONE, TARGET_TYPE_INVALID, TARGET_SYMBOL_UNKNOWN);

  00009	6a 00		 push	 0
  0000b	6a 00		 push	 0
  0000d	51		 push	 ecx
  0000e	0f 57 c0	 xorps	 xmm0, xmm0
  00011	f3 0f 11 04 24	 movss	 DWORD PTR [esp], xmm0
  00016	68 d0 07 00 00	 push	 2000			; 000007d0H
  0001b	68 00 01 00 00	 push	 256			; 00000100H
  00020	6a 03		 push	 3
  00022	6a 01		 push	 1
  00024	68 ec 01 00 00	 push	 492			; 000001ecH
  00029	e8 00 00 00 00	 call	 ?set_fixed_3d_object_database_item@@YGXHHHHHMW4TARGET_TYPES@@W4TARGET_SYMBOL_TYPES@@@Z ; set_fixed_3d_object_database_item

; 1049 : 	set_fixed_3d_object_database_item (OBJECT_3D_HOUSING_EX_BLUEAPART001_30M, EXPLOSIVE_QUALITY_DUST, EXPLOSIVE_POWER_HIGH, WARHEAD_EFFECTIVE_STONE_BUILDING, 2000, IMPORTANCE_NONE, TARGET_TYPE_INVALID, TARGET_SYMBOL_UNKNOWN);

  0002e	6a 00		 push	 0
  00030	6a 00		 push	 0
  00032	51		 push	 ecx
  00033	0f 57 c0	 xorps	 xmm0, xmm0
  00036	f3 0f 11 04 24	 movss	 DWORD PTR [esp], xmm0
  0003b	68 d0 07 00 00	 push	 2000			; 000007d0H
  00040	68 00 01 00 00	 push	 256			; 00000100H
  00045	6a 03		 push	 3
  00047	6a 01		 push	 1
  00049	68 ee 01 00 00	 push	 494			; 000001eeH
  0004e	e8 00 00 00 00	 call	 ?set_fixed_3d_object_database_item@@YGXHHHHHMW4TARGET_TYPES@@W4TARGET_SYMBOL_TYPES@@@Z ; set_fixed_3d_object_database_item

; 1050 : 	set_fixed_3d_object_database_item (OBJECT_3D_HOUSING_EX_GREENAPART001_20M, EXPLOSIVE_QUALITY_DUST, EXPLOSIVE_POWER_HIGH, WARHEAD_EFFECTIVE_STONE_BUILDING, 2000, IMPORTANCE_NONE, TARGET_TYPE_INVALID, TARGET_SYMBOL_UNKNOWN);

  00053	6a 00		 push	 0
  00055	6a 00		 push	 0
  00057	51		 push	 ecx
  00058	0f 57 c0	 xorps	 xmm0, xmm0
  0005b	f3 0f 11 04 24	 movss	 DWORD PTR [esp], xmm0
  00060	68 d0 07 00 00	 push	 2000			; 000007d0H
  00065	68 00 01 00 00	 push	 256			; 00000100H
  0006a	6a 03		 push	 3
  0006c	6a 01		 push	 1
  0006e	68 f0 01 00 00	 push	 496			; 000001f0H
  00073	e8 00 00 00 00	 call	 ?set_fixed_3d_object_database_item@@YGXHHHHHMW4TARGET_TYPES@@W4TARGET_SYMBOL_TYPES@@@Z ; set_fixed_3d_object_database_item

; 1051 : 	set_fixed_3d_object_database_item (OBJECT_3D_HOUSING_EX_HOTEL001_35M, EXPLOSIVE_QUALITY_DUST, EXPLOSIVE_POWER_HIGH, WARHEAD_EFFECTIVE_STONE_BUILDING, 2000, IMPORTANCE_NONE, TARGET_TYPE_INVALID, TARGET_SYMBOL_UNKNOWN);

  00078	6a 00		 push	 0
  0007a	6a 00		 push	 0
  0007c	51		 push	 ecx
  0007d	0f 57 c0	 xorps	 xmm0, xmm0
  00080	f3 0f 11 04 24	 movss	 DWORD PTR [esp], xmm0
  00085	68 d0 07 00 00	 push	 2000			; 000007d0H
  0008a	68 00 01 00 00	 push	 256			; 00000100H
  0008f	6a 03		 push	 3
  00091	6a 01		 push	 1
  00093	68 f2 01 00 00	 push	 498			; 000001f2H
  00098	e8 00 00 00 00	 call	 ?set_fixed_3d_object_database_item@@YGXHHHHHMW4TARGET_TYPES@@W4TARGET_SYMBOL_TYPES@@@Z ; set_fixed_3d_object_database_item

; 1052 : 	set_fixed_3d_object_database_item (OBJECT_3D_HOUSING_EX_HOTEL002_35M, EXPLOSIVE_QUALITY_DUST, EXPLOSIVE_POWER_HIGH, WARHEAD_EFFECTIVE_STONE_BUILDING, 2000, IMPORTANCE_NONE, TARGET_TYPE_INVALID, TARGET_SYMBOL_UNKNOWN);

  0009d	6a 00		 push	 0
  0009f	6a 00		 push	 0
  000a1	51		 push	 ecx
  000a2	0f 57 c0	 xorps	 xmm0, xmm0
  000a5	f3 0f 11 04 24	 movss	 DWORD PTR [esp], xmm0
  000aa	68 d0 07 00 00	 push	 2000			; 000007d0H
  000af	68 00 01 00 00	 push	 256			; 00000100H
  000b4	6a 03		 push	 3
  000b6	6a 01		 push	 1
  000b8	68 f4 01 00 00	 push	 500			; 000001f4H
  000bd	e8 00 00 00 00	 call	 ?set_fixed_3d_object_database_item@@YGXHHHHHMW4TARGET_TYPES@@W4TARGET_SYMBOL_TYPES@@@Z ; set_fixed_3d_object_database_item

; 1053 : 	set_fixed_3d_object_database_item (OBJECT_3D_HOUSING_EX_HOTEL003_35M, EXPLOSIVE_QUALITY_DUST, EXPLOSIVE_POWER_HIGH, WARHEAD_EFFECTIVE_STONE_BUILDING, 2000, IMPORTANCE_NONE, TARGET_TYPE_INVALID, TARGET_SYMBOL_UNKNOWN);

  000c2	6a 00		 push	 0
  000c4	6a 00		 push	 0
  000c6	51		 push	 ecx
  000c7	0f 57 c0	 xorps	 xmm0, xmm0
  000ca	f3 0f 11 04 24	 movss	 DWORD PTR [esp], xmm0
  000cf	68 d0 07 00 00	 push	 2000			; 000007d0H
  000d4	68 00 01 00 00	 push	 256			; 00000100H
  000d9	6a 03		 push	 3
  000db	6a 01		 push	 1
  000dd	68 f6 01 00 00	 push	 502			; 000001f6H
  000e2	e8 00 00 00 00	 call	 ?set_fixed_3d_object_database_item@@YGXHHHHHMW4TARGET_TYPES@@W4TARGET_SYMBOL_TYPES@@@Z ; set_fixed_3d_object_database_item

; 1054 : 	set_fixed_3d_object_database_item (OBJECT_3D_HOUSING_EX_STONEAPART006_20M, EXPLOSIVE_QUALITY_DUST, EXPLOSIVE_POWER_HIGH, WARHEAD_EFFECTIVE_STONE_BUILDING, 2000, IMPORTANCE_NONE, TARGET_TYPE_INVALID, TARGET_SYMBOL_UNKNOWN);

  000e7	6a 00		 push	 0
  000e9	6a 00		 push	 0
  000eb	51		 push	 ecx
  000ec	0f 57 c0	 xorps	 xmm0, xmm0
  000ef	f3 0f 11 04 24	 movss	 DWORD PTR [esp], xmm0
  000f4	68 d0 07 00 00	 push	 2000			; 000007d0H
  000f9	68 00 01 00 00	 push	 256			; 00000100H
  000fe	6a 03		 push	 3
  00100	6a 01		 push	 1
  00102	68 f8 01 00 00	 push	 504			; 000001f8H
  00107	e8 00 00 00 00	 call	 ?set_fixed_3d_object_database_item@@YGXHHHHHMW4TARGET_TYPES@@W4TARGET_SYMBOL_TYPES@@@Z ; set_fixed_3d_object_database_item

; 1055 : 	set_fixed_3d_object_database_item (OBJECT_3D_HOUSING_EX_STONEAPART006_26M, EXPLOSIVE_QUALITY_DUST, EXPLOSIVE_POWER_HIGH, WARHEAD_EFFECTIVE_STONE_BUILDING, 2000, IMPORTANCE_NONE, TARGET_TYPE_INVALID, TARGET_SYMBOL_UNKNOWN);

  0010c	6a 00		 push	 0
  0010e	6a 00		 push	 0
  00110	51		 push	 ecx
  00111	0f 57 c0	 xorps	 xmm0, xmm0
  00114	f3 0f 11 04 24	 movss	 DWORD PTR [esp], xmm0
  00119	68 d0 07 00 00	 push	 2000			; 000007d0H
  0011e	68 00 01 00 00	 push	 256			; 00000100H
  00123	6a 03		 push	 3
  00125	6a 01		 push	 1
  00127	68 fa 01 00 00	 push	 506			; 000001faH
  0012c	e8 00 00 00 00	 call	 ?set_fixed_3d_object_database_item@@YGXHHHHHMW4TARGET_TYPES@@W4TARGET_SYMBOL_TYPES@@@Z ; set_fixed_3d_object_database_item

; 1056 : 	set_fixed_3d_object_database_item (OBJECT_3D_HOUSING_EX_STONEAPART008_16M, EXPLOSIVE_QUALITY_DUST, EXPLOSIVE_POWER_HIGH, WARHEAD_EFFECTIVE_STONE_BUILDING, 2000, IMPORTANCE_NONE, TARGET_TYPE_INVALID, TARGET_SYMBOL_UNKNOWN);

  00131	6a 00		 push	 0
  00133	6a 00		 push	 0
  00135	51		 push	 ecx
  00136	0f 57 c0	 xorps	 xmm0, xmm0
  00139	f3 0f 11 04 24	 movss	 DWORD PTR [esp], xmm0
  0013e	68 d0 07 00 00	 push	 2000			; 000007d0H
  00143	68 00 01 00 00	 push	 256			; 00000100H
  00148	6a 03		 push	 3
  0014a	6a 01		 push	 1
  0014c	68 fc 01 00 00	 push	 508			; 000001fcH
  00151	e8 00 00 00 00	 call	 ?set_fixed_3d_object_database_item@@YGXHHHHHMW4TARGET_TYPES@@W4TARGET_SYMBOL_TYPES@@@Z ; set_fixed_3d_object_database_item

; 1057 : 	set_fixed_3d_object_database_item (OBJECT_3D_HOUSING_EX_STONEAPART008_22M, EXPLOSIVE_QUALITY_DUST, EXPLOSIVE_POWER_HIGH, WARHEAD_EFFECTIVE_STONE_BUILDING, 2000, IMPORTANCE_NONE, TARGET_TYPE_INVALID, TARGET_SYMBOL_UNKNOWN);

  00156	6a 00		 push	 0
  00158	6a 00		 push	 0
  0015a	51		 push	 ecx
  0015b	0f 57 c0	 xorps	 xmm0, xmm0
  0015e	f3 0f 11 04 24	 movss	 DWORD PTR [esp], xmm0
  00163	68 d0 07 00 00	 push	 2000			; 000007d0H
  00168	68 00 01 00 00	 push	 256			; 00000100H
  0016d	6a 03		 push	 3
  0016f	6a 01		 push	 1
  00171	68 fe 01 00 00	 push	 510			; 000001feH
  00176	e8 00 00 00 00	 call	 ?set_fixed_3d_object_database_item@@YGXHHHHHMW4TARGET_TYPES@@W4TARGET_SYMBOL_TYPES@@@Z ; set_fixed_3d_object_database_item

; 1058 : 	set_fixed_3d_object_database_item (OBJECT_3D_HOUSING_EX_STONEAPART008_28M, EXPLOSIVE_QUALITY_DUST, EXPLOSIVE_POWER_HIGH, WARHEAD_EFFECTIVE_STONE_BUILDING, 2000, IMPORTANCE_NONE, TARGET_TYPE_INVALID, TARGET_SYMBOL_UNKNOWN);

  0017b	6a 00		 push	 0
  0017d	6a 00		 push	 0
  0017f	51		 push	 ecx
  00180	0f 57 c0	 xorps	 xmm0, xmm0
  00183	f3 0f 11 04 24	 movss	 DWORD PTR [esp], xmm0
  00188	68 d0 07 00 00	 push	 2000			; 000007d0H
  0018d	68 00 01 00 00	 push	 256			; 00000100H
  00192	6a 03		 push	 3
  00194	6a 01		 push	 1
  00196	68 00 02 00 00	 push	 512			; 00000200H
  0019b	e8 00 00 00 00	 call	 ?set_fixed_3d_object_database_item@@YGXHHHHHMW4TARGET_TYPES@@W4TARGET_SYMBOL_TYPES@@@Z ; set_fixed_3d_object_database_item

; 1059 : 	set_fixed_3d_object_database_item (OBJECT_3D_HOUSING_FC_BLUEAPART001_23M, EXPLOSIVE_QUALITY_DUST, EXPLOSIVE_POWER_HIGH, WARHEAD_EFFECTIVE_STONE_BUILDING, 2000, IMPORTANCE_NONE, TARGET_TYPE_INVALID, TARGET_SYMBOL_UNKNOWN);

  001a0	6a 00		 push	 0
  001a2	6a 00		 push	 0
  001a4	51		 push	 ecx
  001a5	0f 57 c0	 xorps	 xmm0, xmm0
  001a8	f3 0f 11 04 24	 movss	 DWORD PTR [esp], xmm0
  001ad	68 d0 07 00 00	 push	 2000			; 000007d0H
  001b2	68 00 01 00 00	 push	 256			; 00000100H
  001b7	6a 03		 push	 3
  001b9	6a 01		 push	 1
  001bb	68 02 02 00 00	 push	 514			; 00000202H
  001c0	e8 00 00 00 00	 call	 ?set_fixed_3d_object_database_item@@YGXHHHHHMW4TARGET_TYPES@@W4TARGET_SYMBOL_TYPES@@@Z ; set_fixed_3d_object_database_item

; 1060 : 	set_fixed_3d_object_database_item (OBJECT_3D_HOUSING_FC_CONCAPART001_22_M, EXPLOSIVE_QUALITY_DUST, EXPLOSIVE_POWER_HIGH, WARHEAD_EFFECTIVE_STONE_BUILDING, 2000, IMPORTANCE_NONE, TARGET_TYPE_INVALID, TARGET_SYMBOL_UNKNOWN);

  001c5	6a 00		 push	 0
  001c7	6a 00		 push	 0
  001c9	51		 push	 ecx
  001ca	0f 57 c0	 xorps	 xmm0, xmm0
  001cd	f3 0f 11 04 24	 movss	 DWORD PTR [esp], xmm0
  001d2	68 d0 07 00 00	 push	 2000			; 000007d0H
  001d7	68 00 01 00 00	 push	 256			; 00000100H
  001dc	6a 03		 push	 3
  001de	6a 01		 push	 1
  001e0	68 04 02 00 00	 push	 516			; 00000204H
  001e5	e8 00 00 00 00	 call	 ?set_fixed_3d_object_database_item@@YGXHHHHHMW4TARGET_TYPES@@W4TARGET_SYMBOL_TYPES@@@Z ; set_fixed_3d_object_database_item

; 1061 : 	set_fixed_3d_object_database_item (OBJECT_3D_HOUSING_FC_CONCAPART001_28M, EXPLOSIVE_QUALITY_DUST, EXPLOSIVE_POWER_HIGH, WARHEAD_EFFECTIVE_STONE_BUILDING, 2000, IMPORTANCE_NONE, TARGET_TYPE_INVALID, TARGET_SYMBOL_UNKNOWN);

  001ea	6a 00		 push	 0
  001ec	6a 00		 push	 0
  001ee	51		 push	 ecx
  001ef	0f 57 c0	 xorps	 xmm0, xmm0
  001f2	f3 0f 11 04 24	 movss	 DWORD PTR [esp], xmm0
  001f7	68 d0 07 00 00	 push	 2000			; 000007d0H
  001fc	68 00 01 00 00	 push	 256			; 00000100H
  00201	6a 03		 push	 3
  00203	6a 01		 push	 1
  00205	68 06 02 00 00	 push	 518			; 00000206H
  0020a	e8 00 00 00 00	 call	 ?set_fixed_3d_object_database_item@@YGXHHHHHMW4TARGET_TYPES@@W4TARGET_SYMBOL_TYPES@@@Z ; set_fixed_3d_object_database_item

; 1062 : 	set_fixed_3d_object_database_item (OBJECT_3D_HOUSING_FC_CONCAPART007_24M, EXPLOSIVE_QUALITY_DUST, EXPLOSIVE_POWER_HIGH, WARHEAD_EFFECTIVE_STONE_BUILDING, 2000, IMPORTANCE_NONE, TARGET_TYPE_INVALID, TARGET_SYMBOL_UNKNOWN);

  0020f	6a 00		 push	 0
  00211	6a 00		 push	 0
  00213	51		 push	 ecx
  00214	0f 57 c0	 xorps	 xmm0, xmm0
  00217	f3 0f 11 04 24	 movss	 DWORD PTR [esp], xmm0
  0021c	68 d0 07 00 00	 push	 2000			; 000007d0H
  00221	68 00 01 00 00	 push	 256			; 00000100H
  00226	6a 03		 push	 3
  00228	6a 01		 push	 1
  0022a	68 08 02 00 00	 push	 520			; 00000208H
  0022f	e8 00 00 00 00	 call	 ?set_fixed_3d_object_database_item@@YGXHHHHHMW4TARGET_TYPES@@W4TARGET_SYMBOL_TYPES@@@Z ; set_fixed_3d_object_database_item

; 1063 : 	set_fixed_3d_object_database_item (OBJECT_3D_HOUSING_FC_CONCAPART007_25M, EXPLOSIVE_QUALITY_DUST, EXPLOSIVE_POWER_HIGH, WARHEAD_EFFECTIVE_STONE_BUILDING, 2000, IMPORTANCE_NONE, TARGET_TYPE_INVALID, TARGET_SYMBOL_UNKNOWN);

  00234	6a 00		 push	 0
  00236	6a 00		 push	 0
  00238	51		 push	 ecx
  00239	0f 57 c0	 xorps	 xmm0, xmm0
  0023c	f3 0f 11 04 24	 movss	 DWORD PTR [esp], xmm0
  00241	68 d0 07 00 00	 push	 2000			; 000007d0H
  00246	68 00 01 00 00	 push	 256			; 00000100H
  0024b	6a 03		 push	 3
  0024d	6a 01		 push	 1
  0024f	68 0a 02 00 00	 push	 522			; 0000020aH
  00254	e8 00 00 00 00	 call	 ?set_fixed_3d_object_database_item@@YGXHHHHHMW4TARGET_TYPES@@W4TARGET_SYMBOL_TYPES@@@Z ; set_fixed_3d_object_database_item

; 1064 : 
; 1065 : 	set_fixed_3d_object_database_item (OBJECT_3D_HOUSING_FC_STONEAPART002_25M, EXPLOSIVE_QUALITY_DUST, EXPLOSIVE_POWER_HIGH, WARHEAD_EFFECTIVE_STONE_BUILDING, 2000, IMPORTANCE_NONE, TARGET_TYPE_INVALID, TARGET_SYMBOL_UNKNOWN);

  00259	6a 00		 push	 0
  0025b	6a 00		 push	 0
  0025d	51		 push	 ecx
  0025e	0f 57 c0	 xorps	 xmm0, xmm0
  00261	f3 0f 11 04 24	 movss	 DWORD PTR [esp], xmm0
  00266	68 d0 07 00 00	 push	 2000			; 000007d0H
  0026b	68 00 01 00 00	 push	 256			; 00000100H
  00270	6a 03		 push	 3
  00272	6a 01		 push	 1
  00274	68 1a 02 00 00	 push	 538			; 0000021aH
  00279	e8 00 00 00 00	 call	 ?set_fixed_3d_object_database_item@@YGXHHHHHMW4TARGET_TYPES@@W4TARGET_SYMBOL_TYPES@@@Z ; set_fixed_3d_object_database_item

; 1066 : 	set_fixed_3d_object_database_item (OBJECT_3D_HOUSING_FC_STONEAPART002_31M, EXPLOSIVE_QUALITY_DUST, EXPLOSIVE_POWER_HIGH, WARHEAD_EFFECTIVE_STONE_BUILDING, 2000, IMPORTANCE_NONE, TARGET_TYPE_INVALID, TARGET_SYMBOL_UNKNOWN);

  0027e	6a 00		 push	 0
  00280	6a 00		 push	 0
  00282	51		 push	 ecx
  00283	0f 57 c0	 xorps	 xmm0, xmm0
  00286	f3 0f 11 04 24	 movss	 DWORD PTR [esp], xmm0
  0028b	68 d0 07 00 00	 push	 2000			; 000007d0H
  00290	68 00 01 00 00	 push	 256			; 00000100H
  00295	6a 03		 push	 3
  00297	6a 01		 push	 1
  00299	68 1c 02 00 00	 push	 540			; 0000021cH
  0029e	e8 00 00 00 00	 call	 ?set_fixed_3d_object_database_item@@YGXHHHHHMW4TARGET_TYPES@@W4TARGET_SYMBOL_TYPES@@@Z ; set_fixed_3d_object_database_item

; 1067 : 	set_fixed_3d_object_database_item (OBJECT_3D_HOUSING_FC_STONEAPART004_15M, EXPLOSIVE_QUALITY_DUST, EXPLOSIVE_POWER_HIGH, WARHEAD_EFFECTIVE_STONE_BUILDING, 2000, IMPORTANCE_NONE, TARGET_TYPE_INVALID, TARGET_SYMBOL_UNKNOWN);

  002a3	6a 00		 push	 0
  002a5	6a 00		 push	 0
  002a7	51		 push	 ecx
  002a8	0f 57 c0	 xorps	 xmm0, xmm0
  002ab	f3 0f 11 04 24	 movss	 DWORD PTR [esp], xmm0
  002b0	68 d0 07 00 00	 push	 2000			; 000007d0H
  002b5	68 00 01 00 00	 push	 256			; 00000100H
  002ba	6a 03		 push	 3
  002bc	6a 01		 push	 1
  002be	68 1e 02 00 00	 push	 542			; 0000021eH
  002c3	e8 00 00 00 00	 call	 ?set_fixed_3d_object_database_item@@YGXHHHHHMW4TARGET_TYPES@@W4TARGET_SYMBOL_TYPES@@@Z ; set_fixed_3d_object_database_item

; 1068 : 	set_fixed_3d_object_database_item (OBJECT_3D_HOUSING_FC_STONEAPART004_22M, EXPLOSIVE_QUALITY_DUST, EXPLOSIVE_POWER_HIGH, WARHEAD_EFFECTIVE_STONE_BUILDING, 2000, IMPORTANCE_NONE, TARGET_TYPE_INVALID, TARGET_SYMBOL_UNKNOWN);

  002c8	6a 00		 push	 0
  002ca	6a 00		 push	 0
  002cc	51		 push	 ecx
  002cd	0f 57 c0	 xorps	 xmm0, xmm0
  002d0	f3 0f 11 04 24	 movss	 DWORD PTR [esp], xmm0
  002d5	68 d0 07 00 00	 push	 2000			; 000007d0H
  002da	68 00 01 00 00	 push	 256			; 00000100H
  002df	6a 03		 push	 3
  002e1	6a 01		 push	 1
  002e3	68 20 02 00 00	 push	 544			; 00000220H
  002e8	e8 00 00 00 00	 call	 ?set_fixed_3d_object_database_item@@YGXHHHHHMW4TARGET_TYPES@@W4TARGET_SYMBOL_TYPES@@@Z ; set_fixed_3d_object_database_item

; 1069 : 	set_fixed_3d_object_database_item (OBJECT_3D_HOUSING_FC_STONEAPART004_25M, EXPLOSIVE_QUALITY_DUST, EXPLOSIVE_POWER_HIGH, WARHEAD_EFFECTIVE_STONE_BUILDING, 2000, IMPORTANCE_NONE, TARGET_TYPE_INVALID, TARGET_SYMBOL_UNKNOWN);

  002ed	6a 00		 push	 0
  002ef	6a 00		 push	 0
  002f1	51		 push	 ecx
  002f2	0f 57 c0	 xorps	 xmm0, xmm0
  002f5	f3 0f 11 04 24	 movss	 DWORD PTR [esp], xmm0
  002fa	68 d0 07 00 00	 push	 2000			; 000007d0H
  002ff	68 00 01 00 00	 push	 256			; 00000100H
  00304	6a 03		 push	 3
  00306	6a 01		 push	 1
  00308	68 22 02 00 00	 push	 546			; 00000222H
  0030d	e8 00 00 00 00	 call	 ?set_fixed_3d_object_database_item@@YGXHHHHHMW4TARGET_TYPES@@W4TARGET_SYMBOL_TYPES@@@Z ; set_fixed_3d_object_database_item

; 1070 : 	set_fixed_3d_object_database_item (OBJECT_3D_HOUSING_FC_TOWER001_43M, EXPLOSIVE_QUALITY_DUST, EXPLOSIVE_POWER_HIGH, WARHEAD_EFFECTIVE_STONE_BUILDING, 2000, IMPORTANCE_NONE, TARGET_TYPE_INVALID, TARGET_SYMBOL_UNKNOWN);

  00312	6a 00		 push	 0
  00314	6a 00		 push	 0
  00316	51		 push	 ecx
  00317	0f 57 c0	 xorps	 xmm0, xmm0
  0031a	f3 0f 11 04 24	 movss	 DWORD PTR [esp], xmm0
  0031f	68 d0 07 00 00	 push	 2000			; 000007d0H
  00324	68 00 01 00 00	 push	 256			; 00000100H
  00329	6a 03		 push	 3
  0032b	6a 01		 push	 1
  0032d	68 24 02 00 00	 push	 548			; 00000224H
  00332	e8 00 00 00 00	 call	 ?set_fixed_3d_object_database_item@@YGXHHHHHMW4TARGET_TYPES@@W4TARGET_SYMBOL_TYPES@@@Z ; set_fixed_3d_object_database_item

; 1071 : 	set_fixed_3d_object_database_item (OBJECT_3D_HOUSING_FC_TOWER001_60M, EXPLOSIVE_QUALITY_DUST, EXPLOSIVE_POWER_HIGH, WARHEAD_EFFECTIVE_STONE_BUILDING, 2000, IMPORTANCE_NONE, TARGET_TYPE_INVALID, TARGET_SYMBOL_UNKNOWN);

  00337	6a 00		 push	 0
  00339	6a 00		 push	 0
  0033b	51		 push	 ecx
  0033c	0f 57 c0	 xorps	 xmm0, xmm0
  0033f	f3 0f 11 04 24	 movss	 DWORD PTR [esp], xmm0
  00344	68 d0 07 00 00	 push	 2000			; 000007d0H
  00349	68 00 01 00 00	 push	 256			; 00000100H
  0034e	6a 03		 push	 3
  00350	6a 01		 push	 1
  00352	68 26 02 00 00	 push	 550			; 00000226H
  00357	e8 00 00 00 00	 call	 ?set_fixed_3d_object_database_item@@YGXHHHHHMW4TARGET_TYPES@@W4TARGET_SYMBOL_TYPES@@@Z ; set_fixed_3d_object_database_item

; 1072 : 	set_fixed_3d_object_database_item (OBJECT_3D_HOUSING_FC_TOWER001_79M, EXPLOSIVE_QUALITY_DUST, EXPLOSIVE_POWER_HIGH, WARHEAD_EFFECTIVE_STONE_BUILDING, 2000, IMPORTANCE_NONE, TARGET_TYPE_INVALID, TARGET_SYMBOL_UNKNOWN);

  0035c	6a 00		 push	 0
  0035e	6a 00		 push	 0
  00360	51		 push	 ecx
  00361	0f 57 c0	 xorps	 xmm0, xmm0
  00364	f3 0f 11 04 24	 movss	 DWORD PTR [esp], xmm0
  00369	68 d0 07 00 00	 push	 2000			; 000007d0H
  0036e	68 00 01 00 00	 push	 256			; 00000100H
  00373	6a 03		 push	 3
  00375	6a 01		 push	 1
  00377	68 28 02 00 00	 push	 552			; 00000228H
  0037c	e8 00 00 00 00	 call	 ?set_fixed_3d_object_database_item@@YGXHHHHHMW4TARGET_TYPES@@W4TARGET_SYMBOL_TYPES@@@Z ; set_fixed_3d_object_database_item

; 1073 : 
; 1074 : 	set_fixed_3d_object_database_item (OBJECT_3D_HOUSING_IN_BLUEAPART001_20M, EXPLOSIVE_QUALITY_DUST, EXPLOSIVE_POWER_HIGH, WARHEAD_EFFECTIVE_STONE_BUILDING, 2000, IMPORTANCE_NONE, TARGET_TYPE_INVALID, TARGET_SYMBOL_UNKNOWN);

  00381	6a 00		 push	 0
  00383	6a 00		 push	 0
  00385	51		 push	 ecx
  00386	0f 57 c0	 xorps	 xmm0, xmm0
  00389	f3 0f 11 04 24	 movss	 DWORD PTR [esp], xmm0
  0038e	68 d0 07 00 00	 push	 2000			; 000007d0H
  00393	68 00 01 00 00	 push	 256			; 00000100H
  00398	6a 03		 push	 3
  0039a	6a 01		 push	 1
  0039c	68 3c 02 00 00	 push	 572			; 0000023cH
  003a1	e8 00 00 00 00	 call	 ?set_fixed_3d_object_database_item@@YGXHHHHHMW4TARGET_TYPES@@W4TARGET_SYMBOL_TYPES@@@Z ; set_fixed_3d_object_database_item

; 1075 : 	set_fixed_3d_object_database_item (OBJECT_3D_HOUSING_IN_GREENAPART001_17M, EXPLOSIVE_QUALITY_DUST, EXPLOSIVE_POWER_HIGH, WARHEAD_EFFECTIVE_STONE_BUILDING, 2000, IMPORTANCE_NONE, TARGET_TYPE_INVALID, TARGET_SYMBOL_UNKNOWN);

  003a6	6a 00		 push	 0
  003a8	6a 00		 push	 0
  003aa	51		 push	 ecx
  003ab	0f 57 c0	 xorps	 xmm0, xmm0
  003ae	f3 0f 11 04 24	 movss	 DWORD PTR [esp], xmm0
  003b3	68 d0 07 00 00	 push	 2000			; 000007d0H
  003b8	68 00 01 00 00	 push	 256			; 00000100H
  003bd	6a 03		 push	 3
  003bf	6a 01		 push	 1
  003c1	68 3e 02 00 00	 push	 574			; 0000023eH
  003c6	e8 00 00 00 00	 call	 ?set_fixed_3d_object_database_item@@YGXHHHHHMW4TARGET_TYPES@@W4TARGET_SYMBOL_TYPES@@@Z ; set_fixed_3d_object_database_item

; 1076 : 	set_fixed_3d_object_database_item (OBJECT_3D_HOUSING_IN_GREENAPART001_30M, EXPLOSIVE_QUALITY_DUST, EXPLOSIVE_POWER_HIGH, WARHEAD_EFFECTIVE_STONE_BUILDING, 2000, IMPORTANCE_NONE, TARGET_TYPE_INVALID, TARGET_SYMBOL_UNKNOWN);

  003cb	6a 00		 push	 0
  003cd	6a 00		 push	 0
  003cf	51		 push	 ecx
  003d0	0f 57 c0	 xorps	 xmm0, xmm0
  003d3	f3 0f 11 04 24	 movss	 DWORD PTR [esp], xmm0
  003d8	68 d0 07 00 00	 push	 2000			; 000007d0H
  003dd	68 00 01 00 00	 push	 256			; 00000100H
  003e2	6a 03		 push	 3
  003e4	6a 01		 push	 1
  003e6	68 40 02 00 00	 push	 576			; 00000240H
  003eb	e8 00 00 00 00	 call	 ?set_fixed_3d_object_database_item@@YGXHHHHHMW4TARGET_TYPES@@W4TARGET_SYMBOL_TYPES@@@Z ; set_fixed_3d_object_database_item

; 1077 : 	set_fixed_3d_object_database_item (OBJECT_3D_HOUSING_IN_STONEAPART009_19M, EXPLOSIVE_QUALITY_DUST, EXPLOSIVE_POWER_HIGH, WARHEAD_EFFECTIVE_STONE_BUILDING, 2000, IMPORTANCE_NONE, TARGET_TYPE_INVALID, TARGET_SYMBOL_UNKNOWN);

  003f0	6a 00		 push	 0
  003f2	6a 00		 push	 0
  003f4	51		 push	 ecx
  003f5	0f 57 c0	 xorps	 xmm0, xmm0
  003f8	f3 0f 11 04 24	 movss	 DWORD PTR [esp], xmm0
  003fd	68 d0 07 00 00	 push	 2000			; 000007d0H
  00402	68 00 01 00 00	 push	 256			; 00000100H
  00407	6a 03		 push	 3
  00409	6a 01		 push	 1
  0040b	68 42 02 00 00	 push	 578			; 00000242H
  00410	e8 00 00 00 00	 call	 ?set_fixed_3d_object_database_item@@YGXHHHHHMW4TARGET_TYPES@@W4TARGET_SYMBOL_TYPES@@@Z ; set_fixed_3d_object_database_item

; 1078 : 	set_fixed_3d_object_database_item (OBJECT_3D_HOUSING_IN_STONEAPART009_25M, EXPLOSIVE_QUALITY_DUST, EXPLOSIVE_POWER_HIGH, WARHEAD_EFFECTIVE_STONE_BUILDING, 2000, IMPORTANCE_NONE, TARGET_TYPE_INVALID, TARGET_SYMBOL_UNKNOWN);

  00415	6a 00		 push	 0
  00417	6a 00		 push	 0
  00419	51		 push	 ecx
  0041a	0f 57 c0	 xorps	 xmm0, xmm0
  0041d	f3 0f 11 04 24	 movss	 DWORD PTR [esp], xmm0
  00422	68 d0 07 00 00	 push	 2000			; 000007d0H
  00427	68 00 01 00 00	 push	 256			; 00000100H
  0042c	6a 03		 push	 3
  0042e	6a 01		 push	 1
  00430	68 44 02 00 00	 push	 580			; 00000244H
  00435	e8 00 00 00 00	 call	 ?set_fixed_3d_object_database_item@@YGXHHHHHMW4TARGET_TYPES@@W4TARGET_SYMBOL_TYPES@@@Z ; set_fixed_3d_object_database_item

; 1079 : 	set_fixed_3d_object_database_item (OBJECT_3D_HOUSING_IN_STONEAPART009_28M, EXPLOSIVE_QUALITY_DUST, EXPLOSIVE_POWER_HIGH, WARHEAD_EFFECTIVE_STONE_BUILDING, 2000, IMPORTANCE_NONE, TARGET_TYPE_INVALID, TARGET_SYMBOL_UNKNOWN);

  0043a	6a 00		 push	 0
  0043c	6a 00		 push	 0
  0043e	51		 push	 ecx
  0043f	0f 57 c0	 xorps	 xmm0, xmm0
  00442	f3 0f 11 04 24	 movss	 DWORD PTR [esp], xmm0
  00447	68 d0 07 00 00	 push	 2000			; 000007d0H
  0044c	68 00 01 00 00	 push	 256			; 00000100H
  00451	6a 03		 push	 3
  00453	6a 01		 push	 1
  00455	68 46 02 00 00	 push	 582			; 00000246H
  0045a	e8 00 00 00 00	 call	 ?set_fixed_3d_object_database_item@@YGXHHHHHMW4TARGET_TYPES@@W4TARGET_SYMBOL_TYPES@@@Z ; set_fixed_3d_object_database_item

; 1080 : 
; 1081 : 	set_fixed_3d_object_database_item (OBJECT_3D_INDUSTRY_FC_CHIMNEY001_40M, EXPLOSIVE_QUALITY_DUST, EXPLOSIVE_POWER_HIGH, WARHEAD_EFFECTIVE_STONE_BUILDING, 2000, IMPORTANCE_NONE, TARGET_TYPE_INVALID, TARGET_SYMBOL_UNKNOWN);

  0045f	6a 00		 push	 0
  00461	6a 00		 push	 0
  00463	51		 push	 ecx
  00464	0f 57 c0	 xorps	 xmm0, xmm0
  00467	f3 0f 11 04 24	 movss	 DWORD PTR [esp], xmm0
  0046c	68 d0 07 00 00	 push	 2000			; 000007d0H
  00471	68 00 01 00 00	 push	 256			; 00000100H
  00476	6a 03		 push	 3
  00478	6a 01		 push	 1
  0047a	68 48 02 00 00	 push	 584			; 00000248H
  0047f	e8 00 00 00 00	 call	 ?set_fixed_3d_object_database_item@@YGXHHHHHMW4TARGET_TYPES@@W4TARGET_SYMBOL_TYPES@@@Z ; set_fixed_3d_object_database_item

; 1082 : 	set_fixed_3d_object_database_item (OBJECT_3D_INDUSTRY_FC_CHIMNEY001_60M, EXPLOSIVE_QUALITY_DUST, EXPLOSIVE_POWER_HIGH, WARHEAD_EFFECTIVE_STONE_BUILDING, 2000, IMPORTANCE_NONE, TARGET_TYPE_INVALID, TARGET_SYMBOL_UNKNOWN);

  00484	6a 00		 push	 0
  00486	6a 00		 push	 0
  00488	51		 push	 ecx
  00489	0f 57 c0	 xorps	 xmm0, xmm0
  0048c	f3 0f 11 04 24	 movss	 DWORD PTR [esp], xmm0
  00491	68 d0 07 00 00	 push	 2000			; 000007d0H
  00496	68 00 01 00 00	 push	 256			; 00000100H
  0049b	6a 03		 push	 3
  0049d	6a 01		 push	 1
  0049f	68 4a 02 00 00	 push	 586			; 0000024aH
  004a4	e8 00 00 00 00	 call	 ?set_fixed_3d_object_database_item@@YGXHHHHHMW4TARGET_TYPES@@W4TARGET_SYMBOL_TYPES@@@Z ; set_fixed_3d_object_database_item

; 1083 : 	set_fixed_3d_object_database_item (OBJECT_3D_INDUSTRY_FC_CHIMNEY002_35M, EXPLOSIVE_QUALITY_DUST, EXPLOSIVE_POWER_HIGH, WARHEAD_EFFECTIVE_STONE_BUILDING, 2000, IMPORTANCE_NONE, TARGET_TYPE_INVALID, TARGET_SYMBOL_UNKNOWN);

  004a9	6a 00		 push	 0
  004ab	6a 00		 push	 0
  004ad	51		 push	 ecx
  004ae	0f 57 c0	 xorps	 xmm0, xmm0
  004b1	f3 0f 11 04 24	 movss	 DWORD PTR [esp], xmm0
  004b6	68 d0 07 00 00	 push	 2000			; 000007d0H
  004bb	68 00 01 00 00	 push	 256			; 00000100H
  004c0	6a 03		 push	 3
  004c2	6a 01		 push	 1
  004c4	68 4c 02 00 00	 push	 588			; 0000024cH
  004c9	e8 00 00 00 00	 call	 ?set_fixed_3d_object_database_item@@YGXHHHHHMW4TARGET_TYPES@@W4TARGET_SYMBOL_TYPES@@@Z ; set_fixed_3d_object_database_item

; 1084 : 	set_fixed_3d_object_database_item (OBJECT_3D_INDUSTRY_FC_CHIMNEY002_55M, EXPLOSIVE_QUALITY_DUST, EXPLOSIVE_POWER_HIGH, WARHEAD_EFFECTIVE_STONE_BUILDING, 2000, IMPORTANCE_NONE, TARGET_TYPE_INVALID, TARGET_SYMBOL_UNKNOWN);

  004ce	6a 00		 push	 0
  004d0	6a 00		 push	 0
  004d2	51		 push	 ecx
  004d3	0f 57 c0	 xorps	 xmm0, xmm0
  004d6	f3 0f 11 04 24	 movss	 DWORD PTR [esp], xmm0
  004db	68 d0 07 00 00	 push	 2000			; 000007d0H
  004e0	68 00 01 00 00	 push	 256			; 00000100H
  004e5	6a 03		 push	 3
  004e7	6a 01		 push	 1
  004e9	68 4e 02 00 00	 push	 590			; 0000024eH
  004ee	e8 00 00 00 00	 call	 ?set_fixed_3d_object_database_item@@YGXHHHHHMW4TARGET_TYPES@@W4TARGET_SYMBOL_TYPES@@@Z ; set_fixed_3d_object_database_item

; 1085 : 
; 1086 : 	set_fixed_3d_object_database_item (OBJECT_3D_OFFICE_FC_BEVELBLUE001_29M_3X5, EXPLOSIVE_QUALITY_DUST, EXPLOSIVE_POWER_HIGH, WARHEAD_EFFECTIVE_STONE_BUILDING, 2000, IMPORTANCE_NONE, TARGET_TYPE_INVALID, TARGET_SYMBOL_UNKNOWN);

  004f3	6a 00		 push	 0
  004f5	6a 00		 push	 0
  004f7	51		 push	 ecx
  004f8	0f 57 c0	 xorps	 xmm0, xmm0
  004fb	f3 0f 11 04 24	 movss	 DWORD PTR [esp], xmm0
  00500	68 d0 07 00 00	 push	 2000			; 000007d0H
  00505	68 00 01 00 00	 push	 256			; 00000100H
  0050a	6a 03		 push	 3
  0050c	6a 01		 push	 1
  0050e	68 ab 02 00 00	 push	 683			; 000002abH
  00513	e8 00 00 00 00	 call	 ?set_fixed_3d_object_database_item@@YGXHHHHHMW4TARGET_TYPES@@W4TARGET_SYMBOL_TYPES@@@Z ; set_fixed_3d_object_database_item

; 1087 : 	set_fixed_3d_object_database_item (OBJECT_3D_OFFICE_FC_BEVELBLUE001_54M_3X5, EXPLOSIVE_QUALITY_DUST, EXPLOSIVE_POWER_HIGH, WARHEAD_EFFECTIVE_STONE_BUILDING, 2000, IMPORTANCE_NONE, TARGET_TYPE_INVALID, TARGET_SYMBOL_UNKNOWN);

  00518	6a 00		 push	 0
  0051a	6a 00		 push	 0
  0051c	51		 push	 ecx
  0051d	0f 57 c0	 xorps	 xmm0, xmm0
  00520	f3 0f 11 04 24	 movss	 DWORD PTR [esp], xmm0
  00525	68 d0 07 00 00	 push	 2000			; 000007d0H
  0052a	68 00 01 00 00	 push	 256			; 00000100H
  0052f	6a 03		 push	 3
  00531	6a 01		 push	 1
  00533	68 ad 02 00 00	 push	 685			; 000002adH
  00538	e8 00 00 00 00	 call	 ?set_fixed_3d_object_database_item@@YGXHHHHHMW4TARGET_TYPES@@W4TARGET_SYMBOL_TYPES@@@Z ; set_fixed_3d_object_database_item

; 1088 : 	set_fixed_3d_object_database_item (OBJECT_3D_OFFICE_FC_BEVELGREY001_28M_3X5, EXPLOSIVE_QUALITY_DUST, EXPLOSIVE_POWER_HIGH, WARHEAD_EFFECTIVE_STONE_BUILDING, 2000, IMPORTANCE_NONE, TARGET_TYPE_INVALID, TARGET_SYMBOL_UNKNOWN);

  0053d	6a 00		 push	 0
  0053f	6a 00		 push	 0
  00541	51		 push	 ecx
  00542	0f 57 c0	 xorps	 xmm0, xmm0
  00545	f3 0f 11 04 24	 movss	 DWORD PTR [esp], xmm0
  0054a	68 d0 07 00 00	 push	 2000			; 000007d0H
  0054f	68 00 01 00 00	 push	 256			; 00000100H
  00554	6a 03		 push	 3
  00556	6a 01		 push	 1
  00558	68 af 02 00 00	 push	 687			; 000002afH
  0055d	e8 00 00 00 00	 call	 ?set_fixed_3d_object_database_item@@YGXHHHHHMW4TARGET_TYPES@@W4TARGET_SYMBOL_TYPES@@@Z ; set_fixed_3d_object_database_item

; 1089 : 	set_fixed_3d_object_database_item (OBJECT_3D_OFFICE_FC_BEVELGREY001_40M_3X5, EXPLOSIVE_QUALITY_DUST, EXPLOSIVE_POWER_HIGH, WARHEAD_EFFECTIVE_STONE_BUILDING, 2000, IMPORTANCE_NONE, TARGET_TYPE_INVALID, TARGET_SYMBOL_UNKNOWN);

  00562	6a 00		 push	 0
  00564	6a 00		 push	 0
  00566	51		 push	 ecx
  00567	0f 57 c0	 xorps	 xmm0, xmm0
  0056a	f3 0f 11 04 24	 movss	 DWORD PTR [esp], xmm0
  0056f	68 d0 07 00 00	 push	 2000			; 000007d0H
  00574	68 00 01 00 00	 push	 256			; 00000100H
  00579	6a 03		 push	 3
  0057b	6a 01		 push	 1
  0057d	68 b1 02 00 00	 push	 689			; 000002b1H
  00582	e8 00 00 00 00	 call	 ?set_fixed_3d_object_database_item@@YGXHHHHHMW4TARGET_TYPES@@W4TARGET_SYMBOL_TYPES@@@Z ; set_fixed_3d_object_database_item

; 1090 : 	set_fixed_3d_object_database_item (OBJECT_3D_OFFICE_FC_GREYPANEL001_24M_3X5, EXPLOSIVE_QUALITY_DUST, EXPLOSIVE_POWER_HIGH, WARHEAD_EFFECTIVE_STONE_BUILDING, 2000, IMPORTANCE_NONE, TARGET_TYPE_INVALID, TARGET_SYMBOL_UNKNOWN);

  00587	6a 00		 push	 0
  00589	6a 00		 push	 0
  0058b	51		 push	 ecx
  0058c	0f 57 c0	 xorps	 xmm0, xmm0
  0058f	f3 0f 11 04 24	 movss	 DWORD PTR [esp], xmm0
  00594	68 d0 07 00 00	 push	 2000			; 000007d0H
  00599	68 00 01 00 00	 push	 256			; 00000100H
  0059e	6a 03		 push	 3
  005a0	6a 01		 push	 1
  005a2	68 b3 02 00 00	 push	 691			; 000002b3H
  005a7	e8 00 00 00 00	 call	 ?set_fixed_3d_object_database_item@@YGXHHHHHMW4TARGET_TYPES@@W4TARGET_SYMBOL_TYPES@@@Z ; set_fixed_3d_object_database_item

; 1091 : 	set_fixed_3d_object_database_item (OBJECT_3D_OFFICE_FC_GREYPANEL001_42M_3X5, EXPLOSIVE_QUALITY_DUST, EXPLOSIVE_POWER_HIGH, WARHEAD_EFFECTIVE_STONE_BUILDING, 2000, IMPORTANCE_NONE, TARGET_TYPE_INVALID, TARGET_SYMBOL_UNKNOWN);

  005ac	6a 00		 push	 0
  005ae	6a 00		 push	 0
  005b0	51		 push	 ecx
  005b1	0f 57 c0	 xorps	 xmm0, xmm0
  005b4	f3 0f 11 04 24	 movss	 DWORD PTR [esp], xmm0
  005b9	68 d0 07 00 00	 push	 2000			; 000007d0H
  005be	68 00 01 00 00	 push	 256			; 00000100H
  005c3	6a 03		 push	 3
  005c5	6a 01		 push	 1
  005c7	68 b5 02 00 00	 push	 693			; 000002b5H
  005cc	e8 00 00 00 00	 call	 ?set_fixed_3d_object_database_item@@YGXHHHHHMW4TARGET_TYPES@@W4TARGET_SYMBOL_TYPES@@@Z ; set_fixed_3d_object_database_item

; 1092 : 	set_fixed_3d_object_database_item (OBJECT_3D_OFFICE_FC_REDRIBBON002_48M_3X5, EXPLOSIVE_QUALITY_DUST, EXPLOSIVE_POWER_HIGH, WARHEAD_EFFECTIVE_STONE_BUILDING, 2000, IMPORTANCE_NONE, TARGET_TYPE_INVALID, TARGET_SYMBOL_UNKNOWN);

  005d1	6a 00		 push	 0
  005d3	6a 00		 push	 0
  005d5	51		 push	 ecx
  005d6	0f 57 c0	 xorps	 xmm0, xmm0
  005d9	f3 0f 11 04 24	 movss	 DWORD PTR [esp], xmm0
  005de	68 d0 07 00 00	 push	 2000			; 000007d0H
  005e3	68 00 01 00 00	 push	 256			; 00000100H
  005e8	6a 03		 push	 3
  005ea	6a 01		 push	 1
  005ec	68 b7 02 00 00	 push	 695			; 000002b7H
  005f1	e8 00 00 00 00	 call	 ?set_fixed_3d_object_database_item@@YGXHHHHHMW4TARGET_TYPES@@W4TARGET_SYMBOL_TYPES@@@Z ; set_fixed_3d_object_database_item

; 1093 : 	set_fixed_3d_object_database_item (OBJECT_3D_OFFICE_FC_STONEPANEL001_36M_3X5, EXPLOSIVE_QUALITY_DUST, EXPLOSIVE_POWER_HIGH, WARHEAD_EFFECTIVE_STONE_BUILDING, 2000, IMPORTANCE_NONE, TARGET_TYPE_INVALID, TARGET_SYMBOL_UNKNOWN);

  005f6	6a 00		 push	 0
  005f8	6a 00		 push	 0
  005fa	51		 push	 ecx
  005fb	0f 57 c0	 xorps	 xmm0, xmm0
  005fe	f3 0f 11 04 24	 movss	 DWORD PTR [esp], xmm0
  00603	68 d0 07 00 00	 push	 2000			; 000007d0H
  00608	68 00 01 00 00	 push	 256			; 00000100H
  0060d	6a 03		 push	 3
  0060f	6a 01		 push	 1
  00611	68 b9 02 00 00	 push	 697			; 000002b9H
  00616	e8 00 00 00 00	 call	 ?set_fixed_3d_object_database_item@@YGXHHHHHMW4TARGET_TYPES@@W4TARGET_SYMBOL_TYPES@@@Z ; set_fixed_3d_object_database_item

; 1094 : 	set_fixed_3d_object_database_item (OBJECT_3D_OFFICE_FC_STONERIBBON002_29M_3X5, EXPLOSIVE_QUALITY_DUST, EXPLOSIVE_POWER_HIGH, WARHEAD_EFFECTIVE_STONE_BUILDING, 2000, IMPORTANCE_NONE, TARGET_TYPE_INVALID, TARGET_SYMBOL_UNKNOWN);

  0061b	6a 00		 push	 0
  0061d	6a 00		 push	 0
  0061f	51		 push	 ecx
  00620	0f 57 c0	 xorps	 xmm0, xmm0
  00623	f3 0f 11 04 24	 movss	 DWORD PTR [esp], xmm0
  00628	68 d0 07 00 00	 push	 2000			; 000007d0H
  0062d	68 00 01 00 00	 push	 256			; 00000100H
  00632	6a 03		 push	 3
  00634	6a 01		 push	 1
  00636	68 bb 02 00 00	 push	 699			; 000002bbH
  0063b	e8 00 00 00 00	 call	 ?set_fixed_3d_object_database_item@@YGXHHHHHMW4TARGET_TYPES@@W4TARGET_SYMBOL_TYPES@@@Z ; set_fixed_3d_object_database_item

; 1095 : 	set_fixed_3d_object_database_item (OBJECT_3D_OFFICE_FC_STONERIBBON002_42M_3X5, EXPLOSIVE_QUALITY_DUST, EXPLOSIVE_POWER_HIGH, WARHEAD_EFFECTIVE_STONE_BUILDING, 2000, IMPORTANCE_NONE, TARGET_TYPE_INVALID, TARGET_SYMBOL_UNKNOWN);

  00640	6a 00		 push	 0
  00642	6a 00		 push	 0
  00644	51		 push	 ecx
  00645	0f 57 c0	 xorps	 xmm0, xmm0
  00648	f3 0f 11 04 24	 movss	 DWORD PTR [esp], xmm0
  0064d	68 d0 07 00 00	 push	 2000			; 000007d0H
  00652	68 00 01 00 00	 push	 256			; 00000100H
  00657	6a 03		 push	 3
  00659	6a 01		 push	 1
  0065b	68 bd 02 00 00	 push	 701			; 000002bdH
  00660	e8 00 00 00 00	 call	 ?set_fixed_3d_object_database_item@@YGXHHHHHMW4TARGET_TYPES@@W4TARGET_SYMBOL_TYPES@@@Z ; set_fixed_3d_object_database_item

; 1096 : 
; 1097 : 	set_fixed_3d_object_database_item (OBJECT_3D_GRG_HOUSING_FR_TBLOK1, EXPLOSIVE_QUALITY_DUST, EXPLOSIVE_POWER_HIGH, WARHEAD_EFFECTIVE_STONE_BUILDING, 2000, 0.0, TARGET_TYPE_INVALID, TARGET_SYMBOL_UNKNOWN);

  00665	6a 00		 push	 0
  00667	6a 00		 push	 0
  00669	51		 push	 ecx
  0066a	0f 57 c0	 xorps	 xmm0, xmm0
  0066d	f3 0f 11 04 24	 movss	 DWORD PTR [esp], xmm0
  00672	68 d0 07 00 00	 push	 2000			; 000007d0H
  00677	68 00 01 00 00	 push	 256			; 00000100H
  0067c	6a 03		 push	 3
  0067e	6a 01		 push	 1
  00680	68 66 03 00 00	 push	 870			; 00000366H
  00685	e8 00 00 00 00	 call	 ?set_fixed_3d_object_database_item@@YGXHHHHHMW4TARGET_TYPES@@W4TARGET_SYMBOL_TYPES@@@Z ; set_fixed_3d_object_database_item

; 1098 : 	set_fixed_3d_object_database_item (OBJECT_3D_GRG_HOUSING_FR_TBLOK2, EXPLOSIVE_QUALITY_DUST, EXPLOSIVE_POWER_HIGH, WARHEAD_EFFECTIVE_STONE_BUILDING, 2000, 0.0, TARGET_TYPE_INVALID, TARGET_SYMBOL_UNKNOWN);

  0068a	6a 00		 push	 0
  0068c	6a 00		 push	 0
  0068e	51		 push	 ecx
  0068f	0f 57 c0	 xorps	 xmm0, xmm0
  00692	f3 0f 11 04 24	 movss	 DWORD PTR [esp], xmm0
  00697	68 d0 07 00 00	 push	 2000			; 000007d0H
  0069c	68 00 01 00 00	 push	 256			; 00000100H
  006a1	6a 03		 push	 3
  006a3	6a 01		 push	 1
  006a5	68 68 03 00 00	 push	 872			; 00000368H
  006aa	e8 00 00 00 00	 call	 ?set_fixed_3d_object_database_item@@YGXHHHHHMW4TARGET_TYPES@@W4TARGET_SYMBOL_TYPES@@@Z ; set_fixed_3d_object_database_item

; 1099 : 	set_fixed_3d_object_database_item (OBJECT_3D_THAI_HOUSING_FR_TOWERBLOCKB, EXPLOSIVE_QUALITY_DUST, EXPLOSIVE_POWER_HIGH, WARHEAD_EFFECTIVE_STONE_BUILDING, 2000, 0.0, TARGET_TYPE_INVALID, TARGET_SYMBOL_UNKNOWN);

  006af	6a 00		 push	 0
  006b1	6a 00		 push	 0
  006b3	51		 push	 ecx
  006b4	0f 57 c0	 xorps	 xmm0, xmm0
  006b7	f3 0f 11 04 24	 movss	 DWORD PTR [esp], xmm0
  006bc	68 d0 07 00 00	 push	 2000			; 000007d0H
  006c1	68 00 01 00 00	 push	 256			; 00000100H
  006c6	6a 03		 push	 3
  006c8	6a 01		 push	 1
  006ca	68 58 04 00 00	 push	 1112			; 00000458H
  006cf	e8 00 00 00 00	 call	 ?set_fixed_3d_object_database_item@@YGXHHHHHMW4TARGET_TYPES@@W4TARGET_SYMBOL_TYPES@@@Z ; set_fixed_3d_object_database_item

; 1100 : 	set_fixed_3d_object_database_item (OBJECT_3D_THAI_HOUSING_FR_TOWERBLOCKC40X30, EXPLOSIVE_QUALITY_DUST, EXPLOSIVE_POWER_HIGH, WARHEAD_EFFECTIVE_STONE_BUILDING, 2000, 0.0, TARGET_TYPE_INVALID, TARGET_SYMBOL_UNKNOWN);

  006d4	6a 00		 push	 0
  006d6	6a 00		 push	 0
  006d8	51		 push	 ecx
  006d9	0f 57 c0	 xorps	 xmm0, xmm0
  006dc	f3 0f 11 04 24	 movss	 DWORD PTR [esp], xmm0
  006e1	68 d0 07 00 00	 push	 2000			; 000007d0H
  006e6	68 00 01 00 00	 push	 256			; 00000100H
  006eb	6a 03		 push	 3
  006ed	6a 01		 push	 1
  006ef	68 5a 04 00 00	 push	 1114			; 0000045aH
  006f4	e8 00 00 00 00	 call	 ?set_fixed_3d_object_database_item@@YGXHHHHHMW4TARGET_TYPES@@W4TARGET_SYMBOL_TYPES@@@Z ; set_fixed_3d_object_database_item

; 1101 : 	set_fixed_3d_object_database_item (OBJECT_3D_THAI_HOUSING_FR_TOWERBLOCK40X30, EXPLOSIVE_QUALITY_DUST, EXPLOSIVE_POWER_HIGH, WARHEAD_EFFECTIVE_STONE_BUILDING, 2000, 0.0, TARGET_TYPE_INVALID, TARGET_SYMBOL_UNKNOWN);

  006f9	6a 00		 push	 0
  006fb	6a 00		 push	 0
  006fd	51		 push	 ecx
  006fe	0f 57 c0	 xorps	 xmm0, xmm0
  00701	f3 0f 11 04 24	 movss	 DWORD PTR [esp], xmm0
  00706	68 d0 07 00 00	 push	 2000			; 000007d0H
  0070b	68 00 01 00 00	 push	 256			; 00000100H
  00710	6a 03		 push	 3
  00712	6a 01		 push	 1
  00714	68 5e 04 00 00	 push	 1118			; 0000045eH
  00719	e8 00 00 00 00	 call	 ?set_fixed_3d_object_database_item@@YGXHHHHHMW4TARGET_TYPES@@W4TARGET_SYMBOL_TYPES@@@Z ; set_fixed_3d_object_database_item

; 1102 : 	set_fixed_3d_object_database_item (OBJECT_3D_THAI_OFFICE_FC_PILLAR_HOTEL, EXPLOSIVE_QUALITY_DUST, EXPLOSIVE_POWER_HIGH, WARHEAD_EFFECTIVE_STONE_BUILDING, 2000, 0.0, TARGET_TYPE_INVALID, TARGET_SYMBOL_UNKNOWN);

  0071e	6a 00		 push	 0
  00720	6a 00		 push	 0
  00722	51		 push	 ecx
  00723	0f 57 c0	 xorps	 xmm0, xmm0
  00726	f3 0f 11 04 24	 movss	 DWORD PTR [esp], xmm0
  0072b	68 d0 07 00 00	 push	 2000			; 000007d0H
  00730	68 00 01 00 00	 push	 256			; 00000100H
  00735	6a 03		 push	 3
  00737	6a 01		 push	 1
  00739	68 6c 04 00 00	 push	 1132			; 0000046cH
  0073e	e8 00 00 00 00	 call	 ?set_fixed_3d_object_database_item@@YGXHHHHHMW4TARGET_TYPES@@W4TARGET_SYMBOL_TYPES@@@Z ; set_fixed_3d_object_database_item

; 1103 : 
; 1104 : 	set_fixed_3d_object_database_item (OBJECT_3D_THAI_OFFICE_FC_RECT_BLOCK, EXPLOSIVE_QUALITY_DUST, EXPLOSIVE_POWER_HIGH, WARHEAD_EFFECTIVE_STONE_BUILDING, 2000, 0.0, TARGET_TYPE_INVALID, TARGET_SYMBOL_UNKNOWN);

  00743	6a 00		 push	 0
  00745	6a 00		 push	 0
  00747	51		 push	 ecx
  00748	0f 57 c0	 xorps	 xmm0, xmm0
  0074b	f3 0f 11 04 24	 movss	 DWORD PTR [esp], xmm0
  00750	68 d0 07 00 00	 push	 2000			; 000007d0H
  00755	68 00 01 00 00	 push	 256			; 00000100H
  0075a	6a 03		 push	 3
  0075c	6a 01		 push	 1
  0075e	68 6e 04 00 00	 push	 1134			; 0000046eH
  00763	e8 00 00 00 00	 call	 ?set_fixed_3d_object_database_item@@YGXHHHHHMW4TARGET_TYPES@@W4TARGET_SYMBOL_TYPES@@@Z ; set_fixed_3d_object_database_item

; 1105 : 	set_fixed_3d_object_database_item (OBJECT_3D_THAI_OFFICE_FC_RECT_BLOCK2, EXPLOSIVE_QUALITY_DUST, EXPLOSIVE_POWER_HIGH, WARHEAD_EFFECTIVE_STONE_BUILDING, 2000, 0.0, TARGET_TYPE_INVALID, TARGET_SYMBOL_UNKNOWN);

  00768	6a 00		 push	 0
  0076a	6a 00		 push	 0
  0076c	51		 push	 ecx
  0076d	0f 57 c0	 xorps	 xmm0, xmm0
  00770	f3 0f 11 04 24	 movss	 DWORD PTR [esp], xmm0
  00775	68 d0 07 00 00	 push	 2000			; 000007d0H
  0077a	68 00 01 00 00	 push	 256			; 00000100H
  0077f	6a 03		 push	 3
  00781	6a 01		 push	 1
  00783	68 6f 04 00 00	 push	 1135			; 0000046fH
  00788	e8 00 00 00 00	 call	 ?set_fixed_3d_object_database_item@@YGXHHHHHMW4TARGET_TYPES@@W4TARGET_SYMBOL_TYPES@@@Z ; set_fixed_3d_object_database_item

; 1106 : 	set_fixed_3d_object_database_item (OBJECT_3D_THAI_OFFICE_FC_RECTHOTEL, EXPLOSIVE_QUALITY_DUST, EXPLOSIVE_POWER_HIGH, WARHEAD_EFFECTIVE_STONE_BUILDING, 2000, 0.0, TARGET_TYPE_INVALID, TARGET_SYMBOL_UNKNOWN);

  0078d	6a 00		 push	 0
  0078f	6a 00		 push	 0
  00791	51		 push	 ecx
  00792	0f 57 c0	 xorps	 xmm0, xmm0
  00795	f3 0f 11 04 24	 movss	 DWORD PTR [esp], xmm0
  0079a	68 d0 07 00 00	 push	 2000			; 000007d0H
  0079f	68 00 01 00 00	 push	 256			; 00000100H
  007a4	6a 03		 push	 3
  007a6	6a 01		 push	 1
  007a8	68 72 04 00 00	 push	 1138			; 00000472H
  007ad	e8 00 00 00 00	 call	 ?set_fixed_3d_object_database_item@@YGXHHHHHMW4TARGET_TYPES@@W4TARGET_SYMBOL_TYPES@@@Z ; set_fixed_3d_object_database_item

; 1107 : 	set_fixed_3d_object_database_item (OBJECT_3D_THAI_OFFICE_FC_TOWER_HOTEL, EXPLOSIVE_QUALITY_DUST, EXPLOSIVE_POWER_HIGH, WARHEAD_EFFECTIVE_STONE_BUILDING, 2000, 0.0, TARGET_TYPE_INVALID, TARGET_SYMBOL_UNKNOWN);

  007b2	6a 00		 push	 0
  007b4	6a 00		 push	 0
  007b6	51		 push	 ecx
  007b7	0f 57 c0	 xorps	 xmm0, xmm0
  007ba	f3 0f 11 04 24	 movss	 DWORD PTR [esp], xmm0
  007bf	68 d0 07 00 00	 push	 2000			; 000007d0H
  007c4	68 00 01 00 00	 push	 256			; 00000100H
  007c9	6a 03		 push	 3
  007cb	6a 01		 push	 1
  007cd	68 76 04 00 00	 push	 1142			; 00000476H
  007d2	e8 00 00 00 00	 call	 ?set_fixed_3d_object_database_item@@YGXHHHHHMW4TARGET_TYPES@@W4TARGET_SYMBOL_TYPES@@@Z ; set_fixed_3d_object_database_item

; 1108 : 	set_fixed_3d_object_database_item (OBJECT_3D_THAI_OFFICE_FC_TOWER_OFFICE, EXPLOSIVE_QUALITY_DUST, EXPLOSIVE_POWER_HIGH, WARHEAD_EFFECTIVE_STONE_BUILDING, 2000, 0.0, TARGET_TYPE_INVALID, TARGET_SYMBOL_UNKNOWN);

  007d7	6a 00		 push	 0
  007d9	6a 00		 push	 0
  007db	51		 push	 ecx
  007dc	0f 57 c0	 xorps	 xmm0, xmm0
  007df	f3 0f 11 04 24	 movss	 DWORD PTR [esp], xmm0
  007e4	68 d0 07 00 00	 push	 2000			; 000007d0H
  007e9	68 00 01 00 00	 push	 256			; 00000100H
  007ee	6a 03		 push	 3
  007f0	6a 01		 push	 1
  007f2	68 78 04 00 00	 push	 1144			; 00000478H
  007f7	e8 00 00 00 00	 call	 ?set_fixed_3d_object_database_item@@YGXHHHHHMW4TARGET_TYPES@@W4TARGET_SYMBOL_TYPES@@@Z ; set_fixed_3d_object_database_item

; 1109 : 	set_fixed_3d_object_database_item (OBJECT_3D_THAI_OFFICE_FC_CONCRETE_OFFICE, EXPLOSIVE_QUALITY_DUST, EXPLOSIVE_POWER_HIGH, WARHEAD_EFFECTIVE_STONE_BUILDING, 2000, 0.0, TARGET_TYPE_INVALID, TARGET_SYMBOL_UNKNOWN);

  007fc	6a 00		 push	 0
  007fe	6a 00		 push	 0
  00800	51		 push	 ecx
  00801	0f 57 c0	 xorps	 xmm0, xmm0
  00804	f3 0f 11 04 24	 movss	 DWORD PTR [esp], xmm0
  00809	68 d0 07 00 00	 push	 2000			; 000007d0H
  0080e	68 00 01 00 00	 push	 256			; 00000100H
  00813	6a 03		 push	 3
  00815	6a 01		 push	 1
  00817	68 7a 04 00 00	 push	 1146			; 0000047aH
  0081c	e8 00 00 00 00	 call	 ?set_fixed_3d_object_database_item@@YGXHHHHHMW4TARGET_TYPES@@W4TARGET_SYMBOL_TYPES@@@Z ; set_fixed_3d_object_database_item

; 1110 : 	set_fixed_3d_object_database_item (OBJECT_3D_THAI_OFFICE_FR_SQUAREBLOCK, EXPLOSIVE_QUALITY_DUST, EXPLOSIVE_POWER_HIGH, WARHEAD_EFFECTIVE_STONE_BUILDING, 2000, 0.0, TARGET_TYPE_INVALID, TARGET_SYMBOL_UNKNOWN);

  00821	6a 00		 push	 0
  00823	6a 00		 push	 0
  00825	51		 push	 ecx
  00826	0f 57 c0	 xorps	 xmm0, xmm0
  00829	f3 0f 11 04 24	 movss	 DWORD PTR [esp], xmm0
  0082e	68 d0 07 00 00	 push	 2000			; 000007d0H
  00833	68 00 01 00 00	 push	 256			; 00000100H
  00838	6a 03		 push	 3
  0083a	6a 01		 push	 1
  0083c	68 7c 04 00 00	 push	 1148			; 0000047cH
  00841	e8 00 00 00 00	 call	 ?set_fixed_3d_object_database_item@@YGXHHHHHMW4TARGET_TYPES@@W4TARGET_SYMBOL_TYPES@@@Z ; set_fixed_3d_object_database_item

; 1111 : 
; 1112 : 	set_fixed_3d_object_database_item (OBJECT_3D_GRG_CULTURAL_FC_KREMLIN, EXPLOSIVE_QUALITY_DUST, EXPLOSIVE_POWER_HIGH, WARHEAD_EFFECTIVE_STONE_BUILDING, 2000, 0.0, TARGET_TYPE_INVALID, TARGET_SYMBOL_UNKNOWN);

  00846	6a 00		 push	 0
  00848	6a 00		 push	 0
  0084a	51		 push	 ecx
  0084b	0f 57 c0	 xorps	 xmm0, xmm0
  0084e	f3 0f 11 04 24	 movss	 DWORD PTR [esp], xmm0
  00853	68 d0 07 00 00	 push	 2000			; 000007d0H
  00858	68 00 01 00 00	 push	 256			; 00000100H
  0085d	6a 03		 push	 3
  0085f	6a 01		 push	 1
  00861	68 3b 03 00 00	 push	 827			; 0000033bH
  00866	e8 00 00 00 00	 call	 ?set_fixed_3d_object_database_item@@YGXHHHHHMW4TARGET_TYPES@@W4TARGET_SYMBOL_TYPES@@@Z ; set_fixed_3d_object_database_item

; 1113 : 	set_fixed_3d_object_database_item (OBJECT_3D_GRG_HOUSING_FC_COMP20X10_3M, EXPLOSIVE_QUALITY_DUST, EXPLOSIVE_POWER_HIGH, WARHEAD_EFFECTIVE_STONE_BUILDING, 2000, 0.0, TARGET_TYPE_INVALID, TARGET_SYMBOL_UNKNOWN);

  0086b	6a 00		 push	 0
  0086d	6a 00		 push	 0
  0086f	51		 push	 ecx
  00870	0f 57 c0	 xorps	 xmm0, xmm0
  00873	f3 0f 11 04 24	 movss	 DWORD PTR [esp], xmm0
  00878	68 d0 07 00 00	 push	 2000			; 000007d0H
  0087d	68 00 01 00 00	 push	 256			; 00000100H
  00882	6a 03		 push	 3
  00884	6a 01		 push	 1
  00886	68 48 03 00 00	 push	 840			; 00000348H
  0088b	e8 00 00 00 00	 call	 ?set_fixed_3d_object_database_item@@YGXHHHHHMW4TARGET_TYPES@@W4TARGET_SYMBOL_TYPES@@@Z ; set_fixed_3d_object_database_item

; 1114 : 	set_fixed_3d_object_database_item (OBJECT_3D_GRG_HOUSING_FC_COMP40X10_4, EXPLOSIVE_QUALITY_DUST, EXPLOSIVE_POWER_HIGH, WARHEAD_EFFECTIVE_STONE_BUILDING, 2000, 0.0, TARGET_TYPE_INVALID, TARGET_SYMBOL_UNKNOWN);

  00890	6a 00		 push	 0
  00892	6a 00		 push	 0
  00894	51		 push	 ecx
  00895	0f 57 c0	 xorps	 xmm0, xmm0
  00898	f3 0f 11 04 24	 movss	 DWORD PTR [esp], xmm0
  0089d	68 d0 07 00 00	 push	 2000			; 000007d0H
  008a2	68 00 01 00 00	 push	 256			; 00000100H
  008a7	6a 03		 push	 3
  008a9	6a 01		 push	 1
  008ab	68 4c 03 00 00	 push	 844			; 0000034cH
  008b0	e8 00 00 00 00	 call	 ?set_fixed_3d_object_database_item@@YGXHHHHHMW4TARGET_TYPES@@W4TARGET_SYMBOL_TYPES@@@Z ; set_fixed_3d_object_database_item

; 1115 : 	set_fixed_3d_object_database_item (OBJECT_3D_GRG_HOUSING_EX_COMP10X102_5, EXPLOSIVE_QUALITY_DUST, EXPLOSIVE_POWER_HIGH, WARHEAD_EFFECTIVE_STONE_BUILDING, 2000, 0.0, TARGET_TYPE_INVALID, TARGET_SYMBOL_UNKNOWN);

  008b5	6a 00		 push	 0
  008b7	6a 00		 push	 0
  008b9	51		 push	 ecx
  008ba	0f 57 c0	 xorps	 xmm0, xmm0
  008bd	f3 0f 11 04 24	 movss	 DWORD PTR [esp], xmm0
  008c2	68 d0 07 00 00	 push	 2000			; 000007d0H
  008c7	68 00 01 00 00	 push	 256			; 00000100H
  008cc	6a 03		 push	 3
  008ce	6a 01		 push	 1
  008d0	68 4e 03 00 00	 push	 846			; 0000034eH
  008d5	e8 00 00 00 00	 call	 ?set_fixed_3d_object_database_item@@YGXHHHHHMW4TARGET_TYPES@@W4TARGET_SYMBOL_TYPES@@@Z ; set_fixed_3d_object_database_item

; 1116 : 	set_fixed_3d_object_database_item (OBJECT_3D_GRG_HOUSING_EX_COMP10X10_5, EXPLOSIVE_QUALITY_DUST, EXPLOSIVE_POWER_HIGH, WARHEAD_EFFECTIVE_STONE_BUILDING, 2000, 0.0, TARGET_TYPE_INVALID, TARGET_SYMBOL_UNKNOWN);

  008da	6a 00		 push	 0
  008dc	6a 00		 push	 0
  008de	51		 push	 ecx
  008df	0f 57 c0	 xorps	 xmm0, xmm0
  008e2	f3 0f 11 04 24	 movss	 DWORD PTR [esp], xmm0
  008e7	68 d0 07 00 00	 push	 2000			; 000007d0H
  008ec	68 00 01 00 00	 push	 256			; 00000100H
  008f1	6a 03		 push	 3
  008f3	6a 01		 push	 1
  008f5	68 52 03 00 00	 push	 850			; 00000352H
  008fa	e8 00 00 00 00	 call	 ?set_fixed_3d_object_database_item@@YGXHHHHHMW4TARGET_TYPES@@W4TARGET_SYMBOL_TYPES@@@Z ; set_fixed_3d_object_database_item

; 1117 : 
; 1118 : 	set_fixed_3d_object_database_item (OBJECT_3D_GRG_HOUSING_FC_TBLOK3, EXPLOSIVE_QUALITY_DUST, EXPLOSIVE_POWER_HIGH, WARHEAD_EFFECTIVE_STONE_BUILDING, 2000, 0.0, TARGET_TYPE_INVALID, TARGET_SYMBOL_UNKNOWN);

  008ff	6a 00		 push	 0
  00901	6a 00		 push	 0
  00903	51		 push	 ecx
  00904	0f 57 c0	 xorps	 xmm0, xmm0
  00907	f3 0f 11 04 24	 movss	 DWORD PTR [esp], xmm0
  0090c	68 d0 07 00 00	 push	 2000			; 000007d0H
  00911	68 00 01 00 00	 push	 256			; 00000100H
  00916	6a 03		 push	 3
  00918	6a 01		 push	 1
  0091a	68 62 03 00 00	 push	 866			; 00000362H
  0091f	e8 00 00 00 00	 call	 ?set_fixed_3d_object_database_item@@YGXHHHHHMW4TARGET_TYPES@@W4TARGET_SYMBOL_TYPES@@@Z ; set_fixed_3d_object_database_item

; 1119 : 	set_fixed_3d_object_database_item (OBJECT_3D_GRG_HOUSING_FC_TBLOCK4, EXPLOSIVE_QUALITY_DUST, EXPLOSIVE_POWER_HIGH, WARHEAD_EFFECTIVE_STONE_BUILDING, 2000, 0.0, TARGET_TYPE_INVALID, TARGET_SYMBOL_UNKNOWN);

  00924	6a 00		 push	 0
  00926	6a 00		 push	 0
  00928	51		 push	 ecx
  00929	0f 57 c0	 xorps	 xmm0, xmm0
  0092c	f3 0f 11 04 24	 movss	 DWORD PTR [esp], xmm0
  00931	68 d0 07 00 00	 push	 2000			; 000007d0H
  00936	68 00 01 00 00	 push	 256			; 00000100H
  0093b	6a 03		 push	 3
  0093d	6a 01		 push	 1
  0093f	68 64 03 00 00	 push	 868			; 00000364H
  00944	e8 00 00 00 00	 call	 ?set_fixed_3d_object_database_item@@YGXHHHHHMW4TARGET_TYPES@@W4TARGET_SYMBOL_TYPES@@@Z ; set_fixed_3d_object_database_item

; 1120 : 	set_fixed_3d_object_database_item (OBJECT_3D_GRG_HOUSING_FR_TOWERBLOCKB, EXPLOSIVE_QUALITY_DUST, EXPLOSIVE_POWER_HIGH, WARHEAD_EFFECTIVE_STONE_BUILDING, 2000, 0.0, TARGET_TYPE_INVALID, TARGET_SYMBOL_UNKNOWN);

  00949	6a 00		 push	 0
  0094b	6a 00		 push	 0
  0094d	51		 push	 ecx
  0094e	0f 57 c0	 xorps	 xmm0, xmm0
  00951	f3 0f 11 04 24	 movss	 DWORD PTR [esp], xmm0
  00956	68 d0 07 00 00	 push	 2000			; 000007d0H
  0095b	68 00 01 00 00	 push	 256			; 00000100H
  00960	6a 03		 push	 3
  00962	6a 01		 push	 1
  00964	68 6a 03 00 00	 push	 874			; 0000036aH
  00969	e8 00 00 00 00	 call	 ?set_fixed_3d_object_database_item@@YGXHHHHHMW4TARGET_TYPES@@W4TARGET_SYMBOL_TYPES@@@Z ; set_fixed_3d_object_database_item

; 1121 : 	set_fixed_3d_object_database_item (OBJECT_3D_GRG_HOUSING_FR_TOWERBLOCKC40X30, EXPLOSIVE_QUALITY_DUST, EXPLOSIVE_POWER_HIGH, WARHEAD_EFFECTIVE_STONE_BUILDING, 2000, 0.0, TARGET_TYPE_INVALID, TARGET_SYMBOL_UNKNOWN);

  0096e	6a 00		 push	 0
  00970	6a 00		 push	 0
  00972	51		 push	 ecx
  00973	0f 57 c0	 xorps	 xmm0, xmm0
  00976	f3 0f 11 04 24	 movss	 DWORD PTR [esp], xmm0
  0097b	68 d0 07 00 00	 push	 2000			; 000007d0H
  00980	68 00 01 00 00	 push	 256			; 00000100H
  00985	6a 03		 push	 3
  00987	6a 01		 push	 1
  00989	68 6c 03 00 00	 push	 876			; 0000036cH
  0098e	e8 00 00 00 00	 call	 ?set_fixed_3d_object_database_item@@YGXHHHHHMW4TARGET_TYPES@@W4TARGET_SYMBOL_TYPES@@@Z ; set_fixed_3d_object_database_item

; 1122 : 	set_fixed_3d_object_database_item (OBJECT_3D_GRG_HOUSING_FR_TOWERBLOCK40X30, EXPLOSIVE_QUALITY_DUST, EXPLOSIVE_POWER_HIGH, WARHEAD_EFFECTIVE_STONE_BUILDING, 2000, 0.0, TARGET_TYPE_INVALID, TARGET_SYMBOL_UNKNOWN);

  00993	6a 00		 push	 0
  00995	6a 00		 push	 0
  00997	51		 push	 ecx
  00998	0f 57 c0	 xorps	 xmm0, xmm0
  0099b	f3 0f 11 04 24	 movss	 DWORD PTR [esp], xmm0
  009a0	68 d0 07 00 00	 push	 2000			; 000007d0H
  009a5	68 00 01 00 00	 push	 256			; 00000100H
  009aa	6a 03		 push	 3
  009ac	6a 01		 push	 1
  009ae	68 6e 03 00 00	 push	 878			; 0000036eH
  009b3	e8 00 00 00 00	 call	 ?set_fixed_3d_object_database_item@@YGXHHHHHMW4TARGET_TYPES@@W4TARGET_SYMBOL_TYPES@@@Z ; set_fixed_3d_object_database_item

; 1123 : 
; 1124 : 	set_fixed_3d_object_database_item (OBJECT_3D_GRG_CULTURAL_FR_TOWER, EXPLOSIVE_QUALITY_DUST, EXPLOSIVE_POWER_HIGH, WARHEAD_EFFECTIVE_STONE_BUILDING, 2000, 0.0, TARGET_TYPE_INVALID, TARGET_SYMBOL_UNKNOWN);

  009b8	6a 00		 push	 0
  009ba	6a 00		 push	 0
  009bc	51		 push	 ecx
  009bd	0f 57 c0	 xorps	 xmm0, xmm0
  009c0	f3 0f 11 04 24	 movss	 DWORD PTR [esp], xmm0
  009c5	68 d0 07 00 00	 push	 2000			; 000007d0H
  009ca	68 00 01 00 00	 push	 256			; 00000100H
  009cf	6a 03		 push	 3
  009d1	6a 01		 push	 1
  009d3	68 39 03 00 00	 push	 825			; 00000339H
  009d8	e8 00 00 00 00	 call	 ?set_fixed_3d_object_database_item@@YGXHHHHHMW4TARGET_TYPES@@W4TARGET_SYMBOL_TYPES@@@Z ; set_fixed_3d_object_database_item

; 1125 : 	set_fixed_3d_object_database_item (OBJECT_3D_GRG_CULTURAL_FC_KREMOFFICE, EXPLOSIVE_QUALITY_DUST, EXPLOSIVE_POWER_HIGH, WARHEAD_EFFECTIVE_STONE_BUILDING, 2000, 0.0, TARGET_TYPE_INVALID, TARGET_SYMBOL_UNKNOWN);

  009dd	6a 00		 push	 0
  009df	6a 00		 push	 0
  009e1	51		 push	 ecx
  009e2	0f 57 c0	 xorps	 xmm0, xmm0
  009e5	f3 0f 11 04 24	 movss	 DWORD PTR [esp], xmm0
  009ea	68 d0 07 00 00	 push	 2000			; 000007d0H
  009ef	68 00 01 00 00	 push	 256			; 00000100H
  009f4	6a 03		 push	 3
  009f6	6a 01		 push	 1
  009f8	68 3d 03 00 00	 push	 829			; 0000033dH
  009fd	e8 00 00 00 00	 call	 ?set_fixed_3d_object_database_item@@YGXHHHHHMW4TARGET_TYPES@@W4TARGET_SYMBOL_TYPES@@@Z ; set_fixed_3d_object_database_item

; 1126 : 	set_fixed_3d_object_database_item (OBJECT_3D_GRG_CULTURAL_FC_KREMTOWER, EXPLOSIVE_QUALITY_DUST, EXPLOSIVE_POWER_HIGH, WARHEAD_EFFECTIVE_STONE_BUILDING, 2000, 0.0, TARGET_TYPE_INVALID, TARGET_SYMBOL_UNKNOWN);

  00a02	6a 00		 push	 0
  00a04	6a 00		 push	 0
  00a06	51		 push	 ecx
  00a07	0f 57 c0	 xorps	 xmm0, xmm0
  00a0a	f3 0f 11 04 24	 movss	 DWORD PTR [esp], xmm0
  00a0f	68 d0 07 00 00	 push	 2000			; 000007d0H
  00a14	68 00 01 00 00	 push	 256			; 00000100H
  00a19	6a 03		 push	 3
  00a1b	6a 01		 push	 1
  00a1d	68 3f 03 00 00	 push	 831			; 0000033fH
  00a22	e8 00 00 00 00	 call	 ?set_fixed_3d_object_database_item@@YGXHHHHHMW4TARGET_TYPES@@W4TARGET_SYMBOL_TYPES@@@Z ; set_fixed_3d_object_database_item

; 1127 : }

  00a27	5f		 pop	 edi
  00a28	5e		 pop	 esi
  00a29	5b		 pop	 ebx
  00a2a	8b e5		 mov	 esp, ebp
  00a2c	5d		 pop	 ebp
  00a2d	c3		 ret	 0
?initialise_zero_importance_large_stone_buildings@@YGXXZ ENDP ; initialise_zero_importance_large_stone_buildings
_TEXT	ENDS
; Function compile flags: /Odtp /ZI
; File c:\users\nhv90\projects\eech\aphavoc\source\entity\fixed\fx_objdb.c
;	COMDAT ?initialise_zero_importance_small_armoured_buildings@@YGXXZ
_TEXT	SEGMENT
?initialise_zero_importance_small_armoured_buildings@@YGXXZ PROC ; initialise_zero_importance_small_armoured_buildings, COMDAT

; 995  : {

  00000	55		 push	 ebp
  00001	8b ec		 mov	 ebp, esp
  00003	83 ec 40	 sub	 esp, 64			; 00000040H
  00006	53		 push	 ebx
  00007	56		 push	 esi
  00008	57		 push	 edi

; 996  : 	////////////////////////////////////////////////////////////////////////////////////
; 997  : 	//
; 998  : 	// ZERO IMPORTANCE SMALL ARMOURED BUILDINGS
; 999  : 	//
; 1000 : 	////////////////////////////////////////////////////////////////////////////////////
; 1001 : 
; 1002 : 	// VALID TARGETS
; 1003 : 
; 1004 : 	// INVALID TARGETS
; 1005 : 
; 1006 : 	set_fixed_3d_object_database_item (OBJECT_3D_TAIWAN_KEY_MILITARY_FC_TOWER001_1X1, EXPLOSIVE_QUALITY_NONE, EXPLOSIVE_POWER_NONE, WARHEAD_EFFECTIVE_HARDENED_BUILDING, 250, IMPORTANCE_NONE, TARGET_TYPE_INVALID, TARGET_SYMBOL_UNKNOWN);

  00009	6a 00		 push	 0
  0000b	6a 00		 push	 0
  0000d	51		 push	 ecx
  0000e	0f 57 c0	 xorps	 xmm0, xmm0
  00011	f3 0f 11 04 24	 movss	 DWORD PTR [esp], xmm0
  00016	68 fa 00 00 00	 push	 250			; 000000faH
  0001b	68 00 20 00 00	 push	 8192			; 00002000H
  00020	6a 00		 push	 0
  00022	6a 00		 push	 0
  00024	68 fb 07 00 00	 push	 2043			; 000007fbH
  00029	e8 00 00 00 00	 call	 ?set_fixed_3d_object_database_item@@YGXHHHHHMW4TARGET_TYPES@@W4TARGET_SYMBOL_TYPES@@@Z ; set_fixed_3d_object_database_item

; 1007 : 
; 1008 : 	set_fixed_3d_object_database_item (OBJECT_3D_KEY_MILITARY_FC_TOWER001_1X1, EXPLOSIVE_QUALITY_NONE, EXPLOSIVE_POWER_NONE, WARHEAD_EFFECTIVE_HARDENED_BUILDING, 250, IMPORTANCE_NONE, TARGET_TYPE_INVALID, TARGET_SYMBOL_UNKNOWN);

  0002e	6a 00		 push	 0
  00030	6a 00		 push	 0
  00032	51		 push	 ecx
  00033	0f 57 c0	 xorps	 xmm0, xmm0
  00036	f3 0f 11 04 24	 movss	 DWORD PTR [esp], xmm0
  0003b	68 fa 00 00 00	 push	 250			; 000000faH
  00040	68 00 20 00 00	 push	 8192			; 00002000H
  00045	6a 00		 push	 0
  00047	6a 00		 push	 0
  00049	68 24 06 00 00	 push	 1572			; 00000624H
  0004e	e8 00 00 00 00	 call	 ?set_fixed_3d_object_database_item@@YGXHHHHHMW4TARGET_TYPES@@W4TARGET_SYMBOL_TYPES@@@Z ; set_fixed_3d_object_database_item

; 1009 : 
; 1010 : 	set_fixed_3d_object_database_item (OBJECT_3D_BLAST_SHIELD01, EXPLOSIVE_QUALITY_NONE, EXPLOSIVE_POWER_NONE, WARHEAD_EFFECTIVE_HARDENED_BUILDING, 1000, IMPORTANCE_NONE, TARGET_TYPE_INVALID, TARGET_SYMBOL_UNKNOWN);

  00053	6a 00		 push	 0
  00055	6a 00		 push	 0
  00057	51		 push	 ecx
  00058	0f 57 c0	 xorps	 xmm0, xmm0
  0005b	f3 0f 11 04 24	 movss	 DWORD PTR [esp], xmm0
  00060	68 e8 03 00 00	 push	 1000			; 000003e8H
  00065	68 00 20 00 00	 push	 8192			; 00002000H
  0006a	6a 00		 push	 0
  0006c	6a 00		 push	 0
  0006e	68 9d 00 00 00	 push	 157			; 0000009dH
  00073	e8 00 00 00 00	 call	 ?set_fixed_3d_object_database_item@@YGXHHHHHMW4TARGET_TYPES@@W4TARGET_SYMBOL_TYPES@@@Z ; set_fixed_3d_object_database_item

; 1011 : 	set_fixed_3d_object_database_item (OBJECT_3D_BLAST_SHIELD02, EXPLOSIVE_QUALITY_NONE, EXPLOSIVE_POWER_NONE, WARHEAD_EFFECTIVE_HARDENED_BUILDING, 1000, IMPORTANCE_NONE, TARGET_TYPE_INVALID, TARGET_SYMBOL_UNKNOWN);

  00078	6a 00		 push	 0
  0007a	6a 00		 push	 0
  0007c	51		 push	 ecx
  0007d	0f 57 c0	 xorps	 xmm0, xmm0
  00080	f3 0f 11 04 24	 movss	 DWORD PTR [esp], xmm0
  00085	68 e8 03 00 00	 push	 1000			; 000003e8H
  0008a	68 00 20 00 00	 push	 8192			; 00002000H
  0008f	6a 00		 push	 0
  00091	6a 00		 push	 0
  00093	68 9f 00 00 00	 push	 159			; 0000009fH
  00098	e8 00 00 00 00	 call	 ?set_fixed_3d_object_database_item@@YGXHHHHHMW4TARGET_TYPES@@W4TARGET_SYMBOL_TYPES@@@Z ; set_fixed_3d_object_database_item

; 1012 : 	set_fixed_3d_object_database_item (OBJECT_3D_BLAST_SHIELD03, EXPLOSIVE_QUALITY_NONE, EXPLOSIVE_POWER_NONE, WARHEAD_EFFECTIVE_HARDENED_BUILDING, 1000, IMPORTANCE_NONE, TARGET_TYPE_INVALID, TARGET_SYMBOL_UNKNOWN);

  0009d	6a 00		 push	 0
  0009f	6a 00		 push	 0
  000a1	51		 push	 ecx
  000a2	0f 57 c0	 xorps	 xmm0, xmm0
  000a5	f3 0f 11 04 24	 movss	 DWORD PTR [esp], xmm0
  000aa	68 e8 03 00 00	 push	 1000			; 000003e8H
  000af	68 00 20 00 00	 push	 8192			; 00002000H
  000b4	6a 00		 push	 0
  000b6	6a 00		 push	 0
  000b8	68 a1 00 00 00	 push	 161			; 000000a1H
  000bd	e8 00 00 00 00	 call	 ?set_fixed_3d_object_database_item@@YGXHHHHHMW4TARGET_TYPES@@W4TARGET_SYMBOL_TYPES@@@Z ; set_fixed_3d_object_database_item

; 1013 : 
; 1014 : 	set_fixed_3d_object_database_item (OBJECT_3D_Y_KEY_MILITARY_EX_FENCE11M, EXPLOSIVE_QUALITY_NONE, EXPLOSIVE_POWER_NONE, WARHEAD_EFFECTIVE_HARDENED_BUILDING, 1000, IMPORTANCE_NONE, TARGET_TYPE_INVALID, TARGET_SYMBOL_UNKNOWN);

  000c2	6a 00		 push	 0
  000c4	6a 00		 push	 0
  000c6	51		 push	 ecx
  000c7	0f 57 c0	 xorps	 xmm0, xmm0
  000ca	f3 0f 11 04 24	 movss	 DWORD PTR [esp], xmm0
  000cf	68 e8 03 00 00	 push	 1000			; 000003e8H
  000d4	68 00 20 00 00	 push	 8192			; 00002000H
  000d9	6a 00		 push	 0
  000db	6a 00		 push	 0
  000dd	68 1e 09 00 00	 push	 2334			; 0000091eH
  000e2	e8 00 00 00 00	 call	 ?set_fixed_3d_object_database_item@@YGXHHHHHMW4TARGET_TYPES@@W4TARGET_SYMBOL_TYPES@@@Z ; set_fixed_3d_object_database_item

; 1015 : 	set_fixed_3d_object_database_item (OBJECT_3D_Y_KEY_MILITARY_FC_FENCE20M, EXPLOSIVE_QUALITY_NONE, EXPLOSIVE_POWER_NONE, WARHEAD_EFFECTIVE_HARDENED_BUILDING, 1000, IMPORTANCE_NONE, TARGET_TYPE_INVALID, TARGET_SYMBOL_UNKNOWN);

  000e7	6a 00		 push	 0
  000e9	6a 00		 push	 0
  000eb	51		 push	 ecx
  000ec	0f 57 c0	 xorps	 xmm0, xmm0
  000ef	f3 0f 11 04 24	 movss	 DWORD PTR [esp], xmm0
  000f4	68 e8 03 00 00	 push	 1000			; 000003e8H
  000f9	68 00 20 00 00	 push	 8192			; 00002000H
  000fe	6a 00		 push	 0
  00100	6a 00		 push	 0
  00102	68 1b 09 00 00	 push	 2331			; 0000091bH
  00107	e8 00 00 00 00	 call	 ?set_fixed_3d_object_database_item@@YGXHHHHHMW4TARGET_TYPES@@W4TARGET_SYMBOL_TYPES@@@Z ; set_fixed_3d_object_database_item

; 1016 : 	set_fixed_3d_object_database_item (OBJECT_3D_Y_KEY_MILITARY_FC_FENCE40M, EXPLOSIVE_QUALITY_NONE, EXPLOSIVE_POWER_NONE, WARHEAD_EFFECTIVE_HARDENED_BUILDING, 1000, IMPORTANCE_NONE, TARGET_TYPE_INVALID, TARGET_SYMBOL_UNKNOWN);

  0010c	6a 00		 push	 0
  0010e	6a 00		 push	 0
  00110	51		 push	 ecx
  00111	0f 57 c0	 xorps	 xmm0, xmm0
  00114	f3 0f 11 04 24	 movss	 DWORD PTR [esp], xmm0
  00119	68 e8 03 00 00	 push	 1000			; 000003e8H
  0011e	68 00 20 00 00	 push	 8192			; 00002000H
  00123	6a 00		 push	 0
  00125	6a 00		 push	 0
  00127	68 1c 09 00 00	 push	 2332			; 0000091cH
  0012c	e8 00 00 00 00	 call	 ?set_fixed_3d_object_database_item@@YGXHHHHHMW4TARGET_TYPES@@W4TARGET_SYMBOL_TYPES@@@Z ; set_fixed_3d_object_database_item

; 1017 : 	set_fixed_3d_object_database_item (OBJECT_3D_Y_KEY_MILITARY_FC_FENCE80M, EXPLOSIVE_QUALITY_NONE, EXPLOSIVE_POWER_NONE, WARHEAD_EFFECTIVE_HARDENED_BUILDING, 1000, IMPORTANCE_NONE, TARGET_TYPE_INVALID, TARGET_SYMBOL_UNKNOWN);

  00131	6a 00		 push	 0
  00133	6a 00		 push	 0
  00135	51		 push	 ecx
  00136	0f 57 c0	 xorps	 xmm0, xmm0
  00139	f3 0f 11 04 24	 movss	 DWORD PTR [esp], xmm0
  0013e	68 e8 03 00 00	 push	 1000			; 000003e8H
  00143	68 00 20 00 00	 push	 8192			; 00002000H
  00148	6a 00		 push	 0
  0014a	6a 00		 push	 0
  0014c	68 1d 09 00 00	 push	 2333			; 0000091dH
  00151	e8 00 00 00 00	 call	 ?set_fixed_3d_object_database_item@@YGXHHHHHMW4TARGET_TYPES@@W4TARGET_SYMBOL_TYPES@@@Z ; set_fixed_3d_object_database_item

; 1018 : 
; 1019 : 	set_fixed_3d_object_database_item (OBJECT_3D_Y_KEY_MILITARY_FC_GPMG_BUNKER, EXPLOSIVE_QUALITY_NONE, EXPLOSIVE_POWER_NONE, WARHEAD_EFFECTIVE_HARDENED_BUILDING, 1000, IMPORTANCE_NONE, TARGET_TYPE_INVALID, TARGET_SYMBOL_UNKNOWN);

  00156	6a 00		 push	 0
  00158	6a 00		 push	 0
  0015a	51		 push	 ecx
  0015b	0f 57 c0	 xorps	 xmm0, xmm0
  0015e	f3 0f 11 04 24	 movss	 DWORD PTR [esp], xmm0
  00163	68 e8 03 00 00	 push	 1000			; 000003e8H
  00168	68 00 20 00 00	 push	 8192			; 00002000H
  0016d	6a 00		 push	 0
  0016f	6a 00		 push	 0
  00171	68 fc 08 00 00	 push	 2300			; 000008fcH
  00176	e8 00 00 00 00	 call	 ?set_fixed_3d_object_database_item@@YGXHHHHHMW4TARGET_TYPES@@W4TARGET_SYMBOL_TYPES@@@Z ; set_fixed_3d_object_database_item

; 1020 : 	set_fixed_3d_object_database_item (OBJECT_3D_Y_KEY_MILITARY_FC_GPMG_SANDBAG_BUNKER, EXPLOSIVE_QUALITY_NONE, EXPLOSIVE_POWER_NONE, WARHEAD_EFFECTIVE_HARDENED_BUILDING, 1000, IMPORTANCE_NONE, TARGET_TYPE_INVALID, TARGET_SYMBOL_UNKNOWN);

  0017b	6a 00		 push	 0
  0017d	6a 00		 push	 0
  0017f	51		 push	 ecx
  00180	0f 57 c0	 xorps	 xmm0, xmm0
  00183	f3 0f 11 04 24	 movss	 DWORD PTR [esp], xmm0
  00188	68 e8 03 00 00	 push	 1000			; 000003e8H
  0018d	68 00 20 00 00	 push	 8192			; 00002000H
  00192	6a 00		 push	 0
  00194	6a 00		 push	 0
  00196	68 fd 08 00 00	 push	 2301			; 000008fdH
  0019b	e8 00 00 00 00	 call	 ?set_fixed_3d_object_database_item@@YGXHHHHHMW4TARGET_TYPES@@W4TARGET_SYMBOL_TYPES@@@Z ; set_fixed_3d_object_database_item

; 1021 : 	set_fixed_3d_object_database_item (OBJECT_3D_Y_KEY_MILITARY_FC_HALF_BUNKER, EXPLOSIVE_QUALITY_NONE, EXPLOSIVE_POWER_NONE, WARHEAD_EFFECTIVE_HARDENED_BUILDING, 1000, IMPORTANCE_NONE, TARGET_TYPE_INVALID, TARGET_SYMBOL_UNKNOWN);

  001a0	6a 00		 push	 0
  001a2	6a 00		 push	 0
  001a4	51		 push	 ecx
  001a5	0f 57 c0	 xorps	 xmm0, xmm0
  001a8	f3 0f 11 04 24	 movss	 DWORD PTR [esp], xmm0
  001ad	68 e8 03 00 00	 push	 1000			; 000003e8H
  001b2	68 00 20 00 00	 push	 8192			; 00002000H
  001b7	6a 00		 push	 0
  001b9	6a 00		 push	 0
  001bb	68 fe 08 00 00	 push	 2302			; 000008feH
  001c0	e8 00 00 00 00	 call	 ?set_fixed_3d_object_database_item@@YGXHHHHHMW4TARGET_TYPES@@W4TARGET_SYMBOL_TYPES@@@Z ; set_fixed_3d_object_database_item

; 1022 : 	set_fixed_3d_object_database_item (OBJECT_3D_Y_KEY_MILITARY_FC_PLAIN_BUNKER, EXPLOSIVE_QUALITY_NONE, EXPLOSIVE_POWER_NONE, WARHEAD_EFFECTIVE_HARDENED_BUILDING, 1000, IMPORTANCE_NONE, TARGET_TYPE_INVALID, TARGET_SYMBOL_UNKNOWN);

  001c5	6a 00		 push	 0
  001c7	6a 00		 push	 0
  001c9	51		 push	 ecx
  001ca	0f 57 c0	 xorps	 xmm0, xmm0
  001cd	f3 0f 11 04 24	 movss	 DWORD PTR [esp], xmm0
  001d2	68 e8 03 00 00	 push	 1000			; 000003e8H
  001d7	68 00 20 00 00	 push	 8192			; 00002000H
  001dc	6a 00		 push	 0
  001de	6a 00		 push	 0
  001e0	68 02 09 00 00	 push	 2306			; 00000902H
  001e5	e8 00 00 00 00	 call	 ?set_fixed_3d_object_database_item@@YGXHHHHHMW4TARGET_TYPES@@W4TARGET_SYMBOL_TYPES@@@Z ; set_fixed_3d_object_database_item

; 1023 : 
; 1024 : 	set_fixed_3d_object_database_item (OBJECT_3D_Y_KEY_MILITARY_FC_CHOPPER_PAD, EXPLOSIVE_QUALITY_NONE, EXPLOSIVE_POWER_NONE, WARHEAD_EFFECTIVE_HARDENED_BUILDING, 4000, IMPORTANCE_NONE, TARGET_TYPE_INVALID, TARGET_SYMBOL_UNKNOWN);

  001ea	6a 00		 push	 0
  001ec	6a 00		 push	 0
  001ee	51		 push	 ecx
  001ef	0f 57 c0	 xorps	 xmm0, xmm0
  001f2	f3 0f 11 04 24	 movss	 DWORD PTR [esp], xmm0
  001f7	68 a0 0f 00 00	 push	 4000			; 00000fa0H
  001fc	68 00 20 00 00	 push	 8192			; 00002000H
  00201	6a 00		 push	 0
  00203	6a 00		 push	 0
  00205	68 1a 09 00 00	 push	 2330			; 0000091aH
  0020a	e8 00 00 00 00	 call	 ?set_fixed_3d_object_database_item@@YGXHHHHHMW4TARGET_TYPES@@W4TARGET_SYMBOL_TYPES@@@Z ; set_fixed_3d_object_database_item

; 1025 : 
; 1026 : 	set_fixed_3d_object_database_item (OBJECT_3D_TAIWAN_KEY_MILITARY_FC_GPMG_BUNKER, EXPLOSIVE_QUALITY_NONE, EXPLOSIVE_POWER_NONE, WARHEAD_EFFECTIVE_HARDENED_BUILDING, 1000, IMPORTANCE_NONE, TARGET_TYPE_INVALID, TARGET_SYMBOL_UNKNOWN);

  0020f	6a 00		 push	 0
  00211	6a 00		 push	 0
  00213	51		 push	 ecx
  00214	0f 57 c0	 xorps	 xmm0, xmm0
  00217	f3 0f 11 04 24	 movss	 DWORD PTR [esp], xmm0
  0021c	68 e8 03 00 00	 push	 1000			; 000003e8H
  00221	68 00 20 00 00	 push	 8192			; 00002000H
  00226	6a 00		 push	 0
  00228	6a 00		 push	 0
  0022a	68 d0 07 00 00	 push	 2000			; 000007d0H
  0022f	e8 00 00 00 00	 call	 ?set_fixed_3d_object_database_item@@YGXHHHHHMW4TARGET_TYPES@@W4TARGET_SYMBOL_TYPES@@@Z ; set_fixed_3d_object_database_item

; 1027 : 	set_fixed_3d_object_database_item (OBJECT_3D_TAIWAN_KEY_MILITARY_FC_GPMG_SANDBAG_BUNKER, EXPLOSIVE_QUALITY_NONE, EXPLOSIVE_POWER_NONE, WARHEAD_EFFECTIVE_HARDENED_BUILDING, 1000, IMPORTANCE_NONE, TARGET_TYPE_INVALID, TARGET_SYMBOL_UNKNOWN);

  00234	6a 00		 push	 0
  00236	6a 00		 push	 0
  00238	51		 push	 ecx
  00239	0f 57 c0	 xorps	 xmm0, xmm0
  0023c	f3 0f 11 04 24	 movss	 DWORD PTR [esp], xmm0
  00241	68 e8 03 00 00	 push	 1000			; 000003e8H
  00246	68 00 20 00 00	 push	 8192			; 00002000H
  0024b	6a 00		 push	 0
  0024d	6a 00		 push	 0
  0024f	68 d1 07 00 00	 push	 2001			; 000007d1H
  00254	e8 00 00 00 00	 call	 ?set_fixed_3d_object_database_item@@YGXHHHHHMW4TARGET_TYPES@@W4TARGET_SYMBOL_TYPES@@@Z ; set_fixed_3d_object_database_item

; 1028 : 	set_fixed_3d_object_database_item (OBJECT_3D_TAIWAN_KEY_MILITARY_FC_HALF_BUNKER, EXPLOSIVE_QUALITY_NONE, EXPLOSIVE_POWER_NONE, WARHEAD_EFFECTIVE_HARDENED_BUILDING, 1000, IMPORTANCE_NONE, TARGET_TYPE_INVALID, TARGET_SYMBOL_UNKNOWN);

  00259	6a 00		 push	 0
  0025b	6a 00		 push	 0
  0025d	51		 push	 ecx
  0025e	0f 57 c0	 xorps	 xmm0, xmm0
  00261	f3 0f 11 04 24	 movss	 DWORD PTR [esp], xmm0
  00266	68 e8 03 00 00	 push	 1000			; 000003e8H
  0026b	68 00 20 00 00	 push	 8192			; 00002000H
  00270	6a 00		 push	 0
  00272	6a 00		 push	 0
  00274	68 d2 07 00 00	 push	 2002			; 000007d2H
  00279	e8 00 00 00 00	 call	 ?set_fixed_3d_object_database_item@@YGXHHHHHMW4TARGET_TYPES@@W4TARGET_SYMBOL_TYPES@@@Z ; set_fixed_3d_object_database_item

; 1029 : 	set_fixed_3d_object_database_item (OBJECT_3D_TAIWAN_KEY_MILITARY_FC_PLAIN_BUNKER, EXPLOSIVE_QUALITY_NONE, EXPLOSIVE_POWER_NONE, WARHEAD_EFFECTIVE_HARDENED_BUILDING, 1000, IMPORTANCE_NONE, TARGET_TYPE_INVALID, TARGET_SYMBOL_UNKNOWN);

  0027e	6a 00		 push	 0
  00280	6a 00		 push	 0
  00282	51		 push	 ecx
  00283	0f 57 c0	 xorps	 xmm0, xmm0
  00286	f3 0f 11 04 24	 movss	 DWORD PTR [esp], xmm0
  0028b	68 e8 03 00 00	 push	 1000			; 000003e8H
  00290	68 00 20 00 00	 push	 8192			; 00002000H
  00295	6a 00		 push	 0
  00297	6a 00		 push	 0
  00299	68 d3 07 00 00	 push	 2003			; 000007d3H
  0029e	e8 00 00 00 00	 call	 ?set_fixed_3d_object_database_item@@YGXHHHHHMW4TARGET_TYPES@@W4TARGET_SYMBOL_TYPES@@@Z ; set_fixed_3d_object_database_item

; 1030 : }

  002a3	5f		 pop	 edi
  002a4	5e		 pop	 esi
  002a5	5b		 pop	 ebx
  002a6	8b e5		 mov	 esp, ebp
  002a8	5d		 pop	 ebp
  002a9	c3		 ret	 0
?initialise_zero_importance_small_armoured_buildings@@YGXXZ ENDP ; initialise_zero_importance_small_armoured_buildings
_TEXT	ENDS
; Function compile flags: /Odtp /ZI
; File c:\users\nhv90\projects\eech\aphavoc\source\entity\fixed\fx_objdb.c
;	COMDAT ?initialise_zero_importance_medium_armoured_buildings@@YGXXZ
_TEXT	SEGMENT
?initialise_zero_importance_medium_armoured_buildings@@YGXXZ PROC ; initialise_zero_importance_medium_armoured_buildings, COMDAT

; 970  : {

  00000	55		 push	 ebp
  00001	8b ec		 mov	 ebp, esp
  00003	83 ec 40	 sub	 esp, 64			; 00000040H
  00006	53		 push	 ebx
  00007	56		 push	 esi
  00008	57		 push	 edi

; 971  : 	////////////////////////////////////////////////////////////////////////////////////
; 972  : 	//
; 973  : 	// ZERO IMPORTANCE MEDIUM ARMOURED BUILDINGS
; 974  : 	//
; 975  : 	////////////////////////////////////////////////////////////////////////////////////
; 976  : 
; 977  : 	// VALID TARGETS
; 978  : 
; 979  : 	// INVALID TARGETS
; 980  : 
; 981  : 	set_fixed_3d_object_database_item (OBJECT_3D_LEBANON_KEY_OIL_FC_PLUME_TOWER01, EXPLOSIVE_QUALITY_DUST, EXPLOSIVE_POWER_MEDIUM, WARHEAD_EFFECTIVE_HARDENED_BUILDING, 1000, IMPORTANCE_NONE, TARGET_TYPE_INVALID, TARGET_SYMBOL_UNKNOWN);

  00009	6a 00		 push	 0
  0000b	6a 00		 push	 0
  0000d	51		 push	 ecx
  0000e	0f 57 c0	 xorps	 xmm0, xmm0
  00011	f3 0f 11 04 24	 movss	 DWORD PTR [esp], xmm0
  00016	68 e8 03 00 00	 push	 1000			; 000003e8H
  0001b	68 00 20 00 00	 push	 8192			; 00002000H
  00020	6a 02		 push	 2
  00022	6a 01		 push	 1
  00024	68 59 06 00 00	 push	 1625			; 00000659H
  00029	e8 00 00 00 00	 call	 ?set_fixed_3d_object_database_item@@YGXHHHHHMW4TARGET_TYPES@@W4TARGET_SYMBOL_TYPES@@@Z ; set_fixed_3d_object_database_item

; 982  : 
; 983  : 	set_fixed_3d_object_database_item (OBJECT_3D_YEMEN_KEY_OIL_FC_PLUME_TOWER01, EXPLOSIVE_QUALITY_DUST, EXPLOSIVE_POWER_MEDIUM, WARHEAD_EFFECTIVE_HARDENED_BUILDING, 1000, IMPORTANCE_NONE, TARGET_TYPE_INVALID, TARGET_SYMBOL_UNKNOWN);

  0002e	6a 00		 push	 0
  00030	6a 00		 push	 0
  00032	51		 push	 ecx
  00033	0f 57 c0	 xorps	 xmm0, xmm0
  00036	f3 0f 11 04 24	 movss	 DWORD PTR [esp], xmm0
  0003b	68 e8 03 00 00	 push	 1000			; 000003e8H
  00040	68 00 20 00 00	 push	 8192			; 00002000H
  00045	6a 02		 push	 2
  00047	6a 01		 push	 1
  00049	68 53 09 00 00	 push	 2387			; 00000953H
  0004e	e8 00 00 00 00	 call	 ?set_fixed_3d_object_database_item@@YGXHHHHHMW4TARGET_TYPES@@W4TARGET_SYMBOL_TYPES@@@Z ; set_fixed_3d_object_database_item

; 984  : 
; 985  : 	set_fixed_3d_object_database_item (OBJECT_3D_TAIWAN_KEY_OIL_FC_PLUME_TOWER01, EXPLOSIVE_QUALITY_DUST, EXPLOSIVE_POWER_MEDIUM, WARHEAD_EFFECTIVE_HARDENED_BUILDING, 1000, IMPORTANCE_NONE, TARGET_TYPE_INVALID, TARGET_SYMBOL_UNKNOWN);

  00053	6a 00		 push	 0
  00055	6a 00		 push	 0
  00057	51		 push	 ecx
  00058	0f 57 c0	 xorps	 xmm0, xmm0
  0005b	f3 0f 11 04 24	 movss	 DWORD PTR [esp], xmm0
  00060	68 e8 03 00 00	 push	 1000			; 000003e8H
  00065	68 00 20 00 00	 push	 8192			; 00002000H
  0006a	6a 02		 push	 2
  0006c	6a 01		 push	 1
  0006e	68 47 08 00 00	 push	 2119			; 00000847H
  00073	e8 00 00 00 00	 call	 ?set_fixed_3d_object_database_item@@YGXHHHHHMW4TARGET_TYPES@@W4TARGET_SYMBOL_TYPES@@@Z ; set_fixed_3d_object_database_item

; 986  : 
; 987  : 	set_fixed_3d_object_database_item (OBJECT_3D_KEY_PORT_FC_CRANE001_40M_1X2, EXPLOSIVE_QUALITY_DUST, EXPLOSIVE_POWER_MEDIUM, WARHEAD_EFFECTIVE_HARDENED_BUILDING, 1000, IMPORTANCE_NONE, TARGET_TYPE_INVALID, TARGET_SYMBOL_UNKNOWN);

  00078	6a 00		 push	 0
  0007a	6a 00		 push	 0
  0007c	51		 push	 ecx
  0007d	0f 57 c0	 xorps	 xmm0, xmm0
  00080	f3 0f 11 04 24	 movss	 DWORD PTR [esp], xmm0
  00085	68 e8 03 00 00	 push	 1000			; 000003e8H
  0008a	68 00 20 00 00	 push	 8192			; 00002000H
  0008f	6a 02		 push	 2
  00091	6a 01		 push	 1
  00093	68 99 06 00 00	 push	 1689			; 00000699H
  00098	e8 00 00 00 00	 call	 ?set_fixed_3d_object_database_item@@YGXHHHHHMW4TARGET_TYPES@@W4TARGET_SYMBOL_TYPES@@@Z ; set_fixed_3d_object_database_item

; 988  : }

  0009d	5f		 pop	 edi
  0009e	5e		 pop	 esi
  0009f	5b		 pop	 ebx
  000a0	8b e5		 mov	 esp, ebp
  000a2	5d		 pop	 ebp
  000a3	c3		 ret	 0
?initialise_zero_importance_medium_armoured_buildings@@YGXXZ ENDP ; initialise_zero_importance_medium_armoured_buildings
_TEXT	ENDS
; Function compile flags: /Odtp /ZI
; File c:\users\nhv90\projects\eech\aphavoc\source\entity\fixed\fx_objdb.c
;	COMDAT ?initialise_low_importance_light_buildings@@YGXXZ
_TEXT	SEGMENT
?initialise_low_importance_light_buildings@@YGXXZ PROC	; initialise_low_importance_light_buildings, COMDAT

; 936  : {

  00000	55		 push	 ebp
  00001	8b ec		 mov	 ebp, esp
  00003	83 ec 40	 sub	 esp, 64			; 00000040H
  00006	53		 push	 ebx
  00007	56		 push	 esi
  00008	57		 push	 edi

; 937  : 	////////////////////////////////////////////////////////////////////////////////////
; 938  : 	//
; 939  : 	// LOW IMPORTANCE LIGHT BUILDINGS
; 940  : 	//
; 941  : 	////////////////////////////////////////////////////////////////////////////////////
; 942  : 
; 943  : 	// VALID TARGETS
; 944  : 
; 945  : 	// INVALID TARGETS
; 946  : 
; 947  : 	set_fixed_3d_object_database_item (OBJECT_3D_AMERICAN_TENT01, EXPLOSIVE_QUALITY_NONE, EXPLOSIVE_POWER_NONE, WARHEAD_EFFECTIVE_LIGHT_BUILDING, 200, IMPORTANCE_NONE, TARGET_TYPE_INVALID, TARGET_SYMBOL_UNKNOWN);

  00009	6a 00		 push	 0
  0000b	6a 00		 push	 0
  0000d	51		 push	 ecx
  0000e	0f 57 c0	 xorps	 xmm0, xmm0
  00011	f3 0f 11 04 24	 movss	 DWORD PTR [esp], xmm0
  00016	68 c8 00 00 00	 push	 200			; 000000c8H
  0001b	68 80 00 00 00	 push	 128			; 00000080H
  00020	6a 00		 push	 0
  00022	6a 00		 push	 0
  00024	68 87 00 00 00	 push	 135			; 00000087H
  00029	e8 00 00 00 00	 call	 ?set_fixed_3d_object_database_item@@YGXHHHHHMW4TARGET_TYPES@@W4TARGET_SYMBOL_TYPES@@@Z ; set_fixed_3d_object_database_item

; 948  : 	set_fixed_3d_object_database_item (OBJECT_3D_AMERICAN_TENT02, EXPLOSIVE_QUALITY_NONE, EXPLOSIVE_POWER_NONE, WARHEAD_EFFECTIVE_LIGHT_BUILDING, 200, IMPORTANCE_NONE, TARGET_TYPE_INVALID, TARGET_SYMBOL_UNKNOWN);

  0002e	6a 00		 push	 0
  00030	6a 00		 push	 0
  00032	51		 push	 ecx
  00033	0f 57 c0	 xorps	 xmm0, xmm0
  00036	f3 0f 11 04 24	 movss	 DWORD PTR [esp], xmm0
  0003b	68 c8 00 00 00	 push	 200			; 000000c8H
  00040	68 80 00 00 00	 push	 128			; 00000080H
  00045	6a 00		 push	 0
  00047	6a 00		 push	 0
  00049	68 89 00 00 00	 push	 137			; 00000089H
  0004e	e8 00 00 00 00	 call	 ?set_fixed_3d_object_database_item@@YGXHHHHHMW4TARGET_TYPES@@W4TARGET_SYMBOL_TYPES@@@Z ; set_fixed_3d_object_database_item

; 949  : 	set_fixed_3d_object_database_item (OBJECT_3D_AMERICAN_TENT03, EXPLOSIVE_QUALITY_NONE, EXPLOSIVE_POWER_NONE, WARHEAD_EFFECTIVE_LIGHT_BUILDING, 200, IMPORTANCE_NONE, TARGET_TYPE_INVALID, TARGET_SYMBOL_UNKNOWN);

  00053	6a 00		 push	 0
  00055	6a 00		 push	 0
  00057	51		 push	 ecx
  00058	0f 57 c0	 xorps	 xmm0, xmm0
  0005b	f3 0f 11 04 24	 movss	 DWORD PTR [esp], xmm0
  00060	68 c8 00 00 00	 push	 200			; 000000c8H
  00065	68 80 00 00 00	 push	 128			; 00000080H
  0006a	6a 00		 push	 0
  0006c	6a 00		 push	 0
  0006e	68 8b 00 00 00	 push	 139			; 0000008bH
  00073	e8 00 00 00 00	 call	 ?set_fixed_3d_object_database_item@@YGXHHHHHMW4TARGET_TYPES@@W4TARGET_SYMBOL_TYPES@@@Z ; set_fixed_3d_object_database_item

; 950  : 	set_fixed_3d_object_database_item (OBJECT_3D_AMERICAN_TENT04, EXPLOSIVE_QUALITY_NONE, EXPLOSIVE_POWER_NONE, WARHEAD_EFFECTIVE_LIGHT_BUILDING, 200, IMPORTANCE_NONE, TARGET_TYPE_INVALID, TARGET_SYMBOL_UNKNOWN);

  00078	6a 00		 push	 0
  0007a	6a 00		 push	 0
  0007c	51		 push	 ecx
  0007d	0f 57 c0	 xorps	 xmm0, xmm0
  00080	f3 0f 11 04 24	 movss	 DWORD PTR [esp], xmm0
  00085	68 c8 00 00 00	 push	 200			; 000000c8H
  0008a	68 80 00 00 00	 push	 128			; 00000080H
  0008f	6a 00		 push	 0
  00091	6a 00		 push	 0
  00093	68 8d 00 00 00	 push	 141			; 0000008dH
  00098	e8 00 00 00 00	 call	 ?set_fixed_3d_object_database_item@@YGXHHHHHMW4TARGET_TYPES@@W4TARGET_SYMBOL_TYPES@@@Z ; set_fixed_3d_object_database_item

; 951  : 	set_fixed_3d_object_database_item (OBJECT_3D_AMERICAN_TENT05, EXPLOSIVE_QUALITY_NONE, EXPLOSIVE_POWER_NONE, WARHEAD_EFFECTIVE_LIGHT_BUILDING, 200, IMPORTANCE_NONE, TARGET_TYPE_INVALID, TARGET_SYMBOL_UNKNOWN);

  0009d	6a 00		 push	 0
  0009f	6a 00		 push	 0
  000a1	51		 push	 ecx
  000a2	0f 57 c0	 xorps	 xmm0, xmm0
  000a5	f3 0f 11 04 24	 movss	 DWORD PTR [esp], xmm0
  000aa	68 c8 00 00 00	 push	 200			; 000000c8H
  000af	68 80 00 00 00	 push	 128			; 00000080H
  000b4	6a 00		 push	 0
  000b6	6a 00		 push	 0
  000b8	68 8f 00 00 00	 push	 143			; 0000008fH
  000bd	e8 00 00 00 00	 call	 ?set_fixed_3d_object_database_item@@YGXHHHHHMW4TARGET_TYPES@@W4TARGET_SYMBOL_TYPES@@@Z ; set_fixed_3d_object_database_item

; 952  : 	set_fixed_3d_object_database_item (OBJECT_3D_AMERICAN_TENT06, EXPLOSIVE_QUALITY_NONE, EXPLOSIVE_POWER_NONE, WARHEAD_EFFECTIVE_LIGHT_BUILDING, 200, IMPORTANCE_NONE, TARGET_TYPE_INVALID, TARGET_SYMBOL_UNKNOWN);

  000c2	6a 00		 push	 0
  000c4	6a 00		 push	 0
  000c6	51		 push	 ecx
  000c7	0f 57 c0	 xorps	 xmm0, xmm0
  000ca	f3 0f 11 04 24	 movss	 DWORD PTR [esp], xmm0
  000cf	68 c8 00 00 00	 push	 200			; 000000c8H
  000d4	68 80 00 00 00	 push	 128			; 00000080H
  000d9	6a 00		 push	 0
  000db	6a 00		 push	 0
  000dd	68 91 00 00 00	 push	 145			; 00000091H
  000e2	e8 00 00 00 00	 call	 ?set_fixed_3d_object_database_item@@YGXHHHHHMW4TARGET_TYPES@@W4TARGET_SYMBOL_TYPES@@@Z ; set_fixed_3d_object_database_item

; 953  : 	set_fixed_3d_object_database_item (OBJECT_3D_AMERICAN_TENT07, EXPLOSIVE_QUALITY_NONE, EXPLOSIVE_POWER_NONE, WARHEAD_EFFECTIVE_LIGHT_BUILDING, 200, IMPORTANCE_NONE, TARGET_TYPE_INVALID, TARGET_SYMBOL_UNKNOWN);

  000e7	6a 00		 push	 0
  000e9	6a 00		 push	 0
  000eb	51		 push	 ecx
  000ec	0f 57 c0	 xorps	 xmm0, xmm0
  000ef	f3 0f 11 04 24	 movss	 DWORD PTR [esp], xmm0
  000f4	68 c8 00 00 00	 push	 200			; 000000c8H
  000f9	68 80 00 00 00	 push	 128			; 00000080H
  000fe	6a 00		 push	 0
  00100	6a 00		 push	 0
  00102	68 93 00 00 00	 push	 147			; 00000093H
  00107	e8 00 00 00 00	 call	 ?set_fixed_3d_object_database_item@@YGXHHHHHMW4TARGET_TYPES@@W4TARGET_SYMBOL_TYPES@@@Z ; set_fixed_3d_object_database_item

; 954  : 	set_fixed_3d_object_database_item (OBJECT_3D_AMERICAN_TENT_APACHE, EXPLOSIVE_QUALITY_NONE, EXPLOSIVE_POWER_NONE, WARHEAD_EFFECTIVE_LIGHT_BUILDING, 200, IMPORTANCE_NONE, TARGET_TYPE_INVALID, TARGET_SYMBOL_UNKNOWN);

  0010c	6a 00		 push	 0
  0010e	6a 00		 push	 0
  00110	51		 push	 ecx
  00111	0f 57 c0	 xorps	 xmm0, xmm0
  00114	f3 0f 11 04 24	 movss	 DWORD PTR [esp], xmm0
  00119	68 c8 00 00 00	 push	 200			; 000000c8H
  0011e	68 80 00 00 00	 push	 128			; 00000080H
  00123	6a 00		 push	 0
  00125	6a 00		 push	 0
  00127	68 95 00 00 00	 push	 149			; 00000095H
  0012c	e8 00 00 00 00	 call	 ?set_fixed_3d_object_database_item@@YGXHHHHHMW4TARGET_TYPES@@W4TARGET_SYMBOL_TYPES@@@Z ; set_fixed_3d_object_database_item

; 955  : 
; 956  : 	set_fixed_3d_object_database_item (OBJECT_3D_RUSSIAN_TENT01, EXPLOSIVE_QUALITY_NONE, EXPLOSIVE_POWER_NONE, WARHEAD_EFFECTIVE_LIGHT_BUILDING, 200, IMPORTANCE_NONE, TARGET_TYPE_INVALID, TARGET_SYMBOL_UNKNOWN);

  00131	6a 00		 push	 0
  00133	6a 00		 push	 0
  00135	51		 push	 ecx
  00136	0f 57 c0	 xorps	 xmm0, xmm0
  00139	f3 0f 11 04 24	 movss	 DWORD PTR [esp], xmm0
  0013e	68 c8 00 00 00	 push	 200			; 000000c8H
  00143	68 80 00 00 00	 push	 128			; 00000080H
  00148	6a 00		 push	 0
  0014a	6a 00		 push	 0
  0014c	68 1e 01 00 00	 push	 286			; 0000011eH
  00151	e8 00 00 00 00	 call	 ?set_fixed_3d_object_database_item@@YGXHHHHHMW4TARGET_TYPES@@W4TARGET_SYMBOL_TYPES@@@Z ; set_fixed_3d_object_database_item

; 957  : 	set_fixed_3d_object_database_item (OBJECT_3D_RUSSIAN_TENT02, EXPLOSIVE_QUALITY_NONE, EXPLOSIVE_POWER_NONE, WARHEAD_EFFECTIVE_LIGHT_BUILDING, 200, IMPORTANCE_NONE, TARGET_TYPE_INVALID, TARGET_SYMBOL_UNKNOWN);

  00156	6a 00		 push	 0
  00158	6a 00		 push	 0
  0015a	51		 push	 ecx
  0015b	0f 57 c0	 xorps	 xmm0, xmm0
  0015e	f3 0f 11 04 24	 movss	 DWORD PTR [esp], xmm0
  00163	68 c8 00 00 00	 push	 200			; 000000c8H
  00168	68 80 00 00 00	 push	 128			; 00000080H
  0016d	6a 00		 push	 0
  0016f	6a 00		 push	 0
  00171	68 20 01 00 00	 push	 288			; 00000120H
  00176	e8 00 00 00 00	 call	 ?set_fixed_3d_object_database_item@@YGXHHHHHMW4TARGET_TYPES@@W4TARGET_SYMBOL_TYPES@@@Z ; set_fixed_3d_object_database_item

; 958  : 	set_fixed_3d_object_database_item (OBJECT_3D_RUSSIAN_TENT03, EXPLOSIVE_QUALITY_NONE, EXPLOSIVE_POWER_NONE, WARHEAD_EFFECTIVE_LIGHT_BUILDING, 200, IMPORTANCE_NONE, TARGET_TYPE_INVALID, TARGET_SYMBOL_UNKNOWN);

  0017b	6a 00		 push	 0
  0017d	6a 00		 push	 0
  0017f	51		 push	 ecx
  00180	0f 57 c0	 xorps	 xmm0, xmm0
  00183	f3 0f 11 04 24	 movss	 DWORD PTR [esp], xmm0
  00188	68 c8 00 00 00	 push	 200			; 000000c8H
  0018d	68 80 00 00 00	 push	 128			; 00000080H
  00192	6a 00		 push	 0
  00194	6a 00		 push	 0
  00196	68 22 01 00 00	 push	 290			; 00000122H
  0019b	e8 00 00 00 00	 call	 ?set_fixed_3d_object_database_item@@YGXHHHHHMW4TARGET_TYPES@@W4TARGET_SYMBOL_TYPES@@@Z ; set_fixed_3d_object_database_item

; 959  : 	set_fixed_3d_object_database_item (OBJECT_3D_RUSSIAN_TENT04, EXPLOSIVE_QUALITY_NONE, EXPLOSIVE_POWER_NONE, WARHEAD_EFFECTIVE_LIGHT_BUILDING, 200, IMPORTANCE_NONE, TARGET_TYPE_INVALID, TARGET_SYMBOL_UNKNOWN);

  001a0	6a 00		 push	 0
  001a2	6a 00		 push	 0
  001a4	51		 push	 ecx
  001a5	0f 57 c0	 xorps	 xmm0, xmm0
  001a8	f3 0f 11 04 24	 movss	 DWORD PTR [esp], xmm0
  001ad	68 c8 00 00 00	 push	 200			; 000000c8H
  001b2	68 80 00 00 00	 push	 128			; 00000080H
  001b7	6a 00		 push	 0
  001b9	6a 00		 push	 0
  001bb	68 24 01 00 00	 push	 292			; 00000124H
  001c0	e8 00 00 00 00	 call	 ?set_fixed_3d_object_database_item@@YGXHHHHHMW4TARGET_TYPES@@W4TARGET_SYMBOL_TYPES@@@Z ; set_fixed_3d_object_database_item

; 960  : 	set_fixed_3d_object_database_item (OBJECT_3D_RUSSIAN_TENT05, EXPLOSIVE_QUALITY_NONE, EXPLOSIVE_POWER_NONE, WARHEAD_EFFECTIVE_LIGHT_BUILDING, 200, IMPORTANCE_NONE, TARGET_TYPE_INVALID, TARGET_SYMBOL_UNKNOWN);

  001c5	6a 00		 push	 0
  001c7	6a 00		 push	 0
  001c9	51		 push	 ecx
  001ca	0f 57 c0	 xorps	 xmm0, xmm0
  001cd	f3 0f 11 04 24	 movss	 DWORD PTR [esp], xmm0
  001d2	68 c8 00 00 00	 push	 200			; 000000c8H
  001d7	68 80 00 00 00	 push	 128			; 00000080H
  001dc	6a 00		 push	 0
  001de	6a 00		 push	 0
  001e0	68 26 01 00 00	 push	 294			; 00000126H
  001e5	e8 00 00 00 00	 call	 ?set_fixed_3d_object_database_item@@YGXHHHHHMW4TARGET_TYPES@@W4TARGET_SYMBOL_TYPES@@@Z ; set_fixed_3d_object_database_item

; 961  : 	set_fixed_3d_object_database_item (OBJECT_3D_RUSSIAN_TENT06, EXPLOSIVE_QUALITY_NONE, EXPLOSIVE_POWER_NONE, WARHEAD_EFFECTIVE_LIGHT_BUILDING, 200, IMPORTANCE_NONE, TARGET_TYPE_INVALID, TARGET_SYMBOL_UNKNOWN);

  001ea	6a 00		 push	 0
  001ec	6a 00		 push	 0
  001ee	51		 push	 ecx
  001ef	0f 57 c0	 xorps	 xmm0, xmm0
  001f2	f3 0f 11 04 24	 movss	 DWORD PTR [esp], xmm0
  001f7	68 c8 00 00 00	 push	 200			; 000000c8H
  001fc	68 80 00 00 00	 push	 128			; 00000080H
  00201	6a 00		 push	 0
  00203	6a 00		 push	 0
  00205	68 28 01 00 00	 push	 296			; 00000128H
  0020a	e8 00 00 00 00	 call	 ?set_fixed_3d_object_database_item@@YGXHHHHHMW4TARGET_TYPES@@W4TARGET_SYMBOL_TYPES@@@Z ; set_fixed_3d_object_database_item

; 962  : 	set_fixed_3d_object_database_item (OBJECT_3D_RUSSIAN_TENT07, EXPLOSIVE_QUALITY_NONE, EXPLOSIVE_POWER_NONE, WARHEAD_EFFECTIVE_LIGHT_BUILDING, 200, IMPORTANCE_NONE, TARGET_TYPE_INVALID, TARGET_SYMBOL_UNKNOWN);

  0020f	6a 00		 push	 0
  00211	6a 00		 push	 0
  00213	51		 push	 ecx
  00214	0f 57 c0	 xorps	 xmm0, xmm0
  00217	f3 0f 11 04 24	 movss	 DWORD PTR [esp], xmm0
  0021c	68 c8 00 00 00	 push	 200			; 000000c8H
  00221	68 80 00 00 00	 push	 128			; 00000080H
  00226	6a 00		 push	 0
  00228	6a 00		 push	 0
  0022a	68 2a 01 00 00	 push	 298			; 0000012aH
  0022f	e8 00 00 00 00	 call	 ?set_fixed_3d_object_database_item@@YGXHHHHHMW4TARGET_TYPES@@W4TARGET_SYMBOL_TYPES@@@Z ; set_fixed_3d_object_database_item

; 963  : }

  00234	5f		 pop	 edi
  00235	5e		 pop	 esi
  00236	5b		 pop	 ebx
  00237	8b e5		 mov	 esp, ebp
  00239	5d		 pop	 ebp
  0023a	c3		 ret	 0
?initialise_low_importance_light_buildings@@YGXXZ ENDP	; initialise_low_importance_light_buildings
_TEXT	ENDS
; Function compile flags: /Odtp /ZI
; File c:\users\nhv90\projects\eech\aphavoc\source\entity\fixed\fx_objdb.c
;	COMDAT ?initialise_low_importance_small_armourd_buildings@@YGXXZ
_TEXT	SEGMENT
?initialise_low_importance_small_armourd_buildings@@YGXXZ PROC ; initialise_low_importance_small_armourd_buildings, COMDAT

; 915  : {

  00000	55		 push	 ebp
  00001	8b ec		 mov	 ebp, esp
  00003	83 ec 40	 sub	 esp, 64			; 00000040H
  00006	53		 push	 ebx
  00007	56		 push	 esi
  00008	57		 push	 edi

; 916  : 	////////////////////////////////////////////////////////////////////////////////////
; 917  : 	//
; 918  : 	// LOW IMPORTANCE SMALL ARMOURED BUILDINGS
; 919  : 	//
; 920  : 	////////////////////////////////////////////////////////////////////////////////////
; 921  : 
; 922  : 	// VALID TARGETS
; 923  : 
; 924  : 	set_fixed_3d_object_database_item (OBJECT_3D_Y_KEY_MILITARY_FC_BURIED_BUNKER, EXPLOSIVE_QUALITY_DUST, EXPLOSIVE_POWER_LOW, WARHEAD_EFFECTIVE_HARDENED_BUILDING, 1800, IMPORTANCE_LOW, TARGET_TYPE_GROUND, TARGET_SYMBOL_STRUCTURE);

  00009	6a 07		 push	 7
  0000b	6a 01		 push	 1
  0000d	51		 push	 ecx
  0000e	f3 0f 10 05 00
	00 00 00	 movss	 xmm0, DWORD PTR __real@3e800000
  00016	f3 0f 11 04 24	 movss	 DWORD PTR [esp], xmm0
  0001b	68 08 07 00 00	 push	 1800			; 00000708H
  00020	68 00 20 00 00	 push	 8192			; 00002000H
  00025	6a 01		 push	 1
  00027	6a 01		 push	 1
  00029	68 f3 08 00 00	 push	 2291			; 000008f3H
  0002e	e8 00 00 00 00	 call	 ?set_fixed_3d_object_database_item@@YGXHHHHHMW4TARGET_TYPES@@W4TARGET_SYMBOL_TYPES@@@Z ; set_fixed_3d_object_database_item

; 925  : 
; 926  : 	set_fixed_3d_object_database_item (OBJECT_3D_TAIWAN_KEY_MILITARY_FC_BURIED_BUNKER, EXPLOSIVE_QUALITY_DUST, EXPLOSIVE_POWER_LOW, WARHEAD_EFFECTIVE_HARDENED_BUILDING, 1800, IMPORTANCE_LOW, TARGET_TYPE_GROUND, TARGET_SYMBOL_STRUCTURE);

  00033	6a 07		 push	 7
  00035	6a 01		 push	 1
  00037	51		 push	 ecx
  00038	f3 0f 10 05 00
	00 00 00	 movss	 xmm0, DWORD PTR __real@3e800000
  00040	f3 0f 11 04 24	 movss	 DWORD PTR [esp], xmm0
  00045	68 08 07 00 00	 push	 1800			; 00000708H
  0004a	68 00 20 00 00	 push	 8192			; 00002000H
  0004f	6a 01		 push	 1
  00051	6a 01		 push	 1
  00053	68 c9 07 00 00	 push	 1993			; 000007c9H
  00058	e8 00 00 00 00	 call	 ?set_fixed_3d_object_database_item@@YGXHHHHHMW4TARGET_TYPES@@W4TARGET_SYMBOL_TYPES@@@Z ; set_fixed_3d_object_database_item

; 927  : 
; 928  : 	// INVALID TARGETS
; 929  : }

  0005d	5f		 pop	 edi
  0005e	5e		 pop	 esi
  0005f	5b		 pop	 ebx
  00060	8b e5		 mov	 esp, ebp
  00062	5d		 pop	 ebp
  00063	c3		 ret	 0
?initialise_low_importance_small_armourd_buildings@@YGXXZ ENDP ; initialise_low_importance_small_armourd_buildings
_TEXT	ENDS
; Function compile flags: /Odtp /ZI
; File c:\users\nhv90\projects\eech\aphavoc\source\entity\fixed\fx_objdb.c
;	COMDAT ?initialise_low_importance_small_explosive_buildings@@YGXXZ
_TEXT	SEGMENT
?initialise_low_importance_small_explosive_buildings@@YGXXZ PROC ; initialise_low_importance_small_explosive_buildings, COMDAT

; 833  : {

  00000	55		 push	 ebp
  00001	8b ec		 mov	 ebp, esp
  00003	83 ec 40	 sub	 esp, 64			; 00000040H
  00006	53		 push	 ebx
  00007	56		 push	 esi
  00008	57		 push	 edi

; 834  : 	////////////////////////////////////////////////////////////////////////////////////
; 835  : 	//
; 836  : 	// LOW IMPORTANCE SMALL EXPLOSIVE BUILDINGS
; 837  : 	//
; 838  : 	////////////////////////////////////////////////////////////////////////////////////
; 839  : 
; 840  : 	// VALID TARGETS
; 841  : 
; 842  : 	set_fixed_3d_object_database_item (OBJECT_3D_AMERICAN_MOBILE_POWER01, EXPLOSIVE_QUALITY_EXPLOSIVE, EXPLOSIVE_POWER_LOW, WARHEAD_EFFECTIVE_LIGHT_BUILDING, 200, IMPORTANCE_LOW, TARGET_TYPE_GROUND, TARGET_SYMBOL_WHEELED_VEHICLE);

  00009	6a 01		 push	 1
  0000b	6a 01		 push	 1
  0000d	51		 push	 ecx
  0000e	f3 0f 10 05 00
	00 00 00	 movss	 xmm0, DWORD PTR __real@3e800000
  00016	f3 0f 11 04 24	 movss	 DWORD PTR [esp], xmm0
  0001b	68 c8 00 00 00	 push	 200			; 000000c8H
  00020	68 80 00 00 00	 push	 128			; 00000080H
  00025	6a 01		 push	 1
  00027	6a 02		 push	 2
  00029	6a 73		 push	 115			; 00000073H
  0002b	e8 00 00 00 00	 call	 ?set_fixed_3d_object_database_item@@YGXHHHHHMW4TARGET_TYPES@@W4TARGET_SYMBOL_TYPES@@@Z ; set_fixed_3d_object_database_item

; 843  : 	set_fixed_3d_object_database_item (OBJECT_3D_AMERICAN_MOBILE_RADAR01, EXPLOSIVE_QUALITY_EXPLOSIVE, EXPLOSIVE_POWER_LOW, WARHEAD_EFFECTIVE_LIGHT_BUILDING, 200, IMPORTANCE_LOW, TARGET_TYPE_GROUND, TARGET_SYMBOL_WHEELED_VEHICLE);

  00030	6a 01		 push	 1
  00032	6a 01		 push	 1
  00034	51		 push	 ecx
  00035	f3 0f 10 05 00
	00 00 00	 movss	 xmm0, DWORD PTR __real@3e800000
  0003d	f3 0f 11 04 24	 movss	 DWORD PTR [esp], xmm0
  00042	68 c8 00 00 00	 push	 200			; 000000c8H
  00047	68 80 00 00 00	 push	 128			; 00000080H
  0004c	6a 01		 push	 1
  0004e	6a 02		 push	 2
  00050	6a 75		 push	 117			; 00000075H
  00052	e8 00 00 00 00	 call	 ?set_fixed_3d_object_database_item@@YGXHHHHHMW4TARGET_TYPES@@W4TARGET_SYMBOL_TYPES@@@Z ; set_fixed_3d_object_database_item

; 844  : 	set_fixed_3d_object_database_item (OBJECT_3D_AMERICAN_MOBILE_RADAR02, EXPLOSIVE_QUALITY_EXPLOSIVE, EXPLOSIVE_POWER_LOW, WARHEAD_EFFECTIVE_LIGHT_BUILDING, 200, IMPORTANCE_LOW, TARGET_TYPE_GROUND, TARGET_SYMBOL_WHEELED_VEHICLE);

  00057	6a 01		 push	 1
  00059	6a 01		 push	 1
  0005b	51		 push	 ecx
  0005c	f3 0f 10 05 00
	00 00 00	 movss	 xmm0, DWORD PTR __real@3e800000
  00064	f3 0f 11 04 24	 movss	 DWORD PTR [esp], xmm0
  00069	68 c8 00 00 00	 push	 200			; 000000c8H
  0006e	68 80 00 00 00	 push	 128			; 00000080H
  00073	6a 01		 push	 1
  00075	6a 02		 push	 2
  00077	6a 77		 push	 119			; 00000077H
  00079	e8 00 00 00 00	 call	 ?set_fixed_3d_object_database_item@@YGXHHHHHMW4TARGET_TYPES@@W4TARGET_SYMBOL_TYPES@@@Z ; set_fixed_3d_object_database_item

; 845  : 	set_fixed_3d_object_database_item (OBJECT_3D_AMERICAN_MOBILE_RADAR03, EXPLOSIVE_QUALITY_EXPLOSIVE, EXPLOSIVE_POWER_LOW, WARHEAD_EFFECTIVE_LIGHT_BUILDING, 200, IMPORTANCE_LOW, TARGET_TYPE_GROUND, TARGET_SYMBOL_WHEELED_VEHICLE);

  0007e	6a 01		 push	 1
  00080	6a 01		 push	 1
  00082	51		 push	 ecx
  00083	f3 0f 10 05 00
	00 00 00	 movss	 xmm0, DWORD PTR __real@3e800000
  0008b	f3 0f 11 04 24	 movss	 DWORD PTR [esp], xmm0
  00090	68 c8 00 00 00	 push	 200			; 000000c8H
  00095	68 80 00 00 00	 push	 128			; 00000080H
  0009a	6a 01		 push	 1
  0009c	6a 02		 push	 2
  0009e	6a 79		 push	 121			; 00000079H
  000a0	e8 00 00 00 00	 call	 ?set_fixed_3d_object_database_item@@YGXHHHHHMW4TARGET_TYPES@@W4TARGET_SYMBOL_TYPES@@@Z ; set_fixed_3d_object_database_item

; 846  : 	set_fixed_3d_object_database_item (OBJECT_3D_AMERICAN_MOBILE_RADAR04, EXPLOSIVE_QUALITY_EXPLOSIVE, EXPLOSIVE_POWER_LOW, WARHEAD_EFFECTIVE_LIGHT_BUILDING, 200, IMPORTANCE_LOW, TARGET_TYPE_GROUND, TARGET_SYMBOL_WHEELED_VEHICLE);

  000a5	6a 01		 push	 1
  000a7	6a 01		 push	 1
  000a9	51		 push	 ecx
  000aa	f3 0f 10 05 00
	00 00 00	 movss	 xmm0, DWORD PTR __real@3e800000
  000b2	f3 0f 11 04 24	 movss	 DWORD PTR [esp], xmm0
  000b7	68 c8 00 00 00	 push	 200			; 000000c8H
  000bc	68 80 00 00 00	 push	 128			; 00000080H
  000c1	6a 01		 push	 1
  000c3	6a 02		 push	 2
  000c5	6a 7b		 push	 123			; 0000007bH
  000c7	e8 00 00 00 00	 call	 ?set_fixed_3d_object_database_item@@YGXHHHHHMW4TARGET_TYPES@@W4TARGET_SYMBOL_TYPES@@@Z ; set_fixed_3d_object_database_item

; 847  : 
; 848  : 	set_fixed_3d_object_database_item (OBJECT_3D_RUSSIAN_MOBILE_POWER01, EXPLOSIVE_QUALITY_EXPLOSIVE, EXPLOSIVE_POWER_LOW, WARHEAD_EFFECTIVE_LIGHT_BUILDING, 200, IMPORTANCE_LOW, TARGET_TYPE_GROUND, TARGET_SYMBOL_WHEELED_VEHICLE);

  000cc	6a 01		 push	 1
  000ce	6a 01		 push	 1
  000d0	51		 push	 ecx
  000d1	f3 0f 10 05 00
	00 00 00	 movss	 xmm0, DWORD PTR __real@3e800000
  000d9	f3 0f 11 04 24	 movss	 DWORD PTR [esp], xmm0
  000de	68 c8 00 00 00	 push	 200			; 000000c8H
  000e3	68 80 00 00 00	 push	 128			; 00000080H
  000e8	6a 01		 push	 1
  000ea	6a 02		 push	 2
  000ec	68 10 01 00 00	 push	 272			; 00000110H
  000f1	e8 00 00 00 00	 call	 ?set_fixed_3d_object_database_item@@YGXHHHHHMW4TARGET_TYPES@@W4TARGET_SYMBOL_TYPES@@@Z ; set_fixed_3d_object_database_item

; 849  : 	set_fixed_3d_object_database_item (OBJECT_3D_RUSSIAN_MOBILE_RADAR01, EXPLOSIVE_QUALITY_EXPLOSIVE, EXPLOSIVE_POWER_LOW, WARHEAD_EFFECTIVE_LIGHT_BUILDING, 200, IMPORTANCE_LOW, TARGET_TYPE_GROUND, TARGET_SYMBOL_WHEELED_VEHICLE);

  000f6	6a 01		 push	 1
  000f8	6a 01		 push	 1
  000fa	51		 push	 ecx
  000fb	f3 0f 10 05 00
	00 00 00	 movss	 xmm0, DWORD PTR __real@3e800000
  00103	f3 0f 11 04 24	 movss	 DWORD PTR [esp], xmm0
  00108	68 c8 00 00 00	 push	 200			; 000000c8H
  0010d	68 80 00 00 00	 push	 128			; 00000080H
  00112	6a 01		 push	 1
  00114	6a 02		 push	 2
  00116	68 12 01 00 00	 push	 274			; 00000112H
  0011b	e8 00 00 00 00	 call	 ?set_fixed_3d_object_database_item@@YGXHHHHHMW4TARGET_TYPES@@W4TARGET_SYMBOL_TYPES@@@Z ; set_fixed_3d_object_database_item

; 850  : 	set_fixed_3d_object_database_item (OBJECT_3D_RUSSIAN_MOBILE_RADAR02, EXPLOSIVE_QUALITY_EXPLOSIVE, EXPLOSIVE_POWER_LOW, WARHEAD_EFFECTIVE_LIGHT_BUILDING, 200, IMPORTANCE_LOW, TARGET_TYPE_GROUND, TARGET_SYMBOL_WHEELED_VEHICLE);

  00120	6a 01		 push	 1
  00122	6a 01		 push	 1
  00124	51		 push	 ecx
  00125	f3 0f 10 05 00
	00 00 00	 movss	 xmm0, DWORD PTR __real@3e800000
  0012d	f3 0f 11 04 24	 movss	 DWORD PTR [esp], xmm0
  00132	68 c8 00 00 00	 push	 200			; 000000c8H
  00137	68 80 00 00 00	 push	 128			; 00000080H
  0013c	6a 01		 push	 1
  0013e	6a 02		 push	 2
  00140	68 14 01 00 00	 push	 276			; 00000114H
  00145	e8 00 00 00 00	 call	 ?set_fixed_3d_object_database_item@@YGXHHHHHMW4TARGET_TYPES@@W4TARGET_SYMBOL_TYPES@@@Z ; set_fixed_3d_object_database_item

; 851  : 
; 852  : 	set_fixed_3d_object_database_item (OBJECT_3D_LEBANON_KEY_OIL_FC_SHED002_10M_7X3, EXPLOSIVE_QUALITY_EXPLOSIVE, EXPLOSIVE_POWER_LOW, WARHEAD_EFFECTIVE_LIGHT_BUILDING, 200, IMPORTANCE_LOW, TARGET_TYPE_GROUND, TARGET_SYMBOL_STRUCTURE);

  0014a	6a 07		 push	 7
  0014c	6a 01		 push	 1
  0014e	51		 push	 ecx
  0014f	f3 0f 10 05 00
	00 00 00	 movss	 xmm0, DWORD PTR __real@3e800000
  00157	f3 0f 11 04 24	 movss	 DWORD PTR [esp], xmm0
  0015c	68 c8 00 00 00	 push	 200			; 000000c8H
  00161	68 80 00 00 00	 push	 128			; 00000080H
  00166	6a 01		 push	 1
  00168	6a 02		 push	 2
  0016a	68 5b 06 00 00	 push	 1627			; 0000065bH
  0016f	e8 00 00 00 00	 call	 ?set_fixed_3d_object_database_item@@YGXHHHHHMW4TARGET_TYPES@@W4TARGET_SYMBOL_TYPES@@@Z ; set_fixed_3d_object_database_item

; 853  : 	set_fixed_3d_object_database_item (OBJECT_3D_LEBANON_KEY_OIL_FC_SHED003_10M_3X1, EXPLOSIVE_QUALITY_EXPLOSIVE, EXPLOSIVE_POWER_LOW, WARHEAD_EFFECTIVE_LIGHT_BUILDING, 200, IMPORTANCE_LOW, TARGET_TYPE_GROUND, TARGET_SYMBOL_STRUCTURE);

  00174	6a 07		 push	 7
  00176	6a 01		 push	 1
  00178	51		 push	 ecx
  00179	f3 0f 10 05 00
	00 00 00	 movss	 xmm0, DWORD PTR __real@3e800000
  00181	f3 0f 11 04 24	 movss	 DWORD PTR [esp], xmm0
  00186	68 c8 00 00 00	 push	 200			; 000000c8H
  0018b	68 80 00 00 00	 push	 128			; 00000080H
  00190	6a 01		 push	 1
  00192	6a 02		 push	 2
  00194	68 5f 06 00 00	 push	 1631			; 0000065fH
  00199	e8 00 00 00 00	 call	 ?set_fixed_3d_object_database_item@@YGXHHHHHMW4TARGET_TYPES@@W4TARGET_SYMBOL_TYPES@@@Z ; set_fixed_3d_object_database_item

; 854  : 	set_fixed_3d_object_database_item (OBJECT_3D_LEBANON_KEY_OIL_FC_SHED003_5M, EXPLOSIVE_QUALITY_EXPLOSIVE, EXPLOSIVE_POWER_LOW, WARHEAD_EFFECTIVE_LIGHT_BUILDING, 200, IMPORTANCE_LOW, TARGET_TYPE_GROUND, TARGET_SYMBOL_STRUCTURE);

  0019e	6a 07		 push	 7
  001a0	6a 01		 push	 1
  001a2	51		 push	 ecx
  001a3	f3 0f 10 05 00
	00 00 00	 movss	 xmm0, DWORD PTR __real@3e800000
  001ab	f3 0f 11 04 24	 movss	 DWORD PTR [esp], xmm0
  001b0	68 c8 00 00 00	 push	 200			; 000000c8H
  001b5	68 80 00 00 00	 push	 128			; 00000080H
  001ba	6a 01		 push	 1
  001bc	6a 02		 push	 2
  001be	68 61 06 00 00	 push	 1633			; 00000661H
  001c3	e8 00 00 00 00	 call	 ?set_fixed_3d_object_database_item@@YGXHHHHHMW4TARGET_TYPES@@W4TARGET_SYMBOL_TYPES@@@Z ; set_fixed_3d_object_database_item

; 855  : 	set_fixed_3d_object_database_item (OBJECT_3D_LEBANON_KEY_OIL_FC_SHED005_10M_4X3, EXPLOSIVE_QUALITY_EXPLOSIVE, EXPLOSIVE_POWER_LOW, WARHEAD_EFFECTIVE_LIGHT_BUILDING, 200, IMPORTANCE_LOW, TARGET_TYPE_GROUND, TARGET_SYMBOL_STRUCTURE);

  001c8	6a 07		 push	 7
  001ca	6a 01		 push	 1
  001cc	51		 push	 ecx
  001cd	f3 0f 10 05 00
	00 00 00	 movss	 xmm0, DWORD PTR __real@3e800000
  001d5	f3 0f 11 04 24	 movss	 DWORD PTR [esp], xmm0
  001da	68 c8 00 00 00	 push	 200			; 000000c8H
  001df	68 80 00 00 00	 push	 128			; 00000080H
  001e4	6a 01		 push	 1
  001e6	6a 02		 push	 2
  001e8	68 63 06 00 00	 push	 1635			; 00000663H
  001ed	e8 00 00 00 00	 call	 ?set_fixed_3d_object_database_item@@YGXHHHHHMW4TARGET_TYPES@@W4TARGET_SYMBOL_TYPES@@@Z ; set_fixed_3d_object_database_item

; 856  : 
; 857  : 	set_fixed_3d_object_database_item (OBJECT_3D_LEBANON_KEY_POWER_FC_SHED002_10M_7X3, EXPLOSIVE_QUALITY_EXPLOSIVE, EXPLOSIVE_POWER_LOW, WARHEAD_EFFECTIVE_LIGHT_BUILDING, 200, IMPORTANCE_LOW, TARGET_TYPE_GROUND, TARGET_SYMBOL_STRUCTURE);

  001f2	6a 07		 push	 7
  001f4	6a 01		 push	 1
  001f6	51		 push	 ecx
  001f7	f3 0f 10 05 00
	00 00 00	 movss	 xmm0, DWORD PTR __real@3e800000
  001ff	f3 0f 11 04 24	 movss	 DWORD PTR [esp], xmm0
  00204	68 c8 00 00 00	 push	 200			; 000000c8H
  00209	68 80 00 00 00	 push	 128			; 00000080H
  0020e	6a 01		 push	 1
  00210	6a 02		 push	 2
  00212	68 e0 06 00 00	 push	 1760			; 000006e0H
  00217	e8 00 00 00 00	 call	 ?set_fixed_3d_object_database_item@@YGXHHHHHMW4TARGET_TYPES@@W4TARGET_SYMBOL_TYPES@@@Z ; set_fixed_3d_object_database_item

; 858  : 	set_fixed_3d_object_database_item (OBJECT_3D_LEBANON_KEY_POWER_FC_SHED002_15M_8X3, EXPLOSIVE_QUALITY_EXPLOSIVE, EXPLOSIVE_POWER_LOW, WARHEAD_EFFECTIVE_LIGHT_BUILDING, 200, IMPORTANCE_LOW, TARGET_TYPE_GROUND, TARGET_SYMBOL_STRUCTURE);

  0021c	6a 07		 push	 7
  0021e	6a 01		 push	 1
  00220	51		 push	 ecx
  00221	f3 0f 10 05 00
	00 00 00	 movss	 xmm0, DWORD PTR __real@3e800000
  00229	f3 0f 11 04 24	 movss	 DWORD PTR [esp], xmm0
  0022e	68 c8 00 00 00	 push	 200			; 000000c8H
  00233	68 80 00 00 00	 push	 128			; 00000080H
  00238	6a 01		 push	 1
  0023a	6a 02		 push	 2
  0023c	68 e2 06 00 00	 push	 1762			; 000006e2H
  00241	e8 00 00 00 00	 call	 ?set_fixed_3d_object_database_item@@YGXHHHHHMW4TARGET_TYPES@@W4TARGET_SYMBOL_TYPES@@@Z ; set_fixed_3d_object_database_item

; 859  : 	set_fixed_3d_object_database_item (OBJECT_3D_LEBANON_KEY_POWER_FC_SHED003_10M_3X1, EXPLOSIVE_QUALITY_EXPLOSIVE, EXPLOSIVE_POWER_LOW, WARHEAD_EFFECTIVE_LIGHT_BUILDING, 200, IMPORTANCE_LOW, TARGET_TYPE_GROUND, TARGET_SYMBOL_STRUCTURE);

  00246	6a 07		 push	 7
  00248	6a 01		 push	 1
  0024a	51		 push	 ecx
  0024b	f3 0f 10 05 00
	00 00 00	 movss	 xmm0, DWORD PTR __real@3e800000
  00253	f3 0f 11 04 24	 movss	 DWORD PTR [esp], xmm0
  00258	68 c8 00 00 00	 push	 200			; 000000c8H
  0025d	68 80 00 00 00	 push	 128			; 00000080H
  00262	6a 01		 push	 1
  00264	6a 02		 push	 2
  00266	68 e4 06 00 00	 push	 1764			; 000006e4H
  0026b	e8 00 00 00 00	 call	 ?set_fixed_3d_object_database_item@@YGXHHHHHMW4TARGET_TYPES@@W4TARGET_SYMBOL_TYPES@@@Z ; set_fixed_3d_object_database_item

; 860  : 	set_fixed_3d_object_database_item (OBJECT_3D_LEBANON_KEY_POWER_FC_SHED003_5M, EXPLOSIVE_QUALITY_EXPLOSIVE, EXPLOSIVE_POWER_LOW, WARHEAD_EFFECTIVE_LIGHT_BUILDING, 200, IMPORTANCE_LOW, TARGET_TYPE_GROUND, TARGET_SYMBOL_STRUCTURE);

  00270	6a 07		 push	 7
  00272	6a 01		 push	 1
  00274	51		 push	 ecx
  00275	f3 0f 10 05 00
	00 00 00	 movss	 xmm0, DWORD PTR __real@3e800000
  0027d	f3 0f 11 04 24	 movss	 DWORD PTR [esp], xmm0
  00282	68 c8 00 00 00	 push	 200			; 000000c8H
  00287	68 80 00 00 00	 push	 128			; 00000080H
  0028c	6a 01		 push	 1
  0028e	6a 02		 push	 2
  00290	68 e6 06 00 00	 push	 1766			; 000006e6H
  00295	e8 00 00 00 00	 call	 ?set_fixed_3d_object_database_item@@YGXHHHHHMW4TARGET_TYPES@@W4TARGET_SYMBOL_TYPES@@@Z ; set_fixed_3d_object_database_item

; 861  : 	set_fixed_3d_object_database_item (OBJECT_3D_LEBANON_KEY_POWER_FC_SHED005_10M_4X3, EXPLOSIVE_QUALITY_EXPLOSIVE, EXPLOSIVE_POWER_LOW, WARHEAD_EFFECTIVE_LIGHT_BUILDING, 200, IMPORTANCE_LOW, TARGET_TYPE_GROUND, TARGET_SYMBOL_STRUCTURE);

  0029a	6a 07		 push	 7
  0029c	6a 01		 push	 1
  0029e	51		 push	 ecx
  0029f	f3 0f 10 05 00
	00 00 00	 movss	 xmm0, DWORD PTR __real@3e800000
  002a7	f3 0f 11 04 24	 movss	 DWORD PTR [esp], xmm0
  002ac	68 c8 00 00 00	 push	 200			; 000000c8H
  002b1	68 80 00 00 00	 push	 128			; 00000080H
  002b6	6a 01		 push	 1
  002b8	6a 02		 push	 2
  002ba	68 e8 06 00 00	 push	 1768			; 000006e8H
  002bf	e8 00 00 00 00	 call	 ?set_fixed_3d_object_database_item@@YGXHHHHHMW4TARGET_TYPES@@W4TARGET_SYMBOL_TYPES@@@Z ; set_fixed_3d_object_database_item

; 862  : 
; 863  : 	set_fixed_3d_object_database_item (OBJECT_3D_LEBANON_KEY_INDUSTRY_FC_SHED002_10M_7X3, EXPLOSIVE_QUALITY_EXPLOSIVE, EXPLOSIVE_POWER_LOW, WARHEAD_EFFECTIVE_LIGHT_BUILDING, 200, IMPORTANCE_LOW, TARGET_TYPE_GROUND, TARGET_SYMBOL_STRUCTURE);

  002c4	6a 07		 push	 7
  002c6	6a 01		 push	 1
  002c8	51		 push	 ecx
  002c9	f3 0f 10 05 00
	00 00 00	 movss	 xmm0, DWORD PTR __real@3e800000
  002d1	f3 0f 11 04 24	 movss	 DWORD PTR [esp], xmm0
  002d6	68 c8 00 00 00	 push	 200			; 000000c8H
  002db	68 80 00 00 00	 push	 128			; 00000080H
  002e0	6a 01		 push	 1
  002e2	6a 02		 push	 2
  002e4	68 da 05 00 00	 push	 1498			; 000005daH
  002e9	e8 00 00 00 00	 call	 ?set_fixed_3d_object_database_item@@YGXHHHHHMW4TARGET_TYPES@@W4TARGET_SYMBOL_TYPES@@@Z ; set_fixed_3d_object_database_item

; 864  : 	set_fixed_3d_object_database_item (OBJECT_3D_LEBANON_KEY_INDUSTRY_FC_SHED002_15M_8X3, EXPLOSIVE_QUALITY_EXPLOSIVE, EXPLOSIVE_POWER_LOW, WARHEAD_EFFECTIVE_LIGHT_BUILDING, 200, IMPORTANCE_LOW, TARGET_TYPE_GROUND, TARGET_SYMBOL_STRUCTURE);

  002ee	6a 07		 push	 7
  002f0	6a 01		 push	 1
  002f2	51		 push	 ecx
  002f3	f3 0f 10 05 00
	00 00 00	 movss	 xmm0, DWORD PTR __real@3e800000
  002fb	f3 0f 11 04 24	 movss	 DWORD PTR [esp], xmm0
  00300	68 c8 00 00 00	 push	 200			; 000000c8H
  00305	68 80 00 00 00	 push	 128			; 00000080H
  0030a	6a 01		 push	 1
  0030c	6a 02		 push	 2
  0030e	68 dc 05 00 00	 push	 1500			; 000005dcH
  00313	e8 00 00 00 00	 call	 ?set_fixed_3d_object_database_item@@YGXHHHHHMW4TARGET_TYPES@@W4TARGET_SYMBOL_TYPES@@@Z ; set_fixed_3d_object_database_item

; 865  : 	set_fixed_3d_object_database_item (OBJECT_3D_LEBANON_KEY_INDUSTRY_FC_SHED003_10M_3X1, EXPLOSIVE_QUALITY_EXPLOSIVE, EXPLOSIVE_POWER_LOW, WARHEAD_EFFECTIVE_LIGHT_BUILDING, 200, IMPORTANCE_LOW, TARGET_TYPE_GROUND, TARGET_SYMBOL_STRUCTURE);

  00318	6a 07		 push	 7
  0031a	6a 01		 push	 1
  0031c	51		 push	 ecx
  0031d	f3 0f 10 05 00
	00 00 00	 movss	 xmm0, DWORD PTR __real@3e800000
  00325	f3 0f 11 04 24	 movss	 DWORD PTR [esp], xmm0
  0032a	68 c8 00 00 00	 push	 200			; 000000c8H
  0032f	68 80 00 00 00	 push	 128			; 00000080H
  00334	6a 01		 push	 1
  00336	6a 02		 push	 2
  00338	68 de 05 00 00	 push	 1502			; 000005deH
  0033d	e8 00 00 00 00	 call	 ?set_fixed_3d_object_database_item@@YGXHHHHHMW4TARGET_TYPES@@W4TARGET_SYMBOL_TYPES@@@Z ; set_fixed_3d_object_database_item

; 866  : 	set_fixed_3d_object_database_item (OBJECT_3D_LEBANON_KEY_INDUSTRY_FC_SHED003_5M, EXPLOSIVE_QUALITY_EXPLOSIVE, EXPLOSIVE_POWER_LOW, WARHEAD_EFFECTIVE_LIGHT_BUILDING, 200, IMPORTANCE_LOW, TARGET_TYPE_GROUND, TARGET_SYMBOL_STRUCTURE);

  00342	6a 07		 push	 7
  00344	6a 01		 push	 1
  00346	51		 push	 ecx
  00347	f3 0f 10 05 00
	00 00 00	 movss	 xmm0, DWORD PTR __real@3e800000
  0034f	f3 0f 11 04 24	 movss	 DWORD PTR [esp], xmm0
  00354	68 c8 00 00 00	 push	 200			; 000000c8H
  00359	68 80 00 00 00	 push	 128			; 00000080H
  0035e	6a 01		 push	 1
  00360	6a 02		 push	 2
  00362	68 e0 05 00 00	 push	 1504			; 000005e0H
  00367	e8 00 00 00 00	 call	 ?set_fixed_3d_object_database_item@@YGXHHHHHMW4TARGET_TYPES@@W4TARGET_SYMBOL_TYPES@@@Z ; set_fixed_3d_object_database_item

; 867  : 	set_fixed_3d_object_database_item (OBJECT_3D_LEBANON_KEY_INDUSTRY_FC_SHED005_10M_4X3, EXPLOSIVE_QUALITY_EXPLOSIVE, EXPLOSIVE_POWER_LOW, WARHEAD_EFFECTIVE_LIGHT_BUILDING, 200, IMPORTANCE_LOW, TARGET_TYPE_GROUND, TARGET_SYMBOL_STRUCTURE);

  0036c	6a 07		 push	 7
  0036e	6a 01		 push	 1
  00370	51		 push	 ecx
  00371	f3 0f 10 05 00
	00 00 00	 movss	 xmm0, DWORD PTR __real@3e800000
  00379	f3 0f 11 04 24	 movss	 DWORD PTR [esp], xmm0
  0037e	68 c8 00 00 00	 push	 200			; 000000c8H
  00383	68 80 00 00 00	 push	 128			; 00000080H
  00388	6a 01		 push	 1
  0038a	6a 02		 push	 2
  0038c	68 e2 05 00 00	 push	 1506			; 000005e2H
  00391	e8 00 00 00 00	 call	 ?set_fixed_3d_object_database_item@@YGXHHHHHMW4TARGET_TYPES@@W4TARGET_SYMBOL_TYPES@@@Z ; set_fixed_3d_object_database_item

; 868  : 
; 869  : 	set_fixed_3d_object_database_item (OBJECT_3D_YEMEN_KEY_OIL_FC_SHED002_10M_7X3, EXPLOSIVE_QUALITY_EXPLOSIVE, EXPLOSIVE_POWER_LOW, WARHEAD_EFFECTIVE_LIGHT_BUILDING, 200, IMPORTANCE_LOW, TARGET_TYPE_GROUND, TARGET_SYMBOL_STRUCTURE);

  00396	6a 07		 push	 7
  00398	6a 01		 push	 1
  0039a	51		 push	 ecx
  0039b	f3 0f 10 05 00
	00 00 00	 movss	 xmm0, DWORD PTR __real@3e800000
  003a3	f3 0f 11 04 24	 movss	 DWORD PTR [esp], xmm0
  003a8	68 c8 00 00 00	 push	 200			; 000000c8H
  003ad	68 80 00 00 00	 push	 128			; 00000080H
  003b2	6a 01		 push	 1
  003b4	6a 02		 push	 2
  003b6	68 55 09 00 00	 push	 2389			; 00000955H
  003bb	e8 00 00 00 00	 call	 ?set_fixed_3d_object_database_item@@YGXHHHHHMW4TARGET_TYPES@@W4TARGET_SYMBOL_TYPES@@@Z ; set_fixed_3d_object_database_item

; 870  : 	set_fixed_3d_object_database_item (OBJECT_3D_YEMEN_KEY_OIL_FC_SHED003_10M_3X1, EXPLOSIVE_QUALITY_EXPLOSIVE, EXPLOSIVE_POWER_LOW, WARHEAD_EFFECTIVE_LIGHT_BUILDING, 200, IMPORTANCE_LOW, TARGET_TYPE_GROUND, TARGET_SYMBOL_STRUCTURE);

  003c0	6a 07		 push	 7
  003c2	6a 01		 push	 1
  003c4	51		 push	 ecx
  003c5	f3 0f 10 05 00
	00 00 00	 movss	 xmm0, DWORD PTR __real@3e800000
  003cd	f3 0f 11 04 24	 movss	 DWORD PTR [esp], xmm0
  003d2	68 c8 00 00 00	 push	 200			; 000000c8H
  003d7	68 80 00 00 00	 push	 128			; 00000080H
  003dc	6a 01		 push	 1
  003de	6a 02		 push	 2
  003e0	68 59 09 00 00	 push	 2393			; 00000959H
  003e5	e8 00 00 00 00	 call	 ?set_fixed_3d_object_database_item@@YGXHHHHHMW4TARGET_TYPES@@W4TARGET_SYMBOL_TYPES@@@Z ; set_fixed_3d_object_database_item

; 871  : 	set_fixed_3d_object_database_item (OBJECT_3D_YEMEN_KEY_OIL_FC_SHED003_5M, EXPLOSIVE_QUALITY_EXPLOSIVE, EXPLOSIVE_POWER_LOW, WARHEAD_EFFECTIVE_LIGHT_BUILDING, 200, IMPORTANCE_LOW, TARGET_TYPE_GROUND, TARGET_SYMBOL_STRUCTURE);

  003ea	6a 07		 push	 7
  003ec	6a 01		 push	 1
  003ee	51		 push	 ecx
  003ef	f3 0f 10 05 00
	00 00 00	 movss	 xmm0, DWORD PTR __real@3e800000
  003f7	f3 0f 11 04 24	 movss	 DWORD PTR [esp], xmm0
  003fc	68 c8 00 00 00	 push	 200			; 000000c8H
  00401	68 80 00 00 00	 push	 128			; 00000080H
  00406	6a 01		 push	 1
  00408	6a 02		 push	 2
  0040a	68 5b 09 00 00	 push	 2395			; 0000095bH
  0040f	e8 00 00 00 00	 call	 ?set_fixed_3d_object_database_item@@YGXHHHHHMW4TARGET_TYPES@@W4TARGET_SYMBOL_TYPES@@@Z ; set_fixed_3d_object_database_item

; 872  : 	set_fixed_3d_object_database_item (OBJECT_3D_YEMEN_KEY_OIL_FC_SHED005_10M_4X3, EXPLOSIVE_QUALITY_EXPLOSIVE, EXPLOSIVE_POWER_LOW, WARHEAD_EFFECTIVE_LIGHT_BUILDING, 200, IMPORTANCE_LOW, TARGET_TYPE_GROUND, TARGET_SYMBOL_STRUCTURE);

  00414	6a 07		 push	 7
  00416	6a 01		 push	 1
  00418	51		 push	 ecx
  00419	f3 0f 10 05 00
	00 00 00	 movss	 xmm0, DWORD PTR __real@3e800000
  00421	f3 0f 11 04 24	 movss	 DWORD PTR [esp], xmm0
  00426	68 c8 00 00 00	 push	 200			; 000000c8H
  0042b	68 80 00 00 00	 push	 128			; 00000080H
  00430	6a 01		 push	 1
  00432	6a 02		 push	 2
  00434	68 5d 09 00 00	 push	 2397			; 0000095dH
  00439	e8 00 00 00 00	 call	 ?set_fixed_3d_object_database_item@@YGXHHHHHMW4TARGET_TYPES@@W4TARGET_SYMBOL_TYPES@@@Z ; set_fixed_3d_object_database_item

; 873  : 
; 874  : 	set_fixed_3d_object_database_item (OBJECT_3D_YEMEN_KEY_POWER_FC_SHED002_10M_7X3, EXPLOSIVE_QUALITY_EXPLOSIVE, EXPLOSIVE_POWER_LOW, WARHEAD_EFFECTIVE_LIGHT_BUILDING, 200, IMPORTANCE_LOW, TARGET_TYPE_GROUND, TARGET_SYMBOL_STRUCTURE);

  0043e	6a 07		 push	 7
  00440	6a 01		 push	 1
  00442	51		 push	 ecx
  00443	f3 0f 10 05 00
	00 00 00	 movss	 xmm0, DWORD PTR __real@3e800000
  0044b	f3 0f 11 04 24	 movss	 DWORD PTR [esp], xmm0
  00450	68 c8 00 00 00	 push	 200			; 000000c8H
  00455	68 80 00 00 00	 push	 128			; 00000080H
  0045a	6a 01		 push	 1
  0045c	6a 02		 push	 2
  0045e	68 93 09 00 00	 push	 2451			; 00000993H
  00463	e8 00 00 00 00	 call	 ?set_fixed_3d_object_database_item@@YGXHHHHHMW4TARGET_TYPES@@W4TARGET_SYMBOL_TYPES@@@Z ; set_fixed_3d_object_database_item

; 875  : 	set_fixed_3d_object_database_item (OBJECT_3D_YEMEN_KEY_POWER_FC_SHED002_15M_8X3, EXPLOSIVE_QUALITY_EXPLOSIVE, EXPLOSIVE_POWER_LOW, WARHEAD_EFFECTIVE_LIGHT_BUILDING, 200, IMPORTANCE_LOW, TARGET_TYPE_GROUND, TARGET_SYMBOL_STRUCTURE);

  00468	6a 07		 push	 7
  0046a	6a 01		 push	 1
  0046c	51		 push	 ecx
  0046d	f3 0f 10 05 00
	00 00 00	 movss	 xmm0, DWORD PTR __real@3e800000
  00475	f3 0f 11 04 24	 movss	 DWORD PTR [esp], xmm0
  0047a	68 c8 00 00 00	 push	 200			; 000000c8H
  0047f	68 80 00 00 00	 push	 128			; 00000080H
  00484	6a 01		 push	 1
  00486	6a 02		 push	 2
  00488	68 95 09 00 00	 push	 2453			; 00000995H
  0048d	e8 00 00 00 00	 call	 ?set_fixed_3d_object_database_item@@YGXHHHHHMW4TARGET_TYPES@@W4TARGET_SYMBOL_TYPES@@@Z ; set_fixed_3d_object_database_item

; 876  : 	set_fixed_3d_object_database_item (OBJECT_3D_YEMEN_KEY_POWER_FC_SHED003_10M_3X1, EXPLOSIVE_QUALITY_EXPLOSIVE, EXPLOSIVE_POWER_LOW, WARHEAD_EFFECTIVE_LIGHT_BUILDING, 200, IMPORTANCE_LOW, TARGET_TYPE_GROUND, TARGET_SYMBOL_STRUCTURE);

  00492	6a 07		 push	 7
  00494	6a 01		 push	 1
  00496	51		 push	 ecx
  00497	f3 0f 10 05 00
	00 00 00	 movss	 xmm0, DWORD PTR __real@3e800000
  0049f	f3 0f 11 04 24	 movss	 DWORD PTR [esp], xmm0
  004a4	68 c8 00 00 00	 push	 200			; 000000c8H
  004a9	68 80 00 00 00	 push	 128			; 00000080H
  004ae	6a 01		 push	 1
  004b0	6a 02		 push	 2
  004b2	68 97 09 00 00	 push	 2455			; 00000997H
  004b7	e8 00 00 00 00	 call	 ?set_fixed_3d_object_database_item@@YGXHHHHHMW4TARGET_TYPES@@W4TARGET_SYMBOL_TYPES@@@Z ; set_fixed_3d_object_database_item

; 877  : 	set_fixed_3d_object_database_item (OBJECT_3D_YEMEN_KEY_POWER_FC_SHED003_5M, EXPLOSIVE_QUALITY_EXPLOSIVE, EXPLOSIVE_POWER_LOW, WARHEAD_EFFECTIVE_LIGHT_BUILDING, 200, IMPORTANCE_LOW, TARGET_TYPE_GROUND, TARGET_SYMBOL_STRUCTURE);

  004bc	6a 07		 push	 7
  004be	6a 01		 push	 1
  004c0	51		 push	 ecx
  004c1	f3 0f 10 05 00
	00 00 00	 movss	 xmm0, DWORD PTR __real@3e800000
  004c9	f3 0f 11 04 24	 movss	 DWORD PTR [esp], xmm0
  004ce	68 c8 00 00 00	 push	 200			; 000000c8H
  004d3	68 80 00 00 00	 push	 128			; 00000080H
  004d8	6a 01		 push	 1
  004da	6a 02		 push	 2
  004dc	68 99 09 00 00	 push	 2457			; 00000999H
  004e1	e8 00 00 00 00	 call	 ?set_fixed_3d_object_database_item@@YGXHHHHHMW4TARGET_TYPES@@W4TARGET_SYMBOL_TYPES@@@Z ; set_fixed_3d_object_database_item

; 878  : 	set_fixed_3d_object_database_item (OBJECT_3D_YEMEN_KEY_POWER_FC_SHED005_10M_4X3, EXPLOSIVE_QUALITY_EXPLOSIVE, EXPLOSIVE_POWER_LOW, WARHEAD_EFFECTIVE_LIGHT_BUILDING, 200, IMPORTANCE_LOW, TARGET_TYPE_GROUND, TARGET_SYMBOL_STRUCTURE);

  004e6	6a 07		 push	 7
  004e8	6a 01		 push	 1
  004ea	51		 push	 ecx
  004eb	f3 0f 10 05 00
	00 00 00	 movss	 xmm0, DWORD PTR __real@3e800000
  004f3	f3 0f 11 04 24	 movss	 DWORD PTR [esp], xmm0
  004f8	68 c8 00 00 00	 push	 200			; 000000c8H
  004fd	68 80 00 00 00	 push	 128			; 00000080H
  00502	6a 01		 push	 1
  00504	6a 02		 push	 2
  00506	68 9b 09 00 00	 push	 2459			; 0000099bH
  0050b	e8 00 00 00 00	 call	 ?set_fixed_3d_object_database_item@@YGXHHHHHMW4TARGET_TYPES@@W4TARGET_SYMBOL_TYPES@@@Z ; set_fixed_3d_object_database_item

; 879  : 
; 880  : 	set_fixed_3d_object_database_item (OBJECT_3D_TAIWAN_KEY_POWER_FC_SHED002_10M_7X3, EXPLOSIVE_QUALITY_EXPLOSIVE, EXPLOSIVE_POWER_LOW, WARHEAD_EFFECTIVE_LIGHT_BUILDING, 200, IMPORTANCE_LOW, TARGET_TYPE_GROUND, TARGET_SYMBOL_STRUCTURE);

  00510	6a 07		 push	 7
  00512	6a 01		 push	 1
  00514	51		 push	 ecx
  00515	f3 0f 10 05 00
	00 00 00	 movss	 xmm0, DWORD PTR __real@3e800000
  0051d	f3 0f 11 04 24	 movss	 DWORD PTR [esp], xmm0
  00522	68 c8 00 00 00	 push	 200			; 000000c8H
  00527	68 80 00 00 00	 push	 128			; 00000080H
  0052c	6a 01		 push	 1
  0052e	6a 02		 push	 2
  00530	68 83 08 00 00	 push	 2179			; 00000883H
  00535	e8 00 00 00 00	 call	 ?set_fixed_3d_object_database_item@@YGXHHHHHMW4TARGET_TYPES@@W4TARGET_SYMBOL_TYPES@@@Z ; set_fixed_3d_object_database_item

; 881  : 	set_fixed_3d_object_database_item (OBJECT_3D_TAIWAN_KEY_POWER_FC_SHED002_15M_8X3, EXPLOSIVE_QUALITY_EXPLOSIVE, EXPLOSIVE_POWER_LOW, WARHEAD_EFFECTIVE_LIGHT_BUILDING, 200, IMPORTANCE_LOW, TARGET_TYPE_GROUND, TARGET_SYMBOL_STRUCTURE);

  0053a	6a 07		 push	 7
  0053c	6a 01		 push	 1
  0053e	51		 push	 ecx
  0053f	f3 0f 10 05 00
	00 00 00	 movss	 xmm0, DWORD PTR __real@3e800000
  00547	f3 0f 11 04 24	 movss	 DWORD PTR [esp], xmm0
  0054c	68 c8 00 00 00	 push	 200			; 000000c8H
  00551	68 80 00 00 00	 push	 128			; 00000080H
  00556	6a 01		 push	 1
  00558	6a 02		 push	 2
  0055a	68 85 08 00 00	 push	 2181			; 00000885H
  0055f	e8 00 00 00 00	 call	 ?set_fixed_3d_object_database_item@@YGXHHHHHMW4TARGET_TYPES@@W4TARGET_SYMBOL_TYPES@@@Z ; set_fixed_3d_object_database_item

; 882  : 	set_fixed_3d_object_database_item (OBJECT_3D_TAIWAN_KEY_POWER_FC_SHED003_10M_3X1, EXPLOSIVE_QUALITY_EXPLOSIVE, EXPLOSIVE_POWER_LOW, WARHEAD_EFFECTIVE_LIGHT_BUILDING, 200, IMPORTANCE_LOW, TARGET_TYPE_GROUND, TARGET_SYMBOL_STRUCTURE);

  00564	6a 07		 push	 7
  00566	6a 01		 push	 1
  00568	51		 push	 ecx
  00569	f3 0f 10 05 00
	00 00 00	 movss	 xmm0, DWORD PTR __real@3e800000
  00571	f3 0f 11 04 24	 movss	 DWORD PTR [esp], xmm0
  00576	68 c8 00 00 00	 push	 200			; 000000c8H
  0057b	68 80 00 00 00	 push	 128			; 00000080H
  00580	6a 01		 push	 1
  00582	6a 02		 push	 2
  00584	68 87 08 00 00	 push	 2183			; 00000887H
  00589	e8 00 00 00 00	 call	 ?set_fixed_3d_object_database_item@@YGXHHHHHMW4TARGET_TYPES@@W4TARGET_SYMBOL_TYPES@@@Z ; set_fixed_3d_object_database_item

; 883  : 	set_fixed_3d_object_database_item (OBJECT_3D_TAIWAN_KEY_POWER_FC_SHED003_5M, EXPLOSIVE_QUALITY_EXPLOSIVE, EXPLOSIVE_POWER_LOW, WARHEAD_EFFECTIVE_LIGHT_BUILDING, 200, IMPORTANCE_LOW, TARGET_TYPE_GROUND, TARGET_SYMBOL_STRUCTURE);

  0058e	6a 07		 push	 7
  00590	6a 01		 push	 1
  00592	51		 push	 ecx
  00593	f3 0f 10 05 00
	00 00 00	 movss	 xmm0, DWORD PTR __real@3e800000
  0059b	f3 0f 11 04 24	 movss	 DWORD PTR [esp], xmm0
  005a0	68 c8 00 00 00	 push	 200			; 000000c8H
  005a5	68 80 00 00 00	 push	 128			; 00000080H
  005aa	6a 01		 push	 1
  005ac	6a 02		 push	 2
  005ae	68 89 08 00 00	 push	 2185			; 00000889H
  005b3	e8 00 00 00 00	 call	 ?set_fixed_3d_object_database_item@@YGXHHHHHMW4TARGET_TYPES@@W4TARGET_SYMBOL_TYPES@@@Z ; set_fixed_3d_object_database_item

; 884  : 	set_fixed_3d_object_database_item (OBJECT_3D_TAIWAN_KEY_POWER_FC_SHED005_10M_4X3, EXPLOSIVE_QUALITY_EXPLOSIVE, EXPLOSIVE_POWER_LOW, WARHEAD_EFFECTIVE_LIGHT_BUILDING, 200, IMPORTANCE_LOW, TARGET_TYPE_GROUND, TARGET_SYMBOL_STRUCTURE);

  005b8	6a 07		 push	 7
  005ba	6a 01		 push	 1
  005bc	51		 push	 ecx
  005bd	f3 0f 10 05 00
	00 00 00	 movss	 xmm0, DWORD PTR __real@3e800000
  005c5	f3 0f 11 04 24	 movss	 DWORD PTR [esp], xmm0
  005ca	68 c8 00 00 00	 push	 200			; 000000c8H
  005cf	68 80 00 00 00	 push	 128			; 00000080H
  005d4	6a 01		 push	 1
  005d6	6a 02		 push	 2
  005d8	68 8b 08 00 00	 push	 2187			; 0000088bH
  005dd	e8 00 00 00 00	 call	 ?set_fixed_3d_object_database_item@@YGXHHHHHMW4TARGET_TYPES@@W4TARGET_SYMBOL_TYPES@@@Z ; set_fixed_3d_object_database_item

; 885  : 
; 886  : 	set_fixed_3d_object_database_item (OBJECT_3D_TAIWAN_KEY_INDUSTRY_FC_SHED002_10M_7X3, EXPLOSIVE_QUALITY_EXPLOSIVE, EXPLOSIVE_POWER_LOW, WARHEAD_EFFECTIVE_LIGHT_BUILDING, 200, IMPORTANCE_LOW, TARGET_TYPE_GROUND, TARGET_SYMBOL_STRUCTURE);

  005e2	6a 07		 push	 7
  005e4	6a 01		 push	 1
  005e6	51		 push	 ecx
  005e7	f3 0f 10 05 00
	00 00 00	 movss	 xmm0, DWORD PTR __real@3e800000
  005ef	f3 0f 11 04 24	 movss	 DWORD PTR [esp], xmm0
  005f4	68 c8 00 00 00	 push	 200			; 000000c8H
  005f9	68 80 00 00 00	 push	 128			; 00000080H
  005fe	6a 01		 push	 1
  00600	6a 02		 push	 2
  00602	68 ad 07 00 00	 push	 1965			; 000007adH
  00607	e8 00 00 00 00	 call	 ?set_fixed_3d_object_database_item@@YGXHHHHHMW4TARGET_TYPES@@W4TARGET_SYMBOL_TYPES@@@Z ; set_fixed_3d_object_database_item

; 887  : 	set_fixed_3d_object_database_item (OBJECT_3D_TAIWAN_KEY_INDUSTRY_FC_SHED002_15M_8X3, EXPLOSIVE_QUALITY_EXPLOSIVE, EXPLOSIVE_POWER_LOW, WARHEAD_EFFECTIVE_LIGHT_BUILDING, 200, IMPORTANCE_LOW, TARGET_TYPE_GROUND, TARGET_SYMBOL_STRUCTURE);

  0060c	6a 07		 push	 7
  0060e	6a 01		 push	 1
  00610	51		 push	 ecx
  00611	f3 0f 10 05 00
	00 00 00	 movss	 xmm0, DWORD PTR __real@3e800000
  00619	f3 0f 11 04 24	 movss	 DWORD PTR [esp], xmm0
  0061e	68 c8 00 00 00	 push	 200			; 000000c8H
  00623	68 80 00 00 00	 push	 128			; 00000080H
  00628	6a 01		 push	 1
  0062a	6a 02		 push	 2
  0062c	68 af 07 00 00	 push	 1967			; 000007afH
  00631	e8 00 00 00 00	 call	 ?set_fixed_3d_object_database_item@@YGXHHHHHMW4TARGET_TYPES@@W4TARGET_SYMBOL_TYPES@@@Z ; set_fixed_3d_object_database_item

; 888  : 	set_fixed_3d_object_database_item (OBJECT_3D_TAIWAN_KEY_INDUSTRY_FC_SHED003_10M_3X1, EXPLOSIVE_QUALITY_EXPLOSIVE, EXPLOSIVE_POWER_LOW, WARHEAD_EFFECTIVE_LIGHT_BUILDING, 200, IMPORTANCE_LOW, TARGET_TYPE_GROUND, TARGET_SYMBOL_STRUCTURE);

  00636	6a 07		 push	 7
  00638	6a 01		 push	 1
  0063a	51		 push	 ecx
  0063b	f3 0f 10 05 00
	00 00 00	 movss	 xmm0, DWORD PTR __real@3e800000
  00643	f3 0f 11 04 24	 movss	 DWORD PTR [esp], xmm0
  00648	68 c8 00 00 00	 push	 200			; 000000c8H
  0064d	68 80 00 00 00	 push	 128			; 00000080H
  00652	6a 01		 push	 1
  00654	6a 02		 push	 2
  00656	68 b1 07 00 00	 push	 1969			; 000007b1H
  0065b	e8 00 00 00 00	 call	 ?set_fixed_3d_object_database_item@@YGXHHHHHMW4TARGET_TYPES@@W4TARGET_SYMBOL_TYPES@@@Z ; set_fixed_3d_object_database_item

; 889  : 	set_fixed_3d_object_database_item (OBJECT_3D_TAIWAN_KEY_INDUSTRY_FC_SHED003_5M, EXPLOSIVE_QUALITY_EXPLOSIVE, EXPLOSIVE_POWER_LOW, WARHEAD_EFFECTIVE_LIGHT_BUILDING, 200, IMPORTANCE_LOW, TARGET_TYPE_GROUND, TARGET_SYMBOL_STRUCTURE);

  00660	6a 07		 push	 7
  00662	6a 01		 push	 1
  00664	51		 push	 ecx
  00665	f3 0f 10 05 00
	00 00 00	 movss	 xmm0, DWORD PTR __real@3e800000
  0066d	f3 0f 11 04 24	 movss	 DWORD PTR [esp], xmm0
  00672	68 c8 00 00 00	 push	 200			; 000000c8H
  00677	68 80 00 00 00	 push	 128			; 00000080H
  0067c	6a 01		 push	 1
  0067e	6a 02		 push	 2
  00680	68 b3 07 00 00	 push	 1971			; 000007b3H
  00685	e8 00 00 00 00	 call	 ?set_fixed_3d_object_database_item@@YGXHHHHHMW4TARGET_TYPES@@W4TARGET_SYMBOL_TYPES@@@Z ; set_fixed_3d_object_database_item

; 890  : 	set_fixed_3d_object_database_item (OBJECT_3D_TAIWAN_KEY_INDUSTRY_FC_SHED005_10M_4X3, EXPLOSIVE_QUALITY_EXPLOSIVE, EXPLOSIVE_POWER_LOW, WARHEAD_EFFECTIVE_LIGHT_BUILDING, 200, IMPORTANCE_LOW, TARGET_TYPE_GROUND, TARGET_SYMBOL_STRUCTURE);

  0068a	6a 07		 push	 7
  0068c	6a 01		 push	 1
  0068e	51		 push	 ecx
  0068f	f3 0f 10 05 00
	00 00 00	 movss	 xmm0, DWORD PTR __real@3e800000
  00697	f3 0f 11 04 24	 movss	 DWORD PTR [esp], xmm0
  0069c	68 c8 00 00 00	 push	 200			; 000000c8H
  006a1	68 80 00 00 00	 push	 128			; 00000080H
  006a6	6a 01		 push	 1
  006a8	6a 02		 push	 2
  006aa	68 b5 07 00 00	 push	 1973			; 000007b5H
  006af	e8 00 00 00 00	 call	 ?set_fixed_3d_object_database_item@@YGXHHHHHMW4TARGET_TYPES@@W4TARGET_SYMBOL_TYPES@@@Z ; set_fixed_3d_object_database_item

; 891  : 
; 892  : 	set_fixed_3d_object_database_item (OBJECT_3D_TAIWAN_KEY_OIL_FC_SHED002_10M_7X3, EXPLOSIVE_QUALITY_EXPLOSIVE, EXPLOSIVE_POWER_LOW, WARHEAD_EFFECTIVE_LIGHT_BUILDING, 200, IMPORTANCE_LOW, TARGET_TYPE_GROUND, TARGET_SYMBOL_STRUCTURE);

  006b4	6a 07		 push	 7
  006b6	6a 01		 push	 1
  006b8	51		 push	 ecx
  006b9	f3 0f 10 05 00
	00 00 00	 movss	 xmm0, DWORD PTR __real@3e800000
  006c1	f3 0f 11 04 24	 movss	 DWORD PTR [esp], xmm0
  006c6	68 c8 00 00 00	 push	 200			; 000000c8H
  006cb	68 80 00 00 00	 push	 128			; 00000080H
  006d0	6a 01		 push	 1
  006d2	6a 02		 push	 2
  006d4	68 49 08 00 00	 push	 2121			; 00000849H
  006d9	e8 00 00 00 00	 call	 ?set_fixed_3d_object_database_item@@YGXHHHHHMW4TARGET_TYPES@@W4TARGET_SYMBOL_TYPES@@@Z ; set_fixed_3d_object_database_item

; 893  : 	set_fixed_3d_object_database_item (OBJECT_3D_TAIWAN_KEY_OIL_FC_SHED003_10M_3X1, EXPLOSIVE_QUALITY_EXPLOSIVE, EXPLOSIVE_POWER_LOW, WARHEAD_EFFECTIVE_LIGHT_BUILDING, 200, IMPORTANCE_LOW, TARGET_TYPE_GROUND, TARGET_SYMBOL_STRUCTURE);

  006de	6a 07		 push	 7
  006e0	6a 01		 push	 1
  006e2	51		 push	 ecx
  006e3	f3 0f 10 05 00
	00 00 00	 movss	 xmm0, DWORD PTR __real@3e800000
  006eb	f3 0f 11 04 24	 movss	 DWORD PTR [esp], xmm0
  006f0	68 c8 00 00 00	 push	 200			; 000000c8H
  006f5	68 80 00 00 00	 push	 128			; 00000080H
  006fa	6a 01		 push	 1
  006fc	6a 02		 push	 2
  006fe	68 4d 08 00 00	 push	 2125			; 0000084dH
  00703	e8 00 00 00 00	 call	 ?set_fixed_3d_object_database_item@@YGXHHHHHMW4TARGET_TYPES@@W4TARGET_SYMBOL_TYPES@@@Z ; set_fixed_3d_object_database_item

; 894  : 	set_fixed_3d_object_database_item (OBJECT_3D_TAIWAN_KEY_OIL_FC_SHED003_5M, EXPLOSIVE_QUALITY_EXPLOSIVE, EXPLOSIVE_POWER_LOW, WARHEAD_EFFECTIVE_LIGHT_BUILDING, 200, IMPORTANCE_LOW, TARGET_TYPE_GROUND, TARGET_SYMBOL_STRUCTURE);

  00708	6a 07		 push	 7
  0070a	6a 01		 push	 1
  0070c	51		 push	 ecx
  0070d	f3 0f 10 05 00
	00 00 00	 movss	 xmm0, DWORD PTR __real@3e800000
  00715	f3 0f 11 04 24	 movss	 DWORD PTR [esp], xmm0
  0071a	68 c8 00 00 00	 push	 200			; 000000c8H
  0071f	68 80 00 00 00	 push	 128			; 00000080H
  00724	6a 01		 push	 1
  00726	6a 02		 push	 2
  00728	68 4f 08 00 00	 push	 2127			; 0000084fH
  0072d	e8 00 00 00 00	 call	 ?set_fixed_3d_object_database_item@@YGXHHHHHMW4TARGET_TYPES@@W4TARGET_SYMBOL_TYPES@@@Z ; set_fixed_3d_object_database_item

; 895  : 	set_fixed_3d_object_database_item (OBJECT_3D_TAIWAN_KEY_OIL_FC_SHED005_10M_4X3, EXPLOSIVE_QUALITY_EXPLOSIVE, EXPLOSIVE_POWER_LOW, WARHEAD_EFFECTIVE_LIGHT_BUILDING, 200, IMPORTANCE_LOW, TARGET_TYPE_GROUND, TARGET_SYMBOL_STRUCTURE);

  00732	6a 07		 push	 7
  00734	6a 01		 push	 1
  00736	51		 push	 ecx
  00737	f3 0f 10 05 00
	00 00 00	 movss	 xmm0, DWORD PTR __real@3e800000
  0073f	f3 0f 11 04 24	 movss	 DWORD PTR [esp], xmm0
  00744	68 c8 00 00 00	 push	 200			; 000000c8H
  00749	68 80 00 00 00	 push	 128			; 00000080H
  0074e	6a 01		 push	 1
  00750	6a 02		 push	 2
  00752	68 51 08 00 00	 push	 2129			; 00000851H
  00757	e8 00 00 00 00	 call	 ?set_fixed_3d_object_database_item@@YGXHHHHHMW4TARGET_TYPES@@W4TARGET_SYMBOL_TYPES@@@Z ; set_fixed_3d_object_database_item

; 896  : 
; 897  : 	set_fixed_3d_object_database_item (OBJECT_3D_UAZ, EXPLOSIVE_QUALITY_EXPLOSIVE, EXPLOSIVE_POWER_LOW, WARHEAD_EFFECTIVE_LIGHT_BUILDING, 200, IMPORTANCE_LOW, TARGET_TYPE_GROUND, TARGET_SYMBOL_STRUCTURE);

  0075c	6a 07		 push	 7
  0075e	6a 01		 push	 1
  00760	51		 push	 ecx
  00761	f3 0f 10 05 00
	00 00 00	 movss	 xmm0, DWORD PTR __real@3e800000
  00769	f3 0f 11 04 24	 movss	 DWORD PTR [esp], xmm0
  0076e	68 c8 00 00 00	 push	 200			; 000000c8H
  00773	68 80 00 00 00	 push	 128			; 00000080H
  00778	6a 01		 push	 1
  0077a	6a 02		 push	 2
  0077c	68 a3 0a 00 00	 push	 2723			; 00000aa3H
  00781	e8 00 00 00 00	 call	 ?set_fixed_3d_object_database_item@@YGXHHHHHMW4TARGET_TYPES@@W4TARGET_SYMBOL_TYPES@@@Z ; set_fixed_3d_object_database_item

; 898  : 	set_fixed_3d_object_database_item (OBJECT_3D_M998, EXPLOSIVE_QUALITY_EXPLOSIVE, EXPLOSIVE_POWER_LOW, WARHEAD_EFFECTIVE_LIGHT_BUILDING, 200, IMPORTANCE_LOW, TARGET_TYPE_GROUND, TARGET_SYMBOL_STRUCTURE);

  00786	6a 07		 push	 7
  00788	6a 01		 push	 1
  0078a	51		 push	 ecx
  0078b	f3 0f 10 05 00
	00 00 00	 movss	 xmm0, DWORD PTR __real@3e800000
  00793	f3 0f 11 04 24	 movss	 DWORD PTR [esp], xmm0
  00798	68 c8 00 00 00	 push	 200			; 000000c8H
  0079d	68 80 00 00 00	 push	 128			; 00000080H
  007a2	6a 01		 push	 1
  007a4	6a 02		 push	 2
  007a6	68 91 0a 00 00	 push	 2705			; 00000a91H
  007ab	e8 00 00 00 00	 call	 ?set_fixed_3d_object_database_item@@YGXHHHHHMW4TARGET_TYPES@@W4TARGET_SYMBOL_TYPES@@@Z ; set_fixed_3d_object_database_item

; 899  : 
; 900  : 	set_fixed_3d_object_database_item (OBJECT_3D_SIMPLE_UAZ, EXPLOSIVE_QUALITY_EXPLOSIVE, EXPLOSIVE_POWER_LOW, WARHEAD_EFFECTIVE_LIGHT_BUILDING, 200, IMPORTANCE_LOW, TARGET_TYPE_GROUND, TARGET_SYMBOL_STRUCTURE);

  007b0	6a 07		 push	 7
  007b2	6a 01		 push	 1
  007b4	51		 push	 ecx
  007b5	f3 0f 10 05 00
	00 00 00	 movss	 xmm0, DWORD PTR __real@3e800000
  007bd	f3 0f 11 04 24	 movss	 DWORD PTR [esp], xmm0
  007c2	68 c8 00 00 00	 push	 200			; 000000c8H
  007c7	68 80 00 00 00	 push	 128			; 00000080H
  007cc	6a 01		 push	 1
  007ce	6a 02		 push	 2
  007d0	68 9d 0a 00 00	 push	 2717			; 00000a9dH
  007d5	e8 00 00 00 00	 call	 ?set_fixed_3d_object_database_item@@YGXHHHHHMW4TARGET_TYPES@@W4TARGET_SYMBOL_TYPES@@@Z ; set_fixed_3d_object_database_item

; 901  : 	set_fixed_3d_object_database_item (OBJECT_3D_SIMPLE_M998, EXPLOSIVE_QUALITY_EXPLOSIVE, EXPLOSIVE_POWER_LOW, WARHEAD_EFFECTIVE_LIGHT_BUILDING, 200, IMPORTANCE_LOW, TARGET_TYPE_GROUND, TARGET_SYMBOL_STRUCTURE);

  007da	6a 07		 push	 7
  007dc	6a 01		 push	 1
  007de	51		 push	 ecx
  007df	f3 0f 10 05 00
	00 00 00	 movss	 xmm0, DWORD PTR __real@3e800000
  007e7	f3 0f 11 04 24	 movss	 DWORD PTR [esp], xmm0
  007ec	68 c8 00 00 00	 push	 200			; 000000c8H
  007f1	68 80 00 00 00	 push	 128			; 00000080H
  007f6	6a 01		 push	 1
  007f8	6a 02		 push	 2
  007fa	68 99 0a 00 00	 push	 2713			; 00000a99H
  007ff	e8 00 00 00 00	 call	 ?set_fixed_3d_object_database_item@@YGXHHHHHMW4TARGET_TYPES@@W4TARGET_SYMBOL_TYPES@@@Z ; set_fixed_3d_object_database_item

; 902  : 	set_fixed_3d_object_database_item (OBJECT_3D_SIMPLE_M978, EXPLOSIVE_QUALITY_EXPLOSIVE, EXPLOSIVE_POWER_LOW, WARHEAD_EFFECTIVE_LIGHT_BUILDING, 200, IMPORTANCE_LOW, TARGET_TYPE_GROUND, TARGET_SYMBOL_STRUCTURE);

  00804	6a 07		 push	 7
  00806	6a 01		 push	 1
  00808	51		 push	 ecx
  00809	f3 0f 10 05 00
	00 00 00	 movss	 xmm0, DWORD PTR __real@3e800000
  00811	f3 0f 11 04 24	 movss	 DWORD PTR [esp], xmm0
  00816	68 c8 00 00 00	 push	 200			; 000000c8H
  0081b	68 80 00 00 00	 push	 128			; 00000080H
  00820	6a 01		 push	 1
  00822	6a 02		 push	 2
  00824	68 9b 0a 00 00	 push	 2715			; 00000a9bH
  00829	e8 00 00 00 00	 call	 ?set_fixed_3d_object_database_item@@YGXHHHHHMW4TARGET_TYPES@@W4TARGET_SYMBOL_TYPES@@@Z ; set_fixed_3d_object_database_item

; 903  : 	set_fixed_3d_object_database_item (OBJECT_3D_SIMPLE_URAL_4320, EXPLOSIVE_QUALITY_EXPLOSIVE, EXPLOSIVE_POWER_LOW, WARHEAD_EFFECTIVE_LIGHT_BUILDING, 200, IMPORTANCE_LOW, TARGET_TYPE_GROUND, TARGET_SYMBOL_STRUCTURE);

  0082e	6a 07		 push	 7
  00830	6a 01		 push	 1
  00832	51		 push	 ecx
  00833	f3 0f 10 05 00
	00 00 00	 movss	 xmm0, DWORD PTR __real@3e800000
  0083b	f3 0f 11 04 24	 movss	 DWORD PTR [esp], xmm0
  00840	68 c8 00 00 00	 push	 200			; 000000c8H
  00845	68 80 00 00 00	 push	 128			; 00000080H
  0084a	6a 01		 push	 1
  0084c	6a 02		 push	 2
  0084e	68 9f 0a 00 00	 push	 2719			; 00000a9fH
  00853	e8 00 00 00 00	 call	 ?set_fixed_3d_object_database_item@@YGXHHHHHMW4TARGET_TYPES@@W4TARGET_SYMBOL_TYPES@@@Z ; set_fixed_3d_object_database_item

; 904  : 	set_fixed_3d_object_database_item (OBJECT_3D_SIMPLE_URAL_FUEL, EXPLOSIVE_QUALITY_EXPLOSIVE, EXPLOSIVE_POWER_LOW, WARHEAD_EFFECTIVE_LIGHT_BUILDING, 200, IMPORTANCE_LOW, TARGET_TYPE_GROUND, TARGET_SYMBOL_STRUCTURE);

  00858	6a 07		 push	 7
  0085a	6a 01		 push	 1
  0085c	51		 push	 ecx
  0085d	f3 0f 10 05 00
	00 00 00	 movss	 xmm0, DWORD PTR __real@3e800000
  00865	f3 0f 11 04 24	 movss	 DWORD PTR [esp], xmm0
  0086a	68 c8 00 00 00	 push	 200			; 000000c8H
  0086f	68 80 00 00 00	 push	 128			; 00000080H
  00874	6a 01		 push	 1
  00876	6a 02		 push	 2
  00878	68 a1 0a 00 00	 push	 2721			; 00000aa1H
  0087d	e8 00 00 00 00	 call	 ?set_fixed_3d_object_database_item@@YGXHHHHHMW4TARGET_TYPES@@W4TARGET_SYMBOL_TYPES@@@Z ; set_fixed_3d_object_database_item

; 905  : 	set_fixed_3d_object_database_item (OBJECT_3D_SIMPLE_M_923A1_COVERED, EXPLOSIVE_QUALITY_EXPLOSIVE, EXPLOSIVE_POWER_LOW, WARHEAD_EFFECTIVE_LIGHT_BUILDING, 200, IMPORTANCE_LOW, TARGET_TYPE_GROUND, TARGET_SYMBOL_STRUCTURE);

  00882	6a 07		 push	 7
  00884	6a 01		 push	 1
  00886	51		 push	 ecx
  00887	f3 0f 10 05 00
	00 00 00	 movss	 xmm0, DWORD PTR __real@3e800000
  0088f	f3 0f 11 04 24	 movss	 DWORD PTR [esp], xmm0
  00894	68 c8 00 00 00	 push	 200			; 000000c8H
  00899	68 80 00 00 00	 push	 128			; 00000080H
  0089e	6a 01		 push	 1
  008a0	6a 02		 push	 2
  008a2	68 97 0a 00 00	 push	 2711			; 00000a97H
  008a7	e8 00 00 00 00	 call	 ?set_fixed_3d_object_database_item@@YGXHHHHHMW4TARGET_TYPES@@W4TARGET_SYMBOL_TYPES@@@Z ; set_fixed_3d_object_database_item

; 906  : 
; 907  : 	// INVALID TARGETS
; 908  : }

  008ac	5f		 pop	 edi
  008ad	5e		 pop	 esi
  008ae	5b		 pop	 ebx
  008af	8b e5		 mov	 esp, ebp
  008b1	5d		 pop	 ebp
  008b2	c3		 ret	 0
?initialise_low_importance_small_explosive_buildings@@YGXXZ ENDP ; initialise_low_importance_small_explosive_buildings
_TEXT	ENDS
; Function compile flags: /Odtp /ZI
; File c:\users\nhv90\projects\eech\aphavoc\source\entity\fixed\fx_objdb.c
;	COMDAT ?initialise_low_importance_medium_explosive_buildings@@YGXXZ
_TEXT	SEGMENT
?initialise_low_importance_medium_explosive_buildings@@YGXXZ PROC ; initialise_low_importance_medium_explosive_buildings, COMDAT

; 749  : {

  00000	55		 push	 ebp
  00001	8b ec		 mov	 ebp, esp
  00003	83 ec 40	 sub	 esp, 64			; 00000040H
  00006	53		 push	 ebx
  00007	56		 push	 esi
  00008	57		 push	 edi

; 750  : 	////////////////////////////////////////////////////////////////////////////////////
; 751  : 	//
; 752  : 	// LOW IMPORTANCE MEDIUM EXPLOSIVE BUILDINGS
; 753  : 	//
; 754  : 	////////////////////////////////////////////////////////////////////////////////////
; 755  : 
; 756  : 	// VALID TARGETS
; 757  : 
; 758  : 	set_fixed_3d_object_database_item (OBJECT_3D_AMERICAN_MOBILE_FUEL01, EXPLOSIVE_QUALITY_EXPLOSIVE, EXPLOSIVE_POWER_MEDIUM, WARHEAD_EFFECTIVE_LIGHT_BUILDING, 100, IMPORTANCE_LOW, TARGET_TYPE_GROUND, TARGET_SYMBOL_WHEELED_VEHICLE);

  00009	6a 01		 push	 1
  0000b	6a 01		 push	 1
  0000d	51		 push	 ecx
  0000e	f3 0f 10 05 00
	00 00 00	 movss	 xmm0, DWORD PTR __real@3e800000
  00016	f3 0f 11 04 24	 movss	 DWORD PTR [esp], xmm0
  0001b	6a 64		 push	 100			; 00000064H
  0001d	68 80 00 00 00	 push	 128			; 00000080H
  00022	6a 02		 push	 2
  00024	6a 02		 push	 2
  00026	6a 6f		 push	 111			; 0000006fH
  00028	e8 00 00 00 00	 call	 ?set_fixed_3d_object_database_item@@YGXHHHHHMW4TARGET_TYPES@@W4TARGET_SYMBOL_TYPES@@@Z ; set_fixed_3d_object_database_item

; 759  : 	set_fixed_3d_object_database_item (OBJECT_3D_AMERICAN_MOBILE_FUEL02, EXPLOSIVE_QUALITY_EXPLOSIVE, EXPLOSIVE_POWER_MEDIUM, WARHEAD_EFFECTIVE_LIGHT_BUILDING, 100, IMPORTANCE_LOW, TARGET_TYPE_GROUND, TARGET_SYMBOL_WHEELED_VEHICLE);

  0002d	6a 01		 push	 1
  0002f	6a 01		 push	 1
  00031	51		 push	 ecx
  00032	f3 0f 10 05 00
	00 00 00	 movss	 xmm0, DWORD PTR __real@3e800000
  0003a	f3 0f 11 04 24	 movss	 DWORD PTR [esp], xmm0
  0003f	6a 64		 push	 100			; 00000064H
  00041	68 80 00 00 00	 push	 128			; 00000080H
  00046	6a 02		 push	 2
  00048	6a 02		 push	 2
  0004a	6a 71		 push	 113			; 00000071H
  0004c	e8 00 00 00 00	 call	 ?set_fixed_3d_object_database_item@@YGXHHHHHMW4TARGET_TYPES@@W4TARGET_SYMBOL_TYPES@@@Z ; set_fixed_3d_object_database_item

; 760  : 
; 761  : 	set_fixed_3d_object_database_item (OBJECT_3D_RUSSIAN_MOBILE_FUEL01, EXPLOSIVE_QUALITY_EXPLOSIVE, EXPLOSIVE_POWER_MEDIUM, WARHEAD_EFFECTIVE_LIGHT_BUILDING, 100, IMPORTANCE_LOW, TARGET_TYPE_GROUND, TARGET_SYMBOL_WHEELED_VEHICLE);

  00051	6a 01		 push	 1
  00053	6a 01		 push	 1
  00055	51		 push	 ecx
  00056	f3 0f 10 05 00
	00 00 00	 movss	 xmm0, DWORD PTR __real@3e800000
  0005e	f3 0f 11 04 24	 movss	 DWORD PTR [esp], xmm0
  00063	6a 64		 push	 100			; 00000064H
  00065	68 80 00 00 00	 push	 128			; 00000080H
  0006a	6a 02		 push	 2
  0006c	6a 02		 push	 2
  0006e	68 0e 01 00 00	 push	 270			; 0000010eH
  00073	e8 00 00 00 00	 call	 ?set_fixed_3d_object_database_item@@YGXHHHHHMW4TARGET_TYPES@@W4TARGET_SYMBOL_TYPES@@@Z ; set_fixed_3d_object_database_item

; 762  : 
; 763  : 	set_fixed_3d_object_database_item (OBJECT_3D_OIL_FR_CYLINDER01_20X10, EXPLOSIVE_QUALITY_EXPLOSIVE, EXPLOSIVE_POWER_MEDIUM, WARHEAD_EFFECTIVE_STONE_BUILDING, 100, IMPORTANCE_LOW, TARGET_TYPE_GROUND, TARGET_SYMBOL_STRUCTURE);

  00078	6a 07		 push	 7
  0007a	6a 01		 push	 1
  0007c	51		 push	 ecx
  0007d	f3 0f 10 05 00
	00 00 00	 movss	 xmm0, DWORD PTR __real@3e800000
  00085	f3 0f 11 04 24	 movss	 DWORD PTR [esp], xmm0
  0008a	6a 64		 push	 100			; 00000064H
  0008c	68 00 01 00 00	 push	 256			; 00000100H
  00091	6a 02		 push	 2
  00093	6a 02		 push	 2
  00095	68 8f 04 00 00	 push	 1167			; 0000048fH
  0009a	e8 00 00 00 00	 call	 ?set_fixed_3d_object_database_item@@YGXHHHHHMW4TARGET_TYPES@@W4TARGET_SYMBOL_TYPES@@@Z ; set_fixed_3d_object_database_item

; 764  : 	set_fixed_3d_object_database_item (OBJECT_3D_OIL_FR_CYLINDER01_20X20, EXPLOSIVE_QUALITY_EXPLOSIVE, EXPLOSIVE_POWER_MEDIUM, WARHEAD_EFFECTIVE_STONE_BUILDING, 100, IMPORTANCE_LOW, TARGET_TYPE_GROUND, TARGET_SYMBOL_STRUCTURE);

  0009f	6a 07		 push	 7
  000a1	6a 01		 push	 1
  000a3	51		 push	 ecx
  000a4	f3 0f 10 05 00
	00 00 00	 movss	 xmm0, DWORD PTR __real@3e800000
  000ac	f3 0f 11 04 24	 movss	 DWORD PTR [esp], xmm0
  000b1	6a 64		 push	 100			; 00000064H
  000b3	68 00 01 00 00	 push	 256			; 00000100H
  000b8	6a 02		 push	 2
  000ba	6a 02		 push	 2
  000bc	68 91 04 00 00	 push	 1169			; 00000491H
  000c1	e8 00 00 00 00	 call	 ?set_fixed_3d_object_database_item@@YGXHHHHHMW4TARGET_TYPES@@W4TARGET_SYMBOL_TYPES@@@Z ; set_fixed_3d_object_database_item

; 765  : 	set_fixed_3d_object_database_item (OBJECT_3D_OIL_FR_CYLINDER02_20X10, EXPLOSIVE_QUALITY_EXPLOSIVE, EXPLOSIVE_POWER_MEDIUM, WARHEAD_EFFECTIVE_STONE_BUILDING, 100, IMPORTANCE_LOW, TARGET_TYPE_GROUND, TARGET_SYMBOL_STRUCTURE);

  000c6	6a 07		 push	 7
  000c8	6a 01		 push	 1
  000ca	51		 push	 ecx
  000cb	f3 0f 10 05 00
	00 00 00	 movss	 xmm0, DWORD PTR __real@3e800000
  000d3	f3 0f 11 04 24	 movss	 DWORD PTR [esp], xmm0
  000d8	6a 64		 push	 100			; 00000064H
  000da	68 00 01 00 00	 push	 256			; 00000100H
  000df	6a 02		 push	 2
  000e1	6a 02		 push	 2
  000e3	68 93 04 00 00	 push	 1171			; 00000493H
  000e8	e8 00 00 00 00	 call	 ?set_fixed_3d_object_database_item@@YGXHHHHHMW4TARGET_TYPES@@W4TARGET_SYMBOL_TYPES@@@Z ; set_fixed_3d_object_database_item

; 766  : 	set_fixed_3d_object_database_item (OBJECT_3D_OIL_FR_CYLINDER03_10X10, EXPLOSIVE_QUALITY_EXPLOSIVE, EXPLOSIVE_POWER_MEDIUM, WARHEAD_EFFECTIVE_STONE_BUILDING, 100, IMPORTANCE_LOW, TARGET_TYPE_GROUND, TARGET_SYMBOL_STRUCTURE);

  000ed	6a 07		 push	 7
  000ef	6a 01		 push	 1
  000f1	51		 push	 ecx
  000f2	f3 0f 10 05 00
	00 00 00	 movss	 xmm0, DWORD PTR __real@3e800000
  000fa	f3 0f 11 04 24	 movss	 DWORD PTR [esp], xmm0
  000ff	6a 64		 push	 100			; 00000064H
  00101	68 00 01 00 00	 push	 256			; 00000100H
  00106	6a 02		 push	 2
  00108	6a 02		 push	 2
  0010a	68 95 04 00 00	 push	 1173			; 00000495H
  0010f	e8 00 00 00 00	 call	 ?set_fixed_3d_object_database_item@@YGXHHHHHMW4TARGET_TYPES@@W4TARGET_SYMBOL_TYPES@@@Z ; set_fixed_3d_object_database_item

; 767  : 	set_fixed_3d_object_database_item (OBJECT_3D_OIL_FR_CYLINDER03_20X10, EXPLOSIVE_QUALITY_EXPLOSIVE, EXPLOSIVE_POWER_MEDIUM, WARHEAD_EFFECTIVE_STONE_BUILDING, 100, IMPORTANCE_LOW, TARGET_TYPE_GROUND, TARGET_SYMBOL_STRUCTURE);

  00114	6a 07		 push	 7
  00116	6a 01		 push	 1
  00118	51		 push	 ecx
  00119	f3 0f 10 05 00
	00 00 00	 movss	 xmm0, DWORD PTR __real@3e800000
  00121	f3 0f 11 04 24	 movss	 DWORD PTR [esp], xmm0
  00126	6a 64		 push	 100			; 00000064H
  00128	68 00 01 00 00	 push	 256			; 00000100H
  0012d	6a 02		 push	 2
  0012f	6a 02		 push	 2
  00131	68 97 04 00 00	 push	 1175			; 00000497H
  00136	e8 00 00 00 00	 call	 ?set_fixed_3d_object_database_item@@YGXHHHHHMW4TARGET_TYPES@@W4TARGET_SYMBOL_TYPES@@@Z ; set_fixed_3d_object_database_item

; 768  : 	set_fixed_3d_object_database_item (OBJECT_3D_OIL_FR_CYLINDER04_10X10, EXPLOSIVE_QUALITY_EXPLOSIVE, EXPLOSIVE_POWER_MEDIUM, WARHEAD_EFFECTIVE_STONE_BUILDING, 100, IMPORTANCE_LOW, TARGET_TYPE_GROUND, TARGET_SYMBOL_STRUCTURE);

  0013b	6a 07		 push	 7
  0013d	6a 01		 push	 1
  0013f	51		 push	 ecx
  00140	f3 0f 10 05 00
	00 00 00	 movss	 xmm0, DWORD PTR __real@3e800000
  00148	f3 0f 11 04 24	 movss	 DWORD PTR [esp], xmm0
  0014d	6a 64		 push	 100			; 00000064H
  0014f	68 00 01 00 00	 push	 256			; 00000100H
  00154	6a 02		 push	 2
  00156	6a 02		 push	 2
  00158	68 99 04 00 00	 push	 1177			; 00000499H
  0015d	e8 00 00 00 00	 call	 ?set_fixed_3d_object_database_item@@YGXHHHHHMW4TARGET_TYPES@@W4TARGET_SYMBOL_TYPES@@@Z ; set_fixed_3d_object_database_item

; 769  : 	set_fixed_3d_object_database_item (OBJECT_3D_OIL_FR_CYLINDER04_20X10, EXPLOSIVE_QUALITY_EXPLOSIVE, EXPLOSIVE_POWER_MEDIUM, WARHEAD_EFFECTIVE_STONE_BUILDING, 100, IMPORTANCE_LOW, TARGET_TYPE_GROUND, TARGET_SYMBOL_STRUCTURE);

  00162	6a 07		 push	 7
  00164	6a 01		 push	 1
  00166	51		 push	 ecx
  00167	f3 0f 10 05 00
	00 00 00	 movss	 xmm0, DWORD PTR __real@3e800000
  0016f	f3 0f 11 04 24	 movss	 DWORD PTR [esp], xmm0
  00174	6a 64		 push	 100			; 00000064H
  00176	68 00 01 00 00	 push	 256			; 00000100H
  0017b	6a 02		 push	 2
  0017d	6a 02		 push	 2
  0017f	68 9b 04 00 00	 push	 1179			; 0000049bH
  00184	e8 00 00 00 00	 call	 ?set_fixed_3d_object_database_item@@YGXHHHHHMW4TARGET_TYPES@@W4TARGET_SYMBOL_TYPES@@@Z ; set_fixed_3d_object_database_item

; 770  : 	set_fixed_3d_object_database_item (OBJECT_3D_OIL_FR_CYLINDER05_10X10, EXPLOSIVE_QUALITY_EXPLOSIVE, EXPLOSIVE_POWER_MEDIUM, WARHEAD_EFFECTIVE_STONE_BUILDING, 100, IMPORTANCE_LOW, TARGET_TYPE_GROUND, TARGET_SYMBOL_STRUCTURE);

  00189	6a 07		 push	 7
  0018b	6a 01		 push	 1
  0018d	51		 push	 ecx
  0018e	f3 0f 10 05 00
	00 00 00	 movss	 xmm0, DWORD PTR __real@3e800000
  00196	f3 0f 11 04 24	 movss	 DWORD PTR [esp], xmm0
  0019b	6a 64		 push	 100			; 00000064H
  0019d	68 00 01 00 00	 push	 256			; 00000100H
  001a2	6a 02		 push	 2
  001a4	6a 02		 push	 2
  001a6	68 9d 04 00 00	 push	 1181			; 0000049dH
  001ab	e8 00 00 00 00	 call	 ?set_fixed_3d_object_database_item@@YGXHHHHHMW4TARGET_TYPES@@W4TARGET_SYMBOL_TYPES@@@Z ; set_fixed_3d_object_database_item

; 771  : 
; 772  : 	set_fixed_3d_object_database_item (OBJECT_3D_THAI_INDUSTRY_FC_TANKGROUP001_10M_2X2, EXPLOSIVE_QUALITY_EXPLOSIVE, EXPLOSIVE_POWER_MEDIUM, WARHEAD_EFFECTIVE_STONE_BUILDING, 100, IMPORTANCE_LOW, TARGET_TYPE_GROUND, TARGET_SYMBOL_STRUCTURE);

  001b0	6a 07		 push	 7
  001b2	6a 01		 push	 1
  001b4	51		 push	 ecx
  001b5	f3 0f 10 05 00
	00 00 00	 movss	 xmm0, DWORD PTR __real@3e800000
  001bd	f3 0f 11 04 24	 movss	 DWORD PTR [esp], xmm0
  001c2	6a 64		 push	 100			; 00000064H
  001c4	68 00 01 00 00	 push	 256			; 00000100H
  001c9	6a 02		 push	 2
  001cb	6a 02		 push	 2
  001cd	68 68 04 00 00	 push	 1128			; 00000468H
  001d2	e8 00 00 00 00	 call	 ?set_fixed_3d_object_database_item@@YGXHHHHHMW4TARGET_TYPES@@W4TARGET_SYMBOL_TYPES@@@Z ; set_fixed_3d_object_database_item

; 773  : 	set_fixed_3d_object_database_item (OBJECT_3D_THAI_INDUSTRY_FC_TANKGROUP002_10M_4X4, EXPLOSIVE_QUALITY_EXPLOSIVE, EXPLOSIVE_POWER_MEDIUM, WARHEAD_EFFECTIVE_STONE_BUILDING, 100, IMPORTANCE_LOW, TARGET_TYPE_GROUND, TARGET_SYMBOL_STRUCTURE);

  001d7	6a 07		 push	 7
  001d9	6a 01		 push	 1
  001db	51		 push	 ecx
  001dc	f3 0f 10 05 00
	00 00 00	 movss	 xmm0, DWORD PTR __real@3e800000
  001e4	f3 0f 11 04 24	 movss	 DWORD PTR [esp], xmm0
  001e9	6a 64		 push	 100			; 00000064H
  001eb	68 00 01 00 00	 push	 256			; 00000100H
  001f0	6a 02		 push	 2
  001f2	6a 02		 push	 2
  001f4	68 6a 04 00 00	 push	 1130			; 0000046aH
  001f9	e8 00 00 00 00	 call	 ?set_fixed_3d_object_database_item@@YGXHHHHHMW4TARGET_TYPES@@W4TARGET_SYMBOL_TYPES@@@Z ; set_fixed_3d_object_database_item

; 774  : 
; 775  : 	set_fixed_3d_object_database_item (OBJECT_3D_LEBANON_KEY_OIL_FC_CYLINDER01_10X10, EXPLOSIVE_QUALITY_EXPLOSIVE, EXPLOSIVE_POWER_MEDIUM, WARHEAD_EFFECTIVE_STONE_BUILDING, 100, IMPORTANCE_LOW, TARGET_TYPE_GROUND, TARGET_SYMBOL_STRUCTURE);

  001fe	6a 07		 push	 7
  00200	6a 01		 push	 1
  00202	51		 push	 ecx
  00203	f3 0f 10 05 00
	00 00 00	 movss	 xmm0, DWORD PTR __real@3e800000
  0020b	f3 0f 11 04 24	 movss	 DWORD PTR [esp], xmm0
  00210	6a 64		 push	 100			; 00000064H
  00212	68 00 01 00 00	 push	 256			; 00000100H
  00217	6a 02		 push	 2
  00219	6a 02		 push	 2
  0021b	68 30 06 00 00	 push	 1584			; 00000630H
  00220	e8 00 00 00 00	 call	 ?set_fixed_3d_object_database_item@@YGXHHHHHMW4TARGET_TYPES@@W4TARGET_SYMBOL_TYPES@@@Z ; set_fixed_3d_object_database_item

; 776  : 	set_fixed_3d_object_database_item (OBJECT_3D_LEBANON_KEY_OIL_FC_CYLINDER01_20X10, EXPLOSIVE_QUALITY_EXPLOSIVE, EXPLOSIVE_POWER_MEDIUM, WARHEAD_EFFECTIVE_STONE_BUILDING, 100, IMPORTANCE_LOW, TARGET_TYPE_GROUND, TARGET_SYMBOL_STRUCTURE);

  00225	6a 07		 push	 7
  00227	6a 01		 push	 1
  00229	51		 push	 ecx
  0022a	f3 0f 10 05 00
	00 00 00	 movss	 xmm0, DWORD PTR __real@3e800000
  00232	f3 0f 11 04 24	 movss	 DWORD PTR [esp], xmm0
  00237	6a 64		 push	 100			; 00000064H
  00239	68 00 01 00 00	 push	 256			; 00000100H
  0023e	6a 02		 push	 2
  00240	6a 02		 push	 2
  00242	68 32 06 00 00	 push	 1586			; 00000632H
  00247	e8 00 00 00 00	 call	 ?set_fixed_3d_object_database_item@@YGXHHHHHMW4TARGET_TYPES@@W4TARGET_SYMBOL_TYPES@@@Z ; set_fixed_3d_object_database_item

; 777  : 	set_fixed_3d_object_database_item (OBJECT_3D_LEBANON_KEY_OIL_FC_CYLINDER01_20X20, EXPLOSIVE_QUALITY_EXPLOSIVE, EXPLOSIVE_POWER_MEDIUM, WARHEAD_EFFECTIVE_STONE_BUILDING, 100, IMPORTANCE_LOW, TARGET_TYPE_GROUND, TARGET_SYMBOL_STRUCTURE);

  0024c	6a 07		 push	 7
  0024e	6a 01		 push	 1
  00250	51		 push	 ecx
  00251	f3 0f 10 05 00
	00 00 00	 movss	 xmm0, DWORD PTR __real@3e800000
  00259	f3 0f 11 04 24	 movss	 DWORD PTR [esp], xmm0
  0025e	6a 64		 push	 100			; 00000064H
  00260	68 00 01 00 00	 push	 256			; 00000100H
  00265	6a 02		 push	 2
  00267	6a 02		 push	 2
  00269	68 34 06 00 00	 push	 1588			; 00000634H
  0026e	e8 00 00 00 00	 call	 ?set_fixed_3d_object_database_item@@YGXHHHHHMW4TARGET_TYPES@@W4TARGET_SYMBOL_TYPES@@@Z ; set_fixed_3d_object_database_item

; 778  : 	set_fixed_3d_object_database_item (OBJECT_3D_LEBANON_KEY_OIL_FC_CYLINDER02_20X10, EXPLOSIVE_QUALITY_EXPLOSIVE, EXPLOSIVE_POWER_MEDIUM, WARHEAD_EFFECTIVE_STONE_BUILDING, 100, IMPORTANCE_LOW, TARGET_TYPE_GROUND, TARGET_SYMBOL_STRUCTURE);

  00273	6a 07		 push	 7
  00275	6a 01		 push	 1
  00277	51		 push	 ecx
  00278	f3 0f 10 05 00
	00 00 00	 movss	 xmm0, DWORD PTR __real@3e800000
  00280	f3 0f 11 04 24	 movss	 DWORD PTR [esp], xmm0
  00285	6a 64		 push	 100			; 00000064H
  00287	68 00 01 00 00	 push	 256			; 00000100H
  0028c	6a 02		 push	 2
  0028e	6a 02		 push	 2
  00290	68 36 06 00 00	 push	 1590			; 00000636H
  00295	e8 00 00 00 00	 call	 ?set_fixed_3d_object_database_item@@YGXHHHHHMW4TARGET_TYPES@@W4TARGET_SYMBOL_TYPES@@@Z ; set_fixed_3d_object_database_item

; 779  : 	set_fixed_3d_object_database_item (OBJECT_3D_LEBANON_KEY_OIL_FC_CYLINDER03_10X10, EXPLOSIVE_QUALITY_EXPLOSIVE, EXPLOSIVE_POWER_MEDIUM, WARHEAD_EFFECTIVE_STONE_BUILDING, 100, IMPORTANCE_LOW, TARGET_TYPE_GROUND, TARGET_SYMBOL_STRUCTURE);

  0029a	6a 07		 push	 7
  0029c	6a 01		 push	 1
  0029e	51		 push	 ecx
  0029f	f3 0f 10 05 00
	00 00 00	 movss	 xmm0, DWORD PTR __real@3e800000
  002a7	f3 0f 11 04 24	 movss	 DWORD PTR [esp], xmm0
  002ac	6a 64		 push	 100			; 00000064H
  002ae	68 00 01 00 00	 push	 256			; 00000100H
  002b3	6a 02		 push	 2
  002b5	6a 02		 push	 2
  002b7	68 38 06 00 00	 push	 1592			; 00000638H
  002bc	e8 00 00 00 00	 call	 ?set_fixed_3d_object_database_item@@YGXHHHHHMW4TARGET_TYPES@@W4TARGET_SYMBOL_TYPES@@@Z ; set_fixed_3d_object_database_item

; 780  : 	set_fixed_3d_object_database_item (OBJECT_3D_LEBANON_KEY_OIL_FC_CYLINDER03_20X10, EXPLOSIVE_QUALITY_EXPLOSIVE, EXPLOSIVE_POWER_MEDIUM, WARHEAD_EFFECTIVE_STONE_BUILDING, 100, IMPORTANCE_LOW, TARGET_TYPE_GROUND, TARGET_SYMBOL_STRUCTURE);

  002c1	6a 07		 push	 7
  002c3	6a 01		 push	 1
  002c5	51		 push	 ecx
  002c6	f3 0f 10 05 00
	00 00 00	 movss	 xmm0, DWORD PTR __real@3e800000
  002ce	f3 0f 11 04 24	 movss	 DWORD PTR [esp], xmm0
  002d3	6a 64		 push	 100			; 00000064H
  002d5	68 00 01 00 00	 push	 256			; 00000100H
  002da	6a 02		 push	 2
  002dc	6a 02		 push	 2
  002de	68 3a 06 00 00	 push	 1594			; 0000063aH
  002e3	e8 00 00 00 00	 call	 ?set_fixed_3d_object_database_item@@YGXHHHHHMW4TARGET_TYPES@@W4TARGET_SYMBOL_TYPES@@@Z ; set_fixed_3d_object_database_item

; 781  : 	set_fixed_3d_object_database_item (OBJECT_3D_LEBANON_KEY_OIL_FC_CYLINDER04_10X10, EXPLOSIVE_QUALITY_EXPLOSIVE, EXPLOSIVE_POWER_MEDIUM, WARHEAD_EFFECTIVE_STONE_BUILDING, 100, IMPORTANCE_LOW, TARGET_TYPE_GROUND, TARGET_SYMBOL_STRUCTURE);

  002e8	6a 07		 push	 7
  002ea	6a 01		 push	 1
  002ec	51		 push	 ecx
  002ed	f3 0f 10 05 00
	00 00 00	 movss	 xmm0, DWORD PTR __real@3e800000
  002f5	f3 0f 11 04 24	 movss	 DWORD PTR [esp], xmm0
  002fa	6a 64		 push	 100			; 00000064H
  002fc	68 00 01 00 00	 push	 256			; 00000100H
  00301	6a 02		 push	 2
  00303	6a 02		 push	 2
  00305	68 3c 06 00 00	 push	 1596			; 0000063cH
  0030a	e8 00 00 00 00	 call	 ?set_fixed_3d_object_database_item@@YGXHHHHHMW4TARGET_TYPES@@W4TARGET_SYMBOL_TYPES@@@Z ; set_fixed_3d_object_database_item

; 782  : 	set_fixed_3d_object_database_item (OBJECT_3D_LEBANON_KEY_OIL_FC_CYLINDER04_20X10, EXPLOSIVE_QUALITY_EXPLOSIVE, EXPLOSIVE_POWER_MEDIUM, WARHEAD_EFFECTIVE_STONE_BUILDING, 100, IMPORTANCE_LOW, TARGET_TYPE_GROUND, TARGET_SYMBOL_STRUCTURE);

  0030f	6a 07		 push	 7
  00311	6a 01		 push	 1
  00313	51		 push	 ecx
  00314	f3 0f 10 05 00
	00 00 00	 movss	 xmm0, DWORD PTR __real@3e800000
  0031c	f3 0f 11 04 24	 movss	 DWORD PTR [esp], xmm0
  00321	6a 64		 push	 100			; 00000064H
  00323	68 00 01 00 00	 push	 256			; 00000100H
  00328	6a 02		 push	 2
  0032a	6a 02		 push	 2
  0032c	68 3e 06 00 00	 push	 1598			; 0000063eH
  00331	e8 00 00 00 00	 call	 ?set_fixed_3d_object_database_item@@YGXHHHHHMW4TARGET_TYPES@@W4TARGET_SYMBOL_TYPES@@@Z ; set_fixed_3d_object_database_item

; 783  : 	set_fixed_3d_object_database_item (OBJECT_3D_LEBANON_KEY_OIL_FC_CYLINDER05_10X10, EXPLOSIVE_QUALITY_EXPLOSIVE, EXPLOSIVE_POWER_MEDIUM, WARHEAD_EFFECTIVE_STONE_BUILDING, 100, IMPORTANCE_LOW, TARGET_TYPE_GROUND, TARGET_SYMBOL_STRUCTURE);

  00336	6a 07		 push	 7
  00338	6a 01		 push	 1
  0033a	51		 push	 ecx
  0033b	f3 0f 10 05 00
	00 00 00	 movss	 xmm0, DWORD PTR __real@3e800000
  00343	f3 0f 11 04 24	 movss	 DWORD PTR [esp], xmm0
  00348	6a 64		 push	 100			; 00000064H
  0034a	68 00 01 00 00	 push	 256			; 00000100H
  0034f	6a 02		 push	 2
  00351	6a 02		 push	 2
  00353	68 40 06 00 00	 push	 1600			; 00000640H
  00358	e8 00 00 00 00	 call	 ?set_fixed_3d_object_database_item@@YGXHHHHHMW4TARGET_TYPES@@W4TARGET_SYMBOL_TYPES@@@Z ; set_fixed_3d_object_database_item

; 784  : 
; 785  : 	set_fixed_3d_object_database_item (OBJECT_3D_YEMEN_KEY_OIL_FC_CYLINDER01_10X10, EXPLOSIVE_QUALITY_EXPLOSIVE, EXPLOSIVE_POWER_MEDIUM, WARHEAD_EFFECTIVE_STONE_BUILDING, 100, IMPORTANCE_LOW, TARGET_TYPE_GROUND, TARGET_SYMBOL_STRUCTURE);

  0035d	6a 07		 push	 7
  0035f	6a 01		 push	 1
  00361	51		 push	 ecx
  00362	f3 0f 10 05 00
	00 00 00	 movss	 xmm0, DWORD PTR __real@3e800000
  0036a	f3 0f 11 04 24	 movss	 DWORD PTR [esp], xmm0
  0036f	6a 64		 push	 100			; 00000064H
  00371	68 00 01 00 00	 push	 256			; 00000100H
  00376	6a 02		 push	 2
  00378	6a 02		 push	 2
  0037a	68 2a 09 00 00	 push	 2346			; 0000092aH
  0037f	e8 00 00 00 00	 call	 ?set_fixed_3d_object_database_item@@YGXHHHHHMW4TARGET_TYPES@@W4TARGET_SYMBOL_TYPES@@@Z ; set_fixed_3d_object_database_item

; 786  : 	set_fixed_3d_object_database_item (OBJECT_3D_YEMEN_KEY_OIL_FC_CYLINDER01_20X10, EXPLOSIVE_QUALITY_EXPLOSIVE, EXPLOSIVE_POWER_MEDIUM, WARHEAD_EFFECTIVE_STONE_BUILDING, 100, IMPORTANCE_LOW, TARGET_TYPE_GROUND, TARGET_SYMBOL_STRUCTURE);

  00384	6a 07		 push	 7
  00386	6a 01		 push	 1
  00388	51		 push	 ecx
  00389	f3 0f 10 05 00
	00 00 00	 movss	 xmm0, DWORD PTR __real@3e800000
  00391	f3 0f 11 04 24	 movss	 DWORD PTR [esp], xmm0
  00396	6a 64		 push	 100			; 00000064H
  00398	68 00 01 00 00	 push	 256			; 00000100H
  0039d	6a 02		 push	 2
  0039f	6a 02		 push	 2
  003a1	68 2c 09 00 00	 push	 2348			; 0000092cH
  003a6	e8 00 00 00 00	 call	 ?set_fixed_3d_object_database_item@@YGXHHHHHMW4TARGET_TYPES@@W4TARGET_SYMBOL_TYPES@@@Z ; set_fixed_3d_object_database_item

; 787  : 	set_fixed_3d_object_database_item (OBJECT_3D_YEMEN_KEY_OIL_FC_CYLINDER01_20X20, EXPLOSIVE_QUALITY_EXPLOSIVE, EXPLOSIVE_POWER_MEDIUM, WARHEAD_EFFECTIVE_STONE_BUILDING, 100, IMPORTANCE_LOW, TARGET_TYPE_GROUND, TARGET_SYMBOL_STRUCTURE);

  003ab	6a 07		 push	 7
  003ad	6a 01		 push	 1
  003af	51		 push	 ecx
  003b0	f3 0f 10 05 00
	00 00 00	 movss	 xmm0, DWORD PTR __real@3e800000
  003b8	f3 0f 11 04 24	 movss	 DWORD PTR [esp], xmm0
  003bd	6a 64		 push	 100			; 00000064H
  003bf	68 00 01 00 00	 push	 256			; 00000100H
  003c4	6a 02		 push	 2
  003c6	6a 02		 push	 2
  003c8	68 2e 09 00 00	 push	 2350			; 0000092eH
  003cd	e8 00 00 00 00	 call	 ?set_fixed_3d_object_database_item@@YGXHHHHHMW4TARGET_TYPES@@W4TARGET_SYMBOL_TYPES@@@Z ; set_fixed_3d_object_database_item

; 788  : 	set_fixed_3d_object_database_item (OBJECT_3D_YEMEN_KEY_OIL_FC_CYLINDER02_20X10, EXPLOSIVE_QUALITY_EXPLOSIVE, EXPLOSIVE_POWER_MEDIUM, WARHEAD_EFFECTIVE_STONE_BUILDING, 100, IMPORTANCE_LOW, TARGET_TYPE_GROUND, TARGET_SYMBOL_STRUCTURE);

  003d2	6a 07		 push	 7
  003d4	6a 01		 push	 1
  003d6	51		 push	 ecx
  003d7	f3 0f 10 05 00
	00 00 00	 movss	 xmm0, DWORD PTR __real@3e800000
  003df	f3 0f 11 04 24	 movss	 DWORD PTR [esp], xmm0
  003e4	6a 64		 push	 100			; 00000064H
  003e6	68 00 01 00 00	 push	 256			; 00000100H
  003eb	6a 02		 push	 2
  003ed	6a 02		 push	 2
  003ef	68 30 09 00 00	 push	 2352			; 00000930H
  003f4	e8 00 00 00 00	 call	 ?set_fixed_3d_object_database_item@@YGXHHHHHMW4TARGET_TYPES@@W4TARGET_SYMBOL_TYPES@@@Z ; set_fixed_3d_object_database_item

; 789  : 	set_fixed_3d_object_database_item (OBJECT_3D_YEMEN_KEY_OIL_FC_CYLINDER03_10X10, EXPLOSIVE_QUALITY_EXPLOSIVE, EXPLOSIVE_POWER_MEDIUM, WARHEAD_EFFECTIVE_STONE_BUILDING, 100, IMPORTANCE_LOW, TARGET_TYPE_GROUND, TARGET_SYMBOL_STRUCTURE);

  003f9	6a 07		 push	 7
  003fb	6a 01		 push	 1
  003fd	51		 push	 ecx
  003fe	f3 0f 10 05 00
	00 00 00	 movss	 xmm0, DWORD PTR __real@3e800000
  00406	f3 0f 11 04 24	 movss	 DWORD PTR [esp], xmm0
  0040b	6a 64		 push	 100			; 00000064H
  0040d	68 00 01 00 00	 push	 256			; 00000100H
  00412	6a 02		 push	 2
  00414	6a 02		 push	 2
  00416	68 32 09 00 00	 push	 2354			; 00000932H
  0041b	e8 00 00 00 00	 call	 ?set_fixed_3d_object_database_item@@YGXHHHHHMW4TARGET_TYPES@@W4TARGET_SYMBOL_TYPES@@@Z ; set_fixed_3d_object_database_item

; 790  : 	set_fixed_3d_object_database_item (OBJECT_3D_YEMEN_KEY_OIL_FC_CYLINDER03_20X10, EXPLOSIVE_QUALITY_EXPLOSIVE, EXPLOSIVE_POWER_MEDIUM, WARHEAD_EFFECTIVE_STONE_BUILDING, 100, IMPORTANCE_LOW, TARGET_TYPE_GROUND, TARGET_SYMBOL_STRUCTURE);

  00420	6a 07		 push	 7
  00422	6a 01		 push	 1
  00424	51		 push	 ecx
  00425	f3 0f 10 05 00
	00 00 00	 movss	 xmm0, DWORD PTR __real@3e800000
  0042d	f3 0f 11 04 24	 movss	 DWORD PTR [esp], xmm0
  00432	6a 64		 push	 100			; 00000064H
  00434	68 00 01 00 00	 push	 256			; 00000100H
  00439	6a 02		 push	 2
  0043b	6a 02		 push	 2
  0043d	68 34 09 00 00	 push	 2356			; 00000934H
  00442	e8 00 00 00 00	 call	 ?set_fixed_3d_object_database_item@@YGXHHHHHMW4TARGET_TYPES@@W4TARGET_SYMBOL_TYPES@@@Z ; set_fixed_3d_object_database_item

; 791  : 	set_fixed_3d_object_database_item (OBJECT_3D_YEMEN_KEY_OIL_FC_CYLINDER04_10X10, EXPLOSIVE_QUALITY_EXPLOSIVE, EXPLOSIVE_POWER_MEDIUM, WARHEAD_EFFECTIVE_STONE_BUILDING, 100, IMPORTANCE_LOW, TARGET_TYPE_GROUND, TARGET_SYMBOL_STRUCTURE);

  00447	6a 07		 push	 7
  00449	6a 01		 push	 1
  0044b	51		 push	 ecx
  0044c	f3 0f 10 05 00
	00 00 00	 movss	 xmm0, DWORD PTR __real@3e800000
  00454	f3 0f 11 04 24	 movss	 DWORD PTR [esp], xmm0
  00459	6a 64		 push	 100			; 00000064H
  0045b	68 00 01 00 00	 push	 256			; 00000100H
  00460	6a 02		 push	 2
  00462	6a 02		 push	 2
  00464	68 36 09 00 00	 push	 2358			; 00000936H
  00469	e8 00 00 00 00	 call	 ?set_fixed_3d_object_database_item@@YGXHHHHHMW4TARGET_TYPES@@W4TARGET_SYMBOL_TYPES@@@Z ; set_fixed_3d_object_database_item

; 792  : 	set_fixed_3d_object_database_item (OBJECT_3D_YEMEN_KEY_OIL_FC_CYLINDER04_20X10, EXPLOSIVE_QUALITY_EXPLOSIVE, EXPLOSIVE_POWER_MEDIUM, WARHEAD_EFFECTIVE_STONE_BUILDING, 100, IMPORTANCE_LOW, TARGET_TYPE_GROUND, TARGET_SYMBOL_STRUCTURE);

  0046e	6a 07		 push	 7
  00470	6a 01		 push	 1
  00472	51		 push	 ecx
  00473	f3 0f 10 05 00
	00 00 00	 movss	 xmm0, DWORD PTR __real@3e800000
  0047b	f3 0f 11 04 24	 movss	 DWORD PTR [esp], xmm0
  00480	6a 64		 push	 100			; 00000064H
  00482	68 00 01 00 00	 push	 256			; 00000100H
  00487	6a 02		 push	 2
  00489	6a 02		 push	 2
  0048b	68 38 09 00 00	 push	 2360			; 00000938H
  00490	e8 00 00 00 00	 call	 ?set_fixed_3d_object_database_item@@YGXHHHHHMW4TARGET_TYPES@@W4TARGET_SYMBOL_TYPES@@@Z ; set_fixed_3d_object_database_item

; 793  : 	set_fixed_3d_object_database_item (OBJECT_3D_YEMEN_KEY_OIL_FC_CYLINDER05_10X10, EXPLOSIVE_QUALITY_EXPLOSIVE, EXPLOSIVE_POWER_MEDIUM, WARHEAD_EFFECTIVE_STONE_BUILDING, 100, IMPORTANCE_LOW, TARGET_TYPE_GROUND, TARGET_SYMBOL_STRUCTURE);

  00495	6a 07		 push	 7
  00497	6a 01		 push	 1
  00499	51		 push	 ecx
  0049a	f3 0f 10 05 00
	00 00 00	 movss	 xmm0, DWORD PTR __real@3e800000
  004a2	f3 0f 11 04 24	 movss	 DWORD PTR [esp], xmm0
  004a7	6a 64		 push	 100			; 00000064H
  004a9	68 00 01 00 00	 push	 256			; 00000100H
  004ae	6a 02		 push	 2
  004b0	6a 02		 push	 2
  004b2	68 3a 09 00 00	 push	 2362			; 0000093aH
  004b7	e8 00 00 00 00	 call	 ?set_fixed_3d_object_database_item@@YGXHHHHHMW4TARGET_TYPES@@W4TARGET_SYMBOL_TYPES@@@Z ; set_fixed_3d_object_database_item

; 794  : 
; 795  : 	set_fixed_3d_object_database_item (OBJECT_3D_TAIWAN_KEY_OIL_FC_CYLINDER01_10X10, EXPLOSIVE_QUALITY_EXPLOSIVE, EXPLOSIVE_POWER_MEDIUM, WARHEAD_EFFECTIVE_STONE_BUILDING, 100, IMPORTANCE_LOW, TARGET_TYPE_GROUND, TARGET_SYMBOL_STRUCTURE);

  004bc	6a 07		 push	 7
  004be	6a 01		 push	 1
  004c0	51		 push	 ecx
  004c1	f3 0f 10 05 00
	00 00 00	 movss	 xmm0, DWORD PTR __real@3e800000
  004c9	f3 0f 11 04 24	 movss	 DWORD PTR [esp], xmm0
  004ce	6a 64		 push	 100			; 00000064H
  004d0	68 00 01 00 00	 push	 256			; 00000100H
  004d5	6a 02		 push	 2
  004d7	6a 02		 push	 2
  004d9	68 1e 08 00 00	 push	 2078			; 0000081eH
  004de	e8 00 00 00 00	 call	 ?set_fixed_3d_object_database_item@@YGXHHHHHMW4TARGET_TYPES@@W4TARGET_SYMBOL_TYPES@@@Z ; set_fixed_3d_object_database_item

; 796  : 	set_fixed_3d_object_database_item (OBJECT_3D_TAIWAN_KEY_OIL_FC_CYLINDER01_20X10, EXPLOSIVE_QUALITY_EXPLOSIVE, EXPLOSIVE_POWER_MEDIUM, WARHEAD_EFFECTIVE_STONE_BUILDING, 100, IMPORTANCE_LOW, TARGET_TYPE_GROUND, TARGET_SYMBOL_STRUCTURE);

  004e3	6a 07		 push	 7
  004e5	6a 01		 push	 1
  004e7	51		 push	 ecx
  004e8	f3 0f 10 05 00
	00 00 00	 movss	 xmm0, DWORD PTR __real@3e800000
  004f0	f3 0f 11 04 24	 movss	 DWORD PTR [esp], xmm0
  004f5	6a 64		 push	 100			; 00000064H
  004f7	68 00 01 00 00	 push	 256			; 00000100H
  004fc	6a 02		 push	 2
  004fe	6a 02		 push	 2
  00500	68 20 08 00 00	 push	 2080			; 00000820H
  00505	e8 00 00 00 00	 call	 ?set_fixed_3d_object_database_item@@YGXHHHHHMW4TARGET_TYPES@@W4TARGET_SYMBOL_TYPES@@@Z ; set_fixed_3d_object_database_item

; 797  : 	set_fixed_3d_object_database_item (OBJECT_3D_TAIWAN_KEY_OIL_FC_CYLINDER01_20X20, EXPLOSIVE_QUALITY_EXPLOSIVE, EXPLOSIVE_POWER_MEDIUM, WARHEAD_EFFECTIVE_STONE_BUILDING, 100, IMPORTANCE_LOW, TARGET_TYPE_GROUND, TARGET_SYMBOL_STRUCTURE);

  0050a	6a 07		 push	 7
  0050c	6a 01		 push	 1
  0050e	51		 push	 ecx
  0050f	f3 0f 10 05 00
	00 00 00	 movss	 xmm0, DWORD PTR __real@3e800000
  00517	f3 0f 11 04 24	 movss	 DWORD PTR [esp], xmm0
  0051c	6a 64		 push	 100			; 00000064H
  0051e	68 00 01 00 00	 push	 256			; 00000100H
  00523	6a 02		 push	 2
  00525	6a 02		 push	 2
  00527	68 22 08 00 00	 push	 2082			; 00000822H
  0052c	e8 00 00 00 00	 call	 ?set_fixed_3d_object_database_item@@YGXHHHHHMW4TARGET_TYPES@@W4TARGET_SYMBOL_TYPES@@@Z ; set_fixed_3d_object_database_item

; 798  : 	set_fixed_3d_object_database_item (OBJECT_3D_TAIWAN_KEY_OIL_FC_CYLINDER02_20X10, EXPLOSIVE_QUALITY_EXPLOSIVE, EXPLOSIVE_POWER_MEDIUM, WARHEAD_EFFECTIVE_STONE_BUILDING, 100, IMPORTANCE_LOW, TARGET_TYPE_GROUND, TARGET_SYMBOL_STRUCTURE);

  00531	6a 07		 push	 7
  00533	6a 01		 push	 1
  00535	51		 push	 ecx
  00536	f3 0f 10 05 00
	00 00 00	 movss	 xmm0, DWORD PTR __real@3e800000
  0053e	f3 0f 11 04 24	 movss	 DWORD PTR [esp], xmm0
  00543	6a 64		 push	 100			; 00000064H
  00545	68 00 01 00 00	 push	 256			; 00000100H
  0054a	6a 02		 push	 2
  0054c	6a 02		 push	 2
  0054e	68 24 08 00 00	 push	 2084			; 00000824H
  00553	e8 00 00 00 00	 call	 ?set_fixed_3d_object_database_item@@YGXHHHHHMW4TARGET_TYPES@@W4TARGET_SYMBOL_TYPES@@@Z ; set_fixed_3d_object_database_item

; 799  : 	set_fixed_3d_object_database_item (OBJECT_3D_TAIWAN_KEY_OIL_FC_CYLINDER03_10X10, EXPLOSIVE_QUALITY_EXPLOSIVE, EXPLOSIVE_POWER_MEDIUM, WARHEAD_EFFECTIVE_STONE_BUILDING, 100, IMPORTANCE_LOW, TARGET_TYPE_GROUND, TARGET_SYMBOL_STRUCTURE);

  00558	6a 07		 push	 7
  0055a	6a 01		 push	 1
  0055c	51		 push	 ecx
  0055d	f3 0f 10 05 00
	00 00 00	 movss	 xmm0, DWORD PTR __real@3e800000
  00565	f3 0f 11 04 24	 movss	 DWORD PTR [esp], xmm0
  0056a	6a 64		 push	 100			; 00000064H
  0056c	68 00 01 00 00	 push	 256			; 00000100H
  00571	6a 02		 push	 2
  00573	6a 02		 push	 2
  00575	68 26 08 00 00	 push	 2086			; 00000826H
  0057a	e8 00 00 00 00	 call	 ?set_fixed_3d_object_database_item@@YGXHHHHHMW4TARGET_TYPES@@W4TARGET_SYMBOL_TYPES@@@Z ; set_fixed_3d_object_database_item

; 800  : 	set_fixed_3d_object_database_item (OBJECT_3D_TAIWAN_KEY_OIL_FC_CYLINDER03_20X10, EXPLOSIVE_QUALITY_EXPLOSIVE, EXPLOSIVE_POWER_MEDIUM, WARHEAD_EFFECTIVE_STONE_BUILDING, 100, IMPORTANCE_LOW, TARGET_TYPE_GROUND, TARGET_SYMBOL_STRUCTURE);

  0057f	6a 07		 push	 7
  00581	6a 01		 push	 1
  00583	51		 push	 ecx
  00584	f3 0f 10 05 00
	00 00 00	 movss	 xmm0, DWORD PTR __real@3e800000
  0058c	f3 0f 11 04 24	 movss	 DWORD PTR [esp], xmm0
  00591	6a 64		 push	 100			; 00000064H
  00593	68 00 01 00 00	 push	 256			; 00000100H
  00598	6a 02		 push	 2
  0059a	6a 02		 push	 2
  0059c	68 28 08 00 00	 push	 2088			; 00000828H
  005a1	e8 00 00 00 00	 call	 ?set_fixed_3d_object_database_item@@YGXHHHHHMW4TARGET_TYPES@@W4TARGET_SYMBOL_TYPES@@@Z ; set_fixed_3d_object_database_item

; 801  : 	set_fixed_3d_object_database_item (OBJECT_3D_TAIWAN_KEY_OIL_FC_CYLINDER04_10X10, EXPLOSIVE_QUALITY_EXPLOSIVE, EXPLOSIVE_POWER_MEDIUM, WARHEAD_EFFECTIVE_STONE_BUILDING, 100, IMPORTANCE_LOW, TARGET_TYPE_GROUND, TARGET_SYMBOL_STRUCTURE);

  005a6	6a 07		 push	 7
  005a8	6a 01		 push	 1
  005aa	51		 push	 ecx
  005ab	f3 0f 10 05 00
	00 00 00	 movss	 xmm0, DWORD PTR __real@3e800000
  005b3	f3 0f 11 04 24	 movss	 DWORD PTR [esp], xmm0
  005b8	6a 64		 push	 100			; 00000064H
  005ba	68 00 01 00 00	 push	 256			; 00000100H
  005bf	6a 02		 push	 2
  005c1	6a 02		 push	 2
  005c3	68 2a 08 00 00	 push	 2090			; 0000082aH
  005c8	e8 00 00 00 00	 call	 ?set_fixed_3d_object_database_item@@YGXHHHHHMW4TARGET_TYPES@@W4TARGET_SYMBOL_TYPES@@@Z ; set_fixed_3d_object_database_item

; 802  : 	set_fixed_3d_object_database_item (OBJECT_3D_TAIWAN_KEY_OIL_FC_CYLINDER04_20X10, EXPLOSIVE_QUALITY_EXPLOSIVE, EXPLOSIVE_POWER_MEDIUM, WARHEAD_EFFECTIVE_STONE_BUILDING, 100, IMPORTANCE_LOW, TARGET_TYPE_GROUND, TARGET_SYMBOL_STRUCTURE);

  005cd	6a 07		 push	 7
  005cf	6a 01		 push	 1
  005d1	51		 push	 ecx
  005d2	f3 0f 10 05 00
	00 00 00	 movss	 xmm0, DWORD PTR __real@3e800000
  005da	f3 0f 11 04 24	 movss	 DWORD PTR [esp], xmm0
  005df	6a 64		 push	 100			; 00000064H
  005e1	68 00 01 00 00	 push	 256			; 00000100H
  005e6	6a 02		 push	 2
  005e8	6a 02		 push	 2
  005ea	68 2c 08 00 00	 push	 2092			; 0000082cH
  005ef	e8 00 00 00 00	 call	 ?set_fixed_3d_object_database_item@@YGXHHHHHMW4TARGET_TYPES@@W4TARGET_SYMBOL_TYPES@@@Z ; set_fixed_3d_object_database_item

; 803  : 	set_fixed_3d_object_database_item (OBJECT_3D_TAIWAN_KEY_OIL_FC_CYLINDER05_10X10, EXPLOSIVE_QUALITY_EXPLOSIVE, EXPLOSIVE_POWER_MEDIUM, WARHEAD_EFFECTIVE_STONE_BUILDING, 100, IMPORTANCE_LOW, TARGET_TYPE_GROUND, TARGET_SYMBOL_STRUCTURE);

  005f4	6a 07		 push	 7
  005f6	6a 01		 push	 1
  005f8	51		 push	 ecx
  005f9	f3 0f 10 05 00
	00 00 00	 movss	 xmm0, DWORD PTR __real@3e800000
  00601	f3 0f 11 04 24	 movss	 DWORD PTR [esp], xmm0
  00606	6a 64		 push	 100			; 00000064H
  00608	68 00 01 00 00	 push	 256			; 00000100H
  0060d	6a 02		 push	 2
  0060f	6a 02		 push	 2
  00611	68 2e 08 00 00	 push	 2094			; 0000082eH
  00616	e8 00 00 00 00	 call	 ?set_fixed_3d_object_database_item@@YGXHHHHHMW4TARGET_TYPES@@W4TARGET_SYMBOL_TYPES@@@Z ; set_fixed_3d_object_database_item

; 804  : 
; 805  : 	// INVALID TARGETS
; 806  : 
; 807  : 	set_fixed_3d_object_database_item (OBJECT_3D_OIL_FR_CYLINDER01_10X10, EXPLOSIVE_QUALITY_EXPLOSIVE, EXPLOSIVE_POWER_MEDIUM, WARHEAD_EFFECTIVE_STONE_BUILDING, 100, 0.0, TARGET_TYPE_INVALID, TARGET_SYMBOL_UNKNOWN);

  0061b	6a 00		 push	 0
  0061d	6a 00		 push	 0
  0061f	51		 push	 ecx
  00620	0f 57 c0	 xorps	 xmm0, xmm0
  00623	f3 0f 11 04 24	 movss	 DWORD PTR [esp], xmm0
  00628	6a 64		 push	 100			; 00000064H
  0062a	68 00 01 00 00	 push	 256			; 00000100H
  0062f	6a 02		 push	 2
  00631	6a 02		 push	 2
  00633	68 8d 04 00 00	 push	 1165			; 0000048dH
  00638	e8 00 00 00 00	 call	 ?set_fixed_3d_object_database_item@@YGXHHHHHMW4TARGET_TYPES@@W4TARGET_SYMBOL_TYPES@@@Z ; set_fixed_3d_object_database_item

; 808  : 	set_fixed_3d_object_database_item (OBJECT_3D_OIL_FC_PIPELINE_OVERHEAD_CORNER, EXPLOSIVE_QUALITY_EXPLOSIVE, EXPLOSIVE_POWER_MEDIUM, WARHEAD_EFFECTIVE_STONE_BUILDING, 100, 0.0, TARGET_TYPE_INVALID, TARGET_SYMBOL_UNKNOWN);

  0063d	6a 00		 push	 0
  0063f	6a 00		 push	 0
  00641	51		 push	 ecx
  00642	0f 57 c0	 xorps	 xmm0, xmm0
  00645	f3 0f 11 04 24	 movss	 DWORD PTR [esp], xmm0
  0064a	6a 64		 push	 100			; 00000064H
  0064c	68 00 01 00 00	 push	 256			; 00000100H
  00651	6a 02		 push	 2
  00653	6a 02		 push	 2
  00655	68 9f 04 00 00	 push	 1183			; 0000049fH
  0065a	e8 00 00 00 00	 call	 ?set_fixed_3d_object_database_item@@YGXHHHHHMW4TARGET_TYPES@@W4TARGET_SYMBOL_TYPES@@@Z ; set_fixed_3d_object_database_item

; 809  : 	set_fixed_3d_object_database_item (OBJECT_3D_OIL_FC_PIPELINE_OVERHEAD_END, EXPLOSIVE_QUALITY_EXPLOSIVE, EXPLOSIVE_POWER_MEDIUM, WARHEAD_EFFECTIVE_STONE_BUILDING, 100, 0.0, TARGET_TYPE_INVALID, TARGET_SYMBOL_UNKNOWN);

  0065f	6a 00		 push	 0
  00661	6a 00		 push	 0
  00663	51		 push	 ecx
  00664	0f 57 c0	 xorps	 xmm0, xmm0
  00667	f3 0f 11 04 24	 movss	 DWORD PTR [esp], xmm0
  0066c	6a 64		 push	 100			; 00000064H
  0066e	68 00 01 00 00	 push	 256			; 00000100H
  00673	6a 02		 push	 2
  00675	6a 02		 push	 2
  00677	68 a1 04 00 00	 push	 1185			; 000004a1H
  0067c	e8 00 00 00 00	 call	 ?set_fixed_3d_object_database_item@@YGXHHHHHMW4TARGET_TYPES@@W4TARGET_SYMBOL_TYPES@@@Z ; set_fixed_3d_object_database_item

; 810  : 	set_fixed_3d_object_database_item (OBJECT_3D_OIL_FC_PIPELINE_OVERHEAD_MID01, EXPLOSIVE_QUALITY_EXPLOSIVE, EXPLOSIVE_POWER_MEDIUM, WARHEAD_EFFECTIVE_STONE_BUILDING, 100, 0.0, TARGET_TYPE_INVALID, TARGET_SYMBOL_UNKNOWN);

  00681	6a 00		 push	 0
  00683	6a 00		 push	 0
  00685	51		 push	 ecx
  00686	0f 57 c0	 xorps	 xmm0, xmm0
  00689	f3 0f 11 04 24	 movss	 DWORD PTR [esp], xmm0
  0068e	6a 64		 push	 100			; 00000064H
  00690	68 00 01 00 00	 push	 256			; 00000100H
  00695	6a 02		 push	 2
  00697	6a 02		 push	 2
  00699	68 a3 04 00 00	 push	 1187			; 000004a3H
  0069e	e8 00 00 00 00	 call	 ?set_fixed_3d_object_database_item@@YGXHHHHHMW4TARGET_TYPES@@W4TARGET_SYMBOL_TYPES@@@Z ; set_fixed_3d_object_database_item

; 811  : 	set_fixed_3d_object_database_item (OBJECT_3D_OIL_FC_PIPELINE_OVERHEAD_MID02, EXPLOSIVE_QUALITY_EXPLOSIVE, EXPLOSIVE_POWER_MEDIUM, WARHEAD_EFFECTIVE_STONE_BUILDING, 100, 0.0, TARGET_TYPE_INVALID, TARGET_SYMBOL_UNKNOWN);

  006a3	6a 00		 push	 0
  006a5	6a 00		 push	 0
  006a7	51		 push	 ecx
  006a8	0f 57 c0	 xorps	 xmm0, xmm0
  006ab	f3 0f 11 04 24	 movss	 DWORD PTR [esp], xmm0
  006b0	6a 64		 push	 100			; 00000064H
  006b2	68 00 01 00 00	 push	 256			; 00000100H
  006b7	6a 02		 push	 2
  006b9	6a 02		 push	 2
  006bb	68 a5 04 00 00	 push	 1189			; 000004a5H
  006c0	e8 00 00 00 00	 call	 ?set_fixed_3d_object_database_item@@YGXHHHHHMW4TARGET_TYPES@@W4TARGET_SYMBOL_TYPES@@@Z ; set_fixed_3d_object_database_item

; 812  : 	set_fixed_3d_object_database_item (OBJECT_3D_OIL_FC_PIPELINE_OVERHEAD_T, EXPLOSIVE_QUALITY_EXPLOSIVE, EXPLOSIVE_POWER_MEDIUM, WARHEAD_EFFECTIVE_STONE_BUILDING, 100, 0.0, TARGET_TYPE_INVALID, TARGET_SYMBOL_UNKNOWN);

  006c5	6a 00		 push	 0
  006c7	6a 00		 push	 0
  006c9	51		 push	 ecx
  006ca	0f 57 c0	 xorps	 xmm0, xmm0
  006cd	f3 0f 11 04 24	 movss	 DWORD PTR [esp], xmm0
  006d2	6a 64		 push	 100			; 00000064H
  006d4	68 00 01 00 00	 push	 256			; 00000100H
  006d9	6a 02		 push	 2
  006db	6a 02		 push	 2
  006dd	68 a7 04 00 00	 push	 1191			; 000004a7H
  006e2	e8 00 00 00 00	 call	 ?set_fixed_3d_object_database_item@@YGXHHHHHMW4TARGET_TYPES@@W4TARGET_SYMBOL_TYPES@@@Z ; set_fixed_3d_object_database_item

; 813  : 	set_fixed_3d_object_database_item (OBJECT_3D_OIL_FC_PIPES_CROSS01, EXPLOSIVE_QUALITY_EXPLOSIVE, EXPLOSIVE_POWER_MEDIUM, WARHEAD_EFFECTIVE_STONE_BUILDING, 100, 0.0, TARGET_TYPE_INVALID, TARGET_SYMBOL_UNKNOWN);

  006e7	6a 00		 push	 0
  006e9	6a 00		 push	 0
  006eb	51		 push	 ecx
  006ec	0f 57 c0	 xorps	 xmm0, xmm0
  006ef	f3 0f 11 04 24	 movss	 DWORD PTR [esp], xmm0
  006f4	6a 64		 push	 100			; 00000064H
  006f6	68 00 01 00 00	 push	 256			; 00000100H
  006fb	6a 02		 push	 2
  006fd	6a 02		 push	 2
  006ff	68 ab 04 00 00	 push	 1195			; 000004abH
  00704	e8 00 00 00 00	 call	 ?set_fixed_3d_object_database_item@@YGXHHHHHMW4TARGET_TYPES@@W4TARGET_SYMBOL_TYPES@@@Z ; set_fixed_3d_object_database_item

; 814  : 	set_fixed_3d_object_database_item (OBJECT_3D_OIL_FC_PIPES_END, EXPLOSIVE_QUALITY_EXPLOSIVE, EXPLOSIVE_POWER_MEDIUM, WARHEAD_EFFECTIVE_STONE_BUILDING, 100, 0.0, TARGET_TYPE_INVALID, TARGET_SYMBOL_UNKNOWN);

  00709	6a 00		 push	 0
  0070b	6a 00		 push	 0
  0070d	51		 push	 ecx
  0070e	0f 57 c0	 xorps	 xmm0, xmm0
  00711	f3 0f 11 04 24	 movss	 DWORD PTR [esp], xmm0
  00716	6a 64		 push	 100			; 00000064H
  00718	68 00 01 00 00	 push	 256			; 00000100H
  0071d	6a 02		 push	 2
  0071f	6a 02		 push	 2
  00721	68 ad 04 00 00	 push	 1197			; 000004adH
  00726	e8 00 00 00 00	 call	 ?set_fixed_3d_object_database_item@@YGXHHHHHMW4TARGET_TYPES@@W4TARGET_SYMBOL_TYPES@@@Z ; set_fixed_3d_object_database_item

; 815  : 	set_fixed_3d_object_database_item (OBJECT_3D_OIL_FC_PIPES_MID01, EXPLOSIVE_QUALITY_EXPLOSIVE, EXPLOSIVE_POWER_MEDIUM, WARHEAD_EFFECTIVE_STONE_BUILDING, 100, 0.0, TARGET_TYPE_INVALID, TARGET_SYMBOL_UNKNOWN);

  0072b	6a 00		 push	 0
  0072d	6a 00		 push	 0
  0072f	51		 push	 ecx
  00730	0f 57 c0	 xorps	 xmm0, xmm0
  00733	f3 0f 11 04 24	 movss	 DWORD PTR [esp], xmm0
  00738	6a 64		 push	 100			; 00000064H
  0073a	68 00 01 00 00	 push	 256			; 00000100H
  0073f	6a 02		 push	 2
  00741	6a 02		 push	 2
  00743	68 af 04 00 00	 push	 1199			; 000004afH
  00748	e8 00 00 00 00	 call	 ?set_fixed_3d_object_database_item@@YGXHHHHHMW4TARGET_TYPES@@W4TARGET_SYMBOL_TYPES@@@Z ; set_fixed_3d_object_database_item

; 816  : 	set_fixed_3d_object_database_item (OBJECT_3D_OIL_FC_PIPES_T, EXPLOSIVE_QUALITY_EXPLOSIVE, EXPLOSIVE_POWER_MEDIUM, WARHEAD_EFFECTIVE_STONE_BUILDING, 100, 0.0, TARGET_TYPE_INVALID, TARGET_SYMBOL_UNKNOWN);

  0074d	6a 00		 push	 0
  0074f	6a 00		 push	 0
  00751	51		 push	 ecx
  00752	0f 57 c0	 xorps	 xmm0, xmm0
  00755	f3 0f 11 04 24	 movss	 DWORD PTR [esp], xmm0
  0075a	6a 64		 push	 100			; 00000064H
  0075c	68 00 01 00 00	 push	 256			; 00000100H
  00761	6a 02		 push	 2
  00763	6a 02		 push	 2
  00765	68 b3 04 00 00	 push	 1203			; 000004b3H
  0076a	e8 00 00 00 00	 call	 ?set_fixed_3d_object_database_item@@YGXHHHHHMW4TARGET_TYPES@@W4TARGET_SYMBOL_TYPES@@@Z ; set_fixed_3d_object_database_item

; 817  : 	set_fixed_3d_object_database_item (OBJECT_3D_OIL_FC_PIPE_ANGLED_UP_BOTTOM_END, EXPLOSIVE_QUALITY_EXPLOSIVE, EXPLOSIVE_POWER_MEDIUM, WARHEAD_EFFECTIVE_STONE_BUILDING, 100, 0.0, TARGET_TYPE_INVALID, TARGET_SYMBOL_UNKNOWN);

  0076f	6a 00		 push	 0
  00771	6a 00		 push	 0
  00773	51		 push	 ecx
  00774	0f 57 c0	 xorps	 xmm0, xmm0
  00777	f3 0f 11 04 24	 movss	 DWORD PTR [esp], xmm0
  0077c	6a 64		 push	 100			; 00000064H
  0077e	68 00 01 00 00	 push	 256			; 00000100H
  00783	6a 02		 push	 2
  00785	6a 02		 push	 2
  00787	68 b5 04 00 00	 push	 1205			; 000004b5H
  0078c	e8 00 00 00 00	 call	 ?set_fixed_3d_object_database_item@@YGXHHHHHMW4TARGET_TYPES@@W4TARGET_SYMBOL_TYPES@@@Z ; set_fixed_3d_object_database_item

; 818  : 	set_fixed_3d_object_database_item (OBJECT_3D_OIL_FC_PIPE_ANGLED_UP_MID, EXPLOSIVE_QUALITY_EXPLOSIVE, EXPLOSIVE_POWER_MEDIUM, WARHEAD_EFFECTIVE_STONE_BUILDING, 100, 0.0, TARGET_TYPE_INVALID, TARGET_SYMBOL_UNKNOWN);

  00791	6a 00		 push	 0
  00793	6a 00		 push	 0
  00795	51		 push	 ecx
  00796	0f 57 c0	 xorps	 xmm0, xmm0
  00799	f3 0f 11 04 24	 movss	 DWORD PTR [esp], xmm0
  0079e	6a 64		 push	 100			; 00000064H
  007a0	68 00 01 00 00	 push	 256			; 00000100H
  007a5	6a 02		 push	 2
  007a7	6a 02		 push	 2
  007a9	68 b7 04 00 00	 push	 1207			; 000004b7H
  007ae	e8 00 00 00 00	 call	 ?set_fixed_3d_object_database_item@@YGXHHHHHMW4TARGET_TYPES@@W4TARGET_SYMBOL_TYPES@@@Z ; set_fixed_3d_object_database_item

; 819  : 	set_fixed_3d_object_database_item (OBJECT_3D_OIL_FC_PIPE_ANGLED_UP_TOP_END, EXPLOSIVE_QUALITY_EXPLOSIVE, EXPLOSIVE_POWER_MEDIUM, WARHEAD_EFFECTIVE_STONE_BUILDING, 100, 0.0, TARGET_TYPE_INVALID, TARGET_SYMBOL_UNKNOWN);

  007b3	6a 00		 push	 0
  007b5	6a 00		 push	 0
  007b7	51		 push	 ecx
  007b8	0f 57 c0	 xorps	 xmm0, xmm0
  007bb	f3 0f 11 04 24	 movss	 DWORD PTR [esp], xmm0
  007c0	6a 64		 push	 100			; 00000064H
  007c2	68 00 01 00 00	 push	 256			; 00000100H
  007c7	6a 02		 push	 2
  007c9	6a 02		 push	 2
  007cb	68 b9 04 00 00	 push	 1209			; 000004b9H
  007d0	e8 00 00 00 00	 call	 ?set_fixed_3d_object_database_item@@YGXHHHHHMW4TARGET_TYPES@@W4TARGET_SYMBOL_TYPES@@@Z ; set_fixed_3d_object_database_item

; 820  : 	set_fixed_3d_object_database_item (OBJECT_3D_OIL_FR_PIPE_LEFT_END, EXPLOSIVE_QUALITY_EXPLOSIVE, EXPLOSIVE_POWER_MEDIUM, WARHEAD_EFFECTIVE_STONE_BUILDING, 100, 0.0, TARGET_TYPE_INVALID, TARGET_SYMBOL_UNKNOWN);

  007d5	6a 00		 push	 0
  007d7	6a 00		 push	 0
  007d9	51		 push	 ecx
  007da	0f 57 c0	 xorps	 xmm0, xmm0
  007dd	f3 0f 11 04 24	 movss	 DWORD PTR [esp], xmm0
  007e2	6a 64		 push	 100			; 00000064H
  007e4	68 00 01 00 00	 push	 256			; 00000100H
  007e9	6a 02		 push	 2
  007eb	6a 02		 push	 2
  007ed	68 bb 04 00 00	 push	 1211			; 000004bbH
  007f2	e8 00 00 00 00	 call	 ?set_fixed_3d_object_database_item@@YGXHHHHHMW4TARGET_TYPES@@W4TARGET_SYMBOL_TYPES@@@Z ; set_fixed_3d_object_database_item

; 821  : 	set_fixed_3d_object_database_item (OBJECT_3D_OIL_FR_PIPE_MIDDLE, EXPLOSIVE_QUALITY_EXPLOSIVE, EXPLOSIVE_POWER_MEDIUM, WARHEAD_EFFECTIVE_STONE_BUILDING, 100, 0.0, TARGET_TYPE_INVALID, TARGET_SYMBOL_UNKNOWN);

  007f7	6a 00		 push	 0
  007f9	6a 00		 push	 0
  007fb	51		 push	 ecx
  007fc	0f 57 c0	 xorps	 xmm0, xmm0
  007ff	f3 0f 11 04 24	 movss	 DWORD PTR [esp], xmm0
  00804	6a 64		 push	 100			; 00000064H
  00806	68 00 01 00 00	 push	 256			; 00000100H
  0080b	6a 02		 push	 2
  0080d	6a 02		 push	 2
  0080f	68 bd 04 00 00	 push	 1213			; 000004bdH
  00814	e8 00 00 00 00	 call	 ?set_fixed_3d_object_database_item@@YGXHHHHHMW4TARGET_TYPES@@W4TARGET_SYMBOL_TYPES@@@Z ; set_fixed_3d_object_database_item

; 822  : 	set_fixed_3d_object_database_item (OBJECT_3D_OIL_FR_PIPE_RIGHT_END, EXPLOSIVE_QUALITY_EXPLOSIVE, EXPLOSIVE_POWER_MEDIUM, WARHEAD_EFFECTIVE_STONE_BUILDING, 100, 0.0, TARGET_TYPE_INVALID, TARGET_SYMBOL_UNKNOWN);

  00819	6a 00		 push	 0
  0081b	6a 00		 push	 0
  0081d	51		 push	 ecx
  0081e	0f 57 c0	 xorps	 xmm0, xmm0
  00821	f3 0f 11 04 24	 movss	 DWORD PTR [esp], xmm0
  00826	6a 64		 push	 100			; 00000064H
  00828	68 00 01 00 00	 push	 256			; 00000100H
  0082d	6a 02		 push	 2
  0082f	6a 02		 push	 2
  00831	68 bf 04 00 00	 push	 1215			; 000004bfH
  00836	e8 00 00 00 00	 call	 ?set_fixed_3d_object_database_item@@YGXHHHHHMW4TARGET_TYPES@@W4TARGET_SYMBOL_TYPES@@@Z ; set_fixed_3d_object_database_item

; 823  : 
; 824  : 	set_fixed_3d_object_database_item (OBJECT_3D_OIL_FC_PIPES_CORNER, EXPLOSIVE_QUALITY_EXPLOSIVE, EXPLOSIVE_POWER_MEDIUM, WARHEAD_EFFECTIVE_STONE_BUILDING, 100, 0.0, TARGET_TYPE_INVALID, TARGET_SYMBOL_UNKNOWN);

  0083b	6a 00		 push	 0
  0083d	6a 00		 push	 0
  0083f	51		 push	 ecx
  00840	0f 57 c0	 xorps	 xmm0, xmm0
  00843	f3 0f 11 04 24	 movss	 DWORD PTR [esp], xmm0
  00848	6a 64		 push	 100			; 00000064H
  0084a	68 00 01 00 00	 push	 256			; 00000100H
  0084f	6a 02		 push	 2
  00851	6a 02		 push	 2
  00853	68 a9 04 00 00	 push	 1193			; 000004a9H
  00858	e8 00 00 00 00	 call	 ?set_fixed_3d_object_database_item@@YGXHHHHHMW4TARGET_TYPES@@W4TARGET_SYMBOL_TYPES@@@Z ; set_fixed_3d_object_database_item

; 825  : 	set_fixed_3d_object_database_item (OBJECT_3D_OIL_FC_PIPES_OVERROAD, EXPLOSIVE_QUALITY_EXPLOSIVE, EXPLOSIVE_POWER_MEDIUM, WARHEAD_EFFECTIVE_STONE_BUILDING, 100, 0.0, TARGET_TYPE_INVALID, TARGET_SYMBOL_UNKNOWN);

  0085d	6a 00		 push	 0
  0085f	6a 00		 push	 0
  00861	51		 push	 ecx
  00862	0f 57 c0	 xorps	 xmm0, xmm0
  00865	f3 0f 11 04 24	 movss	 DWORD PTR [esp], xmm0
  0086a	6a 64		 push	 100			; 00000064H
  0086c	68 00 01 00 00	 push	 256			; 00000100H
  00871	6a 02		 push	 2
  00873	6a 02		 push	 2
  00875	68 b1 04 00 00	 push	 1201			; 000004b1H
  0087a	e8 00 00 00 00	 call	 ?set_fixed_3d_object_database_item@@YGXHHHHHMW4TARGET_TYPES@@W4TARGET_SYMBOL_TYPES@@@Z ; set_fixed_3d_object_database_item

; 826  : }

  0087f	5f		 pop	 edi
  00880	5e		 pop	 esi
  00881	5b		 pop	 ebx
  00882	8b e5		 mov	 esp, ebp
  00884	5d		 pop	 ebp
  00885	c3		 ret	 0
?initialise_low_importance_medium_explosive_buildings@@YGXXZ ENDP ; initialise_low_importance_medium_explosive_buildings
_TEXT	ENDS
; Function compile flags: /Odtp /ZI
; File c:\users\nhv90\projects\eech\aphavoc\source\entity\fixed\fx_objdb.c
;	COMDAT ?initialise_low_importance_high_explosive_buildings@@YGXXZ
_TEXT	SEGMENT
?initialise_low_importance_high_explosive_buildings@@YGXXZ PROC ; initialise_low_importance_high_explosive_buildings, COMDAT

; 648  : {

  00000	55		 push	 ebp
  00001	8b ec		 mov	 ebp, esp
  00003	83 ec 40	 sub	 esp, 64			; 00000040H
  00006	53		 push	 ebx
  00007	56		 push	 esi
  00008	57		 push	 edi

; 649  : 	////////////////////////////////////////////////////////////////////////////////////
; 650  : 	//
; 651  : 	// LOW IMPORTANCE HIGH EXPLOSIVE BUILDINGS
; 652  : 	//
; 653  : 	////////////////////////////////////////////////////////////////////////////////////
; 654  : 
; 655  : 	// VALID TARGETS
; 656  : 
; 657  : 	set_fixed_3d_object_database_item (OBJECT_3D_AMERICAN_OIL_TANK01, EXPLOSIVE_QUALITY_EXPLOSIVE, EXPLOSIVE_POWER_HIGH, WARHEAD_EFFECTIVE_LIGHT_BUILDING, 200, IMPORTANCE_LOW, TARGET_TYPE_GROUND, TARGET_SYMBOL_STRUCTURE);

  00009	6a 07		 push	 7
  0000b	6a 01		 push	 1
  0000d	51		 push	 ecx
  0000e	f3 0f 10 05 00
	00 00 00	 movss	 xmm0, DWORD PTR __real@3e800000
  00016	f3 0f 11 04 24	 movss	 DWORD PTR [esp], xmm0
  0001b	68 c8 00 00 00	 push	 200			; 000000c8H
  00020	68 80 00 00 00	 push	 128			; 00000080H
  00025	6a 03		 push	 3
  00027	6a 02		 push	 2
  00029	6a 7d		 push	 125			; 0000007dH
  0002b	e8 00 00 00 00	 call	 ?set_fixed_3d_object_database_item@@YGXHHHHHMW4TARGET_TYPES@@W4TARGET_SYMBOL_TYPES@@@Z ; set_fixed_3d_object_database_item

; 658  : 	set_fixed_3d_object_database_item (OBJECT_3D_AMERICAN_OIL_TANK02, EXPLOSIVE_QUALITY_EXPLOSIVE, EXPLOSIVE_POWER_HIGH, WARHEAD_EFFECTIVE_LIGHT_BUILDING, 200, IMPORTANCE_LOW, TARGET_TYPE_GROUND, TARGET_SYMBOL_STRUCTURE);

  00030	6a 07		 push	 7
  00032	6a 01		 push	 1
  00034	51		 push	 ecx
  00035	f3 0f 10 05 00
	00 00 00	 movss	 xmm0, DWORD PTR __real@3e800000
  0003d	f3 0f 11 04 24	 movss	 DWORD PTR [esp], xmm0
  00042	68 c8 00 00 00	 push	 200			; 000000c8H
  00047	68 80 00 00 00	 push	 128			; 00000080H
  0004c	6a 03		 push	 3
  0004e	6a 02		 push	 2
  00050	6a 7f		 push	 127			; 0000007fH
  00052	e8 00 00 00 00	 call	 ?set_fixed_3d_object_database_item@@YGXHHHHHMW4TARGET_TYPES@@W4TARGET_SYMBOL_TYPES@@@Z ; set_fixed_3d_object_database_item

; 659  : 
; 660  : 	set_fixed_3d_object_database_item (OBJECT_3D_MILITARY_FR_AMERICAN_OIL_TANK01, EXPLOSIVE_QUALITY_EXPLOSIVE, EXPLOSIVE_POWER_HIGH, WARHEAD_EFFECTIVE_LIGHT_BUILDING, 200, IMPORTANCE_LOW, TARGET_TYPE_GROUND, TARGET_SYMBOL_STRUCTURE);

  00057	6a 07		 push	 7
  00059	6a 01		 push	 1
  0005b	51		 push	 ecx
  0005c	f3 0f 10 05 00
	00 00 00	 movss	 xmm0, DWORD PTR __real@3e800000
  00064	f3 0f 11 04 24	 movss	 DWORD PTR [esp], xmm0
  00069	68 c8 00 00 00	 push	 200			; 000000c8H
  0006e	68 80 00 00 00	 push	 128			; 00000080H
  00073	6a 03		 push	 3
  00075	6a 02		 push	 2
  00077	68 95 02 00 00	 push	 661			; 00000295H
  0007c	e8 00 00 00 00	 call	 ?set_fixed_3d_object_database_item@@YGXHHHHHMW4TARGET_TYPES@@W4TARGET_SYMBOL_TYPES@@@Z ; set_fixed_3d_object_database_item

; 661  : 	set_fixed_3d_object_database_item (OBJECT_3D_MILITARY_FR_AMERICAN_OIL_TANK02, EXPLOSIVE_QUALITY_EXPLOSIVE, EXPLOSIVE_POWER_HIGH, WARHEAD_EFFECTIVE_LIGHT_BUILDING, 200, IMPORTANCE_LOW, TARGET_TYPE_GROUND, TARGET_SYMBOL_STRUCTURE);

  00081	6a 07		 push	 7
  00083	6a 01		 push	 1
  00085	51		 push	 ecx
  00086	f3 0f 10 05 00
	00 00 00	 movss	 xmm0, DWORD PTR __real@3e800000
  0008e	f3 0f 11 04 24	 movss	 DWORD PTR [esp], xmm0
  00093	68 c8 00 00 00	 push	 200			; 000000c8H
  00098	68 80 00 00 00	 push	 128			; 00000080H
  0009d	6a 03		 push	 3
  0009f	6a 02		 push	 2
  000a1	68 97 02 00 00	 push	 663			; 00000297H
  000a6	e8 00 00 00 00	 call	 ?set_fixed_3d_object_database_item@@YGXHHHHHMW4TARGET_TYPES@@W4TARGET_SYMBOL_TYPES@@@Z ; set_fixed_3d_object_database_item

; 662  : 
; 663  : 	set_fixed_3d_object_database_item (OBJECT_3D_INDUSTRY_FC_TANK004_10M_2X1, EXPLOSIVE_QUALITY_EXPLOSIVE, EXPLOSIVE_POWER_MEDIUM, WARHEAD_EFFECTIVE_LIGHT_BUILDING, 300, IMPORTANCE_LOW, TARGET_TYPE_GROUND, TARGET_SYMBOL_STRUCTURE);

  000ab	6a 07		 push	 7
  000ad	6a 01		 push	 1
  000af	51		 push	 ecx
  000b0	f3 0f 10 05 00
	00 00 00	 movss	 xmm0, DWORD PTR __real@3e800000
  000b8	f3 0f 11 04 24	 movss	 DWORD PTR [esp], xmm0
  000bd	68 2c 01 00 00	 push	 300			; 0000012cH
  000c2	68 80 00 00 00	 push	 128			; 00000080H
  000c7	6a 02		 push	 2
  000c9	6a 02		 push	 2
  000cb	68 60 02 00 00	 push	 608			; 00000260H
  000d0	e8 00 00 00 00	 call	 ?set_fixed_3d_object_database_item@@YGXHHHHHMW4TARGET_TYPES@@W4TARGET_SYMBOL_TYPES@@@Z ; set_fixed_3d_object_database_item

; 664  : 	set_fixed_3d_object_database_item (OBJECT_3D_INDUSTRY_FC_TANK005_10M_2X2, EXPLOSIVE_QUALITY_EXPLOSIVE, EXPLOSIVE_POWER_MEDIUM, WARHEAD_EFFECTIVE_LIGHT_BUILDING, 300, IMPORTANCE_LOW, TARGET_TYPE_GROUND, TARGET_SYMBOL_STRUCTURE);

  000d5	6a 07		 push	 7
  000d7	6a 01		 push	 1
  000d9	51		 push	 ecx
  000da	f3 0f 10 05 00
	00 00 00	 movss	 xmm0, DWORD PTR __real@3e800000
  000e2	f3 0f 11 04 24	 movss	 DWORD PTR [esp], xmm0
  000e7	68 2c 01 00 00	 push	 300			; 0000012cH
  000ec	68 80 00 00 00	 push	 128			; 00000080H
  000f1	6a 02		 push	 2
  000f3	6a 02		 push	 2
  000f5	68 62 02 00 00	 push	 610			; 00000262H
  000fa	e8 00 00 00 00	 call	 ?set_fixed_3d_object_database_item@@YGXHHHHHMW4TARGET_TYPES@@W4TARGET_SYMBOL_TYPES@@@Z ; set_fixed_3d_object_database_item

; 665  : 	set_fixed_3d_object_database_item (OBJECT_3D_INDUSTRY_FC_TANKGROUP001_10M_2X2, EXPLOSIVE_QUALITY_EXPLOSIVE, EXPLOSIVE_POWER_MEDIUM, WARHEAD_EFFECTIVE_LIGHT_BUILDING, 300, IMPORTANCE_LOW, TARGET_TYPE_GROUND, TARGET_SYMBOL_STRUCTURE);

  000ff	6a 07		 push	 7
  00101	6a 01		 push	 1
  00103	51		 push	 ecx
  00104	f3 0f 10 05 00
	00 00 00	 movss	 xmm0, DWORD PTR __real@3e800000
  0010c	f3 0f 11 04 24	 movss	 DWORD PTR [esp], xmm0
  00111	68 2c 01 00 00	 push	 300			; 0000012cH
  00116	68 80 00 00 00	 push	 128			; 00000080H
  0011b	6a 02		 push	 2
  0011d	6a 02		 push	 2
  0011f	68 64 02 00 00	 push	 612			; 00000264H
  00124	e8 00 00 00 00	 call	 ?set_fixed_3d_object_database_item@@YGXHHHHHMW4TARGET_TYPES@@W4TARGET_SYMBOL_TYPES@@@Z ; set_fixed_3d_object_database_item

; 666  : 	set_fixed_3d_object_database_item (OBJECT_3D_INDUSTRY_FC_TANKGROUP002_10M_4X4, EXPLOSIVE_QUALITY_EXPLOSIVE, EXPLOSIVE_POWER_MEDIUM, WARHEAD_EFFECTIVE_LIGHT_BUILDING, 300, IMPORTANCE_LOW, TARGET_TYPE_GROUND, TARGET_SYMBOL_STRUCTURE);

  00129	6a 07		 push	 7
  0012b	6a 01		 push	 1
  0012d	51		 push	 ecx
  0012e	f3 0f 10 05 00
	00 00 00	 movss	 xmm0, DWORD PTR __real@3e800000
  00136	f3 0f 11 04 24	 movss	 DWORD PTR [esp], xmm0
  0013b	68 2c 01 00 00	 push	 300			; 0000012cH
  00140	68 80 00 00 00	 push	 128			; 00000080H
  00145	6a 02		 push	 2
  00147	6a 02		 push	 2
  00149	68 66 02 00 00	 push	 614			; 00000266H
  0014e	e8 00 00 00 00	 call	 ?set_fixed_3d_object_database_item@@YGXHHHHHMW4TARGET_TYPES@@W4TARGET_SYMBOL_TYPES@@@Z ; set_fixed_3d_object_database_item

; 667  : 
; 668  : 	set_fixed_3d_object_database_item (OBJECT_3D_GRG_INDUSTRY_FC_TANK001, EXPLOSIVE_QUALITY_EXPLOSIVE, EXPLOSIVE_POWER_MEDIUM, WARHEAD_EFFECTIVE_LIGHT_BUILDING, 300, IMPORTANCE_LOW, TARGET_TYPE_GROUND, TARGET_SYMBOL_STRUCTURE);

  00153	6a 07		 push	 7
  00155	6a 01		 push	 1
  00157	51		 push	 ecx
  00158	f3 0f 10 05 00
	00 00 00	 movss	 xmm0, DWORD PTR __real@3e800000
  00160	f3 0f 11 04 24	 movss	 DWORD PTR [esp], xmm0
  00165	68 2c 01 00 00	 push	 300			; 0000012cH
  0016a	68 80 00 00 00	 push	 128			; 00000080H
  0016f	6a 02		 push	 2
  00171	6a 02		 push	 2
  00173	68 75 03 00 00	 push	 885			; 00000375H
  00178	e8 00 00 00 00	 call	 ?set_fixed_3d_object_database_item@@YGXHHHHHMW4TARGET_TYPES@@W4TARGET_SYMBOL_TYPES@@@Z ; set_fixed_3d_object_database_item

; 669  : 	set_fixed_3d_object_database_item (OBJECT_3D_GRG_INDUSTRY_FR_TANK002, EXPLOSIVE_QUALITY_EXPLOSIVE, EXPLOSIVE_POWER_MEDIUM, WARHEAD_EFFECTIVE_LIGHT_BUILDING, 300, IMPORTANCE_LOW, TARGET_TYPE_GROUND, TARGET_SYMBOL_STRUCTURE);

  0017d	6a 07		 push	 7
  0017f	6a 01		 push	 1
  00181	51		 push	 ecx
  00182	f3 0f 10 05 00
	00 00 00	 movss	 xmm0, DWORD PTR __real@3e800000
  0018a	f3 0f 11 04 24	 movss	 DWORD PTR [esp], xmm0
  0018f	68 2c 01 00 00	 push	 300			; 0000012cH
  00194	68 80 00 00 00	 push	 128			; 00000080H
  00199	6a 02		 push	 2
  0019b	6a 02		 push	 2
  0019d	68 76 03 00 00	 push	 886			; 00000376H
  001a2	e8 00 00 00 00	 call	 ?set_fixed_3d_object_database_item@@YGXHHHHHMW4TARGET_TYPES@@W4TARGET_SYMBOL_TYPES@@@Z ; set_fixed_3d_object_database_item

; 670  : 	set_fixed_3d_object_database_item (OBJECT_3D_GRG_INDUSTRY_FC_TANK003, EXPLOSIVE_QUALITY_EXPLOSIVE, EXPLOSIVE_POWER_MEDIUM, WARHEAD_EFFECTIVE_LIGHT_BUILDING, 300, IMPORTANCE_LOW, TARGET_TYPE_GROUND, TARGET_SYMBOL_STRUCTURE);

  001a7	6a 07		 push	 7
  001a9	6a 01		 push	 1
  001ab	51		 push	 ecx
  001ac	f3 0f 10 05 00
	00 00 00	 movss	 xmm0, DWORD PTR __real@3e800000
  001b4	f3 0f 11 04 24	 movss	 DWORD PTR [esp], xmm0
  001b9	68 2c 01 00 00	 push	 300			; 0000012cH
  001be	68 80 00 00 00	 push	 128			; 00000080H
  001c3	6a 02		 push	 2
  001c5	6a 02		 push	 2
  001c7	68 77 03 00 00	 push	 887			; 00000377H
  001cc	e8 00 00 00 00	 call	 ?set_fixed_3d_object_database_item@@YGXHHHHHMW4TARGET_TYPES@@W4TARGET_SYMBOL_TYPES@@@Z ; set_fixed_3d_object_database_item

; 671  : 
; 672  : 	set_fixed_3d_object_database_item (OBJECT_3D_LEBANON_KEY_OIL_FC_TANK004_10M_2X1, EXPLOSIVE_QUALITY_EXPLOSIVE, EXPLOSIVE_POWER_HIGH, WARHEAD_EFFECTIVE_LIGHT_BUILDING, 300, IMPORTANCE_LOW, TARGET_TYPE_GROUND, TARGET_SYMBOL_STRUCTURE);

  001d1	6a 07		 push	 7
  001d3	6a 01		 push	 1
  001d5	51		 push	 ecx
  001d6	f3 0f 10 05 00
	00 00 00	 movss	 xmm0, DWORD PTR __real@3e800000
  001de	f3 0f 11 04 24	 movss	 DWORD PTR [esp], xmm0
  001e3	68 2c 01 00 00	 push	 300			; 0000012cH
  001e8	68 80 00 00 00	 push	 128			; 00000080H
  001ed	6a 03		 push	 3
  001ef	6a 02		 push	 2
  001f1	68 67 06 00 00	 push	 1639			; 00000667H
  001f6	e8 00 00 00 00	 call	 ?set_fixed_3d_object_database_item@@YGXHHHHHMW4TARGET_TYPES@@W4TARGET_SYMBOL_TYPES@@@Z ; set_fixed_3d_object_database_item

; 673  : 	set_fixed_3d_object_database_item (OBJECT_3D_LEBANON_KEY_OIL_FC_TANK005_10M_2X2, EXPLOSIVE_QUALITY_EXPLOSIVE, EXPLOSIVE_POWER_HIGH, WARHEAD_EFFECTIVE_LIGHT_BUILDING, 300, IMPORTANCE_LOW, TARGET_TYPE_GROUND, TARGET_SYMBOL_STRUCTURE);

  001fb	6a 07		 push	 7
  001fd	6a 01		 push	 1
  001ff	51		 push	 ecx
  00200	f3 0f 10 05 00
	00 00 00	 movss	 xmm0, DWORD PTR __real@3e800000
  00208	f3 0f 11 04 24	 movss	 DWORD PTR [esp], xmm0
  0020d	68 2c 01 00 00	 push	 300			; 0000012cH
  00212	68 80 00 00 00	 push	 128			; 00000080H
  00217	6a 03		 push	 3
  00219	6a 02		 push	 2
  0021b	68 69 06 00 00	 push	 1641			; 00000669H
  00220	e8 00 00 00 00	 call	 ?set_fixed_3d_object_database_item@@YGXHHHHHMW4TARGET_TYPES@@W4TARGET_SYMBOL_TYPES@@@Z ; set_fixed_3d_object_database_item

; 674  : 	set_fixed_3d_object_database_item (OBJECT_3D_LEBANON_KEY_OIL_FC_TANKGROUP001_10M_1X2, EXPLOSIVE_QUALITY_EXPLOSIVE, EXPLOSIVE_POWER_HIGH, WARHEAD_EFFECTIVE_LIGHT_BUILDING, 300, IMPORTANCE_LOW, TARGET_TYPE_GROUND, TARGET_SYMBOL_STRUCTURE);

  00225	6a 07		 push	 7
  00227	6a 01		 push	 1
  00229	51		 push	 ecx
  0022a	f3 0f 10 05 00
	00 00 00	 movss	 xmm0, DWORD PTR __real@3e800000
  00232	f3 0f 11 04 24	 movss	 DWORD PTR [esp], xmm0
  00237	68 2c 01 00 00	 push	 300			; 0000012cH
  0023c	68 80 00 00 00	 push	 128			; 00000080H
  00241	6a 03		 push	 3
  00243	6a 02		 push	 2
  00245	68 6b 06 00 00	 push	 1643			; 0000066bH
  0024a	e8 00 00 00 00	 call	 ?set_fixed_3d_object_database_item@@YGXHHHHHMW4TARGET_TYPES@@W4TARGET_SYMBOL_TYPES@@@Z ; set_fixed_3d_object_database_item

; 675  : 	set_fixed_3d_object_database_item (OBJECT_3D_LEBANON_KEY_OIL_FC_TANKGROUP002_10M_4X4, EXPLOSIVE_QUALITY_EXPLOSIVE, EXPLOSIVE_POWER_HIGH, WARHEAD_EFFECTIVE_LIGHT_BUILDING, 300, IMPORTANCE_LOW, TARGET_TYPE_GROUND, TARGET_SYMBOL_STRUCTURE);

  0024f	6a 07		 push	 7
  00251	6a 01		 push	 1
  00253	51		 push	 ecx
  00254	f3 0f 10 05 00
	00 00 00	 movss	 xmm0, DWORD PTR __real@3e800000
  0025c	f3 0f 11 04 24	 movss	 DWORD PTR [esp], xmm0
  00261	68 2c 01 00 00	 push	 300			; 0000012cH
  00266	68 80 00 00 00	 push	 128			; 00000080H
  0026b	6a 03		 push	 3
  0026d	6a 02		 push	 2
  0026f	68 6d 06 00 00	 push	 1645			; 0000066dH
  00274	e8 00 00 00 00	 call	 ?set_fixed_3d_object_database_item@@YGXHHHHHMW4TARGET_TYPES@@W4TARGET_SYMBOL_TYPES@@@Z ; set_fixed_3d_object_database_item

; 676  : 	set_fixed_3d_object_database_item (OBJECT_3D_LEBANON_KEY_OIL_FC_TANKS_30X70, EXPLOSIVE_QUALITY_EXPLOSIVE, EXPLOSIVE_POWER_HIGH, WARHEAD_EFFECTIVE_LIGHT_BUILDING, 300, IMPORTANCE_LOW, TARGET_TYPE_GROUND, TARGET_SYMBOL_STRUCTURE);

  00279	6a 07		 push	 7
  0027b	6a 01		 push	 1
  0027d	51		 push	 ecx
  0027e	f3 0f 10 05 00
	00 00 00	 movss	 xmm0, DWORD PTR __real@3e800000
  00286	f3 0f 11 04 24	 movss	 DWORD PTR [esp], xmm0
  0028b	68 2c 01 00 00	 push	 300			; 0000012cH
  00290	68 80 00 00 00	 push	 128			; 00000080H
  00295	6a 03		 push	 3
  00297	6a 02		 push	 2
  00299	68 71 06 00 00	 push	 1649			; 00000671H
  0029e	e8 00 00 00 00	 call	 ?set_fixed_3d_object_database_item@@YGXHHHHHMW4TARGET_TYPES@@W4TARGET_SYMBOL_TYPES@@@Z ; set_fixed_3d_object_database_item

; 677  : 	set_fixed_3d_object_database_item (OBJECT_3D_LEBANON_KEY_OIL_FC_TANKS_30X50, EXPLOSIVE_QUALITY_EXPLOSIVE, EXPLOSIVE_POWER_HIGH, WARHEAD_EFFECTIVE_LIGHT_BUILDING, 300, IMPORTANCE_LOW, TARGET_TYPE_GROUND, TARGET_SYMBOL_STRUCTURE);

  002a3	6a 07		 push	 7
  002a5	6a 01		 push	 1
  002a7	51		 push	 ecx
  002a8	f3 0f 10 05 00
	00 00 00	 movss	 xmm0, DWORD PTR __real@3e800000
  002b0	f3 0f 11 04 24	 movss	 DWORD PTR [esp], xmm0
  002b5	68 2c 01 00 00	 push	 300			; 0000012cH
  002ba	68 80 00 00 00	 push	 128			; 00000080H
  002bf	6a 03		 push	 3
  002c1	6a 02		 push	 2
  002c3	68 6f 06 00 00	 push	 1647			; 0000066fH
  002c8	e8 00 00 00 00	 call	 ?set_fixed_3d_object_database_item@@YGXHHHHHMW4TARGET_TYPES@@W4TARGET_SYMBOL_TYPES@@@Z ; set_fixed_3d_object_database_item

; 678  : 	set_fixed_3d_object_database_item (OBJECT_3D_LEBANON_KEY_OIL_FC_TANKS_50X50, EXPLOSIVE_QUALITY_EXPLOSIVE, EXPLOSIVE_POWER_HIGH, WARHEAD_EFFECTIVE_LIGHT_BUILDING, 300, IMPORTANCE_LOW, TARGET_TYPE_GROUND, TARGET_SYMBOL_STRUCTURE);

  002cd	6a 07		 push	 7
  002cf	6a 01		 push	 1
  002d1	51		 push	 ecx
  002d2	f3 0f 10 05 00
	00 00 00	 movss	 xmm0, DWORD PTR __real@3e800000
  002da	f3 0f 11 04 24	 movss	 DWORD PTR [esp], xmm0
  002df	68 2c 01 00 00	 push	 300			; 0000012cH
  002e4	68 80 00 00 00	 push	 128			; 00000080H
  002e9	6a 03		 push	 3
  002eb	6a 02		 push	 2
  002ed	68 75 06 00 00	 push	 1653			; 00000675H
  002f2	e8 00 00 00 00	 call	 ?set_fixed_3d_object_database_item@@YGXHHHHHMW4TARGET_TYPES@@W4TARGET_SYMBOL_TYPES@@@Z ; set_fixed_3d_object_database_item

; 679  : 	set_fixed_3d_object_database_item (OBJECT_3D_LEBANON_KEY_OIL_FC_TANKS_60X60_01A, EXPLOSIVE_QUALITY_EXPLOSIVE, EXPLOSIVE_POWER_HIGH, WARHEAD_EFFECTIVE_LIGHT_BUILDING, 300, IMPORTANCE_LOW, TARGET_TYPE_GROUND, TARGET_SYMBOL_STRUCTURE);

  002f7	6a 07		 push	 7
  002f9	6a 01		 push	 1
  002fb	51		 push	 ecx
  002fc	f3 0f 10 05 00
	00 00 00	 movss	 xmm0, DWORD PTR __real@3e800000
  00304	f3 0f 11 04 24	 movss	 DWORD PTR [esp], xmm0
  00309	68 2c 01 00 00	 push	 300			; 0000012cH
  0030e	68 80 00 00 00	 push	 128			; 00000080H
  00313	6a 03		 push	 3
  00315	6a 02		 push	 2
  00317	68 77 06 00 00	 push	 1655			; 00000677H
  0031c	e8 00 00 00 00	 call	 ?set_fixed_3d_object_database_item@@YGXHHHHHMW4TARGET_TYPES@@W4TARGET_SYMBOL_TYPES@@@Z ; set_fixed_3d_object_database_item

; 680  : 	set_fixed_3d_object_database_item (OBJECT_3D_LEBANON_KEY_OIL_FC_TANKS_70X70_01, EXPLOSIVE_QUALITY_EXPLOSIVE, EXPLOSIVE_POWER_HIGH, WARHEAD_EFFECTIVE_LIGHT_BUILDING, 300, IMPORTANCE_LOW, TARGET_TYPE_GROUND, TARGET_SYMBOL_STRUCTURE);

  00321	6a 07		 push	 7
  00323	6a 01		 push	 1
  00325	51		 push	 ecx
  00326	f3 0f 10 05 00
	00 00 00	 movss	 xmm0, DWORD PTR __real@3e800000
  0032e	f3 0f 11 04 24	 movss	 DWORD PTR [esp], xmm0
  00333	68 2c 01 00 00	 push	 300			; 0000012cH
  00338	68 80 00 00 00	 push	 128			; 00000080H
  0033d	6a 03		 push	 3
  0033f	6a 02		 push	 2
  00341	68 79 06 00 00	 push	 1657			; 00000679H
  00346	e8 00 00 00 00	 call	 ?set_fixed_3d_object_database_item@@YGXHHHHHMW4TARGET_TYPES@@W4TARGET_SYMBOL_TYPES@@@Z ; set_fixed_3d_object_database_item

; 681  : 	set_fixed_3d_object_database_item (OBJECT_3D_LEBANON_KEY_OIL_FC_TANKS_70X70_02, EXPLOSIVE_QUALITY_EXPLOSIVE, EXPLOSIVE_POWER_HIGH, WARHEAD_EFFECTIVE_LIGHT_BUILDING, 300, IMPORTANCE_LOW, TARGET_TYPE_GROUND, TARGET_SYMBOL_STRUCTURE);

  0034b	6a 07		 push	 7
  0034d	6a 01		 push	 1
  0034f	51		 push	 ecx
  00350	f3 0f 10 05 00
	00 00 00	 movss	 xmm0, DWORD PTR __real@3e800000
  00358	f3 0f 11 04 24	 movss	 DWORD PTR [esp], xmm0
  0035d	68 2c 01 00 00	 push	 300			; 0000012cH
  00362	68 80 00 00 00	 push	 128			; 00000080H
  00367	6a 03		 push	 3
  00369	6a 02		 push	 2
  0036b	68 7b 06 00 00	 push	 1659			; 0000067bH
  00370	e8 00 00 00 00	 call	 ?set_fixed_3d_object_database_item@@YGXHHHHHMW4TARGET_TYPES@@W4TARGET_SYMBOL_TYPES@@@Z ; set_fixed_3d_object_database_item

; 682  : 	set_fixed_3d_object_database_item (OBJECT_3D_LEBANON_KEY_OIL_FC_TANKS_80X80_02A, EXPLOSIVE_QUALITY_EXPLOSIVE, EXPLOSIVE_POWER_HIGH, WARHEAD_EFFECTIVE_LIGHT_BUILDING, 300, IMPORTANCE_LOW, TARGET_TYPE_GROUND, TARGET_SYMBOL_STRUCTURE);

  00375	6a 07		 push	 7
  00377	6a 01		 push	 1
  00379	51		 push	 ecx
  0037a	f3 0f 10 05 00
	00 00 00	 movss	 xmm0, DWORD PTR __real@3e800000
  00382	f3 0f 11 04 24	 movss	 DWORD PTR [esp], xmm0
  00387	68 2c 01 00 00	 push	 300			; 0000012cH
  0038c	68 80 00 00 00	 push	 128			; 00000080H
  00391	6a 03		 push	 3
  00393	6a 02		 push	 2
  00395	68 7d 06 00 00	 push	 1661			; 0000067dH
  0039a	e8 00 00 00 00	 call	 ?set_fixed_3d_object_database_item@@YGXHHHHHMW4TARGET_TYPES@@W4TARGET_SYMBOL_TYPES@@@Z ; set_fixed_3d_object_database_item

; 683  : 	set_fixed_3d_object_database_item (OBJECT_3D_LEBANON_KEY_OIL_FC_STORAGE_TANKS_50X30, EXPLOSIVE_QUALITY_EXPLOSIVE, EXPLOSIVE_POWER_HIGH, WARHEAD_EFFECTIVE_LIGHT_BUILDING, 300, IMPORTANCE_LOW, TARGET_TYPE_GROUND, TARGET_SYMBOL_STRUCTURE);

  0039f	6a 07		 push	 7
  003a1	6a 01		 push	 1
  003a3	51		 push	 ecx
  003a4	f3 0f 10 05 00
	00 00 00	 movss	 xmm0, DWORD PTR __real@3e800000
  003ac	f3 0f 11 04 24	 movss	 DWORD PTR [esp], xmm0
  003b1	68 2c 01 00 00	 push	 300			; 0000012cH
  003b6	68 80 00 00 00	 push	 128			; 00000080H
  003bb	6a 03		 push	 3
  003bd	6a 02		 push	 2
  003bf	68 73 06 00 00	 push	 1651			; 00000673H
  003c4	e8 00 00 00 00	 call	 ?set_fixed_3d_object_database_item@@YGXHHHHHMW4TARGET_TYPES@@W4TARGET_SYMBOL_TYPES@@@Z ; set_fixed_3d_object_database_item

; 684  : 
; 685  : 	set_fixed_3d_object_database_item (OBJECT_3D_LEBANON_KEY_POWER_FC_TANK004_10M_2X1, EXPLOSIVE_QUALITY_EXPLOSIVE, EXPLOSIVE_POWER_HIGH, WARHEAD_EFFECTIVE_LIGHT_BUILDING, 300, IMPORTANCE_LOW, TARGET_TYPE_GROUND, TARGET_SYMBOL_STRUCTURE);

  003c9	6a 07		 push	 7
  003cb	6a 01		 push	 1
  003cd	51		 push	 ecx
  003ce	f3 0f 10 05 00
	00 00 00	 movss	 xmm0, DWORD PTR __real@3e800000
  003d6	f3 0f 11 04 24	 movss	 DWORD PTR [esp], xmm0
  003db	68 2c 01 00 00	 push	 300			; 0000012cH
  003e0	68 80 00 00 00	 push	 128			; 00000080H
  003e5	6a 03		 push	 3
  003e7	6a 02		 push	 2
  003e9	68 ea 06 00 00	 push	 1770			; 000006eaH
  003ee	e8 00 00 00 00	 call	 ?set_fixed_3d_object_database_item@@YGXHHHHHMW4TARGET_TYPES@@W4TARGET_SYMBOL_TYPES@@@Z ; set_fixed_3d_object_database_item

; 686  : 	set_fixed_3d_object_database_item (OBJECT_3D_LEBANON_KEY_POWER_FC_TANK005_10M_2X2, EXPLOSIVE_QUALITY_EXPLOSIVE, EXPLOSIVE_POWER_HIGH, WARHEAD_EFFECTIVE_LIGHT_BUILDING, 300, IMPORTANCE_LOW, TARGET_TYPE_GROUND, TARGET_SYMBOL_STRUCTURE);

  003f3	6a 07		 push	 7
  003f5	6a 01		 push	 1
  003f7	51		 push	 ecx
  003f8	f3 0f 10 05 00
	00 00 00	 movss	 xmm0, DWORD PTR __real@3e800000
  00400	f3 0f 11 04 24	 movss	 DWORD PTR [esp], xmm0
  00405	68 2c 01 00 00	 push	 300			; 0000012cH
  0040a	68 80 00 00 00	 push	 128			; 00000080H
  0040f	6a 03		 push	 3
  00411	6a 02		 push	 2
  00413	68 ec 06 00 00	 push	 1772			; 000006ecH
  00418	e8 00 00 00 00	 call	 ?set_fixed_3d_object_database_item@@YGXHHHHHMW4TARGET_TYPES@@W4TARGET_SYMBOL_TYPES@@@Z ; set_fixed_3d_object_database_item

; 687  : 	set_fixed_3d_object_database_item (OBJECT_3D_LEBANON_KEY_POWER_FC_TANKGROUP001_10M_1X2, EXPLOSIVE_QUALITY_EXPLOSIVE, EXPLOSIVE_POWER_HIGH, WARHEAD_EFFECTIVE_LIGHT_BUILDING, 300, IMPORTANCE_LOW, TARGET_TYPE_GROUND, TARGET_SYMBOL_STRUCTURE);

  0041d	6a 07		 push	 7
  0041f	6a 01		 push	 1
  00421	51		 push	 ecx
  00422	f3 0f 10 05 00
	00 00 00	 movss	 xmm0, DWORD PTR __real@3e800000
  0042a	f3 0f 11 04 24	 movss	 DWORD PTR [esp], xmm0
  0042f	68 2c 01 00 00	 push	 300			; 0000012cH
  00434	68 80 00 00 00	 push	 128			; 00000080H
  00439	6a 03		 push	 3
  0043b	6a 02		 push	 2
  0043d	68 ee 06 00 00	 push	 1774			; 000006eeH
  00442	e8 00 00 00 00	 call	 ?set_fixed_3d_object_database_item@@YGXHHHHHMW4TARGET_TYPES@@W4TARGET_SYMBOL_TYPES@@@Z ; set_fixed_3d_object_database_item

; 688  : 	set_fixed_3d_object_database_item (OBJECT_3D_LEBANON_KEY_POWER_FC_TANKGROUP002_10M_4X4, EXPLOSIVE_QUALITY_EXPLOSIVE, EXPLOSIVE_POWER_HIGH, WARHEAD_EFFECTIVE_LIGHT_BUILDING, 300, IMPORTANCE_LOW, TARGET_TYPE_GROUND, TARGET_SYMBOL_STRUCTURE);

  00447	6a 07		 push	 7
  00449	6a 01		 push	 1
  0044b	51		 push	 ecx
  0044c	f3 0f 10 05 00
	00 00 00	 movss	 xmm0, DWORD PTR __real@3e800000
  00454	f3 0f 11 04 24	 movss	 DWORD PTR [esp], xmm0
  00459	68 2c 01 00 00	 push	 300			; 0000012cH
  0045e	68 80 00 00 00	 push	 128			; 00000080H
  00463	6a 03		 push	 3
  00465	6a 02		 push	 2
  00467	68 f0 06 00 00	 push	 1776			; 000006f0H
  0046c	e8 00 00 00 00	 call	 ?set_fixed_3d_object_database_item@@YGXHHHHHMW4TARGET_TYPES@@W4TARGET_SYMBOL_TYPES@@@Z ; set_fixed_3d_object_database_item

; 689  : 
; 690  : 	set_fixed_3d_object_database_item (OBJECT_3D_LEBANON_KEY_INDUSTRY_FC_TANK004_10M_2X1, EXPLOSIVE_QUALITY_EXPLOSIVE, EXPLOSIVE_POWER_HIGH, WARHEAD_EFFECTIVE_LIGHT_BUILDING, 300, IMPORTANCE_LOW, TARGET_TYPE_GROUND, TARGET_SYMBOL_STRUCTURE);

  00471	6a 07		 push	 7
  00473	6a 01		 push	 1
  00475	51		 push	 ecx
  00476	f3 0f 10 05 00
	00 00 00	 movss	 xmm0, DWORD PTR __real@3e800000
  0047e	f3 0f 11 04 24	 movss	 DWORD PTR [esp], xmm0
  00483	68 2c 01 00 00	 push	 300			; 0000012cH
  00488	68 80 00 00 00	 push	 128			; 00000080H
  0048d	6a 03		 push	 3
  0048f	6a 02		 push	 2
  00491	68 e4 05 00 00	 push	 1508			; 000005e4H
  00496	e8 00 00 00 00	 call	 ?set_fixed_3d_object_database_item@@YGXHHHHHMW4TARGET_TYPES@@W4TARGET_SYMBOL_TYPES@@@Z ; set_fixed_3d_object_database_item

; 691  : 	set_fixed_3d_object_database_item (OBJECT_3D_LEBANON_KEY_INDUSTRY_FC_TANK005_10M_2X2, EXPLOSIVE_QUALITY_EXPLOSIVE, EXPLOSIVE_POWER_HIGH, WARHEAD_EFFECTIVE_LIGHT_BUILDING, 300, IMPORTANCE_LOW, TARGET_TYPE_GROUND, TARGET_SYMBOL_STRUCTURE);

  0049b	6a 07		 push	 7
  0049d	6a 01		 push	 1
  0049f	51		 push	 ecx
  004a0	f3 0f 10 05 00
	00 00 00	 movss	 xmm0, DWORD PTR __real@3e800000
  004a8	f3 0f 11 04 24	 movss	 DWORD PTR [esp], xmm0
  004ad	68 2c 01 00 00	 push	 300			; 0000012cH
  004b2	68 80 00 00 00	 push	 128			; 00000080H
  004b7	6a 03		 push	 3
  004b9	6a 02		 push	 2
  004bb	68 e6 05 00 00	 push	 1510			; 000005e6H
  004c0	e8 00 00 00 00	 call	 ?set_fixed_3d_object_database_item@@YGXHHHHHMW4TARGET_TYPES@@W4TARGET_SYMBOL_TYPES@@@Z ; set_fixed_3d_object_database_item

; 692  : 	set_fixed_3d_object_database_item (OBJECT_3D_LEBANON_KEY_INDUSTRY_FC_TANKGROUP001_10M_1X2, EXPLOSIVE_QUALITY_EXPLOSIVE, EXPLOSIVE_POWER_HIGH, WARHEAD_EFFECTIVE_LIGHT_BUILDING, 300, IMPORTANCE_LOW, TARGET_TYPE_GROUND, TARGET_SYMBOL_STRUCTURE);

  004c5	6a 07		 push	 7
  004c7	6a 01		 push	 1
  004c9	51		 push	 ecx
  004ca	f3 0f 10 05 00
	00 00 00	 movss	 xmm0, DWORD PTR __real@3e800000
  004d2	f3 0f 11 04 24	 movss	 DWORD PTR [esp], xmm0
  004d7	68 2c 01 00 00	 push	 300			; 0000012cH
  004dc	68 80 00 00 00	 push	 128			; 00000080H
  004e1	6a 03		 push	 3
  004e3	6a 02		 push	 2
  004e5	68 e8 05 00 00	 push	 1512			; 000005e8H
  004ea	e8 00 00 00 00	 call	 ?set_fixed_3d_object_database_item@@YGXHHHHHMW4TARGET_TYPES@@W4TARGET_SYMBOL_TYPES@@@Z ; set_fixed_3d_object_database_item

; 693  : 	set_fixed_3d_object_database_item (OBJECT_3D_LEBANON_KEY_INDUSTRY_FC_TANKGROUP002_10M_4X4, EXPLOSIVE_QUALITY_EXPLOSIVE, EXPLOSIVE_POWER_HIGH, WARHEAD_EFFECTIVE_LIGHT_BUILDING, 300, IMPORTANCE_LOW, TARGET_TYPE_GROUND, TARGET_SYMBOL_STRUCTURE);

  004ef	6a 07		 push	 7
  004f1	6a 01		 push	 1
  004f3	51		 push	 ecx
  004f4	f3 0f 10 05 00
	00 00 00	 movss	 xmm0, DWORD PTR __real@3e800000
  004fc	f3 0f 11 04 24	 movss	 DWORD PTR [esp], xmm0
  00501	68 2c 01 00 00	 push	 300			; 0000012cH
  00506	68 80 00 00 00	 push	 128			; 00000080H
  0050b	6a 03		 push	 3
  0050d	6a 02		 push	 2
  0050f	68 ea 05 00 00	 push	 1514			; 000005eaH
  00514	e8 00 00 00 00	 call	 ?set_fixed_3d_object_database_item@@YGXHHHHHMW4TARGET_TYPES@@W4TARGET_SYMBOL_TYPES@@@Z ; set_fixed_3d_object_database_item

; 694  : 
; 695  : 	set_fixed_3d_object_database_item (OBJECT_3D_YEMEN_KEY_OIL_FC_TANK004_10M_2X1, EXPLOSIVE_QUALITY_EXPLOSIVE, EXPLOSIVE_POWER_HIGH, WARHEAD_EFFECTIVE_LIGHT_BUILDING, 300, IMPORTANCE_LOW, TARGET_TYPE_GROUND, TARGET_SYMBOL_STRUCTURE);

  00519	6a 07		 push	 7
  0051b	6a 01		 push	 1
  0051d	51		 push	 ecx
  0051e	f3 0f 10 05 00
	00 00 00	 movss	 xmm0, DWORD PTR __real@3e800000
  00526	f3 0f 11 04 24	 movss	 DWORD PTR [esp], xmm0
  0052b	68 2c 01 00 00	 push	 300			; 0000012cH
  00530	68 80 00 00 00	 push	 128			; 00000080H
  00535	6a 03		 push	 3
  00537	6a 02		 push	 2
  00539	68 61 09 00 00	 push	 2401			; 00000961H
  0053e	e8 00 00 00 00	 call	 ?set_fixed_3d_object_database_item@@YGXHHHHHMW4TARGET_TYPES@@W4TARGET_SYMBOL_TYPES@@@Z ; set_fixed_3d_object_database_item

; 696  : 	set_fixed_3d_object_database_item (OBJECT_3D_YEMEN_KEY_OIL_FC_TANK005_10M_2X2, EXPLOSIVE_QUALITY_EXPLOSIVE, EXPLOSIVE_POWER_HIGH, WARHEAD_EFFECTIVE_LIGHT_BUILDING, 300, IMPORTANCE_LOW, TARGET_TYPE_GROUND, TARGET_SYMBOL_STRUCTURE);

  00543	6a 07		 push	 7
  00545	6a 01		 push	 1
  00547	51		 push	 ecx
  00548	f3 0f 10 05 00
	00 00 00	 movss	 xmm0, DWORD PTR __real@3e800000
  00550	f3 0f 11 04 24	 movss	 DWORD PTR [esp], xmm0
  00555	68 2c 01 00 00	 push	 300			; 0000012cH
  0055a	68 80 00 00 00	 push	 128			; 00000080H
  0055f	6a 03		 push	 3
  00561	6a 02		 push	 2
  00563	68 63 09 00 00	 push	 2403			; 00000963H
  00568	e8 00 00 00 00	 call	 ?set_fixed_3d_object_database_item@@YGXHHHHHMW4TARGET_TYPES@@W4TARGET_SYMBOL_TYPES@@@Z ; set_fixed_3d_object_database_item

; 697  : 	set_fixed_3d_object_database_item (OBJECT_3D_YEMEN_KEY_OIL_FC_TANKGROUP001_10M_1X2, EXPLOSIVE_QUALITY_EXPLOSIVE, EXPLOSIVE_POWER_HIGH, WARHEAD_EFFECTIVE_LIGHT_BUILDING, 300, IMPORTANCE_LOW, TARGET_TYPE_GROUND, TARGET_SYMBOL_STRUCTURE);

  0056d	6a 07		 push	 7
  0056f	6a 01		 push	 1
  00571	51		 push	 ecx
  00572	f3 0f 10 05 00
	00 00 00	 movss	 xmm0, DWORD PTR __real@3e800000
  0057a	f3 0f 11 04 24	 movss	 DWORD PTR [esp], xmm0
  0057f	68 2c 01 00 00	 push	 300			; 0000012cH
  00584	68 80 00 00 00	 push	 128			; 00000080H
  00589	6a 03		 push	 3
  0058b	6a 02		 push	 2
  0058d	68 65 09 00 00	 push	 2405			; 00000965H
  00592	e8 00 00 00 00	 call	 ?set_fixed_3d_object_database_item@@YGXHHHHHMW4TARGET_TYPES@@W4TARGET_SYMBOL_TYPES@@@Z ; set_fixed_3d_object_database_item

; 698  : 	set_fixed_3d_object_database_item (OBJECT_3D_YEMEN_KEY_OIL_FC_TANKGROUP002_10M_4X4, EXPLOSIVE_QUALITY_EXPLOSIVE, EXPLOSIVE_POWER_HIGH, WARHEAD_EFFECTIVE_LIGHT_BUILDING, 300, IMPORTANCE_LOW, TARGET_TYPE_GROUND, TARGET_SYMBOL_STRUCTURE);

  00597	6a 07		 push	 7
  00599	6a 01		 push	 1
  0059b	51		 push	 ecx
  0059c	f3 0f 10 05 00
	00 00 00	 movss	 xmm0, DWORD PTR __real@3e800000
  005a4	f3 0f 11 04 24	 movss	 DWORD PTR [esp], xmm0
  005a9	68 2c 01 00 00	 push	 300			; 0000012cH
  005ae	68 80 00 00 00	 push	 128			; 00000080H
  005b3	6a 03		 push	 3
  005b5	6a 02		 push	 2
  005b7	68 67 09 00 00	 push	 2407			; 00000967H
  005bc	e8 00 00 00 00	 call	 ?set_fixed_3d_object_database_item@@YGXHHHHHMW4TARGET_TYPES@@W4TARGET_SYMBOL_TYPES@@@Z ; set_fixed_3d_object_database_item

; 699  : 	set_fixed_3d_object_database_item (OBJECT_3D_YEMEN_KEY_OIL_FC_TANKS_30X70, EXPLOSIVE_QUALITY_EXPLOSIVE, EXPLOSIVE_POWER_HIGH, WARHEAD_EFFECTIVE_LIGHT_BUILDING, 300, IMPORTANCE_LOW, TARGET_TYPE_GROUND, TARGET_SYMBOL_STRUCTURE);

  005c1	6a 07		 push	 7
  005c3	6a 01		 push	 1
  005c5	51		 push	 ecx
  005c6	f3 0f 10 05 00
	00 00 00	 movss	 xmm0, DWORD PTR __real@3e800000
  005ce	f3 0f 11 04 24	 movss	 DWORD PTR [esp], xmm0
  005d3	68 2c 01 00 00	 push	 300			; 0000012cH
  005d8	68 80 00 00 00	 push	 128			; 00000080H
  005dd	6a 03		 push	 3
  005df	6a 02		 push	 2
  005e1	68 6b 09 00 00	 push	 2411			; 0000096bH
  005e6	e8 00 00 00 00	 call	 ?set_fixed_3d_object_database_item@@YGXHHHHHMW4TARGET_TYPES@@W4TARGET_SYMBOL_TYPES@@@Z ; set_fixed_3d_object_database_item

; 700  : 	set_fixed_3d_object_database_item (OBJECT_3D_YEMEN_KEY_OIL_FC_TANKS_30X50, EXPLOSIVE_QUALITY_EXPLOSIVE, EXPLOSIVE_POWER_HIGH, WARHEAD_EFFECTIVE_LIGHT_BUILDING, 300, IMPORTANCE_LOW, TARGET_TYPE_GROUND, TARGET_SYMBOL_STRUCTURE);

  005eb	6a 07		 push	 7
  005ed	6a 01		 push	 1
  005ef	51		 push	 ecx
  005f0	f3 0f 10 05 00
	00 00 00	 movss	 xmm0, DWORD PTR __real@3e800000
  005f8	f3 0f 11 04 24	 movss	 DWORD PTR [esp], xmm0
  005fd	68 2c 01 00 00	 push	 300			; 0000012cH
  00602	68 80 00 00 00	 push	 128			; 00000080H
  00607	6a 03		 push	 3
  00609	6a 02		 push	 2
  0060b	68 69 09 00 00	 push	 2409			; 00000969H
  00610	e8 00 00 00 00	 call	 ?set_fixed_3d_object_database_item@@YGXHHHHHMW4TARGET_TYPES@@W4TARGET_SYMBOL_TYPES@@@Z ; set_fixed_3d_object_database_item

; 701  : 	set_fixed_3d_object_database_item (OBJECT_3D_YEMEN_KEY_OIL_FC_TANKS_50X50, EXPLOSIVE_QUALITY_EXPLOSIVE, EXPLOSIVE_POWER_HIGH, WARHEAD_EFFECTIVE_LIGHT_BUILDING, 300, IMPORTANCE_LOW, TARGET_TYPE_GROUND, TARGET_SYMBOL_STRUCTURE);

  00615	6a 07		 push	 7
  00617	6a 01		 push	 1
  00619	51		 push	 ecx
  0061a	f3 0f 10 05 00
	00 00 00	 movss	 xmm0, DWORD PTR __real@3e800000
  00622	f3 0f 11 04 24	 movss	 DWORD PTR [esp], xmm0
  00627	68 2c 01 00 00	 push	 300			; 0000012cH
  0062c	68 80 00 00 00	 push	 128			; 00000080H
  00631	6a 03		 push	 3
  00633	6a 02		 push	 2
  00635	68 6f 09 00 00	 push	 2415			; 0000096fH
  0063a	e8 00 00 00 00	 call	 ?set_fixed_3d_object_database_item@@YGXHHHHHMW4TARGET_TYPES@@W4TARGET_SYMBOL_TYPES@@@Z ; set_fixed_3d_object_database_item

; 702  : 	set_fixed_3d_object_database_item (OBJECT_3D_YEMEN_KEY_OIL_FC_TANKS_60X60_01A, EXPLOSIVE_QUALITY_EXPLOSIVE, EXPLOSIVE_POWER_HIGH, WARHEAD_EFFECTIVE_LIGHT_BUILDING, 300, IMPORTANCE_LOW, TARGET_TYPE_GROUND, TARGET_SYMBOL_STRUCTURE);

  0063f	6a 07		 push	 7
  00641	6a 01		 push	 1
  00643	51		 push	 ecx
  00644	f3 0f 10 05 00
	00 00 00	 movss	 xmm0, DWORD PTR __real@3e800000
  0064c	f3 0f 11 04 24	 movss	 DWORD PTR [esp], xmm0
  00651	68 2c 01 00 00	 push	 300			; 0000012cH
  00656	68 80 00 00 00	 push	 128			; 00000080H
  0065b	6a 03		 push	 3
  0065d	6a 02		 push	 2
  0065f	68 71 09 00 00	 push	 2417			; 00000971H
  00664	e8 00 00 00 00	 call	 ?set_fixed_3d_object_database_item@@YGXHHHHHMW4TARGET_TYPES@@W4TARGET_SYMBOL_TYPES@@@Z ; set_fixed_3d_object_database_item

; 703  : 	set_fixed_3d_object_database_item (OBJECT_3D_YEMEN_KEY_OIL_FC_TANKS_70X70_01, EXPLOSIVE_QUALITY_EXPLOSIVE, EXPLOSIVE_POWER_HIGH, WARHEAD_EFFECTIVE_LIGHT_BUILDING, 300, IMPORTANCE_LOW, TARGET_TYPE_GROUND, TARGET_SYMBOL_STRUCTURE);

  00669	6a 07		 push	 7
  0066b	6a 01		 push	 1
  0066d	51		 push	 ecx
  0066e	f3 0f 10 05 00
	00 00 00	 movss	 xmm0, DWORD PTR __real@3e800000
  00676	f3 0f 11 04 24	 movss	 DWORD PTR [esp], xmm0
  0067b	68 2c 01 00 00	 push	 300			; 0000012cH
  00680	68 80 00 00 00	 push	 128			; 00000080H
  00685	6a 03		 push	 3
  00687	6a 02		 push	 2
  00689	68 73 09 00 00	 push	 2419			; 00000973H
  0068e	e8 00 00 00 00	 call	 ?set_fixed_3d_object_database_item@@YGXHHHHHMW4TARGET_TYPES@@W4TARGET_SYMBOL_TYPES@@@Z ; set_fixed_3d_object_database_item

; 704  : 	set_fixed_3d_object_database_item (OBJECT_3D_YEMEN_KEY_OIL_FC_TANKS_70X70_02, EXPLOSIVE_QUALITY_EXPLOSIVE, EXPLOSIVE_POWER_HIGH, WARHEAD_EFFECTIVE_LIGHT_BUILDING, 300, IMPORTANCE_LOW, TARGET_TYPE_GROUND, TARGET_SYMBOL_STRUCTURE);

  00693	6a 07		 push	 7
  00695	6a 01		 push	 1
  00697	51		 push	 ecx
  00698	f3 0f 10 05 00
	00 00 00	 movss	 xmm0, DWORD PTR __real@3e800000
  006a0	f3 0f 11 04 24	 movss	 DWORD PTR [esp], xmm0
  006a5	68 2c 01 00 00	 push	 300			; 0000012cH
  006aa	68 80 00 00 00	 push	 128			; 00000080H
  006af	6a 03		 push	 3
  006b1	6a 02		 push	 2
  006b3	68 75 09 00 00	 push	 2421			; 00000975H
  006b8	e8 00 00 00 00	 call	 ?set_fixed_3d_object_database_item@@YGXHHHHHMW4TARGET_TYPES@@W4TARGET_SYMBOL_TYPES@@@Z ; set_fixed_3d_object_database_item

; 705  : 	set_fixed_3d_object_database_item (OBJECT_3D_YEMEN_KEY_OIL_FC_TANKS_80X80_02A, EXPLOSIVE_QUALITY_EXPLOSIVE, EXPLOSIVE_POWER_HIGH, WARHEAD_EFFECTIVE_LIGHT_BUILDING, 300, IMPORTANCE_LOW, TARGET_TYPE_GROUND, TARGET_SYMBOL_STRUCTURE);

  006bd	6a 07		 push	 7
  006bf	6a 01		 push	 1
  006c1	51		 push	 ecx
  006c2	f3 0f 10 05 00
	00 00 00	 movss	 xmm0, DWORD PTR __real@3e800000
  006ca	f3 0f 11 04 24	 movss	 DWORD PTR [esp], xmm0
  006cf	68 2c 01 00 00	 push	 300			; 0000012cH
  006d4	68 80 00 00 00	 push	 128			; 00000080H
  006d9	6a 03		 push	 3
  006db	6a 02		 push	 2
  006dd	68 77 09 00 00	 push	 2423			; 00000977H
  006e2	e8 00 00 00 00	 call	 ?set_fixed_3d_object_database_item@@YGXHHHHHMW4TARGET_TYPES@@W4TARGET_SYMBOL_TYPES@@@Z ; set_fixed_3d_object_database_item

; 706  : 	set_fixed_3d_object_database_item (OBJECT_3D_YEMEN_KEY_OIL_FC_STORAGE_TANKS_50X30, EXPLOSIVE_QUALITY_EXPLOSIVE, EXPLOSIVE_POWER_HIGH, WARHEAD_EFFECTIVE_LIGHT_BUILDING, 300, IMPORTANCE_LOW, TARGET_TYPE_GROUND, TARGET_SYMBOL_STRUCTURE);

  006e7	6a 07		 push	 7
  006e9	6a 01		 push	 1
  006eb	51		 push	 ecx
  006ec	f3 0f 10 05 00
	00 00 00	 movss	 xmm0, DWORD PTR __real@3e800000
  006f4	f3 0f 11 04 24	 movss	 DWORD PTR [esp], xmm0
  006f9	68 2c 01 00 00	 push	 300			; 0000012cH
  006fe	68 80 00 00 00	 push	 128			; 00000080H
  00703	6a 03		 push	 3
  00705	6a 02		 push	 2
  00707	68 6d 09 00 00	 push	 2413			; 0000096dH
  0070c	e8 00 00 00 00	 call	 ?set_fixed_3d_object_database_item@@YGXHHHHHMW4TARGET_TYPES@@W4TARGET_SYMBOL_TYPES@@@Z ; set_fixed_3d_object_database_item

; 707  : 
; 708  : 	set_fixed_3d_object_database_item (OBJECT_3D_YEMEN_KEY_POWER_FC_TANK004_10M_2X1, EXPLOSIVE_QUALITY_EXPLOSIVE, EXPLOSIVE_POWER_HIGH, WARHEAD_EFFECTIVE_LIGHT_BUILDING, 300, IMPORTANCE_LOW, TARGET_TYPE_GROUND, TARGET_SYMBOL_STRUCTURE);

  00711	6a 07		 push	 7
  00713	6a 01		 push	 1
  00715	51		 push	 ecx
  00716	f3 0f 10 05 00
	00 00 00	 movss	 xmm0, DWORD PTR __real@3e800000
  0071e	f3 0f 11 04 24	 movss	 DWORD PTR [esp], xmm0
  00723	68 2c 01 00 00	 push	 300			; 0000012cH
  00728	68 80 00 00 00	 push	 128			; 00000080H
  0072d	6a 03		 push	 3
  0072f	6a 02		 push	 2
  00731	68 9d 09 00 00	 push	 2461			; 0000099dH
  00736	e8 00 00 00 00	 call	 ?set_fixed_3d_object_database_item@@YGXHHHHHMW4TARGET_TYPES@@W4TARGET_SYMBOL_TYPES@@@Z ; set_fixed_3d_object_database_item

; 709  : 	set_fixed_3d_object_database_item (OBJECT_3D_YEMEN_KEY_POWER_FC_TANK005_10M_2X2, EXPLOSIVE_QUALITY_EXPLOSIVE, EXPLOSIVE_POWER_HIGH, WARHEAD_EFFECTIVE_LIGHT_BUILDING, 300, IMPORTANCE_LOW, TARGET_TYPE_GROUND, TARGET_SYMBOL_STRUCTURE);

  0073b	6a 07		 push	 7
  0073d	6a 01		 push	 1
  0073f	51		 push	 ecx
  00740	f3 0f 10 05 00
	00 00 00	 movss	 xmm0, DWORD PTR __real@3e800000
  00748	f3 0f 11 04 24	 movss	 DWORD PTR [esp], xmm0
  0074d	68 2c 01 00 00	 push	 300			; 0000012cH
  00752	68 80 00 00 00	 push	 128			; 00000080H
  00757	6a 03		 push	 3
  00759	6a 02		 push	 2
  0075b	68 9f 09 00 00	 push	 2463			; 0000099fH
  00760	e8 00 00 00 00	 call	 ?set_fixed_3d_object_database_item@@YGXHHHHHMW4TARGET_TYPES@@W4TARGET_SYMBOL_TYPES@@@Z ; set_fixed_3d_object_database_item

; 710  : 	set_fixed_3d_object_database_item (OBJECT_3D_YEMEN_KEY_POWER_FC_TANKGROUP001_10M_1X2, EXPLOSIVE_QUALITY_EXPLOSIVE, EXPLOSIVE_POWER_HIGH, WARHEAD_EFFECTIVE_LIGHT_BUILDING, 300, IMPORTANCE_LOW, TARGET_TYPE_GROUND, TARGET_SYMBOL_STRUCTURE);

  00765	6a 07		 push	 7
  00767	6a 01		 push	 1
  00769	51		 push	 ecx
  0076a	f3 0f 10 05 00
	00 00 00	 movss	 xmm0, DWORD PTR __real@3e800000
  00772	f3 0f 11 04 24	 movss	 DWORD PTR [esp], xmm0
  00777	68 2c 01 00 00	 push	 300			; 0000012cH
  0077c	68 80 00 00 00	 push	 128			; 00000080H
  00781	6a 03		 push	 3
  00783	6a 02		 push	 2
  00785	68 a1 09 00 00	 push	 2465			; 000009a1H
  0078a	e8 00 00 00 00	 call	 ?set_fixed_3d_object_database_item@@YGXHHHHHMW4TARGET_TYPES@@W4TARGET_SYMBOL_TYPES@@@Z ; set_fixed_3d_object_database_item

; 711  : 	set_fixed_3d_object_database_item (OBJECT_3D_YEMEN_KEY_POWER_FC_TANKGROUP002_10M_4X4, EXPLOSIVE_QUALITY_EXPLOSIVE, EXPLOSIVE_POWER_HIGH, WARHEAD_EFFECTIVE_LIGHT_BUILDING, 300, IMPORTANCE_LOW, TARGET_TYPE_GROUND, TARGET_SYMBOL_STRUCTURE);

  0078f	6a 07		 push	 7
  00791	6a 01		 push	 1
  00793	51		 push	 ecx
  00794	f3 0f 10 05 00
	00 00 00	 movss	 xmm0, DWORD PTR __real@3e800000
  0079c	f3 0f 11 04 24	 movss	 DWORD PTR [esp], xmm0
  007a1	68 2c 01 00 00	 push	 300			; 0000012cH
  007a6	68 80 00 00 00	 push	 128			; 00000080H
  007ab	6a 03		 push	 3
  007ad	6a 02		 push	 2
  007af	68 a3 09 00 00	 push	 2467			; 000009a3H
  007b4	e8 00 00 00 00	 call	 ?set_fixed_3d_object_database_item@@YGXHHHHHMW4TARGET_TYPES@@W4TARGET_SYMBOL_TYPES@@@Z ; set_fixed_3d_object_database_item

; 712  : 
; 713  : 	set_fixed_3d_object_database_item (OBJECT_3D_TAIWAN_KEY_POWER_FC_TANK004_10M_2X1, EXPLOSIVE_QUALITY_EXPLOSIVE, EXPLOSIVE_POWER_HIGH, WARHEAD_EFFECTIVE_LIGHT_BUILDING, 300, IMPORTANCE_LOW, TARGET_TYPE_GROUND, TARGET_SYMBOL_STRUCTURE);

  007b9	6a 07		 push	 7
  007bb	6a 01		 push	 1
  007bd	51		 push	 ecx
  007be	f3 0f 10 05 00
	00 00 00	 movss	 xmm0, DWORD PTR __real@3e800000
  007c6	f3 0f 11 04 24	 movss	 DWORD PTR [esp], xmm0
  007cb	68 2c 01 00 00	 push	 300			; 0000012cH
  007d0	68 80 00 00 00	 push	 128			; 00000080H
  007d5	6a 03		 push	 3
  007d7	6a 02		 push	 2
  007d9	68 8d 08 00 00	 push	 2189			; 0000088dH
  007de	e8 00 00 00 00	 call	 ?set_fixed_3d_object_database_item@@YGXHHHHHMW4TARGET_TYPES@@W4TARGET_SYMBOL_TYPES@@@Z ; set_fixed_3d_object_database_item

; 714  : 	set_fixed_3d_object_database_item (OBJECT_3D_TAIWAN_KEY_POWER_FC_TANK005_10M_2X2, EXPLOSIVE_QUALITY_EXPLOSIVE, EXPLOSIVE_POWER_HIGH, WARHEAD_EFFECTIVE_LIGHT_BUILDING, 300, IMPORTANCE_LOW, TARGET_TYPE_GROUND, TARGET_SYMBOL_STRUCTURE);

  007e3	6a 07		 push	 7
  007e5	6a 01		 push	 1
  007e7	51		 push	 ecx
  007e8	f3 0f 10 05 00
	00 00 00	 movss	 xmm0, DWORD PTR __real@3e800000
  007f0	f3 0f 11 04 24	 movss	 DWORD PTR [esp], xmm0
  007f5	68 2c 01 00 00	 push	 300			; 0000012cH
  007fa	68 80 00 00 00	 push	 128			; 00000080H
  007ff	6a 03		 push	 3
  00801	6a 02		 push	 2
  00803	68 8f 08 00 00	 push	 2191			; 0000088fH
  00808	e8 00 00 00 00	 call	 ?set_fixed_3d_object_database_item@@YGXHHHHHMW4TARGET_TYPES@@W4TARGET_SYMBOL_TYPES@@@Z ; set_fixed_3d_object_database_item

; 715  : 	set_fixed_3d_object_database_item (OBJECT_3D_TAIWAN_KEY_POWER_FC_TANKGROUP001_10M_1X2, EXPLOSIVE_QUALITY_EXPLOSIVE, EXPLOSIVE_POWER_HIGH, WARHEAD_EFFECTIVE_LIGHT_BUILDING, 300, IMPORTANCE_LOW, TARGET_TYPE_GROUND, TARGET_SYMBOL_STRUCTURE);

  0080d	6a 07		 push	 7
  0080f	6a 01		 push	 1
  00811	51		 push	 ecx
  00812	f3 0f 10 05 00
	00 00 00	 movss	 xmm0, DWORD PTR __real@3e800000
  0081a	f3 0f 11 04 24	 movss	 DWORD PTR [esp], xmm0
  0081f	68 2c 01 00 00	 push	 300			; 0000012cH
  00824	68 80 00 00 00	 push	 128			; 00000080H
  00829	6a 03		 push	 3
  0082b	6a 02		 push	 2
  0082d	68 91 08 00 00	 push	 2193			; 00000891H
  00832	e8 00 00 00 00	 call	 ?set_fixed_3d_object_database_item@@YGXHHHHHMW4TARGET_TYPES@@W4TARGET_SYMBOL_TYPES@@@Z ; set_fixed_3d_object_database_item

; 716  : 	set_fixed_3d_object_database_item (OBJECT_3D_TAIWAN_KEY_POWER_FC_TANKGROUP002_10M_4X4, EXPLOSIVE_QUALITY_EXPLOSIVE, EXPLOSIVE_POWER_HIGH, WARHEAD_EFFECTIVE_LIGHT_BUILDING, 300, IMPORTANCE_LOW, TARGET_TYPE_GROUND, TARGET_SYMBOL_STRUCTURE);

  00837	6a 07		 push	 7
  00839	6a 01		 push	 1
  0083b	51		 push	 ecx
  0083c	f3 0f 10 05 00
	00 00 00	 movss	 xmm0, DWORD PTR __real@3e800000
  00844	f3 0f 11 04 24	 movss	 DWORD PTR [esp], xmm0
  00849	68 2c 01 00 00	 push	 300			; 0000012cH
  0084e	68 80 00 00 00	 push	 128			; 00000080H
  00853	6a 03		 push	 3
  00855	6a 02		 push	 2
  00857	68 93 08 00 00	 push	 2195			; 00000893H
  0085c	e8 00 00 00 00	 call	 ?set_fixed_3d_object_database_item@@YGXHHHHHMW4TARGET_TYPES@@W4TARGET_SYMBOL_TYPES@@@Z ; set_fixed_3d_object_database_item

; 717  : 
; 718  : 	set_fixed_3d_object_database_item (OBJECT_3D_TAIWAN_KEY_INDUSTRY_FC_TANK004_10M_2X1, EXPLOSIVE_QUALITY_EXPLOSIVE, EXPLOSIVE_POWER_HIGH, WARHEAD_EFFECTIVE_LIGHT_BUILDING, 300, IMPORTANCE_LOW, TARGET_TYPE_GROUND, TARGET_SYMBOL_STRUCTURE);

  00861	6a 07		 push	 7
  00863	6a 01		 push	 1
  00865	51		 push	 ecx
  00866	f3 0f 10 05 00
	00 00 00	 movss	 xmm0, DWORD PTR __real@3e800000
  0086e	f3 0f 11 04 24	 movss	 DWORD PTR [esp], xmm0
  00873	68 2c 01 00 00	 push	 300			; 0000012cH
  00878	68 80 00 00 00	 push	 128			; 00000080H
  0087d	6a 03		 push	 3
  0087f	6a 02		 push	 2
  00881	68 b7 07 00 00	 push	 1975			; 000007b7H
  00886	e8 00 00 00 00	 call	 ?set_fixed_3d_object_database_item@@YGXHHHHHMW4TARGET_TYPES@@W4TARGET_SYMBOL_TYPES@@@Z ; set_fixed_3d_object_database_item

; 719  : 	set_fixed_3d_object_database_item (OBJECT_3D_TAIWAN_KEY_INDUSTRY_FC_TANK005_10M_2X2, EXPLOSIVE_QUALITY_EXPLOSIVE, EXPLOSIVE_POWER_HIGH, WARHEAD_EFFECTIVE_LIGHT_BUILDING, 300, IMPORTANCE_LOW, TARGET_TYPE_GROUND, TARGET_SYMBOL_STRUCTURE);

  0088b	6a 07		 push	 7
  0088d	6a 01		 push	 1
  0088f	51		 push	 ecx
  00890	f3 0f 10 05 00
	00 00 00	 movss	 xmm0, DWORD PTR __real@3e800000
  00898	f3 0f 11 04 24	 movss	 DWORD PTR [esp], xmm0
  0089d	68 2c 01 00 00	 push	 300			; 0000012cH
  008a2	68 80 00 00 00	 push	 128			; 00000080H
  008a7	6a 03		 push	 3
  008a9	6a 02		 push	 2
  008ab	68 b9 07 00 00	 push	 1977			; 000007b9H
  008b0	e8 00 00 00 00	 call	 ?set_fixed_3d_object_database_item@@YGXHHHHHMW4TARGET_TYPES@@W4TARGET_SYMBOL_TYPES@@@Z ; set_fixed_3d_object_database_item

; 720  : 	set_fixed_3d_object_database_item (OBJECT_3D_TAIWAN_KEY_INDUSTRY_FC_TANKGROUP001_10M_1X2, EXPLOSIVE_QUALITY_EXPLOSIVE, EXPLOSIVE_POWER_HIGH, WARHEAD_EFFECTIVE_LIGHT_BUILDING, 300, IMPORTANCE_LOW, TARGET_TYPE_GROUND, TARGET_SYMBOL_STRUCTURE);

  008b5	6a 07		 push	 7
  008b7	6a 01		 push	 1
  008b9	51		 push	 ecx
  008ba	f3 0f 10 05 00
	00 00 00	 movss	 xmm0, DWORD PTR __real@3e800000
  008c2	f3 0f 11 04 24	 movss	 DWORD PTR [esp], xmm0
  008c7	68 2c 01 00 00	 push	 300			; 0000012cH
  008cc	68 80 00 00 00	 push	 128			; 00000080H
  008d1	6a 03		 push	 3
  008d3	6a 02		 push	 2
  008d5	68 bb 07 00 00	 push	 1979			; 000007bbH
  008da	e8 00 00 00 00	 call	 ?set_fixed_3d_object_database_item@@YGXHHHHHMW4TARGET_TYPES@@W4TARGET_SYMBOL_TYPES@@@Z ; set_fixed_3d_object_database_item

; 721  : 	set_fixed_3d_object_database_item (OBJECT_3D_TAIWAN_KEY_INDUSTRY_FC_TANKGROUP002_10M_4X4, EXPLOSIVE_QUALITY_EXPLOSIVE, EXPLOSIVE_POWER_HIGH, WARHEAD_EFFECTIVE_LIGHT_BUILDING, 300, IMPORTANCE_LOW, TARGET_TYPE_GROUND, TARGET_SYMBOL_STRUCTURE);

  008df	6a 07		 push	 7
  008e1	6a 01		 push	 1
  008e3	51		 push	 ecx
  008e4	f3 0f 10 05 00
	00 00 00	 movss	 xmm0, DWORD PTR __real@3e800000
  008ec	f3 0f 11 04 24	 movss	 DWORD PTR [esp], xmm0
  008f1	68 2c 01 00 00	 push	 300			; 0000012cH
  008f6	68 80 00 00 00	 push	 128			; 00000080H
  008fb	6a 03		 push	 3
  008fd	6a 02		 push	 2
  008ff	68 bd 07 00 00	 push	 1981			; 000007bdH
  00904	e8 00 00 00 00	 call	 ?set_fixed_3d_object_database_item@@YGXHHHHHMW4TARGET_TYPES@@W4TARGET_SYMBOL_TYPES@@@Z ; set_fixed_3d_object_database_item

; 722  : 
; 723  : 	set_fixed_3d_object_database_item (OBJECT_3D_TAIWAN_KEY_OIL_FC_TANK004_10M_2X1, EXPLOSIVE_QUALITY_EXPLOSIVE, EXPLOSIVE_POWER_HIGH, WARHEAD_EFFECTIVE_LIGHT_BUILDING, 300, IMPORTANCE_LOW, TARGET_TYPE_GROUND, TARGET_SYMBOL_STRUCTURE);

  00909	6a 07		 push	 7
  0090b	6a 01		 push	 1
  0090d	51		 push	 ecx
  0090e	f3 0f 10 05 00
	00 00 00	 movss	 xmm0, DWORD PTR __real@3e800000
  00916	f3 0f 11 04 24	 movss	 DWORD PTR [esp], xmm0
  0091b	68 2c 01 00 00	 push	 300			; 0000012cH
  00920	68 80 00 00 00	 push	 128			; 00000080H
  00925	6a 03		 push	 3
  00927	6a 02		 push	 2
  00929	68 55 08 00 00	 push	 2133			; 00000855H
  0092e	e8 00 00 00 00	 call	 ?set_fixed_3d_object_database_item@@YGXHHHHHMW4TARGET_TYPES@@W4TARGET_SYMBOL_TYPES@@@Z ; set_fixed_3d_object_database_item

; 724  : 	set_fixed_3d_object_database_item (OBJECT_3D_TAIWAN_KEY_OIL_FC_TANK005_10M_2X2, EXPLOSIVE_QUALITY_EXPLOSIVE, EXPLOSIVE_POWER_HIGH, WARHEAD_EFFECTIVE_LIGHT_BUILDING, 300, IMPORTANCE_LOW, TARGET_TYPE_GROUND, TARGET_SYMBOL_STRUCTURE);

  00933	6a 07		 push	 7
  00935	6a 01		 push	 1
  00937	51		 push	 ecx
  00938	f3 0f 10 05 00
	00 00 00	 movss	 xmm0, DWORD PTR __real@3e800000
  00940	f3 0f 11 04 24	 movss	 DWORD PTR [esp], xmm0
  00945	68 2c 01 00 00	 push	 300			; 0000012cH
  0094a	68 80 00 00 00	 push	 128			; 00000080H
  0094f	6a 03		 push	 3
  00951	6a 02		 push	 2
  00953	68 57 08 00 00	 push	 2135			; 00000857H
  00958	e8 00 00 00 00	 call	 ?set_fixed_3d_object_database_item@@YGXHHHHHMW4TARGET_TYPES@@W4TARGET_SYMBOL_TYPES@@@Z ; set_fixed_3d_object_database_item

; 725  : 	set_fixed_3d_object_database_item (OBJECT_3D_TAIWAN_KEY_OIL_FC_TANKGROUP001_10M_1X2, EXPLOSIVE_QUALITY_EXPLOSIVE, EXPLOSIVE_POWER_HIGH, WARHEAD_EFFECTIVE_LIGHT_BUILDING, 300, IMPORTANCE_LOW, TARGET_TYPE_GROUND, TARGET_SYMBOL_STRUCTURE);

  0095d	6a 07		 push	 7
  0095f	6a 01		 push	 1
  00961	51		 push	 ecx
  00962	f3 0f 10 05 00
	00 00 00	 movss	 xmm0, DWORD PTR __real@3e800000
  0096a	f3 0f 11 04 24	 movss	 DWORD PTR [esp], xmm0
  0096f	68 2c 01 00 00	 push	 300			; 0000012cH
  00974	68 80 00 00 00	 push	 128			; 00000080H
  00979	6a 03		 push	 3
  0097b	6a 02		 push	 2
  0097d	68 59 08 00 00	 push	 2137			; 00000859H
  00982	e8 00 00 00 00	 call	 ?set_fixed_3d_object_database_item@@YGXHHHHHMW4TARGET_TYPES@@W4TARGET_SYMBOL_TYPES@@@Z ; set_fixed_3d_object_database_item

; 726  : 	set_fixed_3d_object_database_item (OBJECT_3D_TAIWAN_KEY_OIL_FC_TANKGROUP002_10M_4X4, EXPLOSIVE_QUALITY_EXPLOSIVE, EXPLOSIVE_POWER_HIGH, WARHEAD_EFFECTIVE_LIGHT_BUILDING, 300, IMPORTANCE_LOW, TARGET_TYPE_GROUND, TARGET_SYMBOL_STRUCTURE);

  00987	6a 07		 push	 7
  00989	6a 01		 push	 1
  0098b	51		 push	 ecx
  0098c	f3 0f 10 05 00
	00 00 00	 movss	 xmm0, DWORD PTR __real@3e800000
  00994	f3 0f 11 04 24	 movss	 DWORD PTR [esp], xmm0
  00999	68 2c 01 00 00	 push	 300			; 0000012cH
  0099e	68 80 00 00 00	 push	 128			; 00000080H
  009a3	6a 03		 push	 3
  009a5	6a 02		 push	 2
  009a7	68 5b 08 00 00	 push	 2139			; 0000085bH
  009ac	e8 00 00 00 00	 call	 ?set_fixed_3d_object_database_item@@YGXHHHHHMW4TARGET_TYPES@@W4TARGET_SYMBOL_TYPES@@@Z ; set_fixed_3d_object_database_item

; 727  : 	set_fixed_3d_object_database_item (OBJECT_3D_TAIWAN_KEY_OIL_FC_TANKS_30X70, EXPLOSIVE_QUALITY_EXPLOSIVE, EXPLOSIVE_POWER_HIGH, WARHEAD_EFFECTIVE_LIGHT_BUILDING, 300, IMPORTANCE_LOW, TARGET_TYPE_GROUND, TARGET_SYMBOL_STRUCTURE);

  009b1	6a 07		 push	 7
  009b3	6a 01		 push	 1
  009b5	51		 push	 ecx
  009b6	f3 0f 10 05 00
	00 00 00	 movss	 xmm0, DWORD PTR __real@3e800000
  009be	f3 0f 11 04 24	 movss	 DWORD PTR [esp], xmm0
  009c3	68 2c 01 00 00	 push	 300			; 0000012cH
  009c8	68 80 00 00 00	 push	 128			; 00000080H
  009cd	6a 03		 push	 3
  009cf	6a 02		 push	 2
  009d1	68 5f 08 00 00	 push	 2143			; 0000085fH
  009d6	e8 00 00 00 00	 call	 ?set_fixed_3d_object_database_item@@YGXHHHHHMW4TARGET_TYPES@@W4TARGET_SYMBOL_TYPES@@@Z ; set_fixed_3d_object_database_item

; 728  : 	set_fixed_3d_object_database_item (OBJECT_3D_TAIWAN_KEY_OIL_FC_TANKS_30X50, EXPLOSIVE_QUALITY_EXPLOSIVE, EXPLOSIVE_POWER_HIGH, WARHEAD_EFFECTIVE_LIGHT_BUILDING, 300, IMPORTANCE_LOW, TARGET_TYPE_GROUND, TARGET_SYMBOL_STRUCTURE);

  009db	6a 07		 push	 7
  009dd	6a 01		 push	 1
  009df	51		 push	 ecx
  009e0	f3 0f 10 05 00
	00 00 00	 movss	 xmm0, DWORD PTR __real@3e800000
  009e8	f3 0f 11 04 24	 movss	 DWORD PTR [esp], xmm0
  009ed	68 2c 01 00 00	 push	 300			; 0000012cH
  009f2	68 80 00 00 00	 push	 128			; 00000080H
  009f7	6a 03		 push	 3
  009f9	6a 02		 push	 2
  009fb	68 5d 08 00 00	 push	 2141			; 0000085dH
  00a00	e8 00 00 00 00	 call	 ?set_fixed_3d_object_database_item@@YGXHHHHHMW4TARGET_TYPES@@W4TARGET_SYMBOL_TYPES@@@Z ; set_fixed_3d_object_database_item

; 729  : 	set_fixed_3d_object_database_item (OBJECT_3D_TAIWAN_KEY_OIL_FC_TANKS_50X50, EXPLOSIVE_QUALITY_EXPLOSIVE, EXPLOSIVE_POWER_HIGH, WARHEAD_EFFECTIVE_LIGHT_BUILDING, 300, IMPORTANCE_LOW, TARGET_TYPE_GROUND, TARGET_SYMBOL_STRUCTURE);

  00a05	6a 07		 push	 7
  00a07	6a 01		 push	 1
  00a09	51		 push	 ecx
  00a0a	f3 0f 10 05 00
	00 00 00	 movss	 xmm0, DWORD PTR __real@3e800000
  00a12	f3 0f 11 04 24	 movss	 DWORD PTR [esp], xmm0
  00a17	68 2c 01 00 00	 push	 300			; 0000012cH
  00a1c	68 80 00 00 00	 push	 128			; 00000080H
  00a21	6a 03		 push	 3
  00a23	6a 02		 push	 2
  00a25	68 63 08 00 00	 push	 2147			; 00000863H
  00a2a	e8 00 00 00 00	 call	 ?set_fixed_3d_object_database_item@@YGXHHHHHMW4TARGET_TYPES@@W4TARGET_SYMBOL_TYPES@@@Z ; set_fixed_3d_object_database_item

; 730  : 	set_fixed_3d_object_database_item (OBJECT_3D_TAIWAN_KEY_OIL_FC_TANKS_60X60_01A, EXPLOSIVE_QUALITY_EXPLOSIVE, EXPLOSIVE_POWER_HIGH, WARHEAD_EFFECTIVE_LIGHT_BUILDING, 300, IMPORTANCE_LOW, TARGET_TYPE_GROUND, TARGET_SYMBOL_STRUCTURE);

  00a2f	6a 07		 push	 7
  00a31	6a 01		 push	 1
  00a33	51		 push	 ecx
  00a34	f3 0f 10 05 00
	00 00 00	 movss	 xmm0, DWORD PTR __real@3e800000
  00a3c	f3 0f 11 04 24	 movss	 DWORD PTR [esp], xmm0
  00a41	68 2c 01 00 00	 push	 300			; 0000012cH
  00a46	68 80 00 00 00	 push	 128			; 00000080H
  00a4b	6a 03		 push	 3
  00a4d	6a 02		 push	 2
  00a4f	68 65 08 00 00	 push	 2149			; 00000865H
  00a54	e8 00 00 00 00	 call	 ?set_fixed_3d_object_database_item@@YGXHHHHHMW4TARGET_TYPES@@W4TARGET_SYMBOL_TYPES@@@Z ; set_fixed_3d_object_database_item

; 731  : 	set_fixed_3d_object_database_item (OBJECT_3D_TAIWAN_KEY_OIL_FC_TANKS_70X70_01, EXPLOSIVE_QUALITY_EXPLOSIVE, EXPLOSIVE_POWER_HIGH, WARHEAD_EFFECTIVE_LIGHT_BUILDING, 300, IMPORTANCE_LOW, TARGET_TYPE_GROUND, TARGET_SYMBOL_STRUCTURE);

  00a59	6a 07		 push	 7
  00a5b	6a 01		 push	 1
  00a5d	51		 push	 ecx
  00a5e	f3 0f 10 05 00
	00 00 00	 movss	 xmm0, DWORD PTR __real@3e800000
  00a66	f3 0f 11 04 24	 movss	 DWORD PTR [esp], xmm0
  00a6b	68 2c 01 00 00	 push	 300			; 0000012cH
  00a70	68 80 00 00 00	 push	 128			; 00000080H
  00a75	6a 03		 push	 3
  00a77	6a 02		 push	 2
  00a79	68 67 08 00 00	 push	 2151			; 00000867H
  00a7e	e8 00 00 00 00	 call	 ?set_fixed_3d_object_database_item@@YGXHHHHHMW4TARGET_TYPES@@W4TARGET_SYMBOL_TYPES@@@Z ; set_fixed_3d_object_database_item

; 732  : 	set_fixed_3d_object_database_item (OBJECT_3D_TAIWAN_KEY_OIL_FC_TANKS_70X70_02, EXPLOSIVE_QUALITY_EXPLOSIVE, EXPLOSIVE_POWER_HIGH, WARHEAD_EFFECTIVE_LIGHT_BUILDING, 300, IMPORTANCE_LOW, TARGET_TYPE_GROUND, TARGET_SYMBOL_STRUCTURE);

  00a83	6a 07		 push	 7
  00a85	6a 01		 push	 1
  00a87	51		 push	 ecx
  00a88	f3 0f 10 05 00
	00 00 00	 movss	 xmm0, DWORD PTR __real@3e800000
  00a90	f3 0f 11 04 24	 movss	 DWORD PTR [esp], xmm0
  00a95	68 2c 01 00 00	 push	 300			; 0000012cH
  00a9a	68 80 00 00 00	 push	 128			; 00000080H
  00a9f	6a 03		 push	 3
  00aa1	6a 02		 push	 2
  00aa3	68 69 08 00 00	 push	 2153			; 00000869H
  00aa8	e8 00 00 00 00	 call	 ?set_fixed_3d_object_database_item@@YGXHHHHHMW4TARGET_TYPES@@W4TARGET_SYMBOL_TYPES@@@Z ; set_fixed_3d_object_database_item

; 733  : 	set_fixed_3d_object_database_item (OBJECT_3D_TAIWAN_KEY_OIL_FC_TANKS_80X80_02A, EXPLOSIVE_QUALITY_EXPLOSIVE, EXPLOSIVE_POWER_HIGH, WARHEAD_EFFECTIVE_LIGHT_BUILDING, 300, IMPORTANCE_LOW, TARGET_TYPE_GROUND, TARGET_SYMBOL_STRUCTURE);

  00aad	6a 07		 push	 7
  00aaf	6a 01		 push	 1
  00ab1	51		 push	 ecx
  00ab2	f3 0f 10 05 00
	00 00 00	 movss	 xmm0, DWORD PTR __real@3e800000
  00aba	f3 0f 11 04 24	 movss	 DWORD PTR [esp], xmm0
  00abf	68 2c 01 00 00	 push	 300			; 0000012cH
  00ac4	68 80 00 00 00	 push	 128			; 00000080H
  00ac9	6a 03		 push	 3
  00acb	6a 02		 push	 2
  00acd	68 6b 08 00 00	 push	 2155			; 0000086bH
  00ad2	e8 00 00 00 00	 call	 ?set_fixed_3d_object_database_item@@YGXHHHHHMW4TARGET_TYPES@@W4TARGET_SYMBOL_TYPES@@@Z ; set_fixed_3d_object_database_item

; 734  : 	set_fixed_3d_object_database_item (OBJECT_3D_TAIWAN_KEY_OIL_FC_STORAGE_TANKS_50X30, EXPLOSIVE_QUALITY_EXPLOSIVE, EXPLOSIVE_POWER_HIGH, WARHEAD_EFFECTIVE_LIGHT_BUILDING, 300, IMPORTANCE_LOW, TARGET_TYPE_GROUND, TARGET_SYMBOL_STRUCTURE);

  00ad7	6a 07		 push	 7
  00ad9	6a 01		 push	 1
  00adb	51		 push	 ecx
  00adc	f3 0f 10 05 00
	00 00 00	 movss	 xmm0, DWORD PTR __real@3e800000
  00ae4	f3 0f 11 04 24	 movss	 DWORD PTR [esp], xmm0
  00ae9	68 2c 01 00 00	 push	 300			; 0000012cH
  00aee	68 80 00 00 00	 push	 128			; 00000080H
  00af3	6a 03		 push	 3
  00af5	6a 02		 push	 2
  00af7	68 61 08 00 00	 push	 2145			; 00000861H
  00afc	e8 00 00 00 00	 call	 ?set_fixed_3d_object_database_item@@YGXHHHHHMW4TARGET_TYPES@@W4TARGET_SYMBOL_TYPES@@@Z ; set_fixed_3d_object_database_item

; 735  : 
; 736  : 	set_fixed_3d_object_database_item (OBJECT_3D_TAIWAN_KEY_MILITARY_FC_TANKGROUP002_10M_4X4, EXPLOSIVE_QUALITY_EXPLOSIVE, EXPLOSIVE_POWER_HIGH, WARHEAD_EFFECTIVE_LIGHT_BUILDING, 300, IMPORTANCE_LOW, TARGET_TYPE_GROUND, TARGET_SYMBOL_STRUCTURE);

  00b01	6a 07		 push	 7
  00b03	6a 01		 push	 1
  00b05	51		 push	 ecx
  00b06	f3 0f 10 05 00
	00 00 00	 movss	 xmm0, DWORD PTR __real@3e800000
  00b0e	f3 0f 11 04 24	 movss	 DWORD PTR [esp], xmm0
  00b13	68 2c 01 00 00	 push	 300			; 0000012cH
  00b18	68 80 00 00 00	 push	 128			; 00000080H
  00b1d	6a 03		 push	 3
  00b1f	6a 02		 push	 2
  00b21	68 f9 07 00 00	 push	 2041			; 000007f9H
  00b26	e8 00 00 00 00	 call	 ?set_fixed_3d_object_database_item@@YGXHHHHHMW4TARGET_TYPES@@W4TARGET_SYMBOL_TYPES@@@Z ; set_fixed_3d_object_database_item

; 737  : 
; 738  : 	set_fixed_3d_object_database_item (OBJECT_3D_KEY_MILITARY_FC_TANKGROUP002_10M_4X4, EXPLOSIVE_QUALITY_EXPLOSIVE, EXPLOSIVE_POWER_HIGH, WARHEAD_EFFECTIVE_LIGHT_BUILDING, 300, IMPORTANCE_LOW, TARGET_TYPE_GROUND, TARGET_SYMBOL_STRUCTURE);

  00b2b	6a 07		 push	 7
  00b2d	6a 01		 push	 1
  00b2f	51		 push	 ecx
  00b30	f3 0f 10 05 00
	00 00 00	 movss	 xmm0, DWORD PTR __real@3e800000
  00b38	f3 0f 11 04 24	 movss	 DWORD PTR [esp], xmm0
  00b3d	68 2c 01 00 00	 push	 300			; 0000012cH
  00b42	68 80 00 00 00	 push	 128			; 00000080H
  00b47	6a 03		 push	 3
  00b49	6a 02		 push	 2
  00b4b	68 22 06 00 00	 push	 1570			; 00000622H
  00b50	e8 00 00 00 00	 call	 ?set_fixed_3d_object_database_item@@YGXHHHHHMW4TARGET_TYPES@@W4TARGET_SYMBOL_TYPES@@@Z ; set_fixed_3d_object_database_item

; 739  : 	set_fixed_3d_object_database_item (OBJECT_3D_KEY_PORT_FC_TANKGROUP002_10M_4X4, EXPLOSIVE_QUALITY_EXPLOSIVE, EXPLOSIVE_POWER_HIGH, WARHEAD_EFFECTIVE_LIGHT_BUILDING, 300, IMPORTANCE_LOW, TARGET_TYPE_GROUND, TARGET_SYMBOL_STRUCTURE);

  00b55	6a 07		 push	 7
  00b57	6a 01		 push	 1
  00b59	51		 push	 ecx
  00b5a	f3 0f 10 05 00
	00 00 00	 movss	 xmm0, DWORD PTR __real@3e800000
  00b62	f3 0f 11 04 24	 movss	 DWORD PTR [esp], xmm0
  00b67	68 2c 01 00 00	 push	 300			; 0000012cH
  00b6c	68 80 00 00 00	 push	 128			; 00000080H
  00b71	6a 03		 push	 3
  00b73	6a 02		 push	 2
  00b75	68 a7 06 00 00	 push	 1703			; 000006a7H
  00b7a	e8 00 00 00 00	 call	 ?set_fixed_3d_object_database_item@@YGXHHHHHMW4TARGET_TYPES@@W4TARGET_SYMBOL_TYPES@@@Z ; set_fixed_3d_object_database_item

; 740  : 
; 741  : 	// INVALID TARGETS
; 742  : }

  00b7f	5f		 pop	 edi
  00b80	5e		 pop	 esi
  00b81	5b		 pop	 ebx
  00b82	8b e5		 mov	 esp, ebp
  00b84	5d		 pop	 ebp
  00b85	c3		 ret	 0
?initialise_low_importance_high_explosive_buildings@@YGXXZ ENDP ; initialise_low_importance_high_explosive_buildings
_TEXT	ENDS
; Function compile flags: /Odtp /ZI
; File c:\users\nhv90\projects\eech\aphavoc\source\entity\fixed\fx_objdb.c
;	COMDAT ?initialise_low_importance_small_stone_buildings@@YGXXZ
_TEXT	SEGMENT
?initialise_low_importance_small_stone_buildings@@YGXXZ PROC ; initialise_low_importance_small_stone_buildings, COMDAT

; 612  : {

  00000	55		 push	 ebp
  00001	8b ec		 mov	 ebp, esp
  00003	83 ec 40	 sub	 esp, 64			; 00000040H
  00006	53		 push	 ebx
  00007	56		 push	 esi
  00008	57		 push	 edi

; 613  : 	////////////////////////////////////////////////////////////////////////////////////
; 614  : 	//
; 615  : 	// LOW IMPORTANCE SMALL STONE BUILDINGS
; 616  : 	//
; 617  : 	////////////////////////////////////////////////////////////////////////////////////
; 618  : 
; 619  : 	// VALID TARGETS
; 620  : 
; 621  : 	set_fixed_3d_object_database_item (OBJECT_3D_AMERICAN_GUARD_POST01, EXPLOSIVE_QUALITY_DUST, EXPLOSIVE_POWER_LOW, WARHEAD_EFFECTIVE_STONE_BUILDING, 500, IMPORTANCE_LOW, TARGET_TYPE_GROUND, TARGET_SYMBOL_STRUCTURE);

  00009	6a 07		 push	 7
  0000b	6a 01		 push	 1
  0000d	51		 push	 ecx
  0000e	f3 0f 10 05 00
	00 00 00	 movss	 xmm0, DWORD PTR __real@3e800000
  00016	f3 0f 11 04 24	 movss	 DWORD PTR [esp], xmm0
  0001b	68 f4 01 00 00	 push	 500			; 000001f4H
  00020	68 00 01 00 00	 push	 256			; 00000100H
  00025	6a 01		 push	 1
  00027	6a 01		 push	 1
  00029	6a 55		 push	 85			; 00000055H
  0002b	e8 00 00 00 00	 call	 ?set_fixed_3d_object_database_item@@YGXHHHHHMW4TARGET_TYPES@@W4TARGET_SYMBOL_TYPES@@@Z ; set_fixed_3d_object_database_item

; 622  : 	set_fixed_3d_object_database_item (OBJECT_3D_AMERICAN_BUILDING01, EXPLOSIVE_QUALITY_DUST, EXPLOSIVE_POWER_LOW, WARHEAD_EFFECTIVE_STONE_BUILDING, 500, IMPORTANCE_LOW, TARGET_TYPE_GROUND, TARGET_SYMBOL_STRUCTURE);

  00030	6a 07		 push	 7
  00032	6a 01		 push	 1
  00034	51		 push	 ecx
  00035	f3 0f 10 05 00
	00 00 00	 movss	 xmm0, DWORD PTR __real@3e800000
  0003d	f3 0f 11 04 24	 movss	 DWORD PTR [esp], xmm0
  00042	68 f4 01 00 00	 push	 500			; 000001f4H
  00047	68 00 01 00 00	 push	 256			; 00000100H
  0004c	6a 01		 push	 1
  0004e	6a 01		 push	 1
  00050	6a 37		 push	 55			; 00000037H
  00052	e8 00 00 00 00	 call	 ?set_fixed_3d_object_database_item@@YGXHHHHHMW4TARGET_TYPES@@W4TARGET_SYMBOL_TYPES@@@Z ; set_fixed_3d_object_database_item

; 623  : 	set_fixed_3d_object_database_item (OBJECT_3D_AMERICAN_BUILDING02, EXPLOSIVE_QUALITY_DUST, EXPLOSIVE_POWER_LOW, WARHEAD_EFFECTIVE_STONE_BUILDING, 500, IMPORTANCE_LOW, TARGET_TYPE_GROUND, TARGET_SYMBOL_STRUCTURE);

  00057	6a 07		 push	 7
  00059	6a 01		 push	 1
  0005b	51		 push	 ecx
  0005c	f3 0f 10 05 00
	00 00 00	 movss	 xmm0, DWORD PTR __real@3e800000
  00064	f3 0f 11 04 24	 movss	 DWORD PTR [esp], xmm0
  00069	68 f4 01 00 00	 push	 500			; 000001f4H
  0006e	68 00 01 00 00	 push	 256			; 00000100H
  00073	6a 01		 push	 1
  00075	6a 01		 push	 1
  00077	6a 39		 push	 57			; 00000039H
  00079	e8 00 00 00 00	 call	 ?set_fixed_3d_object_database_item@@YGXHHHHHMW4TARGET_TYPES@@W4TARGET_SYMBOL_TYPES@@@Z ; set_fixed_3d_object_database_item

; 624  : 	set_fixed_3d_object_database_item (OBJECT_3D_AMERICAN_HUT01, EXPLOSIVE_QUALITY_DUST, EXPLOSIVE_POWER_LOW, WARHEAD_EFFECTIVE_STONE_BUILDING, 500, IMPORTANCE_LOW, TARGET_TYPE_GROUND, TARGET_SYMBOL_STRUCTURE);

  0007e	6a 07		 push	 7
  00080	6a 01		 push	 1
  00082	51		 push	 ecx
  00083	f3 0f 10 05 00
	00 00 00	 movss	 xmm0, DWORD PTR __real@3e800000
  0008b	f3 0f 11 04 24	 movss	 DWORD PTR [esp], xmm0
  00090	68 f4 01 00 00	 push	 500			; 000001f4H
  00095	68 00 01 00 00	 push	 256			; 00000100H
  0009a	6a 01		 push	 1
  0009c	6a 01		 push	 1
  0009e	6a 63		 push	 99			; 00000063H
  000a0	e8 00 00 00 00	 call	 ?set_fixed_3d_object_database_item@@YGXHHHHHMW4TARGET_TYPES@@W4TARGET_SYMBOL_TYPES@@@Z ; set_fixed_3d_object_database_item

; 625  : 
; 626  : 	set_fixed_3d_object_database_item (OBJECT_3D_MILITARY_FC_AMERICAN_GUARD_POST01, EXPLOSIVE_QUALITY_DUST, EXPLOSIVE_POWER_LOW, WARHEAD_EFFECTIVE_STONE_BUILDING, 500, IMPORTANCE_LOW, TARGET_TYPE_GROUND, TARGET_SYMBOL_STRUCTURE);

  000a5	6a 07		 push	 7
  000a7	6a 01		 push	 1
  000a9	51		 push	 ecx
  000aa	f3 0f 10 05 00
	00 00 00	 movss	 xmm0, DWORD PTR __real@3e800000
  000b2	f3 0f 11 04 24	 movss	 DWORD PTR [esp], xmm0
  000b7	68 f4 01 00 00	 push	 500			; 000001f4H
  000bc	68 00 01 00 00	 push	 256			; 00000100H
  000c1	6a 01		 push	 1
  000c3	6a 01		 push	 1
  000c5	68 91 02 00 00	 push	 657			; 00000291H
  000ca	e8 00 00 00 00	 call	 ?set_fixed_3d_object_database_item@@YGXHHHHHMW4TARGET_TYPES@@W4TARGET_SYMBOL_TYPES@@@Z ; set_fixed_3d_object_database_item

; 627  : 	set_fixed_3d_object_database_item (OBJECT_3D_MILITARY_FR_AMERICAN_HUT01, EXPLOSIVE_QUALITY_DUST, EXPLOSIVE_POWER_LOW, WARHEAD_EFFECTIVE_STONE_BUILDING, 500, IMPORTANCE_LOW, TARGET_TYPE_GROUND, TARGET_SYMBOL_STRUCTURE);

  000cf	6a 07		 push	 7
  000d1	6a 01		 push	 1
  000d3	51		 push	 ecx
  000d4	f3 0f 10 05 00
	00 00 00	 movss	 xmm0, DWORD PTR __real@3e800000
  000dc	f3 0f 11 04 24	 movss	 DWORD PTR [esp], xmm0
  000e1	68 f4 01 00 00	 push	 500			; 000001f4H
  000e6	68 00 01 00 00	 push	 256			; 00000100H
  000eb	6a 01		 push	 1
  000ed	6a 01		 push	 1
  000ef	68 93 02 00 00	 push	 659			; 00000293H
  000f4	e8 00 00 00 00	 call	 ?set_fixed_3d_object_database_item@@YGXHHHHHMW4TARGET_TYPES@@W4TARGET_SYMBOL_TYPES@@@Z ; set_fixed_3d_object_database_item

; 628  : 	set_fixed_3d_object_database_item (OBJECT_3D_MILITARY_FR_AMERICAN_SHED01, EXPLOSIVE_QUALITY_DUST, EXPLOSIVE_POWER_LOW, WARHEAD_EFFECTIVE_STONE_BUILDING, 500, IMPORTANCE_LOW, TARGET_TYPE_GROUND, TARGET_SYMBOL_STRUCTURE);

  000f9	6a 07		 push	 7
  000fb	6a 01		 push	 1
  000fd	51		 push	 ecx
  000fe	f3 0f 10 05 00
	00 00 00	 movss	 xmm0, DWORD PTR __real@3e800000
  00106	f3 0f 11 04 24	 movss	 DWORD PTR [esp], xmm0
  0010b	68 f4 01 00 00	 push	 500			; 000001f4H
  00110	68 00 01 00 00	 push	 256			; 00000100H
  00115	6a 01		 push	 1
  00117	6a 01		 push	 1
  00119	68 99 02 00 00	 push	 665			; 00000299H
  0011e	e8 00 00 00 00	 call	 ?set_fixed_3d_object_database_item@@YGXHHHHHMW4TARGET_TYPES@@W4TARGET_SYMBOL_TYPES@@@Z ; set_fixed_3d_object_database_item

; 629  : 
; 630  : 	set_fixed_3d_object_database_item (OBJECT_3D_LEBANON_KEY_MILITARY_FC_AMERICAN_SHED01, EXPLOSIVE_QUALITY_DUST, EXPLOSIVE_POWER_LOW, WARHEAD_EFFECTIVE_STONE_BUILDING, 500, IMPORTANCE_LOW, TARGET_TYPE_GROUND, TARGET_SYMBOL_STRUCTURE);

  00123	6a 07		 push	 7
  00125	6a 01		 push	 1
  00127	51		 push	 ecx
  00128	f3 0f 10 05 00
	00 00 00	 movss	 xmm0, DWORD PTR __real@3e800000
  00130	f3 0f 11 04 24	 movss	 DWORD PTR [esp], xmm0
  00135	68 f4 01 00 00	 push	 500			; 000001f4H
  0013a	68 00 01 00 00	 push	 256			; 00000100H
  0013f	6a 01		 push	 1
  00141	6a 01		 push	 1
  00143	68 14 06 00 00	 push	 1556			; 00000614H
  00148	e8 00 00 00 00	 call	 ?set_fixed_3d_object_database_item@@YGXHHHHHMW4TARGET_TYPES@@W4TARGET_SYMBOL_TYPES@@@Z ; set_fixed_3d_object_database_item

; 631  : 
; 632  : 	set_fixed_3d_object_database_item (OBJECT_3D_TAIWAN_KEY_MILITARY_FC_AMERICAN_SHED01, EXPLOSIVE_QUALITY_DUST, EXPLOSIVE_POWER_LOW, WARHEAD_EFFECTIVE_STONE_BUILDING, 500, IMPORTANCE_LOW, TARGET_TYPE_GROUND, TARGET_SYMBOL_STRUCTURE);

  0014d	6a 07		 push	 7
  0014f	6a 01		 push	 1
  00151	51		 push	 ecx
  00152	f3 0f 10 05 00
	00 00 00	 movss	 xmm0, DWORD PTR __real@3e800000
  0015a	f3 0f 11 04 24	 movss	 DWORD PTR [esp], xmm0
  0015f	68 f4 01 00 00	 push	 500			; 000001f4H
  00164	68 00 01 00 00	 push	 256			; 00000100H
  00169	6a 01		 push	 1
  0016b	6a 01		 push	 1
  0016d	68 eb 07 00 00	 push	 2027			; 000007ebH
  00172	e8 00 00 00 00	 call	 ?set_fixed_3d_object_database_item@@YGXHHHHHMW4TARGET_TYPES@@W4TARGET_SYMBOL_TYPES@@@Z ; set_fixed_3d_object_database_item

; 633  : 	set_fixed_3d_object_database_item (OBJECT_3D_TAIWAN_KEY_MILITARY_FR_AMERICAN_HUT01, EXPLOSIVE_QUALITY_DUST, EXPLOSIVE_POWER_LOW, WARHEAD_EFFECTIVE_STONE_BUILDING, 500, IMPORTANCE_LOW, TARGET_TYPE_GROUND, TARGET_SYMBOL_STRUCTURE);

  00177	6a 07		 push	 7
  00179	6a 01		 push	 1
  0017b	51		 push	 ecx
  0017c	f3 0f 10 05 00
	00 00 00	 movss	 xmm0, DWORD PTR __real@3e800000
  00184	f3 0f 11 04 24	 movss	 DWORD PTR [esp], xmm0
  00189	68 f4 01 00 00	 push	 500			; 000001f4H
  0018e	68 00 01 00 00	 push	 256			; 00000100H
  00193	6a 01		 push	 1
  00195	6a 01		 push	 1
  00197	68 e9 07 00 00	 push	 2025			; 000007e9H
  0019c	e8 00 00 00 00	 call	 ?set_fixed_3d_object_database_item@@YGXHHHHHMW4TARGET_TYPES@@W4TARGET_SYMBOL_TYPES@@@Z ; set_fixed_3d_object_database_item

; 634  : 
; 635  : 	set_fixed_3d_object_database_item (OBJECT_3D_Y_KEY_MILITARY_FC_HUT01, EXPLOSIVE_QUALITY_DUST, EXPLOSIVE_POWER_LOW, WARHEAD_EFFECTIVE_STONE_BUILDING, 500, IMPORTANCE_LOW, TARGET_TYPE_GROUND, TARGET_SYMBOL_STRUCTURE);

  001a1	6a 07		 push	 7
  001a3	6a 01		 push	 1
  001a5	51		 push	 ecx
  001a6	f3 0f 10 05 00
	00 00 00	 movss	 xmm0, DWORD PTR __real@3e800000
  001ae	f3 0f 11 04 24	 movss	 DWORD PTR [esp], xmm0
  001b3	68 f4 01 00 00	 push	 500			; 000001f4H
  001b8	68 00 01 00 00	 push	 256			; 00000100H
  001bd	6a 01		 push	 1
  001bf	6a 01		 push	 1
  001c1	68 17 09 00 00	 push	 2327			; 00000917H
  001c6	e8 00 00 00 00	 call	 ?set_fixed_3d_object_database_item@@YGXHHHHHMW4TARGET_TYPES@@W4TARGET_SYMBOL_TYPES@@@Z ; set_fixed_3d_object_database_item

; 636  : 
; 637  : 	set_fixed_3d_object_database_item (OBJECT_3D_KEY_PORT_FC_SHED002_13M_5X3, EXPLOSIVE_QUALITY_DUST, EXPLOSIVE_POWER_LOW, WARHEAD_EFFECTIVE_STONE_BUILDING, 500, IMPORTANCE_LOW, TARGET_TYPE_GROUND, TARGET_SYMBOL_STRUCTURE);

  001cb	6a 07		 push	 7
  001cd	6a 01		 push	 1
  001cf	51		 push	 ecx
  001d0	f3 0f 10 05 00
	00 00 00	 movss	 xmm0, DWORD PTR __real@3e800000
  001d8	f3 0f 11 04 24	 movss	 DWORD PTR [esp], xmm0
  001dd	68 f4 01 00 00	 push	 500			; 000001f4H
  001e2	68 00 01 00 00	 push	 256			; 00000100H
  001e7	6a 01		 push	 1
  001e9	6a 01		 push	 1
  001eb	68 9f 06 00 00	 push	 1695			; 0000069fH
  001f0	e8 00 00 00 00	 call	 ?set_fixed_3d_object_database_item@@YGXHHHHHMW4TARGET_TYPES@@W4TARGET_SYMBOL_TYPES@@@Z ; set_fixed_3d_object_database_item

; 638  : 	set_fixed_3d_object_database_item (OBJECT_3D_KEY_PORT_FC_SHED002_13M_10X3, EXPLOSIVE_QUALITY_DUST, EXPLOSIVE_POWER_LOW, WARHEAD_EFFECTIVE_STONE_BUILDING, 500, IMPORTANCE_LOW, TARGET_TYPE_GROUND, TARGET_SYMBOL_STRUCTURE);

  001f5	6a 07		 push	 7
  001f7	6a 01		 push	 1
  001f9	51		 push	 ecx
  001fa	f3 0f 10 05 00
	00 00 00	 movss	 xmm0, DWORD PTR __real@3e800000
  00202	f3 0f 11 04 24	 movss	 DWORD PTR [esp], xmm0
  00207	68 f4 01 00 00	 push	 500			; 000001f4H
  0020c	68 00 01 00 00	 push	 256			; 00000100H
  00211	6a 01		 push	 1
  00213	6a 01		 push	 1
  00215	68 9d 06 00 00	 push	 1693			; 0000069dH
  0021a	e8 00 00 00 00	 call	 ?set_fixed_3d_object_database_item@@YGXHHHHHMW4TARGET_TYPES@@W4TARGET_SYMBOL_TYPES@@@Z ; set_fixed_3d_object_database_item

; 639  : 
; 640  : 	// INVALID TARGETS
; 641  : }

  0021f	5f		 pop	 edi
  00220	5e		 pop	 esi
  00221	5b		 pop	 ebx
  00222	8b e5		 mov	 esp, ebp
  00224	5d		 pop	 ebp
  00225	c3		 ret	 0
?initialise_low_importance_small_stone_buildings@@YGXXZ ENDP ; initialise_low_importance_small_stone_buildings
_TEXT	ENDS
; Function compile flags: /Odtp /ZI
; File c:\users\nhv90\projects\eech\aphavoc\source\entity\fixed\fx_objdb.c
;	COMDAT ?initialise_low_importance_medium_stone_buildings@@YGXXZ
_TEXT	SEGMENT
?initialise_low_importance_medium_stone_buildings@@YGXXZ PROC ; initialise_low_importance_medium_stone_buildings, COMDAT

; 583  : {

  00000	55		 push	 ebp
  00001	8b ec		 mov	 ebp, esp
  00003	83 ec 40	 sub	 esp, 64			; 00000040H
  00006	53		 push	 ebx
  00007	56		 push	 esi
  00008	57		 push	 edi

; 584  : 	////////////////////////////////////////////////////////////////////////////////////
; 585  : 	//
; 586  : 	// LOW IMPORTANCE MEDIUM STONE BUILDINGS
; 587  : 	//
; 588  : 	////////////////////////////////////////////////////////////////////////////////////
; 589  : 
; 590  : 	// VALID TARGETS
; 591  : 
; 592  : 	set_fixed_3d_object_database_item (OBJECT_3D_LEBANON_KEY_OIL_FC_SHED002_15M_8X3, EXPLOSIVE_QUALITY_DUST, EXPLOSIVE_POWER_MEDIUM, WARHEAD_EFFECTIVE_STONE_BUILDING, 800, IMPORTANCE_LOW, TARGET_TYPE_GROUND, TARGET_SYMBOL_STRUCTURE);

  00009	6a 07		 push	 7
  0000b	6a 01		 push	 1
  0000d	51		 push	 ecx
  0000e	f3 0f 10 05 00
	00 00 00	 movss	 xmm0, DWORD PTR __real@3e800000
  00016	f3 0f 11 04 24	 movss	 DWORD PTR [esp], xmm0
  0001b	68 20 03 00 00	 push	 800			; 00000320H
  00020	68 00 01 00 00	 push	 256			; 00000100H
  00025	6a 02		 push	 2
  00027	6a 01		 push	 1
  00029	68 5d 06 00 00	 push	 1629			; 0000065dH
  0002e	e8 00 00 00 00	 call	 ?set_fixed_3d_object_database_item@@YGXHHHHHMW4TARGET_TYPES@@W4TARGET_SYMBOL_TYPES@@@Z ; set_fixed_3d_object_database_item

; 593  : 
; 594  : 	set_fixed_3d_object_database_item (OBJECT_3D_YEMEN_KEY_OIL_FC_SHED002_15M_8X3, EXPLOSIVE_QUALITY_DUST, EXPLOSIVE_POWER_MEDIUM, WARHEAD_EFFECTIVE_STONE_BUILDING, 800, IMPORTANCE_LOW, TARGET_TYPE_GROUND, TARGET_SYMBOL_STRUCTURE);

  00033	6a 07		 push	 7
  00035	6a 01		 push	 1
  00037	51		 push	 ecx
  00038	f3 0f 10 05 00
	00 00 00	 movss	 xmm0, DWORD PTR __real@3e800000
  00040	f3 0f 11 04 24	 movss	 DWORD PTR [esp], xmm0
  00045	68 20 03 00 00	 push	 800			; 00000320H
  0004a	68 00 01 00 00	 push	 256			; 00000100H
  0004f	6a 02		 push	 2
  00051	6a 01		 push	 1
  00053	68 57 09 00 00	 push	 2391			; 00000957H
  00058	e8 00 00 00 00	 call	 ?set_fixed_3d_object_database_item@@YGXHHHHHMW4TARGET_TYPES@@W4TARGET_SYMBOL_TYPES@@@Z ; set_fixed_3d_object_database_item

; 595  : 
; 596  : 	set_fixed_3d_object_database_item (OBJECT_3D_TAIWAN_KEY_OIL_FC_SHED002_15M_8X3, EXPLOSIVE_QUALITY_DUST, EXPLOSIVE_POWER_MEDIUM, WARHEAD_EFFECTIVE_STONE_BUILDING, 800, IMPORTANCE_LOW, TARGET_TYPE_GROUND, TARGET_SYMBOL_STRUCTURE);

  0005d	6a 07		 push	 7
  0005f	6a 01		 push	 1
  00061	51		 push	 ecx
  00062	f3 0f 10 05 00
	00 00 00	 movss	 xmm0, DWORD PTR __real@3e800000
  0006a	f3 0f 11 04 24	 movss	 DWORD PTR [esp], xmm0
  0006f	68 20 03 00 00	 push	 800			; 00000320H
  00074	68 00 01 00 00	 push	 256			; 00000100H
  00079	6a 02		 push	 2
  0007b	6a 01		 push	 1
  0007d	68 4b 08 00 00	 push	 2123			; 0000084bH
  00082	e8 00 00 00 00	 call	 ?set_fixed_3d_object_database_item@@YGXHHHHHMW4TARGET_TYPES@@W4TARGET_SYMBOL_TYPES@@@Z ; set_fixed_3d_object_database_item

; 597  : 
; 598  : 	set_fixed_3d_object_database_item (OBJECT_3D_TAIWAN_KEY_MILITARY_FC_SHED001_10M_8X3_1, EXPLOSIVE_QUALITY_DUST, EXPLOSIVE_POWER_MEDIUM, WARHEAD_EFFECTIVE_STONE_BUILDING, 800, IMPORTANCE_LOW, TARGET_TYPE_GROUND, TARGET_SYMBOL_STRUCTURE);

  00087	6a 07		 push	 7
  00089	6a 01		 push	 1
  0008b	51		 push	 ecx
  0008c	f3 0f 10 05 00
	00 00 00	 movss	 xmm0, DWORD PTR __real@3e800000
  00094	f3 0f 11 04 24	 movss	 DWORD PTR [esp], xmm0
  00099	68 20 03 00 00	 push	 800			; 00000320H
  0009e	68 00 01 00 00	 push	 256			; 00000100H
  000a3	6a 02		 push	 2
  000a5	6a 01		 push	 1
  000a7	68 f7 07 00 00	 push	 2039			; 000007f7H
  000ac	e8 00 00 00 00	 call	 ?set_fixed_3d_object_database_item@@YGXHHHHHMW4TARGET_TYPES@@W4TARGET_SYMBOL_TYPES@@@Z ; set_fixed_3d_object_database_item

; 599  : 
; 600  : 	set_fixed_3d_object_database_item (OBJECT_3D_KEY_MILITARY_FC_SHED001_10M_8X3_1, EXPLOSIVE_QUALITY_DUST, EXPLOSIVE_POWER_MEDIUM, WARHEAD_EFFECTIVE_STONE_BUILDING, 800, IMPORTANCE_LOW, TARGET_TYPE_GROUND, TARGET_SYMBOL_STRUCTURE);

  000b1	6a 07		 push	 7
  000b3	6a 01		 push	 1
  000b5	51		 push	 ecx
  000b6	f3 0f 10 05 00
	00 00 00	 movss	 xmm0, DWORD PTR __real@3e800000
  000be	f3 0f 11 04 24	 movss	 DWORD PTR [esp], xmm0
  000c3	68 20 03 00 00	 push	 800			; 00000320H
  000c8	68 00 01 00 00	 push	 256			; 00000100H
  000cd	6a 02		 push	 2
  000cf	6a 01		 push	 1
  000d1	68 20 06 00 00	 push	 1568			; 00000620H
  000d6	e8 00 00 00 00	 call	 ?set_fixed_3d_object_database_item@@YGXHHHHHMW4TARGET_TYPES@@W4TARGET_SYMBOL_TYPES@@@Z ; set_fixed_3d_object_database_item

; 601  : 
; 602  : 	set_fixed_3d_object_database_item (OBJECT_3D_KEY_PORT_FC_LIGHTHOUSE03, EXPLOSIVE_QUALITY_DUST, EXPLOSIVE_POWER_MEDIUM, WARHEAD_EFFECTIVE_STONE_BUILDING, 600, IMPORTANCE_LOW, TARGET_TYPE_GROUND, TARGET_SYMBOL_STRUCTURE);

  000db	6a 07		 push	 7
  000dd	6a 01		 push	 1
  000df	51		 push	 ecx
  000e0	f3 0f 10 05 00
	00 00 00	 movss	 xmm0, DWORD PTR __real@3e800000
  000e8	f3 0f 11 04 24	 movss	 DWORD PTR [esp], xmm0
  000ed	68 58 02 00 00	 push	 600			; 00000258H
  000f2	68 00 01 00 00	 push	 256			; 00000100H
  000f7	6a 02		 push	 2
  000f9	6a 01		 push	 1
  000fb	68 9b 06 00 00	 push	 1691			; 0000069bH
  00100	e8 00 00 00 00	 call	 ?set_fixed_3d_object_database_item@@YGXHHHHHMW4TARGET_TYPES@@W4TARGET_SYMBOL_TYPES@@@Z ; set_fixed_3d_object_database_item

; 603  : 
; 604  : 	// INVALID TARGETS
; 605  : }

  00105	5f		 pop	 edi
  00106	5e		 pop	 esi
  00107	5b		 pop	 ebx
  00108	8b e5		 mov	 esp, ebp
  0010a	5d		 pop	 ebp
  0010b	c3		 ret	 0
?initialise_low_importance_medium_stone_buildings@@YGXXZ ENDP ; initialise_low_importance_medium_stone_buildings
_TEXT	ENDS
; Function compile flags: /Odtp /ZI
; File c:\users\nhv90\projects\eech\aphavoc\source\entity\fixed\fx_objdb.c
;	COMDAT ?initialise_medium_importance_armoured_buildings@@YGXXZ
_TEXT	SEGMENT
?initialise_medium_importance_armoured_buildings@@YGXXZ PROC ; initialise_medium_importance_armoured_buildings, COMDAT

; 558  : {

  00000	55		 push	 ebp
  00001	8b ec		 mov	 ebp, esp
  00003	83 ec 40	 sub	 esp, 64			; 00000040H
  00006	53		 push	 ebx
  00007	56		 push	 esi
  00008	57		 push	 edi

; 559  : 	////////////////////////////////////////////////////////////////////////////////////
; 560  : 	//
; 561  : 	// MEDIUM IMPORTANCE ARMOURED BUILDINGS
; 562  : 	//
; 563  : 	////////////////////////////////////////////////////////////////////////////////////
; 564  : 
; 565  : 	// VALID TARGETS
; 566  : 
; 567  : 	set_fixed_3d_object_database_item (OBJECT_3D_LEBANON_KEY_RADIO_FC_TOWER01, EXPLOSIVE_QUALITY_NONE, EXPLOSIVE_POWER_NONE, WARHEAD_EFFECTIVE_HARDENED_BUILDING, 200, IMPORTANCE_MED, TARGET_TYPE_GROUND, TARGET_SYMBOL_STRUCTURE);

  00009	6a 07		 push	 7
  0000b	6a 01		 push	 1
  0000d	51		 push	 ecx
  0000e	f3 0f 10 05 00
	00 00 00	 movss	 xmm0, DWORD PTR __real@3f000000
  00016	f3 0f 11 04 24	 movss	 DWORD PTR [esp], xmm0
  0001b	68 c8 00 00 00	 push	 200			; 000000c8H
  00020	68 00 20 00 00	 push	 8192			; 00002000H
  00025	6a 00		 push	 0
  00027	6a 00		 push	 0
  00029	68 fc 06 00 00	 push	 1788			; 000006fcH
  0002e	e8 00 00 00 00	 call	 ?set_fixed_3d_object_database_item@@YGXHHHHHMW4TARGET_TYPES@@W4TARGET_SYMBOL_TYPES@@@Z ; set_fixed_3d_object_database_item

; 568  : 	set_fixed_3d_object_database_item (OBJECT_3D_LEBANON_KEY_RADIO_FC_TOWER02, EXPLOSIVE_QUALITY_NONE, EXPLOSIVE_POWER_NONE, WARHEAD_EFFECTIVE_HARDENED_BUILDING, 200, IMPORTANCE_MED, TARGET_TYPE_GROUND, TARGET_SYMBOL_STRUCTURE);

  00033	6a 07		 push	 7
  00035	6a 01		 push	 1
  00037	51		 push	 ecx
  00038	f3 0f 10 05 00
	00 00 00	 movss	 xmm0, DWORD PTR __real@3f000000
  00040	f3 0f 11 04 24	 movss	 DWORD PTR [esp], xmm0
  00045	68 c8 00 00 00	 push	 200			; 000000c8H
  0004a	68 00 20 00 00	 push	 8192			; 00002000H
  0004f	6a 00		 push	 0
  00051	6a 00		 push	 0
  00053	68 fe 06 00 00	 push	 1790			; 000006feH
  00058	e8 00 00 00 00	 call	 ?set_fixed_3d_object_database_item@@YGXHHHHHMW4TARGET_TYPES@@W4TARGET_SYMBOL_TYPES@@@Z ; set_fixed_3d_object_database_item

; 569  : 	set_fixed_3d_object_database_item (OBJECT_3D_LEBANON_KEY_RADIO_FC_TOWER03, EXPLOSIVE_QUALITY_NONE, EXPLOSIVE_POWER_NONE, WARHEAD_EFFECTIVE_HARDENED_BUILDING, 200, IMPORTANCE_MED, TARGET_TYPE_GROUND, TARGET_SYMBOL_STRUCTURE);

  0005d	6a 07		 push	 7
  0005f	6a 01		 push	 1
  00061	51		 push	 ecx
  00062	f3 0f 10 05 00
	00 00 00	 movss	 xmm0, DWORD PTR __real@3f000000
  0006a	f3 0f 11 04 24	 movss	 DWORD PTR [esp], xmm0
  0006f	68 c8 00 00 00	 push	 200			; 000000c8H
  00074	68 00 20 00 00	 push	 8192			; 00002000H
  00079	6a 00		 push	 0
  0007b	6a 00		 push	 0
  0007d	68 f8 06 00 00	 push	 1784			; 000006f8H
  00082	e8 00 00 00 00	 call	 ?set_fixed_3d_object_database_item@@YGXHHHHHMW4TARGET_TYPES@@W4TARGET_SYMBOL_TYPES@@@Z ; set_fixed_3d_object_database_item

; 570  : 
; 571  : 	set_fixed_3d_object_database_item (OBJECT_3D_TAIWAN_KEY_RADIO_FC_TOWER01, EXPLOSIVE_QUALITY_NONE, EXPLOSIVE_POWER_NONE, WARHEAD_EFFECTIVE_HARDENED_BUILDING, 200, IMPORTANCE_MED, TARGET_TYPE_GROUND, TARGET_SYMBOL_STRUCTURE);

  00087	6a 07		 push	 7
  00089	6a 01		 push	 1
  0008b	51		 push	 ecx
  0008c	f3 0f 10 05 00
	00 00 00	 movss	 xmm0, DWORD PTR __real@3f000000
  00094	f3 0f 11 04 24	 movss	 DWORD PTR [esp], xmm0
  00099	68 c8 00 00 00	 push	 200			; 000000c8H
  0009e	68 00 20 00 00	 push	 8192			; 00002000H
  000a3	6a 00		 push	 0
  000a5	6a 00		 push	 0
  000a7	68 9f 08 00 00	 push	 2207			; 0000089fH
  000ac	e8 00 00 00 00	 call	 ?set_fixed_3d_object_database_item@@YGXHHHHHMW4TARGET_TYPES@@W4TARGET_SYMBOL_TYPES@@@Z ; set_fixed_3d_object_database_item

; 572  : 	set_fixed_3d_object_database_item (OBJECT_3D_TAIWAN_KEY_RADIO_FC_TOWER02, EXPLOSIVE_QUALITY_NONE, EXPLOSIVE_POWER_NONE, WARHEAD_EFFECTIVE_HARDENED_BUILDING, 200, IMPORTANCE_MED, TARGET_TYPE_GROUND, TARGET_SYMBOL_STRUCTURE);

  000b1	6a 07		 push	 7
  000b3	6a 01		 push	 1
  000b5	51		 push	 ecx
  000b6	f3 0f 10 05 00
	00 00 00	 movss	 xmm0, DWORD PTR __real@3f000000
  000be	f3 0f 11 04 24	 movss	 DWORD PTR [esp], xmm0
  000c3	68 c8 00 00 00	 push	 200			; 000000c8H
  000c8	68 00 20 00 00	 push	 8192			; 00002000H
  000cd	6a 00		 push	 0
  000cf	6a 00		 push	 0
  000d1	68 a1 08 00 00	 push	 2209			; 000008a1H
  000d6	e8 00 00 00 00	 call	 ?set_fixed_3d_object_database_item@@YGXHHHHHMW4TARGET_TYPES@@W4TARGET_SYMBOL_TYPES@@@Z ; set_fixed_3d_object_database_item

; 573  : 	set_fixed_3d_object_database_item (OBJECT_3D_TAIWAN_KEY_RADIO_FC_TOWER03, EXPLOSIVE_QUALITY_NONE, EXPLOSIVE_POWER_NONE, WARHEAD_EFFECTIVE_HARDENED_BUILDING, 200, IMPORTANCE_MED, TARGET_TYPE_GROUND, TARGET_SYMBOL_STRUCTURE);

  000db	6a 07		 push	 7
  000dd	6a 01		 push	 1
  000df	51		 push	 ecx
  000e0	f3 0f 10 05 00
	00 00 00	 movss	 xmm0, DWORD PTR __real@3f000000
  000e8	f3 0f 11 04 24	 movss	 DWORD PTR [esp], xmm0
  000ed	68 c8 00 00 00	 push	 200			; 000000c8H
  000f2	68 00 20 00 00	 push	 8192			; 00002000H
  000f7	6a 00		 push	 0
  000f9	6a 00		 push	 0
  000fb	68 9b 08 00 00	 push	 2203			; 0000089bH
  00100	e8 00 00 00 00	 call	 ?set_fixed_3d_object_database_item@@YGXHHHHHMW4TARGET_TYPES@@W4TARGET_SYMBOL_TYPES@@@Z ; set_fixed_3d_object_database_item

; 574  : 
; 575  : 	// INVALID TARGETS
; 576  : }

  00105	5f		 pop	 edi
  00106	5e		 pop	 esi
  00107	5b		 pop	 ebx
  00108	8b e5		 mov	 esp, ebp
  0010a	5d		 pop	 ebp
  0010b	c3		 ret	 0
?initialise_medium_importance_armoured_buildings@@YGXXZ ENDP ; initialise_medium_importance_armoured_buildings
_TEXT	ENDS
; Function compile flags: /Odtp /ZI
; File c:\users\nhv90\projects\eech\aphavoc\source\entity\fixed\fx_objdb.c
;	COMDAT ?initialise_medium_importance_high_explosive_buildings@@YGXXZ
_TEXT	SEGMENT
?initialise_medium_importance_high_explosive_buildings@@YGXXZ PROC ; initialise_medium_importance_high_explosive_buildings, COMDAT

; 502  : {

  00000	55		 push	 ebp
  00001	8b ec		 mov	 ebp, esp
  00003	83 ec 40	 sub	 esp, 64			; 00000040H
  00006	53		 push	 ebx
  00007	56		 push	 esi
  00008	57		 push	 edi

; 503  : 	////////////////////////////////////////////////////////////////////////////////////
; 504  : 	//
; 505  : 	// MEDIUM IMPORTANCE HIGH EXPLOSIVE BUILDINGS
; 506  : 	//
; 507  : 	////////////////////////////////////////////////////////////////////////////////////
; 508  : 
; 509  : 	// VALID TARGETS
; 510  : 
; 511  : 	set_fixed_3d_object_database_item (OBJECT_3D_OIL_FC_STORAGE_FACILITY_5X10, EXPLOSIVE_QUALITY_EXPLOSIVE, EXPLOSIVE_POWER_HIGH, WARHEAD_EFFECTIVE_STONE_BUILDING, 750, IMPORTANCE_MED, TARGET_TYPE_GROUND, TARGET_SYMBOL_STRUCTURE);

  00009	6a 07		 push	 7
  0000b	6a 01		 push	 1
  0000d	51		 push	 ecx
  0000e	f3 0f 10 05 00
	00 00 00	 movss	 xmm0, DWORD PTR __real@3f000000
  00016	f3 0f 11 04 24	 movss	 DWORD PTR [esp], xmm0
  0001b	68 ee 02 00 00	 push	 750			; 000002eeH
  00020	68 00 01 00 00	 push	 256			; 00000100H
  00025	6a 03		 push	 3
  00027	6a 02		 push	 2
  00029	68 c9 04 00 00	 push	 1225			; 000004c9H
  0002e	e8 00 00 00 00	 call	 ?set_fixed_3d_object_database_item@@YGXHHHHHMW4TARGET_TYPES@@W4TARGET_SYMBOL_TYPES@@@Z ; set_fixed_3d_object_database_item

; 512  : 	set_fixed_3d_object_database_item (OBJECT_3D_OIL_FR_TANKS_30X50, EXPLOSIVE_QUALITY_EXPLOSIVE, EXPLOSIVE_POWER_MEDIUM, WARHEAD_EFFECTIVE_STONE_BUILDING, 750, IMPORTANCE_MED, TARGET_TYPE_GROUND, TARGET_SYMBOL_STRUCTURE);

  00033	6a 07		 push	 7
  00035	6a 01		 push	 1
  00037	51		 push	 ecx
  00038	f3 0f 10 05 00
	00 00 00	 movss	 xmm0, DWORD PTR __real@3f000000
  00040	f3 0f 11 04 24	 movss	 DWORD PTR [esp], xmm0
  00045	68 ee 02 00 00	 push	 750			; 000002eeH
  0004a	68 00 01 00 00	 push	 256			; 00000100H
  0004f	6a 02		 push	 2
  00051	6a 02		 push	 2
  00053	68 cb 04 00 00	 push	 1227			; 000004cbH
  00058	e8 00 00 00 00	 call	 ?set_fixed_3d_object_database_item@@YGXHHHHHMW4TARGET_TYPES@@W4TARGET_SYMBOL_TYPES@@@Z ; set_fixed_3d_object_database_item

; 513  : 	set_fixed_3d_object_database_item (OBJECT_3D_OIL_FR_TANKS_30X70, EXPLOSIVE_QUALITY_EXPLOSIVE, EXPLOSIVE_POWER_MEDIUM, WARHEAD_EFFECTIVE_STONE_BUILDING, 750, IMPORTANCE_MED, TARGET_TYPE_GROUND, TARGET_SYMBOL_STRUCTURE);

  0005d	6a 07		 push	 7
  0005f	6a 01		 push	 1
  00061	51		 push	 ecx
  00062	f3 0f 10 05 00
	00 00 00	 movss	 xmm0, DWORD PTR __real@3f000000
  0006a	f3 0f 11 04 24	 movss	 DWORD PTR [esp], xmm0
  0006f	68 ee 02 00 00	 push	 750			; 000002eeH
  00074	68 00 01 00 00	 push	 256			; 00000100H
  00079	6a 02		 push	 2
  0007b	6a 02		 push	 2
  0007d	68 cd 04 00 00	 push	 1229			; 000004cdH
  00082	e8 00 00 00 00	 call	 ?set_fixed_3d_object_database_item@@YGXHHHHHMW4TARGET_TYPES@@W4TARGET_SYMBOL_TYPES@@@Z ; set_fixed_3d_object_database_item

; 514  : 	set_fixed_3d_object_database_item (OBJECT_3D_OIL_FR_TANKS_50X50, EXPLOSIVE_QUALITY_EXPLOSIVE, EXPLOSIVE_POWER_MEDIUM, WARHEAD_EFFECTIVE_STONE_BUILDING, 750, IMPORTANCE_MED, TARGET_TYPE_GROUND, TARGET_SYMBOL_STRUCTURE);

  00087	6a 07		 push	 7
  00089	6a 01		 push	 1
  0008b	51		 push	 ecx
  0008c	f3 0f 10 05 00
	00 00 00	 movss	 xmm0, DWORD PTR __real@3f000000
  00094	f3 0f 11 04 24	 movss	 DWORD PTR [esp], xmm0
  00099	68 ee 02 00 00	 push	 750			; 000002eeH
  0009e	68 00 01 00 00	 push	 256			; 00000100H
  000a3	6a 02		 push	 2
  000a5	6a 02		 push	 2
  000a7	68 d1 04 00 00	 push	 1233			; 000004d1H
  000ac	e8 00 00 00 00	 call	 ?set_fixed_3d_object_database_item@@YGXHHHHHMW4TARGET_TYPES@@W4TARGET_SYMBOL_TYPES@@@Z ; set_fixed_3d_object_database_item

; 515  : 	set_fixed_3d_object_database_item (OBJECT_3D_OIL_FR_TANKS_70X70_01, EXPLOSIVE_QUALITY_EXPLOSIVE, EXPLOSIVE_POWER_MEDIUM, WARHEAD_EFFECTIVE_STONE_BUILDING, 750, IMPORTANCE_MED, TARGET_TYPE_GROUND, TARGET_SYMBOL_STRUCTURE);

  000b1	6a 07		 push	 7
  000b3	6a 01		 push	 1
  000b5	51		 push	 ecx
  000b6	f3 0f 10 05 00
	00 00 00	 movss	 xmm0, DWORD PTR __real@3f000000
  000be	f3 0f 11 04 24	 movss	 DWORD PTR [esp], xmm0
  000c3	68 ee 02 00 00	 push	 750			; 000002eeH
  000c8	68 00 01 00 00	 push	 256			; 00000100H
  000cd	6a 02		 push	 2
  000cf	6a 02		 push	 2
  000d1	68 d3 04 00 00	 push	 1235			; 000004d3H
  000d6	e8 00 00 00 00	 call	 ?set_fixed_3d_object_database_item@@YGXHHHHHMW4TARGET_TYPES@@W4TARGET_SYMBOL_TYPES@@@Z ; set_fixed_3d_object_database_item

; 516  : 	set_fixed_3d_object_database_item (OBJECT_3D_OIL_FR_TANKS_70X70_02, EXPLOSIVE_QUALITY_EXPLOSIVE, EXPLOSIVE_POWER_MEDIUM, WARHEAD_EFFECTIVE_STONE_BUILDING, 750, IMPORTANCE_MED, TARGET_TYPE_GROUND, TARGET_SYMBOL_STRUCTURE);

  000db	6a 07		 push	 7
  000dd	6a 01		 push	 1
  000df	51		 push	 ecx
  000e0	f3 0f 10 05 00
	00 00 00	 movss	 xmm0, DWORD PTR __real@3f000000
  000e8	f3 0f 11 04 24	 movss	 DWORD PTR [esp], xmm0
  000ed	68 ee 02 00 00	 push	 750			; 000002eeH
  000f2	68 00 01 00 00	 push	 256			; 00000100H
  000f7	6a 02		 push	 2
  000f9	6a 02		 push	 2
  000fb	68 d5 04 00 00	 push	 1237			; 000004d5H
  00100	e8 00 00 00 00	 call	 ?set_fixed_3d_object_database_item@@YGXHHHHHMW4TARGET_TYPES@@W4TARGET_SYMBOL_TYPES@@@Z ; set_fixed_3d_object_database_item

; 517  : 	set_fixed_3d_object_database_item (OBJECT_3D_OIL_FR_PLANT_BUILDING01_10X20, EXPLOSIVE_QUALITY_EXPLOSIVE, EXPLOSIVE_POWER_HIGH, WARHEAD_EFFECTIVE_STONE_BUILDING, 750, IMPORTANCE_MED, TARGET_TYPE_GROUND, TARGET_SYMBOL_STRUCTURE);

  00105	6a 07		 push	 7
  00107	6a 01		 push	 1
  00109	51		 push	 ecx
  0010a	f3 0f 10 05 00
	00 00 00	 movss	 xmm0, DWORD PTR __real@3f000000
  00112	f3 0f 11 04 24	 movss	 DWORD PTR [esp], xmm0
  00117	68 ee 02 00 00	 push	 750			; 000002eeH
  0011c	68 00 01 00 00	 push	 256			; 00000100H
  00121	6a 03		 push	 3
  00123	6a 02		 push	 2
  00125	68 c1 04 00 00	 push	 1217			; 000004c1H
  0012a	e8 00 00 00 00	 call	 ?set_fixed_3d_object_database_item@@YGXHHHHHMW4TARGET_TYPES@@W4TARGET_SYMBOL_TYPES@@@Z ; set_fixed_3d_object_database_item

; 518  : 	set_fixed_3d_object_database_item (OBJECT_3D_OIL_FR_PLANT_BUILDING01_20X30, EXPLOSIVE_QUALITY_EXPLOSIVE, EXPLOSIVE_POWER_HIGH, WARHEAD_EFFECTIVE_STONE_BUILDING, 750, IMPORTANCE_MED, TARGET_TYPE_GROUND, TARGET_SYMBOL_STRUCTURE);

  0012f	6a 07		 push	 7
  00131	6a 01		 push	 1
  00133	51		 push	 ecx
  00134	f3 0f 10 05 00
	00 00 00	 movss	 xmm0, DWORD PTR __real@3f000000
  0013c	f3 0f 11 04 24	 movss	 DWORD PTR [esp], xmm0
  00141	68 ee 02 00 00	 push	 750			; 000002eeH
  00146	68 00 01 00 00	 push	 256			; 00000100H
  0014b	6a 03		 push	 3
  0014d	6a 02		 push	 2
  0014f	68 c3 04 00 00	 push	 1219			; 000004c3H
  00154	e8 00 00 00 00	 call	 ?set_fixed_3d_object_database_item@@YGXHHHHHMW4TARGET_TYPES@@W4TARGET_SYMBOL_TYPES@@@Z ; set_fixed_3d_object_database_item

; 519  : 	set_fixed_3d_object_database_item (OBJECT_3D_OIL_FR_PLANT_BUILDING02_20X10, EXPLOSIVE_QUALITY_EXPLOSIVE, EXPLOSIVE_POWER_HIGH, WARHEAD_EFFECTIVE_STONE_BUILDING, 750, IMPORTANCE_MED, TARGET_TYPE_GROUND, TARGET_SYMBOL_STRUCTURE);

  00159	6a 07		 push	 7
  0015b	6a 01		 push	 1
  0015d	51		 push	 ecx
  0015e	f3 0f 10 05 00
	00 00 00	 movss	 xmm0, DWORD PTR __real@3f000000
  00166	f3 0f 11 04 24	 movss	 DWORD PTR [esp], xmm0
  0016b	68 ee 02 00 00	 push	 750			; 000002eeH
  00170	68 00 01 00 00	 push	 256			; 00000100H
  00175	6a 03		 push	 3
  00177	6a 02		 push	 2
  00179	68 c5 04 00 00	 push	 1221			; 000004c5H
  0017e	e8 00 00 00 00	 call	 ?set_fixed_3d_object_database_item@@YGXHHHHHMW4TARGET_TYPES@@W4TARGET_SYMBOL_TYPES@@@Z ; set_fixed_3d_object_database_item

; 520  : 	
; 521  : 	set_fixed_3d_object_database_item (OBJECT_3D_OIL_FR_STORAGE_TANKS_50X30, EXPLOSIVE_QUALITY_EXPLOSIVE, EXPLOSIVE_POWER_MEDIUM, WARHEAD_EFFECTIVE_STONE_BUILDING, 750, IMPORTANCE_MED, TARGET_TYPE_GROUND, TARGET_SYMBOL_STRUCTURE);

  00183	6a 07		 push	 7
  00185	6a 01		 push	 1
  00187	51		 push	 ecx
  00188	f3 0f 10 05 00
	00 00 00	 movss	 xmm0, DWORD PTR __real@3f000000
  00190	f3 0f 11 04 24	 movss	 DWORD PTR [esp], xmm0
  00195	68 ee 02 00 00	 push	 750			; 000002eeH
  0019a	68 00 01 00 00	 push	 256			; 00000100H
  0019f	6a 02		 push	 2
  001a1	6a 02		 push	 2
  001a3	68 cf 04 00 00	 push	 1231			; 000004cfH
  001a8	e8 00 00 00 00	 call	 ?set_fixed_3d_object_database_item@@YGXHHHHHMW4TARGET_TYPES@@W4TARGET_SYMBOL_TYPES@@@Z ; set_fixed_3d_object_database_item

; 522  : 	set_fixed_3d_object_database_item (OBJECT_3D_OIL_FR_STORAGE_TANKS_90X40, EXPLOSIVE_QUALITY_EXPLOSIVE, EXPLOSIVE_POWER_MEDIUM, WARHEAD_EFFECTIVE_STONE_BUILDING, 750, IMPORTANCE_MED, TARGET_TYPE_GROUND, TARGET_SYMBOL_STRUCTURE);

  001ad	6a 07		 push	 7
  001af	6a 01		 push	 1
  001b1	51		 push	 ecx
  001b2	f3 0f 10 05 00
	00 00 00	 movss	 xmm0, DWORD PTR __real@3f000000
  001ba	f3 0f 11 04 24	 movss	 DWORD PTR [esp], xmm0
  001bf	68 ee 02 00 00	 push	 750			; 000002eeH
  001c4	68 00 01 00 00	 push	 256			; 00000100H
  001c9	6a 02		 push	 2
  001cb	6a 02		 push	 2
  001cd	68 d7 04 00 00	 push	 1239			; 000004d7H
  001d2	e8 00 00 00 00	 call	 ?set_fixed_3d_object_database_item@@YGXHHHHHMW4TARGET_TYPES@@W4TARGET_SYMBOL_TYPES@@@Z ; set_fixed_3d_object_database_item

; 523  : 	set_fixed_3d_object_database_item (OBJECT_3D_OIL_FC_PUMP_HOUSE01, EXPLOSIVE_QUALITY_EXPLOSIVE, EXPLOSIVE_POWER_MEDIUM, WARHEAD_EFFECTIVE_STONE_BUILDING, 750, IMPORTANCE_MED, TARGET_TYPE_GROUND, TARGET_SYMBOL_STRUCTURE);

  001d7	6a 07		 push	 7
  001d9	6a 01		 push	 1
  001db	51		 push	 ecx
  001dc	f3 0f 10 05 00
	00 00 00	 movss	 xmm0, DWORD PTR __real@3f000000
  001e4	f3 0f 11 04 24	 movss	 DWORD PTR [esp], xmm0
  001e9	68 ee 02 00 00	 push	 750			; 000002eeH
  001ee	68 00 01 00 00	 push	 256			; 00000100H
  001f3	6a 02		 push	 2
  001f5	6a 02		 push	 2
  001f7	68 c7 04 00 00	 push	 1223			; 000004c7H
  001fc	e8 00 00 00 00	 call	 ?set_fixed_3d_object_database_item@@YGXHHHHHMW4TARGET_TYPES@@W4TARGET_SYMBOL_TYPES@@@Z ; set_fixed_3d_object_database_item

; 524  : 
; 525  : 	set_fixed_3d_object_database_item (OBJECT_3D_PORTNW_FC_CARGO001, EXPLOSIVE_QUALITY_EXPLOSIVE, EXPLOSIVE_POWER_MEDIUM, WARHEAD_EFFECTIVE_STONE_BUILDING, 750, IMPORTANCE_MED, TARGET_TYPE_GROUND, TARGET_SYMBOL_STRUCTURE);

  00201	6a 07		 push	 7
  00203	6a 01		 push	 1
  00205	51		 push	 ecx
  00206	f3 0f 10 05 00
	00 00 00	 movss	 xmm0, DWORD PTR __real@3f000000
  0020e	f3 0f 11 04 24	 movss	 DWORD PTR [esp], xmm0
  00213	68 ee 02 00 00	 push	 750			; 000002eeH
  00218	68 00 01 00 00	 push	 256			; 00000100H
  0021d	6a 02		 push	 2
  0021f	6a 02		 push	 2
  00221	68 42 0a 00 00	 push	 2626			; 00000a42H
  00226	e8 00 00 00 00	 call	 ?set_fixed_3d_object_database_item@@YGXHHHHHMW4TARGET_TYPES@@W4TARGET_SYMBOL_TYPES@@@Z ; set_fixed_3d_object_database_item

; 526  : 	set_fixed_3d_object_database_item (OBJECT_3D_PORTNW_FC_CARGO002, EXPLOSIVE_QUALITY_EXPLOSIVE, EXPLOSIVE_POWER_MEDIUM, WARHEAD_EFFECTIVE_STONE_BUILDING, 750, IMPORTANCE_MED, TARGET_TYPE_GROUND, TARGET_SYMBOL_STRUCTURE);

  0022b	6a 07		 push	 7
  0022d	6a 01		 push	 1
  0022f	51		 push	 ecx
  00230	f3 0f 10 05 00
	00 00 00	 movss	 xmm0, DWORD PTR __real@3f000000
  00238	f3 0f 11 04 24	 movss	 DWORD PTR [esp], xmm0
  0023d	68 ee 02 00 00	 push	 750			; 000002eeH
  00242	68 00 01 00 00	 push	 256			; 00000100H
  00247	6a 02		 push	 2
  00249	6a 02		 push	 2
  0024b	68 44 0a 00 00	 push	 2628			; 00000a44H
  00250	e8 00 00 00 00	 call	 ?set_fixed_3d_object_database_item@@YGXHHHHHMW4TARGET_TYPES@@W4TARGET_SYMBOL_TYPES@@@Z ; set_fixed_3d_object_database_item

; 527  : 	set_fixed_3d_object_database_item (OBJECT_3D_PORTNW_FC_CARGO003, EXPLOSIVE_QUALITY_EXPLOSIVE, EXPLOSIVE_POWER_MEDIUM, WARHEAD_EFFECTIVE_STONE_BUILDING, 750, IMPORTANCE_MED, TARGET_TYPE_GROUND, TARGET_SYMBOL_STRUCTURE);

  00255	6a 07		 push	 7
  00257	6a 01		 push	 1
  00259	51		 push	 ecx
  0025a	f3 0f 10 05 00
	00 00 00	 movss	 xmm0, DWORD PTR __real@3f000000
  00262	f3 0f 11 04 24	 movss	 DWORD PTR [esp], xmm0
  00267	68 ee 02 00 00	 push	 750			; 000002eeH
  0026c	68 00 01 00 00	 push	 256			; 00000100H
  00271	6a 02		 push	 2
  00273	6a 02		 push	 2
  00275	68 46 0a 00 00	 push	 2630			; 00000a46H
  0027a	e8 00 00 00 00	 call	 ?set_fixed_3d_object_database_item@@YGXHHHHHMW4TARGET_TYPES@@W4TARGET_SYMBOL_TYPES@@@Z ; set_fixed_3d_object_database_item

; 528  : 	set_fixed_3d_object_database_item (OBJECT_3D_PORTNW_FC_CARGO004, EXPLOSIVE_QUALITY_EXPLOSIVE, EXPLOSIVE_POWER_MEDIUM, WARHEAD_EFFECTIVE_STONE_BUILDING, 750, IMPORTANCE_MED, TARGET_TYPE_GROUND, TARGET_SYMBOL_STRUCTURE);

  0027f	6a 07		 push	 7
  00281	6a 01		 push	 1
  00283	51		 push	 ecx
  00284	f3 0f 10 05 00
	00 00 00	 movss	 xmm0, DWORD PTR __real@3f000000
  0028c	f3 0f 11 04 24	 movss	 DWORD PTR [esp], xmm0
  00291	68 ee 02 00 00	 push	 750			; 000002eeH
  00296	68 00 01 00 00	 push	 256			; 00000100H
  0029b	6a 02		 push	 2
  0029d	6a 02		 push	 2
  0029f	68 48 0a 00 00	 push	 2632			; 00000a48H
  002a4	e8 00 00 00 00	 call	 ?set_fixed_3d_object_database_item@@YGXHHHHHMW4TARGET_TYPES@@W4TARGET_SYMBOL_TYPES@@@Z ; set_fixed_3d_object_database_item

; 529  : 	set_fixed_3d_object_database_item (OBJECT_3D_PORTNW_FC_TANKER001, EXPLOSIVE_QUALITY_EXPLOSIVE, EXPLOSIVE_POWER_MEDIUM, WARHEAD_EFFECTIVE_STONE_BUILDING, 750, IMPORTANCE_MED, TARGET_TYPE_GROUND, TARGET_SYMBOL_STRUCTURE);

  002a9	6a 07		 push	 7
  002ab	6a 01		 push	 1
  002ad	51		 push	 ecx
  002ae	f3 0f 10 05 00
	00 00 00	 movss	 xmm0, DWORD PTR __real@3f000000
  002b6	f3 0f 11 04 24	 movss	 DWORD PTR [esp], xmm0
  002bb	68 ee 02 00 00	 push	 750			; 000002eeH
  002c0	68 00 01 00 00	 push	 256			; 00000100H
  002c5	6a 02		 push	 2
  002c7	6a 02		 push	 2
  002c9	68 4a 0a 00 00	 push	 2634			; 00000a4aH
  002ce	e8 00 00 00 00	 call	 ?set_fixed_3d_object_database_item@@YGXHHHHHMW4TARGET_TYPES@@W4TARGET_SYMBOL_TYPES@@@Z ; set_fixed_3d_object_database_item

; 530  : 	set_fixed_3d_object_database_item (OBJECT_3D_PORTNW_FC_TANKER002, EXPLOSIVE_QUALITY_EXPLOSIVE, EXPLOSIVE_POWER_MEDIUM, WARHEAD_EFFECTIVE_STONE_BUILDING, 750, IMPORTANCE_MED, TARGET_TYPE_GROUND, TARGET_SYMBOL_STRUCTURE);

  002d3	6a 07		 push	 7
  002d5	6a 01		 push	 1
  002d7	51		 push	 ecx
  002d8	f3 0f 10 05 00
	00 00 00	 movss	 xmm0, DWORD PTR __real@3f000000
  002e0	f3 0f 11 04 24	 movss	 DWORD PTR [esp], xmm0
  002e5	68 ee 02 00 00	 push	 750			; 000002eeH
  002ea	68 00 01 00 00	 push	 256			; 00000100H
  002ef	6a 02		 push	 2
  002f1	6a 02		 push	 2
  002f3	68 4c 0a 00 00	 push	 2636			; 00000a4cH
  002f8	e8 00 00 00 00	 call	 ?set_fixed_3d_object_database_item@@YGXHHHHHMW4TARGET_TYPES@@W4TARGET_SYMBOL_TYPES@@@Z ; set_fixed_3d_object_database_item

; 531  : 	set_fixed_3d_object_database_item (OBJECT_3D_PORTSE_FC_TANKER001, EXPLOSIVE_QUALITY_EXPLOSIVE, EXPLOSIVE_POWER_MEDIUM, WARHEAD_EFFECTIVE_STONE_BUILDING, 750, IMPORTANCE_MED, TARGET_TYPE_GROUND, TARGET_SYMBOL_STRUCTURE);

  002fd	6a 07		 push	 7
  002ff	6a 01		 push	 1
  00301	51		 push	 ecx
  00302	f3 0f 10 05 00
	00 00 00	 movss	 xmm0, DWORD PTR __real@3f000000
  0030a	f3 0f 11 04 24	 movss	 DWORD PTR [esp], xmm0
  0030f	68 ee 02 00 00	 push	 750			; 000002eeH
  00314	68 00 01 00 00	 push	 256			; 00000100H
  00319	6a 02		 push	 2
  0031b	6a 02		 push	 2
  0031d	68 4e 0a 00 00	 push	 2638			; 00000a4eH
  00322	e8 00 00 00 00	 call	 ?set_fixed_3d_object_database_item@@YGXHHHHHMW4TARGET_TYPES@@W4TARGET_SYMBOL_TYPES@@@Z ; set_fixed_3d_object_database_item

; 532  : 	set_fixed_3d_object_database_item (OBJECT_3D_PORTSE_FC_TANKER002, EXPLOSIVE_QUALITY_EXPLOSIVE, EXPLOSIVE_POWER_MEDIUM, WARHEAD_EFFECTIVE_STONE_BUILDING, 750, IMPORTANCE_MED, TARGET_TYPE_GROUND, TARGET_SYMBOL_STRUCTURE);

  00327	6a 07		 push	 7
  00329	6a 01		 push	 1
  0032b	51		 push	 ecx
  0032c	f3 0f 10 05 00
	00 00 00	 movss	 xmm0, DWORD PTR __real@3f000000
  00334	f3 0f 11 04 24	 movss	 DWORD PTR [esp], xmm0
  00339	68 ee 02 00 00	 push	 750			; 000002eeH
  0033e	68 00 01 00 00	 push	 256			; 00000100H
  00343	6a 02		 push	 2
  00345	6a 02		 push	 2
  00347	68 50 0a 00 00	 push	 2640			; 00000a50H
  0034c	e8 00 00 00 00	 call	 ?set_fixed_3d_object_database_item@@YGXHHHHHMW4TARGET_TYPES@@W4TARGET_SYMBOL_TYPES@@@Z ; set_fixed_3d_object_database_item

; 533  : 
; 534  : 	set_fixed_3d_object_database_item (OBJECT_3D_LEBANON_KEY_POWER_FC_COOLING_PLANT02, EXPLOSIVE_QUALITY_EXPLOSIVE, EXPLOSIVE_POWER_HIGH, WARHEAD_EFFECTIVE_STONE_BUILDING, 750, IMPORTANCE_MED, TARGET_TYPE_GROUND, TARGET_SYMBOL_STRUCTURE);

  00351	6a 07		 push	 7
  00353	6a 01		 push	 1
  00355	51		 push	 ecx
  00356	f3 0f 10 05 00
	00 00 00	 movss	 xmm0, DWORD PTR __real@3f000000
  0035e	f3 0f 11 04 24	 movss	 DWORD PTR [esp], xmm0
  00363	68 ee 02 00 00	 push	 750			; 000002eeH
  00368	68 00 01 00 00	 push	 256			; 00000100H
  0036d	6a 03		 push	 3
  0036f	6a 02		 push	 2
  00371	68 da 06 00 00	 push	 1754			; 000006daH
  00376	e8 00 00 00 00	 call	 ?set_fixed_3d_object_database_item@@YGXHHHHHMW4TARGET_TYPES@@W4TARGET_SYMBOL_TYPES@@@Z ; set_fixed_3d_object_database_item

; 535  : 	set_fixed_3d_object_database_item (OBJECT_3D_LEBANON_KEY_POWER_FC_COOLING_TOWER01, EXPLOSIVE_QUALITY_EXPLOSIVE, EXPLOSIVE_POWER_HIGH, WARHEAD_EFFECTIVE_STONE_BUILDING, 750, IMPORTANCE_MED, TARGET_TYPE_GROUND, TARGET_SYMBOL_STRUCTURE);

  0037b	6a 07		 push	 7
  0037d	6a 01		 push	 1
  0037f	51		 push	 ecx
  00380	f3 0f 10 05 00
	00 00 00	 movss	 xmm0, DWORD PTR __real@3f000000
  00388	f3 0f 11 04 24	 movss	 DWORD PTR [esp], xmm0
  0038d	68 ee 02 00 00	 push	 750			; 000002eeH
  00392	68 00 01 00 00	 push	 256			; 00000100H
  00397	6a 03		 push	 3
  00399	6a 02		 push	 2
  0039b	68 dc 06 00 00	 push	 1756			; 000006dcH
  003a0	e8 00 00 00 00	 call	 ?set_fixed_3d_object_database_item@@YGXHHHHHMW4TARGET_TYPES@@W4TARGET_SYMBOL_TYPES@@@Z ; set_fixed_3d_object_database_item

; 536  : 
; 537  : 	set_fixed_3d_object_database_item (OBJECT_3D_LEBANON_KEY_OIL_FC_SPHERICAL_TANK01, EXPLOSIVE_QUALITY_EXPLOSIVE, EXPLOSIVE_POWER_HIGH, WARHEAD_EFFECTIVE_STONE_BUILDING, 750, IMPORTANCE_MED, TARGET_TYPE_GROUND, TARGET_SYMBOL_STRUCTURE);

  003a5	6a 07		 push	 7
  003a7	6a 01		 push	 1
  003a9	51		 push	 ecx
  003aa	f3 0f 10 05 00
	00 00 00	 movss	 xmm0, DWORD PTR __real@3f000000
  003b2	f3 0f 11 04 24	 movss	 DWORD PTR [esp], xmm0
  003b7	68 ee 02 00 00	 push	 750			; 000002eeH
  003bc	68 00 01 00 00	 push	 256			; 00000100H
  003c1	6a 03		 push	 3
  003c3	6a 02		 push	 2
  003c5	68 65 06 00 00	 push	 1637			; 00000665H
  003ca	e8 00 00 00 00	 call	 ?set_fixed_3d_object_database_item@@YGXHHHHHMW4TARGET_TYPES@@W4TARGET_SYMBOL_TYPES@@@Z ; set_fixed_3d_object_database_item

; 538  : 
; 539  : 	set_fixed_3d_object_database_item (OBJECT_3D_YEMEN_KEY_POWER_FC_COOLING_PLANT01, EXPLOSIVE_QUALITY_EXPLOSIVE, EXPLOSIVE_POWER_HIGH, WARHEAD_EFFECTIVE_STONE_BUILDING, 750, IMPORTANCE_MED, TARGET_TYPE_GROUND, TARGET_SYMBOL_STRUCTURE);

  003cf	6a 07		 push	 7
  003d1	6a 01		 push	 1
  003d3	51		 push	 ecx
  003d4	f3 0f 10 05 00
	00 00 00	 movss	 xmm0, DWORD PTR __real@3f000000
  003dc	f3 0f 11 04 24	 movss	 DWORD PTR [esp], xmm0
  003e1	68 ee 02 00 00	 push	 750			; 000002eeH
  003e6	68 00 01 00 00	 push	 256			; 00000100H
  003eb	6a 03		 push	 3
  003ed	6a 02		 push	 2
  003ef	68 8b 09 00 00	 push	 2443			; 0000098bH
  003f4	e8 00 00 00 00	 call	 ?set_fixed_3d_object_database_item@@YGXHHHHHMW4TARGET_TYPES@@W4TARGET_SYMBOL_TYPES@@@Z ; set_fixed_3d_object_database_item

; 540  : 	set_fixed_3d_object_database_item (OBJECT_3D_YEMEN_KEY_POWER_FC_COOLING_PLANT02, EXPLOSIVE_QUALITY_EXPLOSIVE, EXPLOSIVE_POWER_HIGH, WARHEAD_EFFECTIVE_STONE_BUILDING, 750, IMPORTANCE_MED, TARGET_TYPE_GROUND, TARGET_SYMBOL_STRUCTURE);

  003f9	6a 07		 push	 7
  003fb	6a 01		 push	 1
  003fd	51		 push	 ecx
  003fe	f3 0f 10 05 00
	00 00 00	 movss	 xmm0, DWORD PTR __real@3f000000
  00406	f3 0f 11 04 24	 movss	 DWORD PTR [esp], xmm0
  0040b	68 ee 02 00 00	 push	 750			; 000002eeH
  00410	68 00 01 00 00	 push	 256			; 00000100H
  00415	6a 03		 push	 3
  00417	6a 02		 push	 2
  00419	68 8d 09 00 00	 push	 2445			; 0000098dH
  0041e	e8 00 00 00 00	 call	 ?set_fixed_3d_object_database_item@@YGXHHHHHMW4TARGET_TYPES@@W4TARGET_SYMBOL_TYPES@@@Z ; set_fixed_3d_object_database_item

; 541  : 	set_fixed_3d_object_database_item (OBJECT_3D_YEMEN_KEY_POWER_FC_COOLING_TOWER01, EXPLOSIVE_QUALITY_EXPLOSIVE, EXPLOSIVE_POWER_HIGH, WARHEAD_EFFECTIVE_STONE_BUILDING, 750, IMPORTANCE_MED, TARGET_TYPE_GROUND, TARGET_SYMBOL_STRUCTURE);

  00423	6a 07		 push	 7
  00425	6a 01		 push	 1
  00427	51		 push	 ecx
  00428	f3 0f 10 05 00
	00 00 00	 movss	 xmm0, DWORD PTR __real@3f000000
  00430	f3 0f 11 04 24	 movss	 DWORD PTR [esp], xmm0
  00435	68 ee 02 00 00	 push	 750			; 000002eeH
  0043a	68 00 01 00 00	 push	 256			; 00000100H
  0043f	6a 03		 push	 3
  00441	6a 02		 push	 2
  00443	68 8f 09 00 00	 push	 2447			; 0000098fH
  00448	e8 00 00 00 00	 call	 ?set_fixed_3d_object_database_item@@YGXHHHHHMW4TARGET_TYPES@@W4TARGET_SYMBOL_TYPES@@@Z ; set_fixed_3d_object_database_item

; 542  : 
; 543  : 	set_fixed_3d_object_database_item (OBJECT_3D_YEMEN_KEY_OIL_FC_SPHERICAL_TANK01, EXPLOSIVE_QUALITY_EXPLOSIVE, EXPLOSIVE_POWER_HIGH, WARHEAD_EFFECTIVE_STONE_BUILDING, 750, IMPORTANCE_MED, TARGET_TYPE_GROUND, TARGET_SYMBOL_STRUCTURE);

  0044d	6a 07		 push	 7
  0044f	6a 01		 push	 1
  00451	51		 push	 ecx
  00452	f3 0f 10 05 00
	00 00 00	 movss	 xmm0, DWORD PTR __real@3f000000
  0045a	f3 0f 11 04 24	 movss	 DWORD PTR [esp], xmm0
  0045f	68 ee 02 00 00	 push	 750			; 000002eeH
  00464	68 00 01 00 00	 push	 256			; 00000100H
  00469	6a 03		 push	 3
  0046b	6a 02		 push	 2
  0046d	68 5f 09 00 00	 push	 2399			; 0000095fH
  00472	e8 00 00 00 00	 call	 ?set_fixed_3d_object_database_item@@YGXHHHHHMW4TARGET_TYPES@@W4TARGET_SYMBOL_TYPES@@@Z ; set_fixed_3d_object_database_item

; 544  : 
; 545  : 	set_fixed_3d_object_database_item (OBJECT_3D_TAIWAN_KEY_POWER_FC_COOLING_PLANT02, EXPLOSIVE_QUALITY_EXPLOSIVE, EXPLOSIVE_POWER_HIGH, WARHEAD_EFFECTIVE_STONE_BUILDING, 750, IMPORTANCE_MED, TARGET_TYPE_GROUND, TARGET_SYMBOL_STRUCTURE);

  00477	6a 07		 push	 7
  00479	6a 01		 push	 1
  0047b	51		 push	 ecx
  0047c	f3 0f 10 05 00
	00 00 00	 movss	 xmm0, DWORD PTR __real@3f000000
  00484	f3 0f 11 04 24	 movss	 DWORD PTR [esp], xmm0
  00489	68 ee 02 00 00	 push	 750			; 000002eeH
  0048e	68 00 01 00 00	 push	 256			; 00000100H
  00493	6a 03		 push	 3
  00495	6a 02		 push	 2
  00497	68 7d 08 00 00	 push	 2173			; 0000087dH
  0049c	e8 00 00 00 00	 call	 ?set_fixed_3d_object_database_item@@YGXHHHHHMW4TARGET_TYPES@@W4TARGET_SYMBOL_TYPES@@@Z ; set_fixed_3d_object_database_item

; 546  : 	set_fixed_3d_object_database_item (OBJECT_3D_TAIWAN_KEY_POWER_FC_COOLING_TOWER01, EXPLOSIVE_QUALITY_EXPLOSIVE, EXPLOSIVE_POWER_HIGH, WARHEAD_EFFECTIVE_STONE_BUILDING, 750, IMPORTANCE_MED, TARGET_TYPE_GROUND, TARGET_SYMBOL_STRUCTURE);

  004a1	6a 07		 push	 7
  004a3	6a 01		 push	 1
  004a5	51		 push	 ecx
  004a6	f3 0f 10 05 00
	00 00 00	 movss	 xmm0, DWORD PTR __real@3f000000
  004ae	f3 0f 11 04 24	 movss	 DWORD PTR [esp], xmm0
  004b3	68 ee 02 00 00	 push	 750			; 000002eeH
  004b8	68 00 01 00 00	 push	 256			; 00000100H
  004bd	6a 03		 push	 3
  004bf	6a 02		 push	 2
  004c1	68 7f 08 00 00	 push	 2175			; 0000087fH
  004c6	e8 00 00 00 00	 call	 ?set_fixed_3d_object_database_item@@YGXHHHHHMW4TARGET_TYPES@@W4TARGET_SYMBOL_TYPES@@@Z ; set_fixed_3d_object_database_item

; 547  : 
; 548  : 	set_fixed_3d_object_database_item (OBJECT_3D_TAIWAN_KEY_OIL_FC_SPHERICAL_TANK01, EXPLOSIVE_QUALITY_EXPLOSIVE, EXPLOSIVE_POWER_HIGH, WARHEAD_EFFECTIVE_STONE_BUILDING, 750, IMPORTANCE_MED, TARGET_TYPE_GROUND, TARGET_SYMBOL_STRUCTURE);

  004cb	6a 07		 push	 7
  004cd	6a 01		 push	 1
  004cf	51		 push	 ecx
  004d0	f3 0f 10 05 00
	00 00 00	 movss	 xmm0, DWORD PTR __real@3f000000
  004d8	f3 0f 11 04 24	 movss	 DWORD PTR [esp], xmm0
  004dd	68 ee 02 00 00	 push	 750			; 000002eeH
  004e2	68 00 01 00 00	 push	 256			; 00000100H
  004e7	6a 03		 push	 3
  004e9	6a 02		 push	 2
  004eb	68 53 08 00 00	 push	 2131			; 00000853H
  004f0	e8 00 00 00 00	 call	 ?set_fixed_3d_object_database_item@@YGXHHHHHMW4TARGET_TYPES@@W4TARGET_SYMBOL_TYPES@@@Z ; set_fixed_3d_object_database_item

; 549  : 
; 550  : 	// INVALID TARGETS
; 551  : }

  004f5	5f		 pop	 edi
  004f6	5e		 pop	 esi
  004f7	5b		 pop	 ebx
  004f8	8b e5		 mov	 esp, ebp
  004fa	5d		 pop	 ebp
  004fb	c3		 ret	 0
?initialise_medium_importance_high_explosive_buildings@@YGXXZ ENDP ; initialise_medium_importance_high_explosive_buildings
_TEXT	ENDS
; Function compile flags: /Odtp /ZI
; File c:\users\nhv90\projects\eech\aphavoc\source\entity\fixed\fx_objdb.c
;	COMDAT ?initialise_medium_importance_medium_stone_buildings@@YGXXZ
_TEXT	SEGMENT
?initialise_medium_importance_medium_stone_buildings@@YGXXZ PROC ; initialise_medium_importance_medium_stone_buildings, COMDAT

; 413  : {

  00000	55		 push	 ebp
  00001	8b ec		 mov	 ebp, esp
  00003	83 ec 40	 sub	 esp, 64			; 00000040H
  00006	53		 push	 ebx
  00007	56		 push	 esi
  00008	57		 push	 edi

; 414  : 	////////////////////////////////////////////////////////////////////////////////////
; 415  : 	//
; 416  : 	// MEDIUM IMPORTANCE MEDIUM STONE BUILDINGS
; 417  : 	//
; 418  : 	////////////////////////////////////////////////////////////////////////////////////
; 419  : 
; 420  : 	// VALID TARGETS
; 421  : 
; 422  : 	set_fixed_3d_object_database_item (OBJECT_3D_AMERICAN_BARRACKS01, EXPLOSIVE_QUALITY_DUST, EXPLOSIVE_POWER_MEDIUM, WARHEAD_EFFECTIVE_STONE_BUILDING, 750, IMPORTANCE_MED, TARGET_TYPE_GROUND, TARGET_SYMBOL_STRUCTURE);

  00009	6a 07		 push	 7
  0000b	6a 01		 push	 1
  0000d	51		 push	 ecx
  0000e	f3 0f 10 05 00
	00 00 00	 movss	 xmm0, DWORD PTR __real@3f000000
  00016	f3 0f 11 04 24	 movss	 DWORD PTR [esp], xmm0
  0001b	68 ee 02 00 00	 push	 750			; 000002eeH
  00020	68 00 01 00 00	 push	 256			; 00000100H
  00025	6a 02		 push	 2
  00027	6a 01		 push	 1
  00029	6a 31		 push	 49			; 00000031H
  0002b	e8 00 00 00 00	 call	 ?set_fixed_3d_object_database_item@@YGXHHHHHMW4TARGET_TYPES@@W4TARGET_SYMBOL_TYPES@@@Z ; set_fixed_3d_object_database_item

; 423  : 	set_fixed_3d_object_database_item (OBJECT_3D_AMERICAN_BARRACKS02, EXPLOSIVE_QUALITY_DUST, EXPLOSIVE_POWER_MEDIUM, WARHEAD_EFFECTIVE_STONE_BUILDING, 750, IMPORTANCE_MED, TARGET_TYPE_GROUND, TARGET_SYMBOL_STRUCTURE);

  00030	6a 07		 push	 7
  00032	6a 01		 push	 1
  00034	51		 push	 ecx
  00035	f3 0f 10 05 00
	00 00 00	 movss	 xmm0, DWORD PTR __real@3f000000
  0003d	f3 0f 11 04 24	 movss	 DWORD PTR [esp], xmm0
  00042	68 ee 02 00 00	 push	 750			; 000002eeH
  00047	68 00 01 00 00	 push	 256			; 00000100H
  0004c	6a 02		 push	 2
  0004e	6a 01		 push	 1
  00050	6a 33		 push	 51			; 00000033H
  00052	e8 00 00 00 00	 call	 ?set_fixed_3d_object_database_item@@YGXHHHHHMW4TARGET_TYPES@@W4TARGET_SYMBOL_TYPES@@@Z ; set_fixed_3d_object_database_item

; 424  : 	set_fixed_3d_object_database_item (OBJECT_3D_AMERICAN_BARRACKS03, EXPLOSIVE_QUALITY_DUST, EXPLOSIVE_POWER_MEDIUM, WARHEAD_EFFECTIVE_STONE_BUILDING, 750, IMPORTANCE_MED, TARGET_TYPE_GROUND, TARGET_SYMBOL_STRUCTURE);

  00057	6a 07		 push	 7
  00059	6a 01		 push	 1
  0005b	51		 push	 ecx
  0005c	f3 0f 10 05 00
	00 00 00	 movss	 xmm0, DWORD PTR __real@3f000000
  00064	f3 0f 11 04 24	 movss	 DWORD PTR [esp], xmm0
  00069	68 ee 02 00 00	 push	 750			; 000002eeH
  0006e	68 00 01 00 00	 push	 256			; 00000100H
  00073	6a 02		 push	 2
  00075	6a 01		 push	 1
  00077	6a 35		 push	 53			; 00000035H
  00079	e8 00 00 00 00	 call	 ?set_fixed_3d_object_database_item@@YGXHHHHHMW4TARGET_TYPES@@W4TARGET_SYMBOL_TYPES@@@Z ; set_fixed_3d_object_database_item

; 425  : 
; 426  : 	set_fixed_3d_object_database_item (OBJECT_3D_AMERICAN_RADAR01, EXPLOSIVE_QUALITY_DUST, EXPLOSIVE_POWER_MEDIUM, WARHEAD_EFFECTIVE_STONE_BUILDING, 750, IMPORTANCE_MED, TARGET_TYPE_GROUND, TARGET_SYMBOL_STRUCTURE);

  0007e	6a 07		 push	 7
  00080	6a 01		 push	 1
  00082	51		 push	 ecx
  00083	f3 0f 10 05 00
	00 00 00	 movss	 xmm0, DWORD PTR __real@3f000000
  0008b	f3 0f 11 04 24	 movss	 DWORD PTR [esp], xmm0
  00090	68 ee 02 00 00	 push	 750			; 000002eeH
  00095	68 00 01 00 00	 push	 256			; 00000100H
  0009a	6a 02		 push	 2
  0009c	6a 01		 push	 1
  0009e	68 81 00 00 00	 push	 129			; 00000081H
  000a3	e8 00 00 00 00	 call	 ?set_fixed_3d_object_database_item@@YGXHHHHHMW4TARGET_TYPES@@W4TARGET_SYMBOL_TYPES@@@Z ; set_fixed_3d_object_database_item

; 427  : 	set_fixed_3d_object_database_item (OBJECT_3D_AMERICAN_RADAR02, EXPLOSIVE_QUALITY_DUST, EXPLOSIVE_POWER_MEDIUM, WARHEAD_EFFECTIVE_STONE_BUILDING, 750, IMPORTANCE_MED, TARGET_TYPE_GROUND, TARGET_SYMBOL_STRUCTURE);

  000a8	6a 07		 push	 7
  000aa	6a 01		 push	 1
  000ac	51		 push	 ecx
  000ad	f3 0f 10 05 00
	00 00 00	 movss	 xmm0, DWORD PTR __real@3f000000
  000b5	f3 0f 11 04 24	 movss	 DWORD PTR [esp], xmm0
  000ba	68 ee 02 00 00	 push	 750			; 000002eeH
  000bf	68 00 01 00 00	 push	 256			; 00000100H
  000c4	6a 02		 push	 2
  000c6	6a 01		 push	 1
  000c8	68 83 00 00 00	 push	 131			; 00000083H
  000cd	e8 00 00 00 00	 call	 ?set_fixed_3d_object_database_item@@YGXHHHHHMW4TARGET_TYPES@@W4TARGET_SYMBOL_TYPES@@@Z ; set_fixed_3d_object_database_item

; 428  : 
; 429  : 	set_fixed_3d_object_database_item (OBJECT_3D_AMERICAN_TOWER_BUILDING01, EXPLOSIVE_QUALITY_DUST, EXPLOSIVE_POWER_MEDIUM, WARHEAD_EFFECTIVE_STONE_BUILDING, 750, IMPORTANCE_MED, TARGET_TYPE_GROUND, TARGET_SYMBOL_STRUCTURE);

  000d2	6a 07		 push	 7
  000d4	6a 01		 push	 1
  000d6	51		 push	 ecx
  000d7	f3 0f 10 05 00
	00 00 00	 movss	 xmm0, DWORD PTR __real@3f000000
  000df	f3 0f 11 04 24	 movss	 DWORD PTR [esp], xmm0
  000e4	68 ee 02 00 00	 push	 750			; 000002eeH
  000e9	68 00 01 00 00	 push	 256			; 00000100H
  000ee	6a 02		 push	 2
  000f0	6a 01		 push	 1
  000f2	68 97 00 00 00	 push	 151			; 00000097H
  000f7	e8 00 00 00 00	 call	 ?set_fixed_3d_object_database_item@@YGXHHHHHMW4TARGET_TYPES@@W4TARGET_SYMBOL_TYPES@@@Z ; set_fixed_3d_object_database_item

; 430  : 	set_fixed_3d_object_database_item (OBJECT_3D_AMERICAN_WATER_TOWER01, EXPLOSIVE_QUALITY_DUST, EXPLOSIVE_POWER_MEDIUM, WARHEAD_EFFECTIVE_STONE_BUILDING, 750, IMPORTANCE_MED, TARGET_TYPE_GROUND, TARGET_SYMBOL_STRUCTURE);

  000fc	6a 07		 push	 7
  000fe	6a 01		 push	 1
  00100	51		 push	 ecx
  00101	f3 0f 10 05 00
	00 00 00	 movss	 xmm0, DWORD PTR __real@3f000000
  00109	f3 0f 11 04 24	 movss	 DWORD PTR [esp], xmm0
  0010e	68 ee 02 00 00	 push	 750			; 000002eeH
  00113	68 00 01 00 00	 push	 256			; 00000100H
  00118	6a 02		 push	 2
  0011a	6a 01		 push	 1
  0011c	68 99 00 00 00	 push	 153			; 00000099H
  00121	e8 00 00 00 00	 call	 ?set_fixed_3d_object_database_item@@YGXHHHHHMW4TARGET_TYPES@@W4TARGET_SYMBOL_TYPES@@@Z ; set_fixed_3d_object_database_item

; 431  : 	set_fixed_3d_object_database_item (OBJECT_3D_AMERICAN_WATER_TOWER02, EXPLOSIVE_QUALITY_DUST, EXPLOSIVE_POWER_MEDIUM, WARHEAD_EFFECTIVE_STONE_BUILDING, 750, IMPORTANCE_MED, TARGET_TYPE_GROUND, TARGET_SYMBOL_STRUCTURE);

  00126	6a 07		 push	 7
  00128	6a 01		 push	 1
  0012a	51		 push	 ecx
  0012b	f3 0f 10 05 00
	00 00 00	 movss	 xmm0, DWORD PTR __real@3f000000
  00133	f3 0f 11 04 24	 movss	 DWORD PTR [esp], xmm0
  00138	68 ee 02 00 00	 push	 750			; 000002eeH
  0013d	68 00 01 00 00	 push	 256			; 00000100H
  00142	6a 02		 push	 2
  00144	6a 01		 push	 1
  00146	68 9b 00 00 00	 push	 155			; 0000009bH
  0014b	e8 00 00 00 00	 call	 ?set_fixed_3d_object_database_item@@YGXHHHHHMW4TARGET_TYPES@@W4TARGET_SYMBOL_TYPES@@@Z ; set_fixed_3d_object_database_item

; 432  : 
; 433  : 	set_fixed_3d_object_database_item (OBJECT_3D_RUSSIAN_RADAR01, EXPLOSIVE_QUALITY_DUST, EXPLOSIVE_POWER_MEDIUM, WARHEAD_EFFECTIVE_STONE_BUILDING, 750, IMPORTANCE_MED, TARGET_TYPE_GROUND, TARGET_SYMBOL_STRUCTURE);

  00150	6a 07		 push	 7
  00152	6a 01		 push	 1
  00154	51		 push	 ecx
  00155	f3 0f 10 05 00
	00 00 00	 movss	 xmm0, DWORD PTR __real@3f000000
  0015d	f3 0f 11 04 24	 movss	 DWORD PTR [esp], xmm0
  00162	68 ee 02 00 00	 push	 750			; 000002eeH
  00167	68 00 01 00 00	 push	 256			; 00000100H
  0016c	6a 02		 push	 2
  0016e	6a 01		 push	 1
  00170	68 16 01 00 00	 push	 278			; 00000116H
  00175	e8 00 00 00 00	 call	 ?set_fixed_3d_object_database_item@@YGXHHHHHMW4TARGET_TYPES@@W4TARGET_SYMBOL_TYPES@@@Z ; set_fixed_3d_object_database_item

; 434  : 	set_fixed_3d_object_database_item (OBJECT_3D_RUSSIAN_RADAR02, EXPLOSIVE_QUALITY_DUST, EXPLOSIVE_POWER_MEDIUM, WARHEAD_EFFECTIVE_STONE_BUILDING, 750, IMPORTANCE_MED, TARGET_TYPE_GROUND, TARGET_SYMBOL_STRUCTURE);

  0017a	6a 07		 push	 7
  0017c	6a 01		 push	 1
  0017e	51		 push	 ecx
  0017f	f3 0f 10 05 00
	00 00 00	 movss	 xmm0, DWORD PTR __real@3f000000
  00187	f3 0f 11 04 24	 movss	 DWORD PTR [esp], xmm0
  0018c	68 ee 02 00 00	 push	 750			; 000002eeH
  00191	68 00 01 00 00	 push	 256			; 00000100H
  00196	6a 02		 push	 2
  00198	6a 01		 push	 1
  0019a	68 18 01 00 00	 push	 280			; 00000118H
  0019f	e8 00 00 00 00	 call	 ?set_fixed_3d_object_database_item@@YGXHHHHHMW4TARGET_TYPES@@W4TARGET_SYMBOL_TYPES@@@Z ; set_fixed_3d_object_database_item

; 435  : 
; 436  : 	set_fixed_3d_object_database_item (OBJECT_3D_RUSSIAN_BUILDING01, EXPLOSIVE_QUALITY_DUST, EXPLOSIVE_POWER_MEDIUM, WARHEAD_EFFECTIVE_STONE_BUILDING, 750, IMPORTANCE_MED, TARGET_TYPE_GROUND, TARGET_SYMBOL_STRUCTURE);

  001a4	6a 07		 push	 7
  001a6	6a 01		 push	 1
  001a8	51		 push	 ecx
  001a9	f3 0f 10 05 00
	00 00 00	 movss	 xmm0, DWORD PTR __real@3f000000
  001b1	f3 0f 11 04 24	 movss	 DWORD PTR [esp], xmm0
  001b6	68 ee 02 00 00	 push	 750			; 000002eeH
  001bb	68 00 01 00 00	 push	 256			; 00000100H
  001c0	6a 02		 push	 2
  001c2	6a 01		 push	 1
  001c4	68 cf 00 00 00	 push	 207			; 000000cfH
  001c9	e8 00 00 00 00	 call	 ?set_fixed_3d_object_database_item@@YGXHHHHHMW4TARGET_TYPES@@W4TARGET_SYMBOL_TYPES@@@Z ; set_fixed_3d_object_database_item

; 437  : 	set_fixed_3d_object_database_item (OBJECT_3D_RUSSIAN_BUILDING02, EXPLOSIVE_QUALITY_DUST, EXPLOSIVE_POWER_MEDIUM, WARHEAD_EFFECTIVE_STONE_BUILDING, 750, IMPORTANCE_MED, TARGET_TYPE_GROUND, TARGET_SYMBOL_STRUCTURE);

  001ce	6a 07		 push	 7
  001d0	6a 01		 push	 1
  001d2	51		 push	 ecx
  001d3	f3 0f 10 05 00
	00 00 00	 movss	 xmm0, DWORD PTR __real@3f000000
  001db	f3 0f 11 04 24	 movss	 DWORD PTR [esp], xmm0
  001e0	68 ee 02 00 00	 push	 750			; 000002eeH
  001e5	68 00 01 00 00	 push	 256			; 00000100H
  001ea	6a 02		 push	 2
  001ec	6a 01		 push	 1
  001ee	68 d1 00 00 00	 push	 209			; 000000d1H
  001f3	e8 00 00 00 00	 call	 ?set_fixed_3d_object_database_item@@YGXHHHHHMW4TARGET_TYPES@@W4TARGET_SYMBOL_TYPES@@@Z ; set_fixed_3d_object_database_item

; 438  : 	set_fixed_3d_object_database_item (OBJECT_3D_RUSSIAN_BUILDING03, EXPLOSIVE_QUALITY_DUST, EXPLOSIVE_POWER_MEDIUM, WARHEAD_EFFECTIVE_STONE_BUILDING, 750, IMPORTANCE_MED, TARGET_TYPE_GROUND, TARGET_SYMBOL_STRUCTURE);

  001f8	6a 07		 push	 7
  001fa	6a 01		 push	 1
  001fc	51		 push	 ecx
  001fd	f3 0f 10 05 00
	00 00 00	 movss	 xmm0, DWORD PTR __real@3f000000
  00205	f3 0f 11 04 24	 movss	 DWORD PTR [esp], xmm0
  0020a	68 ee 02 00 00	 push	 750			; 000002eeH
  0020f	68 00 01 00 00	 push	 256			; 00000100H
  00214	6a 02		 push	 2
  00216	6a 01		 push	 1
  00218	68 d3 00 00 00	 push	 211			; 000000d3H
  0021d	e8 00 00 00 00	 call	 ?set_fixed_3d_object_database_item@@YGXHHHHHMW4TARGET_TYPES@@W4TARGET_SYMBOL_TYPES@@@Z ; set_fixed_3d_object_database_item

; 439  : 	set_fixed_3d_object_database_item (OBJECT_3D_RUSSIAN_BUILDING04, EXPLOSIVE_QUALITY_DUST, EXPLOSIVE_POWER_MEDIUM, WARHEAD_EFFECTIVE_STONE_BUILDING, 750, IMPORTANCE_MED, TARGET_TYPE_GROUND, TARGET_SYMBOL_STRUCTURE);

  00222	6a 07		 push	 7
  00224	6a 01		 push	 1
  00226	51		 push	 ecx
  00227	f3 0f 10 05 00
	00 00 00	 movss	 xmm0, DWORD PTR __real@3f000000
  0022f	f3 0f 11 04 24	 movss	 DWORD PTR [esp], xmm0
  00234	68 ee 02 00 00	 push	 750			; 000002eeH
  00239	68 00 01 00 00	 push	 256			; 00000100H
  0023e	6a 02		 push	 2
  00240	6a 01		 push	 1
  00242	68 d5 00 00 00	 push	 213			; 000000d5H
  00247	e8 00 00 00 00	 call	 ?set_fixed_3d_object_database_item@@YGXHHHHHMW4TARGET_TYPES@@W4TARGET_SYMBOL_TYPES@@@Z ; set_fixed_3d_object_database_item

; 440  : 
; 441  : 	set_fixed_3d_object_database_item (OBJECT_3D_MILITARY_FC_AMERICAN_BARRACKS01, EXPLOSIVE_QUALITY_DUST, EXPLOSIVE_POWER_MEDIUM, WARHEAD_EFFECTIVE_STONE_BUILDING, 750, IMPORTANCE_MED, TARGET_TYPE_GROUND, TARGET_SYMBOL_STRUCTURE);

  0024c	6a 07		 push	 7
  0024e	6a 01		 push	 1
  00250	51		 push	 ecx
  00251	f3 0f 10 05 00
	00 00 00	 movss	 xmm0, DWORD PTR __real@3f000000
  00259	f3 0f 11 04 24	 movss	 DWORD PTR [esp], xmm0
  0025e	68 ee 02 00 00	 push	 750			; 000002eeH
  00263	68 00 01 00 00	 push	 256			; 00000100H
  00268	6a 02		 push	 2
  0026a	6a 01		 push	 1
  0026c	68 7f 02 00 00	 push	 639			; 0000027fH
  00271	e8 00 00 00 00	 call	 ?set_fixed_3d_object_database_item@@YGXHHHHHMW4TARGET_TYPES@@W4TARGET_SYMBOL_TYPES@@@Z ; set_fixed_3d_object_database_item

; 442  : 	set_fixed_3d_object_database_item (OBJECT_3D_MILITARY_FC_AMERICAN_BARRACKS02, EXPLOSIVE_QUALITY_DUST, EXPLOSIVE_POWER_MEDIUM, WARHEAD_EFFECTIVE_STONE_BUILDING, 750, IMPORTANCE_MED, TARGET_TYPE_GROUND, TARGET_SYMBOL_STRUCTURE);

  00276	6a 07		 push	 7
  00278	6a 01		 push	 1
  0027a	51		 push	 ecx
  0027b	f3 0f 10 05 00
	00 00 00	 movss	 xmm0, DWORD PTR __real@3f000000
  00283	f3 0f 11 04 24	 movss	 DWORD PTR [esp], xmm0
  00288	68 ee 02 00 00	 push	 750			; 000002eeH
  0028d	68 00 01 00 00	 push	 256			; 00000100H
  00292	6a 02		 push	 2
  00294	6a 01		 push	 1
  00296	68 81 02 00 00	 push	 641			; 00000281H
  0029b	e8 00 00 00 00	 call	 ?set_fixed_3d_object_database_item@@YGXHHHHHMW4TARGET_TYPES@@W4TARGET_SYMBOL_TYPES@@@Z ; set_fixed_3d_object_database_item

; 443  : 	set_fixed_3d_object_database_item (OBJECT_3D_MILITARY_FC_AMERICAN_BARRACKS03, EXPLOSIVE_QUALITY_DUST, EXPLOSIVE_POWER_MEDIUM, WARHEAD_EFFECTIVE_STONE_BUILDING, 750, IMPORTANCE_MED, TARGET_TYPE_GROUND, TARGET_SYMBOL_STRUCTURE);

  002a0	6a 07		 push	 7
  002a2	6a 01		 push	 1
  002a4	51		 push	 ecx
  002a5	f3 0f 10 05 00
	00 00 00	 movss	 xmm0, DWORD PTR __real@3f000000
  002ad	f3 0f 11 04 24	 movss	 DWORD PTR [esp], xmm0
  002b2	68 ee 02 00 00	 push	 750			; 000002eeH
  002b7	68 00 01 00 00	 push	 256			; 00000100H
  002bc	6a 02		 push	 2
  002be	6a 01		 push	 1
  002c0	68 83 02 00 00	 push	 643			; 00000283H
  002c5	e8 00 00 00 00	 call	 ?set_fixed_3d_object_database_item@@YGXHHHHHMW4TARGET_TYPES@@W4TARGET_SYMBOL_TYPES@@@Z ; set_fixed_3d_object_database_item

; 444  : 	set_fixed_3d_object_database_item (OBJECT_3D_MILITARY_FR_AMERICAN_BUILDING01, EXPLOSIVE_QUALITY_DUST, EXPLOSIVE_POWER_MEDIUM, WARHEAD_EFFECTIVE_STONE_BUILDING, 750, IMPORTANCE_MED, TARGET_TYPE_GROUND, TARGET_SYMBOL_STRUCTURE);

  002ca	6a 07		 push	 7
  002cc	6a 01		 push	 1
  002ce	51		 push	 ecx
  002cf	f3 0f 10 05 00
	00 00 00	 movss	 xmm0, DWORD PTR __real@3f000000
  002d7	f3 0f 11 04 24	 movss	 DWORD PTR [esp], xmm0
  002dc	68 ee 02 00 00	 push	 750			; 000002eeH
  002e1	68 00 01 00 00	 push	 256			; 00000100H
  002e6	6a 02		 push	 2
  002e8	6a 01		 push	 1
  002ea	68 85 02 00 00	 push	 645			; 00000285H
  002ef	e8 00 00 00 00	 call	 ?set_fixed_3d_object_database_item@@YGXHHHHHMW4TARGET_TYPES@@W4TARGET_SYMBOL_TYPES@@@Z ; set_fixed_3d_object_database_item

; 445  : 	set_fixed_3d_object_database_item (OBJECT_3D_MILITARY_FC_AMERICAN_BUILDING02, EXPLOSIVE_QUALITY_DUST, EXPLOSIVE_POWER_MEDIUM, WARHEAD_EFFECTIVE_STONE_BUILDING, 750, IMPORTANCE_MED, TARGET_TYPE_GROUND, TARGET_SYMBOL_STRUCTURE);

  002f4	6a 07		 push	 7
  002f6	6a 01		 push	 1
  002f8	51		 push	 ecx
  002f9	f3 0f 10 05 00
	00 00 00	 movss	 xmm0, DWORD PTR __real@3f000000
  00301	f3 0f 11 04 24	 movss	 DWORD PTR [esp], xmm0
  00306	68 ee 02 00 00	 push	 750			; 000002eeH
  0030b	68 00 01 00 00	 push	 256			; 00000100H
  00310	6a 02		 push	 2
  00312	6a 01		 push	 1
  00314	68 87 02 00 00	 push	 647			; 00000287H
  00319	e8 00 00 00 00	 call	 ?set_fixed_3d_object_database_item@@YGXHHHHHMW4TARGET_TYPES@@W4TARGET_SYMBOL_TYPES@@@Z ; set_fixed_3d_object_database_item

; 446  : 
; 447  : 	set_fixed_3d_object_database_item (OBJECT_3D_MILITARY_FR_AMERICAN_TOWER_BUILDING01, EXPLOSIVE_QUALITY_DUST, EXPLOSIVE_POWER_MEDIUM, WARHEAD_EFFECTIVE_STONE_BUILDING, 750, IMPORTANCE_MED, TARGET_TYPE_GROUND, TARGET_SYMBOL_STRUCTURE);

  0031e	6a 07		 push	 7
  00320	6a 01		 push	 1
  00322	51		 push	 ecx
  00323	f3 0f 10 05 00
	00 00 00	 movss	 xmm0, DWORD PTR __real@3f000000
  0032b	f3 0f 11 04 24	 movss	 DWORD PTR [esp], xmm0
  00330	68 ee 02 00 00	 push	 750			; 000002eeH
  00335	68 00 01 00 00	 push	 256			; 00000100H
  0033a	6a 02		 push	 2
  0033c	6a 01		 push	 1
  0033e	68 9b 02 00 00	 push	 667			; 0000029bH
  00343	e8 00 00 00 00	 call	 ?set_fixed_3d_object_database_item@@YGXHHHHHMW4TARGET_TYPES@@W4TARGET_SYMBOL_TYPES@@@Z ; set_fixed_3d_object_database_item

; 448  : 	set_fixed_3d_object_database_item (OBJECT_3D_MILITARY_FR_AMERICAN_WATER_TOWER01, EXPLOSIVE_QUALITY_DUST, EXPLOSIVE_POWER_MEDIUM, WARHEAD_EFFECTIVE_STONE_BUILDING, 750, IMPORTANCE_MED, TARGET_TYPE_GROUND, TARGET_SYMBOL_STRUCTURE);

  00348	6a 07		 push	 7
  0034a	6a 01		 push	 1
  0034c	51		 push	 ecx
  0034d	f3 0f 10 05 00
	00 00 00	 movss	 xmm0, DWORD PTR __real@3f000000
  00355	f3 0f 11 04 24	 movss	 DWORD PTR [esp], xmm0
  0035a	68 ee 02 00 00	 push	 750			; 000002eeH
  0035f	68 00 01 00 00	 push	 256			; 00000100H
  00364	6a 02		 push	 2
  00366	6a 01		 push	 1
  00368	68 9d 02 00 00	 push	 669			; 0000029dH
  0036d	e8 00 00 00 00	 call	 ?set_fixed_3d_object_database_item@@YGXHHHHHMW4TARGET_TYPES@@W4TARGET_SYMBOL_TYPES@@@Z ; set_fixed_3d_object_database_item

; 449  : 	set_fixed_3d_object_database_item (OBJECT_3D_MILITARY_FR_AMERICAN_WATER_TOWER02, EXPLOSIVE_QUALITY_DUST, EXPLOSIVE_POWER_MEDIUM, WARHEAD_EFFECTIVE_STONE_BUILDING, 750, IMPORTANCE_MED, TARGET_TYPE_GROUND, TARGET_SYMBOL_STRUCTURE);

  00372	6a 07		 push	 7
  00374	6a 01		 push	 1
  00376	51		 push	 ecx
  00377	f3 0f 10 05 00
	00 00 00	 movss	 xmm0, DWORD PTR __real@3f000000
  0037f	f3 0f 11 04 24	 movss	 DWORD PTR [esp], xmm0
  00384	68 ee 02 00 00	 push	 750			; 000002eeH
  00389	68 00 01 00 00	 push	 256			; 00000100H
  0038e	6a 02		 push	 2
  00390	6a 01		 push	 1
  00392	68 9f 02 00 00	 push	 671			; 0000029fH
  00397	e8 00 00 00 00	 call	 ?set_fixed_3d_object_database_item@@YGXHHHHHMW4TARGET_TYPES@@W4TARGET_SYMBOL_TYPES@@@Z ; set_fixed_3d_object_database_item

; 450  : 
; 451  : 	set_fixed_3d_object_database_item (OBJECT_3D_LEBANON_KEY_MILITARY_FC_AMERICAN_BARRACKS01, EXPLOSIVE_QUALITY_DUST, EXPLOSIVE_POWER_MEDIUM, WARHEAD_EFFECTIVE_STONE_BUILDING, 750, IMPORTANCE_MED, TARGET_TYPE_GROUND, TARGET_SYMBOL_STRUCTURE);

  0039c	6a 07		 push	 7
  0039e	6a 01		 push	 1
  003a0	51		 push	 ecx
  003a1	f3 0f 10 05 00
	00 00 00	 movss	 xmm0, DWORD PTR __real@3f000000
  003a9	f3 0f 11 04 24	 movss	 DWORD PTR [esp], xmm0
  003ae	68 ee 02 00 00	 push	 750			; 000002eeH
  003b3	68 00 01 00 00	 push	 256			; 00000100H
  003b8	6a 02		 push	 2
  003ba	6a 01		 push	 1
  003bc	68 00 06 00 00	 push	 1536			; 00000600H
  003c1	e8 00 00 00 00	 call	 ?set_fixed_3d_object_database_item@@YGXHHHHHMW4TARGET_TYPES@@W4TARGET_SYMBOL_TYPES@@@Z ; set_fixed_3d_object_database_item

; 452  : 	set_fixed_3d_object_database_item (OBJECT_3D_LEBANON_KEY_MILITARY_FC_AMERICAN_BARRACKS02, EXPLOSIVE_QUALITY_DUST, EXPLOSIVE_POWER_MEDIUM, WARHEAD_EFFECTIVE_STONE_BUILDING, 750, IMPORTANCE_MED, TARGET_TYPE_GROUND, TARGET_SYMBOL_STRUCTURE);

  003c6	6a 07		 push	 7
  003c8	6a 01		 push	 1
  003ca	51		 push	 ecx
  003cb	f3 0f 10 05 00
	00 00 00	 movss	 xmm0, DWORD PTR __real@3f000000
  003d3	f3 0f 11 04 24	 movss	 DWORD PTR [esp], xmm0
  003d8	68 ee 02 00 00	 push	 750			; 000002eeH
  003dd	68 00 01 00 00	 push	 256			; 00000100H
  003e2	6a 02		 push	 2
  003e4	6a 01		 push	 1
  003e6	68 02 06 00 00	 push	 1538			; 00000602H
  003eb	e8 00 00 00 00	 call	 ?set_fixed_3d_object_database_item@@YGXHHHHHMW4TARGET_TYPES@@W4TARGET_SYMBOL_TYPES@@@Z ; set_fixed_3d_object_database_item

; 453  : 	set_fixed_3d_object_database_item (OBJECT_3D_LEBANON_KEY_MILITARY_FC_AMERICAN_BARRACKS03, EXPLOSIVE_QUALITY_DUST, EXPLOSIVE_POWER_MEDIUM, WARHEAD_EFFECTIVE_STONE_BUILDING, 750, IMPORTANCE_MED, TARGET_TYPE_GROUND, TARGET_SYMBOL_STRUCTURE);

  003f0	6a 07		 push	 7
  003f2	6a 01		 push	 1
  003f4	51		 push	 ecx
  003f5	f3 0f 10 05 00
	00 00 00	 movss	 xmm0, DWORD PTR __real@3f000000
  003fd	f3 0f 11 04 24	 movss	 DWORD PTR [esp], xmm0
  00402	68 ee 02 00 00	 push	 750			; 000002eeH
  00407	68 00 01 00 00	 push	 256			; 00000100H
  0040c	6a 02		 push	 2
  0040e	6a 01		 push	 1
  00410	68 04 06 00 00	 push	 1540			; 00000604H
  00415	e8 00 00 00 00	 call	 ?set_fixed_3d_object_database_item@@YGXHHHHHMW4TARGET_TYPES@@W4TARGET_SYMBOL_TYPES@@@Z ; set_fixed_3d_object_database_item

; 454  : 
; 455  : 	set_fixed_3d_object_database_item (OBJECT_3D_LEBANON_KEY_MILITARY_FC_AMERICAN_FACTORY01, EXPLOSIVE_QUALITY_DUST, EXPLOSIVE_POWER_MEDIUM, WARHEAD_EFFECTIVE_STONE_BUILDING, 750, IMPORTANCE_MED, TARGET_TYPE_GROUND, TARGET_SYMBOL_STRUCTURE);

  0041a	6a 07		 push	 7
  0041c	6a 01		 push	 1
  0041e	51		 push	 ecx
  0041f	f3 0f 10 05 00
	00 00 00	 movss	 xmm0, DWORD PTR __real@3f000000
  00427	f3 0f 11 04 24	 movss	 DWORD PTR [esp], xmm0
  0042c	68 ee 02 00 00	 push	 750			; 000002eeH
  00431	68 00 01 00 00	 push	 256			; 00000100H
  00436	6a 02		 push	 2
  00438	6a 01		 push	 1
  0043a	68 0a 06 00 00	 push	 1546			; 0000060aH
  0043f	e8 00 00 00 00	 call	 ?set_fixed_3d_object_database_item@@YGXHHHHHMW4TARGET_TYPES@@W4TARGET_SYMBOL_TYPES@@@Z ; set_fixed_3d_object_database_item

; 456  : 	set_fixed_3d_object_database_item (OBJECT_3D_LEBANON_KEY_MILITARY_FC_AMERICAN_FACTORY02, EXPLOSIVE_QUALITY_DUST, EXPLOSIVE_POWER_MEDIUM, WARHEAD_EFFECTIVE_STONE_BUILDING, 750, IMPORTANCE_MED, TARGET_TYPE_GROUND, TARGET_SYMBOL_STRUCTURE);

  00444	6a 07		 push	 7
  00446	6a 01		 push	 1
  00448	51		 push	 ecx
  00449	f3 0f 10 05 00
	00 00 00	 movss	 xmm0, DWORD PTR __real@3f000000
  00451	f3 0f 11 04 24	 movss	 DWORD PTR [esp], xmm0
  00456	68 ee 02 00 00	 push	 750			; 000002eeH
  0045b	68 00 01 00 00	 push	 256			; 00000100H
  00460	6a 02		 push	 2
  00462	6a 01		 push	 1
  00464	68 0c 06 00 00	 push	 1548			; 0000060cH
  00469	e8 00 00 00 00	 call	 ?set_fixed_3d_object_database_item@@YGXHHHHHMW4TARGET_TYPES@@W4TARGET_SYMBOL_TYPES@@@Z ; set_fixed_3d_object_database_item

; 457  : 	set_fixed_3d_object_database_item (OBJECT_3D_LEBANON_KEY_MILITARY_FC_AMERICAN_FACTORY03, EXPLOSIVE_QUALITY_DUST, EXPLOSIVE_POWER_MEDIUM, WARHEAD_EFFECTIVE_STONE_BUILDING, 750, IMPORTANCE_MED, TARGET_TYPE_GROUND, TARGET_SYMBOL_STRUCTURE);

  0046e	6a 07		 push	 7
  00470	6a 01		 push	 1
  00472	51		 push	 ecx
  00473	f3 0f 10 05 00
	00 00 00	 movss	 xmm0, DWORD PTR __real@3f000000
  0047b	f3 0f 11 04 24	 movss	 DWORD PTR [esp], xmm0
  00480	68 ee 02 00 00	 push	 750			; 000002eeH
  00485	68 00 01 00 00	 push	 256			; 00000100H
  0048a	6a 02		 push	 2
  0048c	6a 01		 push	 1
  0048e	68 0e 06 00 00	 push	 1550			; 0000060eH
  00493	e8 00 00 00 00	 call	 ?set_fixed_3d_object_database_item@@YGXHHHHHMW4TARGET_TYPES@@W4TARGET_SYMBOL_TYPES@@@Z ; set_fixed_3d_object_database_item

; 458  : 	set_fixed_3d_object_database_item (OBJECT_3D_LEBANON_KEY_MILITARY_FC_AMERICAN_FACTORY04, EXPLOSIVE_QUALITY_DUST, EXPLOSIVE_POWER_MEDIUM, WARHEAD_EFFECTIVE_STONE_BUILDING, 750, IMPORTANCE_MED, TARGET_TYPE_GROUND, TARGET_SYMBOL_STRUCTURE);

  00498	6a 07		 push	 7
  0049a	6a 01		 push	 1
  0049c	51		 push	 ecx
  0049d	f3 0f 10 05 00
	00 00 00	 movss	 xmm0, DWORD PTR __real@3f000000
  004a5	f3 0f 11 04 24	 movss	 DWORD PTR [esp], xmm0
  004aa	68 ee 02 00 00	 push	 750			; 000002eeH
  004af	68 00 01 00 00	 push	 256			; 00000100H
  004b4	6a 02		 push	 2
  004b6	6a 01		 push	 1
  004b8	68 10 06 00 00	 push	 1552			; 00000610H
  004bd	e8 00 00 00 00	 call	 ?set_fixed_3d_object_database_item@@YGXHHHHHMW4TARGET_TYPES@@W4TARGET_SYMBOL_TYPES@@@Z ; set_fixed_3d_object_database_item

; 459  : 
; 460  : 	set_fixed_3d_object_database_item (OBJECT_3D_LEBANON_KEY_MILITARY_FR_AMERICAN_TOWER_BUILDING01, EXPLOSIVE_QUALITY_DUST, EXPLOSIVE_POWER_MEDIUM, WARHEAD_EFFECTIVE_STONE_BUILDING, 750, IMPORTANCE_MED, TARGET_TYPE_GROUND, TARGET_SYMBOL_STRUCTURE);

  004c2	6a 07		 push	 7
  004c4	6a 01		 push	 1
  004c6	51		 push	 ecx
  004c7	f3 0f 10 05 00
	00 00 00	 movss	 xmm0, DWORD PTR __real@3f000000
  004cf	f3 0f 11 04 24	 movss	 DWORD PTR [esp], xmm0
  004d4	68 ee 02 00 00	 push	 750			; 000002eeH
  004d9	68 00 01 00 00	 push	 256			; 00000100H
  004de	6a 02		 push	 2
  004e0	6a 01		 push	 1
  004e2	68 16 06 00 00	 push	 1558			; 00000616H
  004e7	e8 00 00 00 00	 call	 ?set_fixed_3d_object_database_item@@YGXHHHHHMW4TARGET_TYPES@@W4TARGET_SYMBOL_TYPES@@@Z ; set_fixed_3d_object_database_item

; 461  : 	set_fixed_3d_object_database_item (OBJECT_3D_LEBANON_KEY_MILITARY_FR_AMERICAN_WATER_TOWER01, EXPLOSIVE_QUALITY_DUST, EXPLOSIVE_POWER_MEDIUM, WARHEAD_EFFECTIVE_STONE_BUILDING, 750, IMPORTANCE_MED, TARGET_TYPE_GROUND, TARGET_SYMBOL_STRUCTURE);

  004ec	6a 07		 push	 7
  004ee	6a 01		 push	 1
  004f0	51		 push	 ecx
  004f1	f3 0f 10 05 00
	00 00 00	 movss	 xmm0, DWORD PTR __real@3f000000
  004f9	f3 0f 11 04 24	 movss	 DWORD PTR [esp], xmm0
  004fe	68 ee 02 00 00	 push	 750			; 000002eeH
  00503	68 00 01 00 00	 push	 256			; 00000100H
  00508	6a 02		 push	 2
  0050a	6a 01		 push	 1
  0050c	68 18 06 00 00	 push	 1560			; 00000618H
  00511	e8 00 00 00 00	 call	 ?set_fixed_3d_object_database_item@@YGXHHHHHMW4TARGET_TYPES@@W4TARGET_SYMBOL_TYPES@@@Z ; set_fixed_3d_object_database_item

; 462  : 	set_fixed_3d_object_database_item (OBJECT_3D_LEBANON_KEY_MILITARY_FR_AMERICAN_WATER_TOWER02, EXPLOSIVE_QUALITY_DUST, EXPLOSIVE_POWER_MEDIUM, WARHEAD_EFFECTIVE_STONE_BUILDING, 750, IMPORTANCE_MED, TARGET_TYPE_GROUND, TARGET_SYMBOL_STRUCTURE);

  00516	6a 07		 push	 7
  00518	6a 01		 push	 1
  0051a	51		 push	 ecx
  0051b	f3 0f 10 05 00
	00 00 00	 movss	 xmm0, DWORD PTR __real@3f000000
  00523	f3 0f 11 04 24	 movss	 DWORD PTR [esp], xmm0
  00528	68 ee 02 00 00	 push	 750			; 000002eeH
  0052d	68 00 01 00 00	 push	 256			; 00000100H
  00532	6a 02		 push	 2
  00534	6a 01		 push	 1
  00536	68 1a 06 00 00	 push	 1562			; 0000061aH
  0053b	e8 00 00 00 00	 call	 ?set_fixed_3d_object_database_item@@YGXHHHHHMW4TARGET_TYPES@@W4TARGET_SYMBOL_TYPES@@@Z ; set_fixed_3d_object_database_item

; 463  : 
; 464  : 	set_fixed_3d_object_database_item (OBJECT_3D_TAIWAN_KEY_MILITARY_FC_AMERICAN_BARRACKS01, EXPLOSIVE_QUALITY_DUST, EXPLOSIVE_POWER_MEDIUM, WARHEAD_EFFECTIVE_STONE_BUILDING, 750, IMPORTANCE_MED, TARGET_TYPE_GROUND, TARGET_SYMBOL_STRUCTURE);

  00540	6a 07		 push	 7
  00542	6a 01		 push	 1
  00544	51		 push	 ecx
  00545	f3 0f 10 05 00
	00 00 00	 movss	 xmm0, DWORD PTR __real@3f000000
  0054d	f3 0f 11 04 24	 movss	 DWORD PTR [esp], xmm0
  00552	68 ee 02 00 00	 push	 750			; 000002eeH
  00557	68 00 01 00 00	 push	 256			; 00000100H
  0055c	6a 02		 push	 2
  0055e	6a 01		 push	 1
  00560	68 d7 07 00 00	 push	 2007			; 000007d7H
  00565	e8 00 00 00 00	 call	 ?set_fixed_3d_object_database_item@@YGXHHHHHMW4TARGET_TYPES@@W4TARGET_SYMBOL_TYPES@@@Z ; set_fixed_3d_object_database_item

; 465  : 	set_fixed_3d_object_database_item (OBJECT_3D_TAIWAN_KEY_MILITARY_FC_AMERICAN_BARRACKS02, EXPLOSIVE_QUALITY_DUST, EXPLOSIVE_POWER_MEDIUM, WARHEAD_EFFECTIVE_STONE_BUILDING, 750, IMPORTANCE_MED, TARGET_TYPE_GROUND, TARGET_SYMBOL_STRUCTURE);

  0056a	6a 07		 push	 7
  0056c	6a 01		 push	 1
  0056e	51		 push	 ecx
  0056f	f3 0f 10 05 00
	00 00 00	 movss	 xmm0, DWORD PTR __real@3f000000
  00577	f3 0f 11 04 24	 movss	 DWORD PTR [esp], xmm0
  0057c	68 ee 02 00 00	 push	 750			; 000002eeH
  00581	68 00 01 00 00	 push	 256			; 00000100H
  00586	6a 02		 push	 2
  00588	6a 01		 push	 1
  0058a	68 d9 07 00 00	 push	 2009			; 000007d9H
  0058f	e8 00 00 00 00	 call	 ?set_fixed_3d_object_database_item@@YGXHHHHHMW4TARGET_TYPES@@W4TARGET_SYMBOL_TYPES@@@Z ; set_fixed_3d_object_database_item

; 466  : 	set_fixed_3d_object_database_item (OBJECT_3D_TAIWAN_KEY_MILITARY_FC_AMERICAN_BARRACKS03, EXPLOSIVE_QUALITY_DUST, EXPLOSIVE_POWER_MEDIUM, WARHEAD_EFFECTIVE_STONE_BUILDING, 750, IMPORTANCE_MED, TARGET_TYPE_GROUND, TARGET_SYMBOL_STRUCTURE);

  00594	6a 07		 push	 7
  00596	6a 01		 push	 1
  00598	51		 push	 ecx
  00599	f3 0f 10 05 00
	00 00 00	 movss	 xmm0, DWORD PTR __real@3f000000
  005a1	f3 0f 11 04 24	 movss	 DWORD PTR [esp], xmm0
  005a6	68 ee 02 00 00	 push	 750			; 000002eeH
  005ab	68 00 01 00 00	 push	 256			; 00000100H
  005b0	6a 02		 push	 2
  005b2	6a 01		 push	 1
  005b4	68 db 07 00 00	 push	 2011			; 000007dbH
  005b9	e8 00 00 00 00	 call	 ?set_fixed_3d_object_database_item@@YGXHHHHHMW4TARGET_TYPES@@W4TARGET_SYMBOL_TYPES@@@Z ; set_fixed_3d_object_database_item

; 467  : 
; 468  : 	set_fixed_3d_object_database_item (OBJECT_3D_TAIWAN_KEY_MILITARY_FC_AMERICAN_FACTORY01, EXPLOSIVE_QUALITY_DUST, EXPLOSIVE_POWER_MEDIUM, WARHEAD_EFFECTIVE_STONE_BUILDING, 750, IMPORTANCE_MED, TARGET_TYPE_GROUND, TARGET_SYMBOL_STRUCTURE);

  005be	6a 07		 push	 7
  005c0	6a 01		 push	 1
  005c2	51		 push	 ecx
  005c3	f3 0f 10 05 00
	00 00 00	 movss	 xmm0, DWORD PTR __real@3f000000
  005cb	f3 0f 11 04 24	 movss	 DWORD PTR [esp], xmm0
  005d0	68 ee 02 00 00	 push	 750			; 000002eeH
  005d5	68 00 01 00 00	 push	 256			; 00000100H
  005da	6a 02		 push	 2
  005dc	6a 01		 push	 1
  005de	68 e1 07 00 00	 push	 2017			; 000007e1H
  005e3	e8 00 00 00 00	 call	 ?set_fixed_3d_object_database_item@@YGXHHHHHMW4TARGET_TYPES@@W4TARGET_SYMBOL_TYPES@@@Z ; set_fixed_3d_object_database_item

; 469  : 	set_fixed_3d_object_database_item (OBJECT_3D_TAIWAN_KEY_MILITARY_FC_AMERICAN_FACTORY02, EXPLOSIVE_QUALITY_DUST, EXPLOSIVE_POWER_MEDIUM, WARHEAD_EFFECTIVE_STONE_BUILDING, 750, IMPORTANCE_MED, TARGET_TYPE_GROUND, TARGET_SYMBOL_STRUCTURE);

  005e8	6a 07		 push	 7
  005ea	6a 01		 push	 1
  005ec	51		 push	 ecx
  005ed	f3 0f 10 05 00
	00 00 00	 movss	 xmm0, DWORD PTR __real@3f000000
  005f5	f3 0f 11 04 24	 movss	 DWORD PTR [esp], xmm0
  005fa	68 ee 02 00 00	 push	 750			; 000002eeH
  005ff	68 00 01 00 00	 push	 256			; 00000100H
  00604	6a 02		 push	 2
  00606	6a 01		 push	 1
  00608	68 e3 07 00 00	 push	 2019			; 000007e3H
  0060d	e8 00 00 00 00	 call	 ?set_fixed_3d_object_database_item@@YGXHHHHHMW4TARGET_TYPES@@W4TARGET_SYMBOL_TYPES@@@Z ; set_fixed_3d_object_database_item

; 470  : 	set_fixed_3d_object_database_item (OBJECT_3D_TAIWAN_KEY_MILITARY_FC_AMERICAN_FACTORY03, EXPLOSIVE_QUALITY_DUST, EXPLOSIVE_POWER_MEDIUM, WARHEAD_EFFECTIVE_STONE_BUILDING, 750, IMPORTANCE_MED, TARGET_TYPE_GROUND, TARGET_SYMBOL_STRUCTURE);

  00612	6a 07		 push	 7
  00614	6a 01		 push	 1
  00616	51		 push	 ecx
  00617	f3 0f 10 05 00
	00 00 00	 movss	 xmm0, DWORD PTR __real@3f000000
  0061f	f3 0f 11 04 24	 movss	 DWORD PTR [esp], xmm0
  00624	68 ee 02 00 00	 push	 750			; 000002eeH
  00629	68 00 01 00 00	 push	 256			; 00000100H
  0062e	6a 02		 push	 2
  00630	6a 01		 push	 1
  00632	68 e5 07 00 00	 push	 2021			; 000007e5H
  00637	e8 00 00 00 00	 call	 ?set_fixed_3d_object_database_item@@YGXHHHHHMW4TARGET_TYPES@@W4TARGET_SYMBOL_TYPES@@@Z ; set_fixed_3d_object_database_item

; 471  : 	set_fixed_3d_object_database_item (OBJECT_3D_TAIWAN_KEY_MILITARY_FC_AMERICAN_FACTORY04, EXPLOSIVE_QUALITY_DUST, EXPLOSIVE_POWER_MEDIUM, WARHEAD_EFFECTIVE_STONE_BUILDING, 750, IMPORTANCE_MED, TARGET_TYPE_GROUND, TARGET_SYMBOL_STRUCTURE);

  0063c	6a 07		 push	 7
  0063e	6a 01		 push	 1
  00640	51		 push	 ecx
  00641	f3 0f 10 05 00
	00 00 00	 movss	 xmm0, DWORD PTR __real@3f000000
  00649	f3 0f 11 04 24	 movss	 DWORD PTR [esp], xmm0
  0064e	68 ee 02 00 00	 push	 750			; 000002eeH
  00653	68 00 01 00 00	 push	 256			; 00000100H
  00658	6a 02		 push	 2
  0065a	6a 01		 push	 1
  0065c	68 e7 07 00 00	 push	 2023			; 000007e7H
  00661	e8 00 00 00 00	 call	 ?set_fixed_3d_object_database_item@@YGXHHHHHMW4TARGET_TYPES@@W4TARGET_SYMBOL_TYPES@@@Z ; set_fixed_3d_object_database_item

; 472  : 
; 473  : 	set_fixed_3d_object_database_item (OBJECT_3D_TAIWAN_KEY_MILITARY_FR_AMERICAN_TOWER_BUILDING01, EXPLOSIVE_QUALITY_DUST, EXPLOSIVE_POWER_MEDIUM, WARHEAD_EFFECTIVE_STONE_BUILDING, 750, IMPORTANCE_MED, TARGET_TYPE_GROUND, TARGET_SYMBOL_STRUCTURE);

  00666	6a 07		 push	 7
  00668	6a 01		 push	 1
  0066a	51		 push	 ecx
  0066b	f3 0f 10 05 00
	00 00 00	 movss	 xmm0, DWORD PTR __real@3f000000
  00673	f3 0f 11 04 24	 movss	 DWORD PTR [esp], xmm0
  00678	68 ee 02 00 00	 push	 750			; 000002eeH
  0067d	68 00 01 00 00	 push	 256			; 00000100H
  00682	6a 02		 push	 2
  00684	6a 01		 push	 1
  00686	68 ed 07 00 00	 push	 2029			; 000007edH
  0068b	e8 00 00 00 00	 call	 ?set_fixed_3d_object_database_item@@YGXHHHHHMW4TARGET_TYPES@@W4TARGET_SYMBOL_TYPES@@@Z ; set_fixed_3d_object_database_item

; 474  : 	set_fixed_3d_object_database_item (OBJECT_3D_TAIWAN_KEY_MILITARY_FR_AMERICAN_WATER_TOWER01, EXPLOSIVE_QUALITY_DUST, EXPLOSIVE_POWER_MEDIUM, WARHEAD_EFFECTIVE_STONE_BUILDING, 750, IMPORTANCE_MED, TARGET_TYPE_GROUND, TARGET_SYMBOL_STRUCTURE);

  00690	6a 07		 push	 7
  00692	6a 01		 push	 1
  00694	51		 push	 ecx
  00695	f3 0f 10 05 00
	00 00 00	 movss	 xmm0, DWORD PTR __real@3f000000
  0069d	f3 0f 11 04 24	 movss	 DWORD PTR [esp], xmm0
  006a2	68 ee 02 00 00	 push	 750			; 000002eeH
  006a7	68 00 01 00 00	 push	 256			; 00000100H
  006ac	6a 02		 push	 2
  006ae	6a 01		 push	 1
  006b0	68 ef 07 00 00	 push	 2031			; 000007efH
  006b5	e8 00 00 00 00	 call	 ?set_fixed_3d_object_database_item@@YGXHHHHHMW4TARGET_TYPES@@W4TARGET_SYMBOL_TYPES@@@Z ; set_fixed_3d_object_database_item

; 475  : 	set_fixed_3d_object_database_item (OBJECT_3D_TAIWAN_KEY_MILITARY_FR_AMERICAN_WATER_TOWER02, EXPLOSIVE_QUALITY_DUST, EXPLOSIVE_POWER_MEDIUM, WARHEAD_EFFECTIVE_STONE_BUILDING, 750, IMPORTANCE_MED, TARGET_TYPE_GROUND, TARGET_SYMBOL_STRUCTURE);

  006ba	6a 07		 push	 7
  006bc	6a 01		 push	 1
  006be	51		 push	 ecx
  006bf	f3 0f 10 05 00
	00 00 00	 movss	 xmm0, DWORD PTR __real@3f000000
  006c7	f3 0f 11 04 24	 movss	 DWORD PTR [esp], xmm0
  006cc	68 ee 02 00 00	 push	 750			; 000002eeH
  006d1	68 00 01 00 00	 push	 256			; 00000100H
  006d6	6a 02		 push	 2
  006d8	6a 01		 push	 1
  006da	68 f1 07 00 00	 push	 2033			; 000007f1H
  006df	e8 00 00 00 00	 call	 ?set_fixed_3d_object_database_item@@YGXHHHHHMW4TARGET_TYPES@@W4TARGET_SYMBOL_TYPES@@@Z ; set_fixed_3d_object_database_item

; 476  : 
; 477  : 	set_fixed_3d_object_database_item (OBJECT_3D_TAIWAN_KEY_MILITARY_FC_EARTHSTATION1, EXPLOSIVE_QUALITY_DUST, EXPLOSIVE_POWER_MEDIUM, WARHEAD_EFFECTIVE_STONE_BUILDING, 750, IMPORTANCE_MED, TARGET_TYPE_GROUND, TARGET_SYMBOL_STRUCTURE);

  006e4	6a 07		 push	 7
  006e6	6a 01		 push	 1
  006e8	51		 push	 ecx
  006e9	f3 0f 10 05 00
	00 00 00	 movss	 xmm0, DWORD PTR __real@3f000000
  006f1	f3 0f 11 04 24	 movss	 DWORD PTR [esp], xmm0
  006f6	68 ee 02 00 00	 push	 750			; 000002eeH
  006fb	68 00 01 00 00	 push	 256			; 00000100H
  00700	6a 02		 push	 2
  00702	6a 01		 push	 1
  00704	68 ca 07 00 00	 push	 1994			; 000007caH
  00709	e8 00 00 00 00	 call	 ?set_fixed_3d_object_database_item@@YGXHHHHHMW4TARGET_TYPES@@W4TARGET_SYMBOL_TYPES@@@Z ; set_fixed_3d_object_database_item

; 478  : 	set_fixed_3d_object_database_item (OBJECT_3D_TAIWAN_KEY_MILITARY_FC_EW_RADOME_B, EXPLOSIVE_QUALITY_DUST, EXPLOSIVE_POWER_MEDIUM, WARHEAD_EFFECTIVE_STONE_BUILDING, 750, IMPORTANCE_MED, TARGET_TYPE_GROUND, TARGET_SYMBOL_STRUCTURE);

  0070e	6a 07		 push	 7
  00710	6a 01		 push	 1
  00712	51		 push	 ecx
  00713	f3 0f 10 05 00
	00 00 00	 movss	 xmm0, DWORD PTR __real@3f000000
  0071b	f3 0f 11 04 24	 movss	 DWORD PTR [esp], xmm0
  00720	68 ee 02 00 00	 push	 750			; 000002eeH
  00725	68 00 01 00 00	 push	 256			; 00000100H
  0072a	6a 02		 push	 2
  0072c	6a 01		 push	 1
  0072e	68 cc 07 00 00	 push	 1996			; 000007ccH
  00733	e8 00 00 00 00	 call	 ?set_fixed_3d_object_database_item@@YGXHHHHHMW4TARGET_TYPES@@W4TARGET_SYMBOL_TYPES@@@Z ; set_fixed_3d_object_database_item

; 479  : 
; 480  : 	set_fixed_3d_object_database_item (OBJECT_3D_Y_KEY_MILITARY_FC_EARTHSTATION1, EXPLOSIVE_QUALITY_DUST, EXPLOSIVE_POWER_MEDIUM, WARHEAD_EFFECTIVE_STONE_BUILDING, 750, IMPORTANCE_MED, TARGET_TYPE_GROUND, TARGET_SYMBOL_STRUCTURE);

  00738	6a 07		 push	 7
  0073a	6a 01		 push	 1
  0073c	51		 push	 ecx
  0073d	f3 0f 10 05 00
	00 00 00	 movss	 xmm0, DWORD PTR __real@3f000000
  00745	f3 0f 11 04 24	 movss	 DWORD PTR [esp], xmm0
  0074a	68 ee 02 00 00	 push	 750			; 000002eeH
  0074f	68 00 01 00 00	 push	 256			; 00000100H
  00754	6a 02		 push	 2
  00756	6a 01		 push	 1
  00758	68 f4 08 00 00	 push	 2292			; 000008f4H
  0075d	e8 00 00 00 00	 call	 ?set_fixed_3d_object_database_item@@YGXHHHHHMW4TARGET_TYPES@@W4TARGET_SYMBOL_TYPES@@@Z ; set_fixed_3d_object_database_item

; 481  : 	set_fixed_3d_object_database_item (OBJECT_3D_Y_KEY_MILITARY_FC_EARTHSTATION_SMALL, EXPLOSIVE_QUALITY_DUST, EXPLOSIVE_POWER_MEDIUM, WARHEAD_EFFECTIVE_STONE_BUILDING, 750, IMPORTANCE_MED, TARGET_TYPE_GROUND, TARGET_SYMBOL_STRUCTURE);

  00762	6a 07		 push	 7
  00764	6a 01		 push	 1
  00766	51		 push	 ecx
  00767	f3 0f 10 05 00
	00 00 00	 movss	 xmm0, DWORD PTR __real@3f000000
  0076f	f3 0f 11 04 24	 movss	 DWORD PTR [esp], xmm0
  00774	68 ee 02 00 00	 push	 750			; 000002eeH
  00779	68 00 01 00 00	 push	 256			; 00000100H
  0077e	6a 02		 push	 2
  00780	6a 01		 push	 1
  00782	68 f6 08 00 00	 push	 2294			; 000008f6H
  00787	e8 00 00 00 00	 call	 ?set_fixed_3d_object_database_item@@YGXHHHHHMW4TARGET_TYPES@@W4TARGET_SYMBOL_TYPES@@@Z ; set_fixed_3d_object_database_item

; 482  : 
; 483  : 	set_fixed_3d_object_database_item (OBJECT_3D_Y_KEY_MILITARY_FC_EW_RADOME, EXPLOSIVE_QUALITY_DUST, EXPLOSIVE_POWER_MEDIUM, WARHEAD_EFFECTIVE_STONE_BUILDING, 750, IMPORTANCE_MED, TARGET_TYPE_GROUND, TARGET_SYMBOL_STRUCTURE);

  0078c	6a 07		 push	 7
  0078e	6a 01		 push	 1
  00790	51		 push	 ecx
  00791	f3 0f 10 05 00
	00 00 00	 movss	 xmm0, DWORD PTR __real@3f000000
  00799	f3 0f 11 04 24	 movss	 DWORD PTR [esp], xmm0
  0079e	68 ee 02 00 00	 push	 750			; 000002eeH
  007a3	68 00 01 00 00	 push	 256			; 00000100H
  007a8	6a 02		 push	 2
  007aa	6a 01		 push	 1
  007ac	68 fa 08 00 00	 push	 2298			; 000008faH
  007b1	e8 00 00 00 00	 call	 ?set_fixed_3d_object_database_item@@YGXHHHHHMW4TARGET_TYPES@@W4TARGET_SYMBOL_TYPES@@@Z ; set_fixed_3d_object_database_item

; 484  : 	set_fixed_3d_object_database_item (OBJECT_3D_Y_KEY_MILITARY_FC_EW_RADOME_B, EXPLOSIVE_QUALITY_DUST, EXPLOSIVE_POWER_MEDIUM, WARHEAD_EFFECTIVE_STONE_BUILDING, 750, IMPORTANCE_MED, TARGET_TYPE_GROUND, TARGET_SYMBOL_STRUCTURE);

  007b6	6a 07		 push	 7
  007b8	6a 01		 push	 1
  007ba	51		 push	 ecx
  007bb	f3 0f 10 05 00
	00 00 00	 movss	 xmm0, DWORD PTR __real@3f000000
  007c3	f3 0f 11 04 24	 movss	 DWORD PTR [esp], xmm0
  007c8	68 ee 02 00 00	 push	 750			; 000002eeH
  007cd	68 00 01 00 00	 push	 256			; 00000100H
  007d2	6a 02		 push	 2
  007d4	6a 01		 push	 1
  007d6	68 f8 08 00 00	 push	 2296			; 000008f8H
  007db	e8 00 00 00 00	 call	 ?set_fixed_3d_object_database_item@@YGXHHHHHMW4TARGET_TYPES@@W4TARGET_SYMBOL_TYPES@@@Z ; set_fixed_3d_object_database_item

; 485  : 
; 486  : 	set_fixed_3d_object_database_item (OBJECT_3D_Y_KEY_MILITARY_FC_BARRACKS01, EXPLOSIVE_QUALITY_DUST, EXPLOSIVE_POWER_MEDIUM, WARHEAD_EFFECTIVE_STONE_BUILDING, 750, IMPORTANCE_MED, TARGET_TYPE_GROUND, TARGET_SYMBOL_STRUCTURE);

  007e0	6a 07		 push	 7
  007e2	6a 01		 push	 1
  007e4	51		 push	 ecx
  007e5	f3 0f 10 05 00
	00 00 00	 movss	 xmm0, DWORD PTR __real@3f000000
  007ed	f3 0f 11 04 24	 movss	 DWORD PTR [esp], xmm0
  007f2	68 ee 02 00 00	 push	 750			; 000002eeH
  007f7	68 00 01 00 00	 push	 256			; 00000100H
  007fc	6a 02		 push	 2
  007fe	6a 01		 push	 1
  00800	68 05 09 00 00	 push	 2309			; 00000905H
  00805	e8 00 00 00 00	 call	 ?set_fixed_3d_object_database_item@@YGXHHHHHMW4TARGET_TYPES@@W4TARGET_SYMBOL_TYPES@@@Z ; set_fixed_3d_object_database_item

; 487  : 	set_fixed_3d_object_database_item (OBJECT_3D_Y_KEY_MILITARY_FC_BARRACKS02, EXPLOSIVE_QUALITY_DUST, EXPLOSIVE_POWER_MEDIUM, WARHEAD_EFFECTIVE_STONE_BUILDING, 750, IMPORTANCE_MED, TARGET_TYPE_GROUND, TARGET_SYMBOL_STRUCTURE);

  0080a	6a 07		 push	 7
  0080c	6a 01		 push	 1
  0080e	51		 push	 ecx
  0080f	f3 0f 10 05 00
	00 00 00	 movss	 xmm0, DWORD PTR __real@3f000000
  00817	f3 0f 11 04 24	 movss	 DWORD PTR [esp], xmm0
  0081c	68 ee 02 00 00	 push	 750			; 000002eeH
  00821	68 00 01 00 00	 push	 256			; 00000100H
  00826	6a 02		 push	 2
  00828	6a 01		 push	 1
  0082a	68 07 09 00 00	 push	 2311			; 00000907H
  0082f	e8 00 00 00 00	 call	 ?set_fixed_3d_object_database_item@@YGXHHHHHMW4TARGET_TYPES@@W4TARGET_SYMBOL_TYPES@@@Z ; set_fixed_3d_object_database_item

; 488  : 	set_fixed_3d_object_database_item (OBJECT_3D_Y_KEY_MILITARY_FC_BARRACKS03, EXPLOSIVE_QUALITY_DUST, EXPLOSIVE_POWER_MEDIUM, WARHEAD_EFFECTIVE_STONE_BUILDING, 750, IMPORTANCE_MED, TARGET_TYPE_GROUND, TARGET_SYMBOL_STRUCTURE);

  00834	6a 07		 push	 7
  00836	6a 01		 push	 1
  00838	51		 push	 ecx
  00839	f3 0f 10 05 00
	00 00 00	 movss	 xmm0, DWORD PTR __real@3f000000
  00841	f3 0f 11 04 24	 movss	 DWORD PTR [esp], xmm0
  00846	68 ee 02 00 00	 push	 750			; 000002eeH
  0084b	68 00 01 00 00	 push	 256			; 00000100H
  00850	6a 02		 push	 2
  00852	6a 01		 push	 1
  00854	68 09 09 00 00	 push	 2313			; 00000909H
  00859	e8 00 00 00 00	 call	 ?set_fixed_3d_object_database_item@@YGXHHHHHMW4TARGET_TYPES@@W4TARGET_SYMBOL_TYPES@@@Z ; set_fixed_3d_object_database_item

; 489  : 
; 490  : 	set_fixed_3d_object_database_item (OBJECT_3D_Y_KEY_MILITARY_FC_SHED01, EXPLOSIVE_QUALITY_DUST, EXPLOSIVE_POWER_MEDIUM, WARHEAD_EFFECTIVE_STONE_BUILDING, 750, IMPORTANCE_MED, TARGET_TYPE_GROUND, TARGET_SYMBOL_STRUCTURE);

  0085e	6a 07		 push	 7
  00860	6a 01		 push	 1
  00862	51		 push	 ecx
  00863	f3 0f 10 05 00
	00 00 00	 movss	 xmm0, DWORD PTR __real@3f000000
  0086b	f3 0f 11 04 24	 movss	 DWORD PTR [esp], xmm0
  00870	68 ee 02 00 00	 push	 750			; 000002eeH
  00875	68 00 01 00 00	 push	 256			; 00000100H
  0087a	6a 02		 push	 2
  0087c	6a 01		 push	 1
  0087e	68 26 09 00 00	 push	 2342			; 00000926H
  00883	e8 00 00 00 00	 call	 ?set_fixed_3d_object_database_item@@YGXHHHHHMW4TARGET_TYPES@@W4TARGET_SYMBOL_TYPES@@@Z ; set_fixed_3d_object_database_item

; 491  : 
; 492  : 	set_fixed_3d_object_database_item (OBJECT_3D_KEY_PORT_FC_SHED003_13M_10X6, EXPLOSIVE_QUALITY_DUST, EXPLOSIVE_POWER_MEDIUM, WARHEAD_EFFECTIVE_STONE_BUILDING, 750, IMPORTANCE_MED, TARGET_TYPE_GROUND, TARGET_SYMBOL_STRUCTURE);

  00888	6a 07		 push	 7
  0088a	6a 01		 push	 1
  0088c	51		 push	 ecx
  0088d	f3 0f 10 05 00
	00 00 00	 movss	 xmm0, DWORD PTR __real@3f000000
  00895	f3 0f 11 04 24	 movss	 DWORD PTR [esp], xmm0
  0089a	68 ee 02 00 00	 push	 750			; 000002eeH
  0089f	68 00 01 00 00	 push	 256			; 00000100H
  008a4	6a 02		 push	 2
  008a6	6a 01		 push	 1
  008a8	68 a1 06 00 00	 push	 1697			; 000006a1H
  008ad	e8 00 00 00 00	 call	 ?set_fixed_3d_object_database_item@@YGXHHHHHMW4TARGET_TYPES@@W4TARGET_SYMBOL_TYPES@@@Z ; set_fixed_3d_object_database_item

; 493  : 
; 494  : 	// INVALID TARGETS
; 495  : }

  008b2	5f		 pop	 edi
  008b3	5e		 pop	 esi
  008b4	5b		 pop	 ebx
  008b5	8b e5		 mov	 esp, ebp
  008b7	5d		 pop	 ebp
  008b8	c3		 ret	 0
?initialise_medium_importance_medium_stone_buildings@@YGXXZ ENDP ; initialise_medium_importance_medium_stone_buildings
_TEXT	ENDS
; Function compile flags: /Odtp /ZI
; File c:\users\nhv90\projects\eech\aphavoc\source\entity\fixed\fx_objdb.c
;	COMDAT ?initialise_high_importance_high_explosive_buildings@@YGXXZ
_TEXT	SEGMENT
?initialise_high_importance_high_explosive_buildings@@YGXXZ PROC ; initialise_high_importance_high_explosive_buildings, COMDAT

; 357  : {

  00000	55		 push	 ebp
  00001	8b ec		 mov	 ebp, esp
  00003	83 ec 40	 sub	 esp, 64			; 00000040H
  00006	53		 push	 ebx
  00007	56		 push	 esi
  00008	57		 push	 edi

; 358  : 	////////////////////////////////////////////////////////////////////////////////////
; 359  : 	//
; 360  : 	// HIGH IMPORTANCE HIGH EXPLOSIVE BUILDINGS
; 361  : 	//
; 362  : 	////////////////////////////////////////////////////////////////////////////////////
; 363  : 
; 364  : 	// VALID TARGETS
; 365  : 
; 366  : 	set_fixed_3d_object_database_item (OBJECT_3D_KEY_PORT_FC_MILITARYSUPPLY001, EXPLOSIVE_QUALITY_EXPLOSIVE, EXPLOSIVE_POWER_HIGH, WARHEAD_EFFECTIVE_HARDENED_BUILDING, 3600, IMPORTANCE_HIGH, TARGET_TYPE_GROUND, TARGET_SYMBOL_STRUCTURE);

  00009	6a 07		 push	 7
  0000b	6a 01		 push	 1
  0000d	51		 push	 ecx
  0000e	f3 0f 10 05 00
	00 00 00	 movss	 xmm0, DWORD PTR __real@3f800000
  00016	f3 0f 11 04 24	 movss	 DWORD PTR [esp], xmm0
  0001b	68 10 0e 00 00	 push	 3600			; 00000e10H
  00020	68 00 20 00 00	 push	 8192			; 00002000H
  00025	6a 03		 push	 3
  00027	6a 02		 push	 2
  00029	68 a9 06 00 00	 push	 1705			; 000006a9H
  0002e	e8 00 00 00 00	 call	 ?set_fixed_3d_object_database_item@@YGXHHHHHMW4TARGET_TYPES@@W4TARGET_SYMBOL_TYPES@@@Z ; set_fixed_3d_object_database_item

; 367  : 	set_fixed_3d_object_database_item (OBJECT_3D_KEY_PORT_FC_MILITARYSUPPLY002, EXPLOSIVE_QUALITY_EXPLOSIVE, EXPLOSIVE_POWER_HIGH, WARHEAD_EFFECTIVE_HARDENED_BUILDING, 3600, IMPORTANCE_HIGH, TARGET_TYPE_GROUND, TARGET_SYMBOL_STRUCTURE);

  00033	6a 07		 push	 7
  00035	6a 01		 push	 1
  00037	51		 push	 ecx
  00038	f3 0f 10 05 00
	00 00 00	 movss	 xmm0, DWORD PTR __real@3f800000
  00040	f3 0f 11 04 24	 movss	 DWORD PTR [esp], xmm0
  00045	68 10 0e 00 00	 push	 3600			; 00000e10H
  0004a	68 00 20 00 00	 push	 8192			; 00002000H
  0004f	6a 03		 push	 3
  00051	6a 02		 push	 2
  00053	68 ab 06 00 00	 push	 1707			; 000006abH
  00058	e8 00 00 00 00	 call	 ?set_fixed_3d_object_database_item@@YGXHHHHHMW4TARGET_TYPES@@W4TARGET_SYMBOL_TYPES@@@Z ; set_fixed_3d_object_database_item

; 368  : 
; 369  : 	set_fixed_3d_object_database_item (OBJECT_3D_LEBANON_KEY_POWER_FC_POWER_PLANT01, EXPLOSIVE_QUALITY_EXPLOSIVE, EXPLOSIVE_POWER_HIGH, WARHEAD_EFFECTIVE_HARDENED_BUILDING, 1500, IMPORTANCE_HIGH, TARGET_TYPE_GROUND, TARGET_SYMBOL_STRUCTURE);

  0005d	6a 07		 push	 7
  0005f	6a 01		 push	 1
  00061	51		 push	 ecx
  00062	f3 0f 10 05 00
	00 00 00	 movss	 xmm0, DWORD PTR __real@3f800000
  0006a	f3 0f 11 04 24	 movss	 DWORD PTR [esp], xmm0
  0006f	68 dc 05 00 00	 push	 1500			; 000005dcH
  00074	68 00 20 00 00	 push	 8192			; 00002000H
  00079	6a 03		 push	 3
  0007b	6a 02		 push	 2
  0007d	68 de 06 00 00	 push	 1758			; 000006deH
  00082	e8 00 00 00 00	 call	 ?set_fixed_3d_object_database_item@@YGXHHHHHMW4TARGET_TYPES@@W4TARGET_SYMBOL_TYPES@@@Z ; set_fixed_3d_object_database_item

; 370  : 
; 371  : 	set_fixed_3d_object_database_item (OBJECT_3D_LEBANON_KEY_OIL_FC_FRAME01, EXPLOSIVE_QUALITY_EXPLOSIVE, EXPLOSIVE_POWER_HIGH, WARHEAD_EFFECTIVE_HARDENED_BUILDING, 1000, IMPORTANCE_HIGH, TARGET_TYPE_GROUND, TARGET_SYMBOL_STRUCTURE);

  00087	6a 07		 push	 7
  00089	6a 01		 push	 1
  0008b	51		 push	 ecx
  0008c	f3 0f 10 05 00
	00 00 00	 movss	 xmm0, DWORD PTR __real@3f800000
  00094	f3 0f 11 04 24	 movss	 DWORD PTR [esp], xmm0
  00099	68 e8 03 00 00	 push	 1000			; 000003e8H
  0009e	68 00 20 00 00	 push	 8192			; 00002000H
  000a3	6a 03		 push	 3
  000a5	6a 02		 push	 2
  000a7	68 51 06 00 00	 push	 1617			; 00000651H
  000ac	e8 00 00 00 00	 call	 ?set_fixed_3d_object_database_item@@YGXHHHHHMW4TARGET_TYPES@@W4TARGET_SYMBOL_TYPES@@@Z ; set_fixed_3d_object_database_item

; 372  : 	set_fixed_3d_object_database_item (OBJECT_3D_LEBANON_KEY_OIL_FC_FRAME02, EXPLOSIVE_QUALITY_EXPLOSIVE, EXPLOSIVE_POWER_HIGH, WARHEAD_EFFECTIVE_HARDENED_BUILDING, 1000, IMPORTANCE_HIGH, TARGET_TYPE_GROUND, TARGET_SYMBOL_STRUCTURE);

  000b1	6a 07		 push	 7
  000b3	6a 01		 push	 1
  000b5	51		 push	 ecx
  000b6	f3 0f 10 05 00
	00 00 00	 movss	 xmm0, DWORD PTR __real@3f800000
  000be	f3 0f 11 04 24	 movss	 DWORD PTR [esp], xmm0
  000c3	68 e8 03 00 00	 push	 1000			; 000003e8H
  000c8	68 00 20 00 00	 push	 8192			; 00002000H
  000cd	6a 03		 push	 3
  000cf	6a 02		 push	 2
  000d1	68 53 06 00 00	 push	 1619			; 00000653H
  000d6	e8 00 00 00 00	 call	 ?set_fixed_3d_object_database_item@@YGXHHHHHMW4TARGET_TYPES@@W4TARGET_SYMBOL_TYPES@@@Z ; set_fixed_3d_object_database_item

; 373  : 	set_fixed_3d_object_database_item (OBJECT_3D_LEBANON_KEY_OIL_FC_FRAME03, EXPLOSIVE_QUALITY_EXPLOSIVE, EXPLOSIVE_POWER_HIGH, WARHEAD_EFFECTIVE_HARDENED_BUILDING, 1000, IMPORTANCE_HIGH, TARGET_TYPE_GROUND, TARGET_SYMBOL_STRUCTURE);

  000db	6a 07		 push	 7
  000dd	6a 01		 push	 1
  000df	51		 push	 ecx
  000e0	f3 0f 10 05 00
	00 00 00	 movss	 xmm0, DWORD PTR __real@3f800000
  000e8	f3 0f 11 04 24	 movss	 DWORD PTR [esp], xmm0
  000ed	68 e8 03 00 00	 push	 1000			; 000003e8H
  000f2	68 00 20 00 00	 push	 8192			; 00002000H
  000f7	6a 03		 push	 3
  000f9	6a 02		 push	 2
  000fb	68 55 06 00 00	 push	 1621			; 00000655H
  00100	e8 00 00 00 00	 call	 ?set_fixed_3d_object_database_item@@YGXHHHHHMW4TARGET_TYPES@@W4TARGET_SYMBOL_TYPES@@@Z ; set_fixed_3d_object_database_item

; 374  : 	set_fixed_3d_object_database_item (OBJECT_3D_LEBANON_KEY_OIL_FC_FRAME04, EXPLOSIVE_QUALITY_EXPLOSIVE, EXPLOSIVE_POWER_HIGH, WARHEAD_EFFECTIVE_HARDENED_BUILDING, 1000, IMPORTANCE_HIGH, TARGET_TYPE_GROUND, TARGET_SYMBOL_STRUCTURE);

  00105	6a 07		 push	 7
  00107	6a 01		 push	 1
  00109	51		 push	 ecx
  0010a	f3 0f 10 05 00
	00 00 00	 movss	 xmm0, DWORD PTR __real@3f800000
  00112	f3 0f 11 04 24	 movss	 DWORD PTR [esp], xmm0
  00117	68 e8 03 00 00	 push	 1000			; 000003e8H
  0011c	68 00 20 00 00	 push	 8192			; 00002000H
  00121	6a 03		 push	 3
  00123	6a 02		 push	 2
  00125	68 57 06 00 00	 push	 1623			; 00000657H
  0012a	e8 00 00 00 00	 call	 ?set_fixed_3d_object_database_item@@YGXHHHHHMW4TARGET_TYPES@@W4TARGET_SYMBOL_TYPES@@@Z ; set_fixed_3d_object_database_item

; 375  : 
; 376  : 	set_fixed_3d_object_database_item (OBJECT_3D_LEBANON_KEY_OIL_FC_COOLING_PLANT01, EXPLOSIVE_QUALITY_EXPLOSIVE, EXPLOSIVE_POWER_HIGH, WARHEAD_EFFECTIVE_HARDENED_BUILDING, 800, IMPORTANCE_HIGH, TARGET_TYPE_GROUND, TARGET_SYMBOL_STRUCTURE);

  0012f	6a 07		 push	 7
  00131	6a 01		 push	 1
  00133	51		 push	 ecx
  00134	f3 0f 10 05 00
	00 00 00	 movss	 xmm0, DWORD PTR __real@3f800000
  0013c	f3 0f 11 04 24	 movss	 DWORD PTR [esp], xmm0
  00141	68 20 03 00 00	 push	 800			; 00000320H
  00146	68 00 20 00 00	 push	 8192			; 00002000H
  0014b	6a 03		 push	 3
  0014d	6a 02		 push	 2
  0014f	68 4d 06 00 00	 push	 1613			; 0000064dH
  00154	e8 00 00 00 00	 call	 ?set_fixed_3d_object_database_item@@YGXHHHHHMW4TARGET_TYPES@@W4TARGET_SYMBOL_TYPES@@@Z ; set_fixed_3d_object_database_item

; 377  : 	set_fixed_3d_object_database_item (OBJECT_3D_LEBANON_KEY_OIL_FC_COOLING_PLANT02, EXPLOSIVE_QUALITY_EXPLOSIVE, EXPLOSIVE_POWER_HIGH, WARHEAD_EFFECTIVE_HARDENED_BUILDING, 800, IMPORTANCE_HIGH, TARGET_TYPE_GROUND, TARGET_SYMBOL_STRUCTURE);

  00159	6a 07		 push	 7
  0015b	6a 01		 push	 1
  0015d	51		 push	 ecx
  0015e	f3 0f 10 05 00
	00 00 00	 movss	 xmm0, DWORD PTR __real@3f800000
  00166	f3 0f 11 04 24	 movss	 DWORD PTR [esp], xmm0
  0016b	68 20 03 00 00	 push	 800			; 00000320H
  00170	68 00 20 00 00	 push	 8192			; 00002000H
  00175	6a 03		 push	 3
  00177	6a 02		 push	 2
  00179	68 4f 06 00 00	 push	 1615			; 0000064fH
  0017e	e8 00 00 00 00	 call	 ?set_fixed_3d_object_database_item@@YGXHHHHHMW4TARGET_TYPES@@W4TARGET_SYMBOL_TYPES@@@Z ; set_fixed_3d_object_database_item

; 378  : 
; 379  : 	set_fixed_3d_object_database_item (OBJECT_3D_YEMEN_KEY_POWER_FC_POWER_PLANT01, EXPLOSIVE_QUALITY_EXPLOSIVE, EXPLOSIVE_POWER_HIGH, WARHEAD_EFFECTIVE_HARDENED_BUILDING, 1500, IMPORTANCE_HIGH, TARGET_TYPE_GROUND, TARGET_SYMBOL_STRUCTURE);

  00183	6a 07		 push	 7
  00185	6a 01		 push	 1
  00187	51		 push	 ecx
  00188	f3 0f 10 05 00
	00 00 00	 movss	 xmm0, DWORD PTR __real@3f800000
  00190	f3 0f 11 04 24	 movss	 DWORD PTR [esp], xmm0
  00195	68 dc 05 00 00	 push	 1500			; 000005dcH
  0019a	68 00 20 00 00	 push	 8192			; 00002000H
  0019f	6a 03		 push	 3
  001a1	6a 02		 push	 2
  001a3	68 91 09 00 00	 push	 2449			; 00000991H
  001a8	e8 00 00 00 00	 call	 ?set_fixed_3d_object_database_item@@YGXHHHHHMW4TARGET_TYPES@@W4TARGET_SYMBOL_TYPES@@@Z ; set_fixed_3d_object_database_item

; 380  : 
; 381  : 	set_fixed_3d_object_database_item (OBJECT_3D_YEMEN_KEY_OIL_FC_FRAME01, EXPLOSIVE_QUALITY_EXPLOSIVE, EXPLOSIVE_POWER_HIGH, WARHEAD_EFFECTIVE_HARDENED_BUILDING, 1000, IMPORTANCE_HIGH, TARGET_TYPE_GROUND, TARGET_SYMBOL_STRUCTURE);

  001ad	6a 07		 push	 7
  001af	6a 01		 push	 1
  001b1	51		 push	 ecx
  001b2	f3 0f 10 05 00
	00 00 00	 movss	 xmm0, DWORD PTR __real@3f800000
  001ba	f3 0f 11 04 24	 movss	 DWORD PTR [esp], xmm0
  001bf	68 e8 03 00 00	 push	 1000			; 000003e8H
  001c4	68 00 20 00 00	 push	 8192			; 00002000H
  001c9	6a 03		 push	 3
  001cb	6a 02		 push	 2
  001cd	68 4b 09 00 00	 push	 2379			; 0000094bH
  001d2	e8 00 00 00 00	 call	 ?set_fixed_3d_object_database_item@@YGXHHHHHMW4TARGET_TYPES@@W4TARGET_SYMBOL_TYPES@@@Z ; set_fixed_3d_object_database_item

; 382  : 	set_fixed_3d_object_database_item (OBJECT_3D_YEMEN_KEY_OIL_FC_FRAME02, EXPLOSIVE_QUALITY_EXPLOSIVE, EXPLOSIVE_POWER_HIGH, WARHEAD_EFFECTIVE_HARDENED_BUILDING, 1000, IMPORTANCE_HIGH, TARGET_TYPE_GROUND, TARGET_SYMBOL_STRUCTURE);

  001d7	6a 07		 push	 7
  001d9	6a 01		 push	 1
  001db	51		 push	 ecx
  001dc	f3 0f 10 05 00
	00 00 00	 movss	 xmm0, DWORD PTR __real@3f800000
  001e4	f3 0f 11 04 24	 movss	 DWORD PTR [esp], xmm0
  001e9	68 e8 03 00 00	 push	 1000			; 000003e8H
  001ee	68 00 20 00 00	 push	 8192			; 00002000H
  001f3	6a 03		 push	 3
  001f5	6a 02		 push	 2
  001f7	68 4d 09 00 00	 push	 2381			; 0000094dH
  001fc	e8 00 00 00 00	 call	 ?set_fixed_3d_object_database_item@@YGXHHHHHMW4TARGET_TYPES@@W4TARGET_SYMBOL_TYPES@@@Z ; set_fixed_3d_object_database_item

; 383  : 	set_fixed_3d_object_database_item (OBJECT_3D_YEMEN_KEY_OIL_FC_FRAME03, EXPLOSIVE_QUALITY_EXPLOSIVE, EXPLOSIVE_POWER_HIGH, WARHEAD_EFFECTIVE_HARDENED_BUILDING, 1000, IMPORTANCE_HIGH, TARGET_TYPE_GROUND, TARGET_SYMBOL_STRUCTURE);

  00201	6a 07		 push	 7
  00203	6a 01		 push	 1
  00205	51		 push	 ecx
  00206	f3 0f 10 05 00
	00 00 00	 movss	 xmm0, DWORD PTR __real@3f800000
  0020e	f3 0f 11 04 24	 movss	 DWORD PTR [esp], xmm0
  00213	68 e8 03 00 00	 push	 1000			; 000003e8H
  00218	68 00 20 00 00	 push	 8192			; 00002000H
  0021d	6a 03		 push	 3
  0021f	6a 02		 push	 2
  00221	68 4f 09 00 00	 push	 2383			; 0000094fH
  00226	e8 00 00 00 00	 call	 ?set_fixed_3d_object_database_item@@YGXHHHHHMW4TARGET_TYPES@@W4TARGET_SYMBOL_TYPES@@@Z ; set_fixed_3d_object_database_item

; 384  : 	set_fixed_3d_object_database_item (OBJECT_3D_YEMEN_KEY_OIL_FC_FRAME04, EXPLOSIVE_QUALITY_EXPLOSIVE, EXPLOSIVE_POWER_HIGH, WARHEAD_EFFECTIVE_HARDENED_BUILDING, 1000, IMPORTANCE_HIGH, TARGET_TYPE_GROUND, TARGET_SYMBOL_STRUCTURE);

  0022b	6a 07		 push	 7
  0022d	6a 01		 push	 1
  0022f	51		 push	 ecx
  00230	f3 0f 10 05 00
	00 00 00	 movss	 xmm0, DWORD PTR __real@3f800000
  00238	f3 0f 11 04 24	 movss	 DWORD PTR [esp], xmm0
  0023d	68 e8 03 00 00	 push	 1000			; 000003e8H
  00242	68 00 20 00 00	 push	 8192			; 00002000H
  00247	6a 03		 push	 3
  00249	6a 02		 push	 2
  0024b	68 51 09 00 00	 push	 2385			; 00000951H
  00250	e8 00 00 00 00	 call	 ?set_fixed_3d_object_database_item@@YGXHHHHHMW4TARGET_TYPES@@W4TARGET_SYMBOL_TYPES@@@Z ; set_fixed_3d_object_database_item

; 385  : 
; 386  : 	set_fixed_3d_object_database_item (OBJECT_3D_YEMEN_KEY_OIL_FC_COOLING_PLANT01, EXPLOSIVE_QUALITY_EXPLOSIVE, EXPLOSIVE_POWER_HIGH, WARHEAD_EFFECTIVE_HARDENED_BUILDING, 800, IMPORTANCE_HIGH, TARGET_TYPE_GROUND, TARGET_SYMBOL_STRUCTURE);

  00255	6a 07		 push	 7
  00257	6a 01		 push	 1
  00259	51		 push	 ecx
  0025a	f3 0f 10 05 00
	00 00 00	 movss	 xmm0, DWORD PTR __real@3f800000
  00262	f3 0f 11 04 24	 movss	 DWORD PTR [esp], xmm0
  00267	68 20 03 00 00	 push	 800			; 00000320H
  0026c	68 00 20 00 00	 push	 8192			; 00002000H
  00271	6a 03		 push	 3
  00273	6a 02		 push	 2
  00275	68 47 09 00 00	 push	 2375			; 00000947H
  0027a	e8 00 00 00 00	 call	 ?set_fixed_3d_object_database_item@@YGXHHHHHMW4TARGET_TYPES@@W4TARGET_SYMBOL_TYPES@@@Z ; set_fixed_3d_object_database_item

; 387  : 	set_fixed_3d_object_database_item (OBJECT_3D_YEMEN_KEY_OIL_FC_COOLING_PLANT02, EXPLOSIVE_QUALITY_EXPLOSIVE, EXPLOSIVE_POWER_HIGH, WARHEAD_EFFECTIVE_HARDENED_BUILDING, 800, IMPORTANCE_HIGH, TARGET_TYPE_GROUND, TARGET_SYMBOL_STRUCTURE);

  0027f	6a 07		 push	 7
  00281	6a 01		 push	 1
  00283	51		 push	 ecx
  00284	f3 0f 10 05 00
	00 00 00	 movss	 xmm0, DWORD PTR __real@3f800000
  0028c	f3 0f 11 04 24	 movss	 DWORD PTR [esp], xmm0
  00291	68 20 03 00 00	 push	 800			; 00000320H
  00296	68 00 20 00 00	 push	 8192			; 00002000H
  0029b	6a 03		 push	 3
  0029d	6a 02		 push	 2
  0029f	68 49 09 00 00	 push	 2377			; 00000949H
  002a4	e8 00 00 00 00	 call	 ?set_fixed_3d_object_database_item@@YGXHHHHHMW4TARGET_TYPES@@W4TARGET_SYMBOL_TYPES@@@Z ; set_fixed_3d_object_database_item

; 388  : 
; 389  : 	set_fixed_3d_object_database_item (OBJECT_3D_MILITARY_FC_MILITARYSUPPLY001, EXPLOSIVE_QUALITY_EXPLOSIVE, EXPLOSIVE_POWER_HIGH, WARHEAD_EFFECTIVE_HARDENED_BUILDING, 3600, IMPORTANCE_HIGH, TARGET_TYPE_GROUND, TARGET_SYMBOL_STRUCTURE);

  002a9	6a 07		 push	 7
  002ab	6a 01		 push	 1
  002ad	51		 push	 ecx
  002ae	f3 0f 10 05 00
	00 00 00	 movss	 xmm0, DWORD PTR __real@3f800000
  002b6	f3 0f 11 04 24	 movss	 DWORD PTR [esp], xmm0
  002bb	68 10 0e 00 00	 push	 3600			; 00000e10H
  002c0	68 00 20 00 00	 push	 8192			; 00002000H
  002c5	6a 03		 push	 3
  002c7	6a 02		 push	 2
  002c9	68 3e 0a 00 00	 push	 2622			; 00000a3eH
  002ce	e8 00 00 00 00	 call	 ?set_fixed_3d_object_database_item@@YGXHHHHHMW4TARGET_TYPES@@W4TARGET_SYMBOL_TYPES@@@Z ; set_fixed_3d_object_database_item

; 390  : 	set_fixed_3d_object_database_item (OBJECT_3D_MILITARY_FC_MILITARYSUPPLY002, EXPLOSIVE_QUALITY_EXPLOSIVE, EXPLOSIVE_POWER_HIGH, WARHEAD_EFFECTIVE_HARDENED_BUILDING, 3600, IMPORTANCE_HIGH, TARGET_TYPE_GROUND, TARGET_SYMBOL_STRUCTURE);

  002d3	6a 07		 push	 7
  002d5	6a 01		 push	 1
  002d7	51		 push	 ecx
  002d8	f3 0f 10 05 00
	00 00 00	 movss	 xmm0, DWORD PTR __real@3f800000
  002e0	f3 0f 11 04 24	 movss	 DWORD PTR [esp], xmm0
  002e5	68 10 0e 00 00	 push	 3600			; 00000e10H
  002ea	68 00 20 00 00	 push	 8192			; 00002000H
  002ef	6a 03		 push	 3
  002f1	6a 02		 push	 2
  002f3	68 40 0a 00 00	 push	 2624			; 00000a40H
  002f8	e8 00 00 00 00	 call	 ?set_fixed_3d_object_database_item@@YGXHHHHHMW4TARGET_TYPES@@W4TARGET_SYMBOL_TYPES@@@Z ; set_fixed_3d_object_database_item

; 391  : 
; 392  : 	set_fixed_3d_object_database_item (OBJECT_3D_TAIWAN_KEY_POWER_FC_POWER_PLANT01, EXPLOSIVE_QUALITY_EXPLOSIVE, EXPLOSIVE_POWER_HIGH, WARHEAD_EFFECTIVE_HARDENED_BUILDING, 1500, IMPORTANCE_HIGH, TARGET_TYPE_GROUND, TARGET_SYMBOL_STRUCTURE);

  002fd	6a 07		 push	 7
  002ff	6a 01		 push	 1
  00301	51		 push	 ecx
  00302	f3 0f 10 05 00
	00 00 00	 movss	 xmm0, DWORD PTR __real@3f800000
  0030a	f3 0f 11 04 24	 movss	 DWORD PTR [esp], xmm0
  0030f	68 dc 05 00 00	 push	 1500			; 000005dcH
  00314	68 00 20 00 00	 push	 8192			; 00002000H
  00319	6a 03		 push	 3
  0031b	6a 02		 push	 2
  0031d	68 81 08 00 00	 push	 2177			; 00000881H
  00322	e8 00 00 00 00	 call	 ?set_fixed_3d_object_database_item@@YGXHHHHHMW4TARGET_TYPES@@W4TARGET_SYMBOL_TYPES@@@Z ; set_fixed_3d_object_database_item

; 393  : 
; 394  : 	set_fixed_3d_object_database_item (OBJECT_3D_TAIWAN_KEY_OIL_FC_COOLING_PLANT01, EXPLOSIVE_QUALITY_EXPLOSIVE, EXPLOSIVE_POWER_HIGH, WARHEAD_EFFECTIVE_HARDENED_BUILDING, 800, IMPORTANCE_HIGH, TARGET_TYPE_GROUND, TARGET_SYMBOL_STRUCTURE);

  00327	6a 07		 push	 7
  00329	6a 01		 push	 1
  0032b	51		 push	 ecx
  0032c	f3 0f 10 05 00
	00 00 00	 movss	 xmm0, DWORD PTR __real@3f800000
  00334	f3 0f 11 04 24	 movss	 DWORD PTR [esp], xmm0
  00339	68 20 03 00 00	 push	 800			; 00000320H
  0033e	68 00 20 00 00	 push	 8192			; 00002000H
  00343	6a 03		 push	 3
  00345	6a 02		 push	 2
  00347	68 3b 08 00 00	 push	 2107			; 0000083bH
  0034c	e8 00 00 00 00	 call	 ?set_fixed_3d_object_database_item@@YGXHHHHHMW4TARGET_TYPES@@W4TARGET_SYMBOL_TYPES@@@Z ; set_fixed_3d_object_database_item

; 395  : 	set_fixed_3d_object_database_item (OBJECT_3D_TAIWAN_KEY_OIL_FC_COOLING_PLANT02, EXPLOSIVE_QUALITY_EXPLOSIVE, EXPLOSIVE_POWER_HIGH, WARHEAD_EFFECTIVE_HARDENED_BUILDING, 800, IMPORTANCE_HIGH, TARGET_TYPE_GROUND, TARGET_SYMBOL_STRUCTURE);

  00351	6a 07		 push	 7
  00353	6a 01		 push	 1
  00355	51		 push	 ecx
  00356	f3 0f 10 05 00
	00 00 00	 movss	 xmm0, DWORD PTR __real@3f800000
  0035e	f3 0f 11 04 24	 movss	 DWORD PTR [esp], xmm0
  00363	68 20 03 00 00	 push	 800			; 00000320H
  00368	68 00 20 00 00	 push	 8192			; 00002000H
  0036d	6a 03		 push	 3
  0036f	6a 02		 push	 2
  00371	68 3d 08 00 00	 push	 2109			; 0000083dH
  00376	e8 00 00 00 00	 call	 ?set_fixed_3d_object_database_item@@YGXHHHHHMW4TARGET_TYPES@@W4TARGET_SYMBOL_TYPES@@@Z ; set_fixed_3d_object_database_item

; 396  : 
; 397  : 	set_fixed_3d_object_database_item (OBJECT_3D_TAIWAN_KEY_OIL_FC_FRAME01, EXPLOSIVE_QUALITY_EXPLOSIVE, EXPLOSIVE_POWER_HIGH, WARHEAD_EFFECTIVE_HARDENED_BUILDING, 1000, IMPORTANCE_HIGH, TARGET_TYPE_GROUND, TARGET_SYMBOL_STRUCTURE);

  0037b	6a 07		 push	 7
  0037d	6a 01		 push	 1
  0037f	51		 push	 ecx
  00380	f3 0f 10 05 00
	00 00 00	 movss	 xmm0, DWORD PTR __real@3f800000
  00388	f3 0f 11 04 24	 movss	 DWORD PTR [esp], xmm0
  0038d	68 e8 03 00 00	 push	 1000			; 000003e8H
  00392	68 00 20 00 00	 push	 8192			; 00002000H
  00397	6a 03		 push	 3
  00399	6a 02		 push	 2
  0039b	68 3f 08 00 00	 push	 2111			; 0000083fH
  003a0	e8 00 00 00 00	 call	 ?set_fixed_3d_object_database_item@@YGXHHHHHMW4TARGET_TYPES@@W4TARGET_SYMBOL_TYPES@@@Z ; set_fixed_3d_object_database_item

; 398  : 	set_fixed_3d_object_database_item (OBJECT_3D_TAIWAN_KEY_OIL_FC_FRAME02, EXPLOSIVE_QUALITY_EXPLOSIVE, EXPLOSIVE_POWER_HIGH, WARHEAD_EFFECTIVE_HARDENED_BUILDING, 1000, IMPORTANCE_HIGH, TARGET_TYPE_GROUND, TARGET_SYMBOL_STRUCTURE);

  003a5	6a 07		 push	 7
  003a7	6a 01		 push	 1
  003a9	51		 push	 ecx
  003aa	f3 0f 10 05 00
	00 00 00	 movss	 xmm0, DWORD PTR __real@3f800000
  003b2	f3 0f 11 04 24	 movss	 DWORD PTR [esp], xmm0
  003b7	68 e8 03 00 00	 push	 1000			; 000003e8H
  003bc	68 00 20 00 00	 push	 8192			; 00002000H
  003c1	6a 03		 push	 3
  003c3	6a 02		 push	 2
  003c5	68 41 08 00 00	 push	 2113			; 00000841H
  003ca	e8 00 00 00 00	 call	 ?set_fixed_3d_object_database_item@@YGXHHHHHMW4TARGET_TYPES@@W4TARGET_SYMBOL_TYPES@@@Z ; set_fixed_3d_object_database_item

; 399  : 	set_fixed_3d_object_database_item (OBJECT_3D_TAIWAN_KEY_OIL_FC_FRAME03, EXPLOSIVE_QUALITY_EXPLOSIVE, EXPLOSIVE_POWER_HIGH, WARHEAD_EFFECTIVE_HARDENED_BUILDING, 1000, IMPORTANCE_HIGH, TARGET_TYPE_GROUND, TARGET_SYMBOL_STRUCTURE);

  003cf	6a 07		 push	 7
  003d1	6a 01		 push	 1
  003d3	51		 push	 ecx
  003d4	f3 0f 10 05 00
	00 00 00	 movss	 xmm0, DWORD PTR __real@3f800000
  003dc	f3 0f 11 04 24	 movss	 DWORD PTR [esp], xmm0
  003e1	68 e8 03 00 00	 push	 1000			; 000003e8H
  003e6	68 00 20 00 00	 push	 8192			; 00002000H
  003eb	6a 03		 push	 3
  003ed	6a 02		 push	 2
  003ef	68 43 08 00 00	 push	 2115			; 00000843H
  003f4	e8 00 00 00 00	 call	 ?set_fixed_3d_object_database_item@@YGXHHHHHMW4TARGET_TYPES@@W4TARGET_SYMBOL_TYPES@@@Z ; set_fixed_3d_object_database_item

; 400  : 	set_fixed_3d_object_database_item (OBJECT_3D_TAIWAN_KEY_OIL_FC_FRAME04, EXPLOSIVE_QUALITY_EXPLOSIVE, EXPLOSIVE_POWER_HIGH, WARHEAD_EFFECTIVE_HARDENED_BUILDING, 1000, IMPORTANCE_HIGH, TARGET_TYPE_GROUND, TARGET_SYMBOL_STRUCTURE);

  003f9	6a 07		 push	 7
  003fb	6a 01		 push	 1
  003fd	51		 push	 ecx
  003fe	f3 0f 10 05 00
	00 00 00	 movss	 xmm0, DWORD PTR __real@3f800000
  00406	f3 0f 11 04 24	 movss	 DWORD PTR [esp], xmm0
  0040b	68 e8 03 00 00	 push	 1000			; 000003e8H
  00410	68 00 20 00 00	 push	 8192			; 00002000H
  00415	6a 03		 push	 3
  00417	6a 02		 push	 2
  00419	68 45 08 00 00	 push	 2117			; 00000845H
  0041e	e8 00 00 00 00	 call	 ?set_fixed_3d_object_database_item@@YGXHHHHHMW4TARGET_TYPES@@W4TARGET_SYMBOL_TYPES@@@Z ; set_fixed_3d_object_database_item

; 401  : 
; 402  : 	set_fixed_3d_object_database_item (OBJECT_3D_TAIWAN_KEY_PORT_FC_MILITARYSUPPLY001, EXPLOSIVE_QUALITY_EXPLOSIVE, EXPLOSIVE_POWER_HIGH, WARHEAD_EFFECTIVE_HARDENED_BUILDING, 3600, IMPORTANCE_HIGH, TARGET_TYPE_GROUND, TARGET_SYMBOL_STRUCTURE);

  00423	6a 07		 push	 7
  00425	6a 01		 push	 1
  00427	51		 push	 ecx
  00428	f3 0f 10 05 00
	00 00 00	 movss	 xmm0, DWORD PTR __real@3f800000
  00430	f3 0f 11 04 24	 movss	 DWORD PTR [esp], xmm0
  00435	68 10 0e 00 00	 push	 3600			; 00000e10H
  0043a	68 00 20 00 00	 push	 8192			; 00002000H
  0043f	6a 03		 push	 3
  00441	6a 02		 push	 2
  00443	68 6d 08 00 00	 push	 2157			; 0000086dH
  00448	e8 00 00 00 00	 call	 ?set_fixed_3d_object_database_item@@YGXHHHHHMW4TARGET_TYPES@@W4TARGET_SYMBOL_TYPES@@@Z ; set_fixed_3d_object_database_item

; 403  : 	set_fixed_3d_object_database_item (OBJECT_3D_TAIWAN_KEY_PORT_FC_MILITARYSUPPLY002, EXPLOSIVE_QUALITY_EXPLOSIVE, EXPLOSIVE_POWER_HIGH, WARHEAD_EFFECTIVE_HARDENED_BUILDING, 3600, IMPORTANCE_HIGH, TARGET_TYPE_GROUND, TARGET_SYMBOL_STRUCTURE);

  0044d	6a 07		 push	 7
  0044f	6a 01		 push	 1
  00451	51		 push	 ecx
  00452	f3 0f 10 05 00
	00 00 00	 movss	 xmm0, DWORD PTR __real@3f800000
  0045a	f3 0f 11 04 24	 movss	 DWORD PTR [esp], xmm0
  0045f	68 10 0e 00 00	 push	 3600			; 00000e10H
  00464	68 00 20 00 00	 push	 8192			; 00002000H
  00469	6a 03		 push	 3
  0046b	6a 02		 push	 2
  0046d	68 6f 08 00 00	 push	 2159			; 0000086fH
  00472	e8 00 00 00 00	 call	 ?set_fixed_3d_object_database_item@@YGXHHHHHMW4TARGET_TYPES@@W4TARGET_SYMBOL_TYPES@@@Z ; set_fixed_3d_object_database_item

; 404  : 
; 405  : 	// INVALID TARGETS
; 406  : }

  00477	5f		 pop	 edi
  00478	5e		 pop	 esi
  00479	5b		 pop	 ebx
  0047a	8b e5		 mov	 esp, ebp
  0047c	5d		 pop	 ebp
  0047d	c3		 ret	 0
?initialise_high_importance_high_explosive_buildings@@YGXXZ ENDP ; initialise_high_importance_high_explosive_buildings
_TEXT	ENDS
; Function compile flags: /Odtp /ZI
; File c:\users\nhv90\projects\eech\aphavoc\source\entity\fixed\fx_objdb.c
;	COMDAT ?initialise_high_importance_medium_armoured_buildings@@YGXXZ
_TEXT	SEGMENT
?initialise_high_importance_medium_armoured_buildings@@YGXXZ PROC ; initialise_high_importance_medium_armoured_buildings, COMDAT

; 323  : {

  00000	55		 push	 ebp
  00001	8b ec		 mov	 ebp, esp
  00003	83 ec 40	 sub	 esp, 64			; 00000040H
  00006	53		 push	 ebx
  00007	56		 push	 esi
  00008	57		 push	 edi

; 324  : 	////////////////////////////////////////////////////////////////////////////////////
; 325  : 	//
; 326  : 	// HIGH IMPORTANCE MEDIUM ARMOURED BUILDINGS
; 327  : 	//
; 328  : 	////////////////////////////////////////////////////////////////////////////////////
; 329  : 
; 330  : 	// VALID TARGETS
; 331  : 
; 332  : 	set_fixed_3d_object_database_item (OBJECT_3D_AMERICAN_HANGAR01, EXPLOSIVE_QUALITY_DUST, EXPLOSIVE_POWER_MEDIUM, WARHEAD_EFFECTIVE_HARDENED_BUILDING, 2000, IMPORTANCE_HIGH, TARGET_TYPE_GROUND, TARGET_SYMBOL_STRUCTURE);

  00009	6a 07		 push	 7
  0000b	6a 01		 push	 1
  0000d	51		 push	 ecx
  0000e	f3 0f 10 05 00
	00 00 00	 movss	 xmm0, DWORD PTR __real@3f800000
  00016	f3 0f 11 04 24	 movss	 DWORD PTR [esp], xmm0
  0001b	68 d0 07 00 00	 push	 2000			; 000007d0H
  00020	68 00 20 00 00	 push	 8192			; 00002000H
  00025	6a 02		 push	 2
  00027	6a 01		 push	 1
  00029	6a 57		 push	 87			; 00000057H
  0002b	e8 00 00 00 00	 call	 ?set_fixed_3d_object_database_item@@YGXHHHHHMW4TARGET_TYPES@@W4TARGET_SYMBOL_TYPES@@@Z ; set_fixed_3d_object_database_item

; 333  : 	set_fixed_3d_object_database_item (OBJECT_3D_AMERICAN_HANGAR02, EXPLOSIVE_QUALITY_DUST, EXPLOSIVE_POWER_MEDIUM, WARHEAD_EFFECTIVE_HARDENED_BUILDING, 2000, IMPORTANCE_HIGH, TARGET_TYPE_GROUND, TARGET_SYMBOL_STRUCTURE);

  00030	6a 07		 push	 7
  00032	6a 01		 push	 1
  00034	51		 push	 ecx
  00035	f3 0f 10 05 00
	00 00 00	 movss	 xmm0, DWORD PTR __real@3f800000
  0003d	f3 0f 11 04 24	 movss	 DWORD PTR [esp], xmm0
  00042	68 d0 07 00 00	 push	 2000			; 000007d0H
  00047	68 00 20 00 00	 push	 8192			; 00002000H
  0004c	6a 02		 push	 2
  0004e	6a 01		 push	 1
  00050	6a 59		 push	 89			; 00000059H
  00052	e8 00 00 00 00	 call	 ?set_fixed_3d_object_database_item@@YGXHHHHHMW4TARGET_TYPES@@W4TARGET_SYMBOL_TYPES@@@Z ; set_fixed_3d_object_database_item

; 334  : 	set_fixed_3d_object_database_item (OBJECT_3D_AMERICAN_HANGAR03, EXPLOSIVE_QUALITY_DUST, EXPLOSIVE_POWER_MEDIUM, WARHEAD_EFFECTIVE_HARDENED_BUILDING, 2000, IMPORTANCE_HIGH, TARGET_TYPE_GROUND, TARGET_SYMBOL_STRUCTURE);

  00057	6a 07		 push	 7
  00059	6a 01		 push	 1
  0005b	51		 push	 ecx
  0005c	f3 0f 10 05 00
	00 00 00	 movss	 xmm0, DWORD PTR __real@3f800000
  00064	f3 0f 11 04 24	 movss	 DWORD PTR [esp], xmm0
  00069	68 d0 07 00 00	 push	 2000			; 000007d0H
  0006e	68 00 20 00 00	 push	 8192			; 00002000H
  00073	6a 02		 push	 2
  00075	6a 01		 push	 1
  00077	6a 5b		 push	 91			; 0000005bH
  00079	e8 00 00 00 00	 call	 ?set_fixed_3d_object_database_item@@YGXHHHHHMW4TARGET_TYPES@@W4TARGET_SYMBOL_TYPES@@@Z ; set_fixed_3d_object_database_item

; 335  : 
; 336  : 	set_fixed_3d_object_database_item (OBJECT_3D_RUSSIAN_HANGAR01, EXPLOSIVE_QUALITY_DUST, EXPLOSIVE_POWER_MEDIUM, WARHEAD_EFFECTIVE_HARDENED_BUILDING, 2000, IMPORTANCE_HIGH, TARGET_TYPE_GROUND, TARGET_SYMBOL_STRUCTURE);

  0007e	6a 07		 push	 7
  00080	6a 01		 push	 1
  00082	51		 push	 ecx
  00083	f3 0f 10 05 00
	00 00 00	 movss	 xmm0, DWORD PTR __real@3f800000
  0008b	f3 0f 11 04 24	 movss	 DWORD PTR [esp], xmm0
  00090	68 d0 07 00 00	 push	 2000			; 000007d0H
  00095	68 00 20 00 00	 push	 8192			; 00002000H
  0009a	6a 02		 push	 2
  0009c	6a 01		 push	 1
  0009e	68 f0 00 00 00	 push	 240			; 000000f0H
  000a3	e8 00 00 00 00	 call	 ?set_fixed_3d_object_database_item@@YGXHHHHHMW4TARGET_TYPES@@W4TARGET_SYMBOL_TYPES@@@Z ; set_fixed_3d_object_database_item

; 337  : 	set_fixed_3d_object_database_item (OBJECT_3D_RUSSIAN_HANGAR02, EXPLOSIVE_QUALITY_DUST, EXPLOSIVE_POWER_MEDIUM, WARHEAD_EFFECTIVE_HARDENED_BUILDING, 2000, IMPORTANCE_HIGH, TARGET_TYPE_GROUND, TARGET_SYMBOL_STRUCTURE);

  000a8	6a 07		 push	 7
  000aa	6a 01		 push	 1
  000ac	51		 push	 ecx
  000ad	f3 0f 10 05 00
	00 00 00	 movss	 xmm0, DWORD PTR __real@3f800000
  000b5	f3 0f 11 04 24	 movss	 DWORD PTR [esp], xmm0
  000ba	68 d0 07 00 00	 push	 2000			; 000007d0H
  000bf	68 00 20 00 00	 push	 8192			; 00002000H
  000c4	6a 02		 push	 2
  000c6	6a 01		 push	 1
  000c8	68 f2 00 00 00	 push	 242			; 000000f2H
  000cd	e8 00 00 00 00	 call	 ?set_fixed_3d_object_database_item@@YGXHHHHHMW4TARGET_TYPES@@W4TARGET_SYMBOL_TYPES@@@Z ; set_fixed_3d_object_database_item

; 338  : 	set_fixed_3d_object_database_item (OBJECT_3D_RUSSIAN_HANGAR03, EXPLOSIVE_QUALITY_DUST, EXPLOSIVE_POWER_MEDIUM, WARHEAD_EFFECTIVE_HARDENED_BUILDING, 2000, IMPORTANCE_HIGH, TARGET_TYPE_GROUND, TARGET_SYMBOL_STRUCTURE);

  000d2	6a 07		 push	 7
  000d4	6a 01		 push	 1
  000d6	51		 push	 ecx
  000d7	f3 0f 10 05 00
	00 00 00	 movss	 xmm0, DWORD PTR __real@3f800000
  000df	f3 0f 11 04 24	 movss	 DWORD PTR [esp], xmm0
  000e4	68 d0 07 00 00	 push	 2000			; 000007d0H
  000e9	68 00 20 00 00	 push	 8192			; 00002000H
  000ee	6a 02		 push	 2
  000f0	6a 01		 push	 1
  000f2	68 f4 00 00 00	 push	 244			; 000000f4H
  000f7	e8 00 00 00 00	 call	 ?set_fixed_3d_object_database_item@@YGXHHHHHMW4TARGET_TYPES@@W4TARGET_SYMBOL_TYPES@@@Z ; set_fixed_3d_object_database_item

; 339  : 	set_fixed_3d_object_database_item (OBJECT_3D_RUSSIAN_HANGAR04, EXPLOSIVE_QUALITY_DUST, EXPLOSIVE_POWER_MEDIUM, WARHEAD_EFFECTIVE_HARDENED_BUILDING, 2000, IMPORTANCE_HIGH, TARGET_TYPE_GROUND, TARGET_SYMBOL_STRUCTURE);

  000fc	6a 07		 push	 7
  000fe	6a 01		 push	 1
  00100	51		 push	 ecx
  00101	f3 0f 10 05 00
	00 00 00	 movss	 xmm0, DWORD PTR __real@3f800000
  00109	f3 0f 11 04 24	 movss	 DWORD PTR [esp], xmm0
  0010e	68 d0 07 00 00	 push	 2000			; 000007d0H
  00113	68 00 20 00 00	 push	 8192			; 00002000H
  00118	6a 02		 push	 2
  0011a	6a 01		 push	 1
  0011c	68 f6 00 00 00	 push	 246			; 000000f6H
  00121	e8 00 00 00 00	 call	 ?set_fixed_3d_object_database_item@@YGXHHHHHMW4TARGET_TYPES@@W4TARGET_SYMBOL_TYPES@@@Z ; set_fixed_3d_object_database_item

; 340  : 	set_fixed_3d_object_database_item (OBJECT_3D_RUSSIAN_HANGAR05, EXPLOSIVE_QUALITY_DUST, EXPLOSIVE_POWER_MEDIUM, WARHEAD_EFFECTIVE_HARDENED_BUILDING, 2000, IMPORTANCE_HIGH, TARGET_TYPE_GROUND, TARGET_SYMBOL_STRUCTURE);

  00126	6a 07		 push	 7
  00128	6a 01		 push	 1
  0012a	51		 push	 ecx
  0012b	f3 0f 10 05 00
	00 00 00	 movss	 xmm0, DWORD PTR __real@3f800000
  00133	f3 0f 11 04 24	 movss	 DWORD PTR [esp], xmm0
  00138	68 d0 07 00 00	 push	 2000			; 000007d0H
  0013d	68 00 20 00 00	 push	 8192			; 00002000H
  00142	6a 02		 push	 2
  00144	6a 01		 push	 1
  00146	68 f8 00 00 00	 push	 248			; 000000f8H
  0014b	e8 00 00 00 00	 call	 ?set_fixed_3d_object_database_item@@YGXHHHHHMW4TARGET_TYPES@@W4TARGET_SYMBOL_TYPES@@@Z ; set_fixed_3d_object_database_item

; 341  : 	set_fixed_3d_object_database_item (OBJECT_3D_RUSSIAN_HANGAR06, EXPLOSIVE_QUALITY_DUST, EXPLOSIVE_POWER_MEDIUM, WARHEAD_EFFECTIVE_HARDENED_BUILDING, 2000, IMPORTANCE_HIGH, TARGET_TYPE_GROUND, TARGET_SYMBOL_STRUCTURE);

  00150	6a 07		 push	 7
  00152	6a 01		 push	 1
  00154	51		 push	 ecx
  00155	f3 0f 10 05 00
	00 00 00	 movss	 xmm0, DWORD PTR __real@3f800000
  0015d	f3 0f 11 04 24	 movss	 DWORD PTR [esp], xmm0
  00162	68 d0 07 00 00	 push	 2000			; 000007d0H
  00167	68 00 20 00 00	 push	 8192			; 00002000H
  0016c	6a 02		 push	 2
  0016e	6a 01		 push	 1
  00170	68 fa 00 00 00	 push	 250			; 000000faH
  00175	e8 00 00 00 00	 call	 ?set_fixed_3d_object_database_item@@YGXHHHHHMW4TARGET_TYPES@@W4TARGET_SYMBOL_TYPES@@@Z ; set_fixed_3d_object_database_item

; 342  : 
; 343  : 	set_fixed_3d_object_database_item (OBJECT_3D_LEBANON_KEY_POWER_FC_COALING_PLANT01, EXPLOSIVE_QUALITY_DUST, EXPLOSIVE_POWER_HIGH, WARHEAD_EFFECTIVE_HARDENED_BUILDING, 1500, IMPORTANCE_HIGH, TARGET_TYPE_GROUND, TARGET_SYMBOL_STRUCTURE);

  0017a	6a 07		 push	 7
  0017c	6a 01		 push	 1
  0017e	51		 push	 ecx
  0017f	f3 0f 10 05 00
	00 00 00	 movss	 xmm0, DWORD PTR __real@3f800000
  00187	f3 0f 11 04 24	 movss	 DWORD PTR [esp], xmm0
  0018c	68 dc 05 00 00	 push	 1500			; 000005dcH
  00191	68 00 20 00 00	 push	 8192			; 00002000H
  00196	6a 03		 push	 3
  00198	6a 01		 push	 1
  0019a	68 d4 06 00 00	 push	 1748			; 000006d4H
  0019f	e8 00 00 00 00	 call	 ?set_fixed_3d_object_database_item@@YGXHHHHHMW4TARGET_TYPES@@W4TARGET_SYMBOL_TYPES@@@Z ; set_fixed_3d_object_database_item

; 344  : 
; 345  : 	set_fixed_3d_object_database_item (OBJECT_3D_YEMEN_KEY_POWER_FC_COALING_PLANT01, EXPLOSIVE_QUALITY_DUST, EXPLOSIVE_POWER_HIGH, WARHEAD_EFFECTIVE_HARDENED_BUILDING, 1500, IMPORTANCE_HIGH, TARGET_TYPE_GROUND, TARGET_SYMBOL_STRUCTURE);

  001a4	6a 07		 push	 7
  001a6	6a 01		 push	 1
  001a8	51		 push	 ecx
  001a9	f3 0f 10 05 00
	00 00 00	 movss	 xmm0, DWORD PTR __real@3f800000
  001b1	f3 0f 11 04 24	 movss	 DWORD PTR [esp], xmm0
  001b6	68 dc 05 00 00	 push	 1500			; 000005dcH
  001bb	68 00 20 00 00	 push	 8192			; 00002000H
  001c0	6a 03		 push	 3
  001c2	6a 01		 push	 1
  001c4	68 87 09 00 00	 push	 2439			; 00000987H
  001c9	e8 00 00 00 00	 call	 ?set_fixed_3d_object_database_item@@YGXHHHHHMW4TARGET_TYPES@@W4TARGET_SYMBOL_TYPES@@@Z ; set_fixed_3d_object_database_item

; 346  : 
; 347  : 	set_fixed_3d_object_database_item (OBJECT_3D_TAIWAN_KEY_POWER_FC_COALING_PLANT01, EXPLOSIVE_QUALITY_DUST, EXPLOSIVE_POWER_HIGH, WARHEAD_EFFECTIVE_HARDENED_BUILDING, 1500, IMPORTANCE_HIGH, TARGET_TYPE_GROUND, TARGET_SYMBOL_STRUCTURE);

  001ce	6a 07		 push	 7
  001d0	6a 01		 push	 1
  001d2	51		 push	 ecx
  001d3	f3 0f 10 05 00
	00 00 00	 movss	 xmm0, DWORD PTR __real@3f800000
  001db	f3 0f 11 04 24	 movss	 DWORD PTR [esp], xmm0
  001e0	68 dc 05 00 00	 push	 1500			; 000005dcH
  001e5	68 00 20 00 00	 push	 8192			; 00002000H
  001ea	6a 03		 push	 3
  001ec	6a 01		 push	 1
  001ee	68 77 08 00 00	 push	 2167			; 00000877H
  001f3	e8 00 00 00 00	 call	 ?set_fixed_3d_object_database_item@@YGXHHHHHMW4TARGET_TYPES@@W4TARGET_SYMBOL_TYPES@@@Z ; set_fixed_3d_object_database_item

; 348  : 
; 349  : 	// INVALID TARGETS
; 350  : }

  001f8	5f		 pop	 edi
  001f9	5e		 pop	 esi
  001fa	5b		 pop	 ebx
  001fb	8b e5		 mov	 esp, ebp
  001fd	5d		 pop	 ebp
  001fe	c3		 ret	 0
?initialise_high_importance_medium_armoured_buildings@@YGXXZ ENDP ; initialise_high_importance_medium_armoured_buildings
_TEXT	ENDS
; Function compile flags: /Odtp /ZI
; File c:\users\nhv90\projects\eech\aphavoc\source\entity\fixed\fx_objdb.c
;	COMDAT ?initialise_high_importance_small_stone_buildings@@YGXXZ
_TEXT	SEGMENT
?initialise_high_importance_small_stone_buildings@@YGXXZ PROC ; initialise_high_importance_small_stone_buildings, COMDAT

; 306  : {

  00000	55		 push	 ebp
  00001	8b ec		 mov	 ebp, esp
  00003	83 ec 40	 sub	 esp, 64			; 00000040H
  00006	53		 push	 ebx
  00007	56		 push	 esi
  00008	57		 push	 edi

; 307  : 	////////////////////////////////////////////////////////////////////////////////////
; 308  : 	//
; 309  : 	// HIGH IMPORTANCE SMALL STONE BUILDINGS
; 310  : 	//
; 311  : 	////////////////////////////////////////////////////////////////////////////////////
; 312  : 
; 313  : 	// VALID TARGETS
; 314  : 
; 315  : 	// INVALID TARGETS
; 316  : }

  00009	5f		 pop	 edi
  0000a	5e		 pop	 esi
  0000b	5b		 pop	 ebx
  0000c	8b e5		 mov	 esp, ebp
  0000e	5d		 pop	 ebp
  0000f	c3		 ret	 0
?initialise_high_importance_small_stone_buildings@@YGXXZ ENDP ; initialise_high_importance_small_stone_buildings
_TEXT	ENDS
; Function compile flags: /Odtp /ZI
; File c:\users\nhv90\projects\eech\aphavoc\source\entity\fixed\fx_objdb.c
;	COMDAT ?initialise_high_importance_medium_stone_buildings@@YGXXZ
_TEXT	SEGMENT
?initialise_high_importance_medium_stone_buildings@@YGXXZ PROC ; initialise_high_importance_medium_stone_buildings, COMDAT

; 265  : {

  00000	55		 push	 ebp
  00001	8b ec		 mov	 ebp, esp
  00003	83 ec 40	 sub	 esp, 64			; 00000040H
  00006	53		 push	 ebx
  00007	56		 push	 esi
  00008	57		 push	 edi

; 266  : 	////////////////////////////////////////////////////////////////////////////////////
; 267  : 	//
; 268  : 	// HIGH IMPORTANCE MEDIUM STONE BUILDINGS
; 269  : 	//
; 270  : 	////////////////////////////////////////////////////////////////////////////////////
; 271  : 
; 272  : 	// VALID TARGETS
; 273  : 
; 274  : 	set_fixed_3d_object_database_item (OBJECT_3D_AMERICAN_FACTORY_PERSON, EXPLOSIVE_QUALITY_DUST, EXPLOSIVE_POWER_HIGH, WARHEAD_EFFECTIVE_STONE_BUILDING, 1200, IMPORTANCE_HIGH, TARGET_TYPE_GROUND, TARGET_SYMBOL_STRUCTURE);

  00009	6a 07		 push	 7
  0000b	6a 01		 push	 1
  0000d	51		 push	 ecx
  0000e	f3 0f 10 05 00
	00 00 00	 movss	 xmm0, DWORD PTR __real@3f800000
  00016	f3 0f 11 04 24	 movss	 DWORD PTR [esp], xmm0
  0001b	68 b0 04 00 00	 push	 1200			; 000004b0H
  00020	68 00 01 00 00	 push	 256			; 00000100H
  00025	6a 03		 push	 3
  00027	6a 01		 push	 1
  00029	6a 47		 push	 71			; 00000047H
  0002b	e8 00 00 00 00	 call	 ?set_fixed_3d_object_database_item@@YGXHHHHHMW4TARGET_TYPES@@W4TARGET_SYMBOL_TYPES@@@Z ; set_fixed_3d_object_database_item

; 275  : 
; 276  : 	set_fixed_3d_object_database_item (OBJECT_3D_AMERICAN_CONTROL_TOWER01, EXPLOSIVE_QUALITY_DUST, EXPLOSIVE_POWER_MEDIUM, WARHEAD_EFFECTIVE_STONE_BUILDING, 750, IMPORTANCE_HIGH, TARGET_TYPE_GROUND, TARGET_SYMBOL_STRUCTURE);

  00030	6a 07		 push	 7
  00032	6a 01		 push	 1
  00034	51		 push	 ecx
  00035	f3 0f 10 05 00
	00 00 00	 movss	 xmm0, DWORD PTR __real@3f800000
  0003d	f3 0f 11 04 24	 movss	 DWORD PTR [esp], xmm0
  00042	68 ee 02 00 00	 push	 750			; 000002eeH
  00047	68 00 01 00 00	 push	 256			; 00000100H
  0004c	6a 02		 push	 2
  0004e	6a 01		 push	 1
  00050	6a 3b		 push	 59			; 0000003bH
  00052	e8 00 00 00 00	 call	 ?set_fixed_3d_object_database_item@@YGXHHHHHMW4TARGET_TYPES@@W4TARGET_SYMBOL_TYPES@@@Z ; set_fixed_3d_object_database_item

; 277  : 	set_fixed_3d_object_database_item (OBJECT_3D_AMERICAN_CONTROL_TOWER02, EXPLOSIVE_QUALITY_DUST, EXPLOSIVE_POWER_MEDIUM, WARHEAD_EFFECTIVE_STONE_BUILDING, 750, IMPORTANCE_HIGH, TARGET_TYPE_GROUND, TARGET_SYMBOL_STRUCTURE);

  00057	6a 07		 push	 7
  00059	6a 01		 push	 1
  0005b	51		 push	 ecx
  0005c	f3 0f 10 05 00
	00 00 00	 movss	 xmm0, DWORD PTR __real@3f800000
  00064	f3 0f 11 04 24	 movss	 DWORD PTR [esp], xmm0
  00069	68 ee 02 00 00	 push	 750			; 000002eeH
  0006e	68 00 01 00 00	 push	 256			; 00000100H
  00073	6a 02		 push	 2
  00075	6a 01		 push	 1
  00077	6a 3d		 push	 61			; 0000003dH
  00079	e8 00 00 00 00	 call	 ?set_fixed_3d_object_database_item@@YGXHHHHHMW4TARGET_TYPES@@W4TARGET_SYMBOL_TYPES@@@Z ; set_fixed_3d_object_database_item

; 278  : 
; 279  : 	set_fixed_3d_object_database_item (OBJECT_3D_RUSSIAN_CONTROL_TOWER01, EXPLOSIVE_QUALITY_DUST, EXPLOSIVE_POWER_MEDIUM, WARHEAD_EFFECTIVE_STONE_BUILDING, 750, IMPORTANCE_HIGH, TARGET_TYPE_GROUND, TARGET_SYMBOL_STRUCTURE);

  0007e	6a 07		 push	 7
  00080	6a 01		 push	 1
  00082	51		 push	 ecx
  00083	f3 0f 10 05 00
	00 00 00	 movss	 xmm0, DWORD PTR __real@3f800000
  0008b	f3 0f 11 04 24	 movss	 DWORD PTR [esp], xmm0
  00090	68 ee 02 00 00	 push	 750			; 000002eeH
  00095	68 00 01 00 00	 push	 256			; 00000100H
  0009a	6a 02		 push	 2
  0009c	6a 01		 push	 1
  0009e	68 d7 00 00 00	 push	 215			; 000000d7H
  000a3	e8 00 00 00 00	 call	 ?set_fixed_3d_object_database_item@@YGXHHHHHMW4TARGET_TYPES@@W4TARGET_SYMBOL_TYPES@@@Z ; set_fixed_3d_object_database_item

; 280  : 	set_fixed_3d_object_database_item (OBJECT_3D_RUSSIAN_CONTROL_TOWER02, EXPLOSIVE_QUALITY_DUST, EXPLOSIVE_POWER_MEDIUM, WARHEAD_EFFECTIVE_STONE_BUILDING, 750, IMPORTANCE_HIGH, TARGET_TYPE_GROUND, TARGET_SYMBOL_STRUCTURE);

  000a8	6a 07		 push	 7
  000aa	6a 01		 push	 1
  000ac	51		 push	 ecx
  000ad	f3 0f 10 05 00
	00 00 00	 movss	 xmm0, DWORD PTR __real@3f800000
  000b5	f3 0f 11 04 24	 movss	 DWORD PTR [esp], xmm0
  000ba	68 ee 02 00 00	 push	 750			; 000002eeH
  000bf	68 00 01 00 00	 push	 256			; 00000100H
  000c4	6a 02		 push	 2
  000c6	6a 01		 push	 1
  000c8	68 d9 00 00 00	 push	 217			; 000000d9H
  000cd	e8 00 00 00 00	 call	 ?set_fixed_3d_object_database_item@@YGXHHHHHMW4TARGET_TYPES@@W4TARGET_SYMBOL_TYPES@@@Z ; set_fixed_3d_object_database_item

; 281  : 	set_fixed_3d_object_database_item (OBJECT_3D_RUSSIAN_CONTROL_TOWER03, EXPLOSIVE_QUALITY_DUST, EXPLOSIVE_POWER_MEDIUM, WARHEAD_EFFECTIVE_STONE_BUILDING, 750, IMPORTANCE_HIGH, TARGET_TYPE_GROUND, TARGET_SYMBOL_STRUCTURE);

  000d2	6a 07		 push	 7
  000d4	6a 01		 push	 1
  000d6	51		 push	 ecx
  000d7	f3 0f 10 05 00
	00 00 00	 movss	 xmm0, DWORD PTR __real@3f800000
  000df	f3 0f 11 04 24	 movss	 DWORD PTR [esp], xmm0
  000e4	68 ee 02 00 00	 push	 750			; 000002eeH
  000e9	68 00 01 00 00	 push	 256			; 00000100H
  000ee	6a 02		 push	 2
  000f0	6a 01		 push	 1
  000f2	68 db 00 00 00	 push	 219			; 000000dbH
  000f7	e8 00 00 00 00	 call	 ?set_fixed_3d_object_database_item@@YGXHHHHHMW4TARGET_TYPES@@W4TARGET_SYMBOL_TYPES@@@Z ; set_fixed_3d_object_database_item

; 282  : 
; 283  : 	set_fixed_3d_object_database_item (OBJECT_3D_YEMEN_KEY_RADIO_FC_TOWER01, EXPLOSIVE_QUALITY_DUST, EXPLOSIVE_POWER_MEDIUM, WARHEAD_EFFECTIVE_STONE_BUILDING, 1000, IMPORTANCE_HIGH, TARGET_TYPE_GROUND, TARGET_SYMBOL_STRUCTURE);

  000fc	6a 07		 push	 7
  000fe	6a 01		 push	 1
  00100	51		 push	 ecx
  00101	f3 0f 10 05 00
	00 00 00	 movss	 xmm0, DWORD PTR __real@3f800000
  00109	f3 0f 11 04 24	 movss	 DWORD PTR [esp], xmm0
  0010e	68 e8 03 00 00	 push	 1000			; 000003e8H
  00113	68 00 01 00 00	 push	 256			; 00000100H
  00118	6a 02		 push	 2
  0011a	6a 01		 push	 1
  0011c	68 af 09 00 00	 push	 2479			; 000009afH
  00121	e8 00 00 00 00	 call	 ?set_fixed_3d_object_database_item@@YGXHHHHHMW4TARGET_TYPES@@W4TARGET_SYMBOL_TYPES@@@Z ; set_fixed_3d_object_database_item

; 284  : 	set_fixed_3d_object_database_item (OBJECT_3D_YEMEN_KEY_RADIO_FC_TOWER03, EXPLOSIVE_QUALITY_DUST, EXPLOSIVE_POWER_MEDIUM, WARHEAD_EFFECTIVE_STONE_BUILDING, 1000, IMPORTANCE_HIGH, TARGET_TYPE_GROUND, TARGET_SYMBOL_STRUCTURE);

  00126	6a 07		 push	 7
  00128	6a 01		 push	 1
  0012a	51		 push	 ecx
  0012b	f3 0f 10 05 00
	00 00 00	 movss	 xmm0, DWORD PTR __real@3f800000
  00133	f3 0f 11 04 24	 movss	 DWORD PTR [esp], xmm0
  00138	68 e8 03 00 00	 push	 1000			; 000003e8H
  0013d	68 00 01 00 00	 push	 256			; 00000100H
  00142	6a 02		 push	 2
  00144	6a 01		 push	 1
  00146	68 ab 09 00 00	 push	 2475			; 000009abH
  0014b	e8 00 00 00 00	 call	 ?set_fixed_3d_object_database_item@@YGXHHHHHMW4TARGET_TYPES@@W4TARGET_SYMBOL_TYPES@@@Z ; set_fixed_3d_object_database_item

; 285  : 
; 286  : 	set_fixed_3d_object_database_item (OBJECT_3D_LEBANON_KEY_RADIO_FC_SEA_MAST, EXPLOSIVE_QUALITY_DUST, EXPLOSIVE_POWER_MEDIUM, WARHEAD_EFFECTIVE_STONE_BUILDING, 1000, IMPORTANCE_HIGH, TARGET_TYPE_GROUND, TARGET_SYMBOL_STRUCTURE);

  00150	6a 07		 push	 7
  00152	6a 01		 push	 1
  00154	51		 push	 ecx
  00155	f3 0f 10 05 00
	00 00 00	 movss	 xmm0, DWORD PTR __real@3f800000
  0015d	f3 0f 11 04 24	 movss	 DWORD PTR [esp], xmm0
  00162	68 e8 03 00 00	 push	 1000			; 000003e8H
  00167	68 00 01 00 00	 push	 256			; 00000100H
  0016c	6a 02		 push	 2
  0016e	6a 01		 push	 1
  00170	68 fa 06 00 00	 push	 1786			; 000006faH
  00175	e8 00 00 00 00	 call	 ?set_fixed_3d_object_database_item@@YGXHHHHHMW4TARGET_TYPES@@W4TARGET_SYMBOL_TYPES@@@Z ; set_fixed_3d_object_database_item

; 287  : 
; 288  : 	set_fixed_3d_object_database_item (OBJECT_3D_TAIWAN_KEY_RADIO_FC_SEA_MAST, EXPLOSIVE_QUALITY_DUST, EXPLOSIVE_POWER_MEDIUM, WARHEAD_EFFECTIVE_STONE_BUILDING, 1000, IMPORTANCE_HIGH, TARGET_TYPE_GROUND, TARGET_SYMBOL_STRUCTURE);

  0017a	6a 07		 push	 7
  0017c	6a 01		 push	 1
  0017e	51		 push	 ecx
  0017f	f3 0f 10 05 00
	00 00 00	 movss	 xmm0, DWORD PTR __real@3f800000
  00187	f3 0f 11 04 24	 movss	 DWORD PTR [esp], xmm0
  0018c	68 e8 03 00 00	 push	 1000			; 000003e8H
  00191	68 00 01 00 00	 push	 256			; 00000100H
  00196	6a 02		 push	 2
  00198	6a 01		 push	 1
  0019a	68 9d 08 00 00	 push	 2205			; 0000089dH
  0019f	e8 00 00 00 00	 call	 ?set_fixed_3d_object_database_item@@YGXHHHHHMW4TARGET_TYPES@@W4TARGET_SYMBOL_TYPES@@@Z ; set_fixed_3d_object_database_item

; 289  : 
; 290  : 	set_fixed_3d_object_database_item (OBJECT_3D_AMERICAN_HANGAR05, EXPLOSIVE_QUALITY_DUST, EXPLOSIVE_POWER_MEDIUM, WARHEAD_EFFECTIVE_STONE_BUILDING, 1600, IMPORTANCE_HIGH, TARGET_TYPE_GROUND, TARGET_SYMBOL_STRUCTURE);

  001a4	6a 07		 push	 7
  001a6	6a 01		 push	 1
  001a8	51		 push	 ecx
  001a9	f3 0f 10 05 00
	00 00 00	 movss	 xmm0, DWORD PTR __real@3f800000
  001b1	f3 0f 11 04 24	 movss	 DWORD PTR [esp], xmm0
  001b6	68 40 06 00 00	 push	 1600			; 00000640H
  001bb	68 00 01 00 00	 push	 256			; 00000100H
  001c0	6a 02		 push	 2
  001c2	6a 01		 push	 1
  001c4	6a 5d		 push	 93			; 0000005dH
  001c6	e8 00 00 00 00	 call	 ?set_fixed_3d_object_database_item@@YGXHHHHHMW4TARGET_TYPES@@W4TARGET_SYMBOL_TYPES@@@Z ; set_fixed_3d_object_database_item

; 291  : 	set_fixed_3d_object_database_item (OBJECT_3D_AMERICAN_HANGAR11, EXPLOSIVE_QUALITY_DUST, EXPLOSIVE_POWER_MEDIUM, WARHEAD_EFFECTIVE_STONE_BUILDING, 1600, IMPORTANCE_HIGH, TARGET_TYPE_GROUND, TARGET_SYMBOL_STRUCTURE);

  001cb	6a 07		 push	 7
  001cd	6a 01		 push	 1
  001cf	51		 push	 ecx
  001d0	f3 0f 10 05 00
	00 00 00	 movss	 xmm0, DWORD PTR __real@3f800000
  001d8	f3 0f 11 04 24	 movss	 DWORD PTR [esp], xmm0
  001dd	68 40 06 00 00	 push	 1600			; 00000640H
  001e2	68 00 01 00 00	 push	 256			; 00000100H
  001e7	6a 02		 push	 2
  001e9	6a 01		 push	 1
  001eb	6a 5f		 push	 95			; 0000005fH
  001ed	e8 00 00 00 00	 call	 ?set_fixed_3d_object_database_item@@YGXHHHHHMW4TARGET_TYPES@@W4TARGET_SYMBOL_TYPES@@@Z ; set_fixed_3d_object_database_item

; 292  : 	set_fixed_3d_object_database_item (OBJECT_3D_AMERICAN_HANGAR12, EXPLOSIVE_QUALITY_DUST, EXPLOSIVE_POWER_MEDIUM, WARHEAD_EFFECTIVE_STONE_BUILDING, 1600, IMPORTANCE_HIGH, TARGET_TYPE_GROUND, TARGET_SYMBOL_STRUCTURE);

  001f2	6a 07		 push	 7
  001f4	6a 01		 push	 1
  001f6	51		 push	 ecx
  001f7	f3 0f 10 05 00
	00 00 00	 movss	 xmm0, DWORD PTR __real@3f800000
  001ff	f3 0f 11 04 24	 movss	 DWORD PTR [esp], xmm0
  00204	68 40 06 00 00	 push	 1600			; 00000640H
  00209	68 00 01 00 00	 push	 256			; 00000100H
  0020e	6a 02		 push	 2
  00210	6a 01		 push	 1
  00212	6a 61		 push	 97			; 00000061H
  00214	e8 00 00 00 00	 call	 ?set_fixed_3d_object_database_item@@YGXHHHHHMW4TARGET_TYPES@@W4TARGET_SYMBOL_TYPES@@@Z ; set_fixed_3d_object_database_item

; 293  : 
; 294  : 	set_fixed_3d_object_database_item (OBJECT_3D_RUSSIAN_HANGAR07, EXPLOSIVE_QUALITY_DUST, EXPLOSIVE_POWER_MEDIUM, WARHEAD_EFFECTIVE_STONE_BUILDING, 1200, IMPORTANCE_HIGH, TARGET_TYPE_GROUND, TARGET_SYMBOL_STRUCTURE);

  00219	6a 07		 push	 7
  0021b	6a 01		 push	 1
  0021d	51		 push	 ecx
  0021e	f3 0f 10 05 00
	00 00 00	 movss	 xmm0, DWORD PTR __real@3f800000
  00226	f3 0f 11 04 24	 movss	 DWORD PTR [esp], xmm0
  0022b	68 b0 04 00 00	 push	 1200			; 000004b0H
  00230	68 00 01 00 00	 push	 256			; 00000100H
  00235	6a 02		 push	 2
  00237	6a 01		 push	 1
  00239	68 fc 00 00 00	 push	 252			; 000000fcH
  0023e	e8 00 00 00 00	 call	 ?set_fixed_3d_object_database_item@@YGXHHHHHMW4TARGET_TYPES@@W4TARGET_SYMBOL_TYPES@@@Z ; set_fixed_3d_object_database_item

; 295  : 	set_fixed_3d_object_database_item (OBJECT_3D_RUSSIAN_HANGAR08, EXPLOSIVE_QUALITY_DUST, EXPLOSIVE_POWER_MEDIUM, WARHEAD_EFFECTIVE_STONE_BUILDING, 1200, IMPORTANCE_HIGH, TARGET_TYPE_GROUND, TARGET_SYMBOL_STRUCTURE);

  00243	6a 07		 push	 7
  00245	6a 01		 push	 1
  00247	51		 push	 ecx
  00248	f3 0f 10 05 00
	00 00 00	 movss	 xmm0, DWORD PTR __real@3f800000
  00250	f3 0f 11 04 24	 movss	 DWORD PTR [esp], xmm0
  00255	68 b0 04 00 00	 push	 1200			; 000004b0H
  0025a	68 00 01 00 00	 push	 256			; 00000100H
  0025f	6a 02		 push	 2
  00261	6a 01		 push	 1
  00263	68 fe 00 00 00	 push	 254			; 000000feH
  00268	e8 00 00 00 00	 call	 ?set_fixed_3d_object_database_item@@YGXHHHHHMW4TARGET_TYPES@@W4TARGET_SYMBOL_TYPES@@@Z ; set_fixed_3d_object_database_item

; 296  : 	set_fixed_3d_object_database_item (OBJECT_3D_RUSSIAN_HANGAR09, EXPLOSIVE_QUALITY_DUST, EXPLOSIVE_POWER_MEDIUM, WARHEAD_EFFECTIVE_STONE_BUILDING, 1200, IMPORTANCE_HIGH, TARGET_TYPE_GROUND, TARGET_SYMBOL_STRUCTURE);

  0026d	6a 07		 push	 7
  0026f	6a 01		 push	 1
  00271	51		 push	 ecx
  00272	f3 0f 10 05 00
	00 00 00	 movss	 xmm0, DWORD PTR __real@3f800000
  0027a	f3 0f 11 04 24	 movss	 DWORD PTR [esp], xmm0
  0027f	68 b0 04 00 00	 push	 1200			; 000004b0H
  00284	68 00 01 00 00	 push	 256			; 00000100H
  00289	6a 02		 push	 2
  0028b	6a 01		 push	 1
  0028d	68 00 01 00 00	 push	 256			; 00000100H
  00292	e8 00 00 00 00	 call	 ?set_fixed_3d_object_database_item@@YGXHHHHHMW4TARGET_TYPES@@W4TARGET_SYMBOL_TYPES@@@Z ; set_fixed_3d_object_database_item

; 297  : 
; 298  : 	// INVALID TARGETS
; 299  : }

  00297	5f		 pop	 edi
  00298	5e		 pop	 esi
  00299	5b		 pop	 ebx
  0029a	8b e5		 mov	 esp, ebp
  0029c	5d		 pop	 ebp
  0029d	c3		 ret	 0
?initialise_high_importance_medium_stone_buildings@@YGXXZ ENDP ; initialise_high_importance_medium_stone_buildings
_TEXT	ENDS
; Function compile flags: /Odtp /ZI
; File c:\users\nhv90\projects\eech\aphavoc\source\entity\fixed\fx_objdb.c
;	COMDAT ?initialise_high_importance_large_stone_buildings@@YGXXZ
_TEXT	SEGMENT
?initialise_high_importance_large_stone_buildings@@YGXXZ PROC ; initialise_high_importance_large_stone_buildings, COMDAT

; 218  : {

  00000	55		 push	 ebp
  00001	8b ec		 mov	 ebp, esp
  00003	83 ec 40	 sub	 esp, 64			; 00000040H
  00006	53		 push	 ebx
  00007	56		 push	 esi
  00008	57		 push	 edi

; 219  : 	////////////////////////////////////////////////////////////////////////////////////
; 220  : 	//
; 221  : 	// HIGH IMPORTANCE LARGE STONE BUILDINGS
; 222  : 	//
; 223  : 	////////////////////////////////////////////////////////////////////////////////////
; 224  : 
; 225  : 	// VALID TARGETS
; 226  : 
; 227  : 	set_fixed_3d_object_database_item (OBJECT_3D_AMERICAN_FACTORY01, EXPLOSIVE_QUALITY_DUST, EXPLOSIVE_POWER_HIGH, WARHEAD_EFFECTIVE_STONE_BUILDING, 2000, IMPORTANCE_HIGH, TARGET_TYPE_GROUND, TARGET_SYMBOL_STRUCTURE);

  00009	6a 07		 push	 7
  0000b	6a 01		 push	 1
  0000d	51		 push	 ecx
  0000e	f3 0f 10 05 00
	00 00 00	 movss	 xmm0, DWORD PTR __real@3f800000
  00016	f3 0f 11 04 24	 movss	 DWORD PTR [esp], xmm0
  0001b	68 d0 07 00 00	 push	 2000			; 000007d0H
  00020	68 00 01 00 00	 push	 256			; 00000100H
  00025	6a 03		 push	 3
  00027	6a 01		 push	 1
  00029	6a 3f		 push	 63			; 0000003fH
  0002b	e8 00 00 00 00	 call	 ?set_fixed_3d_object_database_item@@YGXHHHHHMW4TARGET_TYPES@@W4TARGET_SYMBOL_TYPES@@@Z ; set_fixed_3d_object_database_item

; 228  : 	set_fixed_3d_object_database_item (OBJECT_3D_AMERICAN_FACTORY02, EXPLOSIVE_QUALITY_DUST, EXPLOSIVE_POWER_HIGH, WARHEAD_EFFECTIVE_STONE_BUILDING, 2000, IMPORTANCE_HIGH, TARGET_TYPE_GROUND, TARGET_SYMBOL_STRUCTURE);

  00030	6a 07		 push	 7
  00032	6a 01		 push	 1
  00034	51		 push	 ecx
  00035	f3 0f 10 05 00
	00 00 00	 movss	 xmm0, DWORD PTR __real@3f800000
  0003d	f3 0f 11 04 24	 movss	 DWORD PTR [esp], xmm0
  00042	68 d0 07 00 00	 push	 2000			; 000007d0H
  00047	68 00 01 00 00	 push	 256			; 00000100H
  0004c	6a 03		 push	 3
  0004e	6a 01		 push	 1
  00050	6a 41		 push	 65			; 00000041H
  00052	e8 00 00 00 00	 call	 ?set_fixed_3d_object_database_item@@YGXHHHHHMW4TARGET_TYPES@@W4TARGET_SYMBOL_TYPES@@@Z ; set_fixed_3d_object_database_item

; 229  : 	set_fixed_3d_object_database_item (OBJECT_3D_AMERICAN_FACTORY03, EXPLOSIVE_QUALITY_DUST, EXPLOSIVE_POWER_HIGH, WARHEAD_EFFECTIVE_STONE_BUILDING, 2000, IMPORTANCE_HIGH, TARGET_TYPE_GROUND, TARGET_SYMBOL_STRUCTURE);

  00057	6a 07		 push	 7
  00059	6a 01		 push	 1
  0005b	51		 push	 ecx
  0005c	f3 0f 10 05 00
	00 00 00	 movss	 xmm0, DWORD PTR __real@3f800000
  00064	f3 0f 11 04 24	 movss	 DWORD PTR [esp], xmm0
  00069	68 d0 07 00 00	 push	 2000			; 000007d0H
  0006e	68 00 01 00 00	 push	 256			; 00000100H
  00073	6a 03		 push	 3
  00075	6a 01		 push	 1
  00077	6a 43		 push	 67			; 00000043H
  00079	e8 00 00 00 00	 call	 ?set_fixed_3d_object_database_item@@YGXHHHHHMW4TARGET_TYPES@@W4TARGET_SYMBOL_TYPES@@@Z ; set_fixed_3d_object_database_item

; 230  : 	set_fixed_3d_object_database_item (OBJECT_3D_AMERICAN_FACTORY04, EXPLOSIVE_QUALITY_DUST, EXPLOSIVE_POWER_HIGH, WARHEAD_EFFECTIVE_STONE_BUILDING, 2000, IMPORTANCE_HIGH, TARGET_TYPE_GROUND, TARGET_SYMBOL_STRUCTURE);

  0007e	6a 07		 push	 7
  00080	6a 01		 push	 1
  00082	51		 push	 ecx
  00083	f3 0f 10 05 00
	00 00 00	 movss	 xmm0, DWORD PTR __real@3f800000
  0008b	f3 0f 11 04 24	 movss	 DWORD PTR [esp], xmm0
  00090	68 d0 07 00 00	 push	 2000			; 000007d0H
  00095	68 00 01 00 00	 push	 256			; 00000100H
  0009a	6a 03		 push	 3
  0009c	6a 01		 push	 1
  0009e	6a 45		 push	 69			; 00000045H
  000a0	e8 00 00 00 00	 call	 ?set_fixed_3d_object_database_item@@YGXHHHHHMW4TARGET_TYPES@@W4TARGET_SYMBOL_TYPES@@@Z ; set_fixed_3d_object_database_item

; 231  : 
; 232  : 	set_fixed_3d_object_database_item (OBJECT_3D_RUSSIAN_FACTORY01, EXPLOSIVE_QUALITY_DUST, EXPLOSIVE_POWER_HIGH, WARHEAD_EFFECTIVE_STONE_BUILDING, 2000, IMPORTANCE_HIGH, TARGET_TYPE_GROUND, TARGET_SYMBOL_STRUCTURE);

  000a5	6a 07		 push	 7
  000a7	6a 01		 push	 1
  000a9	51		 push	 ecx
  000aa	f3 0f 10 05 00
	00 00 00	 movss	 xmm0, DWORD PTR __real@3f800000
  000b2	f3 0f 11 04 24	 movss	 DWORD PTR [esp], xmm0
  000b7	68 d0 07 00 00	 push	 2000			; 000007d0H
  000bc	68 00 01 00 00	 push	 256			; 00000100H
  000c1	6a 03		 push	 3
  000c3	6a 01		 push	 1
  000c5	68 dd 00 00 00	 push	 221			; 000000ddH
  000ca	e8 00 00 00 00	 call	 ?set_fixed_3d_object_database_item@@YGXHHHHHMW4TARGET_TYPES@@W4TARGET_SYMBOL_TYPES@@@Z ; set_fixed_3d_object_database_item

; 233  : 	set_fixed_3d_object_database_item (OBJECT_3D_RUSSIAN_FACTORY02, EXPLOSIVE_QUALITY_DUST, EXPLOSIVE_POWER_HIGH, WARHEAD_EFFECTIVE_STONE_BUILDING, 2000, IMPORTANCE_HIGH, TARGET_TYPE_GROUND, TARGET_SYMBOL_STRUCTURE);

  000cf	6a 07		 push	 7
  000d1	6a 01		 push	 1
  000d3	51		 push	 ecx
  000d4	f3 0f 10 05 00
	00 00 00	 movss	 xmm0, DWORD PTR __real@3f800000
  000dc	f3 0f 11 04 24	 movss	 DWORD PTR [esp], xmm0
  000e1	68 d0 07 00 00	 push	 2000			; 000007d0H
  000e6	68 00 01 00 00	 push	 256			; 00000100H
  000eb	6a 03		 push	 3
  000ed	6a 01		 push	 1
  000ef	68 df 00 00 00	 push	 223			; 000000dfH
  000f4	e8 00 00 00 00	 call	 ?set_fixed_3d_object_database_item@@YGXHHHHHMW4TARGET_TYPES@@W4TARGET_SYMBOL_TYPES@@@Z ; set_fixed_3d_object_database_item

; 234  : 	set_fixed_3d_object_database_item (OBJECT_3D_RUSSIAN_FACTORY03, EXPLOSIVE_QUALITY_DUST, EXPLOSIVE_POWER_HIGH, WARHEAD_EFFECTIVE_STONE_BUILDING, 2000, IMPORTANCE_HIGH, TARGET_TYPE_GROUND, TARGET_SYMBOL_STRUCTURE);

  000f9	6a 07		 push	 7
  000fb	6a 01		 push	 1
  000fd	51		 push	 ecx
  000fe	f3 0f 10 05 00
	00 00 00	 movss	 xmm0, DWORD PTR __real@3f800000
  00106	f3 0f 11 04 24	 movss	 DWORD PTR [esp], xmm0
  0010b	68 d0 07 00 00	 push	 2000			; 000007d0H
  00110	68 00 01 00 00	 push	 256			; 00000100H
  00115	6a 03		 push	 3
  00117	6a 01		 push	 1
  00119	68 e1 00 00 00	 push	 225			; 000000e1H
  0011e	e8 00 00 00 00	 call	 ?set_fixed_3d_object_database_item@@YGXHHHHHMW4TARGET_TYPES@@W4TARGET_SYMBOL_TYPES@@@Z ; set_fixed_3d_object_database_item

; 235  : 
; 236  : 	set_fixed_3d_object_database_item (OBJECT_3D_MILITARY_FC_AMERICAN_FACTORY01, EXPLOSIVE_QUALITY_DUST, EXPLOSIVE_POWER_HIGH, WARHEAD_EFFECTIVE_STONE_BUILDING, 2000, IMPORTANCE_HIGH, TARGET_TYPE_GROUND, TARGET_SYMBOL_STRUCTURE);

  00123	6a 07		 push	 7
  00125	6a 01		 push	 1
  00127	51		 push	 ecx
  00128	f3 0f 10 05 00
	00 00 00	 movss	 xmm0, DWORD PTR __real@3f800000
  00130	f3 0f 11 04 24	 movss	 DWORD PTR [esp], xmm0
  00135	68 d0 07 00 00	 push	 2000			; 000007d0H
  0013a	68 00 01 00 00	 push	 256			; 00000100H
  0013f	6a 03		 push	 3
  00141	6a 01		 push	 1
  00143	68 89 02 00 00	 push	 649			; 00000289H
  00148	e8 00 00 00 00	 call	 ?set_fixed_3d_object_database_item@@YGXHHHHHMW4TARGET_TYPES@@W4TARGET_SYMBOL_TYPES@@@Z ; set_fixed_3d_object_database_item

; 237  : 	set_fixed_3d_object_database_item (OBJECT_3D_MILITARY_FC_AMERICAN_FACTORY02, EXPLOSIVE_QUALITY_DUST, EXPLOSIVE_POWER_HIGH, WARHEAD_EFFECTIVE_STONE_BUILDING, 2000, IMPORTANCE_HIGH, TARGET_TYPE_GROUND, TARGET_SYMBOL_STRUCTURE);

  0014d	6a 07		 push	 7
  0014f	6a 01		 push	 1
  00151	51		 push	 ecx
  00152	f3 0f 10 05 00
	00 00 00	 movss	 xmm0, DWORD PTR __real@3f800000
  0015a	f3 0f 11 04 24	 movss	 DWORD PTR [esp], xmm0
  0015f	68 d0 07 00 00	 push	 2000			; 000007d0H
  00164	68 00 01 00 00	 push	 256			; 00000100H
  00169	6a 03		 push	 3
  0016b	6a 01		 push	 1
  0016d	68 8b 02 00 00	 push	 651			; 0000028bH
  00172	e8 00 00 00 00	 call	 ?set_fixed_3d_object_database_item@@YGXHHHHHMW4TARGET_TYPES@@W4TARGET_SYMBOL_TYPES@@@Z ; set_fixed_3d_object_database_item

; 238  : 	set_fixed_3d_object_database_item (OBJECT_3D_MILITARY_FC_AMERICAN_FACTORY03, EXPLOSIVE_QUALITY_DUST, EXPLOSIVE_POWER_HIGH, WARHEAD_EFFECTIVE_STONE_BUILDING, 2000, IMPORTANCE_HIGH, TARGET_TYPE_GROUND, TARGET_SYMBOL_STRUCTURE);

  00177	6a 07		 push	 7
  00179	6a 01		 push	 1
  0017b	51		 push	 ecx
  0017c	f3 0f 10 05 00
	00 00 00	 movss	 xmm0, DWORD PTR __real@3f800000
  00184	f3 0f 11 04 24	 movss	 DWORD PTR [esp], xmm0
  00189	68 d0 07 00 00	 push	 2000			; 000007d0H
  0018e	68 00 01 00 00	 push	 256			; 00000100H
  00193	6a 03		 push	 3
  00195	6a 01		 push	 1
  00197	68 8d 02 00 00	 push	 653			; 0000028dH
  0019c	e8 00 00 00 00	 call	 ?set_fixed_3d_object_database_item@@YGXHHHHHMW4TARGET_TYPES@@W4TARGET_SYMBOL_TYPES@@@Z ; set_fixed_3d_object_database_item

; 239  : 	set_fixed_3d_object_database_item (OBJECT_3D_MILITARY_FC_AMERICAN_FACTORY04, EXPLOSIVE_QUALITY_DUST, EXPLOSIVE_POWER_HIGH, WARHEAD_EFFECTIVE_STONE_BUILDING, 2000, IMPORTANCE_HIGH, TARGET_TYPE_GROUND, TARGET_SYMBOL_STRUCTURE);

  001a1	6a 07		 push	 7
  001a3	6a 01		 push	 1
  001a5	51		 push	 ecx
  001a6	f3 0f 10 05 00
	00 00 00	 movss	 xmm0, DWORD PTR __real@3f800000
  001ae	f3 0f 11 04 24	 movss	 DWORD PTR [esp], xmm0
  001b3	68 d0 07 00 00	 push	 2000			; 000007d0H
  001b8	68 00 01 00 00	 push	 256			; 00000100H
  001bd	6a 03		 push	 3
  001bf	6a 01		 push	 1
  001c1	68 8f 02 00 00	 push	 655			; 0000028fH
  001c6	e8 00 00 00 00	 call	 ?set_fixed_3d_object_database_item@@YGXHHHHHMW4TARGET_TYPES@@W4TARGET_SYMBOL_TYPES@@@Z ; set_fixed_3d_object_database_item

; 240  : 
; 241  : 	set_fixed_3d_object_database_item (OBJECT_3D_LEBANON_KEY_RADIO_FC_BEVELBLUE001_54M_3X5, EXPLOSIVE_QUALITY_DUST, EXPLOSIVE_POWER_HIGH, WARHEAD_EFFECTIVE_STONE_BUILDING, 2000, IMPORTANCE_HIGH, TARGET_TYPE_GROUND, TARGET_SYMBOL_STRUCTURE);

  001cb	6a 07		 push	 7
  001cd	6a 01		 push	 1
  001cf	51		 push	 ecx
  001d0	f3 0f 10 05 00
	00 00 00	 movss	 xmm0, DWORD PTR __real@3f800000
  001d8	f3 0f 11 04 24	 movss	 DWORD PTR [esp], xmm0
  001dd	68 d0 07 00 00	 push	 2000			; 000007d0H
  001e2	68 00 01 00 00	 push	 256			; 00000100H
  001e7	6a 03		 push	 3
  001e9	6a 01		 push	 1
  001eb	68 f2 06 00 00	 push	 1778			; 000006f2H
  001f0	e8 00 00 00 00	 call	 ?set_fixed_3d_object_database_item@@YGXHHHHHMW4TARGET_TYPES@@W4TARGET_SYMBOL_TYPES@@@Z ; set_fixed_3d_object_database_item

; 242  : 	set_fixed_3d_object_database_item (OBJECT_3D_LEBANON_KEY_RADIO_FC_BEVELBLUE001_70M_3X5, EXPLOSIVE_QUALITY_DUST, EXPLOSIVE_POWER_HIGH, WARHEAD_EFFECTIVE_STONE_BUILDING, 2000, IMPORTANCE_HIGH, TARGET_TYPE_GROUND, TARGET_SYMBOL_STRUCTURE);

  001f5	6a 07		 push	 7
  001f7	6a 01		 push	 1
  001f9	51		 push	 ecx
  001fa	f3 0f 10 05 00
	00 00 00	 movss	 xmm0, DWORD PTR __real@3f800000
  00202	f3 0f 11 04 24	 movss	 DWORD PTR [esp], xmm0
  00207	68 d0 07 00 00	 push	 2000			; 000007d0H
  0020c	68 00 01 00 00	 push	 256			; 00000100H
  00211	6a 03		 push	 3
  00213	6a 01		 push	 1
  00215	68 f4 06 00 00	 push	 1780			; 000006f4H
  0021a	e8 00 00 00 00	 call	 ?set_fixed_3d_object_database_item@@YGXHHHHHMW4TARGET_TYPES@@W4TARGET_SYMBOL_TYPES@@@Z ; set_fixed_3d_object_database_item

; 243  : 
; 244  : 	set_fixed_3d_object_database_item (OBJECT_3D_LEBANON_KEY_MILITARY_FC_GOVTOFFICE001_60M, EXPLOSIVE_QUALITY_DUST, EXPLOSIVE_POWER_HIGH, WARHEAD_EFFECTIVE_STONE_BUILDING, 2000, IMPORTANCE_HIGH, TARGET_TYPE_GROUND, TARGET_SYMBOL_STRUCTURE);

  0021f	6a 07		 push	 7
  00221	6a 01		 push	 1
  00223	51		 push	 ecx
  00224	f3 0f 10 05 00
	00 00 00	 movss	 xmm0, DWORD PTR __real@3f800000
  0022c	f3 0f 11 04 24	 movss	 DWORD PTR [esp], xmm0
  00231	68 d0 07 00 00	 push	 2000			; 000007d0H
  00236	68 00 01 00 00	 push	 256			; 00000100H
  0023b	6a 03		 push	 3
  0023d	6a 01		 push	 1
  0023f	68 f6 05 00 00	 push	 1526			; 000005f6H
  00244	e8 00 00 00 00	 call	 ?set_fixed_3d_object_database_item@@YGXHHHHHMW4TARGET_TYPES@@W4TARGET_SYMBOL_TYPES@@@Z ; set_fixed_3d_object_database_item

; 245  : 	set_fixed_3d_object_database_item (OBJECT_3D_LEBANON_KEY_MILITARY_FC_GOVTOFFICE002_60M, EXPLOSIVE_QUALITY_DUST, EXPLOSIVE_POWER_HIGH, WARHEAD_EFFECTIVE_STONE_BUILDING, 2000, IMPORTANCE_HIGH, TARGET_TYPE_GROUND, TARGET_SYMBOL_STRUCTURE);

  00249	6a 07		 push	 7
  0024b	6a 01		 push	 1
  0024d	51		 push	 ecx
  0024e	f3 0f 10 05 00
	00 00 00	 movss	 xmm0, DWORD PTR __real@3f800000
  00256	f3 0f 11 04 24	 movss	 DWORD PTR [esp], xmm0
  0025b	68 d0 07 00 00	 push	 2000			; 000007d0H
  00260	68 00 01 00 00	 push	 256			; 00000100H
  00265	6a 03		 push	 3
  00267	6a 01		 push	 1
  00269	68 f8 05 00 00	 push	 1528			; 000005f8H
  0026e	e8 00 00 00 00	 call	 ?set_fixed_3d_object_database_item@@YGXHHHHHMW4TARGET_TYPES@@W4TARGET_SYMBOL_TYPES@@@Z ; set_fixed_3d_object_database_item

; 246  : 	set_fixed_3d_object_database_item (OBJECT_3D_LEBANON_KEY_MILITARY_FC_GOVTOFFICE003_60M, EXPLOSIVE_QUALITY_DUST, EXPLOSIVE_POWER_HIGH, WARHEAD_EFFECTIVE_STONE_BUILDING, 2000, IMPORTANCE_HIGH, TARGET_TYPE_GROUND, TARGET_SYMBOL_STRUCTURE);

  00273	6a 07		 push	 7
  00275	6a 01		 push	 1
  00277	51		 push	 ecx
  00278	f3 0f 10 05 00
	00 00 00	 movss	 xmm0, DWORD PTR __real@3f800000
  00280	f3 0f 11 04 24	 movss	 DWORD PTR [esp], xmm0
  00285	68 d0 07 00 00	 push	 2000			; 000007d0H
  0028a	68 00 01 00 00	 push	 256			; 00000100H
  0028f	6a 03		 push	 3
  00291	6a 01		 push	 1
  00293	68 fa 05 00 00	 push	 1530			; 000005faH
  00298	e8 00 00 00 00	 call	 ?set_fixed_3d_object_database_item@@YGXHHHHHMW4TARGET_TYPES@@W4TARGET_SYMBOL_TYPES@@@Z ; set_fixed_3d_object_database_item

; 247  : 
; 248  : 	set_fixed_3d_object_database_item (OBJECT_3D_LEBANON_KEY_MILITARY_FC_AMERICAN_BUILDING02, EXPLOSIVE_QUALITY_DUST, EXPLOSIVE_POWER_MEDIUM, WARHEAD_EFFECTIVE_STONE_BUILDING, 2000, IMPORTANCE_HIGH, TARGET_TYPE_GROUND, TARGET_SYMBOL_STRUCTURE);

  0029d	6a 07		 push	 7
  0029f	6a 01		 push	 1
  002a1	51		 push	 ecx
  002a2	f3 0f 10 05 00
	00 00 00	 movss	 xmm0, DWORD PTR __real@3f800000
  002aa	f3 0f 11 04 24	 movss	 DWORD PTR [esp], xmm0
  002af	68 d0 07 00 00	 push	 2000			; 000007d0H
  002b4	68 00 01 00 00	 push	 256			; 00000100H
  002b9	6a 02		 push	 2
  002bb	6a 01		 push	 1
  002bd	68 08 06 00 00	 push	 1544			; 00000608H
  002c2	e8 00 00 00 00	 call	 ?set_fixed_3d_object_database_item@@YGXHHHHHMW4TARGET_TYPES@@W4TARGET_SYMBOL_TYPES@@@Z ; set_fixed_3d_object_database_item

; 249  : 
; 250  : 	set_fixed_3d_object_database_item (OBJECT_3D_TAIWAN_KEY_RADIO_FC_BEVELBLUE001_54M_3X5, EXPLOSIVE_QUALITY_DUST, EXPLOSIVE_POWER_HIGH, WARHEAD_EFFECTIVE_STONE_BUILDING, 2000, IMPORTANCE_HIGH, TARGET_TYPE_GROUND, TARGET_SYMBOL_STRUCTURE);

  002c7	6a 07		 push	 7
  002c9	6a 01		 push	 1
  002cb	51		 push	 ecx
  002cc	f3 0f 10 05 00
	00 00 00	 movss	 xmm0, DWORD PTR __real@3f800000
  002d4	f3 0f 11 04 24	 movss	 DWORD PTR [esp], xmm0
  002d9	68 d0 07 00 00	 push	 2000			; 000007d0H
  002de	68 00 01 00 00	 push	 256			; 00000100H
  002e3	6a 03		 push	 3
  002e5	6a 01		 push	 1
  002e7	68 95 08 00 00	 push	 2197			; 00000895H
  002ec	e8 00 00 00 00	 call	 ?set_fixed_3d_object_database_item@@YGXHHHHHMW4TARGET_TYPES@@W4TARGET_SYMBOL_TYPES@@@Z ; set_fixed_3d_object_database_item

; 251  : 	set_fixed_3d_object_database_item (OBJECT_3D_TAIWAN_KEY_RADIO_FC_BEVELBLUE001_70M_3X5, EXPLOSIVE_QUALITY_DUST, EXPLOSIVE_POWER_HIGH, WARHEAD_EFFECTIVE_STONE_BUILDING, 2000, IMPORTANCE_HIGH, TARGET_TYPE_GROUND, TARGET_SYMBOL_STRUCTURE);

  002f1	6a 07		 push	 7
  002f3	6a 01		 push	 1
  002f5	51		 push	 ecx
  002f6	f3 0f 10 05 00
	00 00 00	 movss	 xmm0, DWORD PTR __real@3f800000
  002fe	f3 0f 11 04 24	 movss	 DWORD PTR [esp], xmm0
  00303	68 d0 07 00 00	 push	 2000			; 000007d0H
  00308	68 00 01 00 00	 push	 256			; 00000100H
  0030d	6a 03		 push	 3
  0030f	6a 01		 push	 1
  00311	68 97 08 00 00	 push	 2199			; 00000897H
  00316	e8 00 00 00 00	 call	 ?set_fixed_3d_object_database_item@@YGXHHHHHMW4TARGET_TYPES@@W4TARGET_SYMBOL_TYPES@@@Z ; set_fixed_3d_object_database_item

; 252  : 
; 253  : 	set_fixed_3d_object_database_item (OBJECT_3D_TAIWAN_KEY_MILITARY_FC_AMERICAN_BUILDING02, EXPLOSIVE_QUALITY_DUST, EXPLOSIVE_POWER_MEDIUM, WARHEAD_EFFECTIVE_STONE_BUILDING, 2000, IMPORTANCE_HIGH, TARGET_TYPE_GROUND, TARGET_SYMBOL_STRUCTURE);

  0031b	6a 07		 push	 7
  0031d	6a 01		 push	 1
  0031f	51		 push	 ecx
  00320	f3 0f 10 05 00
	00 00 00	 movss	 xmm0, DWORD PTR __real@3f800000
  00328	f3 0f 11 04 24	 movss	 DWORD PTR [esp], xmm0
  0032d	68 d0 07 00 00	 push	 2000			; 000007d0H
  00332	68 00 01 00 00	 push	 256			; 00000100H
  00337	6a 02		 push	 2
  00339	6a 01		 push	 1
  0033b	68 df 07 00 00	 push	 2015			; 000007dfH
  00340	e8 00 00 00 00	 call	 ?set_fixed_3d_object_database_item@@YGXHHHHHMW4TARGET_TYPES@@W4TARGET_SYMBOL_TYPES@@@Z ; set_fixed_3d_object_database_item

; 254  : 
; 255  : 	set_fixed_3d_object_database_item (OBJECT_3D_KEY_PORT_FC_SHED003_13M_10X9, EXPLOSIVE_QUALITY_DUST, EXPLOSIVE_POWER_HIGH, WARHEAD_EFFECTIVE_STONE_BUILDING, 1500, IMPORTANCE_HIGH, TARGET_TYPE_GROUND, TARGET_SYMBOL_STRUCTURE);

  00345	6a 07		 push	 7
  00347	6a 01		 push	 1
  00349	51		 push	 ecx
  0034a	f3 0f 10 05 00
	00 00 00	 movss	 xmm0, DWORD PTR __real@3f800000
  00352	f3 0f 11 04 24	 movss	 DWORD PTR [esp], xmm0
  00357	68 dc 05 00 00	 push	 1500			; 000005dcH
  0035c	68 00 01 00 00	 push	 256			; 00000100H
  00361	6a 03		 push	 3
  00363	6a 01		 push	 1
  00365	68 a3 06 00 00	 push	 1699			; 000006a3H
  0036a	e8 00 00 00 00	 call	 ?set_fixed_3d_object_database_item@@YGXHHHHHMW4TARGET_TYPES@@W4TARGET_SYMBOL_TYPES@@@Z ; set_fixed_3d_object_database_item

; 256  : 
; 257  : 	// INVALID TARGETS
; 258  : }

  0036f	5f		 pop	 edi
  00370	5e		 pop	 esi
  00371	5b		 pop	 ebx
  00372	8b e5		 mov	 esp, ebp
  00374	5d		 pop	 ebp
  00375	c3		 ret	 0
?initialise_high_importance_large_stone_buildings@@YGXXZ ENDP ; initialise_high_importance_large_stone_buildings
_TEXT	ENDS
; Function compile flags: /Odtp /ZI
; File c:\users\nhv90\projects\eech\aphavoc\source\entity\fixed\fx_objdb.c
;	COMDAT ?set_fixed_3d_object_database_item@@YGXHHHHHMW4TARGET_TYPES@@W4TARGET_SYMBOL_TYPES@@@Z
_TEXT	SEGMENT
_destroyed_object_index$ = -4				; size = 4
_object_index$ = 8					; size = 4
_explosive_quality$ = 12				; size = 4
_explosive_power$ = 16					; size = 4
_hardness$ = 20						; size = 4
_initial_damage$ = 24					; size = 4
_importance$ = 28					; size = 4
_target_type$ = 32					; size = 4
_target_symbol$ = 36					; size = 4
?set_fixed_3d_object_database_item@@YGXHHHHHMW4TARGET_TYPES@@W4TARGET_SYMBOL_TYPES@@@Z PROC ; set_fixed_3d_object_database_item, COMDAT

; 93   : {

  00000	55		 push	 ebp
  00001	8b ec		 mov	 ebp, esp
  00003	83 ec 44	 sub	 esp, 68			; 00000044H
  00006	53		 push	 ebx
  00007	56		 push	 esi
  00008	57		 push	 edi

; 94   : 	int
; 95   : 		destroyed_object_index;
; 96   : 
; 97   : 	//
; 98   : 	// validate parameters
; 99   : 	//
; 100  : 
; 101  : 	ASSERT ((object_index > OBJECT_3D_INVALID_OBJECT_INDEX) && (object_index < OBJECT_3D_LAST));

  00009	83 7d 08 00	 cmp	 DWORD PTR _object_index$[ebp], 0
  0000d	7e 09		 jle	 SHORT $LN3@set_fixed_
  0000f	81 7d 08 e4 0a
	00 00		 cmp	 DWORD PTR _object_index$[ebp], 2788 ; 00000ae4H
  00016	7c 18		 jl	 SHORT $LN2@set_fixed_
$LN3@set_fixed_:
  00018	a1 00 00 00 00	 mov	 eax, DWORD PTR ?__LINE__Var@?0??set_fixed_3d_object_database_item@@YGXHHHHHMW4TARGET_TYPES@@W4TARGET_SYMBOL_TYPES@@@Z@4JA
  0001d	83 c0 08	 add	 eax, 8
  00020	50		 push	 eax
  00021	68 00 00 00 00	 push	 OFFSET ??_C@_0EE@CLONNMAD@c?3?2users?2nhv90?2projects?2eech?2ap@
  00026	68 00 00 00 00	 push	 OFFSET ??_C@_0FD@EADADOAC@?$CIobject_index?5?$DO?5OBJECT_3D_INVAL@
  0002b	e8 00 00 00 00	 call	 ?process_assert@@YGXPBD0H@Z ; process_assert
$LN2@set_fixed_:

; 102  : 
; 103  : 	ASSERT ((explosive_quality >= EXPLOSIVE_QUALITY_NONE) && (explosive_quality <= EXPLOSIVE_QUALITY_FLAMMABLE));

  00030	83 7d 0c 00	 cmp	 DWORD PTR _explosive_quality$[ebp], 0
  00034	7c 06		 jl	 SHORT $LN5@set_fixed_
  00036	83 7d 0c 04	 cmp	 DWORD PTR _explosive_quality$[ebp], 4
  0003a	7e 18		 jle	 SHORT $LN4@set_fixed_
$LN5@set_fixed_:
  0003c	a1 00 00 00 00	 mov	 eax, DWORD PTR ?__LINE__Var@?0??set_fixed_3d_object_database_item@@YGXHHHHHMW4TARGET_TYPES@@W4TARGET_SYMBOL_TYPES@@@Z@4JA
  00041	83 c0 0a	 add	 eax, 10			; 0000000aH
  00044	50		 push	 eax
  00045	68 00 00 00 00	 push	 OFFSET ??_C@_0EE@CLONNMAD@c?3?2users?2nhv90?2projects?2eech?2ap@
  0004a	68 00 00 00 00	 push	 OFFSET ??_C@_0GE@GABKNGKL@?$CIexplosive_quality?5?$DO?$DN?5EXPLOSIVE@
  0004f	e8 00 00 00 00	 call	 ?process_assert@@YGXPBD0H@Z ; process_assert
$LN4@set_fixed_:

; 104  : 
; 105  : 	ASSERT ((explosive_power >= EXPLOSIVE_POWER_NONE) && (explosive_power <= EXPLOSIVE_POWER_HIGH));

  00054	83 7d 10 00	 cmp	 DWORD PTR _explosive_power$[ebp], 0
  00058	7c 06		 jl	 SHORT $LN7@set_fixed_
  0005a	83 7d 10 03	 cmp	 DWORD PTR _explosive_power$[ebp], 3
  0005e	7e 18		 jle	 SHORT $LN6@set_fixed_
$LN7@set_fixed_:
  00060	a1 00 00 00 00	 mov	 eax, DWORD PTR ?__LINE__Var@?0??set_fixed_3d_object_database_item@@YGXHHHHHMW4TARGET_TYPES@@W4TARGET_SYMBOL_TYPES@@@Z@4JA
  00065	83 c0 0c	 add	 eax, 12			; 0000000cH
  00068	50		 push	 eax
  00069	68 00 00 00 00	 push	 OFFSET ??_C@_0EE@CLONNMAD@c?3?2users?2nhv90?2projects?2eech?2ap@
  0006e	68 00 00 00 00	 push	 OFFSET ??_C@_0FH@MICOEKLJ@?$CIexplosive_power?5?$DO?$DN?5EXPLOSIVE_P@
  00073	e8 00 00 00 00	 call	 ?process_assert@@YGXPBD0H@Z ; process_assert
$LN6@set_fixed_:

; 106  : 
; 107  : 	ASSERT ((hardness == WARHEAD_EFFECTIVE_LIGHT_BUILDING) || (hardness == WARHEAD_EFFECTIVE_STONE_BUILDING) || (hardness == WARHEAD_EFFECTIVE_HARDENED_BUILDING));

  00078	81 7d 14 80 00
	00 00		 cmp	 DWORD PTR _hardness$[ebp], 128 ; 00000080H
  0007f	74 2a		 je	 SHORT $LN8@set_fixed_
  00081	81 7d 14 00 01
	00 00		 cmp	 DWORD PTR _hardness$[ebp], 256 ; 00000100H
  00088	74 21		 je	 SHORT $LN8@set_fixed_
  0008a	81 7d 14 00 20
	00 00		 cmp	 DWORD PTR _hardness$[ebp], 8192 ; 00002000H
  00091	74 18		 je	 SHORT $LN8@set_fixed_
  00093	a1 00 00 00 00	 mov	 eax, DWORD PTR ?__LINE__Var@?0??set_fixed_3d_object_database_item@@YGXHHHHHMW4TARGET_TYPES@@W4TARGET_SYMBOL_TYPES@@@Z@4JA
  00098	83 c0 0e	 add	 eax, 14			; 0000000eH
  0009b	50		 push	 eax
  0009c	68 00 00 00 00	 push	 OFFSET ??_C@_0EE@CLONNMAD@c?3?2users?2nhv90?2projects?2eech?2ap@
  000a1	68 00 00 00 00	 push	 OFFSET ??_C@_0JG@CFMAPFKC@?$CIhardness?5?$DN?$DN?5WARHEAD_EFFECTIVE_@
  000a6	e8 00 00 00 00	 call	 ?process_assert@@YGXPBD0H@Z ; process_assert
$LN8@set_fixed_:

; 108  : 
; 109  : 	ASSERT ((importance == IMPORTANCE_NONE) || 

  000ab	f3 0f 5a 45 1c	 cvtss2sd xmm0, DWORD PTR _importance$[ebp]
  000b0	66 0f 2e 05 00
	00 00 00	 ucomisd xmm0, QWORD PTR __real@0000000000000000
  000b8	9f		 lahf
  000b9	f6 c4 44	 test	 ah, 68			; 00000044H
  000bc	7b 51		 jnp	 SHORT $LN9@set_fixed_
  000be	f3 0f 5a 45 1c	 cvtss2sd xmm0, DWORD PTR _importance$[ebp]
  000c3	66 0f 2e 05 00
	00 00 00	 ucomisd xmm0, QWORD PTR __real@3fd0000000000000
  000cb	9f		 lahf
  000cc	f6 c4 44	 test	 ah, 68			; 00000044H
  000cf	7b 3e		 jnp	 SHORT $LN9@set_fixed_
  000d1	f3 0f 5a 45 1c	 cvtss2sd xmm0, DWORD PTR _importance$[ebp]
  000d6	66 0f 2e 05 00
	00 00 00	 ucomisd xmm0, QWORD PTR __real@3fe0000000000000
  000de	9f		 lahf
  000df	f6 c4 44	 test	 ah, 68			; 00000044H
  000e2	7b 2b		 jnp	 SHORT $LN9@set_fixed_
  000e4	f3 0f 5a 45 1c	 cvtss2sd xmm0, DWORD PTR _importance$[ebp]
  000e9	66 0f 2e 05 00
	00 00 00	 ucomisd xmm0, QWORD PTR __real@3ff0000000000000
  000f1	9f		 lahf
  000f2	f6 c4 44	 test	 ah, 68			; 00000044H
  000f5	7b 18		 jnp	 SHORT $LN9@set_fixed_
  000f7	a1 00 00 00 00	 mov	 eax, DWORD PTR ?__LINE__Var@?0??set_fixed_3d_object_database_item@@YGXHHHHHMW4TARGET_TYPES@@W4TARGET_SYMBOL_TYPES@@@Z@4JA
  000fc	83 c0 13	 add	 eax, 19			; 00000013H
  000ff	50		 push	 eax
  00100	68 00 00 00 00	 push	 OFFSET ??_C@_0EE@CLONNMAD@c?3?2users?2nhv90?2projects?2eech?2ap@
  00105	68 00 00 00 00	 push	 OFFSET ??_C@_0IH@ENELLFDJ@?$CIimportance?5?$DN?$DN?5IMPORTANCE_NONE?$CJ@
  0010a	e8 00 00 00 00	 call	 ?process_assert@@YGXPBD0H@Z ; process_assert
$LN9@set_fixed_:

; 110  : 				(importance == IMPORTANCE_LOW) || 
; 111  : 				(importance == IMPORTANCE_MED) || 
; 112  : 				(importance == IMPORTANCE_HIGH));
; 113  : 
; 114  : 	ASSERT (initial_damage < (1 << 12));

  0010f	81 7d 18 00 10
	00 00		 cmp	 DWORD PTR _initial_damage$[ebp], 4096 ; 00001000H
  00116	7c 18		 jl	 SHORT $LN10@set_fixed_
  00118	a1 00 00 00 00	 mov	 eax, DWORD PTR ?__LINE__Var@?0??set_fixed_3d_object_database_item@@YGXHHHHHMW4TARGET_TYPES@@W4TARGET_SYMBOL_TYPES@@@Z@4JA
  0011d	83 c0 15	 add	 eax, 21			; 00000015H
  00120	50		 push	 eax
  00121	68 00 00 00 00	 push	 OFFSET ??_C@_0EE@CLONNMAD@c?3?2users?2nhv90?2projects?2eech?2ap@
  00126	68 00 00 00 00	 push	 OFFSET ??_C@_0BL@ONPPAIEH@initial_damage?5?$DM?5?$CI1?5?$DM?$DM?512?$CJ@
  0012b	e8 00 00 00 00	 call	 ?process_assert@@YGXPBD0H@Z ; process_assert
$LN10@set_fixed_:

; 115  : 
; 116  : 	ASSERT ((target_type == TARGET_TYPE_INVALID) || (target_type == TARGET_TYPE_GROUND));

  00130	83 7d 20 00	 cmp	 DWORD PTR _target_type$[ebp], 0
  00134	74 1e		 je	 SHORT $LN11@set_fixed_
  00136	83 7d 20 01	 cmp	 DWORD PTR _target_type$[ebp], 1
  0013a	74 18		 je	 SHORT $LN11@set_fixed_
  0013c	a1 00 00 00 00	 mov	 eax, DWORD PTR ?__LINE__Var@?0??set_fixed_3d_object_database_item@@YGXHHHHHMW4TARGET_TYPES@@W4TARGET_SYMBOL_TYPES@@@Z@4JA
  00141	83 c0 17	 add	 eax, 23			; 00000017H
  00144	50		 push	 eax
  00145	68 00 00 00 00	 push	 OFFSET ??_C@_0EE@CLONNMAD@c?3?2users?2nhv90?2projects?2eech?2ap@
  0014a	68 00 00 00 00	 push	 OFFSET ??_C@_0EM@BOHPNMPB@?$CItarget_type?5?$DN?$DN?5TARGET_TYPE_INV@
  0014f	e8 00 00 00 00	 call	 ?process_assert@@YGXPBD0H@Z ; process_assert
$LN11@set_fixed_:

; 117  : 
; 118  : 	ASSERT (target_symbol < NUM_TARGET_SYMBOL_TYPES);

  00154	83 7d 24 08	 cmp	 DWORD PTR _target_symbol$[ebp], 8
  00158	7c 18		 jl	 SHORT $LN12@set_fixed_
  0015a	a1 00 00 00 00	 mov	 eax, DWORD PTR ?__LINE__Var@?0??set_fixed_3d_object_database_item@@YGXHHHHHMW4TARGET_TYPES@@W4TARGET_SYMBOL_TYPES@@@Z@4JA
  0015f	83 c0 19	 add	 eax, 25			; 00000019H
  00162	50		 push	 eax
  00163	68 00 00 00 00	 push	 OFFSET ??_C@_0EE@CLONNMAD@c?3?2users?2nhv90?2projects?2eech?2ap@
  00168	68 00 00 00 00	 push	 OFFSET ??_C@_0CI@PHICKBKK@target_symbol?5?$DM?5NUM_TARGET_SYMB@
  0016d	e8 00 00 00 00	 call	 ?process_assert@@YGXPBD0H@Z ; process_assert
$LN12@set_fixed_:

; 119  : 
; 120  : 	if (target_type == TARGET_TYPE_INVALID)

  00172	83 7d 20 00	 cmp	 DWORD PTR _target_type$[ebp], 0
  00176	75 2b		 jne	 SHORT $LN14@set_fixed_

; 121  : 	{
; 122  : 		ASSERT (importance == IMPORTANCE_NONE);

  00178	f3 0f 5a 45 1c	 cvtss2sd xmm0, DWORD PTR _importance$[ebp]
  0017d	66 0f 2e 05 00
	00 00 00	 ucomisd xmm0, QWORD PTR __real@0000000000000000
  00185	9f		 lahf
  00186	f6 c4 44	 test	 ah, 68			; 00000044H
  00189	7b 18		 jnp	 SHORT $LN14@set_fixed_
  0018b	a1 00 00 00 00	 mov	 eax, DWORD PTR ?__LINE__Var@?0??set_fixed_3d_object_database_item@@YGXHHHHHMW4TARGET_TYPES@@W4TARGET_SYMBOL_TYPES@@@Z@4JA
  00190	83 c0 1d	 add	 eax, 29			; 0000001dH
  00193	50		 push	 eax
  00194	68 00 00 00 00	 push	 OFFSET ??_C@_0EE@CLONNMAD@c?3?2users?2nhv90?2projects?2eech?2ap@
  00199	68 00 00 00 00	 push	 OFFSET ??_C@_0BO@CCEONLGH@importance?5?$DN?$DN?5IMPORTANCE_NONE@
  0019e	e8 00 00 00 00	 call	 ?process_assert@@YGXPBD0H@Z ; process_assert
$LN14@set_fixed_:

; 123  : 	}
; 124  : 
; 125  : 	#if DEBUG_MODULE
; 126  : 	
; 127  : 	if (fixed_3d_object_database [object_index].valid_entry)

  001a3	8b 45 08	 mov	 eax, DWORD PTR _object_index$[ebp]
  001a6	8b 0c c5 04 00
	00 00		 mov	 ecx, DWORD PTR ?fixed_3d_object_database@@3PAUFIXED_3D_OBJECT_DATA@@A[eax*8+4]
  001ad	c1 e9 18	 shr	 ecx, 24			; 00000018H
  001b0	83 e1 01	 and	 ecx, 1
  001b3	74 1a		 je	 SHORT $LN15@set_fixed_

; 128  : 	{
; 129  : 		debug_filtered_log ("FX_OBJDB: WARNING Object %s already defined", object_3d_information_database [object_index].name);

  001b5	8b 45 08	 mov	 eax, DWORD PTR _object_index$[ebp]
  001b8	8b 0d 00 00 00
	00		 mov	 ecx, DWORD PTR ?object_3d_information_database@@3PAUOBJECT_3D_INFORMATION@@A ; object_3d_information_database
  001be	8b 14 c1	 mov	 edx, DWORD PTR [ecx+eax*8]
  001c1	52		 push	 edx
  001c2	68 00 00 00 00	 push	 OFFSET ??_C@_0CM@MJAPEJB@FX_OBJDB?3?5WARNING?5Object?5?$CFs?5alr@
  001c7	e8 00 00 00 00	 call	 ?debug_filtered_log@@YAXPBDZZ ; debug_filtered_log
  001cc	83 c4 08	 add	 esp, 8
$LN15@set_fixed_:

; 130  : 	}
; 131  : 
; 132  : 	#endif
; 133  : 
; 134  : 	//
; 135  : 	// set values
; 136  : 	//
; 137  : 
; 138  : 	fixed_3d_object_database [object_index].explosive_quality = explosive_quality;

  001cf	8b 45 0c	 mov	 eax, DWORD PTR _explosive_quality$[ebp]
  001d2	83 e0 07	 and	 eax, 7
  001d5	8b 4d 08	 mov	 ecx, DWORD PTR _object_index$[ebp]
  001d8	8b 14 cd 04 00
	00 00		 mov	 edx, DWORD PTR ?fixed_3d_object_database@@3PAUFIXED_3D_OBJECT_DATA@@A[ecx*8+4]
  001df	83 e2 f8	 and	 edx, -8			; fffffff8H
  001e2	0b d0		 or	 edx, eax
  001e4	8b 45 08	 mov	 eax, DWORD PTR _object_index$[ebp]
  001e7	89 14 c5 04 00
	00 00		 mov	 DWORD PTR ?fixed_3d_object_database@@3PAUFIXED_3D_OBJECT_DATA@@A[eax*8+4], edx

; 139  : 
; 140  : 	fixed_3d_object_database [object_index].explosive_power = explosive_power;

  001ee	8b 45 10	 mov	 eax, DWORD PTR _explosive_power$[ebp]
  001f1	83 e0 03	 and	 eax, 3
  001f4	c1 e0 03	 shl	 eax, 3
  001f7	8b 4d 08	 mov	 ecx, DWORD PTR _object_index$[ebp]
  001fa	8b 14 cd 04 00
	00 00		 mov	 edx, DWORD PTR ?fixed_3d_object_database@@3PAUFIXED_3D_OBJECT_DATA@@A[ecx*8+4]
  00201	83 e2 e7	 and	 edx, -25		; ffffffe7H
  00204	0b d0		 or	 edx, eax
  00206	8b 45 08	 mov	 eax, DWORD PTR _object_index$[ebp]
  00209	89 14 c5 04 00
	00 00		 mov	 DWORD PTR ?fixed_3d_object_database@@3PAUFIXED_3D_OBJECT_DATA@@A[eax*8+4], edx

; 141  : 
; 142  : 	if (hardness == WARHEAD_EFFECTIVE_LIGHT_BUILDING)

  00210	81 7d 14 80 00
	00 00		 cmp	 DWORD PTR _hardness$[ebp], 128 ; 00000080H
  00217	75 19		 jne	 SHORT $LN16@set_fixed_

; 143  : 	{
; 144  : 		fixed_3d_object_database [object_index].hardness = 0;

  00219	8b 45 08	 mov	 eax, DWORD PTR _object_index$[ebp]
  0021c	8b 0c c5 04 00
	00 00		 mov	 ecx, DWORD PTR ?fixed_3d_object_database@@3PAUFIXED_3D_OBJECT_DATA@@A[eax*8+4]
  00223	83 e1 9f	 and	 ecx, -97		; ffffff9fH
  00226	8b 55 08	 mov	 edx, DWORD PTR _object_index$[ebp]
  00229	89 0c d5 04 00
	00 00		 mov	 DWORD PTR ?fixed_3d_object_database@@3PAUFIXED_3D_OBJECT_DATA@@A[edx*8+4], ecx
  00230	eb 48		 jmp	 SHORT $LN20@set_fixed_
$LN16@set_fixed_:

; 145  : 	}
; 146  : 	else if (hardness == WARHEAD_EFFECTIVE_STONE_BUILDING)

  00232	81 7d 14 00 01
	00 00		 cmp	 DWORD PTR _hardness$[ebp], 256 ; 00000100H
  00239	75 1c		 jne	 SHORT $LN18@set_fixed_

; 147  : 	{
; 148  : 		fixed_3d_object_database [object_index].hardness = 1;

  0023b	8b 45 08	 mov	 eax, DWORD PTR _object_index$[ebp]
  0023e	8b 0c c5 04 00
	00 00		 mov	 ecx, DWORD PTR ?fixed_3d_object_database@@3PAUFIXED_3D_OBJECT_DATA@@A[eax*8+4]
  00245	83 e1 9f	 and	 ecx, -97		; ffffff9fH
  00248	83 c9 20	 or	 ecx, 32			; 00000020H
  0024b	8b 55 08	 mov	 edx, DWORD PTR _object_index$[ebp]
  0024e	89 0c d5 04 00
	00 00		 mov	 DWORD PTR ?fixed_3d_object_database@@3PAUFIXED_3D_OBJECT_DATA@@A[edx*8+4], ecx
  00255	eb 23		 jmp	 SHORT $LN20@set_fixed_
$LN18@set_fixed_:

; 149  : 	}
; 150  : 	else if (hardness == WARHEAD_EFFECTIVE_HARDENED_BUILDING)

  00257	81 7d 14 00 20
	00 00		 cmp	 DWORD PTR _hardness$[ebp], 8192 ; 00002000H
  0025e	75 1a		 jne	 SHORT $LN20@set_fixed_

; 151  : 	{
; 152  : 		fixed_3d_object_database [object_index].hardness = 2;

  00260	8b 45 08	 mov	 eax, DWORD PTR _object_index$[ebp]
  00263	8b 0c c5 04 00
	00 00		 mov	 ecx, DWORD PTR ?fixed_3d_object_database@@3PAUFIXED_3D_OBJECT_DATA@@A[eax*8+4]
  0026a	83 e1 9f	 and	 ecx, -97		; ffffff9fH
  0026d	83 c9 40	 or	 ecx, 64			; 00000040H
  00270	8b 55 08	 mov	 edx, DWORD PTR _object_index$[ebp]
  00273	89 0c d5 04 00
	00 00		 mov	 DWORD PTR ?fixed_3d_object_database@@3PAUFIXED_3D_OBJECT_DATA@@A[edx*8+4], ecx
$LN20@set_fixed_:

; 153  : 	}
; 154  : 
; 155  : 	fixed_3d_object_database [object_index].initial_damage = initial_damage;

  0027a	8b 45 18	 mov	 eax, DWORD PTR _initial_damage$[ebp]
  0027d	25 ff 0f 00 00	 and	 eax, 4095		; 00000fffH
  00282	c1 e0 0c	 shl	 eax, 12			; 0000000cH
  00285	8b 4d 08	 mov	 ecx, DWORD PTR _object_index$[ebp]
  00288	8b 14 cd 04 00
	00 00		 mov	 edx, DWORD PTR ?fixed_3d_object_database@@3PAUFIXED_3D_OBJECT_DATA@@A[ecx*8+4]
  0028f	81 e2 ff 0f 00
	ff		 and	 edx, -16773121		; ff000fffH
  00295	0b d0		 or	 edx, eax
  00297	8b 45 08	 mov	 eax, DWORD PTR _object_index$[ebp]
  0029a	89 14 c5 04 00
	00 00		 mov	 DWORD PTR ?fixed_3d_object_database@@3PAUFIXED_3D_OBJECT_DATA@@A[eax*8+4], edx

; 156  : 
; 157  : 	fixed_3d_object_database [object_index].importance = importance;

  002a1	8b 45 08	 mov	 eax, DWORD PTR _object_index$[ebp]
  002a4	f3 0f 10 45 1c	 movss	 xmm0, DWORD PTR _importance$[ebp]
  002a9	f3 0f 11 04 c5
	00 00 00 00	 movss	 DWORD PTR ?fixed_3d_object_database@@3PAUFIXED_3D_OBJECT_DATA@@A[eax*8], xmm0

; 158  : 
; 159  : 	fixed_3d_object_database [object_index].target_type = target_type;

  002b2	8b 45 20	 mov	 eax, DWORD PTR _target_type$[ebp]
  002b5	83 e0 01	 and	 eax, 1
  002b8	c1 e0 07	 shl	 eax, 7
  002bb	8b 4d 08	 mov	 ecx, DWORD PTR _object_index$[ebp]
  002be	8b 14 cd 04 00
	00 00		 mov	 edx, DWORD PTR ?fixed_3d_object_database@@3PAUFIXED_3D_OBJECT_DATA@@A[ecx*8+4]
  002c5	81 e2 7f ff ff
	ff		 and	 edx, -129		; ffffff7fH
  002cb	0b d0		 or	 edx, eax
  002cd	8b 45 08	 mov	 eax, DWORD PTR _object_index$[ebp]
  002d0	89 14 c5 04 00
	00 00		 mov	 DWORD PTR ?fixed_3d_object_database@@3PAUFIXED_3D_OBJECT_DATA@@A[eax*8+4], edx

; 160  : 
; 161  : 	fixed_3d_object_database [object_index].target_symbol = target_symbol;

  002d7	8b 45 24	 mov	 eax, DWORD PTR _target_symbol$[ebp]
  002da	83 e0 0f	 and	 eax, 15			; 0000000fH
  002dd	c1 e0 08	 shl	 eax, 8
  002e0	8b 4d 08	 mov	 ecx, DWORD PTR _object_index$[ebp]
  002e3	8b 14 cd 04 00
	00 00		 mov	 edx, DWORD PTR ?fixed_3d_object_database@@3PAUFIXED_3D_OBJECT_DATA@@A[ecx*8+4]
  002ea	81 e2 ff f0 ff
	ff		 and	 edx, -3841		; fffff0ffH
  002f0	0b d0		 or	 edx, eax
  002f2	8b 45 08	 mov	 eax, DWORD PTR _object_index$[ebp]
  002f5	89 14 c5 04 00
	00 00		 mov	 DWORD PTR ?fixed_3d_object_database@@3PAUFIXED_3D_OBJECT_DATA@@A[eax*8+4], edx

; 162  : 
; 163  : 	fixed_3d_object_database [object_index].valid_entry = TRUE;

  002fc	8b 45 08	 mov	 eax, DWORD PTR _object_index$[ebp]
  002ff	8b 0c c5 04 00
	00 00		 mov	 ecx, DWORD PTR ?fixed_3d_object_database@@3PAUFIXED_3D_OBJECT_DATA@@A[eax*8+4]
  00306	81 c9 00 00 00
	01		 or	 ecx, 16777216		; 01000000H
  0030c	8b 55 08	 mov	 edx, DWORD PTR _object_index$[ebp]
  0030f	89 0c d5 04 00
	00 00		 mov	 DWORD PTR ?fixed_3d_object_database@@3PAUFIXED_3D_OBJECT_DATA@@A[edx*8+4], ecx

; 164  : 
; 165  : 	//
; 166  : 	// copy values for destroyed versions of objects
; 167  : 	//
; 168  : 
; 169  : 	destroyed_object_index = get_3d_object_destroyed_object_index (object_index);

  00316	8b 45 08	 mov	 eax, DWORD PTR _object_index$[ebp]
  00319	50		 push	 eax
  0031a	e8 00 00 00 00	 call	 ?get_3d_object_destroyed_object_index@@YGHH@Z ; get_3d_object_destroyed_object_index
  0031f	89 45 fc	 mov	 DWORD PTR _destroyed_object_index$[ebp], eax

; 170  : 
; 171  : 	fixed_3d_object_database [destroyed_object_index].target_type = target_type;

  00322	8b 45 20	 mov	 eax, DWORD PTR _target_type$[ebp]
  00325	83 e0 01	 and	 eax, 1
  00328	c1 e0 07	 shl	 eax, 7
  0032b	8b 4d fc	 mov	 ecx, DWORD PTR _destroyed_object_index$[ebp]
  0032e	8b 14 cd 04 00
	00 00		 mov	 edx, DWORD PTR ?fixed_3d_object_database@@3PAUFIXED_3D_OBJECT_DATA@@A[ecx*8+4]
  00335	81 e2 7f ff ff
	ff		 and	 edx, -129		; ffffff7fH
  0033b	0b d0		 or	 edx, eax
  0033d	8b 45 fc	 mov	 eax, DWORD PTR _destroyed_object_index$[ebp]
  00340	89 14 c5 04 00
	00 00		 mov	 DWORD PTR ?fixed_3d_object_database@@3PAUFIXED_3D_OBJECT_DATA@@A[eax*8+4], edx

; 172  : 
; 173  : 	fixed_3d_object_database [destroyed_object_index].target_symbol = target_symbol;

  00347	8b 45 24	 mov	 eax, DWORD PTR _target_symbol$[ebp]
  0034a	83 e0 0f	 and	 eax, 15			; 0000000fH
  0034d	c1 e0 08	 shl	 eax, 8
  00350	8b 4d fc	 mov	 ecx, DWORD PTR _destroyed_object_index$[ebp]
  00353	8b 14 cd 04 00
	00 00		 mov	 edx, DWORD PTR ?fixed_3d_object_database@@3PAUFIXED_3D_OBJECT_DATA@@A[ecx*8+4]
  0035a	81 e2 ff f0 ff
	ff		 and	 edx, -3841		; fffff0ffH
  00360	0b d0		 or	 edx, eax
  00362	8b 45 fc	 mov	 eax, DWORD PTR _destroyed_object_index$[ebp]
  00365	89 14 c5 04 00
	00 00		 mov	 DWORD PTR ?fixed_3d_object_database@@3PAUFIXED_3D_OBJECT_DATA@@A[eax*8+4], edx

; 174  : 
; 175  : 	fixed_3d_object_database [destroyed_object_index].valid_entry = TRUE;

  0036c	8b 45 fc	 mov	 eax, DWORD PTR _destroyed_object_index$[ebp]
  0036f	8b 0c c5 04 00
	00 00		 mov	 ecx, DWORD PTR ?fixed_3d_object_database@@3PAUFIXED_3D_OBJECT_DATA@@A[eax*8+4]
  00376	81 c9 00 00 00
	01		 or	 ecx, 16777216		; 01000000H
  0037c	8b 55 fc	 mov	 edx, DWORD PTR _destroyed_object_index$[ebp]
  0037f	89 0c d5 04 00
	00 00		 mov	 DWORD PTR ?fixed_3d_object_database@@3PAUFIXED_3D_OBJECT_DATA@@A[edx*8+4], ecx

; 176  : }

  00386	5f		 pop	 edi
  00387	5e		 pop	 esi
  00388	5b		 pop	 ebx
  00389	8b e5		 mov	 esp, ebp
  0038b	5d		 pop	 ebp
  0038c	c2 20 00	 ret	 32			; 00000020H
?set_fixed_3d_object_database_item@@YGXHHHHHMW4TARGET_TYPES@@W4TARGET_SYMBOL_TYPES@@@Z ENDP ; set_fixed_3d_object_database_item
_TEXT	ENDS
; Function compile flags: /Odtp /ZI
; File c:\users\nhv90\projects\eech\aphavoc\source\entity\fixed\fx_objdb.c
;	COMDAT ?report_non_entries_in_fixed_3d_object_database@@YGXXZ
_TEXT	SEGMENT
_s$ = -8						; size = 4
_loop$ = -4						; size = 4
?report_non_entries_in_fixed_3d_object_database@@YGXXZ PROC ; report_non_entries_in_fixed_3d_object_database, COMDAT

; 183  : {

  00000	55		 push	 ebp
  00001	8b ec		 mov	 ebp, esp
  00003	83 ec 48	 sub	 esp, 72			; 00000048H
  00006	53		 push	 ebx
  00007	56		 push	 esi
  00008	57		 push	 edi

; 184  : 	#if DEBUG_MODULE
; 185  : 
; 186  : 	int
; 187  : 		loop;
; 188  : 
; 189  : 	const char
; 190  : 		*s;
; 191  : 
; 192  : 	for (loop = OBJECT_3D_INVALID_OBJECT_INDEX + 1; loop < OBJECT_3D_LAST; loop ++)

  00009	c7 45 fc 01 00
	00 00		 mov	 DWORD PTR _loop$[ebp], 1
  00010	eb 09		 jmp	 SHORT $LN4@report_non
$LN2@report_non:
  00012	8b 45 fc	 mov	 eax, DWORD PTR _loop$[ebp]
  00015	83 c0 01	 add	 eax, 1
  00018	89 45 fc	 mov	 DWORD PTR _loop$[ebp], eax
$LN4@report_non:
  0001b	81 7d fc e4 0a
	00 00		 cmp	 DWORD PTR _loop$[ebp], 2788 ; 00000ae4H
  00022	7d 75		 jge	 SHORT $LN1@report_non

; 193  : 	{
; 194  : 		if (!fixed_3d_object_database [loop].valid_entry)

  00024	8b 45 fc	 mov	 eax, DWORD PTR _loop$[ebp]
  00027	8b 0c c5 04 00
	00 00		 mov	 ecx, DWORD PTR ?fixed_3d_object_database@@3PAUFIXED_3D_OBJECT_DATA@@A[eax*8+4]
  0002e	c1 e9 18	 shr	 ecx, 24			; 00000018H
  00031	83 e1 01	 and	 ecx, 1
  00034	75 5e		 jne	 SHORT $LN5@report_non

; 195  : 		{
; 196  : 			if (fixed_3d_object_database [loop].keysite_object)

  00036	8b 45 fc	 mov	 eax, DWORD PTR _loop$[ebp]
  00039	8b 0c c5 04 00
	00 00		 mov	 ecx, DWORD PTR ?fixed_3d_object_database@@3PAUFIXED_3D_OBJECT_DATA@@A[eax*8+4]
  00040	c1 e9 19	 shr	 ecx, 25			; 00000019H
  00043	83 e1 01	 and	 ecx, 1
  00046	74 4c		 je	 SHORT $LN5@report_non

; 197  : 			{
; 198  : 				s = object_3d_information_database [loop].name;

  00048	8b 45 fc	 mov	 eax, DWORD PTR _loop$[ebp]
  0004b	8b 0d 00 00 00
	00		 mov	 ecx, DWORD PTR ?object_3d_information_database@@3PAUOBJECT_3D_INFORMATION@@A ; object_3d_information_database
  00051	8b 14 c1	 mov	 edx, DWORD PTR [ecx+eax*8]
  00054	89 55 f8	 mov	 DWORD PTR _s$[ebp], edx

; 199  : 	
; 200  : 				if ((strstr (s, "DESTROYED")) || (strstr (s, "BRIDGE")))

  00057	68 00 00 00 00	 push	 OFFSET ??_C@_09NMLGKMPM@DESTROYED@
  0005c	8b 45 f8	 mov	 eax, DWORD PTR _s$[ebp]
  0005f	50		 push	 eax
  00060	e8 00 00 00 00	 call	 _strstr
  00065	83 c4 08	 add	 esp, 8
  00068	85 c0		 test	 eax, eax
  0006a	75 15		 jne	 SHORT $LN8@report_non
  0006c	68 00 00 00 00	 push	 OFFSET ??_C@_06EJAPDIHK@BRIDGE@
  00071	8b 45 f8	 mov	 eax, DWORD PTR _s$[ebp]
  00074	50		 push	 eax
  00075	e8 00 00 00 00	 call	 _strstr
  0007a	83 c4 08	 add	 esp, 8
  0007d	85 c0		 test	 eax, eax
  0007f	74 02		 je	 SHORT $LN7@report_non
$LN8@report_non:

; 201  : 				{
; 202  : 					continue;

  00081	eb 8f		 jmp	 SHORT $LN2@report_non
$LN7@report_non:

; 203  : 				}
; 204  : 	
; 205  : 				debug_filtered_log ("FX_OBJDB : No Entry for %s", s);

  00083	8b 45 f8	 mov	 eax, DWORD PTR _s$[ebp]
  00086	50		 push	 eax
  00087	68 00 00 00 00	 push	 OFFSET ??_C@_0BL@GELAOCCA@FX_OBJDB?5?3?5No?5Entry?5for?5?$CFs@
  0008c	e8 00 00 00 00	 call	 ?debug_filtered_log@@YAXPBDZZ ; debug_filtered_log
  00091	83 c4 08	 add	 esp, 8
$LN5@report_non:

; 206  : 			}
; 207  : 		}
; 208  : 	}

  00094	e9 79 ff ff ff	 jmp	 $LN2@report_non
$LN1@report_non:

; 209  : 
; 210  : 	#endif
; 211  : }

  00099	5f		 pop	 edi
  0009a	5e		 pop	 esi
  0009b	5b		 pop	 ebx
  0009c	8b e5		 mov	 esp, ebp
  0009e	5d		 pop	 ebp
  0009f	c3		 ret	 0
?report_non_entries_in_fixed_3d_object_database@@YGXXZ ENDP ; report_non_entries_in_fixed_3d_object_database
_TEXT	ENDS
; Function compile flags: /Odtp /ZI
; File c:\users\nhv90\projects\eech\aphavoc\source\entity\fixed\fx_objdb.c
;	COMDAT ?initialise_fixed_3d_object_database@@YGXXZ
_TEXT	SEGMENT
?initialise_fixed_3d_object_database@@YGXXZ PROC	; initialise_fixed_3d_object_database, COMDAT

; 1547 : {

  00000	55		 push	 ebp
  00001	8b ec		 mov	 ebp, esp
  00003	83 ec 40	 sub	 esp, 64			; 00000040H
  00006	53		 push	 ebx
  00007	56		 push	 esi
  00008	57		 push	 edi

; 1548 : 	memset (fixed_3d_object_database, 0, sizeof (fixed_3d_object_data) * OBJECT_3D_LAST);

  00009	68 20 57 00 00	 push	 22304			; 00005720H
  0000e	6a 00		 push	 0
  00010	68 00 00 00 00	 push	 OFFSET ?fixed_3d_object_database@@3PAUFIXED_3D_OBJECT_DATA@@A ; fixed_3d_object_database
  00015	e8 00 00 00 00	 call	 _memset
  0001a	83 c4 0c	 add	 esp, 12			; 0000000cH

; 1549 : 
; 1550 : 	////////////////////////////////////////////////////////////////////////////////////
; 1551 : 
; 1552 : 	initialise_high_importance_large_stone_buildings ();

  0001d	e8 00 00 00 00	 call	 ?initialise_high_importance_large_stone_buildings@@YGXXZ ; initialise_high_importance_large_stone_buildings

; 1553 : 
; 1554 : 	initialise_high_importance_medium_stone_buildings ();

  00022	e8 00 00 00 00	 call	 ?initialise_high_importance_medium_stone_buildings@@YGXXZ ; initialise_high_importance_medium_stone_buildings

; 1555 : 
; 1556 : 	initialise_high_importance_small_stone_buildings ();

  00027	e8 00 00 00 00	 call	 ?initialise_high_importance_small_stone_buildings@@YGXXZ ; initialise_high_importance_small_stone_buildings

; 1557 : 
; 1558 : 	initialise_high_importance_medium_armoured_buildings ();

  0002c	e8 00 00 00 00	 call	 ?initialise_high_importance_medium_armoured_buildings@@YGXXZ ; initialise_high_importance_medium_armoured_buildings

; 1559 : 
; 1560 : 	initialise_high_importance_high_explosive_buildings ();

  00031	e8 00 00 00 00	 call	 ?initialise_high_importance_high_explosive_buildings@@YGXXZ ; initialise_high_importance_high_explosive_buildings

; 1561 : 
; 1562 : 	////////////////////////////////////////////////////////////////////////////////////
; 1563 : 
; 1564 : 	initialise_medium_importance_medium_stone_buildings ();

  00036	e8 00 00 00 00	 call	 ?initialise_medium_importance_medium_stone_buildings@@YGXXZ ; initialise_medium_importance_medium_stone_buildings

; 1565 : 
; 1566 : 	initialise_medium_importance_high_explosive_buildings ();

  0003b	e8 00 00 00 00	 call	 ?initialise_medium_importance_high_explosive_buildings@@YGXXZ ; initialise_medium_importance_high_explosive_buildings

; 1567 : 
; 1568 : 	initialise_medium_importance_armoured_buildings ();

  00040	e8 00 00 00 00	 call	 ?initialise_medium_importance_armoured_buildings@@YGXXZ ; initialise_medium_importance_armoured_buildings

; 1569 : 
; 1570 : 	////////////////////////////////////////////////////////////////////////////////////
; 1571 : 
; 1572 : 	initialise_low_importance_medium_stone_buildings ();

  00045	e8 00 00 00 00	 call	 ?initialise_low_importance_medium_stone_buildings@@YGXXZ ; initialise_low_importance_medium_stone_buildings

; 1573 : 
; 1574 : 	initialise_low_importance_small_stone_buildings ();

  0004a	e8 00 00 00 00	 call	 ?initialise_low_importance_small_stone_buildings@@YGXXZ ; initialise_low_importance_small_stone_buildings

; 1575 : 
; 1576 : 	initialise_low_importance_high_explosive_buildings ();

  0004f	e8 00 00 00 00	 call	 ?initialise_low_importance_high_explosive_buildings@@YGXXZ ; initialise_low_importance_high_explosive_buildings

; 1577 : 
; 1578 : 	initialise_low_importance_medium_explosive_buildings ();

  00054	e8 00 00 00 00	 call	 ?initialise_low_importance_medium_explosive_buildings@@YGXXZ ; initialise_low_importance_medium_explosive_buildings

; 1579 : 
; 1580 : 	initialise_low_importance_small_explosive_buildings ();

  00059	e8 00 00 00 00	 call	 ?initialise_low_importance_small_explosive_buildings@@YGXXZ ; initialise_low_importance_small_explosive_buildings

; 1581 : 
; 1582 : 	initialise_low_importance_small_armourd_buildings ();

  0005e	e8 00 00 00 00	 call	 ?initialise_low_importance_small_armourd_buildings@@YGXXZ ; initialise_low_importance_small_armourd_buildings

; 1583 : 
; 1584 : 	initialise_low_importance_light_buildings ();

  00063	e8 00 00 00 00	 call	 ?initialise_low_importance_light_buildings@@YGXXZ ; initialise_low_importance_light_buildings

; 1585 : 
; 1586 : 	////////////////////////////////////////////////////////////////////////////////////
; 1587 : 
; 1588 : 	initialise_zero_importance_medium_armoured_buildings ();

  00068	e8 00 00 00 00	 call	 ?initialise_zero_importance_medium_armoured_buildings@@YGXXZ ; initialise_zero_importance_medium_armoured_buildings

; 1589 : 
; 1590 : 	initialise_zero_importance_small_armoured_buildings ();

  0006d	e8 00 00 00 00	 call	 ?initialise_zero_importance_small_armoured_buildings@@YGXXZ ; initialise_zero_importance_small_armoured_buildings

; 1591 : 
; 1592 : 	initialise_zero_importance_large_stone_buildings ();

  00072	e8 00 00 00 00	 call	 ?initialise_zero_importance_large_stone_buildings@@YGXXZ ; initialise_zero_importance_large_stone_buildings

; 1593 : 
; 1594 : 	initialise_zero_importance_medium_stone_buildings ();

  00077	e8 00 00 00 00	 call	 ?initialise_zero_importance_medium_stone_buildings@@YGXXZ ; initialise_zero_importance_medium_stone_buildings

; 1595 : 
; 1596 : 	initialise_zero_importance_small_stone_buildings ();

  0007c	e8 00 00 00 00	 call	 ?initialise_zero_importance_small_stone_buildings@@YGXXZ ; initialise_zero_importance_small_stone_buildings

; 1597 : 
; 1598 : 	initialise_zero_importance_high_explosive_buildings ();

  00081	e8 00 00 00 00	 call	 ?initialise_zero_importance_high_explosive_buildings@@YGXXZ ; initialise_zero_importance_high_explosive_buildings

; 1599 : 
; 1600 : 	initialise_zero_importance_medium_explosive_buildings ();

  00086	e8 00 00 00 00	 call	 ?initialise_zero_importance_medium_explosive_buildings@@YGXXZ ; initialise_zero_importance_medium_explosive_buildings

; 1601 : 
; 1602 : 	initialise_zero_importance_small_explosive_buildings ();

  0008b	e8 00 00 00 00	 call	 ?initialise_zero_importance_small_explosive_buildings@@YGXXZ ; initialise_zero_importance_small_explosive_buildings

; 1603 : 
; 1604 : 	initialise_zero_importance_light_buildings ();

  00090	e8 00 00 00 00	 call	 ?initialise_zero_importance_light_buildings@@YGXXZ ; initialise_zero_importance_light_buildings

; 1605 : }

  00095	5f		 pop	 edi
  00096	5e		 pop	 esi
  00097	5b		 pop	 ebx
  00098	8b e5		 mov	 esp, ebp
  0009a	5d		 pop	 ebp
  0009b	c3		 ret	 0
?initialise_fixed_3d_object_database@@YGXXZ ENDP	; initialise_fixed_3d_object_database
_TEXT	ENDS
END
