; Listing generated by Microsoft (R) Optimizing Compiler Version 19.16.27045.0 

	TITLE	C:\Users\nhv90\Projects\eech\aphavoc\source\entity\fixed\fx_str.c
	.686P
	.XMM
	include listing.inc
	.model	flat

INCLUDELIB MSVCRTD
INCLUDELIB OLDNAMES

PUBLIC	??_C@_07NFANNNEC@UNKNOWN@			; `string'
PUBLIC	??_C@_07NEGAAKAH@VEHICLE@			; `string'
PUBLIC	??_C@_0M@MLBGDOOF@AIR?5DEFENCE@			; `string'
PUBLIC	??_C@_08BAPAGPFO@AIRCRAFT@			; `string'
PUBLIC	??_C@_0L@IHFJKDBG@HELICOPTER@			; `string'
PUBLIC	??_C@_04NNDOCGDA@SHIP@				; `string'
PUBLIC	??_C@_09FNLMCHNE@STRUCTURE@			; `string'
;	COMDAT ??_C@_09FNLMCHNE@STRUCTURE@
CONST	SEGMENT
??_C@_09FNLMCHNE@STRUCTURE@ DB 'STRUCTURE', 00H		; `string'
CONST	ENDS
;	COMDAT ??_C@_04NNDOCGDA@SHIP@
CONST	SEGMENT
??_C@_04NNDOCGDA@SHIP@ DB 'SHIP', 00H			; `string'
CONST	ENDS
;	COMDAT ??_C@_0L@IHFJKDBG@HELICOPTER@
CONST	SEGMENT
??_C@_0L@IHFJKDBG@HELICOPTER@ DB 'HELICOPTER', 00H	; `string'
CONST	ENDS
;	COMDAT ??_C@_08BAPAGPFO@AIRCRAFT@
CONST	SEGMENT
??_C@_08BAPAGPFO@AIRCRAFT@ DB 'AIRCRAFT', 00H		; `string'
CONST	ENDS
;	COMDAT ??_C@_0M@MLBGDOOF@AIR?5DEFENCE@
CONST	SEGMENT
??_C@_0M@MLBGDOOF@AIR?5DEFENCE@ DB 'AIR DEFENCE', 00H	; `string'
CONST	ENDS
;	COMDAT ??_C@_07NEGAAKAH@VEHICLE@
CONST	SEGMENT
??_C@_07NEGAAKAH@VEHICLE@ DB 'VEHICLE', 00H		; `string'
CONST	ENDS
;	COMDAT ??_C@_07NFANNNEC@UNKNOWN@
CONST	SEGMENT
??_C@_07NFANNNEC@UNKNOWN@ DB 'UNKNOWN', 00H		; `string'
CONST	ENDS
PUBLIC	?overload_fixed_string_functions@@YGXW4ENTITY_TYPES@@@Z ; overload_fixed_string_functions
PUBLIC	?__LINE__Var@?0??get_local_string@@YGPBDPAUENTITY@@W4STRING_TYPES@@@Z@4JA ; `get_local_string'::`1'::__LINE__Var
PUBLIC	??_C@_0EC@IDHFEGDF@c?3?2users?2nhv90?2projects?2eech?2ap@ ; `string'
PUBLIC	??_C@_0DH@IPMGLCB@TARGET?5SYMBOL?5OUT?5OF?5RANGE?5IN?5f@ ; `string'
PUBLIC	??_C@_09CCBABJPD@Structure@			; `string'
EXTRN	?process_assert@@YGXPBD0H@Z:PROC		; process_assert
EXTRN	?debug_fatal@@YAXPBDZZ:PROC			; debug_fatal
EXTRN	?debug_colour_log@@YAXW4DEBUG_COLOURS@@PBDZZ:PROC ; debug_colour_log
EXTRN	?null_entity_pointer_message@@3PBDB:DWORD	; null_entity_pointer_message
EXTRN	?entity_type_database@@3PAUENTITY_TYPE_DATA@@A:BYTE ; entity_type_database
EXTRN	?overload_invalid_int_type_message@@3PBDB:DWORD	; overload_invalid_int_type_message
EXTRN	?fn_get_local_entity_int_value@@3PAY0BBH@P6GHPAUENTITY@@W4INT_TYPES@@@ZA:BYTE ; fn_get_local_entity_int_value
EXTRN	?string_type_database@@3PAUSTRING_TYPE_DATA@@A:BYTE ; string_type_database
EXTRN	?debug_fatal_invalid_string_type_message@@3PBDB:DWORD ; debug_fatal_invalid_string_type_message
EXTRN	?fn_get_local_entity_string@@3PAY0N@P6GPBDPAUENTITY@@W4STRING_TYPES@@@ZA:BYTE ; fn_get_local_entity_string
EXTRN	?entities@@3PAUENTITY@@A:DWORD			; entities
;	COMDAT ??_C@_09CCBABJPD@Structure@
CONST	SEGMENT
??_C@_09CCBABJPD@Structure@ DB 'Structure', 00H		; `string'
CONST	ENDS
;	COMDAT ??_C@_0DH@IPMGLCB@TARGET?5SYMBOL?5OUT?5OF?5RANGE?5IN?5f@
CONST	SEGMENT
??_C@_0DH@IPMGLCB@TARGET?5SYMBOL?5OUT?5OF?5RANGE?5IN?5f@ DB 'TARGET SYMBO'
	DB	'L OUT OF RANGE IN fixed_3d_object_database', 00H ; `string'
CONST	ENDS
;	COMDAT ??_C@_0EC@IDHFEGDF@c?3?2users?2nhv90?2projects?2eech?2ap@
CONST	SEGMENT
??_C@_0EC@IDHFEGDF@c?3?2users?2nhv90?2projects?2eech?2ap@ DB 'c:\users\nh'
	DB	'v90\projects\eech\aphavoc\source\entity\fixed\fx_str.c', 00H ; `string'
CONST	ENDS
;	COMDAT ?__LINE__Var@?0??get_local_string@@YGPBDPAUENTITY@@W4STRING_TYPES@@@Z@4JA
_DATA	SEGMENT
?__LINE__Var@?0??get_local_string@@YGPBDPAUENTITY@@W4STRING_TYPES@@@Z@4JA DD 0d3H ; `get_local_string'::`1'::__LINE__Var
_DATA	ENDS
_DATA	SEGMENT
?structure_target_names@@3PAPBDA DD FLAT:??_C@_07NFANNNEC@UNKNOWN@ ; structure_target_names
	DD	FLAT:??_C@_07NEGAAKAH@VEHICLE@
	DD	FLAT:??_C@_07NEGAAKAH@VEHICLE@
	DD	FLAT:??_C@_0M@MLBGDOOF@AIR?5DEFENCE@
	DD	FLAT:??_C@_08BAPAGPFO@AIRCRAFT@
	DD	FLAT:??_C@_0L@IHFJKDBG@HELICOPTER@
	DD	FLAT:??_C@_04NNDOCGDA@SHIP@
	DD	FLAT:??_C@_09FNLMCHNE@STRUCTURE@
_DATA	ENDS
; Function compile flags: /Odtp /ZI
; File c:\users\nhv90\projects\eech\aphavoc\source\entity\fixed\fx_str.c
;	COMDAT ?get_local_string@@YGPBDPAUENTITY@@W4STRING_TYPES@@@Z
_TEXT	SEGMENT
tv164 = -92						; size = 4
tv138 = -92						; size = 4
tv80 = -92						; size = 4
tv192 = -88						; size = 4
tv156 = -88						; size = 4
tv130 = -88						; size = 4
tv72 = -88						; size = 4
tv65 = -88						; size = 4
_i$1 = -20						; size = 4
_i$2 = -16						; size = 4
_i$3 = -12						; size = 4
_s$ = -8						; size = 4
_raw$ = -4						; size = 4
_en$ = 8						; size = 4
_type$ = 12						; size = 4
?get_local_string@@YGPBDPAUENTITY@@W4STRING_TYPES@@@Z PROC ; get_local_string, COMDAT

; 211  : {

  00000	55		 push	 ebp
  00001	8b ec		 mov	 ebp, esp
  00003	83 ec 5c	 sub	 esp, 92			; 0000005cH
  00006	53		 push	 ebx
  00007	56		 push	 esi
  00008	57		 push	 edi

; 212  : 	fixed
; 213  : 		*raw;
; 214  : 
; 215  : 	const char
; 216  : 		*s;
; 217  : 
; 218  : 	raw = (fixed *) get_local_entity_data (en);

  00009	8b 45 08	 mov	 eax, DWORD PTR _en$[ebp]
  0000c	8b 48 04	 mov	 ecx, DWORD PTR [eax+4]
  0000f	89 4d fc	 mov	 DWORD PTR _raw$[ebp], ecx

; 219  : 
; 220  : 	switch (type)

  00012	8b 45 0c	 mov	 eax, DWORD PTR _type$[ebp]
  00015	89 45 a8	 mov	 DWORD PTR tv65[ebp], eax
  00018	8b 4d a8	 mov	 ecx, DWORD PTR tv65[ebp]
  0001b	83 e9 01	 sub	 ecx, 1
  0001e	89 4d a8	 mov	 DWORD PTR tv65[ebp], ecx
  00021	83 7d a8 0b	 cmp	 DWORD PTR tv65[ebp], 11	; 0000000bH
  00025	0f 87 45 02 00
	00		 ja	 $LN14@get_local_
  0002b	8b 55 a8	 mov	 edx, DWORD PTR tv65[ebp]
  0002e	0f b6 82 00 00
	00 00		 movzx	 eax, BYTE PTR $LN30@get_local_[edx]
  00035	ff 24 85 00 00
	00 00		 jmp	 DWORD PTR $LN31@get_local_[eax*4]
$LN4@get_local_:

; 221  : 	{
; 222  : 		////////////////////////////////////////
; 223  : 		case STRING_TYPE_EASY_DISPLAY_NAME:
; 224  : 		////////////////////////////////////////
; 225  : 		{
; 226  : 			int
; 227  : 				i;
; 228  : 
; 229  : 			i = get_local_entity_int_value (en, INT_TYPE_TARGET_SYMBOL_TYPE);

  0003c	83 7d 08 00	 cmp	 DWORD PTR _en$[ebp], 0
  00040	74 0a		 je	 SHORT $LN16@get_local_
  00042	8b 45 08	 mov	 eax, DWORD PTR _en$[ebp]
  00045	8b 08		 mov	 ecx, DWORD PTR [eax]
  00047	89 4d a8	 mov	 DWORD PTR tv72[ebp], ecx
  0004a	eb 21		 jmp	 SHORT $LN17@get_local_
$LN16@get_local_:
  0004c	8b 15 00 00 00
	00		 mov	 edx, DWORD PTR ?__LINE__Var@?0??get_local_string@@YGPBDPAUENTITY@@W4STRING_TYPES@@@Z@4JA
  00052	83 c2 12	 add	 edx, 18			; 00000012H
  00055	52		 push	 edx
  00056	68 00 00 00 00	 push	 OFFSET ??_C@_0EC@IDHFEGDF@c?3?2users?2nhv90?2projects?2eech?2ap@
  0005b	a1 00 00 00 00	 mov	 eax, DWORD PTR ?null_entity_pointer_message@@3PBDB ; null_entity_pointer_message
  00060	50		 push	 eax
  00061	e8 00 00 00 00	 call	 ?process_assert@@YGXPBD0H@Z ; process_assert
  00066	c7 45 a8 00 00
	00 00		 mov	 DWORD PTR tv72[ebp], 0
$LN17@get_local_:
  0006d	b9 01 00 00 00	 mov	 ecx, 1
  00072	85 c9		 test	 ecx, ecx
  00074	74 09		 je	 SHORT $LN18@get_local_
  00076	c7 45 a4 d5 00
	00 00		 mov	 DWORD PTR tv80[ebp], 213 ; 000000d5H
  0007d	eb 21		 jmp	 SHORT $LN19@get_local_
$LN18@get_local_:
  0007f	8b 15 00 00 00
	00		 mov	 edx, DWORD PTR ?__LINE__Var@?0??get_local_string@@YGPBDPAUENTITY@@W4STRING_TYPES@@@Z@4JA
  00085	83 c2 12	 add	 edx, 18			; 00000012H
  00088	52		 push	 edx
  00089	68 00 00 00 00	 push	 OFFSET ??_C@_0EC@IDHFEGDF@c?3?2users?2nhv90?2projects?2eech?2ap@
  0008e	a1 00 00 00 00	 mov	 eax, DWORD PTR ?overload_invalid_int_type_message@@3PBDB ; overload_invalid_int_type_message
  00093	50		 push	 eax
  00094	e8 00 00 00 00	 call	 ?process_assert@@YGXPBD0H@Z ; process_assert
  00099	c7 45 a4 00 00
	00 00		 mov	 DWORD PTR tv80[ebp], 0
$LN19@get_local_:
  000a0	68 d5 00 00 00	 push	 213			; 000000d5H
  000a5	8b 4d 08	 mov	 ecx, DWORD PTR _en$[ebp]
  000a8	51		 push	 ecx
  000a9	69 55 a8 5c 04
	00 00		 imul	 edx, DWORD PTR tv72[ebp], 1116
  000b0	8b 45 a4	 mov	 eax, DWORD PTR tv80[ebp]
  000b3	8b 8c 82 00 00
	00 00		 mov	 ecx, DWORD PTR ?fn_get_local_entity_int_value@@3PAY0BBH@P6GHPAUENTITY@@W4INT_TYPES@@@ZA[edx+eax*4]
  000ba	ff d1		 call	 ecx
  000bc	89 45 f4	 mov	 DWORD PTR _i$3[ebp], eax

; 230  : 
; 231  : 			if ((i >= 0) && (i < NUM_TARGET_SYMBOL_TYPES))

  000bf	83 7d f4 00	 cmp	 DWORD PTR _i$3[ebp], 0
  000c3	7c 15		 jl	 SHORT $LN5@get_local_
  000c5	83 7d f4 08	 cmp	 DWORD PTR _i$3[ebp], 8
  000c9	7d 0f		 jge	 SHORT $LN5@get_local_

; 232  : 			{
; 233  : 				s = structure_target_names[i];

  000cb	8b 45 f4	 mov	 eax, DWORD PTR _i$3[ebp]
  000ce	8b 0c 85 00 00
	00 00		 mov	 ecx, DWORD PTR ?structure_target_names@@3PAPBDA[eax*4]
  000d5	89 4d f8	 mov	 DWORD PTR _s$[ebp], ecx

; 234  : 			}
; 235  : 			else

  000d8	eb 16		 jmp	 SHORT $LN6@get_local_
$LN5@get_local_:

; 236  : 			{
; 237  : 				s = "STRUCTURE";

  000da	c7 45 f8 00 00
	00 00		 mov	 DWORD PTR _s$[ebp], OFFSET ??_C@_09FNLMCHNE@STRUCTURE@

; 238  : 
; 239  : 				debug_colour_log (DEBUG_COLOUR_RED, "TARGET SYMBOL OUT OF RANGE IN fixed_3d_object_database");

  000e1	68 00 00 00 00	 push	 OFFSET ??_C@_0DH@IPMGLCB@TARGET?5SYMBOL?5OUT?5OF?5RANGE?5IN?5f@
  000e6	6a 04		 push	 4
  000e8	e8 00 00 00 00	 call	 ?debug_colour_log@@YAXW4DEBUG_COLOURS@@PBDZZ ; debug_colour_log
  000ed	83 c4 08	 add	 esp, 8
$LN6@get_local_:

; 240  : 			}
; 241  : 
; 242  : 			break;

  000f0	e9 ef 01 00 00	 jmp	 $LN2@get_local_
$LN7@get_local_:

; 243  : 		}
; 244  : 		////////////////////////////////////////
; 245  : 		case STRING_TYPE_FULL_NAME:
; 246  : 		////////////////////////////////////////
; 247  : 		{
; 248  : 			s = "Structure";

  000f5	c7 45 f8 00 00
	00 00		 mov	 DWORD PTR _s$[ebp], OFFSET ??_C@_09CCBABJPD@Structure@

; 249  : 
; 250  : 			break;

  000fc	e9 e3 01 00 00	 jmp	 $LN2@get_local_
$LN8@get_local_:

; 251  : 		}
; 252  : 		////////////////////////////////////////
; 253  : 		case STRING_TYPE_LONG_DISPLAY_NAME:
; 254  : 		////////////////////////////////////////
; 255  : 		{
; 256  : 			int
; 257  : 				i;
; 258  : 
; 259  : 			i = get_local_entity_int_value (en, INT_TYPE_TARGET_SYMBOL_TYPE);

  00101	83 7d 08 00	 cmp	 DWORD PTR _en$[ebp], 0
  00105	74 0a		 je	 SHORT $LN20@get_local_
  00107	8b 45 08	 mov	 eax, DWORD PTR _en$[ebp]
  0010a	8b 08		 mov	 ecx, DWORD PTR [eax]
  0010c	89 4d a8	 mov	 DWORD PTR tv130[ebp], ecx
  0010f	eb 21		 jmp	 SHORT $LN21@get_local_
$LN20@get_local_:
  00111	8b 15 00 00 00
	00		 mov	 edx, DWORD PTR ?__LINE__Var@?0??get_local_string@@YGPBDPAUENTITY@@W4STRING_TYPES@@@Z@4JA
  00117	83 c2 30	 add	 edx, 48			; 00000030H
  0011a	52		 push	 edx
  0011b	68 00 00 00 00	 push	 OFFSET ??_C@_0EC@IDHFEGDF@c?3?2users?2nhv90?2projects?2eech?2ap@
  00120	a1 00 00 00 00	 mov	 eax, DWORD PTR ?null_entity_pointer_message@@3PBDB ; null_entity_pointer_message
  00125	50		 push	 eax
  00126	e8 00 00 00 00	 call	 ?process_assert@@YGXPBD0H@Z ; process_assert
  0012b	c7 45 a8 00 00
	00 00		 mov	 DWORD PTR tv130[ebp], 0
$LN21@get_local_:
  00132	b9 01 00 00 00	 mov	 ecx, 1
  00137	85 c9		 test	 ecx, ecx
  00139	74 09		 je	 SHORT $LN22@get_local_
  0013b	c7 45 a4 d5 00
	00 00		 mov	 DWORD PTR tv138[ebp], 213 ; 000000d5H
  00142	eb 21		 jmp	 SHORT $LN23@get_local_
$LN22@get_local_:
  00144	8b 15 00 00 00
	00		 mov	 edx, DWORD PTR ?__LINE__Var@?0??get_local_string@@YGPBDPAUENTITY@@W4STRING_TYPES@@@Z@4JA
  0014a	83 c2 30	 add	 edx, 48			; 00000030H
  0014d	52		 push	 edx
  0014e	68 00 00 00 00	 push	 OFFSET ??_C@_0EC@IDHFEGDF@c?3?2users?2nhv90?2projects?2eech?2ap@
  00153	a1 00 00 00 00	 mov	 eax, DWORD PTR ?overload_invalid_int_type_message@@3PBDB ; overload_invalid_int_type_message
  00158	50		 push	 eax
  00159	e8 00 00 00 00	 call	 ?process_assert@@YGXPBD0H@Z ; process_assert
  0015e	c7 45 a4 00 00
	00 00		 mov	 DWORD PTR tv138[ebp], 0
$LN23@get_local_:
  00165	68 d5 00 00 00	 push	 213			; 000000d5H
  0016a	8b 4d 08	 mov	 ecx, DWORD PTR _en$[ebp]
  0016d	51		 push	 ecx
  0016e	69 55 a8 5c 04
	00 00		 imul	 edx, DWORD PTR tv130[ebp], 1116
  00175	8b 45 a4	 mov	 eax, DWORD PTR tv138[ebp]
  00178	8b 8c 82 00 00
	00 00		 mov	 ecx, DWORD PTR ?fn_get_local_entity_int_value@@3PAY0BBH@P6GHPAUENTITY@@W4INT_TYPES@@@ZA[edx+eax*4]
  0017f	ff d1		 call	 ecx
  00181	89 45 f0	 mov	 DWORD PTR _i$2[ebp], eax

; 260  : 
; 261  : 			if ((i >= 0) && (i < NUM_TARGET_SYMBOL_TYPES))

  00184	83 7d f0 00	 cmp	 DWORD PTR _i$2[ebp], 0
  00188	7c 15		 jl	 SHORT $LN9@get_local_
  0018a	83 7d f0 08	 cmp	 DWORD PTR _i$2[ebp], 8
  0018e	7d 0f		 jge	 SHORT $LN9@get_local_

; 262  : 			{
; 263  : 				s = structure_target_names[i];

  00190	8b 45 f0	 mov	 eax, DWORD PTR _i$2[ebp]
  00193	8b 0c 85 00 00
	00 00		 mov	 ecx, DWORD PTR ?structure_target_names@@3PAPBDA[eax*4]
  0019a	89 4d f8	 mov	 DWORD PTR _s$[ebp], ecx

; 264  : 			}
; 265  : 			else

  0019d	eb 16		 jmp	 SHORT $LN10@get_local_
$LN9@get_local_:

; 266  : 			{
; 267  : 				s = "STRUCTURE";

  0019f	c7 45 f8 00 00
	00 00		 mov	 DWORD PTR _s$[ebp], OFFSET ??_C@_09FNLMCHNE@STRUCTURE@

; 268  : 
; 269  : 				debug_colour_log (DEBUG_COLOUR_RED, "TARGET SYMBOL OUT OF RANGE IN fixed_3d_object_database");

  001a6	68 00 00 00 00	 push	 OFFSET ??_C@_0DH@IPMGLCB@TARGET?5SYMBOL?5OUT?5OF?5RANGE?5IN?5f@
  001ab	6a 04		 push	 4
  001ad	e8 00 00 00 00	 call	 ?debug_colour_log@@YAXW4DEBUG_COLOURS@@PBDZZ ; debug_colour_log
  001b2	83 c4 08	 add	 esp, 8
$LN10@get_local_:

; 270  : 			}
; 271  : 
; 272  : 			break;

  001b5	e9 2a 01 00 00	 jmp	 $LN2@get_local_
$LN11@get_local_:

; 273  : 		}
; 274  : 		////////////////////////////////////////
; 275  : 		case STRING_TYPE_SHORT_DISPLAY_NAME:
; 276  : 		////////////////////////////////////////
; 277  : 		{
; 278  : 			int
; 279  : 				i;
; 280  : 
; 281  : 			i = get_local_entity_int_value (en, INT_TYPE_TARGET_SYMBOL_TYPE);

  001ba	83 7d 08 00	 cmp	 DWORD PTR _en$[ebp], 0
  001be	74 0a		 je	 SHORT $LN24@get_local_
  001c0	8b 45 08	 mov	 eax, DWORD PTR _en$[ebp]
  001c3	8b 08		 mov	 ecx, DWORD PTR [eax]
  001c5	89 4d a8	 mov	 DWORD PTR tv156[ebp], ecx
  001c8	eb 21		 jmp	 SHORT $LN25@get_local_
$LN24@get_local_:
  001ca	8b 15 00 00 00
	00		 mov	 edx, DWORD PTR ?__LINE__Var@?0??get_local_string@@YGPBDPAUENTITY@@W4STRING_TYPES@@@Z@4JA
  001d0	83 c2 46	 add	 edx, 70			; 00000046H
  001d3	52		 push	 edx
  001d4	68 00 00 00 00	 push	 OFFSET ??_C@_0EC@IDHFEGDF@c?3?2users?2nhv90?2projects?2eech?2ap@
  001d9	a1 00 00 00 00	 mov	 eax, DWORD PTR ?null_entity_pointer_message@@3PBDB ; null_entity_pointer_message
  001de	50		 push	 eax
  001df	e8 00 00 00 00	 call	 ?process_assert@@YGXPBD0H@Z ; process_assert
  001e4	c7 45 a8 00 00
	00 00		 mov	 DWORD PTR tv156[ebp], 0
$LN25@get_local_:
  001eb	b9 01 00 00 00	 mov	 ecx, 1
  001f0	85 c9		 test	 ecx, ecx
  001f2	74 09		 je	 SHORT $LN26@get_local_
  001f4	c7 45 a4 d5 00
	00 00		 mov	 DWORD PTR tv164[ebp], 213 ; 000000d5H
  001fb	eb 21		 jmp	 SHORT $LN27@get_local_
$LN26@get_local_:
  001fd	8b 15 00 00 00
	00		 mov	 edx, DWORD PTR ?__LINE__Var@?0??get_local_string@@YGPBDPAUENTITY@@W4STRING_TYPES@@@Z@4JA
  00203	83 c2 46	 add	 edx, 70			; 00000046H
  00206	52		 push	 edx
  00207	68 00 00 00 00	 push	 OFFSET ??_C@_0EC@IDHFEGDF@c?3?2users?2nhv90?2projects?2eech?2ap@
  0020c	a1 00 00 00 00	 mov	 eax, DWORD PTR ?overload_invalid_int_type_message@@3PBDB ; overload_invalid_int_type_message
  00211	50		 push	 eax
  00212	e8 00 00 00 00	 call	 ?process_assert@@YGXPBD0H@Z ; process_assert
  00217	c7 45 a4 00 00
	00 00		 mov	 DWORD PTR tv164[ebp], 0
$LN27@get_local_:
  0021e	68 d5 00 00 00	 push	 213			; 000000d5H
  00223	8b 4d 08	 mov	 ecx, DWORD PTR _en$[ebp]
  00226	51		 push	 ecx
  00227	69 55 a8 5c 04
	00 00		 imul	 edx, DWORD PTR tv156[ebp], 1116
  0022e	8b 45 a4	 mov	 eax, DWORD PTR tv164[ebp]
  00231	8b 8c 82 00 00
	00 00		 mov	 ecx, DWORD PTR ?fn_get_local_entity_int_value@@3PAY0BBH@P6GHPAUENTITY@@W4INT_TYPES@@@ZA[edx+eax*4]
  00238	ff d1		 call	 ecx
  0023a	89 45 ec	 mov	 DWORD PTR _i$1[ebp], eax

; 282  : 
; 283  : 			if ((i >= 0) && (i < NUM_TARGET_SYMBOL_TYPES))

  0023d	83 7d ec 00	 cmp	 DWORD PTR _i$1[ebp], 0
  00241	7c 15		 jl	 SHORT $LN12@get_local_
  00243	83 7d ec 08	 cmp	 DWORD PTR _i$1[ebp], 8
  00247	7d 0f		 jge	 SHORT $LN12@get_local_

; 284  : 			{
; 285  : 				s = structure_target_names[i];

  00249	8b 45 ec	 mov	 eax, DWORD PTR _i$1[ebp]
  0024c	8b 0c 85 00 00
	00 00		 mov	 ecx, DWORD PTR ?structure_target_names@@3PAPBDA[eax*4]
  00253	89 4d f8	 mov	 DWORD PTR _s$[ebp], ecx

; 286  : 			}
; 287  : 			else

  00256	eb 16		 jmp	 SHORT $LN13@get_local_
$LN12@get_local_:

; 288  : 			{
; 289  : 				s = "STRUCTURE";

  00258	c7 45 f8 00 00
	00 00		 mov	 DWORD PTR _s$[ebp], OFFSET ??_C@_09FNLMCHNE@STRUCTURE@

; 290  : 
; 291  : 				debug_colour_log (DEBUG_COLOUR_RED, "TARGET SYMBOL OUT OF RANGE IN fixed_3d_object_database");

  0025f	68 00 00 00 00	 push	 OFFSET ??_C@_0DH@IPMGLCB@TARGET?5SYMBOL?5OUT?5OF?5RANGE?5IN?5f@
  00264	6a 04		 push	 4
  00266	e8 00 00 00 00	 call	 ?debug_colour_log@@YAXW4DEBUG_COLOURS@@PBDZZ ; debug_colour_log
  0026b	83 c4 08	 add	 esp, 8
$LN13@get_local_:

; 292  : 			}
; 293  : 
; 294  : 			break;

  0026e	eb 74		 jmp	 SHORT $LN2@get_local_
$LN14@get_local_:

; 295  : 		}
; 296  : 		////////////////////////////////////////
; 297  : 		default:
; 298  : 		////////////////////////////////////////
; 299  : 		{
; 300  : 			debug_fatal_invalid_string_type (en, type);

  00270	83 7d 08 00	 cmp	 DWORD PTR _en$[ebp], 0
  00274	74 0a		 je	 SHORT $LN28@get_local_
  00276	8b 45 08	 mov	 eax, DWORD PTR _en$[ebp]
  00279	8b 08		 mov	 ecx, DWORD PTR [eax]
  0027b	89 4d a8	 mov	 DWORD PTR tv192[ebp], ecx
  0027e	eb 21		 jmp	 SHORT $LN29@get_local_
$LN28@get_local_:
  00280	8b 15 00 00 00
	00		 mov	 edx, DWORD PTR ?__LINE__Var@?0??get_local_string@@YGPBDPAUENTITY@@W4STRING_TYPES@@@Z@4JA
  00286	83 c2 59	 add	 edx, 89			; 00000059H
  00289	52		 push	 edx
  0028a	68 00 00 00 00	 push	 OFFSET ??_C@_0EC@IDHFEGDF@c?3?2users?2nhv90?2projects?2eech?2ap@
  0028f	a1 00 00 00 00	 mov	 eax, DWORD PTR ?null_entity_pointer_message@@3PBDB ; null_entity_pointer_message
  00294	50		 push	 eax
  00295	e8 00 00 00 00	 call	 ?process_assert@@YGXPBD0H@Z ; process_assert
  0029a	c7 45 a8 00 00
	00 00		 mov	 DWORD PTR tv192[ebp], 0
$LN29@get_local_:
  002a1	8b 0d 00 00 00
	00		 mov	 ecx, DWORD PTR ?__LINE__Var@?0??get_local_string@@YGPBDPAUENTITY@@W4STRING_TYPES@@@Z@4JA
  002a7	83 c1 59	 add	 ecx, 89			; 00000059H
  002aa	51		 push	 ecx
  002ab	68 00 00 00 00	 push	 OFFSET ??_C@_0EC@IDHFEGDF@c?3?2users?2nhv90?2projects?2eech?2ap@
  002b0	8b 55 0c	 mov	 edx, DWORD PTR _type$[ebp]
  002b3	c1 e2 04	 shl	 edx, 4
  002b6	8b 82 00 00 00
	00		 mov	 eax, DWORD PTR ?string_type_database@@3PAUSTRING_TYPE_DATA@@A[edx]
  002bc	50		 push	 eax
  002bd	8b 4d 08	 mov	 ecx, DWORD PTR _en$[ebp]
  002c0	2b 0d 00 00 00
	00		 sub	 ecx, DWORD PTR ?entities@@3PAUENTITY@@A ; entities
  002c6	c1 f9 04	 sar	 ecx, 4
  002c9	51		 push	 ecx
  002ca	6b 55 a8 0c	 imul	 edx, DWORD PTR tv192[ebp], 12
  002ce	8b 82 00 00 00
	00		 mov	 eax, DWORD PTR ?entity_type_database@@3PAUENTITY_TYPE_DATA@@A[edx]
  002d4	50		 push	 eax
  002d5	8b 0d 00 00 00
	00		 mov	 ecx, DWORD PTR ?debug_fatal_invalid_string_type_message@@3PBDB ; debug_fatal_invalid_string_type_message
  002db	51		 push	 ecx
  002dc	e8 00 00 00 00	 call	 ?debug_fatal@@YAXPBDZZ	; debug_fatal
  002e1	83 c4 18	 add	 esp, 24			; 00000018H
$LN2@get_local_:

; 301  : 
; 302  : 			break;
; 303  : 		}
; 304  : 	}
; 305  : 
; 306  : 	return (s);

  002e4	8b 45 f8	 mov	 eax, DWORD PTR _s$[ebp]

; 307  : }

  002e7	5f		 pop	 edi
  002e8	5e		 pop	 esi
  002e9	5b		 pop	 ebx
  002ea	8b e5		 mov	 esp, ebp
  002ec	5d		 pop	 ebp
  002ed	c2 08 00	 ret	 8
$LN31@get_local_:
  002f0	00 00 00 00	 DD	 $LN4@get_local_
  002f4	00 00 00 00	 DD	 $LN7@get_local_
  002f8	00 00 00 00	 DD	 $LN8@get_local_
  002fc	00 00 00 00	 DD	 $LN11@get_local_
  00300	00 00 00 00	 DD	 $LN14@get_local_
$LN30@get_local_:
  00304	00		 DB	 0
  00305	04		 DB	 4
  00306	01		 DB	 1
  00307	04		 DB	 4
  00308	04		 DB	 4
  00309	04		 DB	 4
  0030a	04		 DB	 4
  0030b	02		 DB	 2
  0030c	04		 DB	 4
  0030d	04		 DB	 4
  0030e	04		 DB	 4
  0030f	03		 DB	 3
?get_local_string@@YGPBDPAUENTITY@@W4STRING_TYPES@@@Z ENDP ; get_local_string
_TEXT	ENDS
; Function compile flags: /Odtp /ZI
; File c:\users\nhv90\projects\eech\aphavoc\source\entity\fixed\fx_str.c
;	COMDAT ?overload_fixed_string_functions@@YGXW4ENTITY_TYPES@@@Z
_TEXT	SEGMENT
_type$ = 8						; size = 4
?overload_fixed_string_functions@@YGXW4ENTITY_TYPES@@@Z PROC ; overload_fixed_string_functions, COMDAT

; 316  : {

  00000	55		 push	 ebp
  00001	8b ec		 mov	 ebp, esp
  00003	83 ec 40	 sub	 esp, 64			; 00000040H
  00006	53		 push	 ebx
  00007	56		 push	 esi
  00008	57		 push	 edi

; 317  : 	fn_get_local_entity_string[type][STRING_TYPE_EASY_DISPLAY_NAME]	= get_local_string;

  00009	6b 45 08 34	 imul	 eax, DWORD PTR _type$[ebp], 52
  0000d	b9 04 00 00 00	 mov	 ecx, 4
  00012	c1 e1 00	 shl	 ecx, 0
  00015	c7 84 08 00 00
	00 00 00 00 00
	00		 mov	 DWORD PTR ?fn_get_local_entity_string@@3PAY0N@P6GPBDPAUENTITY@@W4STRING_TYPES@@@ZA[eax+ecx], OFFSET ?get_local_string@@YGPBDPAUENTITY@@W4STRING_TYPES@@@Z ; get_local_string

; 318  : 
; 319  : 	fn_get_local_entity_string[type][STRING_TYPE_FULL_NAME]				= get_local_string;

  00020	6b 45 08 34	 imul	 eax, DWORD PTR _type$[ebp], 52
  00024	b9 04 00 00 00	 mov	 ecx, 4
  00029	6b d1 03	 imul	 edx, ecx, 3
  0002c	c7 84 10 00 00
	00 00 00 00 00
	00		 mov	 DWORD PTR ?fn_get_local_entity_string@@3PAY0N@P6GPBDPAUENTITY@@W4STRING_TYPES@@@ZA[eax+edx], OFFSET ?get_local_string@@YGPBDPAUENTITY@@W4STRING_TYPES@@@Z ; get_local_string

; 320  : 
; 321  : 	fn_get_local_entity_string[type][STRING_TYPE_LONG_DISPLAY_NAME]	= get_local_string;

  00037	6b 45 08 34	 imul	 eax, DWORD PTR _type$[ebp], 52
  0003b	b9 04 00 00 00	 mov	 ecx, 4
  00040	c1 e1 03	 shl	 ecx, 3
  00043	c7 84 08 00 00
	00 00 00 00 00
	00		 mov	 DWORD PTR ?fn_get_local_entity_string@@3PAY0N@P6GPBDPAUENTITY@@W4STRING_TYPES@@@ZA[eax+ecx], OFFSET ?get_local_string@@YGPBDPAUENTITY@@W4STRING_TYPES@@@Z ; get_local_string

; 322  : 
; 323  : 	fn_get_local_entity_string[type][STRING_TYPE_SHORT_DISPLAY_NAME]	= get_local_string;

  0004e	6b 45 08 34	 imul	 eax, DWORD PTR _type$[ebp], 52
  00052	b9 04 00 00 00	 mov	 ecx, 4
  00057	6b d1 0c	 imul	 edx, ecx, 12
  0005a	c7 84 10 00 00
	00 00 00 00 00
	00		 mov	 DWORD PTR ?fn_get_local_entity_string@@3PAY0N@P6GPBDPAUENTITY@@W4STRING_TYPES@@@ZA[eax+edx], OFFSET ?get_local_string@@YGPBDPAUENTITY@@W4STRING_TYPES@@@Z ; get_local_string

; 324  : }

  00065	5f		 pop	 edi
  00066	5e		 pop	 esi
  00067	5b		 pop	 ebx
  00068	8b e5		 mov	 esp, ebp
  0006a	5d		 pop	 ebp
  0006b	c2 04 00	 ret	 4
?overload_fixed_string_functions@@YGXW4ENTITY_TYPES@@@Z ENDP ; overload_fixed_string_functions
_TEXT	ENDS
END
