; Listing generated by Microsoft (R) Optimizing Compiler Version 19.16.27045.0 

	TITLE	C:\Users\nhv90\Projects\eech\aphavoc\source\entity\special\guide\gd_dstry.c
	.686P
	.XMM
	include listing.inc
	.model	flat

INCLUDELIB MSVCRTD
INCLUDELIB OLDNAMES

PUBLIC	?overload_guide_destroy_functions@@YGXXZ	; overload_guide_destroy_functions
PUBLIC	?__LINE__Var@?0??destroy_server@@YGXPAUENTITY@@@Z@4JA ; `destroy_server'::`1'::__LINE__Var
PUBLIC	??_C@_0EM@BJAAEJHC@c?3?2users?2nhv90?2projects?2eech?2ap@ ; `string'
PUBLIC	??_C@_0CC@BNNNEGEG@assert_client_server_remote_fn?5@ ; `string'
PUBLIC	??_C@_0CB@CFOCLFOK@assert_client_server_local_fn?5?$CI@ ; `string'
PUBLIC	?__LINE__Var@?0??destroy_client@@YGXPAUENTITY@@@Z@4JA ; `destroy_client'::`1'::__LINE__Var
EXTRN	?process_assert@@YGXPBD0H@Z:PROC		; process_assert
EXTRN	?free_mem@@YGXPAX@Z:PROC			; free_mem
EXTRN	?delete_local_entity_from_parents_child_list@@YGXPAUENTITY@@W4LIST_TYPES@@@Z:PROC ; delete_local_entity_from_parents_child_list
EXTRN	?unlink_local_entity_children@@YGXPAUENTITY@@W4LIST_TYPES@@@Z:PROC ; unlink_local_entity_children
EXTRN	?destroy_local_entity@@YGXPAUENTITY@@@Z:PROC	; destroy_local_entity
EXTRN	?transmit_entity_comms_message@@YAXW4ENTITY_COMMS_MESSAGES@@PAUENTITY@@ZZ:PROC ; transmit_entity_comms_message
EXTRN	?assert_client_server_local_fn@@YGHXZ:PROC	; assert_client_server_local_fn
EXTRN	?assert_client_server_remote_fn@@YGHXZ:PROC	; assert_client_server_remote_fn
EXTRN	?set_free_entity@@YGXPAUENTITY@@@Z:PROC		; set_free_entity
EXTRN	?system_comms_data_flow@@3W4COMMS_DATA_FLOW_TYPES@@A:DWORD ; system_comms_data_flow
EXTRN	?fn_destroy_local_entity@@3PAP6GXPAUENTITY@@@ZA:BYTE ; fn_destroy_local_entity
EXTRN	?fn_destroy_client_server_entity@@3PAY01P6GXPAUENTITY@@@ZA:BYTE ; fn_destroy_client_server_entity
EXTRN	?fn_destroy_local_entity_family@@3PAP6GXPAUENTITY@@@ZA:BYTE ; fn_destroy_local_entity_family
EXTRN	?fn_destroy_client_server_entity_family@@3PAY01P6GXPAUENTITY@@@ZA:BYTE ; fn_destroy_client_server_entity_family
EXTRN	?fn_kill_local_entity@@3PAP6GXPAUENTITY@@@ZA:BYTE ; fn_kill_local_entity
EXTRN	?fn_kill_client_server_entity@@3PAY01P6GXPAUENTITY@@@ZA:BYTE ; fn_kill_client_server_entity
;	COMDAT ?__LINE__Var@?0??destroy_client@@YGXPAUENTITY@@@Z@4JA
_DATA	SEGMENT
?__LINE__Var@?0??destroy_client@@YGXPAUENTITY@@@Z@4JA DD 0b9H ; `destroy_client'::`1'::__LINE__Var
_DATA	ENDS
;	COMDAT ??_C@_0CB@CFOCLFOK@assert_client_server_local_fn?5?$CI@
CONST	SEGMENT
??_C@_0CB@CFOCLFOK@assert_client_server_local_fn?5?$CI@ DB 'assert_client'
	DB	'_server_local_fn ()', 00H			; `string'
CONST	ENDS
;	COMDAT ??_C@_0CC@BNNNEGEG@assert_client_server_remote_fn?5@
CONST	SEGMENT
??_C@_0CC@BNNNEGEG@assert_client_server_remote_fn?5@ DB 'assert_client_se'
	DB	'rver_remote_fn ()', 00H			; `string'
CONST	ENDS
;	COMDAT ??_C@_0EM@BJAAEJHC@c?3?2users?2nhv90?2projects?2eech?2ap@
CONST	SEGMENT
??_C@_0EM@BJAAEJHC@c?3?2users?2nhv90?2projects?2eech?2ap@ DB 'c:\users\nh'
	DB	'v90\projects\eech\aphavoc\source\entity\special\guide\gd_dstr'
	DB	'y.c', 00H					; `string'
CONST	ENDS
;	COMDAT ?__LINE__Var@?0??destroy_server@@YGXPAUENTITY@@@Z@4JA
_DATA	SEGMENT
?__LINE__Var@?0??destroy_server@@YGXPAUENTITY@@@Z@4JA DD 0a2H ; `destroy_server'::`1'::__LINE__Var
_DATA	ENDS
; Function compile flags: /Odtp /ZI
; File c:\users\nhv90\projects\eech\aphavoc\source\entity\special\guide\gd_dstry.c
;	COMDAT ?destroy_client@@YGXPAUENTITY@@@Z
_TEXT	SEGMENT
_en$ = 8						; size = 4
?destroy_client@@YGXPAUENTITY@@@Z PROC			; destroy_client, COMDAT

; 185  : {

  00000	55		 push	 ebp
  00001	8b ec		 mov	 ebp, esp
  00003	83 ec 40	 sub	 esp, 64			; 00000040H
  00006	53		 push	 ebx
  00007	56		 push	 esi
  00008	57		 push	 edi

; 186  : 	if (get_comms_data_flow () == COMMS_DATA_FLOW_TX)

  00009	83 3d 00 00 00
	00 00		 cmp	 DWORD PTR ?system_comms_data_flow@@3W4COMMS_DATA_FLOW_TYPES@@A, 0 ; system_comms_data_flow
  00010	75 2c		 jne	 SHORT $LN2@destroy_cl

; 187  : 	{
; 188  : 		validate_client_server_remote_fn ();

  00012	e8 00 00 00 00	 call	 ?assert_client_server_remote_fn@@YGHXZ ; assert_client_server_remote_fn
  00017	85 c0		 test	 eax, eax
  00019	75 18		 jne	 SHORT $LN4@destroy_cl
  0001b	a1 00 00 00 00	 mov	 eax, DWORD PTR ?__LINE__Var@?0??destroy_client@@YGXPAUENTITY@@@Z@4JA
  00020	83 c0 03	 add	 eax, 3
  00023	50		 push	 eax
  00024	68 00 00 00 00	 push	 OFFSET ??_C@_0EM@BJAAEJHC@c?3?2users?2nhv90?2projects?2eech?2ap@
  00029	68 00 00 00 00	 push	 OFFSET ??_C@_0CC@BNNNEGEG@assert_client_server_remote_fn?5@
  0002e	e8 00 00 00 00	 call	 ?process_assert@@YGXPBD0H@Z ; process_assert
$LN4@destroy_cl:

; 189  : 
; 190  : 		destroy_remote (en);

  00033	8b 45 08	 mov	 eax, DWORD PTR _en$[ebp]
  00036	50		 push	 eax
  00037	e8 00 00 00 00	 call	 ?destroy_remote@@YGXPAUENTITY@@@Z ; destroy_remote

; 191  : 	}
; 192  : 	else

  0003c	eb 2a		 jmp	 SHORT $LN1@destroy_cl
$LN2@destroy_cl:

; 193  : 	{
; 194  : 		validate_client_server_local_fn ();

  0003e	e8 00 00 00 00	 call	 ?assert_client_server_local_fn@@YGHXZ ; assert_client_server_local_fn
  00043	85 c0		 test	 eax, eax
  00045	75 18		 jne	 SHORT $LN5@destroy_cl
  00047	a1 00 00 00 00	 mov	 eax, DWORD PTR ?__LINE__Var@?0??destroy_client@@YGXPAUENTITY@@@Z@4JA
  0004c	83 c0 09	 add	 eax, 9
  0004f	50		 push	 eax
  00050	68 00 00 00 00	 push	 OFFSET ??_C@_0EM@BJAAEJHC@c?3?2users?2nhv90?2projects?2eech?2ap@
  00055	68 00 00 00 00	 push	 OFFSET ??_C@_0CB@CFOCLFOK@assert_client_server_local_fn?5?$CI@
  0005a	e8 00 00 00 00	 call	 ?process_assert@@YGXPBD0H@Z ; process_assert
$LN5@destroy_cl:

; 195  : 
; 196  : 		//
; 197  : 		// destroy local using 'full' function
; 198  : 		//
; 199  : 
; 200  : 		destroy_local_entity (en);

  0005f	8b 45 08	 mov	 eax, DWORD PTR _en$[ebp]
  00062	50		 push	 eax
  00063	e8 00 00 00 00	 call	 ?destroy_local_entity@@YGXPAUENTITY@@@Z ; destroy_local_entity
$LN1@destroy_cl:

; 201  : 	}
; 202  : }

  00068	5f		 pop	 edi
  00069	5e		 pop	 esi
  0006a	5b		 pop	 ebx
  0006b	8b e5		 mov	 esp, ebp
  0006d	5d		 pop	 ebp
  0006e	c2 04 00	 ret	 4
?destroy_client@@YGXPAUENTITY@@@Z ENDP			; destroy_client
_TEXT	ENDS
; Function compile flags: /Odtp /ZI
; File c:\users\nhv90\projects\eech\aphavoc\source\entity\special\guide\gd_dstry.c
;	COMDAT ?destroy_server@@YGXPAUENTITY@@@Z
_TEXT	SEGMENT
_en$ = 8						; size = 4
?destroy_server@@YGXPAUENTITY@@@Z PROC			; destroy_server, COMDAT

; 162  : {

  00000	55		 push	 ebp
  00001	8b ec		 mov	 ebp, esp
  00003	83 ec 40	 sub	 esp, 64			; 00000040H
  00006	53		 push	 ebx
  00007	56		 push	 esi
  00008	57		 push	 edi

; 163  : 	//
; 164  : 	// destroy remote entity first (keeping local entity valid)
; 165  : 	//
; 166  : 
; 167  : 	validate_client_server_remote_fn ();

  00009	e8 00 00 00 00	 call	 ?assert_client_server_remote_fn@@YGHXZ ; assert_client_server_remote_fn
  0000e	85 c0		 test	 eax, eax
  00010	75 18		 jne	 SHORT $LN2@destroy_se
  00012	a1 00 00 00 00	 mov	 eax, DWORD PTR ?__LINE__Var@?0??destroy_server@@YGXPAUENTITY@@@Z@4JA
  00017	83 c0 05	 add	 eax, 5
  0001a	50		 push	 eax
  0001b	68 00 00 00 00	 push	 OFFSET ??_C@_0EM@BJAAEJHC@c?3?2users?2nhv90?2projects?2eech?2ap@
  00020	68 00 00 00 00	 push	 OFFSET ??_C@_0CC@BNNNEGEG@assert_client_server_remote_fn?5@
  00025	e8 00 00 00 00	 call	 ?process_assert@@YGXPBD0H@Z ; process_assert
$LN2@destroy_se:

; 168  : 
; 169  : 	destroy_remote (en);

  0002a	8b 45 08	 mov	 eax, DWORD PTR _en$[ebp]
  0002d	50		 push	 eax
  0002e	e8 00 00 00 00	 call	 ?destroy_remote@@YGXPAUENTITY@@@Z ; destroy_remote

; 170  : 
; 171  : 	validate_client_server_local_fn ();

  00033	e8 00 00 00 00	 call	 ?assert_client_server_local_fn@@YGHXZ ; assert_client_server_local_fn
  00038	85 c0		 test	 eax, eax
  0003a	75 18		 jne	 SHORT $LN3@destroy_se
  0003c	a1 00 00 00 00	 mov	 eax, DWORD PTR ?__LINE__Var@?0??destroy_server@@YGXPAUENTITY@@@Z@4JA
  00041	83 c0 09	 add	 eax, 9
  00044	50		 push	 eax
  00045	68 00 00 00 00	 push	 OFFSET ??_C@_0EM@BJAAEJHC@c?3?2users?2nhv90?2projects?2eech?2ap@
  0004a	68 00 00 00 00	 push	 OFFSET ??_C@_0CB@CFOCLFOK@assert_client_server_local_fn?5?$CI@
  0004f	e8 00 00 00 00	 call	 ?process_assert@@YGXPBD0H@Z ; process_assert
$LN3@destroy_se:

; 172  : 
; 173  : 	//
; 174  : 	// destroy local using 'full' function
; 175  : 	//
; 176  : 
; 177  : 	destroy_local_entity (en);

  00054	8b 45 08	 mov	 eax, DWORD PTR _en$[ebp]
  00057	50		 push	 eax
  00058	e8 00 00 00 00	 call	 ?destroy_local_entity@@YGXPAUENTITY@@@Z ; destroy_local_entity

; 178  : }

  0005d	5f		 pop	 edi
  0005e	5e		 pop	 esi
  0005f	5b		 pop	 ebx
  00060	8b e5		 mov	 esp, ebp
  00062	5d		 pop	 ebp
  00063	c2 04 00	 ret	 4
?destroy_server@@YGXPAUENTITY@@@Z ENDP			; destroy_server
_TEXT	ENDS
; Function compile flags: /Odtp /ZI
; File c:\users\nhv90\projects\eech\aphavoc\source\entity\special\guide\gd_dstry.c
;	COMDAT ?destroy_remote@@YGXPAUENTITY@@@Z
_TEXT	SEGMENT
_en$ = 8						; size = 4
?destroy_remote@@YGXPAUENTITY@@@Z PROC			; destroy_remote, COMDAT

; 147  : {

  00000	55		 push	 ebp
  00001	8b ec		 mov	 ebp, esp
  00003	83 ec 40	 sub	 esp, 64			; 00000040H
  00006	53		 push	 ebx
  00007	56		 push	 esi
  00008	57		 push	 edi

; 148  : 	#if DEBUG_MODULE
; 149  : 
; 150  : 	debug_log_entity_args (ENTITY_DEBUG_REMOTE, ENTITY_DEBUG_DESTROY, en);
; 151  : 
; 152  : 	#endif
; 153  : 
; 154  : 	transmit_entity_comms_message (ENTITY_COMMS_DESTROY, en);

  00009	8b 45 08	 mov	 eax, DWORD PTR _en$[ebp]
  0000c	50		 push	 eax
  0000d	6a 12		 push	 18			; 00000012H
  0000f	e8 00 00 00 00	 call	 ?transmit_entity_comms_message@@YAXW4ENTITY_COMMS_MESSAGES@@PAUENTITY@@ZZ ; transmit_entity_comms_message
  00014	83 c4 08	 add	 esp, 8

; 155  : }

  00017	5f		 pop	 edi
  00018	5e		 pop	 esi
  00019	5b		 pop	 ebx
  0001a	8b e5		 mov	 esp, ebp
  0001c	5d		 pop	 ebp
  0001d	c2 04 00	 ret	 4
?destroy_remote@@YGXPAUENTITY@@@Z ENDP			; destroy_remote
_TEXT	ENDS
; Function compile flags: /Odtp /ZI
; File c:\users\nhv90\projects\eech\aphavoc\source\entity\special\guide\gd_dstry.c
;	COMDAT ?destroy_local@@YGXPAUENTITY@@@Z
_TEXT	SEGMENT
_raw$ = -4						; size = 4
_en$ = 8						; size = 4
?destroy_local@@YGXPAUENTITY@@@Z PROC			; destroy_local, COMDAT

; 80   : {

  00000	55		 push	 ebp
  00001	8b ec		 mov	 ebp, esp
  00003	83 ec 44	 sub	 esp, 68			; 00000044H
  00006	53		 push	 ebx
  00007	56		 push	 esi
  00008	57		 push	 edi

; 81   : 	guide
; 82   : 		*raw;
; 83   : 
; 84   : 	////////////////////////////////////////
; 85   : 	//
; 86   : 	// PRE-AMBLE
; 87   : 	//
; 88   : 	////////////////////////////////////////
; 89   : 
; 90   : 	#if DEBUG_MODULE
; 91   : 
; 92   : 	debug_log_entity_args (ENTITY_DEBUG_LOCAL, ENTITY_DEBUG_DESTROY, en);
; 93   : 
; 94   : 	#endif
; 95   : 
; 96   : 	raw = (guide *) get_local_entity_data (en);

  00009	8b 45 08	 mov	 eax, DWORD PTR _en$[ebp]
  0000c	8b 48 04	 mov	 ecx, DWORD PTR [eax+4]
  0000f	89 4d fc	 mov	 DWORD PTR _raw$[ebp], ecx

; 97   : 
; 98   : 	////////////////////////////////////////
; 99   : 	//
; 100  : 	// VALIDATE
; 101  : 	//
; 102  : 	////////////////////////////////////////
; 103  : 
; 104  : 	////////////////////////////////////////
; 105  : 	//
; 106  : 	// DESTROY COMPONENTS
; 107  : 	//
; 108  : 	////////////////////////////////////////
; 109  : 
; 110  : 	////////////////////////////////////////
; 111  : 	//
; 112  : 	// UNLINK FROM SYSTEM
; 113  : 	//
; 114  : 	////////////////////////////////////////
; 115  : 
; 116  : 	unlink_local_entity_children (en, LIST_TYPE_FOLLOWER);

  00012	6a 0d		 push	 13			; 0000000dH
  00014	8b 45 08	 mov	 eax, DWORD PTR _en$[ebp]
  00017	50		 push	 eax
  00018	e8 00 00 00 00	 call	 ?unlink_local_entity_children@@YGXPAUENTITY@@W4LIST_TYPES@@@Z ; unlink_local_entity_children

; 117  : 
; 118  : 	delete_local_entity_from_parents_child_list (en, LIST_TYPE_CURRENT_WAYPOINT);

  0001d	6a 09		 push	 9
  0001f	8b 45 08	 mov	 eax, DWORD PTR _en$[ebp]
  00022	50		 push	 eax
  00023	e8 00 00 00 00	 call	 ?delete_local_entity_from_parents_child_list@@YGXPAUENTITY@@W4LIST_TYPES@@@Z ; delete_local_entity_from_parents_child_list

; 119  : 
; 120  : 	delete_local_entity_from_parents_child_list (en, LIST_TYPE_GUIDE);

  00028	6a 10		 push	 16			; 00000010H
  0002a	8b 45 08	 mov	 eax, DWORD PTR _en$[ebp]
  0002d	50		 push	 eax
  0002e	e8 00 00 00 00	 call	 ?delete_local_entity_from_parents_child_list@@YGXPAUENTITY@@W4LIST_TYPES@@@Z ; delete_local_entity_from_parents_child_list

; 121  : 
; 122  : 	delete_local_entity_from_parents_child_list (en, LIST_TYPE_GUIDE_STACK);

  00033	6a 11		 push	 17			; 00000011H
  00035	8b 45 08	 mov	 eax, DWORD PTR _en$[ebp]
  00038	50		 push	 eax
  00039	e8 00 00 00 00	 call	 ?delete_local_entity_from_parents_child_list@@YGXPAUENTITY@@W4LIST_TYPES@@@Z ; delete_local_entity_from_parents_child_list

; 123  : 
; 124  : 	delete_local_entity_from_parents_child_list (en, LIST_TYPE_UPDATE);

  0003e	6a 29		 push	 41			; 00000029H
  00040	8b 45 08	 mov	 eax, DWORD PTR _en$[ebp]
  00043	50		 push	 eax
  00044	e8 00 00 00 00	 call	 ?delete_local_entity_from_parents_child_list@@YGXPAUENTITY@@W4LIST_TYPES@@@Z ; delete_local_entity_from_parents_child_list

; 125  : 
; 126  : 	////////////////////////////////////////
; 127  : 	//
; 128  : 	// FREE ENTITY DATA
; 129  : 	//
; 130  : 	////////////////////////////////////////
; 131  : 
; 132  : 	if (raw->terrain_polygon_list)

  00049	8b 45 fc	 mov	 eax, DWORD PTR _raw$[ebp]
  0004c	83 b8 90 00 00
	00 00		 cmp	 DWORD PTR [eax+144], 0
  00053	74 0f		 je	 SHORT $LN2@destroy_lo

; 133  : 	{
; 134  : 		free_mem (raw->terrain_polygon_list);

  00055	8b 45 fc	 mov	 eax, DWORD PTR _raw$[ebp]
  00058	8b 88 90 00 00
	00		 mov	 ecx, DWORD PTR [eax+144]
  0005e	51		 push	 ecx
  0005f	e8 00 00 00 00	 call	 ?free_mem@@YGXPAX@Z	; free_mem
$LN2@destroy_lo:

; 135  : 	}
; 136  : 
; 137  : 	free_mem (raw);

  00064	8b 45 fc	 mov	 eax, DWORD PTR _raw$[ebp]
  00067	50		 push	 eax
  00068	e8 00 00 00 00	 call	 ?free_mem@@YGXPAX@Z	; free_mem

; 138  : 
; 139  : 	set_free_entity (en);

  0006d	8b 45 08	 mov	 eax, DWORD PTR _en$[ebp]
  00070	50		 push	 eax
  00071	e8 00 00 00 00	 call	 ?set_free_entity@@YGXPAUENTITY@@@Z ; set_free_entity

; 140  : }

  00076	5f		 pop	 edi
  00077	5e		 pop	 esi
  00078	5b		 pop	 ebx
  00079	8b e5		 mov	 esp, ebp
  0007b	5d		 pop	 ebp
  0007c	c2 04 00	 ret	 4
?destroy_local@@YGXPAUENTITY@@@Z ENDP			; destroy_local
_TEXT	ENDS
; Function compile flags: /Odtp /ZI
; File c:\users\nhv90\projects\eech\aphavoc\source\entity\special\guide\gd_dstry.c
;	COMDAT ?overload_guide_destroy_functions@@YGXXZ
_TEXT	SEGMENT
?overload_guide_destroy_functions@@YGXXZ PROC		; overload_guide_destroy_functions, COMDAT

; 209  : {

  00000	55		 push	 ebp
  00001	8b ec		 mov	 ebp, esp
  00003	83 ec 40	 sub	 esp, 64			; 00000040H
  00006	53		 push	 ebx
  00007	56		 push	 esi
  00008	57		 push	 edi

; 210  : 	fn_destroy_local_entity						[ENTITY_TYPE_GUIDE]								= destroy_local;

  00009	b8 04 00 00 00	 mov	 eax, 4
  0000e	6b c8 0d	 imul	 ecx, eax, 13
  00011	c7 81 00 00 00
	00 00 00 00 00	 mov	 DWORD PTR ?fn_destroy_local_entity@@3PAP6GXPAUENTITY@@@ZA[ecx], OFFSET ?destroy_local@@YGXPAUENTITY@@@Z ; destroy_local

; 211  : 	fn_destroy_client_server_entity			[ENTITY_TYPE_GUIDE][COMMS_MODEL_SERVER]	= destroy_server;

  0001b	b8 08 00 00 00	 mov	 eax, 8
  00020	6b c8 0d	 imul	 ecx, eax, 13
  00023	ba 04 00 00 00	 mov	 edx, 4
  00028	6b c2 00	 imul	 eax, edx, 0
  0002b	c7 84 01 00 00
	00 00 00 00 00
	00		 mov	 DWORD PTR ?fn_destroy_client_server_entity@@3PAY01P6GXPAUENTITY@@@ZA[ecx+eax], OFFSET ?destroy_server@@YGXPAUENTITY@@@Z ; destroy_server

; 212  : 	fn_destroy_client_server_entity			[ENTITY_TYPE_GUIDE][COMMS_MODEL_CLIENT]	= destroy_client;

  00036	b8 08 00 00 00	 mov	 eax, 8
  0003b	6b c8 0d	 imul	 ecx, eax, 13
  0003e	ba 04 00 00 00	 mov	 edx, 4
  00043	c1 e2 00	 shl	 edx, 0
  00046	c7 84 11 00 00
	00 00 00 00 00
	00		 mov	 DWORD PTR ?fn_destroy_client_server_entity@@3PAY01P6GXPAUENTITY@@@ZA[ecx+edx], OFFSET ?destroy_client@@YGXPAUENTITY@@@Z ; destroy_client

; 213  : 
; 214  : 	fn_destroy_local_entity_family			[ENTITY_TYPE_GUIDE]								= destroy_local;

  00051	b8 04 00 00 00	 mov	 eax, 4
  00056	6b c8 0d	 imul	 ecx, eax, 13
  00059	c7 81 00 00 00
	00 00 00 00 00	 mov	 DWORD PTR ?fn_destroy_local_entity_family@@3PAP6GXPAUENTITY@@@ZA[ecx], OFFSET ?destroy_local@@YGXPAUENTITY@@@Z ; destroy_local

; 215  : 	fn_destroy_client_server_entity_family	[ENTITY_TYPE_GUIDE][COMMS_MODEL_SERVER]	= destroy_server;

  00063	b8 08 00 00 00	 mov	 eax, 8
  00068	6b c8 0d	 imul	 ecx, eax, 13
  0006b	ba 04 00 00 00	 mov	 edx, 4
  00070	6b c2 00	 imul	 eax, edx, 0
  00073	c7 84 01 00 00
	00 00 00 00 00
	00		 mov	 DWORD PTR ?fn_destroy_client_server_entity_family@@3PAY01P6GXPAUENTITY@@@ZA[ecx+eax], OFFSET ?destroy_server@@YGXPAUENTITY@@@Z ; destroy_server

; 216  : 	fn_destroy_client_server_entity_family	[ENTITY_TYPE_GUIDE][COMMS_MODEL_CLIENT]	= destroy_client;

  0007e	b8 08 00 00 00	 mov	 eax, 8
  00083	6b c8 0d	 imul	 ecx, eax, 13
  00086	ba 04 00 00 00	 mov	 edx, 4
  0008b	c1 e2 00	 shl	 edx, 0
  0008e	c7 84 11 00 00
	00 00 00 00 00
	00		 mov	 DWORD PTR ?fn_destroy_client_server_entity_family@@3PAY01P6GXPAUENTITY@@@ZA[ecx+edx], OFFSET ?destroy_client@@YGXPAUENTITY@@@Z ; destroy_client

; 217  : 
; 218  : 	fn_kill_local_entity							[ENTITY_TYPE_GUIDE]								= destroy_local;

  00099	b8 04 00 00 00	 mov	 eax, 4
  0009e	6b c8 0d	 imul	 ecx, eax, 13
  000a1	c7 81 00 00 00
	00 00 00 00 00	 mov	 DWORD PTR ?fn_kill_local_entity@@3PAP6GXPAUENTITY@@@ZA[ecx], OFFSET ?destroy_local@@YGXPAUENTITY@@@Z ; destroy_local

; 219  : 	fn_kill_client_server_entity				[ENTITY_TYPE_GUIDE][COMMS_MODEL_SERVER]	= destroy_server;

  000ab	b8 08 00 00 00	 mov	 eax, 8
  000b0	6b c8 0d	 imul	 ecx, eax, 13
  000b3	ba 04 00 00 00	 mov	 edx, 4
  000b8	6b c2 00	 imul	 eax, edx, 0
  000bb	c7 84 01 00 00
	00 00 00 00 00
	00		 mov	 DWORD PTR ?fn_kill_client_server_entity@@3PAY01P6GXPAUENTITY@@@ZA[ecx+eax], OFFSET ?destroy_server@@YGXPAUENTITY@@@Z ; destroy_server

; 220  : 	fn_kill_client_server_entity				[ENTITY_TYPE_GUIDE][COMMS_MODEL_CLIENT]	= destroy_client;

  000c6	b8 08 00 00 00	 mov	 eax, 8
  000cb	6b c8 0d	 imul	 ecx, eax, 13
  000ce	ba 04 00 00 00	 mov	 edx, 4
  000d3	c1 e2 00	 shl	 edx, 0
  000d6	c7 84 11 00 00
	00 00 00 00 00
	00		 mov	 DWORD PTR ?fn_kill_client_server_entity@@3PAY01P6GXPAUENTITY@@@ZA[ecx+edx], OFFSET ?destroy_client@@YGXPAUENTITY@@@Z ; destroy_client

; 221  : }

  000e1	5f		 pop	 edi
  000e2	5e		 pop	 esi
  000e3	5b		 pop	 ebx
  000e4	8b e5		 mov	 esp, ebp
  000e6	5d		 pop	 ebp
  000e7	c3		 ret	 0
?overload_guide_destroy_functions@@YGXXZ ENDP		; overload_guide_destroy_functions
_TEXT	ENDS
END
