; Listing generated by Microsoft (R) Optimizing Compiler Version 19.16.27045.0 

	TITLE	C:\Users\nhv90\Projects\eech\aphavoc\source\entity\special\guide\gd_draw.c
	.686P
	.XMM
	include listing.inc
	.model	flat

INCLUDELIB MSVCRTD
INCLUDELIB OLDNAMES

PUBLIC	?draw_debug_guide_entity@@YGXPAUENTITY@@@Z	; draw_debug_guide_entity
PUBLIC	?__LINE__Var@?0??draw_debug_guide_entity@@YGXPAUENTITY@@@Z@4JA ; `draw_debug_guide_entity'::`1'::__LINE__Var
PUBLIC	??_C@_0EL@MAGCABGM@c?3?2users?2nhv90?2projects?2eech?2ap@ ; `string'
PUBLIC	??_C@_02LFNMGJAP@en@				; `string'
PUBLIC	??_C@_0O@LNFEJIDG@this_waypoint@		; `string'
PUBLIC	__real@0000000000000000
PUBLIC	__real@3f800000
EXTRN	?process_assert@@YGXPBD0H@Z:PROC		; process_assert
EXTRN	?get_3d_range@@YGMPBUVEC3D@@0@Z:PROC		; get_3d_range
EXTRN	?create_vectored_debug_3d_object@@YGPAUDEBUG_3D_OBJECT@@PAUVEC3D@@0HMM@Z:PROC ; create_vectored_debug_3d_object
EXTRN	?create_debug_3d_line@@YGPAUDEBUG_3D_LINE@@PAUVEC3D@@0UREAL_COLOUR@@M@Z:PROC ; create_debug_3d_line
EXTRN	?sys_col_yellow@@3UREAL_COLOUR@@A:DWORD		; sys_col_yellow
EXTRN	?sys_col_light_red@@3UREAL_COLOUR@@A:DWORD	; sys_col_light_red
EXTRN	?null_entity_pointer_message@@3PBDB:DWORD	; null_entity_pointer_message
EXTRN	?overload_invalid_list_type_message@@3PBDB:DWORD ; overload_invalid_list_type_message
EXTRN	?fn_get_local_entity_first_child@@3PAY0CN@P6GPAUENTITY@@PAU1@W4LIST_TYPES@@@ZA:BYTE ; fn_get_local_entity_first_child
EXTRN	?fn_get_local_entity_parent@@3PAY0CN@P6GPAUENTITY@@PAU1@W4LIST_TYPES@@@ZA:BYTE ; fn_get_local_entity_parent
EXTRN	?fn_get_local_entity_child_succ@@3PAY0CN@P6GPAUENTITY@@PAU1@W4LIST_TYPES@@@ZA:BYTE ; fn_get_local_entity_child_succ
EXTRN	?overload_invalid_int_type_message@@3PBDB:DWORD	; overload_invalid_int_type_message
EXTRN	?fn_get_local_entity_int_value@@3PAY0BBH@P6GHPAUENTITY@@W4INT_TYPES@@@ZA:BYTE ; fn_get_local_entity_int_value
EXTRN	?overload_invalid_vec3d_type_message@@3PBDB:DWORD ; overload_invalid_vec3d_type_message
EXTRN	?fn_get_local_entity_vec3d@@3PAY0BI@P6GXPAUENTITY@@W4VEC3D_TYPES@@PAUVEC3D@@@ZA:BYTE ; fn_get_local_entity_vec3d
EXTRN	?fn_get_local_entity_vec3d_ptr@@3PAY0BI@P6GPAUVEC3D@@PAUENTITY@@W4VEC3D_TYPES@@@ZA:BYTE ; fn_get_local_entity_vec3d_ptr
EXTRN	__fltused:DWORD
;	COMDAT __real@3f800000
CONST	SEGMENT
__real@3f800000 DD 03f800000r			; 1
CONST	ENDS
;	COMDAT __real@0000000000000000
CONST	SEGMENT
__real@0000000000000000 DQ 00000000000000000r	; 0
CONST	ENDS
;	COMDAT ??_C@_0O@LNFEJIDG@this_waypoint@
CONST	SEGMENT
??_C@_0O@LNFEJIDG@this_waypoint@ DB 'this_waypoint', 00H ; `string'
CONST	ENDS
;	COMDAT ??_C@_02LFNMGJAP@en@
CONST	SEGMENT
??_C@_02LFNMGJAP@en@ DB 'en', 00H			; `string'
CONST	ENDS
;	COMDAT ??_C@_0EL@MAGCABGM@c?3?2users?2nhv90?2projects?2eech?2ap@
CONST	SEGMENT
??_C@_0EL@MAGCABGM@c?3?2users?2nhv90?2projects?2eech?2ap@ DB 'c:\users\nh'
	DB	'v90\projects\eech\aphavoc\source\entity\special\guide\gd_draw'
	DB	'.c', 00H					; `string'
CONST	ENDS
;	COMDAT ?__LINE__Var@?0??draw_debug_guide_entity@@YGXPAUENTITY@@@Z@4JA
_DATA	SEGMENT
?__LINE__Var@?0??draw_debug_guide_entity@@YGXPAUENTITY@@@Z@4JA DD 050H ; `draw_debug_guide_entity'::`1'::__LINE__Var
_DATA	ENDS
; Function compile flags: /Odtp /ZI
; File c:\users\nhv90\projects\eech\aphavoc\source\entity\special\guide\gd_draw.c
;	COMDAT ?draw_debug_guide_entity@@YGXPAUENTITY@@@Z
_TEXT	SEGMENT
tv264 = -120						; size = 4
tv235 = -120						; size = 4
tv214 = -120						; size = 4
tv185 = -120						; size = 4
tv164 = -120						; size = 4
tv136 = -120						; size = 4
tv84 = -120						; size = 4
tv256 = -116						; size = 4
tv227 = -116						; size = 4
tv206 = -116						; size = 4
tv177 = -116						; size = 4
tv157 = -116						; size = 4
tv128 = -116						; size = 4
tv76 = -116						; size = 4
_length$ = -48						; size = 4
_this_waypoint_position$ = -44				; size = 4
_member_pos$ = -40					; size = 4
_guide_pos$ = -36					; size = 12
_direction$ = -24					; size = 12
_this_waypoint$ = -12					; size = 4
_member$ = -8						; size = 4
_raw$ = -4						; size = 4
_en$ = 8						; size = 4
?draw_debug_guide_entity@@YGXPAUENTITY@@@Z PROC		; draw_debug_guide_entity, COMDAT

; 80   : {

  00000	55		 push	 ebp
  00001	8b ec		 mov	 ebp, esp
  00003	83 ec 78	 sub	 esp, 120		; 00000078H
  00006	53		 push	 ebx
  00007	56		 push	 esi
  00008	57		 push	 edi

; 81   : 
; 82   : 	waypoint
; 83   : 		*raw;
; 84   : 
; 85   : 	entity
; 86   : 		*member,
; 87   : 		*this_waypoint;
; 88   : 
; 89   : 	vec3d
; 90   : 		direction,
; 91   : 		guide_pos,
; 92   : 		*member_pos,
; 93   : 		*this_waypoint_position;
; 94   : 
; 95   : 	float
; 96   : 		length;
; 97   : 
; 98   : 	ASSERT (en);

  00009	83 7d 08 00	 cmp	 DWORD PTR _en$[ebp], 0
  0000d	75 18		 jne	 SHORT $LN4@draw_debug
  0000f	a1 00 00 00 00	 mov	 eax, DWORD PTR ?__LINE__Var@?0??draw_debug_guide_entity@@YGXPAUENTITY@@@Z@4JA
  00014	83 c0 12	 add	 eax, 18			; 00000012H
  00017	50		 push	 eax
  00018	68 00 00 00 00	 push	 OFFSET ??_C@_0EL@MAGCABGM@c?3?2users?2nhv90?2projects?2eech?2ap@
  0001d	68 00 00 00 00	 push	 OFFSET ??_C@_02LFNMGJAP@en@
  00022	e8 00 00 00 00	 call	 ?process_assert@@YGXPBD0H@Z ; process_assert
$LN4@draw_debug:

; 99   : 
; 100  : 	raw = (waypoint *) get_local_entity_data (en);

  00027	8b 45 08	 mov	 eax, DWORD PTR _en$[ebp]
  0002a	8b 48 04	 mov	 ecx, DWORD PTR [eax+4]
  0002d	89 4d fc	 mov	 DWORD PTR _raw$[ebp], ecx

; 101  : 
; 102  : 	//
; 103  : 	// get guide position
; 104  : 	//
; 105  : 
; 106  : 	get_local_entity_vec3d (en, VEC3D_TYPE_GUIDE_POSITION, &guide_pos);

  00030	83 7d 08 00	 cmp	 DWORD PTR _en$[ebp], 0
  00034	74 0a		 je	 SHORT $LN10@draw_debug
  00036	8b 45 08	 mov	 eax, DWORD PTR _en$[ebp]
  00039	8b 08		 mov	 ecx, DWORD PTR [eax]
  0003b	89 4d 8c	 mov	 DWORD PTR tv76[ebp], ecx
  0003e	eb 21		 jmp	 SHORT $LN11@draw_debug
$LN10@draw_debug:
  00040	8b 15 00 00 00
	00		 mov	 edx, DWORD PTR ?__LINE__Var@?0??draw_debug_guide_entity@@YGXPAUENTITY@@@Z@4JA
  00046	83 c2 1a	 add	 edx, 26			; 0000001aH
  00049	52		 push	 edx
  0004a	68 00 00 00 00	 push	 OFFSET ??_C@_0EL@MAGCABGM@c?3?2users?2nhv90?2projects?2eech?2ap@
  0004f	a1 00 00 00 00	 mov	 eax, DWORD PTR ?null_entity_pointer_message@@3PBDB ; null_entity_pointer_message
  00054	50		 push	 eax
  00055	e8 00 00 00 00	 call	 ?process_assert@@YGXPBD0H@Z ; process_assert
  0005a	c7 45 8c 00 00
	00 00		 mov	 DWORD PTR tv76[ebp], 0
$LN11@draw_debug:
  00061	b9 01 00 00 00	 mov	 ecx, 1
  00066	85 c9		 test	 ecx, ecx
  00068	74 09		 je	 SHORT $LN12@draw_debug
  0006a	c7 45 88 04 00
	00 00		 mov	 DWORD PTR tv84[ebp], 4
  00071	eb 21		 jmp	 SHORT $LN13@draw_debug
$LN12@draw_debug:
  00073	8b 15 00 00 00
	00		 mov	 edx, DWORD PTR ?__LINE__Var@?0??draw_debug_guide_entity@@YGXPAUENTITY@@@Z@4JA
  00079	83 c2 1a	 add	 edx, 26			; 0000001aH
  0007c	52		 push	 edx
  0007d	68 00 00 00 00	 push	 OFFSET ??_C@_0EL@MAGCABGM@c?3?2users?2nhv90?2projects?2eech?2ap@
  00082	a1 00 00 00 00	 mov	 eax, DWORD PTR ?overload_invalid_vec3d_type_message@@3PBDB ; overload_invalid_vec3d_type_message
  00087	50		 push	 eax
  00088	e8 00 00 00 00	 call	 ?process_assert@@YGXPBD0H@Z ; process_assert
  0008d	c7 45 88 00 00
	00 00		 mov	 DWORD PTR tv84[ebp], 0
$LN13@draw_debug:
  00094	8d 4d dc	 lea	 ecx, DWORD PTR _guide_pos$[ebp]
  00097	51		 push	 ecx
  00098	6a 04		 push	 4
  0009a	8b 55 08	 mov	 edx, DWORD PTR _en$[ebp]
  0009d	52		 push	 edx
  0009e	6b 45 8c 60	 imul	 eax, DWORD PTR tv76[ebp], 96
  000a2	8b 4d 88	 mov	 ecx, DWORD PTR tv84[ebp]
  000a5	8b 94 88 00 00
	00 00		 mov	 edx, DWORD PTR ?fn_get_local_entity_vec3d@@3PAY0BI@P6GXPAUENTITY@@W4VEC3D_TYPES@@PAUVEC3D@@@ZA[eax+ecx*4]
  000ac	ff d2		 call	 edx

; 107  : 
; 108  : 	//
; 109  : 	// get waypoint position
; 110  : 	//
; 111  : 
; 112  : 	this_waypoint_position = NULL;

  000ae	c7 45 d4 00 00
	00 00		 mov	 DWORD PTR _this_waypoint_position$[ebp], 0

; 113  : 
; 114  : 	this_waypoint = get_local_entity_parent (en, LIST_TYPE_CURRENT_WAYPOINT);

  000b5	83 7d 08 00	 cmp	 DWORD PTR _en$[ebp], 0
  000b9	74 0a		 je	 SHORT $LN14@draw_debug
  000bb	8b 45 08	 mov	 eax, DWORD PTR _en$[ebp]
  000be	8b 08		 mov	 ecx, DWORD PTR [eax]
  000c0	89 4d 8c	 mov	 DWORD PTR tv128[ebp], ecx
  000c3	eb 21		 jmp	 SHORT $LN15@draw_debug
$LN14@draw_debug:
  000c5	8b 15 00 00 00
	00		 mov	 edx, DWORD PTR ?__LINE__Var@?0??draw_debug_guide_entity@@YGXPAUENTITY@@@Z@4JA
  000cb	83 c2 22	 add	 edx, 34			; 00000022H
  000ce	52		 push	 edx
  000cf	68 00 00 00 00	 push	 OFFSET ??_C@_0EL@MAGCABGM@c?3?2users?2nhv90?2projects?2eech?2ap@
  000d4	a1 00 00 00 00	 mov	 eax, DWORD PTR ?null_entity_pointer_message@@3PBDB ; null_entity_pointer_message
  000d9	50		 push	 eax
  000da	e8 00 00 00 00	 call	 ?process_assert@@YGXPBD0H@Z ; process_assert
  000df	c7 45 8c 00 00
	00 00		 mov	 DWORD PTR tv128[ebp], 0
$LN15@draw_debug:
  000e6	b9 01 00 00 00	 mov	 ecx, 1
  000eb	85 c9		 test	 ecx, ecx
  000ed	74 09		 je	 SHORT $LN16@draw_debug
  000ef	c7 45 88 09 00
	00 00		 mov	 DWORD PTR tv136[ebp], 9
  000f6	eb 21		 jmp	 SHORT $LN17@draw_debug
$LN16@draw_debug:
  000f8	8b 15 00 00 00
	00		 mov	 edx, DWORD PTR ?__LINE__Var@?0??draw_debug_guide_entity@@YGXPAUENTITY@@@Z@4JA
  000fe	83 c2 22	 add	 edx, 34			; 00000022H
  00101	52		 push	 edx
  00102	68 00 00 00 00	 push	 OFFSET ??_C@_0EL@MAGCABGM@c?3?2users?2nhv90?2projects?2eech?2ap@
  00107	a1 00 00 00 00	 mov	 eax, DWORD PTR ?overload_invalid_list_type_message@@3PBDB ; overload_invalid_list_type_message
  0010c	50		 push	 eax
  0010d	e8 00 00 00 00	 call	 ?process_assert@@YGXPBD0H@Z ; process_assert
  00112	c7 45 88 00 00
	00 00		 mov	 DWORD PTR tv136[ebp], 0
$LN17@draw_debug:
  00119	6a 09		 push	 9
  0011b	8b 4d 08	 mov	 ecx, DWORD PTR _en$[ebp]
  0011e	51		 push	 ecx
  0011f	69 55 8c b4 00
	00 00		 imul	 edx, DWORD PTR tv128[ebp], 180
  00126	8b 45 88	 mov	 eax, DWORD PTR tv136[ebp]
  00129	8b 8c 82 00 00
	00 00		 mov	 ecx, DWORD PTR ?fn_get_local_entity_parent@@3PAY0CN@P6GPAUENTITY@@PAU1@W4LIST_TYPES@@@ZA[edx+eax*4]
  00130	ff d1		 call	 ecx
  00132	89 45 f4	 mov	 DWORD PTR _this_waypoint$[ebp], eax

; 115  : 
; 116  : 	ASSERT (this_waypoint);

  00135	83 7d f4 00	 cmp	 DWORD PTR _this_waypoint$[ebp], 0
  00139	75 18		 jne	 SHORT $LN5@draw_debug
  0013b	a1 00 00 00 00	 mov	 eax, DWORD PTR ?__LINE__Var@?0??draw_debug_guide_entity@@YGXPAUENTITY@@@Z@4JA
  00140	83 c0 24	 add	 eax, 36			; 00000024H
  00143	50		 push	 eax
  00144	68 00 00 00 00	 push	 OFFSET ??_C@_0EL@MAGCABGM@c?3?2users?2nhv90?2projects?2eech?2ap@
  00149	68 00 00 00 00	 push	 OFFSET ??_C@_0O@LNFEJIDG@this_waypoint@
  0014e	e8 00 00 00 00	 call	 ?process_assert@@YGXPBD0H@Z ; process_assert
$LN5@draw_debug:

; 117  : 
; 118  : 	//
; 119  : 	// draw guide position
; 120  : 	//
; 121  : 
; 122  : 	direction.x = 0.0;

  00153	0f 57 c0	 xorps	 xmm0, xmm0
  00156	f3 0f 11 45 e8	 movss	 DWORD PTR _direction$[ebp], xmm0

; 123  : 	direction.y = 1.0;

  0015b	f3 0f 10 05 00
	00 00 00	 movss	 xmm0, DWORD PTR __real@3f800000
  00163	f3 0f 11 45 ec	 movss	 DWORD PTR _direction$[ebp+4], xmm0

; 124  : 	direction.z = 0.0;

  00168	0f 57 c0	 xorps	 xmm0, xmm0
  0016b	f3 0f 11 45 f0	 movss	 DWORD PTR _direction$[ebp+8], xmm0

; 125  : 		
; 126  : 	create_vectored_debug_3d_object (&guide_pos, &direction, OBJECT_3D_SPHERICAL_TEST, 0.0, 1.0);

  00170	51		 push	 ecx
  00171	f3 0f 10 05 00
	00 00 00	 movss	 xmm0, DWORD PTR __real@3f800000
  00179	f3 0f 11 04 24	 movss	 DWORD PTR [esp], xmm0
  0017e	51		 push	 ecx
  0017f	0f 57 c0	 xorps	 xmm0, xmm0
  00182	f3 0f 11 04 24	 movss	 DWORD PTR [esp], xmm0
  00187	68 68 0a 00 00	 push	 2664			; 00000a68H
  0018c	8d 45 e8	 lea	 eax, DWORD PTR _direction$[ebp]
  0018f	50		 push	 eax
  00190	8d 4d dc	 lea	 ecx, DWORD PTR _guide_pos$[ebp]
  00193	51		 push	 ecx
  00194	e8 00 00 00 00	 call	 ?create_vectored_debug_3d_object@@YGPAUDEBUG_3D_OBJECT@@PAUVEC3D@@0HMM@Z ; create_vectored_debug_3d_object

; 127  : 
; 128  : 	if (get_local_entity_int_value (this_waypoint, INT_TYPE_POSITION_TYPE) != POSITION_TYPE_VIRTUAL)

  00199	83 7d f4 00	 cmp	 DWORD PTR _this_waypoint$[ebp], 0
  0019d	74 0a		 je	 SHORT $LN18@draw_debug
  0019f	8b 45 f4	 mov	 eax, DWORD PTR _this_waypoint$[ebp]
  001a2	8b 08		 mov	 ecx, DWORD PTR [eax]
  001a4	89 4d 8c	 mov	 DWORD PTR tv157[ebp], ecx
  001a7	eb 1d		 jmp	 SHORT $LN19@draw_debug
$LN18@draw_debug:
  001a9	68 80 00 00 00	 push	 128			; 00000080H
  001ae	68 00 00 00 00	 push	 OFFSET ??_C@_0EL@MAGCABGM@c?3?2users?2nhv90?2projects?2eech?2ap@
  001b3	8b 15 00 00 00
	00		 mov	 edx, DWORD PTR ?null_entity_pointer_message@@3PBDB ; null_entity_pointer_message
  001b9	52		 push	 edx
  001ba	e8 00 00 00 00	 call	 ?process_assert@@YGXPBD0H@Z ; process_assert
  001bf	c7 45 8c 00 00
	00 00		 mov	 DWORD PTR tv157[ebp], 0
$LN19@draw_debug:
  001c6	b8 01 00 00 00	 mov	 eax, 1
  001cb	85 c0		 test	 eax, eax
  001cd	74 09		 je	 SHORT $LN20@draw_debug
  001cf	c7 45 88 a1 00
	00 00		 mov	 DWORD PTR tv164[ebp], 161 ; 000000a1H
  001d6	eb 1d		 jmp	 SHORT $LN21@draw_debug
$LN20@draw_debug:
  001d8	68 80 00 00 00	 push	 128			; 00000080H
  001dd	68 00 00 00 00	 push	 OFFSET ??_C@_0EL@MAGCABGM@c?3?2users?2nhv90?2projects?2eech?2ap@
  001e2	8b 0d 00 00 00
	00		 mov	 ecx, DWORD PTR ?overload_invalid_int_type_message@@3PBDB ; overload_invalid_int_type_message
  001e8	51		 push	 ecx
  001e9	e8 00 00 00 00	 call	 ?process_assert@@YGXPBD0H@Z ; process_assert
  001ee	c7 45 88 00 00
	00 00		 mov	 DWORD PTR tv164[ebp], 0
$LN21@draw_debug:
  001f5	68 a1 00 00 00	 push	 161			; 000000a1H
  001fa	8b 55 f4	 mov	 edx, DWORD PTR _this_waypoint$[ebp]
  001fd	52		 push	 edx
  001fe	69 45 8c 5c 04
	00 00		 imul	 eax, DWORD PTR tv157[ebp], 1116
  00205	8b 4d 88	 mov	 ecx, DWORD PTR tv164[ebp]
  00208	8b 94 88 00 00
	00 00		 mov	 edx, DWORD PTR ?fn_get_local_entity_int_value@@3PAY0BBH@P6GHPAUENTITY@@W4INT_TYPES@@@ZA[eax+ecx*4]
  0020f	ff d2		 call	 edx
  00211	83 f8 02	 cmp	 eax, 2
  00214	0f 84 b8 00 00
	00		 je	 $LN7@draw_debug

; 129  : 	{
; 130  : 		this_waypoint_position = get_local_entity_vec3d_ptr (this_waypoint, VEC3D_TYPE_POSITION);

  0021a	83 7d f4 00	 cmp	 DWORD PTR _this_waypoint$[ebp], 0
  0021e	74 0a		 je	 SHORT $LN22@draw_debug
  00220	8b 45 f4	 mov	 eax, DWORD PTR _this_waypoint$[ebp]
  00223	8b 08		 mov	 ecx, DWORD PTR [eax]
  00225	89 4d 8c	 mov	 DWORD PTR tv177[ebp], ecx
  00228	eb 21		 jmp	 SHORT $LN23@draw_debug
$LN22@draw_debug:
  0022a	8b 15 00 00 00
	00		 mov	 edx, DWORD PTR ?__LINE__Var@?0??draw_debug_guide_entity@@YGXPAUENTITY@@@Z@4JA
  00230	83 c2 32	 add	 edx, 50			; 00000032H
  00233	52		 push	 edx
  00234	68 00 00 00 00	 push	 OFFSET ??_C@_0EL@MAGCABGM@c?3?2users?2nhv90?2projects?2eech?2ap@
  00239	a1 00 00 00 00	 mov	 eax, DWORD PTR ?null_entity_pointer_message@@3PBDB ; null_entity_pointer_message
  0023e	50		 push	 eax
  0023f	e8 00 00 00 00	 call	 ?process_assert@@YGXPBD0H@Z ; process_assert
  00244	c7 45 8c 00 00
	00 00		 mov	 DWORD PTR tv177[ebp], 0
$LN23@draw_debug:
  0024b	b9 01 00 00 00	 mov	 ecx, 1
  00250	85 c9		 test	 ecx, ecx
  00252	74 09		 je	 SHORT $LN24@draw_debug
  00254	c7 45 88 08 00
	00 00		 mov	 DWORD PTR tv185[ebp], 8
  0025b	eb 21		 jmp	 SHORT $LN25@draw_debug
$LN24@draw_debug:
  0025d	8b 15 00 00 00
	00		 mov	 edx, DWORD PTR ?__LINE__Var@?0??draw_debug_guide_entity@@YGXPAUENTITY@@@Z@4JA
  00263	83 c2 32	 add	 edx, 50			; 00000032H
  00266	52		 push	 edx
  00267	68 00 00 00 00	 push	 OFFSET ??_C@_0EL@MAGCABGM@c?3?2users?2nhv90?2projects?2eech?2ap@
  0026c	a1 00 00 00 00	 mov	 eax, DWORD PTR ?overload_invalid_vec3d_type_message@@3PBDB ; overload_invalid_vec3d_type_message
  00271	50		 push	 eax
  00272	e8 00 00 00 00	 call	 ?process_assert@@YGXPBD0H@Z ; process_assert
  00277	c7 45 88 00 00
	00 00		 mov	 DWORD PTR tv185[ebp], 0
$LN25@draw_debug:
  0027e	6a 08		 push	 8
  00280	8b 4d f4	 mov	 ecx, DWORD PTR _this_waypoint$[ebp]
  00283	51		 push	 ecx
  00284	6b 55 8c 60	 imul	 edx, DWORD PTR tv177[ebp], 96
  00288	8b 45 88	 mov	 eax, DWORD PTR tv185[ebp]
  0028b	8b 8c 82 00 00
	00 00		 mov	 ecx, DWORD PTR ?fn_get_local_entity_vec3d_ptr@@3PAY0BI@P6GPAUVEC3D@@PAUENTITY@@W4VEC3D_TYPES@@@ZA[edx+eax*4]
  00292	ff d1		 call	 ecx
  00294	89 45 d4	 mov	 DWORD PTR _this_waypoint_position$[ebp], eax

; 131  : 
; 132  : 		length = get_3d_range (&guide_pos, this_waypoint_position);

  00297	8b 45 d4	 mov	 eax, DWORD PTR _this_waypoint_position$[ebp]
  0029a	50		 push	 eax
  0029b	8d 4d dc	 lea	 ecx, DWORD PTR _guide_pos$[ebp]
  0029e	51		 push	 ecx
  0029f	e8 00 00 00 00	 call	 ?get_3d_range@@YGMPBUVEC3D@@0@Z ; get_3d_range
  002a4	d9 5d d0	 fstp	 DWORD PTR _length$[ebp]

; 133  : 
; 134  : 		if (length > 0.0)

  002a7	f3 0f 5a 45 d0	 cvtss2sd xmm0, DWORD PTR _length$[ebp]
  002ac	66 0f 2f 05 00
	00 00 00	 comisd	 xmm0, QWORD PTR __real@0000000000000000
  002b4	76 1c		 jbe	 SHORT $LN7@draw_debug

; 135  : 		{
; 136  : 			create_debug_3d_line (&guide_pos, this_waypoint_position, sys_col_yellow, 0.0);

  002b6	51		 push	 ecx
  002b7	0f 57 c0	 xorps	 xmm0, xmm0
  002ba	f3 0f 11 04 24	 movss	 DWORD PTR [esp], xmm0
  002bf	a1 00 00 00 00	 mov	 eax, DWORD PTR ?sys_col_yellow@@3UREAL_COLOUR@@A ; sys_col_yellow
  002c4	50		 push	 eax
  002c5	8b 4d d4	 mov	 ecx, DWORD PTR _this_waypoint_position$[ebp]
  002c8	51		 push	 ecx
  002c9	8d 55 dc	 lea	 edx, DWORD PTR _guide_pos$[ebp]
  002cc	52		 push	 edx
  002cd	e8 00 00 00 00	 call	 ?create_debug_3d_line@@YGPAUDEBUG_3D_LINE@@PAUVEC3D@@0UREAL_COLOUR@@M@Z ; create_debug_3d_line
$LN7@draw_debug:

; 137  : 		}
; 138  : 	}
; 139  : 
; 140  : 	//
; 141  : 	// draw vector to group position
; 142  : 	//
; 143  : 
; 144  : 	member = get_local_entity_first_child (en, LIST_TYPE_FOLLOWER);

  002d2	83 7d 08 00	 cmp	 DWORD PTR _en$[ebp], 0
  002d6	74 0a		 je	 SHORT $LN26@draw_debug
  002d8	8b 45 08	 mov	 eax, DWORD PTR _en$[ebp]
  002db	8b 08		 mov	 ecx, DWORD PTR [eax]
  002dd	89 4d 8c	 mov	 DWORD PTR tv206[ebp], ecx
  002e0	eb 21		 jmp	 SHORT $LN27@draw_debug
$LN26@draw_debug:
  002e2	8b 15 00 00 00
	00		 mov	 edx, DWORD PTR ?__LINE__Var@?0??draw_debug_guide_entity@@YGXPAUENTITY@@@Z@4JA
  002e8	83 c2 40	 add	 edx, 64			; 00000040H
  002eb	52		 push	 edx
  002ec	68 00 00 00 00	 push	 OFFSET ??_C@_0EL@MAGCABGM@c?3?2users?2nhv90?2projects?2eech?2ap@
  002f1	a1 00 00 00 00	 mov	 eax, DWORD PTR ?null_entity_pointer_message@@3PBDB ; null_entity_pointer_message
  002f6	50		 push	 eax
  002f7	e8 00 00 00 00	 call	 ?process_assert@@YGXPBD0H@Z ; process_assert
  002fc	c7 45 8c 00 00
	00 00		 mov	 DWORD PTR tv206[ebp], 0
$LN27@draw_debug:
  00303	b9 01 00 00 00	 mov	 ecx, 1
  00308	85 c9		 test	 ecx, ecx
  0030a	74 09		 je	 SHORT $LN28@draw_debug
  0030c	c7 45 88 0d 00
	00 00		 mov	 DWORD PTR tv214[ebp], 13 ; 0000000dH
  00313	eb 21		 jmp	 SHORT $LN29@draw_debug
$LN28@draw_debug:
  00315	8b 15 00 00 00
	00		 mov	 edx, DWORD PTR ?__LINE__Var@?0??draw_debug_guide_entity@@YGXPAUENTITY@@@Z@4JA
  0031b	83 c2 40	 add	 edx, 64			; 00000040H
  0031e	52		 push	 edx
  0031f	68 00 00 00 00	 push	 OFFSET ??_C@_0EL@MAGCABGM@c?3?2users?2nhv90?2projects?2eech?2ap@
  00324	a1 00 00 00 00	 mov	 eax, DWORD PTR ?overload_invalid_list_type_message@@3PBDB ; overload_invalid_list_type_message
  00329	50		 push	 eax
  0032a	e8 00 00 00 00	 call	 ?process_assert@@YGXPBD0H@Z ; process_assert
  0032f	c7 45 88 00 00
	00 00		 mov	 DWORD PTR tv214[ebp], 0
$LN29@draw_debug:
  00336	6a 0d		 push	 13			; 0000000dH
  00338	8b 4d 08	 mov	 ecx, DWORD PTR _en$[ebp]
  0033b	51		 push	 ecx
  0033c	69 55 8c b4 00
	00 00		 imul	 edx, DWORD PTR tv206[ebp], 180
  00343	8b 45 88	 mov	 eax, DWORD PTR tv214[ebp]
  00346	8b 8c 82 00 00
	00 00		 mov	 ecx, DWORD PTR ?fn_get_local_entity_first_child@@3PAY0CN@P6GPAUENTITY@@PAU1@W4LIST_TYPES@@@ZA[edx+eax*4]
  0034d	ff d1		 call	 ecx
  0034f	89 45 f8	 mov	 DWORD PTR _member$[ebp], eax
$LN2@draw_debug:

; 145  : 
; 146  : 	while (member)

  00352	83 7d f8 00	 cmp	 DWORD PTR _member$[ebp], 0
  00356	0f 84 3d 01 00
	00		 je	 $LN3@draw_debug

; 147  : 	{
; 148  : 		member_pos = get_local_entity_vec3d_ptr (member, VEC3D_TYPE_POSITION);

  0035c	83 7d f8 00	 cmp	 DWORD PTR _member$[ebp], 0
  00360	74 0a		 je	 SHORT $LN30@draw_debug
  00362	8b 45 f8	 mov	 eax, DWORD PTR _member$[ebp]
  00365	8b 08		 mov	 ecx, DWORD PTR [eax]
  00367	89 4d 8c	 mov	 DWORD PTR tv227[ebp], ecx
  0036a	eb 21		 jmp	 SHORT $LN31@draw_debug
$LN30@draw_debug:
  0036c	8b 15 00 00 00
	00		 mov	 edx, DWORD PTR ?__LINE__Var@?0??draw_debug_guide_entity@@YGXPAUENTITY@@@Z@4JA
  00372	83 c2 44	 add	 edx, 68			; 00000044H
  00375	52		 push	 edx
  00376	68 00 00 00 00	 push	 OFFSET ??_C@_0EL@MAGCABGM@c?3?2users?2nhv90?2projects?2eech?2ap@
  0037b	a1 00 00 00 00	 mov	 eax, DWORD PTR ?null_entity_pointer_message@@3PBDB ; null_entity_pointer_message
  00380	50		 push	 eax
  00381	e8 00 00 00 00	 call	 ?process_assert@@YGXPBD0H@Z ; process_assert
  00386	c7 45 8c 00 00
	00 00		 mov	 DWORD PTR tv227[ebp], 0
$LN31@draw_debug:
  0038d	b9 01 00 00 00	 mov	 ecx, 1
  00392	85 c9		 test	 ecx, ecx
  00394	74 09		 je	 SHORT $LN32@draw_debug
  00396	c7 45 88 08 00
	00 00		 mov	 DWORD PTR tv235[ebp], 8
  0039d	eb 21		 jmp	 SHORT $LN33@draw_debug
$LN32@draw_debug:
  0039f	8b 15 00 00 00
	00		 mov	 edx, DWORD PTR ?__LINE__Var@?0??draw_debug_guide_entity@@YGXPAUENTITY@@@Z@4JA
  003a5	83 c2 44	 add	 edx, 68			; 00000044H
  003a8	52		 push	 edx
  003a9	68 00 00 00 00	 push	 OFFSET ??_C@_0EL@MAGCABGM@c?3?2users?2nhv90?2projects?2eech?2ap@
  003ae	a1 00 00 00 00	 mov	 eax, DWORD PTR ?overload_invalid_vec3d_type_message@@3PBDB ; overload_invalid_vec3d_type_message
  003b3	50		 push	 eax
  003b4	e8 00 00 00 00	 call	 ?process_assert@@YGXPBD0H@Z ; process_assert
  003b9	c7 45 88 00 00
	00 00		 mov	 DWORD PTR tv235[ebp], 0
$LN33@draw_debug:
  003c0	6a 08		 push	 8
  003c2	8b 4d f8	 mov	 ecx, DWORD PTR _member$[ebp]
  003c5	51		 push	 ecx
  003c6	6b 55 8c 60	 imul	 edx, DWORD PTR tv227[ebp], 96
  003ca	8b 45 88	 mov	 eax, DWORD PTR tv235[ebp]
  003cd	8b 8c 82 00 00
	00 00		 mov	 ecx, DWORD PTR ?fn_get_local_entity_vec3d_ptr@@3PAY0BI@P6GPAUVEC3D@@PAUENTITY@@W4VEC3D_TYPES@@@ZA[edx+eax*4]
  003d4	ff d1		 call	 ecx
  003d6	89 45 d8	 mov	 DWORD PTR _member_pos$[ebp], eax

; 149  : 		
; 150  : 		length = get_3d_range (&guide_pos, member_pos);

  003d9	8b 45 d8	 mov	 eax, DWORD PTR _member_pos$[ebp]
  003dc	50		 push	 eax
  003dd	8d 4d dc	 lea	 ecx, DWORD PTR _guide_pos$[ebp]
  003e0	51		 push	 ecx
  003e1	e8 00 00 00 00	 call	 ?get_3d_range@@YGMPBUVEC3D@@0@Z ; get_3d_range
  003e6	d9 5d d0	 fstp	 DWORD PTR _length$[ebp]

; 151  : 
; 152  : 		if (length > 0.0)

  003e9	f3 0f 5a 45 d0	 cvtss2sd xmm0, DWORD PTR _length$[ebp]
  003ee	66 0f 2f 05 00
	00 00 00	 comisd	 xmm0, QWORD PTR __real@0000000000000000
  003f6	76 1c		 jbe	 SHORT $LN8@draw_debug

; 153  : 		{
; 154  : 			create_debug_3d_line (&guide_pos, member_pos, sys_col_light_red, 0.0);

  003f8	51		 push	 ecx
  003f9	0f 57 c0	 xorps	 xmm0, xmm0
  003fc	f3 0f 11 04 24	 movss	 DWORD PTR [esp], xmm0
  00401	a1 00 00 00 00	 mov	 eax, DWORD PTR ?sys_col_light_red@@3UREAL_COLOUR@@A ; sys_col_light_red
  00406	50		 push	 eax
  00407	8b 4d d8	 mov	 ecx, DWORD PTR _member_pos$[ebp]
  0040a	51		 push	 ecx
  0040b	8d 55 dc	 lea	 edx, DWORD PTR _guide_pos$[ebp]
  0040e	52		 push	 edx
  0040f	e8 00 00 00 00	 call	 ?create_debug_3d_line@@YGPAUDEBUG_3D_LINE@@PAUVEC3D@@0UREAL_COLOUR@@M@Z ; create_debug_3d_line
$LN8@draw_debug:

; 155  : 		}
; 156  : 
; 157  : 		member = get_local_entity_child_succ (member, LIST_TYPE_FOLLOWER);

  00414	83 7d f8 00	 cmp	 DWORD PTR _member$[ebp], 0
  00418	74 0a		 je	 SHORT $LN34@draw_debug
  0041a	8b 45 f8	 mov	 eax, DWORD PTR _member$[ebp]
  0041d	8b 08		 mov	 ecx, DWORD PTR [eax]
  0041f	89 4d 8c	 mov	 DWORD PTR tv256[ebp], ecx
  00422	eb 21		 jmp	 SHORT $LN35@draw_debug
$LN34@draw_debug:
  00424	8b 15 00 00 00
	00		 mov	 edx, DWORD PTR ?__LINE__Var@?0??draw_debug_guide_entity@@YGXPAUENTITY@@@Z@4JA
  0042a	83 c2 4d	 add	 edx, 77			; 0000004dH
  0042d	52		 push	 edx
  0042e	68 00 00 00 00	 push	 OFFSET ??_C@_0EL@MAGCABGM@c?3?2users?2nhv90?2projects?2eech?2ap@
  00433	a1 00 00 00 00	 mov	 eax, DWORD PTR ?null_entity_pointer_message@@3PBDB ; null_entity_pointer_message
  00438	50		 push	 eax
  00439	e8 00 00 00 00	 call	 ?process_assert@@YGXPBD0H@Z ; process_assert
  0043e	c7 45 8c 00 00
	00 00		 mov	 DWORD PTR tv256[ebp], 0
$LN35@draw_debug:
  00445	b9 01 00 00 00	 mov	 ecx, 1
  0044a	85 c9		 test	 ecx, ecx
  0044c	74 09		 je	 SHORT $LN36@draw_debug
  0044e	c7 45 88 0d 00
	00 00		 mov	 DWORD PTR tv264[ebp], 13 ; 0000000dH
  00455	eb 21		 jmp	 SHORT $LN37@draw_debug
$LN36@draw_debug:
  00457	8b 15 00 00 00
	00		 mov	 edx, DWORD PTR ?__LINE__Var@?0??draw_debug_guide_entity@@YGXPAUENTITY@@@Z@4JA
  0045d	83 c2 4d	 add	 edx, 77			; 0000004dH
  00460	52		 push	 edx
  00461	68 00 00 00 00	 push	 OFFSET ??_C@_0EL@MAGCABGM@c?3?2users?2nhv90?2projects?2eech?2ap@
  00466	a1 00 00 00 00	 mov	 eax, DWORD PTR ?overload_invalid_list_type_message@@3PBDB ; overload_invalid_list_type_message
  0046b	50		 push	 eax
  0046c	e8 00 00 00 00	 call	 ?process_assert@@YGXPBD0H@Z ; process_assert
  00471	c7 45 88 00 00
	00 00		 mov	 DWORD PTR tv264[ebp], 0
$LN37@draw_debug:
  00478	6a 0d		 push	 13			; 0000000dH
  0047a	8b 4d f8	 mov	 ecx, DWORD PTR _member$[ebp]
  0047d	51		 push	 ecx
  0047e	69 55 8c b4 00
	00 00		 imul	 edx, DWORD PTR tv256[ebp], 180
  00485	8b 45 88	 mov	 eax, DWORD PTR tv264[ebp]
  00488	8b 8c 82 00 00
	00 00		 mov	 ecx, DWORD PTR ?fn_get_local_entity_child_succ@@3PAY0CN@P6GPAUENTITY@@PAU1@W4LIST_TYPES@@@ZA[edx+eax*4]
  0048f	ff d1		 call	 ecx
  00491	89 45 f8	 mov	 DWORD PTR _member$[ebp], eax

; 158  : 	}

  00494	e9 b9 fe ff ff	 jmp	 $LN2@draw_debug
$LN3@draw_debug:

; 159  : }

  00499	5f		 pop	 edi
  0049a	5e		 pop	 esi
  0049b	5b		 pop	 ebx
  0049c	8b e5		 mov	 esp, ebp
  0049e	5d		 pop	 ebp
  0049f	c2 04 00	 ret	 4
?draw_debug_guide_entity@@YGXPAUENTITY@@@Z ENDP		; draw_debug_guide_entity
_TEXT	ENDS
END
