; Listing generated by Microsoft (R) Optimizing Compiler Version 19.16.27045.0 

	TITLE	C:\Users\nhv90\Projects\eech\aphavoc\source\entity\special\guide\gd_vec3d.c
	.686P
	.XMM
	include listing.inc
	.model	flat

INCLUDELIB MSVCRTD
INCLUDELIB OLDNAMES

PUBLIC	?overload_guide_vec3d_functions@@YGXXZ		; overload_guide_vec3d_functions
PUBLIC	?__LINE__Var@?0??set_local_vec3d@@YGXPAUENTITY@@W4VEC3D_TYPES@@PAUVEC3D@@@Z@4JA ; `set_local_vec3d'::`1'::__LINE__Var
PUBLIC	??_C@_0EM@PKKDBKEI@c?3?2users?2nhv90?2projects?2eech?2ap@ ; `string'
PUBLIC	??_C@_01MHEDDDHA@v@				; `string'
PUBLIC	?__LINE__Var@?0??set_remote_vec3d@@YGXPAUENTITY@@W4VEC3D_TYPES@@PAUVEC3D@@@Z@4JA ; `set_remote_vec3d'::`1'::__LINE__Var
PUBLIC	?__LINE__Var@?0??set_server_vec3d@@YGXPAUENTITY@@W4VEC3D_TYPES@@PAUVEC3D@@@Z@4JA ; `set_server_vec3d'::`1'::__LINE__Var
PUBLIC	??_C@_0CB@CFOCLFOK@assert_client_server_local_fn?5?$CI@ ; `string'
PUBLIC	??_C@_0CC@BNNNEGEG@assert_client_server_remote_fn?5@ ; `string'
PUBLIC	?__LINE__Var@?0??set_client_vec3d@@YGXPAUENTITY@@W4VEC3D_TYPES@@PAUVEC3D@@@Z@4JA ; `set_client_vec3d'::`1'::__LINE__Var
PUBLIC	?__LINE__Var@?0??get_local_vec3d@@YGXPAUENTITY@@W4VEC3D_TYPES@@PAUVEC3D@@@Z@4JA ; `get_local_vec3d'::`1'::__LINE__Var
PUBLIC	?__LINE__Var@?0??get_local_vec3d_ptr@@YGPAUVEC3D@@PAUENTITY@@W4VEC3D_TYPES@@@Z@4JA ; `get_local_vec3d_ptr'::`1'::__LINE__Var
EXTRN	?process_assert@@YGXPBD0H@Z:PROC		; process_assert
EXTRN	?debug_fatal@@YAXPBDZZ:PROC			; debug_fatal
EXTRN	?transmit_entity_comms_message@@YAXW4ENTITY_COMMS_MESSAGES@@PAUENTITY@@ZZ:PROC ; transmit_entity_comms_message
EXTRN	?assert_client_server_local_fn@@YGHXZ:PROC	; assert_client_server_local_fn
EXTRN	?assert_client_server_remote_fn@@YGHXZ:PROC	; assert_client_server_remote_fn
EXTRN	?get_local_guide_position@@YGXPAUENTITY@@PAUVEC3D@@@Z:PROC ; get_local_guide_position
EXTRN	?null_entity_pointer_message@@3PBDB:DWORD	; null_entity_pointer_message
EXTRN	?entity_type_database@@3PAUENTITY_TYPE_DATA@@A:BYTE ; entity_type_database
EXTRN	?system_comms_data_flow@@3W4COMMS_DATA_FLOW_TYPES@@A:DWORD ; system_comms_data_flow
EXTRN	?vec3d_type_database@@3PAUVEC3D_TYPE_DATA@@A:BYTE ; vec3d_type_database
EXTRN	?debug_fatal_invalid_vec3d_type_message@@3PBDB:DWORD ; debug_fatal_invalid_vec3d_type_message
EXTRN	?fn_set_local_entity_raw_vec3d@@3PAY0BI@P6GXPAUENTITY@@W4VEC3D_TYPES@@PAUVEC3D@@@ZA:BYTE ; fn_set_local_entity_raw_vec3d
EXTRN	?fn_set_local_entity_vec3d@@3PAY0BI@P6GXPAUENTITY@@W4VEC3D_TYPES@@PAUVEC3D@@@ZA:BYTE ; fn_set_local_entity_vec3d
EXTRN	?fn_set_client_server_entity_vec3d@@3PAY1BI@1P6GXPAUENTITY@@W4VEC3D_TYPES@@PAUVEC3D@@@ZA:BYTE ; fn_set_client_server_entity_vec3d
EXTRN	?fn_get_local_entity_vec3d@@3PAY0BI@P6GXPAUENTITY@@W4VEC3D_TYPES@@PAUVEC3D@@@ZA:BYTE ; fn_get_local_entity_vec3d
EXTRN	?fn_get_local_entity_vec3d_ptr@@3PAY0BI@P6GPAUVEC3D@@PAUENTITY@@W4VEC3D_TYPES@@@ZA:BYTE ; fn_get_local_entity_vec3d_ptr
EXTRN	?entities@@3PAUENTITY@@A:DWORD			; entities
;	COMDAT ?__LINE__Var@?0??get_local_vec3d_ptr@@YGPAUVEC3D@@PAUENTITY@@W4VEC3D_TYPES@@@Z@4JA
_DATA	SEGMENT
?__LINE__Var@?0??get_local_vec3d_ptr@@YGPAUVEC3D@@PAUENTITY@@W4VEC3D_TYPES@@@Z@4JA DD 0eaH ; `get_local_vec3d_ptr'::`1'::__LINE__Var
_DATA	ENDS
;	COMDAT ?__LINE__Var@?0??get_local_vec3d@@YGXPAUENTITY@@W4VEC3D_TYPES@@PAUVEC3D@@@Z@4JA
_DATA	SEGMENT
?__LINE__Var@?0??get_local_vec3d@@YGXPAUENTITY@@W4VEC3D_TYPES@@PAUVEC3D@@@Z@4JA DD 0b8H ; `get_local_vec3d'::`1'::__LINE__Var
_DATA	ENDS
;	COMDAT ?__LINE__Var@?0??set_client_vec3d@@YGXPAUENTITY@@W4VEC3D_TYPES@@PAUVEC3D@@@Z@4JA
_DATA	SEGMENT
?__LINE__Var@?0??set_client_vec3d@@YGXPAUENTITY@@W4VEC3D_TYPES@@PAUVEC3D@@@Z@4JA DD 0a2H ; `set_client_vec3d'::`1'::__LINE__Var
_DATA	ENDS
;	COMDAT ??_C@_0CC@BNNNEGEG@assert_client_server_remote_fn?5@
CONST	SEGMENT
??_C@_0CC@BNNNEGEG@assert_client_server_remote_fn?5@ DB 'assert_client_se'
	DB	'rver_remote_fn ()', 00H			; `string'
CONST	ENDS
;	COMDAT ??_C@_0CB@CFOCLFOK@assert_client_server_local_fn?5?$CI@
CONST	SEGMENT
??_C@_0CB@CFOCLFOK@assert_client_server_local_fn?5?$CI@ DB 'assert_client'
	DB	'_server_local_fn ()', 00H			; `string'
CONST	ENDS
;	COMDAT ?__LINE__Var@?0??set_server_vec3d@@YGXPAUENTITY@@W4VEC3D_TYPES@@PAUVEC3D@@@Z@4JA
_DATA	SEGMENT
?__LINE__Var@?0??set_server_vec3d@@YGXPAUENTITY@@W4VEC3D_TYPES@@PAUVEC3D@@@Z@4JA DD 091H ; `set_server_vec3d'::`1'::__LINE__Var
_DATA	ENDS
;	COMDAT ?__LINE__Var@?0??set_remote_vec3d@@YGXPAUENTITY@@W4VEC3D_TYPES@@PAUVEC3D@@@Z@4JA
_DATA	SEGMENT
?__LINE__Var@?0??set_remote_vec3d@@YGXPAUENTITY@@W4VEC3D_TYPES@@PAUVEC3D@@@Z@4JA DD 080H ; `set_remote_vec3d'::`1'::__LINE__Var
_DATA	ENDS
;	COMDAT ??_C@_01MHEDDDHA@v@
CONST	SEGMENT
??_C@_01MHEDDDHA@v@ DB 'v', 00H				; `string'
CONST	ENDS
;	COMDAT ??_C@_0EM@PKKDBKEI@c?3?2users?2nhv90?2projects?2eech?2ap@
CONST	SEGMENT
??_C@_0EM@PKKDBKEI@c?3?2users?2nhv90?2projects?2eech?2ap@ DB 'c:\users\nh'
	DB	'v90\projects\eech\aphavoc\source\entity\special\guide\gd_vec3'
	DB	'd.c', 00H					; `string'
CONST	ENDS
;	COMDAT ?__LINE__Var@?0??set_local_vec3d@@YGXPAUENTITY@@W4VEC3D_TYPES@@PAUVEC3D@@@Z@4JA
_DATA	SEGMENT
?__LINE__Var@?0??set_local_vec3d@@YGXPAUENTITY@@W4VEC3D_TYPES@@PAUVEC3D@@@Z@4JA DD 050H ; `set_local_vec3d'::`1'::__LINE__Var
_DATA	ENDS
; Function compile flags: /Odtp /ZI
; File c:\users\nhv90\projects\eech\aphavoc\source\entity\special\guide\gd_vec3d.c
;	COMDAT ?get_local_vec3d_ptr@@YGPAUVEC3D@@PAUENTITY@@W4VEC3D_TYPES@@@Z
_TEXT	SEGMENT
tv84 = -76						; size = 4
tv65 = -76						; size = 4
_v$ = -8						; size = 4
_raw$ = -4						; size = 4
_en$ = 8						; size = 4
_type$ = 12						; size = 4
?get_local_vec3d_ptr@@YGPAUVEC3D@@PAUENTITY@@W4VEC3D_TYPES@@@Z PROC ; get_local_vec3d_ptr, COMDAT

; 234  : {

  00000	55		 push	 ebp
  00001	8b ec		 mov	 ebp, esp
  00003	83 ec 4c	 sub	 esp, 76			; 0000004cH
  00006	53		 push	 ebx
  00007	56		 push	 esi
  00008	57		 push	 edi

; 235  : 	guide
; 236  : 		*raw;
; 237  : 
; 238  : 	vec3d
; 239  : 		*v;
; 240  : 
; 241  : 	raw = (guide *) get_local_entity_data (en);

  00009	8b 45 08	 mov	 eax, DWORD PTR _en$[ebp]
  0000c	8b 48 04	 mov	 ecx, DWORD PTR [eax+4]
  0000f	89 4d fc	 mov	 DWORD PTR _raw$[ebp], ecx

; 242  : 
; 243  : 	switch (type)

  00012	8b 45 0c	 mov	 eax, DWORD PTR _type$[ebp]
  00015	89 45 b4	 mov	 DWORD PTR tv65[ebp], eax
  00018	83 7d b4 08	 cmp	 DWORD PTR tv65[ebp], 8
  0001c	74 08		 je	 SHORT $LN4@get_local_
  0001e	83 7d b4 09	 cmp	 DWORD PTR tv65[ebp], 9
  00022	74 0d		 je	 SHORT $LN5@get_local_
  00024	eb 16		 jmp	 SHORT $LN6@get_local_
$LN4@get_local_:

; 244  : 	{
; 245  : 		////////////////////////////////////////
; 246  : 		case VEC3D_TYPE_POSITION:
; 247  : 		////////////////////////////////////////
; 248  : 		{
; 249  : 			v = &raw->position;

  00026	8b 45 fc	 mov	 eax, DWORD PTR _raw$[ebp]
  00029	83 c0 3c	 add	 eax, 60			; 0000003cH
  0002c	89 45 f8	 mov	 DWORD PTR _v$[ebp], eax

; 250  : 
; 251  : 		  	break;

  0002f	eb 7d		 jmp	 SHORT $LN2@get_local_
$LN5@get_local_:

; 252  : 		}
; 253  : 		////////////////////////////////////////
; 254  : 		case VEC3D_TYPE_RELATIVE_POSITION:
; 255  : 		////////////////////////////////////////
; 256  : 		{
; 257  : 			v = &raw->position;			// No - this isn't a cut'n'paste error !!

  00031	8b 45 fc	 mov	 eax, DWORD PTR _raw$[ebp]
  00034	83 c0 3c	 add	 eax, 60			; 0000003cH
  00037	89 45 f8	 mov	 DWORD PTR _v$[ebp], eax

; 258  : 
; 259  : 			break;

  0003a	eb 72		 jmp	 SHORT $LN2@get_local_
$LN6@get_local_:

; 260  : 		}
; 261  : 		////////////////////////////////////////
; 262  : 		default:
; 263  : 		////////////////////////////////////////
; 264  : 		{
; 265  : 			debug_fatal_invalid_vec3d_type (en, type);

  0003c	83 7d 08 00	 cmp	 DWORD PTR _en$[ebp], 0
  00040	74 0a		 je	 SHORT $LN8@get_local_
  00042	8b 45 08	 mov	 eax, DWORD PTR _en$[ebp]
  00045	8b 08		 mov	 ecx, DWORD PTR [eax]
  00047	89 4d b4	 mov	 DWORD PTR tv84[ebp], ecx
  0004a	eb 21		 jmp	 SHORT $LN9@get_local_
$LN8@get_local_:
  0004c	8b 15 00 00 00
	00		 mov	 edx, DWORD PTR ?__LINE__Var@?0??get_local_vec3d_ptr@@YGPAUVEC3D@@PAUENTITY@@W4VEC3D_TYPES@@@Z@4JA
  00052	83 c2 1f	 add	 edx, 31			; 0000001fH
  00055	52		 push	 edx
  00056	68 00 00 00 00	 push	 OFFSET ??_C@_0EM@PKKDBKEI@c?3?2users?2nhv90?2projects?2eech?2ap@
  0005b	a1 00 00 00 00	 mov	 eax, DWORD PTR ?null_entity_pointer_message@@3PBDB ; null_entity_pointer_message
  00060	50		 push	 eax
  00061	e8 00 00 00 00	 call	 ?process_assert@@YGXPBD0H@Z ; process_assert
  00066	c7 45 b4 00 00
	00 00		 mov	 DWORD PTR tv84[ebp], 0
$LN9@get_local_:
  0006d	8b 0d 00 00 00
	00		 mov	 ecx, DWORD PTR ?__LINE__Var@?0??get_local_vec3d_ptr@@YGPAUVEC3D@@PAUENTITY@@W4VEC3D_TYPES@@@Z@4JA
  00073	83 c1 1f	 add	 ecx, 31			; 0000001fH
  00076	51		 push	 ecx
  00077	68 00 00 00 00	 push	 OFFSET ??_C@_0EM@PKKDBKEI@c?3?2users?2nhv90?2projects?2eech?2ap@
  0007c	6b 55 0c 0c	 imul	 edx, DWORD PTR _type$[ebp], 12
  00080	8b 82 00 00 00
	00		 mov	 eax, DWORD PTR ?vec3d_type_database@@3PAUVEC3D_TYPE_DATA@@A[edx]
  00086	50		 push	 eax
  00087	8b 4d 08	 mov	 ecx, DWORD PTR _en$[ebp]
  0008a	2b 0d 00 00 00
	00		 sub	 ecx, DWORD PTR ?entities@@3PAUENTITY@@A ; entities
  00090	c1 f9 04	 sar	 ecx, 4
  00093	51		 push	 ecx
  00094	6b 55 b4 0c	 imul	 edx, DWORD PTR tv84[ebp], 12
  00098	8b 82 00 00 00
	00		 mov	 eax, DWORD PTR ?entity_type_database@@3PAUENTITY_TYPE_DATA@@A[edx]
  0009e	50		 push	 eax
  0009f	8b 0d 00 00 00
	00		 mov	 ecx, DWORD PTR ?debug_fatal_invalid_vec3d_type_message@@3PBDB ; debug_fatal_invalid_vec3d_type_message
  000a5	51		 push	 ecx
  000a6	e8 00 00 00 00	 call	 ?debug_fatal@@YAXPBDZZ	; debug_fatal
  000ab	83 c4 18	 add	 esp, 24			; 00000018H
$LN2@get_local_:

; 266  : 
; 267  : 			break;
; 268  : 		}
; 269  : 	}
; 270  : 
; 271  : 	return (v);

  000ae	8b 45 f8	 mov	 eax, DWORD PTR _v$[ebp]

; 272  : }

  000b1	5f		 pop	 edi
  000b2	5e		 pop	 esi
  000b3	5b		 pop	 ebx
  000b4	8b e5		 mov	 esp, ebp
  000b6	5d		 pop	 ebp
  000b7	c2 08 00	 ret	 8
?get_local_vec3d_ptr@@YGPAUVEC3D@@PAUENTITY@@W4VEC3D_TYPES@@@Z ENDP ; get_local_vec3d_ptr
_TEXT	ENDS
; Function compile flags: /Odtp /ZI
; File c:\users\nhv90\projects\eech\aphavoc\source\entity\special\guide\gd_vec3d.c
;	COMDAT ?get_local_vec3d@@YGXPAUENTITY@@W4VEC3D_TYPES@@PAUVEC3D@@@Z
_TEXT	SEGMENT
tv93 = -72						; size = 4
tv70 = -72						; size = 4
_raw$ = -4						; size = 4
_en$ = 8						; size = 4
_type$ = 12						; size = 4
_v$ = 16						; size = 4
?get_local_vec3d@@YGXPAUENTITY@@W4VEC3D_TYPES@@PAUVEC3D@@@Z PROC ; get_local_vec3d, COMDAT

; 184  : {

  00000	55		 push	 ebp
  00001	8b ec		 mov	 ebp, esp
  00003	83 ec 48	 sub	 esp, 72			; 00000048H
  00006	53		 push	 ebx
  00007	56		 push	 esi
  00008	57		 push	 edi

; 185  : 	guide
; 186  : 		*raw;
; 187  : 
; 188  : 	ASSERT (v);

  00009	83 7d 10 00	 cmp	 DWORD PTR _v$[ebp], 0
  0000d	75 18		 jne	 SHORT $LN4@get_local_
  0000f	a1 00 00 00 00	 mov	 eax, DWORD PTR ?__LINE__Var@?0??get_local_vec3d@@YGXPAUENTITY@@W4VEC3D_TYPES@@PAUVEC3D@@@Z@4JA
  00014	83 c0 04	 add	 eax, 4
  00017	50		 push	 eax
  00018	68 00 00 00 00	 push	 OFFSET ??_C@_0EM@PKKDBKEI@c?3?2users?2nhv90?2projects?2eech?2ap@
  0001d	68 00 00 00 00	 push	 OFFSET ??_C@_01MHEDDDHA@v@
  00022	e8 00 00 00 00	 call	 ?process_assert@@YGXPBD0H@Z ; process_assert
$LN4@get_local_:

; 189  : 
; 190  : 	raw = (guide *) get_local_entity_data (en);

  00027	8b 45 08	 mov	 eax, DWORD PTR _en$[ebp]
  0002a	8b 48 04	 mov	 ecx, DWORD PTR [eax+4]
  0002d	89 4d fc	 mov	 DWORD PTR _raw$[ebp], ecx

; 191  : 
; 192  : 	switch (type)

  00030	8b 45 0c	 mov	 eax, DWORD PTR _type$[ebp]
  00033	89 45 b8	 mov	 DWORD PTR tv70[ebp], eax
  00036	83 7d b8 04	 cmp	 DWORD PTR tv70[ebp], 4
  0003a	74 0e		 je	 SHORT $LN5@get_local_
  0003c	83 7d b8 08	 cmp	 DWORD PTR tv70[ebp], 8
  00040	74 1a		 je	 SHORT $LN6@get_local_
  00042	83 7d b8 09	 cmp	 DWORD PTR tv70[ebp], 9
  00046	74 32		 je	 SHORT $LN7@get_local_
  00048	eb 4b		 jmp	 SHORT $LN8@get_local_
$LN5@get_local_:

; 193  : 	{
; 194  : 		////////////////////////////////////////
; 195  : 		case VEC3D_TYPE_GUIDE_POSITION:
; 196  : 		////////////////////////////////////////
; 197  : 		{
; 198  : 			get_local_guide_position (en, v);

  0004a	8b 45 10	 mov	 eax, DWORD PTR _v$[ebp]
  0004d	50		 push	 eax
  0004e	8b 4d 08	 mov	 ecx, DWORD PTR _en$[ebp]
  00051	51		 push	 ecx
  00052	e8 00 00 00 00	 call	 ?get_local_guide_position@@YGXPAUENTITY@@PAUVEC3D@@@Z ; get_local_guide_position

; 199  : 
; 200  : 			break;

  00057	e9 ab 00 00 00	 jmp	 $LN1@get_local_
$LN6@get_local_:

; 201  : 		}
; 202  : 		////////////////////////////////////////
; 203  : 		case VEC3D_TYPE_POSITION:
; 204  : 		////////////////////////////////////////
; 205  : 		{
; 206  : 			*v = raw->position;			

  0005c	8b 45 fc	 mov	 eax, DWORD PTR _raw$[ebp]
  0005f	83 c0 3c	 add	 eax, 60			; 0000003cH
  00062	8b 4d 10	 mov	 ecx, DWORD PTR _v$[ebp]
  00065	8b 10		 mov	 edx, DWORD PTR [eax]
  00067	89 11		 mov	 DWORD PTR [ecx], edx
  00069	8b 50 04	 mov	 edx, DWORD PTR [eax+4]
  0006c	89 51 04	 mov	 DWORD PTR [ecx+4], edx
  0006f	8b 40 08	 mov	 eax, DWORD PTR [eax+8]
  00072	89 41 08	 mov	 DWORD PTR [ecx+8], eax

; 207  : 
; 208  : 			break;

  00075	e9 8d 00 00 00	 jmp	 $LN1@get_local_
$LN7@get_local_:

; 209  : 		}
; 210  : 		////////////////////////////////////////
; 211  : 		case VEC3D_TYPE_RELATIVE_POSITION:
; 212  : 		////////////////////////////////////////
; 213  : 		{
; 214  : 			*v = raw->position;			

  0007a	8b 45 fc	 mov	 eax, DWORD PTR _raw$[ebp]
  0007d	83 c0 3c	 add	 eax, 60			; 0000003cH
  00080	8b 4d 10	 mov	 ecx, DWORD PTR _v$[ebp]
  00083	8b 10		 mov	 edx, DWORD PTR [eax]
  00085	89 11		 mov	 DWORD PTR [ecx], edx
  00087	8b 50 04	 mov	 edx, DWORD PTR [eax+4]
  0008a	89 51 04	 mov	 DWORD PTR [ecx+4], edx
  0008d	8b 40 08	 mov	 eax, DWORD PTR [eax+8]
  00090	89 41 08	 mov	 DWORD PTR [ecx+8], eax

; 215  : 
; 216  : 			break;

  00093	eb 72		 jmp	 SHORT $LN1@get_local_
$LN8@get_local_:

; 217  : 		}
; 218  : 		////////////////////////////////////////
; 219  : 		default:
; 220  : 		////////////////////////////////////////
; 221  : 		{
; 222  : 			debug_fatal_invalid_vec3d_type (en, type);

  00095	83 7d 08 00	 cmp	 DWORD PTR _en$[ebp], 0
  00099	74 0a		 je	 SHORT $LN10@get_local_
  0009b	8b 45 08	 mov	 eax, DWORD PTR _en$[ebp]
  0009e	8b 08		 mov	 ecx, DWORD PTR [eax]
  000a0	89 4d b8	 mov	 DWORD PTR tv93[ebp], ecx
  000a3	eb 21		 jmp	 SHORT $LN11@get_local_
$LN10@get_local_:
  000a5	8b 15 00 00 00
	00		 mov	 edx, DWORD PTR ?__LINE__Var@?0??get_local_vec3d@@YGXPAUENTITY@@W4VEC3D_TYPES@@PAUVEC3D@@@Z@4JA
  000ab	83 c2 26	 add	 edx, 38			; 00000026H
  000ae	52		 push	 edx
  000af	68 00 00 00 00	 push	 OFFSET ??_C@_0EM@PKKDBKEI@c?3?2users?2nhv90?2projects?2eech?2ap@
  000b4	a1 00 00 00 00	 mov	 eax, DWORD PTR ?null_entity_pointer_message@@3PBDB ; null_entity_pointer_message
  000b9	50		 push	 eax
  000ba	e8 00 00 00 00	 call	 ?process_assert@@YGXPBD0H@Z ; process_assert
  000bf	c7 45 b8 00 00
	00 00		 mov	 DWORD PTR tv93[ebp], 0
$LN11@get_local_:
  000c6	8b 0d 00 00 00
	00		 mov	 ecx, DWORD PTR ?__LINE__Var@?0??get_local_vec3d@@YGXPAUENTITY@@W4VEC3D_TYPES@@PAUVEC3D@@@Z@4JA
  000cc	83 c1 26	 add	 ecx, 38			; 00000026H
  000cf	51		 push	 ecx
  000d0	68 00 00 00 00	 push	 OFFSET ??_C@_0EM@PKKDBKEI@c?3?2users?2nhv90?2projects?2eech?2ap@
  000d5	6b 55 0c 0c	 imul	 edx, DWORD PTR _type$[ebp], 12
  000d9	8b 82 00 00 00
	00		 mov	 eax, DWORD PTR ?vec3d_type_database@@3PAUVEC3D_TYPE_DATA@@A[edx]
  000df	50		 push	 eax
  000e0	8b 4d 08	 mov	 ecx, DWORD PTR _en$[ebp]
  000e3	2b 0d 00 00 00
	00		 sub	 ecx, DWORD PTR ?entities@@3PAUENTITY@@A ; entities
  000e9	c1 f9 04	 sar	 ecx, 4
  000ec	51		 push	 ecx
  000ed	6b 55 b8 0c	 imul	 edx, DWORD PTR tv93[ebp], 12
  000f1	8b 82 00 00 00
	00		 mov	 eax, DWORD PTR ?entity_type_database@@3PAUENTITY_TYPE_DATA@@A[edx]
  000f7	50		 push	 eax
  000f8	8b 0d 00 00 00
	00		 mov	 ecx, DWORD PTR ?debug_fatal_invalid_vec3d_type_message@@3PBDB ; debug_fatal_invalid_vec3d_type_message
  000fe	51		 push	 ecx
  000ff	e8 00 00 00 00	 call	 ?debug_fatal@@YAXPBDZZ	; debug_fatal
  00104	83 c4 18	 add	 esp, 24			; 00000018H
$LN1@get_local_:

; 223  : 
; 224  : 			break;
; 225  : 		}
; 226  : 	}
; 227  : }

  00107	5f		 pop	 edi
  00108	5e		 pop	 esi
  00109	5b		 pop	 ebx
  0010a	8b e5		 mov	 esp, ebp
  0010c	5d		 pop	 ebp
  0010d	c2 0c 00	 ret	 12			; 0000000cH
?get_local_vec3d@@YGXPAUENTITY@@W4VEC3D_TYPES@@PAUVEC3D@@@Z ENDP ; get_local_vec3d
_TEXT	ENDS
; Function compile flags: /Odtp /ZI
; File c:\users\nhv90\projects\eech\aphavoc\source\entity\special\guide\gd_vec3d.c
;	COMDAT ?set_client_vec3d@@YGXPAUENTITY@@W4VEC3D_TYPES@@PAUVEC3D@@@Z
_TEXT	SEGMENT
_en$ = 8						; size = 4
_type$ = 12						; size = 4
_v$ = 16						; size = 4
?set_client_vec3d@@YGXPAUENTITY@@W4VEC3D_TYPES@@PAUVEC3D@@@Z PROC ; set_client_vec3d, COMDAT

; 162  : {

  00000	55		 push	 ebp
  00001	8b ec		 mov	 ebp, esp
  00003	83 ec 40	 sub	 esp, 64			; 00000040H
  00006	53		 push	 ebx
  00007	56		 push	 esi
  00008	57		 push	 edi

; 163  : 	ASSERT (v);

  00009	83 7d 10 00	 cmp	 DWORD PTR _v$[ebp], 0
  0000d	75 18		 jne	 SHORT $LN2@set_client
  0000f	a1 00 00 00 00	 mov	 eax, DWORD PTR ?__LINE__Var@?0??set_client_vec3d@@YGXPAUENTITY@@W4VEC3D_TYPES@@PAUVEC3D@@@Z@4JA
  00014	83 c0 01	 add	 eax, 1
  00017	50		 push	 eax
  00018	68 00 00 00 00	 push	 OFFSET ??_C@_0EM@PKKDBKEI@c?3?2users?2nhv90?2projects?2eech?2ap@
  0001d	68 00 00 00 00	 push	 OFFSET ??_C@_01MHEDDDHA@v@
  00022	e8 00 00 00 00	 call	 ?process_assert@@YGXPBD0H@Z ; process_assert
$LN2@set_client:

; 164  : 
; 165  : 	if (get_comms_data_flow () == COMMS_DATA_FLOW_TX)

  00027	83 3d 00 00 00
	00 00		 cmp	 DWORD PTR ?system_comms_data_flow@@3W4COMMS_DATA_FLOW_TYPES@@A, 0 ; system_comms_data_flow
  0002e	75 34		 jne	 SHORT $LN3@set_client

; 166  : 	{
; 167  : 		validate_client_server_remote_fn ();

  00030	e8 00 00 00 00	 call	 ?assert_client_server_remote_fn@@YGHXZ ; assert_client_server_remote_fn
  00035	85 c0		 test	 eax, eax
  00037	75 18		 jne	 SHORT $LN5@set_client
  00039	a1 00 00 00 00	 mov	 eax, DWORD PTR ?__LINE__Var@?0??set_client_vec3d@@YGXPAUENTITY@@W4VEC3D_TYPES@@PAUVEC3D@@@Z@4JA
  0003e	83 c0 05	 add	 eax, 5
  00041	50		 push	 eax
  00042	68 00 00 00 00	 push	 OFFSET ??_C@_0EM@PKKDBKEI@c?3?2users?2nhv90?2projects?2eech?2ap@
  00047	68 00 00 00 00	 push	 OFFSET ??_C@_0CC@BNNNEGEG@assert_client_server_remote_fn?5@
  0004c	e8 00 00 00 00	 call	 ?process_assert@@YGXPBD0H@Z ; process_assert
$LN5@set_client:

; 168  : 
; 169  : 		set_remote_vec3d (en, type, v);

  00051	8b 45 10	 mov	 eax, DWORD PTR _v$[ebp]
  00054	50		 push	 eax
  00055	8b 4d 0c	 mov	 ecx, DWORD PTR _type$[ebp]
  00058	51		 push	 ecx
  00059	8b 55 08	 mov	 edx, DWORD PTR _en$[ebp]
  0005c	52		 push	 edx
  0005d	e8 00 00 00 00	 call	 ?set_remote_vec3d@@YGXPAUENTITY@@W4VEC3D_TYPES@@PAUVEC3D@@@Z ; set_remote_vec3d

; 170  : 	}
; 171  : 	else

  00062	eb 32		 jmp	 SHORT $LN1@set_client
$LN3@set_client:

; 172  : 	{
; 173  : 		validate_client_server_local_fn ();

  00064	e8 00 00 00 00	 call	 ?assert_client_server_local_fn@@YGHXZ ; assert_client_server_local_fn
  00069	85 c0		 test	 eax, eax
  0006b	75 18		 jne	 SHORT $LN6@set_client
  0006d	a1 00 00 00 00	 mov	 eax, DWORD PTR ?__LINE__Var@?0??set_client_vec3d@@YGXPAUENTITY@@W4VEC3D_TYPES@@PAUVEC3D@@@Z@4JA
  00072	83 c0 0b	 add	 eax, 11			; 0000000bH
  00075	50		 push	 eax
  00076	68 00 00 00 00	 push	 OFFSET ??_C@_0EM@PKKDBKEI@c?3?2users?2nhv90?2projects?2eech?2ap@
  0007b	68 00 00 00 00	 push	 OFFSET ??_C@_0CB@CFOCLFOK@assert_client_server_local_fn?5?$CI@
  00080	e8 00 00 00 00	 call	 ?process_assert@@YGXPBD0H@Z ; process_assert
$LN6@set_client:

; 174  : 
; 175  : 		set_local_vec3d (en, type, v);

  00085	8b 45 10	 mov	 eax, DWORD PTR _v$[ebp]
  00088	50		 push	 eax
  00089	8b 4d 0c	 mov	 ecx, DWORD PTR _type$[ebp]
  0008c	51		 push	 ecx
  0008d	8b 55 08	 mov	 edx, DWORD PTR _en$[ebp]
  00090	52		 push	 edx
  00091	e8 00 00 00 00	 call	 ?set_local_vec3d@@YGXPAUENTITY@@W4VEC3D_TYPES@@PAUVEC3D@@@Z ; set_local_vec3d
$LN1@set_client:

; 176  : 	}
; 177  : }

  00096	5f		 pop	 edi
  00097	5e		 pop	 esi
  00098	5b		 pop	 ebx
  00099	8b e5		 mov	 esp, ebp
  0009b	5d		 pop	 ebp
  0009c	c2 0c 00	 ret	 12			; 0000000cH
?set_client_vec3d@@YGXPAUENTITY@@W4VEC3D_TYPES@@PAUVEC3D@@@Z ENDP ; set_client_vec3d
_TEXT	ENDS
; Function compile flags: /Odtp /ZI
; File c:\users\nhv90\projects\eech\aphavoc\source\entity\special\guide\gd_vec3d.c
;	COMDAT ?set_server_vec3d@@YGXPAUENTITY@@W4VEC3D_TYPES@@PAUVEC3D@@@Z
_TEXT	SEGMENT
_en$ = 8						; size = 4
_type$ = 12						; size = 4
_v$ = 16						; size = 4
?set_server_vec3d@@YGXPAUENTITY@@W4VEC3D_TYPES@@PAUVEC3D@@@Z PROC ; set_server_vec3d, COMDAT

; 145  : {

  00000	55		 push	 ebp
  00001	8b ec		 mov	 ebp, esp
  00003	83 ec 40	 sub	 esp, 64			; 00000040H
  00006	53		 push	 ebx
  00007	56		 push	 esi
  00008	57		 push	 edi

; 146  : 	ASSERT (v);

  00009	83 7d 10 00	 cmp	 DWORD PTR _v$[ebp], 0
  0000d	75 18		 jne	 SHORT $LN2@set_server
  0000f	a1 00 00 00 00	 mov	 eax, DWORD PTR ?__LINE__Var@?0??set_server_vec3d@@YGXPAUENTITY@@W4VEC3D_TYPES@@PAUVEC3D@@@Z@4JA
  00014	83 c0 01	 add	 eax, 1
  00017	50		 push	 eax
  00018	68 00 00 00 00	 push	 OFFSET ??_C@_0EM@PKKDBKEI@c?3?2users?2nhv90?2projects?2eech?2ap@
  0001d	68 00 00 00 00	 push	 OFFSET ??_C@_01MHEDDDHA@v@
  00022	e8 00 00 00 00	 call	 ?process_assert@@YGXPBD0H@Z ; process_assert
$LN2@set_server:

; 147  : 
; 148  : 	validate_client_server_local_fn ();

  00027	e8 00 00 00 00	 call	 ?assert_client_server_local_fn@@YGHXZ ; assert_client_server_local_fn
  0002c	85 c0		 test	 eax, eax
  0002e	75 18		 jne	 SHORT $LN3@set_server
  00030	a1 00 00 00 00	 mov	 eax, DWORD PTR ?__LINE__Var@?0??set_server_vec3d@@YGXPAUENTITY@@W4VEC3D_TYPES@@PAUVEC3D@@@Z@4JA
  00035	83 c0 03	 add	 eax, 3
  00038	50		 push	 eax
  00039	68 00 00 00 00	 push	 OFFSET ??_C@_0EM@PKKDBKEI@c?3?2users?2nhv90?2projects?2eech?2ap@
  0003e	68 00 00 00 00	 push	 OFFSET ??_C@_0CB@CFOCLFOK@assert_client_server_local_fn?5?$CI@
  00043	e8 00 00 00 00	 call	 ?process_assert@@YGXPBD0H@Z ; process_assert
$LN3@set_server:

; 149  : 
; 150  : 	set_local_vec3d (en, type, v);

  00048	8b 45 10	 mov	 eax, DWORD PTR _v$[ebp]
  0004b	50		 push	 eax
  0004c	8b 4d 0c	 mov	 ecx, DWORD PTR _type$[ebp]
  0004f	51		 push	 ecx
  00050	8b 55 08	 mov	 edx, DWORD PTR _en$[ebp]
  00053	52		 push	 edx
  00054	e8 00 00 00 00	 call	 ?set_local_vec3d@@YGXPAUENTITY@@W4VEC3D_TYPES@@PAUVEC3D@@@Z ; set_local_vec3d

; 151  : 
; 152  : 	validate_client_server_remote_fn ();

  00059	e8 00 00 00 00	 call	 ?assert_client_server_remote_fn@@YGHXZ ; assert_client_server_remote_fn
  0005e	85 c0		 test	 eax, eax
  00060	75 18		 jne	 SHORT $LN4@set_server
  00062	a1 00 00 00 00	 mov	 eax, DWORD PTR ?__LINE__Var@?0??set_server_vec3d@@YGXPAUENTITY@@W4VEC3D_TYPES@@PAUVEC3D@@@Z@4JA
  00067	83 c0 07	 add	 eax, 7
  0006a	50		 push	 eax
  0006b	68 00 00 00 00	 push	 OFFSET ??_C@_0EM@PKKDBKEI@c?3?2users?2nhv90?2projects?2eech?2ap@
  00070	68 00 00 00 00	 push	 OFFSET ??_C@_0CC@BNNNEGEG@assert_client_server_remote_fn?5@
  00075	e8 00 00 00 00	 call	 ?process_assert@@YGXPBD0H@Z ; process_assert
$LN4@set_server:

; 153  : 
; 154  : 	set_remote_vec3d (en, type, v);

  0007a	8b 45 10	 mov	 eax, DWORD PTR _v$[ebp]
  0007d	50		 push	 eax
  0007e	8b 4d 0c	 mov	 ecx, DWORD PTR _type$[ebp]
  00081	51		 push	 ecx
  00082	8b 55 08	 mov	 edx, DWORD PTR _en$[ebp]
  00085	52		 push	 edx
  00086	e8 00 00 00 00	 call	 ?set_remote_vec3d@@YGXPAUENTITY@@W4VEC3D_TYPES@@PAUVEC3D@@@Z ; set_remote_vec3d

; 155  : }

  0008b	5f		 pop	 edi
  0008c	5e		 pop	 esi
  0008d	5b		 pop	 ebx
  0008e	8b e5		 mov	 esp, ebp
  00090	5d		 pop	 ebp
  00091	c2 0c 00	 ret	 12			; 0000000cH
?set_server_vec3d@@YGXPAUENTITY@@W4VEC3D_TYPES@@PAUVEC3D@@@Z ENDP ; set_server_vec3d
_TEXT	ENDS
; Function compile flags: /Odtp /ZI
; File c:\users\nhv90\projects\eech\aphavoc\source\entity\special\guide\gd_vec3d.c
;	COMDAT ?set_remote_vec3d@@YGXPAUENTITY@@W4VEC3D_TYPES@@PAUVEC3D@@@Z
_TEXT	SEGMENT
_en$ = 8						; size = 4
_type$ = 12						; size = 4
_v$ = 16						; size = 4
?set_remote_vec3d@@YGXPAUENTITY@@W4VEC3D_TYPES@@PAUVEC3D@@@Z PROC ; set_remote_vec3d, COMDAT

; 128  : {

  00000	55		 push	 ebp
  00001	8b ec		 mov	 ebp, esp
  00003	83 ec 40	 sub	 esp, 64			; 00000040H
  00006	53		 push	 ebx
  00007	56		 push	 esi
  00008	57		 push	 edi

; 129  : 	ASSERT (v);

  00009	83 7d 10 00	 cmp	 DWORD PTR _v$[ebp], 0
  0000d	75 18		 jne	 SHORT $LN2@set_remote
  0000f	a1 00 00 00 00	 mov	 eax, DWORD PTR ?__LINE__Var@?0??set_remote_vec3d@@YGXPAUENTITY@@W4VEC3D_TYPES@@PAUVEC3D@@@Z@4JA
  00014	83 c0 01	 add	 eax, 1
  00017	50		 push	 eax
  00018	68 00 00 00 00	 push	 OFFSET ??_C@_0EM@PKKDBKEI@c?3?2users?2nhv90?2projects?2eech?2ap@
  0001d	68 00 00 00 00	 push	 OFFSET ??_C@_01MHEDDDHA@v@
  00022	e8 00 00 00 00	 call	 ?process_assert@@YGXPBD0H@Z ; process_assert
$LN2@set_remote:

; 130  : 
; 131  : 	#if DEBUG_MODULE
; 132  : 
; 133  : 	debug_log_entity_args (ENTITY_DEBUG_REMOTE, ENTITY_DEBUG_VEC3D, en, type, v);
; 134  : 
; 135  : 	#endif
; 136  : 
; 137  : 	transmit_entity_comms_message (ENTITY_COMMS_VEC3D, en, type, v);

  00027	8b 45 10	 mov	 eax, DWORD PTR _v$[ebp]
  0002a	50		 push	 eax
  0002b	8b 4d 0c	 mov	 ecx, DWORD PTR _type$[ebp]
  0002e	51		 push	 ecx
  0002f	8b 55 08	 mov	 edx, DWORD PTR _en$[ebp]
  00032	52		 push	 edx
  00033	6a 42		 push	 66			; 00000042H
  00035	e8 00 00 00 00	 call	 ?transmit_entity_comms_message@@YAXW4ENTITY_COMMS_MESSAGES@@PAUENTITY@@ZZ ; transmit_entity_comms_message
  0003a	83 c4 10	 add	 esp, 16			; 00000010H

; 138  : }

  0003d	5f		 pop	 edi
  0003e	5e		 pop	 esi
  0003f	5b		 pop	 ebx
  00040	8b e5		 mov	 esp, ebp
  00042	5d		 pop	 ebp
  00043	c2 0c 00	 ret	 12			; 0000000cH
?set_remote_vec3d@@YGXPAUENTITY@@W4VEC3D_TYPES@@PAUVEC3D@@@Z ENDP ; set_remote_vec3d
_TEXT	ENDS
; Function compile flags: /Odtp /ZI
; File c:\users\nhv90\projects\eech\aphavoc\source\entity\special\guide\gd_vec3d.c
;	COMDAT ?set_local_vec3d@@YGXPAUENTITY@@W4VEC3D_TYPES@@PAUVEC3D@@@Z
_TEXT	SEGMENT
tv91 = -72						; size = 4
tv70 = -72						; size = 4
_raw$ = -4						; size = 4
_en$ = 8						; size = 4
_type$ = 12						; size = 4
_v$ = 16						; size = 4
?set_local_vec3d@@YGXPAUENTITY@@W4VEC3D_TYPES@@PAUVEC3D@@@Z PROC ; set_local_vec3d, COMDAT

; 80   : {

  00000	55		 push	 ebp
  00001	8b ec		 mov	 ebp, esp
  00003	83 ec 48	 sub	 esp, 72			; 00000048H
  00006	53		 push	 ebx
  00007	56		 push	 esi
  00008	57		 push	 edi

; 81   : 	guide
; 82   : 		*raw;
; 83   : 
; 84   : 	ASSERT (v);

  00009	83 7d 10 00	 cmp	 DWORD PTR _v$[ebp], 0
  0000d	75 18		 jne	 SHORT $LN4@set_local_
  0000f	a1 00 00 00 00	 mov	 eax, DWORD PTR ?__LINE__Var@?0??set_local_vec3d@@YGXPAUENTITY@@W4VEC3D_TYPES@@PAUVEC3D@@@Z@4JA
  00014	83 c0 04	 add	 eax, 4
  00017	50		 push	 eax
  00018	68 00 00 00 00	 push	 OFFSET ??_C@_0EM@PKKDBKEI@c?3?2users?2nhv90?2projects?2eech?2ap@
  0001d	68 00 00 00 00	 push	 OFFSET ??_C@_01MHEDDDHA@v@
  00022	e8 00 00 00 00	 call	 ?process_assert@@YGXPBD0H@Z ; process_assert
$LN4@set_local_:

; 85   : 
; 86   : 	#if DEBUG_MODULE
; 87   : 
; 88   : 	debug_log_entity_args (ENTITY_DEBUG_LOCAL, ENTITY_DEBUG_VEC3D, en, type, v);
; 89   : 
; 90   : 	#endif
; 91   : 
; 92   : 	raw = (guide *) get_local_entity_data (en);

  00027	8b 45 08	 mov	 eax, DWORD PTR _en$[ebp]
  0002a	8b 48 04	 mov	 ecx, DWORD PTR [eax+4]
  0002d	89 4d fc	 mov	 DWORD PTR _raw$[ebp], ecx

; 93   : 
; 94   : 	switch (type)

  00030	8b 45 0c	 mov	 eax, DWORD PTR _type$[ebp]
  00033	89 45 b8	 mov	 DWORD PTR tv70[ebp], eax
  00036	83 7d b8 08	 cmp	 DWORD PTR tv70[ebp], 8
  0003a	74 08		 je	 SHORT $LN5@set_local_
  0003c	83 7d b8 09	 cmp	 DWORD PTR tv70[ebp], 9
  00040	74 20		 je	 SHORT $LN6@set_local_
  00042	eb 39		 jmp	 SHORT $LN7@set_local_
$LN5@set_local_:

; 95   : 	{
; 96   : 		////////////////////////////////////////
; 97   : 		case VEC3D_TYPE_POSITION:
; 98   : 		////////////////////////////////////////
; 99   : 		{
; 100  : 			raw->position = *v;

  00044	8b 45 fc	 mov	 eax, DWORD PTR _raw$[ebp]
  00047	83 c0 3c	 add	 eax, 60			; 0000003cH
  0004a	8b 4d 10	 mov	 ecx, DWORD PTR _v$[ebp]
  0004d	8b 11		 mov	 edx, DWORD PTR [ecx]
  0004f	89 10		 mov	 DWORD PTR [eax], edx
  00051	8b 51 04	 mov	 edx, DWORD PTR [ecx+4]
  00054	89 50 04	 mov	 DWORD PTR [eax+4], edx
  00057	8b 49 08	 mov	 ecx, DWORD PTR [ecx+8]
  0005a	89 48 08	 mov	 DWORD PTR [eax+8], ecx

; 101  : 
; 102  : 			break;

  0005d	e9 8d 00 00 00	 jmp	 $LN1@set_local_
$LN6@set_local_:

; 103  : 		}
; 104  : 		////////////////////////////////////////
; 105  : 		case VEC3D_TYPE_RELATIVE_POSITION:
; 106  : 		////////////////////////////////////////
; 107  : 		{
; 108  : 			raw->position = *v;			// No - this isn't a cut'n'paste error !!

  00062	8b 45 fc	 mov	 eax, DWORD PTR _raw$[ebp]
  00065	83 c0 3c	 add	 eax, 60			; 0000003cH
  00068	8b 4d 10	 mov	 ecx, DWORD PTR _v$[ebp]
  0006b	8b 11		 mov	 edx, DWORD PTR [ecx]
  0006d	89 10		 mov	 DWORD PTR [eax], edx
  0006f	8b 51 04	 mov	 edx, DWORD PTR [ecx+4]
  00072	89 50 04	 mov	 DWORD PTR [eax+4], edx
  00075	8b 49 08	 mov	 ecx, DWORD PTR [ecx+8]
  00078	89 48 08	 mov	 DWORD PTR [eax+8], ecx

; 109  : 
; 110  : 			break;

  0007b	eb 72		 jmp	 SHORT $LN1@set_local_
$LN7@set_local_:

; 111  : 		}
; 112  : 		////////////////////////////////////////
; 113  : 		default:
; 114  : 		////////////////////////////////////////
; 115  : 		{
; 116  : 			debug_fatal_invalid_vec3d_type (en, type);

  0007d	83 7d 08 00	 cmp	 DWORD PTR _en$[ebp], 0
  00081	74 0a		 je	 SHORT $LN9@set_local_
  00083	8b 45 08	 mov	 eax, DWORD PTR _en$[ebp]
  00086	8b 08		 mov	 ecx, DWORD PTR [eax]
  00088	89 4d b8	 mov	 DWORD PTR tv91[ebp], ecx
  0008b	eb 21		 jmp	 SHORT $LN10@set_local_
$LN9@set_local_:
  0008d	8b 15 00 00 00
	00		 mov	 edx, DWORD PTR ?__LINE__Var@?0??set_local_vec3d@@YGXPAUENTITY@@W4VEC3D_TYPES@@PAUVEC3D@@@Z@4JA
  00093	83 c2 24	 add	 edx, 36			; 00000024H
  00096	52		 push	 edx
  00097	68 00 00 00 00	 push	 OFFSET ??_C@_0EM@PKKDBKEI@c?3?2users?2nhv90?2projects?2eech?2ap@
  0009c	a1 00 00 00 00	 mov	 eax, DWORD PTR ?null_entity_pointer_message@@3PBDB ; null_entity_pointer_message
  000a1	50		 push	 eax
  000a2	e8 00 00 00 00	 call	 ?process_assert@@YGXPBD0H@Z ; process_assert
  000a7	c7 45 b8 00 00
	00 00		 mov	 DWORD PTR tv91[ebp], 0
$LN10@set_local_:
  000ae	8b 0d 00 00 00
	00		 mov	 ecx, DWORD PTR ?__LINE__Var@?0??set_local_vec3d@@YGXPAUENTITY@@W4VEC3D_TYPES@@PAUVEC3D@@@Z@4JA
  000b4	83 c1 24	 add	 ecx, 36			; 00000024H
  000b7	51		 push	 ecx
  000b8	68 00 00 00 00	 push	 OFFSET ??_C@_0EM@PKKDBKEI@c?3?2users?2nhv90?2projects?2eech?2ap@
  000bd	6b 55 0c 0c	 imul	 edx, DWORD PTR _type$[ebp], 12
  000c1	8b 82 00 00 00
	00		 mov	 eax, DWORD PTR ?vec3d_type_database@@3PAUVEC3D_TYPE_DATA@@A[edx]
  000c7	50		 push	 eax
  000c8	8b 4d 08	 mov	 ecx, DWORD PTR _en$[ebp]
  000cb	2b 0d 00 00 00
	00		 sub	 ecx, DWORD PTR ?entities@@3PAUENTITY@@A ; entities
  000d1	c1 f9 04	 sar	 ecx, 4
  000d4	51		 push	 ecx
  000d5	6b 55 b8 0c	 imul	 edx, DWORD PTR tv91[ebp], 12
  000d9	8b 82 00 00 00
	00		 mov	 eax, DWORD PTR ?entity_type_database@@3PAUENTITY_TYPE_DATA@@A[edx]
  000df	50		 push	 eax
  000e0	8b 0d 00 00 00
	00		 mov	 ecx, DWORD PTR ?debug_fatal_invalid_vec3d_type_message@@3PBDB ; debug_fatal_invalid_vec3d_type_message
  000e6	51		 push	 ecx
  000e7	e8 00 00 00 00	 call	 ?debug_fatal@@YAXPBDZZ	; debug_fatal
  000ec	83 c4 18	 add	 esp, 24			; 00000018H
$LN1@set_local_:

; 117  : 
; 118  : 			break;
; 119  : 		}
; 120  : 	}
; 121  : }

  000ef	5f		 pop	 edi
  000f0	5e		 pop	 esi
  000f1	5b		 pop	 ebx
  000f2	8b e5		 mov	 esp, ebp
  000f4	5d		 pop	 ebp
  000f5	c2 0c 00	 ret	 12			; 0000000cH
?set_local_vec3d@@YGXPAUENTITY@@W4VEC3D_TYPES@@PAUVEC3D@@@Z ENDP ; set_local_vec3d
_TEXT	ENDS
; Function compile flags: /Odtp /ZI
; File c:\users\nhv90\projects\eech\aphavoc\source\entity\special\guide\gd_vec3d.c
;	COMDAT ?overload_guide_vec3d_functions@@YGXXZ
_TEXT	SEGMENT
?overload_guide_vec3d_functions@@YGXXZ PROC		; overload_guide_vec3d_functions, COMDAT

; 279  : {

  00000	55		 push	 ebp
  00001	8b ec		 mov	 ebp, esp
  00003	83 ec 40	 sub	 esp, 64			; 00000040H
  00006	53		 push	 ebx
  00007	56		 push	 esi
  00008	57		 push	 edi

; 280  : 	fn_get_local_entity_vec3d				[ENTITY_TYPE_GUIDE][VEC3D_TYPE_GUIDE_POSITION]					 				= get_local_vec3d;

  00009	b8 60 00 00 00	 mov	 eax, 96			; 00000060H
  0000e	6b c8 0d	 imul	 ecx, eax, 13
  00011	ba 04 00 00 00	 mov	 edx, 4
  00016	c1 e2 02	 shl	 edx, 2
  00019	c7 84 11 00 00
	00 00 00 00 00
	00		 mov	 DWORD PTR ?fn_get_local_entity_vec3d@@3PAY0BI@P6GXPAUENTITY@@W4VEC3D_TYPES@@PAUVEC3D@@@ZA[ecx+edx], OFFSET ?get_local_vec3d@@YGXPAUENTITY@@W4VEC3D_TYPES@@PAUVEC3D@@@Z ; get_local_vec3d

; 281  : 
; 282  : 	fn_set_local_entity_raw_vec3d			[ENTITY_TYPE_GUIDE][VEC3D_TYPE_POSITION]											= set_local_vec3d;

  00024	b8 60 00 00 00	 mov	 eax, 96			; 00000060H
  00029	6b c8 0d	 imul	 ecx, eax, 13
  0002c	ba 04 00 00 00	 mov	 edx, 4
  00031	c1 e2 03	 shl	 edx, 3
  00034	c7 84 11 00 00
	00 00 00 00 00
	00		 mov	 DWORD PTR ?fn_set_local_entity_raw_vec3d@@3PAY0BI@P6GXPAUENTITY@@W4VEC3D_TYPES@@PAUVEC3D@@@ZA[ecx+edx], OFFSET ?set_local_vec3d@@YGXPAUENTITY@@W4VEC3D_TYPES@@PAUVEC3D@@@Z ; set_local_vec3d

; 283  : 	fn_set_local_entity_vec3d				[ENTITY_TYPE_GUIDE][VEC3D_TYPE_POSITION]											= set_local_vec3d;

  0003f	b8 60 00 00 00	 mov	 eax, 96			; 00000060H
  00044	6b c8 0d	 imul	 ecx, eax, 13
  00047	ba 04 00 00 00	 mov	 edx, 4
  0004c	c1 e2 03	 shl	 edx, 3
  0004f	c7 84 11 00 00
	00 00 00 00 00
	00		 mov	 DWORD PTR ?fn_set_local_entity_vec3d@@3PAY0BI@P6GXPAUENTITY@@W4VEC3D_TYPES@@PAUVEC3D@@@ZA[ecx+edx], OFFSET ?set_local_vec3d@@YGXPAUENTITY@@W4VEC3D_TYPES@@PAUVEC3D@@@Z ; set_local_vec3d

; 284  : 	fn_set_client_server_entity_vec3d	[ENTITY_TYPE_GUIDE][VEC3D_TYPE_POSITION][COMMS_MODEL_SERVER]				= set_server_vec3d;

  0005a	b8 c0 00 00 00	 mov	 eax, 192		; 000000c0H
  0005f	6b c8 0d	 imul	 ecx, eax, 13
  00062	ba 08 00 00 00	 mov	 edx, 8
  00067	c1 e2 03	 shl	 edx, 3
  0006a	8d 84 11 00 00
	00 00		 lea	 eax, DWORD PTR ?fn_set_client_server_entity_vec3d@@3PAY1BI@1P6GXPAUENTITY@@W4VEC3D_TYPES@@PAUVEC3D@@@ZA[ecx+edx]
  00071	b9 04 00 00 00	 mov	 ecx, 4
  00076	6b d1 00	 imul	 edx, ecx, 0
  00079	c7 04 10 00 00
	00 00		 mov	 DWORD PTR [eax+edx], OFFSET ?set_server_vec3d@@YGXPAUENTITY@@W4VEC3D_TYPES@@PAUVEC3D@@@Z ; set_server_vec3d

; 285  : 	fn_set_client_server_entity_vec3d	[ENTITY_TYPE_GUIDE][VEC3D_TYPE_POSITION][COMMS_MODEL_CLIENT]				= set_client_vec3d;

  00080	b8 c0 00 00 00	 mov	 eax, 192		; 000000c0H
  00085	6b c8 0d	 imul	 ecx, eax, 13
  00088	ba 08 00 00 00	 mov	 edx, 8
  0008d	c1 e2 03	 shl	 edx, 3
  00090	8d 84 11 00 00
	00 00		 lea	 eax, DWORD PTR ?fn_set_client_server_entity_vec3d@@3PAY1BI@1P6GXPAUENTITY@@W4VEC3D_TYPES@@PAUVEC3D@@@ZA[ecx+edx]
  00097	b9 04 00 00 00	 mov	 ecx, 4
  0009c	c1 e1 00	 shl	 ecx, 0
  0009f	c7 04 08 00 00
	00 00		 mov	 DWORD PTR [eax+ecx], OFFSET ?set_client_vec3d@@YGXPAUENTITY@@W4VEC3D_TYPES@@PAUVEC3D@@@Z ; set_client_vec3d

; 286  : 	fn_get_local_entity_vec3d				[ENTITY_TYPE_GUIDE][VEC3D_TYPE_POSITION]							 				= get_local_vec3d;

  000a6	b8 60 00 00 00	 mov	 eax, 96			; 00000060H
  000ab	6b c8 0d	 imul	 ecx, eax, 13
  000ae	ba 04 00 00 00	 mov	 edx, 4
  000b3	c1 e2 03	 shl	 edx, 3
  000b6	c7 84 11 00 00
	00 00 00 00 00
	00		 mov	 DWORD PTR ?fn_get_local_entity_vec3d@@3PAY0BI@P6GXPAUENTITY@@W4VEC3D_TYPES@@PAUVEC3D@@@ZA[ecx+edx], OFFSET ?get_local_vec3d@@YGXPAUENTITY@@W4VEC3D_TYPES@@PAUVEC3D@@@Z ; get_local_vec3d

; 287  : 	fn_get_local_entity_vec3d_ptr			[ENTITY_TYPE_GUIDE][VEC3D_TYPE_POSITION]											= get_local_vec3d_ptr;

  000c1	b8 60 00 00 00	 mov	 eax, 96			; 00000060H
  000c6	6b c8 0d	 imul	 ecx, eax, 13
  000c9	ba 04 00 00 00	 mov	 edx, 4
  000ce	c1 e2 03	 shl	 edx, 3
  000d1	c7 84 11 00 00
	00 00 00 00 00
	00		 mov	 DWORD PTR ?fn_get_local_entity_vec3d_ptr@@3PAY0BI@P6GPAUVEC3D@@PAUENTITY@@W4VEC3D_TYPES@@@ZA[ecx+edx], OFFSET ?get_local_vec3d_ptr@@YGPAUVEC3D@@PAUENTITY@@W4VEC3D_TYPES@@@Z ; get_local_vec3d_ptr

; 288  : 
; 289  : 	fn_set_local_entity_raw_vec3d			[ENTITY_TYPE_GUIDE][VEC3D_TYPE_RELATIVE_POSITION]								= set_local_vec3d;

  000dc	b8 60 00 00 00	 mov	 eax, 96			; 00000060H
  000e1	6b c8 0d	 imul	 ecx, eax, 13
  000e4	ba 04 00 00 00	 mov	 edx, 4
  000e9	6b c2 09	 imul	 eax, edx, 9
  000ec	c7 84 01 00 00
	00 00 00 00 00
	00		 mov	 DWORD PTR ?fn_set_local_entity_raw_vec3d@@3PAY0BI@P6GXPAUENTITY@@W4VEC3D_TYPES@@PAUVEC3D@@@ZA[ecx+eax], OFFSET ?set_local_vec3d@@YGXPAUENTITY@@W4VEC3D_TYPES@@PAUVEC3D@@@Z ; set_local_vec3d

; 290  : 	fn_set_local_entity_vec3d				[ENTITY_TYPE_GUIDE][VEC3D_TYPE_RELATIVE_POSITION]								= set_local_vec3d;

  000f7	b8 60 00 00 00	 mov	 eax, 96			; 00000060H
  000fc	6b c8 0d	 imul	 ecx, eax, 13
  000ff	ba 04 00 00 00	 mov	 edx, 4
  00104	6b c2 09	 imul	 eax, edx, 9
  00107	c7 84 01 00 00
	00 00 00 00 00
	00		 mov	 DWORD PTR ?fn_set_local_entity_vec3d@@3PAY0BI@P6GXPAUENTITY@@W4VEC3D_TYPES@@PAUVEC3D@@@ZA[ecx+eax], OFFSET ?set_local_vec3d@@YGXPAUENTITY@@W4VEC3D_TYPES@@PAUVEC3D@@@Z ; set_local_vec3d

; 291  : 	fn_set_client_server_entity_vec3d	[ENTITY_TYPE_GUIDE][VEC3D_TYPE_RELATIVE_POSITION][COMMS_MODEL_SERVER]	= set_server_vec3d;

  00112	b8 c0 00 00 00	 mov	 eax, 192		; 000000c0H
  00117	6b c8 0d	 imul	 ecx, eax, 13
  0011a	ba 08 00 00 00	 mov	 edx, 8
  0011f	6b c2 09	 imul	 eax, edx, 9
  00122	8d 8c 01 00 00
	00 00		 lea	 ecx, DWORD PTR ?fn_set_client_server_entity_vec3d@@3PAY1BI@1P6GXPAUENTITY@@W4VEC3D_TYPES@@PAUVEC3D@@@ZA[ecx+eax]
  00129	ba 04 00 00 00	 mov	 edx, 4
  0012e	6b c2 00	 imul	 eax, edx, 0
  00131	c7 04 01 00 00
	00 00		 mov	 DWORD PTR [ecx+eax], OFFSET ?set_server_vec3d@@YGXPAUENTITY@@W4VEC3D_TYPES@@PAUVEC3D@@@Z ; set_server_vec3d

; 292  : 	fn_set_client_server_entity_vec3d	[ENTITY_TYPE_GUIDE][VEC3D_TYPE_RELATIVE_POSITION][COMMS_MODEL_CLIENT]	= set_client_vec3d;

  00138	b8 c0 00 00 00	 mov	 eax, 192		; 000000c0H
  0013d	6b c8 0d	 imul	 ecx, eax, 13
  00140	ba 08 00 00 00	 mov	 edx, 8
  00145	6b c2 09	 imul	 eax, edx, 9
  00148	8d 8c 01 00 00
	00 00		 lea	 ecx, DWORD PTR ?fn_set_client_server_entity_vec3d@@3PAY1BI@1P6GXPAUENTITY@@W4VEC3D_TYPES@@PAUVEC3D@@@ZA[ecx+eax]
  0014f	ba 04 00 00 00	 mov	 edx, 4
  00154	c1 e2 00	 shl	 edx, 0
  00157	c7 04 11 00 00
	00 00		 mov	 DWORD PTR [ecx+edx], OFFSET ?set_client_vec3d@@YGXPAUENTITY@@W4VEC3D_TYPES@@PAUVEC3D@@@Z ; set_client_vec3d

; 293  : 	fn_get_local_entity_vec3d				[ENTITY_TYPE_GUIDE][VEC3D_TYPE_RELATIVE_POSITION]							 	= get_local_vec3d;

  0015e	b8 60 00 00 00	 mov	 eax, 96			; 00000060H
  00163	6b c8 0d	 imul	 ecx, eax, 13
  00166	ba 04 00 00 00	 mov	 edx, 4
  0016b	6b c2 09	 imul	 eax, edx, 9
  0016e	c7 84 01 00 00
	00 00 00 00 00
	00		 mov	 DWORD PTR ?fn_get_local_entity_vec3d@@3PAY0BI@P6GXPAUENTITY@@W4VEC3D_TYPES@@PAUVEC3D@@@ZA[ecx+eax], OFFSET ?get_local_vec3d@@YGXPAUENTITY@@W4VEC3D_TYPES@@PAUVEC3D@@@Z ; get_local_vec3d

; 294  : 	fn_get_local_entity_vec3d_ptr			[ENTITY_TYPE_GUIDE][VEC3D_TYPE_RELATIVE_POSITION]								= get_local_vec3d_ptr;

  00179	b8 60 00 00 00	 mov	 eax, 96			; 00000060H
  0017e	6b c8 0d	 imul	 ecx, eax, 13
  00181	ba 04 00 00 00	 mov	 edx, 4
  00186	6b c2 09	 imul	 eax, edx, 9
  00189	c7 84 01 00 00
	00 00 00 00 00
	00		 mov	 DWORD PTR ?fn_get_local_entity_vec3d_ptr@@3PAY0BI@P6GPAUVEC3D@@PAUENTITY@@W4VEC3D_TYPES@@@ZA[ecx+eax], OFFSET ?get_local_vec3d_ptr@@YGPAUVEC3D@@PAUENTITY@@W4VEC3D_TYPES@@@Z ; get_local_vec3d_ptr

; 295  : }

  00194	5f		 pop	 edi
  00195	5e		 pop	 esi
  00196	5b		 pop	 ebx
  00197	8b e5		 mov	 esp, ebp
  00199	5d		 pop	 ebp
  0019a	c3		 ret	 0
?overload_guide_vec3d_functions@@YGXXZ ENDP		; overload_guide_vec3d_functions
_TEXT	ENDS
END
