; Listing generated by Microsoft (R) Optimizing Compiler Version 19.16.27045.0 

	TITLE	C:\Users\nhv90\Projects\eech\aphavoc\source\gfxfiles.c
	.686P
	.XMM
	include listing.inc
	.model	flat

INCLUDELIB MSVCRTD
INCLUDELIB OLDNAMES

PUBLIC	?graphics_files@@3PAUFILE_DATA@@A		; graphics_files
PUBLIC	??_C@_0BM@KOABDLFJ@?2COHOKUM?2GRAPHICS?2COCKPITS?2@ ; `string'
PUBLIC	??_C@_0CK@GCHALAKP@?2COHOKUM?2GRAPHICS?2COCKPITS?2APAC@ ; `string'
PUBLIC	??_C@_0CK@GADGAOPG@?2COHOKUM?2GRAPHICS?2COCKPITS?2APAC@ ; `string'
PUBLIC	??_C@_0CK@GBPEGEMB@?2COHOKUM?2GRAPHICS?2COCKPITS?2APAC@ ; `string'
PUBLIC	??_C@_0CJ@DIPNDMAJ@?2COHOKUM?2GRAPHICS?2COCKPITS?2HAVO@ ; `string'
PUBLIC	??_C@_0CJ@DKLLICFA@?2COHOKUM?2GRAPHICS?2COCKPITS?2HAVO@ ; `string'
PUBLIC	??_C@_0CJ@DLHJOIGH@?2COHOKUM?2GRAPHICS?2COCKPITS?2HAVO@ ; `string'
PUBLIC	??_C@_0BN@HIPJEAK@?2COHOKUM?2GRAPHICS?2UI?2APACHE?2@ ; `string'
PUBLIC	??_C@_0BN@INEMNGBC@?2COHOKUM?2GRAPHICS?2UI?2COMMON?2@ ; `string'
PUBLIC	??_C@_0BM@NCNMCIOF@?2COHOKUM?2GRAPHICS?2UI?2HAVOC?2@ ; `string'
PUBLIC	??_C@_0BM@DBONELDJ@?2COMMON?2MAPS?2MAP1?2GRAPHICS?2@ ; `string'
PUBLIC	??_C@_0BM@EGHDJJMJ@?2COMMON?2MAPS?2MAP2?2GRAPHICS?2@ ; `string'
PUBLIC	??_C@_0BM@NNNGNFKG@?2COMMON?2MAPS?2MAP3?2GRAPHICS?2@ ; `string'
PUBLIC	??_C@_0BM@KJEODMCJ@?2COMMON?2MAPS?2MAP4?2GRAPHICS?2@ ; `string'
PUBLIC	??_C@_0BD@ICFHEJJJ@GRAPHICS?2COCKPITS?2@	; `string'
PUBLIC	??_C@_0CB@CFNCIDIP@GRAPHICS?2COCKPITS?2APACHE?2LEVEL1@ ; `string'
PUBLIC	??_C@_0CB@CHJEDNNG@GRAPHICS?2COCKPITS?2APACHE?2LEVEL2@ ; `string'
PUBLIC	??_C@_0CB@CGFGFHOB@GRAPHICS?2COCKPITS?2APACHE?2LEVEL3@ ; `string'
PUBLIC	??_C@_0CA@CIABGDOH@GRAPHICS?2COCKPITS?2HAVOC?2LEVEL1?2@ ; `string'
PUBLIC	??_C@_0CA@CKEHNNLO@GRAPHICS?2COCKPITS?2HAVOC?2LEVEL2?2@ ; `string'
PUBLIC	??_C@_0CA@CLIFLHIJ@GRAPHICS?2COCKPITS?2HAVOC?2LEVEL3?2@ ; `string'
PUBLIC	??_C@_0BE@JMMHAAMI@GRAPHICS?2UI?2APACHE?2@	; `string'
PUBLIC	??_C@_0BE@BGAEECNA@GRAPHICS?2UI?2COMMON?2@	; `string'
PUBLIC	??_C@_0BD@POIKFKCF@GRAPHICS?2UI?2HAVOC?2@	; `string'
PUBLIC	??_C@_0BO@ICICHCA@?4?4?2COMMON?2MAPS?2MAP1?2GRAPHICS?2@ ; `string'
PUBLIC	??_C@_0BO@HPLGPFNA@?4?4?2COMMON?2MAPS?2MAP2?2GRAPHICS?2@ ; `string'
PUBLIC	??_C@_0BO@OEBDLJLP@?4?4?2COMMON?2MAPS?2MAP3?2GRAPHICS?2@ ; `string'
PUBLIC	??_C@_0BO@JAILFADA@?4?4?2COMMON?2MAPS?2MAP4?2GRAPHICS?2@ ; `string'
;	COMDAT ??_C@_0BO@JAILFADA@?4?4?2COMMON?2MAPS?2MAP4?2GRAPHICS?2@
CONST	SEGMENT
??_C@_0BO@JAILFADA@?4?4?2COMMON?2MAPS?2MAP4?2GRAPHICS?2@ DB '..\COMMON\MA'
	DB	'PS\MAP4\GRAPHICS\', 00H			; `string'
CONST	ENDS
;	COMDAT ??_C@_0BO@OEBDLJLP@?4?4?2COMMON?2MAPS?2MAP3?2GRAPHICS?2@
CONST	SEGMENT
??_C@_0BO@OEBDLJLP@?4?4?2COMMON?2MAPS?2MAP3?2GRAPHICS?2@ DB '..\COMMON\MA'
	DB	'PS\MAP3\GRAPHICS\', 00H			; `string'
CONST	ENDS
;	COMDAT ??_C@_0BO@HPLGPFNA@?4?4?2COMMON?2MAPS?2MAP2?2GRAPHICS?2@
CONST	SEGMENT
??_C@_0BO@HPLGPFNA@?4?4?2COMMON?2MAPS?2MAP2?2GRAPHICS?2@ DB '..\COMMON\MA'
	DB	'PS\MAP2\GRAPHICS\', 00H			; `string'
CONST	ENDS
;	COMDAT ??_C@_0BO@ICICHCA@?4?4?2COMMON?2MAPS?2MAP1?2GRAPHICS?2@
CONST	SEGMENT
??_C@_0BO@ICICHCA@?4?4?2COMMON?2MAPS?2MAP1?2GRAPHICS?2@ DB '..\COMMON\MAP'
	DB	'S\MAP1\GRAPHICS\', 00H			; `string'
CONST	ENDS
;	COMDAT ??_C@_0BD@POIKFKCF@GRAPHICS?2UI?2HAVOC?2@
CONST	SEGMENT
??_C@_0BD@POIKFKCF@GRAPHICS?2UI?2HAVOC?2@ DB 'GRAPHICS\UI\HAVOC\', 00H ; `string'
CONST	ENDS
;	COMDAT ??_C@_0BE@BGAEECNA@GRAPHICS?2UI?2COMMON?2@
CONST	SEGMENT
??_C@_0BE@BGAEECNA@GRAPHICS?2UI?2COMMON?2@ DB 'GRAPHICS\UI\COMMON\', 00H ; `string'
CONST	ENDS
;	COMDAT ??_C@_0BE@JMMHAAMI@GRAPHICS?2UI?2APACHE?2@
CONST	SEGMENT
??_C@_0BE@JMMHAAMI@GRAPHICS?2UI?2APACHE?2@ DB 'GRAPHICS\UI\APACHE\', 00H ; `string'
CONST	ENDS
;	COMDAT ??_C@_0CA@CLIFLHIJ@GRAPHICS?2COCKPITS?2HAVOC?2LEVEL3?2@
CONST	SEGMENT
??_C@_0CA@CLIFLHIJ@GRAPHICS?2COCKPITS?2HAVOC?2LEVEL3?2@ DB 'GRAPHICS\COCK'
	DB	'PITS\HAVOC\LEVEL3\', 00H			; `string'
CONST	ENDS
;	COMDAT ??_C@_0CA@CKEHNNLO@GRAPHICS?2COCKPITS?2HAVOC?2LEVEL2?2@
CONST	SEGMENT
??_C@_0CA@CKEHNNLO@GRAPHICS?2COCKPITS?2HAVOC?2LEVEL2?2@ DB 'GRAPHICS\COCK'
	DB	'PITS\HAVOC\LEVEL2\', 00H			; `string'
CONST	ENDS
;	COMDAT ??_C@_0CA@CIABGDOH@GRAPHICS?2COCKPITS?2HAVOC?2LEVEL1?2@
CONST	SEGMENT
??_C@_0CA@CIABGDOH@GRAPHICS?2COCKPITS?2HAVOC?2LEVEL1?2@ DB 'GRAPHICS\COCK'
	DB	'PITS\HAVOC\LEVEL1\', 00H			; `string'
CONST	ENDS
;	COMDAT ??_C@_0CB@CGFGFHOB@GRAPHICS?2COCKPITS?2APACHE?2LEVEL3@
CONST	SEGMENT
??_C@_0CB@CGFGFHOB@GRAPHICS?2COCKPITS?2APACHE?2LEVEL3@ DB 'GRAPHICS\COCKP'
	DB	'ITS\APACHE\LEVEL3\', 00H			; `string'
CONST	ENDS
;	COMDAT ??_C@_0CB@CHJEDNNG@GRAPHICS?2COCKPITS?2APACHE?2LEVEL2@
CONST	SEGMENT
??_C@_0CB@CHJEDNNG@GRAPHICS?2COCKPITS?2APACHE?2LEVEL2@ DB 'GRAPHICS\COCKP'
	DB	'ITS\APACHE\LEVEL2\', 00H			; `string'
CONST	ENDS
;	COMDAT ??_C@_0CB@CFNCIDIP@GRAPHICS?2COCKPITS?2APACHE?2LEVEL1@
CONST	SEGMENT
??_C@_0CB@CFNCIDIP@GRAPHICS?2COCKPITS?2APACHE?2LEVEL1@ DB 'GRAPHICS\COCKP'
	DB	'ITS\APACHE\LEVEL1\', 00H			; `string'
CONST	ENDS
;	COMDAT ??_C@_0BD@ICFHEJJJ@GRAPHICS?2COCKPITS?2@
CONST	SEGMENT
??_C@_0BD@ICFHEJJJ@GRAPHICS?2COCKPITS?2@ DB 'GRAPHICS\COCKPITS\', 00H ; `string'
CONST	ENDS
;	COMDAT ??_C@_0BM@KJEODMCJ@?2COMMON?2MAPS?2MAP4?2GRAPHICS?2@
CONST	SEGMENT
??_C@_0BM@KJEODMCJ@?2COMMON?2MAPS?2MAP4?2GRAPHICS?2@ DB '\COMMON\MAPS\MAP'
	DB	'4\GRAPHICS\', 00H				; `string'
CONST	ENDS
;	COMDAT ??_C@_0BM@NNNGNFKG@?2COMMON?2MAPS?2MAP3?2GRAPHICS?2@
CONST	SEGMENT
??_C@_0BM@NNNGNFKG@?2COMMON?2MAPS?2MAP3?2GRAPHICS?2@ DB '\COMMON\MAPS\MAP'
	DB	'3\GRAPHICS\', 00H				; `string'
CONST	ENDS
;	COMDAT ??_C@_0BM@EGHDJJMJ@?2COMMON?2MAPS?2MAP2?2GRAPHICS?2@
CONST	SEGMENT
??_C@_0BM@EGHDJJMJ@?2COMMON?2MAPS?2MAP2?2GRAPHICS?2@ DB '\COMMON\MAPS\MAP'
	DB	'2\GRAPHICS\', 00H				; `string'
CONST	ENDS
;	COMDAT ??_C@_0BM@DBONELDJ@?2COMMON?2MAPS?2MAP1?2GRAPHICS?2@
CONST	SEGMENT
??_C@_0BM@DBONELDJ@?2COMMON?2MAPS?2MAP1?2GRAPHICS?2@ DB '\COMMON\MAPS\MAP'
	DB	'1\GRAPHICS\', 00H				; `string'
CONST	ENDS
;	COMDAT ??_C@_0BM@NCNMCIOF@?2COHOKUM?2GRAPHICS?2UI?2HAVOC?2@
CONST	SEGMENT
??_C@_0BM@NCNMCIOF@?2COHOKUM?2GRAPHICS?2UI?2HAVOC?2@ DB '\COHOKUM\GRAPHIC'
	DB	'S\UI\HAVOC\', 00H				; `string'
CONST	ENDS
;	COMDAT ??_C@_0BN@INEMNGBC@?2COHOKUM?2GRAPHICS?2UI?2COMMON?2@
CONST	SEGMENT
??_C@_0BN@INEMNGBC@?2COHOKUM?2GRAPHICS?2UI?2COMMON?2@ DB '\COHOKUM\GRAPHI'
	DB	'CS\UI\COMMON\', 00H				; `string'
CONST	ENDS
;	COMDAT ??_C@_0BN@HIPJEAK@?2COHOKUM?2GRAPHICS?2UI?2APACHE?2@
CONST	SEGMENT
??_C@_0BN@HIPJEAK@?2COHOKUM?2GRAPHICS?2UI?2APACHE?2@ DB '\COHOKUM\GRAPHIC'
	DB	'S\UI\APACHE\', 00H				; `string'
CONST	ENDS
;	COMDAT ??_C@_0CJ@DLHJOIGH@?2COHOKUM?2GRAPHICS?2COCKPITS?2HAVO@
CONST	SEGMENT
??_C@_0CJ@DLHJOIGH@?2COHOKUM?2GRAPHICS?2COCKPITS?2HAVO@ DB '\COHOKUM\GRAP'
	DB	'HICS\COCKPITS\HAVOC\LEVEL3\', 00H		; `string'
CONST	ENDS
;	COMDAT ??_C@_0CJ@DKLLICFA@?2COHOKUM?2GRAPHICS?2COCKPITS?2HAVO@
CONST	SEGMENT
??_C@_0CJ@DKLLICFA@?2COHOKUM?2GRAPHICS?2COCKPITS?2HAVO@ DB '\COHOKUM\GRAP'
	DB	'HICS\COCKPITS\HAVOC\LEVEL2\', 00H		; `string'
CONST	ENDS
;	COMDAT ??_C@_0CJ@DIPNDMAJ@?2COHOKUM?2GRAPHICS?2COCKPITS?2HAVO@
CONST	SEGMENT
??_C@_0CJ@DIPNDMAJ@?2COHOKUM?2GRAPHICS?2COCKPITS?2HAVO@ DB '\COHOKUM\GRAP'
	DB	'HICS\COCKPITS\HAVOC\LEVEL1\', 00H		; `string'
CONST	ENDS
;	COMDAT ??_C@_0CK@GBPEGEMB@?2COHOKUM?2GRAPHICS?2COCKPITS?2APAC@
CONST	SEGMENT
??_C@_0CK@GBPEGEMB@?2COHOKUM?2GRAPHICS?2COCKPITS?2APAC@ DB '\COHOKUM\GRAP'
	DB	'HICS\COCKPITS\APACHE\LEVEL3\', 00H		; `string'
CONST	ENDS
;	COMDAT ??_C@_0CK@GADGAOPG@?2COHOKUM?2GRAPHICS?2COCKPITS?2APAC@
CONST	SEGMENT
??_C@_0CK@GADGAOPG@?2COHOKUM?2GRAPHICS?2COCKPITS?2APAC@ DB '\COHOKUM\GRAP'
	DB	'HICS\COCKPITS\APACHE\LEVEL2\', 00H		; `string'
CONST	ENDS
;	COMDAT ??_C@_0CK@GCHALAKP@?2COHOKUM?2GRAPHICS?2COCKPITS?2APAC@
CONST	SEGMENT
??_C@_0CK@GCHALAKP@?2COHOKUM?2GRAPHICS?2COCKPITS?2APAC@ DB '\COHOKUM\GRAP'
	DB	'HICS\COCKPITS\APACHE\LEVEL1\', 00H		; `string'
CONST	ENDS
;	COMDAT ??_C@_0BM@KOABDLFJ@?2COHOKUM?2GRAPHICS?2COCKPITS?2@
CONST	SEGMENT
??_C@_0BM@KOABDLFJ@?2COHOKUM?2GRAPHICS?2COCKPITS?2@ DB '\COHOKUM\GRAPHICS'
	DB	'\COCKPITS\', 00H				; `string'
CONST	ENDS
_DATA	SEGMENT
?graphics_files@@3PAUFILE_DATA@@A DD 07H		; graphics_files
	DB	'INIT', 00H
	ORG $+4
	DB	'PSD', 00H
	DB	'RGB', 00H
	ORG $+3
	DD	08H
	DD	00H
	DD	00H
	DD	01H
	DD	09H
	DB	'INIT', 00H
	ORG $+4
	DB	'PSD', 00H
	DB	'RGB', 00H
	ORG $+3
	DD	08H
	DD	00H
	DD	00H
	DD	01H
	DD	08H
	DB	'POINTER', 00H
	ORG $+1
	DB	'PSD', 00H
	DB	'RGB', 00H
	ORG $+3
	DD	05H
	DD	00H
	DD	00H
	DD	03H
	DD	08H
	DB	'ARIAL22W', 00H
	DB	'PSD', 00H
	DB	'RGA', 00H
	ORG $+3
	DD	09H
	DD	00H
	DD	00H
	DD	01H
	DD	08H
	DB	'ARIA22BK', 00H
	DB	'PSD', 00H
	DB	'RGA', 00H
	ORG $+3
	DD	09H
	DD	00H
	DD	00H
	DD	01H
	DD	08H
	DB	'ARIA22DG', 00H
	DB	'PSD', 00H
	DB	'RGA', 00H
	ORG $+3
	DD	09H
	DD	00H
	DD	00H
	DD	01H
	DD	08H
	DB	'ARIAL22B', 00H
	DB	'PSD', 00H
	DB	'RGA', 00H
	ORG $+3
	DD	09H
	DD	00H
	DD	00H
	DD	01H
	DD	08H
	DB	'ARIAL22G', 00H
	DB	'PSD', 00H
	DB	'RGA', 00H
	ORG $+3
	DD	09H
	DD	00H
	DD	00H
	DD	01H
	DD	08H
	DB	'ARIAL22O', 00H
	DB	'PSD', 00H
	DB	'RGA', 00H
	ORG $+3
	DD	09H
	DD	00H
	DD	00H
	DD	01H
	DD	08H
	DB	'ARIAL22R', 00H
	DB	'PSD', 00H
	DB	'RGA', 00H
	ORG $+3
	DD	09H
	DD	00H
	DD	00H
	DD	01H
	DD	08H
	DB	'ARIAL22Y', 00H
	DB	'PSD', 00H
	DB	'RGA', 00H
	ORG $+3
	DD	09H
	DD	00H
	DD	00H
	DD	01H
	DD	08H
	DB	'ARIAL15W', 00H
	DB	'PSD', 00H
	DB	'RGA', 00H
	ORG $+3
	DD	09H
	DD	00H
	DD	00H
	DD	01H
	DD	08H
	DB	'ARIAL15B', 00H
	DB	'PSD', 00H
	DB	'RGA', 00H
	ORG $+3
	DD	09H
	DD	00H
	DD	00H
	DD	01H
	DD	08H
	DB	'ARIAL15R', 00H
	DB	'PSD', 00H
	DB	'RGA', 00H
	ORG $+3
	DD	09H
	DD	00H
	DD	00H
	DD	01H
	DD	08H
	DB	'ARIAL15Y', 00H
	DB	'PSD', 00H
	DB	'RGA', 00H
	ORG $+3
	DD	09H
	DD	00H
	DD	00H
	DD	01H
	DD	08H
	DB	'ARIA15GY', 00H
	DB	'PSD', 00H
	DB	'RGA', 00H
	ORG $+3
	DD	09H
	DD	00H
	DD	00H
	DD	01H
	DD	08H
	DB	'ARIAL15O', 00H
	DB	'PSD', 00H
	DB	'RGA', 00H
	ORG $+3
	DD	09H
	DD	00H
	DD	00H
	DD	01H
	DD	08H
	DB	'ARIAL15G', 00H
	DB	'PSD', 00H
	DB	'RGA', 00H
	ORG $+3
	DD	09H
	DD	00H
	DD	00H
	DD	01H
	DD	08H
	DB	'ARIAL11W', 00H
	DB	'PSD', 00H
	DB	'RGA', 00H
	ORG $+3
	DD	09H
	DD	00H
	DD	00H
	DD	01H
	DD	08H
	DB	'ARIA11BK', 00H
	DB	'PSD', 00H
	DB	'RGA', 00H
	ORG $+3
	DD	09H
	DD	00H
	DD	00H
	DD	01H
	DD	08H
	DB	'ARIA11DG', 00H
	DB	'PSD', 00H
	DB	'RGA', 00H
	ORG $+3
	DD	09H
	DD	00H
	DD	00H
	DD	01H
	DD	08H
	DB	'ARIAL11B', 00H
	DB	'PSD', 00H
	DB	'RGA', 00H
	ORG $+3
	DD	09H
	DD	00H
	DD	00H
	DD	01H
	DD	08H
	DB	'ARIAL11G', 00H
	DB	'PSD', 00H
	DB	'RGA', 00H
	ORG $+3
	DD	09H
	DD	00H
	DD	00H
	DD	01H
	DD	08H
	DB	'ARIA11GY', 00H
	DB	'PSD', 00H
	DB	'RGA', 00H
	ORG $+3
	DD	09H
	DD	00H
	DD	00H
	DD	01H
	DD	08H
	DB	'ARIAL11O', 00H
	DB	'PSD', 00H
	DB	'RGA', 00H
	ORG $+3
	DD	09H
	DD	00H
	DD	00H
	DD	01H
	DD	08H
	DB	'ARIAL11R', 00H
	DB	'PSD', 00H
	DB	'RGA', 00H
	ORG $+3
	DD	09H
	DD	00H
	DD	00H
	DD	01H
	DD	08H
	DB	'ARIAL11Y', 00H
	DB	'PSD', 00H
	DB	'RGA', 00H
	ORG $+3
	DD	09H
	DD	00H
	DD	00H
	DD	01H
	DD	08H
	DB	'ARIA11BK', 00H
	DB	'PSD', 00H
	DB	'RGA', 00H
	ORG $+3
	DD	09H
	DD	00H
	DD	00H
	DD	01H
	DD	08H
	DB	'ADS11W', 00H
	ORG $+2
	DB	'PSD', 00H
	DB	'RGA', 00H
	ORG $+3
	DD	09H
	DD	00H
	DD	00H
	DD	01H
	DD	08H
	DB	'ADS11Y', 00H
	ORG $+2
	DB	'PSD', 00H
	DB	'RGA', 00H
	ORG $+3
	DD	09H
	DD	00H
	DD	00H
	DD	01H
	DD	08H
	DB	'ADS11GY', 00H
	ORG $+1
	DB	'PSD', 00H
	DB	'RGA', 00H
	ORG $+3
	DD	09H
	DD	00H
	DD	00H
	DD	01H
	DD	08H
	DB	'ADS11B', 00H
	ORG $+2
	DB	'PSD', 00H
	DB	'RGA', 00H
	ORG $+3
	DD	09H
	DD	00H
	DD	00H
	DD	01H
	DD	08H
	DB	'ADS11O', 00H
	ORG $+2
	DB	'PSD', 00H
	DB	'RGA', 00H
	ORG $+3
	DD	09H
	DD	00H
	DD	00H
	DD	01H
	DD	08H
	DB	'ADS15W', 00H
	ORG $+2
	DB	'PSD', 00H
	DB	'RGA', 00H
	ORG $+3
	DD	09H
	DD	00H
	DD	00H
	DD	01H
	DD	08H
	DB	'ADS15Y', 00H
	ORG $+2
	DB	'PSD', 00H
	DB	'RGA', 00H
	ORG $+3
	DD	09H
	DD	00H
	DD	00H
	DD	01H
	DD	08H
	DB	'ADS15B', 00H
	ORG $+2
	DB	'PSD', 00H
	DB	'RGA', 00H
	ORG $+3
	DD	09H
	DD	00H
	DD	00H
	DD	01H
	DD	08H
	DB	'ADS15O', 00H
	ORG $+2
	DB	'PSD', 00H
	DB	'RGA', 00H
	ORG $+3
	DD	09H
	DD	00H
	DD	00H
	DD	01H
	DD	08H
	DB	'ADS22W', 00H
	ORG $+2
	DB	'PSD', 00H
	DB	'RGA', 00H
	ORG $+3
	DD	09H
	DD	00H
	DD	00H
	DD	01H
	DD	08H
	DB	'ADS22Y', 00H
	ORG $+2
	DB	'PSD', 00H
	DB	'RGA', 00H
	ORG $+3
	DD	09H
	DD	00H
	DD	00H
	DD	01H
	DD	08H
	DB	'ADS22B', 00H
	ORG $+2
	DB	'PSD', 00H
	DB	'RGA', 00H
	ORG $+3
	DD	09H
	DD	00H
	DD	00H
	DD	01H
	DD	08H
	DB	'ADS22O', 00H
	ORG $+2
	DB	'PSD', 00H
	DB	'RGA', 00H
	ORG $+3
	DD	09H
	DD	00H
	DD	00H
	DD	01H
	DD	08H
	DB	'MONO7', 00H
	ORG $+3
	DB	'PSD', 00H
	DB	'RGA', 00H
	ORG $+3
	DD	09H
	DD	00H
	DD	00H
	DD	01H
	DD	08H
	DB	'ARIAL8W', 00H
	ORG $+1
	DB	'PSD', 00H
	DB	'RGA', 00H
	ORG $+3
	DD	09H
	DD	00H
	DD	00H
	DD	01H
	DD	08H
	DB	'ARIAL8Y', 00H
	ORG $+1
	DB	'PSD', 00H
	DB	'RGA', 00H
	ORG $+3
	DD	09H
	DD	00H
	DD	00H
	DD	01H
	DD	00H
	DB	'LOGO', 00H
	ORG $+4
	DB	'PSD', 00H
	DB	'RGA', 00H
	ORG $+3
	DD	09H
	DD	00H
	DD	01H
	DD	01H
	DD	01H
	DB	'U40_L90', 00H
	ORG $+1
	DB	'PSD', 00H
	DB	'RLE', 00H
	ORG $+3
	DD	0aH
	DD	00H
	DD	01H
	DD	05H
	DD	01H
	DB	'U40_L60', 00H
	ORG $+1
	DB	'PSD', 00H
	DB	'RLE', 00H
	ORG $+3
	DD	0aH
	DD	00H
	DD	01H
	DD	05H
	DD	01H
	DB	'U40_L30', 00H
	ORG $+1
	DB	'PSD', 00H
	DB	'RLE', 00H
	ORG $+3
	DD	0aH
	DD	00H
	DD	01H
	DD	05H
	DD	01H
	DB	'U40_AHD', 00H
	ORG $+1
	DB	'PSD', 00H
	DB	'RLE', 00H
	ORG $+3
	DD	0aH
	DD	00H
	DD	01H
	DD	05H
	DD	01H
	DB	'U40_R30', 00H
	ORG $+1
	DB	'PSD', 00H
	DB	'RLE', 00H
	ORG $+3
	DD	0aH
	DD	00H
	DD	01H
	DD	05H
	DD	01H
	DB	'U40_R60', 00H
	ORG $+1
	DB	'PSD', 00H
	DB	'RLE', 00H
	ORG $+3
	DD	0aH
	DD	00H
	DD	01H
	DD	05H
	DD	01H
	DB	'U40_R90', 00H
	ORG $+1
	DB	'PSD', 00H
	DB	'RLE', 00H
	ORG $+3
	DD	0aH
	DD	00H
	DD	01H
	DD	05H
	DD	01H
	DB	'U20_L90', 00H
	ORG $+1
	DB	'PSD', 00H
	DB	'RLE', 00H
	ORG $+3
	DD	0aH
	DD	00H
	DD	01H
	DD	05H
	DD	01H
	DB	'U20_L60', 00H
	ORG $+1
	DB	'PSD', 00H
	DB	'RLE', 00H
	ORG $+3
	DD	0aH
	DD	00H
	DD	01H
	DD	05H
	DD	01H
	DB	'U20_L30', 00H
	ORG $+1
	DB	'PSD', 00H
	DB	'RLE', 00H
	ORG $+3
	DD	0aH
	DD	00H
	DD	01H
	DD	05H
	DD	01H
	DB	'U20_AHD', 00H
	ORG $+1
	DB	'PSD', 00H
	DB	'RLE', 00H
	ORG $+3
	DD	0aH
	DD	00H
	DD	01H
	DD	05H
	DD	01H
	DB	'U20_R30', 00H
	ORG $+1
	DB	'PSD', 00H
	DB	'RLE', 00H
	ORG $+3
	DD	0aH
	DD	00H
	DD	01H
	DD	05H
	DD	01H
	DB	'U20_R60', 00H
	ORG $+1
	DB	'PSD', 00H
	DB	'RLE', 00H
	ORG $+3
	DD	0aH
	DD	00H
	DD	01H
	DD	05H
	DD	01H
	DB	'U20_R90', 00H
	ORG $+1
	DB	'PSD', 00H
	DB	'RLE', 00H
	ORG $+3
	DD	0aH
	DD	00H
	DD	01H
	DD	05H
	DD	01H
	DB	'LVL_L90', 00H
	ORG $+1
	DB	'PSD', 00H
	DB	'RLE', 00H
	ORG $+3
	DD	0aH
	DD	00H
	DD	01H
	DD	05H
	DD	01H
	DB	'LVL_L60', 00H
	ORG $+1
	DB	'PSD', 00H
	DB	'RLE', 00H
	ORG $+3
	DD	0aH
	DD	00H
	DD	01H
	DD	05H
	DD	01H
	DB	'LVL_L30', 00H
	ORG $+1
	DB	'PSD', 00H
	DB	'RLE', 00H
	ORG $+3
	DD	0aH
	DD	00H
	DD	01H
	DD	05H
	DD	01H
	DB	'LVL_AHD', 00H
	ORG $+1
	DB	'PSD', 00H
	DB	'RLE', 00H
	ORG $+3
	DD	0aH
	DD	00H
	DD	01H
	DD	05H
	DD	01H
	DB	'LVL_R30', 00H
	ORG $+1
	DB	'PSD', 00H
	DB	'RLE', 00H
	ORG $+3
	DD	0aH
	DD	00H
	DD	01H
	DD	05H
	DD	01H
	DB	'LVL_R60', 00H
	ORG $+1
	DB	'PSD', 00H
	DB	'RLE', 00H
	ORG $+3
	DD	0aH
	DD	00H
	DD	01H
	DD	05H
	DD	01H
	DB	'LVL_R90', 00H
	ORG $+1
	DB	'PSD', 00H
	DB	'RLE', 00H
	ORG $+3
	DD	0aH
	DD	00H
	DD	01H
	DD	05H
	DD	01H
	DB	'D20_L90', 00H
	ORG $+1
	DB	'PSD', 00H
	DB	'RLE', 00H
	ORG $+3
	DD	0aH
	DD	00H
	DD	01H
	DD	05H
	DD	01H
	DB	'D20_L60', 00H
	ORG $+1
	DB	'PSD', 00H
	DB	'RLE', 00H
	ORG $+3
	DD	0aH
	DD	00H
	DD	01H
	DD	05H
	DD	01H
	DB	'D20_L30', 00H
	ORG $+1
	DB	'PSD', 00H
	DB	'RLE', 00H
	ORG $+3
	DD	0aH
	DD	00H
	DD	01H
	DD	05H
	DD	01H
	DB	'D20_AHD', 00H
	ORG $+1
	DB	'PSD', 00H
	DB	'RLE', 00H
	ORG $+3
	DD	0aH
	DD	00H
	DD	01H
	DD	05H
	DD	01H
	DB	'D20_R30', 00H
	ORG $+1
	DB	'PSD', 00H
	DB	'RLE', 00H
	ORG $+3
	DD	0aH
	DD	00H
	DD	01H
	DD	05H
	DD	01H
	DB	'D20_R60', 00H
	ORG $+1
	DB	'PSD', 00H
	DB	'RLE', 00H
	ORG $+3
	DD	0aH
	DD	00H
	DD	01H
	DD	05H
	DD	01H
	DB	'D20_R90', 00H
	ORG $+1
	DB	'PSD', 00H
	DB	'RLE', 00H
	ORG $+3
	DD	0aH
	DD	00H
	DD	01H
	DD	05H
	DD	01H
	DB	'LHS_MFD', 00H
	ORG $+1
	DB	'PSD', 00H
	DB	'RGB', 00H
	ORG $+3
	DD	08H
	DD	00H
	DD	01H
	DD	05H
	DD	01H
	DB	'RHS_MFD', 00H
	ORG $+1
	DB	'PSD', 00H
	DB	'RLE', 00H
	ORG $+3
	DD	0aH
	DD	00H
	DD	01H
	DD	05H
	DD	01H
	DB	'MD20_L30', 00H
	DB	'PSD', 00H
	DB	'RLE', 00H
	ORG $+3
	DD	0aH
	DD	00H
	DD	01H
	DD	05H
	DD	01H
	DB	'MD20_AHD', 00H
	DB	'PSD', 00H
	DB	'RLE', 00H
	ORG $+3
	DD	0aH
	DD	00H
	DD	01H
	DD	05H
	DD	01H
	DB	'MD20_R30', 00H
	DB	'PSD', 00H
	DB	'RLE', 00H
	ORG $+3
	DD	0aH
	DD	00H
	DD	01H
	DD	05H
	DD	01H
	DB	'MLHS_MFD', 00H
	DB	'PSD', 00H
	DB	'RLE', 00H
	ORG $+3
	DD	0aH
	DD	00H
	DD	01H
	DD	05H
	DD	01H
	DB	'MRHS_MFD', 00H
	DB	'PSD', 00H
	DB	'RLE', 00H
	ORG $+3
	DD	0aH
	DD	00H
	DD	01H
	DD	05H
	DD	01H
	DB	'WU20_L30', 00H
	DB	'PSD', 00H
	DB	'RLE', 00H
	ORG $+3
	DD	0aH
	DD	00H
	DD	01H
	DD	05H
	DD	01H
	DB	'WU20_AHD', 00H
	DB	'PSD', 00H
	DB	'RLE', 00H
	ORG $+3
	DD	0aH
	DD	00H
	DD	01H
	DD	05H
	DD	01H
	DB	'WLVL_L30', 00H
	DB	'PSD', 00H
	DB	'RLE', 00H
	ORG $+3
	DD	0aH
	DD	00H
	DD	01H
	DD	05H
	DD	01H
	DB	'WLVL_AHD', 00H
	DB	'PSD', 00H
	DB	'RLE', 00H
	ORG $+3
	DD	0aH
	DD	00H
	DD	01H
	DD	05H
	DD	01H
	DB	'WLVL_R30', 00H
	DB	'PSD', 00H
	DB	'RLE', 00H
	ORG $+3
	DD	0aH
	DD	00H
	DD	01H
	DD	05H
	DD	01H
	DB	'WD20_L30', 00H
	DB	'PSD', 00H
	DB	'RLE', 00H
	ORG $+3
	DD	0aH
	DD	00H
	DD	01H
	DD	05H
	DD	01H
	DB	'WD20_AHD', 00H
	DB	'PSD', 00H
	DB	'RLE', 00H
	ORG $+3
	DD	0aH
	DD	00H
	DD	01H
	DD	05H
	DD	01H
	DB	'WD20_R30', 00H
	DB	'PSD', 00H
	DB	'RLE', 00H
	ORG $+3
	DD	0aH
	DD	00H
	DD	01H
	DD	05H
	DD	01H
	DB	'SPRITES', 00H
	ORG $+1
	DB	'PSD', 00H
	DB	'RGB', 00H
	ORG $+3
	DD	08H
	DD	00H
	DD	01H
	DD	05H
	DD	01H
	DB	'SPRITES', 00H
	ORG $+1
	DB	'PSD', 00H
	DB	'MSK', 00H
	ORG $+3
	DD	04H
	DD	00H
	DD	01H
	DD	05H
	DD	01H
	DB	'WPN_MFD', 00H
	ORG $+1
	DB	'PSD', 00H
	DB	'RGB', 00H
	ORG $+3
	DD	08H
	DD	00H
	DD	01H
	DD	05H
	DD	01H
	DB	'WPN_MFD', 00H
	ORG $+1
	DB	'PSD', 00H
	DB	'MSK', 00H
	ORG $+3
	DD	04H
	DD	00H
	DD	01H
	DD	05H
	DD	02H
	DB	'U40_L90', 00H
	ORG $+1
	DB	'PSD', 00H
	DB	'RLE', 00H
	ORG $+3
	DD	0aH
	DD	00H
	DD	01H
	DD	04H
	DD	02H
	DB	'U40_L60', 00H
	ORG $+1
	DB	'PSD', 00H
	DB	'RLE', 00H
	ORG $+3
	DD	0aH
	DD	00H
	DD	01H
	DD	04H
	DD	02H
	DB	'U40_L30', 00H
	ORG $+1
	DB	'PSD', 00H
	DB	'RLE', 00H
	ORG $+3
	DD	0aH
	DD	00H
	DD	01H
	DD	04H
	DD	02H
	DB	'U40_AHD', 00H
	ORG $+1
	DB	'PSD', 00H
	DB	'RLE', 00H
	ORG $+3
	DD	0aH
	DD	00H
	DD	01H
	DD	04H
	DD	02H
	DB	'U40_R30', 00H
	ORG $+1
	DB	'PSD', 00H
	DB	'RLE', 00H
	ORG $+3
	DD	0aH
	DD	00H
	DD	01H
	DD	04H
	DD	02H
	DB	'U40_R60', 00H
	ORG $+1
	DB	'PSD', 00H
	DB	'RLE', 00H
	ORG $+3
	DD	0aH
	DD	00H
	DD	01H
	DD	04H
	DD	02H
	DB	'U40_R90', 00H
	ORG $+1
	DB	'PSD', 00H
	DB	'RLE', 00H
	ORG $+3
	DD	0aH
	DD	00H
	DD	01H
	DD	04H
	DD	02H
	DB	'U20_L90', 00H
	ORG $+1
	DB	'PSD', 00H
	DB	'RLE', 00H
	ORG $+3
	DD	0aH
	DD	00H
	DD	01H
	DD	04H
	DD	02H
	DB	'U20_L60', 00H
	ORG $+1
	DB	'PSD', 00H
	DB	'RLE', 00H
	ORG $+3
	DD	0aH
	DD	00H
	DD	01H
	DD	04H
	DD	02H
	DB	'U20_L30', 00H
	ORG $+1
	DB	'PSD', 00H
	DB	'RLE', 00H
	ORG $+3
	DD	0aH
	DD	00H
	DD	01H
	DD	04H
	DD	02H
	DB	'U20_AHD', 00H
	ORG $+1
	DB	'PSD', 00H
	DB	'RLE', 00H
	ORG $+3
	DD	0aH
	DD	00H
	DD	01H
	DD	04H
	DD	02H
	DB	'U20_R30', 00H
	ORG $+1
	DB	'PSD', 00H
	DB	'RLE', 00H
	ORG $+3
	DD	0aH
	DD	00H
	DD	01H
	DD	04H
	DD	02H
	DB	'U20_R60', 00H
	ORG $+1
	DB	'PSD', 00H
	DB	'RLE', 00H
	ORG $+3
	DD	0aH
	DD	00H
	DD	01H
	DD	04H
	DD	02H
	DB	'U20_R90', 00H
	ORG $+1
	DB	'PSD', 00H
	DB	'RLE', 00H
	ORG $+3
	DD	0aH
	DD	00H
	DD	01H
	DD	04H
	DD	02H
	DB	'LVL_L90', 00H
	ORG $+1
	DB	'PSD', 00H
	DB	'RLE', 00H
	ORG $+3
	DD	0aH
	DD	00H
	DD	01H
	DD	04H
	DD	02H
	DB	'LVL_L60', 00H
	ORG $+1
	DB	'PSD', 00H
	DB	'RLE', 00H
	ORG $+3
	DD	0aH
	DD	00H
	DD	01H
	DD	04H
	DD	02H
	DB	'LVL_L30', 00H
	ORG $+1
	DB	'PSD', 00H
	DB	'RLE', 00H
	ORG $+3
	DD	0aH
	DD	00H
	DD	01H
	DD	04H
	DD	02H
	DB	'LVL_AHD', 00H
	ORG $+1
	DB	'PSD', 00H
	DB	'RLE', 00H
	ORG $+3
	DD	0aH
	DD	00H
	DD	01H
	DD	04H
	DD	02H
	DB	'LVL_R30', 00H
	ORG $+1
	DB	'PSD', 00H
	DB	'RLE', 00H
	ORG $+3
	DD	0aH
	DD	00H
	DD	01H
	DD	04H
	DD	02H
	DB	'LVL_R60', 00H
	ORG $+1
	DB	'PSD', 00H
	DB	'RLE', 00H
	ORG $+3
	DD	0aH
	DD	00H
	DD	01H
	DD	04H
	DD	02H
	DB	'LVL_R90', 00H
	ORG $+1
	DB	'PSD', 00H
	DB	'RLE', 00H
	ORG $+3
	DD	0aH
	DD	00H
	DD	01H
	DD	04H
	DD	02H
	DB	'D20_L90', 00H
	ORG $+1
	DB	'PSD', 00H
	DB	'RLE', 00H
	ORG $+3
	DD	0aH
	DD	00H
	DD	01H
	DD	04H
	DD	02H
	DB	'D20_L60', 00H
	ORG $+1
	DB	'PSD', 00H
	DB	'RLE', 00H
	ORG $+3
	DD	0aH
	DD	00H
	DD	01H
	DD	04H
	DD	02H
	DB	'D20_L30', 00H
	ORG $+1
	DB	'PSD', 00H
	DB	'RLE', 00H
	ORG $+3
	DD	0aH
	DD	00H
	DD	01H
	DD	04H
	DD	02H
	DB	'D20_AHD', 00H
	ORG $+1
	DB	'PSD', 00H
	DB	'RLE', 00H
	ORG $+3
	DD	0aH
	DD	00H
	DD	01H
	DD	04H
	DD	02H
	DB	'D20_R30', 00H
	ORG $+1
	DB	'PSD', 00H
	DB	'RLE', 00H
	ORG $+3
	DD	0aH
	DD	00H
	DD	01H
	DD	04H
	DD	02H
	DB	'D20_R60', 00H
	ORG $+1
	DB	'PSD', 00H
	DB	'RLE', 00H
	ORG $+3
	DD	0aH
	DD	00H
	DD	01H
	DD	04H
	DD	02H
	DB	'D20_R90', 00H
	ORG $+1
	DB	'PSD', 00H
	DB	'RLE', 00H
	ORG $+3
	DD	0aH
	DD	00H
	DD	01H
	DD	04H
	DD	02H
	DB	'LHS_MFD', 00H
	ORG $+1
	DB	'PSD', 00H
	DB	'RGB', 00H
	ORG $+3
	DD	08H
	DD	00H
	DD	01H
	DD	04H
	DD	02H
	DB	'RHS_MFD', 00H
	ORG $+1
	DB	'PSD', 00H
	DB	'RLE', 00H
	ORG $+3
	DD	0aH
	DD	00H
	DD	01H
	DD	04H
	DD	02H
	DB	'MD20_L30', 00H
	DB	'PSD', 00H
	DB	'RLE', 00H
	ORG $+3
	DD	0aH
	DD	00H
	DD	01H
	DD	04H
	DD	02H
	DB	'MD20_AHD', 00H
	DB	'PSD', 00H
	DB	'RLE', 00H
	ORG $+3
	DD	0aH
	DD	00H
	DD	01H
	DD	04H
	DD	02H
	DB	'MD20_R30', 00H
	DB	'PSD', 00H
	DB	'RLE', 00H
	ORG $+3
	DD	0aH
	DD	00H
	DD	01H
	DD	04H
	DD	02H
	DB	'MLHS_MFD', 00H
	DB	'PSD', 00H
	DB	'RLE', 00H
	ORG $+3
	DD	0aH
	DD	00H
	DD	01H
	DD	04H
	DD	02H
	DB	'MRHS_MFD', 00H
	DB	'PSD', 00H
	DB	'RLE', 00H
	ORG $+3
	DD	0aH
	DD	00H
	DD	01H
	DD	04H
	DD	02H
	DB	'WU20_L30', 00H
	DB	'PSD', 00H
	DB	'RLE', 00H
	ORG $+3
	DD	0aH
	DD	00H
	DD	01H
	DD	04H
	DD	02H
	DB	'WU20_AHD', 00H
	DB	'PSD', 00H
	DB	'RLE', 00H
	ORG $+3
	DD	0aH
	DD	00H
	DD	01H
	DD	04H
	DD	02H
	DB	'WLVL_L30', 00H
	DB	'PSD', 00H
	DB	'RLE', 00H
	ORG $+3
	DD	0aH
	DD	00H
	DD	01H
	DD	04H
	DD	02H
	DB	'WLVL_AHD', 00H
	DB	'PSD', 00H
	DB	'RLE', 00H
	ORG $+3
	DD	0aH
	DD	00H
	DD	01H
	DD	04H
	DD	02H
	DB	'WLVL_R30', 00H
	DB	'PSD', 00H
	DB	'RLE', 00H
	ORG $+3
	DD	0aH
	DD	00H
	DD	01H
	DD	04H
	DD	02H
	DB	'WD20_L30', 00H
	DB	'PSD', 00H
	DB	'RLE', 00H
	ORG $+3
	DD	0aH
	DD	00H
	DD	01H
	DD	04H
	DD	02H
	DB	'WD20_AHD', 00H
	DB	'PSD', 00H
	DB	'RLE', 00H
	ORG $+3
	DD	0aH
	DD	00H
	DD	01H
	DD	04H
	DD	02H
	DB	'WD20_R30', 00H
	DB	'PSD', 00H
	DB	'RLE', 00H
	ORG $+3
	DD	0aH
	DD	00H
	DD	01H
	DD	04H
	DD	02H
	DB	'SPRITES', 00H
	ORG $+1
	DB	'PSD', 00H
	DB	'RGB', 00H
	ORG $+3
	DD	08H
	DD	00H
	DD	01H
	DD	04H
	DD	02H
	DB	'SPRITES', 00H
	ORG $+1
	DB	'PSD', 00H
	DB	'MSK', 00H
	ORG $+3
	DD	04H
	DD	00H
	DD	01H
	DD	04H
	DD	02H
	DB	'WPN_MFD', 00H
	ORG $+1
	DB	'PSD', 00H
	DB	'RGB', 00H
	ORG $+3
	DD	08H
	DD	00H
	DD	01H
	DD	04H
	DD	02H
	DB	'WPN_MFD', 00H
	ORG $+1
	DB	'PSD', 00H
	DB	'MSK', 00H
	ORG $+3
	DD	04H
	DD	00H
	DD	01H
	DD	04H
	DD	03H
	DB	'U40_L90', 00H
	ORG $+1
	DB	'PSD', 00H
	DB	'RLE', 00H
	ORG $+3
	DD	0aH
	DD	00H
	DD	01H
	DD	04H
	DD	03H
	DB	'U40_L60', 00H
	ORG $+1
	DB	'PSD', 00H
	DB	'RLE', 00H
	ORG $+3
	DD	0aH
	DD	00H
	DD	01H
	DD	04H
	DD	03H
	DB	'U40_L30', 00H
	ORG $+1
	DB	'PSD', 00H
	DB	'RLE', 00H
	ORG $+3
	DD	0aH
	DD	00H
	DD	01H
	DD	04H
	DD	03H
	DB	'U40_AHD', 00H
	ORG $+1
	DB	'PSD', 00H
	DB	'RLE', 00H
	ORG $+3
	DD	0aH
	DD	00H
	DD	01H
	DD	04H
	DD	03H
	DB	'U40_R30', 00H
	ORG $+1
	DB	'PSD', 00H
	DB	'RLE', 00H
	ORG $+3
	DD	0aH
	DD	00H
	DD	01H
	DD	04H
	DD	03H
	DB	'U40_R60', 00H
	ORG $+1
	DB	'PSD', 00H
	DB	'RLE', 00H
	ORG $+3
	DD	0aH
	DD	00H
	DD	01H
	DD	04H
	DD	03H
	DB	'U40_R90', 00H
	ORG $+1
	DB	'PSD', 00H
	DB	'RLE', 00H
	ORG $+3
	DD	0aH
	DD	00H
	DD	01H
	DD	04H
	DD	03H
	DB	'U20_L90', 00H
	ORG $+1
	DB	'PSD', 00H
	DB	'RLE', 00H
	ORG $+3
	DD	0aH
	DD	00H
	DD	01H
	DD	04H
	DD	03H
	DB	'U20_L60', 00H
	ORG $+1
	DB	'PSD', 00H
	DB	'RLE', 00H
	ORG $+3
	DD	0aH
	DD	00H
	DD	01H
	DD	04H
	DD	03H
	DB	'U20_L30', 00H
	ORG $+1
	DB	'PSD', 00H
	DB	'RLE', 00H
	ORG $+3
	DD	0aH
	DD	00H
	DD	01H
	DD	04H
	DD	03H
	DB	'U20_AHD', 00H
	ORG $+1
	DB	'PSD', 00H
	DB	'RLE', 00H
	ORG $+3
	DD	0aH
	DD	00H
	DD	01H
	DD	04H
	DD	03H
	DB	'U20_R30', 00H
	ORG $+1
	DB	'PSD', 00H
	DB	'RLE', 00H
	ORG $+3
	DD	0aH
	DD	00H
	DD	01H
	DD	04H
	DD	03H
	DB	'U20_R60', 00H
	ORG $+1
	DB	'PSD', 00H
	DB	'RLE', 00H
	ORG $+3
	DD	0aH
	DD	00H
	DD	01H
	DD	04H
	DD	03H
	DB	'U20_R90', 00H
	ORG $+1
	DB	'PSD', 00H
	DB	'RLE', 00H
	ORG $+3
	DD	0aH
	DD	00H
	DD	01H
	DD	04H
	DD	03H
	DB	'LVL_L90', 00H
	ORG $+1
	DB	'PSD', 00H
	DB	'RLE', 00H
	ORG $+3
	DD	0aH
	DD	00H
	DD	01H
	DD	04H
	DD	03H
	DB	'LVL_L60', 00H
	ORG $+1
	DB	'PSD', 00H
	DB	'RLE', 00H
	ORG $+3
	DD	0aH
	DD	00H
	DD	01H
	DD	04H
	DD	03H
	DB	'LVL_L30', 00H
	ORG $+1
	DB	'PSD', 00H
	DB	'RLE', 00H
	ORG $+3
	DD	0aH
	DD	00H
	DD	01H
	DD	04H
	DD	03H
	DB	'LVL_AHD', 00H
	ORG $+1
	DB	'PSD', 00H
	DB	'RLE', 00H
	ORG $+3
	DD	0aH
	DD	00H
	DD	01H
	DD	04H
	DD	03H
	DB	'LVL_R30', 00H
	ORG $+1
	DB	'PSD', 00H
	DB	'RLE', 00H
	ORG $+3
	DD	0aH
	DD	00H
	DD	01H
	DD	04H
	DD	03H
	DB	'LVL_R60', 00H
	ORG $+1
	DB	'PSD', 00H
	DB	'RLE', 00H
	ORG $+3
	DD	0aH
	DD	00H
	DD	01H
	DD	04H
	DD	03H
	DB	'LVL_R90', 00H
	ORG $+1
	DB	'PSD', 00H
	DB	'RLE', 00H
	ORG $+3
	DD	0aH
	DD	00H
	DD	01H
	DD	04H
	DD	03H
	DB	'D20_L90', 00H
	ORG $+1
	DB	'PSD', 00H
	DB	'RLE', 00H
	ORG $+3
	DD	0aH
	DD	00H
	DD	01H
	DD	04H
	DD	03H
	DB	'D20_L60', 00H
	ORG $+1
	DB	'PSD', 00H
	DB	'RLE', 00H
	ORG $+3
	DD	0aH
	DD	00H
	DD	01H
	DD	04H
	DD	03H
	DB	'D20_L30', 00H
	ORG $+1
	DB	'PSD', 00H
	DB	'RLE', 00H
	ORG $+3
	DD	0aH
	DD	00H
	DD	01H
	DD	04H
	DD	03H
	DB	'D20_AHD', 00H
	ORG $+1
	DB	'PSD', 00H
	DB	'RLE', 00H
	ORG $+3
	DD	0aH
	DD	00H
	DD	01H
	DD	04H
	DD	03H
	DB	'D20_R30', 00H
	ORG $+1
	DB	'PSD', 00H
	DB	'RLE', 00H
	ORG $+3
	DD	0aH
	DD	00H
	DD	01H
	DD	04H
	DD	03H
	DB	'D20_R60', 00H
	ORG $+1
	DB	'PSD', 00H
	DB	'RLE', 00H
	ORG $+3
	DD	0aH
	DD	00H
	DD	01H
	DD	04H
	DD	03H
	DB	'D20_R90', 00H
	ORG $+1
	DB	'PSD', 00H
	DB	'RLE', 00H
	ORG $+3
	DD	0aH
	DD	00H
	DD	01H
	DD	04H
	DD	03H
	DB	'LHS_MFD', 00H
	ORG $+1
	DB	'PSD', 00H
	DB	'RGB', 00H
	ORG $+3
	DD	08H
	DD	00H
	DD	01H
	DD	04H
	DD	03H
	DB	'RHS_MFD', 00H
	ORG $+1
	DB	'PSD', 00H
	DB	'RLE', 00H
	ORG $+3
	DD	0aH
	DD	00H
	DD	01H
	DD	04H
	DD	03H
	DB	'MD20_L30', 00H
	DB	'PSD', 00H
	DB	'RLE', 00H
	ORG $+3
	DD	0aH
	DD	00H
	DD	01H
	DD	04H
	DD	03H
	DB	'MD20_AHD', 00H
	DB	'PSD', 00H
	DB	'RLE', 00H
	ORG $+3
	DD	0aH
	DD	00H
	DD	01H
	DD	04H
	DD	03H
	DB	'MD20_R30', 00H
	DB	'PSD', 00H
	DB	'RLE', 00H
	ORG $+3
	DD	0aH
	DD	00H
	DD	01H
	DD	04H
	DD	03H
	DB	'MLHS_MFD', 00H
	DB	'PSD', 00H
	DB	'RLE', 00H
	ORG $+3
	DD	0aH
	DD	00H
	DD	01H
	DD	04H
	DD	03H
	DB	'MRHS_MFD', 00H
	DB	'PSD', 00H
	DB	'RLE', 00H
	ORG $+3
	DD	0aH
	DD	00H
	DD	01H
	DD	04H
	DD	03H
	DB	'WU20_L30', 00H
	DB	'PSD', 00H
	DB	'RLE', 00H
	ORG $+3
	DD	0aH
	DD	00H
	DD	01H
	DD	04H
	DD	03H
	DB	'WU20_AHD', 00H
	DB	'PSD', 00H
	DB	'RLE', 00H
	ORG $+3
	DD	0aH
	DD	00H
	DD	01H
	DD	04H
	DD	03H
	DB	'WLVL_L30', 00H
	DB	'PSD', 00H
	DB	'RLE', 00H
	ORG $+3
	DD	0aH
	DD	00H
	DD	01H
	DD	04H
	DD	03H
	DB	'WLVL_AHD', 00H
	DB	'PSD', 00H
	DB	'RLE', 00H
	ORG $+3
	DD	0aH
	DD	00H
	DD	01H
	DD	04H
	DD	03H
	DB	'WLVL_R30', 00H
	DB	'PSD', 00H
	DB	'RLE', 00H
	ORG $+3
	DD	0aH
	DD	00H
	DD	01H
	DD	04H
	DD	03H
	DB	'WD20_L30', 00H
	DB	'PSD', 00H
	DB	'RLE', 00H
	ORG $+3
	DD	0aH
	DD	00H
	DD	01H
	DD	04H
	DD	03H
	DB	'WD20_AHD', 00H
	DB	'PSD', 00H
	DB	'RLE', 00H
	ORG $+3
	DD	0aH
	DD	00H
	DD	01H
	DD	04H
	DD	03H
	DB	'WD20_R30', 00H
	DB	'PSD', 00H
	DB	'RLE', 00H
	ORG $+3
	DD	0aH
	DD	00H
	DD	01H
	DD	04H
	DD	03H
	DB	'SPRITES', 00H
	ORG $+1
	DB	'PSD', 00H
	DB	'RGB', 00H
	ORG $+3
	DD	08H
	DD	00H
	DD	01H
	DD	04H
	DD	03H
	DB	'SPRITES', 00H
	ORG $+1
	DB	'PSD', 00H
	DB	'MSK', 00H
	ORG $+3
	DD	04H
	DD	00H
	DD	01H
	DD	04H
	DD	03H
	DB	'WPN_MFD', 00H
	ORG $+1
	DB	'PSD', 00H
	DB	'RGB', 00H
	ORG $+3
	DD	08H
	DD	00H
	DD	01H
	DD	04H
	DD	03H
	DB	'WPN_MFD', 00H
	ORG $+1
	DB	'PSD', 00H
	DB	'MSK', 00H
	ORG $+3
	DD	04H
	DD	00H
	DD	01H
	DD	04H
	DD	04H
	DB	'U40_L90', 00H
	ORG $+1
	DB	'PSD', 00H
	DB	'RLE', 00H
	ORG $+3
	DD	0aH
	DD	00H
	DD	01H
	DD	05H
	DD	04H
	DB	'U40_L60', 00H
	ORG $+1
	DB	'PSD', 00H
	DB	'RLE', 00H
	ORG $+3
	DD	0aH
	DD	00H
	DD	01H
	DD	05H
	DD	04H
	DB	'U40_L30', 00H
	ORG $+1
	DB	'PSD', 00H
	DB	'RLE', 00H
	ORG $+3
	DD	0aH
	DD	00H
	DD	01H
	DD	05H
	DD	04H
	DB	'U40_AHD', 00H
	ORG $+1
	DB	'PSD', 00H
	DB	'RLE', 00H
	ORG $+3
	DD	0aH
	DD	00H
	DD	01H
	DD	05H
	DD	04H
	DB	'U40_R30', 00H
	ORG $+1
	DB	'PSD', 00H
	DB	'RLE', 00H
	ORG $+3
	DD	0aH
	DD	00H
	DD	01H
	DD	05H
	DD	04H
	DB	'U40_R60', 00H
	ORG $+1
	DB	'PSD', 00H
	DB	'RLE', 00H
	ORG $+3
	DD	0aH
	DD	00H
	DD	01H
	DD	05H
	DD	04H
	DB	'U40_R90', 00H
	ORG $+1
	DB	'PSD', 00H
	DB	'RLE', 00H
	ORG $+3
	DD	0aH
	DD	00H
	DD	01H
	DD	05H
	DD	04H
	DB	'U20_L90', 00H
	ORG $+1
	DB	'PSD', 00H
	DB	'RLE', 00H
	ORG $+3
	DD	0aH
	DD	00H
	DD	01H
	DD	05H
	DD	04H
	DB	'U20_L60', 00H
	ORG $+1
	DB	'PSD', 00H
	DB	'RLE', 00H
	ORG $+3
	DD	0aH
	DD	00H
	DD	01H
	DD	05H
	DD	04H
	DB	'U20_L30', 00H
	ORG $+1
	DB	'PSD', 00H
	DB	'RLE', 00H
	ORG $+3
	DD	0aH
	DD	00H
	DD	01H
	DD	05H
	DD	04H
	DB	'U20_AHD', 00H
	ORG $+1
	DB	'PSD', 00H
	DB	'RLE', 00H
	ORG $+3
	DD	0aH
	DD	00H
	DD	01H
	DD	05H
	DD	04H
	DB	'U20_R30', 00H
	ORG $+1
	DB	'PSD', 00H
	DB	'RLE', 00H
	ORG $+3
	DD	0aH
	DD	00H
	DD	01H
	DD	05H
	DD	04H
	DB	'U20_R60', 00H
	ORG $+1
	DB	'PSD', 00H
	DB	'RLE', 00H
	ORG $+3
	DD	0aH
	DD	00H
	DD	01H
	DD	05H
	DD	04H
	DB	'U20_R90', 00H
	ORG $+1
	DB	'PSD', 00H
	DB	'RLE', 00H
	ORG $+3
	DD	0aH
	DD	00H
	DD	01H
	DD	05H
	DD	04H
	DB	'LVL_L90', 00H
	ORG $+1
	DB	'PSD', 00H
	DB	'RLE', 00H
	ORG $+3
	DD	0aH
	DD	00H
	DD	01H
	DD	05H
	DD	04H
	DB	'LVL_L60', 00H
	ORG $+1
	DB	'PSD', 00H
	DB	'RLE', 00H
	ORG $+3
	DD	0aH
	DD	00H
	DD	01H
	DD	05H
	DD	04H
	DB	'LVL_L30', 00H
	ORG $+1
	DB	'PSD', 00H
	DB	'RLE', 00H
	ORG $+3
	DD	0aH
	DD	00H
	DD	01H
	DD	05H
	DD	04H
	DB	'LVL_AHD', 00H
	ORG $+1
	DB	'PSD', 00H
	DB	'RLE', 00H
	ORG $+3
	DD	0aH
	DD	00H
	DD	01H
	DD	05H
	DD	04H
	DB	'LVL_R30', 00H
	ORG $+1
	DB	'PSD', 00H
	DB	'RLE', 00H
	ORG $+3
	DD	0aH
	DD	00H
	DD	01H
	DD	05H
	DD	04H
	DB	'LVL_R60', 00H
	ORG $+1
	DB	'PSD', 00H
	DB	'RLE', 00H
	ORG $+3
	DD	0aH
	DD	00H
	DD	01H
	DD	05H
	DD	04H
	DB	'LVL_R90', 00H
	ORG $+1
	DB	'PSD', 00H
	DB	'RLE', 00H
	ORG $+3
	DD	0aH
	DD	00H
	DD	01H
	DD	05H
	DD	04H
	DB	'D20_L90', 00H
	ORG $+1
	DB	'PSD', 00H
	DB	'RLE', 00H
	ORG $+3
	DD	0aH
	DD	00H
	DD	01H
	DD	05H
	DD	04H
	DB	'D20_L60', 00H
	ORG $+1
	DB	'PSD', 00H
	DB	'RLE', 00H
	ORG $+3
	DD	0aH
	DD	00H
	DD	01H
	DD	05H
	DD	04H
	DB	'D20_L30', 00H
	ORG $+1
	DB	'PSD', 00H
	DB	'RLE', 00H
	ORG $+3
	DD	0aH
	DD	00H
	DD	01H
	DD	05H
	DD	04H
	DB	'D20_AHD', 00H
	ORG $+1
	DB	'PSD', 00H
	DB	'RLE', 00H
	ORG $+3
	DD	0aH
	DD	00H
	DD	01H
	DD	05H
	DD	04H
	DB	'D20_R30', 00H
	ORG $+1
	DB	'PSD', 00H
	DB	'RLE', 00H
	ORG $+3
	DD	0aH
	DD	00H
	DD	01H
	DD	05H
	DD	04H
	DB	'D20_R60', 00H
	ORG $+1
	DB	'PSD', 00H
	DB	'RLE', 00H
	ORG $+3
	DD	0aH
	DD	00H
	DD	01H
	DD	05H
	DD	04H
	DB	'D20_R90', 00H
	ORG $+1
	DB	'PSD', 00H
	DB	'RLE', 00H
	ORG $+3
	DD	0aH
	DD	00H
	DD	01H
	DD	05H
	DD	04H
	DB	'CRT', 00H
	ORG $+5
	DB	'PSD', 00H
	DB	'RGB', 00H
	ORG $+3
	DD	08H
	DD	00H
	DD	01H
	DD	05H
	DD	04H
	DB	'HUD', 00H
	ORG $+5
	DB	'PSD', 00H
	DB	'RLE', 00H
	ORG $+3
	DD	0aH
	DD	00H
	DD	01H
	DD	05H
	DD	04H
	DB	'MD20_AHD', 00H
	DB	'PSD', 00H
	DB	'RLE', 00H
	ORG $+3
	DD	0aH
	DD	00H
	DD	01H
	DD	05H
	DD	04H
	DB	'MCRT', 00H
	ORG $+4
	DB	'PSD', 00H
	DB	'RLE', 00H
	ORG $+3
	DD	0aH
	DD	00H
	DD	01H
	DD	05H
	DD	04H
	DB	'WU40_AHD', 00H
	DB	'PSD', 00H
	DB	'RLE', 00H
	ORG $+3
	DD	0aH
	DD	00H
	DD	01H
	DD	05H
	DD	04H
	DB	'WU40_R30', 00H
	DB	'PSD', 00H
	DB	'RLE', 00H
	ORG $+3
	DD	0aH
	DD	00H
	DD	01H
	DD	05H
	DD	04H
	DB	'WU20_AHD', 00H
	DB	'PSD', 00H
	DB	'RLE', 00H
	ORG $+3
	DD	0aH
	DD	00H
	DD	01H
	DD	05H
	DD	04H
	DB	'WU20_R30', 00H
	DB	'PSD', 00H
	DB	'RLE', 00H
	ORG $+3
	DD	0aH
	DD	00H
	DD	01H
	DD	05H
	DD	04H
	DB	'WLVL_L30', 00H
	DB	'PSD', 00H
	DB	'RLE', 00H
	ORG $+3
	DD	0aH
	DD	00H
	DD	01H
	DD	05H
	DD	04H
	DB	'WLVL_AHD', 00H
	DB	'PSD', 00H
	DB	'RLE', 00H
	ORG $+3
	DD	0aH
	DD	00H
	DD	01H
	DD	05H
	DD	04H
	DB	'WLVL_R30', 00H
	DB	'PSD', 00H
	DB	'RLE', 00H
	ORG $+3
	DD	0aH
	DD	00H
	DD	01H
	DD	05H
	DD	04H
	DB	'WD20_L30', 00H
	DB	'PSD', 00H
	DB	'RLE', 00H
	ORG $+3
	DD	0aH
	DD	00H
	DD	01H
	DD	05H
	DD	04H
	DB	'WD20_AHD', 00H
	DB	'PSD', 00H
	DB	'RLE', 00H
	ORG $+3
	DD	0aH
	DD	00H
	DD	01H
	DD	05H
	DD	04H
	DB	'WD20_R30', 00H
	DB	'PSD', 00H
	DB	'RLE', 00H
	ORG $+3
	DD	0aH
	DD	00H
	DD	01H
	DD	05H
	DD	04H
	DB	'WHUD', 00H
	ORG $+4
	DB	'PSD', 00H
	DB	'RLE', 00H
	ORG $+3
	DD	0aH
	DD	00H
	DD	01H
	DD	05H
	DD	04H
	DB	'SPRITES', 00H
	ORG $+1
	DB	'PSD', 00H
	DB	'RGB', 00H
	ORG $+3
	DD	08H
	DD	00H
	DD	01H
	DD	05H
	DD	04H
	DB	'SPRITES', 00H
	ORG $+1
	DB	'PSD', 00H
	DB	'MSK', 00H
	ORG $+3
	DD	04H
	DD	00H
	DD	01H
	DD	05H
	DD	04H
	DB	'TWD', 00H
	ORG $+5
	DB	'PSD', 00H
	DB	'RGB', 00H
	ORG $+3
	DD	08H
	DD	00H
	DD	01H
	DD	0dH
	DD	05H
	DB	'U40_L90', 00H
	ORG $+1
	DB	'PSD', 00H
	DB	'RLE', 00H
	ORG $+3
	DD	0aH
	DD	00H
	DD	01H
	DD	04H
	DD	05H
	DB	'U40_L60', 00H
	ORG $+1
	DB	'PSD', 00H
	DB	'RLE', 00H
	ORG $+3
	DD	0aH
	DD	00H
	DD	01H
	DD	04H
	DD	05H
	DB	'U40_L30', 00H
	ORG $+1
	DB	'PSD', 00H
	DB	'RLE', 00H
	ORG $+3
	DD	0aH
	DD	00H
	DD	01H
	DD	04H
	DD	05H
	DB	'U40_AHD', 00H
	ORG $+1
	DB	'PSD', 00H
	DB	'RLE', 00H
	ORG $+3
	DD	0aH
	DD	00H
	DD	01H
	DD	04H
	DD	05H
	DB	'U40_R30', 00H
	ORG $+1
	DB	'PSD', 00H
	DB	'RLE', 00H
	ORG $+3
	DD	0aH
	DD	00H
	DD	01H
	DD	04H
	DD	05H
	DB	'U40_R60', 00H
	ORG $+1
	DB	'PSD', 00H
	DB	'RLE', 00H
	ORG $+3
	DD	0aH
	DD	00H
	DD	01H
	DD	04H
	DD	05H
	DB	'U40_R90', 00H
	ORG $+1
	DB	'PSD', 00H
	DB	'RLE', 00H
	ORG $+3
	DD	0aH
	DD	00H
	DD	01H
	DD	04H
	DD	05H
	DB	'U20_L90', 00H
	ORG $+1
	DB	'PSD', 00H
	DB	'RLE', 00H
	ORG $+3
	DD	0aH
	DD	00H
	DD	01H
	DD	04H
	DD	05H
	DB	'U20_L60', 00H
	ORG $+1
	DB	'PSD', 00H
	DB	'RLE', 00H
	ORG $+3
	DD	0aH
	DD	00H
	DD	01H
	DD	04H
	DD	05H
	DB	'U20_L30', 00H
	ORG $+1
	DB	'PSD', 00H
	DB	'RLE', 00H
	ORG $+3
	DD	0aH
	DD	00H
	DD	01H
	DD	04H
	DD	05H
	DB	'U20_AHD', 00H
	ORG $+1
	DB	'PSD', 00H
	DB	'RLE', 00H
	ORG $+3
	DD	0aH
	DD	00H
	DD	01H
	DD	04H
	DD	05H
	DB	'U20_R30', 00H
	ORG $+1
	DB	'PSD', 00H
	DB	'RLE', 00H
	ORG $+3
	DD	0aH
	DD	00H
	DD	01H
	DD	04H
	DD	05H
	DB	'U20_R60', 00H
	ORG $+1
	DB	'PSD', 00H
	DB	'RLE', 00H
	ORG $+3
	DD	0aH
	DD	00H
	DD	01H
	DD	04H
	DD	05H
	DB	'U20_R90', 00H
	ORG $+1
	DB	'PSD', 00H
	DB	'RLE', 00H
	ORG $+3
	DD	0aH
	DD	00H
	DD	01H
	DD	04H
	DD	05H
	DB	'LVL_L90', 00H
	ORG $+1
	DB	'PSD', 00H
	DB	'RLE', 00H
	ORG $+3
	DD	0aH
	DD	00H
	DD	01H
	DD	04H
	DD	05H
	DB	'LVL_L60', 00H
	ORG $+1
	DB	'PSD', 00H
	DB	'RLE', 00H
	ORG $+3
	DD	0aH
	DD	00H
	DD	01H
	DD	04H
	DD	05H
	DB	'LVL_L30', 00H
	ORG $+1
	DB	'PSD', 00H
	DB	'RLE', 00H
	ORG $+3
	DD	0aH
	DD	00H
	DD	01H
	DD	04H
	DD	05H
	DB	'LVL_AHD', 00H
	ORG $+1
	DB	'PSD', 00H
	DB	'RLE', 00H
	ORG $+3
	DD	0aH
	DD	00H
	DD	01H
	DD	04H
	DD	05H
	DB	'LVL_R30', 00H
	ORG $+1
	DB	'PSD', 00H
	DB	'RLE', 00H
	ORG $+3
	DD	0aH
	DD	00H
	DD	01H
	DD	04H
	DD	05H
	DB	'LVL_R60', 00H
	ORG $+1
	DB	'PSD', 00H
	DB	'RLE', 00H
	ORG $+3
	DD	0aH
	DD	00H
	DD	01H
	DD	04H
	DD	05H
	DB	'LVL_R90', 00H
	ORG $+1
	DB	'PSD', 00H
	DB	'RLE', 00H
	ORG $+3
	DD	0aH
	DD	00H
	DD	01H
	DD	04H
	DD	05H
	DB	'D20_L90', 00H
	ORG $+1
	DB	'PSD', 00H
	DB	'RLE', 00H
	ORG $+3
	DD	0aH
	DD	00H
	DD	01H
	DD	04H
	DD	05H
	DB	'D20_L60', 00H
	ORG $+1
	DB	'PSD', 00H
	DB	'RLE', 00H
	ORG $+3
	DD	0aH
	DD	00H
	DD	01H
	DD	04H
	DD	05H
	DB	'D20_L30', 00H
	ORG $+1
	DB	'PSD', 00H
	DB	'RLE', 00H
	ORG $+3
	DD	0aH
	DD	00H
	DD	01H
	DD	04H
	DD	05H
	DB	'D20_AHD', 00H
	ORG $+1
	DB	'PSD', 00H
	DB	'RLE', 00H
	ORG $+3
	DD	0aH
	DD	00H
	DD	01H
	DD	04H
	DD	05H
	DB	'D20_R30', 00H
	ORG $+1
	DB	'PSD', 00H
	DB	'RLE', 00H
	ORG $+3
	DD	0aH
	DD	00H
	DD	01H
	DD	04H
	DD	05H
	DB	'D20_R60', 00H
	ORG $+1
	DB	'PSD', 00H
	DB	'RLE', 00H
	ORG $+3
	DD	0aH
	DD	00H
	DD	01H
	DD	04H
	DD	05H
	DB	'D20_R90', 00H
	ORG $+1
	DB	'PSD', 00H
	DB	'RLE', 00H
	ORG $+3
	DD	0aH
	DD	00H
	DD	01H
	DD	04H
	DD	05H
	DB	'CRT', 00H
	ORG $+5
	DB	'PSD', 00H
	DB	'RGB', 00H
	ORG $+3
	DD	08H
	DD	00H
	DD	01H
	DD	04H
	DD	05H
	DB	'HUD', 00H
	ORG $+5
	DB	'PSD', 00H
	DB	'RLE', 00H
	ORG $+3
	DD	0aH
	DD	00H
	DD	01H
	DD	04H
	DD	05H
	DB	'MD20_AHD', 00H
	DB	'PSD', 00H
	DB	'RLE', 00H
	ORG $+3
	DD	0aH
	DD	00H
	DD	01H
	DD	04H
	DD	05H
	DB	'MCRT', 00H
	ORG $+4
	DB	'PSD', 00H
	DB	'RLE', 00H
	ORG $+3
	DD	0aH
	DD	00H
	DD	01H
	DD	04H
	DD	05H
	DB	'WU40_AHD', 00H
	DB	'PSD', 00H
	DB	'RLE', 00H
	ORG $+3
	DD	0aH
	DD	00H
	DD	01H
	DD	04H
	DD	05H
	DB	'WU40_R30', 00H
	DB	'PSD', 00H
	DB	'RLE', 00H
	ORG $+3
	DD	0aH
	DD	00H
	DD	01H
	DD	04H
	DD	05H
	DB	'WU20_AHD', 00H
	DB	'PSD', 00H
	DB	'RLE', 00H
	ORG $+3
	DD	0aH
	DD	00H
	DD	01H
	DD	04H
	DD	05H
	DB	'WU20_R30', 00H
	DB	'PSD', 00H
	DB	'RLE', 00H
	ORG $+3
	DD	0aH
	DD	00H
	DD	01H
	DD	04H
	DD	05H
	DB	'WLVL_L30', 00H
	DB	'PSD', 00H
	DB	'RLE', 00H
	ORG $+3
	DD	0aH
	DD	00H
	DD	01H
	DD	04H
	DD	05H
	DB	'WLVL_AHD', 00H
	DB	'PSD', 00H
	DB	'RLE', 00H
	ORG $+3
	DD	0aH
	DD	00H
	DD	01H
	DD	04H
	DD	05H
	DB	'WLVL_R30', 00H
	DB	'PSD', 00H
	DB	'RLE', 00H
	ORG $+3
	DD	0aH
	DD	00H
	DD	01H
	DD	04H
	DD	05H
	DB	'WD20_L30', 00H
	DB	'PSD', 00H
	DB	'RLE', 00H
	ORG $+3
	DD	0aH
	DD	00H
	DD	01H
	DD	04H
	DD	05H
	DB	'WD20_AHD', 00H
	DB	'PSD', 00H
	DB	'RLE', 00H
	ORG $+3
	DD	0aH
	DD	00H
	DD	01H
	DD	04H
	DD	05H
	DB	'WD20_R30', 00H
	DB	'PSD', 00H
	DB	'RLE', 00H
	ORG $+3
	DD	0aH
	DD	00H
	DD	01H
	DD	04H
	DD	05H
	DB	'WHUD', 00H
	ORG $+4
	DB	'PSD', 00H
	DB	'RLE', 00H
	ORG $+3
	DD	0aH
	DD	00H
	DD	01H
	DD	04H
	DD	05H
	DB	'SPRITES', 00H
	ORG $+1
	DB	'PSD', 00H
	DB	'RGB', 00H
	ORG $+3
	DD	08H
	DD	00H
	DD	01H
	DD	04H
	DD	05H
	DB	'SPRITES', 00H
	ORG $+1
	DB	'PSD', 00H
	DB	'MSK', 00H
	ORG $+3
	DD	04H
	DD	00H
	DD	01H
	DD	04H
	DD	05H
	DB	'TWD', 00H
	ORG $+5
	DB	'PSD', 00H
	DB	'RGB', 00H
	ORG $+3
	DD	08H
	DD	00H
	DD	01H
	DD	0cH
	DD	06H
	DB	'U40_L90', 00H
	ORG $+1
	DB	'PSD', 00H
	DB	'RLE', 00H
	ORG $+3
	DD	0aH
	DD	00H
	DD	01H
	DD	04H
	DD	06H
	DB	'U40_L60', 00H
	ORG $+1
	DB	'PSD', 00H
	DB	'RLE', 00H
	ORG $+3
	DD	0aH
	DD	00H
	DD	01H
	DD	04H
	DD	06H
	DB	'U40_L30', 00H
	ORG $+1
	DB	'PSD', 00H
	DB	'RLE', 00H
	ORG $+3
	DD	0aH
	DD	00H
	DD	01H
	DD	04H
	DD	06H
	DB	'U40_AHD', 00H
	ORG $+1
	DB	'PSD', 00H
	DB	'RLE', 00H
	ORG $+3
	DD	0aH
	DD	00H
	DD	01H
	DD	04H
	DD	06H
	DB	'U40_R30', 00H
	ORG $+1
	DB	'PSD', 00H
	DB	'RLE', 00H
	ORG $+3
	DD	0aH
	DD	00H
	DD	01H
	DD	04H
	DD	06H
	DB	'U40_R60', 00H
	ORG $+1
	DB	'PSD', 00H
	DB	'RLE', 00H
	ORG $+3
	DD	0aH
	DD	00H
	DD	01H
	DD	04H
	DD	06H
	DB	'U40_R90', 00H
	ORG $+1
	DB	'PSD', 00H
	DB	'RLE', 00H
	ORG $+3
	DD	0aH
	DD	00H
	DD	01H
	DD	04H
	DD	06H
	DB	'U20_L90', 00H
	ORG $+1
	DB	'PSD', 00H
	DB	'RLE', 00H
	ORG $+3
	DD	0aH
	DD	00H
	DD	01H
	DD	04H
	DD	06H
	DB	'U20_L60', 00H
	ORG $+1
	DB	'PSD', 00H
	DB	'RLE', 00H
	ORG $+3
	DD	0aH
	DD	00H
	DD	01H
	DD	04H
	DD	06H
	DB	'U20_L30', 00H
	ORG $+1
	DB	'PSD', 00H
	DB	'RLE', 00H
	ORG $+3
	DD	0aH
	DD	00H
	DD	01H
	DD	04H
	DD	06H
	DB	'U20_AHD', 00H
	ORG $+1
	DB	'PSD', 00H
	DB	'RLE', 00H
	ORG $+3
	DD	0aH
	DD	00H
	DD	01H
	DD	04H
	DD	06H
	DB	'U20_R30', 00H
	ORG $+1
	DB	'PSD', 00H
	DB	'RLE', 00H
	ORG $+3
	DD	0aH
	DD	00H
	DD	01H
	DD	04H
	DD	06H
	DB	'U20_R60', 00H
	ORG $+1
	DB	'PSD', 00H
	DB	'RLE', 00H
	ORG $+3
	DD	0aH
	DD	00H
	DD	01H
	DD	04H
	DD	06H
	DB	'U20_R90', 00H
	ORG $+1
	DB	'PSD', 00H
	DB	'RLE', 00H
	ORG $+3
	DD	0aH
	DD	00H
	DD	01H
	DD	04H
	DD	06H
	DB	'LVL_L90', 00H
	ORG $+1
	DB	'PSD', 00H
	DB	'RLE', 00H
	ORG $+3
	DD	0aH
	DD	00H
	DD	01H
	DD	04H
	DD	06H
	DB	'LVL_L60', 00H
	ORG $+1
	DB	'PSD', 00H
	DB	'RLE', 00H
	ORG $+3
	DD	0aH
	DD	00H
	DD	01H
	DD	04H
	DD	06H
	DB	'LVL_L30', 00H
	ORG $+1
	DB	'PSD', 00H
	DB	'RLE', 00H
	ORG $+3
	DD	0aH
	DD	00H
	DD	01H
	DD	04H
	DD	06H
	DB	'LVL_AHD', 00H
	ORG $+1
	DB	'PSD', 00H
	DB	'RLE', 00H
	ORG $+3
	DD	0aH
	DD	00H
	DD	01H
	DD	04H
	DD	06H
	DB	'LVL_R30', 00H
	ORG $+1
	DB	'PSD', 00H
	DB	'RLE', 00H
	ORG $+3
	DD	0aH
	DD	00H
	DD	01H
	DD	04H
	DD	06H
	DB	'LVL_R60', 00H
	ORG $+1
	DB	'PSD', 00H
	DB	'RLE', 00H
	ORG $+3
	DD	0aH
	DD	00H
	DD	01H
	DD	04H
	DD	06H
	DB	'LVL_R90', 00H
	ORG $+1
	DB	'PSD', 00H
	DB	'RLE', 00H
	ORG $+3
	DD	0aH
	DD	00H
	DD	01H
	DD	04H
	DD	06H
	DB	'D20_L90', 00H
	ORG $+1
	DB	'PSD', 00H
	DB	'RLE', 00H
	ORG $+3
	DD	0aH
	DD	00H
	DD	01H
	DD	04H
	DD	06H
	DB	'D20_L60', 00H
	ORG $+1
	DB	'PSD', 00H
	DB	'RLE', 00H
	ORG $+3
	DD	0aH
	DD	00H
	DD	01H
	DD	04H
	DD	06H
	DB	'D20_L30', 00H
	ORG $+1
	DB	'PSD', 00H
	DB	'RLE', 00H
	ORG $+3
	DD	0aH
	DD	00H
	DD	01H
	DD	04H
	DD	06H
	DB	'D20_AHD', 00H
	ORG $+1
	DB	'PSD', 00H
	DB	'RLE', 00H
	ORG $+3
	DD	0aH
	DD	00H
	DD	01H
	DD	04H
	DD	06H
	DB	'D20_R30', 00H
	ORG $+1
	DB	'PSD', 00H
	DB	'RLE', 00H
	ORG $+3
	DD	0aH
	DD	00H
	DD	01H
	DD	04H
	DD	06H
	DB	'D20_R60', 00H
	ORG $+1
	DB	'PSD', 00H
	DB	'RLE', 00H
	ORG $+3
	DD	0aH
	DD	00H
	DD	01H
	DD	04H
	DD	06H
	DB	'D20_R90', 00H
	ORG $+1
	DB	'PSD', 00H
	DB	'RLE', 00H
	ORG $+3
	DD	0aH
	DD	00H
	DD	01H
	DD	04H
	DD	06H
	DB	'CRT', 00H
	ORG $+5
	DB	'PSD', 00H
	DB	'RGB', 00H
	ORG $+3
	DD	08H
	DD	00H
	DD	01H
	DD	04H
	DD	06H
	DB	'HUD', 00H
	ORG $+5
	DB	'PSD', 00H
	DB	'RLE', 00H
	ORG $+3
	DD	0aH
	DD	00H
	DD	01H
	DD	04H
	DD	06H
	DB	'MD20_AHD', 00H
	DB	'PSD', 00H
	DB	'RLE', 00H
	ORG $+3
	DD	0aH
	DD	00H
	DD	01H
	DD	04H
	DD	06H
	DB	'MCRT', 00H
	ORG $+4
	DB	'PSD', 00H
	DB	'RLE', 00H
	ORG $+3
	DD	0aH
	DD	00H
	DD	01H
	DD	04H
	DD	06H
	DB	'WU40_AHD', 00H
	DB	'PSD', 00H
	DB	'RLE', 00H
	ORG $+3
	DD	0aH
	DD	00H
	DD	01H
	DD	04H
	DD	06H
	DB	'WU40_R30', 00H
	DB	'PSD', 00H
	DB	'RLE', 00H
	ORG $+3
	DD	0aH
	DD	00H
	DD	01H
	DD	04H
	DD	06H
	DB	'WU20_AHD', 00H
	DB	'PSD', 00H
	DB	'RLE', 00H
	ORG $+3
	DD	0aH
	DD	00H
	DD	01H
	DD	04H
	DD	06H
	DB	'WU20_R30', 00H
	DB	'PSD', 00H
	DB	'RLE', 00H
	ORG $+3
	DD	0aH
	DD	00H
	DD	01H
	DD	04H
	DD	06H
	DB	'WLVL_L30', 00H
	DB	'PSD', 00H
	DB	'RLE', 00H
	ORG $+3
	DD	0aH
	DD	00H
	DD	01H
	DD	04H
	DD	06H
	DB	'WLVL_AHD', 00H
	DB	'PSD', 00H
	DB	'RLE', 00H
	ORG $+3
	DD	0aH
	DD	00H
	DD	01H
	DD	04H
	DD	06H
	DB	'WLVL_R30', 00H
	DB	'PSD', 00H
	DB	'RLE', 00H
	ORG $+3
	DD	0aH
	DD	00H
	DD	01H
	DD	04H
	DD	06H
	DB	'WD20_L30', 00H
	DB	'PSD', 00H
	DB	'RLE', 00H
	ORG $+3
	DD	0aH
	DD	00H
	DD	01H
	DD	04H
	DD	06H
	DB	'WD20_AHD', 00H
	DB	'PSD', 00H
	DB	'RLE', 00H
	ORG $+3
	DD	0aH
	DD	00H
	DD	01H
	DD	04H
	DD	06H
	DB	'WD20_R30', 00H
	DB	'PSD', 00H
	DB	'RLE', 00H
	ORG $+3
	DD	0aH
	DD	00H
	DD	01H
	DD	04H
	DD	06H
	DB	'WHUD', 00H
	ORG $+4
	DB	'PSD', 00H
	DB	'RLE', 00H
	ORG $+3
	DD	0aH
	DD	00H
	DD	01H
	DD	04H
	DD	06H
	DB	'SPRITES', 00H
	ORG $+1
	DB	'PSD', 00H
	DB	'RGB', 00H
	ORG $+3
	DD	08H
	DD	00H
	DD	01H
	DD	04H
	DD	06H
	DB	'SPRITES', 00H
	ORG $+1
	DB	'PSD', 00H
	DB	'MSK', 00H
	ORG $+3
	DD	04H
	DD	00H
	DD	01H
	DD	04H
	DD	06H
	DB	'TWD', 00H
	ORG $+5
	DB	'PSD', 00H
	DB	'RGB', 00H
	ORG $+3
	DD	08H
	DD	00H
	DD	01H
	DD	0cH
	DD	07H
	DB	'CZONE', 00H
	ORG $+3
	DB	'PSD', 00H
	DB	'RGB', 00H
	ORG $+3
	DD	08H
	DD	00H
	DD	01H
	DD	01H
	DD	07H
	DB	'EXIT', 00H
	ORG $+4
	DB	'PSD', 00H
	DB	'RGB', 00H
	ORG $+3
	DD	08H
	DD	00H
	DD	01H
	DD	01H
	DD	07H
	DB	'GAMEOP', 00H
	ORG $+2
	DB	'PSD', 00H
	DB	'RGB', 00H
	ORG $+3
	DD	08H
	DD	00H
	DD	01H
	DD	01H
	DD	07H
	DB	'LOADING', 00H
	ORG $+1
	DB	'PSD', 00H
	DB	'RGB', 00H
	ORG $+3
	DD	08H
	DD	00H
	DD	01H
	DD	01H
	DD	07H
	DB	'MAIN', 00H
	ORG $+4
	DB	'PSD', 00H
	DB	'RGB', 00H
	ORG $+3
	DD	08H
	DD	00H
	DD	01H
	DD	01H
	DD	07H
	DB	'MULTI', 00H
	ORG $+3
	DB	'PSD', 00H
	DB	'RGB', 00H
	ORG $+3
	DD	08H
	DD	00H
	DD	01H
	DD	01H
	DD	07H
	DB	'PLAYER', 00H
	ORG $+2
	DB	'PSD', 00H
	DB	'RGB', 00H
	ORG $+3
	DD	08H
	DD	00H
	DD	01H
	DD	01H
	DD	07H
	DB	'TITLE', 00H
	ORG $+3
	DB	'PSD', 00H
	DB	'RGB', 00H
	ORG $+3
	DD	08H
	DD	00H
	DD	00H
	DD	01H
	DD	07H
	DB	'CAMPOVER', 00H
	DB	'PSD', 00H
	DB	'RGB', 00H
	ORG $+3
	DD	08H
	DD	00H
	DD	01H
	DD	00H
	DD	07H
	DB	'GUNSHIP', 00H
	ORG $+1
	DB	'PSD', 00H
	DB	'RGB', 00H
	ORG $+3
	DD	08H
	DD	00H
	DD	01H
	DD	01H
	DD	07H
	DB	'DEMO', 00H
	ORG $+4
	DB	'PSD', 00H
	DB	'RGB', 00H
	ORG $+3
	DD	08H
	DD	00H
	DD	01H
	DD	01H
	DD	07H
	DB	'MAINPLAY', 00H
	DB	'PSD', 00H
	DB	'RGB', 00H
	ORG $+3
	DD	08H
	DD	00H
	DD	01H
	DD	01H
	DD	07H
	DB	'MAINMULT', 00H
	DB	'PSD', 00H
	DB	'RGB', 00H
	ORG $+3
	DD	08H
	DD	00H
	DD	01H
	DD	01H
	DD	07H
	DB	'MAINOPTI', 00H
	DB	'PSD', 00H
	DB	'RGB', 00H
	ORG $+3
	DD	08H
	DD	00H
	DD	01H
	DD	01H
	DD	07H
	DB	'MAINCOMB', 00H
	DB	'PSD', 00H
	DB	'RGB', 00H
	ORG $+3
	DD	08H
	DD	00H
	DD	01H
	DD	01H
	DD	07H
	DB	'MAINEXIT', 00H
	DB	'PSD', 00H
	DB	'RGB', 00H
	ORG $+3
	DD	08H
	DD	00H
	DD	01H
	DD	01H
	DD	07H
	DB	'MAINDEMO', 00H
	DB	'PSD', 00H
	DB	'RGB', 00H
	ORG $+3
	DD	08H
	DD	00H
	DD	01H
	DD	01H
	DD	07H
	DB	'CZONE_N', 00H
	ORG $+1
	DB	'PSD', 00H
	DB	'RGB', 00H
	ORG $+3
	DD	08H
	DD	00H
	DD	01H
	DD	01H
	DD	07H
	DB	'CZONE_B', 00H
	ORG $+1
	DB	'PSD', 00H
	DB	'RGB', 00H
	ORG $+3
	DD	08H
	DD	00H
	DD	01H
	DD	01H
	DD	07H
	DB	'COMBAT_B', 00H
	DB	'PSD', 00H
	DB	'RGB', 00H
	ORG $+3
	DD	08H
	DD	00H
	DD	01H
	DD	01H
	DD	07H
	DB	'COMBAT_N', 00H
	DB	'PSD', 00H
	DB	'RGB', 00H
	ORG $+3
	DD	08H
	DD	00H
	DD	01H
	DD	01H
	DD	07H
	DB	'COMBAT_M', 00H
	DB	'PSD', 00H
	DB	'RGB', 00H
	ORG $+3
	DD	08H
	DD	00H
	DD	01H
	DD	01H
	DD	07H
	DB	'GUNSHP_A', 00H
	DB	'PSD', 00H
	DB	'RGB', 00H
	ORG $+3
	DD	08H
	DD	00H
	DD	01H
	DD	01H
	DD	07H
	DB	'GUNSHP_H', 00H
	DB	'PSD', 00H
	DB	'RGB', 00H
	ORG $+3
	DD	08H
	DD	00H
	DD	01H
	DD	01H
	DD	07H
	DB	'GUNSHPAU', 00H
	DB	'PSD', 00H
	DB	'RGB', 00H
	ORG $+3
	DD	08H
	DD	00H
	DD	01H
	DD	01H
	DD	07H
	DB	'GUNSHPHU', 00H
	DB	'PSD', 00H
	DB	'RGB', 00H
	ORG $+3
	DD	08H
	DD	00H
	DD	01H
	DD	01H
	DD	07H
	DB	'GUNSHPBX', 00H
	DB	'PSD', 00H
	DB	'RGB', 00H
	ORG $+3
	DD	08H
	DD	00H
	DD	01H
	DD	01H
	DD	07H
	DB	'PLAN_BU', 00H
	ORG $+1
	DB	'PSD', 00H
	DB	'RGA', 00H
	ORG $+3
	DD	09H
	DD	00H
	DD	01H
	DD	01H
	DD	07H
	DB	'PLAN_BS', 00H
	ORG $+1
	DB	'PSD', 00H
	DB	'RGA', 00H
	ORG $+3
	DD	09H
	DD	00H
	DD	01H
	DD	01H
	DD	07H
	DB	'PLAN_FU', 00H
	ORG $+1
	DB	'PSD', 00H
	DB	'RGA', 00H
	ORG $+3
	DD	09H
	DD	00H
	DD	01H
	DD	01H
	DD	07H
	DB	'PLAN_FS', 00H
	ORG $+1
	DB	'PSD', 00H
	DB	'RGA', 00H
	ORG $+3
	DD	09H
	DD	00H
	DD	01H
	DD	01H
	DD	07H
	DB	'PLAN_ZIU', 00H
	DB	'PSD', 00H
	DB	'RGA', 00H
	ORG $+3
	DD	09H
	DD	00H
	DD	01H
	DD	01H
	DD	07H
	DB	'PLAN_ZIS', 00H
	DB	'PSD', 00H
	DB	'RGA', 00H
	ORG $+3
	DD	09H
	DD	00H
	DD	01H
	DD	01H
	DD	07H
	DB	'PLAN_ZOU', 00H
	DB	'PSD', 00H
	DB	'RGA', 00H
	ORG $+3
	DD	09H
	DD	00H
	DD	01H
	DD	01H
	DD	07H
	DB	'PLAN_ZOS', 00H
	DB	'PSD', 00H
	DB	'RGA', 00H
	ORG $+3
	DD	09H
	DD	00H
	DD	01H
	DD	01H
	DD	07H
	DB	'PLAN_GU', 00H
	ORG $+1
	DB	'PSD', 00H
	DB	'RGA', 00H
	ORG $+3
	DD	09H
	DD	00H
	DD	01H
	DD	01H
	DD	07H
	DB	'PLAN_GS', 00H
	ORG $+1
	DB	'PSD', 00H
	DB	'RGA', 00H
	ORG $+3
	DD	09H
	DD	00H
	DD	01H
	DD	01H
	DD	07H
	DB	'PLAN_VU', 00H
	ORG $+1
	DB	'PSD', 00H
	DB	'RGA', 00H
	ORG $+3
	DD	09H
	DD	00H
	DD	01H
	DD	01H
	DD	07H
	DB	'PLAN_VS', 00H
	ORG $+1
	DB	'PSD', 00H
	DB	'RGA', 00H
	ORG $+3
	DD	09H
	DD	00H
	DD	01H
	DD	01H
	DD	07H
	DB	'AIRBASE', 00H
	ORG $+1
	DB	'PSD', 00H
	DB	'RGB', 00H
	ORG $+3
	DD	08H
	DD	00H
	DD	01H
	DD	00H
	DD	07H
	DB	'FARP', 00H
	ORG $+4
	DB	'PSD', 00H
	DB	'RGB', 00H
	ORG $+3
	DD	08H
	DD	00H
	DD	01H
	DD	00H
	DD	07H
	DB	'SHIP', 00H
	ORG $+4
	DB	'PSD', 00H
	DB	'RGB', 00H
	ORG $+3
	DD	08H
	DD	00H
	DD	01H
	DD	00H
	DD	07H
	DB	'DYN_MIS', 00H
	ORG $+1
	DB	'PSD', 00H
	DB	'RGB', 00H
	ORG $+3
	DD	08H
	DD	00H
	DD	01H
	DD	00H
	DD	09H
	DB	'CZONE', 00H
	ORG $+3
	DB	'PSD', 00H
	DB	'RGB', 00H
	ORG $+3
	DD	08H
	DD	00H
	DD	01H
	DD	01H
	DD	09H
	DB	'GAMEOP', 00H
	ORG $+2
	DB	'PSD', 00H
	DB	'RGB', 00H
	ORG $+3
	DD	08H
	DD	00H
	DD	01H
	DD	01H
	DD	09H
	DB	'LOADING', 00H
	ORG $+1
	DB	'PSD', 00H
	DB	'RGB', 00H
	ORG $+3
	DD	08H
	DD	00H
	DD	01H
	DD	01H
	DD	09H
	DB	'MAIN', 00H
	ORG $+4
	DB	'PSD', 00H
	DB	'RGB', 00H
	ORG $+3
	DD	08H
	DD	00H
	DD	01H
	DD	01H
	DD	09H
	DB	'TITLE', 00H
	ORG $+3
	DB	'PSD', 00H
	DB	'RGB', 00H
	ORG $+3
	DD	08H
	DD	00H
	DD	01H
	DD	01H
	DD	09H
	DB	'CAMPOVER', 00H
	DB	'PSD', 00H
	DB	'RGB', 00H
	ORG $+3
	DD	08H
	DD	00H
	DD	01H
	DD	00H
	DD	09H
	DB	'AIRBASE', 00H
	ORG $+1
	DB	'PSD', 00H
	DB	'RGB', 00H
	ORG $+3
	DD	08H
	DD	00H
	DD	01H
	DD	00H
	DD	09H
	DB	'FARP', 00H
	ORG $+4
	DB	'PSD', 00H
	DB	'RGB', 00H
	ORG $+3
	DD	08H
	DD	00H
	DD	01H
	DD	00H
	DD	09H
	DB	'SHIP', 00H
	ORG $+4
	DB	'PSD', 00H
	DB	'RGB', 00H
	ORG $+3
	DD	08H
	DD	00H
	DD	01H
	DD	00H
	DD	09H
	DB	'DYN_MIS', 00H
	ORG $+1
	DB	'PSD', 00H
	DB	'RGB', 00H
	ORG $+3
	DD	08H
	DD	00H
	DD	01H
	DD	00H
	DD	08H
	DB	'UA_BRIEF', 00H
	DB	'PSD', 00H
	DB	'RGA', 00H
	ORG $+3
	DD	09H
	DD	00H
	DD	01H
	DD	01H
	DD	08H
	DB	'UA_BAL', 00H
	ORG $+2
	DB	'PSD', 00H
	DB	'RGA', 00H
	ORG $+3
	DD	09H
	DD	00H
	DD	01H
	DD	01H
	DD	08H
	DB	'UA_GSHIP', 00H
	DB	'PSD', 00H
	DB	'RGA', 00H
	ORG $+3
	DD	09H
	DD	00H
	DD	01H
	DD	01H
	DD	08H
	DB	'UA_TASKS', 00H
	DB	'PSD', 00H
	DB	'RGA', 00H
	ORG $+3
	DD	09H
	DD	00H
	DD	01H
	DD	01H
	DD	08H
	DB	'UA_VLINE', 00H
	DB	'PSD', 00H
	DB	'RGA', 00H
	ORG $+3
	DD	09H
	DD	00H
	DD	01H
	DD	01H
	DD	08H
	DB	'AIRPORT', 00H
	ORG $+1
	DB	'PSD', 00H
	DB	'RGA', 00H
	ORG $+3
	DD	09H
	DD	00H
	DD	01H
	DD	01H
	DD	08H
	DB	'AVAILS', 00H
	ORG $+2
	DB	'PSD', 00H
	DB	'RGB', 00H
	ORG $+3
	DD	08H
	DD	00H
	DD	01H
	DD	01H
	DD	08H
	DB	'AVAILG', 00H
	ORG $+2
	DB	'PSD', 00H
	DB	'RGB', 00H
	ORG $+3
	DD	08H
	DD	00H
	DD	01H
	DD	01H
	DD	08H
	DB	'AVAILGD', 00H
	ORG $+1
	DB	'PSD', 00H
	DB	'RGB', 00H
	ORG $+3
	DD	08H
	DD	00H
	DD	01H
	DD	01H
	DD	08H
	DB	'US_AAA', 00H
	ORG $+2
	DB	'PSD', 00H
	DB	'RGB', 00H
	ORG $+3
	DD	08H
	DD	00H
	DD	01H
	DD	01H
	DD	08H
	DB	'US_APC', 00H
	ORG $+2
	DB	'PSD', 00H
	DB	'RGB', 00H
	ORG $+3
	DD	08H
	DD	00H
	DD	01H
	DD	01H
	DD	08H
	DB	'US_ARTL', 00H
	ORG $+1
	DB	'PSD', 00H
	DB	'RGB', 00H
	ORG $+3
	DD	08H
	DD	00H
	DD	01H
	DD	01H
	DD	08H
	DB	'US_BLD', 00H
	ORG $+2
	DB	'PSD', 00H
	DB	'RGB', 00H
	ORG $+3
	DD	08H
	DD	00H
	DD	01H
	DD	01H
	DD	08H
	DB	'US_HELI', 00H
	ORG $+1
	DB	'PSD', 00H
	DB	'RGB', 00H
	ORG $+3
	DD	08H
	DD	00H
	DD	01H
	DD	01H
	DD	08H
	DB	'US_FARP', 00H
	ORG $+1
	DB	'PSD', 00H
	DB	'RGB', 00H
	ORG $+3
	DD	08H
	DD	00H
	DD	01H
	DD	01H
	DD	08H
	DB	'US_FIXW', 00H
	ORG $+1
	DB	'PSD', 00H
	DB	'RGB', 00H
	ORG $+3
	DD	08H
	DD	00H
	DD	01H
	DD	01H
	DD	08H
	DB	'US_FMIS', 00H
	ORG $+1
	DB	'PSD', 00H
	DB	'RGB', 00H
	ORG $+3
	DD	08H
	DD	00H
	DD	01H
	DD	01H
	DD	08H
	DB	'US_JET', 00H
	ORG $+2
	DB	'PSD', 00H
	DB	'RGB', 00H
	ORG $+3
	DD	08H
	DD	00H
	DD	01H
	DD	01H
	DD	08H
	DB	'US_LNDF', 00H
	ORG $+1
	DB	'PSD', 00H
	DB	'RGB', 00H
	ORG $+3
	DD	06H
	DD	00H
	DD	01H
	DD	01H
	DD	08H
	DB	'US_LNDR', 00H
	ORG $+1
	DB	'PSD', 00H
	DB	'RGB', 00H
	ORG $+3
	DD	06H
	DD	00H
	DD	01H
	DD	01H
	DD	08H
	DB	'US_LNDS', 00H
	ORG $+1
	DB	'PSD', 00H
	DB	'RGB', 00H
	ORG $+3
	DD	06H
	DD	00H
	DD	01H
	DD	01H
	DD	08H
	DB	'US_PMIS', 00H
	ORG $+1
	DB	'PSD', 00H
	DB	'RGB', 00H
	ORG $+3
	DD	08H
	DD	00H
	DD	01H
	DD	01H
	DD	08H
	DB	'US_RMIS', 00H
	ORG $+1
	DB	'PSD', 00H
	DB	'RGB', 00H
	ORG $+3
	DD	08H
	DD	00H
	DD	01H
	DD	01H
	DD	08H
	DB	'US_RWAY', 00H
	ORG $+1
	DB	'PSD', 00H
	DB	'RGB', 00H
	ORG $+3
	DD	08H
	DD	00H
	DD	01H
	DD	01H
	DD	08H
	DB	'US_SAM', 00H
	ORG $+2
	DB	'PSD', 00H
	DB	'RGB', 00H
	ORG $+3
	DD	08H
	DD	00H
	DD	01H
	DD	01H
	DD	08H
	DB	'US_SHIP', 00H
	ORG $+1
	DB	'PSD', 00H
	DB	'RGB', 00H
	ORG $+3
	DD	08H
	DD	00H
	DD	01H
	DD	01H
	DD	08H
	DB	'US_SMIS', 00H
	ORG $+1
	DB	'PSD', 00H
	DB	'RGB', 00H
	ORG $+3
	DD	08H
	DD	00H
	DD	01H
	DD	01H
	DD	08H
	DB	'US_SML4', 00H
	ORG $+1
	DB	'PSD', 00H
	DB	'RGB', 00H
	ORG $+3
	DD	08H
	DD	00H
	DD	01H
	DD	01H
	DD	08H
	DB	'US_SML8', 00H
	ORG $+1
	DB	'PSD', 00H
	DB	'RGB', 00H
	ORG $+3
	DD	08H
	DD	00H
	DD	01H
	DD	01H
	DD	08H
	DB	'US_TANK', 00H
	ORG $+1
	DB	'PSD', 00H
	DB	'RGB', 00H
	ORG $+3
	DD	08H
	DD	00H
	DD	01H
	DD	01H
	DD	08H
	DB	'US_TRCK', 00H
	ORG $+1
	DB	'PSD', 00H
	DB	'RGB', 00H
	ORG $+3
	DD	08H
	DD	00H
	DD	01H
	DD	01H
	DD	08H
	DB	'US_USER', 00H
	ORG $+1
	DB	'PSD', 00H
	DB	'RGB', 00H
	ORG $+3
	DD	06H
	DD	00H
	DD	01H
	DD	01H
	DD	08H
	DB	'US_WPNV', 00H
	ORG $+1
	DB	'PSD', 00H
	DB	'RGB', 00H
	ORG $+3
	DD	08H
	DD	00H
	DD	01H
	DD	01H
	DD	08H
	DB	'US_WPTG', 00H
	ORG $+1
	DB	'PSD', 00H
	DB	'RGB', 00H
	ORG $+3
	DD	06H
	DD	00H
	DD	01H
	DD	01H
	DD	08H
	DB	'US_WPAD', 00H
	ORG $+1
	DB	'PSD', 00H
	DB	'RGB', 00H
	ORG $+3
	DD	08H
	DD	00H
	DD	01H
	DD	01H
	DD	08H
	DB	'US_WPNS', 00H
	ORG $+1
	DB	'PSD', 00H
	DB	'RGB', 00H
	ORG $+3
	DD	08H
	DD	00H
	DD	01H
	DD	01H
	DD	08H
	DB	'US_GFRP', 00H
	ORG $+1
	DB	'PSD', 00H
	DB	'RGB', 00H
	ORG $+3
	DD	08H
	DD	00H
	DD	01H
	DD	01H
	DD	08H
	DB	'US_GRWY', 00H
	ORG $+1
	DB	'PSD', 00H
	DB	'RGB', 00H
	ORG $+3
	DD	08H
	DD	00H
	DD	01H
	DD	01H
	DD	08H
	DB	'US_GSHP', 00H
	ORG $+1
	DB	'PSD', 00H
	DB	'RGB', 00H
	ORG $+3
	DD	08H
	DD	00H
	DD	01H
	DD	01H
	DD	08H
	DB	'US_MULT', 00H
	ORG $+1
	DB	'PSD', 00H
	DB	'RGB', 00H
	ORG $+3
	DD	08H
	DD	00H
	DD	01H
	DD	01H
	DD	08H
	DB	'CIS_AAA', 00H
	ORG $+1
	DB	'PSD', 00H
	DB	'RGB', 00H
	ORG $+3
	DD	08H
	DD	00H
	DD	01H
	DD	01H
	DD	08H
	DB	'CIS_APC', 00H
	ORG $+1
	DB	'PSD', 00H
	DB	'RGB', 00H
	ORG $+3
	DD	08H
	DD	00H
	DD	01H
	DD	01H
	DD	08H
	DB	'CIS_ARTL', 00H
	DB	'PSD', 00H
	DB	'RGB', 00H
	ORG $+3
	DD	08H
	DD	00H
	DD	01H
	DD	01H
	DD	08H
	DB	'CIS_BLD', 00H
	ORG $+1
	DB	'PSD', 00H
	DB	'RGB', 00H
	ORG $+3
	DD	08H
	DD	00H
	DD	01H
	DD	01H
	DD	08H
	DB	'CIS_HELI', 00H
	DB	'PSD', 00H
	DB	'RGB', 00H
	ORG $+3
	DD	08H
	DD	00H
	DD	01H
	DD	01H
	DD	08H
	DB	'CIS_FARP', 00H
	DB	'PSD', 00H
	DB	'RGB', 00H
	ORG $+3
	DD	08H
	DD	00H
	DD	01H
	DD	01H
	DD	08H
	DB	'CIS_FIXW', 00H
	DB	'PSD', 00H
	DB	'RGB', 00H
	ORG $+3
	DD	08H
	DD	00H
	DD	01H
	DD	01H
	DD	08H
	DB	'CIS_FMIS', 00H
	DB	'PSD', 00H
	DB	'RGB', 00H
	ORG $+3
	DD	08H
	DD	00H
	DD	01H
	DD	01H
	DD	08H
	DB	'CIS_JET', 00H
	ORG $+1
	DB	'PSD', 00H
	DB	'RGB', 00H
	ORG $+3
	DD	08H
	DD	00H
	DD	01H
	DD	01H
	DD	08H
	DB	'CIS_LNDF', 00H
	DB	'PSD', 00H
	DB	'RGB', 00H
	ORG $+3
	DD	06H
	DD	00H
	DD	01H
	DD	01H
	DD	08H
	DB	'CIS_LNDR', 00H
	DB	'PSD', 00H
	DB	'RGB', 00H
	ORG $+3
	DD	06H
	DD	00H
	DD	01H
	DD	01H
	DD	08H
	DB	'CIS_LNDS', 00H
	DB	'PSD', 00H
	DB	'RGB', 00H
	ORG $+3
	DD	06H
	DD	00H
	DD	01H
	DD	01H
	DD	08H
	DB	'CIS_PMIS', 00H
	DB	'PSD', 00H
	DB	'RGB', 00H
	ORG $+3
	DD	08H
	DD	00H
	DD	01H
	DD	01H
	DD	08H
	DB	'CIS_RMIS', 00H
	DB	'PSD', 00H
	DB	'RGB', 00H
	ORG $+3
	DD	08H
	DD	00H
	DD	01H
	DD	01H
	DD	08H
	DB	'CIS_RWAY', 00H
	DB	'PSD', 00H
	DB	'RGB', 00H
	ORG $+3
	DD	08H
	DD	00H
	DD	01H
	DD	01H
	DD	08H
	DB	'CIS_SAM', 00H
	ORG $+1
	DB	'PSD', 00H
	DB	'RGB', 00H
	ORG $+3
	DD	08H
	DD	00H
	DD	01H
	DD	01H
	DD	08H
	DB	'CIS_SHIP', 00H
	DB	'PSD', 00H
	DB	'RGB', 00H
	ORG $+3
	DD	08H
	DD	00H
	DD	01H
	DD	01H
	DD	08H
	DB	'CIS_SMIS', 00H
	DB	'PSD', 00H
	DB	'RGB', 00H
	ORG $+3
	DD	08H
	DD	00H
	DD	01H
	DD	01H
	DD	08H
	DB	'CIS_SML4', 00H
	DB	'PSD', 00H
	DB	'RGB', 00H
	ORG $+3
	DD	08H
	DD	00H
	DD	01H
	DD	01H
	DD	08H
	DB	'CIS_SML8', 00H
	DB	'PSD', 00H
	DB	'RGB', 00H
	ORG $+3
	DD	08H
	DD	00H
	DD	01H
	DD	01H
	DD	08H
	DB	'CIS_TANK', 00H
	DB	'PSD', 00H
	DB	'RGB', 00H
	ORG $+3
	DD	08H
	DD	00H
	DD	01H
	DD	01H
	DD	08H
	DB	'CIS_TRCK', 00H
	DB	'PSD', 00H
	DB	'RGB', 00H
	ORG $+3
	DD	08H
	DD	00H
	DD	01H
	DD	01H
	DD	08H
	DB	'CIS_USER', 00H
	DB	'PSD', 00H
	DB	'RGB', 00H
	ORG $+3
	DD	06H
	DD	00H
	DD	01H
	DD	01H
	DD	08H
	DB	'CIS_WPNV', 00H
	DB	'PSD', 00H
	DB	'RGB', 00H
	ORG $+3
	DD	08H
	DD	00H
	DD	01H
	DD	01H
	DD	08H
	DB	'CIS_WPTG', 00H
	DB	'PSD', 00H
	DB	'RGB', 00H
	ORG $+3
	DD	06H
	DD	00H
	DD	01H
	DD	01H
	DD	08H
	DB	'CIS_WPAD', 00H
	DB	'PSD', 00H
	DB	'RGB', 00H
	ORG $+3
	DD	08H
	DD	00H
	DD	01H
	DD	01H
	DD	08H
	DB	'CIS_WPNS', 00H
	DB	'PSD', 00H
	DB	'RGB', 00H
	ORG $+3
	DD	08H
	DD	00H
	DD	01H
	DD	01H
	DD	08H
	DB	'CIS_GFRP', 00H
	DB	'PSD', 00H
	DB	'RGB', 00H
	ORG $+3
	DD	08H
	DD	00H
	DD	01H
	DD	01H
	DD	08H
	DB	'CIS_GRWY', 00H
	DB	'PSD', 00H
	DB	'RGB', 00H
	ORG $+3
	DD	08H
	DD	00H
	DD	01H
	DD	01H
	DD	08H
	DB	'CIS_GFRP', 00H
	DB	'PSD', 00H
	DB	'RGB', 00H
	ORG $+3
	DD	08H
	DD	00H
	DD	01H
	DD	01H
	DD	08H
	DB	'CIS_MULT', 00H
	DB	'PSD', 00H
	DB	'RGB', 00H
	ORG $+3
	DD	08H
	DD	00H
	DD	01H
	DD	01H
	DD	08H
	DB	'UP_ARR_U', 00H
	DB	'PSD', 00H
	DB	'RGB', 00H
	ORG $+3
	DD	08H
	DD	00H
	DD	01H
	DD	01H
	DD	08H
	DB	'UP_ARR_S', 00H
	DB	'PSD', 00H
	DB	'RGB', 00H
	ORG $+3
	DD	08H
	DD	00H
	DD	01H
	DD	01H
	DD	08H
	DB	'DW_ARR_U', 00H
	DB	'PSD', 00H
	DB	'RGB', 00H
	ORG $+3
	DD	08H
	DD	00H
	DD	01H
	DD	01H
	DD	08H
	DB	'DW_ARR_S', 00H
	DB	'PSD', 00H
	DB	'RGB', 00H
	ORG $+3
	DD	08H
	DD	00H
	DD	01H
	DD	01H
	DD	08H
	DB	'UA_MPBAR', 00H
	DB	'PSD', 00H
	DB	'RGA', 00H
	ORG $+3
	DD	06H
	DD	00H
	DD	01H
	DD	01H
	DD	08H
	DB	'UA_V', 00H
	ORG $+4
	DB	'PSD', 00H
	DB	'RGA', 00H
	ORG $+3
	DD	06H
	DD	00H
	DD	01H
	DD	01H
	DD	08H
	DB	'UA_DTOP', 00H
	ORG $+1
	DB	'PSD', 00H
	DB	'RGA', 00H
	ORG $+3
	DD	06H
	DD	00H
	DD	01H
	DD	01H
	DD	08H
	DB	'UA_DLOW', 00H
	ORG $+1
	DB	'PSD', 00H
	DB	'RGA', 00H
	ORG $+3
	DD	06H
	DD	00H
	DD	01H
	DD	01H
	DD	08H
	DB	'AITOOL', 00H
	ORG $+2
	DB	'PSD', 00H
	DB	'RGB', 00H
	ORG $+3
	DD	08H
	DD	00H
	DD	01H
	DD	00H
_DATA	ENDS
PUBLIC	?get_uninstalled_graphics_file_count@@YGHH@Z	; get_uninstalled_graphics_file_count
PUBLIC	?install_graphics_files@@YGHH@Z			; install_graphics_files
PUBLIC	?uninstall_graphics_files@@YGXXZ		; uninstall_graphics_files
PUBLIC	?mopen_all_graphics_files@@YGXH@Z		; mopen_all_graphics_files
PUBLIC	?mclose_all_graphics_files@@YGXXZ		; mclose_all_graphics_files
PUBLIC	??_C@_0CI@GHKIINHJ@Installing?5graphics?5files?5on?5pa@ ; `string'
PUBLIC	??_C@_0BJ@EBDMMGIK@Converting?5file?5?$CFs?5to?5?$CFs@ ; `string'
PUBLIC	??_C@_0CA@IHGACJH@Uninstalling?5graphics?5files?5?4?4?4@ ; `string'
PUBLIC	??_C@_09HGIBBNON@?2cohokum?2@			; `string'
PUBLIC	??_C@_08EMMAHODI@?2common?2@			; `string'
PUBLIC	??_C@_0BE@CPHGMOPP@Failed?5to?5delete?5?$CFs@	; `string'
PUBLIC	?__LINE__Var@?0??mclose_pre_installed_apache_havoc_cockpit_graphics@@YGXXZ@4JA ; `mclose_pre_installed_apache_havoc_cockpit_graphics'::`1'::__LINE__Var
PUBLIC	??_C@_0DH@KLGEFEIF@c?3?2users?2nhv90?2projects?2eech?2ap@ ; `string'
PUBLIC	??_C@_0CF@FMFMFNHG@get_global_apache_havoc_install@ ; `string'
PUBLIC	??_C@_0BC@PODNONFH@ASSERT?5?$CFs?5?$CI?$CFs?3?$CFd?$CJ@ ; `string'
PUBLIC	??_C@_0CF@LLFGIEHL@apache_havoc_installation_path_@ ; `string'
PUBLIC	??_C@_0CI@DIEJLAON@strlen?5?$CIapache_havoc_installati@ ; `string'
PUBLIC	??_C@_09GKKMLOFO@?2aphavoc?2@			; `string'
PUBLIC	??_C@_0DA@GLKLPOAJ@MCLOSE?3?5missing?5installed?5Apach@ ; `string'
PUBLIC	?__LINE__Var@?0??mopen_pre_installed_apache_havoc_cockpit_graphics@@YGXXZ@4JA ; `mopen_pre_installed_apache_havoc_cockpit_graphics'::`1'::__LINE__Var
PUBLIC	??_C@_0CP@GKBFIAJL@MOPEN?3?5missing?5installed?5Apache@ ; `string'
PUBLIC	??_C@_0BO@BAGKDBJF@Apache?5Havoc?5is?5NOT?5installed@ ; `string'
PUBLIC	??_C@_01LFCBOECM@?4@				; `string'
EXTRN	__imp___unlink:PROC
EXTRN	_strcat:PROC
EXTRN	_strcpy:PROC
EXTRN	_strlen:PROC
EXTRN	?debug_fatal@@YAXPBDZZ:PROC			; debug_fatal
EXTRN	?debug_log@@YAXPBDZZ:PROC			; debug_log
EXTRN	?debug_colour_log@@YAXW4DEBUG_COLOURS@@PBDZZ:PROC ; debug_colour_log
EXTRN	?file_exist@@YGHPBD@Z:PROC			; file_exist
EXTRN	?safe_mopen@@YGPAXPBD@Z:PROC			; safe_mopen
EXTRN	?safe_mclose@@YGHPAX@Z:PROC			; safe_mclose
EXTRN	?convert_tga_to_rle@@YGXPBD0@Z:PROC		; convert_tga_to_rle
EXTRN	?convert_psd_to_rle@@YGXPBD0@Z:PROC		; convert_psd_to_rle
EXTRN	?convert_and_dither_psd_to_rle@@YGXPBD0@Z:PROC	; convert_and_dither_psd_to_rle
EXTRN	?convert_tga_to_rgb@@YGXPBD0@Z:PROC		; convert_tga_to_rgb
EXTRN	?convert_tga_to_rgb_alpha@@YGXPBD0@Z:PROC	; convert_tga_to_rgb_alpha
EXTRN	?convert_tga_to_alpha_mask@@YGXPBD0@Z:PROC	; convert_tga_to_alpha_mask
EXTRN	?convert_psd_to_rgb@@YGXPBD0@Z:PROC		; convert_psd_to_rgb
EXTRN	?convert_psd_to_rgb_alpha@@YGXPBD0@Z:PROC	; convert_psd_to_rgb_alpha
EXTRN	?convert_psd_to_alpha_mask@@YGXPBD0@Z:PROC	; convert_psd_to_alpha_mask
EXTRN	?convert_and_dither_psd_to_rgb_alpha@@YGXPBD0@Z:PROC ; convert_and_dither_psd_to_rgb_alpha
EXTRN	?convert_and_dither_psd_to_rgb@@YGXPBD0@Z:PROC	; convert_and_dither_psd_to_rgb
EXTRN	?add_file_to_uninstall_log@@YGXPBD@Z:PROC	; add_file_to_uninstall_log
EXTRN	?global_options@@3UGLOBAL_OPTIONS_DATA@@A:BYTE	; global_options
EXTRN	?cdrom_drive_letter@@3HA:DWORD			; cdrom_drive_letter
EXTRN	?apache_havoc_installation_path_valid@@3HA:DWORD ; apache_havoc_installation_path_valid
EXTRN	?apache_havoc_installation_path@@3PADA:BYTE	; apache_havoc_installation_path
EXTRN	?comanche_hokum_installation_path@@3PADA:BYTE	; comanche_hokum_installation_path
;	COMDAT ??_C@_01LFCBOECM@?4@
CONST	SEGMENT
??_C@_01LFCBOECM@?4@ DB '.', 00H			; `string'
CONST	ENDS
;	COMDAT ??_C@_0BO@BAGKDBJF@Apache?5Havoc?5is?5NOT?5installed@
CONST	SEGMENT
??_C@_0BO@BAGKDBJF@Apache?5Havoc?5is?5NOT?5installed@ DB 'Apache Havoc is'
	DB	' NOT installed', 00H			; `string'
CONST	ENDS
;	COMDAT ??_C@_0CP@GKBFIAJL@MOPEN?3?5missing?5installed?5Apache@
CONST	SEGMENT
??_C@_0CP@GKBFIAJL@MOPEN?3?5missing?5installed?5Apache@ DB 'MOPEN: missin'
	DB	'g installed Apache Havoc file: %s', 00H	; `string'
CONST	ENDS
;	COMDAT ?__LINE__Var@?0??mopen_pre_installed_apache_havoc_cockpit_graphics@@YGXXZ@4JA
_DATA	SEGMENT
?__LINE__Var@?0??mopen_pre_installed_apache_havoc_cockpit_graphics@@YGXXZ@4JA DD 019bfH ; `mopen_pre_installed_apache_havoc_cockpit_graphics'::`1'::__LINE__Var
_DATA	ENDS
;	COMDAT ??_C@_0DA@GLKLPOAJ@MCLOSE?3?5missing?5installed?5Apach@
CONST	SEGMENT
??_C@_0DA@GLKLPOAJ@MCLOSE?3?5missing?5installed?5Apach@ DB 'MCLOSE: missi'
	DB	'ng installed Apache Havoc file: %s', 00H	; `string'
CONST	ENDS
;	COMDAT ??_C@_09GKKMLOFO@?2aphavoc?2@
CONST	SEGMENT
??_C@_09GKKMLOFO@?2aphavoc?2@ DB '\aphavoc\', 00H	; `string'
CONST	ENDS
;	COMDAT ??_C@_0CI@DIEJLAON@strlen?5?$CIapache_havoc_installati@
CONST	SEGMENT
??_C@_0CI@DIEJLAON@strlen?5?$CIapache_havoc_installati@ DB 'strlen (apach'
	DB	'e_havoc_installation_path)', 00H		; `string'
CONST	ENDS
;	COMDAT ??_C@_0CF@LLFGIEHL@apache_havoc_installation_path_@
CONST	SEGMENT
??_C@_0CF@LLFGIEHL@apache_havoc_installation_path_@ DB 'apache_havoc_inst'
	DB	'allation_path_valid', 00H			; `string'
CONST	ENDS
;	COMDAT ??_C@_0BC@PODNONFH@ASSERT?5?$CFs?5?$CI?$CFs?3?$CFd?$CJ@
CONST	SEGMENT
??_C@_0BC@PODNONFH@ASSERT?5?$CFs?5?$CI?$CFs?3?$CFd?$CJ@ DB 'ASSERT %s (%s'
	DB	':%d)', 00H					; `string'
CONST	ENDS
;	COMDAT ??_C@_0CF@FMFMFNHG@get_global_apache_havoc_install@
CONST	SEGMENT
??_C@_0CF@FMFMFNHG@get_global_apache_havoc_install@ DB 'get_global_apache'
	DB	'_havoc_installed ()', 00H			; `string'
CONST	ENDS
;	COMDAT ??_C@_0DH@KLGEFEIF@c?3?2users?2nhv90?2projects?2eech?2ap@
CONST	SEGMENT
??_C@_0DH@KLGEFEIF@c?3?2users?2nhv90?2projects?2eech?2ap@ DB 'c:\users\nh'
	DB	'v90\projects\eech\aphavoc\source\gfxfiles.c', 00H ; `string'
CONST	ENDS
;	COMDAT ?__LINE__Var@?0??mclose_pre_installed_apache_havoc_cockpit_graphics@@YGXXZ@4JA
_DATA	SEGMENT
?__LINE__Var@?0??mclose_pre_installed_apache_havoc_cockpit_graphics@@YGXXZ@4JA DD 01993H ; `mclose_pre_installed_apache_havoc_cockpit_graphics'::`1'::__LINE__Var
_DATA	ENDS
;	COMDAT ??_C@_0BE@CPHGMOPP@Failed?5to?5delete?5?$CFs@
CONST	SEGMENT
??_C@_0BE@CPHGMOPP@Failed?5to?5delete?5?$CFs@ DB 'Failed to delete %s', 00H ; `string'
CONST	ENDS
;	COMDAT ??_C@_08EMMAHODI@?2common?2@
CONST	SEGMENT
??_C@_08EMMAHODI@?2common?2@ DB '\common\', 00H		; `string'
CONST	ENDS
;	COMDAT ??_C@_09HGIBBNON@?2cohokum?2@
CONST	SEGMENT
??_C@_09HGIBBNON@?2cohokum?2@ DB '\cohokum\', 00H	; `string'
CONST	ENDS
;	COMDAT ??_C@_0CA@IHGACJH@Uninstalling?5graphics?5files?5?4?4?4@
CONST	SEGMENT
??_C@_0CA@IHGACJH@Uninstalling?5graphics?5files?5?4?4?4@ DB 'Uninstalling'
	DB	' graphics files ...', 00H			; `string'
CONST	ENDS
;	COMDAT ??_C@_0BJ@EBDMMGIK@Converting?5file?5?$CFs?5to?5?$CFs@
CONST	SEGMENT
??_C@_0BJ@EBDMMGIK@Converting?5file?5?$CFs?5to?5?$CFs@ DB 'Converting fil'
	DB	'e %s to %s', 00H				; `string'
CONST	ENDS
;	COMDAT ??_C@_0CI@GHKIINHJ@Installing?5graphics?5files?5on?5pa@
CONST	SEGMENT
??_C@_0CI@GHKIINHJ@Installing?5graphics?5files?5on?5pa@ DB 'Installing gr'
	DB	'aphics files on pass %d...', 00H		; `string'
CONST	ENDS
_DATA	SEGMENT
?distribution_path_names@@3PAPBDA DD FLAT:??_C@_0BM@KOABDLFJ@?2COHOKUM?2GRAPHICS?2COCKPITS?2@ ; distribution_path_names
	DD	FLAT:??_C@_0CK@GCHALAKP@?2COHOKUM?2GRAPHICS?2COCKPITS?2APAC@
	DD	FLAT:??_C@_0CK@GADGAOPG@?2COHOKUM?2GRAPHICS?2COCKPITS?2APAC@
	DD	FLAT:??_C@_0CK@GBPEGEMB@?2COHOKUM?2GRAPHICS?2COCKPITS?2APAC@
	DD	FLAT:??_C@_0CJ@DIPNDMAJ@?2COHOKUM?2GRAPHICS?2COCKPITS?2HAVO@
	DD	FLAT:??_C@_0CJ@DKLLICFA@?2COHOKUM?2GRAPHICS?2COCKPITS?2HAVO@
	DD	FLAT:??_C@_0CJ@DLHJOIGH@?2COHOKUM?2GRAPHICS?2COCKPITS?2HAVO@
	DD	FLAT:??_C@_0BN@HIPJEAK@?2COHOKUM?2GRAPHICS?2UI?2APACHE?2@
	DD	FLAT:??_C@_0BN@INEMNGBC@?2COHOKUM?2GRAPHICS?2UI?2COMMON?2@
	DD	FLAT:??_C@_0BM@NCNMCIOF@?2COHOKUM?2GRAPHICS?2UI?2HAVOC?2@
	DD	FLAT:??_C@_0BM@DBONELDJ@?2COMMON?2MAPS?2MAP1?2GRAPHICS?2@
	DD	FLAT:??_C@_0BM@EGHDJJMJ@?2COMMON?2MAPS?2MAP2?2GRAPHICS?2@
	DD	FLAT:??_C@_0BM@NNNGNFKG@?2COMMON?2MAPS?2MAP3?2GRAPHICS?2@
	DD	FLAT:??_C@_0BM@KJEODMCJ@?2COMMON?2MAPS?2MAP4?2GRAPHICS?2@
?installation_path_names@@3PAPBDA DD FLAT:??_C@_0BD@ICFHEJJJ@GRAPHICS?2COCKPITS?2@ ; installation_path_names
	DD	FLAT:??_C@_0CB@CFNCIDIP@GRAPHICS?2COCKPITS?2APACHE?2LEVEL1@
	DD	FLAT:??_C@_0CB@CHJEDNNG@GRAPHICS?2COCKPITS?2APACHE?2LEVEL2@
	DD	FLAT:??_C@_0CB@CGFGFHOB@GRAPHICS?2COCKPITS?2APACHE?2LEVEL3@
	DD	FLAT:??_C@_0CA@CIABGDOH@GRAPHICS?2COCKPITS?2HAVOC?2LEVEL1?2@
	DD	FLAT:??_C@_0CA@CKEHNNLO@GRAPHICS?2COCKPITS?2HAVOC?2LEVEL2?2@
	DD	FLAT:??_C@_0CA@CLIFLHIJ@GRAPHICS?2COCKPITS?2HAVOC?2LEVEL3?2@
	DD	FLAT:??_C@_0BE@JMMHAAMI@GRAPHICS?2UI?2APACHE?2@
	DD	FLAT:??_C@_0BE@BGAEECNA@GRAPHICS?2UI?2COMMON?2@
	DD	FLAT:??_C@_0BD@POIKFKCF@GRAPHICS?2UI?2HAVOC?2@
	DD	FLAT:??_C@_0BO@ICICHCA@?4?4?2COMMON?2MAPS?2MAP1?2GRAPHICS?2@
	DD	FLAT:??_C@_0BO@HPLGPFNA@?4?4?2COMMON?2MAPS?2MAP2?2GRAPHICS?2@
	DD	FLAT:??_C@_0BO@OEBDLJLP@?4?4?2COMMON?2MAPS?2MAP3?2GRAPHICS?2@
	DD	FLAT:??_C@_0BO@JAILFADA@?4?4?2COMMON?2MAPS?2MAP4?2GRAPHICS?2@
_DATA	ENDS
; Function compile flags: /Odtp /ZI
; File c:\users\nhv90\projects\eech\aphavoc\source\gfxfiles.c
;	COMDAT ?mopen_pre_installed_apache_havoc_cockpit_graphics@@YGXXZ
_TEXT	SEGMENT
_apache_havoc_installation_file$ = -3080		; size = 2048
_installation_file$ = -1032				; size = 1024
_failed$ = -8						; size = 4
_i$ = -4						; size = 4
?mopen_pre_installed_apache_havoc_cockpit_graphics@@YGXXZ PROC ; mopen_pre_installed_apache_havoc_cockpit_graphics, COMDAT

; 6591 : {

  00000	55		 push	 ebp
  00001	8b ec		 mov	 ebp, esp
  00003	81 ec c8 0d 00
	00		 sub	 esp, 3528		; 00000dc8H
  00009	53		 push	 ebx
  0000a	56		 push	 esi
  0000b	57		 push	 edi

; 6592 : 	int
; 6593 : 		i,
; 6594 : 		failed;
; 6595 : 
; 6596 : 	char
; 6597 : 		installation_file[1024],
; 6598 : 		apache_havoc_installation_file[2048];
; 6599 : 
; 6600 : 	debug_assert (get_global_apache_havoc_installed ());

  0000c	83 3d 60 03 00
	00 00		 cmp	 DWORD PTR ?global_options@@3UGLOBAL_OPTIONS_DATA@@A+864, 0
  00013	75 20		 jne	 SHORT $LN5@mopen_pre_
  00015	a1 00 00 00 00	 mov	 eax, DWORD PTR ?__LINE__Var@?0??mopen_pre_installed_apache_havoc_cockpit_graphics@@YGXXZ@4JA
  0001a	83 c0 09	 add	 eax, 9
  0001d	50		 push	 eax
  0001e	68 00 00 00 00	 push	 OFFSET ??_C@_0DH@KLGEFEIF@c?3?2users?2nhv90?2projects?2eech?2ap@
  00023	68 00 00 00 00	 push	 OFFSET ??_C@_0CF@FMFMFNHG@get_global_apache_havoc_install@
  00028	68 00 00 00 00	 push	 OFFSET ??_C@_0BC@PODNONFH@ASSERT?5?$CFs?5?$CI?$CFs?3?$CFd?$CJ@
  0002d	e8 00 00 00 00	 call	 ?debug_fatal@@YAXPBDZZ	; debug_fatal
  00032	83 c4 10	 add	 esp, 16			; 00000010H
$LN5@mopen_pre_:

; 6601 : 
; 6602 : 	debug_assert (apache_havoc_installation_path_valid);

  00035	83 3d 00 00 00
	00 00		 cmp	 DWORD PTR ?apache_havoc_installation_path_valid@@3HA, 0 ; apache_havoc_installation_path_valid
  0003c	75 20		 jne	 SHORT $LN6@mopen_pre_
  0003e	a1 00 00 00 00	 mov	 eax, DWORD PTR ?__LINE__Var@?0??mopen_pre_installed_apache_havoc_cockpit_graphics@@YGXXZ@4JA
  00043	83 c0 0b	 add	 eax, 11			; 0000000bH
  00046	50		 push	 eax
  00047	68 00 00 00 00	 push	 OFFSET ??_C@_0DH@KLGEFEIF@c?3?2users?2nhv90?2projects?2eech?2ap@
  0004c	68 00 00 00 00	 push	 OFFSET ??_C@_0CF@LLFGIEHL@apache_havoc_installation_path_@
  00051	68 00 00 00 00	 push	 OFFSET ??_C@_0BC@PODNONFH@ASSERT?5?$CFs?5?$CI?$CFs?3?$CFd?$CJ@
  00056	e8 00 00 00 00	 call	 ?debug_fatal@@YAXPBDZZ	; debug_fatal
  0005b	83 c4 10	 add	 esp, 16			; 00000010H
$LN6@mopen_pre_:

; 6603 : 
; 6604 : 	debug_assert (strlen (apache_havoc_installation_path));

  0005e	68 00 00 00 00	 push	 OFFSET ?apache_havoc_installation_path@@3PADA ; apache_havoc_installation_path
  00063	e8 00 00 00 00	 call	 _strlen
  00068	83 c4 04	 add	 esp, 4
  0006b	85 c0		 test	 eax, eax
  0006d	75 20		 jne	 SHORT $LN7@mopen_pre_
  0006f	a1 00 00 00 00	 mov	 eax, DWORD PTR ?__LINE__Var@?0??mopen_pre_installed_apache_havoc_cockpit_graphics@@YGXXZ@4JA
  00074	83 c0 0d	 add	 eax, 13			; 0000000dH
  00077	50		 push	 eax
  00078	68 00 00 00 00	 push	 OFFSET ??_C@_0DH@KLGEFEIF@c?3?2users?2nhv90?2projects?2eech?2ap@
  0007d	68 00 00 00 00	 push	 OFFSET ??_C@_0CI@DIEJLAON@strlen?5?$CIapache_havoc_installati@
  00082	68 00 00 00 00	 push	 OFFSET ??_C@_0BC@PODNONFH@ASSERT?5?$CFs?5?$CI?$CFs?3?$CFd?$CJ@
  00087	e8 00 00 00 00	 call	 ?debug_fatal@@YAXPBDZZ	; debug_fatal
  0008c	83 c4 10	 add	 esp, 16			; 00000010H
$LN7@mopen_pre_:

; 6605 : 
; 6606 : 	failed = FALSE;

  0008f	c7 45 f8 00 00
	00 00		 mov	 DWORD PTR _failed$[ebp], 0

; 6607 : 
; 6608 : 	for (i = 0; i < NUM_FILES; i++)

  00096	c7 45 fc 00 00
	00 00		 mov	 DWORD PTR _i$[ebp], 0
  0009d	eb 09		 jmp	 SHORT $LN4@mopen_pre_
$LN2@mopen_pre_:
  0009f	8b 45 fc	 mov	 eax, DWORD PTR _i$[ebp]
  000a2	83 c0 01	 add	 eax, 1
  000a5	89 45 fc	 mov	 DWORD PTR _i$[ebp], eax
$LN4@mopen_pre_:
  000a8	81 7d fc c9 01
	00 00		 cmp	 DWORD PTR _i$[ebp], 457	; 000001c9H
  000af	0f 83 b4 00 00
	00		 jae	 $LN3@mopen_pre_

; 6609 : 	{
; 6610 : 		if (graphics_files[i].required_for_apache_havoc_cockpits)

  000b5	6b 45 fc 28	 imul	 eax, DWORD PTR _i$[ebp], 40
  000b9	8b 88 24 00 00
	00		 mov	 ecx, DWORD PTR ?graphics_files@@3PAUFILE_DATA@@A[eax+36]
  000bf	c1 e9 02	 shr	 ecx, 2
  000c2	83 e1 01	 and	 ecx, 1
  000c5	0f 84 99 00 00
	00		 je	 $LN8@mopen_pre_

; 6611 : 		{
; 6612 : 			get_installation_file_specifier (installation_file, &graphics_files[i]);

  000cb	6b 45 fc 28	 imul	 eax, DWORD PTR _i$[ebp], 40
  000cf	05 00 00 00 00	 add	 eax, OFFSET ?graphics_files@@3PAUFILE_DATA@@A ; graphics_files
  000d4	50		 push	 eax
  000d5	8d 8d f8 fb ff
	ff		 lea	 ecx, DWORD PTR _installation_file$[ebp]
  000db	51		 push	 ecx
  000dc	e8 00 00 00 00	 call	 ?get_installation_file_specifier@@YGPADPADPAUFILE_DATA@@@Z ; get_installation_file_specifier

; 6613 : 
; 6614 : 			strcpy (apache_havoc_installation_file, apache_havoc_installation_path);

  000e1	68 00 00 00 00	 push	 OFFSET ?apache_havoc_installation_path@@3PADA ; apache_havoc_installation_path
  000e6	8d 85 f8 f3 ff
	ff		 lea	 eax, DWORD PTR _apache_havoc_installation_file$[ebp]
  000ec	50		 push	 eax
  000ed	e8 00 00 00 00	 call	 _strcpy
  000f2	83 c4 08	 add	 esp, 8

; 6615 : 
; 6616 : 			strcat (apache_havoc_installation_file, "\\aphavoc\\");

  000f5	68 00 00 00 00	 push	 OFFSET ??_C@_09GKKMLOFO@?2aphavoc?2@
  000fa	8d 85 f8 f3 ff
	ff		 lea	 eax, DWORD PTR _apache_havoc_installation_file$[ebp]
  00100	50		 push	 eax
  00101	e8 00 00 00 00	 call	 _strcat
  00106	83 c4 08	 add	 esp, 8

; 6617 : 
; 6618 : 			strcat (apache_havoc_installation_file, installation_file);

  00109	8d 85 f8 fb ff
	ff		 lea	 eax, DWORD PTR _installation_file$[ebp]
  0010f	50		 push	 eax
  00110	8d 8d f8 f3 ff
	ff		 lea	 ecx, DWORD PTR _apache_havoc_installation_file$[ebp]
  00116	51		 push	 ecx
  00117	e8 00 00 00 00	 call	 _strcat
  0011c	83 c4 08	 add	 esp, 8

; 6619 : 
; 6620 : 			if (!file_exist (apache_havoc_installation_file))

  0011f	8d 85 f8 f3 ff
	ff		 lea	 eax, DWORD PTR _apache_havoc_installation_file$[ebp]
  00125	50		 push	 eax
  00126	e8 00 00 00 00	 call	 ?file_exist@@YGHPBD@Z	; file_exist
  0012b	85 c0		 test	 eax, eax
  0012d	75 1f		 jne	 SHORT $LN9@mopen_pre_

; 6621 : 			{
; 6622 : 				debug_colour_log (DEBUG_COLOUR_AMBER, "MOPEN: missing installed Apache Havoc file: %s", apache_havoc_installation_file);

  0012f	8d 85 f8 f3 ff
	ff		 lea	 eax, DWORD PTR _apache_havoc_installation_file$[ebp]
  00135	50		 push	 eax
  00136	68 00 00 00 00	 push	 OFFSET ??_C@_0CP@GKBFIAJL@MOPEN?3?5missing?5installed?5Apache@
  0013b	6a 17		 push	 23			; 00000017H
  0013d	e8 00 00 00 00	 call	 ?debug_colour_log@@YAXW4DEBUG_COLOURS@@PBDZZ ; debug_colour_log
  00142	83 c4 0c	 add	 esp, 12			; 0000000cH

; 6623 : 
; 6624 : 				failed = TRUE;

  00145	c7 45 f8 01 00
	00 00		 mov	 DWORD PTR _failed$[ebp], 1

; 6625 : 			}
; 6626 : 			else

  0014c	eb 16		 jmp	 SHORT $LN8@mopen_pre_
$LN9@mopen_pre_:

; 6627 : 			{
; 6628 : 				graphics_files[i].data = ( unsigned char * ) safe_mopen (apache_havoc_installation_file);

  0014e	8d 85 f8 f3 ff
	ff		 lea	 eax, DWORD PTR _apache_havoc_installation_file$[ebp]
  00154	50		 push	 eax
  00155	e8 00 00 00 00	 call	 ?safe_mopen@@YGPAXPBD@Z	; safe_mopen
  0015a	6b 4d fc 28	 imul	 ecx, DWORD PTR _i$[ebp], 40
  0015e	89 81 1c 00 00
	00		 mov	 DWORD PTR ?graphics_files@@3PAUFILE_DATA@@A[ecx+28], eax
$LN8@mopen_pre_:

; 6629 : 			}
; 6630 : 		}
; 6631 : 	}

  00164	e9 36 ff ff ff	 jmp	 $LN2@mopen_pre_
$LN3@mopen_pre_:

; 6632 : 
; 6633 : 	if (failed)

  00169	83 7d f8 00	 cmp	 DWORD PTR _failed$[ebp], 0
  0016d	74 1e		 je	 SHORT $LN1@mopen_pre_

; 6634 : 	{
; 6635 : 		mclose_pre_installed_apache_havoc_cockpit_graphics ();

  0016f	e8 00 00 00 00	 call	 ?mclose_pre_installed_apache_havoc_cockpit_graphics@@YGXXZ ; mclose_pre_installed_apache_havoc_cockpit_graphics

; 6636 : 
; 6637 : 		set_global_apache_havoc_installed (FALSE);

  00174	c7 05 60 03 00
	00 00 00 00 00	 mov	 DWORD PTR ?global_options@@3UGLOBAL_OPTIONS_DATA@@A+864, 0

; 6638 : 
; 6639 : 		debug_colour_log (DEBUG_COLOUR_AMBER, "Apache Havoc is NOT installed");

  0017e	68 00 00 00 00	 push	 OFFSET ??_C@_0BO@BAGKDBJF@Apache?5Havoc?5is?5NOT?5installed@
  00183	6a 17		 push	 23			; 00000017H
  00185	e8 00 00 00 00	 call	 ?debug_colour_log@@YAXW4DEBUG_COLOURS@@PBDZZ ; debug_colour_log
  0018a	83 c4 08	 add	 esp, 8
$LN1@mopen_pre_:

; 6640 : 	}
; 6641 : }

  0018d	5f		 pop	 edi
  0018e	5e		 pop	 esi
  0018f	5b		 pop	 ebx
  00190	8b e5		 mov	 esp, ebp
  00192	5d		 pop	 ebp
  00193	c3		 ret	 0
?mopen_pre_installed_apache_havoc_cockpit_graphics@@YGXXZ ENDP ; mopen_pre_installed_apache_havoc_cockpit_graphics
_TEXT	ENDS
; Function compile flags: /Odtp /ZI
; File c:\users\nhv90\projects\eech\aphavoc\source\gfxfiles.c
;	COMDAT ?mclose_pre_installed_apache_havoc_cockpit_graphics@@YGXXZ
_TEXT	SEGMENT
_apache_havoc_installation_file$ = -3076		; size = 2048
_installation_file$ = -1028				; size = 1024
_i$ = -4						; size = 4
?mclose_pre_installed_apache_havoc_cockpit_graphics@@YGXXZ PROC ; mclose_pre_installed_apache_havoc_cockpit_graphics, COMDAT

; 6547 : {

  00000	55		 push	 ebp
  00001	8b ec		 mov	 ebp, esp
  00003	81 ec c4 0d 00
	00		 sub	 esp, 3524		; 00000dc4H
  00009	53		 push	 ebx
  0000a	56		 push	 esi
  0000b	57		 push	 edi

; 6548 : 	int
; 6549 : 		i;
; 6550 : 
; 6551 : 	char
; 6552 : 		installation_file[1024],
; 6553 : 		apache_havoc_installation_file[2048];
; 6554 : 
; 6555 : // VJ 050118 aphavoc install hack
; 6556 : 	debug_assert (get_global_apache_havoc_installed ());

  0000c	83 3d 60 03 00
	00 00		 cmp	 DWORD PTR ?global_options@@3UGLOBAL_OPTIONS_DATA@@A+864, 0
  00013	75 20		 jne	 SHORT $LN5@mclose_pre
  00015	a1 00 00 00 00	 mov	 eax, DWORD PTR ?__LINE__Var@?0??mclose_pre_installed_apache_havoc_cockpit_graphics@@YGXXZ@4JA
  0001a	83 c0 09	 add	 eax, 9
  0001d	50		 push	 eax
  0001e	68 00 00 00 00	 push	 OFFSET ??_C@_0DH@KLGEFEIF@c?3?2users?2nhv90?2projects?2eech?2ap@
  00023	68 00 00 00 00	 push	 OFFSET ??_C@_0CF@FMFMFNHG@get_global_apache_havoc_install@
  00028	68 00 00 00 00	 push	 OFFSET ??_C@_0BC@PODNONFH@ASSERT?5?$CFs?5?$CI?$CFs?3?$CFd?$CJ@
  0002d	e8 00 00 00 00	 call	 ?debug_fatal@@YAXPBDZZ	; debug_fatal
  00032	83 c4 10	 add	 esp, 16			; 00000010H
$LN5@mclose_pre:

; 6557 : 
; 6558 : 	debug_assert (apache_havoc_installation_path_valid);

  00035	83 3d 00 00 00
	00 00		 cmp	 DWORD PTR ?apache_havoc_installation_path_valid@@3HA, 0 ; apache_havoc_installation_path_valid
  0003c	75 20		 jne	 SHORT $LN6@mclose_pre
  0003e	a1 00 00 00 00	 mov	 eax, DWORD PTR ?__LINE__Var@?0??mclose_pre_installed_apache_havoc_cockpit_graphics@@YGXXZ@4JA
  00043	83 c0 0b	 add	 eax, 11			; 0000000bH
  00046	50		 push	 eax
  00047	68 00 00 00 00	 push	 OFFSET ??_C@_0DH@KLGEFEIF@c?3?2users?2nhv90?2projects?2eech?2ap@
  0004c	68 00 00 00 00	 push	 OFFSET ??_C@_0CF@LLFGIEHL@apache_havoc_installation_path_@
  00051	68 00 00 00 00	 push	 OFFSET ??_C@_0BC@PODNONFH@ASSERT?5?$CFs?5?$CI?$CFs?3?$CFd?$CJ@
  00056	e8 00 00 00 00	 call	 ?debug_fatal@@YAXPBDZZ	; debug_fatal
  0005b	83 c4 10	 add	 esp, 16			; 00000010H
$LN6@mclose_pre:

; 6559 : 
; 6560 : 	debug_assert (strlen (apache_havoc_installation_path));

  0005e	68 00 00 00 00	 push	 OFFSET ?apache_havoc_installation_path@@3PADA ; apache_havoc_installation_path
  00063	e8 00 00 00 00	 call	 _strlen
  00068	83 c4 04	 add	 esp, 4
  0006b	85 c0		 test	 eax, eax
  0006d	75 20		 jne	 SHORT $LN7@mclose_pre
  0006f	a1 00 00 00 00	 mov	 eax, DWORD PTR ?__LINE__Var@?0??mclose_pre_installed_apache_havoc_cockpit_graphics@@YGXXZ@4JA
  00074	83 c0 0d	 add	 eax, 13			; 0000000dH
  00077	50		 push	 eax
  00078	68 00 00 00 00	 push	 OFFSET ??_C@_0DH@KLGEFEIF@c?3?2users?2nhv90?2projects?2eech?2ap@
  0007d	68 00 00 00 00	 push	 OFFSET ??_C@_0CI@DIEJLAON@strlen?5?$CIapache_havoc_installati@
  00082	68 00 00 00 00	 push	 OFFSET ??_C@_0BC@PODNONFH@ASSERT?5?$CFs?5?$CI?$CFs?3?$CFd?$CJ@
  00087	e8 00 00 00 00	 call	 ?debug_fatal@@YAXPBDZZ	; debug_fatal
  0008c	83 c4 10	 add	 esp, 16			; 00000010H
$LN7@mclose_pre:

; 6561 : 
; 6562 : 	for (i = 0; i < NUM_FILES; i++)

  0008f	c7 45 fc 00 00
	00 00		 mov	 DWORD PTR _i$[ebp], 0
  00096	eb 09		 jmp	 SHORT $LN4@mclose_pre
$LN2@mclose_pre:
  00098	8b 45 fc	 mov	 eax, DWORD PTR _i$[ebp]
  0009b	83 c0 01	 add	 eax, 1
  0009e	89 45 fc	 mov	 DWORD PTR _i$[ebp], eax
$LN4@mclose_pre:
  000a1	81 7d fc c9 01
	00 00		 cmp	 DWORD PTR _i$[ebp], 457	; 000001c9H
  000a8	0f 83 a7 00 00
	00		 jae	 $LN1@mclose_pre

; 6563 : 	{
; 6564 : 		if (graphics_files[i].required_for_apache_havoc_cockpits)

  000ae	6b 45 fc 28	 imul	 eax, DWORD PTR _i$[ebp], 40
  000b2	8b 88 24 00 00
	00		 mov	 ecx, DWORD PTR ?graphics_files@@3PAUFILE_DATA@@A[eax+36]
  000b8	c1 e9 02	 shr	 ecx, 2
  000bb	83 e1 01	 and	 ecx, 1
  000be	0f 84 8c 00 00
	00		 je	 $LN8@mclose_pre

; 6565 : 		{
; 6566 : 			get_installation_file_specifier (installation_file, &graphics_files[i]);

  000c4	6b 45 fc 28	 imul	 eax, DWORD PTR _i$[ebp], 40
  000c8	05 00 00 00 00	 add	 eax, OFFSET ?graphics_files@@3PAUFILE_DATA@@A ; graphics_files
  000cd	50		 push	 eax
  000ce	8d 8d fc fb ff
	ff		 lea	 ecx, DWORD PTR _installation_file$[ebp]
  000d4	51		 push	 ecx
  000d5	e8 00 00 00 00	 call	 ?get_installation_file_specifier@@YGPADPADPAUFILE_DATA@@@Z ; get_installation_file_specifier

; 6567 : 
; 6568 : 			strcpy (apache_havoc_installation_file, apache_havoc_installation_path);

  000da	68 00 00 00 00	 push	 OFFSET ?apache_havoc_installation_path@@3PADA ; apache_havoc_installation_path
  000df	8d 85 fc f3 ff
	ff		 lea	 eax, DWORD PTR _apache_havoc_installation_file$[ebp]
  000e5	50		 push	 eax
  000e6	e8 00 00 00 00	 call	 _strcpy
  000eb	83 c4 08	 add	 esp, 8

; 6569 : 
; 6570 : 			strcat (apache_havoc_installation_file, "\\aphavoc\\");

  000ee	68 00 00 00 00	 push	 OFFSET ??_C@_09GKKMLOFO@?2aphavoc?2@
  000f3	8d 85 fc f3 ff
	ff		 lea	 eax, DWORD PTR _apache_havoc_installation_file$[ebp]
  000f9	50		 push	 eax
  000fa	e8 00 00 00 00	 call	 _strcat
  000ff	83 c4 08	 add	 esp, 8

; 6571 : 
; 6572 : 			strcat (apache_havoc_installation_file, installation_file);

  00102	8d 85 fc fb ff
	ff		 lea	 eax, DWORD PTR _installation_file$[ebp]
  00108	50		 push	 eax
  00109	8d 8d fc f3 ff
	ff		 lea	 ecx, DWORD PTR _apache_havoc_installation_file$[ebp]
  0010f	51		 push	 ecx
  00110	e8 00 00 00 00	 call	 _strcat
  00115	83 c4 08	 add	 esp, 8

; 6573 : 
; 6574 : 			if (!file_exist (apache_havoc_installation_file))

  00118	8d 85 fc f3 ff
	ff		 lea	 eax, DWORD PTR _apache_havoc_installation_file$[ebp]
  0011e	50		 push	 eax
  0011f	e8 00 00 00 00	 call	 ?file_exist@@YGHPBD@Z	; file_exist
  00124	85 c0		 test	 eax, eax
  00126	75 18		 jne	 SHORT $LN9@mclose_pre

; 6575 : 			{
; 6576 : 				debug_colour_log (DEBUG_COLOUR_AMBER, "MCLOSE: missing installed Apache Havoc file: %s", apache_havoc_installation_file);

  00128	8d 85 fc f3 ff
	ff		 lea	 eax, DWORD PTR _apache_havoc_installation_file$[ebp]
  0012e	50		 push	 eax
  0012f	68 00 00 00 00	 push	 OFFSET ??_C@_0DA@GLKLPOAJ@MCLOSE?3?5missing?5installed?5Apach@
  00134	6a 17		 push	 23			; 00000017H
  00136	e8 00 00 00 00	 call	 ?debug_colour_log@@YAXW4DEBUG_COLOURS@@PBDZZ ; debug_colour_log
  0013b	83 c4 0c	 add	 esp, 12			; 0000000cH

; 6577 : 			}
; 6578 : 			else

  0013e	eb 10		 jmp	 SHORT $LN8@mclose_pre
$LN9@mclose_pre:

; 6579 : 			{
; 6580 : 				safe_mclose (graphics_files[i].data);

  00140	6b 45 fc 28	 imul	 eax, DWORD PTR _i$[ebp], 40
  00144	8b 88 1c 00 00
	00		 mov	 ecx, DWORD PTR ?graphics_files@@3PAUFILE_DATA@@A[eax+28]
  0014a	51		 push	 ecx
  0014b	e8 00 00 00 00	 call	 ?safe_mclose@@YGHPAX@Z	; safe_mclose
$LN8@mclose_pre:

; 6581 : 			}
; 6582 : 		}
; 6583 : 	}

  00150	e9 43 ff ff ff	 jmp	 $LN2@mclose_pre
$LN1@mclose_pre:

; 6584 : }

  00155	5f		 pop	 edi
  00156	5e		 pop	 esi
  00157	5b		 pop	 ebx
  00158	8b e5		 mov	 esp, ebp
  0015a	5d		 pop	 ebp
  0015b	c3		 ret	 0
?mclose_pre_installed_apache_havoc_cockpit_graphics@@YGXXZ ENDP ; mclose_pre_installed_apache_havoc_cockpit_graphics
_TEXT	ENDS
; Function compile flags: /Odtp /ZI
; File c:\users\nhv90\projects\eech\aphavoc\source\gfxfiles.c
;	COMDAT ?get_file_required@@YGHH@Z
_TEXT	SEGMENT
_index$ = 8						; size = 4
?get_file_required@@YGHH@Z PROC				; get_file_required, COMDAT

; 6280 : {

  00000	55		 push	 ebp
  00001	8b ec		 mov	 ebp, esp
  00003	83 ec 40	 sub	 esp, 64			; 00000040H
  00006	53		 push	 ebx
  00007	56		 push	 esi
  00008	57		 push	 edi

; 6281 : 	if (!graphics_files[index].required_for_comanche_hokum)

  00009	6b 45 08 28	 imul	 eax, DWORD PTR _index$[ebp], 40
  0000d	8b 88 24 00 00
	00		 mov	 ecx, DWORD PTR ?graphics_files@@3PAUFILE_DATA@@A[eax+36]
  00013	d1 e9		 shr	 ecx, 1
  00015	83 e1 01	 and	 ecx, 1
  00018	75 04		 jne	 SHORT $LN2@get_file_r

; 6282 : 	{
; 6283 : 		return (FALSE);

  0001a	33 c0		 xor	 eax, eax
  0001c	eb 18		 jmp	 SHORT $LN1@get_file_r
$LN2@get_file_r:

; 6284 : 	}
; 6285 : 
; 6286 : 	if (DEMO_VERSION)

  0001e	33 c0		 xor	 eax, eax
  00020	74 0f		 je	 SHORT $LN3@get_file_r

; 6287 : 	{
; 6288 : 		return (graphics_files[index].required_for_demo);

  00022	6b 45 08 28	 imul	 eax, DWORD PTR _index$[ebp], 40
  00026	8b 80 24 00 00
	00		 mov	 eax, DWORD PTR ?graphics_files@@3PAUFILE_DATA@@A[eax+36]
  0002c	83 e0 01	 and	 eax, 1
  0002f	eb 05		 jmp	 SHORT $LN1@get_file_r
$LN3@get_file_r:

; 6289 : 	}
; 6290 : 
; 6291 : 	return (TRUE);

  00031	b8 01 00 00 00	 mov	 eax, 1
$LN1@get_file_r:

; 6292 : }

  00036	5f		 pop	 edi
  00037	5e		 pop	 esi
  00038	5b		 pop	 ebx
  00039	8b e5		 mov	 esp, ebp
  0003b	5d		 pop	 ebp
  0003c	c2 04 00	 ret	 4
?get_file_required@@YGHH@Z ENDP				; get_file_required
_TEXT	ENDS
; Function compile flags: /Odtp /ZI
; File c:\users\nhv90\projects\eech\aphavoc\source\gfxfiles.c
;	COMDAT ?get_installation_file_specifier@@YGPADPADPAUFILE_DATA@@@Z
_TEXT	SEGMENT
_file_specifier$ = 8					; size = 4
_file$ = 12						; size = 4
?get_installation_file_specifier@@YGPADPADPAUFILE_DATA@@@Z PROC ; get_installation_file_specifier, COMDAT

; 6787 : {

  00000	55		 push	 ebp
  00001	8b ec		 mov	 ebp, esp
  00003	83 ec 40	 sub	 esp, 64			; 00000040H
  00006	53		 push	 ebx
  00007	56		 push	 esi
  00008	57		 push	 edi

; 6788 : 	file_specifier = strcpy (file_specifier, installation_path_names[file->path_name]);

  00009	8b 45 0c	 mov	 eax, DWORD PTR _file$[ebp]
  0000c	8b 08		 mov	 ecx, DWORD PTR [eax]
  0000e	8b 14 8d 00 00
	00 00		 mov	 edx, DWORD PTR ?installation_path_names@@3PAPBDA[ecx*4]
  00015	52		 push	 edx
  00016	8b 45 08	 mov	 eax, DWORD PTR _file_specifier$[ebp]
  00019	50		 push	 eax
  0001a	e8 00 00 00 00	 call	 _strcpy
  0001f	83 c4 08	 add	 esp, 8
  00022	89 45 08	 mov	 DWORD PTR _file_specifier$[ebp], eax

; 6789 : 
; 6790 : 	file_specifier = strcat (file_specifier, file->file_name);

  00025	8b 45 0c	 mov	 eax, DWORD PTR _file$[ebp]
  00028	83 c0 04	 add	 eax, 4
  0002b	50		 push	 eax
  0002c	8b 4d 08	 mov	 ecx, DWORD PTR _file_specifier$[ebp]
  0002f	51		 push	 ecx
  00030	e8 00 00 00 00	 call	 _strcat
  00035	83 c4 08	 add	 esp, 8
  00038	89 45 08	 mov	 DWORD PTR _file_specifier$[ebp], eax

; 6791 : 
; 6792 : 	file_specifier = strcat (file_specifier, ".");

  0003b	68 00 00 00 00	 push	 OFFSET ??_C@_01LFCBOECM@?4@
  00040	8b 45 08	 mov	 eax, DWORD PTR _file_specifier$[ebp]
  00043	50		 push	 eax
  00044	e8 00 00 00 00	 call	 _strcat
  00049	83 c4 08	 add	 esp, 8
  0004c	89 45 08	 mov	 DWORD PTR _file_specifier$[ebp], eax

; 6793 : 
; 6794 : 	file_specifier = strcat (file_specifier, file->installation_extension);

  0004f	8b 45 0c	 mov	 eax, DWORD PTR _file$[ebp]
  00052	83 c0 11	 add	 eax, 17			; 00000011H
  00055	50		 push	 eax
  00056	8b 4d 08	 mov	 ecx, DWORD PTR _file_specifier$[ebp]
  00059	51		 push	 ecx
  0005a	e8 00 00 00 00	 call	 _strcat
  0005f	83 c4 08	 add	 esp, 8
  00062	89 45 08	 mov	 DWORD PTR _file_specifier$[ebp], eax

; 6795 : 
; 6796 : 	return (file_specifier);

  00065	8b 45 08	 mov	 eax, DWORD PTR _file_specifier$[ebp]

; 6797 : }

  00068	5f		 pop	 edi
  00069	5e		 pop	 esi
  0006a	5b		 pop	 ebx
  0006b	8b e5		 mov	 esp, ebp
  0006d	5d		 pop	 ebp
  0006e	c2 08 00	 ret	 8
?get_installation_file_specifier@@YGPADPADPAUFILE_DATA@@@Z ENDP ; get_installation_file_specifier
_TEXT	ENDS
; Function compile flags: /Odtp /ZI
; File c:\users\nhv90\projects\eech\aphavoc\source\gfxfiles.c
;	COMDAT ?get_local_distribution_file_specifier@@YGPADPADPAUFILE_DATA@@@Z
_TEXT	SEGMENT
_file_specifier$ = 8					; size = 4
_file$ = 12						; size = 4
?get_local_distribution_file_specifier@@YGPADPADPAUFILE_DATA@@@Z PROC ; get_local_distribution_file_specifier, COMDAT

; 6770 : {

  00000	55		 push	 ebp
  00001	8b ec		 mov	 ebp, esp
  00003	83 ec 40	 sub	 esp, 64			; 00000040H
  00006	53		 push	 ebx
  00007	56		 push	 esi
  00008	57		 push	 edi

; 6771 : 	file_specifier = strcpy (file_specifier, installation_path_names[file->path_name]);

  00009	8b 45 0c	 mov	 eax, DWORD PTR _file$[ebp]
  0000c	8b 08		 mov	 ecx, DWORD PTR [eax]
  0000e	8b 14 8d 00 00
	00 00		 mov	 edx, DWORD PTR ?installation_path_names@@3PAPBDA[ecx*4]
  00015	52		 push	 edx
  00016	8b 45 08	 mov	 eax, DWORD PTR _file_specifier$[ebp]
  00019	50		 push	 eax
  0001a	e8 00 00 00 00	 call	 _strcpy
  0001f	83 c4 08	 add	 esp, 8
  00022	89 45 08	 mov	 DWORD PTR _file_specifier$[ebp], eax

; 6772 : 
; 6773 : 	file_specifier = strcat (file_specifier, file->file_name);

  00025	8b 45 0c	 mov	 eax, DWORD PTR _file$[ebp]
  00028	83 c0 04	 add	 eax, 4
  0002b	50		 push	 eax
  0002c	8b 4d 08	 mov	 ecx, DWORD PTR _file_specifier$[ebp]
  0002f	51		 push	 ecx
  00030	e8 00 00 00 00	 call	 _strcat
  00035	83 c4 08	 add	 esp, 8
  00038	89 45 08	 mov	 DWORD PTR _file_specifier$[ebp], eax

; 6774 : 
; 6775 : 	file_specifier = strcat (file_specifier, ".");

  0003b	68 00 00 00 00	 push	 OFFSET ??_C@_01LFCBOECM@?4@
  00040	8b 45 08	 mov	 eax, DWORD PTR _file_specifier$[ebp]
  00043	50		 push	 eax
  00044	e8 00 00 00 00	 call	 _strcat
  00049	83 c4 08	 add	 esp, 8
  0004c	89 45 08	 mov	 DWORD PTR _file_specifier$[ebp], eax

; 6776 : 
; 6777 : 	file_specifier = strcat (file_specifier, file->distribution_extension);

  0004f	8b 45 0c	 mov	 eax, DWORD PTR _file$[ebp]
  00052	83 c0 0d	 add	 eax, 13			; 0000000dH
  00055	50		 push	 eax
  00056	8b 4d 08	 mov	 ecx, DWORD PTR _file_specifier$[ebp]
  00059	51		 push	 ecx
  0005a	e8 00 00 00 00	 call	 _strcat
  0005f	83 c4 08	 add	 esp, 8
  00062	89 45 08	 mov	 DWORD PTR _file_specifier$[ebp], eax

; 6778 : 
; 6779 : 	return (file_specifier);

  00065	8b 45 08	 mov	 eax, DWORD PTR _file_specifier$[ebp]

; 6780 : }

  00068	5f		 pop	 edi
  00069	5e		 pop	 esi
  0006a	5b		 pop	 ebx
  0006b	8b e5		 mov	 esp, ebp
  0006d	5d		 pop	 ebp
  0006e	c2 08 00	 ret	 8
?get_local_distribution_file_specifier@@YGPADPADPAUFILE_DATA@@@Z ENDP ; get_local_distribution_file_specifier
_TEXT	ENDS
; Function compile flags: /Odtp /ZI
; File c:\users\nhv90\projects\eech\aphavoc\source\gfxfiles.c
;	COMDAT ?get_distribution_file_specifier@@YGPADPADPAUFILE_DATA@@@Z
_TEXT	SEGMENT
_file_specifier$ = 8					; size = 4
_file$ = 12						; size = 4
?get_distribution_file_specifier@@YGPADPADPAUFILE_DATA@@@Z PROC ; get_distribution_file_specifier, COMDAT

; 6749 : {

  00000	55		 push	 ebp
  00001	8b ec		 mov	 ebp, esp
  00003	83 ec 40	 sub	 esp, 64			; 00000040H
  00006	53		 push	 ebx
  00007	56		 push	 esi
  00008	57		 push	 edi

; 6750 : 	file_specifier[0] = cdrom_drive_letter;

  00009	b8 01 00 00 00	 mov	 eax, 1
  0000e	6b c8 00	 imul	 ecx, eax, 0
  00011	8b 55 08	 mov	 edx, DWORD PTR _file_specifier$[ebp]
  00014	a0 00 00 00 00	 mov	 al, BYTE PTR ?cdrom_drive_letter@@3HA
  00019	88 04 0a	 mov	 BYTE PTR [edx+ecx], al

; 6751 : 	file_specifier[1] = ':';

  0001c	b8 01 00 00 00	 mov	 eax, 1
  00021	c1 e0 00	 shl	 eax, 0
  00024	8b 4d 08	 mov	 ecx, DWORD PTR _file_specifier$[ebp]
  00027	c6 04 01 3a	 mov	 BYTE PTR [ecx+eax], 58	; 0000003aH

; 6752 : 	file_specifier[2] = '\0';

  0002b	b8 01 00 00 00	 mov	 eax, 1
  00030	d1 e0		 shl	 eax, 1
  00032	8b 4d 08	 mov	 ecx, DWORD PTR _file_specifier$[ebp]
  00035	c6 04 01 00	 mov	 BYTE PTR [ecx+eax], 0

; 6753 : 
; 6754 : 	file_specifier = strcat (file_specifier, distribution_path_names[file->path_name]);

  00039	8b 45 0c	 mov	 eax, DWORD PTR _file$[ebp]
  0003c	8b 08		 mov	 ecx, DWORD PTR [eax]
  0003e	8b 14 8d 00 00
	00 00		 mov	 edx, DWORD PTR ?distribution_path_names@@3PAPBDA[ecx*4]
  00045	52		 push	 edx
  00046	8b 45 08	 mov	 eax, DWORD PTR _file_specifier$[ebp]
  00049	50		 push	 eax
  0004a	e8 00 00 00 00	 call	 _strcat
  0004f	83 c4 08	 add	 esp, 8
  00052	89 45 08	 mov	 DWORD PTR _file_specifier$[ebp], eax

; 6755 : 
; 6756 : 	file_specifier = strcat (file_specifier, file->file_name);

  00055	8b 45 0c	 mov	 eax, DWORD PTR _file$[ebp]
  00058	83 c0 04	 add	 eax, 4
  0005b	50		 push	 eax
  0005c	8b 4d 08	 mov	 ecx, DWORD PTR _file_specifier$[ebp]
  0005f	51		 push	 ecx
  00060	e8 00 00 00 00	 call	 _strcat
  00065	83 c4 08	 add	 esp, 8
  00068	89 45 08	 mov	 DWORD PTR _file_specifier$[ebp], eax

; 6757 : 
; 6758 : 	file_specifier = strcat (file_specifier, ".");

  0006b	68 00 00 00 00	 push	 OFFSET ??_C@_01LFCBOECM@?4@
  00070	8b 45 08	 mov	 eax, DWORD PTR _file_specifier$[ebp]
  00073	50		 push	 eax
  00074	e8 00 00 00 00	 call	 _strcat
  00079	83 c4 08	 add	 esp, 8
  0007c	89 45 08	 mov	 DWORD PTR _file_specifier$[ebp], eax

; 6759 : 
; 6760 : 	file_specifier = strcat (file_specifier, file->distribution_extension);

  0007f	8b 45 0c	 mov	 eax, DWORD PTR _file$[ebp]
  00082	83 c0 0d	 add	 eax, 13			; 0000000dH
  00085	50		 push	 eax
  00086	8b 4d 08	 mov	 ecx, DWORD PTR _file_specifier$[ebp]
  00089	51		 push	 ecx
  0008a	e8 00 00 00 00	 call	 _strcat
  0008f	83 c4 08	 add	 esp, 8
  00092	89 45 08	 mov	 DWORD PTR _file_specifier$[ebp], eax

; 6761 : 
; 6762 : 	return (file_specifier);

  00095	8b 45 08	 mov	 eax, DWORD PTR _file_specifier$[ebp]

; 6763 : }

  00098	5f		 pop	 edi
  00099	5e		 pop	 esi
  0009a	5b		 pop	 ebx
  0009b	8b e5		 mov	 esp, ebp
  0009d	5d		 pop	 ebp
  0009e	c2 08 00	 ret	 8
?get_distribution_file_specifier@@YGPADPADPAUFILE_DATA@@@Z ENDP ; get_distribution_file_specifier
_TEXT	ENDS
; Function compile flags: /Odtp /ZI
; File c:\users\nhv90\projects\eech\aphavoc\source\gfxfiles.c
;	COMDAT ?mclose_all_graphics_files@@YGXXZ
_TEXT	SEGMENT
_i$ = -4						; size = 4
?mclose_all_graphics_files@@YGXXZ PROC			; mclose_all_graphics_files, COMDAT

; 6682 : {

  00000	55		 push	 ebp
  00001	8b ec		 mov	 ebp, esp
  00003	83 ec 44	 sub	 esp, 68			; 00000044H
  00006	53		 push	 ebx
  00007	56		 push	 esi
  00008	57		 push	 edi

; 6683 : 	int
; 6684 : 		i;
; 6685 : 
; 6686 : 	for (i = 0; i < NUM_FILES; i++)

  00009	c7 45 fc 00 00
	00 00		 mov	 DWORD PTR _i$[ebp], 0
  00010	eb 09		 jmp	 SHORT $LN4@mclose_all
$LN2@mclose_all:
  00012	8b 45 fc	 mov	 eax, DWORD PTR _i$[ebp]
  00015	83 c0 01	 add	 eax, 1
  00018	89 45 fc	 mov	 DWORD PTR _i$[ebp], eax
$LN4@mclose_all:
  0001b	81 7d fc c9 01
	00 00		 cmp	 DWORD PTR _i$[ebp], 457	; 000001c9H
  00022	73 1f		 jae	 SHORT $LN3@mclose_all

; 6687 : 	{
; 6688 : 		if (get_file_required (i))

  00024	8b 45 fc	 mov	 eax, DWORD PTR _i$[ebp]
  00027	50		 push	 eax
  00028	e8 00 00 00 00	 call	 ?get_file_required@@YGHH@Z ; get_file_required
  0002d	85 c0		 test	 eax, eax
  0002f	74 10		 je	 SHORT $LN5@mclose_all

; 6689 : 		{
; 6690 : 			safe_mclose (graphics_files[i].data);

  00031	6b 45 fc 28	 imul	 eax, DWORD PTR _i$[ebp], 40
  00035	8b 88 1c 00 00
	00		 mov	 ecx, DWORD PTR ?graphics_files@@3PAUFILE_DATA@@A[eax+28]
  0003b	51		 push	 ecx
  0003c	e8 00 00 00 00	 call	 ?safe_mclose@@YGHPAX@Z	; safe_mclose
$LN5@mclose_all:

; 6691 : 		}
; 6692 : 	}

  00041	eb cf		 jmp	 SHORT $LN2@mclose_all
$LN3@mclose_all:

; 6693 : 
; 6694 : 	if (get_global_apache_havoc_installed ())

  00043	83 3d 60 03 00
	00 00		 cmp	 DWORD PTR ?global_options@@3UGLOBAL_OPTIONS_DATA@@A+864, 0
  0004a	74 05		 je	 SHORT $LN1@mclose_all

; 6695 : 	{
; 6696 : 		mclose_pre_installed_apache_havoc_cockpit_graphics ();

  0004c	e8 00 00 00 00	 call	 ?mclose_pre_installed_apache_havoc_cockpit_graphics@@YGXXZ ; mclose_pre_installed_apache_havoc_cockpit_graphics
$LN1@mclose_all:

; 6697 : 	}
; 6698 : }

  00051	5f		 pop	 edi
  00052	5e		 pop	 esi
  00053	5b		 pop	 ebx
  00054	8b e5		 mov	 esp, ebp
  00056	5d		 pop	 ebp
  00057	c3		 ret	 0
?mclose_all_graphics_files@@YGXXZ ENDP			; mclose_all_graphics_files
_TEXT	ENDS
; Function compile flags: /Odtp /ZI
; File c:\users\nhv90\projects\eech\aphavoc\source\gfxfiles.c
;	COMDAT ?mopen_all_graphics_files@@YGXH@Z
_TEXT	SEGMENT
_i$ = -204						; size = 4
_installation_file$ = -200				; size = 200
_pass_conversion$ = 8					; size = 4
?mopen_all_graphics_files@@YGXH@Z PROC			; mopen_all_graphics_files, COMDAT

; 6648 : {

  00000	55		 push	 ebp
  00001	8b ec		 mov	 ebp, esp
  00003	81 ec 0c 01 00
	00		 sub	 esp, 268		; 0000010cH
  00009	53		 push	 ebx
  0000a	56		 push	 esi
  0000b	57		 push	 edi

; 6649 : 	char
; 6650 : 		installation_file[200];
; 6651 : 
; 6652 : 	int
; 6653 : 		i;
; 6654 : 
; 6655 : 	for (i = 0; i < NUM_FILES; i++)

  0000c	c7 85 34 ff ff
	ff 00 00 00 00	 mov	 DWORD PTR _i$[ebp], 0
  00016	eb 0f		 jmp	 SHORT $LN4@mopen_all_
$LN2@mopen_all_:
  00018	8b 85 34 ff ff
	ff		 mov	 eax, DWORD PTR _i$[ebp]
  0001e	83 c0 01	 add	 eax, 1
  00021	89 85 34 ff ff
	ff		 mov	 DWORD PTR _i$[ebp], eax
$LN4@mopen_all_:
  00027	81 bd 34 ff ff
	ff c9 01 00 00	 cmp	 DWORD PTR _i$[ebp], 457	; 000001c9H
  00031	73 56		 jae	 SHORT $LN3@mopen_all_

; 6656 : 	{
; 6657 : 		if (get_file_required (i))

  00033	8b 85 34 ff ff
	ff		 mov	 eax, DWORD PTR _i$[ebp]
  00039	50		 push	 eax
  0003a	e8 00 00 00 00	 call	 ?get_file_required@@YGHH@Z ; get_file_required
  0003f	85 c0		 test	 eax, eax
  00041	74 44		 je	 SHORT $LN5@mopen_all_

; 6658 : 		{
; 6659 : 			if (graphics_files[i].first_pass_conversion == pass_conversion)

  00043	6b 85 34 ff ff
	ff 28		 imul	 eax, DWORD PTR _i$[ebp], 40
  0004a	8b 88 20 00 00
	00		 mov	 ecx, DWORD PTR ?graphics_files@@3PAUFILE_DATA@@A[eax+32]
  00050	3b 4d 08	 cmp	 ecx, DWORD PTR _pass_conversion$[ebp]
  00053	75 32		 jne	 SHORT $LN5@mopen_all_

; 6660 : 			{
; 6661 : 				get_installation_file_specifier (installation_file, &graphics_files[i]);

  00055	6b 85 34 ff ff
	ff 28		 imul	 eax, DWORD PTR _i$[ebp], 40
  0005c	05 00 00 00 00	 add	 eax, OFFSET ?graphics_files@@3PAUFILE_DATA@@A ; graphics_files
  00061	50		 push	 eax
  00062	8d 8d 38 ff ff
	ff		 lea	 ecx, DWORD PTR _installation_file$[ebp]
  00068	51		 push	 ecx
  00069	e8 00 00 00 00	 call	 ?get_installation_file_specifier@@YGPADPADPAUFILE_DATA@@@Z ; get_installation_file_specifier

; 6662 : 
; 6663 : 				graphics_files[i].data = ( unsigned char * ) safe_mopen (installation_file);

  0006e	8d 85 38 ff ff
	ff		 lea	 eax, DWORD PTR _installation_file$[ebp]
  00074	50		 push	 eax
  00075	e8 00 00 00 00	 call	 ?safe_mopen@@YGPAXPBD@Z	; safe_mopen
  0007a	6b 8d 34 ff ff
	ff 28		 imul	 ecx, DWORD PTR _i$[ebp], 40
  00081	89 81 1c 00 00
	00		 mov	 DWORD PTR ?graphics_files@@3PAUFILE_DATA@@A[ecx+28], eax
$LN5@mopen_all_:

; 6664 : 			}
; 6665 : 		}
; 6666 : 	}

  00087	eb 8f		 jmp	 SHORT $LN2@mopen_all_
$LN3@mopen_all_:

; 6667 : 
; 6668 : 	if (pass_conversion == GRAPHICS_CONVERSION_SECOND_PASS)

  00089	83 7d 08 01	 cmp	 DWORD PTR _pass_conversion$[ebp], 1
  0008d	75 0e		 jne	 SHORT $LN1@mopen_all_

; 6669 : 	{
; 6670 : 		if (get_global_apache_havoc_installed ())

  0008f	83 3d 60 03 00
	00 00		 cmp	 DWORD PTR ?global_options@@3UGLOBAL_OPTIONS_DATA@@A+864, 0
  00096	74 05		 je	 SHORT $LN1@mopen_all_

; 6671 : 		{
; 6672 : 			mopen_pre_installed_apache_havoc_cockpit_graphics ();

  00098	e8 00 00 00 00	 call	 ?mopen_pre_installed_apache_havoc_cockpit_graphics@@YGXXZ ; mopen_pre_installed_apache_havoc_cockpit_graphics
$LN1@mopen_all_:

; 6673 : 		}
; 6674 : 	}
; 6675 : }

  0009d	5f		 pop	 edi
  0009e	5e		 pop	 esi
  0009f	5b		 pop	 ebx
  000a0	8b e5		 mov	 esp, ebp
  000a2	5d		 pop	 ebp
  000a3	c2 04 00	 ret	 4
?mopen_all_graphics_files@@YGXH@Z ENDP			; mopen_all_graphics_files
_TEXT	ENDS
; Function compile flags: /Odtp /ZI
; File c:\users\nhv90\projects\eech\aphavoc\source\gfxfiles.c
;	COMDAT ?uninstall_graphics_files@@YGXXZ
_TEXT	SEGMENT
_fn$1 = -1232						; size = 1024
_failed$ = -208						; size = 4
_i$ = -204						; size = 4
_installation_file$ = -200				; size = 200
?uninstall_graphics_files@@YGXXZ PROC			; uninstall_graphics_files, COMDAT

; 6491 : {

  00000	55		 push	 ebp
  00001	8b ec		 mov	 ebp, esp
  00003	81 ec 90 05 00
	00		 sub	 esp, 1424		; 00000590H
  00009	53		 push	 ebx
  0000a	56		 push	 esi
  0000b	57		 push	 edi

; 6492 : 	char
; 6493 : 		installation_file[200];
; 6494 : 
; 6495 : 	int
; 6496 : 		i,
; 6497 : 		failed;
; 6498 : 
; 6499 : 	debug_log ("Uninstalling graphics files ...");

  0000c	68 00 00 00 00	 push	 OFFSET ??_C@_0CA@IHGACJH@Uninstalling?5graphics?5files?5?4?4?4@
  00011	e8 00 00 00 00	 call	 ?debug_log@@YAXPBDZZ	; debug_log
  00016	83 c4 04	 add	 esp, 4

; 6500 : 
; 6501 : 	for (i = 0; i < NUM_FILES; i++)

  00019	c7 85 34 ff ff
	ff 00 00 00 00	 mov	 DWORD PTR _i$[ebp], 0
  00023	eb 0f		 jmp	 SHORT $LN4@uninstall_
$LN2@uninstall_:
  00025	8b 85 34 ff ff
	ff		 mov	 eax, DWORD PTR _i$[ebp]
  0002b	83 c0 01	 add	 eax, 1
  0002e	89 85 34 ff ff
	ff		 mov	 DWORD PTR _i$[ebp], eax
$LN4@uninstall_:
  00034	81 bd 34 ff ff
	ff c9 01 00 00	 cmp	 DWORD PTR _i$[ebp], 457	; 000001c9H
  0003e	0f 83 5b 01 00
	00		 jae	 $LN3@uninstall_

; 6502 : 	{
; 6503 : 		if (get_file_required (i))

  00044	8b 85 34 ff ff
	ff		 mov	 eax, DWORD PTR _i$[ebp]
  0004a	50		 push	 eax
  0004b	e8 00 00 00 00	 call	 ?get_file_required@@YGHH@Z ; get_file_required
  00050	85 c0		 test	 eax, eax
  00052	0f 84 42 01 00
	00		 je	 $LN5@uninstall_

; 6504 : 		{
; 6505 : 			get_installation_file_specifier (installation_file, &graphics_files[i]);

  00058	6b 85 34 ff ff
	ff 28		 imul	 eax, DWORD PTR _i$[ebp], 40
  0005f	05 00 00 00 00	 add	 eax, OFFSET ?graphics_files@@3PAUFILE_DATA@@A ; graphics_files
  00064	50		 push	 eax
  00065	8d 8d 38 ff ff
	ff		 lea	 ecx, DWORD PTR _installation_file$[ebp]
  0006b	51		 push	 ecx
  0006c	e8 00 00 00 00	 call	 ?get_installation_file_specifier@@YGPADPADPAUFILE_DATA@@@Z ; get_installation_file_specifier

; 6506 : 
; 6507 : 			if (file_exist (installation_file))

  00071	8d 85 38 ff ff
	ff		 lea	 eax, DWORD PTR _installation_file$[ebp]
  00077	50		 push	 eax
  00078	e8 00 00 00 00	 call	 ?file_exist@@YGHPBD@Z	; file_exist
  0007d	85 c0		 test	 eax, eax
  0007f	0f 84 15 01 00
	00		 je	 $LN5@uninstall_

; 6508 : 			{
; 6509 : 				failed = unlink (installation_file);

  00085	8d 85 38 ff ff
	ff		 lea	 eax, DWORD PTR _installation_file$[ebp]
  0008b	50		 push	 eax
  0008c	ff 15 00 00 00
	00		 call	 DWORD PTR __imp___unlink
  00092	83 c4 04	 add	 esp, 4
  00095	89 85 30 ff ff
	ff		 mov	 DWORD PTR _failed$[ebp], eax

; 6510 : 
; 6511 : 				// JB 030311 Enable running out of separate directories
; 6512 : 				if (failed)

  0009b	83 bd 30 ff ff
	ff 00		 cmp	 DWORD PTR _failed$[ebp], 0
  000a2	0f 84 f2 00 00
	00		 je	 $LN5@uninstall_

; 6513 : 				{
; 6514 : 					char fn[1024];
; 6515 : 					fn[0] = 0;

  000a8	b8 01 00 00 00	 mov	 eax, 1
  000ad	6b c8 00	 imul	 ecx, eax, 0
  000b0	c6 84 0d 30 fb
	ff ff 00	 mov	 BYTE PTR _fn$1[ebp+ecx], 0

; 6516 : 					strcpy(fn, comanche_hokum_installation_path);

  000b8	68 00 00 00 00	 push	 OFFSET ?comanche_hokum_installation_path@@3PADA ; comanche_hokum_installation_path
  000bd	8d 85 30 fb ff
	ff		 lea	 eax, DWORD PTR _fn$1[ebp]
  000c3	50		 push	 eax
  000c4	e8 00 00 00 00	 call	 _strcpy
  000c9	83 c4 08	 add	 esp, 8

; 6517 : 					strcat(fn, "\\cohokum\\");

  000cc	68 00 00 00 00	 push	 OFFSET ??_C@_09HGIBBNON@?2cohokum?2@
  000d1	8d 85 30 fb ff
	ff		 lea	 eax, DWORD PTR _fn$1[ebp]
  000d7	50		 push	 eax
  000d8	e8 00 00 00 00	 call	 _strcat
  000dd	83 c4 08	 add	 esp, 8

; 6518 : 					strcat(fn, installation_file);

  000e0	8d 85 38 ff ff
	ff		 lea	 eax, DWORD PTR _installation_file$[ebp]
  000e6	50		 push	 eax
  000e7	8d 8d 30 fb ff
	ff		 lea	 ecx, DWORD PTR _fn$1[ebp]
  000ed	51		 push	 ecx
  000ee	e8 00 00 00 00	 call	 _strcat
  000f3	83 c4 08	 add	 esp, 8

; 6519 : 
; 6520 : 					failed = unlink (fn);

  000f6	8d 85 30 fb ff
	ff		 lea	 eax, DWORD PTR _fn$1[ebp]
  000fc	50		 push	 eax
  000fd	ff 15 00 00 00
	00		 call	 DWORD PTR __imp___unlink
  00103	83 c4 04	 add	 esp, 4
  00106	89 85 30 ff ff
	ff		 mov	 DWORD PTR _failed$[ebp], eax

; 6521 : 					
; 6522 : 					if (failed)

  0010c	83 bd 30 ff ff
	ff 00		 cmp	 DWORD PTR _failed$[ebp], 0
  00113	0f 84 81 00 00
	00		 je	 $LN5@uninstall_

; 6523 : 					{
; 6524 : 						fn[0] = 0;

  00119	b8 01 00 00 00	 mov	 eax, 1
  0011e	6b c8 00	 imul	 ecx, eax, 0
  00121	c6 84 0d 30 fb
	ff ff 00	 mov	 BYTE PTR _fn$1[ebp+ecx], 0

; 6525 : 						strcpy(fn, comanche_hokum_installation_path);

  00129	68 00 00 00 00	 push	 OFFSET ?comanche_hokum_installation_path@@3PADA ; comanche_hokum_installation_path
  0012e	8d 85 30 fb ff
	ff		 lea	 eax, DWORD PTR _fn$1[ebp]
  00134	50		 push	 eax
  00135	e8 00 00 00 00	 call	 _strcpy
  0013a	83 c4 08	 add	 esp, 8

; 6526 : 						strcat(fn, "\\common\\");

  0013d	68 00 00 00 00	 push	 OFFSET ??_C@_08EMMAHODI@?2common?2@
  00142	8d 85 30 fb ff
	ff		 lea	 eax, DWORD PTR _fn$1[ebp]
  00148	50		 push	 eax
  00149	e8 00 00 00 00	 call	 _strcat
  0014e	83 c4 08	 add	 esp, 8

; 6527 : 						strcat(fn, installation_file);

  00151	8d 85 38 ff ff
	ff		 lea	 eax, DWORD PTR _installation_file$[ebp]
  00157	50		 push	 eax
  00158	8d 8d 30 fb ff
	ff		 lea	 ecx, DWORD PTR _fn$1[ebp]
  0015e	51		 push	 ecx
  0015f	e8 00 00 00 00	 call	 _strcat
  00164	83 c4 08	 add	 esp, 8

; 6528 : 
; 6529 : 						failed = unlink (fn);

  00167	8d 85 30 fb ff
	ff		 lea	 eax, DWORD PTR _fn$1[ebp]
  0016d	50		 push	 eax
  0016e	ff 15 00 00 00
	00		 call	 DWORD PTR __imp___unlink
  00174	83 c4 04	 add	 esp, 4
  00177	89 85 30 ff ff
	ff		 mov	 DWORD PTR _failed$[ebp], eax

; 6530 : 						
; 6531 : 						if (failed)

  0017d	83 bd 30 ff ff
	ff 00		 cmp	 DWORD PTR _failed$[ebp], 0
  00184	74 14		 je	 SHORT $LN5@uninstall_

; 6532 : 							debug_fatal ("Failed to delete %s", installation_file);

  00186	8d 85 38 ff ff
	ff		 lea	 eax, DWORD PTR _installation_file$[ebp]
  0018c	50		 push	 eax
  0018d	68 00 00 00 00	 push	 OFFSET ??_C@_0BE@CPHGMOPP@Failed?5to?5delete?5?$CFs@
  00192	e8 00 00 00 00	 call	 ?debug_fatal@@YAXPBDZZ	; debug_fatal
  00197	83 c4 08	 add	 esp, 8
$LN5@uninstall_:

; 6533 : 					}
; 6534 : 				}
; 6535 : 			}
; 6536 : 		}
; 6537 : 	}

  0019a	e9 86 fe ff ff	 jmp	 $LN2@uninstall_
$LN3@uninstall_:

; 6538 : 
; 6539 : 	set_global_graphics_files_installed (FALSE);

  0019f	c7 05 24 00 00
	00 00 00 00 00	 mov	 DWORD PTR ?global_options@@3UGLOBAL_OPTIONS_DATA@@A+36, 0

; 6540 : }

  001a9	5f		 pop	 edi
  001aa	5e		 pop	 esi
  001ab	5b		 pop	 ebx
  001ac	8b e5		 mov	 esp, ebp
  001ae	5d		 pop	 ebp
  001af	c3		 ret	 0
?uninstall_graphics_files@@YGXXZ ENDP			; uninstall_graphics_files
_TEXT	ENDS
; Function compile flags: /Odtp /ZI
; File c:\users\nhv90\projects\eech\aphavoc\source\gfxfiles.c
;	COMDAT ?install_graphics_files@@YGHH@Z
_TEXT	SEGMENT
tv133 = -476						; size = 4
_i$ = -408						; size = 4
_all_files_converted$ = -404				; size = 4
_installation_file$ = -400				; size = 200
_distribution_file$ = -200				; size = 200
_pass_conversion$ = 8					; size = 4
?install_graphics_files@@YGHH@Z PROC			; install_graphics_files, COMDAT

; 6333 : {

  00000	55		 push	 ebp
  00001	8b ec		 mov	 ebp, esp
  00003	81 ec dc 01 00
	00		 sub	 esp, 476		; 000001dcH
  00009	53		 push	 ebx
  0000a	56		 push	 esi
  0000b	57		 push	 edi

; 6334 : 	char
; 6335 : 		distribution_file[200],
; 6336 : 		installation_file[200];
; 6337 : 
; 6338 : 	int
; 6339 : 		all_files_converted,
; 6340 : 		i;
; 6341 : 
; 6342 : 	all_files_converted = TRUE;

  0000c	c7 85 6c fe ff
	ff 01 00 00 00	 mov	 DWORD PTR _all_files_converted$[ebp], 1

; 6343 : 
; 6344 : 	debug_log ("Installing graphics files on pass %d...", pass_conversion + 1);

  00016	8b 45 08	 mov	 eax, DWORD PTR _pass_conversion$[ebp]
  00019	83 c0 01	 add	 eax, 1
  0001c	50		 push	 eax
  0001d	68 00 00 00 00	 push	 OFFSET ??_C@_0CI@GHKIINHJ@Installing?5graphics?5files?5on?5pa@
  00022	e8 00 00 00 00	 call	 ?debug_log@@YAXPBDZZ	; debug_log
  00027	83 c4 08	 add	 esp, 8

; 6345 : 
; 6346 : 	for (i = 0; i < NUM_FILES; i++)

  0002a	c7 85 68 fe ff
	ff 00 00 00 00	 mov	 DWORD PTR _i$[ebp], 0
  00034	eb 0f		 jmp	 SHORT $LN4@install_gr
$LN2@install_gr:
  00036	8b 85 68 fe ff
	ff		 mov	 eax, DWORD PTR _i$[ebp]
  0003c	83 c0 01	 add	 eax, 1
  0003f	89 85 68 fe ff
	ff		 mov	 DWORD PTR _i$[ebp], eax
$LN4@install_gr:
  00045	81 bd 68 fe ff
	ff c9 01 00 00	 cmp	 DWORD PTR _i$[ebp], 457	; 000001c9H
  0004f	0f 83 ef 01 00
	00		 jae	 $LN3@install_gr

; 6347 : 	{
; 6348 : 		if (get_file_required (i))

  00055	8b 85 68 fe ff
	ff		 mov	 eax, DWORD PTR _i$[ebp]
  0005b	50		 push	 eax
  0005c	e8 00 00 00 00	 call	 ?get_file_required@@YGHH@Z ; get_file_required
  00061	85 c0		 test	 eax, eax
  00063	0f 84 d6 01 00
	00		 je	 $LN7@install_gr

; 6349 : 		{
; 6350 : 			if (graphics_files[i].first_pass_conversion == pass_conversion)

  00069	6b 85 68 fe ff
	ff 28		 imul	 eax, DWORD PTR _i$[ebp], 40
  00070	8b 88 20 00 00
	00		 mov	 ecx, DWORD PTR ?graphics_files@@3PAUFILE_DATA@@A[eax+32]
  00076	3b 4d 08	 cmp	 ecx, DWORD PTR _pass_conversion$[ebp]
  00079	0f 85 c0 01 00
	00		 jne	 $LN7@install_gr

; 6351 : 			{
; 6352 : 				get_installation_file_specifier (installation_file, &graphics_files[i]);

  0007f	6b 85 68 fe ff
	ff 28		 imul	 eax, DWORD PTR _i$[ebp], 40
  00086	05 00 00 00 00	 add	 eax, OFFSET ?graphics_files@@3PAUFILE_DATA@@A ; graphics_files
  0008b	50		 push	 eax
  0008c	8d 8d 70 fe ff
	ff		 lea	 ecx, DWORD PTR _installation_file$[ebp]
  00092	51		 push	 ecx
  00093	e8 00 00 00 00	 call	 ?get_installation_file_specifier@@YGPADPADPAUFILE_DATA@@@Z ; get_installation_file_specifier

; 6353 : 
; 6354 : 				if (!file_exist (installation_file))

  00098	8d 85 70 fe ff
	ff		 lea	 eax, DWORD PTR _installation_file$[ebp]
  0009e	50		 push	 eax
  0009f	e8 00 00 00 00	 call	 ?file_exist@@YGHPBD@Z	; file_exist
  000a4	85 c0		 test	 eax, eax
  000a6	0f 85 93 01 00
	00		 jne	 $LN7@install_gr

; 6355 : 				{
; 6356 : 					all_files_converted = FALSE;

  000ac	c7 85 6c fe ff
	ff 00 00 00 00	 mov	 DWORD PTR _all_files_converted$[ebp], 0

; 6357 : 
; 6358 : 					get_local_distribution_file_specifier (distribution_file, &graphics_files[i]);

  000b6	6b 85 68 fe ff
	ff 28		 imul	 eax, DWORD PTR _i$[ebp], 40
  000bd	05 00 00 00 00	 add	 eax, OFFSET ?graphics_files@@3PAUFILE_DATA@@A ; graphics_files
  000c2	50		 push	 eax
  000c3	8d 8d 38 ff ff
	ff		 lea	 ecx, DWORD PTR _distribution_file$[ebp]
  000c9	51		 push	 ecx
  000ca	e8 00 00 00 00	 call	 ?get_local_distribution_file_specifier@@YGPADPADPAUFILE_DATA@@@Z ; get_local_distribution_file_specifier

; 6359 : /*
; 6360 : 					if (!file_exist (distribution_file))
; 6361 : 					{
; 6362 : 						get_language_specific_local_distribution_file_specifier (distribution_file, &graphics_files[i]);
; 6363 : 
; 6364 : 						if (!file_exist (distribution_file))
; 6365 : 						{
; 6366 : 							get_language_specific_distribution_file_specifier (distribution_file, &graphics_files[i]);
; 6367 : 						}
; 6368 : 					}
; 6369 : */
; 6370 : 					if (!file_exist (distribution_file ))

  000cf	8d 85 38 ff ff
	ff		 lea	 eax, DWORD PTR _distribution_file$[ebp]
  000d5	50		 push	 eax
  000d6	e8 00 00 00 00	 call	 ?file_exist@@YGHPBD@Z	; file_exist
  000db	85 c0		 test	 eax, eax
  000dd	75 19		 jne	 SHORT $LN10@install_gr

; 6371 : 					{
; 6372 : 						get_distribution_file_specifier (distribution_file, &graphics_files[i]);

  000df	6b 85 68 fe ff
	ff 28		 imul	 eax, DWORD PTR _i$[ebp], 40
  000e6	05 00 00 00 00	 add	 eax, OFFSET ?graphics_files@@3PAUFILE_DATA@@A ; graphics_files
  000eb	50		 push	 eax
  000ec	8d 8d 38 ff ff
	ff		 lea	 ecx, DWORD PTR _distribution_file$[ebp]
  000f2	51		 push	 ecx
  000f3	e8 00 00 00 00	 call	 ?get_distribution_file_specifier@@YGPADPADPAUFILE_DATA@@@Z ; get_distribution_file_specifier
$LN10@install_gr:

; 6373 : 					}
; 6374 : 
; 6375 : 					debug_log ("Converting file %s to %s", distribution_file, installation_file);

  000f8	8d 85 70 fe ff
	ff		 lea	 eax, DWORD PTR _installation_file$[ebp]
  000fe	50		 push	 eax
  000ff	8d 8d 38 ff ff
	ff		 lea	 ecx, DWORD PTR _distribution_file$[ebp]
  00105	51		 push	 ecx
  00106	68 00 00 00 00	 push	 OFFSET ??_C@_0BJ@EBDMMGIK@Converting?5file?5?$CFs?5to?5?$CFs@
  0010b	e8 00 00 00 00	 call	 ?debug_log@@YAXPBDZZ	; debug_log
  00110	83 c4 0c	 add	 esp, 12			; 0000000cH

; 6376 : 
; 6377 : 					add_file_to_uninstall_log (installation_file);

  00113	8d 85 70 fe ff
	ff		 lea	 eax, DWORD PTR _installation_file$[ebp]
  00119	50		 push	 eax
  0011a	e8 00 00 00 00	 call	 ?add_file_to_uninstall_log@@YGXPBD@Z ; add_file_to_uninstall_log

; 6378 : 
; 6379 : 					switch (graphics_files[i].graphics_conversion_type)

  0011f	6b 85 68 fe ff
	ff 28		 imul	 eax, DWORD PTR _i$[ebp], 40
  00126	8b 88 18 00 00
	00		 mov	 ecx, DWORD PTR ?graphics_files@@3PAUFILE_DATA@@A[eax+24]
  0012c	89 8d 24 fe ff
	ff		 mov	 DWORD PTR tv133[ebp], ecx
  00132	83 bd 24 fe ff
	ff 0a		 cmp	 DWORD PTR tv133[ebp], 10 ; 0000000aH
  00139	0f 87 fe 00 00
	00		 ja	 $LN5@install_gr
  0013f	8b 95 24 fe ff
	ff		 mov	 edx, DWORD PTR tv133[ebp]
  00145	ff 24 95 00 00
	00 00		 jmp	 DWORD PTR $LN24@install_gr[edx*4]
$LN11@install_gr:

; 6380 : 					{
; 6381 : 						////////////////////////////////////////
; 6382 : 						case CONVERT_TGA_TO_ALPHA_MASK:
; 6383 : 						////////////////////////////////////////
; 6384 : 						{
; 6385 : 							convert_tga_to_alpha_mask (distribution_file, installation_file);

  0014c	8d 85 70 fe ff
	ff		 lea	 eax, DWORD PTR _installation_file$[ebp]
  00152	50		 push	 eax
  00153	8d 8d 38 ff ff
	ff		 lea	 ecx, DWORD PTR _distribution_file$[ebp]
  00159	51		 push	 ecx
  0015a	e8 00 00 00 00	 call	 ?convert_tga_to_alpha_mask@@YGXPBD0@Z ; convert_tga_to_alpha_mask

; 6386 : 
; 6387 : 							break;

  0015f	e9 d9 00 00 00	 jmp	 $LN5@install_gr
$LN12@install_gr:

; 6388 : 						}
; 6389 : 						////////////////////////////////////////
; 6390 : 						case CONVERT_TGA_TO_RGB:
; 6391 : 						////////////////////////////////////////
; 6392 : 						{
; 6393 : 							convert_tga_to_rgb (distribution_file, installation_file);

  00164	8d 85 70 fe ff
	ff		 lea	 eax, DWORD PTR _installation_file$[ebp]
  0016a	50		 push	 eax
  0016b	8d 8d 38 ff ff
	ff		 lea	 ecx, DWORD PTR _distribution_file$[ebp]
  00171	51		 push	 ecx
  00172	e8 00 00 00 00	 call	 ?convert_tga_to_rgb@@YGXPBD0@Z ; convert_tga_to_rgb

; 6394 : 
; 6395 : 							break;

  00177	e9 c1 00 00 00	 jmp	 $LN5@install_gr
$LN13@install_gr:

; 6396 : 						}
; 6397 : 						////////////////////////////////////////
; 6398 : 						case CONVERT_TGA_TO_RGB_ALPHA:
; 6399 : 						////////////////////////////////////////
; 6400 : 						{
; 6401 : 							convert_tga_to_rgb_alpha (distribution_file, installation_file);

  0017c	8d 85 70 fe ff
	ff		 lea	 eax, DWORD PTR _installation_file$[ebp]
  00182	50		 push	 eax
  00183	8d 8d 38 ff ff
	ff		 lea	 ecx, DWORD PTR _distribution_file$[ebp]
  00189	51		 push	 ecx
  0018a	e8 00 00 00 00	 call	 ?convert_tga_to_rgb_alpha@@YGXPBD0@Z ; convert_tga_to_rgb_alpha

; 6402 : 
; 6403 : 							break;

  0018f	e9 a9 00 00 00	 jmp	 $LN5@install_gr
$LN14@install_gr:

; 6404 : 						}
; 6405 : 						////////////////////////////////////////
; 6406 : 						case CONVERT_TGA_TO_RLE:
; 6407 : 						////////////////////////////////////////
; 6408 : 						{
; 6409 : 							convert_tga_to_rle (distribution_file, installation_file);

  00194	8d 85 70 fe ff
	ff		 lea	 eax, DWORD PTR _installation_file$[ebp]
  0019a	50		 push	 eax
  0019b	8d 8d 38 ff ff
	ff		 lea	 ecx, DWORD PTR _distribution_file$[ebp]
  001a1	51		 push	 ecx
  001a2	e8 00 00 00 00	 call	 ?convert_tga_to_rle@@YGXPBD0@Z ; convert_tga_to_rle

; 6410 : 
; 6411 : 							break;

  001a7	e9 91 00 00 00	 jmp	 $LN5@install_gr
$LN15@install_gr:

; 6412 : 						}
; 6413 : 						////////////////////////////////////////
; 6414 : 						case CONVERT_PSD_TO_ALPHA_MASK:
; 6415 : 						////////////////////////////////////////
; 6416 : 						{
; 6417 : 							convert_psd_to_alpha_mask (distribution_file, installation_file);

  001ac	8d 85 70 fe ff
	ff		 lea	 eax, DWORD PTR _installation_file$[ebp]
  001b2	50		 push	 eax
  001b3	8d 8d 38 ff ff
	ff		 lea	 ecx, DWORD PTR _distribution_file$[ebp]
  001b9	51		 push	 ecx
  001ba	e8 00 00 00 00	 call	 ?convert_psd_to_alpha_mask@@YGXPBD0@Z ; convert_psd_to_alpha_mask

; 6418 : 
; 6419 : 							break;

  001bf	eb 7c		 jmp	 SHORT $LN5@install_gr
$LN16@install_gr:

; 6420 : 						}
; 6421 : 						////////////////////////////////////////
; 6422 : 						case CONVERT_PSD_TO_RGB:
; 6423 : 						////////////////////////////////////////
; 6424 : 						{
; 6425 : 							convert_psd_to_rgb (distribution_file, installation_file);

  001c1	8d 85 70 fe ff
	ff		 lea	 eax, DWORD PTR _installation_file$[ebp]
  001c7	50		 push	 eax
  001c8	8d 8d 38 ff ff
	ff		 lea	 ecx, DWORD PTR _distribution_file$[ebp]
  001ce	51		 push	 ecx
  001cf	e8 00 00 00 00	 call	 ?convert_psd_to_rgb@@YGXPBD0@Z ; convert_psd_to_rgb

; 6426 : 
; 6427 : 							break;

  001d4	eb 67		 jmp	 SHORT $LN5@install_gr
$LN17@install_gr:

; 6428 : 						}
; 6429 : 						////////////////////////////////////////
; 6430 : 						case CONVERT_PSD_TO_RGB_ALPHA:
; 6431 : 						////////////////////////////////////////
; 6432 : 						{
; 6433 : 							convert_psd_to_rgb_alpha (distribution_file, installation_file);

  001d6	8d 85 70 fe ff
	ff		 lea	 eax, DWORD PTR _installation_file$[ebp]
  001dc	50		 push	 eax
  001dd	8d 8d 38 ff ff
	ff		 lea	 ecx, DWORD PTR _distribution_file$[ebp]
  001e3	51		 push	 ecx
  001e4	e8 00 00 00 00	 call	 ?convert_psd_to_rgb_alpha@@YGXPBD0@Z ; convert_psd_to_rgb_alpha

; 6434 : 
; 6435 : 							break;

  001e9	eb 52		 jmp	 SHORT $LN5@install_gr
$LN18@install_gr:

; 6436 : 						}
; 6437 : 						////////////////////////////////////////
; 6438 : 						case CONVERT_PSD_TO_RLE:
; 6439 : 						////////////////////////////////////////
; 6440 : 						{
; 6441 : 							convert_psd_to_rle (distribution_file, installation_file);

  001eb	8d 85 70 fe ff
	ff		 lea	 eax, DWORD PTR _installation_file$[ebp]
  001f1	50		 push	 eax
  001f2	8d 8d 38 ff ff
	ff		 lea	 ecx, DWORD PTR _distribution_file$[ebp]
  001f8	51		 push	 ecx
  001f9	e8 00 00 00 00	 call	 ?convert_psd_to_rle@@YGXPBD0@Z ; convert_psd_to_rle

; 6442 : 
; 6443 : 							break;

  001fe	eb 3d		 jmp	 SHORT $LN5@install_gr
$LN19@install_gr:

; 6444 : 						}
; 6445 : 						////////////////////////////////////////
; 6446 : 						case CONVERT_PSD_TO_DITHERED_RGB:
; 6447 : 						////////////////////////////////////////
; 6448 : 						{
; 6449 : 							convert_and_dither_psd_to_rgb (distribution_file, installation_file);

  00200	8d 85 70 fe ff
	ff		 lea	 eax, DWORD PTR _installation_file$[ebp]
  00206	50		 push	 eax
  00207	8d 8d 38 ff ff
	ff		 lea	 ecx, DWORD PTR _distribution_file$[ebp]
  0020d	51		 push	 ecx
  0020e	e8 00 00 00 00	 call	 ?convert_and_dither_psd_to_rgb@@YGXPBD0@Z ; convert_and_dither_psd_to_rgb

; 6450 : 
; 6451 : 							break;

  00213	eb 28		 jmp	 SHORT $LN5@install_gr
$LN20@install_gr:

; 6452 : 						}
; 6453 : 						////////////////////////////////////////
; 6454 : 						case CONVERT_PSD_TO_DITHERED_RGB_ALPHA:
; 6455 : 						////////////////////////////////////////
; 6456 : 						{
; 6457 : 							convert_and_dither_psd_to_rgb_alpha (distribution_file, installation_file);

  00215	8d 85 70 fe ff
	ff		 lea	 eax, DWORD PTR _installation_file$[ebp]
  0021b	50		 push	 eax
  0021c	8d 8d 38 ff ff
	ff		 lea	 ecx, DWORD PTR _distribution_file$[ebp]
  00222	51		 push	 ecx
  00223	e8 00 00 00 00	 call	 ?convert_and_dither_psd_to_rgb_alpha@@YGXPBD0@Z ; convert_and_dither_psd_to_rgb_alpha

; 6458 : 
; 6459 : 							break;

  00228	eb 13		 jmp	 SHORT $LN5@install_gr
$LN21@install_gr:

; 6460 : 						}
; 6461 : 						////////////////////////////////////////
; 6462 : 						case CONVERT_PSD_TO_DITHERED_RLE:
; 6463 : 						////////////////////////////////////////
; 6464 : 						{
; 6465 : 							convert_and_dither_psd_to_rle (distribution_file, installation_file);

  0022a	8d 85 70 fe ff
	ff		 lea	 eax, DWORD PTR _installation_file$[ebp]
  00230	50		 push	 eax
  00231	8d 8d 38 ff ff
	ff		 lea	 ecx, DWORD PTR _distribution_file$[ebp]
  00237	51		 push	 ecx
  00238	e8 00 00 00 00	 call	 ?convert_and_dither_psd_to_rle@@YGXPBD0@Z ; convert_and_dither_psd_to_rle
$LN5@install_gr:

; 6466 : 
; 6467 : 							break;
; 6468 : 						}
; 6469 : 					}
; 6470 : 
; 6471 : 					break;

  0023d	eb 05		 jmp	 SHORT $LN3@install_gr
$LN7@install_gr:

; 6472 : 				}
; 6473 : 			}
; 6474 : 		}
; 6475 : 	}

  0023f	e9 f2 fd ff ff	 jmp	 $LN2@install_gr
$LN3@install_gr:

; 6476 : 
; 6477 : 	if ((all_files_converted) && (pass_conversion == GRAPHICS_CONVERSION_SECOND_PASS))

  00244	83 bd 6c fe ff
	ff 00		 cmp	 DWORD PTR _all_files_converted$[ebp], 0
  0024b	74 10		 je	 SHORT $LN22@install_gr
  0024d	83 7d 08 01	 cmp	 DWORD PTR _pass_conversion$[ebp], 1
  00251	75 0a		 jne	 SHORT $LN22@install_gr

; 6478 : 	{
; 6479 : 
; 6480 : 		set_global_graphics_files_installed (TRUE);

  00253	c7 05 24 00 00
	00 01 00 00 00	 mov	 DWORD PTR ?global_options@@3UGLOBAL_OPTIONS_DATA@@A+36, 1
$LN22@install_gr:

; 6481 : 	}
; 6482 : 
; 6483 : 	return (all_files_converted);

  0025d	8b 85 6c fe ff
	ff		 mov	 eax, DWORD PTR _all_files_converted$[ebp]

; 6484 : }

  00263	5f		 pop	 edi
  00264	5e		 pop	 esi
  00265	5b		 pop	 ebx
  00266	8b e5		 mov	 esp, ebp
  00268	5d		 pop	 ebp
  00269	c2 04 00	 ret	 4
$LN24@install_gr:
  0026c	00 00 00 00	 DD	 $LN11@install_gr
  00270	00 00 00 00	 DD	 $LN12@install_gr
  00274	00 00 00 00	 DD	 $LN13@install_gr
  00278	00 00 00 00	 DD	 $LN14@install_gr
  0027c	00 00 00 00	 DD	 $LN15@install_gr
  00280	00 00 00 00	 DD	 $LN16@install_gr
  00284	00 00 00 00	 DD	 $LN17@install_gr
  00288	00 00 00 00	 DD	 $LN18@install_gr
  0028c	00 00 00 00	 DD	 $LN19@install_gr
  00290	00 00 00 00	 DD	 $LN20@install_gr
  00294	00 00 00 00	 DD	 $LN21@install_gr
?install_graphics_files@@YGHH@Z ENDP			; install_graphics_files
_TEXT	ENDS
; Function compile flags: /Odtp /ZI
; File c:\users\nhv90\projects\eech\aphavoc\source\gfxfiles.c
;	COMDAT ?get_uninstalled_graphics_file_count@@YGHH@Z
_TEXT	SEGMENT
_i$ = -208						; size = 4
_count$ = -204						; size = 4
_installation_file$ = -200				; size = 200
_pass_conversion$ = 8					; size = 4
?get_uninstalled_graphics_file_count@@YGHH@Z PROC	; get_uninstalled_graphics_file_count, COMDAT

; 6299 : {

  00000	55		 push	 ebp
  00001	8b ec		 mov	 ebp, esp
  00003	81 ec 10 01 00
	00		 sub	 esp, 272		; 00000110H
  00009	53		 push	 ebx
  0000a	56		 push	 esi
  0000b	57		 push	 edi

; 6300 : 	char
; 6301 : 		installation_file[200];
; 6302 : 
; 6303 : 	int
; 6304 : 		count,
; 6305 : 		i;
; 6306 : 
; 6307 : 	count = 0;

  0000c	c7 85 34 ff ff
	ff 00 00 00 00	 mov	 DWORD PTR _count$[ebp], 0

; 6308 : 
; 6309 : 	for (i = 0; i < NUM_FILES; i++)

  00016	c7 85 30 ff ff
	ff 00 00 00 00	 mov	 DWORD PTR _i$[ebp], 0
  00020	eb 0f		 jmp	 SHORT $LN4@get_uninst
$LN2@get_uninst:
  00022	8b 85 30 ff ff
	ff		 mov	 eax, DWORD PTR _i$[ebp]
  00028	83 c0 01	 add	 eax, 1
  0002b	89 85 30 ff ff
	ff		 mov	 DWORD PTR _i$[ebp], eax
$LN4@get_uninst:
  00031	81 bd 30 ff ff
	ff c9 01 00 00	 cmp	 DWORD PTR _i$[ebp], 457	; 000001c9H
  0003b	73 5c		 jae	 SHORT $LN3@get_uninst

; 6310 : 	{
; 6311 : 		if (get_file_required (i))

  0003d	8b 85 30 ff ff
	ff		 mov	 eax, DWORD PTR _i$[ebp]
  00043	50		 push	 eax
  00044	e8 00 00 00 00	 call	 ?get_file_required@@YGHH@Z ; get_file_required
  00049	85 c0		 test	 eax, eax
  0004b	74 4a		 je	 SHORT $LN5@get_uninst

; 6312 : 		{
; 6313 : 			if (graphics_files[i].first_pass_conversion == pass_conversion)

  0004d	6b 85 30 ff ff
	ff 28		 imul	 eax, DWORD PTR _i$[ebp], 40
  00054	8b 88 20 00 00
	00		 mov	 ecx, DWORD PTR ?graphics_files@@3PAUFILE_DATA@@A[eax+32]
  0005a	3b 4d 08	 cmp	 ecx, DWORD PTR _pass_conversion$[ebp]
  0005d	75 38		 jne	 SHORT $LN5@get_uninst

; 6314 : 			{
; 6315 : 				get_installation_file_specifier (installation_file, &graphics_files[i]);

  0005f	6b 85 30 ff ff
	ff 28		 imul	 eax, DWORD PTR _i$[ebp], 40
  00066	05 00 00 00 00	 add	 eax, OFFSET ?graphics_files@@3PAUFILE_DATA@@A ; graphics_files
  0006b	50		 push	 eax
  0006c	8d 8d 38 ff ff
	ff		 lea	 ecx, DWORD PTR _installation_file$[ebp]
  00072	51		 push	 ecx
  00073	e8 00 00 00 00	 call	 ?get_installation_file_specifier@@YGPADPADPAUFILE_DATA@@@Z ; get_installation_file_specifier

; 6316 : 
; 6317 : 				if (!file_exist (installation_file))

  00078	8d 85 38 ff ff
	ff		 lea	 eax, DWORD PTR _installation_file$[ebp]
  0007e	50		 push	 eax
  0007f	e8 00 00 00 00	 call	 ?file_exist@@YGHPBD@Z	; file_exist
  00084	85 c0		 test	 eax, eax
  00086	75 0f		 jne	 SHORT $LN5@get_uninst

; 6318 : 				{
; 6319 : 					count ++;

  00088	8b 85 34 ff ff
	ff		 mov	 eax, DWORD PTR _count$[ebp]
  0008e	83 c0 01	 add	 eax, 1
  00091	89 85 34 ff ff
	ff		 mov	 DWORD PTR _count$[ebp], eax
$LN5@get_uninst:

; 6320 : 				}
; 6321 : 			}
; 6322 : 		}
; 6323 : 	}

  00097	eb 89		 jmp	 SHORT $LN2@get_uninst
$LN3@get_uninst:

; 6324 : 
; 6325 : 	return count;

  00099	8b 85 34 ff ff
	ff		 mov	 eax, DWORD PTR _count$[ebp]

; 6326 : }

  0009f	5f		 pop	 edi
  000a0	5e		 pop	 esi
  000a1	5b		 pop	 ebx
  000a2	8b e5		 mov	 esp, ebp
  000a4	5d		 pop	 ebp
  000a5	c2 04 00	 ret	 4
?get_uninstalled_graphics_file_count@@YGHH@Z ENDP	; get_uninstalled_graphics_file_count
_TEXT	ENDS
END
