; Listing generated by Microsoft (R) Optimizing Compiler Version 19.16.27045.0 

	TITLE	C:\Users\nhv90\Projects\eech\aphavoc\source\entity\special\group\gp_dstry.c
	.686P
	.XMM
	include listing.inc
	.model	flat

INCLUDELIB MSVCRTD
INCLUDELIB OLDNAMES

PUBLIC	?overload_group_destroy_functions@@YGXXZ	; overload_group_destroy_functions
PUBLIC	?__LINE__Var@?0??destroy_local@@YGXPAUENTITY@@@Z@4JA ; `destroy_local'::`1'::__LINE__Var
PUBLIC	??_C@_0EM@LKNDIMLE@c?3?2users?2nhv90?2projects?2eech?2ap@ ; `string'
PUBLIC	??_C@_0BO@DBNNAPOM@?$CBraw?9?$DOmember_root?4first_child@ ; `string'
PUBLIC	?__LINE__Var@?0??destroy_server@@YGXPAUENTITY@@@Z@4JA ; `destroy_server'::`1'::__LINE__Var
PUBLIC	??_C@_0CC@BNNNEGEG@assert_client_server_remote_fn?5@ ; `string'
PUBLIC	??_C@_0CB@CFOCLFOK@assert_client_server_local_fn?5?$CI@ ; `string'
PUBLIC	?__LINE__Var@?0??destroy_client@@YGXPAUENTITY@@@Z@4JA ; `destroy_client'::`1'::__LINE__Var
PUBLIC	?__LINE__Var@?0??destroy_server_family@@YGXPAUENTITY@@@Z@4JA ; `destroy_server_family'::`1'::__LINE__Var
PUBLIC	?__LINE__Var@?0??kill_local@@YGXPAUENTITY@@@Z@4JA ; `kill_local'::`1'::__LINE__Var
PUBLIC	??_C@_02LFNMGJAP@en@				; `string'
PUBLIC	??_C@_05BINPNAAL@force@				; `string'
PUBLIC	??_C@_0DF@DMBLHEKG@?$CBget_local_entity_first_child?5?$CI@ ; `string'
PUBLIC	??_C@_0DK@GDIDELDJ@?$CBget_local_entity_first_child?5?$CI@ ; `string'
PUBLIC	?__LINE__Var@?0??kill_server@@YGXPAUENTITY@@@Z@4JA ; `kill_server'::`1'::__LINE__Var
PUBLIC	?__LINE__Var@?0??kill_client@@YGXPAUENTITY@@@Z@4JA ; `kill_client'::`1'::__LINE__Var
EXTRN	?process_assert@@YGXPBD0H@Z:PROC		; process_assert
EXTRN	?free_mem@@YGXPAX@Z:PROC			; free_mem
EXTRN	?delete_local_entity_from_parents_child_list@@YGXPAUENTITY@@W4LIST_TYPES@@@Z:PROC ; delete_local_entity_from_parents_child_list
EXTRN	?unlink_local_entity_children@@YGXPAUENTITY@@W4LIST_TYPES@@@Z:PROC ; unlink_local_entity_children
EXTRN	?destroy_local_entity@@YGXPAUENTITY@@@Z:PROC	; destroy_local_entity
EXTRN	?destroy_local_entity_children@@YGXPAUENTITY@@W4LIST_TYPES@@@Z:PROC ; destroy_local_entity_children
EXTRN	?destroy_client_server_entity_children@@YGXPAUENTITY@@W4LIST_TYPES@@@Z:PROC ; destroy_client_server_entity_children
EXTRN	?transmit_entity_comms_message@@YAXW4ENTITY_COMMS_MESSAGES@@PAUENTITY@@ZZ:PROC ; transmit_entity_comms_message
EXTRN	?assert_client_server_local_fn@@YGHXZ:PROC	; assert_client_server_local_fn
EXTRN	?assert_client_server_remote_fn@@YGHXZ:PROC	; assert_client_server_remote_fn
EXTRN	?set_free_entity@@YGXPAUENTITY@@@Z:PROC		; set_free_entity
EXTRN	?get_local_force_entity@@YGPAUENTITY@@W4ENTITY_SIDES@@@Z:PROC ; get_local_force_entity
EXTRN	?remove_group_type_from_force_info@@YGXPAUENTITY@@H@Z:PROC ; remove_group_type_from_force_info
EXTRN	?free_group_callsign@@YGXPAUENTITY@@@Z:PROC	; free_group_callsign
EXTRN	?notify_campaign_screen@@YGHW4CAMPAIGN_SCREEN_MESSAGES@@PAUENTITY@@@Z:PROC ; notify_campaign_screen
EXTRN	?null_entity_pointer_message@@3PBDB:DWORD	; null_entity_pointer_message
EXTRN	?system_comms_model@@3W4COMMS_MODEL_TYPES@@A:DWORD ; system_comms_model
EXTRN	?system_comms_data_flow@@3W4COMMS_DATA_FLOW_TYPES@@A:DWORD ; system_comms_data_flow
EXTRN	?overload_invalid_list_type_message@@3PBDB:DWORD ; overload_invalid_list_type_message
EXTRN	?fn_get_local_entity_first_child@@3PAY0CN@P6GPAUENTITY@@PAU1@W4LIST_TYPES@@@ZA:BYTE ; fn_get_local_entity_first_child
EXTRN	?fn_destroy_local_entity@@3PAP6GXPAUENTITY@@@ZA:BYTE ; fn_destroy_local_entity
EXTRN	?fn_destroy_client_server_entity@@3PAY01P6GXPAUENTITY@@@ZA:BYTE ; fn_destroy_client_server_entity
EXTRN	?fn_destroy_local_entity_family@@3PAP6GXPAUENTITY@@@ZA:BYTE ; fn_destroy_local_entity_family
EXTRN	?fn_destroy_client_server_entity_family@@3PAY01P6GXPAUENTITY@@@ZA:BYTE ; fn_destroy_client_server_entity_family
EXTRN	?fn_kill_local_entity@@3PAP6GXPAUENTITY@@@ZA:BYTE ; fn_kill_local_entity
EXTRN	?fn_kill_client_server_entity@@3PAY01P6GXPAUENTITY@@@ZA:BYTE ; fn_kill_client_server_entity
EXTRN	?overload_invalid_int_type_message@@3PBDB:DWORD	; overload_invalid_int_type_message
EXTRN	?fn_set_local_entity_int_value@@3PAY0BBH@P6GXPAUENTITY@@W4INT_TYPES@@H@ZA:BYTE ; fn_set_local_entity_int_value
EXTRN	?fn_get_local_entity_int_value@@3PAY0BBH@P6GHPAUENTITY@@W4INT_TYPES@@@ZA:BYTE ; fn_get_local_entity_int_value
;	COMDAT ?__LINE__Var@?0??kill_client@@YGXPAUENTITY@@@Z@4JA
_DATA	SEGMENT
?__LINE__Var@?0??kill_client@@YGXPAUENTITY@@@Z@4JA DD 018bH ; `kill_client'::`1'::__LINE__Var
_DATA	ENDS
;	COMDAT ?__LINE__Var@?0??kill_server@@YGXPAUENTITY@@@Z@4JA
_DATA	SEGMENT
?__LINE__Var@?0??kill_server@@YGXPAUENTITY@@@Z@4JA DD 0174H ; `kill_server'::`1'::__LINE__Var
_DATA	ENDS
;	COMDAT ??_C@_0DK@GDIDELDJ@?$CBget_local_entity_first_child?5?$CI@
CONST	SEGMENT
??_C@_0DK@GDIDELDJ@?$CBget_local_entity_first_child?5?$CI@ DB '!get_local'
	DB	'_entity_first_child (en, LIST_TYPE_GUIDE_STACK)', 00H ; `string'
CONST	ENDS
;	COMDAT ??_C@_0DF@DMBLHEKG@?$CBget_local_entity_first_child?5?$CI@
CONST	SEGMENT
??_C@_0DF@DMBLHEKG@?$CBget_local_entity_first_child?5?$CI@ DB '!get_local'
	DB	'_entity_first_child (en, LIST_TYPE_MEMBER)', 00H ; `string'
CONST	ENDS
;	COMDAT ??_C@_05BINPNAAL@force@
CONST	SEGMENT
??_C@_05BINPNAAL@force@ DB 'force', 00H			; `string'
CONST	ENDS
;	COMDAT ??_C@_02LFNMGJAP@en@
CONST	SEGMENT
??_C@_02LFNMGJAP@en@ DB 'en', 00H			; `string'
CONST	ENDS
;	COMDAT ?__LINE__Var@?0??kill_local@@YGXPAUENTITY@@@Z@4JA
_DATA	SEGMENT
?__LINE__Var@?0??kill_local@@YGXPAUENTITY@@@Z@4JA DD 010aH ; `kill_local'::`1'::__LINE__Var
_DATA	ENDS
;	COMDAT ?__LINE__Var@?0??destroy_server_family@@YGXPAUENTITY@@@Z@4JA
_DATA	SEGMENT
?__LINE__Var@?0??destroy_server_family@@YGXPAUENTITY@@@Z@4JA DD 0f0H ; `destroy_server_family'::`1'::__LINE__Var
_DATA	ENDS
;	COMDAT ?__LINE__Var@?0??destroy_client@@YGXPAUENTITY@@@Z@4JA
_DATA	SEGMENT
?__LINE__Var@?0??destroy_client@@YGXPAUENTITY@@@Z@4JA DD 0cdH ; `destroy_client'::`1'::__LINE__Var
_DATA	ENDS
;	COMDAT ??_C@_0CB@CFOCLFOK@assert_client_server_local_fn?5?$CI@
CONST	SEGMENT
??_C@_0CB@CFOCLFOK@assert_client_server_local_fn?5?$CI@ DB 'assert_client'
	DB	'_server_local_fn ()', 00H			; `string'
CONST	ENDS
;	COMDAT ??_C@_0CC@BNNNEGEG@assert_client_server_remote_fn?5@
CONST	SEGMENT
??_C@_0CC@BNNNEGEG@assert_client_server_remote_fn?5@ DB 'assert_client_se'
	DB	'rver_remote_fn ()', 00H			; `string'
CONST	ENDS
;	COMDAT ?__LINE__Var@?0??destroy_server@@YGXPAUENTITY@@@Z@4JA
_DATA	SEGMENT
?__LINE__Var@?0??destroy_server@@YGXPAUENTITY@@@Z@4JA DD 0b6H ; `destroy_server'::`1'::__LINE__Var
_DATA	ENDS
;	COMDAT ??_C@_0BO@DBNNAPOM@?$CBraw?9?$DOmember_root?4first_child@
CONST	SEGMENT
??_C@_0BO@DBNNAPOM@?$CBraw?9?$DOmember_root?4first_child@ DB '!raw->membe'
	DB	'r_root.first_child', 00H			; `string'
CONST	ENDS
;	COMDAT ??_C@_0EM@LKNDIMLE@c?3?2users?2nhv90?2projects?2eech?2ap@
CONST	SEGMENT
??_C@_0EM@LKNDIMLE@c?3?2users?2nhv90?2projects?2eech?2ap@ DB 'c:\users\nh'
	DB	'v90\projects\eech\aphavoc\source\entity\special\group\gp_dstr'
	DB	'y.c', 00H					; `string'
CONST	ENDS
;	COMDAT ?__LINE__Var@?0??destroy_local@@YGXPAUENTITY@@@Z@4JA
_DATA	SEGMENT
?__LINE__Var@?0??destroy_local@@YGXPAUENTITY@@@Z@4JA DD 050H ; `destroy_local'::`1'::__LINE__Var
_DATA	ENDS
; Function compile flags: /Odtp /ZI
; File c:\users\nhv90\projects\eech\aphavoc\source\entity\special\group\gp_dstry.c
;	COMDAT ?kill_client@@YGXPAUENTITY@@@Z
_TEXT	SEGMENT
tv84 = -68						; size = 4
_en$ = 8						; size = 4
?kill_client@@YGXPAUENTITY@@@Z PROC			; kill_client, COMDAT

; 395  : {

  00000	55		 push	 ebp
  00001	8b ec		 mov	 ebp, esp
  00003	83 ec 44	 sub	 esp, 68			; 00000044H
  00006	53		 push	 ebx
  00007	56		 push	 esi
  00008	57		 push	 edi

; 396  : 	if (get_comms_data_flow () == COMMS_DATA_FLOW_TX)

  00009	83 3d 00 00 00
	00 00		 cmp	 DWORD PTR ?system_comms_data_flow@@3W4COMMS_DATA_FLOW_TYPES@@A, 0 ; system_comms_data_flow
  00010	75 2c		 jne	 SHORT $LN2@kill_clien

; 397  : 	{
; 398  : 		validate_client_server_remote_fn ();

  00012	e8 00 00 00 00	 call	 ?assert_client_server_remote_fn@@YGHXZ ; assert_client_server_remote_fn
  00017	85 c0		 test	 eax, eax
  00019	75 18		 jne	 SHORT $LN4@kill_clien
  0001b	a1 00 00 00 00	 mov	 eax, DWORD PTR ?__LINE__Var@?0??kill_client@@YGXPAUENTITY@@@Z@4JA
  00020	83 c0 03	 add	 eax, 3
  00023	50		 push	 eax
  00024	68 00 00 00 00	 push	 OFFSET ??_C@_0EM@LKNDIMLE@c?3?2users?2nhv90?2projects?2eech?2ap@
  00029	68 00 00 00 00	 push	 OFFSET ??_C@_0CC@BNNNEGEG@assert_client_server_remote_fn?5@
  0002e	e8 00 00 00 00	 call	 ?process_assert@@YGXPBD0H@Z ; process_assert
$LN4@kill_clien:

; 399  : 
; 400  : 		kill_remote (en);

  00033	8b 45 08	 mov	 eax, DWORD PTR _en$[ebp]
  00036	50		 push	 eax
  00037	e8 00 00 00 00	 call	 ?kill_remote@@YGXPAUENTITY@@@Z ; kill_remote

; 401  : 	}
; 402  : 	else

  0003c	eb 62		 jmp	 SHORT $LN1@kill_clien
$LN2@kill_clien:

; 403  : 	{
; 404  : 		validate_client_server_local_fn ();

  0003e	e8 00 00 00 00	 call	 ?assert_client_server_local_fn@@YGHXZ ; assert_client_server_local_fn
  00043	85 c0		 test	 eax, eax
  00045	75 18		 jne	 SHORT $LN5@kill_clien
  00047	a1 00 00 00 00	 mov	 eax, DWORD PTR ?__LINE__Var@?0??kill_client@@YGXPAUENTITY@@@Z@4JA
  0004c	83 c0 09	 add	 eax, 9
  0004f	50		 push	 eax
  00050	68 00 00 00 00	 push	 OFFSET ??_C@_0EM@LKNDIMLE@c?3?2users?2nhv90?2projects?2eech?2ap@
  00055	68 00 00 00 00	 push	 OFFSET ??_C@_0CB@CFOCLFOK@assert_client_server_local_fn?5?$CI@
  0005a	e8 00 00 00 00	 call	 ?process_assert@@YGXPBD0H@Z ; process_assert
$LN5@kill_clien:

; 405  : 
; 406  : 		//
; 407  : 		// kill local using 'full' function
; 408  : 		//
; 409  : 
; 410  : 		kill_local_entity (en);

  0005f	83 7d 08 00	 cmp	 DWORD PTR _en$[ebp], 0
  00063	74 0a		 je	 SHORT $LN7@kill_clien
  00065	8b 45 08	 mov	 eax, DWORD PTR _en$[ebp]
  00068	8b 08		 mov	 ecx, DWORD PTR [eax]
  0006a	89 4d bc	 mov	 DWORD PTR tv84[ebp], ecx
  0006d	eb 21		 jmp	 SHORT $LN8@kill_clien
$LN7@kill_clien:
  0006f	8b 15 00 00 00
	00		 mov	 edx, DWORD PTR ?__LINE__Var@?0??kill_client@@YGXPAUENTITY@@@Z@4JA
  00075	83 c2 0f	 add	 edx, 15			; 0000000fH
  00078	52		 push	 edx
  00079	68 00 00 00 00	 push	 OFFSET ??_C@_0EM@LKNDIMLE@c?3?2users?2nhv90?2projects?2eech?2ap@
  0007e	a1 00 00 00 00	 mov	 eax, DWORD PTR ?null_entity_pointer_message@@3PBDB ; null_entity_pointer_message
  00083	50		 push	 eax
  00084	e8 00 00 00 00	 call	 ?process_assert@@YGXPBD0H@Z ; process_assert
  00089	c7 45 bc 00 00
	00 00		 mov	 DWORD PTR tv84[ebp], 0
$LN8@kill_clien:
  00090	8b 4d 08	 mov	 ecx, DWORD PTR _en$[ebp]
  00093	51		 push	 ecx
  00094	8b 55 bc	 mov	 edx, DWORD PTR tv84[ebp]
  00097	8b 04 95 00 00
	00 00		 mov	 eax, DWORD PTR ?fn_kill_local_entity@@3PAP6GXPAUENTITY@@@ZA[edx*4]
  0009e	ff d0		 call	 eax
$LN1@kill_clien:

; 411  : 	}
; 412  : }

  000a0	5f		 pop	 edi
  000a1	5e		 pop	 esi
  000a2	5b		 pop	 ebx
  000a3	8b e5		 mov	 esp, ebp
  000a5	5d		 pop	 ebp
  000a6	c2 04 00	 ret	 4
?kill_client@@YGXPAUENTITY@@@Z ENDP			; kill_client
_TEXT	ENDS
; Function compile flags: /Odtp /ZI
; File c:\users\nhv90\projects\eech\aphavoc\source\entity\special\group\gp_dstry.c
;	COMDAT ?kill_server@@YGXPAUENTITY@@@Z
_TEXT	SEGMENT
tv83 = -68						; size = 4
_en$ = 8						; size = 4
?kill_server@@YGXPAUENTITY@@@Z PROC			; kill_server, COMDAT

; 372  : {

  00000	55		 push	 ebp
  00001	8b ec		 mov	 ebp, esp
  00003	83 ec 44	 sub	 esp, 68			; 00000044H
  00006	53		 push	 ebx
  00007	56		 push	 esi
  00008	57		 push	 edi

; 373  : 	//
; 374  : 	// kill remote entity first (keeping local entity valid)
; 375  : 	//
; 376  : 
; 377  : 	validate_client_server_remote_fn ();

  00009	e8 00 00 00 00	 call	 ?assert_client_server_remote_fn@@YGHXZ ; assert_client_server_remote_fn
  0000e	85 c0		 test	 eax, eax
  00010	75 18		 jne	 SHORT $LN2@kill_serve
  00012	a1 00 00 00 00	 mov	 eax, DWORD PTR ?__LINE__Var@?0??kill_server@@YGXPAUENTITY@@@Z@4JA
  00017	83 c0 05	 add	 eax, 5
  0001a	50		 push	 eax
  0001b	68 00 00 00 00	 push	 OFFSET ??_C@_0EM@LKNDIMLE@c?3?2users?2nhv90?2projects?2eech?2ap@
  00020	68 00 00 00 00	 push	 OFFSET ??_C@_0CC@BNNNEGEG@assert_client_server_remote_fn?5@
  00025	e8 00 00 00 00	 call	 ?process_assert@@YGXPBD0H@Z ; process_assert
$LN2@kill_serve:

; 378  : 
; 379  : 	kill_remote (en);

  0002a	8b 45 08	 mov	 eax, DWORD PTR _en$[ebp]
  0002d	50		 push	 eax
  0002e	e8 00 00 00 00	 call	 ?kill_remote@@YGXPAUENTITY@@@Z ; kill_remote

; 380  : 
; 381  : 	validate_client_server_local_fn ();

  00033	e8 00 00 00 00	 call	 ?assert_client_server_local_fn@@YGHXZ ; assert_client_server_local_fn
  00038	85 c0		 test	 eax, eax
  0003a	75 18		 jne	 SHORT $LN3@kill_serve
  0003c	a1 00 00 00 00	 mov	 eax, DWORD PTR ?__LINE__Var@?0??kill_server@@YGXPAUENTITY@@@Z@4JA
  00041	83 c0 09	 add	 eax, 9
  00044	50		 push	 eax
  00045	68 00 00 00 00	 push	 OFFSET ??_C@_0EM@LKNDIMLE@c?3?2users?2nhv90?2projects?2eech?2ap@
  0004a	68 00 00 00 00	 push	 OFFSET ??_C@_0CB@CFOCLFOK@assert_client_server_local_fn?5?$CI@
  0004f	e8 00 00 00 00	 call	 ?process_assert@@YGXPBD0H@Z ; process_assert
$LN3@kill_serve:

; 382  : 
; 383  : 	//
; 384  : 	// kill local using 'full' function
; 385  : 	//
; 386  : 
; 387  : 	kill_local_entity (en);

  00054	83 7d 08 00	 cmp	 DWORD PTR _en$[ebp], 0
  00058	74 0a		 je	 SHORT $LN5@kill_serve
  0005a	8b 45 08	 mov	 eax, DWORD PTR _en$[ebp]
  0005d	8b 08		 mov	 ecx, DWORD PTR [eax]
  0005f	89 4d bc	 mov	 DWORD PTR tv83[ebp], ecx
  00062	eb 21		 jmp	 SHORT $LN6@kill_serve
$LN5@kill_serve:
  00064	8b 15 00 00 00
	00		 mov	 edx, DWORD PTR ?__LINE__Var@?0??kill_server@@YGXPAUENTITY@@@Z@4JA
  0006a	83 c2 0f	 add	 edx, 15			; 0000000fH
  0006d	52		 push	 edx
  0006e	68 00 00 00 00	 push	 OFFSET ??_C@_0EM@LKNDIMLE@c?3?2users?2nhv90?2projects?2eech?2ap@
  00073	a1 00 00 00 00	 mov	 eax, DWORD PTR ?null_entity_pointer_message@@3PBDB ; null_entity_pointer_message
  00078	50		 push	 eax
  00079	e8 00 00 00 00	 call	 ?process_assert@@YGXPBD0H@Z ; process_assert
  0007e	c7 45 bc 00 00
	00 00		 mov	 DWORD PTR tv83[ebp], 0
$LN6@kill_serve:
  00085	8b 4d 08	 mov	 ecx, DWORD PTR _en$[ebp]
  00088	51		 push	 ecx
  00089	8b 55 bc	 mov	 edx, DWORD PTR tv83[ebp]
  0008c	8b 04 95 00 00
	00 00		 mov	 eax, DWORD PTR ?fn_kill_local_entity@@3PAP6GXPAUENTITY@@@ZA[edx*4]
  00093	ff d0		 call	 eax

; 388  : }

  00095	5f		 pop	 edi
  00096	5e		 pop	 esi
  00097	5b		 pop	 ebx
  00098	8b e5		 mov	 esp, ebp
  0009a	5d		 pop	 ebp
  0009b	c2 04 00	 ret	 4
?kill_server@@YGXPAUENTITY@@@Z ENDP			; kill_server
_TEXT	ENDS
; Function compile flags: /Odtp /ZI
; File c:\users\nhv90\projects\eech\aphavoc\source\entity\special\group\gp_dstry.c
;	COMDAT ?kill_remote@@YGXPAUENTITY@@@Z
_TEXT	SEGMENT
_en$ = 8						; size = 4
?kill_remote@@YGXPAUENTITY@@@Z PROC			; kill_remote, COMDAT

; 357  : {

  00000	55		 push	 ebp
  00001	8b ec		 mov	 ebp, esp
  00003	83 ec 40	 sub	 esp, 64			; 00000040H
  00006	53		 push	 ebx
  00007	56		 push	 esi
  00008	57		 push	 edi

; 358  : 	#if DEBUG_MODULE >= 2
; 359  : 
; 360  : 	debug_log_entity_args (ENTITY_DEBUG_REMOTE, ENTITY_DEBUG_KILL, en);
; 361  : 
; 362  : 	#endif
; 363  : 
; 364  : 	transmit_entity_comms_message (ENTITY_COMMS_KILL, en);

  00009	8b 45 08	 mov	 eax, DWORD PTR _en$[ebp]
  0000c	50		 push	 eax
  0000d	6a 18		 push	 24			; 00000018H
  0000f	e8 00 00 00 00	 call	 ?transmit_entity_comms_message@@YAXW4ENTITY_COMMS_MESSAGES@@PAUENTITY@@ZZ ; transmit_entity_comms_message
  00014	83 c4 08	 add	 esp, 8

; 365  : }

  00017	5f		 pop	 edi
  00018	5e		 pop	 esi
  00019	5b		 pop	 ebx
  0001a	8b e5		 mov	 esp, ebp
  0001c	5d		 pop	 ebp
  0001d	c2 04 00	 ret	 4
?kill_remote@@YGXPAUENTITY@@@Z ENDP			; kill_remote
_TEXT	ENDS
; Function compile flags: /Odtp /ZI
; File c:\users\nhv90\projects\eech\aphavoc\source\entity\special\group\gp_dstry.c
;	COMDAT ?kill_local@@YGXPAUENTITY@@@Z
_TEXT	SEGMENT
tv242 = -88						; size = 4
tv221 = -88						; size = 4
tv196 = -88						; size = 4
tv171 = -88						; size = 4
tv136 = -88						; size = 4
tv84 = -88						; size = 4
tv234 = -84						; size = 4
tv214 = -84						; size = 4
tv188 = -84						; size = 4
tv163 = -84						; size = 4
tv128 = -84						; size = 4
tv76 = -84						; size = 4
_list_type$ = -16					; size = 4
_force$ = -12						; size = 4
_raw$ = -8						; size = 4
_sub_type$ = -4						; size = 4
_en$ = 8						; size = 4
?kill_local@@YGXPAUENTITY@@@Z PROC			; kill_local, COMDAT

; 266  : {

  00000	55		 push	 ebp
  00001	8b ec		 mov	 ebp, esp
  00003	83 ec 58	 sub	 esp, 88			; 00000058H
  00006	53		 push	 ebx
  00007	56		 push	 esi
  00008	57		 push	 edi

; 267  : 	int
; 268  : 		sub_type;
; 269  : 
; 270  : 	group
; 271  : 		*raw;
; 272  : 
; 273  : 	entity
; 274  : 		*force;
; 275  : 
; 276  : 	list_types
; 277  : 		list_type;
; 278  : 
; 279  : 	ASSERT (en);

  00009	83 7d 08 00	 cmp	 DWORD PTR _en$[ebp], 0
  0000d	75 18		 jne	 SHORT $LN2@kill_local
  0000f	a1 00 00 00 00	 mov	 eax, DWORD PTR ?__LINE__Var@?0??kill_local@@YGXPAUENTITY@@@Z@4JA
  00014	83 c0 0d	 add	 eax, 13			; 0000000dH
  00017	50		 push	 eax
  00018	68 00 00 00 00	 push	 OFFSET ??_C@_0EM@LKNDIMLE@c?3?2users?2nhv90?2projects?2eech?2ap@
  0001d	68 00 00 00 00	 push	 OFFSET ??_C@_02LFNMGJAP@en@
  00022	e8 00 00 00 00	 call	 ?process_assert@@YGXPBD0H@Z ; process_assert
$LN2@kill_local:

; 280  : 
; 281  : 	raw = (group *) get_local_entity_data (en);

  00027	8b 45 08	 mov	 eax, DWORD PTR _en$[ebp]
  0002a	8b 48 04	 mov	 ecx, DWORD PTR [eax+4]
  0002d	89 4d f8	 mov	 DWORD PTR _raw$[ebp], ecx

; 282  : 
; 283  : 	set_local_entity_int_value (en, INT_TYPE_ALIVE, FALSE);

  00030	83 7d 08 00	 cmp	 DWORD PTR _en$[ebp], 0
  00034	74 0a		 je	 SHORT $LN10@kill_local
  00036	8b 45 08	 mov	 eax, DWORD PTR _en$[ebp]
  00039	8b 08		 mov	 ecx, DWORD PTR [eax]
  0003b	89 4d ac	 mov	 DWORD PTR tv76[ebp], ecx
  0003e	eb 21		 jmp	 SHORT $LN11@kill_local
$LN10@kill_local:
  00040	8b 15 00 00 00
	00		 mov	 edx, DWORD PTR ?__LINE__Var@?0??kill_local@@YGXPAUENTITY@@@Z@4JA
  00046	83 c2 11	 add	 edx, 17			; 00000011H
  00049	52		 push	 edx
  0004a	68 00 00 00 00	 push	 OFFSET ??_C@_0EM@LKNDIMLE@c?3?2users?2nhv90?2projects?2eech?2ap@
  0004f	a1 00 00 00 00	 mov	 eax, DWORD PTR ?null_entity_pointer_message@@3PBDB ; null_entity_pointer_message
  00054	50		 push	 eax
  00055	e8 00 00 00 00	 call	 ?process_assert@@YGXPBD0H@Z ; process_assert
  0005a	c7 45 ac 00 00
	00 00		 mov	 DWORD PTR tv76[ebp], 0
$LN11@kill_local:
  00061	b9 01 00 00 00	 mov	 ecx, 1
  00066	85 c9		 test	 ecx, ecx
  00068	74 09		 je	 SHORT $LN12@kill_local
  0006a	c7 45 a8 07 00
	00 00		 mov	 DWORD PTR tv84[ebp], 7
  00071	eb 21		 jmp	 SHORT $LN13@kill_local
$LN12@kill_local:
  00073	8b 15 00 00 00
	00		 mov	 edx, DWORD PTR ?__LINE__Var@?0??kill_local@@YGXPAUENTITY@@@Z@4JA
  00079	83 c2 11	 add	 edx, 17			; 00000011H
  0007c	52		 push	 edx
  0007d	68 00 00 00 00	 push	 OFFSET ??_C@_0EM@LKNDIMLE@c?3?2users?2nhv90?2projects?2eech?2ap@
  00082	a1 00 00 00 00	 mov	 eax, DWORD PTR ?overload_invalid_int_type_message@@3PBDB ; overload_invalid_int_type_message
  00087	50		 push	 eax
  00088	e8 00 00 00 00	 call	 ?process_assert@@YGXPBD0H@Z ; process_assert
  0008d	c7 45 a8 00 00
	00 00		 mov	 DWORD PTR tv84[ebp], 0
$LN13@kill_local:
  00094	6a 00		 push	 0
  00096	6a 07		 push	 7
  00098	8b 4d 08	 mov	 ecx, DWORD PTR _en$[ebp]
  0009b	51		 push	 ecx
  0009c	69 55 ac 5c 04
	00 00		 imul	 edx, DWORD PTR tv76[ebp], 1116
  000a3	8b 45 a8	 mov	 eax, DWORD PTR tv84[ebp]
  000a6	8b 8c 82 00 00
	00 00		 mov	 ecx, DWORD PTR ?fn_set_local_entity_int_value@@3PAY0BBH@P6GXPAUENTITY@@W4INT_TYPES@@H@ZA[edx+eax*4]
  000ad	ff d1		 call	 ecx

; 284  : 
; 285  : 	list_type = (list_types) get_local_entity_int_value (en, INT_TYPE_REGISTRY_LIST_TYPE);

  000af	83 7d 08 00	 cmp	 DWORD PTR _en$[ebp], 0
  000b3	74 0a		 je	 SHORT $LN14@kill_local
  000b5	8b 45 08	 mov	 eax, DWORD PTR _en$[ebp]
  000b8	8b 08		 mov	 ecx, DWORD PTR [eax]
  000ba	89 4d ac	 mov	 DWORD PTR tv128[ebp], ecx
  000bd	eb 21		 jmp	 SHORT $LN15@kill_local
$LN14@kill_local:
  000bf	8b 15 00 00 00
	00		 mov	 edx, DWORD PTR ?__LINE__Var@?0??kill_local@@YGXPAUENTITY@@@Z@4JA
  000c5	83 c2 13	 add	 edx, 19			; 00000013H
  000c8	52		 push	 edx
  000c9	68 00 00 00 00	 push	 OFFSET ??_C@_0EM@LKNDIMLE@c?3?2users?2nhv90?2projects?2eech?2ap@
  000ce	a1 00 00 00 00	 mov	 eax, DWORD PTR ?null_entity_pointer_message@@3PBDB ; null_entity_pointer_message
  000d3	50		 push	 eax
  000d4	e8 00 00 00 00	 call	 ?process_assert@@YGXPBD0H@Z ; process_assert
  000d9	c7 45 ac 00 00
	00 00		 mov	 DWORD PTR tv128[ebp], 0
$LN15@kill_local:
  000e0	b9 01 00 00 00	 mov	 ecx, 1
  000e5	85 c9		 test	 ecx, ecx
  000e7	74 09		 je	 SHORT $LN16@kill_local
  000e9	c7 45 a8 ae 00
	00 00		 mov	 DWORD PTR tv136[ebp], 174 ; 000000aeH
  000f0	eb 21		 jmp	 SHORT $LN17@kill_local
$LN16@kill_local:
  000f2	8b 15 00 00 00
	00		 mov	 edx, DWORD PTR ?__LINE__Var@?0??kill_local@@YGXPAUENTITY@@@Z@4JA
  000f8	83 c2 13	 add	 edx, 19			; 00000013H
  000fb	52		 push	 edx
  000fc	68 00 00 00 00	 push	 OFFSET ??_C@_0EM@LKNDIMLE@c?3?2users?2nhv90?2projects?2eech?2ap@
  00101	a1 00 00 00 00	 mov	 eax, DWORD PTR ?overload_invalid_int_type_message@@3PBDB ; overload_invalid_int_type_message
  00106	50		 push	 eax
  00107	e8 00 00 00 00	 call	 ?process_assert@@YGXPBD0H@Z ; process_assert
  0010c	c7 45 a8 00 00
	00 00		 mov	 DWORD PTR tv136[ebp], 0
$LN17@kill_local:
  00113	68 ae 00 00 00	 push	 174			; 000000aeH
  00118	8b 4d 08	 mov	 ecx, DWORD PTR _en$[ebp]
  0011b	51		 push	 ecx
  0011c	69 55 ac 5c 04
	00 00		 imul	 edx, DWORD PTR tv128[ebp], 1116
  00123	8b 45 a8	 mov	 eax, DWORD PTR tv136[ebp]
  00126	8b 8c 82 00 00
	00 00		 mov	 ecx, DWORD PTR ?fn_get_local_entity_int_value@@3PAY0BBH@P6GHPAUENTITY@@W4INT_TYPES@@@ZA[edx+eax*4]
  0012d	ff d1		 call	 ecx
  0012f	89 45 f0	 mov	 DWORD PTR _list_type$[ebp], eax

; 286  : 
; 287  : 	if (list_type != LIST_TYPE_INVALID)

  00132	83 7d f0 00	 cmp	 DWORD PTR _list_type$[ebp], 0
  00136	74 45		 je	 SHORT $LN3@kill_local

; 288  : 	{
; 289  : 		force = get_local_force_entity ((entity_sides) raw->side);

  00138	8b 45 f8	 mov	 eax, DWORD PTR _raw$[ebp]
  0013b	8b 88 8c 00 00
	00		 mov	 ecx, DWORD PTR [eax+140]
  00141	c1 e9 0a	 shr	 ecx, 10			; 0000000aH
  00144	83 e1 03	 and	 ecx, 3
  00147	51		 push	 ecx
  00148	e8 00 00 00 00	 call	 ?get_local_force_entity@@YGPAUENTITY@@W4ENTITY_SIDES@@@Z ; get_local_force_entity
  0014d	89 45 f4	 mov	 DWORD PTR _force$[ebp], eax

; 290  : 
; 291  : 		ASSERT (force);

  00150	83 7d f4 00	 cmp	 DWORD PTR _force$[ebp], 0
  00154	75 18		 jne	 SHORT $LN4@kill_local
  00156	a1 00 00 00 00	 mov	 eax, DWORD PTR ?__LINE__Var@?0??kill_local@@YGXPAUENTITY@@@Z@4JA
  0015b	83 c0 19	 add	 eax, 25			; 00000019H
  0015e	50		 push	 eax
  0015f	68 00 00 00 00	 push	 OFFSET ??_C@_0EM@LKNDIMLE@c?3?2users?2nhv90?2projects?2eech?2ap@
  00164	68 00 00 00 00	 push	 OFFSET ??_C@_05BINPNAAL@force@
  00169	e8 00 00 00 00	 call	 ?process_assert@@YGXPBD0H@Z ; process_assert
$LN4@kill_local:

; 292  : 
; 293  : 		remove_group_type_from_force_info (force, raw->sub_type);

  0016e	8b 45 f8	 mov	 eax, DWORD PTR _raw$[ebp]
  00171	8b 08		 mov	 ecx, DWORD PTR [eax]
  00173	51		 push	 ecx
  00174	8b 55 f4	 mov	 edx, DWORD PTR _force$[ebp]
  00177	52		 push	 edx
  00178	e8 00 00 00 00	 call	 ?remove_group_type_from_force_info@@YGXPAUENTITY@@H@Z ; remove_group_type_from_force_info
$LN3@kill_local:

; 294  : 	}
; 295  : 
; 296  : 	//
; 297  : 	// Free callsign
; 298  : 	//
; 299  : 
; 300  : 	free_group_callsign (en);

  0017d	8b 45 08	 mov	 eax, DWORD PTR _en$[ebp]
  00180	50		 push	 eax
  00181	e8 00 00 00 00	 call	 ?free_group_callsign@@YGXPAUENTITY@@@Z ; free_group_callsign

; 301  : 
; 302  : 	//
; 303  : 	// Group MUST be Empty, and have NO TASKS
; 304  : 	//
; 305  : 
; 306  : 	ASSERT (!get_local_entity_first_child (en, LIST_TYPE_MEMBER));

  00186	83 7d 08 00	 cmp	 DWORD PTR _en$[ebp], 0
  0018a	74 0a		 je	 SHORT $LN18@kill_local
  0018c	8b 45 08	 mov	 eax, DWORD PTR _en$[ebp]
  0018f	8b 08		 mov	 ecx, DWORD PTR [eax]
  00191	89 4d ac	 mov	 DWORD PTR tv163[ebp], ecx
  00194	eb 21		 jmp	 SHORT $LN19@kill_local
$LN18@kill_local:
  00196	8b 15 00 00 00
	00		 mov	 edx, DWORD PTR ?__LINE__Var@?0??kill_local@@YGXPAUENTITY@@@Z@4JA
  0019c	83 c2 28	 add	 edx, 40			; 00000028H
  0019f	52		 push	 edx
  001a0	68 00 00 00 00	 push	 OFFSET ??_C@_0EM@LKNDIMLE@c?3?2users?2nhv90?2projects?2eech?2ap@
  001a5	a1 00 00 00 00	 mov	 eax, DWORD PTR ?null_entity_pointer_message@@3PBDB ; null_entity_pointer_message
  001aa	50		 push	 eax
  001ab	e8 00 00 00 00	 call	 ?process_assert@@YGXPBD0H@Z ; process_assert
  001b0	c7 45 ac 00 00
	00 00		 mov	 DWORD PTR tv163[ebp], 0
$LN19@kill_local:
  001b7	b9 01 00 00 00	 mov	 ecx, 1
  001bc	85 c9		 test	 ecx, ecx
  001be	74 09		 je	 SHORT $LN20@kill_local
  001c0	c7 45 a8 19 00
	00 00		 mov	 DWORD PTR tv171[ebp], 25 ; 00000019H
  001c7	eb 21		 jmp	 SHORT $LN21@kill_local
$LN20@kill_local:
  001c9	8b 15 00 00 00
	00		 mov	 edx, DWORD PTR ?__LINE__Var@?0??kill_local@@YGXPAUENTITY@@@Z@4JA
  001cf	83 c2 28	 add	 edx, 40			; 00000028H
  001d2	52		 push	 edx
  001d3	68 00 00 00 00	 push	 OFFSET ??_C@_0EM@LKNDIMLE@c?3?2users?2nhv90?2projects?2eech?2ap@
  001d8	a1 00 00 00 00	 mov	 eax, DWORD PTR ?overload_invalid_list_type_message@@3PBDB ; overload_invalid_list_type_message
  001dd	50		 push	 eax
  001de	e8 00 00 00 00	 call	 ?process_assert@@YGXPBD0H@Z ; process_assert
  001e3	c7 45 a8 00 00
	00 00		 mov	 DWORD PTR tv171[ebp], 0
$LN21@kill_local:
  001ea	6a 19		 push	 25			; 00000019H
  001ec	8b 4d 08	 mov	 ecx, DWORD PTR _en$[ebp]
  001ef	51		 push	 ecx
  001f0	69 55 ac b4 00
	00 00		 imul	 edx, DWORD PTR tv163[ebp], 180
  001f7	8b 45 a8	 mov	 eax, DWORD PTR tv171[ebp]
  001fa	8b 8c 82 00 00
	00 00		 mov	 ecx, DWORD PTR ?fn_get_local_entity_first_child@@3PAY0CN@P6GPAUENTITY@@PAU1@W4LIST_TYPES@@@ZA[edx+eax*4]
  00201	ff d1		 call	 ecx
  00203	85 c0		 test	 eax, eax
  00205	74 18		 je	 SHORT $LN5@kill_local
  00207	a1 00 00 00 00	 mov	 eax, DWORD PTR ?__LINE__Var@?0??kill_local@@YGXPAUENTITY@@@Z@4JA
  0020c	83 c0 28	 add	 eax, 40			; 00000028H
  0020f	50		 push	 eax
  00210	68 00 00 00 00	 push	 OFFSET ??_C@_0EM@LKNDIMLE@c?3?2users?2nhv90?2projects?2eech?2ap@
  00215	68 00 00 00 00	 push	 OFFSET ??_C@_0DF@DMBLHEKG@?$CBget_local_entity_first_child?5?$CI@
  0021a	e8 00 00 00 00	 call	 ?process_assert@@YGXPBD0H@Z ; process_assert
$LN5@kill_local:

; 307  : 
; 308  : 	ASSERT (!get_local_entity_first_child (en, LIST_TYPE_GUIDE_STACK));

  0021f	83 7d 08 00	 cmp	 DWORD PTR _en$[ebp], 0
  00223	74 0a		 je	 SHORT $LN22@kill_local
  00225	8b 45 08	 mov	 eax, DWORD PTR _en$[ebp]
  00228	8b 08		 mov	 ecx, DWORD PTR [eax]
  0022a	89 4d ac	 mov	 DWORD PTR tv188[ebp], ecx
  0022d	eb 21		 jmp	 SHORT $LN23@kill_local
$LN22@kill_local:
  0022f	8b 15 00 00 00
	00		 mov	 edx, DWORD PTR ?__LINE__Var@?0??kill_local@@YGXPAUENTITY@@@Z@4JA
  00235	83 c2 2a	 add	 edx, 42			; 0000002aH
  00238	52		 push	 edx
  00239	68 00 00 00 00	 push	 OFFSET ??_C@_0EM@LKNDIMLE@c?3?2users?2nhv90?2projects?2eech?2ap@
  0023e	a1 00 00 00 00	 mov	 eax, DWORD PTR ?null_entity_pointer_message@@3PBDB ; null_entity_pointer_message
  00243	50		 push	 eax
  00244	e8 00 00 00 00	 call	 ?process_assert@@YGXPBD0H@Z ; process_assert
  00249	c7 45 ac 00 00
	00 00		 mov	 DWORD PTR tv188[ebp], 0
$LN23@kill_local:
  00250	b9 01 00 00 00	 mov	 ecx, 1
  00255	85 c9		 test	 ecx, ecx
  00257	74 09		 je	 SHORT $LN24@kill_local
  00259	c7 45 a8 11 00
	00 00		 mov	 DWORD PTR tv196[ebp], 17 ; 00000011H
  00260	eb 21		 jmp	 SHORT $LN25@kill_local
$LN24@kill_local:
  00262	8b 15 00 00 00
	00		 mov	 edx, DWORD PTR ?__LINE__Var@?0??kill_local@@YGXPAUENTITY@@@Z@4JA
  00268	83 c2 2a	 add	 edx, 42			; 0000002aH
  0026b	52		 push	 edx
  0026c	68 00 00 00 00	 push	 OFFSET ??_C@_0EM@LKNDIMLE@c?3?2users?2nhv90?2projects?2eech?2ap@
  00271	a1 00 00 00 00	 mov	 eax, DWORD PTR ?overload_invalid_list_type_message@@3PBDB ; overload_invalid_list_type_message
  00276	50		 push	 eax
  00277	e8 00 00 00 00	 call	 ?process_assert@@YGXPBD0H@Z ; process_assert
  0027c	c7 45 a8 00 00
	00 00		 mov	 DWORD PTR tv196[ebp], 0
$LN25@kill_local:
  00283	6a 11		 push	 17			; 00000011H
  00285	8b 4d 08	 mov	 ecx, DWORD PTR _en$[ebp]
  00288	51		 push	 ecx
  00289	69 55 ac b4 00
	00 00		 imul	 edx, DWORD PTR tv188[ebp], 180
  00290	8b 45 a8	 mov	 eax, DWORD PTR tv196[ebp]
  00293	8b 8c 82 00 00
	00 00		 mov	 ecx, DWORD PTR ?fn_get_local_entity_first_child@@3PAY0CN@P6GPAUENTITY@@PAU1@W4LIST_TYPES@@@ZA[edx+eax*4]
  0029a	ff d1		 call	 ecx
  0029c	85 c0		 test	 eax, eax
  0029e	74 18		 je	 SHORT $LN6@kill_local
  002a0	a1 00 00 00 00	 mov	 eax, DWORD PTR ?__LINE__Var@?0??kill_local@@YGXPAUENTITY@@@Z@4JA
  002a5	83 c0 2a	 add	 eax, 42			; 0000002aH
  002a8	50		 push	 eax
  002a9	68 00 00 00 00	 push	 OFFSET ??_C@_0EM@LKNDIMLE@c?3?2users?2nhv90?2projects?2eech?2ap@
  002ae	68 00 00 00 00	 push	 OFFSET ??_C@_0DK@GDIDELDJ@?$CBget_local_entity_first_child?5?$CI@
  002b3	e8 00 00 00 00	 call	 ?process_assert@@YGXPBD0H@Z ; process_assert
$LN6@kill_local:

; 309  : 
; 310  : 	//
; 311  : 	// Notify Campaign Screen (should be done before unlinked from keysite)
; 312  : 	//
; 313  : 
; 314  : 	notify_campaign_screen (CAMPAIGN_SCREEN_GROUP_DESTROYED, en);

  002b8	8b 45 08	 mov	 eax, DWORD PTR _en$[ebp]
  002bb	50		 push	 eax
  002bc	6a 05		 push	 5
  002be	e8 00 00 00 00	 call	 ?notify_campaign_screen@@YGHW4CAMPAIGN_SCREEN_MESSAGES@@PAUENTITY@@@Z ; notify_campaign_screen

; 315  : 
; 316  : 	//
; 317  : 	// Kill
; 318  : 	//
; 319  : 	
; 320  : 	if (get_local_entity_int_value (en, INT_TYPE_LOCAL_ONLY_GROUP))

  002c3	83 7d 08 00	 cmp	 DWORD PTR _en$[ebp], 0
  002c7	74 0a		 je	 SHORT $LN26@kill_local
  002c9	8b 45 08	 mov	 eax, DWORD PTR _en$[ebp]
  002cc	8b 08		 mov	 ecx, DWORD PTR [eax]
  002ce	89 4d ac	 mov	 DWORD PTR tv214[ebp], ecx
  002d1	eb 1d		 jmp	 SHORT $LN27@kill_local
$LN26@kill_local:
  002d3	68 40 01 00 00	 push	 320			; 00000140H
  002d8	68 00 00 00 00	 push	 OFFSET ??_C@_0EM@LKNDIMLE@c?3?2users?2nhv90?2projects?2eech?2ap@
  002dd	8b 15 00 00 00
	00		 mov	 edx, DWORD PTR ?null_entity_pointer_message@@3PBDB ; null_entity_pointer_message
  002e3	52		 push	 edx
  002e4	e8 00 00 00 00	 call	 ?process_assert@@YGXPBD0H@Z ; process_assert
  002e9	c7 45 ac 00 00
	00 00		 mov	 DWORD PTR tv214[ebp], 0
$LN27@kill_local:
  002f0	b8 01 00 00 00	 mov	 eax, 1
  002f5	85 c0		 test	 eax, eax
  002f7	74 09		 je	 SHORT $LN28@kill_local
  002f9	c7 45 a8 7c 00
	00 00		 mov	 DWORD PTR tv221[ebp], 124 ; 0000007cH
  00300	eb 1d		 jmp	 SHORT $LN29@kill_local
$LN28@kill_local:
  00302	68 40 01 00 00	 push	 320			; 00000140H
  00307	68 00 00 00 00	 push	 OFFSET ??_C@_0EM@LKNDIMLE@c?3?2users?2nhv90?2projects?2eech?2ap@
  0030c	8b 0d 00 00 00
	00		 mov	 ecx, DWORD PTR ?overload_invalid_int_type_message@@3PBDB ; overload_invalid_int_type_message
  00312	51		 push	 ecx
  00313	e8 00 00 00 00	 call	 ?process_assert@@YGXPBD0H@Z ; process_assert
  00318	c7 45 a8 00 00
	00 00		 mov	 DWORD PTR tv221[ebp], 0
$LN29@kill_local:
  0031f	6a 7c		 push	 124			; 0000007cH
  00321	8b 55 08	 mov	 edx, DWORD PTR _en$[ebp]
  00324	52		 push	 edx
  00325	69 45 ac 5c 04
	00 00		 imul	 eax, DWORD PTR tv214[ebp], 1116
  0032c	8b 4d a8	 mov	 ecx, DWORD PTR tv221[ebp]
  0032f	8b 94 88 00 00
	00 00		 mov	 edx, DWORD PTR ?fn_get_local_entity_int_value@@3PAY0BBH@P6GHPAUENTITY@@W4INT_TYPES@@@ZA[eax+ecx*4]
  00336	ff d2		 call	 edx
  00338	85 c0		 test	 eax, eax
  0033a	0f 84 d6 00 00
	00		 je	 $LN7@kill_local

; 321  : 	{
; 322  : 		//
; 323  : 		// local only groups must not be re-used otherwise they will clash when a game is saved + restored
; 324  : 		//
; 325  : 
; 326  : 		sub_type = get_local_entity_int_value (en, INT_TYPE_ENTITY_SUB_TYPE);

  00340	83 7d 08 00	 cmp	 DWORD PTR _en$[ebp], 0
  00344	74 0a		 je	 SHORT $LN30@kill_local
  00346	8b 45 08	 mov	 eax, DWORD PTR _en$[ebp]
  00349	8b 08		 mov	 ecx, DWORD PTR [eax]
  0034b	89 4d ac	 mov	 DWORD PTR tv234[ebp], ecx
  0034e	eb 21		 jmp	 SHORT $LN31@kill_local
$LN30@kill_local:
  00350	8b 15 00 00 00
	00		 mov	 edx, DWORD PTR ?__LINE__Var@?0??kill_local@@YGXPAUENTITY@@@Z@4JA
  00356	83 c2 3c	 add	 edx, 60			; 0000003cH
  00359	52		 push	 edx
  0035a	68 00 00 00 00	 push	 OFFSET ??_C@_0EM@LKNDIMLE@c?3?2users?2nhv90?2projects?2eech?2ap@
  0035f	a1 00 00 00 00	 mov	 eax, DWORD PTR ?null_entity_pointer_message@@3PBDB ; null_entity_pointer_message
  00364	50		 push	 eax
  00365	e8 00 00 00 00	 call	 ?process_assert@@YGXPBD0H@Z ; process_assert
  0036a	c7 45 ac 00 00
	00 00		 mov	 DWORD PTR tv234[ebp], 0
$LN31@kill_local:
  00371	b9 01 00 00 00	 mov	 ecx, 1
  00376	85 c9		 test	 ecx, ecx
  00378	74 09		 je	 SHORT $LN32@kill_local
  0037a	c7 45 a8 34 00
	00 00		 mov	 DWORD PTR tv242[ebp], 52 ; 00000034H
  00381	eb 21		 jmp	 SHORT $LN33@kill_local
$LN32@kill_local:
  00383	8b 15 00 00 00
	00		 mov	 edx, DWORD PTR ?__LINE__Var@?0??kill_local@@YGXPAUENTITY@@@Z@4JA
  00389	83 c2 3c	 add	 edx, 60			; 0000003cH
  0038c	52		 push	 edx
  0038d	68 00 00 00 00	 push	 OFFSET ??_C@_0EM@LKNDIMLE@c?3?2users?2nhv90?2projects?2eech?2ap@
  00392	a1 00 00 00 00	 mov	 eax, DWORD PTR ?overload_invalid_int_type_message@@3PBDB ; overload_invalid_int_type_message
  00397	50		 push	 eax
  00398	e8 00 00 00 00	 call	 ?process_assert@@YGXPBD0H@Z ; process_assert
  0039d	c7 45 a8 00 00
	00 00		 mov	 DWORD PTR tv242[ebp], 0
$LN33@kill_local:
  003a4	6a 34		 push	 52			; 00000034H
  003a6	8b 4d 08	 mov	 ecx, DWORD PTR _en$[ebp]
  003a9	51		 push	 ecx
  003aa	69 55 ac 5c 04
	00 00		 imul	 edx, DWORD PTR tv234[ebp], 1116
  003b1	8b 45 a8	 mov	 eax, DWORD PTR tv242[ebp]
  003b4	8b 8c 82 00 00
	00 00		 mov	 ecx, DWORD PTR ?fn_get_local_entity_int_value@@3PAY0BBH@P6GHPAUENTITY@@W4INT_TYPES@@@ZA[edx+eax*4]
  003bb	ff d1		 call	 ecx
  003bd	89 45 fc	 mov	 DWORD PTR _sub_type$[ebp], eax

; 327  : 
; 328  : 		delete_local_entity_from_parents_child_list (en, LIST_TYPE_TASK_DEPENDENT);

  003c0	6a 27		 push	 39			; 00000027H
  003c2	8b 45 08	 mov	 eax, DWORD PTR _en$[ebp]
  003c5	50		 push	 eax
  003c6	e8 00 00 00 00	 call	 ?delete_local_entity_from_parents_child_list@@YGXPAUENTITY@@W4LIST_TYPES@@@Z ; delete_local_entity_from_parents_child_list

; 329  : 
; 330  : 		unlink_local_entity_children (en, LIST_TYPE_TASK_DEPENDENT);

  003cb	6a 27		 push	 39			; 00000027H
  003cd	8b 45 08	 mov	 eax, DWORD PTR _en$[ebp]
  003d0	50		 push	 eax
  003d1	e8 00 00 00 00	 call	 ?unlink_local_entity_children@@YGXPAUENTITY@@W4LIST_TYPES@@@Z ; unlink_local_entity_children

; 331  : 
; 332  : 		unlink_local_entity_children (en, LIST_TYPE_GUIDE_STACK);

  003d6	6a 11		 push	 17			; 00000011H
  003d8	8b 45 08	 mov	 eax, DWORD PTR _en$[ebp]
  003db	50		 push	 eax
  003dc	e8 00 00 00 00	 call	 ?unlink_local_entity_children@@YGXPAUENTITY@@W4LIST_TYPES@@@Z ; unlink_local_entity_children

; 333  : 
; 334  : 		delete_local_entity_from_parents_child_list (en, raw->group_list_type);

  003e1	8b 45 f8	 mov	 eax, DWORD PTR _raw$[ebp]
  003e4	8b 48 58	 mov	 ecx, DWORD PTR [eax+88]
  003e7	51		 push	 ecx
  003e8	8b 55 08	 mov	 edx, DWORD PTR _en$[ebp]
  003eb	52		 push	 edx
  003ec	e8 00 00 00 00	 call	 ?delete_local_entity_from_parents_child_list@@YGXPAUENTITY@@W4LIST_TYPES@@@Z ; delete_local_entity_from_parents_child_list

; 335  : 
; 336  : 		delete_local_entity_from_parents_child_list (en, list_type);

  003f1	8b 45 f0	 mov	 eax, DWORD PTR _list_type$[ebp]
  003f4	50		 push	 eax
  003f5	8b 4d 08	 mov	 ecx, DWORD PTR _en$[ebp]
  003f8	51		 push	 ecx
  003f9	e8 00 00 00 00	 call	 ?delete_local_entity_from_parents_child_list@@YGXPAUENTITY@@W4LIST_TYPES@@@Z ; delete_local_entity_from_parents_child_list

; 337  : 	
; 338  : 		delete_local_entity_from_parents_child_list (en, LIST_TYPE_PILOT_LOCK);

  003fe	6a 1d		 push	 29			; 0000001dH
  00400	8b 45 08	 mov	 eax, DWORD PTR _en$[ebp]
  00403	50		 push	 eax
  00404	e8 00 00 00 00	 call	 ?delete_local_entity_from_parents_child_list@@YGXPAUENTITY@@W4LIST_TYPES@@@Z ; delete_local_entity_from_parents_child_list

; 339  : 
; 340  : 		delete_local_entity_from_parents_child_list (en, LIST_TYPE_UPDATE);

  00409	6a 29		 push	 41			; 00000029H
  0040b	8b 45 08	 mov	 eax, DWORD PTR _en$[ebp]
  0040e	50		 push	 eax
  0040f	e8 00 00 00 00	 call	 ?delete_local_entity_from_parents_child_list@@YGXPAUENTITY@@W4LIST_TYPES@@@Z ; delete_local_entity_from_parents_child_list

; 341  : 	}
; 342  : 	else

  00414	eb 09		 jmp	 SHORT $LN1@kill_local
$LN7@kill_local:

; 343  : 	{
; 344  : 		//
; 345  : 		// Destroy entity
; 346  : 		//
; 347  : 
; 348  : 		destroy_local_entity (en);

  00416	8b 45 08	 mov	 eax, DWORD PTR _en$[ebp]
  00419	50		 push	 eax
  0041a	e8 00 00 00 00	 call	 ?destroy_local_entity@@YGXPAUENTITY@@@Z ; destroy_local_entity
$LN1@kill_local:

; 349  : 	}
; 350  : }

  0041f	5f		 pop	 edi
  00420	5e		 pop	 esi
  00421	5b		 pop	 ebx
  00422	8b e5		 mov	 esp, ebp
  00424	5d		 pop	 ebp
  00425	c2 04 00	 ret	 4
?kill_local@@YGXPAUENTITY@@@Z ENDP			; kill_local
_TEXT	ENDS
; Function compile flags: /Odtp /ZI
; File c:\users\nhv90\projects\eech\aphavoc\source\entity\special\group\gp_dstry.c
;	COMDAT ?destroy_client_family@@YGXPAUENTITY@@@Z
_TEXT	SEGMENT
_en$ = 8						; size = 4
?destroy_client_family@@YGXPAUENTITY@@@Z PROC		; destroy_client_family, COMDAT

; 251  : {

  00000	55		 push	 ebp
  00001	8b ec		 mov	 ebp, esp
  00003	83 ec 40	 sub	 esp, 64			; 00000040H
  00006	53		 push	 ebx
  00007	56		 push	 esi
  00008	57		 push	 edi

; 252  : 	#if DEBUG_MODULE
; 253  : 
; 254  : 	debug_log_entity_args (ENTITY_DEBUG_REMOTE, ENTITY_DEBUG_DESTROY_FAMILY, en);
; 255  : 
; 256  : 	#endif
; 257  : 
; 258  : 	transmit_entity_comms_message (ENTITY_COMMS_DESTROY_FAMILY, en);

  00009	8b 45 08	 mov	 eax, DWORD PTR _en$[ebp]
  0000c	50		 push	 eax
  0000d	6a 13		 push	 19			; 00000013H
  0000f	e8 00 00 00 00	 call	 ?transmit_entity_comms_message@@YAXW4ENTITY_COMMS_MESSAGES@@PAUENTITY@@ZZ ; transmit_entity_comms_message
  00014	83 c4 08	 add	 esp, 8

; 259  : }

  00017	5f		 pop	 edi
  00018	5e		 pop	 esi
  00019	5b		 pop	 ebx
  0001a	8b e5		 mov	 esp, ebp
  0001c	5d		 pop	 ebp
  0001d	c2 04 00	 ret	 4
?destroy_client_family@@YGXPAUENTITY@@@Z ENDP		; destroy_client_family
_TEXT	ENDS
; Function compile flags: /Odtp /ZI
; File c:\users\nhv90\projects\eech\aphavoc\source\entity\special\group\gp_dstry.c
;	COMDAT ?destroy_server_family@@YGXPAUENTITY@@@Z
_TEXT	SEGMENT
tv72 = -68						; size = 4
_en$ = 8						; size = 4
?destroy_server_family@@YGXPAUENTITY@@@Z PROC		; destroy_server_family, COMDAT

; 240  : {

  00000	55		 push	 ebp
  00001	8b ec		 mov	 ebp, esp
  00003	83 ec 44	 sub	 esp, 68			; 00000044H
  00006	53		 push	 ebx
  00007	56		 push	 esi
  00008	57		 push	 edi

; 241  : 	destroy_client_server_entity_children (en, LIST_TYPE_MEMBER);

  00009	6a 19		 push	 25			; 00000019H
  0000b	8b 45 08	 mov	 eax, DWORD PTR _en$[ebp]
  0000e	50		 push	 eax
  0000f	e8 00 00 00 00	 call	 ?destroy_client_server_entity_children@@YGXPAUENTITY@@W4LIST_TYPES@@@Z ; destroy_client_server_entity_children

; 242  : 
; 243  : 	destroy_client_server_entity (en);

  00014	83 7d 08 00	 cmp	 DWORD PTR _en$[ebp], 0
  00018	74 0a		 je	 SHORT $LN3@destroy_se
  0001a	8b 45 08	 mov	 eax, DWORD PTR _en$[ebp]
  0001d	8b 08		 mov	 ecx, DWORD PTR [eax]
  0001f	89 4d bc	 mov	 DWORD PTR tv72[ebp], ecx
  00022	eb 21		 jmp	 SHORT $LN4@destroy_se
$LN3@destroy_se:
  00024	8b 15 00 00 00
	00		 mov	 edx, DWORD PTR ?__LINE__Var@?0??destroy_server_family@@YGXPAUENTITY@@@Z@4JA
  0002a	83 c2 03	 add	 edx, 3
  0002d	52		 push	 edx
  0002e	68 00 00 00 00	 push	 OFFSET ??_C@_0EM@LKNDIMLE@c?3?2users?2nhv90?2projects?2eech?2ap@
  00033	a1 00 00 00 00	 mov	 eax, DWORD PTR ?null_entity_pointer_message@@3PBDB ; null_entity_pointer_message
  00038	50		 push	 eax
  00039	e8 00 00 00 00	 call	 ?process_assert@@YGXPBD0H@Z ; process_assert
  0003e	c7 45 bc 00 00
	00 00		 mov	 DWORD PTR tv72[ebp], 0
$LN4@destroy_se:
  00045	8b 4d 08	 mov	 ecx, DWORD PTR _en$[ebp]
  00048	51		 push	 ecx
  00049	8b 15 00 00 00
	00		 mov	 edx, DWORD PTR ?system_comms_model@@3W4COMMS_MODEL_TYPES@@A ; system_comms_model
  0004f	c1 e2 02	 shl	 edx, 2
  00052	8b 45 bc	 mov	 eax, DWORD PTR tv72[ebp]
  00055	8b 8c c2 00 00
	00 00		 mov	 ecx, DWORD PTR ?fn_destroy_client_server_entity@@3PAY01P6GXPAUENTITY@@@ZA[edx+eax*8]
  0005c	ff d1		 call	 ecx

; 244  : }

  0005e	5f		 pop	 edi
  0005f	5e		 pop	 esi
  00060	5b		 pop	 ebx
  00061	8b e5		 mov	 esp, ebp
  00063	5d		 pop	 ebp
  00064	c2 04 00	 ret	 4
?destroy_server_family@@YGXPAUENTITY@@@Z ENDP		; destroy_server_family
_TEXT	ENDS
; Function compile flags: /Odtp /ZI
; File c:\users\nhv90\projects\eech\aphavoc\source\entity\special\group\gp_dstry.c
;	COMDAT ?destroy_local_family@@YGXPAUENTITY@@@Z
_TEXT	SEGMENT
_en$ = 8						; size = 4
?destroy_local_family@@YGXPAUENTITY@@@Z PROC		; destroy_local_family, COMDAT

; 229  : {

  00000	55		 push	 ebp
  00001	8b ec		 mov	 ebp, esp
  00003	83 ec 40	 sub	 esp, 64			; 00000040H
  00006	53		 push	 ebx
  00007	56		 push	 esi
  00008	57		 push	 edi

; 230  : 	destroy_local_entity_children (en, LIST_TYPE_MEMBER);

  00009	6a 19		 push	 25			; 00000019H
  0000b	8b 45 08	 mov	 eax, DWORD PTR _en$[ebp]
  0000e	50		 push	 eax
  0000f	e8 00 00 00 00	 call	 ?destroy_local_entity_children@@YGXPAUENTITY@@W4LIST_TYPES@@@Z ; destroy_local_entity_children

; 231  : 
; 232  : 	destroy_local_entity (en);

  00014	8b 45 08	 mov	 eax, DWORD PTR _en$[ebp]
  00017	50		 push	 eax
  00018	e8 00 00 00 00	 call	 ?destroy_local_entity@@YGXPAUENTITY@@@Z ; destroy_local_entity

; 233  : }

  0001d	5f		 pop	 edi
  0001e	5e		 pop	 esi
  0001f	5b		 pop	 ebx
  00020	8b e5		 mov	 esp, ebp
  00022	5d		 pop	 ebp
  00023	c2 04 00	 ret	 4
?destroy_local_family@@YGXPAUENTITY@@@Z ENDP		; destroy_local_family
_TEXT	ENDS
; Function compile flags: /Odtp /ZI
; File c:\users\nhv90\projects\eech\aphavoc\source\entity\special\group\gp_dstry.c
;	COMDAT ?destroy_client@@YGXPAUENTITY@@@Z
_TEXT	SEGMENT
_en$ = 8						; size = 4
?destroy_client@@YGXPAUENTITY@@@Z PROC			; destroy_client, COMDAT

; 205  : {

  00000	55		 push	 ebp
  00001	8b ec		 mov	 ebp, esp
  00003	83 ec 40	 sub	 esp, 64			; 00000040H
  00006	53		 push	 ebx
  00007	56		 push	 esi
  00008	57		 push	 edi

; 206  : 	if (get_comms_data_flow () == COMMS_DATA_FLOW_TX)

  00009	83 3d 00 00 00
	00 00		 cmp	 DWORD PTR ?system_comms_data_flow@@3W4COMMS_DATA_FLOW_TYPES@@A, 0 ; system_comms_data_flow
  00010	75 2c		 jne	 SHORT $LN2@destroy_cl

; 207  : 	{
; 208  : 		validate_client_server_remote_fn ();

  00012	e8 00 00 00 00	 call	 ?assert_client_server_remote_fn@@YGHXZ ; assert_client_server_remote_fn
  00017	85 c0		 test	 eax, eax
  00019	75 18		 jne	 SHORT $LN4@destroy_cl
  0001b	a1 00 00 00 00	 mov	 eax, DWORD PTR ?__LINE__Var@?0??destroy_client@@YGXPAUENTITY@@@Z@4JA
  00020	83 c0 03	 add	 eax, 3
  00023	50		 push	 eax
  00024	68 00 00 00 00	 push	 OFFSET ??_C@_0EM@LKNDIMLE@c?3?2users?2nhv90?2projects?2eech?2ap@
  00029	68 00 00 00 00	 push	 OFFSET ??_C@_0CC@BNNNEGEG@assert_client_server_remote_fn?5@
  0002e	e8 00 00 00 00	 call	 ?process_assert@@YGXPBD0H@Z ; process_assert
$LN4@destroy_cl:

; 209  : 
; 210  : 		destroy_remote (en);

  00033	8b 45 08	 mov	 eax, DWORD PTR _en$[ebp]
  00036	50		 push	 eax
  00037	e8 00 00 00 00	 call	 ?destroy_remote@@YGXPAUENTITY@@@Z ; destroy_remote

; 211  : 	}
; 212  : 	else

  0003c	eb 2a		 jmp	 SHORT $LN1@destroy_cl
$LN2@destroy_cl:

; 213  : 	{
; 214  : 		validate_client_server_local_fn ();

  0003e	e8 00 00 00 00	 call	 ?assert_client_server_local_fn@@YGHXZ ; assert_client_server_local_fn
  00043	85 c0		 test	 eax, eax
  00045	75 18		 jne	 SHORT $LN5@destroy_cl
  00047	a1 00 00 00 00	 mov	 eax, DWORD PTR ?__LINE__Var@?0??destroy_client@@YGXPAUENTITY@@@Z@4JA
  0004c	83 c0 09	 add	 eax, 9
  0004f	50		 push	 eax
  00050	68 00 00 00 00	 push	 OFFSET ??_C@_0EM@LKNDIMLE@c?3?2users?2nhv90?2projects?2eech?2ap@
  00055	68 00 00 00 00	 push	 OFFSET ??_C@_0CB@CFOCLFOK@assert_client_server_local_fn?5?$CI@
  0005a	e8 00 00 00 00	 call	 ?process_assert@@YGXPBD0H@Z ; process_assert
$LN5@destroy_cl:

; 215  : 
; 216  : 		//
; 217  : 		// destroy local using 'full' function
; 218  : 		//
; 219  : 
; 220  : 		destroy_local_entity (en);

  0005f	8b 45 08	 mov	 eax, DWORD PTR _en$[ebp]
  00062	50		 push	 eax
  00063	e8 00 00 00 00	 call	 ?destroy_local_entity@@YGXPAUENTITY@@@Z ; destroy_local_entity
$LN1@destroy_cl:

; 221  : 	}
; 222  : }

  00068	5f		 pop	 edi
  00069	5e		 pop	 esi
  0006a	5b		 pop	 ebx
  0006b	8b e5		 mov	 esp, ebp
  0006d	5d		 pop	 ebp
  0006e	c2 04 00	 ret	 4
?destroy_client@@YGXPAUENTITY@@@Z ENDP			; destroy_client
_TEXT	ENDS
; Function compile flags: /Odtp /ZI
; File c:\users\nhv90\projects\eech\aphavoc\source\entity\special\group\gp_dstry.c
;	COMDAT ?destroy_server@@YGXPAUENTITY@@@Z
_TEXT	SEGMENT
_en$ = 8						; size = 4
?destroy_server@@YGXPAUENTITY@@@Z PROC			; destroy_server, COMDAT

; 182  : {

  00000	55		 push	 ebp
  00001	8b ec		 mov	 ebp, esp
  00003	83 ec 40	 sub	 esp, 64			; 00000040H
  00006	53		 push	 ebx
  00007	56		 push	 esi
  00008	57		 push	 edi

; 183  : 	//
; 184  : 	// destroy remote entity first (keeping local entity valid)
; 185  : 	//
; 186  : 
; 187  : 	validate_client_server_remote_fn ();

  00009	e8 00 00 00 00	 call	 ?assert_client_server_remote_fn@@YGHXZ ; assert_client_server_remote_fn
  0000e	85 c0		 test	 eax, eax
  00010	75 18		 jne	 SHORT $LN2@destroy_se
  00012	a1 00 00 00 00	 mov	 eax, DWORD PTR ?__LINE__Var@?0??destroy_server@@YGXPAUENTITY@@@Z@4JA
  00017	83 c0 05	 add	 eax, 5
  0001a	50		 push	 eax
  0001b	68 00 00 00 00	 push	 OFFSET ??_C@_0EM@LKNDIMLE@c?3?2users?2nhv90?2projects?2eech?2ap@
  00020	68 00 00 00 00	 push	 OFFSET ??_C@_0CC@BNNNEGEG@assert_client_server_remote_fn?5@
  00025	e8 00 00 00 00	 call	 ?process_assert@@YGXPBD0H@Z ; process_assert
$LN2@destroy_se:

; 188  : 
; 189  : 	destroy_remote (en);

  0002a	8b 45 08	 mov	 eax, DWORD PTR _en$[ebp]
  0002d	50		 push	 eax
  0002e	e8 00 00 00 00	 call	 ?destroy_remote@@YGXPAUENTITY@@@Z ; destroy_remote

; 190  : 
; 191  : 	validate_client_server_local_fn ();

  00033	e8 00 00 00 00	 call	 ?assert_client_server_local_fn@@YGHXZ ; assert_client_server_local_fn
  00038	85 c0		 test	 eax, eax
  0003a	75 18		 jne	 SHORT $LN3@destroy_se
  0003c	a1 00 00 00 00	 mov	 eax, DWORD PTR ?__LINE__Var@?0??destroy_server@@YGXPAUENTITY@@@Z@4JA
  00041	83 c0 09	 add	 eax, 9
  00044	50		 push	 eax
  00045	68 00 00 00 00	 push	 OFFSET ??_C@_0EM@LKNDIMLE@c?3?2users?2nhv90?2projects?2eech?2ap@
  0004a	68 00 00 00 00	 push	 OFFSET ??_C@_0CB@CFOCLFOK@assert_client_server_local_fn?5?$CI@
  0004f	e8 00 00 00 00	 call	 ?process_assert@@YGXPBD0H@Z ; process_assert
$LN3@destroy_se:

; 192  : 
; 193  : 	//
; 194  : 	// destroy local using 'full' function
; 195  : 	//
; 196  : 
; 197  : 	destroy_local_entity (en);

  00054	8b 45 08	 mov	 eax, DWORD PTR _en$[ebp]
  00057	50		 push	 eax
  00058	e8 00 00 00 00	 call	 ?destroy_local_entity@@YGXPAUENTITY@@@Z ; destroy_local_entity

; 198  : }

  0005d	5f		 pop	 edi
  0005e	5e		 pop	 esi
  0005f	5b		 pop	 ebx
  00060	8b e5		 mov	 esp, ebp
  00062	5d		 pop	 ebp
  00063	c2 04 00	 ret	 4
?destroy_server@@YGXPAUENTITY@@@Z ENDP			; destroy_server
_TEXT	ENDS
; Function compile flags: /Odtp /ZI
; File c:\users\nhv90\projects\eech\aphavoc\source\entity\special\group\gp_dstry.c
;	COMDAT ?destroy_remote@@YGXPAUENTITY@@@Z
_TEXT	SEGMENT
_en$ = 8						; size = 4
?destroy_remote@@YGXPAUENTITY@@@Z PROC			; destroy_remote, COMDAT

; 167  : {

  00000	55		 push	 ebp
  00001	8b ec		 mov	 ebp, esp
  00003	83 ec 40	 sub	 esp, 64			; 00000040H
  00006	53		 push	 ebx
  00007	56		 push	 esi
  00008	57		 push	 edi

; 168  : 	#if DEBUG_MODULE
; 169  : 
; 170  : 	debug_log_entity_args (ENTITY_DEBUG_REMOTE, ENTITY_DEBUG_DESTROY, en);
; 171  : 
; 172  : 	#endif
; 173  : 
; 174  : 	transmit_entity_comms_message (ENTITY_COMMS_DESTROY, en);

  00009	8b 45 08	 mov	 eax, DWORD PTR _en$[ebp]
  0000c	50		 push	 eax
  0000d	6a 12		 push	 18			; 00000012H
  0000f	e8 00 00 00 00	 call	 ?transmit_entity_comms_message@@YAXW4ENTITY_COMMS_MESSAGES@@PAUENTITY@@ZZ ; transmit_entity_comms_message
  00014	83 c4 08	 add	 esp, 8

; 175  : }

  00017	5f		 pop	 edi
  00018	5e		 pop	 esi
  00019	5b		 pop	 ebx
  0001a	8b e5		 mov	 esp, ebp
  0001c	5d		 pop	 ebp
  0001d	c2 04 00	 ret	 4
?destroy_remote@@YGXPAUENTITY@@@Z ENDP			; destroy_remote
_TEXT	ENDS
; Function compile flags: /Odtp /ZI
; File c:\users\nhv90\projects\eech\aphavoc\source\entity\special\group\gp_dstry.c
;	COMDAT ?destroy_local@@YGXPAUENTITY@@@Z
_TEXT	SEGMENT
tv137 = -76						; size = 4
tv84 = -76						; size = 4
tv129 = -72						; size = 4
tv77 = -72						; size = 4
_raw$ = -4						; size = 4
_en$ = 8						; size = 4
?destroy_local@@YGXPAUENTITY@@@Z PROC			; destroy_local, COMDAT

; 80   : {

  00000	55		 push	 ebp
  00001	8b ec		 mov	 ebp, esp
  00003	83 ec 4c	 sub	 esp, 76			; 0000004cH
  00006	53		 push	 ebx
  00007	56		 push	 esi
  00008	57		 push	 edi

; 81   : 
; 82   : 	group
; 83   : 		*raw;
; 84   : 
; 85   : 	////////////////////////////////////////
; 86   : 	//
; 87   : 	// PRE-AMBLE
; 88   : 	//
; 89   : 	////////////////////////////////////////
; 90   : 
; 91   : 	#if DEBUG_MODULE
; 92   : 
; 93   : 	debug_log_entity_args (ENTITY_DEBUG_LOCAL, ENTITY_DEBUG_DESTROY, en);
; 94   : 
; 95   : 	#endif
; 96   : 
; 97   : 	raw = (group *) get_local_entity_data (en);

  00009	8b 45 08	 mov	 eax, DWORD PTR _en$[ebp]
  0000c	8b 48 04	 mov	 ecx, DWORD PTR [eax+4]
  0000f	89 4d fc	 mov	 DWORD PTR _raw$[ebp], ecx

; 98   : 
; 99   : 	////////////////////////////////////////
; 100  : 	//
; 101  : 	// VALIDATE
; 102  : 	//
; 103  : 	////////////////////////////////////////
; 104  : 
; 105  : 	ASSERT (!raw->member_root.first_child);

  00012	8b 45 fc	 mov	 eax, DWORD PTR _raw$[ebp]
  00015	83 78 04 00	 cmp	 DWORD PTR [eax+4], 0
  00019	74 18		 je	 SHORT $LN2@destroy_lo
  0001b	a1 00 00 00 00	 mov	 eax, DWORD PTR ?__LINE__Var@?0??destroy_local@@YGXPAUENTITY@@@Z@4JA
  00020	83 c0 19	 add	 eax, 25			; 00000019H
  00023	50		 push	 eax
  00024	68 00 00 00 00	 push	 OFFSET ??_C@_0EM@LKNDIMLE@c?3?2users?2nhv90?2projects?2eech?2ap@
  00029	68 00 00 00 00	 push	 OFFSET ??_C@_0BO@DBNNAPOM@?$CBraw?9?$DOmember_root?4first_child@
  0002e	e8 00 00 00 00	 call	 ?process_assert@@YGXPBD0H@Z ; process_assert
$LN2@destroy_lo:

; 106  : 
; 107  : 	////////////////////////////////////////
; 108  : 	//
; 109  : 	// DESTROY COMPONENTS
; 110  : 	//
; 111  : 	////////////////////////////////////////
; 112  : 
; 113  : 	////////////////////////////////////////
; 114  : 	//
; 115  : 	// UNLINK FROM SYSTEM
; 116  : 	//
; 117  : 	////////////////////////////////////////
; 118  : 
; 119  : 	//
; 120  : 	// if group in registry list. Valid list types are :
; 121  : 	//
; 122  : 	//	LIST_TYPE_AIR_REGISTRY
; 123  : 	//	LIST_TYPE_GROUND_REGISTRY
; 124  : 	//	LIST_TYPE_SEA_REGISTRY
; 125  : 	//	LIST_TYPE_INVALID
; 126  : 	//
; 127  : 
; 128  : 	if (get_local_entity_int_value (en, INT_TYPE_REGISTRY_LIST_TYPE) != LIST_TYPE_INVALID)

  00033	83 7d 08 00	 cmp	 DWORD PTR _en$[ebp], 0
  00037	74 0a		 je	 SHORT $LN5@destroy_lo
  00039	8b 45 08	 mov	 eax, DWORD PTR _en$[ebp]
  0003c	8b 08		 mov	 ecx, DWORD PTR [eax]
  0003e	89 4d b8	 mov	 DWORD PTR tv77[ebp], ecx
  00041	eb 1d		 jmp	 SHORT $LN6@destroy_lo
$LN5@destroy_lo:
  00043	68 80 00 00 00	 push	 128			; 00000080H
  00048	68 00 00 00 00	 push	 OFFSET ??_C@_0EM@LKNDIMLE@c?3?2users?2nhv90?2projects?2eech?2ap@
  0004d	8b 15 00 00 00
	00		 mov	 edx, DWORD PTR ?null_entity_pointer_message@@3PBDB ; null_entity_pointer_message
  00053	52		 push	 edx
  00054	e8 00 00 00 00	 call	 ?process_assert@@YGXPBD0H@Z ; process_assert
  00059	c7 45 b8 00 00
	00 00		 mov	 DWORD PTR tv77[ebp], 0
$LN6@destroy_lo:
  00060	b8 01 00 00 00	 mov	 eax, 1
  00065	85 c0		 test	 eax, eax
  00067	74 09		 je	 SHORT $LN7@destroy_lo
  00069	c7 45 b4 ae 00
	00 00		 mov	 DWORD PTR tv84[ebp], 174 ; 000000aeH
  00070	eb 1d		 jmp	 SHORT $LN8@destroy_lo
$LN7@destroy_lo:
  00072	68 80 00 00 00	 push	 128			; 00000080H
  00077	68 00 00 00 00	 push	 OFFSET ??_C@_0EM@LKNDIMLE@c?3?2users?2nhv90?2projects?2eech?2ap@
  0007c	8b 0d 00 00 00
	00		 mov	 ecx, DWORD PTR ?overload_invalid_int_type_message@@3PBDB ; overload_invalid_int_type_message
  00082	51		 push	 ecx
  00083	e8 00 00 00 00	 call	 ?process_assert@@YGXPBD0H@Z ; process_assert
  00088	c7 45 b4 00 00
	00 00		 mov	 DWORD PTR tv84[ebp], 0
$LN8@destroy_lo:
  0008f	68 ae 00 00 00	 push	 174			; 000000aeH
  00094	8b 55 08	 mov	 edx, DWORD PTR _en$[ebp]
  00097	52		 push	 edx
  00098	69 45 b8 5c 04
	00 00		 imul	 eax, DWORD PTR tv77[ebp], 1116
  0009f	8b 4d b4	 mov	 ecx, DWORD PTR tv84[ebp]
  000a2	8b 94 88 00 00
	00 00		 mov	 edx, DWORD PTR ?fn_get_local_entity_int_value@@3PAY0BBH@P6GHPAUENTITY@@W4INT_TYPES@@@ZA[eax+ecx*4]
  000a9	ff d2		 call	 edx
  000ab	85 c0		 test	 eax, eax
  000ad	0f 84 8a 00 00
	00		 je	 $LN3@destroy_lo

; 129  : 	{
; 130  : 		delete_local_entity_from_parents_child_list (en, (list_types) get_local_entity_int_value (en, INT_TYPE_REGISTRY_LIST_TYPE));

  000b3	83 7d 08 00	 cmp	 DWORD PTR _en$[ebp], 0
  000b7	74 0a		 je	 SHORT $LN9@destroy_lo
  000b9	8b 45 08	 mov	 eax, DWORD PTR _en$[ebp]
  000bc	8b 08		 mov	 ecx, DWORD PTR [eax]
  000be	89 4d b8	 mov	 DWORD PTR tv129[ebp], ecx
  000c1	eb 21		 jmp	 SHORT $LN10@destroy_lo
$LN9@destroy_lo:
  000c3	8b 15 00 00 00
	00		 mov	 edx, DWORD PTR ?__LINE__Var@?0??destroy_local@@YGXPAUENTITY@@@Z@4JA
  000c9	83 c2 32	 add	 edx, 50			; 00000032H
  000cc	52		 push	 edx
  000cd	68 00 00 00 00	 push	 OFFSET ??_C@_0EM@LKNDIMLE@c?3?2users?2nhv90?2projects?2eech?2ap@
  000d2	a1 00 00 00 00	 mov	 eax, DWORD PTR ?null_entity_pointer_message@@3PBDB ; null_entity_pointer_message
  000d7	50		 push	 eax
  000d8	e8 00 00 00 00	 call	 ?process_assert@@YGXPBD0H@Z ; process_assert
  000dd	c7 45 b8 00 00
	00 00		 mov	 DWORD PTR tv129[ebp], 0
$LN10@destroy_lo:
  000e4	b9 01 00 00 00	 mov	 ecx, 1
  000e9	85 c9		 test	 ecx, ecx
  000eb	74 09		 je	 SHORT $LN11@destroy_lo
  000ed	c7 45 b4 ae 00
	00 00		 mov	 DWORD PTR tv137[ebp], 174 ; 000000aeH
  000f4	eb 21		 jmp	 SHORT $LN12@destroy_lo
$LN11@destroy_lo:
  000f6	8b 15 00 00 00
	00		 mov	 edx, DWORD PTR ?__LINE__Var@?0??destroy_local@@YGXPAUENTITY@@@Z@4JA
  000fc	83 c2 32	 add	 edx, 50			; 00000032H
  000ff	52		 push	 edx
  00100	68 00 00 00 00	 push	 OFFSET ??_C@_0EM@LKNDIMLE@c?3?2users?2nhv90?2projects?2eech?2ap@
  00105	a1 00 00 00 00	 mov	 eax, DWORD PTR ?overload_invalid_int_type_message@@3PBDB ; overload_invalid_int_type_message
  0010a	50		 push	 eax
  0010b	e8 00 00 00 00	 call	 ?process_assert@@YGXPBD0H@Z ; process_assert
  00110	c7 45 b4 00 00
	00 00		 mov	 DWORD PTR tv137[ebp], 0
$LN12@destroy_lo:
  00117	68 ae 00 00 00	 push	 174			; 000000aeH
  0011c	8b 4d 08	 mov	 ecx, DWORD PTR _en$[ebp]
  0011f	51		 push	 ecx
  00120	69 55 b8 5c 04
	00 00		 imul	 edx, DWORD PTR tv129[ebp], 1116
  00127	8b 45 b4	 mov	 eax, DWORD PTR tv137[ebp]
  0012a	8b 8c 82 00 00
	00 00		 mov	 ecx, DWORD PTR ?fn_get_local_entity_int_value@@3PAY0BBH@P6GHPAUENTITY@@W4INT_TYPES@@@ZA[edx+eax*4]
  00131	ff d1		 call	 ecx
  00133	50		 push	 eax
  00134	8b 55 08	 mov	 edx, DWORD PTR _en$[ebp]
  00137	52		 push	 edx
  00138	e8 00 00 00 00	 call	 ?delete_local_entity_from_parents_child_list@@YGXPAUENTITY@@W4LIST_TYPES@@@Z ; delete_local_entity_from_parents_child_list
$LN3@destroy_lo:

; 131  : 	}
; 132  : 
; 133  : 	delete_local_entity_from_parents_child_list (en, LIST_TYPE_DIVISION);

  0013d	6a 0b		 push	 11			; 0000000bH
  0013f	8b 45 08	 mov	 eax, DWORD PTR _en$[ebp]
  00142	50		 push	 eax
  00143	e8 00 00 00 00	 call	 ?delete_local_entity_from_parents_child_list@@YGXPAUENTITY@@W4LIST_TYPES@@@Z ; delete_local_entity_from_parents_child_list

; 134  : 
; 135  : 	delete_local_entity_from_parents_child_list (en, LIST_TYPE_TASK_DEPENDENT);

  00148	6a 27		 push	 39			; 00000027H
  0014a	8b 45 08	 mov	 eax, DWORD PTR _en$[ebp]
  0014d	50		 push	 eax
  0014e	e8 00 00 00 00	 call	 ?delete_local_entity_from_parents_child_list@@YGXPAUENTITY@@W4LIST_TYPES@@@Z ; delete_local_entity_from_parents_child_list

; 136  : 
; 137  : 	delete_local_entity_from_parents_child_list (en, LIST_TYPE_PILOT_LOCK);

  00153	6a 1d		 push	 29			; 0000001dH
  00155	8b 45 08	 mov	 eax, DWORD PTR _en$[ebp]
  00158	50		 push	 eax
  00159	e8 00 00 00 00	 call	 ?delete_local_entity_from_parents_child_list@@YGXPAUENTITY@@W4LIST_TYPES@@@Z ; delete_local_entity_from_parents_child_list

; 138  : 
; 139  : 	//
; 140  : 	// unlink from keysite
; 141  : 	//
; 142  : 
; 143  : 	delete_local_entity_from_parents_child_list (en, raw->group_list_type);

  0015e	8b 45 fc	 mov	 eax, DWORD PTR _raw$[ebp]
  00161	8b 48 58	 mov	 ecx, DWORD PTR [eax+88]
  00164	51		 push	 ecx
  00165	8b 55 08	 mov	 edx, DWORD PTR _en$[ebp]
  00168	52		 push	 edx
  00169	e8 00 00 00 00	 call	 ?delete_local_entity_from_parents_child_list@@YGXPAUENTITY@@W4LIST_TYPES@@@Z ; delete_local_entity_from_parents_child_list

; 144  : 
; 145  : 	unlink_local_entity_children (en, LIST_TYPE_TASK_DEPENDENT);

  0016e	6a 27		 push	 39			; 00000027H
  00170	8b 45 08	 mov	 eax, DWORD PTR _en$[ebp]
  00173	50		 push	 eax
  00174	e8 00 00 00 00	 call	 ?unlink_local_entity_children@@YGXPAUENTITY@@W4LIST_TYPES@@@Z ; unlink_local_entity_children

; 146  : 
; 147  : 	unlink_local_entity_children (en, LIST_TYPE_GUIDE_STACK);

  00179	6a 11		 push	 17			; 00000011H
  0017b	8b 45 08	 mov	 eax, DWORD PTR _en$[ebp]
  0017e	50		 push	 eax
  0017f	e8 00 00 00 00	 call	 ?unlink_local_entity_children@@YGXPAUENTITY@@W4LIST_TYPES@@@Z ; unlink_local_entity_children

; 148  : 
; 149  : 	delete_local_entity_from_parents_child_list (en, LIST_TYPE_UPDATE);

  00184	6a 29		 push	 41			; 00000029H
  00186	8b 45 08	 mov	 eax, DWORD PTR _en$[ebp]
  00189	50		 push	 eax
  0018a	e8 00 00 00 00	 call	 ?delete_local_entity_from_parents_child_list@@YGXPAUENTITY@@W4LIST_TYPES@@@Z ; delete_local_entity_from_parents_child_list

; 150  : 
; 151  : 	////////////////////////////////////////
; 152  : 	//
; 153  : 	// FREE ENTITY DATA
; 154  : 	//
; 155  : 	////////////////////////////////////////
; 156  : 
; 157  : 	free_mem (raw);

  0018f	8b 45 fc	 mov	 eax, DWORD PTR _raw$[ebp]
  00192	50		 push	 eax
  00193	e8 00 00 00 00	 call	 ?free_mem@@YGXPAX@Z	; free_mem

; 158  : 
; 159  : 	set_free_entity (en);

  00198	8b 45 08	 mov	 eax, DWORD PTR _en$[ebp]
  0019b	50		 push	 eax
  0019c	e8 00 00 00 00	 call	 ?set_free_entity@@YGXPAUENTITY@@@Z ; set_free_entity

; 160  : }

  001a1	5f		 pop	 edi
  001a2	5e		 pop	 esi
  001a3	5b		 pop	 ebx
  001a4	8b e5		 mov	 esp, ebp
  001a6	5d		 pop	 ebp
  001a7	c2 04 00	 ret	 4
?destroy_local@@YGXPAUENTITY@@@Z ENDP			; destroy_local
_TEXT	ENDS
; Function compile flags: /Odtp /ZI
; File c:\users\nhv90\projects\eech\aphavoc\source\entity\special\group\gp_dstry.c
;	COMDAT ?overload_group_destroy_functions@@YGXXZ
_TEXT	SEGMENT
?overload_group_destroy_functions@@YGXXZ PROC		; overload_group_destroy_functions, COMDAT

; 419  : {

  00000	55		 push	 ebp
  00001	8b ec		 mov	 ebp, esp
  00003	83 ec 40	 sub	 esp, 64			; 00000040H
  00006	53		 push	 ebx
  00007	56		 push	 esi
  00008	57		 push	 edi

; 420  : 	fn_destroy_local_entity						[ENTITY_TYPE_GROUP]								= destroy_local;

  00009	b8 04 00 00 00	 mov	 eax, 4
  0000e	6b c8 0c	 imul	 ecx, eax, 12
  00011	c7 81 00 00 00
	00 00 00 00 00	 mov	 DWORD PTR ?fn_destroy_local_entity@@3PAP6GXPAUENTITY@@@ZA[ecx], OFFSET ?destroy_local@@YGXPAUENTITY@@@Z ; destroy_local

; 421  : 	fn_destroy_client_server_entity			[ENTITY_TYPE_GROUP][COMMS_MODEL_SERVER]	= destroy_server;

  0001b	b8 08 00 00 00	 mov	 eax, 8
  00020	6b c8 0c	 imul	 ecx, eax, 12
  00023	ba 04 00 00 00	 mov	 edx, 4
  00028	6b c2 00	 imul	 eax, edx, 0
  0002b	c7 84 01 00 00
	00 00 00 00 00
	00		 mov	 DWORD PTR ?fn_destroy_client_server_entity@@3PAY01P6GXPAUENTITY@@@ZA[ecx+eax], OFFSET ?destroy_server@@YGXPAUENTITY@@@Z ; destroy_server

; 422  : 	fn_destroy_client_server_entity			[ENTITY_TYPE_GROUP][COMMS_MODEL_CLIENT]	= destroy_client;

  00036	b8 08 00 00 00	 mov	 eax, 8
  0003b	6b c8 0c	 imul	 ecx, eax, 12
  0003e	ba 04 00 00 00	 mov	 edx, 4
  00043	c1 e2 00	 shl	 edx, 0
  00046	c7 84 11 00 00
	00 00 00 00 00
	00		 mov	 DWORD PTR ?fn_destroy_client_server_entity@@3PAY01P6GXPAUENTITY@@@ZA[ecx+edx], OFFSET ?destroy_client@@YGXPAUENTITY@@@Z ; destroy_client

; 423  : 
; 424  : 	fn_destroy_local_entity_family			[ENTITY_TYPE_GROUP]								= destroy_local_family;

  00051	b8 04 00 00 00	 mov	 eax, 4
  00056	6b c8 0c	 imul	 ecx, eax, 12
  00059	c7 81 00 00 00
	00 00 00 00 00	 mov	 DWORD PTR ?fn_destroy_local_entity_family@@3PAP6GXPAUENTITY@@@ZA[ecx], OFFSET ?destroy_local_family@@YGXPAUENTITY@@@Z ; destroy_local_family

; 425  : 	fn_destroy_client_server_entity_family	[ENTITY_TYPE_GROUP][COMMS_MODEL_SERVER]	= destroy_server_family;

  00063	b8 08 00 00 00	 mov	 eax, 8
  00068	6b c8 0c	 imul	 ecx, eax, 12
  0006b	ba 04 00 00 00	 mov	 edx, 4
  00070	6b c2 00	 imul	 eax, edx, 0
  00073	c7 84 01 00 00
	00 00 00 00 00
	00		 mov	 DWORD PTR ?fn_destroy_client_server_entity_family@@3PAY01P6GXPAUENTITY@@@ZA[ecx+eax], OFFSET ?destroy_server_family@@YGXPAUENTITY@@@Z ; destroy_server_family

; 426  : 	fn_destroy_client_server_entity_family	[ENTITY_TYPE_GROUP][COMMS_MODEL_CLIENT]	= destroy_client_family;

  0007e	b8 08 00 00 00	 mov	 eax, 8
  00083	6b c8 0c	 imul	 ecx, eax, 12
  00086	ba 04 00 00 00	 mov	 edx, 4
  0008b	c1 e2 00	 shl	 edx, 0
  0008e	c7 84 11 00 00
	00 00 00 00 00
	00		 mov	 DWORD PTR ?fn_destroy_client_server_entity_family@@3PAY01P6GXPAUENTITY@@@ZA[ecx+edx], OFFSET ?destroy_client_family@@YGXPAUENTITY@@@Z ; destroy_client_family

; 427  : 
; 428  : 	fn_kill_local_entity							[ENTITY_TYPE_GROUP]								= kill_local;

  00099	b8 04 00 00 00	 mov	 eax, 4
  0009e	6b c8 0c	 imul	 ecx, eax, 12
  000a1	c7 81 00 00 00
	00 00 00 00 00	 mov	 DWORD PTR ?fn_kill_local_entity@@3PAP6GXPAUENTITY@@@ZA[ecx], OFFSET ?kill_local@@YGXPAUENTITY@@@Z ; kill_local

; 429  : 	fn_kill_client_server_entity				[ENTITY_TYPE_GROUP][COMMS_MODEL_SERVER]	= kill_server;

  000ab	b8 08 00 00 00	 mov	 eax, 8
  000b0	6b c8 0c	 imul	 ecx, eax, 12
  000b3	ba 04 00 00 00	 mov	 edx, 4
  000b8	6b c2 00	 imul	 eax, edx, 0
  000bb	c7 84 01 00 00
	00 00 00 00 00
	00		 mov	 DWORD PTR ?fn_kill_client_server_entity@@3PAY01P6GXPAUENTITY@@@ZA[ecx+eax], OFFSET ?kill_server@@YGXPAUENTITY@@@Z ; kill_server

; 430  : 	fn_kill_client_server_entity				[ENTITY_TYPE_GROUP][COMMS_MODEL_CLIENT]	= kill_client;

  000c6	b8 08 00 00 00	 mov	 eax, 8
  000cb	6b c8 0c	 imul	 ecx, eax, 12
  000ce	ba 04 00 00 00	 mov	 edx, 4
  000d3	c1 e2 00	 shl	 edx, 0
  000d6	c7 84 11 00 00
	00 00 00 00 00
	00		 mov	 DWORD PTR ?fn_kill_client_server_entity@@3PAY01P6GXPAUENTITY@@@ZA[ecx+edx], OFFSET ?kill_client@@YGXPAUENTITY@@@Z ; kill_client

; 431  : }

  000e1	5f		 pop	 edi
  000e2	5e		 pop	 esi
  000e3	5b		 pop	 ebx
  000e4	8b e5		 mov	 esp, ebp
  000e6	5d		 pop	 ebp
  000e7	c3		 ret	 0
?overload_group_destroy_functions@@YGXXZ ENDP		; overload_group_destroy_functions
_TEXT	ENDS
END
