; Listing generated by Microsoft (R) Optimizing Compiler Version 19.16.27045.0 

	TITLE	C:\Users\nhv90\Projects\eech\aphavoc\source\entity\special\group\gp_float.c
	.686P
	.XMM
	include listing.inc
	.model	flat

INCLUDELIB MSVCRTD
INCLUDELIB OLDNAMES

PUBLIC	?overload_group_float_value_functions@@YGXXZ	; overload_group_float_value_functions
PUBLIC	?__LINE__Var@?0??set_local_float_value@@YGXPAUENTITY@@W4FLOAT_TYPES@@M@Z@4JA ; `set_local_float_value'::`1'::__LINE__Var
PUBLIC	??_C@_0EM@NFFLKADJ@c?3?2users?2nhv90?2projects?2eech?2ap@ ; `string'
PUBLIC	?__LINE__Var@?0??set_server_float_value@@YGXPAUENTITY@@W4FLOAT_TYPES@@M@Z@4JA ; `set_server_float_value'::`1'::__LINE__Var
PUBLIC	??_C@_0CB@CFOCLFOK@assert_client_server_local_fn?5?$CI@ ; `string'
PUBLIC	??_C@_0CC@BNNNEGEG@assert_client_server_remote_fn?5@ ; `string'
PUBLIC	?__LINE__Var@?0??set_client_float_value@@YGXPAUENTITY@@W4FLOAT_TYPES@@M@Z@4JA ; `set_client_float_value'::`1'::__LINE__Var
PUBLIC	?__LINE__Var@?0??get_local_float_value@@YGMPAUENTITY@@W4FLOAT_TYPES@@@Z@4JA ; `get_local_float_value'::`1'::__LINE__Var
PUBLIC	__real@0000000000000000
PUBLIC	__real@42c80000
EXTRN	?process_assert@@YGXPBD0H@Z:PROC		; process_assert
EXTRN	?debug_fatal@@YAXPBDZZ:PROC			; debug_fatal
EXTRN	?insert_local_entity_into_parents_child_list@@YGXPAUENTITY@@W4LIST_TYPES@@00@Z:PROC ; insert_local_entity_into_parents_child_list
EXTRN	?transmit_entity_comms_message@@YAXW4ENTITY_COMMS_MESSAGES@@PAUENTITY@@ZZ:PROC ; transmit_entity_comms_message
EXTRN	?assert_client_server_local_fn@@YGHXZ:PROC	; assert_client_server_local_fn
EXTRN	?assert_client_server_remote_fn@@YGHXZ:PROC	; assert_client_server_remote_fn
EXTRN	?null_entity_pointer_message@@3PBDB:DWORD	; null_entity_pointer_message
EXTRN	?entity_type_database@@3PAUENTITY_TYPE_DATA@@A:BYTE ; entity_type_database
EXTRN	?system_comms_data_flow@@3W4COMMS_DATA_FLOW_TYPES@@A:DWORD ; system_comms_data_flow
EXTRN	?float_type_database@@3PAUFLOAT_TYPE_DATA@@A:BYTE ; float_type_database
EXTRN	?debug_fatal_invalid_float_type_message@@3PBDB:DWORD ; debug_fatal_invalid_float_type_message
EXTRN	?fn_set_local_entity_raw_float_value@@3PAY0KP@P6GXPAUENTITY@@W4FLOAT_TYPES@@M@ZA:BYTE ; fn_set_local_entity_raw_float_value
EXTRN	?fn_set_local_entity_float_value@@3PAY0KP@P6GXPAUENTITY@@W4FLOAT_TYPES@@M@ZA:BYTE ; fn_set_local_entity_float_value
EXTRN	?fn_set_client_server_entity_float_value@@3PAY1KP@1P6GXPAUENTITY@@W4FLOAT_TYPES@@M@ZA:BYTE ; fn_set_client_server_entity_float_value
EXTRN	?fn_get_local_entity_float_value@@3PAY0KP@P6GMPAUENTITY@@W4FLOAT_TYPES@@@ZA:BYTE ; fn_get_local_entity_float_value
EXTRN	?entities@@3PAUENTITY@@A:DWORD			; entities
EXTRN	?group_database@@3PAUGROUP_DATA@@A:BYTE		; group_database
EXTRN	?update_entity@@3PAUENTITY@@A:DWORD		; update_entity
EXTRN	__fltused:DWORD
;	COMDAT __real@42c80000
CONST	SEGMENT
__real@42c80000 DD 042c80000r			; 100
CONST	ENDS
;	COMDAT __real@0000000000000000
CONST	SEGMENT
__real@0000000000000000 DQ 00000000000000000r	; 0
CONST	ENDS
;	COMDAT ?__LINE__Var@?0??get_local_float_value@@YGMPAUENTITY@@W4FLOAT_TYPES@@@Z@4JA
_DATA	SEGMENT
?__LINE__Var@?0??get_local_float_value@@YGMPAUENTITY@@W4FLOAT_TYPES@@@Z@4JA DD 0d4H ; `get_local_float_value'::`1'::__LINE__Var
_DATA	ENDS
;	COMDAT ?__LINE__Var@?0??set_client_float_value@@YGXPAUENTITY@@W4FLOAT_TYPES@@M@Z@4JA
_DATA	SEGMENT
?__LINE__Var@?0??set_client_float_value@@YGXPAUENTITY@@W4FLOAT_TYPES@@M@Z@4JA DD 0c0H ; `set_client_float_value'::`1'::__LINE__Var
_DATA	ENDS
;	COMDAT ??_C@_0CC@BNNNEGEG@assert_client_server_remote_fn?5@
CONST	SEGMENT
??_C@_0CC@BNNNEGEG@assert_client_server_remote_fn?5@ DB 'assert_client_se'
	DB	'rver_remote_fn ()', 00H			; `string'
CONST	ENDS
;	COMDAT ??_C@_0CB@CFOCLFOK@assert_client_server_local_fn?5?$CI@
CONST	SEGMENT
??_C@_0CB@CFOCLFOK@assert_client_server_local_fn?5?$CI@ DB 'assert_client'
	DB	'_server_local_fn ()', 00H			; `string'
CONST	ENDS
;	COMDAT ?__LINE__Var@?0??set_server_float_value@@YGXPAUENTITY@@W4FLOAT_TYPES@@M@Z@4JA
_DATA	SEGMENT
?__LINE__Var@?0??set_server_float_value@@YGXPAUENTITY@@W4FLOAT_TYPES@@M@Z@4JA DD 0b1H ; `set_server_float_value'::`1'::__LINE__Var
_DATA	ENDS
;	COMDAT ??_C@_0EM@NFFLKADJ@c?3?2users?2nhv90?2projects?2eech?2ap@
CONST	SEGMENT
??_C@_0EM@NFFLKADJ@c?3?2users?2nhv90?2projects?2eech?2ap@ DB 'c:\users\nh'
	DB	'v90\projects\eech\aphavoc\source\entity\special\group\gp_floa'
	DB	't.c', 00H					; `string'
CONST	ENDS
;	COMDAT ?__LINE__Var@?0??set_local_float_value@@YGXPAUENTITY@@W4FLOAT_TYPES@@M@Z@4JA
_DATA	SEGMENT
?__LINE__Var@?0??set_local_float_value@@YGXPAUENTITY@@W4FLOAT_TYPES@@M@Z@4JA DD 050H ; `set_local_float_value'::`1'::__LINE__Var
_DATA	ENDS
; Function compile flags: /Odtp /ZI
; File c:\users\nhv90\projects\eech\aphavoc\source\entity\special\group\gp_float.c
;	COMDAT ?get_local_float_value@@YGMPAUENTITY@@W4FLOAT_TYPES@@@Z
_TEXT	SEGMENT
tv93 = -76						; size = 4
tv65 = -76						; size = 4
_value$ = -8						; size = 4
_raw$ = -4						; size = 4
_en$ = 8						; size = 4
_type$ = 12						; size = 4
?get_local_float_value@@YGMPAUENTITY@@W4FLOAT_TYPES@@@Z PROC ; get_local_float_value, COMDAT

; 212  : {

  00000	55		 push	 ebp
  00001	8b ec		 mov	 ebp, esp
  00003	83 ec 4c	 sub	 esp, 76			; 0000004cH
  00006	53		 push	 ebx
  00007	56		 push	 esi
  00008	57		 push	 edi

; 213  : 	group
; 214  : 		*raw;
; 215  : 
; 216  : 	float
; 217  : 		value;
; 218  : 
; 219  : 	raw = (group *) get_local_entity_data (en);

  00009	8b 45 08	 mov	 eax, DWORD PTR _en$[ebp]
  0000c	8b 48 04	 mov	 ecx, DWORD PTR [eax+4]
  0000f	89 4d fc	 mov	 DWORD PTR _raw$[ebp], ecx

; 220  : 
; 221  : 	switch (type)

  00012	8b 45 0c	 mov	 eax, DWORD PTR _type$[ebp]
  00015	89 45 b4	 mov	 DWORD PTR tv65[ebp], eax
  00018	8b 4d b4	 mov	 ecx, DWORD PTR tv65[ebp]
  0001b	83 e9 08	 sub	 ecx, 8
  0001e	89 4d b4	 mov	 DWORD PTR tv65[ebp], ecx
  00021	83 7d b4 6d	 cmp	 DWORD PTR tv65[ebp], 109 ; 0000006dH
  00025	0f 87 95 00 00
	00		 ja	 $LN11@get_local_
  0002b	8b 55 b4	 mov	 edx, DWORD PTR tv65[ebp]
  0002e	0f b6 82 00 00
	00 00		 movzx	 eax, BYTE PTR $LN15@get_local_[edx]
  00035	ff 24 85 00 00
	00 00		 jmp	 DWORD PTR $LN16@get_local_[eax*4]
$LN4@get_local_:

; 222  : 	{
; 223  : 		////////////////////////////////////////
; 224  : 		case FLOAT_TYPE_AMMO_SUPPLY_LEVEL:
; 225  : 		////////////////////////////////////////
; 226  : 		{
; 227  : 			value = raw->supplies.ammo_supply_level;

  0003c	8b 45 fc	 mov	 eax, DWORD PTR _raw$[ebp]
  0003f	f3 0f 10 40 7c	 movss	 xmm0, DWORD PTR [eax+124]
  00044	f3 0f 11 45 f8	 movss	 DWORD PTR _value$[ebp], xmm0

; 228  : 
; 229  : 			break;

  00049	e9 e4 00 00 00	 jmp	 $LN2@get_local_
$LN5@get_local_:

; 230  : 		}
; 231  : 		////////////////////////////////////////
; 232  : 		case FLOAT_TYPE_ASSIST_TIMER:
; 233  : 		////////////////////////////////////////
; 234  : 		{
; 235  : 			value = raw->assist_timer;

  0004e	8b 45 fc	 mov	 eax, DWORD PTR _raw$[ebp]
  00051	f3 0f 10 40 64	 movss	 xmm0, DWORD PTR [eax+100]
  00056	f3 0f 11 45 f8	 movss	 DWORD PTR _value$[ebp], xmm0

; 236  : 
; 237  : 			break;

  0005b	e9 d2 00 00 00	 jmp	 $LN2@get_local_
$LN6@get_local_:

; 238  : 		}
; 239  : 		////////////////////////////////////////
; 240  : 		case FLOAT_TYPE_FUEL_SUPPLY_LEVEL:
; 241  : 		////////////////////////////////////////
; 242  : 		{
; 243  : 			value = raw->supplies.fuel_supply_level;

  00060	8b 45 fc	 mov	 eax, DWORD PTR _raw$[ebp]
  00063	f3 0f 10 80 80
	00 00 00	 movss	 xmm0, DWORD PTR [eax+128]
  0006b	f3 0f 11 45 f8	 movss	 DWORD PTR _value$[ebp], xmm0

; 244  : 
; 245  : 			break;

  00070	e9 bd 00 00 00	 jmp	 $LN2@get_local_
$LN7@get_local_:

; 246  : 		}
; 247  : 		////////////////////////////////////////
; 248  : 		case FLOAT_TYPE_REARMING_TIME:
; 249  : 		////////////////////////////////////////
; 250  : 		{
; 251  : 			value = group_database [raw->sub_type].rearming_time;

  00075	8b 45 fc	 mov	 eax, DWORD PTR _raw$[ebp]
  00078	6b 08 64	 imul	 ecx, DWORD PTR [eax], 100
  0007b	f3 0f 10 81 44
	00 00 00	 movss	 xmm0, DWORD PTR ?group_database@@3PAUGROUP_DATA@@A[ecx+68]
  00083	f3 0f 11 45 f8	 movss	 DWORD PTR _value$[ebp], xmm0

; 252  : 
; 253  : 			break;

  00088	e9 a5 00 00 00	 jmp	 $LN2@get_local_
$LN8@get_local_:

; 254  : 		}
; 255  : 		////////////////////////////////////////
; 256  : 		case FLOAT_TYPE_RECON_DISTANCE:
; 257  : 		////////////////////////////////////////
; 258  : 		{
; 259  : 			value = 100.0;

  0008d	f3 0f 10 05 00
	00 00 00	 movss	 xmm0, DWORD PTR __real@42c80000
  00095	f3 0f 11 45 f8	 movss	 DWORD PTR _value$[ebp], xmm0

; 260  : 
; 261  : 			break;

  0009a	e9 93 00 00 00	 jmp	 $LN2@get_local_
$LN9@get_local_:

; 262  : 		}
; 263  : 		////////////////////////////////////////
; 264  : 		case FLOAT_TYPE_SLEEP:
; 265  : 		////////////////////////////////////////
; 266  : 		{
; 267  : 			value = raw->sleep;

  0009f	8b 45 fc	 mov	 eax, DWORD PTR _raw$[ebp]
  000a2	f3 0f 10 40 5c	 movss	 xmm0, DWORD PTR [eax+92]
  000a7	f3 0f 11 45 f8	 movss	 DWORD PTR _value$[ebp], xmm0

; 268  : 
; 269  : 			break;

  000ac	e9 81 00 00 00	 jmp	 $LN2@get_local_
$LN10@get_local_:

; 270  : 		}
; 271  : 		////////////////////////////////////////
; 272  : 		case FLOAT_TYPE_LAST_SEEN_TIME:
; 273  : 		////////////////////////////////////////
; 274  : 		{
; 275  : 			value = raw->last_seen_time;

  000b1	8b 45 fc	 mov	 eax, DWORD PTR _raw$[ebp]
  000b4	f3 0f 10 40 60	 movss	 xmm0, DWORD PTR [eax+96]
  000b9	f3 0f 11 45 f8	 movss	 DWORD PTR _value$[ebp], xmm0

; 276  : 
; 277  : 			break;

  000be	eb 72		 jmp	 SHORT $LN2@get_local_
$LN11@get_local_:

; 278  : 		}
; 279  : 		////////////////////////////////////////
; 280  : 		default:
; 281  : 		////////////////////////////////////////
; 282  : 		{
; 283  : 			debug_fatal_invalid_float_type (en, type);

  000c0	83 7d 08 00	 cmp	 DWORD PTR _en$[ebp], 0
  000c4	74 0a		 je	 SHORT $LN13@get_local_
  000c6	8b 45 08	 mov	 eax, DWORD PTR _en$[ebp]
  000c9	8b 08		 mov	 ecx, DWORD PTR [eax]
  000cb	89 4d b4	 mov	 DWORD PTR tv93[ebp], ecx
  000ce	eb 21		 jmp	 SHORT $LN14@get_local_
$LN13@get_local_:
  000d0	8b 15 00 00 00
	00		 mov	 edx, DWORD PTR ?__LINE__Var@?0??get_local_float_value@@YGMPAUENTITY@@W4FLOAT_TYPES@@@Z@4JA
  000d6	83 c2 47	 add	 edx, 71			; 00000047H
  000d9	52		 push	 edx
  000da	68 00 00 00 00	 push	 OFFSET ??_C@_0EM@NFFLKADJ@c?3?2users?2nhv90?2projects?2eech?2ap@
  000df	a1 00 00 00 00	 mov	 eax, DWORD PTR ?null_entity_pointer_message@@3PBDB ; null_entity_pointer_message
  000e4	50		 push	 eax
  000e5	e8 00 00 00 00	 call	 ?process_assert@@YGXPBD0H@Z ; process_assert
  000ea	c7 45 b4 00 00
	00 00		 mov	 DWORD PTR tv93[ebp], 0
$LN14@get_local_:
  000f1	8b 0d 00 00 00
	00		 mov	 ecx, DWORD PTR ?__LINE__Var@?0??get_local_float_value@@YGMPAUENTITY@@W4FLOAT_TYPES@@@Z@4JA
  000f7	83 c1 47	 add	 ecx, 71			; 00000047H
  000fa	51		 push	 ecx
  000fb	68 00 00 00 00	 push	 OFFSET ??_C@_0EM@NFFLKADJ@c?3?2users?2nhv90?2projects?2eech?2ap@
  00100	6b 55 0c 18	 imul	 edx, DWORD PTR _type$[ebp], 24
  00104	8b 82 00 00 00
	00		 mov	 eax, DWORD PTR ?float_type_database@@3PAUFLOAT_TYPE_DATA@@A[edx]
  0010a	50		 push	 eax
  0010b	8b 4d 08	 mov	 ecx, DWORD PTR _en$[ebp]
  0010e	2b 0d 00 00 00
	00		 sub	 ecx, DWORD PTR ?entities@@3PAUENTITY@@A ; entities
  00114	c1 f9 04	 sar	 ecx, 4
  00117	51		 push	 ecx
  00118	6b 55 b4 0c	 imul	 edx, DWORD PTR tv93[ebp], 12
  0011c	8b 82 00 00 00
	00		 mov	 eax, DWORD PTR ?entity_type_database@@3PAUENTITY_TYPE_DATA@@A[edx]
  00122	50		 push	 eax
  00123	8b 0d 00 00 00
	00		 mov	 ecx, DWORD PTR ?debug_fatal_invalid_float_type_message@@3PBDB ; debug_fatal_invalid_float_type_message
  00129	51		 push	 ecx
  0012a	e8 00 00 00 00	 call	 ?debug_fatal@@YAXPBDZZ	; debug_fatal
  0012f	83 c4 18	 add	 esp, 24			; 00000018H
$LN2@get_local_:

; 284  : 
; 285  : 			break;
; 286  : 		}
; 287  : 	}
; 288  : 
; 289  : 	return (value);

  00132	d9 45 f8	 fld	 DWORD PTR _value$[ebp]

; 290  : }

  00135	5f		 pop	 edi
  00136	5e		 pop	 esi
  00137	5b		 pop	 ebx
  00138	8b e5		 mov	 esp, ebp
  0013a	5d		 pop	 ebp
  0013b	c2 08 00	 ret	 8
  0013e	66 90		 npad	 2
$LN16@get_local_:
  00140	00 00 00 00	 DD	 $LN4@get_local_
  00144	00 00 00 00	 DD	 $LN5@get_local_
  00148	00 00 00 00	 DD	 $LN6@get_local_
  0014c	00 00 00 00	 DD	 $LN10@get_local_
  00150	00 00 00 00	 DD	 $LN7@get_local_
  00154	00 00 00 00	 DD	 $LN8@get_local_
  00158	00 00 00 00	 DD	 $LN9@get_local_
  0015c	00 00 00 00	 DD	 $LN11@get_local_
$LN15@get_local_:
  00160	00		 DB	 0
  00161	07		 DB	 7
  00162	07		 DB	 7
  00163	07		 DB	 7
  00164	07		 DB	 7
  00165	01		 DB	 1
  00166	07		 DB	 7
  00167	07		 DB	 7
  00168	07		 DB	 7
  00169	07		 DB	 7
  0016a	07		 DB	 7
  0016b	07		 DB	 7
  0016c	07		 DB	 7
  0016d	07		 DB	 7
  0016e	07		 DB	 7
  0016f	07		 DB	 7
  00170	07		 DB	 7
  00171	07		 DB	 7
  00172	07		 DB	 7
  00173	07		 DB	 7
  00174	07		 DB	 7
  00175	07		 DB	 7
  00176	07		 DB	 7
  00177	07		 DB	 7
  00178	07		 DB	 7
  00179	07		 DB	 7
  0017a	07		 DB	 7
  0017b	07		 DB	 7
  0017c	07		 DB	 7
  0017d	07		 DB	 7
  0017e	07		 DB	 7
  0017f	07		 DB	 7
  00180	07		 DB	 7
  00181	07		 DB	 7
  00182	07		 DB	 7
  00183	07		 DB	 7
  00184	07		 DB	 7
  00185	07		 DB	 7
  00186	07		 DB	 7
  00187	07		 DB	 7
  00188	02		 DB	 2
  00189	07		 DB	 7
  0018a	07		 DB	 7
  0018b	07		 DB	 7
  0018c	07		 DB	 7
  0018d	07		 DB	 7
  0018e	07		 DB	 7
  0018f	07		 DB	 7
  00190	07		 DB	 7
  00191	07		 DB	 7
  00192	07		 DB	 7
  00193	07		 DB	 7
  00194	03		 DB	 3
  00195	07		 DB	 7
  00196	07		 DB	 7
  00197	07		 DB	 7
  00198	07		 DB	 7
  00199	07		 DB	 7
  0019a	07		 DB	 7
  0019b	07		 DB	 7
  0019c	07		 DB	 7
  0019d	07		 DB	 7
  0019e	07		 DB	 7
  0019f	07		 DB	 7
  001a0	07		 DB	 7
  001a1	07		 DB	 7
  001a2	07		 DB	 7
  001a3	07		 DB	 7
  001a4	07		 DB	 7
  001a5	07		 DB	 7
  001a6	07		 DB	 7
  001a7	07		 DB	 7
  001a8	07		 DB	 7
  001a9	07		 DB	 7
  001aa	07		 DB	 7
  001ab	07		 DB	 7
  001ac	07		 DB	 7
  001ad	07		 DB	 7
  001ae	07		 DB	 7
  001af	07		 DB	 7
  001b0	07		 DB	 7
  001b1	07		 DB	 7
  001b2	07		 DB	 7
  001b3	07		 DB	 7
  001b4	07		 DB	 7
  001b5	07		 DB	 7
  001b6	07		 DB	 7
  001b7	07		 DB	 7
  001b8	07		 DB	 7
  001b9	07		 DB	 7
  001ba	07		 DB	 7
  001bb	07		 DB	 7
  001bc	07		 DB	 7
  001bd	07		 DB	 7
  001be	07		 DB	 7
  001bf	07		 DB	 7
  001c0	07		 DB	 7
  001c1	07		 DB	 7
  001c2	07		 DB	 7
  001c3	07		 DB	 7
  001c4	07		 DB	 7
  001c5	04		 DB	 4
  001c6	05		 DB	 5
  001c7	07		 DB	 7
  001c8	07		 DB	 7
  001c9	07		 DB	 7
  001ca	07		 DB	 7
  001cb	07		 DB	 7
  001cc	07		 DB	 7
  001cd	06		 DB	 6
?get_local_float_value@@YGMPAUENTITY@@W4FLOAT_TYPES@@@Z ENDP ; get_local_float_value
_TEXT	ENDS
; Function compile flags: /Odtp /ZI
; File c:\users\nhv90\projects\eech\aphavoc\source\entity\special\group\gp_float.c
;	COMDAT ?set_client_float_value@@YGXPAUENTITY@@W4FLOAT_TYPES@@M@Z
_TEXT	SEGMENT
_en$ = 8						; size = 4
_type$ = 12						; size = 4
_value$ = 16						; size = 4
?set_client_float_value@@YGXPAUENTITY@@W4FLOAT_TYPES@@M@Z PROC ; set_client_float_value, COMDAT

; 192  : {

  00000	55		 push	 ebp
  00001	8b ec		 mov	 ebp, esp
  00003	83 ec 40	 sub	 esp, 64			; 00000040H
  00006	53		 push	 ebx
  00007	56		 push	 esi
  00008	57		 push	 edi

; 193  : 	if (get_comms_data_flow () == COMMS_DATA_FLOW_TX)

  00009	83 3d 00 00 00
	00 00		 cmp	 DWORD PTR ?system_comms_data_flow@@3W4COMMS_DATA_FLOW_TYPES@@A, 0 ; system_comms_data_flow
  00010	75 3b		 jne	 SHORT $LN2@set_client

; 194  : 	{
; 195  : 		validate_client_server_remote_fn ();

  00012	e8 00 00 00 00	 call	 ?assert_client_server_remote_fn@@YGHXZ ; assert_client_server_remote_fn
  00017	85 c0		 test	 eax, eax
  00019	75 18		 jne	 SHORT $LN4@set_client
  0001b	a1 00 00 00 00	 mov	 eax, DWORD PTR ?__LINE__Var@?0??set_client_float_value@@YGXPAUENTITY@@W4FLOAT_TYPES@@M@Z@4JA
  00020	83 c0 03	 add	 eax, 3
  00023	50		 push	 eax
  00024	68 00 00 00 00	 push	 OFFSET ??_C@_0EM@NFFLKADJ@c?3?2users?2nhv90?2projects?2eech?2ap@
  00029	68 00 00 00 00	 push	 OFFSET ??_C@_0CC@BNNNEGEG@assert_client_server_remote_fn?5@
  0002e	e8 00 00 00 00	 call	 ?process_assert@@YGXPBD0H@Z ; process_assert
$LN4@set_client:

; 196  : 
; 197  : 		set_remote_float_value (en, type, value);

  00033	51		 push	 ecx
  00034	f3 0f 10 45 10	 movss	 xmm0, DWORD PTR _value$[ebp]
  00039	f3 0f 11 04 24	 movss	 DWORD PTR [esp], xmm0
  0003e	8b 45 0c	 mov	 eax, DWORD PTR _type$[ebp]
  00041	50		 push	 eax
  00042	8b 4d 08	 mov	 ecx, DWORD PTR _en$[ebp]
  00045	51		 push	 ecx
  00046	e8 00 00 00 00	 call	 ?set_remote_float_value@@YGXPAUENTITY@@W4FLOAT_TYPES@@M@Z ; set_remote_float_value

; 198  : 	}
; 199  : 	else

  0004b	eb 39		 jmp	 SHORT $LN3@set_client
$LN2@set_client:

; 200  : 	{
; 201  : 		validate_client_server_local_fn ();

  0004d	e8 00 00 00 00	 call	 ?assert_client_server_local_fn@@YGHXZ ; assert_client_server_local_fn
  00052	85 c0		 test	 eax, eax
  00054	75 18		 jne	 SHORT $LN5@set_client
  00056	a1 00 00 00 00	 mov	 eax, DWORD PTR ?__LINE__Var@?0??set_client_float_value@@YGXPAUENTITY@@W4FLOAT_TYPES@@M@Z@4JA
  0005b	83 c0 09	 add	 eax, 9
  0005e	50		 push	 eax
  0005f	68 00 00 00 00	 push	 OFFSET ??_C@_0EM@NFFLKADJ@c?3?2users?2nhv90?2projects?2eech?2ap@
  00064	68 00 00 00 00	 push	 OFFSET ??_C@_0CB@CFOCLFOK@assert_client_server_local_fn?5?$CI@
  00069	e8 00 00 00 00	 call	 ?process_assert@@YGXPBD0H@Z ; process_assert
$LN5@set_client:

; 202  : 
; 203  : 		set_local_float_value (en, type, value);

  0006e	51		 push	 ecx
  0006f	f3 0f 10 45 10	 movss	 xmm0, DWORD PTR _value$[ebp]
  00074	f3 0f 11 04 24	 movss	 DWORD PTR [esp], xmm0
  00079	8b 45 0c	 mov	 eax, DWORD PTR _type$[ebp]
  0007c	50		 push	 eax
  0007d	8b 4d 08	 mov	 ecx, DWORD PTR _en$[ebp]
  00080	51		 push	 ecx
  00081	e8 00 00 00 00	 call	 ?set_local_float_value@@YGXPAUENTITY@@W4FLOAT_TYPES@@M@Z ; set_local_float_value
$LN3@set_client:

; 204  : 	}
; 205  : }

  00086	5f		 pop	 edi
  00087	5e		 pop	 esi
  00088	5b		 pop	 ebx
  00089	8b e5		 mov	 esp, ebp
  0008b	5d		 pop	 ebp
  0008c	c2 0c 00	 ret	 12			; 0000000cH
?set_client_float_value@@YGXPAUENTITY@@W4FLOAT_TYPES@@M@Z ENDP ; set_client_float_value
_TEXT	ENDS
; Function compile flags: /Odtp /ZI
; File c:\users\nhv90\projects\eech\aphavoc\source\entity\special\group\gp_float.c
;	COMDAT ?set_server_float_value@@YGXPAUENTITY@@W4FLOAT_TYPES@@M@Z
_TEXT	SEGMENT
_en$ = 8						; size = 4
_type$ = 12						; size = 4
_value$ = 16						; size = 4
?set_server_float_value@@YGXPAUENTITY@@W4FLOAT_TYPES@@M@Z PROC ; set_server_float_value, COMDAT

; 177  : {

  00000	55		 push	 ebp
  00001	8b ec		 mov	 ebp, esp
  00003	83 ec 40	 sub	 esp, 64			; 00000040H
  00006	53		 push	 ebx
  00007	56		 push	 esi
  00008	57		 push	 edi

; 178  : 	validate_client_server_local_fn ();

  00009	e8 00 00 00 00	 call	 ?assert_client_server_local_fn@@YGHXZ ; assert_client_server_local_fn
  0000e	85 c0		 test	 eax, eax
  00010	75 18		 jne	 SHORT $LN2@set_server
  00012	a1 00 00 00 00	 mov	 eax, DWORD PTR ?__LINE__Var@?0??set_server_float_value@@YGXPAUENTITY@@W4FLOAT_TYPES@@M@Z@4JA
  00017	83 c0 01	 add	 eax, 1
  0001a	50		 push	 eax
  0001b	68 00 00 00 00	 push	 OFFSET ??_C@_0EM@NFFLKADJ@c?3?2users?2nhv90?2projects?2eech?2ap@
  00020	68 00 00 00 00	 push	 OFFSET ??_C@_0CB@CFOCLFOK@assert_client_server_local_fn?5?$CI@
  00025	e8 00 00 00 00	 call	 ?process_assert@@YGXPBD0H@Z ; process_assert
$LN2@set_server:

; 179  : 
; 180  : 	set_local_float_value (en, type, value);

  0002a	51		 push	 ecx
  0002b	f3 0f 10 45 10	 movss	 xmm0, DWORD PTR _value$[ebp]
  00030	f3 0f 11 04 24	 movss	 DWORD PTR [esp], xmm0
  00035	8b 45 0c	 mov	 eax, DWORD PTR _type$[ebp]
  00038	50		 push	 eax
  00039	8b 4d 08	 mov	 ecx, DWORD PTR _en$[ebp]
  0003c	51		 push	 ecx
  0003d	e8 00 00 00 00	 call	 ?set_local_float_value@@YGXPAUENTITY@@W4FLOAT_TYPES@@M@Z ; set_local_float_value

; 181  : 
; 182  : 	validate_client_server_remote_fn ();

  00042	e8 00 00 00 00	 call	 ?assert_client_server_remote_fn@@YGHXZ ; assert_client_server_remote_fn
  00047	85 c0		 test	 eax, eax
  00049	75 18		 jne	 SHORT $LN3@set_server
  0004b	a1 00 00 00 00	 mov	 eax, DWORD PTR ?__LINE__Var@?0??set_server_float_value@@YGXPAUENTITY@@W4FLOAT_TYPES@@M@Z@4JA
  00050	83 c0 05	 add	 eax, 5
  00053	50		 push	 eax
  00054	68 00 00 00 00	 push	 OFFSET ??_C@_0EM@NFFLKADJ@c?3?2users?2nhv90?2projects?2eech?2ap@
  00059	68 00 00 00 00	 push	 OFFSET ??_C@_0CC@BNNNEGEG@assert_client_server_remote_fn?5@
  0005e	e8 00 00 00 00	 call	 ?process_assert@@YGXPBD0H@Z ; process_assert
$LN3@set_server:

; 183  : 
; 184  : 	set_remote_float_value (en, type, value);

  00063	51		 push	 ecx
  00064	f3 0f 10 45 10	 movss	 xmm0, DWORD PTR _value$[ebp]
  00069	f3 0f 11 04 24	 movss	 DWORD PTR [esp], xmm0
  0006e	8b 45 0c	 mov	 eax, DWORD PTR _type$[ebp]
  00071	50		 push	 eax
  00072	8b 4d 08	 mov	 ecx, DWORD PTR _en$[ebp]
  00075	51		 push	 ecx
  00076	e8 00 00 00 00	 call	 ?set_remote_float_value@@YGXPAUENTITY@@W4FLOAT_TYPES@@M@Z ; set_remote_float_value

; 185  : }

  0007b	5f		 pop	 edi
  0007c	5e		 pop	 esi
  0007d	5b		 pop	 ebx
  0007e	8b e5		 mov	 esp, ebp
  00080	5d		 pop	 ebp
  00081	c2 0c 00	 ret	 12			; 0000000cH
?set_server_float_value@@YGXPAUENTITY@@W4FLOAT_TYPES@@M@Z ENDP ; set_server_float_value
_TEXT	ENDS
; Function compile flags: /Odtp /ZI
; File c:\users\nhv90\projects\eech\aphavoc\source\entity\special\group\gp_float.c
;	COMDAT ?set_remote_float_value@@YGXPAUENTITY@@W4FLOAT_TYPES@@M@Z
_TEXT	SEGMENT
_en$ = 8						; size = 4
_type$ = 12						; size = 4
_value$ = 16						; size = 4
?set_remote_float_value@@YGXPAUENTITY@@W4FLOAT_TYPES@@M@Z PROC ; set_remote_float_value, COMDAT

; 162  : {

  00000	55		 push	 ebp
  00001	8b ec		 mov	 ebp, esp
  00003	83 ec 40	 sub	 esp, 64			; 00000040H
  00006	53		 push	 ebx
  00007	56		 push	 esi
  00008	57		 push	 edi

; 163  : 	#if DEBUG_MODULE
; 164  : 
; 165  : 	debug_log_entity_args (ENTITY_DEBUG_REMOTE, ENTITY_DEBUG_FLOAT_VALUE, en, type, value);
; 166  : 
; 167  : 	#endif
; 168  : 
; 169  : 	transmit_entity_comms_message (ENTITY_COMMS_FLOAT_VALUE, en, type, value);

  00009	f3 0f 5a 45 10	 cvtss2sd xmm0, DWORD PTR _value$[ebp]
  0000e	83 ec 08	 sub	 esp, 8
  00011	f2 0f 11 04 24	 movsd	 QWORD PTR [esp], xmm0
  00016	8b 45 0c	 mov	 eax, DWORD PTR _type$[ebp]
  00019	50		 push	 eax
  0001a	8b 4d 08	 mov	 ecx, DWORD PTR _en$[ebp]
  0001d	51		 push	 ecx
  0001e	6a 16		 push	 22			; 00000016H
  00020	e8 00 00 00 00	 call	 ?transmit_entity_comms_message@@YAXW4ENTITY_COMMS_MESSAGES@@PAUENTITY@@ZZ ; transmit_entity_comms_message
  00025	83 c4 14	 add	 esp, 20			; 00000014H

; 170  : }

  00028	5f		 pop	 edi
  00029	5e		 pop	 esi
  0002a	5b		 pop	 ebx
  0002b	8b e5		 mov	 esp, ebp
  0002d	5d		 pop	 ebp
  0002e	c2 0c 00	 ret	 12			; 0000000cH
?set_remote_float_value@@YGXPAUENTITY@@W4FLOAT_TYPES@@M@Z ENDP ; set_remote_float_value
_TEXT	ENDS
; Function compile flags: /Odtp /ZI
; File c:\users\nhv90\projects\eech\aphavoc\source\entity\special\group\gp_float.c
;	COMDAT ?set_local_float_value@@YGXPAUENTITY@@W4FLOAT_TYPES@@M@Z
_TEXT	SEGMENT
tv139 = -72						; size = 4
tv65 = -72						; size = 4
_raw$ = -4						; size = 4
_en$ = 8						; size = 4
_type$ = 12						; size = 4
_value$ = 16						; size = 4
?set_local_float_value@@YGXPAUENTITY@@W4FLOAT_TYPES@@M@Z PROC ; set_local_float_value, COMDAT

; 80   : {

  00000	55		 push	 ebp
  00001	8b ec		 mov	 ebp, esp
  00003	83 ec 48	 sub	 esp, 72			; 00000048H
  00006	53		 push	 ebx
  00007	56		 push	 esi
  00008	57		 push	 edi

; 81   : 	group
; 82   : 		*raw;
; 83   : 
; 84   : 	#if DEBUG_MODULE
; 85   : 
; 86   : 	debug_log_entity_args (ENTITY_DEBUG_LOCAL, ENTITY_DEBUG_FLOAT_VALUE, en, type, value);
; 87   : 
; 88   : 	#endif
; 89   : 
; 90   : 	raw = (group *) get_local_entity_data (en);

  00009	8b 45 08	 mov	 eax, DWORD PTR _en$[ebp]
  0000c	8b 48 04	 mov	 ecx, DWORD PTR [eax+4]
  0000f	89 4d fc	 mov	 DWORD PTR _raw$[ebp], ecx

; 91   : 
; 92   : 	switch (type)

  00012	8b 45 0c	 mov	 eax, DWORD PTR _type$[ebp]
  00015	89 45 b8	 mov	 DWORD PTR tv65[ebp], eax
  00018	8b 4d b8	 mov	 ecx, DWORD PTR tv65[ebp]
  0001b	83 e9 08	 sub	 ecx, 8
  0001e	89 4d b8	 mov	 DWORD PTR tv65[ebp], ecx
  00021	83 7d b8 6d	 cmp	 DWORD PTR tv65[ebp], 109 ; 0000006dH
  00025	0f 87 c9 00 00
	00		 ja	 $LN11@set_local_
  0002b	8b 55 b8	 mov	 edx, DWORD PTR tv65[ebp]
  0002e	0f b6 82 00 00
	00 00		 movzx	 eax, BYTE PTR $LN15@set_local_[edx]
  00035	ff 24 85 00 00
	00 00		 jmp	 DWORD PTR $LN16@set_local_[eax*4]
$LN4@set_local_:

; 93   : 	{
; 94   : 		////////////////////////////////////////
; 95   : 		case FLOAT_TYPE_AMMO_SUPPLY_LEVEL:
; 96   : 		////////////////////////////////////////
; 97   : 		{
; 98   : 			raw->supplies.ammo_supply_level = value;

  0003c	8b 45 fc	 mov	 eax, DWORD PTR _raw$[ebp]
  0003f	f3 0f 10 45 10	 movss	 xmm0, DWORD PTR _value$[ebp]
  00044	f3 0f 11 40 7c	 movss	 DWORD PTR [eax+124], xmm0

; 99   : 
; 100  : 			break;

  00049	e9 18 01 00 00	 jmp	 $LN2@set_local_
$LN5@set_local_:

; 101  : 		}
; 102  : 		////////////////////////////////////////
; 103  : 		case FLOAT_TYPE_ASSIST_TIMER:
; 104  : 		////////////////////////////////////////
; 105  : 		{
; 106  : 			raw->assist_timer = value;

  0004e	8b 45 fc	 mov	 eax, DWORD PTR _raw$[ebp]
  00051	f3 0f 10 45 10	 movss	 xmm0, DWORD PTR _value$[ebp]
  00056	f3 0f 11 40 64	 movss	 DWORD PTR [eax+100], xmm0

; 107  : 
; 108  : 			if ((value != 0.0) && (!raw->update_link.parent))

  0005b	f3 0f 5a 45 10	 cvtss2sd xmm0, DWORD PTR _value$[ebp]
  00060	66 0f 2e 05 00
	00 00 00	 ucomisd xmm0, QWORD PTR __real@0000000000000000
  00068	9f		 lahf
  00069	f6 c4 44	 test	 ah, 68			; 00000044H
  0006c	7b 1c		 jnp	 SHORT $LN6@set_local_
  0006e	8b 45 fc	 mov	 eax, DWORD PTR _raw$[ebp]
  00071	83 78 4c 00	 cmp	 DWORD PTR [eax+76], 0
  00075	75 13		 jne	 SHORT $LN6@set_local_

; 109  : 			{
; 110  : 
; 111  : 				insert_local_entity_into_parents_child_list (en, LIST_TYPE_UPDATE, get_update_entity (), NULL);

  00077	6a 00		 push	 0
  00079	a1 00 00 00 00	 mov	 eax, DWORD PTR ?update_entity@@3PAUENTITY@@A ; update_entity
  0007e	50		 push	 eax
  0007f	6a 29		 push	 41			; 00000029H
  00081	8b 4d 08	 mov	 ecx, DWORD PTR _en$[ebp]
  00084	51		 push	 ecx
  00085	e8 00 00 00 00	 call	 ?insert_local_entity_into_parents_child_list@@YGXPAUENTITY@@W4LIST_TYPES@@00@Z ; insert_local_entity_into_parents_child_list
$LN6@set_local_:

; 112  : 			}
; 113  : 
; 114  : 			break;

  0008a	e9 d7 00 00 00	 jmp	 $LN2@set_local_
$LN7@set_local_:

; 115  : 		}
; 116  : 		////////////////////////////////////////
; 117  : 		case FLOAT_TYPE_FUEL_SUPPLY_LEVEL:
; 118  : 		////////////////////////////////////////
; 119  : 		{
; 120  : 			raw->supplies.fuel_supply_level = value;

  0008f	8b 45 fc	 mov	 eax, DWORD PTR _raw$[ebp]
  00092	f3 0f 10 45 10	 movss	 xmm0, DWORD PTR _value$[ebp]
  00097	f3 0f 11 80 80
	00 00 00	 movss	 DWORD PTR [eax+128], xmm0

; 121  : 
; 122  : 			break;

  0009f	e9 c2 00 00 00	 jmp	 $LN2@set_local_
$LN8@set_local_:

; 123  : 		}
; 124  : 		////////////////////////////////////////
; 125  : 		case FLOAT_TYPE_SLEEP:
; 126  : 		////////////////////////////////////////
; 127  : 		{
; 128  : 			raw->sleep = value;

  000a4	8b 45 fc	 mov	 eax, DWORD PTR _raw$[ebp]
  000a7	f3 0f 10 45 10	 movss	 xmm0, DWORD PTR _value$[ebp]
  000ac	f3 0f 11 40 5c	 movss	 DWORD PTR [eax+92], xmm0

; 129  : 
; 130  : 			if ((value != 0.0) && (!raw->update_link.parent))

  000b1	f3 0f 5a 45 10	 cvtss2sd xmm0, DWORD PTR _value$[ebp]
  000b6	66 0f 2e 05 00
	00 00 00	 ucomisd xmm0, QWORD PTR __real@0000000000000000
  000be	9f		 lahf
  000bf	f6 c4 44	 test	 ah, 68			; 00000044H
  000c2	7b 1c		 jnp	 SHORT $LN9@set_local_
  000c4	8b 45 fc	 mov	 eax, DWORD PTR _raw$[ebp]
  000c7	83 78 4c 00	 cmp	 DWORD PTR [eax+76], 0
  000cb	75 13		 jne	 SHORT $LN9@set_local_

; 131  : 			{
; 132  : 
; 133  : 				insert_local_entity_into_parents_child_list (en, LIST_TYPE_UPDATE, get_update_entity (), NULL);

  000cd	6a 00		 push	 0
  000cf	a1 00 00 00 00	 mov	 eax, DWORD PTR ?update_entity@@3PAUENTITY@@A ; update_entity
  000d4	50		 push	 eax
  000d5	6a 29		 push	 41			; 00000029H
  000d7	8b 4d 08	 mov	 ecx, DWORD PTR _en$[ebp]
  000da	51		 push	 ecx
  000db	e8 00 00 00 00	 call	 ?insert_local_entity_into_parents_child_list@@YGXPAUENTITY@@W4LIST_TYPES@@00@Z ; insert_local_entity_into_parents_child_list
$LN9@set_local_:

; 134  : 			}
; 135  : 
; 136  : 			break;

  000e0	e9 81 00 00 00	 jmp	 $LN2@set_local_
$LN10@set_local_:

; 137  : 		}
; 138  : 		////////////////////////////////////////
; 139  : 		case FLOAT_TYPE_LAST_SEEN_TIME:
; 140  : 		////////////////////////////////////////
; 141  : 		{
; 142  : 			raw->last_seen_time = value;

  000e5	8b 45 fc	 mov	 eax, DWORD PTR _raw$[ebp]
  000e8	f3 0f 10 45 10	 movss	 xmm0, DWORD PTR _value$[ebp]
  000ed	f3 0f 11 40 60	 movss	 DWORD PTR [eax+96], xmm0

; 143  : 
; 144  : 			break;

  000f2	eb 72		 jmp	 SHORT $LN2@set_local_
$LN11@set_local_:

; 145  : 		}
; 146  : 		////////////////////////////////////////
; 147  : 		default:
; 148  : 		////////////////////////////////////////
; 149  : 		{
; 150  : 			debug_fatal_invalid_float_type (en, type);

  000f4	83 7d 08 00	 cmp	 DWORD PTR _en$[ebp], 0
  000f8	74 0a		 je	 SHORT $LN13@set_local_
  000fa	8b 45 08	 mov	 eax, DWORD PTR _en$[ebp]
  000fd	8b 08		 mov	 ecx, DWORD PTR [eax]
  000ff	89 4d b8	 mov	 DWORD PTR tv139[ebp], ecx
  00102	eb 21		 jmp	 SHORT $LN14@set_local_
$LN13@set_local_:
  00104	8b 15 00 00 00
	00		 mov	 edx, DWORD PTR ?__LINE__Var@?0??set_local_float_value@@YGXPAUENTITY@@W4FLOAT_TYPES@@M@Z@4JA
  0010a	83 c2 46	 add	 edx, 70			; 00000046H
  0010d	52		 push	 edx
  0010e	68 00 00 00 00	 push	 OFFSET ??_C@_0EM@NFFLKADJ@c?3?2users?2nhv90?2projects?2eech?2ap@
  00113	a1 00 00 00 00	 mov	 eax, DWORD PTR ?null_entity_pointer_message@@3PBDB ; null_entity_pointer_message
  00118	50		 push	 eax
  00119	e8 00 00 00 00	 call	 ?process_assert@@YGXPBD0H@Z ; process_assert
  0011e	c7 45 b8 00 00
	00 00		 mov	 DWORD PTR tv139[ebp], 0
$LN14@set_local_:
  00125	8b 0d 00 00 00
	00		 mov	 ecx, DWORD PTR ?__LINE__Var@?0??set_local_float_value@@YGXPAUENTITY@@W4FLOAT_TYPES@@M@Z@4JA
  0012b	83 c1 46	 add	 ecx, 70			; 00000046H
  0012e	51		 push	 ecx
  0012f	68 00 00 00 00	 push	 OFFSET ??_C@_0EM@NFFLKADJ@c?3?2users?2nhv90?2projects?2eech?2ap@
  00134	6b 55 0c 18	 imul	 edx, DWORD PTR _type$[ebp], 24
  00138	8b 82 00 00 00
	00		 mov	 eax, DWORD PTR ?float_type_database@@3PAUFLOAT_TYPE_DATA@@A[edx]
  0013e	50		 push	 eax
  0013f	8b 4d 08	 mov	 ecx, DWORD PTR _en$[ebp]
  00142	2b 0d 00 00 00
	00		 sub	 ecx, DWORD PTR ?entities@@3PAUENTITY@@A ; entities
  00148	c1 f9 04	 sar	 ecx, 4
  0014b	51		 push	 ecx
  0014c	6b 55 b8 0c	 imul	 edx, DWORD PTR tv139[ebp], 12
  00150	8b 82 00 00 00
	00		 mov	 eax, DWORD PTR ?entity_type_database@@3PAUENTITY_TYPE_DATA@@A[edx]
  00156	50		 push	 eax
  00157	8b 0d 00 00 00
	00		 mov	 ecx, DWORD PTR ?debug_fatal_invalid_float_type_message@@3PBDB ; debug_fatal_invalid_float_type_message
  0015d	51		 push	 ecx
  0015e	e8 00 00 00 00	 call	 ?debug_fatal@@YAXPBDZZ	; debug_fatal
  00163	83 c4 18	 add	 esp, 24			; 00000018H
$LN2@set_local_:

; 151  : 
; 152  : 			break;
; 153  : 		}
; 154  : 	}
; 155  : }

  00166	5f		 pop	 edi
  00167	5e		 pop	 esi
  00168	5b		 pop	 ebx
  00169	8b e5		 mov	 esp, ebp
  0016b	5d		 pop	 ebp
  0016c	c2 0c 00	 ret	 12			; 0000000cH
  0016f	90		 npad	 1
$LN16@set_local_:
  00170	00 00 00 00	 DD	 $LN4@set_local_
  00174	00 00 00 00	 DD	 $LN5@set_local_
  00178	00 00 00 00	 DD	 $LN7@set_local_
  0017c	00 00 00 00	 DD	 $LN10@set_local_
  00180	00 00 00 00	 DD	 $LN8@set_local_
  00184	00 00 00 00	 DD	 $LN11@set_local_
$LN15@set_local_:
  00188	00		 DB	 0
  00189	05		 DB	 5
  0018a	05		 DB	 5
  0018b	05		 DB	 5
  0018c	05		 DB	 5
  0018d	01		 DB	 1
  0018e	05		 DB	 5
  0018f	05		 DB	 5
  00190	05		 DB	 5
  00191	05		 DB	 5
  00192	05		 DB	 5
  00193	05		 DB	 5
  00194	05		 DB	 5
  00195	05		 DB	 5
  00196	05		 DB	 5
  00197	05		 DB	 5
  00198	05		 DB	 5
  00199	05		 DB	 5
  0019a	05		 DB	 5
  0019b	05		 DB	 5
  0019c	05		 DB	 5
  0019d	05		 DB	 5
  0019e	05		 DB	 5
  0019f	05		 DB	 5
  001a0	05		 DB	 5
  001a1	05		 DB	 5
  001a2	05		 DB	 5
  001a3	05		 DB	 5
  001a4	05		 DB	 5
  001a5	05		 DB	 5
  001a6	05		 DB	 5
  001a7	05		 DB	 5
  001a8	05		 DB	 5
  001a9	05		 DB	 5
  001aa	05		 DB	 5
  001ab	05		 DB	 5
  001ac	05		 DB	 5
  001ad	05		 DB	 5
  001ae	05		 DB	 5
  001af	05		 DB	 5
  001b0	02		 DB	 2
  001b1	05		 DB	 5
  001b2	05		 DB	 5
  001b3	05		 DB	 5
  001b4	05		 DB	 5
  001b5	05		 DB	 5
  001b6	05		 DB	 5
  001b7	05		 DB	 5
  001b8	05		 DB	 5
  001b9	05		 DB	 5
  001ba	05		 DB	 5
  001bb	05		 DB	 5
  001bc	03		 DB	 3
  001bd	05		 DB	 5
  001be	05		 DB	 5
  001bf	05		 DB	 5
  001c0	05		 DB	 5
  001c1	05		 DB	 5
  001c2	05		 DB	 5
  001c3	05		 DB	 5
  001c4	05		 DB	 5
  001c5	05		 DB	 5
  001c6	05		 DB	 5
  001c7	05		 DB	 5
  001c8	05		 DB	 5
  001c9	05		 DB	 5
  001ca	05		 DB	 5
  001cb	05		 DB	 5
  001cc	05		 DB	 5
  001cd	05		 DB	 5
  001ce	05		 DB	 5
  001cf	05		 DB	 5
  001d0	05		 DB	 5
  001d1	05		 DB	 5
  001d2	05		 DB	 5
  001d3	05		 DB	 5
  001d4	05		 DB	 5
  001d5	05		 DB	 5
  001d6	05		 DB	 5
  001d7	05		 DB	 5
  001d8	05		 DB	 5
  001d9	05		 DB	 5
  001da	05		 DB	 5
  001db	05		 DB	 5
  001dc	05		 DB	 5
  001dd	05		 DB	 5
  001de	05		 DB	 5
  001df	05		 DB	 5
  001e0	05		 DB	 5
  001e1	05		 DB	 5
  001e2	05		 DB	 5
  001e3	05		 DB	 5
  001e4	05		 DB	 5
  001e5	05		 DB	 5
  001e6	05		 DB	 5
  001e7	05		 DB	 5
  001e8	05		 DB	 5
  001e9	05		 DB	 5
  001ea	05		 DB	 5
  001eb	05		 DB	 5
  001ec	05		 DB	 5
  001ed	05		 DB	 5
  001ee	05		 DB	 5
  001ef	05		 DB	 5
  001f0	05		 DB	 5
  001f1	05		 DB	 5
  001f2	05		 DB	 5
  001f3	05		 DB	 5
  001f4	05		 DB	 5
  001f5	04		 DB	 4
?set_local_float_value@@YGXPAUENTITY@@W4FLOAT_TYPES@@M@Z ENDP ; set_local_float_value
_TEXT	ENDS
; Function compile flags: /Odtp /ZI
; File c:\users\nhv90\projects\eech\aphavoc\source\entity\special\group\gp_float.c
;	COMDAT ?overload_group_float_value_functions@@YGXXZ
_TEXT	SEGMENT
?overload_group_float_value_functions@@YGXXZ PROC	; overload_group_float_value_functions, COMDAT

; 297  : {

  00000	55		 push	 ebp
  00001	8b ec		 mov	 ebp, esp
  00003	83 ec 40	 sub	 esp, 64			; 00000040H
  00006	53		 push	 ebx
  00007	56		 push	 esi
  00008	57		 push	 edi

; 298  : 	fn_set_local_entity_raw_float_value			[ENTITY_TYPE_GROUP][FLOAT_TYPE_AMMO_SUPPLY_LEVEL]								= set_local_float_value;

  00009	b8 bc 02 00 00	 mov	 eax, 700		; 000002bcH
  0000e	6b c8 0c	 imul	 ecx, eax, 12
  00011	ba 04 00 00 00	 mov	 edx, 4
  00016	c1 e2 03	 shl	 edx, 3
  00019	c7 84 11 00 00
	00 00 00 00 00
	00		 mov	 DWORD PTR ?fn_set_local_entity_raw_float_value@@3PAY0KP@P6GXPAUENTITY@@W4FLOAT_TYPES@@M@ZA[ecx+edx], OFFSET ?set_local_float_value@@YGXPAUENTITY@@W4FLOAT_TYPES@@M@Z ; set_local_float_value

; 299  : 	fn_set_local_entity_float_value				[ENTITY_TYPE_GROUP][FLOAT_TYPE_AMMO_SUPPLY_LEVEL]								= set_local_float_value;

  00024	b8 bc 02 00 00	 mov	 eax, 700		; 000002bcH
  00029	6b c8 0c	 imul	 ecx, eax, 12
  0002c	ba 04 00 00 00	 mov	 edx, 4
  00031	c1 e2 03	 shl	 edx, 3
  00034	c7 84 11 00 00
	00 00 00 00 00
	00		 mov	 DWORD PTR ?fn_set_local_entity_float_value@@3PAY0KP@P6GXPAUENTITY@@W4FLOAT_TYPES@@M@ZA[ecx+edx], OFFSET ?set_local_float_value@@YGXPAUENTITY@@W4FLOAT_TYPES@@M@Z ; set_local_float_value

; 300  : 	fn_set_client_server_entity_float_value	[ENTITY_TYPE_GROUP][FLOAT_TYPE_AMMO_SUPPLY_LEVEL][COMMS_MODEL_SERVER]	= set_server_float_value;

  0003f	b8 78 05 00 00	 mov	 eax, 1400		; 00000578H
  00044	6b c8 0c	 imul	 ecx, eax, 12
  00047	ba 08 00 00 00	 mov	 edx, 8
  0004c	c1 e2 03	 shl	 edx, 3
  0004f	8d 84 11 00 00
	00 00		 lea	 eax, DWORD PTR ?fn_set_client_server_entity_float_value@@3PAY1KP@1P6GXPAUENTITY@@W4FLOAT_TYPES@@M@ZA[ecx+edx]
  00056	b9 04 00 00 00	 mov	 ecx, 4
  0005b	6b d1 00	 imul	 edx, ecx, 0
  0005e	c7 04 10 00 00
	00 00		 mov	 DWORD PTR [eax+edx], OFFSET ?set_server_float_value@@YGXPAUENTITY@@W4FLOAT_TYPES@@M@Z ; set_server_float_value

; 301  : 	fn_set_client_server_entity_float_value	[ENTITY_TYPE_GROUP][FLOAT_TYPE_AMMO_SUPPLY_LEVEL][COMMS_MODEL_CLIENT]	= set_client_float_value;

  00065	b8 78 05 00 00	 mov	 eax, 1400		; 00000578H
  0006a	6b c8 0c	 imul	 ecx, eax, 12
  0006d	ba 08 00 00 00	 mov	 edx, 8
  00072	c1 e2 03	 shl	 edx, 3
  00075	8d 84 11 00 00
	00 00		 lea	 eax, DWORD PTR ?fn_set_client_server_entity_float_value@@3PAY1KP@1P6GXPAUENTITY@@W4FLOAT_TYPES@@M@ZA[ecx+edx]
  0007c	b9 04 00 00 00	 mov	 ecx, 4
  00081	c1 e1 00	 shl	 ecx, 0
  00084	c7 04 08 00 00
	00 00		 mov	 DWORD PTR [eax+ecx], OFFSET ?set_client_float_value@@YGXPAUENTITY@@W4FLOAT_TYPES@@M@Z ; set_client_float_value

; 302  : 	fn_get_local_entity_float_value				[ENTITY_TYPE_GROUP][FLOAT_TYPE_AMMO_SUPPLY_LEVEL]								= get_local_float_value;

  0008b	b8 bc 02 00 00	 mov	 eax, 700		; 000002bcH
  00090	6b c8 0c	 imul	 ecx, eax, 12
  00093	ba 04 00 00 00	 mov	 edx, 4
  00098	c1 e2 03	 shl	 edx, 3
  0009b	c7 84 11 00 00
	00 00 00 00 00
	00		 mov	 DWORD PTR ?fn_get_local_entity_float_value@@3PAY0KP@P6GMPAUENTITY@@W4FLOAT_TYPES@@@ZA[ecx+edx], OFFSET ?get_local_float_value@@YGMPAUENTITY@@W4FLOAT_TYPES@@@Z ; get_local_float_value

; 303  : 
; 304  : 	fn_set_local_entity_raw_float_value			[ENTITY_TYPE_GROUP][FLOAT_TYPE_ASSIST_TIMER]										= set_local_float_value;

  000a6	b8 bc 02 00 00	 mov	 eax, 700		; 000002bcH
  000ab	6b c8 0c	 imul	 ecx, eax, 12
  000ae	ba 04 00 00 00	 mov	 edx, 4
  000b3	6b c2 0d	 imul	 eax, edx, 13
  000b6	c7 84 01 00 00
	00 00 00 00 00
	00		 mov	 DWORD PTR ?fn_set_local_entity_raw_float_value@@3PAY0KP@P6GXPAUENTITY@@W4FLOAT_TYPES@@M@ZA[ecx+eax], OFFSET ?set_local_float_value@@YGXPAUENTITY@@W4FLOAT_TYPES@@M@Z ; set_local_float_value

; 305  : 	fn_set_local_entity_float_value				[ENTITY_TYPE_GROUP][FLOAT_TYPE_ASSIST_TIMER]										= set_local_float_value;

  000c1	b8 bc 02 00 00	 mov	 eax, 700		; 000002bcH
  000c6	6b c8 0c	 imul	 ecx, eax, 12
  000c9	ba 04 00 00 00	 mov	 edx, 4
  000ce	6b c2 0d	 imul	 eax, edx, 13
  000d1	c7 84 01 00 00
	00 00 00 00 00
	00		 mov	 DWORD PTR ?fn_set_local_entity_float_value@@3PAY0KP@P6GXPAUENTITY@@W4FLOAT_TYPES@@M@ZA[ecx+eax], OFFSET ?set_local_float_value@@YGXPAUENTITY@@W4FLOAT_TYPES@@M@Z ; set_local_float_value

; 306  : 	fn_set_client_server_entity_float_value	[ENTITY_TYPE_GROUP][FLOAT_TYPE_ASSIST_TIMER][COMMS_MODEL_SERVER]			= set_server_float_value;

  000dc	b8 78 05 00 00	 mov	 eax, 1400		; 00000578H
  000e1	6b c8 0c	 imul	 ecx, eax, 12
  000e4	ba 08 00 00 00	 mov	 edx, 8
  000e9	6b c2 0d	 imul	 eax, edx, 13
  000ec	8d 8c 01 00 00
	00 00		 lea	 ecx, DWORD PTR ?fn_set_client_server_entity_float_value@@3PAY1KP@1P6GXPAUENTITY@@W4FLOAT_TYPES@@M@ZA[ecx+eax]
  000f3	ba 04 00 00 00	 mov	 edx, 4
  000f8	6b c2 00	 imul	 eax, edx, 0
  000fb	c7 04 01 00 00
	00 00		 mov	 DWORD PTR [ecx+eax], OFFSET ?set_server_float_value@@YGXPAUENTITY@@W4FLOAT_TYPES@@M@Z ; set_server_float_value

; 307  : 	fn_set_client_server_entity_float_value	[ENTITY_TYPE_GROUP][FLOAT_TYPE_ASSIST_TIMER][COMMS_MODEL_CLIENT]			= set_client_float_value;

  00102	b8 78 05 00 00	 mov	 eax, 1400		; 00000578H
  00107	6b c8 0c	 imul	 ecx, eax, 12
  0010a	ba 08 00 00 00	 mov	 edx, 8
  0010f	6b c2 0d	 imul	 eax, edx, 13
  00112	8d 8c 01 00 00
	00 00		 lea	 ecx, DWORD PTR ?fn_set_client_server_entity_float_value@@3PAY1KP@1P6GXPAUENTITY@@W4FLOAT_TYPES@@M@ZA[ecx+eax]
  00119	ba 04 00 00 00	 mov	 edx, 4
  0011e	c1 e2 00	 shl	 edx, 0
  00121	c7 04 11 00 00
	00 00		 mov	 DWORD PTR [ecx+edx], OFFSET ?set_client_float_value@@YGXPAUENTITY@@W4FLOAT_TYPES@@M@Z ; set_client_float_value

; 308  : 	fn_get_local_entity_float_value				[ENTITY_TYPE_GROUP][FLOAT_TYPE_ASSIST_TIMER]										= get_local_float_value;

  00128	b8 bc 02 00 00	 mov	 eax, 700		; 000002bcH
  0012d	6b c8 0c	 imul	 ecx, eax, 12
  00130	ba 04 00 00 00	 mov	 edx, 4
  00135	6b c2 0d	 imul	 eax, edx, 13
  00138	c7 84 01 00 00
	00 00 00 00 00
	00		 mov	 DWORD PTR ?fn_get_local_entity_float_value@@3PAY0KP@P6GMPAUENTITY@@W4FLOAT_TYPES@@@ZA[ecx+eax], OFFSET ?get_local_float_value@@YGMPAUENTITY@@W4FLOAT_TYPES@@@Z ; get_local_float_value

; 309  : 
; 310  : 	fn_set_local_entity_raw_float_value			[ENTITY_TYPE_GROUP][FLOAT_TYPE_FUEL_SUPPLY_LEVEL]								= set_local_float_value;

  00143	b8 bc 02 00 00	 mov	 eax, 700		; 000002bcH
  00148	6b c8 0c	 imul	 ecx, eax, 12
  0014b	ba 04 00 00 00	 mov	 edx, 4
  00150	6b c2 30	 imul	 eax, edx, 48
  00153	c7 84 01 00 00
	00 00 00 00 00
	00		 mov	 DWORD PTR ?fn_set_local_entity_raw_float_value@@3PAY0KP@P6GXPAUENTITY@@W4FLOAT_TYPES@@M@ZA[ecx+eax], OFFSET ?set_local_float_value@@YGXPAUENTITY@@W4FLOAT_TYPES@@M@Z ; set_local_float_value

; 311  : 	fn_set_local_entity_float_value				[ENTITY_TYPE_GROUP][FLOAT_TYPE_FUEL_SUPPLY_LEVEL]								= set_local_float_value;

  0015e	b8 bc 02 00 00	 mov	 eax, 700		; 000002bcH
  00163	6b c8 0c	 imul	 ecx, eax, 12
  00166	ba 04 00 00 00	 mov	 edx, 4
  0016b	6b c2 30	 imul	 eax, edx, 48
  0016e	c7 84 01 00 00
	00 00 00 00 00
	00		 mov	 DWORD PTR ?fn_set_local_entity_float_value@@3PAY0KP@P6GXPAUENTITY@@W4FLOAT_TYPES@@M@ZA[ecx+eax], OFFSET ?set_local_float_value@@YGXPAUENTITY@@W4FLOAT_TYPES@@M@Z ; set_local_float_value

; 312  : 	fn_set_client_server_entity_float_value	[ENTITY_TYPE_GROUP][FLOAT_TYPE_FUEL_SUPPLY_LEVEL][COMMS_MODEL_SERVER]	= set_server_float_value;

  00179	b8 78 05 00 00	 mov	 eax, 1400		; 00000578H
  0017e	6b c8 0c	 imul	 ecx, eax, 12
  00181	ba 08 00 00 00	 mov	 edx, 8
  00186	6b c2 30	 imul	 eax, edx, 48
  00189	8d 8c 01 00 00
	00 00		 lea	 ecx, DWORD PTR ?fn_set_client_server_entity_float_value@@3PAY1KP@1P6GXPAUENTITY@@W4FLOAT_TYPES@@M@ZA[ecx+eax]
  00190	ba 04 00 00 00	 mov	 edx, 4
  00195	6b c2 00	 imul	 eax, edx, 0
  00198	c7 04 01 00 00
	00 00		 mov	 DWORD PTR [ecx+eax], OFFSET ?set_server_float_value@@YGXPAUENTITY@@W4FLOAT_TYPES@@M@Z ; set_server_float_value

; 313  : 	fn_set_client_server_entity_float_value	[ENTITY_TYPE_GROUP][FLOAT_TYPE_FUEL_SUPPLY_LEVEL][COMMS_MODEL_CLIENT]	= set_client_float_value;

  0019f	b8 78 05 00 00	 mov	 eax, 1400		; 00000578H
  001a4	6b c8 0c	 imul	 ecx, eax, 12
  001a7	ba 08 00 00 00	 mov	 edx, 8
  001ac	6b c2 30	 imul	 eax, edx, 48
  001af	8d 8c 01 00 00
	00 00		 lea	 ecx, DWORD PTR ?fn_set_client_server_entity_float_value@@3PAY1KP@1P6GXPAUENTITY@@W4FLOAT_TYPES@@M@ZA[ecx+eax]
  001b6	ba 04 00 00 00	 mov	 edx, 4
  001bb	c1 e2 00	 shl	 edx, 0
  001be	c7 04 11 00 00
	00 00		 mov	 DWORD PTR [ecx+edx], OFFSET ?set_client_float_value@@YGXPAUENTITY@@W4FLOAT_TYPES@@M@Z ; set_client_float_value

; 314  : 	fn_get_local_entity_float_value				[ENTITY_TYPE_GROUP][FLOAT_TYPE_FUEL_SUPPLY_LEVEL]								= get_local_float_value;

  001c5	b8 bc 02 00 00	 mov	 eax, 700		; 000002bcH
  001ca	6b c8 0c	 imul	 ecx, eax, 12
  001cd	ba 04 00 00 00	 mov	 edx, 4
  001d2	6b c2 30	 imul	 eax, edx, 48
  001d5	c7 84 01 00 00
	00 00 00 00 00
	00		 mov	 DWORD PTR ?fn_get_local_entity_float_value@@3PAY0KP@P6GMPAUENTITY@@W4FLOAT_TYPES@@@ZA[ecx+eax], OFFSET ?get_local_float_value@@YGMPAUENTITY@@W4FLOAT_TYPES@@@Z ; get_local_float_value

; 315  : 
; 316  : 	fn_get_local_entity_float_value				[ENTITY_TYPE_GROUP][FLOAT_TYPE_REARMING_TIME]						= get_local_float_value;

  001e0	b8 bc 02 00 00	 mov	 eax, 700		; 000002bcH
  001e5	6b c8 0c	 imul	 ecx, eax, 12
  001e8	ba 04 00 00 00	 mov	 edx, 4
  001ed	6b c2 6d	 imul	 eax, edx, 109
  001f0	c7 84 01 00 00
	00 00 00 00 00
	00		 mov	 DWORD PTR ?fn_get_local_entity_float_value@@3PAY0KP@P6GMPAUENTITY@@W4FLOAT_TYPES@@@ZA[ecx+eax], OFFSET ?get_local_float_value@@YGMPAUENTITY@@W4FLOAT_TYPES@@@Z ; get_local_float_value

; 317  : 
; 318  : 	fn_get_local_entity_float_value				[ENTITY_TYPE_GROUP][FLOAT_TYPE_RECON_DISTANCE]						= get_local_float_value;

  001fb	b8 bc 02 00 00	 mov	 eax, 700		; 000002bcH
  00200	6b c8 0c	 imul	 ecx, eax, 12
  00203	ba 04 00 00 00	 mov	 edx, 4
  00208	6b c2 6e	 imul	 eax, edx, 110
  0020b	c7 84 01 00 00
	00 00 00 00 00
	00		 mov	 DWORD PTR ?fn_get_local_entity_float_value@@3PAY0KP@P6GMPAUENTITY@@W4FLOAT_TYPES@@@ZA[ecx+eax], OFFSET ?get_local_float_value@@YGMPAUENTITY@@W4FLOAT_TYPES@@@Z ; get_local_float_value

; 319  : 
; 320  : 	fn_set_local_entity_raw_float_value			[ENTITY_TYPE_GROUP][FLOAT_TYPE_SLEEP]									= set_local_float_value;

  00216	b8 bc 02 00 00	 mov	 eax, 700		; 000002bcH
  0021b	6b c8 0c	 imul	 ecx, eax, 12
  0021e	ba 04 00 00 00	 mov	 edx, 4
  00223	6b c2 75	 imul	 eax, edx, 117
  00226	c7 84 01 00 00
	00 00 00 00 00
	00		 mov	 DWORD PTR ?fn_set_local_entity_raw_float_value@@3PAY0KP@P6GXPAUENTITY@@W4FLOAT_TYPES@@M@ZA[ecx+eax], OFFSET ?set_local_float_value@@YGXPAUENTITY@@W4FLOAT_TYPES@@M@Z ; set_local_float_value

; 321  : 	fn_set_local_entity_float_value				[ENTITY_TYPE_GROUP][FLOAT_TYPE_SLEEP]									= set_local_float_value;

  00231	b8 bc 02 00 00	 mov	 eax, 700		; 000002bcH
  00236	6b c8 0c	 imul	 ecx, eax, 12
  00239	ba 04 00 00 00	 mov	 edx, 4
  0023e	6b c2 75	 imul	 eax, edx, 117
  00241	c7 84 01 00 00
	00 00 00 00 00
	00		 mov	 DWORD PTR ?fn_set_local_entity_float_value@@3PAY0KP@P6GXPAUENTITY@@W4FLOAT_TYPES@@M@ZA[ecx+eax], OFFSET ?set_local_float_value@@YGXPAUENTITY@@W4FLOAT_TYPES@@M@Z ; set_local_float_value

; 322  : 	fn_set_client_server_entity_float_value	[ENTITY_TYPE_GROUP][FLOAT_TYPE_SLEEP][COMMS_MODEL_SERVER]		= set_server_float_value;

  0024c	b8 78 05 00 00	 mov	 eax, 1400		; 00000578H
  00251	6b c8 0c	 imul	 ecx, eax, 12
  00254	ba 08 00 00 00	 mov	 edx, 8
  00259	6b c2 75	 imul	 eax, edx, 117
  0025c	8d 8c 01 00 00
	00 00		 lea	 ecx, DWORD PTR ?fn_set_client_server_entity_float_value@@3PAY1KP@1P6GXPAUENTITY@@W4FLOAT_TYPES@@M@ZA[ecx+eax]
  00263	ba 04 00 00 00	 mov	 edx, 4
  00268	6b c2 00	 imul	 eax, edx, 0
  0026b	c7 04 01 00 00
	00 00		 mov	 DWORD PTR [ecx+eax], OFFSET ?set_server_float_value@@YGXPAUENTITY@@W4FLOAT_TYPES@@M@Z ; set_server_float_value

; 323  : 	fn_set_client_server_entity_float_value	[ENTITY_TYPE_GROUP][FLOAT_TYPE_SLEEP][COMMS_MODEL_CLIENT]		= set_client_float_value;

  00272	b8 78 05 00 00	 mov	 eax, 1400		; 00000578H
  00277	6b c8 0c	 imul	 ecx, eax, 12
  0027a	ba 08 00 00 00	 mov	 edx, 8
  0027f	6b c2 75	 imul	 eax, edx, 117
  00282	8d 8c 01 00 00
	00 00		 lea	 ecx, DWORD PTR ?fn_set_client_server_entity_float_value@@3PAY1KP@1P6GXPAUENTITY@@W4FLOAT_TYPES@@M@ZA[ecx+eax]
  00289	ba 04 00 00 00	 mov	 edx, 4
  0028e	c1 e2 00	 shl	 edx, 0
  00291	c7 04 11 00 00
	00 00		 mov	 DWORD PTR [ecx+edx], OFFSET ?set_client_float_value@@YGXPAUENTITY@@W4FLOAT_TYPES@@M@Z ; set_client_float_value

; 324  : 	fn_get_local_entity_float_value				[ENTITY_TYPE_GROUP][FLOAT_TYPE_SLEEP]									= get_local_float_value;

  00298	b8 bc 02 00 00	 mov	 eax, 700		; 000002bcH
  0029d	6b c8 0c	 imul	 ecx, eax, 12
  002a0	ba 04 00 00 00	 mov	 edx, 4
  002a5	6b c2 75	 imul	 eax, edx, 117
  002a8	c7 84 01 00 00
	00 00 00 00 00
	00		 mov	 DWORD PTR ?fn_get_local_entity_float_value@@3PAY0KP@P6GMPAUENTITY@@W4FLOAT_TYPES@@@ZA[ecx+eax], OFFSET ?get_local_float_value@@YGMPAUENTITY@@W4FLOAT_TYPES@@@Z ; get_local_float_value

; 325  : 
; 326  : 	fn_set_local_entity_raw_float_value			[ENTITY_TYPE_GROUP][FLOAT_TYPE_LAST_SEEN_TIME]								= set_local_float_value;

  002b3	b8 bc 02 00 00	 mov	 eax, 700		; 000002bcH
  002b8	6b c8 0c	 imul	 ecx, eax, 12
  002bb	ba 04 00 00 00	 mov	 edx, 4
  002c0	6b c2 3c	 imul	 eax, edx, 60
  002c3	c7 84 01 00 00
	00 00 00 00 00
	00		 mov	 DWORD PTR ?fn_set_local_entity_raw_float_value@@3PAY0KP@P6GXPAUENTITY@@W4FLOAT_TYPES@@M@ZA[ecx+eax], OFFSET ?set_local_float_value@@YGXPAUENTITY@@W4FLOAT_TYPES@@M@Z ; set_local_float_value

; 327  : 	fn_set_local_entity_float_value				[ENTITY_TYPE_GROUP][FLOAT_TYPE_LAST_SEEN_TIME]								= set_local_float_value;

  002ce	b8 bc 02 00 00	 mov	 eax, 700		; 000002bcH
  002d3	6b c8 0c	 imul	 ecx, eax, 12
  002d6	ba 04 00 00 00	 mov	 edx, 4
  002db	6b c2 3c	 imul	 eax, edx, 60
  002de	c7 84 01 00 00
	00 00 00 00 00
	00		 mov	 DWORD PTR ?fn_set_local_entity_float_value@@3PAY0KP@P6GXPAUENTITY@@W4FLOAT_TYPES@@M@ZA[ecx+eax], OFFSET ?set_local_float_value@@YGXPAUENTITY@@W4FLOAT_TYPES@@M@Z ; set_local_float_value

; 328  : 	fn_set_client_server_entity_float_value	[ENTITY_TYPE_GROUP][FLOAT_TYPE_LAST_SEEN_TIME][COMMS_MODEL_SERVER]	= set_server_float_value;

  002e9	b8 78 05 00 00	 mov	 eax, 1400		; 00000578H
  002ee	6b c8 0c	 imul	 ecx, eax, 12
  002f1	ba 08 00 00 00	 mov	 edx, 8
  002f6	6b c2 3c	 imul	 eax, edx, 60
  002f9	8d 8c 01 00 00
	00 00		 lea	 ecx, DWORD PTR ?fn_set_client_server_entity_float_value@@3PAY1KP@1P6GXPAUENTITY@@W4FLOAT_TYPES@@M@ZA[ecx+eax]
  00300	ba 04 00 00 00	 mov	 edx, 4
  00305	6b c2 00	 imul	 eax, edx, 0
  00308	c7 04 01 00 00
	00 00		 mov	 DWORD PTR [ecx+eax], OFFSET ?set_server_float_value@@YGXPAUENTITY@@W4FLOAT_TYPES@@M@Z ; set_server_float_value

; 329  : 	fn_set_client_server_entity_float_value	[ENTITY_TYPE_GROUP][FLOAT_TYPE_LAST_SEEN_TIME][COMMS_MODEL_CLIENT]	= set_client_float_value;

  0030f	b8 78 05 00 00	 mov	 eax, 1400		; 00000578H
  00314	6b c8 0c	 imul	 ecx, eax, 12
  00317	ba 08 00 00 00	 mov	 edx, 8
  0031c	6b c2 3c	 imul	 eax, edx, 60
  0031f	8d 8c 01 00 00
	00 00		 lea	 ecx, DWORD PTR ?fn_set_client_server_entity_float_value@@3PAY1KP@1P6GXPAUENTITY@@W4FLOAT_TYPES@@M@ZA[ecx+eax]
  00326	ba 04 00 00 00	 mov	 edx, 4
  0032b	c1 e2 00	 shl	 edx, 0
  0032e	c7 04 11 00 00
	00 00		 mov	 DWORD PTR [ecx+edx], OFFSET ?set_client_float_value@@YGXPAUENTITY@@W4FLOAT_TYPES@@M@Z ; set_client_float_value

; 330  : 	fn_get_local_entity_float_value				[ENTITY_TYPE_GROUP][FLOAT_TYPE_LAST_SEEN_TIME]								= get_local_float_value;

  00335	b8 bc 02 00 00	 mov	 eax, 700		; 000002bcH
  0033a	6b c8 0c	 imul	 ecx, eax, 12
  0033d	ba 04 00 00 00	 mov	 edx, 4
  00342	6b c2 3c	 imul	 eax, edx, 60
  00345	c7 84 01 00 00
	00 00 00 00 00
	00		 mov	 DWORD PTR ?fn_get_local_entity_float_value@@3PAY0KP@P6GMPAUENTITY@@W4FLOAT_TYPES@@@ZA[ecx+eax], OFFSET ?get_local_float_value@@YGMPAUENTITY@@W4FLOAT_TYPES@@@Z ; get_local_float_value

; 331  : }

  00350	5f		 pop	 edi
  00351	5e		 pop	 esi
  00352	5b		 pop	 ebx
  00353	8b e5		 mov	 esp, ebp
  00355	5d		 pop	 ebp
  00356	c3		 ret	 0
?overload_group_float_value_functions@@YGXXZ ENDP	; overload_group_float_value_functions
_TEXT	ENDS
END
