; Listing generated by Microsoft (R) Optimizing Compiler Version 19.16.27045.0 

	TITLE	C:\Users\nhv90\Projects\eech\aphavoc\source\entity\special\group\gp_int.c
	.686P
	.XMM
	include listing.inc
	.model	flat

INCLUDELIB MSVCRTD
INCLUDELIB OLDNAMES

PUBLIC	?overload_group_int_value_functions@@YGXXZ	; overload_group_int_value_functions
PUBLIC	?__LINE__Var@?0??set_local_int_value@@YGXPAUENTITY@@W4INT_TYPES@@H@Z@4JA ; `set_local_int_value'::`1'::__LINE__Var
PUBLIC	??_C@_0EK@CBOAJIMM@c?3?2users?2nhv90?2projects?2eech?2ap@ ; `string'
PUBLIC	??_C@_0DJ@OAFGFFKE@?$CIvalue?5?$DO?$DN?5FORMATION_NONE?$CJ?5?$CG?$CG?5?$CIv@ ; `string'
PUBLIC	?__LINE__Var@?0??set_server_int_value@@YGXPAUENTITY@@W4INT_TYPES@@H@Z@4JA ; `set_server_int_value'::`1'::__LINE__Var
PUBLIC	??_C@_0CB@CFOCLFOK@assert_client_server_local_fn?5?$CI@ ; `string'
PUBLIC	??_C@_0CC@BNNNEGEG@assert_client_server_remote_fn?5@ ; `string'
PUBLIC	?__LINE__Var@?0??set_client_int_value@@YGXPAUENTITY@@W4INT_TYPES@@H@Z@4JA ; `set_client_int_value'::`1'::__LINE__Var
PUBLIC	?__LINE__Var@?0??get_local_int_value@@YGHPAUENTITY@@W4INT_TYPES@@@Z@4JA ; `get_local_int_value'::`1'::__LINE__Var
EXTRN	?process_assert@@YGXPBD0H@Z:PROC		; process_assert
EXTRN	?debug_fatal@@YAXPBDZZ:PROC			; debug_fatal
EXTRN	?insert_local_entity_into_parents_child_list@@YGXPAUENTITY@@W4LIST_TYPES@@00@Z:PROC ; insert_local_entity_into_parents_child_list
EXTRN	?delete_local_entity_from_parents_child_list@@YGXPAUENTITY@@W4LIST_TYPES@@@Z:PROC ; delete_local_entity_from_parents_child_list
EXTRN	?transmit_entity_comms_message@@YAXW4ENTITY_COMMS_MESSAGES@@PAUENTITY@@ZZ:PROC ; transmit_entity_comms_message
EXTRN	?assert_client_server_local_fn@@YGHXZ:PROC	; assert_client_server_local_fn
EXTRN	?assert_client_server_remote_fn@@YGHXZ:PROC	; assert_client_server_remote_fn
EXTRN	?get_local_force_entity@@YGPAUENTITY@@W4ENTITY_SIDES@@@Z:PROC ; get_local_force_entity
EXTRN	?add_group_type_to_force_info@@YGXPAUENTITY@@H@Z:PROC ; add_group_type_to_force_info
EXTRN	?remove_group_type_from_force_info@@YGXPAUENTITY@@H@Z:PROC ; remove_group_type_from_force_info
EXTRN	?null_entity_pointer_message@@3PBDB:DWORD	; null_entity_pointer_message
EXTRN	?entity_type_database@@3PAUENTITY_TYPE_DATA@@A:BYTE ; entity_type_database
EXTRN	?system_comms_data_flow@@3W4COMMS_DATA_FLOW_TYPES@@A:DWORD ; system_comms_data_flow
EXTRN	?overload_invalid_list_type_message@@3PBDB:DWORD ; overload_invalid_list_type_message
EXTRN	?fn_get_local_entity_first_child@@3PAY0CN@P6GPAUENTITY@@PAU1@W4LIST_TYPES@@@ZA:BYTE ; fn_get_local_entity_first_child
EXTRN	?int_type_database@@3PAUINT_TYPE_DATA@@A:BYTE	; int_type_database
EXTRN	?overload_invalid_int_type_message@@3PBDB:DWORD	; overload_invalid_int_type_message
EXTRN	?debug_fatal_invalid_int_type_message@@3PBDB:DWORD ; debug_fatal_invalid_int_type_message
EXTRN	?fn_set_local_entity_raw_int_value@@3PAY0BBH@P6GXPAUENTITY@@W4INT_TYPES@@H@ZA:BYTE ; fn_set_local_entity_raw_int_value
EXTRN	?fn_set_local_entity_int_value@@3PAY0BBH@P6GXPAUENTITY@@W4INT_TYPES@@H@ZA:BYTE ; fn_set_local_entity_int_value
EXTRN	?fn_set_client_server_entity_int_value@@3PAY1BBH@1P6GXPAUENTITY@@W4INT_TYPES@@H@ZA:BYTE ; fn_set_client_server_entity_int_value
EXTRN	?fn_get_local_entity_int_value@@3PAY0BBH@P6GHPAUENTITY@@W4INT_TYPES@@@ZA:BYTE ; fn_get_local_entity_int_value
EXTRN	?entities@@3PAUENTITY@@A:DWORD			; entities
EXTRN	?group_database@@3PAUGROUP_DATA@@A:BYTE		; group_database
;	COMDAT ?__LINE__Var@?0??get_local_int_value@@YGHPAUENTITY@@W4INT_TYPES@@@Z@4JA
_DATA	SEGMENT
?__LINE__Var@?0??get_local_int_value@@YGHPAUENTITY@@W4INT_TYPES@@@Z@4JA DD 0131H ; `get_local_int_value'::`1'::__LINE__Var
_DATA	ENDS
;	COMDAT ?__LINE__Var@?0??set_client_int_value@@YGXPAUENTITY@@W4INT_TYPES@@H@Z@4JA
_DATA	SEGMENT
?__LINE__Var@?0??set_client_int_value@@YGXPAUENTITY@@W4INT_TYPES@@H@Z@4JA DD 011dH ; `set_client_int_value'::`1'::__LINE__Var
_DATA	ENDS
;	COMDAT ??_C@_0CC@BNNNEGEG@assert_client_server_remote_fn?5@
CONST	SEGMENT
??_C@_0CC@BNNNEGEG@assert_client_server_remote_fn?5@ DB 'assert_client_se'
	DB	'rver_remote_fn ()', 00H			; `string'
CONST	ENDS
;	COMDAT ??_C@_0CB@CFOCLFOK@assert_client_server_local_fn?5?$CI@
CONST	SEGMENT
??_C@_0CB@CFOCLFOK@assert_client_server_local_fn?5?$CI@ DB 'assert_client'
	DB	'_server_local_fn ()', 00H			; `string'
CONST	ENDS
;	COMDAT ?__LINE__Var@?0??set_server_int_value@@YGXPAUENTITY@@W4INT_TYPES@@H@Z@4JA
_DATA	SEGMENT
?__LINE__Var@?0??set_server_int_value@@YGXPAUENTITY@@W4INT_TYPES@@H@Z@4JA DD 010eH ; `set_server_int_value'::`1'::__LINE__Var
_DATA	ENDS
;	COMDAT ??_C@_0DJ@OAFGFFKE@?$CIvalue?5?$DO?$DN?5FORMATION_NONE?$CJ?5?$CG?$CG?5?$CIv@
CONST	SEGMENT
??_C@_0DJ@OAFGFFKE@?$CIvalue?5?$DO?$DN?5FORMATION_NONE?$CJ?5?$CG?$CG?5?$CIv@ DB '('
	DB	'value >= FORMATION_NONE) && (value < FORMATION_INVALID)', 00H ; `string'
CONST	ENDS
;	COMDAT ??_C@_0EK@CBOAJIMM@c?3?2users?2nhv90?2projects?2eech?2ap@
CONST	SEGMENT
??_C@_0EK@CBOAJIMM@c?3?2users?2nhv90?2projects?2eech?2ap@ DB 'c:\users\nh'
	DB	'v90\projects\eech\aphavoc\source\entity\special\group\gp_int.'
	DB	'c', 00H					; `string'
CONST	ENDS
;	COMDAT ?__LINE__Var@?0??set_local_int_value@@YGXPAUENTITY@@W4INT_TYPES@@H@Z@4JA
_DATA	SEGMENT
?__LINE__Var@?0??set_local_int_value@@YGXPAUENTITY@@W4INT_TYPES@@H@Z@4JA DD 050H ; `set_local_int_value'::`1'::__LINE__Var
_DATA	ENDS
; Function compile flags: /Odtp /ZI
; File c:\users\nhv90\projects\eech\aphavoc\source\entity\special\group\gp_int.c
;	COMDAT ?get_local_int_value@@YGHPAUENTITY@@W4INT_TYPES@@@Z
_TEXT	SEGMENT
tv177 = -80						; size = 4
tv261 = -76						; size = 4
tv242 = -76						; size = 4
tv170 = -76						; size = 4
tv76 = -76						; size = 4
tv65 = -76						; size = 4
_value$ = -8						; size = 4
_raw$ = -4						; size = 4
_en$ = 8						; size = 4
_type$ = 12						; size = 4
?get_local_int_value@@YGHPAUENTITY@@W4INT_TYPES@@@Z PROC ; get_local_int_value, COMDAT

; 305  : {

  00000	55		 push	 ebp
  00001	8b ec		 mov	 ebp, esp
  00003	83 ec 50	 sub	 esp, 80			; 00000050H
  00006	53		 push	 ebx
  00007	56		 push	 esi
  00008	57		 push	 edi

; 306  : 	group
; 307  : 		*raw;
; 308  : 
; 309  : 	int
; 310  : 		value;
; 311  : 
; 312  : 	raw = (group *) get_local_entity_data (en);

  00009	8b 45 08	 mov	 eax, DWORD PTR _en$[ebp]
  0000c	8b 48 04	 mov	 ecx, DWORD PTR [eax+4]
  0000f	89 4d fc	 mov	 DWORD PTR _raw$[ebp], ecx

; 313  : 
; 314  : 	switch (type)

  00012	8b 45 0c	 mov	 eax, DWORD PTR _type$[ebp]
  00015	89 45 b4	 mov	 DWORD PTR tv65[ebp], eax
  00018	8b 4d b4	 mov	 ecx, DWORD PTR tv65[ebp]
  0001b	83 e9 01	 sub	 ecx, 1
  0001e	89 4d b4	 mov	 DWORD PTR tv65[ebp], ecx
  00021	81 7d b4 f3 00
	00 00		 cmp	 DWORD PTR tv65[ebp], 243 ; 000000f3H
  00028	0f 87 9b 03 00
	00		 ja	 $LN40@get_local_
  0002e	8b 55 b4	 mov	 edx, DWORD PTR tv65[ebp]
  00031	0f b6 82 00 00
	00 00		 movzx	 eax, BYTE PTR $LN52@get_local_[edx]
  00038	ff 24 85 00 00
	00 00		 jmp	 DWORD PTR $LN53@get_local_[eax*4]
$LN4@get_local_:

; 315  : 	{
; 316  : 		////////////////////////////////////////
; 317  : 		case INT_TYPE_AIR_ATTACK_STRENGTH:
; 318  : 		////////////////////////////////////////
; 319  : 		{
; 320  : 			value = group_database [raw->sub_type].ai_stats.air_attack_strength;

  0003f	8b 45 fc	 mov	 eax, DWORD PTR _raw$[ebp]
  00042	6b 08 64	 imul	 ecx, DWORD PTR [eax], 100
  00045	8b 91 4c 00 00
	00		 mov	 edx, DWORD PTR ?group_database@@3PAUGROUP_DATA@@A[ecx+76]
  0004b	89 55 f8	 mov	 DWORD PTR _value$[ebp], edx

; 321  : 
; 322  : 			break;

  0004e	e9 ee 03 00 00	 jmp	 $LN2@get_local_
$LN5@get_local_:

; 323  : 		}
; 324  : 		////////////////////////////////////////
; 325  : 		case INT_TYPE_AIRCRAFT_GROUP:
; 326  : 		////////////////////////////////////////
; 327  : 		{
; 328  : 			value = (group_database [raw->sub_type].movement_type == MOVEMENT_TYPE_AIR);

  00053	8b 45 fc	 mov	 eax, DWORD PTR _raw$[ebp]
  00056	6b 08 64	 imul	 ecx, DWORD PTR [eax], 100
  00059	83 b9 14 00 00
	00 01		 cmp	 DWORD PTR ?group_database@@3PAUGROUP_DATA@@A[ecx+20], 1
  00060	75 09		 jne	 SHORT $LN42@get_local_
  00062	c7 45 b4 01 00
	00 00		 mov	 DWORD PTR tv76[ebp], 1
  00069	eb 07		 jmp	 SHORT $LN43@get_local_
$LN42@get_local_:
  0006b	c7 45 b4 00 00
	00 00		 mov	 DWORD PTR tv76[ebp], 0
$LN43@get_local_:
  00072	8b 55 b4	 mov	 edx, DWORD PTR tv76[ebp]
  00075	89 55 f8	 mov	 DWORD PTR _value$[ebp], edx

; 329  : 
; 330  : 			break;

  00078	e9 c4 03 00 00	 jmp	 $LN2@get_local_
$LN6@get_local_:

; 331  : 		}
; 332  : 		////////////////////////////////////////
; 333  : 		case INT_TYPE_ALIVE:
; 334  : 		////////////////////////////////////////
; 335  : 		{
; 336  : 			value = raw->alive;

  0007d	8b 45 fc	 mov	 eax, DWORD PTR _raw$[ebp]
  00080	8b 88 84 00 00
	00		 mov	 ecx, DWORD PTR [eax+132]
  00086	83 e1 01	 and	 ecx, 1
  00089	89 4d f8	 mov	 DWORD PTR _value$[ebp], ecx

; 337  : 
; 338  : 			break;

  0008c	e9 b0 03 00 00	 jmp	 $LN2@get_local_
$LN7@get_local_:

; 339  : 		}
; 340  : 		////////////////////////////////////////
; 341  : 		case INT_TYPE_DEFAULT_ENGAGE_ENEMY:
; 342  : 		////////////////////////////////////////
; 343  : 		{
; 344  : 			value = group_database [raw->sub_type].default_engage_enemy;

  00091	8b 45 fc	 mov	 eax, DWORD PTR _raw$[ebp]
  00094	6b 08 64	 imul	 ecx, DWORD PTR [eax], 100
  00097	8b 91 48 00 00
	00		 mov	 edx, DWORD PTR ?group_database@@3PAUGROUP_DATA@@A[ecx+72]
  0009d	c1 ea 03	 shr	 edx, 3
  000a0	83 e2 01	 and	 edx, 1
  000a3	89 55 f8	 mov	 DWORD PTR _value$[ebp], edx

; 345  : 
; 346  : 			break;

  000a6	e9 96 03 00 00	 jmp	 $LN2@get_local_
$LN8@get_local_:

; 347  : 		}
; 348  : 		////////////////////////////////////////
; 349  : 		case INT_TYPE_DEFAULT_GROUP_LIST_TYPE:
; 350  : 		////////////////////////////////////////
; 351  : 		{
; 352  : 			value = group_database [raw->sub_type].group_list_type;

  000ab	8b 45 fc	 mov	 eax, DWORD PTR _raw$[ebp]
  000ae	6b 08 64	 imul	 ecx, DWORD PTR [eax], 100
  000b1	8b 91 10 00 00
	00		 mov	 edx, DWORD PTR ?group_database@@3PAUGROUP_DATA@@A[ecx+16]
  000b7	89 55 f8	 mov	 DWORD PTR _value$[ebp], edx

; 353  : 
; 354  : 			break;

  000ba	e9 82 03 00 00	 jmp	 $LN2@get_local_
$LN9@get_local_:

; 355  : 		}		
; 356  : 		////////////////////////////////////////
; 357  : 		case INT_TYPE_DIVISION_ID:
; 358  : 		////////////////////////////////////////
; 359  : 		{
; 360  : 			// deliberate use of another variable...
; 361  : 			value = raw->group_callsign;

  000bf	8b 45 fc	 mov	 eax, DWORD PTR _raw$[ebp]
  000c2	8b 88 84 00 00
	00		 mov	 ecx, DWORD PTR [eax+132]
  000c8	c1 e9 02	 shr	 ecx, 2
  000cb	81 e1 ff 00 00
	00		 and	 ecx, 255		; 000000ffH
  000d1	89 4d f8	 mov	 DWORD PTR _value$[ebp], ecx

; 362  : 
; 363  : 			break;

  000d4	e9 68 03 00 00	 jmp	 $LN2@get_local_
$LN10@get_local_:

; 364  : 		}
; 365  : 		////////////////////////////////////////
; 366  : 		case INT_TYPE_ENGAGE_ENEMY:
; 367  : 		////////////////////////////////////////
; 368  : 		{
; 369  : 			if (group_database [raw->sub_type].movement_type == MOVEMENT_TYPE_AIR)

  000d9	8b 45 fc	 mov	 eax, DWORD PTR _raw$[ebp]
  000dc	6b 08 64	 imul	 ecx, DWORD PTR [eax], 100
  000df	83 b9 14 00 00
	00 01		 cmp	 DWORD PTR ?group_database@@3PAUGROUP_DATA@@A[ecx+20], 1
  000e6	75 13		 jne	 SHORT $LN11@get_local_

; 370  : 			{
; 371  : 				value = raw->engage_enemy;

  000e8	8b 45 fc	 mov	 eax, DWORD PTR _raw$[ebp]
  000eb	8b 88 84 00 00
	00		 mov	 ecx, DWORD PTR [eax+132]
  000f1	d1 e9		 shr	 ecx, 1
  000f3	83 e1 01	 and	 ecx, 1
  000f6	89 4d f8	 mov	 DWORD PTR _value$[ebp], ecx

; 372  : 			}
; 373  : 			else

  000f9	eb 15		 jmp	 SHORT $LN12@get_local_
$LN11@get_local_:

; 374  : 			{
; 375  : 				value = group_database [raw->sub_type].default_engage_enemy;

  000fb	8b 45 fc	 mov	 eax, DWORD PTR _raw$[ebp]
  000fe	6b 08 64	 imul	 ecx, DWORD PTR [eax], 100
  00101	8b 91 48 00 00
	00		 mov	 edx, DWORD PTR ?group_database@@3PAUGROUP_DATA@@A[ecx+72]
  00107	c1 ea 03	 shr	 edx, 3
  0010a	83 e2 01	 and	 edx, 1
  0010d	89 55 f8	 mov	 DWORD PTR _value$[ebp], edx
$LN12@get_local_:

; 376  : 			}
; 377  : 
; 378  : 			break;

  00110	e9 2c 03 00 00	 jmp	 $LN2@get_local_
$LN13@get_local_:

; 379  : 		}
; 380  : 		////////////////////////////////////////
; 381  : 		case INT_TYPE_ENTITY_SUB_TYPE:
; 382  : 		////////////////////////////////////////
; 383  : 		{
; 384  : 			value = raw->sub_type;

  00115	8b 45 fc	 mov	 eax, DWORD PTR _raw$[ebp]
  00118	8b 08		 mov	 ecx, DWORD PTR [eax]
  0011a	89 4d f8	 mov	 DWORD PTR _value$[ebp], ecx

; 385  : 
; 386  : 			break;

  0011d	e9 1f 03 00 00	 jmp	 $LN2@get_local_
$LN14@get_local_:

; 387  : 		}
; 388  : 		////////////////////////////////////////
; 389  : 		case INT_TYPE_FRONTLINE:
; 390  : 		////////////////////////////////////////
; 391  : 		{
; 392  : 			value = group_database [raw->sub_type].frontline_flag;

  00122	8b 45 fc	 mov	 eax, DWORD PTR _raw$[ebp]
  00125	6b 08 64	 imul	 ecx, DWORD PTR [eax], 100
  00128	8b 91 48 00 00
	00		 mov	 edx, DWORD PTR ?group_database@@3PAUGROUP_DATA@@A[ecx+72]
  0012e	83 e2 03	 and	 edx, 3
  00131	89 55 f8	 mov	 DWORD PTR _value$[ebp], edx

; 393  : 
; 394  : 			break;

  00134	e9 08 03 00 00	 jmp	 $LN2@get_local_
$LN15@get_local_:

; 395  : 		}
; 396  : 		////////////////////////////////////////
; 397  : 		case INT_TYPE_GROUP_AMALGAMATE:
; 398  : 		////////////////////////////////////////
; 399  : 		{
; 400  : 			value = group_database [raw->sub_type].amalgamate;

  00139	8b 45 fc	 mov	 eax, DWORD PTR _raw$[ebp]
  0013c	6b 08 64	 imul	 ecx, DWORD PTR [eax], 100
  0013f	8b 91 48 00 00
	00		 mov	 edx, DWORD PTR ?group_database@@3PAUGROUP_DATA@@A[ecx+72]
  00145	c1 ea 04	 shr	 edx, 4
  00148	83 e2 01	 and	 edx, 1
  0014b	89 55 f8	 mov	 DWORD PTR _value$[ebp], edx

; 401  : 
; 402  : 			break;

  0014e	e9 ee 02 00 00	 jmp	 $LN2@get_local_
$LN16@get_local_:

; 403  : 		}
; 404  : 		////////////////////////////////////////
; 405  : 		case INT_TYPE_GROUP_CALLSIGN:
; 406  : 		////////////////////////////////////////
; 407  : 		{
; 408  : 			value = raw->group_callsign;

  00153	8b 45 fc	 mov	 eax, DWORD PTR _raw$[ebp]
  00156	8b 88 84 00 00
	00		 mov	 ecx, DWORD PTR [eax+132]
  0015c	c1 e9 02	 shr	 ecx, 2
  0015f	81 e1 ff 00 00
	00		 and	 ecx, 255		; 000000ffH
  00165	89 4d f8	 mov	 DWORD PTR _value$[ebp], ecx

; 409  : 
; 410  : 			break;

  00168	e9 d4 02 00 00	 jmp	 $LN2@get_local_
$LN17@get_local_:

; 411  : 		}
; 412  : 		////////////////////////////////////////
; 413  : 		case INT_TYPE_GROUP_CATEGORY:
; 414  : 		////////////////////////////////////////
; 415  : 		{
; 416  : 			value = group_database [raw->sub_type].group_category;

  0016d	8b 45 fc	 mov	 eax, DWORD PTR _raw$[ebp]
  00170	6b 08 64	 imul	 ecx, DWORD PTR [eax], 100
  00173	8b 91 08 00 00
	00		 mov	 edx, DWORD PTR ?group_database@@3PAUGROUP_DATA@@A[ecx+8]
  00179	89 55 f8	 mov	 DWORD PTR _value$[ebp], edx

; 417  : 
; 418  : 			break;

  0017c	e9 c0 02 00 00	 jmp	 $LN2@get_local_
$LN18@get_local_:

; 419  : 		}
; 420  : 		////////////////////////////////////////
; 421  : 		case INT_TYPE_GROUP_DEFAULT_FORMATION:
; 422  : 		////////////////////////////////////////
; 423  : 		{
; 424  : 			value = group_database [raw->sub_type].default_group_formation;

  00181	8b 45 fc	 mov	 eax, DWORD PTR _raw$[ebp]
  00184	6b 08 64	 imul	 ecx, DWORD PTR [eax], 100
  00187	8b 91 28 00 00
	00		 mov	 edx, DWORD PTR ?group_database@@3PAUGROUP_DATA@@A[ecx+40]
  0018d	89 55 f8	 mov	 DWORD PTR _value$[ebp], edx

; 425  : 
; 426  : 			break;

  00190	e9 ac 02 00 00	 jmp	 $LN2@get_local_
$LN19@get_local_:

; 427  : 		}		
; 428  : 		////////////////////////////////////////
; 429  : 		case INT_TYPE_GROUP_FORMATION:
; 430  : 		////////////////////////////////////////
; 431  : 		{
; 432  : 			value = raw->group_formation;

  00195	8b 45 fc	 mov	 eax, DWORD PTR _raw$[ebp]
  00198	8b 88 84 00 00
	00		 mov	 ecx, DWORD PTR [eax+132]
  0019e	c1 e9 0a	 shr	 ecx, 10			; 0000000aH
  001a1	81 e1 ff ff 00
	00		 and	 ecx, 65535		; 0000ffffH
  001a7	89 4d f8	 mov	 DWORD PTR _value$[ebp], ecx

; 433  : 
; 434  : 			break;

  001aa	e9 92 02 00 00	 jmp	 $LN2@get_local_
$LN20@get_local_:

; 435  : 		}		
; 436  : 		////////////////////////////////////////
; 437  : 		case INT_TYPE_GROUP_LIST_TYPE:
; 438  : 		////////////////////////////////////////
; 439  : 		{
; 440  : 			value = raw->group_list_type;

  001af	8b 45 fc	 mov	 eax, DWORD PTR _raw$[ebp]
  001b2	8b 48 58	 mov	 ecx, DWORD PTR [eax+88]
  001b5	89 4d f8	 mov	 DWORD PTR _value$[ebp], ecx

; 441  : 
; 442  : 			break;

  001b8	e9 84 02 00 00	 jmp	 $LN2@get_local_
$LN21@get_local_:

; 443  : 		}		
; 444  : 		////////////////////////////////////////
; 445  : 		case INT_TYPE_GROUP_MODE:
; 446  : 		////////////////////////////////////////
; 447  : 		{
; 448  : 			if (get_local_entity_first_child (en, LIST_TYPE_GUIDE_STACK))

  001bd	83 7d 08 00	 cmp	 DWORD PTR _en$[ebp], 0
  001c1	74 0a		 je	 SHORT $LN44@get_local_
  001c3	8b 45 08	 mov	 eax, DWORD PTR _en$[ebp]
  001c6	8b 08		 mov	 ecx, DWORD PTR [eax]
  001c8	89 4d b4	 mov	 DWORD PTR tv170[ebp], ecx
  001cb	eb 1d		 jmp	 SHORT $LN45@get_local_
$LN44@get_local_:
  001cd	68 c0 01 00 00	 push	 448			; 000001c0H
  001d2	68 00 00 00 00	 push	 OFFSET ??_C@_0EK@CBOAJIMM@c?3?2users?2nhv90?2projects?2eech?2ap@
  001d7	8b 15 00 00 00
	00		 mov	 edx, DWORD PTR ?null_entity_pointer_message@@3PBDB ; null_entity_pointer_message
  001dd	52		 push	 edx
  001de	e8 00 00 00 00	 call	 ?process_assert@@YGXPBD0H@Z ; process_assert
  001e3	c7 45 b4 00 00
	00 00		 mov	 DWORD PTR tv170[ebp], 0
$LN45@get_local_:
  001ea	b8 01 00 00 00	 mov	 eax, 1
  001ef	85 c0		 test	 eax, eax
  001f1	74 09		 je	 SHORT $LN46@get_local_
  001f3	c7 45 b0 11 00
	00 00		 mov	 DWORD PTR tv177[ebp], 17 ; 00000011H
  001fa	eb 1d		 jmp	 SHORT $LN47@get_local_
$LN46@get_local_:
  001fc	68 c0 01 00 00	 push	 448			; 000001c0H
  00201	68 00 00 00 00	 push	 OFFSET ??_C@_0EK@CBOAJIMM@c?3?2users?2nhv90?2projects?2eech?2ap@
  00206	8b 0d 00 00 00
	00		 mov	 ecx, DWORD PTR ?overload_invalid_list_type_message@@3PBDB ; overload_invalid_list_type_message
  0020c	51		 push	 ecx
  0020d	e8 00 00 00 00	 call	 ?process_assert@@YGXPBD0H@Z ; process_assert
  00212	c7 45 b0 00 00
	00 00		 mov	 DWORD PTR tv177[ebp], 0
$LN47@get_local_:
  00219	6a 11		 push	 17			; 00000011H
  0021b	8b 55 08	 mov	 edx, DWORD PTR _en$[ebp]
  0021e	52		 push	 edx
  0021f	69 45 b4 b4 00
	00 00		 imul	 eax, DWORD PTR tv170[ebp], 180
  00226	8b 4d b0	 mov	 ecx, DWORD PTR tv177[ebp]
  00229	8b 94 88 00 00
	00 00		 mov	 edx, DWORD PTR ?fn_get_local_entity_first_child@@3PAY0CN@P6GPAUENTITY@@PAU1@W4LIST_TYPES@@@ZA[eax+ecx*4]
  00230	ff d2		 call	 edx
  00232	85 c0		 test	 eax, eax
  00234	74 09		 je	 SHORT $LN22@get_local_

; 449  : 			{
; 450  : 				value = GROUP_MODE_BUSY;

  00236	c7 45 f8 01 00
	00 00		 mov	 DWORD PTR _value$[ebp], 1

; 451  : 			}
; 452  : 			else

  0023d	eb 07		 jmp	 SHORT $LN23@get_local_
$LN22@get_local_:

; 453  : 			{
; 454  : 				value = GROUP_MODE_IDLE;

  0023f	c7 45 f8 00 00
	00 00		 mov	 DWORD PTR _value$[ebp], 0
$LN23@get_local_:

; 455  : 			}
; 456  : 
; 457  : 			break;

  00246	e9 f6 01 00 00	 jmp	 $LN2@get_local_
$LN24@get_local_:

; 458  : 		}
; 459  : 		////////////////////////////////////////
; 460  : 		case INT_TYPE_HIDDEN_BY_FOG_OF_WAR:
; 461  : 		////////////////////////////////////////
; 462  : 		{
; 463  : 			value = TRUE;

  0024b	c7 45 f8 01 00
	00 00		 mov	 DWORD PTR _value$[ebp], 1

; 464  : 
; 465  : 			break;

  00252	e9 ea 01 00 00	 jmp	 $LN2@get_local_
$LN25@get_local_:

; 466  : 		}
; 467  : 		////////////////////////////////////////
; 468  : 		case INT_TYPE_KILLS:
; 469  : 		////////////////////////////////////////
; 470  : 		{
; 471  : 			value = raw->kills;

  00257	8b 45 fc	 mov	 eax, DWORD PTR _raw$[ebp]
  0025a	8b 88 88 00 00
	00		 mov	 ecx, DWORD PTR [eax+136]
  00260	81 e1 ff 0f 00
	00		 and	 ecx, 4095		; 00000fffH
  00266	89 4d f8	 mov	 DWORD PTR _value$[ebp], ecx

; 472  : 
; 473  : 			break;

  00269	e9 d3 01 00 00	 jmp	 $LN2@get_local_
$LN26@get_local_:

; 474  : 		}
; 475  : 		////////////////////////////////////////
; 476  : 		case INT_TYPE_LOCAL_ONLY_GROUP:
; 477  : 		////////////////////////////////////////
; 478  : 		{
; 479  : 			value = group_database [raw->sub_type].local_only_group;

  0026e	8b 45 fc	 mov	 eax, DWORD PTR _raw$[ebp]
  00271	6b 08 64	 imul	 ecx, DWORD PTR [eax], 100
  00274	8b 91 48 00 00
	00		 mov	 edx, DWORD PTR ?group_database@@3PAUGROUP_DATA@@A[ecx+72]
  0027a	c1 ea 02	 shr	 edx, 2
  0027d	83 e2 01	 and	 edx, 1
  00280	89 55 f8	 mov	 DWORD PTR _value$[ebp], edx

; 480  : 
; 481  : 			break;

  00283	e9 b9 01 00 00	 jmp	 $LN2@get_local_
$LN27@get_local_:

; 482  : 		}
; 483  : 		////////////////////////////////////////
; 484  : 		case INT_TYPE_LOSSES:
; 485  : 		////////////////////////////////////////
; 486  : 		{
; 487  : 			value = raw->losses;

  00288	8b 45 fc	 mov	 eax, DWORD PTR _raw$[ebp]
  0028b	8b 88 88 00 00
	00		 mov	 ecx, DWORD PTR [eax+136]
  00291	c1 e9 0c	 shr	 ecx, 12			; 0000000cH
  00294	81 e1 ff 03 00
	00		 and	 ecx, 1023		; 000003ffH
  0029a	89 4d f8	 mov	 DWORD PTR _value$[ebp], ecx

; 488  : 
; 489  : 			break;

  0029d	e9 9f 01 00 00	 jmp	 $LN2@get_local_
$LN28@get_local_:

; 490  : 		}
; 491  : 		////////////////////////////////////////
; 492  : 		case INT_TYPE_MAP_ICON:
; 493  : 		////////////////////////////////////////
; 494  : 		{
; 495  : 			value = group_database [raw->sub_type].map_icon;

  002a2	8b 45 fc	 mov	 eax, DWORD PTR _raw$[ebp]
  002a5	6b 08 64	 imul	 ecx, DWORD PTR [eax], 100
  002a8	8b 91 40 00 00
	00		 mov	 edx, DWORD PTR ?group_database@@3PAUGROUP_DATA@@A[ecx+64]
  002ae	89 55 f8	 mov	 DWORD PTR _value$[ebp], edx

; 496  : 
; 497  : 			break;

  002b1	e9 8b 01 00 00	 jmp	 $LN2@get_local_
$LN29@get_local_:

; 498  : 		}
; 499  : 		////////////////////////////////////////
; 500  : 		case INT_TYPE_MAXIMUM_MEMBER_COUNT:
; 501  : 		////////////////////////////////////////
; 502  : 		{
; 503  : 			value = group_database [raw->sub_type].maximum_member_count;

  002b6	8b 45 fc	 mov	 eax, DWORD PTR _raw$[ebp]
  002b9	6b 08 64	 imul	 ecx, DWORD PTR [eax], 100
  002bc	8b 91 48 00 00
	00		 mov	 edx, DWORD PTR ?group_database@@3PAUGROUP_DATA@@A[ecx+72]
  002c2	c1 ea 08	 shr	 edx, 8
  002c5	83 e2 1f	 and	 edx, 31			; 0000001fH
  002c8	89 55 f8	 mov	 DWORD PTR _value$[ebp], edx

; 504  : 
; 505  : 			break;

  002cb	e9 71 01 00 00	 jmp	 $LN2@get_local_
$LN30@get_local_:

; 506  : 		}
; 507  : 		////////////////////////////////////////
; 508  : 		case INT_TYPE_MEMBER_COUNT:
; 509  : 		////////////////////////////////////////
; 510  : 		{
; 511  : 			value = raw->member_count;

  002d0	8b 45 fc	 mov	 eax, DWORD PTR _raw$[ebp]
  002d3	8b 88 88 00 00
	00		 mov	 ecx, DWORD PTR [eax+136]
  002d9	c1 e9 16	 shr	 ecx, 22			; 00000016H
  002dc	83 e1 3f	 and	 ecx, 63			; 0000003fH
  002df	89 4d f8	 mov	 DWORD PTR _value$[ebp], ecx

; 512  : 
; 513  : 			break;

  002e2	e9 5a 01 00 00	 jmp	 $LN2@get_local_
$LN31@get_local_:

; 514  : 		}
; 515  : 		////////////////////////////////////////
; 516  : 		case INT_TYPE_MOVEMENT_TYPE:
; 517  : 		////////////////////////////////////////
; 518  : 		{
; 519  : 			value = group_database [raw->sub_type].movement_type;

  002e7	8b 45 fc	 mov	 eax, DWORD PTR _raw$[ebp]
  002ea	6b 08 64	 imul	 ecx, DWORD PTR [eax], 100
  002ed	8b 91 14 00 00
	00		 mov	 edx, DWORD PTR ?group_database@@3PAUGROUP_DATA@@A[ecx+20]
  002f3	89 55 f8	 mov	 DWORD PTR _value$[ebp], edx

; 520  : 
; 521  : 			break;

  002f6	e9 46 01 00 00	 jmp	 $LN2@get_local_
$LN32@get_local_:

; 522  : 		}
; 523  : 		////////////////////////////////////////
; 524  : 		case INT_TYPE_MULTIPLAYER_GROUP:
; 525  : 		////////////////////////////////////////
; 526  : 		{
; 527  : 			value = raw->multiplayer_group;

  002fb	8b 45 fc	 mov	 eax, DWORD PTR _raw$[ebp]
  002fe	8b 88 88 00 00
	00		 mov	 ecx, DWORD PTR [eax+136]
  00304	c1 e9 1c	 shr	 ecx, 28			; 0000001cH
  00307	83 e1 01	 and	 ecx, 1
  0030a	89 4d f8	 mov	 DWORD PTR _value$[ebp], ecx

; 528  : 
; 529  : 			break;

  0030d	e9 2f 01 00 00	 jmp	 $LN2@get_local_
$LN33@get_local_:

; 530  : 		}
; 531  : 		////////////////////////////////////////
; 532  : 		case INT_TYPE_REGISTRY_LIST_TYPE:
; 533  : 		////////////////////////////////////////
; 534  : 		{
; 535  : 			value = group_database [raw->sub_type].registry_list_type;

  00312	8b 45 fc	 mov	 eax, DWORD PTR _raw$[ebp]
  00315	6b 08 64	 imul	 ecx, DWORD PTR [eax], 100
  00318	8b 91 0c 00 00
	00		 mov	 edx, DWORD PTR ?group_database@@3PAUGROUP_DATA@@A[ecx+12]
  0031e	89 55 f8	 mov	 DWORD PTR _value$[ebp], edx

; 536  : 
; 537  : 			break;

  00321	e9 1b 01 00 00	 jmp	 $LN2@get_local_
$LN34@get_local_:

; 538  : 		}
; 539  : 		////////////////////////////////////////
; 540  : 		case INT_TYPE_RESUPPLY_SOURCE:
; 541  : 		////////////////////////////////////////
; 542  : 		{
; 543  : 			value = group_database [raw->sub_type].resupply_source;

  00326	8b 45 fc	 mov	 eax, DWORD PTR _raw$[ebp]
  00329	6b 08 64	 imul	 ecx, DWORD PTR [eax], 100
  0032c	8b 91 48 00 00
	00		 mov	 edx, DWORD PTR ?group_database@@3PAUGROUP_DATA@@A[ecx+72]
  00332	c1 ea 11	 shr	 edx, 17			; 00000011H
  00335	83 e2 07	 and	 edx, 7
  00338	89 55 f8	 mov	 DWORD PTR _value$[ebp], edx

; 544  : 
; 545  : 			break;

  0033b	e9 01 01 00 00	 jmp	 $LN2@get_local_
$LN35@get_local_:

; 546  : 		}
; 547  : 		////////////////////////////////////////
; 548  : 		case INT_TYPE_ROUTE_NODE:
; 549  : 		////////////////////////////////////////
; 550  : 		{
; 551  : 			value = raw->route_node;

  00340	8b 45 fc	 mov	 eax, DWORD PTR _raw$[ebp]
  00343	8b 88 8c 00 00
	00		 mov	 ecx, DWORD PTR [eax+140]
  00349	81 e1 ff 03 00
	00		 and	 ecx, 1023		; 000003ffH
  0034f	89 4d f8	 mov	 DWORD PTR _value$[ebp], ecx

; 552  : 
; 553  : 			break;

  00352	e9 ea 00 00 00	 jmp	 $LN2@get_local_
$LN36@get_local_:

; 554  : 		}
; 555  : 		////////////////////////////////////////
; 556  : 		case INT_TYPE_SIDE:
; 557  : 		////////////////////////////////////////
; 558  : 		{
; 559  : 			value = raw->side;

  00357	8b 45 fc	 mov	 eax, DWORD PTR _raw$[ebp]
  0035a	8b 88 8c 00 00
	00		 mov	 ecx, DWORD PTR [eax+140]
  00360	c1 e9 0a	 shr	 ecx, 10			; 0000000aH
  00363	83 e1 03	 and	 ecx, 3
  00366	89 4d f8	 mov	 DWORD PTR _value$[ebp], ecx

; 560  : 
; 561  : 			break;

  00369	e9 d3 00 00 00	 jmp	 $LN2@get_local_
$LN37@get_local_:

; 562  : 		}
; 563  : 		////////////////////////////////////////
; 564  : 		case INT_TYPE_UNIQUE_ID:
; 565  : 		////////////////////////////////////////
; 566  : 		{
; 567  : 			value = raw->unique_id;

  0036e	8b 45 fc	 mov	 eax, DWORD PTR _raw$[ebp]
  00371	8b 88 90 00 00
	00		 mov	 ecx, DWORD PTR [eax+144]
  00377	89 4d f8	 mov	 DWORD PTR _value$[ebp], ecx

; 568  : 
; 569  : 			break;

  0037a	e9 c2 00 00 00	 jmp	 $LN2@get_local_
$LN38@get_local_:

; 570  : 		}
; 571  : 		////////////////////////////////////////
; 572  : 		case INT_TYPE_VEHICLE_GROUP:
; 573  : 		////////////////////////////////////////
; 574  : 		{
; 575  : 			value = ((group_database [raw->sub_type].movement_type == MOVEMENT_TYPE_SEA) ||

  0037f	8b 45 fc	 mov	 eax, DWORD PTR _raw$[ebp]
  00382	6b 08 64	 imul	 ecx, DWORD PTR [eax], 100
  00385	83 b9 14 00 00
	00 03		 cmp	 DWORD PTR ?group_database@@3PAUGROUP_DATA@@A[ecx+20], 3
  0038c	74 18		 je	 SHORT $LN48@get_local_
  0038e	8b 55 fc	 mov	 edx, DWORD PTR _raw$[ebp]
  00391	6b 02 64	 imul	 eax, DWORD PTR [edx], 100
  00394	83 b8 14 00 00
	00 02		 cmp	 DWORD PTR ?group_database@@3PAUGROUP_DATA@@A[eax+20], 2
  0039b	74 09		 je	 SHORT $LN48@get_local_
  0039d	c7 45 b4 00 00
	00 00		 mov	 DWORD PTR tv242[ebp], 0
  003a4	eb 07		 jmp	 SHORT $LN49@get_local_
$LN48@get_local_:
  003a6	c7 45 b4 01 00
	00 00		 mov	 DWORD PTR tv242[ebp], 1
$LN49@get_local_:
  003ad	8b 4d b4	 mov	 ecx, DWORD PTR tv242[ebp]
  003b0	89 4d f8	 mov	 DWORD PTR _value$[ebp], ecx

; 576  : 						(group_database [raw->sub_type].movement_type == MOVEMENT_TYPE_GROUND));
; 577  : 
; 578  : 			break;

  003b3	e9 89 00 00 00	 jmp	 $LN2@get_local_
$LN39@get_local_:

; 579  : 		}
; 580  : 		////////////////////////////////////////
; 581  : 		case INT_TYPE_VERBOSE_OPERATIONAL_STATE:
; 582  : 		////////////////////////////////////////
; 583  : 		{
; 584  : 			value = raw->verbose_operational_state;

  003b8	8b 45 fc	 mov	 eax, DWORD PTR _raw$[ebp]
  003bb	8b 88 94 00 00
	00		 mov	 ecx, DWORD PTR [eax+148]
  003c1	83 e1 3f	 and	 ecx, 63			; 0000003fH
  003c4	89 4d f8	 mov	 DWORD PTR _value$[ebp], ecx

; 585  : 
; 586  : 			break;

  003c7	eb 78		 jmp	 SHORT $LN2@get_local_
$LN40@get_local_:

; 587  : 		}
; 588  : 		////////////////////////////////////////
; 589  : 		default:
; 590  : 		////////////////////////////////////////
; 591  : 		{
; 592  : 			debug_fatal_invalid_int_type (en, type);

  003c9	83 7d 08 00	 cmp	 DWORD PTR _en$[ebp], 0
  003cd	74 0a		 je	 SHORT $LN50@get_local_
  003cf	8b 45 08	 mov	 eax, DWORD PTR _en$[ebp]
  003d2	8b 08		 mov	 ecx, DWORD PTR [eax]
  003d4	89 4d b4	 mov	 DWORD PTR tv261[ebp], ecx
  003d7	eb 24		 jmp	 SHORT $LN51@get_local_
$LN50@get_local_:
  003d9	8b 15 00 00 00
	00		 mov	 edx, DWORD PTR ?__LINE__Var@?0??get_local_int_value@@YGHPAUENTITY@@W4INT_TYPES@@@Z@4JA
  003df	81 c2 1f 01 00
	00		 add	 edx, 287		; 0000011fH
  003e5	52		 push	 edx
  003e6	68 00 00 00 00	 push	 OFFSET ??_C@_0EK@CBOAJIMM@c?3?2users?2nhv90?2projects?2eech?2ap@
  003eb	a1 00 00 00 00	 mov	 eax, DWORD PTR ?null_entity_pointer_message@@3PBDB ; null_entity_pointer_message
  003f0	50		 push	 eax
  003f1	e8 00 00 00 00	 call	 ?process_assert@@YGXPBD0H@Z ; process_assert
  003f6	c7 45 b4 00 00
	00 00		 mov	 DWORD PTR tv261[ebp], 0
$LN51@get_local_:
  003fd	8b 0d 00 00 00
	00		 mov	 ecx, DWORD PTR ?__LINE__Var@?0??get_local_int_value@@YGHPAUENTITY@@W4INT_TYPES@@@Z@4JA
  00403	81 c1 1f 01 00
	00		 add	 ecx, 287		; 0000011fH
  00409	51		 push	 ecx
  0040a	68 00 00 00 00	 push	 OFFSET ??_C@_0EK@CBOAJIMM@c?3?2users?2nhv90?2projects?2eech?2ap@
  0040f	6b 55 0c 14	 imul	 edx, DWORD PTR _type$[ebp], 20
  00413	8b 82 00 00 00
	00		 mov	 eax, DWORD PTR ?int_type_database@@3PAUINT_TYPE_DATA@@A[edx]
  00419	50		 push	 eax
  0041a	8b 4d 08	 mov	 ecx, DWORD PTR _en$[ebp]
  0041d	2b 0d 00 00 00
	00		 sub	 ecx, DWORD PTR ?entities@@3PAUENTITY@@A ; entities
  00423	c1 f9 04	 sar	 ecx, 4
  00426	51		 push	 ecx
  00427	6b 55 b4 0c	 imul	 edx, DWORD PTR tv261[ebp], 12
  0042b	8b 82 00 00 00
	00		 mov	 eax, DWORD PTR ?entity_type_database@@3PAUENTITY_TYPE_DATA@@A[edx]
  00431	50		 push	 eax
  00432	8b 0d 00 00 00
	00		 mov	 ecx, DWORD PTR ?debug_fatal_invalid_int_type_message@@3PBDB ; debug_fatal_invalid_int_type_message
  00438	51		 push	 ecx
  00439	e8 00 00 00 00	 call	 ?debug_fatal@@YAXPBDZZ	; debug_fatal
  0043e	83 c4 18	 add	 esp, 24			; 00000018H
$LN2@get_local_:

; 593  : 
; 594  : 			break;
; 595  : 		}
; 596  : 	}
; 597  : 
; 598  : 	return (value);

  00441	8b 45 f8	 mov	 eax, DWORD PTR _value$[ebp]

; 599  : }

  00444	5f		 pop	 edi
  00445	5e		 pop	 esi
  00446	5b		 pop	 ebx
  00447	8b e5		 mov	 esp, ebp
  00449	5d		 pop	 ebp
  0044a	c2 08 00	 ret	 8
  0044d	0f 1f 00	 npad	 3
$LN53@get_local_:
  00450	00 00 00 00	 DD	 $LN4@get_local_
  00454	00 00 00 00	 DD	 $LN5@get_local_
  00458	00 00 00 00	 DD	 $LN6@get_local_
  0045c	00 00 00 00	 DD	 $LN7@get_local_
  00460	00 00 00 00	 DD	 $LN8@get_local_
  00464	00 00 00 00	 DD	 $LN9@get_local_
  00468	00 00 00 00	 DD	 $LN10@get_local_
  0046c	00 00 00 00	 DD	 $LN13@get_local_
  00470	00 00 00 00	 DD	 $LN14@get_local_
  00474	00 00 00 00	 DD	 $LN15@get_local_
  00478	00 00 00 00	 DD	 $LN16@get_local_
  0047c	00 00 00 00	 DD	 $LN17@get_local_
  00480	00 00 00 00	 DD	 $LN18@get_local_
  00484	00 00 00 00	 DD	 $LN19@get_local_
  00488	00 00 00 00	 DD	 $LN20@get_local_
  0048c	00 00 00 00	 DD	 $LN21@get_local_
  00490	00 00 00 00	 DD	 $LN24@get_local_
  00494	00 00 00 00	 DD	 $LN25@get_local_
  00498	00 00 00 00	 DD	 $LN26@get_local_
  0049c	00 00 00 00	 DD	 $LN27@get_local_
  004a0	00 00 00 00	 DD	 $LN28@get_local_
  004a4	00 00 00 00	 DD	 $LN29@get_local_
  004a8	00 00 00 00	 DD	 $LN30@get_local_
  004ac	00 00 00 00	 DD	 $LN31@get_local_
  004b0	00 00 00 00	 DD	 $LN32@get_local_
  004b4	00 00 00 00	 DD	 $LN33@get_local_
  004b8	00 00 00 00	 DD	 $LN34@get_local_
  004bc	00 00 00 00	 DD	 $LN35@get_local_
  004c0	00 00 00 00	 DD	 $LN36@get_local_
  004c4	00 00 00 00	 DD	 $LN37@get_local_
  004c8	00 00 00 00	 DD	 $LN38@get_local_
  004cc	00 00 00 00	 DD	 $LN39@get_local_
  004d0	00 00 00 00	 DD	 $LN40@get_local_
$LN52@get_local_:
  004d4	00		 DB	 0
  004d5	20		 DB	 32			; 00000020H
  004d6	20		 DB	 32			; 00000020H
  004d7	20		 DB	 32			; 00000020H
  004d8	01		 DB	 1
  004d9	20		 DB	 32			; 00000020H
  004da	02		 DB	 2
  004db	20		 DB	 32			; 00000020H
  004dc	20		 DB	 32			; 00000020H
  004dd	20		 DB	 32			; 00000020H
  004de	20		 DB	 32			; 00000020H
  004df	20		 DB	 32			; 00000020H
  004e0	20		 DB	 32			; 00000020H
  004e1	20		 DB	 32			; 00000020H
  004e2	20		 DB	 32			; 00000020H
  004e3	20		 DB	 32			; 00000020H
  004e4	20		 DB	 32			; 00000020H
  004e5	20		 DB	 32			; 00000020H
  004e6	20		 DB	 32			; 00000020H
  004e7	20		 DB	 32			; 00000020H
  004e8	20		 DB	 32			; 00000020H
  004e9	20		 DB	 32			; 00000020H
  004ea	20		 DB	 32			; 00000020H
  004eb	20		 DB	 32			; 00000020H
  004ec	20		 DB	 32			; 00000020H
  004ed	20		 DB	 32			; 00000020H
  004ee	20		 DB	 32			; 00000020H
  004ef	20		 DB	 32			; 00000020H
  004f0	20		 DB	 32			; 00000020H
  004f1	20		 DB	 32			; 00000020H
  004f2	20		 DB	 32			; 00000020H
  004f3	20		 DB	 32			; 00000020H
  004f4	20		 DB	 32			; 00000020H
  004f5	20		 DB	 32			; 00000020H
  004f6	20		 DB	 32			; 00000020H
  004f7	20		 DB	 32			; 00000020H
  004f8	20		 DB	 32			; 00000020H
  004f9	20		 DB	 32			; 00000020H
  004fa	20		 DB	 32			; 00000020H
  004fb	20		 DB	 32			; 00000020H
  004fc	20		 DB	 32			; 00000020H
  004fd	03		 DB	 3
  004fe	04		 DB	 4
  004ff	20		 DB	 32			; 00000020H
  00500	20		 DB	 32			; 00000020H
  00501	20		 DB	 32			; 00000020H
  00502	20		 DB	 32			; 00000020H
  00503	05		 DB	 5
  00504	20		 DB	 32			; 00000020H
  00505	20		 DB	 32			; 00000020H
  00506	06		 DB	 6
  00507	07		 DB	 7
  00508	20		 DB	 32			; 00000020H
  00509	20		 DB	 32			; 00000020H
  0050a	20		 DB	 32			; 00000020H
  0050b	20		 DB	 32			; 00000020H
  0050c	20		 DB	 32			; 00000020H
  0050d	20		 DB	 32			; 00000020H
  0050e	20		 DB	 32			; 00000020H
  0050f	20		 DB	 32			; 00000020H
  00510	20		 DB	 32			; 00000020H
  00511	20		 DB	 32			; 00000020H
  00512	20		 DB	 32			; 00000020H
  00513	20		 DB	 32			; 00000020H
  00514	08		 DB	 8
  00515	20		 DB	 32			; 00000020H
  00516	09		 DB	 9
  00517	0a		 DB	 10			; 0000000aH
  00518	0b		 DB	 11			; 0000000bH
  00519	0c		 DB	 12			; 0000000cH
  0051a	0d		 DB	 13			; 0000000dH
  0051b	20		 DB	 32			; 00000020H
  0051c	0e		 DB	 14			; 0000000eH
  0051d	20		 DB	 32			; 00000020H
  0051e	20		 DB	 32			; 00000020H
  0051f	20		 DB	 32			; 00000020H
  00520	0f		 DB	 15			; 0000000fH
  00521	20		 DB	 32			; 00000020H
  00522	20		 DB	 32			; 00000020H
  00523	20		 DB	 32			; 00000020H
  00524	20		 DB	 32			; 00000020H
  00525	20		 DB	 32			; 00000020H
  00526	20		 DB	 32			; 00000020H
  00527	20		 DB	 32			; 00000020H
  00528	20		 DB	 32			; 00000020H
  00529	10		 DB	 16			; 00000010H
  0052a	20		 DB	 32			; 00000020H
  0052b	20		 DB	 32			; 00000020H
  0052c	20		 DB	 32			; 00000020H
  0052d	20		 DB	 32			; 00000020H
  0052e	20		 DB	 32			; 00000020H
  0052f	20		 DB	 32			; 00000020H
  00530	20		 DB	 32			; 00000020H
  00531	20		 DB	 32			; 00000020H
  00532	20		 DB	 32			; 00000020H
  00533	20		 DB	 32			; 00000020H
  00534	20		 DB	 32			; 00000020H
  00535	20		 DB	 32			; 00000020H
  00536	20		 DB	 32			; 00000020H
  00537	20		 DB	 32			; 00000020H
  00538	20		 DB	 32			; 00000020H
  00539	20		 DB	 32			; 00000020H
  0053a	20		 DB	 32			; 00000020H
  0053b	20		 DB	 32			; 00000020H
  0053c	20		 DB	 32			; 00000020H
  0053d	20		 DB	 32			; 00000020H
  0053e	20		 DB	 32			; 00000020H
  0053f	20		 DB	 32			; 00000020H
  00540	20		 DB	 32			; 00000020H
  00541	20		 DB	 32			; 00000020H
  00542	20		 DB	 32			; 00000020H
  00543	20		 DB	 32			; 00000020H
  00544	20		 DB	 32			; 00000020H
  00545	11		 DB	 17			; 00000011H
  00546	20		 DB	 32			; 00000020H
  00547	20		 DB	 32			; 00000020H
  00548	20		 DB	 32			; 00000020H
  00549	20		 DB	 32			; 00000020H
  0054a	20		 DB	 32			; 00000020H
  0054b	20		 DB	 32			; 00000020H
  0054c	20		 DB	 32			; 00000020H
  0054d	20		 DB	 32			; 00000020H
  0054e	20		 DB	 32			; 00000020H
  0054f	12		 DB	 18			; 00000012H
  00550	20		 DB	 32			; 00000020H
  00551	20		 DB	 32			; 00000020H
  00552	13		 DB	 19			; 00000013H
  00553	20		 DB	 32			; 00000020H
  00554	20		 DB	 32			; 00000020H
  00555	14		 DB	 20			; 00000014H
  00556	15		 DB	 21			; 00000015H
  00557	20		 DB	 32			; 00000020H
  00558	20		 DB	 32			; 00000020H
  00559	16		 DB	 22			; 00000016H
  0055a	20		 DB	 32			; 00000020H
  0055b	20		 DB	 32			; 00000020H
  0055c	20		 DB	 32			; 00000020H
  0055d	20		 DB	 32			; 00000020H
  0055e	20		 DB	 32			; 00000020H
  0055f	20		 DB	 32			; 00000020H
  00560	20		 DB	 32			; 00000020H
  00561	20		 DB	 32			; 00000020H
  00562	20		 DB	 32			; 00000020H
  00563	17		 DB	 23			; 00000017H
  00564	18		 DB	 24			; 00000018H
  00565	20		 DB	 32			; 00000020H
  00566	20		 DB	 32			; 00000020H
  00567	20		 DB	 32			; 00000020H
  00568	20		 DB	 32			; 00000020H
  00569	20		 DB	 32			; 00000020H
  0056a	20		 DB	 32			; 00000020H
  0056b	20		 DB	 32			; 00000020H
  0056c	20		 DB	 32			; 00000020H
  0056d	20		 DB	 32			; 00000020H
  0056e	20		 DB	 32			; 00000020H
  0056f	20		 DB	 32			; 00000020H
  00570	20		 DB	 32			; 00000020H
  00571	20		 DB	 32			; 00000020H
  00572	20		 DB	 32			; 00000020H
  00573	20		 DB	 32			; 00000020H
  00574	20		 DB	 32			; 00000020H
  00575	20		 DB	 32			; 00000020H
  00576	20		 DB	 32			; 00000020H
  00577	20		 DB	 32			; 00000020H
  00578	20		 DB	 32			; 00000020H
  00579	20		 DB	 32			; 00000020H
  0057a	20		 DB	 32			; 00000020H
  0057b	20		 DB	 32			; 00000020H
  0057c	20		 DB	 32			; 00000020H
  0057d	20		 DB	 32			; 00000020H
  0057e	20		 DB	 32			; 00000020H
  0057f	20		 DB	 32			; 00000020H
  00580	20		 DB	 32			; 00000020H
  00581	19		 DB	 25			; 00000019H
  00582	20		 DB	 32			; 00000020H
  00583	1a		 DB	 26			; 0000001aH
  00584	20		 DB	 32			; 00000020H
  00585	20		 DB	 32			; 00000020H
  00586	20		 DB	 32			; 00000020H
  00587	1b		 DB	 27			; 0000001bH
  00588	20		 DB	 32			; 00000020H
  00589	20		 DB	 32			; 00000020H
  0058a	20		 DB	 32			; 00000020H
  0058b	20		 DB	 32			; 00000020H
  0058c	20		 DB	 32			; 00000020H
  0058d	20		 DB	 32			; 00000020H
  0058e	1c		 DB	 28			; 0000001cH
  0058f	20		 DB	 32			; 00000020H
  00590	20		 DB	 32			; 00000020H
  00591	20		 DB	 32			; 00000020H
  00592	20		 DB	 32			; 00000020H
  00593	20		 DB	 32			; 00000020H
  00594	20		 DB	 32			; 00000020H
  00595	20		 DB	 32			; 00000020H
  00596	20		 DB	 32			; 00000020H
  00597	20		 DB	 32			; 00000020H
  00598	20		 DB	 32			; 00000020H
  00599	20		 DB	 32			; 00000020H
  0059a	20		 DB	 32			; 00000020H
  0059b	20		 DB	 32			; 00000020H
  0059c	20		 DB	 32			; 00000020H
  0059d	20		 DB	 32			; 00000020H
  0059e	20		 DB	 32			; 00000020H
  0059f	20		 DB	 32			; 00000020H
  005a0	20		 DB	 32			; 00000020H
  005a1	20		 DB	 32			; 00000020H
  005a2	20		 DB	 32			; 00000020H
  005a3	20		 DB	 32			; 00000020H
  005a4	20		 DB	 32			; 00000020H
  005a5	20		 DB	 32			; 00000020H
  005a6	20		 DB	 32			; 00000020H
  005a7	20		 DB	 32			; 00000020H
  005a8	20		 DB	 32			; 00000020H
  005a9	20		 DB	 32			; 00000020H
  005aa	20		 DB	 32			; 00000020H
  005ab	20		 DB	 32			; 00000020H
  005ac	20		 DB	 32			; 00000020H
  005ad	20		 DB	 32			; 00000020H
  005ae	20		 DB	 32			; 00000020H
  005af	20		 DB	 32			; 00000020H
  005b0	20		 DB	 32			; 00000020H
  005b1	20		 DB	 32			; 00000020H
  005b2	20		 DB	 32			; 00000020H
  005b3	20		 DB	 32			; 00000020H
  005b4	20		 DB	 32			; 00000020H
  005b5	20		 DB	 32			; 00000020H
  005b6	20		 DB	 32			; 00000020H
  005b7	20		 DB	 32			; 00000020H
  005b8	20		 DB	 32			; 00000020H
  005b9	20		 DB	 32			; 00000020H
  005ba	20		 DB	 32			; 00000020H
  005bb	20		 DB	 32			; 00000020H
  005bc	20		 DB	 32			; 00000020H
  005bd	20		 DB	 32			; 00000020H
  005be	20		 DB	 32			; 00000020H
  005bf	20		 DB	 32			; 00000020H
  005c0	1d		 DB	 29			; 0000001dH
  005c1	20		 DB	 32			; 00000020H
  005c2	20		 DB	 32			; 00000020H
  005c3	20		 DB	 32			; 00000020H
  005c4	20		 DB	 32			; 00000020H
  005c5	20		 DB	 32			; 00000020H
  005c6	1e		 DB	 30			; 0000001eH
  005c7	1f		 DB	 31			; 0000001fH
?get_local_int_value@@YGHPAUENTITY@@W4INT_TYPES@@@Z ENDP ; get_local_int_value
_TEXT	ENDS
; Function compile flags: /Odtp /ZI
; File c:\users\nhv90\projects\eech\aphavoc\source\entity\special\group\gp_int.c
;	COMDAT ?set_client_int_value@@YGXPAUENTITY@@W4INT_TYPES@@H@Z
_TEXT	SEGMENT
_en$ = 8						; size = 4
_type$ = 12						; size = 4
_value$ = 16						; size = 4
?set_client_int_value@@YGXPAUENTITY@@W4INT_TYPES@@H@Z PROC ; set_client_int_value, COMDAT

; 285  : {

  00000	55		 push	 ebp
  00001	8b ec		 mov	 ebp, esp
  00003	83 ec 40	 sub	 esp, 64			; 00000040H
  00006	53		 push	 ebx
  00007	56		 push	 esi
  00008	57		 push	 edi

; 286  : 	if (get_comms_data_flow () == COMMS_DATA_FLOW_TX)

  00009	83 3d 00 00 00
	00 00		 cmp	 DWORD PTR ?system_comms_data_flow@@3W4COMMS_DATA_FLOW_TYPES@@A, 0 ; system_comms_data_flow
  00010	75 34		 jne	 SHORT $LN2@set_client

; 287  : 	{
; 288  : 		validate_client_server_remote_fn ();

  00012	e8 00 00 00 00	 call	 ?assert_client_server_remote_fn@@YGHXZ ; assert_client_server_remote_fn
  00017	85 c0		 test	 eax, eax
  00019	75 18		 jne	 SHORT $LN4@set_client
  0001b	a1 00 00 00 00	 mov	 eax, DWORD PTR ?__LINE__Var@?0??set_client_int_value@@YGXPAUENTITY@@W4INT_TYPES@@H@Z@4JA
  00020	83 c0 03	 add	 eax, 3
  00023	50		 push	 eax
  00024	68 00 00 00 00	 push	 OFFSET ??_C@_0EK@CBOAJIMM@c?3?2users?2nhv90?2projects?2eech?2ap@
  00029	68 00 00 00 00	 push	 OFFSET ??_C@_0CC@BNNNEGEG@assert_client_server_remote_fn?5@
  0002e	e8 00 00 00 00	 call	 ?process_assert@@YGXPBD0H@Z ; process_assert
$LN4@set_client:

; 289  : 
; 290  : 		set_remote_int_value (en, type, value);

  00033	8b 45 10	 mov	 eax, DWORD PTR _value$[ebp]
  00036	50		 push	 eax
  00037	8b 4d 0c	 mov	 ecx, DWORD PTR _type$[ebp]
  0003a	51		 push	 ecx
  0003b	8b 55 08	 mov	 edx, DWORD PTR _en$[ebp]
  0003e	52		 push	 edx
  0003f	e8 00 00 00 00	 call	 ?set_remote_int_value@@YGXPAUENTITY@@W4INT_TYPES@@H@Z ; set_remote_int_value

; 291  : 	}
; 292  : 	else

  00044	eb 32		 jmp	 SHORT $LN1@set_client
$LN2@set_client:

; 293  : 	{
; 294  : 		validate_client_server_local_fn ();

  00046	e8 00 00 00 00	 call	 ?assert_client_server_local_fn@@YGHXZ ; assert_client_server_local_fn
  0004b	85 c0		 test	 eax, eax
  0004d	75 18		 jne	 SHORT $LN5@set_client
  0004f	a1 00 00 00 00	 mov	 eax, DWORD PTR ?__LINE__Var@?0??set_client_int_value@@YGXPAUENTITY@@W4INT_TYPES@@H@Z@4JA
  00054	83 c0 09	 add	 eax, 9
  00057	50		 push	 eax
  00058	68 00 00 00 00	 push	 OFFSET ??_C@_0EK@CBOAJIMM@c?3?2users?2nhv90?2projects?2eech?2ap@
  0005d	68 00 00 00 00	 push	 OFFSET ??_C@_0CB@CFOCLFOK@assert_client_server_local_fn?5?$CI@
  00062	e8 00 00 00 00	 call	 ?process_assert@@YGXPBD0H@Z ; process_assert
$LN5@set_client:

; 295  : 
; 296  : 		set_local_int_value (en, type, value);

  00067	8b 45 10	 mov	 eax, DWORD PTR _value$[ebp]
  0006a	50		 push	 eax
  0006b	8b 4d 0c	 mov	 ecx, DWORD PTR _type$[ebp]
  0006e	51		 push	 ecx
  0006f	8b 55 08	 mov	 edx, DWORD PTR _en$[ebp]
  00072	52		 push	 edx
  00073	e8 00 00 00 00	 call	 ?set_local_int_value@@YGXPAUENTITY@@W4INT_TYPES@@H@Z ; set_local_int_value
$LN1@set_client:

; 297  : 	}
; 298  : }

  00078	5f		 pop	 edi
  00079	5e		 pop	 esi
  0007a	5b		 pop	 ebx
  0007b	8b e5		 mov	 esp, ebp
  0007d	5d		 pop	 ebp
  0007e	c2 0c 00	 ret	 12			; 0000000cH
?set_client_int_value@@YGXPAUENTITY@@W4INT_TYPES@@H@Z ENDP ; set_client_int_value
_TEXT	ENDS
; Function compile flags: /Odtp /ZI
; File c:\users\nhv90\projects\eech\aphavoc\source\entity\special\group\gp_int.c
;	COMDAT ?set_server_int_value@@YGXPAUENTITY@@W4INT_TYPES@@H@Z
_TEXT	SEGMENT
_en$ = 8						; size = 4
_type$ = 12						; size = 4
_value$ = 16						; size = 4
?set_server_int_value@@YGXPAUENTITY@@W4INT_TYPES@@H@Z PROC ; set_server_int_value, COMDAT

; 270  : {

  00000	55		 push	 ebp
  00001	8b ec		 mov	 ebp, esp
  00003	83 ec 40	 sub	 esp, 64			; 00000040H
  00006	53		 push	 ebx
  00007	56		 push	 esi
  00008	57		 push	 edi

; 271  : 	validate_client_server_local_fn ();

  00009	e8 00 00 00 00	 call	 ?assert_client_server_local_fn@@YGHXZ ; assert_client_server_local_fn
  0000e	85 c0		 test	 eax, eax
  00010	75 18		 jne	 SHORT $LN2@set_server
  00012	a1 00 00 00 00	 mov	 eax, DWORD PTR ?__LINE__Var@?0??set_server_int_value@@YGXPAUENTITY@@W4INT_TYPES@@H@Z@4JA
  00017	83 c0 01	 add	 eax, 1
  0001a	50		 push	 eax
  0001b	68 00 00 00 00	 push	 OFFSET ??_C@_0EK@CBOAJIMM@c?3?2users?2nhv90?2projects?2eech?2ap@
  00020	68 00 00 00 00	 push	 OFFSET ??_C@_0CB@CFOCLFOK@assert_client_server_local_fn?5?$CI@
  00025	e8 00 00 00 00	 call	 ?process_assert@@YGXPBD0H@Z ; process_assert
$LN2@set_server:

; 272  : 
; 273  : 	set_local_int_value (en, type, value);

  0002a	8b 45 10	 mov	 eax, DWORD PTR _value$[ebp]
  0002d	50		 push	 eax
  0002e	8b 4d 0c	 mov	 ecx, DWORD PTR _type$[ebp]
  00031	51		 push	 ecx
  00032	8b 55 08	 mov	 edx, DWORD PTR _en$[ebp]
  00035	52		 push	 edx
  00036	e8 00 00 00 00	 call	 ?set_local_int_value@@YGXPAUENTITY@@W4INT_TYPES@@H@Z ; set_local_int_value

; 274  : 
; 275  : 	validate_client_server_remote_fn ();

  0003b	e8 00 00 00 00	 call	 ?assert_client_server_remote_fn@@YGHXZ ; assert_client_server_remote_fn
  00040	85 c0		 test	 eax, eax
  00042	75 18		 jne	 SHORT $LN3@set_server
  00044	a1 00 00 00 00	 mov	 eax, DWORD PTR ?__LINE__Var@?0??set_server_int_value@@YGXPAUENTITY@@W4INT_TYPES@@H@Z@4JA
  00049	83 c0 05	 add	 eax, 5
  0004c	50		 push	 eax
  0004d	68 00 00 00 00	 push	 OFFSET ??_C@_0EK@CBOAJIMM@c?3?2users?2nhv90?2projects?2eech?2ap@
  00052	68 00 00 00 00	 push	 OFFSET ??_C@_0CC@BNNNEGEG@assert_client_server_remote_fn?5@
  00057	e8 00 00 00 00	 call	 ?process_assert@@YGXPBD0H@Z ; process_assert
$LN3@set_server:

; 276  : 
; 277  : 	set_remote_int_value (en, type, value);

  0005c	8b 45 10	 mov	 eax, DWORD PTR _value$[ebp]
  0005f	50		 push	 eax
  00060	8b 4d 0c	 mov	 ecx, DWORD PTR _type$[ebp]
  00063	51		 push	 ecx
  00064	8b 55 08	 mov	 edx, DWORD PTR _en$[ebp]
  00067	52		 push	 edx
  00068	e8 00 00 00 00	 call	 ?set_remote_int_value@@YGXPAUENTITY@@W4INT_TYPES@@H@Z ; set_remote_int_value

; 278  : }

  0006d	5f		 pop	 edi
  0006e	5e		 pop	 esi
  0006f	5b		 pop	 ebx
  00070	8b e5		 mov	 esp, ebp
  00072	5d		 pop	 ebp
  00073	c2 0c 00	 ret	 12			; 0000000cH
?set_server_int_value@@YGXPAUENTITY@@W4INT_TYPES@@H@Z ENDP ; set_server_int_value
_TEXT	ENDS
; Function compile flags: /Odtp /ZI
; File c:\users\nhv90\projects\eech\aphavoc\source\entity\special\group\gp_int.c
;	COMDAT ?set_remote_int_value@@YGXPAUENTITY@@W4INT_TYPES@@H@Z
_TEXT	SEGMENT
_en$ = 8						; size = 4
_type$ = 12						; size = 4
_value$ = 16						; size = 4
?set_remote_int_value@@YGXPAUENTITY@@W4INT_TYPES@@H@Z PROC ; set_remote_int_value, COMDAT

; 255  : {

  00000	55		 push	 ebp
  00001	8b ec		 mov	 ebp, esp
  00003	83 ec 40	 sub	 esp, 64			; 00000040H
  00006	53		 push	 ebx
  00007	56		 push	 esi
  00008	57		 push	 edi

; 256  : 	#if DEBUG_MODULE
; 257  : 
; 258  : 	debug_log_entity_args (ENTITY_DEBUG_REMOTE, ENTITY_DEBUG_INT_VALUE, en, type, value);
; 259  : 
; 260  : 	#endif
; 261  : 
; 262  : 	transmit_entity_comms_message (ENTITY_COMMS_INT_VALUE, en, type, value);

  00009	8b 45 10	 mov	 eax, DWORD PTR _value$[ebp]
  0000c	50		 push	 eax
  0000d	8b 4d 0c	 mov	 ecx, DWORD PTR _type$[ebp]
  00010	51		 push	 ecx
  00011	8b 55 08	 mov	 edx, DWORD PTR _en$[ebp]
  00014	52		 push	 edx
  00015	6a 17		 push	 23			; 00000017H
  00017	e8 00 00 00 00	 call	 ?transmit_entity_comms_message@@YAXW4ENTITY_COMMS_MESSAGES@@PAUENTITY@@ZZ ; transmit_entity_comms_message
  0001c	83 c4 10	 add	 esp, 16			; 00000010H

; 263  : }

  0001f	5f		 pop	 edi
  00020	5e		 pop	 esi
  00021	5b		 pop	 ebx
  00022	8b e5		 mov	 esp, ebp
  00024	5d		 pop	 ebp
  00025	c2 0c 00	 ret	 12			; 0000000cH
?set_remote_int_value@@YGXPAUENTITY@@W4INT_TYPES@@H@Z ENDP ; set_remote_int_value
_TEXT	ENDS
; Function compile flags: /Odtp /ZI
; File c:\users\nhv90\projects\eech\aphavoc\source\entity\special\group\gp_int.c
;	COMDAT ?set_local_int_value@@YGXPAUENTITY@@W4INT_TYPES@@H@Z
_TEXT	SEGMENT
tv186 = -88						; size = 4
tv244 = -84						; size = 4
tv178 = -84						; size = 4
tv65 = -84						; size = 4
_list_type$1 = -16					; size = 4
_new_force$2 = -12					; size = 4
_old_force$3 = -8					; size = 4
_raw$ = -4						; size = 4
_en$ = 8						; size = 4
_type$ = 12						; size = 4
_value$ = 16						; size = 4
?set_local_int_value@@YGXPAUENTITY@@W4INT_TYPES@@H@Z PROC ; set_local_int_value, COMDAT

; 80   : {

  00000	55		 push	 ebp
  00001	8b ec		 mov	 ebp, esp
  00003	83 ec 58	 sub	 esp, 88			; 00000058H
  00006	53		 push	 ebx
  00007	56		 push	 esi
  00008	57		 push	 edi

; 81   : 	group
; 82   : 		*raw;
; 83   : 
; 84   : 	#if DEBUG_MODULE
; 85   : 
; 86   : 	debug_log_entity_args (ENTITY_DEBUG_LOCAL, ENTITY_DEBUG_INT_VALUE, en, type, value);
; 87   : 
; 88   : 	#endif
; 89   : 
; 90   : 	raw = (group *) get_local_entity_data (en);

  00009	8b 45 08	 mov	 eax, DWORD PTR _en$[ebp]
  0000c	8b 48 04	 mov	 ecx, DWORD PTR [eax+4]
  0000f	89 4d fc	 mov	 DWORD PTR _raw$[ebp], ecx

; 91   : 
; 92   : 	switch (type)

  00012	8b 45 0c	 mov	 eax, DWORD PTR _type$[ebp]
  00015	89 45 ac	 mov	 DWORD PTR tv65[ebp], eax
  00018	8b 4d ac	 mov	 ecx, DWORD PTR tv65[ebp]
  0001b	83 e9 07	 sub	 ecx, 7
  0001e	89 4d ac	 mov	 DWORD PTR tv65[ebp], ecx
  00021	81 7d ac ed 00
	00 00		 cmp	 DWORD PTR tv65[ebp], 237 ; 000000edH
  00028	0f 87 57 03 00
	00		 ja	 $LN23@set_local_
  0002e	8b 55 ac	 mov	 edx, DWORD PTR tv65[ebp]
  00031	0f b6 82 00 00
	00 00		 movzx	 eax, BYTE PTR $LN31@set_local_[edx]
  00038	ff 24 85 00 00
	00 00		 jmp	 DWORD PTR $LN32@set_local_[eax*4]
$LN4@set_local_:

; 93   : 	{
; 94   : 		////////////////////////////////////////
; 95   : 		case INT_TYPE_ALIVE:
; 96   : 		////////////////////////////////////////
; 97   : 		{
; 98   : 			raw->alive = value;

  0003f	8b 45 10	 mov	 eax, DWORD PTR _value$[ebp]
  00042	83 e0 01	 and	 eax, 1
  00045	8b 4d fc	 mov	 ecx, DWORD PTR _raw$[ebp]
  00048	8b 91 84 00 00
	00		 mov	 edx, DWORD PTR [ecx+132]
  0004e	83 e2 fe	 and	 edx, -2			; fffffffeH
  00051	0b d0		 or	 edx, eax
  00053	8b 45 fc	 mov	 eax, DWORD PTR _raw$[ebp]
  00056	89 90 84 00 00
	00		 mov	 DWORD PTR [eax+132], edx

; 99   : 
; 100  : 			break;

  0005c	e9 9c 03 00 00	 jmp	 $LN1@set_local_
$LN5@set_local_:

; 101  : 		}
; 102  : 		////////////////////////////////////////
; 103  : 		case INT_TYPE_ENGAGE_ENEMY:
; 104  : 		////////////////////////////////////////
; 105  : 		{
; 106  : 			raw->engage_enemy = value;

  00061	8b 45 10	 mov	 eax, DWORD PTR _value$[ebp]
  00064	83 e0 01	 and	 eax, 1
  00067	d1 e0		 shl	 eax, 1
  00069	8b 4d fc	 mov	 ecx, DWORD PTR _raw$[ebp]
  0006c	8b 91 84 00 00
	00		 mov	 edx, DWORD PTR [ecx+132]
  00072	83 e2 fd	 and	 edx, -3			; fffffffdH
  00075	0b d0		 or	 edx, eax
  00077	8b 45 fc	 mov	 eax, DWORD PTR _raw$[ebp]
  0007a	89 90 84 00 00
	00		 mov	 DWORD PTR [eax+132], edx

; 107  : 
; 108  : 			break;

  00080	e9 78 03 00 00	 jmp	 $LN1@set_local_
$LN6@set_local_:

; 109  : 		}
; 110  : 		////////////////////////////////////////
; 111  : 		case INT_TYPE_ENTITY_SUB_TYPE:
; 112  : 		////////////////////////////////////////
; 113  : 		{
; 114  : 			raw->sub_type = value;

  00085	8b 45 fc	 mov	 eax, DWORD PTR _raw$[ebp]
  00088	8b 4d 10	 mov	 ecx, DWORD PTR _value$[ebp]
  0008b	89 08		 mov	 DWORD PTR [eax], ecx

; 115  : 
; 116  : 			break;

  0008d	e9 6b 03 00 00	 jmp	 $LN1@set_local_
$LN7@set_local_:

; 117  : 		}
; 118  : 		////////////////////////////////////////
; 119  : 		case INT_TYPE_GROUP_CALLSIGN:
; 120  : 		////////////////////////////////////////
; 121  : 		{
; 122  : 			raw->group_callsign = value;

  00092	8b 45 10	 mov	 eax, DWORD PTR _value$[ebp]
  00095	25 ff 00 00 00	 and	 eax, 255		; 000000ffH
  0009a	c1 e0 02	 shl	 eax, 2
  0009d	8b 4d fc	 mov	 ecx, DWORD PTR _raw$[ebp]
  000a0	8b 91 84 00 00
	00		 mov	 edx, DWORD PTR [ecx+132]
  000a6	81 e2 03 fc ff
	ff		 and	 edx, -1021		; fffffc03H
  000ac	0b d0		 or	 edx, eax
  000ae	8b 45 fc	 mov	 eax, DWORD PTR _raw$[ebp]
  000b1	89 90 84 00 00
	00		 mov	 DWORD PTR [eax+132], edx

; 123  : 
; 124  : 			break;

  000b7	e9 41 03 00 00	 jmp	 $LN1@set_local_
$LN8@set_local_:

; 125  : 		}		
; 126  : 		////////////////////////////////////////
; 127  : 		case INT_TYPE_GROUP_FORMATION:
; 128  : 		////////////////////////////////////////
; 129  : 		{
; 130  : 			ASSERT ((value >= FORMATION_NONE) && (value < FORMATION_INVALID));

  000bc	83 7d 10 00	 cmp	 DWORD PTR _value$[ebp], 0
  000c0	7c 06		 jl	 SHORT $LN10@set_local_
  000c2	83 7d 10 0d	 cmp	 DWORD PTR _value$[ebp], 13 ; 0000000dH
  000c6	7c 18		 jl	 SHORT $LN9@set_local_
$LN10@set_local_:
  000c8	a1 00 00 00 00	 mov	 eax, DWORD PTR ?__LINE__Var@?0??set_local_int_value@@YGXPAUENTITY@@W4INT_TYPES@@H@Z@4JA
  000cd	83 c0 32	 add	 eax, 50			; 00000032H
  000d0	50		 push	 eax
  000d1	68 00 00 00 00	 push	 OFFSET ??_C@_0EK@CBOAJIMM@c?3?2users?2nhv90?2projects?2eech?2ap@
  000d6	68 00 00 00 00	 push	 OFFSET ??_C@_0DJ@OAFGFFKE@?$CIvalue?5?$DO?$DN?5FORMATION_NONE?$CJ?5?$CG?$CG?5?$CIv@
  000db	e8 00 00 00 00	 call	 ?process_assert@@YGXPBD0H@Z ; process_assert
$LN9@set_local_:

; 131  : 
; 132  : 			raw->group_formation = value;

  000e0	8b 45 10	 mov	 eax, DWORD PTR _value$[ebp]
  000e3	25 ff ff 00 00	 and	 eax, 65535		; 0000ffffH
  000e8	c1 e0 0a	 shl	 eax, 10			; 0000000aH
  000eb	8b 4d fc	 mov	 ecx, DWORD PTR _raw$[ebp]
  000ee	8b 91 84 00 00
	00		 mov	 edx, DWORD PTR [ecx+132]
  000f4	81 e2 ff 03 00
	fc		 and	 edx, -67107841		; fc0003ffH
  000fa	0b d0		 or	 edx, eax
  000fc	8b 45 fc	 mov	 eax, DWORD PTR _raw$[ebp]
  000ff	89 90 84 00 00
	00		 mov	 DWORD PTR [eax+132], edx

; 133  : 
; 134  : 			break;

  00105	e9 f3 02 00 00	 jmp	 $LN1@set_local_
$LN11@set_local_:

; 135  : 		}		
; 136  : 		////////////////////////////////////////
; 137  : 		case INT_TYPE_GROUP_LIST_TYPE:
; 138  : 		////////////////////////////////////////
; 139  : 		{
; 140  : 			raw->group_list_type = (list_types) value;

  0010a	8b 45 fc	 mov	 eax, DWORD PTR _raw$[ebp]
  0010d	8b 4d 10	 mov	 ecx, DWORD PTR _value$[ebp]
  00110	89 48 58	 mov	 DWORD PTR [eax+88], ecx

; 141  : 
; 142  : 			break;

  00113	e9 e5 02 00 00	 jmp	 $LN1@set_local_
$LN12@set_local_:

; 143  : 		}		
; 144  : 		////////////////////////////////////////
; 145  : 		case INT_TYPE_KILLS:
; 146  : 		////////////////////////////////////////
; 147  : 		{
; 148  : 			raw->kills = value;

  00118	8b 45 10	 mov	 eax, DWORD PTR _value$[ebp]
  0011b	25 ff 0f 00 00	 and	 eax, 4095		; 00000fffH
  00120	8b 4d fc	 mov	 ecx, DWORD PTR _raw$[ebp]
  00123	8b 91 88 00 00
	00		 mov	 edx, DWORD PTR [ecx+136]
  00129	81 e2 00 f0 ff
	ff		 and	 edx, -4096		; fffff000H
  0012f	0b d0		 or	 edx, eax
  00131	8b 45 fc	 mov	 eax, DWORD PTR _raw$[ebp]
  00134	89 90 88 00 00
	00		 mov	 DWORD PTR [eax+136], edx

; 149  : 
; 150  : 			break;

  0013a	e9 be 02 00 00	 jmp	 $LN1@set_local_
$LN13@set_local_:

; 151  : 		}
; 152  : 		////////////////////////////////////////
; 153  : 		case INT_TYPE_LOSSES:
; 154  : 		////////////////////////////////////////
; 155  : 		{
; 156  : 			raw->losses = value;

  0013f	8b 45 10	 mov	 eax, DWORD PTR _value$[ebp]
  00142	25 ff 03 00 00	 and	 eax, 1023		; 000003ffH
  00147	c1 e0 0c	 shl	 eax, 12			; 0000000cH
  0014a	8b 4d fc	 mov	 ecx, DWORD PTR _raw$[ebp]
  0014d	8b 91 88 00 00
	00		 mov	 edx, DWORD PTR [ecx+136]
  00153	81 e2 ff 0f c0
	ff		 and	 edx, -4190209		; ffc00fffH
  00159	0b d0		 or	 edx, eax
  0015b	8b 45 fc	 mov	 eax, DWORD PTR _raw$[ebp]
  0015e	89 90 88 00 00
	00		 mov	 DWORD PTR [eax+136], edx

; 157  : 
; 158  : 			break;

  00164	e9 94 02 00 00	 jmp	 $LN1@set_local_
$LN14@set_local_:

; 159  : 		}
; 160  : 		////////////////////////////////////////
; 161  : 		case INT_TYPE_MEMBER_COUNT:
; 162  : 		////////////////////////////////////////
; 163  : 		{
; 164  : 			raw->member_count = value;

  00169	8b 45 10	 mov	 eax, DWORD PTR _value$[ebp]
  0016c	83 e0 3f	 and	 eax, 63			; 0000003fH
  0016f	c1 e0 16	 shl	 eax, 22			; 00000016H
  00172	8b 4d fc	 mov	 ecx, DWORD PTR _raw$[ebp]
  00175	8b 91 88 00 00
	00		 mov	 edx, DWORD PTR [ecx+136]
  0017b	81 e2 ff ff 3f
	f0		 and	 edx, -264241153		; f03fffffH
  00181	0b d0		 or	 edx, eax
  00183	8b 45 fc	 mov	 eax, DWORD PTR _raw$[ebp]
  00186	89 90 88 00 00
	00		 mov	 DWORD PTR [eax+136], edx

; 165  : 
; 166  : 			break;

  0018c	e9 6c 02 00 00	 jmp	 $LN1@set_local_
$LN15@set_local_:

; 167  : 		}
; 168  : 		////////////////////////////////////////
; 169  : 		case INT_TYPE_MULTIPLAYER_GROUP:
; 170  : 		////////////////////////////////////////
; 171  : 		{
; 172  : 			raw->multiplayer_group = value;

  00191	8b 45 10	 mov	 eax, DWORD PTR _value$[ebp]
  00194	83 e0 01	 and	 eax, 1
  00197	c1 e0 1c	 shl	 eax, 28			; 0000001cH
  0019a	8b 4d fc	 mov	 ecx, DWORD PTR _raw$[ebp]
  0019d	8b 91 88 00 00
	00		 mov	 edx, DWORD PTR [ecx+136]
  001a3	81 e2 ff ff ff
	ef		 and	 edx, -268435457		; efffffffH
  001a9	0b d0		 or	 edx, eax
  001ab	8b 45 fc	 mov	 eax, DWORD PTR _raw$[ebp]
  001ae	89 90 88 00 00
	00		 mov	 DWORD PTR [eax+136], edx

; 173  : 
; 174  : 			break;

  001b4	e9 44 02 00 00	 jmp	 $LN1@set_local_
$LN16@set_local_:

; 175  : 		}
; 176  : 		////////////////////////////////////////
; 177  : 		case INT_TYPE_MINIMUM_IDLE_COUNT:
; 178  : 		////////////////////////////////////////
; 179  : 		{
; 180  : 			value = group_database[raw->sub_type].minimum_idle_count;

  001b9	8b 45 fc	 mov	 eax, DWORD PTR _raw$[ebp]
  001bc	6b 08 64	 imul	 ecx, DWORD PTR [eax], 100
  001bf	8b 91 48 00 00
	00		 mov	 edx, DWORD PTR ?group_database@@3PAUGROUP_DATA@@A[ecx+72]
  001c5	c1 ea 0d	 shr	 edx, 13			; 0000000dH
  001c8	83 e2 0f	 and	 edx, 15			; 0000000fH
  001cb	89 55 10	 mov	 DWORD PTR _value$[ebp], edx

; 181  : 
; 182  : 			break;

  001ce	e9 2a 02 00 00	 jmp	 $LN1@set_local_
$LN17@set_local_:

; 183  : 		}
; 184  : 		////////////////////////////////////////
; 185  : 		case INT_TYPE_ROUTE_NODE:
; 186  : 		////////////////////////////////////////
; 187  : 		{
; 188  : 			raw->route_node = value;

  001d3	8b 45 10	 mov	 eax, DWORD PTR _value$[ebp]
  001d6	25 ff 03 00 00	 and	 eax, 1023		; 000003ffH
  001db	8b 4d fc	 mov	 ecx, DWORD PTR _raw$[ebp]
  001de	8b 91 8c 00 00
	00		 mov	 edx, DWORD PTR [ecx+140]
  001e4	81 e2 00 fc ff
	ff		 and	 edx, -1024		; fffffc00H
  001ea	0b d0		 or	 edx, eax
  001ec	8b 45 fc	 mov	 eax, DWORD PTR _raw$[ebp]
  001ef	89 90 8c 00 00
	00		 mov	 DWORD PTR [eax+140], edx

; 189  : 
; 190  : 			break;

  001f5	e9 03 02 00 00	 jmp	 $LN1@set_local_
$LN18@set_local_:

; 191  : 		}
; 192  : 		////////////////////////////////////////
; 193  : 		case INT_TYPE_SIDE:
; 194  : 		////////////////////////////////////////
; 195  : 		{
; 196  : 			// Casm 18AUG05 begin We need to place this group to another force if side is changed
; 197  : 			if ( raw->side != ENTITY_SIDE_UNINITIALISED && value != ENTITY_SIDE_UNINITIALISED && raw->side != value )

  001fa	8b 45 fc	 mov	 eax, DWORD PTR _raw$[ebp]
  001fd	8b 88 8c 00 00
	00		 mov	 ecx, DWORD PTR [eax+140]
  00203	c1 e9 0a	 shr	 ecx, 10			; 0000000aH
  00206	83 e1 03	 and	 ecx, 3
  00209	83 f9 03	 cmp	 ecx, 3
  0020c	0f 84 0d 01 00
	00		 je	 $LN19@set_local_
  00212	83 7d 10 03	 cmp	 DWORD PTR _value$[ebp], 3
  00216	0f 84 03 01 00
	00		 je	 $LN19@set_local_
  0021c	8b 45 fc	 mov	 eax, DWORD PTR _raw$[ebp]
  0021f	8b 88 8c 00 00
	00		 mov	 ecx, DWORD PTR [eax+140]
  00225	c1 e9 0a	 shr	 ecx, 10			; 0000000aH
  00228	83 e1 03	 and	 ecx, 3
  0022b	3b 4d 10	 cmp	 ecx, DWORD PTR _value$[ebp]
  0022e	0f 84 eb 00 00
	00		 je	 $LN19@set_local_

; 198  : 			{
; 199  : 				entity
; 200  : 					*old_force,
; 201  : 					*new_force;
; 202  : 				list_types
; 203  : 					list_type;
; 204  : 
; 205  : 				list_type = (list_types) get_local_entity_int_value (en, INT_TYPE_REGISTRY_LIST_TYPE);

  00234	83 7d 08 00	 cmp	 DWORD PTR _en$[ebp], 0
  00238	74 0a		 je	 SHORT $LN25@set_local_
  0023a	8b 45 08	 mov	 eax, DWORD PTR _en$[ebp]
  0023d	8b 08		 mov	 ecx, DWORD PTR [eax]
  0023f	89 4d ac	 mov	 DWORD PTR tv178[ebp], ecx
  00242	eb 21		 jmp	 SHORT $LN26@set_local_
$LN25@set_local_:
  00244	8b 15 00 00 00
	00		 mov	 edx, DWORD PTR ?__LINE__Var@?0??set_local_int_value@@YGXPAUENTITY@@W4INT_TYPES@@H@Z@4JA
  0024a	83 c2 7d	 add	 edx, 125		; 0000007dH
  0024d	52		 push	 edx
  0024e	68 00 00 00 00	 push	 OFFSET ??_C@_0EK@CBOAJIMM@c?3?2users?2nhv90?2projects?2eech?2ap@
  00253	a1 00 00 00 00	 mov	 eax, DWORD PTR ?null_entity_pointer_message@@3PBDB ; null_entity_pointer_message
  00258	50		 push	 eax
  00259	e8 00 00 00 00	 call	 ?process_assert@@YGXPBD0H@Z ; process_assert
  0025e	c7 45 ac 00 00
	00 00		 mov	 DWORD PTR tv178[ebp], 0
$LN26@set_local_:
  00265	b9 01 00 00 00	 mov	 ecx, 1
  0026a	85 c9		 test	 ecx, ecx
  0026c	74 09		 je	 SHORT $LN27@set_local_
  0026e	c7 45 a8 ae 00
	00 00		 mov	 DWORD PTR tv186[ebp], 174 ; 000000aeH
  00275	eb 21		 jmp	 SHORT $LN28@set_local_
$LN27@set_local_:
  00277	8b 15 00 00 00
	00		 mov	 edx, DWORD PTR ?__LINE__Var@?0??set_local_int_value@@YGXPAUENTITY@@W4INT_TYPES@@H@Z@4JA
  0027d	83 c2 7d	 add	 edx, 125		; 0000007dH
  00280	52		 push	 edx
  00281	68 00 00 00 00	 push	 OFFSET ??_C@_0EK@CBOAJIMM@c?3?2users?2nhv90?2projects?2eech?2ap@
  00286	a1 00 00 00 00	 mov	 eax, DWORD PTR ?overload_invalid_int_type_message@@3PBDB ; overload_invalid_int_type_message
  0028b	50		 push	 eax
  0028c	e8 00 00 00 00	 call	 ?process_assert@@YGXPBD0H@Z ; process_assert
  00291	c7 45 a8 00 00
	00 00		 mov	 DWORD PTR tv186[ebp], 0
$LN28@set_local_:
  00298	68 ae 00 00 00	 push	 174			; 000000aeH
  0029d	8b 4d 08	 mov	 ecx, DWORD PTR _en$[ebp]
  002a0	51		 push	 ecx
  002a1	69 55 ac 5c 04
	00 00		 imul	 edx, DWORD PTR tv178[ebp], 1116
  002a8	8b 45 a8	 mov	 eax, DWORD PTR tv186[ebp]
  002ab	8b 8c 82 00 00
	00 00		 mov	 ecx, DWORD PTR ?fn_get_local_entity_int_value@@3PAY0BBH@P6GHPAUENTITY@@W4INT_TYPES@@@ZA[edx+eax*4]
  002b2	ff d1		 call	 ecx
  002b4	89 45 f0	 mov	 DWORD PTR _list_type$1[ebp], eax

; 206  : 				if (list_type != LIST_TYPE_INVALID)

  002b7	83 7d f0 00	 cmp	 DWORD PTR _list_type$1[ebp], 0
  002bb	74 62		 je	 SHORT $LN19@set_local_

; 207  : 				{
; 208  : 					old_force = get_local_force_entity ((entity_sides) raw->side);

  002bd	8b 45 fc	 mov	 eax, DWORD PTR _raw$[ebp]
  002c0	8b 88 8c 00 00
	00		 mov	 ecx, DWORD PTR [eax+140]
  002c6	c1 e9 0a	 shr	 ecx, 10			; 0000000aH
  002c9	83 e1 03	 and	 ecx, 3
  002cc	51		 push	 ecx
  002cd	e8 00 00 00 00	 call	 ?get_local_force_entity@@YGPAUENTITY@@W4ENTITY_SIDES@@@Z ; get_local_force_entity
  002d2	89 45 f8	 mov	 DWORD PTR _old_force$3[ebp], eax

; 209  : 					new_force = get_local_force_entity ((entity_sides) value);

  002d5	8b 45 10	 mov	 eax, DWORD PTR _value$[ebp]
  002d8	50		 push	 eax
  002d9	e8 00 00 00 00	 call	 ?get_local_force_entity@@YGPAUENTITY@@W4ENTITY_SIDES@@@Z ; get_local_force_entity
  002de	89 45 f4	 mov	 DWORD PTR _new_force$2[ebp], eax

; 210  : 
; 211  : 					delete_local_entity_from_parents_child_list (en, list_type);

  002e1	8b 45 f0	 mov	 eax, DWORD PTR _list_type$1[ebp]
  002e4	50		 push	 eax
  002e5	8b 4d 08	 mov	 ecx, DWORD PTR _en$[ebp]
  002e8	51		 push	 ecx
  002e9	e8 00 00 00 00	 call	 ?delete_local_entity_from_parents_child_list@@YGXPAUENTITY@@W4LIST_TYPES@@@Z ; delete_local_entity_from_parents_child_list

; 212  : 					remove_group_type_from_force_info (old_force, raw->sub_type);

  002ee	8b 45 fc	 mov	 eax, DWORD PTR _raw$[ebp]
  002f1	8b 08		 mov	 ecx, DWORD PTR [eax]
  002f3	51		 push	 ecx
  002f4	8b 55 f8	 mov	 edx, DWORD PTR _old_force$3[ebp]
  002f7	52		 push	 edx
  002f8	e8 00 00 00 00	 call	 ?remove_group_type_from_force_info@@YGXPAUENTITY@@H@Z ; remove_group_type_from_force_info

; 213  : 					insert_local_entity_into_parents_child_list (en, list_type, new_force, NULL);

  002fd	6a 00		 push	 0
  002ff	8b 45 f4	 mov	 eax, DWORD PTR _new_force$2[ebp]
  00302	50		 push	 eax
  00303	8b 4d f0	 mov	 ecx, DWORD PTR _list_type$1[ebp]
  00306	51		 push	 ecx
  00307	8b 55 08	 mov	 edx, DWORD PTR _en$[ebp]
  0030a	52		 push	 edx
  0030b	e8 00 00 00 00	 call	 ?insert_local_entity_into_parents_child_list@@YGXPAUENTITY@@W4LIST_TYPES@@00@Z ; insert_local_entity_into_parents_child_list

; 214  : 					add_group_type_to_force_info (new_force, raw->sub_type);

  00310	8b 45 fc	 mov	 eax, DWORD PTR _raw$[ebp]
  00313	8b 08		 mov	 ecx, DWORD PTR [eax]
  00315	51		 push	 ecx
  00316	8b 55 f4	 mov	 edx, DWORD PTR _new_force$2[ebp]
  00319	52		 push	 edx
  0031a	e8 00 00 00 00	 call	 ?add_group_type_to_force_info@@YGXPAUENTITY@@H@Z ; add_group_type_to_force_info
$LN19@set_local_:

; 215  : 				}
; 216  : 			}
; 217  : 			// Casm 18AUG05 end
; 218  : 
; 219  : 			raw->side = value;

  0031f	8b 45 10	 mov	 eax, DWORD PTR _value$[ebp]
  00322	83 e0 03	 and	 eax, 3
  00325	c1 e0 0a	 shl	 eax, 10			; 0000000aH
  00328	8b 4d fc	 mov	 ecx, DWORD PTR _raw$[ebp]
  0032b	8b 91 8c 00 00
	00		 mov	 edx, DWORD PTR [ecx+140]
  00331	81 e2 ff f3 ff
	ff		 and	 edx, -3073		; fffff3ffH
  00337	0b d0		 or	 edx, eax
  00339	8b 45 fc	 mov	 eax, DWORD PTR _raw$[ebp]
  0033c	89 90 8c 00 00
	00		 mov	 DWORD PTR [eax+140], edx

; 220  : 
; 221  : 			break;

  00342	e9 b6 00 00 00	 jmp	 $LN1@set_local_
$LN21@set_local_:

; 222  : 		}
; 223  : 		////////////////////////////////////////
; 224  : 		case INT_TYPE_UNIQUE_ID:
; 225  : 		////////////////////////////////////////
; 226  : 		{
; 227  : 			raw->unique_id = value;

  00347	8b 45 10	 mov	 eax, DWORD PTR _value$[ebp]
  0034a	8b 4d fc	 mov	 ecx, DWORD PTR _raw$[ebp]
  0034d	8b 91 90 00 00
	00		 mov	 edx, DWORD PTR [ecx+144]
  00353	83 e2 00	 and	 edx, 0
  00356	0b d0		 or	 edx, eax
  00358	8b 45 fc	 mov	 eax, DWORD PTR _raw$[ebp]
  0035b	89 90 90 00 00
	00		 mov	 DWORD PTR [eax+144], edx

; 228  : 
; 229  : 			break;

  00361	e9 97 00 00 00	 jmp	 $LN1@set_local_
$LN22@set_local_:

; 230  : 		}
; 231  : 		////////////////////////////////////////
; 232  : 		case INT_TYPE_VERBOSE_OPERATIONAL_STATE:
; 233  : 		////////////////////////////////////////
; 234  : 		{
; 235  : 			raw->verbose_operational_state = value;

  00366	8b 45 10	 mov	 eax, DWORD PTR _value$[ebp]
  00369	83 e0 3f	 and	 eax, 63			; 0000003fH
  0036c	8b 4d fc	 mov	 ecx, DWORD PTR _raw$[ebp]
  0036f	8b 91 94 00 00
	00		 mov	 edx, DWORD PTR [ecx+148]
  00375	83 e2 c0	 and	 edx, -64		; ffffffc0H
  00378	0b d0		 or	 edx, eax
  0037a	8b 45 fc	 mov	 eax, DWORD PTR _raw$[ebp]
  0037d	89 90 94 00 00
	00		 mov	 DWORD PTR [eax+148], edx

; 236  : 
; 237  : 			break;

  00383	eb 78		 jmp	 SHORT $LN1@set_local_
$LN23@set_local_:

; 238  : 		}
; 239  : 		////////////////////////////////////////
; 240  : 		default:
; 241  : 		////////////////////////////////////////
; 242  : 		{
; 243  : 			debug_fatal_invalid_int_type (en, type);

  00385	83 7d 08 00	 cmp	 DWORD PTR _en$[ebp], 0
  00389	74 0a		 je	 SHORT $LN29@set_local_
  0038b	8b 45 08	 mov	 eax, DWORD PTR _en$[ebp]
  0038e	8b 08		 mov	 ecx, DWORD PTR [eax]
  00390	89 4d ac	 mov	 DWORD PTR tv244[ebp], ecx
  00393	eb 24		 jmp	 SHORT $LN30@set_local_
$LN29@set_local_:
  00395	8b 15 00 00 00
	00		 mov	 edx, DWORD PTR ?__LINE__Var@?0??set_local_int_value@@YGXPAUENTITY@@W4INT_TYPES@@H@Z@4JA
  0039b	81 c2 a3 00 00
	00		 add	 edx, 163		; 000000a3H
  003a1	52		 push	 edx
  003a2	68 00 00 00 00	 push	 OFFSET ??_C@_0EK@CBOAJIMM@c?3?2users?2nhv90?2projects?2eech?2ap@
  003a7	a1 00 00 00 00	 mov	 eax, DWORD PTR ?null_entity_pointer_message@@3PBDB ; null_entity_pointer_message
  003ac	50		 push	 eax
  003ad	e8 00 00 00 00	 call	 ?process_assert@@YGXPBD0H@Z ; process_assert
  003b2	c7 45 ac 00 00
	00 00		 mov	 DWORD PTR tv244[ebp], 0
$LN30@set_local_:
  003b9	8b 0d 00 00 00
	00		 mov	 ecx, DWORD PTR ?__LINE__Var@?0??set_local_int_value@@YGXPAUENTITY@@W4INT_TYPES@@H@Z@4JA
  003bf	81 c1 a3 00 00
	00		 add	 ecx, 163		; 000000a3H
  003c5	51		 push	 ecx
  003c6	68 00 00 00 00	 push	 OFFSET ??_C@_0EK@CBOAJIMM@c?3?2users?2nhv90?2projects?2eech?2ap@
  003cb	6b 55 0c 14	 imul	 edx, DWORD PTR _type$[ebp], 20
  003cf	8b 82 00 00 00
	00		 mov	 eax, DWORD PTR ?int_type_database@@3PAUINT_TYPE_DATA@@A[edx]
  003d5	50		 push	 eax
  003d6	8b 4d 08	 mov	 ecx, DWORD PTR _en$[ebp]
  003d9	2b 0d 00 00 00
	00		 sub	 ecx, DWORD PTR ?entities@@3PAUENTITY@@A ; entities
  003df	c1 f9 04	 sar	 ecx, 4
  003e2	51		 push	 ecx
  003e3	6b 55 ac 0c	 imul	 edx, DWORD PTR tv244[ebp], 12
  003e7	8b 82 00 00 00
	00		 mov	 eax, DWORD PTR ?entity_type_database@@3PAUENTITY_TYPE_DATA@@A[edx]
  003ed	50		 push	 eax
  003ee	8b 0d 00 00 00
	00		 mov	 ecx, DWORD PTR ?debug_fatal_invalid_int_type_message@@3PBDB ; debug_fatal_invalid_int_type_message
  003f4	51		 push	 ecx
  003f5	e8 00 00 00 00	 call	 ?debug_fatal@@YAXPBDZZ	; debug_fatal
  003fa	83 c4 18	 add	 esp, 24			; 00000018H
$LN1@set_local_:

; 244  : 
; 245  : 			break;
; 246  : 		}
; 247  : 	}
; 248  : }

  003fd	5f		 pop	 edi
  003fe	5e		 pop	 esi
  003ff	5b		 pop	 ebx
  00400	8b e5		 mov	 esp, ebp
  00402	5d		 pop	 ebp
  00403	c2 0c 00	 ret	 12			; 0000000cH
  00406	66 90		 npad	 2
$LN32@set_local_:
  00408	00 00 00 00	 DD	 $LN4@set_local_
  0040c	00 00 00 00	 DD	 $LN5@set_local_
  00410	00 00 00 00	 DD	 $LN6@set_local_
  00414	00 00 00 00	 DD	 $LN7@set_local_
  00418	00 00 00 00	 DD	 $LN8@set_local_
  0041c	00 00 00 00	 DD	 $LN11@set_local_
  00420	00 00 00 00	 DD	 $LN12@set_local_
  00424	00 00 00 00	 DD	 $LN13@set_local_
  00428	00 00 00 00	 DD	 $LN14@set_local_
  0042c	00 00 00 00	 DD	 $LN16@set_local_
  00430	00 00 00 00	 DD	 $LN15@set_local_
  00434	00 00 00 00	 DD	 $LN17@set_local_
  00438	00 00 00 00	 DD	 $LN18@set_local_
  0043c	00 00 00 00	 DD	 $LN21@set_local_
  00440	00 00 00 00	 DD	 $LN22@set_local_
  00444	00 00 00 00	 DD	 $LN23@set_local_
$LN31@set_local_:
  00448	00		 DB	 0
  00449	0f		 DB	 15			; 0000000fH
  0044a	0f		 DB	 15			; 0000000fH
  0044b	0f		 DB	 15			; 0000000fH
  0044c	0f		 DB	 15			; 0000000fH
  0044d	0f		 DB	 15			; 0000000fH
  0044e	0f		 DB	 15			; 0000000fH
  0044f	0f		 DB	 15			; 0000000fH
  00450	0f		 DB	 15			; 0000000fH
  00451	0f		 DB	 15			; 0000000fH
  00452	0f		 DB	 15			; 0000000fH
  00453	0f		 DB	 15			; 0000000fH
  00454	0f		 DB	 15			; 0000000fH
  00455	0f		 DB	 15			; 0000000fH
  00456	0f		 DB	 15			; 0000000fH
  00457	0f		 DB	 15			; 0000000fH
  00458	0f		 DB	 15			; 0000000fH
  00459	0f		 DB	 15			; 0000000fH
  0045a	0f		 DB	 15			; 0000000fH
  0045b	0f		 DB	 15			; 0000000fH
  0045c	0f		 DB	 15			; 0000000fH
  0045d	0f		 DB	 15			; 0000000fH
  0045e	0f		 DB	 15			; 0000000fH
  0045f	0f		 DB	 15			; 0000000fH
  00460	0f		 DB	 15			; 0000000fH
  00461	0f		 DB	 15			; 0000000fH
  00462	0f		 DB	 15			; 0000000fH
  00463	0f		 DB	 15			; 0000000fH
  00464	0f		 DB	 15			; 0000000fH
  00465	0f		 DB	 15			; 0000000fH
  00466	0f		 DB	 15			; 0000000fH
  00467	0f		 DB	 15			; 0000000fH
  00468	0f		 DB	 15			; 0000000fH
  00469	0f		 DB	 15			; 0000000fH
  0046a	0f		 DB	 15			; 0000000fH
  0046b	0f		 DB	 15			; 0000000fH
  0046c	0f		 DB	 15			; 0000000fH
  0046d	0f		 DB	 15			; 0000000fH
  0046e	0f		 DB	 15			; 0000000fH
  0046f	0f		 DB	 15			; 0000000fH
  00470	0f		 DB	 15			; 0000000fH
  00471	0f		 DB	 15			; 0000000fH
  00472	0f		 DB	 15			; 0000000fH
  00473	0f		 DB	 15			; 0000000fH
  00474	01		 DB	 1
  00475	02		 DB	 2
  00476	0f		 DB	 15			; 0000000fH
  00477	0f		 DB	 15			; 0000000fH
  00478	0f		 DB	 15			; 0000000fH
  00479	0f		 DB	 15			; 0000000fH
  0047a	0f		 DB	 15			; 0000000fH
  0047b	0f		 DB	 15			; 0000000fH
  0047c	0f		 DB	 15			; 0000000fH
  0047d	0f		 DB	 15			; 0000000fH
  0047e	0f		 DB	 15			; 0000000fH
  0047f	0f		 DB	 15			; 0000000fH
  00480	0f		 DB	 15			; 0000000fH
  00481	0f		 DB	 15			; 0000000fH
  00482	0f		 DB	 15			; 0000000fH
  00483	0f		 DB	 15			; 0000000fH
  00484	0f		 DB	 15			; 0000000fH
  00485	03		 DB	 3
  00486	0f		 DB	 15			; 0000000fH
  00487	0f		 DB	 15			; 0000000fH
  00488	04		 DB	 4
  00489	0f		 DB	 15			; 0000000fH
  0048a	05		 DB	 5
  0048b	0f		 DB	 15			; 0000000fH
  0048c	0f		 DB	 15			; 0000000fH
  0048d	0f		 DB	 15			; 0000000fH
  0048e	0f		 DB	 15			; 0000000fH
  0048f	0f		 DB	 15			; 0000000fH
  00490	0f		 DB	 15			; 0000000fH
  00491	0f		 DB	 15			; 0000000fH
  00492	0f		 DB	 15			; 0000000fH
  00493	0f		 DB	 15			; 0000000fH
  00494	0f		 DB	 15			; 0000000fH
  00495	0f		 DB	 15			; 0000000fH
  00496	0f		 DB	 15			; 0000000fH
  00497	0f		 DB	 15			; 0000000fH
  00498	0f		 DB	 15			; 0000000fH
  00499	0f		 DB	 15			; 0000000fH
  0049a	0f		 DB	 15			; 0000000fH
  0049b	0f		 DB	 15			; 0000000fH
  0049c	0f		 DB	 15			; 0000000fH
  0049d	0f		 DB	 15			; 0000000fH
  0049e	0f		 DB	 15			; 0000000fH
  0049f	0f		 DB	 15			; 0000000fH
  004a0	0f		 DB	 15			; 0000000fH
  004a1	0f		 DB	 15			; 0000000fH
  004a2	0f		 DB	 15			; 0000000fH
  004a3	0f		 DB	 15			; 0000000fH
  004a4	0f		 DB	 15			; 0000000fH
  004a5	0f		 DB	 15			; 0000000fH
  004a6	0f		 DB	 15			; 0000000fH
  004a7	0f		 DB	 15			; 0000000fH
  004a8	0f		 DB	 15			; 0000000fH
  004a9	0f		 DB	 15			; 0000000fH
  004aa	0f		 DB	 15			; 0000000fH
  004ab	0f		 DB	 15			; 0000000fH
  004ac	0f		 DB	 15			; 0000000fH
  004ad	0f		 DB	 15			; 0000000fH
  004ae	0f		 DB	 15			; 0000000fH
  004af	0f		 DB	 15			; 0000000fH
  004b0	0f		 DB	 15			; 0000000fH
  004b1	0f		 DB	 15			; 0000000fH
  004b2	0f		 DB	 15			; 0000000fH
  004b3	06		 DB	 6
  004b4	0f		 DB	 15			; 0000000fH
  004b5	0f		 DB	 15			; 0000000fH
  004b6	0f		 DB	 15			; 0000000fH
  004b7	0f		 DB	 15			; 0000000fH
  004b8	0f		 DB	 15			; 0000000fH
  004b9	0f		 DB	 15			; 0000000fH
  004ba	0f		 DB	 15			; 0000000fH
  004bb	0f		 DB	 15			; 0000000fH
  004bc	0f		 DB	 15			; 0000000fH
  004bd	0f		 DB	 15			; 0000000fH
  004be	0f		 DB	 15			; 0000000fH
  004bf	0f		 DB	 15			; 0000000fH
  004c0	07		 DB	 7
  004c1	0f		 DB	 15			; 0000000fH
  004c2	0f		 DB	 15			; 0000000fH
  004c3	0f		 DB	 15			; 0000000fH
  004c4	0f		 DB	 15			; 0000000fH
  004c5	0f		 DB	 15			; 0000000fH
  004c6	0f		 DB	 15			; 0000000fH
  004c7	08		 DB	 8
  004c8	0f		 DB	 15			; 0000000fH
  004c9	0f		 DB	 15			; 0000000fH
  004ca	0f		 DB	 15			; 0000000fH
  004cb	09		 DB	 9
  004cc	0f		 DB	 15			; 0000000fH
  004cd	0f		 DB	 15			; 0000000fH
  004ce	0f		 DB	 15			; 0000000fH
  004cf	0f		 DB	 15			; 0000000fH
  004d0	0f		 DB	 15			; 0000000fH
  004d1	0f		 DB	 15			; 0000000fH
  004d2	0a		 DB	 10			; 0000000aH
  004d3	0f		 DB	 15			; 0000000fH
  004d4	0f		 DB	 15			; 0000000fH
  004d5	0f		 DB	 15			; 0000000fH
  004d6	0f		 DB	 15			; 0000000fH
  004d7	0f		 DB	 15			; 0000000fH
  004d8	0f		 DB	 15			; 0000000fH
  004d9	0f		 DB	 15			; 0000000fH
  004da	0f		 DB	 15			; 0000000fH
  004db	0f		 DB	 15			; 0000000fH
  004dc	0f		 DB	 15			; 0000000fH
  004dd	0f		 DB	 15			; 0000000fH
  004de	0f		 DB	 15			; 0000000fH
  004df	0f		 DB	 15			; 0000000fH
  004e0	0f		 DB	 15			; 0000000fH
  004e1	0f		 DB	 15			; 0000000fH
  004e2	0f		 DB	 15			; 0000000fH
  004e3	0f		 DB	 15			; 0000000fH
  004e4	0f		 DB	 15			; 0000000fH
  004e5	0f		 DB	 15			; 0000000fH
  004e6	0f		 DB	 15			; 0000000fH
  004e7	0f		 DB	 15			; 0000000fH
  004e8	0f		 DB	 15			; 0000000fH
  004e9	0f		 DB	 15			; 0000000fH
  004ea	0f		 DB	 15			; 0000000fH
  004eb	0f		 DB	 15			; 0000000fH
  004ec	0f		 DB	 15			; 0000000fH
  004ed	0f		 DB	 15			; 0000000fH
  004ee	0f		 DB	 15			; 0000000fH
  004ef	0f		 DB	 15			; 0000000fH
  004f0	0f		 DB	 15			; 0000000fH
  004f1	0f		 DB	 15			; 0000000fH
  004f2	0f		 DB	 15			; 0000000fH
  004f3	0f		 DB	 15			; 0000000fH
  004f4	0f		 DB	 15			; 0000000fH
  004f5	0b		 DB	 11			; 0000000bH
  004f6	0f		 DB	 15			; 0000000fH
  004f7	0f		 DB	 15			; 0000000fH
  004f8	0f		 DB	 15			; 0000000fH
  004f9	0f		 DB	 15			; 0000000fH
  004fa	0f		 DB	 15			; 0000000fH
  004fb	0f		 DB	 15			; 0000000fH
  004fc	0c		 DB	 12			; 0000000cH
  004fd	0f		 DB	 15			; 0000000fH
  004fe	0f		 DB	 15			; 0000000fH
  004ff	0f		 DB	 15			; 0000000fH
  00500	0f		 DB	 15			; 0000000fH
  00501	0f		 DB	 15			; 0000000fH
  00502	0f		 DB	 15			; 0000000fH
  00503	0f		 DB	 15			; 0000000fH
  00504	0f		 DB	 15			; 0000000fH
  00505	0f		 DB	 15			; 0000000fH
  00506	0f		 DB	 15			; 0000000fH
  00507	0f		 DB	 15			; 0000000fH
  00508	0f		 DB	 15			; 0000000fH
  00509	0f		 DB	 15			; 0000000fH
  0050a	0f		 DB	 15			; 0000000fH
  0050b	0f		 DB	 15			; 0000000fH
  0050c	0f		 DB	 15			; 0000000fH
  0050d	0f		 DB	 15			; 0000000fH
  0050e	0f		 DB	 15			; 0000000fH
  0050f	0f		 DB	 15			; 0000000fH
  00510	0f		 DB	 15			; 0000000fH
  00511	0f		 DB	 15			; 0000000fH
  00512	0f		 DB	 15			; 0000000fH
  00513	0f		 DB	 15			; 0000000fH
  00514	0f		 DB	 15			; 0000000fH
  00515	0f		 DB	 15			; 0000000fH
  00516	0f		 DB	 15			; 0000000fH
  00517	0f		 DB	 15			; 0000000fH
  00518	0f		 DB	 15			; 0000000fH
  00519	0f		 DB	 15			; 0000000fH
  0051a	0f		 DB	 15			; 0000000fH
  0051b	0f		 DB	 15			; 0000000fH
  0051c	0f		 DB	 15			; 0000000fH
  0051d	0f		 DB	 15			; 0000000fH
  0051e	0f		 DB	 15			; 0000000fH
  0051f	0f		 DB	 15			; 0000000fH
  00520	0f		 DB	 15			; 0000000fH
  00521	0f		 DB	 15			; 0000000fH
  00522	0f		 DB	 15			; 0000000fH
  00523	0f		 DB	 15			; 0000000fH
  00524	0f		 DB	 15			; 0000000fH
  00525	0f		 DB	 15			; 0000000fH
  00526	0f		 DB	 15			; 0000000fH
  00527	0f		 DB	 15			; 0000000fH
  00528	0f		 DB	 15			; 0000000fH
  00529	0f		 DB	 15			; 0000000fH
  0052a	0f		 DB	 15			; 0000000fH
  0052b	0f		 DB	 15			; 0000000fH
  0052c	0f		 DB	 15			; 0000000fH
  0052d	0f		 DB	 15			; 0000000fH
  0052e	0d		 DB	 13			; 0000000dH
  0052f	0f		 DB	 15			; 0000000fH
  00530	0f		 DB	 15			; 0000000fH
  00531	0f		 DB	 15			; 0000000fH
  00532	0f		 DB	 15			; 0000000fH
  00533	0f		 DB	 15			; 0000000fH
  00534	0f		 DB	 15			; 0000000fH
  00535	0e		 DB	 14			; 0000000eH
?set_local_int_value@@YGXPAUENTITY@@W4INT_TYPES@@H@Z ENDP ; set_local_int_value
_TEXT	ENDS
; Function compile flags: /Odtp /ZI
; File c:\users\nhv90\projects\eech\aphavoc\source\entity\special\group\gp_int.c
;	COMDAT ?overload_group_int_value_functions@@YGXXZ
_TEXT	SEGMENT
?overload_group_int_value_functions@@YGXXZ PROC		; overload_group_int_value_functions, COMDAT

; 606  : {

  00000	55		 push	 ebp
  00001	8b ec		 mov	 ebp, esp
  00003	83 ec 40	 sub	 esp, 64			; 00000040H
  00006	53		 push	 ebx
  00007	56		 push	 esi
  00008	57		 push	 edi

; 607  : 	fn_get_local_entity_int_value				[ENTITY_TYPE_GROUP][INT_TYPE_AIR_ATTACK_STRENGTH]			= get_local_int_value;

  00009	b8 5c 04 00 00	 mov	 eax, 1116		; 0000045cH
  0000e	6b c8 0c	 imul	 ecx, eax, 12
  00011	ba 04 00 00 00	 mov	 edx, 4
  00016	c1 e2 00	 shl	 edx, 0
  00019	c7 84 11 00 00
	00 00 00 00 00
	00		 mov	 DWORD PTR ?fn_get_local_entity_int_value@@3PAY0BBH@P6GHPAUENTITY@@W4INT_TYPES@@@ZA[ecx+edx], OFFSET ?get_local_int_value@@YGHPAUENTITY@@W4INT_TYPES@@@Z ; get_local_int_value

; 608  : 
; 609  : 	fn_get_local_entity_int_value				[ENTITY_TYPE_GROUP][INT_TYPE_AIRCRAFT_GROUP]					= get_local_int_value;

  00024	b8 5c 04 00 00	 mov	 eax, 1116		; 0000045cH
  00029	6b c8 0c	 imul	 ecx, eax, 12
  0002c	ba 04 00 00 00	 mov	 edx, 4
  00031	6b c2 05	 imul	 eax, edx, 5
  00034	c7 84 01 00 00
	00 00 00 00 00
	00		 mov	 DWORD PTR ?fn_get_local_entity_int_value@@3PAY0BBH@P6GHPAUENTITY@@W4INT_TYPES@@@ZA[ecx+eax], OFFSET ?get_local_int_value@@YGHPAUENTITY@@W4INT_TYPES@@@Z ; get_local_int_value

; 610  : 
; 611  : 	fn_set_local_entity_raw_int_value		[ENTITY_TYPE_GROUP][INT_TYPE_ALIVE]								= set_local_int_value;

  0003f	b8 5c 04 00 00	 mov	 eax, 1116		; 0000045cH
  00044	6b c8 0c	 imul	 ecx, eax, 12
  00047	ba 04 00 00 00	 mov	 edx, 4
  0004c	6b c2 07	 imul	 eax, edx, 7
  0004f	c7 84 01 00 00
	00 00 00 00 00
	00		 mov	 DWORD PTR ?fn_set_local_entity_raw_int_value@@3PAY0BBH@P6GXPAUENTITY@@W4INT_TYPES@@H@ZA[ecx+eax], OFFSET ?set_local_int_value@@YGXPAUENTITY@@W4INT_TYPES@@H@Z ; set_local_int_value

; 612  : 	fn_set_local_entity_int_value				[ENTITY_TYPE_GROUP][INT_TYPE_ALIVE]								= set_local_int_value;

  0005a	b8 5c 04 00 00	 mov	 eax, 1116		; 0000045cH
  0005f	6b c8 0c	 imul	 ecx, eax, 12
  00062	ba 04 00 00 00	 mov	 edx, 4
  00067	6b c2 07	 imul	 eax, edx, 7
  0006a	c7 84 01 00 00
	00 00 00 00 00
	00		 mov	 DWORD PTR ?fn_set_local_entity_int_value@@3PAY0BBH@P6GXPAUENTITY@@W4INT_TYPES@@H@ZA[ecx+eax], OFFSET ?set_local_int_value@@YGXPAUENTITY@@W4INT_TYPES@@H@Z ; set_local_int_value

; 613  : 	fn_set_client_server_entity_int_value	[ENTITY_TYPE_GROUP][INT_TYPE_ALIVE][COMMS_MODEL_SERVER]	= set_server_int_value;

  00075	b8 b8 08 00 00	 mov	 eax, 2232		; 000008b8H
  0007a	6b c8 0c	 imul	 ecx, eax, 12
  0007d	ba 08 00 00 00	 mov	 edx, 8
  00082	6b c2 07	 imul	 eax, edx, 7
  00085	8d 8c 01 00 00
	00 00		 lea	 ecx, DWORD PTR ?fn_set_client_server_entity_int_value@@3PAY1BBH@1P6GXPAUENTITY@@W4INT_TYPES@@H@ZA[ecx+eax]
  0008c	ba 04 00 00 00	 mov	 edx, 4
  00091	6b c2 00	 imul	 eax, edx, 0
  00094	c7 04 01 00 00
	00 00		 mov	 DWORD PTR [ecx+eax], OFFSET ?set_server_int_value@@YGXPAUENTITY@@W4INT_TYPES@@H@Z ; set_server_int_value

; 614  : 	fn_set_client_server_entity_int_value	[ENTITY_TYPE_GROUP][INT_TYPE_ALIVE][COMMS_MODEL_CLIENT]	= set_client_int_value;

  0009b	b8 b8 08 00 00	 mov	 eax, 2232		; 000008b8H
  000a0	6b c8 0c	 imul	 ecx, eax, 12
  000a3	ba 08 00 00 00	 mov	 edx, 8
  000a8	6b c2 07	 imul	 eax, edx, 7
  000ab	8d 8c 01 00 00
	00 00		 lea	 ecx, DWORD PTR ?fn_set_client_server_entity_int_value@@3PAY1BBH@1P6GXPAUENTITY@@W4INT_TYPES@@H@ZA[ecx+eax]
  000b2	ba 04 00 00 00	 mov	 edx, 4
  000b7	c1 e2 00	 shl	 edx, 0
  000ba	c7 04 11 00 00
	00 00		 mov	 DWORD PTR [ecx+edx], OFFSET ?set_client_int_value@@YGXPAUENTITY@@W4INT_TYPES@@H@Z ; set_client_int_value

; 615  : 	fn_get_local_entity_int_value				[ENTITY_TYPE_GROUP][INT_TYPE_ALIVE]								= get_local_int_value;

  000c1	b8 5c 04 00 00	 mov	 eax, 1116		; 0000045cH
  000c6	6b c8 0c	 imul	 ecx, eax, 12
  000c9	ba 04 00 00 00	 mov	 edx, 4
  000ce	6b c2 07	 imul	 eax, edx, 7
  000d1	c7 84 01 00 00
	00 00 00 00 00
	00		 mov	 DWORD PTR ?fn_get_local_entity_int_value@@3PAY0BBH@P6GHPAUENTITY@@W4INT_TYPES@@@ZA[ecx+eax], OFFSET ?get_local_int_value@@YGHPAUENTITY@@W4INT_TYPES@@@Z ; get_local_int_value

; 616  : 
; 617  : 	fn_get_local_entity_int_value				[ENTITY_TYPE_GROUP][INT_TYPE_DEFAULT_ENGAGE_ENEMY]						= get_local_int_value;

  000dc	b8 5c 04 00 00	 mov	 eax, 1116		; 0000045cH
  000e1	6b c8 0c	 imul	 ecx, eax, 12
  000e4	ba 04 00 00 00	 mov	 edx, 4
  000e9	6b c2 2a	 imul	 eax, edx, 42
  000ec	c7 84 01 00 00
	00 00 00 00 00
	00		 mov	 DWORD PTR ?fn_get_local_entity_int_value@@3PAY0BBH@P6GHPAUENTITY@@W4INT_TYPES@@@ZA[ecx+eax], OFFSET ?get_local_int_value@@YGHPAUENTITY@@W4INT_TYPES@@@Z ; get_local_int_value

; 618  : 
; 619  : 	fn_get_local_entity_int_value				[ENTITY_TYPE_GROUP][INT_TYPE_DEFAULT_GROUP_LIST_TYPE]					= get_local_int_value;

  000f7	b8 5c 04 00 00	 mov	 eax, 1116		; 0000045cH
  000fc	6b c8 0c	 imul	 ecx, eax, 12
  000ff	ba 04 00 00 00	 mov	 edx, 4
  00104	6b c2 2b	 imul	 eax, edx, 43
  00107	c7 84 01 00 00
	00 00 00 00 00
	00		 mov	 DWORD PTR ?fn_get_local_entity_int_value@@3PAY0BBH@P6GHPAUENTITY@@W4INT_TYPES@@@ZA[ecx+eax], OFFSET ?get_local_int_value@@YGHPAUENTITY@@W4INT_TYPES@@@Z ; get_local_int_value

; 620  : 
; 621  : 	fn_get_local_entity_int_value				[ENTITY_TYPE_GROUP][INT_TYPE_DIVISION_ID]									= get_local_int_value;

  00112	b8 5c 04 00 00	 mov	 eax, 1116		; 0000045cH
  00117	6b c8 0c	 imul	 ecx, eax, 12
  0011a	ba 04 00 00 00	 mov	 edx, 4
  0011f	6b c2 30	 imul	 eax, edx, 48
  00122	c7 84 01 00 00
	00 00 00 00 00
	00		 mov	 DWORD PTR ?fn_get_local_entity_int_value@@3PAY0BBH@P6GHPAUENTITY@@W4INT_TYPES@@@ZA[ecx+eax], OFFSET ?get_local_int_value@@YGHPAUENTITY@@W4INT_TYPES@@@Z ; get_local_int_value

; 622  : 
; 623  : 	fn_set_local_entity_raw_int_value		[ENTITY_TYPE_GROUP][INT_TYPE_ENGAGE_ENEMY]								= set_local_int_value;

  0012d	b8 5c 04 00 00	 mov	 eax, 1116		; 0000045cH
  00132	6b c8 0c	 imul	 ecx, eax, 12
  00135	ba 04 00 00 00	 mov	 edx, 4
  0013a	6b c2 33	 imul	 eax, edx, 51
  0013d	c7 84 01 00 00
	00 00 00 00 00
	00		 mov	 DWORD PTR ?fn_set_local_entity_raw_int_value@@3PAY0BBH@P6GXPAUENTITY@@W4INT_TYPES@@H@ZA[ecx+eax], OFFSET ?set_local_int_value@@YGXPAUENTITY@@W4INT_TYPES@@H@Z ; set_local_int_value

; 624  : 	fn_set_local_entity_int_value				[ENTITY_TYPE_GROUP][INT_TYPE_ENGAGE_ENEMY]								= set_local_int_value;

  00148	b8 5c 04 00 00	 mov	 eax, 1116		; 0000045cH
  0014d	6b c8 0c	 imul	 ecx, eax, 12
  00150	ba 04 00 00 00	 mov	 edx, 4
  00155	6b c2 33	 imul	 eax, edx, 51
  00158	c7 84 01 00 00
	00 00 00 00 00
	00		 mov	 DWORD PTR ?fn_set_local_entity_int_value@@3PAY0BBH@P6GXPAUENTITY@@W4INT_TYPES@@H@ZA[ecx+eax], OFFSET ?set_local_int_value@@YGXPAUENTITY@@W4INT_TYPES@@H@Z ; set_local_int_value

; 625  : 	fn_set_client_server_entity_int_value	[ENTITY_TYPE_GROUP][INT_TYPE_ENGAGE_ENEMY][COMMS_MODEL_SERVER]		= set_server_int_value;

  00163	b8 b8 08 00 00	 mov	 eax, 2232		; 000008b8H
  00168	6b c8 0c	 imul	 ecx, eax, 12
  0016b	ba 08 00 00 00	 mov	 edx, 8
  00170	6b c2 33	 imul	 eax, edx, 51
  00173	8d 8c 01 00 00
	00 00		 lea	 ecx, DWORD PTR ?fn_set_client_server_entity_int_value@@3PAY1BBH@1P6GXPAUENTITY@@W4INT_TYPES@@H@ZA[ecx+eax]
  0017a	ba 04 00 00 00	 mov	 edx, 4
  0017f	6b c2 00	 imul	 eax, edx, 0
  00182	c7 04 01 00 00
	00 00		 mov	 DWORD PTR [ecx+eax], OFFSET ?set_server_int_value@@YGXPAUENTITY@@W4INT_TYPES@@H@Z ; set_server_int_value

; 626  : 	fn_set_client_server_entity_int_value	[ENTITY_TYPE_GROUP][INT_TYPE_ENGAGE_ENEMY][COMMS_MODEL_CLIENT]		= set_client_int_value;

  00189	b8 b8 08 00 00	 mov	 eax, 2232		; 000008b8H
  0018e	6b c8 0c	 imul	 ecx, eax, 12
  00191	ba 08 00 00 00	 mov	 edx, 8
  00196	6b c2 33	 imul	 eax, edx, 51
  00199	8d 8c 01 00 00
	00 00		 lea	 ecx, DWORD PTR ?fn_set_client_server_entity_int_value@@3PAY1BBH@1P6GXPAUENTITY@@W4INT_TYPES@@H@ZA[ecx+eax]
  001a0	ba 04 00 00 00	 mov	 edx, 4
  001a5	c1 e2 00	 shl	 edx, 0
  001a8	c7 04 11 00 00
	00 00		 mov	 DWORD PTR [ecx+edx], OFFSET ?set_client_int_value@@YGXPAUENTITY@@W4INT_TYPES@@H@Z ; set_client_int_value

; 627  : 	fn_get_local_entity_int_value				[ENTITY_TYPE_GROUP][INT_TYPE_ENGAGE_ENEMY]								= get_local_int_value;

  001af	b8 5c 04 00 00	 mov	 eax, 1116		; 0000045cH
  001b4	6b c8 0c	 imul	 ecx, eax, 12
  001b7	ba 04 00 00 00	 mov	 edx, 4
  001bc	6b c2 33	 imul	 eax, edx, 51
  001bf	c7 84 01 00 00
	00 00 00 00 00
	00		 mov	 DWORD PTR ?fn_get_local_entity_int_value@@3PAY0BBH@P6GHPAUENTITY@@W4INT_TYPES@@@ZA[ecx+eax], OFFSET ?get_local_int_value@@YGHPAUENTITY@@W4INT_TYPES@@@Z ; get_local_int_value

; 628  : 	
; 629  : 	fn_set_local_entity_raw_int_value		[ENTITY_TYPE_GROUP][INT_TYPE_ENTITY_SUB_TYPE]							= set_local_int_value;

  001ca	b8 5c 04 00 00	 mov	 eax, 1116		; 0000045cH
  001cf	6b c8 0c	 imul	 ecx, eax, 12
  001d2	ba 04 00 00 00	 mov	 edx, 4
  001d7	6b c2 34	 imul	 eax, edx, 52
  001da	c7 84 01 00 00
	00 00 00 00 00
	00		 mov	 DWORD PTR ?fn_set_local_entity_raw_int_value@@3PAY0BBH@P6GXPAUENTITY@@W4INT_TYPES@@H@ZA[ecx+eax], OFFSET ?set_local_int_value@@YGXPAUENTITY@@W4INT_TYPES@@H@Z ; set_local_int_value

; 630  : 	fn_set_local_entity_int_value				[ENTITY_TYPE_GROUP][INT_TYPE_ENTITY_SUB_TYPE]							= set_local_int_value;

  001e5	b8 5c 04 00 00	 mov	 eax, 1116		; 0000045cH
  001ea	6b c8 0c	 imul	 ecx, eax, 12
  001ed	ba 04 00 00 00	 mov	 edx, 4
  001f2	6b c2 34	 imul	 eax, edx, 52
  001f5	c7 84 01 00 00
	00 00 00 00 00
	00		 mov	 DWORD PTR ?fn_set_local_entity_int_value@@3PAY0BBH@P6GXPAUENTITY@@W4INT_TYPES@@H@ZA[ecx+eax], OFFSET ?set_local_int_value@@YGXPAUENTITY@@W4INT_TYPES@@H@Z ; set_local_int_value

; 631  : 	fn_set_client_server_entity_int_value	[ENTITY_TYPE_GROUP][INT_TYPE_ENTITY_SUB_TYPE][COMMS_MODEL_SERVER]	= set_server_int_value;

  00200	b8 b8 08 00 00	 mov	 eax, 2232		; 000008b8H
  00205	6b c8 0c	 imul	 ecx, eax, 12
  00208	ba 08 00 00 00	 mov	 edx, 8
  0020d	6b c2 34	 imul	 eax, edx, 52
  00210	8d 8c 01 00 00
	00 00		 lea	 ecx, DWORD PTR ?fn_set_client_server_entity_int_value@@3PAY1BBH@1P6GXPAUENTITY@@W4INT_TYPES@@H@ZA[ecx+eax]
  00217	ba 04 00 00 00	 mov	 edx, 4
  0021c	6b c2 00	 imul	 eax, edx, 0
  0021f	c7 04 01 00 00
	00 00		 mov	 DWORD PTR [ecx+eax], OFFSET ?set_server_int_value@@YGXPAUENTITY@@W4INT_TYPES@@H@Z ; set_server_int_value

; 632  : 	fn_set_client_server_entity_int_value	[ENTITY_TYPE_GROUP][INT_TYPE_ENTITY_SUB_TYPE][COMMS_MODEL_CLIENT]	= set_client_int_value;

  00226	b8 b8 08 00 00	 mov	 eax, 2232		; 000008b8H
  0022b	6b c8 0c	 imul	 ecx, eax, 12
  0022e	ba 08 00 00 00	 mov	 edx, 8
  00233	6b c2 34	 imul	 eax, edx, 52
  00236	8d 8c 01 00 00
	00 00		 lea	 ecx, DWORD PTR ?fn_set_client_server_entity_int_value@@3PAY1BBH@1P6GXPAUENTITY@@W4INT_TYPES@@H@ZA[ecx+eax]
  0023d	ba 04 00 00 00	 mov	 edx, 4
  00242	c1 e2 00	 shl	 edx, 0
  00245	c7 04 11 00 00
	00 00		 mov	 DWORD PTR [ecx+edx], OFFSET ?set_client_int_value@@YGXPAUENTITY@@W4INT_TYPES@@H@Z ; set_client_int_value

; 633  : 	fn_get_local_entity_int_value				[ENTITY_TYPE_GROUP][INT_TYPE_ENTITY_SUB_TYPE]							= get_local_int_value;

  0024c	b8 5c 04 00 00	 mov	 eax, 1116		; 0000045cH
  00251	6b c8 0c	 imul	 ecx, eax, 12
  00254	ba 04 00 00 00	 mov	 edx, 4
  00259	6b c2 34	 imul	 eax, edx, 52
  0025c	c7 84 01 00 00
	00 00 00 00 00
	00		 mov	 DWORD PTR ?fn_get_local_entity_int_value@@3PAY0BBH@P6GHPAUENTITY@@W4INT_TYPES@@@ZA[ecx+eax], OFFSET ?get_local_int_value@@YGHPAUENTITY@@W4INT_TYPES@@@Z ; get_local_int_value

; 634  : 
; 635  : 	fn_get_local_entity_int_value				[ENTITY_TYPE_GROUP][INT_TYPE_FRONTLINE]									= get_local_int_value;

  00267	b8 5c 04 00 00	 mov	 eax, 1116		; 0000045cH
  0026c	6b c8 0c	 imul	 ecx, eax, 12
  0026f	ba 04 00 00 00	 mov	 edx, 4
  00274	6b c2 41	 imul	 eax, edx, 65
  00277	c7 84 01 00 00
	00 00 00 00 00
	00		 mov	 DWORD PTR ?fn_get_local_entity_int_value@@3PAY0BBH@P6GHPAUENTITY@@W4INT_TYPES@@@ZA[ecx+eax], OFFSET ?get_local_int_value@@YGHPAUENTITY@@W4INT_TYPES@@@Z ; get_local_int_value

; 636  : 
; 637  : 	fn_get_local_entity_int_value				[ENTITY_TYPE_GROUP][INT_TYPE_GROUP_AMALGAMATE]								= get_local_int_value;

  00282	b8 5c 04 00 00	 mov	 eax, 1116		; 0000045cH
  00287	6b c8 0c	 imul	 ecx, eax, 12
  0028a	ba 04 00 00 00	 mov	 edx, 4
  0028f	6b c2 43	 imul	 eax, edx, 67
  00292	c7 84 01 00 00
	00 00 00 00 00
	00		 mov	 DWORD PTR ?fn_get_local_entity_int_value@@3PAY0BBH@P6GHPAUENTITY@@W4INT_TYPES@@@ZA[ecx+eax], OFFSET ?get_local_int_value@@YGHPAUENTITY@@W4INT_TYPES@@@Z ; get_local_int_value

; 638  : 
; 639  : 	fn_set_local_entity_raw_int_value		[ENTITY_TYPE_GROUP][INT_TYPE_GROUP_CALLSIGN]									= set_local_int_value;

  0029d	b8 5c 04 00 00	 mov	 eax, 1116		; 0000045cH
  002a2	6b c8 0c	 imul	 ecx, eax, 12
  002a5	ba 04 00 00 00	 mov	 edx, 4
  002aa	6b c2 44	 imul	 eax, edx, 68
  002ad	c7 84 01 00 00
	00 00 00 00 00
	00		 mov	 DWORD PTR ?fn_set_local_entity_raw_int_value@@3PAY0BBH@P6GXPAUENTITY@@W4INT_TYPES@@H@ZA[ecx+eax], OFFSET ?set_local_int_value@@YGXPAUENTITY@@W4INT_TYPES@@H@Z ; set_local_int_value

; 640  : 	fn_set_local_entity_int_value				[ENTITY_TYPE_GROUP][INT_TYPE_GROUP_CALLSIGN]									= set_local_int_value;

  002b8	b8 5c 04 00 00	 mov	 eax, 1116		; 0000045cH
  002bd	6b c8 0c	 imul	 ecx, eax, 12
  002c0	ba 04 00 00 00	 mov	 edx, 4
  002c5	6b c2 44	 imul	 eax, edx, 68
  002c8	c7 84 01 00 00
	00 00 00 00 00
	00		 mov	 DWORD PTR ?fn_set_local_entity_int_value@@3PAY0BBH@P6GXPAUENTITY@@W4INT_TYPES@@H@ZA[ecx+eax], OFFSET ?set_local_int_value@@YGXPAUENTITY@@W4INT_TYPES@@H@Z ; set_local_int_value

; 641  : 	fn_set_client_server_entity_int_value	[ENTITY_TYPE_GROUP][INT_TYPE_GROUP_CALLSIGN][COMMS_MODEL_SERVER]		= set_server_int_value;

  002d3	b8 b8 08 00 00	 mov	 eax, 2232		; 000008b8H
  002d8	6b c8 0c	 imul	 ecx, eax, 12
  002db	ba 08 00 00 00	 mov	 edx, 8
  002e0	6b c2 44	 imul	 eax, edx, 68
  002e3	8d 8c 01 00 00
	00 00		 lea	 ecx, DWORD PTR ?fn_set_client_server_entity_int_value@@3PAY1BBH@1P6GXPAUENTITY@@W4INT_TYPES@@H@ZA[ecx+eax]
  002ea	ba 04 00 00 00	 mov	 edx, 4
  002ef	6b c2 00	 imul	 eax, edx, 0
  002f2	c7 04 01 00 00
	00 00		 mov	 DWORD PTR [ecx+eax], OFFSET ?set_server_int_value@@YGXPAUENTITY@@W4INT_TYPES@@H@Z ; set_server_int_value

; 642  : 	fn_set_client_server_entity_int_value	[ENTITY_TYPE_GROUP][INT_TYPE_GROUP_CALLSIGN][COMMS_MODEL_CLIENT]		= set_client_int_value;

  002f9	b8 b8 08 00 00	 mov	 eax, 2232		; 000008b8H
  002fe	6b c8 0c	 imul	 ecx, eax, 12
  00301	ba 08 00 00 00	 mov	 edx, 8
  00306	6b c2 44	 imul	 eax, edx, 68
  00309	8d 8c 01 00 00
	00 00		 lea	 ecx, DWORD PTR ?fn_set_client_server_entity_int_value@@3PAY1BBH@1P6GXPAUENTITY@@W4INT_TYPES@@H@ZA[ecx+eax]
  00310	ba 04 00 00 00	 mov	 edx, 4
  00315	c1 e2 00	 shl	 edx, 0
  00318	c7 04 11 00 00
	00 00		 mov	 DWORD PTR [ecx+edx], OFFSET ?set_client_int_value@@YGXPAUENTITY@@W4INT_TYPES@@H@Z ; set_client_int_value

; 643  : 	fn_get_local_entity_int_value				[ENTITY_TYPE_GROUP][INT_TYPE_GROUP_CALLSIGN]									= get_local_int_value;

  0031f	b8 5c 04 00 00	 mov	 eax, 1116		; 0000045cH
  00324	6b c8 0c	 imul	 ecx, eax, 12
  00327	ba 04 00 00 00	 mov	 edx, 4
  0032c	6b c2 44	 imul	 eax, edx, 68
  0032f	c7 84 01 00 00
	00 00 00 00 00
	00		 mov	 DWORD PTR ?fn_get_local_entity_int_value@@3PAY0BBH@P6GHPAUENTITY@@W4INT_TYPES@@@ZA[ecx+eax], OFFSET ?get_local_int_value@@YGHPAUENTITY@@W4INT_TYPES@@@Z ; get_local_int_value

; 644  : 
; 645  : 	fn_get_local_entity_int_value				[ENTITY_TYPE_GROUP][INT_TYPE_GROUP_CATEGORY]									= get_local_int_value;

  0033a	b8 5c 04 00 00	 mov	 eax, 1116		; 0000045cH
  0033f	6b c8 0c	 imul	 ecx, eax, 12
  00342	ba 04 00 00 00	 mov	 edx, 4
  00347	6b c2 45	 imul	 eax, edx, 69
  0034a	c7 84 01 00 00
	00 00 00 00 00
	00		 mov	 DWORD PTR ?fn_get_local_entity_int_value@@3PAY0BBH@P6GHPAUENTITY@@W4INT_TYPES@@@ZA[ecx+eax], OFFSET ?get_local_int_value@@YGHPAUENTITY@@W4INT_TYPES@@@Z ; get_local_int_value

; 646  : 
; 647  : 	fn_get_local_entity_int_value				[ENTITY_TYPE_GROUP][INT_TYPE_GROUP_DEFAULT_FORMATION]						= get_local_int_value;

  00355	b8 5c 04 00 00	 mov	 eax, 1116		; 0000045cH
  0035a	6b c8 0c	 imul	 ecx, eax, 12
  0035d	ba 04 00 00 00	 mov	 edx, 4
  00362	6b c2 46	 imul	 eax, edx, 70
  00365	c7 84 01 00 00
	00 00 00 00 00
	00		 mov	 DWORD PTR ?fn_get_local_entity_int_value@@3PAY0BBH@P6GHPAUENTITY@@W4INT_TYPES@@@ZA[ecx+eax], OFFSET ?get_local_int_value@@YGHPAUENTITY@@W4INT_TYPES@@@Z ; get_local_int_value

; 648  : 
; 649  : 	fn_set_local_entity_raw_int_value		[ENTITY_TYPE_GROUP][INT_TYPE_GROUP_FORMATION]								= set_local_int_value;

  00370	b8 5c 04 00 00	 mov	 eax, 1116		; 0000045cH
  00375	6b c8 0c	 imul	 ecx, eax, 12
  00378	ba 04 00 00 00	 mov	 edx, 4
  0037d	6b c2 47	 imul	 eax, edx, 71
  00380	c7 84 01 00 00
	00 00 00 00 00
	00		 mov	 DWORD PTR ?fn_set_local_entity_raw_int_value@@3PAY0BBH@P6GXPAUENTITY@@W4INT_TYPES@@H@ZA[ecx+eax], OFFSET ?set_local_int_value@@YGXPAUENTITY@@W4INT_TYPES@@H@Z ; set_local_int_value

; 650  : 	fn_set_local_entity_int_value				[ENTITY_TYPE_GROUP][INT_TYPE_GROUP_FORMATION]								= set_local_int_value;

  0038b	b8 5c 04 00 00	 mov	 eax, 1116		; 0000045cH
  00390	6b c8 0c	 imul	 ecx, eax, 12
  00393	ba 04 00 00 00	 mov	 edx, 4
  00398	6b c2 47	 imul	 eax, edx, 71
  0039b	c7 84 01 00 00
	00 00 00 00 00
	00		 mov	 DWORD PTR ?fn_set_local_entity_int_value@@3PAY0BBH@P6GXPAUENTITY@@W4INT_TYPES@@H@ZA[ecx+eax], OFFSET ?set_local_int_value@@YGXPAUENTITY@@W4INT_TYPES@@H@Z ; set_local_int_value

; 651  : 	fn_set_client_server_entity_int_value	[ENTITY_TYPE_GROUP][INT_TYPE_GROUP_FORMATION][COMMS_MODEL_SERVER]		= set_server_int_value;

  003a6	b8 b8 08 00 00	 mov	 eax, 2232		; 000008b8H
  003ab	6b c8 0c	 imul	 ecx, eax, 12
  003ae	ba 08 00 00 00	 mov	 edx, 8
  003b3	6b c2 47	 imul	 eax, edx, 71
  003b6	8d 8c 01 00 00
	00 00		 lea	 ecx, DWORD PTR ?fn_set_client_server_entity_int_value@@3PAY1BBH@1P6GXPAUENTITY@@W4INT_TYPES@@H@ZA[ecx+eax]
  003bd	ba 04 00 00 00	 mov	 edx, 4
  003c2	6b c2 00	 imul	 eax, edx, 0
  003c5	c7 04 01 00 00
	00 00		 mov	 DWORD PTR [ecx+eax], OFFSET ?set_server_int_value@@YGXPAUENTITY@@W4INT_TYPES@@H@Z ; set_server_int_value

; 652  : 	fn_set_client_server_entity_int_value	[ENTITY_TYPE_GROUP][INT_TYPE_GROUP_FORMATION][COMMS_MODEL_CLIENT]		= set_client_int_value;

  003cc	b8 b8 08 00 00	 mov	 eax, 2232		; 000008b8H
  003d1	6b c8 0c	 imul	 ecx, eax, 12
  003d4	ba 08 00 00 00	 mov	 edx, 8
  003d9	6b c2 47	 imul	 eax, edx, 71
  003dc	8d 8c 01 00 00
	00 00		 lea	 ecx, DWORD PTR ?fn_set_client_server_entity_int_value@@3PAY1BBH@1P6GXPAUENTITY@@W4INT_TYPES@@H@ZA[ecx+eax]
  003e3	ba 04 00 00 00	 mov	 edx, 4
  003e8	c1 e2 00	 shl	 edx, 0
  003eb	c7 04 11 00 00
	00 00		 mov	 DWORD PTR [ecx+edx], OFFSET ?set_client_int_value@@YGXPAUENTITY@@W4INT_TYPES@@H@Z ; set_client_int_value

; 653  : 	fn_get_local_entity_int_value				[ENTITY_TYPE_GROUP][INT_TYPE_GROUP_FORMATION]								= get_local_int_value;

  003f2	b8 5c 04 00 00	 mov	 eax, 1116		; 0000045cH
  003f7	6b c8 0c	 imul	 ecx, eax, 12
  003fa	ba 04 00 00 00	 mov	 edx, 4
  003ff	6b c2 47	 imul	 eax, edx, 71
  00402	c7 84 01 00 00
	00 00 00 00 00
	00		 mov	 DWORD PTR ?fn_get_local_entity_int_value@@3PAY0BBH@P6GHPAUENTITY@@W4INT_TYPES@@@ZA[ecx+eax], OFFSET ?get_local_int_value@@YGHPAUENTITY@@W4INT_TYPES@@@Z ; get_local_int_value

; 654  : 
; 655  : 	fn_set_local_entity_raw_int_value		[ENTITY_TYPE_GROUP][INT_TYPE_GROUP_LIST_TYPE]								= set_local_int_value;

  0040d	b8 5c 04 00 00	 mov	 eax, 1116		; 0000045cH
  00412	6b c8 0c	 imul	 ecx, eax, 12
  00415	ba 04 00 00 00	 mov	 edx, 4
  0041a	6b c2 49	 imul	 eax, edx, 73
  0041d	c7 84 01 00 00
	00 00 00 00 00
	00		 mov	 DWORD PTR ?fn_set_local_entity_raw_int_value@@3PAY0BBH@P6GXPAUENTITY@@W4INT_TYPES@@H@ZA[ecx+eax], OFFSET ?set_local_int_value@@YGXPAUENTITY@@W4INT_TYPES@@H@Z ; set_local_int_value

; 656  : 	fn_set_local_entity_int_value				[ENTITY_TYPE_GROUP][INT_TYPE_GROUP_LIST_TYPE]								= set_local_int_value;

  00428	b8 5c 04 00 00	 mov	 eax, 1116		; 0000045cH
  0042d	6b c8 0c	 imul	 ecx, eax, 12
  00430	ba 04 00 00 00	 mov	 edx, 4
  00435	6b c2 49	 imul	 eax, edx, 73
  00438	c7 84 01 00 00
	00 00 00 00 00
	00		 mov	 DWORD PTR ?fn_set_local_entity_int_value@@3PAY0BBH@P6GXPAUENTITY@@W4INT_TYPES@@H@ZA[ecx+eax], OFFSET ?set_local_int_value@@YGXPAUENTITY@@W4INT_TYPES@@H@Z ; set_local_int_value

; 657  : 	fn_set_client_server_entity_int_value	[ENTITY_TYPE_GROUP][INT_TYPE_GROUP_LIST_TYPE][COMMS_MODEL_SERVER]		= set_server_int_value;

  00443	b8 b8 08 00 00	 mov	 eax, 2232		; 000008b8H
  00448	6b c8 0c	 imul	 ecx, eax, 12
  0044b	ba 08 00 00 00	 mov	 edx, 8
  00450	6b c2 49	 imul	 eax, edx, 73
  00453	8d 8c 01 00 00
	00 00		 lea	 ecx, DWORD PTR ?fn_set_client_server_entity_int_value@@3PAY1BBH@1P6GXPAUENTITY@@W4INT_TYPES@@H@ZA[ecx+eax]
  0045a	ba 04 00 00 00	 mov	 edx, 4
  0045f	6b c2 00	 imul	 eax, edx, 0
  00462	c7 04 01 00 00
	00 00		 mov	 DWORD PTR [ecx+eax], OFFSET ?set_server_int_value@@YGXPAUENTITY@@W4INT_TYPES@@H@Z ; set_server_int_value

; 658  : 	fn_set_client_server_entity_int_value	[ENTITY_TYPE_GROUP][INT_TYPE_GROUP_LIST_TYPE][COMMS_MODEL_CLIENT]		= set_client_int_value;

  00469	b8 b8 08 00 00	 mov	 eax, 2232		; 000008b8H
  0046e	6b c8 0c	 imul	 ecx, eax, 12
  00471	ba 08 00 00 00	 mov	 edx, 8
  00476	6b c2 49	 imul	 eax, edx, 73
  00479	8d 8c 01 00 00
	00 00		 lea	 ecx, DWORD PTR ?fn_set_client_server_entity_int_value@@3PAY1BBH@1P6GXPAUENTITY@@W4INT_TYPES@@H@ZA[ecx+eax]
  00480	ba 04 00 00 00	 mov	 edx, 4
  00485	c1 e2 00	 shl	 edx, 0
  00488	c7 04 11 00 00
	00 00		 mov	 DWORD PTR [ecx+edx], OFFSET ?set_client_int_value@@YGXPAUENTITY@@W4INT_TYPES@@H@Z ; set_client_int_value

; 659  : 	fn_get_local_entity_int_value				[ENTITY_TYPE_GROUP][INT_TYPE_GROUP_LIST_TYPE]								= get_local_int_value;

  0048f	b8 5c 04 00 00	 mov	 eax, 1116		; 0000045cH
  00494	6b c8 0c	 imul	 ecx, eax, 12
  00497	ba 04 00 00 00	 mov	 edx, 4
  0049c	6b c2 49	 imul	 eax, edx, 73
  0049f	c7 84 01 00 00
	00 00 00 00 00
	00		 mov	 DWORD PTR ?fn_get_local_entity_int_value@@3PAY0BBH@P6GHPAUENTITY@@W4INT_TYPES@@@ZA[ecx+eax], OFFSET ?get_local_int_value@@YGHPAUENTITY@@W4INT_TYPES@@@Z ; get_local_int_value

; 660  : 
; 661  : 	fn_get_local_entity_int_value				[ENTITY_TYPE_GROUP][INT_TYPE_GROUP_MODE]									= get_local_int_value;

  004aa	b8 5c 04 00 00	 mov	 eax, 1116		; 0000045cH
  004af	6b c8 0c	 imul	 ecx, eax, 12
  004b2	ba 04 00 00 00	 mov	 edx, 4
  004b7	6b c2 4d	 imul	 eax, edx, 77
  004ba	c7 84 01 00 00
	00 00 00 00 00
	00		 mov	 DWORD PTR ?fn_get_local_entity_int_value@@3PAY0BBH@P6GHPAUENTITY@@W4INT_TYPES@@@ZA[ecx+eax], OFFSET ?get_local_int_value@@YGHPAUENTITY@@W4INT_TYPES@@@Z ; get_local_int_value

; 662  : 
; 663  : 	fn_get_local_entity_int_value				[ENTITY_TYPE_GROUP][INT_TYPE_HIDDEN_BY_FOG_OF_WAR]						= get_local_int_value;

  004c5	b8 5c 04 00 00	 mov	 eax, 1116		; 0000045cH
  004ca	6b c8 0c	 imul	 ecx, eax, 12
  004cd	ba 04 00 00 00	 mov	 edx, 4
  004d2	6b c2 56	 imul	 eax, edx, 86
  004d5	c7 84 01 00 00
	00 00 00 00 00
	00		 mov	 DWORD PTR ?fn_get_local_entity_int_value@@3PAY0BBH@P6GHPAUENTITY@@W4INT_TYPES@@@ZA[ecx+eax], OFFSET ?get_local_int_value@@YGHPAUENTITY@@W4INT_TYPES@@@Z ; get_local_int_value

; 664  : 
; 665  : 	fn_set_local_entity_raw_int_value		[ENTITY_TYPE_GROUP][INT_TYPE_KILLS]									= set_local_int_value;

  004e0	b8 5c 04 00 00	 mov	 eax, 1116		; 0000045cH
  004e5	6b c8 0c	 imul	 ecx, eax, 12
  004e8	ba 04 00 00 00	 mov	 edx, 4
  004ed	6b c2 72	 imul	 eax, edx, 114
  004f0	c7 84 01 00 00
	00 00 00 00 00
	00		 mov	 DWORD PTR ?fn_set_local_entity_raw_int_value@@3PAY0BBH@P6GXPAUENTITY@@W4INT_TYPES@@H@ZA[ecx+eax], OFFSET ?set_local_int_value@@YGXPAUENTITY@@W4INT_TYPES@@H@Z ; set_local_int_value

; 666  : 	fn_set_local_entity_int_value				[ENTITY_TYPE_GROUP][INT_TYPE_KILLS]									= set_local_int_value;

  004fb	b8 5c 04 00 00	 mov	 eax, 1116		; 0000045cH
  00500	6b c8 0c	 imul	 ecx, eax, 12
  00503	ba 04 00 00 00	 mov	 edx, 4
  00508	6b c2 72	 imul	 eax, edx, 114
  0050b	c7 84 01 00 00
	00 00 00 00 00
	00		 mov	 DWORD PTR ?fn_set_local_entity_int_value@@3PAY0BBH@P6GXPAUENTITY@@W4INT_TYPES@@H@ZA[ecx+eax], OFFSET ?set_local_int_value@@YGXPAUENTITY@@W4INT_TYPES@@H@Z ; set_local_int_value

; 667  : 	fn_set_client_server_entity_int_value	[ENTITY_TYPE_GROUP][INT_TYPE_KILLS][COMMS_MODEL_SERVER]		= set_server_int_value;

  00516	b8 b8 08 00 00	 mov	 eax, 2232		; 000008b8H
  0051b	6b c8 0c	 imul	 ecx, eax, 12
  0051e	ba 08 00 00 00	 mov	 edx, 8
  00523	6b c2 72	 imul	 eax, edx, 114
  00526	8d 8c 01 00 00
	00 00		 lea	 ecx, DWORD PTR ?fn_set_client_server_entity_int_value@@3PAY1BBH@1P6GXPAUENTITY@@W4INT_TYPES@@H@ZA[ecx+eax]
  0052d	ba 04 00 00 00	 mov	 edx, 4
  00532	6b c2 00	 imul	 eax, edx, 0
  00535	c7 04 01 00 00
	00 00		 mov	 DWORD PTR [ecx+eax], OFFSET ?set_server_int_value@@YGXPAUENTITY@@W4INT_TYPES@@H@Z ; set_server_int_value

; 668  : 	fn_set_client_server_entity_int_value	[ENTITY_TYPE_GROUP][INT_TYPE_KILLS][COMMS_MODEL_CLIENT]		= set_client_int_value;

  0053c	b8 b8 08 00 00	 mov	 eax, 2232		; 000008b8H
  00541	6b c8 0c	 imul	 ecx, eax, 12
  00544	ba 08 00 00 00	 mov	 edx, 8
  00549	6b c2 72	 imul	 eax, edx, 114
  0054c	8d 8c 01 00 00
	00 00		 lea	 ecx, DWORD PTR ?fn_set_client_server_entity_int_value@@3PAY1BBH@1P6GXPAUENTITY@@W4INT_TYPES@@H@ZA[ecx+eax]
  00553	ba 04 00 00 00	 mov	 edx, 4
  00558	c1 e2 00	 shl	 edx, 0
  0055b	c7 04 11 00 00
	00 00		 mov	 DWORD PTR [ecx+edx], OFFSET ?set_client_int_value@@YGXPAUENTITY@@W4INT_TYPES@@H@Z ; set_client_int_value

; 669  : 	fn_get_local_entity_int_value				[ENTITY_TYPE_GROUP][INT_TYPE_KILLS]									= get_local_int_value;

  00562	b8 5c 04 00 00	 mov	 eax, 1116		; 0000045cH
  00567	6b c8 0c	 imul	 ecx, eax, 12
  0056a	ba 04 00 00 00	 mov	 edx, 4
  0056f	6b c2 72	 imul	 eax, edx, 114
  00572	c7 84 01 00 00
	00 00 00 00 00
	00		 mov	 DWORD PTR ?fn_get_local_entity_int_value@@3PAY0BBH@P6GHPAUENTITY@@W4INT_TYPES@@@ZA[ecx+eax], OFFSET ?get_local_int_value@@YGHPAUENTITY@@W4INT_TYPES@@@Z ; get_local_int_value

; 670  : 
; 671  : 	fn_get_local_entity_int_value				[ENTITY_TYPE_GROUP][INT_TYPE_LOCAL_ONLY_GROUP]							= get_local_int_value;

  0057d	b8 5c 04 00 00	 mov	 eax, 1116		; 0000045cH
  00582	6b c8 0c	 imul	 ecx, eax, 12
  00585	ba 04 00 00 00	 mov	 edx, 4
  0058a	6b c2 7c	 imul	 eax, edx, 124
  0058d	c7 84 01 00 00
	00 00 00 00 00
	00		 mov	 DWORD PTR ?fn_get_local_entity_int_value@@3PAY0BBH@P6GHPAUENTITY@@W4INT_TYPES@@@ZA[ecx+eax], OFFSET ?get_local_int_value@@YGHPAUENTITY@@W4INT_TYPES@@@Z ; get_local_int_value

; 672  : 
; 673  : 	fn_set_local_entity_raw_int_value		[ENTITY_TYPE_GROUP][INT_TYPE_LOSSES]								= set_local_int_value;

  00598	b8 5c 04 00 00	 mov	 eax, 1116		; 0000045cH
  0059d	6b c8 0c	 imul	 ecx, eax, 12
  005a0	ba 04 00 00 00	 mov	 edx, 4
  005a5	6b c2 7f	 imul	 eax, edx, 127
  005a8	c7 84 01 00 00
	00 00 00 00 00
	00		 mov	 DWORD PTR ?fn_set_local_entity_raw_int_value@@3PAY0BBH@P6GXPAUENTITY@@W4INT_TYPES@@H@ZA[ecx+eax], OFFSET ?set_local_int_value@@YGXPAUENTITY@@W4INT_TYPES@@H@Z ; set_local_int_value

; 674  : 	fn_set_local_entity_int_value				[ENTITY_TYPE_GROUP][INT_TYPE_LOSSES]								= set_local_int_value;

  005b3	b8 5c 04 00 00	 mov	 eax, 1116		; 0000045cH
  005b8	6b c8 0c	 imul	 ecx, eax, 12
  005bb	ba 04 00 00 00	 mov	 edx, 4
  005c0	6b c2 7f	 imul	 eax, edx, 127
  005c3	c7 84 01 00 00
	00 00 00 00 00
	00		 mov	 DWORD PTR ?fn_set_local_entity_int_value@@3PAY0BBH@P6GXPAUENTITY@@W4INT_TYPES@@H@ZA[ecx+eax], OFFSET ?set_local_int_value@@YGXPAUENTITY@@W4INT_TYPES@@H@Z ; set_local_int_value

; 675  : 	fn_set_client_server_entity_int_value	[ENTITY_TYPE_GROUP][INT_TYPE_LOSSES][COMMS_MODEL_SERVER]		= set_server_int_value;

  005ce	b8 b8 08 00 00	 mov	 eax, 2232		; 000008b8H
  005d3	6b c8 0c	 imul	 ecx, eax, 12
  005d6	ba 08 00 00 00	 mov	 edx, 8
  005db	6b c2 7f	 imul	 eax, edx, 127
  005de	8d 8c 01 00 00
	00 00		 lea	 ecx, DWORD PTR ?fn_set_client_server_entity_int_value@@3PAY1BBH@1P6GXPAUENTITY@@W4INT_TYPES@@H@ZA[ecx+eax]
  005e5	ba 04 00 00 00	 mov	 edx, 4
  005ea	6b c2 00	 imul	 eax, edx, 0
  005ed	c7 04 01 00 00
	00 00		 mov	 DWORD PTR [ecx+eax], OFFSET ?set_server_int_value@@YGXPAUENTITY@@W4INT_TYPES@@H@Z ; set_server_int_value

; 676  : 	fn_set_client_server_entity_int_value	[ENTITY_TYPE_GROUP][INT_TYPE_LOSSES][COMMS_MODEL_CLIENT]		= set_client_int_value;

  005f4	b8 b8 08 00 00	 mov	 eax, 2232		; 000008b8H
  005f9	6b c8 0c	 imul	 ecx, eax, 12
  005fc	ba 08 00 00 00	 mov	 edx, 8
  00601	6b c2 7f	 imul	 eax, edx, 127
  00604	8d 8c 01 00 00
	00 00		 lea	 ecx, DWORD PTR ?fn_set_client_server_entity_int_value@@3PAY1BBH@1P6GXPAUENTITY@@W4INT_TYPES@@H@ZA[ecx+eax]
  0060b	ba 04 00 00 00	 mov	 edx, 4
  00610	c1 e2 00	 shl	 edx, 0
  00613	c7 04 11 00 00
	00 00		 mov	 DWORD PTR [ecx+edx], OFFSET ?set_client_int_value@@YGXPAUENTITY@@W4INT_TYPES@@H@Z ; set_client_int_value

; 677  : 	fn_get_local_entity_int_value				[ENTITY_TYPE_GROUP][INT_TYPE_LOSSES]								= get_local_int_value;

  0061a	b8 5c 04 00 00	 mov	 eax, 1116		; 0000045cH
  0061f	6b c8 0c	 imul	 ecx, eax, 12
  00622	ba 04 00 00 00	 mov	 edx, 4
  00627	6b c2 7f	 imul	 eax, edx, 127
  0062a	c7 84 01 00 00
	00 00 00 00 00
	00		 mov	 DWORD PTR ?fn_get_local_entity_int_value@@3PAY0BBH@P6GHPAUENTITY@@W4INT_TYPES@@@ZA[ecx+eax], OFFSET ?get_local_int_value@@YGHPAUENTITY@@W4INT_TYPES@@@Z ; get_local_int_value

; 678  : 
; 679  : 	fn_get_local_entity_int_value				[ENTITY_TYPE_GROUP][INT_TYPE_MAP_ICON]								= get_local_int_value;

  00635	b8 5c 04 00 00	 mov	 eax, 1116		; 0000045cH
  0063a	6b c8 0c	 imul	 ecx, eax, 12
  0063d	ba 04 00 00 00	 mov	 edx, 4
  00642	69 c2 82 00 00
	00		 imul	 eax, edx, 130
  00648	c7 84 01 00 00
	00 00 00 00 00
	00		 mov	 DWORD PTR ?fn_get_local_entity_int_value@@3PAY0BBH@P6GHPAUENTITY@@W4INT_TYPES@@@ZA[ecx+eax], OFFSET ?get_local_int_value@@YGHPAUENTITY@@W4INT_TYPES@@@Z ; get_local_int_value

; 680  : 
; 681  : 	fn_get_local_entity_int_value				[ENTITY_TYPE_GROUP][INT_TYPE_MAXIMUM_MEMBER_COUNT]				= get_local_int_value;

  00653	b8 5c 04 00 00	 mov	 eax, 1116		; 0000045cH
  00658	6b c8 0c	 imul	 ecx, eax, 12
  0065b	ba 04 00 00 00	 mov	 edx, 4
  00660	69 c2 83 00 00
	00		 imul	 eax, edx, 131
  00666	c7 84 01 00 00
	00 00 00 00 00
	00		 mov	 DWORD PTR ?fn_get_local_entity_int_value@@3PAY0BBH@P6GHPAUENTITY@@W4INT_TYPES@@@ZA[ecx+eax], OFFSET ?get_local_int_value@@YGHPAUENTITY@@W4INT_TYPES@@@Z ; get_local_int_value

; 682  : 
; 683  : 	fn_set_local_entity_raw_int_value		[ENTITY_TYPE_GROUP][INT_TYPE_MEMBER_COUNT]								= set_local_int_value;

  00671	b8 5c 04 00 00	 mov	 eax, 1116		; 0000045cH
  00676	6b c8 0c	 imul	 ecx, eax, 12
  00679	ba 04 00 00 00	 mov	 edx, 4
  0067e	69 c2 86 00 00
	00		 imul	 eax, edx, 134
  00684	c7 84 01 00 00
	00 00 00 00 00
	00		 mov	 DWORD PTR ?fn_set_local_entity_raw_int_value@@3PAY0BBH@P6GXPAUENTITY@@W4INT_TYPES@@H@ZA[ecx+eax], OFFSET ?set_local_int_value@@YGXPAUENTITY@@W4INT_TYPES@@H@Z ; set_local_int_value

; 684  : 	fn_set_local_entity_int_value				[ENTITY_TYPE_GROUP][INT_TYPE_MEMBER_COUNT]								= set_local_int_value;

  0068f	b8 5c 04 00 00	 mov	 eax, 1116		; 0000045cH
  00694	6b c8 0c	 imul	 ecx, eax, 12
  00697	ba 04 00 00 00	 mov	 edx, 4
  0069c	69 c2 86 00 00
	00		 imul	 eax, edx, 134
  006a2	c7 84 01 00 00
	00 00 00 00 00
	00		 mov	 DWORD PTR ?fn_set_local_entity_int_value@@3PAY0BBH@P6GXPAUENTITY@@W4INT_TYPES@@H@ZA[ecx+eax], OFFSET ?set_local_int_value@@YGXPAUENTITY@@W4INT_TYPES@@H@Z ; set_local_int_value

; 685  : 	fn_set_client_server_entity_int_value	[ENTITY_TYPE_GROUP][INT_TYPE_MEMBER_COUNT][COMMS_MODEL_SERVER]		= set_server_int_value;

  006ad	b8 b8 08 00 00	 mov	 eax, 2232		; 000008b8H
  006b2	6b c8 0c	 imul	 ecx, eax, 12
  006b5	ba 08 00 00 00	 mov	 edx, 8
  006ba	69 c2 86 00 00
	00		 imul	 eax, edx, 134
  006c0	8d 8c 01 00 00
	00 00		 lea	 ecx, DWORD PTR ?fn_set_client_server_entity_int_value@@3PAY1BBH@1P6GXPAUENTITY@@W4INT_TYPES@@H@ZA[ecx+eax]
  006c7	ba 04 00 00 00	 mov	 edx, 4
  006cc	6b c2 00	 imul	 eax, edx, 0
  006cf	c7 04 01 00 00
	00 00		 mov	 DWORD PTR [ecx+eax], OFFSET ?set_server_int_value@@YGXPAUENTITY@@W4INT_TYPES@@H@Z ; set_server_int_value

; 686  : 	fn_set_client_server_entity_int_value	[ENTITY_TYPE_GROUP][INT_TYPE_MEMBER_COUNT][COMMS_MODEL_CLIENT]		= set_client_int_value;

  006d6	b8 b8 08 00 00	 mov	 eax, 2232		; 000008b8H
  006db	6b c8 0c	 imul	 ecx, eax, 12
  006de	ba 08 00 00 00	 mov	 edx, 8
  006e3	69 c2 86 00 00
	00		 imul	 eax, edx, 134
  006e9	8d 8c 01 00 00
	00 00		 lea	 ecx, DWORD PTR ?fn_set_client_server_entity_int_value@@3PAY1BBH@1P6GXPAUENTITY@@W4INT_TYPES@@H@ZA[ecx+eax]
  006f0	ba 04 00 00 00	 mov	 edx, 4
  006f5	c1 e2 00	 shl	 edx, 0
  006f8	c7 04 11 00 00
	00 00		 mov	 DWORD PTR [ecx+edx], OFFSET ?set_client_int_value@@YGXPAUENTITY@@W4INT_TYPES@@H@Z ; set_client_int_value

; 687  : 	fn_get_local_entity_int_value				[ENTITY_TYPE_GROUP][INT_TYPE_MEMBER_COUNT]								= get_local_int_value;

  006ff	b8 5c 04 00 00	 mov	 eax, 1116		; 0000045cH
  00704	6b c8 0c	 imul	 ecx, eax, 12
  00707	ba 04 00 00 00	 mov	 edx, 4
  0070c	69 c2 86 00 00
	00		 imul	 eax, edx, 134
  00712	c7 84 01 00 00
	00 00 00 00 00
	00		 mov	 DWORD PTR ?fn_get_local_entity_int_value@@3PAY0BBH@P6GHPAUENTITY@@W4INT_TYPES@@@ZA[ecx+eax], OFFSET ?get_local_int_value@@YGHPAUENTITY@@W4INT_TYPES@@@Z ; get_local_int_value

; 688  : 
; 689  : 	fn_get_local_entity_int_value				[ENTITY_TYPE_GROUP][INT_TYPE_MOVEMENT_TYPE]								= get_local_int_value;

  0071d	b8 5c 04 00 00	 mov	 eax, 1116		; 0000045cH
  00722	6b c8 0c	 imul	 ecx, eax, 12
  00725	ba 04 00 00 00	 mov	 edx, 4
  0072a	69 c2 90 00 00
	00		 imul	 eax, edx, 144
  00730	c7 84 01 00 00
	00 00 00 00 00
	00		 mov	 DWORD PTR ?fn_get_local_entity_int_value@@3PAY0BBH@P6GHPAUENTITY@@W4INT_TYPES@@@ZA[ecx+eax], OFFSET ?get_local_int_value@@YGHPAUENTITY@@W4INT_TYPES@@@Z ; get_local_int_value

; 690  : 
; 691  : 	fn_set_local_entity_raw_int_value		[ENTITY_TYPE_GROUP][INT_TYPE_MULTIPLAYER_GROUP]								= set_local_int_value;

  0073b	b8 5c 04 00 00	 mov	 eax, 1116		; 0000045cH
  00740	6b c8 0c	 imul	 ecx, eax, 12
  00743	ba 04 00 00 00	 mov	 edx, 4
  00748	69 c2 91 00 00
	00		 imul	 eax, edx, 145
  0074e	c7 84 01 00 00
	00 00 00 00 00
	00		 mov	 DWORD PTR ?fn_set_local_entity_raw_int_value@@3PAY0BBH@P6GXPAUENTITY@@W4INT_TYPES@@H@ZA[ecx+eax], OFFSET ?set_local_int_value@@YGXPAUENTITY@@W4INT_TYPES@@H@Z ; set_local_int_value

; 692  : 	fn_set_local_entity_int_value				[ENTITY_TYPE_GROUP][INT_TYPE_MULTIPLAYER_GROUP]								= set_local_int_value;

  00759	b8 5c 04 00 00	 mov	 eax, 1116		; 0000045cH
  0075e	6b c8 0c	 imul	 ecx, eax, 12
  00761	ba 04 00 00 00	 mov	 edx, 4
  00766	69 c2 91 00 00
	00		 imul	 eax, edx, 145
  0076c	c7 84 01 00 00
	00 00 00 00 00
	00		 mov	 DWORD PTR ?fn_set_local_entity_int_value@@3PAY0BBH@P6GXPAUENTITY@@W4INT_TYPES@@H@ZA[ecx+eax], OFFSET ?set_local_int_value@@YGXPAUENTITY@@W4INT_TYPES@@H@Z ; set_local_int_value

; 693  : 	fn_set_client_server_entity_int_value	[ENTITY_TYPE_GROUP][INT_TYPE_MULTIPLAYER_GROUP][COMMS_MODEL_SERVER]	= set_server_int_value;

  00777	b8 b8 08 00 00	 mov	 eax, 2232		; 000008b8H
  0077c	6b c8 0c	 imul	 ecx, eax, 12
  0077f	ba 08 00 00 00	 mov	 edx, 8
  00784	69 c2 91 00 00
	00		 imul	 eax, edx, 145
  0078a	8d 8c 01 00 00
	00 00		 lea	 ecx, DWORD PTR ?fn_set_client_server_entity_int_value@@3PAY1BBH@1P6GXPAUENTITY@@W4INT_TYPES@@H@ZA[ecx+eax]
  00791	ba 04 00 00 00	 mov	 edx, 4
  00796	6b c2 00	 imul	 eax, edx, 0
  00799	c7 04 01 00 00
	00 00		 mov	 DWORD PTR [ecx+eax], OFFSET ?set_server_int_value@@YGXPAUENTITY@@W4INT_TYPES@@H@Z ; set_server_int_value

; 694  : 	fn_set_client_server_entity_int_value	[ENTITY_TYPE_GROUP][INT_TYPE_MULTIPLAYER_GROUP][COMMS_MODEL_CLIENT]	= set_client_int_value;

  007a0	b8 b8 08 00 00	 mov	 eax, 2232		; 000008b8H
  007a5	6b c8 0c	 imul	 ecx, eax, 12
  007a8	ba 08 00 00 00	 mov	 edx, 8
  007ad	69 c2 91 00 00
	00		 imul	 eax, edx, 145
  007b3	8d 8c 01 00 00
	00 00		 lea	 ecx, DWORD PTR ?fn_set_client_server_entity_int_value@@3PAY1BBH@1P6GXPAUENTITY@@W4INT_TYPES@@H@ZA[ecx+eax]
  007ba	ba 04 00 00 00	 mov	 edx, 4
  007bf	c1 e2 00	 shl	 edx, 0
  007c2	c7 04 11 00 00
	00 00		 mov	 DWORD PTR [ecx+edx], OFFSET ?set_client_int_value@@YGXPAUENTITY@@W4INT_TYPES@@H@Z ; set_client_int_value

; 695  : 	fn_get_local_entity_int_value				[ENTITY_TYPE_GROUP][INT_TYPE_MULTIPLAYER_GROUP]								= get_local_int_value;

  007c9	b8 5c 04 00 00	 mov	 eax, 1116		; 0000045cH
  007ce	6b c8 0c	 imul	 ecx, eax, 12
  007d1	ba 04 00 00 00	 mov	 edx, 4
  007d6	69 c2 91 00 00
	00		 imul	 eax, edx, 145
  007dc	c7 84 01 00 00
	00 00 00 00 00
	00		 mov	 DWORD PTR ?fn_get_local_entity_int_value@@3PAY0BBH@P6GHPAUENTITY@@W4INT_TYPES@@@ZA[ecx+eax], OFFSET ?get_local_int_value@@YGHPAUENTITY@@W4INT_TYPES@@@Z ; get_local_int_value

; 696  : 
; 697  : 	fn_get_local_entity_int_value				[ENTITY_TYPE_GROUP][INT_TYPE_MINIMUM_IDLE_COUNT]	 						= get_local_int_value;

  007e7	b8 5c 04 00 00	 mov	 eax, 1116		; 0000045cH
  007ec	6b c8 0c	 imul	 ecx, eax, 12
  007ef	ba 04 00 00 00	 mov	 edx, 4
  007f4	69 c2 8a 00 00
	00		 imul	 eax, edx, 138
  007fa	c7 84 01 00 00
	00 00 00 00 00
	00		 mov	 DWORD PTR ?fn_get_local_entity_int_value@@3PAY0BBH@P6GHPAUENTITY@@W4INT_TYPES@@@ZA[ecx+eax], OFFSET ?get_local_int_value@@YGHPAUENTITY@@W4INT_TYPES@@@Z ; get_local_int_value

; 698  : 
; 699  : 	fn_set_local_entity_raw_int_value		[ENTITY_TYPE_GROUP][INT_TYPE_ROUTE_NODE]									= set_local_int_value;

  00805	b8 5c 04 00 00	 mov	 eax, 1116		; 0000045cH
  0080a	6b c8 0c	 imul	 ecx, eax, 12
  0080d	ba 04 00 00 00	 mov	 edx, 4
  00812	69 c2 b4 00 00
	00		 imul	 eax, edx, 180
  00818	c7 84 01 00 00
	00 00 00 00 00
	00		 mov	 DWORD PTR ?fn_set_local_entity_raw_int_value@@3PAY0BBH@P6GXPAUENTITY@@W4INT_TYPES@@H@ZA[ecx+eax], OFFSET ?set_local_int_value@@YGXPAUENTITY@@W4INT_TYPES@@H@Z ; set_local_int_value

; 700  : 	fn_set_local_entity_int_value				[ENTITY_TYPE_GROUP][INT_TYPE_ROUTE_NODE]									= set_local_int_value;

  00823	b8 5c 04 00 00	 mov	 eax, 1116		; 0000045cH
  00828	6b c8 0c	 imul	 ecx, eax, 12
  0082b	ba 04 00 00 00	 mov	 edx, 4
  00830	69 c2 b4 00 00
	00		 imul	 eax, edx, 180
  00836	c7 84 01 00 00
	00 00 00 00 00
	00		 mov	 DWORD PTR ?fn_set_local_entity_int_value@@3PAY0BBH@P6GXPAUENTITY@@W4INT_TYPES@@H@ZA[ecx+eax], OFFSET ?set_local_int_value@@YGXPAUENTITY@@W4INT_TYPES@@H@Z ; set_local_int_value

; 701  : 	fn_set_client_server_entity_int_value	[ENTITY_TYPE_GROUP][INT_TYPE_ROUTE_NODE][COMMS_MODEL_SERVER]		= set_server_int_value;

  00841	b8 b8 08 00 00	 mov	 eax, 2232		; 000008b8H
  00846	6b c8 0c	 imul	 ecx, eax, 12
  00849	ba 08 00 00 00	 mov	 edx, 8
  0084e	69 c2 b4 00 00
	00		 imul	 eax, edx, 180
  00854	8d 8c 01 00 00
	00 00		 lea	 ecx, DWORD PTR ?fn_set_client_server_entity_int_value@@3PAY1BBH@1P6GXPAUENTITY@@W4INT_TYPES@@H@ZA[ecx+eax]
  0085b	ba 04 00 00 00	 mov	 edx, 4
  00860	6b c2 00	 imul	 eax, edx, 0
  00863	c7 04 01 00 00
	00 00		 mov	 DWORD PTR [ecx+eax], OFFSET ?set_server_int_value@@YGXPAUENTITY@@W4INT_TYPES@@H@Z ; set_server_int_value

; 702  : 	fn_set_client_server_entity_int_value	[ENTITY_TYPE_GROUP][INT_TYPE_ROUTE_NODE][COMMS_MODEL_CLIENT]		= set_client_int_value;

  0086a	b8 b8 08 00 00	 mov	 eax, 2232		; 000008b8H
  0086f	6b c8 0c	 imul	 ecx, eax, 12
  00872	ba 08 00 00 00	 mov	 edx, 8
  00877	69 c2 b4 00 00
	00		 imul	 eax, edx, 180
  0087d	8d 8c 01 00 00
	00 00		 lea	 ecx, DWORD PTR ?fn_set_client_server_entity_int_value@@3PAY1BBH@1P6GXPAUENTITY@@W4INT_TYPES@@H@ZA[ecx+eax]
  00884	ba 04 00 00 00	 mov	 edx, 4
  00889	c1 e2 00	 shl	 edx, 0
  0088c	c7 04 11 00 00
	00 00		 mov	 DWORD PTR [ecx+edx], OFFSET ?set_client_int_value@@YGXPAUENTITY@@W4INT_TYPES@@H@Z ; set_client_int_value

; 703  : 	fn_get_local_entity_int_value				[ENTITY_TYPE_GROUP][INT_TYPE_ROUTE_NODE]									= get_local_int_value;

  00893	b8 5c 04 00 00	 mov	 eax, 1116		; 0000045cH
  00898	6b c8 0c	 imul	 ecx, eax, 12
  0089b	ba 04 00 00 00	 mov	 edx, 4
  008a0	69 c2 b4 00 00
	00		 imul	 eax, edx, 180
  008a6	c7 84 01 00 00
	00 00 00 00 00
	00		 mov	 DWORD PTR ?fn_get_local_entity_int_value@@3PAY0BBH@P6GHPAUENTITY@@W4INT_TYPES@@@ZA[ecx+eax], OFFSET ?get_local_int_value@@YGHPAUENTITY@@W4INT_TYPES@@@Z ; get_local_int_value

; 704  : 
; 705  : 	fn_get_local_entity_int_value				[ENTITY_TYPE_GROUP][INT_TYPE_REGISTRY_LIST_TYPE]						= get_local_int_value;

  008b1	b8 5c 04 00 00	 mov	 eax, 1116		; 0000045cH
  008b6	6b c8 0c	 imul	 ecx, eax, 12
  008b9	ba 04 00 00 00	 mov	 edx, 4
  008be	69 c2 ae 00 00
	00		 imul	 eax, edx, 174
  008c4	c7 84 01 00 00
	00 00 00 00 00
	00		 mov	 DWORD PTR ?fn_get_local_entity_int_value@@3PAY0BBH@P6GHPAUENTITY@@W4INT_TYPES@@@ZA[ecx+eax], OFFSET ?get_local_int_value@@YGHPAUENTITY@@W4INT_TYPES@@@Z ; get_local_int_value

; 706  : 
; 707  : 	fn_get_local_entity_int_value				[ENTITY_TYPE_GROUP][INT_TYPE_RESUPPLY_SOURCE]							= get_local_int_value;

  008cf	b8 5c 04 00 00	 mov	 eax, 1116		; 0000045cH
  008d4	6b c8 0c	 imul	 ecx, eax, 12
  008d7	ba 04 00 00 00	 mov	 edx, 4
  008dc	69 c2 b0 00 00
	00		 imul	 eax, edx, 176
  008e2	c7 84 01 00 00
	00 00 00 00 00
	00		 mov	 DWORD PTR ?fn_get_local_entity_int_value@@3PAY0BBH@P6GHPAUENTITY@@W4INT_TYPES@@@ZA[ecx+eax], OFFSET ?get_local_int_value@@YGHPAUENTITY@@W4INT_TYPES@@@Z ; get_local_int_value

; 708  : 
; 709  : 	fn_set_local_entity_raw_int_value		[ENTITY_TYPE_GROUP][INT_TYPE_SIDE]											= set_local_int_value;

  008ed	b8 5c 04 00 00	 mov	 eax, 1116		; 0000045cH
  008f2	6b c8 0c	 imul	 ecx, eax, 12
  008f5	ba 04 00 00 00	 mov	 edx, 4
  008fa	69 c2 bb 00 00
	00		 imul	 eax, edx, 187
  00900	c7 84 01 00 00
	00 00 00 00 00
	00		 mov	 DWORD PTR ?fn_set_local_entity_raw_int_value@@3PAY0BBH@P6GXPAUENTITY@@W4INT_TYPES@@H@ZA[ecx+eax], OFFSET ?set_local_int_value@@YGXPAUENTITY@@W4INT_TYPES@@H@Z ; set_local_int_value

; 710  : 	fn_set_local_entity_int_value				[ENTITY_TYPE_GROUP][INT_TYPE_SIDE]											= set_local_int_value;

  0090b	b8 5c 04 00 00	 mov	 eax, 1116		; 0000045cH
  00910	6b c8 0c	 imul	 ecx, eax, 12
  00913	ba 04 00 00 00	 mov	 edx, 4
  00918	69 c2 bb 00 00
	00		 imul	 eax, edx, 187
  0091e	c7 84 01 00 00
	00 00 00 00 00
	00		 mov	 DWORD PTR ?fn_set_local_entity_int_value@@3PAY0BBH@P6GXPAUENTITY@@W4INT_TYPES@@H@ZA[ecx+eax], OFFSET ?set_local_int_value@@YGXPAUENTITY@@W4INT_TYPES@@H@Z ; set_local_int_value

; 711  : 	fn_set_client_server_entity_int_value	[ENTITY_TYPE_GROUP][INT_TYPE_SIDE][COMMS_MODEL_SERVER]				= set_server_int_value;

  00929	b8 b8 08 00 00	 mov	 eax, 2232		; 000008b8H
  0092e	6b c8 0c	 imul	 ecx, eax, 12
  00931	ba 08 00 00 00	 mov	 edx, 8
  00936	69 c2 bb 00 00
	00		 imul	 eax, edx, 187
  0093c	8d 8c 01 00 00
	00 00		 lea	 ecx, DWORD PTR ?fn_set_client_server_entity_int_value@@3PAY1BBH@1P6GXPAUENTITY@@W4INT_TYPES@@H@ZA[ecx+eax]
  00943	ba 04 00 00 00	 mov	 edx, 4
  00948	6b c2 00	 imul	 eax, edx, 0
  0094b	c7 04 01 00 00
	00 00		 mov	 DWORD PTR [ecx+eax], OFFSET ?set_server_int_value@@YGXPAUENTITY@@W4INT_TYPES@@H@Z ; set_server_int_value

; 712  : 	fn_set_client_server_entity_int_value	[ENTITY_TYPE_GROUP][INT_TYPE_SIDE][COMMS_MODEL_CLIENT]				= set_client_int_value;

  00952	b8 b8 08 00 00	 mov	 eax, 2232		; 000008b8H
  00957	6b c8 0c	 imul	 ecx, eax, 12
  0095a	ba 08 00 00 00	 mov	 edx, 8
  0095f	69 c2 bb 00 00
	00		 imul	 eax, edx, 187
  00965	8d 8c 01 00 00
	00 00		 lea	 ecx, DWORD PTR ?fn_set_client_server_entity_int_value@@3PAY1BBH@1P6GXPAUENTITY@@W4INT_TYPES@@H@ZA[ecx+eax]
  0096c	ba 04 00 00 00	 mov	 edx, 4
  00971	c1 e2 00	 shl	 edx, 0
  00974	c7 04 11 00 00
	00 00		 mov	 DWORD PTR [ecx+edx], OFFSET ?set_client_int_value@@YGXPAUENTITY@@W4INT_TYPES@@H@Z ; set_client_int_value

; 713  : 	fn_get_local_entity_int_value				[ENTITY_TYPE_GROUP][INT_TYPE_SIDE]											= get_local_int_value;

  0097b	b8 5c 04 00 00	 mov	 eax, 1116		; 0000045cH
  00980	6b c8 0c	 imul	 ecx, eax, 12
  00983	ba 04 00 00 00	 mov	 edx, 4
  00988	69 c2 bb 00 00
	00		 imul	 eax, edx, 187
  0098e	c7 84 01 00 00
	00 00 00 00 00
	00		 mov	 DWORD PTR ?fn_get_local_entity_int_value@@3PAY0BBH@P6GHPAUENTITY@@W4INT_TYPES@@@ZA[ecx+eax], OFFSET ?get_local_int_value@@YGHPAUENTITY@@W4INT_TYPES@@@Z ; get_local_int_value

; 714  : 
; 715  : 	fn_set_local_entity_raw_int_value		[ENTITY_TYPE_GROUP][INT_TYPE_UNIQUE_ID]									= set_local_int_value;

  00999	b8 5c 04 00 00	 mov	 eax, 1116		; 0000045cH
  0099e	6b c8 0c	 imul	 ecx, eax, 12
  009a1	ba 04 00 00 00	 mov	 edx, 4
  009a6	69 c2 ed 00 00
	00		 imul	 eax, edx, 237
  009ac	c7 84 01 00 00
	00 00 00 00 00
	00		 mov	 DWORD PTR ?fn_set_local_entity_raw_int_value@@3PAY0BBH@P6GXPAUENTITY@@W4INT_TYPES@@H@ZA[ecx+eax], OFFSET ?set_local_int_value@@YGXPAUENTITY@@W4INT_TYPES@@H@Z ; set_local_int_value

; 716  : 	fn_set_local_entity_int_value				[ENTITY_TYPE_GROUP][INT_TYPE_UNIQUE_ID]									= set_local_int_value;

  009b7	b8 5c 04 00 00	 mov	 eax, 1116		; 0000045cH
  009bc	6b c8 0c	 imul	 ecx, eax, 12
  009bf	ba 04 00 00 00	 mov	 edx, 4
  009c4	69 c2 ed 00 00
	00		 imul	 eax, edx, 237
  009ca	c7 84 01 00 00
	00 00 00 00 00
	00		 mov	 DWORD PTR ?fn_set_local_entity_int_value@@3PAY0BBH@P6GXPAUENTITY@@W4INT_TYPES@@H@ZA[ecx+eax], OFFSET ?set_local_int_value@@YGXPAUENTITY@@W4INT_TYPES@@H@Z ; set_local_int_value

; 717  : 	fn_set_client_server_entity_int_value	[ENTITY_TYPE_GROUP][INT_TYPE_UNIQUE_ID][COMMS_MODEL_SERVER]			= set_server_int_value;

  009d5	b8 b8 08 00 00	 mov	 eax, 2232		; 000008b8H
  009da	6b c8 0c	 imul	 ecx, eax, 12
  009dd	ba 08 00 00 00	 mov	 edx, 8
  009e2	69 c2 ed 00 00
	00		 imul	 eax, edx, 237
  009e8	8d 8c 01 00 00
	00 00		 lea	 ecx, DWORD PTR ?fn_set_client_server_entity_int_value@@3PAY1BBH@1P6GXPAUENTITY@@W4INT_TYPES@@H@ZA[ecx+eax]
  009ef	ba 04 00 00 00	 mov	 edx, 4
  009f4	6b c2 00	 imul	 eax, edx, 0
  009f7	c7 04 01 00 00
	00 00		 mov	 DWORD PTR [ecx+eax], OFFSET ?set_server_int_value@@YGXPAUENTITY@@W4INT_TYPES@@H@Z ; set_server_int_value

; 718  : 	fn_set_client_server_entity_int_value	[ENTITY_TYPE_GROUP][INT_TYPE_UNIQUE_ID][COMMS_MODEL_CLIENT]			= set_client_int_value;

  009fe	b8 b8 08 00 00	 mov	 eax, 2232		; 000008b8H
  00a03	6b c8 0c	 imul	 ecx, eax, 12
  00a06	ba 08 00 00 00	 mov	 edx, 8
  00a0b	69 c2 ed 00 00
	00		 imul	 eax, edx, 237
  00a11	8d 8c 01 00 00
	00 00		 lea	 ecx, DWORD PTR ?fn_set_client_server_entity_int_value@@3PAY1BBH@1P6GXPAUENTITY@@W4INT_TYPES@@H@ZA[ecx+eax]
  00a18	ba 04 00 00 00	 mov	 edx, 4
  00a1d	c1 e2 00	 shl	 edx, 0
  00a20	c7 04 11 00 00
	00 00		 mov	 DWORD PTR [ecx+edx], OFFSET ?set_client_int_value@@YGXPAUENTITY@@W4INT_TYPES@@H@Z ; set_client_int_value

; 719  : 	fn_get_local_entity_int_value				[ENTITY_TYPE_GROUP][INT_TYPE_UNIQUE_ID]									= get_local_int_value;

  00a27	b8 5c 04 00 00	 mov	 eax, 1116		; 0000045cH
  00a2c	6b c8 0c	 imul	 ecx, eax, 12
  00a2f	ba 04 00 00 00	 mov	 edx, 4
  00a34	69 c2 ed 00 00
	00		 imul	 eax, edx, 237
  00a3a	c7 84 01 00 00
	00 00 00 00 00
	00		 mov	 DWORD PTR ?fn_get_local_entity_int_value@@3PAY0BBH@P6GHPAUENTITY@@W4INT_TYPES@@@ZA[ecx+eax], OFFSET ?get_local_int_value@@YGHPAUENTITY@@W4INT_TYPES@@@Z ; get_local_int_value

; 720  : 
; 721  : 	fn_get_local_entity_int_value				[ENTITY_TYPE_GROUP][INT_TYPE_VEHICLE_GROUP]								= get_local_int_value;

  00a45	b8 5c 04 00 00	 mov	 eax, 1116		; 0000045cH
  00a4a	6b c8 0c	 imul	 ecx, eax, 12
  00a4d	ba 04 00 00 00	 mov	 edx, 4
  00a52	69 c2 f3 00 00
	00		 imul	 eax, edx, 243
  00a58	c7 84 01 00 00
	00 00 00 00 00
	00		 mov	 DWORD PTR ?fn_get_local_entity_int_value@@3PAY0BBH@P6GHPAUENTITY@@W4INT_TYPES@@@ZA[ecx+eax], OFFSET ?get_local_int_value@@YGHPAUENTITY@@W4INT_TYPES@@@Z ; get_local_int_value

; 722  : 
; 723  : 	fn_set_local_entity_raw_int_value		[ENTITY_TYPE_GROUP][INT_TYPE_VERBOSE_OPERATIONAL_STATE]											= set_local_int_value;

  00a63	b8 5c 04 00 00	 mov	 eax, 1116		; 0000045cH
  00a68	6b c8 0c	 imul	 ecx, eax, 12
  00a6b	ba 04 00 00 00	 mov	 edx, 4
  00a70	69 c2 f4 00 00
	00		 imul	 eax, edx, 244
  00a76	c7 84 01 00 00
	00 00 00 00 00
	00		 mov	 DWORD PTR ?fn_set_local_entity_raw_int_value@@3PAY0BBH@P6GXPAUENTITY@@W4INT_TYPES@@H@ZA[ecx+eax], OFFSET ?set_local_int_value@@YGXPAUENTITY@@W4INT_TYPES@@H@Z ; set_local_int_value

; 724  : 	fn_set_local_entity_int_value				[ENTITY_TYPE_GROUP][INT_TYPE_VERBOSE_OPERATIONAL_STATE]											= set_local_int_value;

  00a81	b8 5c 04 00 00	 mov	 eax, 1116		; 0000045cH
  00a86	6b c8 0c	 imul	 ecx, eax, 12
  00a89	ba 04 00 00 00	 mov	 edx, 4
  00a8e	69 c2 f4 00 00
	00		 imul	 eax, edx, 244
  00a94	c7 84 01 00 00
	00 00 00 00 00
	00		 mov	 DWORD PTR ?fn_set_local_entity_int_value@@3PAY0BBH@P6GXPAUENTITY@@W4INT_TYPES@@H@ZA[ecx+eax], OFFSET ?set_local_int_value@@YGXPAUENTITY@@W4INT_TYPES@@H@Z ; set_local_int_value

; 725  : 	fn_set_client_server_entity_int_value	[ENTITY_TYPE_GROUP][INT_TYPE_VERBOSE_OPERATIONAL_STATE][COMMS_MODEL_SERVER]				= set_server_int_value;

  00a9f	b8 b8 08 00 00	 mov	 eax, 2232		; 000008b8H
  00aa4	6b c8 0c	 imul	 ecx, eax, 12
  00aa7	ba 08 00 00 00	 mov	 edx, 8
  00aac	69 c2 f4 00 00
	00		 imul	 eax, edx, 244
  00ab2	8d 8c 01 00 00
	00 00		 lea	 ecx, DWORD PTR ?fn_set_client_server_entity_int_value@@3PAY1BBH@1P6GXPAUENTITY@@W4INT_TYPES@@H@ZA[ecx+eax]
  00ab9	ba 04 00 00 00	 mov	 edx, 4
  00abe	6b c2 00	 imul	 eax, edx, 0
  00ac1	c7 04 01 00 00
	00 00		 mov	 DWORD PTR [ecx+eax], OFFSET ?set_server_int_value@@YGXPAUENTITY@@W4INT_TYPES@@H@Z ; set_server_int_value

; 726  : 	fn_set_client_server_entity_int_value	[ENTITY_TYPE_GROUP][INT_TYPE_VERBOSE_OPERATIONAL_STATE][COMMS_MODEL_CLIENT]				= set_client_int_value;

  00ac8	b8 b8 08 00 00	 mov	 eax, 2232		; 000008b8H
  00acd	6b c8 0c	 imul	 ecx, eax, 12
  00ad0	ba 08 00 00 00	 mov	 edx, 8
  00ad5	69 c2 f4 00 00
	00		 imul	 eax, edx, 244
  00adb	8d 8c 01 00 00
	00 00		 lea	 ecx, DWORD PTR ?fn_set_client_server_entity_int_value@@3PAY1BBH@1P6GXPAUENTITY@@W4INT_TYPES@@H@ZA[ecx+eax]
  00ae2	ba 04 00 00 00	 mov	 edx, 4
  00ae7	c1 e2 00	 shl	 edx, 0
  00aea	c7 04 11 00 00
	00 00		 mov	 DWORD PTR [ecx+edx], OFFSET ?set_client_int_value@@YGXPAUENTITY@@W4INT_TYPES@@H@Z ; set_client_int_value

; 727  : 	fn_get_local_entity_int_value				[ENTITY_TYPE_GROUP][INT_TYPE_VERBOSE_OPERATIONAL_STATE]											= get_local_int_value;

  00af1	b8 5c 04 00 00	 mov	 eax, 1116		; 0000045cH
  00af6	6b c8 0c	 imul	 ecx, eax, 12
  00af9	ba 04 00 00 00	 mov	 edx, 4
  00afe	69 c2 f4 00 00
	00		 imul	 eax, edx, 244
  00b04	c7 84 01 00 00
	00 00 00 00 00
	00		 mov	 DWORD PTR ?fn_get_local_entity_int_value@@3PAY0BBH@P6GHPAUENTITY@@W4INT_TYPES@@@ZA[ecx+eax], OFFSET ?get_local_int_value@@YGHPAUENTITY@@W4INT_TYPES@@@Z ; get_local_int_value

; 728  : }

  00b0f	5f		 pop	 edi
  00b10	5e		 pop	 esi
  00b11	5b		 pop	 ebx
  00b12	8b e5		 mov	 esp, ebp
  00b14	5d		 pop	 ebp
  00b15	c3		 ret	 0
?overload_group_int_value_functions@@YGXXZ ENDP		; overload_group_int_value_functions
_TEXT	ENDS
END
