; Listing generated by Microsoft (R) Optimizing Compiler Version 19.16.27045.0 

	TITLE	C:\Users\nhv90\Projects\eech\aphavoc\source\entity\special\group\gp_msgs.c
	.686P
	.XMM
	include listing.inc
	.model	flat

INCLUDELIB MSVCRTD
INCLUDELIB OLDNAMES

PUBLIC	?overload_group_message_responses@@YGXXZ	; overload_group_message_responses
PUBLIC	?__LINE__Var@?0??response_to_link_child@@YGHW4ENTITY_MESSAGES@@PAUENTITY@@1PAD@Z@4JA ; `response_to_link_child'::`1'::__LINE__Var
PUBLIC	??_C@_0EL@PBEBEHIP@c?3?2users?2nhv90?2projects?2eech?2ap@ ; `string'
PUBLIC	?__LINE__Var@?0??response_to_unlink_child@@YGHW4ENTITY_MESSAGES@@PAUENTITY@@1PAD@Z@4JA ; `response_to_unlink_child'::`1'::__LINE__Var
PUBLIC	?__LINE__Var@?0??response_to_entity_fired_at@@YGHW4ENTITY_MESSAGES@@PAUENTITY@@1PAD@Z@4JA ; `response_to_entity_fired_at'::`1'::__LINE__Var
PUBLIC	??_C@_0CJ@DMBLBJBK@get_comms_model?5?$CI?$CJ?5?$DN?$DN?5COMMS_MOD@ ; `string'
PUBLIC	??_C@_06CGHJMPBJ@sender@			; `string'
PUBLIC	??_C@_0EI@HHICLLNA@?$CIRETALIATION?$CJ?5Group?5?$CFs?5Requesti@ ; `string'
PUBLIC	??_C@_0DK@ENAKOJCA@?$CIRETALIATION?$CJ?5Group?5?$CFs?5Respondi@ ; `string'
PUBLIC	?__LINE__Var@?0??response_to_entity_targeted@@YGHW4ENTITY_MESSAGES@@PAUENTITY@@1PAD@Z@4JA ; `response_to_entity_targeted'::`1'::__LINE__Var
PUBLIC	??_C@_05KIBFDOPF@pilot@				; `string'
PUBLIC	?__LINE__Var@?0??response_to_ground_force_advance@@YGHW4ENTITY_MESSAGES@@PAUENTITY@@1PAD@Z@4JA ; `response_to_ground_force_advance'::`1'::__LINE__Var
PUBLIC	??_C@_0DH@MBMPEFHK@get_road_link_breaks?5?$CIcurrent_n@ ; `string'
PUBLIC	??_C@_03PCBNCGFH@pos@				; `string'
PUBLIC	??_C@_0EA@DMFGJKJI@road_nodes?5?$FLcurrent_node?$FN?4side_@ ; `string'
PUBLIC	?__LINE__Var@?0??response_to_ground_force_retreat@@YGHW4ENTITY_MESSAGES@@PAUENTITY@@1PAD@Z@4JA ; `response_to_ground_force_retreat'::`1'::__LINE__Var
PUBLIC	??_C@_0DJ@CJBDGHJH@get_road_link_breaks?5?$CIcurrent_n@ ; `string'
PUBLIC	?__LINE__Var@?0??response_to_task_completed@@YGHW4ENTITY_MESSAGES@@PAUENTITY@@1PAD@Z@4JA ; `response_to_task_completed'::`1'::__LINE__Var
PUBLIC	??_C@_0DE@BIHOKKGH@get_local_entity_type?5?$CIsender?$CJ?5@ ; `string'
PUBLIC	??_C@_0DL@BDINOBID@GP_MSGS?3?5Group?5?$CFd?5Notifying?5Esc@ ; `string'
PUBLIC	??_C@_04GGKLLKOO@task@				; `string'
PUBLIC	??_C@_0DI@BMCMMFCK@GP_MSGS?3?5Response?5to?5task?5compl@ ; `string'
PUBLIC	?__LINE__Var@?0??response_to_task_terminated@@YGHW4ENTITY_MESSAGES@@PAUENTITY@@1PAD@Z@4JA ; `response_to_task_terminated'::`1'::__LINE__Var
PUBLIC	??_C@_0CH@BEGMHKAE@task_database?5?$FLtask_type?$FN?4prima@ ; `string'
PUBLIC	?__LINE__Var@?0??response_to_mobile_killed@@YGHW4ENTITY_MESSAGES@@PAUENTITY@@1PAD@Z@4JA ; `response_to_mobile_killed'::`1'::__LINE__Var
PUBLIC	??_C@_0DO@BAHPOFFO@get_local_entity_int_value?5?$CIsen@ ; `string'
PUBLIC	??_C@_0BP@FOJECDIJ@valid_members?5?$DN?$DN?5member_number@ ; `string'
PUBLIC	__real@0000000000000000
PUBLIC	__real@3e99999a
PUBLIC	__real@3f10000000000000
PUBLIC	__real@3f333333
PUBLIC	__real@3f4ccccd
PUBLIC	__real@3f800000
PUBLIC	__real@4034000000000000
PUBLIC	__real@404e000000000000
PUBLIC	__real@40b3880000000000
PUBLIC	__real@41a00000
PUBLIC	__real@41f00000
PUBLIC	__real@43340000
PUBLIC	__real@bf800000
EXTRN	?process_assert@@YGXPBD0H@Z:PROC		; process_assert
EXTRN	?debug_fatal@@YAXPBDZZ:PROC			; debug_fatal
EXTRN	?debug_log@@YAXPBDZZ:PROC			; debug_log
EXTRN	?notify_local_entity@@YAHW4ENTITY_MESSAGES@@PAUENTITY@@1ZZ:PROC ; notify_local_entity
EXTRN	?transmit_entity_comms_message@@YAXW4ENTITY_COMMS_MESSAGES@@PAUENTITY@@ZZ:PROC ; transmit_entity_comms_message
EXTRN	?notify_gunship_entity_mission_completed@@YGXPAUENTITY@@0@Z:PROC ; notify_gunship_entity_mission_completed
EXTRN	?notify_gunship_entity_mission_terminated@@YGXPAUENTITY@@0@Z:PROC ; notify_gunship_entity_mission_terminated
EXTRN	?set_local_division_name@@YGHPAUENTITY@@PAD@Z:PROC ; set_local_division_name
EXTRN	?play_client_server_speech@@YAHPAUENTITY@@0W4ENTITY_SIDES@@HW4SOUND_LOCALITY_TYPES@@MMMW4speech_originator_types@@W4speech_category_types@@MZZ:PROC ; play_client_server_speech
EXTRN	?play_client_server_cpg_message@@YGHPAUENTITY@@MMHMH@Z:PROC ; play_client_server_cpg_message
EXTRN	?play_client_server_wingman_message@@YGHPAUENTITY@@MMW4speech_category_types@@MW4speech_intro_types@@W4speech_array_types@@H@Z:PROC ; play_client_server_wingman_message
EXTRN	?get_speech_sector_coordinates@@YGPAHPAUVEC3D@@@Z:PROC ; get_speech_sector_coordinates
EXTRN	?get_local_force_entity@@YGPAUENTITY@@W4ENTITY_SIDES@@@Z:PROC ; get_local_force_entity
EXTRN	?get_group_at_road_node@@YGPAUENTITY@@H@Z:PROC	; get_group_at_road_node
EXTRN	?group_return_to_base@@YGXPAUENTITY@@@Z:PROC	; group_return_to_base
EXTRN	?kill_client_server_group_entity@@YGXPAUENTITY@@@Z:PROC ; kill_client_server_group_entity
EXTRN	?check_group_task_type@@YGHPAUENTITY@@H@Z:PROC	; check_group_task_type
EXTRN	?group_task_specific_retaliation_checks@@YGHPAUENTITY@@0H@Z:PROC ; group_task_specific_retaliation_checks
EXTRN	?delete_group_member_from_guide_entity@@YGXPAUENTITY@@0@Z:PROC ; delete_group_member_from_guide_entity
EXTRN	?add_local_entity_importance_to_keysite@@YGHPAUENTITY@@0@Z:PROC ; add_local_entity_importance_to_keysite
EXTRN	?subtract_local_entity_importance_from_keysite@@YGXPAUENTITY@@@Z:PROC ; subtract_local_entity_importance_from_keysite
EXTRN	?get_local_sector_entity@@YGPAUENTITY@@PAUVEC3D@@@Z:PROC ; get_local_sector_entity
EXTRN	?assess_task_completeness@@YG?AW4TASK_COMPLETED_TYPES@@PAUENTITY@@W4TASK_TERMINATED_TYPES@@@Z:PROC ; assess_task_completeness
EXTRN	?send_text_message@@YGXPAUENTITY@@0W4MESSAGE_TEXT_TYPES@@PBD@Z:PROC ; send_text_message
EXTRN	?notify_campaign_screen@@YGHW4CAMPAIGN_SCREEN_MESSAGES@@PAUENTITY@@@Z:PROC ; notify_campaign_screen
EXTRN	?assign_primary_task_to_group@@YGHPAUENTITY@@0@Z:PROC ; assign_primary_task_to_group
EXTRN	?reassign_group_members_to_valid_tasks@@YGHPAUENTITY@@0IH@Z:PROC ; reassign_group_members_to_valid_tasks
EXTRN	?check_group_members_awake@@YGHPAUENTITY@@@Z:PROC ; check_group_members_awake
EXTRN	?engage_specific_target@@YGHPAUENTITY@@0IH@Z:PROC ; engage_specific_target
EXTRN	?create_ground_force_task@@YGPAUENTITY@@HPAU1@HHM00@Z:PROC ; create_ground_force_task
EXTRN	?get_road_link_breaks@@YGHHH@Z:PROC		; get_road_link_breaks
EXTRN	?ai_log@@YAXPBDZZ:PROC				; ai_log
EXTRN	?random_number_seed@@3HA:DWORD			; random_number_seed
EXTRN	?null_entity_pointer_message@@3PBDB:DWORD	; null_entity_pointer_message
EXTRN	?system_comms_model@@3W4COMMS_MODEL_TYPES@@A:DWORD ; system_comms_model
EXTRN	?world_map@@3UWORLD_MAP_DATA@@A:BYTE		; world_map
EXTRN	?message_responses@@3PAY0GB@P6GHW4ENTITY_MESSAGES@@PAUENTITY@@1PAD@ZA:BYTE ; message_responses
EXTRN	?overload_invalid_list_type_message@@3PBDB:DWORD ; overload_invalid_list_type_message
EXTRN	?fn_get_local_entity_first_child@@3PAY0CN@P6GPAUENTITY@@PAU1@W4LIST_TYPES@@@ZA:BYTE ; fn_get_local_entity_first_child
EXTRN	?fn_get_local_entity_parent@@3PAY0CN@P6GPAUENTITY@@PAU1@W4LIST_TYPES@@@ZA:BYTE ; fn_get_local_entity_parent
EXTRN	?fn_get_local_entity_child_succ@@3PAY0CN@P6GPAUENTITY@@PAU1@W4LIST_TYPES@@@ZA:BYTE ; fn_get_local_entity_child_succ
EXTRN	?fn_destroy_client_server_entity@@3PAY01P6GXPAUENTITY@@@ZA:BYTE ; fn_destroy_client_server_entity
EXTRN	?fn_destroy_local_entity_family@@3PAP6GXPAUENTITY@@@ZA:BYTE ; fn_destroy_local_entity_family
EXTRN	?overload_invalid_float_type_message@@3PBDB:DWORD ; overload_invalid_float_type_message
EXTRN	?fn_set_local_entity_float_value@@3PAY0KP@P6GXPAUENTITY@@W4FLOAT_TYPES@@M@ZA:BYTE ; fn_set_local_entity_float_value
EXTRN	?fn_get_local_entity_float_value@@3PAY0KP@P6GMPAUENTITY@@W4FLOAT_TYPES@@@ZA:BYTE ; fn_get_local_entity_float_value
EXTRN	?overload_invalid_int_type_message@@3PBDB:DWORD	; overload_invalid_int_type_message
EXTRN	?fn_get_local_entity_int_value@@3PAY0BBH@P6GHPAUENTITY@@W4INT_TYPES@@@ZA:BYTE ; fn_get_local_entity_int_value
EXTRN	?overload_invalid_string_type_message@@3PBDB:DWORD ; overload_invalid_string_type_message
EXTRN	?fn_get_local_entity_string@@3PAY0N@P6GPBDPAUENTITY@@W4STRING_TYPES@@@ZA:BYTE ; fn_get_local_entity_string
EXTRN	?entities@@3PAUENTITY@@A:DWORD			; entities
EXTRN	?speech_sector_coordinates@@3PAHA:BYTE		; speech_sector_coordinates
EXTRN	?session_entity@@3PAUENTITY@@A:DWORD		; session_entity
EXTRN	?task_database@@3PAUTASK_DATA@@A:BYTE		; task_database
EXTRN	?road_nodes@@3PAUNODE_DATA@@A:DWORD		; road_nodes
EXTRN	?road_node_positions@@3PAUVEC3D@@A:DWORD	; road_node_positions
EXTRN	__fltused:DWORD
;	COMDAT __real@bf800000
CONST	SEGMENT
__real@bf800000 DD 0bf800000r			; -1
CONST	ENDS
;	COMDAT __real@43340000
CONST	SEGMENT
__real@43340000 DD 043340000r			; 180
CONST	ENDS
;	COMDAT __real@41f00000
CONST	SEGMENT
__real@41f00000 DD 041f00000r			; 30
CONST	ENDS
;	COMDAT __real@41a00000
CONST	SEGMENT
__real@41a00000 DD 041a00000r			; 20
CONST	ENDS
;	COMDAT __real@40b3880000000000
CONST	SEGMENT
__real@40b3880000000000 DQ 040b3880000000000r	; 5000
CONST	ENDS
;	COMDAT __real@404e000000000000
CONST	SEGMENT
__real@404e000000000000 DQ 0404e000000000000r	; 60
CONST	ENDS
;	COMDAT __real@4034000000000000
CONST	SEGMENT
__real@4034000000000000 DQ 04034000000000000r	; 20
CONST	ENDS
;	COMDAT __real@3f800000
CONST	SEGMENT
__real@3f800000 DD 03f800000r			; 1
CONST	ENDS
;	COMDAT __real@3f4ccccd
CONST	SEGMENT
__real@3f4ccccd DD 03f4ccccdr			; 0.8
CONST	ENDS
;	COMDAT __real@3f333333
CONST	SEGMENT
__real@3f333333 DD 03f333333r			; 0.7
CONST	ENDS
;	COMDAT __real@3f10000000000000
CONST	SEGMENT
__real@3f10000000000000 DQ 03f10000000000000r	; 6.10352e-05
CONST	ENDS
;	COMDAT __real@3e99999a
CONST	SEGMENT
__real@3e99999a DD 03e99999ar			; 0.3
CONST	ENDS
;	COMDAT __real@0000000000000000
CONST	SEGMENT
__real@0000000000000000 DQ 00000000000000000r	; 0
CONST	ENDS
;	COMDAT ??_C@_0BP@FOJECDIJ@valid_members?5?$DN?$DN?5member_number@
CONST	SEGMENT
??_C@_0BP@FOJECDIJ@valid_members?5?$DN?$DN?5member_number@ DB 'valid_memb'
	DB	'ers == member_number', 00H			; `string'
CONST	ENDS
;	COMDAT ??_C@_0DO@BAHPOFFO@get_local_entity_int_value?5?$CIsen@
CONST	SEGMENT
??_C@_0DO@BAHPOFFO@get_local_entity_int_value?5?$CIsen@ DB 'get_local_ent'
	DB	'ity_int_value (sender, INT_TYPE_IDENTIFY_MOBILE)', 00H ; `string'
CONST	ENDS
;	COMDAT ?__LINE__Var@?0??response_to_mobile_killed@@YGHW4ENTITY_MESSAGES@@PAUENTITY@@1PAD@Z@4JA
_DATA	SEGMENT
?__LINE__Var@?0??response_to_mobile_killed@@YGHW4ENTITY_MESSAGES@@PAUENTITY@@1PAD@Z@4JA DD 0502H ; `response_to_mobile_killed'::`1'::__LINE__Var
_DATA	ENDS
;	COMDAT ??_C@_0CH@BEGMHKAE@task_database?5?$FLtask_type?$FN?4prima@
CONST	SEGMENT
??_C@_0CH@BEGMHKAE@task_database?5?$FLtask_type?$FN?4prima@ DB 'task_data'
	DB	'base [task_type].primary_task', 00H		; `string'
CONST	ENDS
;	COMDAT ?__LINE__Var@?0??response_to_task_terminated@@YGHW4ENTITY_MESSAGES@@PAUENTITY@@1PAD@Z@4JA
_DATA	SEGMENT
?__LINE__Var@?0??response_to_task_terminated@@YGHW4ENTITY_MESSAGES@@PAUENTITY@@1PAD@Z@4JA DD 04a2H ; `response_to_task_terminated'::`1'::__LINE__Var
_DATA	ENDS
;	COMDAT ??_C@_0DI@BMCMMFCK@GP_MSGS?3?5Response?5to?5task?5compl@
CONST	SEGMENT
??_C@_0DI@BMCMMFCK@GP_MSGS?3?5Response?5to?5task?5compl@ DB 'GP_MSGS: Res'
	DB	'ponse to task completed - Task NOT complete', 00H ; `string'
CONST	ENDS
;	COMDAT ??_C@_04GGKLLKOO@task@
CONST	SEGMENT
??_C@_04GGKLLKOO@task@ DB 'task', 00H			; `string'
CONST	ENDS
;	COMDAT ??_C@_0DL@BDINOBID@GP_MSGS?3?5Group?5?$CFd?5Notifying?5Esc@
CONST	SEGMENT
??_C@_0DL@BDINOBID@GP_MSGS?3?5Group?5?$CFd?5Notifying?5Esc@ DB 'GP_MSGS: '
	DB	'Group %d Notifying Escort Task %d of completeness', 00H ; `string'
CONST	ENDS
;	COMDAT ??_C@_0DE@BIHOKKGH@get_local_entity_type?5?$CIsender?$CJ?5@
CONST	SEGMENT
??_C@_0DE@BIHOKKGH@get_local_entity_type?5?$CIsender?$CJ?5@ DB 'get_local'
	DB	'_entity_type (sender) == ENTITY_TYPE_GUIDE', 00H ; `string'
CONST	ENDS
;	COMDAT ?__LINE__Var@?0??response_to_task_completed@@YGHW4ENTITY_MESSAGES@@PAUENTITY@@1PAD@Z@4JA
_DATA	SEGMENT
?__LINE__Var@?0??response_to_task_completed@@YGHW4ENTITY_MESSAGES@@PAUENTITY@@1PAD@Z@4JA DD 03c7H ; `response_to_task_completed'::`1'::__LINE__Var
_DATA	ENDS
;	COMDAT ??_C@_0DJ@CJBDGHJH@get_road_link_breaks?5?$CIcurrent_n@
CONST	SEGMENT
??_C@_0DJ@CJBDGHJH@get_road_link_breaks?5?$CIcurrent_n@ DB 'get_road_link'
	DB	'_breaks (current_node, advancing_node) == 0', 00H ; `string'
CONST	ENDS
;	COMDAT ?__LINE__Var@?0??response_to_ground_force_retreat@@YGHW4ENTITY_MESSAGES@@PAUENTITY@@1PAD@Z@4JA
_DATA	SEGMENT
?__LINE__Var@?0??response_to_ground_force_retreat@@YGHW4ENTITY_MESSAGES@@PAUENTITY@@1PAD@Z@4JA DD 02d6H ; `response_to_ground_force_retreat'::`1'::__LINE__Var
_DATA	ENDS
;	COMDAT ??_C@_0EA@DMFGJKJI@road_nodes?5?$FLcurrent_node?$FN?4side_@
CONST	SEGMENT
??_C@_0EA@DMFGJKJI@road_nodes?5?$FLcurrent_node?$FN?4side_@ DB 'road_node'
	DB	's [current_node].side_occupying == ENTITY_SIDE_NEUTRAL', 00H ; `string'
CONST	ENDS
;	COMDAT ??_C@_03PCBNCGFH@pos@
CONST	SEGMENT
??_C@_03PCBNCGFH@pos@ DB 'pos', 00H			; `string'
CONST	ENDS
;	COMDAT ??_C@_0DH@MBMPEFHK@get_road_link_breaks?5?$CIcurrent_n@
CONST	SEGMENT
??_C@_0DH@MBMPEFHK@get_road_link_breaks?5?$CIcurrent_n@ DB 'get_road_link'
	DB	'_breaks (current_node, advance_node) == 0', 00H ; `string'
CONST	ENDS
;	COMDAT ?__LINE__Var@?0??response_to_ground_force_advance@@YGHW4ENTITY_MESSAGES@@PAUENTITY@@1PAD@Z@4JA
_DATA	SEGMENT
?__LINE__Var@?0??response_to_ground_force_advance@@YGHW4ENTITY_MESSAGES@@PAUENTITY@@1PAD@Z@4JA DD 019cH ; `response_to_ground_force_advance'::`1'::__LINE__Var
_DATA	ENDS
;	COMDAT ??_C@_05KIBFDOPF@pilot@
CONST	SEGMENT
??_C@_05KIBFDOPF@pilot@ DB 'pilot', 00H			; `string'
CONST	ENDS
;	COMDAT ?__LINE__Var@?0??response_to_entity_targeted@@YGHW4ENTITY_MESSAGES@@PAUENTITY@@1PAD@Z@4JA
_DATA	SEGMENT
?__LINE__Var@?0??response_to_entity_targeted@@YGHW4ENTITY_MESSAGES@@PAUENTITY@@1PAD@Z@4JA DD 016eH ; `response_to_entity_targeted'::`1'::__LINE__Var
_DATA	ENDS
;	COMDAT ??_C@_0DK@ENAKOJCA@?$CIRETALIATION?$CJ?5Group?5?$CFs?5Respondi@
CONST	SEGMENT
??_C@_0DK@ENAKOJCA@?$CIRETALIATION?$CJ?5Group?5?$CFs?5Respondi@ DB '(RETA'
	DB	'LIATION) Group %s Responding to being fired at by %s', 00H ; `string'
CONST	ENDS
;	COMDAT ??_C@_0EI@HHICLLNA@?$CIRETALIATION?$CJ?5Group?5?$CFs?5Requesti@
CONST	SEGMENT
??_C@_0EI@HHICLLNA@?$CIRETALIATION?$CJ?5Group?5?$CFs?5Requesti@ DB '(RETA'
	DB	'LIATION) Group %s Requesting Assistance after being fired at '
	DB	'by %s', 00H					; `string'
CONST	ENDS
;	COMDAT ??_C@_06CGHJMPBJ@sender@
CONST	SEGMENT
??_C@_06CGHJMPBJ@sender@ DB 'sender', 00H		; `string'
CONST	ENDS
;	COMDAT ??_C@_0CJ@DMBLBJBK@get_comms_model?5?$CI?$CJ?5?$DN?$DN?5COMMS_MOD@
CONST	SEGMENT
??_C@_0CJ@DMBLBJBK@get_comms_model?5?$CI?$CJ?5?$DN?$DN?5COMMS_MOD@ DB 'ge'
	DB	't_comms_model () == COMMS_MODEL_SERVER', 00H ; `string'
CONST	ENDS
;	COMDAT ?__LINE__Var@?0??response_to_entity_fired_at@@YGHW4ENTITY_MESSAGES@@PAUENTITY@@1PAD@Z@4JA
_DATA	SEGMENT
?__LINE__Var@?0??response_to_entity_fired_at@@YGHW4ENTITY_MESSAGES@@PAUENTITY@@1PAD@Z@4JA DD 0128H ; `response_to_entity_fired_at'::`1'::__LINE__Var
_DATA	ENDS
;	COMDAT ?__LINE__Var@?0??response_to_unlink_child@@YGHW4ENTITY_MESSAGES@@PAUENTITY@@1PAD@Z@4JA
_DATA	SEGMENT
?__LINE__Var@?0??response_to_unlink_child@@YGHW4ENTITY_MESSAGES@@PAUENTITY@@1PAD@Z@4JA DD 0afH ; `response_to_unlink_child'::`1'::__LINE__Var
_DATA	ENDS
;	COMDAT ??_C@_0EL@PBEBEHIP@c?3?2users?2nhv90?2projects?2eech?2ap@
CONST	SEGMENT
??_C@_0EL@PBEBEHIP@c?3?2users?2nhv90?2projects?2eech?2ap@ DB 'c:\users\nh'
	DB	'v90\projects\eech\aphavoc\source\entity\special\group\gp_msgs'
	DB	'.c', 00H					; `string'
CONST	ENDS
;	COMDAT ?__LINE__Var@?0??response_to_link_child@@YGHW4ENTITY_MESSAGES@@PAUENTITY@@1PAD@Z@4JA
_DATA	SEGMENT
?__LINE__Var@?0??response_to_link_child@@YGHW4ENTITY_MESSAGES@@PAUENTITY@@1PAD@Z@4JA DD 05aH ; `response_to_link_child'::`1'::__LINE__Var
_DATA	ENDS
; Function compile flags: /Odtp /ZI
; File c:\users\nhv90\projects\eech\aphavoc\source\entity\special\group\gp_msgs.c
;	COMDAT ?response_to_mobile_killed@@YGHW4ENTITY_MESSAGES@@PAUENTITY@@1PAD@Z
_TEXT	SEGMENT
tv368 = -92						; size = 4
tv328 = -92						; size = 4
tv305 = -92						; size = 4
tv282 = -92						; size = 4
tv261 = -92						; size = 4
tv240 = -92						; size = 4
tv211 = -92						; size = 4
tv186 = -92						; size = 4
tv165 = -92						; size = 4
tv143 = -92						; size = 4
tv88 = -92						; size = 4
tv360 = -88						; size = 4
tv346 = -88						; size = 4
tv321 = -88						; size = 4
tv297 = -88						; size = 4
tv274 = -88						; size = 4
tv253 = -88						; size = 4
tv232 = -88						; size = 4
tv204 = -88						; size = 4
tv197 = -88						; size = 4
tv178 = -88						; size = 4
tv157 = -88						; size = 4
tv136 = -88						; size = 4
tv80 = -88						; size = 4
_member_number$ = -20					; size = 4
_valid_members$ = -16					; size = 4
_next$ = -12						; size = 4
_task$ = -8						; size = 4
_guide$ = -4						; size = 4
_message$ = 8						; size = 4
_receiver$ = 12						; size = 4
_sender$ = 16						; size = 4
_pargs$ = 20						; size = 4
?response_to_mobile_killed@@YGHW4ENTITY_MESSAGES@@PAUENTITY@@1PAD@Z PROC ; response_to_mobile_killed, COMDAT

; 1282 : {

  00000	55		 push	 ebp
  00001	8b ec		 mov	 ebp, esp
  00003	83 ec 5c	 sub	 esp, 92			; 0000005cH
  00006	53		 push	 ebx
  00007	56		 push	 esi
  00008	57		 push	 edi

; 1283 : 	entity
; 1284 : 		*guide,
; 1285 : 		*task,
; 1286 : 		*next;
; 1287 : 
; 1288 : 	unsigned int
; 1289 : 		valid_members,
; 1290 : 		member_number;
; 1291 : 			
; 1292 : 	ASSERT (get_comms_model () == COMMS_MODEL_SERVER);

  00009	83 3d 00 00 00
	00 00		 cmp	 DWORD PTR ?system_comms_model@@3W4COMMS_MODEL_TYPES@@A, 0 ; system_comms_model
  00010	74 18		 je	 SHORT $LN9@response_t
  00012	a1 00 00 00 00	 mov	 eax, DWORD PTR ?__LINE__Var@?0??response_to_mobile_killed@@YGHW4ENTITY_MESSAGES@@PAUENTITY@@1PAD@Z@4JA
  00017	83 c0 0a	 add	 eax, 10			; 0000000aH
  0001a	50		 push	 eax
  0001b	68 00 00 00 00	 push	 OFFSET ??_C@_0EL@PBEBEHIP@c?3?2users?2nhv90?2projects?2eech?2ap@
  00020	68 00 00 00 00	 push	 OFFSET ??_C@_0CJ@DMBLBJBK@get_comms_model?5?$CI?$CJ?5?$DN?$DN?5COMMS_MOD@
  00025	e8 00 00 00 00	 call	 ?process_assert@@YGXPBD0H@Z ; process_assert
$LN9@response_t:

; 1293 : 
; 1294 : 	ASSERT (sender);

  0002a	83 7d 10 00	 cmp	 DWORD PTR _sender$[ebp], 0
  0002e	75 18		 jne	 SHORT $LN10@response_t
  00030	a1 00 00 00 00	 mov	 eax, DWORD PTR ?__LINE__Var@?0??response_to_mobile_killed@@YGHW4ENTITY_MESSAGES@@PAUENTITY@@1PAD@Z@4JA
  00035	83 c0 0c	 add	 eax, 12			; 0000000cH
  00038	50		 push	 eax
  00039	68 00 00 00 00	 push	 OFFSET ??_C@_0EL@PBEBEHIP@c?3?2users?2nhv90?2projects?2eech?2ap@
  0003e	68 00 00 00 00	 push	 OFFSET ??_C@_06CGHJMPBJ@sender@
  00043	e8 00 00 00 00	 call	 ?process_assert@@YGXPBD0H@Z ; process_assert
$LN10@response_t:

; 1295 : 
; 1296 : 	ASSERT (get_local_entity_int_value (sender, INT_TYPE_IDENTIFY_MOBILE));

  00048	83 7d 10 00	 cmp	 DWORD PTR _sender$[ebp], 0
  0004c	74 0a		 je	 SHORT $LN23@response_t
  0004e	8b 45 10	 mov	 eax, DWORD PTR _sender$[ebp]
  00051	8b 08		 mov	 ecx, DWORD PTR [eax]
  00053	89 4d a8	 mov	 DWORD PTR tv80[ebp], ecx
  00056	eb 21		 jmp	 SHORT $LN24@response_t
$LN23@response_t:
  00058	8b 15 00 00 00
	00		 mov	 edx, DWORD PTR ?__LINE__Var@?0??response_to_mobile_killed@@YGHW4ENTITY_MESSAGES@@PAUENTITY@@1PAD@Z@4JA
  0005e	83 c2 0e	 add	 edx, 14			; 0000000eH
  00061	52		 push	 edx
  00062	68 00 00 00 00	 push	 OFFSET ??_C@_0EL@PBEBEHIP@c?3?2users?2nhv90?2projects?2eech?2ap@
  00067	a1 00 00 00 00	 mov	 eax, DWORD PTR ?null_entity_pointer_message@@3PBDB ; null_entity_pointer_message
  0006c	50		 push	 eax
  0006d	e8 00 00 00 00	 call	 ?process_assert@@YGXPBD0H@Z ; process_assert
  00072	c7 45 a8 00 00
	00 00		 mov	 DWORD PTR tv80[ebp], 0
$LN24@response_t:
  00079	b9 01 00 00 00	 mov	 ecx, 1
  0007e	85 c9		 test	 ecx, ecx
  00080	74 09		 je	 SHORT $LN25@response_t
  00082	c7 45 a4 5d 00
	00 00		 mov	 DWORD PTR tv88[ebp], 93	; 0000005dH
  00089	eb 21		 jmp	 SHORT $LN26@response_t
$LN25@response_t:
  0008b	8b 15 00 00 00
	00		 mov	 edx, DWORD PTR ?__LINE__Var@?0??response_to_mobile_killed@@YGHW4ENTITY_MESSAGES@@PAUENTITY@@1PAD@Z@4JA
  00091	83 c2 0e	 add	 edx, 14			; 0000000eH
  00094	52		 push	 edx
  00095	68 00 00 00 00	 push	 OFFSET ??_C@_0EL@PBEBEHIP@c?3?2users?2nhv90?2projects?2eech?2ap@
  0009a	a1 00 00 00 00	 mov	 eax, DWORD PTR ?overload_invalid_int_type_message@@3PBDB ; overload_invalid_int_type_message
  0009f	50		 push	 eax
  000a0	e8 00 00 00 00	 call	 ?process_assert@@YGXPBD0H@Z ; process_assert
  000a5	c7 45 a4 00 00
	00 00		 mov	 DWORD PTR tv88[ebp], 0
$LN26@response_t:
  000ac	6a 5d		 push	 93			; 0000005dH
  000ae	8b 4d 10	 mov	 ecx, DWORD PTR _sender$[ebp]
  000b1	51		 push	 ecx
  000b2	69 55 a8 5c 04
	00 00		 imul	 edx, DWORD PTR tv80[ebp], 1116
  000b9	8b 45 a4	 mov	 eax, DWORD PTR tv88[ebp]
  000bc	8b 8c 82 00 00
	00 00		 mov	 ecx, DWORD PTR ?fn_get_local_entity_int_value@@3PAY0BBH@P6GHPAUENTITY@@W4INT_TYPES@@@ZA[edx+eax*4]
  000c3	ff d1		 call	 ecx
  000c5	85 c0		 test	 eax, eax
  000c7	75 18		 jne	 SHORT $LN11@response_t
  000c9	a1 00 00 00 00	 mov	 eax, DWORD PTR ?__LINE__Var@?0??response_to_mobile_killed@@YGHW4ENTITY_MESSAGES@@PAUENTITY@@1PAD@Z@4JA
  000ce	83 c0 0e	 add	 eax, 14			; 0000000eH
  000d1	50		 push	 eax
  000d2	68 00 00 00 00	 push	 OFFSET ??_C@_0EL@PBEBEHIP@c?3?2users?2nhv90?2projects?2eech?2ap@
  000d7	68 00 00 00 00	 push	 OFFSET ??_C@_0DO@BAHPOFFO@get_local_entity_int_value?5?$CIsen@
  000dc	e8 00 00 00 00	 call	 ?process_assert@@YGXPBD0H@Z ; process_assert
$LN11@response_t:

; 1297 : 
; 1298 : 	if (get_local_entity_int_value (receiver, INT_TYPE_MEMBER_COUNT) == 0)

  000e1	83 7d 0c 00	 cmp	 DWORD PTR _receiver$[ebp], 0
  000e5	74 0a		 je	 SHORT $LN27@response_t
  000e7	8b 45 0c	 mov	 eax, DWORD PTR _receiver$[ebp]
  000ea	8b 08		 mov	 ecx, DWORD PTR [eax]
  000ec	89 4d a8	 mov	 DWORD PTR tv136[ebp], ecx
  000ef	eb 1d		 jmp	 SHORT $LN28@response_t
$LN27@response_t:
  000f1	68 12 05 00 00	 push	 1298			; 00000512H
  000f6	68 00 00 00 00	 push	 OFFSET ??_C@_0EL@PBEBEHIP@c?3?2users?2nhv90?2projects?2eech?2ap@
  000fb	8b 15 00 00 00
	00		 mov	 edx, DWORD PTR ?null_entity_pointer_message@@3PBDB ; null_entity_pointer_message
  00101	52		 push	 edx
  00102	e8 00 00 00 00	 call	 ?process_assert@@YGXPBD0H@Z ; process_assert
  00107	c7 45 a8 00 00
	00 00		 mov	 DWORD PTR tv136[ebp], 0
$LN28@response_t:
  0010e	b8 01 00 00 00	 mov	 eax, 1
  00113	85 c0		 test	 eax, eax
  00115	74 09		 je	 SHORT $LN29@response_t
  00117	c7 45 a4 86 00
	00 00		 mov	 DWORD PTR tv143[ebp], 134 ; 00000086H
  0011e	eb 1d		 jmp	 SHORT $LN30@response_t
$LN29@response_t:
  00120	68 12 05 00 00	 push	 1298			; 00000512H
  00125	68 00 00 00 00	 push	 OFFSET ??_C@_0EL@PBEBEHIP@c?3?2users?2nhv90?2projects?2eech?2ap@
  0012a	8b 0d 00 00 00
	00		 mov	 ecx, DWORD PTR ?overload_invalid_int_type_message@@3PBDB ; overload_invalid_int_type_message
  00130	51		 push	 ecx
  00131	e8 00 00 00 00	 call	 ?process_assert@@YGXPBD0H@Z ; process_assert
  00136	c7 45 a4 00 00
	00 00		 mov	 DWORD PTR tv143[ebp], 0
$LN30@response_t:
  0013d	68 86 00 00 00	 push	 134			; 00000086H
  00142	8b 55 0c	 mov	 edx, DWORD PTR _receiver$[ebp]
  00145	52		 push	 edx
  00146	69 45 a8 5c 04
	00 00		 imul	 eax, DWORD PTR tv136[ebp], 1116
  0014d	8b 4d a4	 mov	 ecx, DWORD PTR tv143[ebp]
  00150	8b 94 88 00 00
	00 00		 mov	 edx, DWORD PTR ?fn_get_local_entity_int_value@@3PAY0BBH@P6GHPAUENTITY@@W4INT_TYPES@@@ZA[eax+ecx*4]
  00157	ff d2		 call	 edx
  00159	85 c0		 test	 eax, eax
  0015b	75 18		 jne	 SHORT $LN12@response_t

; 1299 : 	{
; 1300 : 		//
; 1301 : 		// group empty - so kill it (terminating ALL tasks)
; 1302 : 		//
; 1303 : 
; 1304 : 		kill_client_server_group_entity (receiver);

  0015d	8b 45 0c	 mov	 eax, DWORD PTR _receiver$[ebp]
  00160	50		 push	 eax
  00161	e8 00 00 00 00	 call	 ?kill_client_server_group_entity@@YGXPAUENTITY@@@Z ; kill_client_server_group_entity

; 1305 : 
; 1306 : 		return TRUE;

  00166	b8 01 00 00 00	 mov	 eax, 1
  0016b	e9 c9 05 00 00	 jmp	 $LN1@response_t

; 1307 : 	}
; 1308 : 	else

  00170	e9 bf 05 00 00	 jmp	 $LN13@response_t
$LN12@response_t:

; 1309 : 	{
; 1310 : 		//
; 1311 : 		// If the group is the objective of a task - check that task for completeness
; 1312 : 		//
; 1313 : 
; 1314 : 		task = get_local_entity_first_child (receiver, LIST_TYPE_TASK_DEPENDENT);

  00175	83 7d 0c 00	 cmp	 DWORD PTR _receiver$[ebp], 0
  00179	74 0a		 je	 SHORT $LN31@response_t
  0017b	8b 45 0c	 mov	 eax, DWORD PTR _receiver$[ebp]
  0017e	8b 08		 mov	 ecx, DWORD PTR [eax]
  00180	89 4d a8	 mov	 DWORD PTR tv157[ebp], ecx
  00183	eb 21		 jmp	 SHORT $LN32@response_t
$LN31@response_t:
  00185	8b 15 00 00 00
	00		 mov	 edx, DWORD PTR ?__LINE__Var@?0??response_to_mobile_killed@@YGHW4ENTITY_MESSAGES@@PAUENTITY@@1PAD@Z@4JA
  0018b	83 c2 20	 add	 edx, 32			; 00000020H
  0018e	52		 push	 edx
  0018f	68 00 00 00 00	 push	 OFFSET ??_C@_0EL@PBEBEHIP@c?3?2users?2nhv90?2projects?2eech?2ap@
  00194	a1 00 00 00 00	 mov	 eax, DWORD PTR ?null_entity_pointer_message@@3PBDB ; null_entity_pointer_message
  00199	50		 push	 eax
  0019a	e8 00 00 00 00	 call	 ?process_assert@@YGXPBD0H@Z ; process_assert
  0019f	c7 45 a8 00 00
	00 00		 mov	 DWORD PTR tv157[ebp], 0
$LN32@response_t:
  001a6	b9 01 00 00 00	 mov	 ecx, 1
  001ab	85 c9		 test	 ecx, ecx
  001ad	74 09		 je	 SHORT $LN33@response_t
  001af	c7 45 a4 27 00
	00 00		 mov	 DWORD PTR tv165[ebp], 39 ; 00000027H
  001b6	eb 21		 jmp	 SHORT $LN34@response_t
$LN33@response_t:
  001b8	8b 15 00 00 00
	00		 mov	 edx, DWORD PTR ?__LINE__Var@?0??response_to_mobile_killed@@YGHW4ENTITY_MESSAGES@@PAUENTITY@@1PAD@Z@4JA
  001be	83 c2 20	 add	 edx, 32			; 00000020H
  001c1	52		 push	 edx
  001c2	68 00 00 00 00	 push	 OFFSET ??_C@_0EL@PBEBEHIP@c?3?2users?2nhv90?2projects?2eech?2ap@
  001c7	a1 00 00 00 00	 mov	 eax, DWORD PTR ?overload_invalid_list_type_message@@3PBDB ; overload_invalid_list_type_message
  001cc	50		 push	 eax
  001cd	e8 00 00 00 00	 call	 ?process_assert@@YGXPBD0H@Z ; process_assert
  001d2	c7 45 a4 00 00
	00 00		 mov	 DWORD PTR tv165[ebp], 0
$LN34@response_t:
  001d9	6a 27		 push	 39			; 00000027H
  001db	8b 4d 0c	 mov	 ecx, DWORD PTR _receiver$[ebp]
  001de	51		 push	 ecx
  001df	69 55 a8 b4 00
	00 00		 imul	 edx, DWORD PTR tv157[ebp], 180
  001e6	8b 45 a4	 mov	 eax, DWORD PTR tv165[ebp]
  001e9	8b 8c 82 00 00
	00 00		 mov	 ecx, DWORD PTR ?fn_get_local_entity_first_child@@3PAY0CN@P6GPAUENTITY@@PAU1@W4LIST_TYPES@@@ZA[edx+eax*4]
  001f0	ff d1		 call	 ecx
  001f2	89 45 f8	 mov	 DWORD PTR _task$[ebp], eax
$LN2@response_t:

; 1315 : 
; 1316 : 		while (task)

  001f5	83 7d f8 00	 cmp	 DWORD PTR _task$[ebp], 0
  001f9	0f 84 62 01 00
	00		 je	 $LN3@response_t

; 1317 : 		{
; 1318 : 			next = get_local_entity_child_succ (task, LIST_TYPE_TASK_DEPENDENT);

  001ff	83 7d f8 00	 cmp	 DWORD PTR _task$[ebp], 0
  00203	74 0a		 je	 SHORT $LN35@response_t
  00205	8b 45 f8	 mov	 eax, DWORD PTR _task$[ebp]
  00208	8b 08		 mov	 ecx, DWORD PTR [eax]
  0020a	89 4d a8	 mov	 DWORD PTR tv178[ebp], ecx
  0020d	eb 21		 jmp	 SHORT $LN36@response_t
$LN35@response_t:
  0020f	8b 15 00 00 00
	00		 mov	 edx, DWORD PTR ?__LINE__Var@?0??response_to_mobile_killed@@YGHW4ENTITY_MESSAGES@@PAUENTITY@@1PAD@Z@4JA
  00215	83 c2 24	 add	 edx, 36			; 00000024H
  00218	52		 push	 edx
  00219	68 00 00 00 00	 push	 OFFSET ??_C@_0EL@PBEBEHIP@c?3?2users?2nhv90?2projects?2eech?2ap@
  0021e	a1 00 00 00 00	 mov	 eax, DWORD PTR ?null_entity_pointer_message@@3PBDB ; null_entity_pointer_message
  00223	50		 push	 eax
  00224	e8 00 00 00 00	 call	 ?process_assert@@YGXPBD0H@Z ; process_assert
  00229	c7 45 a8 00 00
	00 00		 mov	 DWORD PTR tv178[ebp], 0
$LN36@response_t:
  00230	b9 01 00 00 00	 mov	 ecx, 1
  00235	85 c9		 test	 ecx, ecx
  00237	74 09		 je	 SHORT $LN37@response_t
  00239	c7 45 a4 27 00
	00 00		 mov	 DWORD PTR tv186[ebp], 39 ; 00000027H
  00240	eb 21		 jmp	 SHORT $LN38@response_t
$LN37@response_t:
  00242	8b 15 00 00 00
	00		 mov	 edx, DWORD PTR ?__LINE__Var@?0??response_to_mobile_killed@@YGHW4ENTITY_MESSAGES@@PAUENTITY@@1PAD@Z@4JA
  00248	83 c2 24	 add	 edx, 36			; 00000024H
  0024b	52		 push	 edx
  0024c	68 00 00 00 00	 push	 OFFSET ??_C@_0EL@PBEBEHIP@c?3?2users?2nhv90?2projects?2eech?2ap@
  00251	a1 00 00 00 00	 mov	 eax, DWORD PTR ?overload_invalid_list_type_message@@3PBDB ; overload_invalid_list_type_message
  00256	50		 push	 eax
  00257	e8 00 00 00 00	 call	 ?process_assert@@YGXPBD0H@Z ; process_assert
  0025c	c7 45 a4 00 00
	00 00		 mov	 DWORD PTR tv186[ebp], 0
$LN38@response_t:
  00263	6a 27		 push	 39			; 00000027H
  00265	8b 4d f8	 mov	 ecx, DWORD PTR _task$[ebp]
  00268	51		 push	 ecx
  00269	69 55 a8 b4 00
	00 00		 imul	 edx, DWORD PTR tv178[ebp], 180
  00270	8b 45 a4	 mov	 eax, DWORD PTR tv186[ebp]
  00273	8b 8c 82 00 00
	00 00		 mov	 ecx, DWORD PTR ?fn_get_local_entity_child_succ@@3PAY0CN@P6GPAUENTITY@@PAU1@W4LIST_TYPES@@@ZA[edx+eax*4]
  0027a	ff d1		 call	 ecx
  0027c	89 45 f4	 mov	 DWORD PTR _next$[ebp], eax

; 1319 : 
; 1320 : 			if (get_local_entity_type (task) == ENTITY_TYPE_TASK)

  0027f	83 7d f8 00	 cmp	 DWORD PTR _task$[ebp], 0
  00283	74 0a		 je	 SHORT $LN39@response_t
  00285	8b 45 f8	 mov	 eax, DWORD PTR _task$[ebp]
  00288	8b 08		 mov	 ecx, DWORD PTR [eax]
  0028a	89 4d a8	 mov	 DWORD PTR tv197[ebp], ecx
  0028d	eb 1d		 jmp	 SHORT $LN40@response_t
$LN39@response_t:
  0028f	68 28 05 00 00	 push	 1320			; 00000528H
  00294	68 00 00 00 00	 push	 OFFSET ??_C@_0EL@PBEBEHIP@c?3?2users?2nhv90?2projects?2eech?2ap@
  00299	8b 15 00 00 00
	00		 mov	 edx, DWORD PTR ?null_entity_pointer_message@@3PBDB ; null_entity_pointer_message
  0029f	52		 push	 edx
  002a0	e8 00 00 00 00	 call	 ?process_assert@@YGXPBD0H@Z ; process_assert
  002a5	c7 45 a8 00 00
	00 00		 mov	 DWORD PTR tv197[ebp], 0
$LN40@response_t:
  002ac	83 7d a8 22	 cmp	 DWORD PTR tv197[ebp], 34 ; 00000022H
  002b0	0f 85 a0 00 00
	00		 jne	 $LN14@response_t

; 1321 : 			{
; 1322 : 				if (!get_local_entity_int_value (task, INT_TYPE_TASK_COMPLETED))

  002b6	83 7d f8 00	 cmp	 DWORD PTR _task$[ebp], 0
  002ba	74 0a		 je	 SHORT $LN41@response_t
  002bc	8b 45 f8	 mov	 eax, DWORD PTR _task$[ebp]
  002bf	8b 08		 mov	 ecx, DWORD PTR [eax]
  002c1	89 4d a8	 mov	 DWORD PTR tv204[ebp], ecx
  002c4	eb 1d		 jmp	 SHORT $LN42@response_t
$LN41@response_t:
  002c6	68 2a 05 00 00	 push	 1322			; 0000052aH
  002cb	68 00 00 00 00	 push	 OFFSET ??_C@_0EL@PBEBEHIP@c?3?2users?2nhv90?2projects?2eech?2ap@
  002d0	8b 15 00 00 00
	00		 mov	 edx, DWORD PTR ?null_entity_pointer_message@@3PBDB ; null_entity_pointer_message
  002d6	52		 push	 edx
  002d7	e8 00 00 00 00	 call	 ?process_assert@@YGXPBD0H@Z ; process_assert
  002dc	c7 45 a8 00 00
	00 00		 mov	 DWORD PTR tv204[ebp], 0
$LN42@response_t:
  002e3	b8 01 00 00 00	 mov	 eax, 1
  002e8	85 c0		 test	 eax, eax
  002ea	74 09		 je	 SHORT $LN43@response_t
  002ec	c7 45 a4 d9 00
	00 00		 mov	 DWORD PTR tv211[ebp], 217 ; 000000d9H
  002f3	eb 1d		 jmp	 SHORT $LN44@response_t
$LN43@response_t:
  002f5	68 2a 05 00 00	 push	 1322			; 0000052aH
  002fa	68 00 00 00 00	 push	 OFFSET ??_C@_0EL@PBEBEHIP@c?3?2users?2nhv90?2projects?2eech?2ap@
  002ff	8b 0d 00 00 00
	00		 mov	 ecx, DWORD PTR ?overload_invalid_int_type_message@@3PBDB ; overload_invalid_int_type_message
  00305	51		 push	 ecx
  00306	e8 00 00 00 00	 call	 ?process_assert@@YGXPBD0H@Z ; process_assert
  0030b	c7 45 a4 00 00
	00 00		 mov	 DWORD PTR tv211[ebp], 0
$LN44@response_t:
  00312	68 d9 00 00 00	 push	 217			; 000000d9H
  00317	8b 55 f8	 mov	 edx, DWORD PTR _task$[ebp]
  0031a	52		 push	 edx
  0031b	69 45 a8 5c 04
	00 00		 imul	 eax, DWORD PTR tv204[ebp], 1116
  00322	8b 4d a4	 mov	 ecx, DWORD PTR tv211[ebp]
  00325	8b 94 88 00 00
	00 00		 mov	 edx, DWORD PTR ?fn_get_local_entity_int_value@@3PAY0BBH@P6GHPAUENTITY@@W4INT_TYPES@@@ZA[eax+ecx*4]
  0032c	ff d2		 call	 edx
  0032e	85 c0		 test	 eax, eax
  00330	75 24		 jne	 SHORT $LN14@response_t

; 1323 : 				{
; 1324 : 					if (assess_task_completeness (task, TASK_TERMINATED_IN_PROGRESS) == TASK_COMPLETED_SUCCESS)

  00332	6a 00		 push	 0
  00334	8b 45 f8	 mov	 eax, DWORD PTR _task$[ebp]
  00337	50		 push	 eax
  00338	e8 00 00 00 00	 call	 ?assess_task_completeness@@YG?AW4TASK_COMPLETED_TYPES@@PAUENTITY@@W4TASK_TERMINATED_TYPES@@@Z ; assess_task_completeness
  0033d	83 f8 03	 cmp	 eax, 3
  00340	75 14		 jne	 SHORT $LN14@response_t

; 1325 : 					{
; 1326 : 						notify_local_entity (ENTITY_MESSAGE_TASK_COMPLETED, task, receiver, TASK_TERMINATED_OBJECTIVE_MESSAGE);

  00342	6a 04		 push	 4
  00344	8b 45 0c	 mov	 eax, DWORD PTR _receiver$[ebp]
  00347	50		 push	 eax
  00348	8b 4d f8	 mov	 ecx, DWORD PTR _task$[ebp]
  0034b	51		 push	 ecx
  0034c	6a 32		 push	 50			; 00000032H
  0034e	e8 00 00 00 00	 call	 ?notify_local_entity@@YAHW4ENTITY_MESSAGES@@PAUENTITY@@1ZZ ; notify_local_entity
  00353	83 c4 10	 add	 esp, 16			; 00000010H
$LN14@response_t:

; 1327 : 					}
; 1328 : 				}
; 1329 : 			}
; 1330 : 
; 1331 : 			task = next;

  00356	8b 45 f4	 mov	 eax, DWORD PTR _next$[ebp]
  00359	89 45 f8	 mov	 DWORD PTR _task$[ebp], eax

; 1332 : 		}

  0035c	e9 94 fe ff ff	 jmp	 $LN2@response_t
$LN3@response_t:

; 1333 : 		
; 1334 : 		//
; 1335 : 		// Remove dead mobile from GUIDE entities "valid_members" - any guides left with no valid members will be destroyed
; 1336 : 		//
; 1337 : 
; 1338 : 		//
; 1339 : 		// Done in a seemingly inefficient way because "delete_group_member_from_guide_entity" can indirectly destroy
; 1340 : 		// more than one guide in the group's guide stack 
; 1341 : 		//
; 1342 : 		
; 1343 : 		member_number = (1 << get_local_entity_int_value (sender, INT_TYPE_GROUP_MEMBER_NUMBER));

  00361	83 7d 10 00	 cmp	 DWORD PTR _sender$[ebp], 0
  00365	74 0a		 je	 SHORT $LN45@response_t
  00367	8b 45 10	 mov	 eax, DWORD PTR _sender$[ebp]
  0036a	8b 08		 mov	 ecx, DWORD PTR [eax]
  0036c	89 4d a8	 mov	 DWORD PTR tv232[ebp], ecx
  0036f	eb 21		 jmp	 SHORT $LN46@response_t
$LN45@response_t:
  00371	8b 15 00 00 00
	00		 mov	 edx, DWORD PTR ?__LINE__Var@?0??response_to_mobile_killed@@YGHW4ENTITY_MESSAGES@@PAUENTITY@@1PAD@Z@4JA
  00377	83 c2 3d	 add	 edx, 61			; 0000003dH
  0037a	52		 push	 edx
  0037b	68 00 00 00 00	 push	 OFFSET ??_C@_0EL@PBEBEHIP@c?3?2users?2nhv90?2projects?2eech?2ap@
  00380	a1 00 00 00 00	 mov	 eax, DWORD PTR ?null_entity_pointer_message@@3PBDB ; null_entity_pointer_message
  00385	50		 push	 eax
  00386	e8 00 00 00 00	 call	 ?process_assert@@YGXPBD0H@Z ; process_assert
  0038b	c7 45 a8 00 00
	00 00		 mov	 DWORD PTR tv232[ebp], 0
$LN46@response_t:
  00392	b9 01 00 00 00	 mov	 ecx, 1
  00397	85 c9		 test	 ecx, ecx
  00399	74 09		 je	 SHORT $LN47@response_t
  0039b	c7 45 a4 4b 00
	00 00		 mov	 DWORD PTR tv240[ebp], 75 ; 0000004bH
  003a2	eb 21		 jmp	 SHORT $LN48@response_t
$LN47@response_t:
  003a4	8b 15 00 00 00
	00		 mov	 edx, DWORD PTR ?__LINE__Var@?0??response_to_mobile_killed@@YGHW4ENTITY_MESSAGES@@PAUENTITY@@1PAD@Z@4JA
  003aa	83 c2 3d	 add	 edx, 61			; 0000003dH
  003ad	52		 push	 edx
  003ae	68 00 00 00 00	 push	 OFFSET ??_C@_0EL@PBEBEHIP@c?3?2users?2nhv90?2projects?2eech?2ap@
  003b3	a1 00 00 00 00	 mov	 eax, DWORD PTR ?overload_invalid_int_type_message@@3PBDB ; overload_invalid_int_type_message
  003b8	50		 push	 eax
  003b9	e8 00 00 00 00	 call	 ?process_assert@@YGXPBD0H@Z ; process_assert
  003be	c7 45 a4 00 00
	00 00		 mov	 DWORD PTR tv240[ebp], 0
$LN48@response_t:
  003c5	6a 4b		 push	 75			; 0000004bH
  003c7	8b 4d 10	 mov	 ecx, DWORD PTR _sender$[ebp]
  003ca	51		 push	 ecx
  003cb	69 55 a8 5c 04
	00 00		 imul	 edx, DWORD PTR tv232[ebp], 1116
  003d2	8b 45 a4	 mov	 eax, DWORD PTR tv240[ebp]
  003d5	8b 8c 82 00 00
	00 00		 mov	 ecx, DWORD PTR ?fn_get_local_entity_int_value@@3PAY0BBH@P6GHPAUENTITY@@W4INT_TYPES@@@ZA[edx+eax*4]
  003dc	ff d1		 call	 ecx
  003de	ba 01 00 00 00	 mov	 edx, 1
  003e3	8b c8		 mov	 ecx, eax
  003e5	d3 e2		 shl	 edx, cl
  003e7	89 55 ec	 mov	 DWORD PTR _member_number$[ebp], edx
$LN6@response_t:

; 1344 : 
; 1345 : 		do
; 1346 : 		{
; 1347 : 			guide = get_local_entity_first_child (receiver, LIST_TYPE_GUIDE_STACK);

  003ea	83 7d 0c 00	 cmp	 DWORD PTR _receiver$[ebp], 0
  003ee	74 0a		 je	 SHORT $LN49@response_t
  003f0	8b 45 0c	 mov	 eax, DWORD PTR _receiver$[ebp]
  003f3	8b 08		 mov	 ecx, DWORD PTR [eax]
  003f5	89 4d a8	 mov	 DWORD PTR tv253[ebp], ecx
  003f8	eb 21		 jmp	 SHORT $LN50@response_t
$LN49@response_t:
  003fa	8b 15 00 00 00
	00		 mov	 edx, DWORD PTR ?__LINE__Var@?0??response_to_mobile_killed@@YGHW4ENTITY_MESSAGES@@PAUENTITY@@1PAD@Z@4JA
  00400	83 c2 41	 add	 edx, 65			; 00000041H
  00403	52		 push	 edx
  00404	68 00 00 00 00	 push	 OFFSET ??_C@_0EL@PBEBEHIP@c?3?2users?2nhv90?2projects?2eech?2ap@
  00409	a1 00 00 00 00	 mov	 eax, DWORD PTR ?null_entity_pointer_message@@3PBDB ; null_entity_pointer_message
  0040e	50		 push	 eax
  0040f	e8 00 00 00 00	 call	 ?process_assert@@YGXPBD0H@Z ; process_assert
  00414	c7 45 a8 00 00
	00 00		 mov	 DWORD PTR tv253[ebp], 0
$LN50@response_t:
  0041b	b9 01 00 00 00	 mov	 ecx, 1
  00420	85 c9		 test	 ecx, ecx
  00422	74 09		 je	 SHORT $LN51@response_t
  00424	c7 45 a4 11 00
	00 00		 mov	 DWORD PTR tv261[ebp], 17 ; 00000011H
  0042b	eb 21		 jmp	 SHORT $LN52@response_t
$LN51@response_t:
  0042d	8b 15 00 00 00
	00		 mov	 edx, DWORD PTR ?__LINE__Var@?0??response_to_mobile_killed@@YGHW4ENTITY_MESSAGES@@PAUENTITY@@1PAD@Z@4JA
  00433	83 c2 41	 add	 edx, 65			; 00000041H
  00436	52		 push	 edx
  00437	68 00 00 00 00	 push	 OFFSET ??_C@_0EL@PBEBEHIP@c?3?2users?2nhv90?2projects?2eech?2ap@
  0043c	a1 00 00 00 00	 mov	 eax, DWORD PTR ?overload_invalid_list_type_message@@3PBDB ; overload_invalid_list_type_message
  00441	50		 push	 eax
  00442	e8 00 00 00 00	 call	 ?process_assert@@YGXPBD0H@Z ; process_assert
  00447	c7 45 a4 00 00
	00 00		 mov	 DWORD PTR tv261[ebp], 0
$LN52@response_t:
  0044e	6a 11		 push	 17			; 00000011H
  00450	8b 4d 0c	 mov	 ecx, DWORD PTR _receiver$[ebp]
  00453	51		 push	 ecx
  00454	69 55 a8 b4 00
	00 00		 imul	 edx, DWORD PTR tv253[ebp], 180
  0045b	8b 45 a4	 mov	 eax, DWORD PTR tv261[ebp]
  0045e	8b 8c 82 00 00
	00 00		 mov	 ecx, DWORD PTR ?fn_get_local_entity_first_child@@3PAY0CN@P6GPAUENTITY@@PAU1@W4LIST_TYPES@@@ZA[edx+eax*4]
  00465	ff d1		 call	 ecx
  00467	89 45 fc	 mov	 DWORD PTR _guide$[ebp], eax
$LN7@response_t:

; 1348 : 
; 1349 : 			while (guide)

  0046a	83 7d fc 00	 cmp	 DWORD PTR _guide$[ebp], 0
  0046e	0f 84 b6 02 00
	00		 je	 $LN4@response_t

; 1350 : 			{
; 1351 : 				valid_members = get_local_entity_int_value (guide, INT_TYPE_VALID_GUIDE_MEMBERS);

  00474	83 7d fc 00	 cmp	 DWORD PTR _guide$[ebp], 0
  00478	74 0a		 je	 SHORT $LN53@response_t
  0047a	8b 45 fc	 mov	 eax, DWORD PTR _guide$[ebp]
  0047d	8b 08		 mov	 ecx, DWORD PTR [eax]
  0047f	89 4d a8	 mov	 DWORD PTR tv274[ebp], ecx
  00482	eb 21		 jmp	 SHORT $LN54@response_t
$LN53@response_t:
  00484	8b 15 00 00 00
	00		 mov	 edx, DWORD PTR ?__LINE__Var@?0??response_to_mobile_killed@@YGHW4ENTITY_MESSAGES@@PAUENTITY@@1PAD@Z@4JA
  0048a	83 c2 45	 add	 edx, 69			; 00000045H
  0048d	52		 push	 edx
  0048e	68 00 00 00 00	 push	 OFFSET ??_C@_0EL@PBEBEHIP@c?3?2users?2nhv90?2projects?2eech?2ap@
  00493	a1 00 00 00 00	 mov	 eax, DWORD PTR ?null_entity_pointer_message@@3PBDB ; null_entity_pointer_message
  00498	50		 push	 eax
  00499	e8 00 00 00 00	 call	 ?process_assert@@YGXPBD0H@Z ; process_assert
  0049e	c7 45 a8 00 00
	00 00		 mov	 DWORD PTR tv274[ebp], 0
$LN54@response_t:
  004a5	b9 01 00 00 00	 mov	 ecx, 1
  004aa	85 c9		 test	 ecx, ecx
  004ac	74 09		 je	 SHORT $LN55@response_t
  004ae	c7 45 a4 f0 00
	00 00		 mov	 DWORD PTR tv282[ebp], 240 ; 000000f0H
  004b5	eb 21		 jmp	 SHORT $LN56@response_t
$LN55@response_t:
  004b7	8b 15 00 00 00
	00		 mov	 edx, DWORD PTR ?__LINE__Var@?0??response_to_mobile_killed@@YGHW4ENTITY_MESSAGES@@PAUENTITY@@1PAD@Z@4JA
  004bd	83 c2 45	 add	 edx, 69			; 00000045H
  004c0	52		 push	 edx
  004c1	68 00 00 00 00	 push	 OFFSET ??_C@_0EL@PBEBEHIP@c?3?2users?2nhv90?2projects?2eech?2ap@
  004c6	a1 00 00 00 00	 mov	 eax, DWORD PTR ?overload_invalid_int_type_message@@3PBDB ; overload_invalid_int_type_message
  004cb	50		 push	 eax
  004cc	e8 00 00 00 00	 call	 ?process_assert@@YGXPBD0H@Z ; process_assert
  004d1	c7 45 a4 00 00
	00 00		 mov	 DWORD PTR tv282[ebp], 0
$LN56@response_t:
  004d8	68 f0 00 00 00	 push	 240			; 000000f0H
  004dd	8b 4d fc	 mov	 ecx, DWORD PTR _guide$[ebp]
  004e0	51		 push	 ecx
  004e1	69 55 a8 5c 04
	00 00		 imul	 edx, DWORD PTR tv274[ebp], 1116
  004e8	8b 45 a4	 mov	 eax, DWORD PTR tv282[ebp]
  004eb	8b 8c 82 00 00
	00 00		 mov	 ecx, DWORD PTR ?fn_get_local_entity_int_value@@3PAY0BBH@P6GHPAUENTITY@@W4INT_TYPES@@@ZA[edx+eax*4]
  004f2	ff d1		 call	 ecx
  004f4	89 45 f0	 mov	 DWORD PTR _valid_members$[ebp], eax

; 1352 : 
; 1353 : 				if ((valid_members != TASK_ASSIGN_ALL_MEMBERS) && (valid_members & member_number))

  004f7	83 7d f0 ff	 cmp	 DWORD PTR _valid_members$[ebp], -1
  004fb	0f 84 a4 01 00
	00		 je	 $LN17@response_t
  00501	8b 45 f0	 mov	 eax, DWORD PTR _valid_members$[ebp]
  00504	23 45 ec	 and	 eax, DWORD PTR _member_number$[ebp]
  00507	0f 84 98 01 00
	00		 je	 $LN17@response_t

; 1354 : 				{
; 1355 : 					task = get_local_entity_parent (guide, LIST_TYPE_GUIDE);

  0050d	83 7d fc 00	 cmp	 DWORD PTR _guide$[ebp], 0
  00511	74 0a		 je	 SHORT $LN57@response_t
  00513	8b 45 fc	 mov	 eax, DWORD PTR _guide$[ebp]
  00516	8b 08		 mov	 ecx, DWORD PTR [eax]
  00518	89 4d a8	 mov	 DWORD PTR tv297[ebp], ecx
  0051b	eb 21		 jmp	 SHORT $LN58@response_t
$LN57@response_t:
  0051d	8b 15 00 00 00
	00		 mov	 edx, DWORD PTR ?__LINE__Var@?0??response_to_mobile_killed@@YGHW4ENTITY_MESSAGES@@PAUENTITY@@1PAD@Z@4JA
  00523	83 c2 49	 add	 edx, 73			; 00000049H
  00526	52		 push	 edx
  00527	68 00 00 00 00	 push	 OFFSET ??_C@_0EL@PBEBEHIP@c?3?2users?2nhv90?2projects?2eech?2ap@
  0052c	a1 00 00 00 00	 mov	 eax, DWORD PTR ?null_entity_pointer_message@@3PBDB ; null_entity_pointer_message
  00531	50		 push	 eax
  00532	e8 00 00 00 00	 call	 ?process_assert@@YGXPBD0H@Z ; process_assert
  00537	c7 45 a8 00 00
	00 00		 mov	 DWORD PTR tv297[ebp], 0
$LN58@response_t:
  0053e	b9 01 00 00 00	 mov	 ecx, 1
  00543	85 c9		 test	 ecx, ecx
  00545	74 09		 je	 SHORT $LN59@response_t
  00547	c7 45 a4 10 00
	00 00		 mov	 DWORD PTR tv305[ebp], 16 ; 00000010H
  0054e	eb 21		 jmp	 SHORT $LN60@response_t
$LN59@response_t:
  00550	8b 15 00 00 00
	00		 mov	 edx, DWORD PTR ?__LINE__Var@?0??response_to_mobile_killed@@YGHW4ENTITY_MESSAGES@@PAUENTITY@@1PAD@Z@4JA
  00556	83 c2 49	 add	 edx, 73			; 00000049H
  00559	52		 push	 edx
  0055a	68 00 00 00 00	 push	 OFFSET ??_C@_0EL@PBEBEHIP@c?3?2users?2nhv90?2projects?2eech?2ap@
  0055f	a1 00 00 00 00	 mov	 eax, DWORD PTR ?overload_invalid_list_type_message@@3PBDB ; overload_invalid_list_type_message
  00564	50		 push	 eax
  00565	e8 00 00 00 00	 call	 ?process_assert@@YGXPBD0H@Z ; process_assert
  0056a	c7 45 a4 00 00
	00 00		 mov	 DWORD PTR tv305[ebp], 0
$LN60@response_t:
  00571	6a 10		 push	 16			; 00000010H
  00573	8b 4d fc	 mov	 ecx, DWORD PTR _guide$[ebp]
  00576	51		 push	 ecx
  00577	69 55 a8 b4 00
	00 00		 imul	 edx, DWORD PTR tv297[ebp], 180
  0057e	8b 45 a4	 mov	 eax, DWORD PTR tv305[ebp]
  00581	8b 8c 82 00 00
	00 00		 mov	 ecx, DWORD PTR ?fn_get_local_entity_parent@@3PAY0CN@P6GPAUENTITY@@PAU1@W4LIST_TYPES@@@ZA[edx+eax*4]
  00588	ff d1		 call	 ecx
  0058a	89 45 f8	 mov	 DWORD PTR _task$[ebp], eax

; 1356 : 
; 1357 : 					ASSERT (task);

  0058d	83 7d f8 00	 cmp	 DWORD PTR _task$[ebp], 0
  00591	75 18		 jne	 SHORT $LN18@response_t
  00593	a1 00 00 00 00	 mov	 eax, DWORD PTR ?__LINE__Var@?0??response_to_mobile_killed@@YGHW4ENTITY_MESSAGES@@PAUENTITY@@1PAD@Z@4JA
  00598	83 c0 4b	 add	 eax, 75			; 0000004bH
  0059b	50		 push	 eax
  0059c	68 00 00 00 00	 push	 OFFSET ??_C@_0EL@PBEBEHIP@c?3?2users?2nhv90?2projects?2eech?2ap@
  005a1	68 00 00 00 00	 push	 OFFSET ??_C@_04GGKLLKOO@task@
  005a6	e8 00 00 00 00	 call	 ?process_assert@@YGXPBD0H@Z ; process_assert
$LN18@response_t:

; 1358 : 
; 1359 : 					if (get_local_entity_int_value (task, INT_TYPE_SOLO_TASK))

  005ab	83 7d f8 00	 cmp	 DWORD PTR _task$[ebp], 0
  005af	74 0a		 je	 SHORT $LN61@response_t
  005b1	8b 45 f8	 mov	 eax, DWORD PTR _task$[ebp]
  005b4	8b 08		 mov	 ecx, DWORD PTR [eax]
  005b6	89 4d a8	 mov	 DWORD PTR tv321[ebp], ecx
  005b9	eb 1d		 jmp	 SHORT $LN62@response_t
$LN61@response_t:
  005bb	68 4f 05 00 00	 push	 1359			; 0000054fH
  005c0	68 00 00 00 00	 push	 OFFSET ??_C@_0EL@PBEBEHIP@c?3?2users?2nhv90?2projects?2eech?2ap@
  005c5	8b 15 00 00 00
	00		 mov	 edx, DWORD PTR ?null_entity_pointer_message@@3PBDB ; null_entity_pointer_message
  005cb	52		 push	 edx
  005cc	e8 00 00 00 00	 call	 ?process_assert@@YGXPBD0H@Z ; process_assert
  005d1	c7 45 a8 00 00
	00 00		 mov	 DWORD PTR tv321[ebp], 0
$LN62@response_t:
  005d8	b8 01 00 00 00	 mov	 eax, 1
  005dd	85 c0		 test	 eax, eax
  005df	74 09		 je	 SHORT $LN63@response_t
  005e1	c7 45 a4 bf 00
	00 00		 mov	 DWORD PTR tv328[ebp], 191 ; 000000bfH
  005e8	eb 1d		 jmp	 SHORT $LN64@response_t
$LN63@response_t:
  005ea	68 4f 05 00 00	 push	 1359			; 0000054fH
  005ef	68 00 00 00 00	 push	 OFFSET ??_C@_0EL@PBEBEHIP@c?3?2users?2nhv90?2projects?2eech?2ap@
  005f4	8b 0d 00 00 00
	00		 mov	 ecx, DWORD PTR ?overload_invalid_int_type_message@@3PBDB ; overload_invalid_int_type_message
  005fa	51		 push	 ecx
  005fb	e8 00 00 00 00	 call	 ?process_assert@@YGXPBD0H@Z ; process_assert
  00600	c7 45 a4 00 00
	00 00		 mov	 DWORD PTR tv328[ebp], 0
$LN64@response_t:
  00607	68 bf 00 00 00	 push	 191			; 000000bfH
  0060c	8b 55 f8	 mov	 edx, DWORD PTR _task$[ebp]
  0060f	52		 push	 edx
  00610	69 45 a8 5c 04
	00 00		 imul	 eax, DWORD PTR tv321[ebp], 1116
  00617	8b 4d a4	 mov	 ecx, DWORD PTR tv328[ebp]
  0061a	8b 94 88 00 00
	00 00		 mov	 edx, DWORD PTR ?fn_get_local_entity_int_value@@3PAY0BBH@P6GHPAUENTITY@@W4INT_TYPES@@@ZA[eax+ecx*4]
  00621	ff d2		 call	 edx
  00623	85 c0		 test	 eax, eax
  00625	74 6c		 je	 SHORT $LN19@response_t

; 1360 : 					{
; 1361 : 						//
; 1362 : 						// special case for ENGAGE / LANDING tasks etc...
; 1363 : 						// DO NOT terminate the task, since other mobiles may still be doing it (or can do it in the future)
; 1364 : 						// Instead, simply destroy the guide
; 1365 : 						//
; 1366 : 
; 1367 : 						ASSERT (valid_members == member_number);

  00627	8b 45 f0	 mov	 eax, DWORD PTR _valid_members$[ebp]
  0062a	3b 45 ec	 cmp	 eax, DWORD PTR _member_number$[ebp]
  0062d	74 18		 je	 SHORT $LN21@response_t
  0062f	a1 00 00 00 00	 mov	 eax, DWORD PTR ?__LINE__Var@?0??response_to_mobile_killed@@YGHW4ENTITY_MESSAGES@@PAUENTITY@@1PAD@Z@4JA
  00634	83 c0 55	 add	 eax, 85			; 00000055H
  00637	50		 push	 eax
  00638	68 00 00 00 00	 push	 OFFSET ??_C@_0EL@PBEBEHIP@c?3?2users?2nhv90?2projects?2eech?2ap@
  0063d	68 00 00 00 00	 push	 OFFSET ??_C@_0BP@FOJECDIJ@valid_members?5?$DN?$DN?5member_number@
  00642	e8 00 00 00 00	 call	 ?process_assert@@YGXPBD0H@Z ; process_assert
$LN21@response_t:

; 1368 : 
; 1369 : 						destroy_client_server_entity (guide);

  00647	83 7d fc 00	 cmp	 DWORD PTR _guide$[ebp], 0
  0064b	74 0a		 je	 SHORT $LN65@response_t
  0064d	8b 45 fc	 mov	 eax, DWORD PTR _guide$[ebp]
  00650	8b 08		 mov	 ecx, DWORD PTR [eax]
  00652	89 4d a8	 mov	 DWORD PTR tv346[ebp], ecx
  00655	eb 21		 jmp	 SHORT $LN66@response_t
$LN65@response_t:
  00657	8b 15 00 00 00
	00		 mov	 edx, DWORD PTR ?__LINE__Var@?0??response_to_mobile_killed@@YGHW4ENTITY_MESSAGES@@PAUENTITY@@1PAD@Z@4JA
  0065d	83 c2 57	 add	 edx, 87			; 00000057H
  00660	52		 push	 edx
  00661	68 00 00 00 00	 push	 OFFSET ??_C@_0EL@PBEBEHIP@c?3?2users?2nhv90?2projects?2eech?2ap@
  00666	a1 00 00 00 00	 mov	 eax, DWORD PTR ?null_entity_pointer_message@@3PBDB ; null_entity_pointer_message
  0066b	50		 push	 eax
  0066c	e8 00 00 00 00	 call	 ?process_assert@@YGXPBD0H@Z ; process_assert
  00671	c7 45 a8 00 00
	00 00		 mov	 DWORD PTR tv346[ebp], 0
$LN66@response_t:
  00678	8b 4d fc	 mov	 ecx, DWORD PTR _guide$[ebp]
  0067b	51		 push	 ecx
  0067c	8b 15 00 00 00
	00		 mov	 edx, DWORD PTR ?system_comms_model@@3W4COMMS_MODEL_TYPES@@A ; system_comms_model
  00682	c1 e2 02	 shl	 edx, 2
  00685	8b 45 a8	 mov	 eax, DWORD PTR tv346[ebp]
  00688	8b 8c c2 00 00
	00 00		 mov	 ecx, DWORD PTR ?fn_destroy_client_server_entity@@3PAY01P6GXPAUENTITY@@@ZA[edx+eax*8]
  0068f	ff d1		 call	 ecx

; 1370 : 					}
; 1371 : 					else

  00691	eb 0d		 jmp	 SHORT $LN20@response_t
$LN19@response_t:

; 1372 : 					{	
; 1373 : 						delete_group_member_from_guide_entity (sender, guide);

  00693	8b 45 fc	 mov	 eax, DWORD PTR _guide$[ebp]
  00696	50		 push	 eax
  00697	8b 4d 10	 mov	 ecx, DWORD PTR _sender$[ebp]
  0069a	51		 push	 ecx
  0069b	e8 00 00 00 00	 call	 ?delete_group_member_from_guide_entity@@YGXPAUENTITY@@0@Z ; delete_group_member_from_guide_entity
$LN20@response_t:

; 1374 : 					}
; 1375 : 
; 1376 : 					break;

  006a0	e9 85 00 00 00	 jmp	 $LN4@response_t
$LN17@response_t:

; 1377 : 				}
; 1378 : 	
; 1379 : 				guide = get_local_entity_child_succ (guide, LIST_TYPE_GUIDE_STACK);

  006a5	83 7d fc 00	 cmp	 DWORD PTR _guide$[ebp], 0
  006a9	74 0a		 je	 SHORT $LN67@response_t
  006ab	8b 45 fc	 mov	 eax, DWORD PTR _guide$[ebp]
  006ae	8b 08		 mov	 ecx, DWORD PTR [eax]
  006b0	89 4d a8	 mov	 DWORD PTR tv360[ebp], ecx
  006b3	eb 21		 jmp	 SHORT $LN68@response_t
$LN67@response_t:
  006b5	8b 15 00 00 00
	00		 mov	 edx, DWORD PTR ?__LINE__Var@?0??response_to_mobile_killed@@YGHW4ENTITY_MESSAGES@@PAUENTITY@@1PAD@Z@4JA
  006bb	83 c2 61	 add	 edx, 97			; 00000061H
  006be	52		 push	 edx
  006bf	68 00 00 00 00	 push	 OFFSET ??_C@_0EL@PBEBEHIP@c?3?2users?2nhv90?2projects?2eech?2ap@
  006c4	a1 00 00 00 00	 mov	 eax, DWORD PTR ?null_entity_pointer_message@@3PBDB ; null_entity_pointer_message
  006c9	50		 push	 eax
  006ca	e8 00 00 00 00	 call	 ?process_assert@@YGXPBD0H@Z ; process_assert
  006cf	c7 45 a8 00 00
	00 00		 mov	 DWORD PTR tv360[ebp], 0
$LN68@response_t:
  006d6	b9 01 00 00 00	 mov	 ecx, 1
  006db	85 c9		 test	 ecx, ecx
  006dd	74 09		 je	 SHORT $LN69@response_t
  006df	c7 45 a4 11 00
	00 00		 mov	 DWORD PTR tv368[ebp], 17 ; 00000011H
  006e6	eb 21		 jmp	 SHORT $LN70@response_t
$LN69@response_t:
  006e8	8b 15 00 00 00
	00		 mov	 edx, DWORD PTR ?__LINE__Var@?0??response_to_mobile_killed@@YGHW4ENTITY_MESSAGES@@PAUENTITY@@1PAD@Z@4JA
  006ee	83 c2 61	 add	 edx, 97			; 00000061H
  006f1	52		 push	 edx
  006f2	68 00 00 00 00	 push	 OFFSET ??_C@_0EL@PBEBEHIP@c?3?2users?2nhv90?2projects?2eech?2ap@
  006f7	a1 00 00 00 00	 mov	 eax, DWORD PTR ?overload_invalid_list_type_message@@3PBDB ; overload_invalid_list_type_message
  006fc	50		 push	 eax
  006fd	e8 00 00 00 00	 call	 ?process_assert@@YGXPBD0H@Z ; process_assert
  00702	c7 45 a4 00 00
	00 00		 mov	 DWORD PTR tv368[ebp], 0
$LN70@response_t:
  00709	6a 11		 push	 17			; 00000011H
  0070b	8b 4d fc	 mov	 ecx, DWORD PTR _guide$[ebp]
  0070e	51		 push	 ecx
  0070f	69 55 a8 b4 00
	00 00		 imul	 edx, DWORD PTR tv360[ebp], 180
  00716	8b 45 a4	 mov	 eax, DWORD PTR tv368[ebp]
  00719	8b 8c 82 00 00
	00 00		 mov	 ecx, DWORD PTR ?fn_get_local_entity_child_succ@@3PAY0CN@P6GPAUENTITY@@PAU1@W4LIST_TYPES@@@ZA[edx+eax*4]
  00720	ff d1		 call	 ecx
  00722	89 45 fc	 mov	 DWORD PTR _guide$[ebp], eax

; 1380 : 			}

  00725	e9 40 fd ff ff	 jmp	 $LN7@response_t
$LN4@response_t:

; 1381 : 		}
; 1382 : 		while (guide);

  0072a	83 7d fc 00	 cmp	 DWORD PTR _guide$[ebp], 0
  0072e	0f 85 b6 fc ff
	ff		 jne	 $LN6@response_t
$LN13@response_t:

; 1383 : 	}
; 1384 : 
; 1385 : 	return TRUE;

  00734	b8 01 00 00 00	 mov	 eax, 1
$LN1@response_t:

; 1386 : }

  00739	5f		 pop	 edi
  0073a	5e		 pop	 esi
  0073b	5b		 pop	 ebx
  0073c	8b e5		 mov	 esp, ebp
  0073e	5d		 pop	 ebp
  0073f	c2 10 00	 ret	 16			; 00000010H
?response_to_mobile_killed@@YGHW4ENTITY_MESSAGES@@PAUENTITY@@1PAD@Z ENDP ; response_to_mobile_killed
_TEXT	ENDS
; Function compile flags: /Odtp /ZI
; File c:\users\nhv90\projects\eech\aphavoc\source\entity\special\group\gp_msgs.c
;	COMDAT ?response_to_task_terminated@@YGHW4ENTITY_MESSAGES@@PAUENTITY@@1PAD@Z
_TEXT	SEGMENT
tv325 = -100						; size = 4
tv301 = -100						; size = 4
tv280 = -100						; size = 4
tv241 = -100						; size = 4
tv220 = -100						; size = 4
tv201 = -100						; size = 4
tv180 = -100						; size = 4
tv158 = -100						; size = 4
tv133 = -100						; size = 4
tv317 = -96						; size = 4
tv294 = -96						; size = 4
tv273 = -96						; size = 4
tv233 = -96						; size = 4
tv213 = -96						; size = 4
tv193 = -96						; size = 4
tv172 = -96						; size = 4
tv150 = -96						; size = 4
tv93 = -96						; size = 4
tv80 = -96						; size = 4
_raw$ = -28						; size = 4
_task_type$ = -24					; size = 4
_task$ = -20						; size = 4
_member$ = -16						; size = 4
_guide$ = -12						; size = 4
_task_terminated$ = -8					; size = 4
_valid_members$ = -4					; size = 4
_message$ = 8						; size = 4
_receiver$ = 12						; size = 4
_sender$ = 16						; size = 4
_pargs$ = 20						; size = 4
?response_to_task_terminated@@YGHW4ENTITY_MESSAGES@@PAUENTITY@@1PAD@Z PROC ; response_to_task_terminated, COMDAT

; 1186 : {

  00000	55		 push	 ebp
  00001	8b ec		 mov	 ebp, esp
  00003	83 ec 64	 sub	 esp, 100		; 00000064H
  00006	53		 push	 ebx
  00007	56		 push	 esi
  00008	57		 push	 edi

; 1187 : 	unsigned int
; 1188 : 		valid_members;
; 1189 : 
; 1190 : 	task_terminated_types
; 1191 : 		task_terminated;
; 1192 : 
; 1193 : 	entity
; 1194 : 		*guide,
; 1195 : 		*member,
; 1196 : 		*task;
; 1197 : 
; 1198 : 	int
; 1199 : 		task_type;
; 1200 : 
; 1201 : 	group
; 1202 : 		*raw;
; 1203 : 
; 1204 : 	ASSERT (get_comms_model () == COMMS_MODEL_SERVER);

  00009	83 3d 00 00 00
	00 00		 cmp	 DWORD PTR ?system_comms_model@@3W4COMMS_MODEL_TYPES@@A, 0 ; system_comms_model
  00010	74 18		 je	 SHORT $LN4@response_t
  00012	a1 00 00 00 00	 mov	 eax, DWORD PTR ?__LINE__Var@?0??response_to_task_terminated@@YGHW4ENTITY_MESSAGES@@PAUENTITY@@1PAD@Z@4JA
  00017	83 c0 12	 add	 eax, 18			; 00000012H
  0001a	50		 push	 eax
  0001b	68 00 00 00 00	 push	 OFFSET ??_C@_0EL@PBEBEHIP@c?3?2users?2nhv90?2projects?2eech?2ap@
  00020	68 00 00 00 00	 push	 OFFSET ??_C@_0CJ@DMBLBJBK@get_comms_model?5?$CI?$CJ?5?$DN?$DN?5COMMS_MOD@
  00025	e8 00 00 00 00	 call	 ?process_assert@@YGXPBD0H@Z ; process_assert
$LN4@response_t:

; 1205 : 
; 1206 : 	ASSERT (sender);

  0002a	83 7d 10 00	 cmp	 DWORD PTR _sender$[ebp], 0
  0002e	75 18		 jne	 SHORT $LN5@response_t
  00030	a1 00 00 00 00	 mov	 eax, DWORD PTR ?__LINE__Var@?0??response_to_task_terminated@@YGHW4ENTITY_MESSAGES@@PAUENTITY@@1PAD@Z@4JA
  00035	83 c0 14	 add	 eax, 20			; 00000014H
  00038	50		 push	 eax
  00039	68 00 00 00 00	 push	 OFFSET ??_C@_0EL@PBEBEHIP@c?3?2users?2nhv90?2projects?2eech?2ap@
  0003e	68 00 00 00 00	 push	 OFFSET ??_C@_06CGHJMPBJ@sender@
  00043	e8 00 00 00 00	 call	 ?process_assert@@YGXPBD0H@Z ; process_assert
$LN5@response_t:

; 1207 : 
; 1208 : 	ASSERT (get_local_entity_type (sender) == ENTITY_TYPE_GUIDE);

  00048	83 7d 10 00	 cmp	 DWORD PTR _sender$[ebp], 0
  0004c	74 0a		 je	 SHORT $LN17@response_t
  0004e	8b 45 10	 mov	 eax, DWORD PTR _sender$[ebp]
  00051	8b 08		 mov	 ecx, DWORD PTR [eax]
  00053	89 4d a0	 mov	 DWORD PTR tv80[ebp], ecx
  00056	eb 21		 jmp	 SHORT $LN18@response_t
$LN17@response_t:
  00058	8b 15 00 00 00
	00		 mov	 edx, DWORD PTR ?__LINE__Var@?0??response_to_task_terminated@@YGHW4ENTITY_MESSAGES@@PAUENTITY@@1PAD@Z@4JA
  0005e	83 c2 16	 add	 edx, 22			; 00000016H
  00061	52		 push	 edx
  00062	68 00 00 00 00	 push	 OFFSET ??_C@_0EL@PBEBEHIP@c?3?2users?2nhv90?2projects?2eech?2ap@
  00067	a1 00 00 00 00	 mov	 eax, DWORD PTR ?null_entity_pointer_message@@3PBDB ; null_entity_pointer_message
  0006c	50		 push	 eax
  0006d	e8 00 00 00 00	 call	 ?process_assert@@YGXPBD0H@Z ; process_assert
  00072	c7 45 a0 00 00
	00 00		 mov	 DWORD PTR tv80[ebp], 0
$LN18@response_t:
  00079	83 7d a0 0d	 cmp	 DWORD PTR tv80[ebp], 13	; 0000000dH
  0007d	74 18		 je	 SHORT $LN6@response_t
  0007f	a1 00 00 00 00	 mov	 eax, DWORD PTR ?__LINE__Var@?0??response_to_task_terminated@@YGHW4ENTITY_MESSAGES@@PAUENTITY@@1PAD@Z@4JA
  00084	83 c0 16	 add	 eax, 22			; 00000016H
  00087	50		 push	 eax
  00088	68 00 00 00 00	 push	 OFFSET ??_C@_0EL@PBEBEHIP@c?3?2users?2nhv90?2projects?2eech?2ap@
  0008d	68 00 00 00 00	 push	 OFFSET ??_C@_0DE@BIHOKKGH@get_local_entity_type?5?$CIsender?$CJ?5@
  00092	e8 00 00 00 00	 call	 ?process_assert@@YGXPBD0H@Z ; process_assert
$LN6@response_t:

; 1209 : 
; 1210 : 	raw = (group *) get_local_entity_data (receiver);

  00097	8b 45 0c	 mov	 eax, DWORD PTR _receiver$[ebp]
  0009a	8b 48 04	 mov	 ecx, DWORD PTR [eax+4]
  0009d	89 4d e4	 mov	 DWORD PTR _raw$[ebp], ecx

; 1211 : 
; 1212 : 	guide = sender;

  000a0	8b 45 10	 mov	 eax, DWORD PTR _sender$[ebp]
  000a3	89 45 f4	 mov	 DWORD PTR _guide$[ebp], eax

; 1213 : 
; 1214 : 	task = get_local_entity_parent (guide, LIST_TYPE_GUIDE);

  000a6	83 7d f4 00	 cmp	 DWORD PTR _guide$[ebp], 0
  000aa	74 0a		 je	 SHORT $LN19@response_t
  000ac	8b 45 f4	 mov	 eax, DWORD PTR _guide$[ebp]
  000af	8b 08		 mov	 ecx, DWORD PTR [eax]
  000b1	89 4d a0	 mov	 DWORD PTR tv93[ebp], ecx
  000b4	eb 21		 jmp	 SHORT $LN20@response_t
$LN19@response_t:
  000b6	8b 15 00 00 00
	00		 mov	 edx, DWORD PTR ?__LINE__Var@?0??response_to_task_terminated@@YGHW4ENTITY_MESSAGES@@PAUENTITY@@1PAD@Z@4JA
  000bc	83 c2 1c	 add	 edx, 28			; 0000001cH
  000bf	52		 push	 edx
  000c0	68 00 00 00 00	 push	 OFFSET ??_C@_0EL@PBEBEHIP@c?3?2users?2nhv90?2projects?2eech?2ap@
  000c5	a1 00 00 00 00	 mov	 eax, DWORD PTR ?null_entity_pointer_message@@3PBDB ; null_entity_pointer_message
  000ca	50		 push	 eax
  000cb	e8 00 00 00 00	 call	 ?process_assert@@YGXPBD0H@Z ; process_assert
  000d0	c7 45 a0 00 00
	00 00		 mov	 DWORD PTR tv93[ebp], 0
$LN20@response_t:
  000d7	b9 01 00 00 00	 mov	 ecx, 1
  000dc	85 c9		 test	 ecx, ecx
  000de	74 09		 je	 SHORT $LN21@response_t
  000e0	c7 45 9c 10 00
	00 00		 mov	 DWORD PTR tv133[ebp], 16 ; 00000010H
  000e7	eb 21		 jmp	 SHORT $LN22@response_t
$LN21@response_t:
  000e9	8b 15 00 00 00
	00		 mov	 edx, DWORD PTR ?__LINE__Var@?0??response_to_task_terminated@@YGHW4ENTITY_MESSAGES@@PAUENTITY@@1PAD@Z@4JA
  000ef	83 c2 1c	 add	 edx, 28			; 0000001cH
  000f2	52		 push	 edx
  000f3	68 00 00 00 00	 push	 OFFSET ??_C@_0EL@PBEBEHIP@c?3?2users?2nhv90?2projects?2eech?2ap@
  000f8	a1 00 00 00 00	 mov	 eax, DWORD PTR ?overload_invalid_list_type_message@@3PBDB ; overload_invalid_list_type_message
  000fd	50		 push	 eax
  000fe	e8 00 00 00 00	 call	 ?process_assert@@YGXPBD0H@Z ; process_assert
  00103	c7 45 9c 00 00
	00 00		 mov	 DWORD PTR tv133[ebp], 0
$LN22@response_t:
  0010a	6a 10		 push	 16			; 00000010H
  0010c	8b 4d f4	 mov	 ecx, DWORD PTR _guide$[ebp]
  0010f	51		 push	 ecx
  00110	69 55 a0 b4 00
	00 00		 imul	 edx, DWORD PTR tv93[ebp], 180
  00117	8b 45 9c	 mov	 eax, DWORD PTR tv133[ebp]
  0011a	8b 8c 82 00 00
	00 00		 mov	 ecx, DWORD PTR ?fn_get_local_entity_parent@@3PAY0CN@P6GPAUENTITY@@PAU1@W4LIST_TYPES@@@ZA[edx+eax*4]
  00121	ff d1		 call	 ecx
  00123	89 45 ec	 mov	 DWORD PTR _task$[ebp], eax

; 1215 : 
; 1216 : 	ASSERT (task);

  00126	83 7d ec 00	 cmp	 DWORD PTR _task$[ebp], 0
  0012a	75 18		 jne	 SHORT $LN7@response_t
  0012c	a1 00 00 00 00	 mov	 eax, DWORD PTR ?__LINE__Var@?0??response_to_task_terminated@@YGHW4ENTITY_MESSAGES@@PAUENTITY@@1PAD@Z@4JA
  00131	83 c0 1e	 add	 eax, 30			; 0000001eH
  00134	50		 push	 eax
  00135	68 00 00 00 00	 push	 OFFSET ??_C@_0EL@PBEBEHIP@c?3?2users?2nhv90?2projects?2eech?2ap@
  0013a	68 00 00 00 00	 push	 OFFSET ??_C@_04GGKLLKOO@task@
  0013f	e8 00 00 00 00	 call	 ?process_assert@@YGXPBD0H@Z ; process_assert
$LN7@response_t:

; 1217 : 
; 1218 : 	task_type = get_local_entity_int_value (task, INT_TYPE_ENTITY_SUB_TYPE);

  00144	83 7d ec 00	 cmp	 DWORD PTR _task$[ebp], 0
  00148	74 0a		 je	 SHORT $LN23@response_t
  0014a	8b 45 ec	 mov	 eax, DWORD PTR _task$[ebp]
  0014d	8b 08		 mov	 ecx, DWORD PTR [eax]
  0014f	89 4d a0	 mov	 DWORD PTR tv150[ebp], ecx
  00152	eb 21		 jmp	 SHORT $LN24@response_t
$LN23@response_t:
  00154	8b 15 00 00 00
	00		 mov	 edx, DWORD PTR ?__LINE__Var@?0??response_to_task_terminated@@YGHW4ENTITY_MESSAGES@@PAUENTITY@@1PAD@Z@4JA
  0015a	83 c2 20	 add	 edx, 32			; 00000020H
  0015d	52		 push	 edx
  0015e	68 00 00 00 00	 push	 OFFSET ??_C@_0EL@PBEBEHIP@c?3?2users?2nhv90?2projects?2eech?2ap@
  00163	a1 00 00 00 00	 mov	 eax, DWORD PTR ?null_entity_pointer_message@@3PBDB ; null_entity_pointer_message
  00168	50		 push	 eax
  00169	e8 00 00 00 00	 call	 ?process_assert@@YGXPBD0H@Z ; process_assert
  0016e	c7 45 a0 00 00
	00 00		 mov	 DWORD PTR tv150[ebp], 0
$LN24@response_t:
  00175	b9 01 00 00 00	 mov	 ecx, 1
  0017a	85 c9		 test	 ecx, ecx
  0017c	74 09		 je	 SHORT $LN25@response_t
  0017e	c7 45 9c 34 00
	00 00		 mov	 DWORD PTR tv158[ebp], 52 ; 00000034H
  00185	eb 21		 jmp	 SHORT $LN26@response_t
$LN25@response_t:
  00187	8b 15 00 00 00
	00		 mov	 edx, DWORD PTR ?__LINE__Var@?0??response_to_task_terminated@@YGHW4ENTITY_MESSAGES@@PAUENTITY@@1PAD@Z@4JA
  0018d	83 c2 20	 add	 edx, 32			; 00000020H
  00190	52		 push	 edx
  00191	68 00 00 00 00	 push	 OFFSET ??_C@_0EL@PBEBEHIP@c?3?2users?2nhv90?2projects?2eech?2ap@
  00196	a1 00 00 00 00	 mov	 eax, DWORD PTR ?overload_invalid_int_type_message@@3PBDB ; overload_invalid_int_type_message
  0019b	50		 push	 eax
  0019c	e8 00 00 00 00	 call	 ?process_assert@@YGXPBD0H@Z ; process_assert
  001a1	c7 45 9c 00 00
	00 00		 mov	 DWORD PTR tv158[ebp], 0
$LN26@response_t:
  001a8	6a 34		 push	 52			; 00000034H
  001aa	8b 4d ec	 mov	 ecx, DWORD PTR _task$[ebp]
  001ad	51		 push	 ecx
  001ae	69 55 a0 5c 04
	00 00		 imul	 edx, DWORD PTR tv150[ebp], 1116
  001b5	8b 45 9c	 mov	 eax, DWORD PTR tv158[ebp]
  001b8	8b 8c 82 00 00
	00 00		 mov	 ecx, DWORD PTR ?fn_get_local_entity_int_value@@3PAY0BBH@P6GHPAUENTITY@@W4INT_TYPES@@@ZA[edx+eax*4]
  001bf	ff d1		 call	 ecx
  001c1	89 45 e8	 mov	 DWORD PTR _task_type$[ebp], eax

; 1219 : 
; 1220 : 	task_terminated = va_arg (pargs, task_terminated_types);

  001c4	8b 45 14	 mov	 eax, DWORD PTR _pargs$[ebp]
  001c7	83 c0 04	 add	 eax, 4
  001ca	89 45 14	 mov	 DWORD PTR _pargs$[ebp], eax
  001cd	8b 4d 14	 mov	 ecx, DWORD PTR _pargs$[ebp]
  001d0	8b 51 fc	 mov	 edx, DWORD PTR [ecx-4]
  001d3	89 55 f8	 mov	 DWORD PTR _task_terminated$[ebp], edx

; 1221 : 
; 1222 : 	valid_members = 0;

  001d6	c7 45 fc 00 00
	00 00		 mov	 DWORD PTR _valid_members$[ebp], 0

; 1223 : 
; 1224 : 	member = get_local_entity_first_child (receiver, LIST_TYPE_MEMBER);

  001dd	83 7d 0c 00	 cmp	 DWORD PTR _receiver$[ebp], 0
  001e1	74 0a		 je	 SHORT $LN27@response_t
  001e3	8b 45 0c	 mov	 eax, DWORD PTR _receiver$[ebp]
  001e6	8b 08		 mov	 ecx, DWORD PTR [eax]
  001e8	89 4d a0	 mov	 DWORD PTR tv172[ebp], ecx
  001eb	eb 21		 jmp	 SHORT $LN28@response_t
$LN27@response_t:
  001ed	8b 15 00 00 00
	00		 mov	 edx, DWORD PTR ?__LINE__Var@?0??response_to_task_terminated@@YGHW4ENTITY_MESSAGES@@PAUENTITY@@1PAD@Z@4JA
  001f3	83 c2 26	 add	 edx, 38			; 00000026H
  001f6	52		 push	 edx
  001f7	68 00 00 00 00	 push	 OFFSET ??_C@_0EL@PBEBEHIP@c?3?2users?2nhv90?2projects?2eech?2ap@
  001fc	a1 00 00 00 00	 mov	 eax, DWORD PTR ?null_entity_pointer_message@@3PBDB ; null_entity_pointer_message
  00201	50		 push	 eax
  00202	e8 00 00 00 00	 call	 ?process_assert@@YGXPBD0H@Z ; process_assert
  00207	c7 45 a0 00 00
	00 00		 mov	 DWORD PTR tv172[ebp], 0
$LN28@response_t:
  0020e	b9 01 00 00 00	 mov	 ecx, 1
  00213	85 c9		 test	 ecx, ecx
  00215	74 09		 je	 SHORT $LN29@response_t
  00217	c7 45 9c 19 00
	00 00		 mov	 DWORD PTR tv180[ebp], 25 ; 00000019H
  0021e	eb 21		 jmp	 SHORT $LN30@response_t
$LN29@response_t:
  00220	8b 15 00 00 00
	00		 mov	 edx, DWORD PTR ?__LINE__Var@?0??response_to_task_terminated@@YGHW4ENTITY_MESSAGES@@PAUENTITY@@1PAD@Z@4JA
  00226	83 c2 26	 add	 edx, 38			; 00000026H
  00229	52		 push	 edx
  0022a	68 00 00 00 00	 push	 OFFSET ??_C@_0EL@PBEBEHIP@c?3?2users?2nhv90?2projects?2eech?2ap@
  0022f	a1 00 00 00 00	 mov	 eax, DWORD PTR ?overload_invalid_list_type_message@@3PBDB ; overload_invalid_list_type_message
  00234	50		 push	 eax
  00235	e8 00 00 00 00	 call	 ?process_assert@@YGXPBD0H@Z ; process_assert
  0023a	c7 45 9c 00 00
	00 00		 mov	 DWORD PTR tv180[ebp], 0
$LN30@response_t:
  00241	6a 19		 push	 25			; 00000019H
  00243	8b 4d 0c	 mov	 ecx, DWORD PTR _receiver$[ebp]
  00246	51		 push	 ecx
  00247	69 55 a0 b4 00
	00 00		 imul	 edx, DWORD PTR tv172[ebp], 180
  0024e	8b 45 9c	 mov	 eax, DWORD PTR tv180[ebp]
  00251	8b 8c 82 00 00
	00 00		 mov	 ecx, DWORD PTR ?fn_get_local_entity_first_child@@3PAY0CN@P6GPAUENTITY@@PAU1@W4LIST_TYPES@@@ZA[edx+eax*4]
  00258	ff d1		 call	 ecx
  0025a	89 45 f0	 mov	 DWORD PTR _member$[ebp], eax
$LN2@response_t:

; 1225 : 
; 1226 : 	while (member)

  0025d	83 7d f0 00	 cmp	 DWORD PTR _member$[ebp], 0
  00261	0f 84 8a 03 00
	00		 je	 $LN3@response_t

; 1227 : 	{
; 1228 : 		guide = get_local_entity_parent (member, LIST_TYPE_FOLLOWER);

  00267	83 7d f0 00	 cmp	 DWORD PTR _member$[ebp], 0
  0026b	74 0a		 je	 SHORT $LN31@response_t
  0026d	8b 45 f0	 mov	 eax, DWORD PTR _member$[ebp]
  00270	8b 08		 mov	 ecx, DWORD PTR [eax]
  00272	89 4d a0	 mov	 DWORD PTR tv193[ebp], ecx
  00275	eb 21		 jmp	 SHORT $LN32@response_t
$LN31@response_t:
  00277	8b 15 00 00 00
	00		 mov	 edx, DWORD PTR ?__LINE__Var@?0??response_to_task_terminated@@YGHW4ENTITY_MESSAGES@@PAUENTITY@@1PAD@Z@4JA
  0027d	83 c2 2a	 add	 edx, 42			; 0000002aH
  00280	52		 push	 edx
  00281	68 00 00 00 00	 push	 OFFSET ??_C@_0EL@PBEBEHIP@c?3?2users?2nhv90?2projects?2eech?2ap@
  00286	a1 00 00 00 00	 mov	 eax, DWORD PTR ?null_entity_pointer_message@@3PBDB ; null_entity_pointer_message
  0028b	50		 push	 eax
  0028c	e8 00 00 00 00	 call	 ?process_assert@@YGXPBD0H@Z ; process_assert
  00291	c7 45 a0 00 00
	00 00		 mov	 DWORD PTR tv193[ebp], 0
$LN32@response_t:
  00298	b9 01 00 00 00	 mov	 ecx, 1
  0029d	85 c9		 test	 ecx, ecx
  0029f	74 09		 je	 SHORT $LN33@response_t
  002a1	c7 45 9c 0d 00
	00 00		 mov	 DWORD PTR tv201[ebp], 13 ; 0000000dH
  002a8	eb 21		 jmp	 SHORT $LN34@response_t
$LN33@response_t:
  002aa	8b 15 00 00 00
	00		 mov	 edx, DWORD PTR ?__LINE__Var@?0??response_to_task_terminated@@YGHW4ENTITY_MESSAGES@@PAUENTITY@@1PAD@Z@4JA
  002b0	83 c2 2a	 add	 edx, 42			; 0000002aH
  002b3	52		 push	 edx
  002b4	68 00 00 00 00	 push	 OFFSET ??_C@_0EL@PBEBEHIP@c?3?2users?2nhv90?2projects?2eech?2ap@
  002b9	a1 00 00 00 00	 mov	 eax, DWORD PTR ?overload_invalid_list_type_message@@3PBDB ; overload_invalid_list_type_message
  002be	50		 push	 eax
  002bf	e8 00 00 00 00	 call	 ?process_assert@@YGXPBD0H@Z ; process_assert
  002c4	c7 45 9c 00 00
	00 00		 mov	 DWORD PTR tv201[ebp], 0
$LN34@response_t:
  002cb	6a 0d		 push	 13			; 0000000dH
  002cd	8b 4d f0	 mov	 ecx, DWORD PTR _member$[ebp]
  002d0	51		 push	 ecx
  002d1	69 55 a0 b4 00
	00 00		 imul	 edx, DWORD PTR tv193[ebp], 180
  002d8	8b 45 9c	 mov	 eax, DWORD PTR tv201[ebp]
  002db	8b 8c 82 00 00
	00 00		 mov	 ecx, DWORD PTR ?fn_get_local_entity_parent@@3PAY0CN@P6GPAUENTITY@@PAU1@W4LIST_TYPES@@@ZA[edx+eax*4]
  002e2	ff d1		 call	 ecx
  002e4	89 45 f4	 mov	 DWORD PTR _guide$[ebp], eax

; 1229 : 
; 1230 : 		if (guide)

  002e7	83 7d f4 00	 cmp	 DWORD PTR _guide$[ebp], 0
  002eb	0f 84 1e 01 00
	00		 je	 $LN8@response_t

; 1231 : 		{
; 1232 : 			if (get_local_entity_parent (guide, LIST_TYPE_GUIDE) == task)

  002f1	83 7d f4 00	 cmp	 DWORD PTR _guide$[ebp], 0
  002f5	74 0a		 je	 SHORT $LN35@response_t
  002f7	8b 45 f4	 mov	 eax, DWORD PTR _guide$[ebp]
  002fa	8b 08		 mov	 ecx, DWORD PTR [eax]
  002fc	89 4d a0	 mov	 DWORD PTR tv213[ebp], ecx
  002ff	eb 1d		 jmp	 SHORT $LN36@response_t
$LN35@response_t:
  00301	68 d0 04 00 00	 push	 1232			; 000004d0H
  00306	68 00 00 00 00	 push	 OFFSET ??_C@_0EL@PBEBEHIP@c?3?2users?2nhv90?2projects?2eech?2ap@
  0030b	8b 15 00 00 00
	00		 mov	 edx, DWORD PTR ?null_entity_pointer_message@@3PBDB ; null_entity_pointer_message
  00311	52		 push	 edx
  00312	e8 00 00 00 00	 call	 ?process_assert@@YGXPBD0H@Z ; process_assert
  00317	c7 45 a0 00 00
	00 00		 mov	 DWORD PTR tv213[ebp], 0
$LN36@response_t:
  0031e	b8 01 00 00 00	 mov	 eax, 1
  00323	85 c0		 test	 eax, eax
  00325	74 09		 je	 SHORT $LN37@response_t
  00327	c7 45 9c 10 00
	00 00		 mov	 DWORD PTR tv220[ebp], 16 ; 00000010H
  0032e	eb 1d		 jmp	 SHORT $LN38@response_t
$LN37@response_t:
  00330	68 d0 04 00 00	 push	 1232			; 000004d0H
  00335	68 00 00 00 00	 push	 OFFSET ??_C@_0EL@PBEBEHIP@c?3?2users?2nhv90?2projects?2eech?2ap@
  0033a	8b 0d 00 00 00
	00		 mov	 ecx, DWORD PTR ?overload_invalid_list_type_message@@3PBDB ; overload_invalid_list_type_message
  00340	51		 push	 ecx
  00341	e8 00 00 00 00	 call	 ?process_assert@@YGXPBD0H@Z ; process_assert
  00346	c7 45 9c 00 00
	00 00		 mov	 DWORD PTR tv220[ebp], 0
$LN38@response_t:
  0034d	6a 10		 push	 16			; 00000010H
  0034f	8b 55 f4	 mov	 edx, DWORD PTR _guide$[ebp]
  00352	52		 push	 edx
  00353	69 45 a0 b4 00
	00 00		 imul	 eax, DWORD PTR tv213[ebp], 180
  0035a	8b 4d 9c	 mov	 ecx, DWORD PTR tv220[ebp]
  0035d	8b 94 88 00 00
	00 00		 mov	 edx, DWORD PTR ?fn_get_local_entity_parent@@3PAY0CN@P6GPAUENTITY@@PAU1@W4LIST_TYPES@@@ZA[eax+ecx*4]
  00364	ff d2		 call	 edx
  00366	3b 45 ec	 cmp	 eax, DWORD PTR _task$[ebp]
  00369	0f 85 a0 00 00
	00		 jne	 $LN8@response_t

; 1233 : 			{
; 1234 : 				//
; 1235 : 				// Store which members were actually currently doing the terminated task...
; 1236 : 				//
; 1237 : 				
; 1238 : 				valid_members |= (1 << get_local_entity_int_value (member, INT_TYPE_GROUP_MEMBER_NUMBER));

  0036f	83 7d f0 00	 cmp	 DWORD PTR _member$[ebp], 0
  00373	74 0a		 je	 SHORT $LN39@response_t
  00375	8b 45 f0	 mov	 eax, DWORD PTR _member$[ebp]
  00378	8b 08		 mov	 ecx, DWORD PTR [eax]
  0037a	89 4d a0	 mov	 DWORD PTR tv233[ebp], ecx
  0037d	eb 21		 jmp	 SHORT $LN40@response_t
$LN39@response_t:
  0037f	8b 15 00 00 00
	00		 mov	 edx, DWORD PTR ?__LINE__Var@?0??response_to_task_terminated@@YGHW4ENTITY_MESSAGES@@PAUENTITY@@1PAD@Z@4JA
  00385	83 c2 34	 add	 edx, 52			; 00000034H
  00388	52		 push	 edx
  00389	68 00 00 00 00	 push	 OFFSET ??_C@_0EL@PBEBEHIP@c?3?2users?2nhv90?2projects?2eech?2ap@
  0038e	a1 00 00 00 00	 mov	 eax, DWORD PTR ?null_entity_pointer_message@@3PBDB ; null_entity_pointer_message
  00393	50		 push	 eax
  00394	e8 00 00 00 00	 call	 ?process_assert@@YGXPBD0H@Z ; process_assert
  00399	c7 45 a0 00 00
	00 00		 mov	 DWORD PTR tv233[ebp], 0
$LN40@response_t:
  003a0	b9 01 00 00 00	 mov	 ecx, 1
  003a5	85 c9		 test	 ecx, ecx
  003a7	74 09		 je	 SHORT $LN41@response_t
  003a9	c7 45 9c 4b 00
	00 00		 mov	 DWORD PTR tv241[ebp], 75 ; 0000004bH
  003b0	eb 21		 jmp	 SHORT $LN42@response_t
$LN41@response_t:
  003b2	8b 15 00 00 00
	00		 mov	 edx, DWORD PTR ?__LINE__Var@?0??response_to_task_terminated@@YGHW4ENTITY_MESSAGES@@PAUENTITY@@1PAD@Z@4JA
  003b8	83 c2 34	 add	 edx, 52			; 00000034H
  003bb	52		 push	 edx
  003bc	68 00 00 00 00	 push	 OFFSET ??_C@_0EL@PBEBEHIP@c?3?2users?2nhv90?2projects?2eech?2ap@
  003c1	a1 00 00 00 00	 mov	 eax, DWORD PTR ?overload_invalid_int_type_message@@3PBDB ; overload_invalid_int_type_message
  003c6	50		 push	 eax
  003c7	e8 00 00 00 00	 call	 ?process_assert@@YGXPBD0H@Z ; process_assert
  003cc	c7 45 9c 00 00
	00 00		 mov	 DWORD PTR tv241[ebp], 0
$LN42@response_t:
  003d3	6a 4b		 push	 75			; 0000004bH
  003d5	8b 4d f0	 mov	 ecx, DWORD PTR _member$[ebp]
  003d8	51		 push	 ecx
  003d9	69 55 a0 5c 04
	00 00		 imul	 edx, DWORD PTR tv233[ebp], 1116
  003e0	8b 45 9c	 mov	 eax, DWORD PTR tv241[ebp]
  003e3	8b 8c 82 00 00
	00 00		 mov	 ecx, DWORD PTR ?fn_get_local_entity_int_value@@3PAY0BBH@P6GHPAUENTITY@@W4INT_TYPES@@@ZA[edx+eax*4]
  003ea	ff d1		 call	 ecx
  003ec	ba 01 00 00 00	 mov	 edx, 1
  003f1	8b c8		 mov	 ecx, eax
  003f3	d3 e2		 shl	 edx, cl
  003f5	0b 55 fc	 or	 edx, DWORD PTR _valid_members$[ebp]
  003f8	89 55 fc	 mov	 DWORD PTR _valid_members$[ebp], edx

; 1239 : 
; 1240 : 				//
; 1241 : 				// Inform members of task terminated, members should make themselves safe.
; 1242 : 				//
; 1243 : 			
; 1244 : 				notify_local_entity (message, member, receiver);

  003fb	8b 45 0c	 mov	 eax, DWORD PTR _receiver$[ebp]
  003fe	50		 push	 eax
  003ff	8b 4d f0	 mov	 ecx, DWORD PTR _member$[ebp]
  00402	51		 push	 ecx
  00403	8b 55 08	 mov	 edx, DWORD PTR _message$[ebp]
  00406	52		 push	 edx
  00407	e8 00 00 00 00	 call	 ?notify_local_entity@@YAHW4ENTITY_MESSAGES@@PAUENTITY@@1ZZ ; notify_local_entity
  0040c	83 c4 0c	 add	 esp, 12			; 0000000cH
$LN8@response_t:

; 1245 : 			}
; 1246 : 		}
; 1247 : 
; 1248 : 		if (task_database [task_type].counts_towards_player_log)

  0040f	6b 45 e8 50	 imul	 eax, DWORD PTR _task_type$[ebp], 80
  00413	8b 88 28 00 00
	00		 mov	 ecx, DWORD PTR ?task_database@@3PAUTASK_DATA@@A[eax+40]
  00419	c1 e9 0d	 shr	 ecx, 13			; 0000000dH
  0041c	83 e1 01	 and	 ecx, 1
  0041f	0f 84 47 01 00
	00		 je	 $LN10@response_t

; 1249 : 		{
; 1250 : 			ASSERT (task_database [task_type].primary_task);

  00425	6b 45 e8 50	 imul	 eax, DWORD PTR _task_type$[ebp], 80
  00429	8b 88 28 00 00
	00		 mov	 ecx, DWORD PTR ?task_database@@3PAUTASK_DATA@@A[eax+40]
  0042f	d1 e9		 shr	 ecx, 1
  00431	83 e1 01	 and	 ecx, 1
  00434	75 18		 jne	 SHORT $LN11@response_t
  00436	a1 00 00 00 00	 mov	 eax, DWORD PTR ?__LINE__Var@?0??response_to_task_terminated@@YGHW4ENTITY_MESSAGES@@PAUENTITY@@1PAD@Z@4JA
  0043b	83 c0 40	 add	 eax, 64			; 00000040H
  0043e	50		 push	 eax
  0043f	68 00 00 00 00	 push	 OFFSET ??_C@_0EL@PBEBEHIP@c?3?2users?2nhv90?2projects?2eech?2ap@
  00444	68 00 00 00 00	 push	 OFFSET ??_C@_0CH@BEGMHKAE@task_database?5?$FLtask_type?$FN?4prima@
  00449	e8 00 00 00 00	 call	 ?process_assert@@YGXPBD0H@Z ; process_assert
$LN11@response_t:

; 1251 : 
; 1252 : 			if (get_local_entity_int_value (member, INT_TYPE_PLAYER) == ENTITY_PLAYER_LOCAL)

  0044e	83 7d f0 00	 cmp	 DWORD PTR _member$[ebp], 0
  00452	74 0a		 je	 SHORT $LN43@response_t
  00454	8b 45 f0	 mov	 eax, DWORD PTR _member$[ebp]
  00457	8b 08		 mov	 ecx, DWORD PTR [eax]
  00459	89 4d a0	 mov	 DWORD PTR tv273[ebp], ecx
  0045c	eb 1d		 jmp	 SHORT $LN44@response_t
$LN43@response_t:
  0045e	68 e4 04 00 00	 push	 1252			; 000004e4H
  00463	68 00 00 00 00	 push	 OFFSET ??_C@_0EL@PBEBEHIP@c?3?2users?2nhv90?2projects?2eech?2ap@
  00468	8b 15 00 00 00
	00		 mov	 edx, DWORD PTR ?null_entity_pointer_message@@3PBDB ; null_entity_pointer_message
  0046e	52		 push	 edx
  0046f	e8 00 00 00 00	 call	 ?process_assert@@YGXPBD0H@Z ; process_assert
  00474	c7 45 a0 00 00
	00 00		 mov	 DWORD PTR tv273[ebp], 0
$LN44@response_t:
  0047b	b8 01 00 00 00	 mov	 eax, 1
  00480	85 c0		 test	 eax, eax
  00482	74 09		 je	 SHORT $LN45@response_t
  00484	c7 45 9c 9c 00
	00 00		 mov	 DWORD PTR tv280[ebp], 156 ; 0000009cH
  0048b	eb 1d		 jmp	 SHORT $LN46@response_t
$LN45@response_t:
  0048d	68 e4 04 00 00	 push	 1252			; 000004e4H
  00492	68 00 00 00 00	 push	 OFFSET ??_C@_0EL@PBEBEHIP@c?3?2users?2nhv90?2projects?2eech?2ap@
  00497	8b 0d 00 00 00
	00		 mov	 ecx, DWORD PTR ?overload_invalid_int_type_message@@3PBDB ; overload_invalid_int_type_message
  0049d	51		 push	 ecx
  0049e	e8 00 00 00 00	 call	 ?process_assert@@YGXPBD0H@Z ; process_assert
  004a3	c7 45 9c 00 00
	00 00		 mov	 DWORD PTR tv280[ebp], 0
$LN46@response_t:
  004aa	68 9c 00 00 00	 push	 156			; 0000009cH
  004af	8b 55 f0	 mov	 edx, DWORD PTR _member$[ebp]
  004b2	52		 push	 edx
  004b3	69 45 a0 5c 04
	00 00		 imul	 eax, DWORD PTR tv273[ebp], 1116
  004ba	8b 4d 9c	 mov	 ecx, DWORD PTR tv280[ebp]
  004bd	8b 94 88 00 00
	00 00		 mov	 edx, DWORD PTR ?fn_get_local_entity_int_value@@3PAY0BBH@P6GHPAUENTITY@@W4INT_TYPES@@@ZA[eax+ecx*4]
  004c4	ff d2		 call	 edx
  004c6	83 f8 01	 cmp	 eax, 1
  004c9	75 12		 jne	 SHORT $LN12@response_t

; 1253 : 			{
; 1254 : 				notify_gunship_entity_mission_terminated (member, task);

  004cb	8b 45 ec	 mov	 eax, DWORD PTR _task$[ebp]
  004ce	50		 push	 eax
  004cf	8b 4d f0	 mov	 ecx, DWORD PTR _member$[ebp]
  004d2	51		 push	 ecx
  004d3	e8 00 00 00 00	 call	 ?notify_gunship_entity_mission_terminated@@YGXPAUENTITY@@0@Z ; notify_gunship_entity_mission_terminated
  004d8	e9 8f 00 00 00	 jmp	 $LN10@response_t
$LN12@response_t:

; 1255 : 			}
; 1256 : 			else if (get_local_entity_int_value (member, INT_TYPE_PLAYER) == ENTITY_PLAYER_REMOTE)

  004dd	83 7d f0 00	 cmp	 DWORD PTR _member$[ebp], 0
  004e1	74 0a		 je	 SHORT $LN47@response_t
  004e3	8b 45 f0	 mov	 eax, DWORD PTR _member$[ebp]
  004e6	8b 08		 mov	 ecx, DWORD PTR [eax]
  004e8	89 4d a0	 mov	 DWORD PTR tv294[ebp], ecx
  004eb	eb 1d		 jmp	 SHORT $LN48@response_t
$LN47@response_t:
  004ed	68 e8 04 00 00	 push	 1256			; 000004e8H
  004f2	68 00 00 00 00	 push	 OFFSET ??_C@_0EL@PBEBEHIP@c?3?2users?2nhv90?2projects?2eech?2ap@
  004f7	8b 15 00 00 00
	00		 mov	 edx, DWORD PTR ?null_entity_pointer_message@@3PBDB ; null_entity_pointer_message
  004fd	52		 push	 edx
  004fe	e8 00 00 00 00	 call	 ?process_assert@@YGXPBD0H@Z ; process_assert
  00503	c7 45 a0 00 00
	00 00		 mov	 DWORD PTR tv294[ebp], 0
$LN48@response_t:
  0050a	b8 01 00 00 00	 mov	 eax, 1
  0050f	85 c0		 test	 eax, eax
  00511	74 09		 je	 SHORT $LN49@response_t
  00513	c7 45 9c 9c 00
	00 00		 mov	 DWORD PTR tv301[ebp], 156 ; 0000009cH
  0051a	eb 1d		 jmp	 SHORT $LN50@response_t
$LN49@response_t:
  0051c	68 e8 04 00 00	 push	 1256			; 000004e8H
  00521	68 00 00 00 00	 push	 OFFSET ??_C@_0EL@PBEBEHIP@c?3?2users?2nhv90?2projects?2eech?2ap@
  00526	8b 0d 00 00 00
	00		 mov	 ecx, DWORD PTR ?overload_invalid_int_type_message@@3PBDB ; overload_invalid_int_type_message
  0052c	51		 push	 ecx
  0052d	e8 00 00 00 00	 call	 ?process_assert@@YGXPBD0H@Z ; process_assert
  00532	c7 45 9c 00 00
	00 00		 mov	 DWORD PTR tv301[ebp], 0
$LN50@response_t:
  00539	68 9c 00 00 00	 push	 156			; 0000009cH
  0053e	8b 55 f0	 mov	 edx, DWORD PTR _member$[ebp]
  00541	52		 push	 edx
  00542	69 45 a0 5c 04
	00 00		 imul	 eax, DWORD PTR tv294[ebp], 1116
  00549	8b 4d 9c	 mov	 ecx, DWORD PTR tv301[ebp]
  0054c	8b 94 88 00 00
	00 00		 mov	 edx, DWORD PTR ?fn_get_local_entity_int_value@@3PAY0BBH@P6GHPAUENTITY@@W4INT_TYPES@@@ZA[eax+ecx*4]
  00553	ff d2		 call	 edx
  00555	83 f8 02	 cmp	 eax, 2
  00558	75 12		 jne	 SHORT $LN10@response_t

; 1257 : 			{
; 1258 : 				transmit_entity_comms_message (ENTITY_COMMS_PLAYER_TASK_TERMINATED, member, task);

  0055a	8b 45 ec	 mov	 eax, DWORD PTR _task$[ebp]
  0055d	50		 push	 eax
  0055e	8b 4d f0	 mov	 ecx, DWORD PTR _member$[ebp]
  00561	51		 push	 ecx
  00562	6a 27		 push	 39			; 00000027H
  00564	e8 00 00 00 00	 call	 ?transmit_entity_comms_message@@YAXW4ENTITY_COMMS_MESSAGES@@PAUENTITY@@ZZ ; transmit_entity_comms_message
  00569	83 c4 0c	 add	 esp, 12			; 0000000cH
$LN10@response_t:

; 1259 : 			}
; 1260 : 		}
; 1261 : 	
; 1262 : 		member = get_local_entity_child_succ (member, LIST_TYPE_MEMBER);

  0056c	83 7d f0 00	 cmp	 DWORD PTR _member$[ebp], 0
  00570	74 0a		 je	 SHORT $LN51@response_t
  00572	8b 45 f0	 mov	 eax, DWORD PTR _member$[ebp]
  00575	8b 08		 mov	 ecx, DWORD PTR [eax]
  00577	89 4d a0	 mov	 DWORD PTR tv317[ebp], ecx
  0057a	eb 21		 jmp	 SHORT $LN52@response_t
$LN51@response_t:
  0057c	8b 15 00 00 00
	00		 mov	 edx, DWORD PTR ?__LINE__Var@?0??response_to_task_terminated@@YGHW4ENTITY_MESSAGES@@PAUENTITY@@1PAD@Z@4JA
  00582	83 c2 4c	 add	 edx, 76			; 0000004cH
  00585	52		 push	 edx
  00586	68 00 00 00 00	 push	 OFFSET ??_C@_0EL@PBEBEHIP@c?3?2users?2nhv90?2projects?2eech?2ap@
  0058b	a1 00 00 00 00	 mov	 eax, DWORD PTR ?null_entity_pointer_message@@3PBDB ; null_entity_pointer_message
  00590	50		 push	 eax
  00591	e8 00 00 00 00	 call	 ?process_assert@@YGXPBD0H@Z ; process_assert
  00596	c7 45 a0 00 00
	00 00		 mov	 DWORD PTR tv317[ebp], 0
$LN52@response_t:
  0059d	b9 01 00 00 00	 mov	 ecx, 1
  005a2	85 c9		 test	 ecx, ecx
  005a4	74 09		 je	 SHORT $LN53@response_t
  005a6	c7 45 9c 19 00
	00 00		 mov	 DWORD PTR tv325[ebp], 25 ; 00000019H
  005ad	eb 21		 jmp	 SHORT $LN54@response_t
$LN53@response_t:
  005af	8b 15 00 00 00
	00		 mov	 edx, DWORD PTR ?__LINE__Var@?0??response_to_task_terminated@@YGHW4ENTITY_MESSAGES@@PAUENTITY@@1PAD@Z@4JA
  005b5	83 c2 4c	 add	 edx, 76			; 0000004cH
  005b8	52		 push	 edx
  005b9	68 00 00 00 00	 push	 OFFSET ??_C@_0EL@PBEBEHIP@c?3?2users?2nhv90?2projects?2eech?2ap@
  005be	a1 00 00 00 00	 mov	 eax, DWORD PTR ?overload_invalid_list_type_message@@3PBDB ; overload_invalid_list_type_message
  005c3	50		 push	 eax
  005c4	e8 00 00 00 00	 call	 ?process_assert@@YGXPBD0H@Z ; process_assert
  005c9	c7 45 9c 00 00
	00 00		 mov	 DWORD PTR tv325[ebp], 0
$LN54@response_t:
  005d0	6a 19		 push	 25			; 00000019H
  005d2	8b 4d f0	 mov	 ecx, DWORD PTR _member$[ebp]
  005d5	51		 push	 ecx
  005d6	69 55 a0 b4 00
	00 00		 imul	 edx, DWORD PTR tv317[ebp], 180
  005dd	8b 45 9c	 mov	 eax, DWORD PTR tv325[ebp]
  005e0	8b 8c 82 00 00
	00 00		 mov	 ecx, DWORD PTR ?fn_get_local_entity_child_succ@@3PAY0CN@P6GPAUENTITY@@PAU1@W4LIST_TYPES@@@ZA[edx+eax*4]
  005e7	ff d1		 call	 ecx
  005e9	89 45 f0	 mov	 DWORD PTR _member$[ebp], eax

; 1263 : 	}

  005ec	e9 6c fc ff ff	 jmp	 $LN2@response_t
$LN3@response_t:

; 1264 : 
; 1265 : 	//
; 1266 : 	// Reassign any members that were doing the terminated task
; 1267 : 	//
; 1268 : 
; 1269 : 	if (valid_members != 0)

  005f1	83 7d fc 00	 cmp	 DWORD PTR _valid_members$[ebp], 0
  005f5	74 13		 je	 SHORT $LN15@response_t

; 1270 : 	{
; 1271 : 		reassign_group_members_to_valid_tasks (receiver, task, valid_members, TRUE);

  005f7	6a 01		 push	 1
  005f9	8b 45 fc	 mov	 eax, DWORD PTR _valid_members$[ebp]
  005fc	50		 push	 eax
  005fd	8b 4d ec	 mov	 ecx, DWORD PTR _task$[ebp]
  00600	51		 push	 ecx
  00601	8b 55 0c	 mov	 edx, DWORD PTR _receiver$[ebp]
  00604	52		 push	 edx
  00605	e8 00 00 00 00	 call	 ?reassign_group_members_to_valid_tasks@@YGHPAUENTITY@@0IH@Z ; reassign_group_members_to_valid_tasks
$LN15@response_t:

; 1272 : 	}
; 1273 : 
; 1274 : 	return (TRUE);

  0060a	b8 01 00 00 00	 mov	 eax, 1

; 1275 : }

  0060f	5f		 pop	 edi
  00610	5e		 pop	 esi
  00611	5b		 pop	 ebx
  00612	8b e5		 mov	 esp, ebp
  00614	5d		 pop	 ebp
  00615	c2 10 00	 ret	 16			; 00000010H
?response_to_task_terminated@@YGHW4ENTITY_MESSAGES@@PAUENTITY@@1PAD@Z ENDP ; response_to_task_terminated
_TEXT	ENDS
; Function compile flags: /Odtp /ZI
; File c:\users\nhv90\projects\eech\aphavoc\source\entity\special\group\gp_msgs.c
;	COMDAT ?response_to_task_completed@@YGHW4ENTITY_MESSAGES@@PAUENTITY@@1PAD@Z
_TEXT	SEGMENT
tv434 = -100						; size = 4
tv569 = -96						; size = 4
tv426 = -96						; size = 4
tv344 = -96						; size = 4
tv563 = -92						; size = 4
tv540 = -92						; size = 4
tv494 = -92						; size = 4
tv475 = -92						; size = 4
tv454 = -92						; size = 4
tv404 = -92						; size = 4
tv377 = -92						; size = 4
tv358 = -92						; size = 4
tv338 = -92						; size = 4
tv320 = -92						; size = 4
tv296 = -92						; size = 4
tv275 = -92						; size = 4
tv256 = -92						; size = 4
tv235 = -92						; size = 4
tv212 = -92						; size = 4
tv180 = -92						; size = 4
tv155 = -92						; size = 4
tv134 = -92						; size = 4
tv556 = -88						; size = 4
tv533 = -88						; size = 4
tv487 = -88						; size = 4
tv467 = -88						; size = 4
tv447 = -88						; size = 4
tv396 = -88						; size = 4
tv370 = -88						; size = 4
tv351 = -88						; size = 4
tv331 = -88						; size = 4
tv312 = -88						; size = 4
tv289 = -88						; size = 4
tv268 = -88						; size = 4
tv248 = -88						; size = 4
tv228 = -88						; size = 4
tv204 = -88						; size = 4
tv173 = -88						; size = 4
tv166 = -88						; size = 4
tv147 = -88						; size = 4
tv94 = -88						; size = 4
tv80 = -88						; size = 4
_speech_index$ = -20					; size = 4
_task_terminated$ = -16					; size = 4
_member$ = -12						; size = 4
_task$ = -8						; size = 4
_next$ = -4						; size = 4
_message$ = 8						; size = 4
_receiver$ = 12						; size = 4
_sender$ = 16						; size = 4
_pargs$ = 20						; size = 4
?response_to_task_completed@@YGHW4ENTITY_MESSAGES@@PAUENTITY@@1PAD@Z PROC ; response_to_task_completed, COMDAT

; 967  : {

  00000	55		 push	 ebp
  00001	8b ec		 mov	 ebp, esp
  00003	83 ec 64	 sub	 esp, 100		; 00000064H
  00006	53		 push	 ebx
  00007	56		 push	 esi
  00008	57		 push	 edi

; 968  : 	entity
; 969  : 		*next,
; 970  : 		*task,
; 971  : 		*member;
; 972  : 
; 973  : 	task_terminated_types
; 974  : 		task_terminated;
; 975  : 
; 976  : 	int
; 977  : 		speech_index;
; 978  : 
; 979  : 	#if DEBUG_MODULE
; 980  : 
; 981  : 	debug_log_entity_message (message, receiver, sender, pargs);
; 982  : 
; 983  : 	#endif
; 984  : 
; 985  : 	ASSERT (get_comms_model () == COMMS_MODEL_SERVER);

  00009	83 3d 00 00 00
	00 00		 cmp	 DWORD PTR ?system_comms_model@@3W4COMMS_MODEL_TYPES@@A, 0 ; system_comms_model
  00010	74 18		 je	 SHORT $LN10@response_t
  00012	a1 00 00 00 00	 mov	 eax, DWORD PTR ?__LINE__Var@?0??response_to_task_completed@@YGHW4ENTITY_MESSAGES@@PAUENTITY@@1PAD@Z@4JA
  00017	83 c0 12	 add	 eax, 18			; 00000012H
  0001a	50		 push	 eax
  0001b	68 00 00 00 00	 push	 OFFSET ??_C@_0EL@PBEBEHIP@c?3?2users?2nhv90?2projects?2eech?2ap@
  00020	68 00 00 00 00	 push	 OFFSET ??_C@_0CJ@DMBLBJBK@get_comms_model?5?$CI?$CJ?5?$DN?$DN?5COMMS_MOD@
  00025	e8 00 00 00 00	 call	 ?process_assert@@YGXPBD0H@Z ; process_assert
$LN10@response_t:

; 986  : 
; 987  : 	ASSERT (sender);

  0002a	83 7d 10 00	 cmp	 DWORD PTR _sender$[ebp], 0
  0002e	75 18		 jne	 SHORT $LN11@response_t
  00030	a1 00 00 00 00	 mov	 eax, DWORD PTR ?__LINE__Var@?0??response_to_task_completed@@YGHW4ENTITY_MESSAGES@@PAUENTITY@@1PAD@Z@4JA
  00035	83 c0 14	 add	 eax, 20			; 00000014H
  00038	50		 push	 eax
  00039	68 00 00 00 00	 push	 OFFSET ??_C@_0EL@PBEBEHIP@c?3?2users?2nhv90?2projects?2eech?2ap@
  0003e	68 00 00 00 00	 push	 OFFSET ??_C@_06CGHJMPBJ@sender@
  00043	e8 00 00 00 00	 call	 ?process_assert@@YGXPBD0H@Z ; process_assert
$LN11@response_t:

; 988  : 
; 989  : 	ASSERT (get_local_entity_type (sender) == ENTITY_TYPE_GUIDE);

  00048	83 7d 10 00	 cmp	 DWORD PTR _sender$[ebp], 0
  0004c	74 0a		 je	 SHORT $LN37@response_t
  0004e	8b 45 10	 mov	 eax, DWORD PTR _sender$[ebp]
  00051	8b 08		 mov	 ecx, DWORD PTR [eax]
  00053	89 4d a8	 mov	 DWORD PTR tv80[ebp], ecx
  00056	eb 21		 jmp	 SHORT $LN38@response_t
$LN37@response_t:
  00058	8b 15 00 00 00
	00		 mov	 edx, DWORD PTR ?__LINE__Var@?0??response_to_task_completed@@YGHW4ENTITY_MESSAGES@@PAUENTITY@@1PAD@Z@4JA
  0005e	83 c2 16	 add	 edx, 22			; 00000016H
  00061	52		 push	 edx
  00062	68 00 00 00 00	 push	 OFFSET ??_C@_0EL@PBEBEHIP@c?3?2users?2nhv90?2projects?2eech?2ap@
  00067	a1 00 00 00 00	 mov	 eax, DWORD PTR ?null_entity_pointer_message@@3PBDB ; null_entity_pointer_message
  0006c	50		 push	 eax
  0006d	e8 00 00 00 00	 call	 ?process_assert@@YGXPBD0H@Z ; process_assert
  00072	c7 45 a8 00 00
	00 00		 mov	 DWORD PTR tv80[ebp], 0
$LN38@response_t:
  00079	83 7d a8 0d	 cmp	 DWORD PTR tv80[ebp], 13	; 0000000dH
  0007d	74 18		 je	 SHORT $LN12@response_t
  0007f	a1 00 00 00 00	 mov	 eax, DWORD PTR ?__LINE__Var@?0??response_to_task_completed@@YGHW4ENTITY_MESSAGES@@PAUENTITY@@1PAD@Z@4JA
  00084	83 c0 16	 add	 eax, 22			; 00000016H
  00087	50		 push	 eax
  00088	68 00 00 00 00	 push	 OFFSET ??_C@_0EL@PBEBEHIP@c?3?2users?2nhv90?2projects?2eech?2ap@
  0008d	68 00 00 00 00	 push	 OFFSET ??_C@_0DE@BIHOKKGH@get_local_entity_type?5?$CIsender?$CJ?5@
  00092	e8 00 00 00 00	 call	 ?process_assert@@YGXPBD0H@Z ; process_assert
$LN12@response_t:

; 990  : 
; 991  : 	task_terminated = va_arg (pargs, task_terminated_types);

  00097	8b 45 14	 mov	 eax, DWORD PTR _pargs$[ebp]
  0009a	83 c0 04	 add	 eax, 4
  0009d	89 45 14	 mov	 DWORD PTR _pargs$[ebp], eax
  000a0	8b 4d 14	 mov	 ecx, DWORD PTR _pargs$[ebp]
  000a3	8b 51 fc	 mov	 edx, DWORD PTR [ecx-4]
  000a6	89 55 f0	 mov	 DWORD PTR _task_terminated$[ebp], edx

; 992  : 
; 993  : 	//
; 994  : 	// Notify Escort tasks
; 995  : 	//
; 996  : 
; 997  : 	task = get_local_entity_first_child (receiver, LIST_TYPE_TASK_DEPENDENT);

  000a9	83 7d 0c 00	 cmp	 DWORD PTR _receiver$[ebp], 0
  000ad	74 0a		 je	 SHORT $LN39@response_t
  000af	8b 45 0c	 mov	 eax, DWORD PTR _receiver$[ebp]
  000b2	8b 08		 mov	 ecx, DWORD PTR [eax]
  000b4	89 4d a8	 mov	 DWORD PTR tv94[ebp], ecx
  000b7	eb 21		 jmp	 SHORT $LN40@response_t
$LN39@response_t:
  000b9	8b 15 00 00 00
	00		 mov	 edx, DWORD PTR ?__LINE__Var@?0??response_to_task_completed@@YGHW4ENTITY_MESSAGES@@PAUENTITY@@1PAD@Z@4JA
  000bf	83 c2 1e	 add	 edx, 30			; 0000001eH
  000c2	52		 push	 edx
  000c3	68 00 00 00 00	 push	 OFFSET ??_C@_0EL@PBEBEHIP@c?3?2users?2nhv90?2projects?2eech?2ap@
  000c8	a1 00 00 00 00	 mov	 eax, DWORD PTR ?null_entity_pointer_message@@3PBDB ; null_entity_pointer_message
  000cd	50		 push	 eax
  000ce	e8 00 00 00 00	 call	 ?process_assert@@YGXPBD0H@Z ; process_assert
  000d3	c7 45 a8 00 00
	00 00		 mov	 DWORD PTR tv94[ebp], 0
$LN40@response_t:
  000da	b9 01 00 00 00	 mov	 ecx, 1
  000df	85 c9		 test	 ecx, ecx
  000e1	74 09		 je	 SHORT $LN41@response_t
  000e3	c7 45 a4 27 00
	00 00		 mov	 DWORD PTR tv134[ebp], 39 ; 00000027H
  000ea	eb 21		 jmp	 SHORT $LN42@response_t
$LN41@response_t:
  000ec	8b 15 00 00 00
	00		 mov	 edx, DWORD PTR ?__LINE__Var@?0??response_to_task_completed@@YGHW4ENTITY_MESSAGES@@PAUENTITY@@1PAD@Z@4JA
  000f2	83 c2 1e	 add	 edx, 30			; 0000001eH
  000f5	52		 push	 edx
  000f6	68 00 00 00 00	 push	 OFFSET ??_C@_0EL@PBEBEHIP@c?3?2users?2nhv90?2projects?2eech?2ap@
  000fb	a1 00 00 00 00	 mov	 eax, DWORD PTR ?overload_invalid_list_type_message@@3PBDB ; overload_invalid_list_type_message
  00100	50		 push	 eax
  00101	e8 00 00 00 00	 call	 ?process_assert@@YGXPBD0H@Z ; process_assert
  00106	c7 45 a4 00 00
	00 00		 mov	 DWORD PTR tv134[ebp], 0
$LN42@response_t:
  0010d	6a 27		 push	 39			; 00000027H
  0010f	8b 4d 0c	 mov	 ecx, DWORD PTR _receiver$[ebp]
  00112	51		 push	 ecx
  00113	69 55 a8 b4 00
	00 00		 imul	 edx, DWORD PTR tv94[ebp], 180
  0011a	8b 45 a4	 mov	 eax, DWORD PTR tv134[ebp]
  0011d	8b 8c 82 00 00
	00 00		 mov	 ecx, DWORD PTR ?fn_get_local_entity_first_child@@3PAY0CN@P6GPAUENTITY@@PAU1@W4LIST_TYPES@@@ZA[edx+eax*4]
  00124	ff d1		 call	 ecx
  00126	89 45 f8	 mov	 DWORD PTR _task$[ebp], eax
$LN2@response_t:

; 998  : 
; 999  : 	while (task)

  00129	83 7d f8 00	 cmp	 DWORD PTR _task$[ebp], 0
  0012d	0f 84 77 01 00
	00		 je	 $LN3@response_t

; 1000 : 	{
; 1001 : 		next = get_local_entity_child_succ (task, LIST_TYPE_TASK_DEPENDENT);

  00133	83 7d f8 00	 cmp	 DWORD PTR _task$[ebp], 0
  00137	74 0a		 je	 SHORT $LN43@response_t
  00139	8b 45 f8	 mov	 eax, DWORD PTR _task$[ebp]
  0013c	8b 08		 mov	 ecx, DWORD PTR [eax]
  0013e	89 4d a8	 mov	 DWORD PTR tv147[ebp], ecx
  00141	eb 21		 jmp	 SHORT $LN44@response_t
$LN43@response_t:
  00143	8b 15 00 00 00
	00		 mov	 edx, DWORD PTR ?__LINE__Var@?0??response_to_task_completed@@YGHW4ENTITY_MESSAGES@@PAUENTITY@@1PAD@Z@4JA
  00149	83 c2 22	 add	 edx, 34			; 00000022H
  0014c	52		 push	 edx
  0014d	68 00 00 00 00	 push	 OFFSET ??_C@_0EL@PBEBEHIP@c?3?2users?2nhv90?2projects?2eech?2ap@
  00152	a1 00 00 00 00	 mov	 eax, DWORD PTR ?null_entity_pointer_message@@3PBDB ; null_entity_pointer_message
  00157	50		 push	 eax
  00158	e8 00 00 00 00	 call	 ?process_assert@@YGXPBD0H@Z ; process_assert
  0015d	c7 45 a8 00 00
	00 00		 mov	 DWORD PTR tv147[ebp], 0
$LN44@response_t:
  00164	b9 01 00 00 00	 mov	 ecx, 1
  00169	85 c9		 test	 ecx, ecx
  0016b	74 09		 je	 SHORT $LN45@response_t
  0016d	c7 45 a4 27 00
	00 00		 mov	 DWORD PTR tv155[ebp], 39 ; 00000027H
  00174	eb 21		 jmp	 SHORT $LN46@response_t
$LN45@response_t:
  00176	8b 15 00 00 00
	00		 mov	 edx, DWORD PTR ?__LINE__Var@?0??response_to_task_completed@@YGHW4ENTITY_MESSAGES@@PAUENTITY@@1PAD@Z@4JA
  0017c	83 c2 22	 add	 edx, 34			; 00000022H
  0017f	52		 push	 edx
  00180	68 00 00 00 00	 push	 OFFSET ??_C@_0EL@PBEBEHIP@c?3?2users?2nhv90?2projects?2eech?2ap@
  00185	a1 00 00 00 00	 mov	 eax, DWORD PTR ?overload_invalid_list_type_message@@3PBDB ; overload_invalid_list_type_message
  0018a	50		 push	 eax
  0018b	e8 00 00 00 00	 call	 ?process_assert@@YGXPBD0H@Z ; process_assert
  00190	c7 45 a4 00 00
	00 00		 mov	 DWORD PTR tv155[ebp], 0
$LN46@response_t:
  00197	6a 27		 push	 39			; 00000027H
  00199	8b 4d f8	 mov	 ecx, DWORD PTR _task$[ebp]
  0019c	51		 push	 ecx
  0019d	69 55 a8 b4 00
	00 00		 imul	 edx, DWORD PTR tv147[ebp], 180
  001a4	8b 45 a4	 mov	 eax, DWORD PTR tv155[ebp]
  001a7	8b 8c 82 00 00
	00 00		 mov	 ecx, DWORD PTR ?fn_get_local_entity_child_succ@@3PAY0CN@P6GPAUENTITY@@PAU1@W4LIST_TYPES@@@ZA[edx+eax*4]
  001ae	ff d1		 call	 ecx
  001b0	89 45 fc	 mov	 DWORD PTR _next$[ebp], eax

; 1002 : 
; 1003 : 		if (get_local_entity_type (task) == ENTITY_TYPE_TASK)

  001b3	83 7d f8 00	 cmp	 DWORD PTR _task$[ebp], 0
  001b7	74 0a		 je	 SHORT $LN47@response_t
  001b9	8b 45 f8	 mov	 eax, DWORD PTR _task$[ebp]
  001bc	8b 08		 mov	 ecx, DWORD PTR [eax]
  001be	89 4d a8	 mov	 DWORD PTR tv166[ebp], ecx
  001c1	eb 1d		 jmp	 SHORT $LN48@response_t
$LN47@response_t:
  001c3	68 eb 03 00 00	 push	 1003			; 000003ebH
  001c8	68 00 00 00 00	 push	 OFFSET ??_C@_0EL@PBEBEHIP@c?3?2users?2nhv90?2projects?2eech?2ap@
  001cd	8b 15 00 00 00
	00		 mov	 edx, DWORD PTR ?null_entity_pointer_message@@3PBDB ; null_entity_pointer_message
  001d3	52		 push	 edx
  001d4	e8 00 00 00 00	 call	 ?process_assert@@YGXPBD0H@Z ; process_assert
  001d9	c7 45 a8 00 00
	00 00		 mov	 DWORD PTR tv166[ebp], 0
$LN48@response_t:
  001e0	83 7d a8 22	 cmp	 DWORD PTR tv166[ebp], 34 ; 00000022H
  001e4	0f 85 b5 00 00
	00		 jne	 $LN14@response_t

; 1004 : 		{
; 1005 : 			if (get_local_entity_int_value (task, INT_TYPE_ENTITY_SUB_TYPE) == ENTITY_SUB_TYPE_TASK_ESCORT)

  001ea	83 7d f8 00	 cmp	 DWORD PTR _task$[ebp], 0
  001ee	74 0a		 je	 SHORT $LN49@response_t
  001f0	8b 45 f8	 mov	 eax, DWORD PTR _task$[ebp]
  001f3	8b 08		 mov	 ecx, DWORD PTR [eax]
  001f5	89 4d a8	 mov	 DWORD PTR tv173[ebp], ecx
  001f8	eb 1d		 jmp	 SHORT $LN50@response_t
$LN49@response_t:
  001fa	68 ed 03 00 00	 push	 1005			; 000003edH
  001ff	68 00 00 00 00	 push	 OFFSET ??_C@_0EL@PBEBEHIP@c?3?2users?2nhv90?2projects?2eech?2ap@
  00204	8b 15 00 00 00
	00		 mov	 edx, DWORD PTR ?null_entity_pointer_message@@3PBDB ; null_entity_pointer_message
  0020a	52		 push	 edx
  0020b	e8 00 00 00 00	 call	 ?process_assert@@YGXPBD0H@Z ; process_assert
  00210	c7 45 a8 00 00
	00 00		 mov	 DWORD PTR tv173[ebp], 0
$LN50@response_t:
  00217	b8 01 00 00 00	 mov	 eax, 1
  0021c	85 c0		 test	 eax, eax
  0021e	74 09		 je	 SHORT $LN51@response_t
  00220	c7 45 a4 34 00
	00 00		 mov	 DWORD PTR tv180[ebp], 52 ; 00000034H
  00227	eb 1d		 jmp	 SHORT $LN52@response_t
$LN51@response_t:
  00229	68 ed 03 00 00	 push	 1005			; 000003edH
  0022e	68 00 00 00 00	 push	 OFFSET ??_C@_0EL@PBEBEHIP@c?3?2users?2nhv90?2projects?2eech?2ap@
  00233	8b 0d 00 00 00
	00		 mov	 ecx, DWORD PTR ?overload_invalid_int_type_message@@3PBDB ; overload_invalid_int_type_message
  00239	51		 push	 ecx
  0023a	e8 00 00 00 00	 call	 ?process_assert@@YGXPBD0H@Z ; process_assert
  0023f	c7 45 a4 00 00
	00 00		 mov	 DWORD PTR tv180[ebp], 0
$LN52@response_t:
  00246	6a 34		 push	 52			; 00000034H
  00248	8b 55 f8	 mov	 edx, DWORD PTR _task$[ebp]
  0024b	52		 push	 edx
  0024c	69 45 a8 5c 04
	00 00		 imul	 eax, DWORD PTR tv173[ebp], 1116
  00253	8b 4d a4	 mov	 ecx, DWORD PTR tv180[ebp]
  00256	8b 94 88 00 00
	00 00		 mov	 edx, DWORD PTR ?fn_get_local_entity_int_value@@3PAY0BBH@P6GHPAUENTITY@@W4INT_TYPES@@@ZA[eax+ecx*4]
  0025d	ff d2		 call	 edx
  0025f	83 f8 0a	 cmp	 eax, 10			; 0000000aH
  00262	75 3b		 jne	 SHORT $LN14@response_t

; 1006 : 			{
; 1007 : 				debug_log ("GP_MSGS: Group %d Notifying Escort Task %d of completeness",

  00264	8b 45 f8	 mov	 eax, DWORD PTR _task$[ebp]
  00267	2b 05 00 00 00
	00		 sub	 eax, DWORD PTR ?entities@@3PAUENTITY@@A ; entities
  0026d	c1 f8 04	 sar	 eax, 4
  00270	50		 push	 eax
  00271	8b 4d 0c	 mov	 ecx, DWORD PTR _receiver$[ebp]
  00274	2b 0d 00 00 00
	00		 sub	 ecx, DWORD PTR ?entities@@3PAUENTITY@@A ; entities
  0027a	c1 f9 04	 sar	 ecx, 4
  0027d	51		 push	 ecx
  0027e	68 00 00 00 00	 push	 OFFSET ??_C@_0DL@BDINOBID@GP_MSGS?3?5Group?5?$CFd?5Notifying?5Esc@
  00283	e8 00 00 00 00	 call	 ?debug_log@@YAXPBDZZ	; debug_log
  00288	83 c4 0c	 add	 esp, 12			; 0000000cH

; 1008 : 								get_local_entity_index (receiver),
; 1009 : 								get_local_entity_index (task));
; 1010 : 
; 1011 : 				notify_local_entity (ENTITY_MESSAGE_TASK_COMPLETED, task, receiver, TASK_TERMINATED_OBJECTIVE_MESSAGE);

  0028b	6a 04		 push	 4
  0028d	8b 45 0c	 mov	 eax, DWORD PTR _receiver$[ebp]
  00290	50		 push	 eax
  00291	8b 4d f8	 mov	 ecx, DWORD PTR _task$[ebp]
  00294	51		 push	 ecx
  00295	6a 32		 push	 50			; 00000032H
  00297	e8 00 00 00 00	 call	 ?notify_local_entity@@YAHW4ENTITY_MESSAGES@@PAUENTITY@@1ZZ ; notify_local_entity
  0029c	83 c4 10	 add	 esp, 16			; 00000010H
$LN14@response_t:

; 1012 : 			}
; 1013 : 		}
; 1014 : 
; 1015 : 		task = next;

  0029f	8b 45 fc	 mov	 eax, DWORD PTR _next$[ebp]
  002a2	89 45 f8	 mov	 DWORD PTR _task$[ebp], eax

; 1016 : 	}

  002a5	e9 7f fe ff ff	 jmp	 $LN2@response_t
$LN3@response_t:

; 1017 : 
; 1018 : 	task = get_local_entity_parent (sender, LIST_TYPE_GUIDE);

  002aa	83 7d 10 00	 cmp	 DWORD PTR _sender$[ebp], 0
  002ae	74 0a		 je	 SHORT $LN53@response_t
  002b0	8b 45 10	 mov	 eax, DWORD PTR _sender$[ebp]
  002b3	8b 08		 mov	 ecx, DWORD PTR [eax]
  002b5	89 4d a8	 mov	 DWORD PTR tv204[ebp], ecx
  002b8	eb 21		 jmp	 SHORT $LN54@response_t
$LN53@response_t:
  002ba	8b 15 00 00 00
	00		 mov	 edx, DWORD PTR ?__LINE__Var@?0??response_to_task_completed@@YGHW4ENTITY_MESSAGES@@PAUENTITY@@1PAD@Z@4JA
  002c0	83 c2 33	 add	 edx, 51			; 00000033H
  002c3	52		 push	 edx
  002c4	68 00 00 00 00	 push	 OFFSET ??_C@_0EL@PBEBEHIP@c?3?2users?2nhv90?2projects?2eech?2ap@
  002c9	a1 00 00 00 00	 mov	 eax, DWORD PTR ?null_entity_pointer_message@@3PBDB ; null_entity_pointer_message
  002ce	50		 push	 eax
  002cf	e8 00 00 00 00	 call	 ?process_assert@@YGXPBD0H@Z ; process_assert
  002d4	c7 45 a8 00 00
	00 00		 mov	 DWORD PTR tv204[ebp], 0
$LN54@response_t:
  002db	b9 01 00 00 00	 mov	 ecx, 1
  002e0	85 c9		 test	 ecx, ecx
  002e2	74 09		 je	 SHORT $LN55@response_t
  002e4	c7 45 a4 10 00
	00 00		 mov	 DWORD PTR tv212[ebp], 16 ; 00000010H
  002eb	eb 21		 jmp	 SHORT $LN56@response_t
$LN55@response_t:
  002ed	8b 15 00 00 00
	00		 mov	 edx, DWORD PTR ?__LINE__Var@?0??response_to_task_completed@@YGHW4ENTITY_MESSAGES@@PAUENTITY@@1PAD@Z@4JA
  002f3	83 c2 33	 add	 edx, 51			; 00000033H
  002f6	52		 push	 edx
  002f7	68 00 00 00 00	 push	 OFFSET ??_C@_0EL@PBEBEHIP@c?3?2users?2nhv90?2projects?2eech?2ap@
  002fc	a1 00 00 00 00	 mov	 eax, DWORD PTR ?overload_invalid_list_type_message@@3PBDB ; overload_invalid_list_type_message
  00301	50		 push	 eax
  00302	e8 00 00 00 00	 call	 ?process_assert@@YGXPBD0H@Z ; process_assert
  00307	c7 45 a4 00 00
	00 00		 mov	 DWORD PTR tv212[ebp], 0
$LN56@response_t:
  0030e	6a 10		 push	 16			; 00000010H
  00310	8b 4d 10	 mov	 ecx, DWORD PTR _sender$[ebp]
  00313	51		 push	 ecx
  00314	69 55 a8 b4 00
	00 00		 imul	 edx, DWORD PTR tv204[ebp], 180
  0031b	8b 45 a4	 mov	 eax, DWORD PTR tv212[ebp]
  0031e	8b 8c 82 00 00
	00 00		 mov	 ecx, DWORD PTR ?fn_get_local_entity_parent@@3PAY0CN@P6GPAUENTITY@@PAU1@W4LIST_TYPES@@@ZA[edx+eax*4]
  00325	ff d1		 call	 ecx
  00327	89 45 f8	 mov	 DWORD PTR _task$[ebp], eax

; 1019 : 
; 1020 : 	ASSERT (task);

  0032a	83 7d f8 00	 cmp	 DWORD PTR _task$[ebp], 0
  0032e	75 18		 jne	 SHORT $LN15@response_t
  00330	a1 00 00 00 00	 mov	 eax, DWORD PTR ?__LINE__Var@?0??response_to_task_completed@@YGHW4ENTITY_MESSAGES@@PAUENTITY@@1PAD@Z@4JA
  00335	83 c0 35	 add	 eax, 53			; 00000035H
  00338	50		 push	 eax
  00339	68 00 00 00 00	 push	 OFFSET ??_C@_0EL@PBEBEHIP@c?3?2users?2nhv90?2projects?2eech?2ap@
  0033e	68 00 00 00 00	 push	 OFFSET ??_C@_04GGKLLKOO@task@
  00343	e8 00 00 00 00	 call	 ?process_assert@@YGXPBD0H@Z ; process_assert
$LN15@response_t:

; 1021 : 
; 1022 : 	if (get_local_entity_int_value (task, INT_TYPE_PRIMARY_TASK))

  00348	83 7d f8 00	 cmp	 DWORD PTR _task$[ebp], 0
  0034c	74 0a		 je	 SHORT $LN57@response_t
  0034e	8b 45 f8	 mov	 eax, DWORD PTR _task$[ebp]
  00351	8b 08		 mov	 ecx, DWORD PTR [eax]
  00353	89 4d a8	 mov	 DWORD PTR tv228[ebp], ecx
  00356	eb 1d		 jmp	 SHORT $LN58@response_t
$LN57@response_t:
  00358	68 fe 03 00 00	 push	 1022			; 000003feH
  0035d	68 00 00 00 00	 push	 OFFSET ??_C@_0EL@PBEBEHIP@c?3?2users?2nhv90?2projects?2eech?2ap@
  00362	8b 15 00 00 00
	00		 mov	 edx, DWORD PTR ?null_entity_pointer_message@@3PBDB ; null_entity_pointer_message
  00368	52		 push	 edx
  00369	e8 00 00 00 00	 call	 ?process_assert@@YGXPBD0H@Z ; process_assert
  0036e	c7 45 a8 00 00
	00 00		 mov	 DWORD PTR tv228[ebp], 0
$LN58@response_t:
  00375	b8 01 00 00 00	 mov	 eax, 1
  0037a	85 c0		 test	 eax, eax
  0037c	74 09		 je	 SHORT $LN59@response_t
  0037e	c7 45 a4 a3 00
	00 00		 mov	 DWORD PTR tv235[ebp], 163 ; 000000a3H
  00385	eb 1d		 jmp	 SHORT $LN60@response_t
$LN59@response_t:
  00387	68 fe 03 00 00	 push	 1022			; 000003feH
  0038c	68 00 00 00 00	 push	 OFFSET ??_C@_0EL@PBEBEHIP@c?3?2users?2nhv90?2projects?2eech?2ap@
  00391	8b 0d 00 00 00
	00		 mov	 ecx, DWORD PTR ?overload_invalid_int_type_message@@3PBDB ; overload_invalid_int_type_message
  00397	51		 push	 ecx
  00398	e8 00 00 00 00	 call	 ?process_assert@@YGXPBD0H@Z ; process_assert
  0039d	c7 45 a4 00 00
	00 00		 mov	 DWORD PTR tv235[ebp], 0
$LN60@response_t:
  003a4	68 a3 00 00 00	 push	 163			; 000000a3H
  003a9	8b 55 f8	 mov	 edx, DWORD PTR _task$[ebp]
  003ac	52		 push	 edx
  003ad	69 45 a8 5c 04
	00 00		 imul	 eax, DWORD PTR tv228[ebp], 1116
  003b4	8b 4d a4	 mov	 ecx, DWORD PTR tv235[ebp]
  003b7	8b 94 88 00 00
	00 00		 mov	 edx, DWORD PTR ?fn_get_local_entity_int_value@@3PAY0BBH@P6GHPAUENTITY@@W4INT_TYPES@@@ZA[eax+ecx*4]
  003be	ff d2		 call	 edx
  003c0	85 c0		 test	 eax, eax
  003c2	0f 84 9b 07 00
	00		 je	 $LN6@response_t

; 1023 : 	{
; 1024 : 		//
; 1025 : 		// Notify Players of task completed
; 1026 : 		//
; 1027 : 
; 1028 : 		member = get_local_entity_first_child (receiver, LIST_TYPE_MEMBER);

  003c8	83 7d 0c 00	 cmp	 DWORD PTR _receiver$[ebp], 0
  003cc	74 0a		 je	 SHORT $LN61@response_t
  003ce	8b 45 0c	 mov	 eax, DWORD PTR _receiver$[ebp]
  003d1	8b 08		 mov	 ecx, DWORD PTR [eax]
  003d3	89 4d a8	 mov	 DWORD PTR tv248[ebp], ecx
  003d6	eb 21		 jmp	 SHORT $LN62@response_t
$LN61@response_t:
  003d8	8b 15 00 00 00
	00		 mov	 edx, DWORD PTR ?__LINE__Var@?0??response_to_task_completed@@YGHW4ENTITY_MESSAGES@@PAUENTITY@@1PAD@Z@4JA
  003de	83 c2 3d	 add	 edx, 61			; 0000003dH
  003e1	52		 push	 edx
  003e2	68 00 00 00 00	 push	 OFFSET ??_C@_0EL@PBEBEHIP@c?3?2users?2nhv90?2projects?2eech?2ap@
  003e7	a1 00 00 00 00	 mov	 eax, DWORD PTR ?null_entity_pointer_message@@3PBDB ; null_entity_pointer_message
  003ec	50		 push	 eax
  003ed	e8 00 00 00 00	 call	 ?process_assert@@YGXPBD0H@Z ; process_assert
  003f2	c7 45 a8 00 00
	00 00		 mov	 DWORD PTR tv248[ebp], 0
$LN62@response_t:
  003f9	b9 01 00 00 00	 mov	 ecx, 1
  003fe	85 c9		 test	 ecx, ecx
  00400	74 09		 je	 SHORT $LN63@response_t
  00402	c7 45 a4 19 00
	00 00		 mov	 DWORD PTR tv256[ebp], 25 ; 00000019H
  00409	eb 21		 jmp	 SHORT $LN64@response_t
$LN63@response_t:
  0040b	8b 15 00 00 00
	00		 mov	 edx, DWORD PTR ?__LINE__Var@?0??response_to_task_completed@@YGHW4ENTITY_MESSAGES@@PAUENTITY@@1PAD@Z@4JA
  00411	83 c2 3d	 add	 edx, 61			; 0000003dH
  00414	52		 push	 edx
  00415	68 00 00 00 00	 push	 OFFSET ??_C@_0EL@PBEBEHIP@c?3?2users?2nhv90?2projects?2eech?2ap@
  0041a	a1 00 00 00 00	 mov	 eax, DWORD PTR ?overload_invalid_list_type_message@@3PBDB ; overload_invalid_list_type_message
  0041f	50		 push	 eax
  00420	e8 00 00 00 00	 call	 ?process_assert@@YGXPBD0H@Z ; process_assert
  00425	c7 45 a4 00 00
	00 00		 mov	 DWORD PTR tv256[ebp], 0
$LN64@response_t:
  0042c	6a 19		 push	 25			; 00000019H
  0042e	8b 4d 0c	 mov	 ecx, DWORD PTR _receiver$[ebp]
  00431	51		 push	 ecx
  00432	69 55 a8 b4 00
	00 00		 imul	 edx, DWORD PTR tv248[ebp], 180
  00439	8b 45 a4	 mov	 eax, DWORD PTR tv256[ebp]
  0043c	8b 8c 82 00 00
	00 00		 mov	 ecx, DWORD PTR ?fn_get_local_entity_first_child@@3PAY0CN@P6GPAUENTITY@@PAU1@W4LIST_TYPES@@@ZA[edx+eax*4]
  00443	ff d1		 call	 ecx
  00445	89 45 f4	 mov	 DWORD PTR _member$[ebp], eax
$LN4@response_t:

; 1029 : 	
; 1030 : 		while (member)

  00448	83 7d f4 00	 cmp	 DWORD PTR _member$[ebp], 0
  0044c	0f 84 a3 01 00
	00		 je	 $LN5@response_t

; 1031 : 		{
; 1032 : 			if (get_local_entity_int_value (member, INT_TYPE_PLAYER) == ENTITY_PLAYER_LOCAL)

  00452	83 7d f4 00	 cmp	 DWORD PTR _member$[ebp], 0
  00456	74 0a		 je	 SHORT $LN65@response_t
  00458	8b 45 f4	 mov	 eax, DWORD PTR _member$[ebp]
  0045b	8b 08		 mov	 ecx, DWORD PTR [eax]
  0045d	89 4d a8	 mov	 DWORD PTR tv268[ebp], ecx
  00460	eb 1d		 jmp	 SHORT $LN66@response_t
$LN65@response_t:
  00462	68 08 04 00 00	 push	 1032			; 00000408H
  00467	68 00 00 00 00	 push	 OFFSET ??_C@_0EL@PBEBEHIP@c?3?2users?2nhv90?2projects?2eech?2ap@
  0046c	8b 15 00 00 00
	00		 mov	 edx, DWORD PTR ?null_entity_pointer_message@@3PBDB ; null_entity_pointer_message
  00472	52		 push	 edx
  00473	e8 00 00 00 00	 call	 ?process_assert@@YGXPBD0H@Z ; process_assert
  00478	c7 45 a8 00 00
	00 00		 mov	 DWORD PTR tv268[ebp], 0
$LN66@response_t:
  0047f	b8 01 00 00 00	 mov	 eax, 1
  00484	85 c0		 test	 eax, eax
  00486	74 09		 je	 SHORT $LN67@response_t
  00488	c7 45 a4 9c 00
	00 00		 mov	 DWORD PTR tv275[ebp], 156 ; 0000009cH
  0048f	eb 1d		 jmp	 SHORT $LN68@response_t
$LN67@response_t:
  00491	68 08 04 00 00	 push	 1032			; 00000408H
  00496	68 00 00 00 00	 push	 OFFSET ??_C@_0EL@PBEBEHIP@c?3?2users?2nhv90?2projects?2eech?2ap@
  0049b	8b 0d 00 00 00
	00		 mov	 ecx, DWORD PTR ?overload_invalid_int_type_message@@3PBDB ; overload_invalid_int_type_message
  004a1	51		 push	 ecx
  004a2	e8 00 00 00 00	 call	 ?process_assert@@YGXPBD0H@Z ; process_assert
  004a7	c7 45 a4 00 00
	00 00		 mov	 DWORD PTR tv275[ebp], 0
$LN68@response_t:
  004ae	68 9c 00 00 00	 push	 156			; 0000009cH
  004b3	8b 55 f4	 mov	 edx, DWORD PTR _member$[ebp]
  004b6	52		 push	 edx
  004b7	69 45 a8 5c 04
	00 00		 imul	 eax, DWORD PTR tv268[ebp], 1116
  004be	8b 4d a4	 mov	 ecx, DWORD PTR tv275[ebp]
  004c1	8b 94 88 00 00
	00 00		 mov	 edx, DWORD PTR ?fn_get_local_entity_int_value@@3PAY0BBH@P6GHPAUENTITY@@W4INT_TYPES@@@ZA[eax+ecx*4]
  004c8	ff d2		 call	 edx
  004ca	83 f8 01	 cmp	 eax, 1
  004cd	75 12		 jne	 SHORT $LN17@response_t

; 1033 : 			{
; 1034 : 				notify_gunship_entity_mission_completed (member, task);

  004cf	8b 45 f8	 mov	 eax, DWORD PTR _task$[ebp]
  004d2	50		 push	 eax
  004d3	8b 4d f4	 mov	 ecx, DWORD PTR _member$[ebp]
  004d6	51		 push	 ecx
  004d7	e8 00 00 00 00	 call	 ?notify_gunship_entity_mission_completed@@YGXPAUENTITY@@0@Z ; notify_gunship_entity_mission_completed
  004dc	e9 8f 00 00 00	 jmp	 $LN19@response_t
$LN17@response_t:

; 1035 : 			}
; 1036 : 			else if (get_local_entity_int_value (member, INT_TYPE_PLAYER) == ENTITY_PLAYER_REMOTE)

  004e1	83 7d f4 00	 cmp	 DWORD PTR _member$[ebp], 0
  004e5	74 0a		 je	 SHORT $LN69@response_t
  004e7	8b 45 f4	 mov	 eax, DWORD PTR _member$[ebp]
  004ea	8b 08		 mov	 ecx, DWORD PTR [eax]
  004ec	89 4d a8	 mov	 DWORD PTR tv289[ebp], ecx
  004ef	eb 1d		 jmp	 SHORT $LN70@response_t
$LN69@response_t:
  004f1	68 0c 04 00 00	 push	 1036			; 0000040cH
  004f6	68 00 00 00 00	 push	 OFFSET ??_C@_0EL@PBEBEHIP@c?3?2users?2nhv90?2projects?2eech?2ap@
  004fb	8b 15 00 00 00
	00		 mov	 edx, DWORD PTR ?null_entity_pointer_message@@3PBDB ; null_entity_pointer_message
  00501	52		 push	 edx
  00502	e8 00 00 00 00	 call	 ?process_assert@@YGXPBD0H@Z ; process_assert
  00507	c7 45 a8 00 00
	00 00		 mov	 DWORD PTR tv289[ebp], 0
$LN70@response_t:
  0050e	b8 01 00 00 00	 mov	 eax, 1
  00513	85 c0		 test	 eax, eax
  00515	74 09		 je	 SHORT $LN71@response_t
  00517	c7 45 a4 9c 00
	00 00		 mov	 DWORD PTR tv296[ebp], 156 ; 0000009cH
  0051e	eb 1d		 jmp	 SHORT $LN72@response_t
$LN71@response_t:
  00520	68 0c 04 00 00	 push	 1036			; 0000040cH
  00525	68 00 00 00 00	 push	 OFFSET ??_C@_0EL@PBEBEHIP@c?3?2users?2nhv90?2projects?2eech?2ap@
  0052a	8b 0d 00 00 00
	00		 mov	 ecx, DWORD PTR ?overload_invalid_int_type_message@@3PBDB ; overload_invalid_int_type_message
  00530	51		 push	 ecx
  00531	e8 00 00 00 00	 call	 ?process_assert@@YGXPBD0H@Z ; process_assert
  00536	c7 45 a4 00 00
	00 00		 mov	 DWORD PTR tv296[ebp], 0
$LN72@response_t:
  0053d	68 9c 00 00 00	 push	 156			; 0000009cH
  00542	8b 55 f4	 mov	 edx, DWORD PTR _member$[ebp]
  00545	52		 push	 edx
  00546	69 45 a8 5c 04
	00 00		 imul	 eax, DWORD PTR tv289[ebp], 1116
  0054d	8b 4d a4	 mov	 ecx, DWORD PTR tv296[ebp]
  00550	8b 94 88 00 00
	00 00		 mov	 edx, DWORD PTR ?fn_get_local_entity_int_value@@3PAY0BBH@P6GHPAUENTITY@@W4INT_TYPES@@@ZA[eax+ecx*4]
  00557	ff d2		 call	 edx
  00559	83 f8 02	 cmp	 eax, 2
  0055c	75 12		 jne	 SHORT $LN19@response_t

; 1037 : 			{
; 1038 : 				transmit_entity_comms_message (ENTITY_COMMS_PLAYER_TASK_COMPLETED, member, task);

  0055e	8b 45 f8	 mov	 eax, DWORD PTR _task$[ebp]
  00561	50		 push	 eax
  00562	8b 4d f4	 mov	 ecx, DWORD PTR _member$[ebp]
  00565	51		 push	 ecx
  00566	6a 26		 push	 38			; 00000026H
  00568	e8 00 00 00 00	 call	 ?transmit_entity_comms_message@@YAXW4ENTITY_COMMS_MESSAGES@@PAUENTITY@@ZZ ; transmit_entity_comms_message
  0056d	83 c4 0c	 add	 esp, 12			; 0000000cH
$LN19@response_t:

; 1039 : 			}
; 1040 : 		
; 1041 : 			member = get_local_entity_child_succ (member, LIST_TYPE_MEMBER);

  00570	83 7d f4 00	 cmp	 DWORD PTR _member$[ebp], 0
  00574	74 0a		 je	 SHORT $LN73@response_t
  00576	8b 45 f4	 mov	 eax, DWORD PTR _member$[ebp]
  00579	8b 08		 mov	 ecx, DWORD PTR [eax]
  0057b	89 4d a8	 mov	 DWORD PTR tv312[ebp], ecx
  0057e	eb 21		 jmp	 SHORT $LN74@response_t
$LN73@response_t:
  00580	8b 15 00 00 00
	00		 mov	 edx, DWORD PTR ?__LINE__Var@?0??response_to_task_completed@@YGHW4ENTITY_MESSAGES@@PAUENTITY@@1PAD@Z@4JA
  00586	83 c2 4a	 add	 edx, 74			; 0000004aH
  00589	52		 push	 edx
  0058a	68 00 00 00 00	 push	 OFFSET ??_C@_0EL@PBEBEHIP@c?3?2users?2nhv90?2projects?2eech?2ap@
  0058f	a1 00 00 00 00	 mov	 eax, DWORD PTR ?null_entity_pointer_message@@3PBDB ; null_entity_pointer_message
  00594	50		 push	 eax
  00595	e8 00 00 00 00	 call	 ?process_assert@@YGXPBD0H@Z ; process_assert
  0059a	c7 45 a8 00 00
	00 00		 mov	 DWORD PTR tv312[ebp], 0
$LN74@response_t:
  005a1	b9 01 00 00 00	 mov	 ecx, 1
  005a6	85 c9		 test	 ecx, ecx
  005a8	74 09		 je	 SHORT $LN75@response_t
  005aa	c7 45 a4 19 00
	00 00		 mov	 DWORD PTR tv320[ebp], 25 ; 00000019H
  005b1	eb 21		 jmp	 SHORT $LN76@response_t
$LN75@response_t:
  005b3	8b 15 00 00 00
	00		 mov	 edx, DWORD PTR ?__LINE__Var@?0??response_to_task_completed@@YGHW4ENTITY_MESSAGES@@PAUENTITY@@1PAD@Z@4JA
  005b9	83 c2 4a	 add	 edx, 74			; 0000004aH
  005bc	52		 push	 edx
  005bd	68 00 00 00 00	 push	 OFFSET ??_C@_0EL@PBEBEHIP@c?3?2users?2nhv90?2projects?2eech?2ap@
  005c2	a1 00 00 00 00	 mov	 eax, DWORD PTR ?overload_invalid_list_type_message@@3PBDB ; overload_invalid_list_type_message
  005c7	50		 push	 eax
  005c8	e8 00 00 00 00	 call	 ?process_assert@@YGXPBD0H@Z ; process_assert
  005cd	c7 45 a4 00 00
	00 00		 mov	 DWORD PTR tv320[ebp], 0
$LN76@response_t:
  005d4	6a 19		 push	 25			; 00000019H
  005d6	8b 4d f4	 mov	 ecx, DWORD PTR _member$[ebp]
  005d9	51		 push	 ecx
  005da	69 55 a8 b4 00
	00 00		 imul	 edx, DWORD PTR tv312[ebp], 180
  005e1	8b 45 a4	 mov	 eax, DWORD PTR tv320[ebp]
  005e4	8b 8c 82 00 00
	00 00		 mov	 ecx, DWORD PTR ?fn_get_local_entity_child_succ@@3PAY0CN@P6GPAUENTITY@@PAU1@W4LIST_TYPES@@@ZA[edx+eax*4]
  005eb	ff d1		 call	 ecx
  005ed	89 45 f4	 mov	 DWORD PTR _member$[ebp], eax

; 1042 : 		}

  005f0	e9 53 fe ff ff	 jmp	 $LN4@response_t
$LN5@response_t:

; 1043 : 
; 1044 : 		//
; 1045 : 		// Play Speech (Unless failed)
; 1046 : 		//
; 1047 : 
; 1048 : 		switch (get_local_entity_int_value (task, INT_TYPE_TASK_COMPLETED))

  005f5	83 7d f8 00	 cmp	 DWORD PTR _task$[ebp], 0
  005f9	74 0a		 je	 SHORT $LN77@response_t
  005fb	8b 45 f8	 mov	 eax, DWORD PTR _task$[ebp]
  005fe	8b 08		 mov	 ecx, DWORD PTR [eax]
  00600	89 4d a8	 mov	 DWORD PTR tv331[ebp], ecx
  00603	eb 1d		 jmp	 SHORT $LN78@response_t
$LN77@response_t:
  00605	68 18 04 00 00	 push	 1048			; 00000418H
  0060a	68 00 00 00 00	 push	 OFFSET ??_C@_0EL@PBEBEHIP@c?3?2users?2nhv90?2projects?2eech?2ap@
  0060f	8b 15 00 00 00
	00		 mov	 edx, DWORD PTR ?null_entity_pointer_message@@3PBDB ; null_entity_pointer_message
  00615	52		 push	 edx
  00616	e8 00 00 00 00	 call	 ?process_assert@@YGXPBD0H@Z ; process_assert
  0061b	c7 45 a8 00 00
	00 00		 mov	 DWORD PTR tv331[ebp], 0
$LN78@response_t:
  00622	b8 01 00 00 00	 mov	 eax, 1
  00627	85 c0		 test	 eax, eax
  00629	74 09		 je	 SHORT $LN79@response_t
  0062b	c7 45 a4 d9 00
	00 00		 mov	 DWORD PTR tv338[ebp], 217 ; 000000d9H
  00632	eb 1d		 jmp	 SHORT $LN80@response_t
$LN79@response_t:
  00634	68 18 04 00 00	 push	 1048			; 00000418H
  00639	68 00 00 00 00	 push	 OFFSET ??_C@_0EL@PBEBEHIP@c?3?2users?2nhv90?2projects?2eech?2ap@
  0063e	8b 0d 00 00 00
	00		 mov	 ecx, DWORD PTR ?overload_invalid_int_type_message@@3PBDB ; overload_invalid_int_type_message
  00644	51		 push	 ecx
  00645	e8 00 00 00 00	 call	 ?process_assert@@YGXPBD0H@Z ; process_assert
  0064a	c7 45 a4 00 00
	00 00		 mov	 DWORD PTR tv338[ebp], 0
$LN80@response_t:
  00651	68 d9 00 00 00	 push	 217			; 000000d9H
  00656	8b 55 f8	 mov	 edx, DWORD PTR _task$[ebp]
  00659	52		 push	 edx
  0065a	69 45 a8 5c 04
	00 00		 imul	 eax, DWORD PTR tv331[ebp], 1116
  00661	8b 4d a4	 mov	 ecx, DWORD PTR tv338[ebp]
  00664	8b 94 88 00 00
	00 00		 mov	 edx, DWORD PTR ?fn_get_local_entity_int_value@@3PAY0BBH@P6GHPAUENTITY@@W4INT_TYPES@@@ZA[eax+ecx*4]
  0066b	ff d2		 call	 edx
  0066d	89 45 a0	 mov	 DWORD PTR tv344[ebp], eax
  00670	83 7d a0 03	 cmp	 DWORD PTR tv344[ebp], 3
  00674	0f 87 e9 04 00
	00		 ja	 $LN6@response_t
  0067a	8b 45 a0	 mov	 eax, DWORD PTR tv344[ebp]
  0067d	ff 24 85 00 00
	00 00		 jmp	 DWORD PTR $LN117@response_t[eax*4]
$LN20@response_t:

; 1049 : 		{
; 1050 : 			case TASK_INCOMPLETE:
; 1051 : 			{
; 1052 : 				debug_fatal ("GP_MSGS: Response to task completed - Task NOT complete");

  00684	68 00 00 00 00	 push	 OFFSET ??_C@_0DI@BMCMMFCK@GP_MSGS?3?5Response?5to?5task?5compl@
  00689	e8 00 00 00 00	 call	 ?debug_fatal@@YAXPBDZZ	; debug_fatal
  0068e	83 c4 04	 add	 esp, 4

; 1053 : 
; 1054 : 				break;

  00691	e9 cd 04 00 00	 jmp	 $LN6@response_t
$LN21@response_t:

; 1055 : 			}
; 1056 : 			case TASK_COMPLETED_FAILURE:
; 1057 : 			{
; 1058 : 				//
; 1059 : 				// Play Speech
; 1060 : 				//
; 1061 : 
; 1062 : 				if (get_local_entity_int_value (task, INT_TYPE_TASK_TERMINATED) != TASK_TERMINATED_GROUP_DESTROYED)

  00696	83 7d f8 00	 cmp	 DWORD PTR _task$[ebp], 0
  0069a	74 0a		 je	 SHORT $LN81@response_t
  0069c	8b 45 f8	 mov	 eax, DWORD PTR _task$[ebp]
  0069f	8b 08		 mov	 ecx, DWORD PTR [eax]
  006a1	89 4d a8	 mov	 DWORD PTR tv351[ebp], ecx
  006a4	eb 1d		 jmp	 SHORT $LN82@response_t
$LN81@response_t:
  006a6	68 26 04 00 00	 push	 1062			; 00000426H
  006ab	68 00 00 00 00	 push	 OFFSET ??_C@_0EL@PBEBEHIP@c?3?2users?2nhv90?2projects?2eech?2ap@
  006b0	8b 15 00 00 00
	00		 mov	 edx, DWORD PTR ?null_entity_pointer_message@@3PBDB ; null_entity_pointer_message
  006b6	52		 push	 edx
  006b7	e8 00 00 00 00	 call	 ?process_assert@@YGXPBD0H@Z ; process_assert
  006bc	c7 45 a8 00 00
	00 00		 mov	 DWORD PTR tv351[ebp], 0
$LN82@response_t:
  006c3	b8 01 00 00 00	 mov	 eax, 1
  006c8	85 c0		 test	 eax, eax
  006ca	74 09		 je	 SHORT $LN83@response_t
  006cc	c7 45 a4 e7 00
	00 00		 mov	 DWORD PTR tv358[ebp], 231 ; 000000e7H
  006d3	eb 1d		 jmp	 SHORT $LN84@response_t
$LN83@response_t:
  006d5	68 26 04 00 00	 push	 1062			; 00000426H
  006da	68 00 00 00 00	 push	 OFFSET ??_C@_0EL@PBEBEHIP@c?3?2users?2nhv90?2projects?2eech?2ap@
  006df	8b 0d 00 00 00
	00		 mov	 ecx, DWORD PTR ?overload_invalid_int_type_message@@3PBDB ; overload_invalid_int_type_message
  006e5	51		 push	 ecx
  006e6	e8 00 00 00 00	 call	 ?process_assert@@YGXPBD0H@Z ; process_assert
  006eb	c7 45 a4 00 00
	00 00		 mov	 DWORD PTR tv358[ebp], 0
$LN84@response_t:
  006f2	68 e7 00 00 00	 push	 231			; 000000e7H
  006f7	8b 55 f8	 mov	 edx, DWORD PTR _task$[ebp]
  006fa	52		 push	 edx
  006fb	69 45 a8 5c 04
	00 00		 imul	 eax, DWORD PTR tv351[ebp], 1116
  00702	8b 4d a4	 mov	 ecx, DWORD PTR tv358[ebp]
  00705	8b 94 88 00 00
	00 00		 mov	 edx, DWORD PTR ?fn_get_local_entity_int_value@@3PAY0BBH@P6GHPAUENTITY@@W4INT_TYPES@@@ZA[eax+ecx*4]
  0070c	ff d2		 call	 edx
  0070e	83 f8 03	 cmp	 eax, 3
  00711	0f 84 d6 01 00
	00		 je	 $LN23@response_t

; 1063 : 				{
; 1064 : 					if (get_local_entity_int_value (receiver, INT_TYPE_AIRCRAFT_GROUP))

  00717	83 7d 0c 00	 cmp	 DWORD PTR _receiver$[ebp], 0
  0071b	74 0a		 je	 SHORT $LN85@response_t
  0071d	8b 45 0c	 mov	 eax, DWORD PTR _receiver$[ebp]
  00720	8b 08		 mov	 ecx, DWORD PTR [eax]
  00722	89 4d a8	 mov	 DWORD PTR tv370[ebp], ecx
  00725	eb 1d		 jmp	 SHORT $LN86@response_t
$LN85@response_t:
  00727	68 28 04 00 00	 push	 1064			; 00000428H
  0072c	68 00 00 00 00	 push	 OFFSET ??_C@_0EL@PBEBEHIP@c?3?2users?2nhv90?2projects?2eech?2ap@
  00731	8b 15 00 00 00
	00		 mov	 edx, DWORD PTR ?null_entity_pointer_message@@3PBDB ; null_entity_pointer_message
  00737	52		 push	 edx
  00738	e8 00 00 00 00	 call	 ?process_assert@@YGXPBD0H@Z ; process_assert
  0073d	c7 45 a8 00 00
	00 00		 mov	 DWORD PTR tv370[ebp], 0
$LN86@response_t:
  00744	b8 01 00 00 00	 mov	 eax, 1
  00749	85 c0		 test	 eax, eax
  0074b	74 09		 je	 SHORT $LN87@response_t
  0074d	c7 45 a4 05 00
	00 00		 mov	 DWORD PTR tv377[ebp], 5
  00754	eb 1d		 jmp	 SHORT $LN88@response_t
$LN87@response_t:
  00756	68 28 04 00 00	 push	 1064			; 00000428H
  0075b	68 00 00 00 00	 push	 OFFSET ??_C@_0EL@PBEBEHIP@c?3?2users?2nhv90?2projects?2eech?2ap@
  00760	8b 0d 00 00 00
	00		 mov	 ecx, DWORD PTR ?overload_invalid_int_type_message@@3PBDB ; overload_invalid_int_type_message
  00766	51		 push	 ecx
  00767	e8 00 00 00 00	 call	 ?process_assert@@YGXPBD0H@Z ; process_assert
  0076c	c7 45 a4 00 00
	00 00		 mov	 DWORD PTR tv377[ebp], 0
$LN88@response_t:
  00773	6a 05		 push	 5
  00775	8b 55 0c	 mov	 edx, DWORD PTR _receiver$[ebp]
  00778	52		 push	 edx
  00779	69 45 a8 5c 04
	00 00		 imul	 eax, DWORD PTR tv370[ebp], 1116
  00780	8b 4d a4	 mov	 ecx, DWORD PTR tv377[ebp]
  00783	8b 94 88 00 00
	00 00		 mov	 edx, DWORD PTR ?fn_get_local_entity_int_value@@3PAY0BBH@P6GHPAUENTITY@@W4INT_TYPES@@@ZA[eax+ecx*4]
  0078a	ff d2		 call	 edx
  0078c	85 c0		 test	 eax, eax
  0078e	0f 84 59 01 00
	00		 je	 $LN23@response_t

; 1065 : 					{
; 1066 : 						play_client_server_speech

  00794	83 7d 0c 00	 cmp	 DWORD PTR _receiver$[ebp], 0
  00798	74 0a		 je	 SHORT $LN89@response_t
  0079a	8b 45 0c	 mov	 eax, DWORD PTR _receiver$[ebp]
  0079d	8b 08		 mov	 ecx, DWORD PTR [eax]
  0079f	89 4d a8	 mov	 DWORD PTR tv396[ebp], ecx
  007a2	eb 21		 jmp	 SHORT $LN90@response_t
$LN89@response_t:
  007a4	8b 15 00 00 00
	00		 mov	 edx, DWORD PTR ?__LINE__Var@?0??response_to_task_completed@@YGHW4ENTITY_MESSAGES@@PAUENTITY@@1PAD@Z@4JA
  007aa	83 c2 70	 add	 edx, 112		; 00000070H
  007ad	52		 push	 edx
  007ae	68 00 00 00 00	 push	 OFFSET ??_C@_0EL@PBEBEHIP@c?3?2users?2nhv90?2projects?2eech?2ap@
  007b3	a1 00 00 00 00	 mov	 eax, DWORD PTR ?null_entity_pointer_message@@3PBDB ; null_entity_pointer_message
  007b8	50		 push	 eax
  007b9	e8 00 00 00 00	 call	 ?process_assert@@YGXPBD0H@Z ; process_assert
  007be	c7 45 a8 00 00
	00 00		 mov	 DWORD PTR tv396[ebp], 0
$LN90@response_t:
  007c5	b9 01 00 00 00	 mov	 ecx, 1
  007ca	85 c9		 test	 ecx, ecx
  007cc	74 09		 je	 SHORT $LN91@response_t
  007ce	c7 45 a4 44 00
	00 00		 mov	 DWORD PTR tv404[ebp], 68 ; 00000044H
  007d5	eb 21		 jmp	 SHORT $LN92@response_t
$LN91@response_t:
  007d7	8b 15 00 00 00
	00		 mov	 edx, DWORD PTR ?__LINE__Var@?0??response_to_task_completed@@YGHW4ENTITY_MESSAGES@@PAUENTITY@@1PAD@Z@4JA
  007dd	83 c2 70	 add	 edx, 112		; 00000070H
  007e0	52		 push	 edx
  007e1	68 00 00 00 00	 push	 OFFSET ??_C@_0EL@PBEBEHIP@c?3?2users?2nhv90?2projects?2eech?2ap@
  007e6	a1 00 00 00 00	 mov	 eax, DWORD PTR ?overload_invalid_int_type_message@@3PBDB ; overload_invalid_int_type_message
  007eb	50		 push	 eax
  007ec	e8 00 00 00 00	 call	 ?process_assert@@YGXPBD0H@Z ; process_assert
  007f1	c7 45 a4 00 00
	00 00		 mov	 DWORD PTR tv404[ebp], 0
$LN92@response_t:
  007f8	83 7d 0c 00	 cmp	 DWORD PTR _receiver$[ebp], 0
  007fc	74 0a		 je	 SHORT $LN93@response_t
  007fe	8b 4d 0c	 mov	 ecx, DWORD PTR _receiver$[ebp]
  00801	8b 11		 mov	 edx, DWORD PTR [ecx]
  00803	89 55 a0	 mov	 DWORD PTR tv426[ebp], edx
  00806	eb 21		 jmp	 SHORT $LN94@response_t
$LN93@response_t:
  00808	a1 00 00 00 00	 mov	 eax, DWORD PTR ?__LINE__Var@?0??response_to_task_completed@@YGHW4ENTITY_MESSAGES@@PAUENTITY@@1PAD@Z@4JA
  0080d	83 c0 67	 add	 eax, 103		; 00000067H
  00810	50		 push	 eax
  00811	68 00 00 00 00	 push	 OFFSET ??_C@_0EL@PBEBEHIP@c?3?2users?2nhv90?2projects?2eech?2ap@
  00816	8b 0d 00 00 00
	00		 mov	 ecx, DWORD PTR ?null_entity_pointer_message@@3PBDB ; null_entity_pointer_message
  0081c	51		 push	 ecx
  0081d	e8 00 00 00 00	 call	 ?process_assert@@YGXPBD0H@Z ; process_assert
  00822	c7 45 a0 00 00
	00 00		 mov	 DWORD PTR tv426[ebp], 0
$LN94@response_t:
  00829	ba 01 00 00 00	 mov	 edx, 1
  0082e	85 d2		 test	 edx, edx
  00830	74 09		 je	 SHORT $LN95@response_t
  00832	c7 45 9c bb 00
	00 00		 mov	 DWORD PTR tv434[ebp], 187 ; 000000bbH
  00839	eb 21		 jmp	 SHORT $LN96@response_t
$LN95@response_t:
  0083b	a1 00 00 00 00	 mov	 eax, DWORD PTR ?__LINE__Var@?0??response_to_task_completed@@YGHW4ENTITY_MESSAGES@@PAUENTITY@@1PAD@Z@4JA
  00840	83 c0 67	 add	 eax, 103		; 00000067H
  00843	50		 push	 eax
  00844	68 00 00 00 00	 push	 OFFSET ??_C@_0EL@PBEBEHIP@c?3?2users?2nhv90?2projects?2eech?2ap@
  00849	8b 0d 00 00 00
	00		 mov	 ecx, DWORD PTR ?overload_invalid_int_type_message@@3PBDB ; overload_invalid_int_type_message
  0084f	51		 push	 ecx
  00850	e8 00 00 00 00	 call	 ?process_assert@@YGXPBD0H@Z ; process_assert
  00855	c7 45 9c 00 00
	00 00		 mov	 DWORD PTR tv434[ebp], 0
$LN96@response_t:
  0085c	6a ff		 push	 -1
  0085e	6a 04		 push	 4
  00860	6a 06		 push	 6
  00862	6a 00		 push	 0
  00864	6a 06		 push	 6
  00866	6a 44		 push	 68			; 00000044H
  00868	8b 55 0c	 mov	 edx, DWORD PTR _receiver$[ebp]
  0086b	52		 push	 edx
  0086c	69 45 a8 5c 04
	00 00		 imul	 eax, DWORD PTR tv396[ebp], 1116
  00873	8b 4d a4	 mov	 ecx, DWORD PTR tv404[ebp]
  00876	8b 94 88 00 00
	00 00		 mov	 edx, DWORD PTR ?fn_get_local_entity_int_value@@3PAY0BBH@P6GHPAUENTITY@@W4INT_TYPES@@@ZA[eax+ecx*4]
  0087d	ff d2		 call	 edx
  0087f	50		 push	 eax
  00880	6a 03		 push	 3
  00882	51		 push	 ecx
  00883	f3 0f 10 05 00
	00 00 00	 movss	 xmm0, DWORD PTR __real@bf800000
  0088b	f3 0f 11 04 24	 movss	 DWORD PTR [esp], xmm0
  00890	6a 0a		 push	 10			; 0000000aH
  00892	6a 05		 push	 5
  00894	51		 push	 ecx
  00895	f3 0f 10 05 00
	00 00 00	 movss	 xmm0, DWORD PTR __real@41a00000
  0089d	f3 0f 11 04 24	 movss	 DWORD PTR [esp], xmm0
  008a2	51		 push	 ecx
  008a3	f3 0f 10 05 00
	00 00 00	 movss	 xmm0, DWORD PTR __real@3f800000
  008ab	f3 0f 11 04 24	 movss	 DWORD PTR [esp], xmm0
  008b0	51		 push	 ecx
  008b1	0f 57 c0	 xorps	 xmm0, xmm0
  008b4	f3 0f 11 04 24	 movss	 DWORD PTR [esp], xmm0
  008b9	6a 00		 push	 0
  008bb	6a 1e		 push	 30			; 0000001eH
  008bd	68 bb 00 00 00	 push	 187			; 000000bbH
  008c2	8b 45 0c	 mov	 eax, DWORD PTR _receiver$[ebp]
  008c5	50		 push	 eax
  008c6	69 4d a0 5c 04
	00 00		 imul	 ecx, DWORD PTR tv426[ebp], 1116
  008cd	8b 55 9c	 mov	 edx, DWORD PTR tv434[ebp]
  008d0	8b 84 91 00 00
	00 00		 mov	 eax, DWORD PTR ?fn_get_local_entity_int_value@@3PAY0BBH@P6GHPAUENTITY@@W4INT_TYPES@@@ZA[ecx+edx*4]
  008d7	ff d0		 call	 eax
  008d9	50		 push	 eax
  008da	8b 4d 0c	 mov	 ecx, DWORD PTR _receiver$[ebp]
  008dd	51		 push	 ecx
  008de	8b 15 00 00 00
	00		 mov	 edx, DWORD PTR ?session_entity@@3PAUENTITY@@A ; session_entity
  008e4	52		 push	 edx
  008e5	e8 00 00 00 00	 call	 ?play_client_server_speech@@YAHPAUENTITY@@0W4ENTITY_SIDES@@HW4SOUND_LOCALITY_TYPES@@MMMW4speech_originator_types@@W4speech_category_types@@MZZ ; play_client_server_speech
  008ea	83 c4 48	 add	 esp, 72			; 00000048H
$LN23@response_t:

; 1067 : 						(
; 1068 : 							get_session_entity (),
; 1069 : 							receiver,
; 1070 : 							(entity_sides) get_local_entity_int_value (receiver, INT_TYPE_SIDE),
; 1071 : 							ENTITY_SUB_TYPE_EFFECT_SOUND_RADIO_MESSAGE,
; 1072 : 							SOUND_LOCALITY_RADIO,
; 1073 : 							0.0,
; 1074 : 							1.0,
; 1075 : 							20.0,
; 1076 : 							SPEECH_ORIGINATOR_FORWARD_AIR_CONTROLLER,
; 1077 : 							SPEECH_CATEGORY_MISSION_RELATED,
; 1078 : 							-1.0,
; 1079 : 							SPEECH_ARRAY_CALLSIGNS, get_local_entity_int_value (receiver, INT_TYPE_GROUP_CALLSIGN),
; 1080 : 							SPEECH_ARRAY_FAC_MESSAGES, SPEECH_FAC_INTRODUCTION,
; 1081 : 							SPEECH_ARRAY_FAC_MESSAGES, SPEECH_FAC_RETURN_TO_BASE,
; 1082 : 							-1
; 1083 : 						);
; 1084 : 					}
; 1085 : 				}
; 1086 : 				
; 1087 : 				break;

  008ed	e9 71 02 00 00	 jmp	 $LN6@response_t
$LN24@response_t:

; 1088 : 			}
; 1089 : 			case TASK_COMPLETED_PARTIAL:
; 1090 : 			case TASK_COMPLETED_SUCCESS:
; 1091 : 			{
; 1092 : 				//
; 1093 : 				// Play Speech
; 1094 : 				//
; 1095 : 
; 1096 : 				if (get_local_entity_int_value (receiver, INT_TYPE_AIRCRAFT_GROUP))

  008f2	83 7d 0c 00	 cmp	 DWORD PTR _receiver$[ebp], 0
  008f6	74 0a		 je	 SHORT $LN97@response_t
  008f8	8b 45 0c	 mov	 eax, DWORD PTR _receiver$[ebp]
  008fb	8b 08		 mov	 ecx, DWORD PTR [eax]
  008fd	89 4d a8	 mov	 DWORD PTR tv447[ebp], ecx
  00900	eb 1d		 jmp	 SHORT $LN98@response_t
$LN97@response_t:
  00902	68 48 04 00 00	 push	 1096			; 00000448H
  00907	68 00 00 00 00	 push	 OFFSET ??_C@_0EL@PBEBEHIP@c?3?2users?2nhv90?2projects?2eech?2ap@
  0090c	8b 15 00 00 00
	00		 mov	 edx, DWORD PTR ?null_entity_pointer_message@@3PBDB ; null_entity_pointer_message
  00912	52		 push	 edx
  00913	e8 00 00 00 00	 call	 ?process_assert@@YGXPBD0H@Z ; process_assert
  00918	c7 45 a8 00 00
	00 00		 mov	 DWORD PTR tv447[ebp], 0
$LN98@response_t:
  0091f	b8 01 00 00 00	 mov	 eax, 1
  00924	85 c0		 test	 eax, eax
  00926	74 09		 je	 SHORT $LN99@response_t
  00928	c7 45 a4 05 00
	00 00		 mov	 DWORD PTR tv454[ebp], 5
  0092f	eb 1d		 jmp	 SHORT $LN100@response_t
$LN99@response_t:
  00931	68 48 04 00 00	 push	 1096			; 00000448H
  00936	68 00 00 00 00	 push	 OFFSET ??_C@_0EL@PBEBEHIP@c?3?2users?2nhv90?2projects?2eech?2ap@
  0093b	8b 0d 00 00 00
	00		 mov	 ecx, DWORD PTR ?overload_invalid_int_type_message@@3PBDB ; overload_invalid_int_type_message
  00941	51		 push	 ecx
  00942	e8 00 00 00 00	 call	 ?process_assert@@YGXPBD0H@Z ; process_assert
  00947	c7 45 a4 00 00
	00 00		 mov	 DWORD PTR tv454[ebp], 0
$LN100@response_t:
  0094e	6a 05		 push	 5
  00950	8b 55 0c	 mov	 edx, DWORD PTR _receiver$[ebp]
  00953	52		 push	 edx
  00954	69 45 a8 5c 04
	00 00		 imul	 eax, DWORD PTR tv447[ebp], 1116
  0095b	8b 4d a4	 mov	 ecx, DWORD PTR tv454[ebp]
  0095e	8b 94 88 00 00
	00 00		 mov	 edx, DWORD PTR ?fn_get_local_entity_int_value@@3PAY0BBH@P6GHPAUENTITY@@W4INT_TYPES@@@ZA[eax+ecx*4]
  00965	ff d2		 call	 edx
  00967	85 c0		 test	 eax, eax
  00969	0f 84 f4 01 00
	00		 je	 $LN28@response_t

; 1097 : 				{
; 1098 : 					member = get_local_entity_first_child (receiver, LIST_TYPE_MEMBER);

  0096f	83 7d 0c 00	 cmp	 DWORD PTR _receiver$[ebp], 0
  00973	74 0a		 je	 SHORT $LN101@response_t
  00975	8b 45 0c	 mov	 eax, DWORD PTR _receiver$[ebp]
  00978	8b 08		 mov	 ecx, DWORD PTR [eax]
  0097a	89 4d a8	 mov	 DWORD PTR tv467[ebp], ecx
  0097d	eb 24		 jmp	 SHORT $LN102@response_t
$LN101@response_t:
  0097f	8b 15 00 00 00
	00		 mov	 edx, DWORD PTR ?__LINE__Var@?0??response_to_task_completed@@YGHW4ENTITY_MESSAGES@@PAUENTITY@@1PAD@Z@4JA
  00985	81 c2 83 00 00
	00		 add	 edx, 131		; 00000083H
  0098b	52		 push	 edx
  0098c	68 00 00 00 00	 push	 OFFSET ??_C@_0EL@PBEBEHIP@c?3?2users?2nhv90?2projects?2eech?2ap@
  00991	a1 00 00 00 00	 mov	 eax, DWORD PTR ?null_entity_pointer_message@@3PBDB ; null_entity_pointer_message
  00996	50		 push	 eax
  00997	e8 00 00 00 00	 call	 ?process_assert@@YGXPBD0H@Z ; process_assert
  0099c	c7 45 a8 00 00
	00 00		 mov	 DWORD PTR tv467[ebp], 0
$LN102@response_t:
  009a3	b9 01 00 00 00	 mov	 ecx, 1
  009a8	85 c9		 test	 ecx, ecx
  009aa	74 09		 je	 SHORT $LN103@response_t
  009ac	c7 45 a4 19 00
	00 00		 mov	 DWORD PTR tv475[ebp], 25 ; 00000019H
  009b3	eb 24		 jmp	 SHORT $LN104@response_t
$LN103@response_t:
  009b5	8b 15 00 00 00
	00		 mov	 edx, DWORD PTR ?__LINE__Var@?0??response_to_task_completed@@YGHW4ENTITY_MESSAGES@@PAUENTITY@@1PAD@Z@4JA
  009bb	81 c2 83 00 00
	00		 add	 edx, 131		; 00000083H
  009c1	52		 push	 edx
  009c2	68 00 00 00 00	 push	 OFFSET ??_C@_0EL@PBEBEHIP@c?3?2users?2nhv90?2projects?2eech?2ap@
  009c7	a1 00 00 00 00	 mov	 eax, DWORD PTR ?overload_invalid_list_type_message@@3PBDB ; overload_invalid_list_type_message
  009cc	50		 push	 eax
  009cd	e8 00 00 00 00	 call	 ?process_assert@@YGXPBD0H@Z ; process_assert
  009d2	c7 45 a4 00 00
	00 00		 mov	 DWORD PTR tv475[ebp], 0
$LN104@response_t:
  009d9	6a 19		 push	 25			; 00000019H
  009db	8b 4d 0c	 mov	 ecx, DWORD PTR _receiver$[ebp]
  009de	51		 push	 ecx
  009df	69 55 a8 b4 00
	00 00		 imul	 edx, DWORD PTR tv467[ebp], 180
  009e6	8b 45 a4	 mov	 eax, DWORD PTR tv475[ebp]
  009e9	8b 8c 82 00 00
	00 00		 mov	 ecx, DWORD PTR ?fn_get_local_entity_first_child@@3PAY0CN@P6GPAUENTITY@@PAU1@W4LIST_TYPES@@@ZA[edx+eax*4]
  009f0	ff d1		 call	 ecx
  009f2	89 45 f4	 mov	 DWORD PTR _member$[ebp], eax

; 1099 : 
; 1100 : 					if (member)

  009f5	83 7d f4 00	 cmp	 DWORD PTR _member$[ebp], 0
  009f9	0f 84 64 01 00
	00		 je	 $LN28@response_t

; 1101 : 					{
; 1102 : 						if (get_local_entity_int_value (member, INT_TYPE_PLAYER) == ENTITY_PLAYER_AI)

  009ff	83 7d f4 00	 cmp	 DWORD PTR _member$[ebp], 0
  00a03	74 0a		 je	 SHORT $LN105@response_t
  00a05	8b 45 f4	 mov	 eax, DWORD PTR _member$[ebp]
  00a08	8b 08		 mov	 ecx, DWORD PTR [eax]
  00a0a	89 4d a8	 mov	 DWORD PTR tv487[ebp], ecx
  00a0d	eb 1d		 jmp	 SHORT $LN106@response_t
$LN105@response_t:
  00a0f	68 4e 04 00 00	 push	 1102			; 0000044eH
  00a14	68 00 00 00 00	 push	 OFFSET ??_C@_0EL@PBEBEHIP@c?3?2users?2nhv90?2projects?2eech?2ap@
  00a19	8b 15 00 00 00
	00		 mov	 edx, DWORD PTR ?null_entity_pointer_message@@3PBDB ; null_entity_pointer_message
  00a1f	52		 push	 edx
  00a20	e8 00 00 00 00	 call	 ?process_assert@@YGXPBD0H@Z ; process_assert
  00a25	c7 45 a8 00 00
	00 00		 mov	 DWORD PTR tv487[ebp], 0
$LN106@response_t:
  00a2c	b8 01 00 00 00	 mov	 eax, 1
  00a31	85 c0		 test	 eax, eax
  00a33	74 09		 je	 SHORT $LN107@response_t
  00a35	c7 45 a4 9c 00
	00 00		 mov	 DWORD PTR tv494[ebp], 156 ; 0000009cH
  00a3c	eb 1d		 jmp	 SHORT $LN108@response_t
$LN107@response_t:
  00a3e	68 4e 04 00 00	 push	 1102			; 0000044eH
  00a43	68 00 00 00 00	 push	 OFFSET ??_C@_0EL@PBEBEHIP@c?3?2users?2nhv90?2projects?2eech?2ap@
  00a48	8b 0d 00 00 00
	00		 mov	 ecx, DWORD PTR ?overload_invalid_int_type_message@@3PBDB ; overload_invalid_int_type_message
  00a4e	51		 push	 ecx
  00a4f	e8 00 00 00 00	 call	 ?process_assert@@YGXPBD0H@Z ; process_assert
  00a54	c7 45 a4 00 00
	00 00		 mov	 DWORD PTR tv494[ebp], 0
$LN108@response_t:
  00a5b	68 9c 00 00 00	 push	 156			; 0000009cH
  00a60	8b 55 f4	 mov	 edx, DWORD PTR _member$[ebp]
  00a63	52		 push	 edx
  00a64	69 45 a8 5c 04
	00 00		 imul	 eax, DWORD PTR tv487[ebp], 1116
  00a6b	8b 4d a4	 mov	 ecx, DWORD PTR tv494[ebp]
  00a6e	8b 94 88 00 00
	00 00		 mov	 edx, DWORD PTR ?fn_get_local_entity_int_value@@3PAY0BBH@P6GHPAUENTITY@@W4INT_TYPES@@@ZA[eax+ecx*4]
  00a75	ff d2		 call	 edx
  00a77	85 c0		 test	 eax, eax
  00a79	75 77		 jne	 SHORT $LN27@response_t

; 1103 : 						{
; 1104 : 							if (rand16 () & 0x01)

  00a7b	69 05 00 00 00
	00 6d 4e c6 41	 imul	 eax, DWORD PTR ?random_number_seed@@3HA, 1103515245 ; random_number_seed
  00a85	05 39 30 00 00	 add	 eax, 12345		; 00003039H
  00a8a	a3 00 00 00 00	 mov	 DWORD PTR ?random_number_seed@@3HA, eax ; random_number_seed
  00a8f	8b 0d 00 00 00
	00		 mov	 ecx, DWORD PTR ?random_number_seed@@3HA ; random_number_seed
  00a95	c1 f9 10	 sar	 ecx, 16			; 00000010H
  00a98	81 e1 ff 7f 00
	00		 and	 ecx, 32767		; 00007fffH
  00a9e	83 e1 01	 and	 ecx, 1
  00aa1	74 09		 je	 SHORT $LN29@response_t

; 1105 : 							{
; 1106 : 								speech_index = SPEECH_WINGMAN_MISSION_COMPLETE1;

  00aa3	c7 45 ec 0b 00
	00 00		 mov	 DWORD PTR _speech_index$[ebp], 11 ; 0000000bH

; 1107 : 							}
; 1108 : 							else

  00aaa	eb 07		 jmp	 SHORT $LN30@response_t
$LN29@response_t:

; 1109 : 							{
; 1110 : 								speech_index = SPEECH_WINGMAN_MISSION_COMPLETE2;

  00aac	c7 45 ec 0c 00
	00 00		 mov	 DWORD PTR _speech_index$[ebp], 12 ; 0000000cH
$LN30@response_t:

; 1111 : 							}
; 1112 : 
; 1113 : 							play_client_server_wingman_message

  00ab3	8b 45 ec	 mov	 eax, DWORD PTR _speech_index$[ebp]
  00ab6	50		 push	 eax
  00ab7	6a 07		 push	 7
  00ab9	6a 02		 push	 2
  00abb	51		 push	 ecx
  00abc	f3 0f 10 05 00
	00 00 00	 movss	 xmm0, DWORD PTR __real@bf800000
  00ac4	f3 0f 11 04 24	 movss	 DWORD PTR [esp], xmm0
  00ac9	6a 0a		 push	 10			; 0000000aH
  00acb	51		 push	 ecx
  00acc	f3 0f 10 05 00
	00 00 00	 movss	 xmm0, DWORD PTR __real@41a00000
  00ad4	f3 0f 11 04 24	 movss	 DWORD PTR [esp], xmm0
  00ad9	51		 push	 ecx
  00ada	f3 0f 10 05 00
	00 00 00	 movss	 xmm0, DWORD PTR __real@3f333333
  00ae2	f3 0f 11 04 24	 movss	 DWORD PTR [esp], xmm0
  00ae7	8b 4d f4	 mov	 ecx, DWORD PTR _member$[ebp]
  00aea	51		 push	 ecx
  00aeb	e8 00 00 00 00	 call	 ?play_client_server_wingman_message@@YGHPAUENTITY@@MMW4speech_category_types@@MW4speech_intro_types@@W4speech_array_types@@H@Z ; play_client_server_wingman_message

; 1114 : 							(
; 1115 : 								member,
; 1116 : 								0.7,
; 1117 : 								20.0,
; 1118 : 								SPEECH_CATEGORY_MISSION_RELATED, -1.0,
; 1119 : 								SPEECH_INTRODUCTION_ALWAYS,
; 1120 : 								SPEECH_ARRAY_WINGMAN_MESSAGES, speech_index
; 1121 : 							);
; 1122 : 						}
; 1123 : 						else

  00af0	eb 71		 jmp	 SHORT $LN28@response_t
$LN27@response_t:

; 1124 : 						{
; 1125 : 							if (rand16 () & 0x01)

  00af2	69 05 00 00 00
	00 6d 4e c6 41	 imul	 eax, DWORD PTR ?random_number_seed@@3HA, 1103515245 ; random_number_seed
  00afc	05 39 30 00 00	 add	 eax, 12345		; 00003039H
  00b01	a3 00 00 00 00	 mov	 DWORD PTR ?random_number_seed@@3HA, eax ; random_number_seed
  00b06	8b 0d 00 00 00
	00		 mov	 ecx, DWORD PTR ?random_number_seed@@3HA ; random_number_seed
  00b0c	c1 f9 10	 sar	 ecx, 16			; 00000010H
  00b0f	81 e1 ff 7f 00
	00		 and	 ecx, 32767		; 00007fffH
  00b15	83 e1 01	 and	 ecx, 1
  00b18	74 09		 je	 SHORT $LN31@response_t

; 1126 : 							{
; 1127 : 								speech_index = SPEECH_CPG_MISSION_COMPLETED1;

  00b1a	c7 45 ec 63 00
	00 00		 mov	 DWORD PTR _speech_index$[ebp], 99 ; 00000063H

; 1128 : 							}
; 1129 : 							else

  00b21	eb 07		 jmp	 SHORT $LN32@response_t
$LN31@response_t:

; 1130 : 							{
; 1131 : 								speech_index = SPEECH_CPG_MISSION_COMPLETED2;

  00b23	c7 45 ec 64 00
	00 00		 mov	 DWORD PTR _speech_index$[ebp], 100 ; 00000064H
$LN32@response_t:

; 1132 : 							}
; 1133 : 		
; 1134 : 							play_client_server_cpg_message (receiver, 0.8, 30.0, SPEECH_CATEGORY_MISSION_RELATED, -1.0, speech_index);

  00b2a	8b 45 ec	 mov	 eax, DWORD PTR _speech_index$[ebp]
  00b2d	50		 push	 eax
  00b2e	51		 push	 ecx
  00b2f	f3 0f 10 05 00
	00 00 00	 movss	 xmm0, DWORD PTR __real@bf800000
  00b37	f3 0f 11 04 24	 movss	 DWORD PTR [esp], xmm0
  00b3c	6a 0a		 push	 10			; 0000000aH
  00b3e	51		 push	 ecx
  00b3f	f3 0f 10 05 00
	00 00 00	 movss	 xmm0, DWORD PTR __real@41f00000
  00b47	f3 0f 11 04 24	 movss	 DWORD PTR [esp], xmm0
  00b4c	51		 push	 ecx
  00b4d	f3 0f 10 05 00
	00 00 00	 movss	 xmm0, DWORD PTR __real@3f4ccccd
  00b55	f3 0f 11 04 24	 movss	 DWORD PTR [esp], xmm0
  00b5a	8b 4d 0c	 mov	 ecx, DWORD PTR _receiver$[ebp]
  00b5d	51		 push	 ecx
  00b5e	e8 00 00 00 00	 call	 ?play_client_server_cpg_message@@YGHPAUENTITY@@MMHMH@Z ; play_client_server_cpg_message
$LN28@response_t:
$LN6@response_t:

; 1135 : 						}
; 1136 : 					}
; 1137 : 				}
; 1138 : 				
; 1139 : 				break;
; 1140 : 			}
; 1141 : 		}
; 1142 : 	}
; 1143 : 	
; 1144 : 	//
; 1145 : 	// send system message
; 1146 : 	//
; 1147 : 
; 1148 : 	if (get_local_entity_int_value (task, INT_TYPE_VISIBLE_TASK))

  00b63	83 7d f8 00	 cmp	 DWORD PTR _task$[ebp], 0
  00b67	74 0a		 je	 SHORT $LN109@response_t
  00b69	8b 45 f8	 mov	 eax, DWORD PTR _task$[ebp]
  00b6c	8b 08		 mov	 ecx, DWORD PTR [eax]
  00b6e	89 4d a8	 mov	 DWORD PTR tv533[ebp], ecx
  00b71	eb 1d		 jmp	 SHORT $LN110@response_t
$LN109@response_t:
  00b73	68 7c 04 00 00	 push	 1148			; 0000047cH
  00b78	68 00 00 00 00	 push	 OFFSET ??_C@_0EL@PBEBEHIP@c?3?2users?2nhv90?2projects?2eech?2ap@
  00b7d	8b 15 00 00 00
	00		 mov	 edx, DWORD PTR ?null_entity_pointer_message@@3PBDB ; null_entity_pointer_message
  00b83	52		 push	 edx
  00b84	e8 00 00 00 00	 call	 ?process_assert@@YGXPBD0H@Z ; process_assert
  00b89	c7 45 a8 00 00
	00 00		 mov	 DWORD PTR tv533[ebp], 0
$LN110@response_t:
  00b90	b8 01 00 00 00	 mov	 eax, 1
  00b95	85 c0		 test	 eax, eax
  00b97	74 09		 je	 SHORT $LN111@response_t
  00b99	c7 45 a4 fa 00
	00 00		 mov	 DWORD PTR tv540[ebp], 250 ; 000000faH
  00ba0	eb 1d		 jmp	 SHORT $LN112@response_t
$LN111@response_t:
  00ba2	68 7c 04 00 00	 push	 1148			; 0000047cH
  00ba7	68 00 00 00 00	 push	 OFFSET ??_C@_0EL@PBEBEHIP@c?3?2users?2nhv90?2projects?2eech?2ap@
  00bac	8b 0d 00 00 00
	00		 mov	 ecx, DWORD PTR ?overload_invalid_int_type_message@@3PBDB ; overload_invalid_int_type_message
  00bb2	51		 push	 ecx
  00bb3	e8 00 00 00 00	 call	 ?process_assert@@YGXPBD0H@Z ; process_assert
  00bb8	c7 45 a4 00 00
	00 00		 mov	 DWORD PTR tv540[ebp], 0
$LN112@response_t:
  00bbf	68 fa 00 00 00	 push	 250			; 000000faH
  00bc4	8b 55 f8	 mov	 edx, DWORD PTR _task$[ebp]
  00bc7	52		 push	 edx
  00bc8	69 45 a8 5c 04
	00 00		 imul	 eax, DWORD PTR tv533[ebp], 1116
  00bcf	8b 4d a4	 mov	 ecx, DWORD PTR tv540[ebp]
  00bd2	8b 94 88 00 00
	00 00		 mov	 edx, DWORD PTR ?fn_get_local_entity_int_value@@3PAY0BBH@P6GHPAUENTITY@@W4INT_TYPES@@@ZA[eax+ecx*4]
  00bd9	ff d2		 call	 edx
  00bdb	85 c0		 test	 eax, eax
  00bdd	74 11		 je	 SHORT $LN33@response_t

; 1149 : 	{
; 1150 : 		send_text_message (receiver, task, MESSAGE_TEXT_SYSTEM_TASK_COMPLETED, NULL);

  00bdf	6a 00		 push	 0
  00be1	6a 04		 push	 4
  00be3	8b 45 f8	 mov	 eax, DWORD PTR _task$[ebp]
  00be6	50		 push	 eax
  00be7	8b 4d 0c	 mov	 ecx, DWORD PTR _receiver$[ebp]
  00bea	51		 push	 ecx
  00beb	e8 00 00 00 00	 call	 ?send_text_message@@YGXPAUENTITY@@0W4MESSAGE_TEXT_TYPES@@PBD@Z ; send_text_message
$LN33@response_t:

; 1151 : #if 0
; 1152 : 		ai_log ("(TASK) %s mission %s by %s",
; 1153 : 					get_local_entity_string (task, STRING_TYPE_SHORT_DISPLAY_NAME),
; 1154 : 					task_debrief_result_names [get_local_entity_int_value (task, INT_TYPE_TASK_COMPLETED)],
; 1155 : 					get_local_entity_string (receiver, STRING_TYPE_FULL_NAME));
; 1156 : #endif
; 1157 : 	}
; 1158 : 
; 1159 : 	//
; 1160 : 	// group return to base (but only if not already at end of wp route, or group dead)
; 1161 : 	//
; 1162 : 
; 1163 : 	switch (get_local_entity_int_value (task, INT_TYPE_TASK_TERMINATED))

  00bf0	83 7d f8 00	 cmp	 DWORD PTR _task$[ebp], 0
  00bf4	74 0a		 je	 SHORT $LN113@response_t
  00bf6	8b 45 f8	 mov	 eax, DWORD PTR _task$[ebp]
  00bf9	8b 08		 mov	 ecx, DWORD PTR [eax]
  00bfb	89 4d a8	 mov	 DWORD PTR tv556[ebp], ecx
  00bfe	eb 1d		 jmp	 SHORT $LN114@response_t
$LN113@response_t:
  00c00	68 8b 04 00 00	 push	 1163			; 0000048bH
  00c05	68 00 00 00 00	 push	 OFFSET ??_C@_0EL@PBEBEHIP@c?3?2users?2nhv90?2projects?2eech?2ap@
  00c0a	8b 15 00 00 00
	00		 mov	 edx, DWORD PTR ?null_entity_pointer_message@@3PBDB ; null_entity_pointer_message
  00c10	52		 push	 edx
  00c11	e8 00 00 00 00	 call	 ?process_assert@@YGXPBD0H@Z ; process_assert
  00c16	c7 45 a8 00 00
	00 00		 mov	 DWORD PTR tv556[ebp], 0
$LN114@response_t:
  00c1d	b8 01 00 00 00	 mov	 eax, 1
  00c22	85 c0		 test	 eax, eax
  00c24	74 09		 je	 SHORT $LN115@response_t
  00c26	c7 45 a4 e7 00
	00 00		 mov	 DWORD PTR tv563[ebp], 231 ; 000000e7H
  00c2d	eb 1d		 jmp	 SHORT $LN116@response_t
$LN115@response_t:
  00c2f	68 8b 04 00 00	 push	 1163			; 0000048bH
  00c34	68 00 00 00 00	 push	 OFFSET ??_C@_0EL@PBEBEHIP@c?3?2users?2nhv90?2projects?2eech?2ap@
  00c39	8b 0d 00 00 00
	00		 mov	 ecx, DWORD PTR ?overload_invalid_int_type_message@@3PBDB ; overload_invalid_int_type_message
  00c3f	51		 push	 ecx
  00c40	e8 00 00 00 00	 call	 ?process_assert@@YGXPBD0H@Z ; process_assert
  00c45	c7 45 a4 00 00
	00 00		 mov	 DWORD PTR tv563[ebp], 0
$LN116@response_t:
  00c4c	68 e7 00 00 00	 push	 231			; 000000e7H
  00c51	8b 55 f8	 mov	 edx, DWORD PTR _task$[ebp]
  00c54	52		 push	 edx
  00c55	69 45 a8 5c 04
	00 00		 imul	 eax, DWORD PTR tv556[ebp], 1116
  00c5c	8b 4d a4	 mov	 ecx, DWORD PTR tv563[ebp]
  00c5f	8b 94 88 00 00
	00 00		 mov	 edx, DWORD PTR ?fn_get_local_entity_int_value@@3PAY0BBH@P6GHPAUENTITY@@W4INT_TYPES@@@ZA[eax+ecx*4]
  00c66	ff d2		 call	 edx
  00c68	89 45 a0	 mov	 DWORD PTR tv569[ebp], eax
  00c6b	83 7d a0 03	 cmp	 DWORD PTR tv569[ebp], 3
  00c6f	74 08		 je	 SHORT $LN34@response_t
  00c71	83 7d a0 06	 cmp	 DWORD PTR tv569[ebp], 6
  00c75	74 02		 je	 SHORT $LN34@response_t
  00c77	eb 02		 jmp	 SHORT $LN35@response_t
$LN34@response_t:

; 1164 : 	{
; 1165 : 		case TASK_TERMINATED_GROUP_DESTROYED:
; 1166 : 		case TASK_TERMINATED_WAYPOINT_ROUTE_COMPLETE:
; 1167 : 		{
; 1168 : 			break;

  00c79	eb 09		 jmp	 SHORT $LN8@response_t
$LN35@response_t:

; 1169 : 		}
; 1170 : 		default:
; 1171 : 		{
; 1172 : 			group_return_to_base (receiver);

  00c7b	8b 45 0c	 mov	 eax, DWORD PTR _receiver$[ebp]
  00c7e	50		 push	 eax
  00c7f	e8 00 00 00 00	 call	 ?group_return_to_base@@YGXPAUENTITY@@@Z ; group_return_to_base
$LN8@response_t:

; 1173 : 
; 1174 : 			break;
; 1175 : 		}
; 1176 : 	}
; 1177 : 
; 1178 : 	return TRUE;

  00c84	b8 01 00 00 00	 mov	 eax, 1

; 1179 : }

  00c89	5f		 pop	 edi
  00c8a	5e		 pop	 esi
  00c8b	5b		 pop	 ebx
  00c8c	8b e5		 mov	 esp, ebp
  00c8e	5d		 pop	 ebp
  00c8f	c2 10 00	 ret	 16			; 00000010H
  00c92	66 90		 npad	 2
$LN117@response_t:
  00c94	00 00 00 00	 DD	 $LN20@response_t
  00c98	00 00 00 00	 DD	 $LN21@response_t
  00c9c	00 00 00 00	 DD	 $LN24@response_t
  00ca0	00 00 00 00	 DD	 $LN24@response_t
?response_to_task_completed@@YGHW4ENTITY_MESSAGES@@PAUENTITY@@1PAD@Z ENDP ; response_to_task_completed
_TEXT	ENDS
; Function compile flags: /Odtp /ZI
; File c:\users\nhv90\projects\eech\aphavoc\source\entity\special\group\gp_msgs.c
;	COMDAT ?response_to_ground_force_retreat@@YGHW4ENTITY_MESSAGES@@PAUENTITY@@1PAD@Z
_TEXT	SEGMENT
tv239 = -112						; size = 4
tv77 = -112						; size = 4
tv367 = -108						; size = 4
tv232 = -108						; size = 4
tv159 = -108						; size = 4
tv70 = -108						; size = 4
_new_task$1 = -40					; size = 4
_pos$ = -36						; size = 4
_group_occupying_node$ = -32				; size = 4
_allied_force$ = -28					; size = 4
_group_raw$ = -24					; size = 4
_advancing_node$ = -20					; size = 4
_retreat_node$ = -16					; size = 4
_current_node$ = -12					; size = 4
_success_flag$ = -8					; size = 4
_loop$ = -4						; size = 4
_message$ = 8						; size = 4
_receiver$ = 12						; size = 4
_sender$ = 16						; size = 4
_pargs$ = 20						; size = 4
?response_to_ground_force_retreat@@YGHW4ENTITY_MESSAGES@@PAUENTITY@@1PAD@Z PROC ; response_to_ground_force_retreat, COMDAT

; 726  : {

  00000	55		 push	 ebp
  00001	8b ec		 mov	 ebp, esp
  00003	83 ec 70	 sub	 esp, 112		; 00000070H
  00006	53		 push	 ebx
  00007	56		 push	 esi
  00008	57		 push	 edi

; 727  : 
; 728  : 	unsigned int
; 729  : 		loop;
; 730  : 
; 731  : 	int
; 732  : 		success_flag,
; 733  : 		current_node,
; 734  : 		retreat_node,
; 735  : 		advancing_node;
; 736  : 
; 737  : 	group
; 738  : 		*group_raw;
; 739  : 
; 740  : 	entity
; 741  : 		*allied_force,
; 742  : 		*group_occupying_node;
; 743  : 
; 744  : 	vec3d
; 745  : 		*pos;
; 746  : 
; 747  : 	group_raw = (group *) get_local_entity_data (receiver);

  00009	8b 45 0c	 mov	 eax, DWORD PTR _receiver$[ebp]
  0000c	8b 48 04	 mov	 ecx, DWORD PTR [eax+4]
  0000f	89 4d e8	 mov	 DWORD PTR _group_raw$[ebp], ecx

; 748  : 
; 749  : 	if ((get_local_entity_int_value (receiver, INT_TYPE_GROUP_MODE) == GROUP_MODE_BUSY) || (!check_group_members_awake (receiver)))

  00012	83 7d 0c 00	 cmp	 DWORD PTR _receiver$[ebp], 0
  00016	74 0a		 je	 SHORT $LN22@response_t
  00018	8b 45 0c	 mov	 eax, DWORD PTR _receiver$[ebp]
  0001b	8b 08		 mov	 ecx, DWORD PTR [eax]
  0001d	89 4d 94	 mov	 DWORD PTR tv70[ebp], ecx
  00020	eb 1d		 jmp	 SHORT $LN23@response_t
$LN22@response_t:
  00022	68 ed 02 00 00	 push	 749			; 000002edH
  00027	68 00 00 00 00	 push	 OFFSET ??_C@_0EL@PBEBEHIP@c?3?2users?2nhv90?2projects?2eech?2ap@
  0002c	8b 15 00 00 00
	00		 mov	 edx, DWORD PTR ?null_entity_pointer_message@@3PBDB ; null_entity_pointer_message
  00032	52		 push	 edx
  00033	e8 00 00 00 00	 call	 ?process_assert@@YGXPBD0H@Z ; process_assert
  00038	c7 45 94 00 00
	00 00		 mov	 DWORD PTR tv70[ebp], 0
$LN23@response_t:
  0003f	b8 01 00 00 00	 mov	 eax, 1
  00044	85 c0		 test	 eax, eax
  00046	74 09		 je	 SHORT $LN24@response_t
  00048	c7 45 90 4d 00
	00 00		 mov	 DWORD PTR tv77[ebp], 77	; 0000004dH
  0004f	eb 1d		 jmp	 SHORT $LN25@response_t
$LN24@response_t:
  00051	68 ed 02 00 00	 push	 749			; 000002edH
  00056	68 00 00 00 00	 push	 OFFSET ??_C@_0EL@PBEBEHIP@c?3?2users?2nhv90?2projects?2eech?2ap@
  0005b	8b 0d 00 00 00
	00		 mov	 ecx, DWORD PTR ?overload_invalid_int_type_message@@3PBDB ; overload_invalid_int_type_message
  00061	51		 push	 ecx
  00062	e8 00 00 00 00	 call	 ?process_assert@@YGXPBD0H@Z ; process_assert
  00067	c7 45 90 00 00
	00 00		 mov	 DWORD PTR tv77[ebp], 0
$LN25@response_t:
  0006e	6a 4d		 push	 77			; 0000004dH
  00070	8b 55 0c	 mov	 edx, DWORD PTR _receiver$[ebp]
  00073	52		 push	 edx
  00074	69 45 94 5c 04
	00 00		 imul	 eax, DWORD PTR tv70[ebp], 1116
  0007b	8b 4d 90	 mov	 ecx, DWORD PTR tv77[ebp]
  0007e	8b 94 88 00 00
	00 00		 mov	 edx, DWORD PTR ?fn_get_local_entity_int_value@@3PAY0BBH@P6GHPAUENTITY@@W4INT_TYPES@@@ZA[eax+ecx*4]
  00085	ff d2		 call	 edx
  00087	83 f8 01	 cmp	 eax, 1
  0008a	74 0d		 je	 SHORT $LN6@response_t
  0008c	8b 45 0c	 mov	 eax, DWORD PTR _receiver$[ebp]
  0008f	50		 push	 eax
  00090	e8 00 00 00 00	 call	 ?check_group_members_awake@@YGHPAUENTITY@@@Z ; check_group_members_awake
  00095	85 c0		 test	 eax, eax
  00097	75 07		 jne	 SHORT $LN5@response_t
$LN6@response_t:

; 750  : 	{
; 751  : 
; 752  : 		return FALSE;

  00099	33 c0		 xor	 eax, eax
  0009b	e9 34 06 00 00	 jmp	 $LN1@response_t
$LN5@response_t:

; 753  : 	}
; 754  : 
; 755  : 	success_flag = TRUE;

  000a0	c7 45 f8 01 00
	00 00		 mov	 DWORD PTR _success_flag$[ebp], 1

; 756  : 
; 757  : 	advancing_node = va_arg (pargs, int);

  000a7	8b 45 14	 mov	 eax, DWORD PTR _pargs$[ebp]
  000aa	83 c0 04	 add	 eax, 4
  000ad	89 45 14	 mov	 DWORD PTR _pargs$[ebp], eax
  000b0	8b 4d 14	 mov	 ecx, DWORD PTR _pargs$[ebp]
  000b3	8b 51 fc	 mov	 edx, DWORD PTR [ecx-4]
  000b6	89 55 ec	 mov	 DWORD PTR _advancing_node$[ebp], edx

; 758  : 
; 759  : 	allied_force = get_local_force_entity ((entity_sides) group_raw->side);

  000b9	8b 45 e8	 mov	 eax, DWORD PTR _group_raw$[ebp]
  000bc	8b 88 8c 00 00
	00		 mov	 ecx, DWORD PTR [eax+140]
  000c2	c1 e9 0a	 shr	 ecx, 10			; 0000000aH
  000c5	83 e1 03	 and	 ecx, 3
  000c8	51		 push	 ecx
  000c9	e8 00 00 00 00	 call	 ?get_local_force_entity@@YGPAUENTITY@@W4ENTITY_SIDES@@@Z ; get_local_force_entity
  000ce	89 45 e4	 mov	 DWORD PTR _allied_force$[ebp], eax

; 760  : 
; 761  : 	//
; 762  : 	// Locate node to retreat to, must be aware of it and not occupied by the enemy
; 763  : 	// and not being exploring by allied (ie. exploring flag set while recursing to save infinite call)
; 764  : 	//
; 765  : 
; 766  : 	current_node = group_raw->route_node;

  000d1	8b 45 e8	 mov	 eax, DWORD PTR _group_raw$[ebp]
  000d4	8b 88 8c 00 00
	00		 mov	 ecx, DWORD PTR [eax+140]
  000da	81 e1 ff 03 00
	00		 and	 ecx, 1023		; 000003ffH
  000e0	89 4d f4	 mov	 DWORD PTR _current_node$[ebp], ecx

; 767  : 
; 768  : 	//////////////////////////////////////////////////////////////
; 769  : 	ASSERT (get_road_link_breaks (current_node, advancing_node) == 0);

  000e3	8b 45 ec	 mov	 eax, DWORD PTR _advancing_node$[ebp]
  000e6	50		 push	 eax
  000e7	8b 4d f4	 mov	 ecx, DWORD PTR _current_node$[ebp]
  000ea	51		 push	 ecx
  000eb	e8 00 00 00 00	 call	 ?get_road_link_breaks@@YGHHH@Z ; get_road_link_breaks
  000f0	85 c0		 test	 eax, eax
  000f2	74 18		 je	 SHORT $LN7@response_t
  000f4	a1 00 00 00 00	 mov	 eax, DWORD PTR ?__LINE__Var@?0??response_to_ground_force_retreat@@YGHW4ENTITY_MESSAGES@@PAUENTITY@@1PAD@Z@4JA
  000f9	83 c0 2b	 add	 eax, 43			; 0000002bH
  000fc	50		 push	 eax
  000fd	68 00 00 00 00	 push	 OFFSET ??_C@_0EL@PBEBEHIP@c?3?2users?2nhv90?2projects?2eech?2ap@
  00102	68 00 00 00 00	 push	 OFFSET ??_C@_0DJ@CJBDGHJH@get_road_link_breaks?5?$CIcurrent_n@
  00107	e8 00 00 00 00	 call	 ?process_assert@@YGXPBD0H@Z ; process_assert
$LN7@response_t:

; 770  : 	//////////////////////////////////////////////////////////////
; 771  : 
; 772  : 	retreat_node = -1;

  0010c	c7 45 f0 ff ff
	ff ff		 mov	 DWORD PTR _retreat_node$[ebp], -1

; 773  : 
; 774  : 	for (loop = 0; loop < road_nodes [current_node].number_of_links; loop ++)

  00113	c7 45 fc 00 00
	00 00		 mov	 DWORD PTR _loop$[ebp], 0
  0011a	eb 09		 jmp	 SHORT $LN4@response_t
$LN2@response_t:
  0011c	8b 45 fc	 mov	 eax, DWORD PTR _loop$[ebp]
  0011f	83 c0 01	 add	 eax, 1
  00122	89 45 fc	 mov	 DWORD PTR _loop$[ebp], eax
$LN4@response_t:
  00125	6b 45 f4 0c	 imul	 eax, DWORD PTR _current_node$[ebp], 12
  00129	8b 0d 00 00 00
	00		 mov	 ecx, DWORD PTR ?road_nodes@@3PAUNODE_DATA@@A ; road_nodes
  0012f	8b 54 01 04	 mov	 edx, DWORD PTR [ecx+eax+4]
  00133	83 e2 7f	 and	 edx, 127		; 0000007fH
  00136	39 55 fc	 cmp	 DWORD PTR _loop$[ebp], edx
  00139	0f 83 93 05 00
	00		 jae	 $LN3@response_t

; 775  : 	{
; 776  : 
; 777  : 		retreat_node = road_nodes [current_node].links [loop].node;

  0013f	6b 45 f4 0c	 imul	 eax, DWORD PTR _current_node$[ebp], 12
  00143	8b 0d 00 00 00
	00		 mov	 ecx, DWORD PTR ?road_nodes@@3PAUNODE_DATA@@A ; road_nodes
  00149	8b 54 01 08	 mov	 edx, DWORD PTR [ecx+eax+8]
  0014d	b8 ff 3f 00 00	 mov	 eax, 16383		; 00003fffH
  00152	8b 4d fc	 mov	 ecx, DWORD PTR _loop$[ebp]
  00155	66 23 44 ca 04	 and	 ax, WORD PTR [edx+ecx*8+4]
  0015a	0f b7 d0	 movzx	 edx, ax
  0015d	89 55 f0	 mov	 DWORD PTR _retreat_node$[ebp], edx

; 778  : 
; 779  : 		if (
; 780  : 				(!(road_nodes [retreat_node].side_occupying & get_enemy_side (group_raw->side))) &&
; 781  : 				(!(road_nodes [retreat_node].side_exploring & group_raw->side)) &&

  00160	8b 45 e8	 mov	 eax, DWORD PTR _group_raw$[ebp]
  00163	8b 88 8c 00 00
	00		 mov	 ecx, DWORD PTR [eax+140]
  00169	c1 e9 0a	 shr	 ecx, 10			; 0000000aH
  0016c	83 e1 03	 and	 ecx, 3
  0016f	83 f9 01	 cmp	 ecx, 1
  00172	75 09		 jne	 SHORT $LN26@response_t
  00174	c7 45 94 02 00
	00 00		 mov	 DWORD PTR tv159[ebp], 2
  0017b	eb 07		 jmp	 SHORT $LN27@response_t
$LN26@response_t:
  0017d	c7 45 94 01 00
	00 00		 mov	 DWORD PTR tv159[ebp], 1
$LN27@response_t:
  00184	6b 55 f0 0c	 imul	 edx, DWORD PTR _retreat_node$[ebp], 12
  00188	a1 00 00 00 00	 mov	 eax, DWORD PTR ?road_nodes@@3PAUNODE_DATA@@A ; road_nodes
  0018d	8b 4c 10 04	 mov	 ecx, DWORD PTR [eax+edx+4]
  00191	c1 e9 0e	 shr	 ecx, 14			; 0000000eH
  00194	83 e1 03	 and	 ecx, 3
  00197	23 4d 94	 and	 ecx, DWORD PTR tv159[ebp]
  0019a	0f 85 2d 05 00
	00		 jne	 $LN15@response_t
  001a0	6b 45 f0 0c	 imul	 eax, DWORD PTR _retreat_node$[ebp], 12
  001a4	8b 0d 00 00 00
	00		 mov	 ecx, DWORD PTR ?road_nodes@@3PAUNODE_DATA@@A ; road_nodes
  001aa	8b 54 01 04	 mov	 edx, DWORD PTR [ecx+eax+4]
  001ae	c1 ea 12	 shr	 edx, 18			; 00000012H
  001b1	83 e2 03	 and	 edx, 3
  001b4	8b 45 e8	 mov	 eax, DWORD PTR _group_raw$[ebp]
  001b7	8b 88 8c 00 00
	00		 mov	 ecx, DWORD PTR [eax+140]
  001bd	c1 e9 0a	 shr	 ecx, 10			; 0000000aH
  001c0	83 e1 03	 and	 ecx, 3
  001c3	23 d1		 and	 edx, ecx
  001c5	0f 85 02 05 00
	00		 jne	 $LN15@response_t
  001cb	8b 45 f0	 mov	 eax, DWORD PTR _retreat_node$[ebp]
  001ce	3b 45 ec	 cmp	 eax, DWORD PTR _advancing_node$[ebp]
  001d1	0f 84 f6 04 00
	00		 je	 $LN15@response_t

; 782  : 				(retreat_node != advancing_node))
; 783  : 		{
; 784  : 			pos = &road_node_positions [retreat_node];

  001d7	6b 45 f0 0c	 imul	 eax, DWORD PTR _retreat_node$[ebp], 12
  001db	03 05 00 00 00
	00		 add	 eax, DWORD PTR ?road_node_positions@@3PAUVEC3D@@A ; road_node_positions
  001e1	89 45 dc	 mov	 DWORD PTR _pos$[ebp], eax

; 785  : 
; 786  : 			if (point_inside_adjusted_map_area (pos))

  001e4	8b 45 dc	 mov	 eax, DWORD PTR _pos$[ebp]
  001e7	f3 0f 5a 00	 cvtss2sd xmm0, DWORD PTR [eax]
  001eb	f3 0f 5a 0d 24
	00 00 00	 cvtss2sd xmm1, DWORD PTR ?world_map@@3UWORLD_MAP_DATA@@A+36
  001f3	f2 0f 58 0d 00
	00 00 00	 addsd	 xmm1, QWORD PTR __real@40b3880000000000
  001fb	66 0f 2f c1	 comisd	 xmm0, xmm1
  001ff	0f 82 c8 04 00
	00		 jb	 $LN15@response_t
  00205	8b 45 dc	 mov	 eax, DWORD PTR _pos$[ebp]
  00208	f3 0f 5a 00	 cvtss2sd xmm0, DWORD PTR [eax]
  0020c	f3 0f 5a 0d 3c
	00 00 00	 cvtss2sd xmm1, DWORD PTR ?world_map@@3UWORLD_MAP_DATA@@A+60
  00214	f2 0f 5c 0d 00
	00 00 00	 subsd	 xmm1, QWORD PTR __real@40b3880000000000
  0021c	66 0f 2f c8	 comisd	 xmm1, xmm0
  00220	0f 82 a7 04 00
	00		 jb	 $LN15@response_t
  00226	8b 45 dc	 mov	 eax, DWORD PTR _pos$[ebp]
  00229	f3 0f 5a 40 08	 cvtss2sd xmm0, DWORD PTR [eax+8]
  0022e	f3 0f 5a 0d 2c
	00 00 00	 cvtss2sd xmm1, DWORD PTR ?world_map@@3UWORLD_MAP_DATA@@A+44
  00236	f2 0f 58 0d 00
	00 00 00	 addsd	 xmm1, QWORD PTR __real@40b3880000000000
  0023e	66 0f 2f c1	 comisd	 xmm0, xmm1
  00242	0f 82 85 04 00
	00		 jb	 $LN15@response_t
  00248	8b 45 dc	 mov	 eax, DWORD PTR _pos$[ebp]
  0024b	f3 0f 5a 40 08	 cvtss2sd xmm0, DWORD PTR [eax+8]
  00250	f3 0f 5a 0d 44
	00 00 00	 cvtss2sd xmm1, DWORD PTR ?world_map@@3UWORLD_MAP_DATA@@A+68
  00258	f2 0f 5c 0d 00
	00 00 00	 subsd	 xmm1, QWORD PTR __real@40b3880000000000
  00260	66 0f 2f c8	 comisd	 xmm1, xmm0
  00264	0f 82 63 04 00
	00		 jb	 $LN15@response_t

; 787  : 			{
; 788  : 				if (get_road_link_breaks (retreat_node, current_node) == 0)

  0026a	8b 45 f4	 mov	 eax, DWORD PTR _current_node$[ebp]
  0026d	50		 push	 eax
  0026e	8b 4d f0	 mov	 ecx, DWORD PTR _retreat_node$[ebp]
  00271	51		 push	 ecx
  00272	e8 00 00 00 00	 call	 ?get_road_link_breaks@@YGHHH@Z ; get_road_link_breaks
  00277	85 c0		 test	 eax, eax
  00279	0f 85 4e 04 00
	00		 jne	 $LN15@response_t

; 789  : 				{
; 790  : 		
; 791  : 					#if DEBUG_MODULE
; 792  : 		
; 793  : 					debug_log ("GP_MSGS: Trying to retreat to node %d", retreat_node);
; 794  : 		
; 795  : 					#endif
; 796  : 		
; 797  : 					//
; 798  : 					// Locate group at retreat node (might not be one)
; 799  : 					//
; 800  : 		
; 801  : 					group_occupying_node = get_group_at_road_node (retreat_node);

  0027f	8b 45 f0	 mov	 eax, DWORD PTR _retreat_node$[ebp]
  00282	50		 push	 eax
  00283	e8 00 00 00 00	 call	 ?get_group_at_road_node@@YGPAUENTITY@@H@Z ; get_group_at_road_node
  00288	89 45 e0	 mov	 DWORD PTR _group_occupying_node$[ebp], eax

; 802  : 				
; 803  : 					//
; 804  : 					// Free and Reserve nodes ready for recursive calls
; 805  : 					//
; 806  : 				
; 807  : 					road_nodes [current_node].side_occupying = ENTITY_SIDE_NEUTRAL;

  0028b	6b 45 f4 0c	 imul	 eax, DWORD PTR _current_node$[ebp], 12
  0028f	8b 0d 00 00 00
	00		 mov	 ecx, DWORD PTR ?road_nodes@@3PAUNODE_DATA@@A ; road_nodes
  00295	8b 54 01 04	 mov	 edx, DWORD PTR [ecx+eax+4]
  00299	81 e2 ff 3f ff
	ff		 and	 edx, -49153		; ffff3fffH
  0029f	6b 45 f4 0c	 imul	 eax, DWORD PTR _current_node$[ebp], 12
  002a3	8b 0d 00 00 00
	00		 mov	 ecx, DWORD PTR ?road_nodes@@3PAUNODE_DATA@@A ; road_nodes
  002a9	89 54 01 04	 mov	 DWORD PTR [ecx+eax+4], edx

; 808  : 				
; 809  : 					road_nodes [retreat_node].side_exploring = group_raw->side;

  002ad	8b 45 e8	 mov	 eax, DWORD PTR _group_raw$[ebp]
  002b0	8b 88 8c 00 00
	00		 mov	 ecx, DWORD PTR [eax+140]
  002b6	c1 e9 0a	 shr	 ecx, 10			; 0000000aH
  002b9	83 e1 03	 and	 ecx, 3
  002bc	6b 55 f0 0c	 imul	 edx, DWORD PTR _retreat_node$[ebp], 12
  002c0	83 e1 03	 and	 ecx, 3
  002c3	c1 e1 12	 shl	 ecx, 18			; 00000012H
  002c6	a1 00 00 00 00	 mov	 eax, DWORD PTR ?road_nodes@@3PAUNODE_DATA@@A ; road_nodes
  002cb	8b 54 10 04	 mov	 edx, DWORD PTR [eax+edx+4]
  002cf	81 e2 ff ff f3
	ff		 and	 edx, -786433		; fff3ffffH
  002d5	0b d1		 or	 edx, ecx
  002d7	6b 45 f0 0c	 imul	 eax, DWORD PTR _retreat_node$[ebp], 12
  002db	8b 0d 00 00 00
	00		 mov	 ecx, DWORD PTR ?road_nodes@@3PAUNODE_DATA@@A ; road_nodes
  002e1	89 54 01 04	 mov	 DWORD PTR [ecx+eax+4], edx

; 810  : 				
; 811  : 					group_raw->route_node = retreat_node;

  002e5	8b 45 f0	 mov	 eax, DWORD PTR _retreat_node$[ebp]
  002e8	25 ff 03 00 00	 and	 eax, 1023		; 000003ffH
  002ed	8b 4d e8	 mov	 ecx, DWORD PTR _group_raw$[ebp]
  002f0	8b 91 8c 00 00
	00		 mov	 edx, DWORD PTR [ecx+140]
  002f6	81 e2 00 fc ff
	ff		 and	 edx, -1024		; fffffc00H
  002fc	0b d0		 or	 edx, eax
  002fe	8b 45 e8	 mov	 eax, DWORD PTR _group_raw$[ebp]
  00301	89 90 8c 00 00
	00		 mov	 DWORD PTR [eax+140], edx

; 812  : 				
; 813  : 					//
; 814  : 					// Tell group at node to retreat
; 815  : 					//
; 816  : 				
; 817  : 					if (group_occupying_node)

  00307	83 7d e0 00	 cmp	 DWORD PTR _group_occupying_node$[ebp], 0
  0030b	0f 84 ad 00 00
	00		 je	 $LN13@response_t

; 818  : 					{
; 819  : 				
; 820  : 						if (get_local_entity_int_value (group_occupying_node, INT_TYPE_SIDE) == group_raw->side)

  00311	83 7d e0 00	 cmp	 DWORD PTR _group_occupying_node$[ebp], 0
  00315	74 0a		 je	 SHORT $LN28@response_t
  00317	8b 45 e0	 mov	 eax, DWORD PTR _group_occupying_node$[ebp]
  0031a	8b 08		 mov	 ecx, DWORD PTR [eax]
  0031c	89 4d 94	 mov	 DWORD PTR tv232[ebp], ecx
  0031f	eb 1d		 jmp	 SHORT $LN29@response_t
$LN28@response_t:
  00321	68 34 03 00 00	 push	 820			; 00000334H
  00326	68 00 00 00 00	 push	 OFFSET ??_C@_0EL@PBEBEHIP@c?3?2users?2nhv90?2projects?2eech?2ap@
  0032b	8b 15 00 00 00
	00		 mov	 edx, DWORD PTR ?null_entity_pointer_message@@3PBDB ; null_entity_pointer_message
  00331	52		 push	 edx
  00332	e8 00 00 00 00	 call	 ?process_assert@@YGXPBD0H@Z ; process_assert
  00337	c7 45 94 00 00
	00 00		 mov	 DWORD PTR tv232[ebp], 0
$LN29@response_t:
  0033e	b8 01 00 00 00	 mov	 eax, 1
  00343	85 c0		 test	 eax, eax
  00345	74 09		 je	 SHORT $LN30@response_t
  00347	c7 45 90 bb 00
	00 00		 mov	 DWORD PTR tv239[ebp], 187 ; 000000bbH
  0034e	eb 1d		 jmp	 SHORT $LN31@response_t
$LN30@response_t:
  00350	68 34 03 00 00	 push	 820			; 00000334H
  00355	68 00 00 00 00	 push	 OFFSET ??_C@_0EL@PBEBEHIP@c?3?2users?2nhv90?2projects?2eech?2ap@
  0035a	8b 0d 00 00 00
	00		 mov	 ecx, DWORD PTR ?overload_invalid_int_type_message@@3PBDB ; overload_invalid_int_type_message
  00360	51		 push	 ecx
  00361	e8 00 00 00 00	 call	 ?process_assert@@YGXPBD0H@Z ; process_assert
  00366	c7 45 90 00 00
	00 00		 mov	 DWORD PTR tv239[ebp], 0
$LN31@response_t:
  0036d	68 bb 00 00 00	 push	 187			; 000000bbH
  00372	8b 55 e0	 mov	 edx, DWORD PTR _group_occupying_node$[ebp]
  00375	52		 push	 edx
  00376	69 45 94 5c 04
	00 00		 imul	 eax, DWORD PTR tv232[ebp], 1116
  0037d	8b 4d 90	 mov	 ecx, DWORD PTR tv239[ebp]
  00380	8b 94 88 00 00
	00 00		 mov	 edx, DWORD PTR ?fn_get_local_entity_int_value@@3PAY0BBH@P6GHPAUENTITY@@W4INT_TYPES@@@ZA[eax+ecx*4]
  00387	ff d2		 call	 edx
  00389	8b 4d e8	 mov	 ecx, DWORD PTR _group_raw$[ebp]
  0038c	8b 91 8c 00 00
	00		 mov	 edx, DWORD PTR [ecx+140]
  00392	c1 ea 0a	 shr	 edx, 10			; 0000000aH
  00395	83 e2 03	 and	 edx, 3
  00398	3b c2		 cmp	 eax, edx
  0039a	75 1b		 jne	 SHORT $LN12@response_t

; 821  : 						{
; 822  : 				
; 823  : 							#if DEBUG_MODULE
; 824  : 		
; 825  : 							debug_log ("GP_MSGS: telling group %d side %s to retreat from node %d", group_occupying_node, entity_side_names [get_local_entity_int_value (group_occupying_node, INT_TYPE_SIDE)], retreat_node);
; 826  : 		
; 827  : 							#endif
; 828  : 				
; 829  : 							success_flag = notify_local_entity (ENTITY_MESSAGE_GROUND_FORCE_RETREAT, group_occupying_node, receiver, current_node);

  0039c	8b 45 f4	 mov	 eax, DWORD PTR _current_node$[ebp]
  0039f	50		 push	 eax
  003a0	8b 4d 0c	 mov	 ecx, DWORD PTR _receiver$[ebp]
  003a3	51		 push	 ecx
  003a4	8b 55 e0	 mov	 edx, DWORD PTR _group_occupying_node$[ebp]
  003a7	52		 push	 edx
  003a8	6a 1e		 push	 30			; 0000001eH
  003aa	e8 00 00 00 00	 call	 ?notify_local_entity@@YAHW4ENTITY_MESSAGES@@PAUENTITY@@1ZZ ; notify_local_entity
  003af	83 c4 10	 add	 esp, 16			; 00000010H
  003b2	89 45 f8	 mov	 DWORD PTR _success_flag$[ebp], eax

; 830  : 						}
; 831  : 						else

  003b5	eb 07		 jmp	 SHORT $LN13@response_t
$LN12@response_t:

; 832  : 						{
; 833  : 		
; 834  : 							#if DEBUG_MODULE
; 835  : 		
; 836  : 							debug_log ("GP_MSGS: aborting retreat. Side %s, sleep %f", entity_side_names [group_raw->side], group_raw->sleep);
; 837  : 		
; 838  : 							#endif
; 839  : 				
; 840  : 							success_flag = FALSE;

  003b7	c7 45 f8 00 00
	00 00		 mov	 DWORD PTR _success_flag$[ebp], 0
$LN13@response_t:

; 841  : 						}
; 842  : 					}
; 843  : 				
; 844  : 					if (success_flag)

  003be	83 7d f8 00	 cmp	 DWORD PTR _success_flag$[ebp], 0
  003c2	0f 84 59 02 00
	00		 je	 $LN14@response_t

; 845  : 					{
; 846  : 		
; 847  : 						entity
; 848  : 							*new_task;
; 849  : 		
; 850  : 						new_task = create_ground_force_task (ENTITY_SUB_TYPE_TASK_RETREAT, receiver, current_node, retreat_node, task_database [ENTITY_SUB_TYPE_TASK_RETREAT].task_priority, NULL, NULL);

  003c8	6a 00		 push	 0
  003ca	6a 00		 push	 0
  003cc	b8 50 00 00 00	 mov	 eax, 80			; 00000050H
  003d1	6b c8 13	 imul	 ecx, eax, 19
  003d4	51		 push	 ecx
  003d5	f3 0f 10 81 10
	00 00 00	 movss	 xmm0, DWORD PTR ?task_database@@3PAUTASK_DATA@@A[ecx+16]
  003dd	f3 0f 11 04 24	 movss	 DWORD PTR [esp], xmm0
  003e2	8b 55 f0	 mov	 edx, DWORD PTR _retreat_node$[ebp]
  003e5	52		 push	 edx
  003e6	8b 45 f4	 mov	 eax, DWORD PTR _current_node$[ebp]
  003e9	50		 push	 eax
  003ea	8b 4d 0c	 mov	 ecx, DWORD PTR _receiver$[ebp]
  003ed	51		 push	 ecx
  003ee	6a 13		 push	 19			; 00000013H
  003f0	e8 00 00 00 00	 call	 ?create_ground_force_task@@YGPAUENTITY@@HPAU1@HHM00@Z ; create_ground_force_task
  003f5	89 45 d8	 mov	 DWORD PTR _new_task$1[ebp], eax

; 851  : 		
; 852  : 						if (new_task)

  003f8	83 7d d8 00	 cmp	 DWORD PTR _new_task$1[ebp], 0
  003fc	0f 84 1a 02 00
	00		 je	 $LN18@response_t

; 853  : 						{
; 854  : 				
; 855  : 							#if DEBUG_MODULE
; 856  : 		
; 857  : 							debug_log ("GP_MSGS: creating retreat task for group %d side %s from %d to %d", receiver, entity_side_names [group_raw->side], current_node, retreat_node);
; 858  : 		
; 859  : 							#endif
; 860  : 		
; 861  : 							if (assign_primary_task_to_group (receiver, new_task))

  00402	8b 45 d8	 mov	 eax, DWORD PTR _new_task$1[ebp]
  00405	50		 push	 eax
  00406	8b 4d 0c	 mov	 ecx, DWORD PTR _receiver$[ebp]
  00409	51		 push	 ecx
  0040a	e8 00 00 00 00	 call	 ?assign_primary_task_to_group@@YGHPAUENTITY@@0@Z ; assign_primary_task_to_group
  0040f	85 c0		 test	 eax, eax
  00411	0f 84 9f 01 00
	00		 je	 $LN17@response_t

; 862  : 							{
; 863  : 			
; 864  : 								road_nodes [retreat_node].side_occupying = group_raw->side;

  00417	8b 45 e8	 mov	 eax, DWORD PTR _group_raw$[ebp]
  0041a	8b 88 8c 00 00
	00		 mov	 ecx, DWORD PTR [eax+140]
  00420	c1 e9 0a	 shr	 ecx, 10			; 0000000aH
  00423	83 e1 03	 and	 ecx, 3
  00426	6b 55 f0 0c	 imul	 edx, DWORD PTR _retreat_node$[ebp], 12
  0042a	83 e1 03	 and	 ecx, 3
  0042d	c1 e1 0e	 shl	 ecx, 14			; 0000000eH
  00430	a1 00 00 00 00	 mov	 eax, DWORD PTR ?road_nodes@@3PAUNODE_DATA@@A ; road_nodes
  00435	8b 54 10 04	 mov	 edx, DWORD PTR [eax+edx+4]
  00439	81 e2 ff 3f ff
	ff		 and	 edx, -49153		; ffff3fffH
  0043f	0b d1		 or	 edx, ecx
  00441	6b 45 f0 0c	 imul	 eax, DWORD PTR _retreat_node$[ebp], 12
  00445	8b 0d 00 00 00
	00		 mov	 ecx, DWORD PTR ?road_nodes@@3PAUNODE_DATA@@A ; road_nodes
  0044b	89 54 01 04	 mov	 DWORD PTR [ecx+eax+4], edx

; 865  : 			
; 866  : 								road_nodes [retreat_node].side_exploring &= ~group_raw->side;

  0044f	6b 45 f0 0c	 imul	 eax, DWORD PTR _retreat_node$[ebp], 12
  00453	8b 0d 00 00 00
	00		 mov	 ecx, DWORD PTR ?road_nodes@@3PAUNODE_DATA@@A ; road_nodes
  00459	8b 54 01 04	 mov	 edx, DWORD PTR [ecx+eax+4]
  0045d	c1 ea 12	 shr	 edx, 18			; 00000012H
  00460	83 e2 03	 and	 edx, 3
  00463	8b 45 e8	 mov	 eax, DWORD PTR _group_raw$[ebp]
  00466	8b 88 8c 00 00
	00		 mov	 ecx, DWORD PTR [eax+140]
  0046c	c1 e9 0a	 shr	 ecx, 10			; 0000000aH
  0046f	83 e1 03	 and	 ecx, 3
  00472	f7 d1		 not	 ecx
  00474	23 d1		 and	 edx, ecx
  00476	6b 45 f0 0c	 imul	 eax, DWORD PTR _retreat_node$[ebp], 12
  0047a	83 e2 03	 and	 edx, 3
  0047d	c1 e2 12	 shl	 edx, 18			; 00000012H
  00480	8b 0d 00 00 00
	00		 mov	 ecx, DWORD PTR ?road_nodes@@3PAUNODE_DATA@@A ; road_nodes
  00486	8b 44 01 04	 mov	 eax, DWORD PTR [ecx+eax+4]
  0048a	25 ff ff f3 ff	 and	 eax, -786433		; fff3ffffH
  0048f	0b c2		 or	 eax, edx
  00491	6b 4d f0 0c	 imul	 ecx, DWORD PTR _retreat_node$[ebp], 12
  00495	8b 15 00 00 00
	00		 mov	 edx, DWORD PTR ?road_nodes@@3PAUNODE_DATA@@A ; road_nodes
  0049b	89 44 0a 04	 mov	 DWORD PTR [edx+ecx+4], eax

; 867  : 		
; 868  : 								/////////////////////////////////////////////////////////////////
; 869  : 								//
; 870  : 								// SPECIAL_EFFECT_HOOK FOR FRONTLINE RETREATING
; 871  : 								//
; 872  : 								/////////////////////////////////////////////////////////////////
; 873  : 		
; 874  : 								{
; 875  : 									// PLAY_SPEECH (GC)
; 876  : 									//
; 877  : 									// [GC Introduction],
; 878  : 									// We are retreating 
; 879  : 			
; 880  : 									ASSERT (pos);

  0049f	83 7d dc 00	 cmp	 DWORD PTR _pos$[ebp], 0
  004a3	75 1a		 jne	 SHORT $LN19@response_t
  004a5	a1 00 00 00 00	 mov	 eax, DWORD PTR ?__LINE__Var@?0??response_to_ground_force_retreat@@YGHW4ENTITY_MESSAGES@@PAUENTITY@@1PAD@Z@4JA
  004aa	05 9a 00 00 00	 add	 eax, 154		; 0000009aH
  004af	50		 push	 eax
  004b0	68 00 00 00 00	 push	 OFFSET ??_C@_0EL@PBEBEHIP@c?3?2users?2nhv90?2projects?2eech?2ap@
  004b5	68 00 00 00 00	 push	 OFFSET ??_C@_03PCBNCGFH@pos@
  004ba	e8 00 00 00 00	 call	 ?process_assert@@YGXPBD0H@Z ; process_assert
$LN19@response_t:

; 881  : 					
; 882  : 									get_speech_sector_coordinates (pos);

  004bf	8b 45 dc	 mov	 eax, DWORD PTR _pos$[ebp]
  004c2	50		 push	 eax
  004c3	e8 00 00 00 00	 call	 ?get_speech_sector_coordinates@@YGPAHPAUVEC3D@@@Z ; get_speech_sector_coordinates

; 883  : 
; 884  : 									play_client_server_speech

  004c8	6a ff		 push	 -1
  004ca	b8 04 00 00 00	 mov	 eax, 4
  004cf	6b c8 05	 imul	 ecx, eax, 5
  004d2	8b 91 00 00 00
	00		 mov	 edx, DWORD PTR ?speech_sector_coordinates@@3PAHA[ecx]
  004d8	52		 push	 edx
  004d9	6a 00		 push	 0
  004db	b8 04 00 00 00	 mov	 eax, 4
  004e0	c1 e0 02	 shl	 eax, 2
  004e3	8b 88 00 00 00
	00		 mov	 ecx, DWORD PTR ?speech_sector_coordinates@@3PAHA[eax]
  004e9	51		 push	 ecx
  004ea	6a 00		 push	 0
  004ec	ba 04 00 00 00	 mov	 edx, 4
  004f1	6b c2 03	 imul	 eax, edx, 3
  004f4	8b 88 00 00 00
	00		 mov	 ecx, DWORD PTR ?speech_sector_coordinates@@3PAHA[eax]
  004fa	51		 push	 ecx
  004fb	6a 00		 push	 0
  004fd	ba 04 00 00 00	 mov	 edx, 4
  00502	d1 e2		 shl	 edx, 1
  00504	8b 82 00 00 00
	00		 mov	 eax, DWORD PTR ?speech_sector_coordinates@@3PAHA[edx]
  0050a	50		 push	 eax
  0050b	6a 00		 push	 0
  0050d	b9 04 00 00 00	 mov	 ecx, 4
  00512	c1 e1 00	 shl	 ecx, 0
  00515	8b 91 00 00 00
	00		 mov	 edx, DWORD PTR ?speech_sector_coordinates@@3PAHA[ecx]
  0051b	52		 push	 edx
  0051c	6a 00		 push	 0
  0051e	b8 04 00 00 00	 mov	 eax, 4
  00523	6b c8 00	 imul	 ecx, eax, 0
  00526	8b 91 00 00 00
	00		 mov	 edx, DWORD PTR ?speech_sector_coordinates@@3PAHA[ecx]
  0052c	52		 push	 edx
  0052d	6a 00		 push	 0
  0052f	6a 08		 push	 8
  00531	6a 05		 push	 5
  00533	6a 00		 push	 0
  00535	6a 05		 push	 5
  00537	51		 push	 ecx
  00538	f3 0f 10 05 00
	00 00 00	 movss	 xmm0, DWORD PTR __real@43340000
  00540	f3 0f 11 04 24	 movss	 DWORD PTR [esp], xmm0
  00545	6a 0b		 push	 11			; 0000000bH
  00547	6a 06		 push	 6
  00549	51		 push	 ecx
  0054a	f3 0f 10 05 00
	00 00 00	 movss	 xmm0, DWORD PTR __real@41a00000
  00552	f3 0f 11 04 24	 movss	 DWORD PTR [esp], xmm0
  00557	51		 push	 ecx
  00558	f3 0f 10 05 00
	00 00 00	 movss	 xmm0, DWORD PTR __real@3e99999a
  00560	f3 0f 11 04 24	 movss	 DWORD PTR [esp], xmm0
  00565	51		 push	 ecx
  00566	0f 57 c0	 xorps	 xmm0, xmm0
  00569	f3 0f 11 04 24	 movss	 DWORD PTR [esp], xmm0
  0056e	6a 00		 push	 0
  00570	6a 1e		 push	 30			; 0000001eH
  00572	8b 45 e8	 mov	 eax, DWORD PTR _group_raw$[ebp]
  00575	8b 88 8c 00 00
	00		 mov	 ecx, DWORD PTR [eax+140]
  0057b	c1 e9 0a	 shr	 ecx, 10			; 0000000aH
  0057e	83 e1 03	 and	 ecx, 3
  00581	51		 push	 ecx
  00582	8b 55 0c	 mov	 edx, DWORD PTR _receiver$[ebp]
  00585	52		 push	 edx
  00586	a1 00 00 00 00	 mov	 eax, DWORD PTR ?session_entity@@3PAUENTITY@@A ; session_entity
  0058b	50		 push	 eax
  0058c	e8 00 00 00 00	 call	 ?play_client_server_speech@@YAHPAUENTITY@@0W4ENTITY_SIDES@@HW4SOUND_LOCALITY_TYPES@@MMMW4speech_originator_types@@W4speech_category_types@@MZZ ; play_client_server_speech
  00591	83 c4 70	 add	 esp, 112		; 00000070H

; 885  : 									(
; 886  : 										get_session_entity (),
; 887  : 										receiver,
; 888  : 										(entity_sides) group_raw->side,
; 889  : 										ENTITY_SUB_TYPE_EFFECT_SOUND_RADIO_MESSAGE,
; 890  : 										SOUND_LOCALITY_RADIO,
; 891  : 										0.0,
; 892  : 										0.3,
; 893  : 										20.0,
; 894  : 										SPEECH_ORIGINATOR_GROUND_CONTROLLER,
; 895  : 										SPEECH_CATEGORY_MOVING,
; 896  : 										180.0,
; 897  : 										SPEECH_ARRAY_GC_MESSAGES, SPEECH_GC_INTRODUCTION,
; 898  : 										SPEECH_ARRAY_GC_MESSAGES, SPEECH_GC_RETREATING_TO,
; 899  : 										SPEECH_ARRAY_NUMBERS, speech_sector_coordinates [0],
; 900  : 										SPEECH_ARRAY_NUMBERS, speech_sector_coordinates [1],
; 901  : 										SPEECH_ARRAY_NUMBERS, speech_sector_coordinates [2],
; 902  : 										SPEECH_ARRAY_NUMBERS, speech_sector_coordinates [3],
; 903  : 										SPEECH_ARRAY_NUMBERS, speech_sector_coordinates [4],
; 904  : 										SPEECH_ARRAY_NUMBERS, speech_sector_coordinates [5],
; 905  : 										-1
; 906  : 									);
; 907  : 								}
; 908  : 		
; 909  : 								/////////////////////////////////////////////////////////////////
; 910  : 								//
; 911  : 								//
; 912  : 								/////////////////////////////////////////////////////////////////
; 913  : 		
; 914  : 								//
; 915  : 								// notify force of retreat (hope for a CAS)
; 916  : 								//
; 917  : 		
; 918  : 								notify_local_entity (ENTITY_MESSAGE_FORCE_ARMOUR_RETREATING, allied_force, receiver, sender);

  00594	8b 45 10	 mov	 eax, DWORD PTR _sender$[ebp]
  00597	50		 push	 eax
  00598	8b 4d 0c	 mov	 ecx, DWORD PTR _receiver$[ebp]
  0059b	51		 push	 ecx
  0059c	8b 55 e4	 mov	 edx, DWORD PTR _allied_force$[ebp]
  0059f	52		 push	 edx
  005a0	6a 13		 push	 19			; 00000013H
  005a2	e8 00 00 00 00	 call	 ?notify_local_entity@@YAHW4ENTITY_MESSAGES@@PAUENTITY@@1ZZ ; notify_local_entity
  005a7	83 c4 10	 add	 esp, 16			; 00000010H

; 919  : 		
; 920  : 								return TRUE;

  005aa	b8 01 00 00 00	 mov	 eax, 1
  005af	e9 20 01 00 00	 jmp	 $LN1@response_t

; 921  : 							}
; 922  : 							else

  005b4	eb 66		 jmp	 SHORT $LN18@response_t
$LN17@response_t:

; 923  : 							{
; 924  : 		
; 925  : 								notify_local_entity (ENTITY_MESSAGE_FORCE_ARMOUR_STUCK, allied_force, receiver, NULL);

  005b6	6a 00		 push	 0
  005b8	8b 45 0c	 mov	 eax, DWORD PTR _receiver$[ebp]
  005bb	50		 push	 eax
  005bc	8b 4d e4	 mov	 ecx, DWORD PTR _allied_force$[ebp]
  005bf	51		 push	 ecx
  005c0	6a 14		 push	 20			; 00000014H
  005c2	e8 00 00 00 00	 call	 ?notify_local_entity@@YAHW4ENTITY_MESSAGES@@PAUENTITY@@1ZZ ; notify_local_entity
  005c7	83 c4 10	 add	 esp, 16			; 00000010H

; 926  : 		
; 927  : 								destroy_local_entity_family (new_task);

  005ca	83 7d d8 00	 cmp	 DWORD PTR _new_task$1[ebp], 0
  005ce	74 0a		 je	 SHORT $LN32@response_t
  005d0	8b 45 d8	 mov	 eax, DWORD PTR _new_task$1[ebp]
  005d3	8b 08		 mov	 ecx, DWORD PTR [eax]
  005d5	89 4d 94	 mov	 DWORD PTR tv367[ebp], ecx
  005d8	eb 24		 jmp	 SHORT $LN33@response_t
$LN32@response_t:
  005da	8b 15 00 00 00
	00		 mov	 edx, DWORD PTR ?__LINE__Var@?0??response_to_ground_force_retreat@@YGHW4ENTITY_MESSAGES@@PAUENTITY@@1PAD@Z@4JA
  005e0	81 c2 c9 00 00
	00		 add	 edx, 201		; 000000c9H
  005e6	52		 push	 edx
  005e7	68 00 00 00 00	 push	 OFFSET ??_C@_0EL@PBEBEHIP@c?3?2users?2nhv90?2projects?2eech?2ap@
  005ec	a1 00 00 00 00	 mov	 eax, DWORD PTR ?null_entity_pointer_message@@3PBDB ; null_entity_pointer_message
  005f1	50		 push	 eax
  005f2	e8 00 00 00 00	 call	 ?process_assert@@YGXPBD0H@Z ; process_assert
  005f7	c7 45 94 00 00
	00 00		 mov	 DWORD PTR tv367[ebp], 0
$LN33@response_t:
  005fe	8b 4d d8	 mov	 ecx, DWORD PTR _new_task$1[ebp]
  00601	51		 push	 ecx
  00602	8b 55 94	 mov	 edx, DWORD PTR tv367[ebp]
  00605	8b 04 95 00 00
	00 00		 mov	 eax, DWORD PTR ?fn_destroy_local_entity_family@@3PAP6GXPAUENTITY@@@ZA[edx*4]
  0060c	ff d0		 call	 eax

; 928  : 			
; 929  : 								transmit_entity_comms_message (ENTITY_COMMS_DESTROY_LOCAL_FAMILY, new_task);

  0060e	8b 45 d8	 mov	 eax, DWORD PTR _new_task$1[ebp]
  00611	50		 push	 eax
  00612	6a 14		 push	 20			; 00000014H
  00614	e8 00 00 00 00	 call	 ?transmit_entity_comms_message@@YAXW4ENTITY_COMMS_MESSAGES@@PAUENTITY@@ZZ ; transmit_entity_comms_message
  00619	83 c4 08	 add	 esp, 8
$LN18@response_t:

; 930  : 							}
; 931  : 						}
; 932  : 					}
; 933  : 					else

  0061c	e9 ac 00 00 00	 jmp	 $LN15@response_t
$LN14@response_t:

; 934  : 					{
; 935  : 				
; 936  : 						//
; 937  : 						// Unreserve nodes since group isn't retreating
; 938  : 						//
; 939  : 				
; 940  : 						ASSERT (road_nodes [current_node].side_occupying == ENTITY_SIDE_NEUTRAL);

  00621	6b 45 f4 0c	 imul	 eax, DWORD PTR _current_node$[ebp], 12
  00625	8b 0d 00 00 00
	00		 mov	 ecx, DWORD PTR ?road_nodes@@3PAUNODE_DATA@@A ; road_nodes
  0062b	8b 54 01 04	 mov	 edx, DWORD PTR [ecx+eax+4]
  0062f	c1 ea 0e	 shr	 edx, 14			; 0000000eH
  00632	83 e2 03	 and	 edx, 3
  00635	74 1a		 je	 SHORT $LN20@response_t
  00637	a1 00 00 00 00	 mov	 eax, DWORD PTR ?__LINE__Var@?0??response_to_ground_force_retreat@@YGHW4ENTITY_MESSAGES@@PAUENTITY@@1PAD@Z@4JA
  0063c	05 d6 00 00 00	 add	 eax, 214		; 000000d6H
  00641	50		 push	 eax
  00642	68 00 00 00 00	 push	 OFFSET ??_C@_0EL@PBEBEHIP@c?3?2users?2nhv90?2projects?2eech?2ap@
  00647	68 00 00 00 00	 push	 OFFSET ??_C@_0EA@DMFGJKJI@road_nodes?5?$FLcurrent_node?$FN?4side_@
  0064c	e8 00 00 00 00	 call	 ?process_assert@@YGXPBD0H@Z ; process_assert
$LN20@response_t:

; 941  : 				
; 942  : 						road_nodes [current_node].side_occupying = group_raw->side;

  00651	8b 45 e8	 mov	 eax, DWORD PTR _group_raw$[ebp]
  00654	8b 88 8c 00 00
	00		 mov	 ecx, DWORD PTR [eax+140]
  0065a	c1 e9 0a	 shr	 ecx, 10			; 0000000aH
  0065d	83 e1 03	 and	 ecx, 3
  00660	6b 55 f4 0c	 imul	 edx, DWORD PTR _current_node$[ebp], 12
  00664	83 e1 03	 and	 ecx, 3
  00667	c1 e1 0e	 shl	 ecx, 14			; 0000000eH
  0066a	a1 00 00 00 00	 mov	 eax, DWORD PTR ?road_nodes@@3PAUNODE_DATA@@A ; road_nodes
  0066f	8b 54 10 04	 mov	 edx, DWORD PTR [eax+edx+4]
  00673	81 e2 ff 3f ff
	ff		 and	 edx, -49153		; ffff3fffH
  00679	0b d1		 or	 edx, ecx
  0067b	6b 45 f4 0c	 imul	 eax, DWORD PTR _current_node$[ebp], 12
  0067f	8b 0d 00 00 00
	00		 mov	 ecx, DWORD PTR ?road_nodes@@3PAUNODE_DATA@@A ; road_nodes
  00685	89 54 01 04	 mov	 DWORD PTR [ecx+eax+4], edx

; 943  : 				
; 944  : 						road_nodes [retreat_node].side_occupying = ENTITY_SIDE_NEUTRAL;

  00689	6b 45 f0 0c	 imul	 eax, DWORD PTR _retreat_node$[ebp], 12
  0068d	8b 0d 00 00 00
	00		 mov	 ecx, DWORD PTR ?road_nodes@@3PAUNODE_DATA@@A ; road_nodes
  00693	8b 54 01 04	 mov	 edx, DWORD PTR [ecx+eax+4]
  00697	81 e2 ff 3f ff
	ff		 and	 edx, -49153		; ffff3fffH
  0069d	6b 45 f0 0c	 imul	 eax, DWORD PTR _retreat_node$[ebp], 12
  006a1	8b 0d 00 00 00
	00		 mov	 ecx, DWORD PTR ?road_nodes@@3PAUNODE_DATA@@A ; road_nodes
  006a7	89 54 01 04	 mov	 DWORD PTR [ecx+eax+4], edx

; 945  : 				
; 946  : 						group_raw->route_node = current_node;

  006ab	8b 45 f4	 mov	 eax, DWORD PTR _current_node$[ebp]
  006ae	25 ff 03 00 00	 and	 eax, 1023		; 000003ffH
  006b3	8b 4d e8	 mov	 ecx, DWORD PTR _group_raw$[ebp]
  006b6	8b 91 8c 00 00
	00		 mov	 edx, DWORD PTR [ecx+140]
  006bc	81 e2 00 fc ff
	ff		 and	 edx, -1024		; fffffc00H
  006c2	0b d0		 or	 edx, eax
  006c4	8b 45 e8	 mov	 eax, DWORD PTR _group_raw$[ebp]
  006c7	89 90 8c 00 00
	00		 mov	 DWORD PTR [eax+140], edx
$LN15@response_t:

; 947  : 				
; 948  : 						#if DEBUG_MODULE
; 949  : 		
; 950  : 						debug_log ("GP_MSGS: aborting retreat from %d to %d", current_node, retreat_node);
; 951  : 		
; 952  : 						#endif
; 953  : 					}
; 954  : 				}
; 955  : 			}
; 956  : 		}
; 957  : 	}

  006cd	e9 4a fa ff ff	 jmp	 $LN2@response_t
$LN3@response_t:

; 958  : 
; 959  : 	return FALSE;

  006d2	33 c0		 xor	 eax, eax
$LN1@response_t:

; 960  : }

  006d4	5f		 pop	 edi
  006d5	5e		 pop	 esi
  006d6	5b		 pop	 ebx
  006d7	8b e5		 mov	 esp, ebp
  006d9	5d		 pop	 ebp
  006da	c2 10 00	 ret	 16			; 00000010H
?response_to_ground_force_retreat@@YGHW4ENTITY_MESSAGES@@PAUENTITY@@1PAD@Z ENDP ; response_to_ground_force_retreat
_TEXT	ENDS
; Function compile flags: /Odtp /ZI
; File c:\users\nhv90\projects\eech\aphavoc\source\entity\special\group\gp_msgs.c
;	COMDAT ?response_to_ground_force_advance@@YGHW4ENTITY_MESSAGES@@PAUENTITY@@1PAD@Z
_TEXT	SEGMENT
tv190 = -140						; size = 4
tv180 = -136						; size = 4
tv79 = -136						; size = 4
tv220 = -132						; size = 4
tv173 = -132						; size = 4
tv72 = -132						; size = 4
_supporting_warmth$1 = -64				; size = 4
_advancing_warmth$2 = -60				; size = 4
_supporting_sector_raw$3 = -56				; size = 4
_advancing_sector_raw$4 = -52				; size = 4
_supporting_sector$5 = -48				; size = 4
_advancing_sector$6 = -44				; size = 4
_new_task$7 = -40					; size = 4
_pos$ = -36						; size = 4
_group_occupying_node$ = -32				; size = 4
_allied_force$ = -28					; size = 4
_group$ = -24						; size = 4
_success_flag$ = -20					; size = 4
_advance_node$ = -16					; size = 4
_current_node$ = -12					; size = 4
_loop$ = -8						; size = 4
_group_raw$ = -4					; size = 4
_message$ = 8						; size = 4
_receiver$ = 12						; size = 4
_sender$ = 16						; size = 4
_pargs$ = 20						; size = 4
?response_to_ground_force_advance@@YGHW4ENTITY_MESSAGES@@PAUENTITY@@1PAD@Z PROC ; response_to_ground_force_advance, COMDAT

; 412  : {

  00000	55		 push	 ebp
  00001	8b ec		 mov	 ebp, esp
  00003	81 ec 8c 00 00
	00		 sub	 esp, 140		; 0000008cH
  00009	53		 push	 ebx
  0000a	56		 push	 esi
  0000b	57		 push	 edi

; 413  : 
; 414  : 	group
; 415  : 		*group_raw;
; 416  : 
; 417  : 	unsigned int
; 418  : 		loop;
; 419  : 
; 420  : 	int
; 421  : 		current_node,
; 422  : 		advance_node,
; 423  : 		success_flag;
; 424  : 
; 425  : 	entity
; 426  : 		*group,
; 427  : 		*allied_force,
; 428  : 		*group_occupying_node;
; 429  : 
; 430  : 	vec3d
; 431  : 		*pos;
; 432  : 
; 433  : 	success_flag = TRUE;

  0000c	c7 45 ec 01 00
	00 00		 mov	 DWORD PTR _success_flag$[ebp], 1

; 434  : 
; 435  : 	advance_node = va_arg (pargs, int);

  00013	8b 45 14	 mov	 eax, DWORD PTR _pargs$[ebp]
  00016	83 c0 04	 add	 eax, 4
  00019	89 45 14	 mov	 DWORD PTR _pargs$[ebp], eax
  0001c	8b 4d 14	 mov	 ecx, DWORD PTR _pargs$[ebp]
  0001f	8b 51 fc	 mov	 edx, DWORD PTR [ecx-4]
  00022	89 55 f0	 mov	 DWORD PTR _advance_node$[ebp], edx

; 436  : 
; 437  : 	group_raw = (struct GROUP *) get_local_entity_data (receiver);

  00025	8b 45 0c	 mov	 eax, DWORD PTR _receiver$[ebp]
  00028	8b 48 04	 mov	 ecx, DWORD PTR [eax+4]
  0002b	89 4d fc	 mov	 DWORD PTR _group_raw$[ebp], ecx

; 438  : 
; 439  : 	if ((get_local_entity_int_value (receiver, INT_TYPE_GROUP_MODE) == GROUP_MODE_BUSY) || (!check_group_members_awake (receiver)))

  0002e	83 7d 0c 00	 cmp	 DWORD PTR _receiver$[ebp], 0
  00032	74 0d		 je	 SHORT $LN23@response_t
  00034	8b 45 0c	 mov	 eax, DWORD PTR _receiver$[ebp]
  00037	8b 08		 mov	 ecx, DWORD PTR [eax]
  00039	89 8d 7c ff ff
	ff		 mov	 DWORD PTR tv72[ebp], ecx
  0003f	eb 20		 jmp	 SHORT $LN24@response_t
$LN23@response_t:
  00041	68 b7 01 00 00	 push	 439			; 000001b7H
  00046	68 00 00 00 00	 push	 OFFSET ??_C@_0EL@PBEBEHIP@c?3?2users?2nhv90?2projects?2eech?2ap@
  0004b	8b 15 00 00 00
	00		 mov	 edx, DWORD PTR ?null_entity_pointer_message@@3PBDB ; null_entity_pointer_message
  00051	52		 push	 edx
  00052	e8 00 00 00 00	 call	 ?process_assert@@YGXPBD0H@Z ; process_assert
  00057	c7 85 7c ff ff
	ff 00 00 00 00	 mov	 DWORD PTR tv72[ebp], 0
$LN24@response_t:
  00061	b8 01 00 00 00	 mov	 eax, 1
  00066	85 c0		 test	 eax, eax
  00068	74 0c		 je	 SHORT $LN25@response_t
  0006a	c7 85 78 ff ff
	ff 4d 00 00 00	 mov	 DWORD PTR tv79[ebp], 77	; 0000004dH
  00074	eb 20		 jmp	 SHORT $LN26@response_t
$LN25@response_t:
  00076	68 b7 01 00 00	 push	 439			; 000001b7H
  0007b	68 00 00 00 00	 push	 OFFSET ??_C@_0EL@PBEBEHIP@c?3?2users?2nhv90?2projects?2eech?2ap@
  00080	8b 0d 00 00 00
	00		 mov	 ecx, DWORD PTR ?overload_invalid_int_type_message@@3PBDB ; overload_invalid_int_type_message
  00086	51		 push	 ecx
  00087	e8 00 00 00 00	 call	 ?process_assert@@YGXPBD0H@Z ; process_assert
  0008c	c7 85 78 ff ff
	ff 00 00 00 00	 mov	 DWORD PTR tv79[ebp], 0
$LN26@response_t:
  00096	6a 4d		 push	 77			; 0000004dH
  00098	8b 55 0c	 mov	 edx, DWORD PTR _receiver$[ebp]
  0009b	52		 push	 edx
  0009c	69 85 7c ff ff
	ff 5c 04 00 00	 imul	 eax, DWORD PTR tv72[ebp], 1116
  000a6	8b 8d 78 ff ff
	ff		 mov	 ecx, DWORD PTR tv79[ebp]
  000ac	8b 94 88 00 00
	00 00		 mov	 edx, DWORD PTR ?fn_get_local_entity_int_value@@3PAY0BBH@P6GHPAUENTITY@@W4INT_TYPES@@@ZA[eax+ecx*4]
  000b3	ff d2		 call	 edx
  000b5	83 f8 01	 cmp	 eax, 1
  000b8	74 0d		 je	 SHORT $LN6@response_t
  000ba	8b 45 0c	 mov	 eax, DWORD PTR _receiver$[ebp]
  000bd	50		 push	 eax
  000be	e8 00 00 00 00	 call	 ?check_group_members_awake@@YGHPAUENTITY@@@Z ; check_group_members_awake
  000c3	85 c0		 test	 eax, eax
  000c5	75 07		 jne	 SHORT $LN5@response_t
$LN6@response_t:

; 440  : 	{
; 441  : 
; 442  : 		#if DEBUG_MODULE
; 443  : 
; 444  : 		debug_log ("GP_MSGS: group %d busy or sleeping", get_local_entity_index (receiver));
; 445  : 
; 446  : 		#endif
; 447  : 
; 448  : 		return FALSE;

  000c7	33 c0		 xor	 eax, eax
  000c9	e9 d8 05 00 00	 jmp	 $LN1@response_t
$LN5@response_t:

; 449  : 	}
; 450  : 
; 451  : 	current_node = group_raw->route_node;

  000ce	8b 45 fc	 mov	 eax, DWORD PTR _group_raw$[ebp]
  000d1	8b 88 8c 00 00
	00		 mov	 ecx, DWORD PTR [eax+140]
  000d7	81 e1 ff 03 00
	00		 and	 ecx, 1023		; 000003ffH
  000dd	89 4d f4	 mov	 DWORD PTR _current_node$[ebp], ecx

; 452  : 
; 453  : 	//////////////////////////////////////////////////////////////
; 454  : 	ASSERT (get_road_link_breaks (current_node, advance_node) == 0);

  000e0	8b 45 f0	 mov	 eax, DWORD PTR _advance_node$[ebp]
  000e3	50		 push	 eax
  000e4	8b 4d f4	 mov	 ecx, DWORD PTR _current_node$[ebp]
  000e7	51		 push	 ecx
  000e8	e8 00 00 00 00	 call	 ?get_road_link_breaks@@YGHHH@Z ; get_road_link_breaks
  000ed	85 c0		 test	 eax, eax
  000ef	74 18		 je	 SHORT $LN7@response_t
  000f1	a1 00 00 00 00	 mov	 eax, DWORD PTR ?__LINE__Var@?0??response_to_ground_force_advance@@YGHW4ENTITY_MESSAGES@@PAUENTITY@@1PAD@Z@4JA
  000f6	83 c0 2a	 add	 eax, 42			; 0000002aH
  000f9	50		 push	 eax
  000fa	68 00 00 00 00	 push	 OFFSET ??_C@_0EL@PBEBEHIP@c?3?2users?2nhv90?2projects?2eech?2ap@
  000ff	68 00 00 00 00	 push	 OFFSET ??_C@_0DH@MBMPEFHK@get_road_link_breaks?5?$CIcurrent_n@
  00104	e8 00 00 00 00	 call	 ?process_assert@@YGXPBD0H@Z ; process_assert
$LN7@response_t:

; 455  : 	//////////////////////////////////////////////////////////////
; 456  : 
; 457  : 	allied_force = get_local_force_entity ((entity_sides) group_raw->side);

  00109	8b 45 fc	 mov	 eax, DWORD PTR _group_raw$[ebp]
  0010c	8b 88 8c 00 00
	00		 mov	 ecx, DWORD PTR [eax+140]
  00112	c1 e9 0a	 shr	 ecx, 10			; 0000000aH
  00115	83 e1 03	 and	 ecx, 3
  00118	51		 push	 ecx
  00119	e8 00 00 00 00	 call	 ?get_local_force_entity@@YGPAUENTITY@@W4ENTITY_SIDES@@@Z ; get_local_force_entity
  0011e	89 45 e4	 mov	 DWORD PTR _allied_force$[ebp], eax

; 458  : 
; 459  : 	#if DEBUG_MODULE
; 460  : 
; 461  : 	debug_log ("GP_MSGS: looking to advance from %d to %d group %d side %s", current_node, advance_node, receiver, entity_side_names [group_raw->side]);
; 462  : 
; 463  : 	#endif
; 464  : 
; 465  : 	//
; 466  : 	// Locate group at advance node (might not be one)
; 467  : 	//
; 468  : 
; 469  : 	group_occupying_node = get_group_at_road_node (advance_node);

  00121	8b 45 f0	 mov	 eax, DWORD PTR _advance_node$[ebp]
  00124	50		 push	 eax
  00125	e8 00 00 00 00	 call	 ?get_group_at_road_node@@YGPAUENTITY@@H@Z ; get_group_at_road_node
  0012a	89 45 e0	 mov	 DWORD PTR _group_occupying_node$[ebp], eax

; 470  : 
; 471  : 	//
; 472  : 	// Free and Reserve nodes ready for recursive calls
; 473  : 	//
; 474  : 	
; 475  : 	road_nodes [group_raw->route_node].side_occupying = ENTITY_SIDE_NEUTRAL;

  0012d	8b 45 fc	 mov	 eax, DWORD PTR _group_raw$[ebp]
  00130	8b 88 8c 00 00
	00		 mov	 ecx, DWORD PTR [eax+140]
  00136	81 e1 ff 03 00
	00		 and	 ecx, 1023		; 000003ffH
  0013c	6b d1 0c	 imul	 edx, ecx, 12
  0013f	a1 00 00 00 00	 mov	 eax, DWORD PTR ?road_nodes@@3PAUNODE_DATA@@A ; road_nodes
  00144	8b 4c 10 04	 mov	 ecx, DWORD PTR [eax+edx+4]
  00148	81 e1 ff 3f ff
	ff		 and	 ecx, -49153		; ffff3fffH
  0014e	8b 55 fc	 mov	 edx, DWORD PTR _group_raw$[ebp]
  00151	8b 82 8c 00 00
	00		 mov	 eax, DWORD PTR [edx+140]
  00157	25 ff 03 00 00	 and	 eax, 1023		; 000003ffH
  0015c	6b d0 0c	 imul	 edx, eax, 12
  0015f	a1 00 00 00 00	 mov	 eax, DWORD PTR ?road_nodes@@3PAUNODE_DATA@@A ; road_nodes
  00164	89 4c 10 04	 mov	 DWORD PTR [eax+edx+4], ecx

; 476  : 	
; 477  : 	road_nodes [advance_node].side_occupying = group_raw->side;

  00168	8b 45 fc	 mov	 eax, DWORD PTR _group_raw$[ebp]
  0016b	8b 88 8c 00 00
	00		 mov	 ecx, DWORD PTR [eax+140]
  00171	c1 e9 0a	 shr	 ecx, 10			; 0000000aH
  00174	83 e1 03	 and	 ecx, 3
  00177	6b 55 f0 0c	 imul	 edx, DWORD PTR _advance_node$[ebp], 12
  0017b	83 e1 03	 and	 ecx, 3
  0017e	c1 e1 0e	 shl	 ecx, 14			; 0000000eH
  00181	a1 00 00 00 00	 mov	 eax, DWORD PTR ?road_nodes@@3PAUNODE_DATA@@A ; road_nodes
  00186	8b 54 10 04	 mov	 edx, DWORD PTR [eax+edx+4]
  0018a	81 e2 ff 3f ff
	ff		 and	 edx, -49153		; ffff3fffH
  00190	0b d1		 or	 edx, ecx
  00192	6b 45 f0 0c	 imul	 eax, DWORD PTR _advance_node$[ebp], 12
  00196	8b 0d 00 00 00
	00		 mov	 ecx, DWORD PTR ?road_nodes@@3PAUNODE_DATA@@A ; road_nodes
  0019c	89 54 01 04	 mov	 DWORD PTR [ecx+eax+4], edx

; 478  : 	
; 479  : 	group_raw->route_node = advance_node;

  001a0	8b 45 f0	 mov	 eax, DWORD PTR _advance_node$[ebp]
  001a3	25 ff 03 00 00	 and	 eax, 1023		; 000003ffH
  001a8	8b 4d fc	 mov	 ecx, DWORD PTR _group_raw$[ebp]
  001ab	8b 91 8c 00 00
	00		 mov	 edx, DWORD PTR [ecx+140]
  001b1	81 e2 00 fc ff
	ff		 and	 edx, -1024		; fffffc00H
  001b7	0b d0		 or	 edx, eax
  001b9	8b 45 fc	 mov	 eax, DWORD PTR _group_raw$[ebp]
  001bc	89 90 8c 00 00
	00		 mov	 DWORD PTR [eax+140], edx

; 480  : 
; 481  : 	//
; 482  : 	// Tell group at node to retreat (if enemy, otherwise fail)
; 483  : 	//
; 484  : 
; 485  : 	if (group_occupying_node)

  001c2	83 7d e0 00	 cmp	 DWORD PTR _group_occupying_node$[ebp], 0
  001c6	0f 84 de 00 00
	00		 je	 $LN10@response_t

; 486  : 	{
; 487  : 
; 488  : 		if (get_local_entity_int_value (group_occupying_node, INT_TYPE_SIDE) == get_enemy_side (group_raw->side))

  001cc	83 7d e0 00	 cmp	 DWORD PTR _group_occupying_node$[ebp], 0
  001d0	74 0d		 je	 SHORT $LN27@response_t
  001d2	8b 45 e0	 mov	 eax, DWORD PTR _group_occupying_node$[ebp]
  001d5	8b 08		 mov	 ecx, DWORD PTR [eax]
  001d7	89 8d 7c ff ff
	ff		 mov	 DWORD PTR tv173[ebp], ecx
  001dd	eb 20		 jmp	 SHORT $LN28@response_t
$LN27@response_t:
  001df	68 e8 01 00 00	 push	 488			; 000001e8H
  001e4	68 00 00 00 00	 push	 OFFSET ??_C@_0EL@PBEBEHIP@c?3?2users?2nhv90?2projects?2eech?2ap@
  001e9	8b 15 00 00 00
	00		 mov	 edx, DWORD PTR ?null_entity_pointer_message@@3PBDB ; null_entity_pointer_message
  001ef	52		 push	 edx
  001f0	e8 00 00 00 00	 call	 ?process_assert@@YGXPBD0H@Z ; process_assert
  001f5	c7 85 7c ff ff
	ff 00 00 00 00	 mov	 DWORD PTR tv173[ebp], 0
$LN28@response_t:
  001ff	b8 01 00 00 00	 mov	 eax, 1
  00204	85 c0		 test	 eax, eax
  00206	74 0c		 je	 SHORT $LN29@response_t
  00208	c7 85 78 ff ff
	ff bb 00 00 00	 mov	 DWORD PTR tv180[ebp], 187 ; 000000bbH
  00212	eb 20		 jmp	 SHORT $LN30@response_t
$LN29@response_t:
  00214	68 e8 01 00 00	 push	 488			; 000001e8H
  00219	68 00 00 00 00	 push	 OFFSET ??_C@_0EL@PBEBEHIP@c?3?2users?2nhv90?2projects?2eech?2ap@
  0021e	8b 0d 00 00 00
	00		 mov	 ecx, DWORD PTR ?overload_invalid_int_type_message@@3PBDB ; overload_invalid_int_type_message
  00224	51		 push	 ecx
  00225	e8 00 00 00 00	 call	 ?process_assert@@YGXPBD0H@Z ; process_assert
  0022a	c7 85 78 ff ff
	ff 00 00 00 00	 mov	 DWORD PTR tv180[ebp], 0
$LN30@response_t:
  00234	8b 55 fc	 mov	 edx, DWORD PTR _group_raw$[ebp]
  00237	8b 82 8c 00 00
	00		 mov	 eax, DWORD PTR [edx+140]
  0023d	c1 e8 0a	 shr	 eax, 10			; 0000000aH
  00240	83 e0 03	 and	 eax, 3
  00243	83 f8 01	 cmp	 eax, 1
  00246	75 0c		 jne	 SHORT $LN31@response_t
  00248	c7 85 74 ff ff
	ff 02 00 00 00	 mov	 DWORD PTR tv190[ebp], 2
  00252	eb 0a		 jmp	 SHORT $LN32@response_t
$LN31@response_t:
  00254	c7 85 74 ff ff
	ff 01 00 00 00	 mov	 DWORD PTR tv190[ebp], 1
$LN32@response_t:
  0025e	68 bb 00 00 00	 push	 187			; 000000bbH
  00263	8b 4d e0	 mov	 ecx, DWORD PTR _group_occupying_node$[ebp]
  00266	51		 push	 ecx
  00267	69 95 7c ff ff
	ff 5c 04 00 00	 imul	 edx, DWORD PTR tv173[ebp], 1116
  00271	8b 85 78 ff ff
	ff		 mov	 eax, DWORD PTR tv180[ebp]
  00277	8b 8c 82 00 00
	00 00		 mov	 ecx, DWORD PTR ?fn_get_local_entity_int_value@@3PAY0BBH@P6GHPAUENTITY@@W4INT_TYPES@@@ZA[edx+eax*4]
  0027e	ff d1		 call	 ecx
  00280	3b 85 74 ff ff
	ff		 cmp	 eax, DWORD PTR tv190[ebp]
  00286	75 1b		 jne	 SHORT $LN9@response_t

; 489  : 		{
; 490  : 
; 491  : 			#if DEBUG_MODULE
; 492  : 
; 493  : 			debug_log ("GP_MSGS: telling group %d side %s at node %d to retreat", group_occupying_node, entity_side_names [get_local_entity_int_value (group_occupying_node, INT_TYPE_SIDE)], advance_node);
; 494  : 
; 495  : 			#endif
; 496  : 
; 497  : 			success_flag = notify_local_entity (ENTITY_MESSAGE_GROUND_FORCE_RETREAT, group_occupying_node, receiver, current_node);

  00288	8b 45 f4	 mov	 eax, DWORD PTR _current_node$[ebp]
  0028b	50		 push	 eax
  0028c	8b 4d 0c	 mov	 ecx, DWORD PTR _receiver$[ebp]
  0028f	51		 push	 ecx
  00290	8b 55 e0	 mov	 edx, DWORD PTR _group_occupying_node$[ebp]
  00293	52		 push	 edx
  00294	6a 1e		 push	 30			; 0000001eH
  00296	e8 00 00 00 00	 call	 ?notify_local_entity@@YAHW4ENTITY_MESSAGES@@PAUENTITY@@1ZZ ; notify_local_entity
  0029b	83 c4 10	 add	 esp, 16			; 00000010H
  0029e	89 45 ec	 mov	 DWORD PTR _success_flag$[ebp], eax

; 498  : 		}
; 499  : 		else

  002a1	eb 07		 jmp	 SHORT $LN10@response_t
$LN9@response_t:

; 500  : 		{
; 501  : 
; 502  : 			#if DEBUG_MODULE
; 503  : 
; 504  : 			debug_log ("GP_MSGS: aborting group %d advance from %d because enemy (allied group?) can't retreat from %d", receiver, current_node, group_occupying_node);
; 505  : 
; 506  : 			#endif
; 507  : 
; 508  : 			success_flag = FALSE;

  002a3	c7 45 ec 00 00
	00 00		 mov	 DWORD PTR _success_flag$[ebp], 0
$LN10@response_t:

; 509  : 		}
; 510  : 	}
; 511  : 
; 512  : 	//
; 513  : 	// Create advance task if retreat was successful
; 514  : 	//
; 515  : 
; 516  : 	if (success_flag)

  002aa	83 7d ec 00	 cmp	 DWORD PTR _success_flag$[ebp], 0
  002ae	0f 84 27 03 00
	00		 je	 $LN11@response_t

; 517  : 	{
; 518  : 
; 519  : 		entity
; 520  : 			*new_task;
; 521  : 
; 522  : 		#if DEBUG_MODULE
; 523  : 
; 524  : 		if (get_local_entity_parent (receiver, LIST_TYPE_KEYSITE_GROUP))
; 525  : 		{
; 526  : 
; 527  : 			if (get_local_entity_type (get_local_entity_parent (receiver, LIST_TYPE_KEYSITE_GROUP)) == ENTITY_TYPE_KEYSITE)
; 528  : 			{
; 529  : 
; 530  : 				debug_log ("GP_MSGS: regen'd group taking off");
; 531  : 			}
; 532  : 		}
; 533  : 
; 534  : 		#endif
; 535  : 
; 536  : 		new_task = create_ground_force_task (ENTITY_SUB_TYPE_TASK_ADVANCE, receiver, current_node, advance_node, task_database [ENTITY_SUB_TYPE_TASK_ADVANCE].task_priority, NULL, NULL);

  002b4	6a 00		 push	 0
  002b6	6a 00		 push	 0
  002b8	b8 50 00 00 00	 mov	 eax, 80			; 00000050H
  002bd	c1 e0 00	 shl	 eax, 0
  002c0	51		 push	 ecx
  002c1	f3 0f 10 80 10
	00 00 00	 movss	 xmm0, DWORD PTR ?task_database@@3PAUTASK_DATA@@A[eax+16]
  002c9	f3 0f 11 04 24	 movss	 DWORD PTR [esp], xmm0
  002ce	8b 4d f0	 mov	 ecx, DWORD PTR _advance_node$[ebp]
  002d1	51		 push	 ecx
  002d2	8b 55 f4	 mov	 edx, DWORD PTR _current_node$[ebp]
  002d5	52		 push	 edx
  002d6	8b 45 0c	 mov	 eax, DWORD PTR _receiver$[ebp]
  002d9	50		 push	 eax
  002da	6a 01		 push	 1
  002dc	e8 00 00 00 00	 call	 ?create_ground_force_task@@YGPAUENTITY@@HPAU1@HHM00@Z ; create_ground_force_task
  002e1	89 45 d8	 mov	 DWORD PTR _new_task$7[ebp], eax

; 537  : 
; 538  : 		if (new_task)

  002e4	83 7d d8 00	 cmp	 DWORD PTR _new_task$7[ebp], 0
  002e8	0f 84 e8 02 00
	00		 je	 $LN3@response_t

; 539  : 		{
; 540  : 
; 541  : 			#if DEBUG_MODULE
; 542  : 
; 543  : 			debug_log ("GP_MSGS: creating advance task for group %d, side %s to node %d", receiver, entity_side_names [group_raw->side], advance_node);
; 544  : 
; 545  : 			#endif
; 546  : 		
; 547  : 			if (!assign_primary_task_to_group (receiver, new_task))

  002ee	8b 45 d8	 mov	 eax, DWORD PTR _new_task$7[ebp]
  002f1	50		 push	 eax
  002f2	8b 4d 0c	 mov	 ecx, DWORD PTR _receiver$[ebp]
  002f5	51		 push	 ecx
  002f6	e8 00 00 00 00	 call	 ?assign_primary_task_to_group@@YGHPAUENTITY@@0@Z ; assign_primary_task_to_group
  002fb	85 c0		 test	 eax, eax
  002fd	75 62		 jne	 SHORT $LN14@response_t

; 548  : 			{
; 549  : 
; 550  : 				destroy_local_entity_family (new_task);

  002ff	83 7d d8 00	 cmp	 DWORD PTR _new_task$7[ebp], 0
  00303	74 0d		 je	 SHORT $LN33@response_t
  00305	8b 45 d8	 mov	 eax, DWORD PTR _new_task$7[ebp]
  00308	8b 08		 mov	 ecx, DWORD PTR [eax]
  0030a	89 8d 7c ff ff
	ff		 mov	 DWORD PTR tv220[ebp], ecx
  00310	eb 27		 jmp	 SHORT $LN34@response_t
$LN33@response_t:
  00312	8b 15 00 00 00
	00		 mov	 edx, DWORD PTR ?__LINE__Var@?0??response_to_ground_force_advance@@YGHW4ENTITY_MESSAGES@@PAUENTITY@@1PAD@Z@4JA
  00318	81 c2 8a 00 00
	00		 add	 edx, 138		; 0000008aH
  0031e	52		 push	 edx
  0031f	68 00 00 00 00	 push	 OFFSET ??_C@_0EL@PBEBEHIP@c?3?2users?2nhv90?2projects?2eech?2ap@
  00324	a1 00 00 00 00	 mov	 eax, DWORD PTR ?null_entity_pointer_message@@3PBDB ; null_entity_pointer_message
  00329	50		 push	 eax
  0032a	e8 00 00 00 00	 call	 ?process_assert@@YGXPBD0H@Z ; process_assert
  0032f	c7 85 7c ff ff
	ff 00 00 00 00	 mov	 DWORD PTR tv220[ebp], 0
$LN34@response_t:
  00339	8b 4d d8	 mov	 ecx, DWORD PTR _new_task$7[ebp]
  0033c	51		 push	 ecx
  0033d	8b 95 7c ff ff
	ff		 mov	 edx, DWORD PTR tv220[ebp]
  00343	8b 04 95 00 00
	00 00		 mov	 eax, DWORD PTR ?fn_destroy_local_entity_family@@3PAP6GXPAUENTITY@@@ZA[edx*4]
  0034a	ff d0		 call	 eax

; 551  : 
; 552  : 				transmit_entity_comms_message (ENTITY_COMMS_DESTROY_LOCAL_FAMILY, new_task);

  0034c	8b 45 d8	 mov	 eax, DWORD PTR _new_task$7[ebp]
  0034f	50		 push	 eax
  00350	6a 14		 push	 20			; 00000014H
  00352	e8 00 00 00 00	 call	 ?transmit_entity_comms_message@@YAXW4ENTITY_COMMS_MESSAGES@@PAUENTITY@@ZZ ; transmit_entity_comms_message
  00357	83 c4 08	 add	 esp, 8

; 553  : 
; 554  : 				return FALSE;

  0035a	33 c0		 xor	 eax, eax
  0035c	e9 45 03 00 00	 jmp	 $LN1@response_t
$LN14@response_t:

; 555  : 			}
; 556  : 
; 557  : 			/////////////////////////////////////////////////////////////////
; 558  : 			//
; 559  : 			// SPECIAL_EFFECT_HOOK FOR FRONTLINE ADVANCING
; 560  : 			//
; 561  : 			/////////////////////////////////////////////////////////////////
; 562  : 
; 563  : 			{
; 564  : 				// PLAY_SPEECH (GC)
; 565  : 				//
; 566  : 				// [GC Introduction],
; 567  : 				// We are advancing
; 568  : 
; 569  : 				pos = &road_node_positions [advance_node];

  00361	6b 45 f0 0c	 imul	 eax, DWORD PTR _advance_node$[ebp], 12
  00365	03 05 00 00 00
	00		 add	 eax, DWORD PTR ?road_node_positions@@3PAUVEC3D@@A ; road_node_positions
  0036b	89 45 dc	 mov	 DWORD PTR _pos$[ebp], eax

; 570  : 
; 571  : 				ASSERT (pos);

  0036e	75 1a		 jne	 SHORT $LN15@response_t
  00370	a1 00 00 00 00	 mov	 eax, DWORD PTR ?__LINE__Var@?0??response_to_ground_force_advance@@YGHW4ENTITY_MESSAGES@@PAUENTITY@@1PAD@Z@4JA
  00375	05 9f 00 00 00	 add	 eax, 159		; 0000009fH
  0037a	50		 push	 eax
  0037b	68 00 00 00 00	 push	 OFFSET ??_C@_0EL@PBEBEHIP@c?3?2users?2nhv90?2projects?2eech?2ap@
  00380	68 00 00 00 00	 push	 OFFSET ??_C@_03PCBNCGFH@pos@
  00385	e8 00 00 00 00	 call	 ?process_assert@@YGXPBD0H@Z ; process_assert
$LN15@response_t:

; 572  : 
; 573  : 				get_speech_sector_coordinates (pos);

  0038a	8b 45 dc	 mov	 eax, DWORD PTR _pos$[ebp]
  0038d	50		 push	 eax
  0038e	e8 00 00 00 00	 call	 ?get_speech_sector_coordinates@@YGPAHPAUVEC3D@@@Z ; get_speech_sector_coordinates

; 574  : 
; 575  : 				play_client_server_speech

  00393	6a ff		 push	 -1
  00395	b8 04 00 00 00	 mov	 eax, 4
  0039a	6b c8 05	 imul	 ecx, eax, 5
  0039d	8b 91 00 00 00
	00		 mov	 edx, DWORD PTR ?speech_sector_coordinates@@3PAHA[ecx]
  003a3	52		 push	 edx
  003a4	6a 00		 push	 0
  003a6	b8 04 00 00 00	 mov	 eax, 4
  003ab	c1 e0 02	 shl	 eax, 2
  003ae	8b 88 00 00 00
	00		 mov	 ecx, DWORD PTR ?speech_sector_coordinates@@3PAHA[eax]
  003b4	51		 push	 ecx
  003b5	6a 00		 push	 0
  003b7	ba 04 00 00 00	 mov	 edx, 4
  003bc	6b c2 03	 imul	 eax, edx, 3
  003bf	8b 88 00 00 00
	00		 mov	 ecx, DWORD PTR ?speech_sector_coordinates@@3PAHA[eax]
  003c5	51		 push	 ecx
  003c6	6a 00		 push	 0
  003c8	ba 04 00 00 00	 mov	 edx, 4
  003cd	d1 e2		 shl	 edx, 1
  003cf	8b 82 00 00 00
	00		 mov	 eax, DWORD PTR ?speech_sector_coordinates@@3PAHA[edx]
  003d5	50		 push	 eax
  003d6	6a 00		 push	 0
  003d8	b9 04 00 00 00	 mov	 ecx, 4
  003dd	c1 e1 00	 shl	 ecx, 0
  003e0	8b 91 00 00 00
	00		 mov	 edx, DWORD PTR ?speech_sector_coordinates@@3PAHA[ecx]
  003e6	52		 push	 edx
  003e7	6a 00		 push	 0
  003e9	b8 04 00 00 00	 mov	 eax, 4
  003ee	6b c8 00	 imul	 ecx, eax, 0
  003f1	8b 91 00 00 00
	00		 mov	 edx, DWORD PTR ?speech_sector_coordinates@@3PAHA[ecx]
  003f7	52		 push	 edx
  003f8	6a 00		 push	 0
  003fa	6a 07		 push	 7
  003fc	6a 05		 push	 5
  003fe	6a 00		 push	 0
  00400	6a 05		 push	 5
  00402	51		 push	 ecx
  00403	f3 0f 10 05 00
	00 00 00	 movss	 xmm0, DWORD PTR __real@43340000
  0040b	f3 0f 11 04 24	 movss	 DWORD PTR [esp], xmm0
  00410	6a 0b		 push	 11			; 0000000bH
  00412	6a 06		 push	 6
  00414	51		 push	 ecx
  00415	f3 0f 10 05 00
	00 00 00	 movss	 xmm0, DWORD PTR __real@41a00000
  0041d	f3 0f 11 04 24	 movss	 DWORD PTR [esp], xmm0
  00422	51		 push	 ecx
  00423	f3 0f 10 05 00
	00 00 00	 movss	 xmm0, DWORD PTR __real@3e99999a
  0042b	f3 0f 11 04 24	 movss	 DWORD PTR [esp], xmm0
  00430	51		 push	 ecx
  00431	0f 57 c0	 xorps	 xmm0, xmm0
  00434	f3 0f 11 04 24	 movss	 DWORD PTR [esp], xmm0
  00439	6a 00		 push	 0
  0043b	6a 1e		 push	 30			; 0000001eH
  0043d	8b 45 fc	 mov	 eax, DWORD PTR _group_raw$[ebp]
  00440	8b 88 8c 00 00
	00		 mov	 ecx, DWORD PTR [eax+140]
  00446	c1 e9 0a	 shr	 ecx, 10			; 0000000aH
  00449	83 e1 03	 and	 ecx, 3
  0044c	51		 push	 ecx
  0044d	8b 55 0c	 mov	 edx, DWORD PTR _receiver$[ebp]
  00450	52		 push	 edx
  00451	a1 00 00 00 00	 mov	 eax, DWORD PTR ?session_entity@@3PAUENTITY@@A ; session_entity
  00456	50		 push	 eax
  00457	e8 00 00 00 00	 call	 ?play_client_server_speech@@YAHPAUENTITY@@0W4ENTITY_SIDES@@HW4SOUND_LOCALITY_TYPES@@MMMW4speech_originator_types@@W4speech_category_types@@MZZ ; play_client_server_speech
  0045c	83 c4 70	 add	 esp, 112		; 00000070H

; 576  : 				(
; 577  : 					get_session_entity (),
; 578  : 					receiver,
; 579  : 					(entity_sides) group_raw->side,
; 580  : 					ENTITY_SUB_TYPE_EFFECT_SOUND_RADIO_MESSAGE,
; 581  : 					SOUND_LOCALITY_RADIO,
; 582  : 					0.0,
; 583  : 					0.3,
; 584  : 					20.0,
; 585  : 					SPEECH_ORIGINATOR_GROUND_CONTROLLER,
; 586  : 					SPEECH_CATEGORY_MOVING,
; 587  : 					180.0,
; 588  : 					SPEECH_ARRAY_GC_MESSAGES, SPEECH_GC_INTRODUCTION,
; 589  : 					SPEECH_ARRAY_GC_MESSAGES, SPEECH_GC_ADVANCING_TO,
; 590  : 					SPEECH_ARRAY_NUMBERS, speech_sector_coordinates [0],
; 591  : 					SPEECH_ARRAY_NUMBERS, speech_sector_coordinates [1],
; 592  : 					SPEECH_ARRAY_NUMBERS, speech_sector_coordinates [2],
; 593  : 					SPEECH_ARRAY_NUMBERS, speech_sector_coordinates [3],
; 594  : 					SPEECH_ARRAY_NUMBERS, speech_sector_coordinates [4],
; 595  : 					SPEECH_ARRAY_NUMBERS, speech_sector_coordinates [5],
; 596  : 					-1
; 597  : 				);
; 598  : 			}
; 599  : 
; 600  : 			/////////////////////////////////////////////////////////////////
; 601  : 			//
; 602  : 			//
; 603  : 			/////////////////////////////////////////////////////////////////
; 604  : 	
; 605  : 			//
; 606  : 			// notify force that armour is advancing
; 607  : 			//
; 608  : 
; 609  : 			notify_local_entity (ENTITY_MESSAGE_FORCE_ARMOUR_ADVANCING, allied_force, receiver, group_occupying_node);

  0045f	8b 45 e0	 mov	 eax, DWORD PTR _group_occupying_node$[ebp]
  00462	50		 push	 eax
  00463	8b 4d 0c	 mov	 ecx, DWORD PTR _receiver$[ebp]
  00466	51		 push	 ecx
  00467	8b 55 e4	 mov	 edx, DWORD PTR _allied_force$[ebp]
  0046a	52		 push	 edx
  0046b	6a 11		 push	 17			; 00000011H
  0046d	e8 00 00 00 00	 call	 ?notify_local_entity@@YAHW4ENTITY_MESSAGES@@PAUENTITY@@1ZZ ; notify_local_entity
  00472	83 c4 10	 add	 esp, 16			; 00000010H

; 610  : 	
; 611  : 			//
; 612  : 			// Check for supporting forces and bring them along
; 613  : 			//
; 614  : 
; 615  : 			for (loop = 0; loop < road_nodes [current_node].number_of_links; loop ++)

  00475	c7 45 f8 00 00
	00 00		 mov	 DWORD PTR _loop$[ebp], 0
  0047c	eb 09		 jmp	 SHORT $LN4@response_t
$LN2@response_t:
  0047e	8b 45 f8	 mov	 eax, DWORD PTR _loop$[ebp]
  00481	83 c0 01	 add	 eax, 1
  00484	89 45 f8	 mov	 DWORD PTR _loop$[ebp], eax
$LN4@response_t:
  00487	6b 45 f4 0c	 imul	 eax, DWORD PTR _current_node$[ebp], 12
  0048b	8b 0d 00 00 00
	00		 mov	 ecx, DWORD PTR ?road_nodes@@3PAUNODE_DATA@@A ; road_nodes
  00491	8b 54 01 04	 mov	 edx, DWORD PTR [ecx+eax+4]
  00495	83 e2 7f	 and	 edx, 127		; 0000007fH
  00498	39 55 f8	 cmp	 DWORD PTR _loop$[ebp], edx
  0049b	0f 83 35 01 00
	00		 jae	 $LN3@response_t

; 616  : 			{
; 617  : 
; 618  : 				#if DEBUG_MODULE
; 619  : 
; 620  : 				debug_log ("GP_MSGS: looking for support group to node %d", current_node);
; 621  : 
; 622  : 				#endif
; 623  : 
; 624  : 				if (road_nodes [road_nodes [current_node].links [loop].node].side_occupying == group_raw->side)

  004a1	6b 45 f4 0c	 imul	 eax, DWORD PTR _current_node$[ebp], 12
  004a5	8b 0d 00 00 00
	00		 mov	 ecx, DWORD PTR ?road_nodes@@3PAUNODE_DATA@@A ; road_nodes
  004ab	8b 54 01 08	 mov	 edx, DWORD PTR [ecx+eax+8]
  004af	b8 ff 3f 00 00	 mov	 eax, 16383		; 00003fffH
  004b4	8b 4d f8	 mov	 ecx, DWORD PTR _loop$[ebp]
  004b7	66 23 44 ca 04	 and	 ax, WORD PTR [edx+ecx*8+4]
  004bc	0f b7 d0	 movzx	 edx, ax
  004bf	6b c2 0c	 imul	 eax, edx, 12
  004c2	8b 0d 00 00 00
	00		 mov	 ecx, DWORD PTR ?road_nodes@@3PAUNODE_DATA@@A ; road_nodes
  004c8	8b 54 01 04	 mov	 edx, DWORD PTR [ecx+eax+4]
  004cc	c1 ea 0e	 shr	 edx, 14			; 0000000eH
  004cf	83 e2 03	 and	 edx, 3
  004d2	8b 45 fc	 mov	 eax, DWORD PTR _group_raw$[ebp]
  004d5	8b 88 8c 00 00
	00		 mov	 ecx, DWORD PTR [eax+140]
  004db	c1 e9 0a	 shr	 ecx, 10			; 0000000aH
  004de	83 e1 03	 and	 ecx, 3
  004e1	3b d1		 cmp	 edx, ecx
  004e3	0f 85 e8 00 00
	00		 jne	 $LN19@response_t

; 625  : 				{
; 626  : 
; 627  : 					if (get_road_link_breaks (road_nodes [current_node].links [loop].node, current_node) == 0)

  004e9	8b 45 f4	 mov	 eax, DWORD PTR _current_node$[ebp]
  004ec	50		 push	 eax
  004ed	6b 4d f4 0c	 imul	 ecx, DWORD PTR _current_node$[ebp], 12
  004f1	8b 15 00 00 00
	00		 mov	 edx, DWORD PTR ?road_nodes@@3PAUNODE_DATA@@A ; road_nodes
  004f7	8b 44 0a 08	 mov	 eax, DWORD PTR [edx+ecx+8]
  004fb	b9 ff 3f 00 00	 mov	 ecx, 16383		; 00003fffH
  00500	8b 55 f8	 mov	 edx, DWORD PTR _loop$[ebp]
  00503	66 23 4c d0 04	 and	 cx, WORD PTR [eax+edx*8+4]
  00508	0f b7 c1	 movzx	 eax, cx
  0050b	50		 push	 eax
  0050c	e8 00 00 00 00	 call	 ?get_road_link_breaks@@YGHHH@Z ; get_road_link_breaks
  00511	85 c0		 test	 eax, eax
  00513	0f 85 b8 00 00
	00		 jne	 $LN19@response_t

; 628  : 					{
; 629  : 	
; 630  : 						entity
; 631  : 							*advancing_sector,
; 632  : 							*supporting_sector;
; 633  : 	
; 634  : 						sector
; 635  : 							*advancing_sector_raw,
; 636  : 							*supporting_sector_raw;
; 637  : 	
; 638  : 						int
; 639  : 							advancing_warmth,
; 640  : 							supporting_warmth;
; 641  : 				
; 642  : 						advancing_sector = get_local_sector_entity (&road_node_positions [current_node]);

  00519	6b 45 f4 0c	 imul	 eax, DWORD PTR _current_node$[ebp], 12
  0051d	03 05 00 00 00
	00		 add	 eax, DWORD PTR ?road_node_positions@@3PAUVEC3D@@A ; road_node_positions
  00523	50		 push	 eax
  00524	e8 00 00 00 00	 call	 ?get_local_sector_entity@@YGPAUENTITY@@PAUVEC3D@@@Z ; get_local_sector_entity
  00529	89 45 d4	 mov	 DWORD PTR _advancing_sector$6[ebp], eax

; 643  : 						advancing_sector_raw = (sector *) get_local_entity_data (advancing_sector);

  0052c	8b 45 d4	 mov	 eax, DWORD PTR _advancing_sector$6[ebp]
  0052f	8b 48 04	 mov	 ecx, DWORD PTR [eax+4]
  00532	89 4d cc	 mov	 DWORD PTR _advancing_sector_raw$4[ebp], ecx

; 644  : //						advancing_warmth = advancing_sector_raw->side_ground_warmth [group_raw->side];
; 645  : 						advancing_warmth = 1.0;

  00535	c7 45 c4 01 00
	00 00		 mov	 DWORD PTR _advancing_warmth$2[ebp], 1

; 646  : 				
; 647  : 						supporting_sector = get_local_sector_entity (&road_node_positions [road_nodes [current_node].links [loop].node]);

  0053c	6b 45 f4 0c	 imul	 eax, DWORD PTR _current_node$[ebp], 12
  00540	8b 0d 00 00 00
	00		 mov	 ecx, DWORD PTR ?road_nodes@@3PAUNODE_DATA@@A ; road_nodes
  00546	8b 54 01 08	 mov	 edx, DWORD PTR [ecx+eax+8]
  0054a	b8 ff 3f 00 00	 mov	 eax, 16383		; 00003fffH
  0054f	8b 4d f8	 mov	 ecx, DWORD PTR _loop$[ebp]
  00552	66 23 44 ca 04	 and	 ax, WORD PTR [edx+ecx*8+4]
  00557	0f b7 d0	 movzx	 edx, ax
  0055a	6b c2 0c	 imul	 eax, edx, 12
  0055d	03 05 00 00 00
	00		 add	 eax, DWORD PTR ?road_node_positions@@3PAUVEC3D@@A ; road_node_positions
  00563	50		 push	 eax
  00564	e8 00 00 00 00	 call	 ?get_local_sector_entity@@YGPAUENTITY@@PAUVEC3D@@@Z ; get_local_sector_entity
  00569	89 45 d0	 mov	 DWORD PTR _supporting_sector$5[ebp], eax

; 648  : 						supporting_sector_raw = (sector *) get_local_entity_data (supporting_sector);

  0056c	8b 45 d0	 mov	 eax, DWORD PTR _supporting_sector$5[ebp]
  0056f	8b 48 04	 mov	 ecx, DWORD PTR [eax+4]
  00572	89 4d c8	 mov	 DWORD PTR _supporting_sector_raw$3[ebp], ecx

; 649  : //						supporting_warmth = supporting_sector_raw->side_ground_warmth [group_raw->side];
; 650  : 						supporting_warmth = 0.0; 

  00575	c7 45 c0 00 00
	00 00		 mov	 DWORD PTR _supporting_warmth$1[ebp], 0

; 651  : 	
; 652  : 						if (supporting_warmth <= advancing_warmth)

  0057c	8b 45 c0	 mov	 eax, DWORD PTR _supporting_warmth$1[ebp]
  0057f	3b 45 c4	 cmp	 eax, DWORD PTR _advancing_warmth$2[ebp]
  00582	7f 4d		 jg	 SHORT $LN19@response_t

; 653  : 						{
; 654  : 		
; 655  : 							//
; 656  : 							// found node now find group
; 657  : 							//
; 658  : 		
; 659  : 							#if DEBUG_MODULE
; 660  : 		
; 661  : 							debug_log ("GP_MSGS: found support group at node %d (warmth advancing %d, supporting %d)", road_nodes [current_node].links [loop].node, advancing_warmth, supporting_warmth);
; 662  : 		
; 663  : 							#endif
; 664  : 	
; 665  : 							group = get_group_at_road_node (road_nodes [current_node].links [loop].node);

  00584	6b 45 f4 0c	 imul	 eax, DWORD PTR _current_node$[ebp], 12
  00588	8b 0d 00 00 00
	00		 mov	 ecx, DWORD PTR ?road_nodes@@3PAUNODE_DATA@@A ; road_nodes
  0058e	8b 54 01 08	 mov	 edx, DWORD PTR [ecx+eax+8]
  00592	b8 ff 3f 00 00	 mov	 eax, 16383		; 00003fffH
  00597	8b 4d f8	 mov	 ecx, DWORD PTR _loop$[ebp]
  0059a	66 23 44 ca 04	 and	 ax, WORD PTR [edx+ecx*8+4]
  0059f	0f b7 d0	 movzx	 edx, ax
  005a2	52		 push	 edx
  005a3	e8 00 00 00 00	 call	 ?get_group_at_road_node@@YGPAUENTITY@@H@Z ; get_group_at_road_node
  005a8	89 45 e8	 mov	 DWORD PTR _group$[ebp], eax

; 666  : 		
; 667  : 							if (group)

  005ab	83 7d e8 00	 cmp	 DWORD PTR _group$[ebp], 0
  005af	74 20		 je	 SHORT $LN19@response_t

; 668  : 							{
; 669  : 		
; 670  : 								notify_local_entity (ENTITY_MESSAGE_GROUND_FORCE_ADVANCE, group, receiver, current_node);

  005b1	8b 45 f4	 mov	 eax, DWORD PTR _current_node$[ebp]
  005b4	50		 push	 eax
  005b5	8b 4d 0c	 mov	 ecx, DWORD PTR _receiver$[ebp]
  005b8	51		 push	 ecx
  005b9	8b 55 e8	 mov	 edx, DWORD PTR _group$[ebp]
  005bc	52		 push	 edx
  005bd	6a 1d		 push	 29			; 0000001dH
  005bf	e8 00 00 00 00	 call	 ?notify_local_entity@@YAHW4ENTITY_MESSAGES@@PAUENTITY@@1ZZ ; notify_local_entity
  005c4	83 c4 10	 add	 esp, 16			; 00000010H

; 671  : 		
; 672  : 								#if DEBUG_MODULE
; 673  : 		
; 674  : 								debug_log ("GP_MSGS: notifying support group %d to advance to node %d", group, current_node);
; 675  : 		
; 676  : 								#endif
; 677  : 		
; 678  : 								return TRUE;

  005c7	b8 01 00 00 00	 mov	 eax, 1
  005cc	e9 d5 00 00 00	 jmp	 $LN1@response_t
$LN19@response_t:

; 679  : 							}
; 680  : 						}
; 681  : 					}
; 682  : 				}
; 683  : 			}

  005d1	e9 a8 fe ff ff	 jmp	 $LN2@response_t
$LN3@response_t:

; 684  : 		}
; 685  : 	}
; 686  : 	else

  005d6	e9 c8 00 00 00	 jmp	 $LN21@response_t
$LN11@response_t:

; 687  : 	{
; 688  : 
; 689  : 		//
; 690  : 		// Unreserve nodes since group isn't advancing
; 691  : 		//
; 692  : 	
; 693  : 		ASSERT (road_nodes [current_node].side_occupying == ENTITY_SIDE_NEUTRAL);

  005db	6b 45 f4 0c	 imul	 eax, DWORD PTR _current_node$[ebp], 12
  005df	8b 0d 00 00 00
	00		 mov	 ecx, DWORD PTR ?road_nodes@@3PAUNODE_DATA@@A ; road_nodes
  005e5	8b 54 01 04	 mov	 edx, DWORD PTR [ecx+eax+4]
  005e9	c1 ea 0e	 shr	 edx, 14			; 0000000eH
  005ec	83 e2 03	 and	 edx, 3
  005ef	74 1a		 je	 SHORT $LN20@response_t
  005f1	a1 00 00 00 00	 mov	 eax, DWORD PTR ?__LINE__Var@?0??response_to_ground_force_advance@@YGHW4ENTITY_MESSAGES@@PAUENTITY@@1PAD@Z@4JA
  005f6	05 19 01 00 00	 add	 eax, 281		; 00000119H
  005fb	50		 push	 eax
  005fc	68 00 00 00 00	 push	 OFFSET ??_C@_0EL@PBEBEHIP@c?3?2users?2nhv90?2projects?2eech?2ap@
  00601	68 00 00 00 00	 push	 OFFSET ??_C@_0EA@DMFGJKJI@road_nodes?5?$FLcurrent_node?$FN?4side_@
  00606	e8 00 00 00 00	 call	 ?process_assert@@YGXPBD0H@Z ; process_assert
$LN20@response_t:

; 694  : 	
; 695  : 		road_nodes [current_node].side_occupying = group_raw->side;

  0060b	8b 45 fc	 mov	 eax, DWORD PTR _group_raw$[ebp]
  0060e	8b 88 8c 00 00
	00		 mov	 ecx, DWORD PTR [eax+140]
  00614	c1 e9 0a	 shr	 ecx, 10			; 0000000aH
  00617	83 e1 03	 and	 ecx, 3
  0061a	6b 55 f4 0c	 imul	 edx, DWORD PTR _current_node$[ebp], 12
  0061e	83 e1 03	 and	 ecx, 3
  00621	c1 e1 0e	 shl	 ecx, 14			; 0000000eH
  00624	a1 00 00 00 00	 mov	 eax, DWORD PTR ?road_nodes@@3PAUNODE_DATA@@A ; road_nodes
  00629	8b 54 10 04	 mov	 edx, DWORD PTR [eax+edx+4]
  0062d	81 e2 ff 3f ff
	ff		 and	 edx, -49153		; ffff3fffH
  00633	0b d1		 or	 edx, ecx
  00635	6b 45 f4 0c	 imul	 eax, DWORD PTR _current_node$[ebp], 12
  00639	8b 0d 00 00 00
	00		 mov	 ecx, DWORD PTR ?road_nodes@@3PAUNODE_DATA@@A ; road_nodes
  0063f	89 54 01 04	 mov	 DWORD PTR [ecx+eax+4], edx

; 696  : 		
; 697  : 		road_nodes [advance_node].side_occupying = ENTITY_SIDE_NEUTRAL;

  00643	6b 45 f0 0c	 imul	 eax, DWORD PTR _advance_node$[ebp], 12
  00647	8b 0d 00 00 00
	00		 mov	 ecx, DWORD PTR ?road_nodes@@3PAUNODE_DATA@@A ; road_nodes
  0064d	8b 54 01 04	 mov	 edx, DWORD PTR [ecx+eax+4]
  00651	81 e2 ff 3f ff
	ff		 and	 edx, -49153		; ffff3fffH
  00657	6b 45 f0 0c	 imul	 eax, DWORD PTR _advance_node$[ebp], 12
  0065b	8b 0d 00 00 00
	00		 mov	 ecx, DWORD PTR ?road_nodes@@3PAUNODE_DATA@@A ; road_nodes
  00661	89 54 01 04	 mov	 DWORD PTR [ecx+eax+4], edx

; 698  : 
; 699  : 		group_raw->route_node = current_node;

  00665	8b 45 f4	 mov	 eax, DWORD PTR _current_node$[ebp]
  00668	25 ff 03 00 00	 and	 eax, 1023		; 000003ffH
  0066d	8b 4d fc	 mov	 ecx, DWORD PTR _group_raw$[ebp]
  00670	8b 91 8c 00 00
	00		 mov	 edx, DWORD PTR [ecx+140]
  00676	81 e2 00 fc ff
	ff		 and	 edx, -1024		; fffffc00H
  0067c	0b d0		 or	 edx, eax
  0067e	8b 45 fc	 mov	 eax, DWORD PTR _group_raw$[ebp]
  00681	89 90 8c 00 00
	00		 mov	 DWORD PTR [eax+140], edx

; 700  : 
; 701  : 		#if DEBUG_MODULE
; 702  : 
; 703  : 		debug_log ("GP_MSGS: aborting advance from %d to %d", current_node, advance_node);
; 704  : 
; 705  : 		#endif
; 706  : 
; 707  : 		if (group_occupying_node)

  00687	83 7d e0 00	 cmp	 DWORD PTR _group_occupying_node$[ebp], 0
  0068b	74 16		 je	 SHORT $LN21@response_t

; 708  : 		{
; 709  : 
; 710  : 			//
; 711  : 			// notify force that opposing forces can't retreat, let it 'soften them up'
; 712  : 			//
; 713  : 
; 714  : 			notify_local_entity (ENTITY_MESSAGE_FORCE_ARMOUR_RESISTING, allied_force, receiver, group_occupying_node);

  0068d	8b 45 e0	 mov	 eax, DWORD PTR _group_occupying_node$[ebp]
  00690	50		 push	 eax
  00691	8b 4d 0c	 mov	 ecx, DWORD PTR _receiver$[ebp]
  00694	51		 push	 ecx
  00695	8b 55 e4	 mov	 edx, DWORD PTR _allied_force$[ebp]
  00698	52		 push	 edx
  00699	6a 12		 push	 18			; 00000012H
  0069b	e8 00 00 00 00	 call	 ?notify_local_entity@@YAHW4ENTITY_MESSAGES@@PAUENTITY@@1ZZ ; notify_local_entity
  006a0	83 c4 10	 add	 esp, 16			; 00000010H
$LN21@response_t:

; 715  : 		}
; 716  : 	}
; 717  : 
; 718  : 	return (success_flag);

  006a3	8b 45 ec	 mov	 eax, DWORD PTR _success_flag$[ebp]
$LN1@response_t:

; 719  : }

  006a6	5f		 pop	 edi
  006a7	5e		 pop	 esi
  006a8	5b		 pop	 ebx
  006a9	8b e5		 mov	 esp, ebp
  006ab	5d		 pop	 ebp
  006ac	c2 10 00	 ret	 16			; 00000010H
?response_to_ground_force_advance@@YGHW4ENTITY_MESSAGES@@PAUENTITY@@1PAD@Z ENDP ; response_to_ground_force_advance
_TEXT	ENDS
; Function compile flags: /Odtp /ZI
; File c:\users\nhv90\projects\eech\aphavoc\source\entity\special\group\gp_msgs.c
;	COMDAT ?response_to_entity_targeted@@YGHW4ENTITY_MESSAGES@@PAUENTITY@@1PAD@Z
_TEXT	SEGMENT
tv183 = -80						; size = 4
tv164 = -80						; size = 4
tv141 = -80						; size = 4
tv88 = -80						; size = 4
tv176 = -76						; size = 4
tv157 = -76						; size = 4
tv133 = -76						; size = 4
tv81 = -76						; size = 4
_pilot$ = -8						; size = 4
_victim$ = -4						; size = 4
_message$ = 8						; size = 4
_receiver$ = 12						; size = 4
_sender$ = 16						; size = 4
_pargs$ = 20						; size = 4
?response_to_entity_targeted@@YGHW4ENTITY_MESSAGES@@PAUENTITY@@1PAD@Z PROC ; response_to_entity_targeted, COMDAT

; 366  : {

  00000	55		 push	 ebp
  00001	8b ec		 mov	 ebp, esp
  00003	83 ec 50	 sub	 esp, 80			; 00000050H
  00006	53		 push	 ebx
  00007	56		 push	 esi
  00008	57		 push	 edi

; 367  : 	entity
; 368  : 		*victim,
; 369  : 		*pilot;
; 370  : 
; 371  : 	ASSERT (get_comms_model () == COMMS_MODEL_SERVER);

  00009	83 3d 00 00 00
	00 00		 cmp	 DWORD PTR ?system_comms_model@@3W4COMMS_MODEL_TYPES@@A, 0 ; system_comms_model
  00010	74 18		 je	 SHORT $LN2@response_t
  00012	a1 00 00 00 00	 mov	 eax, DWORD PTR ?__LINE__Var@?0??response_to_entity_targeted@@YGHW4ENTITY_MESSAGES@@PAUENTITY@@1PAD@Z@4JA
  00017	83 c0 05	 add	 eax, 5
  0001a	50		 push	 eax
  0001b	68 00 00 00 00	 push	 OFFSET ??_C@_0EL@PBEBEHIP@c?3?2users?2nhv90?2projects?2eech?2ap@
  00020	68 00 00 00 00	 push	 OFFSET ??_C@_0CJ@DMBLBJBK@get_comms_model?5?$CI?$CJ?5?$DN?$DN?5COMMS_MOD@
  00025	e8 00 00 00 00	 call	 ?process_assert@@YGXPBD0H@Z ; process_assert
$LN2@response_t:

; 372  : 
; 373  : 	//
; 374  : 	// Sender is the aggressor
; 375  : 	//
; 376  : 	
; 377  : 	ASSERT (sender);

  0002a	83 7d 10 00	 cmp	 DWORD PTR _sender$[ebp], 0
  0002e	75 18		 jne	 SHORT $LN3@response_t
  00030	a1 00 00 00 00	 mov	 eax, DWORD PTR ?__LINE__Var@?0??response_to_entity_targeted@@YGHW4ENTITY_MESSAGES@@PAUENTITY@@1PAD@Z@4JA
  00035	83 c0 0b	 add	 eax, 11			; 0000000bH
  00038	50		 push	 eax
  00039	68 00 00 00 00	 push	 OFFSET ??_C@_0EL@PBEBEHIP@c?3?2users?2nhv90?2projects?2eech?2ap@
  0003e	68 00 00 00 00	 push	 OFFSET ??_C@_06CGHJMPBJ@sender@
  00043	e8 00 00 00 00	 call	 ?process_assert@@YGXPBD0H@Z ; process_assert
$LN3@response_t:

; 378  : 
; 379  : 	victim = va_arg (pargs, entity *);

  00048	8b 45 14	 mov	 eax, DWORD PTR _pargs$[ebp]
  0004b	83 c0 04	 add	 eax, 4
  0004e	89 45 14	 mov	 DWORD PTR _pargs$[ebp], eax
  00051	8b 4d 14	 mov	 ecx, DWORD PTR _pargs$[ebp]
  00054	8b 51 fc	 mov	 edx, DWORD PTR [ecx-4]
  00057	89 55 fc	 mov	 DWORD PTR _victim$[ebp], edx

; 380  : 
; 381  : 	//
; 382  : 	// Perform Retaliation
; 383  : 	//
; 384  : 
; 385  : 	if (get_local_entity_int_value (sender, INT_TYPE_PLAYER) != ENTITY_PLAYER_AI)

  0005a	83 7d 10 00	 cmp	 DWORD PTR _sender$[ebp], 0
  0005e	74 0a		 je	 SHORT $LN9@response_t
  00060	8b 45 10	 mov	 eax, DWORD PTR _sender$[ebp]
  00063	8b 08		 mov	 ecx, DWORD PTR [eax]
  00065	89 4d b4	 mov	 DWORD PTR tv81[ebp], ecx
  00068	eb 1d		 jmp	 SHORT $LN10@response_t
$LN9@response_t:
  0006a	68 81 01 00 00	 push	 385			; 00000181H
  0006f	68 00 00 00 00	 push	 OFFSET ??_C@_0EL@PBEBEHIP@c?3?2users?2nhv90?2projects?2eech?2ap@
  00074	8b 15 00 00 00
	00		 mov	 edx, DWORD PTR ?null_entity_pointer_message@@3PBDB ; null_entity_pointer_message
  0007a	52		 push	 edx
  0007b	e8 00 00 00 00	 call	 ?process_assert@@YGXPBD0H@Z ; process_assert
  00080	c7 45 b4 00 00
	00 00		 mov	 DWORD PTR tv81[ebp], 0
$LN10@response_t:
  00087	b8 01 00 00 00	 mov	 eax, 1
  0008c	85 c0		 test	 eax, eax
  0008e	74 09		 je	 SHORT $LN11@response_t
  00090	c7 45 b0 9c 00
	00 00		 mov	 DWORD PTR tv88[ebp], 156 ; 0000009cH
  00097	eb 1d		 jmp	 SHORT $LN12@response_t
$LN11@response_t:
  00099	68 81 01 00 00	 push	 385			; 00000181H
  0009e	68 00 00 00 00	 push	 OFFSET ??_C@_0EL@PBEBEHIP@c?3?2users?2nhv90?2projects?2eech?2ap@
  000a3	8b 0d 00 00 00
	00		 mov	 ecx, DWORD PTR ?overload_invalid_int_type_message@@3PBDB ; overload_invalid_int_type_message
  000a9	51		 push	 ecx
  000aa	e8 00 00 00 00	 call	 ?process_assert@@YGXPBD0H@Z ; process_assert
  000af	c7 45 b0 00 00
	00 00		 mov	 DWORD PTR tv88[ebp], 0
$LN12@response_t:
  000b6	68 9c 00 00 00	 push	 156			; 0000009cH
  000bb	8b 55 10	 mov	 edx, DWORD PTR _sender$[ebp]
  000be	52		 push	 edx
  000bf	69 45 b4 5c 04
	00 00		 imul	 eax, DWORD PTR tv81[ebp], 1116
  000c6	8b 4d b0	 mov	 ecx, DWORD PTR tv88[ebp]
  000c9	8b 94 88 00 00
	00 00		 mov	 edx, DWORD PTR ?fn_get_local_entity_int_value@@3PAY0BBH@P6GHPAUENTITY@@W4INT_TYPES@@@ZA[eax+ecx*4]
  000d0	ff d2		 call	 edx
  000d2	85 c0		 test	 eax, eax
  000d4	0f 84 ae 01 00
	00		 je	 $LN4@response_t

; 386  : 	{
; 387  : 		//
; 388  : 		// Same response as fired at.... (Hard difficulty only)
; 389  : 		//
; 390  : 		
; 391  : 		pilot = get_local_entity_first_child (sender, LIST_TYPE_AIRCREW);

  000da	83 7d 10 00	 cmp	 DWORD PTR _sender$[ebp], 0
  000de	74 0a		 je	 SHORT $LN13@response_t
  000e0	8b 45 10	 mov	 eax, DWORD PTR _sender$[ebp]
  000e3	8b 08		 mov	 ecx, DWORD PTR [eax]
  000e5	89 4d b4	 mov	 DWORD PTR tv133[ebp], ecx
  000e8	eb 21		 jmp	 SHORT $LN14@response_t
$LN13@response_t:
  000ea	8b 15 00 00 00
	00		 mov	 edx, DWORD PTR ?__LINE__Var@?0??response_to_entity_targeted@@YGHW4ENTITY_MESSAGES@@PAUENTITY@@1PAD@Z@4JA
  000f0	83 c2 19	 add	 edx, 25			; 00000019H
  000f3	52		 push	 edx
  000f4	68 00 00 00 00	 push	 OFFSET ??_C@_0EL@PBEBEHIP@c?3?2users?2nhv90?2projects?2eech?2ap@
  000f9	a1 00 00 00 00	 mov	 eax, DWORD PTR ?null_entity_pointer_message@@3PBDB ; null_entity_pointer_message
  000fe	50		 push	 eax
  000ff	e8 00 00 00 00	 call	 ?process_assert@@YGXPBD0H@Z ; process_assert
  00104	c7 45 b4 00 00
	00 00		 mov	 DWORD PTR tv133[ebp], 0
$LN14@response_t:
  0010b	b9 01 00 00 00	 mov	 ecx, 1
  00110	85 c9		 test	 ecx, ecx
  00112	74 09		 je	 SHORT $LN15@response_t
  00114	c7 45 b0 01 00
	00 00		 mov	 DWORD PTR tv141[ebp], 1
  0011b	eb 21		 jmp	 SHORT $LN16@response_t
$LN15@response_t:
  0011d	8b 15 00 00 00
	00		 mov	 edx, DWORD PTR ?__LINE__Var@?0??response_to_entity_targeted@@YGHW4ENTITY_MESSAGES@@PAUENTITY@@1PAD@Z@4JA
  00123	83 c2 19	 add	 edx, 25			; 00000019H
  00126	52		 push	 edx
  00127	68 00 00 00 00	 push	 OFFSET ??_C@_0EL@PBEBEHIP@c?3?2users?2nhv90?2projects?2eech?2ap@
  0012c	a1 00 00 00 00	 mov	 eax, DWORD PTR ?overload_invalid_list_type_message@@3PBDB ; overload_invalid_list_type_message
  00131	50		 push	 eax
  00132	e8 00 00 00 00	 call	 ?process_assert@@YGXPBD0H@Z ; process_assert
  00137	c7 45 b0 00 00
	00 00		 mov	 DWORD PTR tv141[ebp], 0
$LN16@response_t:
  0013e	6a 01		 push	 1
  00140	8b 4d 10	 mov	 ecx, DWORD PTR _sender$[ebp]
  00143	51		 push	 ecx
  00144	69 55 b4 b4 00
	00 00		 imul	 edx, DWORD PTR tv133[ebp], 180
  0014b	8b 45 b0	 mov	 eax, DWORD PTR tv141[ebp]
  0014e	8b 8c 82 00 00
	00 00		 mov	 ecx, DWORD PTR ?fn_get_local_entity_first_child@@3PAY0CN@P6GPAUENTITY@@PAU1@W4LIST_TYPES@@@ZA[edx+eax*4]
  00155	ff d1		 call	 ecx
  00157	89 45 f8	 mov	 DWORD PTR _pilot$[ebp], eax

; 392  : 	
; 393  : 		ASSERT (pilot);

  0015a	83 7d f8 00	 cmp	 DWORD PTR _pilot$[ebp], 0
  0015e	75 18		 jne	 SHORT $LN5@response_t
  00160	a1 00 00 00 00	 mov	 eax, DWORD PTR ?__LINE__Var@?0??response_to_entity_targeted@@YGHW4ENTITY_MESSAGES@@PAUENTITY@@1PAD@Z@4JA
  00165	83 c0 1b	 add	 eax, 27			; 0000001bH
  00168	50		 push	 eax
  00169	68 00 00 00 00	 push	 OFFSET ??_C@_0EL@PBEBEHIP@c?3?2users?2nhv90?2projects?2eech?2ap@
  0016e	68 00 00 00 00	 push	 OFFSET ??_C@_05KIBFDOPF@pilot@
  00173	e8 00 00 00 00	 call	 ?process_assert@@YGXPBD0H@Z ; process_assert
$LN5@response_t:

; 394  : 	
; 395  : 		if (get_local_entity_int_value (pilot, INT_TYPE_DIFFICULTY_LEVEL) == GAME_DIFFICULTY_HARD)

  00178	83 7d f8 00	 cmp	 DWORD PTR _pilot$[ebp], 0
  0017c	74 0a		 je	 SHORT $LN17@response_t
  0017e	8b 45 f8	 mov	 eax, DWORD PTR _pilot$[ebp]
  00181	8b 08		 mov	 ecx, DWORD PTR [eax]
  00183	89 4d b4	 mov	 DWORD PTR tv157[ebp], ecx
  00186	eb 1d		 jmp	 SHORT $LN18@response_t
$LN17@response_t:
  00188	68 8b 01 00 00	 push	 395			; 0000018bH
  0018d	68 00 00 00 00	 push	 OFFSET ??_C@_0EL@PBEBEHIP@c?3?2users?2nhv90?2projects?2eech?2ap@
  00192	8b 15 00 00 00
	00		 mov	 edx, DWORD PTR ?null_entity_pointer_message@@3PBDB ; null_entity_pointer_message
  00198	52		 push	 edx
  00199	e8 00 00 00 00	 call	 ?process_assert@@YGXPBD0H@Z ; process_assert
  0019e	c7 45 b4 00 00
	00 00		 mov	 DWORD PTR tv157[ebp], 0
$LN18@response_t:
  001a5	b8 01 00 00 00	 mov	 eax, 1
  001aa	85 c0		 test	 eax, eax
  001ac	74 09		 je	 SHORT $LN19@response_t
  001ae	c7 45 b0 2f 00
	00 00		 mov	 DWORD PTR tv164[ebp], 47 ; 0000002fH
  001b5	eb 1d		 jmp	 SHORT $LN20@response_t
$LN19@response_t:
  001b7	68 8b 01 00 00	 push	 395			; 0000018bH
  001bc	68 00 00 00 00	 push	 OFFSET ??_C@_0EL@PBEBEHIP@c?3?2users?2nhv90?2projects?2eech?2ap@
  001c1	8b 0d 00 00 00
	00		 mov	 ecx, DWORD PTR ?overload_invalid_int_type_message@@3PBDB ; overload_invalid_int_type_message
  001c7	51		 push	 ecx
  001c8	e8 00 00 00 00	 call	 ?process_assert@@YGXPBD0H@Z ; process_assert
  001cd	c7 45 b0 00 00
	00 00		 mov	 DWORD PTR tv164[ebp], 0
$LN20@response_t:
  001d4	6a 2f		 push	 47			; 0000002fH
  001d6	8b 55 f8	 mov	 edx, DWORD PTR _pilot$[ebp]
  001d9	52		 push	 edx
  001da	69 45 b4 5c 04
	00 00		 imul	 eax, DWORD PTR tv157[ebp], 1116
  001e1	8b 4d b0	 mov	 ecx, DWORD PTR tv164[ebp]
  001e4	8b 94 88 00 00
	00 00		 mov	 edx, DWORD PTR ?fn_get_local_entity_int_value@@3PAY0BBH@P6GHPAUENTITY@@W4INT_TYPES@@@ZA[eax+ecx*4]
  001eb	ff d2		 call	 edx
  001ed	83 f8 01	 cmp	 eax, 1
  001f0	0f 85 92 00 00
	00		 jne	 $LN4@response_t

; 396  : 		{	
; 397  : 			if (get_local_entity_int_value (sender, INT_TYPE_RADAR_ON))

  001f6	83 7d 10 00	 cmp	 DWORD PTR _sender$[ebp], 0
  001fa	74 0a		 je	 SHORT $LN21@response_t
  001fc	8b 45 10	 mov	 eax, DWORD PTR _sender$[ebp]
  001ff	8b 08		 mov	 ecx, DWORD PTR [eax]
  00201	89 4d b4	 mov	 DWORD PTR tv176[ebp], ecx
  00204	eb 1d		 jmp	 SHORT $LN22@response_t
$LN21@response_t:
  00206	68 8d 01 00 00	 push	 397			; 0000018dH
  0020b	68 00 00 00 00	 push	 OFFSET ??_C@_0EL@PBEBEHIP@c?3?2users?2nhv90?2projects?2eech?2ap@
  00210	8b 15 00 00 00
	00		 mov	 edx, DWORD PTR ?null_entity_pointer_message@@3PBDB ; null_entity_pointer_message
  00216	52		 push	 edx
  00217	e8 00 00 00 00	 call	 ?process_assert@@YGXPBD0H@Z ; process_assert
  0021c	c7 45 b4 00 00
	00 00		 mov	 DWORD PTR tv176[ebp], 0
$LN22@response_t:
  00223	b8 01 00 00 00	 mov	 eax, 1
  00228	85 c0		 test	 eax, eax
  0022a	74 09		 je	 SHORT $LN23@response_t
  0022c	c7 45 b0 a9 00
	00 00		 mov	 DWORD PTR tv183[ebp], 169 ; 000000a9H
  00233	eb 1d		 jmp	 SHORT $LN24@response_t
$LN23@response_t:
  00235	68 8d 01 00 00	 push	 397			; 0000018dH
  0023a	68 00 00 00 00	 push	 OFFSET ??_C@_0EL@PBEBEHIP@c?3?2users?2nhv90?2projects?2eech?2ap@
  0023f	8b 0d 00 00 00
	00		 mov	 ecx, DWORD PTR ?overload_invalid_int_type_message@@3PBDB ; overload_invalid_int_type_message
  00245	51		 push	 ecx
  00246	e8 00 00 00 00	 call	 ?process_assert@@YGXPBD0H@Z ; process_assert
  0024b	c7 45 b0 00 00
	00 00		 mov	 DWORD PTR tv183[ebp], 0
$LN24@response_t:
  00252	68 a9 00 00 00	 push	 169			; 000000a9H
  00257	8b 55 10	 mov	 edx, DWORD PTR _sender$[ebp]
  0025a	52		 push	 edx
  0025b	69 45 b4 5c 04
	00 00		 imul	 eax, DWORD PTR tv176[ebp], 1116
  00262	8b 4d b0	 mov	 ecx, DWORD PTR tv183[ebp]
  00265	8b 94 88 00 00
	00 00		 mov	 edx, DWORD PTR ?fn_get_local_entity_int_value@@3PAY0BBH@P6GHPAUENTITY@@W4INT_TYPES@@@ZA[eax+ecx*4]
  0026c	ff d2		 call	 edx
  0026e	85 c0		 test	 eax, eax
  00270	74 16		 je	 SHORT $LN4@response_t

; 398  : 			{	
; 399  : 				notify_local_entity (ENTITY_MESSAGE_ENTITY_FIRED_AT, receiver, sender, victim);

  00272	8b 45 fc	 mov	 eax, DWORD PTR _victim$[ebp]
  00275	50		 push	 eax
  00276	8b 4d 10	 mov	 ecx, DWORD PTR _sender$[ebp]
  00279	51		 push	 ecx
  0027a	8b 55 0c	 mov	 edx, DWORD PTR _receiver$[ebp]
  0027d	52		 push	 edx
  0027e	6a 0d		 push	 13			; 0000000dH
  00280	e8 00 00 00 00	 call	 ?notify_local_entity@@YAHW4ENTITY_MESSAGES@@PAUENTITY@@1ZZ ; notify_local_entity
  00285	83 c4 10	 add	 esp, 16			; 00000010H
$LN4@response_t:

; 400  : 			}
; 401  : 		}
; 402  : 	}
; 403  : 
; 404  : 	return TRUE;

  00288	b8 01 00 00 00	 mov	 eax, 1

; 405  : }

  0028d	5f		 pop	 edi
  0028e	5e		 pop	 esi
  0028f	5b		 pop	 ebx
  00290	8b e5		 mov	 esp, ebp
  00292	5d		 pop	 ebp
  00293	c2 10 00	 ret	 16			; 00000010H
?response_to_entity_targeted@@YGHW4ENTITY_MESSAGES@@PAUENTITY@@1PAD@Z ENDP ; response_to_entity_targeted
_TEXT	ENDS
; Function compile flags: /Odtp /ZI
; File c:\users\nhv90\projects\eech\aphavoc\source\entity\special\group\gp_msgs.c
;	COMDAT ?response_to_entity_fired_at@@YGHW4ENTITY_MESSAGES@@PAUENTITY@@1PAD@Z
_TEXT	SEGMENT
tv361 = -96						; size = 8
tv312 = -96						; size = 4
tv202 = -96						; size = 4
tv304 = -92						; size = 4
tv194 = -92						; size = 4
tv291 = -88						; size = 4
tv261 = -88						; size = 4
tv224 = -88						; size = 4
tv181 = -88						; size = 4
tv159 = -88						; size = 4
tv140 = -88						; size = 4
tv90 = -88						; size = 4
tv283 = -84						; size = 4
tv254 = -84						; size = 4
tv216 = -84						; size = 4
tv173 = -84						; size = 4
tv152 = -84						; size = 4
tv133 = -84						; size = 4
tv82 = -84						; size = 4
_assist$ = -16						; size = 4
_side$ = -12						; size = 4
_force$ = -8						; size = 4
_victim$ = -4						; size = 4
_message$ = 8						; size = 4
_receiver$ = 12						; size = 4
_sender$ = 16						; size = 4
_pargs$ = 20						; size = 4
?response_to_entity_fired_at@@YGHW4ENTITY_MESSAGES@@PAUENTITY@@1PAD@Z PROC ; response_to_entity_fired_at, COMDAT

; 296  : {

  00000	55		 push	 ebp
  00001	8b ec		 mov	 ebp, esp
  00003	83 ec 60	 sub	 esp, 96			; 00000060H
  00006	53		 push	 ebx
  00007	56		 push	 esi
  00008	57		 push	 edi

; 297  : 	entity
; 298  : 		*victim,
; 299  : 		*force;
; 300  : 
; 301  : 	int
; 302  : 		side,
; 303  : 		assist;
; 304  : 
; 305  : 	ASSERT (get_comms_model () == COMMS_MODEL_SERVER);

  00009	83 3d 00 00 00
	00 00		 cmp	 DWORD PTR ?system_comms_model@@3W4COMMS_MODEL_TYPES@@A, 0 ; system_comms_model
  00010	74 18		 je	 SHORT $LN2@response_t
  00012	a1 00 00 00 00	 mov	 eax, DWORD PTR ?__LINE__Var@?0??response_to_entity_fired_at@@YGHW4ENTITY_MESSAGES@@PAUENTITY@@1PAD@Z@4JA
  00017	83 c0 09	 add	 eax, 9
  0001a	50		 push	 eax
  0001b	68 00 00 00 00	 push	 OFFSET ??_C@_0EL@PBEBEHIP@c?3?2users?2nhv90?2projects?2eech?2ap@
  00020	68 00 00 00 00	 push	 OFFSET ??_C@_0CJ@DMBLBJBK@get_comms_model?5?$CI?$CJ?5?$DN?$DN?5COMMS_MOD@
  00025	e8 00 00 00 00	 call	 ?process_assert@@YGXPBD0H@Z ; process_assert
$LN2@response_t:

; 306  : 
; 307  : 	ASSERT (sender);

  0002a	83 7d 10 00	 cmp	 DWORD PTR _sender$[ebp], 0
  0002e	75 18		 jne	 SHORT $LN3@response_t
  00030	a1 00 00 00 00	 mov	 eax, DWORD PTR ?__LINE__Var@?0??response_to_entity_fired_at@@YGHW4ENTITY_MESSAGES@@PAUENTITY@@1PAD@Z@4JA
  00035	83 c0 0b	 add	 eax, 11			; 0000000bH
  00038	50		 push	 eax
  00039	68 00 00 00 00	 push	 OFFSET ??_C@_0EL@PBEBEHIP@c?3?2users?2nhv90?2projects?2eech?2ap@
  0003e	68 00 00 00 00	 push	 OFFSET ??_C@_06CGHJMPBJ@sender@
  00043	e8 00 00 00 00	 call	 ?process_assert@@YGXPBD0H@Z ; process_assert
$LN3@response_t:

; 308  : 
; 309  : 	//
; 310  : 	// Sender is the entity that fired at the receiving group
; 311  : 	//
; 312  : 
; 313  : 	victim = va_arg (pargs, entity *);

  00048	8b 45 14	 mov	 eax, DWORD PTR _pargs$[ebp]
  0004b	83 c0 04	 add	 eax, 4
  0004e	89 45 14	 mov	 DWORD PTR _pargs$[ebp], eax
  00051	8b 4d 14	 mov	 ecx, DWORD PTR _pargs$[ebp]
  00054	8b 51 fc	 mov	 edx, DWORD PTR [ecx-4]
  00057	89 55 fc	 mov	 DWORD PTR _victim$[ebp], edx

; 314  : 
; 315  : 	side = get_local_entity_int_value (receiver, INT_TYPE_SIDE);

  0005a	83 7d 0c 00	 cmp	 DWORD PTR _receiver$[ebp], 0
  0005e	74 0a		 je	 SHORT $LN10@response_t
  00060	8b 45 0c	 mov	 eax, DWORD PTR _receiver$[ebp]
  00063	8b 08		 mov	 ecx, DWORD PTR [eax]
  00065	89 4d ac	 mov	 DWORD PTR tv82[ebp], ecx
  00068	eb 21		 jmp	 SHORT $LN11@response_t
$LN10@response_t:
  0006a	8b 15 00 00 00
	00		 mov	 edx, DWORD PTR ?__LINE__Var@?0??response_to_entity_fired_at@@YGHW4ENTITY_MESSAGES@@PAUENTITY@@1PAD@Z@4JA
  00070	83 c2 13	 add	 edx, 19			; 00000013H
  00073	52		 push	 edx
  00074	68 00 00 00 00	 push	 OFFSET ??_C@_0EL@PBEBEHIP@c?3?2users?2nhv90?2projects?2eech?2ap@
  00079	a1 00 00 00 00	 mov	 eax, DWORD PTR ?null_entity_pointer_message@@3PBDB ; null_entity_pointer_message
  0007e	50		 push	 eax
  0007f	e8 00 00 00 00	 call	 ?process_assert@@YGXPBD0H@Z ; process_assert
  00084	c7 45 ac 00 00
	00 00		 mov	 DWORD PTR tv82[ebp], 0
$LN11@response_t:
  0008b	b9 01 00 00 00	 mov	 ecx, 1
  00090	85 c9		 test	 ecx, ecx
  00092	74 09		 je	 SHORT $LN12@response_t
  00094	c7 45 a8 bb 00
	00 00		 mov	 DWORD PTR tv90[ebp], 187 ; 000000bbH
  0009b	eb 21		 jmp	 SHORT $LN13@response_t
$LN12@response_t:
  0009d	8b 15 00 00 00
	00		 mov	 edx, DWORD PTR ?__LINE__Var@?0??response_to_entity_fired_at@@YGHW4ENTITY_MESSAGES@@PAUENTITY@@1PAD@Z@4JA
  000a3	83 c2 13	 add	 edx, 19			; 00000013H
  000a6	52		 push	 edx
  000a7	68 00 00 00 00	 push	 OFFSET ??_C@_0EL@PBEBEHIP@c?3?2users?2nhv90?2projects?2eech?2ap@
  000ac	a1 00 00 00 00	 mov	 eax, DWORD PTR ?overload_invalid_int_type_message@@3PBDB ; overload_invalid_int_type_message
  000b1	50		 push	 eax
  000b2	e8 00 00 00 00	 call	 ?process_assert@@YGXPBD0H@Z ; process_assert
  000b7	c7 45 a8 00 00
	00 00		 mov	 DWORD PTR tv90[ebp], 0
$LN13@response_t:
  000be	68 bb 00 00 00	 push	 187			; 000000bbH
  000c3	8b 4d 0c	 mov	 ecx, DWORD PTR _receiver$[ebp]
  000c6	51		 push	 ecx
  000c7	69 55 ac 5c 04
	00 00		 imul	 edx, DWORD PTR tv82[ebp], 1116
  000ce	8b 45 a8	 mov	 eax, DWORD PTR tv90[ebp]
  000d1	8b 8c 82 00 00
	00 00		 mov	 ecx, DWORD PTR ?fn_get_local_entity_int_value@@3PAY0BBH@P6GHPAUENTITY@@W4INT_TYPES@@@ZA[edx+eax*4]
  000d8	ff d1		 call	 ecx
  000da	89 45 f4	 mov	 DWORD PTR _side$[ebp], eax

; 316  : 
; 317  : 	assist = FALSE;

  000dd	c7 45 f0 00 00
	00 00		 mov	 DWORD PTR _assist$[ebp], 0

; 318  : 
; 319  : 	if (get_local_entity_int_value (sender, INT_TYPE_SIDE) != side)

  000e4	83 7d 10 00	 cmp	 DWORD PTR _sender$[ebp], 0
  000e8	74 0a		 je	 SHORT $LN14@response_t
  000ea	8b 45 10	 mov	 eax, DWORD PTR _sender$[ebp]
  000ed	8b 08		 mov	 ecx, DWORD PTR [eax]
  000ef	89 4d ac	 mov	 DWORD PTR tv133[ebp], ecx
  000f2	eb 1d		 jmp	 SHORT $LN15@response_t
$LN14@response_t:
  000f4	68 3f 01 00 00	 push	 319			; 0000013fH
  000f9	68 00 00 00 00	 push	 OFFSET ??_C@_0EL@PBEBEHIP@c?3?2users?2nhv90?2projects?2eech?2ap@
  000fe	8b 15 00 00 00
	00		 mov	 edx, DWORD PTR ?null_entity_pointer_message@@3PBDB ; null_entity_pointer_message
  00104	52		 push	 edx
  00105	e8 00 00 00 00	 call	 ?process_assert@@YGXPBD0H@Z ; process_assert
  0010a	c7 45 ac 00 00
	00 00		 mov	 DWORD PTR tv133[ebp], 0
$LN15@response_t:
  00111	b8 01 00 00 00	 mov	 eax, 1
  00116	85 c0		 test	 eax, eax
  00118	74 09		 je	 SHORT $LN16@response_t
  0011a	c7 45 a8 bb 00
	00 00		 mov	 DWORD PTR tv140[ebp], 187 ; 000000bbH
  00121	eb 1d		 jmp	 SHORT $LN17@response_t
$LN16@response_t:
  00123	68 3f 01 00 00	 push	 319			; 0000013fH
  00128	68 00 00 00 00	 push	 OFFSET ??_C@_0EL@PBEBEHIP@c?3?2users?2nhv90?2projects?2eech?2ap@
  0012d	8b 0d 00 00 00
	00		 mov	 ecx, DWORD PTR ?overload_invalid_int_type_message@@3PBDB ; overload_invalid_int_type_message
  00133	51		 push	 ecx
  00134	e8 00 00 00 00	 call	 ?process_assert@@YGXPBD0H@Z ; process_assert
  00139	c7 45 a8 00 00
	00 00		 mov	 DWORD PTR tv140[ebp], 0
$LN17@response_t:
  00140	68 bb 00 00 00	 push	 187			; 000000bbH
  00145	8b 55 10	 mov	 edx, DWORD PTR _sender$[ebp]
  00148	52		 push	 edx
  00149	69 45 ac 5c 04
	00 00		 imul	 eax, DWORD PTR tv133[ebp], 1116
  00150	8b 4d a8	 mov	 ecx, DWORD PTR tv140[ebp]
  00153	8b 94 88 00 00
	00 00		 mov	 edx, DWORD PTR ?fn_get_local_entity_int_value@@3PAY0BBH@P6GHPAUENTITY@@W4INT_TYPES@@@ZA[eax+ecx*4]
  0015a	ff d2		 call	 edx
  0015c	3b 45 f4	 cmp	 eax, DWORD PTR _side$[ebp]
  0015f	0f 84 42 04 00
	00		 je	 $LN8@response_t

; 320  : 	{
; 321  : 		//
; 322  : 		// Call for assistance
; 323  : 		//
; 324  : 
; 325  : 		if (get_local_entity_float_value (receiver, FLOAT_TYPE_ASSIST_TIMER) == 0.0)

  00165	83 7d 0c 00	 cmp	 DWORD PTR _receiver$[ebp], 0
  00169	74 0a		 je	 SHORT $LN18@response_t
  0016b	8b 45 0c	 mov	 eax, DWORD PTR _receiver$[ebp]
  0016e	8b 08		 mov	 ecx, DWORD PTR [eax]
  00170	89 4d ac	 mov	 DWORD PTR tv152[ebp], ecx
  00173	eb 1d		 jmp	 SHORT $LN19@response_t
$LN18@response_t:
  00175	68 45 01 00 00	 push	 325			; 00000145H
  0017a	68 00 00 00 00	 push	 OFFSET ??_C@_0EL@PBEBEHIP@c?3?2users?2nhv90?2projects?2eech?2ap@
  0017f	8b 15 00 00 00
	00		 mov	 edx, DWORD PTR ?null_entity_pointer_message@@3PBDB ; null_entity_pointer_message
  00185	52		 push	 edx
  00186	e8 00 00 00 00	 call	 ?process_assert@@YGXPBD0H@Z ; process_assert
  0018b	c7 45 ac 00 00
	00 00		 mov	 DWORD PTR tv152[ebp], 0
$LN19@response_t:
  00192	b8 01 00 00 00	 mov	 eax, 1
  00197	85 c0		 test	 eax, eax
  00199	74 09		 je	 SHORT $LN20@response_t
  0019b	c7 45 a8 0d 00
	00 00		 mov	 DWORD PTR tv159[ebp], 13 ; 0000000dH
  001a2	eb 1d		 jmp	 SHORT $LN21@response_t
$LN20@response_t:
  001a4	68 45 01 00 00	 push	 325			; 00000145H
  001a9	68 00 00 00 00	 push	 OFFSET ??_C@_0EL@PBEBEHIP@c?3?2users?2nhv90?2projects?2eech?2ap@
  001ae	8b 0d 00 00 00
	00		 mov	 ecx, DWORD PTR ?overload_invalid_float_type_message@@3PBDB ; overload_invalid_float_type_message
  001b4	51		 push	 ecx
  001b5	e8 00 00 00 00	 call	 ?process_assert@@YGXPBD0H@Z ; process_assert
  001ba	c7 45 a8 00 00
	00 00		 mov	 DWORD PTR tv159[ebp], 0
$LN21@response_t:
  001c1	6a 0d		 push	 13			; 0000000dH
  001c3	8b 55 0c	 mov	 edx, DWORD PTR _receiver$[ebp]
  001c6	52		 push	 edx
  001c7	69 45 ac bc 02
	00 00		 imul	 eax, DWORD PTR tv152[ebp], 700
  001ce	8b 4d a8	 mov	 ecx, DWORD PTR tv159[ebp]
  001d1	8b 94 88 00 00
	00 00		 mov	 edx, DWORD PTR ?fn_get_local_entity_float_value@@3PAY0KP@P6GMPAUENTITY@@W4FLOAT_TYPES@@@ZA[eax+ecx*4]
  001d8	ff d2		 call	 edx
  001da	dd 5d a0	 fstp	 QWORD PTR tv361[ebp]
  001dd	f2 0f 10 45 a0	 movsd	 xmm0, QWORD PTR tv361[ebp]
  001e2	66 0f 2e 05 00
	00 00 00	 ucomisd xmm0, QWORD PTR __real@0000000000000000
  001ea	9f		 lahf
  001eb	f6 c4 44	 test	 ah, 68			; 00000044H
  001ee	0f 8a f6 01 00
	00		 jp	 $LN5@response_t

; 326  : 		{
; 327  : 			ai_log ("(RETALIATION) Group %s Requesting Assistance after being fired at by %s",

  001f4	83 7d 10 00	 cmp	 DWORD PTR _sender$[ebp], 0
  001f8	74 0a		 je	 SHORT $LN22@response_t
  001fa	8b 45 10	 mov	 eax, DWORD PTR _sender$[ebp]
  001fd	8b 08		 mov	 ecx, DWORD PTR [eax]
  001ff	89 4d ac	 mov	 DWORD PTR tv173[ebp], ecx
  00202	eb 21		 jmp	 SHORT $LN23@response_t
$LN22@response_t:
  00204	8b 15 00 00 00
	00		 mov	 edx, DWORD PTR ?__LINE__Var@?0??response_to_entity_fired_at@@YGHW4ENTITY_MESSAGES@@PAUENTITY@@1PAD@Z@4JA
  0020a	83 c2 21	 add	 edx, 33			; 00000021H
  0020d	52		 push	 edx
  0020e	68 00 00 00 00	 push	 OFFSET ??_C@_0EL@PBEBEHIP@c?3?2users?2nhv90?2projects?2eech?2ap@
  00213	a1 00 00 00 00	 mov	 eax, DWORD PTR ?null_entity_pointer_message@@3PBDB ; null_entity_pointer_message
  00218	50		 push	 eax
  00219	e8 00 00 00 00	 call	 ?process_assert@@YGXPBD0H@Z ; process_assert
  0021e	c7 45 ac 00 00
	00 00		 mov	 DWORD PTR tv173[ebp], 0
$LN23@response_t:
  00225	b9 01 00 00 00	 mov	 ecx, 1
  0022a	85 c9		 test	 ecx, ecx
  0022c	74 09		 je	 SHORT $LN24@response_t
  0022e	c7 45 a8 03 00
	00 00		 mov	 DWORD PTR tv181[ebp], 3
  00235	eb 21		 jmp	 SHORT $LN25@response_t
$LN24@response_t:
  00237	8b 15 00 00 00
	00		 mov	 edx, DWORD PTR ?__LINE__Var@?0??response_to_entity_fired_at@@YGHW4ENTITY_MESSAGES@@PAUENTITY@@1PAD@Z@4JA
  0023d	83 c2 21	 add	 edx, 33			; 00000021H
  00240	52		 push	 edx
  00241	68 00 00 00 00	 push	 OFFSET ??_C@_0EL@PBEBEHIP@c?3?2users?2nhv90?2projects?2eech?2ap@
  00246	a1 00 00 00 00	 mov	 eax, DWORD PTR ?overload_invalid_string_type_message@@3PBDB ; overload_invalid_string_type_message
  0024b	50		 push	 eax
  0024c	e8 00 00 00 00	 call	 ?process_assert@@YGXPBD0H@Z ; process_assert
  00251	c7 45 a8 00 00
	00 00		 mov	 DWORD PTR tv181[ebp], 0
$LN25@response_t:
  00258	83 7d 0c 00	 cmp	 DWORD PTR _receiver$[ebp], 0
  0025c	74 0a		 je	 SHORT $LN26@response_t
  0025e	8b 4d 0c	 mov	 ecx, DWORD PTR _receiver$[ebp]
  00261	8b 11		 mov	 edx, DWORD PTR [ecx]
  00263	89 55 a4	 mov	 DWORD PTR tv194[ebp], edx
  00266	eb 21		 jmp	 SHORT $LN27@response_t
$LN26@response_t:
  00268	a1 00 00 00 00	 mov	 eax, DWORD PTR ?__LINE__Var@?0??response_to_entity_fired_at@@YGHW4ENTITY_MESSAGES@@PAUENTITY@@1PAD@Z@4JA
  0026d	83 c0 20	 add	 eax, 32			; 00000020H
  00270	50		 push	 eax
  00271	68 00 00 00 00	 push	 OFFSET ??_C@_0EL@PBEBEHIP@c?3?2users?2nhv90?2projects?2eech?2ap@
  00276	8b 0d 00 00 00
	00		 mov	 ecx, DWORD PTR ?null_entity_pointer_message@@3PBDB ; null_entity_pointer_message
  0027c	51		 push	 ecx
  0027d	e8 00 00 00 00	 call	 ?process_assert@@YGXPBD0H@Z ; process_assert
  00282	c7 45 a4 00 00
	00 00		 mov	 DWORD PTR tv194[ebp], 0
$LN27@response_t:
  00289	ba 01 00 00 00	 mov	 edx, 1
  0028e	85 d2		 test	 edx, edx
  00290	74 09		 je	 SHORT $LN28@response_t
  00292	c7 45 a0 03 00
	00 00		 mov	 DWORD PTR tv202[ebp], 3
  00299	eb 21		 jmp	 SHORT $LN29@response_t
$LN28@response_t:
  0029b	a1 00 00 00 00	 mov	 eax, DWORD PTR ?__LINE__Var@?0??response_to_entity_fired_at@@YGHW4ENTITY_MESSAGES@@PAUENTITY@@1PAD@Z@4JA
  002a0	83 c0 20	 add	 eax, 32			; 00000020H
  002a3	50		 push	 eax
  002a4	68 00 00 00 00	 push	 OFFSET ??_C@_0EL@PBEBEHIP@c?3?2users?2nhv90?2projects?2eech?2ap@
  002a9	8b 0d 00 00 00
	00		 mov	 ecx, DWORD PTR ?overload_invalid_string_type_message@@3PBDB ; overload_invalid_string_type_message
  002af	51		 push	 ecx
  002b0	e8 00 00 00 00	 call	 ?process_assert@@YGXPBD0H@Z ; process_assert
  002b5	c7 45 a0 00 00
	00 00		 mov	 DWORD PTR tv202[ebp], 0
$LN29@response_t:
  002bc	6a 03		 push	 3
  002be	8b 55 10	 mov	 edx, DWORD PTR _sender$[ebp]
  002c1	52		 push	 edx
  002c2	6b 45 ac 34	 imul	 eax, DWORD PTR tv173[ebp], 52
  002c6	8b 4d a8	 mov	 ecx, DWORD PTR tv181[ebp]
  002c9	8b 94 88 00 00
	00 00		 mov	 edx, DWORD PTR ?fn_get_local_entity_string@@3PAY0N@P6GPBDPAUENTITY@@W4STRING_TYPES@@@ZA[eax+ecx*4]
  002d0	ff d2		 call	 edx
  002d2	50		 push	 eax
  002d3	6a 03		 push	 3
  002d5	8b 45 0c	 mov	 eax, DWORD PTR _receiver$[ebp]
  002d8	50		 push	 eax
  002d9	6b 4d a4 34	 imul	 ecx, DWORD PTR tv194[ebp], 52
  002dd	8b 55 a0	 mov	 edx, DWORD PTR tv202[ebp]
  002e0	8b 84 91 00 00
	00 00		 mov	 eax, DWORD PTR ?fn_get_local_entity_string@@3PAY0N@P6GPBDPAUENTITY@@W4STRING_TYPES@@@ZA[ecx+edx*4]
  002e7	ff d0		 call	 eax
  002e9	50		 push	 eax
  002ea	68 00 00 00 00	 push	 OFFSET ??_C@_0EI@HHICLLNA@?$CIRETALIATION?$CJ?5Group?5?$CFs?5Requesti@
  002ef	e8 00 00 00 00	 call	 ?ai_log@@YAXPBDZZ	; ai_log
  002f4	83 c4 0c	 add	 esp, 12			; 0000000cH

; 328  : 						get_local_entity_string (receiver, STRING_TYPE_FULL_NAME),
; 329  : 						get_local_entity_string (sender, STRING_TYPE_FULL_NAME));
; 330  : 
; 331  : 			set_local_entity_float_value (receiver, FLOAT_TYPE_ASSIST_TIMER, DEFAULT_GROUP_ASSISTANCE_REQUEST_TIMER);

  002f7	83 7d 0c 00	 cmp	 DWORD PTR _receiver$[ebp], 0
  002fb	74 0a		 je	 SHORT $LN30@response_t
  002fd	8b 45 0c	 mov	 eax, DWORD PTR _receiver$[ebp]
  00300	8b 08		 mov	 ecx, DWORD PTR [eax]
  00302	89 4d ac	 mov	 DWORD PTR tv216[ebp], ecx
  00305	eb 21		 jmp	 SHORT $LN31@response_t
$LN30@response_t:
  00307	8b 15 00 00 00
	00		 mov	 edx, DWORD PTR ?__LINE__Var@?0??response_to_entity_fired_at@@YGHW4ENTITY_MESSAGES@@PAUENTITY@@1PAD@Z@4JA
  0030d	83 c2 23	 add	 edx, 35			; 00000023H
  00310	52		 push	 edx
  00311	68 00 00 00 00	 push	 OFFSET ??_C@_0EL@PBEBEHIP@c?3?2users?2nhv90?2projects?2eech?2ap@
  00316	a1 00 00 00 00	 mov	 eax, DWORD PTR ?null_entity_pointer_message@@3PBDB ; null_entity_pointer_message
  0031b	50		 push	 eax
  0031c	e8 00 00 00 00	 call	 ?process_assert@@YGXPBD0H@Z ; process_assert
  00321	c7 45 ac 00 00
	00 00		 mov	 DWORD PTR tv216[ebp], 0
$LN31@response_t:
  00328	b9 01 00 00 00	 mov	 ecx, 1
  0032d	85 c9		 test	 ecx, ecx
  0032f	74 09		 je	 SHORT $LN32@response_t
  00331	c7 45 a8 0d 00
	00 00		 mov	 DWORD PTR tv224[ebp], 13 ; 0000000dH
  00338	eb 21		 jmp	 SHORT $LN33@response_t
$LN32@response_t:
  0033a	8b 15 00 00 00
	00		 mov	 edx, DWORD PTR ?__LINE__Var@?0??response_to_entity_fired_at@@YGHW4ENTITY_MESSAGES@@PAUENTITY@@1PAD@Z@4JA
  00340	83 c2 23	 add	 edx, 35			; 00000023H
  00343	52		 push	 edx
  00344	68 00 00 00 00	 push	 OFFSET ??_C@_0EL@PBEBEHIP@c?3?2users?2nhv90?2projects?2eech?2ap@
  00349	a1 00 00 00 00	 mov	 eax, DWORD PTR ?overload_invalid_float_type_message@@3PBDB ; overload_invalid_float_type_message
  0034e	50		 push	 eax
  0034f	e8 00 00 00 00	 call	 ?process_assert@@YGXPBD0H@Z ; process_assert
  00354	c7 45 a8 00 00
	00 00		 mov	 DWORD PTR tv224[ebp], 0
$LN33@response_t:
  0035b	69 0d 00 00 00
	00 6d 4e c6 41	 imul	 ecx, DWORD PTR ?random_number_seed@@3HA, 1103515245 ; random_number_seed
  00365	81 c1 39 30 00
	00		 add	 ecx, 12345		; 00003039H
  0036b	89 0d 00 00 00
	00		 mov	 DWORD PTR ?random_number_seed@@3HA, ecx ; random_number_seed
  00371	8b 15 00 00 00
	00		 mov	 edx, DWORD PTR ?random_number_seed@@3HA ; random_number_seed
  00377	c1 fa 10	 sar	 edx, 16			; 00000010H
  0037a	81 e2 ff 7f 00
	00		 and	 edx, 32767		; 00007fffH
  00380	81 ea 00 40 00
	00		 sub	 edx, 16384		; 00004000H
  00386	f2 0f 2a c2	 cvtsi2sd xmm0, edx
  0038a	f2 0f 59 05 00
	00 00 00	 mulsd	 xmm0, QWORD PTR __real@3f10000000000000
  00392	f2 0f 59 05 00
	00 00 00	 mulsd	 xmm0, QWORD PTR __real@4034000000000000
  0039a	f2 0f 58 05 00
	00 00 00	 addsd	 xmm0, QWORD PTR __real@404e000000000000
  003a2	f2 0f 5a c0	 cvtsd2ss xmm0, xmm0
  003a6	51		 push	 ecx
  003a7	f3 0f 11 04 24	 movss	 DWORD PTR [esp], xmm0
  003ac	6a 0d		 push	 13			; 0000000dH
  003ae	8b 45 0c	 mov	 eax, DWORD PTR _receiver$[ebp]
  003b1	50		 push	 eax
  003b2	69 4d ac bc 02
	00 00		 imul	 ecx, DWORD PTR tv216[ebp], 700
  003b9	8b 55 a8	 mov	 edx, DWORD PTR tv224[ebp]
  003bc	8b 84 91 00 00
	00 00		 mov	 eax, DWORD PTR ?fn_set_local_entity_float_value@@3PAY0KP@P6GXPAUENTITY@@W4FLOAT_TYPES@@M@ZA[ecx+edx*4]
  003c3	ff d0		 call	 eax

; 332  : 
; 333  : 			force = get_local_force_entity ((entity_sides) side);

  003c5	8b 45 f4	 mov	 eax, DWORD PTR _side$[ebp]
  003c8	50		 push	 eax
  003c9	e8 00 00 00 00	 call	 ?get_local_force_entity@@YGPAUENTITY@@W4ENTITY_SIDES@@@Z ; get_local_force_entity
  003ce	89 45 f8	 mov	 DWORD PTR _force$[ebp], eax

; 334  : 
; 335  : 			assist = notify_local_entity (ENTITY_MESSAGE_REQUEST_ASSISTANCE, force, victim, sender);

  003d1	8b 45 10	 mov	 eax, DWORD PTR _sender$[ebp]
  003d4	50		 push	 eax
  003d5	8b 4d fc	 mov	 ecx, DWORD PTR _victim$[ebp]
  003d8	51		 push	 ecx
  003d9	8b 55 f8	 mov	 edx, DWORD PTR _force$[ebp]
  003dc	52		 push	 edx
  003dd	6a 2d		 push	 45			; 0000002dH
  003df	e8 00 00 00 00	 call	 ?notify_local_entity@@YAHW4ENTITY_MESSAGES@@PAUENTITY@@1ZZ ; notify_local_entity
  003e4	83 c4 10	 add	 esp, 16			; 00000010H
  003e7	89 45 f0	 mov	 DWORD PTR _assist$[ebp], eax
$LN5@response_t:

; 336  : 		}
; 337  : 
; 338  : 		//
; 339  : 		// Retaliate - If not already engaging, and able to fight
; 340  : 		//
; 341  : 
; 342  : 		if (get_local_entity_int_value (receiver, INT_TYPE_ENGAGE_ENEMY))

  003ea	83 7d 0c 00	 cmp	 DWORD PTR _receiver$[ebp], 0
  003ee	74 0a		 je	 SHORT $LN34@response_t
  003f0	8b 45 0c	 mov	 eax, DWORD PTR _receiver$[ebp]
  003f3	8b 08		 mov	 ecx, DWORD PTR [eax]
  003f5	89 4d ac	 mov	 DWORD PTR tv254[ebp], ecx
  003f8	eb 1d		 jmp	 SHORT $LN35@response_t
$LN34@response_t:
  003fa	68 56 01 00 00	 push	 342			; 00000156H
  003ff	68 00 00 00 00	 push	 OFFSET ??_C@_0EL@PBEBEHIP@c?3?2users?2nhv90?2projects?2eech?2ap@
  00404	8b 15 00 00 00
	00		 mov	 edx, DWORD PTR ?null_entity_pointer_message@@3PBDB ; null_entity_pointer_message
  0040a	52		 push	 edx
  0040b	e8 00 00 00 00	 call	 ?process_assert@@YGXPBD0H@Z ; process_assert
  00410	c7 45 ac 00 00
	00 00		 mov	 DWORD PTR tv254[ebp], 0
$LN35@response_t:
  00417	b8 01 00 00 00	 mov	 eax, 1
  0041c	85 c0		 test	 eax, eax
  0041e	74 09		 je	 SHORT $LN36@response_t
  00420	c7 45 a8 33 00
	00 00		 mov	 DWORD PTR tv261[ebp], 51 ; 00000033H
  00427	eb 1d		 jmp	 SHORT $LN37@response_t
$LN36@response_t:
  00429	68 56 01 00 00	 push	 342			; 00000156H
  0042e	68 00 00 00 00	 push	 OFFSET ??_C@_0EL@PBEBEHIP@c?3?2users?2nhv90?2projects?2eech?2ap@
  00433	8b 0d 00 00 00
	00		 mov	 ecx, DWORD PTR ?overload_invalid_int_type_message@@3PBDB ; overload_invalid_int_type_message
  00439	51		 push	 ecx
  0043a	e8 00 00 00 00	 call	 ?process_assert@@YGXPBD0H@Z ; process_assert
  0043f	c7 45 a8 00 00
	00 00		 mov	 DWORD PTR tv261[ebp], 0
$LN37@response_t:
  00446	6a 33		 push	 51			; 00000033H
  00448	8b 55 0c	 mov	 edx, DWORD PTR _receiver$[ebp]
  0044b	52		 push	 edx
  0044c	69 45 ac 5c 04
	00 00		 imul	 eax, DWORD PTR tv254[ebp], 1116
  00453	8b 4d a8	 mov	 ecx, DWORD PTR tv261[ebp]
  00456	8b 94 88 00 00
	00 00		 mov	 edx, DWORD PTR ?fn_get_local_entity_int_value@@3PAY0BBH@P6GHPAUENTITY@@W4INT_TYPES@@@ZA[eax+ecx*4]
  0045d	ff d2		 call	 edx
  0045f	85 c0		 test	 eax, eax
  00461	0f 84 40 01 00
	00		 je	 $LN8@response_t

; 343  : 		{
; 344  : 			if (!check_group_task_type (receiver, ENTITY_SUB_TYPE_TASK_ENGAGE))

  00467	6a 09		 push	 9
  00469	8b 45 0c	 mov	 eax, DWORD PTR _receiver$[ebp]
  0046c	50		 push	 eax
  0046d	e8 00 00 00 00	 call	 ?check_group_task_type@@YGHPAUENTITY@@H@Z ; check_group_task_type
  00472	85 c0		 test	 eax, eax
  00474	0f 85 2d 01 00
	00		 jne	 $LN8@response_t

; 345  : 			{
; 346  : 				if (group_task_specific_retaliation_checks (receiver, sender, assist))

  0047a	8b 45 f0	 mov	 eax, DWORD PTR _assist$[ebp]
  0047d	50		 push	 eax
  0047e	8b 4d 10	 mov	 ecx, DWORD PTR _sender$[ebp]
  00481	51		 push	 ecx
  00482	8b 55 0c	 mov	 edx, DWORD PTR _receiver$[ebp]
  00485	52		 push	 edx
  00486	e8 00 00 00 00	 call	 ?group_task_specific_retaliation_checks@@YGHPAUENTITY@@0H@Z ; group_task_specific_retaliation_checks
  0048b	85 c0		 test	 eax, eax
  0048d	0f 84 14 01 00
	00		 je	 $LN8@response_t

; 347  : 				{
; 348  : 					ai_log ("(RETALIATION) Group %s Responding to being fired at by %s",

  00493	83 7d 10 00	 cmp	 DWORD PTR _sender$[ebp], 0
  00497	74 0a		 je	 SHORT $LN38@response_t
  00499	8b 45 10	 mov	 eax, DWORD PTR _sender$[ebp]
  0049c	8b 08		 mov	 ecx, DWORD PTR [eax]
  0049e	89 4d ac	 mov	 DWORD PTR tv283[ebp], ecx
  004a1	eb 21		 jmp	 SHORT $LN39@response_t
$LN38@response_t:
  004a3	8b 15 00 00 00
	00		 mov	 edx, DWORD PTR ?__LINE__Var@?0??response_to_entity_fired_at@@YGHW4ENTITY_MESSAGES@@PAUENTITY@@1PAD@Z@4JA
  004a9	83 c2 36	 add	 edx, 54			; 00000036H
  004ac	52		 push	 edx
  004ad	68 00 00 00 00	 push	 OFFSET ??_C@_0EL@PBEBEHIP@c?3?2users?2nhv90?2projects?2eech?2ap@
  004b2	a1 00 00 00 00	 mov	 eax, DWORD PTR ?null_entity_pointer_message@@3PBDB ; null_entity_pointer_message
  004b7	50		 push	 eax
  004b8	e8 00 00 00 00	 call	 ?process_assert@@YGXPBD0H@Z ; process_assert
  004bd	c7 45 ac 00 00
	00 00		 mov	 DWORD PTR tv283[ebp], 0
$LN39@response_t:
  004c4	b9 01 00 00 00	 mov	 ecx, 1
  004c9	85 c9		 test	 ecx, ecx
  004cb	74 09		 je	 SHORT $LN40@response_t
  004cd	c7 45 a8 03 00
	00 00		 mov	 DWORD PTR tv291[ebp], 3
  004d4	eb 21		 jmp	 SHORT $LN41@response_t
$LN40@response_t:
  004d6	8b 15 00 00 00
	00		 mov	 edx, DWORD PTR ?__LINE__Var@?0??response_to_entity_fired_at@@YGHW4ENTITY_MESSAGES@@PAUENTITY@@1PAD@Z@4JA
  004dc	83 c2 36	 add	 edx, 54			; 00000036H
  004df	52		 push	 edx
  004e0	68 00 00 00 00	 push	 OFFSET ??_C@_0EL@PBEBEHIP@c?3?2users?2nhv90?2projects?2eech?2ap@
  004e5	a1 00 00 00 00	 mov	 eax, DWORD PTR ?overload_invalid_string_type_message@@3PBDB ; overload_invalid_string_type_message
  004ea	50		 push	 eax
  004eb	e8 00 00 00 00	 call	 ?process_assert@@YGXPBD0H@Z ; process_assert
  004f0	c7 45 a8 00 00
	00 00		 mov	 DWORD PTR tv291[ebp], 0
$LN41@response_t:
  004f7	83 7d 0c 00	 cmp	 DWORD PTR _receiver$[ebp], 0
  004fb	74 0a		 je	 SHORT $LN42@response_t
  004fd	8b 4d 0c	 mov	 ecx, DWORD PTR _receiver$[ebp]
  00500	8b 11		 mov	 edx, DWORD PTR [ecx]
  00502	89 55 a4	 mov	 DWORD PTR tv304[ebp], edx
  00505	eb 21		 jmp	 SHORT $LN43@response_t
$LN42@response_t:
  00507	a1 00 00 00 00	 mov	 eax, DWORD PTR ?__LINE__Var@?0??response_to_entity_fired_at@@YGHW4ENTITY_MESSAGES@@PAUENTITY@@1PAD@Z@4JA
  0050c	83 c0 35	 add	 eax, 53			; 00000035H
  0050f	50		 push	 eax
  00510	68 00 00 00 00	 push	 OFFSET ??_C@_0EL@PBEBEHIP@c?3?2users?2nhv90?2projects?2eech?2ap@
  00515	8b 0d 00 00 00
	00		 mov	 ecx, DWORD PTR ?null_entity_pointer_message@@3PBDB ; null_entity_pointer_message
  0051b	51		 push	 ecx
  0051c	e8 00 00 00 00	 call	 ?process_assert@@YGXPBD0H@Z ; process_assert
  00521	c7 45 a4 00 00
	00 00		 mov	 DWORD PTR tv304[ebp], 0
$LN43@response_t:
  00528	ba 01 00 00 00	 mov	 edx, 1
  0052d	85 d2		 test	 edx, edx
  0052f	74 09		 je	 SHORT $LN44@response_t
  00531	c7 45 a0 03 00
	00 00		 mov	 DWORD PTR tv312[ebp], 3
  00538	eb 21		 jmp	 SHORT $LN45@response_t
$LN44@response_t:
  0053a	a1 00 00 00 00	 mov	 eax, DWORD PTR ?__LINE__Var@?0??response_to_entity_fired_at@@YGHW4ENTITY_MESSAGES@@PAUENTITY@@1PAD@Z@4JA
  0053f	83 c0 35	 add	 eax, 53			; 00000035H
  00542	50		 push	 eax
  00543	68 00 00 00 00	 push	 OFFSET ??_C@_0EL@PBEBEHIP@c?3?2users?2nhv90?2projects?2eech?2ap@
  00548	8b 0d 00 00 00
	00		 mov	 ecx, DWORD PTR ?overload_invalid_string_type_message@@3PBDB ; overload_invalid_string_type_message
  0054e	51		 push	 ecx
  0054f	e8 00 00 00 00	 call	 ?process_assert@@YGXPBD0H@Z ; process_assert
  00554	c7 45 a0 00 00
	00 00		 mov	 DWORD PTR tv312[ebp], 0
$LN45@response_t:
  0055b	6a 03		 push	 3
  0055d	8b 55 10	 mov	 edx, DWORD PTR _sender$[ebp]
  00560	52		 push	 edx
  00561	6b 45 ac 34	 imul	 eax, DWORD PTR tv283[ebp], 52
  00565	8b 4d a8	 mov	 ecx, DWORD PTR tv291[ebp]
  00568	8b 94 88 00 00
	00 00		 mov	 edx, DWORD PTR ?fn_get_local_entity_string@@3PAY0N@P6GPBDPAUENTITY@@W4STRING_TYPES@@@ZA[eax+ecx*4]
  0056f	ff d2		 call	 edx
  00571	50		 push	 eax
  00572	6a 03		 push	 3
  00574	8b 45 0c	 mov	 eax, DWORD PTR _receiver$[ebp]
  00577	50		 push	 eax
  00578	6b 4d a4 34	 imul	 ecx, DWORD PTR tv304[ebp], 52
  0057c	8b 55 a0	 mov	 edx, DWORD PTR tv312[ebp]
  0057f	8b 84 91 00 00
	00 00		 mov	 eax, DWORD PTR ?fn_get_local_entity_string@@3PAY0N@P6GPBDPAUENTITY@@W4STRING_TYPES@@@ZA[ecx+edx*4]
  00586	ff d0		 call	 eax
  00588	50		 push	 eax
  00589	68 00 00 00 00	 push	 OFFSET ??_C@_0DK@ENAKOJCA@?$CIRETALIATION?$CJ?5Group?5?$CFs?5Respondi@
  0058e	e8 00 00 00 00	 call	 ?ai_log@@YAXPBDZZ	; ai_log
  00593	83 c4 0c	 add	 esp, 12			; 0000000cH

; 349  : 								get_local_entity_string (receiver, STRING_TYPE_FULL_NAME),
; 350  : 								get_local_entity_string (sender, STRING_TYPE_FULL_NAME));
; 351  : 
; 352  : 					engage_specific_target (receiver, sender, TASK_ASSIGN_ALL_MEMBERS, TRUE);

  00596	6a 01		 push	 1
  00598	6a ff		 push	 -1
  0059a	8b 45 10	 mov	 eax, DWORD PTR _sender$[ebp]
  0059d	50		 push	 eax
  0059e	8b 4d 0c	 mov	 ecx, DWORD PTR _receiver$[ebp]
  005a1	51		 push	 ecx
  005a2	e8 00 00 00 00	 call	 ?engage_specific_target@@YGHPAUENTITY@@0IH@Z ; engage_specific_target
$LN8@response_t:

; 353  : 				}
; 354  : 			}
; 355  : 		}
; 356  : 	}
; 357  : 	
; 358  : 	return TRUE;

  005a7	b8 01 00 00 00	 mov	 eax, 1

; 359  : }

  005ac	5f		 pop	 edi
  005ad	5e		 pop	 esi
  005ae	5b		 pop	 ebx
  005af	8b e5		 mov	 esp, ebp
  005b1	5d		 pop	 ebp
  005b2	c2 10 00	 ret	 16			; 00000010H
?response_to_entity_fired_at@@YGHW4ENTITY_MESSAGES@@PAUENTITY@@1PAD@Z ENDP ; response_to_entity_fired_at
_TEXT	ENDS
; Function compile flags: /Odtp /ZI
; File c:\users\nhv90\projects\eech\aphavoc\source\entity\special\group\gp_msgs.c
;	COMDAT ?response_to_link_parent@@YGHW4ENTITY_MESSAGES@@PAUENTITY@@1PAD@Z
_TEXT	SEGMENT
tv67 = -76						; size = 4
_list_type$ = -8					; size = 4
_raw$ = -4						; size = 4
_message$ = 8						; size = 4
_receiver$ = 12						; size = 4
_sender$ = 16						; size = 4
_pargs$ = 20						; size = 4
?response_to_link_parent@@YGHW4ENTITY_MESSAGES@@PAUENTITY@@1PAD@Z PROC ; response_to_link_parent, COMDAT

; 246  : {

  00000	55		 push	 ebp
  00001	8b ec		 mov	 ebp, esp
  00003	83 ec 4c	 sub	 esp, 76			; 0000004cH
  00006	53		 push	 ebx
  00007	56		 push	 esi
  00008	57		 push	 edi

; 247  : 	group
; 248  : 		*raw;
; 249  : 
; 250  : 	list_types
; 251  : 		list_type;
; 252  : 
; 253  : 	#if DEBUG_MODULE >= 2
; 254  : 
; 255  : 	debug_log_entity_message (message, receiver, sender, pargs);
; 256  : 
; 257  : 	#endif
; 258  : 
; 259  : 	raw = (group *) get_local_entity_data (receiver);

  00009	8b 45 0c	 mov	 eax, DWORD PTR _receiver$[ebp]
  0000c	8b 48 04	 mov	 ecx, DWORD PTR [eax+4]
  0000f	89 4d fc	 mov	 DWORD PTR _raw$[ebp], ecx

; 260  : 
; 261  : 	list_type = va_arg (pargs, list_types);

  00012	8b 45 14	 mov	 eax, DWORD PTR _pargs$[ebp]
  00015	83 c0 04	 add	 eax, 4
  00018	89 45 14	 mov	 DWORD PTR _pargs$[ebp], eax
  0001b	8b 4d 14	 mov	 ecx, DWORD PTR _pargs$[ebp]
  0001e	8b 51 fc	 mov	 edx, DWORD PTR [ecx-4]
  00021	89 55 f8	 mov	 DWORD PTR _list_type$[ebp], edx

; 262  : 
; 263  : 	switch (list_type)

  00024	8b 45 f8	 mov	 eax, DWORD PTR _list_type$[ebp]
  00027	89 45 b4	 mov	 DWORD PTR tv67[ebp], eax
  0002a	83 7d b4 0b	 cmp	 DWORD PTR tv67[ebp], 11	; 0000000bH
  0002e	74 02		 je	 SHORT $LN4@response_t
  00030	eb 12		 jmp	 SHORT $LN2@response_t
$LN4@response_t:

; 264  : 	{
; 265  : 		case LIST_TYPE_DIVISION:
; 266  : 		{
; 267  : 			set_local_division_name (receiver, raw->division_name);

  00032	8b 45 fc	 mov	 eax, DWORD PTR _raw$[ebp]
  00035	05 98 00 00 00	 add	 eax, 152		; 00000098H
  0003a	50		 push	 eax
  0003b	8b 4d 0c	 mov	 ecx, DWORD PTR _receiver$[ebp]
  0003e	51		 push	 ecx
  0003f	e8 00 00 00 00	 call	 ?set_local_division_name@@YGHPAUENTITY@@PAD@Z ; set_local_division_name
$LN2@response_t:

; 268  : 
; 269  : 			break;
; 270  : 		}
; 271  : 	}
; 272  : 
; 273  : 	return (TRUE);

  00044	b8 01 00 00 00	 mov	 eax, 1

; 274  : }

  00049	5f		 pop	 edi
  0004a	5e		 pop	 esi
  0004b	5b		 pop	 ebx
  0004c	8b e5		 mov	 esp, ebp
  0004e	5d		 pop	 ebp
  0004f	c2 10 00	 ret	 16			; 00000010H
?response_to_link_parent@@YGHW4ENTITY_MESSAGES@@PAUENTITY@@1PAD@Z ENDP ; response_to_link_parent
_TEXT	ENDS
; Function compile flags: /Odtp /ZI
; File c:\users\nhv90\projects\eech\aphavoc\source\entity\special\group\gp_msgs.c
;	COMDAT ?response_to_unlink_child@@YGHW4ENTITY_MESSAGES@@PAUENTITY@@1PAD@Z
_TEXT	SEGMENT
tv173 = -88						; size = 4
tv149 = -88						; size = 4
tv128 = -88						; size = 4
tv166 = -84						; size = 4
tv141 = -84						; size = 4
tv89 = -84						; size = 4
tv67 = -84						; size = 4
_multiplayer_group$1 = -16				; size = 4
_member$2 = -12						; size = 4
_list_type$ = -8					; size = 4
_raw$ = -4						; size = 4
_message$ = 8						; size = 4
_receiver$ = 12						; size = 4
_sender$ = 16						; size = 4
_pargs$ = 20						; size = 4
?response_to_unlink_child@@YGHW4ENTITY_MESSAGES@@PAUENTITY@@1PAD@Z PROC ; response_to_unlink_child, COMDAT

; 175  : {

  00000	55		 push	 ebp
  00001	8b ec		 mov	 ebp, esp
  00003	83 ec 58	 sub	 esp, 88			; 00000058H
  00006	53		 push	 ebx
  00007	56		 push	 esi
  00008	57		 push	 edi

; 176  : 
; 177  : 	group
; 178  : 		*raw;
; 179  : 
; 180  : 	list_types
; 181  : 		list_type;
; 182  : 
; 183  : 	#if DEBUG_MODULE >= 2
; 184  : 
; 185  : 	debug_log_entity_message (message, receiver, sender, pargs);
; 186  : 
; 187  : 	#endif
; 188  : 
; 189  : 	raw = (group *) get_local_entity_data (receiver);

  00009	8b 45 0c	 mov	 eax, DWORD PTR _receiver$[ebp]
  0000c	8b 48 04	 mov	 ecx, DWORD PTR [eax+4]
  0000f	89 4d fc	 mov	 DWORD PTR _raw$[ebp], ecx

; 190  : 
; 191  : 	list_type = va_arg (pargs, list_types);

  00012	8b 45 14	 mov	 eax, DWORD PTR _pargs$[ebp]
  00015	83 c0 04	 add	 eax, 4
  00018	89 45 14	 mov	 DWORD PTR _pargs$[ebp], eax
  0001b	8b 4d 14	 mov	 ecx, DWORD PTR _pargs$[ebp]
  0001e	8b 51 fc	 mov	 edx, DWORD PTR [ecx-4]
  00021	89 55 f8	 mov	 DWORD PTR _list_type$[ebp], edx

; 192  : 
; 193  : 	switch (list_type)

  00024	8b 45 f8	 mov	 eax, DWORD PTR _list_type$[ebp]
  00027	89 45 ac	 mov	 DWORD PTR tv67[ebp], eax
  0002a	83 7d ac 19	 cmp	 DWORD PTR tv67[ebp], 25	; 00000019H
  0002e	74 05		 je	 SHORT $LN6@response_t
  00030	e9 f8 01 00 00	 jmp	 $LN2@response_t
$LN6@response_t:

; 194  : 	{
; 195  : 
; 196  : 		case LIST_TYPE_MEMBER:
; 197  : 		{
; 198  : 
; 199  : 			entity
; 200  : 				*member;
; 201  : 
; 202  : 			int
; 203  : 				multiplayer_group;
; 204  : 
; 205  : 			raw->member_count --;

  00035	8b 45 fc	 mov	 eax, DWORD PTR _raw$[ebp]
  00038	8b 88 88 00 00
	00		 mov	 ecx, DWORD PTR [eax+136]
  0003e	c1 e9 16	 shr	 ecx, 22			; 00000016H
  00041	83 e1 3f	 and	 ecx, 63			; 0000003fH
  00044	83 e9 01	 sub	 ecx, 1
  00047	83 e1 3f	 and	 ecx, 63			; 0000003fH
  0004a	c1 e1 16	 shl	 ecx, 22			; 00000016H
  0004d	8b 55 fc	 mov	 edx, DWORD PTR _raw$[ebp]
  00050	8b 82 88 00 00
	00		 mov	 eax, DWORD PTR [edx+136]
  00056	25 ff ff 3f f0	 and	 eax, -264241153		; f03fffffH
  0005b	0b c1		 or	 eax, ecx
  0005d	8b 4d fc	 mov	 ecx, DWORD PTR _raw$[ebp]
  00060	89 81 88 00 00
	00		 mov	 DWORD PTR [ecx+136], eax

; 206  : 
; 207  : 			member = raw->member_root.first_child;

  00066	8b 45 fc	 mov	 eax, DWORD PTR _raw$[ebp]
  00069	8b 48 04	 mov	 ecx, DWORD PTR [eax+4]
  0006c	89 4d f4	 mov	 DWORD PTR _member$2[ebp], ecx

; 208  : 
; 209  : 			multiplayer_group = FALSE;

  0006f	c7 45 f0 00 00
	00 00		 mov	 DWORD PTR _multiplayer_group$1[ebp], 0
$LN4@response_t:

; 210  : 
; 211  : 			while (member)

  00076	83 7d f4 00	 cmp	 DWORD PTR _member$2[ebp], 0
  0007a	0f 84 08 01 00
	00		 je	 $LN5@response_t

; 212  : 			{
; 213  : 
; 214  : 				if (get_local_entity_int_value (member, INT_TYPE_PLAYER) != ENTITY_PLAYER_AI)

  00080	83 7d f4 00	 cmp	 DWORD PTR _member$2[ebp], 0
  00084	74 0a		 je	 SHORT $LN10@response_t
  00086	8b 45 f4	 mov	 eax, DWORD PTR _member$2[ebp]
  00089	8b 08		 mov	 ecx, DWORD PTR [eax]
  0008b	89 4d ac	 mov	 DWORD PTR tv89[ebp], ecx
  0008e	eb 1d		 jmp	 SHORT $LN11@response_t
$LN10@response_t:
  00090	68 d6 00 00 00	 push	 214			; 000000d6H
  00095	68 00 00 00 00	 push	 OFFSET ??_C@_0EL@PBEBEHIP@c?3?2users?2nhv90?2projects?2eech?2ap@
  0009a	8b 15 00 00 00
	00		 mov	 edx, DWORD PTR ?null_entity_pointer_message@@3PBDB ; null_entity_pointer_message
  000a0	52		 push	 edx
  000a1	e8 00 00 00 00	 call	 ?process_assert@@YGXPBD0H@Z ; process_assert
  000a6	c7 45 ac 00 00
	00 00		 mov	 DWORD PTR tv89[ebp], 0
$LN11@response_t:
  000ad	b8 01 00 00 00	 mov	 eax, 1
  000b2	85 c0		 test	 eax, eax
  000b4	74 09		 je	 SHORT $LN12@response_t
  000b6	c7 45 a8 9c 00
	00 00		 mov	 DWORD PTR tv128[ebp], 156 ; 0000009cH
  000bd	eb 1d		 jmp	 SHORT $LN13@response_t
$LN12@response_t:
  000bf	68 d6 00 00 00	 push	 214			; 000000d6H
  000c4	68 00 00 00 00	 push	 OFFSET ??_C@_0EL@PBEBEHIP@c?3?2users?2nhv90?2projects?2eech?2ap@
  000c9	8b 0d 00 00 00
	00		 mov	 ecx, DWORD PTR ?overload_invalid_int_type_message@@3PBDB ; overload_invalid_int_type_message
  000cf	51		 push	 ecx
  000d0	e8 00 00 00 00	 call	 ?process_assert@@YGXPBD0H@Z ; process_assert
  000d5	c7 45 a8 00 00
	00 00		 mov	 DWORD PTR tv128[ebp], 0
$LN13@response_t:
  000dc	68 9c 00 00 00	 push	 156			; 0000009cH
  000e1	8b 55 f4	 mov	 edx, DWORD PTR _member$2[ebp]
  000e4	52		 push	 edx
  000e5	69 45 ac 5c 04
	00 00		 imul	 eax, DWORD PTR tv89[ebp], 1116
  000ec	8b 4d a8	 mov	 ecx, DWORD PTR tv128[ebp]
  000ef	8b 94 88 00 00
	00 00		 mov	 edx, DWORD PTR ?fn_get_local_entity_int_value@@3PAY0BBH@P6GHPAUENTITY@@W4INT_TYPES@@@ZA[eax+ecx*4]
  000f6	ff d2		 call	 edx
  000f8	85 c0		 test	 eax, eax
  000fa	74 07		 je	 SHORT $LN7@response_t

; 215  : 				{
; 216  : 
; 217  : 					multiplayer_group = TRUE;

  000fc	c7 45 f0 01 00
	00 00		 mov	 DWORD PTR _multiplayer_group$1[ebp], 1
$LN7@response_t:

; 218  : 				}
; 219  : 
; 220  : 				member = get_local_entity_child_succ (member, LIST_TYPE_MEMBER);

  00103	83 7d f4 00	 cmp	 DWORD PTR _member$2[ebp], 0
  00107	74 0a		 je	 SHORT $LN14@response_t
  00109	8b 45 f4	 mov	 eax, DWORD PTR _member$2[ebp]
  0010c	8b 08		 mov	 ecx, DWORD PTR [eax]
  0010e	89 4d ac	 mov	 DWORD PTR tv141[ebp], ecx
  00111	eb 21		 jmp	 SHORT $LN15@response_t
$LN14@response_t:
  00113	8b 15 00 00 00
	00		 mov	 edx, DWORD PTR ?__LINE__Var@?0??response_to_unlink_child@@YGHW4ENTITY_MESSAGES@@PAUENTITY@@1PAD@Z@4JA
  00119	83 c2 2d	 add	 edx, 45			; 0000002dH
  0011c	52		 push	 edx
  0011d	68 00 00 00 00	 push	 OFFSET ??_C@_0EL@PBEBEHIP@c?3?2users?2nhv90?2projects?2eech?2ap@
  00122	a1 00 00 00 00	 mov	 eax, DWORD PTR ?null_entity_pointer_message@@3PBDB ; null_entity_pointer_message
  00127	50		 push	 eax
  00128	e8 00 00 00 00	 call	 ?process_assert@@YGXPBD0H@Z ; process_assert
  0012d	c7 45 ac 00 00
	00 00		 mov	 DWORD PTR tv141[ebp], 0
$LN15@response_t:
  00134	b9 01 00 00 00	 mov	 ecx, 1
  00139	85 c9		 test	 ecx, ecx
  0013b	74 09		 je	 SHORT $LN16@response_t
  0013d	c7 45 a8 19 00
	00 00		 mov	 DWORD PTR tv149[ebp], 25 ; 00000019H
  00144	eb 21		 jmp	 SHORT $LN17@response_t
$LN16@response_t:
  00146	8b 15 00 00 00
	00		 mov	 edx, DWORD PTR ?__LINE__Var@?0??response_to_unlink_child@@YGHW4ENTITY_MESSAGES@@PAUENTITY@@1PAD@Z@4JA
  0014c	83 c2 2d	 add	 edx, 45			; 0000002dH
  0014f	52		 push	 edx
  00150	68 00 00 00 00	 push	 OFFSET ??_C@_0EL@PBEBEHIP@c?3?2users?2nhv90?2projects?2eech?2ap@
  00155	a1 00 00 00 00	 mov	 eax, DWORD PTR ?overload_invalid_list_type_message@@3PBDB ; overload_invalid_list_type_message
  0015a	50		 push	 eax
  0015b	e8 00 00 00 00	 call	 ?process_assert@@YGXPBD0H@Z ; process_assert
  00160	c7 45 a8 00 00
	00 00		 mov	 DWORD PTR tv149[ebp], 0
$LN17@response_t:
  00167	6a 19		 push	 25			; 00000019H
  00169	8b 4d f4	 mov	 ecx, DWORD PTR _member$2[ebp]
  0016c	51		 push	 ecx
  0016d	69 55 ac b4 00
	00 00		 imul	 edx, DWORD PTR tv141[ebp], 180
  00174	8b 45 a8	 mov	 eax, DWORD PTR tv149[ebp]
  00177	8b 8c 82 00 00
	00 00		 mov	 ecx, DWORD PTR ?fn_get_local_entity_child_succ@@3PAY0CN@P6GPAUENTITY@@PAU1@W4LIST_TYPES@@@ZA[edx+eax*4]
  0017e	ff d1		 call	 ecx
  00180	89 45 f4	 mov	 DWORD PTR _member$2[ebp], eax

; 221  : 			}

  00183	e9 ee fe ff ff	 jmp	 $LN4@response_t
$LN5@response_t:

; 222  : 
; 223  : 			raw->multiplayer_group = multiplayer_group;

  00188	8b 45 f0	 mov	 eax, DWORD PTR _multiplayer_group$1[ebp]
  0018b	83 e0 01	 and	 eax, 1
  0018e	c1 e0 1c	 shl	 eax, 28			; 0000001cH
  00191	8b 4d fc	 mov	 ecx, DWORD PTR _raw$[ebp]
  00194	8b 91 88 00 00
	00		 mov	 edx, DWORD PTR [ecx+136]
  0019a	81 e2 ff ff ff
	ef		 and	 edx, -268435457		; efffffffH
  001a0	0b d0		 or	 edx, eax
  001a2	8b 45 fc	 mov	 eax, DWORD PTR _raw$[ebp]
  001a5	89 90 88 00 00
	00		 mov	 DWORD PTR [eax+136], edx

; 224  : 
; 225  : 			//
; 226  : 			// if group parent is a keysite, remove members stats from keysite strength
; 227  : 			//
; 228  : 
; 229  : 			if (get_local_entity_int_value (sender, INT_TYPE_IDENTIFY_FIXED))

  001ab	83 7d 10 00	 cmp	 DWORD PTR _sender$[ebp], 0
  001af	74 0a		 je	 SHORT $LN18@response_t
  001b1	8b 45 10	 mov	 eax, DWORD PTR _sender$[ebp]
  001b4	8b 08		 mov	 ecx, DWORD PTR [eax]
  001b6	89 4d ac	 mov	 DWORD PTR tv166[ebp], ecx
  001b9	eb 1d		 jmp	 SHORT $LN19@response_t
$LN18@response_t:
  001bb	68 e5 00 00 00	 push	 229			; 000000e5H
  001c0	68 00 00 00 00	 push	 OFFSET ??_C@_0EL@PBEBEHIP@c?3?2users?2nhv90?2projects?2eech?2ap@
  001c5	8b 15 00 00 00
	00		 mov	 edx, DWORD PTR ?null_entity_pointer_message@@3PBDB ; null_entity_pointer_message
  001cb	52		 push	 edx
  001cc	e8 00 00 00 00	 call	 ?process_assert@@YGXPBD0H@Z ; process_assert
  001d1	c7 45 ac 00 00
	00 00		 mov	 DWORD PTR tv166[ebp], 0
$LN19@response_t:
  001d8	b8 01 00 00 00	 mov	 eax, 1
  001dd	85 c0		 test	 eax, eax
  001df	74 09		 je	 SHORT $LN20@response_t
  001e1	c7 45 a8 5a 00
	00 00		 mov	 DWORD PTR tv173[ebp], 90 ; 0000005aH
  001e8	eb 1d		 jmp	 SHORT $LN21@response_t
$LN20@response_t:
  001ea	68 e5 00 00 00	 push	 229			; 000000e5H
  001ef	68 00 00 00 00	 push	 OFFSET ??_C@_0EL@PBEBEHIP@c?3?2users?2nhv90?2projects?2eech?2ap@
  001f4	8b 0d 00 00 00
	00		 mov	 ecx, DWORD PTR ?overload_invalid_int_type_message@@3PBDB ; overload_invalid_int_type_message
  001fa	51		 push	 ecx
  001fb	e8 00 00 00 00	 call	 ?process_assert@@YGXPBD0H@Z ; process_assert
  00200	c7 45 a8 00 00
	00 00		 mov	 DWORD PTR tv173[ebp], 0
$LN21@response_t:
  00207	6a 5a		 push	 90			; 0000005aH
  00209	8b 55 10	 mov	 edx, DWORD PTR _sender$[ebp]
  0020c	52		 push	 edx
  0020d	69 45 ac 5c 04
	00 00		 imul	 eax, DWORD PTR tv166[ebp], 1116
  00214	8b 4d a8	 mov	 ecx, DWORD PTR tv173[ebp]
  00217	8b 94 88 00 00
	00 00		 mov	 edx, DWORD PTR ?fn_get_local_entity_int_value@@3PAY0BBH@P6GHPAUENTITY@@W4INT_TYPES@@@ZA[eax+ecx*4]
  0021e	ff d2		 call	 edx
  00220	85 c0		 test	 eax, eax
  00222	74 09		 je	 SHORT $LN2@response_t

; 230  : 			{
; 231  : 				subtract_local_entity_importance_from_keysite (sender);

  00224	8b 45 10	 mov	 eax, DWORD PTR _sender$[ebp]
  00227	50		 push	 eax
  00228	e8 00 00 00 00	 call	 ?subtract_local_entity_importance_from_keysite@@YGXPAUENTITY@@@Z ; subtract_local_entity_importance_from_keysite
$LN2@response_t:

; 232  : 			}
; 233  : 
; 234  : 			break;
; 235  : 		}
; 236  : 	}
; 237  : 
; 238  : 	return (TRUE);

  0022d	b8 01 00 00 00	 mov	 eax, 1

; 239  : }

  00232	5f		 pop	 edi
  00233	5e		 pop	 esi
  00234	5b		 pop	 ebx
  00235	8b e5		 mov	 esp, ebp
  00237	5d		 pop	 ebp
  00238	c2 10 00	 ret	 16			; 00000010H
?response_to_unlink_child@@YGHW4ENTITY_MESSAGES@@PAUENTITY@@1PAD@Z ENDP ; response_to_unlink_child
_TEXT	ENDS
; Function compile flags: /Odtp /ZI
; File c:\users\nhv90\projects\eech\aphavoc\source\entity\special\group\gp_msgs.c
;	COMDAT ?response_to_link_child@@YGHW4ENTITY_MESSAGES@@PAUENTITY@@1PAD@Z
_TEXT	SEGMENT
tv196 = -84						; size = 4
tv168 = -84						; size = 4
tv147 = -84						; size = 4
tv93 = -84						; size = 4
tv189 = -80						; size = 4
tv180 = -80						; size = 4
tv160 = -80						; size = 4
tv140 = -80						; size = 4
tv86 = -80						; size = 4
tv67 = -80						; size = 4
_parent$1 = -12						; size = 4
_list_type$ = -8					; size = 4
_raw$ = -4						; size = 4
_message$ = 8						; size = 4
_receiver$ = 12						; size = 4
_sender$ = 16						; size = 4
_pargs$ = 20						; size = 4
?response_to_link_child@@YGHW4ENTITY_MESSAGES@@PAUENTITY@@1PAD@Z PROC ; response_to_link_child, COMDAT

; 90   : {

  00000	55		 push	 ebp
  00001	8b ec		 mov	 ebp, esp
  00003	83 ec 54	 sub	 esp, 84			; 00000054H
  00006	53		 push	 ebx
  00007	56		 push	 esi
  00008	57		 push	 edi

; 91   : 
; 92   : 	group
; 93   : 		*raw;
; 94   : 
; 95   : 	list_types
; 96   : 		list_type;
; 97   : 
; 98   : 	#if DEBUG_MODULE >= 2
; 99   : 
; 100  : 	debug_log_entity_message (message, receiver, sender, pargs);
; 101  : 
; 102  : 	#endif
; 103  : 
; 104  : 	raw = (group *) get_local_entity_data (receiver);

  00009	8b 45 0c	 mov	 eax, DWORD PTR _receiver$[ebp]
  0000c	8b 48 04	 mov	 ecx, DWORD PTR [eax+4]
  0000f	89 4d fc	 mov	 DWORD PTR _raw$[ebp], ecx

; 105  : 
; 106  : 	list_type = va_arg (pargs, list_types);

  00012	8b 45 14	 mov	 eax, DWORD PTR _pargs$[ebp]
  00015	83 c0 04	 add	 eax, 4
  00018	89 45 14	 mov	 DWORD PTR _pargs$[ebp], eax
  0001b	8b 4d 14	 mov	 ecx, DWORD PTR _pargs$[ebp]
  0001e	8b 51 fc	 mov	 edx, DWORD PTR [ecx-4]
  00021	89 55 f8	 mov	 DWORD PTR _list_type$[ebp], edx

; 107  : 
; 108  : 	switch (list_type)

  00024	8b 45 f8	 mov	 eax, DWORD PTR _list_type$[ebp]
  00027	89 45 b0	 mov	 DWORD PTR tv67[ebp], eax
  0002a	83 7d b0 19	 cmp	 DWORD PTR tv67[ebp], 25	; 00000019H
  0002e	74 05		 je	 SHORT $LN4@response_t
  00030	e9 8c 02 00 00	 jmp	 $LN2@response_t
$LN4@response_t:

; 109  : 	{
; 110  : 
; 111  : 		case LIST_TYPE_MEMBER:
; 112  : 		{
; 113  : 
; 114  : 			raw->member_count ++;

  00035	8b 45 fc	 mov	 eax, DWORD PTR _raw$[ebp]
  00038	8b 88 88 00 00
	00		 mov	 ecx, DWORD PTR [eax+136]
  0003e	c1 e9 16	 shr	 ecx, 22			; 00000016H
  00041	83 e1 3f	 and	 ecx, 63			; 0000003fH
  00044	83 c1 01	 add	 ecx, 1
  00047	83 e1 3f	 and	 ecx, 63			; 0000003fH
  0004a	c1 e1 16	 shl	 ecx, 22			; 00000016H
  0004d	8b 55 fc	 mov	 edx, DWORD PTR _raw$[ebp]
  00050	8b 82 88 00 00
	00		 mov	 eax, DWORD PTR [edx+136]
  00056	25 ff ff 3f f0	 and	 eax, -264241153		; f03fffffH
  0005b	0b c1		 or	 eax, ecx
  0005d	8b 4d fc	 mov	 ecx, DWORD PTR _raw$[ebp]
  00060	89 81 88 00 00
	00		 mov	 DWORD PTR [ecx+136], eax

; 115  : 
; 116  : 			#if DEBUG_MODULE
; 117  : 			{
; 118  : 	
; 119  : 				int
; 120  : 					count;
; 121  : 
; 122  : 				count = get_local_group_member_count (receiver);
; 123  : 	
; 124  : 				ASSERT (count == raw->member_count);
; 125  : 			}
; 126  : 			#endif
; 127  : 
; 128  : 			if (get_local_entity_int_value (sender, INT_TYPE_PLAYER) != ENTITY_PLAYER_AI)

  00066	83 7d 10 00	 cmp	 DWORD PTR _sender$[ebp], 0
  0006a	74 0a		 je	 SHORT $LN11@response_t
  0006c	8b 45 10	 mov	 eax, DWORD PTR _sender$[ebp]
  0006f	8b 08		 mov	 ecx, DWORD PTR [eax]
  00071	89 4d b0	 mov	 DWORD PTR tv86[ebp], ecx
  00074	eb 1d		 jmp	 SHORT $LN12@response_t
$LN11@response_t:
  00076	68 80 00 00 00	 push	 128			; 00000080H
  0007b	68 00 00 00 00	 push	 OFFSET ??_C@_0EL@PBEBEHIP@c?3?2users?2nhv90?2projects?2eech?2ap@
  00080	8b 15 00 00 00
	00		 mov	 edx, DWORD PTR ?null_entity_pointer_message@@3PBDB ; null_entity_pointer_message
  00086	52		 push	 edx
  00087	e8 00 00 00 00	 call	 ?process_assert@@YGXPBD0H@Z ; process_assert
  0008c	c7 45 b0 00 00
	00 00		 mov	 DWORD PTR tv86[ebp], 0
$LN12@response_t:
  00093	b8 01 00 00 00	 mov	 eax, 1
  00098	85 c0		 test	 eax, eax
  0009a	74 09		 je	 SHORT $LN13@response_t
  0009c	c7 45 ac 9c 00
	00 00		 mov	 DWORD PTR tv93[ebp], 156 ; 0000009cH
  000a3	eb 1d		 jmp	 SHORT $LN14@response_t
$LN13@response_t:
  000a5	68 80 00 00 00	 push	 128			; 00000080H
  000aa	68 00 00 00 00	 push	 OFFSET ??_C@_0EL@PBEBEHIP@c?3?2users?2nhv90?2projects?2eech?2ap@
  000af	8b 0d 00 00 00
	00		 mov	 ecx, DWORD PTR ?overload_invalid_int_type_message@@3PBDB ; overload_invalid_int_type_message
  000b5	51		 push	 ecx
  000b6	e8 00 00 00 00	 call	 ?process_assert@@YGXPBD0H@Z ; process_assert
  000bb	c7 45 ac 00 00
	00 00		 mov	 DWORD PTR tv93[ebp], 0
$LN14@response_t:
  000c2	68 9c 00 00 00	 push	 156			; 0000009cH
  000c7	8b 55 10	 mov	 edx, DWORD PTR _sender$[ebp]
  000ca	52		 push	 edx
  000cb	69 45 b0 5c 04
	00 00		 imul	 eax, DWORD PTR tv86[ebp], 1116
  000d2	8b 4d ac	 mov	 ecx, DWORD PTR tv93[ebp]
  000d5	8b 94 88 00 00
	00 00		 mov	 edx, DWORD PTR ?fn_get_local_entity_int_value@@3PAY0BBH@P6GHPAUENTITY@@W4INT_TYPES@@@ZA[eax+ecx*4]
  000dc	ff d2		 call	 edx
  000de	85 c0		 test	 eax, eax
  000e0	74 18		 je	 SHORT $LN5@response_t

; 129  : 			{
; 130  : 
; 131  : 				raw->multiplayer_group = TRUE;

  000e2	8b 45 fc	 mov	 eax, DWORD PTR _raw$[ebp]
  000e5	8b 88 88 00 00
	00		 mov	 ecx, DWORD PTR [eax+136]
  000eb	81 c9 00 00 00
	10		 or	 ecx, 268435456		; 10000000H
  000f1	8b 55 fc	 mov	 edx, DWORD PTR _raw$[ebp]
  000f4	89 8a 88 00 00
	00		 mov	 DWORD PTR [edx+136], ecx
$LN5@response_t:

; 132  : 			}
; 133  : 
; 134  : 			//
; 135  : 			// if group parent is a keysite, add members stats to keysite strength
; 136  : 			//
; 137  : 
; 138  : 			if (get_local_entity_int_value (sender, INT_TYPE_IDENTIFY_FIXED))

  000fa	83 7d 10 00	 cmp	 DWORD PTR _sender$[ebp], 0
  000fe	74 0a		 je	 SHORT $LN15@response_t
  00100	8b 45 10	 mov	 eax, DWORD PTR _sender$[ebp]
  00103	8b 08		 mov	 ecx, DWORD PTR [eax]
  00105	89 4d b0	 mov	 DWORD PTR tv140[ebp], ecx
  00108	eb 1d		 jmp	 SHORT $LN16@response_t
$LN15@response_t:
  0010a	68 8a 00 00 00	 push	 138			; 0000008aH
  0010f	68 00 00 00 00	 push	 OFFSET ??_C@_0EL@PBEBEHIP@c?3?2users?2nhv90?2projects?2eech?2ap@
  00114	8b 15 00 00 00
	00		 mov	 edx, DWORD PTR ?null_entity_pointer_message@@3PBDB ; null_entity_pointer_message
  0011a	52		 push	 edx
  0011b	e8 00 00 00 00	 call	 ?process_assert@@YGXPBD0H@Z ; process_assert
  00120	c7 45 b0 00 00
	00 00		 mov	 DWORD PTR tv140[ebp], 0
$LN16@response_t:
  00127	b8 01 00 00 00	 mov	 eax, 1
  0012c	85 c0		 test	 eax, eax
  0012e	74 09		 je	 SHORT $LN17@response_t
  00130	c7 45 ac 5a 00
	00 00		 mov	 DWORD PTR tv147[ebp], 90 ; 0000005aH
  00137	eb 1d		 jmp	 SHORT $LN18@response_t
$LN17@response_t:
  00139	68 8a 00 00 00	 push	 138			; 0000008aH
  0013e	68 00 00 00 00	 push	 OFFSET ??_C@_0EL@PBEBEHIP@c?3?2users?2nhv90?2projects?2eech?2ap@
  00143	8b 0d 00 00 00
	00		 mov	 ecx, DWORD PTR ?overload_invalid_int_type_message@@3PBDB ; overload_invalid_int_type_message
  00149	51		 push	 ecx
  0014a	e8 00 00 00 00	 call	 ?process_assert@@YGXPBD0H@Z ; process_assert
  0014f	c7 45 ac 00 00
	00 00		 mov	 DWORD PTR tv147[ebp], 0
$LN18@response_t:
  00156	6a 5a		 push	 90			; 0000005aH
  00158	8b 55 10	 mov	 edx, DWORD PTR _sender$[ebp]
  0015b	52		 push	 edx
  0015c	69 45 b0 5c 04
	00 00		 imul	 eax, DWORD PTR tv140[ebp], 1116
  00163	8b 4d ac	 mov	 ecx, DWORD PTR tv147[ebp]
  00166	8b 94 88 00 00
	00 00		 mov	 edx, DWORD PTR ?fn_get_local_entity_int_value@@3PAY0BBH@P6GHPAUENTITY@@W4INT_TYPES@@@ZA[eax+ecx*4]
  0016d	ff d2		 call	 edx
  0016f	85 c0		 test	 eax, eax
  00171	0f 84 c6 00 00
	00		 je	 $LN6@response_t

; 139  : 			{
; 140  : 				entity
; 141  : 					*parent;
; 142  : 
; 143  : 				parent = get_local_entity_parent (receiver, LIST_TYPE_BUILDING_GROUP);

  00177	83 7d 0c 00	 cmp	 DWORD PTR _receiver$[ebp], 0
  0017b	74 0a		 je	 SHORT $LN19@response_t
  0017d	8b 45 0c	 mov	 eax, DWORD PTR _receiver$[ebp]
  00180	8b 08		 mov	 ecx, DWORD PTR [eax]
  00182	89 4d b0	 mov	 DWORD PTR tv160[ebp], ecx
  00185	eb 21		 jmp	 SHORT $LN20@response_t
$LN19@response_t:
  00187	8b 15 00 00 00
	00		 mov	 edx, DWORD PTR ?__LINE__Var@?0??response_to_link_child@@YGHW4ENTITY_MESSAGES@@PAUENTITY@@1PAD@Z@4JA
  0018d	83 c2 35	 add	 edx, 53			; 00000035H
  00190	52		 push	 edx
  00191	68 00 00 00 00	 push	 OFFSET ??_C@_0EL@PBEBEHIP@c?3?2users?2nhv90?2projects?2eech?2ap@
  00196	a1 00 00 00 00	 mov	 eax, DWORD PTR ?null_entity_pointer_message@@3PBDB ; null_entity_pointer_message
  0019b	50		 push	 eax
  0019c	e8 00 00 00 00	 call	 ?process_assert@@YGXPBD0H@Z ; process_assert
  001a1	c7 45 b0 00 00
	00 00		 mov	 DWORD PTR tv160[ebp], 0
$LN20@response_t:
  001a8	b9 01 00 00 00	 mov	 ecx, 1
  001ad	85 c9		 test	 ecx, ecx
  001af	74 09		 je	 SHORT $LN21@response_t
  001b1	c7 45 ac 04 00
	00 00		 mov	 DWORD PTR tv168[ebp], 4
  001b8	eb 21		 jmp	 SHORT $LN22@response_t
$LN21@response_t:
  001ba	8b 15 00 00 00
	00		 mov	 edx, DWORD PTR ?__LINE__Var@?0??response_to_link_child@@YGHW4ENTITY_MESSAGES@@PAUENTITY@@1PAD@Z@4JA
  001c0	83 c2 35	 add	 edx, 53			; 00000035H
  001c3	52		 push	 edx
  001c4	68 00 00 00 00	 push	 OFFSET ??_C@_0EL@PBEBEHIP@c?3?2users?2nhv90?2projects?2eech?2ap@
  001c9	a1 00 00 00 00	 mov	 eax, DWORD PTR ?overload_invalid_list_type_message@@3PBDB ; overload_invalid_list_type_message
  001ce	50		 push	 eax
  001cf	e8 00 00 00 00	 call	 ?process_assert@@YGXPBD0H@Z ; process_assert
  001d4	c7 45 ac 00 00
	00 00		 mov	 DWORD PTR tv168[ebp], 0
$LN22@response_t:
  001db	6a 04		 push	 4
  001dd	8b 4d 0c	 mov	 ecx, DWORD PTR _receiver$[ebp]
  001e0	51		 push	 ecx
  001e1	69 55 b0 b4 00
	00 00		 imul	 edx, DWORD PTR tv160[ebp], 180
  001e8	8b 45 ac	 mov	 eax, DWORD PTR tv168[ebp]
  001eb	8b 8c 82 00 00
	00 00		 mov	 ecx, DWORD PTR ?fn_get_local_entity_parent@@3PAY0CN@P6GPAUENTITY@@PAU1@W4LIST_TYPES@@@ZA[edx+eax*4]
  001f2	ff d1		 call	 ecx
  001f4	89 45 f4	 mov	 DWORD PTR _parent$1[ebp], eax

; 144  : 
; 145  : 				if (parent)

  001f7	83 7d f4 00	 cmp	 DWORD PTR _parent$1[ebp], 0
  001fb	74 40		 je	 SHORT $LN6@response_t

; 146  : 				{
; 147  : 					if (get_local_entity_type (parent) == ENTITY_TYPE_KEYSITE)

  001fd	83 7d f4 00	 cmp	 DWORD PTR _parent$1[ebp], 0
  00201	74 0a		 je	 SHORT $LN23@response_t
  00203	8b 45 f4	 mov	 eax, DWORD PTR _parent$1[ebp]
  00206	8b 08		 mov	 ecx, DWORD PTR [eax]
  00208	89 4d b0	 mov	 DWORD PTR tv180[ebp], ecx
  0020b	eb 1d		 jmp	 SHORT $LN24@response_t
$LN23@response_t:
  0020d	68 93 00 00 00	 push	 147			; 00000093H
  00212	68 00 00 00 00	 push	 OFFSET ??_C@_0EL@PBEBEHIP@c?3?2users?2nhv90?2projects?2eech?2ap@
  00217	8b 15 00 00 00
	00		 mov	 edx, DWORD PTR ?null_entity_pointer_message@@3PBDB ; null_entity_pointer_message
  0021d	52		 push	 edx
  0021e	e8 00 00 00 00	 call	 ?process_assert@@YGXPBD0H@Z ; process_assert
  00223	c7 45 b0 00 00
	00 00		 mov	 DWORD PTR tv180[ebp], 0
$LN24@response_t:
  0022a	83 7d b0 0f	 cmp	 DWORD PTR tv180[ebp], 15 ; 0000000fH
  0022e	75 0d		 jne	 SHORT $LN6@response_t

; 148  : 					{
; 149  : 						add_local_entity_importance_to_keysite (sender, parent);

  00230	8b 45 f4	 mov	 eax, DWORD PTR _parent$1[ebp]
  00233	50		 push	 eax
  00234	8b 4d 10	 mov	 ecx, DWORD PTR _sender$[ebp]
  00237	51		 push	 ecx
  00238	e8 00 00 00 00	 call	 ?add_local_entity_importance_to_keysite@@YGHPAUENTITY@@0@Z ; add_local_entity_importance_to_keysite
$LN6@response_t:

; 150  : 					}
; 151  : 				}
; 152  : 			}
; 153  : 
; 154  : 			//
; 155  : 			// if member is a mobile, notify the campaign screen of the change
; 156  : 			//
; 157  : 
; 158  : 			if (get_local_entity_int_value (sender, INT_TYPE_IDENTIFY_MOBILE))

  0023d	83 7d 10 00	 cmp	 DWORD PTR _sender$[ebp], 0
  00241	74 0a		 je	 SHORT $LN25@response_t
  00243	8b 45 10	 mov	 eax, DWORD PTR _sender$[ebp]
  00246	8b 08		 mov	 ecx, DWORD PTR [eax]
  00248	89 4d b0	 mov	 DWORD PTR tv189[ebp], ecx
  0024b	eb 1d		 jmp	 SHORT $LN26@response_t
$LN25@response_t:
  0024d	68 9e 00 00 00	 push	 158			; 0000009eH
  00252	68 00 00 00 00	 push	 OFFSET ??_C@_0EL@PBEBEHIP@c?3?2users?2nhv90?2projects?2eech?2ap@
  00257	8b 15 00 00 00
	00		 mov	 edx, DWORD PTR ?null_entity_pointer_message@@3PBDB ; null_entity_pointer_message
  0025d	52		 push	 edx
  0025e	e8 00 00 00 00	 call	 ?process_assert@@YGXPBD0H@Z ; process_assert
  00263	c7 45 b0 00 00
	00 00		 mov	 DWORD PTR tv189[ebp], 0
$LN26@response_t:
  0026a	b8 01 00 00 00	 mov	 eax, 1
  0026f	85 c0		 test	 eax, eax
  00271	74 09		 je	 SHORT $LN27@response_t
  00273	c7 45 ac 5d 00
	00 00		 mov	 DWORD PTR tv196[ebp], 93 ; 0000005dH
  0027a	eb 1d		 jmp	 SHORT $LN28@response_t
$LN27@response_t:
  0027c	68 9e 00 00 00	 push	 158			; 0000009eH
  00281	68 00 00 00 00	 push	 OFFSET ??_C@_0EL@PBEBEHIP@c?3?2users?2nhv90?2projects?2eech?2ap@
  00286	8b 0d 00 00 00
	00		 mov	 ecx, DWORD PTR ?overload_invalid_int_type_message@@3PBDB ; overload_invalid_int_type_message
  0028c	51		 push	 ecx
  0028d	e8 00 00 00 00	 call	 ?process_assert@@YGXPBD0H@Z ; process_assert
  00292	c7 45 ac 00 00
	00 00		 mov	 DWORD PTR tv196[ebp], 0
$LN28@response_t:
  00299	6a 5d		 push	 93			; 0000005dH
  0029b	8b 55 10	 mov	 edx, DWORD PTR _sender$[ebp]
  0029e	52		 push	 edx
  0029f	69 45 b0 5c 04
	00 00		 imul	 eax, DWORD PTR tv189[ebp], 1116
  002a6	8b 4d ac	 mov	 ecx, DWORD PTR tv196[ebp]
  002a9	8b 94 88 00 00
	00 00		 mov	 edx, DWORD PTR ?fn_get_local_entity_int_value@@3PAY0BBH@P6GHPAUENTITY@@W4INT_TYPES@@@ZA[eax+ecx*4]
  002b0	ff d2		 call	 edx
  002b2	85 c0		 test	 eax, eax
  002b4	74 0b		 je	 SHORT $LN2@response_t

; 159  : 			{
; 160  : 				notify_campaign_screen (CAMPAIGN_SCREEN_GROUP_ADD_MEMBER, sender);

  002b6	8b 45 10	 mov	 eax, DWORD PTR _sender$[ebp]
  002b9	50		 push	 eax
  002ba	6a 07		 push	 7
  002bc	e8 00 00 00 00	 call	 ?notify_campaign_screen@@YGHW4CAMPAIGN_SCREEN_MESSAGES@@PAUENTITY@@@Z ; notify_campaign_screen
$LN2@response_t:

; 161  : 			}
; 162  : 
; 163  : 			break;
; 164  : 		}
; 165  : 	}
; 166  : 
; 167  : 	return (TRUE);

  002c1	b8 01 00 00 00	 mov	 eax, 1

; 168  : }

  002c6	5f		 pop	 edi
  002c7	5e		 pop	 esi
  002c8	5b		 pop	 ebx
  002c9	8b e5		 mov	 esp, ebp
  002cb	5d		 pop	 ebp
  002cc	c2 10 00	 ret	 16			; 00000010H
?response_to_link_child@@YGHW4ENTITY_MESSAGES@@PAUENTITY@@1PAD@Z ENDP ; response_to_link_child
_TEXT	ENDS
; Function compile flags: /Odtp /ZI
; File c:\users\nhv90\projects\eech\aphavoc\source\entity\special\group\gp_msgs.c
;	COMDAT ?overload_group_message_responses@@YGXXZ
_TEXT	SEGMENT
?overload_group_message_responses@@YGXXZ PROC		; overload_group_message_responses, COMDAT

; 1393 : {

  00000	55		 push	 ebp
  00001	8b ec		 mov	 ebp, esp
  00003	83 ec 40	 sub	 esp, 64			; 00000040H
  00006	53		 push	 ebx
  00007	56		 push	 esi
  00008	57		 push	 edi

; 1394 : 
; 1395 : 	message_responses[ENTITY_TYPE_GROUP][ENTITY_MESSAGE_LINK_CHILD] 					= response_to_link_child;

  00009	b8 84 01 00 00	 mov	 eax, 388		; 00000184H
  0000e	6b c8 0c	 imul	 ecx, eax, 12
  00011	ba 04 00 00 00	 mov	 edx, 4
  00016	6b c2 23	 imul	 eax, edx, 35
  00019	c7 84 01 00 00
	00 00 00 00 00
	00		 mov	 DWORD PTR ?message_responses@@3PAY0GB@P6GHW4ENTITY_MESSAGES@@PAUENTITY@@1PAD@ZA[ecx+eax], OFFSET ?response_to_link_child@@YGHW4ENTITY_MESSAGES@@PAUENTITY@@1PAD@Z ; response_to_link_child

; 1396 : 
; 1397 : 	message_responses[ENTITY_TYPE_GROUP][ENTITY_MESSAGE_UNLINK_CHILD]					= response_to_unlink_child;

  00024	b8 84 01 00 00	 mov	 eax, 388		; 00000184H
  00029	6b c8 0c	 imul	 ecx, eax, 12
  0002c	ba 04 00 00 00	 mov	 edx, 4
  00031	6b c2 37	 imul	 eax, edx, 55
  00034	c7 84 01 00 00
	00 00 00 00 00
	00		 mov	 DWORD PTR ?message_responses@@3PAY0GB@P6GHW4ENTITY_MESSAGES@@PAUENTITY@@1PAD@ZA[ecx+eax], OFFSET ?response_to_unlink_child@@YGHW4ENTITY_MESSAGES@@PAUENTITY@@1PAD@Z ; response_to_unlink_child

; 1398 : 
; 1399 : 	message_responses[ENTITY_TYPE_GROUP][ENTITY_MESSAGE_LINK_PARENT]					= response_to_link_parent;

  0003f	b8 84 01 00 00	 mov	 eax, 388		; 00000184H
  00044	6b c8 0c	 imul	 ecx, eax, 12
  00047	ba 04 00 00 00	 mov	 edx, 4
  0004c	6b c2 24	 imul	 eax, edx, 36
  0004f	c7 84 01 00 00
	00 00 00 00 00
	00		 mov	 DWORD PTR ?message_responses@@3PAY0GB@P6GHW4ENTITY_MESSAGES@@PAUENTITY@@1PAD@ZA[ecx+eax], OFFSET ?response_to_link_parent@@YGHW4ENTITY_MESSAGES@@PAUENTITY@@1PAD@Z ; response_to_link_parent

; 1400 : 
; 1401 : 	#if DEBUG_MODULE >= 2
; 1402 : 
; 1403 : 	message_responses[ENTITY_TYPE_GROUP][ENTITY_MESSAGE_UNLINK_PARENT]				= response_to_unlink_parent;
; 1404 : 
; 1405 : 	#endif
; 1406 : 
; 1407 : 	message_responses[ENTITY_TYPE_GROUP][ENTITY_MESSAGE_ENTITY_FIRED_AT]				= response_to_entity_fired_at;

  0005a	b8 84 01 00 00	 mov	 eax, 388		; 00000184H
  0005f	6b c8 0c	 imul	 ecx, eax, 12
  00062	ba 04 00 00 00	 mov	 edx, 4
  00067	6b c2 0d	 imul	 eax, edx, 13
  0006a	c7 84 01 00 00
	00 00 00 00 00
	00		 mov	 DWORD PTR ?message_responses@@3PAY0GB@P6GHW4ENTITY_MESSAGES@@PAUENTITY@@1PAD@ZA[ecx+eax], OFFSET ?response_to_entity_fired_at@@YGHW4ENTITY_MESSAGES@@PAUENTITY@@1PAD@Z ; response_to_entity_fired_at

; 1408 : 
; 1409 : 	message_responses[ENTITY_TYPE_GROUP][ENTITY_MESSAGE_ENTITY_TARGETED]				= response_to_entity_targeted;

  00075	b8 84 01 00 00	 mov	 eax, 388		; 00000184H
  0007a	6b c8 0c	 imul	 ecx, eax, 12
  0007d	ba 04 00 00 00	 mov	 edx, 4
  00082	6b c2 0e	 imul	 eax, edx, 14
  00085	c7 84 01 00 00
	00 00 00 00 00
	00		 mov	 DWORD PTR ?message_responses@@3PAY0GB@P6GHW4ENTITY_MESSAGES@@PAUENTITY@@1PAD@ZA[ecx+eax], OFFSET ?response_to_entity_targeted@@YGHW4ENTITY_MESSAGES@@PAUENTITY@@1PAD@Z ; response_to_entity_targeted

; 1410 : 
; 1411 : 	message_responses[ENTITY_TYPE_GROUP][ENTITY_MESSAGE_GROUND_FORCE_ADVANCE]		= response_to_ground_force_advance;

  00090	b8 84 01 00 00	 mov	 eax, 388		; 00000184H
  00095	6b c8 0c	 imul	 ecx, eax, 12
  00098	ba 04 00 00 00	 mov	 edx, 4
  0009d	6b c2 1d	 imul	 eax, edx, 29
  000a0	c7 84 01 00 00
	00 00 00 00 00
	00		 mov	 DWORD PTR ?message_responses@@3PAY0GB@P6GHW4ENTITY_MESSAGES@@PAUENTITY@@1PAD@ZA[ecx+eax], OFFSET ?response_to_ground_force_advance@@YGHW4ENTITY_MESSAGES@@PAUENTITY@@1PAD@Z ; response_to_ground_force_advance

; 1412 : 
; 1413 : 	message_responses[ENTITY_TYPE_GROUP][ENTITY_MESSAGE_GROUND_FORCE_RETREAT]		= response_to_ground_force_retreat;

  000ab	b8 84 01 00 00	 mov	 eax, 388		; 00000184H
  000b0	6b c8 0c	 imul	 ecx, eax, 12
  000b3	ba 04 00 00 00	 mov	 edx, 4
  000b8	6b c2 1e	 imul	 eax, edx, 30
  000bb	c7 84 01 00 00
	00 00 00 00 00
	00		 mov	 DWORD PTR ?message_responses@@3PAY0GB@P6GHW4ENTITY_MESSAGES@@PAUENTITY@@1PAD@ZA[ecx+eax], OFFSET ?response_to_ground_force_retreat@@YGHW4ENTITY_MESSAGES@@PAUENTITY@@1PAD@Z ; response_to_ground_force_retreat

; 1414 : 
; 1415 : 	message_responses[ENTITY_TYPE_GROUP][ENTITY_MESSAGE_TASK_COMPLETED]				= response_to_task_completed;

  000c6	b8 84 01 00 00	 mov	 eax, 388		; 00000184H
  000cb	6b c8 0c	 imul	 ecx, eax, 12
  000ce	ba 04 00 00 00	 mov	 edx, 4
  000d3	6b c2 32	 imul	 eax, edx, 50
  000d6	c7 84 01 00 00
	00 00 00 00 00
	00		 mov	 DWORD PTR ?message_responses@@3PAY0GB@P6GHW4ENTITY_MESSAGES@@PAUENTITY@@1PAD@ZA[ecx+eax], OFFSET ?response_to_task_completed@@YGHW4ENTITY_MESSAGES@@PAUENTITY@@1PAD@Z ; response_to_task_completed

; 1416 : 
; 1417 : 	message_responses[ENTITY_TYPE_GROUP][ENTITY_MESSAGE_TASK_TERMINATED]				= response_to_task_terminated;

  000e1	b8 84 01 00 00	 mov	 eax, 388		; 00000184H
  000e6	6b c8 0c	 imul	 ecx, eax, 12
  000e9	ba 04 00 00 00	 mov	 edx, 4
  000ee	6b c2 36	 imul	 eax, edx, 54
  000f1	c7 84 01 00 00
	00 00 00 00 00
	00		 mov	 DWORD PTR ?message_responses@@3PAY0GB@P6GHW4ENTITY_MESSAGES@@PAUENTITY@@1PAD@ZA[ecx+eax], OFFSET ?response_to_task_terminated@@YGHW4ENTITY_MESSAGES@@PAUENTITY@@1PAD@Z ; response_to_task_terminated

; 1418 : 
; 1419 : 	message_responses[ENTITY_TYPE_GROUP][ENTITY_MESSAGE_MOBILE_KILLED]				= response_to_mobile_killed;

  000fc	b8 84 01 00 00	 mov	 eax, 388		; 00000184H
  00101	6b c8 0c	 imul	 ecx, eax, 12
  00104	ba 04 00 00 00	 mov	 edx, 4
  00109	6b c2 28	 imul	 eax, edx, 40
  0010c	c7 84 01 00 00
	00 00 00 00 00
	00		 mov	 DWORD PTR ?message_responses@@3PAY0GB@P6GHW4ENTITY_MESSAGES@@PAUENTITY@@1PAD@ZA[ecx+eax], OFFSET ?response_to_mobile_killed@@YGHW4ENTITY_MESSAGES@@PAUENTITY@@1PAD@Z ; response_to_mobile_killed

; 1420 : }

  00117	5f		 pop	 edi
  00118	5e		 pop	 esi
  00119	5b		 pop	 ebx
  0011a	8b e5		 mov	 esp, ebp
  0011c	5d		 pop	 ebp
  0011d	c3		 ret	 0
?overload_group_message_responses@@YGXXZ ENDP		; overload_group_message_responses
_TEXT	ENDS
END
