; Listing generated by Microsoft (R) Optimizing Compiler Version 19.16.27045.0 

	TITLE	C:\Users\nhv90\Projects\eech\aphavoc\source\entity\special\group\group.c
	.686P
	.XMM
	include listing.inc
	.model	flat

INCLUDELIB MSVCRTD
INCLUDELIB OLDNAMES

PUBLIC	?group_callsign_names@@3PAUGROUP_CALLSIGN_NAME_TYPE@@A ; group_callsign_names
PUBLIC	??_C@_05INJOKMGD@Angel@				; `string'
PUBLIC	??_C@_06ECPHLOIG@Apollo@			; `string'
PUBLIC	??_C@_06LFBADCEI@Archer@			; `string'
PUBLIC	??_C@_07PICMBPKH@Banshee@			; `string'
PUBLIC	??_C@_0L@MEJDOLNL@Bloodhound@			; `string'
PUBLIC	??_C@_07LBLCFOMO@Bulldog@			; `string'
PUBLIC	??_C@_07DAMIFFEP@Charger@			; `string'
PUBLIC	??_C@_07IMBBPGLN@Cheetah@			; `string'
PUBLIC	??_C@_09HFHEFMOM@Chieftain@			; `string'
PUBLIC	??_C@_05GGCPBPFC@Cobra@				; `string'
PUBLIC	??_C@_05BAJAFMOF@Comet@				; `string'
PUBLIC	??_C@_06CCBGMMPL@Condor@			; `string'
PUBLIC	??_C@_06CNANOIIM@Cougar@			; `string'
PUBLIC	??_C@_06IJHJLPBP@Cowboy@			; `string'
PUBLIC	??_C@_09NHDGGHBB@Darkhorse@			; `string'
PUBLIC	??_C@_05PKJPALPB@Demon@				; `string'
PUBLIC	??_C@_06LCCDMAOM@Dodger@			; `string'
PUBLIC	??_C@_06COGLIGFC@Dragon@			; `string'
PUBLIC	??_C@_05EKEMPJGC@Eagle@				; `string'
PUBLIC	??_C@_0L@KPKAOMBH@Eight?9Ball@			; `string'
PUBLIC	??_C@_08GBDKHDHI@Farsight@			; `string'
PUBLIC	??_C@_08LAPJNHAD@Fireball@			; `string'
PUBLIC	??_C@_08KLCMPLJO@Firebird@			; `string'
PUBLIC	??_C@_07MGBJGBAB@Firefox@			; `string'
PUBLIC	??_C@_0L@FPMNLDO@Freelancer@			; `string'
PUBLIC	??_C@_05ECONJKNH@Gator@				; `string'
PUBLIC	??_C@_08ELAHAPJB@Gauntlet@			; `string'
PUBLIC	??_C@_0L@CFIAOBNI@Ghostrider@			; `string'
PUBLIC	??_C@_09IIIKJBPO@Gladiator@			; `string'
PUBLIC	??_C@_07FCCJLMDG@Goliath@			; `string'
PUBLIC	??_C@_05GKHKCKKK@Goose@				; `string'
PUBLIC	??_C@_07PKPDAOLG@Hawkeye@			; `string'
PUBLIC	??_C@_07LBAKIKOJ@Hellcat@			; `string'
PUBLIC	??_C@_06NPNCGLLF@Hunter@			; `string'
PUBLIC	??_C@_06GCKPJHNJ@Jaguar@			; `string'
PUBLIC	??_C@_06NDOLCLDE@Jester@			; `string'
PUBLIC	??_C@_07LEJIDMLG@Jupiter@			; `string'
PUBLIC	??_C@_0L@HBEGIEOA@Juggernaut@			; `string'
PUBLIC	??_C@_07PACCOBHI@Kestrel@			; `string'
PUBLIC	??_C@_06HOBEGAAN@Lancer@			; `string'
PUBLIC	??_C@_04NOBJAHLG@Lima@				; `string'
PUBLIC	??_C@_06ODAOAABB@Maniac@			; `string'
PUBLIC	??_C@_06FKMMMLK@Mantis@				; `string'
PUBLIC	??_C@_06JHDANNHM@Mauler@			; `string'
PUBLIC	??_C@_07JMNKBLJA@Mercury@			; `string'
PUBLIC	??_C@_06FBOMOHED@Merlin@			; `string'
PUBLIC	??_C@_07NMJILPAB@Milkman@			; `string'
PUBLIC	??_C@_07PMJOLKGK@Mustang@			; `string'
PUBLIC	??_C@_09DDMFHDNE@Nightmare@			; `string'
PUBLIC	??_C@_07HBBBHBHH@Panther@			; `string'
PUBLIC	??_C@_07LPGNOABP@Patriot@			; `string'
PUBLIC	??_C@_07OFINGKDN@Phantom@			; `string'
PUBLIC	??_C@_07KEMLBHAB@Phoenix@			; `string'
PUBLIC	??_C@_08OMOCEDLJ@Preacher@			; `string'
PUBLIC	??_C@_06CHFOMGOI@Python@			; `string'
PUBLIC	??_C@_06FGHMEEIN@Raptor@			; `string'
PUBLIC	??_C@_0M@LNDBEIHA@Rattlesnake@			; `string'
PUBLIC	??_C@_09EAPIDKNL@Razorback@			; `string'
PUBLIC	??_C@_0L@BBNNMEOA@Razorworks@			; `string'
PUBLIC	??_C@_06BCJIKKCI@Reaper@			; `string'
PUBLIC	??_C@_08KBDFECAK@Renegade@			; `string'
PUBLIC	??_C@_05LOKFGGKM@Sabre@				; `string'
PUBLIC	??_C@_06BDBMMIBK@Savage@			; `string'
PUBLIC	??_C@_06KHOKADBJ@Shadow@			; `string'
PUBLIC	??_C@_07BLNFDIEN@Sheriff@			; `string'
PUBLIC	??_C@_06IANOJNCI@Shogun@			; `string'
PUBLIC	??_C@_08BEHMIHLK@Snowball@			; `string'
PUBLIC	??_C@_09FHKNOJJG@Spartakus@			; `string'
PUBLIC	??_C@_08OGJKIIIN@Spectrum@			; `string'
PUBLIC	??_C@_07HJALAEIF@Stalker@			; `string'
PUBLIC	??_C@_08LCPMOHG@Stingray@			; `string'
PUBLIC	??_C@_07DEKJPLMA@Striker@			; `string'
PUBLIC	??_C@_07GIONELDB@Sundown@			; `string'
PUBLIC	??_C@_09ENFBHKI@Swamp?9Fox@			; `string'
PUBLIC	??_C@_07MOJLCPGJ@Tempest@			; `string'
PUBLIC	??_C@_0M@IEKADNOM@Tiger?9Shark@			; `string'
PUBLIC	??_C@_09DACOLFFB@Touchdown@			; `string'
PUBLIC	??_C@_07GADMPKJI@Vampire@			; `string'
PUBLIC	??_C@_07HDHBEBBE@Vertigo@			; `string'
PUBLIC	??_C@_09NHFALIGP@Vigilante@			; `string'
PUBLIC	??_C@_06MNFEEHAB@Viking@			; `string'
PUBLIC	??_C@_05DIOCBCKJ@Viper@				; `string'
PUBLIC	??_C@_06NFPMDKDO@Voodoo@			; `string'
PUBLIC	??_C@_06LOEDEFOB@Vulcan@			; `string'
PUBLIC	??_C@_07NHLONPAH@Vulture@			; `string'
PUBLIC	??_C@_07FNAKILNO@Warlock@			; `string'
PUBLIC	??_C@_07MHHGFOFG@Warlord@			; `string'
PUBLIC	??_C@_07DFKLKNJN@Warrior@			; `string'
PUBLIC	??_C@_07ODEBIINL@Wildcat@			; `string'
PUBLIC	??_C@_08CCGFAIJD@Wolfpack@			; `string'
PUBLIC	??_C@_0BE@CLCBKHBL@NUM_GROUP_CALLSIGNS@		; `string'
;	COMDAT ??_C@_0BE@CLCBKHBL@NUM_GROUP_CALLSIGNS@
CONST	SEGMENT
??_C@_0BE@CLCBKHBL@NUM_GROUP_CALLSIGNS@ DB 'NUM_GROUP_CALLSIGNS', 00H ; `string'
CONST	ENDS
;	COMDAT ??_C@_08CCGFAIJD@Wolfpack@
CONST	SEGMENT
??_C@_08CCGFAIJD@Wolfpack@ DB 'Wolfpack', 00H		; `string'
CONST	ENDS
;	COMDAT ??_C@_07ODEBIINL@Wildcat@
CONST	SEGMENT
??_C@_07ODEBIINL@Wildcat@ DB 'Wildcat', 00H		; `string'
CONST	ENDS
;	COMDAT ??_C@_07DFKLKNJN@Warrior@
CONST	SEGMENT
??_C@_07DFKLKNJN@Warrior@ DB 'Warrior', 00H		; `string'
CONST	ENDS
;	COMDAT ??_C@_07MHHGFOFG@Warlord@
CONST	SEGMENT
??_C@_07MHHGFOFG@Warlord@ DB 'Warlord', 00H		; `string'
CONST	ENDS
;	COMDAT ??_C@_07FNAKILNO@Warlock@
CONST	SEGMENT
??_C@_07FNAKILNO@Warlock@ DB 'Warlock', 00H		; `string'
CONST	ENDS
;	COMDAT ??_C@_07NHLONPAH@Vulture@
CONST	SEGMENT
??_C@_07NHLONPAH@Vulture@ DB 'Vulture', 00H		; `string'
CONST	ENDS
;	COMDAT ??_C@_06LOEDEFOB@Vulcan@
CONST	SEGMENT
??_C@_06LOEDEFOB@Vulcan@ DB 'Vulcan', 00H		; `string'
CONST	ENDS
;	COMDAT ??_C@_06NFPMDKDO@Voodoo@
CONST	SEGMENT
??_C@_06NFPMDKDO@Voodoo@ DB 'Voodoo', 00H		; `string'
CONST	ENDS
;	COMDAT ??_C@_05DIOCBCKJ@Viper@
CONST	SEGMENT
??_C@_05DIOCBCKJ@Viper@ DB 'Viper', 00H			; `string'
CONST	ENDS
;	COMDAT ??_C@_06MNFEEHAB@Viking@
CONST	SEGMENT
??_C@_06MNFEEHAB@Viking@ DB 'Viking', 00H		; `string'
CONST	ENDS
;	COMDAT ??_C@_09NHFALIGP@Vigilante@
CONST	SEGMENT
??_C@_09NHFALIGP@Vigilante@ DB 'Vigilante', 00H		; `string'
CONST	ENDS
;	COMDAT ??_C@_07HDHBEBBE@Vertigo@
CONST	SEGMENT
??_C@_07HDHBEBBE@Vertigo@ DB 'Vertigo', 00H		; `string'
CONST	ENDS
;	COMDAT ??_C@_07GADMPKJI@Vampire@
CONST	SEGMENT
??_C@_07GADMPKJI@Vampire@ DB 'Vampire', 00H		; `string'
CONST	ENDS
;	COMDAT ??_C@_09DACOLFFB@Touchdown@
CONST	SEGMENT
??_C@_09DACOLFFB@Touchdown@ DB 'Touchdown', 00H		; `string'
CONST	ENDS
;	COMDAT ??_C@_0M@IEKADNOM@Tiger?9Shark@
CONST	SEGMENT
??_C@_0M@IEKADNOM@Tiger?9Shark@ DB 'Tiger-Shark', 00H	; `string'
CONST	ENDS
;	COMDAT ??_C@_07MOJLCPGJ@Tempest@
CONST	SEGMENT
??_C@_07MOJLCPGJ@Tempest@ DB 'Tempest', 00H		; `string'
CONST	ENDS
;	COMDAT ??_C@_09ENFBHKI@Swamp?9Fox@
CONST	SEGMENT
??_C@_09ENFBHKI@Swamp?9Fox@ DB 'Swamp-Fox', 00H		; `string'
CONST	ENDS
;	COMDAT ??_C@_07GIONELDB@Sundown@
CONST	SEGMENT
??_C@_07GIONELDB@Sundown@ DB 'Sundown', 00H		; `string'
CONST	ENDS
;	COMDAT ??_C@_07DEKJPLMA@Striker@
CONST	SEGMENT
??_C@_07DEKJPLMA@Striker@ DB 'Striker', 00H		; `string'
CONST	ENDS
;	COMDAT ??_C@_08LCPMOHG@Stingray@
CONST	SEGMENT
??_C@_08LCPMOHG@Stingray@ DB 'Stingray', 00H		; `string'
CONST	ENDS
;	COMDAT ??_C@_07HJALAEIF@Stalker@
CONST	SEGMENT
??_C@_07HJALAEIF@Stalker@ DB 'Stalker', 00H		; `string'
CONST	ENDS
;	COMDAT ??_C@_08OGJKIIIN@Spectrum@
CONST	SEGMENT
??_C@_08OGJKIIIN@Spectrum@ DB 'Spectrum', 00H		; `string'
CONST	ENDS
;	COMDAT ??_C@_09FHKNOJJG@Spartakus@
CONST	SEGMENT
??_C@_09FHKNOJJG@Spartakus@ DB 'Spartakus', 00H		; `string'
CONST	ENDS
;	COMDAT ??_C@_08BEHMIHLK@Snowball@
CONST	SEGMENT
??_C@_08BEHMIHLK@Snowball@ DB 'Snowball', 00H		; `string'
CONST	ENDS
;	COMDAT ??_C@_06IANOJNCI@Shogun@
CONST	SEGMENT
??_C@_06IANOJNCI@Shogun@ DB 'Shogun', 00H		; `string'
CONST	ENDS
;	COMDAT ??_C@_07BLNFDIEN@Sheriff@
CONST	SEGMENT
??_C@_07BLNFDIEN@Sheriff@ DB 'Sheriff', 00H		; `string'
CONST	ENDS
;	COMDAT ??_C@_06KHOKADBJ@Shadow@
CONST	SEGMENT
??_C@_06KHOKADBJ@Shadow@ DB 'Shadow', 00H		; `string'
CONST	ENDS
;	COMDAT ??_C@_06BDBMMIBK@Savage@
CONST	SEGMENT
??_C@_06BDBMMIBK@Savage@ DB 'Savage', 00H		; `string'
CONST	ENDS
;	COMDAT ??_C@_05LOKFGGKM@Sabre@
CONST	SEGMENT
??_C@_05LOKFGGKM@Sabre@ DB 'Sabre', 00H			; `string'
CONST	ENDS
;	COMDAT ??_C@_08KBDFECAK@Renegade@
CONST	SEGMENT
??_C@_08KBDFECAK@Renegade@ DB 'Renegade', 00H		; `string'
CONST	ENDS
;	COMDAT ??_C@_06BCJIKKCI@Reaper@
CONST	SEGMENT
??_C@_06BCJIKKCI@Reaper@ DB 'Reaper', 00H		; `string'
CONST	ENDS
;	COMDAT ??_C@_0L@BBNNMEOA@Razorworks@
CONST	SEGMENT
??_C@_0L@BBNNMEOA@Razorworks@ DB 'Razorworks', 00H	; `string'
CONST	ENDS
;	COMDAT ??_C@_09EAPIDKNL@Razorback@
CONST	SEGMENT
??_C@_09EAPIDKNL@Razorback@ DB 'Razorback', 00H		; `string'
CONST	ENDS
;	COMDAT ??_C@_0M@LNDBEIHA@Rattlesnake@
CONST	SEGMENT
??_C@_0M@LNDBEIHA@Rattlesnake@ DB 'Rattlesnake', 00H	; `string'
CONST	ENDS
;	COMDAT ??_C@_06FGHMEEIN@Raptor@
CONST	SEGMENT
??_C@_06FGHMEEIN@Raptor@ DB 'Raptor', 00H		; `string'
CONST	ENDS
;	COMDAT ??_C@_06CHFOMGOI@Python@
CONST	SEGMENT
??_C@_06CHFOMGOI@Python@ DB 'Python', 00H		; `string'
CONST	ENDS
;	COMDAT ??_C@_08OMOCEDLJ@Preacher@
CONST	SEGMENT
??_C@_08OMOCEDLJ@Preacher@ DB 'Preacher', 00H		; `string'
CONST	ENDS
;	COMDAT ??_C@_07KEMLBHAB@Phoenix@
CONST	SEGMENT
??_C@_07KEMLBHAB@Phoenix@ DB 'Phoenix', 00H		; `string'
CONST	ENDS
;	COMDAT ??_C@_07OFINGKDN@Phantom@
CONST	SEGMENT
??_C@_07OFINGKDN@Phantom@ DB 'Phantom', 00H		; `string'
CONST	ENDS
;	COMDAT ??_C@_07LPGNOABP@Patriot@
CONST	SEGMENT
??_C@_07LPGNOABP@Patriot@ DB 'Patriot', 00H		; `string'
CONST	ENDS
;	COMDAT ??_C@_07HBBBHBHH@Panther@
CONST	SEGMENT
??_C@_07HBBBHBHH@Panther@ DB 'Panther', 00H		; `string'
CONST	ENDS
;	COMDAT ??_C@_09DDMFHDNE@Nightmare@
CONST	SEGMENT
??_C@_09DDMFHDNE@Nightmare@ DB 'Nightmare', 00H		; `string'
CONST	ENDS
;	COMDAT ??_C@_07PMJOLKGK@Mustang@
CONST	SEGMENT
??_C@_07PMJOLKGK@Mustang@ DB 'Mustang', 00H		; `string'
CONST	ENDS
;	COMDAT ??_C@_07NMJILPAB@Milkman@
CONST	SEGMENT
??_C@_07NMJILPAB@Milkman@ DB 'Milkman', 00H		; `string'
CONST	ENDS
;	COMDAT ??_C@_06FBOMOHED@Merlin@
CONST	SEGMENT
??_C@_06FBOMOHED@Merlin@ DB 'Merlin', 00H		; `string'
CONST	ENDS
;	COMDAT ??_C@_07JMNKBLJA@Mercury@
CONST	SEGMENT
??_C@_07JMNKBLJA@Mercury@ DB 'Mercury', 00H		; `string'
CONST	ENDS
;	COMDAT ??_C@_06JHDANNHM@Mauler@
CONST	SEGMENT
??_C@_06JHDANNHM@Mauler@ DB 'Mauler', 00H		; `string'
CONST	ENDS
;	COMDAT ??_C@_06FKMMMLK@Mantis@
CONST	SEGMENT
??_C@_06FKMMMLK@Mantis@ DB 'Mantis', 00H		; `string'
CONST	ENDS
;	COMDAT ??_C@_06ODAOAABB@Maniac@
CONST	SEGMENT
??_C@_06ODAOAABB@Maniac@ DB 'Maniac', 00H		; `string'
CONST	ENDS
;	COMDAT ??_C@_04NOBJAHLG@Lima@
CONST	SEGMENT
??_C@_04NOBJAHLG@Lima@ DB 'Lima', 00H			; `string'
CONST	ENDS
;	COMDAT ??_C@_06HOBEGAAN@Lancer@
CONST	SEGMENT
??_C@_06HOBEGAAN@Lancer@ DB 'Lancer', 00H		; `string'
CONST	ENDS
;	COMDAT ??_C@_07PACCOBHI@Kestrel@
CONST	SEGMENT
??_C@_07PACCOBHI@Kestrel@ DB 'Kestrel', 00H		; `string'
CONST	ENDS
;	COMDAT ??_C@_0L@HBEGIEOA@Juggernaut@
CONST	SEGMENT
??_C@_0L@HBEGIEOA@Juggernaut@ DB 'Juggernaut', 00H	; `string'
CONST	ENDS
;	COMDAT ??_C@_07LEJIDMLG@Jupiter@
CONST	SEGMENT
??_C@_07LEJIDMLG@Jupiter@ DB 'Jupiter', 00H		; `string'
CONST	ENDS
;	COMDAT ??_C@_06NDOLCLDE@Jester@
CONST	SEGMENT
??_C@_06NDOLCLDE@Jester@ DB 'Jester', 00H		; `string'
CONST	ENDS
;	COMDAT ??_C@_06GCKPJHNJ@Jaguar@
CONST	SEGMENT
??_C@_06GCKPJHNJ@Jaguar@ DB 'Jaguar', 00H		; `string'
CONST	ENDS
;	COMDAT ??_C@_06NPNCGLLF@Hunter@
CONST	SEGMENT
??_C@_06NPNCGLLF@Hunter@ DB 'Hunter', 00H		; `string'
CONST	ENDS
;	COMDAT ??_C@_07LBAKIKOJ@Hellcat@
CONST	SEGMENT
??_C@_07LBAKIKOJ@Hellcat@ DB 'Hellcat', 00H		; `string'
CONST	ENDS
;	COMDAT ??_C@_07PKPDAOLG@Hawkeye@
CONST	SEGMENT
??_C@_07PKPDAOLG@Hawkeye@ DB 'Hawkeye', 00H		; `string'
CONST	ENDS
;	COMDAT ??_C@_05GKHKCKKK@Goose@
CONST	SEGMENT
??_C@_05GKHKCKKK@Goose@ DB 'Goose', 00H			; `string'
CONST	ENDS
;	COMDAT ??_C@_07FCCJLMDG@Goliath@
CONST	SEGMENT
??_C@_07FCCJLMDG@Goliath@ DB 'Goliath', 00H		; `string'
CONST	ENDS
;	COMDAT ??_C@_09IIIKJBPO@Gladiator@
CONST	SEGMENT
??_C@_09IIIKJBPO@Gladiator@ DB 'Gladiator', 00H		; `string'
CONST	ENDS
;	COMDAT ??_C@_0L@CFIAOBNI@Ghostrider@
CONST	SEGMENT
??_C@_0L@CFIAOBNI@Ghostrider@ DB 'Ghostrider', 00H	; `string'
CONST	ENDS
;	COMDAT ??_C@_08ELAHAPJB@Gauntlet@
CONST	SEGMENT
??_C@_08ELAHAPJB@Gauntlet@ DB 'Gauntlet', 00H		; `string'
CONST	ENDS
;	COMDAT ??_C@_05ECONJKNH@Gator@
CONST	SEGMENT
??_C@_05ECONJKNH@Gator@ DB 'Gator', 00H			; `string'
CONST	ENDS
;	COMDAT ??_C@_0L@FPMNLDO@Freelancer@
CONST	SEGMENT
??_C@_0L@FPMNLDO@Freelancer@ DB 'Freelancer', 00H	; `string'
CONST	ENDS
;	COMDAT ??_C@_07MGBJGBAB@Firefox@
CONST	SEGMENT
??_C@_07MGBJGBAB@Firefox@ DB 'Firefox', 00H		; `string'
CONST	ENDS
;	COMDAT ??_C@_08KLCMPLJO@Firebird@
CONST	SEGMENT
??_C@_08KLCMPLJO@Firebird@ DB 'Firebird', 00H		; `string'
CONST	ENDS
;	COMDAT ??_C@_08LAPJNHAD@Fireball@
CONST	SEGMENT
??_C@_08LAPJNHAD@Fireball@ DB 'Fireball', 00H		; `string'
CONST	ENDS
;	COMDAT ??_C@_08GBDKHDHI@Farsight@
CONST	SEGMENT
??_C@_08GBDKHDHI@Farsight@ DB 'Farsight', 00H		; `string'
CONST	ENDS
;	COMDAT ??_C@_0L@KPKAOMBH@Eight?9Ball@
CONST	SEGMENT
??_C@_0L@KPKAOMBH@Eight?9Ball@ DB 'Eight-Ball', 00H	; `string'
CONST	ENDS
;	COMDAT ??_C@_05EKEMPJGC@Eagle@
CONST	SEGMENT
??_C@_05EKEMPJGC@Eagle@ DB 'Eagle', 00H			; `string'
CONST	ENDS
;	COMDAT ??_C@_06COGLIGFC@Dragon@
CONST	SEGMENT
??_C@_06COGLIGFC@Dragon@ DB 'Dragon', 00H		; `string'
CONST	ENDS
;	COMDAT ??_C@_06LCCDMAOM@Dodger@
CONST	SEGMENT
??_C@_06LCCDMAOM@Dodger@ DB 'Dodger', 00H		; `string'
CONST	ENDS
;	COMDAT ??_C@_05PKJPALPB@Demon@
CONST	SEGMENT
??_C@_05PKJPALPB@Demon@ DB 'Demon', 00H			; `string'
CONST	ENDS
;	COMDAT ??_C@_09NHDGGHBB@Darkhorse@
CONST	SEGMENT
??_C@_09NHDGGHBB@Darkhorse@ DB 'Darkhorse', 00H		; `string'
CONST	ENDS
;	COMDAT ??_C@_06IJHJLPBP@Cowboy@
CONST	SEGMENT
??_C@_06IJHJLPBP@Cowboy@ DB 'Cowboy', 00H		; `string'
CONST	ENDS
;	COMDAT ??_C@_06CNANOIIM@Cougar@
CONST	SEGMENT
??_C@_06CNANOIIM@Cougar@ DB 'Cougar', 00H		; `string'
CONST	ENDS
;	COMDAT ??_C@_06CCBGMMPL@Condor@
CONST	SEGMENT
??_C@_06CCBGMMPL@Condor@ DB 'Condor', 00H		; `string'
CONST	ENDS
;	COMDAT ??_C@_05BAJAFMOF@Comet@
CONST	SEGMENT
??_C@_05BAJAFMOF@Comet@ DB 'Comet', 00H			; `string'
CONST	ENDS
;	COMDAT ??_C@_05GGCPBPFC@Cobra@
CONST	SEGMENT
??_C@_05GGCPBPFC@Cobra@ DB 'Cobra', 00H			; `string'
CONST	ENDS
;	COMDAT ??_C@_09HFHEFMOM@Chieftain@
CONST	SEGMENT
??_C@_09HFHEFMOM@Chieftain@ DB 'Chieftain', 00H		; `string'
CONST	ENDS
;	COMDAT ??_C@_07IMBBPGLN@Cheetah@
CONST	SEGMENT
??_C@_07IMBBPGLN@Cheetah@ DB 'Cheetah', 00H		; `string'
CONST	ENDS
;	COMDAT ??_C@_07DAMIFFEP@Charger@
CONST	SEGMENT
??_C@_07DAMIFFEP@Charger@ DB 'Charger', 00H		; `string'
CONST	ENDS
;	COMDAT ??_C@_07LBLCFOMO@Bulldog@
CONST	SEGMENT
??_C@_07LBLCFOMO@Bulldog@ DB 'Bulldog', 00H		; `string'
CONST	ENDS
;	COMDAT ??_C@_0L@MEJDOLNL@Bloodhound@
CONST	SEGMENT
??_C@_0L@MEJDOLNL@Bloodhound@ DB 'Bloodhound', 00H	; `string'
CONST	ENDS
;	COMDAT ??_C@_07PICMBPKH@Banshee@
CONST	SEGMENT
??_C@_07PICMBPKH@Banshee@ DB 'Banshee', 00H		; `string'
CONST	ENDS
;	COMDAT ??_C@_06LFBADCEI@Archer@
CONST	SEGMENT
??_C@_06LFBADCEI@Archer@ DB 'Archer', 00H		; `string'
CONST	ENDS
;	COMDAT ??_C@_06ECPHLOIG@Apollo@
CONST	SEGMENT
??_C@_06ECPHLOIG@Apollo@ DB 'Apollo', 00H		; `string'
CONST	ENDS
;	COMDAT ??_C@_05INJOKMGD@Angel@
CONST	SEGMENT
??_C@_05INJOKMGD@Angel@ DB 'Angel', 00H			; `string'
CONST	ENDS
_DATA	SEGMENT
?group_callsign_names@@3PAUGROUP_CALLSIGN_NAME_TYPE@@A DD FLAT:??_C@_05INJOKMGD@Angel@ ; group_callsign_names
	DB	00H
	DB	00H
	DB	00H
	ORG $+1
	DD	FLAT:??_C@_06ECPHLOIG@Apollo@
	DB	00H
	DB	00H
	DB	00H
	ORG $+1
	DD	FLAT:??_C@_06LFBADCEI@Archer@
	DB	00H
	DB	00H
	DB	00H
	ORG $+1
	DD	FLAT:??_C@_07PICMBPKH@Banshee@
	DB	00H
	DB	00H
	DB	00H
	ORG $+1
	DD	FLAT:??_C@_0L@MEJDOLNL@Bloodhound@
	DB	00H
	DB	00H
	DB	00H
	ORG $+1
	DD	FLAT:??_C@_07LBLCFOMO@Bulldog@
	DB	00H
	DB	00H
	DB	00H
	ORG $+1
	DD	FLAT:??_C@_07DAMIFFEP@Charger@
	DB	00H
	DB	00H
	DB	00H
	ORG $+1
	DD	FLAT:??_C@_07IMBBPGLN@Cheetah@
	DB	00H
	DB	00H
	DB	00H
	ORG $+1
	DD	FLAT:??_C@_09HFHEFMOM@Chieftain@
	DB	00H
	DB	00H
	DB	00H
	ORG $+1
	DD	FLAT:??_C@_05GGCPBPFC@Cobra@
	DB	00H
	DB	00H
	DB	00H
	ORG $+1
	DD	FLAT:??_C@_05BAJAFMOF@Comet@
	DB	00H
	DB	00H
	DB	00H
	ORG $+1
	DD	FLAT:??_C@_06CCBGMMPL@Condor@
	DB	00H
	DB	00H
	DB	00H
	ORG $+1
	DD	FLAT:??_C@_06CNANOIIM@Cougar@
	DB	00H
	DB	00H
	DB	00H
	ORG $+1
	DD	FLAT:??_C@_06IJHJLPBP@Cowboy@
	DB	00H
	DB	00H
	DB	00H
	ORG $+1
	DD	FLAT:??_C@_09NHDGGHBB@Darkhorse@
	DB	00H
	DB	00H
	DB	00H
	ORG $+1
	DD	FLAT:??_C@_05PKJPALPB@Demon@
	DB	00H
	DB	00H
	DB	00H
	ORG $+1
	DD	FLAT:??_C@_06LCCDMAOM@Dodger@
	DB	00H
	DB	00H
	DB	00H
	ORG $+1
	DD	FLAT:??_C@_06COGLIGFC@Dragon@
	DB	00H
	DB	00H
	DB	00H
	ORG $+1
	DD	FLAT:??_C@_05EKEMPJGC@Eagle@
	DB	00H
	DB	00H
	DB	00H
	ORG $+1
	DD	FLAT:??_C@_0L@KPKAOMBH@Eight?9Ball@
	DB	00H
	DB	00H
	DB	00H
	ORG $+1
	DD	FLAT:??_C@_08GBDKHDHI@Farsight@
	DB	00H
	DB	00H
	DB	00H
	ORG $+1
	DD	FLAT:??_C@_08LAPJNHAD@Fireball@
	DB	00H
	DB	00H
	DB	00H
	ORG $+1
	DD	FLAT:??_C@_08KLCMPLJO@Firebird@
	DB	00H
	DB	00H
	DB	00H
	ORG $+1
	DD	FLAT:??_C@_07MGBJGBAB@Firefox@
	DB	00H
	DB	00H
	DB	00H
	ORG $+1
	DD	FLAT:??_C@_0L@FPMNLDO@Freelancer@
	DB	00H
	DB	00H
	DB	00H
	ORG $+1
	DD	FLAT:??_C@_05ECONJKNH@Gator@
	DB	00H
	DB	00H
	DB	00H
	ORG $+1
	DD	FLAT:??_C@_08ELAHAPJB@Gauntlet@
	DB	00H
	DB	00H
	DB	00H
	ORG $+1
	DD	FLAT:??_C@_0L@CFIAOBNI@Ghostrider@
	DB	00H
	DB	00H
	DB	00H
	ORG $+1
	DD	FLAT:??_C@_09IIIKJBPO@Gladiator@
	DB	00H
	DB	00H
	DB	00H
	ORG $+1
	DD	FLAT:??_C@_07FCCJLMDG@Goliath@
	DB	00H
	DB	00H
	DB	00H
	ORG $+1
	DD	FLAT:??_C@_05GKHKCKKK@Goose@
	DB	00H
	DB	00H
	DB	00H
	ORG $+1
	DD	FLAT:??_C@_07PKPDAOLG@Hawkeye@
	DB	00H
	DB	00H
	DB	00H
	ORG $+1
	DD	FLAT:??_C@_07LBAKIKOJ@Hellcat@
	DB	00H
	DB	00H
	DB	00H
	ORG $+1
	DD	FLAT:??_C@_06NPNCGLLF@Hunter@
	DB	00H
	DB	00H
	DB	00H
	ORG $+1
	DD	FLAT:??_C@_06GCKPJHNJ@Jaguar@
	DB	00H
	DB	00H
	DB	00H
	ORG $+1
	DD	FLAT:??_C@_06NDOLCLDE@Jester@
	DB	00H
	DB	00H
	DB	00H
	ORG $+1
	DD	FLAT:??_C@_07LEJIDMLG@Jupiter@
	DB	00H
	DB	00H
	DB	00H
	ORG $+1
	DD	FLAT:??_C@_0L@HBEGIEOA@Juggernaut@
	DB	00H
	DB	00H
	DB	00H
	ORG $+1
	DD	FLAT:??_C@_07PACCOBHI@Kestrel@
	DB	00H
	DB	00H
	DB	00H
	ORG $+1
	DD	FLAT:??_C@_06HOBEGAAN@Lancer@
	DB	00H
	DB	00H
	DB	00H
	ORG $+1
	DD	FLAT:??_C@_04NOBJAHLG@Lima@
	DB	00H
	DB	00H
	DB	00H
	ORG $+1
	DD	FLAT:??_C@_06ODAOAABB@Maniac@
	DB	00H
	DB	00H
	DB	00H
	ORG $+1
	DD	FLAT:??_C@_06FKMMMLK@Mantis@
	DB	00H
	DB	00H
	DB	00H
	ORG $+1
	DD	FLAT:??_C@_06JHDANNHM@Mauler@
	DB	00H
	DB	00H
	DB	00H
	ORG $+1
	DD	FLAT:??_C@_07JMNKBLJA@Mercury@
	DB	00H
	DB	00H
	DB	00H
	ORG $+1
	DD	FLAT:??_C@_06FBOMOHED@Merlin@
	DB	00H
	DB	00H
	DB	00H
	ORG $+1
	DD	FLAT:??_C@_07NMJILPAB@Milkman@
	DB	00H
	DB	00H
	DB	00H
	ORG $+1
	DD	FLAT:??_C@_07PMJOLKGK@Mustang@
	DB	00H
	DB	00H
	DB	00H
	ORG $+1
	DD	FLAT:??_C@_09DDMFHDNE@Nightmare@
	DB	00H
	DB	00H
	DB	00H
	ORG $+1
	DD	FLAT:??_C@_07HBBBHBHH@Panther@
	DB	00H
	DB	00H
	DB	00H
	ORG $+1
	DD	FLAT:??_C@_07LPGNOABP@Patriot@
	DB	00H
	DB	00H
	DB	00H
	ORG $+1
	DD	FLAT:??_C@_07OFINGKDN@Phantom@
	DB	00H
	DB	00H
	DB	00H
	ORG $+1
	DD	FLAT:??_C@_07KEMLBHAB@Phoenix@
	DB	00H
	DB	00H
	DB	00H
	ORG $+1
	DD	FLAT:??_C@_08OMOCEDLJ@Preacher@
	DB	00H
	DB	00H
	DB	00H
	ORG $+1
	DD	FLAT:??_C@_06CHFOMGOI@Python@
	DB	00H
	DB	00H
	DB	00H
	ORG $+1
	DD	FLAT:??_C@_06FGHMEEIN@Raptor@
	DB	00H
	DB	00H
	DB	00H
	ORG $+1
	DD	FLAT:??_C@_0M@LNDBEIHA@Rattlesnake@
	DB	00H
	DB	00H
	DB	00H
	ORG $+1
	DD	FLAT:??_C@_09EAPIDKNL@Razorback@
	DB	00H
	DB	00H
	DB	00H
	ORG $+1
	DD	FLAT:??_C@_0L@BBNNMEOA@Razorworks@
	DB	00H
	DB	00H
	DB	00H
	ORG $+1
	DD	FLAT:??_C@_06BCJIKKCI@Reaper@
	DB	00H
	DB	00H
	DB	00H
	ORG $+1
	DD	FLAT:??_C@_08KBDFECAK@Renegade@
	DB	00H
	DB	00H
	DB	00H
	ORG $+1
	DD	FLAT:??_C@_05LOKFGGKM@Sabre@
	DB	00H
	DB	00H
	DB	00H
	ORG $+1
	DD	FLAT:??_C@_06BDBMMIBK@Savage@
	DB	00H
	DB	00H
	DB	00H
	ORG $+1
	DD	FLAT:??_C@_06KHOKADBJ@Shadow@
	DB	00H
	DB	00H
	DB	00H
	ORG $+1
	DD	FLAT:??_C@_07BLNFDIEN@Sheriff@
	DB	00H
	DB	00H
	DB	00H
	ORG $+1
	DD	FLAT:??_C@_06IANOJNCI@Shogun@
	DB	00H
	DB	00H
	DB	00H
	ORG $+1
	DD	FLAT:??_C@_08BEHMIHLK@Snowball@
	DB	00H
	DB	00H
	DB	00H
	ORG $+1
	DD	FLAT:??_C@_09FHKNOJJG@Spartakus@
	DB	00H
	DB	00H
	DB	00H
	ORG $+1
	DD	FLAT:??_C@_08OGJKIIIN@Spectrum@
	DB	00H
	DB	00H
	DB	00H
	ORG $+1
	DD	FLAT:??_C@_07HJALAEIF@Stalker@
	DB	00H
	DB	00H
	DB	00H
	ORG $+1
	DD	FLAT:??_C@_08LCPMOHG@Stingray@
	DB	00H
	DB	00H
	DB	00H
	ORG $+1
	DD	FLAT:??_C@_07DEKJPLMA@Striker@
	DB	00H
	DB	00H
	DB	00H
	ORG $+1
	DD	FLAT:??_C@_07GIONELDB@Sundown@
	DB	00H
	DB	00H
	DB	00H
	ORG $+1
	DD	FLAT:??_C@_09ENFBHKI@Swamp?9Fox@
	DB	00H
	DB	00H
	DB	00H
	ORG $+1
	DD	FLAT:??_C@_07MOJLCPGJ@Tempest@
	DB	00H
	DB	00H
	DB	00H
	ORG $+1
	DD	FLAT:??_C@_0M@IEKADNOM@Tiger?9Shark@
	DB	00H
	DB	00H
	DB	00H
	ORG $+1
	DD	FLAT:??_C@_09DACOLFFB@Touchdown@
	DB	00H
	DB	00H
	DB	00H
	ORG $+1
	DD	FLAT:??_C@_07GADMPKJI@Vampire@
	DB	00H
	DB	00H
	DB	00H
	ORG $+1
	DD	FLAT:??_C@_07HDHBEBBE@Vertigo@
	DB	00H
	DB	00H
	DB	00H
	ORG $+1
	DD	FLAT:??_C@_09NHFALIGP@Vigilante@
	DB	00H
	DB	00H
	DB	00H
	ORG $+1
	DD	FLAT:??_C@_06MNFEEHAB@Viking@
	DB	00H
	DB	00H
	DB	00H
	ORG $+1
	DD	FLAT:??_C@_05DIOCBCKJ@Viper@
	DB	00H
	DB	00H
	DB	00H
	ORG $+1
	DD	FLAT:??_C@_06NFPMDKDO@Voodoo@
	DB	00H
	DB	00H
	DB	00H
	ORG $+1
	DD	FLAT:??_C@_06LOEDEFOB@Vulcan@
	DB	00H
	DB	00H
	DB	00H
	ORG $+1
	DD	FLAT:??_C@_07NHLONPAH@Vulture@
	DB	00H
	DB	00H
	DB	00H
	ORG $+1
	DD	FLAT:??_C@_07FNAKILNO@Warlock@
	DB	00H
	DB	00H
	DB	00H
	ORG $+1
	DD	FLAT:??_C@_07MHHGFOFG@Warlord@
	DB	00H
	DB	00H
	DB	00H
	ORG $+1
	DD	FLAT:??_C@_07DFKLKNJN@Warrior@
	DB	00H
	DB	00H
	DB	00H
	ORG $+1
	DD	FLAT:??_C@_07ODEBIINL@Wildcat@
	DB	00H
	DB	00H
	DB	00H
	ORG $+1
	DD	FLAT:??_C@_08CCGFAIJD@Wolfpack@
	DB	00H
	DB	00H
	DB	00H
	ORG $+1
	DD	FLAT:??_C@_0BE@CLCBKHBL@NUM_GROUP_CALLSIGNS@
	DB	00H
	DB	00H
	DB	00H
	ORG $+1
_DATA	ENDS
PUBLIC	?get_local_group_member_count@@YGHPAUENTITY@@@Z	; get_local_group_member_count
PUBLIC	?get_local_group_member_max_formation_position@@YGHPAUENTITY@@@Z ; get_local_group_member_max_formation_position
PUBLIC	?assess_group_task_locality_factor@@YGHPAUENTITY@@0PAM@Z ; assess_group_task_locality_factor
PUBLIC	?get_group_at_road_node@@YGPAUENTITY@@H@Z	; get_group_at_road_node
PUBLIC	?amalgamate_groups@@YGHPAUENTITY@@0@Z		; amalgamate_groups
PUBLIC	?set_group_verbose_operational_state@@YGXPAUENTITY@@H@Z ; set_group_verbose_operational_state
PUBLIC	?get_group_suitable_for_player@@YGHPAUENTITY@@0@Z ; get_group_suitable_for_player
PUBLIC	?assess_group_supplies@@YGXPAUENTITY@@@Z	; assess_group_supplies
PUBLIC	?set_group_member_numbers@@YGXPAUENTITY@@@Z	; set_group_member_numbers
PUBLIC	?set_group_formation_positions@@YGXPAUENTITY@@@Z ; set_group_formation_positions
PUBLIC	?group_return_to_base@@YGXPAUENTITY@@@Z		; group_return_to_base
PUBLIC	?group_terminate_all_tasks@@YGXPAUENTITY@@@Z	; group_terminate_all_tasks
PUBLIC	?group_kill_all_members@@YGXPAUENTITY@@@Z	; group_kill_all_members
PUBLIC	?group_destroy_all_members@@YGXPAUENTITY@@@Z	; group_destroy_all_members
PUBLIC	?kill_client_server_group_entity@@YGXPAUENTITY@@@Z ; kill_client_server_group_entity
PUBLIC	?create_group_emergency_transfer_task@@YGHPAUENTITY@@@Z ; create_group_emergency_transfer_task
PUBLIC	?check_group_task_type@@YGHPAUENTITY@@H@Z	; check_group_task_type
PUBLIC	?check_group_task_type_valid_members@@YGHPAUENTITY@@H@Z ; check_group_task_type_valid_members
PUBLIC	?group_task_specific_retaliation_checks@@YGHPAUENTITY@@0H@Z ; group_task_specific_retaliation_checks
PUBLIC	?initialise_group_callsign_database@@YGXXZ	; initialise_group_callsign_database
PUBLIC	?assign_group_callsign@@YGHPAUENTITY@@@Z	; assign_group_callsign
PUBLIC	?free_group_callsign@@YGXPAUENTITY@@@Z		; free_group_callsign
PUBLIC	?__LINE__Var@?0??get_local_group_member_count@@YGHPAUENTITY@@@Z@4JA ; `get_local_group_member_count'::`1'::__LINE__Var
PUBLIC	??_C@_0EJ@CCBIJPFD@c?3?2users?2nhv90?2projects?2eech?2ap@ ; `string'
PUBLIC	?__LINE__Var@?0??get_local_group_member_max_formation_position@@YGHPAUENTITY@@@Z@4JA ; `get_local_group_member_max_formation_position'::`1'::__LINE__Var
PUBLIC	?__LINE__Var@?0??assess_group_task_locality_factor@@YGHPAUENTITY@@0PAM@Z@4JA ; `assess_group_task_locality_factor'::`1'::__LINE__Var
PUBLIC	?__LINE__Var@?0??get_group_at_road_node@@YGPAUENTITY@@H@Z@4JA ; `get_group_at_road_node'::`1'::__LINE__Var
PUBLIC	?__LINE__Var@?0??amalgamate_groups@@YGHPAUENTITY@@0@Z@4JA ; `amalgamate_groups'::`1'::__LINE__Var
PUBLIC	??_C@_0CJ@DMBLBJBK@get_comms_model?5?$CI?$CJ?5?$DN?$DN?5COMMS_MOD@ ; `string'
PUBLIC	??_C@_0FF@LJMBIOKP@get_local_entity_int_value?5?$CIrec@ ; `string'
PUBLIC	??_C@_0FE@KCOPOMEJ@get_local_entity_int_value?5?$CIdon@ ; `string'
PUBLIC	??_C@_0CH@HGEKDJEG@group_database?5?$FLgroup_type?$FN?4ama@ ; `string'
PUBLIC	??_C@_0HK@POBLAJMM@get_local_entity_int_value?5?$CIdon@ ; `string'
PUBLIC	??_C@_0LI@OFHMLMMN@get_local_entity_type?5?$CIget_loca@ ; `string'
PUBLIC	??_C@_0EH@HNMCILHN@GROUP?3?5amalgamating?5group?5?$CFs?5?$CFd@ ; `string'
PUBLIC	??_C@_0CF@PCKAGIHN@GROUP?3?7donating?5group?5member?5?$CFs@ ; `string'
PUBLIC	??_C@_0FM@EIDHLFJD@get_local_entity_int_value?5?$CImem@ ; `string'
PUBLIC	??_C@_0CG@ONOENFCA@GROUP?3?7receiving?5group?5member?5?$CF@ ; `string'
PUBLIC	??_C@_0EI@BMGPKMAK@get_local_entity_int_value?5?$CIdon@ ; `string'
PUBLIC	??_C@_06HDFDANIG@member@			; `string'
PUBLIC	??_C@_0GI@GKFOJJGK@GROUP?3?5WARNING?3?5Amalgamated?5gro@ ; `string'
PUBLIC	?__LINE__Var@?0??set_group_verbose_operational_state@@YGXPAUENTITY@@H@Z@4JA ; `set_group_verbose_operational_state'::`1'::__LINE__Var
PUBLIC	?__LINE__Var@?0??get_group_suitable_for_player@@YGHPAUENTITY@@0@Z@4JA ; `get_group_suitable_for_player'::`1'::__LINE__Var
PUBLIC	??_C@_05MGJOOGAJ@group@				; `string'
PUBLIC	?__LINE__Var@?0??assess_group_supplies@@YGXPAUENTITY@@@Z@4JA ; `assess_group_supplies'::`1'::__LINE__Var
PUBLIC	??_C@_07FBNBNOMI@keysite@			; `string'
PUBLIC	?__LINE__Var@?0??set_group_member_numbers@@YGXPAUENTITY@@@Z@4JA ; `set_group_member_numbers'::`1'::__LINE__Var
PUBLIC	??_C@_02LFNMGJAP@en@				; `string'
PUBLIC	?__LINE__Var@?0??set_group_formation_positions@@YGXPAUENTITY@@@Z@4JA ; `set_group_formation_positions'::`1'::__LINE__Var
PUBLIC	?__LINE__Var@?0??group_return_to_base@@YGXPAUENTITY@@@Z@4JA ; `group_return_to_base'::`1'::__LINE__Var
PUBLIC	??_C@_0CG@LCBNLKBK@GROUP?3?5sending?5group?5?$CFs?5?$CI?$CFd?$CJ?5ho@ ; `string'
PUBLIC	??_C@_05HLIEEKJG@guide@				; `string'
PUBLIC	??_C@_0L@HHMDNOPI@current_wp@			; `string'
PUBLIC	??_C@_02HODPCBMO@wp@				; `string'
PUBLIC	?__LINE__Var@?0??group_terminate_all_tasks@@YGXPAUENTITY@@@Z@4JA ; `group_terminate_all_tasks'::`1'::__LINE__Var
PUBLIC	??_C@_04GGKLLKOO@task@				; `string'
PUBLIC	?__LINE__Var@?0??group_kill_all_members@@YGXPAUENTITY@@@Z@4JA ; `group_kill_all_members'::`1'::__LINE__Var
PUBLIC	?__LINE__Var@?0??group_destroy_all_members@@YGXPAUENTITY@@@Z@4JA ; `group_destroy_all_members'::`1'::__LINE__Var
PUBLIC	?__LINE__Var@?0??kill_client_server_group_entity@@YGXPAUENTITY@@@Z@4JA ; `kill_client_server_group_entity'::`1'::__LINE__Var
PUBLIC	?__LINE__Var@?0??create_group_emergency_transfer_task@@YGHPAUENTITY@@@Z@4JA ; `create_group_emergency_transfer_task'::`1'::__LINE__Var
PUBLIC	??_C@_08JODNPJDD@new_task@			; `string'
PUBLIC	??_C@_0DF@OBONLCBC@?$CITRANSFER?$CJ?5Failed?5to?5assign?5Eme@ ; `string'
PUBLIC	??_C@_0DK@OHMCPCBD@?$CITRANSFER?$CJ?5Successfully?5assigne@ ; `string'
PUBLIC	??_C@_0DM@KFJJHNFF@?$CITRANSFER?$CJ?5Failed?5to?5find?5Emerg@ ; `string'
PUBLIC	?__LINE__Var@?0??check_group_task_type@@YGHPAUENTITY@@H@Z@4JA ; `check_group_task_type'::`1'::__LINE__Var
PUBLIC	?__LINE__Var@?0??check_group_task_type_valid_members@@YGHPAUENTITY@@H@Z@4JA ; `check_group_task_type_valid_members'::`1'::__LINE__Var
PUBLIC	?__LINE__Var@?0??group_task_specific_retaliation_checks@@YGHPAUENTITY@@0H@Z@4JA ; `group_task_specific_retaliation_checks'::`1'::__LINE__Var
PUBLIC	??_C@_09HKMIOAOH@aggressor@			; `string'
PUBLIC	??_C@_0O@GABLNPIN@objective_pos@		; `string'
PUBLIC	??_C@_0O@MHFMDCOL@aggressor_pos@		; `string'
PUBLIC	??_C@_0DP@LHDDAMNA@?$CIRETALIATE?5CHECK?$CJ?5ROE?5NONE?5?9?5Fa@ ; `string'
PUBLIC	??_C@_0CL@FJCJDGEL@?$CIRETALIATE?5CHECK?$CJ?5ROE?5NONE?5?9?5Ta@ ; `string'
PUBLIC	??_C@_09NLEHHNCH@group_pos@			; `string'
PUBLIC	??_C@_0DA@LDLHGHGC@?$CIRETALIATE?5CHECK?$CJ?5ROE?5NONE?5?9?5Fr@ ; `string'
PUBLIC	??_C@_0CL@CMMBIDFL@?$CIRETALIATE?5CHECK?$CJ?5ROE?5NONE?5?9?5Fa@ ; `string'
PUBLIC	??_C@_0DA@IFHCMBAB@?$CIRETALIATE?5CHECK?$CJ?5ROE?5OBJECTIVE@ ; `string'
PUBLIC	??_C@_0DA@MEDCNDDH@?$CIRETALIATE?5CHECK?$CJ?5ROE?5OBJECTIVE@ ; `string'
PUBLIC	??_C@_0DA@LBNKGGCH@?$CIRETALIATE?5CHECK?$CJ?5ROE?5OBJECTIVE@ ; `string'
PUBLIC	??_C@_0BK@OMMCNDJG@?$CIRETALIATE?5CHECK?$CJ?5ROE?5ALL@ ; `string'
PUBLIC	?__LINE__Var@?0??assign_group_callsign@@YGHPAUENTITY@@@Z@4JA ; `assign_group_callsign'::`1'::__LINE__Var
PUBLIC	??_C@_0DH@LIOCIIND@GROUP?3?5WARNING?3?5reusing?5group?5c@ ; `string'
PUBLIC	?__LINE__Var@?0??free_group_callsign@@YGXPAUENTITY@@@Z@4JA ; `free_group_callsign'::`1'::__LINE__Var
PUBLIC	??_C@_0CN@GIHEBNNI@group_callsign_names?5?$FLindex?$FN?4si@ ; `string'
PUBLIC	__real@00000000
PUBLIC	__real@0000000000000000
PUBLIC	__real@3fe0000000000000
PUBLIC	__real@3ff0000000000000
PUBLIC	__real@4059000000000000
PUBLIC	__real@41200000
PUBLIC	__real@414e848000000000
PUBLIC	__real@447a0000
PUBLIC	__real@461c4000
PUBLIC	__real@7f7fffff
EXTRN	_memset:PROC
EXTRN	?process_assert@@YGXPBD0H@Z:PROC		; process_assert
EXTRN	?convert_float_to_int@@YGXMPAH@Z:PROC		; convert_float_to_int
EXTRN	?debug_log@@YAXPBDZZ:PROC			; debug_log
EXTRN	?normalise_any_3d_vector@@YGMPAUVEC3D@@@Z:PROC	; normalise_any_3d_vector
EXTRN	?get_2d_range@@YGMPBUVEC3D@@0@Z:PROC		; get_2d_range
EXTRN	?get_sqr_2d_range@@YGMPBUVEC3D@@0@Z:PROC	; get_sqr_2d_range
EXTRN	?get_approx_2d_range@@YGMPBUVEC3D@@0@Z:PROC	; get_approx_2d_range
EXTRN	?notify_local_entity@@YAHW4ENTITY_MESSAGES@@PAUENTITY@@1ZZ:PROC ; notify_local_entity
EXTRN	?set_client_server_entity_parent@@YGXPAUENTITY@@W4LIST_TYPES@@0@Z:PROC ; set_client_server_entity_parent
EXTRN	?get_local_entity_suitable_for_player@@YGHPAUENTITY@@0@Z:PROC ; get_local_entity_suitable_for_player
EXTRN	?get_local_force_entity@@YGPAUENTITY@@W4ENTITY_SIDES@@@Z:PROC ; get_local_force_entity
EXTRN	?set_guide_new_waypoint@@YGHPAUENTITY@@0@Z:PROC	; set_guide_new_waypoint
EXTRN	?get_local_group_primary_guide@@YGPAUENTITY@@PAU1@@Z:PROC ; get_local_group_primary_guide
EXTRN	?get_closest_keysite@@YGPAUENTITY@@HW4ENTITY_SIDES@@PAUVEC3D@@MPAMPAU1@@Z:PROC ; get_closest_keysite
EXTRN	?get_local_sector_side_ratio@@YGMHHW4ENTITY_SIDES@@@Z:PROC ; get_local_sector_side_ratio
EXTRN	?get_local_group_primary_task@@YGPAUENTITY@@PAU1@@Z:PROC ; get_local_group_primary_task
EXTRN	?assign_primary_task_to_group@@YGHPAUENTITY@@0@Z:PROC ; assign_primary_task_to_group
EXTRN	?terminate_all_engage_tasks@@YGXPAUENTITY@@@Z:PROC ; terminate_all_engage_tasks
EXTRN	?create_transfer_task@@YGPAUENTITY@@W4ENTITY_SIDES@@HMPAU1@1@Z:PROC ; create_transfer_task
EXTRN	?ai_log@@YAXPBDZZ:PROC				; ai_log
EXTRN	?get_closest_free_landing_site@@YGPAUENTITY@@HPAU1@PAUVEC3D@@MPAMH@Z:PROC ; get_closest_free_landing_site
EXTRN	?entity_sub_type_group_names@@3PAPBDA:BYTE	; entity_sub_type_group_names
EXTRN	?null_entity_pointer_message@@3PBDB:DWORD	; null_entity_pointer_message
EXTRN	?system_comms_model@@3W4COMMS_MODEL_TYPES@@A:DWORD ; system_comms_model
EXTRN	?world_map@@3UWORLD_MAP_DATA@@A:BYTE		; world_map
EXTRN	?overload_invalid_list_type_message@@3PBDB:DWORD ; overload_invalid_list_type_message
EXTRN	?fn_get_local_entity_first_child@@3PAY0CN@P6GPAUENTITY@@PAU1@W4LIST_TYPES@@@ZA:BYTE ; fn_get_local_entity_first_child
EXTRN	?fn_get_local_entity_parent@@3PAY0CN@P6GPAUENTITY@@PAU1@W4LIST_TYPES@@@ZA:BYTE ; fn_get_local_entity_parent
EXTRN	?fn_get_local_entity_child_succ@@3PAY0CN@P6GPAUENTITY@@PAU1@W4LIST_TYPES@@@ZA:BYTE ; fn_get_local_entity_child_succ
EXTRN	?fn_destroy_client_server_entity@@3PAY01P6GXPAUENTITY@@@ZA:BYTE ; fn_destroy_client_server_entity
EXTRN	?fn_kill_client_server_entity@@3PAY01P6GXPAUENTITY@@@ZA:BYTE ; fn_kill_client_server_entity
EXTRN	?overload_invalid_float_type_message@@3PBDB:DWORD ; overload_invalid_float_type_message
EXTRN	?fn_set_client_server_entity_float_value@@3PAY1KP@1P6GXPAUENTITY@@W4FLOAT_TYPES@@M@ZA:BYTE ; fn_set_client_server_entity_float_value
EXTRN	?fn_get_local_entity_float_value@@3PAY0KP@P6GMPAUENTITY@@W4FLOAT_TYPES@@@ZA:BYTE ; fn_get_local_entity_float_value
EXTRN	?overload_invalid_int_type_message@@3PBDB:DWORD	; overload_invalid_int_type_message
EXTRN	?fn_set_client_server_entity_int_value@@3PAY1BBH@1P6GXPAUENTITY@@W4INT_TYPES@@H@ZA:BYTE ; fn_set_client_server_entity_int_value
EXTRN	?fn_get_local_entity_int_value@@3PAY0BBH@P6GHPAUENTITY@@W4INT_TYPES@@@ZA:BYTE ; fn_get_local_entity_int_value
EXTRN	?overload_invalid_string_type_message@@3PBDB:DWORD ; overload_invalid_string_type_message
EXTRN	?fn_get_local_entity_string@@3PAY0N@P6GPBDPAUENTITY@@W4STRING_TYPES@@@ZA:BYTE ; fn_get_local_entity_string
EXTRN	?overload_invalid_vec3d_type_message@@3PBDB:DWORD ; overload_invalid_vec3d_type_message
EXTRN	?fn_get_local_entity_vec3d_ptr@@3PAY0BI@P6GPAUVEC3D@@PAUENTITY@@W4VEC3D_TYPES@@@ZA:BYTE ; fn_get_local_entity_vec3d_ptr
EXTRN	?entities@@3PAUENTITY@@A:DWORD			; entities
EXTRN	?group_database@@3PAUGROUP_DATA@@A:BYTE		; group_database
EXTRN	?session_entity@@3PAUENTITY@@A:DWORD		; session_entity
EXTRN	?task_database@@3PAUTASK_DATA@@A:BYTE		; task_database
EXTRN	?waypoint_database@@3PAUWAYPOINT_DATA@@A:BYTE	; waypoint_database
EXTRN	__fltused:DWORD
;	COMDAT __real@7f7fffff
CONST	SEGMENT
__real@7f7fffff DD 07f7fffffr			; 3.40282e+38
CONST	ENDS
;	COMDAT __real@461c4000
CONST	SEGMENT
__real@461c4000 DD 0461c4000r			; 10000
CONST	ENDS
;	COMDAT __real@447a0000
CONST	SEGMENT
__real@447a0000 DD 0447a0000r			; 1000
CONST	ENDS
;	COMDAT __real@414e848000000000
CONST	SEGMENT
__real@414e848000000000 DQ 0414e848000000000r	; 4e+06
CONST	ENDS
;	COMDAT __real@41200000
CONST	SEGMENT
__real@41200000 DD 041200000r			; 10
CONST	ENDS
;	COMDAT __real@4059000000000000
CONST	SEGMENT
__real@4059000000000000 DQ 04059000000000000r	; 100
CONST	ENDS
;	COMDAT __real@3ff0000000000000
CONST	SEGMENT
__real@3ff0000000000000 DQ 03ff0000000000000r	; 1
CONST	ENDS
;	COMDAT __real@3fe0000000000000
CONST	SEGMENT
__real@3fe0000000000000 DQ 03fe0000000000000r	; 0.5
CONST	ENDS
;	COMDAT __real@0000000000000000
CONST	SEGMENT
__real@0000000000000000 DQ 00000000000000000r	; 0
CONST	ENDS
;	COMDAT __real@00000000
CONST	SEGMENT
__real@00000000 DD 000000000r			; 0
CONST	ENDS
;	COMDAT ??_C@_0CN@GIHEBNNI@group_callsign_names?5?$FLindex?$FN?4si@
CONST	SEGMENT
??_C@_0CN@GIHEBNNI@group_callsign_names?5?$FLindex?$FN?4si@ DB 'group_cal'
	DB	'lsign_names [index].side [side] > 0', 00H	; `string'
CONST	ENDS
;	COMDAT ?__LINE__Var@?0??free_group_callsign@@YGXPAUENTITY@@@Z@4JA
_DATA	SEGMENT
?__LINE__Var@?0??free_group_callsign@@YGXPAUENTITY@@@Z@4JA DD 05d9H ; `free_group_callsign'::`1'::__LINE__Var
_DATA	ENDS
;	COMDAT ??_C@_0DH@LIOCIIND@GROUP?3?5WARNING?3?5reusing?5group?5c@
CONST	SEGMENT
??_C@_0DH@LIOCIIND@GROUP?3?5WARNING?3?5reusing?5group?5c@ DB 'GROUP: WARN'
	DB	'ING: reusing group callsign %s for group %s', 00H ; `string'
CONST	ENDS
;	COMDAT ?__LINE__Var@?0??assign_group_callsign@@YGHPAUENTITY@@@Z@4JA
_DATA	SEGMENT
?__LINE__Var@?0??assign_group_callsign@@YGHPAUENTITY@@@Z@4JA DD 05a8H ; `assign_group_callsign'::`1'::__LINE__Var
_DATA	ENDS
;	COMDAT ??_C@_0BK@OMMCNDJG@?$CIRETALIATE?5CHECK?$CJ?5ROE?5ALL@
CONST	SEGMENT
??_C@_0BK@OMMCNDJG@?$CIRETALIATE?5CHECK?$CJ?5ROE?5ALL@ DB '(RETALIATE CHE'
	DB	'CK) ROE ALL', 00H				; `string'
CONST	ENDS
;	COMDAT ??_C@_0DA@LBNKGGCH@?$CIRETALIATE?5CHECK?$CJ?5ROE?5OBJECTIVE@
CONST	SEGMENT
??_C@_0DA@LBNKGGCH@?$CIRETALIATE?5CHECK?$CJ?5ROE?5OBJECTIVE@ DB '(RETALIA'
	DB	'TE CHECK) ROE OBJECTIVE - Failed Checks', 00H ; `string'
CONST	ENDS
;	COMDAT ??_C@_0DA@MEDCNDDH@?$CIRETALIATE?5CHECK?$CJ?5ROE?5OBJECTIVE@
CONST	SEGMENT
??_C@_0DA@MEDCNDDH@?$CIRETALIATE?5CHECK?$CJ?5ROE?5OBJECTIVE@ DB '(RETALIA'
	DB	'TE CHECK) ROE OBJECTIVE - Task Complete', 00H ; `string'
CONST	ENDS
;	COMDAT ??_C@_0DA@IFHCMBAB@?$CIRETALIATE?5CHECK?$CJ?5ROE?5OBJECTIVE@
CONST	SEGMENT
??_C@_0DA@IFHCMBAB@?$CIRETALIATE?5CHECK?$CJ?5ROE?5OBJECTIVE@ DB '(RETALIA'
	DB	'TE CHECK) ROE OBJECTIVE - No Assistance', 00H ; `string'
CONST	ENDS
;	COMDAT ??_C@_0CL@CMMBIDFL@?$CIRETALIATE?5CHECK?$CJ?5ROE?5NONE?5?9?5Fa@
CONST	SEGMENT
??_C@_0CL@CMMBIDFL@?$CIRETALIATE?5CHECK?$CJ?5ROE?5NONE?5?9?5Fa@ DB '(RETA'
	DB	'LIATE CHECK) ROE NONE - Failed Checks', 00H	; `string'
CONST	ENDS
;	COMDAT ??_C@_0DA@LDLHGHGC@?$CIRETALIATE?5CHECK?$CJ?5ROE?5NONE?5?9?5Fr@
CONST	SEGMENT
??_C@_0DA@LDLHGHGC@?$CIRETALIATE?5CHECK?$CJ?5ROE?5NONE?5?9?5Fr@ DB '(RETA'
	DB	'LIATE CHECK) ROE NONE - Friendly Territory', 00H ; `string'
CONST	ENDS
;	COMDAT ??_C@_09NLEHHNCH@group_pos@
CONST	SEGMENT
??_C@_09NLEHHNCH@group_pos@ DB 'group_pos', 00H		; `string'
CONST	ENDS
;	COMDAT ??_C@_0CL@FJCJDGEL@?$CIRETALIATE?5CHECK?$CJ?5ROE?5NONE?5?9?5Ta@
CONST	SEGMENT
??_C@_0CL@FJCJDGEL@?$CIRETALIATE?5CHECK?$CJ?5ROE?5NONE?5?9?5Ta@ DB '(RETA'
	DB	'LIATE CHECK) ROE NONE - Task Complete', 00H	; `string'
CONST	ENDS
;	COMDAT ??_C@_0DP@LHDDAMNA@?$CIRETALIATE?5CHECK?$CJ?5ROE?5NONE?5?9?5Fa@
CONST	SEGMENT
??_C@_0DP@LHDDAMNA@?$CIRETALIATE?5CHECK?$CJ?5ROE?5NONE?5?9?5Fa@ DB '(RETA'
	DB	'LIATE CHECK) ROE NONE - Failed (Aggressor at target area)', 00H ; `string'
CONST	ENDS
;	COMDAT ??_C@_0O@MHFMDCOL@aggressor_pos@
CONST	SEGMENT
??_C@_0O@MHFMDCOL@aggressor_pos@ DB 'aggressor_pos', 00H ; `string'
CONST	ENDS
;	COMDAT ??_C@_0O@GABLNPIN@objective_pos@
CONST	SEGMENT
??_C@_0O@GABLNPIN@objective_pos@ DB 'objective_pos', 00H ; `string'
CONST	ENDS
;	COMDAT ??_C@_09HKMIOAOH@aggressor@
CONST	SEGMENT
??_C@_09HKMIOAOH@aggressor@ DB 'aggressor', 00H		; `string'
CONST	ENDS
;	COMDAT ?__LINE__Var@?0??group_task_specific_retaliation_checks@@YGHPAUENTITY@@0H@Z@4JA
_DATA	SEGMENT
?__LINE__Var@?0??group_task_specific_retaliation_checks@@YGHPAUENTITY@@0H@Z@4JA DD 04fbH ; `group_task_specific_retaliation_checks'::`1'::__LINE__Var
_DATA	ENDS
;	COMDAT ?__LINE__Var@?0??check_group_task_type_valid_members@@YGHPAUENTITY@@H@Z@4JA
_DATA	SEGMENT
?__LINE__Var@?0??check_group_task_type_valid_members@@YGHPAUENTITY@@H@Z@4JA DD 04ddH ; `check_group_task_type_valid_members'::`1'::__LINE__Var
_DATA	ENDS
;	COMDAT ?__LINE__Var@?0??check_group_task_type@@YGHPAUENTITY@@H@Z@4JA
_DATA	SEGMENT
?__LINE__Var@?0??check_group_task_type@@YGHPAUENTITY@@H@Z@4JA DD 04bfH ; `check_group_task_type'::`1'::__LINE__Var
_DATA	ENDS
;	COMDAT ??_C@_0DM@KFJJHNFF@?$CITRANSFER?$CJ?5Failed?5to?5find?5Emerg@
CONST	SEGMENT
??_C@_0DM@KFJJHNFF@?$CITRANSFER?$CJ?5Failed?5to?5find?5Emerg@ DB '(TRANSF'
	DB	'ER) Failed to find Emergency Transfer keysite for %s', 00H ; `string'
CONST	ENDS
;	COMDAT ??_C@_0DK@OHMCPCBD@?$CITRANSFER?$CJ?5Successfully?5assigne@
CONST	SEGMENT
??_C@_0DK@OHMCPCBD@?$CITRANSFER?$CJ?5Successfully?5assigne@ DB '(TRANSFER'
	DB	') Successfully assigned Emergency Transfer to %s', 00H ; `string'
CONST	ENDS
;	COMDAT ??_C@_0DF@OBONLCBC@?$CITRANSFER?$CJ?5Failed?5to?5assign?5Eme@
CONST	SEGMENT
??_C@_0DF@OBONLCBC@?$CITRANSFER?$CJ?5Failed?5to?5assign?5Eme@ DB '(TRANSF'
	DB	'ER) Failed to assign Emergency Transfer to %s', 00H ; `string'
CONST	ENDS
;	COMDAT ??_C@_08JODNPJDD@new_task@
CONST	SEGMENT
??_C@_08JODNPJDD@new_task@ DB 'new_task', 00H		; `string'
CONST	ENDS
;	COMDAT ?__LINE__Var@?0??create_group_emergency_transfer_task@@YGHPAUENTITY@@@Z@4JA
_DATA	SEGMENT
?__LINE__Var@?0??create_group_emergency_transfer_task@@YGHPAUENTITY@@@Z@4JA DD 0468H ; `create_group_emergency_transfer_task'::`1'::__LINE__Var
_DATA	ENDS
;	COMDAT ?__LINE__Var@?0??kill_client_server_group_entity@@YGXPAUENTITY@@@Z@4JA
_DATA	SEGMENT
?__LINE__Var@?0??kill_client_server_group_entity@@YGXPAUENTITY@@@Z@4JA DD 0435H ; `kill_client_server_group_entity'::`1'::__LINE__Var
_DATA	ENDS
;	COMDAT ?__LINE__Var@?0??group_destroy_all_members@@YGXPAUENTITY@@@Z@4JA
_DATA	SEGMENT
?__LINE__Var@?0??group_destroy_all_members@@YGXPAUENTITY@@@Z@4JA DD 0413H ; `group_destroy_all_members'::`1'::__LINE__Var
_DATA	ENDS
;	COMDAT ?__LINE__Var@?0??group_kill_all_members@@YGXPAUENTITY@@@Z@4JA
_DATA	SEGMENT
?__LINE__Var@?0??group_kill_all_members@@YGXPAUENTITY@@@Z@4JA DD 03fbH ; `group_kill_all_members'::`1'::__LINE__Var
_DATA	ENDS
;	COMDAT ??_C@_04GGKLLKOO@task@
CONST	SEGMENT
??_C@_04GGKLLKOO@task@ DB 'task', 00H			; `string'
CONST	ENDS
;	COMDAT ?__LINE__Var@?0??group_terminate_all_tasks@@YGXPAUENTITY@@@Z@4JA
_DATA	SEGMENT
?__LINE__Var@?0??group_terminate_all_tasks@@YGXPAUENTITY@@@Z@4JA DD 03cfH ; `group_terminate_all_tasks'::`1'::__LINE__Var
_DATA	ENDS
;	COMDAT ??_C@_02HODPCBMO@wp@
CONST	SEGMENT
??_C@_02HODPCBMO@wp@ DB 'wp', 00H			; `string'
CONST	ENDS
;	COMDAT ??_C@_0L@HHMDNOPI@current_wp@
CONST	SEGMENT
??_C@_0L@HHMDNOPI@current_wp@ DB 'current_wp', 00H	; `string'
CONST	ENDS
;	COMDAT ??_C@_05HLIEEKJG@guide@
CONST	SEGMENT
??_C@_05HLIEEKJG@guide@ DB 'guide', 00H			; `string'
CONST	ENDS
;	COMDAT ??_C@_0CG@LCBNLKBK@GROUP?3?5sending?5group?5?$CFs?5?$CI?$CFd?$CJ?5ho@
CONST	SEGMENT
??_C@_0CG@LCBNLKBK@GROUP?3?5sending?5group?5?$CFs?5?$CI?$CFd?$CJ?5ho@ DB 'G'
	DB	'ROUP: sending group %s (%d) home... ', 00H	; `string'
CONST	ENDS
;	COMDAT ?__LINE__Var@?0??group_return_to_base@@YGXPAUENTITY@@@Z@4JA
_DATA	SEGMENT
?__LINE__Var@?0??group_return_to_base@@YGXPAUENTITY@@@Z@4JA DD 0337H ; `group_return_to_base'::`1'::__LINE__Var
_DATA	ENDS
;	COMDAT ?__LINE__Var@?0??set_group_formation_positions@@YGXPAUENTITY@@@Z@4JA
_DATA	SEGMENT
?__LINE__Var@?0??set_group_formation_positions@@YGXPAUENTITY@@@Z@4JA DD 0320H ; `set_group_formation_positions'::`1'::__LINE__Var
_DATA	ENDS
;	COMDAT ??_C@_02LFNMGJAP@en@
CONST	SEGMENT
??_C@_02LFNMGJAP@en@ DB 'en', 00H			; `string'
CONST	ENDS
;	COMDAT ?__LINE__Var@?0??set_group_member_numbers@@YGXPAUENTITY@@@Z@4JA
_DATA	SEGMENT
?__LINE__Var@?0??set_group_member_numbers@@YGXPAUENTITY@@@Z@4JA DD 0302H ; `set_group_member_numbers'::`1'::__LINE__Var
_DATA	ENDS
;	COMDAT ??_C@_07FBNBNOMI@keysite@
CONST	SEGMENT
??_C@_07FBNBNOMI@keysite@ DB 'keysite', 00H		; `string'
CONST	ENDS
;	COMDAT ?__LINE__Var@?0??assess_group_supplies@@YGXPAUENTITY@@@Z@4JA
_DATA	SEGMENT
?__LINE__Var@?0??assess_group_supplies@@YGXPAUENTITY@@@Z@4JA DD 026cH ; `assess_group_supplies'::`1'::__LINE__Var
_DATA	ENDS
;	COMDAT ??_C@_05MGJOOGAJ@group@
CONST	SEGMENT
??_C@_05MGJOOGAJ@group@ DB 'group', 00H			; `string'
CONST	ENDS
;	COMDAT ?__LINE__Var@?0??get_group_suitable_for_player@@YGHPAUENTITY@@0@Z@4JA
_DATA	SEGMENT
?__LINE__Var@?0??get_group_suitable_for_player@@YGHPAUENTITY@@0@Z@4JA DD 024dH ; `get_group_suitable_for_player'::`1'::__LINE__Var
_DATA	ENDS
;	COMDAT ?__LINE__Var@?0??set_group_verbose_operational_state@@YGXPAUENTITY@@H@Z@4JA
_DATA	SEGMENT
?__LINE__Var@?0??set_group_verbose_operational_state@@YGXPAUENTITY@@H@Z@4JA DD 0232H ; `set_group_verbose_operational_state'::`1'::__LINE__Var
_DATA	ENDS
;	COMDAT ??_C@_0GI@GKFOJJGK@GROUP?3?5WARNING?3?5Amalgamated?5gro@
CONST	SEGMENT
??_C@_0GI@GKFOJJGK@GROUP?3?5WARNING?3?5Amalgamated?5gro@ DB 'GROUP: WARNI'
	DB	'NG: Amalgamated group with members (%s (%d) and %s (%d)) %f a'
	DB	'part -------------------------', 00H	; `string'
CONST	ENDS
;	COMDAT ??_C@_06HDFDANIG@member@
CONST	SEGMENT
??_C@_06HDFDANIG@member@ DB 'member', 00H		; `string'
CONST	ENDS
;	COMDAT ??_C@_0EI@BMGPKMAK@get_local_entity_int_value?5?$CIdon@
CONST	SEGMENT
??_C@_0EI@BMGPKMAK@get_local_entity_int_value?5?$CIdon@ DB 'get_local_ent'
	DB	'ity_int_value (donating_group, INT_TYPE_MEMBER_COUNT) == 0', 00H ; `string'
CONST	ENDS
;	COMDAT ??_C@_0CG@ONOENFCA@GROUP?3?7receiving?5group?5member?5?$CF@
CONST	SEGMENT
??_C@_0CG@ONOENFCA@GROUP?3?7receiving?5group?5member?5?$CF@ DB 'GROUP:', 09H
	DB	'receiving group member %s (%d)', 00H	; `string'
CONST	ENDS
;	COMDAT ??_C@_0FM@EIDHLFJD@get_local_entity_int_value?5?$CImem@
CONST	SEGMENT
??_C@_0FM@EIDHLFJD@get_local_entity_int_value?5?$CImem@ DB 'get_local_ent'
	DB	'ity_int_value (member, INT_TYPE_OPERATIONAL_STATE) == OPERATI'
	DB	'ONAL_STATE_LANDED', 00H			; `string'
CONST	ENDS
;	COMDAT ??_C@_0CF@PCKAGIHN@GROUP?3?7donating?5group?5member?5?$CFs@
CONST	SEGMENT
??_C@_0CF@PCKAGIHN@GROUP?3?7donating?5group?5member?5?$CFs@ DB 'GROUP:', 09H
	DB	'donating group member %s (%d)', 00H		; `string'
CONST	ENDS
;	COMDAT ??_C@_0EH@HNMCILHN@GROUP?3?5amalgamating?5group?5?$CFs?5?$CFd@
CONST	SEGMENT
??_C@_0EH@HNMCILHN@GROUP?3?5amalgamating?5group?5?$CFs?5?$CFd@ DB 'GROUP:'
	DB	' amalgamating group %s %d (count %d) with group %s %d (count '
	DB	'%d)', 00H					; `string'
CONST	ENDS
;	COMDAT ??_C@_0LI@OFHMLMMN@get_local_entity_type?5?$CIget_loca@
CONST	SEGMENT
??_C@_0LI@OFHMLMMN@get_local_entity_type?5?$CIget_loca@ DB 'get_local_ent'
	DB	'ity_type (get_local_entity_parent (donating_group, LIST_TYPE_'
	DB	'KEYSITE_GROUP)) == get_local_entity_type (get_local_entity_pa'
	DB	'rent (receiving_group, LIST_TYPE_KEYSITE_GROUP))', 00H ; `string'
CONST	ENDS
;	COMDAT ??_C@_0HK@POBLAJMM@get_local_entity_int_value?5?$CIdon@
CONST	SEGMENT
??_C@_0HK@POBLAJMM@get_local_entity_int_value?5?$CIdon@ DB 'get_local_ent'
	DB	'ity_int_value (donating_group, INT_TYPE_SIDE) == get_local_en'
	DB	'tity_int_value (receiving_group, INT_TYPE_SIDE)', 00H ; `string'
CONST	ENDS
;	COMDAT ??_C@_0CH@HGEKDJEG@group_database?5?$FLgroup_type?$FN?4ama@
CONST	SEGMENT
??_C@_0CH@HGEKDJEG@group_database?5?$FLgroup_type?$FN?4ama@ DB 'group_dat'
	DB	'abase [group_type].amalgamate', 00H		; `string'
CONST	ENDS
;	COMDAT ??_C@_0FE@KCOPOMEJ@get_local_entity_int_value?5?$CIdon@
CONST	SEGMENT
??_C@_0FE@KCOPOMEJ@get_local_entity_int_value?5?$CIdon@ DB 'get_local_ent'
	DB	'ity_int_value (donating_group, INT_TYPE_GROUP_MODE) == GROUP_'
	DB	'MODE_IDLE', 00H				; `string'
CONST	ENDS
;	COMDAT ??_C@_0FF@LJMBIOKP@get_local_entity_int_value?5?$CIrec@
CONST	SEGMENT
??_C@_0FF@LJMBIOKP@get_local_entity_int_value?5?$CIrec@ DB 'get_local_ent'
	DB	'ity_int_value (receiving_group, INT_TYPE_GROUP_MODE) == GROUP'
	DB	'_MODE_IDLE', 00H				; `string'
CONST	ENDS
;	COMDAT ??_C@_0CJ@DMBLBJBK@get_comms_model?5?$CI?$CJ?5?$DN?$DN?5COMMS_MOD@
CONST	SEGMENT
??_C@_0CJ@DMBLBJBK@get_comms_model?5?$CI?$CJ?5?$DN?$DN?5COMMS_MOD@ DB 'ge'
	DB	't_comms_model () == COMMS_MODEL_SERVER', 00H ; `string'
CONST	ENDS
;	COMDAT ?__LINE__Var@?0??amalgamate_groups@@YGHPAUENTITY@@0@Z@4JA
_DATA	SEGMENT
?__LINE__Var@?0??amalgamate_groups@@YGHPAUENTITY@@0@Z@4JA DD 017eH ; `amalgamate_groups'::`1'::__LINE__Var
_DATA	ENDS
;	COMDAT ?__LINE__Var@?0??get_group_at_road_node@@YGPAUENTITY@@H@Z@4JA
_DATA	SEGMENT
?__LINE__Var@?0??get_group_at_road_node@@YGPAUENTITY@@H@Z@4JA DD 0157H ; `get_group_at_road_node'::`1'::__LINE__Var
_DATA	ENDS
;	COMDAT ?__LINE__Var@?0??assess_group_task_locality_factor@@YGHPAUENTITY@@0PAM@Z@4JA
_DATA	SEGMENT
?__LINE__Var@?0??assess_group_task_locality_factor@@YGHPAUENTITY@@0PAM@Z@4JA DD 0f6H ; `assess_group_task_locality_factor'::`1'::__LINE__Var
_DATA	ENDS
;	COMDAT ?__LINE__Var@?0??get_local_group_member_max_formation_position@@YGHPAUENTITY@@@Z@4JA
_DATA	SEGMENT
?__LINE__Var@?0??get_local_group_member_max_formation_position@@YGHPAUENTITY@@@Z@4JA DD 0d6H ; `get_local_group_member_max_formation_position'::`1'::__LINE__Var
_DATA	ENDS
;	COMDAT ??_C@_0EJ@CCBIJPFD@c?3?2users?2nhv90?2projects?2eech?2ap@
CONST	SEGMENT
??_C@_0EJ@CCBIJPFD@c?3?2users?2nhv90?2projects?2eech?2ap@ DB 'c:\users\nh'
	DB	'v90\projects\eech\aphavoc\source\entity\special\group\group.c'
	DB	00H						; `string'
CONST	ENDS
;	COMDAT ?__LINE__Var@?0??get_local_group_member_count@@YGHPAUENTITY@@@Z@4JA
_DATA	SEGMENT
?__LINE__Var@?0??get_local_group_member_count@@YGHPAUENTITY@@@Z@4JA DD 0baH ; `get_local_group_member_count'::`1'::__LINE__Var
_DATA	ENDS
; Function compile flags: /Odtp /ZI
; File c:\users\nhv90\projects\eech\aphavoc\source\entity\special\group\group.c
;	COMDAT ?free_group_callsign@@YGXPAUENTITY@@@Z
_TEXT	SEGMENT
tv150 = -80						; size = 4
tv130 = -80						; size = 4
tv77 = -80						; size = 4
tv142 = -76						; size = 4
tv90 = -76						; size = 4
tv70 = -76						; size = 4
_index$ = -8						; size = 4
_side$ = -4						; size = 4
_en$ = 8						; size = 4
?free_group_callsign@@YGXPAUENTITY@@@Z PROC		; free_group_callsign, COMDAT

; 1497 : {

  00000	55		 push	 ebp
  00001	8b ec		 mov	 ebp, esp
  00003	83 ec 50	 sub	 esp, 80			; 00000050H
  00006	53		 push	 ebx
  00007	56		 push	 esi
  00008	57		 push	 edi

; 1498 : 
; 1499 : 	int
; 1500 : 		side,
; 1501 : 		index;
; 1502 : 
; 1503 : 	if (get_comms_model () != COMMS_MODEL_SERVER)

  00009	83 3d 00 00 00
	00 00		 cmp	 DWORD PTR ?system_comms_model@@3W4COMMS_MODEL_TYPES@@A, 0 ; system_comms_model
  00010	74 05		 je	 SHORT $LN2@free_group

; 1504 : 	{
; 1505 : 
; 1506 : 		return;

  00012	e9 c7 01 00 00	 jmp	 $LN1@free_group
$LN2@free_group:

; 1507 : 	}
; 1508 : 
; 1509 : 	if (get_local_entity_int_value (en, INT_TYPE_AIRCRAFT_GROUP))

  00017	83 7d 08 00	 cmp	 DWORD PTR _en$[ebp], 0
  0001b	74 0a		 je	 SHORT $LN6@free_group
  0001d	8b 45 08	 mov	 eax, DWORD PTR _en$[ebp]
  00020	8b 08		 mov	 ecx, DWORD PTR [eax]
  00022	89 4d b4	 mov	 DWORD PTR tv70[ebp], ecx
  00025	eb 1d		 jmp	 SHORT $LN7@free_group
$LN6@free_group:
  00027	68 e5 05 00 00	 push	 1509			; 000005e5H
  0002c	68 00 00 00 00	 push	 OFFSET ??_C@_0EJ@CCBIJPFD@c?3?2users?2nhv90?2projects?2eech?2ap@
  00031	8b 15 00 00 00
	00		 mov	 edx, DWORD PTR ?null_entity_pointer_message@@3PBDB ; null_entity_pointer_message
  00037	52		 push	 edx
  00038	e8 00 00 00 00	 call	 ?process_assert@@YGXPBD0H@Z ; process_assert
  0003d	c7 45 b4 00 00
	00 00		 mov	 DWORD PTR tv70[ebp], 0
$LN7@free_group:
  00044	b8 01 00 00 00	 mov	 eax, 1
  00049	85 c0		 test	 eax, eax
  0004b	74 09		 je	 SHORT $LN8@free_group
  0004d	c7 45 b0 05 00
	00 00		 mov	 DWORD PTR tv77[ebp], 5
  00054	eb 1d		 jmp	 SHORT $LN9@free_group
$LN8@free_group:
  00056	68 e5 05 00 00	 push	 1509			; 000005e5H
  0005b	68 00 00 00 00	 push	 OFFSET ??_C@_0EJ@CCBIJPFD@c?3?2users?2nhv90?2projects?2eech?2ap@
  00060	8b 0d 00 00 00
	00		 mov	 ecx, DWORD PTR ?overload_invalid_int_type_message@@3PBDB ; overload_invalid_int_type_message
  00066	51		 push	 ecx
  00067	e8 00 00 00 00	 call	 ?process_assert@@YGXPBD0H@Z ; process_assert
  0006c	c7 45 b0 00 00
	00 00		 mov	 DWORD PTR tv77[ebp], 0
$LN9@free_group:
  00073	6a 05		 push	 5
  00075	8b 55 08	 mov	 edx, DWORD PTR _en$[ebp]
  00078	52		 push	 edx
  00079	69 45 b4 5c 04
	00 00		 imul	 eax, DWORD PTR tv70[ebp], 1116
  00080	8b 4d b0	 mov	 ecx, DWORD PTR tv77[ebp]
  00083	8b 94 88 00 00
	00 00		 mov	 edx, DWORD PTR ?fn_get_local_entity_int_value@@3PAY0BBH@P6GHPAUENTITY@@W4INT_TYPES@@@ZA[eax+ecx*4]
  0008a	ff d2		 call	 edx
  0008c	85 c0		 test	 eax, eax
  0008e	0f 84 4a 01 00
	00		 je	 $LN1@free_group

; 1510 : 	{
; 1511 : 
; 1512 : 		side = get_local_entity_int_value (en, INT_TYPE_SIDE);

  00094	83 7d 08 00	 cmp	 DWORD PTR _en$[ebp], 0
  00098	74 0a		 je	 SHORT $LN10@free_group
  0009a	8b 45 08	 mov	 eax, DWORD PTR _en$[ebp]
  0009d	8b 08		 mov	 ecx, DWORD PTR [eax]
  0009f	89 4d b4	 mov	 DWORD PTR tv90[ebp], ecx
  000a2	eb 21		 jmp	 SHORT $LN11@free_group
$LN10@free_group:
  000a4	8b 15 00 00 00
	00		 mov	 edx, DWORD PTR ?__LINE__Var@?0??free_group_callsign@@YGXPAUENTITY@@@Z@4JA
  000aa	83 c2 0f	 add	 edx, 15			; 0000000fH
  000ad	52		 push	 edx
  000ae	68 00 00 00 00	 push	 OFFSET ??_C@_0EJ@CCBIJPFD@c?3?2users?2nhv90?2projects?2eech?2ap@
  000b3	a1 00 00 00 00	 mov	 eax, DWORD PTR ?null_entity_pointer_message@@3PBDB ; null_entity_pointer_message
  000b8	50		 push	 eax
  000b9	e8 00 00 00 00	 call	 ?process_assert@@YGXPBD0H@Z ; process_assert
  000be	c7 45 b4 00 00
	00 00		 mov	 DWORD PTR tv90[ebp], 0
$LN11@free_group:
  000c5	b9 01 00 00 00	 mov	 ecx, 1
  000ca	85 c9		 test	 ecx, ecx
  000cc	74 09		 je	 SHORT $LN12@free_group
  000ce	c7 45 b0 bb 00
	00 00		 mov	 DWORD PTR tv130[ebp], 187 ; 000000bbH
  000d5	eb 21		 jmp	 SHORT $LN13@free_group
$LN12@free_group:
  000d7	8b 15 00 00 00
	00		 mov	 edx, DWORD PTR ?__LINE__Var@?0??free_group_callsign@@YGXPAUENTITY@@@Z@4JA
  000dd	83 c2 0f	 add	 edx, 15			; 0000000fH
  000e0	52		 push	 edx
  000e1	68 00 00 00 00	 push	 OFFSET ??_C@_0EJ@CCBIJPFD@c?3?2users?2nhv90?2projects?2eech?2ap@
  000e6	a1 00 00 00 00	 mov	 eax, DWORD PTR ?overload_invalid_int_type_message@@3PBDB ; overload_invalid_int_type_message
  000eb	50		 push	 eax
  000ec	e8 00 00 00 00	 call	 ?process_assert@@YGXPBD0H@Z ; process_assert
  000f1	c7 45 b0 00 00
	00 00		 mov	 DWORD PTR tv130[ebp], 0
$LN13@free_group:
  000f8	68 bb 00 00 00	 push	 187			; 000000bbH
  000fd	8b 4d 08	 mov	 ecx, DWORD PTR _en$[ebp]
  00100	51		 push	 ecx
  00101	69 55 b4 5c 04
	00 00		 imul	 edx, DWORD PTR tv90[ebp], 1116
  00108	8b 45 b0	 mov	 eax, DWORD PTR tv130[ebp]
  0010b	8b 8c 82 00 00
	00 00		 mov	 ecx, DWORD PTR ?fn_get_local_entity_int_value@@3PAY0BBH@P6GHPAUENTITY@@W4INT_TYPES@@@ZA[edx+eax*4]
  00112	ff d1		 call	 ecx
  00114	89 45 fc	 mov	 DWORD PTR _side$[ebp], eax

; 1513 : 
; 1514 : 		index = get_local_entity_int_value (en, INT_TYPE_GROUP_CALLSIGN);

  00117	83 7d 08 00	 cmp	 DWORD PTR _en$[ebp], 0
  0011b	74 0a		 je	 SHORT $LN14@free_group
  0011d	8b 45 08	 mov	 eax, DWORD PTR _en$[ebp]
  00120	8b 08		 mov	 ecx, DWORD PTR [eax]
  00122	89 4d b4	 mov	 DWORD PTR tv142[ebp], ecx
  00125	eb 21		 jmp	 SHORT $LN15@free_group
$LN14@free_group:
  00127	8b 15 00 00 00
	00		 mov	 edx, DWORD PTR ?__LINE__Var@?0??free_group_callsign@@YGXPAUENTITY@@@Z@4JA
  0012d	83 c2 11	 add	 edx, 17			; 00000011H
  00130	52		 push	 edx
  00131	68 00 00 00 00	 push	 OFFSET ??_C@_0EJ@CCBIJPFD@c?3?2users?2nhv90?2projects?2eech?2ap@
  00136	a1 00 00 00 00	 mov	 eax, DWORD PTR ?null_entity_pointer_message@@3PBDB ; null_entity_pointer_message
  0013b	50		 push	 eax
  0013c	e8 00 00 00 00	 call	 ?process_assert@@YGXPBD0H@Z ; process_assert
  00141	c7 45 b4 00 00
	00 00		 mov	 DWORD PTR tv142[ebp], 0
$LN15@free_group:
  00148	b9 01 00 00 00	 mov	 ecx, 1
  0014d	85 c9		 test	 ecx, ecx
  0014f	74 09		 je	 SHORT $LN16@free_group
  00151	c7 45 b0 44 00
	00 00		 mov	 DWORD PTR tv150[ebp], 68 ; 00000044H
  00158	eb 21		 jmp	 SHORT $LN17@free_group
$LN16@free_group:
  0015a	8b 15 00 00 00
	00		 mov	 edx, DWORD PTR ?__LINE__Var@?0??free_group_callsign@@YGXPAUENTITY@@@Z@4JA
  00160	83 c2 11	 add	 edx, 17			; 00000011H
  00163	52		 push	 edx
  00164	68 00 00 00 00	 push	 OFFSET ??_C@_0EJ@CCBIJPFD@c?3?2users?2nhv90?2projects?2eech?2ap@
  00169	a1 00 00 00 00	 mov	 eax, DWORD PTR ?overload_invalid_int_type_message@@3PBDB ; overload_invalid_int_type_message
  0016e	50		 push	 eax
  0016f	e8 00 00 00 00	 call	 ?process_assert@@YGXPBD0H@Z ; process_assert
  00174	c7 45 b0 00 00
	00 00		 mov	 DWORD PTR tv150[ebp], 0
$LN17@free_group:
  0017b	6a 44		 push	 68			; 00000044H
  0017d	8b 4d 08	 mov	 ecx, DWORD PTR _en$[ebp]
  00180	51		 push	 ecx
  00181	69 55 b4 5c 04
	00 00		 imul	 edx, DWORD PTR tv142[ebp], 1116
  00188	8b 45 b0	 mov	 eax, DWORD PTR tv150[ebp]
  0018b	8b 8c 82 00 00
	00 00		 mov	 ecx, DWORD PTR ?fn_get_local_entity_int_value@@3PAY0BBH@P6GHPAUENTITY@@W4INT_TYPES@@@ZA[edx+eax*4]
  00192	ff d1		 call	 ecx
  00194	89 45 f8	 mov	 DWORD PTR _index$[ebp], eax

; 1515 : 
; 1516 : 		ASSERT (group_callsign_names [index].side [side] > 0);

  00197	8b 45 fc	 mov	 eax, DWORD PTR _side$[ebp]
  0019a	8b 4d f8	 mov	 ecx, DWORD PTR _index$[ebp]
  0019d	0f b6 94 c8 04
	00 00 00	 movzx	 edx, BYTE PTR ?group_callsign_names@@3PAUGROUP_CALLSIGN_NAME_TYPE@@A[eax+ecx*8+4]
  001a5	85 d2		 test	 edx, edx
  001a7	7f 18		 jg	 SHORT $LN4@free_group
  001a9	a1 00 00 00 00	 mov	 eax, DWORD PTR ?__LINE__Var@?0??free_group_callsign@@YGXPAUENTITY@@@Z@4JA
  001ae	83 c0 13	 add	 eax, 19			; 00000013H
  001b1	50		 push	 eax
  001b2	68 00 00 00 00	 push	 OFFSET ??_C@_0EJ@CCBIJPFD@c?3?2users?2nhv90?2projects?2eech?2ap@
  001b7	68 00 00 00 00	 push	 OFFSET ??_C@_0CN@GIHEBNNI@group_callsign_names?5?$FLindex?$FN?4si@
  001bc	e8 00 00 00 00	 call	 ?process_assert@@YGXPBD0H@Z ; process_assert
$LN4@free_group:

; 1517 : 
; 1518 : 		group_callsign_names [index].side [side] --;

  001c1	8b 45 fc	 mov	 eax, DWORD PTR _side$[ebp]
  001c4	8b 4d f8	 mov	 ecx, DWORD PTR _index$[ebp]
  001c7	8a 94 c8 04 00
	00 00		 mov	 dl, BYTE PTR ?group_callsign_names@@3PAUGROUP_CALLSIGN_NAME_TYPE@@A[eax+ecx*8+4]
  001ce	80 ea 01	 sub	 dl, 1
  001d1	8b 45 fc	 mov	 eax, DWORD PTR _side$[ebp]
  001d4	8b 4d f8	 mov	 ecx, DWORD PTR _index$[ebp]
  001d7	88 94 c8 04 00
	00 00		 mov	 BYTE PTR ?group_callsign_names@@3PAUGROUP_CALLSIGN_NAME_TYPE@@A[eax+ecx*8+4], dl
$LN1@free_group:

; 1519 : 	}
; 1520 : }

  001de	5f		 pop	 edi
  001df	5e		 pop	 esi
  001e0	5b		 pop	 ebx
  001e1	8b e5		 mov	 esp, ebp
  001e3	5d		 pop	 ebp
  001e4	c2 04 00	 ret	 4
?free_group_callsign@@YGXPAUENTITY@@@Z ENDP		; free_group_callsign
_TEXT	ENDS
; Function compile flags: /Odtp /ZI
; File c:\users\nhv90\projects\eech\aphavoc\source\entity\special\group\group.c
;	COMDAT ?assign_group_callsign@@YGHPAUENTITY@@@Z
_TEXT	SEGMENT
tv163 = -84						; size = 4
tv133 = -84						; size = 4
tv77 = -84						; size = 4
tv155 = -80						; size = 4
tv93 = -80						; size = 4
tv70 = -80						; size = 4
_index$ = -12						; size = 4
_side$ = -8						; size = 4
_start_position$ = -4					; size = 4
_en$ = 8						; size = 4
?assign_group_callsign@@YGHPAUENTITY@@@Z PROC		; assign_group_callsign, COMDAT

; 1448 : {

  00000	55		 push	 ebp
  00001	8b ec		 mov	 ebp, esp
  00003	83 ec 54	 sub	 esp, 84			; 00000054H
  00006	53		 push	 ebx
  00007	56		 push	 esi
  00008	57		 push	 edi

; 1449 : 
; 1450 : 	int
; 1451 : 		start_position,
; 1452 : 		side,
; 1453 : 		index;
; 1454 : 
; 1455 : 	index = 0;

  00009	c7 45 f4 00 00
	00 00		 mov	 DWORD PTR _index$[ebp], 0

; 1456 : 
; 1457 : 	if (get_comms_model () != COMMS_MODEL_SERVER)

  00010	83 3d 00 00 00
	00 00		 cmp	 DWORD PTR ?system_comms_model@@3W4COMMS_MODEL_TYPES@@A, 0 ; system_comms_model
  00017	74 08		 je	 SHORT $LN4@assign_gro

; 1458 : 	{
; 1459 : 
; 1460 : 		return index;

  00019	8b 45 f4	 mov	 eax, DWORD PTR _index$[ebp]
  0001c	e9 0a 02 00 00	 jmp	 $LN1@assign_gro
$LN4@assign_gro:

; 1461 : 	}
; 1462 : 
; 1463 : 	if (get_local_entity_int_value (en, INT_TYPE_AIRCRAFT_GROUP))

  00021	83 7d 08 00	 cmp	 DWORD PTR _en$[ebp], 0
  00025	74 0a		 je	 SHORT $LN8@assign_gro
  00027	8b 45 08	 mov	 eax, DWORD PTR _en$[ebp]
  0002a	8b 08		 mov	 ecx, DWORD PTR [eax]
  0002c	89 4d b0	 mov	 DWORD PTR tv70[ebp], ecx
  0002f	eb 1d		 jmp	 SHORT $LN9@assign_gro
$LN8@assign_gro:
  00031	68 b7 05 00 00	 push	 1463			; 000005b7H
  00036	68 00 00 00 00	 push	 OFFSET ??_C@_0EJ@CCBIJPFD@c?3?2users?2nhv90?2projects?2eech?2ap@
  0003b	8b 15 00 00 00
	00		 mov	 edx, DWORD PTR ?null_entity_pointer_message@@3PBDB ; null_entity_pointer_message
  00041	52		 push	 edx
  00042	e8 00 00 00 00	 call	 ?process_assert@@YGXPBD0H@Z ; process_assert
  00047	c7 45 b0 00 00
	00 00		 mov	 DWORD PTR tv70[ebp], 0
$LN9@assign_gro:
  0004e	b8 01 00 00 00	 mov	 eax, 1
  00053	85 c0		 test	 eax, eax
  00055	74 09		 je	 SHORT $LN10@assign_gro
  00057	c7 45 ac 05 00
	00 00		 mov	 DWORD PTR tv77[ebp], 5
  0005e	eb 1d		 jmp	 SHORT $LN11@assign_gro
$LN10@assign_gro:
  00060	68 b7 05 00 00	 push	 1463			; 000005b7H
  00065	68 00 00 00 00	 push	 OFFSET ??_C@_0EJ@CCBIJPFD@c?3?2users?2nhv90?2projects?2eech?2ap@
  0006a	8b 0d 00 00 00
	00		 mov	 ecx, DWORD PTR ?overload_invalid_int_type_message@@3PBDB ; overload_invalid_int_type_message
  00070	51		 push	 ecx
  00071	e8 00 00 00 00	 call	 ?process_assert@@YGXPBD0H@Z ; process_assert
  00076	c7 45 ac 00 00
	00 00		 mov	 DWORD PTR tv77[ebp], 0
$LN11@assign_gro:
  0007d	6a 05		 push	 5
  0007f	8b 55 08	 mov	 edx, DWORD PTR _en$[ebp]
  00082	52		 push	 edx
  00083	69 45 b0 5c 04
	00 00		 imul	 eax, DWORD PTR tv70[ebp], 1116
  0008a	8b 4d ac	 mov	 ecx, DWORD PTR tv77[ebp]
  0008d	8b 94 88 00 00
	00 00		 mov	 edx, DWORD PTR ?fn_get_local_entity_int_value@@3PAY0BBH@P6GHPAUENTITY@@W4INT_TYPES@@@ZA[eax+ecx*4]
  00094	ff d2		 call	 edx
  00096	85 c0		 test	 eax, eax
  00098	0f 84 8a 01 00
	00		 je	 $LN5@assign_gro

; 1464 : 	{
; 1465 : 
; 1466 : 		index = get_local_entity_index (en) % NUM_GROUP_CALLSIGNS;

  0009e	8b 45 08	 mov	 eax, DWORD PTR _en$[ebp]
  000a1	2b 05 00 00 00
	00		 sub	 eax, DWORD PTR ?entities@@3PAUENTITY@@A ; entities
  000a7	c1 f8 04	 sar	 eax, 4
  000aa	99		 cdq
  000ab	b9 5a 00 00 00	 mov	 ecx, 90			; 0000005aH
  000b0	f7 f9		 idiv	 ecx
  000b2	89 55 f4	 mov	 DWORD PTR _index$[ebp], edx

; 1467 : 
; 1468 : 		start_position = index;

  000b5	8b 45 f4	 mov	 eax, DWORD PTR _index$[ebp]
  000b8	89 45 fc	 mov	 DWORD PTR _start_position$[ebp], eax

; 1469 : 
; 1470 : 		side = get_local_entity_int_value (en, INT_TYPE_SIDE);

  000bb	83 7d 08 00	 cmp	 DWORD PTR _en$[ebp], 0
  000bf	74 0a		 je	 SHORT $LN12@assign_gro
  000c1	8b 45 08	 mov	 eax, DWORD PTR _en$[ebp]
  000c4	8b 08		 mov	 ecx, DWORD PTR [eax]
  000c6	89 4d b0	 mov	 DWORD PTR tv93[ebp], ecx
  000c9	eb 21		 jmp	 SHORT $LN13@assign_gro
$LN12@assign_gro:
  000cb	8b 15 00 00 00
	00		 mov	 edx, DWORD PTR ?__LINE__Var@?0??assign_group_callsign@@YGHPAUENTITY@@@Z@4JA
  000d1	83 c2 16	 add	 edx, 22			; 00000016H
  000d4	52		 push	 edx
  000d5	68 00 00 00 00	 push	 OFFSET ??_C@_0EJ@CCBIJPFD@c?3?2users?2nhv90?2projects?2eech?2ap@
  000da	a1 00 00 00 00	 mov	 eax, DWORD PTR ?null_entity_pointer_message@@3PBDB ; null_entity_pointer_message
  000df	50		 push	 eax
  000e0	e8 00 00 00 00	 call	 ?process_assert@@YGXPBD0H@Z ; process_assert
  000e5	c7 45 b0 00 00
	00 00		 mov	 DWORD PTR tv93[ebp], 0
$LN13@assign_gro:
  000ec	b9 01 00 00 00	 mov	 ecx, 1
  000f1	85 c9		 test	 ecx, ecx
  000f3	74 09		 je	 SHORT $LN14@assign_gro
  000f5	c7 45 ac bb 00
	00 00		 mov	 DWORD PTR tv133[ebp], 187 ; 000000bbH
  000fc	eb 21		 jmp	 SHORT $LN15@assign_gro
$LN14@assign_gro:
  000fe	8b 15 00 00 00
	00		 mov	 edx, DWORD PTR ?__LINE__Var@?0??assign_group_callsign@@YGHPAUENTITY@@@Z@4JA
  00104	83 c2 16	 add	 edx, 22			; 00000016H
  00107	52		 push	 edx
  00108	68 00 00 00 00	 push	 OFFSET ??_C@_0EJ@CCBIJPFD@c?3?2users?2nhv90?2projects?2eech?2ap@
  0010d	a1 00 00 00 00	 mov	 eax, DWORD PTR ?overload_invalid_int_type_message@@3PBDB ; overload_invalid_int_type_message
  00112	50		 push	 eax
  00113	e8 00 00 00 00	 call	 ?process_assert@@YGXPBD0H@Z ; process_assert
  00118	c7 45 ac 00 00
	00 00		 mov	 DWORD PTR tv133[ebp], 0
$LN15@assign_gro:
  0011f	68 bb 00 00 00	 push	 187			; 000000bbH
  00124	8b 4d 08	 mov	 ecx, DWORD PTR _en$[ebp]
  00127	51		 push	 ecx
  00128	69 55 b0 5c 04
	00 00		 imul	 edx, DWORD PTR tv93[ebp], 1116
  0012f	8b 45 ac	 mov	 eax, DWORD PTR tv133[ebp]
  00132	8b 8c 82 00 00
	00 00		 mov	 ecx, DWORD PTR ?fn_get_local_entity_int_value@@3PAY0BBH@P6GHPAUENTITY@@W4INT_TYPES@@@ZA[edx+eax*4]
  00139	ff d1		 call	 ecx
  0013b	89 45 f8	 mov	 DWORD PTR _side$[ebp], eax
$LN2@assign_gro:

; 1471 : 
; 1472 : 		while (group_callsign_names [index].side [side])

  0013e	8b 45 f8	 mov	 eax, DWORD PTR _side$[ebp]
  00141	8b 4d f4	 mov	 ecx, DWORD PTR _index$[ebp]
  00144	0f b6 94 c8 04
	00 00 00	 movzx	 edx, BYTE PTR ?group_callsign_names@@3PAUGROUP_CALLSIGN_NAME_TYPE@@A[eax+ecx*8+4]
  0014c	85 d2		 test	 edx, edx
  0014e	0f 84 b7 00 00
	00		 je	 $LN3@assign_gro

; 1473 : 		{
; 1474 : 
; 1475 : 			index = ( index + 1 ) % NUM_GROUP_CALLSIGNS;

  00154	8b 45 f4	 mov	 eax, DWORD PTR _index$[ebp]
  00157	83 c0 01	 add	 eax, 1
  0015a	99		 cdq
  0015b	b9 5a 00 00 00	 mov	 ecx, 90			; 0000005aH
  00160	f7 f9		 idiv	 ecx
  00162	89 55 f4	 mov	 DWORD PTR _index$[ebp], edx

; 1476 : 
; 1477 : 			if (index == start_position)

  00165	8b 45 f4	 mov	 eax, DWORD PTR _index$[ebp]
  00168	3b 45 fc	 cmp	 eax, DWORD PTR _start_position$[ebp]
  0016b	0f 85 95 00 00
	00		 jne	 $LN6@assign_gro

; 1478 : 			{
; 1479 : 
; 1480 : 				debug_log ("GROUP: WARNING: reusing group callsign %s for group %s", group_callsign_names [index].callsign, get_local_entity_string (en, STRING_TYPE_FULL_NAME));

  00171	83 7d 08 00	 cmp	 DWORD PTR _en$[ebp], 0
  00175	74 0a		 je	 SHORT $LN16@assign_gro
  00177	8b 45 08	 mov	 eax, DWORD PTR _en$[ebp]
  0017a	8b 08		 mov	 ecx, DWORD PTR [eax]
  0017c	89 4d b0	 mov	 DWORD PTR tv155[ebp], ecx
  0017f	eb 21		 jmp	 SHORT $LN17@assign_gro
$LN16@assign_gro:
  00181	8b 15 00 00 00
	00		 mov	 edx, DWORD PTR ?__LINE__Var@?0??assign_group_callsign@@YGHPAUENTITY@@@Z@4JA
  00187	83 c2 20	 add	 edx, 32			; 00000020H
  0018a	52		 push	 edx
  0018b	68 00 00 00 00	 push	 OFFSET ??_C@_0EJ@CCBIJPFD@c?3?2users?2nhv90?2projects?2eech?2ap@
  00190	a1 00 00 00 00	 mov	 eax, DWORD PTR ?null_entity_pointer_message@@3PBDB ; null_entity_pointer_message
  00195	50		 push	 eax
  00196	e8 00 00 00 00	 call	 ?process_assert@@YGXPBD0H@Z ; process_assert
  0019b	c7 45 b0 00 00
	00 00		 mov	 DWORD PTR tv155[ebp], 0
$LN17@assign_gro:
  001a2	b9 01 00 00 00	 mov	 ecx, 1
  001a7	85 c9		 test	 ecx, ecx
  001a9	74 09		 je	 SHORT $LN18@assign_gro
  001ab	c7 45 ac 03 00
	00 00		 mov	 DWORD PTR tv163[ebp], 3
  001b2	eb 21		 jmp	 SHORT $LN19@assign_gro
$LN18@assign_gro:
  001b4	8b 15 00 00 00
	00		 mov	 edx, DWORD PTR ?__LINE__Var@?0??assign_group_callsign@@YGHPAUENTITY@@@Z@4JA
  001ba	83 c2 20	 add	 edx, 32			; 00000020H
  001bd	52		 push	 edx
  001be	68 00 00 00 00	 push	 OFFSET ??_C@_0EJ@CCBIJPFD@c?3?2users?2nhv90?2projects?2eech?2ap@
  001c3	a1 00 00 00 00	 mov	 eax, DWORD PTR ?overload_invalid_string_type_message@@3PBDB ; overload_invalid_string_type_message
  001c8	50		 push	 eax
  001c9	e8 00 00 00 00	 call	 ?process_assert@@YGXPBD0H@Z ; process_assert
  001ce	c7 45 ac 00 00
	00 00		 mov	 DWORD PTR tv163[ebp], 0
$LN19@assign_gro:
  001d5	6a 03		 push	 3
  001d7	8b 4d 08	 mov	 ecx, DWORD PTR _en$[ebp]
  001da	51		 push	 ecx
  001db	6b 55 b0 34	 imul	 edx, DWORD PTR tv155[ebp], 52
  001df	8b 45 ac	 mov	 eax, DWORD PTR tv163[ebp]
  001e2	8b 8c 82 00 00
	00 00		 mov	 ecx, DWORD PTR ?fn_get_local_entity_string@@3PAY0N@P6GPBDPAUENTITY@@W4STRING_TYPES@@@ZA[edx+eax*4]
  001e9	ff d1		 call	 ecx
  001eb	50		 push	 eax
  001ec	8b 55 f4	 mov	 edx, DWORD PTR _index$[ebp]
  001ef	8b 04 d5 00 00
	00 00		 mov	 eax, DWORD PTR ?group_callsign_names@@3PAUGROUP_CALLSIGN_NAME_TYPE@@A[edx*8]
  001f6	50		 push	 eax
  001f7	68 00 00 00 00	 push	 OFFSET ??_C@_0DH@LIOCIIND@GROUP?3?5WARNING?3?5reusing?5group?5c@
  001fc	e8 00 00 00 00	 call	 ?debug_log@@YAXPBDZZ	; debug_log
  00201	83 c4 0c	 add	 esp, 12			; 0000000cH

; 1481 : 
; 1482 : 				break;

  00204	eb 05		 jmp	 SHORT $LN3@assign_gro
$LN6@assign_gro:

; 1483 : 			}
; 1484 : 		}

  00206	e9 33 ff ff ff	 jmp	 $LN2@assign_gro
$LN3@assign_gro:

; 1485 : 
; 1486 : 		group_callsign_names [index].side [side] ++;

  0020b	8b 45 f8	 mov	 eax, DWORD PTR _side$[ebp]
  0020e	8b 4d f4	 mov	 ecx, DWORD PTR _index$[ebp]
  00211	8a 94 c8 04 00
	00 00		 mov	 dl, BYTE PTR ?group_callsign_names@@3PAUGROUP_CALLSIGN_NAME_TYPE@@A[eax+ecx*8+4]
  00218	80 c2 01	 add	 dl, 1
  0021b	8b 45 f8	 mov	 eax, DWORD PTR _side$[ebp]
  0021e	8b 4d f4	 mov	 ecx, DWORD PTR _index$[ebp]
  00221	88 94 c8 04 00
	00 00		 mov	 BYTE PTR ?group_callsign_names@@3PAUGROUP_CALLSIGN_NAME_TYPE@@A[eax+ecx*8+4], dl
$LN5@assign_gro:

; 1487 : 	}
; 1488 : 
; 1489 : 	return index;

  00228	8b 45 f4	 mov	 eax, DWORD PTR _index$[ebp]
$LN1@assign_gro:

; 1490 : }

  0022b	5f		 pop	 edi
  0022c	5e		 pop	 esi
  0022d	5b		 pop	 ebx
  0022e	8b e5		 mov	 esp, ebp
  00230	5d		 pop	 ebp
  00231	c2 04 00	 ret	 4
?assign_group_callsign@@YGHPAUENTITY@@@Z ENDP		; assign_group_callsign
_TEXT	ENDS
; Function compile flags: /Odtp /ZI
; File c:\users\nhv90\projects\eech\aphavoc\source\entity\special\group\group.c
;	COMDAT ?initialise_group_callsign_database@@YGXXZ
_TEXT	SEGMENT
_loop$ = -4						; size = 4
?initialise_group_callsign_database@@YGXXZ PROC		; initialise_group_callsign_database, COMDAT

; 1431 : {

  00000	55		 push	 ebp
  00001	8b ec		 mov	 ebp, esp
  00003	83 ec 44	 sub	 esp, 68			; 00000044H
  00006	53		 push	 ebx
  00007	56		 push	 esi
  00008	57		 push	 edi

; 1432 : 
; 1433 : 	int
; 1434 : 		loop;
; 1435 : 
; 1436 : 	for (loop = 0; loop < NUM_GROUP_CALLSIGNS; loop ++)

  00009	c7 45 fc 00 00
	00 00		 mov	 DWORD PTR _loop$[ebp], 0
  00010	eb 09		 jmp	 SHORT $LN4@initialise
$LN2@initialise:
  00012	8b 45 fc	 mov	 eax, DWORD PTR _loop$[ebp]
  00015	83 c0 01	 add	 eax, 1
  00018	89 45 fc	 mov	 DWORD PTR _loop$[ebp], eax
$LN4@initialise:
  0001b	83 7d fc 5a	 cmp	 DWORD PTR _loop$[ebp], 90 ; 0000005aH
  0001f	7d 19		 jge	 SHORT $LN1@initialise

; 1437 : 	{
; 1438 : 
; 1439 : 		memset (group_callsign_names [loop].side, 0, sizeof (char) * NUM_ENTITY_SIDES);

  00021	6a 03		 push	 3
  00023	6a 00		 push	 0
  00025	8b 45 fc	 mov	 eax, DWORD PTR _loop$[ebp]
  00028	8d 0c c5 04 00
	00 00		 lea	 ecx, DWORD PTR ?group_callsign_names@@3PAUGROUP_CALLSIGN_NAME_TYPE@@A[eax*8+4]
  0002f	51		 push	 ecx
  00030	e8 00 00 00 00	 call	 _memset
  00035	83 c4 0c	 add	 esp, 12			; 0000000cH

; 1440 : 	}

  00038	eb d8		 jmp	 SHORT $LN2@initialise
$LN1@initialise:

; 1441 : }

  0003a	5f		 pop	 edi
  0003b	5e		 pop	 esi
  0003c	5b		 pop	 ebx
  0003d	8b e5		 mov	 esp, ebp
  0003f	5d		 pop	 ebp
  00040	c3		 ret	 0
?initialise_group_callsign_database@@YGXXZ ENDP		; initialise_group_callsign_database
_TEXT	ENDS
; Function compile flags: /Odtp /ZI
; File c:\users\nhv90\projects\eech\aphavoc\source\entity\special\group\group.c
;	COMDAT ?group_task_specific_retaliation_checks@@YGHPAUENTITY@@0H@Z
_TEXT	SEGMENT
tv525 = -108						; size = 8
tv468 = -108						; size = 8
tv367 = -108						; size = 4
tv324 = -108						; size = 4
tv304 = -108						; size = 4
tv282 = -108						; size = 4
tv252 = -108						; size = 4
tv227 = -108						; size = 4
tv206 = -108						; size = 4
tv185 = -108						; size = 4
tv166 = -108						; size = 4
tv145 = -108						; size = 4
tv91 = -108						; size = 4
tv360 = -104						; size = 4
tv316 = -104						; size = 4
tv296 = -104						; size = 4
tv275 = -104						; size = 4
tv244 = -104						; size = 4
tv219 = -104						; size = 4
tv198 = -104						; size = 4
tv178 = -104						; size = 4
tv172 = -104						; size = 4
tv158 = -104						; size = 4
tv138 = -104						; size = 4
tv84 = -104						; size = 4
_sz$ = -36						; size = 4
_sx$ = -32						; size = 4
_aggressor_pos$ = -28					; size = 4
_objective_pos$ = -24					; size = 4
_group_pos$ = -20					; size = 4
_side$ = -16						; size = 4
_roe$ = -12						; size = 4
_objective$ = -8					; size = 4
_task$ = -4						; size = 4
_group$ = 8						; size = 4
_aggressor$ = 12					; size = 4
_assisted$ = 16						; size = 4
?group_task_specific_retaliation_checks@@YGHPAUENTITY@@0H@Z PROC ; group_task_specific_retaliation_checks, COMDAT

; 1275 : {

  00000	55		 push	 ebp
  00001	8b ec		 mov	 ebp, esp
  00003	83 ec 6c	 sub	 esp, 108		; 0000006cH
  00006	53		 push	 ebx
  00007	56		 push	 esi
  00008	57		 push	 edi

; 1276 : 	entity
; 1277 : 		*task,
; 1278 : 		*objective;
; 1279 : 
; 1280 : 	task_roe_types
; 1281 : 		roe;
; 1282 : 
; 1283 : 	entity_sides
; 1284 : 		side;
; 1285 : 
; 1286 : 	vec3d
; 1287 : 		*group_pos,
; 1288 : 		*objective_pos,
; 1289 : 		*aggressor_pos;
; 1290 : 
; 1291 : 	int
; 1292 : 		sx,
; 1293 : 		sz;
; 1294 : 
; 1295 : 	ASSERT (get_comms_model () == COMMS_MODEL_SERVER);

  00009	83 3d 00 00 00
	00 00		 cmp	 DWORD PTR ?system_comms_model@@3W4COMMS_MODEL_TYPES@@A, 0 ; system_comms_model
  00010	74 18		 je	 SHORT $LN4@group_task
  00012	a1 00 00 00 00	 mov	 eax, DWORD PTR ?__LINE__Var@?0??group_task_specific_retaliation_checks@@YGHPAUENTITY@@0H@Z@4JA
  00017	83 c0 14	 add	 eax, 20			; 00000014H
  0001a	50		 push	 eax
  0001b	68 00 00 00 00	 push	 OFFSET ??_C@_0EJ@CCBIJPFD@c?3?2users?2nhv90?2projects?2eech?2ap@
  00020	68 00 00 00 00	 push	 OFFSET ??_C@_0CJ@DMBLBJBK@get_comms_model?5?$CI?$CJ?5?$DN?$DN?5COMMS_MOD@
  00025	e8 00 00 00 00	 call	 ?process_assert@@YGXPBD0H@Z ; process_assert
$LN4@group_task:

; 1296 : 
; 1297 : 	ASSERT (group);

  0002a	83 7d 08 00	 cmp	 DWORD PTR _group$[ebp], 0
  0002e	75 18		 jne	 SHORT $LN5@group_task
  00030	a1 00 00 00 00	 mov	 eax, DWORD PTR ?__LINE__Var@?0??group_task_specific_retaliation_checks@@YGHPAUENTITY@@0H@Z@4JA
  00035	83 c0 16	 add	 eax, 22			; 00000016H
  00038	50		 push	 eax
  00039	68 00 00 00 00	 push	 OFFSET ??_C@_0EJ@CCBIJPFD@c?3?2users?2nhv90?2projects?2eech?2ap@
  0003e	68 00 00 00 00	 push	 OFFSET ??_C@_05MGJOOGAJ@group@
  00043	e8 00 00 00 00	 call	 ?process_assert@@YGXPBD0H@Z ; process_assert
$LN5@group_task:

; 1298 : 
; 1299 : 	ASSERT (aggressor);

  00048	83 7d 0c 00	 cmp	 DWORD PTR _aggressor$[ebp], 0
  0004c	75 18		 jne	 SHORT $LN6@group_task
  0004e	a1 00 00 00 00	 mov	 eax, DWORD PTR ?__LINE__Var@?0??group_task_specific_retaliation_checks@@YGHPAUENTITY@@0H@Z@4JA
  00053	83 c0 18	 add	 eax, 24			; 00000018H
  00056	50		 push	 eax
  00057	68 00 00 00 00	 push	 OFFSET ??_C@_0EJ@CCBIJPFD@c?3?2users?2nhv90?2projects?2eech?2ap@
  0005c	68 00 00 00 00	 push	 OFFSET ??_C@_09HKMIOAOH@aggressor@
  00061	e8 00 00 00 00	 call	 ?process_assert@@YGXPBD0H@Z ; process_assert
$LN6@group_task:

; 1300 : 
; 1301 : 	if (get_local_entity_int_value (group, INT_TYPE_AIRCRAFT_GROUP))

  00066	83 7d 08 00	 cmp	 DWORD PTR _group$[ebp], 0
  0006a	74 0a		 je	 SHORT $LN26@group_task
  0006c	8b 45 08	 mov	 eax, DWORD PTR _group$[ebp]
  0006f	8b 08		 mov	 ecx, DWORD PTR [eax]
  00071	89 4d 98	 mov	 DWORD PTR tv84[ebp], ecx
  00074	eb 1d		 jmp	 SHORT $LN27@group_task
$LN26@group_task:
  00076	68 15 05 00 00	 push	 1301			; 00000515H
  0007b	68 00 00 00 00	 push	 OFFSET ??_C@_0EJ@CCBIJPFD@c?3?2users?2nhv90?2projects?2eech?2ap@
  00080	8b 15 00 00 00
	00		 mov	 edx, DWORD PTR ?null_entity_pointer_message@@3PBDB ; null_entity_pointer_message
  00086	52		 push	 edx
  00087	e8 00 00 00 00	 call	 ?process_assert@@YGXPBD0H@Z ; process_assert
  0008c	c7 45 98 00 00
	00 00		 mov	 DWORD PTR tv84[ebp], 0
$LN27@group_task:
  00093	b8 01 00 00 00	 mov	 eax, 1
  00098	85 c0		 test	 eax, eax
  0009a	74 09		 je	 SHORT $LN28@group_task
  0009c	c7 45 94 05 00
	00 00		 mov	 DWORD PTR tv91[ebp], 5
  000a3	eb 1d		 jmp	 SHORT $LN29@group_task
$LN28@group_task:
  000a5	68 15 05 00 00	 push	 1301			; 00000515H
  000aa	68 00 00 00 00	 push	 OFFSET ??_C@_0EJ@CCBIJPFD@c?3?2users?2nhv90?2projects?2eech?2ap@
  000af	8b 0d 00 00 00
	00		 mov	 ecx, DWORD PTR ?overload_invalid_int_type_message@@3PBDB ; overload_invalid_int_type_message
  000b5	51		 push	 ecx
  000b6	e8 00 00 00 00	 call	 ?process_assert@@YGXPBD0H@Z ; process_assert
  000bb	c7 45 94 00 00
	00 00		 mov	 DWORD PTR tv91[ebp], 0
$LN29@group_task:
  000c2	6a 05		 push	 5
  000c4	8b 55 08	 mov	 edx, DWORD PTR _group$[ebp]
  000c7	52		 push	 edx
  000c8	69 45 98 5c 04
	00 00		 imul	 eax, DWORD PTR tv84[ebp], 1116
  000cf	8b 4d 94	 mov	 ecx, DWORD PTR tv91[ebp]
  000d2	8b 94 88 00 00
	00 00		 mov	 edx, DWORD PTR ?fn_get_local_entity_int_value@@3PAY0BBH@P6GHPAUENTITY@@W4INT_TYPES@@@ZA[eax+ecx*4]
  000d9	ff d2		 call	 edx
  000db	85 c0		 test	 eax, eax
  000dd	0f 84 dc 06 00
	00		 je	 $LN7@group_task

; 1302 : 	{
; 1303 : 		task = get_local_group_primary_task (group);

  000e3	8b 45 08	 mov	 eax, DWORD PTR _group$[ebp]
  000e6	50		 push	 eax
  000e7	e8 00 00 00 00	 call	 ?get_local_group_primary_task@@YGPAUENTITY@@PAU1@@Z ; get_local_group_primary_task
  000ec	89 45 fc	 mov	 DWORD PTR _task$[ebp], eax

; 1304 : 
; 1305 : 		if (!task)

  000ef	83 7d fc 00	 cmp	 DWORD PTR _task$[ebp], 0
  000f3	75 07		 jne	 SHORT $LN9@group_task

; 1306 : 		{
; 1307 : 			return FALSE;

  000f5	33 c0		 xor	 eax, eax
  000f7	e9 c8 06 00 00	 jmp	 $LN8@group_task
$LN9@group_task:

; 1308 : 		}
; 1309 : 
; 1310 : 		if (get_local_entity_int_value (aggressor, INT_TYPE_PLAYER) != ENTITY_PLAYER_AI)

  000fc	83 7d 0c 00	 cmp	 DWORD PTR _aggressor$[ebp], 0
  00100	74 0a		 je	 SHORT $LN30@group_task
  00102	8b 45 0c	 mov	 eax, DWORD PTR _aggressor$[ebp]
  00105	8b 08		 mov	 ecx, DWORD PTR [eax]
  00107	89 4d 98	 mov	 DWORD PTR tv138[ebp], ecx
  0010a	eb 1d		 jmp	 SHORT $LN31@group_task
$LN30@group_task:
  0010c	68 1e 05 00 00	 push	 1310			; 0000051eH
  00111	68 00 00 00 00	 push	 OFFSET ??_C@_0EJ@CCBIJPFD@c?3?2users?2nhv90?2projects?2eech?2ap@
  00116	8b 15 00 00 00
	00		 mov	 edx, DWORD PTR ?null_entity_pointer_message@@3PBDB ; null_entity_pointer_message
  0011c	52		 push	 edx
  0011d	e8 00 00 00 00	 call	 ?process_assert@@YGXPBD0H@Z ; process_assert
  00122	c7 45 98 00 00
	00 00		 mov	 DWORD PTR tv138[ebp], 0
$LN31@group_task:
  00129	b8 01 00 00 00	 mov	 eax, 1
  0012e	85 c0		 test	 eax, eax
  00130	74 09		 je	 SHORT $LN32@group_task
  00132	c7 45 94 9c 00
	00 00		 mov	 DWORD PTR tv145[ebp], 156 ; 0000009cH
  00139	eb 1d		 jmp	 SHORT $LN33@group_task
$LN32@group_task:
  0013b	68 1e 05 00 00	 push	 1310			; 0000051eH
  00140	68 00 00 00 00	 push	 OFFSET ??_C@_0EJ@CCBIJPFD@c?3?2users?2nhv90?2projects?2eech?2ap@
  00145	8b 0d 00 00 00
	00		 mov	 ecx, DWORD PTR ?overload_invalid_int_type_message@@3PBDB ; overload_invalid_int_type_message
  0014b	51		 push	 ecx
  0014c	e8 00 00 00 00	 call	 ?process_assert@@YGXPBD0H@Z ; process_assert
  00151	c7 45 94 00 00
	00 00		 mov	 DWORD PTR tv145[ebp], 0
$LN33@group_task:
  00158	68 9c 00 00 00	 push	 156			; 0000009cH
  0015d	8b 55 0c	 mov	 edx, DWORD PTR _aggressor$[ebp]
  00160	52		 push	 edx
  00161	69 45 98 5c 04
	00 00		 imul	 eax, DWORD PTR tv138[ebp], 1116
  00168	8b 4d 94	 mov	 ecx, DWORD PTR tv145[ebp]
  0016b	8b 94 88 00 00
	00 00		 mov	 edx, DWORD PTR ?fn_get_local_entity_int_value@@3PAY0BBH@P6GHPAUENTITY@@W4INT_TYPES@@@ZA[eax+ecx*4]
  00172	ff d2		 call	 edx
  00174	85 c0		 test	 eax, eax
  00176	74 0a		 je	 SHORT $LN10@group_task

; 1311 : 		{
; 1312 : 			return TRUE;

  00178	b8 01 00 00 00	 mov	 eax, 1
  0017d	e9 42 06 00 00	 jmp	 $LN8@group_task
$LN10@group_task:

; 1313 : 		}
; 1314 : 
; 1315 : 		roe = (task_roe_types) get_local_entity_int_value (task, INT_TYPE_RULES_OF_ENGAGEMENT);

  00182	83 7d fc 00	 cmp	 DWORD PTR _task$[ebp], 0
  00186	74 0a		 je	 SHORT $LN34@group_task
  00188	8b 45 fc	 mov	 eax, DWORD PTR _task$[ebp]
  0018b	8b 08		 mov	 ecx, DWORD PTR [eax]
  0018d	89 4d 98	 mov	 DWORD PTR tv158[ebp], ecx
  00190	eb 21		 jmp	 SHORT $LN35@group_task
$LN34@group_task:
  00192	8b 15 00 00 00
	00		 mov	 edx, DWORD PTR ?__LINE__Var@?0??group_task_specific_retaliation_checks@@YGHPAUENTITY@@0H@Z@4JA
  00198	83 c2 28	 add	 edx, 40			; 00000028H
  0019b	52		 push	 edx
  0019c	68 00 00 00 00	 push	 OFFSET ??_C@_0EJ@CCBIJPFD@c?3?2users?2nhv90?2projects?2eech?2ap@
  001a1	a1 00 00 00 00	 mov	 eax, DWORD PTR ?null_entity_pointer_message@@3PBDB ; null_entity_pointer_message
  001a6	50		 push	 eax
  001a7	e8 00 00 00 00	 call	 ?process_assert@@YGXPBD0H@Z ; process_assert
  001ac	c7 45 98 00 00
	00 00		 mov	 DWORD PTR tv158[ebp], 0
$LN35@group_task:
  001b3	b9 01 00 00 00	 mov	 ecx, 1
  001b8	85 c9		 test	 ecx, ecx
  001ba	74 09		 je	 SHORT $LN36@group_task
  001bc	c7 45 94 b5 00
	00 00		 mov	 DWORD PTR tv166[ebp], 181 ; 000000b5H
  001c3	eb 21		 jmp	 SHORT $LN37@group_task
$LN36@group_task:
  001c5	8b 15 00 00 00
	00		 mov	 edx, DWORD PTR ?__LINE__Var@?0??group_task_specific_retaliation_checks@@YGHPAUENTITY@@0H@Z@4JA
  001cb	83 c2 28	 add	 edx, 40			; 00000028H
  001ce	52		 push	 edx
  001cf	68 00 00 00 00	 push	 OFFSET ??_C@_0EJ@CCBIJPFD@c?3?2users?2nhv90?2projects?2eech?2ap@
  001d4	a1 00 00 00 00	 mov	 eax, DWORD PTR ?overload_invalid_int_type_message@@3PBDB ; overload_invalid_int_type_message
  001d9	50		 push	 eax
  001da	e8 00 00 00 00	 call	 ?process_assert@@YGXPBD0H@Z ; process_assert
  001df	c7 45 94 00 00
	00 00		 mov	 DWORD PTR tv166[ebp], 0
$LN37@group_task:
  001e6	68 b5 00 00 00	 push	 181			; 000000b5H
  001eb	8b 4d fc	 mov	 ecx, DWORD PTR _task$[ebp]
  001ee	51		 push	 ecx
  001ef	69 55 98 5c 04
	00 00		 imul	 edx, DWORD PTR tv158[ebp], 1116
  001f6	8b 45 94	 mov	 eax, DWORD PTR tv166[ebp]
  001f9	8b 8c 82 00 00
	00 00		 mov	 ecx, DWORD PTR ?fn_get_local_entity_int_value@@3PAY0BBH@P6GHPAUENTITY@@W4INT_TYPES@@@ZA[edx+eax*4]
  00200	ff d1		 call	 ecx
  00202	89 45 f4	 mov	 DWORD PTR _roe$[ebp], eax

; 1316 : 
; 1317 : 		switch (roe)

  00205	8b 45 f4	 mov	 eax, DWORD PTR _roe$[ebp]
  00208	89 45 98	 mov	 DWORD PTR tv172[ebp], eax
  0020b	83 7d 98 00	 cmp	 DWORD PTR tv172[ebp], 0
  0020f	74 19		 je	 SHORT $LN11@group_task
  00211	83 7d 98 01	 cmp	 DWORD PTR tv172[ebp], 1
  00215	0f 84 ce 04 00
	00		 je	 $LN21@group_task
  0021b	83 7d 98 02	 cmp	 DWORD PTR tv172[ebp], 2
  0021f	0f 84 80 05 00
	00		 je	 $LN24@group_task
  00225	e9 8f 05 00 00	 jmp	 $LN2@group_task
$LN11@group_task:

; 1318 : 		{
; 1319 : 			case TASK_ROE_NONE:
; 1320 : 			{
; 1321 : 				//
; 1322 : 				// FALSE if aggressor is within target area (stop RECON missions from destroying objectives)
; 1323 : 				//
; 1324 : 
; 1325 : 				if (get_local_entity_int_value (task, INT_TYPE_ENTITY_SUB_TYPE) == ENTITY_SUB_TYPE_TASK_RECON)

  0022a	83 7d fc 00	 cmp	 DWORD PTR _task$[ebp], 0
  0022e	74 0a		 je	 SHORT $LN38@group_task
  00230	8b 45 fc	 mov	 eax, DWORD PTR _task$[ebp]
  00233	8b 08		 mov	 ecx, DWORD PTR [eax]
  00235	89 4d 98	 mov	 DWORD PTR tv178[ebp], ecx
  00238	eb 1d		 jmp	 SHORT $LN39@group_task
$LN38@group_task:
  0023a	68 2d 05 00 00	 push	 1325			; 0000052dH
  0023f	68 00 00 00 00	 push	 OFFSET ??_C@_0EJ@CCBIJPFD@c?3?2users?2nhv90?2projects?2eech?2ap@
  00244	8b 15 00 00 00
	00		 mov	 edx, DWORD PTR ?null_entity_pointer_message@@3PBDB ; null_entity_pointer_message
  0024a	52		 push	 edx
  0024b	e8 00 00 00 00	 call	 ?process_assert@@YGXPBD0H@Z ; process_assert
  00250	c7 45 98 00 00
	00 00		 mov	 DWORD PTR tv178[ebp], 0
$LN39@group_task:
  00257	b8 01 00 00 00	 mov	 eax, 1
  0025c	85 c0		 test	 eax, eax
  0025e	74 09		 je	 SHORT $LN40@group_task
  00260	c7 45 94 34 00
	00 00		 mov	 DWORD PTR tv185[ebp], 52 ; 00000034H
  00267	eb 1d		 jmp	 SHORT $LN41@group_task
$LN40@group_task:
  00269	68 2d 05 00 00	 push	 1325			; 0000052dH
  0026e	68 00 00 00 00	 push	 OFFSET ??_C@_0EJ@CCBIJPFD@c?3?2users?2nhv90?2projects?2eech?2ap@
  00273	8b 0d 00 00 00
	00		 mov	 ecx, DWORD PTR ?overload_invalid_int_type_message@@3PBDB ; overload_invalid_int_type_message
  00279	51		 push	 ecx
  0027a	e8 00 00 00 00	 call	 ?process_assert@@YGXPBD0H@Z ; process_assert
  0027f	c7 45 94 00 00
	00 00		 mov	 DWORD PTR tv185[ebp], 0
$LN41@group_task:
  00286	6a 34		 push	 52			; 00000034H
  00288	8b 55 fc	 mov	 edx, DWORD PTR _task$[ebp]
  0028b	52		 push	 edx
  0028c	69 45 98 5c 04
	00 00		 imul	 eax, DWORD PTR tv178[ebp], 1116
  00293	8b 4d 94	 mov	 ecx, DWORD PTR tv185[ebp]
  00296	8b 94 88 00 00
	00 00		 mov	 edx, DWORD PTR ?fn_get_local_entity_int_value@@3PAY0BBH@P6GHPAUENTITY@@W4INT_TYPES@@@ZA[eax+ecx*4]
  0029d	ff d2		 call	 edx
  0029f	83 f8 11	 cmp	 eax, 17			; 00000011H
  002a2	0f 85 f3 01 00
	00		 jne	 $LN16@group_task

; 1326 : 				{
; 1327 : 					objective = get_local_entity_parent (task, LIST_TYPE_TASK_DEPENDENT);

  002a8	83 7d fc 00	 cmp	 DWORD PTR _task$[ebp], 0
  002ac	74 0a		 je	 SHORT $LN42@group_task
  002ae	8b 45 fc	 mov	 eax, DWORD PTR _task$[ebp]
  002b1	8b 08		 mov	 ecx, DWORD PTR [eax]
  002b3	89 4d 98	 mov	 DWORD PTR tv198[ebp], ecx
  002b6	eb 21		 jmp	 SHORT $LN43@group_task
$LN42@group_task:
  002b8	8b 15 00 00 00
	00		 mov	 edx, DWORD PTR ?__LINE__Var@?0??group_task_specific_retaliation_checks@@YGHPAUENTITY@@0H@Z@4JA
  002be	83 c2 34	 add	 edx, 52			; 00000034H
  002c1	52		 push	 edx
  002c2	68 00 00 00 00	 push	 OFFSET ??_C@_0EJ@CCBIJPFD@c?3?2users?2nhv90?2projects?2eech?2ap@
  002c7	a1 00 00 00 00	 mov	 eax, DWORD PTR ?null_entity_pointer_message@@3PBDB ; null_entity_pointer_message
  002cc	50		 push	 eax
  002cd	e8 00 00 00 00	 call	 ?process_assert@@YGXPBD0H@Z ; process_assert
  002d2	c7 45 98 00 00
	00 00		 mov	 DWORD PTR tv198[ebp], 0
$LN43@group_task:
  002d9	b9 01 00 00 00	 mov	 ecx, 1
  002de	85 c9		 test	 ecx, ecx
  002e0	74 09		 je	 SHORT $LN44@group_task
  002e2	c7 45 94 27 00
	00 00		 mov	 DWORD PTR tv206[ebp], 39 ; 00000027H
  002e9	eb 21		 jmp	 SHORT $LN45@group_task
$LN44@group_task:
  002eb	8b 15 00 00 00
	00		 mov	 edx, DWORD PTR ?__LINE__Var@?0??group_task_specific_retaliation_checks@@YGHPAUENTITY@@0H@Z@4JA
  002f1	83 c2 34	 add	 edx, 52			; 00000034H
  002f4	52		 push	 edx
  002f5	68 00 00 00 00	 push	 OFFSET ??_C@_0EJ@CCBIJPFD@c?3?2users?2nhv90?2projects?2eech?2ap@
  002fa	a1 00 00 00 00	 mov	 eax, DWORD PTR ?overload_invalid_list_type_message@@3PBDB ; overload_invalid_list_type_message
  002ff	50		 push	 eax
  00300	e8 00 00 00 00	 call	 ?process_assert@@YGXPBD0H@Z ; process_assert
  00305	c7 45 94 00 00
	00 00		 mov	 DWORD PTR tv206[ebp], 0
$LN45@group_task:
  0030c	6a 27		 push	 39			; 00000027H
  0030e	8b 4d fc	 mov	 ecx, DWORD PTR _task$[ebp]
  00311	51		 push	 ecx
  00312	69 55 98 b4 00
	00 00		 imul	 edx, DWORD PTR tv198[ebp], 180
  00319	8b 45 94	 mov	 eax, DWORD PTR tv206[ebp]
  0031c	8b 8c 82 00 00
	00 00		 mov	 ecx, DWORD PTR ?fn_get_local_entity_parent@@3PAY0CN@P6GPAUENTITY@@PAU1@W4LIST_TYPES@@@ZA[edx+eax*4]
  00323	ff d1		 call	 ecx
  00325	89 45 f8	 mov	 DWORD PTR _objective$[ebp], eax

; 1328 : 
; 1329 : 					if (objective)

  00328	83 7d f8 00	 cmp	 DWORD PTR _objective$[ebp], 0
  0032c	0f 84 69 01 00
	00		 je	 $LN16@group_task

; 1330 : 					{
; 1331 : 						objective_pos = get_local_entity_vec3d_ptr (objective, VEC3D_TYPE_POSITION);

  00332	83 7d f8 00	 cmp	 DWORD PTR _objective$[ebp], 0
  00336	74 0a		 je	 SHORT $LN46@group_task
  00338	8b 45 f8	 mov	 eax, DWORD PTR _objective$[ebp]
  0033b	8b 08		 mov	 ecx, DWORD PTR [eax]
  0033d	89 4d 98	 mov	 DWORD PTR tv219[ebp], ecx
  00340	eb 21		 jmp	 SHORT $LN47@group_task
$LN46@group_task:
  00342	8b 15 00 00 00
	00		 mov	 edx, DWORD PTR ?__LINE__Var@?0??group_task_specific_retaliation_checks@@YGHPAUENTITY@@0H@Z@4JA
  00348	83 c2 38	 add	 edx, 56			; 00000038H
  0034b	52		 push	 edx
  0034c	68 00 00 00 00	 push	 OFFSET ??_C@_0EJ@CCBIJPFD@c?3?2users?2nhv90?2projects?2eech?2ap@
  00351	a1 00 00 00 00	 mov	 eax, DWORD PTR ?null_entity_pointer_message@@3PBDB ; null_entity_pointer_message
  00356	50		 push	 eax
  00357	e8 00 00 00 00	 call	 ?process_assert@@YGXPBD0H@Z ; process_assert
  0035c	c7 45 98 00 00
	00 00		 mov	 DWORD PTR tv219[ebp], 0
$LN47@group_task:
  00363	b9 01 00 00 00	 mov	 ecx, 1
  00368	85 c9		 test	 ecx, ecx
  0036a	74 09		 je	 SHORT $LN48@group_task
  0036c	c7 45 94 08 00
	00 00		 mov	 DWORD PTR tv227[ebp], 8
  00373	eb 21		 jmp	 SHORT $LN49@group_task
$LN48@group_task:
  00375	8b 15 00 00 00
	00		 mov	 edx, DWORD PTR ?__LINE__Var@?0??group_task_specific_retaliation_checks@@YGHPAUENTITY@@0H@Z@4JA
  0037b	83 c2 38	 add	 edx, 56			; 00000038H
  0037e	52		 push	 edx
  0037f	68 00 00 00 00	 push	 OFFSET ??_C@_0EJ@CCBIJPFD@c?3?2users?2nhv90?2projects?2eech?2ap@
  00384	a1 00 00 00 00	 mov	 eax, DWORD PTR ?overload_invalid_vec3d_type_message@@3PBDB ; overload_invalid_vec3d_type_message
  00389	50		 push	 eax
  0038a	e8 00 00 00 00	 call	 ?process_assert@@YGXPBD0H@Z ; process_assert
  0038f	c7 45 94 00 00
	00 00		 mov	 DWORD PTR tv227[ebp], 0
$LN49@group_task:
  00396	6a 08		 push	 8
  00398	8b 4d f8	 mov	 ecx, DWORD PTR _objective$[ebp]
  0039b	51		 push	 ecx
  0039c	6b 55 98 60	 imul	 edx, DWORD PTR tv219[ebp], 96
  003a0	8b 45 94	 mov	 eax, DWORD PTR tv227[ebp]
  003a3	8b 8c 82 00 00
	00 00		 mov	 ecx, DWORD PTR ?fn_get_local_entity_vec3d_ptr@@3PAY0BI@P6GPAUVEC3D@@PAUENTITY@@W4VEC3D_TYPES@@@ZA[edx+eax*4]
  003aa	ff d1		 call	 ecx
  003ac	89 45 e8	 mov	 DWORD PTR _objective_pos$[ebp], eax

; 1332 : 	
; 1333 : 						ASSERT (objective_pos);

  003af	83 7d e8 00	 cmp	 DWORD PTR _objective_pos$[ebp], 0
  003b3	75 18		 jne	 SHORT $LN14@group_task
  003b5	a1 00 00 00 00	 mov	 eax, DWORD PTR ?__LINE__Var@?0??group_task_specific_retaliation_checks@@YGHPAUENTITY@@0H@Z@4JA
  003ba	83 c0 3a	 add	 eax, 58			; 0000003aH
  003bd	50		 push	 eax
  003be	68 00 00 00 00	 push	 OFFSET ??_C@_0EJ@CCBIJPFD@c?3?2users?2nhv90?2projects?2eech?2ap@
  003c3	68 00 00 00 00	 push	 OFFSET ??_C@_0O@GABLNPIN@objective_pos@
  003c8	e8 00 00 00 00	 call	 ?process_assert@@YGXPBD0H@Z ; process_assert
$LN14@group_task:

; 1334 : 	
; 1335 : 						aggressor_pos = get_local_entity_vec3d_ptr (aggressor, VEC3D_TYPE_POSITION);

  003cd	83 7d 0c 00	 cmp	 DWORD PTR _aggressor$[ebp], 0
  003d1	74 0a		 je	 SHORT $LN50@group_task
  003d3	8b 45 0c	 mov	 eax, DWORD PTR _aggressor$[ebp]
  003d6	8b 08		 mov	 ecx, DWORD PTR [eax]
  003d8	89 4d 98	 mov	 DWORD PTR tv244[ebp], ecx
  003db	eb 21		 jmp	 SHORT $LN51@group_task
$LN50@group_task:
  003dd	8b 15 00 00 00
	00		 mov	 edx, DWORD PTR ?__LINE__Var@?0??group_task_specific_retaliation_checks@@YGHPAUENTITY@@0H@Z@4JA
  003e3	83 c2 3c	 add	 edx, 60			; 0000003cH
  003e6	52		 push	 edx
  003e7	68 00 00 00 00	 push	 OFFSET ??_C@_0EJ@CCBIJPFD@c?3?2users?2nhv90?2projects?2eech?2ap@
  003ec	a1 00 00 00 00	 mov	 eax, DWORD PTR ?null_entity_pointer_message@@3PBDB ; null_entity_pointer_message
  003f1	50		 push	 eax
  003f2	e8 00 00 00 00	 call	 ?process_assert@@YGXPBD0H@Z ; process_assert
  003f7	c7 45 98 00 00
	00 00		 mov	 DWORD PTR tv244[ebp], 0
$LN51@group_task:
  003fe	b9 01 00 00 00	 mov	 ecx, 1
  00403	85 c9		 test	 ecx, ecx
  00405	74 09		 je	 SHORT $LN52@group_task
  00407	c7 45 94 08 00
	00 00		 mov	 DWORD PTR tv252[ebp], 8
  0040e	eb 21		 jmp	 SHORT $LN53@group_task
$LN52@group_task:
  00410	8b 15 00 00 00
	00		 mov	 edx, DWORD PTR ?__LINE__Var@?0??group_task_specific_retaliation_checks@@YGHPAUENTITY@@0H@Z@4JA
  00416	83 c2 3c	 add	 edx, 60			; 0000003cH
  00419	52		 push	 edx
  0041a	68 00 00 00 00	 push	 OFFSET ??_C@_0EJ@CCBIJPFD@c?3?2users?2nhv90?2projects?2eech?2ap@
  0041f	a1 00 00 00 00	 mov	 eax, DWORD PTR ?overload_invalid_vec3d_type_message@@3PBDB ; overload_invalid_vec3d_type_message
  00424	50		 push	 eax
  00425	e8 00 00 00 00	 call	 ?process_assert@@YGXPBD0H@Z ; process_assert
  0042a	c7 45 94 00 00
	00 00		 mov	 DWORD PTR tv252[ebp], 0
$LN53@group_task:
  00431	6a 08		 push	 8
  00433	8b 4d 0c	 mov	 ecx, DWORD PTR _aggressor$[ebp]
  00436	51		 push	 ecx
  00437	6b 55 98 60	 imul	 edx, DWORD PTR tv244[ebp], 96
  0043b	8b 45 94	 mov	 eax, DWORD PTR tv252[ebp]
  0043e	8b 8c 82 00 00
	00 00		 mov	 ecx, DWORD PTR ?fn_get_local_entity_vec3d_ptr@@3PAY0BI@P6GPAUVEC3D@@PAUENTITY@@W4VEC3D_TYPES@@@ZA[edx+eax*4]
  00445	ff d1		 call	 ecx
  00447	89 45 e4	 mov	 DWORD PTR _aggressor_pos$[ebp], eax

; 1336 : 	
; 1337 : 						ASSERT (aggressor_pos);

  0044a	83 7d e4 00	 cmp	 DWORD PTR _aggressor_pos$[ebp], 0
  0044e	75 18		 jne	 SHORT $LN15@group_task
  00450	a1 00 00 00 00	 mov	 eax, DWORD PTR ?__LINE__Var@?0??group_task_specific_retaliation_checks@@YGHPAUENTITY@@0H@Z@4JA
  00455	83 c0 3e	 add	 eax, 62			; 0000003eH
  00458	50		 push	 eax
  00459	68 00 00 00 00	 push	 OFFSET ??_C@_0EJ@CCBIJPFD@c?3?2users?2nhv90?2projects?2eech?2ap@
  0045e	68 00 00 00 00	 push	 OFFSET ??_C@_0O@MHFMDCOL@aggressor_pos@
  00463	e8 00 00 00 00	 call	 ?process_assert@@YGXPBD0H@Z ; process_assert
$LN15@group_task:

; 1338 : 	
; 1339 : 						if (get_sqr_2d_range (aggressor_pos, objective_pos) < ((2.0 * KILOMETRE) * (2.0 * KILOMETRE)))

  00468	8b 45 e8	 mov	 eax, DWORD PTR _objective_pos$[ebp]
  0046b	50		 push	 eax
  0046c	8b 4d e4	 mov	 ecx, DWORD PTR _aggressor_pos$[ebp]
  0046f	51		 push	 ecx
  00470	e8 00 00 00 00	 call	 ?get_sqr_2d_range@@YGMPBUVEC3D@@0@Z ; get_sqr_2d_range
  00475	dd 5d 94	 fstp	 QWORD PTR tv468[ebp]
  00478	f2 0f 10 05 00
	00 00 00	 movsd	 xmm0, QWORD PTR __real@414e848000000000
  00480	66 0f 2f 45 94	 comisd	 xmm0, QWORD PTR tv468[ebp]
  00485	76 14		 jbe	 SHORT $LN16@group_task

; 1340 : 						{
; 1341 : 							ai_log ("(RETALIATE CHECK) ROE NONE - Failed (Aggressor at target area)");

  00487	68 00 00 00 00	 push	 OFFSET ??_C@_0DP@LHDDAMNA@?$CIRETALIATE?5CHECK?$CJ?5ROE?5NONE?5?9?5Fa@
  0048c	e8 00 00 00 00	 call	 ?ai_log@@YAXPBDZZ	; ai_log
  00491	83 c4 04	 add	 esp, 4

; 1342 : 	
; 1343 : 							return FALSE;

  00494	33 c0		 xor	 eax, eax
  00496	e9 29 03 00 00	 jmp	 $LN8@group_task
$LN16@group_task:

; 1344 : 						}
; 1345 : 					}
; 1346 : 				}
; 1347 : 
; 1348 : 				//
; 1349 : 				// Retaliate if no-one else coming to assist, AND (mission complete OR aggressor in friendly territory)
; 1350 : 				//
; 1351 : 
; 1352 : 				if (!assisted)

  0049b	83 7d 10 00	 cmp	 DWORD PTR _assisted$[ebp], 0
  0049f	0f 85 32 02 00
	00		 jne	 $LN20@group_task

; 1353 : 				{
; 1354 : 					if (get_local_entity_int_value (task, INT_TYPE_TASK_COMPLETED) != TASK_INCOMPLETE)

  004a5	83 7d fc 00	 cmp	 DWORD PTR _task$[ebp], 0
  004a9	74 0a		 je	 SHORT $LN54@group_task
  004ab	8b 45 fc	 mov	 eax, DWORD PTR _task$[ebp]
  004ae	8b 08		 mov	 ecx, DWORD PTR [eax]
  004b0	89 4d 98	 mov	 DWORD PTR tv275[ebp], ecx
  004b3	eb 1d		 jmp	 SHORT $LN55@group_task
$LN54@group_task:
  004b5	68 4a 05 00 00	 push	 1354			; 0000054aH
  004ba	68 00 00 00 00	 push	 OFFSET ??_C@_0EJ@CCBIJPFD@c?3?2users?2nhv90?2projects?2eech?2ap@
  004bf	8b 15 00 00 00
	00		 mov	 edx, DWORD PTR ?null_entity_pointer_message@@3PBDB ; null_entity_pointer_message
  004c5	52		 push	 edx
  004c6	e8 00 00 00 00	 call	 ?process_assert@@YGXPBD0H@Z ; process_assert
  004cb	c7 45 98 00 00
	00 00		 mov	 DWORD PTR tv275[ebp], 0
$LN55@group_task:
  004d2	b8 01 00 00 00	 mov	 eax, 1
  004d7	85 c0		 test	 eax, eax
  004d9	74 09		 je	 SHORT $LN56@group_task
  004db	c7 45 94 d9 00
	00 00		 mov	 DWORD PTR tv282[ebp], 217 ; 000000d9H
  004e2	eb 1d		 jmp	 SHORT $LN57@group_task
$LN56@group_task:
  004e4	68 4a 05 00 00	 push	 1354			; 0000054aH
  004e9	68 00 00 00 00	 push	 OFFSET ??_C@_0EJ@CCBIJPFD@c?3?2users?2nhv90?2projects?2eech?2ap@
  004ee	8b 0d 00 00 00
	00		 mov	 ecx, DWORD PTR ?overload_invalid_int_type_message@@3PBDB ; overload_invalid_int_type_message
  004f4	51		 push	 ecx
  004f5	e8 00 00 00 00	 call	 ?process_assert@@YGXPBD0H@Z ; process_assert
  004fa	c7 45 94 00 00
	00 00		 mov	 DWORD PTR tv282[ebp], 0
$LN57@group_task:
  00501	68 d9 00 00 00	 push	 217			; 000000d9H
  00506	8b 55 fc	 mov	 edx, DWORD PTR _task$[ebp]
  00509	52		 push	 edx
  0050a	69 45 98 5c 04
	00 00		 imul	 eax, DWORD PTR tv275[ebp], 1116
  00511	8b 4d 94	 mov	 ecx, DWORD PTR tv282[ebp]
  00514	8b 94 88 00 00
	00 00		 mov	 edx, DWORD PTR ?fn_get_local_entity_int_value@@3PAY0BBH@P6GHPAUENTITY@@W4INT_TYPES@@@ZA[eax+ecx*4]
  0051b	ff d2		 call	 edx
  0051d	85 c0		 test	 eax, eax
  0051f	74 17		 je	 SHORT $LN18@group_task

; 1355 : 					{
; 1356 : 						ai_log ("(RETALIATE CHECK) ROE NONE - Task Complete");

  00521	68 00 00 00 00	 push	 OFFSET ??_C@_0CL@FJCJDGEL@?$CIRETALIATE?5CHECK?$CJ?5ROE?5NONE?5?9?5Ta@
  00526	e8 00 00 00 00	 call	 ?ai_log@@YAXPBDZZ	; ai_log
  0052b	83 c4 04	 add	 esp, 4

; 1357 : 
; 1358 : 						return TRUE;

  0052e	b8 01 00 00 00	 mov	 eax, 1
  00533	e9 8c 02 00 00	 jmp	 $LN8@group_task
$LN18@group_task:

; 1359 : 					}
; 1360 : 
; 1361 : 					side = (entity_sides) get_local_entity_int_value (group, INT_TYPE_SIDE);

  00538	83 7d 08 00	 cmp	 DWORD PTR _group$[ebp], 0
  0053c	74 0a		 je	 SHORT $LN58@group_task
  0053e	8b 45 08	 mov	 eax, DWORD PTR _group$[ebp]
  00541	8b 08		 mov	 ecx, DWORD PTR [eax]
  00543	89 4d 98	 mov	 DWORD PTR tv296[ebp], ecx
  00546	eb 21		 jmp	 SHORT $LN59@group_task
$LN58@group_task:
  00548	8b 15 00 00 00
	00		 mov	 edx, DWORD PTR ?__LINE__Var@?0??group_task_specific_retaliation_checks@@YGHPAUENTITY@@0H@Z@4JA
  0054e	83 c2 56	 add	 edx, 86			; 00000056H
  00551	52		 push	 edx
  00552	68 00 00 00 00	 push	 OFFSET ??_C@_0EJ@CCBIJPFD@c?3?2users?2nhv90?2projects?2eech?2ap@
  00557	a1 00 00 00 00	 mov	 eax, DWORD PTR ?null_entity_pointer_message@@3PBDB ; null_entity_pointer_message
  0055c	50		 push	 eax
  0055d	e8 00 00 00 00	 call	 ?process_assert@@YGXPBD0H@Z ; process_assert
  00562	c7 45 98 00 00
	00 00		 mov	 DWORD PTR tv296[ebp], 0
$LN59@group_task:
  00569	b9 01 00 00 00	 mov	 ecx, 1
  0056e	85 c9		 test	 ecx, ecx
  00570	74 09		 je	 SHORT $LN60@group_task
  00572	c7 45 94 bb 00
	00 00		 mov	 DWORD PTR tv304[ebp], 187 ; 000000bbH
  00579	eb 21		 jmp	 SHORT $LN61@group_task
$LN60@group_task:
  0057b	8b 15 00 00 00
	00		 mov	 edx, DWORD PTR ?__LINE__Var@?0??group_task_specific_retaliation_checks@@YGHPAUENTITY@@0H@Z@4JA
  00581	83 c2 56	 add	 edx, 86			; 00000056H
  00584	52		 push	 edx
  00585	68 00 00 00 00	 push	 OFFSET ??_C@_0EJ@CCBIJPFD@c?3?2users?2nhv90?2projects?2eech?2ap@
  0058a	a1 00 00 00 00	 mov	 eax, DWORD PTR ?overload_invalid_int_type_message@@3PBDB ; overload_invalid_int_type_message
  0058f	50		 push	 eax
  00590	e8 00 00 00 00	 call	 ?process_assert@@YGXPBD0H@Z ; process_assert
  00595	c7 45 94 00 00
	00 00		 mov	 DWORD PTR tv304[ebp], 0
$LN61@group_task:
  0059c	68 bb 00 00 00	 push	 187			; 000000bbH
  005a1	8b 4d 08	 mov	 ecx, DWORD PTR _group$[ebp]
  005a4	51		 push	 ecx
  005a5	69 55 98 5c 04
	00 00		 imul	 edx, DWORD PTR tv296[ebp], 1116
  005ac	8b 45 94	 mov	 eax, DWORD PTR tv304[ebp]
  005af	8b 8c 82 00 00
	00 00		 mov	 ecx, DWORD PTR ?fn_get_local_entity_int_value@@3PAY0BBH@P6GHPAUENTITY@@W4INT_TYPES@@@ZA[edx+eax*4]
  005b6	ff d1		 call	 ecx
  005b8	89 45 f0	 mov	 DWORD PTR _side$[ebp], eax

; 1362 : 
; 1363 : 					group_pos = get_local_entity_vec3d_ptr (group, VEC3D_TYPE_POSITION);

  005bb	83 7d 08 00	 cmp	 DWORD PTR _group$[ebp], 0
  005bf	74 0a		 je	 SHORT $LN62@group_task
  005c1	8b 45 08	 mov	 eax, DWORD PTR _group$[ebp]
  005c4	8b 08		 mov	 ecx, DWORD PTR [eax]
  005c6	89 4d 98	 mov	 DWORD PTR tv316[ebp], ecx
  005c9	eb 21		 jmp	 SHORT $LN63@group_task
$LN62@group_task:
  005cb	8b 15 00 00 00
	00		 mov	 edx, DWORD PTR ?__LINE__Var@?0??group_task_specific_retaliation_checks@@YGHPAUENTITY@@0H@Z@4JA
  005d1	83 c2 58	 add	 edx, 88			; 00000058H
  005d4	52		 push	 edx
  005d5	68 00 00 00 00	 push	 OFFSET ??_C@_0EJ@CCBIJPFD@c?3?2users?2nhv90?2projects?2eech?2ap@
  005da	a1 00 00 00 00	 mov	 eax, DWORD PTR ?null_entity_pointer_message@@3PBDB ; null_entity_pointer_message
  005df	50		 push	 eax
  005e0	e8 00 00 00 00	 call	 ?process_assert@@YGXPBD0H@Z ; process_assert
  005e5	c7 45 98 00 00
	00 00		 mov	 DWORD PTR tv316[ebp], 0
$LN63@group_task:
  005ec	b9 01 00 00 00	 mov	 ecx, 1
  005f1	85 c9		 test	 ecx, ecx
  005f3	74 09		 je	 SHORT $LN64@group_task
  005f5	c7 45 94 08 00
	00 00		 mov	 DWORD PTR tv324[ebp], 8
  005fc	eb 21		 jmp	 SHORT $LN65@group_task
$LN64@group_task:
  005fe	8b 15 00 00 00
	00		 mov	 edx, DWORD PTR ?__LINE__Var@?0??group_task_specific_retaliation_checks@@YGHPAUENTITY@@0H@Z@4JA
  00604	83 c2 58	 add	 edx, 88			; 00000058H
  00607	52		 push	 edx
  00608	68 00 00 00 00	 push	 OFFSET ??_C@_0EJ@CCBIJPFD@c?3?2users?2nhv90?2projects?2eech?2ap@
  0060d	a1 00 00 00 00	 mov	 eax, DWORD PTR ?overload_invalid_vec3d_type_message@@3PBDB ; overload_invalid_vec3d_type_message
  00612	50		 push	 eax
  00613	e8 00 00 00 00	 call	 ?process_assert@@YGXPBD0H@Z ; process_assert
  00618	c7 45 94 00 00
	00 00		 mov	 DWORD PTR tv324[ebp], 0
$LN65@group_task:
  0061f	6a 08		 push	 8
  00621	8b 4d 08	 mov	 ecx, DWORD PTR _group$[ebp]
  00624	51		 push	 ecx
  00625	6b 55 98 60	 imul	 edx, DWORD PTR tv316[ebp], 96
  00629	8b 45 94	 mov	 eax, DWORD PTR tv324[ebp]
  0062c	8b 8c 82 00 00
	00 00		 mov	 ecx, DWORD PTR ?fn_get_local_entity_vec3d_ptr@@3PAY0BI@P6GPAUVEC3D@@PAUENTITY@@W4VEC3D_TYPES@@@ZA[edx+eax*4]
  00633	ff d1		 call	 ecx
  00635	89 45 ec	 mov	 DWORD PTR _group_pos$[ebp], eax

; 1364 : 
; 1365 : 					ASSERT (group_pos);

  00638	83 7d ec 00	 cmp	 DWORD PTR _group_pos$[ebp], 0
  0063c	75 18		 jne	 SHORT $LN19@group_task
  0063e	a1 00 00 00 00	 mov	 eax, DWORD PTR ?__LINE__Var@?0??group_task_specific_retaliation_checks@@YGHPAUENTITY@@0H@Z@4JA
  00643	83 c0 5a	 add	 eax, 90			; 0000005aH
  00646	50		 push	 eax
  00647	68 00 00 00 00	 push	 OFFSET ??_C@_0EJ@CCBIJPFD@c?3?2users?2nhv90?2projects?2eech?2ap@
  0064c	68 00 00 00 00	 push	 OFFSET ??_C@_09NLEHHNCH@group_pos@
  00651	e8 00 00 00 00	 call	 ?process_assert@@YGXPBD0H@Z ; process_assert
$LN19@group_task:

; 1366 : 
; 1367 : 					get_x_sector (sx, group_pos->x);

  00656	8d 45 e0	 lea	 eax, DWORD PTR _sx$[ebp]
  00659	50		 push	 eax
  0065a	8b 4d ec	 mov	 ecx, DWORD PTR _group_pos$[ebp]
  0065d	f3 0f 10 01	 movss	 xmm0, DWORD PTR [ecx]
  00661	51		 push	 ecx
  00662	f3 0f 11 04 24	 movss	 DWORD PTR [esp], xmm0
  00667	e8 00 00 00 00	 call	 ?convert_float_to_int@@YGXMPAH@Z ; convert_float_to_int
  0066c	8b 45 e0	 mov	 eax, DWORD PTR _sx$[ebp]
  0066f	99		 cdq
  00670	f7 3d 00 00 00
	00		 idiv	 DWORD PTR ?world_map@@3UWORLD_MAP_DATA@@A
  00676	89 45 e0	 mov	 DWORD PTR _sx$[ebp], eax

; 1368 : 					get_z_sector (sz, group_pos->z);

  00679	8d 45 dc	 lea	 eax, DWORD PTR _sz$[ebp]
  0067c	50		 push	 eax
  0067d	8b 4d ec	 mov	 ecx, DWORD PTR _group_pos$[ebp]
  00680	f3 0f 10 41 08	 movss	 xmm0, DWORD PTR [ecx+8]
  00685	51		 push	 ecx
  00686	f3 0f 11 04 24	 movss	 DWORD PTR [esp], xmm0
  0068b	e8 00 00 00 00	 call	 ?convert_float_to_int@@YGXMPAH@Z ; convert_float_to_int
  00690	8b 45 dc	 mov	 eax, DWORD PTR _sz$[ebp]
  00693	99		 cdq
  00694	f7 3d 00 00 00
	00		 idiv	 DWORD PTR ?world_map@@3UWORLD_MAP_DATA@@A
  0069a	89 45 dc	 mov	 DWORD PTR _sz$[ebp], eax

; 1369 : 
; 1370 : 					if (get_local_sector_side_ratio (sx, sz, side) > 0.5)

  0069d	8b 45 f0	 mov	 eax, DWORD PTR _side$[ebp]
  006a0	50		 push	 eax
  006a1	8b 4d dc	 mov	 ecx, DWORD PTR _sz$[ebp]
  006a4	51		 push	 ecx
  006a5	8b 55 e0	 mov	 edx, DWORD PTR _sx$[ebp]
  006a8	52		 push	 edx
  006a9	e8 00 00 00 00	 call	 ?get_local_sector_side_ratio@@YGMHHW4ENTITY_SIDES@@@Z ; get_local_sector_side_ratio
  006ae	dd 5d 94	 fstp	 QWORD PTR tv525[ebp]
  006b1	f2 0f 10 45 94	 movsd	 xmm0, QWORD PTR tv525[ebp]
  006b6	66 0f 2f 05 00
	00 00 00	 comisd	 xmm0, QWORD PTR __real@3fe0000000000000
  006be	76 17		 jbe	 SHORT $LN20@group_task

; 1371 : 					{
; 1372 : 						ai_log ("(RETALIATE CHECK) ROE NONE - Friendly Territory");

  006c0	68 00 00 00 00	 push	 OFFSET ??_C@_0DA@LDLHGHGC@?$CIRETALIATE?5CHECK?$CJ?5ROE?5NONE?5?9?5Fr@
  006c5	e8 00 00 00 00	 call	 ?ai_log@@YAXPBDZZ	; ai_log
  006ca	83 c4 04	 add	 esp, 4

; 1373 : 
; 1374 : 						return TRUE;

  006cd	b8 01 00 00 00	 mov	 eax, 1
  006d2	e9 ed 00 00 00	 jmp	 $LN8@group_task
$LN20@group_task:

; 1375 : 					}
; 1376 : 				}
; 1377 : 
; 1378 : 				ai_log ("(RETALIATE CHECK) ROE NONE - Failed Checks");

  006d7	68 00 00 00 00	 push	 OFFSET ??_C@_0CL@CMMBIDFL@?$CIRETALIATE?5CHECK?$CJ?5ROE?5NONE?5?9?5Fa@
  006dc	e8 00 00 00 00	 call	 ?ai_log@@YAXPBDZZ	; ai_log
  006e1	83 c4 04	 add	 esp, 4

; 1379 : 
; 1380 : 				break;

  006e4	e9 d0 00 00 00	 jmp	 $LN2@group_task
$LN21@group_task:

; 1381 : 			}
; 1382 : 			case TASK_ROE_OBJECTIVE:
; 1383 : 			{
; 1384 : 				//
; 1385 : 				// Retaliate if no-one else coming to assist, OR primary task completed
; 1386 : 				//
; 1387 : 
; 1388 : 				if (!assisted)

  006e9	83 7d 10 00	 cmp	 DWORD PTR _assisted$[ebp], 0
  006ed	75 17		 jne	 SHORT $LN22@group_task

; 1389 : 				{
; 1390 : 					ai_log ("(RETALIATE CHECK) ROE OBJECTIVE - No Assistance");

  006ef	68 00 00 00 00	 push	 OFFSET ??_C@_0DA@IFHCMBAB@?$CIRETALIATE?5CHECK?$CJ?5ROE?5OBJECTIVE@
  006f4	e8 00 00 00 00	 call	 ?ai_log@@YAXPBDZZ	; ai_log
  006f9	83 c4 04	 add	 esp, 4

; 1391 : 
; 1392 : 					return TRUE;

  006fc	b8 01 00 00 00	 mov	 eax, 1
  00701	e9 be 00 00 00	 jmp	 $LN8@group_task
$LN22@group_task:

; 1393 : 				}
; 1394 : 
; 1395 : 				if (get_local_entity_int_value (task, INT_TYPE_TASK_COMPLETED) != TASK_INCOMPLETE)

  00706	83 7d fc 00	 cmp	 DWORD PTR _task$[ebp], 0
  0070a	74 0a		 je	 SHORT $LN66@group_task
  0070c	8b 45 fc	 mov	 eax, DWORD PTR _task$[ebp]
  0070f	8b 08		 mov	 ecx, DWORD PTR [eax]
  00711	89 4d 98	 mov	 DWORD PTR tv360[ebp], ecx
  00714	eb 1d		 jmp	 SHORT $LN67@group_task
$LN66@group_task:
  00716	68 73 05 00 00	 push	 1395			; 00000573H
  0071b	68 00 00 00 00	 push	 OFFSET ??_C@_0EJ@CCBIJPFD@c?3?2users?2nhv90?2projects?2eech?2ap@
  00720	8b 15 00 00 00
	00		 mov	 edx, DWORD PTR ?null_entity_pointer_message@@3PBDB ; null_entity_pointer_message
  00726	52		 push	 edx
  00727	e8 00 00 00 00	 call	 ?process_assert@@YGXPBD0H@Z ; process_assert
  0072c	c7 45 98 00 00
	00 00		 mov	 DWORD PTR tv360[ebp], 0
$LN67@group_task:
  00733	b8 01 00 00 00	 mov	 eax, 1
  00738	85 c0		 test	 eax, eax
  0073a	74 09		 je	 SHORT $LN68@group_task
  0073c	c7 45 94 d9 00
	00 00		 mov	 DWORD PTR tv367[ebp], 217 ; 000000d9H
  00743	eb 1d		 jmp	 SHORT $LN69@group_task
$LN68@group_task:
  00745	68 73 05 00 00	 push	 1395			; 00000573H
  0074a	68 00 00 00 00	 push	 OFFSET ??_C@_0EJ@CCBIJPFD@c?3?2users?2nhv90?2projects?2eech?2ap@
  0074f	8b 0d 00 00 00
	00		 mov	 ecx, DWORD PTR ?overload_invalid_int_type_message@@3PBDB ; overload_invalid_int_type_message
  00755	51		 push	 ecx
  00756	e8 00 00 00 00	 call	 ?process_assert@@YGXPBD0H@Z ; process_assert
  0075b	c7 45 94 00 00
	00 00		 mov	 DWORD PTR tv367[ebp], 0
$LN69@group_task:
  00762	68 d9 00 00 00	 push	 217			; 000000d9H
  00767	8b 55 fc	 mov	 edx, DWORD PTR _task$[ebp]
  0076a	52		 push	 edx
  0076b	69 45 98 5c 04
	00 00		 imul	 eax, DWORD PTR tv360[ebp], 1116
  00772	8b 4d 94	 mov	 ecx, DWORD PTR tv367[ebp]
  00775	8b 94 88 00 00
	00 00		 mov	 edx, DWORD PTR ?fn_get_local_entity_int_value@@3PAY0BBH@P6GHPAUENTITY@@W4INT_TYPES@@@ZA[eax+ecx*4]
  0077c	ff d2		 call	 edx
  0077e	85 c0		 test	 eax, eax
  00780	74 14		 je	 SHORT $LN23@group_task

; 1396 : 				{
; 1397 : 					ai_log ("(RETALIATE CHECK) ROE OBJECTIVE - Task Complete");

  00782	68 00 00 00 00	 push	 OFFSET ??_C@_0DA@MEDCNDDH@?$CIRETALIATE?5CHECK?$CJ?5ROE?5OBJECTIVE@
  00787	e8 00 00 00 00	 call	 ?ai_log@@YAXPBDZZ	; ai_log
  0078c	83 c4 04	 add	 esp, 4

; 1398 : 
; 1399 : 					return TRUE;

  0078f	b8 01 00 00 00	 mov	 eax, 1
  00794	eb 2e		 jmp	 SHORT $LN8@group_task
$LN23@group_task:

; 1400 : 				}
; 1401 : 
; 1402 : 				ai_log ("(RETALIATE CHECK) ROE OBJECTIVE - Failed Checks");

  00796	68 00 00 00 00	 push	 OFFSET ??_C@_0DA@LBNKGGCH@?$CIRETALIATE?5CHECK?$CJ?5ROE?5OBJECTIVE@
  0079b	e8 00 00 00 00	 call	 ?ai_log@@YAXPBDZZ	; ai_log
  007a0	83 c4 04	 add	 esp, 4

; 1403 : 
; 1404 : 				break;

  007a3	eb 14		 jmp	 SHORT $LN2@group_task
$LN24@group_task:

; 1405 : 			}
; 1406 : 			case TASK_ROE_ALL:
; 1407 : 			{
; 1408 : 				//
; 1409 : 				// Always retaliate
; 1410 : 				//
; 1411 : 
; 1412 : 				ai_log ("(RETALIATE CHECK) ROE ALL");

  007a5	68 00 00 00 00	 push	 OFFSET ??_C@_0BK@OMMCNDJG@?$CIRETALIATE?5CHECK?$CJ?5ROE?5ALL@
  007aa	e8 00 00 00 00	 call	 ?ai_log@@YAXPBDZZ	; ai_log
  007af	83 c4 04	 add	 esp, 4

; 1413 : 
; 1414 : 				return TRUE;

  007b2	b8 01 00 00 00	 mov	 eax, 1
  007b7	eb 0b		 jmp	 SHORT $LN8@group_task
$LN2@group_task:

; 1415 : 			}
; 1416 : 		}
; 1417 : 
; 1418 : 		return FALSE;

  007b9	33 c0		 xor	 eax, eax
  007bb	eb 07		 jmp	 SHORT $LN8@group_task

; 1419 : 	}
; 1420 : 	else

  007bd	eb 05		 jmp	 SHORT $LN8@group_task
$LN7@group_task:

; 1421 : 	{
; 1422 : 		return TRUE;

  007bf	b8 01 00 00 00	 mov	 eax, 1
$LN8@group_task:

; 1423 : 	}
; 1424 : }

  007c4	5f		 pop	 edi
  007c5	5e		 pop	 esi
  007c6	5b		 pop	 ebx
  007c7	8b e5		 mov	 esp, ebp
  007c9	5d		 pop	 ebp
  007ca	c2 0c 00	 ret	 12			; 0000000cH
?group_task_specific_retaliation_checks@@YGHPAUENTITY@@0H@Z ENDP ; group_task_specific_retaliation_checks
_TEXT	ENDS
; Function compile flags: /Odtp /ZI
; File c:\users\nhv90\projects\eech\aphavoc\source\entity\special\group\group.c
;	COMDAT ?check_group_task_type_valid_members@@YGHPAUENTITY@@H@Z
_TEXT	SEGMENT
tv189 = -80						; size = 4
tv168 = -80						; size = 4
tv150 = -80						; size = 4
tv129 = -80						; size = 4
tv78 = -80						; size = 4
tv181 = -76						; size = 4
tv161 = -76						; size = 4
tv142 = -76						; size = 4
tv90 = -76						; size = 4
tv70 = -76						; size = 4
_task$ = -8						; size = 4
_guide$ = -4						; size = 4
_group$ = 8						; size = 4
_task_type$ = 12					; size = 4
?check_group_task_type_valid_members@@YGHPAUENTITY@@H@Z PROC ; check_group_task_type_valid_members, COMDAT

; 1245 : {

  00000	55		 push	 ebp
  00001	8b ec		 mov	 ebp, esp
  00003	83 ec 50	 sub	 esp, 80			; 00000050H
  00006	53		 push	 ebx
  00007	56		 push	 esi
  00008	57		 push	 edi

; 1246 : 	entity
; 1247 : 		*guide,
; 1248 : 		*task;
; 1249 : 
; 1250 : 	guide = get_local_entity_first_child (group, LIST_TYPE_GUIDE_STACK);

  00009	83 7d 08 00	 cmp	 DWORD PTR _group$[ebp], 0
  0000d	74 0a		 je	 SHORT $LN7@check_grou
  0000f	8b 45 08	 mov	 eax, DWORD PTR _group$[ebp]
  00012	8b 08		 mov	 ecx, DWORD PTR [eax]
  00014	89 4d b4	 mov	 DWORD PTR tv70[ebp], ecx
  00017	eb 21		 jmp	 SHORT $LN8@check_grou
$LN7@check_grou:
  00019	8b 15 00 00 00
	00		 mov	 edx, DWORD PTR ?__LINE__Var@?0??check_group_task_type_valid_members@@YGHPAUENTITY@@H@Z@4JA
  0001f	83 c2 05	 add	 edx, 5
  00022	52		 push	 edx
  00023	68 00 00 00 00	 push	 OFFSET ??_C@_0EJ@CCBIJPFD@c?3?2users?2nhv90?2projects?2eech?2ap@
  00028	a1 00 00 00 00	 mov	 eax, DWORD PTR ?null_entity_pointer_message@@3PBDB ; null_entity_pointer_message
  0002d	50		 push	 eax
  0002e	e8 00 00 00 00	 call	 ?process_assert@@YGXPBD0H@Z ; process_assert
  00033	c7 45 b4 00 00
	00 00		 mov	 DWORD PTR tv70[ebp], 0
$LN8@check_grou:
  0003a	b9 01 00 00 00	 mov	 ecx, 1
  0003f	85 c9		 test	 ecx, ecx
  00041	74 09		 je	 SHORT $LN9@check_grou
  00043	c7 45 b0 11 00
	00 00		 mov	 DWORD PTR tv78[ebp], 17	; 00000011H
  0004a	eb 21		 jmp	 SHORT $LN10@check_grou
$LN9@check_grou:
  0004c	8b 15 00 00 00
	00		 mov	 edx, DWORD PTR ?__LINE__Var@?0??check_group_task_type_valid_members@@YGHPAUENTITY@@H@Z@4JA
  00052	83 c2 05	 add	 edx, 5
  00055	52		 push	 edx
  00056	68 00 00 00 00	 push	 OFFSET ??_C@_0EJ@CCBIJPFD@c?3?2users?2nhv90?2projects?2eech?2ap@
  0005b	a1 00 00 00 00	 mov	 eax, DWORD PTR ?overload_invalid_list_type_message@@3PBDB ; overload_invalid_list_type_message
  00060	50		 push	 eax
  00061	e8 00 00 00 00	 call	 ?process_assert@@YGXPBD0H@Z ; process_assert
  00066	c7 45 b0 00 00
	00 00		 mov	 DWORD PTR tv78[ebp], 0
$LN10@check_grou:
  0006d	6a 11		 push	 17			; 00000011H
  0006f	8b 4d 08	 mov	 ecx, DWORD PTR _group$[ebp]
  00072	51		 push	 ecx
  00073	69 55 b4 b4 00
	00 00		 imul	 edx, DWORD PTR tv70[ebp], 180
  0007a	8b 45 b0	 mov	 eax, DWORD PTR tv78[ebp]
  0007d	8b 8c 82 00 00
	00 00		 mov	 ecx, DWORD PTR ?fn_get_local_entity_first_child@@3PAY0CN@P6GPAUENTITY@@PAU1@W4LIST_TYPES@@@ZA[edx+eax*4]
  00084	ff d1		 call	 ecx
  00086	89 45 fc	 mov	 DWORD PTR _guide$[ebp], eax
$LN2@check_grou:

; 1251 : 
; 1252 : 	while (guide)

  00089	83 7d fc 00	 cmp	 DWORD PTR _guide$[ebp], 0
  0008d	0f 84 09 02 00
	00		 je	 $LN3@check_grou

; 1253 : 	{
; 1254 : 		if (get_local_entity_int_value (guide, INT_TYPE_VALID_GUIDE_MEMBERS) != TASK_ASSIGN_NO_MEMBERS)

  00093	83 7d fc 00	 cmp	 DWORD PTR _guide$[ebp], 0
  00097	74 0a		 je	 SHORT $LN11@check_grou
  00099	8b 45 fc	 mov	 eax, DWORD PTR _guide$[ebp]
  0009c	8b 08		 mov	 ecx, DWORD PTR [eax]
  0009e	89 4d b4	 mov	 DWORD PTR tv90[ebp], ecx
  000a1	eb 1d		 jmp	 SHORT $LN12@check_grou
$LN11@check_grou:
  000a3	68 e6 04 00 00	 push	 1254			; 000004e6H
  000a8	68 00 00 00 00	 push	 OFFSET ??_C@_0EJ@CCBIJPFD@c?3?2users?2nhv90?2projects?2eech?2ap@
  000ad	8b 15 00 00 00
	00		 mov	 edx, DWORD PTR ?null_entity_pointer_message@@3PBDB ; null_entity_pointer_message
  000b3	52		 push	 edx
  000b4	e8 00 00 00 00	 call	 ?process_assert@@YGXPBD0H@Z ; process_assert
  000b9	c7 45 b4 00 00
	00 00		 mov	 DWORD PTR tv90[ebp], 0
$LN12@check_grou:
  000c0	b8 01 00 00 00	 mov	 eax, 1
  000c5	85 c0		 test	 eax, eax
  000c7	74 09		 je	 SHORT $LN13@check_grou
  000c9	c7 45 b0 f0 00
	00 00		 mov	 DWORD PTR tv129[ebp], 240 ; 000000f0H
  000d0	eb 1d		 jmp	 SHORT $LN14@check_grou
$LN13@check_grou:
  000d2	68 e6 04 00 00	 push	 1254			; 000004e6H
  000d7	68 00 00 00 00	 push	 OFFSET ??_C@_0EJ@CCBIJPFD@c?3?2users?2nhv90?2projects?2eech?2ap@
  000dc	8b 0d 00 00 00
	00		 mov	 ecx, DWORD PTR ?overload_invalid_int_type_message@@3PBDB ; overload_invalid_int_type_message
  000e2	51		 push	 ecx
  000e3	e8 00 00 00 00	 call	 ?process_assert@@YGXPBD0H@Z ; process_assert
  000e8	c7 45 b0 00 00
	00 00		 mov	 DWORD PTR tv129[ebp], 0
$LN14@check_grou:
  000ef	68 f0 00 00 00	 push	 240			; 000000f0H
  000f4	8b 55 fc	 mov	 edx, DWORD PTR _guide$[ebp]
  000f7	52		 push	 edx
  000f8	69 45 b4 5c 04
	00 00		 imul	 eax, DWORD PTR tv90[ebp], 1116
  000ff	8b 4d b0	 mov	 ecx, DWORD PTR tv129[ebp]
  00102	8b 94 88 00 00
	00 00		 mov	 edx, DWORD PTR ?fn_get_local_entity_int_value@@3PAY0BBH@P6GHPAUENTITY@@W4INT_TYPES@@@ZA[eax+ecx*4]
  00109	ff d2		 call	 edx
  0010b	85 c0		 test	 eax, eax
  0010d	0f 84 04 01 00
	00		 je	 $LN4@check_grou

; 1255 : 		{
; 1256 : 			task = get_local_entity_parent (guide, LIST_TYPE_GUIDE);

  00113	83 7d fc 00	 cmp	 DWORD PTR _guide$[ebp], 0
  00117	74 0a		 je	 SHORT $LN15@check_grou
  00119	8b 45 fc	 mov	 eax, DWORD PTR _guide$[ebp]
  0011c	8b 08		 mov	 ecx, DWORD PTR [eax]
  0011e	89 4d b4	 mov	 DWORD PTR tv142[ebp], ecx
  00121	eb 21		 jmp	 SHORT $LN16@check_grou
$LN15@check_grou:
  00123	8b 15 00 00 00
	00		 mov	 edx, DWORD PTR ?__LINE__Var@?0??check_group_task_type_valid_members@@YGHPAUENTITY@@H@Z@4JA
  00129	83 c2 0b	 add	 edx, 11			; 0000000bH
  0012c	52		 push	 edx
  0012d	68 00 00 00 00	 push	 OFFSET ??_C@_0EJ@CCBIJPFD@c?3?2users?2nhv90?2projects?2eech?2ap@
  00132	a1 00 00 00 00	 mov	 eax, DWORD PTR ?null_entity_pointer_message@@3PBDB ; null_entity_pointer_message
  00137	50		 push	 eax
  00138	e8 00 00 00 00	 call	 ?process_assert@@YGXPBD0H@Z ; process_assert
  0013d	c7 45 b4 00 00
	00 00		 mov	 DWORD PTR tv142[ebp], 0
$LN16@check_grou:
  00144	b9 01 00 00 00	 mov	 ecx, 1
  00149	85 c9		 test	 ecx, ecx
  0014b	74 09		 je	 SHORT $LN17@check_grou
  0014d	c7 45 b0 10 00
	00 00		 mov	 DWORD PTR tv150[ebp], 16 ; 00000010H
  00154	eb 21		 jmp	 SHORT $LN18@check_grou
$LN17@check_grou:
  00156	8b 15 00 00 00
	00		 mov	 edx, DWORD PTR ?__LINE__Var@?0??check_group_task_type_valid_members@@YGHPAUENTITY@@H@Z@4JA
  0015c	83 c2 0b	 add	 edx, 11			; 0000000bH
  0015f	52		 push	 edx
  00160	68 00 00 00 00	 push	 OFFSET ??_C@_0EJ@CCBIJPFD@c?3?2users?2nhv90?2projects?2eech?2ap@
  00165	a1 00 00 00 00	 mov	 eax, DWORD PTR ?overload_invalid_list_type_message@@3PBDB ; overload_invalid_list_type_message
  0016a	50		 push	 eax
  0016b	e8 00 00 00 00	 call	 ?process_assert@@YGXPBD0H@Z ; process_assert
  00170	c7 45 b0 00 00
	00 00		 mov	 DWORD PTR tv150[ebp], 0
$LN18@check_grou:
  00177	6a 10		 push	 16			; 00000010H
  00179	8b 4d fc	 mov	 ecx, DWORD PTR _guide$[ebp]
  0017c	51		 push	 ecx
  0017d	69 55 b4 b4 00
	00 00		 imul	 edx, DWORD PTR tv142[ebp], 180
  00184	8b 45 b0	 mov	 eax, DWORD PTR tv150[ebp]
  00187	8b 8c 82 00 00
	00 00		 mov	 ecx, DWORD PTR ?fn_get_local_entity_parent@@3PAY0CN@P6GPAUENTITY@@PAU1@W4LIST_TYPES@@@ZA[edx+eax*4]
  0018e	ff d1		 call	 ecx
  00190	89 45 f8	 mov	 DWORD PTR _task$[ebp], eax

; 1257 : 
; 1258 : 			if (get_local_entity_int_value (task, INT_TYPE_ENTITY_SUB_TYPE) == task_type)

  00193	83 7d f8 00	 cmp	 DWORD PTR _task$[ebp], 0
  00197	74 0a		 je	 SHORT $LN19@check_grou
  00199	8b 45 f8	 mov	 eax, DWORD PTR _task$[ebp]
  0019c	8b 08		 mov	 ecx, DWORD PTR [eax]
  0019e	89 4d b4	 mov	 DWORD PTR tv161[ebp], ecx
  001a1	eb 1d		 jmp	 SHORT $LN20@check_grou
$LN19@check_grou:
  001a3	68 ea 04 00 00	 push	 1258			; 000004eaH
  001a8	68 00 00 00 00	 push	 OFFSET ??_C@_0EJ@CCBIJPFD@c?3?2users?2nhv90?2projects?2eech?2ap@
  001ad	8b 15 00 00 00
	00		 mov	 edx, DWORD PTR ?null_entity_pointer_message@@3PBDB ; null_entity_pointer_message
  001b3	52		 push	 edx
  001b4	e8 00 00 00 00	 call	 ?process_assert@@YGXPBD0H@Z ; process_assert
  001b9	c7 45 b4 00 00
	00 00		 mov	 DWORD PTR tv161[ebp], 0
$LN20@check_grou:
  001c0	b8 01 00 00 00	 mov	 eax, 1
  001c5	85 c0		 test	 eax, eax
  001c7	74 09		 je	 SHORT $LN21@check_grou
  001c9	c7 45 b0 34 00
	00 00		 mov	 DWORD PTR tv168[ebp], 52 ; 00000034H
  001d0	eb 1d		 jmp	 SHORT $LN22@check_grou
$LN21@check_grou:
  001d2	68 ea 04 00 00	 push	 1258			; 000004eaH
  001d7	68 00 00 00 00	 push	 OFFSET ??_C@_0EJ@CCBIJPFD@c?3?2users?2nhv90?2projects?2eech?2ap@
  001dc	8b 0d 00 00 00
	00		 mov	 ecx, DWORD PTR ?overload_invalid_int_type_message@@3PBDB ; overload_invalid_int_type_message
  001e2	51		 push	 ecx
  001e3	e8 00 00 00 00	 call	 ?process_assert@@YGXPBD0H@Z ; process_assert
  001e8	c7 45 b0 00 00
	00 00		 mov	 DWORD PTR tv168[ebp], 0
$LN22@check_grou:
  001ef	6a 34		 push	 52			; 00000034H
  001f1	8b 55 f8	 mov	 edx, DWORD PTR _task$[ebp]
  001f4	52		 push	 edx
  001f5	69 45 b4 5c 04
	00 00		 imul	 eax, DWORD PTR tv161[ebp], 1116
  001fc	8b 4d b0	 mov	 ecx, DWORD PTR tv168[ebp]
  001ff	8b 94 88 00 00
	00 00		 mov	 edx, DWORD PTR ?fn_get_local_entity_int_value@@3PAY0BBH@P6GHPAUENTITY@@W4INT_TYPES@@@ZA[eax+ecx*4]
  00206	ff d2		 call	 edx
  00208	3b 45 0c	 cmp	 eax, DWORD PTR _task_type$[ebp]
  0020b	75 0a		 jne	 SHORT $LN4@check_grou

; 1259 : 			{
; 1260 : 				return TRUE;

  0020d	b8 01 00 00 00	 mov	 eax, 1
  00212	e9 87 00 00 00	 jmp	 $LN1@check_grou
$LN4@check_grou:

; 1261 : 			}
; 1262 : 		}
; 1263 : 
; 1264 : 		guide = get_local_entity_child_succ (guide, LIST_TYPE_GUIDE_STACK);

  00217	83 7d fc 00	 cmp	 DWORD PTR _guide$[ebp], 0
  0021b	74 0a		 je	 SHORT $LN23@check_grou
  0021d	8b 45 fc	 mov	 eax, DWORD PTR _guide$[ebp]
  00220	8b 08		 mov	 ecx, DWORD PTR [eax]
  00222	89 4d b4	 mov	 DWORD PTR tv181[ebp], ecx
  00225	eb 21		 jmp	 SHORT $LN24@check_grou
$LN23@check_grou:
  00227	8b 15 00 00 00
	00		 mov	 edx, DWORD PTR ?__LINE__Var@?0??check_group_task_type_valid_members@@YGHPAUENTITY@@H@Z@4JA
  0022d	83 c2 13	 add	 edx, 19			; 00000013H
  00230	52		 push	 edx
  00231	68 00 00 00 00	 push	 OFFSET ??_C@_0EJ@CCBIJPFD@c?3?2users?2nhv90?2projects?2eech?2ap@
  00236	a1 00 00 00 00	 mov	 eax, DWORD PTR ?null_entity_pointer_message@@3PBDB ; null_entity_pointer_message
  0023b	50		 push	 eax
  0023c	e8 00 00 00 00	 call	 ?process_assert@@YGXPBD0H@Z ; process_assert
  00241	c7 45 b4 00 00
	00 00		 mov	 DWORD PTR tv181[ebp], 0
$LN24@check_grou:
  00248	b9 01 00 00 00	 mov	 ecx, 1
  0024d	85 c9		 test	 ecx, ecx
  0024f	74 09		 je	 SHORT $LN25@check_grou
  00251	c7 45 b0 11 00
	00 00		 mov	 DWORD PTR tv189[ebp], 17 ; 00000011H
  00258	eb 21		 jmp	 SHORT $LN26@check_grou
$LN25@check_grou:
  0025a	8b 15 00 00 00
	00		 mov	 edx, DWORD PTR ?__LINE__Var@?0??check_group_task_type_valid_members@@YGHPAUENTITY@@H@Z@4JA
  00260	83 c2 13	 add	 edx, 19			; 00000013H
  00263	52		 push	 edx
  00264	68 00 00 00 00	 push	 OFFSET ??_C@_0EJ@CCBIJPFD@c?3?2users?2nhv90?2projects?2eech?2ap@
  00269	a1 00 00 00 00	 mov	 eax, DWORD PTR ?overload_invalid_list_type_message@@3PBDB ; overload_invalid_list_type_message
  0026e	50		 push	 eax
  0026f	e8 00 00 00 00	 call	 ?process_assert@@YGXPBD0H@Z ; process_assert
  00274	c7 45 b0 00 00
	00 00		 mov	 DWORD PTR tv189[ebp], 0
$LN26@check_grou:
  0027b	6a 11		 push	 17			; 00000011H
  0027d	8b 4d fc	 mov	 ecx, DWORD PTR _guide$[ebp]
  00280	51		 push	 ecx
  00281	69 55 b4 b4 00
	00 00		 imul	 edx, DWORD PTR tv181[ebp], 180
  00288	8b 45 b0	 mov	 eax, DWORD PTR tv189[ebp]
  0028b	8b 8c 82 00 00
	00 00		 mov	 ecx, DWORD PTR ?fn_get_local_entity_child_succ@@3PAY0CN@P6GPAUENTITY@@PAU1@W4LIST_TYPES@@@ZA[edx+eax*4]
  00292	ff d1		 call	 ecx
  00294	89 45 fc	 mov	 DWORD PTR _guide$[ebp], eax

; 1265 : 	}

  00297	e9 ed fd ff ff	 jmp	 $LN2@check_grou
$LN3@check_grou:

; 1266 : 
; 1267 : 	return FALSE;

  0029c	33 c0		 xor	 eax, eax
$LN1@check_grou:

; 1268 : }

  0029e	5f		 pop	 edi
  0029f	5e		 pop	 esi
  002a0	5b		 pop	 ebx
  002a1	8b e5		 mov	 esp, ebp
  002a3	5d		 pop	 ebp
  002a4	c2 08 00	 ret	 8
?check_group_task_type_valid_members@@YGHPAUENTITY@@H@Z ENDP ; check_group_task_type_valid_members
_TEXT	ENDS
; Function compile flags: /Odtp /ZI
; File c:\users\nhv90\projects\eech\aphavoc\source\entity\special\group\group.c
;	COMDAT ?check_group_task_type@@YGHPAUENTITY@@H@Z
_TEXT	SEGMENT
tv170 = -80						; size = 4
tv149 = -80						; size = 4
tv131 = -80						; size = 4
tv78 = -80						; size = 4
tv162 = -76						; size = 4
tv142 = -76						; size = 4
tv91 = -76						; size = 4
tv70 = -76						; size = 4
_task$ = -8						; size = 4
_guide$ = -4						; size = 4
_group$ = 8						; size = 4
_task_type$ = 12					; size = 4
?check_group_task_type@@YGHPAUENTITY@@H@Z PROC		; check_group_task_type, COMDAT

; 1215 : {

  00000	55		 push	 ebp
  00001	8b ec		 mov	 ebp, esp
  00003	83 ec 50	 sub	 esp, 80			; 00000050H
  00006	53		 push	 ebx
  00007	56		 push	 esi
  00008	57		 push	 edi

; 1216 : 
; 1217 : 	entity
; 1218 : 		*guide,
; 1219 : 		*task;
; 1220 : 
; 1221 : 	guide = get_local_entity_first_child (group, LIST_TYPE_GUIDE_STACK);

  00009	83 7d 08 00	 cmp	 DWORD PTR _group$[ebp], 0
  0000d	74 0a		 je	 SHORT $LN6@check_grou
  0000f	8b 45 08	 mov	 eax, DWORD PTR _group$[ebp]
  00012	8b 08		 mov	 ecx, DWORD PTR [eax]
  00014	89 4d b4	 mov	 DWORD PTR tv70[ebp], ecx
  00017	eb 21		 jmp	 SHORT $LN7@check_grou
$LN6@check_grou:
  00019	8b 15 00 00 00
	00		 mov	 edx, DWORD PTR ?__LINE__Var@?0??check_group_task_type@@YGHPAUENTITY@@H@Z@4JA
  0001f	83 c2 06	 add	 edx, 6
  00022	52		 push	 edx
  00023	68 00 00 00 00	 push	 OFFSET ??_C@_0EJ@CCBIJPFD@c?3?2users?2nhv90?2projects?2eech?2ap@
  00028	a1 00 00 00 00	 mov	 eax, DWORD PTR ?null_entity_pointer_message@@3PBDB ; null_entity_pointer_message
  0002d	50		 push	 eax
  0002e	e8 00 00 00 00	 call	 ?process_assert@@YGXPBD0H@Z ; process_assert
  00033	c7 45 b4 00 00
	00 00		 mov	 DWORD PTR tv70[ebp], 0
$LN7@check_grou:
  0003a	b9 01 00 00 00	 mov	 ecx, 1
  0003f	85 c9		 test	 ecx, ecx
  00041	74 09		 je	 SHORT $LN8@check_grou
  00043	c7 45 b0 11 00
	00 00		 mov	 DWORD PTR tv78[ebp], 17	; 00000011H
  0004a	eb 21		 jmp	 SHORT $LN9@check_grou
$LN8@check_grou:
  0004c	8b 15 00 00 00
	00		 mov	 edx, DWORD PTR ?__LINE__Var@?0??check_group_task_type@@YGHPAUENTITY@@H@Z@4JA
  00052	83 c2 06	 add	 edx, 6
  00055	52		 push	 edx
  00056	68 00 00 00 00	 push	 OFFSET ??_C@_0EJ@CCBIJPFD@c?3?2users?2nhv90?2projects?2eech?2ap@
  0005b	a1 00 00 00 00	 mov	 eax, DWORD PTR ?overload_invalid_list_type_message@@3PBDB ; overload_invalid_list_type_message
  00060	50		 push	 eax
  00061	e8 00 00 00 00	 call	 ?process_assert@@YGXPBD0H@Z ; process_assert
  00066	c7 45 b0 00 00
	00 00		 mov	 DWORD PTR tv78[ebp], 0
$LN9@check_grou:
  0006d	6a 11		 push	 17			; 00000011H
  0006f	8b 4d 08	 mov	 ecx, DWORD PTR _group$[ebp]
  00072	51		 push	 ecx
  00073	69 55 b4 b4 00
	00 00		 imul	 edx, DWORD PTR tv70[ebp], 180
  0007a	8b 45 b0	 mov	 eax, DWORD PTR tv78[ebp]
  0007d	8b 8c 82 00 00
	00 00		 mov	 ecx, DWORD PTR ?fn_get_local_entity_first_child@@3PAY0CN@P6GPAUENTITY@@PAU1@W4LIST_TYPES@@@ZA[edx+eax*4]
  00084	ff d1		 call	 ecx
  00086	89 45 fc	 mov	 DWORD PTR _guide$[ebp], eax
$LN2@check_grou:

; 1222 : 
; 1223 : 	while (guide)

  00089	83 7d fc 00	 cmp	 DWORD PTR _guide$[ebp], 0
  0008d	0f 84 89 01 00
	00		 je	 $LN3@check_grou

; 1224 : 	{
; 1225 : 
; 1226 : 		task = get_local_entity_parent (guide, LIST_TYPE_GUIDE);

  00093	83 7d fc 00	 cmp	 DWORD PTR _guide$[ebp], 0
  00097	74 0a		 je	 SHORT $LN10@check_grou
  00099	8b 45 fc	 mov	 eax, DWORD PTR _guide$[ebp]
  0009c	8b 08		 mov	 ecx, DWORD PTR [eax]
  0009e	89 4d b4	 mov	 DWORD PTR tv91[ebp], ecx
  000a1	eb 21		 jmp	 SHORT $LN11@check_grou
$LN10@check_grou:
  000a3	8b 15 00 00 00
	00		 mov	 edx, DWORD PTR ?__LINE__Var@?0??check_group_task_type@@YGHPAUENTITY@@H@Z@4JA
  000a9	83 c2 0b	 add	 edx, 11			; 0000000bH
  000ac	52		 push	 edx
  000ad	68 00 00 00 00	 push	 OFFSET ??_C@_0EJ@CCBIJPFD@c?3?2users?2nhv90?2projects?2eech?2ap@
  000b2	a1 00 00 00 00	 mov	 eax, DWORD PTR ?null_entity_pointer_message@@3PBDB ; null_entity_pointer_message
  000b7	50		 push	 eax
  000b8	e8 00 00 00 00	 call	 ?process_assert@@YGXPBD0H@Z ; process_assert
  000bd	c7 45 b4 00 00
	00 00		 mov	 DWORD PTR tv91[ebp], 0
$LN11@check_grou:
  000c4	b9 01 00 00 00	 mov	 ecx, 1
  000c9	85 c9		 test	 ecx, ecx
  000cb	74 09		 je	 SHORT $LN12@check_grou
  000cd	c7 45 b0 10 00
	00 00		 mov	 DWORD PTR tv131[ebp], 16 ; 00000010H
  000d4	eb 21		 jmp	 SHORT $LN13@check_grou
$LN12@check_grou:
  000d6	8b 15 00 00 00
	00		 mov	 edx, DWORD PTR ?__LINE__Var@?0??check_group_task_type@@YGHPAUENTITY@@H@Z@4JA
  000dc	83 c2 0b	 add	 edx, 11			; 0000000bH
  000df	52		 push	 edx
  000e0	68 00 00 00 00	 push	 OFFSET ??_C@_0EJ@CCBIJPFD@c?3?2users?2nhv90?2projects?2eech?2ap@
  000e5	a1 00 00 00 00	 mov	 eax, DWORD PTR ?overload_invalid_list_type_message@@3PBDB ; overload_invalid_list_type_message
  000ea	50		 push	 eax
  000eb	e8 00 00 00 00	 call	 ?process_assert@@YGXPBD0H@Z ; process_assert
  000f0	c7 45 b0 00 00
	00 00		 mov	 DWORD PTR tv131[ebp], 0
$LN13@check_grou:
  000f7	6a 10		 push	 16			; 00000010H
  000f9	8b 4d fc	 mov	 ecx, DWORD PTR _guide$[ebp]
  000fc	51		 push	 ecx
  000fd	69 55 b4 b4 00
	00 00		 imul	 edx, DWORD PTR tv91[ebp], 180
  00104	8b 45 b0	 mov	 eax, DWORD PTR tv131[ebp]
  00107	8b 8c 82 00 00
	00 00		 mov	 ecx, DWORD PTR ?fn_get_local_entity_parent@@3PAY0CN@P6GPAUENTITY@@PAU1@W4LIST_TYPES@@@ZA[edx+eax*4]
  0010e	ff d1		 call	 ecx
  00110	89 45 f8	 mov	 DWORD PTR _task$[ebp], eax

; 1227 : 
; 1228 : 		if (get_local_entity_int_value (task, INT_TYPE_ENTITY_SUB_TYPE) == task_type)

  00113	83 7d f8 00	 cmp	 DWORD PTR _task$[ebp], 0
  00117	74 0a		 je	 SHORT $LN14@check_grou
  00119	8b 45 f8	 mov	 eax, DWORD PTR _task$[ebp]
  0011c	8b 08		 mov	 ecx, DWORD PTR [eax]
  0011e	89 4d b4	 mov	 DWORD PTR tv142[ebp], ecx
  00121	eb 1d		 jmp	 SHORT $LN15@check_grou
$LN14@check_grou:
  00123	68 cc 04 00 00	 push	 1228			; 000004ccH
  00128	68 00 00 00 00	 push	 OFFSET ??_C@_0EJ@CCBIJPFD@c?3?2users?2nhv90?2projects?2eech?2ap@
  0012d	8b 15 00 00 00
	00		 mov	 edx, DWORD PTR ?null_entity_pointer_message@@3PBDB ; null_entity_pointer_message
  00133	52		 push	 edx
  00134	e8 00 00 00 00	 call	 ?process_assert@@YGXPBD0H@Z ; process_assert
  00139	c7 45 b4 00 00
	00 00		 mov	 DWORD PTR tv142[ebp], 0
$LN15@check_grou:
  00140	b8 01 00 00 00	 mov	 eax, 1
  00145	85 c0		 test	 eax, eax
  00147	74 09		 je	 SHORT $LN16@check_grou
  00149	c7 45 b0 34 00
	00 00		 mov	 DWORD PTR tv149[ebp], 52 ; 00000034H
  00150	eb 1d		 jmp	 SHORT $LN17@check_grou
$LN16@check_grou:
  00152	68 cc 04 00 00	 push	 1228			; 000004ccH
  00157	68 00 00 00 00	 push	 OFFSET ??_C@_0EJ@CCBIJPFD@c?3?2users?2nhv90?2projects?2eech?2ap@
  0015c	8b 0d 00 00 00
	00		 mov	 ecx, DWORD PTR ?overload_invalid_int_type_message@@3PBDB ; overload_invalid_int_type_message
  00162	51		 push	 ecx
  00163	e8 00 00 00 00	 call	 ?process_assert@@YGXPBD0H@Z ; process_assert
  00168	c7 45 b0 00 00
	00 00		 mov	 DWORD PTR tv149[ebp], 0
$LN17@check_grou:
  0016f	6a 34		 push	 52			; 00000034H
  00171	8b 55 f8	 mov	 edx, DWORD PTR _task$[ebp]
  00174	52		 push	 edx
  00175	69 45 b4 5c 04
	00 00		 imul	 eax, DWORD PTR tv142[ebp], 1116
  0017c	8b 4d b0	 mov	 ecx, DWORD PTR tv149[ebp]
  0017f	8b 94 88 00 00
	00 00		 mov	 edx, DWORD PTR ?fn_get_local_entity_int_value@@3PAY0BBH@P6GHPAUENTITY@@W4INT_TYPES@@@ZA[eax+ecx*4]
  00186	ff d2		 call	 edx
  00188	3b 45 0c	 cmp	 eax, DWORD PTR _task_type$[ebp]
  0018b	75 0a		 jne	 SHORT $LN4@check_grou

; 1229 : 		{
; 1230 : 
; 1231 : 			return TRUE;

  0018d	b8 01 00 00 00	 mov	 eax, 1
  00192	e9 87 00 00 00	 jmp	 $LN1@check_grou
$LN4@check_grou:

; 1232 : 		}
; 1233 : 
; 1234 : 		guide = get_local_entity_child_succ (guide, LIST_TYPE_GUIDE_STACK);

  00197	83 7d fc 00	 cmp	 DWORD PTR _guide$[ebp], 0
  0019b	74 0a		 je	 SHORT $LN18@check_grou
  0019d	8b 45 fc	 mov	 eax, DWORD PTR _guide$[ebp]
  001a0	8b 08		 mov	 ecx, DWORD PTR [eax]
  001a2	89 4d b4	 mov	 DWORD PTR tv162[ebp], ecx
  001a5	eb 21		 jmp	 SHORT $LN19@check_grou
$LN18@check_grou:
  001a7	8b 15 00 00 00
	00		 mov	 edx, DWORD PTR ?__LINE__Var@?0??check_group_task_type@@YGHPAUENTITY@@H@Z@4JA
  001ad	83 c2 13	 add	 edx, 19			; 00000013H
  001b0	52		 push	 edx
  001b1	68 00 00 00 00	 push	 OFFSET ??_C@_0EJ@CCBIJPFD@c?3?2users?2nhv90?2projects?2eech?2ap@
  001b6	a1 00 00 00 00	 mov	 eax, DWORD PTR ?null_entity_pointer_message@@3PBDB ; null_entity_pointer_message
  001bb	50		 push	 eax
  001bc	e8 00 00 00 00	 call	 ?process_assert@@YGXPBD0H@Z ; process_assert
  001c1	c7 45 b4 00 00
	00 00		 mov	 DWORD PTR tv162[ebp], 0
$LN19@check_grou:
  001c8	b9 01 00 00 00	 mov	 ecx, 1
  001cd	85 c9		 test	 ecx, ecx
  001cf	74 09		 je	 SHORT $LN20@check_grou
  001d1	c7 45 b0 11 00
	00 00		 mov	 DWORD PTR tv170[ebp], 17 ; 00000011H
  001d8	eb 21		 jmp	 SHORT $LN21@check_grou
$LN20@check_grou:
  001da	8b 15 00 00 00
	00		 mov	 edx, DWORD PTR ?__LINE__Var@?0??check_group_task_type@@YGHPAUENTITY@@H@Z@4JA
  001e0	83 c2 13	 add	 edx, 19			; 00000013H
  001e3	52		 push	 edx
  001e4	68 00 00 00 00	 push	 OFFSET ??_C@_0EJ@CCBIJPFD@c?3?2users?2nhv90?2projects?2eech?2ap@
  001e9	a1 00 00 00 00	 mov	 eax, DWORD PTR ?overload_invalid_list_type_message@@3PBDB ; overload_invalid_list_type_message
  001ee	50		 push	 eax
  001ef	e8 00 00 00 00	 call	 ?process_assert@@YGXPBD0H@Z ; process_assert
  001f4	c7 45 b0 00 00
	00 00		 mov	 DWORD PTR tv170[ebp], 0
$LN21@check_grou:
  001fb	6a 11		 push	 17			; 00000011H
  001fd	8b 4d fc	 mov	 ecx, DWORD PTR _guide$[ebp]
  00200	51		 push	 ecx
  00201	69 55 b4 b4 00
	00 00		 imul	 edx, DWORD PTR tv162[ebp], 180
  00208	8b 45 b0	 mov	 eax, DWORD PTR tv170[ebp]
  0020b	8b 8c 82 00 00
	00 00		 mov	 ecx, DWORD PTR ?fn_get_local_entity_child_succ@@3PAY0CN@P6GPAUENTITY@@PAU1@W4LIST_TYPES@@@ZA[edx+eax*4]
  00212	ff d1		 call	 ecx
  00214	89 45 fc	 mov	 DWORD PTR _guide$[ebp], eax

; 1235 : 	}

  00217	e9 6d fe ff ff	 jmp	 $LN2@check_grou
$LN3@check_grou:

; 1236 : 
; 1237 : 	return FALSE;

  0021c	33 c0		 xor	 eax, eax
$LN1@check_grou:

; 1238 : }

  0021e	5f		 pop	 edi
  0021f	5e		 pop	 esi
  00220	5b		 pop	 ebx
  00221	8b e5		 mov	 esp, ebp
  00223	5d		 pop	 ebp
  00224	c2 08 00	 ret	 8
?check_group_task_type@@YGHPAUENTITY@@H@Z ENDP		; check_group_task_type
_TEXT	ENDS
; Function compile flags: /Odtp /ZI
; File c:\users\nhv90\projects\eech\aphavoc\source\entity\special\group\group.c
;	COMDAT ?create_group_emergency_transfer_task@@YGHPAUENTITY@@@Z
_TEXT	SEGMENT
tv283 = -100						; size = 4
tv261 = -100						; size = 4
tv238 = -100						; size = 4
tv196 = -100						; size = 4
tv163 = -100						; size = 4
tv140 = -100						; size = 4
tv88 = -100						; size = 4
tv275 = -96						; size = 4
tv253 = -96						; size = 4
tv230 = -96						; size = 4
tv188 = -96						; size = 4
tv155 = -96						; size = 4
tv132 = -96						; size = 4
tv80 = -96						; size = 4
_pos$ = -28						; size = 4
_sites_required$ = -24					; size = 4
_landing_type$ = -20					; size = 4
_side$ = -16						; size = 4
_new_task$ = -12					; size = 4
_new_keysite$ = -8					; size = 4
_landing$ = -4						; size = 4
_en$ = 8						; size = 4
?create_group_emergency_transfer_task@@YGHPAUENTITY@@@Z PROC ; create_group_emergency_transfer_task, COMDAT

; 1128 : {

  00000	55		 push	 ebp
  00001	8b ec		 mov	 ebp, esp
  00003	83 ec 64	 sub	 esp, 100		; 00000064H
  00006	53		 push	 ebx
  00007	56		 push	 esi
  00008	57		 push	 edi

; 1129 : 	entity
; 1130 : 		*landing,
; 1131 : 		*new_keysite,
; 1132 : 		*new_task;
; 1133 : 
; 1134 : 	int
; 1135 : 		side,
; 1136 : 		landing_type,
; 1137 : 		sites_required;
; 1138 : 
; 1139 : 	vec3d
; 1140 : 		*pos;
; 1141 : 
; 1142 : 	ASSERT (en);

  00009	83 7d 08 00	 cmp	 DWORD PTR _en$[ebp], 0
  0000d	75 18		 jne	 SHORT $LN2@create_gro
  0000f	a1 00 00 00 00	 mov	 eax, DWORD PTR ?__LINE__Var@?0??create_group_emergency_transfer_task@@YGHPAUENTITY@@@Z@4JA
  00014	83 c0 0e	 add	 eax, 14			; 0000000eH
  00017	50		 push	 eax
  00018	68 00 00 00 00	 push	 OFFSET ??_C@_0EJ@CCBIJPFD@c?3?2users?2nhv90?2projects?2eech?2ap@
  0001d	68 00 00 00 00	 push	 OFFSET ??_C@_02LFNMGJAP@en@
  00022	e8 00 00 00 00	 call	 ?process_assert@@YGXPBD0H@Z ; process_assert
$LN2@create_gro:

; 1143 : 
; 1144 : 	ASSERT (get_comms_model () == COMMS_MODEL_SERVER);

  00027	83 3d 00 00 00
	00 00		 cmp	 DWORD PTR ?system_comms_model@@3W4COMMS_MODEL_TYPES@@A, 0 ; system_comms_model
  0002e	74 18		 je	 SHORT $LN3@create_gro
  00030	a1 00 00 00 00	 mov	 eax, DWORD PTR ?__LINE__Var@?0??create_group_emergency_transfer_task@@YGHPAUENTITY@@@Z@4JA
  00035	83 c0 10	 add	 eax, 16			; 00000010H
  00038	50		 push	 eax
  00039	68 00 00 00 00	 push	 OFFSET ??_C@_0EJ@CCBIJPFD@c?3?2users?2nhv90?2projects?2eech?2ap@
  0003e	68 00 00 00 00	 push	 OFFSET ??_C@_0CJ@DMBLBJBK@get_comms_model?5?$CI?$CJ?5?$DN?$DN?5COMMS_MOD@
  00043	e8 00 00 00 00	 call	 ?process_assert@@YGXPBD0H@Z ; process_assert
$LN3@create_gro:

; 1145 : 
; 1146 : 	side = get_local_entity_int_value (en, INT_TYPE_SIDE);

  00048	83 7d 08 00	 cmp	 DWORD PTR _en$[ebp], 0
  0004c	74 0a		 je	 SHORT $LN12@create_gro
  0004e	8b 45 08	 mov	 eax, DWORD PTR _en$[ebp]
  00051	8b 08		 mov	 ecx, DWORD PTR [eax]
  00053	89 4d a0	 mov	 DWORD PTR tv80[ebp], ecx
  00056	eb 21		 jmp	 SHORT $LN13@create_gro
$LN12@create_gro:
  00058	8b 15 00 00 00
	00		 mov	 edx, DWORD PTR ?__LINE__Var@?0??create_group_emergency_transfer_task@@YGHPAUENTITY@@@Z@4JA
  0005e	83 c2 12	 add	 edx, 18			; 00000012H
  00061	52		 push	 edx
  00062	68 00 00 00 00	 push	 OFFSET ??_C@_0EJ@CCBIJPFD@c?3?2users?2nhv90?2projects?2eech?2ap@
  00067	a1 00 00 00 00	 mov	 eax, DWORD PTR ?null_entity_pointer_message@@3PBDB ; null_entity_pointer_message
  0006c	50		 push	 eax
  0006d	e8 00 00 00 00	 call	 ?process_assert@@YGXPBD0H@Z ; process_assert
  00072	c7 45 a0 00 00
	00 00		 mov	 DWORD PTR tv80[ebp], 0
$LN13@create_gro:
  00079	b9 01 00 00 00	 mov	 ecx, 1
  0007e	85 c9		 test	 ecx, ecx
  00080	74 09		 je	 SHORT $LN14@create_gro
  00082	c7 45 9c bb 00
	00 00		 mov	 DWORD PTR tv88[ebp], 187 ; 000000bbH
  00089	eb 21		 jmp	 SHORT $LN15@create_gro
$LN14@create_gro:
  0008b	8b 15 00 00 00
	00		 mov	 edx, DWORD PTR ?__LINE__Var@?0??create_group_emergency_transfer_task@@YGHPAUENTITY@@@Z@4JA
  00091	83 c2 12	 add	 edx, 18			; 00000012H
  00094	52		 push	 edx
  00095	68 00 00 00 00	 push	 OFFSET ??_C@_0EJ@CCBIJPFD@c?3?2users?2nhv90?2projects?2eech?2ap@
  0009a	a1 00 00 00 00	 mov	 eax, DWORD PTR ?overload_invalid_int_type_message@@3PBDB ; overload_invalid_int_type_message
  0009f	50		 push	 eax
  000a0	e8 00 00 00 00	 call	 ?process_assert@@YGXPBD0H@Z ; process_assert
  000a5	c7 45 9c 00 00
	00 00		 mov	 DWORD PTR tv88[ebp], 0
$LN15@create_gro:
  000ac	68 bb 00 00 00	 push	 187			; 000000bbH
  000b1	8b 4d 08	 mov	 ecx, DWORD PTR _en$[ebp]
  000b4	51		 push	 ecx
  000b5	69 55 a0 5c 04
	00 00		 imul	 edx, DWORD PTR tv80[ebp], 1116
  000bc	8b 45 9c	 mov	 eax, DWORD PTR tv88[ebp]
  000bf	8b 8c 82 00 00
	00 00		 mov	 ecx, DWORD PTR ?fn_get_local_entity_int_value@@3PAY0BBH@P6GHPAUENTITY@@W4INT_TYPES@@@ZA[edx+eax*4]
  000c6	ff d1		 call	 ecx
  000c8	89 45 f0	 mov	 DWORD PTR _side$[ebp], eax

; 1147 : 
; 1148 : 	pos = get_local_entity_vec3d_ptr (en, VEC3D_TYPE_POSITION);

  000cb	83 7d 08 00	 cmp	 DWORD PTR _en$[ebp], 0
  000cf	74 0a		 je	 SHORT $LN16@create_gro
  000d1	8b 45 08	 mov	 eax, DWORD PTR _en$[ebp]
  000d4	8b 08		 mov	 ecx, DWORD PTR [eax]
  000d6	89 4d a0	 mov	 DWORD PTR tv132[ebp], ecx
  000d9	eb 21		 jmp	 SHORT $LN17@create_gro
$LN16@create_gro:
  000db	8b 15 00 00 00
	00		 mov	 edx, DWORD PTR ?__LINE__Var@?0??create_group_emergency_transfer_task@@YGHPAUENTITY@@@Z@4JA
  000e1	83 c2 14	 add	 edx, 20			; 00000014H
  000e4	52		 push	 edx
  000e5	68 00 00 00 00	 push	 OFFSET ??_C@_0EJ@CCBIJPFD@c?3?2users?2nhv90?2projects?2eech?2ap@
  000ea	a1 00 00 00 00	 mov	 eax, DWORD PTR ?null_entity_pointer_message@@3PBDB ; null_entity_pointer_message
  000ef	50		 push	 eax
  000f0	e8 00 00 00 00	 call	 ?process_assert@@YGXPBD0H@Z ; process_assert
  000f5	c7 45 a0 00 00
	00 00		 mov	 DWORD PTR tv132[ebp], 0
$LN17@create_gro:
  000fc	b9 01 00 00 00	 mov	 ecx, 1
  00101	85 c9		 test	 ecx, ecx
  00103	74 09		 je	 SHORT $LN18@create_gro
  00105	c7 45 9c 08 00
	00 00		 mov	 DWORD PTR tv140[ebp], 8
  0010c	eb 21		 jmp	 SHORT $LN19@create_gro
$LN18@create_gro:
  0010e	8b 15 00 00 00
	00		 mov	 edx, DWORD PTR ?__LINE__Var@?0??create_group_emergency_transfer_task@@YGHPAUENTITY@@@Z@4JA
  00114	83 c2 14	 add	 edx, 20			; 00000014H
  00117	52		 push	 edx
  00118	68 00 00 00 00	 push	 OFFSET ??_C@_0EJ@CCBIJPFD@c?3?2users?2nhv90?2projects?2eech?2ap@
  0011d	a1 00 00 00 00	 mov	 eax, DWORD PTR ?overload_invalid_vec3d_type_message@@3PBDB ; overload_invalid_vec3d_type_message
  00122	50		 push	 eax
  00123	e8 00 00 00 00	 call	 ?process_assert@@YGXPBD0H@Z ; process_assert
  00128	c7 45 9c 00 00
	00 00		 mov	 DWORD PTR tv140[ebp], 0
$LN19@create_gro:
  0012f	6a 08		 push	 8
  00131	8b 4d 08	 mov	 ecx, DWORD PTR _en$[ebp]
  00134	51		 push	 ecx
  00135	6b 55 a0 60	 imul	 edx, DWORD PTR tv132[ebp], 96
  00139	8b 45 9c	 mov	 eax, DWORD PTR tv140[ebp]
  0013c	8b 8c 82 00 00
	00 00		 mov	 ecx, DWORD PTR ?fn_get_local_entity_vec3d_ptr@@3PAY0BI@P6GPAUVEC3D@@PAUENTITY@@W4VEC3D_TYPES@@@ZA[edx+eax*4]
  00143	ff d1		 call	 ecx
  00145	89 45 e4	 mov	 DWORD PTR _pos$[ebp], eax

; 1149 : 
; 1150 : 	group_terminate_all_tasks (en);

  00148	8b 45 08	 mov	 eax, DWORD PTR _en$[ebp]
  0014b	50		 push	 eax
  0014c	e8 00 00 00 00	 call	 ?group_terminate_all_tasks@@YGXPAUENTITY@@@Z ; group_terminate_all_tasks

; 1151 : 
; 1152 : 	sites_required = get_local_group_member_count (en);

  00151	8b 45 08	 mov	 eax, DWORD PTR _en$[ebp]
  00154	50		 push	 eax
  00155	e8 00 00 00 00	 call	 ?get_local_group_member_count@@YGHPAUENTITY@@@Z ; get_local_group_member_count
  0015a	89 45 e8	 mov	 DWORD PTR _sites_required$[ebp], eax

; 1153 : 
; 1154 : 	landing_type = group_database [get_local_entity_int_value (en, INT_TYPE_ENTITY_SUB_TYPE)].default_landing_type;

  0015d	83 7d 08 00	 cmp	 DWORD PTR _en$[ebp], 0
  00161	74 0a		 je	 SHORT $LN20@create_gro
  00163	8b 45 08	 mov	 eax, DWORD PTR _en$[ebp]
  00166	8b 08		 mov	 ecx, DWORD PTR [eax]
  00168	89 4d a0	 mov	 DWORD PTR tv155[ebp], ecx
  0016b	eb 21		 jmp	 SHORT $LN21@create_gro
$LN20@create_gro:
  0016d	8b 15 00 00 00
	00		 mov	 edx, DWORD PTR ?__LINE__Var@?0??create_group_emergency_transfer_task@@YGHPAUENTITY@@@Z@4JA
  00173	83 c2 1a	 add	 edx, 26			; 0000001aH
  00176	52		 push	 edx
  00177	68 00 00 00 00	 push	 OFFSET ??_C@_0EJ@CCBIJPFD@c?3?2users?2nhv90?2projects?2eech?2ap@
  0017c	a1 00 00 00 00	 mov	 eax, DWORD PTR ?null_entity_pointer_message@@3PBDB ; null_entity_pointer_message
  00181	50		 push	 eax
  00182	e8 00 00 00 00	 call	 ?process_assert@@YGXPBD0H@Z ; process_assert
  00187	c7 45 a0 00 00
	00 00		 mov	 DWORD PTR tv155[ebp], 0
$LN21@create_gro:
  0018e	b9 01 00 00 00	 mov	 ecx, 1
  00193	85 c9		 test	 ecx, ecx
  00195	74 09		 je	 SHORT $LN22@create_gro
  00197	c7 45 9c 34 00
	00 00		 mov	 DWORD PTR tv163[ebp], 52 ; 00000034H
  0019e	eb 21		 jmp	 SHORT $LN23@create_gro
$LN22@create_gro:
  001a0	8b 15 00 00 00
	00		 mov	 edx, DWORD PTR ?__LINE__Var@?0??create_group_emergency_transfer_task@@YGHPAUENTITY@@@Z@4JA
  001a6	83 c2 1a	 add	 edx, 26			; 0000001aH
  001a9	52		 push	 edx
  001aa	68 00 00 00 00	 push	 OFFSET ??_C@_0EJ@CCBIJPFD@c?3?2users?2nhv90?2projects?2eech?2ap@
  001af	a1 00 00 00 00	 mov	 eax, DWORD PTR ?overload_invalid_int_type_message@@3PBDB ; overload_invalid_int_type_message
  001b4	50		 push	 eax
  001b5	e8 00 00 00 00	 call	 ?process_assert@@YGXPBD0H@Z ; process_assert
  001ba	c7 45 9c 00 00
	00 00		 mov	 DWORD PTR tv163[ebp], 0
$LN23@create_gro:
  001c1	6a 34		 push	 52			; 00000034H
  001c3	8b 4d 08	 mov	 ecx, DWORD PTR _en$[ebp]
  001c6	51		 push	 ecx
  001c7	69 55 a0 5c 04
	00 00		 imul	 edx, DWORD PTR tv155[ebp], 1116
  001ce	8b 45 9c	 mov	 eax, DWORD PTR tv163[ebp]
  001d1	8b 8c 82 00 00
	00 00		 mov	 ecx, DWORD PTR ?fn_get_local_entity_int_value@@3PAY0BBH@P6GHPAUENTITY@@W4INT_TYPES@@@ZA[edx+eax*4]
  001d8	ff d1		 call	 ecx
  001da	6b d0 64	 imul	 edx, eax, 100
  001dd	8b 82 18 00 00
	00		 mov	 eax, DWORD PTR ?group_database@@3PAUGROUP_DATA@@A[edx+24]
  001e3	89 45 ec	 mov	 DWORD PTR _landing_type$[ebp], eax

; 1155 : 
; 1156 : 	landing = get_closest_free_landing_site (landing_type, get_local_force_entity ((entity_sides) side), pos, 0.0, NULL, sites_required);

  001e6	8b 45 e8	 mov	 eax, DWORD PTR _sites_required$[ebp]
  001e9	50		 push	 eax
  001ea	6a 00		 push	 0
  001ec	51		 push	 ecx
  001ed	0f 57 c0	 xorps	 xmm0, xmm0
  001f0	f3 0f 11 04 24	 movss	 DWORD PTR [esp], xmm0
  001f5	8b 4d e4	 mov	 ecx, DWORD PTR _pos$[ebp]
  001f8	51		 push	 ecx
  001f9	8b 55 f0	 mov	 edx, DWORD PTR _side$[ebp]
  001fc	52		 push	 edx
  001fd	e8 00 00 00 00	 call	 ?get_local_force_entity@@YGPAUENTITY@@W4ENTITY_SIDES@@@Z ; get_local_force_entity
  00202	50		 push	 eax
  00203	8b 45 ec	 mov	 eax, DWORD PTR _landing_type$[ebp]
  00206	50		 push	 eax
  00207	e8 00 00 00 00	 call	 ?get_closest_free_landing_site@@YGPAUENTITY@@HPAU1@PAUVEC3D@@MPAMH@Z ; get_closest_free_landing_site
  0020c	89 45 fc	 mov	 DWORD PTR _landing$[ebp], eax

; 1157 : 
; 1158 : 	if (landing)

  0020f	83 7d fc 00	 cmp	 DWORD PTR _landing$[ebp], 0
  00213	0f 84 37 02 00
	00		 je	 $LN4@create_gro

; 1159 : 	{
; 1160 : 		//
; 1161 : 		// Found new keysite
; 1162 : 		//
; 1163 : 
; 1164 : 		new_keysite = get_local_entity_parent (landing, LIST_TYPE_LANDING_SITE);

  00219	83 7d fc 00	 cmp	 DWORD PTR _landing$[ebp], 0
  0021d	74 0a		 je	 SHORT $LN24@create_gro
  0021f	8b 45 fc	 mov	 eax, DWORD PTR _landing$[ebp]
  00222	8b 08		 mov	 ecx, DWORD PTR [eax]
  00224	89 4d a0	 mov	 DWORD PTR tv188[ebp], ecx
  00227	eb 21		 jmp	 SHORT $LN25@create_gro
$LN24@create_gro:
  00229	8b 15 00 00 00
	00		 mov	 edx, DWORD PTR ?__LINE__Var@?0??create_group_emergency_transfer_task@@YGHPAUENTITY@@@Z@4JA
  0022f	83 c2 24	 add	 edx, 36			; 00000024H
  00232	52		 push	 edx
  00233	68 00 00 00 00	 push	 OFFSET ??_C@_0EJ@CCBIJPFD@c?3?2users?2nhv90?2projects?2eech?2ap@
  00238	a1 00 00 00 00	 mov	 eax, DWORD PTR ?null_entity_pointer_message@@3PBDB ; null_entity_pointer_message
  0023d	50		 push	 eax
  0023e	e8 00 00 00 00	 call	 ?process_assert@@YGXPBD0H@Z ; process_assert
  00243	c7 45 a0 00 00
	00 00		 mov	 DWORD PTR tv188[ebp], 0
$LN25@create_gro:
  0024a	b9 01 00 00 00	 mov	 ecx, 1
  0024f	85 c9		 test	 ecx, ecx
  00251	74 09		 je	 SHORT $LN26@create_gro
  00253	c7 45 9c 17 00
	00 00		 mov	 DWORD PTR tv196[ebp], 23 ; 00000017H
  0025a	eb 21		 jmp	 SHORT $LN27@create_gro
$LN26@create_gro:
  0025c	8b 15 00 00 00
	00		 mov	 edx, DWORD PTR ?__LINE__Var@?0??create_group_emergency_transfer_task@@YGHPAUENTITY@@@Z@4JA
  00262	83 c2 24	 add	 edx, 36			; 00000024H
  00265	52		 push	 edx
  00266	68 00 00 00 00	 push	 OFFSET ??_C@_0EJ@CCBIJPFD@c?3?2users?2nhv90?2projects?2eech?2ap@
  0026b	a1 00 00 00 00	 mov	 eax, DWORD PTR ?overload_invalid_list_type_message@@3PBDB ; overload_invalid_list_type_message
  00270	50		 push	 eax
  00271	e8 00 00 00 00	 call	 ?process_assert@@YGXPBD0H@Z ; process_assert
  00276	c7 45 9c 00 00
	00 00		 mov	 DWORD PTR tv196[ebp], 0
$LN27@create_gro:
  0027d	6a 17		 push	 23			; 00000017H
  0027f	8b 4d fc	 mov	 ecx, DWORD PTR _landing$[ebp]
  00282	51		 push	 ecx
  00283	69 55 a0 b4 00
	00 00		 imul	 edx, DWORD PTR tv188[ebp], 180
  0028a	8b 45 9c	 mov	 eax, DWORD PTR tv196[ebp]
  0028d	8b 8c 82 00 00
	00 00		 mov	 ecx, DWORD PTR ?fn_get_local_entity_parent@@3PAY0CN@P6GPAUENTITY@@PAU1@W4LIST_TYPES@@@ZA[edx+eax*4]
  00294	ff d1		 call	 ecx
  00296	89 45 f8	 mov	 DWORD PTR _new_keysite$[ebp], eax

; 1165 : 
; 1166 : 		if (landing_type == ENTITY_SUB_TYPE_LANDING_HELICOPTER)

  00299	83 7d ec 02	 cmp	 DWORD PTR _landing_type$[ebp], 2
  0029d	75 26		 jne	 SHORT $LN6@create_gro

; 1167 : 		{
; 1168 : 			new_task = create_transfer_task ((entity_sides) side, ENTITY_SUB_TYPE_TASK_TRANSFER_HELICOPTER, 10.0, new_keysite, new_keysite);

  0029f	8b 45 f8	 mov	 eax, DWORD PTR _new_keysite$[ebp]
  002a2	50		 push	 eax
  002a3	8b 4d f8	 mov	 ecx, DWORD PTR _new_keysite$[ebp]
  002a6	51		 push	 ecx
  002a7	51		 push	 ecx
  002a8	f3 0f 10 05 00
	00 00 00	 movss	 xmm0, DWORD PTR __real@41200000
  002b0	f3 0f 11 04 24	 movss	 DWORD PTR [esp], xmm0
  002b5	6a 19		 push	 25			; 00000019H
  002b7	8b 55 f0	 mov	 edx, DWORD PTR _side$[ebp]
  002ba	52		 push	 edx
  002bb	e8 00 00 00 00	 call	 ?create_transfer_task@@YGPAUENTITY@@W4ENTITY_SIDES@@HMPAU1@1@Z ; create_transfer_task
  002c0	89 45 f4	 mov	 DWORD PTR _new_task$[ebp], eax

; 1169 : 		}
; 1170 : 		else

  002c3	eb 24		 jmp	 SHORT $LN7@create_gro
$LN6@create_gro:

; 1171 : 		{
; 1172 : 			new_task = create_transfer_task ((entity_sides) side, ENTITY_SUB_TYPE_TASK_TRANSFER_FIXED_WING, 10.0, new_keysite, new_keysite);

  002c5	8b 45 f8	 mov	 eax, DWORD PTR _new_keysite$[ebp]
  002c8	50		 push	 eax
  002c9	8b 4d f8	 mov	 ecx, DWORD PTR _new_keysite$[ebp]
  002cc	51		 push	 ecx
  002cd	51		 push	 ecx
  002ce	f3 0f 10 05 00
	00 00 00	 movss	 xmm0, DWORD PTR __real@41200000
  002d6	f3 0f 11 04 24	 movss	 DWORD PTR [esp], xmm0
  002db	6a 18		 push	 24			; 00000018H
  002dd	8b 55 f0	 mov	 edx, DWORD PTR _side$[ebp]
  002e0	52		 push	 edx
  002e1	e8 00 00 00 00	 call	 ?create_transfer_task@@YGPAUENTITY@@W4ENTITY_SIDES@@HMPAU1@1@Z ; create_transfer_task
  002e6	89 45 f4	 mov	 DWORD PTR _new_task$[ebp], eax
$LN7@create_gro:

; 1173 : 		}
; 1174 : 
; 1175 : 		ASSERT (new_task);

  002e9	83 7d f4 00	 cmp	 DWORD PTR _new_task$[ebp], 0
  002ed	75 18		 jne	 SHORT $LN8@create_gro
  002ef	a1 00 00 00 00	 mov	 eax, DWORD PTR ?__LINE__Var@?0??create_group_emergency_transfer_task@@YGHPAUENTITY@@@Z@4JA
  002f4	83 c0 2f	 add	 eax, 47			; 0000002fH
  002f7	50		 push	 eax
  002f8	68 00 00 00 00	 push	 OFFSET ??_C@_0EJ@CCBIJPFD@c?3?2users?2nhv90?2projects?2eech?2ap@
  002fd	68 00 00 00 00	 push	 OFFSET ??_C@_08JODNPJDD@new_task@
  00302	e8 00 00 00 00	 call	 ?process_assert@@YGXPBD0H@Z ; process_assert
$LN8@create_gro:

; 1176 : 
; 1177 : 		if (!assign_primary_task_to_group (en, new_task))

  00307	8b 45 f4	 mov	 eax, DWORD PTR _new_task$[ebp]
  0030a	50		 push	 eax
  0030b	8b 4d 08	 mov	 ecx, DWORD PTR _en$[ebp]
  0030e	51		 push	 ecx
  0030f	e8 00 00 00 00	 call	 ?assign_primary_task_to_group@@YGHPAUENTITY@@0@Z ; assign_primary_task_to_group
  00314	85 c0		 test	 eax, eax
  00316	0f 85 9d 00 00
	00		 jne	 $LN9@create_gro

; 1178 : 		{
; 1179 : 			//
; 1180 : 			// Failed to assign transfer task
; 1181 : 			//
; 1182 : 
; 1183 : 			ai_log ("(TRANSFER) Failed to assign Emergency Transfer to %s", get_local_entity_string (en, STRING_TYPE_FULL_NAME));

  0031c	83 7d 08 00	 cmp	 DWORD PTR _en$[ebp], 0
  00320	74 0a		 je	 SHORT $LN28@create_gro
  00322	8b 45 08	 mov	 eax, DWORD PTR _en$[ebp]
  00325	8b 08		 mov	 ecx, DWORD PTR [eax]
  00327	89 4d a0	 mov	 DWORD PTR tv230[ebp], ecx
  0032a	eb 21		 jmp	 SHORT $LN29@create_gro
$LN28@create_gro:
  0032c	8b 15 00 00 00
	00		 mov	 edx, DWORD PTR ?__LINE__Var@?0??create_group_emergency_transfer_task@@YGHPAUENTITY@@@Z@4JA
  00332	83 c2 37	 add	 edx, 55			; 00000037H
  00335	52		 push	 edx
  00336	68 00 00 00 00	 push	 OFFSET ??_C@_0EJ@CCBIJPFD@c?3?2users?2nhv90?2projects?2eech?2ap@
  0033b	a1 00 00 00 00	 mov	 eax, DWORD PTR ?null_entity_pointer_message@@3PBDB ; null_entity_pointer_message
  00340	50		 push	 eax
  00341	e8 00 00 00 00	 call	 ?process_assert@@YGXPBD0H@Z ; process_assert
  00346	c7 45 a0 00 00
	00 00		 mov	 DWORD PTR tv230[ebp], 0
$LN29@create_gro:
  0034d	b9 01 00 00 00	 mov	 ecx, 1
  00352	85 c9		 test	 ecx, ecx
  00354	74 09		 je	 SHORT $LN30@create_gro
  00356	c7 45 9c 03 00
	00 00		 mov	 DWORD PTR tv238[ebp], 3
  0035d	eb 21		 jmp	 SHORT $LN31@create_gro
$LN30@create_gro:
  0035f	8b 15 00 00 00
	00		 mov	 edx, DWORD PTR ?__LINE__Var@?0??create_group_emergency_transfer_task@@YGHPAUENTITY@@@Z@4JA
  00365	83 c2 37	 add	 edx, 55			; 00000037H
  00368	52		 push	 edx
  00369	68 00 00 00 00	 push	 OFFSET ??_C@_0EJ@CCBIJPFD@c?3?2users?2nhv90?2projects?2eech?2ap@
  0036e	a1 00 00 00 00	 mov	 eax, DWORD PTR ?overload_invalid_string_type_message@@3PBDB ; overload_invalid_string_type_message
  00373	50		 push	 eax
  00374	e8 00 00 00 00	 call	 ?process_assert@@YGXPBD0H@Z ; process_assert
  00379	c7 45 9c 00 00
	00 00		 mov	 DWORD PTR tv238[ebp], 0
$LN31@create_gro:
  00380	6a 03		 push	 3
  00382	8b 4d 08	 mov	 ecx, DWORD PTR _en$[ebp]
  00385	51		 push	 ecx
  00386	6b 55 a0 34	 imul	 edx, DWORD PTR tv230[ebp], 52
  0038a	8b 45 9c	 mov	 eax, DWORD PTR tv238[ebp]
  0038d	8b 8c 82 00 00
	00 00		 mov	 ecx, DWORD PTR ?fn_get_local_entity_string@@3PAY0N@P6GPBDPAUENTITY@@W4STRING_TYPES@@@ZA[edx+eax*4]
  00394	ff d1		 call	 ecx
  00396	50		 push	 eax
  00397	68 00 00 00 00	 push	 OFFSET ??_C@_0DF@OBONLCBC@?$CITRANSFER?$CJ?5Failed?5to?5assign?5Eme@
  0039c	e8 00 00 00 00	 call	 ?ai_log@@YAXPBDZZ	; ai_log
  003a1	83 c4 08	 add	 esp, 8

; 1184 : 
; 1185 : 			group_kill_all_members (en);

  003a4	8b 45 08	 mov	 eax, DWORD PTR _en$[ebp]
  003a7	50		 push	 eax
  003a8	e8 00 00 00 00	 call	 ?group_kill_all_members@@YGXPAUENTITY@@@Z ; group_kill_all_members

; 1186 : 
; 1187 : 			return FALSE;

  003ad	33 c0		 xor	 eax, eax
  003af	e9 2f 01 00 00	 jmp	 $LN5@create_gro

; 1188 : 		}
; 1189 : 		else

  003b4	e9 92 00 00 00	 jmp	 $LN10@create_gro
$LN9@create_gro:

; 1190 : 		{
; 1191 : 			ai_log ("(TRANSFER) Successfully assigned Emergency Transfer to %s", get_local_entity_string (en, STRING_TYPE_FULL_NAME));

  003b9	83 7d 08 00	 cmp	 DWORD PTR _en$[ebp], 0
  003bd	74 0a		 je	 SHORT $LN32@create_gro
  003bf	8b 45 08	 mov	 eax, DWORD PTR _en$[ebp]
  003c2	8b 08		 mov	 ecx, DWORD PTR [eax]
  003c4	89 4d a0	 mov	 DWORD PTR tv253[ebp], ecx
  003c7	eb 21		 jmp	 SHORT $LN33@create_gro
$LN32@create_gro:
  003c9	8b 15 00 00 00
	00		 mov	 edx, DWORD PTR ?__LINE__Var@?0??create_group_emergency_transfer_task@@YGHPAUENTITY@@@Z@4JA
  003cf	83 c2 3f	 add	 edx, 63			; 0000003fH
  003d2	52		 push	 edx
  003d3	68 00 00 00 00	 push	 OFFSET ??_C@_0EJ@CCBIJPFD@c?3?2users?2nhv90?2projects?2eech?2ap@
  003d8	a1 00 00 00 00	 mov	 eax, DWORD PTR ?null_entity_pointer_message@@3PBDB ; null_entity_pointer_message
  003dd	50		 push	 eax
  003de	e8 00 00 00 00	 call	 ?process_assert@@YGXPBD0H@Z ; process_assert
  003e3	c7 45 a0 00 00
	00 00		 mov	 DWORD PTR tv253[ebp], 0
$LN33@create_gro:
  003ea	b9 01 00 00 00	 mov	 ecx, 1
  003ef	85 c9		 test	 ecx, ecx
  003f1	74 09		 je	 SHORT $LN34@create_gro
  003f3	c7 45 9c 03 00
	00 00		 mov	 DWORD PTR tv261[ebp], 3
  003fa	eb 21		 jmp	 SHORT $LN35@create_gro
$LN34@create_gro:
  003fc	8b 15 00 00 00
	00		 mov	 edx, DWORD PTR ?__LINE__Var@?0??create_group_emergency_transfer_task@@YGHPAUENTITY@@@Z@4JA
  00402	83 c2 3f	 add	 edx, 63			; 0000003fH
  00405	52		 push	 edx
  00406	68 00 00 00 00	 push	 OFFSET ??_C@_0EJ@CCBIJPFD@c?3?2users?2nhv90?2projects?2eech?2ap@
  0040b	a1 00 00 00 00	 mov	 eax, DWORD PTR ?overload_invalid_string_type_message@@3PBDB ; overload_invalid_string_type_message
  00410	50		 push	 eax
  00411	e8 00 00 00 00	 call	 ?process_assert@@YGXPBD0H@Z ; process_assert
  00416	c7 45 9c 00 00
	00 00		 mov	 DWORD PTR tv261[ebp], 0
$LN35@create_gro:
  0041d	6a 03		 push	 3
  0041f	8b 4d 08	 mov	 ecx, DWORD PTR _en$[ebp]
  00422	51		 push	 ecx
  00423	6b 55 a0 34	 imul	 edx, DWORD PTR tv253[ebp], 52
  00427	8b 45 9c	 mov	 eax, DWORD PTR tv261[ebp]
  0042a	8b 8c 82 00 00
	00 00		 mov	 ecx, DWORD PTR ?fn_get_local_entity_string@@3PAY0N@P6GPBDPAUENTITY@@W4STRING_TYPES@@@ZA[edx+eax*4]
  00431	ff d1		 call	 ecx
  00433	50		 push	 eax
  00434	68 00 00 00 00	 push	 OFFSET ??_C@_0DK@OHMCPCBD@?$CITRANSFER?$CJ?5Successfully?5assigne@
  00439	e8 00 00 00 00	 call	 ?ai_log@@YAXPBDZZ	; ai_log
  0043e	83 c4 08	 add	 esp, 8

; 1192 : 
; 1193 : 			return TRUE;

  00441	b8 01 00 00 00	 mov	 eax, 1
  00446	e9 98 00 00 00	 jmp	 $LN5@create_gro
$LN10@create_gro:

; 1194 : 		}
; 1195 : 	}
; 1196 : 	else

  0044b	e9 93 00 00 00	 jmp	 $LN5@create_gro
$LN4@create_gro:

; 1197 : 	{
; 1198 : 		//
; 1199 : 		// Failed to find alternate keysite
; 1200 : 		//
; 1201 : 
; 1202 : 		ai_log ("(TRANSFER) Failed to find Emergency Transfer keysite for %s", get_local_entity_string (en, STRING_TYPE_FULL_NAME));

  00450	83 7d 08 00	 cmp	 DWORD PTR _en$[ebp], 0
  00454	74 0a		 je	 SHORT $LN36@create_gro
  00456	8b 45 08	 mov	 eax, DWORD PTR _en$[ebp]
  00459	8b 08		 mov	 ecx, DWORD PTR [eax]
  0045b	89 4d a0	 mov	 DWORD PTR tv275[ebp], ecx
  0045e	eb 21		 jmp	 SHORT $LN37@create_gro
$LN36@create_gro:
  00460	8b 15 00 00 00
	00		 mov	 edx, DWORD PTR ?__LINE__Var@?0??create_group_emergency_transfer_task@@YGHPAUENTITY@@@Z@4JA
  00466	83 c2 4a	 add	 edx, 74			; 0000004aH
  00469	52		 push	 edx
  0046a	68 00 00 00 00	 push	 OFFSET ??_C@_0EJ@CCBIJPFD@c?3?2users?2nhv90?2projects?2eech?2ap@
  0046f	a1 00 00 00 00	 mov	 eax, DWORD PTR ?null_entity_pointer_message@@3PBDB ; null_entity_pointer_message
  00474	50		 push	 eax
  00475	e8 00 00 00 00	 call	 ?process_assert@@YGXPBD0H@Z ; process_assert
  0047a	c7 45 a0 00 00
	00 00		 mov	 DWORD PTR tv275[ebp], 0
$LN37@create_gro:
  00481	b9 01 00 00 00	 mov	 ecx, 1
  00486	85 c9		 test	 ecx, ecx
  00488	74 09		 je	 SHORT $LN38@create_gro
  0048a	c7 45 9c 03 00
	00 00		 mov	 DWORD PTR tv283[ebp], 3
  00491	eb 21		 jmp	 SHORT $LN39@create_gro
$LN38@create_gro:
  00493	8b 15 00 00 00
	00		 mov	 edx, DWORD PTR ?__LINE__Var@?0??create_group_emergency_transfer_task@@YGHPAUENTITY@@@Z@4JA
  00499	83 c2 4a	 add	 edx, 74			; 0000004aH
  0049c	52		 push	 edx
  0049d	68 00 00 00 00	 push	 OFFSET ??_C@_0EJ@CCBIJPFD@c?3?2users?2nhv90?2projects?2eech?2ap@
  004a2	a1 00 00 00 00	 mov	 eax, DWORD PTR ?overload_invalid_string_type_message@@3PBDB ; overload_invalid_string_type_message
  004a7	50		 push	 eax
  004a8	e8 00 00 00 00	 call	 ?process_assert@@YGXPBD0H@Z ; process_assert
  004ad	c7 45 9c 00 00
	00 00		 mov	 DWORD PTR tv283[ebp], 0
$LN39@create_gro:
  004b4	6a 03		 push	 3
  004b6	8b 4d 08	 mov	 ecx, DWORD PTR _en$[ebp]
  004b9	51		 push	 ecx
  004ba	6b 55 a0 34	 imul	 edx, DWORD PTR tv275[ebp], 52
  004be	8b 45 9c	 mov	 eax, DWORD PTR tv283[ebp]
  004c1	8b 8c 82 00 00
	00 00		 mov	 ecx, DWORD PTR ?fn_get_local_entity_string@@3PAY0N@P6GPBDPAUENTITY@@W4STRING_TYPES@@@ZA[edx+eax*4]
  004c8	ff d1		 call	 ecx
  004ca	50		 push	 eax
  004cb	68 00 00 00 00	 push	 OFFSET ??_C@_0DM@KFJJHNFF@?$CITRANSFER?$CJ?5Failed?5to?5find?5Emerg@
  004d0	e8 00 00 00 00	 call	 ?ai_log@@YAXPBDZZ	; ai_log
  004d5	83 c4 08	 add	 esp, 8

; 1203 : 
; 1204 : 		group_kill_all_members (en);

  004d8	8b 45 08	 mov	 eax, DWORD PTR _en$[ebp]
  004db	50		 push	 eax
  004dc	e8 00 00 00 00	 call	 ?group_kill_all_members@@YGXPAUENTITY@@@Z ; group_kill_all_members

; 1205 : 
; 1206 : 		return FALSE;

  004e1	33 c0		 xor	 eax, eax
$LN5@create_gro:

; 1207 : 	}
; 1208 : }

  004e3	5f		 pop	 edi
  004e4	5e		 pop	 esi
  004e5	5b		 pop	 ebx
  004e6	8b e5		 mov	 esp, ebp
  004e8	5d		 pop	 ebp
  004e9	c2 04 00	 ret	 4
?create_group_emergency_transfer_task@@YGHPAUENTITY@@@Z ENDP ; create_group_emergency_transfer_task
_TEXT	ENDS
; Function compile flags: /Odtp /ZI
; File c:\users\nhv90\projects\eech\aphavoc\source\entity\special\group\group.c
;	COMDAT ?kill_client_server_group_entity@@YGXPAUENTITY@@@Z
_TEXT	SEGMENT
tv166 = -84						; size = 4
tv145 = -84						; size = 4
tv88 = -84						; size = 4
tv184 = -80						; size = 4
tv158 = -80						; size = 4
tv137 = -80						; size = 4
tv80 = -80						; size = 4
_next$ = -12						; size = 4
_task$ = -8						; size = 4
_guide$ = -4						; size = 4
_en$ = 8						; size = 4
?kill_client_server_group_entity@@YGXPAUENTITY@@@Z PROC	; kill_client_server_group_entity, COMDAT

; 1077 : {

  00000	55		 push	 ebp
  00001	8b ec		 mov	 ebp, esp
  00003	83 ec 54	 sub	 esp, 84			; 00000054H
  00006	53		 push	 ebx
  00007	56		 push	 esi
  00008	57		 push	 edi

; 1078 : 	entity
; 1079 : 		*guide,
; 1080 : 		*task,
; 1081 : 		*next;
; 1082 : 
; 1083 : 	ASSERT (en);

  00009	83 7d 08 00	 cmp	 DWORD PTR _en$[ebp], 0
  0000d	75 18		 jne	 SHORT $LN7@kill_clien
  0000f	a1 00 00 00 00	 mov	 eax, DWORD PTR ?__LINE__Var@?0??kill_client_server_group_entity@@YGXPAUENTITY@@@Z@4JA
  00014	83 c0 06	 add	 eax, 6
  00017	50		 push	 eax
  00018	68 00 00 00 00	 push	 OFFSET ??_C@_0EJ@CCBIJPFD@c?3?2users?2nhv90?2projects?2eech?2ap@
  0001d	68 00 00 00 00	 push	 OFFSET ??_C@_02LFNMGJAP@en@
  00022	e8 00 00 00 00	 call	 ?process_assert@@YGXPBD0H@Z ; process_assert
$LN7@kill_clien:

; 1084 : 
; 1085 : 	ASSERT (get_comms_model () == COMMS_MODEL_SERVER);

  00027	83 3d 00 00 00
	00 00		 cmp	 DWORD PTR ?system_comms_model@@3W4COMMS_MODEL_TYPES@@A, 0 ; system_comms_model
  0002e	74 18		 je	 SHORT $LN4@kill_clien
  00030	a1 00 00 00 00	 mov	 eax, DWORD PTR ?__LINE__Var@?0??kill_client_server_group_entity@@YGXPAUENTITY@@@Z@4JA
  00035	83 c0 08	 add	 eax, 8
  00038	50		 push	 eax
  00039	68 00 00 00 00	 push	 OFFSET ??_C@_0EJ@CCBIJPFD@c?3?2users?2nhv90?2projects?2eech?2ap@
  0003e	68 00 00 00 00	 push	 OFFSET ??_C@_0CJ@DMBLBJBK@get_comms_model?5?$CI?$CJ?5?$DN?$DN?5COMMS_MOD@
  00043	e8 00 00 00 00	 call	 ?process_assert@@YGXPBD0H@Z ; process_assert
$LN4@kill_clien:

; 1086 : 
; 1087 : 	//
; 1088 : 	// abort tasks (NOTE: Notifying each guide could indirectly destroy other guides on the stack)
; 1089 : 	//
; 1090 : 
; 1091 : 	do
; 1092 : 	{
; 1093 : 		guide = get_local_entity_first_child (en, LIST_TYPE_GUIDE_STACK);

  00048	83 7d 08 00	 cmp	 DWORD PTR _en$[ebp], 0
  0004c	74 0a		 je	 SHORT $LN12@kill_clien
  0004e	8b 45 08	 mov	 eax, DWORD PTR _en$[ebp]
  00051	8b 08		 mov	 ecx, DWORD PTR [eax]
  00053	89 4d b0	 mov	 DWORD PTR tv80[ebp], ecx
  00056	eb 21		 jmp	 SHORT $LN13@kill_clien
$LN12@kill_clien:
  00058	8b 15 00 00 00
	00		 mov	 edx, DWORD PTR ?__LINE__Var@?0??kill_client_server_group_entity@@YGXPAUENTITY@@@Z@4JA
  0005e	83 c2 10	 add	 edx, 16			; 00000010H
  00061	52		 push	 edx
  00062	68 00 00 00 00	 push	 OFFSET ??_C@_0EJ@CCBIJPFD@c?3?2users?2nhv90?2projects?2eech?2ap@
  00067	a1 00 00 00 00	 mov	 eax, DWORD PTR ?null_entity_pointer_message@@3PBDB ; null_entity_pointer_message
  0006c	50		 push	 eax
  0006d	e8 00 00 00 00	 call	 ?process_assert@@YGXPBD0H@Z ; process_assert
  00072	c7 45 b0 00 00
	00 00		 mov	 DWORD PTR tv80[ebp], 0
$LN13@kill_clien:
  00079	b9 01 00 00 00	 mov	 ecx, 1
  0007e	85 c9		 test	 ecx, ecx
  00080	74 09		 je	 SHORT $LN14@kill_clien
  00082	c7 45 ac 11 00
	00 00		 mov	 DWORD PTR tv88[ebp], 17	; 00000011H
  00089	eb 21		 jmp	 SHORT $LN15@kill_clien
$LN14@kill_clien:
  0008b	8b 15 00 00 00
	00		 mov	 edx, DWORD PTR ?__LINE__Var@?0??kill_client_server_group_entity@@YGXPAUENTITY@@@Z@4JA
  00091	83 c2 10	 add	 edx, 16			; 00000010H
  00094	52		 push	 edx
  00095	68 00 00 00 00	 push	 OFFSET ??_C@_0EJ@CCBIJPFD@c?3?2users?2nhv90?2projects?2eech?2ap@
  0009a	a1 00 00 00 00	 mov	 eax, DWORD PTR ?overload_invalid_list_type_message@@3PBDB ; overload_invalid_list_type_message
  0009f	50		 push	 eax
  000a0	e8 00 00 00 00	 call	 ?process_assert@@YGXPBD0H@Z ; process_assert
  000a5	c7 45 ac 00 00
	00 00		 mov	 DWORD PTR tv88[ebp], 0
$LN15@kill_clien:
  000ac	6a 11		 push	 17			; 00000011H
  000ae	8b 4d 08	 mov	 ecx, DWORD PTR _en$[ebp]
  000b1	51		 push	 ecx
  000b2	69 55 b0 b4 00
	00 00		 imul	 edx, DWORD PTR tv80[ebp], 180
  000b9	8b 45 ac	 mov	 eax, DWORD PTR tv88[ebp]
  000bc	8b 8c 82 00 00
	00 00		 mov	 ecx, DWORD PTR ?fn_get_local_entity_first_child@@3PAY0CN@P6GPAUENTITY@@PAU1@W4LIST_TYPES@@@ZA[edx+eax*4]
  000c3	ff d1		 call	 ecx
  000c5	89 45 fc	 mov	 DWORD PTR _guide$[ebp], eax

; 1094 : 
; 1095 : 		if (guide)

  000c8	83 7d fc 00	 cmp	 DWORD PTR _guide$[ebp], 0
  000cc	74 12		 je	 SHORT $LN2@kill_clien

; 1096 : 		{
; 1097 : 			notify_local_entity (ENTITY_MESSAGE_GROUP_KILLED, guide, en);

  000ce	8b 45 08	 mov	 eax, DWORD PTR _en$[ebp]
  000d1	50		 push	 eax
  000d2	8b 4d fc	 mov	 ecx, DWORD PTR _guide$[ebp]
  000d5	51		 push	 ecx
  000d6	6a 1f		 push	 31			; 0000001fH
  000d8	e8 00 00 00 00	 call	 ?notify_local_entity@@YAHW4ENTITY_MESSAGES@@PAUENTITY@@1ZZ ; notify_local_entity
  000dd	83 c4 0c	 add	 esp, 12			; 0000000cH
$LN2@kill_clien:

; 1098 : 		}
; 1099 : 	}
; 1100 : 	while (guide);

  000e0	83 7d fc 00	 cmp	 DWORD PTR _guide$[ebp], 0
  000e4	0f 85 5e ff ff
	ff		 jne	 $LN4@kill_clien

; 1101 : 
; 1102 : 	//
; 1103 : 	// notify task dependents
; 1104 : 	//
; 1105 : 
; 1106 : 	task = get_local_entity_first_child (en, LIST_TYPE_TASK_DEPENDENT);

  000ea	83 7d 08 00	 cmp	 DWORD PTR _en$[ebp], 0
  000ee	74 0a		 je	 SHORT $LN16@kill_clien
  000f0	8b 45 08	 mov	 eax, DWORD PTR _en$[ebp]
  000f3	8b 08		 mov	 ecx, DWORD PTR [eax]
  000f5	89 4d b0	 mov	 DWORD PTR tv137[ebp], ecx
  000f8	eb 21		 jmp	 SHORT $LN17@kill_clien
$LN16@kill_clien:
  000fa	8b 15 00 00 00
	00		 mov	 edx, DWORD PTR ?__LINE__Var@?0??kill_client_server_group_entity@@YGXPAUENTITY@@@Z@4JA
  00100	83 c2 1d	 add	 edx, 29			; 0000001dH
  00103	52		 push	 edx
  00104	68 00 00 00 00	 push	 OFFSET ??_C@_0EJ@CCBIJPFD@c?3?2users?2nhv90?2projects?2eech?2ap@
  00109	a1 00 00 00 00	 mov	 eax, DWORD PTR ?null_entity_pointer_message@@3PBDB ; null_entity_pointer_message
  0010e	50		 push	 eax
  0010f	e8 00 00 00 00	 call	 ?process_assert@@YGXPBD0H@Z ; process_assert
  00114	c7 45 b0 00 00
	00 00		 mov	 DWORD PTR tv137[ebp], 0
$LN17@kill_clien:
  0011b	b9 01 00 00 00	 mov	 ecx, 1
  00120	85 c9		 test	 ecx, ecx
  00122	74 09		 je	 SHORT $LN18@kill_clien
  00124	c7 45 ac 27 00
	00 00		 mov	 DWORD PTR tv145[ebp], 39 ; 00000027H
  0012b	eb 21		 jmp	 SHORT $LN19@kill_clien
$LN18@kill_clien:
  0012d	8b 15 00 00 00
	00		 mov	 edx, DWORD PTR ?__LINE__Var@?0??kill_client_server_group_entity@@YGXPAUENTITY@@@Z@4JA
  00133	83 c2 1d	 add	 edx, 29			; 0000001dH
  00136	52		 push	 edx
  00137	68 00 00 00 00	 push	 OFFSET ??_C@_0EJ@CCBIJPFD@c?3?2users?2nhv90?2projects?2eech?2ap@
  0013c	a1 00 00 00 00	 mov	 eax, DWORD PTR ?overload_invalid_list_type_message@@3PBDB ; overload_invalid_list_type_message
  00141	50		 push	 eax
  00142	e8 00 00 00 00	 call	 ?process_assert@@YGXPBD0H@Z ; process_assert
  00147	c7 45 ac 00 00
	00 00		 mov	 DWORD PTR tv145[ebp], 0
$LN19@kill_clien:
  0014e	6a 27		 push	 39			; 00000027H
  00150	8b 4d 08	 mov	 ecx, DWORD PTR _en$[ebp]
  00153	51		 push	 ecx
  00154	69 55 b0 b4 00
	00 00		 imul	 edx, DWORD PTR tv137[ebp], 180
  0015b	8b 45 ac	 mov	 eax, DWORD PTR tv145[ebp]
  0015e	8b 8c 82 00 00
	00 00		 mov	 ecx, DWORD PTR ?fn_get_local_entity_first_child@@3PAY0CN@P6GPAUENTITY@@PAU1@W4LIST_TYPES@@@ZA[edx+eax*4]
  00165	ff d1		 call	 ecx
  00167	89 45 f8	 mov	 DWORD PTR _task$[ebp], eax
$LN5@kill_clien:

; 1107 : 
; 1108 : 	while (task)

  0016a	83 7d f8 00	 cmp	 DWORD PTR _task$[ebp], 0
  0016e	0f 84 a7 00 00
	00		 je	 $LN6@kill_clien

; 1109 : 	{
; 1110 : 		next = get_local_entity_child_succ (task, LIST_TYPE_TASK_DEPENDENT);

  00174	83 7d f8 00	 cmp	 DWORD PTR _task$[ebp], 0
  00178	74 0a		 je	 SHORT $LN20@kill_clien
  0017a	8b 45 f8	 mov	 eax, DWORD PTR _task$[ebp]
  0017d	8b 08		 mov	 ecx, DWORD PTR [eax]
  0017f	89 4d b0	 mov	 DWORD PTR tv158[ebp], ecx
  00182	eb 21		 jmp	 SHORT $LN21@kill_clien
$LN20@kill_clien:
  00184	8b 15 00 00 00
	00		 mov	 edx, DWORD PTR ?__LINE__Var@?0??kill_client_server_group_entity@@YGXPAUENTITY@@@Z@4JA
  0018a	83 c2 21	 add	 edx, 33			; 00000021H
  0018d	52		 push	 edx
  0018e	68 00 00 00 00	 push	 OFFSET ??_C@_0EJ@CCBIJPFD@c?3?2users?2nhv90?2projects?2eech?2ap@
  00193	a1 00 00 00 00	 mov	 eax, DWORD PTR ?null_entity_pointer_message@@3PBDB ; null_entity_pointer_message
  00198	50		 push	 eax
  00199	e8 00 00 00 00	 call	 ?process_assert@@YGXPBD0H@Z ; process_assert
  0019e	c7 45 b0 00 00
	00 00		 mov	 DWORD PTR tv158[ebp], 0
$LN21@kill_clien:
  001a5	b9 01 00 00 00	 mov	 ecx, 1
  001aa	85 c9		 test	 ecx, ecx
  001ac	74 09		 je	 SHORT $LN22@kill_clien
  001ae	c7 45 ac 27 00
	00 00		 mov	 DWORD PTR tv166[ebp], 39 ; 00000027H
  001b5	eb 21		 jmp	 SHORT $LN23@kill_clien
$LN22@kill_clien:
  001b7	8b 15 00 00 00
	00		 mov	 edx, DWORD PTR ?__LINE__Var@?0??kill_client_server_group_entity@@YGXPAUENTITY@@@Z@4JA
  001bd	83 c2 21	 add	 edx, 33			; 00000021H
  001c0	52		 push	 edx
  001c1	68 00 00 00 00	 push	 OFFSET ??_C@_0EJ@CCBIJPFD@c?3?2users?2nhv90?2projects?2eech?2ap@
  001c6	a1 00 00 00 00	 mov	 eax, DWORD PTR ?overload_invalid_list_type_message@@3PBDB ; overload_invalid_list_type_message
  001cb	50		 push	 eax
  001cc	e8 00 00 00 00	 call	 ?process_assert@@YGXPBD0H@Z ; process_assert
  001d1	c7 45 ac 00 00
	00 00		 mov	 DWORD PTR tv166[ebp], 0
$LN23@kill_clien:
  001d8	6a 27		 push	 39			; 00000027H
  001da	8b 4d f8	 mov	 ecx, DWORD PTR _task$[ebp]
  001dd	51		 push	 ecx
  001de	69 55 b0 b4 00
	00 00		 imul	 edx, DWORD PTR tv158[ebp], 180
  001e5	8b 45 ac	 mov	 eax, DWORD PTR tv166[ebp]
  001e8	8b 8c 82 00 00
	00 00		 mov	 ecx, DWORD PTR ?fn_get_local_entity_child_succ@@3PAY0CN@P6GPAUENTITY@@PAU1@W4LIST_TYPES@@@ZA[edx+eax*4]
  001ef	ff d1		 call	 ecx
  001f1	89 45 f4	 mov	 DWORD PTR _next$[ebp], eax

; 1111 : 
; 1112 : 		if (task->type == ENTITY_TYPE_TASK)

  001f4	8b 45 f8	 mov	 eax, DWORD PTR _task$[ebp]
  001f7	83 38 22	 cmp	 DWORD PTR [eax], 34	; 00000022H
  001fa	75 14		 jne	 SHORT $LN10@kill_clien

; 1113 : 		{
; 1114 : 			notify_local_entity (ENTITY_MESSAGE_TASK_COMPLETED, task, en, TASK_TERMINATED_OBJECTIVE_MESSAGE);

  001fc	6a 04		 push	 4
  001fe	8b 45 08	 mov	 eax, DWORD PTR _en$[ebp]
  00201	50		 push	 eax
  00202	8b 4d f8	 mov	 ecx, DWORD PTR _task$[ebp]
  00205	51		 push	 ecx
  00206	6a 32		 push	 50			; 00000032H
  00208	e8 00 00 00 00	 call	 ?notify_local_entity@@YAHW4ENTITY_MESSAGES@@PAUENTITY@@1ZZ ; notify_local_entity
  0020d	83 c4 10	 add	 esp, 16			; 00000010H
$LN10@kill_clien:

; 1115 : 		}
; 1116 : 
; 1117 : 		task = next;

  00210	8b 45 f4	 mov	 eax, DWORD PTR _next$[ebp]
  00213	89 45 f8	 mov	 DWORD PTR _task$[ebp], eax

; 1118 : 	}

  00216	e9 4f ff ff ff	 jmp	 $LN5@kill_clien
$LN6@kill_clien:

; 1119 : 
; 1120 : 	kill_client_server_entity (en);

  0021b	83 7d 08 00	 cmp	 DWORD PTR _en$[ebp], 0
  0021f	74 0a		 je	 SHORT $LN24@kill_clien
  00221	8b 45 08	 mov	 eax, DWORD PTR _en$[ebp]
  00224	8b 08		 mov	 ecx, DWORD PTR [eax]
  00226	89 4d b0	 mov	 DWORD PTR tv184[ebp], ecx
  00229	eb 21		 jmp	 SHORT $LN25@kill_clien
$LN24@kill_clien:
  0022b	8b 15 00 00 00
	00		 mov	 edx, DWORD PTR ?__LINE__Var@?0??kill_client_server_group_entity@@YGXPAUENTITY@@@Z@4JA
  00231	83 c2 2b	 add	 edx, 43			; 0000002bH
  00234	52		 push	 edx
  00235	68 00 00 00 00	 push	 OFFSET ??_C@_0EJ@CCBIJPFD@c?3?2users?2nhv90?2projects?2eech?2ap@
  0023a	a1 00 00 00 00	 mov	 eax, DWORD PTR ?null_entity_pointer_message@@3PBDB ; null_entity_pointer_message
  0023f	50		 push	 eax
  00240	e8 00 00 00 00	 call	 ?process_assert@@YGXPBD0H@Z ; process_assert
  00245	c7 45 b0 00 00
	00 00		 mov	 DWORD PTR tv184[ebp], 0
$LN25@kill_clien:
  0024c	8b 4d 08	 mov	 ecx, DWORD PTR _en$[ebp]
  0024f	51		 push	 ecx
  00250	8b 15 00 00 00
	00		 mov	 edx, DWORD PTR ?system_comms_model@@3W4COMMS_MODEL_TYPES@@A ; system_comms_model
  00256	c1 e2 02	 shl	 edx, 2
  00259	8b 45 b0	 mov	 eax, DWORD PTR tv184[ebp]
  0025c	8b 8c c2 00 00
	00 00		 mov	 ecx, DWORD PTR ?fn_kill_client_server_entity@@3PAY01P6GXPAUENTITY@@@ZA[edx+eax*8]
  00263	ff d1		 call	 ecx

; 1121 : }

  00265	5f		 pop	 edi
  00266	5e		 pop	 esi
  00267	5b		 pop	 ebx
  00268	8b e5		 mov	 esp, ebp
  0026a	5d		 pop	 ebp
  0026b	c2 04 00	 ret	 4
?kill_client_server_group_entity@@YGXPAUENTITY@@@Z ENDP	; kill_client_server_group_entity
_TEXT	ENDS
; Function compile flags: /Odtp /ZI
; File c:\users\nhv90\projects\eech\aphavoc\source\entity\special\group\group.c
;	COMDAT ?group_destroy_all_members@@YGXPAUENTITY@@@Z
_TEXT	SEGMENT
tv136 = -80						; size = 4
tv83 = -80						; size = 4
tv148 = -76						; size = 4
tv128 = -76						; size = 4
tv75 = -76						; size = 4
_member$ = -8						; size = 4
_next$ = -4						; size = 4
_en$ = 8						; size = 4
?group_destroy_all_members@@YGXPAUENTITY@@@Z PROC	; group_destroy_all_members, COMDAT

; 1043 : {

  00000	55		 push	 ebp
  00001	8b ec		 mov	 ebp, esp
  00003	83 ec 50	 sub	 esp, 80			; 00000050H
  00006	53		 push	 ebx
  00007	56		 push	 esi
  00008	57		 push	 edi

; 1044 : 	entity
; 1045 : 		*next,
; 1046 : 		*member;
; 1047 : 
; 1048 : 	ASSERT (get_comms_model () == COMMS_MODEL_SERVER);

  00009	83 3d 00 00 00
	00 00		 cmp	 DWORD PTR ?system_comms_model@@3W4COMMS_MODEL_TYPES@@A, 0 ; system_comms_model
  00010	74 18		 je	 SHORT $LN4@group_dest
  00012	a1 00 00 00 00	 mov	 eax, DWORD PTR ?__LINE__Var@?0??group_destroy_all_members@@YGXPAUENTITY@@@Z@4JA
  00017	83 c0 05	 add	 eax, 5
  0001a	50		 push	 eax
  0001b	68 00 00 00 00	 push	 OFFSET ??_C@_0EJ@CCBIJPFD@c?3?2users?2nhv90?2projects?2eech?2ap@
  00020	68 00 00 00 00	 push	 OFFSET ??_C@_0CJ@DMBLBJBK@get_comms_model?5?$CI?$CJ?5?$DN?$DN?5COMMS_MOD@
  00025	e8 00 00 00 00	 call	 ?process_assert@@YGXPBD0H@Z ; process_assert
$LN4@group_dest:

; 1049 : 
; 1050 : 	//
; 1051 : 	// DESTROY each member
; 1052 : 	//
; 1053 : 
; 1054 : 	member = get_local_entity_first_child (en, LIST_TYPE_MEMBER);

  0002a	83 7d 08 00	 cmp	 DWORD PTR _en$[ebp], 0
  0002e	74 0a		 je	 SHORT $LN6@group_dest
  00030	8b 45 08	 mov	 eax, DWORD PTR _en$[ebp]
  00033	8b 08		 mov	 ecx, DWORD PTR [eax]
  00035	89 4d b4	 mov	 DWORD PTR tv75[ebp], ecx
  00038	eb 21		 jmp	 SHORT $LN7@group_dest
$LN6@group_dest:
  0003a	8b 15 00 00 00
	00		 mov	 edx, DWORD PTR ?__LINE__Var@?0??group_destroy_all_members@@YGXPAUENTITY@@@Z@4JA
  00040	83 c2 0b	 add	 edx, 11			; 0000000bH
  00043	52		 push	 edx
  00044	68 00 00 00 00	 push	 OFFSET ??_C@_0EJ@CCBIJPFD@c?3?2users?2nhv90?2projects?2eech?2ap@
  00049	a1 00 00 00 00	 mov	 eax, DWORD PTR ?null_entity_pointer_message@@3PBDB ; null_entity_pointer_message
  0004e	50		 push	 eax
  0004f	e8 00 00 00 00	 call	 ?process_assert@@YGXPBD0H@Z ; process_assert
  00054	c7 45 b4 00 00
	00 00		 mov	 DWORD PTR tv75[ebp], 0
$LN7@group_dest:
  0005b	b9 01 00 00 00	 mov	 ecx, 1
  00060	85 c9		 test	 ecx, ecx
  00062	74 09		 je	 SHORT $LN8@group_dest
  00064	c7 45 b0 19 00
	00 00		 mov	 DWORD PTR tv83[ebp], 25	; 00000019H
  0006b	eb 21		 jmp	 SHORT $LN9@group_dest
$LN8@group_dest:
  0006d	8b 15 00 00 00
	00		 mov	 edx, DWORD PTR ?__LINE__Var@?0??group_destroy_all_members@@YGXPAUENTITY@@@Z@4JA
  00073	83 c2 0b	 add	 edx, 11			; 0000000bH
  00076	52		 push	 edx
  00077	68 00 00 00 00	 push	 OFFSET ??_C@_0EJ@CCBIJPFD@c?3?2users?2nhv90?2projects?2eech?2ap@
  0007c	a1 00 00 00 00	 mov	 eax, DWORD PTR ?overload_invalid_list_type_message@@3PBDB ; overload_invalid_list_type_message
  00081	50		 push	 eax
  00082	e8 00 00 00 00	 call	 ?process_assert@@YGXPBD0H@Z ; process_assert
  00087	c7 45 b0 00 00
	00 00		 mov	 DWORD PTR tv83[ebp], 0
$LN9@group_dest:
  0008e	6a 19		 push	 25			; 00000019H
  00090	8b 4d 08	 mov	 ecx, DWORD PTR _en$[ebp]
  00093	51		 push	 ecx
  00094	69 55 b4 b4 00
	00 00		 imul	 edx, DWORD PTR tv75[ebp], 180
  0009b	8b 45 b0	 mov	 eax, DWORD PTR tv83[ebp]
  0009e	8b 8c 82 00 00
	00 00		 mov	 ecx, DWORD PTR ?fn_get_local_entity_first_child@@3PAY0CN@P6GPAUENTITY@@PAU1@W4LIST_TYPES@@@ZA[edx+eax*4]
  000a5	ff d1		 call	 ecx
  000a7	89 45 f8	 mov	 DWORD PTR _member$[ebp], eax
$LN2@group_dest:

; 1055 : 
; 1056 : 	while (member)

  000aa	83 7d f8 00	 cmp	 DWORD PTR _member$[ebp], 0
  000ae	0f 84 d5 00 00
	00		 je	 $LN3@group_dest

; 1057 : 	{
; 1058 : 		next = get_local_entity_child_succ (member, LIST_TYPE_MEMBER);

  000b4	83 7d f8 00	 cmp	 DWORD PTR _member$[ebp], 0
  000b8	74 0a		 je	 SHORT $LN10@group_dest
  000ba	8b 45 f8	 mov	 eax, DWORD PTR _member$[ebp]
  000bd	8b 08		 mov	 ecx, DWORD PTR [eax]
  000bf	89 4d b4	 mov	 DWORD PTR tv128[ebp], ecx
  000c2	eb 21		 jmp	 SHORT $LN11@group_dest
$LN10@group_dest:
  000c4	8b 15 00 00 00
	00		 mov	 edx, DWORD PTR ?__LINE__Var@?0??group_destroy_all_members@@YGXPAUENTITY@@@Z@4JA
  000ca	83 c2 0f	 add	 edx, 15			; 0000000fH
  000cd	52		 push	 edx
  000ce	68 00 00 00 00	 push	 OFFSET ??_C@_0EJ@CCBIJPFD@c?3?2users?2nhv90?2projects?2eech?2ap@
  000d3	a1 00 00 00 00	 mov	 eax, DWORD PTR ?null_entity_pointer_message@@3PBDB ; null_entity_pointer_message
  000d8	50		 push	 eax
  000d9	e8 00 00 00 00	 call	 ?process_assert@@YGXPBD0H@Z ; process_assert
  000de	c7 45 b4 00 00
	00 00		 mov	 DWORD PTR tv128[ebp], 0
$LN11@group_dest:
  000e5	b9 01 00 00 00	 mov	 ecx, 1
  000ea	85 c9		 test	 ecx, ecx
  000ec	74 09		 je	 SHORT $LN12@group_dest
  000ee	c7 45 b0 19 00
	00 00		 mov	 DWORD PTR tv136[ebp], 25 ; 00000019H
  000f5	eb 21		 jmp	 SHORT $LN13@group_dest
$LN12@group_dest:
  000f7	8b 15 00 00 00
	00		 mov	 edx, DWORD PTR ?__LINE__Var@?0??group_destroy_all_members@@YGXPAUENTITY@@@Z@4JA
  000fd	83 c2 0f	 add	 edx, 15			; 0000000fH
  00100	52		 push	 edx
  00101	68 00 00 00 00	 push	 OFFSET ??_C@_0EJ@CCBIJPFD@c?3?2users?2nhv90?2projects?2eech?2ap@
  00106	a1 00 00 00 00	 mov	 eax, DWORD PTR ?overload_invalid_list_type_message@@3PBDB ; overload_invalid_list_type_message
  0010b	50		 push	 eax
  0010c	e8 00 00 00 00	 call	 ?process_assert@@YGXPBD0H@Z ; process_assert
  00111	c7 45 b0 00 00
	00 00		 mov	 DWORD PTR tv136[ebp], 0
$LN13@group_dest:
  00118	6a 19		 push	 25			; 00000019H
  0011a	8b 4d f8	 mov	 ecx, DWORD PTR _member$[ebp]
  0011d	51		 push	 ecx
  0011e	69 55 b4 b4 00
	00 00		 imul	 edx, DWORD PTR tv128[ebp], 180
  00125	8b 45 b0	 mov	 eax, DWORD PTR tv136[ebp]
  00128	8b 8c 82 00 00
	00 00		 mov	 ecx, DWORD PTR ?fn_get_local_entity_child_succ@@3PAY0CN@P6GPAUENTITY@@PAU1@W4LIST_TYPES@@@ZA[edx+eax*4]
  0012f	ff d1		 call	 ecx
  00131	89 45 fc	 mov	 DWORD PTR _next$[ebp], eax

; 1059 : 
; 1060 : 		destroy_client_server_entity (member);

  00134	83 7d f8 00	 cmp	 DWORD PTR _member$[ebp], 0
  00138	74 0a		 je	 SHORT $LN14@group_dest
  0013a	8b 45 f8	 mov	 eax, DWORD PTR _member$[ebp]
  0013d	8b 08		 mov	 ecx, DWORD PTR [eax]
  0013f	89 4d b4	 mov	 DWORD PTR tv148[ebp], ecx
  00142	eb 21		 jmp	 SHORT $LN15@group_dest
$LN14@group_dest:
  00144	8b 15 00 00 00
	00		 mov	 edx, DWORD PTR ?__LINE__Var@?0??group_destroy_all_members@@YGXPAUENTITY@@@Z@4JA
  0014a	83 c2 11	 add	 edx, 17			; 00000011H
  0014d	52		 push	 edx
  0014e	68 00 00 00 00	 push	 OFFSET ??_C@_0EJ@CCBIJPFD@c?3?2users?2nhv90?2projects?2eech?2ap@
  00153	a1 00 00 00 00	 mov	 eax, DWORD PTR ?null_entity_pointer_message@@3PBDB ; null_entity_pointer_message
  00158	50		 push	 eax
  00159	e8 00 00 00 00	 call	 ?process_assert@@YGXPBD0H@Z ; process_assert
  0015e	c7 45 b4 00 00
	00 00		 mov	 DWORD PTR tv148[ebp], 0
$LN15@group_dest:
  00165	8b 4d f8	 mov	 ecx, DWORD PTR _member$[ebp]
  00168	51		 push	 ecx
  00169	8b 15 00 00 00
	00		 mov	 edx, DWORD PTR ?system_comms_model@@3W4COMMS_MODEL_TYPES@@A ; system_comms_model
  0016f	c1 e2 02	 shl	 edx, 2
  00172	8b 45 b4	 mov	 eax, DWORD PTR tv148[ebp]
  00175	8b 8c c2 00 00
	00 00		 mov	 ecx, DWORD PTR ?fn_destroy_client_server_entity@@3PAY01P6GXPAUENTITY@@@ZA[edx+eax*8]
  0017c	ff d1		 call	 ecx

; 1061 : 
; 1062 : 		member = next;

  0017e	8b 45 fc	 mov	 eax, DWORD PTR _next$[ebp]
  00181	89 45 f8	 mov	 DWORD PTR _member$[ebp], eax

; 1063 : 	}

  00184	e9 21 ff ff ff	 jmp	 $LN2@group_dest
$LN3@group_dest:

; 1064 : 
; 1065 : 	//
; 1066 : 	// Must also KILL the group
; 1067 : 	//
; 1068 : 
; 1069 : 	kill_client_server_group_entity (en);

  00189	8b 45 08	 mov	 eax, DWORD PTR _en$[ebp]
  0018c	50		 push	 eax
  0018d	e8 00 00 00 00	 call	 ?kill_client_server_group_entity@@YGXPAUENTITY@@@Z ; kill_client_server_group_entity

; 1070 : }

  00192	5f		 pop	 edi
  00193	5e		 pop	 esi
  00194	5b		 pop	 ebx
  00195	8b e5		 mov	 esp, ebp
  00197	5d		 pop	 ebp
  00198	c2 04 00	 ret	 4
?group_destroy_all_members@@YGXPAUENTITY@@@Z ENDP	; group_destroy_all_members
_TEXT	ENDS
; Function compile flags: /Odtp /ZI
; File c:\users\nhv90\projects\eech\aphavoc\source\entity\special\group\group.c
;	COMDAT ?group_kill_all_members@@YGXPAUENTITY@@@Z
_TEXT	SEGMENT
tv136 = -80						; size = 4
tv83 = -80						; size = 4
tv148 = -76						; size = 4
tv128 = -76						; size = 4
tv75 = -76						; size = 4
_member$ = -8						; size = 4
_next$ = -4						; size = 4
_en$ = 8						; size = 4
?group_kill_all_members@@YGXPAUENTITY@@@Z PROC		; group_kill_all_members, COMDAT

; 1019 : {

  00000	55		 push	 ebp
  00001	8b ec		 mov	 ebp, esp
  00003	83 ec 50	 sub	 esp, 80			; 00000050H
  00006	53		 push	 ebx
  00007	56		 push	 esi
  00008	57		 push	 edi

; 1020 : 	entity
; 1021 : 		*next,
; 1022 : 		*member;
; 1023 : 
; 1024 : 	ASSERT (get_comms_model () == COMMS_MODEL_SERVER);

  00009	83 3d 00 00 00
	00 00		 cmp	 DWORD PTR ?system_comms_model@@3W4COMMS_MODEL_TYPES@@A, 0 ; system_comms_model
  00010	74 18		 je	 SHORT $LN4@group_kill
  00012	a1 00 00 00 00	 mov	 eax, DWORD PTR ?__LINE__Var@?0??group_kill_all_members@@YGXPAUENTITY@@@Z@4JA
  00017	83 c0 05	 add	 eax, 5
  0001a	50		 push	 eax
  0001b	68 00 00 00 00	 push	 OFFSET ??_C@_0EJ@CCBIJPFD@c?3?2users?2nhv90?2projects?2eech?2ap@
  00020	68 00 00 00 00	 push	 OFFSET ??_C@_0CJ@DMBLBJBK@get_comms_model?5?$CI?$CJ?5?$DN?$DN?5COMMS_MOD@
  00025	e8 00 00 00 00	 call	 ?process_assert@@YGXPBD0H@Z ; process_assert
$LN4@group_kill:

; 1025 : 
; 1026 : 	member = get_local_entity_first_child (en, LIST_TYPE_MEMBER);

  0002a	83 7d 08 00	 cmp	 DWORD PTR _en$[ebp], 0
  0002e	74 0a		 je	 SHORT $LN6@group_kill
  00030	8b 45 08	 mov	 eax, DWORD PTR _en$[ebp]
  00033	8b 08		 mov	 ecx, DWORD PTR [eax]
  00035	89 4d b4	 mov	 DWORD PTR tv75[ebp], ecx
  00038	eb 21		 jmp	 SHORT $LN7@group_kill
$LN6@group_kill:
  0003a	8b 15 00 00 00
	00		 mov	 edx, DWORD PTR ?__LINE__Var@?0??group_kill_all_members@@YGXPAUENTITY@@@Z@4JA
  00040	83 c2 07	 add	 edx, 7
  00043	52		 push	 edx
  00044	68 00 00 00 00	 push	 OFFSET ??_C@_0EJ@CCBIJPFD@c?3?2users?2nhv90?2projects?2eech?2ap@
  00049	a1 00 00 00 00	 mov	 eax, DWORD PTR ?null_entity_pointer_message@@3PBDB ; null_entity_pointer_message
  0004e	50		 push	 eax
  0004f	e8 00 00 00 00	 call	 ?process_assert@@YGXPBD0H@Z ; process_assert
  00054	c7 45 b4 00 00
	00 00		 mov	 DWORD PTR tv75[ebp], 0
$LN7@group_kill:
  0005b	b9 01 00 00 00	 mov	 ecx, 1
  00060	85 c9		 test	 ecx, ecx
  00062	74 09		 je	 SHORT $LN8@group_kill
  00064	c7 45 b0 19 00
	00 00		 mov	 DWORD PTR tv83[ebp], 25	; 00000019H
  0006b	eb 21		 jmp	 SHORT $LN9@group_kill
$LN8@group_kill:
  0006d	8b 15 00 00 00
	00		 mov	 edx, DWORD PTR ?__LINE__Var@?0??group_kill_all_members@@YGXPAUENTITY@@@Z@4JA
  00073	83 c2 07	 add	 edx, 7
  00076	52		 push	 edx
  00077	68 00 00 00 00	 push	 OFFSET ??_C@_0EJ@CCBIJPFD@c?3?2users?2nhv90?2projects?2eech?2ap@
  0007c	a1 00 00 00 00	 mov	 eax, DWORD PTR ?overload_invalid_list_type_message@@3PBDB ; overload_invalid_list_type_message
  00081	50		 push	 eax
  00082	e8 00 00 00 00	 call	 ?process_assert@@YGXPBD0H@Z ; process_assert
  00087	c7 45 b0 00 00
	00 00		 mov	 DWORD PTR tv83[ebp], 0
$LN9@group_kill:
  0008e	6a 19		 push	 25			; 00000019H
  00090	8b 4d 08	 mov	 ecx, DWORD PTR _en$[ebp]
  00093	51		 push	 ecx
  00094	69 55 b4 b4 00
	00 00		 imul	 edx, DWORD PTR tv75[ebp], 180
  0009b	8b 45 b0	 mov	 eax, DWORD PTR tv83[ebp]
  0009e	8b 8c 82 00 00
	00 00		 mov	 ecx, DWORD PTR ?fn_get_local_entity_first_child@@3PAY0CN@P6GPAUENTITY@@PAU1@W4LIST_TYPES@@@ZA[edx+eax*4]
  000a5	ff d1		 call	 ecx
  000a7	89 45 f8	 mov	 DWORD PTR _member$[ebp], eax
$LN2@group_kill:

; 1027 : 
; 1028 : 	while (member)

  000aa	83 7d f8 00	 cmp	 DWORD PTR _member$[ebp], 0
  000ae	0f 84 d5 00 00
	00		 je	 $LN1@group_kill

; 1029 : 	{
; 1030 : 		next = get_local_entity_child_succ (member, LIST_TYPE_MEMBER);

  000b4	83 7d f8 00	 cmp	 DWORD PTR _member$[ebp], 0
  000b8	74 0a		 je	 SHORT $LN10@group_kill
  000ba	8b 45 f8	 mov	 eax, DWORD PTR _member$[ebp]
  000bd	8b 08		 mov	 ecx, DWORD PTR [eax]
  000bf	89 4d b4	 mov	 DWORD PTR tv128[ebp], ecx
  000c2	eb 21		 jmp	 SHORT $LN11@group_kill
$LN10@group_kill:
  000c4	8b 15 00 00 00
	00		 mov	 edx, DWORD PTR ?__LINE__Var@?0??group_kill_all_members@@YGXPAUENTITY@@@Z@4JA
  000ca	83 c2 0b	 add	 edx, 11			; 0000000bH
  000cd	52		 push	 edx
  000ce	68 00 00 00 00	 push	 OFFSET ??_C@_0EJ@CCBIJPFD@c?3?2users?2nhv90?2projects?2eech?2ap@
  000d3	a1 00 00 00 00	 mov	 eax, DWORD PTR ?null_entity_pointer_message@@3PBDB ; null_entity_pointer_message
  000d8	50		 push	 eax
  000d9	e8 00 00 00 00	 call	 ?process_assert@@YGXPBD0H@Z ; process_assert
  000de	c7 45 b4 00 00
	00 00		 mov	 DWORD PTR tv128[ebp], 0
$LN11@group_kill:
  000e5	b9 01 00 00 00	 mov	 ecx, 1
  000ea	85 c9		 test	 ecx, ecx
  000ec	74 09		 je	 SHORT $LN12@group_kill
  000ee	c7 45 b0 19 00
	00 00		 mov	 DWORD PTR tv136[ebp], 25 ; 00000019H
  000f5	eb 21		 jmp	 SHORT $LN13@group_kill
$LN12@group_kill:
  000f7	8b 15 00 00 00
	00		 mov	 edx, DWORD PTR ?__LINE__Var@?0??group_kill_all_members@@YGXPAUENTITY@@@Z@4JA
  000fd	83 c2 0b	 add	 edx, 11			; 0000000bH
  00100	52		 push	 edx
  00101	68 00 00 00 00	 push	 OFFSET ??_C@_0EJ@CCBIJPFD@c?3?2users?2nhv90?2projects?2eech?2ap@
  00106	a1 00 00 00 00	 mov	 eax, DWORD PTR ?overload_invalid_list_type_message@@3PBDB ; overload_invalid_list_type_message
  0010b	50		 push	 eax
  0010c	e8 00 00 00 00	 call	 ?process_assert@@YGXPBD0H@Z ; process_assert
  00111	c7 45 b0 00 00
	00 00		 mov	 DWORD PTR tv136[ebp], 0
$LN13@group_kill:
  00118	6a 19		 push	 25			; 00000019H
  0011a	8b 4d f8	 mov	 ecx, DWORD PTR _member$[ebp]
  0011d	51		 push	 ecx
  0011e	69 55 b4 b4 00
	00 00		 imul	 edx, DWORD PTR tv128[ebp], 180
  00125	8b 45 b0	 mov	 eax, DWORD PTR tv136[ebp]
  00128	8b 8c 82 00 00
	00 00		 mov	 ecx, DWORD PTR ?fn_get_local_entity_child_succ@@3PAY0CN@P6GPAUENTITY@@PAU1@W4LIST_TYPES@@@ZA[edx+eax*4]
  0012f	ff d1		 call	 ecx
  00131	89 45 fc	 mov	 DWORD PTR _next$[ebp], eax

; 1031 : 
; 1032 : 		kill_client_server_entity (member);

  00134	83 7d f8 00	 cmp	 DWORD PTR _member$[ebp], 0
  00138	74 0a		 je	 SHORT $LN14@group_kill
  0013a	8b 45 f8	 mov	 eax, DWORD PTR _member$[ebp]
  0013d	8b 08		 mov	 ecx, DWORD PTR [eax]
  0013f	89 4d b4	 mov	 DWORD PTR tv148[ebp], ecx
  00142	eb 21		 jmp	 SHORT $LN15@group_kill
$LN14@group_kill:
  00144	8b 15 00 00 00
	00		 mov	 edx, DWORD PTR ?__LINE__Var@?0??group_kill_all_members@@YGXPAUENTITY@@@Z@4JA
  0014a	83 c2 0d	 add	 edx, 13			; 0000000dH
  0014d	52		 push	 edx
  0014e	68 00 00 00 00	 push	 OFFSET ??_C@_0EJ@CCBIJPFD@c?3?2users?2nhv90?2projects?2eech?2ap@
  00153	a1 00 00 00 00	 mov	 eax, DWORD PTR ?null_entity_pointer_message@@3PBDB ; null_entity_pointer_message
  00158	50		 push	 eax
  00159	e8 00 00 00 00	 call	 ?process_assert@@YGXPBD0H@Z ; process_assert
  0015e	c7 45 b4 00 00
	00 00		 mov	 DWORD PTR tv148[ebp], 0
$LN15@group_kill:
  00165	8b 4d f8	 mov	 ecx, DWORD PTR _member$[ebp]
  00168	51		 push	 ecx
  00169	8b 15 00 00 00
	00		 mov	 edx, DWORD PTR ?system_comms_model@@3W4COMMS_MODEL_TYPES@@A ; system_comms_model
  0016f	c1 e2 02	 shl	 edx, 2
  00172	8b 45 b4	 mov	 eax, DWORD PTR tv148[ebp]
  00175	8b 8c c2 00 00
	00 00		 mov	 ecx, DWORD PTR ?fn_kill_client_server_entity@@3PAY01P6GXPAUENTITY@@@ZA[edx+eax*8]
  0017c	ff d1		 call	 ecx

; 1033 : 
; 1034 : 		member = next;

  0017e	8b 45 fc	 mov	 eax, DWORD PTR _next$[ebp]
  00181	89 45 f8	 mov	 DWORD PTR _member$[ebp], eax

; 1035 : 	}

  00184	e9 21 ff ff ff	 jmp	 $LN2@group_kill
$LN1@group_kill:

; 1036 : }

  00189	5f		 pop	 edi
  0018a	5e		 pop	 esi
  0018b	5b		 pop	 ebx
  0018c	8b e5		 mov	 esp, ebp
  0018e	5d		 pop	 ebp
  0018f	c2 04 00	 ret	 4
?group_kill_all_members@@YGXPAUENTITY@@@Z ENDP		; group_kill_all_members
_TEXT	ENDS
; Function compile flags: /Odtp /ZI
; File c:\users\nhv90\projects\eech\aphavoc\source\entity\special\group\group.c
;	COMDAT ?group_terminate_all_tasks@@YGXPAUENTITY@@@Z
_TEXT	SEGMENT
tv167 = -84						; size = 4
tv142 = -84						; size = 4
tv89 = -84						; size = 4
tv185 = -80						; size = 4
tv159 = -80						; size = 4
tv134 = -80						; size = 4
tv81 = -80						; size = 4
_task_type$ = -12					; size = 4
_guide$ = -8						; size = 4
_task$ = -4						; size = 4
_en$ = 8						; size = 4
?group_terminate_all_tasks@@YGXPAUENTITY@@@Z PROC	; group_terminate_all_tasks, COMDAT

; 975  : {

  00000	55		 push	 ebp
  00001	8b ec		 mov	 ebp, esp
  00003	83 ec 54	 sub	 esp, 84			; 00000054H
  00006	53		 push	 ebx
  00007	56		 push	 esi
  00008	57		 push	 edi

; 976  : 	entity
; 977  : 		*task,
; 978  : 		*guide;
; 979  : 
; 980  : 	int
; 981  : 		task_type;
; 982  : 
; 983  : 	ASSERT (en);

  00009	83 7d 08 00	 cmp	 DWORD PTR _en$[ebp], 0
  0000d	75 18		 jne	 SHORT $LN5@group_term
  0000f	a1 00 00 00 00	 mov	 eax, DWORD PTR ?__LINE__Var@?0??group_terminate_all_tasks@@YGXPAUENTITY@@@Z@4JA
  00014	83 c0 08	 add	 eax, 8
  00017	50		 push	 eax
  00018	68 00 00 00 00	 push	 OFFSET ??_C@_0EJ@CCBIJPFD@c?3?2users?2nhv90?2projects?2eech?2ap@
  0001d	68 00 00 00 00	 push	 OFFSET ??_C@_02LFNMGJAP@en@
  00022	e8 00 00 00 00	 call	 ?process_assert@@YGXPBD0H@Z ; process_assert
$LN5@group_term:

; 984  : 
; 985  : 	ASSERT (get_comms_model () == COMMS_MODEL_SERVER);

  00027	83 3d 00 00 00
	00 00		 cmp	 DWORD PTR ?system_comms_model@@3W4COMMS_MODEL_TYPES@@A, 0 ; system_comms_model
  0002e	74 18		 je	 SHORT $LN6@group_term
  00030	a1 00 00 00 00	 mov	 eax, DWORD PTR ?__LINE__Var@?0??group_terminate_all_tasks@@YGXPAUENTITY@@@Z@4JA
  00035	83 c0 0a	 add	 eax, 10			; 0000000aH
  00038	50		 push	 eax
  00039	68 00 00 00 00	 push	 OFFSET ??_C@_0EJ@CCBIJPFD@c?3?2users?2nhv90?2projects?2eech?2ap@
  0003e	68 00 00 00 00	 push	 OFFSET ??_C@_0CJ@DMBLBJBK@get_comms_model?5?$CI?$CJ?5?$DN?$DN?5COMMS_MOD@
  00043	e8 00 00 00 00	 call	 ?process_assert@@YGXPBD0H@Z ; process_assert
$LN6@group_term:

; 986  : 
; 987  : 	terminate_all_engage_tasks (en);

  00048	8b 45 08	 mov	 eax, DWORD PTR _en$[ebp]
  0004b	50		 push	 eax
  0004c	e8 00 00 00 00	 call	 ?terminate_all_engage_tasks@@YGXPAUENTITY@@@Z ; terminate_all_engage_tasks
$LN4@group_term:

; 988  : 
; 989  : 	do
; 990  : 	{
; 991  : 		guide = get_local_entity_first_child (en, LIST_TYPE_GUIDE_STACK);

  00051	83 7d 08 00	 cmp	 DWORD PTR _en$[ebp], 0
  00055	74 0a		 je	 SHORT $LN12@group_term
  00057	8b 45 08	 mov	 eax, DWORD PTR _en$[ebp]
  0005a	8b 08		 mov	 ecx, DWORD PTR [eax]
  0005c	89 4d b0	 mov	 DWORD PTR tv81[ebp], ecx
  0005f	eb 21		 jmp	 SHORT $LN13@group_term
$LN12@group_term:
  00061	8b 15 00 00 00
	00		 mov	 edx, DWORD PTR ?__LINE__Var@?0??group_terminate_all_tasks@@YGXPAUENTITY@@@Z@4JA
  00067	83 c2 10	 add	 edx, 16			; 00000010H
  0006a	52		 push	 edx
  0006b	68 00 00 00 00	 push	 OFFSET ??_C@_0EJ@CCBIJPFD@c?3?2users?2nhv90?2projects?2eech?2ap@
  00070	a1 00 00 00 00	 mov	 eax, DWORD PTR ?null_entity_pointer_message@@3PBDB ; null_entity_pointer_message
  00075	50		 push	 eax
  00076	e8 00 00 00 00	 call	 ?process_assert@@YGXPBD0H@Z ; process_assert
  0007b	c7 45 b0 00 00
	00 00		 mov	 DWORD PTR tv81[ebp], 0
$LN13@group_term:
  00082	b9 01 00 00 00	 mov	 ecx, 1
  00087	85 c9		 test	 ecx, ecx
  00089	74 09		 je	 SHORT $LN14@group_term
  0008b	c7 45 ac 11 00
	00 00		 mov	 DWORD PTR tv89[ebp], 17	; 00000011H
  00092	eb 21		 jmp	 SHORT $LN15@group_term
$LN14@group_term:
  00094	8b 15 00 00 00
	00		 mov	 edx, DWORD PTR ?__LINE__Var@?0??group_terminate_all_tasks@@YGXPAUENTITY@@@Z@4JA
  0009a	83 c2 10	 add	 edx, 16			; 00000010H
  0009d	52		 push	 edx
  0009e	68 00 00 00 00	 push	 OFFSET ??_C@_0EJ@CCBIJPFD@c?3?2users?2nhv90?2projects?2eech?2ap@
  000a3	a1 00 00 00 00	 mov	 eax, DWORD PTR ?overload_invalid_list_type_message@@3PBDB ; overload_invalid_list_type_message
  000a8	50		 push	 eax
  000a9	e8 00 00 00 00	 call	 ?process_assert@@YGXPBD0H@Z ; process_assert
  000ae	c7 45 ac 00 00
	00 00		 mov	 DWORD PTR tv89[ebp], 0
$LN15@group_term:
  000b5	6a 11		 push	 17			; 00000011H
  000b7	8b 4d 08	 mov	 ecx, DWORD PTR _en$[ebp]
  000ba	51		 push	 ecx
  000bb	69 55 b0 b4 00
	00 00		 imul	 edx, DWORD PTR tv81[ebp], 180
  000c2	8b 45 ac	 mov	 eax, DWORD PTR tv89[ebp]
  000c5	8b 8c 82 00 00
	00 00		 mov	 ecx, DWORD PTR ?fn_get_local_entity_first_child@@3PAY0CN@P6GPAUENTITY@@PAU1@W4LIST_TYPES@@@ZA[edx+eax*4]
  000cc	ff d1		 call	 ecx
  000ce	89 45 f8	 mov	 DWORD PTR _guide$[ebp], eax

; 992  : 
; 993  : 		if (guide)

  000d1	83 7d f8 00	 cmp	 DWORD PTR _guide$[ebp], 0
  000d5	0f 84 8e 01 00
	00		 je	 $LN2@group_term

; 994  : 		{
; 995  : 			task = get_local_entity_parent (guide, LIST_TYPE_GUIDE);

  000db	83 7d f8 00	 cmp	 DWORD PTR _guide$[ebp], 0
  000df	74 0a		 je	 SHORT $LN16@group_term
  000e1	8b 45 f8	 mov	 eax, DWORD PTR _guide$[ebp]
  000e4	8b 08		 mov	 ecx, DWORD PTR [eax]
  000e6	89 4d b0	 mov	 DWORD PTR tv134[ebp], ecx
  000e9	eb 21		 jmp	 SHORT $LN17@group_term
$LN16@group_term:
  000eb	8b 15 00 00 00
	00		 mov	 edx, DWORD PTR ?__LINE__Var@?0??group_terminate_all_tasks@@YGXPAUENTITY@@@Z@4JA
  000f1	83 c2 14	 add	 edx, 20			; 00000014H
  000f4	52		 push	 edx
  000f5	68 00 00 00 00	 push	 OFFSET ??_C@_0EJ@CCBIJPFD@c?3?2users?2nhv90?2projects?2eech?2ap@
  000fa	a1 00 00 00 00	 mov	 eax, DWORD PTR ?null_entity_pointer_message@@3PBDB ; null_entity_pointer_message
  000ff	50		 push	 eax
  00100	e8 00 00 00 00	 call	 ?process_assert@@YGXPBD0H@Z ; process_assert
  00105	c7 45 b0 00 00
	00 00		 mov	 DWORD PTR tv134[ebp], 0
$LN17@group_term:
  0010c	b9 01 00 00 00	 mov	 ecx, 1
  00111	85 c9		 test	 ecx, ecx
  00113	74 09		 je	 SHORT $LN18@group_term
  00115	c7 45 ac 10 00
	00 00		 mov	 DWORD PTR tv142[ebp], 16 ; 00000010H
  0011c	eb 21		 jmp	 SHORT $LN19@group_term
$LN18@group_term:
  0011e	8b 15 00 00 00
	00		 mov	 edx, DWORD PTR ?__LINE__Var@?0??group_terminate_all_tasks@@YGXPAUENTITY@@@Z@4JA
  00124	83 c2 14	 add	 edx, 20			; 00000014H
  00127	52		 push	 edx
  00128	68 00 00 00 00	 push	 OFFSET ??_C@_0EJ@CCBIJPFD@c?3?2users?2nhv90?2projects?2eech?2ap@
  0012d	a1 00 00 00 00	 mov	 eax, DWORD PTR ?overload_invalid_list_type_message@@3PBDB ; overload_invalid_list_type_message
  00132	50		 push	 eax
  00133	e8 00 00 00 00	 call	 ?process_assert@@YGXPBD0H@Z ; process_assert
  00138	c7 45 ac 00 00
	00 00		 mov	 DWORD PTR tv142[ebp], 0
$LN19@group_term:
  0013f	6a 10		 push	 16			; 00000010H
  00141	8b 4d f8	 mov	 ecx, DWORD PTR _guide$[ebp]
  00144	51		 push	 ecx
  00145	69 55 b0 b4 00
	00 00		 imul	 edx, DWORD PTR tv134[ebp], 180
  0014c	8b 45 ac	 mov	 eax, DWORD PTR tv142[ebp]
  0014f	8b 8c 82 00 00
	00 00		 mov	 ecx, DWORD PTR ?fn_get_local_entity_parent@@3PAY0CN@P6GPAUENTITY@@PAU1@W4LIST_TYPES@@@ZA[edx+eax*4]
  00156	ff d1		 call	 ecx
  00158	89 45 fc	 mov	 DWORD PTR _task$[ebp], eax

; 996  : 
; 997  : 			ASSERT (task);

  0015b	83 7d fc 00	 cmp	 DWORD PTR _task$[ebp], 0
  0015f	75 18		 jne	 SHORT $LN8@group_term
  00161	a1 00 00 00 00	 mov	 eax, DWORD PTR ?__LINE__Var@?0??group_terminate_all_tasks@@YGXPAUENTITY@@@Z@4JA
  00166	83 c0 16	 add	 eax, 22			; 00000016H
  00169	50		 push	 eax
  0016a	68 00 00 00 00	 push	 OFFSET ??_C@_0EJ@CCBIJPFD@c?3?2users?2nhv90?2projects?2eech?2ap@
  0016f	68 00 00 00 00	 push	 OFFSET ??_C@_04GGKLLKOO@task@
  00174	e8 00 00 00 00	 call	 ?process_assert@@YGXPBD0H@Z ; process_assert
$LN8@group_term:

; 998  : 
; 999  : 			task_type = get_local_entity_int_value (task, INT_TYPE_ENTITY_SUB_TYPE);

  00179	83 7d fc 00	 cmp	 DWORD PTR _task$[ebp], 0
  0017d	74 0a		 je	 SHORT $LN20@group_term
  0017f	8b 45 fc	 mov	 eax, DWORD PTR _task$[ebp]
  00182	8b 08		 mov	 ecx, DWORD PTR [eax]
  00184	89 4d b0	 mov	 DWORD PTR tv159[ebp], ecx
  00187	eb 21		 jmp	 SHORT $LN21@group_term
$LN20@group_term:
  00189	8b 15 00 00 00
	00		 mov	 edx, DWORD PTR ?__LINE__Var@?0??group_terminate_all_tasks@@YGXPAUENTITY@@@Z@4JA
  0018f	83 c2 18	 add	 edx, 24			; 00000018H
  00192	52		 push	 edx
  00193	68 00 00 00 00	 push	 OFFSET ??_C@_0EJ@CCBIJPFD@c?3?2users?2nhv90?2projects?2eech?2ap@
  00198	a1 00 00 00 00	 mov	 eax, DWORD PTR ?null_entity_pointer_message@@3PBDB ; null_entity_pointer_message
  0019d	50		 push	 eax
  0019e	e8 00 00 00 00	 call	 ?process_assert@@YGXPBD0H@Z ; process_assert
  001a3	c7 45 b0 00 00
	00 00		 mov	 DWORD PTR tv159[ebp], 0
$LN21@group_term:
  001aa	b9 01 00 00 00	 mov	 ecx, 1
  001af	85 c9		 test	 ecx, ecx
  001b1	74 09		 je	 SHORT $LN22@group_term
  001b3	c7 45 ac 34 00
	00 00		 mov	 DWORD PTR tv167[ebp], 52 ; 00000034H
  001ba	eb 21		 jmp	 SHORT $LN23@group_term
$LN22@group_term:
  001bc	8b 15 00 00 00
	00		 mov	 edx, DWORD PTR ?__LINE__Var@?0??group_terminate_all_tasks@@YGXPAUENTITY@@@Z@4JA
  001c2	83 c2 18	 add	 edx, 24			; 00000018H
  001c5	52		 push	 edx
  001c6	68 00 00 00 00	 push	 OFFSET ??_C@_0EJ@CCBIJPFD@c?3?2users?2nhv90?2projects?2eech?2ap@
  001cb	a1 00 00 00 00	 mov	 eax, DWORD PTR ?overload_invalid_int_type_message@@3PBDB ; overload_invalid_int_type_message
  001d0	50		 push	 eax
  001d1	e8 00 00 00 00	 call	 ?process_assert@@YGXPBD0H@Z ; process_assert
  001d6	c7 45 ac 00 00
	00 00		 mov	 DWORD PTR tv167[ebp], 0
$LN23@group_term:
  001dd	6a 34		 push	 52			; 00000034H
  001df	8b 4d fc	 mov	 ecx, DWORD PTR _task$[ebp]
  001e2	51		 push	 ecx
  001e3	69 55 b0 5c 04
	00 00		 imul	 edx, DWORD PTR tv159[ebp], 1116
  001ea	8b 45 ac	 mov	 eax, DWORD PTR tv167[ebp]
  001ed	8b 8c 82 00 00
	00 00		 mov	 ecx, DWORD PTR ?fn_get_local_entity_int_value@@3PAY0BBH@P6GHPAUENTITY@@W4INT_TYPES@@@ZA[edx+eax*4]
  001f4	ff d1		 call	 ecx
  001f6	89 45 f4	 mov	 DWORD PTR _task_type$[ebp], eax

; 1000 : 
; 1001 : 			if (task_database [task_type].persistent_task)

  001f9	6b 45 f4 50	 imul	 eax, DWORD PTR _task_type$[ebp], 80
  001fd	8b 88 28 00 00
	00		 mov	 ecx, DWORD PTR ?task_database@@3PAUTASK_DATA@@A[eax+40]
  00203	c1 e9 03	 shr	 ecx, 3
  00206	83 e1 01	 and	 ecx, 1
  00209	74 4c		 je	 SHORT $LN9@group_term

; 1002 : 			{
; 1003 : 				destroy_client_server_entity (guide);

  0020b	83 7d f8 00	 cmp	 DWORD PTR _guide$[ebp], 0
  0020f	74 0a		 je	 SHORT $LN24@group_term
  00211	8b 45 f8	 mov	 eax, DWORD PTR _guide$[ebp]
  00214	8b 08		 mov	 ecx, DWORD PTR [eax]
  00216	89 4d b0	 mov	 DWORD PTR tv185[ebp], ecx
  00219	eb 21		 jmp	 SHORT $LN25@group_term
$LN24@group_term:
  0021b	8b 15 00 00 00
	00		 mov	 edx, DWORD PTR ?__LINE__Var@?0??group_terminate_all_tasks@@YGXPAUENTITY@@@Z@4JA
  00221	83 c2 1c	 add	 edx, 28			; 0000001cH
  00224	52		 push	 edx
  00225	68 00 00 00 00	 push	 OFFSET ??_C@_0EJ@CCBIJPFD@c?3?2users?2nhv90?2projects?2eech?2ap@
  0022a	a1 00 00 00 00	 mov	 eax, DWORD PTR ?null_entity_pointer_message@@3PBDB ; null_entity_pointer_message
  0022f	50		 push	 eax
  00230	e8 00 00 00 00	 call	 ?process_assert@@YGXPBD0H@Z ; process_assert
  00235	c7 45 b0 00 00
	00 00		 mov	 DWORD PTR tv185[ebp], 0
$LN25@group_term:
  0023c	8b 4d f8	 mov	 ecx, DWORD PTR _guide$[ebp]
  0023f	51		 push	 ecx
  00240	8b 15 00 00 00
	00		 mov	 edx, DWORD PTR ?system_comms_model@@3W4COMMS_MODEL_TYPES@@A ; system_comms_model
  00246	c1 e2 02	 shl	 edx, 2
  00249	8b 45 b0	 mov	 eax, DWORD PTR tv185[ebp]
  0024c	8b 8c c2 00 00
	00 00		 mov	 ecx, DWORD PTR ?fn_destroy_client_server_entity@@3PAY01P6GXPAUENTITY@@@ZA[edx+eax*8]
  00253	ff d1		 call	 ecx

; 1004 : 			}
; 1005 : 			else

  00255	eb 12		 jmp	 SHORT $LN2@group_term
$LN9@group_term:

; 1006 : 			{
; 1007 : 				notify_local_entity (ENTITY_MESSAGE_TASK_TERMINATED, task, NULL, TASK_TERMINATED_ABORTED);

  00257	6a 02		 push	 2
  00259	6a 00		 push	 0
  0025b	8b 45 fc	 mov	 eax, DWORD PTR _task$[ebp]
  0025e	50		 push	 eax
  0025f	6a 36		 push	 54			; 00000036H
  00261	e8 00 00 00 00	 call	 ?notify_local_entity@@YAHW4ENTITY_MESSAGES@@PAUENTITY@@1ZZ ; notify_local_entity
  00266	83 c4 10	 add	 esp, 16			; 00000010H
$LN2@group_term:

; 1008 : 			}
; 1009 : 		}
; 1010 : 	}
; 1011 : 	while (guide);

  00269	83 7d f8 00	 cmp	 DWORD PTR _guide$[ebp], 0
  0026d	0f 85 de fd ff
	ff		 jne	 $LN4@group_term

; 1012 : }

  00273	5f		 pop	 edi
  00274	5e		 pop	 esi
  00275	5b		 pop	 ebx
  00276	8b e5		 mov	 esp, ebp
  00278	5d		 pop	 ebp
  00279	c2 04 00	 ret	 4
?group_terminate_all_tasks@@YGXPAUENTITY@@@Z ENDP	; group_terminate_all_tasks
_TEXT	ENDS
; Function compile flags: /Odtp /ZI
; File c:\users\nhv90\projects\eech\aphavoc\source\entity\special\group\group.c
;	COMDAT ?group_return_to_base@@YGXPAUENTITY@@@Z
_TEXT	SEGMENT
tv473 = -140						; size = 8
tv364 = -140						; size = 4
tv326 = -140						; size = 4
tv300 = -140						; size = 4
tv255 = -140						; size = 4
tv229 = -140						; size = 4
tv209 = -140						; size = 4
tv188 = -140						; size = 4
tv163 = -140						; size = 4
tv136 = -140						; size = 4
tv81 = -140						; size = 4
tv356 = -136						; size = 4
tv344 = -136						; size = 4
tv318 = -136						; size = 4
tv292 = -136						; size = 4
tv285 = -136						; size = 4
tv247 = -136						; size = 4
tv221 = -136						; size = 4
tv201 = -136						; size = 4
tv180 = -136						; size = 4
tv155 = -136						; size = 4
tv128 = -136						; size = 4
tv73 = -136						; size = 4
_sub_type$ = -68					; size = 4
_s$ = -64						; size = 4
_best_range$ = -60					; size = 4
_range$ = -56						; size = 4
_d$ = -52						; size = 4
_normal$ = -48						; size = 12
_last_pos$ = -36					; size = 4
_wp_pos$ = -32						; size = 4
_pos$ = -28						; size = 4
_current_wp$ = -24					; size = 4
_obj_wp$ = -20						; size = 4
_best_wp$ = -16						; size = 4
_last_wp$ = -12						; size = 4
_guide$ = -8						; size = 4
_wp$ = -4						; size = 4
_en$ = 8						; size = 4
?group_return_to_base@@YGXPAUENTITY@@@Z PROC		; group_return_to_base, COMDAT

; 823  : {

  00000	55		 push	 ebp
  00001	8b ec		 mov	 ebp, esp
  00003	81 ec 8c 00 00
	00		 sub	 esp, 140		; 0000008cH
  00009	53		 push	 ebx
  0000a	56		 push	 esi
  0000b	57		 push	 edi

; 824  : 
; 825  : 	entity
; 826  : 		*wp,
; 827  : 		*guide,
; 828  : 		*last_wp,
; 829  : 		*best_wp,
; 830  : 		*obj_wp,
; 831  : 		*current_wp;
; 832  : 
; 833  : 	vec3d
; 834  : 		*pos,
; 835  : 		*wp_pos,
; 836  : 		*last_pos,
; 837  : 		normal;
; 838  : 
; 839  : 	float
; 840  : 		d,
; 841  : 		range,
; 842  : 		best_range;
; 843  : 
; 844  : 	int
; 845  : 		s,
; 846  : 		sub_type;
; 847  : 
; 848  : 	debug_log ("GROUP: sending group %s (%d) home... ", get_local_entity_string (en, STRING_TYPE_FULL_NAME), get_local_entity_index (en));

  0000c	83 7d 08 00	 cmp	 DWORD PTR _en$[ebp], 0
  00010	74 0d		 je	 SHORT $LN16@group_retu
  00012	8b 45 08	 mov	 eax, DWORD PTR _en$[ebp]
  00015	8b 08		 mov	 ecx, DWORD PTR [eax]
  00017	89 8d 78 ff ff
	ff		 mov	 DWORD PTR tv73[ebp], ecx
  0001d	eb 24		 jmp	 SHORT $LN17@group_retu
$LN16@group_retu:
  0001f	8b 15 00 00 00
	00		 mov	 edx, DWORD PTR ?__LINE__Var@?0??group_return_to_base@@YGXPAUENTITY@@@Z@4JA
  00025	83 c2 19	 add	 edx, 25			; 00000019H
  00028	52		 push	 edx
  00029	68 00 00 00 00	 push	 OFFSET ??_C@_0EJ@CCBIJPFD@c?3?2users?2nhv90?2projects?2eech?2ap@
  0002e	a1 00 00 00 00	 mov	 eax, DWORD PTR ?null_entity_pointer_message@@3PBDB ; null_entity_pointer_message
  00033	50		 push	 eax
  00034	e8 00 00 00 00	 call	 ?process_assert@@YGXPBD0H@Z ; process_assert
  00039	c7 85 78 ff ff
	ff 00 00 00 00	 mov	 DWORD PTR tv73[ebp], 0
$LN17@group_retu:
  00043	b9 01 00 00 00	 mov	 ecx, 1
  00048	85 c9		 test	 ecx, ecx
  0004a	74 0c		 je	 SHORT $LN18@group_retu
  0004c	c7 85 74 ff ff
	ff 03 00 00 00	 mov	 DWORD PTR tv81[ebp], 3
  00056	eb 24		 jmp	 SHORT $LN19@group_retu
$LN18@group_retu:
  00058	8b 15 00 00 00
	00		 mov	 edx, DWORD PTR ?__LINE__Var@?0??group_return_to_base@@YGXPAUENTITY@@@Z@4JA
  0005e	83 c2 19	 add	 edx, 25			; 00000019H
  00061	52		 push	 edx
  00062	68 00 00 00 00	 push	 OFFSET ??_C@_0EJ@CCBIJPFD@c?3?2users?2nhv90?2projects?2eech?2ap@
  00067	a1 00 00 00 00	 mov	 eax, DWORD PTR ?overload_invalid_string_type_message@@3PBDB ; overload_invalid_string_type_message
  0006c	50		 push	 eax
  0006d	e8 00 00 00 00	 call	 ?process_assert@@YGXPBD0H@Z ; process_assert
  00072	c7 85 74 ff ff
	ff 00 00 00 00	 mov	 DWORD PTR tv81[ebp], 0
$LN19@group_retu:
  0007c	8b 4d 08	 mov	 ecx, DWORD PTR _en$[ebp]
  0007f	2b 0d 00 00 00
	00		 sub	 ecx, DWORD PTR ?entities@@3PAUENTITY@@A ; entities
  00085	c1 f9 04	 sar	 ecx, 4
  00088	51		 push	 ecx
  00089	6a 03		 push	 3
  0008b	8b 55 08	 mov	 edx, DWORD PTR _en$[ebp]
  0008e	52		 push	 edx
  0008f	6b 85 78 ff ff
	ff 34		 imul	 eax, DWORD PTR tv73[ebp], 52
  00096	8b 8d 74 ff ff
	ff		 mov	 ecx, DWORD PTR tv81[ebp]
  0009c	8b 94 88 00 00
	00 00		 mov	 edx, DWORD PTR ?fn_get_local_entity_string@@3PAY0N@P6GPBDPAUENTITY@@W4STRING_TYPES@@@ZA[eax+ecx*4]
  000a3	ff d2		 call	 edx
  000a5	50		 push	 eax
  000a6	68 00 00 00 00	 push	 OFFSET ??_C@_0CG@LCBNLKBK@GROUP?3?5sending?5group?5?$CFs?5?$CI?$CFd?$CJ?5ho@
  000ab	e8 00 00 00 00	 call	 ?debug_log@@YAXPBDZZ	; debug_log
  000b0	83 c4 0c	 add	 esp, 12			; 0000000cH

; 849  : 
; 850  : 	//
; 851  : 	// Abort all engage tasks
; 852  : 	//
; 853  : 
; 854  : 	terminate_all_engage_tasks (en);

  000b3	8b 45 08	 mov	 eax, DWORD PTR _en$[ebp]
  000b6	50		 push	 eax
  000b7	e8 00 00 00 00	 call	 ?terminate_all_engage_tasks@@YGXPAUENTITY@@@Z ; terminate_all_engage_tasks

; 855  : 
; 856  : 	//
; 857  : 	// Find group position
; 858  : 	//
; 859  : 
; 860  : 	pos = get_local_entity_vec3d_ptr (en, VEC3D_TYPE_POSITION);

  000bc	83 7d 08 00	 cmp	 DWORD PTR _en$[ebp], 0
  000c0	74 0d		 je	 SHORT $LN20@group_retu
  000c2	8b 45 08	 mov	 eax, DWORD PTR _en$[ebp]
  000c5	8b 08		 mov	 ecx, DWORD PTR [eax]
  000c7	89 8d 78 ff ff
	ff		 mov	 DWORD PTR tv128[ebp], ecx
  000cd	eb 24		 jmp	 SHORT $LN21@group_retu
$LN20@group_retu:
  000cf	8b 15 00 00 00
	00		 mov	 edx, DWORD PTR ?__LINE__Var@?0??group_return_to_base@@YGXPAUENTITY@@@Z@4JA
  000d5	83 c2 25	 add	 edx, 37			; 00000025H
  000d8	52		 push	 edx
  000d9	68 00 00 00 00	 push	 OFFSET ??_C@_0EJ@CCBIJPFD@c?3?2users?2nhv90?2projects?2eech?2ap@
  000de	a1 00 00 00 00	 mov	 eax, DWORD PTR ?null_entity_pointer_message@@3PBDB ; null_entity_pointer_message
  000e3	50		 push	 eax
  000e4	e8 00 00 00 00	 call	 ?process_assert@@YGXPBD0H@Z ; process_assert
  000e9	c7 85 78 ff ff
	ff 00 00 00 00	 mov	 DWORD PTR tv128[ebp], 0
$LN21@group_retu:
  000f3	b9 01 00 00 00	 mov	 ecx, 1
  000f8	85 c9		 test	 ecx, ecx
  000fa	74 0c		 je	 SHORT $LN22@group_retu
  000fc	c7 85 74 ff ff
	ff 08 00 00 00	 mov	 DWORD PTR tv136[ebp], 8
  00106	eb 24		 jmp	 SHORT $LN23@group_retu
$LN22@group_retu:
  00108	8b 15 00 00 00
	00		 mov	 edx, DWORD PTR ?__LINE__Var@?0??group_return_to_base@@YGXPAUENTITY@@@Z@4JA
  0010e	83 c2 25	 add	 edx, 37			; 00000025H
  00111	52		 push	 edx
  00112	68 00 00 00 00	 push	 OFFSET ??_C@_0EJ@CCBIJPFD@c?3?2users?2nhv90?2projects?2eech?2ap@
  00117	a1 00 00 00 00	 mov	 eax, DWORD PTR ?overload_invalid_vec3d_type_message@@3PBDB ; overload_invalid_vec3d_type_message
  0011c	50		 push	 eax
  0011d	e8 00 00 00 00	 call	 ?process_assert@@YGXPBD0H@Z ; process_assert
  00122	c7 85 74 ff ff
	ff 00 00 00 00	 mov	 DWORD PTR tv136[ebp], 0
$LN23@group_retu:
  0012c	6a 08		 push	 8
  0012e	8b 4d 08	 mov	 ecx, DWORD PTR _en$[ebp]
  00131	51		 push	 ecx
  00132	6b 95 78 ff ff
	ff 60		 imul	 edx, DWORD PTR tv128[ebp], 96
  00139	8b 85 74 ff ff
	ff		 mov	 eax, DWORD PTR tv136[ebp]
  0013f	8b 8c 82 00 00
	00 00		 mov	 ecx, DWORD PTR ?fn_get_local_entity_vec3d_ptr@@3PAY0BI@P6GPAUVEC3D@@PAUENTITY@@W4VEC3D_TYPES@@@ZA[edx+eax*4]
  00146	ff d1		 call	 ecx
  00148	89 45 e4	 mov	 DWORD PTR _pos$[ebp], eax

; 861  : 
; 862  : 	//
; 863  : 	// find objective wp, and last wp position
; 864  : 	//
; 865  : 
; 866  : 	obj_wp = NULL;

  0014b	c7 45 ec 00 00
	00 00		 mov	 DWORD PTR _obj_wp$[ebp], 0

; 867  : 
; 868  : 	guide = get_local_group_primary_guide (en);

  00152	8b 45 08	 mov	 eax, DWORD PTR _en$[ebp]
  00155	50		 push	 eax
  00156	e8 00 00 00 00	 call	 ?get_local_group_primary_guide@@YGPAUENTITY@@PAU1@@Z ; get_local_group_primary_guide
  0015b	89 45 f8	 mov	 DWORD PTR _guide$[ebp], eax

; 869  : 
; 870  : 	ASSERT (guide);

  0015e	83 7d f8 00	 cmp	 DWORD PTR _guide$[ebp], 0
  00162	75 18		 jne	 SHORT $LN6@group_retu
  00164	a1 00 00 00 00	 mov	 eax, DWORD PTR ?__LINE__Var@?0??group_return_to_base@@YGXPAUENTITY@@@Z@4JA
  00169	83 c0 2f	 add	 eax, 47			; 0000002fH
  0016c	50		 push	 eax
  0016d	68 00 00 00 00	 push	 OFFSET ??_C@_0EJ@CCBIJPFD@c?3?2users?2nhv90?2projects?2eech?2ap@
  00172	68 00 00 00 00	 push	 OFFSET ??_C@_05HLIEEKJG@guide@
  00177	e8 00 00 00 00	 call	 ?process_assert@@YGXPBD0H@Z ; process_assert
$LN6@group_retu:

; 871  : 
; 872  : 	current_wp = get_local_entity_parent (guide, LIST_TYPE_CURRENT_WAYPOINT);

  0017c	83 7d f8 00	 cmp	 DWORD PTR _guide$[ebp], 0
  00180	74 0d		 je	 SHORT $LN24@group_retu
  00182	8b 45 f8	 mov	 eax, DWORD PTR _guide$[ebp]
  00185	8b 08		 mov	 ecx, DWORD PTR [eax]
  00187	89 8d 78 ff ff
	ff		 mov	 DWORD PTR tv155[ebp], ecx
  0018d	eb 24		 jmp	 SHORT $LN25@group_retu
$LN24@group_retu:
  0018f	8b 15 00 00 00
	00		 mov	 edx, DWORD PTR ?__LINE__Var@?0??group_return_to_base@@YGXPAUENTITY@@@Z@4JA
  00195	83 c2 31	 add	 edx, 49			; 00000031H
  00198	52		 push	 edx
  00199	68 00 00 00 00	 push	 OFFSET ??_C@_0EJ@CCBIJPFD@c?3?2users?2nhv90?2projects?2eech?2ap@
  0019e	a1 00 00 00 00	 mov	 eax, DWORD PTR ?null_entity_pointer_message@@3PBDB ; null_entity_pointer_message
  001a3	50		 push	 eax
  001a4	e8 00 00 00 00	 call	 ?process_assert@@YGXPBD0H@Z ; process_assert
  001a9	c7 85 78 ff ff
	ff 00 00 00 00	 mov	 DWORD PTR tv155[ebp], 0
$LN25@group_retu:
  001b3	b9 01 00 00 00	 mov	 ecx, 1
  001b8	85 c9		 test	 ecx, ecx
  001ba	74 0c		 je	 SHORT $LN26@group_retu
  001bc	c7 85 74 ff ff
	ff 09 00 00 00	 mov	 DWORD PTR tv163[ebp], 9
  001c6	eb 24		 jmp	 SHORT $LN27@group_retu
$LN26@group_retu:
  001c8	8b 15 00 00 00
	00		 mov	 edx, DWORD PTR ?__LINE__Var@?0??group_return_to_base@@YGXPAUENTITY@@@Z@4JA
  001ce	83 c2 31	 add	 edx, 49			; 00000031H
  001d1	52		 push	 edx
  001d2	68 00 00 00 00	 push	 OFFSET ??_C@_0EJ@CCBIJPFD@c?3?2users?2nhv90?2projects?2eech?2ap@
  001d7	a1 00 00 00 00	 mov	 eax, DWORD PTR ?overload_invalid_list_type_message@@3PBDB ; overload_invalid_list_type_message
  001dc	50		 push	 eax
  001dd	e8 00 00 00 00	 call	 ?process_assert@@YGXPBD0H@Z ; process_assert
  001e2	c7 85 74 ff ff
	ff 00 00 00 00	 mov	 DWORD PTR tv163[ebp], 0
$LN27@group_retu:
  001ec	6a 09		 push	 9
  001ee	8b 4d f8	 mov	 ecx, DWORD PTR _guide$[ebp]
  001f1	51		 push	 ecx
  001f2	69 95 78 ff ff
	ff b4 00 00 00	 imul	 edx, DWORD PTR tv155[ebp], 180
  001fc	8b 85 74 ff ff
	ff		 mov	 eax, DWORD PTR tv163[ebp]
  00202	8b 8c 82 00 00
	00 00		 mov	 ecx, DWORD PTR ?fn_get_local_entity_parent@@3PAY0CN@P6GPAUENTITY@@PAU1@W4LIST_TYPES@@@ZA[edx+eax*4]
  00209	ff d1		 call	 ecx
  0020b	89 45 e8	 mov	 DWORD PTR _current_wp$[ebp], eax

; 873  : 
; 874  : 	ASSERT (current_wp);

  0020e	83 7d e8 00	 cmp	 DWORD PTR _current_wp$[ebp], 0
  00212	75 18		 jne	 SHORT $LN7@group_retu
  00214	a1 00 00 00 00	 mov	 eax, DWORD PTR ?__LINE__Var@?0??group_return_to_base@@YGXPAUENTITY@@@Z@4JA
  00219	83 c0 33	 add	 eax, 51			; 00000033H
  0021c	50		 push	 eax
  0021d	68 00 00 00 00	 push	 OFFSET ??_C@_0EJ@CCBIJPFD@c?3?2users?2nhv90?2projects?2eech?2ap@
  00222	68 00 00 00 00	 push	 OFFSET ??_C@_0L@HHMDNOPI@current_wp@
  00227	e8 00 00 00 00	 call	 ?process_assert@@YGXPBD0H@Z ; process_assert
$LN7@group_retu:

; 875  : 
; 876  : 	wp = current_wp;

  0022c	8b 45 e8	 mov	 eax, DWORD PTR _current_wp$[ebp]
  0022f	89 45 fc	 mov	 DWORD PTR _wp$[ebp], eax
$LN2@group_retu:

; 877  : 
; 878  : 	while (get_local_entity_child_succ (wp, LIST_TYPE_WAYPOINT))

  00232	83 7d fc 00	 cmp	 DWORD PTR _wp$[ebp], 0
  00236	74 0d		 je	 SHORT $LN28@group_retu
  00238	8b 45 fc	 mov	 eax, DWORD PTR _wp$[ebp]
  0023b	8b 08		 mov	 ecx, DWORD PTR [eax]
  0023d	89 8d 78 ff ff
	ff		 mov	 DWORD PTR tv180[ebp], ecx
  00243	eb 24		 jmp	 SHORT $LN29@group_retu
$LN28@group_retu:
  00245	8b 15 00 00 00
	00		 mov	 edx, DWORD PTR ?__LINE__Var@?0??group_return_to_base@@YGXPAUENTITY@@@Z@4JA
  0024b	83 c2 37	 add	 edx, 55			; 00000037H
  0024e	52		 push	 edx
  0024f	68 00 00 00 00	 push	 OFFSET ??_C@_0EJ@CCBIJPFD@c?3?2users?2nhv90?2projects?2eech?2ap@
  00254	a1 00 00 00 00	 mov	 eax, DWORD PTR ?null_entity_pointer_message@@3PBDB ; null_entity_pointer_message
  00259	50		 push	 eax
  0025a	e8 00 00 00 00	 call	 ?process_assert@@YGXPBD0H@Z ; process_assert
  0025f	c7 85 78 ff ff
	ff 00 00 00 00	 mov	 DWORD PTR tv180[ebp], 0
$LN29@group_retu:
  00269	b9 01 00 00 00	 mov	 ecx, 1
  0026e	85 c9		 test	 ecx, ecx
  00270	74 0c		 je	 SHORT $LN30@group_retu
  00272	c7 85 74 ff ff
	ff 2c 00 00 00	 mov	 DWORD PTR tv188[ebp], 44 ; 0000002cH
  0027c	eb 24		 jmp	 SHORT $LN31@group_retu
$LN30@group_retu:
  0027e	8b 15 00 00 00
	00		 mov	 edx, DWORD PTR ?__LINE__Var@?0??group_return_to_base@@YGXPAUENTITY@@@Z@4JA
  00284	83 c2 37	 add	 edx, 55			; 00000037H
  00287	52		 push	 edx
  00288	68 00 00 00 00	 push	 OFFSET ??_C@_0EJ@CCBIJPFD@c?3?2users?2nhv90?2projects?2eech?2ap@
  0028d	a1 00 00 00 00	 mov	 eax, DWORD PTR ?overload_invalid_list_type_message@@3PBDB ; overload_invalid_list_type_message
  00292	50		 push	 eax
  00293	e8 00 00 00 00	 call	 ?process_assert@@YGXPBD0H@Z ; process_assert
  00298	c7 85 74 ff ff
	ff 00 00 00 00	 mov	 DWORD PTR tv188[ebp], 0
$LN31@group_retu:
  002a2	6a 2c		 push	 44			; 0000002cH
  002a4	8b 4d fc	 mov	 ecx, DWORD PTR _wp$[ebp]
  002a7	51		 push	 ecx
  002a8	69 95 78 ff ff
	ff b4 00 00 00	 imul	 edx, DWORD PTR tv180[ebp], 180
  002b2	8b 85 74 ff ff
	ff		 mov	 eax, DWORD PTR tv188[ebp]
  002b8	8b 8c 82 00 00
	00 00		 mov	 ecx, DWORD PTR ?fn_get_local_entity_child_succ@@3PAY0CN@P6GPAUENTITY@@PAU1@W4LIST_TYPES@@@ZA[edx+eax*4]
  002bf	ff d1		 call	 ecx
  002c1	85 c0		 test	 eax, eax
  002c3	0f 84 41 01 00
	00		 je	 $LN3@group_retu

; 879  : 	{
; 880  : 		wp = get_local_entity_child_succ (wp, LIST_TYPE_WAYPOINT);

  002c9	83 7d fc 00	 cmp	 DWORD PTR _wp$[ebp], 0
  002cd	74 0d		 je	 SHORT $LN32@group_retu
  002cf	8b 45 fc	 mov	 eax, DWORD PTR _wp$[ebp]
  002d2	8b 08		 mov	 ecx, DWORD PTR [eax]
  002d4	89 8d 78 ff ff
	ff		 mov	 DWORD PTR tv201[ebp], ecx
  002da	eb 24		 jmp	 SHORT $LN33@group_retu
$LN32@group_retu:
  002dc	8b 15 00 00 00
	00		 mov	 edx, DWORD PTR ?__LINE__Var@?0??group_return_to_base@@YGXPAUENTITY@@@Z@4JA
  002e2	83 c2 39	 add	 edx, 57			; 00000039H
  002e5	52		 push	 edx
  002e6	68 00 00 00 00	 push	 OFFSET ??_C@_0EJ@CCBIJPFD@c?3?2users?2nhv90?2projects?2eech?2ap@
  002eb	a1 00 00 00 00	 mov	 eax, DWORD PTR ?null_entity_pointer_message@@3PBDB ; null_entity_pointer_message
  002f0	50		 push	 eax
  002f1	e8 00 00 00 00	 call	 ?process_assert@@YGXPBD0H@Z ; process_assert
  002f6	c7 85 78 ff ff
	ff 00 00 00 00	 mov	 DWORD PTR tv201[ebp], 0
$LN33@group_retu:
  00300	b9 01 00 00 00	 mov	 ecx, 1
  00305	85 c9		 test	 ecx, ecx
  00307	74 0c		 je	 SHORT $LN34@group_retu
  00309	c7 85 74 ff ff
	ff 2c 00 00 00	 mov	 DWORD PTR tv209[ebp], 44 ; 0000002cH
  00313	eb 24		 jmp	 SHORT $LN35@group_retu
$LN34@group_retu:
  00315	8b 15 00 00 00
	00		 mov	 edx, DWORD PTR ?__LINE__Var@?0??group_return_to_base@@YGXPAUENTITY@@@Z@4JA
  0031b	83 c2 39	 add	 edx, 57			; 00000039H
  0031e	52		 push	 edx
  0031f	68 00 00 00 00	 push	 OFFSET ??_C@_0EJ@CCBIJPFD@c?3?2users?2nhv90?2projects?2eech?2ap@
  00324	a1 00 00 00 00	 mov	 eax, DWORD PTR ?overload_invalid_list_type_message@@3PBDB ; overload_invalid_list_type_message
  00329	50		 push	 eax
  0032a	e8 00 00 00 00	 call	 ?process_assert@@YGXPBD0H@Z ; process_assert
  0032f	c7 85 74 ff ff
	ff 00 00 00 00	 mov	 DWORD PTR tv209[ebp], 0
$LN35@group_retu:
  00339	6a 2c		 push	 44			; 0000002cH
  0033b	8b 4d fc	 mov	 ecx, DWORD PTR _wp$[ebp]
  0033e	51		 push	 ecx
  0033f	69 95 78 ff ff
	ff b4 00 00 00	 imul	 edx, DWORD PTR tv201[ebp], 180
  00349	8b 85 74 ff ff
	ff		 mov	 eax, DWORD PTR tv209[ebp]
  0034f	8b 8c 82 00 00
	00 00		 mov	 ecx, DWORD PTR ?fn_get_local_entity_child_succ@@3PAY0CN@P6GPAUENTITY@@PAU1@W4LIST_TYPES@@@ZA[edx+eax*4]
  00356	ff d1		 call	 ecx
  00358	89 45 fc	 mov	 DWORD PTR _wp$[ebp], eax

; 881  : 
; 882  : 		sub_type = get_local_entity_int_value (wp, INT_TYPE_ENTITY_SUB_TYPE);

  0035b	83 7d fc 00	 cmp	 DWORD PTR _wp$[ebp], 0
  0035f	74 0d		 je	 SHORT $LN36@group_retu
  00361	8b 45 fc	 mov	 eax, DWORD PTR _wp$[ebp]
  00364	8b 08		 mov	 ecx, DWORD PTR [eax]
  00366	89 8d 78 ff ff
	ff		 mov	 DWORD PTR tv221[ebp], ecx
  0036c	eb 24		 jmp	 SHORT $LN37@group_retu
$LN36@group_retu:
  0036e	8b 15 00 00 00
	00		 mov	 edx, DWORD PTR ?__LINE__Var@?0??group_return_to_base@@YGXPAUENTITY@@@Z@4JA
  00374	83 c2 3b	 add	 edx, 59			; 0000003bH
  00377	52		 push	 edx
  00378	68 00 00 00 00	 push	 OFFSET ??_C@_0EJ@CCBIJPFD@c?3?2users?2nhv90?2projects?2eech?2ap@
  0037d	a1 00 00 00 00	 mov	 eax, DWORD PTR ?null_entity_pointer_message@@3PBDB ; null_entity_pointer_message
  00382	50		 push	 eax
  00383	e8 00 00 00 00	 call	 ?process_assert@@YGXPBD0H@Z ; process_assert
  00388	c7 85 78 ff ff
	ff 00 00 00 00	 mov	 DWORD PTR tv221[ebp], 0
$LN37@group_retu:
  00392	b9 01 00 00 00	 mov	 ecx, 1
  00397	85 c9		 test	 ecx, ecx
  00399	74 0c		 je	 SHORT $LN38@group_retu
  0039b	c7 85 74 ff ff
	ff 34 00 00 00	 mov	 DWORD PTR tv229[ebp], 52 ; 00000034H
  003a5	eb 24		 jmp	 SHORT $LN39@group_retu
$LN38@group_retu:
  003a7	8b 15 00 00 00
	00		 mov	 edx, DWORD PTR ?__LINE__Var@?0??group_return_to_base@@YGXPAUENTITY@@@Z@4JA
  003ad	83 c2 3b	 add	 edx, 59			; 0000003bH
  003b0	52		 push	 edx
  003b1	68 00 00 00 00	 push	 OFFSET ??_C@_0EJ@CCBIJPFD@c?3?2users?2nhv90?2projects?2eech?2ap@
  003b6	a1 00 00 00 00	 mov	 eax, DWORD PTR ?overload_invalid_int_type_message@@3PBDB ; overload_invalid_int_type_message
  003bb	50		 push	 eax
  003bc	e8 00 00 00 00	 call	 ?process_assert@@YGXPBD0H@Z ; process_assert
  003c1	c7 85 74 ff ff
	ff 00 00 00 00	 mov	 DWORD PTR tv229[ebp], 0
$LN39@group_retu:
  003cb	6a 34		 push	 52			; 00000034H
  003cd	8b 4d fc	 mov	 ecx, DWORD PTR _wp$[ebp]
  003d0	51		 push	 ecx
  003d1	69 95 78 ff ff
	ff 5c 04 00 00	 imul	 edx, DWORD PTR tv221[ebp], 1116
  003db	8b 85 74 ff ff
	ff		 mov	 eax, DWORD PTR tv229[ebp]
  003e1	8b 8c 82 00 00
	00 00		 mov	 ecx, DWORD PTR ?fn_get_local_entity_int_value@@3PAY0BBH@P6GHPAUENTITY@@W4INT_TYPES@@@ZA[edx+eax*4]
  003e8	ff d1		 call	 ecx
  003ea	89 45 bc	 mov	 DWORD PTR _sub_type$[ebp], eax

; 883  : 
; 884  : 		if (waypoint_database [sub_type].objective_waypoint)

  003ed	6b 45 bc 64	 imul	 eax, DWORD PTR _sub_type$[ebp], 100
  003f1	8b 88 04 00 00
	00		 mov	 ecx, DWORD PTR ?waypoint_database@@3PAUWAYPOINT_DATA@@A[eax+4]
  003f7	c1 e9 1e	 shr	 ecx, 30			; 0000001eH
  003fa	83 e1 01	 and	 ecx, 1
  003fd	74 06		 je	 SHORT $LN8@group_retu

; 885  : 		{
; 886  : 			obj_wp = wp;

  003ff	8b 45 fc	 mov	 eax, DWORD PTR _wp$[ebp]
  00402	89 45 ec	 mov	 DWORD PTR _obj_wp$[ebp], eax
$LN8@group_retu:

; 887  : 		}
; 888  : 	}

  00405	e9 28 fe ff ff	 jmp	 $LN2@group_retu
$LN3@group_retu:

; 889  : 
; 890  : 	last_wp = wp;

  0040a	8b 45 fc	 mov	 eax, DWORD PTR _wp$[ebp]
  0040d	89 45 f4	 mov	 DWORD PTR _last_wp$[ebp], eax

; 891  : 
; 892  : 	last_pos = get_local_entity_vec3d_ptr (last_wp, VEC3D_TYPE_POSITION);

  00410	83 7d f4 00	 cmp	 DWORD PTR _last_wp$[ebp], 0
  00414	74 0d		 je	 SHORT $LN40@group_retu
  00416	8b 45 f4	 mov	 eax, DWORD PTR _last_wp$[ebp]
  00419	8b 08		 mov	 ecx, DWORD PTR [eax]
  0041b	89 8d 78 ff ff
	ff		 mov	 DWORD PTR tv247[ebp], ecx
  00421	eb 24		 jmp	 SHORT $LN41@group_retu
$LN40@group_retu:
  00423	8b 15 00 00 00
	00		 mov	 edx, DWORD PTR ?__LINE__Var@?0??group_return_to_base@@YGXPAUENTITY@@@Z@4JA
  00429	83 c2 45	 add	 edx, 69			; 00000045H
  0042c	52		 push	 edx
  0042d	68 00 00 00 00	 push	 OFFSET ??_C@_0EJ@CCBIJPFD@c?3?2users?2nhv90?2projects?2eech?2ap@
  00432	a1 00 00 00 00	 mov	 eax, DWORD PTR ?null_entity_pointer_message@@3PBDB ; null_entity_pointer_message
  00437	50		 push	 eax
  00438	e8 00 00 00 00	 call	 ?process_assert@@YGXPBD0H@Z ; process_assert
  0043d	c7 85 78 ff ff
	ff 00 00 00 00	 mov	 DWORD PTR tv247[ebp], 0
$LN41@group_retu:
  00447	b9 01 00 00 00	 mov	 ecx, 1
  0044c	85 c9		 test	 ecx, ecx
  0044e	74 0c		 je	 SHORT $LN42@group_retu
  00450	c7 85 74 ff ff
	ff 08 00 00 00	 mov	 DWORD PTR tv255[ebp], 8
  0045a	eb 24		 jmp	 SHORT $LN43@group_retu
$LN42@group_retu:
  0045c	8b 15 00 00 00
	00		 mov	 edx, DWORD PTR ?__LINE__Var@?0??group_return_to_base@@YGXPAUENTITY@@@Z@4JA
  00462	83 c2 45	 add	 edx, 69			; 00000045H
  00465	52		 push	 edx
  00466	68 00 00 00 00	 push	 OFFSET ??_C@_0EJ@CCBIJPFD@c?3?2users?2nhv90?2projects?2eech?2ap@
  0046b	a1 00 00 00 00	 mov	 eax, DWORD PTR ?overload_invalid_vec3d_type_message@@3PBDB ; overload_invalid_vec3d_type_message
  00470	50		 push	 eax
  00471	e8 00 00 00 00	 call	 ?process_assert@@YGXPBD0H@Z ; process_assert
  00476	c7 85 74 ff ff
	ff 00 00 00 00	 mov	 DWORD PTR tv255[ebp], 0
$LN43@group_retu:
  00480	6a 08		 push	 8
  00482	8b 4d f4	 mov	 ecx, DWORD PTR _last_wp$[ebp]
  00485	51		 push	 ecx
  00486	6b 95 78 ff ff
	ff 60		 imul	 edx, DWORD PTR tv247[ebp], 96
  0048d	8b 85 74 ff ff
	ff		 mov	 eax, DWORD PTR tv255[ebp]
  00493	8b 8c 82 00 00
	00 00		 mov	 ecx, DWORD PTR ?fn_get_local_entity_vec3d_ptr@@3PAY0BI@P6GPAUVEC3D@@PAUENTITY@@W4VEC3D_TYPES@@@ZA[edx+eax*4]
  0049a	ff d1		 call	 ecx
  0049c	89 45 dc	 mov	 DWORD PTR _last_pos$[ebp], eax

; 893  : 
; 894  : 	if (current_wp == last_wp)

  0049f	8b 45 e8	 mov	 eax, DWORD PTR _current_wp$[ebp]
  004a2	3b 45 f4	 cmp	 eax, DWORD PTR _last_wp$[ebp]
  004a5	75 05		 jne	 SHORT $LN9@group_retu

; 895  : 	{
; 896  : 		return;

  004a7	e9 79 03 00 00	 jmp	 $LN1@group_retu
$LN9@group_retu:

; 897  : 	}
; 898  : 
; 899  : 	//
; 900  : 	// Check each waypoint after the objective waypoint (if obj_wp is NULL then the group has already passed the objective wp
; 901  : 	//		or there isn't one)
; 902  : 	//
; 903  : 
; 904  : 	if (!obj_wp)

  004ac	83 7d ec 00	 cmp	 DWORD PTR _obj_wp$[ebp], 0
  004b0	75 06		 jne	 SHORT $LN10@group_retu

; 905  : 	{
; 906  : 		obj_wp = current_wp;

  004b2	8b 45 e8	 mov	 eax, DWORD PTR _current_wp$[ebp]
  004b5	89 45 ec	 mov	 DWORD PTR _obj_wp$[ebp], eax
$LN10@group_retu:

; 907  : 	}
; 908  : 
; 909  : 	//
; 910  : 	// Find vector of group to last wp
; 911  : 	//
; 912  : 
; 913  : 	normal.x = last_pos->x - pos->x;

  004b8	8b 45 dc	 mov	 eax, DWORD PTR _last_pos$[ebp]
  004bb	8b 4d e4	 mov	 ecx, DWORD PTR _pos$[ebp]
  004be	f3 0f 10 00	 movss	 xmm0, DWORD PTR [eax]
  004c2	f3 0f 5c 01	 subss	 xmm0, DWORD PTR [ecx]
  004c6	f3 0f 11 45 d0	 movss	 DWORD PTR _normal$[ebp], xmm0

; 914  : 	normal.y = 0.0;

  004cb	0f 57 c0	 xorps	 xmm0, xmm0
  004ce	f3 0f 11 45 d4	 movss	 DWORD PTR _normal$[ebp+4], xmm0

; 915  : 	normal.z = last_pos->z - pos->z;

  004d3	8b 45 dc	 mov	 eax, DWORD PTR _last_pos$[ebp]
  004d6	8b 4d e4	 mov	 ecx, DWORD PTR _pos$[ebp]
  004d9	f3 0f 10 40 08	 movss	 xmm0, DWORD PTR [eax+8]
  004de	f3 0f 5c 41 08	 subss	 xmm0, DWORD PTR [ecx+8]
  004e3	f3 0f 11 45 d8	 movss	 DWORD PTR _normal$[ebp+8], xmm0

; 916  : 
; 917  : 	if (normalise_any_3d_vector (&normal) == 0.0)

  004e8	8d 45 d0	 lea	 eax, DWORD PTR _normal$[ebp]
  004eb	50		 push	 eax
  004ec	e8 00 00 00 00	 call	 ?normalise_any_3d_vector@@YGMPAUVEC3D@@@Z ; normalise_any_3d_vector
  004f1	dd 9d 74 ff ff
	ff		 fstp	 QWORD PTR tv473[ebp]
  004f7	f2 0f 10 85 74
	ff ff ff	 movsd	 xmm0, QWORD PTR tv473[ebp]
  004ff	66 0f 2e 05 00
	00 00 00	 ucomisd xmm0, QWORD PTR __real@0000000000000000
  00507	9f		 lahf
  00508	f6 c4 44	 test	 ah, 68			; 00000044H
  0050b	7a 05		 jp	 SHORT $LN11@group_retu

; 918  : 	{
; 919  : 		return;

  0050d	e9 13 03 00 00	 jmp	 $LN1@group_retu
$LN11@group_retu:

; 920  : 	}
; 921  : 
; 922  : 	//
; 923  : 	// Test sign of last position
; 924  : 	//
; 925  : 
; 926  : 	d = ((last_pos->x * normal.x) + (last_pos->z * normal.z)) - ((pos->x * normal.x) + (pos->z * normal.z));

  00512	8b 45 dc	 mov	 eax, DWORD PTR _last_pos$[ebp]
  00515	f3 0f 10 00	 movss	 xmm0, DWORD PTR [eax]
  00519	f3 0f 59 45 d0	 mulss	 xmm0, DWORD PTR _normal$[ebp]
  0051e	8b 4d dc	 mov	 ecx, DWORD PTR _last_pos$[ebp]
  00521	f3 0f 10 49 08	 movss	 xmm1, DWORD PTR [ecx+8]
  00526	f3 0f 59 4d d8	 mulss	 xmm1, DWORD PTR _normal$[ebp+8]
  0052b	f3 0f 58 c1	 addss	 xmm0, xmm1
  0052f	8b 55 e4	 mov	 edx, DWORD PTR _pos$[ebp]
  00532	f3 0f 10 0a	 movss	 xmm1, DWORD PTR [edx]
  00536	f3 0f 59 4d d0	 mulss	 xmm1, DWORD PTR _normal$[ebp]
  0053b	8b 45 e4	 mov	 eax, DWORD PTR _pos$[ebp]
  0053e	f3 0f 10 50 08	 movss	 xmm2, DWORD PTR [eax+8]
  00543	f3 0f 59 55 d8	 mulss	 xmm2, DWORD PTR _normal$[ebp+8]
  00548	f3 0f 58 ca	 addss	 xmm1, xmm2
  0054c	f3 0f 5c c1	 subss	 xmm0, xmm1
  00550	f3 0f 11 45 cc	 movss	 DWORD PTR _d$[ebp], xmm0

; 927  : 
; 928  : 	s = sign (d);

  00555	f3 0f 10 45 cc	 movss	 xmm0, DWORD PTR _d$[ebp]
  0055a	0f 2f 05 00 00
	00 00		 comiss	 xmm0, DWORD PTR __real@00000000
  00561	72 0c		 jb	 SHORT $LN44@group_retu
  00563	c7 85 78 ff ff
	ff 01 00 00 00	 mov	 DWORD PTR tv285[ebp], 1
  0056d	eb 0a		 jmp	 SHORT $LN45@group_retu
$LN44@group_retu:
  0056f	c7 85 78 ff ff
	ff ff ff ff ff	 mov	 DWORD PTR tv285[ebp], -1
$LN45@group_retu:
  00579	8b 85 78 ff ff
	ff		 mov	 eax, DWORD PTR tv285[ebp]
  0057f	89 45 c0	 mov	 DWORD PTR _s$[ebp], eax

; 929  : 
; 930  : 	//
; 931  : 	// find closest waypoint heading back towards the last waypoint
; 932  : 	//
; 933  : 
; 934  : 	wp = get_local_entity_child_succ (obj_wp, LIST_TYPE_WAYPOINT);

  00582	83 7d ec 00	 cmp	 DWORD PTR _obj_wp$[ebp], 0
  00586	74 0d		 je	 SHORT $LN46@group_retu
  00588	8b 45 ec	 mov	 eax, DWORD PTR _obj_wp$[ebp]
  0058b	8b 08		 mov	 ecx, DWORD PTR [eax]
  0058d	89 8d 78 ff ff
	ff		 mov	 DWORD PTR tv292[ebp], ecx
  00593	eb 24		 jmp	 SHORT $LN47@group_retu
$LN46@group_retu:
  00595	8b 15 00 00 00
	00		 mov	 edx, DWORD PTR ?__LINE__Var@?0??group_return_to_base@@YGXPAUENTITY@@@Z@4JA
  0059b	83 c2 6f	 add	 edx, 111		; 0000006fH
  0059e	52		 push	 edx
  0059f	68 00 00 00 00	 push	 OFFSET ??_C@_0EJ@CCBIJPFD@c?3?2users?2nhv90?2projects?2eech?2ap@
  005a4	a1 00 00 00 00	 mov	 eax, DWORD PTR ?null_entity_pointer_message@@3PBDB ; null_entity_pointer_message
  005a9	50		 push	 eax
  005aa	e8 00 00 00 00	 call	 ?process_assert@@YGXPBD0H@Z ; process_assert
  005af	c7 85 78 ff ff
	ff 00 00 00 00	 mov	 DWORD PTR tv292[ebp], 0
$LN47@group_retu:
  005b9	b9 01 00 00 00	 mov	 ecx, 1
  005be	85 c9		 test	 ecx, ecx
  005c0	74 0c		 je	 SHORT $LN48@group_retu
  005c2	c7 85 74 ff ff
	ff 2c 00 00 00	 mov	 DWORD PTR tv300[ebp], 44 ; 0000002cH
  005cc	eb 24		 jmp	 SHORT $LN49@group_retu
$LN48@group_retu:
  005ce	8b 15 00 00 00
	00		 mov	 edx, DWORD PTR ?__LINE__Var@?0??group_return_to_base@@YGXPAUENTITY@@@Z@4JA
  005d4	83 c2 6f	 add	 edx, 111		; 0000006fH
  005d7	52		 push	 edx
  005d8	68 00 00 00 00	 push	 OFFSET ??_C@_0EJ@CCBIJPFD@c?3?2users?2nhv90?2projects?2eech?2ap@
  005dd	a1 00 00 00 00	 mov	 eax, DWORD PTR ?overload_invalid_list_type_message@@3PBDB ; overload_invalid_list_type_message
  005e2	50		 push	 eax
  005e3	e8 00 00 00 00	 call	 ?process_assert@@YGXPBD0H@Z ; process_assert
  005e8	c7 85 74 ff ff
	ff 00 00 00 00	 mov	 DWORD PTR tv300[ebp], 0
$LN49@group_retu:
  005f2	6a 2c		 push	 44			; 0000002cH
  005f4	8b 4d ec	 mov	 ecx, DWORD PTR _obj_wp$[ebp]
  005f7	51		 push	 ecx
  005f8	69 95 78 ff ff
	ff b4 00 00 00	 imul	 edx, DWORD PTR tv292[ebp], 180
  00602	8b 85 74 ff ff
	ff		 mov	 eax, DWORD PTR tv300[ebp]
  00608	8b 8c 82 00 00
	00 00		 mov	 ecx, DWORD PTR ?fn_get_local_entity_child_succ@@3PAY0CN@P6GPAUENTITY@@PAU1@W4LIST_TYPES@@@ZA[edx+eax*4]
  0060f	ff d1		 call	 ecx
  00611	89 45 fc	 mov	 DWORD PTR _wp$[ebp], eax

; 935  : 
; 936  : 	ASSERT (wp);

  00614	83 7d fc 00	 cmp	 DWORD PTR _wp$[ebp], 0
  00618	75 18		 jne	 SHORT $LN12@group_retu
  0061a	a1 00 00 00 00	 mov	 eax, DWORD PTR ?__LINE__Var@?0??group_return_to_base@@YGXPAUENTITY@@@Z@4JA
  0061f	83 c0 71	 add	 eax, 113		; 00000071H
  00622	50		 push	 eax
  00623	68 00 00 00 00	 push	 OFFSET ??_C@_0EJ@CCBIJPFD@c?3?2users?2nhv90?2projects?2eech?2ap@
  00628	68 00 00 00 00	 push	 OFFSET ??_C@_02HODPCBMO@wp@
  0062d	e8 00 00 00 00	 call	 ?process_assert@@YGXPBD0H@Z ; process_assert
$LN12@group_retu:

; 937  : 
; 938  : 	best_wp = last_wp;

  00632	8b 45 f4	 mov	 eax, DWORD PTR _last_wp$[ebp]
  00635	89 45 f0	 mov	 DWORD PTR _best_wp$[ebp], eax

; 939  : 
; 940  : 	best_range = FLT_MAX;

  00638	f3 0f 10 05 00
	00 00 00	 movss	 xmm0, DWORD PTR __real@7f7fffff
  00640	f3 0f 11 45 c4	 movss	 DWORD PTR _best_range$[ebp], xmm0
$LN4@group_retu:

; 941  : 
; 942  : 	while (wp)

  00645	83 7d fc 00	 cmp	 DWORD PTR _wp$[ebp], 0
  00649	0f 84 c9 01 00
	00		 je	 $LN5@group_retu

; 943  : 	{
; 944  : 		wp_pos = get_local_entity_vec3d_ptr (wp, VEC3D_TYPE_POSITION);

  0064f	83 7d fc 00	 cmp	 DWORD PTR _wp$[ebp], 0
  00653	74 0d		 je	 SHORT $LN50@group_retu
  00655	8b 45 fc	 mov	 eax, DWORD PTR _wp$[ebp]
  00658	8b 08		 mov	 ecx, DWORD PTR [eax]
  0065a	89 8d 78 ff ff
	ff		 mov	 DWORD PTR tv318[ebp], ecx
  00660	eb 24		 jmp	 SHORT $LN51@group_retu
$LN50@group_retu:
  00662	8b 15 00 00 00
	00		 mov	 edx, DWORD PTR ?__LINE__Var@?0??group_return_to_base@@YGXPAUENTITY@@@Z@4JA
  00668	83 c2 79	 add	 edx, 121		; 00000079H
  0066b	52		 push	 edx
  0066c	68 00 00 00 00	 push	 OFFSET ??_C@_0EJ@CCBIJPFD@c?3?2users?2nhv90?2projects?2eech?2ap@
  00671	a1 00 00 00 00	 mov	 eax, DWORD PTR ?null_entity_pointer_message@@3PBDB ; null_entity_pointer_message
  00676	50		 push	 eax
  00677	e8 00 00 00 00	 call	 ?process_assert@@YGXPBD0H@Z ; process_assert
  0067c	c7 85 78 ff ff
	ff 00 00 00 00	 mov	 DWORD PTR tv318[ebp], 0
$LN51@group_retu:
  00686	b9 01 00 00 00	 mov	 ecx, 1
  0068b	85 c9		 test	 ecx, ecx
  0068d	74 0c		 je	 SHORT $LN52@group_retu
  0068f	c7 85 74 ff ff
	ff 08 00 00 00	 mov	 DWORD PTR tv326[ebp], 8
  00699	eb 24		 jmp	 SHORT $LN53@group_retu
$LN52@group_retu:
  0069b	8b 15 00 00 00
	00		 mov	 edx, DWORD PTR ?__LINE__Var@?0??group_return_to_base@@YGXPAUENTITY@@@Z@4JA
  006a1	83 c2 79	 add	 edx, 121		; 00000079H
  006a4	52		 push	 edx
  006a5	68 00 00 00 00	 push	 OFFSET ??_C@_0EJ@CCBIJPFD@c?3?2users?2nhv90?2projects?2eech?2ap@
  006aa	a1 00 00 00 00	 mov	 eax, DWORD PTR ?overload_invalid_vec3d_type_message@@3PBDB ; overload_invalid_vec3d_type_message
  006af	50		 push	 eax
  006b0	e8 00 00 00 00	 call	 ?process_assert@@YGXPBD0H@Z ; process_assert
  006b5	c7 85 74 ff ff
	ff 00 00 00 00	 mov	 DWORD PTR tv326[ebp], 0
$LN53@group_retu:
  006bf	6a 08		 push	 8
  006c1	8b 4d fc	 mov	 ecx, DWORD PTR _wp$[ebp]
  006c4	51		 push	 ecx
  006c5	6b 95 78 ff ff
	ff 60		 imul	 edx, DWORD PTR tv318[ebp], 96
  006cc	8b 85 74 ff ff
	ff		 mov	 eax, DWORD PTR tv326[ebp]
  006d2	8b 8c 82 00 00
	00 00		 mov	 ecx, DWORD PTR ?fn_get_local_entity_vec3d_ptr@@3PAY0BI@P6GPAUVEC3D@@PAUENTITY@@W4VEC3D_TYPES@@@ZA[edx+eax*4]
  006d9	ff d1		 call	 ecx
  006db	89 45 e0	 mov	 DWORD PTR _wp_pos$[ebp], eax

; 945  : 
; 946  : 		d = ((wp_pos->x * normal.x) + (wp_pos->z * normal.z)) - ((pos->x * normal.x) + (pos->z * normal.z));

  006de	8b 45 e0	 mov	 eax, DWORD PTR _wp_pos$[ebp]
  006e1	f3 0f 10 00	 movss	 xmm0, DWORD PTR [eax]
  006e5	f3 0f 59 45 d0	 mulss	 xmm0, DWORD PTR _normal$[ebp]
  006ea	8b 4d e0	 mov	 ecx, DWORD PTR _wp_pos$[ebp]
  006ed	f3 0f 10 49 08	 movss	 xmm1, DWORD PTR [ecx+8]
  006f2	f3 0f 59 4d d8	 mulss	 xmm1, DWORD PTR _normal$[ebp+8]
  006f7	f3 0f 58 c1	 addss	 xmm0, xmm1
  006fb	8b 55 e4	 mov	 edx, DWORD PTR _pos$[ebp]
  006fe	f3 0f 10 0a	 movss	 xmm1, DWORD PTR [edx]
  00702	f3 0f 59 4d d0	 mulss	 xmm1, DWORD PTR _normal$[ebp]
  00707	8b 45 e4	 mov	 eax, DWORD PTR _pos$[ebp]
  0070a	f3 0f 10 50 08	 movss	 xmm2, DWORD PTR [eax+8]
  0070f	f3 0f 59 55 d8	 mulss	 xmm2, DWORD PTR _normal$[ebp+8]
  00714	f3 0f 58 ca	 addss	 xmm1, xmm2
  00718	f3 0f 5c c1	 subss	 xmm0, xmm1
  0071c	f3 0f 11 45 cc	 movss	 DWORD PTR _d$[ebp], xmm0

; 947  : 
; 948  : 		if (sign (d) == s)

  00721	f3 0f 10 45 cc	 movss	 xmm0, DWORD PTR _d$[ebp]
  00726	0f 2f 05 00 00
	00 00		 comiss	 xmm0, DWORD PTR __real@00000000
  0072d	72 0c		 jb	 SHORT $LN54@group_retu
  0072f	c7 85 78 ff ff
	ff 01 00 00 00	 mov	 DWORD PTR tv344[ebp], 1
  00739	eb 0a		 jmp	 SHORT $LN55@group_retu
$LN54@group_retu:
  0073b	c7 85 78 ff ff
	ff ff ff ff ff	 mov	 DWORD PTR tv344[ebp], -1
$LN55@group_retu:
  00745	8b 85 78 ff ff
	ff		 mov	 eax, DWORD PTR tv344[ebp]
  0074b	3b 45 c0	 cmp	 eax, DWORD PTR _s$[ebp]
  0074e	75 2b		 jne	 SHORT $LN14@group_retu

; 949  : 		{
; 950  : 			range = get_2d_range (wp_pos, pos);

  00750	8b 45 e4	 mov	 eax, DWORD PTR _pos$[ebp]
  00753	50		 push	 eax
  00754	8b 4d e0	 mov	 ecx, DWORD PTR _wp_pos$[ebp]
  00757	51		 push	 ecx
  00758	e8 00 00 00 00	 call	 ?get_2d_range@@YGMPBUVEC3D@@0@Z ; get_2d_range
  0075d	d9 5d c8	 fstp	 DWORD PTR _range$[ebp]

; 951  : 
; 952  : 			if (range < best_range)

  00760	f3 0f 10 45 c4	 movss	 xmm0, DWORD PTR _best_range$[ebp]
  00765	0f 2f 45 c8	 comiss	 xmm0, DWORD PTR _range$[ebp]
  00769	76 10		 jbe	 SHORT $LN14@group_retu

; 953  : 			{
; 954  : 				best_wp = wp;

  0076b	8b 45 fc	 mov	 eax, DWORD PTR _wp$[ebp]
  0076e	89 45 f0	 mov	 DWORD PTR _best_wp$[ebp], eax

; 955  : 
; 956  : 				best_range = range;

  00771	f3 0f 10 45 c8	 movss	 xmm0, DWORD PTR _range$[ebp]
  00776	f3 0f 11 45 c4	 movss	 DWORD PTR _best_range$[ebp], xmm0
$LN14@group_retu:

; 957  : 			}
; 958  : 		}
; 959  : 
; 960  : 		wp = get_local_entity_child_succ (wp, LIST_TYPE_WAYPOINT);

  0077b	83 7d fc 00	 cmp	 DWORD PTR _wp$[ebp], 0
  0077f	74 0d		 je	 SHORT $LN56@group_retu
  00781	8b 45 fc	 mov	 eax, DWORD PTR _wp$[ebp]
  00784	8b 08		 mov	 ecx, DWORD PTR [eax]
  00786	89 8d 78 ff ff
	ff		 mov	 DWORD PTR tv356[ebp], ecx
  0078c	eb 27		 jmp	 SHORT $LN57@group_retu
$LN56@group_retu:
  0078e	8b 15 00 00 00
	00		 mov	 edx, DWORD PTR ?__LINE__Var@?0??group_return_to_base@@YGXPAUENTITY@@@Z@4JA
  00794	81 c2 89 00 00
	00		 add	 edx, 137		; 00000089H
  0079a	52		 push	 edx
  0079b	68 00 00 00 00	 push	 OFFSET ??_C@_0EJ@CCBIJPFD@c?3?2users?2nhv90?2projects?2eech?2ap@
  007a0	a1 00 00 00 00	 mov	 eax, DWORD PTR ?null_entity_pointer_message@@3PBDB ; null_entity_pointer_message
  007a5	50		 push	 eax
  007a6	e8 00 00 00 00	 call	 ?process_assert@@YGXPBD0H@Z ; process_assert
  007ab	c7 85 78 ff ff
	ff 00 00 00 00	 mov	 DWORD PTR tv356[ebp], 0
$LN57@group_retu:
  007b5	b9 01 00 00 00	 mov	 ecx, 1
  007ba	85 c9		 test	 ecx, ecx
  007bc	74 0c		 je	 SHORT $LN58@group_retu
  007be	c7 85 74 ff ff
	ff 2c 00 00 00	 mov	 DWORD PTR tv364[ebp], 44 ; 0000002cH
  007c8	eb 27		 jmp	 SHORT $LN59@group_retu
$LN58@group_retu:
  007ca	8b 15 00 00 00
	00		 mov	 edx, DWORD PTR ?__LINE__Var@?0??group_return_to_base@@YGXPAUENTITY@@@Z@4JA
  007d0	81 c2 89 00 00
	00		 add	 edx, 137		; 00000089H
  007d6	52		 push	 edx
  007d7	68 00 00 00 00	 push	 OFFSET ??_C@_0EJ@CCBIJPFD@c?3?2users?2nhv90?2projects?2eech?2ap@
  007dc	a1 00 00 00 00	 mov	 eax, DWORD PTR ?overload_invalid_list_type_message@@3PBDB ; overload_invalid_list_type_message
  007e1	50		 push	 eax
  007e2	e8 00 00 00 00	 call	 ?process_assert@@YGXPBD0H@Z ; process_assert
  007e7	c7 85 74 ff ff
	ff 00 00 00 00	 mov	 DWORD PTR tv364[ebp], 0
$LN59@group_retu:
  007f1	6a 2c		 push	 44			; 0000002cH
  007f3	8b 4d fc	 mov	 ecx, DWORD PTR _wp$[ebp]
  007f6	51		 push	 ecx
  007f7	69 95 78 ff ff
	ff b4 00 00 00	 imul	 edx, DWORD PTR tv356[ebp], 180
  00801	8b 85 74 ff ff
	ff		 mov	 eax, DWORD PTR tv364[ebp]
  00807	8b 8c 82 00 00
	00 00		 mov	 ecx, DWORD PTR ?fn_get_local_entity_child_succ@@3PAY0CN@P6GPAUENTITY@@PAU1@W4LIST_TYPES@@@ZA[edx+eax*4]
  0080e	ff d1		 call	 ecx
  00810	89 45 fc	 mov	 DWORD PTR _wp$[ebp], eax

; 961  : 	}

  00813	e9 2d fe ff ff	 jmp	 $LN4@group_retu
$LN5@group_retu:

; 962  : 
; 963  : 	//
; 964  : 	// set guide to best waypoint
; 965  : 	//
; 966  : 
; 967  : 	set_guide_new_waypoint (guide, best_wp);

  00818	8b 45 f0	 mov	 eax, DWORD PTR _best_wp$[ebp]
  0081b	50		 push	 eax
  0081c	8b 4d f8	 mov	 ecx, DWORD PTR _guide$[ebp]
  0081f	51		 push	 ecx
  00820	e8 00 00 00 00	 call	 ?set_guide_new_waypoint@@YGHPAUENTITY@@0@Z ; set_guide_new_waypoint
$LN1@group_retu:

; 968  : }

  00825	5f		 pop	 edi
  00826	5e		 pop	 esi
  00827	5b		 pop	 ebx
  00828	8b e5		 mov	 esp, ebp
  0082a	5d		 pop	 ebp
  0082b	c2 04 00	 ret	 4
?group_return_to_base@@YGXPAUENTITY@@@Z ENDP		; group_return_to_base
_TEXT	ENDS
; Function compile flags: /Odtp /ZI
; File c:\users\nhv90\projects\eech\aphavoc\source\entity\special\group\group.c
;	COMDAT ?set_group_formation_positions@@YGXPAUENTITY@@@Z
_TEXT	SEGMENT
tv141 = -84						; size = 4
tv133 = -80						; size = 4
tv183 = -76						; size = 4
tv160 = -76						; size = 4
tv88 = -76						; size = 4
tv175 = -72						; size = 4
tv152 = -72						; size = 4
tv80 = -72						; size = 4
_member$ = -4						; size = 4
_en$ = 8						; size = 4
?set_group_formation_positions@@YGXPAUENTITY@@@Z PROC	; set_group_formation_positions, COMDAT

; 800  : {

  00000	55		 push	 ebp
  00001	8b ec		 mov	 ebp, esp
  00003	83 ec 54	 sub	 esp, 84			; 00000054H
  00006	53		 push	 ebx
  00007	56		 push	 esi
  00008	57		 push	 edi

; 801  : 	entity
; 802  : 		*member;
; 803  : 
; 804  : 	ASSERT (en);

  00009	83 7d 08 00	 cmp	 DWORD PTR _en$[ebp], 0
  0000d	75 18		 jne	 SHORT $LN4@set_group_
  0000f	a1 00 00 00 00	 mov	 eax, DWORD PTR ?__LINE__Var@?0??set_group_formation_positions@@YGXPAUENTITY@@@Z@4JA
  00014	83 c0 04	 add	 eax, 4
  00017	50		 push	 eax
  00018	68 00 00 00 00	 push	 OFFSET ??_C@_0EJ@CCBIJPFD@c?3?2users?2nhv90?2projects?2eech?2ap@
  0001d	68 00 00 00 00	 push	 OFFSET ??_C@_02LFNMGJAP@en@
  00022	e8 00 00 00 00	 call	 ?process_assert@@YGXPBD0H@Z ; process_assert
$LN4@set_group_:

; 805  : 
; 806  : 	ASSERT (get_comms_model () == COMMS_MODEL_SERVER);

  00027	83 3d 00 00 00
	00 00		 cmp	 DWORD PTR ?system_comms_model@@3W4COMMS_MODEL_TYPES@@A, 0 ; system_comms_model
  0002e	74 18		 je	 SHORT $LN5@set_group_
  00030	a1 00 00 00 00	 mov	 eax, DWORD PTR ?__LINE__Var@?0??set_group_formation_positions@@YGXPAUENTITY@@@Z@4JA
  00035	83 c0 06	 add	 eax, 6
  00038	50		 push	 eax
  00039	68 00 00 00 00	 push	 OFFSET ??_C@_0EJ@CCBIJPFD@c?3?2users?2nhv90?2projects?2eech?2ap@
  0003e	68 00 00 00 00	 push	 OFFSET ??_C@_0CJ@DMBLBJBK@get_comms_model?5?$CI?$CJ?5?$DN?$DN?5COMMS_MOD@
  00043	e8 00 00 00 00	 call	 ?process_assert@@YGXPBD0H@Z ; process_assert
$LN5@set_group_:

; 807  : 
; 808  : 	member = get_local_entity_first_child (en, LIST_TYPE_MEMBER);

  00048	83 7d 08 00	 cmp	 DWORD PTR _en$[ebp], 0
  0004c	74 0a		 je	 SHORT $LN7@set_group_
  0004e	8b 45 08	 mov	 eax, DWORD PTR _en$[ebp]
  00051	8b 08		 mov	 ecx, DWORD PTR [eax]
  00053	89 4d b8	 mov	 DWORD PTR tv80[ebp], ecx
  00056	eb 21		 jmp	 SHORT $LN8@set_group_
$LN7@set_group_:
  00058	8b 15 00 00 00
	00		 mov	 edx, DWORD PTR ?__LINE__Var@?0??set_group_formation_positions@@YGXPAUENTITY@@@Z@4JA
  0005e	83 c2 08	 add	 edx, 8
  00061	52		 push	 edx
  00062	68 00 00 00 00	 push	 OFFSET ??_C@_0EJ@CCBIJPFD@c?3?2users?2nhv90?2projects?2eech?2ap@
  00067	a1 00 00 00 00	 mov	 eax, DWORD PTR ?null_entity_pointer_message@@3PBDB ; null_entity_pointer_message
  0006c	50		 push	 eax
  0006d	e8 00 00 00 00	 call	 ?process_assert@@YGXPBD0H@Z ; process_assert
  00072	c7 45 b8 00 00
	00 00		 mov	 DWORD PTR tv80[ebp], 0
$LN8@set_group_:
  00079	b9 01 00 00 00	 mov	 ecx, 1
  0007e	85 c9		 test	 ecx, ecx
  00080	74 09		 je	 SHORT $LN9@set_group_
  00082	c7 45 b4 19 00
	00 00		 mov	 DWORD PTR tv88[ebp], 25	; 00000019H
  00089	eb 21		 jmp	 SHORT $LN10@set_group_
$LN9@set_group_:
  0008b	8b 15 00 00 00
	00		 mov	 edx, DWORD PTR ?__LINE__Var@?0??set_group_formation_positions@@YGXPAUENTITY@@@Z@4JA
  00091	83 c2 08	 add	 edx, 8
  00094	52		 push	 edx
  00095	68 00 00 00 00	 push	 OFFSET ??_C@_0EJ@CCBIJPFD@c?3?2users?2nhv90?2projects?2eech?2ap@
  0009a	a1 00 00 00 00	 mov	 eax, DWORD PTR ?overload_invalid_list_type_message@@3PBDB ; overload_invalid_list_type_message
  0009f	50		 push	 eax
  000a0	e8 00 00 00 00	 call	 ?process_assert@@YGXPBD0H@Z ; process_assert
  000a5	c7 45 b4 00 00
	00 00		 mov	 DWORD PTR tv88[ebp], 0
$LN10@set_group_:
  000ac	6a 19		 push	 25			; 00000019H
  000ae	8b 4d 08	 mov	 ecx, DWORD PTR _en$[ebp]
  000b1	51		 push	 ecx
  000b2	69 55 b8 b4 00
	00 00		 imul	 edx, DWORD PTR tv80[ebp], 180
  000b9	8b 45 b4	 mov	 eax, DWORD PTR tv88[ebp]
  000bc	8b 8c 82 00 00
	00 00		 mov	 ecx, DWORD PTR ?fn_get_local_entity_first_child@@3PAY0CN@P6GPAUENTITY@@PAU1@W4LIST_TYPES@@@ZA[edx+eax*4]
  000c3	ff d1		 call	 ecx
  000c5	89 45 fc	 mov	 DWORD PTR _member$[ebp], eax
$LN2@set_group_:

; 809  : 
; 810  : 	while (member)

  000c8	83 7d fc 00	 cmp	 DWORD PTR _member$[ebp], 0
  000cc	0f 84 89 01 00
	00		 je	 $LN1@set_group_

; 811  : 	{
; 812  : 		set_client_server_entity_int_value (member, INT_TYPE_FORMATION_POSITION, get_local_entity_int_value (member, INT_TYPE_GROUP_MEMBER_NUMBER));

  000d2	83 7d fc 00	 cmp	 DWORD PTR _member$[ebp], 0
  000d6	74 0a		 je	 SHORT $LN15@set_group_
  000d8	8b 45 fc	 mov	 eax, DWORD PTR _member$[ebp]
  000db	8b 08		 mov	 ecx, DWORD PTR [eax]
  000dd	89 4d b8	 mov	 DWORD PTR tv152[ebp], ecx
  000e0	eb 21		 jmp	 SHORT $LN16@set_group_
$LN15@set_group_:
  000e2	8b 15 00 00 00
	00		 mov	 edx, DWORD PTR ?__LINE__Var@?0??set_group_formation_positions@@YGXPAUENTITY@@@Z@4JA
  000e8	83 c2 0c	 add	 edx, 12			; 0000000cH
  000eb	52		 push	 edx
  000ec	68 00 00 00 00	 push	 OFFSET ??_C@_0EJ@CCBIJPFD@c?3?2users?2nhv90?2projects?2eech?2ap@
  000f1	a1 00 00 00 00	 mov	 eax, DWORD PTR ?null_entity_pointer_message@@3PBDB ; null_entity_pointer_message
  000f6	50		 push	 eax
  000f7	e8 00 00 00 00	 call	 ?process_assert@@YGXPBD0H@Z ; process_assert
  000fc	c7 45 b8 00 00
	00 00		 mov	 DWORD PTR tv152[ebp], 0
$LN16@set_group_:
  00103	b9 01 00 00 00	 mov	 ecx, 1
  00108	85 c9		 test	 ecx, ecx
  0010a	74 09		 je	 SHORT $LN17@set_group_
  0010c	c7 45 b4 4b 00
	00 00		 mov	 DWORD PTR tv160[ebp], 75 ; 0000004bH
  00113	eb 21		 jmp	 SHORT $LN18@set_group_
$LN17@set_group_:
  00115	8b 15 00 00 00
	00		 mov	 edx, DWORD PTR ?__LINE__Var@?0??set_group_formation_positions@@YGXPAUENTITY@@@Z@4JA
  0011b	83 c2 0c	 add	 edx, 12			; 0000000cH
  0011e	52		 push	 edx
  0011f	68 00 00 00 00	 push	 OFFSET ??_C@_0EJ@CCBIJPFD@c?3?2users?2nhv90?2projects?2eech?2ap@
  00124	a1 00 00 00 00	 mov	 eax, DWORD PTR ?overload_invalid_int_type_message@@3PBDB ; overload_invalid_int_type_message
  00129	50		 push	 eax
  0012a	e8 00 00 00 00	 call	 ?process_assert@@YGXPBD0H@Z ; process_assert
  0012f	c7 45 b4 00 00
	00 00		 mov	 DWORD PTR tv160[ebp], 0
$LN18@set_group_:
  00136	83 7d fc 00	 cmp	 DWORD PTR _member$[ebp], 0
  0013a	74 0a		 je	 SHORT $LN11@set_group_
  0013c	8b 4d fc	 mov	 ecx, DWORD PTR _member$[ebp]
  0013f	8b 11		 mov	 edx, DWORD PTR [ecx]
  00141	89 55 b0	 mov	 DWORD PTR tv133[ebp], edx
  00144	eb 21		 jmp	 SHORT $LN12@set_group_
$LN11@set_group_:
  00146	a1 00 00 00 00	 mov	 eax, DWORD PTR ?__LINE__Var@?0??set_group_formation_positions@@YGXPAUENTITY@@@Z@4JA
  0014b	83 c0 0c	 add	 eax, 12			; 0000000cH
  0014e	50		 push	 eax
  0014f	68 00 00 00 00	 push	 OFFSET ??_C@_0EJ@CCBIJPFD@c?3?2users?2nhv90?2projects?2eech?2ap@
  00154	8b 0d 00 00 00
	00		 mov	 ecx, DWORD PTR ?null_entity_pointer_message@@3PBDB ; null_entity_pointer_message
  0015a	51		 push	 ecx
  0015b	e8 00 00 00 00	 call	 ?process_assert@@YGXPBD0H@Z ; process_assert
  00160	c7 45 b0 00 00
	00 00		 mov	 DWORD PTR tv133[ebp], 0
$LN12@set_group_:
  00167	ba 01 00 00 00	 mov	 edx, 1
  0016c	85 d2		 test	 edx, edx
  0016e	74 09		 je	 SHORT $LN13@set_group_
  00170	c7 45 ac 3e 00
	00 00		 mov	 DWORD PTR tv141[ebp], 62 ; 0000003eH
  00177	eb 21		 jmp	 SHORT $LN14@set_group_
$LN13@set_group_:
  00179	a1 00 00 00 00	 mov	 eax, DWORD PTR ?__LINE__Var@?0??set_group_formation_positions@@YGXPAUENTITY@@@Z@4JA
  0017e	83 c0 0c	 add	 eax, 12			; 0000000cH
  00181	50		 push	 eax
  00182	68 00 00 00 00	 push	 OFFSET ??_C@_0EJ@CCBIJPFD@c?3?2users?2nhv90?2projects?2eech?2ap@
  00187	8b 0d 00 00 00
	00		 mov	 ecx, DWORD PTR ?overload_invalid_int_type_message@@3PBDB ; overload_invalid_int_type_message
  0018d	51		 push	 ecx
  0018e	e8 00 00 00 00	 call	 ?process_assert@@YGXPBD0H@Z ; process_assert
  00193	c7 45 ac 00 00
	00 00		 mov	 DWORD PTR tv141[ebp], 0
$LN14@set_group_:
  0019a	6a 4b		 push	 75			; 0000004bH
  0019c	8b 55 fc	 mov	 edx, DWORD PTR _member$[ebp]
  0019f	52		 push	 edx
  001a0	69 45 b8 5c 04
	00 00		 imul	 eax, DWORD PTR tv152[ebp], 1116
  001a7	8b 4d b4	 mov	 ecx, DWORD PTR tv160[ebp]
  001aa	8b 94 88 00 00
	00 00		 mov	 edx, DWORD PTR ?fn_get_local_entity_int_value@@3PAY0BBH@P6GHPAUENTITY@@W4INT_TYPES@@@ZA[eax+ecx*4]
  001b1	ff d2		 call	 edx
  001b3	50		 push	 eax
  001b4	6a 3e		 push	 62			; 0000003eH
  001b6	8b 45 fc	 mov	 eax, DWORD PTR _member$[ebp]
  001b9	50		 push	 eax
  001ba	69 4d b0 b8 08
	00 00		 imul	 ecx, DWORD PTR tv133[ebp], 2232
  001c1	8b 55 ac	 mov	 edx, DWORD PTR tv141[ebp]
  001c4	8d 84 d1 00 00
	00 00		 lea	 eax, DWORD PTR ?fn_set_client_server_entity_int_value@@3PAY1BBH@1P6GXPAUENTITY@@W4INT_TYPES@@H@ZA[ecx+edx*8]
  001cb	8b 0d 00 00 00
	00		 mov	 ecx, DWORD PTR ?system_comms_model@@3W4COMMS_MODEL_TYPES@@A ; system_comms_model
  001d1	8b 14 88	 mov	 edx, DWORD PTR [eax+ecx*4]
  001d4	ff d2		 call	 edx

; 813  : 
; 814  : 		member = get_local_entity_child_succ (member, LIST_TYPE_MEMBER);

  001d6	83 7d fc 00	 cmp	 DWORD PTR _member$[ebp], 0
  001da	74 0a		 je	 SHORT $LN19@set_group_
  001dc	8b 45 fc	 mov	 eax, DWORD PTR _member$[ebp]
  001df	8b 08		 mov	 ecx, DWORD PTR [eax]
  001e1	89 4d b8	 mov	 DWORD PTR tv175[ebp], ecx
  001e4	eb 21		 jmp	 SHORT $LN20@set_group_
$LN19@set_group_:
  001e6	8b 15 00 00 00
	00		 mov	 edx, DWORD PTR ?__LINE__Var@?0??set_group_formation_positions@@YGXPAUENTITY@@@Z@4JA
  001ec	83 c2 0e	 add	 edx, 14			; 0000000eH
  001ef	52		 push	 edx
  001f0	68 00 00 00 00	 push	 OFFSET ??_C@_0EJ@CCBIJPFD@c?3?2users?2nhv90?2projects?2eech?2ap@
  001f5	a1 00 00 00 00	 mov	 eax, DWORD PTR ?null_entity_pointer_message@@3PBDB ; null_entity_pointer_message
  001fa	50		 push	 eax
  001fb	e8 00 00 00 00	 call	 ?process_assert@@YGXPBD0H@Z ; process_assert
  00200	c7 45 b8 00 00
	00 00		 mov	 DWORD PTR tv175[ebp], 0
$LN20@set_group_:
  00207	b9 01 00 00 00	 mov	 ecx, 1
  0020c	85 c9		 test	 ecx, ecx
  0020e	74 09		 je	 SHORT $LN21@set_group_
  00210	c7 45 b4 19 00
	00 00		 mov	 DWORD PTR tv183[ebp], 25 ; 00000019H
  00217	eb 21		 jmp	 SHORT $LN22@set_group_
$LN21@set_group_:
  00219	8b 15 00 00 00
	00		 mov	 edx, DWORD PTR ?__LINE__Var@?0??set_group_formation_positions@@YGXPAUENTITY@@@Z@4JA
  0021f	83 c2 0e	 add	 edx, 14			; 0000000eH
  00222	52		 push	 edx
  00223	68 00 00 00 00	 push	 OFFSET ??_C@_0EJ@CCBIJPFD@c?3?2users?2nhv90?2projects?2eech?2ap@
  00228	a1 00 00 00 00	 mov	 eax, DWORD PTR ?overload_invalid_list_type_message@@3PBDB ; overload_invalid_list_type_message
  0022d	50		 push	 eax
  0022e	e8 00 00 00 00	 call	 ?process_assert@@YGXPBD0H@Z ; process_assert
  00233	c7 45 b4 00 00
	00 00		 mov	 DWORD PTR tv183[ebp], 0
$LN22@set_group_:
  0023a	6a 19		 push	 25			; 00000019H
  0023c	8b 4d fc	 mov	 ecx, DWORD PTR _member$[ebp]
  0023f	51		 push	 ecx
  00240	69 55 b8 b4 00
	00 00		 imul	 edx, DWORD PTR tv175[ebp], 180
  00247	8b 45 b4	 mov	 eax, DWORD PTR tv183[ebp]
  0024a	8b 8c 82 00 00
	00 00		 mov	 ecx, DWORD PTR ?fn_get_local_entity_child_succ@@3PAY0CN@P6GPAUENTITY@@PAU1@W4LIST_TYPES@@@ZA[edx+eax*4]
  00251	ff d1		 call	 ecx
  00253	89 45 fc	 mov	 DWORD PTR _member$[ebp], eax

; 815  : 	}

  00256	e9 6d fe ff ff	 jmp	 $LN2@set_group_
$LN1@set_group_:

; 816  : }

  0025b	5f		 pop	 edi
  0025c	5e		 pop	 esi
  0025d	5b		 pop	 ebx
  0025e	8b e5		 mov	 esp, ebp
  00260	5d		 pop	 ebp
  00261	c2 04 00	 ret	 4
?set_group_formation_positions@@YGXPAUENTITY@@@Z ENDP	; set_group_formation_positions
_TEXT	ENDS
; Function compile flags: /Odtp /ZI
; File c:\users\nhv90\projects\eech\aphavoc\source\entity\special\group\group.c
;	COMDAT ?set_group_member_numbers@@YGXPAUENTITY@@@Z
_TEXT	SEGMENT
tv163 = -80						; size = 4
tv141 = -80						; size = 4
tv88 = -80						; size = 4
tv155 = -76						; size = 4
tv133 = -76						; size = 4
tv80 = -76						; size = 4
_member$ = -8						; size = 4
_number$ = -4						; size = 4
_en$ = 8						; size = 4
?set_group_member_numbers@@YGXPAUENTITY@@@Z PROC	; set_group_member_numbers, COMDAT

; 770  : {

  00000	55		 push	 ebp
  00001	8b ec		 mov	 ebp, esp
  00003	83 ec 50	 sub	 esp, 80			; 00000050H
  00006	53		 push	 ebx
  00007	56		 push	 esi
  00008	57		 push	 edi

; 771  : 	int
; 772  : 		number;
; 773  : 
; 774  : 	entity
; 775  : 		*member;
; 776  : 
; 777  : 	ASSERT (en);

  00009	83 7d 08 00	 cmp	 DWORD PTR _en$[ebp], 0
  0000d	75 18		 jne	 SHORT $LN4@set_group_
  0000f	a1 00 00 00 00	 mov	 eax, DWORD PTR ?__LINE__Var@?0??set_group_member_numbers@@YGXPAUENTITY@@@Z@4JA
  00014	83 c0 07	 add	 eax, 7
  00017	50		 push	 eax
  00018	68 00 00 00 00	 push	 OFFSET ??_C@_0EJ@CCBIJPFD@c?3?2users?2nhv90?2projects?2eech?2ap@
  0001d	68 00 00 00 00	 push	 OFFSET ??_C@_02LFNMGJAP@en@
  00022	e8 00 00 00 00	 call	 ?process_assert@@YGXPBD0H@Z ; process_assert
$LN4@set_group_:

; 778  : 
; 779  : 	ASSERT (get_comms_model () == COMMS_MODEL_SERVER);

  00027	83 3d 00 00 00
	00 00		 cmp	 DWORD PTR ?system_comms_model@@3W4COMMS_MODEL_TYPES@@A, 0 ; system_comms_model
  0002e	74 18		 je	 SHORT $LN5@set_group_
  00030	a1 00 00 00 00	 mov	 eax, DWORD PTR ?__LINE__Var@?0??set_group_member_numbers@@YGXPAUENTITY@@@Z@4JA
  00035	83 c0 09	 add	 eax, 9
  00038	50		 push	 eax
  00039	68 00 00 00 00	 push	 OFFSET ??_C@_0EJ@CCBIJPFD@c?3?2users?2nhv90?2projects?2eech?2ap@
  0003e	68 00 00 00 00	 push	 OFFSET ??_C@_0CJ@DMBLBJBK@get_comms_model?5?$CI?$CJ?5?$DN?$DN?5COMMS_MOD@
  00043	e8 00 00 00 00	 call	 ?process_assert@@YGXPBD0H@Z ; process_assert
$LN5@set_group_:

; 780  : 
; 781  : 	number = 0;

  00048	c7 45 fc 00 00
	00 00		 mov	 DWORD PTR _number$[ebp], 0

; 782  : 
; 783  : 	member = get_local_entity_first_child (en, LIST_TYPE_MEMBER);

  0004f	83 7d 08 00	 cmp	 DWORD PTR _en$[ebp], 0
  00053	74 0a		 je	 SHORT $LN7@set_group_
  00055	8b 45 08	 mov	 eax, DWORD PTR _en$[ebp]
  00058	8b 08		 mov	 ecx, DWORD PTR [eax]
  0005a	89 4d b4	 mov	 DWORD PTR tv80[ebp], ecx
  0005d	eb 21		 jmp	 SHORT $LN8@set_group_
$LN7@set_group_:
  0005f	8b 15 00 00 00
	00		 mov	 edx, DWORD PTR ?__LINE__Var@?0??set_group_member_numbers@@YGXPAUENTITY@@@Z@4JA
  00065	83 c2 0d	 add	 edx, 13			; 0000000dH
  00068	52		 push	 edx
  00069	68 00 00 00 00	 push	 OFFSET ??_C@_0EJ@CCBIJPFD@c?3?2users?2nhv90?2projects?2eech?2ap@
  0006e	a1 00 00 00 00	 mov	 eax, DWORD PTR ?null_entity_pointer_message@@3PBDB ; null_entity_pointer_message
  00073	50		 push	 eax
  00074	e8 00 00 00 00	 call	 ?process_assert@@YGXPBD0H@Z ; process_assert
  00079	c7 45 b4 00 00
	00 00		 mov	 DWORD PTR tv80[ebp], 0
$LN8@set_group_:
  00080	b9 01 00 00 00	 mov	 ecx, 1
  00085	85 c9		 test	 ecx, ecx
  00087	74 09		 je	 SHORT $LN9@set_group_
  00089	c7 45 b0 19 00
	00 00		 mov	 DWORD PTR tv88[ebp], 25	; 00000019H
  00090	eb 21		 jmp	 SHORT $LN10@set_group_
$LN9@set_group_:
  00092	8b 15 00 00 00
	00		 mov	 edx, DWORD PTR ?__LINE__Var@?0??set_group_member_numbers@@YGXPAUENTITY@@@Z@4JA
  00098	83 c2 0d	 add	 edx, 13			; 0000000dH
  0009b	52		 push	 edx
  0009c	68 00 00 00 00	 push	 OFFSET ??_C@_0EJ@CCBIJPFD@c?3?2users?2nhv90?2projects?2eech?2ap@
  000a1	a1 00 00 00 00	 mov	 eax, DWORD PTR ?overload_invalid_list_type_message@@3PBDB ; overload_invalid_list_type_message
  000a6	50		 push	 eax
  000a7	e8 00 00 00 00	 call	 ?process_assert@@YGXPBD0H@Z ; process_assert
  000ac	c7 45 b0 00 00
	00 00		 mov	 DWORD PTR tv88[ebp], 0
$LN10@set_group_:
  000b3	6a 19		 push	 25			; 00000019H
  000b5	8b 4d 08	 mov	 ecx, DWORD PTR _en$[ebp]
  000b8	51		 push	 ecx
  000b9	69 55 b4 b4 00
	00 00		 imul	 edx, DWORD PTR tv80[ebp], 180
  000c0	8b 45 b0	 mov	 eax, DWORD PTR tv88[ebp]
  000c3	8b 8c 82 00 00
	00 00		 mov	 ecx, DWORD PTR ?fn_get_local_entity_first_child@@3PAY0CN@P6GPAUENTITY@@PAU1@W4LIST_TYPES@@@ZA[edx+eax*4]
  000ca	ff d1		 call	 ecx
  000cc	89 45 f8	 mov	 DWORD PTR _member$[ebp], eax
$LN2@set_group_:

; 784  : 
; 785  : 	while (member)

  000cf	83 7d f8 00	 cmp	 DWORD PTR _member$[ebp], 0
  000d3	0f 84 17 01 00
	00		 je	 $LN1@set_group_

; 786  : 	{
; 787  : 		set_client_server_entity_int_value (member, INT_TYPE_GROUP_MEMBER_NUMBER, number);

  000d9	83 7d f8 00	 cmp	 DWORD PTR _member$[ebp], 0
  000dd	74 0a		 je	 SHORT $LN11@set_group_
  000df	8b 45 f8	 mov	 eax, DWORD PTR _member$[ebp]
  000e2	8b 08		 mov	 ecx, DWORD PTR [eax]
  000e4	89 4d b4	 mov	 DWORD PTR tv133[ebp], ecx
  000e7	eb 21		 jmp	 SHORT $LN12@set_group_
$LN11@set_group_:
  000e9	8b 15 00 00 00
	00		 mov	 edx, DWORD PTR ?__LINE__Var@?0??set_group_member_numbers@@YGXPAUENTITY@@@Z@4JA
  000ef	83 c2 11	 add	 edx, 17			; 00000011H
  000f2	52		 push	 edx
  000f3	68 00 00 00 00	 push	 OFFSET ??_C@_0EJ@CCBIJPFD@c?3?2users?2nhv90?2projects?2eech?2ap@
  000f8	a1 00 00 00 00	 mov	 eax, DWORD PTR ?null_entity_pointer_message@@3PBDB ; null_entity_pointer_message
  000fd	50		 push	 eax
  000fe	e8 00 00 00 00	 call	 ?process_assert@@YGXPBD0H@Z ; process_assert
  00103	c7 45 b4 00 00
	00 00		 mov	 DWORD PTR tv133[ebp], 0
$LN12@set_group_:
  0010a	b9 01 00 00 00	 mov	 ecx, 1
  0010f	85 c9		 test	 ecx, ecx
  00111	74 09		 je	 SHORT $LN13@set_group_
  00113	c7 45 b0 4b 00
	00 00		 mov	 DWORD PTR tv141[ebp], 75 ; 0000004bH
  0011a	eb 21		 jmp	 SHORT $LN14@set_group_
$LN13@set_group_:
  0011c	8b 15 00 00 00
	00		 mov	 edx, DWORD PTR ?__LINE__Var@?0??set_group_member_numbers@@YGXPAUENTITY@@@Z@4JA
  00122	83 c2 11	 add	 edx, 17			; 00000011H
  00125	52		 push	 edx
  00126	68 00 00 00 00	 push	 OFFSET ??_C@_0EJ@CCBIJPFD@c?3?2users?2nhv90?2projects?2eech?2ap@
  0012b	a1 00 00 00 00	 mov	 eax, DWORD PTR ?overload_invalid_int_type_message@@3PBDB ; overload_invalid_int_type_message
  00130	50		 push	 eax
  00131	e8 00 00 00 00	 call	 ?process_assert@@YGXPBD0H@Z ; process_assert
  00136	c7 45 b0 00 00
	00 00		 mov	 DWORD PTR tv141[ebp], 0
$LN14@set_group_:
  0013d	8b 4d fc	 mov	 ecx, DWORD PTR _number$[ebp]
  00140	51		 push	 ecx
  00141	6a 4b		 push	 75			; 0000004bH
  00143	8b 55 f8	 mov	 edx, DWORD PTR _member$[ebp]
  00146	52		 push	 edx
  00147	69 45 b4 b8 08
	00 00		 imul	 eax, DWORD PTR tv133[ebp], 2232
  0014e	8b 4d b0	 mov	 ecx, DWORD PTR tv141[ebp]
  00151	8d 94 c8 00 00
	00 00		 lea	 edx, DWORD PTR ?fn_set_client_server_entity_int_value@@3PAY1BBH@1P6GXPAUENTITY@@W4INT_TYPES@@H@ZA[eax+ecx*8]
  00158	a1 00 00 00 00	 mov	 eax, DWORD PTR ?system_comms_model@@3W4COMMS_MODEL_TYPES@@A ; system_comms_model
  0015d	8b 0c 82	 mov	 ecx, DWORD PTR [edx+eax*4]
  00160	ff d1		 call	 ecx

; 788  : 
; 789  : 		member = get_local_entity_child_succ (member, LIST_TYPE_MEMBER);

  00162	83 7d f8 00	 cmp	 DWORD PTR _member$[ebp], 0
  00166	74 0a		 je	 SHORT $LN15@set_group_
  00168	8b 45 f8	 mov	 eax, DWORD PTR _member$[ebp]
  0016b	8b 08		 mov	 ecx, DWORD PTR [eax]
  0016d	89 4d b4	 mov	 DWORD PTR tv155[ebp], ecx
  00170	eb 21		 jmp	 SHORT $LN16@set_group_
$LN15@set_group_:
  00172	8b 15 00 00 00
	00		 mov	 edx, DWORD PTR ?__LINE__Var@?0??set_group_member_numbers@@YGXPAUENTITY@@@Z@4JA
  00178	83 c2 13	 add	 edx, 19			; 00000013H
  0017b	52		 push	 edx
  0017c	68 00 00 00 00	 push	 OFFSET ??_C@_0EJ@CCBIJPFD@c?3?2users?2nhv90?2projects?2eech?2ap@
  00181	a1 00 00 00 00	 mov	 eax, DWORD PTR ?null_entity_pointer_message@@3PBDB ; null_entity_pointer_message
  00186	50		 push	 eax
  00187	e8 00 00 00 00	 call	 ?process_assert@@YGXPBD0H@Z ; process_assert
  0018c	c7 45 b4 00 00
	00 00		 mov	 DWORD PTR tv155[ebp], 0
$LN16@set_group_:
  00193	b9 01 00 00 00	 mov	 ecx, 1
  00198	85 c9		 test	 ecx, ecx
  0019a	74 09		 je	 SHORT $LN17@set_group_
  0019c	c7 45 b0 19 00
	00 00		 mov	 DWORD PTR tv163[ebp], 25 ; 00000019H
  001a3	eb 21		 jmp	 SHORT $LN18@set_group_
$LN17@set_group_:
  001a5	8b 15 00 00 00
	00		 mov	 edx, DWORD PTR ?__LINE__Var@?0??set_group_member_numbers@@YGXPAUENTITY@@@Z@4JA
  001ab	83 c2 13	 add	 edx, 19			; 00000013H
  001ae	52		 push	 edx
  001af	68 00 00 00 00	 push	 OFFSET ??_C@_0EJ@CCBIJPFD@c?3?2users?2nhv90?2projects?2eech?2ap@
  001b4	a1 00 00 00 00	 mov	 eax, DWORD PTR ?overload_invalid_list_type_message@@3PBDB ; overload_invalid_list_type_message
  001b9	50		 push	 eax
  001ba	e8 00 00 00 00	 call	 ?process_assert@@YGXPBD0H@Z ; process_assert
  001bf	c7 45 b0 00 00
	00 00		 mov	 DWORD PTR tv163[ebp], 0
$LN18@set_group_:
  001c6	6a 19		 push	 25			; 00000019H
  001c8	8b 4d f8	 mov	 ecx, DWORD PTR _member$[ebp]
  001cb	51		 push	 ecx
  001cc	69 55 b4 b4 00
	00 00		 imul	 edx, DWORD PTR tv155[ebp], 180
  001d3	8b 45 b0	 mov	 eax, DWORD PTR tv163[ebp]
  001d6	8b 8c 82 00 00
	00 00		 mov	 ecx, DWORD PTR ?fn_get_local_entity_child_succ@@3PAY0CN@P6GPAUENTITY@@PAU1@W4LIST_TYPES@@@ZA[edx+eax*4]
  001dd	ff d1		 call	 ecx
  001df	89 45 f8	 mov	 DWORD PTR _member$[ebp], eax

; 790  : 
; 791  : 		number ++;

  001e2	8b 45 fc	 mov	 eax, DWORD PTR _number$[ebp]
  001e5	83 c0 01	 add	 eax, 1
  001e8	89 45 fc	 mov	 DWORD PTR _number$[ebp], eax

; 792  : 	}

  001eb	e9 df fe ff ff	 jmp	 $LN2@set_group_
$LN1@set_group_:

; 793  : }

  001f0	5f		 pop	 edi
  001f1	5e		 pop	 esi
  001f2	5b		 pop	 ebx
  001f3	8b e5		 mov	 esp, ebp
  001f5	5d		 pop	 ebp
  001f6	c2 04 00	 ret	 4
?set_group_member_numbers@@YGXPAUENTITY@@@Z ENDP	; set_group_member_numbers
_TEXT	ENDS
; Function compile flags: /Odtp /ZI
; File c:\users\nhv90\projects\eech\aphavoc\source\entity\special\group\group.c
;	COMDAT ?assess_group_supplies@@YGXPAUENTITY@@@Z
_TEXT	SEGMENT
tv459 = -96						; size = 4
tv310 = -96						; size = 4
tv500 = -92						; size = 4
tv478 = -92						; size = 4
tv461 = -92						; size = 8
tv444 = -92						; size = 4
tv413 = -92						; size = 4
tv381 = -92						; size = 4
tv351 = -92						; size = 4
tv329 = -92						; size = 4
tv312 = -92						; size = 8
tv295 = -92						; size = 4
tv264 = -92						; size = 4
tv232 = -92						; size = 4
tv207 = -92						; size = 4
tv188 = -92						; size = 4
tv165 = -92						; size = 4
tv135 = -92						; size = 4
tv77 = -92						; size = 4
tv492 = -88						; size = 4
tv470 = -88						; size = 4
tv436 = -88						; size = 4
tv405 = -88						; size = 4
tv393 = -88						; size = 4
tv373 = -88						; size = 4
tv343 = -88						; size = 4
tv321 = -88						; size = 4
tv287 = -88						; size = 4
tv256 = -88						; size = 4
tv244 = -88						; size = 4
tv224 = -88						; size = 4
tv200 = -88						; size = 4
tv181 = -88						; size = 4
tv157 = -88						; size = 4
tv95 = -88						; size = 4
tv70 = -88						; size = 4
_level$ = -20						; size = 4
_required$ = -16					; size = 4
_raw$ = -12						; size = 4
_force$ = -8						; size = 4
_keysite$ = -4						; size = 4
_en$ = 8						; size = 4
?assess_group_supplies@@YGXPAUENTITY@@@Z PROC		; assess_group_supplies, COMDAT

; 620  : {

  00000	55		 push	 ebp
  00001	8b ec		 mov	 ebp, esp
  00003	83 ec 60	 sub	 esp, 96			; 00000060H
  00006	53		 push	 ebx
  00007	56		 push	 esi
  00008	57		 push	 edi

; 621  : 
; 622  : 	entity
; 623  : 		*keysite,
; 624  : 		*force;
; 625  : 
; 626  : 	group
; 627  : 		*raw;
; 628  : 
; 629  : 	float
; 630  : 		required,
; 631  : 		level;
; 632  : 
; 633  : 	raw = (group *) get_local_entity_data (en);

  00009	8b 45 08	 mov	 eax, DWORD PTR _en$[ebp]
  0000c	8b 48 04	 mov	 ecx, DWORD PTR [eax+4]
  0000f	89 4d f4	 mov	 DWORD PTR _raw$[ebp], ecx

; 634  : 
; 635  : 	if (get_local_entity_int_value (en, INT_TYPE_RESUPPLY_SOURCE) == RESUPPLY_SOURCE_GROUP)

  00012	83 7d 08 00	 cmp	 DWORD PTR _en$[ebp], 0
  00016	74 0a		 je	 SHORT $LN18@assess_gro
  00018	8b 45 08	 mov	 eax, DWORD PTR _en$[ebp]
  0001b	8b 08		 mov	 ecx, DWORD PTR [eax]
  0001d	89 4d a8	 mov	 DWORD PTR tv70[ebp], ecx
  00020	eb 1d		 jmp	 SHORT $LN19@assess_gro
$LN18@assess_gro:
  00022	68 7b 02 00 00	 push	 635			; 0000027bH
  00027	68 00 00 00 00	 push	 OFFSET ??_C@_0EJ@CCBIJPFD@c?3?2users?2nhv90?2projects?2eech?2ap@
  0002c	8b 15 00 00 00
	00		 mov	 edx, DWORD PTR ?null_entity_pointer_message@@3PBDB ; null_entity_pointer_message
  00032	52		 push	 edx
  00033	e8 00 00 00 00	 call	 ?process_assert@@YGXPBD0H@Z ; process_assert
  00038	c7 45 a8 00 00
	00 00		 mov	 DWORD PTR tv70[ebp], 0
$LN19@assess_gro:
  0003f	b8 01 00 00 00	 mov	 eax, 1
  00044	85 c0		 test	 eax, eax
  00046	74 09		 je	 SHORT $LN20@assess_gro
  00048	c7 45 a4 b0 00
	00 00		 mov	 DWORD PTR tv77[ebp], 176 ; 000000b0H
  0004f	eb 1d		 jmp	 SHORT $LN21@assess_gro
$LN20@assess_gro:
  00051	68 7b 02 00 00	 push	 635			; 0000027bH
  00056	68 00 00 00 00	 push	 OFFSET ??_C@_0EJ@CCBIJPFD@c?3?2users?2nhv90?2projects?2eech?2ap@
  0005b	8b 0d 00 00 00
	00		 mov	 ecx, DWORD PTR ?overload_invalid_int_type_message@@3PBDB ; overload_invalid_int_type_message
  00061	51		 push	 ecx
  00062	e8 00 00 00 00	 call	 ?process_assert@@YGXPBD0H@Z ; process_assert
  00067	c7 45 a4 00 00
	00 00		 mov	 DWORD PTR tv77[ebp], 0
$LN21@assess_gro:
  0006e	68 b0 00 00 00	 push	 176			; 000000b0H
  00073	8b 55 08	 mov	 edx, DWORD PTR _en$[ebp]
  00076	52		 push	 edx
  00077	69 45 a8 5c 04
	00 00		 imul	 eax, DWORD PTR tv70[ebp], 1116
  0007e	8b 4d a4	 mov	 ecx, DWORD PTR tv77[ebp]
  00081	8b 94 88 00 00
	00 00		 mov	 edx, DWORD PTR ?fn_get_local_entity_int_value@@3PAY0BBH@P6GHPAUENTITY@@W4INT_TYPES@@@ZA[eax+ecx*4]
  00088	ff d2		 call	 edx
  0008a	83 f8 02	 cmp	 eax, 2
  0008d	0f 85 7b 01 00
	00		 jne	 $LN2@assess_gro

; 636  : 	{
; 637  : 
; 638  : 		//
; 639  : 		// Check if Group needs to request Supplies via Mission...
; 640  : 		//
; 641  : 
; 642  : 		if (raw->supplies.ammo_supply_level < 100.0)

  00093	8b 45 f4	 mov	 eax, DWORD PTR _raw$[ebp]
  00096	f3 0f 5a 40 7c	 cvtss2sd xmm0, DWORD PTR [eax+124]
  0009b	f2 0f 10 0d 00
	00 00 00	 movsd	 xmm1, QWORD PTR __real@4059000000000000
  000a3	66 0f 2f c8	 comisd	 xmm1, xmm0
  000a7	0f 86 a2 00 00
	00		 jbe	 $LN4@assess_gro

; 643  : 		{
; 644  : 
; 645  : 			force = get_local_force_entity ((entity_sides) get_local_entity_int_value (en, INT_TYPE_SIDE));

  000ad	83 7d 08 00	 cmp	 DWORD PTR _en$[ebp], 0
  000b1	74 0a		 je	 SHORT $LN22@assess_gro
  000b3	8b 45 08	 mov	 eax, DWORD PTR _en$[ebp]
  000b6	8b 08		 mov	 ecx, DWORD PTR [eax]
  000b8	89 4d a8	 mov	 DWORD PTR tv95[ebp], ecx
  000bb	eb 21		 jmp	 SHORT $LN23@assess_gro
$LN22@assess_gro:
  000bd	8b 15 00 00 00
	00		 mov	 edx, DWORD PTR ?__LINE__Var@?0??assess_group_supplies@@YGXPAUENTITY@@@Z@4JA
  000c3	83 c2 19	 add	 edx, 25			; 00000019H
  000c6	52		 push	 edx
  000c7	68 00 00 00 00	 push	 OFFSET ??_C@_0EJ@CCBIJPFD@c?3?2users?2nhv90?2projects?2eech?2ap@
  000cc	a1 00 00 00 00	 mov	 eax, DWORD PTR ?null_entity_pointer_message@@3PBDB ; null_entity_pointer_message
  000d1	50		 push	 eax
  000d2	e8 00 00 00 00	 call	 ?process_assert@@YGXPBD0H@Z ; process_assert
  000d7	c7 45 a8 00 00
	00 00		 mov	 DWORD PTR tv95[ebp], 0
$LN23@assess_gro:
  000de	b9 01 00 00 00	 mov	 ecx, 1
  000e3	85 c9		 test	 ecx, ecx
  000e5	74 09		 je	 SHORT $LN24@assess_gro
  000e7	c7 45 a4 bb 00
	00 00		 mov	 DWORD PTR tv135[ebp], 187 ; 000000bbH
  000ee	eb 21		 jmp	 SHORT $LN25@assess_gro
$LN24@assess_gro:
  000f0	8b 15 00 00 00
	00		 mov	 edx, DWORD PTR ?__LINE__Var@?0??assess_group_supplies@@YGXPAUENTITY@@@Z@4JA
  000f6	83 c2 19	 add	 edx, 25			; 00000019H
  000f9	52		 push	 edx
  000fa	68 00 00 00 00	 push	 OFFSET ??_C@_0EJ@CCBIJPFD@c?3?2users?2nhv90?2projects?2eech?2ap@
  000ff	a1 00 00 00 00	 mov	 eax, DWORD PTR ?overload_invalid_int_type_message@@3PBDB ; overload_invalid_int_type_message
  00104	50		 push	 eax
  00105	e8 00 00 00 00	 call	 ?process_assert@@YGXPBD0H@Z ; process_assert
  0010a	c7 45 a4 00 00
	00 00		 mov	 DWORD PTR tv135[ebp], 0
$LN25@assess_gro:
  00111	68 bb 00 00 00	 push	 187			; 000000bbH
  00116	8b 4d 08	 mov	 ecx, DWORD PTR _en$[ebp]
  00119	51		 push	 ecx
  0011a	69 55 a8 5c 04
	00 00		 imul	 edx, DWORD PTR tv95[ebp], 1116
  00121	8b 45 a4	 mov	 eax, DWORD PTR tv135[ebp]
  00124	8b 8c 82 00 00
	00 00		 mov	 ecx, DWORD PTR ?fn_get_local_entity_int_value@@3PAY0BBH@P6GHPAUENTITY@@W4INT_TYPES@@@ZA[edx+eax*4]
  0012b	ff d1		 call	 ecx
  0012d	50		 push	 eax
  0012e	e8 00 00 00 00	 call	 ?get_local_force_entity@@YGPAUENTITY@@W4ENTITY_SIDES@@@Z ; get_local_force_entity
  00133	89 45 f8	 mov	 DWORD PTR _force$[ebp], eax

; 646  : 
; 647  : 			#if DEBUG_MODULE || DEBUG_SUPPLY
; 648  : 
; 649  : 			debug_log ("GROUP: SUPPLY_INFO: ground group %s low on ammo, requesting Supply mission", get_local_entity_string (en, STRING_TYPE_FULL_NAME));
; 650  : 
; 651  : 			#endif
; 652  : 
; 653  : 			notify_local_entity (ENTITY_MESSAGE_FORCE_LOW_ON_SUPPLIES, force, en, ENTITY_SUB_TYPE_CARGO_AMMO);

  00136	6a 00		 push	 0
  00138	8b 45 08	 mov	 eax, DWORD PTR _en$[ebp]
  0013b	50		 push	 eax
  0013c	8b 4d f8	 mov	 ecx, DWORD PTR _force$[ebp]
  0013f	51		 push	 ecx
  00140	6a 18		 push	 24			; 00000018H
  00142	e8 00 00 00 00	 call	 ?notify_local_entity@@YAHW4ENTITY_MESSAGES@@PAUENTITY@@1ZZ ; notify_local_entity
  00147	83 c4 10	 add	 esp, 16			; 00000010H
  0014a	e9 ba 00 00 00	 jmp	 $LN6@assess_gro
$LN4@assess_gro:

; 654  : 		}
; 655  : 		else if (raw->supplies.fuel_supply_level < 100.0)

  0014f	8b 45 f4	 mov	 eax, DWORD PTR _raw$[ebp]
  00152	f3 0f 5a 80 80
	00 00 00	 cvtss2sd xmm0, DWORD PTR [eax+128]
  0015a	f2 0f 10 0d 00
	00 00 00	 movsd	 xmm1, QWORD PTR __real@4059000000000000
  00162	66 0f 2f c8	 comisd	 xmm1, xmm0
  00166	0f 86 9d 00 00
	00		 jbe	 $LN6@assess_gro

; 656  : 		{
; 657  : 
; 658  : 			force = get_local_force_entity ((entity_sides) get_local_entity_int_value (en, INT_TYPE_SIDE));

  0016c	83 7d 08 00	 cmp	 DWORD PTR _en$[ebp], 0
  00170	74 0a		 je	 SHORT $LN26@assess_gro
  00172	8b 45 08	 mov	 eax, DWORD PTR _en$[ebp]
  00175	8b 08		 mov	 ecx, DWORD PTR [eax]
  00177	89 4d a8	 mov	 DWORD PTR tv157[ebp], ecx
  0017a	eb 21		 jmp	 SHORT $LN27@assess_gro
$LN26@assess_gro:
  0017c	8b 15 00 00 00
	00		 mov	 edx, DWORD PTR ?__LINE__Var@?0??assess_group_supplies@@YGXPAUENTITY@@@Z@4JA
  00182	83 c2 26	 add	 edx, 38			; 00000026H
  00185	52		 push	 edx
  00186	68 00 00 00 00	 push	 OFFSET ??_C@_0EJ@CCBIJPFD@c?3?2users?2nhv90?2projects?2eech?2ap@
  0018b	a1 00 00 00 00	 mov	 eax, DWORD PTR ?null_entity_pointer_message@@3PBDB ; null_entity_pointer_message
  00190	50		 push	 eax
  00191	e8 00 00 00 00	 call	 ?process_assert@@YGXPBD0H@Z ; process_assert
  00196	c7 45 a8 00 00
	00 00		 mov	 DWORD PTR tv157[ebp], 0
$LN27@assess_gro:
  0019d	b9 01 00 00 00	 mov	 ecx, 1
  001a2	85 c9		 test	 ecx, ecx
  001a4	74 09		 je	 SHORT $LN28@assess_gro
  001a6	c7 45 a4 bb 00
	00 00		 mov	 DWORD PTR tv165[ebp], 187 ; 000000bbH
  001ad	eb 21		 jmp	 SHORT $LN29@assess_gro
$LN28@assess_gro:
  001af	8b 15 00 00 00
	00		 mov	 edx, DWORD PTR ?__LINE__Var@?0??assess_group_supplies@@YGXPAUENTITY@@@Z@4JA
  001b5	83 c2 26	 add	 edx, 38			; 00000026H
  001b8	52		 push	 edx
  001b9	68 00 00 00 00	 push	 OFFSET ??_C@_0EJ@CCBIJPFD@c?3?2users?2nhv90?2projects?2eech?2ap@
  001be	a1 00 00 00 00	 mov	 eax, DWORD PTR ?overload_invalid_int_type_message@@3PBDB ; overload_invalid_int_type_message
  001c3	50		 push	 eax
  001c4	e8 00 00 00 00	 call	 ?process_assert@@YGXPBD0H@Z ; process_assert
  001c9	c7 45 a4 00 00
	00 00		 mov	 DWORD PTR tv165[ebp], 0
$LN29@assess_gro:
  001d0	68 bb 00 00 00	 push	 187			; 000000bbH
  001d5	8b 4d 08	 mov	 ecx, DWORD PTR _en$[ebp]
  001d8	51		 push	 ecx
  001d9	69 55 a8 5c 04
	00 00		 imul	 edx, DWORD PTR tv157[ebp], 1116
  001e0	8b 45 a4	 mov	 eax, DWORD PTR tv165[ebp]
  001e3	8b 8c 82 00 00
	00 00		 mov	 ecx, DWORD PTR ?fn_get_local_entity_int_value@@3PAY0BBH@P6GHPAUENTITY@@W4INT_TYPES@@@ZA[edx+eax*4]
  001ea	ff d1		 call	 ecx
  001ec	50		 push	 eax
  001ed	e8 00 00 00 00	 call	 ?get_local_force_entity@@YGPAUENTITY@@W4ENTITY_SIDES@@@Z ; get_local_force_entity
  001f2	89 45 f8	 mov	 DWORD PTR _force$[ebp], eax

; 659  : 
; 660  : 			#if DEBUG_MODULE || DEBUG_SUPPLY
; 661  : 
; 662  : 			debug_log ("GROUP: SUPPLY_INFO: ground group %s low on fuel, requesting Supply mission", get_local_entity_string (en, STRING_TYPE_FULL_NAME));
; 663  : 
; 664  : 			#endif
; 665  : 
; 666  : 			notify_local_entity (ENTITY_MESSAGE_FORCE_LOW_ON_SUPPLIES, force, en, ENTITY_SUB_TYPE_CARGO_FUEL);

  001f5	6a 01		 push	 1
  001f7	8b 45 08	 mov	 eax, DWORD PTR _en$[ebp]
  001fa	50		 push	 eax
  001fb	8b 4d f8	 mov	 ecx, DWORD PTR _force$[ebp]
  001fe	51		 push	 ecx
  001ff	6a 18		 push	 24			; 00000018H
  00201	e8 00 00 00 00	 call	 ?notify_local_entity@@YAHW4ENTITY_MESSAGES@@PAUENTITY@@1ZZ ; notify_local_entity
  00206	83 c4 10	 add	 esp, 16			; 00000010H
$LN6@assess_gro:

; 667  : 		}
; 668  : 	}

  00209	e9 93 08 00 00	 jmp	 $LN13@assess_gro
$LN2@assess_gro:

; 669  : 	else if (get_local_entity_int_value (en, INT_TYPE_RESUPPLY_SOURCE) == RESUPPLY_SOURCE_KEYSITE)

  0020e	83 7d 08 00	 cmp	 DWORD PTR _en$[ebp], 0
  00212	74 0a		 je	 SHORT $LN30@assess_gro
  00214	8b 45 08	 mov	 eax, DWORD PTR _en$[ebp]
  00217	8b 08		 mov	 ecx, DWORD PTR [eax]
  00219	89 4d a8	 mov	 DWORD PTR tv181[ebp], ecx
  0021c	eb 1d		 jmp	 SHORT $LN31@assess_gro
$LN30@assess_gro:
  0021e	68 9d 02 00 00	 push	 669			; 0000029dH
  00223	68 00 00 00 00	 push	 OFFSET ??_C@_0EJ@CCBIJPFD@c?3?2users?2nhv90?2projects?2eech?2ap@
  00228	8b 15 00 00 00
	00		 mov	 edx, DWORD PTR ?null_entity_pointer_message@@3PBDB ; null_entity_pointer_message
  0022e	52		 push	 edx
  0022f	e8 00 00 00 00	 call	 ?process_assert@@YGXPBD0H@Z ; process_assert
  00234	c7 45 a8 00 00
	00 00		 mov	 DWORD PTR tv181[ebp], 0
$LN31@assess_gro:
  0023b	b8 01 00 00 00	 mov	 eax, 1
  00240	85 c0		 test	 eax, eax
  00242	74 09		 je	 SHORT $LN32@assess_gro
  00244	c7 45 a4 b0 00
	00 00		 mov	 DWORD PTR tv188[ebp], 176 ; 000000b0H
  0024b	eb 1d		 jmp	 SHORT $LN33@assess_gro
$LN32@assess_gro:
  0024d	68 9d 02 00 00	 push	 669			; 0000029dH
  00252	68 00 00 00 00	 push	 OFFSET ??_C@_0EJ@CCBIJPFD@c?3?2users?2nhv90?2projects?2eech?2ap@
  00257	8b 0d 00 00 00
	00		 mov	 ecx, DWORD PTR ?overload_invalid_int_type_message@@3PBDB ; overload_invalid_int_type_message
  0025d	51		 push	 ecx
  0025e	e8 00 00 00 00	 call	 ?process_assert@@YGXPBD0H@Z ; process_assert
  00263	c7 45 a4 00 00
	00 00		 mov	 DWORD PTR tv188[ebp], 0
$LN33@assess_gro:
  0026a	68 b0 00 00 00	 push	 176			; 000000b0H
  0026f	8b 55 08	 mov	 edx, DWORD PTR _en$[ebp]
  00272	52		 push	 edx
  00273	69 45 a8 5c 04
	00 00		 imul	 eax, DWORD PTR tv181[ebp], 1116
  0027a	8b 4d a4	 mov	 ecx, DWORD PTR tv188[ebp]
  0027d	8b 94 88 00 00
	00 00		 mov	 edx, DWORD PTR ?fn_get_local_entity_int_value@@3PAY0BBH@P6GHPAUENTITY@@W4INT_TYPES@@@ZA[eax+ecx*4]
  00284	ff d2		 call	 edx
  00286	83 f8 01	 cmp	 eax, 1
  00289	0f 85 12 08 00
	00		 jne	 $LN13@assess_gro

; 670  : 	{
; 671  : 		//
; 672  : 		// check all group is landed. If so refuel/rearm group via keysite supplies
; 673  : 		//
; 674  : 
; 675  : 		if (get_local_entity_int_value (en, INT_TYPE_GROUP_MODE) == GROUP_MODE_IDLE)

  0028f	83 7d 08 00	 cmp	 DWORD PTR _en$[ebp], 0
  00293	74 0a		 je	 SHORT $LN34@assess_gro
  00295	8b 45 08	 mov	 eax, DWORD PTR _en$[ebp]
  00298	8b 08		 mov	 ecx, DWORD PTR [eax]
  0029a	89 4d a8	 mov	 DWORD PTR tv200[ebp], ecx
  0029d	eb 1d		 jmp	 SHORT $LN35@assess_gro
$LN34@assess_gro:
  0029f	68 a3 02 00 00	 push	 675			; 000002a3H
  002a4	68 00 00 00 00	 push	 OFFSET ??_C@_0EJ@CCBIJPFD@c?3?2users?2nhv90?2projects?2eech?2ap@
  002a9	8b 15 00 00 00
	00		 mov	 edx, DWORD PTR ?null_entity_pointer_message@@3PBDB ; null_entity_pointer_message
  002af	52		 push	 edx
  002b0	e8 00 00 00 00	 call	 ?process_assert@@YGXPBD0H@Z ; process_assert
  002b5	c7 45 a8 00 00
	00 00		 mov	 DWORD PTR tv200[ebp], 0
$LN35@assess_gro:
  002bc	b8 01 00 00 00	 mov	 eax, 1
  002c1	85 c0		 test	 eax, eax
  002c3	74 09		 je	 SHORT $LN36@assess_gro
  002c5	c7 45 a4 4d 00
	00 00		 mov	 DWORD PTR tv207[ebp], 77 ; 0000004dH
  002cc	eb 1d		 jmp	 SHORT $LN37@assess_gro
$LN36@assess_gro:
  002ce	68 a3 02 00 00	 push	 675			; 000002a3H
  002d3	68 00 00 00 00	 push	 OFFSET ??_C@_0EJ@CCBIJPFD@c?3?2users?2nhv90?2projects?2eech?2ap@
  002d8	8b 0d 00 00 00
	00		 mov	 ecx, DWORD PTR ?overload_invalid_int_type_message@@3PBDB ; overload_invalid_int_type_message
  002de	51		 push	 ecx
  002df	e8 00 00 00 00	 call	 ?process_assert@@YGXPBD0H@Z ; process_assert
  002e4	c7 45 a4 00 00
	00 00		 mov	 DWORD PTR tv207[ebp], 0
$LN37@assess_gro:
  002eb	6a 4d		 push	 77			; 0000004dH
  002ed	8b 55 08	 mov	 edx, DWORD PTR _en$[ebp]
  002f0	52		 push	 edx
  002f1	69 45 a8 5c 04
	00 00		 imul	 eax, DWORD PTR tv200[ebp], 1116
  002f8	8b 4d a4	 mov	 ecx, DWORD PTR tv207[ebp]
  002fb	8b 94 88 00 00
	00 00		 mov	 edx, DWORD PTR ?fn_get_local_entity_int_value@@3PAY0BBH@P6GHPAUENTITY@@W4INT_TYPES@@@ZA[eax+ecx*4]
  00302	ff d2		 call	 edx
  00304	85 c0		 test	 eax, eax
  00306	0f 85 95 07 00
	00		 jne	 $LN13@assess_gro

; 676  : 		{
; 677  : 
; 678  : 			if (raw->supplies.ammo_supply_level < 100.0)

  0030c	8b 45 f4	 mov	 eax, DWORD PTR _raw$[ebp]
  0030f	f3 0f 5a 40 7c	 cvtss2sd xmm0, DWORD PTR [eax+124]
  00314	f2 0f 10 0d 00
	00 00 00	 movsd	 xmm1, QWORD PTR __real@4059000000000000
  0031c	66 0f 2f c8	 comisd	 xmm1, xmm0
  00320	0f 86 ac 03 00
	00		 jbe	 $LN9@assess_gro

; 679  : 			{
; 680  : 
; 681  : 				//
; 682  : 				// re-arm
; 683  : 				//
; 684  : 
; 685  : 				keysite = get_local_entity_parent (en, LIST_TYPE_KEYSITE_GROUP);

  00326	83 7d 08 00	 cmp	 DWORD PTR _en$[ebp], 0
  0032a	74 0a		 je	 SHORT $LN38@assess_gro
  0032c	8b 45 08	 mov	 eax, DWORD PTR _en$[ebp]
  0032f	8b 08		 mov	 ecx, DWORD PTR [eax]
  00331	89 4d a8	 mov	 DWORD PTR tv224[ebp], ecx
  00334	eb 21		 jmp	 SHORT $LN39@assess_gro
$LN38@assess_gro:
  00336	8b 15 00 00 00
	00		 mov	 edx, DWORD PTR ?__LINE__Var@?0??assess_group_supplies@@YGXPAUENTITY@@@Z@4JA
  0033c	83 c2 41	 add	 edx, 65			; 00000041H
  0033f	52		 push	 edx
  00340	68 00 00 00 00	 push	 OFFSET ??_C@_0EJ@CCBIJPFD@c?3?2users?2nhv90?2projects?2eech?2ap@
  00345	a1 00 00 00 00	 mov	 eax, DWORD PTR ?null_entity_pointer_message@@3PBDB ; null_entity_pointer_message
  0034a	50		 push	 eax
  0034b	e8 00 00 00 00	 call	 ?process_assert@@YGXPBD0H@Z ; process_assert
  00350	c7 45 a8 00 00
	00 00		 mov	 DWORD PTR tv224[ebp], 0
$LN39@assess_gro:
  00357	b9 01 00 00 00	 mov	 ecx, 1
  0035c	85 c9		 test	 ecx, ecx
  0035e	74 09		 je	 SHORT $LN40@assess_gro
  00360	c7 45 a4 16 00
	00 00		 mov	 DWORD PTR tv232[ebp], 22 ; 00000016H
  00367	eb 21		 jmp	 SHORT $LN41@assess_gro
$LN40@assess_gro:
  00369	8b 15 00 00 00
	00		 mov	 edx, DWORD PTR ?__LINE__Var@?0??assess_group_supplies@@YGXPAUENTITY@@@Z@4JA
  0036f	83 c2 41	 add	 edx, 65			; 00000041H
  00372	52		 push	 edx
  00373	68 00 00 00 00	 push	 OFFSET ??_C@_0EJ@CCBIJPFD@c?3?2users?2nhv90?2projects?2eech?2ap@
  00378	a1 00 00 00 00	 mov	 eax, DWORD PTR ?overload_invalid_list_type_message@@3PBDB ; overload_invalid_list_type_message
  0037d	50		 push	 eax
  0037e	e8 00 00 00 00	 call	 ?process_assert@@YGXPBD0H@Z ; process_assert
  00383	c7 45 a4 00 00
	00 00		 mov	 DWORD PTR tv232[ebp], 0
$LN41@assess_gro:
  0038a	6a 16		 push	 22			; 00000016H
  0038c	8b 4d 08	 mov	 ecx, DWORD PTR _en$[ebp]
  0038f	51		 push	 ecx
  00390	69 55 a8 b4 00
	00 00		 imul	 edx, DWORD PTR tv224[ebp], 180
  00397	8b 45 a4	 mov	 eax, DWORD PTR tv232[ebp]
  0039a	8b 8c 82 00 00
	00 00		 mov	 ecx, DWORD PTR ?fn_get_local_entity_parent@@3PAY0CN@P6GPAUENTITY@@PAU1@W4LIST_TYPES@@@ZA[edx+eax*4]
  003a1	ff d1		 call	 ecx
  003a3	89 45 fc	 mov	 DWORD PTR _keysite$[ebp], eax

; 686  : 
; 687  : 				if ((!keysite) || (get_local_entity_type (keysite) != ENTITY_TYPE_KEYSITE))

  003a6	83 7d fc 00	 cmp	 DWORD PTR _keysite$[ebp], 0
  003aa	74 37		 je	 SHORT $LN11@assess_gro
  003ac	83 7d fc 00	 cmp	 DWORD PTR _keysite$[ebp], 0
  003b0	74 0a		 je	 SHORT $LN42@assess_gro
  003b2	8b 45 fc	 mov	 eax, DWORD PTR _keysite$[ebp]
  003b5	8b 08		 mov	 ecx, DWORD PTR [eax]
  003b7	89 4d a8	 mov	 DWORD PTR tv244[ebp], ecx
  003ba	eb 1d		 jmp	 SHORT $LN43@assess_gro
$LN42@assess_gro:
  003bc	68 af 02 00 00	 push	 687			; 000002afH
  003c1	68 00 00 00 00	 push	 OFFSET ??_C@_0EJ@CCBIJPFD@c?3?2users?2nhv90?2projects?2eech?2ap@
  003c6	8b 15 00 00 00
	00		 mov	 edx, DWORD PTR ?null_entity_pointer_message@@3PBDB ; null_entity_pointer_message
  003cc	52		 push	 edx
  003cd	e8 00 00 00 00	 call	 ?process_assert@@YGXPBD0H@Z ; process_assert
  003d2	c7 45 a8 00 00
	00 00		 mov	 DWORD PTR tv244[ebp], 0
$LN43@assess_gro:
  003d9	83 7d a8 0f	 cmp	 DWORD PTR tv244[ebp], 15 ; 0000000fH
  003dd	0f 84 a7 00 00
	00		 je	 $LN10@assess_gro
$LN11@assess_gro:

; 688  : 				{
; 689  : 					keysite = get_closest_keysite (NUM_ENTITY_SUB_TYPE_KEYSITES, (entity_sides) raw->side, get_local_entity_vec3d_ptr (en, VEC3D_TYPE_POSITION), 1.0 * KILOMETRE, NULL, NULL);

  003e3	83 7d 08 00	 cmp	 DWORD PTR _en$[ebp], 0
  003e7	74 0a		 je	 SHORT $LN44@assess_gro
  003e9	8b 45 08	 mov	 eax, DWORD PTR _en$[ebp]
  003ec	8b 08		 mov	 ecx, DWORD PTR [eax]
  003ee	89 4d a8	 mov	 DWORD PTR tv256[ebp], ecx
  003f1	eb 21		 jmp	 SHORT $LN45@assess_gro
$LN44@assess_gro:
  003f3	8b 15 00 00 00
	00		 mov	 edx, DWORD PTR ?__LINE__Var@?0??assess_group_supplies@@YGXPAUENTITY@@@Z@4JA
  003f9	83 c2 45	 add	 edx, 69			; 00000045H
  003fc	52		 push	 edx
  003fd	68 00 00 00 00	 push	 OFFSET ??_C@_0EJ@CCBIJPFD@c?3?2users?2nhv90?2projects?2eech?2ap@
  00402	a1 00 00 00 00	 mov	 eax, DWORD PTR ?null_entity_pointer_message@@3PBDB ; null_entity_pointer_message
  00407	50		 push	 eax
  00408	e8 00 00 00 00	 call	 ?process_assert@@YGXPBD0H@Z ; process_assert
  0040d	c7 45 a8 00 00
	00 00		 mov	 DWORD PTR tv256[ebp], 0
$LN45@assess_gro:
  00414	b9 01 00 00 00	 mov	 ecx, 1
  00419	85 c9		 test	 ecx, ecx
  0041b	74 09		 je	 SHORT $LN46@assess_gro
  0041d	c7 45 a4 08 00
	00 00		 mov	 DWORD PTR tv264[ebp], 8
  00424	eb 21		 jmp	 SHORT $LN47@assess_gro
$LN46@assess_gro:
  00426	8b 15 00 00 00
	00		 mov	 edx, DWORD PTR ?__LINE__Var@?0??assess_group_supplies@@YGXPAUENTITY@@@Z@4JA
  0042c	83 c2 45	 add	 edx, 69			; 00000045H
  0042f	52		 push	 edx
  00430	68 00 00 00 00	 push	 OFFSET ??_C@_0EJ@CCBIJPFD@c?3?2users?2nhv90?2projects?2eech?2ap@
  00435	a1 00 00 00 00	 mov	 eax, DWORD PTR ?overload_invalid_vec3d_type_message@@3PBDB ; overload_invalid_vec3d_type_message
  0043a	50		 push	 eax
  0043b	e8 00 00 00 00	 call	 ?process_assert@@YGXPBD0H@Z ; process_assert
  00440	c7 45 a4 00 00
	00 00		 mov	 DWORD PTR tv264[ebp], 0
$LN47@assess_gro:
  00447	6a 00		 push	 0
  00449	6a 00		 push	 0
  0044b	51		 push	 ecx
  0044c	f3 0f 10 05 00
	00 00 00	 movss	 xmm0, DWORD PTR __real@447a0000
  00454	f3 0f 11 04 24	 movss	 DWORD PTR [esp], xmm0
  00459	6a 08		 push	 8
  0045b	8b 4d 08	 mov	 ecx, DWORD PTR _en$[ebp]
  0045e	51		 push	 ecx
  0045f	6b 55 a8 60	 imul	 edx, DWORD PTR tv256[ebp], 96
  00463	8b 45 a4	 mov	 eax, DWORD PTR tv264[ebp]
  00466	8b 8c 82 00 00
	00 00		 mov	 ecx, DWORD PTR ?fn_get_local_entity_vec3d_ptr@@3PAY0BI@P6GPAUVEC3D@@PAUENTITY@@W4VEC3D_TYPES@@@ZA[edx+eax*4]
  0046d	ff d1		 call	 ecx
  0046f	50		 push	 eax
  00470	8b 55 f4	 mov	 edx, DWORD PTR _raw$[ebp]
  00473	8b 82 8c 00 00
	00		 mov	 eax, DWORD PTR [edx+140]
  00479	c1 e8 0a	 shr	 eax, 10			; 0000000aH
  0047c	83 e0 03	 and	 eax, 3
  0047f	50		 push	 eax
  00480	6a 09		 push	 9
  00482	e8 00 00 00 00	 call	 ?get_closest_keysite@@YGPAUENTITY@@HW4ENTITY_SIDES@@PAUVEC3D@@MPAMPAU1@@Z ; get_closest_keysite
  00487	89 45 fc	 mov	 DWORD PTR _keysite$[ebp], eax
$LN10@assess_gro:

; 690  : 				}
; 691  : 
; 692  : 				ASSERT (keysite);

  0048a	83 7d fc 00	 cmp	 DWORD PTR _keysite$[ebp], 0
  0048e	75 18		 jne	 SHORT $LN12@assess_gro
  00490	a1 00 00 00 00	 mov	 eax, DWORD PTR ?__LINE__Var@?0??assess_group_supplies@@YGXPAUENTITY@@@Z@4JA
  00495	83 c0 48	 add	 eax, 72			; 00000048H
  00498	50		 push	 eax
  00499	68 00 00 00 00	 push	 OFFSET ??_C@_0EJ@CCBIJPFD@c?3?2users?2nhv90?2projects?2eech?2ap@
  0049e	68 00 00 00 00	 push	 OFFSET ??_C@_07FBNBNOMI@keysite@
  004a3	e8 00 00 00 00	 call	 ?process_assert@@YGXPBD0H@Z ; process_assert
$LN12@assess_gro:

; 693  : 
; 694  : 				level = get_local_entity_float_value (keysite, FLOAT_TYPE_AMMO_SUPPLY_LEVEL);

  004a8	83 7d fc 00	 cmp	 DWORD PTR _keysite$[ebp], 0
  004ac	74 0a		 je	 SHORT $LN48@assess_gro
  004ae	8b 45 fc	 mov	 eax, DWORD PTR _keysite$[ebp]
  004b1	8b 08		 mov	 ecx, DWORD PTR [eax]
  004b3	89 4d a8	 mov	 DWORD PTR tv287[ebp], ecx
  004b6	eb 21		 jmp	 SHORT $LN49@assess_gro
$LN48@assess_gro:
  004b8	8b 15 00 00 00
	00		 mov	 edx, DWORD PTR ?__LINE__Var@?0??assess_group_supplies@@YGXPAUENTITY@@@Z@4JA
  004be	83 c2 4a	 add	 edx, 74			; 0000004aH
  004c1	52		 push	 edx
  004c2	68 00 00 00 00	 push	 OFFSET ??_C@_0EJ@CCBIJPFD@c?3?2users?2nhv90?2projects?2eech?2ap@
  004c7	a1 00 00 00 00	 mov	 eax, DWORD PTR ?null_entity_pointer_message@@3PBDB ; null_entity_pointer_message
  004cc	50		 push	 eax
  004cd	e8 00 00 00 00	 call	 ?process_assert@@YGXPBD0H@Z ; process_assert
  004d2	c7 45 a8 00 00
	00 00		 mov	 DWORD PTR tv287[ebp], 0
$LN49@assess_gro:
  004d9	b9 01 00 00 00	 mov	 ecx, 1
  004de	85 c9		 test	 ecx, ecx
  004e0	74 09		 je	 SHORT $LN50@assess_gro
  004e2	c7 45 a4 08 00
	00 00		 mov	 DWORD PTR tv295[ebp], 8
  004e9	eb 21		 jmp	 SHORT $LN51@assess_gro
$LN50@assess_gro:
  004eb	8b 15 00 00 00
	00		 mov	 edx, DWORD PTR ?__LINE__Var@?0??assess_group_supplies@@YGXPAUENTITY@@@Z@4JA
  004f1	83 c2 4a	 add	 edx, 74			; 0000004aH
  004f4	52		 push	 edx
  004f5	68 00 00 00 00	 push	 OFFSET ??_C@_0EJ@CCBIJPFD@c?3?2users?2nhv90?2projects?2eech?2ap@
  004fa	a1 00 00 00 00	 mov	 eax, DWORD PTR ?overload_invalid_float_type_message@@3PBDB ; overload_invalid_float_type_message
  004ff	50		 push	 eax
  00500	e8 00 00 00 00	 call	 ?process_assert@@YGXPBD0H@Z ; process_assert
  00505	c7 45 a4 00 00
	00 00		 mov	 DWORD PTR tv295[ebp], 0
$LN51@assess_gro:
  0050c	6a 08		 push	 8
  0050e	8b 4d fc	 mov	 ecx, DWORD PTR _keysite$[ebp]
  00511	51		 push	 ecx
  00512	69 55 a8 bc 02
	00 00		 imul	 edx, DWORD PTR tv287[ebp], 700
  00519	8b 45 a4	 mov	 eax, DWORD PTR tv295[ebp]
  0051c	8b 8c 82 00 00
	00 00		 mov	 ecx, DWORD PTR ?fn_get_local_entity_float_value@@3PAY0KP@P6GMPAUENTITY@@W4FLOAT_TYPES@@@ZA[edx+eax*4]
  00523	ff d1		 call	 ecx
  00525	d9 5d ec	 fstp	 DWORD PTR _level$[ebp]

; 695  : 
; 696  : 				required = 100.0 - (raw->supplies.ammo_supply_level * AMMO_USAGE_ACCELERATOR);

  00528	8b 45 f4	 mov	 eax, DWORD PTR _raw$[ebp]
  0052b	f3 0f 5a 40 7c	 cvtss2sd xmm0, DWORD PTR [eax+124]
  00530	f2 0f 59 05 00
	00 00 00	 mulsd	 xmm0, QWORD PTR __real@3ff0000000000000
  00538	f2 0f 10 0d 00
	00 00 00	 movsd	 xmm1, QWORD PTR __real@4059000000000000
  00540	f2 0f 5c c8	 subsd	 xmm1, xmm0
  00544	f2 0f 5a c1	 cvtsd2ss xmm0, xmm1
  00548	f3 0f 11 45 f0	 movss	 DWORD PTR _required$[ebp], xmm0

; 697  : 
; 698  : 				required = bound (required, 0.0, level);

  0054d	f3 0f 5a 45 f0	 cvtss2sd xmm0, DWORD PTR _required$[ebp]
  00552	0f 57 c9	 xorps	 xmm1, xmm1
  00555	66 0f 2f c8	 comisd	 xmm1, xmm0
  00559	76 0a		 jbe	 SHORT $LN54@assess_gro
  0055b	0f 57 c0	 xorps	 xmm0, xmm0
  0055e	f2 0f 11 45 a4	 movsd	 QWORD PTR tv312[ebp], xmm0
  00563	eb 2b		 jmp	 SHORT $LN55@assess_gro
$LN54@assess_gro:
  00565	f3 0f 10 45 f0	 movss	 xmm0, DWORD PTR _required$[ebp]
  0056a	0f 2f 45 ec	 comiss	 xmm0, DWORD PTR _level$[ebp]
  0056e	76 0c		 jbe	 SHORT $LN52@assess_gro
  00570	f3 0f 10 45 ec	 movss	 xmm0, DWORD PTR _level$[ebp]
  00575	f3 0f 11 45 a0	 movss	 DWORD PTR tv310[ebp], xmm0
  0057a	eb 0a		 jmp	 SHORT $LN53@assess_gro
$LN52@assess_gro:
  0057c	f3 0f 10 45 f0	 movss	 xmm0, DWORD PTR _required$[ebp]
  00581	f3 0f 11 45 a0	 movss	 DWORD PTR tv310[ebp], xmm0
$LN53@assess_gro:
  00586	f3 0f 5a 45 a0	 cvtss2sd xmm0, DWORD PTR tv310[ebp]
  0058b	f2 0f 11 45 a4	 movsd	 QWORD PTR tv312[ebp], xmm0
$LN55@assess_gro:
  00590	f2 0f 5a 45 a4	 cvtsd2ss xmm0, QWORD PTR tv312[ebp]
  00595	f3 0f 11 45 f0	 movss	 DWORD PTR _required$[ebp], xmm0

; 699  : 
; 700  : 				level -= required;

  0059a	f3 0f 10 45 ec	 movss	 xmm0, DWORD PTR _level$[ebp]
  0059f	f3 0f 5c 45 f0	 subss	 xmm0, DWORD PTR _required$[ebp]
  005a4	f3 0f 11 45 ec	 movss	 DWORD PTR _level$[ebp], xmm0

; 701  : 
; 702  : 				set_client_server_entity_float_value (keysite, FLOAT_TYPE_AMMO_SUPPLY_LEVEL, level);

  005a9	83 7d fc 00	 cmp	 DWORD PTR _keysite$[ebp], 0
  005ad	74 0a		 je	 SHORT $LN56@assess_gro
  005af	8b 45 fc	 mov	 eax, DWORD PTR _keysite$[ebp]
  005b2	8b 08		 mov	 ecx, DWORD PTR [eax]
  005b4	89 4d a8	 mov	 DWORD PTR tv321[ebp], ecx
  005b7	eb 21		 jmp	 SHORT $LN57@assess_gro
$LN56@assess_gro:
  005b9	8b 15 00 00 00
	00		 mov	 edx, DWORD PTR ?__LINE__Var@?0??assess_group_supplies@@YGXPAUENTITY@@@Z@4JA
  005bf	83 c2 52	 add	 edx, 82			; 00000052H
  005c2	52		 push	 edx
  005c3	68 00 00 00 00	 push	 OFFSET ??_C@_0EJ@CCBIJPFD@c?3?2users?2nhv90?2projects?2eech?2ap@
  005c8	a1 00 00 00 00	 mov	 eax, DWORD PTR ?null_entity_pointer_message@@3PBDB ; null_entity_pointer_message
  005cd	50		 push	 eax
  005ce	e8 00 00 00 00	 call	 ?process_assert@@YGXPBD0H@Z ; process_assert
  005d3	c7 45 a8 00 00
	00 00		 mov	 DWORD PTR tv321[ebp], 0
$LN57@assess_gro:
  005da	b9 01 00 00 00	 mov	 ecx, 1
  005df	85 c9		 test	 ecx, ecx
  005e1	74 09		 je	 SHORT $LN58@assess_gro
  005e3	c7 45 a4 08 00
	00 00		 mov	 DWORD PTR tv329[ebp], 8
  005ea	eb 21		 jmp	 SHORT $LN59@assess_gro
$LN58@assess_gro:
  005ec	8b 15 00 00 00
	00		 mov	 edx, DWORD PTR ?__LINE__Var@?0??assess_group_supplies@@YGXPAUENTITY@@@Z@4JA
  005f2	83 c2 52	 add	 edx, 82			; 00000052H
  005f5	52		 push	 edx
  005f6	68 00 00 00 00	 push	 OFFSET ??_C@_0EJ@CCBIJPFD@c?3?2users?2nhv90?2projects?2eech?2ap@
  005fb	a1 00 00 00 00	 mov	 eax, DWORD PTR ?overload_invalid_float_type_message@@3PBDB ; overload_invalid_float_type_message
  00600	50		 push	 eax
  00601	e8 00 00 00 00	 call	 ?process_assert@@YGXPBD0H@Z ; process_assert
  00606	c7 45 a4 00 00
	00 00		 mov	 DWORD PTR tv329[ebp], 0
$LN59@assess_gro:
  0060d	51		 push	 ecx
  0060e	f3 0f 10 45 ec	 movss	 xmm0, DWORD PTR _level$[ebp]
  00613	f3 0f 11 04 24	 movss	 DWORD PTR [esp], xmm0
  00618	6a 08		 push	 8
  0061a	8b 4d fc	 mov	 ecx, DWORD PTR _keysite$[ebp]
  0061d	51		 push	 ecx
  0061e	69 55 a8 78 05
	00 00		 imul	 edx, DWORD PTR tv321[ebp], 1400
  00625	8b 45 a4	 mov	 eax, DWORD PTR tv329[ebp]
  00628	8d 8c c2 00 00
	00 00		 lea	 ecx, DWORD PTR ?fn_set_client_server_entity_float_value@@3PAY1KP@1P6GXPAUENTITY@@W4FLOAT_TYPES@@M@ZA[edx+eax*8]
  0062f	8b 15 00 00 00
	00		 mov	 edx, DWORD PTR ?system_comms_model@@3W4COMMS_MODEL_TYPES@@A ; system_comms_model
  00635	8b 04 91	 mov	 eax, DWORD PTR [ecx+edx*4]
  00638	ff d0		 call	 eax

; 703  : 
; 704  : 				set_client_server_entity_float_value (en, FLOAT_TYPE_AMMO_SUPPLY_LEVEL, raw->supplies.ammo_supply_level + required);

  0063a	83 7d 08 00	 cmp	 DWORD PTR _en$[ebp], 0
  0063e	74 0a		 je	 SHORT $LN60@assess_gro
  00640	8b 45 08	 mov	 eax, DWORD PTR _en$[ebp]
  00643	8b 08		 mov	 ecx, DWORD PTR [eax]
  00645	89 4d a8	 mov	 DWORD PTR tv343[ebp], ecx
  00648	eb 21		 jmp	 SHORT $LN61@assess_gro
$LN60@assess_gro:
  0064a	8b 15 00 00 00
	00		 mov	 edx, DWORD PTR ?__LINE__Var@?0??assess_group_supplies@@YGXPAUENTITY@@@Z@4JA
  00650	83 c2 54	 add	 edx, 84			; 00000054H
  00653	52		 push	 edx
  00654	68 00 00 00 00	 push	 OFFSET ??_C@_0EJ@CCBIJPFD@c?3?2users?2nhv90?2projects?2eech?2ap@
  00659	a1 00 00 00 00	 mov	 eax, DWORD PTR ?null_entity_pointer_message@@3PBDB ; null_entity_pointer_message
  0065e	50		 push	 eax
  0065f	e8 00 00 00 00	 call	 ?process_assert@@YGXPBD0H@Z ; process_assert
  00664	c7 45 a8 00 00
	00 00		 mov	 DWORD PTR tv343[ebp], 0
$LN61@assess_gro:
  0066b	b9 01 00 00 00	 mov	 ecx, 1
  00670	85 c9		 test	 ecx, ecx
  00672	74 09		 je	 SHORT $LN62@assess_gro
  00674	c7 45 a4 08 00
	00 00		 mov	 DWORD PTR tv351[ebp], 8
  0067b	eb 21		 jmp	 SHORT $LN63@assess_gro
$LN62@assess_gro:
  0067d	8b 15 00 00 00
	00		 mov	 edx, DWORD PTR ?__LINE__Var@?0??assess_group_supplies@@YGXPAUENTITY@@@Z@4JA
  00683	83 c2 54	 add	 edx, 84			; 00000054H
  00686	52		 push	 edx
  00687	68 00 00 00 00	 push	 OFFSET ??_C@_0EJ@CCBIJPFD@c?3?2users?2nhv90?2projects?2eech?2ap@
  0068c	a1 00 00 00 00	 mov	 eax, DWORD PTR ?overload_invalid_float_type_message@@3PBDB ; overload_invalid_float_type_message
  00691	50		 push	 eax
  00692	e8 00 00 00 00	 call	 ?process_assert@@YGXPBD0H@Z ; process_assert
  00697	c7 45 a4 00 00
	00 00		 mov	 DWORD PTR tv351[ebp], 0
$LN63@assess_gro:
  0069e	8b 4d f4	 mov	 ecx, DWORD PTR _raw$[ebp]
  006a1	f3 0f 10 41 7c	 movss	 xmm0, DWORD PTR [ecx+124]
  006a6	f3 0f 58 45 f0	 addss	 xmm0, DWORD PTR _required$[ebp]
  006ab	51		 push	 ecx
  006ac	f3 0f 11 04 24	 movss	 DWORD PTR [esp], xmm0
  006b1	6a 08		 push	 8
  006b3	8b 55 08	 mov	 edx, DWORD PTR _en$[ebp]
  006b6	52		 push	 edx
  006b7	69 45 a8 78 05
	00 00		 imul	 eax, DWORD PTR tv343[ebp], 1400
  006be	8b 4d a4	 mov	 ecx, DWORD PTR tv351[ebp]
  006c1	8d 94 c8 00 00
	00 00		 lea	 edx, DWORD PTR ?fn_set_client_server_entity_float_value@@3PAY1KP@1P6GXPAUENTITY@@W4FLOAT_TYPES@@M@ZA[eax+ecx*8]
  006c8	a1 00 00 00 00	 mov	 eax, DWORD PTR ?system_comms_model@@3W4COMMS_MODEL_TYPES@@A ; system_comms_model
  006cd	8b 0c 82	 mov	 ecx, DWORD PTR [edx+eax*4]
  006d0	ff d1		 call	 ecx
$LN9@assess_gro:

; 705  : 
; 706  : 				#if DEBUG_MODULE || DEBUG_SUPPLY
; 707  : 
; 708  : 				debug_log ("GROUP: SUPPLY_INFO: Air group %s members landed, rearming group (now ammo = %f, fuel = %f) from keysite %s (%d) (now ammo = %f, fuel = %f)",
; 709  : 							get_local_entity_string (en, STRING_TYPE_FULL_NAME),
; 710  : 							get_local_entity_float_value (en, FLOAT_TYPE_AMMO_SUPPLY_LEVEL),
; 711  : 							get_local_entity_float_value (en, FLOAT_TYPE_FUEL_SUPPLY_LEVEL),
; 712  : 							get_local_entity_string (keysite, STRING_TYPE_FULL_NAME),
; 713  : 							get_local_entity_index (keysite),
; 714  : 							get_local_entity_float_value (keysite, FLOAT_TYPE_AMMO_SUPPLY_LEVEL),
; 715  : 							get_local_entity_float_value (keysite, FLOAT_TYPE_FUEL_SUPPLY_LEVEL));
; 716  : 
; 717  : 				#endif
; 718  : 			}
; 719  : 
; 720  : 			if (raw->supplies.fuel_supply_level < 100.0)

  006d2	8b 45 f4	 mov	 eax, DWORD PTR _raw$[ebp]
  006d5	f3 0f 5a 80 80
	00 00 00	 cvtss2sd xmm0, DWORD PTR [eax+128]
  006dd	f2 0f 10 0d 00
	00 00 00	 movsd	 xmm1, QWORD PTR __real@4059000000000000
  006e5	66 0f 2f c8	 comisd	 xmm1, xmm0
  006e9	0f 86 b2 03 00
	00		 jbe	 $LN13@assess_gro

; 721  : 			{
; 722  : 
; 723  : 				//
; 724  : 				// re-fuel
; 725  : 				//
; 726  : 
; 727  : 				keysite = get_local_entity_parent (en, LIST_TYPE_KEYSITE_GROUP);

  006ef	83 7d 08 00	 cmp	 DWORD PTR _en$[ebp], 0
  006f3	74 0a		 je	 SHORT $LN64@assess_gro
  006f5	8b 45 08	 mov	 eax, DWORD PTR _en$[ebp]
  006f8	8b 08		 mov	 ecx, DWORD PTR [eax]
  006fa	89 4d a8	 mov	 DWORD PTR tv373[ebp], ecx
  006fd	eb 21		 jmp	 SHORT $LN65@assess_gro
$LN64@assess_gro:
  006ff	8b 15 00 00 00
	00		 mov	 edx, DWORD PTR ?__LINE__Var@?0??assess_group_supplies@@YGXPAUENTITY@@@Z@4JA
  00705	83 c2 6b	 add	 edx, 107		; 0000006bH
  00708	52		 push	 edx
  00709	68 00 00 00 00	 push	 OFFSET ??_C@_0EJ@CCBIJPFD@c?3?2users?2nhv90?2projects?2eech?2ap@
  0070e	a1 00 00 00 00	 mov	 eax, DWORD PTR ?null_entity_pointer_message@@3PBDB ; null_entity_pointer_message
  00713	50		 push	 eax
  00714	e8 00 00 00 00	 call	 ?process_assert@@YGXPBD0H@Z ; process_assert
  00719	c7 45 a8 00 00
	00 00		 mov	 DWORD PTR tv373[ebp], 0
$LN65@assess_gro:
  00720	b9 01 00 00 00	 mov	 ecx, 1
  00725	85 c9		 test	 ecx, ecx
  00727	74 09		 je	 SHORT $LN66@assess_gro
  00729	c7 45 a4 16 00
	00 00		 mov	 DWORD PTR tv381[ebp], 22 ; 00000016H
  00730	eb 21		 jmp	 SHORT $LN67@assess_gro
$LN66@assess_gro:
  00732	8b 15 00 00 00
	00		 mov	 edx, DWORD PTR ?__LINE__Var@?0??assess_group_supplies@@YGXPAUENTITY@@@Z@4JA
  00738	83 c2 6b	 add	 edx, 107		; 0000006bH
  0073b	52		 push	 edx
  0073c	68 00 00 00 00	 push	 OFFSET ??_C@_0EJ@CCBIJPFD@c?3?2users?2nhv90?2projects?2eech?2ap@
  00741	a1 00 00 00 00	 mov	 eax, DWORD PTR ?overload_invalid_list_type_message@@3PBDB ; overload_invalid_list_type_message
  00746	50		 push	 eax
  00747	e8 00 00 00 00	 call	 ?process_assert@@YGXPBD0H@Z ; process_assert
  0074c	c7 45 a4 00 00
	00 00		 mov	 DWORD PTR tv381[ebp], 0
$LN67@assess_gro:
  00753	6a 16		 push	 22			; 00000016H
  00755	8b 4d 08	 mov	 ecx, DWORD PTR _en$[ebp]
  00758	51		 push	 ecx
  00759	69 55 a8 b4 00
	00 00		 imul	 edx, DWORD PTR tv373[ebp], 180
  00760	8b 45 a4	 mov	 eax, DWORD PTR tv381[ebp]
  00763	8b 8c 82 00 00
	00 00		 mov	 ecx, DWORD PTR ?fn_get_local_entity_parent@@3PAY0CN@P6GPAUENTITY@@PAU1@W4LIST_TYPES@@@ZA[edx+eax*4]
  0076a	ff d1		 call	 ecx
  0076c	89 45 fc	 mov	 DWORD PTR _keysite$[ebp], eax

; 728  : 
; 729  : 				if ((!keysite) || (get_local_entity_type (keysite) != ENTITY_TYPE_KEYSITE))

  0076f	83 7d fc 00	 cmp	 DWORD PTR _keysite$[ebp], 0
  00773	74 37		 je	 SHORT $LN15@assess_gro
  00775	83 7d fc 00	 cmp	 DWORD PTR _keysite$[ebp], 0
  00779	74 0a		 je	 SHORT $LN68@assess_gro
  0077b	8b 45 fc	 mov	 eax, DWORD PTR _keysite$[ebp]
  0077e	8b 08		 mov	 ecx, DWORD PTR [eax]
  00780	89 4d a8	 mov	 DWORD PTR tv393[ebp], ecx
  00783	eb 1d		 jmp	 SHORT $LN69@assess_gro
$LN68@assess_gro:
  00785	68 d9 02 00 00	 push	 729			; 000002d9H
  0078a	68 00 00 00 00	 push	 OFFSET ??_C@_0EJ@CCBIJPFD@c?3?2users?2nhv90?2projects?2eech?2ap@
  0078f	8b 15 00 00 00
	00		 mov	 edx, DWORD PTR ?null_entity_pointer_message@@3PBDB ; null_entity_pointer_message
  00795	52		 push	 edx
  00796	e8 00 00 00 00	 call	 ?process_assert@@YGXPBD0H@Z ; process_assert
  0079b	c7 45 a8 00 00
	00 00		 mov	 DWORD PTR tv393[ebp], 0
$LN69@assess_gro:
  007a2	83 7d a8 0f	 cmp	 DWORD PTR tv393[ebp], 15 ; 0000000fH
  007a6	0f 84 a7 00 00
	00		 je	 $LN14@assess_gro
$LN15@assess_gro:

; 730  : 				{
; 731  : 					keysite = get_closest_keysite (NUM_ENTITY_SUB_TYPE_KEYSITES, (entity_sides) raw->side, get_local_entity_vec3d_ptr (en, VEC3D_TYPE_POSITION), 1.0 * KILOMETRE, NULL, NULL);

  007ac	83 7d 08 00	 cmp	 DWORD PTR _en$[ebp], 0
  007b0	74 0a		 je	 SHORT $LN70@assess_gro
  007b2	8b 45 08	 mov	 eax, DWORD PTR _en$[ebp]
  007b5	8b 08		 mov	 ecx, DWORD PTR [eax]
  007b7	89 4d a8	 mov	 DWORD PTR tv405[ebp], ecx
  007ba	eb 21		 jmp	 SHORT $LN71@assess_gro
$LN70@assess_gro:
  007bc	8b 15 00 00 00
	00		 mov	 edx, DWORD PTR ?__LINE__Var@?0??assess_group_supplies@@YGXPAUENTITY@@@Z@4JA
  007c2	83 c2 6f	 add	 edx, 111		; 0000006fH
  007c5	52		 push	 edx
  007c6	68 00 00 00 00	 push	 OFFSET ??_C@_0EJ@CCBIJPFD@c?3?2users?2nhv90?2projects?2eech?2ap@
  007cb	a1 00 00 00 00	 mov	 eax, DWORD PTR ?null_entity_pointer_message@@3PBDB ; null_entity_pointer_message
  007d0	50		 push	 eax
  007d1	e8 00 00 00 00	 call	 ?process_assert@@YGXPBD0H@Z ; process_assert
  007d6	c7 45 a8 00 00
	00 00		 mov	 DWORD PTR tv405[ebp], 0
$LN71@assess_gro:
  007dd	b9 01 00 00 00	 mov	 ecx, 1
  007e2	85 c9		 test	 ecx, ecx
  007e4	74 09		 je	 SHORT $LN72@assess_gro
  007e6	c7 45 a4 08 00
	00 00		 mov	 DWORD PTR tv413[ebp], 8
  007ed	eb 21		 jmp	 SHORT $LN73@assess_gro
$LN72@assess_gro:
  007ef	8b 15 00 00 00
	00		 mov	 edx, DWORD PTR ?__LINE__Var@?0??assess_group_supplies@@YGXPAUENTITY@@@Z@4JA
  007f5	83 c2 6f	 add	 edx, 111		; 0000006fH
  007f8	52		 push	 edx
  007f9	68 00 00 00 00	 push	 OFFSET ??_C@_0EJ@CCBIJPFD@c?3?2users?2nhv90?2projects?2eech?2ap@
  007fe	a1 00 00 00 00	 mov	 eax, DWORD PTR ?overload_invalid_vec3d_type_message@@3PBDB ; overload_invalid_vec3d_type_message
  00803	50		 push	 eax
  00804	e8 00 00 00 00	 call	 ?process_assert@@YGXPBD0H@Z ; process_assert
  00809	c7 45 a4 00 00
	00 00		 mov	 DWORD PTR tv413[ebp], 0
$LN73@assess_gro:
  00810	6a 00		 push	 0
  00812	6a 00		 push	 0
  00814	51		 push	 ecx
  00815	f3 0f 10 05 00
	00 00 00	 movss	 xmm0, DWORD PTR __real@447a0000
  0081d	f3 0f 11 04 24	 movss	 DWORD PTR [esp], xmm0
  00822	6a 08		 push	 8
  00824	8b 4d 08	 mov	 ecx, DWORD PTR _en$[ebp]
  00827	51		 push	 ecx
  00828	6b 55 a8 60	 imul	 edx, DWORD PTR tv405[ebp], 96
  0082c	8b 45 a4	 mov	 eax, DWORD PTR tv413[ebp]
  0082f	8b 8c 82 00 00
	00 00		 mov	 ecx, DWORD PTR ?fn_get_local_entity_vec3d_ptr@@3PAY0BI@P6GPAUVEC3D@@PAUENTITY@@W4VEC3D_TYPES@@@ZA[edx+eax*4]
  00836	ff d1		 call	 ecx
  00838	50		 push	 eax
  00839	8b 55 f4	 mov	 edx, DWORD PTR _raw$[ebp]
  0083c	8b 82 8c 00 00
	00		 mov	 eax, DWORD PTR [edx+140]
  00842	c1 e8 0a	 shr	 eax, 10			; 0000000aH
  00845	83 e0 03	 and	 eax, 3
  00848	50		 push	 eax
  00849	6a 09		 push	 9
  0084b	e8 00 00 00 00	 call	 ?get_closest_keysite@@YGPAUENTITY@@HW4ENTITY_SIDES@@PAUVEC3D@@MPAMPAU1@@Z ; get_closest_keysite
  00850	89 45 fc	 mov	 DWORD PTR _keysite$[ebp], eax
$LN14@assess_gro:

; 732  : 				}
; 733  : 
; 734  : 				ASSERT (keysite);

  00853	83 7d fc 00	 cmp	 DWORD PTR _keysite$[ebp], 0
  00857	75 18		 jne	 SHORT $LN16@assess_gro
  00859	a1 00 00 00 00	 mov	 eax, DWORD PTR ?__LINE__Var@?0??assess_group_supplies@@YGXPAUENTITY@@@Z@4JA
  0085e	83 c0 72	 add	 eax, 114		; 00000072H
  00861	50		 push	 eax
  00862	68 00 00 00 00	 push	 OFFSET ??_C@_0EJ@CCBIJPFD@c?3?2users?2nhv90?2projects?2eech?2ap@
  00867	68 00 00 00 00	 push	 OFFSET ??_C@_07FBNBNOMI@keysite@
  0086c	e8 00 00 00 00	 call	 ?process_assert@@YGXPBD0H@Z ; process_assert
$LN16@assess_gro:

; 735  : 
; 736  : 				level = get_local_entity_float_value (keysite, FLOAT_TYPE_FUEL_SUPPLY_LEVEL);

  00871	83 7d fc 00	 cmp	 DWORD PTR _keysite$[ebp], 0
  00875	74 0a		 je	 SHORT $LN74@assess_gro
  00877	8b 45 fc	 mov	 eax, DWORD PTR _keysite$[ebp]
  0087a	8b 08		 mov	 ecx, DWORD PTR [eax]
  0087c	89 4d a8	 mov	 DWORD PTR tv436[ebp], ecx
  0087f	eb 21		 jmp	 SHORT $LN75@assess_gro
$LN74@assess_gro:
  00881	8b 15 00 00 00
	00		 mov	 edx, DWORD PTR ?__LINE__Var@?0??assess_group_supplies@@YGXPAUENTITY@@@Z@4JA
  00887	83 c2 74	 add	 edx, 116		; 00000074H
  0088a	52		 push	 edx
  0088b	68 00 00 00 00	 push	 OFFSET ??_C@_0EJ@CCBIJPFD@c?3?2users?2nhv90?2projects?2eech?2ap@
  00890	a1 00 00 00 00	 mov	 eax, DWORD PTR ?null_entity_pointer_message@@3PBDB ; null_entity_pointer_message
  00895	50		 push	 eax
  00896	e8 00 00 00 00	 call	 ?process_assert@@YGXPBD0H@Z ; process_assert
  0089b	c7 45 a8 00 00
	00 00		 mov	 DWORD PTR tv436[ebp], 0
$LN75@assess_gro:
  008a2	b9 01 00 00 00	 mov	 ecx, 1
  008a7	85 c9		 test	 ecx, ecx
  008a9	74 09		 je	 SHORT $LN76@assess_gro
  008ab	c7 45 a4 30 00
	00 00		 mov	 DWORD PTR tv444[ebp], 48 ; 00000030H
  008b2	eb 21		 jmp	 SHORT $LN77@assess_gro
$LN76@assess_gro:
  008b4	8b 15 00 00 00
	00		 mov	 edx, DWORD PTR ?__LINE__Var@?0??assess_group_supplies@@YGXPAUENTITY@@@Z@4JA
  008ba	83 c2 74	 add	 edx, 116		; 00000074H
  008bd	52		 push	 edx
  008be	68 00 00 00 00	 push	 OFFSET ??_C@_0EJ@CCBIJPFD@c?3?2users?2nhv90?2projects?2eech?2ap@
  008c3	a1 00 00 00 00	 mov	 eax, DWORD PTR ?overload_invalid_float_type_message@@3PBDB ; overload_invalid_float_type_message
  008c8	50		 push	 eax
  008c9	e8 00 00 00 00	 call	 ?process_assert@@YGXPBD0H@Z ; process_assert
  008ce	c7 45 a4 00 00
	00 00		 mov	 DWORD PTR tv444[ebp], 0
$LN77@assess_gro:
  008d5	6a 30		 push	 48			; 00000030H
  008d7	8b 4d fc	 mov	 ecx, DWORD PTR _keysite$[ebp]
  008da	51		 push	 ecx
  008db	69 55 a8 bc 02
	00 00		 imul	 edx, DWORD PTR tv436[ebp], 700
  008e2	8b 45 a4	 mov	 eax, DWORD PTR tv444[ebp]
  008e5	8b 8c 82 00 00
	00 00		 mov	 ecx, DWORD PTR ?fn_get_local_entity_float_value@@3PAY0KP@P6GMPAUENTITY@@W4FLOAT_TYPES@@@ZA[edx+eax*4]
  008ec	ff d1		 call	 ecx
  008ee	d9 5d ec	 fstp	 DWORD PTR _level$[ebp]

; 737  : 
; 738  : 				required = 100.0 - (raw->supplies.fuel_supply_level * FUEL_USAGE_ACCELERATOR);

  008f1	8b 45 f4	 mov	 eax, DWORD PTR _raw$[ebp]
  008f4	f3 0f 5a 80 80
	00 00 00	 cvtss2sd xmm0, DWORD PTR [eax+128]
  008fc	f2 0f 59 05 00
	00 00 00	 mulsd	 xmm0, QWORD PTR __real@3ff0000000000000
  00904	f2 0f 10 0d 00
	00 00 00	 movsd	 xmm1, QWORD PTR __real@4059000000000000
  0090c	f2 0f 5c c8	 subsd	 xmm1, xmm0
  00910	f2 0f 5a c1	 cvtsd2ss xmm0, xmm1
  00914	f3 0f 11 45 f0	 movss	 DWORD PTR _required$[ebp], xmm0

; 739  : 
; 740  : 				required = bound (required, 0.0, level);

  00919	f3 0f 5a 45 f0	 cvtss2sd xmm0, DWORD PTR _required$[ebp]
  0091e	0f 57 c9	 xorps	 xmm1, xmm1
  00921	66 0f 2f c8	 comisd	 xmm1, xmm0
  00925	76 0a		 jbe	 SHORT $LN80@assess_gro
  00927	0f 57 c0	 xorps	 xmm0, xmm0
  0092a	f2 0f 11 45 a4	 movsd	 QWORD PTR tv461[ebp], xmm0
  0092f	eb 2b		 jmp	 SHORT $LN81@assess_gro
$LN80@assess_gro:
  00931	f3 0f 10 45 f0	 movss	 xmm0, DWORD PTR _required$[ebp]
  00936	0f 2f 45 ec	 comiss	 xmm0, DWORD PTR _level$[ebp]
  0093a	76 0c		 jbe	 SHORT $LN78@assess_gro
  0093c	f3 0f 10 45 ec	 movss	 xmm0, DWORD PTR _level$[ebp]
  00941	f3 0f 11 45 a0	 movss	 DWORD PTR tv459[ebp], xmm0
  00946	eb 0a		 jmp	 SHORT $LN79@assess_gro
$LN78@assess_gro:
  00948	f3 0f 10 45 f0	 movss	 xmm0, DWORD PTR _required$[ebp]
  0094d	f3 0f 11 45 a0	 movss	 DWORD PTR tv459[ebp], xmm0
$LN79@assess_gro:
  00952	f3 0f 5a 45 a0	 cvtss2sd xmm0, DWORD PTR tv459[ebp]
  00957	f2 0f 11 45 a4	 movsd	 QWORD PTR tv461[ebp], xmm0
$LN81@assess_gro:
  0095c	f2 0f 5a 45 a4	 cvtsd2ss xmm0, QWORD PTR tv461[ebp]
  00961	f3 0f 11 45 f0	 movss	 DWORD PTR _required$[ebp], xmm0

; 741  : 
; 742  : 				level -= required;

  00966	f3 0f 10 45 ec	 movss	 xmm0, DWORD PTR _level$[ebp]
  0096b	f3 0f 5c 45 f0	 subss	 xmm0, DWORD PTR _required$[ebp]
  00970	f3 0f 11 45 ec	 movss	 DWORD PTR _level$[ebp], xmm0

; 743  : 
; 744  : 				set_client_server_entity_float_value (keysite, FLOAT_TYPE_FUEL_SUPPLY_LEVEL, level);

  00975	83 7d fc 00	 cmp	 DWORD PTR _keysite$[ebp], 0
  00979	74 0a		 je	 SHORT $LN82@assess_gro
  0097b	8b 45 fc	 mov	 eax, DWORD PTR _keysite$[ebp]
  0097e	8b 08		 mov	 ecx, DWORD PTR [eax]
  00980	89 4d a8	 mov	 DWORD PTR tv470[ebp], ecx
  00983	eb 21		 jmp	 SHORT $LN83@assess_gro
$LN82@assess_gro:
  00985	8b 15 00 00 00
	00		 mov	 edx, DWORD PTR ?__LINE__Var@?0??assess_group_supplies@@YGXPAUENTITY@@@Z@4JA
  0098b	83 c2 7c	 add	 edx, 124		; 0000007cH
  0098e	52		 push	 edx
  0098f	68 00 00 00 00	 push	 OFFSET ??_C@_0EJ@CCBIJPFD@c?3?2users?2nhv90?2projects?2eech?2ap@
  00994	a1 00 00 00 00	 mov	 eax, DWORD PTR ?null_entity_pointer_message@@3PBDB ; null_entity_pointer_message
  00999	50		 push	 eax
  0099a	e8 00 00 00 00	 call	 ?process_assert@@YGXPBD0H@Z ; process_assert
  0099f	c7 45 a8 00 00
	00 00		 mov	 DWORD PTR tv470[ebp], 0
$LN83@assess_gro:
  009a6	b9 01 00 00 00	 mov	 ecx, 1
  009ab	85 c9		 test	 ecx, ecx
  009ad	74 09		 je	 SHORT $LN84@assess_gro
  009af	c7 45 a4 30 00
	00 00		 mov	 DWORD PTR tv478[ebp], 48 ; 00000030H
  009b6	eb 21		 jmp	 SHORT $LN85@assess_gro
$LN84@assess_gro:
  009b8	8b 15 00 00 00
	00		 mov	 edx, DWORD PTR ?__LINE__Var@?0??assess_group_supplies@@YGXPAUENTITY@@@Z@4JA
  009be	83 c2 7c	 add	 edx, 124		; 0000007cH
  009c1	52		 push	 edx
  009c2	68 00 00 00 00	 push	 OFFSET ??_C@_0EJ@CCBIJPFD@c?3?2users?2nhv90?2projects?2eech?2ap@
  009c7	a1 00 00 00 00	 mov	 eax, DWORD PTR ?overload_invalid_float_type_message@@3PBDB ; overload_invalid_float_type_message
  009cc	50		 push	 eax
  009cd	e8 00 00 00 00	 call	 ?process_assert@@YGXPBD0H@Z ; process_assert
  009d2	c7 45 a4 00 00
	00 00		 mov	 DWORD PTR tv478[ebp], 0
$LN85@assess_gro:
  009d9	51		 push	 ecx
  009da	f3 0f 10 45 ec	 movss	 xmm0, DWORD PTR _level$[ebp]
  009df	f3 0f 11 04 24	 movss	 DWORD PTR [esp], xmm0
  009e4	6a 30		 push	 48			; 00000030H
  009e6	8b 4d fc	 mov	 ecx, DWORD PTR _keysite$[ebp]
  009e9	51		 push	 ecx
  009ea	69 55 a8 78 05
	00 00		 imul	 edx, DWORD PTR tv470[ebp], 1400
  009f1	8b 45 a4	 mov	 eax, DWORD PTR tv478[ebp]
  009f4	8d 8c c2 00 00
	00 00		 lea	 ecx, DWORD PTR ?fn_set_client_server_entity_float_value@@3PAY1KP@1P6GXPAUENTITY@@W4FLOAT_TYPES@@M@ZA[edx+eax*8]
  009fb	8b 15 00 00 00
	00		 mov	 edx, DWORD PTR ?system_comms_model@@3W4COMMS_MODEL_TYPES@@A ; system_comms_model
  00a01	8b 04 91	 mov	 eax, DWORD PTR [ecx+edx*4]
  00a04	ff d0		 call	 eax

; 745  : 
; 746  : 				set_client_server_entity_float_value (en, FLOAT_TYPE_FUEL_SUPPLY_LEVEL, raw->supplies.fuel_supply_level + required);

  00a06	83 7d 08 00	 cmp	 DWORD PTR _en$[ebp], 0
  00a0a	74 0a		 je	 SHORT $LN86@assess_gro
  00a0c	8b 45 08	 mov	 eax, DWORD PTR _en$[ebp]
  00a0f	8b 08		 mov	 ecx, DWORD PTR [eax]
  00a11	89 4d a8	 mov	 DWORD PTR tv492[ebp], ecx
  00a14	eb 21		 jmp	 SHORT $LN87@assess_gro
$LN86@assess_gro:
  00a16	8b 15 00 00 00
	00		 mov	 edx, DWORD PTR ?__LINE__Var@?0??assess_group_supplies@@YGXPAUENTITY@@@Z@4JA
  00a1c	83 c2 7e	 add	 edx, 126		; 0000007eH
  00a1f	52		 push	 edx
  00a20	68 00 00 00 00	 push	 OFFSET ??_C@_0EJ@CCBIJPFD@c?3?2users?2nhv90?2projects?2eech?2ap@
  00a25	a1 00 00 00 00	 mov	 eax, DWORD PTR ?null_entity_pointer_message@@3PBDB ; null_entity_pointer_message
  00a2a	50		 push	 eax
  00a2b	e8 00 00 00 00	 call	 ?process_assert@@YGXPBD0H@Z ; process_assert
  00a30	c7 45 a8 00 00
	00 00		 mov	 DWORD PTR tv492[ebp], 0
$LN87@assess_gro:
  00a37	b9 01 00 00 00	 mov	 ecx, 1
  00a3c	85 c9		 test	 ecx, ecx
  00a3e	74 09		 je	 SHORT $LN88@assess_gro
  00a40	c7 45 a4 30 00
	00 00		 mov	 DWORD PTR tv500[ebp], 48 ; 00000030H
  00a47	eb 21		 jmp	 SHORT $LN89@assess_gro
$LN88@assess_gro:
  00a49	8b 15 00 00 00
	00		 mov	 edx, DWORD PTR ?__LINE__Var@?0??assess_group_supplies@@YGXPAUENTITY@@@Z@4JA
  00a4f	83 c2 7e	 add	 edx, 126		; 0000007eH
  00a52	52		 push	 edx
  00a53	68 00 00 00 00	 push	 OFFSET ??_C@_0EJ@CCBIJPFD@c?3?2users?2nhv90?2projects?2eech?2ap@
  00a58	a1 00 00 00 00	 mov	 eax, DWORD PTR ?overload_invalid_float_type_message@@3PBDB ; overload_invalid_float_type_message
  00a5d	50		 push	 eax
  00a5e	e8 00 00 00 00	 call	 ?process_assert@@YGXPBD0H@Z ; process_assert
  00a63	c7 45 a4 00 00
	00 00		 mov	 DWORD PTR tv500[ebp], 0
$LN89@assess_gro:
  00a6a	8b 4d f4	 mov	 ecx, DWORD PTR _raw$[ebp]
  00a6d	f3 0f 10 81 80
	00 00 00	 movss	 xmm0, DWORD PTR [ecx+128]
  00a75	f3 0f 58 45 f0	 addss	 xmm0, DWORD PTR _required$[ebp]
  00a7a	51		 push	 ecx
  00a7b	f3 0f 11 04 24	 movss	 DWORD PTR [esp], xmm0
  00a80	6a 30		 push	 48			; 00000030H
  00a82	8b 55 08	 mov	 edx, DWORD PTR _en$[ebp]
  00a85	52		 push	 edx
  00a86	69 45 a8 78 05
	00 00		 imul	 eax, DWORD PTR tv492[ebp], 1400
  00a8d	8b 4d a4	 mov	 ecx, DWORD PTR tv500[ebp]
  00a90	8d 94 c8 00 00
	00 00		 lea	 edx, DWORD PTR ?fn_set_client_server_entity_float_value@@3PAY1KP@1P6GXPAUENTITY@@W4FLOAT_TYPES@@M@ZA[eax+ecx*8]
  00a97	a1 00 00 00 00	 mov	 eax, DWORD PTR ?system_comms_model@@3W4COMMS_MODEL_TYPES@@A ; system_comms_model
  00a9c	8b 0c 82	 mov	 ecx, DWORD PTR [edx+eax*4]
  00a9f	ff d1		 call	 ecx
$LN13@assess_gro:

; 747  : 
; 748  : 				#if DEBUG_MODULE || DEBUG_SUPPLY
; 749  : 
; 750  : 				debug_log ("GROUP: SUPPLY_INFO: Air group %s members landed, refuelling group (now ammo = %f, fuel = %f) from keysite %s (%d) (now ammo = %f, fuel = %f)",
; 751  : 							get_local_entity_string (en, STRING_TYPE_FULL_NAME),
; 752  : 							get_local_entity_float_value (en, FLOAT_TYPE_AMMO_SUPPLY_LEVEL),
; 753  : 							get_local_entity_float_value (en, FLOAT_TYPE_FUEL_SUPPLY_LEVEL),
; 754  : 							get_local_entity_string (keysite, STRING_TYPE_FULL_NAME),
; 755  : 							get_local_entity_index (keysite),
; 756  : 							get_local_entity_float_value (keysite, FLOAT_TYPE_AMMO_SUPPLY_LEVEL),
; 757  : 							get_local_entity_float_value (keysite, FLOAT_TYPE_FUEL_SUPPLY_LEVEL));
; 758  : 
; 759  : 				#endif
; 760  : 			}
; 761  : 		}
; 762  : 	}
; 763  : }

  00aa1	5f		 pop	 edi
  00aa2	5e		 pop	 esi
  00aa3	5b		 pop	 ebx
  00aa4	8b e5		 mov	 esp, ebp
  00aa6	5d		 pop	 ebp
  00aa7	c2 04 00	 ret	 4
?assess_group_supplies@@YGXPAUENTITY@@@Z ENDP		; assess_group_supplies
_TEXT	ENDS
; Function compile flags: /Odtp /ZI
; File c:\users\nhv90\projects\eech\aphavoc\source\entity\special\group\group.c
;	COMDAT ?get_group_suitable_for_player@@YGHPAUENTITY@@0@Z
_TEXT	SEGMENT
tv141 = -76						; size = 4
tv84 = -76						; size = 4
tv133 = -72						; size = 4
tv76 = -72						; size = 4
_member$ = -4						; size = 4
_group$ = 8						; size = 4
_pilot$ = 12						; size = 4
?get_group_suitable_for_player@@YGHPAUENTITY@@0@Z PROC	; get_group_suitable_for_player, COMDAT

; 589  : {

  00000	55		 push	 ebp
  00001	8b ec		 mov	 ebp, esp
  00003	83 ec 4c	 sub	 esp, 76			; 0000004cH
  00006	53		 push	 ebx
  00007	56		 push	 esi
  00008	57		 push	 edi

; 590  : 	entity
; 591  : 		*member;
; 592  : 
; 593  : 	ASSERT (group);

  00009	83 7d 08 00	 cmp	 DWORD PTR _group$[ebp], 0
  0000d	75 18		 jne	 SHORT $LN4@get_group_
  0000f	a1 00 00 00 00	 mov	 eax, DWORD PTR ?__LINE__Var@?0??get_group_suitable_for_player@@YGHPAUENTITY@@0@Z@4JA
  00014	83 c0 04	 add	 eax, 4
  00017	50		 push	 eax
  00018	68 00 00 00 00	 push	 OFFSET ??_C@_0EJ@CCBIJPFD@c?3?2users?2nhv90?2projects?2eech?2ap@
  0001d	68 00 00 00 00	 push	 OFFSET ??_C@_05MGJOOGAJ@group@
  00022	e8 00 00 00 00	 call	 ?process_assert@@YGXPBD0H@Z ; process_assert
$LN4@get_group_:

; 594  : 
; 595  : 	if (!group)

  00027	83 7d 08 00	 cmp	 DWORD PTR _group$[ebp], 0
  0002b	75 07		 jne	 SHORT $LN5@get_group_

; 596  : 	{
; 597  : 		return FALSE;

  0002d	33 c0		 xor	 eax, eax
  0002f	e9 2c 01 00 00	 jmp	 $LN1@get_group_
$LN5@get_group_:

; 598  : 	}
; 599  : 
; 600  : 	member = get_local_entity_first_child (group, LIST_TYPE_MEMBER);

  00034	83 7d 08 00	 cmp	 DWORD PTR _group$[ebp], 0
  00038	74 0a		 je	 SHORT $LN8@get_group_
  0003a	8b 45 08	 mov	 eax, DWORD PTR _group$[ebp]
  0003d	8b 08		 mov	 ecx, DWORD PTR [eax]
  0003f	89 4d b8	 mov	 DWORD PTR tv76[ebp], ecx
  00042	eb 21		 jmp	 SHORT $LN9@get_group_
$LN8@get_group_:
  00044	8b 15 00 00 00
	00		 mov	 edx, DWORD PTR ?__LINE__Var@?0??get_group_suitable_for_player@@YGHPAUENTITY@@0@Z@4JA
  0004a	83 c2 0b	 add	 edx, 11			; 0000000bH
  0004d	52		 push	 edx
  0004e	68 00 00 00 00	 push	 OFFSET ??_C@_0EJ@CCBIJPFD@c?3?2users?2nhv90?2projects?2eech?2ap@
  00053	a1 00 00 00 00	 mov	 eax, DWORD PTR ?null_entity_pointer_message@@3PBDB ; null_entity_pointer_message
  00058	50		 push	 eax
  00059	e8 00 00 00 00	 call	 ?process_assert@@YGXPBD0H@Z ; process_assert
  0005e	c7 45 b8 00 00
	00 00		 mov	 DWORD PTR tv76[ebp], 0
$LN9@get_group_:
  00065	b9 01 00 00 00	 mov	 ecx, 1
  0006a	85 c9		 test	 ecx, ecx
  0006c	74 09		 je	 SHORT $LN10@get_group_
  0006e	c7 45 b4 19 00
	00 00		 mov	 DWORD PTR tv84[ebp], 25	; 00000019H
  00075	eb 21		 jmp	 SHORT $LN11@get_group_
$LN10@get_group_:
  00077	8b 15 00 00 00
	00		 mov	 edx, DWORD PTR ?__LINE__Var@?0??get_group_suitable_for_player@@YGHPAUENTITY@@0@Z@4JA
  0007d	83 c2 0b	 add	 edx, 11			; 0000000bH
  00080	52		 push	 edx
  00081	68 00 00 00 00	 push	 OFFSET ??_C@_0EJ@CCBIJPFD@c?3?2users?2nhv90?2projects?2eech?2ap@
  00086	a1 00 00 00 00	 mov	 eax, DWORD PTR ?overload_invalid_list_type_message@@3PBDB ; overload_invalid_list_type_message
  0008b	50		 push	 eax
  0008c	e8 00 00 00 00	 call	 ?process_assert@@YGXPBD0H@Z ; process_assert
  00091	c7 45 b4 00 00
	00 00		 mov	 DWORD PTR tv84[ebp], 0
$LN11@get_group_:
  00098	6a 19		 push	 25			; 00000019H
  0009a	8b 4d 08	 mov	 ecx, DWORD PTR _group$[ebp]
  0009d	51		 push	 ecx
  0009e	69 55 b8 b4 00
	00 00		 imul	 edx, DWORD PTR tv76[ebp], 180
  000a5	8b 45 b4	 mov	 eax, DWORD PTR tv84[ebp]
  000a8	8b 8c 82 00 00
	00 00		 mov	 ecx, DWORD PTR ?fn_get_local_entity_first_child@@3PAY0CN@P6GPAUENTITY@@PAU1@W4LIST_TYPES@@@ZA[edx+eax*4]
  000af	ff d1		 call	 ecx
  000b1	89 45 fc	 mov	 DWORD PTR _member$[ebp], eax
$LN2@get_group_:

; 601  : 
; 602  : 	while (member)

  000b4	83 7d fc 00	 cmp	 DWORD PTR _member$[ebp], 0
  000b8	0f 84 a0 00 00
	00		 je	 $LN3@get_group_

; 603  : 	{
; 604  : 		if (get_local_entity_suitable_for_player (member, pilot))

  000be	8b 45 0c	 mov	 eax, DWORD PTR _pilot$[ebp]
  000c1	50		 push	 eax
  000c2	8b 4d fc	 mov	 ecx, DWORD PTR _member$[ebp]
  000c5	51		 push	 ecx
  000c6	e8 00 00 00 00	 call	 ?get_local_entity_suitable_for_player@@YGHPAUENTITY@@0@Z ; get_local_entity_suitable_for_player
  000cb	85 c0		 test	 eax, eax
  000cd	74 0a		 je	 SHORT $LN6@get_group_

; 605  : 		{
; 606  : 			return TRUE;

  000cf	b8 01 00 00 00	 mov	 eax, 1
  000d4	e9 87 00 00 00	 jmp	 $LN1@get_group_
$LN6@get_group_:

; 607  : 		}
; 608  : 
; 609  : 		member = get_local_entity_child_succ (member, LIST_TYPE_MEMBER);

  000d9	83 7d fc 00	 cmp	 DWORD PTR _member$[ebp], 0
  000dd	74 0a		 je	 SHORT $LN12@get_group_
  000df	8b 45 fc	 mov	 eax, DWORD PTR _member$[ebp]
  000e2	8b 08		 mov	 ecx, DWORD PTR [eax]
  000e4	89 4d b8	 mov	 DWORD PTR tv133[ebp], ecx
  000e7	eb 21		 jmp	 SHORT $LN13@get_group_
$LN12@get_group_:
  000e9	8b 15 00 00 00
	00		 mov	 edx, DWORD PTR ?__LINE__Var@?0??get_group_suitable_for_player@@YGHPAUENTITY@@0@Z@4JA
  000ef	83 c2 14	 add	 edx, 20			; 00000014H
  000f2	52		 push	 edx
  000f3	68 00 00 00 00	 push	 OFFSET ??_C@_0EJ@CCBIJPFD@c?3?2users?2nhv90?2projects?2eech?2ap@
  000f8	a1 00 00 00 00	 mov	 eax, DWORD PTR ?null_entity_pointer_message@@3PBDB ; null_entity_pointer_message
  000fd	50		 push	 eax
  000fe	e8 00 00 00 00	 call	 ?process_assert@@YGXPBD0H@Z ; process_assert
  00103	c7 45 b8 00 00
	00 00		 mov	 DWORD PTR tv133[ebp], 0
$LN13@get_group_:
  0010a	b9 01 00 00 00	 mov	 ecx, 1
  0010f	85 c9		 test	 ecx, ecx
  00111	74 09		 je	 SHORT $LN14@get_group_
  00113	c7 45 b4 19 00
	00 00		 mov	 DWORD PTR tv141[ebp], 25 ; 00000019H
  0011a	eb 21		 jmp	 SHORT $LN15@get_group_
$LN14@get_group_:
  0011c	8b 15 00 00 00
	00		 mov	 edx, DWORD PTR ?__LINE__Var@?0??get_group_suitable_for_player@@YGHPAUENTITY@@0@Z@4JA
  00122	83 c2 14	 add	 edx, 20			; 00000014H
  00125	52		 push	 edx
  00126	68 00 00 00 00	 push	 OFFSET ??_C@_0EJ@CCBIJPFD@c?3?2users?2nhv90?2projects?2eech?2ap@
  0012b	a1 00 00 00 00	 mov	 eax, DWORD PTR ?overload_invalid_list_type_message@@3PBDB ; overload_invalid_list_type_message
  00130	50		 push	 eax
  00131	e8 00 00 00 00	 call	 ?process_assert@@YGXPBD0H@Z ; process_assert
  00136	c7 45 b4 00 00
	00 00		 mov	 DWORD PTR tv141[ebp], 0
$LN15@get_group_:
  0013d	6a 19		 push	 25			; 00000019H
  0013f	8b 4d fc	 mov	 ecx, DWORD PTR _member$[ebp]
  00142	51		 push	 ecx
  00143	69 55 b8 b4 00
	00 00		 imul	 edx, DWORD PTR tv133[ebp], 180
  0014a	8b 45 b4	 mov	 eax, DWORD PTR tv141[ebp]
  0014d	8b 8c 82 00 00
	00 00		 mov	 ecx, DWORD PTR ?fn_get_local_entity_child_succ@@3PAY0CN@P6GPAUENTITY@@PAU1@W4LIST_TYPES@@@ZA[edx+eax*4]
  00154	ff d1		 call	 ecx
  00156	89 45 fc	 mov	 DWORD PTR _member$[ebp], eax

; 610  : 	}

  00159	e9 56 ff ff ff	 jmp	 $LN2@get_group_
$LN3@get_group_:

; 611  : 
; 612  : 	return FALSE;

  0015e	33 c0		 xor	 eax, eax
$LN1@get_group_:

; 613  : }

  00160	5f		 pop	 edi
  00161	5e		 pop	 esi
  00162	5b		 pop	 ebx
  00163	8b e5		 mov	 esp, ebp
  00165	5d		 pop	 ebp
  00166	c2 08 00	 ret	 8
?get_group_suitable_for_player@@YGHPAUENTITY@@0@Z ENDP	; get_group_suitable_for_player
_TEXT	ENDS
; Function compile flags: /Odtp /ZI
; File c:\users\nhv90\projects\eech\aphavoc\source\entity\special\group\group.c
;	COMDAT ?set_group_verbose_operational_state@@YGXPAUENTITY@@H@Z
_TEXT	SEGMENT
tv83 = -76						; size = 4
tv75 = -72						; size = 4
_raw$ = -4						; size = 4
_en$ = 8						; size = 4
_state$ = 12						; size = 4
?set_group_verbose_operational_state@@YGXPAUENTITY@@H@Z PROC ; set_group_verbose_operational_state, COMDAT

; 562  : {

  00000	55		 push	 ebp
  00001	8b ec		 mov	 ebp, esp
  00003	83 ec 4c	 sub	 esp, 76			; 0000004cH
  00006	53		 push	 ebx
  00007	56		 push	 esi
  00008	57		 push	 edi

; 563  : 
; 564  : 	group
; 565  : 		*raw;
; 566  : 
; 567  : 	if (get_comms_model () == COMMS_MODEL_CLIENT)

  00009	83 3d 00 00 00
	00 01		 cmp	 DWORD PTR ?system_comms_model@@3W4COMMS_MODEL_TYPES@@A, 1 ; system_comms_model
  00010	75 05		 jne	 SHORT $LN2@set_group_

; 568  : 	{
; 569  : 
; 570  : 		return;

  00012	e9 ab 00 00 00	 jmp	 $LN1@set_group_
$LN2@set_group_:

; 571  : 	}
; 572  : 
; 573  : 	raw = (group *) get_local_entity_data (en);

  00017	8b 45 08	 mov	 eax, DWORD PTR _en$[ebp]
  0001a	8b 48 04	 mov	 ecx, DWORD PTR [eax+4]
  0001d	89 4d fc	 mov	 DWORD PTR _raw$[ebp], ecx

; 574  : 
; 575  : 	if (raw->verbose_operational_state == state)

  00020	8b 45 fc	 mov	 eax, DWORD PTR _raw$[ebp]
  00023	8b 88 94 00 00
	00		 mov	 ecx, DWORD PTR [eax+148]
  00029	83 e1 3f	 and	 ecx, 63			; 0000003fH
  0002c	3b 4d 0c	 cmp	 ecx, DWORD PTR _state$[ebp]
  0002f	75 05		 jne	 SHORT $LN3@set_group_

; 576  : 	{
; 577  : 
; 578  : 		return;

  00031	e9 8c 00 00 00	 jmp	 $LN1@set_group_
$LN3@set_group_:

; 579  : 	}
; 580  : 
; 581  : 	set_client_server_entity_int_value (en, INT_TYPE_VERBOSE_OPERATIONAL_STATE, state);

  00036	83 7d 08 00	 cmp	 DWORD PTR _en$[ebp], 0
  0003a	74 0a		 je	 SHORT $LN5@set_group_
  0003c	8b 45 08	 mov	 eax, DWORD PTR _en$[ebp]
  0003f	8b 08		 mov	 ecx, DWORD PTR [eax]
  00041	89 4d b8	 mov	 DWORD PTR tv75[ebp], ecx
  00044	eb 21		 jmp	 SHORT $LN6@set_group_
$LN5@set_group_:
  00046	8b 15 00 00 00
	00		 mov	 edx, DWORD PTR ?__LINE__Var@?0??set_group_verbose_operational_state@@YGXPAUENTITY@@H@Z@4JA
  0004c	83 c2 13	 add	 edx, 19			; 00000013H
  0004f	52		 push	 edx
  00050	68 00 00 00 00	 push	 OFFSET ??_C@_0EJ@CCBIJPFD@c?3?2users?2nhv90?2projects?2eech?2ap@
  00055	a1 00 00 00 00	 mov	 eax, DWORD PTR ?null_entity_pointer_message@@3PBDB ; null_entity_pointer_message
  0005a	50		 push	 eax
  0005b	e8 00 00 00 00	 call	 ?process_assert@@YGXPBD0H@Z ; process_assert
  00060	c7 45 b8 00 00
	00 00		 mov	 DWORD PTR tv75[ebp], 0
$LN6@set_group_:
  00067	b9 01 00 00 00	 mov	 ecx, 1
  0006c	85 c9		 test	 ecx, ecx
  0006e	74 09		 je	 SHORT $LN7@set_group_
  00070	c7 45 b4 f4 00
	00 00		 mov	 DWORD PTR tv83[ebp], 244 ; 000000f4H
  00077	eb 21		 jmp	 SHORT $LN8@set_group_
$LN7@set_group_:
  00079	8b 15 00 00 00
	00		 mov	 edx, DWORD PTR ?__LINE__Var@?0??set_group_verbose_operational_state@@YGXPAUENTITY@@H@Z@4JA
  0007f	83 c2 13	 add	 edx, 19			; 00000013H
  00082	52		 push	 edx
  00083	68 00 00 00 00	 push	 OFFSET ??_C@_0EJ@CCBIJPFD@c?3?2users?2nhv90?2projects?2eech?2ap@
  00088	a1 00 00 00 00	 mov	 eax, DWORD PTR ?overload_invalid_int_type_message@@3PBDB ; overload_invalid_int_type_message
  0008d	50		 push	 eax
  0008e	e8 00 00 00 00	 call	 ?process_assert@@YGXPBD0H@Z ; process_assert
  00093	c7 45 b4 00 00
	00 00		 mov	 DWORD PTR tv83[ebp], 0
$LN8@set_group_:
  0009a	8b 4d 0c	 mov	 ecx, DWORD PTR _state$[ebp]
  0009d	51		 push	 ecx
  0009e	68 f4 00 00 00	 push	 244			; 000000f4H
  000a3	8b 55 08	 mov	 edx, DWORD PTR _en$[ebp]
  000a6	52		 push	 edx
  000a7	69 45 b8 b8 08
	00 00		 imul	 eax, DWORD PTR tv75[ebp], 2232
  000ae	8b 4d b4	 mov	 ecx, DWORD PTR tv83[ebp]
  000b1	8d 94 c8 00 00
	00 00		 lea	 edx, DWORD PTR ?fn_set_client_server_entity_int_value@@3PAY1BBH@1P6GXPAUENTITY@@W4INT_TYPES@@H@ZA[eax+ecx*8]
  000b8	a1 00 00 00 00	 mov	 eax, DWORD PTR ?system_comms_model@@3W4COMMS_MODEL_TYPES@@A ; system_comms_model
  000bd	8b 0c 82	 mov	 ecx, DWORD PTR [edx+eax*4]
  000c0	ff d1		 call	 ecx
$LN1@set_group_:

; 582  : }

  000c2	5f		 pop	 edi
  000c3	5e		 pop	 esi
  000c4	5b		 pop	 ebx
  000c5	8b e5		 mov	 esp, ebp
  000c7	5d		 pop	 ebp
  000c8	c2 08 00	 ret	 8
?set_group_verbose_operational_state@@YGXPAUENTITY@@H@Z ENDP ; set_group_verbose_operational_state
_TEXT	ENDS
; Function compile flags: /Odtp /ZI
; File c:\users\nhv90\projects\eech\aphavoc\source\entity\special\group\group.c
;	COMDAT ?amalgamate_groups@@YGHPAUENTITY@@0@Z
_TEXT	SEGMENT
tv1057 = -152						; size = 4
tv1049 = -148						; size = 4
tv1037 = -144						; size = 4
tv423 = -144						; size = 4
tv1029 = -140						; size = 4
tv411 = -140						; size = 4
tv1017 = -136						; size = 4
tv403 = -136						; size = 4
tv1009 = -132						; size = 4
tv391 = -132						; size = 4
tv1076 = -128						; size = 4
tv383 = -128						; size = 4
tv1068 = -124						; size = 4
tv376 = -124						; size = 4
tv994 = -120						; size = 4
tv364 = -120						; size = 4
tv234 = -120						; size = 4
tv986 = -116						; size = 4
tv356 = -116						; size = 4
tv226 = -116						; size = 4
tv1099 = -112						; size = 4
tv973 = -112						; size = 4
tv941 = -112						; size = 4
tv920 = -112						; size = 4
tv900 = -112						; size = 4
tv875 = -112						; size = 4
tv849 = -112						; size = 4
tv826 = -112						; size = 4
tv805 = -112						; size = 4
tv785 = -112						; size = 4
tv764 = -112						; size = 4
tv745 = -112						; size = 4
tv724 = -112						; size = 4
tv704 = -112						; size = 4
tv684 = -112						; size = 4
tv661 = -112						; size = 4
tv640 = -112						; size = 4
tv620 = -112						; size = 4
tv595 = -112						; size = 4
tv573 = -112						; size = 4
tv549 = -112						; size = 4
tv529 = -112						; size = 4
tv504 = -112						; size = 4
tv482 = -112						; size = 4
tv458 = -112						; size = 4
tv344 = -112						; size = 4
tv323 = -112						; size = 4
tv304 = -112						; size = 4
tv279 = -112						; size = 4
tv259 = -112						; size = 4
tv214 = -112						; size = 4
tv183 = -112						; size = 4
tv165 = -112						; size = 4
tv140 = -112						; size = 4
tv83 = -112						; size = 4
tv1546 = -108						; size = 4
tv1091 = -108						; size = 4
tv965 = -108						; size = 4
tv933 = -108						; size = 4
tv912 = -108						; size = 4
tv892 = -108						; size = 4
tv867 = -108						; size = 4
tv841 = -108						; size = 4
tv818 = -108						; size = 4
tv798 = -108						; size = 4
tv777 = -108						; size = 4
tv757 = -108						; size = 4
tv737 = -108						; size = 4
tv716 = -108						; size = 4
tv696 = -108						; size = 4
tv676 = -108						; size = 4
tv653 = -108						; size = 4
tv632 = -108						; size = 4
tv612 = -108						; size = 4
tv587 = -108						; size = 4
tv565 = -108						; size = 4
tv541 = -108						; size = 4
tv521 = -108						; size = 4
tv496 = -108						; size = 4
tv474 = -108						; size = 4
tv450 = -108						; size = 4
tv336 = -108						; size = 4
tv316 = -108						; size = 4
tv297 = -108						; size = 4
tv271 = -108						; size = 4
tv251 = -108						; size = 4
tv206 = -108						; size = 4
tv176 = -108						; size = 4
tv157 = -108						; size = 4
tv132 = -108						; size = 4
tv75 = -108						; size = 4
_amalgamate_max_range$1 = -40				; size = 4
_test_pos$2 = -36					; size = 4
_pos1$3 = -32						; size = 4
_receiving_group_count$ = -28				; size = 4
_donating_group_count$ = -24				; size = 4
_group_losses$ = -20					; size = 4
_group_kills$ = -16					; size = 4
_group_type$ = -12					; size = 4
_member$ = -8						; size = 4
_this_member$ = -4					; size = 4
_receiving_group$ = 8					; size = 4
_donating_group$ = 12					; size = 4
?amalgamate_groups@@YGHPAUENTITY@@0@Z PROC		; amalgamate_groups, COMDAT

; 382  : {

  00000	55		 push	 ebp
  00001	8b ec		 mov	 ebp, esp
  00003	81 ec 98 00 00
	00		 sub	 esp, 152		; 00000098H
  00009	53		 push	 ebx
  0000a	56		 push	 esi
  0000b	57		 push	 edi

; 383  : 
; 384  : 	entity
; 385  : 		*this_member,
; 386  : 		*member;
; 387  : 
; 388  : 	int
; 389  : 		group_type,
; 390  : 		group_kills,
; 391  : 		group_losses;
; 392  : 
; 393  : 	unsigned int
; 394  : 		donating_group_count,
; 395  : 		receiving_group_count;
; 396  : 
; 397  : 	ASSERT (get_comms_model () == COMMS_MODEL_SERVER);

  0000c	83 3d 00 00 00
	00 00		 cmp	 DWORD PTR ?system_comms_model@@3W4COMMS_MODEL_TYPES@@A, 0 ; system_comms_model
  00013	74 18		 je	 SHORT $LN10@amalgamate
  00015	a1 00 00 00 00	 mov	 eax, DWORD PTR ?__LINE__Var@?0??amalgamate_groups@@YGHPAUENTITY@@0@Z@4JA
  0001a	83 c0 0f	 add	 eax, 15			; 0000000fH
  0001d	50		 push	 eax
  0001e	68 00 00 00 00	 push	 OFFSET ??_C@_0EJ@CCBIJPFD@c?3?2users?2nhv90?2projects?2eech?2ap@
  00023	68 00 00 00 00	 push	 OFFSET ??_C@_0CJ@DMBLBJBK@get_comms_model?5?$CI?$CJ?5?$DN?$DN?5COMMS_MOD@
  00028	e8 00 00 00 00	 call	 ?process_assert@@YGXPBD0H@Z ; process_assert
$LN10@amalgamate:

; 398  : 
; 399  : 	// check both groups are not doing any tasks
; 400  : 
; 401  : 	ASSERT (get_local_entity_int_value (receiving_group, INT_TYPE_GROUP_MODE) == GROUP_MODE_IDLE);

  0002d	83 7d 08 00	 cmp	 DWORD PTR _receiving_group$[ebp], 0
  00031	74 0a		 je	 SHORT $LN27@amalgamate
  00033	8b 45 08	 mov	 eax, DWORD PTR _receiving_group$[ebp]
  00036	8b 08		 mov	 ecx, DWORD PTR [eax]
  00038	89 4d 94	 mov	 DWORD PTR tv75[ebp], ecx
  0003b	eb 21		 jmp	 SHORT $LN28@amalgamate
$LN27@amalgamate:
  0003d	8b 15 00 00 00
	00		 mov	 edx, DWORD PTR ?__LINE__Var@?0??amalgamate_groups@@YGHPAUENTITY@@0@Z@4JA
  00043	83 c2 13	 add	 edx, 19			; 00000013H
  00046	52		 push	 edx
  00047	68 00 00 00 00	 push	 OFFSET ??_C@_0EJ@CCBIJPFD@c?3?2users?2nhv90?2projects?2eech?2ap@
  0004c	a1 00 00 00 00	 mov	 eax, DWORD PTR ?null_entity_pointer_message@@3PBDB ; null_entity_pointer_message
  00051	50		 push	 eax
  00052	e8 00 00 00 00	 call	 ?process_assert@@YGXPBD0H@Z ; process_assert
  00057	c7 45 94 00 00
	00 00		 mov	 DWORD PTR tv75[ebp], 0
$LN28@amalgamate:
  0005e	b9 01 00 00 00	 mov	 ecx, 1
  00063	85 c9		 test	 ecx, ecx
  00065	74 09		 je	 SHORT $LN29@amalgamate
  00067	c7 45 90 4d 00
	00 00		 mov	 DWORD PTR tv83[ebp], 77	; 0000004dH
  0006e	eb 21		 jmp	 SHORT $LN30@amalgamate
$LN29@amalgamate:
  00070	8b 15 00 00 00
	00		 mov	 edx, DWORD PTR ?__LINE__Var@?0??amalgamate_groups@@YGHPAUENTITY@@0@Z@4JA
  00076	83 c2 13	 add	 edx, 19			; 00000013H
  00079	52		 push	 edx
  0007a	68 00 00 00 00	 push	 OFFSET ??_C@_0EJ@CCBIJPFD@c?3?2users?2nhv90?2projects?2eech?2ap@
  0007f	a1 00 00 00 00	 mov	 eax, DWORD PTR ?overload_invalid_int_type_message@@3PBDB ; overload_invalid_int_type_message
  00084	50		 push	 eax
  00085	e8 00 00 00 00	 call	 ?process_assert@@YGXPBD0H@Z ; process_assert
  0008a	c7 45 90 00 00
	00 00		 mov	 DWORD PTR tv83[ebp], 0
$LN30@amalgamate:
  00091	6a 4d		 push	 77			; 0000004dH
  00093	8b 4d 08	 mov	 ecx, DWORD PTR _receiving_group$[ebp]
  00096	51		 push	 ecx
  00097	69 55 94 5c 04
	00 00		 imul	 edx, DWORD PTR tv75[ebp], 1116
  0009e	8b 45 90	 mov	 eax, DWORD PTR tv83[ebp]
  000a1	8b 8c 82 00 00
	00 00		 mov	 ecx, DWORD PTR ?fn_get_local_entity_int_value@@3PAY0BBH@P6GHPAUENTITY@@W4INT_TYPES@@@ZA[edx+eax*4]
  000a8	ff d1		 call	 ecx
  000aa	85 c0		 test	 eax, eax
  000ac	74 18		 je	 SHORT $LN11@amalgamate
  000ae	a1 00 00 00 00	 mov	 eax, DWORD PTR ?__LINE__Var@?0??amalgamate_groups@@YGHPAUENTITY@@0@Z@4JA
  000b3	83 c0 13	 add	 eax, 19			; 00000013H
  000b6	50		 push	 eax
  000b7	68 00 00 00 00	 push	 OFFSET ??_C@_0EJ@CCBIJPFD@c?3?2users?2nhv90?2projects?2eech?2ap@
  000bc	68 00 00 00 00	 push	 OFFSET ??_C@_0FF@LJMBIOKP@get_local_entity_int_value?5?$CIrec@
  000c1	e8 00 00 00 00	 call	 ?process_assert@@YGXPBD0H@Z ; process_assert
$LN11@amalgamate:

; 402  : 
; 403  : 	ASSERT (get_local_entity_int_value (donating_group, INT_TYPE_GROUP_MODE) == GROUP_MODE_IDLE);

  000c6	83 7d 0c 00	 cmp	 DWORD PTR _donating_group$[ebp], 0
  000ca	74 0a		 je	 SHORT $LN31@amalgamate
  000cc	8b 45 0c	 mov	 eax, DWORD PTR _donating_group$[ebp]
  000cf	8b 08		 mov	 ecx, DWORD PTR [eax]
  000d1	89 4d 94	 mov	 DWORD PTR tv132[ebp], ecx
  000d4	eb 21		 jmp	 SHORT $LN32@amalgamate
$LN31@amalgamate:
  000d6	8b 15 00 00 00
	00		 mov	 edx, DWORD PTR ?__LINE__Var@?0??amalgamate_groups@@YGHPAUENTITY@@0@Z@4JA
  000dc	83 c2 15	 add	 edx, 21			; 00000015H
  000df	52		 push	 edx
  000e0	68 00 00 00 00	 push	 OFFSET ??_C@_0EJ@CCBIJPFD@c?3?2users?2nhv90?2projects?2eech?2ap@
  000e5	a1 00 00 00 00	 mov	 eax, DWORD PTR ?null_entity_pointer_message@@3PBDB ; null_entity_pointer_message
  000ea	50		 push	 eax
  000eb	e8 00 00 00 00	 call	 ?process_assert@@YGXPBD0H@Z ; process_assert
  000f0	c7 45 94 00 00
	00 00		 mov	 DWORD PTR tv132[ebp], 0
$LN32@amalgamate:
  000f7	b9 01 00 00 00	 mov	 ecx, 1
  000fc	85 c9		 test	 ecx, ecx
  000fe	74 09		 je	 SHORT $LN33@amalgamate
  00100	c7 45 90 4d 00
	00 00		 mov	 DWORD PTR tv140[ebp], 77 ; 0000004dH
  00107	eb 21		 jmp	 SHORT $LN34@amalgamate
$LN33@amalgamate:
  00109	8b 15 00 00 00
	00		 mov	 edx, DWORD PTR ?__LINE__Var@?0??amalgamate_groups@@YGHPAUENTITY@@0@Z@4JA
  0010f	83 c2 15	 add	 edx, 21			; 00000015H
  00112	52		 push	 edx
  00113	68 00 00 00 00	 push	 OFFSET ??_C@_0EJ@CCBIJPFD@c?3?2users?2nhv90?2projects?2eech?2ap@
  00118	a1 00 00 00 00	 mov	 eax, DWORD PTR ?overload_invalid_int_type_message@@3PBDB ; overload_invalid_int_type_message
  0011d	50		 push	 eax
  0011e	e8 00 00 00 00	 call	 ?process_assert@@YGXPBD0H@Z ; process_assert
  00123	c7 45 90 00 00
	00 00		 mov	 DWORD PTR tv140[ebp], 0
$LN34@amalgamate:
  0012a	6a 4d		 push	 77			; 0000004dH
  0012c	8b 4d 0c	 mov	 ecx, DWORD PTR _donating_group$[ebp]
  0012f	51		 push	 ecx
  00130	69 55 94 5c 04
	00 00		 imul	 edx, DWORD PTR tv132[ebp], 1116
  00137	8b 45 90	 mov	 eax, DWORD PTR tv140[ebp]
  0013a	8b 8c 82 00 00
	00 00		 mov	 ecx, DWORD PTR ?fn_get_local_entity_int_value@@3PAY0BBH@P6GHPAUENTITY@@W4INT_TYPES@@@ZA[edx+eax*4]
  00141	ff d1		 call	 ecx
  00143	85 c0		 test	 eax, eax
  00145	74 18		 je	 SHORT $LN12@amalgamate
  00147	a1 00 00 00 00	 mov	 eax, DWORD PTR ?__LINE__Var@?0??amalgamate_groups@@YGHPAUENTITY@@0@Z@4JA
  0014c	83 c0 15	 add	 eax, 21			; 00000015H
  0014f	50		 push	 eax
  00150	68 00 00 00 00	 push	 OFFSET ??_C@_0EJ@CCBIJPFD@c?3?2users?2nhv90?2projects?2eech?2ap@
  00155	68 00 00 00 00	 push	 OFFSET ??_C@_0FE@KCOPOMEJ@get_local_entity_int_value?5?$CIdon@
  0015a	e8 00 00 00 00	 call	 ?process_assert@@YGXPBD0H@Z ; process_assert
$LN12@amalgamate:

; 404  : 
; 405  : 	// check group type are the same
; 406  : 
; 407  : 	group_type = get_local_entity_int_value (receiving_group, INT_TYPE_ENTITY_SUB_TYPE);

  0015f	83 7d 08 00	 cmp	 DWORD PTR _receiving_group$[ebp], 0
  00163	74 0a		 je	 SHORT $LN35@amalgamate
  00165	8b 45 08	 mov	 eax, DWORD PTR _receiving_group$[ebp]
  00168	8b 08		 mov	 ecx, DWORD PTR [eax]
  0016a	89 4d 94	 mov	 DWORD PTR tv157[ebp], ecx
  0016d	eb 21		 jmp	 SHORT $LN36@amalgamate
$LN35@amalgamate:
  0016f	8b 15 00 00 00
	00		 mov	 edx, DWORD PTR ?__LINE__Var@?0??amalgamate_groups@@YGHPAUENTITY@@0@Z@4JA
  00175	83 c2 19	 add	 edx, 25			; 00000019H
  00178	52		 push	 edx
  00179	68 00 00 00 00	 push	 OFFSET ??_C@_0EJ@CCBIJPFD@c?3?2users?2nhv90?2projects?2eech?2ap@
  0017e	a1 00 00 00 00	 mov	 eax, DWORD PTR ?null_entity_pointer_message@@3PBDB ; null_entity_pointer_message
  00183	50		 push	 eax
  00184	e8 00 00 00 00	 call	 ?process_assert@@YGXPBD0H@Z ; process_assert
  00189	c7 45 94 00 00
	00 00		 mov	 DWORD PTR tv157[ebp], 0
$LN36@amalgamate:
  00190	b9 01 00 00 00	 mov	 ecx, 1
  00195	85 c9		 test	 ecx, ecx
  00197	74 09		 je	 SHORT $LN37@amalgamate
  00199	c7 45 90 34 00
	00 00		 mov	 DWORD PTR tv165[ebp], 52 ; 00000034H
  001a0	eb 21		 jmp	 SHORT $LN38@amalgamate
$LN37@amalgamate:
  001a2	8b 15 00 00 00
	00		 mov	 edx, DWORD PTR ?__LINE__Var@?0??amalgamate_groups@@YGHPAUENTITY@@0@Z@4JA
  001a8	83 c2 19	 add	 edx, 25			; 00000019H
  001ab	52		 push	 edx
  001ac	68 00 00 00 00	 push	 OFFSET ??_C@_0EJ@CCBIJPFD@c?3?2users?2nhv90?2projects?2eech?2ap@
  001b1	a1 00 00 00 00	 mov	 eax, DWORD PTR ?overload_invalid_int_type_message@@3PBDB ; overload_invalid_int_type_message
  001b6	50		 push	 eax
  001b7	e8 00 00 00 00	 call	 ?process_assert@@YGXPBD0H@Z ; process_assert
  001bc	c7 45 90 00 00
	00 00		 mov	 DWORD PTR tv165[ebp], 0
$LN38@amalgamate:
  001c3	6a 34		 push	 52			; 00000034H
  001c5	8b 4d 08	 mov	 ecx, DWORD PTR _receiving_group$[ebp]
  001c8	51		 push	 ecx
  001c9	69 55 94 5c 04
	00 00		 imul	 edx, DWORD PTR tv157[ebp], 1116
  001d0	8b 45 90	 mov	 eax, DWORD PTR tv165[ebp]
  001d3	8b 8c 82 00 00
	00 00		 mov	 ecx, DWORD PTR ?fn_get_local_entity_int_value@@3PAY0BBH@P6GHPAUENTITY@@W4INT_TYPES@@@ZA[edx+eax*4]
  001da	ff d1		 call	 ecx
  001dc	89 45 f4	 mov	 DWORD PTR _group_type$[ebp], eax

; 408  : 
; 409  : 	if (group_type != get_local_entity_int_value (donating_group, INT_TYPE_ENTITY_SUB_TYPE))

  001df	83 7d 0c 00	 cmp	 DWORD PTR _donating_group$[ebp], 0
  001e3	74 0a		 je	 SHORT $LN39@amalgamate
  001e5	8b 45 0c	 mov	 eax, DWORD PTR _donating_group$[ebp]
  001e8	8b 08		 mov	 ecx, DWORD PTR [eax]
  001ea	89 4d 94	 mov	 DWORD PTR tv176[ebp], ecx
  001ed	eb 1d		 jmp	 SHORT $LN40@amalgamate
$LN39@amalgamate:
  001ef	68 99 01 00 00	 push	 409			; 00000199H
  001f4	68 00 00 00 00	 push	 OFFSET ??_C@_0EJ@CCBIJPFD@c?3?2users?2nhv90?2projects?2eech?2ap@
  001f9	8b 15 00 00 00
	00		 mov	 edx, DWORD PTR ?null_entity_pointer_message@@3PBDB ; null_entity_pointer_message
  001ff	52		 push	 edx
  00200	e8 00 00 00 00	 call	 ?process_assert@@YGXPBD0H@Z ; process_assert
  00205	c7 45 94 00 00
	00 00		 mov	 DWORD PTR tv176[ebp], 0
$LN40@amalgamate:
  0020c	b8 01 00 00 00	 mov	 eax, 1
  00211	85 c0		 test	 eax, eax
  00213	74 09		 je	 SHORT $LN41@amalgamate
  00215	c7 45 90 34 00
	00 00		 mov	 DWORD PTR tv183[ebp], 52 ; 00000034H
  0021c	eb 1d		 jmp	 SHORT $LN42@amalgamate
$LN41@amalgamate:
  0021e	68 99 01 00 00	 push	 409			; 00000199H
  00223	68 00 00 00 00	 push	 OFFSET ??_C@_0EJ@CCBIJPFD@c?3?2users?2nhv90?2projects?2eech?2ap@
  00228	8b 0d 00 00 00
	00		 mov	 ecx, DWORD PTR ?overload_invalid_int_type_message@@3PBDB ; overload_invalid_int_type_message
  0022e	51		 push	 ecx
  0022f	e8 00 00 00 00	 call	 ?process_assert@@YGXPBD0H@Z ; process_assert
  00234	c7 45 90 00 00
	00 00		 mov	 DWORD PTR tv183[ebp], 0
$LN42@amalgamate:
  0023b	6a 34		 push	 52			; 00000034H
  0023d	8b 55 0c	 mov	 edx, DWORD PTR _donating_group$[ebp]
  00240	52		 push	 edx
  00241	69 45 94 5c 04
	00 00		 imul	 eax, DWORD PTR tv176[ebp], 1116
  00248	8b 4d 90	 mov	 ecx, DWORD PTR tv183[ebp]
  0024b	8b 94 88 00 00
	00 00		 mov	 edx, DWORD PTR ?fn_get_local_entity_int_value@@3PAY0BBH@P6GHPAUENTITY@@W4INT_TYPES@@@ZA[eax+ecx*4]
  00252	ff d2		 call	 edx
  00254	39 45 f4	 cmp	 DWORD PTR _group_type$[ebp], eax
  00257	74 07		 je	 SHORT $LN13@amalgamate

; 410  : 	{
; 411  : 		return FALSE;

  00259	33 c0		 xor	 eax, eax
  0025b	e9 22 17 00 00	 jmp	 $LN1@amalgamate
$LN13@amalgamate:

; 412  : 	}
; 413  : 
; 414  : 	ASSERT (group_database [group_type].amalgamate);

  00260	6b 45 f4 64	 imul	 eax, DWORD PTR _group_type$[ebp], 100
  00264	8b 88 48 00 00
	00		 mov	 ecx, DWORD PTR ?group_database@@3PAUGROUP_DATA@@A[eax+72]
  0026a	c1 e9 04	 shr	 ecx, 4
  0026d	83 e1 01	 and	 ecx, 1
  00270	75 18		 jne	 SHORT $LN14@amalgamate
  00272	a1 00 00 00 00	 mov	 eax, DWORD PTR ?__LINE__Var@?0??amalgamate_groups@@YGHPAUENTITY@@0@Z@4JA
  00277	83 c0 20	 add	 eax, 32			; 00000020H
  0027a	50		 push	 eax
  0027b	68 00 00 00 00	 push	 OFFSET ??_C@_0EJ@CCBIJPFD@c?3?2users?2nhv90?2projects?2eech?2ap@
  00280	68 00 00 00 00	 push	 OFFSET ??_C@_0CH@HGEKDJEG@group_database?5?$FLgroup_type?$FN?4ama@
  00285	e8 00 00 00 00	 call	 ?process_assert@@YGXPBD0H@Z ; process_assert
$LN14@amalgamate:

; 415  : 
; 416  : 	ASSERT (get_local_entity_int_value (donating_group, INT_TYPE_SIDE) == get_local_entity_int_value (receiving_group, INT_TYPE_SIDE));

  0028a	83 7d 0c 00	 cmp	 DWORD PTR _donating_group$[ebp], 0
  0028e	74 0a		 je	 SHORT $LN43@amalgamate
  00290	8b 45 0c	 mov	 eax, DWORD PTR _donating_group$[ebp]
  00293	8b 08		 mov	 ecx, DWORD PTR [eax]
  00295	89 4d 94	 mov	 DWORD PTR tv206[ebp], ecx
  00298	eb 21		 jmp	 SHORT $LN44@amalgamate
$LN43@amalgamate:
  0029a	8b 15 00 00 00
	00		 mov	 edx, DWORD PTR ?__LINE__Var@?0??amalgamate_groups@@YGHPAUENTITY@@0@Z@4JA
  002a0	83 c2 22	 add	 edx, 34			; 00000022H
  002a3	52		 push	 edx
  002a4	68 00 00 00 00	 push	 OFFSET ??_C@_0EJ@CCBIJPFD@c?3?2users?2nhv90?2projects?2eech?2ap@
  002a9	a1 00 00 00 00	 mov	 eax, DWORD PTR ?null_entity_pointer_message@@3PBDB ; null_entity_pointer_message
  002ae	50		 push	 eax
  002af	e8 00 00 00 00	 call	 ?process_assert@@YGXPBD0H@Z ; process_assert
  002b4	c7 45 94 00 00
	00 00		 mov	 DWORD PTR tv206[ebp], 0
$LN44@amalgamate:
  002bb	b9 01 00 00 00	 mov	 ecx, 1
  002c0	85 c9		 test	 ecx, ecx
  002c2	74 09		 je	 SHORT $LN45@amalgamate
  002c4	c7 45 90 bb 00
	00 00		 mov	 DWORD PTR tv214[ebp], 187 ; 000000bbH
  002cb	eb 21		 jmp	 SHORT $LN46@amalgamate
$LN45@amalgamate:
  002cd	8b 15 00 00 00
	00		 mov	 edx, DWORD PTR ?__LINE__Var@?0??amalgamate_groups@@YGHPAUENTITY@@0@Z@4JA
  002d3	83 c2 22	 add	 edx, 34			; 00000022H
  002d6	52		 push	 edx
  002d7	68 00 00 00 00	 push	 OFFSET ??_C@_0EJ@CCBIJPFD@c?3?2users?2nhv90?2projects?2eech?2ap@
  002dc	a1 00 00 00 00	 mov	 eax, DWORD PTR ?overload_invalid_int_type_message@@3PBDB ; overload_invalid_int_type_message
  002e1	50		 push	 eax
  002e2	e8 00 00 00 00	 call	 ?process_assert@@YGXPBD0H@Z ; process_assert
  002e7	c7 45 90 00 00
	00 00		 mov	 DWORD PTR tv214[ebp], 0
$LN46@amalgamate:
  002ee	83 7d 08 00	 cmp	 DWORD PTR _receiving_group$[ebp], 0
  002f2	74 0a		 je	 SHORT $LN47@amalgamate
  002f4	8b 4d 08	 mov	 ecx, DWORD PTR _receiving_group$[ebp]
  002f7	8b 11		 mov	 edx, DWORD PTR [ecx]
  002f9	89 55 8c	 mov	 DWORD PTR tv226[ebp], edx
  002fc	eb 21		 jmp	 SHORT $LN48@amalgamate
$LN47@amalgamate:
  002fe	a1 00 00 00 00	 mov	 eax, DWORD PTR ?__LINE__Var@?0??amalgamate_groups@@YGHPAUENTITY@@0@Z@4JA
  00303	83 c0 22	 add	 eax, 34			; 00000022H
  00306	50		 push	 eax
  00307	68 00 00 00 00	 push	 OFFSET ??_C@_0EJ@CCBIJPFD@c?3?2users?2nhv90?2projects?2eech?2ap@
  0030c	8b 0d 00 00 00
	00		 mov	 ecx, DWORD PTR ?null_entity_pointer_message@@3PBDB ; null_entity_pointer_message
  00312	51		 push	 ecx
  00313	e8 00 00 00 00	 call	 ?process_assert@@YGXPBD0H@Z ; process_assert
  00318	c7 45 8c 00 00
	00 00		 mov	 DWORD PTR tv226[ebp], 0
$LN48@amalgamate:
  0031f	ba 01 00 00 00	 mov	 edx, 1
  00324	85 d2		 test	 edx, edx
  00326	74 09		 je	 SHORT $LN49@amalgamate
  00328	c7 45 88 bb 00
	00 00		 mov	 DWORD PTR tv234[ebp], 187 ; 000000bbH
  0032f	eb 21		 jmp	 SHORT $LN50@amalgamate
$LN49@amalgamate:
  00331	a1 00 00 00 00	 mov	 eax, DWORD PTR ?__LINE__Var@?0??amalgamate_groups@@YGHPAUENTITY@@0@Z@4JA
  00336	83 c0 22	 add	 eax, 34			; 00000022H
  00339	50		 push	 eax
  0033a	68 00 00 00 00	 push	 OFFSET ??_C@_0EJ@CCBIJPFD@c?3?2users?2nhv90?2projects?2eech?2ap@
  0033f	8b 0d 00 00 00
	00		 mov	 ecx, DWORD PTR ?overload_invalid_int_type_message@@3PBDB ; overload_invalid_int_type_message
  00345	51		 push	 ecx
  00346	e8 00 00 00 00	 call	 ?process_assert@@YGXPBD0H@Z ; process_assert
  0034b	c7 45 88 00 00
	00 00		 mov	 DWORD PTR tv234[ebp], 0
$LN50@amalgamate:
  00352	68 bb 00 00 00	 push	 187			; 000000bbH
  00357	8b 55 0c	 mov	 edx, DWORD PTR _donating_group$[ebp]
  0035a	52		 push	 edx
  0035b	69 45 94 5c 04
	00 00		 imul	 eax, DWORD PTR tv206[ebp], 1116
  00362	8b 4d 90	 mov	 ecx, DWORD PTR tv214[ebp]
  00365	8b 94 88 00 00
	00 00		 mov	 edx, DWORD PTR ?fn_get_local_entity_int_value@@3PAY0BBH@P6GHPAUENTITY@@W4INT_TYPES@@@ZA[eax+ecx*4]
  0036c	ff d2		 call	 edx
  0036e	8b f0		 mov	 esi, eax
  00370	68 bb 00 00 00	 push	 187			; 000000bbH
  00375	8b 45 08	 mov	 eax, DWORD PTR _receiving_group$[ebp]
  00378	50		 push	 eax
  00379	69 4d 8c 5c 04
	00 00		 imul	 ecx, DWORD PTR tv226[ebp], 1116
  00380	8b 55 88	 mov	 edx, DWORD PTR tv234[ebp]
  00383	8b 84 91 00 00
	00 00		 mov	 eax, DWORD PTR ?fn_get_local_entity_int_value@@3PAY0BBH@P6GHPAUENTITY@@W4INT_TYPES@@@ZA[ecx+edx*4]
  0038a	ff d0		 call	 eax
  0038c	3b f0		 cmp	 esi, eax
  0038e	74 18		 je	 SHORT $LN15@amalgamate
  00390	a1 00 00 00 00	 mov	 eax, DWORD PTR ?__LINE__Var@?0??amalgamate_groups@@YGHPAUENTITY@@0@Z@4JA
  00395	83 c0 22	 add	 eax, 34			; 00000022H
  00398	50		 push	 eax
  00399	68 00 00 00 00	 push	 OFFSET ??_C@_0EJ@CCBIJPFD@c?3?2users?2nhv90?2projects?2eech?2ap@
  0039e	68 00 00 00 00	 push	 OFFSET ??_C@_0HK@POBLAJMM@get_local_entity_int_value?5?$CIdon@
  003a3	e8 00 00 00 00	 call	 ?process_assert@@YGXPBD0H@Z ; process_assert
$LN15@amalgamate:

; 417  : 
; 418  : 	donating_group_count = get_local_entity_int_value (donating_group, INT_TYPE_MEMBER_COUNT);

  003a8	83 7d 0c 00	 cmp	 DWORD PTR _donating_group$[ebp], 0
  003ac	74 0a		 je	 SHORT $LN51@amalgamate
  003ae	8b 45 0c	 mov	 eax, DWORD PTR _donating_group$[ebp]
  003b1	8b 08		 mov	 ecx, DWORD PTR [eax]
  003b3	89 4d 94	 mov	 DWORD PTR tv251[ebp], ecx
  003b6	eb 21		 jmp	 SHORT $LN52@amalgamate
$LN51@amalgamate:
  003b8	8b 15 00 00 00
	00		 mov	 edx, DWORD PTR ?__LINE__Var@?0??amalgamate_groups@@YGHPAUENTITY@@0@Z@4JA
  003be	83 c2 24	 add	 edx, 36			; 00000024H
  003c1	52		 push	 edx
  003c2	68 00 00 00 00	 push	 OFFSET ??_C@_0EJ@CCBIJPFD@c?3?2users?2nhv90?2projects?2eech?2ap@
  003c7	a1 00 00 00 00	 mov	 eax, DWORD PTR ?null_entity_pointer_message@@3PBDB ; null_entity_pointer_message
  003cc	50		 push	 eax
  003cd	e8 00 00 00 00	 call	 ?process_assert@@YGXPBD0H@Z ; process_assert
  003d2	c7 45 94 00 00
	00 00		 mov	 DWORD PTR tv251[ebp], 0
$LN52@amalgamate:
  003d9	b9 01 00 00 00	 mov	 ecx, 1
  003de	85 c9		 test	 ecx, ecx
  003e0	74 09		 je	 SHORT $LN53@amalgamate
  003e2	c7 45 90 86 00
	00 00		 mov	 DWORD PTR tv259[ebp], 134 ; 00000086H
  003e9	eb 21		 jmp	 SHORT $LN54@amalgamate
$LN53@amalgamate:
  003eb	8b 15 00 00 00
	00		 mov	 edx, DWORD PTR ?__LINE__Var@?0??amalgamate_groups@@YGHPAUENTITY@@0@Z@4JA
  003f1	83 c2 24	 add	 edx, 36			; 00000024H
  003f4	52		 push	 edx
  003f5	68 00 00 00 00	 push	 OFFSET ??_C@_0EJ@CCBIJPFD@c?3?2users?2nhv90?2projects?2eech?2ap@
  003fa	a1 00 00 00 00	 mov	 eax, DWORD PTR ?overload_invalid_int_type_message@@3PBDB ; overload_invalid_int_type_message
  003ff	50		 push	 eax
  00400	e8 00 00 00 00	 call	 ?process_assert@@YGXPBD0H@Z ; process_assert
  00405	c7 45 90 00 00
	00 00		 mov	 DWORD PTR tv259[ebp], 0
$LN54@amalgamate:
  0040c	68 86 00 00 00	 push	 134			; 00000086H
  00411	8b 4d 0c	 mov	 ecx, DWORD PTR _donating_group$[ebp]
  00414	51		 push	 ecx
  00415	69 55 94 5c 04
	00 00		 imul	 edx, DWORD PTR tv251[ebp], 1116
  0041c	8b 45 90	 mov	 eax, DWORD PTR tv259[ebp]
  0041f	8b 8c 82 00 00
	00 00		 mov	 ecx, DWORD PTR ?fn_get_local_entity_int_value@@3PAY0BBH@P6GHPAUENTITY@@W4INT_TYPES@@@ZA[edx+eax*4]
  00426	ff d1		 call	 ecx
  00428	89 45 e8	 mov	 DWORD PTR _donating_group_count$[ebp], eax

; 419  : 
; 420  : 	receiving_group_count = get_local_entity_int_value (receiving_group, INT_TYPE_MEMBER_COUNT);

  0042b	83 7d 08 00	 cmp	 DWORD PTR _receiving_group$[ebp], 0
  0042f	74 0a		 je	 SHORT $LN55@amalgamate
  00431	8b 45 08	 mov	 eax, DWORD PTR _receiving_group$[ebp]
  00434	8b 08		 mov	 ecx, DWORD PTR [eax]
  00436	89 4d 94	 mov	 DWORD PTR tv271[ebp], ecx
  00439	eb 21		 jmp	 SHORT $LN56@amalgamate
$LN55@amalgamate:
  0043b	8b 15 00 00 00
	00		 mov	 edx, DWORD PTR ?__LINE__Var@?0??amalgamate_groups@@YGHPAUENTITY@@0@Z@4JA
  00441	83 c2 26	 add	 edx, 38			; 00000026H
  00444	52		 push	 edx
  00445	68 00 00 00 00	 push	 OFFSET ??_C@_0EJ@CCBIJPFD@c?3?2users?2nhv90?2projects?2eech?2ap@
  0044a	a1 00 00 00 00	 mov	 eax, DWORD PTR ?null_entity_pointer_message@@3PBDB ; null_entity_pointer_message
  0044f	50		 push	 eax
  00450	e8 00 00 00 00	 call	 ?process_assert@@YGXPBD0H@Z ; process_assert
  00455	c7 45 94 00 00
	00 00		 mov	 DWORD PTR tv271[ebp], 0
$LN56@amalgamate:
  0045c	b9 01 00 00 00	 mov	 ecx, 1
  00461	85 c9		 test	 ecx, ecx
  00463	74 09		 je	 SHORT $LN57@amalgamate
  00465	c7 45 90 86 00
	00 00		 mov	 DWORD PTR tv279[ebp], 134 ; 00000086H
  0046c	eb 21		 jmp	 SHORT $LN58@amalgamate
$LN57@amalgamate:
  0046e	8b 15 00 00 00
	00		 mov	 edx, DWORD PTR ?__LINE__Var@?0??amalgamate_groups@@YGHPAUENTITY@@0@Z@4JA
  00474	83 c2 26	 add	 edx, 38			; 00000026H
  00477	52		 push	 edx
  00478	68 00 00 00 00	 push	 OFFSET ??_C@_0EJ@CCBIJPFD@c?3?2users?2nhv90?2projects?2eech?2ap@
  0047d	a1 00 00 00 00	 mov	 eax, DWORD PTR ?overload_invalid_int_type_message@@3PBDB ; overload_invalid_int_type_message
  00482	50		 push	 eax
  00483	e8 00 00 00 00	 call	 ?process_assert@@YGXPBD0H@Z ; process_assert
  00488	c7 45 90 00 00
	00 00		 mov	 DWORD PTR tv279[ebp], 0
$LN58@amalgamate:
  0048f	68 86 00 00 00	 push	 134			; 00000086H
  00494	8b 4d 08	 mov	 ecx, DWORD PTR _receiving_group$[ebp]
  00497	51		 push	 ecx
  00498	69 55 94 5c 04
	00 00		 imul	 edx, DWORD PTR tv271[ebp], 1116
  0049f	8b 45 90	 mov	 eax, DWORD PTR tv279[ebp]
  004a2	8b 8c 82 00 00
	00 00		 mov	 ecx, DWORD PTR ?fn_get_local_entity_int_value@@3PAY0BBH@P6GHPAUENTITY@@W4INT_TYPES@@@ZA[edx+eax*4]
  004a9	ff d1		 call	 ecx
  004ab	89 45 e4	 mov	 DWORD PTR _receiving_group_count$[ebp], eax

; 421  : 
; 422  : 	if ((donating_group_count + receiving_group_count) <= group_database [group_type].maximum_member_count)

  004ae	8b 45 e8	 mov	 eax, DWORD PTR _donating_group_count$[ebp]
  004b1	03 45 e4	 add	 eax, DWORD PTR _receiving_group_count$[ebp]
  004b4	6b 4d f4 64	 imul	 ecx, DWORD PTR _group_type$[ebp], 100
  004b8	8b 91 48 00 00
	00		 mov	 edx, DWORD PTR ?group_database@@3PAUGROUP_DATA@@A[ecx+72]
  004be	c1 ea 08	 shr	 edx, 8
  004c1	83 e2 1f	 and	 edx, 31			; 0000001fH
  004c4	3b c2		 cmp	 eax, edx
  004c6	0f 87 b4 14 00
	00		 ja	 $LN16@amalgamate

; 423  : 	{
; 424  : 
; 425  : 		#ifdef DEBUG
; 426  : 
; 427  : 		//#if DEBUG_MODULE
; 428  : 
; 429  : 		if ((get_local_entity_parent (donating_group, LIST_TYPE_KEYSITE_GROUP)) && (get_local_entity_parent (receiving_group, LIST_TYPE_KEYSITE_GROUP)))

  004cc	83 7d 0c 00	 cmp	 DWORD PTR _donating_group$[ebp], 0
  004d0	74 0a		 je	 SHORT $LN59@amalgamate
  004d2	8b 45 0c	 mov	 eax, DWORD PTR _donating_group$[ebp]
  004d5	8b 08		 mov	 ecx, DWORD PTR [eax]
  004d7	89 4d 94	 mov	 DWORD PTR tv297[ebp], ecx
  004da	eb 1d		 jmp	 SHORT $LN60@amalgamate
$LN59@amalgamate:
  004dc	68 ad 01 00 00	 push	 429			; 000001adH
  004e1	68 00 00 00 00	 push	 OFFSET ??_C@_0EJ@CCBIJPFD@c?3?2users?2nhv90?2projects?2eech?2ap@
  004e6	8b 15 00 00 00
	00		 mov	 edx, DWORD PTR ?null_entity_pointer_message@@3PBDB ; null_entity_pointer_message
  004ec	52		 push	 edx
  004ed	e8 00 00 00 00	 call	 ?process_assert@@YGXPBD0H@Z ; process_assert
  004f2	c7 45 94 00 00
	00 00		 mov	 DWORD PTR tv297[ebp], 0
$LN60@amalgamate:
  004f9	b8 01 00 00 00	 mov	 eax, 1
  004fe	85 c0		 test	 eax, eax
  00500	74 09		 je	 SHORT $LN61@amalgamate
  00502	c7 45 90 16 00
	00 00		 mov	 DWORD PTR tv304[ebp], 22 ; 00000016H
  00509	eb 1d		 jmp	 SHORT $LN62@amalgamate
$LN61@amalgamate:
  0050b	68 ad 01 00 00	 push	 429			; 000001adH
  00510	68 00 00 00 00	 push	 OFFSET ??_C@_0EJ@CCBIJPFD@c?3?2users?2nhv90?2projects?2eech?2ap@
  00515	8b 0d 00 00 00
	00		 mov	 ecx, DWORD PTR ?overload_invalid_list_type_message@@3PBDB ; overload_invalid_list_type_message
  0051b	51		 push	 ecx
  0051c	e8 00 00 00 00	 call	 ?process_assert@@YGXPBD0H@Z ; process_assert
  00521	c7 45 90 00 00
	00 00		 mov	 DWORD PTR tv304[ebp], 0
$LN62@amalgamate:
  00528	6a 16		 push	 22			; 00000016H
  0052a	8b 55 0c	 mov	 edx, DWORD PTR _donating_group$[ebp]
  0052d	52		 push	 edx
  0052e	69 45 94 b4 00
	00 00		 imul	 eax, DWORD PTR tv297[ebp], 180
  00535	8b 4d 90	 mov	 ecx, DWORD PTR tv304[ebp]
  00538	8b 94 88 00 00
	00 00		 mov	 edx, DWORD PTR ?fn_get_local_entity_parent@@3PAY0CN@P6GPAUENTITY@@PAU1@W4LIST_TYPES@@@ZA[eax+ecx*4]
  0053f	ff d2		 call	 edx
  00541	85 c0		 test	 eax, eax
  00543	0f 84 17 03 00
	00		 je	 $LN18@amalgamate
  00549	83 7d 08 00	 cmp	 DWORD PTR _receiving_group$[ebp], 0
  0054d	74 0a		 je	 SHORT $LN63@amalgamate
  0054f	8b 45 08	 mov	 eax, DWORD PTR _receiving_group$[ebp]
  00552	8b 08		 mov	 ecx, DWORD PTR [eax]
  00554	89 4d 94	 mov	 DWORD PTR tv316[ebp], ecx
  00557	eb 1d		 jmp	 SHORT $LN64@amalgamate
$LN63@amalgamate:
  00559	68 ad 01 00 00	 push	 429			; 000001adH
  0055e	68 00 00 00 00	 push	 OFFSET ??_C@_0EJ@CCBIJPFD@c?3?2users?2nhv90?2projects?2eech?2ap@
  00563	8b 15 00 00 00
	00		 mov	 edx, DWORD PTR ?null_entity_pointer_message@@3PBDB ; null_entity_pointer_message
  00569	52		 push	 edx
  0056a	e8 00 00 00 00	 call	 ?process_assert@@YGXPBD0H@Z ; process_assert
  0056f	c7 45 94 00 00
	00 00		 mov	 DWORD PTR tv316[ebp], 0
$LN64@amalgamate:
  00576	b8 01 00 00 00	 mov	 eax, 1
  0057b	85 c0		 test	 eax, eax
  0057d	74 09		 je	 SHORT $LN65@amalgamate
  0057f	c7 45 90 16 00
	00 00		 mov	 DWORD PTR tv323[ebp], 22 ; 00000016H
  00586	eb 1d		 jmp	 SHORT $LN66@amalgamate
$LN65@amalgamate:
  00588	68 ad 01 00 00	 push	 429			; 000001adH
  0058d	68 00 00 00 00	 push	 OFFSET ??_C@_0EJ@CCBIJPFD@c?3?2users?2nhv90?2projects?2eech?2ap@
  00592	8b 0d 00 00 00
	00		 mov	 ecx, DWORD PTR ?overload_invalid_list_type_message@@3PBDB ; overload_invalid_list_type_message
  00598	51		 push	 ecx
  00599	e8 00 00 00 00	 call	 ?process_assert@@YGXPBD0H@Z ; process_assert
  0059e	c7 45 90 00 00
	00 00		 mov	 DWORD PTR tv323[ebp], 0
$LN66@amalgamate:
  005a5	6a 16		 push	 22			; 00000016H
  005a7	8b 55 08	 mov	 edx, DWORD PTR _receiving_group$[ebp]
  005aa	52		 push	 edx
  005ab	69 45 94 b4 00
	00 00		 imul	 eax, DWORD PTR tv316[ebp], 180
  005b2	8b 4d 90	 mov	 ecx, DWORD PTR tv323[ebp]
  005b5	8b 94 88 00 00
	00 00		 mov	 edx, DWORD PTR ?fn_get_local_entity_parent@@3PAY0CN@P6GPAUENTITY@@PAU1@W4LIST_TYPES@@@ZA[eax+ecx*4]
  005bc	ff d2		 call	 edx
  005be	85 c0		 test	 eax, eax
  005c0	0f 84 9a 02 00
	00		 je	 $LN18@amalgamate

; 430  : 		{
; 431  : 
; 432  : 			ASSERT (get_local_entity_type (get_local_entity_parent (donating_group, LIST_TYPE_KEYSITE_GROUP)) == get_local_entity_type (get_local_entity_parent (receiving_group, LIST_TYPE_KEYSITE_GROUP)));

  005c6	83 7d 0c 00	 cmp	 DWORD PTR _donating_group$[ebp], 0
  005ca	74 0a		 je	 SHORT $LN67@amalgamate
  005cc	8b 45 0c	 mov	 eax, DWORD PTR _donating_group$[ebp]
  005cf	8b 08		 mov	 ecx, DWORD PTR [eax]
  005d1	89 4d 94	 mov	 DWORD PTR tv336[ebp], ecx
  005d4	eb 21		 jmp	 SHORT $LN68@amalgamate
$LN67@amalgamate:
  005d6	8b 15 00 00 00
	00		 mov	 edx, DWORD PTR ?__LINE__Var@?0??amalgamate_groups@@YGHPAUENTITY@@0@Z@4JA
  005dc	83 c2 32	 add	 edx, 50			; 00000032H
  005df	52		 push	 edx
  005e0	68 00 00 00 00	 push	 OFFSET ??_C@_0EJ@CCBIJPFD@c?3?2users?2nhv90?2projects?2eech?2ap@
  005e5	a1 00 00 00 00	 mov	 eax, DWORD PTR ?null_entity_pointer_message@@3PBDB ; null_entity_pointer_message
  005ea	50		 push	 eax
  005eb	e8 00 00 00 00	 call	 ?process_assert@@YGXPBD0H@Z ; process_assert
  005f0	c7 45 94 00 00
	00 00		 mov	 DWORD PTR tv336[ebp], 0
$LN68@amalgamate:
  005f7	b9 01 00 00 00	 mov	 ecx, 1
  005fc	85 c9		 test	 ecx, ecx
  005fe	74 09		 je	 SHORT $LN69@amalgamate
  00600	c7 45 90 16 00
	00 00		 mov	 DWORD PTR tv344[ebp], 22 ; 00000016H
  00607	eb 21		 jmp	 SHORT $LN70@amalgamate
$LN69@amalgamate:
  00609	8b 15 00 00 00
	00		 mov	 edx, DWORD PTR ?__LINE__Var@?0??amalgamate_groups@@YGHPAUENTITY@@0@Z@4JA
  0060f	83 c2 32	 add	 edx, 50			; 00000032H
  00612	52		 push	 edx
  00613	68 00 00 00 00	 push	 OFFSET ??_C@_0EJ@CCBIJPFD@c?3?2users?2nhv90?2projects?2eech?2ap@
  00618	a1 00 00 00 00	 mov	 eax, DWORD PTR ?overload_invalid_list_type_message@@3PBDB ; overload_invalid_list_type_message
  0061d	50		 push	 eax
  0061e	e8 00 00 00 00	 call	 ?process_assert@@YGXPBD0H@Z ; process_assert
  00623	c7 45 90 00 00
	00 00		 mov	 DWORD PTR tv344[ebp], 0
$LN70@amalgamate:
  0062a	6a 16		 push	 22			; 00000016H
  0062c	8b 4d 0c	 mov	 ecx, DWORD PTR _donating_group$[ebp]
  0062f	51		 push	 ecx
  00630	69 55 94 b4 00
	00 00		 imul	 edx, DWORD PTR tv336[ebp], 180
  00637	8b 45 90	 mov	 eax, DWORD PTR tv344[ebp]
  0063a	8b 8c 82 00 00
	00 00		 mov	 ecx, DWORD PTR ?fn_get_local_entity_parent@@3PAY0CN@P6GPAUENTITY@@PAU1@W4LIST_TYPES@@@ZA[edx+eax*4]
  00641	ff d1		 call	 ecx
  00643	85 c0		 test	 eax, eax
  00645	0f 84 86 00 00
	00		 je	 $LN75@amalgamate
  0064b	83 7d 0c 00	 cmp	 DWORD PTR _donating_group$[ebp], 0
  0064f	74 0a		 je	 SHORT $LN71@amalgamate
  00651	8b 55 0c	 mov	 edx, DWORD PTR _donating_group$[ebp]
  00654	8b 02		 mov	 eax, DWORD PTR [edx]
  00656	89 45 8c	 mov	 DWORD PTR tv356[ebp], eax
  00659	eb 22		 jmp	 SHORT $LN72@amalgamate
$LN71@amalgamate:
  0065b	8b 0d 00 00 00
	00		 mov	 ecx, DWORD PTR ?__LINE__Var@?0??amalgamate_groups@@YGHPAUENTITY@@0@Z@4JA
  00661	83 c1 32	 add	 ecx, 50			; 00000032H
  00664	51		 push	 ecx
  00665	68 00 00 00 00	 push	 OFFSET ??_C@_0EJ@CCBIJPFD@c?3?2users?2nhv90?2projects?2eech?2ap@
  0066a	8b 15 00 00 00
	00		 mov	 edx, DWORD PTR ?null_entity_pointer_message@@3PBDB ; null_entity_pointer_message
  00670	52		 push	 edx
  00671	e8 00 00 00 00	 call	 ?process_assert@@YGXPBD0H@Z ; process_assert
  00676	c7 45 8c 00 00
	00 00		 mov	 DWORD PTR tv356[ebp], 0
$LN72@amalgamate:
  0067d	b8 01 00 00 00	 mov	 eax, 1
  00682	85 c0		 test	 eax, eax
  00684	74 09		 je	 SHORT $LN73@amalgamate
  00686	c7 45 88 16 00
	00 00		 mov	 DWORD PTR tv364[ebp], 22 ; 00000016H
  0068d	eb 22		 jmp	 SHORT $LN74@amalgamate
$LN73@amalgamate:
  0068f	8b 0d 00 00 00
	00		 mov	 ecx, DWORD PTR ?__LINE__Var@?0??amalgamate_groups@@YGHPAUENTITY@@0@Z@4JA
  00695	83 c1 32	 add	 ecx, 50			; 00000032H
  00698	51		 push	 ecx
  00699	68 00 00 00 00	 push	 OFFSET ??_C@_0EJ@CCBIJPFD@c?3?2users?2nhv90?2projects?2eech?2ap@
  0069e	8b 15 00 00 00
	00		 mov	 edx, DWORD PTR ?overload_invalid_list_type_message@@3PBDB ; overload_invalid_list_type_message
  006a4	52		 push	 edx
  006a5	e8 00 00 00 00	 call	 ?process_assert@@YGXPBD0H@Z ; process_assert
  006aa	c7 45 88 00 00
	00 00		 mov	 DWORD PTR tv364[ebp], 0
$LN74@amalgamate:
  006b1	6a 16		 push	 22			; 00000016H
  006b3	8b 45 0c	 mov	 eax, DWORD PTR _donating_group$[ebp]
  006b6	50		 push	 eax
  006b7	69 4d 8c b4 00
	00 00		 imul	 ecx, DWORD PTR tv356[ebp], 180
  006be	8b 55 88	 mov	 edx, DWORD PTR tv364[ebp]
  006c1	8b 84 91 00 00
	00 00		 mov	 eax, DWORD PTR ?fn_get_local_entity_parent@@3PAY0CN@P6GPAUENTITY@@PAU1@W4LIST_TYPES@@@ZA[ecx+edx*4]
  006c8	ff d0		 call	 eax
  006ca	8b 08		 mov	 ecx, DWORD PTR [eax]
  006cc	89 4d 84	 mov	 DWORD PTR tv376[ebp], ecx
  006cf	eb 21		 jmp	 SHORT $LN76@amalgamate
$LN75@amalgamate:
  006d1	8b 15 00 00 00
	00		 mov	 edx, DWORD PTR ?__LINE__Var@?0??amalgamate_groups@@YGHPAUENTITY@@0@Z@4JA
  006d7	83 c2 32	 add	 edx, 50			; 00000032H
  006da	52		 push	 edx
  006db	68 00 00 00 00	 push	 OFFSET ??_C@_0EJ@CCBIJPFD@c?3?2users?2nhv90?2projects?2eech?2ap@
  006e0	a1 00 00 00 00	 mov	 eax, DWORD PTR ?null_entity_pointer_message@@3PBDB ; null_entity_pointer_message
  006e5	50		 push	 eax
  006e6	e8 00 00 00 00	 call	 ?process_assert@@YGXPBD0H@Z ; process_assert
  006eb	c7 45 84 00 00
	00 00		 mov	 DWORD PTR tv376[ebp], 0
$LN76@amalgamate:
  006f2	83 7d 08 00	 cmp	 DWORD PTR _receiving_group$[ebp], 0
  006f6	74 0a		 je	 SHORT $LN77@amalgamate
  006f8	8b 4d 08	 mov	 ecx, DWORD PTR _receiving_group$[ebp]
  006fb	8b 11		 mov	 edx, DWORD PTR [ecx]
  006fd	89 55 80	 mov	 DWORD PTR tv383[ebp], edx
  00700	eb 21		 jmp	 SHORT $LN78@amalgamate
$LN77@amalgamate:
  00702	a1 00 00 00 00	 mov	 eax, DWORD PTR ?__LINE__Var@?0??amalgamate_groups@@YGHPAUENTITY@@0@Z@4JA
  00707	83 c0 32	 add	 eax, 50			; 00000032H
  0070a	50		 push	 eax
  0070b	68 00 00 00 00	 push	 OFFSET ??_C@_0EJ@CCBIJPFD@c?3?2users?2nhv90?2projects?2eech?2ap@
  00710	8b 0d 00 00 00
	00		 mov	 ecx, DWORD PTR ?null_entity_pointer_message@@3PBDB ; null_entity_pointer_message
  00716	51		 push	 ecx
  00717	e8 00 00 00 00	 call	 ?process_assert@@YGXPBD0H@Z ; process_assert
  0071c	c7 45 80 00 00
	00 00		 mov	 DWORD PTR tv383[ebp], 0
$LN78@amalgamate:
  00723	ba 01 00 00 00	 mov	 edx, 1
  00728	85 d2		 test	 edx, edx
  0072a	74 0c		 je	 SHORT $LN79@amalgamate
  0072c	c7 85 7c ff ff
	ff 16 00 00 00	 mov	 DWORD PTR tv391[ebp], 22 ; 00000016H
  00736	eb 24		 jmp	 SHORT $LN80@amalgamate
$LN79@amalgamate:
  00738	a1 00 00 00 00	 mov	 eax, DWORD PTR ?__LINE__Var@?0??amalgamate_groups@@YGHPAUENTITY@@0@Z@4JA
  0073d	83 c0 32	 add	 eax, 50			; 00000032H
  00740	50		 push	 eax
  00741	68 00 00 00 00	 push	 OFFSET ??_C@_0EJ@CCBIJPFD@c?3?2users?2nhv90?2projects?2eech?2ap@
  00746	8b 0d 00 00 00
	00		 mov	 ecx, DWORD PTR ?overload_invalid_list_type_message@@3PBDB ; overload_invalid_list_type_message
  0074c	51		 push	 ecx
  0074d	e8 00 00 00 00	 call	 ?process_assert@@YGXPBD0H@Z ; process_assert
  00752	c7 85 7c ff ff
	ff 00 00 00 00	 mov	 DWORD PTR tv391[ebp], 0
$LN80@amalgamate:
  0075c	6a 16		 push	 22			; 00000016H
  0075e	8b 55 08	 mov	 edx, DWORD PTR _receiving_group$[ebp]
  00761	52		 push	 edx
  00762	69 45 80 b4 00
	00 00		 imul	 eax, DWORD PTR tv383[ebp], 180
  00769	8b 8d 7c ff ff
	ff		 mov	 ecx, DWORD PTR tv391[ebp]
  0076f	8b 94 88 00 00
	00 00		 mov	 edx, DWORD PTR ?fn_get_local_entity_parent@@3PAY0CN@P6GPAUENTITY@@PAU1@W4LIST_TYPES@@@ZA[eax+ecx*4]
  00776	ff d2		 call	 edx
  00778	85 c0		 test	 eax, eax
  0077a	0f 84 99 00 00
	00		 je	 $LN85@amalgamate
  00780	83 7d 08 00	 cmp	 DWORD PTR _receiving_group$[ebp], 0
  00784	74 0d		 je	 SHORT $LN81@amalgamate
  00786	8b 45 08	 mov	 eax, DWORD PTR _receiving_group$[ebp]
  00789	8b 08		 mov	 ecx, DWORD PTR [eax]
  0078b	89 8d 78 ff ff
	ff		 mov	 DWORD PTR tv403[ebp], ecx
  00791	eb 24		 jmp	 SHORT $LN82@amalgamate
$LN81@amalgamate:
  00793	8b 15 00 00 00
	00		 mov	 edx, DWORD PTR ?__LINE__Var@?0??amalgamate_groups@@YGHPAUENTITY@@0@Z@4JA
  00799	83 c2 32	 add	 edx, 50			; 00000032H
  0079c	52		 push	 edx
  0079d	68 00 00 00 00	 push	 OFFSET ??_C@_0EJ@CCBIJPFD@c?3?2users?2nhv90?2projects?2eech?2ap@
  007a2	a1 00 00 00 00	 mov	 eax, DWORD PTR ?null_entity_pointer_message@@3PBDB ; null_entity_pointer_message
  007a7	50		 push	 eax
  007a8	e8 00 00 00 00	 call	 ?process_assert@@YGXPBD0H@Z ; process_assert
  007ad	c7 85 78 ff ff
	ff 00 00 00 00	 mov	 DWORD PTR tv403[ebp], 0
$LN82@amalgamate:
  007b7	b9 01 00 00 00	 mov	 ecx, 1
  007bc	85 c9		 test	 ecx, ecx
  007be	74 0c		 je	 SHORT $LN83@amalgamate
  007c0	c7 85 74 ff ff
	ff 16 00 00 00	 mov	 DWORD PTR tv411[ebp], 22 ; 00000016H
  007ca	eb 24		 jmp	 SHORT $LN84@amalgamate
$LN83@amalgamate:
  007cc	8b 15 00 00 00
	00		 mov	 edx, DWORD PTR ?__LINE__Var@?0??amalgamate_groups@@YGHPAUENTITY@@0@Z@4JA
  007d2	83 c2 32	 add	 edx, 50			; 00000032H
  007d5	52		 push	 edx
  007d6	68 00 00 00 00	 push	 OFFSET ??_C@_0EJ@CCBIJPFD@c?3?2users?2nhv90?2projects?2eech?2ap@
  007db	a1 00 00 00 00	 mov	 eax, DWORD PTR ?overload_invalid_list_type_message@@3PBDB ; overload_invalid_list_type_message
  007e0	50		 push	 eax
  007e1	e8 00 00 00 00	 call	 ?process_assert@@YGXPBD0H@Z ; process_assert
  007e6	c7 85 74 ff ff
	ff 00 00 00 00	 mov	 DWORD PTR tv411[ebp], 0
$LN84@amalgamate:
  007f0	6a 16		 push	 22			; 00000016H
  007f2	8b 4d 08	 mov	 ecx, DWORD PTR _receiving_group$[ebp]
  007f5	51		 push	 ecx
  007f6	69 95 78 ff ff
	ff b4 00 00 00	 imul	 edx, DWORD PTR tv403[ebp], 180
  00800	8b 85 74 ff ff
	ff		 mov	 eax, DWORD PTR tv411[ebp]
  00806	8b 8c 82 00 00
	00 00		 mov	 ecx, DWORD PTR ?fn_get_local_entity_parent@@3PAY0CN@P6GPAUENTITY@@PAU1@W4LIST_TYPES@@@ZA[edx+eax*4]
  0080d	ff d1		 call	 ecx
  0080f	8b 10		 mov	 edx, DWORD PTR [eax]
  00811	89 95 70 ff ff
	ff		 mov	 DWORD PTR tv423[ebp], edx
  00817	eb 24		 jmp	 SHORT $LN86@amalgamate
$LN85@amalgamate:
  00819	a1 00 00 00 00	 mov	 eax, DWORD PTR ?__LINE__Var@?0??amalgamate_groups@@YGHPAUENTITY@@0@Z@4JA
  0081e	83 c0 32	 add	 eax, 50			; 00000032H
  00821	50		 push	 eax
  00822	68 00 00 00 00	 push	 OFFSET ??_C@_0EJ@CCBIJPFD@c?3?2users?2nhv90?2projects?2eech?2ap@
  00827	8b 0d 00 00 00
	00		 mov	 ecx, DWORD PTR ?null_entity_pointer_message@@3PBDB ; null_entity_pointer_message
  0082d	51		 push	 ecx
  0082e	e8 00 00 00 00	 call	 ?process_assert@@YGXPBD0H@Z ; process_assert
  00833	c7 85 70 ff ff
	ff 00 00 00 00	 mov	 DWORD PTR tv423[ebp], 0
$LN86@amalgamate:
  0083d	8b 55 84	 mov	 edx, DWORD PTR tv376[ebp]
  00840	3b 95 70 ff ff
	ff		 cmp	 edx, DWORD PTR tv423[ebp]
  00846	74 18		 je	 SHORT $LN18@amalgamate
  00848	a1 00 00 00 00	 mov	 eax, DWORD PTR ?__LINE__Var@?0??amalgamate_groups@@YGHPAUENTITY@@0@Z@4JA
  0084d	83 c0 32	 add	 eax, 50			; 00000032H
  00850	50		 push	 eax
  00851	68 00 00 00 00	 push	 OFFSET ??_C@_0EJ@CCBIJPFD@c?3?2users?2nhv90?2projects?2eech?2ap@
  00856	68 00 00 00 00	 push	 OFFSET ??_C@_0LI@OFHMLMMN@get_local_entity_type?5?$CIget_loca@
  0085b	e8 00 00 00 00	 call	 ?process_assert@@YGXPBD0H@Z ; process_assert
$LN18@amalgamate:

; 433  : 		}
; 434  : 
; 435  : 		debug_log ("GROUP: amalgamating group %s %d (count %d) with group %s %d (count %d)",

  00860	8b 45 e4	 mov	 eax, DWORD PTR _receiving_group_count$[ebp]
  00863	50		 push	 eax
  00864	8b 4d 08	 mov	 ecx, DWORD PTR _receiving_group$[ebp]
  00867	2b 0d 00 00 00
	00		 sub	 ecx, DWORD PTR ?entities@@3PAUENTITY@@A ; entities
  0086d	c1 f9 04	 sar	 ecx, 4
  00870	51		 push	 ecx
  00871	8b 55 f4	 mov	 edx, DWORD PTR _group_type$[ebp]
  00874	8b 04 95 00 00
	00 00		 mov	 eax, DWORD PTR ?entity_sub_type_group_names@@3PAPBDA[edx*4]
  0087b	50		 push	 eax
  0087c	8b 4d e8	 mov	 ecx, DWORD PTR _donating_group_count$[ebp]
  0087f	51		 push	 ecx
  00880	8b 55 0c	 mov	 edx, DWORD PTR _donating_group$[ebp]
  00883	2b 15 00 00 00
	00		 sub	 edx, DWORD PTR ?entities@@3PAUENTITY@@A ; entities
  00889	c1 fa 04	 sar	 edx, 4
  0088c	52		 push	 edx
  0088d	8b 45 f4	 mov	 eax, DWORD PTR _group_type$[ebp]
  00890	8b 0c 85 00 00
	00 00		 mov	 ecx, DWORD PTR ?entity_sub_type_group_names@@3PAPBDA[eax*4]
  00897	51		 push	 ecx
  00898	68 00 00 00 00	 push	 OFFSET ??_C@_0EH@HNMCILHN@GROUP?3?5amalgamating?5group?5?$CFs?5?$CFd@
  0089d	e8 00 00 00 00	 call	 ?debug_log@@YAXPBDZZ	; debug_log
  008a2	83 c4 1c	 add	 esp, 28			; 0000001cH

; 436  : 							entity_sub_type_group_names [group_type], get_local_entity_index (donating_group), donating_group_count,
; 437  : 							entity_sub_type_group_names [group_type], get_local_entity_index (receiving_group), receiving_group_count);
; 438  : 
; 439  : 		member = get_local_entity_first_child (donating_group, LIST_TYPE_MEMBER);

  008a5	83 7d 0c 00	 cmp	 DWORD PTR _donating_group$[ebp], 0
  008a9	74 0a		 je	 SHORT $LN87@amalgamate
  008ab	8b 45 0c	 mov	 eax, DWORD PTR _donating_group$[ebp]
  008ae	8b 08		 mov	 ecx, DWORD PTR [eax]
  008b0	89 4d 94	 mov	 DWORD PTR tv450[ebp], ecx
  008b3	eb 21		 jmp	 SHORT $LN88@amalgamate
$LN87@amalgamate:
  008b5	8b 15 00 00 00
	00		 mov	 edx, DWORD PTR ?__LINE__Var@?0??amalgamate_groups@@YGHPAUENTITY@@0@Z@4JA
  008bb	83 c2 39	 add	 edx, 57			; 00000039H
  008be	52		 push	 edx
  008bf	68 00 00 00 00	 push	 OFFSET ??_C@_0EJ@CCBIJPFD@c?3?2users?2nhv90?2projects?2eech?2ap@
  008c4	a1 00 00 00 00	 mov	 eax, DWORD PTR ?null_entity_pointer_message@@3PBDB ; null_entity_pointer_message
  008c9	50		 push	 eax
  008ca	e8 00 00 00 00	 call	 ?process_assert@@YGXPBD0H@Z ; process_assert
  008cf	c7 45 94 00 00
	00 00		 mov	 DWORD PTR tv450[ebp], 0
$LN88@amalgamate:
  008d6	b9 01 00 00 00	 mov	 ecx, 1
  008db	85 c9		 test	 ecx, ecx
  008dd	74 09		 je	 SHORT $LN89@amalgamate
  008df	c7 45 90 19 00
	00 00		 mov	 DWORD PTR tv458[ebp], 25 ; 00000019H
  008e6	eb 21		 jmp	 SHORT $LN90@amalgamate
$LN89@amalgamate:
  008e8	8b 15 00 00 00
	00		 mov	 edx, DWORD PTR ?__LINE__Var@?0??amalgamate_groups@@YGHPAUENTITY@@0@Z@4JA
  008ee	83 c2 39	 add	 edx, 57			; 00000039H
  008f1	52		 push	 edx
  008f2	68 00 00 00 00	 push	 OFFSET ??_C@_0EJ@CCBIJPFD@c?3?2users?2nhv90?2projects?2eech?2ap@
  008f7	a1 00 00 00 00	 mov	 eax, DWORD PTR ?overload_invalid_list_type_message@@3PBDB ; overload_invalid_list_type_message
  008fc	50		 push	 eax
  008fd	e8 00 00 00 00	 call	 ?process_assert@@YGXPBD0H@Z ; process_assert
  00902	c7 45 90 00 00
	00 00		 mov	 DWORD PTR tv458[ebp], 0
$LN90@amalgamate:
  00909	6a 19		 push	 25			; 00000019H
  0090b	8b 4d 0c	 mov	 ecx, DWORD PTR _donating_group$[ebp]
  0090e	51		 push	 ecx
  0090f	69 55 94 b4 00
	00 00		 imul	 edx, DWORD PTR tv450[ebp], 180
  00916	8b 45 90	 mov	 eax, DWORD PTR tv458[ebp]
  00919	8b 8c 82 00 00
	00 00		 mov	 ecx, DWORD PTR ?fn_get_local_entity_first_child@@3PAY0CN@P6GPAUENTITY@@PAU1@W4LIST_TYPES@@@ZA[edx+eax*4]
  00920	ff d1		 call	 ecx
  00922	89 45 f8	 mov	 DWORD PTR _member$[ebp], eax
$LN2@amalgamate:

; 440  : 
; 441  : 		while (member)

  00925	83 7d f8 00	 cmp	 DWORD PTR _member$[ebp], 0
  00929	0f 84 b7 01 00
	00		 je	 $LN3@amalgamate

; 442  : 		{
; 443  : 
; 444  : 			debug_log ("GROUP:	donating group member %s (%d)", get_local_entity_string (member, STRING_TYPE_FULL_NAME), get_local_entity_index (member));

  0092f	83 7d f8 00	 cmp	 DWORD PTR _member$[ebp], 0
  00933	74 0a		 je	 SHORT $LN91@amalgamate
  00935	8b 45 f8	 mov	 eax, DWORD PTR _member$[ebp]
  00938	8b 08		 mov	 ecx, DWORD PTR [eax]
  0093a	89 4d 94	 mov	 DWORD PTR tv474[ebp], ecx
  0093d	eb 21		 jmp	 SHORT $LN92@amalgamate
$LN91@amalgamate:
  0093f	8b 15 00 00 00
	00		 mov	 edx, DWORD PTR ?__LINE__Var@?0??amalgamate_groups@@YGHPAUENTITY@@0@Z@4JA
  00945	83 c2 3e	 add	 edx, 62			; 0000003eH
  00948	52		 push	 edx
  00949	68 00 00 00 00	 push	 OFFSET ??_C@_0EJ@CCBIJPFD@c?3?2users?2nhv90?2projects?2eech?2ap@
  0094e	a1 00 00 00 00	 mov	 eax, DWORD PTR ?null_entity_pointer_message@@3PBDB ; null_entity_pointer_message
  00953	50		 push	 eax
  00954	e8 00 00 00 00	 call	 ?process_assert@@YGXPBD0H@Z ; process_assert
  00959	c7 45 94 00 00
	00 00		 mov	 DWORD PTR tv474[ebp], 0
$LN92@amalgamate:
  00960	b9 01 00 00 00	 mov	 ecx, 1
  00965	85 c9		 test	 ecx, ecx
  00967	74 09		 je	 SHORT $LN93@amalgamate
  00969	c7 45 90 03 00
	00 00		 mov	 DWORD PTR tv482[ebp], 3
  00970	eb 21		 jmp	 SHORT $LN94@amalgamate
$LN93@amalgamate:
  00972	8b 15 00 00 00
	00		 mov	 edx, DWORD PTR ?__LINE__Var@?0??amalgamate_groups@@YGHPAUENTITY@@0@Z@4JA
  00978	83 c2 3e	 add	 edx, 62			; 0000003eH
  0097b	52		 push	 edx
  0097c	68 00 00 00 00	 push	 OFFSET ??_C@_0EJ@CCBIJPFD@c?3?2users?2nhv90?2projects?2eech?2ap@
  00981	a1 00 00 00 00	 mov	 eax, DWORD PTR ?overload_invalid_string_type_message@@3PBDB ; overload_invalid_string_type_message
  00986	50		 push	 eax
  00987	e8 00 00 00 00	 call	 ?process_assert@@YGXPBD0H@Z ; process_assert
  0098c	c7 45 90 00 00
	00 00		 mov	 DWORD PTR tv482[ebp], 0
$LN94@amalgamate:
  00993	8b 4d f8	 mov	 ecx, DWORD PTR _member$[ebp]
  00996	2b 0d 00 00 00
	00		 sub	 ecx, DWORD PTR ?entities@@3PAUENTITY@@A ; entities
  0099c	c1 f9 04	 sar	 ecx, 4
  0099f	51		 push	 ecx
  009a0	6a 03		 push	 3
  009a2	8b 55 f8	 mov	 edx, DWORD PTR _member$[ebp]
  009a5	52		 push	 edx
  009a6	6b 45 94 34	 imul	 eax, DWORD PTR tv474[ebp], 52
  009aa	8b 4d 90	 mov	 ecx, DWORD PTR tv482[ebp]
  009ad	8b 94 88 00 00
	00 00		 mov	 edx, DWORD PTR ?fn_get_local_entity_string@@3PAY0N@P6GPBDPAUENTITY@@W4STRING_TYPES@@@ZA[eax+ecx*4]
  009b4	ff d2		 call	 edx
  009b6	50		 push	 eax
  009b7	68 00 00 00 00	 push	 OFFSET ??_C@_0CF@PCKAGIHN@GROUP?3?7donating?5group?5member?5?$CFs@
  009bc	e8 00 00 00 00	 call	 ?debug_log@@YAXPBDZZ	; debug_log
  009c1	83 c4 0c	 add	 esp, 12			; 0000000cH

; 445  : 
; 446  : 			ASSERT (get_local_entity_int_value (member, INT_TYPE_OPERATIONAL_STATE) == OPERATIONAL_STATE_LANDED);

  009c4	83 7d f8 00	 cmp	 DWORD PTR _member$[ebp], 0
  009c8	74 0a		 je	 SHORT $LN95@amalgamate
  009ca	8b 45 f8	 mov	 eax, DWORD PTR _member$[ebp]
  009cd	8b 08		 mov	 ecx, DWORD PTR [eax]
  009cf	89 4d 94	 mov	 DWORD PTR tv496[ebp], ecx
  009d2	eb 21		 jmp	 SHORT $LN96@amalgamate
$LN95@amalgamate:
  009d4	8b 15 00 00 00
	00		 mov	 edx, DWORD PTR ?__LINE__Var@?0??amalgamate_groups@@YGHPAUENTITY@@0@Z@4JA
  009da	83 c2 40	 add	 edx, 64			; 00000040H
  009dd	52		 push	 edx
  009de	68 00 00 00 00	 push	 OFFSET ??_C@_0EJ@CCBIJPFD@c?3?2users?2nhv90?2projects?2eech?2ap@
  009e3	a1 00 00 00 00	 mov	 eax, DWORD PTR ?null_entity_pointer_message@@3PBDB ; null_entity_pointer_message
  009e8	50		 push	 eax
  009e9	e8 00 00 00 00	 call	 ?process_assert@@YGXPBD0H@Z ; process_assert
  009ee	c7 45 94 00 00
	00 00		 mov	 DWORD PTR tv496[ebp], 0
$LN96@amalgamate:
  009f5	b9 01 00 00 00	 mov	 ecx, 1
  009fa	85 c9		 test	 ecx, ecx
  009fc	74 09		 je	 SHORT $LN97@amalgamate
  009fe	c7 45 90 97 00
	00 00		 mov	 DWORD PTR tv504[ebp], 151 ; 00000097H
  00a05	eb 21		 jmp	 SHORT $LN98@amalgamate
$LN97@amalgamate:
  00a07	8b 15 00 00 00
	00		 mov	 edx, DWORD PTR ?__LINE__Var@?0??amalgamate_groups@@YGHPAUENTITY@@0@Z@4JA
  00a0d	83 c2 40	 add	 edx, 64			; 00000040H
  00a10	52		 push	 edx
  00a11	68 00 00 00 00	 push	 OFFSET ??_C@_0EJ@CCBIJPFD@c?3?2users?2nhv90?2projects?2eech?2ap@
  00a16	a1 00 00 00 00	 mov	 eax, DWORD PTR ?overload_invalid_int_type_message@@3PBDB ; overload_invalid_int_type_message
  00a1b	50		 push	 eax
  00a1c	e8 00 00 00 00	 call	 ?process_assert@@YGXPBD0H@Z ; process_assert
  00a21	c7 45 90 00 00
	00 00		 mov	 DWORD PTR tv504[ebp], 0
$LN98@amalgamate:
  00a28	68 97 00 00 00	 push	 151			; 00000097H
  00a2d	8b 4d f8	 mov	 ecx, DWORD PTR _member$[ebp]
  00a30	51		 push	 ecx
  00a31	69 55 94 5c 04
	00 00		 imul	 edx, DWORD PTR tv496[ebp], 1116
  00a38	8b 45 90	 mov	 eax, DWORD PTR tv504[ebp]
  00a3b	8b 8c 82 00 00
	00 00		 mov	 ecx, DWORD PTR ?fn_get_local_entity_int_value@@3PAY0BBH@P6GHPAUENTITY@@W4INT_TYPES@@@ZA[edx+eax*4]
  00a42	ff d1		 call	 ecx
  00a44	83 f8 04	 cmp	 eax, 4
  00a47	74 18		 je	 SHORT $LN19@amalgamate
  00a49	a1 00 00 00 00	 mov	 eax, DWORD PTR ?__LINE__Var@?0??amalgamate_groups@@YGHPAUENTITY@@0@Z@4JA
  00a4e	83 c0 40	 add	 eax, 64			; 00000040H
  00a51	50		 push	 eax
  00a52	68 00 00 00 00	 push	 OFFSET ??_C@_0EJ@CCBIJPFD@c?3?2users?2nhv90?2projects?2eech?2ap@
  00a57	68 00 00 00 00	 push	 OFFSET ??_C@_0FM@EIDHLFJD@get_local_entity_int_value?5?$CImem@
  00a5c	e8 00 00 00 00	 call	 ?process_assert@@YGXPBD0H@Z ; process_assert
$LN19@amalgamate:

; 447  : 
; 448  : 			member = get_local_entity_child_succ (member, LIST_TYPE_MEMBER);

  00a61	83 7d f8 00	 cmp	 DWORD PTR _member$[ebp], 0
  00a65	74 0a		 je	 SHORT $LN99@amalgamate
  00a67	8b 45 f8	 mov	 eax, DWORD PTR _member$[ebp]
  00a6a	8b 08		 mov	 ecx, DWORD PTR [eax]
  00a6c	89 4d 94	 mov	 DWORD PTR tv521[ebp], ecx
  00a6f	eb 21		 jmp	 SHORT $LN100@amalgamate
$LN99@amalgamate:
  00a71	8b 15 00 00 00
	00		 mov	 edx, DWORD PTR ?__LINE__Var@?0??amalgamate_groups@@YGHPAUENTITY@@0@Z@4JA
  00a77	83 c2 42	 add	 edx, 66			; 00000042H
  00a7a	52		 push	 edx
  00a7b	68 00 00 00 00	 push	 OFFSET ??_C@_0EJ@CCBIJPFD@c?3?2users?2nhv90?2projects?2eech?2ap@
  00a80	a1 00 00 00 00	 mov	 eax, DWORD PTR ?null_entity_pointer_message@@3PBDB ; null_entity_pointer_message
  00a85	50		 push	 eax
  00a86	e8 00 00 00 00	 call	 ?process_assert@@YGXPBD0H@Z ; process_assert
  00a8b	c7 45 94 00 00
	00 00		 mov	 DWORD PTR tv521[ebp], 0
$LN100@amalgamate:
  00a92	b9 01 00 00 00	 mov	 ecx, 1
  00a97	85 c9		 test	 ecx, ecx
  00a99	74 09		 je	 SHORT $LN101@amalgamate
  00a9b	c7 45 90 19 00
	00 00		 mov	 DWORD PTR tv529[ebp], 25 ; 00000019H
  00aa2	eb 21		 jmp	 SHORT $LN102@amalgamate
$LN101@amalgamate:
  00aa4	8b 15 00 00 00
	00		 mov	 edx, DWORD PTR ?__LINE__Var@?0??amalgamate_groups@@YGHPAUENTITY@@0@Z@4JA
  00aaa	83 c2 42	 add	 edx, 66			; 00000042H
  00aad	52		 push	 edx
  00aae	68 00 00 00 00	 push	 OFFSET ??_C@_0EJ@CCBIJPFD@c?3?2users?2nhv90?2projects?2eech?2ap@
  00ab3	a1 00 00 00 00	 mov	 eax, DWORD PTR ?overload_invalid_list_type_message@@3PBDB ; overload_invalid_list_type_message
  00ab8	50		 push	 eax
  00ab9	e8 00 00 00 00	 call	 ?process_assert@@YGXPBD0H@Z ; process_assert
  00abe	c7 45 90 00 00
	00 00		 mov	 DWORD PTR tv529[ebp], 0
$LN102@amalgamate:
  00ac5	6a 19		 push	 25			; 00000019H
  00ac7	8b 4d f8	 mov	 ecx, DWORD PTR _member$[ebp]
  00aca	51		 push	 ecx
  00acb	69 55 94 b4 00
	00 00		 imul	 edx, DWORD PTR tv521[ebp], 180
  00ad2	8b 45 90	 mov	 eax, DWORD PTR tv529[ebp]
  00ad5	8b 8c 82 00 00
	00 00		 mov	 ecx, DWORD PTR ?fn_get_local_entity_child_succ@@3PAY0CN@P6GPAUENTITY@@PAU1@W4LIST_TYPES@@@ZA[edx+eax*4]
  00adc	ff d1		 call	 ecx
  00ade	89 45 f8	 mov	 DWORD PTR _member$[ebp], eax

; 449  : 		}

  00ae1	e9 3f fe ff ff	 jmp	 $LN2@amalgamate
$LN3@amalgamate:

; 450  : 
; 451  : 		member = get_local_entity_first_child (receiving_group, LIST_TYPE_MEMBER);

  00ae6	83 7d 08 00	 cmp	 DWORD PTR _receiving_group$[ebp], 0
  00aea	74 0a		 je	 SHORT $LN103@amalgamate
  00aec	8b 45 08	 mov	 eax, DWORD PTR _receiving_group$[ebp]
  00aef	8b 08		 mov	 ecx, DWORD PTR [eax]
  00af1	89 4d 94	 mov	 DWORD PTR tv541[ebp], ecx
  00af4	eb 21		 jmp	 SHORT $LN104@amalgamate
$LN103@amalgamate:
  00af6	8b 15 00 00 00
	00		 mov	 edx, DWORD PTR ?__LINE__Var@?0??amalgamate_groups@@YGHPAUENTITY@@0@Z@4JA
  00afc	83 c2 45	 add	 edx, 69			; 00000045H
  00aff	52		 push	 edx
  00b00	68 00 00 00 00	 push	 OFFSET ??_C@_0EJ@CCBIJPFD@c?3?2users?2nhv90?2projects?2eech?2ap@
  00b05	a1 00 00 00 00	 mov	 eax, DWORD PTR ?null_entity_pointer_message@@3PBDB ; null_entity_pointer_message
  00b0a	50		 push	 eax
  00b0b	e8 00 00 00 00	 call	 ?process_assert@@YGXPBD0H@Z ; process_assert
  00b10	c7 45 94 00 00
	00 00		 mov	 DWORD PTR tv541[ebp], 0
$LN104@amalgamate:
  00b17	b9 01 00 00 00	 mov	 ecx, 1
  00b1c	85 c9		 test	 ecx, ecx
  00b1e	74 09		 je	 SHORT $LN105@amalgamate
  00b20	c7 45 90 19 00
	00 00		 mov	 DWORD PTR tv549[ebp], 25 ; 00000019H
  00b27	eb 21		 jmp	 SHORT $LN106@amalgamate
$LN105@amalgamate:
  00b29	8b 15 00 00 00
	00		 mov	 edx, DWORD PTR ?__LINE__Var@?0??amalgamate_groups@@YGHPAUENTITY@@0@Z@4JA
  00b2f	83 c2 45	 add	 edx, 69			; 00000045H
  00b32	52		 push	 edx
  00b33	68 00 00 00 00	 push	 OFFSET ??_C@_0EJ@CCBIJPFD@c?3?2users?2nhv90?2projects?2eech?2ap@
  00b38	a1 00 00 00 00	 mov	 eax, DWORD PTR ?overload_invalid_list_type_message@@3PBDB ; overload_invalid_list_type_message
  00b3d	50		 push	 eax
  00b3e	e8 00 00 00 00	 call	 ?process_assert@@YGXPBD0H@Z ; process_assert
  00b43	c7 45 90 00 00
	00 00		 mov	 DWORD PTR tv549[ebp], 0
$LN106@amalgamate:
  00b4a	6a 19		 push	 25			; 00000019H
  00b4c	8b 4d 08	 mov	 ecx, DWORD PTR _receiving_group$[ebp]
  00b4f	51		 push	 ecx
  00b50	69 55 94 b4 00
	00 00		 imul	 edx, DWORD PTR tv541[ebp], 180
  00b57	8b 45 90	 mov	 eax, DWORD PTR tv549[ebp]
  00b5a	8b 8c 82 00 00
	00 00		 mov	 ecx, DWORD PTR ?fn_get_local_entity_first_child@@3PAY0CN@P6GPAUENTITY@@PAU1@W4LIST_TYPES@@@ZA[edx+eax*4]
  00b61	ff d1		 call	 ecx
  00b63	89 45 f8	 mov	 DWORD PTR _member$[ebp], eax
$LN4@amalgamate:

; 452  : 
; 453  : 		while (member)

  00b66	83 7d f8 00	 cmp	 DWORD PTR _member$[ebp], 0
  00b6a	0f 84 b7 01 00
	00		 je	 $LN5@amalgamate

; 454  : 		{
; 455  : 
; 456  : 			debug_log ("GROUP:	receiving group member %s (%d)", get_local_entity_string (member, STRING_TYPE_FULL_NAME), get_local_entity_index (member));

  00b70	83 7d f8 00	 cmp	 DWORD PTR _member$[ebp], 0
  00b74	74 0a		 je	 SHORT $LN107@amalgamate
  00b76	8b 45 f8	 mov	 eax, DWORD PTR _member$[ebp]
  00b79	8b 08		 mov	 ecx, DWORD PTR [eax]
  00b7b	89 4d 94	 mov	 DWORD PTR tv565[ebp], ecx
  00b7e	eb 21		 jmp	 SHORT $LN108@amalgamate
$LN107@amalgamate:
  00b80	8b 15 00 00 00
	00		 mov	 edx, DWORD PTR ?__LINE__Var@?0??amalgamate_groups@@YGHPAUENTITY@@0@Z@4JA
  00b86	83 c2 4a	 add	 edx, 74			; 0000004aH
  00b89	52		 push	 edx
  00b8a	68 00 00 00 00	 push	 OFFSET ??_C@_0EJ@CCBIJPFD@c?3?2users?2nhv90?2projects?2eech?2ap@
  00b8f	a1 00 00 00 00	 mov	 eax, DWORD PTR ?null_entity_pointer_message@@3PBDB ; null_entity_pointer_message
  00b94	50		 push	 eax
  00b95	e8 00 00 00 00	 call	 ?process_assert@@YGXPBD0H@Z ; process_assert
  00b9a	c7 45 94 00 00
	00 00		 mov	 DWORD PTR tv565[ebp], 0
$LN108@amalgamate:
  00ba1	b9 01 00 00 00	 mov	 ecx, 1
  00ba6	85 c9		 test	 ecx, ecx
  00ba8	74 09		 je	 SHORT $LN109@amalgamate
  00baa	c7 45 90 03 00
	00 00		 mov	 DWORD PTR tv573[ebp], 3
  00bb1	eb 21		 jmp	 SHORT $LN110@amalgamate
$LN109@amalgamate:
  00bb3	8b 15 00 00 00
	00		 mov	 edx, DWORD PTR ?__LINE__Var@?0??amalgamate_groups@@YGHPAUENTITY@@0@Z@4JA
  00bb9	83 c2 4a	 add	 edx, 74			; 0000004aH
  00bbc	52		 push	 edx
  00bbd	68 00 00 00 00	 push	 OFFSET ??_C@_0EJ@CCBIJPFD@c?3?2users?2nhv90?2projects?2eech?2ap@
  00bc2	a1 00 00 00 00	 mov	 eax, DWORD PTR ?overload_invalid_string_type_message@@3PBDB ; overload_invalid_string_type_message
  00bc7	50		 push	 eax
  00bc8	e8 00 00 00 00	 call	 ?process_assert@@YGXPBD0H@Z ; process_assert
  00bcd	c7 45 90 00 00
	00 00		 mov	 DWORD PTR tv573[ebp], 0
$LN110@amalgamate:
  00bd4	8b 4d f8	 mov	 ecx, DWORD PTR _member$[ebp]
  00bd7	2b 0d 00 00 00
	00		 sub	 ecx, DWORD PTR ?entities@@3PAUENTITY@@A ; entities
  00bdd	c1 f9 04	 sar	 ecx, 4
  00be0	51		 push	 ecx
  00be1	6a 03		 push	 3
  00be3	8b 55 f8	 mov	 edx, DWORD PTR _member$[ebp]
  00be6	52		 push	 edx
  00be7	6b 45 94 34	 imul	 eax, DWORD PTR tv565[ebp], 52
  00beb	8b 4d 90	 mov	 ecx, DWORD PTR tv573[ebp]
  00bee	8b 94 88 00 00
	00 00		 mov	 edx, DWORD PTR ?fn_get_local_entity_string@@3PAY0N@P6GPBDPAUENTITY@@W4STRING_TYPES@@@ZA[eax+ecx*4]
  00bf5	ff d2		 call	 edx
  00bf7	50		 push	 eax
  00bf8	68 00 00 00 00	 push	 OFFSET ??_C@_0CG@ONOENFCA@GROUP?3?7receiving?5group?5member?5?$CF@
  00bfd	e8 00 00 00 00	 call	 ?debug_log@@YAXPBDZZ	; debug_log
  00c02	83 c4 0c	 add	 esp, 12			; 0000000cH

; 457  : 
; 458  : 			ASSERT (get_local_entity_int_value (member, INT_TYPE_OPERATIONAL_STATE) == OPERATIONAL_STATE_LANDED);

  00c05	83 7d f8 00	 cmp	 DWORD PTR _member$[ebp], 0
  00c09	74 0a		 je	 SHORT $LN111@amalgamate
  00c0b	8b 45 f8	 mov	 eax, DWORD PTR _member$[ebp]
  00c0e	8b 08		 mov	 ecx, DWORD PTR [eax]
  00c10	89 4d 94	 mov	 DWORD PTR tv587[ebp], ecx
  00c13	eb 21		 jmp	 SHORT $LN112@amalgamate
$LN111@amalgamate:
  00c15	8b 15 00 00 00
	00		 mov	 edx, DWORD PTR ?__LINE__Var@?0??amalgamate_groups@@YGHPAUENTITY@@0@Z@4JA
  00c1b	83 c2 4c	 add	 edx, 76			; 0000004cH
  00c1e	52		 push	 edx
  00c1f	68 00 00 00 00	 push	 OFFSET ??_C@_0EJ@CCBIJPFD@c?3?2users?2nhv90?2projects?2eech?2ap@
  00c24	a1 00 00 00 00	 mov	 eax, DWORD PTR ?null_entity_pointer_message@@3PBDB ; null_entity_pointer_message
  00c29	50		 push	 eax
  00c2a	e8 00 00 00 00	 call	 ?process_assert@@YGXPBD0H@Z ; process_assert
  00c2f	c7 45 94 00 00
	00 00		 mov	 DWORD PTR tv587[ebp], 0
$LN112@amalgamate:
  00c36	b9 01 00 00 00	 mov	 ecx, 1
  00c3b	85 c9		 test	 ecx, ecx
  00c3d	74 09		 je	 SHORT $LN113@amalgamate
  00c3f	c7 45 90 97 00
	00 00		 mov	 DWORD PTR tv595[ebp], 151 ; 00000097H
  00c46	eb 21		 jmp	 SHORT $LN114@amalgamate
$LN113@amalgamate:
  00c48	8b 15 00 00 00
	00		 mov	 edx, DWORD PTR ?__LINE__Var@?0??amalgamate_groups@@YGHPAUENTITY@@0@Z@4JA
  00c4e	83 c2 4c	 add	 edx, 76			; 0000004cH
  00c51	52		 push	 edx
  00c52	68 00 00 00 00	 push	 OFFSET ??_C@_0EJ@CCBIJPFD@c?3?2users?2nhv90?2projects?2eech?2ap@
  00c57	a1 00 00 00 00	 mov	 eax, DWORD PTR ?overload_invalid_int_type_message@@3PBDB ; overload_invalid_int_type_message
  00c5c	50		 push	 eax
  00c5d	e8 00 00 00 00	 call	 ?process_assert@@YGXPBD0H@Z ; process_assert
  00c62	c7 45 90 00 00
	00 00		 mov	 DWORD PTR tv595[ebp], 0
$LN114@amalgamate:
  00c69	68 97 00 00 00	 push	 151			; 00000097H
  00c6e	8b 4d f8	 mov	 ecx, DWORD PTR _member$[ebp]
  00c71	51		 push	 ecx
  00c72	69 55 94 5c 04
	00 00		 imul	 edx, DWORD PTR tv587[ebp], 1116
  00c79	8b 45 90	 mov	 eax, DWORD PTR tv595[ebp]
  00c7c	8b 8c 82 00 00
	00 00		 mov	 ecx, DWORD PTR ?fn_get_local_entity_int_value@@3PAY0BBH@P6GHPAUENTITY@@W4INT_TYPES@@@ZA[edx+eax*4]
  00c83	ff d1		 call	 ecx
  00c85	83 f8 04	 cmp	 eax, 4
  00c88	74 18		 je	 SHORT $LN20@amalgamate
  00c8a	a1 00 00 00 00	 mov	 eax, DWORD PTR ?__LINE__Var@?0??amalgamate_groups@@YGHPAUENTITY@@0@Z@4JA
  00c8f	83 c0 4c	 add	 eax, 76			; 0000004cH
  00c92	50		 push	 eax
  00c93	68 00 00 00 00	 push	 OFFSET ??_C@_0EJ@CCBIJPFD@c?3?2users?2nhv90?2projects?2eech?2ap@
  00c98	68 00 00 00 00	 push	 OFFSET ??_C@_0FM@EIDHLFJD@get_local_entity_int_value?5?$CImem@
  00c9d	e8 00 00 00 00	 call	 ?process_assert@@YGXPBD0H@Z ; process_assert
$LN20@amalgamate:

; 459  : 
; 460  : 			member = get_local_entity_child_succ (member, LIST_TYPE_MEMBER);

  00ca2	83 7d f8 00	 cmp	 DWORD PTR _member$[ebp], 0
  00ca6	74 0a		 je	 SHORT $LN115@amalgamate
  00ca8	8b 45 f8	 mov	 eax, DWORD PTR _member$[ebp]
  00cab	8b 08		 mov	 ecx, DWORD PTR [eax]
  00cad	89 4d 94	 mov	 DWORD PTR tv612[ebp], ecx
  00cb0	eb 21		 jmp	 SHORT $LN116@amalgamate
$LN115@amalgamate:
  00cb2	8b 15 00 00 00
	00		 mov	 edx, DWORD PTR ?__LINE__Var@?0??amalgamate_groups@@YGHPAUENTITY@@0@Z@4JA
  00cb8	83 c2 4e	 add	 edx, 78			; 0000004eH
  00cbb	52		 push	 edx
  00cbc	68 00 00 00 00	 push	 OFFSET ??_C@_0EJ@CCBIJPFD@c?3?2users?2nhv90?2projects?2eech?2ap@
  00cc1	a1 00 00 00 00	 mov	 eax, DWORD PTR ?null_entity_pointer_message@@3PBDB ; null_entity_pointer_message
  00cc6	50		 push	 eax
  00cc7	e8 00 00 00 00	 call	 ?process_assert@@YGXPBD0H@Z ; process_assert
  00ccc	c7 45 94 00 00
	00 00		 mov	 DWORD PTR tv612[ebp], 0
$LN116@amalgamate:
  00cd3	b9 01 00 00 00	 mov	 ecx, 1
  00cd8	85 c9		 test	 ecx, ecx
  00cda	74 09		 je	 SHORT $LN117@amalgamate
  00cdc	c7 45 90 19 00
	00 00		 mov	 DWORD PTR tv620[ebp], 25 ; 00000019H
  00ce3	eb 21		 jmp	 SHORT $LN118@amalgamate
$LN117@amalgamate:
  00ce5	8b 15 00 00 00
	00		 mov	 edx, DWORD PTR ?__LINE__Var@?0??amalgamate_groups@@YGHPAUENTITY@@0@Z@4JA
  00ceb	83 c2 4e	 add	 edx, 78			; 0000004eH
  00cee	52		 push	 edx
  00cef	68 00 00 00 00	 push	 OFFSET ??_C@_0EJ@CCBIJPFD@c?3?2users?2nhv90?2projects?2eech?2ap@
  00cf4	a1 00 00 00 00	 mov	 eax, DWORD PTR ?overload_invalid_list_type_message@@3PBDB ; overload_invalid_list_type_message
  00cf9	50		 push	 eax
  00cfa	e8 00 00 00 00	 call	 ?process_assert@@YGXPBD0H@Z ; process_assert
  00cff	c7 45 90 00 00
	00 00		 mov	 DWORD PTR tv620[ebp], 0
$LN118@amalgamate:
  00d06	6a 19		 push	 25			; 00000019H
  00d08	8b 4d f8	 mov	 ecx, DWORD PTR _member$[ebp]
  00d0b	51		 push	 ecx
  00d0c	69 55 94 b4 00
	00 00		 imul	 edx, DWORD PTR tv612[ebp], 180
  00d13	8b 45 90	 mov	 eax, DWORD PTR tv620[ebp]
  00d16	8b 8c 82 00 00
	00 00		 mov	 ecx, DWORD PTR ?fn_get_local_entity_child_succ@@3PAY0CN@P6GPAUENTITY@@PAU1@W4LIST_TYPES@@@ZA[edx+eax*4]
  00d1d	ff d1		 call	 ecx
  00d1f	89 45 f8	 mov	 DWORD PTR _member$[ebp], eax

; 461  : 		}

  00d22	e9 3f fe ff ff	 jmp	 $LN4@amalgamate
$LN5@amalgamate:

; 462  : 
; 463  : 		//#endif
; 464  : 
; 465  : 		#endif
; 466  : 
; 467  : 		member = get_local_entity_first_child (donating_group, LIST_TYPE_MEMBER);

  00d27	83 7d 0c 00	 cmp	 DWORD PTR _donating_group$[ebp], 0
  00d2b	74 0a		 je	 SHORT $LN119@amalgamate
  00d2d	8b 45 0c	 mov	 eax, DWORD PTR _donating_group$[ebp]
  00d30	8b 08		 mov	 ecx, DWORD PTR [eax]
  00d32	89 4d 94	 mov	 DWORD PTR tv632[ebp], ecx
  00d35	eb 21		 jmp	 SHORT $LN120@amalgamate
$LN119@amalgamate:
  00d37	8b 15 00 00 00
	00		 mov	 edx, DWORD PTR ?__LINE__Var@?0??amalgamate_groups@@YGHPAUENTITY@@0@Z@4JA
  00d3d	83 c2 55	 add	 edx, 85			; 00000055H
  00d40	52		 push	 edx
  00d41	68 00 00 00 00	 push	 OFFSET ??_C@_0EJ@CCBIJPFD@c?3?2users?2nhv90?2projects?2eech?2ap@
  00d46	a1 00 00 00 00	 mov	 eax, DWORD PTR ?null_entity_pointer_message@@3PBDB ; null_entity_pointer_message
  00d4b	50		 push	 eax
  00d4c	e8 00 00 00 00	 call	 ?process_assert@@YGXPBD0H@Z ; process_assert
  00d51	c7 45 94 00 00
	00 00		 mov	 DWORD PTR tv632[ebp], 0
$LN120@amalgamate:
  00d58	b9 01 00 00 00	 mov	 ecx, 1
  00d5d	85 c9		 test	 ecx, ecx
  00d5f	74 09		 je	 SHORT $LN121@amalgamate
  00d61	c7 45 90 19 00
	00 00		 mov	 DWORD PTR tv640[ebp], 25 ; 00000019H
  00d68	eb 21		 jmp	 SHORT $LN122@amalgamate
$LN121@amalgamate:
  00d6a	8b 15 00 00 00
	00		 mov	 edx, DWORD PTR ?__LINE__Var@?0??amalgamate_groups@@YGHPAUENTITY@@0@Z@4JA
  00d70	83 c2 55	 add	 edx, 85			; 00000055H
  00d73	52		 push	 edx
  00d74	68 00 00 00 00	 push	 OFFSET ??_C@_0EJ@CCBIJPFD@c?3?2users?2nhv90?2projects?2eech?2ap@
  00d79	a1 00 00 00 00	 mov	 eax, DWORD PTR ?overload_invalid_list_type_message@@3PBDB ; overload_invalid_list_type_message
  00d7e	50		 push	 eax
  00d7f	e8 00 00 00 00	 call	 ?process_assert@@YGXPBD0H@Z ; process_assert
  00d84	c7 45 90 00 00
	00 00		 mov	 DWORD PTR tv640[ebp], 0
$LN122@amalgamate:
  00d8b	6a 19		 push	 25			; 00000019H
  00d8d	8b 4d 0c	 mov	 ecx, DWORD PTR _donating_group$[ebp]
  00d90	51		 push	 ecx
  00d91	69 55 94 b4 00
	00 00		 imul	 edx, DWORD PTR tv632[ebp], 180
  00d98	8b 45 90	 mov	 eax, DWORD PTR tv640[ebp]
  00d9b	8b 8c 82 00 00
	00 00		 mov	 ecx, DWORD PTR ?fn_get_local_entity_first_child@@3PAY0CN@P6GPAUENTITY@@PAU1@W4LIST_TYPES@@@ZA[edx+eax*4]
  00da2	ff d1		 call	 ecx
  00da4	89 45 f8	 mov	 DWORD PTR _member$[ebp], eax
$LN6@amalgamate:

; 468  : 
; 469  : 		while (member)

  00da7	83 7d f8 00	 cmp	 DWORD PTR _member$[ebp], 0
  00dab	0f 84 9a 00 00
	00		 je	 $LN7@amalgamate

; 470  : 		{
; 471  : 
; 472  : 			this_member = member;

  00db1	8b 45 f8	 mov	 eax, DWORD PTR _member$[ebp]
  00db4	89 45 fc	 mov	 DWORD PTR _this_member$[ebp], eax

; 473  : 
; 474  : 			member = get_local_entity_child_succ (member, LIST_TYPE_MEMBER);

  00db7	83 7d f8 00	 cmp	 DWORD PTR _member$[ebp], 0
  00dbb	74 0a		 je	 SHORT $LN123@amalgamate
  00dbd	8b 45 f8	 mov	 eax, DWORD PTR _member$[ebp]
  00dc0	8b 08		 mov	 ecx, DWORD PTR [eax]
  00dc2	89 4d 94	 mov	 DWORD PTR tv653[ebp], ecx
  00dc5	eb 21		 jmp	 SHORT $LN124@amalgamate
$LN123@amalgamate:
  00dc7	8b 15 00 00 00
	00		 mov	 edx, DWORD PTR ?__LINE__Var@?0??amalgamate_groups@@YGHPAUENTITY@@0@Z@4JA
  00dcd	83 c2 5c	 add	 edx, 92			; 0000005cH
  00dd0	52		 push	 edx
  00dd1	68 00 00 00 00	 push	 OFFSET ??_C@_0EJ@CCBIJPFD@c?3?2users?2nhv90?2projects?2eech?2ap@
  00dd6	a1 00 00 00 00	 mov	 eax, DWORD PTR ?null_entity_pointer_message@@3PBDB ; null_entity_pointer_message
  00ddb	50		 push	 eax
  00ddc	e8 00 00 00 00	 call	 ?process_assert@@YGXPBD0H@Z ; process_assert
  00de1	c7 45 94 00 00
	00 00		 mov	 DWORD PTR tv653[ebp], 0
$LN124@amalgamate:
  00de8	b9 01 00 00 00	 mov	 ecx, 1
  00ded	85 c9		 test	 ecx, ecx
  00def	74 09		 je	 SHORT $LN125@amalgamate
  00df1	c7 45 90 19 00
	00 00		 mov	 DWORD PTR tv661[ebp], 25 ; 00000019H
  00df8	eb 21		 jmp	 SHORT $LN126@amalgamate
$LN125@amalgamate:
  00dfa	8b 15 00 00 00
	00		 mov	 edx, DWORD PTR ?__LINE__Var@?0??amalgamate_groups@@YGHPAUENTITY@@0@Z@4JA
  00e00	83 c2 5c	 add	 edx, 92			; 0000005cH
  00e03	52		 push	 edx
  00e04	68 00 00 00 00	 push	 OFFSET ??_C@_0EJ@CCBIJPFD@c?3?2users?2nhv90?2projects?2eech?2ap@
  00e09	a1 00 00 00 00	 mov	 eax, DWORD PTR ?overload_invalid_list_type_message@@3PBDB ; overload_invalid_list_type_message
  00e0e	50		 push	 eax
  00e0f	e8 00 00 00 00	 call	 ?process_assert@@YGXPBD0H@Z ; process_assert
  00e14	c7 45 90 00 00
	00 00		 mov	 DWORD PTR tv661[ebp], 0
$LN126@amalgamate:
  00e1b	6a 19		 push	 25			; 00000019H
  00e1d	8b 4d f8	 mov	 ecx, DWORD PTR _member$[ebp]
  00e20	51		 push	 ecx
  00e21	69 55 94 b4 00
	00 00		 imul	 edx, DWORD PTR tv653[ebp], 180
  00e28	8b 45 90	 mov	 eax, DWORD PTR tv661[ebp]
  00e2b	8b 8c 82 00 00
	00 00		 mov	 ecx, DWORD PTR ?fn_get_local_entity_child_succ@@3PAY0CN@P6GPAUENTITY@@PAU1@W4LIST_TYPES@@@ZA[edx+eax*4]
  00e32	ff d1		 call	 ecx
  00e34	89 45 f8	 mov	 DWORD PTR _member$[ebp], eax

; 475  : 
; 476  : 			set_client_server_entity_parent (this_member, LIST_TYPE_MEMBER, receiving_group);

  00e37	8b 45 08	 mov	 eax, DWORD PTR _receiving_group$[ebp]
  00e3a	50		 push	 eax
  00e3b	6a 19		 push	 25			; 00000019H
  00e3d	8b 4d fc	 mov	 ecx, DWORD PTR _this_member$[ebp]
  00e40	51		 push	 ecx
  00e41	e8 00 00 00 00	 call	 ?set_client_server_entity_parent@@YGXPAUENTITY@@W4LIST_TYPES@@0@Z ; set_client_server_entity_parent

; 477  : 		}

  00e46	e9 5c ff ff ff	 jmp	 $LN6@amalgamate
$LN7@amalgamate:

; 478  : 
; 479  : 		group_kills = get_local_entity_int_value (receiving_group, INT_TYPE_KILLS);

  00e4b	83 7d 08 00	 cmp	 DWORD PTR _receiving_group$[ebp], 0
  00e4f	74 0a		 je	 SHORT $LN127@amalgamate
  00e51	8b 45 08	 mov	 eax, DWORD PTR _receiving_group$[ebp]
  00e54	8b 08		 mov	 ecx, DWORD PTR [eax]
  00e56	89 4d 94	 mov	 DWORD PTR tv676[ebp], ecx
  00e59	eb 21		 jmp	 SHORT $LN128@amalgamate
$LN127@amalgamate:
  00e5b	8b 15 00 00 00
	00		 mov	 edx, DWORD PTR ?__LINE__Var@?0??amalgamate_groups@@YGHPAUENTITY@@0@Z@4JA
  00e61	83 c2 61	 add	 edx, 97			; 00000061H
  00e64	52		 push	 edx
  00e65	68 00 00 00 00	 push	 OFFSET ??_C@_0EJ@CCBIJPFD@c?3?2users?2nhv90?2projects?2eech?2ap@
  00e6a	a1 00 00 00 00	 mov	 eax, DWORD PTR ?null_entity_pointer_message@@3PBDB ; null_entity_pointer_message
  00e6f	50		 push	 eax
  00e70	e8 00 00 00 00	 call	 ?process_assert@@YGXPBD0H@Z ; process_assert
  00e75	c7 45 94 00 00
	00 00		 mov	 DWORD PTR tv676[ebp], 0
$LN128@amalgamate:
  00e7c	b9 01 00 00 00	 mov	 ecx, 1
  00e81	85 c9		 test	 ecx, ecx
  00e83	74 09		 je	 SHORT $LN129@amalgamate
  00e85	c7 45 90 72 00
	00 00		 mov	 DWORD PTR tv684[ebp], 114 ; 00000072H
  00e8c	eb 21		 jmp	 SHORT $LN130@amalgamate
$LN129@amalgamate:
  00e8e	8b 15 00 00 00
	00		 mov	 edx, DWORD PTR ?__LINE__Var@?0??amalgamate_groups@@YGHPAUENTITY@@0@Z@4JA
  00e94	83 c2 61	 add	 edx, 97			; 00000061H
  00e97	52		 push	 edx
  00e98	68 00 00 00 00	 push	 OFFSET ??_C@_0EJ@CCBIJPFD@c?3?2users?2nhv90?2projects?2eech?2ap@
  00e9d	a1 00 00 00 00	 mov	 eax, DWORD PTR ?overload_invalid_int_type_message@@3PBDB ; overload_invalid_int_type_message
  00ea2	50		 push	 eax
  00ea3	e8 00 00 00 00	 call	 ?process_assert@@YGXPBD0H@Z ; process_assert
  00ea8	c7 45 90 00 00
	00 00		 mov	 DWORD PTR tv684[ebp], 0
$LN130@amalgamate:
  00eaf	6a 72		 push	 114			; 00000072H
  00eb1	8b 4d 08	 mov	 ecx, DWORD PTR _receiving_group$[ebp]
  00eb4	51		 push	 ecx
  00eb5	69 55 94 5c 04
	00 00		 imul	 edx, DWORD PTR tv676[ebp], 1116
  00ebc	8b 45 90	 mov	 eax, DWORD PTR tv684[ebp]
  00ebf	8b 8c 82 00 00
	00 00		 mov	 ecx, DWORD PTR ?fn_get_local_entity_int_value@@3PAY0BBH@P6GHPAUENTITY@@W4INT_TYPES@@@ZA[edx+eax*4]
  00ec6	ff d1		 call	 ecx
  00ec8	89 45 f0	 mov	 DWORD PTR _group_kills$[ebp], eax

; 480  : 		group_losses = get_local_entity_int_value (receiving_group, INT_TYPE_LOSSES);

  00ecb	83 7d 08 00	 cmp	 DWORD PTR _receiving_group$[ebp], 0
  00ecf	74 0a		 je	 SHORT $LN131@amalgamate
  00ed1	8b 45 08	 mov	 eax, DWORD PTR _receiving_group$[ebp]
  00ed4	8b 08		 mov	 ecx, DWORD PTR [eax]
  00ed6	89 4d 94	 mov	 DWORD PTR tv696[ebp], ecx
  00ed9	eb 21		 jmp	 SHORT $LN132@amalgamate
$LN131@amalgamate:
  00edb	8b 15 00 00 00
	00		 mov	 edx, DWORD PTR ?__LINE__Var@?0??amalgamate_groups@@YGHPAUENTITY@@0@Z@4JA
  00ee1	83 c2 62	 add	 edx, 98			; 00000062H
  00ee4	52		 push	 edx
  00ee5	68 00 00 00 00	 push	 OFFSET ??_C@_0EJ@CCBIJPFD@c?3?2users?2nhv90?2projects?2eech?2ap@
  00eea	a1 00 00 00 00	 mov	 eax, DWORD PTR ?null_entity_pointer_message@@3PBDB ; null_entity_pointer_message
  00eef	50		 push	 eax
  00ef0	e8 00 00 00 00	 call	 ?process_assert@@YGXPBD0H@Z ; process_assert
  00ef5	c7 45 94 00 00
	00 00		 mov	 DWORD PTR tv696[ebp], 0
$LN132@amalgamate:
  00efc	b9 01 00 00 00	 mov	 ecx, 1
  00f01	85 c9		 test	 ecx, ecx
  00f03	74 09		 je	 SHORT $LN133@amalgamate
  00f05	c7 45 90 7f 00
	00 00		 mov	 DWORD PTR tv704[ebp], 127 ; 0000007fH
  00f0c	eb 21		 jmp	 SHORT $LN134@amalgamate
$LN133@amalgamate:
  00f0e	8b 15 00 00 00
	00		 mov	 edx, DWORD PTR ?__LINE__Var@?0??amalgamate_groups@@YGHPAUENTITY@@0@Z@4JA
  00f14	83 c2 62	 add	 edx, 98			; 00000062H
  00f17	52		 push	 edx
  00f18	68 00 00 00 00	 push	 OFFSET ??_C@_0EJ@CCBIJPFD@c?3?2users?2nhv90?2projects?2eech?2ap@
  00f1d	a1 00 00 00 00	 mov	 eax, DWORD PTR ?overload_invalid_int_type_message@@3PBDB ; overload_invalid_int_type_message
  00f22	50		 push	 eax
  00f23	e8 00 00 00 00	 call	 ?process_assert@@YGXPBD0H@Z ; process_assert
  00f28	c7 45 90 00 00
	00 00		 mov	 DWORD PTR tv704[ebp], 0
$LN134@amalgamate:
  00f2f	6a 7f		 push	 127			; 0000007fH
  00f31	8b 4d 08	 mov	 ecx, DWORD PTR _receiving_group$[ebp]
  00f34	51		 push	 ecx
  00f35	69 55 94 5c 04
	00 00		 imul	 edx, DWORD PTR tv696[ebp], 1116
  00f3c	8b 45 90	 mov	 eax, DWORD PTR tv704[ebp]
  00f3f	8b 8c 82 00 00
	00 00		 mov	 ecx, DWORD PTR ?fn_get_local_entity_int_value@@3PAY0BBH@P6GHPAUENTITY@@W4INT_TYPES@@@ZA[edx+eax*4]
  00f46	ff d1		 call	 ecx
  00f48	89 45 ec	 mov	 DWORD PTR _group_losses$[ebp], eax

; 481  : 
; 482  : 		group_kills += get_local_entity_int_value (donating_group, INT_TYPE_KILLS);

  00f4b	83 7d 0c 00	 cmp	 DWORD PTR _donating_group$[ebp], 0
  00f4f	74 0a		 je	 SHORT $LN135@amalgamate
  00f51	8b 45 0c	 mov	 eax, DWORD PTR _donating_group$[ebp]
  00f54	8b 08		 mov	 ecx, DWORD PTR [eax]
  00f56	89 4d 94	 mov	 DWORD PTR tv716[ebp], ecx
  00f59	eb 21		 jmp	 SHORT $LN136@amalgamate
$LN135@amalgamate:
  00f5b	8b 15 00 00 00
	00		 mov	 edx, DWORD PTR ?__LINE__Var@?0??amalgamate_groups@@YGHPAUENTITY@@0@Z@4JA
  00f61	83 c2 64	 add	 edx, 100		; 00000064H
  00f64	52		 push	 edx
  00f65	68 00 00 00 00	 push	 OFFSET ??_C@_0EJ@CCBIJPFD@c?3?2users?2nhv90?2projects?2eech?2ap@
  00f6a	a1 00 00 00 00	 mov	 eax, DWORD PTR ?null_entity_pointer_message@@3PBDB ; null_entity_pointer_message
  00f6f	50		 push	 eax
  00f70	e8 00 00 00 00	 call	 ?process_assert@@YGXPBD0H@Z ; process_assert
  00f75	c7 45 94 00 00
	00 00		 mov	 DWORD PTR tv716[ebp], 0
$LN136@amalgamate:
  00f7c	b9 01 00 00 00	 mov	 ecx, 1
  00f81	85 c9		 test	 ecx, ecx
  00f83	74 09		 je	 SHORT $LN137@amalgamate
  00f85	c7 45 90 72 00
	00 00		 mov	 DWORD PTR tv724[ebp], 114 ; 00000072H
  00f8c	eb 21		 jmp	 SHORT $LN138@amalgamate
$LN137@amalgamate:
  00f8e	8b 15 00 00 00
	00		 mov	 edx, DWORD PTR ?__LINE__Var@?0??amalgamate_groups@@YGHPAUENTITY@@0@Z@4JA
  00f94	83 c2 64	 add	 edx, 100		; 00000064H
  00f97	52		 push	 edx
  00f98	68 00 00 00 00	 push	 OFFSET ??_C@_0EJ@CCBIJPFD@c?3?2users?2nhv90?2projects?2eech?2ap@
  00f9d	a1 00 00 00 00	 mov	 eax, DWORD PTR ?overload_invalid_int_type_message@@3PBDB ; overload_invalid_int_type_message
  00fa2	50		 push	 eax
  00fa3	e8 00 00 00 00	 call	 ?process_assert@@YGXPBD0H@Z ; process_assert
  00fa8	c7 45 90 00 00
	00 00		 mov	 DWORD PTR tv724[ebp], 0
$LN138@amalgamate:
  00faf	6a 72		 push	 114			; 00000072H
  00fb1	8b 4d 0c	 mov	 ecx, DWORD PTR _donating_group$[ebp]
  00fb4	51		 push	 ecx
  00fb5	69 55 94 5c 04
	00 00		 imul	 edx, DWORD PTR tv716[ebp], 1116
  00fbc	8b 45 90	 mov	 eax, DWORD PTR tv724[ebp]
  00fbf	8b 8c 82 00 00
	00 00		 mov	 ecx, DWORD PTR ?fn_get_local_entity_int_value@@3PAY0BBH@P6GHPAUENTITY@@W4INT_TYPES@@@ZA[edx+eax*4]
  00fc6	ff d1		 call	 ecx
  00fc8	03 45 f0	 add	 eax, DWORD PTR _group_kills$[ebp]
  00fcb	89 45 f0	 mov	 DWORD PTR _group_kills$[ebp], eax

; 483  : 		group_losses += get_local_entity_int_value (donating_group, INT_TYPE_LOSSES);

  00fce	83 7d 0c 00	 cmp	 DWORD PTR _donating_group$[ebp], 0
  00fd2	74 0a		 je	 SHORT $LN139@amalgamate
  00fd4	8b 45 0c	 mov	 eax, DWORD PTR _donating_group$[ebp]
  00fd7	8b 08		 mov	 ecx, DWORD PTR [eax]
  00fd9	89 4d 94	 mov	 DWORD PTR tv737[ebp], ecx
  00fdc	eb 21		 jmp	 SHORT $LN140@amalgamate
$LN139@amalgamate:
  00fde	8b 15 00 00 00
	00		 mov	 edx, DWORD PTR ?__LINE__Var@?0??amalgamate_groups@@YGHPAUENTITY@@0@Z@4JA
  00fe4	83 c2 65	 add	 edx, 101		; 00000065H
  00fe7	52		 push	 edx
  00fe8	68 00 00 00 00	 push	 OFFSET ??_C@_0EJ@CCBIJPFD@c?3?2users?2nhv90?2projects?2eech?2ap@
  00fed	a1 00 00 00 00	 mov	 eax, DWORD PTR ?null_entity_pointer_message@@3PBDB ; null_entity_pointer_message
  00ff2	50		 push	 eax
  00ff3	e8 00 00 00 00	 call	 ?process_assert@@YGXPBD0H@Z ; process_assert
  00ff8	c7 45 94 00 00
	00 00		 mov	 DWORD PTR tv737[ebp], 0
$LN140@amalgamate:
  00fff	b9 01 00 00 00	 mov	 ecx, 1
  01004	85 c9		 test	 ecx, ecx
  01006	74 09		 je	 SHORT $LN141@amalgamate
  01008	c7 45 90 7f 00
	00 00		 mov	 DWORD PTR tv745[ebp], 127 ; 0000007fH
  0100f	eb 21		 jmp	 SHORT $LN142@amalgamate
$LN141@amalgamate:
  01011	8b 15 00 00 00
	00		 mov	 edx, DWORD PTR ?__LINE__Var@?0??amalgamate_groups@@YGHPAUENTITY@@0@Z@4JA
  01017	83 c2 65	 add	 edx, 101		; 00000065H
  0101a	52		 push	 edx
  0101b	68 00 00 00 00	 push	 OFFSET ??_C@_0EJ@CCBIJPFD@c?3?2users?2nhv90?2projects?2eech?2ap@
  01020	a1 00 00 00 00	 mov	 eax, DWORD PTR ?overload_invalid_int_type_message@@3PBDB ; overload_invalid_int_type_message
  01025	50		 push	 eax
  01026	e8 00 00 00 00	 call	 ?process_assert@@YGXPBD0H@Z ; process_assert
  0102b	c7 45 90 00 00
	00 00		 mov	 DWORD PTR tv745[ebp], 0
$LN142@amalgamate:
  01032	6a 7f		 push	 127			; 0000007fH
  01034	8b 4d 0c	 mov	 ecx, DWORD PTR _donating_group$[ebp]
  01037	51		 push	 ecx
  01038	69 55 94 5c 04
	00 00		 imul	 edx, DWORD PTR tv737[ebp], 1116
  0103f	8b 45 90	 mov	 eax, DWORD PTR tv745[ebp]
  01042	8b 8c 82 00 00
	00 00		 mov	 ecx, DWORD PTR ?fn_get_local_entity_int_value@@3PAY0BBH@P6GHPAUENTITY@@W4INT_TYPES@@@ZA[edx+eax*4]
  01049	ff d1		 call	 ecx
  0104b	03 45 ec	 add	 eax, DWORD PTR _group_losses$[ebp]
  0104e	89 45 ec	 mov	 DWORD PTR _group_losses$[ebp], eax

; 484  : 
; 485  : 		if (get_local_entity_int_value (receiving_group, INT_TYPE_KILLS) != group_kills)

  01051	83 7d 08 00	 cmp	 DWORD PTR _receiving_group$[ebp], 0
  01055	74 0a		 je	 SHORT $LN143@amalgamate
  01057	8b 45 08	 mov	 eax, DWORD PTR _receiving_group$[ebp]
  0105a	8b 08		 mov	 ecx, DWORD PTR [eax]
  0105c	89 4d 94	 mov	 DWORD PTR tv757[ebp], ecx
  0105f	eb 1d		 jmp	 SHORT $LN144@amalgamate
$LN143@amalgamate:
  01061	68 e5 01 00 00	 push	 485			; 000001e5H
  01066	68 00 00 00 00	 push	 OFFSET ??_C@_0EJ@CCBIJPFD@c?3?2users?2nhv90?2projects?2eech?2ap@
  0106b	8b 15 00 00 00
	00		 mov	 edx, DWORD PTR ?null_entity_pointer_message@@3PBDB ; null_entity_pointer_message
  01071	52		 push	 edx
  01072	e8 00 00 00 00	 call	 ?process_assert@@YGXPBD0H@Z ; process_assert
  01077	c7 45 94 00 00
	00 00		 mov	 DWORD PTR tv757[ebp], 0
$LN144@amalgamate:
  0107e	b8 01 00 00 00	 mov	 eax, 1
  01083	85 c0		 test	 eax, eax
  01085	74 09		 je	 SHORT $LN145@amalgamate
  01087	c7 45 90 72 00
	00 00		 mov	 DWORD PTR tv764[ebp], 114 ; 00000072H
  0108e	eb 1d		 jmp	 SHORT $LN146@amalgamate
$LN145@amalgamate:
  01090	68 e5 01 00 00	 push	 485			; 000001e5H
  01095	68 00 00 00 00	 push	 OFFSET ??_C@_0EJ@CCBIJPFD@c?3?2users?2nhv90?2projects?2eech?2ap@
  0109a	8b 0d 00 00 00
	00		 mov	 ecx, DWORD PTR ?overload_invalid_int_type_message@@3PBDB ; overload_invalid_int_type_message
  010a0	51		 push	 ecx
  010a1	e8 00 00 00 00	 call	 ?process_assert@@YGXPBD0H@Z ; process_assert
  010a6	c7 45 90 00 00
	00 00		 mov	 DWORD PTR tv764[ebp], 0
$LN146@amalgamate:
  010ad	6a 72		 push	 114			; 00000072H
  010af	8b 55 08	 mov	 edx, DWORD PTR _receiving_group$[ebp]
  010b2	52		 push	 edx
  010b3	69 45 94 5c 04
	00 00		 imul	 eax, DWORD PTR tv757[ebp], 1116
  010ba	8b 4d 90	 mov	 ecx, DWORD PTR tv764[ebp]
  010bd	8b 94 88 00 00
	00 00		 mov	 edx, DWORD PTR ?fn_get_local_entity_int_value@@3PAY0BBH@P6GHPAUENTITY@@W4INT_TYPES@@@ZA[eax+ecx*4]
  010c4	ff d2		 call	 edx
  010c6	3b 45 f0	 cmp	 eax, DWORD PTR _group_kills$[ebp]
  010c9	0f 84 89 00 00
	00		 je	 $LN21@amalgamate

; 486  : 		{
; 487  : 
; 488  : 			set_client_server_entity_int_value (receiving_group, INT_TYPE_KILLS, group_kills);

  010cf	83 7d 08 00	 cmp	 DWORD PTR _receiving_group$[ebp], 0
  010d3	74 0a		 je	 SHORT $LN147@amalgamate
  010d5	8b 45 08	 mov	 eax, DWORD PTR _receiving_group$[ebp]
  010d8	8b 08		 mov	 ecx, DWORD PTR [eax]
  010da	89 4d 94	 mov	 DWORD PTR tv777[ebp], ecx
  010dd	eb 21		 jmp	 SHORT $LN148@amalgamate
$LN147@amalgamate:
  010df	8b 15 00 00 00
	00		 mov	 edx, DWORD PTR ?__LINE__Var@?0??amalgamate_groups@@YGHPAUENTITY@@0@Z@4JA
  010e5	83 c2 6a	 add	 edx, 106		; 0000006aH
  010e8	52		 push	 edx
  010e9	68 00 00 00 00	 push	 OFFSET ??_C@_0EJ@CCBIJPFD@c?3?2users?2nhv90?2projects?2eech?2ap@
  010ee	a1 00 00 00 00	 mov	 eax, DWORD PTR ?null_entity_pointer_message@@3PBDB ; null_entity_pointer_message
  010f3	50		 push	 eax
  010f4	e8 00 00 00 00	 call	 ?process_assert@@YGXPBD0H@Z ; process_assert
  010f9	c7 45 94 00 00
	00 00		 mov	 DWORD PTR tv777[ebp], 0
$LN148@amalgamate:
  01100	b9 01 00 00 00	 mov	 ecx, 1
  01105	85 c9		 test	 ecx, ecx
  01107	74 09		 je	 SHORT $LN149@amalgamate
  01109	c7 45 90 72 00
	00 00		 mov	 DWORD PTR tv785[ebp], 114 ; 00000072H
  01110	eb 21		 jmp	 SHORT $LN150@amalgamate
$LN149@amalgamate:
  01112	8b 15 00 00 00
	00		 mov	 edx, DWORD PTR ?__LINE__Var@?0??amalgamate_groups@@YGHPAUENTITY@@0@Z@4JA
  01118	83 c2 6a	 add	 edx, 106		; 0000006aH
  0111b	52		 push	 edx
  0111c	68 00 00 00 00	 push	 OFFSET ??_C@_0EJ@CCBIJPFD@c?3?2users?2nhv90?2projects?2eech?2ap@
  01121	a1 00 00 00 00	 mov	 eax, DWORD PTR ?overload_invalid_int_type_message@@3PBDB ; overload_invalid_int_type_message
  01126	50		 push	 eax
  01127	e8 00 00 00 00	 call	 ?process_assert@@YGXPBD0H@Z ; process_assert
  0112c	c7 45 90 00 00
	00 00		 mov	 DWORD PTR tv785[ebp], 0
$LN150@amalgamate:
  01133	8b 4d f0	 mov	 ecx, DWORD PTR _group_kills$[ebp]
  01136	51		 push	 ecx
  01137	6a 72		 push	 114			; 00000072H
  01139	8b 55 08	 mov	 edx, DWORD PTR _receiving_group$[ebp]
  0113c	52		 push	 edx
  0113d	69 45 94 b8 08
	00 00		 imul	 eax, DWORD PTR tv777[ebp], 2232
  01144	8b 4d 90	 mov	 ecx, DWORD PTR tv785[ebp]
  01147	8d 94 c8 00 00
	00 00		 lea	 edx, DWORD PTR ?fn_set_client_server_entity_int_value@@3PAY1BBH@1P6GXPAUENTITY@@W4INT_TYPES@@H@ZA[eax+ecx*8]
  0114e	a1 00 00 00 00	 mov	 eax, DWORD PTR ?system_comms_model@@3W4COMMS_MODEL_TYPES@@A ; system_comms_model
  01153	8b 0c 82	 mov	 ecx, DWORD PTR [edx+eax*4]
  01156	ff d1		 call	 ecx
$LN21@amalgamate:

; 489  : 		}
; 490  : 
; 491  : 		if (get_local_entity_int_value (receiving_group, INT_TYPE_LOSSES) != group_losses)

  01158	83 7d 08 00	 cmp	 DWORD PTR _receiving_group$[ebp], 0
  0115c	74 0a		 je	 SHORT $LN151@amalgamate
  0115e	8b 45 08	 mov	 eax, DWORD PTR _receiving_group$[ebp]
  01161	8b 08		 mov	 ecx, DWORD PTR [eax]
  01163	89 4d 94	 mov	 DWORD PTR tv798[ebp], ecx
  01166	eb 1d		 jmp	 SHORT $LN152@amalgamate
$LN151@amalgamate:
  01168	68 eb 01 00 00	 push	 491			; 000001ebH
  0116d	68 00 00 00 00	 push	 OFFSET ??_C@_0EJ@CCBIJPFD@c?3?2users?2nhv90?2projects?2eech?2ap@
  01172	8b 15 00 00 00
	00		 mov	 edx, DWORD PTR ?null_entity_pointer_message@@3PBDB ; null_entity_pointer_message
  01178	52		 push	 edx
  01179	e8 00 00 00 00	 call	 ?process_assert@@YGXPBD0H@Z ; process_assert
  0117e	c7 45 94 00 00
	00 00		 mov	 DWORD PTR tv798[ebp], 0
$LN152@amalgamate:
  01185	b8 01 00 00 00	 mov	 eax, 1
  0118a	85 c0		 test	 eax, eax
  0118c	74 09		 je	 SHORT $LN153@amalgamate
  0118e	c7 45 90 7f 00
	00 00		 mov	 DWORD PTR tv805[ebp], 127 ; 0000007fH
  01195	eb 1d		 jmp	 SHORT $LN154@amalgamate
$LN153@amalgamate:
  01197	68 eb 01 00 00	 push	 491			; 000001ebH
  0119c	68 00 00 00 00	 push	 OFFSET ??_C@_0EJ@CCBIJPFD@c?3?2users?2nhv90?2projects?2eech?2ap@
  011a1	8b 0d 00 00 00
	00		 mov	 ecx, DWORD PTR ?overload_invalid_int_type_message@@3PBDB ; overload_invalid_int_type_message
  011a7	51		 push	 ecx
  011a8	e8 00 00 00 00	 call	 ?process_assert@@YGXPBD0H@Z ; process_assert
  011ad	c7 45 90 00 00
	00 00		 mov	 DWORD PTR tv805[ebp], 0
$LN154@amalgamate:
  011b4	6a 7f		 push	 127			; 0000007fH
  011b6	8b 55 08	 mov	 edx, DWORD PTR _receiving_group$[ebp]
  011b9	52		 push	 edx
  011ba	69 45 94 5c 04
	00 00		 imul	 eax, DWORD PTR tv798[ebp], 1116
  011c1	8b 4d 90	 mov	 ecx, DWORD PTR tv805[ebp]
  011c4	8b 94 88 00 00
	00 00		 mov	 edx, DWORD PTR ?fn_get_local_entity_int_value@@3PAY0BBH@P6GHPAUENTITY@@W4INT_TYPES@@@ZA[eax+ecx*4]
  011cb	ff d2		 call	 edx
  011cd	3b 45 ec	 cmp	 eax, DWORD PTR _group_losses$[ebp]
  011d0	0f 84 89 00 00
	00		 je	 $LN22@amalgamate

; 492  : 		{
; 493  : 
; 494  : 			set_client_server_entity_int_value (receiving_group, INT_TYPE_LOSSES, group_losses);

  011d6	83 7d 08 00	 cmp	 DWORD PTR _receiving_group$[ebp], 0
  011da	74 0a		 je	 SHORT $LN155@amalgamate
  011dc	8b 45 08	 mov	 eax, DWORD PTR _receiving_group$[ebp]
  011df	8b 08		 mov	 ecx, DWORD PTR [eax]
  011e1	89 4d 94	 mov	 DWORD PTR tv818[ebp], ecx
  011e4	eb 21		 jmp	 SHORT $LN156@amalgamate
$LN155@amalgamate:
  011e6	8b 15 00 00 00
	00		 mov	 edx, DWORD PTR ?__LINE__Var@?0??amalgamate_groups@@YGHPAUENTITY@@0@Z@4JA
  011ec	83 c2 70	 add	 edx, 112		; 00000070H
  011ef	52		 push	 edx
  011f0	68 00 00 00 00	 push	 OFFSET ??_C@_0EJ@CCBIJPFD@c?3?2users?2nhv90?2projects?2eech?2ap@
  011f5	a1 00 00 00 00	 mov	 eax, DWORD PTR ?null_entity_pointer_message@@3PBDB ; null_entity_pointer_message
  011fa	50		 push	 eax
  011fb	e8 00 00 00 00	 call	 ?process_assert@@YGXPBD0H@Z ; process_assert
  01200	c7 45 94 00 00
	00 00		 mov	 DWORD PTR tv818[ebp], 0
$LN156@amalgamate:
  01207	b9 01 00 00 00	 mov	 ecx, 1
  0120c	85 c9		 test	 ecx, ecx
  0120e	74 09		 je	 SHORT $LN157@amalgamate
  01210	c7 45 90 7f 00
	00 00		 mov	 DWORD PTR tv826[ebp], 127 ; 0000007fH
  01217	eb 21		 jmp	 SHORT $LN158@amalgamate
$LN157@amalgamate:
  01219	8b 15 00 00 00
	00		 mov	 edx, DWORD PTR ?__LINE__Var@?0??amalgamate_groups@@YGHPAUENTITY@@0@Z@4JA
  0121f	83 c2 70	 add	 edx, 112		; 00000070H
  01222	52		 push	 edx
  01223	68 00 00 00 00	 push	 OFFSET ??_C@_0EJ@CCBIJPFD@c?3?2users?2nhv90?2projects?2eech?2ap@
  01228	a1 00 00 00 00	 mov	 eax, DWORD PTR ?overload_invalid_int_type_message@@3PBDB ; overload_invalid_int_type_message
  0122d	50		 push	 eax
  0122e	e8 00 00 00 00	 call	 ?process_assert@@YGXPBD0H@Z ; process_assert
  01233	c7 45 90 00 00
	00 00		 mov	 DWORD PTR tv826[ebp], 0
$LN158@amalgamate:
  0123a	8b 4d ec	 mov	 ecx, DWORD PTR _group_losses$[ebp]
  0123d	51		 push	 ecx
  0123e	6a 7f		 push	 127			; 0000007fH
  01240	8b 55 08	 mov	 edx, DWORD PTR _receiving_group$[ebp]
  01243	52		 push	 edx
  01244	69 45 94 b8 08
	00 00		 imul	 eax, DWORD PTR tv818[ebp], 2232
  0124b	8b 4d 90	 mov	 ecx, DWORD PTR tv826[ebp]
  0124e	8d 94 c8 00 00
	00 00		 lea	 edx, DWORD PTR ?fn_set_client_server_entity_int_value@@3PAY1BBH@1P6GXPAUENTITY@@W4INT_TYPES@@H@ZA[eax+ecx*8]
  01255	a1 00 00 00 00	 mov	 eax, DWORD PTR ?system_comms_model@@3W4COMMS_MODEL_TYPES@@A ; system_comms_model
  0125a	8b 0c 82	 mov	 ecx, DWORD PTR [edx+eax*4]
  0125d	ff d1		 call	 ecx
$LN22@amalgamate:

; 495  : 		}
; 496  : 
; 497  : 		//
; 498  : 		// renumber the group members
; 499  : 		//
; 500  : 
; 501  : 		set_group_member_numbers (receiving_group);

  0125f	8b 45 08	 mov	 eax, DWORD PTR _receiving_group$[ebp]
  01262	50		 push	 eax
  01263	e8 00 00 00 00	 call	 ?set_group_member_numbers@@YGXPAUENTITY@@@Z ; set_group_member_numbers

; 502  : 
; 503  : 		//
; 504  : 		// place empty donating group on free list
; 505  : 		//
; 506  : 
; 507  : 		ASSERT (get_local_entity_int_value (donating_group, INT_TYPE_MEMBER_COUNT) == 0);

  01268	83 7d 0c 00	 cmp	 DWORD PTR _donating_group$[ebp], 0
  0126c	74 0a		 je	 SHORT $LN159@amalgamate
  0126e	8b 45 0c	 mov	 eax, DWORD PTR _donating_group$[ebp]
  01271	8b 08		 mov	 ecx, DWORD PTR [eax]
  01273	89 4d 94	 mov	 DWORD PTR tv841[ebp], ecx
  01276	eb 21		 jmp	 SHORT $LN160@amalgamate
$LN159@amalgamate:
  01278	8b 15 00 00 00
	00		 mov	 edx, DWORD PTR ?__LINE__Var@?0??amalgamate_groups@@YGHPAUENTITY@@0@Z@4JA
  0127e	83 c2 7d	 add	 edx, 125		; 0000007dH
  01281	52		 push	 edx
  01282	68 00 00 00 00	 push	 OFFSET ??_C@_0EJ@CCBIJPFD@c?3?2users?2nhv90?2projects?2eech?2ap@
  01287	a1 00 00 00 00	 mov	 eax, DWORD PTR ?null_entity_pointer_message@@3PBDB ; null_entity_pointer_message
  0128c	50		 push	 eax
  0128d	e8 00 00 00 00	 call	 ?process_assert@@YGXPBD0H@Z ; process_assert
  01292	c7 45 94 00 00
	00 00		 mov	 DWORD PTR tv841[ebp], 0
$LN160@amalgamate:
  01299	b9 01 00 00 00	 mov	 ecx, 1
  0129e	85 c9		 test	 ecx, ecx
  012a0	74 09		 je	 SHORT $LN161@amalgamate
  012a2	c7 45 90 86 00
	00 00		 mov	 DWORD PTR tv849[ebp], 134 ; 00000086H
  012a9	eb 21		 jmp	 SHORT $LN162@amalgamate
$LN161@amalgamate:
  012ab	8b 15 00 00 00
	00		 mov	 edx, DWORD PTR ?__LINE__Var@?0??amalgamate_groups@@YGHPAUENTITY@@0@Z@4JA
  012b1	83 c2 7d	 add	 edx, 125		; 0000007dH
  012b4	52		 push	 edx
  012b5	68 00 00 00 00	 push	 OFFSET ??_C@_0EJ@CCBIJPFD@c?3?2users?2nhv90?2projects?2eech?2ap@
  012ba	a1 00 00 00 00	 mov	 eax, DWORD PTR ?overload_invalid_int_type_message@@3PBDB ; overload_invalid_int_type_message
  012bf	50		 push	 eax
  012c0	e8 00 00 00 00	 call	 ?process_assert@@YGXPBD0H@Z ; process_assert
  012c5	c7 45 90 00 00
	00 00		 mov	 DWORD PTR tv849[ebp], 0
$LN162@amalgamate:
  012cc	68 86 00 00 00	 push	 134			; 00000086H
  012d1	8b 4d 0c	 mov	 ecx, DWORD PTR _donating_group$[ebp]
  012d4	51		 push	 ecx
  012d5	69 55 94 5c 04
	00 00		 imul	 edx, DWORD PTR tv841[ebp], 1116
  012dc	8b 45 90	 mov	 eax, DWORD PTR tv849[ebp]
  012df	8b 8c 82 00 00
	00 00		 mov	 ecx, DWORD PTR ?fn_get_local_entity_int_value@@3PAY0BBH@P6GHPAUENTITY@@W4INT_TYPES@@@ZA[edx+eax*4]
  012e6	ff d1		 call	 ecx
  012e8	85 c0		 test	 eax, eax
  012ea	74 18		 je	 SHORT $LN23@amalgamate
  012ec	a1 00 00 00 00	 mov	 eax, DWORD PTR ?__LINE__Var@?0??amalgamate_groups@@YGHPAUENTITY@@0@Z@4JA
  012f1	83 c0 7d	 add	 eax, 125		; 0000007dH
  012f4	50		 push	 eax
  012f5	68 00 00 00 00	 push	 OFFSET ??_C@_0EJ@CCBIJPFD@c?3?2users?2nhv90?2projects?2eech?2ap@
  012fa	68 00 00 00 00	 push	 OFFSET ??_C@_0EI@BMGPKMAK@get_local_entity_int_value?5?$CIdon@
  012ff	e8 00 00 00 00	 call	 ?process_assert@@YGXPBD0H@Z ; process_assert
$LN23@amalgamate:

; 508  : 
; 509  : 		kill_client_server_group_entity (donating_group);

  01304	8b 45 0c	 mov	 eax, DWORD PTR _donating_group$[ebp]
  01307	50		 push	 eax
  01308	e8 00 00 00 00	 call	 ?kill_client_server_group_entity@@YGXPAUENTITY@@@Z ; kill_client_server_group_entity

; 510  : 
; 511  : 		#ifdef DEBUG
; 512  : 		{
; 513  : 
; 514  : 			vec3d
; 515  : 				*pos1,
; 516  : 				*test_pos;
; 517  : 
; 518  : 			float
; 519  : 				amalgamate_max_range = 10 * KILOMETRE;

  0130d	f3 0f 10 05 00
	00 00 00	 movss	 xmm0, DWORD PTR __real@461c4000
  01315	f3 0f 11 45 d8	 movss	 DWORD PTR _amalgamate_max_range$1[ebp], xmm0

; 520  : 
; 521  : 			member = get_local_entity_first_child (receiving_group, LIST_TYPE_MEMBER);

  0131a	83 7d 08 00	 cmp	 DWORD PTR _receiving_group$[ebp], 0
  0131e	74 0a		 je	 SHORT $LN163@amalgamate
  01320	8b 45 08	 mov	 eax, DWORD PTR _receiving_group$[ebp]
  01323	8b 08		 mov	 ecx, DWORD PTR [eax]
  01325	89 4d 94	 mov	 DWORD PTR tv867[ebp], ecx
  01328	eb 24		 jmp	 SHORT $LN164@amalgamate
$LN163@amalgamate:
  0132a	8b 15 00 00 00
	00		 mov	 edx, DWORD PTR ?__LINE__Var@?0??amalgamate_groups@@YGHPAUENTITY@@0@Z@4JA
  01330	81 c2 8b 00 00
	00		 add	 edx, 139		; 0000008bH
  01336	52		 push	 edx
  01337	68 00 00 00 00	 push	 OFFSET ??_C@_0EJ@CCBIJPFD@c?3?2users?2nhv90?2projects?2eech?2ap@
  0133c	a1 00 00 00 00	 mov	 eax, DWORD PTR ?null_entity_pointer_message@@3PBDB ; null_entity_pointer_message
  01341	50		 push	 eax
  01342	e8 00 00 00 00	 call	 ?process_assert@@YGXPBD0H@Z ; process_assert
  01347	c7 45 94 00 00
	00 00		 mov	 DWORD PTR tv867[ebp], 0
$LN164@amalgamate:
  0134e	b9 01 00 00 00	 mov	 ecx, 1
  01353	85 c9		 test	 ecx, ecx
  01355	74 09		 je	 SHORT $LN165@amalgamate
  01357	c7 45 90 19 00
	00 00		 mov	 DWORD PTR tv875[ebp], 25 ; 00000019H
  0135e	eb 24		 jmp	 SHORT $LN166@amalgamate
$LN165@amalgamate:
  01360	8b 15 00 00 00
	00		 mov	 edx, DWORD PTR ?__LINE__Var@?0??amalgamate_groups@@YGHPAUENTITY@@0@Z@4JA
  01366	81 c2 8b 00 00
	00		 add	 edx, 139		; 0000008bH
  0136c	52		 push	 edx
  0136d	68 00 00 00 00	 push	 OFFSET ??_C@_0EJ@CCBIJPFD@c?3?2users?2nhv90?2projects?2eech?2ap@
  01372	a1 00 00 00 00	 mov	 eax, DWORD PTR ?overload_invalid_list_type_message@@3PBDB ; overload_invalid_list_type_message
  01377	50		 push	 eax
  01378	e8 00 00 00 00	 call	 ?process_assert@@YGXPBD0H@Z ; process_assert
  0137d	c7 45 90 00 00
	00 00		 mov	 DWORD PTR tv875[ebp], 0
$LN166@amalgamate:
  01384	6a 19		 push	 25			; 00000019H
  01386	8b 4d 08	 mov	 ecx, DWORD PTR _receiving_group$[ebp]
  01389	51		 push	 ecx
  0138a	69 55 94 b4 00
	00 00		 imul	 edx, DWORD PTR tv867[ebp], 180
  01391	8b 45 90	 mov	 eax, DWORD PTR tv875[ebp]
  01394	8b 8c 82 00 00
	00 00		 mov	 ecx, DWORD PTR ?fn_get_local_entity_first_child@@3PAY0CN@P6GPAUENTITY@@PAU1@W4LIST_TYPES@@@ZA[edx+eax*4]
  0139b	ff d1		 call	 ecx
  0139d	89 45 f8	 mov	 DWORD PTR _member$[ebp], eax

; 522  : 
; 523  : 			ASSERT (member);

  013a0	83 7d f8 00	 cmp	 DWORD PTR _member$[ebp], 0
  013a4	75 1a		 jne	 SHORT $LN24@amalgamate
  013a6	a1 00 00 00 00	 mov	 eax, DWORD PTR ?__LINE__Var@?0??amalgamate_groups@@YGHPAUENTITY@@0@Z@4JA
  013ab	05 8d 00 00 00	 add	 eax, 141		; 0000008dH
  013b0	50		 push	 eax
  013b1	68 00 00 00 00	 push	 OFFSET ??_C@_0EJ@CCBIJPFD@c?3?2users?2nhv90?2projects?2eech?2ap@
  013b6	68 00 00 00 00	 push	 OFFSET ??_C@_06HDFDANIG@member@
  013bb	e8 00 00 00 00	 call	 ?process_assert@@YGXPBD0H@Z ; process_assert
$LN24@amalgamate:

; 524  : 	
; 525  : 			pos1 = get_local_entity_vec3d_ptr (member, VEC3D_TYPE_POSITION);

  013c0	83 7d f8 00	 cmp	 DWORD PTR _member$[ebp], 0
  013c4	74 0a		 je	 SHORT $LN167@amalgamate
  013c6	8b 45 f8	 mov	 eax, DWORD PTR _member$[ebp]
  013c9	8b 08		 mov	 ecx, DWORD PTR [eax]
  013cb	89 4d 94	 mov	 DWORD PTR tv892[ebp], ecx
  013ce	eb 24		 jmp	 SHORT $LN168@amalgamate
$LN167@amalgamate:
  013d0	8b 15 00 00 00
	00		 mov	 edx, DWORD PTR ?__LINE__Var@?0??amalgamate_groups@@YGHPAUENTITY@@0@Z@4JA
  013d6	81 c2 8f 00 00
	00		 add	 edx, 143		; 0000008fH
  013dc	52		 push	 edx
  013dd	68 00 00 00 00	 push	 OFFSET ??_C@_0EJ@CCBIJPFD@c?3?2users?2nhv90?2projects?2eech?2ap@
  013e2	a1 00 00 00 00	 mov	 eax, DWORD PTR ?null_entity_pointer_message@@3PBDB ; null_entity_pointer_message
  013e7	50		 push	 eax
  013e8	e8 00 00 00 00	 call	 ?process_assert@@YGXPBD0H@Z ; process_assert
  013ed	c7 45 94 00 00
	00 00		 mov	 DWORD PTR tv892[ebp], 0
$LN168@amalgamate:
  013f4	b9 01 00 00 00	 mov	 ecx, 1
  013f9	85 c9		 test	 ecx, ecx
  013fb	74 09		 je	 SHORT $LN169@amalgamate
  013fd	c7 45 90 08 00
	00 00		 mov	 DWORD PTR tv900[ebp], 8
  01404	eb 24		 jmp	 SHORT $LN170@amalgamate
$LN169@amalgamate:
  01406	8b 15 00 00 00
	00		 mov	 edx, DWORD PTR ?__LINE__Var@?0??amalgamate_groups@@YGHPAUENTITY@@0@Z@4JA
  0140c	81 c2 8f 00 00
	00		 add	 edx, 143		; 0000008fH
  01412	52		 push	 edx
  01413	68 00 00 00 00	 push	 OFFSET ??_C@_0EJ@CCBIJPFD@c?3?2users?2nhv90?2projects?2eech?2ap@
  01418	a1 00 00 00 00	 mov	 eax, DWORD PTR ?overload_invalid_vec3d_type_message@@3PBDB ; overload_invalid_vec3d_type_message
  0141d	50		 push	 eax
  0141e	e8 00 00 00 00	 call	 ?process_assert@@YGXPBD0H@Z ; process_assert
  01423	c7 45 90 00 00
	00 00		 mov	 DWORD PTR tv900[ebp], 0
$LN170@amalgamate:
  0142a	6a 08		 push	 8
  0142c	8b 4d f8	 mov	 ecx, DWORD PTR _member$[ebp]
  0142f	51		 push	 ecx
  01430	6b 55 94 60	 imul	 edx, DWORD PTR tv892[ebp], 96
  01434	8b 45 90	 mov	 eax, DWORD PTR tv900[ebp]
  01437	8b 8c 82 00 00
	00 00		 mov	 ecx, DWORD PTR ?fn_get_local_entity_vec3d_ptr@@3PAY0BI@P6GPAUVEC3D@@PAUENTITY@@W4VEC3D_TYPES@@@ZA[edx+eax*4]
  0143e	ff d1		 call	 ecx
  01440	89 45 e0	 mov	 DWORD PTR _pos1$3[ebp], eax

; 526  : 	
; 527  : 			member = get_local_entity_child_succ (member, LIST_TYPE_MEMBER);

  01443	83 7d f8 00	 cmp	 DWORD PTR _member$[ebp], 0
  01447	74 0a		 je	 SHORT $LN171@amalgamate
  01449	8b 45 f8	 mov	 eax, DWORD PTR _member$[ebp]
  0144c	8b 08		 mov	 ecx, DWORD PTR [eax]
  0144e	89 4d 94	 mov	 DWORD PTR tv912[ebp], ecx
  01451	eb 24		 jmp	 SHORT $LN172@amalgamate
$LN171@amalgamate:
  01453	8b 15 00 00 00
	00		 mov	 edx, DWORD PTR ?__LINE__Var@?0??amalgamate_groups@@YGHPAUENTITY@@0@Z@4JA
  01459	81 c2 91 00 00
	00		 add	 edx, 145		; 00000091H
  0145f	52		 push	 edx
  01460	68 00 00 00 00	 push	 OFFSET ??_C@_0EJ@CCBIJPFD@c?3?2users?2nhv90?2projects?2eech?2ap@
  01465	a1 00 00 00 00	 mov	 eax, DWORD PTR ?null_entity_pointer_message@@3PBDB ; null_entity_pointer_message
  0146a	50		 push	 eax
  0146b	e8 00 00 00 00	 call	 ?process_assert@@YGXPBD0H@Z ; process_assert
  01470	c7 45 94 00 00
	00 00		 mov	 DWORD PTR tv912[ebp], 0
$LN172@amalgamate:
  01477	b9 01 00 00 00	 mov	 ecx, 1
  0147c	85 c9		 test	 ecx, ecx
  0147e	74 09		 je	 SHORT $LN173@amalgamate
  01480	c7 45 90 19 00
	00 00		 mov	 DWORD PTR tv920[ebp], 25 ; 00000019H
  01487	eb 24		 jmp	 SHORT $LN174@amalgamate
$LN173@amalgamate:
  01489	8b 15 00 00 00
	00		 mov	 edx, DWORD PTR ?__LINE__Var@?0??amalgamate_groups@@YGHPAUENTITY@@0@Z@4JA
  0148f	81 c2 91 00 00
	00		 add	 edx, 145		; 00000091H
  01495	52		 push	 edx
  01496	68 00 00 00 00	 push	 OFFSET ??_C@_0EJ@CCBIJPFD@c?3?2users?2nhv90?2projects?2eech?2ap@
  0149b	a1 00 00 00 00	 mov	 eax, DWORD PTR ?overload_invalid_list_type_message@@3PBDB ; overload_invalid_list_type_message
  014a0	50		 push	 eax
  014a1	e8 00 00 00 00	 call	 ?process_assert@@YGXPBD0H@Z ; process_assert
  014a6	c7 45 90 00 00
	00 00		 mov	 DWORD PTR tv920[ebp], 0
$LN174@amalgamate:
  014ad	6a 19		 push	 25			; 00000019H
  014af	8b 4d f8	 mov	 ecx, DWORD PTR _member$[ebp]
  014b2	51		 push	 ecx
  014b3	69 55 94 b4 00
	00 00		 imul	 edx, DWORD PTR tv912[ebp], 180
  014ba	8b 45 90	 mov	 eax, DWORD PTR tv920[ebp]
  014bd	8b 8c 82 00 00
	00 00		 mov	 ecx, DWORD PTR ?fn_get_local_entity_child_succ@@3PAY0CN@P6GPAUENTITY@@PAU1@W4LIST_TYPES@@@ZA[edx+eax*4]
  014c4	ff d1		 call	 ecx
  014c6	89 45 f8	 mov	 DWORD PTR _member$[ebp], eax
$LN8@amalgamate:

; 528  : 
; 529  : 			while (member)

  014c9	83 7d f8 00	 cmp	 DWORD PTR _member$[ebp], 0
  014cd	0f 84 a6 04 00
	00		 je	 $LN9@amalgamate

; 530  : 			{
; 531  : 	
; 532  : 				test_pos = get_local_entity_vec3d_ptr (member, VEC3D_TYPE_POSITION);

  014d3	83 7d f8 00	 cmp	 DWORD PTR _member$[ebp], 0
  014d7	74 0a		 je	 SHORT $LN175@amalgamate
  014d9	8b 45 f8	 mov	 eax, DWORD PTR _member$[ebp]
  014dc	8b 08		 mov	 ecx, DWORD PTR [eax]
  014de	89 4d 94	 mov	 DWORD PTR tv933[ebp], ecx
  014e1	eb 24		 jmp	 SHORT $LN176@amalgamate
$LN175@amalgamate:
  014e3	8b 15 00 00 00
	00		 mov	 edx, DWORD PTR ?__LINE__Var@?0??amalgamate_groups@@YGHPAUENTITY@@0@Z@4JA
  014e9	81 c2 96 00 00
	00		 add	 edx, 150		; 00000096H
  014ef	52		 push	 edx
  014f0	68 00 00 00 00	 push	 OFFSET ??_C@_0EJ@CCBIJPFD@c?3?2users?2nhv90?2projects?2eech?2ap@
  014f5	a1 00 00 00 00	 mov	 eax, DWORD PTR ?null_entity_pointer_message@@3PBDB ; null_entity_pointer_message
  014fa	50		 push	 eax
  014fb	e8 00 00 00 00	 call	 ?process_assert@@YGXPBD0H@Z ; process_assert
  01500	c7 45 94 00 00
	00 00		 mov	 DWORD PTR tv933[ebp], 0
$LN176@amalgamate:
  01507	b9 01 00 00 00	 mov	 ecx, 1
  0150c	85 c9		 test	 ecx, ecx
  0150e	74 09		 je	 SHORT $LN177@amalgamate
  01510	c7 45 90 08 00
	00 00		 mov	 DWORD PTR tv941[ebp], 8
  01517	eb 24		 jmp	 SHORT $LN178@amalgamate
$LN177@amalgamate:
  01519	8b 15 00 00 00
	00		 mov	 edx, DWORD PTR ?__LINE__Var@?0??amalgamate_groups@@YGHPAUENTITY@@0@Z@4JA
  0151f	81 c2 96 00 00
	00		 add	 edx, 150		; 00000096H
  01525	52		 push	 edx
  01526	68 00 00 00 00	 push	 OFFSET ??_C@_0EJ@CCBIJPFD@c?3?2users?2nhv90?2projects?2eech?2ap@
  0152b	a1 00 00 00 00	 mov	 eax, DWORD PTR ?overload_invalid_vec3d_type_message@@3PBDB ; overload_invalid_vec3d_type_message
  01530	50		 push	 eax
  01531	e8 00 00 00 00	 call	 ?process_assert@@YGXPBD0H@Z ; process_assert
  01536	c7 45 90 00 00
	00 00		 mov	 DWORD PTR tv941[ebp], 0
$LN178@amalgamate:
  0153d	6a 08		 push	 8
  0153f	8b 4d f8	 mov	 ecx, DWORD PTR _member$[ebp]
  01542	51		 push	 ecx
  01543	6b 55 94 60	 imul	 edx, DWORD PTR tv933[ebp], 96
  01547	8b 45 90	 mov	 eax, DWORD PTR tv941[ebp]
  0154a	8b 8c 82 00 00
	00 00		 mov	 ecx, DWORD PTR ?fn_get_local_entity_vec3d_ptr@@3PAY0BI@P6GPAUVEC3D@@PAUENTITY@@W4VEC3D_TYPES@@@ZA[edx+eax*4]
  01551	ff d1		 call	 ecx
  01553	89 45 dc	 mov	 DWORD PTR _test_pos$2[ebp], eax

; 533  : 
; 534  : 				if (get_2d_range (pos1, test_pos) > amalgamate_max_range)

  01556	8b 45 dc	 mov	 eax, DWORD PTR _test_pos$2[ebp]
  01559	50		 push	 eax
  0155a	8b 4d e0	 mov	 ecx, DWORD PTR _pos1$3[ebp]
  0155d	51		 push	 ecx
  0155e	e8 00 00 00 00	 call	 ?get_2d_range@@YGMPBUVEC3D@@0@Z ; get_2d_range
  01563	d9 5d 94	 fstp	 DWORD PTR tv1546[ebp]
  01566	f3 0f 10 45 94	 movss	 xmm0, DWORD PTR tv1546[ebp]
  0156b	0f 2f 45 d8	 comiss	 xmm0, DWORD PTR _amalgamate_max_range$1[ebp]
  0156f	0f 86 79 03 00
	00		 jbe	 $LN25@amalgamate

; 535  : 				{
; 536  : 
; 537  : 					debug_log ("GROUP: WARNING: Amalgamated group with members (%s (%d) and %s (%d)) %f apart -------------------------",

  01575	83 7d f8 00	 cmp	 DWORD PTR _member$[ebp], 0
  01579	74 0a		 je	 SHORT $LN179@amalgamate
  0157b	8b 45 f8	 mov	 eax, DWORD PTR _member$[ebp]
  0157e	8b 08		 mov	 ecx, DWORD PTR [eax]
  01580	89 4d 94	 mov	 DWORD PTR tv965[ebp], ecx
  01583	eb 24		 jmp	 SHORT $LN180@amalgamate
$LN179@amalgamate:
  01585	8b 15 00 00 00
	00		 mov	 edx, DWORD PTR ?__LINE__Var@?0??amalgamate_groups@@YGHPAUENTITY@@0@Z@4JA
  0158b	81 c2 9e 00 00
	00		 add	 edx, 158		; 0000009eH
  01591	52		 push	 edx
  01592	68 00 00 00 00	 push	 OFFSET ??_C@_0EJ@CCBIJPFD@c?3?2users?2nhv90?2projects?2eech?2ap@
  01597	a1 00 00 00 00	 mov	 eax, DWORD PTR ?null_entity_pointer_message@@3PBDB ; null_entity_pointer_message
  0159c	50		 push	 eax
  0159d	e8 00 00 00 00	 call	 ?process_assert@@YGXPBD0H@Z ; process_assert
  015a2	c7 45 94 00 00
	00 00		 mov	 DWORD PTR tv965[ebp], 0
$LN180@amalgamate:
  015a9	b9 01 00 00 00	 mov	 ecx, 1
  015ae	85 c9		 test	 ecx, ecx
  015b0	74 09		 je	 SHORT $LN181@amalgamate
  015b2	c7 45 90 03 00
	00 00		 mov	 DWORD PTR tv973[ebp], 3
  015b9	eb 24		 jmp	 SHORT $LN182@amalgamate
$LN181@amalgamate:
  015bb	8b 15 00 00 00
	00		 mov	 edx, DWORD PTR ?__LINE__Var@?0??amalgamate_groups@@YGHPAUENTITY@@0@Z@4JA
  015c1	81 c2 9e 00 00
	00		 add	 edx, 158		; 0000009eH
  015c7	52		 push	 edx
  015c8	68 00 00 00 00	 push	 OFFSET ??_C@_0EJ@CCBIJPFD@c?3?2users?2nhv90?2projects?2eech?2ap@
  015cd	a1 00 00 00 00	 mov	 eax, DWORD PTR ?overload_invalid_string_type_message@@3PBDB ; overload_invalid_string_type_message
  015d2	50		 push	 eax
  015d3	e8 00 00 00 00	 call	 ?process_assert@@YGXPBD0H@Z ; process_assert
  015d8	c7 45 90 00 00
	00 00		 mov	 DWORD PTR tv973[ebp], 0
$LN182@amalgamate:
  015df	83 7d 08 00	 cmp	 DWORD PTR _receiving_group$[ebp], 0
  015e3	74 0a		 je	 SHORT $LN183@amalgamate
  015e5	8b 4d 08	 mov	 ecx, DWORD PTR _receiving_group$[ebp]
  015e8	8b 11		 mov	 edx, DWORD PTR [ecx]
  015ea	89 55 8c	 mov	 DWORD PTR tv986[ebp], edx
  015ed	eb 23		 jmp	 SHORT $LN184@amalgamate
$LN183@amalgamate:
  015ef	a1 00 00 00 00	 mov	 eax, DWORD PTR ?__LINE__Var@?0??amalgamate_groups@@YGHPAUENTITY@@0@Z@4JA
  015f4	05 9d 00 00 00	 add	 eax, 157		; 0000009dH
  015f9	50		 push	 eax
  015fa	68 00 00 00 00	 push	 OFFSET ??_C@_0EJ@CCBIJPFD@c?3?2users?2nhv90?2projects?2eech?2ap@
  015ff	8b 0d 00 00 00
	00		 mov	 ecx, DWORD PTR ?null_entity_pointer_message@@3PBDB ; null_entity_pointer_message
  01605	51		 push	 ecx
  01606	e8 00 00 00 00	 call	 ?process_assert@@YGXPBD0H@Z ; process_assert
  0160b	c7 45 8c 00 00
	00 00		 mov	 DWORD PTR tv986[ebp], 0
$LN184@amalgamate:
  01612	ba 01 00 00 00	 mov	 edx, 1
  01617	85 d2		 test	 edx, edx
  01619	74 09		 je	 SHORT $LN185@amalgamate
  0161b	c7 45 88 19 00
	00 00		 mov	 DWORD PTR tv994[ebp], 25 ; 00000019H
  01622	eb 23		 jmp	 SHORT $LN186@amalgamate
$LN185@amalgamate:
  01624	a1 00 00 00 00	 mov	 eax, DWORD PTR ?__LINE__Var@?0??amalgamate_groups@@YGHPAUENTITY@@0@Z@4JA
  01629	05 9d 00 00 00	 add	 eax, 157		; 0000009dH
  0162e	50		 push	 eax
  0162f	68 00 00 00 00	 push	 OFFSET ??_C@_0EJ@CCBIJPFD@c?3?2users?2nhv90?2projects?2eech?2ap@
  01634	8b 0d 00 00 00
	00		 mov	 ecx, DWORD PTR ?overload_invalid_list_type_message@@3PBDB ; overload_invalid_list_type_message
  0163a	51		 push	 ecx
  0163b	e8 00 00 00 00	 call	 ?process_assert@@YGXPBD0H@Z ; process_assert
  01640	c7 45 88 00 00
	00 00		 mov	 DWORD PTR tv994[ebp], 0
$LN186@amalgamate:
  01647	83 7d 08 00	 cmp	 DWORD PTR _receiving_group$[ebp], 0
  0164b	74 0a		 je	 SHORT $LN199@amalgamate
  0164d	8b 55 08	 mov	 edx, DWORD PTR _receiving_group$[ebp]
  01650	8b 02		 mov	 eax, DWORD PTR [edx]
  01652	89 45 84	 mov	 DWORD PTR tv1068[ebp], eax
  01655	eb 25		 jmp	 SHORT $LN200@amalgamate
$LN199@amalgamate:
  01657	8b 0d 00 00 00
	00		 mov	 ecx, DWORD PTR ?__LINE__Var@?0??amalgamate_groups@@YGHPAUENTITY@@0@Z@4JA
  0165d	81 c1 9c 00 00
	00		 add	 ecx, 156		; 0000009cH
  01663	51		 push	 ecx
  01664	68 00 00 00 00	 push	 OFFSET ??_C@_0EJ@CCBIJPFD@c?3?2users?2nhv90?2projects?2eech?2ap@
  01669	8b 15 00 00 00
	00		 mov	 edx, DWORD PTR ?null_entity_pointer_message@@3PBDB ; null_entity_pointer_message
  0166f	52		 push	 edx
  01670	e8 00 00 00 00	 call	 ?process_assert@@YGXPBD0H@Z ; process_assert
  01675	c7 45 84 00 00
	00 00		 mov	 DWORD PTR tv1068[ebp], 0
$LN200@amalgamate:
  0167c	b8 01 00 00 00	 mov	 eax, 1
  01681	85 c0		 test	 eax, eax
  01683	74 09		 je	 SHORT $LN201@amalgamate
  01685	c7 45 80 19 00
	00 00		 mov	 DWORD PTR tv1076[ebp], 25 ; 00000019H
  0168c	eb 25		 jmp	 SHORT $LN202@amalgamate
$LN201@amalgamate:
  0168e	8b 0d 00 00 00
	00		 mov	 ecx, DWORD PTR ?__LINE__Var@?0??amalgamate_groups@@YGHPAUENTITY@@0@Z@4JA
  01694	81 c1 9c 00 00
	00		 add	 ecx, 156		; 0000009cH
  0169a	51		 push	 ecx
  0169b	68 00 00 00 00	 push	 OFFSET ??_C@_0EJ@CCBIJPFD@c?3?2users?2nhv90?2projects?2eech?2ap@
  016a0	8b 15 00 00 00
	00		 mov	 edx, DWORD PTR ?overload_invalid_list_type_message@@3PBDB ; overload_invalid_list_type_message
  016a6	52		 push	 edx
  016a7	e8 00 00 00 00	 call	 ?process_assert@@YGXPBD0H@Z ; process_assert
  016ac	c7 45 80 00 00
	00 00		 mov	 DWORD PTR tv1076[ebp], 0
$LN202@amalgamate:
  016b3	83 7d 08 00	 cmp	 DWORD PTR _receiving_group$[ebp], 0
  016b7	74 0d		 je	 SHORT $LN187@amalgamate
  016b9	8b 45 08	 mov	 eax, DWORD PTR _receiving_group$[ebp]
  016bc	8b 08		 mov	 ecx, DWORD PTR [eax]
  016be	89 8d 7c ff ff
	ff		 mov	 DWORD PTR tv1009[ebp], ecx
  016c4	eb 27		 jmp	 SHORT $LN188@amalgamate
$LN187@amalgamate:
  016c6	8b 15 00 00 00
	00		 mov	 edx, DWORD PTR ?__LINE__Var@?0??amalgamate_groups@@YGHPAUENTITY@@0@Z@4JA
  016cc	81 c2 9c 00 00
	00		 add	 edx, 156		; 0000009cH
  016d2	52		 push	 edx
  016d3	68 00 00 00 00	 push	 OFFSET ??_C@_0EJ@CCBIJPFD@c?3?2users?2nhv90?2projects?2eech?2ap@
  016d8	a1 00 00 00 00	 mov	 eax, DWORD PTR ?null_entity_pointer_message@@3PBDB ; null_entity_pointer_message
  016dd	50		 push	 eax
  016de	e8 00 00 00 00	 call	 ?process_assert@@YGXPBD0H@Z ; process_assert
  016e3	c7 85 7c ff ff
	ff 00 00 00 00	 mov	 DWORD PTR tv1009[ebp], 0
$LN188@amalgamate:
  016ed	b9 01 00 00 00	 mov	 ecx, 1
  016f2	85 c9		 test	 ecx, ecx
  016f4	74 0c		 je	 SHORT $LN189@amalgamate
  016f6	c7 85 78 ff ff
	ff 19 00 00 00	 mov	 DWORD PTR tv1017[ebp], 25 ; 00000019H
  01700	eb 27		 jmp	 SHORT $LN190@amalgamate
$LN189@amalgamate:
  01702	8b 15 00 00 00
	00		 mov	 edx, DWORD PTR ?__LINE__Var@?0??amalgamate_groups@@YGHPAUENTITY@@0@Z@4JA
  01708	81 c2 9c 00 00
	00		 add	 edx, 156		; 0000009cH
  0170e	52		 push	 edx
  0170f	68 00 00 00 00	 push	 OFFSET ??_C@_0EJ@CCBIJPFD@c?3?2users?2nhv90?2projects?2eech?2ap@
  01714	a1 00 00 00 00	 mov	 eax, DWORD PTR ?overload_invalid_list_type_message@@3PBDB ; overload_invalid_list_type_message
  01719	50		 push	 eax
  0171a	e8 00 00 00 00	 call	 ?process_assert@@YGXPBD0H@Z ; process_assert
  0171f	c7 85 78 ff ff
	ff 00 00 00 00	 mov	 DWORD PTR tv1017[ebp], 0
$LN190@amalgamate:
  01729	6a 19		 push	 25			; 00000019H
  0172b	8b 4d 08	 mov	 ecx, DWORD PTR _receiving_group$[ebp]
  0172e	51		 push	 ecx
  0172f	69 95 7c ff ff
	ff b4 00 00 00	 imul	 edx, DWORD PTR tv1009[ebp], 180
  01739	8b 85 78 ff ff
	ff		 mov	 eax, DWORD PTR tv1017[ebp]
  0173f	8b 8c 82 00 00
	00 00		 mov	 ecx, DWORD PTR ?fn_get_local_entity_first_child@@3PAY0CN@P6GPAUENTITY@@PAU1@W4LIST_TYPES@@@ZA[edx+eax*4]
  01746	ff d1		 call	 ecx
  01748	85 c0		 test	 eax, eax
  0174a	0f 84 a1 00 00
	00		 je	 $LN195@amalgamate
  01750	83 7d 08 00	 cmp	 DWORD PTR _receiving_group$[ebp], 0
  01754	74 0d		 je	 SHORT $LN191@amalgamate
  01756	8b 55 08	 mov	 edx, DWORD PTR _receiving_group$[ebp]
  01759	8b 02		 mov	 eax, DWORD PTR [edx]
  0175b	89 85 74 ff ff
	ff		 mov	 DWORD PTR tv1029[ebp], eax
  01761	eb 28		 jmp	 SHORT $LN192@amalgamate
$LN191@amalgamate:
  01763	8b 0d 00 00 00
	00		 mov	 ecx, DWORD PTR ?__LINE__Var@?0??amalgamate_groups@@YGHPAUENTITY@@0@Z@4JA
  01769	81 c1 9c 00 00
	00		 add	 ecx, 156		; 0000009cH
  0176f	51		 push	 ecx
  01770	68 00 00 00 00	 push	 OFFSET ??_C@_0EJ@CCBIJPFD@c?3?2users?2nhv90?2projects?2eech?2ap@
  01775	8b 15 00 00 00
	00		 mov	 edx, DWORD PTR ?null_entity_pointer_message@@3PBDB ; null_entity_pointer_message
  0177b	52		 push	 edx
  0177c	e8 00 00 00 00	 call	 ?process_assert@@YGXPBD0H@Z ; process_assert
  01781	c7 85 74 ff ff
	ff 00 00 00 00	 mov	 DWORD PTR tv1029[ebp], 0
$LN192@amalgamate:
  0178b	b8 01 00 00 00	 mov	 eax, 1
  01790	85 c0		 test	 eax, eax
  01792	74 0c		 je	 SHORT $LN193@amalgamate
  01794	c7 85 70 ff ff
	ff 19 00 00 00	 mov	 DWORD PTR tv1037[ebp], 25 ; 00000019H
  0179e	eb 28		 jmp	 SHORT $LN194@amalgamate
$LN193@amalgamate:
  017a0	8b 0d 00 00 00
	00		 mov	 ecx, DWORD PTR ?__LINE__Var@?0??amalgamate_groups@@YGHPAUENTITY@@0@Z@4JA
  017a6	81 c1 9c 00 00
	00		 add	 ecx, 156		; 0000009cH
  017ac	51		 push	 ecx
  017ad	68 00 00 00 00	 push	 OFFSET ??_C@_0EJ@CCBIJPFD@c?3?2users?2nhv90?2projects?2eech?2ap@
  017b2	8b 15 00 00 00
	00		 mov	 edx, DWORD PTR ?overload_invalid_list_type_message@@3PBDB ; overload_invalid_list_type_message
  017b8	52		 push	 edx
  017b9	e8 00 00 00 00	 call	 ?process_assert@@YGXPBD0H@Z ; process_assert
  017be	c7 85 70 ff ff
	ff 00 00 00 00	 mov	 DWORD PTR tv1037[ebp], 0
$LN194@amalgamate:
  017c8	6a 19		 push	 25			; 00000019H
  017ca	8b 45 08	 mov	 eax, DWORD PTR _receiving_group$[ebp]
  017cd	50		 push	 eax
  017ce	69 8d 74 ff ff
	ff b4 00 00 00	 imul	 ecx, DWORD PTR tv1029[ebp], 180
  017d8	8b 95 70 ff ff
	ff		 mov	 edx, DWORD PTR tv1037[ebp]
  017de	8b 84 91 00 00
	00 00		 mov	 eax, DWORD PTR ?fn_get_local_entity_first_child@@3PAY0CN@P6GPAUENTITY@@PAU1@W4LIST_TYPES@@@ZA[ecx+edx*4]
  017e5	ff d0		 call	 eax
  017e7	8b 08		 mov	 ecx, DWORD PTR [eax]
  017e9	89 8d 6c ff ff
	ff		 mov	 DWORD PTR tv1049[ebp], ecx
  017ef	eb 27		 jmp	 SHORT $LN196@amalgamate
$LN195@amalgamate:
  017f1	8b 15 00 00 00
	00		 mov	 edx, DWORD PTR ?__LINE__Var@?0??amalgamate_groups@@YGHPAUENTITY@@0@Z@4JA
  017f7	81 c2 9c 00 00
	00		 add	 edx, 156		; 0000009cH
  017fd	52		 push	 edx
  017fe	68 00 00 00 00	 push	 OFFSET ??_C@_0EJ@CCBIJPFD@c?3?2users?2nhv90?2projects?2eech?2ap@
  01803	a1 00 00 00 00	 mov	 eax, DWORD PTR ?null_entity_pointer_message@@3PBDB ; null_entity_pointer_message
  01808	50		 push	 eax
  01809	e8 00 00 00 00	 call	 ?process_assert@@YGXPBD0H@Z ; process_assert
  0180e	c7 85 6c ff ff
	ff 00 00 00 00	 mov	 DWORD PTR tv1049[ebp], 0
$LN196@amalgamate:
  01818	b9 01 00 00 00	 mov	 ecx, 1
  0181d	85 c9		 test	 ecx, ecx
  0181f	74 0c		 je	 SHORT $LN197@amalgamate
  01821	c7 85 68 ff ff
	ff 03 00 00 00	 mov	 DWORD PTR tv1057[ebp], 3
  0182b	eb 27		 jmp	 SHORT $LN198@amalgamate
$LN197@amalgamate:
  0182d	8b 15 00 00 00
	00		 mov	 edx, DWORD PTR ?__LINE__Var@?0??amalgamate_groups@@YGHPAUENTITY@@0@Z@4JA
  01833	81 c2 9c 00 00
	00		 add	 edx, 156		; 0000009cH
  01839	52		 push	 edx
  0183a	68 00 00 00 00	 push	 OFFSET ??_C@_0EJ@CCBIJPFD@c?3?2users?2nhv90?2projects?2eech?2ap@
  0183f	a1 00 00 00 00	 mov	 eax, DWORD PTR ?overload_invalid_string_type_message@@3PBDB ; overload_invalid_string_type_message
  01844	50		 push	 eax
  01845	e8 00 00 00 00	 call	 ?process_assert@@YGXPBD0H@Z ; process_assert
  0184a	c7 85 68 ff ff
	ff 00 00 00 00	 mov	 DWORD PTR tv1057[ebp], 0
$LN198@amalgamate:
  01854	8b 4d dc	 mov	 ecx, DWORD PTR _test_pos$2[ebp]
  01857	51		 push	 ecx
  01858	8b 55 e0	 mov	 edx, DWORD PTR _pos1$3[ebp]
  0185b	52		 push	 edx
  0185c	e8 00 00 00 00	 call	 ?get_2d_range@@YGMPBUVEC3D@@0@Z ; get_2d_range
  01861	83 ec 08	 sub	 esp, 8
  01864	dd 1c 24	 fstp	 QWORD PTR [esp]
  01867	8b 45 f8	 mov	 eax, DWORD PTR _member$[ebp]
  0186a	2b 05 00 00 00
	00		 sub	 eax, DWORD PTR ?entities@@3PAUENTITY@@A ; entities
  01870	c1 f8 04	 sar	 eax, 4
  01873	50		 push	 eax
  01874	6a 03		 push	 3
  01876	8b 4d f8	 mov	 ecx, DWORD PTR _member$[ebp]
  01879	51		 push	 ecx
  0187a	6b 55 94 34	 imul	 edx, DWORD PTR tv965[ebp], 52
  0187e	8b 45 90	 mov	 eax, DWORD PTR tv973[ebp]
  01881	8b 8c 82 00 00
	00 00		 mov	 ecx, DWORD PTR ?fn_get_local_entity_string@@3PAY0N@P6GPBDPAUENTITY@@W4STRING_TYPES@@@ZA[edx+eax*4]
  01888	ff d1		 call	 ecx
  0188a	50		 push	 eax
  0188b	6a 19		 push	 25			; 00000019H
  0188d	8b 55 08	 mov	 edx, DWORD PTR _receiving_group$[ebp]
  01890	52		 push	 edx
  01891	69 45 8c b4 00
	00 00		 imul	 eax, DWORD PTR tv986[ebp], 180
  01898	8b 4d 88	 mov	 ecx, DWORD PTR tv994[ebp]
  0189b	8b 94 88 00 00
	00 00		 mov	 edx, DWORD PTR ?fn_get_local_entity_first_child@@3PAY0CN@P6GPAUENTITY@@PAU1@W4LIST_TYPES@@@ZA[eax+ecx*4]
  018a2	ff d2		 call	 edx
  018a4	2b 05 00 00 00
	00		 sub	 eax, DWORD PTR ?entities@@3PAUENTITY@@A ; entities
  018aa	c1 f8 04	 sar	 eax, 4
  018ad	50		 push	 eax
  018ae	6a 03		 push	 3
  018b0	6a 19		 push	 25			; 00000019H
  018b2	8b 45 08	 mov	 eax, DWORD PTR _receiving_group$[ebp]
  018b5	50		 push	 eax
  018b6	69 4d 84 b4 00
	00 00		 imul	 ecx, DWORD PTR tv1068[ebp], 180
  018bd	8b 55 80	 mov	 edx, DWORD PTR tv1076[ebp]
  018c0	8b 84 91 00 00
	00 00		 mov	 eax, DWORD PTR ?fn_get_local_entity_first_child@@3PAY0CN@P6GPAUENTITY@@PAU1@W4LIST_TYPES@@@ZA[ecx+edx*4]
  018c7	ff d0		 call	 eax
  018c9	50		 push	 eax
  018ca	6b 8d 6c ff ff
	ff 34		 imul	 ecx, DWORD PTR tv1049[ebp], 52
  018d1	8b 95 68 ff ff
	ff		 mov	 edx, DWORD PTR tv1057[ebp]
  018d7	8b 84 91 00 00
	00 00		 mov	 eax, DWORD PTR ?fn_get_local_entity_string@@3PAY0N@P6GPBDPAUENTITY@@W4STRING_TYPES@@@ZA[ecx+edx*4]
  018de	ff d0		 call	 eax
  018e0	50		 push	 eax
  018e1	68 00 00 00 00	 push	 OFFSET ??_C@_0GI@GKFOJJGK@GROUP?3?5WARNING?3?5Amalgamated?5gro@
  018e6	e8 00 00 00 00	 call	 ?debug_log@@YAXPBDZZ	; debug_log
  018eb	83 c4 1c	 add	 esp, 28			; 0000001cH
$LN25@amalgamate:

; 538  : 									get_local_entity_string (get_local_entity_first_child (receiving_group, LIST_TYPE_MEMBER), STRING_TYPE_FULL_NAME),
; 539  : 									get_local_entity_index (get_local_entity_first_child (receiving_group, LIST_TYPE_MEMBER)),
; 540  : 									get_local_entity_string (member, STRING_TYPE_FULL_NAME),
; 541  : 									get_local_entity_index (member),
; 542  : 									get_2d_range (pos1, test_pos));
; 543  : 				}
; 544  : 
; 545  : 				member = get_local_entity_child_succ (member, LIST_TYPE_MEMBER);

  018ee	83 7d f8 00	 cmp	 DWORD PTR _member$[ebp], 0
  018f2	74 0a		 je	 SHORT $LN203@amalgamate
  018f4	8b 45 f8	 mov	 eax, DWORD PTR _member$[ebp]
  018f7	8b 08		 mov	 ecx, DWORD PTR [eax]
  018f9	89 4d 94	 mov	 DWORD PTR tv1091[ebp], ecx
  018fc	eb 24		 jmp	 SHORT $LN204@amalgamate
$LN203@amalgamate:
  018fe	8b 15 00 00 00
	00		 mov	 edx, DWORD PTR ?__LINE__Var@?0??amalgamate_groups@@YGHPAUENTITY@@0@Z@4JA
  01904	81 c2 a3 00 00
	00		 add	 edx, 163		; 000000a3H
  0190a	52		 push	 edx
  0190b	68 00 00 00 00	 push	 OFFSET ??_C@_0EJ@CCBIJPFD@c?3?2users?2nhv90?2projects?2eech?2ap@
  01910	a1 00 00 00 00	 mov	 eax, DWORD PTR ?null_entity_pointer_message@@3PBDB ; null_entity_pointer_message
  01915	50		 push	 eax
  01916	e8 00 00 00 00	 call	 ?process_assert@@YGXPBD0H@Z ; process_assert
  0191b	c7 45 94 00 00
	00 00		 mov	 DWORD PTR tv1091[ebp], 0
$LN204@amalgamate:
  01922	b9 01 00 00 00	 mov	 ecx, 1
  01927	85 c9		 test	 ecx, ecx
  01929	74 09		 je	 SHORT $LN205@amalgamate
  0192b	c7 45 90 19 00
	00 00		 mov	 DWORD PTR tv1099[ebp], 25 ; 00000019H
  01932	eb 24		 jmp	 SHORT $LN206@amalgamate
$LN205@amalgamate:
  01934	8b 15 00 00 00
	00		 mov	 edx, DWORD PTR ?__LINE__Var@?0??amalgamate_groups@@YGHPAUENTITY@@0@Z@4JA
  0193a	81 c2 a3 00 00
	00		 add	 edx, 163		; 000000a3H
  01940	52		 push	 edx
  01941	68 00 00 00 00	 push	 OFFSET ??_C@_0EJ@CCBIJPFD@c?3?2users?2nhv90?2projects?2eech?2ap@
  01946	a1 00 00 00 00	 mov	 eax, DWORD PTR ?overload_invalid_list_type_message@@3PBDB ; overload_invalid_list_type_message
  0194b	50		 push	 eax
  0194c	e8 00 00 00 00	 call	 ?process_assert@@YGXPBD0H@Z ; process_assert
  01951	c7 45 90 00 00
	00 00		 mov	 DWORD PTR tv1099[ebp], 0
$LN206@amalgamate:
  01958	6a 19		 push	 25			; 00000019H
  0195a	8b 4d f8	 mov	 ecx, DWORD PTR _member$[ebp]
  0195d	51		 push	 ecx
  0195e	69 55 94 b4 00
	00 00		 imul	 edx, DWORD PTR tv1091[ebp], 180
  01965	8b 45 90	 mov	 eax, DWORD PTR tv1099[ebp]
  01968	8b 8c 82 00 00
	00 00		 mov	 ecx, DWORD PTR ?fn_get_local_entity_child_succ@@3PAY0CN@P6GPAUENTITY@@PAU1@W4LIST_TYPES@@@ZA[edx+eax*4]
  0196f	ff d1		 call	 ecx
  01971	89 45 f8	 mov	 DWORD PTR _member$[ebp], eax

; 546  : 			}

  01974	e9 50 fb ff ff	 jmp	 $LN8@amalgamate
$LN9@amalgamate:

; 547  : 	
; 548  : 		}
; 549  : 		#endif
; 550  : 
; 551  : 		return TRUE;

  01979	b8 01 00 00 00	 mov	 eax, 1
  0197e	eb 02		 jmp	 SHORT $LN1@amalgamate
$LN16@amalgamate:

; 552  : 	}
; 553  : 
; 554  : 	return FALSE;

  01980	33 c0		 xor	 eax, eax
$LN1@amalgamate:

; 555  : }

  01982	5f		 pop	 edi
  01983	5e		 pop	 esi
  01984	5b		 pop	 ebx
  01985	8b e5		 mov	 esp, ebp
  01987	5d		 pop	 ebp
  01988	c2 08 00	 ret	 8
?amalgamate_groups@@YGHPAUENTITY@@0@Z ENDP		; amalgamate_groups
_TEXT	ENDS
; Function compile flags: /Odtp /ZI
; File c:\users\nhv90\projects\eech\aphavoc\source\entity\special\group\group.c
;	COMDAT ?get_group_at_road_node@@YGPAUENTITY@@H@Z
_TEXT	SEGMENT
tv210 = -80						; size = 4
tv190 = -80						; size = 4
tv169 = -80						; size = 4
tv150 = -80						; size = 4
tv131 = -80						; size = 4
tv78 = -80						; size = 4
tv202 = -76						; size = 4
tv182 = -76						; size = 4
tv162 = -76						; size = 4
tv143 = -76						; size = 4
tv91 = -76						; size = 4
tv70 = -76						; size = 4
_group$ = -8						; size = 4
_force$ = -4						; size = 4
_node$ = 8						; size = 4
?get_group_at_road_node@@YGPAUENTITY@@H@Z PROC		; get_group_at_road_node, COMDAT

; 343  : {

  00000	55		 push	 ebp
  00001	8b ec		 mov	 ebp, esp
  00003	83 ec 50	 sub	 esp, 80			; 00000050H
  00006	53		 push	 ebx
  00007	56		 push	 esi
  00008	57		 push	 edi

; 344  : 	entity
; 345  : 		*force,
; 346  : 		*group;
; 347  : 
; 348  : 	force = get_local_entity_first_child (get_session_entity (), LIST_TYPE_FORCE);

  00009	83 3d 00 00 00
	00 00		 cmp	 DWORD PTR ?session_entity@@3PAUENTITY@@A, 0 ; session_entity
  00010	74 0c		 je	 SHORT $LN8@get_group_
  00012	a1 00 00 00 00	 mov	 eax, DWORD PTR ?session_entity@@3PAUENTITY@@A ; session_entity
  00017	8b 08		 mov	 ecx, DWORD PTR [eax]
  00019	89 4d b4	 mov	 DWORD PTR tv70[ebp], ecx
  0001c	eb 21		 jmp	 SHORT $LN9@get_group_
$LN8@get_group_:
  0001e	8b 15 00 00 00
	00		 mov	 edx, DWORD PTR ?__LINE__Var@?0??get_group_at_road_node@@YGPAUENTITY@@H@Z@4JA
  00024	83 c2 05	 add	 edx, 5
  00027	52		 push	 edx
  00028	68 00 00 00 00	 push	 OFFSET ??_C@_0EJ@CCBIJPFD@c?3?2users?2nhv90?2projects?2eech?2ap@
  0002d	a1 00 00 00 00	 mov	 eax, DWORD PTR ?null_entity_pointer_message@@3PBDB ; null_entity_pointer_message
  00032	50		 push	 eax
  00033	e8 00 00 00 00	 call	 ?process_assert@@YGXPBD0H@Z ; process_assert
  00038	c7 45 b4 00 00
	00 00		 mov	 DWORD PTR tv70[ebp], 0
$LN9@get_group_:
  0003f	b9 01 00 00 00	 mov	 ecx, 1
  00044	85 c9		 test	 ecx, ecx
  00046	74 09		 je	 SHORT $LN10@get_group_
  00048	c7 45 b0 0e 00
	00 00		 mov	 DWORD PTR tv78[ebp], 14	; 0000000eH
  0004f	eb 21		 jmp	 SHORT $LN11@get_group_
$LN10@get_group_:
  00051	8b 15 00 00 00
	00		 mov	 edx, DWORD PTR ?__LINE__Var@?0??get_group_at_road_node@@YGPAUENTITY@@H@Z@4JA
  00057	83 c2 05	 add	 edx, 5
  0005a	52		 push	 edx
  0005b	68 00 00 00 00	 push	 OFFSET ??_C@_0EJ@CCBIJPFD@c?3?2users?2nhv90?2projects?2eech?2ap@
  00060	a1 00 00 00 00	 mov	 eax, DWORD PTR ?overload_invalid_list_type_message@@3PBDB ; overload_invalid_list_type_message
  00065	50		 push	 eax
  00066	e8 00 00 00 00	 call	 ?process_assert@@YGXPBD0H@Z ; process_assert
  0006b	c7 45 b0 00 00
	00 00		 mov	 DWORD PTR tv78[ebp], 0
$LN11@get_group_:
  00072	6a 0e		 push	 14			; 0000000eH
  00074	8b 0d 00 00 00
	00		 mov	 ecx, DWORD PTR ?session_entity@@3PAUENTITY@@A ; session_entity
  0007a	51		 push	 ecx
  0007b	69 55 b4 b4 00
	00 00		 imul	 edx, DWORD PTR tv70[ebp], 180
  00082	8b 45 b0	 mov	 eax, DWORD PTR tv78[ebp]
  00085	8b 8c 82 00 00
	00 00		 mov	 ecx, DWORD PTR ?fn_get_local_entity_first_child@@3PAY0CN@P6GPAUENTITY@@PAU1@W4LIST_TYPES@@@ZA[edx+eax*4]
  0008c	ff d1		 call	 ecx
  0008e	89 45 fc	 mov	 DWORD PTR _force$[ebp], eax
$LN2@get_group_:

; 349  : 
; 350  : 	while (force)

  00091	83 7d fc 00	 cmp	 DWORD PTR _force$[ebp], 0
  00095	0f 84 96 02 00
	00		 je	 $LN3@get_group_

; 351  : 	{
; 352  : 		group = get_local_entity_first_child (force, LIST_TYPE_GROUND_REGISTRY);

  0009b	83 7d fc 00	 cmp	 DWORD PTR _force$[ebp], 0
  0009f	74 0a		 je	 SHORT $LN12@get_group_
  000a1	8b 45 fc	 mov	 eax, DWORD PTR _force$[ebp]
  000a4	8b 08		 mov	 ecx, DWORD PTR [eax]
  000a6	89 4d b4	 mov	 DWORD PTR tv91[ebp], ecx
  000a9	eb 21		 jmp	 SHORT $LN13@get_group_
$LN12@get_group_:
  000ab	8b 15 00 00 00
	00		 mov	 edx, DWORD PTR ?__LINE__Var@?0??get_group_at_road_node@@YGPAUENTITY@@H@Z@4JA
  000b1	83 c2 09	 add	 edx, 9
  000b4	52		 push	 edx
  000b5	68 00 00 00 00	 push	 OFFSET ??_C@_0EJ@CCBIJPFD@c?3?2users?2nhv90?2projects?2eech?2ap@
  000ba	a1 00 00 00 00	 mov	 eax, DWORD PTR ?null_entity_pointer_message@@3PBDB ; null_entity_pointer_message
  000bf	50		 push	 eax
  000c0	e8 00 00 00 00	 call	 ?process_assert@@YGXPBD0H@Z ; process_assert
  000c5	c7 45 b4 00 00
	00 00		 mov	 DWORD PTR tv91[ebp], 0
$LN13@get_group_:
  000cc	b9 01 00 00 00	 mov	 ecx, 1
  000d1	85 c9		 test	 ecx, ecx
  000d3	74 09		 je	 SHORT $LN14@get_group_
  000d5	c7 45 b0 0f 00
	00 00		 mov	 DWORD PTR tv131[ebp], 15 ; 0000000fH
  000dc	eb 21		 jmp	 SHORT $LN15@get_group_
$LN14@get_group_:
  000de	8b 15 00 00 00
	00		 mov	 edx, DWORD PTR ?__LINE__Var@?0??get_group_at_road_node@@YGPAUENTITY@@H@Z@4JA
  000e4	83 c2 09	 add	 edx, 9
  000e7	52		 push	 edx
  000e8	68 00 00 00 00	 push	 OFFSET ??_C@_0EJ@CCBIJPFD@c?3?2users?2nhv90?2projects?2eech?2ap@
  000ed	a1 00 00 00 00	 mov	 eax, DWORD PTR ?overload_invalid_list_type_message@@3PBDB ; overload_invalid_list_type_message
  000f2	50		 push	 eax
  000f3	e8 00 00 00 00	 call	 ?process_assert@@YGXPBD0H@Z ; process_assert
  000f8	c7 45 b0 00 00
	00 00		 mov	 DWORD PTR tv131[ebp], 0
$LN15@get_group_:
  000ff	6a 0f		 push	 15			; 0000000fH
  00101	8b 4d fc	 mov	 ecx, DWORD PTR _force$[ebp]
  00104	51		 push	 ecx
  00105	69 55 b4 b4 00
	00 00		 imul	 edx, DWORD PTR tv91[ebp], 180
  0010c	8b 45 b0	 mov	 eax, DWORD PTR tv131[ebp]
  0010f	8b 8c 82 00 00
	00 00		 mov	 ecx, DWORD PTR ?fn_get_local_entity_first_child@@3PAY0CN@P6GPAUENTITY@@PAU1@W4LIST_TYPES@@@ZA[edx+eax*4]
  00116	ff d1		 call	 ecx
  00118	89 45 f8	 mov	 DWORD PTR _group$[ebp], eax
$LN4@get_group_:

; 353  : 
; 354  : 		while (group)

  0011b	83 7d f8 00	 cmp	 DWORD PTR _group$[ebp], 0
  0011f	0f 84 87 01 00
	00		 je	 $LN5@get_group_

; 355  : 		{
; 356  : 			if ((get_local_entity_int_value (group, INT_TYPE_ROUTE_NODE) == node) &&

  00125	83 7d f8 00	 cmp	 DWORD PTR _group$[ebp], 0
  00129	74 0a		 je	 SHORT $LN16@get_group_
  0012b	8b 45 f8	 mov	 eax, DWORD PTR _group$[ebp]
  0012e	8b 08		 mov	 ecx, DWORD PTR [eax]
  00130	89 4d b4	 mov	 DWORD PTR tv143[ebp], ecx
  00133	eb 1d		 jmp	 SHORT $LN17@get_group_
$LN16@get_group_:
  00135	68 64 01 00 00	 push	 356			; 00000164H
  0013a	68 00 00 00 00	 push	 OFFSET ??_C@_0EJ@CCBIJPFD@c?3?2users?2nhv90?2projects?2eech?2ap@
  0013f	8b 15 00 00 00
	00		 mov	 edx, DWORD PTR ?null_entity_pointer_message@@3PBDB ; null_entity_pointer_message
  00145	52		 push	 edx
  00146	e8 00 00 00 00	 call	 ?process_assert@@YGXPBD0H@Z ; process_assert
  0014b	c7 45 b4 00 00
	00 00		 mov	 DWORD PTR tv143[ebp], 0
$LN17@get_group_:
  00152	b8 01 00 00 00	 mov	 eax, 1
  00157	85 c0		 test	 eax, eax
  00159	74 09		 je	 SHORT $LN18@get_group_
  0015b	c7 45 b0 b4 00
	00 00		 mov	 DWORD PTR tv150[ebp], 180 ; 000000b4H
  00162	eb 1d		 jmp	 SHORT $LN19@get_group_
$LN18@get_group_:
  00164	68 64 01 00 00	 push	 356			; 00000164H
  00169	68 00 00 00 00	 push	 OFFSET ??_C@_0EJ@CCBIJPFD@c?3?2users?2nhv90?2projects?2eech?2ap@
  0016e	8b 0d 00 00 00
	00		 mov	 ecx, DWORD PTR ?overload_invalid_int_type_message@@3PBDB ; overload_invalid_int_type_message
  00174	51		 push	 ecx
  00175	e8 00 00 00 00	 call	 ?process_assert@@YGXPBD0H@Z ; process_assert
  0017a	c7 45 b0 00 00
	00 00		 mov	 DWORD PTR tv150[ebp], 0
$LN19@get_group_:
  00181	68 b4 00 00 00	 push	 180			; 000000b4H
  00186	8b 55 f8	 mov	 edx, DWORD PTR _group$[ebp]
  00189	52		 push	 edx
  0018a	69 45 b4 5c 04
	00 00		 imul	 eax, DWORD PTR tv143[ebp], 1116
  00191	8b 4d b0	 mov	 ecx, DWORD PTR tv150[ebp]
  00194	8b 94 88 00 00
	00 00		 mov	 edx, DWORD PTR ?fn_get_local_entity_int_value@@3PAY0BBH@P6GHPAUENTITY@@W4INT_TYPES@@@ZA[eax+ecx*4]
  0019b	ff d2		 call	 edx
  0019d	3b 45 08	 cmp	 eax, DWORD PTR _node$[ebp]
  001a0	0f 85 81 00 00
	00		 jne	 $LN6@get_group_
  001a6	83 7d f8 00	 cmp	 DWORD PTR _group$[ebp], 0
  001aa	74 0a		 je	 SHORT $LN20@get_group_
  001ac	8b 45 f8	 mov	 eax, DWORD PTR _group$[ebp]
  001af	8b 08		 mov	 ecx, DWORD PTR [eax]
  001b1	89 4d b4	 mov	 DWORD PTR tv162[ebp], ecx
  001b4	eb 1d		 jmp	 SHORT $LN21@get_group_
$LN20@get_group_:
  001b6	68 65 01 00 00	 push	 357			; 00000165H
  001bb	68 00 00 00 00	 push	 OFFSET ??_C@_0EJ@CCBIJPFD@c?3?2users?2nhv90?2projects?2eech?2ap@
  001c0	8b 15 00 00 00
	00		 mov	 edx, DWORD PTR ?null_entity_pointer_message@@3PBDB ; null_entity_pointer_message
  001c6	52		 push	 edx
  001c7	e8 00 00 00 00	 call	 ?process_assert@@YGXPBD0H@Z ; process_assert
  001cc	c7 45 b4 00 00
	00 00		 mov	 DWORD PTR tv162[ebp], 0
$LN21@get_group_:
  001d3	b8 01 00 00 00	 mov	 eax, 1
  001d8	85 c0		 test	 eax, eax
  001da	74 09		 je	 SHORT $LN22@get_group_
  001dc	c7 45 b0 07 00
	00 00		 mov	 DWORD PTR tv169[ebp], 7
  001e3	eb 1d		 jmp	 SHORT $LN23@get_group_
$LN22@get_group_:
  001e5	68 65 01 00 00	 push	 357			; 00000165H
  001ea	68 00 00 00 00	 push	 OFFSET ??_C@_0EJ@CCBIJPFD@c?3?2users?2nhv90?2projects?2eech?2ap@
  001ef	8b 0d 00 00 00
	00		 mov	 ecx, DWORD PTR ?overload_invalid_int_type_message@@3PBDB ; overload_invalid_int_type_message
  001f5	51		 push	 ecx
  001f6	e8 00 00 00 00	 call	 ?process_assert@@YGXPBD0H@Z ; process_assert
  001fb	c7 45 b0 00 00
	00 00		 mov	 DWORD PTR tv169[ebp], 0
$LN23@get_group_:
  00202	6a 07		 push	 7
  00204	8b 55 f8	 mov	 edx, DWORD PTR _group$[ebp]
  00207	52		 push	 edx
  00208	69 45 b4 5c 04
	00 00		 imul	 eax, DWORD PTR tv162[ebp], 1116
  0020f	8b 4d b0	 mov	 ecx, DWORD PTR tv169[ebp]
  00212	8b 94 88 00 00
	00 00		 mov	 edx, DWORD PTR ?fn_get_local_entity_int_value@@3PAY0BBH@P6GHPAUENTITY@@W4INT_TYPES@@@ZA[eax+ecx*4]
  00219	ff d2		 call	 edx
  0021b	85 c0		 test	 eax, eax
  0021d	74 08		 je	 SHORT $LN6@get_group_

; 357  : 				(get_local_entity_int_value (group, INT_TYPE_ALIVE)))
; 358  : 			{
; 359  : 				#if DEBUG_MODULE
; 360  : 
; 361  : 				debug_log ("GP_MSGS: found retreat group %d side %s at node %d", group, entity_side_names [get_local_entity_int_value (group, INT_TYPE_SIDE)], node);
; 362  : 
; 363  : 				#endif
; 364  : 
; 365  : 				return group;

  0021f	8b 45 f8	 mov	 eax, DWORD PTR _group$[ebp]
  00222	e9 0c 01 00 00	 jmp	 $LN1@get_group_
$LN6@get_group_:

; 366  : 			}
; 367  : 
; 368  : 			group = get_local_entity_child_succ (group, LIST_TYPE_GROUND_REGISTRY);

  00227	83 7d f8 00	 cmp	 DWORD PTR _group$[ebp], 0
  0022b	74 0a		 je	 SHORT $LN24@get_group_
  0022d	8b 45 f8	 mov	 eax, DWORD PTR _group$[ebp]
  00230	8b 08		 mov	 ecx, DWORD PTR [eax]
  00232	89 4d b4	 mov	 DWORD PTR tv182[ebp], ecx
  00235	eb 21		 jmp	 SHORT $LN25@get_group_
$LN24@get_group_:
  00237	8b 15 00 00 00
	00		 mov	 edx, DWORD PTR ?__LINE__Var@?0??get_group_at_road_node@@YGPAUENTITY@@H@Z@4JA
  0023d	83 c2 19	 add	 edx, 25			; 00000019H
  00240	52		 push	 edx
  00241	68 00 00 00 00	 push	 OFFSET ??_C@_0EJ@CCBIJPFD@c?3?2users?2nhv90?2projects?2eech?2ap@
  00246	a1 00 00 00 00	 mov	 eax, DWORD PTR ?null_entity_pointer_message@@3PBDB ; null_entity_pointer_message
  0024b	50		 push	 eax
  0024c	e8 00 00 00 00	 call	 ?process_assert@@YGXPBD0H@Z ; process_assert
  00251	c7 45 b4 00 00
	00 00		 mov	 DWORD PTR tv182[ebp], 0
$LN25@get_group_:
  00258	b9 01 00 00 00	 mov	 ecx, 1
  0025d	85 c9		 test	 ecx, ecx
  0025f	74 09		 je	 SHORT $LN26@get_group_
  00261	c7 45 b0 0f 00
	00 00		 mov	 DWORD PTR tv190[ebp], 15 ; 0000000fH
  00268	eb 21		 jmp	 SHORT $LN27@get_group_
$LN26@get_group_:
  0026a	8b 15 00 00 00
	00		 mov	 edx, DWORD PTR ?__LINE__Var@?0??get_group_at_road_node@@YGPAUENTITY@@H@Z@4JA
  00270	83 c2 19	 add	 edx, 25			; 00000019H
  00273	52		 push	 edx
  00274	68 00 00 00 00	 push	 OFFSET ??_C@_0EJ@CCBIJPFD@c?3?2users?2nhv90?2projects?2eech?2ap@
  00279	a1 00 00 00 00	 mov	 eax, DWORD PTR ?overload_invalid_list_type_message@@3PBDB ; overload_invalid_list_type_message
  0027e	50		 push	 eax
  0027f	e8 00 00 00 00	 call	 ?process_assert@@YGXPBD0H@Z ; process_assert
  00284	c7 45 b0 00 00
	00 00		 mov	 DWORD PTR tv190[ebp], 0
$LN27@get_group_:
  0028b	6a 0f		 push	 15			; 0000000fH
  0028d	8b 4d f8	 mov	 ecx, DWORD PTR _group$[ebp]
  00290	51		 push	 ecx
  00291	69 55 b4 b4 00
	00 00		 imul	 edx, DWORD PTR tv182[ebp], 180
  00298	8b 45 b0	 mov	 eax, DWORD PTR tv190[ebp]
  0029b	8b 8c 82 00 00
	00 00		 mov	 ecx, DWORD PTR ?fn_get_local_entity_child_succ@@3PAY0CN@P6GPAUENTITY@@PAU1@W4LIST_TYPES@@@ZA[edx+eax*4]
  002a2	ff d1		 call	 ecx
  002a4	89 45 f8	 mov	 DWORD PTR _group$[ebp], eax

; 369  : 		}

  002a7	e9 6f fe ff ff	 jmp	 $LN4@get_group_
$LN5@get_group_:

; 370  : 
; 371  : 		force = get_local_entity_child_succ (force, LIST_TYPE_FORCE);

  002ac	83 7d fc 00	 cmp	 DWORD PTR _force$[ebp], 0
  002b0	74 0a		 je	 SHORT $LN28@get_group_
  002b2	8b 45 fc	 mov	 eax, DWORD PTR _force$[ebp]
  002b5	8b 08		 mov	 ecx, DWORD PTR [eax]
  002b7	89 4d b4	 mov	 DWORD PTR tv202[ebp], ecx
  002ba	eb 21		 jmp	 SHORT $LN29@get_group_
$LN28@get_group_:
  002bc	8b 15 00 00 00
	00		 mov	 edx, DWORD PTR ?__LINE__Var@?0??get_group_at_road_node@@YGPAUENTITY@@H@Z@4JA
  002c2	83 c2 1c	 add	 edx, 28			; 0000001cH
  002c5	52		 push	 edx
  002c6	68 00 00 00 00	 push	 OFFSET ??_C@_0EJ@CCBIJPFD@c?3?2users?2nhv90?2projects?2eech?2ap@
  002cb	a1 00 00 00 00	 mov	 eax, DWORD PTR ?null_entity_pointer_message@@3PBDB ; null_entity_pointer_message
  002d0	50		 push	 eax
  002d1	e8 00 00 00 00	 call	 ?process_assert@@YGXPBD0H@Z ; process_assert
  002d6	c7 45 b4 00 00
	00 00		 mov	 DWORD PTR tv202[ebp], 0
$LN29@get_group_:
  002dd	b9 01 00 00 00	 mov	 ecx, 1
  002e2	85 c9		 test	 ecx, ecx
  002e4	74 09		 je	 SHORT $LN30@get_group_
  002e6	c7 45 b0 0e 00
	00 00		 mov	 DWORD PTR tv210[ebp], 14 ; 0000000eH
  002ed	eb 21		 jmp	 SHORT $LN31@get_group_
$LN30@get_group_:
  002ef	8b 15 00 00 00
	00		 mov	 edx, DWORD PTR ?__LINE__Var@?0??get_group_at_road_node@@YGPAUENTITY@@H@Z@4JA
  002f5	83 c2 1c	 add	 edx, 28			; 0000001cH
  002f8	52		 push	 edx
  002f9	68 00 00 00 00	 push	 OFFSET ??_C@_0EJ@CCBIJPFD@c?3?2users?2nhv90?2projects?2eech?2ap@
  002fe	a1 00 00 00 00	 mov	 eax, DWORD PTR ?overload_invalid_list_type_message@@3PBDB ; overload_invalid_list_type_message
  00303	50		 push	 eax
  00304	e8 00 00 00 00	 call	 ?process_assert@@YGXPBD0H@Z ; process_assert
  00309	c7 45 b0 00 00
	00 00		 mov	 DWORD PTR tv210[ebp], 0
$LN31@get_group_:
  00310	6a 0e		 push	 14			; 0000000eH
  00312	8b 4d fc	 mov	 ecx, DWORD PTR _force$[ebp]
  00315	51		 push	 ecx
  00316	69 55 b4 b4 00
	00 00		 imul	 edx, DWORD PTR tv202[ebp], 180
  0031d	8b 45 b0	 mov	 eax, DWORD PTR tv210[ebp]
  00320	8b 8c 82 00 00
	00 00		 mov	 ecx, DWORD PTR ?fn_get_local_entity_child_succ@@3PAY0CN@P6GPAUENTITY@@PAU1@W4LIST_TYPES@@@ZA[edx+eax*4]
  00327	ff d1		 call	 ecx
  00329	89 45 fc	 mov	 DWORD PTR _force$[ebp], eax

; 372  : 	}

  0032c	e9 60 fd ff ff	 jmp	 $LN2@get_group_
$LN3@get_group_:

; 373  : 
; 374  : 	return NULL;

  00331	33 c0		 xor	 eax, eax
$LN1@get_group_:

; 375  : }

  00333	5f		 pop	 edi
  00334	5e		 pop	 esi
  00335	5b		 pop	 ebx
  00336	8b e5		 mov	 esp, ebp
  00338	5d		 pop	 ebp
  00339	c2 04 00	 ret	 4
?get_group_at_road_node@@YGPAUENTITY@@H@Z ENDP		; get_group_at_road_node
_TEXT	ENDS
; Function compile flags: /Odtp /ZI
; File c:\users\nhv90\projects\eech\aphavoc\source\entity\special\group\group.c
;	COMDAT ?assess_group_task_locality_factor@@YGHPAUENTITY@@0PAM@Z
_TEXT	SEGMENT
tv339 = -104						; size = 4
tv242 = -100						; size = 4
tv223 = -100						; size = 4
tv200 = -100						; size = 4
tv180 = -100						; size = 4
tv152 = -100						; size = 4
tv132 = -100						; size = 4
tv79 = -100						; size = 4
tv235 = -96						; size = 4
tv215 = -96						; size = 4
tv192 = -96						; size = 4
tv172 = -96						; size = 4
tv164 = -96						; size = 4
tv144 = -96						; size = 4
tv92 = -96						; size = 4
tv71 = -96						; size = 4
_cruise_speed$ = -28					; size = 4
_distance$ = -24					; size = 4
_eta$ = -20						; size = 4
_pos2$ = -16						; size = 4
_pos1$ = -12						; size = 4
_member$ = -8						; size = 4
_keysite$ = -4						; size = 4
_group_en$ = 8						; size = 4
_task_en$ = 12						; size = 4
_return_distance$ = 16					; size = 4
?assess_group_task_locality_factor@@YGHPAUENTITY@@0PAM@Z PROC ; assess_group_task_locality_factor, COMDAT

; 246  : {

  00000	55		 push	 ebp
  00001	8b ec		 mov	 ebp, esp
  00003	83 ec 68	 sub	 esp, 104		; 00000068H
  00006	53		 push	 ebx
  00007	56		 push	 esi
  00008	57		 push	 edi

; 247  : 	entity
; 248  : 		*keysite,
; 249  : 		*member;
; 250  : 
; 251  : 	vec3d
; 252  : 		*pos1,
; 253  : 		*pos2;
; 254  : 
; 255  : 	float
; 256  : 		eta,
; 257  : 		distance,
; 258  : 		cruise_speed;
; 259  : 
; 260  : 	//
; 261  : 	// locality
; 262  : 	// assess if group could get to end position quick enough, using first members cruise speed.
; 263  : 	//
; 264  : 
; 265  : 	if (return_distance)

  00009	83 7d 10 00	 cmp	 DWORD PTR _return_distance$[ebp], 0
  0000d	74 0a		 je	 SHORT $LN2@assess_gro

; 266  : 	{
; 267  : 		*return_distance = 0.0;

  0000f	8b 45 10	 mov	 eax, DWORD PTR _return_distance$[ebp]
  00012	0f 57 c0	 xorps	 xmm0, xmm0
  00015	f3 0f 11 00	 movss	 DWORD PTR [eax], xmm0
$LN2@assess_gro:

; 268  : 	}
; 269  : 
; 270  : 	member = get_local_entity_first_child (group_en, LIST_TYPE_MEMBER);

  00019	83 7d 08 00	 cmp	 DWORD PTR _group_en$[ebp], 0
  0001d	74 0a		 je	 SHORT $LN9@assess_gro
  0001f	8b 45 08	 mov	 eax, DWORD PTR _group_en$[ebp]
  00022	8b 08		 mov	 ecx, DWORD PTR [eax]
  00024	89 4d a0	 mov	 DWORD PTR tv71[ebp], ecx
  00027	eb 21		 jmp	 SHORT $LN10@assess_gro
$LN9@assess_gro:
  00029	8b 15 00 00 00
	00		 mov	 edx, DWORD PTR ?__LINE__Var@?0??assess_group_task_locality_factor@@YGHPAUENTITY@@0PAM@Z@4JA
  0002f	83 c2 18	 add	 edx, 24			; 00000018H
  00032	52		 push	 edx
  00033	68 00 00 00 00	 push	 OFFSET ??_C@_0EJ@CCBIJPFD@c?3?2users?2nhv90?2projects?2eech?2ap@
  00038	a1 00 00 00 00	 mov	 eax, DWORD PTR ?null_entity_pointer_message@@3PBDB ; null_entity_pointer_message
  0003d	50		 push	 eax
  0003e	e8 00 00 00 00	 call	 ?process_assert@@YGXPBD0H@Z ; process_assert
  00043	c7 45 a0 00 00
	00 00		 mov	 DWORD PTR tv71[ebp], 0
$LN10@assess_gro:
  0004a	b9 01 00 00 00	 mov	 ecx, 1
  0004f	85 c9		 test	 ecx, ecx
  00051	74 09		 je	 SHORT $LN11@assess_gro
  00053	c7 45 9c 19 00
	00 00		 mov	 DWORD PTR tv79[ebp], 25	; 00000019H
  0005a	eb 21		 jmp	 SHORT $LN12@assess_gro
$LN11@assess_gro:
  0005c	8b 15 00 00 00
	00		 mov	 edx, DWORD PTR ?__LINE__Var@?0??assess_group_task_locality_factor@@YGHPAUENTITY@@0PAM@Z@4JA
  00062	83 c2 18	 add	 edx, 24			; 00000018H
  00065	52		 push	 edx
  00066	68 00 00 00 00	 push	 OFFSET ??_C@_0EJ@CCBIJPFD@c?3?2users?2nhv90?2projects?2eech?2ap@
  0006b	a1 00 00 00 00	 mov	 eax, DWORD PTR ?overload_invalid_list_type_message@@3PBDB ; overload_invalid_list_type_message
  00070	50		 push	 eax
  00071	e8 00 00 00 00	 call	 ?process_assert@@YGXPBD0H@Z ; process_assert
  00076	c7 45 9c 00 00
	00 00		 mov	 DWORD PTR tv79[ebp], 0
$LN12@assess_gro:
  0007d	6a 19		 push	 25			; 00000019H
  0007f	8b 4d 08	 mov	 ecx, DWORD PTR _group_en$[ebp]
  00082	51		 push	 ecx
  00083	69 55 a0 b4 00
	00 00		 imul	 edx, DWORD PTR tv71[ebp], 180
  0008a	8b 45 9c	 mov	 eax, DWORD PTR tv79[ebp]
  0008d	8b 8c 82 00 00
	00 00		 mov	 ecx, DWORD PTR ?fn_get_local_entity_first_child@@3PAY0CN@P6GPAUENTITY@@PAU1@W4LIST_TYPES@@@ZA[edx+eax*4]
  00094	ff d1		 call	 ecx
  00096	89 45 f8	 mov	 DWORD PTR _member$[ebp], eax

; 271  : 
; 272  : 	if (!member)

  00099	83 7d f8 00	 cmp	 DWORD PTR _member$[ebp], 0
  0009d	75 07		 jne	 SHORT $LN3@assess_gro

; 273  : 	{
; 274  : 		return FALSE;

  0009f	33 c0		 xor	 eax, eax
  000a1	e9 73 03 00 00	 jmp	 $LN1@assess_gro
$LN3@assess_gro:

; 275  : 	}
; 276  : 
; 277  : 	pos1 = get_local_entity_vec3d_ptr (member, VEC3D_TYPE_POSITION);

  000a6	83 7d f8 00	 cmp	 DWORD PTR _member$[ebp], 0
  000aa	74 0a		 je	 SHORT $LN13@assess_gro
  000ac	8b 45 f8	 mov	 eax, DWORD PTR _member$[ebp]
  000af	8b 08		 mov	 ecx, DWORD PTR [eax]
  000b1	89 4d a0	 mov	 DWORD PTR tv92[ebp], ecx
  000b4	eb 21		 jmp	 SHORT $LN14@assess_gro
$LN13@assess_gro:
  000b6	8b 15 00 00 00
	00		 mov	 edx, DWORD PTR ?__LINE__Var@?0??assess_group_task_locality_factor@@YGHPAUENTITY@@0PAM@Z@4JA
  000bc	83 c2 1f	 add	 edx, 31			; 0000001fH
  000bf	52		 push	 edx
  000c0	68 00 00 00 00	 push	 OFFSET ??_C@_0EJ@CCBIJPFD@c?3?2users?2nhv90?2projects?2eech?2ap@
  000c5	a1 00 00 00 00	 mov	 eax, DWORD PTR ?null_entity_pointer_message@@3PBDB ; null_entity_pointer_message
  000ca	50		 push	 eax
  000cb	e8 00 00 00 00	 call	 ?process_assert@@YGXPBD0H@Z ; process_assert
  000d0	c7 45 a0 00 00
	00 00		 mov	 DWORD PTR tv92[ebp], 0
$LN14@assess_gro:
  000d7	b9 01 00 00 00	 mov	 ecx, 1
  000dc	85 c9		 test	 ecx, ecx
  000de	74 09		 je	 SHORT $LN15@assess_gro
  000e0	c7 45 9c 08 00
	00 00		 mov	 DWORD PTR tv132[ebp], 8
  000e7	eb 21		 jmp	 SHORT $LN16@assess_gro
$LN15@assess_gro:
  000e9	8b 15 00 00 00
	00		 mov	 edx, DWORD PTR ?__LINE__Var@?0??assess_group_task_locality_factor@@YGHPAUENTITY@@0PAM@Z@4JA
  000ef	83 c2 1f	 add	 edx, 31			; 0000001fH
  000f2	52		 push	 edx
  000f3	68 00 00 00 00	 push	 OFFSET ??_C@_0EJ@CCBIJPFD@c?3?2users?2nhv90?2projects?2eech?2ap@
  000f8	a1 00 00 00 00	 mov	 eax, DWORD PTR ?overload_invalid_vec3d_type_message@@3PBDB ; overload_invalid_vec3d_type_message
  000fd	50		 push	 eax
  000fe	e8 00 00 00 00	 call	 ?process_assert@@YGXPBD0H@Z ; process_assert
  00103	c7 45 9c 00 00
	00 00		 mov	 DWORD PTR tv132[ebp], 0
$LN16@assess_gro:
  0010a	6a 08		 push	 8
  0010c	8b 4d f8	 mov	 ecx, DWORD PTR _member$[ebp]
  0010f	51		 push	 ecx
  00110	6b 55 a0 60	 imul	 edx, DWORD PTR tv92[ebp], 96
  00114	8b 45 9c	 mov	 eax, DWORD PTR tv132[ebp]
  00117	8b 8c 82 00 00
	00 00		 mov	 ecx, DWORD PTR ?fn_get_local_entity_vec3d_ptr@@3PAY0BI@P6GPAUVEC3D@@PAUENTITY@@W4VEC3D_TYPES@@@ZA[edx+eax*4]
  0011e	ff d1		 call	 ecx
  00120	89 45 f4	 mov	 DWORD PTR _pos1$[ebp], eax

; 278  : 
; 279  : 	// get task start position, either keysite it is assigned to or the tasks start pos (NB. might actually be its end point)
; 280  : 
; 281  : 	keysite = get_local_entity_parent (task_en, LIST_TYPE_UNASSIGNED_TASK);

  00123	83 7d 0c 00	 cmp	 DWORD PTR _task_en$[ebp], 0
  00127	74 0a		 je	 SHORT $LN17@assess_gro
  00129	8b 45 0c	 mov	 eax, DWORD PTR _task_en$[ebp]
  0012c	8b 08		 mov	 ecx, DWORD PTR [eax]
  0012e	89 4d a0	 mov	 DWORD PTR tv144[ebp], ecx
  00131	eb 21		 jmp	 SHORT $LN18@assess_gro
$LN17@assess_gro:
  00133	8b 15 00 00 00
	00		 mov	 edx, DWORD PTR ?__LINE__Var@?0??assess_group_task_locality_factor@@YGHPAUENTITY@@0PAM@Z@4JA
  00139	83 c2 23	 add	 edx, 35			; 00000023H
  0013c	52		 push	 edx
  0013d	68 00 00 00 00	 push	 OFFSET ??_C@_0EJ@CCBIJPFD@c?3?2users?2nhv90?2projects?2eech?2ap@
  00142	a1 00 00 00 00	 mov	 eax, DWORD PTR ?null_entity_pointer_message@@3PBDB ; null_entity_pointer_message
  00147	50		 push	 eax
  00148	e8 00 00 00 00	 call	 ?process_assert@@YGXPBD0H@Z ; process_assert
  0014d	c7 45 a0 00 00
	00 00		 mov	 DWORD PTR tv144[ebp], 0
$LN18@assess_gro:
  00154	b9 01 00 00 00	 mov	 ecx, 1
  00159	85 c9		 test	 ecx, ecx
  0015b	74 09		 je	 SHORT $LN19@assess_gro
  0015d	c7 45 9c 28 00
	00 00		 mov	 DWORD PTR tv152[ebp], 40 ; 00000028H
  00164	eb 21		 jmp	 SHORT $LN20@assess_gro
$LN19@assess_gro:
  00166	8b 15 00 00 00
	00		 mov	 edx, DWORD PTR ?__LINE__Var@?0??assess_group_task_locality_factor@@YGHPAUENTITY@@0PAM@Z@4JA
  0016c	83 c2 23	 add	 edx, 35			; 00000023H
  0016f	52		 push	 edx
  00170	68 00 00 00 00	 push	 OFFSET ??_C@_0EJ@CCBIJPFD@c?3?2users?2nhv90?2projects?2eech?2ap@
  00175	a1 00 00 00 00	 mov	 eax, DWORD PTR ?overload_invalid_list_type_message@@3PBDB ; overload_invalid_list_type_message
  0017a	50		 push	 eax
  0017b	e8 00 00 00 00	 call	 ?process_assert@@YGXPBD0H@Z ; process_assert
  00180	c7 45 9c 00 00
	00 00		 mov	 DWORD PTR tv152[ebp], 0
$LN20@assess_gro:
  00187	6a 28		 push	 40			; 00000028H
  00189	8b 4d 0c	 mov	 ecx, DWORD PTR _task_en$[ebp]
  0018c	51		 push	 ecx
  0018d	69 55 a0 b4 00
	00 00		 imul	 edx, DWORD PTR tv144[ebp], 180
  00194	8b 45 9c	 mov	 eax, DWORD PTR tv152[ebp]
  00197	8b 8c 82 00 00
	00 00		 mov	 ecx, DWORD PTR ?fn_get_local_entity_parent@@3PAY0CN@P6GPAUENTITY@@PAU1@W4LIST_TYPES@@@ZA[edx+eax*4]
  0019e	ff d1		 call	 ecx
  001a0	89 45 fc	 mov	 DWORD PTR _keysite$[ebp], eax

; 282  : 
; 283  : 	if ((keysite) && (get_local_entity_type (keysite) == ENTITY_TYPE_KEYSITE))

  001a3	83 7d fc 00	 cmp	 DWORD PTR _keysite$[ebp], 0
  001a7	0f 84 b2 00 00
	00		 je	 $LN4@assess_gro
  001ad	83 7d fc 00	 cmp	 DWORD PTR _keysite$[ebp], 0
  001b1	74 0a		 je	 SHORT $LN21@assess_gro
  001b3	8b 45 fc	 mov	 eax, DWORD PTR _keysite$[ebp]
  001b6	8b 08		 mov	 ecx, DWORD PTR [eax]
  001b8	89 4d a0	 mov	 DWORD PTR tv164[ebp], ecx
  001bb	eb 1d		 jmp	 SHORT $LN22@assess_gro
$LN21@assess_gro:
  001bd	68 1b 01 00 00	 push	 283			; 0000011bH
  001c2	68 00 00 00 00	 push	 OFFSET ??_C@_0EJ@CCBIJPFD@c?3?2users?2nhv90?2projects?2eech?2ap@
  001c7	8b 15 00 00 00
	00		 mov	 edx, DWORD PTR ?null_entity_pointer_message@@3PBDB ; null_entity_pointer_message
  001cd	52		 push	 edx
  001ce	e8 00 00 00 00	 call	 ?process_assert@@YGXPBD0H@Z ; process_assert
  001d3	c7 45 a0 00 00
	00 00		 mov	 DWORD PTR tv164[ebp], 0
$LN22@assess_gro:
  001da	83 7d a0 0f	 cmp	 DWORD PTR tv164[ebp], 15 ; 0000000fH
  001de	75 7f		 jne	 SHORT $LN4@assess_gro

; 284  : 	{
; 285  : 
; 286  : 		pos2 = get_local_entity_vec3d_ptr (keysite, VEC3D_TYPE_POSITION);

  001e0	83 7d fc 00	 cmp	 DWORD PTR _keysite$[ebp], 0
  001e4	74 0a		 je	 SHORT $LN23@assess_gro
  001e6	8b 45 fc	 mov	 eax, DWORD PTR _keysite$[ebp]
  001e9	8b 08		 mov	 ecx, DWORD PTR [eax]
  001eb	89 4d a0	 mov	 DWORD PTR tv172[ebp], ecx
  001ee	eb 21		 jmp	 SHORT $LN24@assess_gro
$LN23@assess_gro:
  001f0	8b 15 00 00 00
	00		 mov	 edx, DWORD PTR ?__LINE__Var@?0??assess_group_task_locality_factor@@YGHPAUENTITY@@0PAM@Z@4JA
  001f6	83 c2 28	 add	 edx, 40			; 00000028H
  001f9	52		 push	 edx
  001fa	68 00 00 00 00	 push	 OFFSET ??_C@_0EJ@CCBIJPFD@c?3?2users?2nhv90?2projects?2eech?2ap@
  001ff	a1 00 00 00 00	 mov	 eax, DWORD PTR ?null_entity_pointer_message@@3PBDB ; null_entity_pointer_message
  00204	50		 push	 eax
  00205	e8 00 00 00 00	 call	 ?process_assert@@YGXPBD0H@Z ; process_assert
  0020a	c7 45 a0 00 00
	00 00		 mov	 DWORD PTR tv172[ebp], 0
$LN24@assess_gro:
  00211	b9 01 00 00 00	 mov	 ecx, 1
  00216	85 c9		 test	 ecx, ecx
  00218	74 09		 je	 SHORT $LN25@assess_gro
  0021a	c7 45 9c 08 00
	00 00		 mov	 DWORD PTR tv180[ebp], 8
  00221	eb 21		 jmp	 SHORT $LN26@assess_gro
$LN25@assess_gro:
  00223	8b 15 00 00 00
	00		 mov	 edx, DWORD PTR ?__LINE__Var@?0??assess_group_task_locality_factor@@YGHPAUENTITY@@0PAM@Z@4JA
  00229	83 c2 28	 add	 edx, 40			; 00000028H
  0022c	52		 push	 edx
  0022d	68 00 00 00 00	 push	 OFFSET ??_C@_0EJ@CCBIJPFD@c?3?2users?2nhv90?2projects?2eech?2ap@
  00232	a1 00 00 00 00	 mov	 eax, DWORD PTR ?overload_invalid_vec3d_type_message@@3PBDB ; overload_invalid_vec3d_type_message
  00237	50		 push	 eax
  00238	e8 00 00 00 00	 call	 ?process_assert@@YGXPBD0H@Z ; process_assert
  0023d	c7 45 9c 00 00
	00 00		 mov	 DWORD PTR tv180[ebp], 0
$LN26@assess_gro:
  00244	6a 08		 push	 8
  00246	8b 4d fc	 mov	 ecx, DWORD PTR _keysite$[ebp]
  00249	51		 push	 ecx
  0024a	6b 55 a0 60	 imul	 edx, DWORD PTR tv172[ebp], 96
  0024e	8b 45 9c	 mov	 eax, DWORD PTR tv180[ebp]
  00251	8b 8c 82 00 00
	00 00		 mov	 ecx, DWORD PTR ?fn_get_local_entity_vec3d_ptr@@3PAY0BI@P6GPAUVEC3D@@PAUENTITY@@W4VEC3D_TYPES@@@ZA[edx+eax*4]
  00258	ff d1		 call	 ecx
  0025a	89 45 f0	 mov	 DWORD PTR _pos2$[ebp], eax

; 287  : 	}
; 288  : 	else

  0025d	eb 7d		 jmp	 SHORT $LN5@assess_gro
$LN4@assess_gro:

; 289  : 	{
; 290  : 
; 291  : 		pos2 = get_local_entity_vec3d_ptr (task_en, VEC3D_TYPE_START_POSITION);

  0025f	83 7d 0c 00	 cmp	 DWORD PTR _task_en$[ebp], 0
  00263	74 0a		 je	 SHORT $LN27@assess_gro
  00265	8b 45 0c	 mov	 eax, DWORD PTR _task_en$[ebp]
  00268	8b 08		 mov	 ecx, DWORD PTR [eax]
  0026a	89 4d a0	 mov	 DWORD PTR tv192[ebp], ecx
  0026d	eb 21		 jmp	 SHORT $LN28@assess_gro
$LN27@assess_gro:
  0026f	8b 15 00 00 00
	00		 mov	 edx, DWORD PTR ?__LINE__Var@?0??assess_group_task_locality_factor@@YGHPAUENTITY@@0PAM@Z@4JA
  00275	83 c2 2d	 add	 edx, 45			; 0000002dH
  00278	52		 push	 edx
  00279	68 00 00 00 00	 push	 OFFSET ??_C@_0EJ@CCBIJPFD@c?3?2users?2nhv90?2projects?2eech?2ap@
  0027e	a1 00 00 00 00	 mov	 eax, DWORD PTR ?null_entity_pointer_message@@3PBDB ; null_entity_pointer_message
  00283	50		 push	 eax
  00284	e8 00 00 00 00	 call	 ?process_assert@@YGXPBD0H@Z ; process_assert
  00289	c7 45 a0 00 00
	00 00		 mov	 DWORD PTR tv192[ebp], 0
$LN28@assess_gro:
  00290	b9 01 00 00 00	 mov	 ecx, 1
  00295	85 c9		 test	 ecx, ecx
  00297	74 09		 je	 SHORT $LN29@assess_gro
  00299	c7 45 9c 0a 00
	00 00		 mov	 DWORD PTR tv200[ebp], 10 ; 0000000aH
  002a0	eb 21		 jmp	 SHORT $LN30@assess_gro
$LN29@assess_gro:
  002a2	8b 15 00 00 00
	00		 mov	 edx, DWORD PTR ?__LINE__Var@?0??assess_group_task_locality_factor@@YGHPAUENTITY@@0PAM@Z@4JA
  002a8	83 c2 2d	 add	 edx, 45			; 0000002dH
  002ab	52		 push	 edx
  002ac	68 00 00 00 00	 push	 OFFSET ??_C@_0EJ@CCBIJPFD@c?3?2users?2nhv90?2projects?2eech?2ap@
  002b1	a1 00 00 00 00	 mov	 eax, DWORD PTR ?overload_invalid_vec3d_type_message@@3PBDB ; overload_invalid_vec3d_type_message
  002b6	50		 push	 eax
  002b7	e8 00 00 00 00	 call	 ?process_assert@@YGXPBD0H@Z ; process_assert
  002bc	c7 45 9c 00 00
	00 00		 mov	 DWORD PTR tv200[ebp], 0
$LN30@assess_gro:
  002c3	6a 0a		 push	 10			; 0000000aH
  002c5	8b 4d 0c	 mov	 ecx, DWORD PTR _task_en$[ebp]
  002c8	51		 push	 ecx
  002c9	6b 55 a0 60	 imul	 edx, DWORD PTR tv192[ebp], 96
  002cd	8b 45 9c	 mov	 eax, DWORD PTR tv200[ebp]
  002d0	8b 8c 82 00 00
	00 00		 mov	 ecx, DWORD PTR ?fn_get_local_entity_vec3d_ptr@@3PAY0BI@P6GPAUVEC3D@@PAUENTITY@@W4VEC3D_TYPES@@@ZA[edx+eax*4]
  002d7	ff d1		 call	 ecx
  002d9	89 45 f0	 mov	 DWORD PTR _pos2$[ebp], eax
$LN5@assess_gro:

; 292  : 	}
; 293  : 
; 294  : 	distance = get_approx_2d_range (pos1, pos2);

  002dc	8b 45 f0	 mov	 eax, DWORD PTR _pos2$[ebp]
  002df	50		 push	 eax
  002e0	8b 4d f4	 mov	 ecx, DWORD PTR _pos1$[ebp]
  002e3	51		 push	 ecx
  002e4	e8 00 00 00 00	 call	 ?get_approx_2d_range@@YGMPBUVEC3D@@0@Z ; get_approx_2d_range
  002e9	d9 5d e8	 fstp	 DWORD PTR _distance$[ebp]

; 295  : 
; 296  : 	cruise_speed = get_local_entity_float_value (member, FLOAT_TYPE_CRUISE_VELOCITY);

  002ec	83 7d f8 00	 cmp	 DWORD PTR _member$[ebp], 0
  002f0	74 0a		 je	 SHORT $LN31@assess_gro
  002f2	8b 45 f8	 mov	 eax, DWORD PTR _member$[ebp]
  002f5	8b 08		 mov	 ecx, DWORD PTR [eax]
  002f7	89 4d a0	 mov	 DWORD PTR tv215[ebp], ecx
  002fa	eb 21		 jmp	 SHORT $LN32@assess_gro
$LN31@assess_gro:
  002fc	8b 15 00 00 00
	00		 mov	 edx, DWORD PTR ?__LINE__Var@?0??assess_group_task_locality_factor@@YGHPAUENTITY@@0PAM@Z@4JA
  00302	83 c2 32	 add	 edx, 50			; 00000032H
  00305	52		 push	 edx
  00306	68 00 00 00 00	 push	 OFFSET ??_C@_0EJ@CCBIJPFD@c?3?2users?2nhv90?2projects?2eech?2ap@
  0030b	a1 00 00 00 00	 mov	 eax, DWORD PTR ?null_entity_pointer_message@@3PBDB ; null_entity_pointer_message
  00310	50		 push	 eax
  00311	e8 00 00 00 00	 call	 ?process_assert@@YGXPBD0H@Z ; process_assert
  00316	c7 45 a0 00 00
	00 00		 mov	 DWORD PTR tv215[ebp], 0
$LN32@assess_gro:
  0031d	b9 01 00 00 00	 mov	 ecx, 1
  00322	85 c9		 test	 ecx, ecx
  00324	74 09		 je	 SHORT $LN33@assess_gro
  00326	c7 45 9c 19 00
	00 00		 mov	 DWORD PTR tv223[ebp], 25 ; 00000019H
  0032d	eb 21		 jmp	 SHORT $LN34@assess_gro
$LN33@assess_gro:
  0032f	8b 15 00 00 00
	00		 mov	 edx, DWORD PTR ?__LINE__Var@?0??assess_group_task_locality_factor@@YGHPAUENTITY@@0PAM@Z@4JA
  00335	83 c2 32	 add	 edx, 50			; 00000032H
  00338	52		 push	 edx
  00339	68 00 00 00 00	 push	 OFFSET ??_C@_0EJ@CCBIJPFD@c?3?2users?2nhv90?2projects?2eech?2ap@
  0033e	a1 00 00 00 00	 mov	 eax, DWORD PTR ?overload_invalid_float_type_message@@3PBDB ; overload_invalid_float_type_message
  00343	50		 push	 eax
  00344	e8 00 00 00 00	 call	 ?process_assert@@YGXPBD0H@Z ; process_assert
  00349	c7 45 9c 00 00
	00 00		 mov	 DWORD PTR tv223[ebp], 0
$LN34@assess_gro:
  00350	6a 19		 push	 25			; 00000019H
  00352	8b 4d f8	 mov	 ecx, DWORD PTR _member$[ebp]
  00355	51		 push	 ecx
  00356	69 55 a0 bc 02
	00 00		 imul	 edx, DWORD PTR tv215[ebp], 700
  0035d	8b 45 9c	 mov	 eax, DWORD PTR tv223[ebp]
  00360	8b 8c 82 00 00
	00 00		 mov	 ecx, DWORD PTR ?fn_get_local_entity_float_value@@3PAY0KP@P6GMPAUENTITY@@W4FLOAT_TYPES@@@ZA[edx+eax*4]
  00367	ff d1		 call	 ecx
  00369	d9 5d e4	 fstp	 DWORD PTR _cruise_speed$[ebp]

; 297  : 
; 298  : 	eta = distance / cruise_speed;

  0036c	f3 0f 10 45 e8	 movss	 xmm0, DWORD PTR _distance$[ebp]
  00371	f3 0f 5e 45 e4	 divss	 xmm0, DWORD PTR _cruise_speed$[ebp]
  00376	f3 0f 11 45 ec	 movss	 DWORD PTR _eta$[ebp], xmm0

; 299  : 
; 300  : 	#if DEBUG_MODULE
; 301  : 
; 302  : 	debug_log ("GROUP: en %s (%d) task %s (%d), speed = %f, distance = %f. ETA = %f sec, expire time %f sec",
; 303  : 					get_local_entity_string (member, STRING_TYPE_FULL_NAME),
; 304  : 					get_local_entity_index (member),
; 305  : 					get_local_entity_string (task_en, STRING_TYPE_FULL_NAME),
; 306  : 					get_local_entity_index (task_en),
; 307  : 					cruise_speed,
; 308  : 					distance,
; 309  : 					eta,
; 310  : 					get_local_entity_float_value (task_en, FLOAT_TYPE_EXPIRE_TIMER));
; 311  : 
; 312  : 	#endif
; 313  : 
; 314  : 	if (eta > get_local_entity_float_value (task_en, FLOAT_TYPE_EXPIRE_TIMER))

  0037b	83 7d 0c 00	 cmp	 DWORD PTR _task_en$[ebp], 0
  0037f	74 0a		 je	 SHORT $LN35@assess_gro
  00381	8b 45 0c	 mov	 eax, DWORD PTR _task_en$[ebp]
  00384	8b 08		 mov	 ecx, DWORD PTR [eax]
  00386	89 4d a0	 mov	 DWORD PTR tv235[ebp], ecx
  00389	eb 1d		 jmp	 SHORT $LN36@assess_gro
$LN35@assess_gro:
  0038b	68 3a 01 00 00	 push	 314			; 0000013aH
  00390	68 00 00 00 00	 push	 OFFSET ??_C@_0EJ@CCBIJPFD@c?3?2users?2nhv90?2projects?2eech?2ap@
  00395	8b 15 00 00 00
	00		 mov	 edx, DWORD PTR ?null_entity_pointer_message@@3PBDB ; null_entity_pointer_message
  0039b	52		 push	 edx
  0039c	e8 00 00 00 00	 call	 ?process_assert@@YGXPBD0H@Z ; process_assert
  003a1	c7 45 a0 00 00
	00 00		 mov	 DWORD PTR tv235[ebp], 0
$LN36@assess_gro:
  003a8	b8 01 00 00 00	 mov	 eax, 1
  003ad	85 c0		 test	 eax, eax
  003af	74 09		 je	 SHORT $LN37@assess_gro
  003b1	c7 45 9c 25 00
	00 00		 mov	 DWORD PTR tv242[ebp], 37 ; 00000025H
  003b8	eb 1d		 jmp	 SHORT $LN38@assess_gro
$LN37@assess_gro:
  003ba	68 3a 01 00 00	 push	 314			; 0000013aH
  003bf	68 00 00 00 00	 push	 OFFSET ??_C@_0EJ@CCBIJPFD@c?3?2users?2nhv90?2projects?2eech?2ap@
  003c4	8b 0d 00 00 00
	00		 mov	 ecx, DWORD PTR ?overload_invalid_float_type_message@@3PBDB ; overload_invalid_float_type_message
  003ca	51		 push	 ecx
  003cb	e8 00 00 00 00	 call	 ?process_assert@@YGXPBD0H@Z ; process_assert
  003d0	c7 45 9c 00 00
	00 00		 mov	 DWORD PTR tv242[ebp], 0
$LN38@assess_gro:
  003d7	6a 25		 push	 37			; 00000025H
  003d9	8b 55 0c	 mov	 edx, DWORD PTR _task_en$[ebp]
  003dc	52		 push	 edx
  003dd	69 45 a0 bc 02
	00 00		 imul	 eax, DWORD PTR tv235[ebp], 700
  003e4	8b 4d 9c	 mov	 ecx, DWORD PTR tv242[ebp]
  003e7	8b 94 88 00 00
	00 00		 mov	 edx, DWORD PTR ?fn_get_local_entity_float_value@@3PAY0KP@P6GMPAUENTITY@@W4FLOAT_TYPES@@@ZA[eax+ecx*4]
  003ee	ff d2		 call	 edx
  003f0	d9 5d 98	 fstp	 DWORD PTR tv339[ebp]
  003f3	f3 0f 10 45 ec	 movss	 xmm0, DWORD PTR _eta$[ebp]
  003f8	0f 2f 45 98	 comiss	 xmm0, DWORD PTR tv339[ebp]
  003fc	76 04		 jbe	 SHORT $LN6@assess_gro

; 315  : 	{
; 316  : 
; 317  : 		#if DEBUG_MODULE
; 318  : 
; 319  : 		debug_log ("GROUP: task %s (%d) group %s (%d), rejected, too far away.",
; 320  : 					get_local_entity_string (task_en, STRING_TYPE_FULL_NAME),
; 321  : 					get_local_entity_index (task_en),
; 322  : 					get_local_entity_string (group_en, STRING_TYPE_FULL_NAME),
; 323  : 					get_local_entity_index (group_en));
; 324  : 
; 325  : 		#endif
; 326  : 
; 327  : 		return FALSE;

  003fe	33 c0		 xor	 eax, eax
  00400	eb 17		 jmp	 SHORT $LN1@assess_gro
$LN6@assess_gro:

; 328  : 	}
; 329  : 
; 330  : 	if (return_distance)

  00402	83 7d 10 00	 cmp	 DWORD PTR _return_distance$[ebp], 0
  00406	74 0c		 je	 SHORT $LN7@assess_gro

; 331  : 	{
; 332  : 		*return_distance = distance;

  00408	8b 45 10	 mov	 eax, DWORD PTR _return_distance$[ebp]
  0040b	f3 0f 10 45 e8	 movss	 xmm0, DWORD PTR _distance$[ebp]
  00410	f3 0f 11 00	 movss	 DWORD PTR [eax], xmm0
$LN7@assess_gro:

; 333  : 	}
; 334  : 
; 335  : 	return TRUE;

  00414	b8 01 00 00 00	 mov	 eax, 1
$LN1@assess_gro:

; 336  : }

  00419	5f		 pop	 edi
  0041a	5e		 pop	 esi
  0041b	5b		 pop	 ebx
  0041c	8b e5		 mov	 esp, ebp
  0041e	5d		 pop	 ebp
  0041f	c2 0c 00	 ret	 12			; 0000000cH
?assess_group_task_locality_factor@@YGHPAUENTITY@@0PAM@Z ENDP ; assess_group_task_locality_factor
_TEXT	ENDS
; Function compile flags: /Odtp /ZI
; File c:\users\nhv90\projects\eech\aphavoc\source\entity\special\group\group.c
;	COMDAT ?get_local_group_member_max_formation_position@@YGHPAUENTITY@@@Z
_TEXT	SEGMENT
tv170 = -80						; size = 4
tv150 = -80						; size = 4
tv129 = -80						; size = 4
tv78 = -80						; size = 4
tv162 = -76						; size = 4
tv142 = -76						; size = 4
tv90 = -76						; size = 4
tv70 = -76						; size = 4
_max_formation_position$ = -8				; size = 4
_member$ = -4						; size = 4
_group$ = 8						; size = 4
?get_local_group_member_max_formation_position@@YGHPAUENTITY@@@Z PROC ; get_local_group_member_max_formation_position, COMDAT

; 214  : {

  00000	55		 push	 ebp
  00001	8b ec		 mov	 ebp, esp
  00003	83 ec 50	 sub	 esp, 80			; 00000050H
  00006	53		 push	 ebx
  00007	56		 push	 esi
  00008	57		 push	 edi

; 215  : 
; 216  : 	entity
; 217  : 		*member;
; 218  : 
; 219  : 	int
; 220  : 		max_formation_position;
; 221  : 
; 222  : 	max_formation_position = 0;

  00009	c7 45 f8 00 00
	00 00		 mov	 DWORD PTR _max_formation_position$[ebp], 0

; 223  : 
; 224  : 	member = get_local_entity_first_child (group, LIST_TYPE_MEMBER);

  00010	83 7d 08 00	 cmp	 DWORD PTR _group$[ebp], 0
  00014	74 0a		 je	 SHORT $LN6@get_local_
  00016	8b 45 08	 mov	 eax, DWORD PTR _group$[ebp]
  00019	8b 08		 mov	 ecx, DWORD PTR [eax]
  0001b	89 4d b4	 mov	 DWORD PTR tv70[ebp], ecx
  0001e	eb 21		 jmp	 SHORT $LN7@get_local_
$LN6@get_local_:
  00020	8b 15 00 00 00
	00		 mov	 edx, DWORD PTR ?__LINE__Var@?0??get_local_group_member_max_formation_position@@YGHPAUENTITY@@@Z@4JA
  00026	83 c2 0a	 add	 edx, 10			; 0000000aH
  00029	52		 push	 edx
  0002a	68 00 00 00 00	 push	 OFFSET ??_C@_0EJ@CCBIJPFD@c?3?2users?2nhv90?2projects?2eech?2ap@
  0002f	a1 00 00 00 00	 mov	 eax, DWORD PTR ?null_entity_pointer_message@@3PBDB ; null_entity_pointer_message
  00034	50		 push	 eax
  00035	e8 00 00 00 00	 call	 ?process_assert@@YGXPBD0H@Z ; process_assert
  0003a	c7 45 b4 00 00
	00 00		 mov	 DWORD PTR tv70[ebp], 0
$LN7@get_local_:
  00041	b9 01 00 00 00	 mov	 ecx, 1
  00046	85 c9		 test	 ecx, ecx
  00048	74 09		 je	 SHORT $LN8@get_local_
  0004a	c7 45 b0 19 00
	00 00		 mov	 DWORD PTR tv78[ebp], 25	; 00000019H
  00051	eb 21		 jmp	 SHORT $LN9@get_local_
$LN8@get_local_:
  00053	8b 15 00 00 00
	00		 mov	 edx, DWORD PTR ?__LINE__Var@?0??get_local_group_member_max_formation_position@@YGHPAUENTITY@@@Z@4JA
  00059	83 c2 0a	 add	 edx, 10			; 0000000aH
  0005c	52		 push	 edx
  0005d	68 00 00 00 00	 push	 OFFSET ??_C@_0EJ@CCBIJPFD@c?3?2users?2nhv90?2projects?2eech?2ap@
  00062	a1 00 00 00 00	 mov	 eax, DWORD PTR ?overload_invalid_list_type_message@@3PBDB ; overload_invalid_list_type_message
  00067	50		 push	 eax
  00068	e8 00 00 00 00	 call	 ?process_assert@@YGXPBD0H@Z ; process_assert
  0006d	c7 45 b0 00 00
	00 00		 mov	 DWORD PTR tv78[ebp], 0
$LN9@get_local_:
  00074	6a 19		 push	 25			; 00000019H
  00076	8b 4d 08	 mov	 ecx, DWORD PTR _group$[ebp]
  00079	51		 push	 ecx
  0007a	69 55 b4 b4 00
	00 00		 imul	 edx, DWORD PTR tv70[ebp], 180
  00081	8b 45 b0	 mov	 eax, DWORD PTR tv78[ebp]
  00084	8b 8c 82 00 00
	00 00		 mov	 ecx, DWORD PTR ?fn_get_local_entity_first_child@@3PAY0CN@P6GPAUENTITY@@PAU1@W4LIST_TYPES@@@ZA[edx+eax*4]
  0008b	ff d1		 call	 ecx
  0008d	89 45 fc	 mov	 DWORD PTR _member$[ebp], eax
$LN2@get_local_:

; 225  : 
; 226  : 	while (member)

  00090	83 7d fc 00	 cmp	 DWORD PTR _member$[ebp], 0
  00094	0f 84 83 01 00
	00		 je	 $LN3@get_local_

; 227  : 	{
; 228  : 
; 229  : 		if (max_formation_position < get_local_entity_int_value (member, INT_TYPE_FORMATION_POSITION))

  0009a	83 7d fc 00	 cmp	 DWORD PTR _member$[ebp], 0
  0009e	74 0a		 je	 SHORT $LN10@get_local_
  000a0	8b 45 fc	 mov	 eax, DWORD PTR _member$[ebp]
  000a3	8b 08		 mov	 ecx, DWORD PTR [eax]
  000a5	89 4d b4	 mov	 DWORD PTR tv90[ebp], ecx
  000a8	eb 1d		 jmp	 SHORT $LN11@get_local_
$LN10@get_local_:
  000aa	68 e5 00 00 00	 push	 229			; 000000e5H
  000af	68 00 00 00 00	 push	 OFFSET ??_C@_0EJ@CCBIJPFD@c?3?2users?2nhv90?2projects?2eech?2ap@
  000b4	8b 15 00 00 00
	00		 mov	 edx, DWORD PTR ?null_entity_pointer_message@@3PBDB ; null_entity_pointer_message
  000ba	52		 push	 edx
  000bb	e8 00 00 00 00	 call	 ?process_assert@@YGXPBD0H@Z ; process_assert
  000c0	c7 45 b4 00 00
	00 00		 mov	 DWORD PTR tv90[ebp], 0
$LN11@get_local_:
  000c7	b8 01 00 00 00	 mov	 eax, 1
  000cc	85 c0		 test	 eax, eax
  000ce	74 09		 je	 SHORT $LN12@get_local_
  000d0	c7 45 b0 3e 00
	00 00		 mov	 DWORD PTR tv129[ebp], 62 ; 0000003eH
  000d7	eb 1d		 jmp	 SHORT $LN13@get_local_
$LN12@get_local_:
  000d9	68 e5 00 00 00	 push	 229			; 000000e5H
  000de	68 00 00 00 00	 push	 OFFSET ??_C@_0EJ@CCBIJPFD@c?3?2users?2nhv90?2projects?2eech?2ap@
  000e3	8b 0d 00 00 00
	00		 mov	 ecx, DWORD PTR ?overload_invalid_int_type_message@@3PBDB ; overload_invalid_int_type_message
  000e9	51		 push	 ecx
  000ea	e8 00 00 00 00	 call	 ?process_assert@@YGXPBD0H@Z ; process_assert
  000ef	c7 45 b0 00 00
	00 00		 mov	 DWORD PTR tv129[ebp], 0
$LN13@get_local_:
  000f6	6a 3e		 push	 62			; 0000003eH
  000f8	8b 55 fc	 mov	 edx, DWORD PTR _member$[ebp]
  000fb	52		 push	 edx
  000fc	69 45 b4 5c 04
	00 00		 imul	 eax, DWORD PTR tv90[ebp], 1116
  00103	8b 4d b0	 mov	 ecx, DWORD PTR tv129[ebp]
  00106	8b 94 88 00 00
	00 00		 mov	 edx, DWORD PTR ?fn_get_local_entity_int_value@@3PAY0BBH@P6GHPAUENTITY@@W4INT_TYPES@@@ZA[eax+ecx*4]
  0010d	ff d2		 call	 edx
  0010f	39 45 f8	 cmp	 DWORD PTR _max_formation_position$[ebp], eax
  00112	0f 8d 80 00 00
	00		 jge	 $LN4@get_local_

; 230  : 		{
; 231  : 
; 232  : 			max_formation_position = get_local_entity_int_value (member, INT_TYPE_FORMATION_POSITION);

  00118	83 7d fc 00	 cmp	 DWORD PTR _member$[ebp], 0
  0011c	74 0a		 je	 SHORT $LN14@get_local_
  0011e	8b 45 fc	 mov	 eax, DWORD PTR _member$[ebp]
  00121	8b 08		 mov	 ecx, DWORD PTR [eax]
  00123	89 4d b4	 mov	 DWORD PTR tv142[ebp], ecx
  00126	eb 21		 jmp	 SHORT $LN15@get_local_
$LN14@get_local_:
  00128	8b 15 00 00 00
	00		 mov	 edx, DWORD PTR ?__LINE__Var@?0??get_local_group_member_max_formation_position@@YGHPAUENTITY@@@Z@4JA
  0012e	83 c2 12	 add	 edx, 18			; 00000012H
  00131	52		 push	 edx
  00132	68 00 00 00 00	 push	 OFFSET ??_C@_0EJ@CCBIJPFD@c?3?2users?2nhv90?2projects?2eech?2ap@
  00137	a1 00 00 00 00	 mov	 eax, DWORD PTR ?null_entity_pointer_message@@3PBDB ; null_entity_pointer_message
  0013c	50		 push	 eax
  0013d	e8 00 00 00 00	 call	 ?process_assert@@YGXPBD0H@Z ; process_assert
  00142	c7 45 b4 00 00
	00 00		 mov	 DWORD PTR tv142[ebp], 0
$LN15@get_local_:
  00149	b9 01 00 00 00	 mov	 ecx, 1
  0014e	85 c9		 test	 ecx, ecx
  00150	74 09		 je	 SHORT $LN16@get_local_
  00152	c7 45 b0 3e 00
	00 00		 mov	 DWORD PTR tv150[ebp], 62 ; 0000003eH
  00159	eb 21		 jmp	 SHORT $LN17@get_local_
$LN16@get_local_:
  0015b	8b 15 00 00 00
	00		 mov	 edx, DWORD PTR ?__LINE__Var@?0??get_local_group_member_max_formation_position@@YGHPAUENTITY@@@Z@4JA
  00161	83 c2 12	 add	 edx, 18			; 00000012H
  00164	52		 push	 edx
  00165	68 00 00 00 00	 push	 OFFSET ??_C@_0EJ@CCBIJPFD@c?3?2users?2nhv90?2projects?2eech?2ap@
  0016a	a1 00 00 00 00	 mov	 eax, DWORD PTR ?overload_invalid_int_type_message@@3PBDB ; overload_invalid_int_type_message
  0016f	50		 push	 eax
  00170	e8 00 00 00 00	 call	 ?process_assert@@YGXPBD0H@Z ; process_assert
  00175	c7 45 b0 00 00
	00 00		 mov	 DWORD PTR tv150[ebp], 0
$LN17@get_local_:
  0017c	6a 3e		 push	 62			; 0000003eH
  0017e	8b 4d fc	 mov	 ecx, DWORD PTR _member$[ebp]
  00181	51		 push	 ecx
  00182	69 55 b4 5c 04
	00 00		 imul	 edx, DWORD PTR tv142[ebp], 1116
  00189	8b 45 b0	 mov	 eax, DWORD PTR tv150[ebp]
  0018c	8b 8c 82 00 00
	00 00		 mov	 ecx, DWORD PTR ?fn_get_local_entity_int_value@@3PAY0BBH@P6GHPAUENTITY@@W4INT_TYPES@@@ZA[edx+eax*4]
  00193	ff d1		 call	 ecx
  00195	89 45 f8	 mov	 DWORD PTR _max_formation_position$[ebp], eax
$LN4@get_local_:

; 233  : 		}
; 234  : 
; 235  : 		member = get_local_entity_child_succ (member, LIST_TYPE_MEMBER);

  00198	83 7d fc 00	 cmp	 DWORD PTR _member$[ebp], 0
  0019c	74 0a		 je	 SHORT $LN18@get_local_
  0019e	8b 45 fc	 mov	 eax, DWORD PTR _member$[ebp]
  001a1	8b 08		 mov	 ecx, DWORD PTR [eax]
  001a3	89 4d b4	 mov	 DWORD PTR tv162[ebp], ecx
  001a6	eb 21		 jmp	 SHORT $LN19@get_local_
$LN18@get_local_:
  001a8	8b 15 00 00 00
	00		 mov	 edx, DWORD PTR ?__LINE__Var@?0??get_local_group_member_max_formation_position@@YGHPAUENTITY@@@Z@4JA
  001ae	83 c2 15	 add	 edx, 21			; 00000015H
  001b1	52		 push	 edx
  001b2	68 00 00 00 00	 push	 OFFSET ??_C@_0EJ@CCBIJPFD@c?3?2users?2nhv90?2projects?2eech?2ap@
  001b7	a1 00 00 00 00	 mov	 eax, DWORD PTR ?null_entity_pointer_message@@3PBDB ; null_entity_pointer_message
  001bc	50		 push	 eax
  001bd	e8 00 00 00 00	 call	 ?process_assert@@YGXPBD0H@Z ; process_assert
  001c2	c7 45 b4 00 00
	00 00		 mov	 DWORD PTR tv162[ebp], 0
$LN19@get_local_:
  001c9	b9 01 00 00 00	 mov	 ecx, 1
  001ce	85 c9		 test	 ecx, ecx
  001d0	74 09		 je	 SHORT $LN20@get_local_
  001d2	c7 45 b0 19 00
	00 00		 mov	 DWORD PTR tv170[ebp], 25 ; 00000019H
  001d9	eb 21		 jmp	 SHORT $LN21@get_local_
$LN20@get_local_:
  001db	8b 15 00 00 00
	00		 mov	 edx, DWORD PTR ?__LINE__Var@?0??get_local_group_member_max_formation_position@@YGHPAUENTITY@@@Z@4JA
  001e1	83 c2 15	 add	 edx, 21			; 00000015H
  001e4	52		 push	 edx
  001e5	68 00 00 00 00	 push	 OFFSET ??_C@_0EJ@CCBIJPFD@c?3?2users?2nhv90?2projects?2eech?2ap@
  001ea	a1 00 00 00 00	 mov	 eax, DWORD PTR ?overload_invalid_list_type_message@@3PBDB ; overload_invalid_list_type_message
  001ef	50		 push	 eax
  001f0	e8 00 00 00 00	 call	 ?process_assert@@YGXPBD0H@Z ; process_assert
  001f5	c7 45 b0 00 00
	00 00		 mov	 DWORD PTR tv170[ebp], 0
$LN21@get_local_:
  001fc	6a 19		 push	 25			; 00000019H
  001fe	8b 4d fc	 mov	 ecx, DWORD PTR _member$[ebp]
  00201	51		 push	 ecx
  00202	69 55 b4 b4 00
	00 00		 imul	 edx, DWORD PTR tv162[ebp], 180
  00209	8b 45 b0	 mov	 eax, DWORD PTR tv170[ebp]
  0020c	8b 8c 82 00 00
	00 00		 mov	 ecx, DWORD PTR ?fn_get_local_entity_child_succ@@3PAY0CN@P6GPAUENTITY@@PAU1@W4LIST_TYPES@@@ZA[edx+eax*4]
  00213	ff d1		 call	 ecx
  00215	89 45 fc	 mov	 DWORD PTR _member$[ebp], eax

; 236  : 	}

  00218	e9 73 fe ff ff	 jmp	 $LN2@get_local_
$LN3@get_local_:

; 237  : 
; 238  : 	return max_formation_position;

  0021d	8b 45 f8	 mov	 eax, DWORD PTR _max_formation_position$[ebp]

; 239  : }

  00220	5f		 pop	 edi
  00221	5e		 pop	 esi
  00222	5b		 pop	 ebx
  00223	8b e5		 mov	 esp, ebp
  00225	5d		 pop	 ebp
  00226	c2 04 00	 ret	 4
?get_local_group_member_max_formation_position@@YGHPAUENTITY@@@Z ENDP ; get_local_group_member_max_formation_position
_TEXT	ENDS
; Function compile flags: /Odtp /ZI
; File c:\users\nhv90\projects\eech\aphavoc\source\entity\special\group\group.c
;	COMDAT ?get_local_group_member_count@@YGHPAUENTITY@@@Z
_TEXT	SEGMENT
tv132 = -80						; size = 4
tv78 = -80						; size = 4
tv92 = -76						; size = 4
tv70 = -76						; size = 4
_count$ = -8						; size = 4
_member$ = -4						; size = 4
_group$ = 8						; size = 4
?get_local_group_member_count@@YGHPAUENTITY@@@Z PROC	; get_local_group_member_count, COMDAT

; 186  : {

  00000	55		 push	 ebp
  00001	8b ec		 mov	 ebp, esp
  00003	83 ec 50	 sub	 esp, 80			; 00000050H
  00006	53		 push	 ebx
  00007	56		 push	 esi
  00008	57		 push	 edi

; 187  : 
; 188  : 	entity
; 189  : 		*member;
; 190  : 
; 191  : 	int
; 192  : 		count;
; 193  : 
; 194  : 	count = 0;

  00009	c7 45 f8 00 00
	00 00		 mov	 DWORD PTR _count$[ebp], 0

; 195  : 
; 196  : 	member = get_local_entity_first_child (group, LIST_TYPE_MEMBER);

  00010	83 7d 08 00	 cmp	 DWORD PTR _group$[ebp], 0
  00014	74 0a		 je	 SHORT $LN5@get_local_
  00016	8b 45 08	 mov	 eax, DWORD PTR _group$[ebp]
  00019	8b 08		 mov	 ecx, DWORD PTR [eax]
  0001b	89 4d b4	 mov	 DWORD PTR tv70[ebp], ecx
  0001e	eb 21		 jmp	 SHORT $LN6@get_local_
$LN5@get_local_:
  00020	8b 15 00 00 00
	00		 mov	 edx, DWORD PTR ?__LINE__Var@?0??get_local_group_member_count@@YGHPAUENTITY@@@Z@4JA
  00026	83 c2 0a	 add	 edx, 10			; 0000000aH
  00029	52		 push	 edx
  0002a	68 00 00 00 00	 push	 OFFSET ??_C@_0EJ@CCBIJPFD@c?3?2users?2nhv90?2projects?2eech?2ap@
  0002f	a1 00 00 00 00	 mov	 eax, DWORD PTR ?null_entity_pointer_message@@3PBDB ; null_entity_pointer_message
  00034	50		 push	 eax
  00035	e8 00 00 00 00	 call	 ?process_assert@@YGXPBD0H@Z ; process_assert
  0003a	c7 45 b4 00 00
	00 00		 mov	 DWORD PTR tv70[ebp], 0
$LN6@get_local_:
  00041	b9 01 00 00 00	 mov	 ecx, 1
  00046	85 c9		 test	 ecx, ecx
  00048	74 09		 je	 SHORT $LN7@get_local_
  0004a	c7 45 b0 19 00
	00 00		 mov	 DWORD PTR tv78[ebp], 25	; 00000019H
  00051	eb 21		 jmp	 SHORT $LN8@get_local_
$LN7@get_local_:
  00053	8b 15 00 00 00
	00		 mov	 edx, DWORD PTR ?__LINE__Var@?0??get_local_group_member_count@@YGHPAUENTITY@@@Z@4JA
  00059	83 c2 0a	 add	 edx, 10			; 0000000aH
  0005c	52		 push	 edx
  0005d	68 00 00 00 00	 push	 OFFSET ??_C@_0EJ@CCBIJPFD@c?3?2users?2nhv90?2projects?2eech?2ap@
  00062	a1 00 00 00 00	 mov	 eax, DWORD PTR ?overload_invalid_list_type_message@@3PBDB ; overload_invalid_list_type_message
  00067	50		 push	 eax
  00068	e8 00 00 00 00	 call	 ?process_assert@@YGXPBD0H@Z ; process_assert
  0006d	c7 45 b0 00 00
	00 00		 mov	 DWORD PTR tv78[ebp], 0
$LN8@get_local_:
  00074	6a 19		 push	 25			; 00000019H
  00076	8b 4d 08	 mov	 ecx, DWORD PTR _group$[ebp]
  00079	51		 push	 ecx
  0007a	69 55 b4 b4 00
	00 00		 imul	 edx, DWORD PTR tv70[ebp], 180
  00081	8b 45 b0	 mov	 eax, DWORD PTR tv78[ebp]
  00084	8b 8c 82 00 00
	00 00		 mov	 ecx, DWORD PTR ?fn_get_local_entity_first_child@@3PAY0CN@P6GPAUENTITY@@PAU1@W4LIST_TYPES@@@ZA[edx+eax*4]
  0008b	ff d1		 call	 ecx
  0008d	89 45 fc	 mov	 DWORD PTR _member$[ebp], eax
$LN2@get_local_:

; 197  : 
; 198  : 	while (member)

  00090	83 7d fc 00	 cmp	 DWORD PTR _member$[ebp], 0
  00094	0f 84 8e 00 00
	00		 je	 $LN3@get_local_

; 199  : 	{
; 200  : 
; 201  : 		count ++;

  0009a	8b 45 f8	 mov	 eax, DWORD PTR _count$[ebp]
  0009d	83 c0 01	 add	 eax, 1
  000a0	89 45 f8	 mov	 DWORD PTR _count$[ebp], eax

; 202  : 
; 203  : 		member = get_local_entity_child_succ (member, LIST_TYPE_MEMBER);

  000a3	83 7d fc 00	 cmp	 DWORD PTR _member$[ebp], 0
  000a7	74 0a		 je	 SHORT $LN9@get_local_
  000a9	8b 45 fc	 mov	 eax, DWORD PTR _member$[ebp]
  000ac	8b 08		 mov	 ecx, DWORD PTR [eax]
  000ae	89 4d b4	 mov	 DWORD PTR tv92[ebp], ecx
  000b1	eb 21		 jmp	 SHORT $LN10@get_local_
$LN9@get_local_:
  000b3	8b 15 00 00 00
	00		 mov	 edx, DWORD PTR ?__LINE__Var@?0??get_local_group_member_count@@YGHPAUENTITY@@@Z@4JA
  000b9	83 c2 11	 add	 edx, 17			; 00000011H
  000bc	52		 push	 edx
  000bd	68 00 00 00 00	 push	 OFFSET ??_C@_0EJ@CCBIJPFD@c?3?2users?2nhv90?2projects?2eech?2ap@
  000c2	a1 00 00 00 00	 mov	 eax, DWORD PTR ?null_entity_pointer_message@@3PBDB ; null_entity_pointer_message
  000c7	50		 push	 eax
  000c8	e8 00 00 00 00	 call	 ?process_assert@@YGXPBD0H@Z ; process_assert
  000cd	c7 45 b4 00 00
	00 00		 mov	 DWORD PTR tv92[ebp], 0
$LN10@get_local_:
  000d4	b9 01 00 00 00	 mov	 ecx, 1
  000d9	85 c9		 test	 ecx, ecx
  000db	74 09		 je	 SHORT $LN11@get_local_
  000dd	c7 45 b0 19 00
	00 00		 mov	 DWORD PTR tv132[ebp], 25 ; 00000019H
  000e4	eb 21		 jmp	 SHORT $LN12@get_local_
$LN11@get_local_:
  000e6	8b 15 00 00 00
	00		 mov	 edx, DWORD PTR ?__LINE__Var@?0??get_local_group_member_count@@YGHPAUENTITY@@@Z@4JA
  000ec	83 c2 11	 add	 edx, 17			; 00000011H
  000ef	52		 push	 edx
  000f0	68 00 00 00 00	 push	 OFFSET ??_C@_0EJ@CCBIJPFD@c?3?2users?2nhv90?2projects?2eech?2ap@
  000f5	a1 00 00 00 00	 mov	 eax, DWORD PTR ?overload_invalid_list_type_message@@3PBDB ; overload_invalid_list_type_message
  000fa	50		 push	 eax
  000fb	e8 00 00 00 00	 call	 ?process_assert@@YGXPBD0H@Z ; process_assert
  00100	c7 45 b0 00 00
	00 00		 mov	 DWORD PTR tv132[ebp], 0
$LN12@get_local_:
  00107	6a 19		 push	 25			; 00000019H
  00109	8b 4d fc	 mov	 ecx, DWORD PTR _member$[ebp]
  0010c	51		 push	 ecx
  0010d	69 55 b4 b4 00
	00 00		 imul	 edx, DWORD PTR tv92[ebp], 180
  00114	8b 45 b0	 mov	 eax, DWORD PTR tv132[ebp]
  00117	8b 8c 82 00 00
	00 00		 mov	 ecx, DWORD PTR ?fn_get_local_entity_child_succ@@3PAY0CN@P6GPAUENTITY@@PAU1@W4LIST_TYPES@@@ZA[edx+eax*4]
  0011e	ff d1		 call	 ecx
  00120	89 45 fc	 mov	 DWORD PTR _member$[ebp], eax

; 204  : 	}

  00123	e9 68 ff ff ff	 jmp	 $LN2@get_local_
$LN3@get_local_:

; 205  : 
; 206  : 	return count;

  00128	8b 45 f8	 mov	 eax, DWORD PTR _count$[ebp]

; 207  : }

  0012b	5f		 pop	 edi
  0012c	5e		 pop	 esi
  0012d	5b		 pop	 ebx
  0012e	8b e5		 mov	 esp, ebp
  00130	5d		 pop	 ebp
  00131	c2 04 00	 ret	 4
?get_local_group_member_count@@YGHPAUENTITY@@@Z ENDP	; get_local_group_member_count
_TEXT	ENDS
END
