; Listing generated by Microsoft (R) Optimizing Compiler Version 19.16.27045.0 

	TITLE	C:\Users\nhv90\Projects\eech\aphavoc\source\ui_menu\gunships\guns_sc.c
	.686P
	.XMM
	include listing.inc
	.model	flat

INCLUDELIB MSVCRTD
INCLUDELIB OLDNAMES

PUBLIC	?gunship_screen_progress_message@@3HA		; gunship_screen_progress_message
PUBLIC	?valid_helicopter@@3HA				; valid_helicopter
PUBLIC	?gunship_screen_next_button@@3PAUUI_OBJECT@@A	; gunship_screen_next_button
PUBLIC	?gunships_screen@@3PAUUI_OBJECT@@A		; gunships_screen
PUBLIC	?gunships_area@@3PAUUI_OBJECT@@A		; gunships_area
PUBLIC	?gunship_screen_back_button@@3PAUUI_OBJECT@@A	; gunship_screen_back_button
PUBLIC	?gunship_screen_button_title_area@@3PAUUI_OBJECT@@A ; gunship_screen_button_title_area
PUBLIC	?gunship_screen_button_area@@3PAUUI_OBJECT@@A	; gunship_screen_button_area
PUBLIC	?gunship_screen_gunship_type_button@@3PAUUI_OBJECT@@A ; gunship_screen_gunship_type_button
PUBLIC	?gunship_screen_gunship_text@@3PAUUI_OBJECT@@A	; gunship_screen_gunship_text
PUBLIC	?gunship_screen_gunship_text_area@@3PAUUI_OBJECT@@A ; gunship_screen_gunship_text_area
PUBLIC	?gunship_screen_gunship_type_area@@3PAUUI_OBJECT@@A ; gunship_screen_gunship_type_area
PUBLIC	?side_selected_area@@3PAUUI_OBJECT@@A		; side_selected_area
PUBLIC	?gunship_screen_waiting_area@@3PAUUI_OBJECT@@A	; gunship_screen_waiting_area
PUBLIC	?gunship_screen_waiting_area_text@@3PAUUI_OBJECT@@A ; gunship_screen_waiting_area_text
PUBLIC	?gunships_screen_graphic@@3PAUTEXTURE_GRAPHIC@@A ; gunships_screen_graphic
PUBLIC	?stop_gunship_model_rotating@@3HA		; stop_gunship_model_rotating
PUBLIC	?gunships_screen_progress_indicator_counter@@3HA ; gunships_screen_progress_indicator_counter
PUBLIC	?gunships_screen_side_selected@@3HA		; gunships_screen_side_selected
_BSS	SEGMENT
?gunship_screen_progress_message@@3HA DD 01H DUP (?)	; gunship_screen_progress_message
?valid_helicopter@@3HA DD 01H DUP (?)			; valid_helicopter
?gunship_screen_next_button@@3PAUUI_OBJECT@@A DD 01H DUP (?) ; gunship_screen_next_button
?gunships_screen@@3PAUUI_OBJECT@@A DD 01H DUP (?)	; gunships_screen
?gunships_area@@3PAUUI_OBJECT@@A DD 01H DUP (?)		; gunships_area
?gunship_screen_back_button@@3PAUUI_OBJECT@@A DD 01H DUP (?) ; gunship_screen_back_button
?gunship_screen_button_title_area@@3PAUUI_OBJECT@@A DD 01H DUP (?) ; gunship_screen_button_title_area
?gunship_screen_button_area@@3PAUUI_OBJECT@@A DD 01H DUP (?) ; gunship_screen_button_area
?gunship_screen_gunship_type_button@@3PAUUI_OBJECT@@A DD 01H DUP (?) ; gunship_screen_gunship_type_button
?gunship_screen_gunship_text@@3PAUUI_OBJECT@@A DD 01H DUP (?) ; gunship_screen_gunship_text
?gunship_screen_gunship_text_area@@3PAUUI_OBJECT@@A DD 01H DUP (?) ; gunship_screen_gunship_text_area
?gunship_screen_gunship_type_area@@3PAUUI_OBJECT@@A DD 01H DUP (?) ; gunship_screen_gunship_type_area
?side_selected_area@@3PAUUI_OBJECT@@A DD 01H DUP (?)	; side_selected_area
?gunship_screen_waiting_area@@3PAUUI_OBJECT@@A DD 01H DUP (?) ; gunship_screen_waiting_area
?gunship_screen_waiting_area_text@@3PAUUI_OBJECT@@A DD 01H DUP (?) ; gunship_screen_waiting_area_text
?gunships_screen_graphic@@3PAUTEXTURE_GRAPHIC@@A DD 01H DUP (?) ; gunships_screen_graphic
?stop_gunship_model_rotating@@3HA DD 01H DUP (?)	; stop_gunship_model_rotating
?gunships_screen_progress_indicator_counter@@3HA DD 01H DUP (?) ; gunships_screen_progress_indicator_counter
?gunships_screen_side_selected@@3HA DD 01H DUP (?)	; gunships_screen_side_selected
_BSS	ENDS
PUBLIC	___local_stdio_printf_options
PUBLIC	__vsnprintf_l
PUBLIC	__vsprintf_l
PUBLIC	_sprintf
PUBLIC	?initialise_gunships_screen@@YGXXZ		; initialise_gunships_screen
PUBLIC	?set_gunship_waiting_for_connection@@YGXH@Z	; set_gunship_waiting_for_connection
PUBLIC	?update_gunships_screen_progress_indicator@@YGXXZ ; update_gunships_screen_progress_indicator
PUBLIC	?set_gunship_screen_progress_message@@YGXH@Z	; set_gunship_screen_progress_message
PUBLIC	?gunships_button_function@@YGXPAUUI_OBJECT@@PAX@Z ; gunships_button_function
PUBLIC	?set_display_gunship_buttons@@YGXHPAD@Z		; set_display_gunship_buttons
PUBLIC	?gunship_screen_render_gunship@@YGXPAUUI_OBJECT@@PAX@Z ; gunship_screen_render_gunship
PUBLIC	?notify_gunships_next_button@@YGXPAUUI_OBJECT@@PAX@Z ; notify_gunships_next_button
PUBLIC	?_OptionsStorage@?1??__local_stdio_printf_options@@9@4_KA ; `__local_stdio_printf_options'::`2'::_OptionsStorage
PUBLIC	??_C@_04FHBEPJGO@Side@				; `string'
PUBLIC	??_C@_00CNPNBAHC@@				; `string'
PUBLIC	??_C@_06LCPJPOPK@SELECT@			; `string'
PUBLIC	??_C@_09EIGHGGEH@UI_CANCEL@			; `string'
PUBLIC	??_C@_0L@GNELJAHL@Blue?5Force@			; `string'
PUBLIC	??_C@_09HNDCBJKL@Red?5Force@			; `string'
PUBLIC	??_C@_0CA@LLMCDOKE@graphics?2ui?2cohokum?2gunship?4psd@ ; `string'
PUBLIC	??_C@_0L@NPJJHNMF@Connecting@			; `string'
PUBLIC	??_C@_07JMKCEEPK@?$CFs?5?$CI?$CFd?$CJ@		; `string'
PUBLIC	??_C@_0BE@GIMNANDF@Generating?5Campaign@	; `string'
PUBLIC	??_C@_02DDPEGJCB@?5?4@				; `string'
PUBLIC	??_C@_01LOCGONAA@?$AA@				; `string'
PUBLIC	__real@3d0efa35
PUBLIC	__real@3d4ccccd
PUBLIC	__real@3d71a9fc
PUBLIC	__real@3d8efa35
PUBLIC	__real@3db22d0e
PUBLIC	__real@3dd0e560
PUBLIC	__real@3e4ccccd
PUBLIC	__real@3e6a7efa
PUBLIC	__real@3e800000
PUBLIC	__real@3e841893
PUBLIC	__real@3e989375
PUBLIC	__real@3ea7ef9e
PUBLIC	__real@3ebd70a4
PUBLIC	__real@3ecccccd
PUBLIC	__real@3ee147ae
PUBLIC	__real@3ee872b0
PUBLIC	__real@3f00c49c
PUBLIC	__real@3f3be76d
PUBLIC	__real@3f420c4a
PUBLIC	__real@3f50624dd2f1a9fc
PUBLIC	__real@3f53f7cf
PUBLIC	__real@3f543958
PUBLIC	__real@3f608312
PUBLIC	__real@3f800000
PUBLIC	__real@3f8604da
PUBLIC	__real@3f999999a0000000
PUBLIC	__real@3fa374bc60000000
PUBLIC	__real@3fa3f7cee0000000
PUBLIC	__real@3fa99999a0000000
PUBLIC	__real@3fad2f1aa0000000
PUBLIC	__real@3fadb22d0e560419
PUBLIC	__real@3fc00000
PUBLIC	__real@3fc10624dd2f1aa0
PUBLIC	__real@3fc3333340000000
PUBLIC	__real@3fdee978e0000000
PUBLIC	__real@3fe8000000000000
PUBLIC	__real@3fea872b00000000
PUBLIC	__real@3fec106240000000
PUBLIC	__real@3fed1eb851eb851f
PUBLIC	__real@3fed9999a0000000
PUBLIC	__real@400ccccd
PUBLIC	__real@40833faf
PUBLIC	__real@41900000
PUBLIC	__real@461c4000
PUBLIC	__real@bd567750
EXTRN	__imp____stdio_common_vsprintf:PROC
EXTRN	_strcat:PROC
EXTRN	_strcpy:PROC
EXTRN	?get_system_time@@YGIXZ:PROC			; get_system_time
EXTRN	?get_3d_transformation_matrix@@YGXQAY02MMMM@Z:PROC ; get_3d_transformation_matrix
EXTRN	?blit_front_buffer_to_render_buffer@@YGXXZ:PROC	; blit_front_buffer_to_render_buffer
EXTRN	?set_d3d_alpha_fog_zbuffer@@YGXHHHH@Z:PROC	; set_d3d_alpha_fog_zbuffer
EXTRN	?free_all_hardware_textures@@YGXXZ:PROC		; free_all_hardware_textures
EXTRN	?create_texture_graphic@@YGPAUTEXTURE_GRAPHIC@@PBD@Z:PROC ; create_texture_graphic
EXTRN	?destroy_texture_graphic@@YGXPAUTEXTURE_GRAPHIC@@@Z:PROC ; destroy_texture_graphic
EXTRN	?load_warzone_override_textures@@YGXXZ:PROC	; load_warzone_override_textures
EXTRN	?clear_zbuffer_screen@@YGXXZ:PROC		; clear_zbuffer_screen
EXTRN	?ui_repaint@@YGXXZ:PROC				; ui_repaint
EXTRN	?create_ui_object@@YAPAUUI_OBJECT@@HZZ:PROC	; create_ui_object
EXTRN	?reset_time_values@@YGXPAUUI_OBJECT@@@Z:PROC	; reset_time_values
EXTRN	?pop_ui_screen@@YGXW4SCREEN_POP_TYPES@@@Z:PROC	; pop_ui_screen
EXTRN	?set_toggle_button_off@@YGXPAUUI_OBJECT@@@Z:PROC ; set_toggle_button_off
EXTRN	?set_texture_animation_frame_on_object@@YGHPAUOBJECT_3D_INSTANCE@@W4TEXTURE_ANIMATION_INDICES@@H@Z:PROC ; set_texture_animation_frame_on_object
EXTRN	?set_3d_active_environment@@YGXPAUENV_3D@@@Z:PROC ; set_3d_active_environment
EXTRN	?set_3d_time_of_day@@YGXPAUENV_3D@@M@Z:PROC	; set_3d_time_of_day
EXTRN	?set_3d_weathermode@@YGXPAUENV_3D@@W4WEATHERMODES@@@Z:PROC ; set_3d_weathermode
EXTRN	?set_3d_target_weathermode@@YGXPAUENV_3D@@W4WEATHERMODES@@@Z:PROC ; set_3d_target_weathermode
EXTRN	?set_3d_target_weathermode_transitional_status@@YGXPAUENV_3D@@M@Z:PROC ; set_3d_target_weathermode_transitional_status
EXTRN	?set_3d_infrared_mode@@YGXPAUENV_3D@@W4RENDER_FILTERS@@@Z:PROC ; set_3d_infrared_mode
EXTRN	?recalculate_3d_environment_settings@@YGXPAUENV_3D@@@Z:PROC ; recalculate_3d_environment_settings
EXTRN	?set_3d_viewport@@YGXPAUENV_3D@@MMMM@Z:PROC	; set_3d_viewport
EXTRN	?set_3d_view_distances@@YGXPAUENV_3D@@MMMM@Z:PROC ; set_3d_view_distances
EXTRN	?set_3d_origin@@YGXPAUENV_3D@@MM@Z:PROC		; set_3d_origin
EXTRN	?set_3d_viewcone@@YGXPAUENV_3D@@MMMM@Z:PROC	; set_3d_viewcone
EXTRN	?set_3d_lightmode@@YGXPAUENV_3D@@W4LIGHTMODES@@@Z:PROC ; set_3d_lightmode
EXTRN	?insert_zbiased_object_into_3d_scene@@YGXW4OBJECT_3D_DRAWING_TYPES@@PAXM@Z:PROC ; insert_zbiased_object_into_3d_scene
EXTRN	?draw_3d_scene@@YGXXZ:PROC			; draw_3d_scene
EXTRN	?find_object_3d_sub_object@@YG?AW4SUB_OBJECT_SEARCH_RESULT_TYPES@@PAUOBJECT_3D_SUB_OBJECT_SEARCH_DATA@@@Z:PROC ; find_object_3d_sub_object
EXTRN	?find_object_3d_sub_object_from_sub_object@@YG?AW4SUB_OBJECT_SEARCH_RESULT_TYPES@@PAUOBJECT_3D_SUB_OBJECT_SEARCH_DATA@@0@Z:PROC ; find_object_3d_sub_object_from_sub_object
EXTRN	?construct_temporary_3d_object@@YGPAUOBJECT_3D_INSTANCE@@HH@Z:PROC ; construct_temporary_3d_object
EXTRN	?load_side_dependant_application_sound_samples@@YGXW4ENTITY_SIDES@@@Z:PROC ; load_side_dependant_application_sound_samples
EXTRN	?get_height_view_angle@@YGMM@Z:PROC		; get_height_view_angle
EXTRN	?process_game_initialisation_phases@@YGXXZ:PROC	; process_game_initialisation_phases
EXTRN	?get_trans@@YGPBDPBD@Z:PROC			; get_trans
EXTRN	?leave_mission@@YGXXZ:PROC			; leave_mission
EXTRN	?get_free_flight_gunship_type@@YG?AW4GUNSHIP_TYPES@@XZ:PROC ; get_free_flight_gunship_type
EXTRN	?set_free_flight_gunship_type@@YGXW4GUNSHIP_TYPES@@@Z:PROC ; set_free_flight_gunship_type
EXTRN	?set_text_option_backdrop_object@@YGXPAUUI_OBJECT@@0@Z:PROC ; set_text_option_backdrop_object
EXTRN	?system_delta_time@@3MA:DWORD			; system_delta_time
EXTRN	?application_video_width@@3HA:DWORD		; application_video_width
EXTRN	?application_video_height@@3HA:DWORD		; application_video_height
EXTRN	?fn_get_ui_object_x@@3PAP6GMPAUUI_OBJECT@@@ZA:BYTE ; fn_get_ui_object_x
EXTRN	?fn_get_ui_object_y@@3PAP6GMPAUUI_OBJECT@@@ZA:BYTE ; fn_get_ui_object_y
EXTRN	?fn_get_ui_object_x_size@@3PAP6GMPAUUI_OBJECT@@@ZA:BYTE ; fn_get_ui_object_x_size
EXTRN	?fn_get_ui_object_y_size@@3PAP6GMPAUUI_OBJECT@@@ZA:BYTE ; fn_get_ui_object_y_size
EXTRN	?fn_set_ui_object_drawable@@3PAP6GXPAUUI_OBJECT@@H@ZA:BYTE ; fn_set_ui_object_drawable
EXTRN	?fn_get_ui_object_drawable@@3PAP6GHPAUUI_OBJECT@@@ZA:BYTE ; fn_get_ui_object_drawable
EXTRN	?fn_set_ui_object_text@@3PAP6GXPAUUI_OBJECT@@PBD@ZA:BYTE ; fn_set_ui_object_text
EXTRN	?fn_set_ui_object_text_justify@@3PAP6GXPAUUI_OBJECT@@W4TEXT_JUSTIFY_TYPES@@@ZA:BYTE ; fn_set_ui_object_text_justify
EXTRN	?fn_set_ui_object_texture_graphic@@3PAP6GXPAUUI_OBJECT@@PAUTEXTURE_GRAPHIC@@@ZA:BYTE ; fn_set_ui_object_texture_graphic
EXTRN	?ui_screen_title_text_colour@@3UREAL_COLOUR@@A:DWORD ; ui_screen_title_text_colour
EXTRN	?ui_option_title_text_colour@@3UREAL_COLOUR@@A:DWORD ; ui_option_title_text_colour
EXTRN	?ui_option_text_default_colour@@3UREAL_COLOUR@@A:DWORD ; ui_option_text_default_colour
EXTRN	?ui_option_text_hilite_colour@@3UREAL_COLOUR@@A:DWORD ; ui_option_text_hilite_colour
EXTRN	?visual_3d_vp@@3PAUVIEWPOINT@@A:DWORD		; visual_3d_vp
EXTRN	?command_line_game_initialisation_phase_gunship_type@@3HA:DWORD ; command_line_game_initialisation_phase_gunship_type
EXTRN	?gunship_type_names@@3PAPBDA:BYTE		; gunship_type_names
EXTRN	?gunship_sides@@3PAW4ENTITY_SIDES@@A:BYTE	; gunship_sides
EXTRN	?global_options@@3UGLOBAL_OPTIONS_DATA@@A:BYTE	; global_options
EXTRN	?system_comms_model@@3W4COMMS_MODEL_TYPES@@A:DWORD ; system_comms_model
EXTRN	?personal_packet_list_counter@@3HA:DWORD	; personal_packet_list_counter
EXTRN	?main_3d_env@@3PAUENV_3D@@A:DWORD		; main_3d_env
EXTRN	?game_initialisation_phase@@3W4GAME_INITIALISATION_PHASES@@A:DWORD ; game_initialisation_phase
EXTRN	?options_box_large@@3PAUTEXTURE_GRAPHIC@@A:DWORD ; options_box_large
EXTRN	?text_option_bdrop@@3PAUTEXTURE_GRAPHIC@@A:DWORD ; text_option_bdrop
EXTRN	?game_type@@3W4GAME_TYPES@@A:DWORD		; game_type
EXTRN	?current_game_session@@3PAUSESSION_LIST_DATA_TYPE@@A:DWORD ; current_game_session
EXTRN	__fltused:DWORD
;	COMDAT ?_OptionsStorage@?1??__local_stdio_printf_options@@9@4_KA
_BSS	SEGMENT
?_OptionsStorage@?1??__local_stdio_printf_options@@9@4_KA DQ 01H DUP (?) ; `__local_stdio_printf_options'::`2'::_OptionsStorage
_BSS	ENDS
_BSS	SEGMENT
?gunship_screen_progress_dot_count@@3HA DD 01H DUP (?)	; gunship_screen_progress_dot_count
?gunship_waiting_for_connection@@3HA DD 01H DUP (?)	; gunship_waiting_for_connection
?gunship_just_entered_screen@@3HA DD 01H DUP (?)	; gunship_just_entered_screen
?progress_timer@?1??update_gunships_screen_progress_indicator@@YGXXZ@4IA DD 01H DUP (?) ; `update_gunships_screen_progress_indicator'::`2'::progress_timer
?my_heading@?1??gunship_screen_render_gunship@@YGXPAUUI_OBJECT@@PAX@Z@4MA DD 01H DUP (?) ; `gunship_screen_render_gunship'::`2'::my_heading
_BSS	ENDS
;	COMDAT __real@bd567750
CONST	SEGMENT
__real@bd567750 DD 0bd567750r			; -0.0523599
CONST	ENDS
;	COMDAT __real@461c4000
CONST	SEGMENT
__real@461c4000 DD 0461c4000r			; 10000
CONST	ENDS
;	COMDAT __real@41900000
CONST	SEGMENT
__real@41900000 DD 041900000r			; 18
CONST	ENDS
;	COMDAT __real@40833faf
CONST	SEGMENT
__real@40833faf DD 040833fafr			; 4.10152
CONST	ENDS
;	COMDAT __real@400ccccd
CONST	SEGMENT
__real@400ccccd DD 0400ccccdr			; 2.2
CONST	ENDS
;	COMDAT __real@3fed9999a0000000
CONST	SEGMENT
__real@3fed9999a0000000 DQ 03fed9999a0000000r	; 0.925
CONST	ENDS
;	COMDAT __real@3fed1eb851eb851f
CONST	SEGMENT
__real@3fed1eb851eb851f DQ 03fed1eb851eb851fr	; 0.91
CONST	ENDS
;	COMDAT __real@3fec106240000000
CONST	SEGMENT
__real@3fec106240000000 DQ 03fec106240000000r	; 0.877
CONST	ENDS
;	COMDAT __real@3fea872b00000000
CONST	SEGMENT
__real@3fea872b00000000 DQ 03fea872b00000000r	; 0.829
CONST	ENDS
;	COMDAT __real@3fe8000000000000
CONST	SEGMENT
__real@3fe8000000000000 DQ 03fe8000000000000r	; 0.75
CONST	ENDS
;	COMDAT __real@3fdee978e0000000
CONST	SEGMENT
__real@3fdee978e0000000 DQ 03fdee978e0000000r	; 0.483
CONST	ENDS
;	COMDAT __real@3fc3333340000000
CONST	SEGMENT
__real@3fc3333340000000 DQ 03fc3333340000000r	; 0.15
CONST	ENDS
;	COMDAT __real@3fc10624dd2f1aa0
CONST	SEGMENT
__real@3fc10624dd2f1aa0 DQ 03fc10624dd2f1aa0r	; 0.133
CONST	ENDS
;	COMDAT __real@3fc00000
CONST	SEGMENT
__real@3fc00000 DD 03fc00000r			; 1.5
CONST	ENDS
;	COMDAT __real@3fadb22d0e560419
CONST	SEGMENT
__real@3fadb22d0e560419 DQ 03fadb22d0e560419r	; 0.058
CONST	ENDS
;	COMDAT __real@3fad2f1aa0000000
CONST	SEGMENT
__real@3fad2f1aa0000000 DQ 03fad2f1aa0000000r	; 0.057
CONST	ENDS
;	COMDAT __real@3fa99999a0000000
CONST	SEGMENT
__real@3fa99999a0000000 DQ 03fa99999a0000000r	; 0.05
CONST	ENDS
;	COMDAT __real@3fa3f7cee0000000
CONST	SEGMENT
__real@3fa3f7cee0000000 DQ 03fa3f7cee0000000r	; 0.039
CONST	ENDS
;	COMDAT __real@3fa374bc60000000
CONST	SEGMENT
__real@3fa374bc60000000 DQ 03fa374bc60000000r	; 0.038
CONST	ENDS
;	COMDAT __real@3f999999a0000000
CONST	SEGMENT
__real@3f999999a0000000 DQ 03f999999a0000000r	; 0.025
CONST	ENDS
;	COMDAT __real@3f8604da
CONST	SEGMENT
__real@3f8604da DD 03f8604dar			; 1.04702
CONST	ENDS
;	COMDAT __real@3f800000
CONST	SEGMENT
__real@3f800000 DD 03f800000r			; 1
CONST	ENDS
;	COMDAT __real@3f608312
CONST	SEGMENT
__real@3f608312 DD 03f608312r			; 0.877
CONST	ENDS
;	COMDAT __real@3f543958
CONST	SEGMENT
__real@3f543958 DD 03f543958r			; 0.829
CONST	ENDS
;	COMDAT __real@3f53f7cf
CONST	SEGMENT
__real@3f53f7cf DD 03f53f7cfr			; 0.828
CONST	ENDS
;	COMDAT __real@3f50624dd2f1a9fc
CONST	SEGMENT
__real@3f50624dd2f1a9fc DQ 03f50624dd2f1a9fcr	; 0.001
CONST	ENDS
;	COMDAT __real@3f420c4a
CONST	SEGMENT
__real@3f420c4a DD 03f420c4ar			; 0.758
CONST	ENDS
;	COMDAT __real@3f3be76d
CONST	SEGMENT
__real@3f3be76d DD 03f3be76dr			; 0.734
CONST	ENDS
;	COMDAT __real@3f00c49c
CONST	SEGMENT
__real@3f00c49c DD 03f00c49cr			; 0.503
CONST	ENDS
;	COMDAT __real@3ee872b0
CONST	SEGMENT
__real@3ee872b0 DD 03ee872b0r			; 0.454
CONST	ENDS
;	COMDAT __real@3ee147ae
CONST	SEGMENT
__real@3ee147ae DD 03ee147aer			; 0.44
CONST	ENDS
;	COMDAT __real@3ecccccd
CONST	SEGMENT
__real@3ecccccd DD 03ecccccdr			; 0.4
CONST	ENDS
;	COMDAT __real@3ebd70a4
CONST	SEGMENT
__real@3ebd70a4 DD 03ebd70a4r			; 0.37
CONST	ENDS
;	COMDAT __real@3ea7ef9e
CONST	SEGMENT
__real@3ea7ef9e DD 03ea7ef9er			; 0.328
CONST	ENDS
;	COMDAT __real@3e989375
CONST	SEGMENT
__real@3e989375 DD 03e989375r			; 0.298
CONST	ENDS
;	COMDAT __real@3e841893
CONST	SEGMENT
__real@3e841893 DD 03e841893r			; 0.258
CONST	ENDS
;	COMDAT __real@3e800000
CONST	SEGMENT
__real@3e800000 DD 03e800000r			; 0.25
CONST	ENDS
;	COMDAT __real@3e6a7efa
CONST	SEGMENT
__real@3e6a7efa DD 03e6a7efar			; 0.229
CONST	ENDS
;	COMDAT __real@3e4ccccd
CONST	SEGMENT
__real@3e4ccccd DD 03e4ccccdr			; 0.2
CONST	ENDS
;	COMDAT __real@3dd0e560
CONST	SEGMENT
__real@3dd0e560 DD 03dd0e560r			; 0.102
CONST	ENDS
;	COMDAT __real@3db22d0e
CONST	SEGMENT
__real@3db22d0e DD 03db22d0er			; 0.087
CONST	ENDS
;	COMDAT __real@3d8efa35
CONST	SEGMENT
__real@3d8efa35 DD 03d8efa35r			; 0.0698132
CONST	ENDS
;	COMDAT __real@3d71a9fc
CONST	SEGMENT
__real@3d71a9fc DD 03d71a9fcr			; 0.059
CONST	ENDS
;	COMDAT __real@3d4ccccd
CONST	SEGMENT
__real@3d4ccccd DD 03d4ccccdr			; 0.05
CONST	ENDS
;	COMDAT __real@3d0efa35
CONST	SEGMENT
__real@3d0efa35 DD 03d0efa35r			; 0.0349066
CONST	ENDS
_DATA	SEGMENT
?heading@?1??gunship_screen_render_gunship@@YGXPAUUI_OBJECT@@PAX@Z@4MA DD 040490fdbr ; 3.14159 ; `gunship_screen_render_gunship'::`2'::heading
?pitch@?1??gunship_screen_render_gunship@@YGXPAUUI_OBJECT@@PAX@Z@4MA DD 0be7a35ddr ; -0.244346 ; `gunship_screen_render_gunship'::`2'::pitch
?my_time@?1??gunship_screen_render_gunship@@YGXPAUUI_OBJECT@@PAX@Z@4HA DD 0e100H ; `gunship_screen_render_gunship'::`2'::my_time
_DATA	ENDS
;	COMDAT ??_C@_01LOCGONAA@?$AA@
CONST	SEGMENT
??_C@_01LOCGONAA@?$AA@ DB 00H, 00H			; `string'
CONST	ENDS
;	COMDAT ??_C@_02DDPEGJCB@?5?4@
CONST	SEGMENT
??_C@_02DDPEGJCB@?5?4@ DB ' .', 00H			; `string'
CONST	ENDS
;	COMDAT ??_C@_0BE@GIMNANDF@Generating?5Campaign@
CONST	SEGMENT
??_C@_0BE@GIMNANDF@Generating?5Campaign@ DB 'Generating Campaign', 00H ; `string'
CONST	ENDS
;	COMDAT ??_C@_07JMKCEEPK@?$CFs?5?$CI?$CFd?$CJ@
CONST	SEGMENT
??_C@_07JMKCEEPK@?$CFs?5?$CI?$CFd?$CJ@ DB '%s (%d)', 00H ; `string'
CONST	ENDS
;	COMDAT ??_C@_0L@NPJJHNMF@Connecting@
CONST	SEGMENT
??_C@_0L@NPJJHNMF@Connecting@ DB 'Connecting', 00H	; `string'
CONST	ENDS
;	COMDAT ??_C@_0CA@LLMCDOKE@graphics?2ui?2cohokum?2gunship?4psd@
CONST	SEGMENT
??_C@_0CA@LLMCDOKE@graphics?2ui?2cohokum?2gunship?4psd@ DB 'graphics\ui\c'
	DB	'ohokum\gunship.psd', 00H			; `string'
CONST	ENDS
;	COMDAT ??_C@_09HNDCBJKL@Red?5Force@
CONST	SEGMENT
??_C@_09HNDCBJKL@Red?5Force@ DB 'Red Force', 00H	; `string'
CONST	ENDS
;	COMDAT ??_C@_0L@GNELJAHL@Blue?5Force@
CONST	SEGMENT
??_C@_0L@GNELJAHL@Blue?5Force@ DB 'Blue Force', 00H	; `string'
CONST	ENDS
;	COMDAT ??_C@_09EIGHGGEH@UI_CANCEL@
CONST	SEGMENT
??_C@_09EIGHGGEH@UI_CANCEL@ DB 'UI_CANCEL', 00H		; `string'
CONST	ENDS
;	COMDAT ??_C@_06LCPJPOPK@SELECT@
CONST	SEGMENT
??_C@_06LCPJPOPK@SELECT@ DB 'SELECT', 00H		; `string'
CONST	ENDS
;	COMDAT ??_C@_00CNPNBAHC@@
CONST	SEGMENT
??_C@_00CNPNBAHC@@ DB 00H				; `string'
CONST	ENDS
;	COMDAT ??_C@_04FHBEPJGO@Side@
CONST	SEGMENT
??_C@_04FHBEPJGO@Side@ DB 'Side', 00H			; `string'
CONST	ENDS
; Function compile flags: /Odtp /ZI
; File c:\users\nhv90\projects\eech\aphavoc\source\ui_menu\gunships\guns_sc.c
;	COMDAT ?get_gunship_name@@YGPBDXZ
_TEXT	SEGMENT
?get_gunship_name@@YGPBDXZ PROC				; get_gunship_name, COMDAT

; 1092 : {

  00000	55		 push	 ebp
  00001	8b ec		 mov	 ebp, esp
  00003	83 ec 40	 sub	 esp, 64			; 00000040H
  00006	53		 push	 ebx
  00007	56		 push	 esi
  00008	57		 push	 edi

; 1093 : 	return gunship_type_names[get_free_flight_gunship_type()];

  00009	e8 00 00 00 00	 call	 ?get_free_flight_gunship_type@@YG?AW4GUNSHIP_TYPES@@XZ ; get_free_flight_gunship_type
  0000e	8b 04 85 00 00
	00 00		 mov	 eax, DWORD PTR ?gunship_type_names@@3PAPBDA[eax*4]

; 1094 : }

  00015	5f		 pop	 edi
  00016	5e		 pop	 esi
  00017	5b		 pop	 ebx
  00018	8b e5		 mov	 esp, ebp
  0001a	5d		 pop	 ebp
  0001b	c3		 ret	 0
?get_gunship_name@@YGPBDXZ ENDP				; get_gunship_name
_TEXT	ENDS
; Function compile flags: /Odtp /ZI
; File c:\users\nhv90\projects\eech\aphavoc\source\ui_menu\gunships\guns_sc.c
;	COMDAT ?notify_gunships_back_button@@YGXPAUUI_OBJECT@@PAX@Z
_TEXT	SEGMENT
_obj$ = 8						; size = 4
_arg$ = 12						; size = 4
?notify_gunships_back_button@@YGXPAUUI_OBJECT@@PAX@Z PROC ; notify_gunships_back_button, COMDAT

; 656  : {

  00000	55		 push	 ebp
  00001	8b ec		 mov	 ebp, esp
  00003	83 ec 40	 sub	 esp, 64			; 00000040H
  00006	53		 push	 ebx
  00007	56		 push	 esi
  00008	57		 push	 edi

; 657  : 
; 658  : 	leave_mission ();

  00009	e8 00 00 00 00	 call	 ?leave_mission@@YGXXZ	; leave_mission

; 659  : 
; 660  : 	set_global_gunship_side (ENTITY_SIDE_NEUTRAL);

  0000e	c7 05 08 00 00
	00 00 00 00 00	 mov	 DWORD PTR ?global_options@@3UGLOBAL_OPTIONS_DATA@@A+8, 0

; 661  : 
; 662  : 	set_game_initialisation_phase (GAME_INITIALISATION_PHASE_SCENARIO);

  00018	c7 05 00 00 00
	00 02 00 00 00	 mov	 DWORD PTR ?game_initialisation_phase@@3W4GAME_INITIALISATION_PHASES@@A, 2 ; game_initialisation_phase

; 663  : 
; 664  : 	pop_ui_screen (SCREEN_POP_ACTUAL);

  00022	6a 00		 push	 0
  00024	e8 00 00 00 00	 call	 ?pop_ui_screen@@YGXW4SCREEN_POP_TYPES@@@Z ; pop_ui_screen

; 665  : }

  00029	5f		 pop	 edi
  0002a	5e		 pop	 esi
  0002b	5b		 pop	 ebx
  0002c	8b e5		 mov	 esp, ebp
  0002e	5d		 pop	 ebp
  0002f	c2 08 00	 ret	 8
?notify_gunships_back_button@@YGXPAUUI_OBJECT@@PAX@Z ENDP ; notify_gunships_back_button
_TEXT	ENDS
; Function compile flags: /Odtp /ZI
; File c:\users\nhv90\projects\eech\aphavoc\source\ui_menu\gunships\guns_sc.c
;	COMDAT ?notify_gunships_screen@@YGXPAUUI_OBJECT@@PAX@Z
_TEXT	SEGMENT
_obj$ = 8						; size = 4
_arg$ = 12						; size = 4
?notify_gunships_screen@@YGXPAUUI_OBJECT@@PAX@Z PROC	; notify_gunships_screen, COMDAT

; 458  : {

  00000	55		 push	 ebp
  00001	8b ec		 mov	 ebp, esp
  00003	83 ec 40	 sub	 esp, 64			; 00000040H
  00006	53		 push	 ebx
  00007	56		 push	 esi
  00008	57		 push	 edi

; 459  : 
; 460  : 	if ( get_ui_object_drawable ( obj ) )

  00009	8b 45 08	 mov	 eax, DWORD PTR _obj$[ebp]
  0000c	50		 push	 eax
  0000d	8b 4d 08	 mov	 ecx, DWORD PTR _obj$[ebp]
  00010	8b 11		 mov	 edx, DWORD PTR [ecx]
  00012	8b 04 95 00 00
	00 00		 mov	 eax, DWORD PTR ?fn_get_ui_object_drawable@@3PAP6GHPAUUI_OBJECT@@@ZA[edx*4]
  00019	ff d0		 call	 eax
  0001b	85 c0		 test	 eax, eax
  0001d	0f 84 30 02 00
	00		 je	 $LN2@notify_gun

; 461  : 	{
; 462  : 		if (get_game_type () == GAME_TYPE_FREE_FLIGHT)

  00023	83 3d 00 00 00
	00 01		 cmp	 DWORD PTR ?game_type@@3W4GAME_TYPES@@A, 1 ; game_type
  0002a	0f 85 a6 00 00
	00		 jne	 $LN4@notify_gun

; 463  : 		{
; 464  : 			if (gunships_screen_side_selected == ENTITY_SIDE_NEUTRAL || get_free_flight_gunship_type() == NUM_GUNSHIP_TYPES)

  00030	83 3d 00 00 00
	00 00		 cmp	 DWORD PTR ?gunships_screen_side_selected@@3HA, 0 ; gunships_screen_side_selected
  00037	74 0a		 je	 SHORT $LN7@notify_gun
  00039	e8 00 00 00 00	 call	 ?get_free_flight_gunship_type@@YG?AW4GUNSHIP_TYPES@@XZ ; get_free_flight_gunship_type
  0003e	83 f8 0a	 cmp	 eax, 10			; 0000000aH
  00041	75 36		 jne	 SHORT $LN6@notify_gun
$LN7@notify_gun:

; 465  : 
; 466  : 				if ((gunships_screen_side_selected == ENTITY_SIDE_NEUTRAL) || (gunships_screen_side_selected == ENTITY_SIDE_BLUE_FORCE))

  00043	83 3d 00 00 00
	00 00		 cmp	 DWORD PTR ?gunships_screen_side_selected@@3HA, 0 ; gunships_screen_side_selected
  0004a	74 09		 je	 SHORT $LN10@notify_gun
  0004c	83 3d 00 00 00
	00 01		 cmp	 DWORD PTR ?gunships_screen_side_selected@@3HA, 1 ; gunships_screen_side_selected
  00053	75 13		 jne	 SHORT $LN8@notify_gun
$LN10@notify_gun:

; 467  : 				{
; 468  : 					set_free_flight_gunship_type(GUNSHIP_TYPE_APACHE);

  00055	6a 00		 push	 0
  00057	e8 00 00 00 00	 call	 ?set_free_flight_gunship_type@@YGXW4GUNSHIP_TYPES@@@Z ; set_free_flight_gunship_type

; 469  : 					gunships_screen_side_selected = ENTITY_SIDE_BLUE_FORCE;

  0005c	c7 05 00 00 00
	00 01 00 00 00	 mov	 DWORD PTR ?gunships_screen_side_selected@@3HA, 1 ; gunships_screen_side_selected

; 470  : 				}
; 471  : 				else

  00066	eb 11		 jmp	 SHORT $LN6@notify_gun
$LN8@notify_gun:

; 472  : 				{
; 473  : 					set_free_flight_gunship_type(GUNSHIP_TYPE_HOKUM);

  00068	6a 03		 push	 3
  0006a	e8 00 00 00 00	 call	 ?set_free_flight_gunship_type@@YGXW4GUNSHIP_TYPES@@@Z ; set_free_flight_gunship_type

; 474  : 					gunships_screen_side_selected = ENTITY_SIDE_RED_FORCE;

  0006f	c7 05 00 00 00
	00 02 00 00 00	 mov	 DWORD PTR ?gunships_screen_side_selected@@3HA, 2 ; gunships_screen_side_selected
$LN6@notify_gun:

; 475  : 				}
; 476  : 
; 477  : 			set_ui_object_text (gunship_screen_gunship_type_button, get_gunship_name());

  00079	e8 00 00 00 00	 call	 ?get_gunship_name@@YGPBDXZ ; get_gunship_name
  0007e	50		 push	 eax
  0007f	a1 00 00 00 00	 mov	 eax, DWORD PTR ?gunship_screen_gunship_type_button@@3PAUUI_OBJECT@@A ; gunship_screen_gunship_type_button
  00084	50		 push	 eax
  00085	8b 0d 00 00 00
	00		 mov	 ecx, DWORD PTR ?gunship_screen_gunship_type_button@@3PAUUI_OBJECT@@A ; gunship_screen_gunship_type_button
  0008b	8b 11		 mov	 edx, DWORD PTR [ecx]
  0008d	8b 04 95 00 00
	00 00		 mov	 eax, DWORD PTR ?fn_set_ui_object_text@@3PAP6GXPAUUI_OBJECT@@PBD@ZA[edx*4]
  00094	ff d0		 call	 eax

; 478  : 			set_ui_object_text (side_selected_area, get_trans (""));

  00096	68 00 00 00 00	 push	 OFFSET ??_C@_00CNPNBAHC@@
  0009b	e8 00 00 00 00	 call	 ?get_trans@@YGPBDPBD@Z	; get_trans
  000a0	50		 push	 eax
  000a1	a1 00 00 00 00	 mov	 eax, DWORD PTR ?side_selected_area@@3PAUUI_OBJECT@@A ; side_selected_area
  000a6	50		 push	 eax
  000a7	8b 0d 00 00 00
	00		 mov	 ecx, DWORD PTR ?side_selected_area@@3PAUUI_OBJECT@@A ; side_selected_area
  000ad	8b 11		 mov	 edx, DWORD PTR [ecx]
  000af	8b 04 95 00 00
	00 00		 mov	 eax, DWORD PTR ?fn_set_ui_object_text@@3PAP6GXPAUUI_OBJECT@@PBD@ZA[edx*4]
  000b6	ff d0		 call	 eax

; 479  : 			set_ui_object_text_justify (side_selected_area, TEXT_JUSTIFY_LEFT_CENTRE);

  000b8	6a 01		 push	 1
  000ba	a1 00 00 00 00	 mov	 eax, DWORD PTR ?side_selected_area@@3PAUUI_OBJECT@@A ; side_selected_area
  000bf	50		 push	 eax
  000c0	8b 0d 00 00 00
	00		 mov	 ecx, DWORD PTR ?side_selected_area@@3PAUUI_OBJECT@@A ; side_selected_area
  000c6	8b 11		 mov	 edx, DWORD PTR [ecx]
  000c8	8b 04 95 00 00
	00 00		 mov	 eax, DWORD PTR ?fn_set_ui_object_text_justify@@3PAP6GXPAUUI_OBJECT@@W4TEXT_JUSTIFY_TYPES@@@ZA[edx*4]
  000cf	ff d0		 call	 eax

; 480  : 		}
; 481  : 		else

  000d1	e9 e2 00 00 00	 jmp	 $LN5@notify_gun
$LN4@notify_gun:

; 482  : 		{
; 483  : 			if ((gunships_screen_side_selected == ENTITY_SIDE_NEUTRAL) || (gunships_screen_side_selected == ENTITY_SIDE_BLUE_FORCE))

  000d6	83 3d 00 00 00
	00 00		 cmp	 DWORD PTR ?gunships_screen_side_selected@@3HA, 0 ; gunships_screen_side_selected
  000dd	74 09		 je	 SHORT $LN13@notify_gun
  000df	83 3d 00 00 00
	00 01		 cmp	 DWORD PTR ?gunships_screen_side_selected@@3HA, 1 ; gunships_screen_side_selected
  000e6	75 69		 jne	 SHORT $LN11@notify_gun
$LN13@notify_gun:

; 484  : 			{
; 485  : 				set_ui_object_text (gunship_screen_gunship_type_button, get_trans ("Blue Force"));

  000e8	68 00 00 00 00	 push	 OFFSET ??_C@_0L@GNELJAHL@Blue?5Force@
  000ed	e8 00 00 00 00	 call	 ?get_trans@@YGPBDPBD@Z	; get_trans
  000f2	50		 push	 eax
  000f3	a1 00 00 00 00	 mov	 eax, DWORD PTR ?gunship_screen_gunship_type_button@@3PAUUI_OBJECT@@A ; gunship_screen_gunship_type_button
  000f8	50		 push	 eax
  000f9	8b 0d 00 00 00
	00		 mov	 ecx, DWORD PTR ?gunship_screen_gunship_type_button@@3PAUUI_OBJECT@@A ; gunship_screen_gunship_type_button
  000ff	8b 11		 mov	 edx, DWORD PTR [ecx]
  00101	8b 04 95 00 00
	00 00		 mov	 eax, DWORD PTR ?fn_set_ui_object_text@@3PAP6GXPAUUI_OBJECT@@PBD@ZA[edx*4]
  00108	ff d0		 call	 eax

; 486  : 
; 487  : 				set_ui_object_text (side_selected_area, get_trans (""));

  0010a	68 00 00 00 00	 push	 OFFSET ??_C@_00CNPNBAHC@@
  0010f	e8 00 00 00 00	 call	 ?get_trans@@YGPBDPBD@Z	; get_trans
  00114	50		 push	 eax
  00115	a1 00 00 00 00	 mov	 eax, DWORD PTR ?side_selected_area@@3PAUUI_OBJECT@@A ; side_selected_area
  0011a	50		 push	 eax
  0011b	8b 0d 00 00 00
	00		 mov	 ecx, DWORD PTR ?side_selected_area@@3PAUUI_OBJECT@@A ; side_selected_area
  00121	8b 11		 mov	 edx, DWORD PTR [ecx]
  00123	8b 04 95 00 00
	00 00		 mov	 eax, DWORD PTR ?fn_set_ui_object_text@@3PAP6GXPAUUI_OBJECT@@PBD@ZA[edx*4]
  0012a	ff d0		 call	 eax

; 488  : 
; 489  : 				set_ui_object_text_justify (side_selected_area, TEXT_JUSTIFY_CENTRE);

  0012c	6a 00		 push	 0
  0012e	a1 00 00 00 00	 mov	 eax, DWORD PTR ?side_selected_area@@3PAUUI_OBJECT@@A ; side_selected_area
  00133	50		 push	 eax
  00134	8b 0d 00 00 00
	00		 mov	 ecx, DWORD PTR ?side_selected_area@@3PAUUI_OBJECT@@A ; side_selected_area
  0013a	8b 11		 mov	 edx, DWORD PTR [ecx]
  0013c	8b 04 95 00 00
	00 00		 mov	 eax, DWORD PTR ?fn_set_ui_object_text_justify@@3PAP6GXPAUUI_OBJECT@@W4TEXT_JUSTIFY_TYPES@@@ZA[edx*4]
  00143	ff d0		 call	 eax

; 490  : 
; 491  : 				gunships_screen_side_selected = ENTITY_SIDE_BLUE_FORCE;

  00145	c7 05 00 00 00
	00 01 00 00 00	 mov	 DWORD PTR ?gunships_screen_side_selected@@3HA, 1 ; gunships_screen_side_selected

; 492  : 			}
; 493  : 			else

  0014f	eb 67		 jmp	 SHORT $LN5@notify_gun
$LN11@notify_gun:

; 494  : 			{
; 495  : 				set_ui_object_text (gunship_screen_gunship_type_button, get_trans ("Red Force"));

  00151	68 00 00 00 00	 push	 OFFSET ??_C@_09HNDCBJKL@Red?5Force@
  00156	e8 00 00 00 00	 call	 ?get_trans@@YGPBDPBD@Z	; get_trans
  0015b	50		 push	 eax
  0015c	a1 00 00 00 00	 mov	 eax, DWORD PTR ?gunship_screen_gunship_type_button@@3PAUUI_OBJECT@@A ; gunship_screen_gunship_type_button
  00161	50		 push	 eax
  00162	8b 0d 00 00 00
	00		 mov	 ecx, DWORD PTR ?gunship_screen_gunship_type_button@@3PAUUI_OBJECT@@A ; gunship_screen_gunship_type_button
  00168	8b 11		 mov	 edx, DWORD PTR [ecx]
  0016a	8b 04 95 00 00
	00 00		 mov	 eax, DWORD PTR ?fn_set_ui_object_text@@3PAP6GXPAUUI_OBJECT@@PBD@ZA[edx*4]
  00171	ff d0		 call	 eax

; 496  : 
; 497  : 				set_ui_object_text (side_selected_area, get_trans (""));

  00173	68 00 00 00 00	 push	 OFFSET ??_C@_00CNPNBAHC@@
  00178	e8 00 00 00 00	 call	 ?get_trans@@YGPBDPBD@Z	; get_trans
  0017d	50		 push	 eax
  0017e	a1 00 00 00 00	 mov	 eax, DWORD PTR ?side_selected_area@@3PAUUI_OBJECT@@A ; side_selected_area
  00183	50		 push	 eax
  00184	8b 0d 00 00 00
	00		 mov	 ecx, DWORD PTR ?side_selected_area@@3PAUUI_OBJECT@@A ; side_selected_area
  0018a	8b 11		 mov	 edx, DWORD PTR [ecx]
  0018c	8b 04 95 00 00
	00 00		 mov	 eax, DWORD PTR ?fn_set_ui_object_text@@3PAP6GXPAUUI_OBJECT@@PBD@ZA[edx*4]
  00193	ff d0		 call	 eax

; 498  : 
; 499  : 				set_ui_object_text_justify (side_selected_area, TEXT_JUSTIFY_CENTRE);

  00195	6a 00		 push	 0
  00197	a1 00 00 00 00	 mov	 eax, DWORD PTR ?side_selected_area@@3PAUUI_OBJECT@@A ; side_selected_area
  0019c	50		 push	 eax
  0019d	8b 0d 00 00 00
	00		 mov	 ecx, DWORD PTR ?side_selected_area@@3PAUUI_OBJECT@@A ; side_selected_area
  001a3	8b 11		 mov	 edx, DWORD PTR [ecx]
  001a5	8b 04 95 00 00
	00 00		 mov	 eax, DWORD PTR ?fn_set_ui_object_text_justify@@3PAP6GXPAUUI_OBJECT@@W4TEXT_JUSTIFY_TYPES@@@ZA[edx*4]
  001ac	ff d0		 call	 eax

; 500  : 
; 501  : 				gunships_screen_side_selected = ENTITY_SIDE_RED_FORCE;

  001ae	c7 05 00 00 00
	00 02 00 00 00	 mov	 DWORD PTR ?gunships_screen_side_selected@@3HA, 2 ; gunships_screen_side_selected
$LN5@notify_gun:

; 502  : 			}
; 503  : 		}
; 504  : 
; 505  : 		set_ui_object_drawable (gunship_screen_back_button, TRUE);

  001b8	6a 01		 push	 1
  001ba	a1 00 00 00 00	 mov	 eax, DWORD PTR ?gunship_screen_back_button@@3PAUUI_OBJECT@@A ; gunship_screen_back_button
  001bf	50		 push	 eax
  001c0	8b 0d 00 00 00
	00		 mov	 ecx, DWORD PTR ?gunship_screen_back_button@@3PAUUI_OBJECT@@A ; gunship_screen_back_button
  001c6	8b 11		 mov	 edx, DWORD PTR [ecx]
  001c8	8b 04 95 00 00
	00 00		 mov	 eax, DWORD PTR ?fn_set_ui_object_drawable@@3PAP6GXPAUUI_OBJECT@@H@ZA[edx*4]
  001cf	ff d0		 call	 eax

; 506  : 
; 507  : 		//set_ui_object_drawable (gunship_screen_next_button, TRUE);
; 508  : 		//set_ui_object_text (gunship_screen_next_button, get_trans("SELECT"));
; 509  : 		set_display_gunship_buttons (TRUE, "SELECT");

  001d1	68 00 00 00 00	 push	 OFFSET ??_C@_06LCPJPOPK@SELECT@
  001d6	6a 01		 push	 1
  001d8	e8 00 00 00 00	 call	 ?set_display_gunship_buttons@@YGXHPAD@Z ; set_display_gunship_buttons

; 510  : 
; 511  : 		process_game_initialisation_phases ();

  001dd	e8 00 00 00 00	 call	 ?process_game_initialisation_phases@@YGXXZ ; process_game_initialisation_phases

; 512  : 
; 513  : 		blit_front_buffer_to_render_buffer ();

  001e2	e8 00 00 00 00	 call	 ?blit_front_buffer_to_render_buffer@@YGXXZ ; blit_front_buffer_to_render_buffer

; 514  : 
; 515  : 		if ( gunships_screen_graphic )

  001e7	83 3d 00 00 00
	00 00		 cmp	 DWORD PTR ?gunships_screen_graphic@@3PAUTEXTURE_GRAPHIC@@A, 0 ; gunships_screen_graphic
  001ee	74 15		 je	 SHORT $LN14@notify_gun

; 516  : 		{
; 517  : 
; 518  : 			destroy_texture_graphic ( gunships_screen_graphic );

  001f0	a1 00 00 00 00	 mov	 eax, DWORD PTR ?gunships_screen_graphic@@3PAUTEXTURE_GRAPHIC@@A ; gunships_screen_graphic
  001f5	50		 push	 eax
  001f6	e8 00 00 00 00	 call	 ?destroy_texture_graphic@@YGXPAUTEXTURE_GRAPHIC@@@Z ; destroy_texture_graphic

; 519  : 
; 520  : 			gunships_screen_graphic = NULL;

  001fb	c7 05 00 00 00
	00 00 00 00 00	 mov	 DWORD PTR ?gunships_screen_graphic@@3PAUTEXTURE_GRAPHIC@@A, 0 ; gunships_screen_graphic
$LN14@notify_gun:

; 521  : 		}
; 522  : 
; 523  : 		free_all_hardware_textures ();

  00205	e8 00 00 00 00	 call	 ?free_all_hardware_textures@@YGXXZ ; free_all_hardware_textures

; 524  : 
; 525  : 		gunships_screen_graphic = create_texture_graphic ( "graphics\\ui\\cohokum\\gunship.psd" );

  0020a	68 00 00 00 00	 push	 OFFSET ??_C@_0CA@LLMCDOKE@graphics?2ui?2cohokum?2gunship?4psd@
  0020f	e8 00 00 00 00	 call	 ?create_texture_graphic@@YGPAUTEXTURE_GRAPHIC@@PBD@Z ; create_texture_graphic
  00214	a3 00 00 00 00	 mov	 DWORD PTR ?gunships_screen_graphic@@3PAUTEXTURE_GRAPHIC@@A, eax ; gunships_screen_graphic

; 526  : 
; 527  : 		set_ui_object_texture_graphic ( gunships_screen, gunships_screen_graphic );

  00219	a1 00 00 00 00	 mov	 eax, DWORD PTR ?gunships_screen_graphic@@3PAUTEXTURE_GRAPHIC@@A ; gunships_screen_graphic
  0021e	50		 push	 eax
  0021f	8b 0d 00 00 00
	00		 mov	 ecx, DWORD PTR ?gunships_screen@@3PAUUI_OBJECT@@A ; gunships_screen
  00225	51		 push	 ecx
  00226	8b 15 00 00 00
	00		 mov	 edx, DWORD PTR ?gunships_screen@@3PAUUI_OBJECT@@A ; gunships_screen
  0022c	8b 02		 mov	 eax, DWORD PTR [edx]
  0022e	8b 0c 85 00 00
	00 00		 mov	 ecx, DWORD PTR ?fn_set_ui_object_texture_graphic@@3PAP6GXPAUUI_OBJECT@@PAUTEXTURE_GRAPHIC@@@ZA[eax*4]
  00235	ff d1		 call	 ecx

; 528  : 
; 529  : 		reset_time_values ( gunships_screen );

  00237	a1 00 00 00 00	 mov	 eax, DWORD PTR ?gunships_screen@@3PAUUI_OBJECT@@A ; gunships_screen
  0023c	50		 push	 eax
  0023d	e8 00 00 00 00	 call	 ?reset_time_values@@YGXPAUUI_OBJECT@@@Z ; reset_time_values

; 530  : 
; 531  : 		gunship_just_entered_screen = TRUE;

  00242	c7 05 00 00 00
	00 01 00 00 00	 mov	 DWORD PTR ?gunship_just_entered_screen@@3HA, 1

; 532  : 
; 533  : 		// Casm 31MAR2009 Loading custom map textures before the first
; 534  : 		// 3d object is shown
; 535  : 		// VJ 050116 custom texture mod
; 536  : 		load_warzone_override_textures ();

  0024c	e8 00 00 00 00	 call	 ?load_warzone_override_textures@@YGXXZ ; load_warzone_override_textures

; 537  : 	}
; 538  : 	else

  00251	eb 1e		 jmp	 SHORT $LN3@notify_gun
$LN2@notify_gun:

; 539  : 	{
; 540  : 
; 541  : 		if ( gunships_screen_graphic )

  00253	83 3d 00 00 00
	00 00		 cmp	 DWORD PTR ?gunships_screen_graphic@@3PAUTEXTURE_GRAPHIC@@A, 0 ; gunships_screen_graphic
  0025a	74 15		 je	 SHORT $LN3@notify_gun

; 542  : 		{
; 543  : 
; 544  : 			destroy_texture_graphic ( gunships_screen_graphic );

  0025c	a1 00 00 00 00	 mov	 eax, DWORD PTR ?gunships_screen_graphic@@3PAUTEXTURE_GRAPHIC@@A ; gunships_screen_graphic
  00261	50		 push	 eax
  00262	e8 00 00 00 00	 call	 ?destroy_texture_graphic@@YGXPAUTEXTURE_GRAPHIC@@@Z ; destroy_texture_graphic

; 545  : 
; 546  : 			gunships_screen_graphic = NULL;

  00267	c7 05 00 00 00
	00 00 00 00 00	 mov	 DWORD PTR ?gunships_screen_graphic@@3PAUTEXTURE_GRAPHIC@@A, 0 ; gunships_screen_graphic
$LN3@notify_gun:

; 547  : 		}
; 548  : 	}
; 549  : 
; 550  : 	if (get_comms_model () == COMMS_MODEL_SERVER)

  00271	83 3d 00 00 00
	00 00		 cmp	 DWORD PTR ?system_comms_model@@3W4COMMS_MODEL_TYPES@@A, 0 ; system_comms_model
  00278	75 0c		 jne	 SHORT $LN16@notify_gun

; 551  : 	{
; 552  : 
; 553  : 		// set flag for helo rotation
; 554  : 		stop_gunship_model_rotating = FALSE;

  0027a	c7 05 00 00 00
	00 00 00 00 00	 mov	 DWORD PTR ?stop_gunship_model_rotating@@3HA, 0 ; stop_gunship_model_rotating

; 555  : 	}
; 556  : 	else

  00284	eb 0a		 jmp	 SHORT $LN1@notify_gun
$LN16@notify_gun:

; 557  : 	{
; 558  : 
; 559  : 		// set flag for helo rotation
; 560  : 		stop_gunship_model_rotating = TRUE;

  00286	c7 05 00 00 00
	00 01 00 00 00	 mov	 DWORD PTR ?stop_gunship_model_rotating@@3HA, 1 ; stop_gunship_model_rotating
$LN1@notify_gun:

; 561  : 	}
; 562  : 
; 563  : }

  00290	5f		 pop	 edi
  00291	5e		 pop	 esi
  00292	5b		 pop	 ebx
  00293	8b e5		 mov	 esp, ebp
  00295	5d		 pop	 ebp
  00296	c2 08 00	 ret	 8
?notify_gunships_screen@@YGXPAUUI_OBJECT@@PAX@Z ENDP	; notify_gunships_screen
_TEXT	ENDS
; Function compile flags: /Odtp /ZI
; File c:\users\nhv90\projects\eech\aphavoc\source\ui_menu\gunships\guns_sc.c
;	COMDAT ?notify_gunships_next_button@@YGXPAUUI_OBJECT@@PAX@Z
_TEXT	SEGMENT
_obj$ = 8						; size = 4
_arg$ = 12						; size = 4
?notify_gunships_next_button@@YGXPAUUI_OBJECT@@PAX@Z PROC ; notify_gunships_next_button, COMDAT

; 672  : {

  00000	55		 push	 ebp
  00001	8b ec		 mov	 ebp, esp
  00003	83 ec 40	 sub	 esp, 64			; 00000040H
  00006	53		 push	 ebx
  00007	56		 push	 esi
  00008	57		 push	 edi

; 673  : 
; 674  : 	if (get_comms_model () == COMMS_MODEL_SERVER)

  00009	83 3d 00 00 00
	00 00		 cmp	 DWORD PTR ?system_comms_model@@3W4COMMS_MODEL_TYPES@@A, 0 ; system_comms_model
  00010	75 0a		 jne	 SHORT $LN2@notify_gun

; 675  : 	{
; 676  : 
; 677  : 		// set flag for helo rotation
; 678  : 		stop_gunship_model_rotating = TRUE;

  00012	c7 05 00 00 00
	00 01 00 00 00	 mov	 DWORD PTR ?stop_gunship_model_rotating@@3HA, 1 ; stop_gunship_model_rotating
$LN2@notify_gun:

; 679  : 	}
; 680  : 
; 681  : 	set_global_gunship_side (gunships_screen_side_selected);

  0001c	a1 00 00 00 00	 mov	 eax, DWORD PTR ?gunships_screen_side_selected@@3HA ; gunships_screen_side_selected
  00021	a3 08 00 00 00	 mov	 DWORD PTR ?global_options@@3UGLOBAL_OPTIONS_DATA@@A+8, eax

; 682  : 
; 683  : 	//
; 684  : 	// Load up the sound effects for this side
; 685  : 	//
; 686  : 
; 687  : 	load_side_dependant_application_sound_samples ( ( entity_sides ) gunships_screen_side_selected );

  00026	a1 00 00 00 00	 mov	 eax, DWORD PTR ?gunships_screen_side_selected@@3HA ; gunships_screen_side_selected
  0002b	50		 push	 eax
  0002c	e8 00 00 00 00	 call	 ?load_side_dependant_application_sound_samples@@YGXW4ENTITY_SIDES@@@Z ; load_side_dependant_application_sound_samples

; 688  : 
; 689  : 	if ( !gunship_waiting_for_connection )

  00031	83 3d 00 00 00
	00 00		 cmp	 DWORD PTR ?gunship_waiting_for_connection@@3HA, 0
  00038	75 05		 jne	 SHORT $LN1@notify_gun

; 690  : 	{
; 691  : 
; 692  : 		process_game_initialisation_phases ();

  0003a	e8 00 00 00 00	 call	 ?process_game_initialisation_phases@@YGXXZ ; process_game_initialisation_phases
$LN1@notify_gun:

; 693  : 	}
; 694  : }

  0003f	5f		 pop	 edi
  00040	5e		 pop	 esi
  00041	5b		 pop	 ebx
  00042	8b e5		 mov	 esp, ebp
  00044	5d		 pop	 ebp
  00045	c2 08 00	 ret	 8
?notify_gunships_next_button@@YGXPAUUI_OBJECT@@PAX@Z ENDP ; notify_gunships_next_button
_TEXT	ENDS
; Function compile flags: /Odtp /ZI
; File c:\users\nhv90\projects\eech\aphavoc\source\ui_menu\gunships\guns_sc.c
;	COMDAT ?gunship_screen_render_gunship@@YGXPAUUI_OBJECT@@PAX@Z
_TEXT	SEGMENT
tv177 = -212						; size = 4
_pitch$1 = -144						; size = 56
_visible$2 = -88					; size = 4
_heading$3 = -84					; size = 56
_obj_size_y$4 = -28					; size = 4
_obj_size_x$5 = -24					; size = 4
_obj_y2$6 = -20						; size = 4
_obj_x2$7 = -16						; size = 4
_obj_y1$8 = -12						; size = 4
_obj_x1$9 = -8						; size = 4
_apache$ = -4						; size = 4
_obj$ = 8						; size = 4
_arg$ = 12						; size = 4
?gunship_screen_render_gunship@@YGXPAUUI_OBJECT@@PAX@Z PROC ; gunship_screen_render_gunship, COMDAT

; 842  : {

  00000	55		 push	 ebp
  00001	8b ec		 mov	 ebp, esp
  00003	81 ec d4 00 00
	00		 sub	 esp, 212		; 000000d4H
  00009	53		 push	 ebx
  0000a	56		 push	 esi
  0000b	57		 push	 edi

; 843  : 
; 844  : 	object_3d_instance
; 845  : 		*apache;
; 846  : 
; 847  : 	static float
; 848  : 		heading = rad (180.0),
; 849  : 		my_heading = 0,
; 850  : 		pitch = rad (-14);
; 851  : 
; 852  : 	static int
; 853  : 		my_time = 3600*16;
; 854  : 
; 855  : 	set_3d_active_environment ( main_3d_env );

  0000c	a1 00 00 00 00	 mov	 eax, DWORD PTR ?main_3d_env@@3PAUENV_3D@@A ; main_3d_env
  00011	50		 push	 eax
  00012	e8 00 00 00 00	 call	 ?set_3d_active_environment@@YGXPAUENV_3D@@@Z ; set_3d_active_environment

; 856  : 
; 857  : 	set_3d_lightmode ( main_3d_env, LIGHTMODE_AUTOMATIC_LIGHT );

  00017	6a 01		 push	 1
  00019	a1 00 00 00 00	 mov	 eax, DWORD PTR ?main_3d_env@@3PAUENV_3D@@A ; main_3d_env
  0001e	50		 push	 eax
  0001f	e8 00 00 00 00	 call	 ?set_3d_lightmode@@YGXPAUENV_3D@@W4LIGHTMODES@@@Z ; set_3d_lightmode

; 858  : 
; 859  : 	set_3d_infrared_mode ( main_3d_env, INFRARED_OFF );

  00024	6a 01		 push	 1
  00026	a1 00 00 00 00	 mov	 eax, DWORD PTR ?main_3d_env@@3PAUENV_3D@@A ; main_3d_env
  0002b	50		 push	 eax
  0002c	e8 00 00 00 00	 call	 ?set_3d_infrared_mode@@YGXPAUENV_3D@@W4RENDER_FILTERS@@@Z ; set_3d_infrared_mode

; 860  : 
; 861  : 	set_3d_weathermode (main_3d_env, WEATHERMODE_DRY );

  00031	6a 01		 push	 1
  00033	a1 00 00 00 00	 mov	 eax, DWORD PTR ?main_3d_env@@3PAUENV_3D@@A ; main_3d_env
  00038	50		 push	 eax
  00039	e8 00 00 00 00	 call	 ?set_3d_weathermode@@YGXPAUENV_3D@@W4WEATHERMODES@@@Z ; set_3d_weathermode

; 862  : 
; 863  : 	set_3d_target_weathermode (main_3d_env, WEATHERMODE_DRY );

  0003e	6a 01		 push	 1
  00040	a1 00 00 00 00	 mov	 eax, DWORD PTR ?main_3d_env@@3PAUENV_3D@@A ; main_3d_env
  00045	50		 push	 eax
  00046	e8 00 00 00 00	 call	 ?set_3d_target_weathermode@@YGXPAUENV_3D@@W4WEATHERMODES@@@Z ; set_3d_target_weathermode

; 864  : 
; 865  : 	set_3d_target_weathermode_transitional_status (main_3d_env, 0.0 );

  0004b	51		 push	 ecx
  0004c	0f 57 c0	 xorps	 xmm0, xmm0
  0004f	f3 0f 11 04 24	 movss	 DWORD PTR [esp], xmm0
  00054	a1 00 00 00 00	 mov	 eax, DWORD PTR ?main_3d_env@@3PAUENV_3D@@A ; main_3d_env
  00059	50		 push	 eax
  0005a	e8 00 00 00 00	 call	 ?set_3d_target_weathermode_transitional_status@@YGXPAUENV_3D@@M@Z ; set_3d_target_weathermode_transitional_status

; 866  : 
; 867  : 	set_3d_time_of_day (main_3d_env, my_time );

  0005f	f3 0f 2a 05 00
	00 00 00	 cvtsi2ss xmm0, DWORD PTR ?my_time@?1??gunship_screen_render_gunship@@YGXPAUUI_OBJECT@@PAX@Z@4HA
  00067	51		 push	 ecx
  00068	f3 0f 11 04 24	 movss	 DWORD PTR [esp], xmm0
  0006d	a1 00 00 00 00	 mov	 eax, DWORD PTR ?main_3d_env@@3PAUENV_3D@@A ; main_3d_env
  00072	50		 push	 eax
  00073	e8 00 00 00 00	 call	 ?set_3d_time_of_day@@YGXPAUENV_3D@@M@Z ; set_3d_time_of_day

; 868  : 
; 869  : 	{
; 870  : 		float
; 871  : 			obj_x1,
; 872  : 			obj_y1,
; 873  : 			obj_x2,
; 874  : 			obj_y2,
; 875  : 			obj_size_x,
; 876  : 			obj_size_y;
; 877  : 
; 878  : 		obj_x1 = get_ui_object_x (obj);

  00078	8b 45 08	 mov	 eax, DWORD PTR _obj$[ebp]
  0007b	50		 push	 eax
  0007c	8b 4d 08	 mov	 ecx, DWORD PTR _obj$[ebp]
  0007f	8b 11		 mov	 edx, DWORD PTR [ecx]
  00081	8b 04 95 00 00
	00 00		 mov	 eax, DWORD PTR ?fn_get_ui_object_x@@3PAP6GMPAUUI_OBJECT@@@ZA[edx*4]
  00088	ff d0		 call	 eax
  0008a	d9 5d f8	 fstp	 DWORD PTR _obj_x1$9[ebp]

; 879  : 		obj_y1 = get_ui_object_y (obj);

  0008d	8b 45 08	 mov	 eax, DWORD PTR _obj$[ebp]
  00090	50		 push	 eax
  00091	8b 4d 08	 mov	 ecx, DWORD PTR _obj$[ebp]
  00094	8b 11		 mov	 edx, DWORD PTR [ecx]
  00096	8b 04 95 00 00
	00 00		 mov	 eax, DWORD PTR ?fn_get_ui_object_y@@3PAP6GMPAUUI_OBJECT@@@ZA[edx*4]
  0009d	ff d0		 call	 eax
  0009f	d9 5d f4	 fstp	 DWORD PTR _obj_y1$8[ebp]

; 880  : 		obj_size_x = get_ui_object_x_size (obj);

  000a2	8b 45 08	 mov	 eax, DWORD PTR _obj$[ebp]
  000a5	50		 push	 eax
  000a6	8b 4d 08	 mov	 ecx, DWORD PTR _obj$[ebp]
  000a9	8b 11		 mov	 edx, DWORD PTR [ecx]
  000ab	8b 04 95 00 00
	00 00		 mov	 eax, DWORD PTR ?fn_get_ui_object_x_size@@3PAP6GMPAUUI_OBJECT@@@ZA[edx*4]
  000b2	ff d0		 call	 eax
  000b4	d9 5d e8	 fstp	 DWORD PTR _obj_size_x$5[ebp]

; 881  : 		obj_size_y = get_ui_object_y_size (obj);

  000b7	8b 45 08	 mov	 eax, DWORD PTR _obj$[ebp]
  000ba	50		 push	 eax
  000bb	8b 4d 08	 mov	 ecx, DWORD PTR _obj$[ebp]
  000be	8b 11		 mov	 edx, DWORD PTR [ecx]
  000c0	8b 04 95 00 00
	00 00		 mov	 eax, DWORD PTR ?fn_get_ui_object_y_size@@3PAP6GMPAUUI_OBJECT@@@ZA[edx*4]
  000c7	ff d0		 call	 eax
  000c9	d9 5d e4	 fstp	 DWORD PTR _obj_size_y$4[ebp]

; 882  : 
; 883  : 		obj_x2 = obj_x1 + obj_size_x;

  000cc	f3 0f 10 45 f8	 movss	 xmm0, DWORD PTR _obj_x1$9[ebp]
  000d1	f3 0f 58 45 e8	 addss	 xmm0, DWORD PTR _obj_size_x$5[ebp]
  000d6	f3 0f 11 45 f0	 movss	 DWORD PTR _obj_x2$7[ebp], xmm0

; 884  : 		obj_y2 = obj_y1 + obj_size_y;

  000db	f3 0f 10 45 f4	 movss	 xmm0, DWORD PTR _obj_y1$8[ebp]
  000e0	f3 0f 58 45 e4	 addss	 xmm0, DWORD PTR _obj_size_y$4[ebp]
  000e5	f3 0f 11 45 ec	 movss	 DWORD PTR _obj_y2$6[ebp], xmm0

; 885  : 
; 886  : //		set_3d_viewport ( main_3d_env, obj_x1, obj_y1, obj_x2, obj_y2 );
; 887  : 
; 888  : //		set_3d_origin ( main_3d_env, obj_x1 + (obj_size_x / 2.0), obj_y1 + (obj_size_y / 2.0) );
; 889  : 
; 890  : //		set_3d_viewcone ( main_3d_env, obj_size_x, obj_size_y, rad ( 59.99 ), rad ( 46.82 ) );
; 891  : 
; 892  : 		set_3d_viewport ( main_3d_env, 0, 0, ( float ) application_video_width - 0.001, ( float ) application_video_height - 0.001 );

  000ea	f3 0f 2a 05 00
	00 00 00	 cvtsi2ss xmm0, DWORD PTR ?application_video_height@@3HA ; application_video_height
  000f2	f3 0f 5a c0	 cvtss2sd xmm0, xmm0
  000f6	f2 0f 5c 05 00
	00 00 00	 subsd	 xmm0, QWORD PTR __real@3f50624dd2f1a9fc
  000fe	f2 0f 5a c0	 cvtsd2ss xmm0, xmm0
  00102	51		 push	 ecx
  00103	f3 0f 11 04 24	 movss	 DWORD PTR [esp], xmm0
  00108	f3 0f 2a 05 00
	00 00 00	 cvtsi2ss xmm0, DWORD PTR ?application_video_width@@3HA ; application_video_width
  00110	f3 0f 5a c0	 cvtss2sd xmm0, xmm0
  00114	f2 0f 5c 05 00
	00 00 00	 subsd	 xmm0, QWORD PTR __real@3f50624dd2f1a9fc
  0011c	f2 0f 5a c0	 cvtsd2ss xmm0, xmm0
  00120	51		 push	 ecx
  00121	f3 0f 11 04 24	 movss	 DWORD PTR [esp], xmm0
  00126	51		 push	 ecx
  00127	0f 57 c0	 xorps	 xmm0, xmm0
  0012a	f3 0f 11 04 24	 movss	 DWORD PTR [esp], xmm0
  0012f	51		 push	 ecx
  00130	0f 57 c0	 xorps	 xmm0, xmm0
  00133	f3 0f 11 04 24	 movss	 DWORD PTR [esp], xmm0
  00138	a1 00 00 00 00	 mov	 eax, DWORD PTR ?main_3d_env@@3PAUENV_3D@@A ; main_3d_env
  0013d	50		 push	 eax
  0013e	e8 00 00 00 00	 call	 ?set_3d_viewport@@YGXPAUENV_3D@@MMMM@Z ; set_3d_viewport

; 893  : 
; 894  : 		set_3d_origin ( main_3d_env, application_video_width /2, application_video_height/2 );

  00143	a1 00 00 00 00	 mov	 eax, DWORD PTR ?application_video_height@@3HA ; application_video_height
  00148	99		 cdq
  00149	2b c2		 sub	 eax, edx
  0014b	d1 f8		 sar	 eax, 1
  0014d	f3 0f 2a c0	 cvtsi2ss xmm0, eax
  00151	51		 push	 ecx
  00152	f3 0f 11 04 24	 movss	 DWORD PTR [esp], xmm0
  00157	a1 00 00 00 00	 mov	 eax, DWORD PTR ?application_video_width@@3HA ; application_video_width
  0015c	99		 cdq
  0015d	2b c2		 sub	 eax, edx
  0015f	d1 f8		 sar	 eax, 1
  00161	f3 0f 2a c0	 cvtsi2ss xmm0, eax
  00165	51		 push	 ecx
  00166	f3 0f 11 04 24	 movss	 DWORD PTR [esp], xmm0
  0016b	a1 00 00 00 00	 mov	 eax, DWORD PTR ?main_3d_env@@3PAUENV_3D@@A ; main_3d_env
  00170	50		 push	 eax
  00171	e8 00 00 00 00	 call	 ?set_3d_origin@@YGXPAUENV_3D@@MM@Z ; set_3d_origin

; 895  : 
; 896  : 		set_3d_viewcone ( main_3d_env, application_video_width, application_video_height, rad ( 59.99 ), get_height_view_angle ( rad ( 59.99 ) ) );

  00176	51		 push	 ecx
  00177	f3 0f 10 05 00
	00 00 00	 movss	 xmm0, DWORD PTR __real@3f8604da
  0017f	f3 0f 11 04 24	 movss	 DWORD PTR [esp], xmm0
  00184	e8 00 00 00 00	 call	 ?get_height_view_angle@@YGMM@Z ; get_height_view_angle
  00189	51		 push	 ecx
  0018a	d9 1c 24	 fstp	 DWORD PTR [esp]
  0018d	51		 push	 ecx
  0018e	f3 0f 10 05 00
	00 00 00	 movss	 xmm0, DWORD PTR __real@3f8604da
  00196	f3 0f 11 04 24	 movss	 DWORD PTR [esp], xmm0
  0019b	f3 0f 2a 05 00
	00 00 00	 cvtsi2ss xmm0, DWORD PTR ?application_video_height@@3HA ; application_video_height
  001a3	51		 push	 ecx
  001a4	f3 0f 11 04 24	 movss	 DWORD PTR [esp], xmm0
  001a9	f3 0f 2a 05 00
	00 00 00	 cvtsi2ss xmm0, DWORD PTR ?application_video_width@@3HA ; application_video_width
  001b1	51		 push	 ecx
  001b2	f3 0f 11 04 24	 movss	 DWORD PTR [esp], xmm0
  001b7	a1 00 00 00 00	 mov	 eax, DWORD PTR ?main_3d_env@@3PAUENV_3D@@A ; main_3d_env
  001bc	50		 push	 eax
  001bd	e8 00 00 00 00	 call	 ?set_3d_viewcone@@YGXPAUENV_3D@@MMMM@Z ; set_3d_viewcone

; 897  : #if RECOGNITION_GUIDE
; 898  : 		set_3d_view_distances ( main_3d_env, 10000.0, 100.0, 1.0, 0.0 );
; 899  : #else
; 900  : 		set_3d_view_distances ( main_3d_env, 10000.0, 1.0, 1.0, 0.0 );

  001c2	51		 push	 ecx
  001c3	0f 57 c0	 xorps	 xmm0, xmm0
  001c6	f3 0f 11 04 24	 movss	 DWORD PTR [esp], xmm0
  001cb	51		 push	 ecx
  001cc	f3 0f 10 05 00
	00 00 00	 movss	 xmm0, DWORD PTR __real@3f800000
  001d4	f3 0f 11 04 24	 movss	 DWORD PTR [esp], xmm0
  001d9	51		 push	 ecx
  001da	f3 0f 10 05 00
	00 00 00	 movss	 xmm0, DWORD PTR __real@3f800000
  001e2	f3 0f 11 04 24	 movss	 DWORD PTR [esp], xmm0
  001e7	51		 push	 ecx
  001e8	f3 0f 10 05 00
	00 00 00	 movss	 xmm0, DWORD PTR __real@461c4000
  001f0	f3 0f 11 04 24	 movss	 DWORD PTR [esp], xmm0
  001f5	a1 00 00 00 00	 mov	 eax, DWORD PTR ?main_3d_env@@3PAUENV_3D@@A ; main_3d_env
  001fa	50		 push	 eax
  001fb	e8 00 00 00 00	 call	 ?set_3d_view_distances@@YGXPAUENV_3D@@MMMM@Z ; set_3d_view_distances

; 901  : #endif
; 902  : 	}
; 903  : 
; 904  : 	recalculate_3d_environment_settings (main_3d_env);

  00200	a1 00 00 00 00	 mov	 eax, DWORD PTR ?main_3d_env@@3PAUENV_3D@@A ; main_3d_env
  00205	50		 push	 eax
  00206	e8 00 00 00 00	 call	 ?recalculate_3d_environment_settings@@YGXPAUENV_3D@@@Z ; recalculate_3d_environment_settings

; 905  : 
; 906  : 	clear_zbuffer_screen ();

  0020b	e8 00 00 00 00	 call	 ?clear_zbuffer_screen@@YGXXZ ; clear_zbuffer_screen

; 907  : 
; 908  : 	visual_3d_vp->x = 0;

  00210	a1 00 00 00 00	 mov	 eax, DWORD PTR ?visual_3d_vp@@3PAUVIEWPOINT@@A ; visual_3d_vp
  00215	0f 57 c0	 xorps	 xmm0, xmm0
  00218	f3 0f 11 00	 movss	 DWORD PTR [eax], xmm0

; 909  : 	visual_3d_vp->y = 0;

  0021c	a1 00 00 00 00	 mov	 eax, DWORD PTR ?visual_3d_vp@@3PAUVIEWPOINT@@A ; visual_3d_vp
  00221	0f 57 c0	 xorps	 xmm0, xmm0
  00224	f3 0f 11 40 04	 movss	 DWORD PTR [eax+4], xmm0

; 910  : 	visual_3d_vp->z = 0;

  00229	a1 00 00 00 00	 mov	 eax, DWORD PTR ?visual_3d_vp@@3PAUVIEWPOINT@@A ; visual_3d_vp
  0022e	0f 57 c0	 xorps	 xmm0, xmm0
  00231	f3 0f 11 40 08	 movss	 DWORD PTR [eax+8], xmm0

; 911  : 
; 912  : 	get_3d_transformation_matrix ( visual_3d_vp->attitude, 0, 0, 0 );

  00236	51		 push	 ecx
  00237	0f 57 c0	 xorps	 xmm0, xmm0
  0023a	f3 0f 11 04 24	 movss	 DWORD PTR [esp], xmm0
  0023f	51		 push	 ecx
  00240	0f 57 c0	 xorps	 xmm0, xmm0
  00243	f3 0f 11 04 24	 movss	 DWORD PTR [esp], xmm0
  00248	51		 push	 ecx
  00249	0f 57 c0	 xorps	 xmm0, xmm0
  0024c	f3 0f 11 04 24	 movss	 DWORD PTR [esp], xmm0
  00251	a1 00 00 00 00	 mov	 eax, DWORD PTR ?visual_3d_vp@@3PAUVIEWPOINT@@A ; visual_3d_vp
  00256	83 c0 0c	 add	 eax, 12			; 0000000cH
  00259	50		 push	 eax
  0025a	e8 00 00 00 00	 call	 ?get_3d_transformation_matrix@@YGXQAY02MMMM@Z ; get_3d_transformation_matrix

; 913  : 
; 914  : 	if (get_game_type() == GAME_TYPE_FREE_FLIGHT)

  0025f	83 3d 00 00 00
	00 01		 cmp	 DWORD PTR ?game_type@@3W4GAME_TYPES@@A, 1 ; game_type
  00266	0f 85 64 02 00
	00		 jne	 $LN8@gunship_sc

; 915  : 	{
; 916  : 		pitch = rad(4);

  0026c	f3 0f 10 05 00
	00 00 00	 movss	 xmm0, DWORD PTR __real@3d8efa35
  00274	f3 0f 11 05 00
	00 00 00	 movss	 DWORD PTR ?pitch@?1??gunship_screen_render_gunship@@YGXPAUUI_OBJECT@@PAX@Z@4MA, xmm0

; 917  : 		heading = rad(235);

  0027c	f3 0f 10 05 00
	00 00 00	 movss	 xmm0, DWORD PTR __real@40833faf
  00284	f3 0f 11 05 00
	00 00 00	 movss	 DWORD PTR ?heading@?1??gunship_screen_render_gunship@@YGXPAUUI_OBJECT@@PAX@Z@4MA, xmm0

; 918  : 
; 919  : 		switch (get_free_flight_gunship_type())

  0028c	e8 00 00 00 00	 call	 ?get_free_flight_gunship_type@@YG?AW4GUNSHIP_TYPES@@XZ ; get_free_flight_gunship_type
  00291	89 85 2c ff ff
	ff		 mov	 DWORD PTR tv177[ebp], eax
  00297	83 bd 2c ff ff
	ff 09		 cmp	 DWORD PTR tv177[ebp], 9
  0029e	0f 87 0e 01 00
	00		 ja	 $LN2@gunship_sc
  002a4	8b 85 2c ff ff
	ff		 mov	 eax, DWORD PTR tv177[ebp]
  002aa	ff 24 85 00 00
	00 00		 jmp	 DWORD PTR $LN30@gunship_sc[eax*4]
$LN10@gunship_sc:

; 920  : 		{
; 921  : 		case GUNSHIP_TYPE_AH64A:
; 922  : 			apache = construct_temporary_3d_object ( OBJECT_3D_AH_64A, TRUE );

  002b1	6a 01		 push	 1
  002b3	68 eb 09 00 00	 push	 2539			; 000009ebH
  002b8	e8 00 00 00 00	 call	 ?construct_temporary_3d_object@@YGPAUOBJECT_3D_INSTANCE@@HH@Z ; construct_temporary_3d_object
  002bd	89 45 fc	 mov	 DWORD PTR _apache$[ebp], eax

; 923  : 			break;

  002c0	e9 ed 00 00 00	 jmp	 $LN2@gunship_sc
$LN11@gunship_sc:

; 924  : 		case GUNSHIP_TYPE_APACHE:
; 925  : 			apache = construct_temporary_3d_object ( OBJECT_3D_AH64D_APACHE_LONGBOW, TRUE );

  002c5	6a 01		 push	 1
  002c7	6a 01		 push	 1
  002c9	e8 00 00 00 00	 call	 ?construct_temporary_3d_object@@YGPAUOBJECT_3D_INSTANCE@@HH@Z ; construct_temporary_3d_object
  002ce	89 45 fc	 mov	 DWORD PTR _apache$[ebp], eax

; 926  : 			break;

  002d1	e9 dc 00 00 00	 jmp	 $LN2@gunship_sc
$LN12@gunship_sc:

; 927  : 		case GUNSHIP_TYPE_COMANCHE:
; 928  : 			apache = construct_temporary_3d_object ( OBJECT_3D_RAH66_UI, TRUE );

  002d6	6a 01		 push	 1
  002d8	68 f8 09 00 00	 push	 2552			; 000009f8H
  002dd	e8 00 00 00 00	 call	 ?construct_temporary_3d_object@@YGPAUOBJECT_3D_INSTANCE@@HH@Z ; construct_temporary_3d_object
  002e2	89 45 fc	 mov	 DWORD PTR _apache$[ebp], eax

; 929  : 			break;

  002e5	e9 c8 00 00 00	 jmp	 $LN2@gunship_sc
$LN13@gunship_sc:

; 930  : 		case GUNSHIP_TYPE_BLACKHAWK:
; 931  : 			apache = construct_temporary_3d_object ( OBJECT_3D_UH60_BLACKHAWK, TRUE );

  002ea	6a 01		 push	 1
  002ec	6a 02		 push	 2
  002ee	e8 00 00 00 00	 call	 ?construct_temporary_3d_object@@YGPAUOBJECT_3D_INSTANCE@@HH@Z ; construct_temporary_3d_object
  002f3	89 45 fc	 mov	 DWORD PTR _apache$[ebp], eax

; 932  : 			pitch = rad(2);

  002f6	f3 0f 10 05 00
	00 00 00	 movss	 xmm0, DWORD PTR __real@3d0efa35
  002fe	f3 0f 11 05 00
	00 00 00	 movss	 DWORD PTR ?pitch@?1??gunship_screen_render_gunship@@YGXPAUUI_OBJECT@@PAX@Z@4MA, xmm0

; 933  : 			break;

  00306	e9 a7 00 00 00	 jmp	 $LN2@gunship_sc
$LN14@gunship_sc:

; 934  : 		case GUNSHIP_TYPE_KA50:
; 935  : 			apache = construct_temporary_3d_object ( OBJECT_3D_KA_50, TRUE );

  0030b	6a 01		 push	 1
  0030d	68 ef 09 00 00	 push	 2543			; 000009efH
  00312	e8 00 00 00 00	 call	 ?construct_temporary_3d_object@@YGPAUOBJECT_3D_INSTANCE@@HH@Z ; construct_temporary_3d_object
  00317	89 45 fc	 mov	 DWORD PTR _apache$[ebp], eax

; 936  : 			pitch = 0;

  0031a	0f 57 c0	 xorps	 xmm0, xmm0
  0031d	f3 0f 11 05 00
	00 00 00	 movss	 DWORD PTR ?pitch@?1??gunship_screen_render_gunship@@YGXPAUUI_OBJECT@@PAX@Z@4MA, xmm0

; 937  : 			break;

  00325	e9 88 00 00 00	 jmp	 $LN2@gunship_sc
$LN15@gunship_sc:

; 938  : 		case GUNSHIP_TYPE_HOKUM:
; 939  : 			apache = construct_temporary_3d_object ( OBJECT_3D_KA_52_UI, TRUE );

  0032a	6a 01		 push	 1
  0032c	68 69 0a 00 00	 push	 2665			; 00000a69H
  00331	e8 00 00 00 00	 call	 ?construct_temporary_3d_object@@YGPAUOBJECT_3D_INSTANCE@@HH@Z ; construct_temporary_3d_object
  00336	89 45 fc	 mov	 DWORD PTR _apache$[ebp], eax

; 940  : 			pitch = 0;

  00339	0f 57 c0	 xorps	 xmm0, xmm0
  0033c	f3 0f 11 05 00
	00 00 00	 movss	 DWORD PTR ?pitch@?1??gunship_screen_render_gunship@@YGXPAUUI_OBJECT@@PAX@Z@4MA, xmm0

; 941  : 			break;

  00344	eb 6c		 jmp	 SHORT $LN2@gunship_sc
$LN16@gunship_sc:

; 942  : 		case GUNSHIP_TYPE_HIND:
; 943  : 			apache = construct_temporary_3d_object ( OBJECT_3D_MI24_HIND, TRUE );

  00346	6a 01		 push	 1
  00348	6a 08		 push	 8
  0034a	e8 00 00 00 00	 call	 ?construct_temporary_3d_object@@YGPAUOBJECT_3D_INSTANCE@@HH@Z ; construct_temporary_3d_object
  0034f	89 45 fc	 mov	 DWORD PTR _apache$[ebp], eax

; 944  : 			pitch = rad(-3);

  00352	f3 0f 10 05 00
	00 00 00	 movss	 xmm0, DWORD PTR __real@bd567750
  0035a	f3 0f 11 05 00
	00 00 00	 movss	 DWORD PTR ?pitch@?1??gunship_screen_render_gunship@@YGXPAUUI_OBJECT@@PAX@Z@4MA, xmm0

; 945  : 			break;

  00362	eb 4e		 jmp	 SHORT $LN2@gunship_sc
$LN17@gunship_sc:

; 946  : 		case GUNSHIP_TYPE_HAVOC:
; 947  : 			apache = construct_temporary_3d_object ( OBJECT_3D_MI28N_HAVOC, TRUE );

  00364	6a 01		 push	 1
  00366	6a 06		 push	 6
  00368	e8 00 00 00 00	 call	 ?construct_temporary_3d_object@@YGPAUOBJECT_3D_INSTANCE@@HH@Z ; construct_temporary_3d_object
  0036d	89 45 fc	 mov	 DWORD PTR _apache$[ebp], eax

; 948  : 			break;

  00370	eb 40		 jmp	 SHORT $LN2@gunship_sc
$LN18@gunship_sc:

; 949  : 		case GUNSHIP_TYPE_VIPER:
; 950  : 			apache = construct_temporary_3d_object ( OBJECT_3D_AH1Z, TRUE );

  00372	6a 01		 push	 1
  00374	68 de 0a 00 00	 push	 2782			; 00000adeH
  00379	e8 00 00 00 00	 call	 ?construct_temporary_3d_object@@YGPAUOBJECT_3D_INSTANCE@@HH@Z ; construct_temporary_3d_object
  0037e	89 45 fc	 mov	 DWORD PTR _apache$[ebp], eax

; 951  : 			pitch = rad(2);

  00381	f3 0f 10 05 00
	00 00 00	 movss	 xmm0, DWORD PTR __real@3d0efa35
  00389	f3 0f 11 05 00
	00 00 00	 movss	 DWORD PTR ?pitch@?1??gunship_screen_render_gunship@@YGXPAUUI_OBJECT@@PAX@Z@4MA, xmm0

; 952  : 			break;

  00391	eb 1f		 jmp	 SHORT $LN2@gunship_sc
$LN19@gunship_sc:

; 953  : 		case GUNSHIP_TYPE_KIOWA:
; 954  : 			apache = construct_temporary_3d_object ( OBJECT_3D_OH58D, TRUE );

  00393	6a 01		 push	 1
  00395	68 f6 09 00 00	 push	 2550			; 000009f6H
  0039a	e8 00 00 00 00	 call	 ?construct_temporary_3d_object@@YGPAUOBJECT_3D_INSTANCE@@HH@Z ; construct_temporary_3d_object
  0039f	89 45 fc	 mov	 DWORD PTR _apache$[ebp], eax

; 955  : 			pitch = rad(2);

  003a2	f3 0f 10 05 00
	00 00 00	 movss	 xmm0, DWORD PTR __real@3d0efa35
  003aa	f3 0f 11 05 00
	00 00 00	 movss	 DWORD PTR ?pitch@?1??gunship_screen_render_gunship@@YGXPAUUI_OBJECT@@PAX@Z@4MA, xmm0
$LN2@gunship_sc:

; 956  : 			break;
; 957  : 		}
; 958  : 
; 959  : 		{
; 960  : 			object_3d_sub_object_search_data
; 961  : 				heading;
; 962  : 
; 963  : 			heading.search_object = apache;

  003b2	8b 45 fc	 mov	 eax, DWORD PTR _apache$[ebp]
  003b5	89 45 ac	 mov	 DWORD PTR _heading$3[ebp], eax

; 964  : 			heading.search_depth = 0;

  003b8	c7 45 b4 00 00
	00 00		 mov	 DWORD PTR _heading$3[ebp+8], 0

; 965  : 			heading.sub_object_index = OBJECT_3D_SUB_OBJECT_WEAPON_SYSTEM_HEADING;

  003bf	c7 45 b8 03 00
	00 00		 mov	 DWORD PTR _heading$3[ebp+12], 3
$LN4@gunship_sc:

; 966  : 
; 967  : 			while ( find_object_3d_sub_object ( &heading ) == SUB_OBJECT_SEARCH_RESULT_OBJECT_FOUND )

  003c6	8d 45 ac	 lea	 eax, DWORD PTR _heading$3[ebp]
  003c9	50		 push	 eax
  003ca	e8 00 00 00 00	 call	 ?find_object_3d_sub_object@@YG?AW4SUB_OBJECT_SEARCH_RESULT_TYPES@@PAUOBJECT_3D_SUB_OBJECT_SEARCH_DATA@@@Z ; find_object_3d_sub_object
  003cf	83 f8 01	 cmp	 eax, 1
  003d2	0f 85 8b 00 00
	00		 jne	 $LN5@gunship_sc

; 968  : 			{
; 969  : 				object_3d_sub_instance
; 970  : 					*visible;
; 971  : 				object_3d_sub_object_search_data
; 972  : 					pitch;
; 973  : 
; 974  : 				visible = NULL;

  003d8	c7 45 a8 00 00
	00 00		 mov	 DWORD PTR _visible$2[ebp], 0

; 975  : 
; 976  : 				pitch.search_depth = 0;

  003df	c7 85 78 ff ff
	ff 00 00 00 00	 mov	 DWORD PTR _pitch$1[ebp+8], 0

; 977  : 				pitch.sub_object_index = OBJECT_3D_SUB_OBJECT_WEAPON_SYSTEM_PITCH;

  003e9	c7 85 7c ff ff
	ff 1c 00 00 00	 mov	 DWORD PTR _pitch$1[ebp+12], 28 ; 0000001cH
$LN6@gunship_sc:

; 978  : 
; 979  : 				while ( find_object_3d_sub_object_from_sub_object ( &heading, &pitch ) == SUB_OBJECT_SEARCH_RESULT_OBJECT_FOUND )

  003f3	8d 85 70 ff ff
	ff		 lea	 eax, DWORD PTR _pitch$1[ebp]
  003f9	50		 push	 eax
  003fa	8d 4d ac	 lea	 ecx, DWORD PTR _heading$3[ebp]
  003fd	51		 push	 ecx
  003fe	e8 00 00 00 00	 call	 ?find_object_3d_sub_object_from_sub_object@@YG?AW4SUB_OBJECT_SEARCH_RESULT_TYPES@@PAUOBJECT_3D_SUB_OBJECT_SEARCH_DATA@@0@Z ; find_object_3d_sub_object_from_sub_object
  00403	83 f8 01	 cmp	 eax, 1
  00406	75 38		 jne	 SHORT $LN7@gunship_sc

; 980  : 				{
; 981  : 					if ( pitch.search_depth < 2 )

  00408	83 bd 78 ff ff
	ff 02		 cmp	 DWORD PTR _pitch$1[ebp+8], 2
  0040f	7d 09		 jge	 SHORT $LN20@gunship_sc

; 982  : 						visible = pitch.result_sub_object;

  00411	8b 85 74 ff ff
	ff		 mov	 eax, DWORD PTR _pitch$1[ebp+4]
  00417	89 45 a8	 mov	 DWORD PTR _visible$2[ebp], eax
$LN20@gunship_sc:

; 983  : 					pitch.result_sub_object->visible_object = FALSE;

  0041a	8b 85 74 ff ff
	ff		 mov	 eax, DWORD PTR _pitch$1[ebp+4]
  00420	8b 48 08	 mov	 ecx, DWORD PTR [eax+8]
  00423	83 e1 fe	 and	 ecx, -2			; fffffffeH
  00426	8b 95 74 ff ff
	ff		 mov	 edx, DWORD PTR _pitch$1[ebp+4]
  0042c	89 4a 08	 mov	 DWORD PTR [edx+8], ecx

; 984  : 					pitch.search_depth++;

  0042f	8b 85 78 ff ff
	ff		 mov	 eax, DWORD PTR _pitch$1[ebp+8]
  00435	83 c0 01	 add	 eax, 1
  00438	89 85 78 ff ff
	ff		 mov	 DWORD PTR _pitch$1[ebp+8], eax

; 985  : 				}

  0043e	eb b3		 jmp	 SHORT $LN6@gunship_sc
$LN7@gunship_sc:

; 986  : 				if ( visible )

  00440	83 7d a8 00	 cmp	 DWORD PTR _visible$2[ebp], 0
  00444	74 0f		 je	 SHORT $LN21@gunship_sc

; 987  : 					visible->visible_object = TRUE;

  00446	8b 45 a8	 mov	 eax, DWORD PTR _visible$2[ebp]
  00449	8b 48 08	 mov	 ecx, DWORD PTR [eax+8]
  0044c	83 c9 01	 or	 ecx, 1
  0044f	8b 55 a8	 mov	 edx, DWORD PTR _visible$2[ebp]
  00452	89 4a 08	 mov	 DWORD PTR [edx+8], ecx
$LN21@gunship_sc:

; 988  : 
; 989  : 				heading.search_depth++;

  00455	8b 45 b4	 mov	 eax, DWORD PTR _heading$3[ebp+8]
  00458	83 c0 01	 add	 eax, 1
  0045b	89 45 b4	 mov	 DWORD PTR _heading$3[ebp+8], eax

; 990  : 			}

  0045e	e9 63 ff ff ff	 jmp	 $LN4@gunship_sc
$LN5@gunship_sc:

; 991  : 
; 992  : 			set_texture_animation_frame_on_object ( apache, TEXTURE_ANIMATION_INDEX_USA_COPTER_DIGIT__000, 4 );

  00463	6a 04		 push	 4
  00465	6a 01		 push	 1
  00467	8b 45 fc	 mov	 eax, DWORD PTR _apache$[ebp]
  0046a	50		 push	 eax
  0046b	e8 00 00 00 00	 call	 ?set_texture_animation_frame_on_object@@YGHPAUOBJECT_3D_INSTANCE@@W4TEXTURE_ANIMATION_INDICES@@H@Z ; set_texture_animation_frame_on_object

; 993  : 			set_texture_animation_frame_on_object ( apache, TEXTURE_ANIMATION_INDEX_USA_COPTER_DIGIT__001, 2 );

  00470	6a 02		 push	 2
  00472	6a 00		 push	 0
  00474	8b 45 fc	 mov	 eax, DWORD PTR _apache$[ebp]
  00477	50		 push	 eax
  00478	e8 00 00 00 00	 call	 ?set_texture_animation_frame_on_object@@YGHPAUOBJECT_3D_INSTANCE@@W4TEXTURE_ANIMATION_INDICES@@H@Z ; set_texture_animation_frame_on_object

; 994  : 			set_texture_animation_frame_on_object ( apache, TEXTURE_ANIMATION_INDEX_USA_COPTER_DIGIT__002, 9 );

  0047d	6a 09		 push	 9
  0047f	6a 03		 push	 3
  00481	8b 45 fc	 mov	 eax, DWORD PTR _apache$[ebp]
  00484	50		 push	 eax
  00485	e8 00 00 00 00	 call	 ?set_texture_animation_frame_on_object@@YGHPAUOBJECT_3D_INSTANCE@@W4TEXTURE_ANIMATION_INDICES@@H@Z ; set_texture_animation_frame_on_object

; 995  : 			set_texture_animation_frame_on_object ( apache, TEXTURE_ANIMATION_INDEX_USA_COPTER_DIGIT__003, 1 );

  0048a	6a 01		 push	 1
  0048c	6a 02		 push	 2
  0048e	8b 45 fc	 mov	 eax, DWORD PTR _apache$[ebp]
  00491	50		 push	 eax
  00492	e8 00 00 00 00	 call	 ?set_texture_animation_frame_on_object@@YGHPAUOBJECT_3D_INSTANCE@@W4TEXTURE_ANIMATION_INDICES@@H@Z ; set_texture_animation_frame_on_object

; 996  : 			set_texture_animation_frame_on_object ( apache, TEXTURE_ANIMATION_INDEX_USA_COPTER_DIGIT__004, 3 );

  00497	6a 03		 push	 3
  00499	6a 04		 push	 4
  0049b	8b 45 fc	 mov	 eax, DWORD PTR _apache$[ebp]
  0049e	50		 push	 eax
  0049f	e8 00 00 00 00	 call	 ?set_texture_animation_frame_on_object@@YGHPAUOBJECT_3D_INSTANCE@@W4TEXTURE_ANIMATION_INDICES@@H@Z ; set_texture_animation_frame_on_object

; 997  : 
; 998  : 			set_texture_animation_frame_on_object ( apache, TEXTURE_ANIMATION_INDEX_CIS_COPTER_DIGIT__000, 1 );

  004a4	6a 01		 push	 1
  004a6	6a 05		 push	 5
  004a8	8b 45 fc	 mov	 eax, DWORD PTR _apache$[ebp]
  004ab	50		 push	 eax
  004ac	e8 00 00 00 00	 call	 ?set_texture_animation_frame_on_object@@YGHPAUOBJECT_3D_INSTANCE@@W4TEXTURE_ANIMATION_INDICES@@H@Z ; set_texture_animation_frame_on_object

; 999  : 			set_texture_animation_frame_on_object ( apache, TEXTURE_ANIMATION_INDEX_CIS_COPTER_DIGIT__001, 5 );

  004b1	6a 05		 push	 5
  004b3	6a 06		 push	 6
  004b5	8b 45 fc	 mov	 eax, DWORD PTR _apache$[ebp]
  004b8	50		 push	 eax
  004b9	e8 00 00 00 00	 call	 ?set_texture_animation_frame_on_object@@YGHPAUOBJECT_3D_INSTANCE@@W4TEXTURE_ANIMATION_INDICES@@H@Z ; set_texture_animation_frame_on_object

; 1000 : 			set_texture_animation_frame_on_object ( apache, TEXTURE_ANIMATION_INDEX_CIS_COPTER_DIGIT__002, 2 );

  004be	6a 02		 push	 2
  004c0	6a 07		 push	 7
  004c2	8b 45 fc	 mov	 eax, DWORD PTR _apache$[ebp]
  004c5	50		 push	 eax
  004c6	e8 00 00 00 00	 call	 ?set_texture_animation_frame_on_object@@YGHPAUOBJECT_3D_INSTANCE@@W4TEXTURE_ANIMATION_INDICES@@H@Z ; set_texture_animation_frame_on_object

; 1001 : 		}
; 1002 : 	}
; 1003 : 	else

  004cb	e9 91 00 00 00	 jmp	 $LN23@gunship_sc
$LN8@gunship_sc:

; 1004 : 		if ( gunships_screen_side_selected == ENTITY_SIDE_BLUE_FORCE )

  004d0	83 3d 00 00 00
	00 01		 cmp	 DWORD PTR ?gunships_screen_side_selected@@3HA, 1 ; gunships_screen_side_selected
  004d7	75 52		 jne	 SHORT $LN22@gunship_sc

; 1005 : 		{
; 1006 : 
; 1007 : 			apache = construct_temporary_3d_object ( OBJECT_3D_RAH66_UI, FALSE );

  004d9	6a 00		 push	 0
  004db	68 f8 09 00 00	 push	 2552			; 000009f8H
  004e0	e8 00 00 00 00	 call	 ?construct_temporary_3d_object@@YGPAUOBJECT_3D_INSTANCE@@HH@Z ; construct_temporary_3d_object
  004e5	89 45 fc	 mov	 DWORD PTR _apache$[ebp], eax

; 1008 : 
; 1009 : 			set_texture_animation_frame_on_object ( apache, TEXTURE_ANIMATION_INDEX_USA_COPTER_DIGIT__000, 4 );

  004e8	6a 04		 push	 4
  004ea	6a 01		 push	 1
  004ec	8b 45 fc	 mov	 eax, DWORD PTR _apache$[ebp]
  004ef	50		 push	 eax
  004f0	e8 00 00 00 00	 call	 ?set_texture_animation_frame_on_object@@YGHPAUOBJECT_3D_INSTANCE@@W4TEXTURE_ANIMATION_INDICES@@H@Z ; set_texture_animation_frame_on_object

; 1010 : 			set_texture_animation_frame_on_object ( apache, TEXTURE_ANIMATION_INDEX_USA_COPTER_DIGIT__001, 2 );

  004f5	6a 02		 push	 2
  004f7	6a 00		 push	 0
  004f9	8b 45 fc	 mov	 eax, DWORD PTR _apache$[ebp]
  004fc	50		 push	 eax
  004fd	e8 00 00 00 00	 call	 ?set_texture_animation_frame_on_object@@YGHPAUOBJECT_3D_INSTANCE@@W4TEXTURE_ANIMATION_INDICES@@H@Z ; set_texture_animation_frame_on_object

; 1011 : 			set_texture_animation_frame_on_object ( apache, TEXTURE_ANIMATION_INDEX_USA_COPTER_DIGIT__002, 9 );

  00502	6a 09		 push	 9
  00504	6a 03		 push	 3
  00506	8b 45 fc	 mov	 eax, DWORD PTR _apache$[ebp]
  00509	50		 push	 eax
  0050a	e8 00 00 00 00	 call	 ?set_texture_animation_frame_on_object@@YGHPAUOBJECT_3D_INSTANCE@@W4TEXTURE_ANIMATION_INDICES@@H@Z ; set_texture_animation_frame_on_object

; 1012 : 			set_texture_animation_frame_on_object ( apache, TEXTURE_ANIMATION_INDEX_USA_COPTER_DIGIT__003, 1 );

  0050f	6a 01		 push	 1
  00511	6a 02		 push	 2
  00513	8b 45 fc	 mov	 eax, DWORD PTR _apache$[ebp]
  00516	50		 push	 eax
  00517	e8 00 00 00 00	 call	 ?set_texture_animation_frame_on_object@@YGHPAUOBJECT_3D_INSTANCE@@W4TEXTURE_ANIMATION_INDICES@@H@Z ; set_texture_animation_frame_on_object

; 1013 : 			set_texture_animation_frame_on_object ( apache, TEXTURE_ANIMATION_INDEX_USA_COPTER_DIGIT__004, 3 );

  0051c	6a 03		 push	 3
  0051e	6a 04		 push	 4
  00520	8b 45 fc	 mov	 eax, DWORD PTR _apache$[ebp]
  00523	50		 push	 eax
  00524	e8 00 00 00 00	 call	 ?set_texture_animation_frame_on_object@@YGHPAUOBJECT_3D_INSTANCE@@W4TEXTURE_ANIMATION_INDICES@@H@Z ; set_texture_animation_frame_on_object

; 1014 : 		}
; 1015 : 		else

  00529	eb 36		 jmp	 SHORT $LN23@gunship_sc
$LN22@gunship_sc:

; 1016 : 		{
; 1017 : 
; 1018 : 			apache = construct_temporary_3d_object ( OBJECT_3D_KA_52_UI, FALSE );

  0052b	6a 00		 push	 0
  0052d	68 69 0a 00 00	 push	 2665			; 00000a69H
  00532	e8 00 00 00 00	 call	 ?construct_temporary_3d_object@@YGPAUOBJECT_3D_INSTANCE@@HH@Z ; construct_temporary_3d_object
  00537	89 45 fc	 mov	 DWORD PTR _apache$[ebp], eax

; 1019 : 
; 1020 : 			set_texture_animation_frame_on_object ( apache, TEXTURE_ANIMATION_INDEX_CIS_COPTER_DIGIT__000, 1 );

  0053a	6a 01		 push	 1
  0053c	6a 05		 push	 5
  0053e	8b 45 fc	 mov	 eax, DWORD PTR _apache$[ebp]
  00541	50		 push	 eax
  00542	e8 00 00 00 00	 call	 ?set_texture_animation_frame_on_object@@YGHPAUOBJECT_3D_INSTANCE@@W4TEXTURE_ANIMATION_INDICES@@H@Z ; set_texture_animation_frame_on_object

; 1021 : 			set_texture_animation_frame_on_object ( apache, TEXTURE_ANIMATION_INDEX_CIS_COPTER_DIGIT__001, 5 );

  00547	6a 05		 push	 5
  00549	6a 06		 push	 6
  0054b	8b 45 fc	 mov	 eax, DWORD PTR _apache$[ebp]
  0054e	50		 push	 eax
  0054f	e8 00 00 00 00	 call	 ?set_texture_animation_frame_on_object@@YGHPAUOBJECT_3D_INSTANCE@@W4TEXTURE_ANIMATION_INDICES@@H@Z ; set_texture_animation_frame_on_object

; 1022 : 			set_texture_animation_frame_on_object ( apache, TEXTURE_ANIMATION_INDEX_CIS_COPTER_DIGIT__002, 2 );

  00554	6a 02		 push	 2
  00556	6a 07		 push	 7
  00558	8b 45 fc	 mov	 eax, DWORD PTR _apache$[ebp]
  0055b	50		 push	 eax
  0055c	e8 00 00 00 00	 call	 ?set_texture_animation_frame_on_object@@YGHPAUOBJECT_3D_INSTANCE@@W4TEXTURE_ANIMATION_INDICES@@H@Z ; set_texture_animation_frame_on_object
$LN23@gunship_sc:

; 1023 : 		}
; 1024 : 
; 1025 : 	apache->vp.x = 0;

  00561	8b 45 fc	 mov	 eax, DWORD PTR _apache$[ebp]
  00564	0f 57 c0	 xorps	 xmm0, xmm0
  00567	f3 0f 11 40 08	 movss	 DWORD PTR [eax+8], xmm0

; 1026 : 
; 1027 : 	if ( gunships_screen_side_selected == ENTITY_SIDE_BLUE_FORCE )

  0056c	83 3d 00 00 00
	00 01		 cmp	 DWORD PTR ?gunships_screen_side_selected@@3HA, 1 ; gunships_screen_side_selected
  00573	75 12		 jne	 SHORT $LN24@gunship_sc

; 1028 : 	{
; 1029 : 		apache->vp.y = 1.5;

  00575	8b 45 fc	 mov	 eax, DWORD PTR _apache$[ebp]
  00578	f3 0f 10 05 00
	00 00 00	 movss	 xmm0, DWORD PTR __real@3fc00000
  00580	f3 0f 11 40 0c	 movss	 DWORD PTR [eax+12], xmm0

; 1030 : 	}
; 1031 : 	else

  00585	eb 10		 jmp	 SHORT $LN25@gunship_sc
$LN24@gunship_sc:

; 1032 : 	{
; 1033 : 		apache->vp.y = 2.2;

  00587	8b 45 fc	 mov	 eax, DWORD PTR _apache$[ebp]
  0058a	f3 0f 10 05 00
	00 00 00	 movss	 xmm0, DWORD PTR __real@400ccccd
  00592	f3 0f 11 40 0c	 movss	 DWORD PTR [eax+12], xmm0
$LN25@gunship_sc:

; 1034 : 	}
; 1035 : 
; 1036 : 	apache->vp.z = 18;//12

  00597	8b 45 fc	 mov	 eax, DWORD PTR _apache$[ebp]
  0059a	f3 0f 10 05 00
	00 00 00	 movss	 xmm0, DWORD PTR __real@41900000
  005a2	f3 0f 11 40 10	 movss	 DWORD PTR [eax+16], xmm0

; 1037 : 
; 1038 : 	get_3d_transformation_matrix ( visual_3d_vp->attitude, 0, rad ( 0 ) , my_heading );

  005a7	51		 push	 ecx
  005a8	f3 0f 10 05 00
	00 00 00	 movss	 xmm0, DWORD PTR ?my_heading@?1??gunship_screen_render_gunship@@YGXPAUUI_OBJECT@@PAX@Z@4MA
  005b0	f3 0f 11 04 24	 movss	 DWORD PTR [esp], xmm0
  005b5	51		 push	 ecx
  005b6	0f 57 c0	 xorps	 xmm0, xmm0
  005b9	f3 0f 11 04 24	 movss	 DWORD PTR [esp], xmm0
  005be	51		 push	 ecx
  005bf	0f 57 c0	 xorps	 xmm0, xmm0
  005c2	f3 0f 11 04 24	 movss	 DWORD PTR [esp], xmm0
  005c7	a1 00 00 00 00	 mov	 eax, DWORD PTR ?visual_3d_vp@@3PAUVIEWPOINT@@A ; visual_3d_vp
  005cc	83 c0 0c	 add	 eax, 12			; 0000000cH
  005cf	50		 push	 eax
  005d0	e8 00 00 00 00	 call	 ?get_3d_transformation_matrix@@YGXQAY02MMMM@Z ; get_3d_transformation_matrix

; 1039 : 
; 1040 : 	get_3d_transformation_matrix ( apache->vp.attitude, heading, pitch, 0.0);

  005d5	51		 push	 ecx
  005d6	0f 57 c0	 xorps	 xmm0, xmm0
  005d9	f3 0f 11 04 24	 movss	 DWORD PTR [esp], xmm0
  005de	51		 push	 ecx
  005df	f3 0f 10 05 00
	00 00 00	 movss	 xmm0, DWORD PTR ?pitch@?1??gunship_screen_render_gunship@@YGXPAUUI_OBJECT@@PAX@Z@4MA
  005e7	f3 0f 11 04 24	 movss	 DWORD PTR [esp], xmm0
  005ec	51		 push	 ecx
  005ed	f3 0f 10 05 00
	00 00 00	 movss	 xmm0, DWORD PTR ?heading@?1??gunship_screen_render_gunship@@YGXPAUUI_OBJECT@@PAX@Z@4MA
  005f5	f3 0f 11 04 24	 movss	 DWORD PTR [esp], xmm0
  005fa	8b 45 fc	 mov	 eax, DWORD PTR _apache$[ebp]
  005fd	83 c0 14	 add	 eax, 20			; 00000014H
  00600	50		 push	 eax
  00601	e8 00 00 00 00	 call	 ?get_3d_transformation_matrix@@YGXQAY02MMMM@Z ; get_3d_transformation_matrix

; 1041 : 
; 1042 : 	if (!stop_gunship_model_rotating)

  00606	83 3d 00 00 00
	00 00		 cmp	 DWORD PTR ?stop_gunship_model_rotating@@3HA, 0 ; stop_gunship_model_rotating
  0060d	75 3d		 jne	 SHORT $LN28@gunship_sc

; 1043 : 	{
; 1044 : 
; 1045 : 		if ( gunship_just_entered_screen )

  0060f	83 3d 00 00 00
	00 00		 cmp	 DWORD PTR ?gunship_just_entered_screen@@3HA, 0
  00616	74 0c		 je	 SHORT $LN27@gunship_sc

; 1046 : 		{
; 1047 : 
; 1048 : 			gunship_just_entered_screen = FALSE;

  00618	c7 05 00 00 00
	00 00 00 00 00	 mov	 DWORD PTR ?gunship_just_entered_screen@@3HA, 0

; 1049 : 		}
; 1050 : 		else

  00622	eb 28		 jmp	 SHORT $LN28@gunship_sc
$LN27@gunship_sc:

; 1051 : 		{
; 1052 : 
; 1053 : 			heading += ( 0.75 * get_delta_time () );

  00624	f3 0f 5a 05 00
	00 00 00	 cvtss2sd xmm0, DWORD PTR ?system_delta_time@@3MA
  0062c	f2 0f 59 05 00
	00 00 00	 mulsd	 xmm0, QWORD PTR __real@3fe8000000000000
  00634	f3 0f 5a 0d 00
	00 00 00	 cvtss2sd xmm1, DWORD PTR ?heading@?1??gunship_screen_render_gunship@@YGXPAUUI_OBJECT@@PAX@Z@4MA
  0063c	f2 0f 58 c8	 addsd	 xmm1, xmm0
  00640	f2 0f 5a c1	 cvtsd2ss xmm0, xmm1
  00644	f3 0f 11 05 00
	00 00 00	 movss	 DWORD PTR ?heading@?1??gunship_screen_render_gunship@@YGXPAUUI_OBJECT@@PAX@Z@4MA, xmm0
$LN28@gunship_sc:

; 1054 : 		}
; 1055 : 	}
; 1056 : 
; 1057 : 	insert_object_into_3d_scene ( OBJECT_3D_DRAW_TYPE_OBJECT, apache );

  0064c	51		 push	 ecx
  0064d	0f 57 c0	 xorps	 xmm0, xmm0
  00650	f3 0f 11 04 24	 movss	 DWORD PTR [esp], xmm0
  00655	8b 45 fc	 mov	 eax, DWORD PTR _apache$[ebp]
  00658	50		 push	 eax
  00659	6a 01		 push	 1
  0065b	e8 00 00 00 00	 call	 ?insert_zbiased_object_into_3d_scene@@YGXW4OBJECT_3D_DRAWING_TYPES@@PAXM@Z ; insert_zbiased_object_into_3d_scene

; 1058 : 
; 1059 : 	set_d3d_alpha_fog_zbuffer ( FALSE, TRUE, TRUE, TRUE );

  00660	6a 01		 push	 1
  00662	6a 01		 push	 1
  00664	6a 01		 push	 1
  00666	6a 00		 push	 0
  00668	e8 00 00 00 00	 call	 ?set_d3d_alpha_fog_zbuffer@@YGXHHHH@Z ; set_d3d_alpha_fog_zbuffer

; 1060 : 
; 1061 : 	draw_3d_scene ();

  0066d	e8 00 00 00 00	 call	 ?draw_3d_scene@@YGXXZ	; draw_3d_scene

; 1062 : 
; 1063 : 	set_d3d_alpha_fog_zbuffer ( TRUE, FALSE, FALSE, FALSE );

  00672	6a 00		 push	 0
  00674	6a 00		 push	 0
  00676	6a 00		 push	 0
  00678	6a 01		 push	 1
  0067a	e8 00 00 00 00	 call	 ?set_d3d_alpha_fog_zbuffer@@YGXHHHH@Z ; set_d3d_alpha_fog_zbuffer

; 1064 : 
; 1065 : 	//
; 1066 : 	// DO NOT DESTRUCT THE TEMPORARY INSTANCE - IT WILL CAUSE A PAGE FAULT
; 1067 : 	//
; 1068 : }

  0067f	5f		 pop	 edi
  00680	5e		 pop	 esi
  00681	5b		 pop	 ebx
  00682	8b e5		 mov	 esp, ebp
  00684	5d		 pop	 ebp
  00685	c2 08 00	 ret	 8
$LN30@gunship_sc:
  00688	00 00 00 00	 DD	 $LN11@gunship_sc
  0068c	00 00 00 00	 DD	 $LN17@gunship_sc
  00690	00 00 00 00	 DD	 $LN12@gunship_sc
  00694	00 00 00 00	 DD	 $LN15@gunship_sc
  00698	00 00 00 00	 DD	 $LN13@gunship_sc
  0069c	00 00 00 00	 DD	 $LN16@gunship_sc
  006a0	00 00 00 00	 DD	 $LN10@gunship_sc
  006a4	00 00 00 00	 DD	 $LN14@gunship_sc
  006a8	00 00 00 00	 DD	 $LN18@gunship_sc
  006ac	00 00 00 00	 DD	 $LN19@gunship_sc
?gunship_screen_render_gunship@@YGXPAUUI_OBJECT@@PAX@Z ENDP ; gunship_screen_render_gunship
_TEXT	ENDS
; Function compile flags: /Odtp /ZI
; File c:\users\nhv90\projects\eech\aphavoc\source\ui_menu\gunships\guns_sc.c
;	COMDAT ?set_display_gunship_buttons@@YGXHPAD@Z
_TEXT	SEGMENT
_flag$ = 8						; size = 4
_text$ = 12						; size = 4
?set_display_gunship_buttons@@YGXHPAD@Z PROC		; set_display_gunship_buttons, COMDAT

; 1075 : {

  00000	55		 push	 ebp
  00001	8b ec		 mov	 ebp, esp
  00003	83 ec 40	 sub	 esp, 64			; 00000040H
  00006	53		 push	 ebx
  00007	56		 push	 esi
  00008	57		 push	 edi

; 1076 : 
; 1077 : 	set_ui_object_drawable (gunship_screen_next_button, flag);

  00009	8b 45 08	 mov	 eax, DWORD PTR _flag$[ebp]
  0000c	50		 push	 eax
  0000d	8b 0d 00 00 00
	00		 mov	 ecx, DWORD PTR ?gunship_screen_next_button@@3PAUUI_OBJECT@@A ; gunship_screen_next_button
  00013	51		 push	 ecx
  00014	8b 15 00 00 00
	00		 mov	 edx, DWORD PTR ?gunship_screen_next_button@@3PAUUI_OBJECT@@A ; gunship_screen_next_button
  0001a	8b 02		 mov	 eax, DWORD PTR [edx]
  0001c	8b 0c 85 00 00
	00 00		 mov	 ecx, DWORD PTR ?fn_set_ui_object_drawable@@3PAP6GXPAUUI_OBJECT@@H@ZA[eax*4]
  00023	ff d1		 call	 ecx

; 1078 : 	set_ui_object_drawable (side_selected_area, flag);

  00025	8b 45 08	 mov	 eax, DWORD PTR _flag$[ebp]
  00028	50		 push	 eax
  00029	8b 0d 00 00 00
	00		 mov	 ecx, DWORD PTR ?side_selected_area@@3PAUUI_OBJECT@@A ; side_selected_area
  0002f	51		 push	 ecx
  00030	8b 15 00 00 00
	00		 mov	 edx, DWORD PTR ?side_selected_area@@3PAUUI_OBJECT@@A ; side_selected_area
  00036	8b 02		 mov	 eax, DWORD PTR [edx]
  00038	8b 0c 85 00 00
	00 00		 mov	 ecx, DWORD PTR ?fn_set_ui_object_drawable@@3PAP6GXPAUUI_OBJECT@@H@ZA[eax*4]
  0003f	ff d1		 call	 ecx

; 1079 : 	set_ui_object_drawable (gunship_screen_gunship_type_button, flag);

  00041	8b 45 08	 mov	 eax, DWORD PTR _flag$[ebp]
  00044	50		 push	 eax
  00045	8b 0d 00 00 00
	00		 mov	 ecx, DWORD PTR ?gunship_screen_gunship_type_button@@3PAUUI_OBJECT@@A ; gunship_screen_gunship_type_button
  0004b	51		 push	 ecx
  0004c	8b 15 00 00 00
	00		 mov	 edx, DWORD PTR ?gunship_screen_gunship_type_button@@3PAUUI_OBJECT@@A ; gunship_screen_gunship_type_button
  00052	8b 02		 mov	 eax, DWORD PTR [edx]
  00054	8b 0c 85 00 00
	00 00		 mov	 ecx, DWORD PTR ?fn_set_ui_object_drawable@@3PAP6GXPAUUI_OBJECT@@H@ZA[eax*4]
  0005b	ff d1		 call	 ecx

; 1080 : 	set_ui_object_drawable (gunship_screen_gunship_type_area, flag);

  0005d	8b 45 08	 mov	 eax, DWORD PTR _flag$[ebp]
  00060	50		 push	 eax
  00061	8b 0d 00 00 00
	00		 mov	 ecx, DWORD PTR ?gunship_screen_gunship_type_area@@3PAUUI_OBJECT@@A ; gunship_screen_gunship_type_area
  00067	51		 push	 ecx
  00068	8b 15 00 00 00
	00		 mov	 edx, DWORD PTR ?gunship_screen_gunship_type_area@@3PAUUI_OBJECT@@A ; gunship_screen_gunship_type_area
  0006e	8b 02		 mov	 eax, DWORD PTR [edx]
  00070	8b 0c 85 00 00
	00 00		 mov	 ecx, DWORD PTR ?fn_set_ui_object_drawable@@3PAP6GXPAUUI_OBJECT@@H@ZA[eax*4]
  00077	ff d1		 call	 ecx

; 1081 : 	set_ui_object_drawable (gunship_screen_gunship_text, flag);

  00079	8b 45 08	 mov	 eax, DWORD PTR _flag$[ebp]
  0007c	50		 push	 eax
  0007d	8b 0d 00 00 00
	00		 mov	 ecx, DWORD PTR ?gunship_screen_gunship_text@@3PAUUI_OBJECT@@A ; gunship_screen_gunship_text
  00083	51		 push	 ecx
  00084	8b 15 00 00 00
	00		 mov	 edx, DWORD PTR ?gunship_screen_gunship_text@@3PAUUI_OBJECT@@A ; gunship_screen_gunship_text
  0008a	8b 02		 mov	 eax, DWORD PTR [edx]
  0008c	8b 0c 85 00 00
	00 00		 mov	 ecx, DWORD PTR ?fn_set_ui_object_drawable@@3PAP6GXPAUUI_OBJECT@@H@ZA[eax*4]
  00093	ff d1		 call	 ecx

; 1082 : 	set_ui_object_drawable (gunship_screen_gunship_text_area, flag);

  00095	8b 45 08	 mov	 eax, DWORD PTR _flag$[ebp]
  00098	50		 push	 eax
  00099	8b 0d 00 00 00
	00		 mov	 ecx, DWORD PTR ?gunship_screen_gunship_text_area@@3PAUUI_OBJECT@@A ; gunship_screen_gunship_text_area
  0009f	51		 push	 ecx
  000a0	8b 15 00 00 00
	00		 mov	 edx, DWORD PTR ?gunship_screen_gunship_text_area@@3PAUUI_OBJECT@@A ; gunship_screen_gunship_text_area
  000a6	8b 02		 mov	 eax, DWORD PTR [edx]
  000a8	8b 0c 85 00 00
	00 00		 mov	 ecx, DWORD PTR ?fn_set_ui_object_drawable@@3PAP6GXPAUUI_OBJECT@@H@ZA[eax*4]
  000af	ff d1		 call	 ecx

; 1083 : 
; 1084 : 	set_ui_object_text (gunship_screen_next_button, get_trans (text));

  000b1	8b 45 0c	 mov	 eax, DWORD PTR _text$[ebp]
  000b4	50		 push	 eax
  000b5	e8 00 00 00 00	 call	 ?get_trans@@YGPBDPBD@Z	; get_trans
  000ba	50		 push	 eax
  000bb	8b 0d 00 00 00
	00		 mov	 ecx, DWORD PTR ?gunship_screen_next_button@@3PAUUI_OBJECT@@A ; gunship_screen_next_button
  000c1	51		 push	 ecx
  000c2	8b 15 00 00 00
	00		 mov	 edx, DWORD PTR ?gunship_screen_next_button@@3PAUUI_OBJECT@@A ; gunship_screen_next_button
  000c8	8b 02		 mov	 eax, DWORD PTR [edx]
  000ca	8b 0c 85 00 00
	00 00		 mov	 ecx, DWORD PTR ?fn_set_ui_object_text@@3PAP6GXPAUUI_OBJECT@@PBD@ZA[eax*4]
  000d1	ff d1		 call	 ecx

; 1085 : }

  000d3	5f		 pop	 edi
  000d4	5e		 pop	 esi
  000d5	5b		 pop	 ebx
  000d6	8b e5		 mov	 esp, ebp
  000d8	5d		 pop	 ebp
  000d9	c2 08 00	 ret	 8
?set_display_gunship_buttons@@YGXHPAD@Z ENDP		; set_display_gunship_buttons
_TEXT	ENDS
; Function compile flags: /Odtp /ZI
; File c:\users\nhv90\projects\eech\aphavoc\source\ui_menu\gunships\guns_sc.c
;	COMDAT ?gunships_button_function@@YGXPAUUI_OBJECT@@PAX@Z
_TEXT	SEGMENT
tv66 = -68						; size = 4
_obj$ = 8						; size = 4
_arg$ = 12						; size = 4
?gunships_button_function@@YGXPAUUI_OBJECT@@PAX@Z PROC	; gunships_button_function, COMDAT

; 570  : {

  00000	55		 push	 ebp
  00001	8b ec		 mov	 ebp, esp
  00003	83 ec 44	 sub	 esp, 68			; 00000044H
  00006	53		 push	 ebx
  00007	56		 push	 esi
  00008	57		 push	 edi

; 571  : 	if (get_game_type () == GAME_TYPE_FREE_FLIGHT)  // in free flight select helicopter instead of side

  00009	83 3d 00 00 00
	00 01		 cmp	 DWORD PTR ?game_type@@3W4GAME_TYPES@@A, 1 ; game_type
  00010	0f 85 1c 01 00
	00		 jne	 $LN4@gunships_b

; 572  : 	{
; 573  : 		switch (get_free_flight_gunship_type())

  00016	e8 00 00 00 00	 call	 ?get_free_flight_gunship_type@@YG?AW4GUNSHIP_TYPES@@XZ ; get_free_flight_gunship_type
  0001b	89 45 bc	 mov	 DWORD PTR tv66[ebp], eax
  0001e	83 7d bc 09	 cmp	 DWORD PTR tv66[ebp], 9
  00022	0f 87 cf 00 00
	00		 ja	 $LN2@gunships_b
  00028	8b 45 bc	 mov	 eax, DWORD PTR tv66[ebp]
  0002b	ff 24 85 00 00
	00 00		 jmp	 DWORD PTR $LN20@gunships_b[eax*4]
$LN6@gunships_b:

; 574  : 		{
; 575  : 		case GUNSHIP_TYPE_HAVOC:
; 576  : #ifdef DEBUG
; 577  : 			gunships_screen_side_selected = ENTITY_SIDE_BLUE_FORCE;

  00032	c7 05 00 00 00
	00 01 00 00 00	 mov	 DWORD PTR ?gunships_screen_side_selected@@3HA, 1 ; gunships_screen_side_selected

; 578  : 			set_free_flight_gunship_type(GUNSHIP_TYPE_AH64A);

  0003c	6a 06		 push	 6
  0003e	e8 00 00 00 00	 call	 ?set_free_flight_gunship_type@@YGXW4GUNSHIP_TYPES@@@Z ; set_free_flight_gunship_type

; 579  : 			break;

  00043	e9 af 00 00 00	 jmp	 $LN2@gunships_b
$LN7@gunships_b:

; 580  : #endif
; 581  : 		case GUNSHIP_TYPE_AH64A:
; 582  : 			gunships_screen_side_selected = ENTITY_SIDE_BLUE_FORCE;

  00048	c7 05 00 00 00
	00 01 00 00 00	 mov	 DWORD PTR ?gunships_screen_side_selected@@3HA, 1 ; gunships_screen_side_selected

; 583  : 			set_free_flight_gunship_type(GUNSHIP_TYPE_APACHE);

  00052	6a 00		 push	 0
  00054	e8 00 00 00 00	 call	 ?set_free_flight_gunship_type@@YGXW4GUNSHIP_TYPES@@@Z ; set_free_flight_gunship_type

; 584  : 			break;

  00059	e9 99 00 00 00	 jmp	 $LN2@gunships_b
$LN8@gunships_b:

; 585  : 		case GUNSHIP_TYPE_APACHE:
; 586  : 			gunships_screen_side_selected = ENTITY_SIDE_BLUE_FORCE;

  0005e	c7 05 00 00 00
	00 01 00 00 00	 mov	 DWORD PTR ?gunships_screen_side_selected@@3HA, 1 ; gunships_screen_side_selected

; 587  : 			set_free_flight_gunship_type(GUNSHIP_TYPE_COMANCHE);

  00068	6a 02		 push	 2
  0006a	e8 00 00 00 00	 call	 ?set_free_flight_gunship_type@@YGXW4GUNSHIP_TYPES@@@Z ; set_free_flight_gunship_type

; 588  : 			break;

  0006f	e9 83 00 00 00	 jmp	 $LN2@gunships_b
$LN9@gunships_b:

; 589  : 		case GUNSHIP_TYPE_COMANCHE:
; 590  : #ifdef DEBUG
; 591  : 			gunships_screen_side_selected = ENTITY_SIDE_BLUE_FORCE;

  00074	c7 05 00 00 00
	00 01 00 00 00	 mov	 DWORD PTR ?gunships_screen_side_selected@@3HA, 1 ; gunships_screen_side_selected

; 592  : 			set_free_flight_gunship_type(GUNSHIP_TYPE_BLACKHAWK);

  0007e	6a 04		 push	 4
  00080	e8 00 00 00 00	 call	 ?set_free_flight_gunship_type@@YGXW4GUNSHIP_TYPES@@@Z ; set_free_flight_gunship_type

; 593  : 			break;

  00085	eb 70		 jmp	 SHORT $LN2@gunships_b
$LN10@gunships_b:

; 594  : #endif
; 595  : 		case GUNSHIP_TYPE_BLACKHAWK:
; 596  : 			set_free_flight_gunship_type(GUNSHIP_TYPE_KA50);

  00087	6a 07		 push	 7
  00089	e8 00 00 00 00	 call	 ?set_free_flight_gunship_type@@YGXW4GUNSHIP_TYPES@@@Z ; set_free_flight_gunship_type

; 597  : 			gunships_screen_side_selected = ENTITY_SIDE_RED_FORCE;

  0008e	c7 05 00 00 00
	00 02 00 00 00	 mov	 DWORD PTR ?gunships_screen_side_selected@@3HA, 2 ; gunships_screen_side_selected

; 598  : 			break;

  00098	eb 5d		 jmp	 SHORT $LN2@gunships_b
$LN11@gunships_b:

; 599  : 		case GUNSHIP_TYPE_KA50:
; 600  : 			set_free_flight_gunship_type(GUNSHIP_TYPE_HOKUM);

  0009a	6a 03		 push	 3
  0009c	e8 00 00 00 00	 call	 ?set_free_flight_gunship_type@@YGXW4GUNSHIP_TYPES@@@Z ; set_free_flight_gunship_type

; 601  : 			gunships_screen_side_selected = ENTITY_SIDE_RED_FORCE;

  000a1	c7 05 00 00 00
	00 02 00 00 00	 mov	 DWORD PTR ?gunships_screen_side_selected@@3HA, 2 ; gunships_screen_side_selected

; 602  : 			break;

  000ab	eb 4a		 jmp	 SHORT $LN2@gunships_b
$LN12@gunships_b:

; 603  : 		case GUNSHIP_TYPE_HOKUM:
; 604  : 			set_free_flight_gunship_type(GUNSHIP_TYPE_HIND);

  000ad	6a 05		 push	 5
  000af	e8 00 00 00 00	 call	 ?set_free_flight_gunship_type@@YGXW4GUNSHIP_TYPES@@@Z ; set_free_flight_gunship_type

; 605  : 			gunships_screen_side_selected = ENTITY_SIDE_RED_FORCE;

  000b4	c7 05 00 00 00
	00 02 00 00 00	 mov	 DWORD PTR ?gunships_screen_side_selected@@3HA, 2 ; gunships_screen_side_selected

; 606  : 			break;

  000be	eb 37		 jmp	 SHORT $LN2@gunships_b
$LN13@gunships_b:

; 607  : 		case GUNSHIP_TYPE_HIND:
; 608  : 			set_free_flight_gunship_type(GUNSHIP_TYPE_VIPER);

  000c0	6a 08		 push	 8
  000c2	e8 00 00 00 00	 call	 ?set_free_flight_gunship_type@@YGXW4GUNSHIP_TYPES@@@Z ; set_free_flight_gunship_type

; 609  : 			gunships_screen_side_selected = ENTITY_SIDE_BLUE_FORCE;

  000c7	c7 05 00 00 00
	00 01 00 00 00	 mov	 DWORD PTR ?gunships_screen_side_selected@@3HA, 1 ; gunships_screen_side_selected

; 610  : 			break;

  000d1	eb 24		 jmp	 SHORT $LN2@gunships_b
$LN14@gunships_b:

; 611  : 		case GUNSHIP_TYPE_VIPER:
; 612  : 			set_free_flight_gunship_type(GUNSHIP_TYPE_KIOWA);

  000d3	6a 09		 push	 9
  000d5	e8 00 00 00 00	 call	 ?set_free_flight_gunship_type@@YGXW4GUNSHIP_TYPES@@@Z ; set_free_flight_gunship_type

; 613  : 			gunships_screen_side_selected = ENTITY_SIDE_BLUE_FORCE;

  000da	c7 05 00 00 00
	00 01 00 00 00	 mov	 DWORD PTR ?gunships_screen_side_selected@@3HA, 1 ; gunships_screen_side_selected

; 614  : 			break;

  000e4	eb 11		 jmp	 SHORT $LN2@gunships_b
$LN15@gunships_b:

; 615  : 		case GUNSHIP_TYPE_KIOWA:
; 616  : 			set_free_flight_gunship_type(GUNSHIP_TYPE_HAVOC);

  000e6	6a 01		 push	 1
  000e8	e8 00 00 00 00	 call	 ?set_free_flight_gunship_type@@YGXW4GUNSHIP_TYPES@@@Z ; set_free_flight_gunship_type

; 617  : 			gunships_screen_side_selected = ENTITY_SIDE_RED_FORCE;

  000ed	c7 05 00 00 00
	00 02 00 00 00	 mov	 DWORD PTR ?gunships_screen_side_selected@@3HA, 2 ; gunships_screen_side_selected
$LN2@gunships_b:

; 618  : 			break;
; 619  : 		}
; 620  : 
; 621  : 		set_ui_object_text(gunship_screen_gunship_type_button, get_gunship_name());

  000f7	e8 00 00 00 00	 call	 ?get_gunship_name@@YGPBDXZ ; get_gunship_name
  000fc	50		 push	 eax
  000fd	a1 00 00 00 00	 mov	 eax, DWORD PTR ?gunship_screen_gunship_type_button@@3PAUUI_OBJECT@@A ; gunship_screen_gunship_type_button
  00102	50		 push	 eax
  00103	8b 0d 00 00 00
	00		 mov	 ecx, DWORD PTR ?gunship_screen_gunship_type_button@@3PAUUI_OBJECT@@A ; gunship_screen_gunship_type_button
  00109	8b 11		 mov	 edx, DWORD PTR [ecx]
  0010b	8b 04 95 00 00
	00 00		 mov	 eax, DWORD PTR ?fn_set_ui_object_text@@3PAP6GXPAUUI_OBJECT@@PBD@ZA[edx*4]
  00112	ff d0		 call	 eax

; 622  : 		set_ui_object_text_justify (side_selected_area, TEXT_JUSTIFY_LEFT_CENTRE);

  00114	6a 01		 push	 1
  00116	a1 00 00 00 00	 mov	 eax, DWORD PTR ?side_selected_area@@3PAUUI_OBJECT@@A ; side_selected_area
  0011b	50		 push	 eax
  0011c	8b 0d 00 00 00
	00		 mov	 ecx, DWORD PTR ?side_selected_area@@3PAUUI_OBJECT@@A ; side_selected_area
  00122	8b 11		 mov	 edx, DWORD PTR [ecx]
  00124	8b 04 95 00 00
	00 00		 mov	 eax, DWORD PTR ?fn_set_ui_object_text_justify@@3PAP6GXPAUUI_OBJECT@@W4TEXT_JUSTIFY_TYPES@@@ZA[edx*4]
  0012b	ff d0		 call	 eax

; 623  : 	}
; 624  : 	else

  0012d	e9 e2 00 00 00	 jmp	 $LN5@gunships_b
$LN4@gunships_b:

; 625  : 		if ((gunships_screen_side_selected == ENTITY_SIDE_BLUE_FORCE) || (gunships_screen_side_selected == ENTITY_SIDE_NEUTRAL))

  00132	83 3d 00 00 00
	00 01		 cmp	 DWORD PTR ?gunships_screen_side_selected@@3HA, 1 ; gunships_screen_side_selected
  00139	74 09		 je	 SHORT $LN18@gunships_b
  0013b	83 3d 00 00 00
	00 00		 cmp	 DWORD PTR ?gunships_screen_side_selected@@3HA, 0 ; gunships_screen_side_selected
  00142	75 69		 jne	 SHORT $LN16@gunships_b
$LN18@gunships_b:

; 626  : 		{
; 627  : 			set_ui_object_text (gunship_screen_gunship_type_button, get_trans ("Red Force"));

  00144	68 00 00 00 00	 push	 OFFSET ??_C@_09HNDCBJKL@Red?5Force@
  00149	e8 00 00 00 00	 call	 ?get_trans@@YGPBDPBD@Z	; get_trans
  0014e	50		 push	 eax
  0014f	a1 00 00 00 00	 mov	 eax, DWORD PTR ?gunship_screen_gunship_type_button@@3PAUUI_OBJECT@@A ; gunship_screen_gunship_type_button
  00154	50		 push	 eax
  00155	8b 0d 00 00 00
	00		 mov	 ecx, DWORD PTR ?gunship_screen_gunship_type_button@@3PAUUI_OBJECT@@A ; gunship_screen_gunship_type_button
  0015b	8b 11		 mov	 edx, DWORD PTR [ecx]
  0015d	8b 04 95 00 00
	00 00		 mov	 eax, DWORD PTR ?fn_set_ui_object_text@@3PAP6GXPAUUI_OBJECT@@PBD@ZA[edx*4]
  00164	ff d0		 call	 eax

; 628  : 
; 629  : 			set_ui_object_text (side_selected_area, get_trans (""));

  00166	68 00 00 00 00	 push	 OFFSET ??_C@_00CNPNBAHC@@
  0016b	e8 00 00 00 00	 call	 ?get_trans@@YGPBDPBD@Z	; get_trans
  00170	50		 push	 eax
  00171	a1 00 00 00 00	 mov	 eax, DWORD PTR ?side_selected_area@@3PAUUI_OBJECT@@A ; side_selected_area
  00176	50		 push	 eax
  00177	8b 0d 00 00 00
	00		 mov	 ecx, DWORD PTR ?side_selected_area@@3PAUUI_OBJECT@@A ; side_selected_area
  0017d	8b 11		 mov	 edx, DWORD PTR [ecx]
  0017f	8b 04 95 00 00
	00 00		 mov	 eax, DWORD PTR ?fn_set_ui_object_text@@3PAP6GXPAUUI_OBJECT@@PBD@ZA[edx*4]
  00186	ff d0		 call	 eax

; 630  : 
; 631  : 			set_ui_object_text_justify (side_selected_area, TEXT_JUSTIFY_CENTRE);

  00188	6a 00		 push	 0
  0018a	a1 00 00 00 00	 mov	 eax, DWORD PTR ?side_selected_area@@3PAUUI_OBJECT@@A ; side_selected_area
  0018f	50		 push	 eax
  00190	8b 0d 00 00 00
	00		 mov	 ecx, DWORD PTR ?side_selected_area@@3PAUUI_OBJECT@@A ; side_selected_area
  00196	8b 11		 mov	 edx, DWORD PTR [ecx]
  00198	8b 04 95 00 00
	00 00		 mov	 eax, DWORD PTR ?fn_set_ui_object_text_justify@@3PAP6GXPAUUI_OBJECT@@W4TEXT_JUSTIFY_TYPES@@@ZA[edx*4]
  0019f	ff d0		 call	 eax

; 632  : 
; 633  : 			gunships_screen_side_selected = ENTITY_SIDE_RED_FORCE;

  001a1	c7 05 00 00 00
	00 02 00 00 00	 mov	 DWORD PTR ?gunships_screen_side_selected@@3HA, 2 ; gunships_screen_side_selected

; 634  : 		}
; 635  : 		else

  001ab	eb 67		 jmp	 SHORT $LN5@gunships_b
$LN16@gunships_b:

; 636  : 		{
; 637  : 			set_ui_object_text (gunship_screen_gunship_type_button, get_trans ("Blue Force"));

  001ad	68 00 00 00 00	 push	 OFFSET ??_C@_0L@GNELJAHL@Blue?5Force@
  001b2	e8 00 00 00 00	 call	 ?get_trans@@YGPBDPBD@Z	; get_trans
  001b7	50		 push	 eax
  001b8	a1 00 00 00 00	 mov	 eax, DWORD PTR ?gunship_screen_gunship_type_button@@3PAUUI_OBJECT@@A ; gunship_screen_gunship_type_button
  001bd	50		 push	 eax
  001be	8b 0d 00 00 00
	00		 mov	 ecx, DWORD PTR ?gunship_screen_gunship_type_button@@3PAUUI_OBJECT@@A ; gunship_screen_gunship_type_button
  001c4	8b 11		 mov	 edx, DWORD PTR [ecx]
  001c6	8b 04 95 00 00
	00 00		 mov	 eax, DWORD PTR ?fn_set_ui_object_text@@3PAP6GXPAUUI_OBJECT@@PBD@ZA[edx*4]
  001cd	ff d0		 call	 eax

; 638  : 
; 639  : 			set_ui_object_text (side_selected_area, get_trans (""));

  001cf	68 00 00 00 00	 push	 OFFSET ??_C@_00CNPNBAHC@@
  001d4	e8 00 00 00 00	 call	 ?get_trans@@YGPBDPBD@Z	; get_trans
  001d9	50		 push	 eax
  001da	a1 00 00 00 00	 mov	 eax, DWORD PTR ?side_selected_area@@3PAUUI_OBJECT@@A ; side_selected_area
  001df	50		 push	 eax
  001e0	8b 0d 00 00 00
	00		 mov	 ecx, DWORD PTR ?side_selected_area@@3PAUUI_OBJECT@@A ; side_selected_area
  001e6	8b 11		 mov	 edx, DWORD PTR [ecx]
  001e8	8b 04 95 00 00
	00 00		 mov	 eax, DWORD PTR ?fn_set_ui_object_text@@3PAP6GXPAUUI_OBJECT@@PBD@ZA[edx*4]
  001ef	ff d0		 call	 eax

; 640  : 
; 641  : 			set_ui_object_text_justify (side_selected_area, TEXT_JUSTIFY_CENTRE);

  001f1	6a 00		 push	 0
  001f3	a1 00 00 00 00	 mov	 eax, DWORD PTR ?side_selected_area@@3PAUUI_OBJECT@@A ; side_selected_area
  001f8	50		 push	 eax
  001f9	8b 0d 00 00 00
	00		 mov	 ecx, DWORD PTR ?side_selected_area@@3PAUUI_OBJECT@@A ; side_selected_area
  001ff	8b 11		 mov	 edx, DWORD PTR [ecx]
  00201	8b 04 95 00 00
	00 00		 mov	 eax, DWORD PTR ?fn_set_ui_object_text_justify@@3PAP6GXPAUUI_OBJECT@@W4TEXT_JUSTIFY_TYPES@@@ZA[edx*4]
  00208	ff d0		 call	 eax

; 642  : 
; 643  : 			gunships_screen_side_selected = ENTITY_SIDE_BLUE_FORCE;

  0020a	c7 05 00 00 00
	00 01 00 00 00	 mov	 DWORD PTR ?gunships_screen_side_selected@@3HA, 1 ; gunships_screen_side_selected
$LN5@gunships_b:

; 644  : 		}
; 645  : 
; 646  : 	// don't leave text selected
; 647  : 
; 648  : 	set_toggle_button_off (obj);

  00214	8b 45 08	 mov	 eax, DWORD PTR _obj$[ebp]
  00217	50		 push	 eax
  00218	e8 00 00 00 00	 call	 ?set_toggle_button_off@@YGXPAUUI_OBJECT@@@Z ; set_toggle_button_off

; 649  : }

  0021d	5f		 pop	 edi
  0021e	5e		 pop	 esi
  0021f	5b		 pop	 ebx
  00220	8b e5		 mov	 esp, ebp
  00222	5d		 pop	 ebp
  00223	c2 08 00	 ret	 8
  00226	66 90		 npad	 2
$LN20@gunships_b:
  00228	00 00 00 00	 DD	 $LN8@gunships_b
  0022c	00 00 00 00	 DD	 $LN6@gunships_b
  00230	00 00 00 00	 DD	 $LN9@gunships_b
  00234	00 00 00 00	 DD	 $LN12@gunships_b
  00238	00 00 00 00	 DD	 $LN10@gunships_b
  0023c	00 00 00 00	 DD	 $LN13@gunships_b
  00240	00 00 00 00	 DD	 $LN7@gunships_b
  00244	00 00 00 00	 DD	 $LN11@gunships_b
  00248	00 00 00 00	 DD	 $LN14@gunships_b
  0024c	00 00 00 00	 DD	 $LN15@gunships_b
?gunships_button_function@@YGXPAUUI_OBJECT@@PAX@Z ENDP	; gunships_button_function
_TEXT	ENDS
; Function compile flags: /Odtp /ZI
; File c:\users\nhv90\projects\eech\aphavoc\source\ui_menu\gunships\guns_sc.c
;	COMDAT ?set_gunship_screen_progress_message@@YGXH@Z
_TEXT	SEGMENT
_message$ = 8						; size = 4
?set_gunship_screen_progress_message@@YGXH@Z PROC	; set_gunship_screen_progress_message, COMDAT

; 812  : {

  00000	55		 push	 ebp
  00001	8b ec		 mov	 ebp, esp
  00003	83 ec 40	 sub	 esp, 64			; 00000040H
  00006	53		 push	 ebx
  00007	56		 push	 esi
  00008	57		 push	 edi

; 813  : 
; 814  : 	gunship_screen_progress_message = message;

  00009	8b 45 08	 mov	 eax, DWORD PTR _message$[ebp]
  0000c	a3 00 00 00 00	 mov	 DWORD PTR ?gunship_screen_progress_message@@3HA, eax ; gunship_screen_progress_message

; 815  : 
; 816  : 	gunship_screen_progress_dot_count = 0;

  00011	c7 05 00 00 00
	00 00 00 00 00	 mov	 DWORD PTR ?gunship_screen_progress_dot_count@@3HA, 0

; 817  : 
; 818  : 	if (message == GUNSHIPS_SCREEN_CONNECTING_TEXT)

  0001b	83 7d 08 00	 cmp	 DWORD PTR _message$[ebp], 0
  0001f	75 24		 jne	 SHORT $LN2@set_gunshi

; 819  : 	{
; 820  : 
; 821  : //		set_ui_object_x (gunship_screen_waiting_area_text, get_localisation_x_position (text_translation_list, GUNSHIPS_SCREEN_CONNECTING_TEXT));
; 822  : 
; 823  : 		set_ui_object_text (gunship_screen_waiting_area_text, get_trans ("Connecting"));

  00021	68 00 00 00 00	 push	 OFFSET ??_C@_0L@NPJJHNMF@Connecting@
  00026	e8 00 00 00 00	 call	 ?get_trans@@YGPBDPBD@Z	; get_trans
  0002b	50		 push	 eax
  0002c	a1 00 00 00 00	 mov	 eax, DWORD PTR ?gunship_screen_waiting_area_text@@3PAUUI_OBJECT@@A ; gunship_screen_waiting_area_text
  00031	50		 push	 eax
  00032	8b 0d 00 00 00
	00		 mov	 ecx, DWORD PTR ?gunship_screen_waiting_area_text@@3PAUUI_OBJECT@@A ; gunship_screen_waiting_area_text
  00038	8b 11		 mov	 edx, DWORD PTR [ecx]
  0003a	8b 04 95 00 00
	00 00		 mov	 eax, DWORD PTR ?fn_set_ui_object_text@@3PAP6GXPAUUI_OBJECT@@PBD@ZA[edx*4]
  00041	ff d0		 call	 eax

; 824  : 	}
; 825  : 	else

  00043	eb 2c		 jmp	 SHORT $LN1@set_gunshi
$LN2@set_gunshi:

; 826  : 	{
; 827  : 
; 828  : 		// set flag for helo rotation
; 829  : 		stop_gunship_model_rotating = TRUE;

  00045	c7 05 00 00 00
	00 01 00 00 00	 mov	 DWORD PTR ?stop_gunship_model_rotating@@3HA, 1 ; stop_gunship_model_rotating

; 830  : 
; 831  : //		set_ui_object_x (gunship_screen_waiting_area_text, get_localisation_x_position (text_translation_list, GUNSHIPS_SCREEN_GENERATING_CAMPAIGN_TEXT));
; 832  : 
; 833  : 		set_ui_object_text (gunship_screen_waiting_area_text, get_trans ("Generating Campaign"));

  0004f	68 00 00 00 00	 push	 OFFSET ??_C@_0BE@GIMNANDF@Generating?5Campaign@
  00054	e8 00 00 00 00	 call	 ?get_trans@@YGPBDPBD@Z	; get_trans
  00059	50		 push	 eax
  0005a	a1 00 00 00 00	 mov	 eax, DWORD PTR ?gunship_screen_waiting_area_text@@3PAUUI_OBJECT@@A ; gunship_screen_waiting_area_text
  0005f	50		 push	 eax
  00060	8b 0d 00 00 00
	00		 mov	 ecx, DWORD PTR ?gunship_screen_waiting_area_text@@3PAUUI_OBJECT@@A ; gunship_screen_waiting_area_text
  00066	8b 11		 mov	 edx, DWORD PTR [ecx]
  00068	8b 04 95 00 00
	00 00		 mov	 eax, DWORD PTR ?fn_set_ui_object_text@@3PAP6GXPAUUI_OBJECT@@PBD@ZA[edx*4]
  0006f	ff d0		 call	 eax
$LN1@set_gunshi:

; 834  : 	}
; 835  : }

  00071	5f		 pop	 edi
  00072	5e		 pop	 esi
  00073	5b		 pop	 ebx
  00074	8b e5		 mov	 esp, ebp
  00076	5d		 pop	 ebp
  00077	c2 04 00	 ret	 4
?set_gunship_screen_progress_message@@YGXH@Z ENDP	; set_gunship_screen_progress_message
_TEXT	ENDS
; Function compile flags: /Odtp /ZI
; File c:\users\nhv90\projects\eech\aphavoc\source\ui_menu\gunships\guns_sc.c
;	COMDAT ?update_gunships_screen_progress_indicator@@YGXXZ
_TEXT	SEGMENT
_buffer$ = -68						; size = 64
_loop$ = -4						; size = 4
?update_gunships_screen_progress_indicator@@YGXXZ PROC	; update_gunships_screen_progress_indicator, COMDAT

; 739  : {

  00000	55		 push	 ebp
  00001	8b ec		 mov	 ebp, esp
  00003	81 ec 84 00 00
	00		 sub	 esp, 132		; 00000084H
  00009	53		 push	 ebx
  0000a	56		 push	 esi
  0000b	57		 push	 edi

; 740  : 
; 741  : 	int
; 742  : 		loop;
; 743  : 
; 744  : 	static unsigned int
; 745  : 		progress_timer = 0;
; 746  : 
; 747  : 	char
; 748  : 		buffer [64];
; 749  : 
; 750  : 	//////////////////////////////////////////////////////////////////////////////////
; 751  : 
; 752  : 	if (progress_timer > get_system_time ())

  0000c	e8 00 00 00 00	 call	 ?get_system_time@@YGIXZ	; get_system_time
  00011	39 05 00 00 00
	00		 cmp	 DWORD PTR ?progress_timer@?1??update_gunships_screen_progress_indicator@@YGXXZ@4IA, eax
  00017	76 05		 jbe	 SHORT $LN5@update_gun

; 753  : 	{
; 754  : 
; 755  : 		return;

  00019	e9 d5 00 00 00	 jmp	 $LN1@update_gun
$LN5@update_gun:

; 756  : 	}
; 757  : 
; 758  : 	//////////////////////////////////////////////////////////////////////////////////
; 759  : 
; 760  : 	progress_timer = get_system_time () + TIME_1_SECOND;

  0001e	e8 00 00 00 00	 call	 ?get_system_time@@YGIXZ	; get_system_time
  00023	05 e8 03 00 00	 add	 eax, 1000		; 000003e8H
  00028	a3 00 00 00 00	 mov	 DWORD PTR ?progress_timer@?1??update_gunships_screen_progress_indicator@@YGXXZ@4IA, eax

; 761  : 
; 762  : 	gunship_screen_progress_dot_count ++;

  0002d	a1 00 00 00 00	 mov	 eax, DWORD PTR ?gunship_screen_progress_dot_count@@3HA
  00032	83 c0 01	 add	 eax, 1
  00035	a3 00 00 00 00	 mov	 DWORD PTR ?gunship_screen_progress_dot_count@@3HA, eax

; 763  : 
; 764  : 	if (gunship_screen_progress_dot_count > 5)

  0003a	83 3d 00 00 00
	00 05		 cmp	 DWORD PTR ?gunship_screen_progress_dot_count@@3HA, 5
  00041	7e 0a		 jle	 SHORT $LN6@update_gun

; 765  : 	{
; 766  : 
; 767  : 		gunship_screen_progress_dot_count = 0;

  00043	c7 05 00 00 00
	00 00 00 00 00	 mov	 DWORD PTR ?gunship_screen_progress_dot_count@@3HA, 0
$LN6@update_gun:

; 768  : 	}
; 769  : 
; 770  : 	if (get_gunship_screen_progress_message () == GUNSHIPS_SCREEN_CONNECTING_TEXT)

  0004d	83 3d 00 00 00
	00 00		 cmp	 DWORD PTR ?gunship_screen_progress_message@@3HA, 0 ; gunship_screen_progress_message
  00054	75 24		 jne	 SHORT $LN7@update_gun

; 771  : 	{
; 772  : 
; 773  : //		set_ui_object_x (gunship_screen_waiting_area_text, get_localisation_x_position (text_translation_list, GUNSHIPS_SCREEN_CONNECTING_TEXT));
; 774  : 
; 775  : 		// debug to show number of packets
; 776  : 		//strcpy (buffer, get_localisation_text (text_translation_list, GUNSHIPS_SCREEN_CONNECTING_TEXT));
; 777  : 		sprintf (buffer, "%s (%d)", get_trans ("Connecting"), personal_packet_list_counter);

  00056	a1 00 00 00 00	 mov	 eax, DWORD PTR ?personal_packet_list_counter@@3HA ; personal_packet_list_counter
  0005b	50		 push	 eax
  0005c	68 00 00 00 00	 push	 OFFSET ??_C@_0L@NPJJHNMF@Connecting@
  00061	e8 00 00 00 00	 call	 ?get_trans@@YGPBDPBD@Z	; get_trans
  00066	50		 push	 eax
  00067	68 00 00 00 00	 push	 OFFSET ??_C@_07JMKCEEPK@?$CFs?5?$CI?$CFd?$CJ@
  0006c	8d 4d bc	 lea	 ecx, DWORD PTR _buffer$[ebp]
  0006f	51		 push	 ecx
  00070	e8 00 00 00 00	 call	 _sprintf
  00075	83 c4 10	 add	 esp, 16			; 00000010H

; 778  : 		// debug to show number of packets
; 779  : 	}
; 780  : 	else

  00078	eb 17		 jmp	 SHORT $LN8@update_gun
$LN7@update_gun:

; 781  : 	{
; 782  : 
; 783  : //		set_ui_object_x (gunship_screen_waiting_area_text, get_localisation_x_position (text_translation_list, GUNSHIPS_SCREEN_GENERATING_CAMPAIGN_TEXT));
; 784  : 
; 785  : 		strcpy (buffer, get_trans ("Generating Campaign"));

  0007a	68 00 00 00 00	 push	 OFFSET ??_C@_0BE@GIMNANDF@Generating?5Campaign@
  0007f	e8 00 00 00 00	 call	 ?get_trans@@YGPBDPBD@Z	; get_trans
  00084	50		 push	 eax
  00085	8d 45 bc	 lea	 eax, DWORD PTR _buffer$[ebp]
  00088	50		 push	 eax
  00089	e8 00 00 00 00	 call	 _strcpy
  0008e	83 c4 08	 add	 esp, 8
$LN8@update_gun:

; 786  : 	}
; 787  : 
; 788  : 	for (loop = 0; loop < gunship_screen_progress_dot_count; loop ++)

  00091	c7 45 fc 00 00
	00 00		 mov	 DWORD PTR _loop$[ebp], 0
  00098	eb 09		 jmp	 SHORT $LN4@update_gun
$LN2@update_gun:
  0009a	8b 45 fc	 mov	 eax, DWORD PTR _loop$[ebp]
  0009d	83 c0 01	 add	 eax, 1
  000a0	89 45 fc	 mov	 DWORD PTR _loop$[ebp], eax
$LN4@update_gun:
  000a3	8b 45 fc	 mov	 eax, DWORD PTR _loop$[ebp]
  000a6	3b 05 00 00 00
	00		 cmp	 eax, DWORD PTR ?gunship_screen_progress_dot_count@@3HA
  000ac	7d 13		 jge	 SHORT $LN3@update_gun

; 789  : 	{
; 790  : 
; 791  : 		strcat (buffer, " .");

  000ae	68 00 00 00 00	 push	 OFFSET ??_C@_02DDPEGJCB@?5?4@
  000b3	8d 45 bc	 lea	 eax, DWORD PTR _buffer$[ebp]
  000b6	50		 push	 eax
  000b7	e8 00 00 00 00	 call	 _strcat
  000bc	83 c4 08	 add	 esp, 8

; 792  : 	}

  000bf	eb d9		 jmp	 SHORT $LN2@update_gun
$LN3@update_gun:

; 793  : 
; 794  : 	strcat (buffer, "\0");

  000c1	68 00 00 00 00	 push	 OFFSET ??_C@_01LOCGONAA@?$AA@
  000c6	8d 45 bc	 lea	 eax, DWORD PTR _buffer$[ebp]
  000c9	50		 push	 eax
  000ca	e8 00 00 00 00	 call	 _strcat
  000cf	83 c4 08	 add	 esp, 8

; 795  : 
; 796  : 	set_ui_object_text (gunship_screen_waiting_area_text, buffer);

  000d2	8d 45 bc	 lea	 eax, DWORD PTR _buffer$[ebp]
  000d5	50		 push	 eax
  000d6	8b 0d 00 00 00
	00		 mov	 ecx, DWORD PTR ?gunship_screen_waiting_area_text@@3PAUUI_OBJECT@@A ; gunship_screen_waiting_area_text
  000dc	51		 push	 ecx
  000dd	8b 15 00 00 00
	00		 mov	 edx, DWORD PTR ?gunship_screen_waiting_area_text@@3PAUUI_OBJECT@@A ; gunship_screen_waiting_area_text
  000e3	8b 02		 mov	 eax, DWORD PTR [edx]
  000e5	8b 0c 85 00 00
	00 00		 mov	 ecx, DWORD PTR ?fn_set_ui_object_text@@3PAP6GXPAUUI_OBJECT@@PBD@ZA[eax*4]
  000ec	ff d1		 call	 ecx

; 797  : 
; 798  : 	ui_repaint ();

  000ee	e8 00 00 00 00	 call	 ?ui_repaint@@YGXXZ	; ui_repaint
$LN1@update_gun:

; 799  : 
; 800  : 	#if DEBUG_MODULE
; 801  : 
; 802  : 	debug_log ("GUNS_SC: setting progress text to %s", buffer);
; 803  : 
; 804  : 	#endif
; 805  : }

  000f3	5f		 pop	 edi
  000f4	5e		 pop	 esi
  000f5	5b		 pop	 ebx
  000f6	8b e5		 mov	 esp, ebp
  000f8	5d		 pop	 ebp
  000f9	c3		 ret	 0
?update_gunships_screen_progress_indicator@@YGXXZ ENDP	; update_gunships_screen_progress_indicator
_TEXT	ENDS
; Function compile flags: /Odtp /ZI
; File c:\users\nhv90\projects\eech\aphavoc\source\ui_menu\gunships\guns_sc.c
;	COMDAT ?set_gunship_waiting_for_connection@@YGXH@Z
_TEXT	SEGMENT
_flag$ = 8						; size = 4
?set_gunship_waiting_for_connection@@YGXH@Z PROC	; set_gunship_waiting_for_connection, COMDAT

; 701  : {

  00000	55		 push	 ebp
  00001	8b ec		 mov	 ebp, esp
  00003	83 ec 40	 sub	 esp, 64			; 00000040H
  00006	53		 push	 ebx
  00007	56		 push	 esi
  00008	57		 push	 edi

; 702  : 
; 703  : 	gunship_waiting_for_connection = flag;

  00009	8b 45 08	 mov	 eax, DWORD PTR _flag$[ebp]
  0000c	a3 00 00 00 00	 mov	 DWORD PTR ?gunship_waiting_for_connection@@3HA, eax

; 704  : 
; 705  : 	if ( flag )

  00011	83 7d 08 00	 cmp	 DWORD PTR _flag$[ebp], 0
  00015	74 4b		 je	 SHORT $LN2@set_gunshi

; 706  : 	{
; 707  : 
; 708  : 		set_ui_object_drawable ( gunship_screen_waiting_area, TRUE );

  00017	6a 01		 push	 1
  00019	a1 00 00 00 00	 mov	 eax, DWORD PTR ?gunship_screen_waiting_area@@3PAUUI_OBJECT@@A ; gunship_screen_waiting_area
  0001e	50		 push	 eax
  0001f	8b 0d 00 00 00
	00		 mov	 ecx, DWORD PTR ?gunship_screen_waiting_area@@3PAUUI_OBJECT@@A ; gunship_screen_waiting_area
  00025	8b 11		 mov	 edx, DWORD PTR [ecx]
  00027	8b 04 95 00 00
	00 00		 mov	 eax, DWORD PTR ?fn_set_ui_object_drawable@@3PAP6GXPAUUI_OBJECT@@H@ZA[edx*4]
  0002e	ff d0		 call	 eax

; 709  : 		set_ui_object_drawable ( gunship_screen_waiting_area_text, TRUE );

  00030	6a 01		 push	 1
  00032	a1 00 00 00 00	 mov	 eax, DWORD PTR ?gunship_screen_waiting_area_text@@3PAUUI_OBJECT@@A ; gunship_screen_waiting_area_text
  00037	50		 push	 eax
  00038	8b 0d 00 00 00
	00		 mov	 ecx, DWORD PTR ?gunship_screen_waiting_area_text@@3PAUUI_OBJECT@@A ; gunship_screen_waiting_area_text
  0003e	8b 11		 mov	 edx, DWORD PTR [ecx]
  00040	8b 04 95 00 00
	00 00		 mov	 eax, DWORD PTR ?fn_set_ui_object_drawable@@3PAP6GXPAUUI_OBJECT@@H@ZA[edx*4]
  00047	ff d0		 call	 eax

; 710  : 
; 711  : 		if (current_game_session->type == SESSION_LIST_TYPE_JOIN)

  00049	a1 00 00 00 00	 mov	 eax, DWORD PTR ?current_game_session@@3PAUSESSION_LIST_DATA_TYPE@@A ; current_game_session
  0004e	83 78 08 02	 cmp	 DWORD PTR [eax+8], 2
  00052	75 0c		 jne	 SHORT $LN4@set_gunshi

; 712  : 		{
; 713  : 
; 714  : 			set_display_gunship_buttons (FALSE, "SELECT");

  00054	68 00 00 00 00	 push	 OFFSET ??_C@_06LCPJPOPK@SELECT@
  00059	6a 00		 push	 0
  0005b	e8 00 00 00 00	 call	 ?set_display_gunship_buttons@@YGXHPAD@Z ; set_display_gunship_buttons
$LN4@set_gunshi:

; 715  : 		}
; 716  : 	}
; 717  : 	else

  00060	eb 53		 jmp	 SHORT $LN1@set_gunshi
$LN2@set_gunshi:

; 718  : 	{
; 719  : 
; 720  : 		set_ui_object_drawable ( gunship_screen_waiting_area, FALSE );

  00062	6a 00		 push	 0
  00064	a1 00 00 00 00	 mov	 eax, DWORD PTR ?gunship_screen_waiting_area@@3PAUUI_OBJECT@@A ; gunship_screen_waiting_area
  00069	50		 push	 eax
  0006a	8b 0d 00 00 00
	00		 mov	 ecx, DWORD PTR ?gunship_screen_waiting_area@@3PAUUI_OBJECT@@A ; gunship_screen_waiting_area
  00070	8b 11		 mov	 edx, DWORD PTR [ecx]
  00072	8b 04 95 00 00
	00 00		 mov	 eax, DWORD PTR ?fn_set_ui_object_drawable@@3PAP6GXPAUUI_OBJECT@@H@ZA[edx*4]
  00079	ff d0		 call	 eax

; 721  : 		set_ui_object_drawable ( gunship_screen_waiting_area_text, FALSE );

  0007b	6a 00		 push	 0
  0007d	a1 00 00 00 00	 mov	 eax, DWORD PTR ?gunship_screen_waiting_area_text@@3PAUUI_OBJECT@@A ; gunship_screen_waiting_area_text
  00082	50		 push	 eax
  00083	8b 0d 00 00 00
	00		 mov	 ecx, DWORD PTR ?gunship_screen_waiting_area_text@@3PAUUI_OBJECT@@A ; gunship_screen_waiting_area_text
  00089	8b 11		 mov	 edx, DWORD PTR [ecx]
  0008b	8b 04 95 00 00
	00 00		 mov	 eax, DWORD PTR ?fn_set_ui_object_drawable@@3PAP6GXPAUUI_OBJECT@@H@ZA[edx*4]
  00092	ff d0		 call	 eax

; 722  : 
; 723  : 		if (current_game_session->type == SESSION_LIST_TYPE_JOIN)

  00094	a1 00 00 00 00	 mov	 eax, DWORD PTR ?current_game_session@@3PAUSESSION_LIST_DATA_TYPE@@A ; current_game_session
  00099	83 78 08 02	 cmp	 DWORD PTR [eax+8], 2
  0009d	75 16		 jne	 SHORT $LN1@set_gunshi

; 724  : 		{
; 725  : 
; 726  : 			// set flag for helo rotation
; 727  : 			stop_gunship_model_rotating = FALSE;

  0009f	c7 05 00 00 00
	00 00 00 00 00	 mov	 DWORD PTR ?stop_gunship_model_rotating@@3HA, 0 ; stop_gunship_model_rotating

; 728  : 
; 729  : 			set_display_gunship_buttons (TRUE, "SELECT");

  000a9	68 00 00 00 00	 push	 OFFSET ??_C@_06LCPJPOPK@SELECT@
  000ae	6a 01		 push	 1
  000b0	e8 00 00 00 00	 call	 ?set_display_gunship_buttons@@YGXHPAD@Z ; set_display_gunship_buttons
$LN1@set_gunshi:

; 730  : 		}
; 731  : 	}
; 732  : }

  000b5	5f		 pop	 edi
  000b6	5e		 pop	 esi
  000b7	5b		 pop	 ebx
  000b8	8b e5		 mov	 esp, ebp
  000ba	5d		 pop	 ebp
  000bb	c2 04 00	 ret	 4
?set_gunship_waiting_for_connection@@YGXH@Z ENDP	; set_gunship_waiting_for_connection
_TEXT	ENDS
; Function compile flags: /Odtp /ZI
; File c:\users\nhv90\projects\eech\aphavoc\source\ui_menu\gunships\guns_sc.c
;	COMDAT ?initialise_gunships_screen@@YGXXZ
_TEXT	SEGMENT
_option_bdrop$ = -20					; size = 4
_y2$ = -16						; size = 4
_x2$ = -12						; size = 4
_y1$ = -8						; size = 4
_x1$ = -4						; size = 4
?initialise_gunships_screen@@YGXXZ PROC			; initialise_gunships_screen, COMDAT

; 128  : {

  00000	55		 push	 ebp
  00001	8b ec		 mov	 ebp, esp
  00003	83 ec 54	 sub	 esp, 84			; 00000054H
  00006	53		 push	 ebx
  00007	56		 push	 esi
  00008	57		 push	 edi

; 129  : 	float
; 130  : 		x1,
; 131  : 		y1,
; 132  : 		x2,
; 133  : 		y2;
; 134  : 
; 135  : 	ui_object
; 136  : 		*option_bdrop;
; 137  : 
; 138  : 
; 139  : 	// Casm 11JUN05 Preselect side if requested
; 140  : 	if ( gunships_screen_side_selected == ENTITY_SIDE_NEUTRAL )

  00009	83 3d 00 00 00
	00 00		 cmp	 DWORD PTR ?gunships_screen_side_selected@@3HA, 0 ; gunships_screen_side_selected
  00010	75 2f		 jne	 SHORT $LN3@initialise

; 141  : 	{
; 142  : 		if ( command_line_game_initialisation_phase_gunship_type >= 0 && command_line_game_initialisation_phase_gunship_type < NUM_GUNSHIP_TYPES )

  00012	83 3d 00 00 00
	00 00		 cmp	 DWORD PTR ?command_line_game_initialisation_phase_gunship_type@@3HA, 0 ; command_line_game_initialisation_phase_gunship_type
  00019	7c 26		 jl	 SHORT $LN3@initialise
  0001b	83 3d 00 00 00
	00 0a		 cmp	 DWORD PTR ?command_line_game_initialisation_phase_gunship_type@@3HA, 10 ; command_line_game_initialisation_phase_gunship_type, 0000000aH
  00022	7d 1d		 jge	 SHORT $LN3@initialise

; 143  : 		{
; 144  : 			gunships_screen_side_selected = gunship_sides[command_line_game_initialisation_phase_gunship_type];

  00024	a1 00 00 00 00	 mov	 eax, DWORD PTR ?command_line_game_initialisation_phase_gunship_type@@3HA ; command_line_game_initialisation_phase_gunship_type
  00029	8b 0c 85 00 00
	00 00		 mov	 ecx, DWORD PTR ?gunship_sides@@3PAW4ENTITY_SIDES@@A[eax*4]
  00030	89 0d 00 00 00
	00		 mov	 DWORD PTR ?gunships_screen_side_selected@@3HA, ecx ; gunships_screen_side_selected

; 145  : 			set_free_flight_gunship_type ( ( gunship_types ) command_line_game_initialisation_phase_gunship_type );

  00036	a1 00 00 00 00	 mov	 eax, DWORD PTR ?command_line_game_initialisation_phase_gunship_type@@3HA ; command_line_game_initialisation_phase_gunship_type
  0003b	50		 push	 eax
  0003c	e8 00 00 00 00	 call	 ?set_free_flight_gunship_type@@YGXW4GUNSHIP_TYPES@@@Z ; set_free_flight_gunship_type
$LN3@initialise:

; 146  : 		}
; 147  : 	}
; 148  : 	// Casm 11JUN05 Preselect side if requested
; 149  : 
; 150  : 	x1 = 0.0;

  00041	0f 57 c0	 xorps	 xmm0, xmm0
  00044	f3 0f 11 45 fc	 movss	 DWORD PTR _x1$[ebp], xmm0

; 151  : 	y1 = 0.0;

  00049	0f 57 c0	 xorps	 xmm0, xmm0
  0004c	f3 0f 11 45 f8	 movss	 DWORD PTR _y1$[ebp], xmm0

; 152  : 	x2 = 1.0;

  00051	f3 0f 10 05 00
	00 00 00	 movss	 xmm0, DWORD PTR __real@3f800000
  00059	f3 0f 11 45 f4	 movss	 DWORD PTR _x2$[ebp], xmm0

; 153  : 	y2 = 1.0;

  0005e	f3 0f 10 05 00
	00 00 00	 movss	 xmm0, DWORD PTR __real@3f800000
  00066	f3 0f 11 45 f0	 movss	 DWORD PTR _y2$[ebp], xmm0

; 154  : 
; 155  :    gunships_screen = create_ui_object

  0006b	6a 11		 push	 17			; 00000011H
  0006d	68 f4 01 00 00	 push	 500			; 000001f4H
  00072	6a 4d		 push	 77			; 0000004dH
  00074	6a 00		 push	 0
  00076	6a 30		 push	 48			; 00000030H
  00078	68 ff 00 00 00	 push	 255			; 000000ffH
  0007d	68 ff 00 00 00	 push	 255			; 000000ffH
  00082	68 ff 00 00 00	 push	 255			; 000000ffH
  00087	68 ff 00 00 00	 push	 255			; 000000ffH
  0008c	6a 0a		 push	 10			; 0000000aH
  0008e	6a 40		 push	 64			; 00000040H
  00090	68 ff 00 00 00	 push	 255			; 000000ffH
  00095	68 ff 00 00 00	 push	 255			; 000000ffH
  0009a	68 ff 00 00 00	 push	 255			; 000000ffH
  0009f	6a 0b		 push	 11			; 0000000bH
  000a1	68 00 00 00 00	 push	 OFFSET ?notify_gunships_screen@@YGXPAUUI_OBJECT@@PAX@Z ; notify_gunships_screen
  000a6	6a 16		 push	 22			; 00000016H
  000a8	6a 03		 push	 3
  000aa	6a 2f		 push	 47			; 0000002fH
  000ac	f3 0f 5a 45 f0	 cvtss2sd xmm0, DWORD PTR _y2$[ebp]
  000b1	83 ec 08	 sub	 esp, 8
  000b4	f2 0f 11 04 24	 movsd	 QWORD PTR [esp], xmm0
  000b9	f3 0f 5a 45 f4	 cvtss2sd xmm0, DWORD PTR _x2$[ebp]
  000be	83 ec 08	 sub	 esp, 8
  000c1	f2 0f 11 04 24	 movsd	 QWORD PTR [esp], xmm0
  000c6	6a 59		 push	 89			; 00000059H
  000c8	f3 0f 5a 45 f8	 cvtss2sd xmm0, DWORD PTR _y1$[ebp]
  000cd	83 ec 08	 sub	 esp, 8
  000d0	f2 0f 11 04 24	 movsd	 QWORD PTR [esp], xmm0
  000d5	f3 0f 5a 45 fc	 cvtss2sd xmm0, DWORD PTR _x1$[ebp]
  000da	83 ec 08	 sub	 esp, 8
  000dd	f2 0f 11 04 24	 movsd	 QWORD PTR [esp], xmm0
  000e2	6a 58		 push	 88			; 00000058H
  000e4	6a 06		 push	 6
  000e6	e8 00 00 00 00	 call	 ?create_ui_object@@YAPAUUI_OBJECT@@HZZ ; create_ui_object
  000eb	83 c4 78	 add	 esp, 120		; 00000078H
  000ee	a3 00 00 00 00	 mov	 DWORD PTR ?gunships_screen@@3PAUUI_OBJECT@@A, eax ; gunships_screen

; 156  :             (
; 157  :                UI_TYPE_SCREEN,
; 158  :                UI_ATTR_VIRTUAL_POSITION (x1, y1),
; 159  :                UI_ATTR_VIRTUAL_SIZE (x2, y2),
; 160  : 					UI_ATTR_NOTIFY_ON (NOTIFY_TYPE_BUTTON_EITHER),
; 161  : 					UI_ATTR_FUNCTION (notify_gunships_screen),
; 162  :                UI_ATTR_COLOUR_START (255,255,255,64),
; 163  :                UI_ATTR_COLOUR_END (255,255,255,255),
; 164  : 					UI_ATTR_OFFSET_TIME (0),
; 165  : 					UI_ATTR_TIME_LENGTH (500),
; 166  :                UI_ATTR_END
; 167  :             );
; 168  : 
; 169  : 	create_ui_object

  000f3	6a 11		 push	 17			; 00000011H
  000f5	6a 01		 push	 1
  000f7	6a 07		 push	 7
  000f9	6a 00		 push	 0
  000fb	6a 1b		 push	 27			; 0000001bH
  000fd	68 ff 00 00 00	 push	 255			; 000000ffH
  00102	0f b6 05 00 00
	00 00		 movzx	 eax, BYTE PTR ?ui_screen_title_text_colour@@3UREAL_COLOUR@@A
  00109	50		 push	 eax
  0010a	0f b6 0d 01 00
	00 00		 movzx	 ecx, BYTE PTR ?ui_screen_title_text_colour@@3UREAL_COLOUR@@A+1
  00111	51		 push	 ecx
  00112	0f b6 15 02 00
	00 00		 movzx	 edx, BYTE PTR ?ui_screen_title_text_colour@@3UREAL_COLOUR@@A+2
  00119	52		 push	 edx
  0011a	6a 14		 push	 20			; 00000014H
  0011c	6a 00		 push	 0
  0011e	0f b6 05 00 00
	00 00		 movzx	 eax, BYTE PTR ?ui_screen_title_text_colour@@3UREAL_COLOUR@@A
  00125	50		 push	 eax
  00126	0f b6 0d 01 00
	00 00		 movzx	 ecx, BYTE PTR ?ui_screen_title_text_colour@@3UREAL_COLOUR@@A+1
  0012d	51		 push	 ecx
  0012e	0f b6 15 02 00
	00 00		 movzx	 edx, BYTE PTR ?ui_screen_title_text_colour@@3UREAL_COLOUR@@A+2
  00135	52		 push	 edx
  00136	6a 15		 push	 21			; 00000015H
  00138	6a 07		 push	 7
  0013a	6a 4b		 push	 75			; 0000004bH
  0013c	6a 0c		 push	 12			; 0000000cH
  0013e	6a 12		 push	 18			; 00000012H
  00140	68 00 00 00 00	 push	 OFFSET ??_C@_04FHBEPJGO@Side@
  00145	e8 00 00 00 00	 call	 ?get_trans@@YGPBDPBD@Z	; get_trans
  0014a	50		 push	 eax
  0014b	6a 4a		 push	 74			; 0000004aH
  0014d	83 ec 08	 sub	 esp, 8
  00150	f2 0f 10 05 00
	00 00 00	 movsd	 xmm0, QWORD PTR __real@3fa3f7cee0000000
  00158	f2 0f 11 04 24	 movsd	 QWORD PTR [esp], xmm0
  0015d	83 ec 08	 sub	 esp, 8
  00160	f2 0f 10 05 00
	00 00 00	 movsd	 xmm0, QWORD PTR __real@3fed9999a0000000
  00168	f2 0f 11 04 24	 movsd	 QWORD PTR [esp], xmm0
  0016d	6a 59		 push	 89			; 00000059H
  0016f	83 ec 08	 sub	 esp, 8
  00172	f2 0f 10 05 00
	00 00 00	 movsd	 xmm0, QWORD PTR __real@3fa3f7cee0000000
  0017a	f2 0f 11 04 24	 movsd	 QWORD PTR [esp], xmm0
  0017f	83 ec 08	 sub	 esp, 8
  00182	f2 0f 10 05 00
	00 00 00	 movsd	 xmm0, QWORD PTR __real@3f999999a0000000
  0018a	f2 0f 11 04 24	 movsd	 QWORD PTR [esp], xmm0
  0018f	6a 58		 push	 88			; 00000058H
  00191	6a 00		 push	 0
  00193	6a 30		 push	 48			; 00000030H
  00195	6a 00		 push	 0
  00197	6a 4d		 push	 77			; 0000004dH
  00199	a1 00 00 00 00	 mov	 eax, DWORD PTR ?gunships_screen@@3PAUUI_OBJECT@@A ; gunships_screen
  0019e	50		 push	 eax
  0019f	6a 32		 push	 50			; 00000032H
  001a1	6a 05		 push	 5
  001a3	e8 00 00 00 00	 call	 ?create_ui_object@@YAPAUUI_OBJECT@@HZZ ; create_ui_object
  001a8	81 c4 98 00 00
	00		 add	 esp, 152		; 00000098H

; 170  :             (
; 171  :                UI_TYPE_TEXT,
; 172  :                UI_ATTR_PARENT (gunships_screen),
; 173  : 					UI_ATTR_TIME_LENGTH (0),
; 174  : 					UI_ATTR_OFFSET_TIME (0),
; 175  :                UI_ATTR_VIRTUAL_POSITION (TITLE_TEXT_POSITION_X, TITLE_TEXT_POSITION_Y),
; 176  : 					UI_ATTR_VIRTUAL_SIZE (TITLE_TEXT_WIDTH, TITLE_TEXT_HEIGHT),
; 177  : 					UI_ATTR_TEXT (get_trans ("Side")),
; 178  : 					UI_ATTR_FONT_TYPE (UI_FONT_IMPACT_22),
; 179  : 					UI_ATTR_TEXT_JUSTIFY (TEXT_JUSTIFY_LEFT_BOTTOM),
; 180  :                UI_ATTR_FONT_COLOUR_START (ui_screen_title_text_colour.r, ui_screen_title_text_colour.g, ui_screen_title_text_colour.b, 0),
; 181  :                UI_ATTR_FONT_COLOUR_END (ui_screen_title_text_colour.r, ui_screen_title_text_colour.g, ui_screen_title_text_colour.b, 255),
; 182  : 					UI_ATTR_HIGHLIGHTABLE (FALSE),
; 183  : 					UI_ATTR_CLEAR (TRUE),
; 184  :                UI_ATTR_END
; 185  :             );
; 186  : 
; 187  : 	//////////////////////////////////////////////
; 188  : 	// gunship buttons
; 189  : 
; 190  : 	x1 = 0.200;

  001ae	f3 0f 10 05 00
	00 00 00	 movss	 xmm0, DWORD PTR __real@3e4ccccd
  001b6	f3 0f 11 45 fc	 movss	 DWORD PTR _x1$[ebp], xmm0

; 191  : 	y1 = 0.734;

  001bb	f3 0f 10 05 00
	00 00 00	 movss	 xmm0, DWORD PTR __real@3f3be76d
  001c3	f3 0f 11 45 f8	 movss	 DWORD PTR _y1$[ebp], xmm0

; 192  : 	x2 = 0.298;

  001c8	f3 0f 10 05 00
	00 00 00	 movss	 xmm0, DWORD PTR __real@3e989375
  001d0	f3 0f 11 45 f4	 movss	 DWORD PTR _x2$[ebp], xmm0

; 193  : 	y2 = 0.059;

  001d5	f3 0f 10 05 00
	00 00 00	 movss	 xmm0, DWORD PTR __real@3d71a9fc
  001dd	f3 0f 11 45 f0	 movss	 DWORD PTR _y2$[ebp], xmm0

; 194  : 
; 195  :    gunship_screen_button_title_area = create_ui_object

  001e2	6a 11		 push	 17			; 00000011H
  001e4	6a 01		 push	 1
  001e6	6a 07		 push	 7
  001e8	f3 0f 5a 45 f0	 cvtss2sd xmm0, DWORD PTR _y2$[ebp]
  001ed	83 ec 08	 sub	 esp, 8
  001f0	f2 0f 11 04 24	 movsd	 QWORD PTR [esp], xmm0
  001f5	f3 0f 5a 45 f4	 cvtss2sd xmm0, DWORD PTR _x2$[ebp]
  001fa	83 ec 08	 sub	 esp, 8
  001fd	f2 0f 11 04 24	 movsd	 QWORD PTR [esp], xmm0
  00202	6a 59		 push	 89			; 00000059H
  00204	f3 0f 5a 45 f8	 cvtss2sd xmm0, DWORD PTR _y1$[ebp]
  00209	83 ec 08	 sub	 esp, 8
  0020c	f2 0f 11 04 24	 movsd	 QWORD PTR [esp], xmm0
  00211	f3 0f 5a 45 fc	 cvtss2sd xmm0, DWORD PTR _x1$[ebp]
  00216	83 ec 08	 sub	 esp, 8
  00219	f2 0f 11 04 24	 movsd	 QWORD PTR [esp], xmm0
  0021e	6a 58		 push	 88			; 00000058H
  00220	a1 00 00 00 00	 mov	 eax, DWORD PTR ?gunships_screen@@3PAUUI_OBJECT@@A ; gunships_screen
  00225	50		 push	 eax
  00226	6a 32		 push	 50			; 00000032H
  00228	6a 01		 push	 1
  0022a	e8 00 00 00 00	 call	 ?create_ui_object@@YAPAUUI_OBJECT@@HZZ ; create_ui_object
  0022f	83 c4 40	 add	 esp, 64			; 00000040H
  00232	a3 00 00 00 00	 mov	 DWORD PTR ?gunship_screen_button_title_area@@3PAUUI_OBJECT@@A, eax ; gunship_screen_button_title_area

; 196  : 									(
; 197  : 										UI_TYPE_AREA,
; 198  : 										UI_ATTR_PARENT (gunships_screen),
; 199  : 			            	   	UI_ATTR_VIRTUAL_POSITION (x1, y1),
; 200  :       			        	 		UI_ATTR_VIRTUAL_SIZE (x2, y2),
; 201  : 										UI_ATTR_CLEAR (TRUE),
; 202  : 										UI_ATTR_END
; 203  : 									);
; 204  : 
; 205  : 	x1 = 0.0;

  00237	0f 57 c0	 xorps	 xmm0, xmm0
  0023a	f3 0f 11 45 fc	 movss	 DWORD PTR _x1$[ebp], xmm0

; 206  : 	y1 = 0.0;

  0023f	0f 57 c0	 xorps	 xmm0, xmm0
  00242	f3 0f 11 45 f8	 movss	 DWORD PTR _y1$[ebp], xmm0

; 207  : 	x2 = 1.0;

  00247	f3 0f 10 05 00
	00 00 00	 movss	 xmm0, DWORD PTR __real@3f800000
  0024f	f3 0f 11 45 f4	 movss	 DWORD PTR _x2$[ebp], xmm0

; 208  : 	y2 = 1.0;

  00254	f3 0f 10 05 00
	00 00 00	 movss	 xmm0, DWORD PTR __real@3f800000
  0025c	f3 0f 11 45 f0	 movss	 DWORD PTR _y2$[ebp], xmm0

; 209  : 
; 210  : 	gunship_screen_gunship_text_area = create_ui_object

  00261	6a 11		 push	 17			; 00000011H
  00263	a1 00 00 00 00	 mov	 eax, DWORD PTR ?options_box_large@@3PAUTEXTURE_GRAPHIC@@A ; options_box_large
  00268	50		 push	 eax
  00269	6a 4c		 push	 76			; 0000004cH
  0026b	68 ff 00 00 00	 push	 255			; 000000ffH
  00270	68 ff 00 00 00	 push	 255			; 000000ffH
  00275	68 ff 00 00 00	 push	 255			; 000000ffH
  0027a	68 ff 00 00 00	 push	 255			; 000000ffH
  0027f	6a 0a		 push	 10			; 0000000aH
  00281	6a 00		 push	 0
  00283	68 ff 00 00 00	 push	 255			; 000000ffH
  00288	68 ff 00 00 00	 push	 255			; 000000ffH
  0028d	68 ff 00 00 00	 push	 255			; 000000ffH
  00292	6a 0b		 push	 11			; 0000000bH
  00294	f3 0f 5a 45 f0	 cvtss2sd xmm0, DWORD PTR _y2$[ebp]
  00299	83 ec 08	 sub	 esp, 8
  0029c	f2 0f 11 04 24	 movsd	 QWORD PTR [esp], xmm0
  002a1	f3 0f 5a 45 f4	 cvtss2sd xmm0, DWORD PTR _x2$[ebp]
  002a6	83 ec 08	 sub	 esp, 8
  002a9	f2 0f 11 04 24	 movsd	 QWORD PTR [esp], xmm0
  002ae	6a 59		 push	 89			; 00000059H
  002b0	f3 0f 5a 45 f8	 cvtss2sd xmm0, DWORD PTR _y1$[ebp]
  002b5	83 ec 08	 sub	 esp, 8
  002b8	f2 0f 11 04 24	 movsd	 QWORD PTR [esp], xmm0
  002bd	f3 0f 5a 45 fc	 cvtss2sd xmm0, DWORD PTR _x1$[ebp]
  002c2	83 ec 08	 sub	 esp, 8
  002c5	f2 0f 11 04 24	 movsd	 QWORD PTR [esp], xmm0
  002ca	6a 58		 push	 88			; 00000058H
  002cc	8b 0d 00 00 00
	00		 mov	 ecx, DWORD PTR ?gunship_screen_button_title_area@@3PAUUI_OBJECT@@A ; gunship_screen_button_title_area
  002d2	51		 push	 ecx
  002d3	6a 32		 push	 50			; 00000032H
  002d5	6a 01		 push	 1
  002d7	e8 00 00 00 00	 call	 ?create_ui_object@@YAPAUUI_OBJECT@@HZZ ; create_ui_object
  002dc	83 c4 68	 add	 esp, 104		; 00000068H
  002df	a3 00 00 00 00	 mov	 DWORD PTR ?gunship_screen_gunship_text_area@@3PAUUI_OBJECT@@A, eax ; gunship_screen_gunship_text_area

; 211  : 	(
; 212  : 		UI_TYPE_AREA,
; 213  : 		UI_ATTR_PARENT (gunship_screen_button_title_area),
; 214  : 		UI_ATTR_VIRTUAL_POSITION (x1, y1),
; 215  : 		UI_ATTR_VIRTUAL_SIZE (x2, y2),
; 216  : 		UI_ATTR_COLOUR_START (255, 255, 255, 0),
; 217  : 		UI_ATTR_COLOUR_END (255, 255, 255, 255),
; 218  : 		UI_ATTR_TEXTURE_GRAPHIC (options_box_large),
; 219  : 		UI_ATTR_END
; 220  : 	);
; 221  : 
; 222  : 	gunship_screen_gunship_text = create_ui_object

  002e4	6a 11		 push	 17			; 00000011H
  002e6	68 00 00 00 00	 push	 OFFSET ??_C@_04FHBEPJGO@Side@
  002eb	e8 00 00 00 00	 call	 ?get_trans@@YGPBDPBD@Z	; get_trans
  002f0	50		 push	 eax
  002f1	6a 4a		 push	 74			; 0000004aH
  002f3	6a 02		 push	 2
  002f5	6a 4b		 push	 75			; 0000004bH
  002f7	83 ec 08	 sub	 esp, 8
  002fa	f2 0f 10 05 00
	00 00 00	 movsd	 xmm0, QWORD PTR __real@3fc10624dd2f1aa0
  00302	f2 0f 11 04 24	 movsd	 QWORD PTR [esp], xmm0
  00307	83 ec 08	 sub	 esp, 8
  0030a	f2 0f 10 05 00
	00 00 00	 movsd	 xmm0, QWORD PTR __real@3fed1eb851eb851f
  00312	f2 0f 11 04 24	 movsd	 QWORD PTR [esp], xmm0
  00317	6a 58		 push	 88			; 00000058H
  00319	68 ff 00 00 00	 push	 255			; 000000ffH
  0031e	0f b6 05 00 00
	00 00		 movzx	 eax, BYTE PTR ?ui_option_title_text_colour@@3UREAL_COLOUR@@A
  00325	50		 push	 eax
  00326	0f b6 0d 01 00
	00 00		 movzx	 ecx, BYTE PTR ?ui_option_title_text_colour@@3UREAL_COLOUR@@A+1
  0032d	51		 push	 ecx
  0032e	0f b6 15 02 00
	00 00		 movzx	 edx, BYTE PTR ?ui_option_title_text_colour@@3UREAL_COLOUR@@A+2
  00335	52		 push	 edx
  00336	6a 14		 push	 20			; 00000014H
  00338	6a 00		 push	 0
  0033a	0f b6 05 00 00
	00 00		 movzx	 eax, BYTE PTR ?ui_option_title_text_colour@@3UREAL_COLOUR@@A
  00341	50		 push	 eax
  00342	0f b6 0d 01 00
	00 00		 movzx	 ecx, BYTE PTR ?ui_option_title_text_colour@@3UREAL_COLOUR@@A+1
  00349	51		 push	 ecx
  0034a	0f b6 15 02 00
	00 00		 movzx	 edx, BYTE PTR ?ui_option_title_text_colour@@3UREAL_COLOUR@@A+2
  00351	52		 push	 edx
  00352	6a 15		 push	 21			; 00000015H
  00354	6a 06		 push	 6
  00356	6a 12		 push	 18			; 00000012H
  00358	a1 00 00 00 00	 mov	 eax, DWORD PTR ?gunship_screen_button_title_area@@3PAUUI_OBJECT@@A ; gunship_screen_button_title_area
  0035d	50		 push	 eax
  0035e	6a 32		 push	 50			; 00000032H
  00360	6a 05		 push	 5
  00362	e8 00 00 00 00	 call	 ?create_ui_object@@YAPAUUI_OBJECT@@HZZ ; create_ui_object
  00367	83 c4 64	 add	 esp, 100		; 00000064H
  0036a	a3 00 00 00 00	 mov	 DWORD PTR ?gunship_screen_gunship_text@@3PAUUI_OBJECT@@A, eax ; gunship_screen_gunship_text

; 223  : 	(
; 224  : 		UI_TYPE_TEXT,
; 225  : 		UI_ATTR_PARENT (gunship_screen_button_title_area),
; 226  : 		UI_ATTR_FONT_TYPE (UI_FONT_THICK_ARIAL_18),
; 227  :       UI_ATTR_FONT_COLOUR_START (ui_option_title_text_colour.r, ui_option_title_text_colour.g, ui_option_title_text_colour.b, 0),
; 228  :       UI_ATTR_FONT_COLOUR_END (ui_option_title_text_colour.r, ui_option_title_text_colour.g, ui_option_title_text_colour.b, 255),
; 229  : 		UI_ATTR_VIRTUAL_POSITION (0.910, 0.133),
; 230  : 		UI_ATTR_TEXT_JUSTIFY (TEXT_JUSTIFY_RIGHT_CENTRE),
; 231  : 		UI_ATTR_TEXT (get_trans ("Side")),
; 232  : 		UI_ATTR_END
; 233  : 	);
; 234  : 
; 235  : 	x1 = 0.503;

  0036f	f3 0f 10 05 00
	00 00 00	 movss	 xmm0, DWORD PTR __real@3f00c49c
  00377	f3 0f 11 45 fc	 movss	 DWORD PTR _x1$[ebp], xmm0

; 236  : 	y1 = 0.734;

  0037c	f3 0f 10 05 00
	00 00 00	 movss	 xmm0, DWORD PTR __real@3f3be76d
  00384	f3 0f 11 45 f8	 movss	 DWORD PTR _y1$[ebp], xmm0

; 237  : 	x2 = 0.298;

  00389	f3 0f 10 05 00
	00 00 00	 movss	 xmm0, DWORD PTR __real@3e989375
  00391	f3 0f 11 45 f4	 movss	 DWORD PTR _x2$[ebp], xmm0

; 238  : 	y2 = 0.059;

  00396	f3 0f 10 05 00
	00 00 00	 movss	 xmm0, DWORD PTR __real@3d71a9fc
  0039e	f3 0f 11 45 f0	 movss	 DWORD PTR _y2$[ebp], xmm0

; 239  : 
; 240  :    gunship_screen_button_area = create_ui_object

  003a3	6a 11		 push	 17			; 00000011H
  003a5	6a 01		 push	 1
  003a7	6a 07		 push	 7
  003a9	f3 0f 5a 45 f0	 cvtss2sd xmm0, DWORD PTR _y2$[ebp]
  003ae	83 ec 08	 sub	 esp, 8
  003b1	f2 0f 11 04 24	 movsd	 QWORD PTR [esp], xmm0
  003b6	f3 0f 5a 45 f4	 cvtss2sd xmm0, DWORD PTR _x2$[ebp]
  003bb	83 ec 08	 sub	 esp, 8
  003be	f2 0f 11 04 24	 movsd	 QWORD PTR [esp], xmm0
  003c3	6a 59		 push	 89			; 00000059H
  003c5	f3 0f 5a 45 f8	 cvtss2sd xmm0, DWORD PTR _y1$[ebp]
  003ca	83 ec 08	 sub	 esp, 8
  003cd	f2 0f 11 04 24	 movsd	 QWORD PTR [esp], xmm0
  003d2	f3 0f 5a 45 fc	 cvtss2sd xmm0, DWORD PTR _x1$[ebp]
  003d7	83 ec 08	 sub	 esp, 8
  003da	f2 0f 11 04 24	 movsd	 QWORD PTR [esp], xmm0
  003df	6a 58		 push	 88			; 00000058H
  003e1	a1 00 00 00 00	 mov	 eax, DWORD PTR ?gunships_screen@@3PAUUI_OBJECT@@A ; gunships_screen
  003e6	50		 push	 eax
  003e7	6a 32		 push	 50			; 00000032H
  003e9	6a 01		 push	 1
  003eb	e8 00 00 00 00	 call	 ?create_ui_object@@YAPAUUI_OBJECT@@HZZ ; create_ui_object
  003f0	83 c4 40	 add	 esp, 64			; 00000040H
  003f3	a3 00 00 00 00	 mov	 DWORD PTR ?gunship_screen_button_area@@3PAUUI_OBJECT@@A, eax ; gunship_screen_button_area

; 241  : 								(
; 242  : 									UI_TYPE_AREA,
; 243  : 									UI_ATTR_PARENT (gunships_screen),
; 244  : 			   	            UI_ATTR_VIRTUAL_POSITION (x1, y1),
; 245  :      			        	 		UI_ATTR_VIRTUAL_SIZE (x2, y2),
; 246  : 									UI_ATTR_CLEAR (TRUE),
; 247  : 									UI_ATTR_END
; 248  : 								);
; 249  : 
; 250  : 	x1 = 0.0;

  003f8	0f 57 c0	 xorps	 xmm0, xmm0
  003fb	f3 0f 11 45 fc	 movss	 DWORD PTR _x1$[ebp], xmm0

; 251  : 	y1 = 0.0;

  00400	0f 57 c0	 xorps	 xmm0, xmm0
  00403	f3 0f 11 45 f8	 movss	 DWORD PTR _y1$[ebp], xmm0

; 252  : 	x2 = 1.0;

  00408	f3 0f 10 05 00
	00 00 00	 movss	 xmm0, DWORD PTR __real@3f800000
  00410	f3 0f 11 45 f4	 movss	 DWORD PTR _x2$[ebp], xmm0

; 253  : 	y2 = 1.0;

  00415	f3 0f 10 05 00
	00 00 00	 movss	 xmm0, DWORD PTR __real@3f800000
  0041d	f3 0f 11 45 f0	 movss	 DWORD PTR _y2$[ebp], xmm0

; 254  : 
; 255  : 	gunship_screen_gunship_type_area = create_ui_object

  00422	6a 11		 push	 17			; 00000011H
  00424	a1 00 00 00 00	 mov	 eax, DWORD PTR ?options_box_large@@3PAUTEXTURE_GRAPHIC@@A ; options_box_large
  00429	50		 push	 eax
  0042a	6a 4c		 push	 76			; 0000004cH
  0042c	68 ff 00 00 00	 push	 255			; 000000ffH
  00431	68 ff 00 00 00	 push	 255			; 000000ffH
  00436	68 ff 00 00 00	 push	 255			; 000000ffH
  0043b	68 ff 00 00 00	 push	 255			; 000000ffH
  00440	6a 0a		 push	 10			; 0000000aH
  00442	6a 00		 push	 0
  00444	68 ff 00 00 00	 push	 255			; 000000ffH
  00449	68 ff 00 00 00	 push	 255			; 000000ffH
  0044e	68 ff 00 00 00	 push	 255			; 000000ffH
  00453	6a 0b		 push	 11			; 0000000bH
  00455	f3 0f 5a 45 f0	 cvtss2sd xmm0, DWORD PTR _y2$[ebp]
  0045a	83 ec 08	 sub	 esp, 8
  0045d	f2 0f 11 04 24	 movsd	 QWORD PTR [esp], xmm0
  00462	f3 0f 5a 45 f4	 cvtss2sd xmm0, DWORD PTR _x2$[ebp]
  00467	83 ec 08	 sub	 esp, 8
  0046a	f2 0f 11 04 24	 movsd	 QWORD PTR [esp], xmm0
  0046f	6a 59		 push	 89			; 00000059H
  00471	f3 0f 5a 45 f8	 cvtss2sd xmm0, DWORD PTR _y1$[ebp]
  00476	83 ec 08	 sub	 esp, 8
  00479	f2 0f 11 04 24	 movsd	 QWORD PTR [esp], xmm0
  0047e	f3 0f 5a 45 fc	 cvtss2sd xmm0, DWORD PTR _x1$[ebp]
  00483	83 ec 08	 sub	 esp, 8
  00486	f2 0f 11 04 24	 movsd	 QWORD PTR [esp], xmm0
  0048b	6a 58		 push	 88			; 00000058H
  0048d	8b 0d 00 00 00
	00		 mov	 ecx, DWORD PTR ?gunship_screen_button_area@@3PAUUI_OBJECT@@A ; gunship_screen_button_area
  00493	51		 push	 ecx
  00494	6a 32		 push	 50			; 00000032H
  00496	6a 01		 push	 1
  00498	e8 00 00 00 00	 call	 ?create_ui_object@@YAPAUUI_OBJECT@@HZZ ; create_ui_object
  0049d	83 c4 68	 add	 esp, 104		; 00000068H
  004a0	a3 00 00 00 00	 mov	 DWORD PTR ?gunship_screen_gunship_type_area@@3PAUUI_OBJECT@@A, eax ; gunship_screen_gunship_type_area

; 256  : 	(
; 257  : 		UI_TYPE_AREA,
; 258  : 		UI_ATTR_PARENT (gunship_screen_button_area),
; 259  : 		UI_ATTR_VIRTUAL_POSITION (x1, y1),
; 260  : 		UI_ATTR_VIRTUAL_SIZE (x2, y2),
; 261  : 		UI_ATTR_COLOUR_START (255, 255, 255, 0),
; 262  : 		UI_ATTR_COLOUR_END (255, 255, 255, 255),
; 263  : 		UI_ATTR_TEXTURE_GRAPHIC (options_box_large),
; 264  : 		UI_ATTR_END
; 265  : 	);
; 266  : 
; 267  :    gunship_screen_gunship_type_button = create_ui_object

  004a5	6a 11		 push	 17			; 00000011H
  004a7	68 00 00 00 00	 push	 OFFSET ?gunships_button_function@@YGXPAUUI_OBJECT@@PAX@Z ; gunships_button_function
  004ac	6a 16		 push	 22			; 00000016H
  004ae	6a 01		 push	 1
  004b0	6a 2f		 push	 47			; 0000002fH
  004b2	6a 01		 push	 1
  004b4	6a 07		 push	 7
  004b6	6a 01		 push	 1
  004b8	6a 1b		 push	 27			; 0000001bH
  004ba	68 ff 00 00 00	 push	 255			; 000000ffH
  004bf	0f b6 05 00 00
	00 00		 movzx	 eax, BYTE PTR ?ui_option_text_hilite_colour@@3UREAL_COLOUR@@A
  004c6	50		 push	 eax
  004c7	0f b6 0d 01 00
	00 00		 movzx	 ecx, BYTE PTR ?ui_option_text_hilite_colour@@3UREAL_COLOUR@@A+1
  004ce	51		 push	 ecx
  004cf	0f b6 15 02 00
	00 00		 movzx	 edx, BYTE PTR ?ui_option_text_hilite_colour@@3UREAL_COLOUR@@A+2
  004d6	52		 push	 edx
  004d7	6a 22		 push	 34			; 00000022H
  004d9	6a 00		 push	 0
  004db	0f b6 05 00 00
	00 00		 movzx	 eax, BYTE PTR ?ui_option_text_hilite_colour@@3UREAL_COLOUR@@A
  004e2	50		 push	 eax
  004e3	0f b6 0d 01 00
	00 00		 movzx	 ecx, BYTE PTR ?ui_option_text_hilite_colour@@3UREAL_COLOUR@@A+1
  004ea	51		 push	 ecx
  004eb	0f b6 15 02 00
	00 00		 movzx	 edx, BYTE PTR ?ui_option_text_hilite_colour@@3UREAL_COLOUR@@A+2
  004f2	52		 push	 edx
  004f3	6a 23		 push	 35			; 00000023H
  004f5	68 ff 00 00 00	 push	 255			; 000000ffH
  004fa	0f b6 05 00 00
	00 00		 movzx	 eax, BYTE PTR ?ui_option_text_default_colour@@3UREAL_COLOUR@@A
  00501	50		 push	 eax
  00502	0f b6 0d 01 00
	00 00		 movzx	 ecx, BYTE PTR ?ui_option_text_default_colour@@3UREAL_COLOUR@@A+1
  00509	51		 push	 ecx
  0050a	0f b6 15 02 00
	00 00		 movzx	 edx, BYTE PTR ?ui_option_text_default_colour@@3UREAL_COLOUR@@A+2
  00511	52		 push	 edx
  00512	6a 14		 push	 20			; 00000014H
  00514	6a 00		 push	 0
  00516	0f b6 05 00 00
	00 00		 movzx	 eax, BYTE PTR ?ui_option_text_default_colour@@3UREAL_COLOUR@@A
  0051d	50		 push	 eax
  0051e	0f b6 0d 01 00
	00 00		 movzx	 ecx, BYTE PTR ?ui_option_text_default_colour@@3UREAL_COLOUR@@A+1
  00525	51		 push	 ecx
  00526	0f b6 15 02 00
	00 00		 movzx	 edx, BYTE PTR ?ui_option_text_default_colour@@3UREAL_COLOUR@@A+2
  0052d	52		 push	 edx
  0052e	6a 15		 push	 21			; 00000015H
  00530	68 00 00 00 00	 push	 OFFSET ??_C@_00CNPNBAHC@@
  00535	6a 4a		 push	 74			; 0000004aH
  00537	6a 01		 push	 1
  00539	6a 4b		 push	 75			; 0000004bH
  0053b	83 ec 08	 sub	 esp, 8
  0053e	f2 0f 10 05 00
	00 00 00	 movsd	 xmm0, QWORD PTR __real@3fc10624dd2f1aa0
  00546	f2 0f 11 04 24	 movsd	 QWORD PTR [esp], xmm0
  0054b	83 ec 08	 sub	 esp, 8
  0054e	f2 0f 10 05 00
	00 00 00	 movsd	 xmm0, QWORD PTR __real@3fadb22d0e560419
  00556	f2 0f 11 04 24	 movsd	 QWORD PTR [esp], xmm0
  0055b	6a 58		 push	 88			; 00000058H
  0055d	68 ff 00 00 00	 push	 255			; 000000ffH
  00562	6a 2f		 push	 47			; 0000002fH
  00564	6a 7c		 push	 124			; 0000007cH
  00566	68 fe 00 00 00	 push	 254			; 000000feH
  0056b	6a 13		 push	 19			; 00000013H
  0056d	6a 08		 push	 8
  0056f	6a 12		 push	 18			; 00000012H
  00571	a1 00 00 00 00	 mov	 eax, DWORD PTR ?gunship_screen_button_area@@3PAUUI_OBJECT@@A ; gunship_screen_button_area
  00576	50		 push	 eax
  00577	6a 32		 push	 50			; 00000032H
  00579	6a 05		 push	 5
  0057b	e8 00 00 00 00	 call	 ?create_ui_object@@YAPAUUI_OBJECT@@HZZ ; create_ui_object
  00580	81 c4 c0 00 00
	00		 add	 esp, 192		; 000000c0H
  00586	a3 00 00 00 00	 mov	 DWORD PTR ?gunship_screen_gunship_type_button@@3PAUUI_OBJECT@@A, eax ; gunship_screen_gunship_type_button

; 268  : 	(
; 269  : 		UI_TYPE_TEXT,
; 270  : 		UI_ATTR_PARENT (gunship_screen_button_area),
; 271  : 		UI_ATTR_FONT_TYPE (UI_FONT_THICK_ITALIC_ARIAL_18),
; 272  : 		UI_ATTR_FONT_COLOUR (254, 124, 47, 255),
; 273  : 		UI_ATTR_VIRTUAL_POSITION (0.058, 0.133),
; 274  : 		UI_ATTR_TEXT_JUSTIFY (TEXT_JUSTIFY_LEFT_CENTRE),
; 275  : 		UI_ATTR_TEXT (""),
; 276  :       UI_ATTR_FONT_COLOUR_START (ui_option_text_default_colour.r, ui_option_text_default_colour.g, ui_option_text_default_colour.b, 0),
; 277  :       UI_ATTR_FONT_COLOUR_END (ui_option_text_default_colour.r, ui_option_text_default_colour.g, ui_option_text_default_colour.b, 255),
; 278  :       UI_ATTR_HIGHLIGHTED_FONT_COLOUR_START (ui_option_text_hilite_colour.r, ui_option_text_hilite_colour.g, ui_option_text_hilite_colour.b, 0),
; 279  :       UI_ATTR_HIGHLIGHTED_FONT_COLOUR_END (ui_option_text_hilite_colour.r, ui_option_text_hilite_colour.g, ui_option_text_hilite_colour.b, 255),
; 280  : 		UI_ATTR_HIGHLIGHTABLE (TRUE),
; 281  : 		UI_ATTR_CLEAR (TRUE),
; 282  : 		UI_ATTR_NOTIFY_ON (NOTIFY_TYPE_BUTTON_UP),
; 283  : 		UI_ATTR_FUNCTION (gunships_button_function),
; 284  : 		UI_ATTR_END
; 285  : 	);
; 286  : 
; 287  : 
; 288  : 	//////////////////////////////////////////////
; 289  : 	// side selected text
; 290  : 
; 291  : 	x1 = 0.440;

  0058b	f3 0f 10 05 00
	00 00 00	 movss	 xmm0, DWORD PTR __real@3ee147ae
  00593	f3 0f 11 45 fc	 movss	 DWORD PTR _x1$[ebp], xmm0

; 292  : 	y1 = OPTIONS_OK_BUTTON_POS_Y;

  00598	f3 0f 10 05 00
	00 00 00	 movss	 xmm0, DWORD PTR __real@3f543958
  005a0	f3 0f 11 45 f8	 movss	 DWORD PTR _y1$[ebp], xmm0

; 293  : 	x2 = 0.25;

  005a5	f3 0f 10 05 00
	00 00 00	 movss	 xmm0, DWORD PTR __real@3e800000
  005ad	f3 0f 11 45 f4	 movss	 DWORD PTR _x2$[ebp], xmm0

; 294  : 	y2 = 0.059;

  005b2	f3 0f 10 05 00
	00 00 00	 movss	 xmm0, DWORD PTR __real@3d71a9fc
  005ba	f3 0f 11 45 f0	 movss	 DWORD PTR _y2$[ebp], xmm0

; 295  : 
; 296  : 	x1 = 0.0;

  005bf	0f 57 c0	 xorps	 xmm0, xmm0
  005c2	f3 0f 11 45 fc	 movss	 DWORD PTR _x1$[ebp], xmm0

; 297  : 	y1 = OPTIONS_OK_BUTTON_POS_Y;

  005c7	f3 0f 10 05 00
	00 00 00	 movss	 xmm0, DWORD PTR __real@3f543958
  005cf	f3 0f 11 45 f8	 movss	 DWORD PTR _y1$[ebp], xmm0

; 298  : 	x2 = 1.0;

  005d4	f3 0f 10 05 00
	00 00 00	 movss	 xmm0, DWORD PTR __real@3f800000
  005dc	f3 0f 11 45 f4	 movss	 DWORD PTR _x2$[ebp], xmm0

; 299  : 	y2 = 0.059;

  005e1	f3 0f 10 05 00
	00 00 00	 movss	 xmm0, DWORD PTR __real@3d71a9fc
  005e9	f3 0f 11 45 f0	 movss	 DWORD PTR _y2$[ebp], xmm0

; 300  : 
; 301  :    side_selected_area = create_ui_object

  005ee	6a 11		 push	 17			; 00000011H
  005f0	6a 01		 push	 1
  005f2	6a 07		 push	 7
  005f4	68 00 00 00 00	 push	 OFFSET ??_C@_00CNPNBAHC@@
  005f9	6a 4a		 push	 74			; 0000004aH
  005fb	68 ff 00 00 00	 push	 255			; 000000ffH
  00600	0f b6 05 00 00
	00 00		 movzx	 eax, BYTE PTR ?ui_option_title_text_colour@@3UREAL_COLOUR@@A
  00607	50		 push	 eax
  00608	0f b6 0d 01 00
	00 00		 movzx	 ecx, BYTE PTR ?ui_option_title_text_colour@@3UREAL_COLOUR@@A+1
  0060f	51		 push	 ecx
  00610	0f b6 15 02 00
	00 00		 movzx	 edx, BYTE PTR ?ui_option_title_text_colour@@3UREAL_COLOUR@@A+2
  00617	52		 push	 edx
  00618	6a 14		 push	 20			; 00000014H
  0061a	6a 00		 push	 0
  0061c	0f b6 05 00 00
	00 00		 movzx	 eax, BYTE PTR ?ui_option_title_text_colour@@3UREAL_COLOUR@@A
  00623	50		 push	 eax
  00624	0f b6 0d 01 00
	00 00		 movzx	 ecx, BYTE PTR ?ui_option_title_text_colour@@3UREAL_COLOUR@@A+1
  0062b	51		 push	 ecx
  0062c	0f b6 15 02 00
	00 00		 movzx	 edx, BYTE PTR ?ui_option_title_text_colour@@3UREAL_COLOUR@@A+2
  00633	52		 push	 edx
  00634	6a 15		 push	 21			; 00000015H
  00636	6a 00		 push	 0
  00638	6a 4b		 push	 75			; 0000004bH
  0063a	6a 06		 push	 6
  0063c	6a 12		 push	 18			; 00000012H
  0063e	f3 0f 5a 45 f0	 cvtss2sd xmm0, DWORD PTR _y2$[ebp]
  00643	83 ec 08	 sub	 esp, 8
  00646	f2 0f 11 04 24	 movsd	 QWORD PTR [esp], xmm0
  0064b	f3 0f 5a 45 f4	 cvtss2sd xmm0, DWORD PTR _x2$[ebp]
  00650	83 ec 08	 sub	 esp, 8
  00653	f2 0f 11 04 24	 movsd	 QWORD PTR [esp], xmm0
  00658	6a 59		 push	 89			; 00000059H
  0065a	f3 0f 5a 45 f8	 cvtss2sd xmm0, DWORD PTR _y1$[ebp]
  0065f	83 ec 08	 sub	 esp, 8
  00662	f2 0f 11 04 24	 movsd	 QWORD PTR [esp], xmm0
  00667	f3 0f 5a 45 fc	 cvtss2sd xmm0, DWORD PTR _x1$[ebp]
  0066c	83 ec 08	 sub	 esp, 8
  0066f	f2 0f 11 04 24	 movsd	 QWORD PTR [esp], xmm0
  00674	6a 58		 push	 88			; 00000058H
  00676	a1 00 00 00 00	 mov	 eax, DWORD PTR ?gunships_screen@@3PAUUI_OBJECT@@A ; gunships_screen
  0067b	50		 push	 eax
  0067c	6a 32		 push	 50			; 00000032H
  0067e	6a 01		 push	 1
  00680	e8 00 00 00 00	 call	 ?create_ui_object@@YAPAUUI_OBJECT@@HZZ ; create_ui_object
  00685	81 c4 80 00 00
	00		 add	 esp, 128		; 00000080H
  0068b	a3 00 00 00 00	 mov	 DWORD PTR ?side_selected_area@@3PAUUI_OBJECT@@A, eax ; side_selected_area

; 302  : 								(
; 303  : 									UI_TYPE_AREA,
; 304  : 									UI_ATTR_PARENT (gunships_screen),
; 305  : 									UI_ATTR_VIRTUAL_POSITION (x1, y1),
; 306  :      			        	 		UI_ATTR_VIRTUAL_SIZE (x2, y2),
; 307  : 									UI_ATTR_FONT_TYPE (UI_FONT_THICK_ARIAL_18),
; 308  : 									UI_ATTR_TEXT_JUSTIFY (TEXT_JUSTIFY_CENTRE),
; 309  : 							      UI_ATTR_FONT_COLOUR_START (ui_option_title_text_colour.r, ui_option_title_text_colour.g, ui_option_title_text_colour.b, 0),
; 310  : 							      UI_ATTR_FONT_COLOUR_END (ui_option_title_text_colour.r, ui_option_title_text_colour.g, ui_option_title_text_colour.b, 255),
; 311  : 									UI_ATTR_TEXT (""),
; 312  : 									UI_ATTR_CLEAR (TRUE),
; 313  : 									UI_ATTR_END
; 314  : 								);
; 315  : 
; 316  : 	//////////////////////////////////////////////
; 317  : 	// Gunship Render Area
; 318  : 
; 319  : 	x1 = 0.087;

  00690	f3 0f 10 05 00
	00 00 00	 movss	 xmm0, DWORD PTR __real@3db22d0e
  00698	f3 0f 11 45 fc	 movss	 DWORD PTR _x1$[ebp], xmm0

; 320  : 	y1 = 0.229;

  0069d	f3 0f 10 05 00
	00 00 00	 movss	 xmm0, DWORD PTR __real@3e6a7efa
  006a5	f3 0f 11 45 f8	 movss	 DWORD PTR _y1$[ebp], xmm0

; 321  : 	x2 = 0.828;

  006aa	f3 0f 10 05 00
	00 00 00	 movss	 xmm0, DWORD PTR __real@3f53f7cf
  006b2	f3 0f 11 45 f4	 movss	 DWORD PTR _x2$[ebp], xmm0

; 322  : 	y2 = 0.454;

  006b7	f3 0f 10 05 00
	00 00 00	 movss	 xmm0, DWORD PTR __real@3ee872b0
  006bf	f3 0f 11 45 f0	 movss	 DWORD PTR _y2$[ebp], xmm0

; 323  : 
; 324  : 	gunships_area = create_ui_object

  006c4	6a 11		 push	 17			; 00000011H
  006c6	6a 01		 push	 1
  006c8	6a 07		 push	 7
  006ca	68 ff 00 00 00	 push	 255			; 000000ffH
  006cf	6a 28		 push	 40			; 00000028H
  006d1	6a 05		 push	 5
  006d3	6a 0a		 push	 10			; 0000000aH
  006d5	6a 0a		 push	 10			; 0000000aH
  006d7	6a 00		 push	 0
  006d9	6a 28		 push	 40			; 00000028H
  006db	6a 05		 push	 5
  006dd	6a 0a		 push	 10			; 0000000aH
  006df	6a 0b		 push	 11			; 0000000bH
  006e1	68 00 00 00 00	 push	 OFFSET ?gunship_screen_render_gunship@@YGXPAUUI_OBJECT@@PAX@Z ; gunship_screen_render_gunship
  006e6	6a 0f		 push	 15			; 0000000fH
  006e8	f3 0f 5a 45 f0	 cvtss2sd xmm0, DWORD PTR _y2$[ebp]
  006ed	83 ec 08	 sub	 esp, 8
  006f0	f2 0f 11 04 24	 movsd	 QWORD PTR [esp], xmm0
  006f5	f3 0f 5a 45 f4	 cvtss2sd xmm0, DWORD PTR _x2$[ebp]
  006fa	83 ec 08	 sub	 esp, 8
  006fd	f2 0f 11 04 24	 movsd	 QWORD PTR [esp], xmm0
  00702	6a 59		 push	 89			; 00000059H
  00704	f3 0f 5a 45 f8	 cvtss2sd xmm0, DWORD PTR _y1$[ebp]
  00709	83 ec 08	 sub	 esp, 8
  0070c	f2 0f 11 04 24	 movsd	 QWORD PTR [esp], xmm0
  00711	f3 0f 5a 45 fc	 cvtss2sd xmm0, DWORD PTR _x1$[ebp]
  00716	83 ec 08	 sub	 esp, 8
  00719	f2 0f 11 04 24	 movsd	 QWORD PTR [esp], xmm0
  0071e	6a 58		 push	 88			; 00000058H
  00720	a1 00 00 00 00	 mov	 eax, DWORD PTR ?gunships_screen@@3PAUUI_OBJECT@@A ; gunships_screen
  00725	50		 push	 eax
  00726	6a 32		 push	 50			; 00000032H
  00728	6a 01		 push	 1
  0072a	e8 00 00 00 00	 call	 ?create_ui_object@@YAPAUUI_OBJECT@@HZZ ; create_ui_object
  0072f	83 c4 70	 add	 esp, 112		; 00000070H
  00732	a3 00 00 00 00	 mov	 DWORD PTR ?gunships_area@@3PAUUI_OBJECT@@A, eax ; gunships_area

; 325  : 							(
; 326  : 								UI_TYPE_AREA,
; 327  : 								UI_ATTR_PARENT (gunships_screen),
; 328  : 			               UI_ATTR_VIRTUAL_POSITION (x1, y1),
; 329  :       			         UI_ATTR_VIRTUAL_SIZE (x2, y2),
; 330  : 								UI_ATTR_DRAW_FUNCTION (gunship_screen_render_gunship),
; 331  : 			               UI_ATTR_COLOUR_START (10, 5, 40, 0),
; 332  : 	    					   UI_ATTR_COLOUR_END (10, 5, 40, 255),
; 333  : 								UI_ATTR_CLEAR (TRUE),
; 334  : 								UI_ATTR_END
; 335  : 							);
; 336  : 
; 337  : 
; 338  : 	/////////////////////////////////////////////////////////////////
; 339  : 	// back and next
; 340  : 	/////////////////////////////////////////////////////////////////
; 341  : 
; 342  : 	/////////////////////////////////////////////////////////////////
; 343  : 	// Ok Button
; 344  : 
; 345  : 	option_bdrop = create_ui_object

  00737	6a 11		 push	 17			; 00000011H
  00739	a1 00 00 00 00	 mov	 eax, DWORD PTR ?text_option_bdrop@@3PAUTEXTURE_GRAPHIC@@A ; text_option_bdrop
  0073e	50		 push	 eax
  0073f	6a 4c		 push	 76			; 0000004cH
  00741	68 ff 00 00 00	 push	 255			; 000000ffH
  00746	68 ff 00 00 00	 push	 255			; 000000ffH
  0074b	68 ff 00 00 00	 push	 255			; 000000ffH
  00750	68 ff 00 00 00	 push	 255			; 000000ffH
  00755	6a 0a		 push	 10			; 0000000aH
  00757	68 ff 00 00 00	 push	 255			; 000000ffH
  0075c	68 ff 00 00 00	 push	 255			; 000000ffH
  00761	68 ff 00 00 00	 push	 255			; 000000ffH
  00766	68 ff 00 00 00	 push	 255			; 000000ffH
  0076b	6a 0b		 push	 11			; 0000000bH
  0076d	83 ec 08	 sub	 esp, 8
  00770	f2 0f 10 05 00
	00 00 00	 movsd	 xmm0, QWORD PTR __real@3fad2f1aa0000000
  00778	f2 0f 11 04 24	 movsd	 QWORD PTR [esp], xmm0
  0077d	83 ec 08	 sub	 esp, 8
  00780	f2 0f 10 05 00
	00 00 00	 movsd	 xmm0, QWORD PTR __real@3fdee978e0000000
  00788	f2 0f 11 04 24	 movsd	 QWORD PTR [esp], xmm0
  0078d	6a 59		 push	 89			; 00000059H
  0078f	83 ec 08	 sub	 esp, 8
  00792	0f 57 c0	 xorps	 xmm0, xmm0
  00795	f2 0f 11 04 24	 movsd	 QWORD PTR [esp], xmm0
  0079a	83 ec 08	 sub	 esp, 8
  0079d	0f 57 c0	 xorps	 xmm0, xmm0
  007a0	f2 0f 11 04 24	 movsd	 QWORD PTR [esp], xmm0
  007a5	6a 58		 push	 88			; 00000058H
  007a7	8b 0d 00 00 00
	00		 mov	 ecx, DWORD PTR ?gunships_screen@@3PAUUI_OBJECT@@A ; gunships_screen
  007ad	51		 push	 ecx
  007ae	6a 32		 push	 50			; 00000032H
  007b0	6a 01		 push	 1
  007b2	e8 00 00 00 00	 call	 ?create_ui_object@@YAPAUUI_OBJECT@@HZZ ; create_ui_object
  007b7	83 c4 68	 add	 esp, 104		; 00000068H
  007ba	89 45 ec	 mov	 DWORD PTR _option_bdrop$[ebp], eax

; 346  : 	(
; 347  : 		UI_TYPE_AREA,
; 348  : 		UI_ATTR_PARENT (gunships_screen),
; 349  : 		UI_ATTR_VIRTUAL_POSITION (0.0, 0.0),
; 350  : 		UI_ATTR_VIRTUAL_SIZE (TEXT_OPTION_BDROP_WIDTH, TEXT_OPTION_BDROP_HEIGHT),
; 351  : 		UI_ATTR_COLOUR_START (255, 255, 255, 255),
; 352  : 		UI_ATTR_COLOUR_END (255, 255, 255, 255),
; 353  : 		UI_ATTR_TEXTURE_GRAPHIC (text_option_bdrop),
; 354  : 		UI_ATTR_END
; 355  : 	);
; 356  : 
; 357  : 	gunship_screen_next_button = create_ui_object

  007bd	6a 11		 push	 17			; 00000011H
  007bf	6a 01		 push	 1
  007c1	6a 07		 push	 7
  007c3	6a 00		 push	 0
  007c5	6a 10		 push	 16			; 00000010H
  007c7	68 00 00 00 00	 push	 OFFSET ?notify_gunships_next_button@@YGXPAUUI_OBJECT@@PAX@Z ; notify_gunships_next_button
  007cc	6a 16		 push	 22			; 00000016H
  007ce	6a 01		 push	 1
  007d0	6a 2f		 push	 47			; 0000002fH
  007d2	68 00 00 00 00	 push	 OFFSET ??_C@_06LCPJPOPK@SELECT@
  007d7	e8 00 00 00 00	 call	 ?get_trans@@YGPBDPBD@Z	; get_trans
  007dc	50		 push	 eax
  007dd	6a 4a		 push	 74			; 0000004aH
  007df	6a 01		 push	 1
  007e1	6a 1b		 push	 27			; 0000001bH
  007e3	68 ff 00 00 00	 push	 255			; 000000ffH
  007e8	0f b6 05 00 00
	00 00		 movzx	 eax, BYTE PTR ?ui_option_text_hilite_colour@@3UREAL_COLOUR@@A
  007ef	50		 push	 eax
  007f0	0f b6 0d 01 00
	00 00		 movzx	 ecx, BYTE PTR ?ui_option_text_hilite_colour@@3UREAL_COLOUR@@A+1
  007f7	51		 push	 ecx
  007f8	0f b6 15 02 00
	00 00		 movzx	 edx, BYTE PTR ?ui_option_text_hilite_colour@@3UREAL_COLOUR@@A+2
  007ff	52		 push	 edx
  00800	6a 22		 push	 34			; 00000022H
  00802	6a 00		 push	 0
  00804	0f b6 05 00 00
	00 00		 movzx	 eax, BYTE PTR ?ui_option_text_hilite_colour@@3UREAL_COLOUR@@A
  0080b	50		 push	 eax
  0080c	0f b6 0d 01 00
	00 00		 movzx	 ecx, BYTE PTR ?ui_option_text_hilite_colour@@3UREAL_COLOUR@@A+1
  00813	51		 push	 ecx
  00814	0f b6 15 02 00
	00 00		 movzx	 edx, BYTE PTR ?ui_option_text_hilite_colour@@3UREAL_COLOUR@@A+2
  0081b	52		 push	 edx
  0081c	6a 23		 push	 35			; 00000023H
  0081e	68 ff 00 00 00	 push	 255			; 000000ffH
  00823	0f b6 05 00 00
	00 00		 movzx	 eax, BYTE PTR ?ui_option_text_default_colour@@3UREAL_COLOUR@@A
  0082a	50		 push	 eax
  0082b	0f b6 0d 01 00
	00 00		 movzx	 ecx, BYTE PTR ?ui_option_text_default_colour@@3UREAL_COLOUR@@A+1
  00832	51		 push	 ecx
  00833	0f b6 15 02 00
	00 00		 movzx	 edx, BYTE PTR ?ui_option_text_default_colour@@3UREAL_COLOUR@@A+2
  0083a	52		 push	 edx
  0083b	6a 14		 push	 20			; 00000014H
  0083d	6a 00		 push	 0
  0083f	0f b6 05 00 00
	00 00		 movzx	 eax, BYTE PTR ?ui_option_text_default_colour@@3UREAL_COLOUR@@A
  00846	50		 push	 eax
  00847	0f b6 0d 01 00
	00 00		 movzx	 ecx, BYTE PTR ?ui_option_text_default_colour@@3UREAL_COLOUR@@A+1
  0084e	51		 push	 ecx
  0084f	0f b6 15 02 00
	00 00		 movzx	 edx, BYTE PTR ?ui_option_text_default_colour@@3UREAL_COLOUR@@A+2
  00856	52		 push	 edx
  00857	6a 15		 push	 21			; 00000015H
  00859	6a 01		 push	 1
  0085b	6a 4b		 push	 75			; 0000004bH
  0085d	6a 08		 push	 8
  0085f	6a 12		 push	 18			; 00000012H
  00861	83 ec 08	 sub	 esp, 8
  00864	f2 0f 10 05 00
	00 00 00	 movsd	 xmm0, QWORD PTR __real@3fa99999a0000000
  0086c	f2 0f 11 04 24	 movsd	 QWORD PTR [esp], xmm0
  00871	83 ec 08	 sub	 esp, 8
  00874	f2 0f 10 05 00
	00 00 00	 movsd	 xmm0, QWORD PTR __real@3fc3333340000000
  0087c	f2 0f 11 04 24	 movsd	 QWORD PTR [esp], xmm0
  00881	6a 59		 push	 89			; 00000059H
  00883	83 ec 08	 sub	 esp, 8
  00886	f2 0f 10 05 00
	00 00 00	 movsd	 xmm0, QWORD PTR __real@3fea872b00000000
  0088e	f2 0f 11 04 24	 movsd	 QWORD PTR [esp], xmm0
  00893	83 ec 08	 sub	 esp, 8
  00896	f2 0f 10 05 00
	00 00 00	 movsd	 xmm0, QWORD PTR __real@3fa374bc60000000
  0089e	f2 0f 11 04 24	 movsd	 QWORD PTR [esp], xmm0
  008a3	6a 58		 push	 88			; 00000058H
  008a5	a1 00 00 00 00	 mov	 eax, DWORD PTR ?gunships_screen@@3PAUUI_OBJECT@@A ; gunships_screen
  008aa	50		 push	 eax
  008ab	6a 32		 push	 50			; 00000032H
  008ad	6a 02		 push	 2
  008af	e8 00 00 00 00	 call	 ?create_ui_object@@YAPAUUI_OBJECT@@HZZ ; create_ui_object
  008b4	81 c4 c8 00 00
	00		 add	 esp, 200		; 000000c8H
  008ba	a3 00 00 00 00	 mov	 DWORD PTR ?gunship_screen_next_button@@3PAUUI_OBJECT@@A, eax ; gunship_screen_next_button

; 358  : 			(
; 359  : 				UI_TYPE_BUTTON,
; 360  : 				UI_ATTR_PARENT (gunships_screen),
; 361  : 				UI_ATTR_VIRTUAL_POSITION (OPTIONS_OK_BUTTON_POS_X, OPTIONS_OK_BUTTON_POS_Y),
; 362  : 				UI_ATTR_VIRTUAL_SIZE (OPTIONS_OK_BUTTON_X, OPTIONS_OK_BUTTON_Y),
; 363  : 				UI_ATTR_FONT_TYPE (UI_FONT_THICK_ITALIC_ARIAL_18),
; 364  : 				UI_ATTR_TEXT_JUSTIFY (TEXT_JUSTIFY_LEFT_CENTRE),
; 365  :   			   UI_ATTR_FONT_COLOUR_START (ui_option_text_default_colour.r, ui_option_text_default_colour.g, ui_option_text_default_colour.b, 0),
; 366  :       		UI_ATTR_FONT_COLOUR_END (ui_option_text_default_colour.r, ui_option_text_default_colour.g, ui_option_text_default_colour.b, 255),
; 367  :       		UI_ATTR_HIGHLIGHTED_FONT_COLOUR_START (ui_option_text_hilite_colour.r, ui_option_text_hilite_colour.g, ui_option_text_hilite_colour.b, 0),
; 368  :       		UI_ATTR_HIGHLIGHTED_FONT_COLOUR_END (ui_option_text_hilite_colour.r, ui_option_text_hilite_colour.g, ui_option_text_hilite_colour.b, 255),
; 369  : 				UI_ATTR_HIGHLIGHTABLE (TRUE),
; 370  : 				UI_ATTR_TEXT (get_trans("SELECT")),
; 371  : 				UI_ATTR_NOTIFY_ON (NOTIFY_TYPE_BUTTON_UP),
; 372  : 				UI_ATTR_FUNCTION (notify_gunships_next_button),
; 373  : 				UI_ATTR_DRAWABLE (FALSE),
; 374  : 				UI_ATTR_CLEAR (TRUE),
; 375  : 				UI_ATTR_END
; 376  : 			);
; 377  : 
; 378  : 	set_text_option_backdrop_object (option_bdrop, gunship_screen_next_button);

  008bf	a1 00 00 00 00	 mov	 eax, DWORD PTR ?gunship_screen_next_button@@3PAUUI_OBJECT@@A ; gunship_screen_next_button
  008c4	50		 push	 eax
  008c5	8b 4d ec	 mov	 ecx, DWORD PTR _option_bdrop$[ebp]
  008c8	51		 push	 ecx
  008c9	e8 00 00 00 00	 call	 ?set_text_option_backdrop_object@@YGXPAUUI_OBJECT@@0@Z ; set_text_option_backdrop_object

; 379  : 
; 380  : 	/////////////////////////////////////////////////////////////////
; 381  : 	// Cancel Button
; 382  : 
; 383  : 	option_bdrop = create_ui_object

  008ce	6a 11		 push	 17			; 00000011H
  008d0	a1 00 00 00 00	 mov	 eax, DWORD PTR ?text_option_bdrop@@3PAUTEXTURE_GRAPHIC@@A ; text_option_bdrop
  008d5	50		 push	 eax
  008d6	6a 4c		 push	 76			; 0000004cH
  008d8	68 ff 00 00 00	 push	 255			; 000000ffH
  008dd	68 ff 00 00 00	 push	 255			; 000000ffH
  008e2	68 ff 00 00 00	 push	 255			; 000000ffH
  008e7	68 ff 00 00 00	 push	 255			; 000000ffH
  008ec	6a 0a		 push	 10			; 0000000aH
  008ee	68 ff 00 00 00	 push	 255			; 000000ffH
  008f3	68 ff 00 00 00	 push	 255			; 000000ffH
  008f8	68 ff 00 00 00	 push	 255			; 000000ffH
  008fd	68 ff 00 00 00	 push	 255			; 000000ffH
  00902	6a 0b		 push	 11			; 0000000bH
  00904	83 ec 08	 sub	 esp, 8
  00907	f2 0f 10 05 00
	00 00 00	 movsd	 xmm0, QWORD PTR __real@3fad2f1aa0000000
  0090f	f2 0f 11 04 24	 movsd	 QWORD PTR [esp], xmm0
  00914	83 ec 08	 sub	 esp, 8
  00917	f2 0f 10 05 00
	00 00 00	 movsd	 xmm0, QWORD PTR __real@3fdee978e0000000
  0091f	f2 0f 11 04 24	 movsd	 QWORD PTR [esp], xmm0
  00924	6a 59		 push	 89			; 00000059H
  00926	83 ec 08	 sub	 esp, 8
  00929	0f 57 c0	 xorps	 xmm0, xmm0
  0092c	f2 0f 11 04 24	 movsd	 QWORD PTR [esp], xmm0
  00931	83 ec 08	 sub	 esp, 8
  00934	0f 57 c0	 xorps	 xmm0, xmm0
  00937	f2 0f 11 04 24	 movsd	 QWORD PTR [esp], xmm0
  0093c	6a 58		 push	 88			; 00000058H
  0093e	8b 0d 00 00 00
	00		 mov	 ecx, DWORD PTR ?gunships_screen@@3PAUUI_OBJECT@@A ; gunships_screen
  00944	51		 push	 ecx
  00945	6a 32		 push	 50			; 00000032H
  00947	6a 01		 push	 1
  00949	e8 00 00 00 00	 call	 ?create_ui_object@@YAPAUUI_OBJECT@@HZZ ; create_ui_object
  0094e	83 c4 68	 add	 esp, 104		; 00000068H
  00951	89 45 ec	 mov	 DWORD PTR _option_bdrop$[ebp], eax

; 384  : 	(
; 385  : 		UI_TYPE_AREA,
; 386  : 		UI_ATTR_PARENT (gunships_screen),
; 387  : 		UI_ATTR_VIRTUAL_POSITION (0.0, 0.0),
; 388  : 		UI_ATTR_VIRTUAL_SIZE (TEXT_OPTION_BDROP_WIDTH, TEXT_OPTION_BDROP_HEIGHT),
; 389  : 		UI_ATTR_COLOUR_START (255, 255, 255, 255),
; 390  : 		UI_ATTR_COLOUR_END (255, 255, 255, 255),
; 391  : 		UI_ATTR_TEXTURE_GRAPHIC (text_option_bdrop),
; 392  : 		UI_ATTR_END
; 393  : 	);
; 394  : 
; 395  : 	gunship_screen_back_button = create_ui_object

  00954	6a 11		 push	 17			; 00000011H
  00956	6a 01		 push	 1
  00958	6a 07		 push	 7
  0095a	6a 00		 push	 0
  0095c	6a 10		 push	 16			; 00000010H
  0095e	6a 01		 push	 1
  00960	6a 1b		 push	 27			; 0000001bH
  00962	68 ff 00 00 00	 push	 255			; 000000ffH
  00967	0f b6 05 00 00
	00 00		 movzx	 eax, BYTE PTR ?ui_option_text_hilite_colour@@3UREAL_COLOUR@@A
  0096e	50		 push	 eax
  0096f	0f b6 0d 01 00
	00 00		 movzx	 ecx, BYTE PTR ?ui_option_text_hilite_colour@@3UREAL_COLOUR@@A+1
  00976	51		 push	 ecx
  00977	0f b6 15 02 00
	00 00		 movzx	 edx, BYTE PTR ?ui_option_text_hilite_colour@@3UREAL_COLOUR@@A+2
  0097e	52		 push	 edx
  0097f	6a 22		 push	 34			; 00000022H
  00981	6a 00		 push	 0
  00983	0f b6 05 00 00
	00 00		 movzx	 eax, BYTE PTR ?ui_option_text_hilite_colour@@3UREAL_COLOUR@@A
  0098a	50		 push	 eax
  0098b	0f b6 0d 01 00
	00 00		 movzx	 ecx, BYTE PTR ?ui_option_text_hilite_colour@@3UREAL_COLOUR@@A+1
  00992	51		 push	 ecx
  00993	0f b6 15 02 00
	00 00		 movzx	 edx, BYTE PTR ?ui_option_text_hilite_colour@@3UREAL_COLOUR@@A+2
  0099a	52		 push	 edx
  0099b	6a 23		 push	 35			; 00000023H
  0099d	68 ff 00 00 00	 push	 255			; 000000ffH
  009a2	0f b6 05 00 00
	00 00		 movzx	 eax, BYTE PTR ?ui_option_text_default_colour@@3UREAL_COLOUR@@A
  009a9	50		 push	 eax
  009aa	0f b6 0d 01 00
	00 00		 movzx	 ecx, BYTE PTR ?ui_option_text_default_colour@@3UREAL_COLOUR@@A+1
  009b1	51		 push	 ecx
  009b2	0f b6 15 02 00
	00 00		 movzx	 edx, BYTE PTR ?ui_option_text_default_colour@@3UREAL_COLOUR@@A+2
  009b9	52		 push	 edx
  009ba	6a 14		 push	 20			; 00000014H
  009bc	6a 00		 push	 0
  009be	0f b6 05 00 00
	00 00		 movzx	 eax, BYTE PTR ?ui_option_text_default_colour@@3UREAL_COLOUR@@A
  009c5	50		 push	 eax
  009c6	0f b6 0d 01 00
	00 00		 movzx	 ecx, BYTE PTR ?ui_option_text_default_colour@@3UREAL_COLOUR@@A+1
  009cd	51		 push	 ecx
  009ce	0f b6 15 02 00
	00 00		 movzx	 edx, BYTE PTR ?ui_option_text_default_colour@@3UREAL_COLOUR@@A+2
  009d5	52		 push	 edx
  009d6	6a 15		 push	 21			; 00000015H
  009d8	6a 01		 push	 1
  009da	6a 4b		 push	 75			; 0000004bH
  009dc	6a 08		 push	 8
  009de	6a 12		 push	 18			; 00000012H
  009e0	68 00 00 00 00	 push	 OFFSET ?notify_gunships_back_button@@YGXPAUUI_OBJECT@@PAX@Z ; notify_gunships_back_button
  009e5	6a 16		 push	 22			; 00000016H
  009e7	6a 01		 push	 1
  009e9	6a 2f		 push	 47			; 0000002fH
  009eb	68 00 00 00 00	 push	 OFFSET ??_C@_09EIGHGGEH@UI_CANCEL@
  009f0	e8 00 00 00 00	 call	 ?get_trans@@YGPBDPBD@Z	; get_trans
  009f5	50		 push	 eax
  009f6	6a 4a		 push	 74			; 0000004aH
  009f8	83 ec 08	 sub	 esp, 8
  009fb	f2 0f 10 05 00
	00 00 00	 movsd	 xmm0, QWORD PTR __real@3fa99999a0000000
  00a03	f2 0f 11 04 24	 movsd	 QWORD PTR [esp], xmm0
  00a08	83 ec 08	 sub	 esp, 8
  00a0b	f2 0f 10 05 00
	00 00 00	 movsd	 xmm0, QWORD PTR __real@3fc3333340000000
  00a13	f2 0f 11 04 24	 movsd	 QWORD PTR [esp], xmm0
  00a18	6a 59		 push	 89			; 00000059H
  00a1a	83 ec 08	 sub	 esp, 8
  00a1d	f2 0f 10 05 00
	00 00 00	 movsd	 xmm0, QWORD PTR __real@3fec106240000000
  00a25	f2 0f 11 04 24	 movsd	 QWORD PTR [esp], xmm0
  00a2a	83 ec 08	 sub	 esp, 8
  00a2d	f2 0f 10 05 00
	00 00 00	 movsd	 xmm0, QWORD PTR __real@3fa374bc60000000
  00a35	f2 0f 11 04 24	 movsd	 QWORD PTR [esp], xmm0
  00a3a	6a 58		 push	 88			; 00000058H
  00a3c	a1 00 00 00 00	 mov	 eax, DWORD PTR ?gunships_screen@@3PAUUI_OBJECT@@A ; gunships_screen
  00a41	50		 push	 eax
  00a42	6a 32		 push	 50			; 00000032H
  00a44	6a 02		 push	 2
  00a46	e8 00 00 00 00	 call	 ?create_ui_object@@YAPAUUI_OBJECT@@HZZ ; create_ui_object
  00a4b	81 c4 c8 00 00
	00		 add	 esp, 200		; 000000c8H
  00a51	a3 00 00 00 00	 mov	 DWORD PTR ?gunship_screen_back_button@@3PAUUI_OBJECT@@A, eax ; gunship_screen_back_button

; 396  : 			(
; 397  : 				UI_TYPE_BUTTON,
; 398  : 				UI_ATTR_PARENT (gunships_screen),
; 399  : 				UI_ATTR_VIRTUAL_POSITION (OPTIONS_CANCEL_BUTTON_POS_X, OPTIONS_CANCEL_BUTTON_POS_Y),
; 400  : 				UI_ATTR_VIRTUAL_SIZE (OPTIONS_CANCEL_BUTTON_X, OPTIONS_CANCEL_BUTTON_Y),
; 401  : 				UI_ATTR_TEXT (get_trans("UI_CANCEL")),
; 402  : 				UI_ATTR_NOTIFY_ON (NOTIFY_TYPE_BUTTON_UP),
; 403  : 				UI_ATTR_FUNCTION (notify_gunships_back_button),
; 404  : 				UI_ATTR_FONT_TYPE (UI_FONT_THICK_ITALIC_ARIAL_18),
; 405  : 				UI_ATTR_TEXT_JUSTIFY (TEXT_JUSTIFY_LEFT_CENTRE),
; 406  :       		UI_ATTR_FONT_COLOUR_START (ui_option_text_default_colour.r, ui_option_text_default_colour.g, ui_option_text_default_colour.b, 0),
; 407  :       		UI_ATTR_FONT_COLOUR_END (ui_option_text_default_colour.r, ui_option_text_default_colour.g, ui_option_text_default_colour.b, 255),
; 408  :       		UI_ATTR_HIGHLIGHTED_FONT_COLOUR_START (ui_option_text_hilite_colour.r, ui_option_text_hilite_colour.g, ui_option_text_hilite_colour.b, 0),
; 409  :       		UI_ATTR_HIGHLIGHTED_FONT_COLOUR_END (ui_option_text_hilite_colour.r, ui_option_text_hilite_colour.g, ui_option_text_hilite_colour.b, 255),
; 410  : 				UI_ATTR_HIGHLIGHTABLE (TRUE),
; 411  : 				UI_ATTR_DRAWABLE (FALSE),
; 412  : 				UI_ATTR_CLEAR (TRUE),
; 413  : 				UI_ATTR_END
; 414  : 			);
; 415  : 
; 416  : 	set_text_option_backdrop_object (option_bdrop, gunship_screen_back_button);

  00a56	a1 00 00 00 00	 mov	 eax, DWORD PTR ?gunship_screen_back_button@@3PAUUI_OBJECT@@A ; gunship_screen_back_button
  00a5b	50		 push	 eax
  00a5c	8b 4d ec	 mov	 ecx, DWORD PTR _option_bdrop$[ebp]
  00a5f	51		 push	 ecx
  00a60	e8 00 00 00 00	 call	 ?set_text_option_backdrop_object@@YGXPAUUI_OBJECT@@0@Z ; set_text_option_backdrop_object

; 417  : 
; 418  : 	x1 = 0.370;

  00a65	f3 0f 10 05 00
	00 00 00	 movss	 xmm0, DWORD PTR __real@3ebd70a4
  00a6d	f3 0f 11 45 fc	 movss	 DWORD PTR _x1$[ebp], xmm0

; 419  : 	y1 = 0.758;

  00a72	f3 0f 10 05 00
	00 00 00	 movss	 xmm0, DWORD PTR __real@3f420c4a
  00a7a	f3 0f 11 45 f8	 movss	 DWORD PTR _y1$[ebp], xmm0

; 420  : 	x2 = 0.258;

  00a7f	f3 0f 10 05 00
	00 00 00	 movss	 xmm0, DWORD PTR __real@3e841893
  00a87	f3 0f 11 45 f4	 movss	 DWORD PTR _x2$[ebp], xmm0

; 421  : 	y2 = 0.102;

  00a8c	f3 0f 10 05 00
	00 00 00	 movss	 xmm0, DWORD PTR __real@3dd0e560
  00a94	f3 0f 11 45 f0	 movss	 DWORD PTR _y2$[ebp], xmm0

; 422  : 
; 423  : 	gunship_screen_waiting_area = create_ui_object

  00a99	6a 11		 push	 17			; 00000011H
  00a9b	6a 01		 push	 1
  00a9d	6a 07		 push	 7
  00a9f	f3 0f 5a 45 f0	 cvtss2sd xmm0, DWORD PTR _y2$[ebp]
  00aa4	83 ec 08	 sub	 esp, 8
  00aa7	f2 0f 11 04 24	 movsd	 QWORD PTR [esp], xmm0
  00aac	f3 0f 5a 45 f4	 cvtss2sd xmm0, DWORD PTR _x2$[ebp]
  00ab1	83 ec 08	 sub	 esp, 8
  00ab4	f2 0f 11 04 24	 movsd	 QWORD PTR [esp], xmm0
  00ab9	6a 59		 push	 89			; 00000059H
  00abb	f3 0f 5a 45 f8	 cvtss2sd xmm0, DWORD PTR _y1$[ebp]
  00ac0	83 ec 08	 sub	 esp, 8
  00ac3	f2 0f 11 04 24	 movsd	 QWORD PTR [esp], xmm0
  00ac8	f3 0f 5a 45 fc	 cvtss2sd xmm0, DWORD PTR _x1$[ebp]
  00acd	83 ec 08	 sub	 esp, 8
  00ad0	f2 0f 11 04 24	 movsd	 QWORD PTR [esp], xmm0
  00ad5	6a 58		 push	 88			; 00000058H
  00ad7	a1 00 00 00 00	 mov	 eax, DWORD PTR ?gunships_screen@@3PAUUI_OBJECT@@A ; gunships_screen
  00adc	50		 push	 eax
  00add	6a 32		 push	 50			; 00000032H
  00adf	6a 01		 push	 1
  00ae1	e8 00 00 00 00	 call	 ?create_ui_object@@YAPAUUI_OBJECT@@HZZ ; create_ui_object
  00ae6	83 c4 40	 add	 esp, 64			; 00000040H
  00ae9	a3 00 00 00 00	 mov	 DWORD PTR ?gunship_screen_waiting_area@@3PAUUI_OBJECT@@A, eax ; gunship_screen_waiting_area

; 424  : 											(
; 425  : 												UI_TYPE_AREA,
; 426  : 												UI_ATTR_PARENT (gunships_screen),
; 427  : 							               UI_ATTR_VIRTUAL_POSITION (x1, y1),
; 428  : 				      			         UI_ATTR_VIRTUAL_SIZE (x2, y2),
; 429  : 												UI_ATTR_CLEAR ( TRUE ),
; 430  : 												UI_ATTR_END
; 431  : 											);
; 432  : 
; 433  : 	x1 = 0.328;

  00aee	f3 0f 10 05 00
	00 00 00	 movss	 xmm0, DWORD PTR __real@3ea7ef9e
  00af6	f3 0f 11 45 fc	 movss	 DWORD PTR _x1$[ebp], xmm0

; 434  : 	y1 = OPTIONS_CANCEL_BUTTON_POS_Y;

  00afb	f3 0f 10 05 00
	00 00 00	 movss	 xmm0, DWORD PTR __real@3f608312
  00b03	f3 0f 11 45 f8	 movss	 DWORD PTR _y1$[ebp], xmm0

; 435  : 	x2 = 0.4;

  00b08	f3 0f 10 05 00
	00 00 00	 movss	 xmm0, DWORD PTR __real@3ecccccd
  00b10	f3 0f 11 45 f4	 movss	 DWORD PTR _x2$[ebp], xmm0

; 436  : 	y2 = 0.05;

  00b15	f3 0f 10 05 00
	00 00 00	 movss	 xmm0, DWORD PTR __real@3d4ccccd
  00b1d	f3 0f 11 45 f0	 movss	 DWORD PTR _y2$[ebp], xmm0

; 437  : 
; 438  : 	gunship_screen_waiting_area_text = create_ui_object

  00b22	6a 11		 push	 17			; 00000011H
  00b24	6a 0a		 push	 10			; 0000000aH
  00b26	6a 12		 push	 18			; 00000012H
  00b28	68 00 00 00 00	 push	 OFFSET ??_C@_00CNPNBAHC@@
  00b2d	6a 4a		 push	 74			; 0000004aH
  00b2f	6a 00		 push	 0
  00b31	6a 1b		 push	 27			; 0000001bH
  00b33	68 ff 00 00 00	 push	 255			; 000000ffH
  00b38	0f b6 05 00 00
	00 00		 movzx	 eax, BYTE PTR ?ui_option_title_text_colour@@3UREAL_COLOUR@@A
  00b3f	50		 push	 eax
  00b40	0f b6 0d 01 00
	00 00		 movzx	 ecx, BYTE PTR ?ui_option_title_text_colour@@3UREAL_COLOUR@@A+1
  00b47	51		 push	 ecx
  00b48	0f b6 15 02 00
	00 00		 movzx	 edx, BYTE PTR ?ui_option_title_text_colour@@3UREAL_COLOUR@@A+2
  00b4f	52		 push	 edx
  00b50	6a 14		 push	 20			; 00000014H
  00b52	6a 00		 push	 0
  00b54	0f b6 05 00 00
	00 00		 movzx	 eax, BYTE PTR ?ui_option_title_text_colour@@3UREAL_COLOUR@@A
  00b5b	50		 push	 eax
  00b5c	0f b6 0d 01 00
	00 00		 movzx	 ecx, BYTE PTR ?ui_option_title_text_colour@@3UREAL_COLOUR@@A+1
  00b63	51		 push	 ecx
  00b64	0f b6 15 02 00
	00 00		 movzx	 edx, BYTE PTR ?ui_option_title_text_colour@@3UREAL_COLOUR@@A+2
  00b6b	52		 push	 edx
  00b6c	6a 15		 push	 21			; 00000015H
  00b6e	f3 0f 5a 45 f0	 cvtss2sd xmm0, DWORD PTR _y2$[ebp]
  00b73	83 ec 08	 sub	 esp, 8
  00b76	f2 0f 11 04 24	 movsd	 QWORD PTR [esp], xmm0
  00b7b	f3 0f 5a 45 f4	 cvtss2sd xmm0, DWORD PTR _x2$[ebp]
  00b80	83 ec 08	 sub	 esp, 8
  00b83	f2 0f 11 04 24	 movsd	 QWORD PTR [esp], xmm0
  00b88	6a 59		 push	 89			; 00000059H
  00b8a	f3 0f 5a 45 f8	 cvtss2sd xmm0, DWORD PTR _y1$[ebp]
  00b8f	83 ec 08	 sub	 esp, 8
  00b92	f2 0f 11 04 24	 movsd	 QWORD PTR [esp], xmm0
  00b97	f3 0f 5a 45 fc	 cvtss2sd xmm0, DWORD PTR _x1$[ebp]
  00b9c	83 ec 08	 sub	 esp, 8
  00b9f	f2 0f 11 04 24	 movsd	 QWORD PTR [esp], xmm0
  00ba4	6a 58		 push	 88			; 00000058H
  00ba6	a1 00 00 00 00	 mov	 eax, DWORD PTR ?gunships_screen@@3PAUUI_OBJECT@@A ; gunships_screen
  00bab	50		 push	 eax
  00bac	6a 32		 push	 50			; 00000032H
  00bae	6a 05		 push	 5
  00bb0	e8 00 00 00 00	 call	 ?create_ui_object@@YAPAUUI_OBJECT@@HZZ ; create_ui_object
  00bb5	83 c4 78	 add	 esp, 120		; 00000078H
  00bb8	a3 00 00 00 00	 mov	 DWORD PTR ?gunship_screen_waiting_area_text@@3PAUUI_OBJECT@@A, eax ; gunship_screen_waiting_area_text

; 439  : 											(
; 440  : 												UI_TYPE_TEXT,
; 441  : 												UI_ATTR_PARENT (gunships_screen),
; 442  : 							               UI_ATTR_VIRTUAL_POSITION (x1, y1),
; 443  : 				      			         UI_ATTR_VIRTUAL_SIZE (x2, y2),
; 444  :    							  	 			UI_ATTR_FONT_COLOUR_START (ui_option_title_text_colour.r, ui_option_title_text_colour.g, ui_option_title_text_colour.b, 0),
; 445  :   								    			UI_ATTR_FONT_COLOUR_END (ui_option_title_text_colour.r, ui_option_title_text_colour.g, ui_option_title_text_colour.b, 255),
; 446  : 												UI_ATTR_HIGHLIGHTABLE (FALSE),
; 447  : 												UI_ATTR_TEXT (""),
; 448  : 												UI_ATTR_FONT_TYPE (UI_FONT_ARIAL_22),
; 449  : 												UI_ATTR_END
; 450  : 											);
; 451  : }

  00bbd	5f		 pop	 edi
  00bbe	5e		 pop	 esi
  00bbf	5b		 pop	 ebx
  00bc0	8b e5		 mov	 esp, ebp
  00bc2	5d		 pop	 ebp
  00bc3	c3		 ret	 0
?initialise_gunships_screen@@YGXXZ ENDP			; initialise_gunships_screen
_TEXT	ENDS
; Function compile flags: /Odtp /ZI
; File c:\program files (x86)\windows kits\10\include\10.0.18362.0\ucrt\stdio.h
;	COMDAT _sprintf
_TEXT	SEGMENT
__ArgList$ = -8						; size = 4
__Result$ = -4						; size = 4
__Buffer$ = 8						; size = 4
__Format$ = 12						; size = 4
_sprintf PROC						; COMDAT

; 1781 :     {

  00000	55		 push	 ebp
  00001	8b ec		 mov	 ebp, esp
  00003	83 ec 4c	 sub	 esp, 76			; 0000004cH
  00006	53		 push	 ebx
  00007	56		 push	 esi
  00008	57		 push	 edi

; 1782 :         int _Result;
; 1783 :         va_list _ArgList;
; 1784 :         __crt_va_start(_ArgList, _Format);

  00009	8d 45 10	 lea	 eax, DWORD PTR __Format$[ebp+4]
  0000c	89 45 f8	 mov	 DWORD PTR __ArgList$[ebp], eax

; 1785 : 
; 1786 :         #pragma warning(push)
; 1787 :         #pragma warning(disable: 4996) // Deprecation
; 1788 :         _Result = _vsprintf_l(_Buffer, _Format, NULL, _ArgList);

  0000f	8b 45 f8	 mov	 eax, DWORD PTR __ArgList$[ebp]
  00012	50		 push	 eax
  00013	6a 00		 push	 0
  00015	8b 4d 0c	 mov	 ecx, DWORD PTR __Format$[ebp]
  00018	51		 push	 ecx
  00019	8b 55 08	 mov	 edx, DWORD PTR __Buffer$[ebp]
  0001c	52		 push	 edx
  0001d	e8 00 00 00 00	 call	 __vsprintf_l
  00022	83 c4 10	 add	 esp, 16			; 00000010H
  00025	89 45 fc	 mov	 DWORD PTR __Result$[ebp], eax

; 1789 :         #pragma warning(pop)
; 1790 : 
; 1791 :         __crt_va_end(_ArgList);

  00028	c7 45 f8 00 00
	00 00		 mov	 DWORD PTR __ArgList$[ebp], 0

; 1792 :         return _Result;

  0002f	8b 45 fc	 mov	 eax, DWORD PTR __Result$[ebp]

; 1793 :     }

  00032	5f		 pop	 edi
  00033	5e		 pop	 esi
  00034	5b		 pop	 ebx
  00035	8b e5		 mov	 esp, ebp
  00037	5d		 pop	 ebp
  00038	c3		 ret	 0
_sprintf ENDP
_TEXT	ENDS
; Function compile flags: /Odtp /ZI
; File c:\program files (x86)\windows kits\10\include\10.0.18362.0\ucrt\stdio.h
;	COMDAT __vsprintf_l
_TEXT	SEGMENT
__Buffer$ = 8						; size = 4
__Format$ = 12						; size = 4
__Locale$ = 16						; size = 4
__ArgList$ = 20						; size = 4
__vsprintf_l PROC					; COMDAT

; 1459 :     {

  00000	55		 push	 ebp
  00001	8b ec		 mov	 ebp, esp
  00003	83 ec 40	 sub	 esp, 64			; 00000040H
  00006	53		 push	 ebx
  00007	56		 push	 esi
  00008	57		 push	 edi

; 1460 :         #pragma warning(push)
; 1461 :         #pragma warning(disable: 4996) // Deprecation
; 1462 :         return _vsnprintf_l(_Buffer, (size_t)-1, _Format, _Locale, _ArgList);

  00009	8b 45 14	 mov	 eax, DWORD PTR __ArgList$[ebp]
  0000c	50		 push	 eax
  0000d	8b 4d 10	 mov	 ecx, DWORD PTR __Locale$[ebp]
  00010	51		 push	 ecx
  00011	8b 55 0c	 mov	 edx, DWORD PTR __Format$[ebp]
  00014	52		 push	 edx
  00015	6a ff		 push	 -1
  00017	8b 45 08	 mov	 eax, DWORD PTR __Buffer$[ebp]
  0001a	50		 push	 eax
  0001b	e8 00 00 00 00	 call	 __vsnprintf_l
  00020	83 c4 14	 add	 esp, 20			; 00000014H

; 1463 :         #pragma warning(pop)
; 1464 :     }

  00023	5f		 pop	 edi
  00024	5e		 pop	 esi
  00025	5b		 pop	 ebx
  00026	8b e5		 mov	 esp, ebp
  00028	5d		 pop	 ebp
  00029	c3		 ret	 0
__vsprintf_l ENDP
_TEXT	ENDS
; Function compile flags: /Odtp /ZI
; File c:\program files (x86)\windows kits\10\include\10.0.18362.0\ucrt\stdio.h
;	COMDAT __vsnprintf_l
_TEXT	SEGMENT
tv74 = -72						; size = 4
__Result$ = -4						; size = 4
__Buffer$ = 8						; size = 4
__BufferCount$ = 12					; size = 4
__Format$ = 16						; size = 4
__Locale$ = 20						; size = 4
__ArgList$ = 24						; size = 4
__vsnprintf_l PROC					; COMDAT

; 1389 :     {

  00000	55		 push	 ebp
  00001	8b ec		 mov	 ebp, esp
  00003	83 ec 48	 sub	 esp, 72			; 00000048H
  00006	53		 push	 ebx
  00007	56		 push	 esi
  00008	57		 push	 edi

; 1390 :         int const _Result = __stdio_common_vsprintf(

  00009	8b 45 18	 mov	 eax, DWORD PTR __ArgList$[ebp]
  0000c	50		 push	 eax
  0000d	8b 4d 14	 mov	 ecx, DWORD PTR __Locale$[ebp]
  00010	51		 push	 ecx
  00011	8b 55 10	 mov	 edx, DWORD PTR __Format$[ebp]
  00014	52		 push	 edx
  00015	8b 45 0c	 mov	 eax, DWORD PTR __BufferCount$[ebp]
  00018	50		 push	 eax
  00019	8b 4d 08	 mov	 ecx, DWORD PTR __Buffer$[ebp]
  0001c	51		 push	 ecx
  0001d	e8 00 00 00 00	 call	 ___local_stdio_printf_options
  00022	8b 10		 mov	 edx, DWORD PTR [eax]
  00024	83 ca 01	 or	 edx, 1
  00027	8b 40 04	 mov	 eax, DWORD PTR [eax+4]
  0002a	50		 push	 eax
  0002b	52		 push	 edx
  0002c	ff 15 00 00 00
	00		 call	 DWORD PTR __imp____stdio_common_vsprintf
  00032	83 c4 1c	 add	 esp, 28			; 0000001cH
  00035	89 45 fc	 mov	 DWORD PTR __Result$[ebp], eax

; 1391 :             _CRT_INTERNAL_LOCAL_PRINTF_OPTIONS | _CRT_INTERNAL_PRINTF_LEGACY_VSPRINTF_NULL_TERMINATION,
; 1392 :             _Buffer, _BufferCount, _Format, _Locale, _ArgList);
; 1393 : 
; 1394 :         return _Result < 0 ? -1 : _Result;

  00038	83 7d fc 00	 cmp	 DWORD PTR __Result$[ebp], 0
  0003c	7d 09		 jge	 SHORT $LN3@vsnprintf_
  0003e	c7 45 b8 ff ff
	ff ff		 mov	 DWORD PTR tv74[ebp], -1
  00045	eb 06		 jmp	 SHORT $LN4@vsnprintf_
$LN3@vsnprintf_:
  00047	8b 45 fc	 mov	 eax, DWORD PTR __Result$[ebp]
  0004a	89 45 b8	 mov	 DWORD PTR tv74[ebp], eax
$LN4@vsnprintf_:
  0004d	8b 45 b8	 mov	 eax, DWORD PTR tv74[ebp]

; 1395 :     }

  00050	5f		 pop	 edi
  00051	5e		 pop	 esi
  00052	5b		 pop	 ebx
  00053	8b e5		 mov	 esp, ebp
  00055	5d		 pop	 ebp
  00056	c3		 ret	 0
__vsnprintf_l ENDP
_TEXT	ENDS
; Function compile flags: /Odtp /ZI
; File c:\program files (x86)\windows kits\10\include\10.0.18362.0\ucrt\corecrt_stdio_config.h
;	COMDAT ___local_stdio_printf_options
_TEXT	SEGMENT
___local_stdio_printf_options PROC			; COMDAT

; 86   :     {

  00000	55		 push	 ebp
  00001	8b ec		 mov	 ebp, esp
  00003	83 ec 40	 sub	 esp, 64			; 00000040H
  00006	53		 push	 ebx
  00007	56		 push	 esi
  00008	57		 push	 edi

; 87   :         static unsigned __int64 _OptionsStorage;
; 88   :         return &_OptionsStorage;

  00009	b8 00 00 00 00	 mov	 eax, OFFSET ?_OptionsStorage@?1??__local_stdio_printf_options@@9@4_KA ; `__local_stdio_printf_options'::`2'::_OptionsStorage

; 89   :     }

  0000e	5f		 pop	 edi
  0000f	5e		 pop	 esi
  00010	5b		 pop	 ebx
  00011	8b e5		 mov	 esp, ebp
  00013	5d		 pop	 ebp
  00014	c3		 ret	 0
___local_stdio_printf_options ENDP
_TEXT	ENDS
END
