; Listing generated by Microsoft (R) Optimizing Compiler Version 19.16.27045.0 

	TITLE	C:\Users\nhv90\Projects\eech\aphavoc\source\gwutcfg.c
	.686P
	.XMM
	include listing.inc
	.model	flat

INCLUDELIB MSVCRTD
INCLUDELIB OLDNAMES

PUBLIC	?INCLUDE_WEAPON_TYPES@@3HA			; INCLUDE_WEAPON_TYPES
PUBLIC	?WRITE_HEADER@@3HA				; WRITE_HEADER
PUBLIC	?READ_HEADER@@3HA				; READ_HEADER
_BSS	SEGMENT
?INCLUDE_WEAPON_TYPES@@3HA DD 01H DUP (?)		; INCLUDE_WEAPON_TYPES
?WRITE_HEADER@@3HA DD 01H DUP (?)			; WRITE_HEADER
?READ_HEADER@@3HA DD 01H DUP (?)			; READ_HEADER
_BSS	ENDS
PUBLIC	___local_stdio_printf_options
PUBLIC	___local_stdio_scanf_options
PUBLIC	__vfprintf_l
PUBLIC	_fprintf
PUBLIC	__vfscanf_l
PUBLIC	_fscanf
PUBLIC	?strstr@@YAPADQADQBD@Z				; strstr
PUBLIC	_acosf
PUBLIC	_cosf
PUBLIC	?acos@@YGMM@Z					; acos
PUBLIC	?cos@@YGMM@Z					; cos
PUBLIC	?DumpGWutInfo@@YGXPBD@Z				; DumpGWutInfo
PUBLIC	?ReadGWutInfo@@YGXPBD@Z				; ReadGWutInfo
PUBLIC	?_OptionsStorage@?1??__local_stdio_printf_options@@9@4_KA ; `__local_stdio_printf_options'::`2'::_OptionsStorage
PUBLIC	?_OptionsStorage@?1??__local_stdio_scanf_options@@9@4_KA ; `__local_stdio_scanf_options'::`2'::_OptionsStorage
PUBLIC	??_C@_01NOFIACDB@w@				; `string'
PUBLIC	??_C@_04DBHEMPKL@GWUT@				; `string'
PUBLIC	??_C@_01EEMJAFIK@?6@				; `string'
PUBLIC	??_C@_0M@DKAFMAAL@?$FLAIRCRAFT?$FN?6@		; `string'
PUBLIC	??_C@_09LBCPNCLI@full_name@			; `string'
PUBLIC	??_C@_03CGNBMCEI@?$CFs?0@			; `string'
PUBLIC	??_C@_05BINPNAAL@force@				; `string'
PUBLIC	??_C@_0BL@LPABPCFJ@default_weapon_config_type@	; `string'
PUBLIC	??_C@_0BH@NHDBAFKJ@min_weapon_config_type@	; `string'
PUBLIC	??_C@_0BH@NDKLDEID@max_weapon_config_type@	; `string'
PUBLIC	??_C@_0BO@EGCLMAJK@air_to_air_weapon_config_type@ ; `string'
PUBLIC	??_C@_0CC@GMHHKJPN@air_to_surface_weapon_config_ty@ ; `string'
PUBLIC	??_C@_0BJ@IBOCPANC@scout_weapon_config_type@	; `string'
PUBLIC	??_C@_0BE@GAKPEDIG@default_weapon_type@		; `string'
PUBLIC	??_C@_0BD@KFEIDFO@target_symbol_type@		; `string'
PUBLIC	??_C@_0BF@CMHOELLN@target_priority_type@	; `string'
PUBLIC	??_C@_0BE@NPOJFGGJ@force_info_catagory@		; `string'
PUBLIC	??_C@_0M@CJJNFLM@threat_type@			; `string'
PUBLIC	??_C@_0CF@INDHHFLP@centre_of_gravity_to_ground_dis@ ; `string'
PUBLIC	??_C@_0CP@LIHEKIBI@centre_of_gravity_to_ground_dis@ ; `string'
PUBLIC	??_C@_0BI@KGGBNFKF@chase_view_min_distance@	; `string'
PUBLIC	??_C@_0BI@OGCOKNND@chase_view_max_distance@	; `string'
PUBLIC	??_C@_0BN@PIJDHCNC@chase_view_min_distance_test@ ; `string'
PUBLIC	??_C@_0BN@KLDFGKDG@chase_view_max_distance_test@ ; `string'
PUBLIC	??_C@_0BA@OLEKGHHO@cruise_velocity@		; `string'
PUBLIC	??_C@_0BA@IMJCDPMB@cruise_altitude@		; `string'
PUBLIC	??_C@_0BA@LAKKDKLB@attack_altitude@		; `string'
PUBLIC	??_C@_0BG@OGFMJPKK@destroyed_bank_offset@	; `string'
PUBLIC	??_C@_0BH@GKPMHBAM@destroyed_pitch_offset@	; `string'
PUBLIC	??_C@_0P@JKIIHMOB@fuselage_angle@		; `string'
PUBLIC	??_C@_0BB@CCPNGAIP@liftoff_velocity@		; `string'
PUBLIC	??_C@_0BH@LIPCLOFP@main_rotor_shaft_angle@	; `string'
PUBLIC	??_C@_0BF@CMAFDPJF@main_rotor_direction@	; `string'
PUBLIC	??_C@_0BN@LJAAFAJN@main_rotor_blade_droop_angle@ ; `string'
PUBLIC	??_C@_0BE@MNADIOKK@propellor_direction@		; `string'
PUBLIC	??_C@_0O@MJEOGANB@max_turn_rate@		; `string'
PUBLIC	??_C@_08OCBGELPM@max_roll@			; `string'
PUBLIC	??_C@_0BM@HPMEGNJI@max_vertical_turn_allowance@	; `string'
PUBLIC	??_C@_0BB@GBEPPNPB@avoidance_radius@		; `string'
PUBLIC	??_C@_05IGDAEEJD@g_max@				; `string'
PUBLIC	??_C@_0N@PKCIOEFJ@power_output@			; `string'
PUBLIC	??_C@_0BF@NIBNMMBC@tail_rotor_direction@	; `string'
PUBLIC	??_C@_0N@KPEEILEF@recon_radius@			; `string'
PUBLIC	??_C@_0BC@BBBJKKMK@target_scan_delay@		; `string'
PUBLIC	??_C@_0P@PICBLDJ@air_scan_range@		; `string'
PUBLIC	??_C@_0BD@DFEIMDEP@surface_scan_range@		; `string'
PUBLIC	??_C@_0BM@HBABFPLO@potential_air_to_air_threat@	; `string'
PUBLIC	??_C@_0CA@LKMEIEEE@potential_air_to_surface_threat@ ; `string'
PUBLIC	??_C@_0N@KDBGCMLI@ammo_economy@			; `string'
PUBLIC	??_C@_0BE@EILOBNPM@fuel_default_weight@		; `string'
PUBLIC	??_C@_0N@IFIFOLKE@fuel_economy@			; `string'
PUBLIC	??_C@_0BG@OILIBHNK@number_of_main_rotors@	; `string'
PUBLIC	??_C@_0BC@DKOOLAJE@main_rotor_radius@		; `string'
PUBLIC	??_C@_0BF@JPIPGBMH@initial_damage_level@	; `string'
PUBLIC	??_C@_0BC@IPAJHBFC@explosive_quality@		; `string'
PUBLIC	??_C@_0BA@IMMJCANI@explosive_power@		; `string'
PUBLIC	??_C@_0BF@OPPGPJDA@offensive_capability@	; `string'
PUBLIC	??_C@_0BE@LJBAGENL@player_controllable@		; `string'
PUBLIC	??_C@_0N@OMGKPKMJ@points_value@			; `string'
PUBLIC	??_C@_03OFAPEBGM@?$CFs?6@			; `string'
PUBLIC	??_C@_03DPLIHHLN@?$CFd?0@			; `string'
PUBLIC	??_C@_0P@IDGCIBNB@?5?0?5?0?5?0?5?0?5?0?5?0?5?0@	; `string'
PUBLIC	??_C@_03DNPOMJOE@?$CFg?0@			; `string'
PUBLIC	??_C@_03PMGGPEJJ@?$CFd?6@			; `string'
PUBLIC	??_C@_0M@KIJKODCH@?$FLVEHICLES?$FN?6@		; `string'
PUBLIC	??_C@_0M@NDGIMNEF@target_type@			; `string'
PUBLIC	??_C@_0BH@PFMMOFND@carries_smoke_grenades@	; `string'
PUBLIC	??_C@_0M@EIBFPEPD@axle_length@			; `string'
PUBLIC	??_C@_0BB@GCPDPIAG@max_acceleration@		; `string'
PUBLIC	??_C@_0P@NMHJCNEO@air_scan_floor@		; `string'
PUBLIC	??_C@_0BB@IIEJPLCJ@air_scan_ceiling@		; `string'
PUBLIC	??_C@_0CA@FPEGBEK@potential_surface_to_air_threat@ ; `string'
PUBLIC	??_C@_0CE@KDJGGNPD@potential_surface_to_surface_th@ ; `string'
PUBLIC	??_C@_0N@OGAPEKED@armour_front@			; `string'
PUBLIC	??_C@_0M@PLMHAJCM@armour_side@			; `string'
PUBLIC	??_C@_0M@IPDJNJFJ@armour_rear@			; `string'
PUBLIC	??_C@_0BI@LIMIOFIN@warhead_effective_class@	; `string'
PUBLIC	??_C@_0P@JLMIAFOO@?$CFs?5Unarmed?5US?0@		; `string'
PUBLIC	??_C@_0BA@DJFAOHC@?$CFs?5Standing?5US?0@	; `string'
PUBLIC	??_C@_0BA@PIFPFEDF@?$CFs?5Kneeling?5US?0@	; `string'
PUBLIC	??_C@_0BA@PBLBJGGA@?$CFs?5Unarmed?5CIS?0@	; `string'
PUBLIC	??_C@_0BB@IJABEAE@?$CFs?5Standing?5CIS?0@	; `string'
PUBLIC	??_C@_0BB@OANDAKGN@?$CFs?5Kneeling?5CIS?0@	; `string'
PUBLIC	??_C@_0M@OMHFOILL@?$CFs?5Covered?0@		; `string'
PUBLIC	??_C@_08EMKOFBJB@?$CFs?5Open?0@			; `string'
PUBLIC	??_C@_08KAFEPAPG@?5?0?5?0?5?0?5?0@		; `string'
PUBLIC	??_C@_0L@JIDGEPHK@?$FLWEAPONS?$FN?6@		; `string'
PUBLIC	??_C@_0O@LDNBMKIO@guidance_type@		; `string'
PUBLIC	??_C@_0M@OICLCNBO@aiming_type@			; `string'
PUBLIC	??_C@_0L@PNKIBKJK@decoy_type@			; `string'
PUBLIC	??_C@_0N@DOAPKEMB@warhead_type@			; `string'
PUBLIC	??_C@_0BG@MFIFEALF@report_ammo_low_count@	; `string'
PUBLIC	??_C@_09HOOAENGL@gun_shake@			; `string'
PUBLIC	??_C@_0BH@JCEFMAHM@soft_damage_capability@	; `string'
PUBLIC	??_C@_0BH@JHACPNNJ@hard_damage_capability@	; `string'
PUBLIC	??_C@_0BB@GGHOFCFK@smoke_trail_type@		; `string'
PUBLIC	??_C@_0CA@BGMLJGNH@acquire_parent_forward_velocity@ ; `string'
PUBLIC	??_C@_0P@JIAABPMB@ignore_gravity@		; `string'
PUBLIC	??_C@_0BG@PAFLPEOM@survive_ground_impact@	; `string'
PUBLIC	??_C@_0BK@JGEFAOLG@in_flight_collision_check@	; `string'
PUBLIC	??_C@_0BA@IIAOCNLL@viewable_weapon@		; `string'
PUBLIC	??_C@_0BB@KOPLBPAJ@boresight_weapon@		; `string'
PUBLIC	??_C@_0BI@KGIEMPFM@hellfire_flight_profile@	; `string'
PUBLIC	??_C@_0BI@BDOGIFDO@weapon_class_air_to_air@	; `string'
PUBLIC	??_C@_0BM@CCIDHLLB@weapon_class_air_to_surface@	; `string'
PUBLIC	??_C@_0BM@GGOBIAKP@weapon_class_surface_to_air@	; `string'
PUBLIC	??_C@_0CA@EOJKCMOP@weapon_class_surface_to_surface@ ; `string'
PUBLIC	??_C@_0BD@BDAAKCNH@weapon_class_decoy@		; `string'
PUBLIC	??_C@_0BD@BKLOADK@weapon_class_cargo@		; `string'
PUBLIC	??_C@_0BE@JPIDGIGC@weapon_class_debris@		; `string'
PUBLIC	??_C@_06CMCBKMCB@weight@			; `string'
PUBLIC	??_C@_09LEADDECB@min_range@			; `string'
PUBLIC	??_C@_09LFAPKOJF@max_range@			; `string'
PUBLIC	??_C@_0BA@MJOCNFFF@effective_range@		; `string'
PUBLIC	??_C@_0P@EDAFPOCA@min_range_loal@		; `string'
PUBLIC	??_C@_0P@GELOJJBB@max_range_loal@		; `string'
PUBLIC	??_C@_0BG@HFMCPOCL@max_range_error_ratio@	; `string'
PUBLIC	??_C@_0BA@HBBMJCKA@muzzle_velocity@		; `string'
PUBLIC	??_C@_0BK@EGMAGNBE@muzzle_velocity_max_error@	; `string'
PUBLIC	??_C@_09KJIOOHDO@burn_time@			; `string'
PUBLIC	??_C@_0M@IJHIGDHN@cruise_time@			; `string'
PUBLIC	??_C@_0BG@GOJCGEML@cruise_time_max_error@	; `string'
PUBLIC	??_C@_0N@DFFMOLKF@inhibit_time@			; `string'
PUBLIC	??_C@_0P@IMCJNFCO@burst_duration@		; `string'
PUBLIC	??_C@_0N@EONMFIGF@rate_of_fire@			; `string'
PUBLIC	??_C@_0M@KJEAPNOM@reload_time@			; `string'
PUBLIC	??_C@_0BH@BJIJPPLG@max_launch_angle_error@	; `string'
PUBLIC	??_C@_0BB@MEHCDDGB@max_seeker_limit@		; `string'
PUBLIC	??_C@_0M@MMJCOPID@drag_factor@			; `string'
PUBLIC	??_C@_0BC@KLAAKNAP@spiral_flightpath@		; `string'
PUBLIC	??_C@_02DPKJAMEF@?$CFd@				; `string'
PUBLIC	??_C@_0M@NAMNMOIC@?$FLKEYSITES?$FN?6@		; `string'
PUBLIC	??_C@_0BC@COIJDJHI@ammo_supply_level@		; `string'
PUBLIC	??_C@_0BC@FMIIBAMJ@fuel_supply_level@		; `string'
PUBLIC	??_C@_0L@KEGEKCCP@importance@			; `string'
PUBLIC	??_C@_0BD@NBOKJPKH@minimum_efficiency@		; `string'
PUBLIC	??_C@_0BC@ILHHLDFC@importance_radius@		; `string'
PUBLIC	??_C@_0BE@HMOICOIG@air_coverage_radius@		; `string'
PUBLIC	??_C@_0P@IDGCIJHM@recon_distance@		; `string'
PUBLIC	??_C@_0BG@LKBBPNNG@sector_side_max_value@	; `string'
PUBLIC	??_C@_0BD@DCEABLMI@align_with_terrain@		; `string'
PUBLIC	??_C@_0BF@IMNGHFEI@hidden_by_fog_of_war@	; `string'
PUBLIC	??_C@_0BD@EFMJJBFC@air_force_capacity@		; `string'
PUBLIC	??_C@_0BC@GLNILKF@report_ammo_level@		; `string'
PUBLIC	??_C@_0BC@COKIPKMB@report_fuel_level@		; `string'
PUBLIC	??_C@_0BC@BHEOLLGL@assign_task_count@		; `string'
PUBLIC	??_C@_0BD@JONLMBPK@reserve_task_count@		; `string'
PUBLIC	??_C@_0N@KGJMNGM@requires_cap@			; `string'
PUBLIC	??_C@_0BA@JIPJJKGJ@requires_barcap@		; `string'
PUBLIC	??_C@_0L@NNOEGAMK@repairable@			; `string'
PUBLIC	??_C@_0L@FBLJAGPI@oca_target@			; `string'
PUBLIC	??_C@_0N@JAIMJONJ@recon_target@			; `string'
PUBLIC	??_C@_0BF@PGGFEFGM@ground_strike_target@	; `string'
PUBLIC	??_C@_0BD@FOKMDMIB@ship_strike_target@		; `string'
PUBLIC	??_C@_0BH@CJMKLCMJ@troop_insertion_target@	; `string'
PUBLIC	??_C@_0BD@JNFEJGLN@campaign_objective@		; `string'
PUBLIC	??_C@_09GBFBNGHJ@?$FLGROUPS?$FN?6@		; `string'
PUBLIC	??_C@_0P@BCLPCKM@group_category@		; `string'
PUBLIC	??_C@_0BD@FLDLBCPM@registry_list_type@		; `string'
PUBLIC	??_C@_0BA@GBJNKDPI@group_list_type@		; `string'
PUBLIC	??_C@_0O@JCHJIBFM@movement_type@		; `string'
PUBLIC	??_C@_0BF@OLMMGMAM@default_landing_type@	; `string'
PUBLIC	??_C@_0BE@OBOBIGBK@default_entity_type@		; `string'
PUBLIC	??_C@_0BM@KLLIJLIO@default_blue_force_sub_type@	; `string'
PUBLIC	??_C@_0BL@JDKOPMF@default_red_force_sub_type@	; `string'
PUBLIC	??_C@_0BI@COFDFHKL@default_group_formation@	; `string'
PUBLIC	??_C@_0BH@GPNCCHHF@default_group_division@	; `string'
PUBLIC	??_C@_0BM@GEDHBNEF@maximum_groups_per_division@	; `string'
PUBLIC	??_C@_0O@JDKIKICA@rearming_time@		; `string'
PUBLIC	??_C@_0P@DLPFKFCE@frontline_flag@		; `string'
PUBLIC	??_C@_0BB@KHAFLDIA@local_only_group@		; `string'
PUBLIC	??_C@_0BF@OKHKAOBE@default_engage_enemy@	; `string'
PUBLIC	??_C@_0L@MJJEHKFI@amalgamate@			; `string'
PUBLIC	??_C@_0BA@EAMCIPPF@platoon_id_type@		; `string'
PUBLIC	??_C@_0BF@JFFLMA@maximum_member_count@		; `string'
PUBLIC	??_C@_0BD@KDACILON@minimum_idle_count@		; `string'
PUBLIC	??_C@_0BA@EMGGLJKG@resupply_source@		; `string'
PUBLIC	??_C@_0BH@FCHAANCE@ai_air_attack_strength@	; `string'
PUBLIC	??_C@_0BK@MHOPBBGP@ai_ground_attack_strength@	; `string'
PUBLIC	??_C@_0BC@PILNPBAP@ai_movement_speed@		; `string'
PUBLIC	??_C@_0BE@HHIFKNOH@ai_movement_stealth@		; `string'
PUBLIC	??_C@_0P@KCADHAOC@ai_cargo_space@		; `string'
PUBLIC	??_C@_0P@CBIEFNJM@ai_troop_space@		; `string'
PUBLIC	??_C@_08OOLPMJMC@Infantry@			; `string'
PUBLIC	??_C@_08JNCEGBEK@?$CIstatic?$CJ@		; `string'
PUBLIC	??_C@_06ELALIEHK@?$CFs?5?$CFs?0@		; `string'
PUBLIC	??_C@_07OPIBMAFN@?$CIgroup?$CJ@			; `string'
PUBLIC	??_C@_08NECBKLKJ@?$CIpatrol?$CJ@		; `string'
PUBLIC	??_C@_08DIOLFBCP@?$FLTASKS?$FN?6@		; `string'
PUBLIC	??_C@_0O@LOLCGDBM@task_category@		; `string'
PUBLIC	??_C@_0O@PHLPMOJE@task_priority@		; `string'
PUBLIC	??_C@_0BC@KOCHPEJA@difficulty_rating@		; `string'
PUBLIC	??_C@_0BK@MIANEGBE@task_default_target_class@	; `string'
PUBLIC	??_C@_0BL@NCCIFNOO@task_default_target_source@	; `string'
PUBLIC	??_C@_0BJ@KHGACEBL@task_default_target_type@	; `string'
PUBLIC	??_C@_0BE@PINIPHCI@task_objective_info@		; `string'
PUBLIC	??_C@_0BF@BDNALNGL@minimum_member_count@	; `string'
PUBLIC	??_C@_0BE@GBJCPEJB@rules_of_engagement@		; `string'
PUBLIC	??_C@_0N@NMFLJCAH@engage_enemy@			; `string'
PUBLIC	??_C@_0BK@JKFOCKDD@escort_required_threshold@	; `string'
PUBLIC	??_C@_0BD@GELBBEHP@add_start_waypoint@		; `string'
PUBLIC	??_C@_0N@PDLNGDDD@primary_task@			; `string'
PUBLIC	??_C@_09NKMFGGLB@solo_task@			; `string'
PUBLIC	??_C@_0BA@PFCBFGIE@persistent_task@		; `string'
PUBLIC	??_C@_0N@JLKCCAEP@visible_task@			; `string'
PUBLIC	??_C@_0BL@CFEDIIIK@keysite_air_force_capacity@	; `string'
PUBLIC	??_C@_0P@PPGPJFNA@assess_landing@		; `string'
PUBLIC	??_C@_0BC@NILPEGCL@task_route_search@		; `string'
PUBLIC	??_C@_0BA@BNGCDKAC@perform_debrief@		; `string'
PUBLIC	??_C@_0BG@JEGIBEA@delay_task_assignment@	; `string'
PUBLIC	??_C@_0BH@KFAJDPKI@task_objective_preview@	; `string'
PUBLIC	??_C@_0BK@DJIBFJGN@counts_towards_player_log@	; `string'
PUBLIC	??_C@_0BC@EJCHKHJJ@wait_for_end_task@		; `string'
PUBLIC	??_C@_0BG@GIDFMNAL@player_reserve_factor@	; `string'
PUBLIC	??_C@_0BN@BIKJLLEJ@task_pass_percentage_partial@ ; `string'
PUBLIC	??_C@_0BN@IHNDFIOD@task_pass_percentage_success@ ; `string'
PUBLIC	??_C@_0BF@BPHOJLMP@task_completed_score@	; `string'
PUBLIC	??_C@_0BH@FJKBKNH@landing_type_fixedwing@	; `string'
PUBLIC	??_C@_0BO@LKIKKLFB@landing_type_fixedw_transport@ ; `string'
PUBLIC	??_C@_0BI@JAIACDLN@landing_type_helicopter@	; `string'
PUBLIC	??_C@_0BE@NIFAGE@landing_type_ground@		; `string'
PUBLIC	??_C@_0BE@JBDDNFBK@landing_type_people@		; `string'
PUBLIC	??_C@_0BB@FPDPBDJE@landing_type_sea@		; `string'
PUBLIC	??_C@_0N@OIGCLPCO@?$FLWAYPOINTS?$FN?6@		; `string'
PUBLIC	??_C@_0BK@IBOMPAFN@verbose_operational_state@	; `string'
PUBLIC	??_C@_0BO@BPGDDJNL@mobile_follow_waypoint_offset@ ; `string'
PUBLIC	??_C@_0BI@GACMBDBB@waypoint_action_message@	; `string'
PUBLIC	??_C@_0BJ@GLEIPLPL@waypoint_reached_message@	; `string'
PUBLIC	??_C@_0BO@OFCJNKJF@waypoint_reached_return_value@ ; `string'
PUBLIC	??_C@_0BB@MFKNECBC@planner_moveable@		; `string'
PUBLIC	??_C@_0BD@MICANFGD@objective_waypoint@		; `string'
PUBLIC	??_C@_0BF@DAGIKPNA@player_skip_waypoint@	; `string'
PUBLIC	??_C@_0BG@NJPOIMLE@check_waypoint_action@	; `string'
PUBLIC	??_C@_0P@MOAANCBG@guide_sub_type@		; `string'
PUBLIC	??_C@_0CG@IDAFLCKN@fw_minimum_previous_waypoint_di@ ; `string'
PUBLIC	??_C@_0BB@EINBFIKI@fw_action_radius@		; `string'
PUBLIC	??_C@_0BC@MNHABDKH@fw_reached_radius@		; `string'
PUBLIC	??_C@_0M@EHPMFCHE@fw_velocity@			; `string'
PUBLIC	??_C@_0BK@LBENMCD@fw_criteria_last_to_reach@	; `string'
PUBLIC	??_C@_0BL@DKBDBFHG@fw_criteria_transmit_recon@	; `string'
PUBLIC	??_C@_0BB@NHAILGCL@fw_position_type@		; `string'
PUBLIC	??_C@_0BB@KGHCIFOD@fw_movement_type@		; `string'
PUBLIC	??_C@_0CG@KDNLECPH@hc_minimum_previous_waypoint_di@ ; `string'
PUBLIC	??_C@_0BB@DLODNCCH@hc_action_radius@		; `string'
PUBLIC	??_C@_0BC@LAAELPJM@hc_reached_radius@		; `string'
PUBLIC	??_C@_0M@LAOCDGCD@hc_velocity@			; `string'
PUBLIC	??_C@_0BK@MCEJEBLL@hc_criteria_last_to_reach@	; `string'
PUBLIC	??_C@_0BL@MEAOFDJN@hc_criteria_transmit_recon@	; `string'
PUBLIC	??_C@_0BB@KEDKDMKE@hc_position_type@		; `string'
PUBLIC	??_C@_0BB@NFEAAPGM@hc_movement_type@		; `string'
PUBLIC	??_C@_0CG@ONPHKLJE@rv_minimum_previous_waypoint_di@ ; `string'
PUBLIC	??_C@_0BB@ICOAHHIL@rv_action_radius@		; `string'
PUBLIC	??_C@_0BC@GPNNFDPK@rv_reached_radius@		; `string'
PUBLIC	??_C@_0M@IJGMFLDH@rv_velocity@			; `string'
PUBLIC	??_C@_0BK@COFJIBIL@rv_criteria_last_to_reach@	; `string'
PUBLIC	??_C@_0BL@OCDLHDPB@rv_criteria_transmit_recon@	; `string'
PUBLIC	??_C@_0BB@BNDJJJAI@rv_position_type@		; `string'
PUBLIC	??_C@_0BB@GMEDKKMA@rv_movement_type@		; `string'
PUBLIC	??_C@_0CG@GKCHNJHF@sh_minimum_previous_waypoint_di@ ; `string'
PUBLIC	??_C@_0BB@MDODHEPN@sh_action_radius@		; `string'
PUBLIC	??_C@_0BC@NGPKIEPA@sh_reached_radius@		; `string'
PUBLIC	??_C@_0M@OOEJPIJF@sh_velocity@			; `string'
PUBLIC	??_C@_0BK@NGIDPPGD@sh_criteria_last_to_reach@	; `string'
PUBLIC	??_C@_0BL@EMBCMDMF@sh_criteria_transmit_recon@	; `string'
PUBLIC	??_C@_0BB@FMDKJKHO@sh_position_type@		; `string'
PUBLIC	??_C@_0BB@CNEAKJLG@sh_movement_type@		; `string'
PUBLIC	??_C@_0BC@IMGFEMAB@?$FLGUIDE?5CRITERIA?$FN?6@	; `string'
PUBLIC	??_C@_0L@GKOAHKMI@evade_fire@			; `string'
PUBLIC	??_C@_0BB@MIINBMP@follow_formation@		; `string'
PUBLIC	??_C@_0O@ODADLCJE@position_type@		; `string'
PUBLIC	??_C@_0BE@GPEOGHOC@terrain_follow_mode@		; `string'
PUBLIC	??_C@_0N@OEGNPOAB@Radius_valid@			; `string'
PUBLIC	??_C@_0N@OIEKJFFE@Radius_value@			; `string'
PUBLIC	??_C@_0O@OECMCAIJ@Heading_valid@		; `string'
PUBLIC	??_C@_0O@OIALELNM@Heading_value@		; `string'
PUBLIC	??_C@_0P@GOHOCMBA@Altitude_valid@		; `string'
PUBLIC	??_C@_0P@GCFJEHEF@Altitude_value@		; `string'
PUBLIC	??_C@_0BE@HBAFGJOD@Transmit_Data_valid@		; `string'
PUBLIC	??_C@_0BE@HNCCACLG@Transmit_Data_value@		; `string'
PUBLIC	??_C@_0BE@BKOIBMOJ@Last_To_Reach_valid@		; `string'
PUBLIC	??_C@_0BE@BGMPHHLM@Last_To_Reach_value@		; `string'
PUBLIC	??_C@_0BE@ENHEGHOJ@Weapon_Vector_valid@		; `string'
PUBLIC	??_C@_0BE@EBFDAMLM@Weapon_Vector_value@		; `string'
PUBLIC	??_C@_0BC@GIMAOECP@Navigation_Direct@		; `string'
PUBLIC	??_C@_03OMLJOFL@?0?$CFs@			; `string'
PUBLIC	??_C@_0BD@GOHADIKK@Navigation_Virtual@		; `string'
PUBLIC	??_C@_0BC@KOFNCMMP@Navigation_Routed@		; `string'
PUBLIC	??_C@_0BE@JODGBIEP@Navigation_Altitude@		; `string'
PUBLIC	??_C@_0P@CIJFCCND@Landing_Direct@		; `string'
PUBLIC	??_C@_06PPFLONGD@Landed@			; `string'
PUBLIC	??_C@_0BD@IFIHKDND@Attack_AA_Move_Six@		; `string'
PUBLIC	??_C@_0BG@CEIDADGB@Attack_AA_Move_Circle@	; `string'
PUBLIC	??_C@_0BJ@IDDMCDNB@Attack_AA_Fire_Intercept@	; `string'
PUBLIC	??_C@_0BD@OPMIKBDB@Attack_AG_Approach@		; `string'
PUBLIC	??_C@_0BF@BBBGLPOB@Attack_AG_Seek_Cover@	; `string'
PUBLIC	??_C@_0BH@KLFBGBHB@Attack_AG_Fly_To_Cover@	; `string'
PUBLIC	??_C@_0BF@OMIOMDLI@Attack_AG_Take_Cover@	; `string'
PUBLIC	??_C@_0BA@OADKGPHF@Attack_AG_Climb@		; `string'
PUBLIC	??_C@_0P@BGGHCJBJ@Attack_AG_Dive@		; `string'
PUBLIC	??_C@_0P@GLKONCKF@Attack_AG_Fire@		; `string'
PUBLIC	??_C@_0BH@KFINIPEB@Attack_AG_Fire_Virtual@	; `string'
PUBLIC	??_C@_0BE@GGEOGEAH@Attack_AG_Disengage@		; `string'
PUBLIC	??_C@_0BM@OAJEMKBJ@Attack_AG_Disengage_Virtual@	; `string'
PUBLIC	??_C@_0BB@OCOKBHCL@Attack_AG_Egress@		; `string'
PUBLIC	??_C@_0BF@OPFDLBPB@Attack_AG_Hasty_Fire@	; `string'
PUBLIC	??_C@_0BL@DHDDPJOC@Attack_AG_Hasty_Take_Cover@	; `string'
PUBLIC	??_C@_03LEIBKMN@?0?$CFd@			; `string'
PUBLIC	??_C@_03CAGFEJAO@?0?$CFg@			; `string'
PUBLIC	??_C@_07DOLECJID@?$FLAMMO?$FN?6@		; `string'
PUBLIC	??_C@_0GI@MJEEBEGA@Aircraft?5?2?5Vehicle?0min?5weapon?5c@ ; `string'
PUBLIC	??_C@_0JN@FJNLEFNG@weapon?0ammo?0weapon?0ammo?0weapon?0@ ; `string'
PUBLIC	??_C@_08BCFLBFEP@?$FLRADAR?$FN?6@		; `string'
PUBLIC	??_C@_0FA@NEPEELBH@Aircraft?0Radar?5Range?51?0Radar?5Ra@ ; `string'
PUBLIC	??_C@_0CF@JFLFJHDL@0?0Comanche?0?$CF?40f?0?$CF?40f?0?$CF?40f?0?$CF?40f?0@ ; `string'
PUBLIC	??_C@_0CD@KIJNGCJE@1?0Apache?0?$CF?40f?0?$CF?40f?0?$CF?40f?0?$CF?40f?0?$CF?4@ ; `string'
PUBLIC	??_C@_0CH@LHBHJIMP@2?0Black?5Hawk?0?$CF?40f?0?$CF?40f?0?$CF?40f?0?$CF?40@ ; `string'
PUBLIC	??_C@_0CC@FOBOEEHP@3?0Hokum?0?$CF?40f?0?$CF?40f?0?$CF?40f?0?$CF?40f?0?$CF?40@ ; `string'
PUBLIC	??_C@_0BN@IKIJOFML@4?0Havoc?0?$CF?40f?0?$CF?40f?0?$CF?40f?0?$CF?40f?6@ ; `string'
PUBLIC	??_C@_0BM@BOJEHICG@5?0Hind?0?$CF?40f?0?$CF?40f?0?$CF?40f?0?$CF?40f?6@ ; `string'
PUBLIC	??_C@_0BM@MDAGHBHJ@?$FLWEAPON?5TYPES?5CONFIG?5INFO?$FN?6@ ; `string'
PUBLIC	??_C@_0BG@OFIPCFPM@weapon?5config?5type?5nr@	; `string'
PUBLIC	??_C@_0N@ENDKFCNC@carrier?5name@		; `string'
PUBLIC	??_C@_0M@BDAONJEI@weapon?5name@			; `string'
PUBLIC	??_C@_09MOOPJLEO@weapon?5nr@			; `string'
PUBLIC	??_C@_06JACIFLFI@?$CFd?0?$CFs?0@		; `string'
PUBLIC	??_C@_06IJEBOOKN@?$CFd?0?$CFd?0@		; `string'
PUBLIC	??_C@_02NODKCLPH@0?6@				; `string'
PUBLIC	??_C@_0BE@MJKAALHL@?$FLEnd?5of?5GWUT?5file?$FN?6@ ; `string'
PUBLIC	??_C@_0N@NEEIEGPN@dumpgwut?4txt@		; `string'
PUBLIC	??_C@_0BC@KOCDPDLA@Dumping?5file?3?5?$CFs?6@	; `string'
PUBLIC	??_C@_01KDCPPGHE@r@				; `string'
PUBLIC	??_C@_0CA@POJFLOKO@Error?5opening?5GWUT?5file?3?5?$FL?5?$CFs?5?$FN@ ; `string'
PUBLIC	??_C@_06OPEKAKCJ@?$CF?$FL?$FO?6?$FN?6@		; `string'
PUBLIC	??_C@_0CG@GNDAFGFP@GWUT?5file?5?$CFs?5has?5the?5wrong?5head@ ; `string'
PUBLIC	??_C@_0L@BNOJJLLD@?$FLVEHICLES?$FN@		; `string'
PUBLIC	??_C@_0BD@EMPOBEGN@?$FLEnd?5of?5GWUT?5file?$FN@	; `string'
PUBLIC	??_C@_01IHBHIGKO@?0@				; `string'
PUBLIC	??_C@_09ELKCPFM@?$FLWEAPONS?$FN@		; `string'
PUBLIC	??_C@_06IPGPIAII@?$CFd?5?$CFd?6@		; `string'
PUBLIC	??_C@_0L@ENANJMPL@?$FLKEYSITES?$FN@		; `string'
PUBLIC	??_C@_08NKPMEDMA@?$FLGROUPS?$FN@		; `string'
PUBLIC	??_C@_07NDEGACLM@?$FLTASKS?$FN@			; `string'
PUBLIC	??_C@_0M@DKLOPEFJ@?$FLWAYPOINTS?$FN@		; `string'
PUBLIC	??_C@_0BB@FGOFBLEA@?$FLGUIDE?5CRITERIA?$FN@	; `string'
PUBLIC	??_C@_06DKILLBPJ@?$FLAMMO?$FN@			; `string'
PUBLIC	??_C@_07MCJPGEH@?$FLRADAR?$FN@			; `string'
PUBLIC	__real@0000000000000000
PUBLIC	__real@3c8efa35
PUBLIC	__real@3f847ae147ae147b
PUBLIC	__real@3f91df46a0000000
PUBLIC	__real@3fd0000000000000
PUBLIC	__real@3ff0000000000000
PUBLIC	__real@4000000000000000
PUBLIC	__real@42652ee0
PUBLIC	__xmm@41f00000000000000000000000000000
EXTRN	__imp__fclose:PROC
EXTRN	__imp__feof:PROC
EXTRN	__imp__fflush:PROC
EXTRN	__imp__fopen:PROC
EXTRN	__imp__fputs:PROC
EXTRN	__imp____stdio_common_vfprintf:PROC
EXTRN	__imp____stdio_common_vfscanf:PROC
EXTRN	__imp__atof:PROC
EXTRN	__imp__atoi:PROC
EXTRN	_strstr:PROC
EXTRN	_strcmp:PROC
EXTRN	__imp__strtok:PROC
EXTRN	_acos:PROC
EXTRN	_cos:PROC
EXTRN	_exp:PROC
EXTRN	_log:PROC
EXTRN	?debug_fatal@@YAXPBDZZ:PROC			; debug_fatal
EXTRN	?weapon_database@@3PAUWEAPON_DATA@@A:BYTE	; weapon_database
EXTRN	?weapon_config_database@@3PAY0CA@UWEAPON_PACKAGE@@A:BYTE ; weapon_config_database
EXTRN	?aircraft_database@@3PAUAIRCRAFT_DATA@@A:BYTE	; aircraft_database
EXTRN	?vehicle_database@@3PAUVEHICLE_DATA@@A:BYTE	; vehicle_database
EXTRN	?group_database@@3PAUGROUP_DATA@@A:BYTE		; group_database
EXTRN	?guide_database@@3PAUGUIDE_DATA@@A:BYTE		; guide_database
EXTRN	?keysite_database@@3PAUKEYSITE_DATA@@A:BYTE	; keysite_database
EXTRN	?task_database@@3PAUTASK_DATA@@A:BYTE		; task_database
EXTRN	?waypoint_database@@3PAUWAYPOINT_DATA@@A:BYTE	; waypoint_database
EXTRN	?radar_range_apache@@3PAMA:BYTE			; radar_range_apache
EXTRN	?radar_range_comanche@@3PAMA:BYTE		; radar_range_comanche
EXTRN	?radar_range_havoc@@3PAMA:BYTE			; radar_range_havoc
EXTRN	?radar_range_hokum@@3PAMA:BYTE			; radar_range_hokum
EXTRN	?radar_range_blackhawk@@3PAMA:BYTE		; radar_range_blackhawk
EXTRN	?radar_range_hind@@3PAMA:BYTE			; radar_range_hind
EXTRN	__fltused:DWORD
;	COMDAT ?_OptionsStorage@?1??__local_stdio_printf_options@@9@4_KA
_BSS	SEGMENT
?_OptionsStorage@?1??__local_stdio_printf_options@@9@4_KA DQ 01H DUP (?) ; `__local_stdio_printf_options'::`2'::_OptionsStorage
_BSS	ENDS
;	COMDAT ?_OptionsStorage@?1??__local_stdio_scanf_options@@9@4_KA
_BSS	SEGMENT
?_OptionsStorage@?1??__local_stdio_scanf_options@@9@4_KA DQ 01H DUP (?) ; `__local_stdio_scanf_options'::`2'::_OptionsStorage
_BSS	ENDS
;	COMDAT __xmm@41f00000000000000000000000000000
CONST	SEGMENT
__xmm@41f00000000000000000000000000000 DB 00H, 00H, 00H, 00H, 00H, 00H, 00H
	DB	00H, 00H, 00H, 00H, 00H, 00H, 00H, 0f0H, 'A'
CONST	ENDS
;	COMDAT __real@42652ee0
CONST	SEGMENT
__real@42652ee0 DD 042652ee0r			; 57.2958
CONST	ENDS
;	COMDAT __real@4000000000000000
CONST	SEGMENT
__real@4000000000000000 DQ 04000000000000000r	; 2
CONST	ENDS
;	COMDAT __real@3ff0000000000000
CONST	SEGMENT
__real@3ff0000000000000 DQ 03ff0000000000000r	; 1
CONST	ENDS
;	COMDAT __real@3fd0000000000000
CONST	SEGMENT
__real@3fd0000000000000 DQ 03fd0000000000000r	; 0.25
CONST	ENDS
;	COMDAT __real@3f91df46a0000000
CONST	SEGMENT
__real@3f91df46a0000000 DQ 03f91df46a0000000r	; 0.0174533
CONST	ENDS
;	COMDAT __real@3f847ae147ae147b
CONST	SEGMENT
__real@3f847ae147ae147b DQ 03f847ae147ae147br	; 0.01
CONST	ENDS
;	COMDAT __real@3c8efa35
CONST	SEGMENT
__real@3c8efa35 DD 03c8efa35r			; 0.0174533
CONST	ENDS
;	COMDAT __real@0000000000000000
CONST	SEGMENT
__real@0000000000000000 DQ 00000000000000000r	; 0
CONST	ENDS
;	COMDAT ??_C@_07MCJPGEH@?$FLRADAR?$FN@
CONST	SEGMENT
??_C@_07MCJPGEH@?$FLRADAR?$FN@ DB '[RADAR]', 00H	; `string'
CONST	ENDS
;	COMDAT ??_C@_06DKILLBPJ@?$FLAMMO?$FN@
CONST	SEGMENT
??_C@_06DKILLBPJ@?$FLAMMO?$FN@ DB '[AMMO]', 00H		; `string'
CONST	ENDS
;	COMDAT ??_C@_0BB@FGOFBLEA@?$FLGUIDE?5CRITERIA?$FN@
CONST	SEGMENT
??_C@_0BB@FGOFBLEA@?$FLGUIDE?5CRITERIA?$FN@ DB '[GUIDE CRITERIA]', 00H ; `string'
CONST	ENDS
;	COMDAT ??_C@_0M@DKLOPEFJ@?$FLWAYPOINTS?$FN@
CONST	SEGMENT
??_C@_0M@DKLOPEFJ@?$FLWAYPOINTS?$FN@ DB '[WAYPOINTS]', 00H ; `string'
CONST	ENDS
;	COMDAT ??_C@_07NDEGACLM@?$FLTASKS?$FN@
CONST	SEGMENT
??_C@_07NDEGACLM@?$FLTASKS?$FN@ DB '[TASKS]', 00H	; `string'
CONST	ENDS
;	COMDAT ??_C@_08NKPMEDMA@?$FLGROUPS?$FN@
CONST	SEGMENT
??_C@_08NKPMEDMA@?$FLGROUPS?$FN@ DB '[GROUPS]', 00H	; `string'
CONST	ENDS
;	COMDAT ??_C@_0L@ENANJMPL@?$FLKEYSITES?$FN@
CONST	SEGMENT
??_C@_0L@ENANJMPL@?$FLKEYSITES?$FN@ DB '[KEYSITES]', 00H ; `string'
CONST	ENDS
;	COMDAT ??_C@_06IPGPIAII@?$CFd?5?$CFd?6@
CONST	SEGMENT
??_C@_06IPGPIAII@?$CFd?5?$CFd?6@ DB '%d %d', 0aH, 00H	; `string'
CONST	ENDS
;	COMDAT ??_C@_09ELKCPFM@?$FLWEAPONS?$FN@
CONST	SEGMENT
??_C@_09ELKCPFM@?$FLWEAPONS?$FN@ DB '[WEAPONS]', 00H	; `string'
CONST	ENDS
;	COMDAT ??_C@_01IHBHIGKO@?0@
CONST	SEGMENT
??_C@_01IHBHIGKO@?0@ DB ',', 00H			; `string'
CONST	ENDS
;	COMDAT ??_C@_0BD@EMPOBEGN@?$FLEnd?5of?5GWUT?5file?$FN@
CONST	SEGMENT
??_C@_0BD@EMPOBEGN@?$FLEnd?5of?5GWUT?5file?$FN@ DB '[End of GWUT file]', 00H ; `string'
CONST	ENDS
;	COMDAT ??_C@_0L@BNOJJLLD@?$FLVEHICLES?$FN@
CONST	SEGMENT
??_C@_0L@BNOJJLLD@?$FLVEHICLES?$FN@ DB '[VEHICLES]', 00H ; `string'
CONST	ENDS
;	COMDAT ??_C@_0CG@GNDAFGFP@GWUT?5file?5?$CFs?5has?5the?5wrong?5head@
CONST	SEGMENT
??_C@_0CG@GNDAFGFP@GWUT?5file?5?$CFs?5has?5the?5wrong?5head@ DB 'GWUT fil'
	DB	'e %s has the wrong header: %s', 00H		; `string'
CONST	ENDS
;	COMDAT ??_C@_06OPEKAKCJ@?$CF?$FL?$FO?6?$FN?6@
CONST	SEGMENT
??_C@_06OPEKAKCJ@?$CF?$FL?$FO?6?$FN?6@ DB '%[^', 0aH, ']', 0aH, 00H ; `string'
CONST	ENDS
;	COMDAT ??_C@_0CA@POJFLOKO@Error?5opening?5GWUT?5file?3?5?$FL?5?$CFs?5?$FN@
CONST	SEGMENT
??_C@_0CA@POJFLOKO@Error?5opening?5GWUT?5file?3?5?$FL?5?$CFs?5?$FN@ DB 'E'
	DB	'rror opening GWUT file: [ %s ]', 00H	; `string'
CONST	ENDS
;	COMDAT ??_C@_01KDCPPGHE@r@
CONST	SEGMENT
??_C@_01KDCPPGHE@r@ DB 'r', 00H				; `string'
CONST	ENDS
;	COMDAT ??_C@_0BC@KOCDPDLA@Dumping?5file?3?5?$CFs?6@
CONST	SEGMENT
??_C@_0BC@KOCDPDLA@Dumping?5file?3?5?$CFs?6@ DB 'Dumping file: %s', 0aH, 00H ; `string'
CONST	ENDS
;	COMDAT ??_C@_0N@NEEIEGPN@dumpgwut?4txt@
CONST	SEGMENT
??_C@_0N@NEEIEGPN@dumpgwut?4txt@ DB 'dumpgwut.txt', 00H	; `string'
CONST	ENDS
;	COMDAT ??_C@_0BE@MJKAALHL@?$FLEnd?5of?5GWUT?5file?$FN?6@
CONST	SEGMENT
??_C@_0BE@MJKAALHL@?$FLEnd?5of?5GWUT?5file?$FN?6@ DB '[End of GWUT file]', 0aH
	DB	00H						; `string'
CONST	ENDS
;	COMDAT ??_C@_02NODKCLPH@0?6@
CONST	SEGMENT
??_C@_02NODKCLPH@0?6@ DB '0', 0aH, 00H			; `string'
CONST	ENDS
;	COMDAT ??_C@_06IJEBOOKN@?$CFd?0?$CFd?0@
CONST	SEGMENT
??_C@_06IJEBOOKN@?$CFd?0?$CFd?0@ DB '%d,%d,', 00H	; `string'
CONST	ENDS
;	COMDAT ??_C@_06JACIFLFI@?$CFd?0?$CFs?0@
CONST	SEGMENT
??_C@_06JACIFLFI@?$CFd?0?$CFs?0@ DB '%d,%s,', 00H	; `string'
CONST	ENDS
;	COMDAT ??_C@_09MOOPJLEO@weapon?5nr@
CONST	SEGMENT
??_C@_09MOOPJLEO@weapon?5nr@ DB 'weapon nr', 00H	; `string'
CONST	ENDS
;	COMDAT ??_C@_0M@BDAONJEI@weapon?5name@
CONST	SEGMENT
??_C@_0M@BDAONJEI@weapon?5name@ DB 'weapon name', 00H	; `string'
CONST	ENDS
;	COMDAT ??_C@_0N@ENDKFCNC@carrier?5name@
CONST	SEGMENT
??_C@_0N@ENDKFCNC@carrier?5name@ DB 'carrier name', 00H	; `string'
CONST	ENDS
;	COMDAT ??_C@_0BG@OFIPCFPM@weapon?5config?5type?5nr@
CONST	SEGMENT
??_C@_0BG@OFIPCFPM@weapon?5config?5type?5nr@ DB 'weapon config type nr', 00H ; `string'
CONST	ENDS
;	COMDAT ??_C@_0BM@MDAGHBHJ@?$FLWEAPON?5TYPES?5CONFIG?5INFO?$FN?6@
CONST	SEGMENT
??_C@_0BM@MDAGHBHJ@?$FLWEAPON?5TYPES?5CONFIG?5INFO?$FN?6@ DB '[WEAPON TYP'
	DB	'ES CONFIG INFO]', 0aH, 00H			; `string'
CONST	ENDS
;	COMDAT ??_C@_0BM@BOJEHICG@5?0Hind?0?$CF?40f?0?$CF?40f?0?$CF?40f?0?$CF?40f?6@
CONST	SEGMENT
??_C@_0BM@BOJEHICG@5?0Hind?0?$CF?40f?0?$CF?40f?0?$CF?40f?0?$CF?40f?6@ DB '5'
	DB	',Hind,%.0f,%.0f,%.0f,%.0f', 0aH, 00H	; `string'
CONST	ENDS
;	COMDAT ??_C@_0BN@IKIJOFML@4?0Havoc?0?$CF?40f?0?$CF?40f?0?$CF?40f?0?$CF?40f?6@
CONST	SEGMENT
??_C@_0BN@IKIJOFML@4?0Havoc?0?$CF?40f?0?$CF?40f?0?$CF?40f?0?$CF?40f?6@ DB '4'
	DB	',Havoc,%.0f,%.0f,%.0f,%.0f', 0aH, 00H	; `string'
CONST	ENDS
;	COMDAT ??_C@_0CC@FOBOEEHP@3?0Hokum?0?$CF?40f?0?$CF?40f?0?$CF?40f?0?$CF?40f?0?$CF?40@
CONST	SEGMENT
??_C@_0CC@FOBOEEHP@3?0Hokum?0?$CF?40f?0?$CF?40f?0?$CF?40f?0?$CF?40f?0?$CF?40@ DB '3'
	DB	',Hokum,%.0f,%.0f,%.0f,%.0f,%.0f', 0aH, 00H	; `string'
CONST	ENDS
;	COMDAT ??_C@_0CH@LHBHJIMP@2?0Black?5Hawk?0?$CF?40f?0?$CF?40f?0?$CF?40f?0?$CF?40@
CONST	SEGMENT
??_C@_0CH@LHBHJIMP@2?0Black?5Hawk?0?$CF?40f?0?$CF?40f?0?$CF?40f?0?$CF?40@ DB '2'
	DB	',Black Hawk,%.0f,%.0f,%.0f,%.0f,%.0f', 0aH, 00H ; `string'
CONST	ENDS
;	COMDAT ??_C@_0CD@KIJNGCJE@1?0Apache?0?$CF?40f?0?$CF?40f?0?$CF?40f?0?$CF?40f?0?$CF?4@
CONST	SEGMENT
??_C@_0CD@KIJNGCJE@1?0Apache?0?$CF?40f?0?$CF?40f?0?$CF?40f?0?$CF?40f?0?$CF?4@ DB '1'
	DB	',Apache,%.0f,%.0f,%.0f,%.0f,%.0f', 0aH, 00H	; `string'
CONST	ENDS
;	COMDAT ??_C@_0CF@JFLFJHDL@0?0Comanche?0?$CF?40f?0?$CF?40f?0?$CF?40f?0?$CF?40f?0@
CONST	SEGMENT
??_C@_0CF@JFLFJHDL@0?0Comanche?0?$CF?40f?0?$CF?40f?0?$CF?40f?0?$CF?40f?0@ DB '0'
	DB	',Comanche,%.0f,%.0f,%.0f,%.0f,%.0f', 0aH, 00H ; `string'
CONST	ENDS
;	COMDAT ??_C@_0FA@NEPEELBH@Aircraft?0Radar?5Range?51?0Radar?5Ra@
CONST	SEGMENT
??_C@_0FA@NEPEELBH@Aircraft?0Radar?5Range?51?0Radar?5Ra@ DB 'Aircraft,Rad'
	DB	'ar Range 1,Radar Range 2,Radar Range 3,Radar Range 4,Radar Ra'
	DB	'nge 5', 0aH, 00H				; `string'
CONST	ENDS
;	COMDAT ??_C@_08BCFLBFEP@?$FLRADAR?$FN?6@
CONST	SEGMENT
??_C@_08BCFLBFEP@?$FLRADAR?$FN?6@ DB '[RADAR]', 0aH, 00H ; `string'
CONST	ENDS
;	COMDAT ??_C@_0JN@FJNLEFNG@weapon?0ammo?0weapon?0ammo?0weapon?0@
CONST	SEGMENT
??_C@_0JN@FJNLEFNG@weapon?0ammo?0weapon?0ammo?0weapon?0@ DB 'weapon,ammo,'
	DB	'weapon,ammo,weapon,ammo,weapon,ammo,weapon,ammo,weapon,ammo,w'
	DB	'eapon,ammo,weapon,ammo,weapon,ammo,weapon,ammo,weapon,ammo,we'
	DB	'apon,ammo,weapon,ammo', 0aH, 00H		; `string'
CONST	ENDS
;	COMDAT ??_C@_0GI@MJEEBEGA@Aircraft?5?2?5Vehicle?0min?5weapon?5c@
CONST	SEGMENT
??_C@_0GI@MJEEBEGA@Aircraft?5?2?5Vehicle?0min?5weapon?5c@ DB 'Aircraft \ '
	DB	'Vehicle,min weapon config,max weapon config,weapon,ammo,weapo'
	DB	'n,ammo,weapon,ammo,weapon,ammo,', 00H	; `string'
CONST	ENDS
;	COMDAT ??_C@_07DOLECJID@?$FLAMMO?$FN?6@
CONST	SEGMENT
??_C@_07DOLECJID@?$FLAMMO?$FN?6@ DB '[AMMO]', 0aH, 00H	; `string'
CONST	ENDS
;	COMDAT ??_C@_03CAGFEJAO@?0?$CFg@
CONST	SEGMENT
??_C@_03CAGFEJAO@?0?$CFg@ DB ',%g', 00H			; `string'
CONST	ENDS
;	COMDAT ??_C@_03LEIBKMN@?0?$CFd@
CONST	SEGMENT
??_C@_03LEIBKMN@?0?$CFd@ DB ',%d', 00H			; `string'
CONST	ENDS
;	COMDAT ??_C@_0BL@DHDDPJOC@Attack_AG_Hasty_Take_Cover@
CONST	SEGMENT
??_C@_0BL@DHDDPJOC@Attack_AG_Hasty_Take_Cover@ DB 'Attack_AG_Hasty_Take_C'
	DB	'over', 00H					; `string'
CONST	ENDS
;	COMDAT ??_C@_0BF@OPFDLBPB@Attack_AG_Hasty_Fire@
CONST	SEGMENT
??_C@_0BF@OPFDLBPB@Attack_AG_Hasty_Fire@ DB 'Attack_AG_Hasty_Fire', 00H ; `string'
CONST	ENDS
;	COMDAT ??_C@_0BB@OCOKBHCL@Attack_AG_Egress@
CONST	SEGMENT
??_C@_0BB@OCOKBHCL@Attack_AG_Egress@ DB 'Attack_AG_Egress', 00H ; `string'
CONST	ENDS
;	COMDAT ??_C@_0BM@OAJEMKBJ@Attack_AG_Disengage_Virtual@
CONST	SEGMENT
??_C@_0BM@OAJEMKBJ@Attack_AG_Disengage_Virtual@ DB 'Attack_AG_Disengage_V'
	DB	'irtual', 00H				; `string'
CONST	ENDS
;	COMDAT ??_C@_0BE@GGEOGEAH@Attack_AG_Disengage@
CONST	SEGMENT
??_C@_0BE@GGEOGEAH@Attack_AG_Disengage@ DB 'Attack_AG_Disengage', 00H ; `string'
CONST	ENDS
;	COMDAT ??_C@_0BH@KFINIPEB@Attack_AG_Fire_Virtual@
CONST	SEGMENT
??_C@_0BH@KFINIPEB@Attack_AG_Fire_Virtual@ DB 'Attack_AG_Fire_Virtual', 00H ; `string'
CONST	ENDS
;	COMDAT ??_C@_0P@GLKONCKF@Attack_AG_Fire@
CONST	SEGMENT
??_C@_0P@GLKONCKF@Attack_AG_Fire@ DB 'Attack_AG_Fire', 00H ; `string'
CONST	ENDS
;	COMDAT ??_C@_0P@BGGHCJBJ@Attack_AG_Dive@
CONST	SEGMENT
??_C@_0P@BGGHCJBJ@Attack_AG_Dive@ DB 'Attack_AG_Dive', 00H ; `string'
CONST	ENDS
;	COMDAT ??_C@_0BA@OADKGPHF@Attack_AG_Climb@
CONST	SEGMENT
??_C@_0BA@OADKGPHF@Attack_AG_Climb@ DB 'Attack_AG_Climb', 00H ; `string'
CONST	ENDS
;	COMDAT ??_C@_0BF@OMIOMDLI@Attack_AG_Take_Cover@
CONST	SEGMENT
??_C@_0BF@OMIOMDLI@Attack_AG_Take_Cover@ DB 'Attack_AG_Take_Cover', 00H ; `string'
CONST	ENDS
;	COMDAT ??_C@_0BH@KLFBGBHB@Attack_AG_Fly_To_Cover@
CONST	SEGMENT
??_C@_0BH@KLFBGBHB@Attack_AG_Fly_To_Cover@ DB 'Attack_AG_Fly_To_Cover', 00H ; `string'
CONST	ENDS
;	COMDAT ??_C@_0BF@BBBGLPOB@Attack_AG_Seek_Cover@
CONST	SEGMENT
??_C@_0BF@BBBGLPOB@Attack_AG_Seek_Cover@ DB 'Attack_AG_Seek_Cover', 00H ; `string'
CONST	ENDS
;	COMDAT ??_C@_0BD@OPMIKBDB@Attack_AG_Approach@
CONST	SEGMENT
??_C@_0BD@OPMIKBDB@Attack_AG_Approach@ DB 'Attack_AG_Approach', 00H ; `string'
CONST	ENDS
;	COMDAT ??_C@_0BJ@IDDMCDNB@Attack_AA_Fire_Intercept@
CONST	SEGMENT
??_C@_0BJ@IDDMCDNB@Attack_AA_Fire_Intercept@ DB 'Attack_AA_Fire_Intercept'
	DB	00H						; `string'
CONST	ENDS
;	COMDAT ??_C@_0BG@CEIDADGB@Attack_AA_Move_Circle@
CONST	SEGMENT
??_C@_0BG@CEIDADGB@Attack_AA_Move_Circle@ DB 'Attack_AA_Move_Circle', 00H ; `string'
CONST	ENDS
;	COMDAT ??_C@_0BD@IFIHKDND@Attack_AA_Move_Six@
CONST	SEGMENT
??_C@_0BD@IFIHKDND@Attack_AA_Move_Six@ DB 'Attack_AA_Move_Six', 00H ; `string'
CONST	ENDS
;	COMDAT ??_C@_06PPFLONGD@Landed@
CONST	SEGMENT
??_C@_06PPFLONGD@Landed@ DB 'Landed', 00H		; `string'
CONST	ENDS
;	COMDAT ??_C@_0P@CIJFCCND@Landing_Direct@
CONST	SEGMENT
??_C@_0P@CIJFCCND@Landing_Direct@ DB 'Landing_Direct', 00H ; `string'
CONST	ENDS
;	COMDAT ??_C@_0BE@JODGBIEP@Navigation_Altitude@
CONST	SEGMENT
??_C@_0BE@JODGBIEP@Navigation_Altitude@ DB 'Navigation_Altitude', 00H ; `string'
CONST	ENDS
;	COMDAT ??_C@_0BC@KOFNCMMP@Navigation_Routed@
CONST	SEGMENT
??_C@_0BC@KOFNCMMP@Navigation_Routed@ DB 'Navigation_Routed', 00H ; `string'
CONST	ENDS
;	COMDAT ??_C@_0BD@GOHADIKK@Navigation_Virtual@
CONST	SEGMENT
??_C@_0BD@GOHADIKK@Navigation_Virtual@ DB 'Navigation_Virtual', 00H ; `string'
CONST	ENDS
;	COMDAT ??_C@_03OMLJOFL@?0?$CFs@
CONST	SEGMENT
??_C@_03OMLJOFL@?0?$CFs@ DB ',%s', 00H			; `string'
CONST	ENDS
;	COMDAT ??_C@_0BC@GIMAOECP@Navigation_Direct@
CONST	SEGMENT
??_C@_0BC@GIMAOECP@Navigation_Direct@ DB 'Navigation_Direct', 00H ; `string'
CONST	ENDS
;	COMDAT ??_C@_0BE@EBFDAMLM@Weapon_Vector_value@
CONST	SEGMENT
??_C@_0BE@EBFDAMLM@Weapon_Vector_value@ DB 'Weapon_Vector_value', 00H ; `string'
CONST	ENDS
;	COMDAT ??_C@_0BE@ENHEGHOJ@Weapon_Vector_valid@
CONST	SEGMENT
??_C@_0BE@ENHEGHOJ@Weapon_Vector_valid@ DB 'Weapon_Vector_valid', 00H ; `string'
CONST	ENDS
;	COMDAT ??_C@_0BE@BGMPHHLM@Last_To_Reach_value@
CONST	SEGMENT
??_C@_0BE@BGMPHHLM@Last_To_Reach_value@ DB 'Last_To_Reach_value', 00H ; `string'
CONST	ENDS
;	COMDAT ??_C@_0BE@BKOIBMOJ@Last_To_Reach_valid@
CONST	SEGMENT
??_C@_0BE@BKOIBMOJ@Last_To_Reach_valid@ DB 'Last_To_Reach_valid', 00H ; `string'
CONST	ENDS
;	COMDAT ??_C@_0BE@HNCCACLG@Transmit_Data_value@
CONST	SEGMENT
??_C@_0BE@HNCCACLG@Transmit_Data_value@ DB 'Transmit_Data_value', 00H ; `string'
CONST	ENDS
;	COMDAT ??_C@_0BE@HBAFGJOD@Transmit_Data_valid@
CONST	SEGMENT
??_C@_0BE@HBAFGJOD@Transmit_Data_valid@ DB 'Transmit_Data_valid', 00H ; `string'
CONST	ENDS
;	COMDAT ??_C@_0P@GCFJEHEF@Altitude_value@
CONST	SEGMENT
??_C@_0P@GCFJEHEF@Altitude_value@ DB 'Altitude_value', 00H ; `string'
CONST	ENDS
;	COMDAT ??_C@_0P@GOHOCMBA@Altitude_valid@
CONST	SEGMENT
??_C@_0P@GOHOCMBA@Altitude_valid@ DB 'Altitude_valid', 00H ; `string'
CONST	ENDS
;	COMDAT ??_C@_0O@OIALELNM@Heading_value@
CONST	SEGMENT
??_C@_0O@OIALELNM@Heading_value@ DB 'Heading_value', 00H ; `string'
CONST	ENDS
;	COMDAT ??_C@_0O@OECMCAIJ@Heading_valid@
CONST	SEGMENT
??_C@_0O@OECMCAIJ@Heading_valid@ DB 'Heading_valid', 00H ; `string'
CONST	ENDS
;	COMDAT ??_C@_0N@OIEKJFFE@Radius_value@
CONST	SEGMENT
??_C@_0N@OIEKJFFE@Radius_value@ DB 'Radius_value', 00H	; `string'
CONST	ENDS
;	COMDAT ??_C@_0N@OEGNPOAB@Radius_valid@
CONST	SEGMENT
??_C@_0N@OEGNPOAB@Radius_valid@ DB 'Radius_valid', 00H	; `string'
CONST	ENDS
;	COMDAT ??_C@_0BE@GPEOGHOC@terrain_follow_mode@
CONST	SEGMENT
??_C@_0BE@GPEOGHOC@terrain_follow_mode@ DB 'terrain_follow_mode', 00H ; `string'
CONST	ENDS
;	COMDAT ??_C@_0O@ODADLCJE@position_type@
CONST	SEGMENT
??_C@_0O@ODADLCJE@position_type@ DB 'position_type', 00H ; `string'
CONST	ENDS
;	COMDAT ??_C@_0BB@MIINBMP@follow_formation@
CONST	SEGMENT
??_C@_0BB@MIINBMP@follow_formation@ DB 'follow_formation', 00H ; `string'
CONST	ENDS
;	COMDAT ??_C@_0L@GKOAHKMI@evade_fire@
CONST	SEGMENT
??_C@_0L@GKOAHKMI@evade_fire@ DB 'evade_fire', 00H	; `string'
CONST	ENDS
;	COMDAT ??_C@_0BC@IMGFEMAB@?$FLGUIDE?5CRITERIA?$FN?6@
CONST	SEGMENT
??_C@_0BC@IMGFEMAB@?$FLGUIDE?5CRITERIA?$FN?6@ DB '[GUIDE CRITERIA]', 0aH, 00H ; `string'
CONST	ENDS
;	COMDAT ??_C@_0BB@CNEAKJLG@sh_movement_type@
CONST	SEGMENT
??_C@_0BB@CNEAKJLG@sh_movement_type@ DB 'sh_movement_type', 00H ; `string'
CONST	ENDS
;	COMDAT ??_C@_0BB@FMDKJKHO@sh_position_type@
CONST	SEGMENT
??_C@_0BB@FMDKJKHO@sh_position_type@ DB 'sh_position_type', 00H ; `string'
CONST	ENDS
;	COMDAT ??_C@_0BL@EMBCMDMF@sh_criteria_transmit_recon@
CONST	SEGMENT
??_C@_0BL@EMBCMDMF@sh_criteria_transmit_recon@ DB 'sh_criteria_transmit_r'
	DB	'econ', 00H					; `string'
CONST	ENDS
;	COMDAT ??_C@_0BK@NGIDPPGD@sh_criteria_last_to_reach@
CONST	SEGMENT
??_C@_0BK@NGIDPPGD@sh_criteria_last_to_reach@ DB 'sh_criteria_last_to_rea'
	DB	'ch', 00H					; `string'
CONST	ENDS
;	COMDAT ??_C@_0M@OOEJPIJF@sh_velocity@
CONST	SEGMENT
??_C@_0M@OOEJPIJF@sh_velocity@ DB 'sh_velocity', 00H	; `string'
CONST	ENDS
;	COMDAT ??_C@_0BC@NGPKIEPA@sh_reached_radius@
CONST	SEGMENT
??_C@_0BC@NGPKIEPA@sh_reached_radius@ DB 'sh_reached_radius', 00H ; `string'
CONST	ENDS
;	COMDAT ??_C@_0BB@MDODHEPN@sh_action_radius@
CONST	SEGMENT
??_C@_0BB@MDODHEPN@sh_action_radius@ DB 'sh_action_radius', 00H ; `string'
CONST	ENDS
;	COMDAT ??_C@_0CG@GKCHNJHF@sh_minimum_previous_waypoint_di@
CONST	SEGMENT
??_C@_0CG@GKCHNJHF@sh_minimum_previous_waypoint_di@ DB 'sh_minimum_previo'
	DB	'us_waypoint_distance', 00H			; `string'
CONST	ENDS
;	COMDAT ??_C@_0BB@GMEDKKMA@rv_movement_type@
CONST	SEGMENT
??_C@_0BB@GMEDKKMA@rv_movement_type@ DB 'rv_movement_type', 00H ; `string'
CONST	ENDS
;	COMDAT ??_C@_0BB@BNDJJJAI@rv_position_type@
CONST	SEGMENT
??_C@_0BB@BNDJJJAI@rv_position_type@ DB 'rv_position_type', 00H ; `string'
CONST	ENDS
;	COMDAT ??_C@_0BL@OCDLHDPB@rv_criteria_transmit_recon@
CONST	SEGMENT
??_C@_0BL@OCDLHDPB@rv_criteria_transmit_recon@ DB 'rv_criteria_transmit_r'
	DB	'econ', 00H					; `string'
CONST	ENDS
;	COMDAT ??_C@_0BK@COFJIBIL@rv_criteria_last_to_reach@
CONST	SEGMENT
??_C@_0BK@COFJIBIL@rv_criteria_last_to_reach@ DB 'rv_criteria_last_to_rea'
	DB	'ch', 00H					; `string'
CONST	ENDS
;	COMDAT ??_C@_0M@IJGMFLDH@rv_velocity@
CONST	SEGMENT
??_C@_0M@IJGMFLDH@rv_velocity@ DB 'rv_velocity', 00H	; `string'
CONST	ENDS
;	COMDAT ??_C@_0BC@GPNNFDPK@rv_reached_radius@
CONST	SEGMENT
??_C@_0BC@GPNNFDPK@rv_reached_radius@ DB 'rv_reached_radius', 00H ; `string'
CONST	ENDS
;	COMDAT ??_C@_0BB@ICOAHHIL@rv_action_radius@
CONST	SEGMENT
??_C@_0BB@ICOAHHIL@rv_action_radius@ DB 'rv_action_radius', 00H ; `string'
CONST	ENDS
;	COMDAT ??_C@_0CG@ONPHKLJE@rv_minimum_previous_waypoint_di@
CONST	SEGMENT
??_C@_0CG@ONPHKLJE@rv_minimum_previous_waypoint_di@ DB 'rv_minimum_previo'
	DB	'us_waypoint_distance', 00H			; `string'
CONST	ENDS
;	COMDAT ??_C@_0BB@NFEAAPGM@hc_movement_type@
CONST	SEGMENT
??_C@_0BB@NFEAAPGM@hc_movement_type@ DB 'hc_movement_type', 00H ; `string'
CONST	ENDS
;	COMDAT ??_C@_0BB@KEDKDMKE@hc_position_type@
CONST	SEGMENT
??_C@_0BB@KEDKDMKE@hc_position_type@ DB 'hc_position_type', 00H ; `string'
CONST	ENDS
;	COMDAT ??_C@_0BL@MEAOFDJN@hc_criteria_transmit_recon@
CONST	SEGMENT
??_C@_0BL@MEAOFDJN@hc_criteria_transmit_recon@ DB 'hc_criteria_transmit_r'
	DB	'econ', 00H					; `string'
CONST	ENDS
;	COMDAT ??_C@_0BK@MCEJEBLL@hc_criteria_last_to_reach@
CONST	SEGMENT
??_C@_0BK@MCEJEBLL@hc_criteria_last_to_reach@ DB 'hc_criteria_last_to_rea'
	DB	'ch', 00H					; `string'
CONST	ENDS
;	COMDAT ??_C@_0M@LAOCDGCD@hc_velocity@
CONST	SEGMENT
??_C@_0M@LAOCDGCD@hc_velocity@ DB 'hc_velocity', 00H	; `string'
CONST	ENDS
;	COMDAT ??_C@_0BC@LAAELPJM@hc_reached_radius@
CONST	SEGMENT
??_C@_0BC@LAAELPJM@hc_reached_radius@ DB 'hc_reached_radius', 00H ; `string'
CONST	ENDS
;	COMDAT ??_C@_0BB@DLODNCCH@hc_action_radius@
CONST	SEGMENT
??_C@_0BB@DLODNCCH@hc_action_radius@ DB 'hc_action_radius', 00H ; `string'
CONST	ENDS
;	COMDAT ??_C@_0CG@KDNLECPH@hc_minimum_previous_waypoint_di@
CONST	SEGMENT
??_C@_0CG@KDNLECPH@hc_minimum_previous_waypoint_di@ DB 'hc_minimum_previo'
	DB	'us_waypoint_distance', 00H			; `string'
CONST	ENDS
;	COMDAT ??_C@_0BB@KGHCIFOD@fw_movement_type@
CONST	SEGMENT
??_C@_0BB@KGHCIFOD@fw_movement_type@ DB 'fw_movement_type', 00H ; `string'
CONST	ENDS
;	COMDAT ??_C@_0BB@NHAILGCL@fw_position_type@
CONST	SEGMENT
??_C@_0BB@NHAILGCL@fw_position_type@ DB 'fw_position_type', 00H ; `string'
CONST	ENDS
;	COMDAT ??_C@_0BL@DKBDBFHG@fw_criteria_transmit_recon@
CONST	SEGMENT
??_C@_0BL@DKBDBFHG@fw_criteria_transmit_recon@ DB 'fw_criteria_transmit_r'
	DB	'econ', 00H					; `string'
CONST	ENDS
;	COMDAT ??_C@_0BK@LBENMCD@fw_criteria_last_to_reach@
CONST	SEGMENT
??_C@_0BK@LBENMCD@fw_criteria_last_to_reach@ DB 'fw_criteria_last_to_reac'
	DB	'h', 00H					; `string'
CONST	ENDS
;	COMDAT ??_C@_0M@EHPMFCHE@fw_velocity@
CONST	SEGMENT
??_C@_0M@EHPMFCHE@fw_velocity@ DB 'fw_velocity', 00H	; `string'
CONST	ENDS
;	COMDAT ??_C@_0BC@MNHABDKH@fw_reached_radius@
CONST	SEGMENT
??_C@_0BC@MNHABDKH@fw_reached_radius@ DB 'fw_reached_radius', 00H ; `string'
CONST	ENDS
;	COMDAT ??_C@_0BB@EINBFIKI@fw_action_radius@
CONST	SEGMENT
??_C@_0BB@EINBFIKI@fw_action_radius@ DB 'fw_action_radius', 00H ; `string'
CONST	ENDS
;	COMDAT ??_C@_0CG@IDAFLCKN@fw_minimum_previous_waypoint_di@
CONST	SEGMENT
??_C@_0CG@IDAFLCKN@fw_minimum_previous_waypoint_di@ DB 'fw_minimum_previo'
	DB	'us_waypoint_distance', 00H			; `string'
CONST	ENDS
;	COMDAT ??_C@_0P@MOAANCBG@guide_sub_type@
CONST	SEGMENT
??_C@_0P@MOAANCBG@guide_sub_type@ DB 'guide_sub_type', 00H ; `string'
CONST	ENDS
;	COMDAT ??_C@_0BG@NJPOIMLE@check_waypoint_action@
CONST	SEGMENT
??_C@_0BG@NJPOIMLE@check_waypoint_action@ DB 'check_waypoint_action', 00H ; `string'
CONST	ENDS
;	COMDAT ??_C@_0BF@DAGIKPNA@player_skip_waypoint@
CONST	SEGMENT
??_C@_0BF@DAGIKPNA@player_skip_waypoint@ DB 'player_skip_waypoint', 00H ; `string'
CONST	ENDS
;	COMDAT ??_C@_0BD@MICANFGD@objective_waypoint@
CONST	SEGMENT
??_C@_0BD@MICANFGD@objective_waypoint@ DB 'objective_waypoint', 00H ; `string'
CONST	ENDS
;	COMDAT ??_C@_0BB@MFKNECBC@planner_moveable@
CONST	SEGMENT
??_C@_0BB@MFKNECBC@planner_moveable@ DB 'planner_moveable', 00H ; `string'
CONST	ENDS
;	COMDAT ??_C@_0BO@OFCJNKJF@waypoint_reached_return_value@
CONST	SEGMENT
??_C@_0BO@OFCJNKJF@waypoint_reached_return_value@ DB 'waypoint_reached_re'
	DB	'turn_value', 00H				; `string'
CONST	ENDS
;	COMDAT ??_C@_0BJ@GLEIPLPL@waypoint_reached_message@
CONST	SEGMENT
??_C@_0BJ@GLEIPLPL@waypoint_reached_message@ DB 'waypoint_reached_message'
	DB	00H						; `string'
CONST	ENDS
;	COMDAT ??_C@_0BI@GACMBDBB@waypoint_action_message@
CONST	SEGMENT
??_C@_0BI@GACMBDBB@waypoint_action_message@ DB 'waypoint_action_message', 00H ; `string'
CONST	ENDS
;	COMDAT ??_C@_0BO@BPGDDJNL@mobile_follow_waypoint_offset@
CONST	SEGMENT
??_C@_0BO@BPGDDJNL@mobile_follow_waypoint_offset@ DB 'mobile_follow_waypo'
	DB	'int_offset', 00H				; `string'
CONST	ENDS
;	COMDAT ??_C@_0BK@IBOMPAFN@verbose_operational_state@
CONST	SEGMENT
??_C@_0BK@IBOMPAFN@verbose_operational_state@ DB 'verbose_operational_sta'
	DB	'te', 00H					; `string'
CONST	ENDS
;	COMDAT ??_C@_0N@OIGCLPCO@?$FLWAYPOINTS?$FN?6@
CONST	SEGMENT
??_C@_0N@OIGCLPCO@?$FLWAYPOINTS?$FN?6@ DB '[WAYPOINTS]', 0aH, 00H ; `string'
CONST	ENDS
;	COMDAT ??_C@_0BB@FPDPBDJE@landing_type_sea@
CONST	SEGMENT
??_C@_0BB@FPDPBDJE@landing_type_sea@ DB 'landing_type_sea', 00H ; `string'
CONST	ENDS
;	COMDAT ??_C@_0BE@JBDDNFBK@landing_type_people@
CONST	SEGMENT
??_C@_0BE@JBDDNFBK@landing_type_people@ DB 'landing_type_people', 00H ; `string'
CONST	ENDS
;	COMDAT ??_C@_0BE@NIFAGE@landing_type_ground@
CONST	SEGMENT
??_C@_0BE@NIFAGE@landing_type_ground@ DB 'landing_type_ground', 00H ; `string'
CONST	ENDS
;	COMDAT ??_C@_0BI@JAIACDLN@landing_type_helicopter@
CONST	SEGMENT
??_C@_0BI@JAIACDLN@landing_type_helicopter@ DB 'landing_type_helicopter', 00H ; `string'
CONST	ENDS
;	COMDAT ??_C@_0BO@LKIKKLFB@landing_type_fixedw_transport@
CONST	SEGMENT
??_C@_0BO@LKIKKLFB@landing_type_fixedw_transport@ DB 'landing_type_fixedw'
	DB	'_transport', 00H				; `string'
CONST	ENDS
;	COMDAT ??_C@_0BH@FJKBKNH@landing_type_fixedwing@
CONST	SEGMENT
??_C@_0BH@FJKBKNH@landing_type_fixedwing@ DB 'landing_type_fixedwing', 00H ; `string'
CONST	ENDS
;	COMDAT ??_C@_0BF@BPHOJLMP@task_completed_score@
CONST	SEGMENT
??_C@_0BF@BPHOJLMP@task_completed_score@ DB 'task_completed_score', 00H ; `string'
CONST	ENDS
;	COMDAT ??_C@_0BN@IHNDFIOD@task_pass_percentage_success@
CONST	SEGMENT
??_C@_0BN@IHNDFIOD@task_pass_percentage_success@ DB 'task_pass_percentage'
	DB	'_success', 00H				; `string'
CONST	ENDS
;	COMDAT ??_C@_0BN@BIKJLLEJ@task_pass_percentage_partial@
CONST	SEGMENT
??_C@_0BN@BIKJLLEJ@task_pass_percentage_partial@ DB 'task_pass_percentage'
	DB	'_partial', 00H				; `string'
CONST	ENDS
;	COMDAT ??_C@_0BG@GIDFMNAL@player_reserve_factor@
CONST	SEGMENT
??_C@_0BG@GIDFMNAL@player_reserve_factor@ DB 'player_reserve_factor', 00H ; `string'
CONST	ENDS
;	COMDAT ??_C@_0BC@EJCHKHJJ@wait_for_end_task@
CONST	SEGMENT
??_C@_0BC@EJCHKHJJ@wait_for_end_task@ DB 'wait_for_end_task', 00H ; `string'
CONST	ENDS
;	COMDAT ??_C@_0BK@DJIBFJGN@counts_towards_player_log@
CONST	SEGMENT
??_C@_0BK@DJIBFJGN@counts_towards_player_log@ DB 'counts_towards_player_l'
	DB	'og', 00H					; `string'
CONST	ENDS
;	COMDAT ??_C@_0BH@KFAJDPKI@task_objective_preview@
CONST	SEGMENT
??_C@_0BH@KFAJDPKI@task_objective_preview@ DB 'task_objective_preview', 00H ; `string'
CONST	ENDS
;	COMDAT ??_C@_0BG@JEGIBEA@delay_task_assignment@
CONST	SEGMENT
??_C@_0BG@JEGIBEA@delay_task_assignment@ DB 'delay_task_assignment', 00H ; `string'
CONST	ENDS
;	COMDAT ??_C@_0BA@BNGCDKAC@perform_debrief@
CONST	SEGMENT
??_C@_0BA@BNGCDKAC@perform_debrief@ DB 'perform_debrief', 00H ; `string'
CONST	ENDS
;	COMDAT ??_C@_0BC@NILPEGCL@task_route_search@
CONST	SEGMENT
??_C@_0BC@NILPEGCL@task_route_search@ DB 'task_route_search', 00H ; `string'
CONST	ENDS
;	COMDAT ??_C@_0P@PPGPJFNA@assess_landing@
CONST	SEGMENT
??_C@_0P@PPGPJFNA@assess_landing@ DB 'assess_landing', 00H ; `string'
CONST	ENDS
;	COMDAT ??_C@_0BL@CFEDIIIK@keysite_air_force_capacity@
CONST	SEGMENT
??_C@_0BL@CFEDIIIK@keysite_air_force_capacity@ DB 'keysite_air_force_capa'
	DB	'city', 00H					; `string'
CONST	ENDS
;	COMDAT ??_C@_0N@JLKCCAEP@visible_task@
CONST	SEGMENT
??_C@_0N@JLKCCAEP@visible_task@ DB 'visible_task', 00H	; `string'
CONST	ENDS
;	COMDAT ??_C@_0BA@PFCBFGIE@persistent_task@
CONST	SEGMENT
??_C@_0BA@PFCBFGIE@persistent_task@ DB 'persistent_task', 00H ; `string'
CONST	ENDS
;	COMDAT ??_C@_09NKMFGGLB@solo_task@
CONST	SEGMENT
??_C@_09NKMFGGLB@solo_task@ DB 'solo_task', 00H		; `string'
CONST	ENDS
;	COMDAT ??_C@_0N@PDLNGDDD@primary_task@
CONST	SEGMENT
??_C@_0N@PDLNGDDD@primary_task@ DB 'primary_task', 00H	; `string'
CONST	ENDS
;	COMDAT ??_C@_0BD@GELBBEHP@add_start_waypoint@
CONST	SEGMENT
??_C@_0BD@GELBBEHP@add_start_waypoint@ DB 'add_start_waypoint', 00H ; `string'
CONST	ENDS
;	COMDAT ??_C@_0BK@JKFOCKDD@escort_required_threshold@
CONST	SEGMENT
??_C@_0BK@JKFOCKDD@escort_required_threshold@ DB 'escort_required_thresho'
	DB	'ld', 00H					; `string'
CONST	ENDS
;	COMDAT ??_C@_0N@NMFLJCAH@engage_enemy@
CONST	SEGMENT
??_C@_0N@NMFLJCAH@engage_enemy@ DB 'engage_enemy', 00H	; `string'
CONST	ENDS
;	COMDAT ??_C@_0BE@GBJCPEJB@rules_of_engagement@
CONST	SEGMENT
??_C@_0BE@GBJCPEJB@rules_of_engagement@ DB 'rules_of_engagement', 00H ; `string'
CONST	ENDS
;	COMDAT ??_C@_0BF@BDNALNGL@minimum_member_count@
CONST	SEGMENT
??_C@_0BF@BDNALNGL@minimum_member_count@ DB 'minimum_member_count', 00H ; `string'
CONST	ENDS
;	COMDAT ??_C@_0BE@PINIPHCI@task_objective_info@
CONST	SEGMENT
??_C@_0BE@PINIPHCI@task_objective_info@ DB 'task_objective_info', 00H ; `string'
CONST	ENDS
;	COMDAT ??_C@_0BJ@KHGACEBL@task_default_target_type@
CONST	SEGMENT
??_C@_0BJ@KHGACEBL@task_default_target_type@ DB 'task_default_target_type'
	DB	00H						; `string'
CONST	ENDS
;	COMDAT ??_C@_0BL@NCCIFNOO@task_default_target_source@
CONST	SEGMENT
??_C@_0BL@NCCIFNOO@task_default_target_source@ DB 'task_default_target_so'
	DB	'urce', 00H					; `string'
CONST	ENDS
;	COMDAT ??_C@_0BK@MIANEGBE@task_default_target_class@
CONST	SEGMENT
??_C@_0BK@MIANEGBE@task_default_target_class@ DB 'task_default_target_cla'
	DB	'ss', 00H					; `string'
CONST	ENDS
;	COMDAT ??_C@_0BC@KOCHPEJA@difficulty_rating@
CONST	SEGMENT
??_C@_0BC@KOCHPEJA@difficulty_rating@ DB 'difficulty_rating', 00H ; `string'
CONST	ENDS
;	COMDAT ??_C@_0O@PHLPMOJE@task_priority@
CONST	SEGMENT
??_C@_0O@PHLPMOJE@task_priority@ DB 'task_priority', 00H ; `string'
CONST	ENDS
;	COMDAT ??_C@_0O@LOLCGDBM@task_category@
CONST	SEGMENT
??_C@_0O@LOLCGDBM@task_category@ DB 'task_category', 00H ; `string'
CONST	ENDS
;	COMDAT ??_C@_08DIOLFBCP@?$FLTASKS?$FN?6@
CONST	SEGMENT
??_C@_08DIOLFBCP@?$FLTASKS?$FN?6@ DB '[TASKS]', 0aH, 00H ; `string'
CONST	ENDS
;	COMDAT ??_C@_08NECBKLKJ@?$CIpatrol?$CJ@
CONST	SEGMENT
??_C@_08NECBKLKJ@?$CIpatrol?$CJ@ DB '(patrol)', 00H	; `string'
CONST	ENDS
;	COMDAT ??_C@_07OPIBMAFN@?$CIgroup?$CJ@
CONST	SEGMENT
??_C@_07OPIBMAFN@?$CIgroup?$CJ@ DB '(group)', 00H	; `string'
CONST	ENDS
;	COMDAT ??_C@_06ELALIEHK@?$CFs?5?$CFs?0@
CONST	SEGMENT
??_C@_06ELALIEHK@?$CFs?5?$CFs?0@ DB '%s %s,', 00H	; `string'
CONST	ENDS
;	COMDAT ??_C@_08JNCEGBEK@?$CIstatic?$CJ@
CONST	SEGMENT
??_C@_08JNCEGBEK@?$CIstatic?$CJ@ DB '(static)', 00H	; `string'
CONST	ENDS
;	COMDAT ??_C@_08OOLPMJMC@Infantry@
CONST	SEGMENT
??_C@_08OOLPMJMC@Infantry@ DB 'Infantry', 00H		; `string'
CONST	ENDS
;	COMDAT ??_C@_0P@CBIEFNJM@ai_troop_space@
CONST	SEGMENT
??_C@_0P@CBIEFNJM@ai_troop_space@ DB 'ai_troop_space', 00H ; `string'
CONST	ENDS
;	COMDAT ??_C@_0P@KCADHAOC@ai_cargo_space@
CONST	SEGMENT
??_C@_0P@KCADHAOC@ai_cargo_space@ DB 'ai_cargo_space', 00H ; `string'
CONST	ENDS
;	COMDAT ??_C@_0BE@HHIFKNOH@ai_movement_stealth@
CONST	SEGMENT
??_C@_0BE@HHIFKNOH@ai_movement_stealth@ DB 'ai_movement_stealth', 00H ; `string'
CONST	ENDS
;	COMDAT ??_C@_0BC@PILNPBAP@ai_movement_speed@
CONST	SEGMENT
??_C@_0BC@PILNPBAP@ai_movement_speed@ DB 'ai_movement_speed', 00H ; `string'
CONST	ENDS
;	COMDAT ??_C@_0BK@MHOPBBGP@ai_ground_attack_strength@
CONST	SEGMENT
??_C@_0BK@MHOPBBGP@ai_ground_attack_strength@ DB 'ai_ground_attack_streng'
	DB	'th', 00H					; `string'
CONST	ENDS
;	COMDAT ??_C@_0BH@FCHAANCE@ai_air_attack_strength@
CONST	SEGMENT
??_C@_0BH@FCHAANCE@ai_air_attack_strength@ DB 'ai_air_attack_strength', 00H ; `string'
CONST	ENDS
;	COMDAT ??_C@_0BA@EMGGLJKG@resupply_source@
CONST	SEGMENT
??_C@_0BA@EMGGLJKG@resupply_source@ DB 'resupply_source', 00H ; `string'
CONST	ENDS
;	COMDAT ??_C@_0BD@KDACILON@minimum_idle_count@
CONST	SEGMENT
??_C@_0BD@KDACILON@minimum_idle_count@ DB 'minimum_idle_count', 00H ; `string'
CONST	ENDS
;	COMDAT ??_C@_0BF@JFFLMA@maximum_member_count@
CONST	SEGMENT
??_C@_0BF@JFFLMA@maximum_member_count@ DB 'maximum_member_count', 00H ; `string'
CONST	ENDS
;	COMDAT ??_C@_0BA@EAMCIPPF@platoon_id_type@
CONST	SEGMENT
??_C@_0BA@EAMCIPPF@platoon_id_type@ DB 'platoon_id_type', 00H ; `string'
CONST	ENDS
;	COMDAT ??_C@_0L@MJJEHKFI@amalgamate@
CONST	SEGMENT
??_C@_0L@MJJEHKFI@amalgamate@ DB 'amalgamate', 00H	; `string'
CONST	ENDS
;	COMDAT ??_C@_0BF@OKHKAOBE@default_engage_enemy@
CONST	SEGMENT
??_C@_0BF@OKHKAOBE@default_engage_enemy@ DB 'default_engage_enemy', 00H ; `string'
CONST	ENDS
;	COMDAT ??_C@_0BB@KHAFLDIA@local_only_group@
CONST	SEGMENT
??_C@_0BB@KHAFLDIA@local_only_group@ DB 'local_only_group', 00H ; `string'
CONST	ENDS
;	COMDAT ??_C@_0P@DLPFKFCE@frontline_flag@
CONST	SEGMENT
??_C@_0P@DLPFKFCE@frontline_flag@ DB 'frontline_flag', 00H ; `string'
CONST	ENDS
;	COMDAT ??_C@_0O@JDKIKICA@rearming_time@
CONST	SEGMENT
??_C@_0O@JDKIKICA@rearming_time@ DB 'rearming_time', 00H ; `string'
CONST	ENDS
;	COMDAT ??_C@_0BM@GEDHBNEF@maximum_groups_per_division@
CONST	SEGMENT
??_C@_0BM@GEDHBNEF@maximum_groups_per_division@ DB 'maximum_groups_per_di'
	DB	'vision', 00H				; `string'
CONST	ENDS
;	COMDAT ??_C@_0BH@GPNCCHHF@default_group_division@
CONST	SEGMENT
??_C@_0BH@GPNCCHHF@default_group_division@ DB 'default_group_division', 00H ; `string'
CONST	ENDS
;	COMDAT ??_C@_0BI@COFDFHKL@default_group_formation@
CONST	SEGMENT
??_C@_0BI@COFDFHKL@default_group_formation@ DB 'default_group_formation', 00H ; `string'
CONST	ENDS
;	COMDAT ??_C@_0BL@JDKOPMF@default_red_force_sub_type@
CONST	SEGMENT
??_C@_0BL@JDKOPMF@default_red_force_sub_type@ DB 'default_red_force_sub_t'
	DB	'ype', 00H					; `string'
CONST	ENDS
;	COMDAT ??_C@_0BM@KLLIJLIO@default_blue_force_sub_type@
CONST	SEGMENT
??_C@_0BM@KLLIJLIO@default_blue_force_sub_type@ DB 'default_blue_force_su'
	DB	'b_type', 00H				; `string'
CONST	ENDS
;	COMDAT ??_C@_0BE@OBOBIGBK@default_entity_type@
CONST	SEGMENT
??_C@_0BE@OBOBIGBK@default_entity_type@ DB 'default_entity_type', 00H ; `string'
CONST	ENDS
;	COMDAT ??_C@_0BF@OLMMGMAM@default_landing_type@
CONST	SEGMENT
??_C@_0BF@OLMMGMAM@default_landing_type@ DB 'default_landing_type', 00H ; `string'
CONST	ENDS
;	COMDAT ??_C@_0O@JCHJIBFM@movement_type@
CONST	SEGMENT
??_C@_0O@JCHJIBFM@movement_type@ DB 'movement_type', 00H ; `string'
CONST	ENDS
;	COMDAT ??_C@_0BA@GBJNKDPI@group_list_type@
CONST	SEGMENT
??_C@_0BA@GBJNKDPI@group_list_type@ DB 'group_list_type', 00H ; `string'
CONST	ENDS
;	COMDAT ??_C@_0BD@FLDLBCPM@registry_list_type@
CONST	SEGMENT
??_C@_0BD@FLDLBCPM@registry_list_type@ DB 'registry_list_type', 00H ; `string'
CONST	ENDS
;	COMDAT ??_C@_0P@BCLPCKM@group_category@
CONST	SEGMENT
??_C@_0P@BCLPCKM@group_category@ DB 'group_category', 00H ; `string'
CONST	ENDS
;	COMDAT ??_C@_09GBFBNGHJ@?$FLGROUPS?$FN?6@
CONST	SEGMENT
??_C@_09GBFBNGHJ@?$FLGROUPS?$FN?6@ DB '[GROUPS]', 0aH, 00H ; `string'
CONST	ENDS
;	COMDAT ??_C@_0BD@JNFEJGLN@campaign_objective@
CONST	SEGMENT
??_C@_0BD@JNFEJGLN@campaign_objective@ DB 'campaign_objective', 00H ; `string'
CONST	ENDS
;	COMDAT ??_C@_0BH@CJMKLCMJ@troop_insertion_target@
CONST	SEGMENT
??_C@_0BH@CJMKLCMJ@troop_insertion_target@ DB 'troop_insertion_target', 00H ; `string'
CONST	ENDS
;	COMDAT ??_C@_0BD@FOKMDMIB@ship_strike_target@
CONST	SEGMENT
??_C@_0BD@FOKMDMIB@ship_strike_target@ DB 'ship_strike_target', 00H ; `string'
CONST	ENDS
;	COMDAT ??_C@_0BF@PGGFEFGM@ground_strike_target@
CONST	SEGMENT
??_C@_0BF@PGGFEFGM@ground_strike_target@ DB 'ground_strike_target', 00H ; `string'
CONST	ENDS
;	COMDAT ??_C@_0N@JAIMJONJ@recon_target@
CONST	SEGMENT
??_C@_0N@JAIMJONJ@recon_target@ DB 'recon_target', 00H	; `string'
CONST	ENDS
;	COMDAT ??_C@_0L@FBLJAGPI@oca_target@
CONST	SEGMENT
??_C@_0L@FBLJAGPI@oca_target@ DB 'oca_target', 00H	; `string'
CONST	ENDS
;	COMDAT ??_C@_0L@NNOEGAMK@repairable@
CONST	SEGMENT
??_C@_0L@NNOEGAMK@repairable@ DB 'repairable', 00H	; `string'
CONST	ENDS
;	COMDAT ??_C@_0BA@JIPJJKGJ@requires_barcap@
CONST	SEGMENT
??_C@_0BA@JIPJJKGJ@requires_barcap@ DB 'requires_barcap', 00H ; `string'
CONST	ENDS
;	COMDAT ??_C@_0N@KGJMNGM@requires_cap@
CONST	SEGMENT
??_C@_0N@KGJMNGM@requires_cap@ DB 'requires_cap', 00H	; `string'
CONST	ENDS
;	COMDAT ??_C@_0BD@JONLMBPK@reserve_task_count@
CONST	SEGMENT
??_C@_0BD@JONLMBPK@reserve_task_count@ DB 'reserve_task_count', 00H ; `string'
CONST	ENDS
;	COMDAT ??_C@_0BC@BHEOLLGL@assign_task_count@
CONST	SEGMENT
??_C@_0BC@BHEOLLGL@assign_task_count@ DB 'assign_task_count', 00H ; `string'
CONST	ENDS
;	COMDAT ??_C@_0BC@COKIPKMB@report_fuel_level@
CONST	SEGMENT
??_C@_0BC@COKIPKMB@report_fuel_level@ DB 'report_fuel_level', 00H ; `string'
CONST	ENDS
;	COMDAT ??_C@_0BC@GLNILKF@report_ammo_level@
CONST	SEGMENT
??_C@_0BC@GLNILKF@report_ammo_level@ DB 'report_ammo_level', 00H ; `string'
CONST	ENDS
;	COMDAT ??_C@_0BD@EFMJJBFC@air_force_capacity@
CONST	SEGMENT
??_C@_0BD@EFMJJBFC@air_force_capacity@ DB 'air_force_capacity', 00H ; `string'
CONST	ENDS
;	COMDAT ??_C@_0BF@IMNGHFEI@hidden_by_fog_of_war@
CONST	SEGMENT
??_C@_0BF@IMNGHFEI@hidden_by_fog_of_war@ DB 'hidden_by_fog_of_war', 00H ; `string'
CONST	ENDS
;	COMDAT ??_C@_0BD@DCEABLMI@align_with_terrain@
CONST	SEGMENT
??_C@_0BD@DCEABLMI@align_with_terrain@ DB 'align_with_terrain', 00H ; `string'
CONST	ENDS
;	COMDAT ??_C@_0BG@LKBBPNNG@sector_side_max_value@
CONST	SEGMENT
??_C@_0BG@LKBBPNNG@sector_side_max_value@ DB 'sector_side_max_value', 00H ; `string'
CONST	ENDS
;	COMDAT ??_C@_0P@IDGCIJHM@recon_distance@
CONST	SEGMENT
??_C@_0P@IDGCIJHM@recon_distance@ DB 'recon_distance', 00H ; `string'
CONST	ENDS
;	COMDAT ??_C@_0BE@HMOICOIG@air_coverage_radius@
CONST	SEGMENT
??_C@_0BE@HMOICOIG@air_coverage_radius@ DB 'air_coverage_radius', 00H ; `string'
CONST	ENDS
;	COMDAT ??_C@_0BC@ILHHLDFC@importance_radius@
CONST	SEGMENT
??_C@_0BC@ILHHLDFC@importance_radius@ DB 'importance_radius', 00H ; `string'
CONST	ENDS
;	COMDAT ??_C@_0BD@NBOKJPKH@minimum_efficiency@
CONST	SEGMENT
??_C@_0BD@NBOKJPKH@minimum_efficiency@ DB 'minimum_efficiency', 00H ; `string'
CONST	ENDS
;	COMDAT ??_C@_0L@KEGEKCCP@importance@
CONST	SEGMENT
??_C@_0L@KEGEKCCP@importance@ DB 'importance', 00H	; `string'
CONST	ENDS
;	COMDAT ??_C@_0BC@FMIIBAMJ@fuel_supply_level@
CONST	SEGMENT
??_C@_0BC@FMIIBAMJ@fuel_supply_level@ DB 'fuel_supply_level', 00H ; `string'
CONST	ENDS
;	COMDAT ??_C@_0BC@COIJDJHI@ammo_supply_level@
CONST	SEGMENT
??_C@_0BC@COIJDJHI@ammo_supply_level@ DB 'ammo_supply_level', 00H ; `string'
CONST	ENDS
;	COMDAT ??_C@_0M@NAMNMOIC@?$FLKEYSITES?$FN?6@
CONST	SEGMENT
??_C@_0M@NAMNMOIC@?$FLKEYSITES?$FN?6@ DB '[KEYSITES]', 0aH, 00H ; `string'
CONST	ENDS
;	COMDAT ??_C@_02DPKJAMEF@?$CFd@
CONST	SEGMENT
??_C@_02DPKJAMEF@?$CFd@ DB '%d', 00H			; `string'
CONST	ENDS
;	COMDAT ??_C@_0BC@KLAAKNAP@spiral_flightpath@
CONST	SEGMENT
??_C@_0BC@KLAAKNAP@spiral_flightpath@ DB 'spiral_flightpath', 00H ; `string'
CONST	ENDS
;	COMDAT ??_C@_0M@MMJCOPID@drag_factor@
CONST	SEGMENT
??_C@_0M@MMJCOPID@drag_factor@ DB 'drag_factor', 00H	; `string'
CONST	ENDS
;	COMDAT ??_C@_0BB@MEHCDDGB@max_seeker_limit@
CONST	SEGMENT
??_C@_0BB@MEHCDDGB@max_seeker_limit@ DB 'max_seeker_limit', 00H ; `string'
CONST	ENDS
;	COMDAT ??_C@_0BH@BJIJPPLG@max_launch_angle_error@
CONST	SEGMENT
??_C@_0BH@BJIJPPLG@max_launch_angle_error@ DB 'max_launch_angle_error', 00H ; `string'
CONST	ENDS
;	COMDAT ??_C@_0M@KJEAPNOM@reload_time@
CONST	SEGMENT
??_C@_0M@KJEAPNOM@reload_time@ DB 'reload_time', 00H	; `string'
CONST	ENDS
;	COMDAT ??_C@_0N@EONMFIGF@rate_of_fire@
CONST	SEGMENT
??_C@_0N@EONMFIGF@rate_of_fire@ DB 'rate_of_fire', 00H	; `string'
CONST	ENDS
;	COMDAT ??_C@_0P@IMCJNFCO@burst_duration@
CONST	SEGMENT
??_C@_0P@IMCJNFCO@burst_duration@ DB 'burst_duration', 00H ; `string'
CONST	ENDS
;	COMDAT ??_C@_0N@DFFMOLKF@inhibit_time@
CONST	SEGMENT
??_C@_0N@DFFMOLKF@inhibit_time@ DB 'inhibit_time', 00H	; `string'
CONST	ENDS
;	COMDAT ??_C@_0BG@GOJCGEML@cruise_time_max_error@
CONST	SEGMENT
??_C@_0BG@GOJCGEML@cruise_time_max_error@ DB 'cruise_time_max_error', 00H ; `string'
CONST	ENDS
;	COMDAT ??_C@_0M@IJHIGDHN@cruise_time@
CONST	SEGMENT
??_C@_0M@IJHIGDHN@cruise_time@ DB 'cruise_time', 00H	; `string'
CONST	ENDS
;	COMDAT ??_C@_09KJIOOHDO@burn_time@
CONST	SEGMENT
??_C@_09KJIOOHDO@burn_time@ DB 'burn_time', 00H		; `string'
CONST	ENDS
;	COMDAT ??_C@_0BK@EGMAGNBE@muzzle_velocity_max_error@
CONST	SEGMENT
??_C@_0BK@EGMAGNBE@muzzle_velocity_max_error@ DB 'muzzle_velocity_max_err'
	DB	'or', 00H					; `string'
CONST	ENDS
;	COMDAT ??_C@_0BA@HBBMJCKA@muzzle_velocity@
CONST	SEGMENT
??_C@_0BA@HBBMJCKA@muzzle_velocity@ DB 'muzzle_velocity', 00H ; `string'
CONST	ENDS
;	COMDAT ??_C@_0BG@HFMCPOCL@max_range_error_ratio@
CONST	SEGMENT
??_C@_0BG@HFMCPOCL@max_range_error_ratio@ DB 'max_range_error_ratio', 00H ; `string'
CONST	ENDS
;	COMDAT ??_C@_0P@GELOJJBB@max_range_loal@
CONST	SEGMENT
??_C@_0P@GELOJJBB@max_range_loal@ DB 'max_range_loal', 00H ; `string'
CONST	ENDS
;	COMDAT ??_C@_0P@EDAFPOCA@min_range_loal@
CONST	SEGMENT
??_C@_0P@EDAFPOCA@min_range_loal@ DB 'min_range_loal', 00H ; `string'
CONST	ENDS
;	COMDAT ??_C@_0BA@MJOCNFFF@effective_range@
CONST	SEGMENT
??_C@_0BA@MJOCNFFF@effective_range@ DB 'effective_range', 00H ; `string'
CONST	ENDS
;	COMDAT ??_C@_09LFAPKOJF@max_range@
CONST	SEGMENT
??_C@_09LFAPKOJF@max_range@ DB 'max_range', 00H		; `string'
CONST	ENDS
;	COMDAT ??_C@_09LEADDECB@min_range@
CONST	SEGMENT
??_C@_09LEADDECB@min_range@ DB 'min_range', 00H		; `string'
CONST	ENDS
;	COMDAT ??_C@_06CMCBKMCB@weight@
CONST	SEGMENT
??_C@_06CMCBKMCB@weight@ DB 'weight', 00H		; `string'
CONST	ENDS
;	COMDAT ??_C@_0BE@JPIDGIGC@weapon_class_debris@
CONST	SEGMENT
??_C@_0BE@JPIDGIGC@weapon_class_debris@ DB 'weapon_class_debris', 00H ; `string'
CONST	ENDS
;	COMDAT ??_C@_0BD@BKLOADK@weapon_class_cargo@
CONST	SEGMENT
??_C@_0BD@BKLOADK@weapon_class_cargo@ DB 'weapon_class_cargo', 00H ; `string'
CONST	ENDS
;	COMDAT ??_C@_0BD@BDAAKCNH@weapon_class_decoy@
CONST	SEGMENT
??_C@_0BD@BDAAKCNH@weapon_class_decoy@ DB 'weapon_class_decoy', 00H ; `string'
CONST	ENDS
;	COMDAT ??_C@_0CA@EOJKCMOP@weapon_class_surface_to_surface@
CONST	SEGMENT
??_C@_0CA@EOJKCMOP@weapon_class_surface_to_surface@ DB 'weapon_class_surf'
	DB	'ace_to_surface', 00H			; `string'
CONST	ENDS
;	COMDAT ??_C@_0BM@GGOBIAKP@weapon_class_surface_to_air@
CONST	SEGMENT
??_C@_0BM@GGOBIAKP@weapon_class_surface_to_air@ DB 'weapon_class_surface_'
	DB	'to_air', 00H				; `string'
CONST	ENDS
;	COMDAT ??_C@_0BM@CCIDHLLB@weapon_class_air_to_surface@
CONST	SEGMENT
??_C@_0BM@CCIDHLLB@weapon_class_air_to_surface@ DB 'weapon_class_air_to_s'
	DB	'urface', 00H				; `string'
CONST	ENDS
;	COMDAT ??_C@_0BI@BDOGIFDO@weapon_class_air_to_air@
CONST	SEGMENT
??_C@_0BI@BDOGIFDO@weapon_class_air_to_air@ DB 'weapon_class_air_to_air', 00H ; `string'
CONST	ENDS
;	COMDAT ??_C@_0BI@KGIEMPFM@hellfire_flight_profile@
CONST	SEGMENT
??_C@_0BI@KGIEMPFM@hellfire_flight_profile@ DB 'hellfire_flight_profile', 00H ; `string'
CONST	ENDS
;	COMDAT ??_C@_0BB@KOPLBPAJ@boresight_weapon@
CONST	SEGMENT
??_C@_0BB@KOPLBPAJ@boresight_weapon@ DB 'boresight_weapon', 00H ; `string'
CONST	ENDS
;	COMDAT ??_C@_0BA@IIAOCNLL@viewable_weapon@
CONST	SEGMENT
??_C@_0BA@IIAOCNLL@viewable_weapon@ DB 'viewable_weapon', 00H ; `string'
CONST	ENDS
;	COMDAT ??_C@_0BK@JGEFAOLG@in_flight_collision_check@
CONST	SEGMENT
??_C@_0BK@JGEFAOLG@in_flight_collision_check@ DB 'in_flight_collision_che'
	DB	'ck', 00H					; `string'
CONST	ENDS
;	COMDAT ??_C@_0BG@PAFLPEOM@survive_ground_impact@
CONST	SEGMENT
??_C@_0BG@PAFLPEOM@survive_ground_impact@ DB 'survive_ground_impact', 00H ; `string'
CONST	ENDS
;	COMDAT ??_C@_0P@JIAABPMB@ignore_gravity@
CONST	SEGMENT
??_C@_0P@JIAABPMB@ignore_gravity@ DB 'ignore_gravity', 00H ; `string'
CONST	ENDS
;	COMDAT ??_C@_0CA@BGMLJGNH@acquire_parent_forward_velocity@
CONST	SEGMENT
??_C@_0CA@BGMLJGNH@acquire_parent_forward_velocity@ DB 'acquire_parent_fo'
	DB	'rward_velocity', 00H			; `string'
CONST	ENDS
;	COMDAT ??_C@_0BB@GGHOFCFK@smoke_trail_type@
CONST	SEGMENT
??_C@_0BB@GGHOFCFK@smoke_trail_type@ DB 'smoke_trail_type', 00H ; `string'
CONST	ENDS
;	COMDAT ??_C@_0BH@JHACPNNJ@hard_damage_capability@
CONST	SEGMENT
??_C@_0BH@JHACPNNJ@hard_damage_capability@ DB 'hard_damage_capability', 00H ; `string'
CONST	ENDS
;	COMDAT ??_C@_0BH@JCEFMAHM@soft_damage_capability@
CONST	SEGMENT
??_C@_0BH@JCEFMAHM@soft_damage_capability@ DB 'soft_damage_capability', 00H ; `string'
CONST	ENDS
;	COMDAT ??_C@_09HOOAENGL@gun_shake@
CONST	SEGMENT
??_C@_09HOOAENGL@gun_shake@ DB 'gun_shake', 00H		; `string'
CONST	ENDS
;	COMDAT ??_C@_0BG@MFIFEALF@report_ammo_low_count@
CONST	SEGMENT
??_C@_0BG@MFIFEALF@report_ammo_low_count@ DB 'report_ammo_low_count', 00H ; `string'
CONST	ENDS
;	COMDAT ??_C@_0N@DOAPKEMB@warhead_type@
CONST	SEGMENT
??_C@_0N@DOAPKEMB@warhead_type@ DB 'warhead_type', 00H	; `string'
CONST	ENDS
;	COMDAT ??_C@_0L@PNKIBKJK@decoy_type@
CONST	SEGMENT
??_C@_0L@PNKIBKJK@decoy_type@ DB 'decoy_type', 00H	; `string'
CONST	ENDS
;	COMDAT ??_C@_0M@OICLCNBO@aiming_type@
CONST	SEGMENT
??_C@_0M@OICLCNBO@aiming_type@ DB 'aiming_type', 00H	; `string'
CONST	ENDS
;	COMDAT ??_C@_0O@LDNBMKIO@guidance_type@
CONST	SEGMENT
??_C@_0O@LDNBMKIO@guidance_type@ DB 'guidance_type', 00H ; `string'
CONST	ENDS
;	COMDAT ??_C@_0L@JIDGEPHK@?$FLWEAPONS?$FN?6@
CONST	SEGMENT
??_C@_0L@JIDGEPHK@?$FLWEAPONS?$FN?6@ DB '[WEAPONS]', 0aH, 00H ; `string'
CONST	ENDS
;	COMDAT ??_C@_08KAFEPAPG@?5?0?5?0?5?0?5?0@
CONST	SEGMENT
??_C@_08KAFEPAPG@?5?0?5?0?5?0?5?0@ DB ' , , , ,', 00H	; `string'
CONST	ENDS
;	COMDAT ??_C@_08EMKOFBJB@?$CFs?5Open?0@
CONST	SEGMENT
??_C@_08EMKOFBJB@?$CFs?5Open?0@ DB '%s Open,', 00H	; `string'
CONST	ENDS
;	COMDAT ??_C@_0M@OMHFOILL@?$CFs?5Covered?0@
CONST	SEGMENT
??_C@_0M@OMHFOILL@?$CFs?5Covered?0@ DB '%s Covered,', 00H ; `string'
CONST	ENDS
;	COMDAT ??_C@_0BB@OANDAKGN@?$CFs?5Kneeling?5CIS?0@
CONST	SEGMENT
??_C@_0BB@OANDAKGN@?$CFs?5Kneeling?5CIS?0@ DB '%s Kneeling CIS,', 00H ; `string'
CONST	ENDS
;	COMDAT ??_C@_0BB@IJABEAE@?$CFs?5Standing?5CIS?0@
CONST	SEGMENT
??_C@_0BB@IJABEAE@?$CFs?5Standing?5CIS?0@ DB '%s Standing CIS,', 00H ; `string'
CONST	ENDS
;	COMDAT ??_C@_0BA@PBLBJGGA@?$CFs?5Unarmed?5CIS?0@
CONST	SEGMENT
??_C@_0BA@PBLBJGGA@?$CFs?5Unarmed?5CIS?0@ DB '%s Unarmed CIS,', 00H ; `string'
CONST	ENDS
;	COMDAT ??_C@_0BA@PIFPFEDF@?$CFs?5Kneeling?5US?0@
CONST	SEGMENT
??_C@_0BA@PIFPFEDF@?$CFs?5Kneeling?5US?0@ DB '%s Kneeling US,', 00H ; `string'
CONST	ENDS
;	COMDAT ??_C@_0BA@DJFAOHC@?$CFs?5Standing?5US?0@
CONST	SEGMENT
??_C@_0BA@DJFAOHC@?$CFs?5Standing?5US?0@ DB '%s Standing US,', 00H ; `string'
CONST	ENDS
;	COMDAT ??_C@_0P@JLMIAFOO@?$CFs?5Unarmed?5US?0@
CONST	SEGMENT
??_C@_0P@JLMIAFOO@?$CFs?5Unarmed?5US?0@ DB '%s Unarmed US,', 00H ; `string'
CONST	ENDS
;	COMDAT ??_C@_0BI@LIMIOFIN@warhead_effective_class@
CONST	SEGMENT
??_C@_0BI@LIMIOFIN@warhead_effective_class@ DB 'warhead_effective_class', 00H ; `string'
CONST	ENDS
;	COMDAT ??_C@_0M@IPDJNJFJ@armour_rear@
CONST	SEGMENT
??_C@_0M@IPDJNJFJ@armour_rear@ DB 'armour_rear', 00H	; `string'
CONST	ENDS
;	COMDAT ??_C@_0M@PLMHAJCM@armour_side@
CONST	SEGMENT
??_C@_0M@PLMHAJCM@armour_side@ DB 'armour_side', 00H	; `string'
CONST	ENDS
;	COMDAT ??_C@_0N@OGAPEKED@armour_front@
CONST	SEGMENT
??_C@_0N@OGAPEKED@armour_front@ DB 'armour_front', 00H	; `string'
CONST	ENDS
;	COMDAT ??_C@_0CE@KDJGGNPD@potential_surface_to_surface_th@
CONST	SEGMENT
??_C@_0CE@KDJGGNPD@potential_surface_to_surface_th@ DB 'potential_surface'
	DB	'_to_surface_threat', 00H			; `string'
CONST	ENDS
;	COMDAT ??_C@_0CA@FPEGBEK@potential_surface_to_air_threat@
CONST	SEGMENT
??_C@_0CA@FPEGBEK@potential_surface_to_air_threat@ DB 'potential_surface_'
	DB	'to_air_threat', 00H				; `string'
CONST	ENDS
;	COMDAT ??_C@_0BB@IIEJPLCJ@air_scan_ceiling@
CONST	SEGMENT
??_C@_0BB@IIEJPLCJ@air_scan_ceiling@ DB 'air_scan_ceiling', 00H ; `string'
CONST	ENDS
;	COMDAT ??_C@_0P@NMHJCNEO@air_scan_floor@
CONST	SEGMENT
??_C@_0P@NMHJCNEO@air_scan_floor@ DB 'air_scan_floor', 00H ; `string'
CONST	ENDS
;	COMDAT ??_C@_0BB@GCPDPIAG@max_acceleration@
CONST	SEGMENT
??_C@_0BB@GCPDPIAG@max_acceleration@ DB 'max_acceleration', 00H ; `string'
CONST	ENDS
;	COMDAT ??_C@_0M@EIBFPEPD@axle_length@
CONST	SEGMENT
??_C@_0M@EIBFPEPD@axle_length@ DB 'axle_length', 00H	; `string'
CONST	ENDS
;	COMDAT ??_C@_0BH@PFMMOFND@carries_smoke_grenades@
CONST	SEGMENT
??_C@_0BH@PFMMOFND@carries_smoke_grenades@ DB 'carries_smoke_grenades', 00H ; `string'
CONST	ENDS
;	COMDAT ??_C@_0M@NDGIMNEF@target_type@
CONST	SEGMENT
??_C@_0M@NDGIMNEF@target_type@ DB 'target_type', 00H	; `string'
CONST	ENDS
;	COMDAT ??_C@_0M@KIJKODCH@?$FLVEHICLES?$FN?6@
CONST	SEGMENT
??_C@_0M@KIJKODCH@?$FLVEHICLES?$FN?6@ DB '[VEHICLES]', 0aH, 00H ; `string'
CONST	ENDS
;	COMDAT ??_C@_03PMGGPEJJ@?$CFd?6@
CONST	SEGMENT
??_C@_03PMGGPEJJ@?$CFd?6@ DB '%d', 0aH, 00H		; `string'
CONST	ENDS
;	COMDAT ??_C@_03DNPOMJOE@?$CFg?0@
CONST	SEGMENT
??_C@_03DNPOMJOE@?$CFg?0@ DB '%g,', 00H			; `string'
CONST	ENDS
;	COMDAT ??_C@_0P@IDGCIBNB@?5?0?5?0?5?0?5?0?5?0?5?0?5?0@
CONST	SEGMENT
??_C@_0P@IDGCIBNB@?5?0?5?0?5?0?5?0?5?0?5?0?5?0@ DB ' , , , , , , ,', 00H ; `string'
CONST	ENDS
;	COMDAT ??_C@_03DPLIHHLN@?$CFd?0@
CONST	SEGMENT
??_C@_03DPLIHHLN@?$CFd?0@ DB '%d,', 00H			; `string'
CONST	ENDS
;	COMDAT ??_C@_03OFAPEBGM@?$CFs?6@
CONST	SEGMENT
??_C@_03OFAPEBGM@?$CFs?6@ DB '%s', 0aH, 00H		; `string'
CONST	ENDS
;	COMDAT ??_C@_0N@OMGKPKMJ@points_value@
CONST	SEGMENT
??_C@_0N@OMGKPKMJ@points_value@ DB 'points_value', 00H	; `string'
CONST	ENDS
;	COMDAT ??_C@_0BE@LJBAGENL@player_controllable@
CONST	SEGMENT
??_C@_0BE@LJBAGENL@player_controllable@ DB 'player_controllable', 00H ; `string'
CONST	ENDS
;	COMDAT ??_C@_0BF@OPPGPJDA@offensive_capability@
CONST	SEGMENT
??_C@_0BF@OPPGPJDA@offensive_capability@ DB 'offensive_capability', 00H ; `string'
CONST	ENDS
;	COMDAT ??_C@_0BA@IMMJCANI@explosive_power@
CONST	SEGMENT
??_C@_0BA@IMMJCANI@explosive_power@ DB 'explosive_power', 00H ; `string'
CONST	ENDS
;	COMDAT ??_C@_0BC@IPAJHBFC@explosive_quality@
CONST	SEGMENT
??_C@_0BC@IPAJHBFC@explosive_quality@ DB 'explosive_quality', 00H ; `string'
CONST	ENDS
;	COMDAT ??_C@_0BF@JPIPGBMH@initial_damage_level@
CONST	SEGMENT
??_C@_0BF@JPIPGBMH@initial_damage_level@ DB 'initial_damage_level', 00H ; `string'
CONST	ENDS
;	COMDAT ??_C@_0BC@DKOOLAJE@main_rotor_radius@
CONST	SEGMENT
??_C@_0BC@DKOOLAJE@main_rotor_radius@ DB 'main_rotor_radius', 00H ; `string'
CONST	ENDS
;	COMDAT ??_C@_0BG@OILIBHNK@number_of_main_rotors@
CONST	SEGMENT
??_C@_0BG@OILIBHNK@number_of_main_rotors@ DB 'number_of_main_rotors', 00H ; `string'
CONST	ENDS
;	COMDAT ??_C@_0N@IFIFOLKE@fuel_economy@
CONST	SEGMENT
??_C@_0N@IFIFOLKE@fuel_economy@ DB 'fuel_economy', 00H	; `string'
CONST	ENDS
;	COMDAT ??_C@_0BE@EILOBNPM@fuel_default_weight@
CONST	SEGMENT
??_C@_0BE@EILOBNPM@fuel_default_weight@ DB 'fuel_default_weight', 00H ; `string'
CONST	ENDS
;	COMDAT ??_C@_0N@KDBGCMLI@ammo_economy@
CONST	SEGMENT
??_C@_0N@KDBGCMLI@ammo_economy@ DB 'ammo_economy', 00H	; `string'
CONST	ENDS
;	COMDAT ??_C@_0CA@LKMEIEEE@potential_air_to_surface_threat@
CONST	SEGMENT
??_C@_0CA@LKMEIEEE@potential_air_to_surface_threat@ DB 'potential_air_to_'
	DB	'surface_threat', 00H			; `string'
CONST	ENDS
;	COMDAT ??_C@_0BM@HBABFPLO@potential_air_to_air_threat@
CONST	SEGMENT
??_C@_0BM@HBABFPLO@potential_air_to_air_threat@ DB 'potential_air_to_air_'
	DB	'threat', 00H				; `string'
CONST	ENDS
;	COMDAT ??_C@_0BD@DFEIMDEP@surface_scan_range@
CONST	SEGMENT
??_C@_0BD@DFEIMDEP@surface_scan_range@ DB 'surface_scan_range', 00H ; `string'
CONST	ENDS
;	COMDAT ??_C@_0P@PICBLDJ@air_scan_range@
CONST	SEGMENT
??_C@_0P@PICBLDJ@air_scan_range@ DB 'air_scan_range', 00H ; `string'
CONST	ENDS
;	COMDAT ??_C@_0BC@BBBJKKMK@target_scan_delay@
CONST	SEGMENT
??_C@_0BC@BBBJKKMK@target_scan_delay@ DB 'target_scan_delay', 00H ; `string'
CONST	ENDS
;	COMDAT ??_C@_0N@KPEEILEF@recon_radius@
CONST	SEGMENT
??_C@_0N@KPEEILEF@recon_radius@ DB 'recon_radius', 00H	; `string'
CONST	ENDS
;	COMDAT ??_C@_0BF@NIBNMMBC@tail_rotor_direction@
CONST	SEGMENT
??_C@_0BF@NIBNMMBC@tail_rotor_direction@ DB 'tail_rotor_direction', 00H ; `string'
CONST	ENDS
;	COMDAT ??_C@_0N@PKCIOEFJ@power_output@
CONST	SEGMENT
??_C@_0N@PKCIOEFJ@power_output@ DB 'power_output', 00H	; `string'
CONST	ENDS
;	COMDAT ??_C@_05IGDAEEJD@g_max@
CONST	SEGMENT
??_C@_05IGDAEEJD@g_max@ DB 'g_max', 00H			; `string'
CONST	ENDS
;	COMDAT ??_C@_0BB@GBEPPNPB@avoidance_radius@
CONST	SEGMENT
??_C@_0BB@GBEPPNPB@avoidance_radius@ DB 'avoidance_radius', 00H ; `string'
CONST	ENDS
;	COMDAT ??_C@_0BM@HPMEGNJI@max_vertical_turn_allowance@
CONST	SEGMENT
??_C@_0BM@HPMEGNJI@max_vertical_turn_allowance@ DB 'max_vertical_turn_all'
	DB	'owance', 00H				; `string'
CONST	ENDS
;	COMDAT ??_C@_08OCBGELPM@max_roll@
CONST	SEGMENT
??_C@_08OCBGELPM@max_roll@ DB 'max_roll', 00H		; `string'
CONST	ENDS
;	COMDAT ??_C@_0O@MJEOGANB@max_turn_rate@
CONST	SEGMENT
??_C@_0O@MJEOGANB@max_turn_rate@ DB 'max_turn_rate', 00H ; `string'
CONST	ENDS
;	COMDAT ??_C@_0BE@MNADIOKK@propellor_direction@
CONST	SEGMENT
??_C@_0BE@MNADIOKK@propellor_direction@ DB 'propellor_direction', 00H ; `string'
CONST	ENDS
;	COMDAT ??_C@_0BN@LJAAFAJN@main_rotor_blade_droop_angle@
CONST	SEGMENT
??_C@_0BN@LJAAFAJN@main_rotor_blade_droop_angle@ DB 'main_rotor_blade_dro'
	DB	'op_angle', 00H				; `string'
CONST	ENDS
;	COMDAT ??_C@_0BF@CMAFDPJF@main_rotor_direction@
CONST	SEGMENT
??_C@_0BF@CMAFDPJF@main_rotor_direction@ DB 'main_rotor_direction', 00H ; `string'
CONST	ENDS
;	COMDAT ??_C@_0BH@LIPCLOFP@main_rotor_shaft_angle@
CONST	SEGMENT
??_C@_0BH@LIPCLOFP@main_rotor_shaft_angle@ DB 'main_rotor_shaft_angle', 00H ; `string'
CONST	ENDS
;	COMDAT ??_C@_0BB@CCPNGAIP@liftoff_velocity@
CONST	SEGMENT
??_C@_0BB@CCPNGAIP@liftoff_velocity@ DB 'liftoff_velocity', 00H ; `string'
CONST	ENDS
;	COMDAT ??_C@_0P@JKIIHMOB@fuselage_angle@
CONST	SEGMENT
??_C@_0P@JKIIHMOB@fuselage_angle@ DB 'fuselage_angle', 00H ; `string'
CONST	ENDS
;	COMDAT ??_C@_0BH@GKPMHBAM@destroyed_pitch_offset@
CONST	SEGMENT
??_C@_0BH@GKPMHBAM@destroyed_pitch_offset@ DB 'destroyed_pitch_offset', 00H ; `string'
CONST	ENDS
;	COMDAT ??_C@_0BG@OGFMJPKK@destroyed_bank_offset@
CONST	SEGMENT
??_C@_0BG@OGFMJPKK@destroyed_bank_offset@ DB 'destroyed_bank_offset', 00H ; `string'
CONST	ENDS
;	COMDAT ??_C@_0BA@LAKKDKLB@attack_altitude@
CONST	SEGMENT
??_C@_0BA@LAKKDKLB@attack_altitude@ DB 'attack_altitude', 00H ; `string'
CONST	ENDS
;	COMDAT ??_C@_0BA@IMJCDPMB@cruise_altitude@
CONST	SEGMENT
??_C@_0BA@IMJCDPMB@cruise_altitude@ DB 'cruise_altitude', 00H ; `string'
CONST	ENDS
;	COMDAT ??_C@_0BA@OLEKGHHO@cruise_velocity@
CONST	SEGMENT
??_C@_0BA@OLEKGHHO@cruise_velocity@ DB 'cruise_velocity', 00H ; `string'
CONST	ENDS
;	COMDAT ??_C@_0BN@KLDFGKDG@chase_view_max_distance_test@
CONST	SEGMENT
??_C@_0BN@KLDFGKDG@chase_view_max_distance_test@ DB 'chase_view_max_dista'
	DB	'nce_test', 00H				; `string'
CONST	ENDS
;	COMDAT ??_C@_0BN@PIJDHCNC@chase_view_min_distance_test@
CONST	SEGMENT
??_C@_0BN@PIJDHCNC@chase_view_min_distance_test@ DB 'chase_view_min_dista'
	DB	'nce_test', 00H				; `string'
CONST	ENDS
;	COMDAT ??_C@_0BI@OGCOKNND@chase_view_max_distance@
CONST	SEGMENT
??_C@_0BI@OGCOKNND@chase_view_max_distance@ DB 'chase_view_max_distance', 00H ; `string'
CONST	ENDS
;	COMDAT ??_C@_0BI@KGGBNFKF@chase_view_min_distance@
CONST	SEGMENT
??_C@_0BI@KGGBNFKF@chase_view_min_distance@ DB 'chase_view_min_distance', 00H ; `string'
CONST	ENDS
;	COMDAT ??_C@_0CP@LIHEKIBI@centre_of_gravity_to_ground_dis@
CONST	SEGMENT
??_C@_0CP@LIHEKIBI@centre_of_gravity_to_ground_dis@ DB 'centre_of_gravity'
	DB	'_to_ground_distance_destroyed', 00H		; `string'
CONST	ENDS
;	COMDAT ??_C@_0CF@INDHHFLP@centre_of_gravity_to_ground_dis@
CONST	SEGMENT
??_C@_0CF@INDHHFLP@centre_of_gravity_to_ground_dis@ DB 'centre_of_gravity'
	DB	'_to_ground_distance', 00H			; `string'
CONST	ENDS
;	COMDAT ??_C@_0M@CJJNFLM@threat_type@
CONST	SEGMENT
??_C@_0M@CJJNFLM@threat_type@ DB 'threat_type', 00H	; `string'
CONST	ENDS
;	COMDAT ??_C@_0BE@NPOJFGGJ@force_info_catagory@
CONST	SEGMENT
??_C@_0BE@NPOJFGGJ@force_info_catagory@ DB 'force_info_catagory', 00H ; `string'
CONST	ENDS
;	COMDAT ??_C@_0BF@CMHOELLN@target_priority_type@
CONST	SEGMENT
??_C@_0BF@CMHOELLN@target_priority_type@ DB 'target_priority_type', 00H ; `string'
CONST	ENDS
;	COMDAT ??_C@_0BD@KFEIDFO@target_symbol_type@
CONST	SEGMENT
??_C@_0BD@KFEIDFO@target_symbol_type@ DB 'target_symbol_type', 00H ; `string'
CONST	ENDS
;	COMDAT ??_C@_0BE@GAKPEDIG@default_weapon_type@
CONST	SEGMENT
??_C@_0BE@GAKPEDIG@default_weapon_type@ DB 'default_weapon_type', 00H ; `string'
CONST	ENDS
;	COMDAT ??_C@_0BJ@IBOCPANC@scout_weapon_config_type@
CONST	SEGMENT
??_C@_0BJ@IBOCPANC@scout_weapon_config_type@ DB 'scout_weapon_config_type'
	DB	00H						; `string'
CONST	ENDS
;	COMDAT ??_C@_0CC@GMHHKJPN@air_to_surface_weapon_config_ty@
CONST	SEGMENT
??_C@_0CC@GMHHKJPN@air_to_surface_weapon_config_ty@ DB 'air_to_surface_we'
	DB	'apon_config_type', 00H			; `string'
CONST	ENDS
;	COMDAT ??_C@_0BO@EGCLMAJK@air_to_air_weapon_config_type@
CONST	SEGMENT
??_C@_0BO@EGCLMAJK@air_to_air_weapon_config_type@ DB 'air_to_air_weapon_c'
	DB	'onfig_type', 00H				; `string'
CONST	ENDS
;	COMDAT ??_C@_0BH@NDKLDEID@max_weapon_config_type@
CONST	SEGMENT
??_C@_0BH@NDKLDEID@max_weapon_config_type@ DB 'max_weapon_config_type', 00H ; `string'
CONST	ENDS
;	COMDAT ??_C@_0BH@NHDBAFKJ@min_weapon_config_type@
CONST	SEGMENT
??_C@_0BH@NHDBAFKJ@min_weapon_config_type@ DB 'min_weapon_config_type', 00H ; `string'
CONST	ENDS
;	COMDAT ??_C@_0BL@LPABPCFJ@default_weapon_config_type@
CONST	SEGMENT
??_C@_0BL@LPABPCFJ@default_weapon_config_type@ DB 'default_weapon_config_'
	DB	'type', 00H					; `string'
CONST	ENDS
;	COMDAT ??_C@_05BINPNAAL@force@
CONST	SEGMENT
??_C@_05BINPNAAL@force@ DB 'force', 00H			; `string'
CONST	ENDS
;	COMDAT ??_C@_03CGNBMCEI@?$CFs?0@
CONST	SEGMENT
??_C@_03CGNBMCEI@?$CFs?0@ DB '%s,', 00H			; `string'
CONST	ENDS
;	COMDAT ??_C@_09LBCPNCLI@full_name@
CONST	SEGMENT
??_C@_09LBCPNCLI@full_name@ DB 'full_name', 00H		; `string'
CONST	ENDS
;	COMDAT ??_C@_0M@DKAFMAAL@?$FLAIRCRAFT?$FN?6@
CONST	SEGMENT
??_C@_0M@DKAFMAAL@?$FLAIRCRAFT?$FN?6@ DB '[AIRCRAFT]', 0aH, 00H ; `string'
CONST	ENDS
;	COMDAT ??_C@_01EEMJAFIK@?6@
CONST	SEGMENT
??_C@_01EEMJAFIK@?6@ DB 0aH, 00H			; `string'
CONST	ENDS
;	COMDAT ??_C@_04DBHEMPKL@GWUT@
CONST	SEGMENT
??_C@_04DBHEMPKL@GWUT@ DB 'GWUT', 00H			; `string'
CONST	ENDS
;	COMDAT ??_C@_01NOFIACDB@w@
CONST	SEGMENT
??_C@_01NOFIACDB@w@ DB 'w', 00H				; `string'
CONST	ENDS
; Function compile flags: /Odtp /ZI
; File c:\users\nhv90\projects\eech\aphavoc\source\gwutcfg.c
;	COMDAT ?ReadGWutInfo@@YGXPBD@Z
_TEXT	SEGMENT
tv4812 = -2428						; size = 8
tv4327 = -2428						; size = 8
tv4807 = -2420						; size = 8
tv4322 = -2420						; size = 8
tv5459 = -2412						; size = 8
tv5457 = -2412						; size = 8
tv5232 = -2408						; size = 8
tv4510 = -2408						; size = 8
tv4252 = -2408						; size = 8
tv4109 = -2408						; size = 8
tv4088 = -2408						; size = 8
tv4083 = -2408						; size = 8
tv4074 = -2408						; size = 8
tv4065 = -2408						; size = 8
tv4056 = -2408						; size = 8
tv4051 = -2408						; size = 8
tv4046 = -2408						; size = 8
tv1444 = -2408						; size = 8
tv5448 = -2404						; size = 4
tv5443 = -2404						; size = 4
tv5438 = -2404						; size = 4
tv5433 = -2404						; size = 4
tv5428 = -2404						; size = 4
tv5423 = -2404						; size = 4
tv5418 = -2404						; size = 4
tv5413 = -2404						; size = 4
tv5408 = -2404						; size = 4
tv5403 = -2404						; size = 4
tv5398 = -2404						; size = 4
tv5393 = -2404						; size = 4
tv5388 = -2404						; size = 4
tv5383 = -2404						; size = 4
tv5378 = -2404						; size = 4
tv5373 = -2404						; size = 4
tv5368 = -2404						; size = 4
tv5363 = -2404						; size = 4
tv5358 = -2404						; size = 4
tv5353 = -2404						; size = 4
tv5348 = -2404						; size = 4
tv5343 = -2404						; size = 4
tv5338 = -2404						; size = 4
tv5333 = -2404						; size = 4
tv5328 = -2404						; size = 4
tv5323 = -2404						; size = 4
tv5318 = -2404						; size = 4
tv5313 = -2404						; size = 4
tv5265 = -2404						; size = 4
tv5257 = -2404						; size = 4
tv5249 = -2404						; size = 4
tv5241 = -2404						; size = 4
tv5224 = -2404						; size = 4
tv5153 = -2404						; size = 4
tv5149 = -2404						; size = 4
tv5145 = -2404						; size = 4
tv5141 = -2404						; size = 4
tv5117 = -2404						; size = 4
tv5113 = -2404						; size = 4
tv5109 = -2404						; size = 4
tv5105 = -2404						; size = 4
tv5081 = -2404						; size = 4
tv5077 = -2404						; size = 4
tv5073 = -2404						; size = 4
tv5069 = -2404						; size = 4
tv5045 = -2404						; size = 4
tv5041 = -2404						; size = 4
tv5037 = -2404						; size = 4
tv5033 = -2404						; size = 4
tv4586 = -2404						; size = 4
tv4582 = -2404						; size = 4
tv4578 = -2404						; size = 4
tv4574 = -2404						; size = 4
tv4570 = -2404						; size = 4
tv4566 = -2404						; size = 4
tv4562 = -2404						; size = 4
tv4558 = -2404						; size = 4
tv4528 = -2404						; size = 4
tv4515 = -2404						; size = 4
tv4506 = -2404						; size = 4
tv4500 = -2404						; size = 4
tv4496 = -2404						; size = 4
tv4492 = -2404						; size = 4
tv4488 = -2404						; size = 4
tv4484 = -2404						; size = 4
tv4480 = -2404						; size = 4
tv4476 = -2404						; size = 4
tv4472 = -2404						; size = 4
tv4468 = -2404						; size = 4
tv4464 = -2404						; size = 4
tv4460 = -2404						; size = 4
tv4456 = -2404						; size = 4
tv4452 = -2404						; size = 4
tv4448 = -2404						; size = 4
tv4444 = -2404						; size = 4
tv4440 = -2404						; size = 4
tv4436 = -2404						; size = 4
tv4313 = -2404						; size = 4
tv4309 = -2404						; size = 4
tv4305 = -2404						; size = 4
tv4301 = -2404						; size = 4
tv4297 = -2404						; size = 4
tv4293 = -2404						; size = 4
tv4289 = -2404						; size = 4
tv4285 = -2404						; size = 4
tv4281 = -2404						; size = 4
tv4277 = -2404						; size = 4
tv4273 = -2404						; size = 4
tv4269 = -2404						; size = 4
tv4265 = -2404						; size = 4
tv4261 = -2404						; size = 4
tv4257 = -2404						; size = 4
tv4248 = -2404						; size = 4
tv4244 = -2404						; size = 4
tv4240 = -2404						; size = 4
tv4236 = -2404						; size = 4
tv4232 = -2404						; size = 4
tv4228 = -2404						; size = 4
tv4224 = -2404						; size = 4
tv4154 = -2404						; size = 4
tv4150 = -2404						; size = 4
tv4146 = -2404						; size = 4
tv4142 = -2404						; size = 4
tv4138 = -2404						; size = 4
tv4134 = -2404						; size = 4
tv4130 = -2404						; size = 4
tv4126 = -2404						; size = 4
tv4122 = -2404						; size = 4
tv4118 = -2404						; size = 4
tv4114 = -2404						; size = 4
tv4105 = -2404						; size = 4
tv4101 = -2404						; size = 4
tv4097 = -2404						; size = 4
tv4093 = -2404						; size = 4
tv4079 = -2404						; size = 4
tv4070 = -2404						; size = 4
tv4061 = -2404						; size = 4
tv4042 = -2404						; size = 4
tv4038 = -2404						; size = 4
tv4034 = -2404						; size = 4
tv4030 = -2404						; size = 4
tv4026 = -2404						; size = 4
tv4022 = -2404						; size = 4
tv4018 = -2404						; size = 4
tv4014 = -2404						; size = 4
tv4010 = -2404						; size = 4
tv3442 = -2404						; size = 4
tv3426 = -2404						; size = 4
tv3410 = -2404						; size = 4
tv3395 = -2404						; size = 4
tv3338 = -2404						; size = 4
tv3322 = -2404						; size = 4
tv3306 = -2404						; size = 4
tv3291 = -2404						; size = 4
tv3239 = -2404						; size = 4
tv3223 = -2404						; size = 4
tv3207 = -2404						; size = 4
tv3192 = -2404						; size = 4
tv3140 = -2404						; size = 4
tv3124 = -2404						; size = 4
tv3108 = -2404						; size = 4
tv3093 = -2404						; size = 4
tv3041 = -2404						; size = 4
tv3025 = -2404						; size = 4
tv3009 = -2404						; size = 4
tv2994 = -2404						; size = 4
tv2935 = -2404						; size = 4
tv2919 = -2404						; size = 4
tv2903 = -2404						; size = 4
tv2887 = -2404						; size = 4
tv2871 = -2404						; size = 4
tv2855 = -2404						; size = 4
tv2839 = -2404						; size = 4
tv2823 = -2404						; size = 4
tv2808 = -2404						; size = 4
tv2646 = -2404						; size = 4
tv2630 = -2404						; size = 4
tv2614 = -2404						; size = 4
tv2598 = -2404						; size = 4
tv2582 = -2404						; size = 4
tv2566 = -2404						; size = 4
tv2550 = -2404						; size = 4
tv2534 = -2404						; size = 4
tv2518 = -2404						; size = 4
tv2502 = -2404						; size = 4
tv2486 = -2404						; size = 4
tv2470 = -2404						; size = 4
tv2454 = -2404						; size = 4
tv2438 = -2404						; size = 4
tv2422 = -2404						; size = 4
tv2406 = -2404						; size = 4
tv2391 = -2404						; size = 4
tv2375 = -2404						; size = 4
tv2359 = -2404						; size = 4
tv2343 = -2404						; size = 4
tv2327 = -2404						; size = 4
tv2312 = -2404						; size = 4
tv2294 = -2404						; size = 4
tv2272 = -2404						; size = 4
tv2257 = -2404						; size = 4
tv2121 = -2404						; size = 4
tv2105 = -2404						; size = 4
tv2089 = -2404						; size = 4
tv2073 = -2404						; size = 4
tv2057 = -2404						; size = 4
tv2041 = -2404						; size = 4
tv2025 = -2404						; size = 4
tv2010 = -2404						; size = 4
tv1856 = -2404						; size = 4
tv1840 = -2404						; size = 4
tv1824 = -2404						; size = 4
tv1808 = -2404						; size = 4
tv1792 = -2404						; size = 4
tv1776 = -2404						; size = 4
tv1760 = -2404						; size = 4
tv1744 = -2404						; size = 4
tv1728 = -2404						; size = 4
tv1712 = -2404						; size = 4
tv1696 = -2404						; size = 4
tv1664 = -2404						; size = 4
tv1648 = -2404						; size = 4
tv1632 = -2404						; size = 4
tv1042 = -2404						; size = 4
tv1026 = -2404						; size = 4
tv1010 = -2404						; size = 4
tv995 = -2404						; size = 4
tv975 = -2404						; size = 4
tv624 = -2404						; size = 4
tv603 = -2404						; size = 4
tv587 = -2404						; size = 4
tv572 = -2404						; size = 4
_seeker_limit$1 = -2080					; size = 4
_testdump$ = -2076					; size = 4
_p$ = -2072						; size = 4
_buf$ = -2068						; size = 2048
_k$ = -20						; size = 4
_j$ = -16						; size = 4
_i$ = -12						; size = 4
_fout$ = -8						; size = 4
_f$ = -4						; size = 4
_fname$ = 8						; size = 4
?ReadGWutInfo@@YGXPBD@Z PROC				; ReadGWutInfo, COMDAT

; 1174 : {

  00000	55		 push	 ebp
  00001	8b ec		 mov	 ebp, esp
  00003	81 ec 7c 09 00
	00		 sub	 esp, 2428		; 0000097cH
  00009	53		 push	 ebx
  0000a	56		 push	 esi
  0000b	57		 push	 edi

; 1175 : 	FILE *f;
; 1176 : 	FILE *fout;
; 1177 : 	int i, j, k;
; 1178 : 	char buf[2048];
; 1179 : 	char *p;
; 1180 : 	int testdump = 0;

  0000c	c7 85 e4 f7 ff
	ff 00 00 00 00	 mov	 DWORD PTR _testdump$[ebp], 0

; 1181 : 
; 1182 : 	READ_HEADER = 0;

  00016	c7 05 00 00 00
	00 00 00 00 00	 mov	 DWORD PTR ?READ_HEADER@@3HA, 0 ; READ_HEADER

; 1183 : 
; 1184 : 	if (testdump)

  00020	83 bd e4 f7 ff
	ff 00		 cmp	 DWORD PTR _testdump$[ebp], 0
  00027	74 2b		 je	 SHORT $LN22@ReadGWutIn

; 1185 : 	{
; 1186 : 		fout = fopen("dumpgwut.txt","w");

  00029	68 00 00 00 00	 push	 OFFSET ??_C@_01NOFIACDB@w@
  0002e	68 00 00 00 00	 push	 OFFSET ??_C@_0N@NEEIEGPN@dumpgwut?4txt@
  00033	ff 15 00 00 00
	00		 call	 DWORD PTR __imp__fopen
  00039	83 c4 08	 add	 esp, 8
  0003c	89 45 f8	 mov	 DWORD PTR _fout$[ebp], eax

; 1187 : 		fprintf(fout,"Dumping file: %s\n",fname);

  0003f	8b 45 08	 mov	 eax, DWORD PTR _fname$[ebp]
  00042	50		 push	 eax
  00043	68 00 00 00 00	 push	 OFFSET ??_C@_0BC@KOCDPDLA@Dumping?5file?3?5?$CFs?6@
  00048	8b 4d f8	 mov	 ecx, DWORD PTR _fout$[ebp]
  0004b	51		 push	 ecx
  0004c	e8 00 00 00 00	 call	 _fprintf
  00051	83 c4 0c	 add	 esp, 12			; 0000000cH
$LN22@ReadGWutIn:

; 1188 : 	}
; 1189 : /*
; 1190 : //VJ 040322 moved to the function parse_WUT_file
; 1191 : 
; 1192 : 	if (!file_exist(fname))
; 1193 : 	{
; 1194 : 		debug_fatal("WUT filename error",fname);
; 1195 : 		return;
; 1196 : 	}
; 1197 : */
; 1198 : 	f = fopen(fname, "r");

  00054	68 00 00 00 00	 push	 OFFSET ??_C@_01KDCPPGHE@r@
  00059	8b 45 08	 mov	 eax, DWORD PTR _fname$[ebp]
  0005c	50		 push	 eax
  0005d	ff 15 00 00 00
	00		 call	 DWORD PTR __imp__fopen
  00063	83 c4 08	 add	 esp, 8
  00066	89 45 fc	 mov	 DWORD PTR _f$[ebp], eax

; 1199 : 	if (!f)

  00069	83 7d fc 00	 cmp	 DWORD PTR _f$[ebp], 0
  0006d	75 16		 jne	 SHORT $LN23@ReadGWutIn

; 1200 : 	{
; 1201 : 		debug_fatal("Error opening GWUT file: [ %s ]",fname);

  0006f	8b 45 08	 mov	 eax, DWORD PTR _fname$[ebp]
  00072	50		 push	 eax
  00073	68 00 00 00 00	 push	 OFFSET ??_C@_0CA@POJFLOKO@Error?5opening?5GWUT?5file?3?5?$FL?5?$CFs?5?$FN@
  00078	e8 00 00 00 00	 call	 ?debug_fatal@@YAXPBDZZ	; debug_fatal
  0007d	83 c4 08	 add	 esp, 8

; 1202 : 		return;

  00080	e9 b3 51 00 00	 jmp	 $LN1@ReadGWutIn
$LN23@ReadGWutIn:

; 1203 : 	}
; 1204 : 
; 1205 : 	fscanf(f,"%[^\n]\n",buf);

  00085	8d 85 ec f7 ff
	ff		 lea	 eax, DWORD PTR _buf$[ebp]
  0008b	50		 push	 eax
  0008c	68 00 00 00 00	 push	 OFFSET ??_C@_06OPEKAKCJ@?$CF?$FL?$FO?6?$FN?6@
  00091	8b 4d fc	 mov	 ecx, DWORD PTR _f$[ebp]
  00094	51		 push	 ecx
  00095	e8 00 00 00 00	 call	 _fscanf
  0009a	83 c4 0c	 add	 esp, 12			; 0000000cH

; 1206 : 	// read file header
; 1207 : 	TESTDUMP(buf);

  0009d	83 bd e4 f7 ff
	ff 00		 cmp	 DWORD PTR _testdump$[ebp], 0
  000a4	74 25		 je	 SHORT $LN24@ReadGWutIn
  000a6	8d 85 ec f7 ff
	ff		 lea	 eax, DWORD PTR _buf$[ebp]
  000ac	50		 push	 eax
  000ad	68 00 00 00 00	 push	 OFFSET ??_C@_03OFAPEBGM@?$CFs?6@
  000b2	8b 4d f8	 mov	 ecx, DWORD PTR _fout$[ebp]
  000b5	51		 push	 ecx
  000b6	e8 00 00 00 00	 call	 _fprintf
  000bb	83 c4 0c	 add	 esp, 12			; 0000000cH
  000be	8b 45 f8	 mov	 eax, DWORD PTR _fout$[ebp]
  000c1	50		 push	 eax
  000c2	ff 15 00 00 00
	00		 call	 DWORD PTR __imp__fflush
  000c8	83 c4 04	 add	 esp, 4
$LN24@ReadGWutIn:

; 1208 : 
; 1209 : 	if (!strstr(buf,CURRENT_HEADER))

  000cb	68 00 00 00 00	 push	 OFFSET ??_C@_04DBHEMPKL@GWUT@
  000d0	8d 85 ec f7 ff
	ff		 lea	 eax, DWORD PTR _buf$[ebp]
  000d6	50		 push	 eax
  000d7	e8 00 00 00 00	 call	 ?strstr@@YAPADQADQBD@Z	; strstr
  000dc	83 c4 08	 add	 esp, 8
  000df	85 c0		 test	 eax, eax
  000e1	75 1d		 jne	 SHORT $LN25@ReadGWutIn

; 1210 : 	{
; 1211 : 		debug_fatal("GWUT file %s has the wrong header: %s",fname,buf);

  000e3	8d 85 ec f7 ff
	ff		 lea	 eax, DWORD PTR _buf$[ebp]
  000e9	50		 push	 eax
  000ea	8b 4d 08	 mov	 ecx, DWORD PTR _fname$[ebp]
  000ed	51		 push	 ecx
  000ee	68 00 00 00 00	 push	 OFFSET ??_C@_0CG@GNDAFGFP@GWUT?5file?5?$CFs?5has?5the?5wrong?5head@
  000f3	e8 00 00 00 00	 call	 ?debug_fatal@@YAXPBDZZ	; debug_fatal
  000f8	83 c4 0c	 add	 esp, 12			; 0000000cH

; 1212 : 		return;

  000fb	e9 38 51 00 00	 jmp	 $LN1@ReadGWutIn
$LN25@ReadGWutIn:

; 1213 : 	}
; 1214 : 
; 1215 : 	fscanf(f,"%[^\n]\n",buf);

  00100	8d 85 ec f7 ff
	ff		 lea	 eax, DWORD PTR _buf$[ebp]
  00106	50		 push	 eax
  00107	68 00 00 00 00	 push	 OFFSET ??_C@_06OPEKAKCJ@?$CF?$FL?$FO?6?$FN?6@
  0010c	8b 4d fc	 mov	 ecx, DWORD PTR _f$[ebp]
  0010f	51		 push	 ecx
  00110	e8 00 00 00 00	 call	 _fscanf
  00115	83 c4 0c	 add	 esp, 12			; 0000000cH

; 1216 : 	 //skip [AIRCRAFT] string
; 1217 : 	TESTDUMP(buf);

  00118	83 bd e4 f7 ff
	ff 00		 cmp	 DWORD PTR _testdump$[ebp], 0
  0011f	74 25		 je	 SHORT $LN26@ReadGWutIn
  00121	8d 85 ec f7 ff
	ff		 lea	 eax, DWORD PTR _buf$[ebp]
  00127	50		 push	 eax
  00128	68 00 00 00 00	 push	 OFFSET ??_C@_03OFAPEBGM@?$CFs?6@
  0012d	8b 4d f8	 mov	 ecx, DWORD PTR _fout$[ebp]
  00130	51		 push	 ecx
  00131	e8 00 00 00 00	 call	 _fprintf
  00136	83 c4 0c	 add	 esp, 12			; 0000000cH
  00139	8b 45 f8	 mov	 eax, DWORD PTR _fout$[ebp]
  0013c	50		 push	 eax
  0013d	ff 15 00 00 00
	00		 call	 DWORD PTR __imp__fflush
  00143	83 c4 04	 add	 esp, 4
$LN26@ReadGWutIn:

; 1218 : 
; 1219 : 	if (READ_HEADER)

  00146	83 3d 00 00 00
	00 00		 cmp	 DWORD PTR ?READ_HEADER@@3HA, 0 ; READ_HEADER
  0014d	74 18		 je	 SHORT $LN27@ReadGWutIn

; 1220 : 		fscanf(f,"%[^\n]\n",buf);

  0014f	8d 85 ec f7 ff
	ff		 lea	 eax, DWORD PTR _buf$[ebp]
  00155	50		 push	 eax
  00156	68 00 00 00 00	 push	 OFFSET ??_C@_06OPEKAKCJ@?$CF?$FL?$FO?6?$FN?6@
  0015b	8b 4d fc	 mov	 ecx, DWORD PTR _f$[ebp]
  0015e	51		 push	 ecx
  0015f	e8 00 00 00 00	 call	 _fscanf
  00164	83 c4 0c	 add	 esp, 12			; 0000000cH
$LN27@ReadGWutIn:

; 1221 : 	TESTDUMP(buf);

  00167	83 bd e4 f7 ff
	ff 00		 cmp	 DWORD PTR _testdump$[ebp], 0
  0016e	74 25		 je	 SHORT $LN28@ReadGWutIn
  00170	8d 85 ec f7 ff
	ff		 lea	 eax, DWORD PTR _buf$[ebp]
  00176	50		 push	 eax
  00177	68 00 00 00 00	 push	 OFFSET ??_C@_03OFAPEBGM@?$CFs?6@
  0017c	8b 4d f8	 mov	 ecx, DWORD PTR _fout$[ebp]
  0017f	51		 push	 ecx
  00180	e8 00 00 00 00	 call	 _fprintf
  00185	83 c4 0c	 add	 esp, 12			; 0000000cH
  00188	8b 45 f8	 mov	 eax, DWORD PTR _fout$[ebp]
  0018b	50		 push	 eax
  0018c	ff 15 00 00 00
	00		 call	 DWORD PTR __imp__fflush
  00192	83 c4 04	 add	 esp, 4
$LN28@ReadGWutIn:

; 1222 : 
; 1223 : 	fscanf(f,"%[^\n]\n",buf);

  00195	8d 85 ec f7 ff
	ff		 lea	 eax, DWORD PTR _buf$[ebp]
  0019b	50		 push	 eax
  0019c	68 00 00 00 00	 push	 OFFSET ??_C@_06OPEKAKCJ@?$CF?$FL?$FO?6?$FN?6@
  001a1	8b 4d fc	 mov	 ecx, DWORD PTR _f$[ebp]
  001a4	51		 push	 ecx
  001a5	e8 00 00 00 00	 call	 _fscanf
  001aa	83 c4 0c	 add	 esp, 12			; 0000000cH

; 1224 : 	 //read first values
; 1225 : 	TESTDUMP(buf);

  001ad	83 bd e4 f7 ff
	ff 00		 cmp	 DWORD PTR _testdump$[ebp], 0
  001b4	74 25		 je	 SHORT $LN29@ReadGWutIn
  001b6	8d 85 ec f7 ff
	ff		 lea	 eax, DWORD PTR _buf$[ebp]
  001bc	50		 push	 eax
  001bd	68 00 00 00 00	 push	 OFFSET ??_C@_03OFAPEBGM@?$CFs?6@
  001c2	8b 4d f8	 mov	 ecx, DWORD PTR _fout$[ebp]
  001c5	51		 push	 ecx
  001c6	e8 00 00 00 00	 call	 _fprintf
  001cb	83 c4 0c	 add	 esp, 12			; 0000000cH
  001ce	8b 45 f8	 mov	 eax, DWORD PTR _fout$[ebp]
  001d1	50		 push	 eax
  001d2	ff 15 00 00 00
	00		 call	 DWORD PTR __imp__fflush
  001d8	83 c4 04	 add	 esp, 4
$LN29@ReadGWutIn:

; 1226 : 
; 1227 : 	//[AIRCRAFT]
; 1228 : 	while (!(strcmp(buf,"[VEHICLES]")==0) && !(strcmp(buf,"[End of GWUT file]")==0))

  001db	68 00 00 00 00	 push	 OFFSET ??_C@_0L@BNOJJLLD@?$FLVEHICLES?$FN@
  001e0	8d 85 ec f7 ff
	ff		 lea	 eax, DWORD PTR _buf$[ebp]
  001e6	50		 push	 eax
  001e7	e8 00 00 00 00	 call	 _strcmp
  001ec	83 c4 08	 add	 esp, 8
  001ef	85 c0		 test	 eax, eax
  001f1	0f 84 16 0b 00
	00		 je	 $LN3@ReadGWutIn
  001f7	68 00 00 00 00	 push	 OFFSET ??_C@_0BD@EMPOBEGN@?$FLEnd?5of?5GWUT?5file?$FN@
  001fc	8d 85 ec f7 ff
	ff		 lea	 eax, DWORD PTR _buf$[ebp]
  00202	50		 push	 eax
  00203	e8 00 00 00 00	 call	 _strcmp
  00208	83 c4 08	 add	 esp, 8
  0020b	85 c0		 test	 eax, eax
  0020d	0f 84 fa 0a 00
	00		 je	 $LN3@ReadGWutIn

; 1229 : 	{
; 1230 : 		p = strtok(buf,",");

  00213	68 00 00 00 00	 push	 OFFSET ??_C@_01IHBHIGKO@?0@
  00218	8d 85 ec f7 ff
	ff		 lea	 eax, DWORD PTR _buf$[ebp]
  0021e	50		 push	 eax
  0021f	ff 15 00 00 00
	00		 call	 DWORD PTR __imp__strtok
  00225	83 c4 08	 add	 esp, 8
  00228	89 85 e8 f7 ff
	ff		 mov	 DWORD PTR _p$[ebp], eax

; 1231 : 		i = atoi(p);

  0022e	8b 85 e8 f7 ff
	ff		 mov	 eax, DWORD PTR _p$[ebp]
  00234	50		 push	 eax
  00235	ff 15 00 00 00
	00		 call	 DWORD PTR __imp__atoi
  0023b	83 c4 04	 add	 esp, 4
  0023e	89 45 f4	 mov	 DWORD PTR _i$[ebp], eax

; 1232 : 		//get entity number
; 1233 : 		p = strtok(NULL,",");

  00241	68 00 00 00 00	 push	 OFFSET ??_C@_01IHBHIGKO@?0@
  00246	6a 00		 push	 0
  00248	ff 15 00 00 00
	00		 call	 DWORD PTR __imp__strtok
  0024e	83 c4 08	 add	 esp, 8
  00251	89 85 e8 f7 ff
	ff		 mov	 DWORD PTR _p$[ebp], eax

; 1234 : 		//skip full name
; 1235 : 		aircraft_database[i].force                                         = ( entity_forces ) IntValue(p);

  00257	68 00 00 00 00	 push	 OFFSET ??_C@_01IHBHIGKO@?0@
  0025c	6a 00		 push	 0
  0025e	ff 15 00 00 00
	00		 call	 DWORD PTR __imp__strtok
  00264	83 c4 08	 add	 esp, 8
  00267	50		 push	 eax
  00268	ff 15 00 00 00
	00		 call	 DWORD PTR __imp__atoi
  0026e	83 c4 04	 add	 esp, 4
  00271	69 4d f4 f4 00
	00 00		 imul	 ecx, DWORD PTR _i$[ebp], 244
  00278	89 81 18 00 00
	00		 mov	 DWORD PTR ?aircraft_database@@3PAUAIRCRAFT_DATA@@A[ecx+24], eax

; 1236 : 		/*  Don't read weapons configs, the numbers have changed, so will be wrong in GWUT file! */
; 1237 : 		/*aircraft_database[i].default_weapon_config_type                    = */IntValue(p);

  0027e	68 00 00 00 00	 push	 OFFSET ??_C@_01IHBHIGKO@?0@
  00283	6a 00		 push	 0
  00285	ff 15 00 00 00
	00		 call	 DWORD PTR __imp__strtok
  0028b	83 c4 08	 add	 esp, 8
  0028e	50		 push	 eax
  0028f	ff 15 00 00 00
	00		 call	 DWORD PTR __imp__atoi
  00295	83 c4 04	 add	 esp, 4

; 1238 : 		/*aircraft_database[i].min_weapon_config_type                        = */ IntValue(p);

  00298	68 00 00 00 00	 push	 OFFSET ??_C@_01IHBHIGKO@?0@
  0029d	6a 00		 push	 0
  0029f	ff 15 00 00 00
	00		 call	 DWORD PTR __imp__strtok
  002a5	83 c4 08	 add	 esp, 8
  002a8	50		 push	 eax
  002a9	ff 15 00 00 00
	00		 call	 DWORD PTR __imp__atoi
  002af	83 c4 04	 add	 esp, 4

; 1239 : 		/*aircraft_database[i].max_weapon_config_type                        = */  IntValue(p);

  002b2	68 00 00 00 00	 push	 OFFSET ??_C@_01IHBHIGKO@?0@
  002b7	6a 00		 push	 0
  002b9	ff 15 00 00 00
	00		 call	 DWORD PTR __imp__strtok
  002bf	83 c4 08	 add	 esp, 8
  002c2	50		 push	 eax
  002c3	ff 15 00 00 00
	00		 call	 DWORD PTR __imp__atoi
  002c9	83 c4 04	 add	 esp, 4

; 1240 : 		/*aircraft_database[i].air_to_air_weapon_config_type                 = */IntValue(p);

  002cc	68 00 00 00 00	 push	 OFFSET ??_C@_01IHBHIGKO@?0@
  002d1	6a 00		 push	 0
  002d3	ff 15 00 00 00
	00		 call	 DWORD PTR __imp__strtok
  002d9	83 c4 08	 add	 esp, 8
  002dc	50		 push	 eax
  002dd	ff 15 00 00 00
	00		 call	 DWORD PTR __imp__atoi
  002e3	83 c4 04	 add	 esp, 4

; 1241 : 		/*aircraft_database[i].air_to_surface_weapon_config_type             = */IntValue(p);

  002e6	68 00 00 00 00	 push	 OFFSET ??_C@_01IHBHIGKO@?0@
  002eb	6a 00		 push	 0
  002ed	ff 15 00 00 00
	00		 call	 DWORD PTR __imp__strtok
  002f3	83 c4 08	 add	 esp, 8
  002f6	50		 push	 eax
  002f7	ff 15 00 00 00
	00		 call	 DWORD PTR __imp__atoi
  002fd	83 c4 04	 add	 esp, 4

; 1242 : 		/*aircraft_database[i].scout_weapon_config_type                      = */IntValue(p);

  00300	68 00 00 00 00	 push	 OFFSET ??_C@_01IHBHIGKO@?0@
  00305	6a 00		 push	 0
  00307	ff 15 00 00 00
	00		 call	 DWORD PTR __imp__strtok
  0030d	83 c4 08	 add	 esp, 8
  00310	50		 push	 eax
  00311	ff 15 00 00 00
	00		 call	 DWORD PTR __imp__atoi
  00317	83 c4 04	 add	 esp, 4

; 1243 : 		/*aircraft_database[i].default_weapon_type                           = */IntValue(p);

  0031a	68 00 00 00 00	 push	 OFFSET ??_C@_01IHBHIGKO@?0@
  0031f	6a 00		 push	 0
  00321	ff 15 00 00 00
	00		 call	 DWORD PTR __imp__strtok
  00327	83 c4 08	 add	 esp, 8
  0032a	50		 push	 eax
  0032b	ff 15 00 00 00
	00		 call	 DWORD PTR __imp__atoi
  00331	83 c4 04	 add	 esp, 4

; 1244 : 		aircraft_database[i].target_symbol_type                            = ( target_symbol_types ) IntValue(p);

  00334	68 00 00 00 00	 push	 OFFSET ??_C@_01IHBHIGKO@?0@
  00339	6a 00		 push	 0
  0033b	ff 15 00 00 00
	00		 call	 DWORD PTR __imp__strtok
  00341	83 c4 08	 add	 esp, 8
  00344	50		 push	 eax
  00345	ff 15 00 00 00
	00		 call	 DWORD PTR __imp__atoi
  0034b	83 c4 04	 add	 esp, 4
  0034e	69 4d f4 f4 00
	00 00		 imul	 ecx, DWORD PTR _i$[ebp], 244
  00355	89 81 38 00 00
	00		 mov	 DWORD PTR ?aircraft_database@@3PAUAIRCRAFT_DATA@@A[ecx+56], eax

; 1245 : 		aircraft_database[i].target_priority_type                          = ( target_priority_types ) IntValue(p);

  0035b	68 00 00 00 00	 push	 OFFSET ??_C@_01IHBHIGKO@?0@
  00360	6a 00		 push	 0
  00362	ff 15 00 00 00
	00		 call	 DWORD PTR __imp__strtok
  00368	83 c4 08	 add	 esp, 8
  0036b	50		 push	 eax
  0036c	ff 15 00 00 00
	00		 call	 DWORD PTR __imp__atoi
  00372	83 c4 04	 add	 esp, 4
  00375	69 4d f4 f4 00
	00 00		 imul	 ecx, DWORD PTR _i$[ebp], 244
  0037c	89 81 3c 00 00
	00		 mov	 DWORD PTR ?aircraft_database@@3PAUAIRCRAFT_DATA@@A[ecx+60], eax

; 1246 : 		aircraft_database[i].force_info_catagory                           = ( force_info_catagories ) IntValue(p);

  00382	68 00 00 00 00	 push	 OFFSET ??_C@_01IHBHIGKO@?0@
  00387	6a 00		 push	 0
  00389	ff 15 00 00 00
	00		 call	 DWORD PTR __imp__strtok
  0038f	83 c4 08	 add	 esp, 8
  00392	50		 push	 eax
  00393	ff 15 00 00 00
	00		 call	 DWORD PTR __imp__atoi
  00399	83 c4 04	 add	 esp, 4
  0039c	69 4d f4 f4 00
	00 00		 imul	 ecx, DWORD PTR _i$[ebp], 244
  003a3	89 81 40 00 00
	00		 mov	 DWORD PTR ?aircraft_database@@3PAUAIRCRAFT_DATA@@A[ecx+64], eax

; 1247 : 		aircraft_database[i].threat_type                                   = ( threat_types ) IntValue(p);

  003a9	68 00 00 00 00	 push	 OFFSET ??_C@_01IHBHIGKO@?0@
  003ae	6a 00		 push	 0
  003b0	ff 15 00 00 00
	00		 call	 DWORD PTR __imp__strtok
  003b6	83 c4 08	 add	 esp, 8
  003b9	50		 push	 eax
  003ba	ff 15 00 00 00
	00		 call	 DWORD PTR __imp__atoi
  003c0	83 c4 04	 add	 esp, 4
  003c3	69 4d f4 f4 00
	00 00		 imul	 ecx, DWORD PTR _i$[ebp], 244
  003ca	89 81 44 00 00
	00		 mov	 DWORD PTR ?aircraft_database@@3PAUAIRCRAFT_DATA@@A[ecx+68], eax

; 1248 : 		aircraft_database[i].centre_of_gravity_to_ground_distance          = FloatValue(p);

  003d0	68 00 00 00 00	 push	 OFFSET ??_C@_01IHBHIGKO@?0@
  003d5	6a 00		 push	 0
  003d7	ff 15 00 00 00
	00		 call	 DWORD PTR __imp__strtok
  003dd	83 c4 08	 add	 esp, 8
  003e0	50		 push	 eax
  003e1	ff 15 00 00 00
	00		 call	 DWORD PTR __imp__atof
  003e7	83 c4 04	 add	 esp, 4
  003ea	d9 9d 9c f6 ff
	ff		 fstp	 DWORD PTR tv4010[ebp]
  003f0	d9 85 9c f6 ff
	ff		 fld	 DWORD PTR tv4010[ebp]
  003f6	69 45 f4 f4 00
	00 00		 imul	 eax, DWORD PTR _i$[ebp], 244
  003fd	d9 98 54 00 00
	00		 fstp	 DWORD PTR ?aircraft_database@@3PAUAIRCRAFT_DATA@@A[eax+84]

; 1249 : 		aircraft_database[i].centre_of_gravity_to_ground_distance_destroyed= FloatValue(p);

  00403	68 00 00 00 00	 push	 OFFSET ??_C@_01IHBHIGKO@?0@
  00408	6a 00		 push	 0
  0040a	ff 15 00 00 00
	00		 call	 DWORD PTR __imp__strtok
  00410	83 c4 08	 add	 esp, 8
  00413	50		 push	 eax
  00414	ff 15 00 00 00
	00		 call	 DWORD PTR __imp__atof
  0041a	83 c4 04	 add	 esp, 4
  0041d	d9 9d 9c f6 ff
	ff		 fstp	 DWORD PTR tv4014[ebp]
  00423	d9 85 9c f6 ff
	ff		 fld	 DWORD PTR tv4014[ebp]
  00429	69 45 f4 f4 00
	00 00		 imul	 eax, DWORD PTR _i$[ebp], 244
  00430	d9 98 58 00 00
	00		 fstp	 DWORD PTR ?aircraft_database@@3PAUAIRCRAFT_DATA@@A[eax+88]

; 1250 : 		aircraft_database[i].chase_view_min_distance                       = FloatValue(p);

  00436	68 00 00 00 00	 push	 OFFSET ??_C@_01IHBHIGKO@?0@
  0043b	6a 00		 push	 0
  0043d	ff 15 00 00 00
	00		 call	 DWORD PTR __imp__strtok
  00443	83 c4 08	 add	 esp, 8
  00446	50		 push	 eax
  00447	ff 15 00 00 00
	00		 call	 DWORD PTR __imp__atof
  0044d	83 c4 04	 add	 esp, 4
  00450	d9 9d 9c f6 ff
	ff		 fstp	 DWORD PTR tv4018[ebp]
  00456	d9 85 9c f6 ff
	ff		 fld	 DWORD PTR tv4018[ebp]
  0045c	69 45 f4 f4 00
	00 00		 imul	 eax, DWORD PTR _i$[ebp], 244
  00463	d9 98 5c 00 00
	00		 fstp	 DWORD PTR ?aircraft_database@@3PAUAIRCRAFT_DATA@@A[eax+92]

; 1251 : 		aircraft_database[i].chase_view_max_distance                       = FloatValue(p);

  00469	68 00 00 00 00	 push	 OFFSET ??_C@_01IHBHIGKO@?0@
  0046e	6a 00		 push	 0
  00470	ff 15 00 00 00
	00		 call	 DWORD PTR __imp__strtok
  00476	83 c4 08	 add	 esp, 8
  00479	50		 push	 eax
  0047a	ff 15 00 00 00
	00		 call	 DWORD PTR __imp__atof
  00480	83 c4 04	 add	 esp, 4
  00483	d9 9d 9c f6 ff
	ff		 fstp	 DWORD PTR tv4022[ebp]
  00489	d9 85 9c f6 ff
	ff		 fld	 DWORD PTR tv4022[ebp]
  0048f	69 45 f4 f4 00
	00 00		 imul	 eax, DWORD PTR _i$[ebp], 244
  00496	d9 98 60 00 00
	00		 fstp	 DWORD PTR ?aircraft_database@@3PAUAIRCRAFT_DATA@@A[eax+96]

; 1252 : 		aircraft_database[i].chase_view_min_distance_test                  = FloatValue(p);

  0049c	68 00 00 00 00	 push	 OFFSET ??_C@_01IHBHIGKO@?0@
  004a1	6a 00		 push	 0
  004a3	ff 15 00 00 00
	00		 call	 DWORD PTR __imp__strtok
  004a9	83 c4 08	 add	 esp, 8
  004ac	50		 push	 eax
  004ad	ff 15 00 00 00
	00		 call	 DWORD PTR __imp__atof
  004b3	83 c4 04	 add	 esp, 4
  004b6	d9 9d 9c f6 ff
	ff		 fstp	 DWORD PTR tv4026[ebp]
  004bc	d9 85 9c f6 ff
	ff		 fld	 DWORD PTR tv4026[ebp]
  004c2	69 45 f4 f4 00
	00 00		 imul	 eax, DWORD PTR _i$[ebp], 244
  004c9	d9 98 64 00 00
	00		 fstp	 DWORD PTR ?aircraft_database@@3PAUAIRCRAFT_DATA@@A[eax+100]

; 1253 : 		aircraft_database[i].chase_view_max_distance_test                  = FloatValue(p);

  004cf	68 00 00 00 00	 push	 OFFSET ??_C@_01IHBHIGKO@?0@
  004d4	6a 00		 push	 0
  004d6	ff 15 00 00 00
	00		 call	 DWORD PTR __imp__strtok
  004dc	83 c4 08	 add	 esp, 8
  004df	50		 push	 eax
  004e0	ff 15 00 00 00
	00		 call	 DWORD PTR __imp__atof
  004e6	83 c4 04	 add	 esp, 4
  004e9	d9 9d 9c f6 ff
	ff		 fstp	 DWORD PTR tv4030[ebp]
  004ef	d9 85 9c f6 ff
	ff		 fld	 DWORD PTR tv4030[ebp]
  004f5	69 45 f4 f4 00
	00 00		 imul	 eax, DWORD PTR _i$[ebp], 244
  004fc	d9 98 68 00 00
	00		 fstp	 DWORD PTR ?aircraft_database@@3PAUAIRCRAFT_DATA@@A[eax+104]

; 1254 : 		aircraft_database[i].cruise_velocity                               = FloatValue(p);

  00502	68 00 00 00 00	 push	 OFFSET ??_C@_01IHBHIGKO@?0@
  00507	6a 00		 push	 0
  00509	ff 15 00 00 00
	00		 call	 DWORD PTR __imp__strtok
  0050f	83 c4 08	 add	 esp, 8
  00512	50		 push	 eax
  00513	ff 15 00 00 00
	00		 call	 DWORD PTR __imp__atof
  00519	83 c4 04	 add	 esp, 4
  0051c	d9 9d 9c f6 ff
	ff		 fstp	 DWORD PTR tv4034[ebp]
  00522	d9 85 9c f6 ff
	ff		 fld	 DWORD PTR tv4034[ebp]
  00528	69 45 f4 f4 00
	00 00		 imul	 eax, DWORD PTR _i$[ebp], 244
  0052f	d9 98 6c 00 00
	00		 fstp	 DWORD PTR ?aircraft_database@@3PAUAIRCRAFT_DATA@@A[eax+108]

; 1255 : 		aircraft_database[i].cruise_altitude                               = FloatValue(p);

  00535	68 00 00 00 00	 push	 OFFSET ??_C@_01IHBHIGKO@?0@
  0053a	6a 00		 push	 0
  0053c	ff 15 00 00 00
	00		 call	 DWORD PTR __imp__strtok
  00542	83 c4 08	 add	 esp, 8
  00545	50		 push	 eax
  00546	ff 15 00 00 00
	00		 call	 DWORD PTR __imp__atof
  0054c	83 c4 04	 add	 esp, 4
  0054f	d9 9d 9c f6 ff
	ff		 fstp	 DWORD PTR tv4038[ebp]
  00555	d9 85 9c f6 ff
	ff		 fld	 DWORD PTR tv4038[ebp]
  0055b	69 45 f4 f4 00
	00 00		 imul	 eax, DWORD PTR _i$[ebp], 244
  00562	d9 98 70 00 00
	00		 fstp	 DWORD PTR ?aircraft_database@@3PAUAIRCRAFT_DATA@@A[eax+112]

; 1256 : 		aircraft_database[i].attack_altitude                               = FloatValue(p);

  00568	68 00 00 00 00	 push	 OFFSET ??_C@_01IHBHIGKO@?0@
  0056d	6a 00		 push	 0
  0056f	ff 15 00 00 00
	00		 call	 DWORD PTR __imp__strtok
  00575	83 c4 08	 add	 esp, 8
  00578	50		 push	 eax
  00579	ff 15 00 00 00
	00		 call	 DWORD PTR __imp__atof
  0057f	83 c4 04	 add	 esp, 4
  00582	d9 9d 9c f6 ff
	ff		 fstp	 DWORD PTR tv4042[ebp]
  00588	d9 85 9c f6 ff
	ff		 fld	 DWORD PTR tv4042[ebp]
  0058e	69 45 f4 f4 00
	00 00		 imul	 eax, DWORD PTR _i$[ebp], 244
  00595	d9 98 74 00 00
	00		 fstp	 DWORD PTR ?aircraft_database@@3PAUAIRCRAFT_DATA@@A[eax+116]

; 1257 : 		aircraft_database[i].destroyed_bank_offset                         = rad (FloatValue(p));

  0059b	68 00 00 00 00	 push	 OFFSET ??_C@_01IHBHIGKO@?0@
  005a0	6a 00		 push	 0
  005a2	ff 15 00 00 00
	00		 call	 DWORD PTR __imp__strtok
  005a8	83 c4 08	 add	 esp, 8
  005ab	50		 push	 eax
  005ac	ff 15 00 00 00
	00		 call	 DWORD PTR __imp__atof
  005b2	83 c4 04	 add	 esp, 4
  005b5	dd 9d 98 f6 ff
	ff		 fstp	 QWORD PTR tv4046[ebp]
  005bb	f2 0f 10 85 98
	f6 ff ff	 movsd	 xmm0, QWORD PTR tv4046[ebp]
  005c3	f2 0f 59 05 00
	00 00 00	 mulsd	 xmm0, QWORD PTR __real@3f91df46a0000000
  005cb	f2 0f 5a c0	 cvtsd2ss xmm0, xmm0
  005cf	69 45 f4 f4 00
	00 00		 imul	 eax, DWORD PTR _i$[ebp], 244
  005d6	f3 0f 11 80 78
	00 00 00	 movss	 DWORD PTR ?aircraft_database@@3PAUAIRCRAFT_DATA@@A[eax+120], xmm0

; 1258 : 		aircraft_database[i].destroyed_pitch_offset                        = rad (FloatValue(p));

  005de	68 00 00 00 00	 push	 OFFSET ??_C@_01IHBHIGKO@?0@
  005e3	6a 00		 push	 0
  005e5	ff 15 00 00 00
	00		 call	 DWORD PTR __imp__strtok
  005eb	83 c4 08	 add	 esp, 8
  005ee	50		 push	 eax
  005ef	ff 15 00 00 00
	00		 call	 DWORD PTR __imp__atof
  005f5	83 c4 04	 add	 esp, 4
  005f8	dd 9d 98 f6 ff
	ff		 fstp	 QWORD PTR tv4051[ebp]
  005fe	f2 0f 10 85 98
	f6 ff ff	 movsd	 xmm0, QWORD PTR tv4051[ebp]
  00606	f2 0f 59 05 00
	00 00 00	 mulsd	 xmm0, QWORD PTR __real@3f91df46a0000000
  0060e	f2 0f 5a c0	 cvtsd2ss xmm0, xmm0
  00612	69 45 f4 f4 00
	00 00		 imul	 eax, DWORD PTR _i$[ebp], 244
  00619	f3 0f 11 80 7c
	00 00 00	 movss	 DWORD PTR ?aircraft_database@@3PAUAIRCRAFT_DATA@@A[eax+124], xmm0

; 1259 : 		aircraft_database[i].fuselage_angle                                = rad (FloatValue(p));

  00621	68 00 00 00 00	 push	 OFFSET ??_C@_01IHBHIGKO@?0@
  00626	6a 00		 push	 0
  00628	ff 15 00 00 00
	00		 call	 DWORD PTR __imp__strtok
  0062e	83 c4 08	 add	 esp, 8
  00631	50		 push	 eax
  00632	ff 15 00 00 00
	00		 call	 DWORD PTR __imp__atof
  00638	83 c4 04	 add	 esp, 4
  0063b	dd 9d 98 f6 ff
	ff		 fstp	 QWORD PTR tv4056[ebp]
  00641	f2 0f 10 85 98
	f6 ff ff	 movsd	 xmm0, QWORD PTR tv4056[ebp]
  00649	f2 0f 59 05 00
	00 00 00	 mulsd	 xmm0, QWORD PTR __real@3f91df46a0000000
  00651	f2 0f 5a c0	 cvtsd2ss xmm0, xmm0
  00655	69 45 f4 f4 00
	00 00		 imul	 eax, DWORD PTR _i$[ebp], 244
  0065c	f3 0f 11 80 80
	00 00 00	 movss	 DWORD PTR ?aircraft_database@@3PAUAIRCRAFT_DATA@@A[eax+128], xmm0

; 1260 : 		aircraft_database[i].liftoff_velocity                              = FloatValue(p);

  00664	68 00 00 00 00	 push	 OFFSET ??_C@_01IHBHIGKO@?0@
  00669	6a 00		 push	 0
  0066b	ff 15 00 00 00
	00		 call	 DWORD PTR __imp__strtok
  00671	83 c4 08	 add	 esp, 8
  00674	50		 push	 eax
  00675	ff 15 00 00 00
	00		 call	 DWORD PTR __imp__atof
  0067b	83 c4 04	 add	 esp, 4
  0067e	d9 9d 9c f6 ff
	ff		 fstp	 DWORD PTR tv4061[ebp]
  00684	d9 85 9c f6 ff
	ff		 fld	 DWORD PTR tv4061[ebp]
  0068a	69 45 f4 f4 00
	00 00		 imul	 eax, DWORD PTR _i$[ebp], 244
  00691	d9 98 84 00 00
	00		 fstp	 DWORD PTR ?aircraft_database@@3PAUAIRCRAFT_DATA@@A[eax+132]

; 1261 : 		aircraft_database[i].main_rotor_shaft_angle                        = rad (FloatValue(p));

  00697	68 00 00 00 00	 push	 OFFSET ??_C@_01IHBHIGKO@?0@
  0069c	6a 00		 push	 0
  0069e	ff 15 00 00 00
	00		 call	 DWORD PTR __imp__strtok
  006a4	83 c4 08	 add	 esp, 8
  006a7	50		 push	 eax
  006a8	ff 15 00 00 00
	00		 call	 DWORD PTR __imp__atof
  006ae	83 c4 04	 add	 esp, 4
  006b1	dd 9d 98 f6 ff
	ff		 fstp	 QWORD PTR tv4065[ebp]
  006b7	f2 0f 10 85 98
	f6 ff ff	 movsd	 xmm0, QWORD PTR tv4065[ebp]
  006bf	f2 0f 59 05 00
	00 00 00	 mulsd	 xmm0, QWORD PTR __real@3f91df46a0000000
  006c7	f2 0f 5a c0	 cvtsd2ss xmm0, xmm0
  006cb	69 45 f4 f4 00
	00 00		 imul	 eax, DWORD PTR _i$[ebp], 244
  006d2	f3 0f 11 80 88
	00 00 00	 movss	 DWORD PTR ?aircraft_database@@3PAUAIRCRAFT_DATA@@A[eax+136], xmm0

; 1262 : 		aircraft_database[i].main_rotor_direction                          = FloatValue(p);

  006da	68 00 00 00 00	 push	 OFFSET ??_C@_01IHBHIGKO@?0@
  006df	6a 00		 push	 0
  006e1	ff 15 00 00 00
	00		 call	 DWORD PTR __imp__strtok
  006e7	83 c4 08	 add	 esp, 8
  006ea	50		 push	 eax
  006eb	ff 15 00 00 00
	00		 call	 DWORD PTR __imp__atof
  006f1	83 c4 04	 add	 esp, 4
  006f4	d9 9d 9c f6 ff
	ff		 fstp	 DWORD PTR tv4070[ebp]
  006fa	d9 85 9c f6 ff
	ff		 fld	 DWORD PTR tv4070[ebp]
  00700	69 45 f4 f4 00
	00 00		 imul	 eax, DWORD PTR _i$[ebp], 244
  00707	d9 98 8c 00 00
	00		 fstp	 DWORD PTR ?aircraft_database@@3PAUAIRCRAFT_DATA@@A[eax+140]

; 1263 : 		aircraft_database[i].main_rotor_blade_droop_angle                  = rad (FloatValue(p));

  0070d	68 00 00 00 00	 push	 OFFSET ??_C@_01IHBHIGKO@?0@
  00712	6a 00		 push	 0
  00714	ff 15 00 00 00
	00		 call	 DWORD PTR __imp__strtok
  0071a	83 c4 08	 add	 esp, 8
  0071d	50		 push	 eax
  0071e	ff 15 00 00 00
	00		 call	 DWORD PTR __imp__atof
  00724	83 c4 04	 add	 esp, 4
  00727	dd 9d 98 f6 ff
	ff		 fstp	 QWORD PTR tv4074[ebp]
  0072d	f2 0f 10 85 98
	f6 ff ff	 movsd	 xmm0, QWORD PTR tv4074[ebp]
  00735	f2 0f 59 05 00
	00 00 00	 mulsd	 xmm0, QWORD PTR __real@3f91df46a0000000
  0073d	f2 0f 5a c0	 cvtsd2ss xmm0, xmm0
  00741	69 45 f4 f4 00
	00 00		 imul	 eax, DWORD PTR _i$[ebp], 244
  00748	f3 0f 11 80 90
	00 00 00	 movss	 DWORD PTR ?aircraft_database@@3PAUAIRCRAFT_DATA@@A[eax+144], xmm0

; 1264 : 		aircraft_database[i].propellor_direction                           = FloatValue(p);

  00750	68 00 00 00 00	 push	 OFFSET ??_C@_01IHBHIGKO@?0@
  00755	6a 00		 push	 0
  00757	ff 15 00 00 00
	00		 call	 DWORD PTR __imp__strtok
  0075d	83 c4 08	 add	 esp, 8
  00760	50		 push	 eax
  00761	ff 15 00 00 00
	00		 call	 DWORD PTR __imp__atof
  00767	83 c4 04	 add	 esp, 4
  0076a	d9 9d 9c f6 ff
	ff		 fstp	 DWORD PTR tv4079[ebp]
  00770	d9 85 9c f6 ff
	ff		 fld	 DWORD PTR tv4079[ebp]
  00776	69 45 f4 f4 00
	00 00		 imul	 eax, DWORD PTR _i$[ebp], 244
  0077d	d9 98 94 00 00
	00		 fstp	 DWORD PTR ?aircraft_database@@3PAUAIRCRAFT_DATA@@A[eax+148]

; 1265 : 		aircraft_database[i].max_turn_rate                                 = rad (FloatValue(p));

  00783	68 00 00 00 00	 push	 OFFSET ??_C@_01IHBHIGKO@?0@
  00788	6a 00		 push	 0
  0078a	ff 15 00 00 00
	00		 call	 DWORD PTR __imp__strtok
  00790	83 c4 08	 add	 esp, 8
  00793	50		 push	 eax
  00794	ff 15 00 00 00
	00		 call	 DWORD PTR __imp__atof
  0079a	83 c4 04	 add	 esp, 4
  0079d	dd 9d 98 f6 ff
	ff		 fstp	 QWORD PTR tv4083[ebp]
  007a3	f2 0f 10 85 98
	f6 ff ff	 movsd	 xmm0, QWORD PTR tv4083[ebp]
  007ab	f2 0f 59 05 00
	00 00 00	 mulsd	 xmm0, QWORD PTR __real@3f91df46a0000000
  007b3	f2 0f 5a c0	 cvtsd2ss xmm0, xmm0
  007b7	69 45 f4 f4 00
	00 00		 imul	 eax, DWORD PTR _i$[ebp], 244
  007be	f3 0f 11 80 98
	00 00 00	 movss	 DWORD PTR ?aircraft_database@@3PAUAIRCRAFT_DATA@@A[eax+152], xmm0

; 1266 : 		aircraft_database[i].max_roll                                      = rad (FloatValue(p));

  007c6	68 00 00 00 00	 push	 OFFSET ??_C@_01IHBHIGKO@?0@
  007cb	6a 00		 push	 0
  007cd	ff 15 00 00 00
	00		 call	 DWORD PTR __imp__strtok
  007d3	83 c4 08	 add	 esp, 8
  007d6	50		 push	 eax
  007d7	ff 15 00 00 00
	00		 call	 DWORD PTR __imp__atof
  007dd	83 c4 04	 add	 esp, 4
  007e0	dd 9d 98 f6 ff
	ff		 fstp	 QWORD PTR tv4088[ebp]
  007e6	f2 0f 10 85 98
	f6 ff ff	 movsd	 xmm0, QWORD PTR tv4088[ebp]
  007ee	f2 0f 59 05 00
	00 00 00	 mulsd	 xmm0, QWORD PTR __real@3f91df46a0000000
  007f6	f2 0f 5a c0	 cvtsd2ss xmm0, xmm0
  007fa	69 45 f4 f4 00
	00 00		 imul	 eax, DWORD PTR _i$[ebp], 244
  00801	f3 0f 11 80 9c
	00 00 00	 movss	 DWORD PTR ?aircraft_database@@3PAUAIRCRAFT_DATA@@A[eax+156], xmm0

; 1267 : 		aircraft_database[i].max_vertical_turn_allowance                   = FloatValue(p);

  00809	68 00 00 00 00	 push	 OFFSET ??_C@_01IHBHIGKO@?0@
  0080e	6a 00		 push	 0
  00810	ff 15 00 00 00
	00		 call	 DWORD PTR __imp__strtok
  00816	83 c4 08	 add	 esp, 8
  00819	50		 push	 eax
  0081a	ff 15 00 00 00
	00		 call	 DWORD PTR __imp__atof
  00820	83 c4 04	 add	 esp, 4
  00823	d9 9d 9c f6 ff
	ff		 fstp	 DWORD PTR tv4093[ebp]
  00829	d9 85 9c f6 ff
	ff		 fld	 DWORD PTR tv4093[ebp]
  0082f	69 45 f4 f4 00
	00 00		 imul	 eax, DWORD PTR _i$[ebp], 244
  00836	d9 98 a0 00 00
	00		 fstp	 DWORD PTR ?aircraft_database@@3PAUAIRCRAFT_DATA@@A[eax+160]

; 1268 : 		aircraft_database[i].avoidance_radius                              = FloatValue(p);

  0083c	68 00 00 00 00	 push	 OFFSET ??_C@_01IHBHIGKO@?0@
  00841	6a 00		 push	 0
  00843	ff 15 00 00 00
	00		 call	 DWORD PTR __imp__strtok
  00849	83 c4 08	 add	 esp, 8
  0084c	50		 push	 eax
  0084d	ff 15 00 00 00
	00		 call	 DWORD PTR __imp__atof
  00853	83 c4 04	 add	 esp, 4
  00856	d9 9d 9c f6 ff
	ff		 fstp	 DWORD PTR tv4097[ebp]
  0085c	d9 85 9c f6 ff
	ff		 fld	 DWORD PTR tv4097[ebp]
  00862	69 45 f4 f4 00
	00 00		 imul	 eax, DWORD PTR _i$[ebp], 244
  00869	d9 98 a4 00 00
	00		 fstp	 DWORD PTR ?aircraft_database@@3PAUAIRCRAFT_DATA@@A[eax+164]

; 1269 : 		aircraft_database[i].g_max                                         = FloatValue(p);

  0086f	68 00 00 00 00	 push	 OFFSET ??_C@_01IHBHIGKO@?0@
  00874	6a 00		 push	 0
  00876	ff 15 00 00 00
	00		 call	 DWORD PTR __imp__strtok
  0087c	83 c4 08	 add	 esp, 8
  0087f	50		 push	 eax
  00880	ff 15 00 00 00
	00		 call	 DWORD PTR __imp__atof
  00886	83 c4 04	 add	 esp, 4
  00889	d9 9d 9c f6 ff
	ff		 fstp	 DWORD PTR tv4101[ebp]
  0088f	d9 85 9c f6 ff
	ff		 fld	 DWORD PTR tv4101[ebp]
  00895	69 45 f4 f4 00
	00 00		 imul	 eax, DWORD PTR _i$[ebp], 244
  0089c	d9 98 a8 00 00
	00		 fstp	 DWORD PTR ?aircraft_database@@3PAUAIRCRAFT_DATA@@A[eax+168]

; 1270 : 		aircraft_database[i].power_output                                  = FloatValue(p);

  008a2	68 00 00 00 00	 push	 OFFSET ??_C@_01IHBHIGKO@?0@
  008a7	6a 00		 push	 0
  008a9	ff 15 00 00 00
	00		 call	 DWORD PTR __imp__strtok
  008af	83 c4 08	 add	 esp, 8
  008b2	50		 push	 eax
  008b3	ff 15 00 00 00
	00		 call	 DWORD PTR __imp__atof
  008b9	83 c4 04	 add	 esp, 4
  008bc	d9 9d 9c f6 ff
	ff		 fstp	 DWORD PTR tv4105[ebp]
  008c2	d9 85 9c f6 ff
	ff		 fld	 DWORD PTR tv4105[ebp]
  008c8	69 45 f4 f4 00
	00 00		 imul	 eax, DWORD PTR _i$[ebp], 244
  008cf	d9 98 ac 00 00
	00		 fstp	 DWORD PTR ?aircraft_database@@3PAUAIRCRAFT_DATA@@A[eax+172]

; 1271 : 		aircraft_database[i].tail_rotor_direction                          = rad (FloatValue(p));

  008d5	68 00 00 00 00	 push	 OFFSET ??_C@_01IHBHIGKO@?0@
  008da	6a 00		 push	 0
  008dc	ff 15 00 00 00
	00		 call	 DWORD PTR __imp__strtok
  008e2	83 c4 08	 add	 esp, 8
  008e5	50		 push	 eax
  008e6	ff 15 00 00 00
	00		 call	 DWORD PTR __imp__atof
  008ec	83 c4 04	 add	 esp, 4
  008ef	dd 9d 98 f6 ff
	ff		 fstp	 QWORD PTR tv4109[ebp]
  008f5	f2 0f 10 85 98
	f6 ff ff	 movsd	 xmm0, QWORD PTR tv4109[ebp]
  008fd	f2 0f 59 05 00
	00 00 00	 mulsd	 xmm0, QWORD PTR __real@3f91df46a0000000
  00905	f2 0f 5a c0	 cvtsd2ss xmm0, xmm0
  00909	69 45 f4 f4 00
	00 00		 imul	 eax, DWORD PTR _i$[ebp], 244
  00910	f3 0f 11 80 b0
	00 00 00	 movss	 DWORD PTR ?aircraft_database@@3PAUAIRCRAFT_DATA@@A[eax+176], xmm0

; 1272 : 		aircraft_database[i].recon_radius                                  = FloatValue(p);

  00918	68 00 00 00 00	 push	 OFFSET ??_C@_01IHBHIGKO@?0@
  0091d	6a 00		 push	 0
  0091f	ff 15 00 00 00
	00		 call	 DWORD PTR __imp__strtok
  00925	83 c4 08	 add	 esp, 8
  00928	50		 push	 eax
  00929	ff 15 00 00 00
	00		 call	 DWORD PTR __imp__atof
  0092f	83 c4 04	 add	 esp, 4
  00932	d9 9d 9c f6 ff
	ff		 fstp	 DWORD PTR tv4114[ebp]
  00938	d9 85 9c f6 ff
	ff		 fld	 DWORD PTR tv4114[ebp]
  0093e	69 45 f4 f4 00
	00 00		 imul	 eax, DWORD PTR _i$[ebp], 244
  00945	d9 98 b4 00 00
	00		 fstp	 DWORD PTR ?aircraft_database@@3PAUAIRCRAFT_DATA@@A[eax+180]

; 1273 : 		aircraft_database[i].target_scan_delay                             = FloatValue(p);

  0094b	68 00 00 00 00	 push	 OFFSET ??_C@_01IHBHIGKO@?0@
  00950	6a 00		 push	 0
  00952	ff 15 00 00 00
	00		 call	 DWORD PTR __imp__strtok
  00958	83 c4 08	 add	 esp, 8
  0095b	50		 push	 eax
  0095c	ff 15 00 00 00
	00		 call	 DWORD PTR __imp__atof
  00962	83 c4 04	 add	 esp, 4
  00965	d9 9d 9c f6 ff
	ff		 fstp	 DWORD PTR tv4118[ebp]
  0096b	d9 85 9c f6 ff
	ff		 fld	 DWORD PTR tv4118[ebp]
  00971	69 45 f4 f4 00
	00 00		 imul	 eax, DWORD PTR _i$[ebp], 244
  00978	d9 98 b8 00 00
	00		 fstp	 DWORD PTR ?aircraft_database@@3PAUAIRCRAFT_DATA@@A[eax+184]

; 1274 : 		aircraft_database[i].air_scan_range                                = FloatValue(p);

  0097e	68 00 00 00 00	 push	 OFFSET ??_C@_01IHBHIGKO@?0@
  00983	6a 00		 push	 0
  00985	ff 15 00 00 00
	00		 call	 DWORD PTR __imp__strtok
  0098b	83 c4 08	 add	 esp, 8
  0098e	50		 push	 eax
  0098f	ff 15 00 00 00
	00		 call	 DWORD PTR __imp__atof
  00995	83 c4 04	 add	 esp, 4
  00998	d9 9d 9c f6 ff
	ff		 fstp	 DWORD PTR tv4122[ebp]
  0099e	d9 85 9c f6 ff
	ff		 fld	 DWORD PTR tv4122[ebp]
  009a4	69 45 f4 f4 00
	00 00		 imul	 eax, DWORD PTR _i$[ebp], 244
  009ab	d9 98 bc 00 00
	00		 fstp	 DWORD PTR ?aircraft_database@@3PAUAIRCRAFT_DATA@@A[eax+188]

; 1275 : 		aircraft_database[i].surface_scan_range                            = FloatValue(p);

  009b1	68 00 00 00 00	 push	 OFFSET ??_C@_01IHBHIGKO@?0@
  009b6	6a 00		 push	 0
  009b8	ff 15 00 00 00
	00		 call	 DWORD PTR __imp__strtok
  009be	83 c4 08	 add	 esp, 8
  009c1	50		 push	 eax
  009c2	ff 15 00 00 00
	00		 call	 DWORD PTR __imp__atof
  009c8	83 c4 04	 add	 esp, 4
  009cb	d9 9d 9c f6 ff
	ff		 fstp	 DWORD PTR tv4126[ebp]
  009d1	d9 85 9c f6 ff
	ff		 fld	 DWORD PTR tv4126[ebp]
  009d7	69 45 f4 f4 00
	00 00		 imul	 eax, DWORD PTR _i$[ebp], 244
  009de	d9 98 c0 00 00
	00		 fstp	 DWORD PTR ?aircraft_database@@3PAUAIRCRAFT_DATA@@A[eax+192]

; 1276 : 		aircraft_database[i].potential_air_to_air_threat                   = FloatValue(p);

  009e4	68 00 00 00 00	 push	 OFFSET ??_C@_01IHBHIGKO@?0@
  009e9	6a 00		 push	 0
  009eb	ff 15 00 00 00
	00		 call	 DWORD PTR __imp__strtok
  009f1	83 c4 08	 add	 esp, 8
  009f4	50		 push	 eax
  009f5	ff 15 00 00 00
	00		 call	 DWORD PTR __imp__atof
  009fb	83 c4 04	 add	 esp, 4
  009fe	d9 9d 9c f6 ff
	ff		 fstp	 DWORD PTR tv4130[ebp]
  00a04	d9 85 9c f6 ff
	ff		 fld	 DWORD PTR tv4130[ebp]
  00a0a	69 45 f4 f4 00
	00 00		 imul	 eax, DWORD PTR _i$[ebp], 244
  00a11	d9 98 c4 00 00
	00		 fstp	 DWORD PTR ?aircraft_database@@3PAUAIRCRAFT_DATA@@A[eax+196]

; 1277 : 		aircraft_database[i].potential_air_to_surface_threat               = FloatValue(p);

  00a17	68 00 00 00 00	 push	 OFFSET ??_C@_01IHBHIGKO@?0@
  00a1c	6a 00		 push	 0
  00a1e	ff 15 00 00 00
	00		 call	 DWORD PTR __imp__strtok
  00a24	83 c4 08	 add	 esp, 8
  00a27	50		 push	 eax
  00a28	ff 15 00 00 00
	00		 call	 DWORD PTR __imp__atof
  00a2e	83 c4 04	 add	 esp, 4
  00a31	d9 9d 9c f6 ff
	ff		 fstp	 DWORD PTR tv4134[ebp]
  00a37	d9 85 9c f6 ff
	ff		 fld	 DWORD PTR tv4134[ebp]
  00a3d	69 45 f4 f4 00
	00 00		 imul	 eax, DWORD PTR _i$[ebp], 244
  00a44	d9 98 c8 00 00
	00		 fstp	 DWORD PTR ?aircraft_database@@3PAUAIRCRAFT_DATA@@A[eax+200]

; 1278 : 		aircraft_database[i].ammo_economy                                  = FloatValue(p);

  00a4a	68 00 00 00 00	 push	 OFFSET ??_C@_01IHBHIGKO@?0@
  00a4f	6a 00		 push	 0
  00a51	ff 15 00 00 00
	00		 call	 DWORD PTR __imp__strtok
  00a57	83 c4 08	 add	 esp, 8
  00a5a	50		 push	 eax
  00a5b	ff 15 00 00 00
	00		 call	 DWORD PTR __imp__atof
  00a61	83 c4 04	 add	 esp, 4
  00a64	d9 9d 9c f6 ff
	ff		 fstp	 DWORD PTR tv4138[ebp]
  00a6a	d9 85 9c f6 ff
	ff		 fld	 DWORD PTR tv4138[ebp]
  00a70	69 45 f4 f4 00
	00 00		 imul	 eax, DWORD PTR _i$[ebp], 244
  00a77	d9 98 cc 00 00
	00		 fstp	 DWORD PTR ?aircraft_database@@3PAUAIRCRAFT_DATA@@A[eax+204]

; 1279 : 		aircraft_database[i].fuel_default_weight                           = FloatValue(p);

  00a7d	68 00 00 00 00	 push	 OFFSET ??_C@_01IHBHIGKO@?0@
  00a82	6a 00		 push	 0
  00a84	ff 15 00 00 00
	00		 call	 DWORD PTR __imp__strtok
  00a8a	83 c4 08	 add	 esp, 8
  00a8d	50		 push	 eax
  00a8e	ff 15 00 00 00
	00		 call	 DWORD PTR __imp__atof
  00a94	83 c4 04	 add	 esp, 4
  00a97	d9 9d 9c f6 ff
	ff		 fstp	 DWORD PTR tv4142[ebp]
  00a9d	d9 85 9c f6 ff
	ff		 fld	 DWORD PTR tv4142[ebp]
  00aa3	69 45 f4 f4 00
	00 00		 imul	 eax, DWORD PTR _i$[ebp], 244
  00aaa	d9 98 d0 00 00
	00		 fstp	 DWORD PTR ?aircraft_database@@3PAUAIRCRAFT_DATA@@A[eax+208]

; 1280 : 		aircraft_database[i].fuel_economy                                  = FloatValue(p);

  00ab0	68 00 00 00 00	 push	 OFFSET ??_C@_01IHBHIGKO@?0@
  00ab5	6a 00		 push	 0
  00ab7	ff 15 00 00 00
	00		 call	 DWORD PTR __imp__strtok
  00abd	83 c4 08	 add	 esp, 8
  00ac0	50		 push	 eax
  00ac1	ff 15 00 00 00
	00		 call	 DWORD PTR __imp__atof
  00ac7	83 c4 04	 add	 esp, 4
  00aca	d9 9d 9c f6 ff
	ff		 fstp	 DWORD PTR tv4146[ebp]
  00ad0	d9 85 9c f6 ff
	ff		 fld	 DWORD PTR tv4146[ebp]
  00ad6	69 45 f4 f4 00
	00 00		 imul	 eax, DWORD PTR _i$[ebp], 244
  00add	d9 98 d4 00 00
	00		 fstp	 DWORD PTR ?aircraft_database@@3PAUAIRCRAFT_DATA@@A[eax+212]

; 1281 : 		aircraft_database[i].number_of_main_rotors                         = FloatValue(p);

  00ae3	68 00 00 00 00	 push	 OFFSET ??_C@_01IHBHIGKO@?0@
  00ae8	6a 00		 push	 0
  00aea	ff 15 00 00 00
	00		 call	 DWORD PTR __imp__strtok
  00af0	83 c4 08	 add	 esp, 8
  00af3	50		 push	 eax
  00af4	ff 15 00 00 00
	00		 call	 DWORD PTR __imp__atof
  00afa	83 c4 04	 add	 esp, 4
  00afd	d9 9d 9c f6 ff
	ff		 fstp	 DWORD PTR tv4150[ebp]
  00b03	d9 85 9c f6 ff
	ff		 fld	 DWORD PTR tv4150[ebp]
  00b09	69 45 f4 f4 00
	00 00		 imul	 eax, DWORD PTR _i$[ebp], 244
  00b10	d9 98 d8 00 00
	00		 fstp	 DWORD PTR ?aircraft_database@@3PAUAIRCRAFT_DATA@@A[eax+216]

; 1282 : 		aircraft_database[i].main_rotor_radius                             = FloatValue(p);

  00b16	68 00 00 00 00	 push	 OFFSET ??_C@_01IHBHIGKO@?0@
  00b1b	6a 00		 push	 0
  00b1d	ff 15 00 00 00
	00		 call	 DWORD PTR __imp__strtok
  00b23	83 c4 08	 add	 esp, 8
  00b26	50		 push	 eax
  00b27	ff 15 00 00 00
	00		 call	 DWORD PTR __imp__atof
  00b2d	83 c4 04	 add	 esp, 4
  00b30	d9 9d 9c f6 ff
	ff		 fstp	 DWORD PTR tv4154[ebp]
  00b36	d9 85 9c f6 ff
	ff		 fld	 DWORD PTR tv4154[ebp]
  00b3c	69 45 f4 f4 00
	00 00		 imul	 eax, DWORD PTR _i$[ebp], 244
  00b43	d9 98 dc 00 00
	00		 fstp	 DWORD PTR ?aircraft_database@@3PAUAIRCRAFT_DATA@@A[eax+220]

; 1283 : 		aircraft_database[i].initial_damage_level                          = IntValue(p);

  00b49	68 00 00 00 00	 push	 OFFSET ??_C@_01IHBHIGKO@?0@
  00b4e	6a 00		 push	 0
  00b50	ff 15 00 00 00
	00		 call	 DWORD PTR __imp__strtok
  00b56	83 c4 08	 add	 esp, 8
  00b59	50		 push	 eax
  00b5a	ff 15 00 00 00
	00		 call	 DWORD PTR __imp__atoi
  00b60	83 c4 04	 add	 esp, 4
  00b63	69 4d f4 f4 00
	00 00		 imul	 ecx, DWORD PTR _i$[ebp], 244
  00b6a	89 81 e0 00 00
	00		 mov	 DWORD PTR ?aircraft_database@@3PAUAIRCRAFT_DATA@@A[ecx+224], eax

; 1284 : 		aircraft_database[i].explosive_quality                             = IntValue(p);

  00b70	68 00 00 00 00	 push	 OFFSET ??_C@_01IHBHIGKO@?0@
  00b75	6a 00		 push	 0
  00b77	ff 15 00 00 00
	00		 call	 DWORD PTR __imp__strtok
  00b7d	83 c4 08	 add	 esp, 8
  00b80	50		 push	 eax
  00b81	ff 15 00 00 00
	00		 call	 DWORD PTR __imp__atoi
  00b87	83 c4 04	 add	 esp, 4
  00b8a	89 85 9c f6 ff
	ff		 mov	 DWORD PTR tv572[ebp], eax
  00b90	69 45 f4 f4 00
	00 00		 imul	 eax, DWORD PTR _i$[ebp], 244
  00b97	8b 8d 9c f6 ff
	ff		 mov	 ecx, DWORD PTR tv572[ebp]
  00b9d	83 e1 0f	 and	 ecx, 15			; 0000000fH
  00ba0	8b 90 e4 00 00
	00		 mov	 edx, DWORD PTR ?aircraft_database@@3PAUAIRCRAFT_DATA@@A[eax+228]
  00ba6	83 e2 f0	 and	 edx, -16		; fffffff0H
  00ba9	0b d1		 or	 edx, ecx
  00bab	69 45 f4 f4 00
	00 00		 imul	 eax, DWORD PTR _i$[ebp], 244
  00bb2	89 90 e4 00 00
	00		 mov	 DWORD PTR ?aircraft_database@@3PAUAIRCRAFT_DATA@@A[eax+228], edx

; 1285 : 		aircraft_database[i].explosive_power                               = IntValue(p);

  00bb8	68 00 00 00 00	 push	 OFFSET ??_C@_01IHBHIGKO@?0@
  00bbd	6a 00		 push	 0
  00bbf	ff 15 00 00 00
	00		 call	 DWORD PTR __imp__strtok
  00bc5	83 c4 08	 add	 esp, 8
  00bc8	50		 push	 eax
  00bc9	ff 15 00 00 00
	00		 call	 DWORD PTR __imp__atoi
  00bcf	83 c4 04	 add	 esp, 4
  00bd2	89 85 9c f6 ff
	ff		 mov	 DWORD PTR tv587[ebp], eax
  00bd8	69 45 f4 f4 00
	00 00		 imul	 eax, DWORD PTR _i$[ebp], 244
  00bdf	8b 8d 9c f6 ff
	ff		 mov	 ecx, DWORD PTR tv587[ebp]
  00be5	83 e1 0f	 and	 ecx, 15			; 0000000fH
  00be8	c1 e1 04	 shl	 ecx, 4
  00beb	8b 90 e4 00 00
	00		 mov	 edx, DWORD PTR ?aircraft_database@@3PAUAIRCRAFT_DATA@@A[eax+228]
  00bf1	81 e2 0f ff ff
	ff		 and	 edx, -241		; ffffff0fH
  00bf7	0b d1		 or	 edx, ecx
  00bf9	69 45 f4 f4 00
	00 00		 imul	 eax, DWORD PTR _i$[ebp], 244
  00c00	89 90 e4 00 00
	00		 mov	 DWORD PTR ?aircraft_database@@3PAUAIRCRAFT_DATA@@A[eax+228], edx

; 1286 : 		aircraft_database[i].offensive_capability                          = IntValue(p);

  00c06	68 00 00 00 00	 push	 OFFSET ??_C@_01IHBHIGKO@?0@
  00c0b	6a 00		 push	 0
  00c0d	ff 15 00 00 00
	00		 call	 DWORD PTR __imp__strtok
  00c13	83 c4 08	 add	 esp, 8
  00c16	50		 push	 eax
  00c17	ff 15 00 00 00
	00		 call	 DWORD PTR __imp__atoi
  00c1d	83 c4 04	 add	 esp, 4
  00c20	89 85 9c f6 ff
	ff		 mov	 DWORD PTR tv603[ebp], eax
  00c26	69 45 f4 f4 00
	00 00		 imul	 eax, DWORD PTR _i$[ebp], 244
  00c2d	8b 8d 9c f6 ff
	ff		 mov	 ecx, DWORD PTR tv603[ebp]
  00c33	83 e1 01	 and	 ecx, 1
  00c36	c1 e1 08	 shl	 ecx, 8
  00c39	8b 90 e4 00 00
	00		 mov	 edx, DWORD PTR ?aircraft_database@@3PAUAIRCRAFT_DATA@@A[eax+228]
  00c3f	81 e2 ff fe ff
	ff		 and	 edx, -257		; fffffeffH
  00c45	0b d1		 or	 edx, ecx
  00c47	69 45 f4 f4 00
	00 00		 imul	 eax, DWORD PTR _i$[ebp], 244
  00c4e	89 90 e4 00 00
	00		 mov	 DWORD PTR ?aircraft_database@@3PAUAIRCRAFT_DATA@@A[eax+228], edx

; 1287 : //VJ 010604 skip player controlable because of FAA setting in eech.ini, k acts as dummy
; 1288 : 		k = IntValue(p);

  00c54	68 00 00 00 00	 push	 OFFSET ??_C@_01IHBHIGKO@?0@
  00c59	6a 00		 push	 0
  00c5b	ff 15 00 00 00
	00		 call	 DWORD PTR __imp__strtok
  00c61	83 c4 08	 add	 esp, 8
  00c64	50		 push	 eax
  00c65	ff 15 00 00 00
	00		 call	 DWORD PTR __imp__atoi
  00c6b	83 c4 04	 add	 esp, 4
  00c6e	89 45 ec	 mov	 DWORD PTR _k$[ebp], eax

; 1289 : //		aircraft_database[i].player_controllable                           = IntValue(p);
; 1290 : 		aircraft_database[i].points_value                                  = IntValue(p);

  00c71	68 00 00 00 00	 push	 OFFSET ??_C@_01IHBHIGKO@?0@
  00c76	6a 00		 push	 0
  00c78	ff 15 00 00 00
	00		 call	 DWORD PTR __imp__strtok
  00c7e	83 c4 08	 add	 esp, 8
  00c81	50		 push	 eax
  00c82	ff 15 00 00 00
	00		 call	 DWORD PTR __imp__atoi
  00c88	83 c4 04	 add	 esp, 4
  00c8b	89 85 9c f6 ff
	ff		 mov	 DWORD PTR tv624[ebp], eax
  00c91	69 45 f4 f4 00
	00 00		 imul	 eax, DWORD PTR _i$[ebp], 244
  00c98	8b 8d 9c f6 ff
	ff		 mov	 ecx, DWORD PTR tv624[ebp]
  00c9e	81 e1 ff 0f 00
	00		 and	 ecx, 4095		; 00000fffH
  00ca4	c1 e1 0a	 shl	 ecx, 10			; 0000000aH
  00ca7	8b 90 e4 00 00
	00		 mov	 edx, DWORD PTR ?aircraft_database@@3PAUAIRCRAFT_DATA@@A[eax+228]
  00cad	81 e2 ff 03 c0
	ff		 and	 edx, -4193281		; ffc003ffH
  00cb3	0b d1		 or	 edx, ecx
  00cb5	69 45 f4 f4 00
	00 00		 imul	 eax, DWORD PTR _i$[ebp], 244
  00cbc	89 90 e4 00 00
	00		 mov	 DWORD PTR ?aircraft_database@@3PAUAIRCRAFT_DATA@@A[eax+228], edx

; 1291 : 
; 1292 : 		fscanf(f,"%[^\n]\n",buf);

  00cc2	8d 85 ec f7 ff
	ff		 lea	 eax, DWORD PTR _buf$[ebp]
  00cc8	50		 push	 eax
  00cc9	68 00 00 00 00	 push	 OFFSET ??_C@_06OPEKAKCJ@?$CF?$FL?$FO?6?$FN?6@
  00cce	8b 4d fc	 mov	 ecx, DWORD PTR _f$[ebp]
  00cd1	51		 push	 ecx
  00cd2	e8 00 00 00 00	 call	 _fscanf
  00cd7	83 c4 0c	 add	 esp, 12			; 0000000cH

; 1293 : 		TESTDUMP(buf);

  00cda	83 bd e4 f7 ff
	ff 00		 cmp	 DWORD PTR _testdump$[ebp], 0
  00ce1	74 25		 je	 SHORT $LN30@ReadGWutIn
  00ce3	8d 85 ec f7 ff
	ff		 lea	 eax, DWORD PTR _buf$[ebp]
  00ce9	50		 push	 eax
  00cea	68 00 00 00 00	 push	 OFFSET ??_C@_03OFAPEBGM@?$CFs?6@
  00cef	8b 4d f8	 mov	 ecx, DWORD PTR _fout$[ebp]
  00cf2	51		 push	 ecx
  00cf3	e8 00 00 00 00	 call	 _fprintf
  00cf8	83 c4 0c	 add	 esp, 12			; 0000000cH
  00cfb	8b 45 f8	 mov	 eax, DWORD PTR _fout$[ebp]
  00cfe	50		 push	 eax
  00cff	ff 15 00 00 00
	00		 call	 DWORD PTR __imp__fflush
  00d05	83 c4 04	 add	 esp, 4
$LN30@ReadGWutIn:

; 1294 : 	}

  00d08	e9 ce f4 ff ff	 jmp	 $LN29@ReadGWutIn
$LN3@ReadGWutIn:

; 1295 : 
; 1296 : 	// READ [VEHICLES]
; 1297 : 
; 1298 : 	if (READ_HEADER)

  00d0d	83 3d 00 00 00
	00 00		 cmp	 DWORD PTR ?READ_HEADER@@3HA, 0 ; READ_HEADER
  00d14	74 18		 je	 SHORT $LN31@ReadGWutIn

; 1299 : 		fscanf(f,"%[^\n]\n",buf);

  00d16	8d 85 ec f7 ff
	ff		 lea	 eax, DWORD PTR _buf$[ebp]
  00d1c	50		 push	 eax
  00d1d	68 00 00 00 00	 push	 OFFSET ??_C@_06OPEKAKCJ@?$CF?$FL?$FO?6?$FN?6@
  00d22	8b 4d fc	 mov	 ecx, DWORD PTR _f$[ebp]
  00d25	51		 push	 ecx
  00d26	e8 00 00 00 00	 call	 _fscanf
  00d2b	83 c4 0c	 add	 esp, 12			; 0000000cH
$LN31@ReadGWutIn:

; 1300 : 	TESTDUMP(buf);

  00d2e	83 bd e4 f7 ff
	ff 00		 cmp	 DWORD PTR _testdump$[ebp], 0
  00d35	74 25		 je	 SHORT $LN32@ReadGWutIn
  00d37	8d 85 ec f7 ff
	ff		 lea	 eax, DWORD PTR _buf$[ebp]
  00d3d	50		 push	 eax
  00d3e	68 00 00 00 00	 push	 OFFSET ??_C@_03OFAPEBGM@?$CFs?6@
  00d43	8b 4d f8	 mov	 ecx, DWORD PTR _fout$[ebp]
  00d46	51		 push	 ecx
  00d47	e8 00 00 00 00	 call	 _fprintf
  00d4c	83 c4 0c	 add	 esp, 12			; 0000000cH
  00d4f	8b 45 f8	 mov	 eax, DWORD PTR _fout$[ebp]
  00d52	50		 push	 eax
  00d53	ff 15 00 00 00
	00		 call	 DWORD PTR __imp__fflush
  00d59	83 c4 04	 add	 esp, 4
$LN32@ReadGWutIn:

; 1301 : 
; 1302 : 	fscanf(f,"%[^\n]\n",buf);

  00d5c	8d 85 ec f7 ff
	ff		 lea	 eax, DWORD PTR _buf$[ebp]
  00d62	50		 push	 eax
  00d63	68 00 00 00 00	 push	 OFFSET ??_C@_06OPEKAKCJ@?$CF?$FL?$FO?6?$FN?6@
  00d68	8b 4d fc	 mov	 ecx, DWORD PTR _f$[ebp]
  00d6b	51		 push	 ecx
  00d6c	e8 00 00 00 00	 call	 _fscanf
  00d71	83 c4 0c	 add	 esp, 12			; 0000000cH

; 1303 : 	// read first values
; 1304 : 	TESTDUMP(buf);

  00d74	83 bd e4 f7 ff
	ff 00		 cmp	 DWORD PTR _testdump$[ebp], 0
  00d7b	74 25		 je	 SHORT $LN33@ReadGWutIn
  00d7d	8d 85 ec f7 ff
	ff		 lea	 eax, DWORD PTR _buf$[ebp]
  00d83	50		 push	 eax
  00d84	68 00 00 00 00	 push	 OFFSET ??_C@_03OFAPEBGM@?$CFs?6@
  00d89	8b 4d f8	 mov	 ecx, DWORD PTR _fout$[ebp]
  00d8c	51		 push	 ecx
  00d8d	e8 00 00 00 00	 call	 _fprintf
  00d92	83 c4 0c	 add	 esp, 12			; 0000000cH
  00d95	8b 45 f8	 mov	 eax, DWORD PTR _fout$[ebp]
  00d98	50		 push	 eax
  00d99	ff 15 00 00 00
	00		 call	 DWORD PTR __imp__fflush
  00d9f	83 c4 04	 add	 esp, 4
$LN33@ReadGWutIn:

; 1305 : 
; 1306 : 	while (!(strcmp(buf,"[WEAPONS]")==0) && !(strcmp(buf,"[End of GWUT file]")==0))

  00da2	68 00 00 00 00	 push	 OFFSET ??_C@_09ELKCPFM@?$FLWEAPONS?$FN@
  00da7	8d 85 ec f7 ff
	ff		 lea	 eax, DWORD PTR _buf$[ebp]
  00dad	50		 push	 eax
  00dae	e8 00 00 00 00	 call	 _strcmp
  00db3	83 c4 08	 add	 esp, 8
  00db6	85 c0		 test	 eax, eax
  00db8	0f 84 ff 08 00
	00		 je	 $LN5@ReadGWutIn
  00dbe	68 00 00 00 00	 push	 OFFSET ??_C@_0BD@EMPOBEGN@?$FLEnd?5of?5GWUT?5file?$FN@
  00dc3	8d 85 ec f7 ff
	ff		 lea	 eax, DWORD PTR _buf$[ebp]
  00dc9	50		 push	 eax
  00dca	e8 00 00 00 00	 call	 _strcmp
  00dcf	83 c4 08	 add	 esp, 8
  00dd2	85 c0		 test	 eax, eax
  00dd4	0f 84 e3 08 00
	00		 je	 $LN5@ReadGWutIn

; 1307 : 	{
; 1308 : 		p = strtok(buf,",");

  00dda	68 00 00 00 00	 push	 OFFSET ??_C@_01IHBHIGKO@?0@
  00ddf	8d 85 ec f7 ff
	ff		 lea	 eax, DWORD PTR _buf$[ebp]
  00de5	50		 push	 eax
  00de6	ff 15 00 00 00
	00		 call	 DWORD PTR __imp__strtok
  00dec	83 c4 08	 add	 esp, 8
  00def	89 85 e8 f7 ff
	ff		 mov	 DWORD PTR _p$[ebp], eax

; 1309 : 		i = atoi(p);

  00df5	8b 85 e8 f7 ff
	ff		 mov	 eax, DWORD PTR _p$[ebp]
  00dfb	50		 push	 eax
  00dfc	ff 15 00 00 00
	00		 call	 DWORD PTR __imp__atoi
  00e02	83 c4 04	 add	 esp, 4
  00e05	89 45 f4	 mov	 DWORD PTR _i$[ebp], eax

; 1310 : 		//get entity number
; 1311 : 		p = strtok(NULL,",");

  00e08	68 00 00 00 00	 push	 OFFSET ??_C@_01IHBHIGKO@?0@
  00e0d	6a 00		 push	 0
  00e0f	ff 15 00 00 00
	00		 call	 DWORD PTR __imp__strtok
  00e15	83 c4 08	 add	 esp, 8
  00e18	89 85 e8 f7 ff
	ff		 mov	 DWORD PTR _p$[ebp], eax

; 1312 : 		//skip full name
; 1313 : 
; 1314 : 		vehicle_database[i].force                               = ( entity_forces ) IntValue(p);

  00e1e	68 00 00 00 00	 push	 OFFSET ??_C@_01IHBHIGKO@?0@
  00e23	6a 00		 push	 0
  00e25	ff 15 00 00 00
	00		 call	 DWORD PTR __imp__strtok
  00e2b	83 c4 08	 add	 esp, 8
  00e2e	50		 push	 eax
  00e2f	ff 15 00 00 00
	00		 call	 DWORD PTR __imp__atoi
  00e35	83 c4 04	 add	 esp, 4
  00e38	69 4d f4 bc 00
	00 00		 imul	 ecx, DWORD PTR _i$[ebp], 188
  00e3f	89 81 14 00 00
	00		 mov	 DWORD PTR ?vehicle_database@@3PAUVEHICLE_DATA@@A[ecx+20], eax

; 1315 : 		/*  Don't read weapons configs, the numbers have changed, so will be wrong in GWUT file! */
; 1316 : 		/*vehicle_database[i].default_weapon_config_type          = */IntValue(p);

  00e45	68 00 00 00 00	 push	 OFFSET ??_C@_01IHBHIGKO@?0@
  00e4a	6a 00		 push	 0
  00e4c	ff 15 00 00 00
	00		 call	 DWORD PTR __imp__strtok
  00e52	83 c4 08	 add	 esp, 8
  00e55	50		 push	 eax
  00e56	ff 15 00 00 00
	00		 call	 DWORD PTR __imp__atoi
  00e5c	83 c4 04	 add	 esp, 4

; 1317 : 		/*vehicle_database[i].min_weapon_config_type              = */IntValue(p);

  00e5f	68 00 00 00 00	 push	 OFFSET ??_C@_01IHBHIGKO@?0@
  00e64	6a 00		 push	 0
  00e66	ff 15 00 00 00
	00		 call	 DWORD PTR __imp__strtok
  00e6c	83 c4 08	 add	 esp, 8
  00e6f	50		 push	 eax
  00e70	ff 15 00 00 00
	00		 call	 DWORD PTR __imp__atoi
  00e76	83 c4 04	 add	 esp, 4

; 1318 : 		/*vehicle_database[i].max_weapon_config_type              = */IntValue(p);

  00e79	68 00 00 00 00	 push	 OFFSET ??_C@_01IHBHIGKO@?0@
  00e7e	6a 00		 push	 0
  00e80	ff 15 00 00 00
	00		 call	 DWORD PTR __imp__strtok
  00e86	83 c4 08	 add	 esp, 8
  00e89	50		 push	 eax
  00e8a	ff 15 00 00 00
	00		 call	 DWORD PTR __imp__atoi
  00e90	83 c4 04	 add	 esp, 4

; 1319 : 		/*vehicle_database[i].default_weapon_type                 = */IntValue(p);

  00e93	68 00 00 00 00	 push	 OFFSET ??_C@_01IHBHIGKO@?0@
  00e98	6a 00		 push	 0
  00e9a	ff 15 00 00 00
	00		 call	 DWORD PTR __imp__strtok
  00ea0	83 c4 08	 add	 esp, 8
  00ea3	50		 push	 eax
  00ea4	ff 15 00 00 00
	00		 call	 DWORD PTR __imp__atoi
  00eaa	83 c4 04	 add	 esp, 4

; 1320 : 		vehicle_database[i].target_type                         = ( target_types ) IntValue(p);

  00ead	68 00 00 00 00	 push	 OFFSET ??_C@_01IHBHIGKO@?0@
  00eb2	6a 00		 push	 0
  00eb4	ff 15 00 00 00
	00		 call	 DWORD PTR __imp__strtok
  00eba	83 c4 08	 add	 esp, 8
  00ebd	50		 push	 eax
  00ebe	ff 15 00 00 00
	00		 call	 DWORD PTR __imp__atoi
  00ec4	83 c4 04	 add	 esp, 4
  00ec7	69 4d f4 bc 00
	00 00		 imul	 ecx, DWORD PTR _i$[ebp], 188
  00ece	89 81 28 00 00
	00		 mov	 DWORD PTR ?vehicle_database@@3PAUVEHICLE_DATA@@A[ecx+40], eax

; 1321 : 		vehicle_database[i].target_symbol_type                  = ( target_symbol_types ) IntValue(p);

  00ed4	68 00 00 00 00	 push	 OFFSET ??_C@_01IHBHIGKO@?0@
  00ed9	6a 00		 push	 0
  00edb	ff 15 00 00 00
	00		 call	 DWORD PTR __imp__strtok
  00ee1	83 c4 08	 add	 esp, 8
  00ee4	50		 push	 eax
  00ee5	ff 15 00 00 00
	00		 call	 DWORD PTR __imp__atoi
  00eeb	83 c4 04	 add	 esp, 4
  00eee	69 4d f4 bc 00
	00 00		 imul	 ecx, DWORD PTR _i$[ebp], 188
  00ef5	89 81 2c 00 00
	00		 mov	 DWORD PTR ?vehicle_database@@3PAUVEHICLE_DATA@@A[ecx+44], eax

; 1322 : 		vehicle_database[i].target_priority_type                = ( target_priority_types ) IntValue(p);

  00efb	68 00 00 00 00	 push	 OFFSET ??_C@_01IHBHIGKO@?0@
  00f00	6a 00		 push	 0
  00f02	ff 15 00 00 00
	00		 call	 DWORD PTR __imp__strtok
  00f08	83 c4 08	 add	 esp, 8
  00f0b	50		 push	 eax
  00f0c	ff 15 00 00 00
	00		 call	 DWORD PTR __imp__atoi
  00f12	83 c4 04	 add	 esp, 4
  00f15	69 4d f4 bc 00
	00 00		 imul	 ecx, DWORD PTR _i$[ebp], 188
  00f1c	89 81 30 00 00
	00		 mov	 DWORD PTR ?vehicle_database@@3PAUVEHICLE_DATA@@A[ecx+48], eax

; 1323 : 		vehicle_database[i].force_info_catagory                 = ( force_info_catagories ) IntValue(p);

  00f22	68 00 00 00 00	 push	 OFFSET ??_C@_01IHBHIGKO@?0@
  00f27	6a 00		 push	 0
  00f29	ff 15 00 00 00
	00		 call	 DWORD PTR __imp__strtok
  00f2f	83 c4 08	 add	 esp, 8
  00f32	50		 push	 eax
  00f33	ff 15 00 00 00
	00		 call	 DWORD PTR __imp__atoi
  00f39	83 c4 04	 add	 esp, 4
  00f3c	69 4d f4 bc 00
	00 00		 imul	 ecx, DWORD PTR _i$[ebp], 188
  00f43	89 81 34 00 00
	00		 mov	 DWORD PTR ?vehicle_database@@3PAUVEHICLE_DATA@@A[ecx+52], eax

; 1324 : 		vehicle_database[i].threat_type                         = ( threat_types ) IntValue(p);

  00f49	68 00 00 00 00	 push	 OFFSET ??_C@_01IHBHIGKO@?0@
  00f4e	6a 00		 push	 0
  00f50	ff 15 00 00 00
	00		 call	 DWORD PTR __imp__strtok
  00f56	83 c4 08	 add	 esp, 8
  00f59	50		 push	 eax
  00f5a	ff 15 00 00 00
	00		 call	 DWORD PTR __imp__atoi
  00f60	83 c4 04	 add	 esp, 4
  00f63	69 4d f4 bc 00
	00 00		 imul	 ecx, DWORD PTR _i$[ebp], 188
  00f6a	89 81 38 00 00
	00		 mov	 DWORD PTR ?vehicle_database@@3PAUVEHICLE_DATA@@A[ecx+56], eax

; 1325 : 		vehicle_database[i].carries_smoke_grenades              = IntValue(p);

  00f70	68 00 00 00 00	 push	 OFFSET ??_C@_01IHBHIGKO@?0@
  00f75	6a 00		 push	 0
  00f77	ff 15 00 00 00
	00		 call	 DWORD PTR __imp__strtok
  00f7d	83 c4 08	 add	 esp, 8
  00f80	50		 push	 eax
  00f81	ff 15 00 00 00
	00		 call	 DWORD PTR __imp__atoi
  00f87	83 c4 04	 add	 esp, 4
  00f8a	69 4d f4 bc 00
	00 00		 imul	 ecx, DWORD PTR _i$[ebp], 188
  00f91	89 81 48 00 00
	00		 mov	 DWORD PTR ?vehicle_database@@3PAUVEHICLE_DATA@@A[ecx+72], eax

; 1326 : 		vehicle_database[i].chase_view_min_distance             = FloatValue(p);

  00f97	68 00 00 00 00	 push	 OFFSET ??_C@_01IHBHIGKO@?0@
  00f9c	6a 00		 push	 0
  00f9e	ff 15 00 00 00
	00		 call	 DWORD PTR __imp__strtok
  00fa4	83 c4 08	 add	 esp, 8
  00fa7	50		 push	 eax
  00fa8	ff 15 00 00 00
	00		 call	 DWORD PTR __imp__atof
  00fae	83 c4 04	 add	 esp, 4
  00fb1	d9 9d 9c f6 ff
	ff		 fstp	 DWORD PTR tv4224[ebp]
  00fb7	d9 85 9c f6 ff
	ff		 fld	 DWORD PTR tv4224[ebp]
  00fbd	69 45 f4 bc 00
	00 00		 imul	 eax, DWORD PTR _i$[ebp], 188
  00fc4	d9 98 4c 00 00
	00		 fstp	 DWORD PTR ?vehicle_database@@3PAUVEHICLE_DATA@@A[eax+76]

; 1327 : 		vehicle_database[i].chase_view_max_distance             = FloatValue(p);

  00fca	68 00 00 00 00	 push	 OFFSET ??_C@_01IHBHIGKO@?0@
  00fcf	6a 00		 push	 0
  00fd1	ff 15 00 00 00
	00		 call	 DWORD PTR __imp__strtok
  00fd7	83 c4 08	 add	 esp, 8
  00fda	50		 push	 eax
  00fdb	ff 15 00 00 00
	00		 call	 DWORD PTR __imp__atof
  00fe1	83 c4 04	 add	 esp, 4
  00fe4	d9 9d 9c f6 ff
	ff		 fstp	 DWORD PTR tv4228[ebp]
  00fea	d9 85 9c f6 ff
	ff		 fld	 DWORD PTR tv4228[ebp]
  00ff0	69 45 f4 bc 00
	00 00		 imul	 eax, DWORD PTR _i$[ebp], 188
  00ff7	d9 98 50 00 00
	00		 fstp	 DWORD PTR ?vehicle_database@@3PAUVEHICLE_DATA@@A[eax+80]

; 1328 : 		vehicle_database[i].chase_view_min_distance_test        = FloatValue(p);

  00ffd	68 00 00 00 00	 push	 OFFSET ??_C@_01IHBHIGKO@?0@
  01002	6a 00		 push	 0
  01004	ff 15 00 00 00
	00		 call	 DWORD PTR __imp__strtok
  0100a	83 c4 08	 add	 esp, 8
  0100d	50		 push	 eax
  0100e	ff 15 00 00 00
	00		 call	 DWORD PTR __imp__atof
  01014	83 c4 04	 add	 esp, 4
  01017	d9 9d 9c f6 ff
	ff		 fstp	 DWORD PTR tv4232[ebp]
  0101d	d9 85 9c f6 ff
	ff		 fld	 DWORD PTR tv4232[ebp]
  01023	69 45 f4 bc 00
	00 00		 imul	 eax, DWORD PTR _i$[ebp], 188
  0102a	d9 98 54 00 00
	00		 fstp	 DWORD PTR ?vehicle_database@@3PAUVEHICLE_DATA@@A[eax+84]

; 1329 : 		vehicle_database[i].chase_view_max_distance_test        = FloatValue(p);

  01030	68 00 00 00 00	 push	 OFFSET ??_C@_01IHBHIGKO@?0@
  01035	6a 00		 push	 0
  01037	ff 15 00 00 00
	00		 call	 DWORD PTR __imp__strtok
  0103d	83 c4 08	 add	 esp, 8
  01040	50		 push	 eax
  01041	ff 15 00 00 00
	00		 call	 DWORD PTR __imp__atof
  01047	83 c4 04	 add	 esp, 4
  0104a	d9 9d 9c f6 ff
	ff		 fstp	 DWORD PTR tv4236[ebp]
  01050	d9 85 9c f6 ff
	ff		 fld	 DWORD PTR tv4236[ebp]
  01056	69 45 f4 bc 00
	00 00		 imul	 eax, DWORD PTR _i$[ebp], 188
  0105d	d9 98 58 00 00
	00		 fstp	 DWORD PTR ?vehicle_database@@3PAUVEHICLE_DATA@@A[eax+88]

; 1330 : 		vehicle_database[i].cruise_velocity                     = FloatValue(p);

  01063	68 00 00 00 00	 push	 OFFSET ??_C@_01IHBHIGKO@?0@
  01068	6a 00		 push	 0
  0106a	ff 15 00 00 00
	00		 call	 DWORD PTR __imp__strtok
  01070	83 c4 08	 add	 esp, 8
  01073	50		 push	 eax
  01074	ff 15 00 00 00
	00		 call	 DWORD PTR __imp__atof
  0107a	83 c4 04	 add	 esp, 4
  0107d	d9 9d 9c f6 ff
	ff		 fstp	 DWORD PTR tv4240[ebp]
  01083	d9 85 9c f6 ff
	ff		 fld	 DWORD PTR tv4240[ebp]
  01089	69 45 f4 bc 00
	00 00		 imul	 eax, DWORD PTR _i$[ebp], 188
  01090	d9 98 5c 00 00
	00		 fstp	 DWORD PTR ?vehicle_database@@3PAUVEHICLE_DATA@@A[eax+92]

; 1331 : 		vehicle_database[i].axle_length                         = FloatValue(p);

  01096	68 00 00 00 00	 push	 OFFSET ??_C@_01IHBHIGKO@?0@
  0109b	6a 00		 push	 0
  0109d	ff 15 00 00 00
	00		 call	 DWORD PTR __imp__strtok
  010a3	83 c4 08	 add	 esp, 8
  010a6	50		 push	 eax
  010a7	ff 15 00 00 00
	00		 call	 DWORD PTR __imp__atof
  010ad	83 c4 04	 add	 esp, 4
  010b0	d9 9d 9c f6 ff
	ff		 fstp	 DWORD PTR tv4244[ebp]
  010b6	d9 85 9c f6 ff
	ff		 fld	 DWORD PTR tv4244[ebp]
  010bc	69 45 f4 bc 00
	00 00		 imul	 eax, DWORD PTR _i$[ebp], 188
  010c3	d9 98 60 00 00
	00		 fstp	 DWORD PTR ?vehicle_database@@3PAUVEHICLE_DATA@@A[eax+96]

; 1332 : 		vehicle_database[i].max_acceleration                    = FloatValue(p);

  010c9	68 00 00 00 00	 push	 OFFSET ??_C@_01IHBHIGKO@?0@
  010ce	6a 00		 push	 0
  010d0	ff 15 00 00 00
	00		 call	 DWORD PTR __imp__strtok
  010d6	83 c4 08	 add	 esp, 8
  010d9	50		 push	 eax
  010da	ff 15 00 00 00
	00		 call	 DWORD PTR __imp__atof
  010e0	83 c4 04	 add	 esp, 4
  010e3	d9 9d 9c f6 ff
	ff		 fstp	 DWORD PTR tv4248[ebp]
  010e9	d9 85 9c f6 ff
	ff		 fld	 DWORD PTR tv4248[ebp]
  010ef	69 45 f4 bc 00
	00 00		 imul	 eax, DWORD PTR _i$[ebp], 188
  010f6	d9 98 64 00 00
	00		 fstp	 DWORD PTR ?vehicle_database@@3PAUVEHICLE_DATA@@A[eax+100]

; 1333 : 		vehicle_database[i].max_turn_rate                       = rad (FloatValue(p));

  010fc	68 00 00 00 00	 push	 OFFSET ??_C@_01IHBHIGKO@?0@
  01101	6a 00		 push	 0
  01103	ff 15 00 00 00
	00		 call	 DWORD PTR __imp__strtok
  01109	83 c4 08	 add	 esp, 8
  0110c	50		 push	 eax
  0110d	ff 15 00 00 00
	00		 call	 DWORD PTR __imp__atof
  01113	83 c4 04	 add	 esp, 4
  01116	dd 9d 98 f6 ff
	ff		 fstp	 QWORD PTR tv4252[ebp]
  0111c	f2 0f 10 85 98
	f6 ff ff	 movsd	 xmm0, QWORD PTR tv4252[ebp]
  01124	f2 0f 59 05 00
	00 00 00	 mulsd	 xmm0, QWORD PTR __real@3f91df46a0000000
  0112c	f2 0f 5a c0	 cvtsd2ss xmm0, xmm0
  01130	69 45 f4 bc 00
	00 00		 imul	 eax, DWORD PTR _i$[ebp], 188
  01137	f3 0f 11 80 68
	00 00 00	 movss	 DWORD PTR ?vehicle_database@@3PAUVEHICLE_DATA@@A[eax+104], xmm0

; 1334 : 		vehicle_database[i].g_max                               = FloatValue(p);

  0113f	68 00 00 00 00	 push	 OFFSET ??_C@_01IHBHIGKO@?0@
  01144	6a 00		 push	 0
  01146	ff 15 00 00 00
	00		 call	 DWORD PTR __imp__strtok
  0114c	83 c4 08	 add	 esp, 8
  0114f	50		 push	 eax
  01150	ff 15 00 00 00
	00		 call	 DWORD PTR __imp__atof
  01156	83 c4 04	 add	 esp, 4
  01159	d9 9d 9c f6 ff
	ff		 fstp	 DWORD PTR tv4257[ebp]
  0115f	d9 85 9c f6 ff
	ff		 fld	 DWORD PTR tv4257[ebp]
  01165	69 45 f4 bc 00
	00 00		 imul	 eax, DWORD PTR _i$[ebp], 188
  0116c	d9 98 6c 00 00
	00		 fstp	 DWORD PTR ?vehicle_database@@3PAUVEHICLE_DATA@@A[eax+108]

; 1335 : 		vehicle_database[i].power_output                        = FloatValue(p);

  01172	68 00 00 00 00	 push	 OFFSET ??_C@_01IHBHIGKO@?0@
  01177	6a 00		 push	 0
  01179	ff 15 00 00 00
	00		 call	 DWORD PTR __imp__strtok
  0117f	83 c4 08	 add	 esp, 8
  01182	50		 push	 eax
  01183	ff 15 00 00 00
	00		 call	 DWORD PTR __imp__atof
  01189	83 c4 04	 add	 esp, 4
  0118c	d9 9d 9c f6 ff
	ff		 fstp	 DWORD PTR tv4261[ebp]
  01192	d9 85 9c f6 ff
	ff		 fld	 DWORD PTR tv4261[ebp]
  01198	69 45 f4 bc 00
	00 00		 imul	 eax, DWORD PTR _i$[ebp], 188
  0119f	d9 98 70 00 00
	00		 fstp	 DWORD PTR ?vehicle_database@@3PAUVEHICLE_DATA@@A[eax+112]

; 1336 : 		vehicle_database[i].recon_radius                        = FloatValue(p);

  011a5	68 00 00 00 00	 push	 OFFSET ??_C@_01IHBHIGKO@?0@
  011aa	6a 00		 push	 0
  011ac	ff 15 00 00 00
	00		 call	 DWORD PTR __imp__strtok
  011b2	83 c4 08	 add	 esp, 8
  011b5	50		 push	 eax
  011b6	ff 15 00 00 00
	00		 call	 DWORD PTR __imp__atof
  011bc	83 c4 04	 add	 esp, 4
  011bf	d9 9d 9c f6 ff
	ff		 fstp	 DWORD PTR tv4265[ebp]
  011c5	d9 85 9c f6 ff
	ff		 fld	 DWORD PTR tv4265[ebp]
  011cb	69 45 f4 bc 00
	00 00		 imul	 eax, DWORD PTR _i$[ebp], 188
  011d2	d9 98 74 00 00
	00		 fstp	 DWORD PTR ?vehicle_database@@3PAUVEHICLE_DATA@@A[eax+116]

; 1337 : 		vehicle_database[i].target_scan_delay                   = FloatValue(p);

  011d8	68 00 00 00 00	 push	 OFFSET ??_C@_01IHBHIGKO@?0@
  011dd	6a 00		 push	 0
  011df	ff 15 00 00 00
	00		 call	 DWORD PTR __imp__strtok
  011e5	83 c4 08	 add	 esp, 8
  011e8	50		 push	 eax
  011e9	ff 15 00 00 00
	00		 call	 DWORD PTR __imp__atof
  011ef	83 c4 04	 add	 esp, 4
  011f2	d9 9d 9c f6 ff
	ff		 fstp	 DWORD PTR tv4269[ebp]
  011f8	d9 85 9c f6 ff
	ff		 fld	 DWORD PTR tv4269[ebp]
  011fe	69 45 f4 bc 00
	00 00		 imul	 eax, DWORD PTR _i$[ebp], 188
  01205	d9 98 78 00 00
	00		 fstp	 DWORD PTR ?vehicle_database@@3PAUVEHICLE_DATA@@A[eax+120]

; 1338 : 		vehicle_database[i].air_scan_floor                      = FloatValue(p);

  0120b	68 00 00 00 00	 push	 OFFSET ??_C@_01IHBHIGKO@?0@
  01210	6a 00		 push	 0
  01212	ff 15 00 00 00
	00		 call	 DWORD PTR __imp__strtok
  01218	83 c4 08	 add	 esp, 8
  0121b	50		 push	 eax
  0121c	ff 15 00 00 00
	00		 call	 DWORD PTR __imp__atof
  01222	83 c4 04	 add	 esp, 4
  01225	d9 9d 9c f6 ff
	ff		 fstp	 DWORD PTR tv4273[ebp]
  0122b	d9 85 9c f6 ff
	ff		 fld	 DWORD PTR tv4273[ebp]
  01231	69 45 f4 bc 00
	00 00		 imul	 eax, DWORD PTR _i$[ebp], 188
  01238	d9 98 7c 00 00
	00		 fstp	 DWORD PTR ?vehicle_database@@3PAUVEHICLE_DATA@@A[eax+124]

; 1339 : 		vehicle_database[i].air_scan_ceiling                    = FloatValue(p);

  0123e	68 00 00 00 00	 push	 OFFSET ??_C@_01IHBHIGKO@?0@
  01243	6a 00		 push	 0
  01245	ff 15 00 00 00
	00		 call	 DWORD PTR __imp__strtok
  0124b	83 c4 08	 add	 esp, 8
  0124e	50		 push	 eax
  0124f	ff 15 00 00 00
	00		 call	 DWORD PTR __imp__atof
  01255	83 c4 04	 add	 esp, 4
  01258	d9 9d 9c f6 ff
	ff		 fstp	 DWORD PTR tv4277[ebp]
  0125e	d9 85 9c f6 ff
	ff		 fld	 DWORD PTR tv4277[ebp]
  01264	69 45 f4 bc 00
	00 00		 imul	 eax, DWORD PTR _i$[ebp], 188
  0126b	d9 98 80 00 00
	00		 fstp	 DWORD PTR ?vehicle_database@@3PAUVEHICLE_DATA@@A[eax+128]

; 1340 : 		vehicle_database[i].air_scan_range                      = FloatValue(p);

  01271	68 00 00 00 00	 push	 OFFSET ??_C@_01IHBHIGKO@?0@
  01276	6a 00		 push	 0
  01278	ff 15 00 00 00
	00		 call	 DWORD PTR __imp__strtok
  0127e	83 c4 08	 add	 esp, 8
  01281	50		 push	 eax
  01282	ff 15 00 00 00
	00		 call	 DWORD PTR __imp__atof
  01288	83 c4 04	 add	 esp, 4
  0128b	d9 9d 9c f6 ff
	ff		 fstp	 DWORD PTR tv4281[ebp]
  01291	d9 85 9c f6 ff
	ff		 fld	 DWORD PTR tv4281[ebp]
  01297	69 45 f4 bc 00
	00 00		 imul	 eax, DWORD PTR _i$[ebp], 188
  0129e	d9 98 84 00 00
	00		 fstp	 DWORD PTR ?vehicle_database@@3PAUVEHICLE_DATA@@A[eax+132]

; 1341 : 		vehicle_database[i].surface_scan_range                  = FloatValue(p);

  012a4	68 00 00 00 00	 push	 OFFSET ??_C@_01IHBHIGKO@?0@
  012a9	6a 00		 push	 0
  012ab	ff 15 00 00 00
	00		 call	 DWORD PTR __imp__strtok
  012b1	83 c4 08	 add	 esp, 8
  012b4	50		 push	 eax
  012b5	ff 15 00 00 00
	00		 call	 DWORD PTR __imp__atof
  012bb	83 c4 04	 add	 esp, 4
  012be	d9 9d 9c f6 ff
	ff		 fstp	 DWORD PTR tv4285[ebp]
  012c4	d9 85 9c f6 ff
	ff		 fld	 DWORD PTR tv4285[ebp]
  012ca	69 45 f4 bc 00
	00 00		 imul	 eax, DWORD PTR _i$[ebp], 188
  012d1	d9 98 88 00 00
	00		 fstp	 DWORD PTR ?vehicle_database@@3PAUVEHICLE_DATA@@A[eax+136]

; 1342 : 		vehicle_database[i].potential_surface_to_air_threat     = FloatValue(p);

  012d7	68 00 00 00 00	 push	 OFFSET ??_C@_01IHBHIGKO@?0@
  012dc	6a 00		 push	 0
  012de	ff 15 00 00 00
	00		 call	 DWORD PTR __imp__strtok
  012e4	83 c4 08	 add	 esp, 8
  012e7	50		 push	 eax
  012e8	ff 15 00 00 00
	00		 call	 DWORD PTR __imp__atof
  012ee	83 c4 04	 add	 esp, 4
  012f1	d9 9d 9c f6 ff
	ff		 fstp	 DWORD PTR tv4289[ebp]
  012f7	d9 85 9c f6 ff
	ff		 fld	 DWORD PTR tv4289[ebp]
  012fd	69 45 f4 bc 00
	00 00		 imul	 eax, DWORD PTR _i$[ebp], 188
  01304	d9 98 8c 00 00
	00		 fstp	 DWORD PTR ?vehicle_database@@3PAUVEHICLE_DATA@@A[eax+140]

; 1343 : 		vehicle_database[i].potential_surface_to_surface_threat = FloatValue(p);

  0130a	68 00 00 00 00	 push	 OFFSET ??_C@_01IHBHIGKO@?0@
  0130f	6a 00		 push	 0
  01311	ff 15 00 00 00
	00		 call	 DWORD PTR __imp__strtok
  01317	83 c4 08	 add	 esp, 8
  0131a	50		 push	 eax
  0131b	ff 15 00 00 00
	00		 call	 DWORD PTR __imp__atof
  01321	83 c4 04	 add	 esp, 4
  01324	d9 9d 9c f6 ff
	ff		 fstp	 DWORD PTR tv4293[ebp]
  0132a	d9 85 9c f6 ff
	ff		 fld	 DWORD PTR tv4293[ebp]
  01330	69 45 f4 bc 00
	00 00		 imul	 eax, DWORD PTR _i$[ebp], 188
  01337	d9 98 90 00 00
	00		 fstp	 DWORD PTR ?vehicle_database@@3PAUVEHICLE_DATA@@A[eax+144]

; 1344 : 		vehicle_database[i].ammo_economy                        = FloatValue(p);

  0133d	68 00 00 00 00	 push	 OFFSET ??_C@_01IHBHIGKO@?0@
  01342	6a 00		 push	 0
  01344	ff 15 00 00 00
	00		 call	 DWORD PTR __imp__strtok
  0134a	83 c4 08	 add	 esp, 8
  0134d	50		 push	 eax
  0134e	ff 15 00 00 00
	00		 call	 DWORD PTR __imp__atof
  01354	83 c4 04	 add	 esp, 4
  01357	d9 9d 9c f6 ff
	ff		 fstp	 DWORD PTR tv4297[ebp]
  0135d	d9 85 9c f6 ff
	ff		 fld	 DWORD PTR tv4297[ebp]
  01363	69 45 f4 bc 00
	00 00		 imul	 eax, DWORD PTR _i$[ebp], 188
  0136a	d9 98 94 00 00
	00		 fstp	 DWORD PTR ?vehicle_database@@3PAUVEHICLE_DATA@@A[eax+148]

; 1345 : 		vehicle_database[i].fuel_economy                        = FloatValue(p);

  01370	68 00 00 00 00	 push	 OFFSET ??_C@_01IHBHIGKO@?0@
  01375	6a 00		 push	 0
  01377	ff 15 00 00 00
	00		 call	 DWORD PTR __imp__strtok
  0137d	83 c4 08	 add	 esp, 8
  01380	50		 push	 eax
  01381	ff 15 00 00 00
	00		 call	 DWORD PTR __imp__atof
  01387	83 c4 04	 add	 esp, 4
  0138a	d9 9d 9c f6 ff
	ff		 fstp	 DWORD PTR tv4301[ebp]
  01390	d9 85 9c f6 ff
	ff		 fld	 DWORD PTR tv4301[ebp]
  01396	69 45 f4 bc 00
	00 00		 imul	 eax, DWORD PTR _i$[ebp], 188
  0139d	d9 98 98 00 00
	00		 fstp	 DWORD PTR ?vehicle_database@@3PAUVEHICLE_DATA@@A[eax+152]

; 1346 : 		vehicle_database[i].armour_front                        = FloatValue(p);

  013a3	68 00 00 00 00	 push	 OFFSET ??_C@_01IHBHIGKO@?0@
  013a8	6a 00		 push	 0
  013aa	ff 15 00 00 00
	00		 call	 DWORD PTR __imp__strtok
  013b0	83 c4 08	 add	 esp, 8
  013b3	50		 push	 eax
  013b4	ff 15 00 00 00
	00		 call	 DWORD PTR __imp__atof
  013ba	83 c4 04	 add	 esp, 4
  013bd	d9 9d 9c f6 ff
	ff		 fstp	 DWORD PTR tv4305[ebp]
  013c3	d9 85 9c f6 ff
	ff		 fld	 DWORD PTR tv4305[ebp]
  013c9	69 45 f4 bc 00
	00 00		 imul	 eax, DWORD PTR _i$[ebp], 188
  013d0	d9 98 9c 00 00
	00		 fstp	 DWORD PTR ?vehicle_database@@3PAUVEHICLE_DATA@@A[eax+156]

; 1347 : 		vehicle_database[i].armour_side                         = FloatValue(p);

  013d6	68 00 00 00 00	 push	 OFFSET ??_C@_01IHBHIGKO@?0@
  013db	6a 00		 push	 0
  013dd	ff 15 00 00 00
	00		 call	 DWORD PTR __imp__strtok
  013e3	83 c4 08	 add	 esp, 8
  013e6	50		 push	 eax
  013e7	ff 15 00 00 00
	00		 call	 DWORD PTR __imp__atof
  013ed	83 c4 04	 add	 esp, 4
  013f0	d9 9d 9c f6 ff
	ff		 fstp	 DWORD PTR tv4309[ebp]
  013f6	d9 85 9c f6 ff
	ff		 fld	 DWORD PTR tv4309[ebp]
  013fc	69 45 f4 bc 00
	00 00		 imul	 eax, DWORD PTR _i$[ebp], 188
  01403	d9 98 a0 00 00
	00		 fstp	 DWORD PTR ?vehicle_database@@3PAUVEHICLE_DATA@@A[eax+160]

; 1348 : 		vehicle_database[i].armour_rear                         = FloatValue(p);

  01409	68 00 00 00 00	 push	 OFFSET ??_C@_01IHBHIGKO@?0@
  0140e	6a 00		 push	 0
  01410	ff 15 00 00 00
	00		 call	 DWORD PTR __imp__strtok
  01416	83 c4 08	 add	 esp, 8
  01419	50		 push	 eax
  0141a	ff 15 00 00 00
	00		 call	 DWORD PTR __imp__atof
  01420	83 c4 04	 add	 esp, 4
  01423	d9 9d 9c f6 ff
	ff		 fstp	 DWORD PTR tv4313[ebp]
  01429	d9 85 9c f6 ff
	ff		 fld	 DWORD PTR tv4313[ebp]
  0142f	69 45 f4 bc 00
	00 00		 imul	 eax, DWORD PTR _i$[ebp], 188
  01436	d9 98 a4 00 00
	00		 fstp	 DWORD PTR ?vehicle_database@@3PAUVEHICLE_DATA@@A[eax+164]

; 1349 : 		vehicle_database[i].initial_damage_level                = IntValue(p);

  0143c	68 00 00 00 00	 push	 OFFSET ??_C@_01IHBHIGKO@?0@
  01441	6a 00		 push	 0
  01443	ff 15 00 00 00
	00		 call	 DWORD PTR __imp__strtok
  01449	83 c4 08	 add	 esp, 8
  0144c	50		 push	 eax
  0144d	ff 15 00 00 00
	00		 call	 DWORD PTR __imp__atoi
  01453	83 c4 04	 add	 esp, 4
  01456	69 4d f4 bc 00
	00 00		 imul	 ecx, DWORD PTR _i$[ebp], 188
  0145d	89 81 a8 00 00
	00		 mov	 DWORD PTR ?vehicle_database@@3PAUVEHICLE_DATA@@A[ecx+168], eax

; 1350 : 		j = IntValue(p); k = BinToInt(j);

  01463	68 00 00 00 00	 push	 OFFSET ??_C@_01IHBHIGKO@?0@
  01468	6a 00		 push	 0
  0146a	ff 15 00 00 00
	00		 call	 DWORD PTR __imp__strtok
  01470	83 c4 08	 add	 esp, 8
  01473	50		 push	 eax
  01474	ff 15 00 00 00
	00		 call	 DWORD PTR __imp__atoi
  0147a	83 c4 04	 add	 esp, 4
  0147d	89 45 f0	 mov	 DWORD PTR _j$[ebp], eax
  01480	83 7d f0 00	 cmp	 DWORD PTR _j$[ebp], 0
  01484	75 0c		 jne	 SHORT $LN95@ReadGWutIn
  01486	c7 85 9c f6 ff
	ff 00 00 00 00	 mov	 DWORD PTR tv975[ebp], 0
  01490	eb 66		 jmp	 SHORT $LN96@ReadGWutIn
$LN95@ReadGWutIn:
  01492	f2 0f 2a 45 f0	 cvtsi2sd xmm0, DWORD PTR _j$[ebp]
  01497	83 ec 08	 sub	 esp, 8
  0149a	f2 0f 10 0d 00
	00 00 00	 movsd	 xmm1, QWORD PTR __real@4000000000000000
  014a2	f2 0f 11 0c 24	 movsd	 QWORD PTR [esp], xmm1
  014a7	f2 0f 11 85 94
	f6 ff ff	 movsd	 QWORD PTR tv5457[ebp], xmm0
  014af	e8 00 00 00 00	 call	 _log
  014b4	83 c4 08	 add	 esp, 8
  014b7	dd 9d 8c f6 ff
	ff		 fstp	 QWORD PTR tv4322[ebp]
  014bd	f2 0f 10 85 94
	f6 ff ff	 movsd	 xmm0, QWORD PTR tv5457[ebp]
  014c5	f2 0f 59 85 8c
	f6 ff ff	 mulsd	 xmm0, QWORD PTR tv4322[ebp]
  014cd	83 ec 08	 sub	 esp, 8
  014d0	f2 0f 11 04 24	 movsd	 QWORD PTR [esp], xmm0
  014d5	e8 00 00 00 00	 call	 _exp
  014da	83 c4 08	 add	 esp, 8
  014dd	dd 9d 84 f6 ff
	ff		 fstp	 QWORD PTR tv4327[ebp]
  014e3	f2 0f 10 85 84
	f6 ff ff	 movsd	 xmm0, QWORD PTR tv4327[ebp]
  014eb	f2 0f 2c c0	 cvttsd2si eax, xmm0
  014ef	83 c0 01	 add	 eax, 1
  014f2	89 85 9c f6 ff
	ff		 mov	 DWORD PTR tv975[ebp], eax
$LN96@ReadGWutIn:
  014f8	8b 8d 9c f6 ff
	ff		 mov	 ecx, DWORD PTR tv975[ebp]
  014fe	89 4d ec	 mov	 DWORD PTR _k$[ebp], ecx

; 1351 : 		if (testdump) fprintf(fout,"%d %d\n",vehicle_database[i].warhead_effective_class, k);

  01501	83 bd e4 f7 ff
	ff 00		 cmp	 DWORD PTR _testdump$[ebp], 0
  01508	74 23		 je	 SHORT $LN34@ReadGWutIn
  0150a	8b 45 ec	 mov	 eax, DWORD PTR _k$[ebp]
  0150d	50		 push	 eax
  0150e	69 4d f4 bc 00
	00 00		 imul	 ecx, DWORD PTR _i$[ebp], 188
  01515	8b 91 ac 00 00
	00		 mov	 edx, DWORD PTR ?vehicle_database@@3PAUVEHICLE_DATA@@A[ecx+172]
  0151b	52		 push	 edx
  0151c	68 00 00 00 00	 push	 OFFSET ??_C@_06IPGPIAII@?$CFd?5?$CFd?6@
  01521	8b 45 f8	 mov	 eax, DWORD PTR _fout$[ebp]
  01524	50		 push	 eax
  01525	e8 00 00 00 00	 call	 _fprintf
  0152a	83 c4 10	 add	 esp, 16			; 00000010H
$LN34@ReadGWutIn:

; 1352 : 		vehicle_database[i].warhead_effective_class             = k;

  0152d	69 45 f4 bc 00
	00 00		 imul	 eax, DWORD PTR _i$[ebp], 188
  01534	8b 4d ec	 mov	 ecx, DWORD PTR _k$[ebp]
  01537	89 88 ac 00 00
	00		 mov	 DWORD PTR ?vehicle_database@@3PAUVEHICLE_DATA@@A[eax+172], ecx

; 1353 : 		vehicle_database[i].explosive_quality                   = IntValue(p);

  0153d	68 00 00 00 00	 push	 OFFSET ??_C@_01IHBHIGKO@?0@
  01542	6a 00		 push	 0
  01544	ff 15 00 00 00
	00		 call	 DWORD PTR __imp__strtok
  0154a	83 c4 08	 add	 esp, 8
  0154d	50		 push	 eax
  0154e	ff 15 00 00 00
	00		 call	 DWORD PTR __imp__atoi
  01554	83 c4 04	 add	 esp, 4
  01557	89 85 9c f6 ff
	ff		 mov	 DWORD PTR tv995[ebp], eax
  0155d	69 45 f4 bc 00
	00 00		 imul	 eax, DWORD PTR _i$[ebp], 188
  01564	8b 8d 9c f6 ff
	ff		 mov	 ecx, DWORD PTR tv995[ebp]
  0156a	83 e1 0f	 and	 ecx, 15			; 0000000fH
  0156d	8b 90 b0 00 00
	00		 mov	 edx, DWORD PTR ?vehicle_database@@3PAUVEHICLE_DATA@@A[eax+176]
  01573	83 e2 f0	 and	 edx, -16		; fffffff0H
  01576	0b d1		 or	 edx, ecx
  01578	69 45 f4 bc 00
	00 00		 imul	 eax, DWORD PTR _i$[ebp], 188
  0157f	89 90 b0 00 00
	00		 mov	 DWORD PTR ?vehicle_database@@3PAUVEHICLE_DATA@@A[eax+176], edx

; 1354 : 		vehicle_database[i].explosive_power                     = IntValue(p);

  01585	68 00 00 00 00	 push	 OFFSET ??_C@_01IHBHIGKO@?0@
  0158a	6a 00		 push	 0
  0158c	ff 15 00 00 00
	00		 call	 DWORD PTR __imp__strtok
  01592	83 c4 08	 add	 esp, 8
  01595	50		 push	 eax
  01596	ff 15 00 00 00
	00		 call	 DWORD PTR __imp__atoi
  0159c	83 c4 04	 add	 esp, 4
  0159f	89 85 9c f6 ff
	ff		 mov	 DWORD PTR tv1010[ebp], eax
  015a5	69 45 f4 bc 00
	00 00		 imul	 eax, DWORD PTR _i$[ebp], 188
  015ac	8b 8d 9c f6 ff
	ff		 mov	 ecx, DWORD PTR tv1010[ebp]
  015b2	83 e1 0f	 and	 ecx, 15			; 0000000fH
  015b5	c1 e1 04	 shl	 ecx, 4
  015b8	8b 90 b0 00 00
	00		 mov	 edx, DWORD PTR ?vehicle_database@@3PAUVEHICLE_DATA@@A[eax+176]
  015be	81 e2 0f ff ff
	ff		 and	 edx, -241		; ffffff0fH
  015c4	0b d1		 or	 edx, ecx
  015c6	69 45 f4 bc 00
	00 00		 imul	 eax, DWORD PTR _i$[ebp], 188
  015cd	89 90 b0 00 00
	00		 mov	 DWORD PTR ?vehicle_database@@3PAUVEHICLE_DATA@@A[eax+176], edx

; 1355 : 		vehicle_database[i].offensive_capability                = IntValue(p);

  015d3	68 00 00 00 00	 push	 OFFSET ??_C@_01IHBHIGKO@?0@
  015d8	6a 00		 push	 0
  015da	ff 15 00 00 00
	00		 call	 DWORD PTR __imp__strtok
  015e0	83 c4 08	 add	 esp, 8
  015e3	50		 push	 eax
  015e4	ff 15 00 00 00
	00		 call	 DWORD PTR __imp__atoi
  015ea	83 c4 04	 add	 esp, 4
  015ed	89 85 9c f6 ff
	ff		 mov	 DWORD PTR tv1026[ebp], eax
  015f3	69 45 f4 bc 00
	00 00		 imul	 eax, DWORD PTR _i$[ebp], 188
  015fa	8b 8d 9c f6 ff
	ff		 mov	 ecx, DWORD PTR tv1026[ebp]
  01600	83 e1 01	 and	 ecx, 1
  01603	c1 e1 08	 shl	 ecx, 8
  01606	8b 90 b0 00 00
	00		 mov	 edx, DWORD PTR ?vehicle_database@@3PAUVEHICLE_DATA@@A[eax+176]
  0160c	81 e2 ff fe ff
	ff		 and	 edx, -257		; fffffeffH
  01612	0b d1		 or	 edx, ecx
  01614	69 45 f4 bc 00
	00 00		 imul	 eax, DWORD PTR _i$[ebp], 188
  0161b	89 90 b0 00 00
	00		 mov	 DWORD PTR ?vehicle_database@@3PAUVEHICLE_DATA@@A[eax+176], edx

; 1356 : 		vehicle_database[i].points_value                        = IntValue(p);

  01621	68 00 00 00 00	 push	 OFFSET ??_C@_01IHBHIGKO@?0@
  01626	6a 00		 push	 0
  01628	ff 15 00 00 00
	00		 call	 DWORD PTR __imp__strtok
  0162e	83 c4 08	 add	 esp, 8
  01631	50		 push	 eax
  01632	ff 15 00 00 00
	00		 call	 DWORD PTR __imp__atoi
  01638	83 c4 04	 add	 esp, 4
  0163b	89 85 9c f6 ff
	ff		 mov	 DWORD PTR tv1042[ebp], eax
  01641	69 45 f4 bc 00
	00 00		 imul	 eax, DWORD PTR _i$[ebp], 188
  01648	8b 8d 9c f6 ff
	ff		 mov	 ecx, DWORD PTR tv1042[ebp]
  0164e	81 e1 ff 0f 00
	00		 and	 ecx, 4095		; 00000fffH
  01654	c1 e1 09	 shl	 ecx, 9
  01657	8b 90 b0 00 00
	00		 mov	 edx, DWORD PTR ?vehicle_database@@3PAUVEHICLE_DATA@@A[eax+176]
  0165d	81 e2 ff 01 e0
	ff		 and	 edx, -2096641		; ffe001ffH
  01663	0b d1		 or	 edx, ecx
  01665	69 45 f4 bc 00
	00 00		 imul	 eax, DWORD PTR _i$[ebp], 188
  0166c	89 90 b0 00 00
	00		 mov	 DWORD PTR ?vehicle_database@@3PAUVEHICLE_DATA@@A[eax+176], edx

; 1357 : 
; 1358 : 		fscanf(f,"%[^\n]\n",buf);

  01672	8d 85 ec f7 ff
	ff		 lea	 eax, DWORD PTR _buf$[ebp]
  01678	50		 push	 eax
  01679	68 00 00 00 00	 push	 OFFSET ??_C@_06OPEKAKCJ@?$CF?$FL?$FO?6?$FN?6@
  0167e	8b 4d fc	 mov	 ecx, DWORD PTR _f$[ebp]
  01681	51		 push	 ecx
  01682	e8 00 00 00 00	 call	 _fscanf
  01687	83 c4 0c	 add	 esp, 12			; 0000000cH

; 1359 : 		TESTDUMP(buf);

  0168a	83 bd e4 f7 ff
	ff 00		 cmp	 DWORD PTR _testdump$[ebp], 0
  01691	74 25		 je	 SHORT $LN35@ReadGWutIn
  01693	8d 85 ec f7 ff
	ff		 lea	 eax, DWORD PTR _buf$[ebp]
  01699	50		 push	 eax
  0169a	68 00 00 00 00	 push	 OFFSET ??_C@_03OFAPEBGM@?$CFs?6@
  0169f	8b 4d f8	 mov	 ecx, DWORD PTR _fout$[ebp]
  016a2	51		 push	 ecx
  016a3	e8 00 00 00 00	 call	 _fprintf
  016a8	83 c4 0c	 add	 esp, 12			; 0000000cH
  016ab	8b 45 f8	 mov	 eax, DWORD PTR _fout$[ebp]
  016ae	50		 push	 eax
  016af	ff 15 00 00 00
	00		 call	 DWORD PTR __imp__fflush
  016b5	83 c4 04	 add	 esp, 4
$LN35@ReadGWutIn:

; 1360 : 
; 1361 : 	}

  016b8	e9 e5 f6 ff ff	 jmp	 $LN33@ReadGWutIn
$LN5@ReadGWutIn:

; 1362 : 
; 1363 : 	//read WEAPONS
; 1364 : 
; 1365 : 	if (READ_HEADER)

  016bd	83 3d 00 00 00
	00 00		 cmp	 DWORD PTR ?READ_HEADER@@3HA, 0 ; READ_HEADER
  016c4	74 18		 je	 SHORT $LN36@ReadGWutIn

; 1366 : 		fscanf(f,"%[^\n]\n",buf);

  016c6	8d 85 ec f7 ff
	ff		 lea	 eax, DWORD PTR _buf$[ebp]
  016cc	50		 push	 eax
  016cd	68 00 00 00 00	 push	 OFFSET ??_C@_06OPEKAKCJ@?$CF?$FL?$FO?6?$FN?6@
  016d2	8b 4d fc	 mov	 ecx, DWORD PTR _f$[ebp]
  016d5	51		 push	 ecx
  016d6	e8 00 00 00 00	 call	 _fscanf
  016db	83 c4 0c	 add	 esp, 12			; 0000000cH
$LN36@ReadGWutIn:

; 1367 : 	TESTDUMP(buf);

  016de	83 bd e4 f7 ff
	ff 00		 cmp	 DWORD PTR _testdump$[ebp], 0
  016e5	74 25		 je	 SHORT $LN37@ReadGWutIn
  016e7	8d 85 ec f7 ff
	ff		 lea	 eax, DWORD PTR _buf$[ebp]
  016ed	50		 push	 eax
  016ee	68 00 00 00 00	 push	 OFFSET ??_C@_03OFAPEBGM@?$CFs?6@
  016f3	8b 4d f8	 mov	 ecx, DWORD PTR _fout$[ebp]
  016f6	51		 push	 ecx
  016f7	e8 00 00 00 00	 call	 _fprintf
  016fc	83 c4 0c	 add	 esp, 12			; 0000000cH
  016ff	8b 45 f8	 mov	 eax, DWORD PTR _fout$[ebp]
  01702	50		 push	 eax
  01703	ff 15 00 00 00
	00		 call	 DWORD PTR __imp__fflush
  01709	83 c4 04	 add	 esp, 4
$LN37@ReadGWutIn:

; 1368 : 
; 1369 : 	fscanf(f,"%[^\n]\n",buf);

  0170c	8d 85 ec f7 ff
	ff		 lea	 eax, DWORD PTR _buf$[ebp]
  01712	50		 push	 eax
  01713	68 00 00 00 00	 push	 OFFSET ??_C@_06OPEKAKCJ@?$CF?$FL?$FO?6?$FN?6@
  01718	8b 4d fc	 mov	 ecx, DWORD PTR _f$[ebp]
  0171b	51		 push	 ecx
  0171c	e8 00 00 00 00	 call	 _fscanf
  01721	83 c4 0c	 add	 esp, 12			; 0000000cH

; 1370 : 	// read first values
; 1371 : 	TESTDUMP(buf);

  01724	83 bd e4 f7 ff
	ff 00		 cmp	 DWORD PTR _testdump$[ebp], 0
  0172b	74 25		 je	 SHORT $LN38@ReadGWutIn
  0172d	8d 85 ec f7 ff
	ff		 lea	 eax, DWORD PTR _buf$[ebp]
  01733	50		 push	 eax
  01734	68 00 00 00 00	 push	 OFFSET ??_C@_03OFAPEBGM@?$CFs?6@
  01739	8b 4d f8	 mov	 ecx, DWORD PTR _fout$[ebp]
  0173c	51		 push	 ecx
  0173d	e8 00 00 00 00	 call	 _fprintf
  01742	83 c4 0c	 add	 esp, 12			; 0000000cH
  01745	8b 45 f8	 mov	 eax, DWORD PTR _fout$[ebp]
  01748	50		 push	 eax
  01749	ff 15 00 00 00
	00		 call	 DWORD PTR __imp__fflush
  0174f	83 c4 04	 add	 esp, 4
$LN38@ReadGWutIn:

; 1372 : 
; 1373 : 	while (!(strcmp(buf,"[KEYSITES]")==0) && !(strcmp(buf,"[End of GWUT file]")==0))

  01752	68 00 00 00 00	 push	 OFFSET ??_C@_0L@ENANJMPL@?$FLKEYSITES?$FN@
  01757	8d 85 ec f7 ff
	ff		 lea	 eax, DWORD PTR _buf$[ebp]
  0175d	50		 push	 eax
  0175e	e8 00 00 00 00	 call	 _strcmp
  01763	83 c4 08	 add	 esp, 8
  01766	85 c0		 test	 eax, eax
  01768	0f 84 d6 09 00
	00		 je	 $LN7@ReadGWutIn
  0176e	68 00 00 00 00	 push	 OFFSET ??_C@_0BD@EMPOBEGN@?$FLEnd?5of?5GWUT?5file?$FN@
  01773	8d 85 ec f7 ff
	ff		 lea	 eax, DWORD PTR _buf$[ebp]
  01779	50		 push	 eax
  0177a	e8 00 00 00 00	 call	 _strcmp
  0177f	83 c4 08	 add	 esp, 8
  01782	85 c0		 test	 eax, eax
  01784	0f 84 ba 09 00
	00		 je	 $LN7@ReadGWutIn

; 1374 : 	{
; 1375 : 		p = strtok(buf,",");

  0178a	68 00 00 00 00	 push	 OFFSET ??_C@_01IHBHIGKO@?0@
  0178f	8d 85 ec f7 ff
	ff		 lea	 eax, DWORD PTR _buf$[ebp]
  01795	50		 push	 eax
  01796	ff 15 00 00 00
	00		 call	 DWORD PTR __imp__strtok
  0179c	83 c4 08	 add	 esp, 8
  0179f	89 85 e8 f7 ff
	ff		 mov	 DWORD PTR _p$[ebp], eax

; 1376 : 		i = atoi(p);

  017a5	8b 85 e8 f7 ff
	ff		 mov	 eax, DWORD PTR _p$[ebp]
  017ab	50		 push	 eax
  017ac	ff 15 00 00 00
	00		 call	 DWORD PTR __imp__atoi
  017b2	83 c4 04	 add	 esp, 4
  017b5	89 45 f4	 mov	 DWORD PTR _i$[ebp], eax

; 1377 : 		//get entity number
; 1378 : 		p = strtok(NULL,",");

  017b8	68 00 00 00 00	 push	 OFFSET ??_C@_01IHBHIGKO@?0@
  017bd	6a 00		 push	 0
  017bf	ff 15 00 00 00
	00		 call	 DWORD PTR __imp__strtok
  017c5	83 c4 08	 add	 esp, 8
  017c8	89 85 e8 f7 ff
	ff		 mov	 DWORD PTR _p$[ebp], eax

; 1379 : 		//skip full name
; 1380 : 
; 1381 : 		weapon_database[i].guidance_type                   = ( weapon_guidance_types ) IntValue(p);

  017ce	68 00 00 00 00	 push	 OFFSET ??_C@_01IHBHIGKO@?0@
  017d3	6a 00		 push	 0
  017d5	ff 15 00 00 00
	00		 call	 DWORD PTR __imp__strtok
  017db	83 c4 08	 add	 esp, 8
  017de	50		 push	 eax
  017df	ff 15 00 00 00
	00		 call	 DWORD PTR __imp__atoi
  017e5	83 c4 04	 add	 esp, 4
  017e8	69 4d f4 e0 00
	00 00		 imul	 ecx, DWORD PTR _i$[ebp], 224
  017ef	89 81 18 00 00
	00		 mov	 DWORD PTR ?weapon_database@@3PAUWEAPON_DATA@@A[ecx+24], eax

; 1382 : 		weapon_database[i].aiming_type                     = ( weapon_aiming_types ) IntValue(p);

  017f5	68 00 00 00 00	 push	 OFFSET ??_C@_01IHBHIGKO@?0@
  017fa	6a 00		 push	 0
  017fc	ff 15 00 00 00
	00		 call	 DWORD PTR __imp__strtok
  01802	83 c4 08	 add	 esp, 8
  01805	50		 push	 eax
  01806	ff 15 00 00 00
	00		 call	 DWORD PTR __imp__atoi
  0180c	83 c4 04	 add	 esp, 4
  0180f	69 4d f4 e0 00
	00 00		 imul	 ecx, DWORD PTR _i$[ebp], 224
  01816	89 81 1c 00 00
	00		 mov	 DWORD PTR ?weapon_database@@3PAUWEAPON_DATA@@A[ecx+28], eax

; 1383 : 		weapon_database[i].decoy_type                      = ( weapon_decoy_types ) IntValue(p);

  0181c	68 00 00 00 00	 push	 OFFSET ??_C@_01IHBHIGKO@?0@
  01821	6a 00		 push	 0
  01823	ff 15 00 00 00
	00		 call	 DWORD PTR __imp__strtok
  01829	83 c4 08	 add	 esp, 8
  0182c	50		 push	 eax
  0182d	ff 15 00 00 00
	00		 call	 DWORD PTR __imp__atoi
  01833	83 c4 04	 add	 esp, 4
  01836	69 4d f4 e0 00
	00 00		 imul	 ecx, DWORD PTR _i$[ebp], 224
  0183d	89 81 20 00 00
	00		 mov	 DWORD PTR ?weapon_database@@3PAUWEAPON_DATA@@A[ecx+32], eax

; 1384 : 		weapon_database[i].warhead_type                    = ( weapon_warhead_types ) IntValue(p);

  01843	68 00 00 00 00	 push	 OFFSET ??_C@_01IHBHIGKO@?0@
  01848	6a 00		 push	 0
  0184a	ff 15 00 00 00
	00		 call	 DWORD PTR __imp__strtok
  01850	83 c4 08	 add	 esp, 8
  01853	50		 push	 eax
  01854	ff 15 00 00 00
	00		 call	 DWORD PTR __imp__atoi
  0185a	83 c4 04	 add	 esp, 4
  0185d	69 4d f4 e0 00
	00 00		 imul	 ecx, DWORD PTR _i$[ebp], 224
  01864	89 81 24 00 00
	00		 mov	 DWORD PTR ?weapon_database@@3PAUWEAPON_DATA@@A[ecx+36], eax

; 1385 : 		weapon_database[i].threat_type                     = ( threat_types ) IntValue(p);

  0186a	68 00 00 00 00	 push	 OFFSET ??_C@_01IHBHIGKO@?0@
  0186f	6a 00		 push	 0
  01871	ff 15 00 00 00
	00		 call	 DWORD PTR __imp__strtok
  01877	83 c4 08	 add	 esp, 8
  0187a	50		 push	 eax
  0187b	ff 15 00 00 00
	00		 call	 DWORD PTR __imp__atoi
  01881	83 c4 04	 add	 esp, 4
  01884	69 4d f4 e0 00
	00 00		 imul	 ecx, DWORD PTR _i$[ebp], 224
  0188b	89 81 28 00 00
	00		 mov	 DWORD PTR ?weapon_database@@3PAUWEAPON_DATA@@A[ecx+40], eax

; 1386 : 		weapon_database[i].report_ammo_low_count           = IntValue(p);

  01891	68 00 00 00 00	 push	 OFFSET ??_C@_01IHBHIGKO@?0@
  01896	6a 00		 push	 0
  01898	ff 15 00 00 00
	00		 call	 DWORD PTR __imp__strtok
  0189e	83 c4 08	 add	 esp, 8
  018a1	50		 push	 eax
  018a2	ff 15 00 00 00
	00		 call	 DWORD PTR __imp__atoi
  018a8	83 c4 04	 add	 esp, 4
  018ab	69 4d f4 e0 00
	00 00		 imul	 ecx, DWORD PTR _i$[ebp], 224
  018b2	89 81 50 00 00
	00		 mov	 DWORD PTR ?weapon_database@@3PAUWEAPON_DATA@@A[ecx+80], eax

; 1387 : 		weapon_database[i].gun_shake                       = IntValue(p);

  018b8	68 00 00 00 00	 push	 OFFSET ??_C@_01IHBHIGKO@?0@
  018bd	6a 00		 push	 0
  018bf	ff 15 00 00 00
	00		 call	 DWORD PTR __imp__strtok
  018c5	83 c4 08	 add	 esp, 8
  018c8	50		 push	 eax
  018c9	ff 15 00 00 00
	00		 call	 DWORD PTR __imp__atoi
  018cf	83 c4 04	 add	 esp, 4
  018d2	69 4d f4 e0 00
	00 00		 imul	 ecx, DWORD PTR _i$[ebp], 224
  018d9	89 81 54 00 00
	00		 mov	 DWORD PTR ?weapon_database@@3PAUWEAPON_DATA@@A[ecx+84], eax

; 1388 : 		weapon_database[i].soft_damage_capability          = IntValue(p);

  018df	68 00 00 00 00	 push	 OFFSET ??_C@_01IHBHIGKO@?0@
  018e4	6a 00		 push	 0
  018e6	ff 15 00 00 00
	00		 call	 DWORD PTR __imp__strtok
  018ec	83 c4 08	 add	 esp, 8
  018ef	50		 push	 eax
  018f0	ff 15 00 00 00
	00		 call	 DWORD PTR __imp__atoi
  018f6	83 c4 04	 add	 esp, 4
  018f9	69 4d f4 e0 00
	00 00		 imul	 ecx, DWORD PTR _i$[ebp], 224
  01900	89 81 58 00 00
	00		 mov	 DWORD PTR ?weapon_database@@3PAUWEAPON_DATA@@A[ecx+88], eax

; 1389 : 		weapon_database[i].hard_damage_capability          = IntValue(p);

  01906	68 00 00 00 00	 push	 OFFSET ??_C@_01IHBHIGKO@?0@
  0190b	6a 00		 push	 0
  0190d	ff 15 00 00 00
	00		 call	 DWORD PTR __imp__strtok
  01913	83 c4 08	 add	 esp, 8
  01916	50		 push	 eax
  01917	ff 15 00 00 00
	00		 call	 DWORD PTR __imp__atoi
  0191d	83 c4 04	 add	 esp, 4
  01920	69 4d f4 e0 00
	00 00		 imul	 ecx, DWORD PTR _i$[ebp], 224
  01927	89 81 5c 00 00
	00		 mov	 DWORD PTR ?weapon_database@@3PAUWEAPON_DATA@@A[ecx+92], eax

; 1390 : 		weapon_database[i].smoke_trail_type                = IntValue(p);

  0192d	68 00 00 00 00	 push	 OFFSET ??_C@_01IHBHIGKO@?0@
  01932	6a 00		 push	 0
  01934	ff 15 00 00 00
	00		 call	 DWORD PTR __imp__strtok
  0193a	83 c4 08	 add	 esp, 8
  0193d	50		 push	 eax
  0193e	ff 15 00 00 00
	00		 call	 DWORD PTR __imp__atoi
  01944	83 c4 04	 add	 esp, 4
  01947	69 4d f4 e0 00
	00 00		 imul	 ecx, DWORD PTR _i$[ebp], 224
  0194e	89 81 60 00 00
	00		 mov	 DWORD PTR ?weapon_database@@3PAUWEAPON_DATA@@A[ecx+96], eax

; 1391 : 		weapon_database[i].acquire_parent_forward_velocity = IntValue(p);

  01954	68 00 00 00 00	 push	 OFFSET ??_C@_01IHBHIGKO@?0@
  01959	6a 00		 push	 0
  0195b	ff 15 00 00 00
	00		 call	 DWORD PTR __imp__strtok
  01961	83 c4 08	 add	 esp, 8
  01964	50		 push	 eax
  01965	ff 15 00 00 00
	00		 call	 DWORD PTR __imp__atoi
  0196b	83 c4 04	 add	 esp, 4
  0196e	69 4d f4 e0 00
	00 00		 imul	 ecx, DWORD PTR _i$[ebp], 224
  01975	89 81 64 00 00
	00		 mov	 DWORD PTR ?weapon_database@@3PAUWEAPON_DATA@@A[ecx+100], eax

; 1392 : 		weapon_database[i].ignore_gravity                  = IntValue(p);

  0197b	68 00 00 00 00	 push	 OFFSET ??_C@_01IHBHIGKO@?0@
  01980	6a 00		 push	 0
  01982	ff 15 00 00 00
	00		 call	 DWORD PTR __imp__strtok
  01988	83 c4 08	 add	 esp, 8
  0198b	50		 push	 eax
  0198c	ff 15 00 00 00
	00		 call	 DWORD PTR __imp__atoi
  01992	83 c4 04	 add	 esp, 4
  01995	69 4d f4 e0 00
	00 00		 imul	 ecx, DWORD PTR _i$[ebp], 224
  0199c	89 81 68 00 00
	00		 mov	 DWORD PTR ?weapon_database@@3PAUWEAPON_DATA@@A[ecx+104], eax

; 1393 : 		weapon_database[i].survive_ground_impact           = IntValue(p);

  019a2	68 00 00 00 00	 push	 OFFSET ??_C@_01IHBHIGKO@?0@
  019a7	6a 00		 push	 0
  019a9	ff 15 00 00 00
	00		 call	 DWORD PTR __imp__strtok
  019af	83 c4 08	 add	 esp, 8
  019b2	50		 push	 eax
  019b3	ff 15 00 00 00
	00		 call	 DWORD PTR __imp__atoi
  019b9	83 c4 04	 add	 esp, 4
  019bc	69 4d f4 e0 00
	00 00		 imul	 ecx, DWORD PTR _i$[ebp], 224
  019c3	89 81 6c 00 00
	00		 mov	 DWORD PTR ?weapon_database@@3PAUWEAPON_DATA@@A[ecx+108], eax

; 1394 : 		weapon_database[i].in_flight_collision_check       = IntValue(p);

  019c9	68 00 00 00 00	 push	 OFFSET ??_C@_01IHBHIGKO@?0@
  019ce	6a 00		 push	 0
  019d0	ff 15 00 00 00
	00		 call	 DWORD PTR __imp__strtok
  019d6	83 c4 08	 add	 esp, 8
  019d9	50		 push	 eax
  019da	ff 15 00 00 00
	00		 call	 DWORD PTR __imp__atoi
  019e0	83 c4 04	 add	 esp, 4
  019e3	69 4d f4 e0 00
	00 00		 imul	 ecx, DWORD PTR _i$[ebp], 224
  019ea	89 81 70 00 00
	00		 mov	 DWORD PTR ?weapon_database@@3PAUWEAPON_DATA@@A[ecx+112], eax

; 1395 : 		weapon_database[i].viewable_weapon                 = IntValue(p);

  019f0	68 00 00 00 00	 push	 OFFSET ??_C@_01IHBHIGKO@?0@
  019f5	6a 00		 push	 0
  019f7	ff 15 00 00 00
	00		 call	 DWORD PTR __imp__strtok
  019fd	83 c4 08	 add	 esp, 8
  01a00	50		 push	 eax
  01a01	ff 15 00 00 00
	00		 call	 DWORD PTR __imp__atoi
  01a07	83 c4 04	 add	 esp, 4
  01a0a	69 4d f4 e0 00
	00 00		 imul	 ecx, DWORD PTR _i$[ebp], 224
  01a11	89 81 74 00 00
	00		 mov	 DWORD PTR ?weapon_database@@3PAUWEAPON_DATA@@A[ecx+116], eax

; 1396 : 		weapon_database[i].boresight_weapon                = IntValue(p);

  01a17	68 00 00 00 00	 push	 OFFSET ??_C@_01IHBHIGKO@?0@
  01a1c	6a 00		 push	 0
  01a1e	ff 15 00 00 00
	00		 call	 DWORD PTR __imp__strtok
  01a24	83 c4 08	 add	 esp, 8
  01a27	50		 push	 eax
  01a28	ff 15 00 00 00
	00		 call	 DWORD PTR __imp__atoi
  01a2e	83 c4 04	 add	 esp, 4
  01a31	69 4d f4 e0 00
	00 00		 imul	 ecx, DWORD PTR _i$[ebp], 224
  01a38	89 81 78 00 00
	00		 mov	 DWORD PTR ?weapon_database@@3PAUWEAPON_DATA@@A[ecx+120], eax

; 1397 : 		weapon_database[i].hellfire_flight_profile         = IntValue(p);

  01a3e	68 00 00 00 00	 push	 OFFSET ??_C@_01IHBHIGKO@?0@
  01a43	6a 00		 push	 0
  01a45	ff 15 00 00 00
	00		 call	 DWORD PTR __imp__strtok
  01a4b	83 c4 08	 add	 esp, 8
  01a4e	50		 push	 eax
  01a4f	ff 15 00 00 00
	00		 call	 DWORD PTR __imp__atoi
  01a55	83 c4 04	 add	 esp, 4
  01a58	69 4d f4 e0 00
	00 00		 imul	 ecx, DWORD PTR _i$[ebp], 224
  01a5f	89 81 7c 00 00
	00		 mov	 DWORD PTR ?weapon_database@@3PAUWEAPON_DATA@@A[ecx+124], eax

; 1398 : 		k = 0;

  01a65	c7 45 ec 00 00
	00 00		 mov	 DWORD PTR _k$[ebp], 0

; 1399 : 		j = IntValue(p); if (j == 1) k = 1;

  01a6c	68 00 00 00 00	 push	 OFFSET ??_C@_01IHBHIGKO@?0@
  01a71	6a 00		 push	 0
  01a73	ff 15 00 00 00
	00		 call	 DWORD PTR __imp__strtok
  01a79	83 c4 08	 add	 esp, 8
  01a7c	50		 push	 eax
  01a7d	ff 15 00 00 00
	00		 call	 DWORD PTR __imp__atoi
  01a83	83 c4 04	 add	 esp, 4
  01a86	89 45 f0	 mov	 DWORD PTR _j$[ebp], eax
  01a89	83 7d f0 01	 cmp	 DWORD PTR _j$[ebp], 1
  01a8d	75 07		 jne	 SHORT $LN39@ReadGWutIn
  01a8f	c7 45 ec 01 00
	00 00		 mov	 DWORD PTR _k$[ebp], 1
$LN39@ReadGWutIn:

; 1400 : 		j = IntValue(p); if (j == 1) k = k | 2;

  01a96	68 00 00 00 00	 push	 OFFSET ??_C@_01IHBHIGKO@?0@
  01a9b	6a 00		 push	 0
  01a9d	ff 15 00 00 00
	00		 call	 DWORD PTR __imp__strtok
  01aa3	83 c4 08	 add	 esp, 8
  01aa6	50		 push	 eax
  01aa7	ff 15 00 00 00
	00		 call	 DWORD PTR __imp__atoi
  01aad	83 c4 04	 add	 esp, 4
  01ab0	89 45 f0	 mov	 DWORD PTR _j$[ebp], eax
  01ab3	83 7d f0 01	 cmp	 DWORD PTR _j$[ebp], 1
  01ab7	75 09		 jne	 SHORT $LN40@ReadGWutIn
  01ab9	8b 45 ec	 mov	 eax, DWORD PTR _k$[ebp]
  01abc	83 c8 02	 or	 eax, 2
  01abf	89 45 ec	 mov	 DWORD PTR _k$[ebp], eax
$LN40@ReadGWutIn:

; 1401 : 		j = IntValue(p); if (j == 1) k = k | 4;

  01ac2	68 00 00 00 00	 push	 OFFSET ??_C@_01IHBHIGKO@?0@
  01ac7	6a 00		 push	 0
  01ac9	ff 15 00 00 00
	00		 call	 DWORD PTR __imp__strtok
  01acf	83 c4 08	 add	 esp, 8
  01ad2	50		 push	 eax
  01ad3	ff 15 00 00 00
	00		 call	 DWORD PTR __imp__atoi
  01ad9	83 c4 04	 add	 esp, 4
  01adc	89 45 f0	 mov	 DWORD PTR _j$[ebp], eax
  01adf	83 7d f0 01	 cmp	 DWORD PTR _j$[ebp], 1
  01ae3	75 09		 jne	 SHORT $LN41@ReadGWutIn
  01ae5	8b 45 ec	 mov	 eax, DWORD PTR _k$[ebp]
  01ae8	83 c8 04	 or	 eax, 4
  01aeb	89 45 ec	 mov	 DWORD PTR _k$[ebp], eax
$LN41@ReadGWutIn:

; 1402 : 		j = IntValue(p); if (j == 1) k = k | 8;

  01aee	68 00 00 00 00	 push	 OFFSET ??_C@_01IHBHIGKO@?0@
  01af3	6a 00		 push	 0
  01af5	ff 15 00 00 00
	00		 call	 DWORD PTR __imp__strtok
  01afb	83 c4 08	 add	 esp, 8
  01afe	50		 push	 eax
  01aff	ff 15 00 00 00
	00		 call	 DWORD PTR __imp__atoi
  01b05	83 c4 04	 add	 esp, 4
  01b08	89 45 f0	 mov	 DWORD PTR _j$[ebp], eax
  01b0b	83 7d f0 01	 cmp	 DWORD PTR _j$[ebp], 1
  01b0f	75 09		 jne	 SHORT $LN42@ReadGWutIn
  01b11	8b 45 ec	 mov	 eax, DWORD PTR _k$[ebp]
  01b14	83 c8 08	 or	 eax, 8
  01b17	89 45 ec	 mov	 DWORD PTR _k$[ebp], eax
$LN42@ReadGWutIn:

; 1403 : 		j = IntValue(p); if (j == 1) k = k | 16;

  01b1a	68 00 00 00 00	 push	 OFFSET ??_C@_01IHBHIGKO@?0@
  01b1f	6a 00		 push	 0
  01b21	ff 15 00 00 00
	00		 call	 DWORD PTR __imp__strtok
  01b27	83 c4 08	 add	 esp, 8
  01b2a	50		 push	 eax
  01b2b	ff 15 00 00 00
	00		 call	 DWORD PTR __imp__atoi
  01b31	83 c4 04	 add	 esp, 4
  01b34	89 45 f0	 mov	 DWORD PTR _j$[ebp], eax
  01b37	83 7d f0 01	 cmp	 DWORD PTR _j$[ebp], 1
  01b3b	75 09		 jne	 SHORT $LN43@ReadGWutIn
  01b3d	8b 45 ec	 mov	 eax, DWORD PTR _k$[ebp]
  01b40	83 c8 10	 or	 eax, 16			; 00000010H
  01b43	89 45 ec	 mov	 DWORD PTR _k$[ebp], eax
$LN43@ReadGWutIn:

; 1404 : 		j = IntValue(p); if (j == 1) k = k | 32;

  01b46	68 00 00 00 00	 push	 OFFSET ??_C@_01IHBHIGKO@?0@
  01b4b	6a 00		 push	 0
  01b4d	ff 15 00 00 00
	00		 call	 DWORD PTR __imp__strtok
  01b53	83 c4 08	 add	 esp, 8
  01b56	50		 push	 eax
  01b57	ff 15 00 00 00
	00		 call	 DWORD PTR __imp__atoi
  01b5d	83 c4 04	 add	 esp, 4
  01b60	89 45 f0	 mov	 DWORD PTR _j$[ebp], eax
  01b63	83 7d f0 01	 cmp	 DWORD PTR _j$[ebp], 1
  01b67	75 09		 jne	 SHORT $LN44@ReadGWutIn
  01b69	8b 45 ec	 mov	 eax, DWORD PTR _k$[ebp]
  01b6c	83 c8 20	 or	 eax, 32			; 00000020H
  01b6f	89 45 ec	 mov	 DWORD PTR _k$[ebp], eax
$LN44@ReadGWutIn:

; 1405 : 		j = IntValue(p); if (j == 1) k = k | 64;

  01b72	68 00 00 00 00	 push	 OFFSET ??_C@_01IHBHIGKO@?0@
  01b77	6a 00		 push	 0
  01b79	ff 15 00 00 00
	00		 call	 DWORD PTR __imp__strtok
  01b7f	83 c4 08	 add	 esp, 8
  01b82	50		 push	 eax
  01b83	ff 15 00 00 00
	00		 call	 DWORD PTR __imp__atoi
  01b89	83 c4 04	 add	 esp, 4
  01b8c	89 45 f0	 mov	 DWORD PTR _j$[ebp], eax
  01b8f	83 7d f0 01	 cmp	 DWORD PTR _j$[ebp], 1
  01b93	75 09		 jne	 SHORT $LN45@ReadGWutIn
  01b95	8b 45 ec	 mov	 eax, DWORD PTR _k$[ebp]
  01b98	83 c8 40	 or	 eax, 64			; 00000040H
  01b9b	89 45 ec	 mov	 DWORD PTR _k$[ebp], eax
$LN45@ReadGWutIn:

; 1406 : //    fprintf(fout,"%d %d\n",weapon_database[i].weapon_class, k);
; 1407 : 		weapon_database[i].weapon_class = k;

  01b9e	69 45 f4 e0 00
	00 00		 imul	 eax, DWORD PTR _i$[ebp], 224
  01ba5	8b 4d ec	 mov	 ecx, DWORD PTR _k$[ebp]
  01ba8	89 88 84 00 00
	00		 mov	 DWORD PTR ?weapon_database@@3PAUWEAPON_DATA@@A[eax+132], ecx

; 1408 : 		weapon_database[i].weight                    = FloatValue(p);

  01bae	68 00 00 00 00	 push	 OFFSET ??_C@_01IHBHIGKO@?0@
  01bb3	6a 00		 push	 0
  01bb5	ff 15 00 00 00
	00		 call	 DWORD PTR __imp__strtok
  01bbb	83 c4 08	 add	 esp, 8
  01bbe	50		 push	 eax
  01bbf	ff 15 00 00 00
	00		 call	 DWORD PTR __imp__atof
  01bc5	83 c4 04	 add	 esp, 4
  01bc8	d9 9d 9c f6 ff
	ff		 fstp	 DWORD PTR tv4436[ebp]
  01bce	d9 85 9c f6 ff
	ff		 fld	 DWORD PTR tv4436[ebp]
  01bd4	69 45 f4 e0 00
	00 00		 imul	 eax, DWORD PTR _i$[ebp], 224
  01bdb	d9 98 88 00 00
	00		 fstp	 DWORD PTR ?weapon_database@@3PAUWEAPON_DATA@@A[eax+136]

; 1409 : 		weapon_database[i].min_range                 = FloatValue(p);

  01be1	68 00 00 00 00	 push	 OFFSET ??_C@_01IHBHIGKO@?0@
  01be6	6a 00		 push	 0
  01be8	ff 15 00 00 00
	00		 call	 DWORD PTR __imp__strtok
  01bee	83 c4 08	 add	 esp, 8
  01bf1	50		 push	 eax
  01bf2	ff 15 00 00 00
	00		 call	 DWORD PTR __imp__atof
  01bf8	83 c4 04	 add	 esp, 4
  01bfb	d9 9d 9c f6 ff
	ff		 fstp	 DWORD PTR tv4440[ebp]
  01c01	d9 85 9c f6 ff
	ff		 fld	 DWORD PTR tv4440[ebp]
  01c07	69 45 f4 e0 00
	00 00		 imul	 eax, DWORD PTR _i$[ebp], 224
  01c0e	d9 98 8c 00 00
	00		 fstp	 DWORD PTR ?weapon_database@@3PAUWEAPON_DATA@@A[eax+140]

; 1410 : 		weapon_database[i].max_range                 = FloatValue(p);

  01c14	68 00 00 00 00	 push	 OFFSET ??_C@_01IHBHIGKO@?0@
  01c19	6a 00		 push	 0
  01c1b	ff 15 00 00 00
	00		 call	 DWORD PTR __imp__strtok
  01c21	83 c4 08	 add	 esp, 8
  01c24	50		 push	 eax
  01c25	ff 15 00 00 00
	00		 call	 DWORD PTR __imp__atof
  01c2b	83 c4 04	 add	 esp, 4
  01c2e	d9 9d 9c f6 ff
	ff		 fstp	 DWORD PTR tv4444[ebp]
  01c34	d9 85 9c f6 ff
	ff		 fld	 DWORD PTR tv4444[ebp]
  01c3a	69 45 f4 e0 00
	00 00		 imul	 eax, DWORD PTR _i$[ebp], 224
  01c41	d9 98 90 00 00
	00		 fstp	 DWORD PTR ?weapon_database@@3PAUWEAPON_DATA@@A[eax+144]

; 1411 : 		weapon_database[i].effective_range           = FloatValue(p);

  01c47	68 00 00 00 00	 push	 OFFSET ??_C@_01IHBHIGKO@?0@
  01c4c	6a 00		 push	 0
  01c4e	ff 15 00 00 00
	00		 call	 DWORD PTR __imp__strtok
  01c54	83 c4 08	 add	 esp, 8
  01c57	50		 push	 eax
  01c58	ff 15 00 00 00
	00		 call	 DWORD PTR __imp__atof
  01c5e	83 c4 04	 add	 esp, 4
  01c61	d9 9d 9c f6 ff
	ff		 fstp	 DWORD PTR tv4448[ebp]
  01c67	d9 85 9c f6 ff
	ff		 fld	 DWORD PTR tv4448[ebp]
  01c6d	69 45 f4 e0 00
	00 00		 imul	 eax, DWORD PTR _i$[ebp], 224
  01c74	d9 98 94 00 00
	00		 fstp	 DWORD PTR ?weapon_database@@3PAUWEAPON_DATA@@A[eax+148]

; 1412 : 		weapon_database[i].min_range_loal            = FloatValue(p);

  01c7a	68 00 00 00 00	 push	 OFFSET ??_C@_01IHBHIGKO@?0@
  01c7f	6a 00		 push	 0
  01c81	ff 15 00 00 00
	00		 call	 DWORD PTR __imp__strtok
  01c87	83 c4 08	 add	 esp, 8
  01c8a	50		 push	 eax
  01c8b	ff 15 00 00 00
	00		 call	 DWORD PTR __imp__atof
  01c91	83 c4 04	 add	 esp, 4
  01c94	d9 9d 9c f6 ff
	ff		 fstp	 DWORD PTR tv4452[ebp]
  01c9a	d9 85 9c f6 ff
	ff		 fld	 DWORD PTR tv4452[ebp]
  01ca0	69 45 f4 e0 00
	00 00		 imul	 eax, DWORD PTR _i$[ebp], 224
  01ca7	d9 98 98 00 00
	00		 fstp	 DWORD PTR ?weapon_database@@3PAUWEAPON_DATA@@A[eax+152]

; 1413 : 		weapon_database[i].max_range_loal            = FloatValue(p);

  01cad	68 00 00 00 00	 push	 OFFSET ??_C@_01IHBHIGKO@?0@
  01cb2	6a 00		 push	 0
  01cb4	ff 15 00 00 00
	00		 call	 DWORD PTR __imp__strtok
  01cba	83 c4 08	 add	 esp, 8
  01cbd	50		 push	 eax
  01cbe	ff 15 00 00 00
	00		 call	 DWORD PTR __imp__atof
  01cc4	83 c4 04	 add	 esp, 4
  01cc7	d9 9d 9c f6 ff
	ff		 fstp	 DWORD PTR tv4456[ebp]
  01ccd	d9 85 9c f6 ff
	ff		 fld	 DWORD PTR tv4456[ebp]
  01cd3	69 45 f4 e0 00
	00 00		 imul	 eax, DWORD PTR _i$[ebp], 224
  01cda	d9 98 9c 00 00
	00		 fstp	 DWORD PTR ?weapon_database@@3PAUWEAPON_DATA@@A[eax+156]

; 1414 : 		weapon_database[i].max_range_error_ratio     = FloatValue(p);

  01ce0	68 00 00 00 00	 push	 OFFSET ??_C@_01IHBHIGKO@?0@
  01ce5	6a 00		 push	 0
  01ce7	ff 15 00 00 00
	00		 call	 DWORD PTR __imp__strtok
  01ced	83 c4 08	 add	 esp, 8
  01cf0	50		 push	 eax
  01cf1	ff 15 00 00 00
	00		 call	 DWORD PTR __imp__atof
  01cf7	83 c4 04	 add	 esp, 4
  01cfa	d9 9d 9c f6 ff
	ff		 fstp	 DWORD PTR tv4460[ebp]
  01d00	d9 85 9c f6 ff
	ff		 fld	 DWORD PTR tv4460[ebp]
  01d06	69 45 f4 e0 00
	00 00		 imul	 eax, DWORD PTR _i$[ebp], 224
  01d0d	d9 98 a0 00 00
	00		 fstp	 DWORD PTR ?weapon_database@@3PAUWEAPON_DATA@@A[eax+160]

; 1415 : 		weapon_database[i].muzzle_velocity           = FloatValue(p);

  01d13	68 00 00 00 00	 push	 OFFSET ??_C@_01IHBHIGKO@?0@
  01d18	6a 00		 push	 0
  01d1a	ff 15 00 00 00
	00		 call	 DWORD PTR __imp__strtok
  01d20	83 c4 08	 add	 esp, 8
  01d23	50		 push	 eax
  01d24	ff 15 00 00 00
	00		 call	 DWORD PTR __imp__atof
  01d2a	83 c4 04	 add	 esp, 4
  01d2d	d9 9d 9c f6 ff
	ff		 fstp	 DWORD PTR tv4464[ebp]
  01d33	d9 85 9c f6 ff
	ff		 fld	 DWORD PTR tv4464[ebp]
  01d39	69 45 f4 e0 00
	00 00		 imul	 eax, DWORD PTR _i$[ebp], 224
  01d40	d9 98 a4 00 00
	00		 fstp	 DWORD PTR ?weapon_database@@3PAUWEAPON_DATA@@A[eax+164]

; 1416 : 		weapon_database[i].muzzle_velocity_max_error = FloatValue(p);

  01d46	68 00 00 00 00	 push	 OFFSET ??_C@_01IHBHIGKO@?0@
  01d4b	6a 00		 push	 0
  01d4d	ff 15 00 00 00
	00		 call	 DWORD PTR __imp__strtok
  01d53	83 c4 08	 add	 esp, 8
  01d56	50		 push	 eax
  01d57	ff 15 00 00 00
	00		 call	 DWORD PTR __imp__atof
  01d5d	83 c4 04	 add	 esp, 4
  01d60	d9 9d 9c f6 ff
	ff		 fstp	 DWORD PTR tv4468[ebp]
  01d66	d9 85 9c f6 ff
	ff		 fld	 DWORD PTR tv4468[ebp]
  01d6c	69 45 f4 e0 00
	00 00		 imul	 eax, DWORD PTR _i$[ebp], 224
  01d73	d9 98 a8 00 00
	00		 fstp	 DWORD PTR ?weapon_database@@3PAUWEAPON_DATA@@A[eax+168]

; 1417 : 		weapon_database[i].cruise_velocity           = FloatValue(p);

  01d79	68 00 00 00 00	 push	 OFFSET ??_C@_01IHBHIGKO@?0@
  01d7e	6a 00		 push	 0
  01d80	ff 15 00 00 00
	00		 call	 DWORD PTR __imp__strtok
  01d86	83 c4 08	 add	 esp, 8
  01d89	50		 push	 eax
  01d8a	ff 15 00 00 00
	00		 call	 DWORD PTR __imp__atof
  01d90	83 c4 04	 add	 esp, 4
  01d93	d9 9d 9c f6 ff
	ff		 fstp	 DWORD PTR tv4472[ebp]
  01d99	d9 85 9c f6 ff
	ff		 fld	 DWORD PTR tv4472[ebp]
  01d9f	69 45 f4 e0 00
	00 00		 imul	 eax, DWORD PTR _i$[ebp], 224
  01da6	d9 98 ac 00 00
	00		 fstp	 DWORD PTR ?weapon_database@@3PAUWEAPON_DATA@@A[eax+172]

; 1418 : 		weapon_database[i].g_max                     = FloatValue(p);

  01dac	68 00 00 00 00	 push	 OFFSET ??_C@_01IHBHIGKO@?0@
  01db1	6a 00		 push	 0
  01db3	ff 15 00 00 00
	00		 call	 DWORD PTR __imp__strtok
  01db9	83 c4 08	 add	 esp, 8
  01dbc	50		 push	 eax
  01dbd	ff 15 00 00 00
	00		 call	 DWORD PTR __imp__atof
  01dc3	83 c4 04	 add	 esp, 4
  01dc6	d9 9d 9c f6 ff
	ff		 fstp	 DWORD PTR tv4476[ebp]
  01dcc	d9 85 9c f6 ff
	ff		 fld	 DWORD PTR tv4476[ebp]
  01dd2	69 45 f4 e0 00
	00 00		 imul	 eax, DWORD PTR _i$[ebp], 224
  01dd9	d9 98 b0 00 00
	00		 fstp	 DWORD PTR ?weapon_database@@3PAUWEAPON_DATA@@A[eax+176]

; 1419 : 		weapon_database[i].burn_time                 = FloatValue(p);

  01ddf	68 00 00 00 00	 push	 OFFSET ??_C@_01IHBHIGKO@?0@
  01de4	6a 00		 push	 0
  01de6	ff 15 00 00 00
	00		 call	 DWORD PTR __imp__strtok
  01dec	83 c4 08	 add	 esp, 8
  01def	50		 push	 eax
  01df0	ff 15 00 00 00
	00		 call	 DWORD PTR __imp__atof
  01df6	83 c4 04	 add	 esp, 4
  01df9	d9 9d 9c f6 ff
	ff		 fstp	 DWORD PTR tv4480[ebp]
  01dff	d9 85 9c f6 ff
	ff		 fld	 DWORD PTR tv4480[ebp]
  01e05	69 45 f4 e0 00
	00 00		 imul	 eax, DWORD PTR _i$[ebp], 224
  01e0c	d9 98 b4 00 00
	00		 fstp	 DWORD PTR ?weapon_database@@3PAUWEAPON_DATA@@A[eax+180]

; 1420 : 		weapon_database[i].cruise_time               = FloatValue(p);

  01e12	68 00 00 00 00	 push	 OFFSET ??_C@_01IHBHIGKO@?0@
  01e17	6a 00		 push	 0
  01e19	ff 15 00 00 00
	00		 call	 DWORD PTR __imp__strtok
  01e1f	83 c4 08	 add	 esp, 8
  01e22	50		 push	 eax
  01e23	ff 15 00 00 00
	00		 call	 DWORD PTR __imp__atof
  01e29	83 c4 04	 add	 esp, 4
  01e2c	d9 9d 9c f6 ff
	ff		 fstp	 DWORD PTR tv4484[ebp]
  01e32	d9 85 9c f6 ff
	ff		 fld	 DWORD PTR tv4484[ebp]
  01e38	69 45 f4 e0 00
	00 00		 imul	 eax, DWORD PTR _i$[ebp], 224
  01e3f	d9 98 b8 00 00
	00		 fstp	 DWORD PTR ?weapon_database@@3PAUWEAPON_DATA@@A[eax+184]

; 1421 : 		weapon_database[i].cruise_time_max_error     = FloatValue(p);

  01e45	68 00 00 00 00	 push	 OFFSET ??_C@_01IHBHIGKO@?0@
  01e4a	6a 00		 push	 0
  01e4c	ff 15 00 00 00
	00		 call	 DWORD PTR __imp__strtok
  01e52	83 c4 08	 add	 esp, 8
  01e55	50		 push	 eax
  01e56	ff 15 00 00 00
	00		 call	 DWORD PTR __imp__atof
  01e5c	83 c4 04	 add	 esp, 4
  01e5f	d9 9d 9c f6 ff
	ff		 fstp	 DWORD PTR tv4488[ebp]
  01e65	d9 85 9c f6 ff
	ff		 fld	 DWORD PTR tv4488[ebp]
  01e6b	69 45 f4 e0 00
	00 00		 imul	 eax, DWORD PTR _i$[ebp], 224
  01e72	d9 98 bc 00 00
	00		 fstp	 DWORD PTR ?weapon_database@@3PAUWEAPON_DATA@@A[eax+188]

; 1422 : 		weapon_database[i].inhibit_time              = FloatValue(p);

  01e78	68 00 00 00 00	 push	 OFFSET ??_C@_01IHBHIGKO@?0@
  01e7d	6a 00		 push	 0
  01e7f	ff 15 00 00 00
	00		 call	 DWORD PTR __imp__strtok
  01e85	83 c4 08	 add	 esp, 8
  01e88	50		 push	 eax
  01e89	ff 15 00 00 00
	00		 call	 DWORD PTR __imp__atof
  01e8f	83 c4 04	 add	 esp, 4
  01e92	d9 9d 9c f6 ff
	ff		 fstp	 DWORD PTR tv4492[ebp]
  01e98	d9 85 9c f6 ff
	ff		 fld	 DWORD PTR tv4492[ebp]
  01e9e	69 45 f4 e0 00
	00 00		 imul	 eax, DWORD PTR _i$[ebp], 224
  01ea5	d9 98 c0 00 00
	00		 fstp	 DWORD PTR ?weapon_database@@3PAUWEAPON_DATA@@A[eax+192]

; 1423 : 		weapon_database[i].burst_duration            = FloatValue(p);

  01eab	68 00 00 00 00	 push	 OFFSET ??_C@_01IHBHIGKO@?0@
  01eb0	6a 00		 push	 0
  01eb2	ff 15 00 00 00
	00		 call	 DWORD PTR __imp__strtok
  01eb8	83 c4 08	 add	 esp, 8
  01ebb	50		 push	 eax
  01ebc	ff 15 00 00 00
	00		 call	 DWORD PTR __imp__atof
  01ec2	83 c4 04	 add	 esp, 4
  01ec5	d9 9d 9c f6 ff
	ff		 fstp	 DWORD PTR tv4496[ebp]
  01ecb	d9 85 9c f6 ff
	ff		 fld	 DWORD PTR tv4496[ebp]
  01ed1	69 45 f4 e0 00
	00 00		 imul	 eax, DWORD PTR _i$[ebp], 224
  01ed8	d9 98 c4 00 00
	00		 fstp	 DWORD PTR ?weapon_database@@3PAUWEAPON_DATA@@A[eax+196]

; 1424 : 		weapon_database[i].rate_of_fire              = FloatValue(p);

  01ede	68 00 00 00 00	 push	 OFFSET ??_C@_01IHBHIGKO@?0@
  01ee3	6a 00		 push	 0
  01ee5	ff 15 00 00 00
	00		 call	 DWORD PTR __imp__strtok
  01eeb	83 c4 08	 add	 esp, 8
  01eee	50		 push	 eax
  01eef	ff 15 00 00 00
	00		 call	 DWORD PTR __imp__atof
  01ef5	83 c4 04	 add	 esp, 4
  01ef8	d9 9d 9c f6 ff
	ff		 fstp	 DWORD PTR tv4500[ebp]
  01efe	d9 85 9c f6 ff
	ff		 fld	 DWORD PTR tv4500[ebp]
  01f04	69 45 f4 e0 00
	00 00		 imul	 eax, DWORD PTR _i$[ebp], 224
  01f0b	d9 98 c8 00 00
	00		 fstp	 DWORD PTR ?weapon_database@@3PAUWEAPON_DATA@@A[eax+200]

; 1425 : 		weapon_database[i].inverse_rate_of_fire		 = (weapon_database[i].rate_of_fire > 0.0) ? (1.0 / weapon_database[i].rate_of_fire) : 0.01;

  01f11	69 45 f4 e0 00
	00 00		 imul	 eax, DWORD PTR _i$[ebp], 224
  01f18	f3 0f 5a 80 c8
	00 00 00	 cvtss2sd xmm0, DWORD PTR ?weapon_database@@3PAUWEAPON_DATA@@A[eax+200]
  01f20	66 0f 2f 05 00
	00 00 00	 comisd	 xmm0, QWORD PTR __real@0000000000000000
  01f28	76 25		 jbe	 SHORT $LN97@ReadGWutIn
  01f2a	69 4d f4 e0 00
	00 00		 imul	 ecx, DWORD PTR _i$[ebp], 224
  01f31	f3 0f 5a 81 c8
	00 00 00	 cvtss2sd xmm0, DWORD PTR ?weapon_database@@3PAUWEAPON_DATA@@A[ecx+200]
  01f39	f2 0f 10 0d 00
	00 00 00	 movsd	 xmm1, QWORD PTR __real@3ff0000000000000
  01f41	f2 0f 5e c8	 divsd	 xmm1, xmm0
  01f45	f2 0f 11 8d 98
	f6 ff ff	 movsd	 QWORD PTR tv1444[ebp], xmm1
  01f4d	eb 10		 jmp	 SHORT $LN98@ReadGWutIn
$LN97@ReadGWutIn:
  01f4f	f2 0f 10 05 00
	00 00 00	 movsd	 xmm0, QWORD PTR __real@3f847ae147ae147b
  01f57	f2 0f 11 85 98
	f6 ff ff	 movsd	 QWORD PTR tv1444[ebp], xmm0
$LN98@ReadGWutIn:
  01f5f	f2 0f 5a 85 98
	f6 ff ff	 cvtsd2ss xmm0, QWORD PTR tv1444[ebp]
  01f67	69 55 f4 e0 00
	00 00		 imul	 edx, DWORD PTR _i$[ebp], 224
  01f6e	f3 0f 11 82 dc
	00 00 00	 movss	 DWORD PTR ?weapon_database@@3PAUWEAPON_DATA@@A[edx+220], xmm0

; 1426 : 		weapon_database[i].reload_time               = FloatValue(p);

  01f76	68 00 00 00 00	 push	 OFFSET ??_C@_01IHBHIGKO@?0@
  01f7b	6a 00		 push	 0
  01f7d	ff 15 00 00 00
	00		 call	 DWORD PTR __imp__strtok
  01f83	83 c4 08	 add	 esp, 8
  01f86	50		 push	 eax
  01f87	ff 15 00 00 00
	00		 call	 DWORD PTR __imp__atof
  01f8d	83 c4 04	 add	 esp, 4
  01f90	d9 9d 9c f6 ff
	ff		 fstp	 DWORD PTR tv4506[ebp]
  01f96	d9 85 9c f6 ff
	ff		 fld	 DWORD PTR tv4506[ebp]
  01f9c	69 45 f4 e0 00
	00 00		 imul	 eax, DWORD PTR _i$[ebp], 224
  01fa3	d9 98 cc 00 00
	00		 fstp	 DWORD PTR ?weapon_database@@3PAUWEAPON_DATA@@A[eax+204]

; 1427 : 		weapon_database[i].max_launch_angle_error    = rad(FloatValue(p));

  01fa9	68 00 00 00 00	 push	 OFFSET ??_C@_01IHBHIGKO@?0@
  01fae	6a 00		 push	 0
  01fb0	ff 15 00 00 00
	00		 call	 DWORD PTR __imp__strtok
  01fb6	83 c4 08	 add	 esp, 8
  01fb9	50		 push	 eax
  01fba	ff 15 00 00 00
	00		 call	 DWORD PTR __imp__atof
  01fc0	83 c4 04	 add	 esp, 4
  01fc3	dd 9d 98 f6 ff
	ff		 fstp	 QWORD PTR tv4510[ebp]
  01fc9	f2 0f 10 85 98
	f6 ff ff	 movsd	 xmm0, QWORD PTR tv4510[ebp]
  01fd1	f2 0f 59 05 00
	00 00 00	 mulsd	 xmm0, QWORD PTR __real@3f91df46a0000000
  01fd9	f2 0f 5a c0	 cvtsd2ss xmm0, xmm0
  01fdd	69 45 f4 e0 00
	00 00		 imul	 eax, DWORD PTR _i$[ebp], 224
  01fe4	f3 0f 11 80 d0
	00 00 00	 movss	 DWORD PTR ?weapon_database@@3PAUWEAPON_DATA@@A[eax+208], xmm0

; 1428 : 		weapon_database[i].max_seeker_limit			 = cos(weapon_database[i].max_launch_angle_error + 0.25);

  01fec	69 45 f4 e0 00
	00 00		 imul	 eax, DWORD PTR _i$[ebp], 224
  01ff3	f3 0f 5a 80 d0
	00 00 00	 cvtss2sd xmm0, DWORD PTR ?weapon_database@@3PAUWEAPON_DATA@@A[eax+208]
  01ffb	f2 0f 58 05 00
	00 00 00	 addsd	 xmm0, QWORD PTR __real@3fd0000000000000
  02003	83 ec 08	 sub	 esp, 8
  02006	f2 0f 11 04 24	 movsd	 QWORD PTR [esp], xmm0
  0200b	e8 00 00 00 00	 call	 _cos
  02010	83 c4 08	 add	 esp, 8
  02013	d9 9d 9c f6 ff
	ff		 fstp	 DWORD PTR tv4515[ebp]
  02019	d9 85 9c f6 ff
	ff		 fld	 DWORD PTR tv4515[ebp]
  0201f	69 4d f4 e0 00
	00 00		 imul	 ecx, DWORD PTR _i$[ebp], 224
  02026	d9 99 d4 00 00
	00		 fstp	 DWORD PTR ?weapon_database@@3PAUWEAPON_DATA@@A[ecx+212]

; 1429 : 
; 1430 : 		// these values were introduced later, so might not exists in old GWUT files
; 1431 : 		p = strtok(NULL,",");

  0202c	68 00 00 00 00	 push	 OFFSET ??_C@_01IHBHIGKO@?0@
  02031	6a 00		 push	 0
  02033	ff 15 00 00 00
	00		 call	 DWORD PTR __imp__strtok
  02039	83 c4 08	 add	 esp, 8
  0203c	89 85 e8 f7 ff
	ff		 mov	 DWORD PTR _p$[ebp], eax

; 1432 : 		if (p)

  02042	83 bd e8 f7 ff
	ff 00		 cmp	 DWORD PTR _p$[ebp], 0
  02049	0f 84 aa 00 00
	00		 je	 $LN46@ReadGWutIn

; 1433 : 		{
; 1434 : 			float seeker_limit = atof(p);

  0204f	8b 85 e8 f7 ff
	ff		 mov	 eax, DWORD PTR _p$[ebp]
  02055	50		 push	 eax
  02056	ff 15 00 00 00
	00		 call	 DWORD PTR __imp__atof
  0205c	83 c4 04	 add	 esp, 4
  0205f	d9 9d e0 f7 ff
	ff		 fstp	 DWORD PTR _seeker_limit$1[ebp]

; 1435 : 			if (seeker_limit > 0.0)

  02065	f3 0f 5a 85 e0
	f7 ff ff	 cvtss2sd xmm0, DWORD PTR _seeker_limit$1[ebp]
  0206d	66 0f 2f 05 00
	00 00 00	 comisd	 xmm0, QWORD PTR __real@0000000000000000
  02075	76 28		 jbe	 SHORT $LN47@ReadGWutIn

; 1436 : 				weapon_database[i].max_seeker_limit		 = cos(rad(seeker_limit));

  02077	f3 0f 10 85 e0
	f7 ff ff	 movss	 xmm0, DWORD PTR _seeker_limit$1[ebp]
  0207f	f3 0f 59 05 00
	00 00 00	 mulss	 xmm0, DWORD PTR __real@3c8efa35
  02087	51		 push	 ecx
  02088	f3 0f 11 04 24	 movss	 DWORD PTR [esp], xmm0
  0208d	e8 00 00 00 00	 call	 ?cos@@YGMM@Z		; cos
  02092	69 45 f4 e0 00
	00 00		 imul	 eax, DWORD PTR _i$[ebp], 224
  02099	d9 98 d4 00 00
	00		 fstp	 DWORD PTR ?weapon_database@@3PAUWEAPON_DATA@@A[eax+212]
$LN47@ReadGWutIn:

; 1437 : 			weapon_database[i].drag_factor			 = FloatValue(p);

  0209f	68 00 00 00 00	 push	 OFFSET ??_C@_01IHBHIGKO@?0@
  020a4	6a 00		 push	 0
  020a6	ff 15 00 00 00
	00		 call	 DWORD PTR __imp__strtok
  020ac	83 c4 08	 add	 esp, 8
  020af	50		 push	 eax
  020b0	ff 15 00 00 00
	00		 call	 DWORD PTR __imp__atof
  020b6	83 c4 04	 add	 esp, 4
  020b9	d9 9d 9c f6 ff
	ff		 fstp	 DWORD PTR tv4528[ebp]
  020bf	d9 85 9c f6 ff
	ff		 fld	 DWORD PTR tv4528[ebp]
  020c5	69 45 f4 e0 00
	00 00		 imul	 eax, DWORD PTR _i$[ebp], 224
  020cc	d9 98 d8 00 00
	00		 fstp	 DWORD PTR ?weapon_database@@3PAUWEAPON_DATA@@A[eax+216]

; 1438 : 			weapon_database[i].spiral_flightpath	 = IntValue(p);

  020d2	68 00 00 00 00	 push	 OFFSET ??_C@_01IHBHIGKO@?0@
  020d7	6a 00		 push	 0
  020d9	ff 15 00 00 00
	00		 call	 DWORD PTR __imp__strtok
  020df	83 c4 08	 add	 esp, 8
  020e2	50		 push	 eax
  020e3	ff 15 00 00 00
	00		 call	 DWORD PTR __imp__atoi
  020e9	83 c4 04	 add	 esp, 4
  020ec	69 4d f4 e0 00
	00 00		 imul	 ecx, DWORD PTR _i$[ebp], 224
  020f3	89 81 80 00 00
	00		 mov	 DWORD PTR ?weapon_database@@3PAUWEAPON_DATA@@A[ecx+128], eax
$LN46@ReadGWutIn:

; 1439 : 		}
; 1440 : 
; 1441 : 		fscanf(f,"%[^\n]\n",buf);

  020f9	8d 85 ec f7 ff
	ff		 lea	 eax, DWORD PTR _buf$[ebp]
  020ff	50		 push	 eax
  02100	68 00 00 00 00	 push	 OFFSET ??_C@_06OPEKAKCJ@?$CF?$FL?$FO?6?$FN?6@
  02105	8b 4d fc	 mov	 ecx, DWORD PTR _f$[ebp]
  02108	51		 push	 ecx
  02109	e8 00 00 00 00	 call	 _fscanf
  0210e	83 c4 0c	 add	 esp, 12			; 0000000cH

; 1442 : 		TESTDUMP(buf);

  02111	83 bd e4 f7 ff
	ff 00		 cmp	 DWORD PTR _testdump$[ebp], 0
  02118	74 25		 je	 SHORT $LN48@ReadGWutIn
  0211a	8d 85 ec f7 ff
	ff		 lea	 eax, DWORD PTR _buf$[ebp]
  02120	50		 push	 eax
  02121	68 00 00 00 00	 push	 OFFSET ??_C@_03OFAPEBGM@?$CFs?6@
  02126	8b 4d f8	 mov	 ecx, DWORD PTR _fout$[ebp]
  02129	51		 push	 ecx
  0212a	e8 00 00 00 00	 call	 _fprintf
  0212f	83 c4 0c	 add	 esp, 12			; 0000000cH
  02132	8b 45 f8	 mov	 eax, DWORD PTR _fout$[ebp]
  02135	50		 push	 eax
  02136	ff 15 00 00 00
	00		 call	 DWORD PTR __imp__fflush
  0213c	83 c4 04	 add	 esp, 4
$LN48@ReadGWutIn:

; 1443 : 	}

  0213f	e9 0e f6 ff ff	 jmp	 $LN38@ReadGWutIn
$LN7@ReadGWutIn:

; 1444 : 
; 1445 : 	//read KEYSITES
; 1446 : 
; 1447 : 	if (READ_HEADER)

  02144	83 3d 00 00 00
	00 00		 cmp	 DWORD PTR ?READ_HEADER@@3HA, 0 ; READ_HEADER
  0214b	74 18		 je	 SHORT $LN49@ReadGWutIn

; 1448 : 		fscanf(f,"%[^\n]\n",buf);

  0214d	8d 85 ec f7 ff
	ff		 lea	 eax, DWORD PTR _buf$[ebp]
  02153	50		 push	 eax
  02154	68 00 00 00 00	 push	 OFFSET ??_C@_06OPEKAKCJ@?$CF?$FL?$FO?6?$FN?6@
  02159	8b 4d fc	 mov	 ecx, DWORD PTR _f$[ebp]
  0215c	51		 push	 ecx
  0215d	e8 00 00 00 00	 call	 _fscanf
  02162	83 c4 0c	 add	 esp, 12			; 0000000cH
$LN49@ReadGWutIn:

; 1449 : 	TESTDUMP(buf);

  02165	83 bd e4 f7 ff
	ff 00		 cmp	 DWORD PTR _testdump$[ebp], 0
  0216c	74 25		 je	 SHORT $LN50@ReadGWutIn
  0216e	8d 85 ec f7 ff
	ff		 lea	 eax, DWORD PTR _buf$[ebp]
  02174	50		 push	 eax
  02175	68 00 00 00 00	 push	 OFFSET ??_C@_03OFAPEBGM@?$CFs?6@
  0217a	8b 4d f8	 mov	 ecx, DWORD PTR _fout$[ebp]
  0217d	51		 push	 ecx
  0217e	e8 00 00 00 00	 call	 _fprintf
  02183	83 c4 0c	 add	 esp, 12			; 0000000cH
  02186	8b 45 f8	 mov	 eax, DWORD PTR _fout$[ebp]
  02189	50		 push	 eax
  0218a	ff 15 00 00 00
	00		 call	 DWORD PTR __imp__fflush
  02190	83 c4 04	 add	 esp, 4
$LN50@ReadGWutIn:

; 1450 : 
; 1451 : 	fscanf(f,"%[^\n]\n",buf);

  02193	8d 85 ec f7 ff
	ff		 lea	 eax, DWORD PTR _buf$[ebp]
  02199	50		 push	 eax
  0219a	68 00 00 00 00	 push	 OFFSET ??_C@_06OPEKAKCJ@?$CF?$FL?$FO?6?$FN?6@
  0219f	8b 4d fc	 mov	 ecx, DWORD PTR _f$[ebp]
  021a2	51		 push	 ecx
  021a3	e8 00 00 00 00	 call	 _fscanf
  021a8	83 c4 0c	 add	 esp, 12			; 0000000cH

; 1452 : 	// read first values
; 1453 : 	TESTDUMP(buf);

  021ab	83 bd e4 f7 ff
	ff 00		 cmp	 DWORD PTR _testdump$[ebp], 0
  021b2	74 25		 je	 SHORT $LN51@ReadGWutIn
  021b4	8d 85 ec f7 ff
	ff		 lea	 eax, DWORD PTR _buf$[ebp]
  021ba	50		 push	 eax
  021bb	68 00 00 00 00	 push	 OFFSET ??_C@_03OFAPEBGM@?$CFs?6@
  021c0	8b 4d f8	 mov	 ecx, DWORD PTR _fout$[ebp]
  021c3	51		 push	 ecx
  021c4	e8 00 00 00 00	 call	 _fprintf
  021c9	83 c4 0c	 add	 esp, 12			; 0000000cH
  021cc	8b 45 f8	 mov	 eax, DWORD PTR _fout$[ebp]
  021cf	50		 push	 eax
  021d0	ff 15 00 00 00
	00		 call	 DWORD PTR __imp__fflush
  021d6	83 c4 04	 add	 esp, 4
$LN51@ReadGWutIn:

; 1454 : 
; 1455 : 	while (!(strcmp(buf,"[GROUPS]")==0) && !(strcmp(buf,"[End of GWUT file]")==0))

  021d9	68 00 00 00 00	 push	 OFFSET ??_C@_08NKPMEDMA@?$FLGROUPS?$FN@
  021de	8d 85 ec f7 ff
	ff		 lea	 eax, DWORD PTR _buf$[ebp]
  021e4	50		 push	 eax
  021e5	e8 00 00 00 00	 call	 _strcmp
  021ea	83 c4 08	 add	 esp, 8
  021ed	85 c0		 test	 eax, eax
  021ef	0f 84 56 06 00
	00		 je	 $LN9@ReadGWutIn
  021f5	68 00 00 00 00	 push	 OFFSET ??_C@_0BD@EMPOBEGN@?$FLEnd?5of?5GWUT?5file?$FN@
  021fa	8d 85 ec f7 ff
	ff		 lea	 eax, DWORD PTR _buf$[ebp]
  02200	50		 push	 eax
  02201	e8 00 00 00 00	 call	 _strcmp
  02206	83 c4 08	 add	 esp, 8
  02209	85 c0		 test	 eax, eax
  0220b	0f 84 3a 06 00
	00		 je	 $LN9@ReadGWutIn

; 1456 : 	{
; 1457 : 		p = strtok(buf,",");

  02211	68 00 00 00 00	 push	 OFFSET ??_C@_01IHBHIGKO@?0@
  02216	8d 85 ec f7 ff
	ff		 lea	 eax, DWORD PTR _buf$[ebp]
  0221c	50		 push	 eax
  0221d	ff 15 00 00 00
	00		 call	 DWORD PTR __imp__strtok
  02223	83 c4 08	 add	 esp, 8
  02226	89 85 e8 f7 ff
	ff		 mov	 DWORD PTR _p$[ebp], eax

; 1458 : 		i = atoi(p);

  0222c	8b 85 e8 f7 ff
	ff		 mov	 eax, DWORD PTR _p$[ebp]
  02232	50		 push	 eax
  02233	ff 15 00 00 00
	00		 call	 DWORD PTR __imp__atoi
  02239	83 c4 04	 add	 esp, 4
  0223c	89 45 f4	 mov	 DWORD PTR _i$[ebp], eax

; 1459 : 		//get entity number
; 1460 : 		p = strtok(NULL,",");

  0223f	68 00 00 00 00	 push	 OFFSET ??_C@_01IHBHIGKO@?0@
  02244	6a 00		 push	 0
  02246	ff 15 00 00 00
	00		 call	 DWORD PTR __imp__strtok
  0224c	83 c4 08	 add	 esp, 8
  0224f	89 85 e8 f7 ff
	ff		 mov	 DWORD PTR _p$[ebp], eax

; 1461 : 		//skip full name
; 1462 : 
; 1463 : 		keysite_database[i].default_supply_usage.ammo_supply_level= FloatValue(p);

  02255	68 00 00 00 00	 push	 OFFSET ??_C@_01IHBHIGKO@?0@
  0225a	6a 00		 push	 0
  0225c	ff 15 00 00 00
	00		 call	 DWORD PTR __imp__strtok
  02262	83 c4 08	 add	 esp, 8
  02265	50		 push	 eax
  02266	ff 15 00 00 00
	00		 call	 DWORD PTR __imp__atof
  0226c	83 c4 04	 add	 esp, 4
  0226f	d9 9d 9c f6 ff
	ff		 fstp	 DWORD PTR tv4558[ebp]
  02275	d9 85 9c f6 ff
	ff		 fld	 DWORD PTR tv4558[ebp]
  0227b	6b 45 f4 44	 imul	 eax, DWORD PTR _i$[ebp], 68
  0227f	d9 98 10 00 00
	00		 fstp	 DWORD PTR ?keysite_database@@3PAUKEYSITE_DATA@@A[eax+16]

; 1464 : 		keysite_database[i].default_supply_usage.fuel_supply_level= FloatValue(p);

  02285	68 00 00 00 00	 push	 OFFSET ??_C@_01IHBHIGKO@?0@
  0228a	6a 00		 push	 0
  0228c	ff 15 00 00 00
	00		 call	 DWORD PTR __imp__strtok
  02292	83 c4 08	 add	 esp, 8
  02295	50		 push	 eax
  02296	ff 15 00 00 00
	00		 call	 DWORD PTR __imp__atof
  0229c	83 c4 04	 add	 esp, 4
  0229f	d9 9d 9c f6 ff
	ff		 fstp	 DWORD PTR tv4562[ebp]
  022a5	d9 85 9c f6 ff
	ff		 fld	 DWORD PTR tv4562[ebp]
  022ab	6b 45 f4 44	 imul	 eax, DWORD PTR _i$[ebp], 68
  022af	d9 98 14 00 00
	00		 fstp	 DWORD PTR ?keysite_database@@3PAUKEYSITE_DATA@@A[eax+20]

; 1465 : 		keysite_database[i].importance                            = FloatValue(p);

  022b5	68 00 00 00 00	 push	 OFFSET ??_C@_01IHBHIGKO@?0@
  022ba	6a 00		 push	 0
  022bc	ff 15 00 00 00
	00		 call	 DWORD PTR __imp__strtok
  022c2	83 c4 08	 add	 esp, 8
  022c5	50		 push	 eax
  022c6	ff 15 00 00 00
	00		 call	 DWORD PTR __imp__atof
  022cc	83 c4 04	 add	 esp, 4
  022cf	d9 9d 9c f6 ff
	ff		 fstp	 DWORD PTR tv4566[ebp]
  022d5	d9 85 9c f6 ff
	ff		 fld	 DWORD PTR tv4566[ebp]
  022db	6b 45 f4 44	 imul	 eax, DWORD PTR _i$[ebp], 68
  022df	d9 98 18 00 00
	00		 fstp	 DWORD PTR ?keysite_database@@3PAUKEYSITE_DATA@@A[eax+24]

; 1466 : 		keysite_database[i].minimum_efficiency                    = FloatValue(p);

  022e5	68 00 00 00 00	 push	 OFFSET ??_C@_01IHBHIGKO@?0@
  022ea	6a 00		 push	 0
  022ec	ff 15 00 00 00
	00		 call	 DWORD PTR __imp__strtok
  022f2	83 c4 08	 add	 esp, 8
  022f5	50		 push	 eax
  022f6	ff 15 00 00 00
	00		 call	 DWORD PTR __imp__atof
  022fc	83 c4 04	 add	 esp, 4
  022ff	d9 9d 9c f6 ff
	ff		 fstp	 DWORD PTR tv4570[ebp]
  02305	d9 85 9c f6 ff
	ff		 fld	 DWORD PTR tv4570[ebp]
  0230b	6b 45 f4 44	 imul	 eax, DWORD PTR _i$[ebp], 68
  0230f	d9 98 1c 00 00
	00		 fstp	 DWORD PTR ?keysite_database@@3PAUKEYSITE_DATA@@A[eax+28]

; 1467 : 		keysite_database[i].importance_radius                     = FloatValue(p);

  02315	68 00 00 00 00	 push	 OFFSET ??_C@_01IHBHIGKO@?0@
  0231a	6a 00		 push	 0
  0231c	ff 15 00 00 00
	00		 call	 DWORD PTR __imp__strtok
  02322	83 c4 08	 add	 esp, 8
  02325	50		 push	 eax
  02326	ff 15 00 00 00
	00		 call	 DWORD PTR __imp__atof
  0232c	83 c4 04	 add	 esp, 4
  0232f	d9 9d 9c f6 ff
	ff		 fstp	 DWORD PTR tv4574[ebp]
  02335	d9 85 9c f6 ff
	ff		 fld	 DWORD PTR tv4574[ebp]
  0233b	6b 45 f4 44	 imul	 eax, DWORD PTR _i$[ebp], 68
  0233f	d9 98 20 00 00
	00		 fstp	 DWORD PTR ?keysite_database@@3PAUKEYSITE_DATA@@A[eax+32]

; 1468 : 		keysite_database[i].air_coverage_radius                   = FloatValue(p);

  02345	68 00 00 00 00	 push	 OFFSET ??_C@_01IHBHIGKO@?0@
  0234a	6a 00		 push	 0
  0234c	ff 15 00 00 00
	00		 call	 DWORD PTR __imp__strtok
  02352	83 c4 08	 add	 esp, 8
  02355	50		 push	 eax
  02356	ff 15 00 00 00
	00		 call	 DWORD PTR __imp__atof
  0235c	83 c4 04	 add	 esp, 4
  0235f	d9 9d 9c f6 ff
	ff		 fstp	 DWORD PTR tv4578[ebp]
  02365	d9 85 9c f6 ff
	ff		 fld	 DWORD PTR tv4578[ebp]
  0236b	6b 45 f4 44	 imul	 eax, DWORD PTR _i$[ebp], 68
  0236f	d9 98 24 00 00
	00		 fstp	 DWORD PTR ?keysite_database@@3PAUKEYSITE_DATA@@A[eax+36]

; 1469 : 		keysite_database[i].recon_distance                        = FloatValue(p);

  02375	68 00 00 00 00	 push	 OFFSET ??_C@_01IHBHIGKO@?0@
  0237a	6a 00		 push	 0
  0237c	ff 15 00 00 00
	00		 call	 DWORD PTR __imp__strtok
  02382	83 c4 08	 add	 esp, 8
  02385	50		 push	 eax
  02386	ff 15 00 00 00
	00		 call	 DWORD PTR __imp__atof
  0238c	83 c4 04	 add	 esp, 4
  0238f	d9 9d 9c f6 ff
	ff		 fstp	 DWORD PTR tv4582[ebp]
  02395	d9 85 9c f6 ff
	ff		 fld	 DWORD PTR tv4582[ebp]
  0239b	6b 45 f4 44	 imul	 eax, DWORD PTR _i$[ebp], 68
  0239f	d9 98 28 00 00
	00		 fstp	 DWORD PTR ?keysite_database@@3PAUKEYSITE_DATA@@A[eax+40]

; 1470 : 		keysite_database[i].sector_side_max_value                 = FloatValue(p);

  023a5	68 00 00 00 00	 push	 OFFSET ??_C@_01IHBHIGKO@?0@
  023aa	6a 00		 push	 0
  023ac	ff 15 00 00 00
	00		 call	 DWORD PTR __imp__strtok
  023b2	83 c4 08	 add	 esp, 8
  023b5	50		 push	 eax
  023b6	ff 15 00 00 00
	00		 call	 DWORD PTR __imp__atof
  023bc	83 c4 04	 add	 esp, 4
  023bf	d9 9d 9c f6 ff
	ff		 fstp	 DWORD PTR tv4586[ebp]
  023c5	d9 85 9c f6 ff
	ff		 fld	 DWORD PTR tv4586[ebp]
  023cb	6b 45 f4 44	 imul	 eax, DWORD PTR _i$[ebp], 68
  023cf	d9 98 2c 00 00
	00		 fstp	 DWORD PTR ?keysite_database@@3PAUKEYSITE_DATA@@A[eax+44]

; 1471 : 		keysite_database[i].align_with_terrain                    = IntValue(p);

  023d5	68 00 00 00 00	 push	 OFFSET ??_C@_01IHBHIGKO@?0@
  023da	6a 00		 push	 0
  023dc	ff 15 00 00 00
	00		 call	 DWORD PTR __imp__strtok
  023e2	83 c4 08	 add	 esp, 8
  023e5	50		 push	 eax
  023e6	ff 15 00 00 00
	00		 call	 DWORD PTR __imp__atoi
  023ec	83 c4 04	 add	 esp, 4
  023ef	89 85 9c f6 ff
	ff		 mov	 DWORD PTR tv1632[ebp], eax
  023f5	6b 45 f4 44	 imul	 eax, DWORD PTR _i$[ebp], 68
  023f9	8b 8d 9c f6 ff
	ff		 mov	 ecx, DWORD PTR tv1632[ebp]
  023ff	83 e1 01	 and	 ecx, 1
  02402	c1 e1 0c	 shl	 ecx, 12			; 0000000cH
  02405	8b 90 30 00 00
	00		 mov	 edx, DWORD PTR ?keysite_database@@3PAUKEYSITE_DATA@@A[eax+48]
  0240b	81 e2 ff ef ff
	ff		 and	 edx, -4097		; ffffefffH
  02411	0b d1		 or	 edx, ecx
  02413	6b 45 f4 44	 imul	 eax, DWORD PTR _i$[ebp], 68
  02417	89 90 30 00 00
	00		 mov	 DWORD PTR ?keysite_database@@3PAUKEYSITE_DATA@@A[eax+48], edx

; 1472 : 		keysite_database[i].hidden_by_fog_of_war                  = IntValue(p);

  0241d	68 00 00 00 00	 push	 OFFSET ??_C@_01IHBHIGKO@?0@
  02422	6a 00		 push	 0
  02424	ff 15 00 00 00
	00		 call	 DWORD PTR __imp__strtok
  0242a	83 c4 08	 add	 esp, 8
  0242d	50		 push	 eax
  0242e	ff 15 00 00 00
	00		 call	 DWORD PTR __imp__atoi
  02434	83 c4 04	 add	 esp, 4
  02437	89 85 9c f6 ff
	ff		 mov	 DWORD PTR tv1648[ebp], eax
  0243d	6b 45 f4 44	 imul	 eax, DWORD PTR _i$[ebp], 68
  02441	8b 8d 9c f6 ff
	ff		 mov	 ecx, DWORD PTR tv1648[ebp]
  02447	83 e1 01	 and	 ecx, 1
  0244a	c1 e1 0e	 shl	 ecx, 14			; 0000000eH
  0244d	8b 90 30 00 00
	00		 mov	 edx, DWORD PTR ?keysite_database@@3PAUKEYSITE_DATA@@A[eax+48]
  02453	81 e2 ff bf ff
	ff		 and	 edx, -16385		; ffffbfffH
  02459	0b d1		 or	 edx, ecx
  0245b	6b 45 f4 44	 imul	 eax, DWORD PTR _i$[ebp], 68
  0245f	89 90 30 00 00
	00		 mov	 DWORD PTR ?keysite_database@@3PAUKEYSITE_DATA@@A[eax+48], edx

; 1473 : 		keysite_database[i].air_force_capacity                    = IntValue(p);

  02465	68 00 00 00 00	 push	 OFFSET ??_C@_01IHBHIGKO@?0@
  0246a	6a 00		 push	 0
  0246c	ff 15 00 00 00
	00		 call	 DWORD PTR __imp__strtok
  02472	83 c4 08	 add	 esp, 8
  02475	50		 push	 eax
  02476	ff 15 00 00 00
	00		 call	 DWORD PTR __imp__atoi
  0247c	83 c4 04	 add	 esp, 4
  0247f	89 85 9c f6 ff
	ff		 mov	 DWORD PTR tv1664[ebp], eax
  02485	6b 45 f4 44	 imul	 eax, DWORD PTR _i$[ebp], 68
  02489	8b 8d 9c f6 ff
	ff		 mov	 ecx, DWORD PTR tv1664[ebp]
  0248f	83 e1 03	 and	 ecx, 3
  02492	c1 e1 0f	 shl	 ecx, 15			; 0000000fH
  02495	8b 90 30 00 00
	00		 mov	 edx, DWORD PTR ?keysite_database@@3PAUKEYSITE_DATA@@A[eax+48]
  0249b	81 e2 ff 7f fe
	ff		 and	 edx, -98305		; fffe7fffH
  024a1	0b d1		 or	 edx, ecx
  024a3	6b 45 f4 44	 imul	 eax, DWORD PTR _i$[ebp], 68
  024a7	89 90 30 00 00
	00		 mov	 DWORD PTR ?keysite_database@@3PAUKEYSITE_DATA@@A[eax+48], edx

; 1474 : 		keysite_database[i].report_ammo_level                     = IntValue(p);

  024ad	68 00 00 00 00	 push	 OFFSET ??_C@_01IHBHIGKO@?0@
  024b2	6a 00		 push	 0
  024b4	ff 15 00 00 00
	00		 call	 DWORD PTR __imp__strtok
  024ba	83 c4 08	 add	 esp, 8
  024bd	50		 push	 eax
  024be	ff 15 00 00 00
	00		 call	 DWORD PTR __imp__atoi
  024c4	83 c4 04	 add	 esp, 4
  024c7	6b 4d f4 44	 imul	 ecx, DWORD PTR _i$[ebp], 68
  024cb	89 81 34 00 00
	00		 mov	 DWORD PTR ?keysite_database@@3PAUKEYSITE_DATA@@A[ecx+52], eax

; 1475 : 		keysite_database[i].report_fuel_level                     = IntValue(p);

  024d1	68 00 00 00 00	 push	 OFFSET ??_C@_01IHBHIGKO@?0@
  024d6	6a 00		 push	 0
  024d8	ff 15 00 00 00
	00		 call	 DWORD PTR __imp__strtok
  024de	83 c4 08	 add	 esp, 8
  024e1	50		 push	 eax
  024e2	ff 15 00 00 00
	00		 call	 DWORD PTR __imp__atoi
  024e8	83 c4 04	 add	 esp, 4
  024eb	6b 4d f4 44	 imul	 ecx, DWORD PTR _i$[ebp], 68
  024ef	89 81 3c 00 00
	00		 mov	 DWORD PTR ?keysite_database@@3PAUKEYSITE_DATA@@A[ecx+60], eax

; 1476 : 		keysite_database[i].assign_task_count                     = IntValue(p);

  024f5	68 00 00 00 00	 push	 OFFSET ??_C@_01IHBHIGKO@?0@
  024fa	6a 00		 push	 0
  024fc	ff 15 00 00 00
	00		 call	 DWORD PTR __imp__strtok
  02502	83 c4 08	 add	 esp, 8
  02505	50		 push	 eax
  02506	ff 15 00 00 00
	00		 call	 DWORD PTR __imp__atoi
  0250c	83 c4 04	 add	 esp, 4
  0250f	89 85 9c f6 ff
	ff		 mov	 DWORD PTR tv1696[ebp], eax
  02515	6b 45 f4 44	 imul	 eax, DWORD PTR _i$[ebp], 68
  02519	8b 8d 9c f6 ff
	ff		 mov	 ecx, DWORD PTR tv1696[ebp]
  0251f	83 e1 03	 and	 ecx, 3
  02522	d1 e1		 shl	 ecx, 1
  02524	8b 90 40 00 00
	00		 mov	 edx, DWORD PTR ?keysite_database@@3PAUKEYSITE_DATA@@A[eax+64]
  0252a	83 e2 f9	 and	 edx, -7			; fffffff9H
  0252d	0b d1		 or	 edx, ecx
  0252f	6b 45 f4 44	 imul	 eax, DWORD PTR _i$[ebp], 68
  02533	89 90 40 00 00
	00		 mov	 DWORD PTR ?keysite_database@@3PAUKEYSITE_DATA@@A[eax+64], edx

; 1477 : 		keysite_database[i].reserve_task_count                    = IntValue(p);

  02539	68 00 00 00 00	 push	 OFFSET ??_C@_01IHBHIGKO@?0@
  0253e	6a 00		 push	 0
  02540	ff 15 00 00 00
	00		 call	 DWORD PTR __imp__strtok
  02546	83 c4 08	 add	 esp, 8
  02549	50		 push	 eax
  0254a	ff 15 00 00 00
	00		 call	 DWORD PTR __imp__atoi
  02550	83 c4 04	 add	 esp, 4
  02553	89 85 9c f6 ff
	ff		 mov	 DWORD PTR tv1712[ebp], eax
  02559	6b 45 f4 44	 imul	 eax, DWORD PTR _i$[ebp], 68
  0255d	8b 8d 9c f6 ff
	ff		 mov	 ecx, DWORD PTR tv1712[ebp]
  02563	83 e1 03	 and	 ecx, 3
  02566	c1 e1 03	 shl	 ecx, 3
  02569	8b 90 40 00 00
	00		 mov	 edx, DWORD PTR ?keysite_database@@3PAUKEYSITE_DATA@@A[eax+64]
  0256f	83 e2 e7	 and	 edx, -25		; ffffffe7H
  02572	0b d1		 or	 edx, ecx
  02574	6b 45 f4 44	 imul	 eax, DWORD PTR _i$[ebp], 68
  02578	89 90 40 00 00
	00		 mov	 DWORD PTR ?keysite_database@@3PAUKEYSITE_DATA@@A[eax+64], edx

; 1478 : 		keysite_database[i].requires_cap                          = IntValue(p);

  0257e	68 00 00 00 00	 push	 OFFSET ??_C@_01IHBHIGKO@?0@
  02583	6a 00		 push	 0
  02585	ff 15 00 00 00
	00		 call	 DWORD PTR __imp__strtok
  0258b	83 c4 08	 add	 esp, 8
  0258e	50		 push	 eax
  0258f	ff 15 00 00 00
	00		 call	 DWORD PTR __imp__atoi
  02595	83 c4 04	 add	 esp, 4
  02598	89 85 9c f6 ff
	ff		 mov	 DWORD PTR tv1728[ebp], eax
  0259e	6b 45 f4 44	 imul	 eax, DWORD PTR _i$[ebp], 68
  025a2	8b 8d 9c f6 ff
	ff		 mov	 ecx, DWORD PTR tv1728[ebp]
  025a8	83 e1 01	 and	 ecx, 1
  025ab	c1 e1 05	 shl	 ecx, 5
  025ae	8b 90 40 00 00
	00		 mov	 edx, DWORD PTR ?keysite_database@@3PAUKEYSITE_DATA@@A[eax+64]
  025b4	83 e2 df	 and	 edx, -33		; ffffffdfH
  025b7	0b d1		 or	 edx, ecx
  025b9	6b 45 f4 44	 imul	 eax, DWORD PTR _i$[ebp], 68
  025bd	89 90 40 00 00
	00		 mov	 DWORD PTR ?keysite_database@@3PAUKEYSITE_DATA@@A[eax+64], edx

; 1479 : 		keysite_database[i].requires_barcap                       = IntValue(p);

  025c3	68 00 00 00 00	 push	 OFFSET ??_C@_01IHBHIGKO@?0@
  025c8	6a 00		 push	 0
  025ca	ff 15 00 00 00
	00		 call	 DWORD PTR __imp__strtok
  025d0	83 c4 08	 add	 esp, 8
  025d3	50		 push	 eax
  025d4	ff 15 00 00 00
	00		 call	 DWORD PTR __imp__atoi
  025da	83 c4 04	 add	 esp, 4
  025dd	89 85 9c f6 ff
	ff		 mov	 DWORD PTR tv1744[ebp], eax
  025e3	6b 45 f4 44	 imul	 eax, DWORD PTR _i$[ebp], 68
  025e7	8b 8d 9c f6 ff
	ff		 mov	 ecx, DWORD PTR tv1744[ebp]
  025ed	83 e1 01	 and	 ecx, 1
  025f0	c1 e1 06	 shl	 ecx, 6
  025f3	8b 90 40 00 00
	00		 mov	 edx, DWORD PTR ?keysite_database@@3PAUKEYSITE_DATA@@A[eax+64]
  025f9	83 e2 bf	 and	 edx, -65		; ffffffbfH
  025fc	0b d1		 or	 edx, ecx
  025fe	6b 45 f4 44	 imul	 eax, DWORD PTR _i$[ebp], 68
  02602	89 90 40 00 00
	00		 mov	 DWORD PTR ?keysite_database@@3PAUKEYSITE_DATA@@A[eax+64], edx

; 1480 : 		keysite_database[i].repairable                            = IntValue(p);

  02608	68 00 00 00 00	 push	 OFFSET ??_C@_01IHBHIGKO@?0@
  0260d	6a 00		 push	 0
  0260f	ff 15 00 00 00
	00		 call	 DWORD PTR __imp__strtok
  02615	83 c4 08	 add	 esp, 8
  02618	50		 push	 eax
  02619	ff 15 00 00 00
	00		 call	 DWORD PTR __imp__atoi
  0261f	83 c4 04	 add	 esp, 4
  02622	89 85 9c f6 ff
	ff		 mov	 DWORD PTR tv1760[ebp], eax
  02628	6b 45 f4 44	 imul	 eax, DWORD PTR _i$[ebp], 68
  0262c	8b 8d 9c f6 ff
	ff		 mov	 ecx, DWORD PTR tv1760[ebp]
  02632	83 e1 01	 and	 ecx, 1
  02635	c1 e1 07	 shl	 ecx, 7
  02638	8b 90 40 00 00
	00		 mov	 edx, DWORD PTR ?keysite_database@@3PAUKEYSITE_DATA@@A[eax+64]
  0263e	81 e2 7f ff ff
	ff		 and	 edx, -129		; ffffff7fH
  02644	0b d1		 or	 edx, ecx
  02646	6b 45 f4 44	 imul	 eax, DWORD PTR _i$[ebp], 68
  0264a	89 90 40 00 00
	00		 mov	 DWORD PTR ?keysite_database@@3PAUKEYSITE_DATA@@A[eax+64], edx

; 1481 : 		keysite_database[i].oca_target                            = IntValue(p);

  02650	68 00 00 00 00	 push	 OFFSET ??_C@_01IHBHIGKO@?0@
  02655	6a 00		 push	 0
  02657	ff 15 00 00 00
	00		 call	 DWORD PTR __imp__strtok
  0265d	83 c4 08	 add	 esp, 8
  02660	50		 push	 eax
  02661	ff 15 00 00 00
	00		 call	 DWORD PTR __imp__atoi
  02667	83 c4 04	 add	 esp, 4
  0266a	89 85 9c f6 ff
	ff		 mov	 DWORD PTR tv1776[ebp], eax
  02670	6b 45 f4 44	 imul	 eax, DWORD PTR _i$[ebp], 68
  02674	8b 8d 9c f6 ff
	ff		 mov	 ecx, DWORD PTR tv1776[ebp]
  0267a	83 e1 01	 and	 ecx, 1
  0267d	c1 e1 08	 shl	 ecx, 8
  02680	8b 90 40 00 00
	00		 mov	 edx, DWORD PTR ?keysite_database@@3PAUKEYSITE_DATA@@A[eax+64]
  02686	81 e2 ff fe ff
	ff		 and	 edx, -257		; fffffeffH
  0268c	0b d1		 or	 edx, ecx
  0268e	6b 45 f4 44	 imul	 eax, DWORD PTR _i$[ebp], 68
  02692	89 90 40 00 00
	00		 mov	 DWORD PTR ?keysite_database@@3PAUKEYSITE_DATA@@A[eax+64], edx

; 1482 : 		keysite_database[i].recon_target                          = IntValue(p);

  02698	68 00 00 00 00	 push	 OFFSET ??_C@_01IHBHIGKO@?0@
  0269d	6a 00		 push	 0
  0269f	ff 15 00 00 00
	00		 call	 DWORD PTR __imp__strtok
  026a5	83 c4 08	 add	 esp, 8
  026a8	50		 push	 eax
  026a9	ff 15 00 00 00
	00		 call	 DWORD PTR __imp__atoi
  026af	83 c4 04	 add	 esp, 4
  026b2	89 85 9c f6 ff
	ff		 mov	 DWORD PTR tv1792[ebp], eax
  026b8	6b 45 f4 44	 imul	 eax, DWORD PTR _i$[ebp], 68
  026bc	8b 8d 9c f6 ff
	ff		 mov	 ecx, DWORD PTR tv1792[ebp]
  026c2	83 e1 01	 and	 ecx, 1
  026c5	c1 e1 09	 shl	 ecx, 9
  026c8	8b 90 40 00 00
	00		 mov	 edx, DWORD PTR ?keysite_database@@3PAUKEYSITE_DATA@@A[eax+64]
  026ce	81 e2 ff fd ff
	ff		 and	 edx, -513		; fffffdffH
  026d4	0b d1		 or	 edx, ecx
  026d6	6b 45 f4 44	 imul	 eax, DWORD PTR _i$[ebp], 68
  026da	89 90 40 00 00
	00		 mov	 DWORD PTR ?keysite_database@@3PAUKEYSITE_DATA@@A[eax+64], edx

; 1483 : 		keysite_database[i].ground_strike_target                  = IntValue(p);

  026e0	68 00 00 00 00	 push	 OFFSET ??_C@_01IHBHIGKO@?0@
  026e5	6a 00		 push	 0
  026e7	ff 15 00 00 00
	00		 call	 DWORD PTR __imp__strtok
  026ed	83 c4 08	 add	 esp, 8
  026f0	50		 push	 eax
  026f1	ff 15 00 00 00
	00		 call	 DWORD PTR __imp__atoi
  026f7	83 c4 04	 add	 esp, 4
  026fa	89 85 9c f6 ff
	ff		 mov	 DWORD PTR tv1808[ebp], eax
  02700	6b 45 f4 44	 imul	 eax, DWORD PTR _i$[ebp], 68
  02704	8b 8d 9c f6 ff
	ff		 mov	 ecx, DWORD PTR tv1808[ebp]
  0270a	83 e1 01	 and	 ecx, 1
  0270d	c1 e1 0a	 shl	 ecx, 10			; 0000000aH
  02710	8b 90 40 00 00
	00		 mov	 edx, DWORD PTR ?keysite_database@@3PAUKEYSITE_DATA@@A[eax+64]
  02716	81 e2 ff fb ff
	ff		 and	 edx, -1025		; fffffbffH
  0271c	0b d1		 or	 edx, ecx
  0271e	6b 45 f4 44	 imul	 eax, DWORD PTR _i$[ebp], 68
  02722	89 90 40 00 00
	00		 mov	 DWORD PTR ?keysite_database@@3PAUKEYSITE_DATA@@A[eax+64], edx

; 1484 : 		keysite_database[i].ship_strike_target                    = IntValue(p);

  02728	68 00 00 00 00	 push	 OFFSET ??_C@_01IHBHIGKO@?0@
  0272d	6a 00		 push	 0
  0272f	ff 15 00 00 00
	00		 call	 DWORD PTR __imp__strtok
  02735	83 c4 08	 add	 esp, 8
  02738	50		 push	 eax
  02739	ff 15 00 00 00
	00		 call	 DWORD PTR __imp__atoi
  0273f	83 c4 04	 add	 esp, 4
  02742	89 85 9c f6 ff
	ff		 mov	 DWORD PTR tv1824[ebp], eax
  02748	6b 45 f4 44	 imul	 eax, DWORD PTR _i$[ebp], 68
  0274c	8b 8d 9c f6 ff
	ff		 mov	 ecx, DWORD PTR tv1824[ebp]
  02752	83 e1 01	 and	 ecx, 1
  02755	c1 e1 0b	 shl	 ecx, 11			; 0000000bH
  02758	8b 90 40 00 00
	00		 mov	 edx, DWORD PTR ?keysite_database@@3PAUKEYSITE_DATA@@A[eax+64]
  0275e	81 e2 ff f7 ff
	ff		 and	 edx, -2049		; fffff7ffH
  02764	0b d1		 or	 edx, ecx
  02766	6b 45 f4 44	 imul	 eax, DWORD PTR _i$[ebp], 68
  0276a	89 90 40 00 00
	00		 mov	 DWORD PTR ?keysite_database@@3PAUKEYSITE_DATA@@A[eax+64], edx

; 1485 : 		keysite_database[i].troop_insertion_target                = IntValue(p);

  02770	68 00 00 00 00	 push	 OFFSET ??_C@_01IHBHIGKO@?0@
  02775	6a 00		 push	 0
  02777	ff 15 00 00 00
	00		 call	 DWORD PTR __imp__strtok
  0277d	83 c4 08	 add	 esp, 8
  02780	50		 push	 eax
  02781	ff 15 00 00 00
	00		 call	 DWORD PTR __imp__atoi
  02787	83 c4 04	 add	 esp, 4
  0278a	89 85 9c f6 ff
	ff		 mov	 DWORD PTR tv1840[ebp], eax
  02790	6b 45 f4 44	 imul	 eax, DWORD PTR _i$[ebp], 68
  02794	8b 8d 9c f6 ff
	ff		 mov	 ecx, DWORD PTR tv1840[ebp]
  0279a	83 e1 01	 and	 ecx, 1
  0279d	c1 e1 0c	 shl	 ecx, 12			; 0000000cH
  027a0	8b 90 40 00 00
	00		 mov	 edx, DWORD PTR ?keysite_database@@3PAUKEYSITE_DATA@@A[eax+64]
  027a6	81 e2 ff ef ff
	ff		 and	 edx, -4097		; ffffefffH
  027ac	0b d1		 or	 edx, ecx
  027ae	6b 45 f4 44	 imul	 eax, DWORD PTR _i$[ebp], 68
  027b2	89 90 40 00 00
	00		 mov	 DWORD PTR ?keysite_database@@3PAUKEYSITE_DATA@@A[eax+64], edx

; 1486 : 		keysite_database[i].campaign_objective                    = IntValue(p);

  027b8	68 00 00 00 00	 push	 OFFSET ??_C@_01IHBHIGKO@?0@
  027bd	6a 00		 push	 0
  027bf	ff 15 00 00 00
	00		 call	 DWORD PTR __imp__strtok
  027c5	83 c4 08	 add	 esp, 8
  027c8	50		 push	 eax
  027c9	ff 15 00 00 00
	00		 call	 DWORD PTR __imp__atoi
  027cf	83 c4 04	 add	 esp, 4
  027d2	89 85 9c f6 ff
	ff		 mov	 DWORD PTR tv1856[ebp], eax
  027d8	6b 45 f4 44	 imul	 eax, DWORD PTR _i$[ebp], 68
  027dc	8b 8d 9c f6 ff
	ff		 mov	 ecx, DWORD PTR tv1856[ebp]
  027e2	83 e1 01	 and	 ecx, 1
  027e5	c1 e1 0d	 shl	 ecx, 13			; 0000000dH
  027e8	8b 90 40 00 00
	00		 mov	 edx, DWORD PTR ?keysite_database@@3PAUKEYSITE_DATA@@A[eax+64]
  027ee	81 e2 ff df ff
	ff		 and	 edx, -8193		; ffffdfffH
  027f4	0b d1		 or	 edx, ecx
  027f6	6b 45 f4 44	 imul	 eax, DWORD PTR _i$[ebp], 68
  027fa	89 90 40 00 00
	00		 mov	 DWORD PTR ?keysite_database@@3PAUKEYSITE_DATA@@A[eax+64], edx

; 1487 : 
; 1488 : 		fscanf(f,"%[^\n]\n",buf);

  02800	8d 85 ec f7 ff
	ff		 lea	 eax, DWORD PTR _buf$[ebp]
  02806	50		 push	 eax
  02807	68 00 00 00 00	 push	 OFFSET ??_C@_06OPEKAKCJ@?$CF?$FL?$FO?6?$FN?6@
  0280c	8b 4d fc	 mov	 ecx, DWORD PTR _f$[ebp]
  0280f	51		 push	 ecx
  02810	e8 00 00 00 00	 call	 _fscanf
  02815	83 c4 0c	 add	 esp, 12			; 0000000cH

; 1489 : 		TESTDUMP(buf);

  02818	83 bd e4 f7 ff
	ff 00		 cmp	 DWORD PTR _testdump$[ebp], 0
  0281f	74 25		 je	 SHORT $LN52@ReadGWutIn
  02821	8d 85 ec f7 ff
	ff		 lea	 eax, DWORD PTR _buf$[ebp]
  02827	50		 push	 eax
  02828	68 00 00 00 00	 push	 OFFSET ??_C@_03OFAPEBGM@?$CFs?6@
  0282d	8b 4d f8	 mov	 ecx, DWORD PTR _fout$[ebp]
  02830	51		 push	 ecx
  02831	e8 00 00 00 00	 call	 _fprintf
  02836	83 c4 0c	 add	 esp, 12			; 0000000cH
  02839	8b 45 f8	 mov	 eax, DWORD PTR _fout$[ebp]
  0283c	50		 push	 eax
  0283d	ff 15 00 00 00
	00		 call	 DWORD PTR __imp__fflush
  02843	83 c4 04	 add	 esp, 4
$LN52@ReadGWutIn:

; 1490 : 	}

  02846	e9 8e f9 ff ff	 jmp	 $LN51@ReadGWutIn
$LN9@ReadGWutIn:

; 1491 : 
; 1492 : 	//read GROUPS
; 1493 : 
; 1494 : 	if (READ_HEADER)

  0284b	83 3d 00 00 00
	00 00		 cmp	 DWORD PTR ?READ_HEADER@@3HA, 0 ; READ_HEADER
  02852	74 18		 je	 SHORT $LN53@ReadGWutIn

; 1495 : 		fscanf(f,"%[^\n]\n",buf);

  02854	8d 85 ec f7 ff
	ff		 lea	 eax, DWORD PTR _buf$[ebp]
  0285a	50		 push	 eax
  0285b	68 00 00 00 00	 push	 OFFSET ??_C@_06OPEKAKCJ@?$CF?$FL?$FO?6?$FN?6@
  02860	8b 4d fc	 mov	 ecx, DWORD PTR _f$[ebp]
  02863	51		 push	 ecx
  02864	e8 00 00 00 00	 call	 _fscanf
  02869	83 c4 0c	 add	 esp, 12			; 0000000cH
$LN53@ReadGWutIn:

; 1496 : 	TESTDUMP(buf);

  0286c	83 bd e4 f7 ff
	ff 00		 cmp	 DWORD PTR _testdump$[ebp], 0
  02873	74 25		 je	 SHORT $LN54@ReadGWutIn
  02875	8d 85 ec f7 ff
	ff		 lea	 eax, DWORD PTR _buf$[ebp]
  0287b	50		 push	 eax
  0287c	68 00 00 00 00	 push	 OFFSET ??_C@_03OFAPEBGM@?$CFs?6@
  02881	8b 4d f8	 mov	 ecx, DWORD PTR _fout$[ebp]
  02884	51		 push	 ecx
  02885	e8 00 00 00 00	 call	 _fprintf
  0288a	83 c4 0c	 add	 esp, 12			; 0000000cH
  0288d	8b 45 f8	 mov	 eax, DWORD PTR _fout$[ebp]
  02890	50		 push	 eax
  02891	ff 15 00 00 00
	00		 call	 DWORD PTR __imp__fflush
  02897	83 c4 04	 add	 esp, 4
$LN54@ReadGWutIn:

; 1497 : 
; 1498 : 	fscanf(f,"%[^\n]\n",buf);

  0289a	8d 85 ec f7 ff
	ff		 lea	 eax, DWORD PTR _buf$[ebp]
  028a0	50		 push	 eax
  028a1	68 00 00 00 00	 push	 OFFSET ??_C@_06OPEKAKCJ@?$CF?$FL?$FO?6?$FN?6@
  028a6	8b 4d fc	 mov	 ecx, DWORD PTR _f$[ebp]
  028a9	51		 push	 ecx
  028aa	e8 00 00 00 00	 call	 _fscanf
  028af	83 c4 0c	 add	 esp, 12			; 0000000cH

; 1499 : 	// read first values
; 1500 : 	TESTDUMP(buf);

  028b2	83 bd e4 f7 ff
	ff 00		 cmp	 DWORD PTR _testdump$[ebp], 0
  028b9	74 25		 je	 SHORT $LN55@ReadGWutIn
  028bb	8d 85 ec f7 ff
	ff		 lea	 eax, DWORD PTR _buf$[ebp]
  028c1	50		 push	 eax
  028c2	68 00 00 00 00	 push	 OFFSET ??_C@_03OFAPEBGM@?$CFs?6@
  028c7	8b 4d f8	 mov	 ecx, DWORD PTR _fout$[ebp]
  028ca	51		 push	 ecx
  028cb	e8 00 00 00 00	 call	 _fprintf
  028d0	83 c4 0c	 add	 esp, 12			; 0000000cH
  028d3	8b 45 f8	 mov	 eax, DWORD PTR _fout$[ebp]
  028d6	50		 push	 eax
  028d7	ff 15 00 00 00
	00		 call	 DWORD PTR __imp__fflush
  028dd	83 c4 04	 add	 esp, 4
$LN55@ReadGWutIn:

; 1501 : 
; 1502 : 	while (!(strcmp(buf,"[TASKS]")==0) && !(strcmp(buf,"[End of GWUT file]")==0))

  028e0	68 00 00 00 00	 push	 OFFSET ??_C@_07NDEGACLM@?$FLTASKS?$FN@
  028e5	8d 85 ec f7 ff
	ff		 lea	 eax, DWORD PTR _buf$[ebp]
  028eb	50		 push	 eax
  028ec	e8 00 00 00 00	 call	 _strcmp
  028f1	83 c4 08	 add	 esp, 8
  028f4	85 c0		 test	 eax, eax
  028f6	0f 84 6a 05 00
	00		 je	 $LN11@ReadGWutIn
  028fc	68 00 00 00 00	 push	 OFFSET ??_C@_0BD@EMPOBEGN@?$FLEnd?5of?5GWUT?5file?$FN@
  02901	8d 85 ec f7 ff
	ff		 lea	 eax, DWORD PTR _buf$[ebp]
  02907	50		 push	 eax
  02908	e8 00 00 00 00	 call	 _strcmp
  0290d	83 c4 08	 add	 esp, 8
  02910	85 c0		 test	 eax, eax
  02912	0f 84 4e 05 00
	00		 je	 $LN11@ReadGWutIn

; 1503 : 	{
; 1504 : 		p = strtok(buf,",");

  02918	68 00 00 00 00	 push	 OFFSET ??_C@_01IHBHIGKO@?0@
  0291d	8d 85 ec f7 ff
	ff		 lea	 eax, DWORD PTR _buf$[ebp]
  02923	50		 push	 eax
  02924	ff 15 00 00 00
	00		 call	 DWORD PTR __imp__strtok
  0292a	83 c4 08	 add	 esp, 8
  0292d	89 85 e8 f7 ff
	ff		 mov	 DWORD PTR _p$[ebp], eax

; 1505 : 		i = atoi(p);

  02933	8b 85 e8 f7 ff
	ff		 mov	 eax, DWORD PTR _p$[ebp]
  02939	50		 push	 eax
  0293a	ff 15 00 00 00
	00		 call	 DWORD PTR __imp__atoi
  02940	83 c4 04	 add	 esp, 4
  02943	89 45 f4	 mov	 DWORD PTR _i$[ebp], eax

; 1506 : 		//get entity number
; 1507 : 		p = strtok(NULL,",");

  02946	68 00 00 00 00	 push	 OFFSET ??_C@_01IHBHIGKO@?0@
  0294b	6a 00		 push	 0
  0294d	ff 15 00 00 00
	00		 call	 DWORD PTR __imp__strtok
  02953	83 c4 08	 add	 esp, 8
  02956	89 85 e8 f7 ff
	ff		 mov	 DWORD PTR _p$[ebp], eax

; 1508 : 		//skip full name
; 1509 : 
; 1510 : 		group_database[i].group_category                  = ( group_category_types ) IntValue(p);

  0295c	68 00 00 00 00	 push	 OFFSET ??_C@_01IHBHIGKO@?0@
  02961	6a 00		 push	 0
  02963	ff 15 00 00 00
	00		 call	 DWORD PTR __imp__strtok
  02969	83 c4 08	 add	 esp, 8
  0296c	50		 push	 eax
  0296d	ff 15 00 00 00
	00		 call	 DWORD PTR __imp__atoi
  02973	83 c4 04	 add	 esp, 4
  02976	6b 4d f4 64	 imul	 ecx, DWORD PTR _i$[ebp], 100
  0297a	89 81 08 00 00
	00		 mov	 DWORD PTR ?group_database@@3PAUGROUP_DATA@@A[ecx+8], eax

; 1511 : 		group_database[i].registry_list_type              = ( list_types ) IntValue(p);

  02980	68 00 00 00 00	 push	 OFFSET ??_C@_01IHBHIGKO@?0@
  02985	6a 00		 push	 0
  02987	ff 15 00 00 00
	00		 call	 DWORD PTR __imp__strtok
  0298d	83 c4 08	 add	 esp, 8
  02990	50		 push	 eax
  02991	ff 15 00 00 00
	00		 call	 DWORD PTR __imp__atoi
  02997	83 c4 04	 add	 esp, 4
  0299a	6b 4d f4 64	 imul	 ecx, DWORD PTR _i$[ebp], 100
  0299e	89 81 0c 00 00
	00		 mov	 DWORD PTR ?group_database@@3PAUGROUP_DATA@@A[ecx+12], eax

; 1512 : 		group_database[i].group_list_type                 = ( list_types ) IntValue(p);

  029a4	68 00 00 00 00	 push	 OFFSET ??_C@_01IHBHIGKO@?0@
  029a9	6a 00		 push	 0
  029ab	ff 15 00 00 00
	00		 call	 DWORD PTR __imp__strtok
  029b1	83 c4 08	 add	 esp, 8
  029b4	50		 push	 eax
  029b5	ff 15 00 00 00
	00		 call	 DWORD PTR __imp__atoi
  029bb	83 c4 04	 add	 esp, 4
  029be	6b 4d f4 64	 imul	 ecx, DWORD PTR _i$[ebp], 100
  029c2	89 81 10 00 00
	00		 mov	 DWORD PTR ?group_database@@3PAUGROUP_DATA@@A[ecx+16], eax

; 1513 : 		group_database[i].movement_type                   = ( movement_types ) IntValue(p);

  029c8	68 00 00 00 00	 push	 OFFSET ??_C@_01IHBHIGKO@?0@
  029cd	6a 00		 push	 0
  029cf	ff 15 00 00 00
	00		 call	 DWORD PTR __imp__strtok
  029d5	83 c4 08	 add	 esp, 8
  029d8	50		 push	 eax
  029d9	ff 15 00 00 00
	00		 call	 DWORD PTR __imp__atoi
  029df	83 c4 04	 add	 esp, 4
  029e2	6b 4d f4 64	 imul	 ecx, DWORD PTR _i$[ebp], 100
  029e6	89 81 14 00 00
	00		 mov	 DWORD PTR ?group_database@@3PAUGROUP_DATA@@A[ecx+20], eax

; 1514 : 		group_database[i].default_landing_type            = IntValue(p);

  029ec	68 00 00 00 00	 push	 OFFSET ??_C@_01IHBHIGKO@?0@
  029f1	6a 00		 push	 0
  029f3	ff 15 00 00 00
	00		 call	 DWORD PTR __imp__strtok
  029f9	83 c4 08	 add	 esp, 8
  029fc	50		 push	 eax
  029fd	ff 15 00 00 00
	00		 call	 DWORD PTR __imp__atoi
  02a03	83 c4 04	 add	 esp, 4
  02a06	6b 4d f4 64	 imul	 ecx, DWORD PTR _i$[ebp], 100
  02a0a	89 81 18 00 00
	00		 mov	 DWORD PTR ?group_database@@3PAUGROUP_DATA@@A[ecx+24], eax

; 1515 : 		group_database[i].default_entity_type             = ( entity_types ) IntValue(p);

  02a10	68 00 00 00 00	 push	 OFFSET ??_C@_01IHBHIGKO@?0@
  02a15	6a 00		 push	 0
  02a17	ff 15 00 00 00
	00		 call	 DWORD PTR __imp__strtok
  02a1d	83 c4 08	 add	 esp, 8
  02a20	50		 push	 eax
  02a21	ff 15 00 00 00
	00		 call	 DWORD PTR __imp__atoi
  02a27	83 c4 04	 add	 esp, 4
  02a2a	6b 4d f4 64	 imul	 ecx, DWORD PTR _i$[ebp], 100
  02a2e	89 81 1c 00 00
	00		 mov	 DWORD PTR ?group_database@@3PAUGROUP_DATA@@A[ecx+28], eax

; 1516 : 		group_database[i].default_blue_force_sub_type     = IntValue(p);

  02a34	68 00 00 00 00	 push	 OFFSET ??_C@_01IHBHIGKO@?0@
  02a39	6a 00		 push	 0
  02a3b	ff 15 00 00 00
	00		 call	 DWORD PTR __imp__strtok
  02a41	83 c4 08	 add	 esp, 8
  02a44	50		 push	 eax
  02a45	ff 15 00 00 00
	00		 call	 DWORD PTR __imp__atoi
  02a4b	83 c4 04	 add	 esp, 4
  02a4e	6b 4d f4 64	 imul	 ecx, DWORD PTR _i$[ebp], 100
  02a52	89 81 20 00 00
	00		 mov	 DWORD PTR ?group_database@@3PAUGROUP_DATA@@A[ecx+32], eax

; 1517 : 		group_database[i].default_red_force_sub_type      = IntValue(p);

  02a58	68 00 00 00 00	 push	 OFFSET ??_C@_01IHBHIGKO@?0@
  02a5d	6a 00		 push	 0
  02a5f	ff 15 00 00 00
	00		 call	 DWORD PTR __imp__strtok
  02a65	83 c4 08	 add	 esp, 8
  02a68	50		 push	 eax
  02a69	ff 15 00 00 00
	00		 call	 DWORD PTR __imp__atoi
  02a6f	83 c4 04	 add	 esp, 4
  02a72	6b 4d f4 64	 imul	 ecx, DWORD PTR _i$[ebp], 100
  02a76	89 81 24 00 00
	00		 mov	 DWORD PTR ?group_database@@3PAUGROUP_DATA@@A[ecx+36], eax

; 1518 : 		group_database[i].default_group_formation         = ( formation_types ) IntValue(p);

  02a7c	68 00 00 00 00	 push	 OFFSET ??_C@_01IHBHIGKO@?0@
  02a81	6a 00		 push	 0
  02a83	ff 15 00 00 00
	00		 call	 DWORD PTR __imp__strtok
  02a89	83 c4 08	 add	 esp, 8
  02a8c	50		 push	 eax
  02a8d	ff 15 00 00 00
	00		 call	 DWORD PTR __imp__atoi
  02a93	83 c4 04	 add	 esp, 4
  02a96	6b 4d f4 64	 imul	 ecx, DWORD PTR _i$[ebp], 100
  02a9a	89 81 28 00 00
	00		 mov	 DWORD PTR ?group_database@@3PAUGROUP_DATA@@A[ecx+40], eax

; 1519 : 		group_database[i].default_group_division          = IntValue(p);

  02aa0	68 00 00 00 00	 push	 OFFSET ??_C@_01IHBHIGKO@?0@
  02aa5	6a 00		 push	 0
  02aa7	ff 15 00 00 00
	00		 call	 DWORD PTR __imp__strtok
  02aad	83 c4 08	 add	 esp, 8
  02ab0	50		 push	 eax
  02ab1	ff 15 00 00 00
	00		 call	 DWORD PTR __imp__atoi
  02ab7	83 c4 04	 add	 esp, 4
  02aba	6b 4d f4 64	 imul	 ecx, DWORD PTR _i$[ebp], 100
  02abe	89 81 2c 00 00
	00		 mov	 DWORD PTR ?group_database@@3PAUGROUP_DATA@@A[ecx+44], eax

; 1520 : 		group_database[i].maximum_groups_per_division     = IntValue(p);

  02ac4	68 00 00 00 00	 push	 OFFSET ??_C@_01IHBHIGKO@?0@
  02ac9	6a 00		 push	 0
  02acb	ff 15 00 00 00
	00		 call	 DWORD PTR __imp__strtok
  02ad1	83 c4 08	 add	 esp, 8
  02ad4	50		 push	 eax
  02ad5	ff 15 00 00 00
	00		 call	 DWORD PTR __imp__atoi
  02adb	83 c4 04	 add	 esp, 4
  02ade	6b 4d f4 64	 imul	 ecx, DWORD PTR _i$[ebp], 100
  02ae2	89 81 30 00 00
	00		 mov	 DWORD PTR ?group_database@@3PAUGROUP_DATA@@A[ecx+48], eax

; 1521 : 		group_database[i].rearming_time                   = IntValue(p);

  02ae8	68 00 00 00 00	 push	 OFFSET ??_C@_01IHBHIGKO@?0@
  02aed	6a 00		 push	 0
  02aef	ff 15 00 00 00
	00		 call	 DWORD PTR __imp__strtok
  02af5	83 c4 08	 add	 esp, 8
  02af8	50		 push	 eax
  02af9	ff 15 00 00 00
	00		 call	 DWORD PTR __imp__atoi
  02aff	83 c4 04	 add	 esp, 4
  02b02	f3 0f 2a c0	 cvtsi2ss xmm0, eax
  02b06	6b 45 f4 64	 imul	 eax, DWORD PTR _i$[ebp], 100
  02b0a	f3 0f 11 80 44
	00 00 00	 movss	 DWORD PTR ?group_database@@3PAUGROUP_DATA@@A[eax+68], xmm0

; 1522 : 		group_database[i].frontline_flag                  = IntValue(p);

  02b12	68 00 00 00 00	 push	 OFFSET ??_C@_01IHBHIGKO@?0@
  02b17	6a 00		 push	 0
  02b19	ff 15 00 00 00
	00		 call	 DWORD PTR __imp__strtok
  02b1f	83 c4 08	 add	 esp, 8
  02b22	50		 push	 eax
  02b23	ff 15 00 00 00
	00		 call	 DWORD PTR __imp__atoi
  02b29	83 c4 04	 add	 esp, 4
  02b2c	89 85 9c f6 ff
	ff		 mov	 DWORD PTR tv2010[ebp], eax
  02b32	6b 45 f4 64	 imul	 eax, DWORD PTR _i$[ebp], 100
  02b36	8b 8d 9c f6 ff
	ff		 mov	 ecx, DWORD PTR tv2010[ebp]
  02b3c	83 e1 03	 and	 ecx, 3
  02b3f	8b 90 48 00 00
	00		 mov	 edx, DWORD PTR ?group_database@@3PAUGROUP_DATA@@A[eax+72]
  02b45	83 e2 fc	 and	 edx, -4			; fffffffcH
  02b48	0b d1		 or	 edx, ecx
  02b4a	6b 45 f4 64	 imul	 eax, DWORD PTR _i$[ebp], 100
  02b4e	89 90 48 00 00
	00		 mov	 DWORD PTR ?group_database@@3PAUGROUP_DATA@@A[eax+72], edx

; 1523 : 		group_database[i].local_only_group                = IntValue(p);

  02b54	68 00 00 00 00	 push	 OFFSET ??_C@_01IHBHIGKO@?0@
  02b59	6a 00		 push	 0
  02b5b	ff 15 00 00 00
	00		 call	 DWORD PTR __imp__strtok
  02b61	83 c4 08	 add	 esp, 8
  02b64	50		 push	 eax
  02b65	ff 15 00 00 00
	00		 call	 DWORD PTR __imp__atoi
  02b6b	83 c4 04	 add	 esp, 4
  02b6e	89 85 9c f6 ff
	ff		 mov	 DWORD PTR tv2025[ebp], eax
  02b74	6b 45 f4 64	 imul	 eax, DWORD PTR _i$[ebp], 100
  02b78	8b 8d 9c f6 ff
	ff		 mov	 ecx, DWORD PTR tv2025[ebp]
  02b7e	83 e1 01	 and	 ecx, 1
  02b81	c1 e1 02	 shl	 ecx, 2
  02b84	8b 90 48 00 00
	00		 mov	 edx, DWORD PTR ?group_database@@3PAUGROUP_DATA@@A[eax+72]
  02b8a	83 e2 fb	 and	 edx, -5			; fffffffbH
  02b8d	0b d1		 or	 edx, ecx
  02b8f	6b 45 f4 64	 imul	 eax, DWORD PTR _i$[ebp], 100
  02b93	89 90 48 00 00
	00		 mov	 DWORD PTR ?group_database@@3PAUGROUP_DATA@@A[eax+72], edx

; 1524 : 		group_database[i].default_engage_enemy            = IntValue(p);

  02b99	68 00 00 00 00	 push	 OFFSET ??_C@_01IHBHIGKO@?0@
  02b9e	6a 00		 push	 0
  02ba0	ff 15 00 00 00
	00		 call	 DWORD PTR __imp__strtok
  02ba6	83 c4 08	 add	 esp, 8
  02ba9	50		 push	 eax
  02baa	ff 15 00 00 00
	00		 call	 DWORD PTR __imp__atoi
  02bb0	83 c4 04	 add	 esp, 4
  02bb3	89 85 9c f6 ff
	ff		 mov	 DWORD PTR tv2041[ebp], eax
  02bb9	6b 45 f4 64	 imul	 eax, DWORD PTR _i$[ebp], 100
  02bbd	8b 8d 9c f6 ff
	ff		 mov	 ecx, DWORD PTR tv2041[ebp]
  02bc3	83 e1 01	 and	 ecx, 1
  02bc6	c1 e1 03	 shl	 ecx, 3
  02bc9	8b 90 48 00 00
	00		 mov	 edx, DWORD PTR ?group_database@@3PAUGROUP_DATA@@A[eax+72]
  02bcf	83 e2 f7	 and	 edx, -9			; fffffff7H
  02bd2	0b d1		 or	 edx, ecx
  02bd4	6b 45 f4 64	 imul	 eax, DWORD PTR _i$[ebp], 100
  02bd8	89 90 48 00 00
	00		 mov	 DWORD PTR ?group_database@@3PAUGROUP_DATA@@A[eax+72], edx

; 1525 : 		group_database[i].amalgamate                      = IntValue(p);

  02bde	68 00 00 00 00	 push	 OFFSET ??_C@_01IHBHIGKO@?0@
  02be3	6a 00		 push	 0
  02be5	ff 15 00 00 00
	00		 call	 DWORD PTR __imp__strtok
  02beb	83 c4 08	 add	 esp, 8
  02bee	50		 push	 eax
  02bef	ff 15 00 00 00
	00		 call	 DWORD PTR __imp__atoi
  02bf5	83 c4 04	 add	 esp, 4
  02bf8	89 85 9c f6 ff
	ff		 mov	 DWORD PTR tv2057[ebp], eax
  02bfe	6b 45 f4 64	 imul	 eax, DWORD PTR _i$[ebp], 100
  02c02	8b 8d 9c f6 ff
	ff		 mov	 ecx, DWORD PTR tv2057[ebp]
  02c08	83 e1 01	 and	 ecx, 1
  02c0b	c1 e1 04	 shl	 ecx, 4
  02c0e	8b 90 48 00 00
	00		 mov	 edx, DWORD PTR ?group_database@@3PAUGROUP_DATA@@A[eax+72]
  02c14	83 e2 ef	 and	 edx, -17		; ffffffefH
  02c17	0b d1		 or	 edx, ecx
  02c19	6b 45 f4 64	 imul	 eax, DWORD PTR _i$[ebp], 100
  02c1d	89 90 48 00 00
	00		 mov	 DWORD PTR ?group_database@@3PAUGROUP_DATA@@A[eax+72], edx

; 1526 : 		group_database[i].platoon_id_type                 = IntValue(p);

  02c23	68 00 00 00 00	 push	 OFFSET ??_C@_01IHBHIGKO@?0@
  02c28	6a 00		 push	 0
  02c2a	ff 15 00 00 00
	00		 call	 DWORD PTR __imp__strtok
  02c30	83 c4 08	 add	 esp, 8
  02c33	50		 push	 eax
  02c34	ff 15 00 00 00
	00		 call	 DWORD PTR __imp__atoi
  02c3a	83 c4 04	 add	 esp, 4
  02c3d	89 85 9c f6 ff
	ff		 mov	 DWORD PTR tv2073[ebp], eax
  02c43	6b 45 f4 64	 imul	 eax, DWORD PTR _i$[ebp], 100
  02c47	8b 8d 9c f6 ff
	ff		 mov	 ecx, DWORD PTR tv2073[ebp]
  02c4d	83 e1 07	 and	 ecx, 7
  02c50	c1 e1 05	 shl	 ecx, 5
  02c53	8b 90 48 00 00
	00		 mov	 edx, DWORD PTR ?group_database@@3PAUGROUP_DATA@@A[eax+72]
  02c59	81 e2 1f ff ff
	ff		 and	 edx, -225		; ffffff1fH
  02c5f	0b d1		 or	 edx, ecx
  02c61	6b 45 f4 64	 imul	 eax, DWORD PTR _i$[ebp], 100
  02c65	89 90 48 00 00
	00		 mov	 DWORD PTR ?group_database@@3PAUGROUP_DATA@@A[eax+72], edx

; 1527 : 		group_database[i].maximum_member_count            = IntValue(p);

  02c6b	68 00 00 00 00	 push	 OFFSET ??_C@_01IHBHIGKO@?0@
  02c70	6a 00		 push	 0
  02c72	ff 15 00 00 00
	00		 call	 DWORD PTR __imp__strtok
  02c78	83 c4 08	 add	 esp, 8
  02c7b	50		 push	 eax
  02c7c	ff 15 00 00 00
	00		 call	 DWORD PTR __imp__atoi
  02c82	83 c4 04	 add	 esp, 4
  02c85	89 85 9c f6 ff
	ff		 mov	 DWORD PTR tv2089[ebp], eax
  02c8b	6b 45 f4 64	 imul	 eax, DWORD PTR _i$[ebp], 100
  02c8f	8b 8d 9c f6 ff
	ff		 mov	 ecx, DWORD PTR tv2089[ebp]
  02c95	83 e1 1f	 and	 ecx, 31			; 0000001fH
  02c98	c1 e1 08	 shl	 ecx, 8
  02c9b	8b 90 48 00 00
	00		 mov	 edx, DWORD PTR ?group_database@@3PAUGROUP_DATA@@A[eax+72]
  02ca1	81 e2 ff e0 ff
	ff		 and	 edx, -7937		; ffffe0ffH
  02ca7	0b d1		 or	 edx, ecx
  02ca9	6b 45 f4 64	 imul	 eax, DWORD PTR _i$[ebp], 100
  02cad	89 90 48 00 00
	00		 mov	 DWORD PTR ?group_database@@3PAUGROUP_DATA@@A[eax+72], edx

; 1528 : 		group_database[i].minimum_idle_count              = IntValue(p);

  02cb3	68 00 00 00 00	 push	 OFFSET ??_C@_01IHBHIGKO@?0@
  02cb8	6a 00		 push	 0
  02cba	ff 15 00 00 00
	00		 call	 DWORD PTR __imp__strtok
  02cc0	83 c4 08	 add	 esp, 8
  02cc3	50		 push	 eax
  02cc4	ff 15 00 00 00
	00		 call	 DWORD PTR __imp__atoi
  02cca	83 c4 04	 add	 esp, 4
  02ccd	89 85 9c f6 ff
	ff		 mov	 DWORD PTR tv2105[ebp], eax
  02cd3	6b 45 f4 64	 imul	 eax, DWORD PTR _i$[ebp], 100
  02cd7	8b 8d 9c f6 ff
	ff		 mov	 ecx, DWORD PTR tv2105[ebp]
  02cdd	83 e1 0f	 and	 ecx, 15			; 0000000fH
  02ce0	c1 e1 0d	 shl	 ecx, 13			; 0000000dH
  02ce3	8b 90 48 00 00
	00		 mov	 edx, DWORD PTR ?group_database@@3PAUGROUP_DATA@@A[eax+72]
  02ce9	81 e2 ff 1f fe
	ff		 and	 edx, -122881		; fffe1fffH
  02cef	0b d1		 or	 edx, ecx
  02cf1	6b 45 f4 64	 imul	 eax, DWORD PTR _i$[ebp], 100
  02cf5	89 90 48 00 00
	00		 mov	 DWORD PTR ?group_database@@3PAUGROUP_DATA@@A[eax+72], edx

; 1529 : 		group_database[i].resupply_source                 = IntValue(p);

  02cfb	68 00 00 00 00	 push	 OFFSET ??_C@_01IHBHIGKO@?0@
  02d00	6a 00		 push	 0
  02d02	ff 15 00 00 00
	00		 call	 DWORD PTR __imp__strtok
  02d08	83 c4 08	 add	 esp, 8
  02d0b	50		 push	 eax
  02d0c	ff 15 00 00 00
	00		 call	 DWORD PTR __imp__atoi
  02d12	83 c4 04	 add	 esp, 4
  02d15	89 85 9c f6 ff
	ff		 mov	 DWORD PTR tv2121[ebp], eax
  02d1b	6b 45 f4 64	 imul	 eax, DWORD PTR _i$[ebp], 100
  02d1f	8b 8d 9c f6 ff
	ff		 mov	 ecx, DWORD PTR tv2121[ebp]
  02d25	83 e1 07	 and	 ecx, 7
  02d28	c1 e1 11	 shl	 ecx, 17			; 00000011H
  02d2b	8b 90 48 00 00
	00		 mov	 edx, DWORD PTR ?group_database@@3PAUGROUP_DATA@@A[eax+72]
  02d31	81 e2 ff ff f1
	ff		 and	 edx, -917505		; fff1ffffH
  02d37	0b d1		 or	 edx, ecx
  02d39	6b 45 f4 64	 imul	 eax, DWORD PTR _i$[ebp], 100
  02d3d	89 90 48 00 00
	00		 mov	 DWORD PTR ?group_database@@3PAUGROUP_DATA@@A[eax+72], edx

; 1530 : 		group_database[i].ai_stats.air_attack_strength    = IntValue(p);

  02d43	68 00 00 00 00	 push	 OFFSET ??_C@_01IHBHIGKO@?0@
  02d48	6a 00		 push	 0
  02d4a	ff 15 00 00 00
	00		 call	 DWORD PTR __imp__strtok
  02d50	83 c4 08	 add	 esp, 8
  02d53	50		 push	 eax
  02d54	ff 15 00 00 00
	00		 call	 DWORD PTR __imp__atoi
  02d5a	83 c4 04	 add	 esp, 4
  02d5d	6b 4d f4 64	 imul	 ecx, DWORD PTR _i$[ebp], 100
  02d61	89 81 4c 00 00
	00		 mov	 DWORD PTR ?group_database@@3PAUGROUP_DATA@@A[ecx+76], eax

; 1531 : 		group_database[i].ai_stats.ground_attack_strength = IntValue(p);

  02d67	68 00 00 00 00	 push	 OFFSET ??_C@_01IHBHIGKO@?0@
  02d6c	6a 00		 push	 0
  02d6e	ff 15 00 00 00
	00		 call	 DWORD PTR __imp__strtok
  02d74	83 c4 08	 add	 esp, 8
  02d77	50		 push	 eax
  02d78	ff 15 00 00 00
	00		 call	 DWORD PTR __imp__atoi
  02d7e	83 c4 04	 add	 esp, 4
  02d81	6b 4d f4 64	 imul	 ecx, DWORD PTR _i$[ebp], 100
  02d85	89 81 50 00 00
	00		 mov	 DWORD PTR ?group_database@@3PAUGROUP_DATA@@A[ecx+80], eax

; 1532 : 		group_database[i].ai_stats.movement_speed         = IntValue(p);

  02d8b	68 00 00 00 00	 push	 OFFSET ??_C@_01IHBHIGKO@?0@
  02d90	6a 00		 push	 0
  02d92	ff 15 00 00 00
	00		 call	 DWORD PTR __imp__strtok
  02d98	83 c4 08	 add	 esp, 8
  02d9b	50		 push	 eax
  02d9c	ff 15 00 00 00
	00		 call	 DWORD PTR __imp__atoi
  02da2	83 c4 04	 add	 esp, 4
  02da5	6b 4d f4 64	 imul	 ecx, DWORD PTR _i$[ebp], 100
  02da9	89 81 54 00 00
	00		 mov	 DWORD PTR ?group_database@@3PAUGROUP_DATA@@A[ecx+84], eax

; 1533 : 		group_database[i].ai_stats.movement_stealth       = IntValue(p);

  02daf	68 00 00 00 00	 push	 OFFSET ??_C@_01IHBHIGKO@?0@
  02db4	6a 00		 push	 0
  02db6	ff 15 00 00 00
	00		 call	 DWORD PTR __imp__strtok
  02dbc	83 c4 08	 add	 esp, 8
  02dbf	50		 push	 eax
  02dc0	ff 15 00 00 00
	00		 call	 DWORD PTR __imp__atoi
  02dc6	83 c4 04	 add	 esp, 4
  02dc9	6b 4d f4 64	 imul	 ecx, DWORD PTR _i$[ebp], 100
  02dcd	89 81 58 00 00
	00		 mov	 DWORD PTR ?group_database@@3PAUGROUP_DATA@@A[ecx+88], eax

; 1534 : 		group_database[i].ai_stats.cargo_space            = IntValue(p);

  02dd3	68 00 00 00 00	 push	 OFFSET ??_C@_01IHBHIGKO@?0@
  02dd8	6a 00		 push	 0
  02dda	ff 15 00 00 00
	00		 call	 DWORD PTR __imp__strtok
  02de0	83 c4 08	 add	 esp, 8
  02de3	50		 push	 eax
  02de4	ff 15 00 00 00
	00		 call	 DWORD PTR __imp__atoi
  02dea	83 c4 04	 add	 esp, 4
  02ded	6b 4d f4 64	 imul	 ecx, DWORD PTR _i$[ebp], 100
  02df1	89 81 5c 00 00
	00		 mov	 DWORD PTR ?group_database@@3PAUGROUP_DATA@@A[ecx+92], eax

; 1535 : 		group_database[i].ai_stats.troop_space            = IntValue(p);

  02df7	68 00 00 00 00	 push	 OFFSET ??_C@_01IHBHIGKO@?0@
  02dfc	6a 00		 push	 0
  02dfe	ff 15 00 00 00
	00		 call	 DWORD PTR __imp__strtok
  02e04	83 c4 08	 add	 esp, 8
  02e07	50		 push	 eax
  02e08	ff 15 00 00 00
	00		 call	 DWORD PTR __imp__atoi
  02e0e	83 c4 04	 add	 esp, 4
  02e11	6b 4d f4 64	 imul	 ecx, DWORD PTR _i$[ebp], 100
  02e15	89 81 60 00 00
	00		 mov	 DWORD PTR ?group_database@@3PAUGROUP_DATA@@A[ecx+96], eax

; 1536 : 
; 1537 : 		fscanf(f,"%[^\n]\n",buf);

  02e1b	8d 85 ec f7 ff
	ff		 lea	 eax, DWORD PTR _buf$[ebp]
  02e21	50		 push	 eax
  02e22	68 00 00 00 00	 push	 OFFSET ??_C@_06OPEKAKCJ@?$CF?$FL?$FO?6?$FN?6@
  02e27	8b 4d fc	 mov	 ecx, DWORD PTR _f$[ebp]
  02e2a	51		 push	 ecx
  02e2b	e8 00 00 00 00	 call	 _fscanf
  02e30	83 c4 0c	 add	 esp, 12			; 0000000cH

; 1538 : 		TESTDUMP(buf);

  02e33	83 bd e4 f7 ff
	ff 00		 cmp	 DWORD PTR _testdump$[ebp], 0
  02e3a	74 25		 je	 SHORT $LN56@ReadGWutIn
  02e3c	8d 85 ec f7 ff
	ff		 lea	 eax, DWORD PTR _buf$[ebp]
  02e42	50		 push	 eax
  02e43	68 00 00 00 00	 push	 OFFSET ??_C@_03OFAPEBGM@?$CFs?6@
  02e48	8b 4d f8	 mov	 ecx, DWORD PTR _fout$[ebp]
  02e4b	51		 push	 ecx
  02e4c	e8 00 00 00 00	 call	 _fprintf
  02e51	83 c4 0c	 add	 esp, 12			; 0000000cH
  02e54	8b 45 f8	 mov	 eax, DWORD PTR _fout$[ebp]
  02e57	50		 push	 eax
  02e58	ff 15 00 00 00
	00		 call	 DWORD PTR __imp__fflush
  02e5e	83 c4 04	 add	 esp, 4
$LN56@ReadGWutIn:

; 1539 : 	}

  02e61	e9 7a fa ff ff	 jmp	 $LN55@ReadGWutIn
$LN11@ReadGWutIn:

; 1540 : 
; 1541 : 	//read TASKS
; 1542 : 
; 1543 : 	if (READ_HEADER)

  02e66	83 3d 00 00 00
	00 00		 cmp	 DWORD PTR ?READ_HEADER@@3HA, 0 ; READ_HEADER
  02e6d	74 18		 je	 SHORT $LN57@ReadGWutIn

; 1544 : 		fscanf(f,"%[^\n]\n",buf);

  02e6f	8d 85 ec f7 ff
	ff		 lea	 eax, DWORD PTR _buf$[ebp]
  02e75	50		 push	 eax
  02e76	68 00 00 00 00	 push	 OFFSET ??_C@_06OPEKAKCJ@?$CF?$FL?$FO?6?$FN?6@
  02e7b	8b 4d fc	 mov	 ecx, DWORD PTR _f$[ebp]
  02e7e	51		 push	 ecx
  02e7f	e8 00 00 00 00	 call	 _fscanf
  02e84	83 c4 0c	 add	 esp, 12			; 0000000cH
$LN57@ReadGWutIn:

; 1545 : 	TESTDUMP(buf);

  02e87	83 bd e4 f7 ff
	ff 00		 cmp	 DWORD PTR _testdump$[ebp], 0
  02e8e	74 25		 je	 SHORT $LN58@ReadGWutIn
  02e90	8d 85 ec f7 ff
	ff		 lea	 eax, DWORD PTR _buf$[ebp]
  02e96	50		 push	 eax
  02e97	68 00 00 00 00	 push	 OFFSET ??_C@_03OFAPEBGM@?$CFs?6@
  02e9c	8b 4d f8	 mov	 ecx, DWORD PTR _fout$[ebp]
  02e9f	51		 push	 ecx
  02ea0	e8 00 00 00 00	 call	 _fprintf
  02ea5	83 c4 0c	 add	 esp, 12			; 0000000cH
  02ea8	8b 45 f8	 mov	 eax, DWORD PTR _fout$[ebp]
  02eab	50		 push	 eax
  02eac	ff 15 00 00 00
	00		 call	 DWORD PTR __imp__fflush
  02eb2	83 c4 04	 add	 esp, 4
$LN58@ReadGWutIn:

; 1546 : 
; 1547 : 	fscanf(f,"%[^\n]\n",buf);

  02eb5	8d 85 ec f7 ff
	ff		 lea	 eax, DWORD PTR _buf$[ebp]
  02ebb	50		 push	 eax
  02ebc	68 00 00 00 00	 push	 OFFSET ??_C@_06OPEKAKCJ@?$CF?$FL?$FO?6?$FN?6@
  02ec1	8b 4d fc	 mov	 ecx, DWORD PTR _f$[ebp]
  02ec4	51		 push	 ecx
  02ec5	e8 00 00 00 00	 call	 _fscanf
  02eca	83 c4 0c	 add	 esp, 12			; 0000000cH

; 1548 : 	// read first values
; 1549 : 	TESTDUMP(buf);

  02ecd	83 bd e4 f7 ff
	ff 00		 cmp	 DWORD PTR _testdump$[ebp], 0
  02ed4	74 25		 je	 SHORT $LN59@ReadGWutIn
  02ed6	8d 85 ec f7 ff
	ff		 lea	 eax, DWORD PTR _buf$[ebp]
  02edc	50		 push	 eax
  02edd	68 00 00 00 00	 push	 OFFSET ??_C@_03OFAPEBGM@?$CFs?6@
  02ee2	8b 4d f8	 mov	 ecx, DWORD PTR _fout$[ebp]
  02ee5	51		 push	 ecx
  02ee6	e8 00 00 00 00	 call	 _fprintf
  02eeb	83 c4 0c	 add	 esp, 12			; 0000000cH
  02eee	8b 45 f8	 mov	 eax, DWORD PTR _fout$[ebp]
  02ef1	50		 push	 eax
  02ef2	ff 15 00 00 00
	00		 call	 DWORD PTR __imp__fflush
  02ef8	83 c4 04	 add	 esp, 4
$LN59@ReadGWutIn:

; 1550 : 
; 1551 : 	while (!(strcmp(buf,"[WAYPOINTS]")==0) && !(strcmp(buf,"[End of GWUT file]")==0))

  02efb	68 00 00 00 00	 push	 OFFSET ??_C@_0M@DKLOPEFJ@?$FLWAYPOINTS?$FN@
  02f00	8d 85 ec f7 ff
	ff		 lea	 eax, DWORD PTR _buf$[ebp]
  02f06	50		 push	 eax
  02f07	e8 00 00 00 00	 call	 _strcmp
  02f0c	83 c4 08	 add	 esp, 8
  02f0f	85 c0		 test	 eax, eax
  02f11	0f 84 85 0a 00
	00		 je	 $LN13@ReadGWutIn
  02f17	68 00 00 00 00	 push	 OFFSET ??_C@_0BD@EMPOBEGN@?$FLEnd?5of?5GWUT?5file?$FN@
  02f1c	8d 85 ec f7 ff
	ff		 lea	 eax, DWORD PTR _buf$[ebp]
  02f22	50		 push	 eax
  02f23	e8 00 00 00 00	 call	 _strcmp
  02f28	83 c4 08	 add	 esp, 8
  02f2b	85 c0		 test	 eax, eax
  02f2d	0f 84 69 0a 00
	00		 je	 $LN13@ReadGWutIn

; 1552 : 	{
; 1553 : 		p = strtok(buf,",");

  02f33	68 00 00 00 00	 push	 OFFSET ??_C@_01IHBHIGKO@?0@
  02f38	8d 85 ec f7 ff
	ff		 lea	 eax, DWORD PTR _buf$[ebp]
  02f3e	50		 push	 eax
  02f3f	ff 15 00 00 00
	00		 call	 DWORD PTR __imp__strtok
  02f45	83 c4 08	 add	 esp, 8
  02f48	89 85 e8 f7 ff
	ff		 mov	 DWORD PTR _p$[ebp], eax

; 1554 : 		i = atoi(p);

  02f4e	8b 85 e8 f7 ff
	ff		 mov	 eax, DWORD PTR _p$[ebp]
  02f54	50		 push	 eax
  02f55	ff 15 00 00 00
	00		 call	 DWORD PTR __imp__atoi
  02f5b	83 c4 04	 add	 esp, 4
  02f5e	89 45 f4	 mov	 DWORD PTR _i$[ebp], eax

; 1555 : 		//get entity number
; 1556 : 		p = strtok(NULL,",");

  02f61	68 00 00 00 00	 push	 OFFSET ??_C@_01IHBHIGKO@?0@
  02f66	6a 00		 push	 0
  02f68	ff 15 00 00 00
	00		 call	 DWORD PTR __imp__strtok
  02f6e	83 c4 08	 add	 esp, 8
  02f71	89 85 e8 f7 ff
	ff		 mov	 DWORD PTR _p$[ebp], eax

; 1557 : 		//skip full name
; 1558 : 
; 1559 : 		task_database[i].task_category                   = ( task_category_types ) IntValue(p);

  02f77	68 00 00 00 00	 push	 OFFSET ??_C@_01IHBHIGKO@?0@
  02f7c	6a 00		 push	 0
  02f7e	ff 15 00 00 00
	00		 call	 DWORD PTR __imp__strtok
  02f84	83 c4 08	 add	 esp, 8
  02f87	50		 push	 eax
  02f88	ff 15 00 00 00
	00		 call	 DWORD PTR __imp__atoi
  02f8e	83 c4 04	 add	 esp, 4
  02f91	6b 4d f4 50	 imul	 ecx, DWORD PTR _i$[ebp], 80
  02f95	89 81 0c 00 00
	00		 mov	 DWORD PTR ?task_database@@3PAUTASK_DATA@@A[ecx+12], eax

; 1560 : 		task_database[i].task_priority                   = IntValue(p);

  02f9b	68 00 00 00 00	 push	 OFFSET ??_C@_01IHBHIGKO@?0@
  02fa0	6a 00		 push	 0
  02fa2	ff 15 00 00 00
	00		 call	 DWORD PTR __imp__strtok
  02fa8	83 c4 08	 add	 esp, 8
  02fab	50		 push	 eax
  02fac	ff 15 00 00 00
	00		 call	 DWORD PTR __imp__atoi
  02fb2	83 c4 04	 add	 esp, 4
  02fb5	f3 0f 2a c0	 cvtsi2ss xmm0, eax
  02fb9	6b 45 f4 50	 imul	 eax, DWORD PTR _i$[ebp], 80
  02fbd	f3 0f 11 80 10
	00 00 00	 movss	 DWORD PTR ?task_database@@3PAUTASK_DATA@@A[eax+16], xmm0

; 1561 : 		task_database[i].difficulty_rating               = IntValue(p);

  02fc5	68 00 00 00 00	 push	 OFFSET ??_C@_01IHBHIGKO@?0@
  02fca	6a 00		 push	 0
  02fcc	ff 15 00 00 00
	00		 call	 DWORD PTR __imp__strtok
  02fd2	83 c4 08	 add	 esp, 8
  02fd5	50		 push	 eax
  02fd6	ff 15 00 00 00
	00		 call	 DWORD PTR __imp__atoi
  02fdc	83 c4 04	 add	 esp, 4
  02fdf	6b 4d f4 50	 imul	 ecx, DWORD PTR _i$[ebp], 80
  02fe3	89 81 14 00 00
	00		 mov	 DWORD PTR ?task_database@@3PAUTASK_DATA@@A[ecx+20], eax

; 1562 : 		task_database[i].task_default_target_class       = IntValue(p);

  02fe9	68 00 00 00 00	 push	 OFFSET ??_C@_01IHBHIGKO@?0@
  02fee	6a 00		 push	 0
  02ff0	ff 15 00 00 00
	00		 call	 DWORD PTR __imp__strtok
  02ff6	83 c4 08	 add	 esp, 8
  02ff9	50		 push	 eax
  02ffa	ff 15 00 00 00
	00		 call	 DWORD PTR __imp__atoi
  03000	83 c4 04	 add	 esp, 4
  03003	89 85 9c f6 ff
	ff		 mov	 DWORD PTR tv2257[ebp], eax
  03009	6b 45 f4 50	 imul	 eax, DWORD PTR _i$[ebp], 80
  0300d	8b 8d 9c f6 ff
	ff		 mov	 ecx, DWORD PTR tv2257[ebp]
  03013	83 e1 03	 and	 ecx, 3
  03016	8b 90 18 00 00
	00		 mov	 edx, DWORD PTR ?task_database@@3PAUTASK_DATA@@A[eax+24]
  0301c	83 e2 fc	 and	 edx, -4			; fffffffcH
  0301f	0b d1		 or	 edx, ecx
  03021	6b 45 f4 50	 imul	 eax, DWORD PTR _i$[ebp], 80
  03025	89 90 18 00 00
	00		 mov	 DWORD PTR ?task_database@@3PAUTASK_DATA@@A[eax+24], edx

; 1563 : 		task_database[i].task_default_target_source      = IntValue(p);
