; Listing generated by Microsoft (R) Optimizing Compiler Version 19.16.27045.0 

	TITLE	C:\Users\nhv90\Projects\eech\aphavoc\source\gunships\avionics\havoc\ha_avevn.c
	.686P
	.XMM
	include listing.inc
	.model	flat

INCLUDELIB MSVCRTD
INCLUDELIB OLDNAMES

PUBLIC	?set_havoc_avionics_events@@YGXXZ		; set_havoc_avionics_events
PUBLIC	?__LINE__Var@?0??virtual_cockpit_track_target_event@@YGXPAUEVENT@@@Z@4JA ; `virtual_cockpit_track_target_event'::`1'::__LINE__Var
PUBLIC	??_C@_0EP@FDMFLHHH@c?3?2users?2nhv90?2projects?2eech?2ap@ ; `string'
PUBLIC	??_C@_02DHMHPBFG@ev@				; `string'
PUBLIC	?__LINE__Var@?0??toggle_navigation_lights_event@@YGXPAUEVENT@@@Z@4JA ; `toggle_navigation_lights_event'::`1'::__LINE__Var
PUBLIC	?__LINE__Var@?0??activate_laser_event@@YGXPAUEVENT@@@Z@4JA ; `activate_laser_event'::`1'::__LINE__Var
PUBLIC	__real@3f000000
PUBLIC	__real@3f800000
EXTRN	?process_assert@@YGXPBD0H@Z:PROC		; process_assert
EXTRN	?set_event@@YGXHHHP6GXPAUEVENT@@@Z@Z:PROC	; set_event
EXTRN	?get_local_entity_weapon_available@@YGHPAUENTITY@@H@Z:PROC ; get_local_entity_weapon_available
EXTRN	?play_client_server_cpg_message@@YGHPAUENTITY@@MMHMH@Z:PROC ; play_client_server_cpg_message
EXTRN	?set_view_mode@@YGHW4VIEW_MODES@@@Z:PROC	; set_view_mode
EXTRN	?select_padlock_view_event@@YGXW4PADLOCK_MODES@@@Z:PROC ; select_padlock_view_event
EXTRN	?laser_is_active@@YGHXZ:PROC			; laser_is_active
EXTRN	?set_laser_is_active@@YGXH@Z:PROC		; set_laser_is_active
EXTRN	?eo_is_tracking_point@@YGHXZ:PROC		; eo_is_tracking_point
EXTRN	?set_hud_bob_up_overlay@@YGXXZ:PROC		; set_hud_bob_up_overlay
EXTRN	?clear_hud_bob_up_overlay@@YGXXZ:PROC		; clear_hud_bob_up_overlay
EXTRN	?set_gunship_weapon@@YGXH@Z:PROC		; set_gunship_weapon
EXTRN	?lase_range_for_ballistics_sight@@YGXXZ:PROC	; lase_range_for_ballistics_sight
EXTRN	?deactivate_havoc_master_caution_lamp@@YGXXZ:PROC ; deactivate_havoc_master_caution_lamp
EXTRN	?inc_havoc_eo_zoom@@YGXXZ:PROC			; inc_havoc_eo_zoom
EXTRN	?dec_havoc_eo_zoom@@YGXXZ:PROC			; dec_havoc_eo_zoom
EXTRN	?toggle_havoc_eo_system@@YGXXZ:PROC		; toggle_havoc_eo_system
EXTRN	?select_havoc_mfd_mode@@YGXW4MFD_MODES@@@Z:PROC	; select_havoc_mfd_mode
EXTRN	?select_next_havoc_mfd_mode@@YGXXZ:PROC		; select_next_havoc_mfd_mode
EXTRN	?get_havoc_mfd_mode@@YG?AW4MFD_MODES@@XZ:PROC	; get_havoc_mfd_mode
EXTRN	?select_havoc_target_acquisition_system@@YGXW4TARGET_ACQUISITION_SYSTEMS@@@Z:PROC ; select_havoc_target_acquisition_system
EXTRN	?centre_havoc_target_acquisition_system@@YGXXZ:PROC ; centre_havoc_target_acquisition_system
EXTRN	?toggle_havoc_show_allied_targets@@YGXXZ:PROC	; toggle_havoc_show_allied_targets
EXTRN	?toggle_havoc_auto_target@@YGXXZ:PROC		; toggle_havoc_auto_target
EXTRN	?toggle_havoc_lock_target@@YGXXZ:PROC		; toggle_havoc_lock_target
EXTRN	?set_havoc_lock_target@@YGXH@Z:PROC		; set_havoc_lock_target
EXTRN	?havoc_target_acquisition_system_misc_function1@@YGXXZ:PROC ; havoc_target_acquisition_system_misc_function1
EXTRN	?havoc_target_acquisition_system_misc_function2@@YGXXZ:PROC ; havoc_target_acquisition_system_misc_function2
EXTRN	?toggle_havoc_radar_jammer_manual@@YGXXZ:PROC	; toggle_havoc_radar_jammer_manual
EXTRN	?toggle_havoc_infra_red_jammer_manual@@YGXXZ:PROC ; toggle_havoc_infra_red_jammer_manual
EXTRN	?null_entity_pointer_message@@3PBDB:DWORD	; null_entity_pointer_message
EXTRN	?global_options@@3UGLOBAL_OPTIONS_DATA@@A:BYTE	; global_options
EXTRN	?system_comms_model@@3W4COMMS_MODEL_TYPES@@A:DWORD ; system_comms_model
EXTRN	?overload_invalid_list_type_message@@3PBDB:DWORD ; overload_invalid_list_type_message
EXTRN	?fn_get_local_entity_parent@@3PAY0CN@P6GPAUENTITY@@PAU1@W4LIST_TYPES@@@ZA:BYTE ; fn_get_local_entity_parent
EXTRN	?overload_invalid_int_type_message@@3PBDB:DWORD	; overload_invalid_int_type_message
EXTRN	?fn_set_client_server_entity_int_value@@3PAY1BBH@1P6GXPAUENTITY@@W4INT_TYPES@@H@ZA:BYTE ; fn_set_client_server_entity_int_value
EXTRN	?fn_get_local_entity_int_value@@3PAY0BBH@P6GHPAUENTITY@@W4INT_TYPES@@@ZA:BYTE ; fn_get_local_entity_int_value
EXTRN	?gunship_entity@@3PAUENTITY@@A:DWORD		; gunship_entity
EXTRN	?view_mode@@3W4VIEW_MODES@@A:DWORD		; view_mode
EXTRN	?target_acquisition_system@@3W4TARGET_ACQUISITION_SYSTEMS@@A:DWORD ; target_acquisition_system
EXTRN	?continuous_target_acquisition_system_steer_left_key@@3HA:DWORD ; continuous_target_acquisition_system_steer_left_key
EXTRN	?continuous_target_acquisition_system_steer_right_key@@3HA:DWORD ; continuous_target_acquisition_system_steer_right_key
EXTRN	?continuous_target_acquisition_system_steer_up_key@@3HA:DWORD ; continuous_target_acquisition_system_steer_up_key
EXTRN	?continuous_target_acquisition_system_steer_down_key@@3HA:DWORD ; continuous_target_acquisition_system_steer_down_key
EXTRN	?single_target_acquisition_system_steer_left_key@@3HA:DWORD ; single_target_acquisition_system_steer_left_key
EXTRN	?single_target_acquisition_system_steer_right_key@@3HA:DWORD ; single_target_acquisition_system_steer_right_key
EXTRN	?single_target_acquisition_system_steer_up_key@@3HA:DWORD ; single_target_acquisition_system_steer_up_key
EXTRN	?single_target_acquisition_system_steer_down_key@@3HA:DWORD ; single_target_acquisition_system_steer_down_key
EXTRN	?single_target_acquisition_system_inc_range_key@@3HA:DWORD ; single_target_acquisition_system_inc_range_key
EXTRN	?single_target_acquisition_system_dec_range_key@@3HA:DWORD ; single_target_acquisition_system_dec_range_key
EXTRN	?single_target_acquisition_system_inc_target_priority_key@@3HA:DWORD ; single_target_acquisition_system_inc_target_priority_key
EXTRN	?single_target_acquisition_system_dec_target_priority_key@@3HA:DWORD ; single_target_acquisition_system_dec_target_priority_key
EXTRN	?single_target_acquisition_system_select_next_target_key@@3HA:DWORD ; single_target_acquisition_system_select_next_target_key
EXTRN	?single_target_acquisition_system_select_previous_target_key@@3HA:DWORD ; single_target_acquisition_system_select_previous_target_key
EXTRN	?continuous_target_acquisition_system_steer_left_fast_key@@3HA:DWORD ; continuous_target_acquisition_system_steer_left_fast_key
EXTRN	?continuous_target_acquisition_system_steer_right_fast_key@@3HA:DWORD ; continuous_target_acquisition_system_steer_right_fast_key
EXTRN	?continuous_target_acquisition_system_steer_up_fast_key@@3HA:DWORD ; continuous_target_acquisition_system_steer_up_fast_key
EXTRN	?continuous_target_acquisition_system_steer_down_fast_key@@3HA:DWORD ; continuous_target_acquisition_system_steer_down_fast_key
EXTRN	?single_target_acquisition_system_steer_left_fast_key@@3HA:DWORD ; single_target_acquisition_system_steer_left_fast_key
EXTRN	?single_target_acquisition_system_steer_right_fast_key@@3HA:DWORD ; single_target_acquisition_system_steer_right_fast_key
EXTRN	?single_target_acquisition_system_steer_up_fast_key@@3HA:DWORD ; single_target_acquisition_system_steer_up_fast_key
EXTRN	?single_target_acquisition_system_steer_down_fast_key@@3HA:DWORD ; single_target_acquisition_system_steer_down_fast_key
EXTRN	?single_target_acquisition_system_inc_range_fast_key@@3HA:DWORD ; single_target_acquisition_system_inc_range_fast_key
EXTRN	?single_target_acquisition_system_dec_range_fast_key@@3HA:DWORD ; single_target_acquisition_system_dec_range_fast_key
EXTRN	?single_target_acquisition_system_inc_target_priority_fast_key@@3HA:DWORD ; single_target_acquisition_system_inc_target_priority_fast_key
EXTRN	?single_target_acquisition_system_dec_target_priority_fast_key@@3HA:DWORD ; single_target_acquisition_system_dec_target_priority_fast_key
EXTRN	?continuous_target_acquisition_system_steer_left_fine_key@@3HA:DWORD ; continuous_target_acquisition_system_steer_left_fine_key
EXTRN	?continuous_target_acquisition_system_steer_right_fine_key@@3HA:DWORD ; continuous_target_acquisition_system_steer_right_fine_key
EXTRN	?continuous_target_acquisition_system_steer_up_fine_key@@3HA:DWORD ; continuous_target_acquisition_system_steer_up_fine_key
EXTRN	?continuous_target_acquisition_system_steer_down_fine_key@@3HA:DWORD ; continuous_target_acquisition_system_steer_down_fine_key
EXTRN	?toggle_ground_stabilisation_key@@3HA:DWORD	; toggle_ground_stabilisation_key
EXTRN	?night_vision_system_active@@3HA:DWORD		; night_vision_system_active
EXTRN	?havoc_damage@@3THAVOC_DAMAGE_FLAGS@@A:DWORD	; havoc_damage
EXTRN	__fltused:DWORD
;	COMDAT __real@3f800000
CONST	SEGMENT
__real@3f800000 DD 03f800000r			; 1
CONST	ENDS
;	COMDAT __real@3f000000
CONST	SEGMENT
__real@3f000000 DD 03f000000r			; 0.5
CONST	ENDS
;	COMDAT ?__LINE__Var@?0??activate_laser_event@@YGXPAUEVENT@@@Z@4JA
_DATA	SEGMENT
?__LINE__Var@?0??activate_laser_event@@YGXPAUEVENT@@@Z@4JA DD 028fH ; `activate_laser_event'::`1'::__LINE__Var
_DATA	ENDS
;	COMDAT ?__LINE__Var@?0??toggle_navigation_lights_event@@YGXPAUEVENT@@@Z@4JA
_DATA	SEGMENT
?__LINE__Var@?0??toggle_navigation_lights_event@@YGXPAUEVENT@@@Z@4JA DD 0281H ; `toggle_navigation_lights_event'::`1'::__LINE__Var
_DATA	ENDS
;	COMDAT ??_C@_02DHMHPBFG@ev@
CONST	SEGMENT
??_C@_02DHMHPBFG@ev@ DB 'ev', 00H			; `string'
CONST	ENDS
;	COMDAT ??_C@_0EP@FDMFLHHH@c?3?2users?2nhv90?2projects?2eech?2ap@
CONST	SEGMENT
??_C@_0EP@FDMFLHHH@c?3?2users?2nhv90?2projects?2eech?2ap@ DB 'c:\users\nh'
	DB	'v90\projects\eech\aphavoc\source\gunships\avionics\havoc\ha_a'
	DB	'vevn.c', 00H				; `string'
CONST	ENDS
;	COMDAT ?__LINE__Var@?0??virtual_cockpit_track_target_event@@YGXPAUEVENT@@@Z@4JA
_DATA	SEGMENT
?__LINE__Var@?0??virtual_cockpit_track_target_event@@YGXPAUEVENT@@@Z@4JA DD 0228H ; `virtual_cockpit_track_target_event'::`1'::__LINE__Var
_DATA	ENDS
; Function compile flags: /Odtp /ZI
; File c:\users\nhv90\projects\eech\aphavoc\source\gunships\avionics\havoc\ha_avevn.c
;	COMDAT ?activate_laser_event@@YGXPAUEVENT@@@Z
_TEXT	SEGMENT
tv93 = -76						; size = 4
tv85 = -72						; size = 4
tv77 = -68						; size = 4
_ev$ = 8						; size = 4
?activate_laser_event@@YGXPAUEVENT@@@Z PROC		; activate_laser_event, COMDAT

; 655  : {

  00000	55		 push	 ebp
  00001	8b ec		 mov	 ebp, esp
  00003	83 ec 4c	 sub	 esp, 76			; 0000004cH
  00006	53		 push	 ebx
  00007	56		 push	 esi
  00008	57		 push	 edi

; 656  : 	if (!laser_is_active() && !havoc_damage.laser_range_finder)

  00009	e8 00 00 00 00	 call	 ?laser_is_active@@YGHXZ	; laser_is_active
  0000e	85 c0		 test	 eax, eax
  00010	0f 85 d5 00 00
	00		 jne	 $LN2@activate_l
  00016	a1 00 00 00 00	 mov	 eax, DWORD PTR ?havoc_damage@@3THAVOC_DAMAGE_FLAGS@@A ; havoc_damage
  0001b	c1 e8 04	 shr	 eax, 4
  0001e	83 e0 01	 and	 eax, 1
  00021	0f 85 c4 00 00
	00		 jne	 $LN2@activate_l

; 657  : 	{
; 658  : 		if (target_acquisition_system == TARGET_ACQUISITION_SYSTEM_OFF)

  00027	83 3d 00 00 00
	00 00		 cmp	 DWORD PTR ?target_acquisition_system@@3W4TARGET_ACQUISITION_SYSTEMS@@A, 0 ; target_acquisition_system
  0002e	75 0a		 jne	 SHORT $LN4@activate_l

; 659  : 			lase_range_for_ballistics_sight();

  00030	e8 00 00 00 00	 call	 ?lase_range_for_ballistics_sight@@YGXXZ ; lase_range_for_ballistics_sight

; 660  : 		else

  00035	e9 af 00 00 00	 jmp	 $LN5@activate_l
$LN4@activate_l:

; 661  : 			set_laser_is_active(eo_is_tracking_point() || get_local_entity_parent(get_gunship_entity(), LIST_TYPE_TARGET));

  0003a	e8 00 00 00 00	 call	 ?eo_is_tracking_point@@YGHXZ ; eo_is_tracking_point
  0003f	85 c0		 test	 eax, eax
  00041	0f 85 92 00 00
	00		 jne	 $LN11@activate_l
  00047	83 3d 00 00 00
	00 00		 cmp	 DWORD PTR ?gunship_entity@@3PAUENTITY@@A, 0 ; gunship_entity
  0004e	74 0c		 je	 SHORT $LN7@activate_l
  00050	a1 00 00 00 00	 mov	 eax, DWORD PTR ?gunship_entity@@3PAUENTITY@@A ; gunship_entity
  00055	8b 08		 mov	 ecx, DWORD PTR [eax]
  00057	89 4d bc	 mov	 DWORD PTR tv77[ebp], ecx
  0005a	eb 21		 jmp	 SHORT $LN8@activate_l
$LN7@activate_l:
  0005c	8b 15 00 00 00
	00		 mov	 edx, DWORD PTR ?__LINE__Var@?0??activate_laser_event@@YGXPAUEVENT@@@Z@4JA
  00062	83 c2 06	 add	 edx, 6
  00065	52		 push	 edx
  00066	68 00 00 00 00	 push	 OFFSET ??_C@_0EP@FDMFLHHH@c?3?2users?2nhv90?2projects?2eech?2ap@
  0006b	a1 00 00 00 00	 mov	 eax, DWORD PTR ?null_entity_pointer_message@@3PBDB ; null_entity_pointer_message
  00070	50		 push	 eax
  00071	e8 00 00 00 00	 call	 ?process_assert@@YGXPBD0H@Z ; process_assert
  00076	c7 45 bc 00 00
	00 00		 mov	 DWORD PTR tv77[ebp], 0
$LN8@activate_l:
  0007d	b9 01 00 00 00	 mov	 ecx, 1
  00082	85 c9		 test	 ecx, ecx
  00084	74 09		 je	 SHORT $LN9@activate_l
  00086	c7 45 b8 26 00
	00 00		 mov	 DWORD PTR tv85[ebp], 38	; 00000026H
  0008d	eb 21		 jmp	 SHORT $LN10@activate_l
$LN9@activate_l:
  0008f	8b 15 00 00 00
	00		 mov	 edx, DWORD PTR ?__LINE__Var@?0??activate_laser_event@@YGXPAUEVENT@@@Z@4JA
  00095	83 c2 06	 add	 edx, 6
  00098	52		 push	 edx
  00099	68 00 00 00 00	 push	 OFFSET ??_C@_0EP@FDMFLHHH@c?3?2users?2nhv90?2projects?2eech?2ap@
  0009e	a1 00 00 00 00	 mov	 eax, DWORD PTR ?overload_invalid_list_type_message@@3PBDB ; overload_invalid_list_type_message
  000a3	50		 push	 eax
  000a4	e8 00 00 00 00	 call	 ?process_assert@@YGXPBD0H@Z ; process_assert
  000a9	c7 45 b8 00 00
	00 00		 mov	 DWORD PTR tv85[ebp], 0
$LN10@activate_l:
  000b0	6a 26		 push	 38			; 00000026H
  000b2	8b 0d 00 00 00
	00		 mov	 ecx, DWORD PTR ?gunship_entity@@3PAUENTITY@@A ; gunship_entity
  000b8	51		 push	 ecx
  000b9	69 55 bc b4 00
	00 00		 imul	 edx, DWORD PTR tv77[ebp], 180
  000c0	8b 45 b8	 mov	 eax, DWORD PTR tv85[ebp]
  000c3	8b 8c 82 00 00
	00 00		 mov	 ecx, DWORD PTR ?fn_get_local_entity_parent@@3PAY0CN@P6GPAUENTITY@@PAU1@W4LIST_TYPES@@@ZA[edx+eax*4]
  000ca	ff d1		 call	 ecx
  000cc	85 c0		 test	 eax, eax
  000ce	75 09		 jne	 SHORT $LN11@activate_l
  000d0	c7 45 b4 00 00
	00 00		 mov	 DWORD PTR tv93[ebp], 0
  000d7	eb 07		 jmp	 SHORT $LN12@activate_l
$LN11@activate_l:
  000d9	c7 45 b4 01 00
	00 00		 mov	 DWORD PTR tv93[ebp], 1
$LN12@activate_l:
  000e0	8b 55 b4	 mov	 edx, DWORD PTR tv93[ebp]
  000e3	52		 push	 edx
  000e4	e8 00 00 00 00	 call	 ?set_laser_is_active@@YGXH@Z ; set_laser_is_active
$LN5@activate_l:

; 662  : 	}
; 663  : 	else

  000e9	eb 07		 jmp	 SHORT $LN1@activate_l
$LN2@activate_l:

; 664  : 		set_laser_is_active(FALSE);

  000eb	6a 00		 push	 0
  000ed	e8 00 00 00 00	 call	 ?set_laser_is_active@@YGXH@Z ; set_laser_is_active
$LN1@activate_l:

; 665  : }

  000f2	5f		 pop	 edi
  000f3	5e		 pop	 esi
  000f4	5b		 pop	 ebx
  000f5	8b e5		 mov	 esp, ebp
  000f7	5d		 pop	 ebp
  000f8	c2 04 00	 ret	 4
?activate_laser_event@@YGXPAUEVENT@@@Z ENDP		; activate_laser_event
_TEXT	ENDS
; Function compile flags: /Odtp /ZI
; File c:\users\nhv90\projects\eech\aphavoc\source\gunships\avionics\havoc\ha_avevn.c
;	COMDAT ?toggle_navigation_lights_event@@YGXPAUEVENT@@@Z
_TEXT	SEGMENT
tv131 = -76						; size = 4
tv78 = -76						; size = 4
tv91 = -72						; size = 4
tv70 = -72						; size = 4
_status$ = -4						; size = 4
_ev$ = 8						; size = 4
?toggle_navigation_lights_event@@YGXPAUEVENT@@@Z PROC	; toggle_navigation_lights_event, COMDAT

; 641  : {

  00000	55		 push	 ebp
  00001	8b ec		 mov	 ebp, esp
  00003	83 ec 4c	 sub	 esp, 76			; 0000004cH
  00006	53		 push	 ebx
  00007	56		 push	 esi
  00008	57		 push	 edi

; 642  : 	int
; 643  : 		status;
; 644  : 
; 645  : 	status = get_local_entity_int_value (get_gunship_entity (), INT_TYPE_LIGHTS_ON);

  00009	83 3d 00 00 00
	00 00		 cmp	 DWORD PTR ?gunship_entity@@3PAUENTITY@@A, 0 ; gunship_entity
  00010	74 0c		 je	 SHORT $LN3@toggle_nav
  00012	a1 00 00 00 00	 mov	 eax, DWORD PTR ?gunship_entity@@3PAUENTITY@@A ; gunship_entity
  00017	8b 08		 mov	 ecx, DWORD PTR [eax]
  00019	89 4d b8	 mov	 DWORD PTR tv70[ebp], ecx
  0001c	eb 21		 jmp	 SHORT $LN4@toggle_nav
$LN3@toggle_nav:
  0001e	8b 15 00 00 00
	00		 mov	 edx, DWORD PTR ?__LINE__Var@?0??toggle_navigation_lights_event@@YGXPAUEVENT@@@Z@4JA
  00024	83 c2 04	 add	 edx, 4
  00027	52		 push	 edx
  00028	68 00 00 00 00	 push	 OFFSET ??_C@_0EP@FDMFLHHH@c?3?2users?2nhv90?2projects?2eech?2ap@
  0002d	a1 00 00 00 00	 mov	 eax, DWORD PTR ?null_entity_pointer_message@@3PBDB ; null_entity_pointer_message
  00032	50		 push	 eax
  00033	e8 00 00 00 00	 call	 ?process_assert@@YGXPBD0H@Z ; process_assert
  00038	c7 45 b8 00 00
	00 00		 mov	 DWORD PTR tv70[ebp], 0
$LN4@toggle_nav:
  0003f	b9 01 00 00 00	 mov	 ecx, 1
  00044	85 c9		 test	 ecx, ecx
  00046	74 09		 je	 SHORT $LN5@toggle_nav
  00048	c7 45 b4 7a 00
	00 00		 mov	 DWORD PTR tv78[ebp], 122 ; 0000007aH
  0004f	eb 21		 jmp	 SHORT $LN6@toggle_nav
$LN5@toggle_nav:
  00051	8b 15 00 00 00
	00		 mov	 edx, DWORD PTR ?__LINE__Var@?0??toggle_navigation_lights_event@@YGXPAUEVENT@@@Z@4JA
  00057	83 c2 04	 add	 edx, 4
  0005a	52		 push	 edx
  0005b	68 00 00 00 00	 push	 OFFSET ??_C@_0EP@FDMFLHHH@c?3?2users?2nhv90?2projects?2eech?2ap@
  00060	a1 00 00 00 00	 mov	 eax, DWORD PTR ?overload_invalid_int_type_message@@3PBDB ; overload_invalid_int_type_message
  00065	50		 push	 eax
  00066	e8 00 00 00 00	 call	 ?process_assert@@YGXPBD0H@Z ; process_assert
  0006b	c7 45 b4 00 00
	00 00		 mov	 DWORD PTR tv78[ebp], 0
$LN6@toggle_nav:
  00072	6a 7a		 push	 122			; 0000007aH
  00074	8b 0d 00 00 00
	00		 mov	 ecx, DWORD PTR ?gunship_entity@@3PAUENTITY@@A ; gunship_entity
  0007a	51		 push	 ecx
  0007b	69 55 b8 5c 04
	00 00		 imul	 edx, DWORD PTR tv70[ebp], 1116
  00082	8b 45 b4	 mov	 eax, DWORD PTR tv78[ebp]
  00085	8b 8c 82 00 00
	00 00		 mov	 ecx, DWORD PTR ?fn_get_local_entity_int_value@@3PAY0BBH@P6GHPAUENTITY@@W4INT_TYPES@@@ZA[edx+eax*4]
  0008c	ff d1		 call	 ecx
  0008e	89 45 fc	 mov	 DWORD PTR _status$[ebp], eax

; 646  : 
; 647  : 	status ^= 1;

  00091	8b 45 fc	 mov	 eax, DWORD PTR _status$[ebp]
  00094	83 f0 01	 xor	 eax, 1
  00097	89 45 fc	 mov	 DWORD PTR _status$[ebp], eax

; 648  : 
; 649  : 	set_client_server_entity_int_value (get_gunship_entity (), INT_TYPE_LIGHTS_ON, status);

  0009a	83 3d 00 00 00
	00 00		 cmp	 DWORD PTR ?gunship_entity@@3PAUENTITY@@A, 0 ; gunship_entity
  000a1	74 0c		 je	 SHORT $LN7@toggle_nav
  000a3	a1 00 00 00 00	 mov	 eax, DWORD PTR ?gunship_entity@@3PAUENTITY@@A ; gunship_entity
  000a8	8b 08		 mov	 ecx, DWORD PTR [eax]
  000aa	89 4d b8	 mov	 DWORD PTR tv91[ebp], ecx
  000ad	eb 21		 jmp	 SHORT $LN8@toggle_nav
$LN7@toggle_nav:
  000af	8b 15 00 00 00
	00		 mov	 edx, DWORD PTR ?__LINE__Var@?0??toggle_navigation_lights_event@@YGXPAUEVENT@@@Z@4JA
  000b5	83 c2 08	 add	 edx, 8
  000b8	52		 push	 edx
  000b9	68 00 00 00 00	 push	 OFFSET ??_C@_0EP@FDMFLHHH@c?3?2users?2nhv90?2projects?2eech?2ap@
  000be	a1 00 00 00 00	 mov	 eax, DWORD PTR ?null_entity_pointer_message@@3PBDB ; null_entity_pointer_message
  000c3	50		 push	 eax
  000c4	e8 00 00 00 00	 call	 ?process_assert@@YGXPBD0H@Z ; process_assert
  000c9	c7 45 b8 00 00
	00 00		 mov	 DWORD PTR tv91[ebp], 0
$LN8@toggle_nav:
  000d0	b9 01 00 00 00	 mov	 ecx, 1
  000d5	85 c9		 test	 ecx, ecx
  000d7	74 09		 je	 SHORT $LN9@toggle_nav
  000d9	c7 45 b4 7a 00
	00 00		 mov	 DWORD PTR tv131[ebp], 122 ; 0000007aH
  000e0	eb 21		 jmp	 SHORT $LN10@toggle_nav
$LN9@toggle_nav:
  000e2	8b 15 00 00 00
	00		 mov	 edx, DWORD PTR ?__LINE__Var@?0??toggle_navigation_lights_event@@YGXPAUEVENT@@@Z@4JA
  000e8	83 c2 08	 add	 edx, 8
  000eb	52		 push	 edx
  000ec	68 00 00 00 00	 push	 OFFSET ??_C@_0EP@FDMFLHHH@c?3?2users?2nhv90?2projects?2eech?2ap@
  000f1	a1 00 00 00 00	 mov	 eax, DWORD PTR ?overload_invalid_int_type_message@@3PBDB ; overload_invalid_int_type_message
  000f6	50		 push	 eax
  000f7	e8 00 00 00 00	 call	 ?process_assert@@YGXPBD0H@Z ; process_assert
  000fc	c7 45 b4 00 00
	00 00		 mov	 DWORD PTR tv131[ebp], 0
$LN10@toggle_nav:
  00103	8b 4d fc	 mov	 ecx, DWORD PTR _status$[ebp]
  00106	51		 push	 ecx
  00107	6a 7a		 push	 122			; 0000007aH
  00109	8b 15 00 00 00
	00		 mov	 edx, DWORD PTR ?gunship_entity@@3PAUENTITY@@A ; gunship_entity
  0010f	52		 push	 edx
  00110	69 45 b8 b8 08
	00 00		 imul	 eax, DWORD PTR tv91[ebp], 2232
  00117	8b 4d b4	 mov	 ecx, DWORD PTR tv131[ebp]
  0011a	8d 94 c8 00 00
	00 00		 lea	 edx, DWORD PTR ?fn_set_client_server_entity_int_value@@3PAY1BBH@1P6GXPAUENTITY@@W4INT_TYPES@@H@ZA[eax+ecx*8]
  00121	a1 00 00 00 00	 mov	 eax, DWORD PTR ?system_comms_model@@3W4COMMS_MODEL_TYPES@@A ; system_comms_model
  00126	8b 0c 82	 mov	 ecx, DWORD PTR [edx+eax*4]
  00129	ff d1		 call	 ecx

; 650  : }

  0012b	5f		 pop	 edi
  0012c	5e		 pop	 esi
  0012d	5b		 pop	 ebx
  0012e	8b e5		 mov	 esp, ebp
  00130	5d		 pop	 ebp
  00131	c2 04 00	 ret	 4
?toggle_navigation_lights_event@@YGXPAUEVENT@@@Z ENDP	; toggle_navigation_lights_event
_TEXT	ENDS
; Function compile flags: /Odtp /ZI
; File c:\users\nhv90\projects\eech\aphavoc\source\gunships\avionics\havoc\ha_avevn.c
;	COMDAT ?clear_hud_bob_up_overlay_event@@YGXPAUEVENT@@@Z
_TEXT	SEGMENT
_ev$ = 8						; size = 4
?clear_hud_bob_up_overlay_event@@YGXPAUEVENT@@@Z PROC	; clear_hud_bob_up_overlay_event, COMDAT

; 632  : {

  00000	55		 push	 ebp
  00001	8b ec		 mov	 ebp, esp
  00003	83 ec 40	 sub	 esp, 64			; 00000040H
  00006	53		 push	 ebx
  00007	56		 push	 esi
  00008	57		 push	 edi

; 633  : 	clear_hud_bob_up_overlay ();

  00009	e8 00 00 00 00	 call	 ?clear_hud_bob_up_overlay@@YGXXZ ; clear_hud_bob_up_overlay

; 634  : }

  0000e	5f		 pop	 edi
  0000f	5e		 pop	 esi
  00010	5b		 pop	 ebx
  00011	8b e5		 mov	 esp, ebp
  00013	5d		 pop	 ebp
  00014	c2 04 00	 ret	 4
?clear_hud_bob_up_overlay_event@@YGXPAUEVENT@@@Z ENDP	; clear_hud_bob_up_overlay_event
_TEXT	ENDS
; Function compile flags: /Odtp /ZI
; File c:\users\nhv90\projects\eech\aphavoc\source\gunships\avionics\havoc\ha_avevn.c
;	COMDAT ?set_hud_bob_up_overlay_event@@YGXPAUEVENT@@@Z
_TEXT	SEGMENT
_ev$ = 8						; size = 4
?set_hud_bob_up_overlay_event@@YGXPAUEVENT@@@Z PROC	; set_hud_bob_up_overlay_event, COMDAT

; 623  : {

  00000	55		 push	 ebp
  00001	8b ec		 mov	 ebp, esp
  00003	83 ec 40	 sub	 esp, 64			; 00000040H
  00006	53		 push	 ebx
  00007	56		 push	 esi
  00008	57		 push	 edi

; 624  : 	set_hud_bob_up_overlay ();

  00009	e8 00 00 00 00	 call	 ?set_hud_bob_up_overlay@@YGXXZ ; set_hud_bob_up_overlay

; 625  : }

  0000e	5f		 pop	 edi
  0000f	5e		 pop	 esi
  00010	5b		 pop	 ebx
  00011	8b e5		 mov	 esp, ebp
  00013	5d		 pop	 ebp
  00014	c2 04 00	 ret	 4
?set_hud_bob_up_overlay_event@@YGXPAUEVENT@@@Z ENDP	; set_hud_bob_up_overlay_event
_TEXT	ENDS
; Function compile flags: /Odtp /ZI
; File c:\users\nhv90\projects\eech\aphavoc\source\gunships\avionics\havoc\ha_avevn.c
;	COMDAT ?toggle_infra_red_jammer_event@@YGXPAUEVENT@@@Z
_TEXT	SEGMENT
_ev$ = 8						; size = 4
?toggle_infra_red_jammer_event@@YGXPAUEVENT@@@Z PROC	; toggle_infra_red_jammer_event, COMDAT

; 614  : {

  00000	55		 push	 ebp
  00001	8b ec		 mov	 ebp, esp
  00003	83 ec 40	 sub	 esp, 64			; 00000040H
  00006	53		 push	 ebx
  00007	56		 push	 esi
  00008	57		 push	 edi

; 615  : 	toggle_havoc_infra_red_jammer_manual ();

  00009	e8 00 00 00 00	 call	 ?toggle_havoc_infra_red_jammer_manual@@YGXXZ ; toggle_havoc_infra_red_jammer_manual

; 616  : }

  0000e	5f		 pop	 edi
  0000f	5e		 pop	 esi
  00010	5b		 pop	 ebx
  00011	8b e5		 mov	 esp, ebp
  00013	5d		 pop	 ebp
  00014	c2 04 00	 ret	 4
?toggle_infra_red_jammer_event@@YGXPAUEVENT@@@Z ENDP	; toggle_infra_red_jammer_event
_TEXT	ENDS
; Function compile flags: /Odtp /ZI
; File c:\users\nhv90\projects\eech\aphavoc\source\gunships\avionics\havoc\ha_avevn.c
;	COMDAT ?toggle_mfd_on_off_event@@YGXPAUEVENT@@@Z
_TEXT	SEGMENT
_ev$ = 8						; size = 4
?toggle_mfd_on_off_event@@YGXPAUEVENT@@@Z PROC		; toggle_mfd_on_off_event, COMDAT

; 602  : {

  00000	55		 push	 ebp
  00001	8b ec		 mov	 ebp, esp
  00003	83 ec 40	 sub	 esp, 64			; 00000040H
  00006	53		 push	 ebx
  00007	56		 push	 esi
  00008	57		 push	 edi

; 603  : 	if (get_havoc_mfd_mode () == MFD_MODE_OFF)

  00009	e8 00 00 00 00	 call	 ?get_havoc_mfd_mode@@YG?AW4MFD_MODES@@XZ ; get_havoc_mfd_mode
  0000e	85 c0		 test	 eax, eax
  00010	75 07		 jne	 SHORT $LN2@toggle_mfd

; 604  : 		select_next_havoc_mfd_mode ();

  00012	e8 00 00 00 00	 call	 ?select_next_havoc_mfd_mode@@YGXXZ ; select_next_havoc_mfd_mode

; 605  : 	else

  00017	eb 07		 jmp	 SHORT $LN1@toggle_mfd
$LN2@toggle_mfd:

; 606  : 		select_havoc_mfd_mode (MFD_MODE_OFF);

  00019	6a 00		 push	 0
  0001b	e8 00 00 00 00	 call	 ?select_havoc_mfd_mode@@YGXW4MFD_MODES@@@Z ; select_havoc_mfd_mode
$LN1@toggle_mfd:

; 607  : }

  00020	5f		 pop	 edi
  00021	5e		 pop	 esi
  00022	5b		 pop	 ebx
  00023	8b e5		 mov	 esp, ebp
  00025	5d		 pop	 ebp
  00026	c2 04 00	 ret	 4
?toggle_mfd_on_off_event@@YGXPAUEVENT@@@Z ENDP		; toggle_mfd_on_off_event
_TEXT	ENDS
; Function compile flags: /Odtp /ZI
; File c:\users\nhv90\projects\eech\aphavoc\source\gunships\avionics\havoc\ha_avevn.c
;	COMDAT ?select_next_mfd_event@@YGXPAUEVENT@@@Z
_TEXT	SEGMENT
_ev$ = 8						; size = 4
?select_next_mfd_event@@YGXPAUEVENT@@@Z PROC		; select_next_mfd_event, COMDAT

; 597  : {

  00000	55		 push	 ebp
  00001	8b ec		 mov	 ebp, esp
  00003	83 ec 40	 sub	 esp, 64			; 00000040H
  00006	53		 push	 ebx
  00007	56		 push	 esi
  00008	57		 push	 edi

; 598  : 	select_next_havoc_mfd_mode ();

  00009	e8 00 00 00 00	 call	 ?select_next_havoc_mfd_mode@@YGXXZ ; select_next_havoc_mfd_mode

; 599  : }

  0000e	5f		 pop	 edi
  0000f	5e		 pop	 esi
  00010	5b		 pop	 ebx
  00011	8b e5		 mov	 esp, ebp
  00013	5d		 pop	 ebp
  00014	c2 04 00	 ret	 4
?select_next_mfd_event@@YGXPAUEVENT@@@Z ENDP		; select_next_mfd_event
_TEXT	ENDS
; Function compile flags: /Odtp /ZI
; File c:\users\nhv90\projects\eech\aphavoc\source\gunships\avionics\havoc\ha_avevn.c
;	COMDAT ?toggle_radar_jammer_event@@YGXPAUEVENT@@@Z
_TEXT	SEGMENT
_ev$ = 8						; size = 4
?toggle_radar_jammer_event@@YGXPAUEVENT@@@Z PROC	; toggle_radar_jammer_event, COMDAT

; 592  : {

  00000	55		 push	 ebp
  00001	8b ec		 mov	 ebp, esp
  00003	83 ec 40	 sub	 esp, 64			; 00000040H
  00006	53		 push	 ebx
  00007	56		 push	 esi
  00008	57		 push	 edi

; 593  : 	toggle_havoc_radar_jammer_manual ();

  00009	e8 00 00 00 00	 call	 ?toggle_havoc_radar_jammer_manual@@YGXXZ ; toggle_havoc_radar_jammer_manual

; 594  : }

  0000e	5f		 pop	 edi
  0000f	5e		 pop	 esi
  00010	5b		 pop	 ebx
  00011	8b e5		 mov	 esp, ebp
  00013	5d		 pop	 ebp
  00014	c2 04 00	 ret	 4
?toggle_radar_jammer_event@@YGXPAUEVENT@@@Z ENDP	; toggle_radar_jammer_event
_TEXT	ENDS
; Function compile flags: /Odtp /ZI
; File c:\users\nhv90\projects\eech\aphavoc\source\gunships\avionics\havoc\ha_avevn.c
;	COMDAT ?select_cannon_event@@YGXPAUEVENT@@@Z
_TEXT	SEGMENT
_ev$ = 8						; size = 4
?select_cannon_event@@YGXPAUEVENT@@@Z PROC		; select_cannon_event, COMDAT

; 576  : {

  00000	55		 push	 ebp
  00001	8b ec		 mov	 ebp, esp
  00003	83 ec 40	 sub	 esp, 64			; 00000040H
  00006	53		 push	 ebx
  00007	56		 push	 esi
  00008	57		 push	 edi

; 577  : 	if (get_local_entity_weapon_available (get_gunship_entity (), ENTITY_SUB_TYPE_WEAPON_2A42_30MM_HE_ROUND))

  00009	6a 13		 push	 19			; 00000013H
  0000b	a1 00 00 00 00	 mov	 eax, DWORD PTR ?gunship_entity@@3PAUENTITY@@A ; gunship_entity
  00010	50		 push	 eax
  00011	e8 00 00 00 00	 call	 ?get_local_entity_weapon_available@@YGHPAUENTITY@@H@Z ; get_local_entity_weapon_available
  00016	85 c0		 test	 eax, eax
  00018	74 09		 je	 SHORT $LN2@select_can

; 578  : 	{
; 579  : 		set_gunship_weapon (ENTITY_SUB_TYPE_WEAPON_2A42_30MM_HE_ROUND);

  0001a	6a 13		 push	 19			; 00000013H
  0001c	e8 00 00 00 00	 call	 ?set_gunship_weapon@@YGXH@Z ; set_gunship_weapon
  00021	eb 18		 jmp	 SHORT $LN1@select_can
$LN2@select_can:

; 580  : 	}
; 581  : 	else if (get_local_entity_weapon_available (get_gunship_entity (), ENTITY_SUB_TYPE_WEAPON_2A42_30MM_AP_ROUND))

  00023	6a 14		 push	 20			; 00000014H
  00025	a1 00 00 00 00	 mov	 eax, DWORD PTR ?gunship_entity@@3PAUENTITY@@A ; gunship_entity
  0002a	50		 push	 eax
  0002b	e8 00 00 00 00	 call	 ?get_local_entity_weapon_available@@YGHPAUENTITY@@H@Z ; get_local_entity_weapon_available
  00030	85 c0		 test	 eax, eax
  00032	74 07		 je	 SHORT $LN1@select_can

; 582  : 	{
; 583  : 		set_gunship_weapon (ENTITY_SUB_TYPE_WEAPON_2A42_30MM_AP_ROUND);

  00034	6a 14		 push	 20			; 00000014H
  00036	e8 00 00 00 00	 call	 ?set_gunship_weapon@@YGXH@Z ; set_gunship_weapon
$LN1@select_can:

; 584  : 	}
; 585  : }

  0003b	5f		 pop	 edi
  0003c	5e		 pop	 esi
  0003d	5b		 pop	 ebx
  0003e	8b e5		 mov	 esp, ebp
  00040	5d		 pop	 ebp
  00041	c2 04 00	 ret	 4
?select_cannon_event@@YGXPAUEVENT@@@Z ENDP		; select_cannon_event
_TEXT	ENDS
; Function compile flags: /Odtp /ZI
; File c:\users\nhv90\projects\eech\aphavoc\source\gunships\avionics\havoc\ha_avevn.c
;	COMDAT ?virtual_cockpit_track_target_event@@YGXPAUEVENT@@@Z
_TEXT	SEGMENT
_ev$ = 8						; size = 4
?virtual_cockpit_track_target_event@@YGXPAUEVENT@@@Z PROC ; virtual_cockpit_track_target_event, COMDAT

; 552  : {

  00000	55		 push	 ebp
  00001	8b ec		 mov	 ebp, esp
  00003	83 ec 40	 sub	 esp, 64			; 00000040H
  00006	53		 push	 ebx
  00007	56		 push	 esi
  00008	57		 push	 edi

; 553  : 	ASSERT (ev);

  00009	83 7d 08 00	 cmp	 DWORD PTR _ev$[ebp], 0
  0000d	75 18		 jne	 SHORT $LN2@virtual_co
  0000f	a1 00 00 00 00	 mov	 eax, DWORD PTR ?__LINE__Var@?0??virtual_cockpit_track_target_event@@YGXPAUEVENT@@@Z@4JA
  00014	83 c0 01	 add	 eax, 1
  00017	50		 push	 eax
  00018	68 00 00 00 00	 push	 OFFSET ??_C@_0EP@FDMFLHHH@c?3?2users?2nhv90?2projects?2eech?2ap@
  0001d	68 00 00 00 00	 push	 OFFSET ??_C@_02DHMHPBFG@ev@
  00022	e8 00 00 00 00	 call	 ?process_assert@@YGXPBD0H@Z ; process_assert
$LN2@virtual_co:

; 554  : 
; 555  : 	if ((ev->key == DIK_1) || (get_view_mode () != VIEW_MODE_VIRTUAL_COCKPIT_TRACK_TARGET))

  00027	8b 45 08	 mov	 eax, DWORD PTR _ev$[ebp]
  0002a	0f b6 48 06	 movzx	 ecx, BYTE PTR [eax+6]
  0002e	83 f9 02	 cmp	 ecx, 2
  00031	74 09		 je	 SHORT $LN5@virtual_co
  00033	83 3d 00 00 00
	00 22		 cmp	 DWORD PTR ?view_mode@@3W4VIEW_MODES@@A, 34 ; view_mode, 00000022H
  0003a	74 14		 je	 SHORT $LN3@virtual_co
$LN5@virtual_co:

; 556  : 	{
; 557  : 		if (set_view_mode (VIEW_MODE_VIRTUAL_COCKPIT_TRACK_TARGET))

  0003c	6a 22		 push	 34			; 00000022H
  0003e	e8 00 00 00 00	 call	 ?set_view_mode@@YGHW4VIEW_MODES@@@Z ; set_view_mode
  00043	85 c0		 test	 eax, eax
  00045	74 07		 je	 SHORT $LN6@virtual_co

; 558  : 		{
; 559  : 			set_havoc_lock_target (TRUE);

  00047	6a 01		 push	 1
  00049	e8 00 00 00 00	 call	 ?set_havoc_lock_target@@YGXH@Z ; set_havoc_lock_target
$LN6@virtual_co:

; 560  : 		}
; 561  : 	}
; 562  : 	else

  0004e	eb 10		 jmp	 SHORT $LN1@virtual_co
$LN3@virtual_co:

; 563  : 	{
; 564  : 		if (get_view_mode () == VIEW_MODE_VIRTUAL_COCKPIT_TRACK_TARGET)

  00050	83 3d 00 00 00
	00 22		 cmp	 DWORD PTR ?view_mode@@3W4VIEW_MODES@@A, 34 ; view_mode, 00000022H
  00057	75 07		 jne	 SHORT $LN1@virtual_co

; 565  : 		{
; 566  : 			select_padlock_view_event (PADLOCK_MODE_NONE);

  00059	6a 00		 push	 0
  0005b	e8 00 00 00 00	 call	 ?select_padlock_view_event@@YGXW4PADLOCK_MODES@@@Z ; select_padlock_view_event
$LN1@virtual_co:

; 567  : 		}
; 568  : 	}
; 569  : }

  00060	5f		 pop	 edi
  00061	5e		 pop	 esi
  00062	5b		 pop	 ebx
  00063	8b e5		 mov	 esp, ebp
  00065	5d		 pop	 ebp
  00066	c2 04 00	 ret	 4
?virtual_cockpit_track_target_event@@YGXPAUEVENT@@@Z ENDP ; virtual_cockpit_track_target_event
_TEXT	ENDS
; Function compile flags: /Odtp /ZI
; File c:\users\nhv90\projects\eech\aphavoc\source\gunships\avionics\havoc\ha_avevn.c
;	COMDAT ?toggle_night_vision_system_event@@YGXPAUEVENT@@@Z
_TEXT	SEGMENT
_ev$ = 8						; size = 4
?toggle_night_vision_system_event@@YGXPAUEVENT@@@Z PROC	; toggle_night_vision_system_event, COMDAT

; 536  : {

  00000	55		 push	 ebp
  00001	8b ec		 mov	 ebp, esp
  00003	83 ec 40	 sub	 esp, 64			; 00000040H
  00006	53		 push	 ebx
  00007	56		 push	 esi
  00008	57		 push	 edi

; 537  : 	if (!havoc_damage.night_vision_goggles)

  00009	a1 00 00 00 00	 mov	 eax, DWORD PTR ?havoc_damage@@3THAVOC_DAMAGE_FLAGS@@A ; havoc_damage
  0000e	c1 e8 15	 shr	 eax, 21			; 00000015H
  00011	83 e0 01	 and	 eax, 1
  00014	75 0f		 jne	 SHORT $LN2@toggle_nig

; 538  : 	{
; 539  : 		night_vision_system_active ^= 1;

  00016	a1 00 00 00 00	 mov	 eax, DWORD PTR ?night_vision_system_active@@3HA ; night_vision_system_active
  0001b	83 f0 01	 xor	 eax, 1
  0001e	a3 00 00 00 00	 mov	 DWORD PTR ?night_vision_system_active@@3HA, eax ; night_vision_system_active

; 540  : 	}
; 541  : 	else

  00023	eb 39		 jmp	 SHORT $LN3@toggle_nig
$LN2@toggle_nig:

; 542  : 	{
; 543  : 		play_client_server_cpg_message (get_gunship_entity (), 0.5, 1.0, SPEECH_CATEGORY_CPG_SYSTEMS, 1.0, SPEECH_CPG_NIGHT_VISION_GOGGLES_DAMAGED);

  00025	6a 1d		 push	 29			; 0000001dH
  00027	51		 push	 ecx
  00028	f3 0f 10 05 00
	00 00 00	 movss	 xmm0, DWORD PTR __real@3f800000
  00030	f3 0f 11 04 24	 movss	 DWORD PTR [esp], xmm0
  00035	6a 04		 push	 4
  00037	51		 push	 ecx
  00038	f3 0f 10 05 00
	00 00 00	 movss	 xmm0, DWORD PTR __real@3f800000
  00040	f3 0f 11 04 24	 movss	 DWORD PTR [esp], xmm0
  00045	51		 push	 ecx
  00046	f3 0f 10 05 00
	00 00 00	 movss	 xmm0, DWORD PTR __real@3f000000
  0004e	f3 0f 11 04 24	 movss	 DWORD PTR [esp], xmm0
  00053	a1 00 00 00 00	 mov	 eax, DWORD PTR ?gunship_entity@@3PAUENTITY@@A ; gunship_entity
  00058	50		 push	 eax
  00059	e8 00 00 00 00	 call	 ?play_client_server_cpg_message@@YGHPAUENTITY@@MMHMH@Z ; play_client_server_cpg_message
$LN3@toggle_nig:

; 544  : 	}
; 545  : }

  0005e	5f		 pop	 edi
  0005f	5e		 pop	 esi
  00060	5b		 pop	 ebx
  00061	8b e5		 mov	 esp, ebp
  00063	5d		 pop	 ebp
  00064	c2 04 00	 ret	 4
?toggle_night_vision_system_event@@YGXPAUEVENT@@@Z ENDP	; toggle_night_vision_system_event
_TEXT	ENDS
; Function compile flags: /Odtp /ZI
; File c:\users\nhv90\projects\eech\aphavoc\source\gunships\avionics\havoc\ha_avevn.c
;	COMDAT ?acknowledge_master_caution_event@@YGXPAUEVENT@@@Z
_TEXT	SEGMENT
_ev$ = 8						; size = 4
?acknowledge_master_caution_event@@YGXPAUEVENT@@@Z PROC	; acknowledge_master_caution_event, COMDAT

; 527  : {

  00000	55		 push	 ebp
  00001	8b ec		 mov	 ebp, esp
  00003	83 ec 40	 sub	 esp, 64			; 00000040H
  00006	53		 push	 ebx
  00007	56		 push	 esi
  00008	57		 push	 edi

; 528  : 	deactivate_havoc_master_caution_lamp ();

  00009	e8 00 00 00 00	 call	 ?deactivate_havoc_master_caution_lamp@@YGXXZ ; deactivate_havoc_master_caution_lamp

; 529  : }

  0000e	5f		 pop	 edi
  0000f	5e		 pop	 esi
  00010	5b		 pop	 ebx
  00011	8b e5		 mov	 esp, ebp
  00013	5d		 pop	 ebp
  00014	c2 04 00	 ret	 4
?acknowledge_master_caution_event@@YGXPAUEVENT@@@Z ENDP	; acknowledge_master_caution_event
_TEXT	ENDS
; Function compile flags: /Odtp /ZI
; File c:\users\nhv90\projects\eech\aphavoc\source\gunships\avionics\havoc\ha_avevn.c
;	COMDAT ?toggle_ground_stabilisation_event@@YGXPAUEVENT@@@Z
_TEXT	SEGMENT
_ev$ = 8						; size = 4
?toggle_ground_stabilisation_event@@YGXPAUEVENT@@@Z PROC ; toggle_ground_stabilisation_event, COMDAT

; 518  : {

  00000	55		 push	 ebp
  00001	8b ec		 mov	 ebp, esp
  00003	83 ec 40	 sub	 esp, 64			; 00000040H
  00006	53		 push	 ebx
  00007	56		 push	 esi
  00008	57		 push	 edi

; 519  : 	toggle_ground_stabilisation_key++;

  00009	a1 00 00 00 00	 mov	 eax, DWORD PTR ?toggle_ground_stabilisation_key@@3HA ; toggle_ground_stabilisation_key
  0000e	83 c0 01	 add	 eax, 1
  00011	a3 00 00 00 00	 mov	 DWORD PTR ?toggle_ground_stabilisation_key@@3HA, eax ; toggle_ground_stabilisation_key

; 520  : }

  00016	5f		 pop	 edi
  00017	5e		 pop	 esi
  00018	5b		 pop	 ebx
  00019	8b e5		 mov	 esp, ebp
  0001b	5d		 pop	 ebp
  0001c	c2 04 00	 ret	 4
?toggle_ground_stabilisation_event@@YGXPAUEVENT@@@Z ENDP ; toggle_ground_stabilisation_event
_TEXT	ENDS
; Function compile flags: /Odtp /ZI
; File c:\users\nhv90\projects\eech\aphavoc\source\gunships\avionics\havoc\ha_avevn.c
;	COMDAT ?target_acquisition_system_misc_function2_event@@YGXPAUEVENT@@@Z
_TEXT	SEGMENT
_ev$ = 8						; size = 4
?target_acquisition_system_misc_function2_event@@YGXPAUEVENT@@@Z PROC ; target_acquisition_system_misc_function2_event, COMDAT

; 509  : {

  00000	55		 push	 ebp
  00001	8b ec		 mov	 ebp, esp
  00003	83 ec 40	 sub	 esp, 64			; 00000040H
  00006	53		 push	 ebx
  00007	56		 push	 esi
  00008	57		 push	 edi

; 510  : 	havoc_target_acquisition_system_misc_function2 ();

  00009	e8 00 00 00 00	 call	 ?havoc_target_acquisition_system_misc_function2@@YGXXZ ; havoc_target_acquisition_system_misc_function2

; 511  : }

  0000e	5f		 pop	 edi
  0000f	5e		 pop	 esi
  00010	5b		 pop	 ebx
  00011	8b e5		 mov	 esp, ebp
  00013	5d		 pop	 ebp
  00014	c2 04 00	 ret	 4
?target_acquisition_system_misc_function2_event@@YGXPAUEVENT@@@Z ENDP ; target_acquisition_system_misc_function2_event
_TEXT	ENDS
; Function compile flags: /Odtp /ZI
; File c:\users\nhv90\projects\eech\aphavoc\source\gunships\avionics\havoc\ha_avevn.c
;	COMDAT ?target_acquisition_system_misc_function1_event@@YGXPAUEVENT@@@Z
_TEXT	SEGMENT
_ev$ = 8						; size = 4
?target_acquisition_system_misc_function1_event@@YGXPAUEVENT@@@Z PROC ; target_acquisition_system_misc_function1_event, COMDAT

; 500  : {

  00000	55		 push	 ebp
  00001	8b ec		 mov	 ebp, esp
  00003	83 ec 40	 sub	 esp, 64			; 00000040H
  00006	53		 push	 ebx
  00007	56		 push	 esi
  00008	57		 push	 edi

; 501  : 	havoc_target_acquisition_system_misc_function1 ();

  00009	e8 00 00 00 00	 call	 ?havoc_target_acquisition_system_misc_function1@@YGXXZ ; havoc_target_acquisition_system_misc_function1

; 502  : }

  0000e	5f		 pop	 edi
  0000f	5e		 pop	 esi
  00010	5b		 pop	 ebx
  00011	8b e5		 mov	 esp, ebp
  00013	5d		 pop	 ebp
  00014	c2 04 00	 ret	 4
?target_acquisition_system_misc_function1_event@@YGXPAUEVENT@@@Z ENDP ; target_acquisition_system_misc_function1_event
_TEXT	ENDS
; Function compile flags: /Odtp /ZI
; File c:\users\nhv90\projects\eech\aphavoc\source\gunships\avionics\havoc\ha_avevn.c
;	COMDAT ?toggle_lock_target_event@@YGXPAUEVENT@@@Z
_TEXT	SEGMENT
_ev$ = 8						; size = 4
?toggle_lock_target_event@@YGXPAUEVENT@@@Z PROC		; toggle_lock_target_event, COMDAT

; 491  : {

  00000	55		 push	 ebp
  00001	8b ec		 mov	 ebp, esp
  00003	83 ec 40	 sub	 esp, 64			; 00000040H
  00006	53		 push	 ebx
  00007	56		 push	 esi
  00008	57		 push	 edi

; 492  : 	toggle_havoc_lock_target ();

  00009	e8 00 00 00 00	 call	 ?toggle_havoc_lock_target@@YGXXZ ; toggle_havoc_lock_target

; 493  : }

  0000e	5f		 pop	 edi
  0000f	5e		 pop	 esi
  00010	5b		 pop	 ebx
  00011	8b e5		 mov	 esp, ebp
  00013	5d		 pop	 ebp
  00014	c2 04 00	 ret	 4
?toggle_lock_target_event@@YGXPAUEVENT@@@Z ENDP		; toggle_lock_target_event
_TEXT	ENDS
; Function compile flags: /Odtp /ZI
; File c:\users\nhv90\projects\eech\aphavoc\source\gunships\avionics\havoc\ha_avevn.c
;	COMDAT ?toggle_auto_target_event@@YGXPAUEVENT@@@Z
_TEXT	SEGMENT
_ev$ = 8						; size = 4
?toggle_auto_target_event@@YGXPAUEVENT@@@Z PROC		; toggle_auto_target_event, COMDAT

; 482  : {

  00000	55		 push	 ebp
  00001	8b ec		 mov	 ebp, esp
  00003	83 ec 40	 sub	 esp, 64			; 00000040H
  00006	53		 push	 ebx
  00007	56		 push	 esi
  00008	57		 push	 edi

; 483  : 	toggle_havoc_auto_target ();

  00009	e8 00 00 00 00	 call	 ?toggle_havoc_auto_target@@YGXXZ ; toggle_havoc_auto_target

; 484  : }

  0000e	5f		 pop	 edi
  0000f	5e		 pop	 esi
  00010	5b		 pop	 ebx
  00011	8b e5		 mov	 esp, ebp
  00013	5d		 pop	 ebp
  00014	c2 04 00	 ret	 4
?toggle_auto_target_event@@YGXPAUEVENT@@@Z ENDP		; toggle_auto_target_event
_TEXT	ENDS
; Function compile flags: /Odtp /ZI
; File c:\users\nhv90\projects\eech\aphavoc\source\gunships\avionics\havoc\ha_avevn.c
;	COMDAT ?select_previous_target_event@@YGXPAUEVENT@@@Z
_TEXT	SEGMENT
_ev$ = 8						; size = 4
?select_previous_target_event@@YGXPAUEVENT@@@Z PROC	; select_previous_target_event, COMDAT

; 473  : {

  00000	55		 push	 ebp
  00001	8b ec		 mov	 ebp, esp
  00003	83 ec 40	 sub	 esp, 64			; 00000040H
  00006	53		 push	 ebx
  00007	56		 push	 esi
  00008	57		 push	 edi

; 474  : 	single_target_acquisition_system_select_previous_target_key++;

  00009	a1 00 00 00 00	 mov	 eax, DWORD PTR ?single_target_acquisition_system_select_previous_target_key@@3HA ; single_target_acquisition_system_select_previous_target_key
  0000e	83 c0 01	 add	 eax, 1
  00011	a3 00 00 00 00	 mov	 DWORD PTR ?single_target_acquisition_system_select_previous_target_key@@3HA, eax ; single_target_acquisition_system_select_previous_target_key

; 475  : }

  00016	5f		 pop	 edi
  00017	5e		 pop	 esi
  00018	5b		 pop	 ebx
  00019	8b e5		 mov	 esp, ebp
  0001b	5d		 pop	 ebp
  0001c	c2 04 00	 ret	 4
?select_previous_target_event@@YGXPAUEVENT@@@Z ENDP	; select_previous_target_event
_TEXT	ENDS
; Function compile flags: /Odtp /ZI
; File c:\users\nhv90\projects\eech\aphavoc\source\gunships\avionics\havoc\ha_avevn.c
;	COMDAT ?select_next_target_event@@YGXPAUEVENT@@@Z
_TEXT	SEGMENT
_ev$ = 8						; size = 4
?select_next_target_event@@YGXPAUEVENT@@@Z PROC		; select_next_target_event, COMDAT

; 464  : {

  00000	55		 push	 ebp
  00001	8b ec		 mov	 ebp, esp
  00003	83 ec 40	 sub	 esp, 64			; 00000040H
  00006	53		 push	 ebx
  00007	56		 push	 esi
  00008	57		 push	 edi

; 465  : 	single_target_acquisition_system_select_next_target_key++;

  00009	a1 00 00 00 00	 mov	 eax, DWORD PTR ?single_target_acquisition_system_select_next_target_key@@3HA ; single_target_acquisition_system_select_next_target_key
  0000e	83 c0 01	 add	 eax, 1
  00011	a3 00 00 00 00	 mov	 DWORD PTR ?single_target_acquisition_system_select_next_target_key@@3HA, eax ; single_target_acquisition_system_select_next_target_key

; 466  : }

  00016	5f		 pop	 edi
  00017	5e		 pop	 esi
  00018	5b		 pop	 ebx
  00019	8b e5		 mov	 esp, ebp
  0001b	5d		 pop	 ebp
  0001c	c2 04 00	 ret	 4
?select_next_target_event@@YGXPAUEVENT@@@Z ENDP		; select_next_target_event
_TEXT	ENDS
; Function compile flags: /Odtp /ZI
; File c:\users\nhv90\projects\eech\aphavoc\source\gunships\avionics\havoc\ha_avevn.c
;	COMDAT ?dec_target_priority_fast_event@@YGXPAUEVENT@@@Z
_TEXT	SEGMENT
_ev$ = 8						; size = 4
?dec_target_priority_fast_event@@YGXPAUEVENT@@@Z PROC	; dec_target_priority_fast_event, COMDAT

; 455  : {

  00000	55		 push	 ebp
  00001	8b ec		 mov	 ebp, esp
  00003	83 ec 40	 sub	 esp, 64			; 00000040H
  00006	53		 push	 ebx
  00007	56		 push	 esi
  00008	57		 push	 edi

; 456  : 	single_target_acquisition_system_dec_target_priority_fast_key++;

  00009	a1 00 00 00 00	 mov	 eax, DWORD PTR ?single_target_acquisition_system_dec_target_priority_fast_key@@3HA ; single_target_acquisition_system_dec_target_priority_fast_key
  0000e	83 c0 01	 add	 eax, 1
  00011	a3 00 00 00 00	 mov	 DWORD PTR ?single_target_acquisition_system_dec_target_priority_fast_key@@3HA, eax ; single_target_acquisition_system_dec_target_priority_fast_key

; 457  : }

  00016	5f		 pop	 edi
  00017	5e		 pop	 esi
  00018	5b		 pop	 ebx
  00019	8b e5		 mov	 esp, ebp
  0001b	5d		 pop	 ebp
  0001c	c2 04 00	 ret	 4
?dec_target_priority_fast_event@@YGXPAUEVENT@@@Z ENDP	; dec_target_priority_fast_event
_TEXT	ENDS
; Function compile flags: /Odtp /ZI
; File c:\users\nhv90\projects\eech\aphavoc\source\gunships\avionics\havoc\ha_avevn.c
;	COMDAT ?dec_target_priority_event@@YGXPAUEVENT@@@Z
_TEXT	SEGMENT
_ev$ = 8						; size = 4
?dec_target_priority_event@@YGXPAUEVENT@@@Z PROC	; dec_target_priority_event, COMDAT

; 446  : {

  00000	55		 push	 ebp
  00001	8b ec		 mov	 ebp, esp
  00003	83 ec 40	 sub	 esp, 64			; 00000040H
  00006	53		 push	 ebx
  00007	56		 push	 esi
  00008	57		 push	 edi

; 447  : 	single_target_acquisition_system_dec_target_priority_key++;

  00009	a1 00 00 00 00	 mov	 eax, DWORD PTR ?single_target_acquisition_system_dec_target_priority_key@@3HA ; single_target_acquisition_system_dec_target_priority_key
  0000e	83 c0 01	 add	 eax, 1
  00011	a3 00 00 00 00	 mov	 DWORD PTR ?single_target_acquisition_system_dec_target_priority_key@@3HA, eax ; single_target_acquisition_system_dec_target_priority_key

; 448  : }

  00016	5f		 pop	 edi
  00017	5e		 pop	 esi
  00018	5b		 pop	 ebx
  00019	8b e5		 mov	 esp, ebp
  0001b	5d		 pop	 ebp
  0001c	c2 04 00	 ret	 4
?dec_target_priority_event@@YGXPAUEVENT@@@Z ENDP	; dec_target_priority_event
_TEXT	ENDS
; Function compile flags: /Odtp /ZI
; File c:\users\nhv90\projects\eech\aphavoc\source\gunships\avionics\havoc\ha_avevn.c
;	COMDAT ?inc_target_priority_fast_event@@YGXPAUEVENT@@@Z
_TEXT	SEGMENT
_ev$ = 8						; size = 4
?inc_target_priority_fast_event@@YGXPAUEVENT@@@Z PROC	; inc_target_priority_fast_event, COMDAT

; 437  : {

  00000	55		 push	 ebp
  00001	8b ec		 mov	 ebp, esp
  00003	83 ec 40	 sub	 esp, 64			; 00000040H
  00006	53		 push	 ebx
  00007	56		 push	 esi
  00008	57		 push	 edi

; 438  : 	single_target_acquisition_system_inc_target_priority_fast_key++;

  00009	a1 00 00 00 00	 mov	 eax, DWORD PTR ?single_target_acquisition_system_inc_target_priority_fast_key@@3HA ; single_target_acquisition_system_inc_target_priority_fast_key
  0000e	83 c0 01	 add	 eax, 1
  00011	a3 00 00 00 00	 mov	 DWORD PTR ?single_target_acquisition_system_inc_target_priority_fast_key@@3HA, eax ; single_target_acquisition_system_inc_target_priority_fast_key

; 439  : }

  00016	5f		 pop	 edi
  00017	5e		 pop	 esi
  00018	5b		 pop	 ebx
  00019	8b e5		 mov	 esp, ebp
  0001b	5d		 pop	 ebp
  0001c	c2 04 00	 ret	 4
?inc_target_priority_fast_event@@YGXPAUEVENT@@@Z ENDP	; inc_target_priority_fast_event
_TEXT	ENDS
; Function compile flags: /Odtp /ZI
; File c:\users\nhv90\projects\eech\aphavoc\source\gunships\avionics\havoc\ha_avevn.c
;	COMDAT ?inc_target_priority_event@@YGXPAUEVENT@@@Z
_TEXT	SEGMENT
_ev$ = 8						; size = 4
?inc_target_priority_event@@YGXPAUEVENT@@@Z PROC	; inc_target_priority_event, COMDAT

; 428  : {

  00000	55		 push	 ebp
  00001	8b ec		 mov	 ebp, esp
  00003	83 ec 40	 sub	 esp, 64			; 00000040H
  00006	53		 push	 ebx
  00007	56		 push	 esi
  00008	57		 push	 edi

; 429  : 	single_target_acquisition_system_inc_target_priority_key++;

  00009	a1 00 00 00 00	 mov	 eax, DWORD PTR ?single_target_acquisition_system_inc_target_priority_key@@3HA ; single_target_acquisition_system_inc_target_priority_key
  0000e	83 c0 01	 add	 eax, 1
  00011	a3 00 00 00 00	 mov	 DWORD PTR ?single_target_acquisition_system_inc_target_priority_key@@3HA, eax ; single_target_acquisition_system_inc_target_priority_key

; 430  : }

  00016	5f		 pop	 edi
  00017	5e		 pop	 esi
  00018	5b		 pop	 ebx
  00019	8b e5		 mov	 esp, ebp
  0001b	5d		 pop	 ebp
  0001c	c2 04 00	 ret	 4
?inc_target_priority_event@@YGXPAUEVENT@@@Z ENDP	; inc_target_priority_event
_TEXT	ENDS
; Function compile flags: /Odtp /ZI
; File c:\users\nhv90\projects\eech\aphavoc\source\gunships\avionics\havoc\ha_avevn.c
;	COMDAT ?toggle_show_allied_targets_event@@YGXPAUEVENT@@@Z
_TEXT	SEGMENT
_ev$ = 8						; size = 4
?toggle_show_allied_targets_event@@YGXPAUEVENT@@@Z PROC	; toggle_show_allied_targets_event, COMDAT

; 419  : {

  00000	55		 push	 ebp
  00001	8b ec		 mov	 ebp, esp
  00003	83 ec 40	 sub	 esp, 64			; 00000040H
  00006	53		 push	 ebx
  00007	56		 push	 esi
  00008	57		 push	 edi

; 420  : 	toggle_havoc_show_allied_targets ();

  00009	e8 00 00 00 00	 call	 ?toggle_havoc_show_allied_targets@@YGXXZ ; toggle_havoc_show_allied_targets

; 421  : }

  0000e	5f		 pop	 edi
  0000f	5e		 pop	 esi
  00010	5b		 pop	 ebx
  00011	8b e5		 mov	 esp, ebp
  00013	5d		 pop	 ebp
  00014	c2 04 00	 ret	 4
?toggle_show_allied_targets_event@@YGXPAUEVENT@@@Z ENDP	; toggle_show_allied_targets_event
_TEXT	ENDS
; Function compile flags: /Odtp /ZI
; File c:\users\nhv90\projects\eech\aphavoc\source\gunships\avionics\havoc\ha_avevn.c
;	COMDAT ?steer_centre_event@@YGXPAUEVENT@@@Z
_TEXT	SEGMENT
_ev$ = 8						; size = 4
?steer_centre_event@@YGXPAUEVENT@@@Z PROC		; steer_centre_event, COMDAT

; 410  : {

  00000	55		 push	 ebp
  00001	8b ec		 mov	 ebp, esp
  00003	83 ec 40	 sub	 esp, 64			; 00000040H
  00006	53		 push	 ebx
  00007	56		 push	 esi
  00008	57		 push	 edi

; 411  : 	centre_havoc_target_acquisition_system ();

  00009	e8 00 00 00 00	 call	 ?centre_havoc_target_acquisition_system@@YGXXZ ; centre_havoc_target_acquisition_system

; 412  : }

  0000e	5f		 pop	 edi
  0000f	5e		 pop	 esi
  00010	5b		 pop	 ebx
  00011	8b e5		 mov	 esp, ebp
  00013	5d		 pop	 ebp
  00014	c2 04 00	 ret	 4
?steer_centre_event@@YGXPAUEVENT@@@Z ENDP		; steer_centre_event
_TEXT	ENDS
; Function compile flags: /Odtp /ZI
; File c:\users\nhv90\projects\eech\aphavoc\source\gunships\avionics\havoc\ha_avevn.c
;	COMDAT ?dec_range_fast_event@@YGXPAUEVENT@@@Z
_TEXT	SEGMENT
_ev$ = 8						; size = 4
?dec_range_fast_event@@YGXPAUEVENT@@@Z PROC		; dec_range_fast_event, COMDAT

; 401  : {

  00000	55		 push	 ebp
  00001	8b ec		 mov	 ebp, esp
  00003	83 ec 40	 sub	 esp, 64			; 00000040H
  00006	53		 push	 ebx
  00007	56		 push	 esi
  00008	57		 push	 edi

; 402  : 	single_target_acquisition_system_dec_range_fast_key++;

  00009	a1 00 00 00 00	 mov	 eax, DWORD PTR ?single_target_acquisition_system_dec_range_fast_key@@3HA ; single_target_acquisition_system_dec_range_fast_key
  0000e	83 c0 01	 add	 eax, 1
  00011	a3 00 00 00 00	 mov	 DWORD PTR ?single_target_acquisition_system_dec_range_fast_key@@3HA, eax ; single_target_acquisition_system_dec_range_fast_key

; 403  : }

  00016	5f		 pop	 edi
  00017	5e		 pop	 esi
  00018	5b		 pop	 ebx
  00019	8b e5		 mov	 esp, ebp
  0001b	5d		 pop	 ebp
  0001c	c2 04 00	 ret	 4
?dec_range_fast_event@@YGXPAUEVENT@@@Z ENDP		; dec_range_fast_event
_TEXT	ENDS
; Function compile flags: /Odtp /ZI
; File c:\users\nhv90\projects\eech\aphavoc\source\gunships\avionics\havoc\ha_avevn.c
;	COMDAT ?toggle_eo_system_event@@YGXPAUEVENT@@@Z
_TEXT	SEGMENT
_ev$ = 8						; size = 4
?toggle_eo_system_event@@YGXPAUEVENT@@@Z PROC		; toggle_eo_system_event, COMDAT

; 392  : {

  00000	55		 push	 ebp
  00001	8b ec		 mov	 ebp, esp
  00003	83 ec 40	 sub	 esp, 64			; 00000040H
  00006	53		 push	 ebx
  00007	56		 push	 esi
  00008	57		 push	 edi

; 393  : 	toggle_havoc_eo_system();

  00009	e8 00 00 00 00	 call	 ?toggle_havoc_eo_system@@YGXXZ ; toggle_havoc_eo_system

; 394  : }

  0000e	5f		 pop	 edi
  0000f	5e		 pop	 esi
  00010	5b		 pop	 ebx
  00011	8b e5		 mov	 esp, ebp
  00013	5d		 pop	 ebp
  00014	c2 04 00	 ret	 4
?toggle_eo_system_event@@YGXPAUEVENT@@@Z ENDP		; toggle_eo_system_event
_TEXT	ENDS
; Function compile flags: /Odtp /ZI
; File c:\users\nhv90\projects\eech\aphavoc\source\gunships\avionics\havoc\ha_avevn.c
;	COMDAT ?dec_eo_zoom_event@@YGXPAUEVENT@@@Z
_TEXT	SEGMENT
_ev$ = 8						; size = 4
?dec_eo_zoom_event@@YGXPAUEVENT@@@Z PROC		; dec_eo_zoom_event, COMDAT

; 383  : {

  00000	55		 push	 ebp
  00001	8b ec		 mov	 ebp, esp
  00003	83 ec 40	 sub	 esp, 64			; 00000040H
  00006	53		 push	 ebx
  00007	56		 push	 esi
  00008	57		 push	 edi

; 384  : 	dec_havoc_eo_zoom();

  00009	e8 00 00 00 00	 call	 ?dec_havoc_eo_zoom@@YGXXZ ; dec_havoc_eo_zoom

; 385  : }

  0000e	5f		 pop	 edi
  0000f	5e		 pop	 esi
  00010	5b		 pop	 ebx
  00011	8b e5		 mov	 esp, ebp
  00013	5d		 pop	 ebp
  00014	c2 04 00	 ret	 4
?dec_eo_zoom_event@@YGXPAUEVENT@@@Z ENDP		; dec_eo_zoom_event
_TEXT	ENDS
; Function compile flags: /Odtp /ZI
; File c:\users\nhv90\projects\eech\aphavoc\source\gunships\avionics\havoc\ha_avevn.c
;	COMDAT ?inc_eo_zoom_event@@YGXPAUEVENT@@@Z
_TEXT	SEGMENT
_ev$ = 8						; size = 4
?inc_eo_zoom_event@@YGXPAUEVENT@@@Z PROC		; inc_eo_zoom_event, COMDAT

; 378  : {

  00000	55		 push	 ebp
  00001	8b ec		 mov	 ebp, esp
  00003	83 ec 40	 sub	 esp, 64			; 00000040H
  00006	53		 push	 ebx
  00007	56		 push	 esi
  00008	57		 push	 edi

; 379  : 	inc_havoc_eo_zoom();

  00009	e8 00 00 00 00	 call	 ?inc_havoc_eo_zoom@@YGXXZ ; inc_havoc_eo_zoom

; 380  : }

  0000e	5f		 pop	 edi
  0000f	5e		 pop	 esi
  00010	5b		 pop	 ebx
  00011	8b e5		 mov	 esp, ebp
  00013	5d		 pop	 ebp
  00014	c2 04 00	 ret	 4
?inc_eo_zoom_event@@YGXPAUEVENT@@@Z ENDP		; inc_eo_zoom_event
_TEXT	ENDS
; Function compile flags: /Odtp /ZI
; File c:\users\nhv90\projects\eech\aphavoc\source\gunships\avionics\havoc\ha_avevn.c
;	COMDAT ?dec_range_event@@YGXPAUEVENT@@@Z
_TEXT	SEGMENT
_ev$ = 8						; size = 4
?dec_range_event@@YGXPAUEVENT@@@Z PROC			; dec_range_event, COMDAT

; 369  : {

  00000	55		 push	 ebp
  00001	8b ec		 mov	 ebp, esp
  00003	83 ec 40	 sub	 esp, 64			; 00000040H
  00006	53		 push	 ebx
  00007	56		 push	 esi
  00008	57		 push	 edi

; 370  : 	single_target_acquisition_system_dec_range_key++;

  00009	a1 00 00 00 00	 mov	 eax, DWORD PTR ?single_target_acquisition_system_dec_range_key@@3HA ; single_target_acquisition_system_dec_range_key
  0000e	83 c0 01	 add	 eax, 1
  00011	a3 00 00 00 00	 mov	 DWORD PTR ?single_target_acquisition_system_dec_range_key@@3HA, eax ; single_target_acquisition_system_dec_range_key

; 371  : }

  00016	5f		 pop	 edi
  00017	5e		 pop	 esi
  00018	5b		 pop	 ebx
  00019	8b e5		 mov	 esp, ebp
  0001b	5d		 pop	 ebp
  0001c	c2 04 00	 ret	 4
?dec_range_event@@YGXPAUEVENT@@@Z ENDP			; dec_range_event
_TEXT	ENDS
; Function compile flags: /Odtp /ZI
; File c:\users\nhv90\projects\eech\aphavoc\source\gunships\avionics\havoc\ha_avevn.c
;	COMDAT ?inc_range_fast_event@@YGXPAUEVENT@@@Z
_TEXT	SEGMENT
_ev$ = 8						; size = 4
?inc_range_fast_event@@YGXPAUEVENT@@@Z PROC		; inc_range_fast_event, COMDAT

; 360  : {

  00000	55		 push	 ebp
  00001	8b ec		 mov	 ebp, esp
  00003	83 ec 40	 sub	 esp, 64			; 00000040H
  00006	53		 push	 ebx
  00007	56		 push	 esi
  00008	57		 push	 edi

; 361  : 	single_target_acquisition_system_inc_range_fast_key++;

  00009	a1 00 00 00 00	 mov	 eax, DWORD PTR ?single_target_acquisition_system_inc_range_fast_key@@3HA ; single_target_acquisition_system_inc_range_fast_key
  0000e	83 c0 01	 add	 eax, 1
  00011	a3 00 00 00 00	 mov	 DWORD PTR ?single_target_acquisition_system_inc_range_fast_key@@3HA, eax ; single_target_acquisition_system_inc_range_fast_key

; 362  : }

  00016	5f		 pop	 edi
  00017	5e		 pop	 esi
  00018	5b		 pop	 ebx
  00019	8b e5		 mov	 esp, ebp
  0001b	5d		 pop	 ebp
  0001c	c2 04 00	 ret	 4
?inc_range_fast_event@@YGXPAUEVENT@@@Z ENDP		; inc_range_fast_event
_TEXT	ENDS
; Function compile flags: /Odtp /ZI
; File c:\users\nhv90\projects\eech\aphavoc\source\gunships\avionics\havoc\ha_avevn.c
;	COMDAT ?inc_range_event@@YGXPAUEVENT@@@Z
_TEXT	SEGMENT
_ev$ = 8						; size = 4
?inc_range_event@@YGXPAUEVENT@@@Z PROC			; inc_range_event, COMDAT

; 351  : {

  00000	55		 push	 ebp
  00001	8b ec		 mov	 ebp, esp
  00003	83 ec 40	 sub	 esp, 64			; 00000040H
  00006	53		 push	 ebx
  00007	56		 push	 esi
  00008	57		 push	 edi

; 352  : 	single_target_acquisition_system_inc_range_key++;

  00009	a1 00 00 00 00	 mov	 eax, DWORD PTR ?single_target_acquisition_system_inc_range_key@@3HA ; single_target_acquisition_system_inc_range_key
  0000e	83 c0 01	 add	 eax, 1
  00011	a3 00 00 00 00	 mov	 DWORD PTR ?single_target_acquisition_system_inc_range_key@@3HA, eax ; single_target_acquisition_system_inc_range_key

; 353  : }

  00016	5f		 pop	 edi
  00017	5e		 pop	 esi
  00018	5b		 pop	 ebx
  00019	8b e5		 mov	 esp, ebp
  0001b	5d		 pop	 ebp
  0001c	c2 04 00	 ret	 4
?inc_range_event@@YGXPAUEVENT@@@Z ENDP			; inc_range_event
_TEXT	ENDS
; Function compile flags: /Odtp /ZI
; File c:\users\nhv90\projects\eech\aphavoc\source\gunships\avionics\havoc\ha_avevn.c
;	COMDAT ?steer_down_fine_event@@YGXPAUEVENT@@@Z
_TEXT	SEGMENT
_ev$ = 8						; size = 4
?steer_down_fine_event@@YGXPAUEVENT@@@Z PROC		; steer_down_fine_event, COMDAT

; 335  : {

  00000	55		 push	 ebp
  00001	8b ec		 mov	 ebp, esp
  00003	83 ec 40	 sub	 esp, 64			; 00000040H
  00006	53		 push	 ebx
  00007	56		 push	 esi
  00008	57		 push	 edi

; 336  : 	if (ev->state == KEY_STATE_DOWN)

  00009	8b 45 08	 mov	 eax, DWORD PTR _ev$[ebp]
  0000c	0f b7 48 08	 movzx	 ecx, WORD PTR [eax+8]
  00010	83 f9 02	 cmp	 ecx, 2
  00013	75 0c		 jne	 SHORT $LN2@steer_down

; 337  : 	{
; 338  : 		continuous_target_acquisition_system_steer_down_fine_key = TRUE;

  00015	c7 05 00 00 00
	00 01 00 00 00	 mov	 DWORD PTR ?continuous_target_acquisition_system_steer_down_fine_key@@3HA, 1 ; continuous_target_acquisition_system_steer_down_fine_key

; 339  : 	}
; 340  : 	else

  0001f	eb 0a		 jmp	 SHORT $LN1@steer_down
$LN2@steer_down:

; 341  : 	{
; 342  : 		continuous_target_acquisition_system_steer_down_fine_key = FALSE;

  00021	c7 05 00 00 00
	00 00 00 00 00	 mov	 DWORD PTR ?continuous_target_acquisition_system_steer_down_fine_key@@3HA, 0 ; continuous_target_acquisition_system_steer_down_fine_key
$LN1@steer_down:

; 343  : 	}
; 344  : }

  0002b	5f		 pop	 edi
  0002c	5e		 pop	 esi
  0002d	5b		 pop	 ebx
  0002e	8b e5		 mov	 esp, ebp
  00030	5d		 pop	 ebp
  00031	c2 04 00	 ret	 4
?steer_down_fine_event@@YGXPAUEVENT@@@Z ENDP		; steer_down_fine_event
_TEXT	ENDS
; Function compile flags: /Odtp /ZI
; File c:\users\nhv90\projects\eech\aphavoc\source\gunships\avionics\havoc\ha_avevn.c
;	COMDAT ?steer_down_fast_event@@YGXPAUEVENT@@@Z
_TEXT	SEGMENT
_ev$ = 8						; size = 4
?steer_down_fast_event@@YGXPAUEVENT@@@Z PROC		; steer_down_fast_event, COMDAT

; 317  : {

  00000	55		 push	 ebp
  00001	8b ec		 mov	 ebp, esp
  00003	83 ec 40	 sub	 esp, 64			; 00000040H
  00006	53		 push	 ebx
  00007	56		 push	 esi
  00008	57		 push	 edi

; 318  : 	if (ev->state == KEY_STATE_DOWN)

  00009	8b 45 08	 mov	 eax, DWORD PTR _ev$[ebp]
  0000c	0f b7 48 08	 movzx	 ecx, WORD PTR [eax+8]
  00010	83 f9 02	 cmp	 ecx, 2
  00013	75 19		 jne	 SHORT $LN2@steer_down

; 319  : 	{
; 320  : 		continuous_target_acquisition_system_steer_down_fast_key = TRUE;

  00015	c7 05 00 00 00
	00 01 00 00 00	 mov	 DWORD PTR ?continuous_target_acquisition_system_steer_down_fast_key@@3HA, 1 ; continuous_target_acquisition_system_steer_down_fast_key

; 321  : 
; 322  : 		single_target_acquisition_system_steer_down_fast_key++;

  0001f	a1 00 00 00 00	 mov	 eax, DWORD PTR ?single_target_acquisition_system_steer_down_fast_key@@3HA ; single_target_acquisition_system_steer_down_fast_key
  00024	83 c0 01	 add	 eax, 1
  00027	a3 00 00 00 00	 mov	 DWORD PTR ?single_target_acquisition_system_steer_down_fast_key@@3HA, eax ; single_target_acquisition_system_steer_down_fast_key

; 323  : 	}
; 324  : 	else

  0002c	eb 0a		 jmp	 SHORT $LN1@steer_down
$LN2@steer_down:

; 325  : 	{
; 326  : 		continuous_target_acquisition_system_steer_down_fast_key = FALSE;

  0002e	c7 05 00 00 00
	00 00 00 00 00	 mov	 DWORD PTR ?continuous_target_acquisition_system_steer_down_fast_key@@3HA, 0 ; continuous_target_acquisition_system_steer_down_fast_key
$LN1@steer_down:

; 327  : 	}
; 328  : }

  00038	5f		 pop	 edi
  00039	5e		 pop	 esi
  0003a	5b		 pop	 ebx
  0003b	8b e5		 mov	 esp, ebp
  0003d	5d		 pop	 ebp
  0003e	c2 04 00	 ret	 4
?steer_down_fast_event@@YGXPAUEVENT@@@Z ENDP		; steer_down_fast_event
_TEXT	ENDS
; Function compile flags: /Odtp /ZI
; File c:\users\nhv90\projects\eech\aphavoc\source\gunships\avionics\havoc\ha_avevn.c
;	COMDAT ?steer_down_event@@YGXPAUEVENT@@@Z
_TEXT	SEGMENT
_ev$ = 8						; size = 4
?steer_down_event@@YGXPAUEVENT@@@Z PROC			; steer_down_event, COMDAT

; 299  : {

  00000	55		 push	 ebp
  00001	8b ec		 mov	 ebp, esp
  00003	83 ec 40	 sub	 esp, 64			; 00000040H
  00006	53		 push	 ebx
  00007	56		 push	 esi
  00008	57		 push	 edi

; 300  : 	if (ev->state == KEY_STATE_DOWN)

  00009	8b 45 08	 mov	 eax, DWORD PTR _ev$[ebp]
  0000c	0f b7 48 08	 movzx	 ecx, WORD PTR [eax+8]
  00010	83 f9 02	 cmp	 ecx, 2
  00013	75 19		 jne	 SHORT $LN2@steer_down

; 301  : 	{
; 302  : 		continuous_target_acquisition_system_steer_down_key = TRUE;

  00015	c7 05 00 00 00
	00 01 00 00 00	 mov	 DWORD PTR ?continuous_target_acquisition_system_steer_down_key@@3HA, 1 ; continuous_target_acquisition_system_steer_down_key

; 303  : 
; 304  : 		single_target_acquisition_system_steer_down_key++;

  0001f	a1 00 00 00 00	 mov	 eax, DWORD PTR ?single_target_acquisition_system_steer_down_key@@3HA ; single_target_acquisition_system_steer_down_key
  00024	83 c0 01	 add	 eax, 1
  00027	a3 00 00 00 00	 mov	 DWORD PTR ?single_target_acquisition_system_steer_down_key@@3HA, eax ; single_target_acquisition_system_steer_down_key

; 305  : 	}
; 306  : 	else

  0002c	eb 0a		 jmp	 SHORT $LN1@steer_down
$LN2@steer_down:

; 307  : 	{
; 308  : 		continuous_target_acquisition_system_steer_down_key = FALSE;

  0002e	c7 05 00 00 00
	00 00 00 00 00	 mov	 DWORD PTR ?continuous_target_acquisition_system_steer_down_key@@3HA, 0 ; continuous_target_acquisition_system_steer_down_key
$LN1@steer_down:

; 309  : 	}
; 310  : }

  00038	5f		 pop	 edi
  00039	5e		 pop	 esi
  0003a	5b		 pop	 ebx
  0003b	8b e5		 mov	 esp, ebp
  0003d	5d		 pop	 ebp
  0003e	c2 04 00	 ret	 4
?steer_down_event@@YGXPAUEVENT@@@Z ENDP			; steer_down_event
_TEXT	ENDS
; Function compile flags: /Odtp /ZI
; File c:\users\nhv90\projects\eech\aphavoc\source\gunships\avionics\havoc\ha_avevn.c
;	COMDAT ?steer_up_fine_event@@YGXPAUEVENT@@@Z
_TEXT	SEGMENT
_ev$ = 8						; size = 4
?steer_up_fine_event@@YGXPAUEVENT@@@Z PROC		; steer_up_fine_event, COMDAT

; 283  : {

  00000	55		 push	 ebp
  00001	8b ec		 mov	 ebp, esp
  00003	83 ec 40	 sub	 esp, 64			; 00000040H
  00006	53		 push	 ebx
  00007	56		 push	 esi
  00008	57		 push	 edi

; 284  : 	if (ev->state == KEY_STATE_DOWN)

  00009	8b 45 08	 mov	 eax, DWORD PTR _ev$[ebp]
  0000c	0f b7 48 08	 movzx	 ecx, WORD PTR [eax+8]
  00010	83 f9 02	 cmp	 ecx, 2
  00013	75 0c		 jne	 SHORT $LN2@steer_up_f

; 285  : 	{
; 286  : 		continuous_target_acquisition_system_steer_up_fine_key = TRUE;

  00015	c7 05 00 00 00
	00 01 00 00 00	 mov	 DWORD PTR ?continuous_target_acquisition_system_steer_up_fine_key@@3HA, 1 ; continuous_target_acquisition_system_steer_up_fine_key

; 287  : 	}
; 288  : 	else

  0001f	eb 0a		 jmp	 SHORT $LN1@steer_up_f
$LN2@steer_up_f:

; 289  : 	{
; 290  : 		continuous_target_acquisition_system_steer_up_fine_key = FALSE;

  00021	c7 05 00 00 00
	00 00 00 00 00	 mov	 DWORD PTR ?continuous_target_acquisition_system_steer_up_fine_key@@3HA, 0 ; continuous_target_acquisition_system_steer_up_fine_key
$LN1@steer_up_f:

; 291  : 	}
; 292  : }

  0002b	5f		 pop	 edi
  0002c	5e		 pop	 esi
  0002d	5b		 pop	 ebx
  0002e	8b e5		 mov	 esp, ebp
  00030	5d		 pop	 ebp
  00031	c2 04 00	 ret	 4
?steer_up_fine_event@@YGXPAUEVENT@@@Z ENDP		; steer_up_fine_event
_TEXT	ENDS
; Function compile flags: /Odtp /ZI
; File c:\users\nhv90\projects\eech\aphavoc\source\gunships\avionics\havoc\ha_avevn.c
;	COMDAT ?steer_up_fast_event@@YGXPAUEVENT@@@Z
_TEXT	SEGMENT
_ev$ = 8						; size = 4
?steer_up_fast_event@@YGXPAUEVENT@@@Z PROC		; steer_up_fast_event, COMDAT

; 265  : {

  00000	55		 push	 ebp
  00001	8b ec		 mov	 ebp, esp
  00003	83 ec 40	 sub	 esp, 64			; 00000040H
  00006	53		 push	 ebx
  00007	56		 push	 esi
  00008	57		 push	 edi

; 266  : 	if (ev->state == KEY_STATE_DOWN)

  00009	8b 45 08	 mov	 eax, DWORD PTR _ev$[ebp]
  0000c	0f b7 48 08	 movzx	 ecx, WORD PTR [eax+8]
  00010	83 f9 02	 cmp	 ecx, 2
  00013	75 19		 jne	 SHORT $LN2@steer_up_f

; 267  : 	{
; 268  : 		continuous_target_acquisition_system_steer_up_fast_key = TRUE;

  00015	c7 05 00 00 00
	00 01 00 00 00	 mov	 DWORD PTR ?continuous_target_acquisition_system_steer_up_fast_key@@3HA, 1 ; continuous_target_acquisition_system_steer_up_fast_key

; 269  : 
; 270  : 		single_target_acquisition_system_steer_up_fast_key++;

  0001f	a1 00 00 00 00	 mov	 eax, DWORD PTR ?single_target_acquisition_system_steer_up_fast_key@@3HA ; single_target_acquisition_system_steer_up_fast_key
  00024	83 c0 01	 add	 eax, 1
  00027	a3 00 00 00 00	 mov	 DWORD PTR ?single_target_acquisition_system_steer_up_fast_key@@3HA, eax ; single_target_acquisition_system_steer_up_fast_key

; 271  : 	}
; 272  : 	else

  0002c	eb 0a		 jmp	 SHORT $LN1@steer_up_f
$LN2@steer_up_f:

; 273  : 	{
; 274  : 		continuous_target_acquisition_system_steer_up_fast_key = FALSE;

  0002e	c7 05 00 00 00
	00 00 00 00 00	 mov	 DWORD PTR ?continuous_target_acquisition_system_steer_up_fast_key@@3HA, 0 ; continuous_target_acquisition_system_steer_up_fast_key
$LN1@steer_up_f:

; 275  : 	}
; 276  : }

  00038	5f		 pop	 edi
  00039	5e		 pop	 esi
  0003a	5b		 pop	 ebx
  0003b	8b e5		 mov	 esp, ebp
  0003d	5d		 pop	 ebp
  0003e	c2 04 00	 ret	 4
?steer_up_fast_event@@YGXPAUEVENT@@@Z ENDP		; steer_up_fast_event
_TEXT	ENDS
; Function compile flags: /Odtp /ZI
; File c:\users\nhv90\projects\eech\aphavoc\source\gunships\avionics\havoc\ha_avevn.c
;	COMDAT ?steer_up_event@@YGXPAUEVENT@@@Z
_TEXT	SEGMENT
_ev$ = 8						; size = 4
?steer_up_event@@YGXPAUEVENT@@@Z PROC			; steer_up_event, COMDAT

; 247  : {

  00000	55		 push	 ebp
  00001	8b ec		 mov	 ebp, esp
  00003	83 ec 40	 sub	 esp, 64			; 00000040H
  00006	53		 push	 ebx
  00007	56		 push	 esi
  00008	57		 push	 edi

; 248  : 	if (ev->state == KEY_STATE_DOWN)

  00009	8b 45 08	 mov	 eax, DWORD PTR _ev$[ebp]
  0000c	0f b7 48 08	 movzx	 ecx, WORD PTR [eax+8]
  00010	83 f9 02	 cmp	 ecx, 2
  00013	75 19		 jne	 SHORT $LN2@steer_up_e

; 249  : 	{
; 250  : 		continuous_target_acquisition_system_steer_up_key = TRUE;

  00015	c7 05 00 00 00
	00 01 00 00 00	 mov	 DWORD PTR ?continuous_target_acquisition_system_steer_up_key@@3HA, 1 ; continuous_target_acquisition_system_steer_up_key

; 251  : 
; 252  : 		single_target_acquisition_system_steer_up_key++;

  0001f	a1 00 00 00 00	 mov	 eax, DWORD PTR ?single_target_acquisition_system_steer_up_key@@3HA ; single_target_acquisition_system_steer_up_key
  00024	83 c0 01	 add	 eax, 1
  00027	a3 00 00 00 00	 mov	 DWORD PTR ?single_target_acquisition_system_steer_up_key@@3HA, eax ; single_target_acquisition_system_steer_up_key

; 253  : 	}
; 254  : 	else

  0002c	eb 0a		 jmp	 SHORT $LN1@steer_up_e
$LN2@steer_up_e:

; 255  : 	{
; 256  : 		continuous_target_acquisition_system_steer_up_key = FALSE;

  0002e	c7 05 00 00 00
	00 00 00 00 00	 mov	 DWORD PTR ?continuous_target_acquisition_system_steer_up_key@@3HA, 0 ; continuous_target_acquisition_system_steer_up_key
$LN1@steer_up_e:

; 257  : 	}
; 258  : }

  00038	5f		 pop	 edi
  00039	5e		 pop	 esi
  0003a	5b		 pop	 ebx
  0003b	8b e5		 mov	 esp, ebp
  0003d	5d		 pop	 ebp
  0003e	c2 04 00	 ret	 4
?steer_up_event@@YGXPAUEVENT@@@Z ENDP			; steer_up_event
_TEXT	ENDS
; Function compile flags: /Odtp /ZI
; File c:\users\nhv90\projects\eech\aphavoc\source\gunships\avionics\havoc\ha_avevn.c
;	COMDAT ?steer_right_fine_event@@YGXPAUEVENT@@@Z
_TEXT	SEGMENT
_ev$ = 8						; size = 4
?steer_right_fine_event@@YGXPAUEVENT@@@Z PROC		; steer_right_fine_event, COMDAT

; 231  : {

  00000	55		 push	 ebp
  00001	8b ec		 mov	 ebp, esp
  00003	83 ec 40	 sub	 esp, 64			; 00000040H
  00006	53		 push	 ebx
  00007	56		 push	 esi
  00008	57		 push	 edi

; 232  : 	if (ev->state == KEY_STATE_DOWN)

  00009	8b 45 08	 mov	 eax, DWORD PTR _ev$[ebp]
  0000c	0f b7 48 08	 movzx	 ecx, WORD PTR [eax+8]
  00010	83 f9 02	 cmp	 ecx, 2
  00013	75 0c		 jne	 SHORT $LN2@steer_righ

; 233  : 	{
; 234  : 		continuous_target_acquisition_system_steer_right_fine_key = TRUE;

  00015	c7 05 00 00 00
	00 01 00 00 00	 mov	 DWORD PTR ?continuous_target_acquisition_system_steer_right_fine_key@@3HA, 1 ; continuous_target_acquisition_system_steer_right_fine_key

; 235  : 	}
; 236  : 	else

  0001f	eb 0a		 jmp	 SHORT $LN1@steer_righ
$LN2@steer_righ:

; 237  : 	{
; 238  : 		continuous_target_acquisition_system_steer_right_fine_key = FALSE;

  00021	c7 05 00 00 00
	00 00 00 00 00	 mov	 DWORD PTR ?continuous_target_acquisition_system_steer_right_fine_key@@3HA, 0 ; continuous_target_acquisition_system_steer_right_fine_key
$LN1@steer_righ:

; 239  : 	}
; 240  : }

  0002b	5f		 pop	 edi
  0002c	5e		 pop	 esi
  0002d	5b		 pop	 ebx
  0002e	8b e5		 mov	 esp, ebp
  00030	5d		 pop	 ebp
  00031	c2 04 00	 ret	 4
?steer_right_fine_event@@YGXPAUEVENT@@@Z ENDP		; steer_right_fine_event
_TEXT	ENDS
; Function compile flags: /Odtp /ZI
; File c:\users\nhv90\projects\eech\aphavoc\source\gunships\avionics\havoc\ha_avevn.c
;	COMDAT ?steer_right_fast_event@@YGXPAUEVENT@@@Z
_TEXT	SEGMENT
_ev$ = 8						; size = 4
?steer_right_fast_event@@YGXPAUEVENT@@@Z PROC		; steer_right_fast_event, COMDAT

; 213  : {

  00000	55		 push	 ebp
  00001	8b ec		 mov	 ebp, esp
  00003	83 ec 40	 sub	 esp, 64			; 00000040H
  00006	53		 push	 ebx
  00007	56		 push	 esi
  00008	57		 push	 edi

; 214  : 	if (ev->state == KEY_STATE_DOWN)

  00009	8b 45 08	 mov	 eax, DWORD PTR _ev$[ebp]
  0000c	0f b7 48 08	 movzx	 ecx, WORD PTR [eax+8]
  00010	83 f9 02	 cmp	 ecx, 2
  00013	75 19		 jne	 SHORT $LN2@steer_righ

; 215  : 	{
; 216  : 		continuous_target_acquisition_system_steer_right_fast_key = TRUE;

  00015	c7 05 00 00 00
	00 01 00 00 00	 mov	 DWORD PTR ?continuous_target_acquisition_system_steer_right_fast_key@@3HA, 1 ; continuous_target_acquisition_system_steer_right_fast_key

; 217  : 
; 218  : 		single_target_acquisition_system_steer_right_fast_key++;

  0001f	a1 00 00 00 00	 mov	 eax, DWORD PTR ?single_target_acquisition_system_steer_right_fast_key@@3HA ; single_target_acquisition_system_steer_right_fast_key
  00024	83 c0 01	 add	 eax, 1
  00027	a3 00 00 00 00	 mov	 DWORD PTR ?single_target_acquisition_system_steer_right_fast_key@@3HA, eax ; single_target_acquisition_system_steer_right_fast_key

; 219  : 	}
; 220  : 	else

  0002c	eb 0a		 jmp	 SHORT $LN1@steer_righ
$LN2@steer_righ:

; 221  : 	{
; 222  : 		continuous_target_acquisition_system_steer_right_fast_key = FALSE;

  0002e	c7 05 00 00 00
	00 00 00 00 00	 mov	 DWORD PTR ?continuous_target_acquisition_system_steer_right_fast_key@@3HA, 0 ; continuous_target_acquisition_system_steer_right_fast_key
$LN1@steer_righ:

; 223  : 	}
; 224  : }

  00038	5f		 pop	 edi
  00039	5e		 pop	 esi
  0003a	5b		 pop	 ebx
  0003b	8b e5		 mov	 esp, ebp
  0003d	5d		 pop	 ebp
  0003e	c2 04 00	 ret	 4
?steer_right_fast_event@@YGXPAUEVENT@@@Z ENDP		; steer_right_fast_event
_TEXT	ENDS
; Function compile flags: /Odtp /ZI
; File c:\users\nhv90\projects\eech\aphavoc\source\gunships\avionics\havoc\ha_avevn.c
;	COMDAT ?steer_right_event@@YGXPAUEVENT@@@Z
_TEXT	SEGMENT
_ev$ = 8						; size = 4
?steer_right_event@@YGXPAUEVENT@@@Z PROC		; steer_right_event, COMDAT

; 195  : {

  00000	55		 push	 ebp
  00001	8b ec		 mov	 ebp, esp
  00003	83 ec 40	 sub	 esp, 64			; 00000040H
  00006	53		 push	 ebx
  00007	56		 push	 esi
  00008	57		 push	 edi

; 196  : 	if (ev->state == KEY_STATE_DOWN)

  00009	8b 45 08	 mov	 eax, DWORD PTR _ev$[ebp]
  0000c	0f b7 48 08	 movzx	 ecx, WORD PTR [eax+8]
  00010	83 f9 02	 cmp	 ecx, 2
  00013	75 19		 jne	 SHORT $LN2@steer_righ

; 197  : 	{
; 198  : 		continuous_target_acquisition_system_steer_right_key = TRUE;

  00015	c7 05 00 00 00
	00 01 00 00 00	 mov	 DWORD PTR ?continuous_target_acquisition_system_steer_right_key@@3HA, 1 ; continuous_target_acquisition_system_steer_right_key

; 199  : 
; 200  : 		single_target_acquisition_system_steer_right_key++;

  0001f	a1 00 00 00 00	 mov	 eax, DWORD PTR ?single_target_acquisition_system_steer_right_key@@3HA ; single_target_acquisition_system_steer_right_key
  00024	83 c0 01	 add	 eax, 1
  00027	a3 00 00 00 00	 mov	 DWORD PTR ?single_target_acquisition_system_steer_right_key@@3HA, eax ; single_target_acquisition_system_steer_right_key

; 201  : 	}
; 202  : 	else

  0002c	eb 0a		 jmp	 SHORT $LN1@steer_righ
$LN2@steer_righ:

; 203  : 	{
; 204  : 		continuous_target_acquisition_system_steer_right_key = FALSE;

  0002e	c7 05 00 00 00
	00 00 00 00 00	 mov	 DWORD PTR ?continuous_target_acquisition_system_steer_right_key@@3HA, 0 ; continuous_target_acquisition_system_steer_right_key
$LN1@steer_righ:

; 205  : 	}
; 206  : }

  00038	5f		 pop	 edi
  00039	5e		 pop	 esi
  0003a	5b		 pop	 ebx
  0003b	8b e5		 mov	 esp, ebp
  0003d	5d		 pop	 ebp
  0003e	c2 04 00	 ret	 4
?steer_right_event@@YGXPAUEVENT@@@Z ENDP		; steer_right_event
_TEXT	ENDS
; Function compile flags: /Odtp /ZI
; File c:\users\nhv90\projects\eech\aphavoc\source\gunships\avionics\havoc\ha_avevn.c
;	COMDAT ?steer_left_fine_event@@YGXPAUEVENT@@@Z
_TEXT	SEGMENT
_ev$ = 8						; size = 4
?steer_left_fine_event@@YGXPAUEVENT@@@Z PROC		; steer_left_fine_event, COMDAT

; 179  : {

  00000	55		 push	 ebp
  00001	8b ec		 mov	 ebp, esp
  00003	83 ec 40	 sub	 esp, 64			; 00000040H
  00006	53		 push	 ebx
  00007	56		 push	 esi
  00008	57		 push	 edi

; 180  : 	if (ev->state == KEY_STATE_DOWN)

  00009	8b 45 08	 mov	 eax, DWORD PTR _ev$[ebp]
  0000c	0f b7 48 08	 movzx	 ecx, WORD PTR [eax+8]
  00010	83 f9 02	 cmp	 ecx, 2
  00013	75 0c		 jne	 SHORT $LN2@steer_left

; 181  : 	{
; 182  : 		continuous_target_acquisition_system_steer_left_fine_key = TRUE;

  00015	c7 05 00 00 00
	00 01 00 00 00	 mov	 DWORD PTR ?continuous_target_acquisition_system_steer_left_fine_key@@3HA, 1 ; continuous_target_acquisition_system_steer_left_fine_key

; 183  : 	}
; 184  : 	else

  0001f	eb 0a		 jmp	 SHORT $LN1@steer_left
$LN2@steer_left:

; 185  : 	{
; 186  : 		continuous_target_acquisition_system_steer_left_fine_key = FALSE;

  00021	c7 05 00 00 00
	00 00 00 00 00	 mov	 DWORD PTR ?continuous_target_acquisition_system_steer_left_fine_key@@3HA, 0 ; continuous_target_acquisition_system_steer_left_fine_key
$LN1@steer_left:

; 187  : 	}
; 188  : }

  0002b	5f		 pop	 edi
  0002c	5e		 pop	 esi
  0002d	5b		 pop	 ebx
  0002e	8b e5		 mov	 esp, ebp
  00030	5d		 pop	 ebp
  00031	c2 04 00	 ret	 4
?steer_left_fine_event@@YGXPAUEVENT@@@Z ENDP		; steer_left_fine_event
_TEXT	ENDS
; Function compile flags: /Odtp /ZI
; File c:\users\nhv90\projects\eech\aphavoc\source\gunships\avionics\havoc\ha_avevn.c
;	COMDAT ?steer_left_fast_event@@YGXPAUEVENT@@@Z
_TEXT	SEGMENT
_ev$ = 8						; size = 4
?steer_left_fast_event@@YGXPAUEVENT@@@Z PROC		; steer_left_fast_event, COMDAT

; 161  : {

  00000	55		 push	 ebp
  00001	8b ec		 mov	 ebp, esp
  00003	83 ec 40	 sub	 esp, 64			; 00000040H
  00006	53		 push	 ebx
  00007	56		 push	 esi
  00008	57		 push	 edi

; 162  : 	if (ev->state == KEY_STATE_DOWN)

  00009	8b 45 08	 mov	 eax, DWORD PTR _ev$[ebp]
  0000c	0f b7 48 08	 movzx	 ecx, WORD PTR [eax+8]
  00010	83 f9 02	 cmp	 ecx, 2
  00013	75 19		 jne	 SHORT $LN2@steer_left

; 163  : 	{
; 164  : 		continuous_target_acquisition_system_steer_left_fast_key = TRUE;

  00015	c7 05 00 00 00
	00 01 00 00 00	 mov	 DWORD PTR ?continuous_target_acquisition_system_steer_left_fast_key@@3HA, 1 ; continuous_target_acquisition_system_steer_left_fast_key

; 165  : 
; 166  : 		single_target_acquisition_system_steer_left_fast_key++;

  0001f	a1 00 00 00 00	 mov	 eax, DWORD PTR ?single_target_acquisition_system_steer_left_fast_key@@3HA ; single_target_acquisition_system_steer_left_fast_key
  00024	83 c0 01	 add	 eax, 1
  00027	a3 00 00 00 00	 mov	 DWORD PTR ?single_target_acquisition_system_steer_left_fast_key@@3HA, eax ; single_target_acquisition_system_steer_left_fast_key

; 167  : 	}
; 168  : 	else

  0002c	eb 0a		 jmp	 SHORT $LN1@steer_left
$LN2@steer_left:

; 169  : 	{
; 170  : 		continuous_target_acquisition_system_steer_left_fast_key = FALSE;

  0002e	c7 05 00 00 00
	00 00 00 00 00	 mov	 DWORD PTR ?continuous_target_acquisition_system_steer_left_fast_key@@3HA, 0 ; continuous_target_acquisition_system_steer_left_fast_key
$LN1@steer_left:

; 171  : 	}
; 172  : }

  00038	5f		 pop	 edi
  00039	5e		 pop	 esi
  0003a	5b		 pop	 ebx
  0003b	8b e5		 mov	 esp, ebp
  0003d	5d		 pop	 ebp
  0003e	c2 04 00	 ret	 4
?steer_left_fast_event@@YGXPAUEVENT@@@Z ENDP		; steer_left_fast_event
_TEXT	ENDS
; Function compile flags: /Odtp /ZI
; File c:\users\nhv90\projects\eech\aphavoc\source\gunships\avionics\havoc\ha_avevn.c
;	COMDAT ?steer_left_event@@YGXPAUEVENT@@@Z
_TEXT	SEGMENT
_ev$ = 8						; size = 4
?steer_left_event@@YGXPAUEVENT@@@Z PROC			; steer_left_event, COMDAT

; 143  : {

  00000	55		 push	 ebp
  00001	8b ec		 mov	 ebp, esp
  00003	83 ec 40	 sub	 esp, 64			; 00000040H
  00006	53		 push	 ebx
  00007	56		 push	 esi
  00008	57		 push	 edi

; 144  : 	if (ev->state == KEY_STATE_DOWN)

  00009	8b 45 08	 mov	 eax, DWORD PTR _ev$[ebp]
  0000c	0f b7 48 08	 movzx	 ecx, WORD PTR [eax+8]
  00010	83 f9 02	 cmp	 ecx, 2
  00013	75 19		 jne	 SHORT $LN2@steer_left

; 145  : 	{
; 146  : 		continuous_target_acquisition_system_steer_left_key = TRUE;

  00015	c7 05 00 00 00
	00 01 00 00 00	 mov	 DWORD PTR ?continuous_target_acquisition_system_steer_left_key@@3HA, 1 ; continuous_target_acquisition_system_steer_left_key

; 147  : 
; 148  : 		single_target_acquisition_system_steer_left_key++;

  0001f	a1 00 00 00 00	 mov	 eax, DWORD PTR ?single_target_acquisition_system_steer_left_key@@3HA ; single_target_acquisition_system_steer_left_key
  00024	83 c0 01	 add	 eax, 1
  00027	a3 00 00 00 00	 mov	 DWORD PTR ?single_target_acquisition_system_steer_left_key@@3HA, eax ; single_target_acquisition_system_steer_left_key

; 149  : 	}
; 150  : 	else

  0002c	eb 0a		 jmp	 SHORT $LN1@steer_left
$LN2@steer_left:

; 151  : 	{
; 152  : 		continuous_target_acquisition_system_steer_left_key = FALSE;

  0002e	c7 05 00 00 00
	00 00 00 00 00	 mov	 DWORD PTR ?continuous_target_acquisition_system_steer_left_key@@3HA, 0 ; continuous_target_acquisition_system_steer_left_key
$LN1@steer_left:

; 153  : 	}
; 154  : }

  00038	5f		 pop	 edi
  00039	5e		 pop	 esi
  0003a	5b		 pop	 ebx
  0003b	8b e5		 mov	 esp, ebp
  0003d	5d		 pop	 ebp
  0003e	c2 04 00	 ret	 4
?steer_left_event@@YGXPAUEVENT@@@Z ENDP			; steer_left_event
_TEXT	ENDS
; Function compile flags: /Odtp /ZI
; File c:\users\nhv90\projects\eech\aphavoc\source\gunships\avionics\havoc\ha_avevn.c
;	COMDAT ?select_target_acquisition_system_hms_event@@YGXPAUEVENT@@@Z
_TEXT	SEGMENT
_ev$ = 8						; size = 4
?select_target_acquisition_system_hms_event@@YGXPAUEVENT@@@Z PROC ; select_target_acquisition_system_hms_event, COMDAT

; 131  : {

  00000	55		 push	 ebp
  00001	8b ec		 mov	 ebp, esp
  00003	83 ec 40	 sub	 esp, 64			; 00000040H
  00006	53		 push	 ebx
  00007	56		 push	 esi
  00008	57		 push	 edi

; 132  : 	if (!get_global_simple_avionics ())

  00009	83 3d 6c 03 00
	00 00		 cmp	 DWORD PTR ?global_options@@3UGLOBAL_OPTIONS_DATA@@A+876, 0
  00010	75 07		 jne	 SHORT $LN1@select_tar

; 133  : 	{
; 134  : 		select_havoc_target_acquisition_system (TARGET_ACQUISITION_SYSTEM_HMS);

  00012	6a 0a		 push	 10			; 0000000aH
  00014	e8 00 00 00 00	 call	 ?select_havoc_target_acquisition_system@@YGXW4TARGET_ACQUISITION_SYSTEMS@@@Z ; select_havoc_target_acquisition_system
$LN1@select_tar:

; 135  : 	}
; 136  : }

  00019	5f		 pop	 edi
  0001a	5e		 pop	 esi
  0001b	5b		 pop	 ebx
  0001c	8b e5		 mov	 esp, ebp
  0001e	5d		 pop	 ebp
  0001f	c2 04 00	 ret	 4
?select_target_acquisition_system_hms_event@@YGXPAUEVENT@@@Z ENDP ; select_target_acquisition_system_hms_event
_TEXT	ENDS
; Function compile flags: /Odtp /ZI
; File c:\users\nhv90\projects\eech\aphavoc\source\gunships\avionics\havoc\ha_avevn.c
;	COMDAT ?select_target_acquisition_system_llltv_event@@YGXPAUEVENT@@@Z
_TEXT	SEGMENT
_ev$ = 8						; size = 4
?select_target_acquisition_system_llltv_event@@YGXPAUEVENT@@@Z PROC ; select_target_acquisition_system_llltv_event, COMDAT

; 119  : {

  00000	55		 push	 ebp
  00001	8b ec		 mov	 ebp, esp
  00003	83 ec 40	 sub	 esp, 64			; 00000040H
  00006	53		 push	 ebx
  00007	56		 push	 esi
  00008	57		 push	 edi

; 120  : 	if (!get_global_simple_avionics ())

  00009	83 3d 6c 03 00
	00 00		 cmp	 DWORD PTR ?global_options@@3UGLOBAL_OPTIONS_DATA@@A+876, 0
  00010	75 07		 jne	 SHORT $LN1@select_tar

; 121  : 	{
; 122  : 		select_havoc_target_acquisition_system (TARGET_ACQUISITION_SYSTEM_LLLTV);

  00012	6a 06		 push	 6
  00014	e8 00 00 00 00	 call	 ?select_havoc_target_acquisition_system@@YGXW4TARGET_ACQUISITION_SYSTEMS@@@Z ; select_havoc_target_acquisition_system
$LN1@select_tar:

; 123  : 	}
; 124  : }

  00019	5f		 pop	 edi
  0001a	5e		 pop	 esi
  0001b	5b		 pop	 ebx
  0001c	8b e5		 mov	 esp, ebp
  0001e	5d		 pop	 ebp
  0001f	c2 04 00	 ret	 4
?select_target_acquisition_system_llltv_event@@YGXPAUEVENT@@@Z ENDP ; select_target_acquisition_system_llltv_event
_TEXT	ENDS
; Function compile flags: /Odtp /ZI
; File c:\users\nhv90\projects\eech\aphavoc\source\gunships\avionics\havoc\ha_avevn.c
;	COMDAT ?select_target_acquisition_system_flir_event@@YGXPAUEVENT@@@Z
_TEXT	SEGMENT
_ev$ = 8						; size = 4
?select_target_acquisition_system_flir_event@@YGXPAUEVENT@@@Z PROC ; select_target_acquisition_system_flir_event, COMDAT

; 107  : {

  00000	55		 push	 ebp
  00001	8b ec		 mov	 ebp, esp
  00003	83 ec 40	 sub	 esp, 64			; 00000040H
  00006	53		 push	 ebx
  00007	56		 push	 esi
  00008	57		 push	 edi

; 108  : 	if (!get_global_simple_avionics ())

  00009	83 3d 6c 03 00
	00 00		 cmp	 DWORD PTR ?global_options@@3UGLOBAL_OPTIONS_DATA@@A+876, 0
  00010	75 07		 jne	 SHORT $LN1@select_tar

; 109  : 	{
; 110  : 		select_havoc_target_acquisition_system (TARGET_ACQUISITION_SYSTEM_FLIR);

  00012	6a 03		 push	 3
  00014	e8 00 00 00 00	 call	 ?select_havoc_target_acquisition_system@@YGXW4TARGET_ACQUISITION_SYSTEMS@@@Z ; select_havoc_target_acquisition_system
$LN1@select_tar:

; 111  : 	}
; 112  : }

  00019	5f		 pop	 edi
  0001a	5e		 pop	 esi
  0001b	5b		 pop	 ebx
  0001c	8b e5		 mov	 esp, ebp
  0001e	5d		 pop	 ebp
  0001f	c2 04 00	 ret	 4
?select_target_acquisition_system_flir_event@@YGXPAUEVENT@@@Z ENDP ; select_target_acquisition_system_flir_event
_TEXT	ENDS
; Function compile flags: /Odtp /ZI
; File c:\users\nhv90\projects\eech\aphavoc\source\gunships\avionics\havoc\ha_avevn.c
;	COMDAT ?select_target_acquisition_system_air_radar_event@@YGXPAUEVENT@@@Z
_TEXT	SEGMENT
_ev$ = 8						; size = 4
?select_target_acquisition_system_air_radar_event@@YGXPAUEVENT@@@Z PROC ; select_target_acquisition_system_air_radar_event, COMDAT

; 95   : {

  00000	55		 push	 ebp
  00001	8b ec		 mov	 ebp, esp
  00003	83 ec 40	 sub	 esp, 64			; 00000040H
  00006	53		 push	 ebx
  00007	56		 push	 esi
  00008	57		 push	 edi

; 96   : 	if (!get_global_simple_avionics ())

  00009	83 3d 6c 03 00
	00 00		 cmp	 DWORD PTR ?global_options@@3UGLOBAL_OPTIONS_DATA@@A+876, 0
  00010	75 07		 jne	 SHORT $LN1@select_tar

; 97   : 	{
; 98   : 		select_havoc_target_acquisition_system (TARGET_ACQUISITION_SYSTEM_AIR_RADAR);

  00012	6a 02		 push	 2
  00014	e8 00 00 00 00	 call	 ?select_havoc_target_acquisition_system@@YGXW4TARGET_ACQUISITION_SYSTEMS@@@Z ; select_havoc_target_acquisition_system
$LN1@select_tar:

; 99   : 	}
; 100  : }

  00019	5f		 pop	 edi
  0001a	5e		 pop	 esi
  0001b	5b		 pop	 ebx
  0001c	8b e5		 mov	 esp, ebp
  0001e	5d		 pop	 ebp
  0001f	c2 04 00	 ret	 4
?select_target_acquisition_system_air_radar_event@@YGXPAUEVENT@@@Z ENDP ; select_target_acquisition_system_air_radar_event
_TEXT	ENDS
; Function compile flags: /Odtp /ZI
; File c:\users\nhv90\projects\eech\aphavoc\source\gunships\avionics\havoc\ha_avevn.c
;	COMDAT ?select_target_acquisition_system_ground_radar_event@@YGXPAUEVENT@@@Z
_TEXT	SEGMENT
_ev$ = 8						; size = 4
?select_target_acquisition_system_ground_radar_event@@YGXPAUEVENT@@@Z PROC ; select_target_acquisition_system_ground_radar_event, COMDAT

; 83   : {

  00000	55		 push	 ebp
  00001	8b ec		 mov	 ebp, esp
  00003	83 ec 40	 sub	 esp, 64			; 00000040H
  00006	53		 push	 ebx
  00007	56		 push	 esi
  00008	57		 push	 edi

; 84   : 	if (!get_global_simple_avionics ())

  00009	83 3d 6c 03 00
	00 00		 cmp	 DWORD PTR ?global_options@@3UGLOBAL_OPTIONS_DATA@@A+876, 0
  00010	75 07		 jne	 SHORT $LN1@select_tar

; 85   : 	{
; 86   : 		select_havoc_target_acquisition_system (TARGET_ACQUISITION_SYSTEM_GROUND_RADAR);

  00012	6a 01		 push	 1
  00014	e8 00 00 00 00	 call	 ?select_havoc_target_acquisition_system@@YGXW4TARGET_ACQUISITION_SYSTEMS@@@Z ; select_havoc_target_acquisition_system
$LN1@select_tar:

; 87   : 	}
; 88   : }

  00019	5f		 pop	 edi
  0001a	5e		 pop	 esi
  0001b	5b		 pop	 ebx
  0001c	8b e5		 mov	 esp, ebp
  0001e	5d		 pop	 ebp
  0001f	c2 04 00	 ret	 4
?select_target_acquisition_system_ground_radar_event@@YGXPAUEVENT@@@Z ENDP ; select_target_acquisition_system_ground_radar_event
_TEXT	ENDS
; Function compile flags: /Odtp /ZI
; File c:\users\nhv90\projects\eech\aphavoc\source\gunships\avionics\havoc\ha_avevn.c
;	COMDAT ?select_target_acquisition_system_off_event@@YGXPAUEVENT@@@Z
_TEXT	SEGMENT
_ev$ = 8						; size = 4
?select_target_acquisition_system_off_event@@YGXPAUEVENT@@@Z PROC ; select_target_acquisition_system_off_event, COMDAT

; 74   : {

  00000	55		 push	 ebp
  00001	8b ec		 mov	 ebp, esp
  00003	83 ec 40	 sub	 esp, 64			; 00000040H
  00006	53		 push	 ebx
  00007	56		 push	 esi
  00008	57		 push	 edi

; 75   : 	select_havoc_target_acquisition_system (TARGET_ACQUISITION_SYSTEM_OFF);

  00009	6a 00		 push	 0
  0000b	e8 00 00 00 00	 call	 ?select_havoc_target_acquisition_system@@YGXW4TARGET_ACQUISITION_SYSTEMS@@@Z ; select_havoc_target_acquisition_system

; 76   : }

  00010	5f		 pop	 edi
  00011	5e		 pop	 esi
  00012	5b		 pop	 ebx
  00013	8b e5		 mov	 esp, ebp
  00015	5d		 pop	 ebp
  00016	c2 04 00	 ret	 4
?select_target_acquisition_system_off_event@@YGXPAUEVENT@@@Z ENDP ; select_target_acquisition_system_off_event
_TEXT	ENDS
; Function compile flags: /Odtp /ZI
; File c:\users\nhv90\projects\eech\aphavoc\source\gunships\avionics\havoc\ha_avevn.c
;	COMDAT ?set_havoc_avionics_events@@YGXXZ
_TEXT	SEGMENT
?set_havoc_avionics_events@@YGXXZ PROC			; set_havoc_avionics_events, COMDAT

; 672  : {

  00000	55		 push	 ebp
  00001	8b ec		 mov	 ebp, esp
  00003	83 ec 40	 sub	 esp, 64			; 00000040H
  00006	53		 push	 ebx
  00007	56		 push	 esi
  00008	57		 push	 edi

; 673  : 	if (!get_gunship_entity ())

  00009	83 3d 00 00 00
	00 00		 cmp	 DWORD PTR ?gunship_entity@@3PAUENTITY@@A, 0 ; gunship_entity
  00010	75 05		 jne	 SHORT $LN2@set_havoc_

; 674  : 	{
; 675  : 		return;

  00012	e9 ea 03 00 00	 jmp	 $LN1@set_havoc_
$LN2@set_havoc_:

; 676  : 	}
; 677  : 
; 678  : 	////////////////////////////////////////
; 679  : 	//
; 680  : 	// KEYBOARD EVENTS
; 681  : 	//
; 682  : 	////////////////////////////////////////
; 683  : 
; 684  : 	//
; 685  : 	// select target acquisition system
; 686  : 	//
; 687  : 
; 688  : 	set_event (DIK_DELETE, MODIFIER_LEFT_SHIFT, KEY_STATE_DOWN, select_target_acquisition_system_off_event);

  00017	68 00 00 00 00	 push	 OFFSET ?select_target_acquisition_system_off_event@@YGXPAUEVENT@@@Z ; select_target_acquisition_system_off_event
  0001c	6a 02		 push	 2
  0001e	6a 01		 push	 1
  00020	68 d3 00 00 00	 push	 211			; 000000d3H
  00025	e8 00 00 00 00	 call	 ?set_event@@YGXHHHP6GXPAUEVENT@@@Z@Z ; set_event

; 689  : 
; 690  : 	set_event (DIK_INSERT, MODIFIER_NONE, KEY_STATE_DOWN, select_target_acquisition_system_ground_radar_event);

  0002a	68 00 00 00 00	 push	 OFFSET ?select_target_acquisition_system_ground_radar_event@@YGXPAUEVENT@@@Z ; select_target_acquisition_system_ground_radar_event
  0002f	6a 02		 push	 2
  00031	6a 00		 push	 0
  00033	68 d2 00 00 00	 push	 210			; 000000d2H
  00038	e8 00 00 00 00	 call	 ?set_event@@YGXHHHP6GXPAUEVENT@@@Z@Z ; set_event

; 691  : 
; 692  : 	set_event (DIK_HOME, MODIFIER_NONE, KEY_STATE_DOWN, select_target_acquisition_system_air_radar_event);

  0003d	68 00 00 00 00	 push	 OFFSET ?select_target_acquisition_system_air_radar_event@@YGXPAUEVENT@@@Z ; select_target_acquisition_system_air_radar_event
  00042	6a 02		 push	 2
  00044	6a 00		 push	 0
  00046	68 c7 00 00 00	 push	 199			; 000000c7H
  0004b	e8 00 00 00 00	 call	 ?set_event@@YGXHHHP6GXPAUEVENT@@@Z@Z ; set_event

; 693  : 
; 694  : 	set_event (DIK_DELETE, MODIFIER_NONE, KEY_STATE_DOWN, select_target_acquisition_system_flir_event);

  00050	68 00 00 00 00	 push	 OFFSET ?select_target_acquisition_system_flir_event@@YGXPAUEVENT@@@Z ; select_target_acquisition_system_flir_event
  00055	6a 02		 push	 2
  00057	6a 00		 push	 0
  00059	68 d3 00 00 00	 push	 211			; 000000d3H
  0005e	e8 00 00 00 00	 call	 ?set_event@@YGXHHHP6GXPAUEVENT@@@Z@Z ; set_event

; 695  : 
; 696  : 	set_event (DIK_END, MODIFIER_NONE, KEY_STATE_DOWN, select_target_acquisition_system_llltv_event);

  00063	68 00 00 00 00	 push	 OFFSET ?select_target_acquisition_system_llltv_event@@YGXPAUEVENT@@@Z ; select_target_acquisition_system_llltv_event
  00068	6a 02		 push	 2
  0006a	6a 00		 push	 0
  0006c	68 cf 00 00 00	 push	 207			; 000000cfH
  00071	e8 00 00 00 00	 call	 ?set_event@@YGXHHHP6GXPAUEVENT@@@Z@Z ; set_event

; 697  : 	set_event (DIK_END, MODIFIER_LEFT_SHIFT, KEY_STATE_DOWN, toggle_eo_system_event);

  00076	68 00 00 00 00	 push	 OFFSET ?toggle_eo_system_event@@YGXPAUEVENT@@@Z ; toggle_eo_system_event
  0007b	6a 02		 push	 2
  0007d	6a 01		 push	 1
  0007f	68 cf 00 00 00	 push	 207			; 000000cfH
  00084	e8 00 00 00 00	 call	 ?set_event@@YGXHHHP6GXPAUEVENT@@@Z@Z ; set_event

; 698  : 
; 699  : 	set_event (DIK_PRIOR, MODIFIER_NONE, KEY_STATE_DOWN, select_target_acquisition_system_hms_event);

  00089	68 00 00 00 00	 push	 OFFSET ?select_target_acquisition_system_hms_event@@YGXPAUEVENT@@@Z ; select_target_acquisition_system_hms_event
  0008e	6a 02		 push	 2
  00090	6a 00		 push	 0
  00092	68 c9 00 00 00	 push	 201			; 000000c9H
  00097	e8 00 00 00 00	 call	 ?set_event@@YGXHHHP6GXPAUEVENT@@@Z@Z ; set_event

; 700  : 
; 701  : 	//
; 702  : 	// repeated for programmable joysticks ...
; 703  : 	//
; 704  : 
; 705  : 	set_event (DIK_1, MODIFIER_LEFT_SHIFT, KEY_STATE_DOWN, select_target_acquisition_system_ground_radar_event);

  0009c	68 00 00 00 00	 push	 OFFSET ?select_target_acquisition_system_ground_radar_event@@YGXPAUEVENT@@@Z ; select_target_acquisition_system_ground_radar_event
  000a1	6a 02		 push	 2
  000a3	6a 01		 push	 1
  000a5	6a 02		 push	 2
  000a7	e8 00 00 00 00	 call	 ?set_event@@YGXHHHP6GXPAUEVENT@@@Z@Z ; set_event

; 706  : 
; 707  : 	set_event (DIK_2, MODIFIER_LEFT_SHIFT, KEY_STATE_DOWN, select_target_acquisition_system_air_radar_event);

  000ac	68 00 00 00 00	 push	 OFFSET ?select_target_acquisition_system_air_radar_event@@YGXPAUEVENT@@@Z ; select_target_acquisition_system_air_radar_event
  000b1	6a 02		 push	 2
  000b3	6a 01		 push	 1
  000b5	6a 03		 push	 3
  000b7	e8 00 00 00 00	 call	 ?set_event@@YGXHHHP6GXPAUEVENT@@@Z@Z ; set_event

; 708  : 
; 709  : 	set_event (DIK_3, MODIFIER_LEFT_SHIFT, KEY_STATE_DOWN, select_target_acquisition_system_hms_event);

  000bc	68 00 00 00 00	 push	 OFFSET ?select_target_acquisition_system_hms_event@@YGXPAUEVENT@@@Z ; select_target_acquisition_system_hms_event
  000c1	6a 02		 push	 2
  000c3	6a 01		 push	 1
  000c5	6a 04		 push	 4
  000c7	e8 00 00 00 00	 call	 ?set_event@@YGXHHHP6GXPAUEVENT@@@Z@Z ; set_event

; 710  : 
; 711  : 	set_event (DIK_4, MODIFIER_LEFT_SHIFT, KEY_STATE_DOWN, select_target_acquisition_system_flir_event);

  000cc	68 00 00 00 00	 push	 OFFSET ?select_target_acquisition_system_flir_event@@YGXPAUEVENT@@@Z ; select_target_acquisition_system_flir_event
  000d1	6a 02		 push	 2
  000d3	6a 01		 push	 1
  000d5	6a 05		 push	 5
  000d7	e8 00 00 00 00	 call	 ?set_event@@YGXHHHP6GXPAUEVENT@@@Z@Z ; set_event

; 712  : 
; 713  : 	set_event (DIK_5, MODIFIER_LEFT_SHIFT, KEY_STATE_DOWN, select_target_acquisition_system_llltv_event);

  000dc	68 00 00 00 00	 push	 OFFSET ?select_target_acquisition_system_llltv_event@@YGXPAUEVENT@@@Z ; select_target_acquisition_system_llltv_event
  000e1	6a 02		 push	 2
  000e3	6a 01		 push	 1
  000e5	6a 06		 push	 6
  000e7	e8 00 00 00 00	 call	 ?set_event@@YGXHHHP6GXPAUEVENT@@@Z@Z ; set_event

; 714  : 
; 715  : 	//
; 716  : 	// target acquisition system control
; 717  : 	//
; 718  : 
; 719  : 	set_event (DIK_NUMPAD4, MODIFIER_NONE, KEY_STATE_EITHER, steer_left_event);

  000ec	68 00 00 00 00	 push	 OFFSET ?steer_left_event@@YGXPAUEVENT@@@Z ; steer_left_event
  000f1	6a 03		 push	 3
  000f3	6a 00		 push	 0
  000f5	6a 4b		 push	 75			; 0000004bH
  000f7	e8 00 00 00 00	 call	 ?set_event@@YGXHHHP6GXPAUEVENT@@@Z@Z ; set_event

; 720  : 	set_event (DIK_NUMPAD4, MODIFIER_LEFT_SHIFT, KEY_STATE_EITHER, steer_left_fast_event);

  000fc	68 00 00 00 00	 push	 OFFSET ?steer_left_fast_event@@YGXPAUEVENT@@@Z ; steer_left_fast_event
  00101	6a 03		 push	 3
  00103	6a 01		 push	 1
  00105	6a 4b		 push	 75			; 0000004bH
  00107	e8 00 00 00 00	 call	 ?set_event@@YGXHHHP6GXPAUEVENT@@@Z@Z ; set_event

; 721  : 	set_event (DIK_NUMPAD4, MODIFIER_LEFT_ALT, KEY_STATE_EITHER, steer_left_fine_event);

  0010c	68 00 00 00 00	 push	 OFFSET ?steer_left_fine_event@@YGXPAUEVENT@@@Z ; steer_left_fine_event
  00111	6a 03		 push	 3
  00113	6a 03		 push	 3
  00115	6a 4b		 push	 75			; 0000004bH
  00117	e8 00 00 00 00	 call	 ?set_event@@YGXHHHP6GXPAUEVENT@@@Z@Z ; set_event

; 722  : 
; 723  : 	set_event (DIK_NUMPAD6, MODIFIER_NONE, KEY_STATE_EITHER, steer_right_event);

  0011c	68 00 00 00 00	 push	 OFFSET ?steer_right_event@@YGXPAUEVENT@@@Z ; steer_right_event
  00121	6a 03		 push	 3
  00123	6a 00		 push	 0
  00125	6a 4d		 push	 77			; 0000004dH
  00127	e8 00 00 00 00	 call	 ?set_event@@YGXHHHP6GXPAUEVENT@@@Z@Z ; set_event

; 724  : 	set_event (DIK_NUMPAD6, MODIFIER_LEFT_SHIFT, KEY_STATE_EITHER, steer_right_fast_event);

  0012c	68 00 00 00 00	 push	 OFFSET ?steer_right_fast_event@@YGXPAUEVENT@@@Z ; steer_right_fast_event
  00131	6a 03		 push	 3
  00133	6a 01		 push	 1
  00135	6a 4d		 push	 77			; 0000004dH
  00137	e8 00 00 00 00	 call	 ?set_event@@YGXHHHP6GXPAUEVENT@@@Z@Z ; set_event

; 725  : 	set_event (DIK_NUMPAD6, MODIFIER_LEFT_ALT, KEY_STATE_EITHER, steer_right_fine_event);

  0013c	68 00 00 00 00	 push	 OFFSET ?steer_right_fine_event@@YGXPAUEVENT@@@Z ; steer_right_fine_event
  00141	6a 03		 push	 3
  00143	6a 03		 push	 3
  00145	6a 4d		 push	 77			; 0000004dH
  00147	e8 00 00 00 00	 call	 ?set_event@@YGXHHHP6GXPAUEVENT@@@Z@Z ; set_event

; 726  : 
; 727  : 	set_event (DIK_NUMPAD8, MODIFIER_NONE, KEY_STATE_EITHER, steer_up_event);

  0014c	68 00 00 00 00	 push	 OFFSET ?steer_up_event@@YGXPAUEVENT@@@Z ; steer_up_event
  00151	6a 03		 push	 3
  00153	6a 00		 push	 0
  00155	6a 48		 push	 72			; 00000048H
  00157	e8 00 00 00 00	 call	 ?set_event@@YGXHHHP6GXPAUEVENT@@@Z@Z ; set_event

; 728  : 	set_event (DIK_NUMPAD8, MODIFIER_LEFT_SHIFT, KEY_STATE_EITHER, steer_up_fast_event);

  0015c	68 00 00 00 00	 push	 OFFSET ?steer_up_fast_event@@YGXPAUEVENT@@@Z ; steer_up_fast_event
  00161	6a 03		 push	 3
  00163	6a 01		 push	 1
  00165	6a 48		 push	 72			; 00000048H
  00167	e8 00 00 00 00	 call	 ?set_event@@YGXHHHP6GXPAUEVENT@@@Z@Z ; set_event

; 729  : 	set_event (DIK_NUMPAD8, MODIFIER_LEFT_ALT, KEY_STATE_EITHER, steer_up_fine_event);

  0016c	68 00 00 00 00	 push	 OFFSET ?steer_up_fine_event@@YGXPAUEVENT@@@Z ; steer_up_fine_event
  00171	6a 03		 push	 3
  00173	6a 03		 push	 3
  00175	6a 48		 push	 72			; 00000048H
  00177	e8 00 00 00 00	 call	 ?set_event@@YGXHHHP6GXPAUEVENT@@@Z@Z ; set_event

; 730  : 
; 731  : 	set_event (DIK_NUMPAD2, MODIFIER_NONE, KEY_STATE_EITHER, steer_down_event);

  0017c	68 00 00 00 00	 push	 OFFSET ?steer_down_event@@YGXPAUEVENT@@@Z ; steer_down_event
  00181	6a 03		 push	 3
  00183	6a 00		 push	 0
  00185	6a 50		 push	 80			; 00000050H
  00187	e8 00 00 00 00	 call	 ?set_event@@YGXHHHP6GXPAUEVENT@@@Z@Z ; set_event

; 732  : 	set_event (DIK_NUMPAD2, MODIFIER_LEFT_SHIFT, KEY_STATE_EITHER, steer_down_fast_event);

  0018c	68 00 00 00 00	 push	 OFFSET ?steer_down_fast_event@@YGXPAUEVENT@@@Z ; steer_down_fast_event
  00191	6a 03		 push	 3
  00193	6a 01		 push	 1
  00195	6a 50		 push	 80			; 00000050H
  00197	e8 00 00 00 00	 call	 ?set_event@@YGXHHHP6GXPAUEVENT@@@Z@Z ; set_event

; 733  : 	set_event (DIK_NUMPAD2, MODIFIER_LEFT_ALT, KEY_STATE_EITHER, steer_down_fine_event);

  0019c	68 00 00 00 00	 push	 OFFSET ?steer_down_fine_event@@YGXPAUEVENT@@@Z ; steer_down_fine_event
  001a1	6a 03		 push	 3
  001a3	6a 03		 push	 3
  001a5	6a 50		 push	 80			; 00000050H
  001a7	e8 00 00 00 00	 call	 ?set_event@@YGXHHHP6GXPAUEVENT@@@Z@Z ; set_event

; 734  : 
; 735  : 	set_event (DIK_ADD, MODIFIER_NONE, KEY_STATE_DOWN, inc_range_event);

  001ac	68 00 00 00 00	 push	 OFFSET ?inc_range_event@@YGXPAUEVENT@@@Z ; inc_range_event
  001b1	6a 02		 push	 2
  001b3	6a 00		 push	 0
  001b5	6a 4e		 push	 78			; 0000004eH
  001b7	e8 00 00 00 00	 call	 ?set_event@@YGXHHHP6GXPAUEVENT@@@Z@Z ; set_event

; 736  : 	set_event (DIK_ADD, MODIFIER_LEFT_SHIFT, KEY_STATE_DOWN, inc_range_fast_event);

  001bc	68 00 00 00 00	 push	 OFFSET ?inc_range_fast_event@@YGXPAUEVENT@@@Z ; inc_range_fast_event
  001c1	6a 02		 push	 2
  001c3	6a 01		 push	 1
  001c5	6a 4e		 push	 78			; 0000004eH
  001c7	e8 00 00 00 00	 call	 ?set_event@@YGXHHHP6GXPAUEVENT@@@Z@Z ; set_event

; 737  : 	set_event (DIK_ADD, MODIFIER_LEFT_CONTROL, KEY_STATE_DOWN, inc_eo_zoom_event);

  001cc	68 00 00 00 00	 push	 OFFSET ?inc_eo_zoom_event@@YGXPAUEVENT@@@Z ; inc_eo_zoom_event
  001d1	6a 02		 push	 2
  001d3	6a 02		 push	 2
  001d5	6a 4e		 push	 78			; 0000004eH
  001d7	e8 00 00 00 00	 call	 ?set_event@@YGXHHHP6GXPAUEVENT@@@Z@Z ; set_event

; 738  : 
; 739  : 	set_event (DIK_SUBTRACT, MODIFIER_NONE, KEY_STATE_DOWN, dec_range_event);

  001dc	68 00 00 00 00	 push	 OFFSET ?dec_range_event@@YGXPAUEVENT@@@Z ; dec_range_event
  001e1	6a 02		 push	 2
  001e3	6a 00		 push	 0
  001e5	6a 4a		 push	 74			; 0000004aH
  001e7	e8 00 00 00 00	 call	 ?set_event@@YGXHHHP6GXPAUEVENT@@@Z@Z ; set_event

; 740  : 	set_event (DIK_SUBTRACT, MODIFIER_LEFT_SHIFT, KEY_STATE_DOWN, dec_range_fast_event);

  001ec	68 00 00 00 00	 push	 OFFSET ?dec_range_fast_event@@YGXPAUEVENT@@@Z ; dec_range_fast_event
  001f1	6a 02		 push	 2
  001f3	6a 01		 push	 1
  001f5	6a 4a		 push	 74			; 0000004aH
  001f7	e8 00 00 00 00	 call	 ?set_event@@YGXHHHP6GXPAUEVENT@@@Z@Z ; set_event

; 741  : 	set_event (DIK_SUBTRACT, MODIFIER_LEFT_CONTROL, KEY_STATE_DOWN, dec_eo_zoom_event);

  001fc	68 00 00 00 00	 push	 OFFSET ?dec_eo_zoom_event@@YGXPAUEVENT@@@Z ; dec_eo_zoom_event
  00201	6a 02		 push	 2
  00203	6a 02		 push	 2
  00205	6a 4a		 push	 74			; 0000004aH
  00207	e8 00 00 00 00	 call	 ?set_event@@YGXHHHP6GXPAUEVENT@@@Z@Z ; set_event

; 742  : 
; 743  : 	set_event (DIK_NUMPAD5, MODIFIER_NONE, KEY_STATE_DOWN, steer_centre_event);

  0020c	68 00 00 00 00	 push	 OFFSET ?steer_centre_event@@YGXPAUEVENT@@@Z ; steer_centre_event
  00211	6a 02		 push	 2
  00213	6a 00		 push	 0
  00215	6a 4c		 push	 76			; 0000004cH
  00217	e8 00 00 00 00	 call	 ?set_event@@YGXHHHP6GXPAUEVENT@@@Z@Z ; set_event

; 744  : 	set_event (DIK_NUMPAD5, MODIFIER_LEFT_SHIFT, KEY_STATE_DOWN, steer_centre_event);

  0021c	68 00 00 00 00	 push	 OFFSET ?steer_centre_event@@YGXPAUEVENT@@@Z ; steer_centre_event
  00221	6a 02		 push	 2
  00223	6a 01		 push	 1
  00225	6a 4c		 push	 76			; 0000004cH
  00227	e8 00 00 00 00	 call	 ?set_event@@YGXHHHP6GXPAUEVENT@@@Z@Z ; set_event

; 745  : 
; 746  : 	set_event (DIK_NUMPAD7, MODIFIER_NONE, KEY_STATE_DOWN, toggle_show_allied_targets_event);

  0022c	68 00 00 00 00	 push	 OFFSET ?toggle_show_allied_targets_event@@YGXPAUEVENT@@@Z ; toggle_show_allied_targets_event
  00231	6a 02		 push	 2
  00233	6a 00		 push	 0
  00235	6a 47		 push	 71			; 00000047H
  00237	e8 00 00 00 00	 call	 ?set_event@@YGXHHHP6GXPAUEVENT@@@Z@Z ; set_event

; 747  : 
; 748  : 	set_event (DIK_NUMPAD9, MODIFIER_NONE, KEY_STATE_DOWN, inc_target_priority_event);

  0023c	68 00 00 00 00	 push	 OFFSET ?inc_target_priority_event@@YGXPAUEVENT@@@Z ; inc_target_priority_event
  00241	6a 02		 push	 2
  00243	6a 00		 push	 0
  00245	6a 49		 push	 73			; 00000049H
  00247	e8 00 00 00 00	 call	 ?set_event@@YGXHHHP6GXPAUEVENT@@@Z@Z ; set_event

; 749  : 	set_event (DIK_NUMPAD9, MODIFIER_LEFT_SHIFT, KEY_STATE_DOWN, inc_target_priority_fast_event);

  0024c	68 00 00 00 00	 push	 OFFSET ?inc_target_priority_fast_event@@YGXPAUEVENT@@@Z ; inc_target_priority_fast_event
  00251	6a 02		 push	 2
  00253	6a 01		 push	 1
  00255	6a 49		 push	 73			; 00000049H
  00257	e8 00 00 00 00	 call	 ?set_event@@YGXHHHP6GXPAUEVENT@@@Z@Z ; set_event

; 750  : 
; 751  : 	set_event (DIK_NUMPAD3, MODIFIER_NONE, KEY_STATE_DOWN, dec_target_priority_event);

  0025c	68 00 00 00 00	 push	 OFFSET ?dec_target_priority_event@@YGXPAUEVENT@@@Z ; dec_target_priority_event
  00261	6a 02		 push	 2
  00263	6a 00		 push	 0
  00265	6a 51		 push	 81			; 00000051H
  00267	e8 00 00 00 00	 call	 ?set_event@@YGXHHHP6GXPAUEVENT@@@Z@Z ; set_event

; 752  : 	set_event (DIK_NUMPAD3, MODIFIER_LEFT_SHIFT, KEY_STATE_DOWN, dec_target_priority_fast_event);

  0026c	68 00 00 00 00	 push	 OFFSET ?dec_target_priority_fast_event@@YGXPAUEVENT@@@Z ; dec_target_priority_fast_event
  00271	6a 02		 push	 2
  00273	6a 01		 push	 1
  00275	6a 51		 push	 81			; 00000051H
  00277	e8 00 00 00 00	 call	 ?set_event@@YGXHHHP6GXPAUEVENT@@@Z@Z ; set_event

; 753  : 
; 754  : 	set_event (DIK_NUMPAD0, MODIFIER_NONE, KEY_STATE_DOWN, select_next_target_event);

  0027c	68 00 00 00 00	 push	 OFFSET ?select_next_target_event@@YGXPAUEVENT@@@Z ; select_next_target_event
  00281	6a 02		 push	 2
  00283	6a 00		 push	 0
  00285	6a 52		 push	 82			; 00000052H
  00287	e8 00 00 00 00	 call	 ?set_event@@YGXHHHP6GXPAUEVENT@@@Z@Z ; set_event

; 755  : 	set_event (DIK_NUMPAD0, MODIFIER_LEFT_SHIFT, KEY_STATE_DOWN, select_previous_target_event);

  0028c	68 00 00 00 00	 push	 OFFSET ?select_previous_target_event@@YGXPAUEVENT@@@Z ; select_previous_target_event
  00291	6a 02		 push	 2
  00293	6a 01		 push	 1
  00295	6a 52		 push	 82			; 00000052H
  00297	e8 00 00 00 00	 call	 ?set_event@@YGXHHHP6GXPAUEVENT@@@Z@Z ; set_event

; 756  : 
; 757  : 	set_event (DIK_NUMPAD1, MODIFIER_NONE, KEY_STATE_DOWN, toggle_auto_target_event);

  0029c	68 00 00 00 00	 push	 OFFSET ?toggle_auto_target_event@@YGXPAUEVENT@@@Z ; toggle_auto_target_event
  002a1	6a 02		 push	 2
  002a3	6a 00		 push	 0
  002a5	6a 4f		 push	 79			; 0000004fH
  002a7	e8 00 00 00 00	 call	 ?set_event@@YGXHHHP6GXPAUEVENT@@@Z@Z ; set_event

; 758  : 
; 759  : 	set_event (DIK_NUMPADENTER, MODIFIER_NONE, KEY_STATE_DOWN, toggle_lock_target_event);

  002ac	68 00 00 00 00	 push	 OFFSET ?toggle_lock_target_event@@YGXPAUEVENT@@@Z ; toggle_lock_target_event
  002b1	6a 02		 push	 2
  002b3	6a 00		 push	 0
  002b5	68 9c 00 00 00	 push	 156			; 0000009cH
  002ba	e8 00 00 00 00	 call	 ?set_event@@YGXHHHP6GXPAUEVENT@@@Z@Z ; set_event

; 760  : //	set_event (DIK_NUMPADENTER, MODIFIER_LEFT_ALT, KEY_STATE_DOWN, toggle_lock_target_event); // Jabberwock 031107 Designated targets
; 761  : 	set_event (DIK_NUMPADENTER, MODIFIER_LEFT_SHIFT, KEY_STATE_DOWN, toggle_lock_target_event);

  002bf	68 00 00 00 00	 push	 OFFSET ?toggle_lock_target_event@@YGXPAUEVENT@@@Z ; toggle_lock_target_event
  002c4	6a 02		 push	 2
  002c6	6a 01		 push	 1
  002c8	68 9c 00 00 00	 push	 156			; 0000009cH
  002cd	e8 00 00 00 00	 call	 ?set_event@@YGXHHHP6GXPAUEVENT@@@Z@Z ; set_event

; 762  : 
; 763  : // arneh 2006-11-16 - manual radar/laser control
; 764  : 	set_event (DIK_DIVIDE, MODIFIER_NONE, KEY_STATE_DOWN, target_acquisition_system_misc_function2_event);

  002d2	68 00 00 00 00	 push	 OFFSET ?target_acquisition_system_misc_function2_event@@YGXPAUEVENT@@@Z ; target_acquisition_system_misc_function2_event
  002d7	6a 02		 push	 2
  002d9	6a 00		 push	 0
  002db	68 b5 00 00 00	 push	 181			; 000000b5H
  002e0	e8 00 00 00 00	 call	 ?set_event@@YGXHHHP6GXPAUEVENT@@@Z@Z ; set_event

; 765  : 	set_event (DIK_DIVIDE, MODIFIER_LEFT_SHIFT, KEY_STATE_DOWN, target_acquisition_system_misc_function1_event);

  002e5	68 00 00 00 00	 push	 OFFSET ?target_acquisition_system_misc_function1_event@@YGXPAUEVENT@@@Z ; target_acquisition_system_misc_function1_event
  002ea	6a 02		 push	 2
  002ec	6a 01		 push	 1
  002ee	68 b5 00 00 00	 push	 181			; 000000b5H
  002f3	e8 00 00 00 00	 call	 ?set_event@@YGXHHHP6GXPAUEVENT@@@Z@Z ; set_event

; 766  : 
; 767  : 	set_event (DIK_MULTIPLY, MODIFIER_NONE, KEY_STATE_DOWN, activate_laser_event);

  002f8	68 00 00 00 00	 push	 OFFSET ?activate_laser_event@@YGXPAUEVENT@@@Z ; activate_laser_event
  002fd	6a 02		 push	 2
  002ff	6a 00		 push	 0
  00301	6a 37		 push	 55			; 00000037H
  00303	e8 00 00 00 00	 call	 ?set_event@@YGXHHHP6GXPAUEVENT@@@Z@Z ; set_event

; 768  : 
; 769  : 	set_event (DIK_S, MODIFIER_LEFT_CONTROL, KEY_STATE_DOWN, toggle_ground_stabilisation_event);

  00308	68 00 00 00 00	 push	 OFFSET ?toggle_ground_stabilisation_event@@YGXPAUEVENT@@@Z ; toggle_ground_stabilisation_event
  0030d	6a 02		 push	 2
  0030f	6a 02		 push	 2
  00311	6a 1f		 push	 31			; 0000001fH
  00313	e8 00 00 00 00	 call	 ?set_event@@YGXHHHP6GXPAUEVENT@@@Z@Z ; set_event

; 770  : 
; 771  : 	//
; 772  : 	// miscellaneous
; 773  : 	//
; 774  : 
; 775  : 	set_event (DIK_M, MODIFIER_NONE, KEY_STATE_DOWN, acknowledge_master_caution_event);

  00318	68 00 00 00 00	 push	 OFFSET ?acknowledge_master_caution_event@@YGXPAUEVENT@@@Z ; acknowledge_master_caution_event
  0031d	6a 02		 push	 2
  0031f	6a 00		 push	 0
  00321	6a 32		 push	 50			; 00000032H
  00323	e8 00 00 00 00	 call	 ?set_event@@YGXHHHP6GXPAUEVENT@@@Z@Z ; set_event

; 776  : 
; 777  : 	set_event (DIK_N, MODIFIER_NONE, KEY_STATE_DOWN, toggle_night_vision_system_event);

  00328	68 00 00 00 00	 push	 OFFSET ?toggle_night_vision_system_event@@YGXPAUEVENT@@@Z ; toggle_night_vision_system_event
  0032d	6a 02		 push	 2
  0032f	6a 00		 push	 0
  00331	6a 31		 push	 49			; 00000031H
  00333	e8 00 00 00 00	 call	 ?set_event@@YGXHHHP6GXPAUEVENT@@@Z@Z ; set_event

; 778  : 
; 779  : 	set_event (DIK_O, MODIFIER_NONE, KEY_STATE_DOWN, set_hud_bob_up_overlay_event);

  00338	68 00 00 00 00	 push	 OFFSET ?set_hud_bob_up_overlay_event@@YGXPAUEVENT@@@Z ; set_hud_bob_up_overlay_event
  0033d	6a 02		 push	 2
  0033f	6a 00		 push	 0
  00341	6a 18		 push	 24			; 00000018H
  00343	e8 00 00 00 00	 call	 ?set_event@@YGXHHHP6GXPAUEVENT@@@Z@Z ; set_event

; 780  : 
; 781  : 	set_event (DIK_O, MODIFIER_LEFT_CONTROL, KEY_STATE_DOWN, clear_hud_bob_up_overlay_event);

  00348	68 00 00 00 00	 push	 OFFSET ?clear_hud_bob_up_overlay_event@@YGXPAUEVENT@@@Z ; clear_hud_bob_up_overlay_event
  0034d	6a 02		 push	 2
  0034f	6a 02		 push	 2
  00351	6a 18		 push	 24			; 00000018H
  00353	e8 00 00 00 00	 call	 ?set_event@@YGXHHHP6GXPAUEVENT@@@Z@Z ; set_event

; 782  : 
; 783  : 	set_event (DIK_V, MODIFIER_NONE, KEY_STATE_DOWN, toggle_navigation_lights_event);

  00358	68 00 00 00 00	 push	 OFFSET ?toggle_navigation_lights_event@@YGXPAUEVENT@@@Z ; toggle_navigation_lights_event
  0035d	6a 02		 push	 2
  0035f	6a 00		 push	 0
  00361	6a 2f		 push	 47			; 0000002fH
  00363	e8 00 00 00 00	 call	 ?set_event@@YGXHHHP6GXPAUEVENT@@@Z@Z ; set_event

; 784  : 
; 785  : 	set_event (DIK_1, MODIFIER_NONE, KEY_STATE_DOWN, virtual_cockpit_track_target_event);

  00368	68 00 00 00 00	 push	 OFFSET ?virtual_cockpit_track_target_event@@YGXPAUEVENT@@@Z ; virtual_cockpit_track_target_event
  0036d	6a 02		 push	 2
  0036f	6a 00		 push	 0
  00371	6a 02		 push	 2
  00373	e8 00 00 00 00	 call	 ?set_event@@YGXHHHP6GXPAUEVENT@@@Z@Z ; set_event

; 786  : 
; 787  : 	set_event (DIK_NUMPADENTER, MODIFIER_LEFT_CONTROL, KEY_STATE_DOWN, virtual_cockpit_track_target_event);

  00378	68 00 00 00 00	 push	 OFFSET ?virtual_cockpit_track_target_event@@YGXPAUEVENT@@@Z ; virtual_cockpit_track_target_event
  0037d	6a 02		 push	 2
  0037f	6a 02		 push	 2
  00381	68 9c 00 00 00	 push	 156			; 0000009cH
  00386	e8 00 00 00 00	 call	 ?set_event@@YGXHHHP6GXPAUEVENT@@@Z@Z ; set_event

; 788  : 
; 789  : 	set_event (DIK_BACKSPACE, MODIFIER_LEFT_ALT, KEY_STATE_DOWN, select_cannon_event);

  0038b	68 00 00 00 00	 push	 OFFSET ?select_cannon_event@@YGXPAUEVENT@@@Z ; select_cannon_event
  00390	6a 02		 push	 2
  00392	6a 03		 push	 3
  00394	6a 0e		 push	 14			; 0000000eH
  00396	e8 00 00 00 00	 call	 ?set_event@@YGXHHHP6GXPAUEVENT@@@Z@Z ; set_event

; 790  : 
; 791  : 	set_event (DIK_I, MODIFIER_NONE, KEY_STATE_DOWN, toggle_infra_red_jammer_event);

  0039b	68 00 00 00 00	 push	 OFFSET ?toggle_infra_red_jammer_event@@YGXPAUEVENT@@@Z ; toggle_infra_red_jammer_event
  003a0	6a 02		 push	 2
  003a2	6a 00		 push	 0
  003a4	6a 17		 push	 23			; 00000017H
  003a6	e8 00 00 00 00	 call	 ?set_event@@YGXHHHP6GXPAUEVENT@@@Z@Z ; set_event

; 792  : 
; 793  : 	set_event (DIK_J, MODIFIER_NONE, KEY_STATE_DOWN, toggle_radar_jammer_event);

  003ab	68 00 00 00 00	 push	 OFFSET ?toggle_radar_jammer_event@@YGXPAUEVENT@@@Z ; toggle_radar_jammer_event
  003b0	6a 02		 push	 2
  003b2	6a 00		 push	 0
  003b4	6a 24		 push	 36			; 00000024H
  003b6	e8 00 00 00 00	 call	 ?set_event@@YGXHHHP6GXPAUEVENT@@@Z@Z ; set_event

; 794  : 
; 795  : 	set_event (DIK_LBRACKET, MODIFIER_NONE, KEY_STATE_DOWN, select_next_mfd_event);

  003bb	68 00 00 00 00	 push	 OFFSET ?select_next_mfd_event@@YGXPAUEVENT@@@Z ; select_next_mfd_event
  003c0	6a 02		 push	 2
  003c2	6a 00		 push	 0
  003c4	6a 1a		 push	 26			; 0000001aH
  003c6	e8 00 00 00 00	 call	 ?set_event@@YGXHHHP6GXPAUEVENT@@@Z@Z ; set_event

; 796  : 	set_event (DIK_LBRACKET, MODIFIER_LEFT_CONTROL, KEY_STATE_DOWN, toggle_mfd_on_off_event);

  003cb	68 00 00 00 00	 push	 OFFSET ?toggle_mfd_on_off_event@@YGXPAUEVENT@@@Z ; toggle_mfd_on_off_event
  003d0	6a 02		 push	 2
  003d2	6a 02		 push	 2
  003d4	6a 1a		 push	 26			; 0000001aH
  003d6	e8 00 00 00 00	 call	 ?set_event@@YGXHHHP6GXPAUEVENT@@@Z@Z ; set_event

; 797  : 
; 798  : 	////////////////////////////////////////
; 799  : 	//
; 800  : 	// JOYSTICK EVENTS
; 801  : 	//
; 802  : 	////////////////////////////////////////
; 803  : 
; 804  : 	set_event ((JOYSTICK_BUTTON + 3), MODIFIER_NONE, KEY_STATE_DOWN, select_next_target_event);

  003db	68 00 00 00 00	 push	 OFFSET ?select_next_target_event@@YGXPAUEVENT@@@Z ; select_next_target_event
  003e0	6a 02		 push	 2
  003e2	6a 00		 push	 0
  003e4	68 0e 01 00 00	 push	 270			; 0000010eH
  003e9	e8 00 00 00 00	 call	 ?set_event@@YGXHHHP6GXPAUEVENT@@@Z@Z ; set_event

; 805  : 
; 806  : 	set_event ((JOYSTICK_BUTTON + 4), MODIFIER_NONE, KEY_STATE_DOWN, virtual_cockpit_track_target_event);

  003ee	68 00 00 00 00	 push	 OFFSET ?virtual_cockpit_track_target_event@@YGXPAUEVENT@@@Z ; virtual_cockpit_track_target_event
  003f3	6a 02		 push	 2
  003f5	6a 00		 push	 0
  003f7	68 0f 01 00 00	 push	 271			; 0000010fH
  003fc	e8 00 00 00 00	 call	 ?set_event@@YGXHHHP6GXPAUEVENT@@@Z@Z ; set_event
$LN1@set_havoc_:

; 807  : 	
; 808  : }

  00401	5f		 pop	 edi
  00402	5e		 pop	 esi
  00403	5b		 pop	 ebx
  00404	8b e5		 mov	 esp, ebp
  00406	5d		 pop	 ebp
  00407	c3		 ret	 0
?set_havoc_avionics_events@@YGXXZ ENDP			; set_havoc_avionics_events
_TEXT	ENDS
END
