; Listing generated by Microsoft (R) Optimizing Compiler Version 19.16.27045.0 

	TITLE	C:\Users\nhv90\Projects\eech\aphavoc\source\gunships\avionics\havoc\ha_dam.c
	.686P
	.XMM
	include listing.inc
	.model	flat

INCLUDELIB MSVCRTD
INCLUDELIB OLDNAMES

PUBLIC	?havoc_damage@@3THAVOC_DAMAGE_FLAGS@@A		; havoc_damage
_BSS	SEGMENT
?havoc_damage@@3THAVOC_DAMAGE_FLAGS@@A DD 01H DUP (?)	; havoc_damage
_BSS	ENDS
PUBLIC	?set_havoc_weapon_damage_status@@YGXXZ		; set_havoc_weapon_damage_status
PUBLIC	?fully_repair_havoc_damage@@YGXXZ		; fully_repair_havoc_damage
PUBLIC	?partially_repair_havoc_damage@@YGXXZ		; partially_repair_havoc_damage
PUBLIC	?repair_havoc_weapon_damage@@YGXXZ		; repair_havoc_weapon_damage
PUBLIC	?damage_havoc@@YGXW4GUNSHIP_DAMAGE_LEVELS@@@Z	; damage_havoc
PUBLIC	?notify_havoc_avionics_of_dynamics_fault@@YGXI@Z ; notify_havoc_avionics_of_dynamics_fault
PUBLIC	?__LINE__Var@?0??set_havoc_weapon_damage_status@@YGXXZ@4JA ; `set_havoc_weapon_damage_status'::`1'::__LINE__Var
PUBLIC	??_C@_0EN@LEGIJMGH@c?3?2users?2nhv90?2projects?2eech?2ap@ ; `string'
PUBLIC	??_C@_00CNPNBAHC@@				; `string'
PUBLIC	?__LINE__Var@?0??damage_systems@@YGXTHAVOC_DAMAGE_FLAGS@@@Z@4JA ; `damage_systems'::`1'::__LINE__Var
PUBLIC	??_C@_07DMOCMFND@FAILURE@			; `string'
PUBLIC	??_C@_05IHELJBBC@RADAR@				; `string'
PUBLIC	??_C@_04MIGKMLBH@FLIR@				; `string'
PUBLIC	??_C@_05PNDCLKDI@LLLTV@				; `string'
PUBLIC	??_C@_05HEFADFAD@LASER@				; `string'
PUBLIC	??_C@_09MICCGOLK@RD?5JAMMER@			; `string'
PUBLIC	??_C@_09MILGCPFO@IR?5JAMMER@			; `string'
PUBLIC	??_C@_08LDOFABDJ@NAV?5COMP@			; `string'
PUBLIC	??_C@_05JNPIHJOC@COMMS@				; `string'
PUBLIC	??_C@_03EHNKNBGI@RWS@				; `string'
PUBLIC	??_C@_03HOHJDGGL@HUD@				; `string'
PUBLIC	??_C@_03GJMPEADF@HMS@				; `string'
PUBLIC	??_C@_02IHOKFKFD@TV@				; `string'
PUBLIC	??_C@_03GHDCAKCC@TWD@				; `string'
PUBLIC	??_C@_07OHKEFPKJ@DAMAGED@			; `string'
PUBLIC	??_C@_03HCHJIECN@NVG@				; `string'
PUBLIC	??_C@_06GNLFAKEN@JAMMED@			; `string'
PUBLIC	??_C@_03NMPFMOLH@GUN@				; `string'
PUBLIC	??_C@_09GLFEIKAK@HARDPOINT@			; `string'
PUBLIC	??_C@_05FOOOBDLP@CHAFF@				; `string'
PUBLIC	??_C@_06NOICFNLJ@FLARES@			; `string'
PUBLIC	??_C@_0BK@EECAIEOA@Invalid?5damage_level?5?$DN?5?$CFd@ ; `string'
PUBLIC	??_C@_08HECAMHFD@MAIN?5RTR@			; `string'
PUBLIC	??_C@_08DJILJCHC@TAIL?5RTR@			; `string'
PUBLIC	??_C@_08KNAGGCOA@ENGINE?51@			; `string'
PUBLIC	??_C@_08IGCLDBCD@ENGINE?52@			; `string'
PUBLIC	??_C@_04OKEEPDCC@FIRE@				; `string'
PUBLIC	??_C@_08IBNIHFAO@PRESSURE@			; `string'
PUBLIC	??_C@_08BBKLFAGG@LOW?5HYDR@			; `string'
PUBLIC	??_C@_08GAIDHJND@SEC?5HYDR@			; `string'
PUBLIC	??_C@_09OCHEEKPP@STABILISR@			; `string'
PUBLIC	??_C@_09BHCFOJL@FUEL?5LEAK@			; `string'
PUBLIC	??_C@_07GGBGBLMC@LOW?5OIL@			; `string'
PUBLIC	??_C@_08JPIIBFH@HIGH?5OIL@			; `string'
PUBLIC	__real@3f00002000400080
PUBLIC	__real@3feccccccccccccd
EXTRN	?process_assert@@YGXPBD0H@Z:PROC		; process_assert
EXTRN	?debug_fatal@@YAXPBDZZ:PROC			; debug_fatal
EXTRN	?set_client_server_entity_weapon_damage@@YGXPAUENTITY@@HHH@Z:PROC ; set_client_server_entity_weapon_damage
EXTRN	?get_next_available_weapon_sub_type@@YGHPAUENTITY@@@Z:PROC ; get_next_available_weapon_sub_type
EXTRN	?get_local_entity_weapon_available@@YGHPAUENTITY@@H@Z:PROC ; get_local_entity_weapon_available
EXTRN	?play_client_server_warning_message@@YGHPAUENTITY@@H@Z:PROC ; play_client_server_warning_message
EXTRN	?set_laser_is_active@@YGXH@Z:PROC		; set_laser_is_active
EXTRN	?set_ground_radar_is_active@@YGXH@Z:PROC	; set_ground_radar_is_active
EXTRN	?set_air_radar_is_active@@YGXH@Z:PROC		; set_air_radar_is_active
EXTRN	?set_gunship_weapon@@YGXH@Z:PROC		; set_gunship_weapon
EXTRN	?activate_havoc_master_caution_lamp@@YGXXZ:PROC	; activate_havoc_master_caution_lamp
EXTRN	?set_havoc_ekran_display_text@@YGXPAD000@Z:PROC	; set_havoc_ekran_display_text
EXTRN	?select_havoc_target_acquisition_system@@YGXW4TARGET_ACQUISITION_SYSTEMS@@@Z:PROC ; select_havoc_target_acquisition_system
EXTRN	?dynamics_damage_model@@YGXIH@Z:PROC		; dynamics_damage_model
EXTRN	?random_number_seed@@3HA:DWORD			; random_number_seed
EXTRN	?null_entity_pointer_message@@3PBDB:DWORD	; null_entity_pointer_message
EXTRN	?global_options@@3UGLOBAL_OPTIONS_DATA@@A:BYTE	; global_options
EXTRN	?system_comms_model@@3W4COMMS_MODEL_TYPES@@A:DWORD ; system_comms_model
EXTRN	?overload_invalid_int_type_message@@3PBDB:DWORD	; overload_invalid_int_type_message
EXTRN	?fn_set_client_server_entity_int_value@@3PAY1BBH@1P6GXPAUENTITY@@W4INT_TYPES@@H@ZA:BYTE ; fn_set_client_server_entity_int_value
EXTRN	?fn_get_local_entity_int_value@@3PAY0BBH@P6GHPAUENTITY@@W4INT_TYPES@@@ZA:BYTE ; fn_get_local_entity_int_value
EXTRN	?gunship_entity@@3PAUENTITY@@A:DWORD		; gunship_entity
EXTRN	?target_acquisition_system@@3W4TARGET_ACQUISITION_SYSTEMS@@A:DWORD ; target_acquisition_system
EXTRN	?fire_extinguisher_used@@3HA:DWORD		; fire_extinguisher_used
EXTRN	?night_vision_system_active@@3HA:DWORD		; night_vision_system_active
EXTRN	__fltused:DWORD
;	COMDAT __real@3feccccccccccccd
CONST	SEGMENT
__real@3feccccccccccccd DQ 03feccccccccccccdr	; 0.9
CONST	ENDS
;	COMDAT __real@3f00002000400080
CONST	SEGMENT
__real@3f00002000400080 DQ 03f00002000400080r	; 3.05185e-05
CONST	ENDS
;	COMDAT ??_C@_08JPIIBFH@HIGH?5OIL@
CONST	SEGMENT
??_C@_08JPIIBFH@HIGH?5OIL@ DB 'HIGH OIL', 00H		; `string'
CONST	ENDS
;	COMDAT ??_C@_07GGBGBLMC@LOW?5OIL@
CONST	SEGMENT
??_C@_07GGBGBLMC@LOW?5OIL@ DB 'LOW OIL', 00H		; `string'
CONST	ENDS
;	COMDAT ??_C@_09BHCFOJL@FUEL?5LEAK@
CONST	SEGMENT
??_C@_09BHCFOJL@FUEL?5LEAK@ DB 'FUEL LEAK', 00H		; `string'
CONST	ENDS
;	COMDAT ??_C@_09OCHEEKPP@STABILISR@
CONST	SEGMENT
??_C@_09OCHEEKPP@STABILISR@ DB 'STABILISR', 00H		; `string'
CONST	ENDS
;	COMDAT ??_C@_08GAIDHJND@SEC?5HYDR@
CONST	SEGMENT
??_C@_08GAIDHJND@SEC?5HYDR@ DB 'SEC HYDR', 00H		; `string'
CONST	ENDS
;	COMDAT ??_C@_08BBKLFAGG@LOW?5HYDR@
CONST	SEGMENT
??_C@_08BBKLFAGG@LOW?5HYDR@ DB 'LOW HYDR', 00H		; `string'
CONST	ENDS
;	COMDAT ??_C@_08IBNIHFAO@PRESSURE@
CONST	SEGMENT
??_C@_08IBNIHFAO@PRESSURE@ DB 'PRESSURE', 00H		; `string'
CONST	ENDS
;	COMDAT ??_C@_04OKEEPDCC@FIRE@
CONST	SEGMENT
??_C@_04OKEEPDCC@FIRE@ DB 'FIRE', 00H			; `string'
CONST	ENDS
;	COMDAT ??_C@_08IGCLDBCD@ENGINE?52@
CONST	SEGMENT
??_C@_08IGCLDBCD@ENGINE?52@ DB 'ENGINE 2', 00H		; `string'
CONST	ENDS
;	COMDAT ??_C@_08KNAGGCOA@ENGINE?51@
CONST	SEGMENT
??_C@_08KNAGGCOA@ENGINE?51@ DB 'ENGINE 1', 00H		; `string'
CONST	ENDS
;	COMDAT ??_C@_08DJILJCHC@TAIL?5RTR@
CONST	SEGMENT
??_C@_08DJILJCHC@TAIL?5RTR@ DB 'TAIL RTR', 00H		; `string'
CONST	ENDS
;	COMDAT ??_C@_08HECAMHFD@MAIN?5RTR@
CONST	SEGMENT
??_C@_08HECAMHFD@MAIN?5RTR@ DB 'MAIN RTR', 00H		; `string'
CONST	ENDS
;	COMDAT ??_C@_0BK@EECAIEOA@Invalid?5damage_level?5?$DN?5?$CFd@
CONST	SEGMENT
??_C@_0BK@EECAIEOA@Invalid?5damage_level?5?$DN?5?$CFd@ DB 'Invalid damage'
	DB	'_level = %d', 00H				; `string'
CONST	ENDS
;	COMDAT ??_C@_06NOICFNLJ@FLARES@
CONST	SEGMENT
??_C@_06NOICFNLJ@FLARES@ DB 'FLARES', 00H		; `string'
CONST	ENDS
;	COMDAT ??_C@_05FOOOBDLP@CHAFF@
CONST	SEGMENT
??_C@_05FOOOBDLP@CHAFF@ DB 'CHAFF', 00H			; `string'
CONST	ENDS
;	COMDAT ??_C@_09GLFEIKAK@HARDPOINT@
CONST	SEGMENT
??_C@_09GLFEIKAK@HARDPOINT@ DB 'HARDPOINT', 00H		; `string'
CONST	ENDS
;	COMDAT ??_C@_03NMPFMOLH@GUN@
CONST	SEGMENT
??_C@_03NMPFMOLH@GUN@ DB 'GUN', 00H			; `string'
CONST	ENDS
;	COMDAT ??_C@_06GNLFAKEN@JAMMED@
CONST	SEGMENT
??_C@_06GNLFAKEN@JAMMED@ DB 'JAMMED', 00H		; `string'
CONST	ENDS
;	COMDAT ??_C@_03HCHJIECN@NVG@
CONST	SEGMENT
??_C@_03HCHJIECN@NVG@ DB 'NVG', 00H			; `string'
CONST	ENDS
;	COMDAT ??_C@_07OHKEFPKJ@DAMAGED@
CONST	SEGMENT
??_C@_07OHKEFPKJ@DAMAGED@ DB 'DAMAGED', 00H		; `string'
CONST	ENDS
;	COMDAT ??_C@_03GHDCAKCC@TWD@
CONST	SEGMENT
??_C@_03GHDCAKCC@TWD@ DB 'TWD', 00H			; `string'
CONST	ENDS
;	COMDAT ??_C@_02IHOKFKFD@TV@
CONST	SEGMENT
??_C@_02IHOKFKFD@TV@ DB 'TV', 00H			; `string'
CONST	ENDS
;	COMDAT ??_C@_03GJMPEADF@HMS@
CONST	SEGMENT
??_C@_03GJMPEADF@HMS@ DB 'HMS', 00H			; `string'
CONST	ENDS
;	COMDAT ??_C@_03HOHJDGGL@HUD@
CONST	SEGMENT
??_C@_03HOHJDGGL@HUD@ DB 'HUD', 00H			; `string'
CONST	ENDS
;	COMDAT ??_C@_03EHNKNBGI@RWS@
CONST	SEGMENT
??_C@_03EHNKNBGI@RWS@ DB 'RWS', 00H			; `string'
CONST	ENDS
;	COMDAT ??_C@_05JNPIHJOC@COMMS@
CONST	SEGMENT
??_C@_05JNPIHJOC@COMMS@ DB 'COMMS', 00H			; `string'
CONST	ENDS
;	COMDAT ??_C@_08LDOFABDJ@NAV?5COMP@
CONST	SEGMENT
??_C@_08LDOFABDJ@NAV?5COMP@ DB 'NAV COMP', 00H		; `string'
CONST	ENDS
;	COMDAT ??_C@_09MILGCPFO@IR?5JAMMER@
CONST	SEGMENT
??_C@_09MILGCPFO@IR?5JAMMER@ DB 'IR JAMMER', 00H	; `string'
CONST	ENDS
;	COMDAT ??_C@_09MICCGOLK@RD?5JAMMER@
CONST	SEGMENT
??_C@_09MICCGOLK@RD?5JAMMER@ DB 'RD JAMMER', 00H	; `string'
CONST	ENDS
;	COMDAT ??_C@_05HEFADFAD@LASER@
CONST	SEGMENT
??_C@_05HEFADFAD@LASER@ DB 'LASER', 00H			; `string'
CONST	ENDS
;	COMDAT ??_C@_05PNDCLKDI@LLLTV@
CONST	SEGMENT
??_C@_05PNDCLKDI@LLLTV@ DB 'LLLTV', 00H			; `string'
CONST	ENDS
;	COMDAT ??_C@_04MIGKMLBH@FLIR@
CONST	SEGMENT
??_C@_04MIGKMLBH@FLIR@ DB 'FLIR', 00H			; `string'
CONST	ENDS
;	COMDAT ??_C@_05IHELJBBC@RADAR@
CONST	SEGMENT
??_C@_05IHELJBBC@RADAR@ DB 'RADAR', 00H			; `string'
CONST	ENDS
;	COMDAT ??_C@_07DMOCMFND@FAILURE@
CONST	SEGMENT
??_C@_07DMOCMFND@FAILURE@ DB 'FAILURE', 00H		; `string'
CONST	ENDS
;	COMDAT ?__LINE__Var@?0??damage_systems@@YGXTHAVOC_DAMAGE_FLAGS@@@Z@4JA
_DATA	SEGMENT
?__LINE__Var@?0??damage_systems@@YGXTHAVOC_DAMAGE_FLAGS@@@Z@4JA DD 019aH ; `damage_systems'::`1'::__LINE__Var
_DATA	ENDS
;	COMDAT ??_C@_00CNPNBAHC@@
CONST	SEGMENT
??_C@_00CNPNBAHC@@ DB 00H				; `string'
CONST	ENDS
;	COMDAT ??_C@_0EN@LEGIJMGH@c?3?2users?2nhv90?2projects?2eech?2ap@
CONST	SEGMENT
??_C@_0EN@LEGIJMGH@c?3?2users?2nhv90?2projects?2eech?2ap@ DB 'c:\users\nh'
	DB	'v90\projects\eech\aphavoc\source\gunships\avionics\havoc\ha_d'
	DB	'am.c', 00H					; `string'
CONST	ENDS
;	COMDAT ?__LINE__Var@?0??set_havoc_weapon_damage_status@@YGXXZ@4JA
_DATA	SEGMENT
?__LINE__Var@?0??set_havoc_weapon_damage_status@@YGXXZ@4JA DD 057H ; `set_havoc_weapon_damage_status'::`1'::__LINE__Var
_DATA	ENDS
; Function compile flags: /Odtp /ZI
; File c:\users\nhv90\projects\eech\aphavoc\source\gunships\avionics\havoc\ha_dam.c
;	COMDAT ?damage_systems@@YGXTHAVOC_DAMAGE_FLAGS@@@Z
_TEXT	SEGMENT
tv268 = -76						; size = 4
tv247 = -76						; size = 4
tv212 = -76						; size = 4
tv191 = -76						; size = 4
tv260 = -72						; size = 4
tv240 = -72						; size = 4
tv204 = -72						; size = 4
tv184 = -72						; size = 4
_en$ = -4						; size = 4
_damage$ = 8						; size = 4
?damage_systems@@YGXTHAVOC_DAMAGE_FLAGS@@@Z PROC	; damage_systems, COMDAT

; 410  : {

  00000	55		 push	 ebp
  00001	8b ec		 mov	 ebp, esp
  00003	83 ec 4c	 sub	 esp, 76			; 0000004cH
  00006	53		 push	 ebx
  00007	56		 push	 esi
  00008	57		 push	 edi

; 411  : 	entity
; 412  : 		*en;
; 413  : 
; 414  : 	en = get_gunship_entity ();

  00009	a1 00 00 00 00	 mov	 eax, DWORD PTR ?gunship_entity@@3PAUENTITY@@A ; gunship_entity
  0000e	89 45 fc	 mov	 DWORD PTR _en$[ebp], eax

; 415  : 
; 416  : 	////////////////////////////////////////
; 417  : 
; 418  : 	if (damage.radar)

  00011	8b 45 08	 mov	 eax, DWORD PTR _damage$[ebp]
  00014	83 e0 01	 and	 eax, 1
  00017	74 6d		 je	 SHORT $LN2@damage_sys

; 419  : 	{
; 420  : 		if (!havoc_damage.radar)

  00019	a1 00 00 00 00	 mov	 eax, DWORD PTR ?havoc_damage@@3THAVOC_DAMAGE_FLAGS@@A ; havoc_damage
  0001e	83 e0 01	 and	 eax, 1
  00021	75 63		 jne	 SHORT $LN2@damage_sys

; 421  : 		{
; 422  : 			activate_havoc_master_caution_lamp ();

  00023	e8 00 00 00 00	 call	 ?activate_havoc_master_caution_lamp@@YGXXZ ; activate_havoc_master_caution_lamp

; 423  : 
; 424  : 			havoc_damage.radar = TRUE;

  00028	a1 00 00 00 00	 mov	 eax, DWORD PTR ?havoc_damage@@3THAVOC_DAMAGE_FLAGS@@A ; havoc_damage
  0002d	83 c8 01	 or	 eax, 1
  00030	a3 00 00 00 00	 mov	 DWORD PTR ?havoc_damage@@3THAVOC_DAMAGE_FLAGS@@A, eax ; havoc_damage

; 425  : 
; 426  : 			dynamics_damage_model (DYNAMICS_DAMAGE_AVIONICS, FALSE);

  00035	6a 00		 push	 0
  00037	68 00 10 00 00	 push	 4096			; 00001000H
  0003c	e8 00 00 00 00	 call	 ?dynamics_damage_model@@YGXIH@Z ; dynamics_damage_model

; 427  : 
; 428  : 			set_havoc_ekran_display_text ("RADAR", "FAILURE", NULL, NULL);

  00041	6a 00		 push	 0
  00043	6a 00		 push	 0
  00045	68 00 00 00 00	 push	 OFFSET ??_C@_07DMOCMFND@FAILURE@
  0004a	68 00 00 00 00	 push	 OFFSET ??_C@_05IHELJBBC@RADAR@
  0004f	e8 00 00 00 00	 call	 ?set_havoc_ekran_display_text@@YGXPAD000@Z ; set_havoc_ekran_display_text

; 429  : 
; 430  : 			set_ground_radar_is_active(FALSE);

  00054	6a 00		 push	 0
  00056	e8 00 00 00 00	 call	 ?set_ground_radar_is_active@@YGXH@Z ; set_ground_radar_is_active

; 431  : 			set_air_radar_is_active(FALSE);

  0005b	6a 00		 push	 0
  0005d	e8 00 00 00 00	 call	 ?set_air_radar_is_active@@YGXH@Z ; set_air_radar_is_active

; 432  : 
; 433  : 			play_client_server_warning_message (en, SPEECH_SYSTEM_RADAR_FAILURE);

  00062	6a 00		 push	 0
  00064	8b 45 fc	 mov	 eax, DWORD PTR _en$[ebp]
  00067	50		 push	 eax
  00068	e8 00 00 00 00	 call	 ?play_client_server_warning_message@@YGHPAUENTITY@@H@Z ; play_client_server_warning_message

; 434  : 
; 435  : 			if
; 436  : 			(
; 437  : 				(target_acquisition_system == TARGET_ACQUISITION_SYSTEM_GROUND_RADAR) ||

  0006d	83 3d 00 00 00
	00 01		 cmp	 DWORD PTR ?target_acquisition_system@@3W4TARGET_ACQUISITION_SYSTEMS@@A, 1 ; target_acquisition_system
  00074	74 09		 je	 SHORT $LN5@damage_sys
  00076	83 3d 00 00 00
	00 02		 cmp	 DWORD PTR ?target_acquisition_system@@3W4TARGET_ACQUISITION_SYSTEMS@@A, 2 ; target_acquisition_system
  0007d	75 07		 jne	 SHORT $LN2@damage_sys
$LN5@damage_sys:

; 438  : 				(target_acquisition_system == TARGET_ACQUISITION_SYSTEM_AIR_RADAR)
; 439  : 			)
; 440  : 			{
; 441  : 				select_havoc_target_acquisition_system (TARGET_ACQUISITION_SYSTEM_OFF);

  0007f	6a 00		 push	 0
  00081	e8 00 00 00 00	 call	 ?select_havoc_target_acquisition_system@@YGXW4TARGET_ACQUISITION_SYSTEMS@@@Z ; select_havoc_target_acquisition_system
$LN2@damage_sys:

; 442  : 			}
; 443  : 		}
; 444  : 	}
; 445  : 
; 446  : 	////////////////////////////////////////
; 447  : 
; 448  : 	if (damage.flir)

  00086	8b 45 08	 mov	 eax, DWORD PTR _damage$[ebp]
  00089	d1 e8		 shr	 eax, 1
  0008b	83 e0 01	 and	 eax, 1
  0008e	74 58		 je	 SHORT $LN6@damage_sys

; 449  : 	{
; 450  : 		if (!havoc_damage.flir)

  00090	a1 00 00 00 00	 mov	 eax, DWORD PTR ?havoc_damage@@3THAVOC_DAMAGE_FLAGS@@A ; havoc_damage
  00095	d1 e8		 shr	 eax, 1
  00097	83 e0 01	 and	 eax, 1
  0009a	75 4c		 jne	 SHORT $LN6@damage_sys

; 451  : 		{
; 452  : 			activate_havoc_master_caution_lamp ();

  0009c	e8 00 00 00 00	 call	 ?activate_havoc_master_caution_lamp@@YGXXZ ; activate_havoc_master_caution_lamp

; 453  : 
; 454  : 			havoc_damage.flir = TRUE;

  000a1	a1 00 00 00 00	 mov	 eax, DWORD PTR ?havoc_damage@@3THAVOC_DAMAGE_FLAGS@@A ; havoc_damage
  000a6	83 c8 02	 or	 eax, 2
  000a9	a3 00 00 00 00	 mov	 DWORD PTR ?havoc_damage@@3THAVOC_DAMAGE_FLAGS@@A, eax ; havoc_damage

; 455  : 
; 456  : 			dynamics_damage_model (DYNAMICS_DAMAGE_AVIONICS, FALSE);

  000ae	6a 00		 push	 0
  000b0	68 00 10 00 00	 push	 4096			; 00001000H
  000b5	e8 00 00 00 00	 call	 ?dynamics_damage_model@@YGXIH@Z ; dynamics_damage_model

; 457  : 
; 458  : 			set_havoc_ekran_display_text ("FLIR", "FAILURE", NULL, NULL);

  000ba	6a 00		 push	 0
  000bc	6a 00		 push	 0
  000be	68 00 00 00 00	 push	 OFFSET ??_C@_07DMOCMFND@FAILURE@
  000c3	68 00 00 00 00	 push	 OFFSET ??_C@_04MIGKMLBH@FLIR@
  000c8	e8 00 00 00 00	 call	 ?set_havoc_ekran_display_text@@YGXPAD000@Z ; set_havoc_ekran_display_text

; 459  : 
; 460  : 			play_client_server_warning_message (en, SPEECH_SYSTEM_FLIR_FAILURE);

  000cd	6a 01		 push	 1
  000cf	8b 45 fc	 mov	 eax, DWORD PTR _en$[ebp]
  000d2	50		 push	 eax
  000d3	e8 00 00 00 00	 call	 ?play_client_server_warning_message@@YGHPAUENTITY@@H@Z ; play_client_server_warning_message

; 461  : 
; 462  : 			if (target_acquisition_system == TARGET_ACQUISITION_SYSTEM_FLIR)

  000d8	83 3d 00 00 00
	00 03		 cmp	 DWORD PTR ?target_acquisition_system@@3W4TARGET_ACQUISITION_SYSTEMS@@A, 3 ; target_acquisition_system
  000df	75 07		 jne	 SHORT $LN6@damage_sys

; 463  : 			{
; 464  : 				select_havoc_target_acquisition_system (TARGET_ACQUISITION_SYSTEM_OFF);

  000e1	6a 00		 push	 0
  000e3	e8 00 00 00 00	 call	 ?select_havoc_target_acquisition_system@@YGXW4TARGET_ACQUISITION_SYSTEMS@@@Z ; select_havoc_target_acquisition_system
$LN6@damage_sys:

; 465  : 			}
; 466  : 		}
; 467  : 	}
; 468  : 
; 469  : 	////////////////////////////////////////
; 470  : 
; 471  : 	if (damage.llltv)

  000e8	8b 45 08	 mov	 eax, DWORD PTR _damage$[ebp]
  000eb	c1 e8 03	 shr	 eax, 3
  000ee	83 e0 01	 and	 eax, 1
  000f1	74 59		 je	 SHORT $LN9@damage_sys

; 472  : 	{
; 473  : 		if (!havoc_damage.llltv)

  000f3	a1 00 00 00 00	 mov	 eax, DWORD PTR ?havoc_damage@@3THAVOC_DAMAGE_FLAGS@@A ; havoc_damage
  000f8	c1 e8 03	 shr	 eax, 3
  000fb	83 e0 01	 and	 eax, 1
  000fe	75 4c		 jne	 SHORT $LN9@damage_sys

; 474  : 		{
; 475  : 			activate_havoc_master_caution_lamp ();

  00100	e8 00 00 00 00	 call	 ?activate_havoc_master_caution_lamp@@YGXXZ ; activate_havoc_master_caution_lamp

; 476  : 
; 477  : 			havoc_damage.llltv = TRUE;

  00105	a1 00 00 00 00	 mov	 eax, DWORD PTR ?havoc_damage@@3THAVOC_DAMAGE_FLAGS@@A ; havoc_damage
  0010a	83 c8 08	 or	 eax, 8
  0010d	a3 00 00 00 00	 mov	 DWORD PTR ?havoc_damage@@3THAVOC_DAMAGE_FLAGS@@A, eax ; havoc_damage

; 478  : 
; 479  : 			dynamics_damage_model (DYNAMICS_DAMAGE_AVIONICS, FALSE);

  00112	6a 00		 push	 0
  00114	68 00 10 00 00	 push	 4096			; 00001000H
  00119	e8 00 00 00 00	 call	 ?dynamics_damage_model@@YGXIH@Z ; dynamics_damage_model

; 480  : 
; 481  : 			set_havoc_ekran_display_text ("LLLTV", "FAILURE", NULL, NULL);

  0011e	6a 00		 push	 0
  00120	6a 00		 push	 0
  00122	68 00 00 00 00	 push	 OFFSET ??_C@_07DMOCMFND@FAILURE@
  00127	68 00 00 00 00	 push	 OFFSET ??_C@_05PNDCLKDI@LLLTV@
  0012c	e8 00 00 00 00	 call	 ?set_havoc_ekran_display_text@@YGXPAD000@Z ; set_havoc_ekran_display_text

; 482  : 
; 483  : 			play_client_server_warning_message (en, SPEECH_SYSTEM_LLLTV_FAILURE);

  00131	6a 03		 push	 3
  00133	8b 45 fc	 mov	 eax, DWORD PTR _en$[ebp]
  00136	50		 push	 eax
  00137	e8 00 00 00 00	 call	 ?play_client_server_warning_message@@YGHPAUENTITY@@H@Z ; play_client_server_warning_message

; 484  : 
; 485  : 			if (target_acquisition_system == TARGET_ACQUISITION_SYSTEM_LLLTV)

  0013c	83 3d 00 00 00
	00 06		 cmp	 DWORD PTR ?target_acquisition_system@@3W4TARGET_ACQUISITION_SYSTEMS@@A, 6 ; target_acquisition_system
  00143	75 07		 jne	 SHORT $LN9@damage_sys

; 486  : 			{
; 487  : 				select_havoc_target_acquisition_system (TARGET_ACQUISITION_SYSTEM_OFF);

  00145	6a 00		 push	 0
  00147	e8 00 00 00 00	 call	 ?select_havoc_target_acquisition_system@@YGXW4TARGET_ACQUISITION_SYSTEMS@@@Z ; select_havoc_target_acquisition_system
$LN9@damage_sys:

; 488  : 			}
; 489  : 		}
; 490  : 	}
; 491  : 
; 492  : 	////////////////////////////////////////
; 493  : 
; 494  : 	if (damage.laser_range_finder)

  0014c	8b 45 08	 mov	 eax, DWORD PTR _damage$[ebp]
  0014f	c1 e8 04	 shr	 eax, 4
  00152	83 e0 01	 and	 eax, 1
  00155	74 50		 je	 SHORT $LN12@damage_sys

; 495  : 	{
; 496  : 		if (!havoc_damage.laser_range_finder)

  00157	a1 00 00 00 00	 mov	 eax, DWORD PTR ?havoc_damage@@3THAVOC_DAMAGE_FLAGS@@A ; havoc_damage
  0015c	c1 e8 04	 shr	 eax, 4
  0015f	83 e0 01	 and	 eax, 1
  00162	75 43		 jne	 SHORT $LN12@damage_sys

; 497  : 		{
; 498  : 			activate_havoc_master_caution_lamp ();

  00164	e8 00 00 00 00	 call	 ?activate_havoc_master_caution_lamp@@YGXXZ ; activate_havoc_master_caution_lamp

; 499  : 
; 500  : 			havoc_damage.laser_range_finder = TRUE;

  00169	a1 00 00 00 00	 mov	 eax, DWORD PTR ?havoc_damage@@3THAVOC_DAMAGE_FLAGS@@A ; havoc_damage
  0016e	83 c8 10	 or	 eax, 16			; 00000010H
  00171	a3 00 00 00 00	 mov	 DWORD PTR ?havoc_damage@@3THAVOC_DAMAGE_FLAGS@@A, eax ; havoc_damage

; 501  : 
; 502  : 			dynamics_damage_model (DYNAMICS_DAMAGE_AVIONICS, FALSE);

  00176	6a 00		 push	 0
  00178	68 00 10 00 00	 push	 4096			; 00001000H
  0017d	e8 00 00 00 00	 call	 ?dynamics_damage_model@@YGXIH@Z ; dynamics_damage_model

; 503  : 
; 504  : 			set_laser_is_active(FALSE);

  00182	6a 00		 push	 0
  00184	e8 00 00 00 00	 call	 ?set_laser_is_active@@YGXH@Z ; set_laser_is_active

; 505  : 
; 506  : 			set_havoc_ekran_display_text ("LASER", "FAILURE", NULL, NULL);

  00189	6a 00		 push	 0
  0018b	6a 00		 push	 0
  0018d	68 00 00 00 00	 push	 OFFSET ??_C@_07DMOCMFND@FAILURE@
  00192	68 00 00 00 00	 push	 OFFSET ??_C@_05HEFADFAD@LASER@
  00197	e8 00 00 00 00	 call	 ?set_havoc_ekran_display_text@@YGXPAD000@Z ; set_havoc_ekran_display_text

; 507  : 
; 508  : 			play_client_server_warning_message (en, SPEECH_SYSTEM_LASER_RANGE_FINDER_FAILURE);

  0019c	6a 07		 push	 7
  0019e	8b 45 fc	 mov	 eax, DWORD PTR _en$[ebp]
  001a1	50		 push	 eax
  001a2	e8 00 00 00 00	 call	 ?play_client_server_warning_message@@YGHPAUENTITY@@H@Z ; play_client_server_warning_message
$LN12@damage_sys:

; 509  : 		}
; 510  : 	}
; 511  : 
; 512  : 	////////////////////////////////////////
; 513  : 
; 514  : 	if (damage.radar_jammer)

  001a7	8b 45 08	 mov	 eax, DWORD PTR _damage$[ebp]
  001aa	c1 e8 06	 shr	 eax, 6
  001ad	83 e0 01	 and	 eax, 1
  001b0	0f 84 68 01 00
	00		 je	 $LN14@damage_sys

; 515  : 	{
; 516  : 		if (!havoc_damage.radar_jammer)

  001b6	a1 00 00 00 00	 mov	 eax, DWORD PTR ?havoc_damage@@3THAVOC_DAMAGE_FLAGS@@A ; havoc_damage
  001bb	c1 e8 06	 shr	 eax, 6
  001be	83 e0 01	 and	 eax, 1
  001c1	0f 85 57 01 00
	00		 jne	 $LN14@damage_sys

; 517  : 		{
; 518  : 			activate_havoc_master_caution_lamp ();

  001c7	e8 00 00 00 00	 call	 ?activate_havoc_master_caution_lamp@@YGXXZ ; activate_havoc_master_caution_lamp

; 519  : 
; 520  : 			havoc_damage.radar_jammer = TRUE;

  001cc	a1 00 00 00 00	 mov	 eax, DWORD PTR ?havoc_damage@@3THAVOC_DAMAGE_FLAGS@@A ; havoc_damage
  001d1	83 c8 40	 or	 eax, 64			; 00000040H
  001d4	a3 00 00 00 00	 mov	 DWORD PTR ?havoc_damage@@3THAVOC_DAMAGE_FLAGS@@A, eax ; havoc_damage

; 521  : 
; 522  : 			dynamics_damage_model (DYNAMICS_DAMAGE_AVIONICS, FALSE);

  001d9	6a 00		 push	 0
  001db	68 00 10 00 00	 push	 4096			; 00001000H
  001e0	e8 00 00 00 00	 call	 ?dynamics_damage_model@@YGXIH@Z ; dynamics_damage_model

; 523  : 
; 524  : 			set_havoc_ekran_display_text ("RD JAMMER", "FAILURE", NULL, NULL);

  001e5	6a 00		 push	 0
  001e7	6a 00		 push	 0
  001e9	68 00 00 00 00	 push	 OFFSET ??_C@_07DMOCMFND@FAILURE@
  001ee	68 00 00 00 00	 push	 OFFSET ??_C@_09MICCGOLK@RD?5JAMMER@
  001f3	e8 00 00 00 00	 call	 ?set_havoc_ekran_display_text@@YGXPAD000@Z ; set_havoc_ekran_display_text

; 525  : 
; 526  : 			play_client_server_warning_message (en, SPEECH_SYSTEM_RADAR_JAMMER_FAILURE);

  001f8	6a 08		 push	 8
  001fa	8b 45 fc	 mov	 eax, DWORD PTR _en$[ebp]
  001fd	50		 push	 eax
  001fe	e8 00 00 00 00	 call	 ?play_client_server_warning_message@@YGHPAUENTITY@@H@Z ; play_client_server_warning_message

; 527  : 
; 528  : 			if (get_local_entity_int_value (get_gunship_entity (), INT_TYPE_RADAR_JAMMER_ON))

  00203	83 3d 00 00 00
	00 00		 cmp	 DWORD PTR ?gunship_entity@@3PAUENTITY@@A, 0 ; gunship_entity
  0020a	74 0c		 je	 SHORT $LN54@damage_sys
  0020c	a1 00 00 00 00	 mov	 eax, DWORD PTR ?gunship_entity@@3PAUENTITY@@A ; gunship_entity
  00211	8b 08		 mov	 ecx, DWORD PTR [eax]
  00213	89 4d b8	 mov	 DWORD PTR tv184[ebp], ecx
  00216	eb 1d		 jmp	 SHORT $LN55@damage_sys
$LN54@damage_sys:
  00218	68 10 02 00 00	 push	 528			; 00000210H
  0021d	68 00 00 00 00	 push	 OFFSET ??_C@_0EN@LEGIJMGH@c?3?2users?2nhv90?2projects?2eech?2ap@
  00222	8b 15 00 00 00
	00		 mov	 edx, DWORD PTR ?null_entity_pointer_message@@3PBDB ; null_entity_pointer_message
  00228	52		 push	 edx
  00229	e8 00 00 00 00	 call	 ?process_assert@@YGXPBD0H@Z ; process_assert
  0022e	c7 45 b8 00 00
	00 00		 mov	 DWORD PTR tv184[ebp], 0
$LN55@damage_sys:
  00235	b8 01 00 00 00	 mov	 eax, 1
  0023a	85 c0		 test	 eax, eax
  0023c	74 09		 je	 SHORT $LN56@damage_sys
  0023e	c7 45 b4 a8 00
	00 00		 mov	 DWORD PTR tv191[ebp], 168 ; 000000a8H
  00245	eb 1d		 jmp	 SHORT $LN57@damage_sys
$LN56@damage_sys:
  00247	68 10 02 00 00	 push	 528			; 00000210H
  0024c	68 00 00 00 00	 push	 OFFSET ??_C@_0EN@LEGIJMGH@c?3?2users?2nhv90?2projects?2eech?2ap@
  00251	8b 0d 00 00 00
	00		 mov	 ecx, DWORD PTR ?overload_invalid_int_type_message@@3PBDB ; overload_invalid_int_type_message
  00257	51		 push	 ecx
  00258	e8 00 00 00 00	 call	 ?process_assert@@YGXPBD0H@Z ; process_assert
  0025d	c7 45 b4 00 00
	00 00		 mov	 DWORD PTR tv191[ebp], 0
$LN57@damage_sys:
  00264	68 a8 00 00 00	 push	 168			; 000000a8H
  00269	8b 15 00 00 00
	00		 mov	 edx, DWORD PTR ?gunship_entity@@3PAUENTITY@@A ; gunship_entity
  0026f	52		 push	 edx
  00270	69 45 b8 5c 04
	00 00		 imul	 eax, DWORD PTR tv184[ebp], 1116
  00277	8b 4d b4	 mov	 ecx, DWORD PTR tv191[ebp]
  0027a	8b 94 88 00 00
	00 00		 mov	 edx, DWORD PTR ?fn_get_local_entity_int_value@@3PAY0BBH@P6GHPAUENTITY@@W4INT_TYPES@@@ZA[eax+ecx*4]
  00281	ff d2		 call	 edx
  00283	85 c0		 test	 eax, eax
  00285	0f 84 93 00 00
	00		 je	 $LN14@damage_sys

; 529  : 			{
; 530  : 				set_client_server_entity_int_value (get_gunship_entity (), INT_TYPE_RADAR_JAMMER_ON, FALSE);

  0028b	83 3d 00 00 00
	00 00		 cmp	 DWORD PTR ?gunship_entity@@3PAUENTITY@@A, 0 ; gunship_entity
  00292	74 0c		 je	 SHORT $LN58@damage_sys
  00294	a1 00 00 00 00	 mov	 eax, DWORD PTR ?gunship_entity@@3PAUENTITY@@A ; gunship_entity
  00299	8b 08		 mov	 ecx, DWORD PTR [eax]
  0029b	89 4d b8	 mov	 DWORD PTR tv204[ebp], ecx
  0029e	eb 21		 jmp	 SHORT $LN59@damage_sys
$LN58@damage_sys:
  002a0	8b 15 00 00 00
	00		 mov	 edx, DWORD PTR ?__LINE__Var@?0??damage_systems@@YGXTHAVOC_DAMAGE_FLAGS@@@Z@4JA
  002a6	83 c2 78	 add	 edx, 120		; 00000078H
  002a9	52		 push	 edx
  002aa	68 00 00 00 00	 push	 OFFSET ??_C@_0EN@LEGIJMGH@c?3?2users?2nhv90?2projects?2eech?2ap@
  002af	a1 00 00 00 00	 mov	 eax, DWORD PTR ?null_entity_pointer_message@@3PBDB ; null_entity_pointer_message
  002b4	50		 push	 eax
  002b5	e8 00 00 00 00	 call	 ?process_assert@@YGXPBD0H@Z ; process_assert
  002ba	c7 45 b8 00 00
	00 00		 mov	 DWORD PTR tv204[ebp], 0
$LN59@damage_sys:
  002c1	b9 01 00 00 00	 mov	 ecx, 1
  002c6	85 c9		 test	 ecx, ecx
  002c8	74 09		 je	 SHORT $LN60@damage_sys
  002ca	c7 45 b4 a8 00
	00 00		 mov	 DWORD PTR tv212[ebp], 168 ; 000000a8H
  002d1	eb 21		 jmp	 SHORT $LN61@damage_sys
$LN60@damage_sys:
  002d3	8b 15 00 00 00
	00		 mov	 edx, DWORD PTR ?__LINE__Var@?0??damage_systems@@YGXTHAVOC_DAMAGE_FLAGS@@@Z@4JA
  002d9	83 c2 78	 add	 edx, 120		; 00000078H
  002dc	52		 push	 edx
  002dd	68 00 00 00 00	 push	 OFFSET ??_C@_0EN@LEGIJMGH@c?3?2users?2nhv90?2projects?2eech?2ap@
  002e2	a1 00 00 00 00	 mov	 eax, DWORD PTR ?overload_invalid_int_type_message@@3PBDB ; overload_invalid_int_type_message
  002e7	50		 push	 eax
  002e8	e8 00 00 00 00	 call	 ?process_assert@@YGXPBD0H@Z ; process_assert
  002ed	c7 45 b4 00 00
	00 00		 mov	 DWORD PTR tv212[ebp], 0
$LN61@damage_sys:
  002f4	6a 00		 push	 0
  002f6	68 a8 00 00 00	 push	 168			; 000000a8H
  002fb	8b 0d 00 00 00
	00		 mov	 ecx, DWORD PTR ?gunship_entity@@3PAUENTITY@@A ; gunship_entity
  00301	51		 push	 ecx
  00302	69 55 b8 b8 08
	00 00		 imul	 edx, DWORD PTR tv204[ebp], 2232
  00309	8b 45 b4	 mov	 eax, DWORD PTR tv212[ebp]
  0030c	8d 8c c2 00 00
	00 00		 lea	 ecx, DWORD PTR ?fn_set_client_server_entity_int_value@@3PAY1BBH@1P6GXPAUENTITY@@W4INT_TYPES@@H@ZA[edx+eax*8]
  00313	8b 15 00 00 00
	00		 mov	 edx, DWORD PTR ?system_comms_model@@3W4COMMS_MODEL_TYPES@@A ; system_comms_model
  00319	8b 04 91	 mov	 eax, DWORD PTR [ecx+edx*4]
  0031c	ff d0		 call	 eax
$LN14@damage_sys:

; 531  : 			}
; 532  : 		}
; 533  : 	}
; 534  : 
; 535  : 	////////////////////////////////////////
; 536  : 
; 537  : 	if (damage.infra_red_jammer)

  0031e	8b 45 08	 mov	 eax, DWORD PTR _damage$[ebp]
  00321	c1 e8 07	 shr	 eax, 7
  00324	83 e0 01	 and	 eax, 1
  00327	0f 84 6a 01 00
	00		 je	 $LN17@damage_sys

; 538  : 	{
; 539  : 		if (!havoc_damage.infra_red_jammer)

  0032d	a1 00 00 00 00	 mov	 eax, DWORD PTR ?havoc_damage@@3THAVOC_DAMAGE_FLAGS@@A ; havoc_damage
  00332	c1 e8 07	 shr	 eax, 7
  00335	83 e0 01	 and	 eax, 1
  00338	0f 85 59 01 00
	00		 jne	 $LN17@damage_sys

; 540  : 		{
; 541  : 			activate_havoc_master_caution_lamp ();

  0033e	e8 00 00 00 00	 call	 ?activate_havoc_master_caution_lamp@@YGXXZ ; activate_havoc_master_caution_lamp

; 542  : 
; 543  : 			havoc_damage.infra_red_jammer = TRUE;

  00343	a1 00 00 00 00	 mov	 eax, DWORD PTR ?havoc_damage@@3THAVOC_DAMAGE_FLAGS@@A ; havoc_damage
  00348	0d 80 00 00 00	 or	 eax, 128		; 00000080H
  0034d	a3 00 00 00 00	 mov	 DWORD PTR ?havoc_damage@@3THAVOC_DAMAGE_FLAGS@@A, eax ; havoc_damage

; 544  : 
; 545  : 			dynamics_damage_model (DYNAMICS_DAMAGE_AVIONICS, FALSE);

  00352	6a 00		 push	 0
  00354	68 00 10 00 00	 push	 4096			; 00001000H
  00359	e8 00 00 00 00	 call	 ?dynamics_damage_model@@YGXIH@Z ; dynamics_damage_model

; 546  : 
; 547  : 			set_havoc_ekran_display_text ("IR JAMMER", "FAILURE", NULL, NULL);

  0035e	6a 00		 push	 0
  00360	6a 00		 push	 0
  00362	68 00 00 00 00	 push	 OFFSET ??_C@_07DMOCMFND@FAILURE@
  00367	68 00 00 00 00	 push	 OFFSET ??_C@_09MILGCPFO@IR?5JAMMER@
  0036c	e8 00 00 00 00	 call	 ?set_havoc_ekran_display_text@@YGXPAD000@Z ; set_havoc_ekran_display_text

; 548  : 
; 549  : 			play_client_server_warning_message (en, SPEECH_SYSTEM_IR_JAMMER_FAILURE);

  00371	6a 09		 push	 9
  00373	8b 45 fc	 mov	 eax, DWORD PTR _en$[ebp]
  00376	50		 push	 eax
  00377	e8 00 00 00 00	 call	 ?play_client_server_warning_message@@YGHPAUENTITY@@H@Z ; play_client_server_warning_message

; 550  : 
; 551  : 			if (get_local_entity_int_value (get_gunship_entity (), INT_TYPE_INFRA_RED_JAMMER_ON))

  0037c	83 3d 00 00 00
	00 00		 cmp	 DWORD PTR ?gunship_entity@@3PAUENTITY@@A, 0 ; gunship_entity
  00383	74 0c		 je	 SHORT $LN62@damage_sys
  00385	a1 00 00 00 00	 mov	 eax, DWORD PTR ?gunship_entity@@3PAUENTITY@@A ; gunship_entity
  0038a	8b 08		 mov	 ecx, DWORD PTR [eax]
  0038c	89 4d b8	 mov	 DWORD PTR tv240[ebp], ecx
  0038f	eb 1d		 jmp	 SHORT $LN63@damage_sys
$LN62@damage_sys:
  00391	68 27 02 00 00	 push	 551			; 00000227H
  00396	68 00 00 00 00	 push	 OFFSET ??_C@_0EN@LEGIJMGH@c?3?2users?2nhv90?2projects?2eech?2ap@
  0039b	8b 15 00 00 00
	00		 mov	 edx, DWORD PTR ?null_entity_pointer_message@@3PBDB ; null_entity_pointer_message
  003a1	52		 push	 edx
  003a2	e8 00 00 00 00	 call	 ?process_assert@@YGXPBD0H@Z ; process_assert
  003a7	c7 45 b8 00 00
	00 00		 mov	 DWORD PTR tv240[ebp], 0
$LN63@damage_sys:
  003ae	b8 01 00 00 00	 mov	 eax, 1
  003b3	85 c0		 test	 eax, eax
  003b5	74 09		 je	 SHORT $LN64@damage_sys
  003b7	c7 45 b4 68 00
	00 00		 mov	 DWORD PTR tv247[ebp], 104 ; 00000068H
  003be	eb 1d		 jmp	 SHORT $LN65@damage_sys
$LN64@damage_sys:
  003c0	68 27 02 00 00	 push	 551			; 00000227H
  003c5	68 00 00 00 00	 push	 OFFSET ??_C@_0EN@LEGIJMGH@c?3?2users?2nhv90?2projects?2eech?2ap@
  003ca	8b 0d 00 00 00
	00		 mov	 ecx, DWORD PTR ?overload_invalid_int_type_message@@3PBDB ; overload_invalid_int_type_message
  003d0	51		 push	 ecx
  003d1	e8 00 00 00 00	 call	 ?process_assert@@YGXPBD0H@Z ; process_assert
  003d6	c7 45 b4 00 00
	00 00		 mov	 DWORD PTR tv247[ebp], 0
$LN65@damage_sys:
  003dd	6a 68		 push	 104			; 00000068H
  003df	8b 15 00 00 00
	00		 mov	 edx, DWORD PTR ?gunship_entity@@3PAUENTITY@@A ; gunship_entity
  003e5	52		 push	 edx
  003e6	69 45 b8 5c 04
	00 00		 imul	 eax, DWORD PTR tv240[ebp], 1116
  003ed	8b 4d b4	 mov	 ecx, DWORD PTR tv247[ebp]
  003f0	8b 94 88 00 00
	00 00		 mov	 edx, DWORD PTR ?fn_get_local_entity_int_value@@3PAY0BBH@P6GHPAUENTITY@@W4INT_TYPES@@@ZA[eax+ecx*4]
  003f7	ff d2		 call	 edx
  003f9	85 c0		 test	 eax, eax
  003fb	0f 84 96 00 00
	00		 je	 $LN17@damage_sys

; 552  : 			{
; 553  : 				set_client_server_entity_int_value (get_gunship_entity (), INT_TYPE_INFRA_RED_JAMMER_ON, FALSE);

  00401	83 3d 00 00 00
	00 00		 cmp	 DWORD PTR ?gunship_entity@@3PAUENTITY@@A, 0 ; gunship_entity
  00408	74 0c		 je	 SHORT $LN66@damage_sys
  0040a	a1 00 00 00 00	 mov	 eax, DWORD PTR ?gunship_entity@@3PAUENTITY@@A ; gunship_entity
  0040f	8b 08		 mov	 ecx, DWORD PTR [eax]
  00411	89 4d b8	 mov	 DWORD PTR tv260[ebp], ecx
  00414	eb 24		 jmp	 SHORT $LN67@damage_sys
$LN66@damage_sys:
  00416	8b 15 00 00 00
	00		 mov	 edx, DWORD PTR ?__LINE__Var@?0??damage_systems@@YGXTHAVOC_DAMAGE_FLAGS@@@Z@4JA
  0041c	81 c2 8f 00 00
	00		 add	 edx, 143		; 0000008fH
  00422	52		 push	 edx
  00423	68 00 00 00 00	 push	 OFFSET ??_C@_0EN@LEGIJMGH@c?3?2users?2nhv90?2projects?2eech?2ap@
  00428	a1 00 00 00 00	 mov	 eax, DWORD PTR ?null_entity_pointer_message@@3PBDB ; null_entity_pointer_message
  0042d	50		 push	 eax
  0042e	e8 00 00 00 00	 call	 ?process_assert@@YGXPBD0H@Z ; process_assert
  00433	c7 45 b8 00 00
	00 00		 mov	 DWORD PTR tv260[ebp], 0
$LN67@damage_sys:
  0043a	b9 01 00 00 00	 mov	 ecx, 1
  0043f	85 c9		 test	 ecx, ecx
  00441	74 09		 je	 SHORT $LN68@damage_sys
  00443	c7 45 b4 68 00
	00 00		 mov	 DWORD PTR tv268[ebp], 104 ; 00000068H
  0044a	eb 24		 jmp	 SHORT $LN69@damage_sys
$LN68@damage_sys:
  0044c	8b 15 00 00 00
	00		 mov	 edx, DWORD PTR ?__LINE__Var@?0??damage_systems@@YGXTHAVOC_DAMAGE_FLAGS@@@Z@4JA
  00452	81 c2 8f 00 00
	00		 add	 edx, 143		; 0000008fH
  00458	52		 push	 edx
  00459	68 00 00 00 00	 push	 OFFSET ??_C@_0EN@LEGIJMGH@c?3?2users?2nhv90?2projects?2eech?2ap@
  0045e	a1 00 00 00 00	 mov	 eax, DWORD PTR ?overload_invalid_int_type_message@@3PBDB ; overload_invalid_int_type_message
  00463	50		 push	 eax
  00464	e8 00 00 00 00	 call	 ?process_assert@@YGXPBD0H@Z ; process_assert
  00469	c7 45 b4 00 00
	00 00		 mov	 DWORD PTR tv268[ebp], 0
$LN69@damage_sys:
  00470	6a 00		 push	 0
  00472	6a 68		 push	 104			; 00000068H
  00474	8b 0d 00 00 00
	00		 mov	 ecx, DWORD PTR ?gunship_entity@@3PAUENTITY@@A ; gunship_entity
  0047a	51		 push	 ecx
  0047b	69 55 b8 b8 08
	00 00		 imul	 edx, DWORD PTR tv260[ebp], 2232
  00482	8b 45 b4	 mov	 eax, DWORD PTR tv268[ebp]
  00485	8d 8c c2 00 00
	00 00		 lea	 ecx, DWORD PTR ?fn_set_client_server_entity_int_value@@3PAY1BBH@1P6GXPAUENTITY@@W4INT_TYPES@@H@ZA[edx+eax*8]
  0048c	8b 15 00 00 00
	00		 mov	 edx, DWORD PTR ?system_comms_model@@3W4COMMS_MODEL_TYPES@@A ; system_comms_model
  00492	8b 04 91	 mov	 eax, DWORD PTR [ecx+edx*4]
  00495	ff d0		 call	 eax
$LN17@damage_sys:

; 554  : 			}
; 555  : 		}
; 556  : 	}
; 557  : 
; 558  : 	////////////////////////////////////////
; 559  : 
; 560  : 	if (damage.navigation_computer)

  00497	8b 45 08	 mov	 eax, DWORD PTR _damage$[ebp]
  0049a	c1 e8 09	 shr	 eax, 9
  0049d	83 e0 01	 and	 eax, 1
  004a0	74 4b		 je	 SHORT $LN20@damage_sys

; 561  : 	{
; 562  : 		if (!havoc_damage.navigation_computer)

  004a2	a1 00 00 00 00	 mov	 eax, DWORD PTR ?havoc_damage@@3THAVOC_DAMAGE_FLAGS@@A ; havoc_damage
  004a7	c1 e8 09	 shr	 eax, 9
  004aa	83 e0 01	 and	 eax, 1
  004ad	75 3e		 jne	 SHORT $LN20@damage_sys

; 563  : 		{
; 564  : 			activate_havoc_master_caution_lamp ();

  004af	e8 00 00 00 00	 call	 ?activate_havoc_master_caution_lamp@@YGXXZ ; activate_havoc_master_caution_lamp

; 565  : 
; 566  : 			havoc_damage.navigation_computer = TRUE;

  004b4	a1 00 00 00 00	 mov	 eax, DWORD PTR ?havoc_damage@@3THAVOC_DAMAGE_FLAGS@@A ; havoc_damage
  004b9	0d 00 02 00 00	 or	 eax, 512		; 00000200H
  004be	a3 00 00 00 00	 mov	 DWORD PTR ?havoc_damage@@3THAVOC_DAMAGE_FLAGS@@A, eax ; havoc_damage

; 567  : 
; 568  : 			dynamics_damage_model (DYNAMICS_DAMAGE_AVIONICS, FALSE);

  004c3	6a 00		 push	 0
  004c5	68 00 10 00 00	 push	 4096			; 00001000H
  004ca	e8 00 00 00 00	 call	 ?dynamics_damage_model@@YGXIH@Z ; dynamics_damage_model

; 569  : 
; 570  : 			set_havoc_ekran_display_text ("NAV COMP", "FAILURE", NULL, NULL);

  004cf	6a 00		 push	 0
  004d1	6a 00		 push	 0
  004d3	68 00 00 00 00	 push	 OFFSET ??_C@_07DMOCMFND@FAILURE@
  004d8	68 00 00 00 00	 push	 OFFSET ??_C@_08LDOFABDJ@NAV?5COMP@
  004dd	e8 00 00 00 00	 call	 ?set_havoc_ekran_display_text@@YGXPAD000@Z ; set_havoc_ekran_display_text

; 571  : 
; 572  : 			play_client_server_warning_message (en, SPEECH_SYSTEM_NAV_COMPUTER_FAILURE);

  004e2	6a 0a		 push	 10			; 0000000aH
  004e4	8b 45 fc	 mov	 eax, DWORD PTR _en$[ebp]
  004e7	50		 push	 eax
  004e8	e8 00 00 00 00	 call	 ?play_client_server_warning_message@@YGHPAUENTITY@@H@Z ; play_client_server_warning_message
$LN20@damage_sys:

; 573  : 		}
; 574  : 	}
; 575  : 
; 576  : 	////////////////////////////////////////
; 577  : 
; 578  : 	if (damage.communications)

  004ed	8b 45 08	 mov	 eax, DWORD PTR _damage$[ebp]
  004f0	c1 e8 0b	 shr	 eax, 11			; 0000000bH
  004f3	83 e0 01	 and	 eax, 1
  004f6	74 4b		 je	 SHORT $LN22@damage_sys

; 579  : 	{
; 580  : 		if (!havoc_damage.communications)

  004f8	a1 00 00 00 00	 mov	 eax, DWORD PTR ?havoc_damage@@3THAVOC_DAMAGE_FLAGS@@A ; havoc_damage
  004fd	c1 e8 0b	 shr	 eax, 11			; 0000000bH
  00500	83 e0 01	 and	 eax, 1
  00503	75 3e		 jne	 SHORT $LN22@damage_sys

; 581  : 		{
; 582  : 			activate_havoc_master_caution_lamp ();

  00505	e8 00 00 00 00	 call	 ?activate_havoc_master_caution_lamp@@YGXXZ ; activate_havoc_master_caution_lamp

; 583  : 
; 584  : 			havoc_damage.communications = TRUE;

  0050a	a1 00 00 00 00	 mov	 eax, DWORD PTR ?havoc_damage@@3THAVOC_DAMAGE_FLAGS@@A ; havoc_damage
  0050f	0d 00 08 00 00	 or	 eax, 2048		; 00000800H
  00514	a3 00 00 00 00	 mov	 DWORD PTR ?havoc_damage@@3THAVOC_DAMAGE_FLAGS@@A, eax ; havoc_damage

; 585  : 
; 586  : 			dynamics_damage_model (DYNAMICS_DAMAGE_AVIONICS, FALSE);

  00519	6a 00		 push	 0
  0051b	68 00 10 00 00	 push	 4096			; 00001000H
  00520	e8 00 00 00 00	 call	 ?dynamics_damage_model@@YGXIH@Z ; dynamics_damage_model

; 587  : 
; 588  : 			set_havoc_ekran_display_text ("COMMS", "FAILURE", NULL, NULL);

  00525	6a 00		 push	 0
  00527	6a 00		 push	 0
  00529	68 00 00 00 00	 push	 OFFSET ??_C@_07DMOCMFND@FAILURE@
  0052e	68 00 00 00 00	 push	 OFFSET ??_C@_05JNPIHJOC@COMMS@
  00533	e8 00 00 00 00	 call	 ?set_havoc_ekran_display_text@@YGXPAD000@Z ; set_havoc_ekran_display_text

; 589  : 
; 590  : 			play_client_server_warning_message (en, SPEECH_SYSTEM_COMMS_FAILURE);

  00538	6a 0b		 push	 11			; 0000000bH
  0053a	8b 45 fc	 mov	 eax, DWORD PTR _en$[ebp]
  0053d	50		 push	 eax
  0053e	e8 00 00 00 00	 call	 ?play_client_server_warning_message@@YGHPAUENTITY@@H@Z ; play_client_server_warning_message
$LN22@damage_sys:

; 591  : 		}
; 592  : 	}
; 593  : 
; 594  : 	////////////////////////////////////////
; 595  : 
; 596  : 	if (damage.radar_warning_system)

  00543	8b 45 08	 mov	 eax, DWORD PTR _damage$[ebp]
  00546	c1 e8 0d	 shr	 eax, 13			; 0000000dH
  00549	83 e0 01	 and	 eax, 1
  0054c	74 4b		 je	 SHORT $LN24@damage_sys

; 597  : 	{
; 598  : 		if (!havoc_damage.radar_warning_system)

  0054e	a1 00 00 00 00	 mov	 eax, DWORD PTR ?havoc_damage@@3THAVOC_DAMAGE_FLAGS@@A ; havoc_damage
  00553	c1 e8 0d	 shr	 eax, 13			; 0000000dH
  00556	83 e0 01	 and	 eax, 1
  00559	75 3e		 jne	 SHORT $LN24@damage_sys

; 599  : 		{
; 600  : 			activate_havoc_master_caution_lamp ();

  0055b	e8 00 00 00 00	 call	 ?activate_havoc_master_caution_lamp@@YGXXZ ; activate_havoc_master_caution_lamp

; 601  : 
; 602  : 			havoc_damage.radar_warning_system = TRUE;

  00560	a1 00 00 00 00	 mov	 eax, DWORD PTR ?havoc_damage@@3THAVOC_DAMAGE_FLAGS@@A ; havoc_damage
  00565	0d 00 20 00 00	 or	 eax, 8192		; 00002000H
  0056a	a3 00 00 00 00	 mov	 DWORD PTR ?havoc_damage@@3THAVOC_DAMAGE_FLAGS@@A, eax ; havoc_damage

; 603  : 
; 604  : 			dynamics_damage_model (DYNAMICS_DAMAGE_AVIONICS, FALSE);

  0056f	6a 00		 push	 0
  00571	68 00 10 00 00	 push	 4096			; 00001000H
  00576	e8 00 00 00 00	 call	 ?dynamics_damage_model@@YGXIH@Z ; dynamics_damage_model

; 605  : 
; 606  : 			set_havoc_ekran_display_text ("RWS", "FAILURE", NULL, NULL);

  0057b	6a 00		 push	 0
  0057d	6a 00		 push	 0
  0057f	68 00 00 00 00	 push	 OFFSET ??_C@_07DMOCMFND@FAILURE@
  00584	68 00 00 00 00	 push	 OFFSET ??_C@_03EHNKNBGI@RWS@
  00589	e8 00 00 00 00	 call	 ?set_havoc_ekran_display_text@@YGXPAD000@Z ; set_havoc_ekran_display_text

; 607  : 
; 608  : 			play_client_server_warning_message (en, SPEECH_SYSTEM_RADAR_WARNING_FAILURE);

  0058e	6a 0c		 push	 12			; 0000000cH
  00590	8b 45 fc	 mov	 eax, DWORD PTR _en$[ebp]
  00593	50		 push	 eax
  00594	e8 00 00 00 00	 call	 ?play_client_server_warning_message@@YGHPAUENTITY@@H@Z ; play_client_server_warning_message
$LN24@damage_sys:

; 609  : 		}
; 610  : 	}
; 611  : 
; 612  : 	////////////////////////////////////////
; 613  : 
; 614  : 	if (!get_global_simple_avionics ())

  00599	83 3d 6c 03 00
	00 00		 cmp	 DWORD PTR ?global_options@@3UGLOBAL_OPTIONS_DATA@@A+876, 0
  005a0	75 56		 jne	 SHORT $LN26@damage_sys

; 615  : 	{
; 616  : 		if (damage.head_up_display)

  005a2	8b 45 08	 mov	 eax, DWORD PTR _damage$[ebp]
  005a5	c1 e8 0f	 shr	 eax, 15			; 0000000fH
  005a8	83 e0 01	 and	 eax, 1
  005ab	74 4b		 je	 SHORT $LN26@damage_sys

; 617  : 		{
; 618  : 			if (!havoc_damage.head_up_display)

  005ad	a1 00 00 00 00	 mov	 eax, DWORD PTR ?havoc_damage@@3THAVOC_DAMAGE_FLAGS@@A ; havoc_damage
  005b2	c1 e8 0f	 shr	 eax, 15			; 0000000fH
  005b5	83 e0 01	 and	 eax, 1
  005b8	75 3e		 jne	 SHORT $LN26@damage_sys

; 619  : 			{
; 620  : 				activate_havoc_master_caution_lamp ();

  005ba	e8 00 00 00 00	 call	 ?activate_havoc_master_caution_lamp@@YGXXZ ; activate_havoc_master_caution_lamp

; 621  : 
; 622  : 				havoc_damage.head_up_display = TRUE;

  005bf	a1 00 00 00 00	 mov	 eax, DWORD PTR ?havoc_damage@@3THAVOC_DAMAGE_FLAGS@@A ; havoc_damage
  005c4	0d 00 80 00 00	 or	 eax, 32768		; 00008000H
  005c9	a3 00 00 00 00	 mov	 DWORD PTR ?havoc_damage@@3THAVOC_DAMAGE_FLAGS@@A, eax ; havoc_damage

; 623  : 
; 624  : 				dynamics_damage_model (DYNAMICS_DAMAGE_AVIONICS, FALSE);

  005ce	6a 00		 push	 0
  005d0	68 00 10 00 00	 push	 4096			; 00001000H
  005d5	e8 00 00 00 00	 call	 ?dynamics_damage_model@@YGXIH@Z ; dynamics_damage_model

; 625  : 
; 626  : 				set_havoc_ekran_display_text ("HUD", "FAILURE", NULL, NULL);

  005da	6a 00		 push	 0
  005dc	6a 00		 push	 0
  005de	68 00 00 00 00	 push	 OFFSET ??_C@_07DMOCMFND@FAILURE@
  005e3	68 00 00 00 00	 push	 OFFSET ??_C@_03HOHJDGGL@HUD@
  005e8	e8 00 00 00 00	 call	 ?set_havoc_ekran_display_text@@YGXPAD000@Z ; set_havoc_ekran_display_text

; 627  : 
; 628  : 				play_client_server_warning_message (en, SPEECH_SYSTEM_HUD_FAILURE);

  005ed	6a 0f		 push	 15			; 0000000fH
  005ef	8b 45 fc	 mov	 eax, DWORD PTR _en$[ebp]
  005f2	50		 push	 eax
  005f3	e8 00 00 00 00	 call	 ?play_client_server_warning_message@@YGHPAUENTITY@@H@Z ; play_client_server_warning_message
$LN26@damage_sys:

; 629  : 			}
; 630  : 		}
; 631  : 	}
; 632  : 
; 633  : 	////////////////////////////////////////
; 634  : 
; 635  : 	if (!get_global_simple_avionics ())

  005f8	83 3d 6c 03 00
	00 00		 cmp	 DWORD PTR ?global_options@@3UGLOBAL_OPTIONS_DATA@@A+876, 0
  005ff	75 66		 jne	 SHORT $LN29@damage_sys

; 636  : 	{
; 637  : 		if (damage.helmet_mounted_sight)

  00601	8b 45 08	 mov	 eax, DWORD PTR _damage$[ebp]
  00604	c1 e8 11	 shr	 eax, 17			; 00000011H
  00607	83 e0 01	 and	 eax, 1
  0060a	74 5b		 je	 SHORT $LN29@damage_sys

; 638  : 		{
; 639  : 			if (!havoc_damage.helmet_mounted_sight)

  0060c	a1 00 00 00 00	 mov	 eax, DWORD PTR ?havoc_damage@@3THAVOC_DAMAGE_FLAGS@@A ; havoc_damage
  00611	c1 e8 11	 shr	 eax, 17			; 00000011H
  00614	83 e0 01	 and	 eax, 1
  00617	75 4e		 jne	 SHORT $LN29@damage_sys

; 640  : 			{
; 641  : 				activate_havoc_master_caution_lamp ();

  00619	e8 00 00 00 00	 call	 ?activate_havoc_master_caution_lamp@@YGXXZ ; activate_havoc_master_caution_lamp

; 642  : 
; 643  : 				havoc_damage.helmet_mounted_sight = TRUE;

  0061e	a1 00 00 00 00	 mov	 eax, DWORD PTR ?havoc_damage@@3THAVOC_DAMAGE_FLAGS@@A ; havoc_damage
  00623	0d 00 00 02 00	 or	 eax, 131072		; 00020000H
  00628	a3 00 00 00 00	 mov	 DWORD PTR ?havoc_damage@@3THAVOC_DAMAGE_FLAGS@@A, eax ; havoc_damage

; 644  : 
; 645  : 				dynamics_damage_model (DYNAMICS_DAMAGE_AVIONICS, FALSE);

  0062d	6a 00		 push	 0
  0062f	68 00 10 00 00	 push	 4096			; 00001000H
  00634	e8 00 00 00 00	 call	 ?dynamics_damage_model@@YGXIH@Z ; dynamics_damage_model

; 646  : 
; 647  : 				set_havoc_ekran_display_text ("HMS", "FAILURE", NULL, NULL);

  00639	6a 00		 push	 0
  0063b	6a 00		 push	 0
  0063d	68 00 00 00 00	 push	 OFFSET ??_C@_07DMOCMFND@FAILURE@
  00642	68 00 00 00 00	 push	 OFFSET ??_C@_03GJMPEADF@HMS@
  00647	e8 00 00 00 00	 call	 ?set_havoc_ekran_display_text@@YGXPAD000@Z ; set_havoc_ekran_display_text

; 648  : 
; 649  : 				play_client_server_warning_message (en, SPEECH_SYSTEM_HELMET_MOUNTED_SIGHT_FAILURE);

  0064c	6a 10		 push	 16			; 00000010H
  0064e	8b 45 fc	 mov	 eax, DWORD PTR _en$[ebp]
  00651	50		 push	 eax
  00652	e8 00 00 00 00	 call	 ?play_client_server_warning_message@@YGHPAUENTITY@@H@Z ; play_client_server_warning_message

; 650  : 
; 651  : 				if (target_acquisition_system == TARGET_ACQUISITION_SYSTEM_HMS)

  00657	83 3d 00 00 00
	00 0a		 cmp	 DWORD PTR ?target_acquisition_system@@3W4TARGET_ACQUISITION_SYSTEMS@@A, 10 ; target_acquisition_system, 0000000aH
  0065e	75 07		 jne	 SHORT $LN29@damage_sys

; 652  : 				{
; 653  : 					select_havoc_target_acquisition_system (TARGET_ACQUISITION_SYSTEM_OFF);

  00660	6a 00		 push	 0
  00662	e8 00 00 00 00	 call	 ?select_havoc_target_acquisition_system@@YGXW4TARGET_ACQUISITION_SYSTEMS@@@Z ; select_havoc_target_acquisition_system
$LN29@damage_sys:

; 654  : 				}
; 655  : 			}
; 656  : 		}
; 657  : 	}
; 658  : 
; 659  : 	////////////////////////////////////////
; 660  : 
; 661  : 	if (damage.tv_display)

  00667	8b 45 08	 mov	 eax, DWORD PTR _damage$[ebp]
  0066a	c1 e8 12	 shr	 eax, 18			; 00000012H
  0066d	83 e0 01	 and	 eax, 1
  00670	74 4b		 je	 SHORT $LN33@damage_sys

; 662  : 	{
; 663  : 		if (!havoc_damage.tv_display)

  00672	a1 00 00 00 00	 mov	 eax, DWORD PTR ?havoc_damage@@3THAVOC_DAMAGE_FLAGS@@A ; havoc_damage
  00677	c1 e8 12	 shr	 eax, 18			; 00000012H
  0067a	83 e0 01	 and	 eax, 1
  0067d	75 3e		 jne	 SHORT $LN33@damage_sys

; 664  : 		{
; 665  : 			activate_havoc_master_caution_lamp ();

  0067f	e8 00 00 00 00	 call	 ?activate_havoc_master_caution_lamp@@YGXXZ ; activate_havoc_master_caution_lamp

; 666  : 
; 667  : 			havoc_damage.tv_display = TRUE;

  00684	a1 00 00 00 00	 mov	 eax, DWORD PTR ?havoc_damage@@3THAVOC_DAMAGE_FLAGS@@A ; havoc_damage
  00689	0d 00 00 04 00	 or	 eax, 262144		; 00040000H
  0068e	a3 00 00 00 00	 mov	 DWORD PTR ?havoc_damage@@3THAVOC_DAMAGE_FLAGS@@A, eax ; havoc_damage

; 668  : 
; 669  : 			dynamics_damage_model (DYNAMICS_DAMAGE_AVIONICS, FALSE);

  00693	6a 00		 push	 0
  00695	68 00 10 00 00	 push	 4096			; 00001000H
  0069a	e8 00 00 00 00	 call	 ?dynamics_damage_model@@YGXIH@Z ; dynamics_damage_model

; 670  : 
; 671  : 			set_havoc_ekran_display_text ("TV", "FAILURE", NULL, NULL);

  0069f	6a 00		 push	 0
  006a1	6a 00		 push	 0
  006a3	68 00 00 00 00	 push	 OFFSET ??_C@_07DMOCMFND@FAILURE@
  006a8	68 00 00 00 00	 push	 OFFSET ??_C@_02IHOKFKFD@TV@
  006ad	e8 00 00 00 00	 call	 ?set_havoc_ekran_display_text@@YGXPAD000@Z ; set_havoc_ekran_display_text

; 672  : 
; 673  : 			play_client_server_warning_message (en, SPEECH_SYSTEM_TV_DISPLAY_FAILURE);

  006b2	6a 13		 push	 19			; 00000013H
  006b4	8b 45 fc	 mov	 eax, DWORD PTR _en$[ebp]
  006b7	50		 push	 eax
  006b8	e8 00 00 00 00	 call	 ?play_client_server_warning_message@@YGHPAUENTITY@@H@Z ; play_client_server_warning_message
$LN33@damage_sys:

; 674  : 		}
; 675  : 	}
; 676  : 
; 677  : 	////////////////////////////////////////
; 678  : 
; 679  : 	if (damage.threat_warning_display)

  006bd	8b 45 08	 mov	 eax, DWORD PTR _damage$[ebp]
  006c0	c1 e8 14	 shr	 eax, 20			; 00000014H
  006c3	83 e0 01	 and	 eax, 1
  006c6	74 4b		 je	 SHORT $LN35@damage_sys

; 680  : 	{
; 681  : 		if (!havoc_damage.threat_warning_display)

  006c8	a1 00 00 00 00	 mov	 eax, DWORD PTR ?havoc_damage@@3THAVOC_DAMAGE_FLAGS@@A ; havoc_damage
  006cd	c1 e8 14	 shr	 eax, 20			; 00000014H
  006d0	83 e0 01	 and	 eax, 1
  006d3	75 3e		 jne	 SHORT $LN35@damage_sys

; 682  : 		{
; 683  : 			activate_havoc_master_caution_lamp ();

  006d5	e8 00 00 00 00	 call	 ?activate_havoc_master_caution_lamp@@YGXXZ ; activate_havoc_master_caution_lamp

; 684  : 
; 685  : 			havoc_damage.threat_warning_display = TRUE;

  006da	a1 00 00 00 00	 mov	 eax, DWORD PTR ?havoc_damage@@3THAVOC_DAMAGE_FLAGS@@A ; havoc_damage
  006df	0d 00 00 10 00	 or	 eax, 1048576		; 00100000H
  006e4	a3 00 00 00 00	 mov	 DWORD PTR ?havoc_damage@@3THAVOC_DAMAGE_FLAGS@@A, eax ; havoc_damage

; 686  : 
; 687  : 			dynamics_damage_model (DYNAMICS_DAMAGE_AVIONICS, FALSE);

  006e9	6a 00		 push	 0
  006eb	68 00 10 00 00	 push	 4096			; 00001000H
  006f0	e8 00 00 00 00	 call	 ?dynamics_damage_model@@YGXIH@Z ; dynamics_damage_model

; 688  : 
; 689  : 			set_havoc_ekran_display_text ("TWD", "FAILURE", NULL, NULL);

  006f5	6a 00		 push	 0
  006f7	6a 00		 push	 0
  006f9	68 00 00 00 00	 push	 OFFSET ??_C@_07DMOCMFND@FAILURE@
  006fe	68 00 00 00 00	 push	 OFFSET ??_C@_03GHDCAKCC@TWD@
  00703	e8 00 00 00 00	 call	 ?set_havoc_ekran_display_text@@YGXPAD000@Z ; set_havoc_ekran_display_text

; 690  : 
; 691  : 			play_client_server_warning_message (en, SPEECH_SYSTEM_THREAT_WARNING_DISPLAY_FAILURE);

  00708	6a 14		 push	 20			; 00000014H
  0070a	8b 45 fc	 mov	 eax, DWORD PTR _en$[ebp]
  0070d	50		 push	 eax
  0070e	e8 00 00 00 00	 call	 ?play_client_server_warning_message@@YGHPAUENTITY@@H@Z ; play_client_server_warning_message
$LN35@damage_sys:

; 692  : 		}
; 693  : 	}
; 694  : 
; 695  : 	////////////////////////////////////////
; 696  : 
; 697  : 	if (damage.night_vision_goggles)

  00713	8b 45 08	 mov	 eax, DWORD PTR _damage$[ebp]
  00716	c1 e8 15	 shr	 eax, 21			; 00000015H
  00719	83 e0 01	 and	 eax, 1
  0071c	74 55		 je	 SHORT $LN37@damage_sys

; 698  : 	{
; 699  : 		if (!havoc_damage.night_vision_goggles)

  0071e	a1 00 00 00 00	 mov	 eax, DWORD PTR ?havoc_damage@@3THAVOC_DAMAGE_FLAGS@@A ; havoc_damage
  00723	c1 e8 15	 shr	 eax, 21			; 00000015H
  00726	83 e0 01	 and	 eax, 1
  00729	75 48		 jne	 SHORT $LN37@damage_sys

; 700  : 		{
; 701  : 			activate_havoc_master_caution_lamp ();

  0072b	e8 00 00 00 00	 call	 ?activate_havoc_master_caution_lamp@@YGXXZ ; activate_havoc_master_caution_lamp

; 702  : 
; 703  : 			havoc_damage.night_vision_goggles = TRUE;

  00730	a1 00 00 00 00	 mov	 eax, DWORD PTR ?havoc_damage@@3THAVOC_DAMAGE_FLAGS@@A ; havoc_damage
  00735	0d 00 00 20 00	 or	 eax, 2097152		; 00200000H
  0073a	a3 00 00 00 00	 mov	 DWORD PTR ?havoc_damage@@3THAVOC_DAMAGE_FLAGS@@A, eax ; havoc_damage

; 704  : 
; 705  : 			dynamics_damage_model (DYNAMICS_DAMAGE_AVIONICS, FALSE);

  0073f	6a 00		 push	 0
  00741	68 00 10 00 00	 push	 4096			; 00001000H
  00746	e8 00 00 00 00	 call	 ?dynamics_damage_model@@YGXIH@Z ; dynamics_damage_model

; 706  : 
; 707  : 			set_havoc_ekran_display_text ("NVG", "DAMAGED", NULL, NULL);

  0074b	6a 00		 push	 0
  0074d	6a 00		 push	 0
  0074f	68 00 00 00 00	 push	 OFFSET ??_C@_07OHKEFPKJ@DAMAGED@
  00754	68 00 00 00 00	 push	 OFFSET ??_C@_03HCHJIECN@NVG@
  00759	e8 00 00 00 00	 call	 ?set_havoc_ekran_display_text@@YGXPAD000@Z ; set_havoc_ekran_display_text

; 708  : 
; 709  : 			play_client_server_warning_message (en, SPEECH_SYSTEM_NIGHT_VISION_GOGGLES_FAILURE);

  0075e	6a 16		 push	 22			; 00000016H
  00760	8b 45 fc	 mov	 eax, DWORD PTR _en$[ebp]
  00763	50		 push	 eax
  00764	e8 00 00 00 00	 call	 ?play_client_server_warning_message@@YGHPAUENTITY@@H@Z ; play_client_server_warning_message

; 710  : 
; 711  : 			night_vision_system_active = FALSE;

  00769	c7 05 00 00 00
	00 00 00 00 00	 mov	 DWORD PTR ?night_vision_system_active@@3HA, 0 ; night_vision_system_active
$LN37@damage_sys:

; 712  : 		}
; 713  : 	}
; 714  : 
; 715  : 	////////////////////////////////////////
; 716  : 
; 717  : 	if (damage.gun_jammed)

  00773	8b 45 08	 mov	 eax, DWORD PTR _damage$[ebp]
  00776	c1 e8 16	 shr	 eax, 22			; 00000016H
  00779	83 e0 01	 and	 eax, 1
  0077c	74 4b		 je	 SHORT $LN39@damage_sys

; 718  : 	{
; 719  : 		if (!havoc_damage.gun_jammed)

  0077e	a1 00 00 00 00	 mov	 eax, DWORD PTR ?havoc_damage@@3THAVOC_DAMAGE_FLAGS@@A ; havoc_damage
  00783	c1 e8 16	 shr	 eax, 22			; 00000016H
  00786	83 e0 01	 and	 eax, 1
  00789	75 3e		 jne	 SHORT $LN39@damage_sys

; 720  : 		{
; 721  : 			activate_havoc_master_caution_lamp ();

  0078b	e8 00 00 00 00	 call	 ?activate_havoc_master_caution_lamp@@YGXXZ ; activate_havoc_master_caution_lamp

; 722  : 
; 723  : 			havoc_damage.gun_jammed = TRUE;

  00790	a1 00 00 00 00	 mov	 eax, DWORD PTR ?havoc_damage@@3THAVOC_DAMAGE_FLAGS@@A ; havoc_damage
  00795	0d 00 00 40 00	 or	 eax, 4194304		; 00400000H
  0079a	a3 00 00 00 00	 mov	 DWORD PTR ?havoc_damage@@3THAVOC_DAMAGE_FLAGS@@A, eax ; havoc_damage

; 724  : 
; 725  : 			dynamics_damage_model (DYNAMICS_DAMAGE_AVIONICS, FALSE);

  0079f	6a 00		 push	 0
  007a1	68 00 10 00 00	 push	 4096			; 00001000H
  007a6	e8 00 00 00 00	 call	 ?dynamics_damage_model@@YGXIH@Z ; dynamics_damage_model

; 726  : 
; 727  : 			set_havoc_ekran_display_text ("GUN", "JAMMED", NULL, NULL);

  007ab	6a 00		 push	 0
  007ad	6a 00		 push	 0
  007af	68 00 00 00 00	 push	 OFFSET ??_C@_06GNLFAKEN@JAMMED@
  007b4	68 00 00 00 00	 push	 OFFSET ??_C@_03NMPFMOLH@GUN@
  007b9	e8 00 00 00 00	 call	 ?set_havoc_ekran_display_text@@YGXPAD000@Z ; set_havoc_ekran_display_text

; 728  : 
; 729  : 			play_client_server_warning_message (en, SPEECH_SYSTEM_GUN_JAMMED);

  007be	6a 17		 push	 23			; 00000017H
  007c0	8b 45 fc	 mov	 eax, DWORD PTR _en$[ebp]
  007c3	50		 push	 eax
  007c4	e8 00 00 00 00	 call	 ?play_client_server_warning_message@@YGHPAUENTITY@@H@Z ; play_client_server_warning_message
$LN39@damage_sys:

; 730  : 		}
; 731  : 	}
; 732  : 
; 733  : 	////////////////////////////////////////
; 734  : 
; 735  : 	if (damage.lh_outer_pylon)

  007c9	8b 45 08	 mov	 eax, DWORD PTR _damage$[ebp]
  007cc	c1 e8 17	 shr	 eax, 23			; 00000017H
  007cf	83 e0 01	 and	 eax, 1
  007d2	74 4b		 je	 SHORT $LN41@damage_sys

; 736  : 	{
; 737  : 		if (!havoc_damage.lh_outer_pylon)

  007d4	a1 00 00 00 00	 mov	 eax, DWORD PTR ?havoc_damage@@3THAVOC_DAMAGE_FLAGS@@A ; havoc_damage
  007d9	c1 e8 17	 shr	 eax, 23			; 00000017H
  007dc	83 e0 01	 and	 eax, 1
  007df	75 3e		 jne	 SHORT $LN41@damage_sys

; 738  : 		{
; 739  : 			activate_havoc_master_caution_lamp ();

  007e1	e8 00 00 00 00	 call	 ?activate_havoc_master_caution_lamp@@YGXXZ ; activate_havoc_master_caution_lamp

; 740  : 
; 741  : 			havoc_damage.lh_outer_pylon = TRUE;

  007e6	a1 00 00 00 00	 mov	 eax, DWORD PTR ?havoc_damage@@3THAVOC_DAMAGE_FLAGS@@A ; havoc_damage
  007eb	0d 00 00 80 00	 or	 eax, 8388608		; 00800000H
  007f0	a3 00 00 00 00	 mov	 DWORD PTR ?havoc_damage@@3THAVOC_DAMAGE_FLAGS@@A, eax ; havoc_damage

; 742  : 
; 743  : 			dynamics_damage_model (DYNAMICS_DAMAGE_AVIONICS, FALSE);

  007f5	6a 00		 push	 0
  007f7	68 00 10 00 00	 push	 4096			; 00001000H
  007fc	e8 00 00 00 00	 call	 ?dynamics_damage_model@@YGXIH@Z ; dynamics_damage_model

; 744  : 
; 745  : 			set_havoc_ekran_display_text ("HARDPOINT", "DAMAGED", NULL, NULL);

  00801	6a 00		 push	 0
  00803	6a 00		 push	 0
  00805	68 00 00 00 00	 push	 OFFSET ??_C@_07OHKEFPKJ@DAMAGED@
  0080a	68 00 00 00 00	 push	 OFFSET ??_C@_09GLFEIKAK@HARDPOINT@
  0080f	e8 00 00 00 00	 call	 ?set_havoc_ekran_display_text@@YGXPAD000@Z ; set_havoc_ekran_display_text

; 746  : 
; 747  : 			play_client_server_warning_message (en, SPEECH_SYSTEM_HARDPOINT_DAMAGED);

  00814	6a 18		 push	 24			; 00000018H
  00816	8b 45 fc	 mov	 eax, DWORD PTR _en$[ebp]
  00819	50		 push	 eax
  0081a	e8 00 00 00 00	 call	 ?play_client_server_warning_message@@YGHPAUENTITY@@H@Z ; play_client_server_warning_message
$LN41@damage_sys:

; 748  : 		}
; 749  : 	}
; 750  : 
; 751  : 	////////////////////////////////////////
; 752  : 
; 753  : 	if (damage.lh_inner_pylon)

  0081f	8b 45 08	 mov	 eax, DWORD PTR _damage$[ebp]
  00822	c1 e8 19	 shr	 eax, 25			; 00000019H
  00825	83 e0 01	 and	 eax, 1
  00828	74 4b		 je	 SHORT $LN43@damage_sys

; 754  : 	{
; 755  : 		if (!havoc_damage.lh_inner_pylon)

  0082a	a1 00 00 00 00	 mov	 eax, DWORD PTR ?havoc_damage@@3THAVOC_DAMAGE_FLAGS@@A ; havoc_damage
  0082f	c1 e8 19	 shr	 eax, 25			; 00000019H
  00832	83 e0 01	 and	 eax, 1
  00835	75 3e		 jne	 SHORT $LN43@damage_sys

; 756  : 		{
; 757  : 			activate_havoc_master_caution_lamp ();

  00837	e8 00 00 00 00	 call	 ?activate_havoc_master_caution_lamp@@YGXXZ ; activate_havoc_master_caution_lamp

; 758  : 
; 759  : 			havoc_damage.lh_inner_pylon = TRUE;

  0083c	a1 00 00 00 00	 mov	 eax, DWORD PTR ?havoc_damage@@3THAVOC_DAMAGE_FLAGS@@A ; havoc_damage
  00841	0d 00 00 00 02	 or	 eax, 33554432		; 02000000H
  00846	a3 00 00 00 00	 mov	 DWORD PTR ?havoc_damage@@3THAVOC_DAMAGE_FLAGS@@A, eax ; havoc_damage

; 760  : 
; 761  : 			dynamics_damage_model (DYNAMICS_DAMAGE_AVIONICS, FALSE);

  0084b	6a 00		 push	 0
  0084d	68 00 10 00 00	 push	 4096			; 00001000H
  00852	e8 00 00 00 00	 call	 ?dynamics_damage_model@@YGXIH@Z ; dynamics_damage_model

; 762  : 
; 763  : 			set_havoc_ekran_display_text ("HARDPOINT", "DAMAGED", NULL, NULL);

  00857	6a 00		 push	 0
  00859	6a 00		 push	 0
  0085b	68 00 00 00 00	 push	 OFFSET ??_C@_07OHKEFPKJ@DAMAGED@
  00860	68 00 00 00 00	 push	 OFFSET ??_C@_09GLFEIKAK@HARDPOINT@
  00865	e8 00 00 00 00	 call	 ?set_havoc_ekran_display_text@@YGXPAD000@Z ; set_havoc_ekran_display_text

; 764  : 
; 765  : 			play_client_server_warning_message (en, SPEECH_SYSTEM_HARDPOINT_DAMAGED);

  0086a	6a 18		 push	 24			; 00000018H
  0086c	8b 45 fc	 mov	 eax, DWORD PTR _en$[ebp]
  0086f	50		 push	 eax
  00870	e8 00 00 00 00	 call	 ?play_client_server_warning_message@@YGHPAUENTITY@@H@Z ; play_client_server_warning_message
$LN43@damage_sys:

; 766  : 		}
; 767  : 	}
; 768  : 
; 769  : 	////////////////////////////////////////
; 770  : 
; 771  : 	if (damage.rh_outer_pylon)

  00875	8b 45 08	 mov	 eax, DWORD PTR _damage$[ebp]
  00878	c1 e8 1a	 shr	 eax, 26			; 0000001aH
  0087b	83 e0 01	 and	 eax, 1
  0087e	74 4b		 je	 SHORT $LN45@damage_sys

; 772  : 	{
; 773  : 		if (!havoc_damage.rh_outer_pylon)

  00880	a1 00 00 00 00	 mov	 eax, DWORD PTR ?havoc_damage@@3THAVOC_DAMAGE_FLAGS@@A ; havoc_damage
  00885	c1 e8 1a	 shr	 eax, 26			; 0000001aH
  00888	83 e0 01	 and	 eax, 1
  0088b	75 3e		 jne	 SHORT $LN45@damage_sys

; 774  : 		{
; 775  : 			activate_havoc_master_caution_lamp ();

  0088d	e8 00 00 00 00	 call	 ?activate_havoc_master_caution_lamp@@YGXXZ ; activate_havoc_master_caution_lamp

; 776  : 
; 777  : 			havoc_damage.rh_outer_pylon = TRUE;

  00892	a1 00 00 00 00	 mov	 eax, DWORD PTR ?havoc_damage@@3THAVOC_DAMAGE_FLAGS@@A ; havoc_damage
  00897	0d 00 00 00 04	 or	 eax, 67108864		; 04000000H
  0089c	a3 00 00 00 00	 mov	 DWORD PTR ?havoc_damage@@3THAVOC_DAMAGE_FLAGS@@A, eax ; havoc_damage

; 778  : 
; 779  : 			dynamics_damage_model (DYNAMICS_DAMAGE_AVIONICS, FALSE);

  008a1	6a 00		 push	 0
  008a3	68 00 10 00 00	 push	 4096			; 00001000H
  008a8	e8 00 00 00 00	 call	 ?dynamics_damage_model@@YGXIH@Z ; dynamics_damage_model

; 780  : 
; 781  : 			set_havoc_ekran_display_text ("HARDPOINT", "DAMAGED", NULL, NULL);

  008ad	6a 00		 push	 0
  008af	6a 00		 push	 0
  008b1	68 00 00 00 00	 push	 OFFSET ??_C@_07OHKEFPKJ@DAMAGED@
  008b6	68 00 00 00 00	 push	 OFFSET ??_C@_09GLFEIKAK@HARDPOINT@
  008bb	e8 00 00 00 00	 call	 ?set_havoc_ekran_display_text@@YGXPAD000@Z ; set_havoc_ekran_display_text

; 782  : 
; 783  : 			play_client_server_warning_message (en, SPEECH_SYSTEM_HARDPOINT_DAMAGED);

  008c0	6a 18		 push	 24			; 00000018H
  008c2	8b 45 fc	 mov	 eax, DWORD PTR _en$[ebp]
  008c5	50		 push	 eax
  008c6	e8 00 00 00 00	 call	 ?play_client_server_warning_message@@YGHPAUENTITY@@H@Z ; play_client_server_warning_message
$LN45@damage_sys:

; 784  : 		}
; 785  : 	}
; 786  : 
; 787  : 	////////////////////////////////////////
; 788  : 
; 789  : 	if (damage.rh_inner_pylon)

  008cb	8b 45 08	 mov	 eax, DWORD PTR _damage$[ebp]
  008ce	c1 e8 1c	 shr	 eax, 28			; 0000001cH
  008d1	83 e0 01	 and	 eax, 1
  008d4	74 4b		 je	 SHORT $LN47@damage_sys

; 790  : 	{
; 791  : 		if (!havoc_damage.rh_inner_pylon)

  008d6	a1 00 00 00 00	 mov	 eax, DWORD PTR ?havoc_damage@@3THAVOC_DAMAGE_FLAGS@@A ; havoc_damage
  008db	c1 e8 1c	 shr	 eax, 28			; 0000001cH
  008de	83 e0 01	 and	 eax, 1
  008e1	75 3e		 jne	 SHORT $LN47@damage_sys

; 792  : 		{
; 793  : 			activate_havoc_master_caution_lamp ();

  008e3	e8 00 00 00 00	 call	 ?activate_havoc_master_caution_lamp@@YGXXZ ; activate_havoc_master_caution_lamp

; 794  : 
; 795  : 			havoc_damage.rh_inner_pylon = TRUE;

  008e8	a1 00 00 00 00	 mov	 eax, DWORD PTR ?havoc_damage@@3THAVOC_DAMAGE_FLAGS@@A ; havoc_damage
  008ed	0d 00 00 00 10	 or	 eax, 268435456		; 10000000H
  008f2	a3 00 00 00 00	 mov	 DWORD PTR ?havoc_damage@@3THAVOC_DAMAGE_FLAGS@@A, eax ; havoc_damage

; 796  : 
; 797  : 			dynamics_damage_model (DYNAMICS_DAMAGE_AVIONICS, FALSE);

  008f7	6a 00		 push	 0
  008f9	68 00 10 00 00	 push	 4096			; 00001000H
  008fe	e8 00 00 00 00	 call	 ?dynamics_damage_model@@YGXIH@Z ; dynamics_damage_model

; 798  : 
; 799  : 			set_havoc_ekran_display_text ("HARDPOINT", "DAMAGED", NULL, NULL);

  00903	6a 00		 push	 0
  00905	6a 00		 push	 0
  00907	68 00 00 00 00	 push	 OFFSET ??_C@_07OHKEFPKJ@DAMAGED@
  0090c	68 00 00 00 00	 push	 OFFSET ??_C@_09GLFEIKAK@HARDPOINT@
  00911	e8 00 00 00 00	 call	 ?set_havoc_ekran_display_text@@YGXPAD000@Z ; set_havoc_ekran_display_text

; 800  : 
; 801  : 			play_client_server_warning_message (en, SPEECH_SYSTEM_HARDPOINT_DAMAGED);

  00916	6a 18		 push	 24			; 00000018H
  00918	8b 45 fc	 mov	 eax, DWORD PTR _en$[ebp]
  0091b	50		 push	 eax
  0091c	e8 00 00 00 00	 call	 ?play_client_server_warning_message@@YGHPAUENTITY@@H@Z ; play_client_server_warning_message
$LN47@damage_sys:

; 802  : 		}
; 803  : 	}
; 804  : 
; 805  : 	////////////////////////////////////////
; 806  : 
; 807  : 	if (damage.chaff_dispenser)

  00921	8b 45 08	 mov	 eax, DWORD PTR _damage$[ebp]
  00924	c1 e8 1d	 shr	 eax, 29			; 0000001dH
  00927	83 e0 01	 and	 eax, 1
  0092a	74 4b		 je	 SHORT $LN49@damage_sys

; 808  : 	{
; 809  : 		if (!havoc_damage.chaff_dispenser)

  0092c	a1 00 00 00 00	 mov	 eax, DWORD PTR ?havoc_damage@@3THAVOC_DAMAGE_FLAGS@@A ; havoc_damage
  00931	c1 e8 1d	 shr	 eax, 29			; 0000001dH
  00934	83 e0 01	 and	 eax, 1
  00937	75 3e		 jne	 SHORT $LN49@damage_sys

; 810  : 		{
; 811  : 			activate_havoc_master_caution_lamp ();

  00939	e8 00 00 00 00	 call	 ?activate_havoc_master_caution_lamp@@YGXXZ ; activate_havoc_master_caution_lamp

; 812  : 
; 813  : 			havoc_damage.chaff_dispenser = TRUE;

  0093e	a1 00 00 00 00	 mov	 eax, DWORD PTR ?havoc_damage@@3THAVOC_DAMAGE_FLAGS@@A ; havoc_damage
  00943	0d 00 00 00 20	 or	 eax, 536870912		; 20000000H
  00948	a3 00 00 00 00	 mov	 DWORD PTR ?havoc_damage@@3THAVOC_DAMAGE_FLAGS@@A, eax ; havoc_damage

; 814  : 
; 815  : 			dynamics_damage_model (DYNAMICS_DAMAGE_AVIONICS, FALSE);

  0094d	6a 00		 push	 0
  0094f	68 00 10 00 00	 push	 4096			; 00001000H
  00954	e8 00 00 00 00	 call	 ?dynamics_damage_model@@YGXIH@Z ; dynamics_damage_model

; 816  : 
; 817  : 			set_havoc_ekran_display_text ("CHAFF", "DAMAGED", NULL, NULL);

  00959	6a 00		 push	 0
  0095b	6a 00		 push	 0
  0095d	68 00 00 00 00	 push	 OFFSET ??_C@_07OHKEFPKJ@DAMAGED@
  00962	68 00 00 00 00	 push	 OFFSET ??_C@_05FOOOBDLP@CHAFF@
  00967	e8 00 00 00 00	 call	 ?set_havoc_ekran_display_text@@YGXPAD000@Z ; set_havoc_ekran_display_text

; 818  : 
; 819  : 			play_client_server_warning_message (en, SPEECH_SYSTEM_CHAFF_DISPENSER_DAMAGED);

  0096c	6a 19		 push	 25			; 00000019H
  0096e	8b 45 fc	 mov	 eax, DWORD PTR _en$[ebp]
  00971	50		 push	 eax
  00972	e8 00 00 00 00	 call	 ?play_client_server_warning_message@@YGHPAUENTITY@@H@Z ; play_client_server_warning_message
$LN49@damage_sys:

; 820  : 		}
; 821  : 	}
; 822  : 
; 823  : 	////////////////////////////////////////
; 824  : 
; 825  : 	if (damage.flare_dispenser)

  00977	8b 45 08	 mov	 eax, DWORD PTR _damage$[ebp]
  0097a	c1 e8 1f	 shr	 eax, 31			; 0000001fH
  0097d	83 e0 01	 and	 eax, 1
  00980	74 4b		 je	 SHORT $LN51@damage_sys

; 826  : 	{
; 827  : 		if (!havoc_damage.flare_dispenser)

  00982	a1 00 00 00 00	 mov	 eax, DWORD PTR ?havoc_damage@@3THAVOC_DAMAGE_FLAGS@@A ; havoc_damage
  00987	c1 e8 1f	 shr	 eax, 31			; 0000001fH
  0098a	83 e0 01	 and	 eax, 1
  0098d	75 3e		 jne	 SHORT $LN51@damage_sys

; 828  : 		{
; 829  : 			activate_havoc_master_caution_lamp ();

  0098f	e8 00 00 00 00	 call	 ?activate_havoc_master_caution_lamp@@YGXXZ ; activate_havoc_master_caution_lamp

; 830  : 
; 831  : 			havoc_damage.flare_dispenser = TRUE;

  00994	a1 00 00 00 00	 mov	 eax, DWORD PTR ?havoc_damage@@3THAVOC_DAMAGE_FLAGS@@A ; havoc_damage
  00999	0d 00 00 00 80	 or	 eax, -2147483648	; 80000000H
  0099e	a3 00 00 00 00	 mov	 DWORD PTR ?havoc_damage@@3THAVOC_DAMAGE_FLAGS@@A, eax ; havoc_damage

; 832  : 
; 833  : 			dynamics_damage_model (DYNAMICS_DAMAGE_AVIONICS, FALSE);

  009a3	6a 00		 push	 0
  009a5	68 00 10 00 00	 push	 4096			; 00001000H
  009aa	e8 00 00 00 00	 call	 ?dynamics_damage_model@@YGXIH@Z ; dynamics_damage_model

; 834  : 
; 835  : 			set_havoc_ekran_display_text ("FLARES", "DAMAGED", NULL, NULL);

  009af	6a 00		 push	 0
  009b1	6a 00		 push	 0
  009b3	68 00 00 00 00	 push	 OFFSET ??_C@_07OHKEFPKJ@DAMAGED@
  009b8	68 00 00 00 00	 push	 OFFSET ??_C@_06NOICFNLJ@FLARES@
  009bd	e8 00 00 00 00	 call	 ?set_havoc_ekran_display_text@@YGXPAD000@Z ; set_havoc_ekran_display_text

; 836  : 
; 837  : 			play_client_server_warning_message (en, SPEECH_SYSTEM_FLARE_DISPENSER_DAMAGED);

  009c2	6a 1a		 push	 26			; 0000001aH
  009c4	8b 45 fc	 mov	 eax, DWORD PTR _en$[ebp]
  009c7	50		 push	 eax
  009c8	e8 00 00 00 00	 call	 ?play_client_server_warning_message@@YGHPAUENTITY@@H@Z ; play_client_server_warning_message
$LN51@damage_sys:

; 838  : 		}
; 839  : 	}
; 840  : 
; 841  : 	////////////////////////////////////////
; 842  : 
; 843  : 	set_havoc_weapon_damage_status ();

  009cd	e8 00 00 00 00	 call	 ?set_havoc_weapon_damage_status@@YGXXZ ; set_havoc_weapon_damage_status

; 844  : }

  009d2	5f		 pop	 edi
  009d3	5e		 pop	 esi
  009d4	5b		 pop	 ebx
  009d5	8b e5		 mov	 esp, ebp
  009d7	5d		 pop	 ebp
  009d8	c2 04 00	 ret	 4
?damage_systems@@YGXTHAVOC_DAMAGE_FLAGS@@@Z ENDP	; damage_systems
_TEXT	ENDS
; Function compile flags: /Odtp /ZI
; File c:\users\nhv90\projects\eech\aphavoc\source\gunships\avionics\havoc\ha_dam.c
;	COMDAT ?notify_havoc_avionics_of_dynamics_fault@@YGXI@Z
_TEXT	SEGMENT
_damage$ = 8						; size = 4
?notify_havoc_avionics_of_dynamics_fault@@YGXI@Z PROC	; notify_havoc_avionics_of_dynamics_fault, COMDAT

; 901  : {

  00000	55		 push	 ebp
  00001	8b ec		 mov	 ebp, esp
  00003	83 ec 40	 sub	 esp, 64			; 00000040H
  00006	53		 push	 ebx
  00007	56		 push	 esi
  00008	57		 push	 edi

; 902  : 	if (damage & DYNAMICS_DAMAGE_MAIN_ROTOR)

  00009	8b 45 08	 mov	 eax, DWORD PTR _damage$[ebp]
  0000c	83 e0 02	 and	 eax, 2
  0000f	74 18		 je	 SHORT $LN2@notify_hav

; 903  : 	{
; 904  : 		activate_havoc_master_caution_lamp ();

  00011	e8 00 00 00 00	 call	 ?activate_havoc_master_caution_lamp@@YGXXZ ; activate_havoc_master_caution_lamp

; 905  : 
; 906  : 		set_havoc_ekran_display_text ("MAIN RTR", "DAMAGED", NULL, NULL);

  00016	6a 00		 push	 0
  00018	6a 00		 push	 0
  0001a	68 00 00 00 00	 push	 OFFSET ??_C@_07OHKEFPKJ@DAMAGED@
  0001f	68 00 00 00 00	 push	 OFFSET ??_C@_08HECAMHFD@MAIN?5RTR@
  00024	e8 00 00 00 00	 call	 ?set_havoc_ekran_display_text@@YGXPAD000@Z ; set_havoc_ekran_display_text
$LN2@notify_hav:

; 907  : 	}
; 908  : 
; 909  : 	if (damage & DYNAMICS_DAMAGE_TAIL_ROTOR)

  00029	8b 45 08	 mov	 eax, DWORD PTR _damage$[ebp]
  0002c	83 e0 04	 and	 eax, 4
  0002f	74 18		 je	 SHORT $LN3@notify_hav

; 910  : 	{
; 911  : 		activate_havoc_master_caution_lamp ();

  00031	e8 00 00 00 00	 call	 ?activate_havoc_master_caution_lamp@@YGXXZ ; activate_havoc_master_caution_lamp

; 912  : 
; 913  : 		set_havoc_ekran_display_text ("TAIL RTR", "DAMAGED", NULL, NULL);

  00036	6a 00		 push	 0
  00038	6a 00		 push	 0
  0003a	68 00 00 00 00	 push	 OFFSET ??_C@_07OHKEFPKJ@DAMAGED@
  0003f	68 00 00 00 00	 push	 OFFSET ??_C@_08DJILJCHC@TAIL?5RTR@
  00044	e8 00 00 00 00	 call	 ?set_havoc_ekran_display_text@@YGXPAD000@Z ; set_havoc_ekran_display_text
$LN3@notify_hav:

; 914  : 	}
; 915  : 
; 916  : 	if (damage & DYNAMICS_DAMAGE_LEFT_ENGINE)

  00049	8b 45 08	 mov	 eax, DWORD PTR _damage$[ebp]
  0004c	83 e0 08	 and	 eax, 8
  0004f	74 18		 je	 SHORT $LN4@notify_hav

; 917  : 	{
; 918  : 		activate_havoc_master_caution_lamp ();

  00051	e8 00 00 00 00	 call	 ?activate_havoc_master_caution_lamp@@YGXXZ ; activate_havoc_master_caution_lamp

; 919  : 
; 920  : 		set_havoc_ekran_display_text ("ENGINE 1", "DAMAGED", NULL, NULL);

  00056	6a 00		 push	 0
  00058	6a 00		 push	 0
  0005a	68 00 00 00 00	 push	 OFFSET ??_C@_07OHKEFPKJ@DAMAGED@
  0005f	68 00 00 00 00	 push	 OFFSET ??_C@_08KNAGGCOA@ENGINE?51@
  00064	e8 00 00 00 00	 call	 ?set_havoc_ekran_display_text@@YGXPAD000@Z ; set_havoc_ekran_display_text
$LN4@notify_hav:

; 921  : 	}
; 922  : 
; 923  : 	if (damage & DYNAMICS_DAMAGE_RIGHT_ENGINE)

  00069	8b 45 08	 mov	 eax, DWORD PTR _damage$[ebp]
  0006c	83 e0 10	 and	 eax, 16			; 00000010H
  0006f	74 18		 je	 SHORT $LN5@notify_hav

; 924  : 	{
; 925  : 		activate_havoc_master_caution_lamp ();

  00071	e8 00 00 00 00	 call	 ?activate_havoc_master_caution_lamp@@YGXXZ ; activate_havoc_master_caution_lamp

; 926  : 
; 927  : 		set_havoc_ekran_display_text ("ENGINE 2", "DAMAGED", NULL, NULL);

  00076	6a 00		 push	 0
  00078	6a 00		 push	 0
  0007a	68 00 00 00 00	 push	 OFFSET ??_C@_07OHKEFPKJ@DAMAGED@
  0007f	68 00 00 00 00	 push	 OFFSET ??_C@_08IGCLDBCD@ENGINE?52@
  00084	e8 00 00 00 00	 call	 ?set_havoc_ekran_display_text@@YGXPAD000@Z ; set_havoc_ekran_display_text
$LN5@notify_hav:

; 928  : 	}
; 929  : 
; 930  : 	if (damage & DYNAMICS_DAMAGE_LEFT_ENGINE_FIRE)

  00089	8b 45 08	 mov	 eax, DWORD PTR _damage$[ebp]
  0008c	83 e0 20	 and	 eax, 32			; 00000020H
  0008f	74 18		 je	 SHORT $LN6@notify_hav

; 931  : 	{
; 932  : 		activate_havoc_master_caution_lamp ();

  00091	e8 00 00 00 00	 call	 ?activate_havoc_master_caution_lamp@@YGXXZ ; activate_havoc_master_caution_lamp

; 933  : 
; 934  : 		set_havoc_ekran_display_text ("ENGINE 1", "FIRE", NULL, NULL);

  00096	6a 00		 push	 0
  00098	6a 00		 push	 0
  0009a	68 00 00 00 00	 push	 OFFSET ??_C@_04OKEEPDCC@FIRE@
  0009f	68 00 00 00 00	 push	 OFFSET ??_C@_08KNAGGCOA@ENGINE?51@
  000a4	e8 00 00 00 00	 call	 ?set_havoc_ekran_display_text@@YGXPAD000@Z ; set_havoc_ekran_display_text
$LN6@notify_hav:

; 935  : 	}
; 936  : 
; 937  : 	if (damage & DYNAMICS_DAMAGE_RIGHT_ENGINE_FIRE)

  000a9	8b 45 08	 mov	 eax, DWORD PTR _damage$[ebp]
  000ac	83 e0 40	 and	 eax, 64			; 00000040H
  000af	74 18		 je	 SHORT $LN7@notify_hav

; 938  : 	{
; 939  : 		activate_havoc_master_caution_lamp ();

  000b1	e8 00 00 00 00	 call	 ?activate_havoc_master_caution_lamp@@YGXXZ ; activate_havoc_master_caution_lamp

; 940  : 
; 941  : 		set_havoc_ekran_display_text ("ENGINE 2", "FIRE", NULL, NULL);

  000b6	6a 00		 push	 0
  000b8	6a 00		 push	 0
  000ba	68 00 00 00 00	 push	 OFFSET ??_C@_04OKEEPDCC@FIRE@
  000bf	68 00 00 00 00	 push	 OFFSET ??_C@_08IGCLDBCD@ENGINE?52@
  000c4	e8 00 00 00 00	 call	 ?set_havoc_ekran_display_text@@YGXPAD000@Z ; set_havoc_ekran_display_text
$LN7@notify_hav:

; 942  : 	}
; 943  : 
; 944  : 	if (damage & DYNAMICS_DAMAGE_LOW_HYDRAULICS)

  000c9	8b 45 08	 mov	 eax, DWORD PTR _damage$[ebp]
  000cc	25 80 00 00 00	 and	 eax, 128		; 00000080H
  000d1	74 18		 je	 SHORT $LN8@notify_hav

; 945  : 	{
; 946  : 		activate_havoc_master_caution_lamp ();

  000d3	e8 00 00 00 00	 call	 ?activate_havoc_master_caution_lamp@@YGXXZ ; activate_havoc_master_caution_lamp

; 947  : 
; 948  : 		set_havoc_ekran_display_text ("LOW HYDR", "PRESSURE", NULL, NULL);

  000d8	6a 00		 push	 0
  000da	6a 00		 push	 0
  000dc	68 00 00 00 00	 push	 OFFSET ??_C@_08IBNIHFAO@PRESSURE@
  000e1	68 00 00 00 00	 push	 OFFSET ??_C@_08BBKLFAGG@LOW?5HYDR@
  000e6	e8 00 00 00 00	 call	 ?set_havoc_ekran_display_text@@YGXPAD000@Z ; set_havoc_ekran_display_text
$LN8@notify_hav:

; 949  : 	}
; 950  : 
; 951  : 	if (damage & DYNAMICS_DAMAGE_SECONDARY_HYDRAULICS)

  000eb	8b 45 08	 mov	 eax, DWORD PTR _damage$[ebp]
  000ee	25 00 00 02 00	 and	 eax, 131072		; 00020000H
  000f3	74 18		 je	 SHORT $LN9@notify_hav

; 952  : 	{
; 953  : 		activate_havoc_master_caution_lamp ();

  000f5	e8 00 00 00 00	 call	 ?activate_havoc_master_caution_lamp@@YGXXZ ; activate_havoc_master_caution_lamp

; 954  : 
; 955  : 		set_havoc_ekran_display_text ("SEC HYDR", "DAMAGED", NULL, NULL);

  000fa	6a 00		 push	 0
  000fc	6a 00		 push	 0
  000fe	68 00 00 00 00	 push	 OFFSET ??_C@_07OHKEFPKJ@DAMAGED@
  00103	68 00 00 00 00	 push	 OFFSET ??_C@_08GAIDHJND@SEC?5HYDR@
  00108	e8 00 00 00 00	 call	 ?set_havoc_ekran_display_text@@YGXPAD000@Z ; set_havoc_ekran_display_text
$LN9@notify_hav:

; 956  : 	}
; 957  : 
; 958  : 	if (damage & DYNAMICS_DAMAGE_STABILISER)

  0010d	8b 45 08	 mov	 eax, DWORD PTR _damage$[ebp]
  00110	25 00 01 00 00	 and	 eax, 256		; 00000100H
  00115	74 18		 je	 SHORT $LN10@notify_hav

; 959  : 	{
; 960  : 		activate_havoc_master_caution_lamp ();

  00117	e8 00 00 00 00	 call	 ?activate_havoc_master_caution_lamp@@YGXXZ ; activate_havoc_master_caution_lamp

; 961  : 
; 962  : 		set_havoc_ekran_display_text ("STABILISR", "FAILURE", NULL, NULL);

  0011c	6a 00		 push	 0
  0011e	6a 00		 push	 0
  00120	68 00 00 00 00	 push	 OFFSET ??_C@_07DMOCMFND@FAILURE@
  00125	68 00 00 00 00	 push	 OFFSET ??_C@_09OCHEEKPP@STABILISR@
  0012a	e8 00 00 00 00	 call	 ?set_havoc_ekran_display_text@@YGXPAD000@Z ; set_havoc_ekran_display_text
$LN10@notify_hav:

; 963  : 	}
; 964  : 
; 965  : 	if (damage & DYNAMICS_DAMAGE_FUEL_LEAK)

  0012f	8b 45 08	 mov	 eax, DWORD PTR _damage$[ebp]
  00132	25 00 02 00 00	 and	 eax, 512		; 00000200H
  00137	74 18		 je	 SHORT $LN11@notify_hav

; 966  : 	{
; 967  : 		activate_havoc_master_caution_lamp ();

  00139	e8 00 00 00 00	 call	 ?activate_havoc_master_caution_lamp@@YGXXZ ; activate_havoc_master_caution_lamp

; 968  : 
; 969  : 		set_havoc_ekran_display_text ("FUEL LEAK", "", NULL, NULL);

  0013e	6a 00		 push	 0
  00140	6a 00		 push	 0
  00142	68 00 00 00 00	 push	 OFFSET ??_C@_00CNPNBAHC@@
  00147	68 00 00 00 00	 push	 OFFSET ??_C@_09BHCFOJL@FUEL?5LEAK@
  0014c	e8 00 00 00 00	 call	 ?set_havoc_ekran_display_text@@YGXPAD000@Z ; set_havoc_ekran_display_text
$LN11@notify_hav:

; 970  : 	}
; 971  : 
; 972  : 	if (damage & DYNAMICS_DAMAGE_LOW_OIL_PRESSURE)

  00151	8b 45 08	 mov	 eax, DWORD PTR _damage$[ebp]
  00154	25 00 04 00 00	 and	 eax, 1024		; 00000400H
  00159	74 18		 je	 SHORT $LN12@notify_hav

; 973  : 	{
; 974  : 		activate_havoc_master_caution_lamp ();

  0015b	e8 00 00 00 00	 call	 ?activate_havoc_master_caution_lamp@@YGXXZ ; activate_havoc_master_caution_lamp

; 975  : 
; 976  : 		set_havoc_ekran_display_text ("LOW OIL", "PRESSURE", NULL, NULL);

  00160	6a 00		 push	 0
  00162	6a 00		 push	 0
  00164	68 00 00 00 00	 push	 OFFSET ??_C@_08IBNIHFAO@PRESSURE@
  00169	68 00 00 00 00	 push	 OFFSET ??_C@_07GGBGBLMC@LOW?5OIL@
  0016e	e8 00 00 00 00	 call	 ?set_havoc_ekran_display_text@@YGXPAD000@Z ; set_havoc_ekran_display_text
$LN12@notify_hav:

; 977  : 	}
; 978  : 
; 979  : 	if (damage & DYNAMICS_DAMAGE_HIGH_OIL_PRESSURE)

  00173	8b 45 08	 mov	 eax, DWORD PTR _damage$[ebp]
  00176	25 00 08 00 00	 and	 eax, 2048		; 00000800H
  0017b	74 18		 je	 SHORT $LN1@notify_hav

; 980  : 	{
; 981  : 		activate_havoc_master_caution_lamp ();

  0017d	e8 00 00 00 00	 call	 ?activate_havoc_master_caution_lamp@@YGXXZ ; activate_havoc_master_caution_lamp

; 982  : 
; 983  : 		set_havoc_ekran_display_text ("HIGH OIL", "PRESSURE", NULL, NULL);

  00182	6a 00		 push	 0
  00184	6a 00		 push	 0
  00186	68 00 00 00 00	 push	 OFFSET ??_C@_08IBNIHFAO@PRESSURE@
  0018b	68 00 00 00 00	 push	 OFFSET ??_C@_08JPIIBFH@HIGH?5OIL@
  00190	e8 00 00 00 00	 call	 ?set_havoc_ekran_display_text@@YGXPAD000@Z ; set_havoc_ekran_display_text
$LN1@notify_hav:

; 984  : 	}
; 985  : }

  00195	5f		 pop	 edi
  00196	5e		 pop	 esi
  00197	5b		 pop	 ebx
  00198	8b e5		 mov	 esp, ebp
  0019a	5d		 pop	 ebp
  0019b	c2 04 00	 ret	 4
?notify_havoc_avionics_of_dynamics_fault@@YGXI@Z ENDP	; notify_havoc_avionics_of_dynamics_fault
_TEXT	ENDS
; Function compile flags: /Odtp /ZI
; File c:\users\nhv90\projects\eech\aphavoc\source\gunships\avionics\havoc\ha_dam.c
;	COMDAT ?damage_havoc@@YGXW4GUNSHIP_DAMAGE_LEVELS@@@Z
_TEXT	SEGMENT
tv64 = -76						; size = 4
_havoc_damage$ = -8					; size = 4
_damage$ = -4						; size = 4
_damage_level$ = 8					; size = 4
?damage_havoc@@YGXW4GUNSHIP_DAMAGE_LEVELS@@@Z PROC	; damage_havoc, COMDAT

; 851  : {

  00000	55		 push	 ebp
  00001	8b ec		 mov	 ebp, esp
  00003	83 ec 4c	 sub	 esp, 76			; 0000004cH
  00006	53		 push	 ebx
  00007	56		 push	 esi
  00008	57		 push	 edi

; 852  : 	unsigned int
; 853  : 		damage;
; 854  : 
; 855  : 	havoc_damage_flags
; 856  : 		havoc_damage;
; 857  : 
; 858  : 	damage = 0;

  00009	c7 45 fc 00 00
	00 00		 mov	 DWORD PTR _damage$[ebp], 0

; 859  : 
; 860  : 	switch (damage_level)

  00010	8b 45 08	 mov	 eax, DWORD PTR _damage_level$[ebp]
  00013	89 45 b4	 mov	 DWORD PTR tv64[ebp], eax
  00016	83 7d b4 00	 cmp	 DWORD PTR tv64[ebp], 0
  0001a	74 15		 je	 SHORT $LN4@damage_hav
  0001c	83 7d b4 01	 cmp	 DWORD PTR tv64[ebp], 1
  00020	74 47		 je	 SHORT $LN5@damage_hav
  00022	83 7d b4 02	 cmp	 DWORD PTR tv64[ebp], 2
  00026	0f 84 a8 00 00
	00		 je	 $LN6@damage_hav
  0002c	e9 3e 01 00 00	 jmp	 $LN7@damage_hav
$LN4@damage_hav:

; 861  : 	{
; 862  : 		case GUNSHIP_DAMAGE_LEVEL_LIGHT:
; 863  : 		{
; 864  : 			damage |= 1 << (rand16 () & 0x1f);

  00031	69 05 00 00 00
	00 6d 4e c6 41	 imul	 eax, DWORD PTR ?random_number_seed@@3HA, 1103515245 ; random_number_seed
  0003b	05 39 30 00 00	 add	 eax, 12345		; 00003039H
  00040	a3 00 00 00 00	 mov	 DWORD PTR ?random_number_seed@@3HA, eax ; random_number_seed
  00045	8b 0d 00 00 00
	00		 mov	 ecx, DWORD PTR ?random_number_seed@@3HA ; random_number_seed
  0004b	c1 f9 10	 sar	 ecx, 16			; 00000010H
  0004e	81 e1 ff 7f 00
	00		 and	 ecx, 32767		; 00007fffH
  00054	83 e1 1f	 and	 ecx, 31			; 0000001fH
  00057	ba 01 00 00 00	 mov	 edx, 1
  0005c	d3 e2		 shl	 edx, cl
  0005e	0b 55 fc	 or	 edx, DWORD PTR _damage$[ebp]
  00061	89 55 fc	 mov	 DWORD PTR _damage$[ebp], edx

; 865  : 
; 866  : 			break;

  00064	e9 17 01 00 00	 jmp	 $LN2@damage_hav
$LN5@damage_hav:

; 867  : 		}
; 868  : 		case GUNSHIP_DAMAGE_LEVEL_MEDIUM:
; 869  : 		{
; 870  : 			damage |= 1 << (rand16 () & 0x1f);

  00069	69 05 00 00 00
	00 6d 4e c6 41	 imul	 eax, DWORD PTR ?random_number_seed@@3HA, 1103515245 ; random_number_seed
  00073	05 39 30 00 00	 add	 eax, 12345		; 00003039H
  00078	a3 00 00 00 00	 mov	 DWORD PTR ?random_number_seed@@3HA, eax ; random_number_seed
  0007d	8b 0d 00 00 00
	00		 mov	 ecx, DWORD PTR ?random_number_seed@@3HA ; random_number_seed
  00083	c1 f9 10	 sar	 ecx, 16			; 00000010H
  00086	81 e1 ff 7f 00
	00		 and	 ecx, 32767		; 00007fffH
  0008c	83 e1 1f	 and	 ecx, 31			; 0000001fH
  0008f	ba 01 00 00 00	 mov	 edx, 1
  00094	d3 e2		 shl	 edx, cl
  00096	0b 55 fc	 or	 edx, DWORD PTR _damage$[ebp]
  00099	89 55 fc	 mov	 DWORD PTR _damage$[ebp], edx

; 871  : 			damage |= 1 << (rand16 () & 0x1f);

  0009c	69 05 00 00 00
	00 6d 4e c6 41	 imul	 eax, DWORD PTR ?random_number_seed@@3HA, 1103515245 ; random_number_seed
  000a6	05 39 30 00 00	 add	 eax, 12345		; 00003039H
  000ab	a3 00 00 00 00	 mov	 DWORD PTR ?random_number_seed@@3HA, eax ; random_number_seed
  000b0	8b 0d 00 00 00
	00		 mov	 ecx, DWORD PTR ?random_number_seed@@3HA ; random_number_seed
  000b6	c1 f9 10	 sar	 ecx, 16			; 00000010H
  000b9	81 e1 ff 7f 00
	00		 and	 ecx, 32767		; 00007fffH
  000bf	83 e1 1f	 and	 ecx, 31			; 0000001fH
  000c2	ba 01 00 00 00	 mov	 edx, 1
  000c7	d3 e2		 shl	 edx, cl
  000c9	0b 55 fc	 or	 edx, DWORD PTR _damage$[ebp]
  000cc	89 55 fc	 mov	 DWORD PTR _damage$[ebp], edx

; 872  : 
; 873  : 			break;

  000cf	e9 ac 00 00 00	 jmp	 $LN2@damage_hav
$LN6@damage_hav:

; 874  : 		}
; 875  : 		case GUNSHIP_DAMAGE_LEVEL_HEAVY:
; 876  : 		{
; 877  : 			damage |= 1 << (rand16 () & 0x1f);

  000d4	69 05 00 00 00
	00 6d 4e c6 41	 imul	 eax, DWORD PTR ?random_number_seed@@3HA, 1103515245 ; random_number_seed
  000de	05 39 30 00 00	 add	 eax, 12345		; 00003039H
  000e3	a3 00 00 00 00	 mov	 DWORD PTR ?random_number_seed@@3HA, eax ; random_number_seed
  000e8	8b 0d 00 00 00
	00		 mov	 ecx, DWORD PTR ?random_number_seed@@3HA ; random_number_seed
  000ee	c1 f9 10	 sar	 ecx, 16			; 00000010H
  000f1	81 e1 ff 7f 00
	00		 and	 ecx, 32767		; 00007fffH
  000f7	83 e1 1f	 and	 ecx, 31			; 0000001fH
  000fa	ba 01 00 00 00	 mov	 edx, 1
  000ff	d3 e2		 shl	 edx, cl
  00101	0b 55 fc	 or	 edx, DWORD PTR _damage$[ebp]
  00104	89 55 fc	 mov	 DWORD PTR _damage$[ebp], edx

; 878  : 			damage |= 1 << (rand16 () & 0x1f);

  00107	69 05 00 00 00
	00 6d 4e c6 41	 imul	 eax, DWORD PTR ?random_number_seed@@3HA, 1103515245 ; random_number_seed
  00111	05 39 30 00 00	 add	 eax, 12345		; 00003039H
  00116	a3 00 00 00 00	 mov	 DWORD PTR ?random_number_seed@@3HA, eax ; random_number_seed
  0011b	8b 0d 00 00 00
	00		 mov	 ecx, DWORD PTR ?random_number_seed@@3HA ; random_number_seed
  00121	c1 f9 10	 sar	 ecx, 16			; 00000010H
  00124	81 e1 ff 7f 00
	00		 and	 ecx, 32767		; 00007fffH
  0012a	83 e1 1f	 and	 ecx, 31			; 0000001fH
  0012d	ba 01 00 00 00	 mov	 edx, 1
  00132	d3 e2		 shl	 edx, cl
  00134	0b 55 fc	 or	 edx, DWORD PTR _damage$[ebp]
  00137	89 55 fc	 mov	 DWORD PTR _damage$[ebp], edx

; 879  : 			damage |= 1 << (rand16 () & 0x1f);

  0013a	69 05 00 00 00
	00 6d 4e c6 41	 imul	 eax, DWORD PTR ?random_number_seed@@3HA, 1103515245 ; random_number_seed
  00144	05 39 30 00 00	 add	 eax, 12345		; 00003039H
  00149	a3 00 00 00 00	 mov	 DWORD PTR ?random_number_seed@@3HA, eax ; random_number_seed
  0014e	8b 0d 00 00 00
	00		 mov	 ecx, DWORD PTR ?random_number_seed@@3HA ; random_number_seed
  00154	c1 f9 10	 sar	 ecx, 16			; 00000010H
  00157	81 e1 ff 7f 00
	00		 and	 ecx, 32767		; 00007fffH
  0015d	83 e1 1f	 and	 ecx, 31			; 0000001fH
  00160	ba 01 00 00 00	 mov	 edx, 1
  00165	d3 e2		 shl	 edx, cl
  00167	0b 55 fc	 or	 edx, DWORD PTR _damage$[ebp]
  0016a	89 55 fc	 mov	 DWORD PTR _damage$[ebp], edx

; 880  : 
; 881  : 			break;

  0016d	eb 11		 jmp	 SHORT $LN2@damage_hav
$LN7@damage_hav:

; 882  : 		}
; 883  : 		default:
; 884  : 		{
; 885  : 			debug_fatal ("Invalid damage_level = %d", damage_level);

  0016f	8b 45 08	 mov	 eax, DWORD PTR _damage_level$[ebp]
  00172	50		 push	 eax
  00173	68 00 00 00 00	 push	 OFFSET ??_C@_0BK@EECAIEOA@Invalid?5damage_level?5?$DN?5?$CFd@
  00178	e8 00 00 00 00	 call	 ?debug_fatal@@YAXPBDZZ	; debug_fatal
  0017d	83 c4 08	 add	 esp, 8
$LN2@damage_hav:

; 886  : 
; 887  : 			break;
; 888  : 		}
; 889  : 	}
; 890  : 
; 891  : 	havoc_damage.flags = damage;

  00180	8b 45 fc	 mov	 eax, DWORD PTR _damage$[ebp]
  00183	89 45 f8	 mov	 DWORD PTR _havoc_damage$[ebp], eax

; 892  : 
; 893  : 	damage_systems (havoc_damage);

  00186	8b 45 f8	 mov	 eax, DWORD PTR _havoc_damage$[ebp]
  00189	50		 push	 eax
  0018a	e8 00 00 00 00	 call	 ?damage_systems@@YGXTHAVOC_DAMAGE_FLAGS@@@Z ; damage_systems

; 894  : }

  0018f	5f		 pop	 edi
  00190	5e		 pop	 esi
  00191	5b		 pop	 ebx
  00192	8b e5		 mov	 esp, ebp
  00194	5d		 pop	 ebp
  00195	c2 04 00	 ret	 4
?damage_havoc@@YGXW4GUNSHIP_DAMAGE_LEVELS@@@Z ENDP	; damage_havoc
_TEXT	ENDS
; Function compile flags: /Odtp /ZI
; File c:\users\nhv90\projects\eech\aphavoc\source\gunships\avionics\havoc\ha_dam.c
;	COMDAT ?repair_havoc_weapon_damage@@YGXXZ
_TEXT	SEGMENT
?repair_havoc_weapon_damage@@YGXXZ PROC			; repair_havoc_weapon_damage, COMDAT

; 391  : {

  00000	55		 push	 ebp
  00001	8b ec		 mov	 ebp, esp
  00003	83 ec 40	 sub	 esp, 64			; 00000040H
  00006	53		 push	 ebx
  00007	56		 push	 esi
  00008	57		 push	 edi

; 392  : 	set_havoc_ekran_display_text ("", "", NULL, NULL);

  00009	6a 00		 push	 0
  0000b	6a 00		 push	 0
  0000d	68 00 00 00 00	 push	 OFFSET ??_C@_00CNPNBAHC@@
  00012	68 00 00 00 00	 push	 OFFSET ??_C@_00CNPNBAHC@@
  00017	e8 00 00 00 00	 call	 ?set_havoc_ekran_display_text@@YGXPAD000@Z ; set_havoc_ekran_display_text

; 393  : 
; 394  : 	havoc_damage.gun_jammed			= FALSE;

  0001c	a1 00 00 00 00	 mov	 eax, DWORD PTR ?havoc_damage@@3THAVOC_DAMAGE_FLAGS@@A ; havoc_damage
  00021	25 ff ff bf ff	 and	 eax, -4194305		; ffbfffffH
  00026	a3 00 00 00 00	 mov	 DWORD PTR ?havoc_damage@@3THAVOC_DAMAGE_FLAGS@@A, eax ; havoc_damage

; 395  : 	havoc_damage.lh_outer_pylon	= FALSE;

  0002b	a1 00 00 00 00	 mov	 eax, DWORD PTR ?havoc_damage@@3THAVOC_DAMAGE_FLAGS@@A ; havoc_damage
  00030	25 ff ff 7f ff	 and	 eax, -8388609		; ff7fffffH
  00035	a3 00 00 00 00	 mov	 DWORD PTR ?havoc_damage@@3THAVOC_DAMAGE_FLAGS@@A, eax ; havoc_damage

; 396  : 	havoc_damage.lh_inner_pylon	= FALSE;

  0003a	a1 00 00 00 00	 mov	 eax, DWORD PTR ?havoc_damage@@3THAVOC_DAMAGE_FLAGS@@A ; havoc_damage
  0003f	25 ff ff ff fd	 and	 eax, -33554433		; fdffffffH
  00044	a3 00 00 00 00	 mov	 DWORD PTR ?havoc_damage@@3THAVOC_DAMAGE_FLAGS@@A, eax ; havoc_damage

; 397  : 	havoc_damage.rh_outer_pylon	= FALSE;

  00049	a1 00 00 00 00	 mov	 eax, DWORD PTR ?havoc_damage@@3THAVOC_DAMAGE_FLAGS@@A ; havoc_damage
  0004e	25 ff ff ff fb	 and	 eax, -67108865		; fbffffffH
  00053	a3 00 00 00 00	 mov	 DWORD PTR ?havoc_damage@@3THAVOC_DAMAGE_FLAGS@@A, eax ; havoc_damage

; 398  : 	havoc_damage.rh_inner_pylon	= FALSE;

  00058	a1 00 00 00 00	 mov	 eax, DWORD PTR ?havoc_damage@@3THAVOC_DAMAGE_FLAGS@@A ; havoc_damage
  0005d	25 ff ff ff ef	 and	 eax, -268435457		; efffffffH
  00062	a3 00 00 00 00	 mov	 DWORD PTR ?havoc_damage@@3THAVOC_DAMAGE_FLAGS@@A, eax ; havoc_damage

; 399  : 	havoc_damage.chaff_dispenser	= FALSE;

  00067	a1 00 00 00 00	 mov	 eax, DWORD PTR ?havoc_damage@@3THAVOC_DAMAGE_FLAGS@@A ; havoc_damage
  0006c	25 ff ff ff df	 and	 eax, -536870913		; dfffffffH
  00071	a3 00 00 00 00	 mov	 DWORD PTR ?havoc_damage@@3THAVOC_DAMAGE_FLAGS@@A, eax ; havoc_damage

; 400  : 	havoc_damage.flare_dispenser	= FALSE;

  00076	a1 00 00 00 00	 mov	 eax, DWORD PTR ?havoc_damage@@3THAVOC_DAMAGE_FLAGS@@A ; havoc_damage
  0007b	25 ff ff ff 7f	 and	 eax, 2147483647		; 7fffffffH
  00080	a3 00 00 00 00	 mov	 DWORD PTR ?havoc_damage@@3THAVOC_DAMAGE_FLAGS@@A, eax ; havoc_damage

; 401  : 
; 402  : 	set_havoc_weapon_damage_status ();

  00085	e8 00 00 00 00	 call	 ?set_havoc_weapon_damage_status@@YGXXZ ; set_havoc_weapon_damage_status

; 403  : }

  0008a	5f		 pop	 edi
  0008b	5e		 pop	 esi
  0008c	5b		 pop	 ebx
  0008d	8b e5		 mov	 esp, ebp
  0008f	5d		 pop	 ebp
  00090	c3		 ret	 0
?repair_havoc_weapon_damage@@YGXXZ ENDP			; repair_havoc_weapon_damage
_TEXT	ENDS
; Function compile flags: /Odtp /ZI
; File c:\users\nhv90\projects\eech\aphavoc\source\gunships\avionics\havoc\ha_dam.c
;	COMDAT ?partially_repair_havoc_damage@@YGXXZ
_TEXT	SEGMENT
tv408 = -68						; size = 4
tv393 = -68						; size = 4
tv378 = -68						; size = 4
tv363 = -68						; size = 4
tv348 = -68						; size = 4
tv333 = -68						; size = 4
tv318 = -68						; size = 4
tv303 = -68						; size = 4
tv288 = -68						; size = 4
tv273 = -68						; size = 4
tv258 = -68						; size = 4
tv243 = -68						; size = 4
tv228 = -68						; size = 4
tv213 = -68						; size = 4
tv198 = -68						; size = 4
tv183 = -68						; size = 4
tv168 = -68						; size = 4
tv153 = -68						; size = 4
tv138 = -68						; size = 4
tv91 = -68						; size = 4
tv77 = -68						; size = 4
?partially_repair_havoc_damage@@YGXXZ PROC		; partially_repair_havoc_damage, COMDAT

; 229  : {

  00000	55		 push	 ebp
  00001	8b ec		 mov	 ebp, esp
  00003	83 ec 44	 sub	 esp, 68			; 00000044H
  00006	53		 push	 ebx
  00007	56		 push	 esi
  00008	57		 push	 edi

; 230  : 	set_havoc_ekran_display_text ("", "", NULL, NULL);

  00009	6a 00		 push	 0
  0000b	6a 00		 push	 0
  0000d	68 00 00 00 00	 push	 OFFSET ??_C@_00CNPNBAHC@@
  00012	68 00 00 00 00	 push	 OFFSET ??_C@_00CNPNBAHC@@
  00017	e8 00 00 00 00	 call	 ?set_havoc_ekran_display_text@@YGXPAD000@Z ; set_havoc_ekran_display_text

; 231  : 
; 232  : 	fire_extinguisher_used = FALSE;

  0001c	c7 05 00 00 00
	00 00 00 00 00	 mov	 DWORD PTR ?fire_extinguisher_used@@3HA, 0 ; fire_extinguisher_used

; 233  : 
; 234  : 	////////////////////////////////////////
; 235  : 
; 236  : 	if (havoc_damage.radar)

  00026	a1 00 00 00 00	 mov	 eax, DWORD PTR ?havoc_damage@@3THAVOC_DAMAGE_FLAGS@@A ; havoc_damage
  0002b	83 e0 01	 and	 eax, 1
  0002e	74 5e		 je	 SHORT $LN2@partially_

; 237  : 	{
; 238  : 		havoc_damage.radar = frand1 () > 0.90;

  00030	69 05 00 00 00
	00 6d 4e c6 41	 imul	 eax, DWORD PTR ?random_number_seed@@3HA, 1103515245 ; random_number_seed
  0003a	05 39 30 00 00	 add	 eax, 12345		; 00003039H
  0003f	a3 00 00 00 00	 mov	 DWORD PTR ?random_number_seed@@3HA, eax ; random_number_seed
  00044	8b 0d 00 00 00
	00		 mov	 ecx, DWORD PTR ?random_number_seed@@3HA ; random_number_seed
  0004a	c1 f9 10	 sar	 ecx, 16			; 00000010H
  0004d	81 e1 ff 7f 00
	00		 and	 ecx, 32767		; 00007fffH
  00053	f2 0f 2a c1	 cvtsi2sd xmm0, ecx
  00057	f2 0f 59 05 00
	00 00 00	 mulsd	 xmm0, QWORD PTR __real@3f00002000400080
  0005f	66 0f 2f 05 00
	00 00 00	 comisd	 xmm0, QWORD PTR __real@3feccccccccccccd
  00067	76 09		 jbe	 SHORT $LN24@partially_
  00069	c7 45 bc 01 00
	00 00		 mov	 DWORD PTR tv77[ebp], 1
  00070	eb 07		 jmp	 SHORT $LN25@partially_
$LN24@partially_:
  00072	c7 45 bc 00 00
	00 00		 mov	 DWORD PTR tv77[ebp], 0
$LN25@partially_:
  00079	8b 55 bc	 mov	 edx, DWORD PTR tv77[ebp]
  0007c	83 e2 01	 and	 edx, 1
  0007f	a1 00 00 00 00	 mov	 eax, DWORD PTR ?havoc_damage@@3THAVOC_DAMAGE_FLAGS@@A ; havoc_damage
  00084	83 e0 fe	 and	 eax, -2			; fffffffeH
  00087	0b c2		 or	 eax, edx
  00089	a3 00 00 00 00	 mov	 DWORD PTR ?havoc_damage@@3THAVOC_DAMAGE_FLAGS@@A, eax ; havoc_damage
$LN2@partially_:

; 239  : 	}
; 240  : 
; 241  : 	////////////////////////////////////////
; 242  : 
; 243  : 	if (havoc_damage.flir)

  0008e	a1 00 00 00 00	 mov	 eax, DWORD PTR ?havoc_damage@@3THAVOC_DAMAGE_FLAGS@@A ; havoc_damage
  00093	d1 e8		 shr	 eax, 1
  00095	83 e0 01	 and	 eax, 1
  00098	74 60		 je	 SHORT $LN3@partially_

; 244  : 	{
; 245  : 		havoc_damage.flir = frand1 () > 0.90;

  0009a	69 05 00 00 00
	00 6d 4e c6 41	 imul	 eax, DWORD PTR ?random_number_seed@@3HA, 1103515245 ; random_number_seed
  000a4	05 39 30 00 00	 add	 eax, 12345		; 00003039H
  000a9	a3 00 00 00 00	 mov	 DWORD PTR ?random_number_seed@@3HA, eax ; random_number_seed
  000ae	8b 0d 00 00 00
	00		 mov	 ecx, DWORD PTR ?random_number_seed@@3HA ; random_number_seed
  000b4	c1 f9 10	 sar	 ecx, 16			; 00000010H
  000b7	81 e1 ff 7f 00
	00		 and	 ecx, 32767		; 00007fffH
  000bd	f2 0f 2a c1	 cvtsi2sd xmm0, ecx
  000c1	f2 0f 59 05 00
	00 00 00	 mulsd	 xmm0, QWORD PTR __real@3f00002000400080
  000c9	66 0f 2f 05 00
	00 00 00	 comisd	 xmm0, QWORD PTR __real@3feccccccccccccd
  000d1	76 09		 jbe	 SHORT $LN26@partially_
  000d3	c7 45 bc 01 00
	00 00		 mov	 DWORD PTR tv91[ebp], 1
  000da	eb 07		 jmp	 SHORT $LN27@partially_
$LN26@partially_:
  000dc	c7 45 bc 00 00
	00 00		 mov	 DWORD PTR tv91[ebp], 0
$LN27@partially_:
  000e3	8b 55 bc	 mov	 edx, DWORD PTR tv91[ebp]
  000e6	83 e2 01	 and	 edx, 1
  000e9	d1 e2		 shl	 edx, 1
  000eb	a1 00 00 00 00	 mov	 eax, DWORD PTR ?havoc_damage@@3THAVOC_DAMAGE_FLAGS@@A ; havoc_damage
  000f0	83 e0 fd	 and	 eax, -3			; fffffffdH
  000f3	0b c2		 or	 eax, edx
  000f5	a3 00 00 00 00	 mov	 DWORD PTR ?havoc_damage@@3THAVOC_DAMAGE_FLAGS@@A, eax ; havoc_damage
$LN3@partially_:

; 246  : 	}
; 247  : 
; 248  : 	////////////////////////////////////////
; 249  : 
; 250  : 	if (havoc_damage.llltv)

  000fa	a1 00 00 00 00	 mov	 eax, DWORD PTR ?havoc_damage@@3THAVOC_DAMAGE_FLAGS@@A ; havoc_damage
  000ff	c1 e8 03	 shr	 eax, 3
  00102	83 e0 01	 and	 eax, 1
  00105	74 61		 je	 SHORT $LN4@partially_

; 251  : 	{
; 252  : 		havoc_damage.llltv = frand1 () > 0.90;

  00107	69 05 00 00 00
	00 6d 4e c6 41	 imul	 eax, DWORD PTR ?random_number_seed@@3HA, 1103515245 ; random_number_seed
  00111	05 39 30 00 00	 add	 eax, 12345		; 00003039H
  00116	a3 00 00 00 00	 mov	 DWORD PTR ?random_number_seed@@3HA, eax ; random_number_seed
  0011b	8b 0d 00 00 00
	00		 mov	 ecx, DWORD PTR ?random_number_seed@@3HA ; random_number_seed
  00121	c1 f9 10	 sar	 ecx, 16			; 00000010H
  00124	81 e1 ff 7f 00
	00		 and	 ecx, 32767		; 00007fffH
  0012a	f2 0f 2a c1	 cvtsi2sd xmm0, ecx
  0012e	f2 0f 59 05 00
	00 00 00	 mulsd	 xmm0, QWORD PTR __real@3f00002000400080
  00136	66 0f 2f 05 00
	00 00 00	 comisd	 xmm0, QWORD PTR __real@3feccccccccccccd
  0013e	76 09		 jbe	 SHORT $LN28@partially_
  00140	c7 45 bc 01 00
	00 00		 mov	 DWORD PTR tv138[ebp], 1
  00147	eb 07		 jmp	 SHORT $LN29@partially_
$LN28@partially_:
  00149	c7 45 bc 00 00
	00 00		 mov	 DWORD PTR tv138[ebp], 0
$LN29@partially_:
  00150	8b 55 bc	 mov	 edx, DWORD PTR tv138[ebp]
  00153	83 e2 01	 and	 edx, 1
  00156	c1 e2 03	 shl	 edx, 3
  00159	a1 00 00 00 00	 mov	 eax, DWORD PTR ?havoc_damage@@3THAVOC_DAMAGE_FLAGS@@A ; havoc_damage
  0015e	83 e0 f7	 and	 eax, -9			; fffffff7H
  00161	0b c2		 or	 eax, edx
  00163	a3 00 00 00 00	 mov	 DWORD PTR ?havoc_damage@@3THAVOC_DAMAGE_FLAGS@@A, eax ; havoc_damage
$LN4@partially_:

; 253  : 	}
; 254  : 
; 255  : 	////////////////////////////////////////
; 256  : 
; 257  : 	if (havoc_damage.laser_range_finder)

  00168	a1 00 00 00 00	 mov	 eax, DWORD PTR ?havoc_damage@@3THAVOC_DAMAGE_FLAGS@@A ; havoc_damage
  0016d	c1 e8 04	 shr	 eax, 4
  00170	83 e0 01	 and	 eax, 1
  00173	74 61		 je	 SHORT $LN5@partially_

; 258  : 	{
; 259  : 		havoc_damage.laser_range_finder = frand1 () > 0.90;

  00175	69 05 00 00 00
	00 6d 4e c6 41	 imul	 eax, DWORD PTR ?random_number_seed@@3HA, 1103515245 ; random_number_seed
  0017f	05 39 30 00 00	 add	 eax, 12345		; 00003039H
  00184	a3 00 00 00 00	 mov	 DWORD PTR ?random_number_seed@@3HA, eax ; random_number_seed
  00189	8b 0d 00 00 00
	00		 mov	 ecx, DWORD PTR ?random_number_seed@@3HA ; random_number_seed
  0018f	c1 f9 10	 sar	 ecx, 16			; 00000010H
  00192	81 e1 ff 7f 00
	00		 and	 ecx, 32767		; 00007fffH
  00198	f2 0f 2a c1	 cvtsi2sd xmm0, ecx
  0019c	f2 0f 59 05 00
	00 00 00	 mulsd	 xmm0, QWORD PTR __real@3f00002000400080
  001a4	66 0f 2f 05 00
	00 00 00	 comisd	 xmm0, QWORD PTR __real@3feccccccccccccd
  001ac	76 09		 jbe	 SHORT $LN30@partially_
  001ae	c7 45 bc 01 00
	00 00		 mov	 DWORD PTR tv153[ebp], 1
  001b5	eb 07		 jmp	 SHORT $LN31@partially_
$LN30@partially_:
  001b7	c7 45 bc 00 00
	00 00		 mov	 DWORD PTR tv153[ebp], 0
$LN31@partially_:
  001be	8b 55 bc	 mov	 edx, DWORD PTR tv153[ebp]
  001c1	83 e2 01	 and	 edx, 1
  001c4	c1 e2 04	 shl	 edx, 4
  001c7	a1 00 00 00 00	 mov	 eax, DWORD PTR ?havoc_damage@@3THAVOC_DAMAGE_FLAGS@@A ; havoc_damage
  001cc	83 e0 ef	 and	 eax, -17		; ffffffefH
  001cf	0b c2		 or	 eax, edx
  001d1	a3 00 00 00 00	 mov	 DWORD PTR ?havoc_damage@@3THAVOC_DAMAGE_FLAGS@@A, eax ; havoc_damage
$LN5@partially_:

; 260  : 	}
; 261  : 
; 262  : 	////////////////////////////////////////
; 263  : 
; 264  : 	if (havoc_damage.radar_jammer)

  001d6	a1 00 00 00 00	 mov	 eax, DWORD PTR ?havoc_damage@@3THAVOC_DAMAGE_FLAGS@@A ; havoc_damage
  001db	c1 e8 06	 shr	 eax, 6
  001de	83 e0 01	 and	 eax, 1
  001e1	74 61		 je	 SHORT $LN6@partially_

; 265  : 	{
; 266  : 		havoc_damage.radar_jammer = frand1 () > 0.90;

  001e3	69 05 00 00 00
	00 6d 4e c6 41	 imul	 eax, DWORD PTR ?random_number_seed@@3HA, 1103515245 ; random_number_seed
  001ed	05 39 30 00 00	 add	 eax, 12345		; 00003039H
  001f2	a3 00 00 00 00	 mov	 DWORD PTR ?random_number_seed@@3HA, eax ; random_number_seed
  001f7	8b 0d 00 00 00
	00		 mov	 ecx, DWORD PTR ?random_number_seed@@3HA ; random_number_seed
  001fd	c1 f9 10	 sar	 ecx, 16			; 00000010H
  00200	81 e1 ff 7f 00
	00		 and	 ecx, 32767		; 00007fffH
  00206	f2 0f 2a c1	 cvtsi2sd xmm0, ecx
  0020a	f2 0f 59 05 00
	00 00 00	 mulsd	 xmm0, QWORD PTR __real@3f00002000400080
  00212	66 0f 2f 05 00
	00 00 00	 comisd	 xmm0, QWORD PTR __real@3feccccccccccccd
  0021a	76 09		 jbe	 SHORT $LN32@partially_
  0021c	c7 45 bc 01 00
	00 00		 mov	 DWORD PTR tv168[ebp], 1
  00223	eb 07		 jmp	 SHORT $LN33@partially_
$LN32@partially_:
  00225	c7 45 bc 00 00
	00 00		 mov	 DWORD PTR tv168[ebp], 0
$LN33@partially_:
  0022c	8b 55 bc	 mov	 edx, DWORD PTR tv168[ebp]
  0022f	83 e2 01	 and	 edx, 1
  00232	c1 e2 06	 shl	 edx, 6
  00235	a1 00 00 00 00	 mov	 eax, DWORD PTR ?havoc_damage@@3THAVOC_DAMAGE_FLAGS@@A ; havoc_damage
  0023a	83 e0 bf	 and	 eax, -65		; ffffffbfH
  0023d	0b c2		 or	 eax, edx
  0023f	a3 00 00 00 00	 mov	 DWORD PTR ?havoc_damage@@3THAVOC_DAMAGE_FLAGS@@A, eax ; havoc_damage
$LN6@partially_:

; 267  : 	}
; 268  : 
; 269  : 	////////////////////////////////////////
; 270  : 
; 271  : 	if (havoc_damage.infra_red_jammer)

  00244	a1 00 00 00 00	 mov	 eax, DWORD PTR ?havoc_damage@@3THAVOC_DAMAGE_FLAGS@@A ; havoc_damage
  00249	c1 e8 07	 shr	 eax, 7
  0024c	83 e0 01	 and	 eax, 1
  0024f	74 63		 je	 SHORT $LN7@partially_

; 272  : 	{
; 273  : 		havoc_damage.infra_red_jammer = frand1 () > 0.90;

  00251	69 05 00 00 00
	00 6d 4e c6 41	 imul	 eax, DWORD PTR ?random_number_seed@@3HA, 1103515245 ; random_number_seed
  0025b	05 39 30 00 00	 add	 eax, 12345		; 00003039H
  00260	a3 00 00 00 00	 mov	 DWORD PTR ?random_number_seed@@3HA, eax ; random_number_seed
  00265	8b 0d 00 00 00
	00		 mov	 ecx, DWORD PTR ?random_number_seed@@3HA ; random_number_seed
  0026b	c1 f9 10	 sar	 ecx, 16			; 00000010H
  0026e	81 e1 ff 7f 00
	00		 and	 ecx, 32767		; 00007fffH
  00274	f2 0f 2a c1	 cvtsi2sd xmm0, ecx
  00278	f2 0f 59 05 00
	00 00 00	 mulsd	 xmm0, QWORD PTR __real@3f00002000400080
  00280	66 0f 2f 05 00
	00 00 00	 comisd	 xmm0, QWORD PTR __real@3feccccccccccccd
  00288	76 09		 jbe	 SHORT $LN34@partially_
  0028a	c7 45 bc 01 00
	00 00		 mov	 DWORD PTR tv183[ebp], 1
  00291	eb 07		 jmp	 SHORT $LN35@partially_
$LN34@partially_:
  00293	c7 45 bc 00 00
	00 00		 mov	 DWORD PTR tv183[ebp], 0
$LN35@partially_:
  0029a	8b 55 bc	 mov	 edx, DWORD PTR tv183[ebp]
  0029d	83 e2 01	 and	 edx, 1
  002a0	c1 e2 07	 shl	 edx, 7
  002a3	a1 00 00 00 00	 mov	 eax, DWORD PTR ?havoc_damage@@3THAVOC_DAMAGE_FLAGS@@A ; havoc_damage
  002a8	25 7f ff ff ff	 and	 eax, -129		; ffffff7fH
  002ad	0b c2		 or	 eax, edx
  002af	a3 00 00 00 00	 mov	 DWORD PTR ?havoc_damage@@3THAVOC_DAMAGE_FLAGS@@A, eax ; havoc_damage
$LN7@partially_:

; 274  : 	}
; 275  : 
; 276  : 	////////////////////////////////////////
; 277  : 
; 278  : 	if (havoc_damage.navigation_computer)

  002b4	a1 00 00 00 00	 mov	 eax, DWORD PTR ?havoc_damage@@3THAVOC_DAMAGE_FLAGS@@A ; havoc_damage
  002b9	c1 e8 09	 shr	 eax, 9
  002bc	83 e0 01	 and	 eax, 1
  002bf	74 63		 je	 SHORT $LN8@partially_

; 279  : 	{
; 280  : 		havoc_damage.navigation_computer = frand1 () > 0.90;

  002c1	69 05 00 00 00
	00 6d 4e c6 41	 imul	 eax, DWORD PTR ?random_number_seed@@3HA, 1103515245 ; random_number_seed
  002cb	05 39 30 00 00	 add	 eax, 12345		; 00003039H
  002d0	a3 00 00 00 00	 mov	 DWORD PTR ?random_number_seed@@3HA, eax ; random_number_seed
  002d5	8b 0d 00 00 00
	00		 mov	 ecx, DWORD PTR ?random_number_seed@@3HA ; random_number_seed
  002db	c1 f9 10	 sar	 ecx, 16			; 00000010H
  002de	81 e1 ff 7f 00
	00		 and	 ecx, 32767		; 00007fffH
  002e4	f2 0f 2a c1	 cvtsi2sd xmm0, ecx
  002e8	f2 0f 59 05 00
	00 00 00	 mulsd	 xmm0, QWORD PTR __real@3f00002000400080
  002f0	66 0f 2f 05 00
	00 00 00	 comisd	 xmm0, QWORD PTR __real@3feccccccccccccd
  002f8	76 09		 jbe	 SHORT $LN36@partially_
  002fa	c7 45 bc 01 00
	00 00		 mov	 DWORD PTR tv198[ebp], 1
  00301	eb 07		 jmp	 SHORT $LN37@partially_
$LN36@partially_:
  00303	c7 45 bc 00 00
	00 00		 mov	 DWORD PTR tv198[ebp], 0
$LN37@partially_:
  0030a	8b 55 bc	 mov	 edx, DWORD PTR tv198[ebp]
  0030d	83 e2 01	 and	 edx, 1
  00310	c1 e2 09	 shl	 edx, 9
  00313	a1 00 00 00 00	 mov	 eax, DWORD PTR ?havoc_damage@@3THAVOC_DAMAGE_FLAGS@@A ; havoc_damage
  00318	25 ff fd ff ff	 and	 eax, -513		; fffffdffH
  0031d	0b c2		 or	 eax, edx
  0031f	a3 00 00 00 00	 mov	 DWORD PTR ?havoc_damage@@3THAVOC_DAMAGE_FLAGS@@A, eax ; havoc_damage
$LN8@partially_:

; 281  : 	}
; 282  : 
; 283  : 	////////////////////////////////////////
; 284  : 
; 285  : 	if (havoc_damage.communications)

  00324	a1 00 00 00 00	 mov	 eax, DWORD PTR ?havoc_damage@@3THAVOC_DAMAGE_FLAGS@@A ; havoc_damage
  00329	c1 e8 0b	 shr	 eax, 11			; 0000000bH
  0032c	83 e0 01	 and	 eax, 1
  0032f	74 63		 je	 SHORT $LN9@partially_

; 286  : 	{
; 287  : 		havoc_damage.communications = frand1 () > 0.90;

  00331	69 05 00 00 00
	00 6d 4e c6 41	 imul	 eax, DWORD PTR ?random_number_seed@@3HA, 1103515245 ; random_number_seed
  0033b	05 39 30 00 00	 add	 eax, 12345		; 00003039H
  00340	a3 00 00 00 00	 mov	 DWORD PTR ?random_number_seed@@3HA, eax ; random_number_seed
  00345	8b 0d 00 00 00
	00		 mov	 ecx, DWORD PTR ?random_number_seed@@3HA ; random_number_seed
  0034b	c1 f9 10	 sar	 ecx, 16			; 00000010H
  0034e	81 e1 ff 7f 00
	00		 and	 ecx, 32767		; 00007fffH
  00354	f2 0f 2a c1	 cvtsi2sd xmm0, ecx
  00358	f2 0f 59 05 00
	00 00 00	 mulsd	 xmm0, QWORD PTR __real@3f00002000400080
  00360	66 0f 2f 05 00
	00 00 00	 comisd	 xmm0, QWORD PTR __real@3feccccccccccccd
  00368	76 09		 jbe	 SHORT $LN38@partially_
  0036a	c7 45 bc 01 00
	00 00		 mov	 DWORD PTR tv213[ebp], 1
  00371	eb 07		 jmp	 SHORT $LN39@partially_
$LN38@partially_:
  00373	c7 45 bc 00 00
	00 00		 mov	 DWORD PTR tv213[ebp], 0
$LN39@partially_:
  0037a	8b 55 bc	 mov	 edx, DWORD PTR tv213[ebp]
  0037d	83 e2 01	 and	 edx, 1
  00380	c1 e2 0b	 shl	 edx, 11			; 0000000bH
  00383	a1 00 00 00 00	 mov	 eax, DWORD PTR ?havoc_damage@@3THAVOC_DAMAGE_FLAGS@@A ; havoc_damage
  00388	25 ff f7 ff ff	 and	 eax, -2049		; fffff7ffH
  0038d	0b c2		 or	 eax, edx
  0038f	a3 00 00 00 00	 mov	 DWORD PTR ?havoc_damage@@3THAVOC_DAMAGE_FLAGS@@A, eax ; havoc_damage
$LN9@partially_:

; 288  : 	}
; 289  : 
; 290  : 	////////////////////////////////////////
; 291  : 
; 292  : 	if (havoc_damage.radar_warning_system)

  00394	a1 00 00 00 00	 mov	 eax, DWORD PTR ?havoc_damage@@3THAVOC_DAMAGE_FLAGS@@A ; havoc_damage
  00399	c1 e8 0d	 shr	 eax, 13			; 0000000dH
  0039c	83 e0 01	 and	 eax, 1
  0039f	74 63		 je	 SHORT $LN10@partially_

; 293  : 	{
; 294  : 		havoc_damage.radar_warning_system = frand1 () > 0.90;

  003a1	69 05 00 00 00
	00 6d 4e c6 41	 imul	 eax, DWORD PTR ?random_number_seed@@3HA, 1103515245 ; random_number_seed
  003ab	05 39 30 00 00	 add	 eax, 12345		; 00003039H
  003b0	a3 00 00 00 00	 mov	 DWORD PTR ?random_number_seed@@3HA, eax ; random_number_seed
  003b5	8b 0d 00 00 00
	00		 mov	 ecx, DWORD PTR ?random_number_seed@@3HA ; random_number_seed
  003bb	c1 f9 10	 sar	 ecx, 16			; 00000010H
  003be	81 e1 ff 7f 00
	00		 and	 ecx, 32767		; 00007fffH
  003c4	f2 0f 2a c1	 cvtsi2sd xmm0, ecx
  003c8	f2 0f 59 05 00
	00 00 00	 mulsd	 xmm0, QWORD PTR __real@3f00002000400080
  003d0	66 0f 2f 05 00
	00 00 00	 comisd	 xmm0, QWORD PTR __real@3feccccccccccccd
  003d8	76 09		 jbe	 SHORT $LN40@partially_
  003da	c7 45 bc 01 00
	00 00		 mov	 DWORD PTR tv228[ebp], 1
  003e1	eb 07		 jmp	 SHORT $LN41@partially_
$LN40@partially_:
  003e3	c7 45 bc 00 00
	00 00		 mov	 DWORD PTR tv228[ebp], 0
$LN41@partially_:
  003ea	8b 55 bc	 mov	 edx, DWORD PTR tv228[ebp]
  003ed	83 e2 01	 and	 edx, 1
  003f0	c1 e2 0d	 shl	 edx, 13			; 0000000dH
  003f3	a1 00 00 00 00	 mov	 eax, DWORD PTR ?havoc_damage@@3THAVOC_DAMAGE_FLAGS@@A ; havoc_damage
  003f8	25 ff df ff ff	 and	 eax, -8193		; ffffdfffH
  003fd	0b c2		 or	 eax, edx
  003ff	a3 00 00 00 00	 mov	 DWORD PTR ?havoc_damage@@3THAVOC_DAMAGE_FLAGS@@A, eax ; havoc_damage
$LN10@partially_:

; 295  : 	}
; 296  : 
; 297  : 	////////////////////////////////////////
; 298  : 
; 299  : 	if (havoc_damage.head_up_display)

  00404	a1 00 00 00 00	 mov	 eax, DWORD PTR ?havoc_damage@@3THAVOC_DAMAGE_FLAGS@@A ; havoc_damage
  00409	c1 e8 0f	 shr	 eax, 15			; 0000000fH
  0040c	83 e0 01	 and	 eax, 1
  0040f	74 63		 je	 SHORT $LN11@partially_

; 300  : 	{
; 301  : 		havoc_damage.head_up_display = frand1 () > 0.90;

  00411	69 05 00 00 00
	00 6d 4e c6 41	 imul	 eax, DWORD PTR ?random_number_seed@@3HA, 1103515245 ; random_number_seed
  0041b	05 39 30 00 00	 add	 eax, 12345		; 00003039H
  00420	a3 00 00 00 00	 mov	 DWORD PTR ?random_number_seed@@3HA, eax ; random_number_seed
  00425	8b 0d 00 00 00
	00		 mov	 ecx, DWORD PTR ?random_number_seed@@3HA ; random_number_seed
  0042b	c1 f9 10	 sar	 ecx, 16			; 00000010H
  0042e	81 e1 ff 7f 00
	00		 and	 ecx, 32767		; 00007fffH
  00434	f2 0f 2a c1	 cvtsi2sd xmm0, ecx
  00438	f2 0f 59 05 00
	00 00 00	 mulsd	 xmm0, QWORD PTR __real@3f00002000400080
  00440	66 0f 2f 05 00
	00 00 00	 comisd	 xmm0, QWORD PTR __real@3feccccccccccccd
  00448	76 09		 jbe	 SHORT $LN42@partially_
  0044a	c7 45 bc 01 00
	00 00		 mov	 DWORD PTR tv243[ebp], 1
  00451	eb 07		 jmp	 SHORT $LN43@partially_
$LN42@partially_:
  00453	c7 45 bc 00 00
	00 00		 mov	 DWORD PTR tv243[ebp], 0
$LN43@partially_:
  0045a	8b 55 bc	 mov	 edx, DWORD PTR tv243[ebp]
  0045d	83 e2 01	 and	 edx, 1
  00460	c1 e2 0f	 shl	 edx, 15			; 0000000fH
  00463	a1 00 00 00 00	 mov	 eax, DWORD PTR ?havoc_damage@@3THAVOC_DAMAGE_FLAGS@@A ; havoc_damage
  00468	25 ff 7f ff ff	 and	 eax, -32769		; ffff7fffH
  0046d	0b c2		 or	 eax, edx
  0046f	a3 00 00 00 00	 mov	 DWORD PTR ?havoc_damage@@3THAVOC_DAMAGE_FLAGS@@A, eax ; havoc_damage
$LN11@partially_:

; 302  : 	}
; 303  : 
; 304  : 	////////////////////////////////////////
; 305  : 
; 306  : 	if (havoc_damage.helmet_mounted_sight)

  00474	a1 00 00 00 00	 mov	 eax, DWORD PTR ?havoc_damage@@3THAVOC_DAMAGE_FLAGS@@A ; havoc_damage
  00479	c1 e8 11	 shr	 eax, 17			; 00000011H
  0047c	83 e0 01	 and	 eax, 1
  0047f	74 63		 je	 SHORT $LN12@partially_

; 307  : 	{
; 308  : 		havoc_damage.helmet_mounted_sight = frand1 () > 0.90;

  00481	69 05 00 00 00
	00 6d 4e c6 41	 imul	 eax, DWORD PTR ?random_number_seed@@3HA, 1103515245 ; random_number_seed
  0048b	05 39 30 00 00	 add	 eax, 12345		; 00003039H
  00490	a3 00 00 00 00	 mov	 DWORD PTR ?random_number_seed@@3HA, eax ; random_number_seed
  00495	8b 0d 00 00 00
	00		 mov	 ecx, DWORD PTR ?random_number_seed@@3HA ; random_number_seed
  0049b	c1 f9 10	 sar	 ecx, 16			; 00000010H
  0049e	81 e1 ff 7f 00
	00		 and	 ecx, 32767		; 00007fffH
  004a4	f2 0f 2a c1	 cvtsi2sd xmm0, ecx
  004a8	f2 0f 59 05 00
	00 00 00	 mulsd	 xmm0, QWORD PTR __real@3f00002000400080
  004b0	66 0f 2f 05 00
	00 00 00	 comisd	 xmm0, QWORD PTR __real@3feccccccccccccd
  004b8	76 09		 jbe	 SHORT $LN44@partially_
  004ba	c7 45 bc 01 00
	00 00		 mov	 DWORD PTR tv258[ebp], 1
  004c1	eb 07		 jmp	 SHORT $LN45@partially_
$LN44@partially_:
  004c3	c7 45 bc 00 00
	00 00		 mov	 DWORD PTR tv258[ebp], 0
$LN45@partially_:
  004ca	8b 55 bc	 mov	 edx, DWORD PTR tv258[ebp]
  004cd	83 e2 01	 and	 edx, 1
  004d0	c1 e2 11	 shl	 edx, 17			; 00000011H
  004d3	a1 00 00 00 00	 mov	 eax, DWORD PTR ?havoc_damage@@3THAVOC_DAMAGE_FLAGS@@A ; havoc_damage
  004d8	25 ff ff fd ff	 and	 eax, -131073		; fffdffffH
  004dd	0b c2		 or	 eax, edx
  004df	a3 00 00 00 00	 mov	 DWORD PTR ?havoc_damage@@3THAVOC_DAMAGE_FLAGS@@A, eax ; havoc_damage
$LN12@partially_:

; 309  : 	}
; 310  : 
; 311  : 	////////////////////////////////////////
; 312  : 
; 313  : 	if (havoc_damage.tv_display)

  004e4	a1 00 00 00 00	 mov	 eax, DWORD PTR ?havoc_damage@@3THAVOC_DAMAGE_FLAGS@@A ; havoc_damage
  004e9	c1 e8 12	 shr	 eax, 18			; 00000012H
  004ec	83 e0 01	 and	 eax, 1
  004ef	74 63		 je	 SHORT $LN13@partially_

; 314  : 	{
; 315  : 		havoc_damage.tv_display = frand1 () > 0.90;

  004f1	69 05 00 00 00
	00 6d 4e c6 41	 imul	 eax, DWORD PTR ?random_number_seed@@3HA, 1103515245 ; random_number_seed
  004fb	05 39 30 00 00	 add	 eax, 12345		; 00003039H
  00500	a3 00 00 00 00	 mov	 DWORD PTR ?random_number_seed@@3HA, eax ; random_number_seed
  00505	8b 0d 00 00 00
	00		 mov	 ecx, DWORD PTR ?random_number_seed@@3HA ; random_number_seed
  0050b	c1 f9 10	 sar	 ecx, 16			; 00000010H
  0050e	81 e1 ff 7f 00
	00		 and	 ecx, 32767		; 00007fffH
  00514	f2 0f 2a c1	 cvtsi2sd xmm0, ecx
  00518	f2 0f 59 05 00
	00 00 00	 mulsd	 xmm0, QWORD PTR __real@3f00002000400080
  00520	66 0f 2f 05 00
	00 00 00	 comisd	 xmm0, QWORD PTR __real@3feccccccccccccd
  00528	76 09		 jbe	 SHORT $LN46@partially_
  0052a	c7 45 bc 01 00
	00 00		 mov	 DWORD PTR tv273[ebp], 1
  00531	eb 07		 jmp	 SHORT $LN47@partially_
$LN46@partially_:
  00533	c7 45 bc 00 00
	00 00		 mov	 DWORD PTR tv273[ebp], 0
$LN47@partially_:
  0053a	8b 55 bc	 mov	 edx, DWORD PTR tv273[ebp]
  0053d	83 e2 01	 and	 edx, 1
  00540	c1 e2 12	 shl	 edx, 18			; 00000012H
  00543	a1 00 00 00 00	 mov	 eax, DWORD PTR ?havoc_damage@@3THAVOC_DAMAGE_FLAGS@@A ; havoc_damage
  00548	25 ff ff fb ff	 and	 eax, -262145		; fffbffffH
  0054d	0b c2		 or	 eax, edx
  0054f	a3 00 00 00 00	 mov	 DWORD PTR ?havoc_damage@@3THAVOC_DAMAGE_FLAGS@@A, eax ; havoc_damage
$LN13@partially_:

; 316  : 	}
; 317  : 
; 318  : 	////////////////////////////////////////
; 319  : 
; 320  : 	if (havoc_damage.threat_warning_display)

  00554	a1 00 00 00 00	 mov	 eax, DWORD PTR ?havoc_damage@@3THAVOC_DAMAGE_FLAGS@@A ; havoc_damage
  00559	c1 e8 14	 shr	 eax, 20			; 00000014H
  0055c	83 e0 01	 and	 eax, 1
  0055f	74 63		 je	 SHORT $LN14@partially_

; 321  : 	{
; 322  : 		havoc_damage.threat_warning_display = frand1 () > 0.90;

  00561	69 05 00 00 00
	00 6d 4e c6 41	 imul	 eax, DWORD PTR ?random_number_seed@@3HA, 1103515245 ; random_number_seed
  0056b	05 39 30 00 00	 add	 eax, 12345		; 00003039H
  00570	a3 00 00 00 00	 mov	 DWORD PTR ?random_number_seed@@3HA, eax ; random_number_seed
  00575	8b 0d 00 00 00
	00		 mov	 ecx, DWORD PTR ?random_number_seed@@3HA ; random_number_seed
  0057b	c1 f9 10	 sar	 ecx, 16			; 00000010H
  0057e	81 e1 ff 7f 00
	00		 and	 ecx, 32767		; 00007fffH
  00584	f2 0f 2a c1	 cvtsi2sd xmm0, ecx
  00588	f2 0f 59 05 00
	00 00 00	 mulsd	 xmm0, QWORD PTR __real@3f00002000400080
  00590	66 0f 2f 05 00
	00 00 00	 comisd	 xmm0, QWORD PTR __real@3feccccccccccccd
  00598	76 09		 jbe	 SHORT $LN48@partially_
  0059a	c7 45 bc 01 00
	00 00		 mov	 DWORD PTR tv288[ebp], 1
  005a1	eb 07		 jmp	 SHORT $LN49@partially_
$LN48@partially_:
  005a3	c7 45 bc 00 00
	00 00		 mov	 DWORD PTR tv288[ebp], 0
$LN49@partially_:
  005aa	8b 55 bc	 mov	 edx, DWORD PTR tv288[ebp]
  005ad	83 e2 01	 and	 edx, 1
  005b0	c1 e2 14	 shl	 edx, 20			; 00000014H
  005b3	a1 00 00 00 00	 mov	 eax, DWORD PTR ?havoc_damage@@3THAVOC_DAMAGE_FLAGS@@A ; havoc_damage
  005b8	25 ff ff ef ff	 and	 eax, -1048577		; ffefffffH
  005bd	0b c2		 or	 eax, edx
  005bf	a3 00 00 00 00	 mov	 DWORD PTR ?havoc_damage@@3THAVOC_DAMAGE_FLAGS@@A, eax ; havoc_damage
$LN14@partially_:

; 323  : 	}
; 324  : 
; 325  : 	////////////////////////////////////////
; 326  : 
; 327  : 	if (havoc_damage.night_vision_goggles)

  005c4	a1 00 00 00 00	 mov	 eax, DWORD PTR ?havoc_damage@@3THAVOC_DAMAGE_FLAGS@@A ; havoc_damage
  005c9	c1 e8 15	 shr	 eax, 21			; 00000015H
  005cc	83 e0 01	 and	 eax, 1
  005cf	74 63		 je	 SHORT $LN15@partially_

; 328  : 	{
; 329  : 		havoc_damage.night_vision_goggles = frand1 () > 0.90;

  005d1	69 05 00 00 00
	00 6d 4e c6 41	 imul	 eax, DWORD PTR ?random_number_seed@@3HA, 1103515245 ; random_number_seed
  005db	05 39 30 00 00	 add	 eax, 12345		; 00003039H
  005e0	a3 00 00 00 00	 mov	 DWORD PTR ?random_number_seed@@3HA, eax ; random_number_seed
  005e5	8b 0d 00 00 00
	00		 mov	 ecx, DWORD PTR ?random_number_seed@@3HA ; random_number_seed
  005eb	c1 f9 10	 sar	 ecx, 16			; 00000010H
  005ee	81 e1 ff 7f 00
	00		 and	 ecx, 32767		; 00007fffH
  005f4	f2 0f 2a c1	 cvtsi2sd xmm0, ecx
  005f8	f2 0f 59 05 00
	00 00 00	 mulsd	 xmm0, QWORD PTR __real@3f00002000400080
  00600	66 0f 2f 05 00
	00 00 00	 comisd	 xmm0, QWORD PTR __real@3feccccccccccccd
  00608	76 09		 jbe	 SHORT $LN50@partially_
  0060a	c7 45 bc 01 00
	00 00		 mov	 DWORD PTR tv303[ebp], 1
  00611	eb 07		 jmp	 SHORT $LN51@partially_
$LN50@partially_:
  00613	c7 45 bc 00 00
	00 00		 mov	 DWORD PTR tv303[ebp], 0
$LN51@partially_:
  0061a	8b 55 bc	 mov	 edx, DWORD PTR tv303[ebp]
  0061d	83 e2 01	 and	 edx, 1
  00620	c1 e2 15	 shl	 edx, 21			; 00000015H
  00623	a1 00 00 00 00	 mov	 eax, DWORD PTR ?havoc_damage@@3THAVOC_DAMAGE_FLAGS@@A ; havoc_damage
  00628	25 ff ff df ff	 and	 eax, -2097153		; ffdfffffH
  0062d	0b c2		 or	 eax, edx
  0062f	a3 00 00 00 00	 mov	 DWORD PTR ?havoc_damage@@3THAVOC_DAMAGE_FLAGS@@A, eax ; havoc_damage
$LN15@partially_:

; 330  : 	}
; 331  : 
; 332  : 	////////////////////////////////////////
; 333  : 
; 334  : 	if (havoc_damage.gun_jammed)

  00634	a1 00 00 00 00	 mov	 eax, DWORD PTR ?havoc_damage@@3THAVOC_DAMAGE_FLAGS@@A ; havoc_damage
  00639	c1 e8 16	 shr	 eax, 22			; 00000016H
  0063c	83 e0 01	 and	 eax, 1
  0063f	74 63		 je	 SHORT $LN16@partially_

; 335  : 	{
; 336  : 		havoc_damage.gun_jammed = frand1 () > 0.90;

  00641	69 05 00 00 00
	00 6d 4e c6 41	 imul	 eax, DWORD PTR ?random_number_seed@@3HA, 1103515245 ; random_number_seed
  0064b	05 39 30 00 00	 add	 eax, 12345		; 00003039H
  00650	a3 00 00 00 00	 mov	 DWORD PTR ?random_number_seed@@3HA, eax ; random_number_seed
  00655	8b 0d 00 00 00
	00		 mov	 ecx, DWORD PTR ?random_number_seed@@3HA ; random_number_seed
  0065b	c1 f9 10	 sar	 ecx, 16			; 00000010H
  0065e	81 e1 ff 7f 00
	00		 and	 ecx, 32767		; 00007fffH
  00664	f2 0f 2a c1	 cvtsi2sd xmm0, ecx
  00668	f2 0f 59 05 00
	00 00 00	 mulsd	 xmm0, QWORD PTR __real@3f00002000400080
  00670	66 0f 2f 05 00
	00 00 00	 comisd	 xmm0, QWORD PTR __real@3feccccccccccccd
  00678	76 09		 jbe	 SHORT $LN52@partially_
  0067a	c7 45 bc 01 00
	00 00		 mov	 DWORD PTR tv318[ebp], 1
  00681	eb 07		 jmp	 SHORT $LN53@partially_
$LN52@partially_:
  00683	c7 45 bc 00 00
	00 00		 mov	 DWORD PTR tv318[ebp], 0
$LN53@partially_:
  0068a	8b 55 bc	 mov	 edx, DWORD PTR tv318[ebp]
  0068d	83 e2 01	 and	 edx, 1
  00690	c1 e2 16	 shl	 edx, 22			; 00000016H
  00693	a1 00 00 00 00	 mov	 eax, DWORD PTR ?havoc_damage@@3THAVOC_DAMAGE_FLAGS@@A ; havoc_damage
  00698	25 ff ff bf ff	 and	 eax, -4194305		; ffbfffffH
  0069d	0b c2		 or	 eax, edx
  0069f	a3 00 00 00 00	 mov	 DWORD PTR ?havoc_damage@@3THAVOC_DAMAGE_FLAGS@@A, eax ; havoc_damage
$LN16@partially_:

; 337  : 	}
; 338  : 
; 339  : 	////////////////////////////////////////
; 340  : 
; 341  : 	if (havoc_damage.lh_outer_pylon)

  006a4	a1 00 00 00 00	 mov	 eax, DWORD PTR ?havoc_damage@@3THAVOC_DAMAGE_FLAGS@@A ; havoc_damage
  006a9	c1 e8 17	 shr	 eax, 23			; 00000017H
  006ac	83 e0 01	 and	 eax, 1
  006af	74 63		 je	 SHORT $LN17@partially_

; 342  : 	{
; 343  : 		havoc_damage.lh_outer_pylon = frand1 () > 0.90;

  006b1	69 05 00 00 00
	00 6d 4e c6 41	 imul	 eax, DWORD PTR ?random_number_seed@@3HA, 1103515245 ; random_number_seed
  006bb	05 39 30 00 00	 add	 eax, 12345		; 00003039H
  006c0	a3 00 00 00 00	 mov	 DWORD PTR ?random_number_seed@@3HA, eax ; random_number_seed
  006c5	8b 0d 00 00 00
	00		 mov	 ecx, DWORD PTR ?random_number_seed@@3HA ; random_number_seed
  006cb	c1 f9 10	 sar	 ecx, 16			; 00000010H
  006ce	81 e1 ff 7f 00
	00		 and	 ecx, 32767		; 00007fffH
  006d4	f2 0f 2a c1	 cvtsi2sd xmm0, ecx
  006d8	f2 0f 59 05 00
	00 00 00	 mulsd	 xmm0, QWORD PTR __real@3f00002000400080
  006e0	66 0f 2f 05 00
	00 00 00	 comisd	 xmm0, QWORD PTR __real@3feccccccccccccd
  006e8	76 09		 jbe	 SHORT $LN54@partially_
  006ea	c7 45 bc 01 00
	00 00		 mov	 DWORD PTR tv333[ebp], 1
  006f1	eb 07		 jmp	 SHORT $LN55@partially_
$LN54@partially_:
  006f3	c7 45 bc 00 00
	00 00		 mov	 DWORD PTR tv333[ebp], 0
$LN55@partially_:
  006fa	8b 55 bc	 mov	 edx, DWORD PTR tv333[ebp]
  006fd	83 e2 01	 and	 edx, 1
  00700	c1 e2 17	 shl	 edx, 23			; 00000017H
  00703	a1 00 00 00 00	 mov	 eax, DWORD PTR ?havoc_damage@@3THAVOC_DAMAGE_FLAGS@@A ; havoc_damage
  00708	25 ff ff 7f ff	 and	 eax, -8388609		; ff7fffffH
  0070d	0b c2		 or	 eax, edx
  0070f	a3 00 00 00 00	 mov	 DWORD PTR ?havoc_damage@@3THAVOC_DAMAGE_FLAGS@@A, eax ; havoc_damage
$LN17@partially_:

; 344  : 	}
; 345  : 
; 346  : 	////////////////////////////////////////
; 347  : 
; 348  : 	if (havoc_damage.lh_inner_pylon)

  00714	a1 00 00 00 00	 mov	 eax, DWORD PTR ?havoc_damage@@3THAVOC_DAMAGE_FLAGS@@A ; havoc_damage
  00719	c1 e8 19	 shr	 eax, 25			; 00000019H
  0071c	83 e0 01	 and	 eax, 1
  0071f	74 63		 je	 SHORT $LN18@partially_

; 349  : 	{
; 350  : 		havoc_damage.lh_inner_pylon = frand1 () > 0.90;

  00721	69 05 00 00 00
	00 6d 4e c6 41	 imul	 eax, DWORD PTR ?random_number_seed@@3HA, 1103515245 ; random_number_seed
  0072b	05 39 30 00 00	 add	 eax, 12345		; 00003039H
  00730	a3 00 00 00 00	 mov	 DWORD PTR ?random_number_seed@@3HA, eax ; random_number_seed
  00735	8b 0d 00 00 00
	00		 mov	 ecx, DWORD PTR ?random_number_seed@@3HA ; random_number_seed
  0073b	c1 f9 10	 sar	 ecx, 16			; 00000010H
  0073e	81 e1 ff 7f 00
	00		 and	 ecx, 32767		; 00007fffH
  00744	f2 0f 2a c1	 cvtsi2sd xmm0, ecx
  00748	f2 0f 59 05 00
	00 00 00	 mulsd	 xmm0, QWORD PTR __real@3f00002000400080
  00750	66 0f 2f 05 00
	00 00 00	 comisd	 xmm0, QWORD PTR __real@3feccccccccccccd
  00758	76 09		 jbe	 SHORT $LN56@partially_
  0075a	c7 45 bc 01 00
	00 00		 mov	 DWORD PTR tv348[ebp], 1
  00761	eb 07		 jmp	 SHORT $LN57@partially_
$LN56@partially_:
  00763	c7 45 bc 00 00
	00 00		 mov	 DWORD PTR tv348[ebp], 0
$LN57@partially_:
  0076a	8b 55 bc	 mov	 edx, DWORD PTR tv348[ebp]
  0076d	83 e2 01	 and	 edx, 1
  00770	c1 e2 19	 shl	 edx, 25			; 00000019H
  00773	a1 00 00 00 00	 mov	 eax, DWORD PTR ?havoc_damage@@3THAVOC_DAMAGE_FLAGS@@A ; havoc_damage
  00778	25 ff ff ff fd	 and	 eax, -33554433		; fdffffffH
  0077d	0b c2		 or	 eax, edx
  0077f	a3 00 00 00 00	 mov	 DWORD PTR ?havoc_damage@@3THAVOC_DAMAGE_FLAGS@@A, eax ; havoc_damage
$LN18@partially_:

; 351  : 	}
; 352  : 
; 353  : 	////////////////////////////////////////
; 354  : 
; 355  : 	if (havoc_damage.rh_outer_pylon)

  00784	a1 00 00 00 00	 mov	 eax, DWORD PTR ?havoc_damage@@3THAVOC_DAMAGE_FLAGS@@A ; havoc_damage
  00789	c1 e8 1a	 shr	 eax, 26			; 0000001aH
  0078c	83 e0 01	 and	 eax, 1
  0078f	74 63		 je	 SHORT $LN19@partially_

; 356  : 	{
; 357  : 		havoc_damage.rh_outer_pylon = frand1 () > 0.90;

  00791	69 05 00 00 00
	00 6d 4e c6 41	 imul	 eax, DWORD PTR ?random_number_seed@@3HA, 1103515245 ; random_number_seed
  0079b	05 39 30 00 00	 add	 eax, 12345		; 00003039H
  007a0	a3 00 00 00 00	 mov	 DWORD PTR ?random_number_seed@@3HA, eax ; random_number_seed
  007a5	8b 0d 00 00 00
	00		 mov	 ecx, DWORD PTR ?random_number_seed@@3HA ; random_number_seed
  007ab	c1 f9 10	 sar	 ecx, 16			; 00000010H
  007ae	81 e1 ff 7f 00
	00		 and	 ecx, 32767		; 00007fffH
  007b4	f2 0f 2a c1	 cvtsi2sd xmm0, ecx
  007b8	f2 0f 59 05 00
	00 00 00	 mulsd	 xmm0, QWORD PTR __real@3f00002000400080
  007c0	66 0f 2f 05 00
	00 00 00	 comisd	 xmm0, QWORD PTR __real@3feccccccccccccd
  007c8	76 09		 jbe	 SHORT $LN58@partially_
  007ca	c7 45 bc 01 00
	00 00		 mov	 DWORD PTR tv363[ebp], 1
  007d1	eb 07		 jmp	 SHORT $LN59@partially_
$LN58@partially_:
  007d3	c7 45 bc 00 00
	00 00		 mov	 DWORD PTR tv363[ebp], 0
$LN59@partially_:
  007da	8b 55 bc	 mov	 edx, DWORD PTR tv363[ebp]
  007dd	83 e2 01	 and	 edx, 1
  007e0	c1 e2 1a	 shl	 edx, 26			; 0000001aH
  007e3	a1 00 00 00 00	 mov	 eax, DWORD PTR ?havoc_damage@@3THAVOC_DAMAGE_FLAGS@@A ; havoc_damage
  007e8	25 ff ff ff fb	 and	 eax, -67108865		; fbffffffH
  007ed	0b c2		 or	 eax, edx
  007ef	a3 00 00 00 00	 mov	 DWORD PTR ?havoc_damage@@3THAVOC_DAMAGE_FLAGS@@A, eax ; havoc_damage
$LN19@partially_:

; 358  : 	}
; 359  : 
; 360  : 	////////////////////////////////////////
; 361  : 
; 362  : 	if (havoc_damage.rh_inner_pylon)

  007f4	a1 00 00 00 00	 mov	 eax, DWORD PTR ?havoc_damage@@3THAVOC_DAMAGE_FLAGS@@A ; havoc_damage
  007f9	c1 e8 1c	 shr	 eax, 28			; 0000001cH
  007fc	83 e0 01	 and	 eax, 1
  007ff	74 63		 je	 SHORT $LN20@partially_

; 363  : 	{
; 364  : 		havoc_damage.rh_inner_pylon = frand1 () > 0.90;

  00801	69 05 00 00 00
	00 6d 4e c6 41	 imul	 eax, DWORD PTR ?random_number_seed@@3HA, 1103515245 ; random_number_seed
  0080b	05 39 30 00 00	 add	 eax, 12345		; 00003039H
  00810	a3 00 00 00 00	 mov	 DWORD PTR ?random_number_seed@@3HA, eax ; random_number_seed
  00815	8b 0d 00 00 00
	00		 mov	 ecx, DWORD PTR ?random_number_seed@@3HA ; random_number_seed
  0081b	c1 f9 10	 sar	 ecx, 16			; 00000010H
  0081e	81 e1 ff 7f 00
	00		 and	 ecx, 32767		; 00007fffH
  00824	f2 0f 2a c1	 cvtsi2sd xmm0, ecx
  00828	f2 0f 59 05 00
	00 00 00	 mulsd	 xmm0, QWORD PTR __real@3f00002000400080
  00830	66 0f 2f 05 00
	00 00 00	 comisd	 xmm0, QWORD PTR __real@3feccccccccccccd
  00838	76 09		 jbe	 SHORT $LN60@partially_
  0083a	c7 45 bc 01 00
	00 00		 mov	 DWORD PTR tv378[ebp], 1
  00841	eb 07		 jmp	 SHORT $LN61@partially_
$LN60@partially_:
  00843	c7 45 bc 00 00
	00 00		 mov	 DWORD PTR tv378[ebp], 0
$LN61@partially_:
  0084a	8b 55 bc	 mov	 edx, DWORD PTR tv378[ebp]
  0084d	83 e2 01	 and	 edx, 1
  00850	c1 e2 1c	 shl	 edx, 28			; 0000001cH
  00853	a1 00 00 00 00	 mov	 eax, DWORD PTR ?havoc_damage@@3THAVOC_DAMAGE_FLAGS@@A ; havoc_damage
  00858	25 ff ff ff ef	 and	 eax, -268435457		; efffffffH
  0085d	0b c2		 or	 eax, edx
  0085f	a3 00 00 00 00	 mov	 DWORD PTR ?havoc_damage@@3THAVOC_DAMAGE_FLAGS@@A, eax ; havoc_damage
$LN20@partially_:

; 365  : 	}
; 366  : 
; 367  : 	////////////////////////////////////////
; 368  : 
; 369  : 	if (havoc_damage.chaff_dispenser)

  00864	a1 00 00 00 00	 mov	 eax, DWORD PTR ?havoc_damage@@3THAVOC_DAMAGE_FLAGS@@A ; havoc_damage
  00869	c1 e8 1d	 shr	 eax, 29			; 0000001dH
  0086c	83 e0 01	 and	 eax, 1
  0086f	74 63		 je	 SHORT $LN21@partially_

; 370  : 	{
; 371  : 		havoc_damage.chaff_dispenser = frand1 () > 0.90;

  00871	69 05 00 00 00
	00 6d 4e c6 41	 imul	 eax, DWORD PTR ?random_number_seed@@3HA, 1103515245 ; random_number_seed
  0087b	05 39 30 00 00	 add	 eax, 12345		; 00003039H
  00880	a3 00 00 00 00	 mov	 DWORD PTR ?random_number_seed@@3HA, eax ; random_number_seed
  00885	8b 0d 00 00 00
	00		 mov	 ecx, DWORD PTR ?random_number_seed@@3HA ; random_number_seed
  0088b	c1 f9 10	 sar	 ecx, 16			; 00000010H
  0088e	81 e1 ff 7f 00
	00		 and	 ecx, 32767		; 00007fffH
  00894	f2 0f 2a c1	 cvtsi2sd xmm0, ecx
  00898	f2 0f 59 05 00
	00 00 00	 mulsd	 xmm0, QWORD PTR __real@3f00002000400080
  008a0	66 0f 2f 05 00
	00 00 00	 comisd	 xmm0, QWORD PTR __real@3feccccccccccccd
  008a8	76 09		 jbe	 SHORT $LN62@partially_
  008aa	c7 45 bc 01 00
	00 00		 mov	 DWORD PTR tv393[ebp], 1
  008b1	eb 07		 jmp	 SHORT $LN63@partially_
$LN62@partially_:
  008b3	c7 45 bc 00 00
	00 00		 mov	 DWORD PTR tv393[ebp], 0
$LN63@partially_:
  008ba	8b 55 bc	 mov	 edx, DWORD PTR tv393[ebp]
  008bd	83 e2 01	 and	 edx, 1
  008c0	c1 e2 1d	 shl	 edx, 29			; 0000001dH
  008c3	a1 00 00 00 00	 mov	 eax, DWORD PTR ?havoc_damage@@3THAVOC_DAMAGE_FLAGS@@A ; havoc_damage
  008c8	25 ff ff ff df	 and	 eax, -536870913		; dfffffffH
  008cd	0b c2		 or	 eax, edx
  008cf	a3 00 00 00 00	 mov	 DWORD PTR ?havoc_damage@@3THAVOC_DAMAGE_FLAGS@@A, eax ; havoc_damage
$LN21@partially_:

; 372  : 	}
; 373  : 
; 374  : 	////////////////////////////////////////
; 375  : 
; 376  : 	if (havoc_damage.flare_dispenser)

  008d4	a1 00 00 00 00	 mov	 eax, DWORD PTR ?havoc_damage@@3THAVOC_DAMAGE_FLAGS@@A ; havoc_damage
  008d9	c1 e8 1f	 shr	 eax, 31			; 0000001fH
  008dc	83 e0 01	 and	 eax, 1
  008df	74 63		 je	 SHORT $LN22@partially_

; 377  : 	{
; 378  : 		havoc_damage.flare_dispenser = frand1 () > 0.90;

  008e1	69 05 00 00 00
	00 6d 4e c6 41	 imul	 eax, DWORD PTR ?random_number_seed@@3HA, 1103515245 ; random_number_seed
  008eb	05 39 30 00 00	 add	 eax, 12345		; 00003039H
  008f0	a3 00 00 00 00	 mov	 DWORD PTR ?random_number_seed@@3HA, eax ; random_number_seed
  008f5	8b 0d 00 00 00
	00		 mov	 ecx, DWORD PTR ?random_number_seed@@3HA ; random_number_seed
  008fb	c1 f9 10	 sar	 ecx, 16			; 00000010H
  008fe	81 e1 ff 7f 00
	00		 and	 ecx, 32767		; 00007fffH
  00904	f2 0f 2a c1	 cvtsi2sd xmm0, ecx
  00908	f2 0f 59 05 00
	00 00 00	 mulsd	 xmm0, QWORD PTR __real@3f00002000400080
  00910	66 0f 2f 05 00
	00 00 00	 comisd	 xmm0, QWORD PTR __real@3feccccccccccccd
  00918	76 09		 jbe	 SHORT $LN64@partially_
  0091a	c7 45 bc 01 00
	00 00		 mov	 DWORD PTR tv408[ebp], 1
  00921	eb 07		 jmp	 SHORT $LN65@partially_
$LN64@partially_:
  00923	c7 45 bc 00 00
	00 00		 mov	 DWORD PTR tv408[ebp], 0
$LN65@partially_:
  0092a	8b 55 bc	 mov	 edx, DWORD PTR tv408[ebp]
  0092d	83 e2 01	 and	 edx, 1
  00930	c1 e2 1f	 shl	 edx, 31			; 0000001fH
  00933	a1 00 00 00 00	 mov	 eax, DWORD PTR ?havoc_damage@@3THAVOC_DAMAGE_FLAGS@@A ; havoc_damage
  00938	25 ff ff ff 7f	 and	 eax, 2147483647		; 7fffffffH
  0093d	0b c2		 or	 eax, edx
  0093f	a3 00 00 00 00	 mov	 DWORD PTR ?havoc_damage@@3THAVOC_DAMAGE_FLAGS@@A, eax ; havoc_damage
$LN22@partially_:

; 379  : 	}
; 380  : 
; 381  : 	////////////////////////////////////////
; 382  : 
; 383  : 	set_havoc_weapon_damage_status ();

  00944	e8 00 00 00 00	 call	 ?set_havoc_weapon_damage_status@@YGXXZ ; set_havoc_weapon_damage_status

; 384  : }

  00949	5f		 pop	 edi
  0094a	5e		 pop	 esi
  0094b	5b		 pop	 ebx
  0094c	8b e5		 mov	 esp, ebp
  0094e	5d		 pop	 ebp
  0094f	c3		 ret	 0
?partially_repair_havoc_damage@@YGXXZ ENDP		; partially_repair_havoc_damage
_TEXT	ENDS
; Function compile flags: /Odtp /ZI
; File c:\users\nhv90\projects\eech\aphavoc\source\gunships\avionics\havoc\ha_dam.c
;	COMDAT ?fully_repair_havoc_damage@@YGXXZ
_TEXT	SEGMENT
?fully_repair_havoc_damage@@YGXXZ PROC			; fully_repair_havoc_damage, COMDAT

; 130  : {

  00000	55		 push	 ebp
  00001	8b ec		 mov	 ebp, esp
  00003	83 ec 40	 sub	 esp, 64			; 00000040H
  00006	53		 push	 ebx
  00007	56		 push	 esi
  00008	57		 push	 edi

; 131  : 	set_havoc_ekran_display_text ("", "", NULL, NULL);

  00009	6a 00		 push	 0
  0000b	6a 00		 push	 0
  0000d	68 00 00 00 00	 push	 OFFSET ??_C@_00CNPNBAHC@@
  00012	68 00 00 00 00	 push	 OFFSET ??_C@_00CNPNBAHC@@
  00017	e8 00 00 00 00	 call	 ?set_havoc_ekran_display_text@@YGXPAD000@Z ; set_havoc_ekran_display_text

; 132  : 
; 133  : 	fire_extinguisher_used = FALSE;

  0001c	c7 05 00 00 00
	00 00 00 00 00	 mov	 DWORD PTR ?fire_extinguisher_used@@3HA, 0 ; fire_extinguisher_used

; 134  : 
; 135  : 	////////////////////////////////////////
; 136  : 
; 137  : 	havoc_damage.radar = FALSE;

  00026	a1 00 00 00 00	 mov	 eax, DWORD PTR ?havoc_damage@@3THAVOC_DAMAGE_FLAGS@@A ; havoc_damage
  0002b	83 e0 fe	 and	 eax, -2			; fffffffeH
  0002e	a3 00 00 00 00	 mov	 DWORD PTR ?havoc_damage@@3THAVOC_DAMAGE_FLAGS@@A, eax ; havoc_damage

; 138  : 
; 139  : 	////////////////////////////////////////
; 140  : 
; 141  : 	havoc_damage.flir = FALSE;

  00033	a1 00 00 00 00	 mov	 eax, DWORD PTR ?havoc_damage@@3THAVOC_DAMAGE_FLAGS@@A ; havoc_damage
  00038	83 e0 fd	 and	 eax, -3			; fffffffdH
  0003b	a3 00 00 00 00	 mov	 DWORD PTR ?havoc_damage@@3THAVOC_DAMAGE_FLAGS@@A, eax ; havoc_damage

; 142  : 
; 143  : 	////////////////////////////////////////
; 144  : 
; 145  : 	havoc_damage.llltv = FALSE;

  00040	a1 00 00 00 00	 mov	 eax, DWORD PTR ?havoc_damage@@3THAVOC_DAMAGE_FLAGS@@A ; havoc_damage
  00045	83 e0 f7	 and	 eax, -9			; fffffff7H
  00048	a3 00 00 00 00	 mov	 DWORD PTR ?havoc_damage@@3THAVOC_DAMAGE_FLAGS@@A, eax ; havoc_damage

; 146  : 
; 147  : 	////////////////////////////////////////
; 148  : 
; 149  : 	havoc_damage.laser_range_finder = FALSE;

  0004d	a1 00 00 00 00	 mov	 eax, DWORD PTR ?havoc_damage@@3THAVOC_DAMAGE_FLAGS@@A ; havoc_damage
  00052	83 e0 ef	 and	 eax, -17		; ffffffefH
  00055	a3 00 00 00 00	 mov	 DWORD PTR ?havoc_damage@@3THAVOC_DAMAGE_FLAGS@@A, eax ; havoc_damage

; 150  : 
; 151  : 	////////////////////////////////////////
; 152  : 
; 153  : 	havoc_damage.radar_jammer = FALSE;

  0005a	a1 00 00 00 00	 mov	 eax, DWORD PTR ?havoc_damage@@3THAVOC_DAMAGE_FLAGS@@A ; havoc_damage
  0005f	83 e0 bf	 and	 eax, -65		; ffffffbfH
  00062	a3 00 00 00 00	 mov	 DWORD PTR ?havoc_damage@@3THAVOC_DAMAGE_FLAGS@@A, eax ; havoc_damage

; 154  : 
; 155  : 	////////////////////////////////////////
; 156  : 
; 157  : 	havoc_damage.infra_red_jammer = FALSE;

  00067	a1 00 00 00 00	 mov	 eax, DWORD PTR ?havoc_damage@@3THAVOC_DAMAGE_FLAGS@@A ; havoc_damage
  0006c	25 7f ff ff ff	 and	 eax, -129		; ffffff7fH
  00071	a3 00 00 00 00	 mov	 DWORD PTR ?havoc_damage@@3THAVOC_DAMAGE_FLAGS@@A, eax ; havoc_damage

; 158  : 
; 159  : 	////////////////////////////////////////
; 160  : 
; 161  : 	havoc_damage.navigation_computer = FALSE;

  00076	a1 00 00 00 00	 mov	 eax, DWORD PTR ?havoc_damage@@3THAVOC_DAMAGE_FLAGS@@A ; havoc_damage
  0007b	25 ff fd ff ff	 and	 eax, -513		; fffffdffH
  00080	a3 00 00 00 00	 mov	 DWORD PTR ?havoc_damage@@3THAVOC_DAMAGE_FLAGS@@A, eax ; havoc_damage

; 162  : 
; 163  : 	////////////////////////////////////////
; 164  : 
; 165  : 	havoc_damage.communications = FALSE;

  00085	a1 00 00 00 00	 mov	 eax, DWORD PTR ?havoc_damage@@3THAVOC_DAMAGE_FLAGS@@A ; havoc_damage
  0008a	25 ff f7 ff ff	 and	 eax, -2049		; fffff7ffH
  0008f	a3 00 00 00 00	 mov	 DWORD PTR ?havoc_damage@@3THAVOC_DAMAGE_FLAGS@@A, eax ; havoc_damage

; 166  : 
; 167  : 	////////////////////////////////////////
; 168  : 
; 169  : 	havoc_damage.radar_warning_system = FALSE;

  00094	a1 00 00 00 00	 mov	 eax, DWORD PTR ?havoc_damage@@3THAVOC_DAMAGE_FLAGS@@A ; havoc_damage
  00099	25 ff df ff ff	 and	 eax, -8193		; ffffdfffH
  0009e	a3 00 00 00 00	 mov	 DWORD PTR ?havoc_damage@@3THAVOC_DAMAGE_FLAGS@@A, eax ; havoc_damage

; 170  : 
; 171  : 	////////////////////////////////////////
; 172  : 
; 173  : 	havoc_damage.head_up_display = FALSE;

  000a3	a1 00 00 00 00	 mov	 eax, DWORD PTR ?havoc_damage@@3THAVOC_DAMAGE_FLAGS@@A ; havoc_damage
  000a8	25 ff 7f ff ff	 and	 eax, -32769		; ffff7fffH
  000ad	a3 00 00 00 00	 mov	 DWORD PTR ?havoc_damage@@3THAVOC_DAMAGE_FLAGS@@A, eax ; havoc_damage

; 174  : 
; 175  : 	////////////////////////////////////////
; 176  : 
; 177  : 	havoc_damage.helmet_mounted_sight = FALSE;

  000b2	a1 00 00 00 00	 mov	 eax, DWORD PTR ?havoc_damage@@3THAVOC_DAMAGE_FLAGS@@A ; havoc_damage
  000b7	25 ff ff fd ff	 and	 eax, -131073		; fffdffffH
  000bc	a3 00 00 00 00	 mov	 DWORD PTR ?havoc_damage@@3THAVOC_DAMAGE_FLAGS@@A, eax ; havoc_damage

; 178  : 
; 179  : 	////////////////////////////////////////
; 180  : 
; 181  : 	havoc_damage.tv_display = FALSE;

  000c1	a1 00 00 00 00	 mov	 eax, DWORD PTR ?havoc_damage@@3THAVOC_DAMAGE_FLAGS@@A ; havoc_damage
  000c6	25 ff ff fb ff	 and	 eax, -262145		; fffbffffH
  000cb	a3 00 00 00 00	 mov	 DWORD PTR ?havoc_damage@@3THAVOC_DAMAGE_FLAGS@@A, eax ; havoc_damage

; 182  : 
; 183  : 	////////////////////////////////////////
; 184  : 
; 185  : 	havoc_damage.threat_warning_display = FALSE;

  000d0	a1 00 00 00 00	 mov	 eax, DWORD PTR ?havoc_damage@@3THAVOC_DAMAGE_FLAGS@@A ; havoc_damage
  000d5	25 ff ff ef ff	 and	 eax, -1048577		; ffefffffH
  000da	a3 00 00 00 00	 mov	 DWORD PTR ?havoc_damage@@3THAVOC_DAMAGE_FLAGS@@A, eax ; havoc_damage

; 186  : 
; 187  : 	////////////////////////////////////////
; 188  : 
; 189  : 	havoc_damage.night_vision_goggles = FALSE;

  000df	a1 00 00 00 00	 mov	 eax, DWORD PTR ?havoc_damage@@3THAVOC_DAMAGE_FLAGS@@A ; havoc_damage
  000e4	25 ff ff df ff	 and	 eax, -2097153		; ffdfffffH
  000e9	a3 00 00 00 00	 mov	 DWORD PTR ?havoc_damage@@3THAVOC_DAMAGE_FLAGS@@A, eax ; havoc_damage

; 190  : 
; 191  : 	////////////////////////////////////////
; 192  : 
; 193  : 	havoc_damage.gun_jammed = FALSE;

  000ee	a1 00 00 00 00	 mov	 eax, DWORD PTR ?havoc_damage@@3THAVOC_DAMAGE_FLAGS@@A ; havoc_damage
  000f3	25 ff ff bf ff	 and	 eax, -4194305		; ffbfffffH
  000f8	a3 00 00 00 00	 mov	 DWORD PTR ?havoc_damage@@3THAVOC_DAMAGE_FLAGS@@A, eax ; havoc_damage

; 194  : 
; 195  : 	////////////////////////////////////////
; 196  : 
; 197  : 	havoc_damage.lh_outer_pylon = FALSE;

  000fd	a1 00 00 00 00	 mov	 eax, DWORD PTR ?havoc_damage@@3THAVOC_DAMAGE_FLAGS@@A ; havoc_damage
  00102	25 ff ff 7f ff	 and	 eax, -8388609		; ff7fffffH
  00107	a3 00 00 00 00	 mov	 DWORD PTR ?havoc_damage@@3THAVOC_DAMAGE_FLAGS@@A, eax ; havoc_damage

; 198  : 
; 199  : 	////////////////////////////////////////
; 200  : 
; 201  : 	havoc_damage.lh_inner_pylon = FALSE;

  0010c	a1 00 00 00 00	 mov	 eax, DWORD PTR ?havoc_damage@@3THAVOC_DAMAGE_FLAGS@@A ; havoc_damage
  00111	25 ff ff ff fd	 and	 eax, -33554433		; fdffffffH
  00116	a3 00 00 00 00	 mov	 DWORD PTR ?havoc_damage@@3THAVOC_DAMAGE_FLAGS@@A, eax ; havoc_damage

; 202  : 
; 203  : 	////////////////////////////////////////
; 204  : 
; 205  : 	havoc_damage.rh_outer_pylon = FALSE;

  0011b	a1 00 00 00 00	 mov	 eax, DWORD PTR ?havoc_damage@@3THAVOC_DAMAGE_FLAGS@@A ; havoc_damage
  00120	25 ff ff ff fb	 and	 eax, -67108865		; fbffffffH
  00125	a3 00 00 00 00	 mov	 DWORD PTR ?havoc_damage@@3THAVOC_DAMAGE_FLAGS@@A, eax ; havoc_damage

; 206  : 
; 207  : 	////////////////////////////////////////
; 208  : 
; 209  : 	havoc_damage.rh_inner_pylon = FALSE;

  0012a	a1 00 00 00 00	 mov	 eax, DWORD PTR ?havoc_damage@@3THAVOC_DAMAGE_FLAGS@@A ; havoc_damage
  0012f	25 ff ff ff ef	 and	 eax, -268435457		; efffffffH
  00134	a3 00 00 00 00	 mov	 DWORD PTR ?havoc_damage@@3THAVOC_DAMAGE_FLAGS@@A, eax ; havoc_damage

; 210  : 
; 211  : 	////////////////////////////////////////
; 212  : 
; 213  : 	havoc_damage.chaff_dispenser = FALSE;

  00139	a1 00 00 00 00	 mov	 eax, DWORD PTR ?havoc_damage@@3THAVOC_DAMAGE_FLAGS@@A ; havoc_damage
  0013e	25 ff ff ff df	 and	 eax, -536870913		; dfffffffH
  00143	a3 00 00 00 00	 mov	 DWORD PTR ?havoc_damage@@3THAVOC_DAMAGE_FLAGS@@A, eax ; havoc_damage

; 214  : 
; 215  : 	////////////////////////////////////////
; 216  : 
; 217  : 	havoc_damage.flare_dispenser = FALSE;

  00148	a1 00 00 00 00	 mov	 eax, DWORD PTR ?havoc_damage@@3THAVOC_DAMAGE_FLAGS@@A ; havoc_damage
  0014d	25 ff ff ff 7f	 and	 eax, 2147483647		; 7fffffffH
  00152	a3 00 00 00 00	 mov	 DWORD PTR ?havoc_damage@@3THAVOC_DAMAGE_FLAGS@@A, eax ; havoc_damage

; 218  : 
; 219  : 	////////////////////////////////////////
; 220  : 
; 221  : 	set_havoc_weapon_damage_status ();

  00157	e8 00 00 00 00	 call	 ?set_havoc_weapon_damage_status@@YGXXZ ; set_havoc_weapon_damage_status

; 222  : }

  0015c	5f		 pop	 edi
  0015d	5e		 pop	 esi
  0015e	5b		 pop	 ebx
  0015f	8b e5		 mov	 esp, ebp
  00161	5d		 pop	 ebp
  00162	c3		 ret	 0
?fully_repair_havoc_damage@@YGXXZ ENDP			; fully_repair_havoc_damage
_TEXT	ENDS
; Function compile flags: /Odtp /ZI
; File c:\users\nhv90\projects\eech\aphavoc\source\gunships\avionics\havoc\ha_dam.c
;	COMDAT ?set_havoc_weapon_damage_status@@YGXXZ
_TEXT	SEGMENT
tv158 = -80						; size = 4
tv150 = -76						; size = 4
_weapon_sub_type$ = -8					; size = 4
_en$ = -4						; size = 4
?set_havoc_weapon_damage_status@@YGXXZ PROC		; set_havoc_weapon_damage_status, COMDAT

; 87   : {

  00000	55		 push	 ebp
  00001	8b ec		 mov	 ebp, esp
  00003	83 ec 50	 sub	 esp, 80			; 00000050H
  00006	53		 push	 ebx
  00007	56		 push	 esi
  00008	57		 push	 edi

; 88   : 	entity
; 89   : 		*en;
; 90   : 
; 91   : 	entity_sub_types
; 92   : 		weapon_sub_type;
; 93   : 
; 94   : 	en = get_gunship_entity ();

  00009	a1 00 00 00 00	 mov	 eax, DWORD PTR ?gunship_entity@@3PAUENTITY@@A ; gunship_entity
  0000e	89 45 fc	 mov	 DWORD PTR _en$[ebp], eax

; 95   : 
; 96   : 	set_client_server_entity_weapon_damage (en, HAVOC_CANNON_TURRET, ENTITY_SUB_TYPE_WEAPON_2A42_30MM_HE_ROUND, havoc_damage.gun_jammed);

  00011	a1 00 00 00 00	 mov	 eax, DWORD PTR ?havoc_damage@@3THAVOC_DAMAGE_FLAGS@@A ; havoc_damage
  00016	c1 e8 16	 shr	 eax, 22			; 00000016H
  00019	83 e0 01	 and	 eax, 1
  0001c	50		 push	 eax
  0001d	6a 13		 push	 19			; 00000013H
  0001f	6a 04		 push	 4
  00021	8b 4d fc	 mov	 ecx, DWORD PTR _en$[ebp]
  00024	51		 push	 ecx
  00025	e8 00 00 00 00	 call	 ?set_client_server_entity_weapon_damage@@YGXPAUENTITY@@HHH@Z ; set_client_server_entity_weapon_damage

; 97   : 	set_client_server_entity_weapon_damage (en, HAVOC_CANNON_TURRET, ENTITY_SUB_TYPE_WEAPON_2A42_30MM_AP_ROUND, havoc_damage.gun_jammed);

  0002a	a1 00 00 00 00	 mov	 eax, DWORD PTR ?havoc_damage@@3THAVOC_DAMAGE_FLAGS@@A ; havoc_damage
  0002f	c1 e8 16	 shr	 eax, 22			; 00000016H
  00032	83 e0 01	 and	 eax, 1
  00035	50		 push	 eax
  00036	6a 14		 push	 20			; 00000014H
  00038	6a 04		 push	 4
  0003a	8b 4d fc	 mov	 ecx, DWORD PTR _en$[ebp]
  0003d	51		 push	 ecx
  0003e	e8 00 00 00 00	 call	 ?set_client_server_entity_weapon_damage@@YGXPAUENTITY@@HHH@Z ; set_client_server_entity_weapon_damage

; 98   : 
; 99   : 	set_client_server_entity_weapon_damage (en, HAVOC_LHS_OUTER_PYLON, ENTITY_SUB_TYPE_WEAPON_NO_WEAPON, havoc_damage.lh_outer_pylon);

  00043	a1 00 00 00 00	 mov	 eax, DWORD PTR ?havoc_damage@@3THAVOC_DAMAGE_FLAGS@@A ; havoc_damage
  00048	c1 e8 17	 shr	 eax, 23			; 00000017H
  0004b	83 e0 01	 and	 eax, 1
  0004e	50		 push	 eax
  0004f	6a 00		 push	 0
  00051	6a 02		 push	 2
  00053	8b 4d fc	 mov	 ecx, DWORD PTR _en$[ebp]
  00056	51		 push	 ecx
  00057	e8 00 00 00 00	 call	 ?set_client_server_entity_weapon_damage@@YGXPAUENTITY@@HHH@Z ; set_client_server_entity_weapon_damage

; 100  : 	set_client_server_entity_weapon_damage (en, HAVOC_LHS_INNER_PYLON, ENTITY_SUB_TYPE_WEAPON_NO_WEAPON, havoc_damage.lh_inner_pylon);

  0005c	a1 00 00 00 00	 mov	 eax, DWORD PTR ?havoc_damage@@3THAVOC_DAMAGE_FLAGS@@A ; havoc_damage
  00061	c1 e8 19	 shr	 eax, 25			; 00000019H
  00064	83 e0 01	 and	 eax, 1
  00067	50		 push	 eax
  00068	6a 00		 push	 0
  0006a	6a 00		 push	 0
  0006c	8b 4d fc	 mov	 ecx, DWORD PTR _en$[ebp]
  0006f	51		 push	 ecx
  00070	e8 00 00 00 00	 call	 ?set_client_server_entity_weapon_damage@@YGXPAUENTITY@@HHH@Z ; set_client_server_entity_weapon_damage

; 101  : 
; 102  : 	set_client_server_entity_weapon_damage (en, HAVOC_RHS_OUTER_PYLON, ENTITY_SUB_TYPE_WEAPON_NO_WEAPON, havoc_damage.rh_outer_pylon);

  00075	a1 00 00 00 00	 mov	 eax, DWORD PTR ?havoc_damage@@3THAVOC_DAMAGE_FLAGS@@A ; havoc_damage
  0007a	c1 e8 1a	 shr	 eax, 26			; 0000001aH
  0007d	83 e0 01	 and	 eax, 1
  00080	50		 push	 eax
  00081	6a 00		 push	 0
  00083	6a 03		 push	 3
  00085	8b 4d fc	 mov	 ecx, DWORD PTR _en$[ebp]
  00088	51		 push	 ecx
  00089	e8 00 00 00 00	 call	 ?set_client_server_entity_weapon_damage@@YGXPAUENTITY@@HHH@Z ; set_client_server_entity_weapon_damage

; 103  : 	set_client_server_entity_weapon_damage (en, HAVOC_RHS_INNER_PYLON, ENTITY_SUB_TYPE_WEAPON_NO_WEAPON, havoc_damage.rh_inner_pylon);

  0008e	a1 00 00 00 00	 mov	 eax, DWORD PTR ?havoc_damage@@3THAVOC_DAMAGE_FLAGS@@A ; havoc_damage
  00093	c1 e8 1c	 shr	 eax, 28			; 0000001cH
  00096	83 e0 01	 and	 eax, 1
  00099	50		 push	 eax
  0009a	6a 00		 push	 0
  0009c	6a 01		 push	 1
  0009e	8b 4d fc	 mov	 ecx, DWORD PTR _en$[ebp]
  000a1	51		 push	 ecx
  000a2	e8 00 00 00 00	 call	 ?set_client_server_entity_weapon_damage@@YGXPAUENTITY@@HHH@Z ; set_client_server_entity_weapon_damage

; 104  : 
; 105  : 	set_client_server_entity_weapon_damage (en, HAVOC_CHAFF_DISPENSER, ENTITY_SUB_TYPE_WEAPON_CHAFF, havoc_damage.chaff_dispenser);

  000a7	a1 00 00 00 00	 mov	 eax, DWORD PTR ?havoc_damage@@3THAVOC_DAMAGE_FLAGS@@A ; havoc_damage
  000ac	c1 e8 1d	 shr	 eax, 29			; 0000001dH
  000af	83 e0 01	 and	 eax, 1
  000b2	50		 push	 eax
  000b3	6a 43		 push	 67			; 00000043H
  000b5	6a 05		 push	 5
  000b7	8b 4d fc	 mov	 ecx, DWORD PTR _en$[ebp]
  000ba	51		 push	 ecx
  000bb	e8 00 00 00 00	 call	 ?set_client_server_entity_weapon_damage@@YGXPAUENTITY@@HHH@Z ; set_client_server_entity_weapon_damage

; 106  : 	set_client_server_entity_weapon_damage (en, HAVOC_FLARE_DISPENSER, ENTITY_SUB_TYPE_WEAPON_FLARE, havoc_damage.flare_dispenser);

  000c0	a1 00 00 00 00	 mov	 eax, DWORD PTR ?havoc_damage@@3THAVOC_DAMAGE_FLAGS@@A ; havoc_damage
  000c5	c1 e8 1f	 shr	 eax, 31			; 0000001fH
  000c8	83 e0 01	 and	 eax, 1
  000cb	50		 push	 eax
  000cc	6a 44		 push	 68			; 00000044H
  000ce	6a 05		 push	 5
  000d0	8b 4d fc	 mov	 ecx, DWORD PTR _en$[ebp]
  000d3	51		 push	 ecx
  000d4	e8 00 00 00 00	 call	 ?set_client_server_entity_weapon_damage@@YGXPAUENTITY@@HHH@Z ; set_client_server_entity_weapon_damage

; 107  : 
; 108  : 	//
; 109  : 	// check if selected weapon is still available, if not, select next
; 110  : 	//
; 111  : 
; 112  : 	weapon_sub_type = get_local_entity_int_value (en, INT_TYPE_SELECTED_WEAPON);

  000d9	83 7d fc 00	 cmp	 DWORD PTR _en$[ebp], 0
  000dd	74 0a		 je	 SHORT $LN5@set_havoc_
  000df	8b 45 fc	 mov	 eax, DWORD PTR _en$[ebp]
  000e2	8b 08		 mov	 ecx, DWORD PTR [eax]
  000e4	89 4d b4	 mov	 DWORD PTR tv150[ebp], ecx
  000e7	eb 21		 jmp	 SHORT $LN6@set_havoc_
$LN5@set_havoc_:
  000e9	8b 15 00 00 00
	00		 mov	 edx, DWORD PTR ?__LINE__Var@?0??set_havoc_weapon_damage_status@@YGXXZ@4JA
  000ef	83 c2 19	 add	 edx, 25			; 00000019H
  000f2	52		 push	 edx
  000f3	68 00 00 00 00	 push	 OFFSET ??_C@_0EN@LEGIJMGH@c?3?2users?2nhv90?2projects?2eech?2ap@
  000f8	a1 00 00 00 00	 mov	 eax, DWORD PTR ?null_entity_pointer_message@@3PBDB ; null_entity_pointer_message
  000fd	50		 push	 eax
  000fe	e8 00 00 00 00	 call	 ?process_assert@@YGXPBD0H@Z ; process_assert
  00103	c7 45 b4 00 00
	00 00		 mov	 DWORD PTR tv150[ebp], 0
$LN6@set_havoc_:
  0010a	b9 01 00 00 00	 mov	 ecx, 1
  0010f	85 c9		 test	 ecx, ecx
  00111	74 09		 je	 SHORT $LN7@set_havoc_
  00113	c7 45 b0 b8 00
	00 00		 mov	 DWORD PTR tv158[ebp], 184 ; 000000b8H
  0011a	eb 21		 jmp	 SHORT $LN8@set_havoc_
$LN7@set_havoc_:
  0011c	8b 15 00 00 00
	00		 mov	 edx, DWORD PTR ?__LINE__Var@?0??set_havoc_weapon_damage_status@@YGXXZ@4JA
  00122	83 c2 19	 add	 edx, 25			; 00000019H
  00125	52		 push	 edx
  00126	68 00 00 00 00	 push	 OFFSET ??_C@_0EN@LEGIJMGH@c?3?2users?2nhv90?2projects?2eech?2ap@
  0012b	a1 00 00 00 00	 mov	 eax, DWORD PTR ?overload_invalid_int_type_message@@3PBDB ; overload_invalid_int_type_message
  00130	50		 push	 eax
  00131	e8 00 00 00 00	 call	 ?process_assert@@YGXPBD0H@Z ; process_assert
  00136	c7 45 b0 00 00
	00 00		 mov	 DWORD PTR tv158[ebp], 0
$LN8@set_havoc_:
  0013d	68 b8 00 00 00	 push	 184			; 000000b8H
  00142	8b 4d fc	 mov	 ecx, DWORD PTR _en$[ebp]
  00145	51		 push	 ecx
  00146	69 55 b4 5c 04
	00 00		 imul	 edx, DWORD PTR tv150[ebp], 1116
  0014d	8b 45 b0	 mov	 eax, DWORD PTR tv158[ebp]
  00150	8b 8c 82 00 00
	00 00		 mov	 ecx, DWORD PTR ?fn_get_local_entity_int_value@@3PAY0BBH@P6GHPAUENTITY@@W4INT_TYPES@@@ZA[edx+eax*4]
  00157	ff d1		 call	 ecx
  00159	89 45 f8	 mov	 DWORD PTR _weapon_sub_type$[ebp], eax

; 113  : 
; 114  : 	if (weapon_sub_type != ENTITY_SUB_TYPE_WEAPON_NO_WEAPON)

  0015c	83 7d f8 00	 cmp	 DWORD PTR _weapon_sub_type$[ebp], 0
  00160	74 26		 je	 SHORT $LN1@set_havoc_

; 115  : 	{
; 116  : 		if (!get_local_entity_weapon_available (en, weapon_sub_type))

  00162	8b 45 f8	 mov	 eax, DWORD PTR _weapon_sub_type$[ebp]
  00165	50		 push	 eax
  00166	8b 4d fc	 mov	 ecx, DWORD PTR _en$[ebp]
  00169	51		 push	 ecx
  0016a	e8 00 00 00 00	 call	 ?get_local_entity_weapon_available@@YGHPAUENTITY@@H@Z ; get_local_entity_weapon_available
  0016f	85 c0		 test	 eax, eax
  00171	75 15		 jne	 SHORT $LN1@set_havoc_

; 117  : 		{
; 118  : 			weapon_sub_type = get_next_available_weapon_sub_type (en);

  00173	8b 45 fc	 mov	 eax, DWORD PTR _en$[ebp]
  00176	50		 push	 eax
  00177	e8 00 00 00 00	 call	 ?get_next_available_weapon_sub_type@@YGHPAUENTITY@@@Z ; get_next_available_weapon_sub_type
  0017c	89 45 f8	 mov	 DWORD PTR _weapon_sub_type$[ebp], eax

; 119  : 
; 120  : 			set_gunship_weapon (weapon_sub_type);

  0017f	8b 45 f8	 mov	 eax, DWORD PTR _weapon_sub_type$[ebp]
  00182	50		 push	 eax
  00183	e8 00 00 00 00	 call	 ?set_gunship_weapon@@YGXH@Z ; set_gunship_weapon
$LN1@set_havoc_:

; 121  : 		}
; 122  : 	}
; 123  : }

  00188	5f		 pop	 edi
  00189	5e		 pop	 esi
  0018a	5b		 pop	 ebx
  0018b	8b e5		 mov	 esp, ebp
  0018d	5d		 pop	 ebp
  0018e	c3		 ret	 0
?set_havoc_weapon_damage_status@@YGXXZ ENDP		; set_havoc_weapon_damage_status
_TEXT	ENDS
END
