; Listing generated by Microsoft (R) Optimizing Compiler Version 19.16.27045.0 

	TITLE	C:\Users\nhv90\Projects\eech\aphavoc\source\gunships\cockpits\havoc\ha_instr.c
	.686P
	.XMM
	include listing.inc
	.model	flat

INCLUDELIB MSVCRTD
INCLUDELIB OLDNAMES

PUBLIC	??_C@_0CA@JPJNIOCL@Cannot?5draw?5instrument?5on?5panel@ ; `string'
;	COMDAT ??_C@_0CA@JPJNIOCL@Cannot?5draw?5instrument?5on?5panel@
CONST	SEGMENT
??_C@_0CA@JPJNIOCL@Cannot?5draw?5instrument?5on?5panel@ DB 'Cannot draw i'
	DB	'nstrument on panel', 00H			; `string'
CONST	ENDS
PUBLIC	_acosf
PUBLIC	_asinf
PUBLIC	_atan2f
PUBLIC	_cosf
PUBLIC	_fmodf
PUBLIC	_sinf
PUBLIC	_sqrtf
PUBLIC	?acos@@YGMM@Z					; acos
PUBLIC	?asin@@YGMM@Z					; asin
PUBLIC	?atan2@@YGMMM@Z					; atan2
PUBLIC	?cos@@YGMM@Z					; cos
PUBLIC	?fmod@@YGMMM@Z					; fmod
PUBLIC	?sin@@YGMM@Z					; sin
PUBLIC	?sqrt@@YGMM@Z					; sqrt
PUBLIC	?initialise_havoc_instrument_colours@@YGXXZ	; initialise_havoc_instrument_colours
PUBLIC	?set_havoc_instrument_colours@@YGXXZ		; set_havoc_instrument_colours
PUBLIC	?draw_havoc_barometric_altimeter@@YGXW4COCKPIT_PANELS@@@Z ; draw_havoc_barometric_altimeter
PUBLIC	?draw_havoc_airspeed_indicator@@YGXW4COCKPIT_PANELS@@@Z ; draw_havoc_airspeed_indicator
PUBLIC	?draw_havoc_main_rotor_rpm_indicator@@YGXW4COCKPIT_PANELS@@@Z ; draw_havoc_main_rotor_rpm_indicator
PUBLIC	?draw_havoc_g_meter@@YGXW4COCKPIT_PANELS@@@Z	; draw_havoc_g_meter
PUBLIC	?draw_havoc_engine_torque_indicator@@YGXW4COCKPIT_PANELS@@@Z ; draw_havoc_engine_torque_indicator
PUBLIC	?draw_havoc_engine_temperature_indicator@@YGXW4COCKPIT_PANELS@@@Z ; draw_havoc_engine_temperature_indicator
PUBLIC	?draw_havoc_engine_rpm_indicator@@YGXW4COCKPIT_PANELS@@@Z ; draw_havoc_engine_rpm_indicator
PUBLIC	?draw_havoc_engine_temperature_and_rpm_indicator_ticks@@YGXW4COCKPIT_PANELS@@@Z ; draw_havoc_engine_temperature_and_rpm_indicator_ticks
PUBLIC	?draw_havoc_vertical_speed_indicator@@YGXW4COCKPIT_PANELS@@@Z ; draw_havoc_vertical_speed_indicator
PUBLIC	?draw_havoc_clock@@YGXW4COCKPIT_PANELS@@@Z	; draw_havoc_clock
PUBLIC	?draw_havoc_radar_altimeter@@YGXW4COCKPIT_PANELS@@@Z ; draw_havoc_radar_altimeter
PUBLIC	?draw_havoc_fuel_gauge@@YGXW4COCKPIT_PANELS@@@Z	; draw_havoc_fuel_gauge
PUBLIC	?draw_havoc_fixed_cockpit_hsi_waypoint_distance_digits@@YGXW4COCKPIT_PANELS@@@Z ; draw_havoc_fixed_cockpit_hsi_waypoint_distance_digits
PUBLIC	?draw_havoc_fixed_cockpit_hsi_waypoint_identifier@@YGXW4COCKPIT_PANELS@@@Z ; draw_havoc_fixed_cockpit_hsi_waypoint_identifier
PUBLIC	?get_havoc_virtual_cockpit_adi_angles@@YGXQAY02MPAM11@Z ; get_havoc_virtual_cockpit_adi_angles
PUBLIC	?get_havoc_virtual_cockpit_hsi_needle_values@@YGXPAM00@Z ; get_havoc_virtual_cockpit_hsi_needle_values
PUBLIC	?initialise_havoc_instruments@@YGXXZ		; initialise_havoc_instruments
PUBLIC	?deinitialise_havoc_instruments@@YGXXZ		; deinitialise_havoc_instruments
PUBLIC	?draw_havoc_virtual_cockpit_instruments_on_texture@@YGXXZ ; draw_havoc_virtual_cockpit_instruments_on_texture
PUBLIC	??_C@_0EP@MNOBCBEH@c?3?2users?2nhv90?2projects?2eech?2ap@ ; `string'
PUBLIC	?__LINE__Var@?0??get_hsi_needle_values@@YGXPAM00@Z@4JA ; `get_hsi_needle_values'::`1'::__LINE__Var
PUBLIC	??_C@_0BB@PFAKKLCO@direction_finder@		; `string'
PUBLIC	??_C@_0M@GOBOJDMO@flight_path@			; `string'
PUBLIC	??_C@_05BPGNBDFG@drift@				; `string'
PUBLIC	?__LINE__Var@?0??draw_havoc_clock@@YGXW4COCKPIT_PANELS@@@Z@4JA ; `draw_havoc_clock'::`1'::__LINE__Var
PUBLIC	?__LINE__Var@?0??draw_havoc_fixed_cockpit_hsi_waypoint_distance_digits@@YGXW4COCKPIT_PANELS@@@Z@4JA ; `draw_havoc_fixed_cockpit_hsi_waypoint_distance_digits'::`1'::__LINE__Var
PUBLIC	?__LINE__Var@?0??draw_havoc_fixed_cockpit_hsi_waypoint_identifier@@YGXW4COCKPIT_PANELS@@@Z@4JA ; `draw_havoc_fixed_cockpit_hsi_waypoint_identifier'::`1'::__LINE__Var
PUBLIC	?__LINE__Var@?0??get_havoc_virtual_cockpit_hsi_needle_values@@YGXPAM00@Z@4JA ; `get_havoc_virtual_cockpit_hsi_needle_values'::`1'::__LINE__Var
PUBLIC	?__LINE__Var@?0??draw_havoc_virtual_cockpit_instruments_on_texture@@YGXXZ@4JA ; `draw_havoc_virtual_cockpit_instruments_on_texture'::`1'::__LINE__Var
PUBLIC	__real@0000000000000000
PUBLIC	__real@3c23d70a
PUBLIC	__real@3db851ec
PUBLIC	__real@3dcccccd
PUBLIC	__real@3f4496b7c28f5c29
PUBLIC	__real@3f50624dd2f1a9fc
PUBLIC	__real@3f79bc65b3333333
PUBLIC	__real@3f7d70a4
PUBLIC	__real@3f800000
PUBLIC	__real@3f8015bf90000000
PUBLIC	__real@3f857254c0000000
PUBLIC	__real@3f91df46a0000000
PUBLIC	__real@3fa41b2f74000000
PUBLIC	__real@3fa999999999999a
PUBLIC	__real@3faacee9f0000000
PUBLIC	__real@3fb6571848000000
PUBLIC	__real@3fb999999999999a
PUBLIC	__real@3fbc28f5c28f5c29
PUBLIC	__real@3fd353f7ced91687
PUBLIC	__real@3fd47ae147ae147b
PUBLIC	__real@3fe0000000000000
PUBLIC	__real@3fe0c15236000000
PUBLIC	__real@3fe38c353f000000
PUBLIC	__real@3fe7333333333333
PUBLIC	__real@3fecb91f38000000
PUBLIC	__real@3ff0000000000000
PUBLIC	__real@3ffb333333333333
PUBLIC	__real@4000000000000000
PUBLIC	__real@400921fb51000000
PUBLIC	__real@400999999999999a
PUBLIC	__real@4010000000000000
PUBLIC	__real@4012000000000000
PUBLIC	__real@4014000000000000
PUBLIC	__real@4018000000000000
PUBLIC	__real@401921fb51000000
PUBLIC	__real@4024000000000000
PUBLIC	__real@4028000000000000
PUBLIC	__real@4034000000000000
PUBLIC	__real@4044000000000000
PUBLIC	__real@4049000000000000
PUBLIC	__real@404e000000000000
PUBLIC	__real@4059000000000000
PUBLIC	__real@405b800000000000
PUBLIC	__real@405e000000000000
PUBLIC	__real@4066600000000000
PUBLIC	__real@40666666
PUBLIC	__real@4066e00000000000
PUBLIC	__real@4067600000000000
PUBLIC	__real@4067bff7ced91687
PUBLIC	__real@406dc00000000000
PUBLIC	__real@406e1ff7ced91687
PUBLIC	__real@4072c00000000000
PUBLIC	__real@4072c00007080003
PUBLIC	__real@4075e00000000000
PUBLIC	__real@4078000000000000
PUBLIC	__real@40784ffbe76c8b44
PUBLIC	__real@4079000000000000
PUBLIC	__real@407c200000000000
PUBLIC	__real@407f400000000000
PUBLIC	__real@40800000
PUBLIC	__real@4082c00000000000
PUBLIC	__real@4087700000000000
PUBLIC	__real@408f400000000000
PUBLIC	__real@4091300000000000
PUBLIC	__real@4099000000000000
PUBLIC	__real@409f400000000000
PUBLIC	__real@40a00000
PUBLIC	__real@40c00000
PUBLIC	__real@40c3880000000000
PUBLIC	__real@41000000
PUBLIC	__real@41100000
PUBLIC	__real@411fd70a
PUBLIC	__real@41200000
PUBLIC	__real@41300000
PUBLIC	__real@41400000
PUBLIC	__real@41500000
PUBLIC	__real@41600000
PUBLIC	__real@41700000
PUBLIC	__real@41800000
PUBLIC	__real@41880000
PUBLIC	__real@41900000
PUBLIC	__real@41a00000
PUBLIC	__real@41b00000
PUBLIC	__real@41c00000
PUBLIC	__real@41c80000
PUBLIC	__real@41d00000
PUBLIC	__real@41f00000
PUBLIC	__real@42080000
PUBLIC	__real@420c0000
PUBLIC	__real@42200000
PUBLIC	__real@42300000
PUBLIC	__real@42400000
PUBLIC	__real@42480000
PUBLIC	__real@424c0000
PUBLIC	__real@425c0000
PUBLIC	__real@42680000
PUBLIC	__real@42700000
PUBLIC	__real@42800000
PUBLIC	__real@42840000
PUBLIC	__real@42880000
PUBLIC	__real@42960000
PUBLIC	__real@42980000
PUBLIC	__real@429a0000
PUBLIC	__real@429c0000
PUBLIC	__real@42a00000
PUBLIC	__real@42ac0000
PUBLIC	__real@42b00000
PUBLIC	__real@42c80000
PUBLIC	__real@42cc0000
PUBLIC	__real@42d00000
PUBLIC	__real@42d80000
PUBLIC	__real@42dc0000
PUBLIC	__real@42e40000
PUBLIC	__real@42e80000
PUBLIC	__real@42ea0000
PUBLIC	__real@42ec0000
PUBLIC	__real@42ee0000
PUBLIC	__real@42f00000
PUBLIC	__real@42f40000
PUBLIC	__real@42f80000
PUBLIC	__real@42fc0000
PUBLIC	__real@43000000
PUBLIC	__real@43040000
PUBLIC	__real@43050000
PUBLIC	__real@43070000
PUBLIC	__real@43090000
PUBLIC	__real@430c0000
PUBLIC	__real@430d0000
PUBLIC	__real@430e0000
PUBLIC	__real@430f0000
PUBLIC	__real@43100000
PUBLIC	__real@43110000
PUBLIC	__real@43120000
PUBLIC	__real@43150000
PUBLIC	__real@43160000
PUBLIC	__real@43170000
PUBLIC	__real@43180000
PUBLIC	__real@431a0000
PUBLIC	__real@431d0000
PUBLIC	__real@431e0000
PUBLIC	__real@43210000
PUBLIC	__real@43220000
PUBLIC	__real@43270000
PUBLIC	__real@432a0000
PUBLIC	__real@432b0000
PUBLIC	__real@432c0000
PUBLIC	__real@43300000
PUBLIC	__real@43310000
PUBLIC	__real@43360000
PUBLIC	__real@433a0000
PUBLIC	__real@433b0000
PUBLIC	__real@433d0000
PUBLIC	__real@43410000
PUBLIC	__real@43420000
PUBLIC	__real@43430000
PUBLIC	__real@43450000
PUBLIC	__real@43480000
PUBLIC	__real@434e0000
PUBLIC	__real@43510000
PUBLIC	__real@43530000
PUBLIC	__real@435a0000
PUBLIC	__real@435b0000
PUBLIC	__real@435c0000
PUBLIC	__real@435d0000
PUBLIC	__real@435e0000
PUBLIC	__real@43600000
PUBLIC	__real@43630000
PUBLIC	__real@43640000
PUBLIC	__real@43650000
PUBLIC	__real@43660000
PUBLIC	__real@43680000
PUBLIC	__real@436d0000
PUBLIC	__real@43700000
PUBLIC	__real@43720000
PUBLIC	__real@43740000
PUBLIC	__real@43760000
PUBLIC	__real@43790000
PUBLIC	__real@437a0000
PUBLIC	__real@437b0000
PUBLIC	__real@437e0000
PUBLIC	__real@43800000
PUBLIC	__real@43808000
PUBLIC	__real@43828000
PUBLIC	__real@43850000
PUBLIC	__real@43858000
PUBLIC	__real@43860000
PUBLIC	__real@43878000
PUBLIC	__real@43888000
PUBLIC	__real@43890000
PUBLIC	__real@438b8000
PUBLIC	__real@438c8000
PUBLIC	__real@438d0000
PUBLIC	__real@43900000
PUBLIC	__real@43910000
PUBLIC	__real@43920000
PUBLIC	__real@43938000
PUBLIC	__real@43960000
PUBLIC	__real@43990000
PUBLIC	__real@43998000
PUBLIC	__real@439a8000
PUBLIC	__real@439d8000
PUBLIC	__real@439e0000
PUBLIC	__real@439f0000
PUBLIC	__real@43a00000
PUBLIC	__real@43a10000
PUBLIC	__real@43a48000
PUBLIC	__real@43aa0000
PUBLIC	__real@43ac8000
PUBLIC	__real@43af8000
PUBLIC	__real@43b48000
PUBLIC	__real@43b70000
PUBLIC	__real@43b80000
PUBLIC	__real@43bb0000
PUBLIC	__real@43bc8000
PUBLIC	__real@43c38000
PUBLIC	__real@43c40000
PUBLIC	__real@43c50000
PUBLIC	__real@43c80000
PUBLIC	__real@43ca0000
PUBLIC	__real@43cb8000
PUBLIC	__real@43ce0000
PUBLIC	__real@43cf8000
PUBLIC	__real@43d00000
PUBLIC	__real@43d10000
PUBLIC	__real@43d18000
PUBLIC	__real@43d70000
PUBLIC	__real@43d80000
PUBLIC	__real@43da0000
PUBLIC	__real@43dd8000
PUBLIC	__real@43e10000
PUBLIC	__real@43e90000
PUBLIC	__real@43ea8000
PUBLIC	__real@43ed8000
PUBLIC	__real@43fa0000
PUBLIC	__real@44000000
PUBLIC	__real@4406c000
PUBLIC	__real@44198000
PUBLIC	__real@44610000
PUBLIC	__real@447a0000
PUBLIC	__real@44fa0000
PUBLIC	__real@460ca000
PUBLIC	__real@461c4000
PUBLIC	__real@bf1c61aa
PUBLIC	__real@bfe0c15236000000
PUBLIC	__real@bff0000000000000
PUBLIC	__real@c0000000
PUBLIC	__real@c000000000000000
PUBLIC	__real@c0200000
PUBLIC	__real@c049000000000000
PUBLIC	__real@c059000000000000
PUBLIC	__real@c072c00000000000
PUBLIC	__real@c1200000
PUBLIC	__real@c1a00000
PUBLIC	__real@c2480000
PUBLIC	__real@c2c80000
PUBLIC	__real@c2f00000
PUBLIC	__real@c3960000
PUBLIC	__real@c3af0000
PUBLIC	__real@c3fa0000
PUBLIC	__xmm@80000000800000008000000080000000
EXTRN	_memcpy:PROC
EXTRN	_acos:PROC
EXTRN	_asin:PROC
EXTRN	_atan2:PROC
EXTRN	_cos:PROC
EXTRN	_fmod:PROC
EXTRN	_sin:PROC
EXTRN	_sqrt:PROC
EXTRN	?process_assert@@YGXPBD0H@Z:PROC		; process_assert
EXTRN	?debug_fatal@@YAXPBDZZ:PROC			; debug_fatal
EXTRN	?get_2d_unit_vector_dot_product@@YGMPBUVEC2D@@0@Z:PROC ; get_2d_unit_vector_dot_product
EXTRN	?get_3d_transformation_matrix@@YGXQAY02MMMM@Z:PROC ; get_3d_transformation_matrix
EXTRN	?multiply_matrix3x3_matrix3x3@@YGXQAY02MQAY02$$CBM1@Z:PROC ; multiply_matrix3x3_matrix3x3
EXTRN	?get_2d_range@@YGMPBUVEC3D@@0@Z:PROC		; get_2d_range
EXTRN	?set_viewport@@YGXMMMM@Z:PROC			; set_viewport
EXTRN	?create_system_texture_screen@@YGPAUSCREEN@@HHHH@Z:PROC ; create_system_texture_screen
EXTRN	?create_screen_for_system_texture@@YGPAUSCREEN@@H@Z:PROC ; create_screen_for_system_texture
EXTRN	?set_system_texture_screen@@YGXPAUSCREEN@@H@Z:PROC ; set_system_texture_screen
EXTRN	?destroy_screen@@YGHPAUSCREEN@@@Z:PROC		; destroy_screen
EXTRN	?lock_screen@@YGHPAUSCREEN@@@Z:PROC		; lock_screen
EXTRN	?unlock_screen@@YGHPAUSCREEN@@@Z:PROC		; unlock_screen
EXTRN	?set_active_screen@@YGHPAUSCREEN@@@Z:PROC	; set_active_screen
EXTRN	?get_screen_width@@YGHPAUSCREEN@@@Z:PROC	; get_screen_width
EXTRN	?get_screen_height@@YGHPAUSCREEN@@@Z:PROC	; get_screen_height
EXTRN	?blit_screens@@YGXPAUSCREEN@@0HHHHHHHH@Z:PROC	; blit_screens
EXTRN	?draw_line@@YGXMMMMUREAL_COLOUR@@@Z:PROC	; draw_line
EXTRN	?draw_arrow@@YGXMMMMMMUREAL_COLOUR@@@Z:PROC	; draw_arrow
EXTRN	?set_pixel@@YGXHHUREAL_COLOUR@@@Z:PROC		; set_pixel
EXTRN	?blit_rgb_alpha_masked_sprite@@YGXPBE0PBURGB_ALPHA_MASKED_SPRITE_DATA@@@Z:PROC ; blit_rgb_alpha_masked_sprite
EXTRN	?blit_rgb_alpha_masked_sprite_zero_mask_value_scaled@@YGXPBE0HHHHHHHHE@Z:PROC ; blit_rgb_alpha_masked_sprite_zero_mask_value_scaled
EXTRN	?set_mono_font_type@@YGXW4MONO_FONT_TYPES@@@Z:PROC ; set_mono_font_type
EXTRN	?set_mono_font_position@@YGXMM@Z:PROC		; set_mono_font_position
EXTRN	?set_mono_font_colour@@YGXUREAL_COLOUR@@@Z:PROC	; set_mono_font_colour
EXTRN	?print_mono_font_char@@YGXD@Z:PROC		; print_mono_font_char
EXTRN	?get_waypoint_display_position@@YGXPAUENTITY@@0PAUVEC3D@@@Z:PROC ; get_waypoint_display_position
EXTRN	?get_session_wind_velocity_at_point@@YGMPAUVEC3D@@0@Z:PROC ; get_session_wind_velocity_at_point
EXTRN	?get_local_entity_current_waypoint@@YGPAUENTITY@@PAU1@@Z:PROC ; get_local_entity_current_waypoint
EXTRN	?get_local_entity_prev_waypoint@@YGPAUENTITY@@PAU1@@Z:PROC ; get_local_entity_prev_waypoint
EXTRN	?get_analogue_clock_values@@YGXMPAM00@Z:PROC	; get_analogue_clock_values
EXTRN	?sys_col_red@@3UREAL_COLOUR@@A:DWORD		; sys_col_red
EXTRN	?video_screen@@3PAUSCREEN@@A:DWORD		; video_screen
EXTRN	?graphics_files@@3PAUFILE_DATA@@A:BYTE		; graphics_files
EXTRN	?null_entity_pointer_message@@3PBDB:DWORD	; null_entity_pointer_message
EXTRN	?global_options@@3UGLOBAL_OPTIONS_DATA@@A:BYTE	; global_options
EXTRN	?overload_invalid_char_type_message@@3PBDB:DWORD ; overload_invalid_char_type_message
EXTRN	?fn_get_local_entity_char_value@@3PAY01P6GDPAUENTITY@@W4CHAR_TYPES@@@ZA:BYTE ; fn_get_local_entity_char_value
EXTRN	?overload_invalid_float_type_message@@3PBDB:DWORD ; overload_invalid_float_type_message
EXTRN	?fn_get_local_entity_float_value@@3PAY0KP@P6GMPAUENTITY@@W4FLOAT_TYPES@@@ZA:BYTE ; fn_get_local_entity_float_value
EXTRN	?overload_invalid_int_type_message@@3PBDB:DWORD	; overload_invalid_int_type_message
EXTRN	?fn_get_local_entity_int_value@@3PAY0BBH@P6GHPAUENTITY@@W4INT_TYPES@@@ZA:BYTE ; fn_get_local_entity_int_value
EXTRN	?overload_invalid_vec3d_type_message@@3PBDB:DWORD ; overload_invalid_vec3d_type_message
EXTRN	?fn_get_local_entity_vec3d_ptr@@3PAY0BI@P6GPAUVEC3D@@PAUENTITY@@W4VEC3D_TYPES@@@ZA:BYTE ; fn_get_local_entity_vec3d_ptr
EXTRN	?gunship_entity@@3PAUENTITY@@A:DWORD		; gunship_entity
EXTRN	?session_entity@@3PAUENTITY@@A:DWORD		; session_entity
EXTRN	?ix_640_480@@3HA:DWORD				; ix_640_480
EXTRN	?iy_640_480@@3HA:DWORD				; iy_640_480
EXTRN	?fx_640_480@@3MA:DWORD				; fx_640_480
EXTRN	?fy_640_480@@3MA:DWORD				; fy_640_480
EXTRN	?havoc_damage@@3THAVOC_DAMAGE_FLAGS@@A:DWORD	; havoc_damage
EXTRN	?test_cockpit_instruments@@3HA:DWORD		; test_cockpit_instruments
EXTRN	?base_cockpit_graphics_file@@3W4GRAPHICS_FILE_SPECIFIERS@@A:DWORD ; base_cockpit_graphics_file
EXTRN	?havoc_lamps@@3UHAVOC_LAMP_FLAGS@@A:BYTE	; havoc_lamps
EXTRN	?current_flight_dynamics@@3PAUDYNAMICS_TYPE@@A:DWORD ; current_flight_dynamics
EXTRN	__fltused:DWORD
_BSS	SEGMENT
?white_needle_colour@@3UREAL_COLOUR@@A DD 01H DUP (?)	; white_needle_colour
?grey_needle_colour@@3UREAL_COLOUR@@A DD 01H DUP (?)	; grey_needle_colour
?yellow_needle_colour@@3UREAL_COLOUR@@A DD 01H DUP (?)	; yellow_needle_colour
?orange_needle_colour@@3UREAL_COLOUR@@A DD 01H DUP (?)	; orange_needle_colour
?red_needle_colour@@3UREAL_COLOUR@@A DD 01H DUP (?)	; red_needle_colour
?white_digit_colour@@3UREAL_COLOUR@@A DD 01H DUP (?)	; white_digit_colour
?yellow_digit_colour@@3UREAL_COLOUR@@A DD 01H DUP (?)	; yellow_digit_colour
?white_needle_colour_level1@@3UREAL_COLOUR@@A DD 01H DUP (?) ; white_needle_colour_level1
?grey_needle_colour_level1@@3UREAL_COLOUR@@A DD 01H DUP (?) ; grey_needle_colour_level1
?yellow_needle_colour_level1@@3UREAL_COLOUR@@A DD 01H DUP (?) ; yellow_needle_colour_level1
?orange_needle_colour_level1@@3UREAL_COLOUR@@A DD 01H DUP (?) ; orange_needle_colour_level1
?red_needle_colour_level1@@3UREAL_COLOUR@@A DD 01H DUP (?) ; red_needle_colour_level1
?white_digit_colour_level1@@3UREAL_COLOUR@@A DD 01H DUP (?) ; white_digit_colour_level1
?yellow_digit_colour_level1@@3UREAL_COLOUR@@A DD 01H DUP (?) ; yellow_digit_colour_level1
?white_needle_colour_level2@@3UREAL_COLOUR@@A DD 01H DUP (?) ; white_needle_colour_level2
?grey_needle_colour_level2@@3UREAL_COLOUR@@A DD 01H DUP (?) ; grey_needle_colour_level2
?yellow_needle_colour_level2@@3UREAL_COLOUR@@A DD 01H DUP (?) ; yellow_needle_colour_level2
?orange_needle_colour_level2@@3UREAL_COLOUR@@A DD 01H DUP (?) ; orange_needle_colour_level2
?red_needle_colour_level2@@3UREAL_COLOUR@@A DD 01H DUP (?) ; red_needle_colour_level2
?white_digit_colour_level2@@3UREAL_COLOUR@@A DD 01H DUP (?) ; white_digit_colour_level2
?yellow_digit_colour_level2@@3UREAL_COLOUR@@A DD 01H DUP (?) ; yellow_digit_colour_level2
?white_needle_colour_level3@@3UREAL_COLOUR@@A DD 01H DUP (?) ; white_needle_colour_level3
?grey_needle_colour_level3@@3UREAL_COLOUR@@A DD 01H DUP (?) ; grey_needle_colour_level3
?yellow_needle_colour_level3@@3UREAL_COLOUR@@A DD 01H DUP (?) ; yellow_needle_colour_level3
?orange_needle_colour_level3@@3UREAL_COLOUR@@A DD 01H DUP (?) ; orange_needle_colour_level3
?red_needle_colour_level3@@3UREAL_COLOUR@@A DD 01H DUP (?) ; red_needle_colour_level3
?white_digit_colour_level3@@3UREAL_COLOUR@@A DD 01H DUP (?) ; white_digit_colour_level3
?yellow_digit_colour_level3@@3UREAL_COLOUR@@A DD 01H DUP (?) ; yellow_digit_colour_level3
?old_texture_screen@@3PAY02PAUSCREEN@@A DD 0fH DUP (?)	; old_texture_screen
?texture_screen@@3PAY02PAUSCREEN@@A DD 0fH DUP (?)	; texture_screen
?texture_width@@3PAY02MA DD 0fH DUP (?)			; texture_width
?texture_height@@3PAY02MA DD 0fH DUP (?)		; texture_height
?direction_finder_value@?L@??get_hsi_needle_values@@YGXPAM00@Z@4MA DD 01H DUP (?) ; `get_hsi_needle_values'::`11'::direction_finder_value
?value@?4??draw_havoc_barometric_altimeter@@YGXW4COCKPIT_PANELS@@@Z@4MA DD 01H DUP (?) ; `draw_havoc_barometric_altimeter'::`5'::value
?hour_value@?4??draw_havoc_clock@@YGXW4COCKPIT_PANELS@@@Z@4MA DD 01H DUP (?) ; `draw_havoc_clock'::`5'::hour_value
?second_value@?4??draw_havoc_clock@@YGXW4COCKPIT_PANELS@@@Z@4MA DD 01H DUP (?) ; `draw_havoc_clock'::`5'::second_value
_BSS	ENDS
;	COMDAT __xmm@80000000800000008000000080000000
CONST	SEGMENT
__xmm@80000000800000008000000080000000 DB 00H, 00H, 00H, 080H, 00H, 00H, 00H
	DB	080H, 00H, 00H, 00H, 080H, 00H, 00H, 00H, 080H
CONST	ENDS
;	COMDAT __real@c3fa0000
CONST	SEGMENT
__real@c3fa0000 DD 0c3fa0000r			; -500
CONST	ENDS
;	COMDAT __real@c3af0000
CONST	SEGMENT
__real@c3af0000 DD 0c3af0000r			; -350
CONST	ENDS
;	COMDAT __real@c3960000
CONST	SEGMENT
__real@c3960000 DD 0c3960000r			; -300
CONST	ENDS
;	COMDAT __real@c2f00000
CONST	SEGMENT
__real@c2f00000 DD 0c2f00000r			; -120
CONST	ENDS
;	COMDAT __real@c2c80000
CONST	SEGMENT
__real@c2c80000 DD 0c2c80000r			; -100
CONST	ENDS
;	COMDAT __real@c2480000
CONST	SEGMENT
__real@c2480000 DD 0c2480000r			; -50
CONST	ENDS
;	COMDAT __real@c1a00000
CONST	SEGMENT
__real@c1a00000 DD 0c1a00000r			; -20
CONST	ENDS
;	COMDAT __real@c1200000
CONST	SEGMENT
__real@c1200000 DD 0c1200000r			; -10
CONST	ENDS
;	COMDAT __real@c072c00000000000
CONST	SEGMENT
__real@c072c00000000000 DQ 0c072c00000000000r	; -300
CONST	ENDS
;	COMDAT __real@c059000000000000
CONST	SEGMENT
__real@c059000000000000 DQ 0c059000000000000r	; -100
CONST	ENDS
;	COMDAT __real@c049000000000000
CONST	SEGMENT
__real@c049000000000000 DQ 0c049000000000000r	; -50
CONST	ENDS
;	COMDAT __real@c0200000
CONST	SEGMENT
__real@c0200000 DD 0c0200000r			; -2.5
CONST	ENDS
;	COMDAT __real@c000000000000000
CONST	SEGMENT
__real@c000000000000000 DQ 0c000000000000000r	; -2
CONST	ENDS
;	COMDAT __real@c0000000
CONST	SEGMENT
__real@c0000000 DD 0c0000000r			; -2
CONST	ENDS
;	COMDAT __real@bff0000000000000
CONST	SEGMENT
__real@bff0000000000000 DQ 0bff0000000000000r	; -1
CONST	ENDS
;	COMDAT __real@bfe0c15236000000
CONST	SEGMENT
__real@bfe0c15236000000 DQ 0bfe0c15236000000r	; -0.523599
CONST	ENDS
;	COMDAT __real@bf1c61aa
CONST	SEGMENT
__real@bf1c61aa DD 0bf1c61aar			; -0.610865
CONST	ENDS
;	COMDAT __real@461c4000
CONST	SEGMENT
__real@461c4000 DD 0461c4000r			; 10000
CONST	ENDS
;	COMDAT __real@460ca000
CONST	SEGMENT
__real@460ca000 DD 0460ca000r			; 9000
CONST	ENDS
;	COMDAT __real@44fa0000
CONST	SEGMENT
__real@44fa0000 DD 044fa0000r			; 2000
CONST	ENDS
;	COMDAT __real@447a0000
CONST	SEGMENT
__real@447a0000 DD 0447a0000r			; 1000
CONST	ENDS
;	COMDAT __real@44610000
CONST	SEGMENT
__real@44610000 DD 044610000r			; 900
CONST	ENDS
;	COMDAT __real@44198000
CONST	SEGMENT
__real@44198000 DD 044198000r			; 614
CONST	ENDS
;	COMDAT __real@4406c000
CONST	SEGMENT
__real@4406c000 DD 04406c000r			; 539
CONST	ENDS
;	COMDAT __real@44000000
CONST	SEGMENT
__real@44000000 DD 044000000r			; 512
CONST	ENDS
;	COMDAT __real@43fa0000
CONST	SEGMENT
__real@43fa0000 DD 043fa0000r			; 500
CONST	ENDS
;	COMDAT __real@43ed8000
CONST	SEGMENT
__real@43ed8000 DD 043ed8000r			; 475
CONST	ENDS
;	COMDAT __real@43ea8000
CONST	SEGMENT
__real@43ea8000 DD 043ea8000r			; 469
CONST	ENDS
;	COMDAT __real@43e90000
CONST	SEGMENT
__real@43e90000 DD 043e90000r			; 466
CONST	ENDS
;	COMDAT __real@43e10000
CONST	SEGMENT
__real@43e10000 DD 043e10000r			; 450
CONST	ENDS
;	COMDAT __real@43dd8000
CONST	SEGMENT
__real@43dd8000 DD 043dd8000r			; 443
CONST	ENDS
;	COMDAT __real@43da0000
CONST	SEGMENT
__real@43da0000 DD 043da0000r			; 436
CONST	ENDS
;	COMDAT __real@43d80000
CONST	SEGMENT
__real@43d80000 DD 043d80000r			; 432
CONST	ENDS
;	COMDAT __real@43d70000
CONST	SEGMENT
__real@43d70000 DD 043d70000r			; 430
CONST	ENDS
;	COMDAT __real@43d18000
CONST	SEGMENT
__real@43d18000 DD 043d18000r			; 419
CONST	ENDS
;	COMDAT __real@43d10000
CONST	SEGMENT
__real@43d10000 DD 043d10000r			; 418
CONST	ENDS
;	COMDAT __real@43d00000
CONST	SEGMENT
__real@43d00000 DD 043d00000r			; 416
CONST	ENDS
;	COMDAT __real@43cf8000
CONST	SEGMENT
__real@43cf8000 DD 043cf8000r			; 415
CONST	ENDS
;	COMDAT __real@43ce0000
CONST	SEGMENT
__real@43ce0000 DD 043ce0000r			; 412
CONST	ENDS
;	COMDAT __real@43cb8000
CONST	SEGMENT
__real@43cb8000 DD 043cb8000r			; 407
CONST	ENDS
;	COMDAT __real@43ca0000
CONST	SEGMENT
__real@43ca0000 DD 043ca0000r			; 404
CONST	ENDS
;	COMDAT __real@43c80000
CONST	SEGMENT
__real@43c80000 DD 043c80000r			; 400
CONST	ENDS
;	COMDAT __real@43c50000
CONST	SEGMENT
__real@43c50000 DD 043c50000r			; 394
CONST	ENDS
;	COMDAT __real@43c40000
CONST	SEGMENT
__real@43c40000 DD 043c40000r			; 392
CONST	ENDS
;	COMDAT __real@43c38000
CONST	SEGMENT
__real@43c38000 DD 043c38000r			; 391
CONST	ENDS
;	COMDAT __real@43bc8000
CONST	SEGMENT
__real@43bc8000 DD 043bc8000r			; 377
CONST	ENDS
;	COMDAT __real@43bb0000
CONST	SEGMENT
__real@43bb0000 DD 043bb0000r			; 374
CONST	ENDS
;	COMDAT __real@43b80000
CONST	SEGMENT
__real@43b80000 DD 043b80000r			; 368
CONST	ENDS
;	COMDAT __real@43b70000
CONST	SEGMENT
__real@43b70000 DD 043b70000r			; 366
CONST	ENDS
;	COMDAT __real@43b48000
CONST	SEGMENT
__real@43b48000 DD 043b48000r			; 361
CONST	ENDS
;	COMDAT __real@43af8000
CONST	SEGMENT
__real@43af8000 DD 043af8000r			; 351
CONST	ENDS
;	COMDAT __real@43ac8000
CONST	SEGMENT
__real@43ac8000 DD 043ac8000r			; 345
CONST	ENDS
;	COMDAT __real@43aa0000
CONST	SEGMENT
__real@43aa0000 DD 043aa0000r			; 340
CONST	ENDS
;	COMDAT __real@43a48000
CONST	SEGMENT
__real@43a48000 DD 043a48000r			; 329
CONST	ENDS
;	COMDAT __real@43a10000
CONST	SEGMENT
__real@43a10000 DD 043a10000r			; 322
CONST	ENDS
;	COMDAT __real@43a00000
CONST	SEGMENT
__real@43a00000 DD 043a00000r			; 320
CONST	ENDS
;	COMDAT __real@439f0000
CONST	SEGMENT
__real@439f0000 DD 0439f0000r			; 318
CONST	ENDS
;	COMDAT __real@439e0000
CONST	SEGMENT
__real@439e0000 DD 0439e0000r			; 316
CONST	ENDS
;	COMDAT __real@439d8000
CONST	SEGMENT
__real@439d8000 DD 0439d8000r			; 315
CONST	ENDS
;	COMDAT __real@439a8000
CONST	SEGMENT
__real@439a8000 DD 0439a8000r			; 309
CONST	ENDS
;	COMDAT __real@43998000
CONST	SEGMENT
__real@43998000 DD 043998000r			; 307
CONST	ENDS
;	COMDAT __real@43990000
CONST	SEGMENT
__real@43990000 DD 043990000r			; 306
CONST	ENDS
;	COMDAT __real@43960000
CONST	SEGMENT
__real@43960000 DD 043960000r			; 300
CONST	ENDS
;	COMDAT __real@43938000
CONST	SEGMENT
__real@43938000 DD 043938000r			; 295
CONST	ENDS
;	COMDAT __real@43920000
CONST	SEGMENT
__real@43920000 DD 043920000r			; 292
CONST	ENDS
;	COMDAT __real@43910000
CONST	SEGMENT
__real@43910000 DD 043910000r			; 290
CONST	ENDS
;	COMDAT __real@43900000
CONST	SEGMENT
__real@43900000 DD 043900000r			; 288
CONST	ENDS
;	COMDAT __real@438d0000
CONST	SEGMENT
__real@438d0000 DD 0438d0000r			; 282
CONST	ENDS
;	COMDAT __real@438c8000
CONST	SEGMENT
__real@438c8000 DD 0438c8000r			; 281
CONST	ENDS
;	COMDAT __real@438b8000
CONST	SEGMENT
__real@438b8000 DD 0438b8000r			; 279
CONST	ENDS
;	COMDAT __real@43890000
CONST	SEGMENT
__real@43890000 DD 043890000r			; 274
CONST	ENDS
;	COMDAT __real@43888000
CONST	SEGMENT
__real@43888000 DD 043888000r			; 273
CONST	ENDS
;	COMDAT __real@43878000
CONST	SEGMENT
__real@43878000 DD 043878000r			; 271
CONST	ENDS
;	COMDAT __real@43860000
CONST	SEGMENT
__real@43860000 DD 043860000r			; 268
CONST	ENDS
;	COMDAT __real@43858000
CONST	SEGMENT
__real@43858000 DD 043858000r			; 267
CONST	ENDS
;	COMDAT __real@43850000
CONST	SEGMENT
__real@43850000 DD 043850000r			; 266
CONST	ENDS
;	COMDAT __real@43828000
CONST	SEGMENT
__real@43828000 DD 043828000r			; 261
CONST	ENDS
;	COMDAT __real@43808000
CONST	SEGMENT
__real@43808000 DD 043808000r			; 257
CONST	ENDS
;	COMDAT __real@43800000
CONST	SEGMENT
__real@43800000 DD 043800000r			; 256
CONST	ENDS
;	COMDAT __real@437e0000
CONST	SEGMENT
__real@437e0000 DD 0437e0000r			; 254
CONST	ENDS
;	COMDAT __real@437b0000
CONST	SEGMENT
__real@437b0000 DD 0437b0000r			; 251
CONST	ENDS
;	COMDAT __real@437a0000
CONST	SEGMENT
__real@437a0000 DD 0437a0000r			; 250
CONST	ENDS
;	COMDAT __real@43790000
CONST	SEGMENT
__real@43790000 DD 043790000r			; 249
CONST	ENDS
;	COMDAT __real@43760000
CONST	SEGMENT
__real@43760000 DD 043760000r			; 246
CONST	ENDS
;	COMDAT __real@43740000
CONST	SEGMENT
__real@43740000 DD 043740000r			; 244
CONST	ENDS
;	COMDAT __real@43720000
CONST	SEGMENT
__real@43720000 DD 043720000r			; 242
CONST	ENDS
;	COMDAT __real@43700000
CONST	SEGMENT
__real@43700000 DD 043700000r			; 240
CONST	ENDS
;	COMDAT __real@436d0000
CONST	SEGMENT
__real@436d0000 DD 0436d0000r			; 237
CONST	ENDS
;	COMDAT __real@43680000
CONST	SEGMENT
__real@43680000 DD 043680000r			; 232
CONST	ENDS
;	COMDAT __real@43660000
CONST	SEGMENT
__real@43660000 DD 043660000r			; 230
CONST	ENDS
;	COMDAT __real@43650000
CONST	SEGMENT
__real@43650000 DD 043650000r			; 229
CONST	ENDS
;	COMDAT __real@43640000
CONST	SEGMENT
__real@43640000 DD 043640000r			; 228
CONST	ENDS
;	COMDAT __real@43630000
CONST	SEGMENT
__real@43630000 DD 043630000r			; 227
CONST	ENDS
;	COMDAT __real@43600000
CONST	SEGMENT
__real@43600000 DD 043600000r			; 224
CONST	ENDS
;	COMDAT __real@435e0000
CONST	SEGMENT
__real@435e0000 DD 0435e0000r			; 222
CONST	ENDS
;	COMDAT __real@435d0000
CONST	SEGMENT
__real@435d0000 DD 0435d0000r			; 221
CONST	ENDS
;	COMDAT __real@435c0000
CONST	SEGMENT
__real@435c0000 DD 0435c0000r			; 220
CONST	ENDS
;	COMDAT __real@435b0000
CONST	SEGMENT
__real@435b0000 DD 0435b0000r			; 219
CONST	ENDS
;	COMDAT __real@435a0000
CONST	SEGMENT
__real@435a0000 DD 0435a0000r			; 218
CONST	ENDS
;	COMDAT __real@43530000
CONST	SEGMENT
__real@43530000 DD 043530000r			; 211
CONST	ENDS
;	COMDAT __real@43510000
CONST	SEGMENT
__real@43510000 DD 043510000r			; 209
CONST	ENDS
;	COMDAT __real@434e0000
CONST	SEGMENT
__real@434e0000 DD 0434e0000r			; 206
CONST	ENDS
;	COMDAT __real@43480000
CONST	SEGMENT
__real@43480000 DD 043480000r			; 200
CONST	ENDS
;	COMDAT __real@43450000
CONST	SEGMENT
__real@43450000 DD 043450000r			; 197
CONST	ENDS
;	COMDAT __real@43430000
CONST	SEGMENT
__real@43430000 DD 043430000r			; 195
CONST	ENDS
;	COMDAT __real@43420000
CONST	SEGMENT
__real@43420000 DD 043420000r			; 194
CONST	ENDS
;	COMDAT __real@43410000
CONST	SEGMENT
__real@43410000 DD 043410000r			; 193
CONST	ENDS
;	COMDAT __real@433d0000
CONST	SEGMENT
__real@433d0000 DD 0433d0000r			; 189
CONST	ENDS
;	COMDAT __real@433b0000
CONST	SEGMENT
__real@433b0000 DD 0433b0000r			; 187
CONST	ENDS
;	COMDAT __real@433a0000
CONST	SEGMENT
__real@433a0000 DD 0433a0000r			; 186
CONST	ENDS
;	COMDAT __real@43360000
CONST	SEGMENT
__real@43360000 DD 043360000r			; 182
CONST	ENDS
;	COMDAT __real@43310000
CONST	SEGMENT
__real@43310000 DD 043310000r			; 177
CONST	ENDS
;	COMDAT __real@43300000
CONST	SEGMENT
__real@43300000 DD 043300000r			; 176
CONST	ENDS
;	COMDAT __real@432c0000
CONST	SEGMENT
__real@432c0000 DD 0432c0000r			; 172
CONST	ENDS
;	COMDAT __real@432b0000
CONST	SEGMENT
__real@432b0000 DD 0432b0000r			; 171
CONST	ENDS
;	COMDAT __real@432a0000
CONST	SEGMENT
__real@432a0000 DD 0432a0000r			; 170
CONST	ENDS
;	COMDAT __real@43270000
CONST	SEGMENT
__real@43270000 DD 043270000r			; 167
CONST	ENDS
;	COMDAT __real@43220000
CONST	SEGMENT
__real@43220000 DD 043220000r			; 162
CONST	ENDS
;	COMDAT __real@43210000
CONST	SEGMENT
__real@43210000 DD 043210000r			; 161
CONST	ENDS
;	COMDAT __real@431e0000
CONST	SEGMENT
__real@431e0000 DD 0431e0000r			; 158
CONST	ENDS
;	COMDAT __real@431d0000
CONST	SEGMENT
__real@431d0000 DD 0431d0000r			; 157
CONST	ENDS
;	COMDAT __real@431a0000
CONST	SEGMENT
__real@431a0000 DD 0431a0000r			; 154
CONST	ENDS
;	COMDAT __real@43180000
CONST	SEGMENT
__real@43180000 DD 043180000r			; 152
CONST	ENDS
;	COMDAT __real@43170000
CONST	SEGMENT
__real@43170000 DD 043170000r			; 151
CONST	ENDS
;	COMDAT __real@43160000
CONST	SEGMENT
__real@43160000 DD 043160000r			; 150
CONST	ENDS
;	COMDAT __real@43150000
CONST	SEGMENT
__real@43150000 DD 043150000r			; 149
CONST	ENDS
;	COMDAT __real@43120000
CONST	SEGMENT
__real@43120000 DD 043120000r			; 146
CONST	ENDS
;	COMDAT __real@43110000
CONST	SEGMENT
__real@43110000 DD 043110000r			; 145
CONST	ENDS
;	COMDAT __real@43100000
CONST	SEGMENT
__real@43100000 DD 043100000r			; 144
CONST	ENDS
;	COMDAT __real@430f0000
CONST	SEGMENT
__real@430f0000 DD 0430f0000r			; 143
CONST	ENDS
;	COMDAT __real@430e0000
CONST	SEGMENT
__real@430e0000 DD 0430e0000r			; 142
CONST	ENDS
;	COMDAT __real@430d0000
CONST	SEGMENT
__real@430d0000 DD 0430d0000r			; 141
CONST	ENDS
;	COMDAT __real@430c0000
CONST	SEGMENT
__real@430c0000 DD 0430c0000r			; 140
CONST	ENDS
;	COMDAT __real@43090000
CONST	SEGMENT
__real@43090000 DD 043090000r			; 137
CONST	ENDS
;	COMDAT __real@43070000
CONST	SEGMENT
__real@43070000 DD 043070000r			; 135
CONST	ENDS
;	COMDAT __real@43050000
CONST	SEGMENT
__real@43050000 DD 043050000r			; 133
CONST	ENDS
;	COMDAT __real@43040000
CONST	SEGMENT
__real@43040000 DD 043040000r			; 132
CONST	ENDS
;	COMDAT __real@43000000
CONST	SEGMENT
__real@43000000 DD 043000000r			; 128
CONST	ENDS
;	COMDAT __real@42fc0000
CONST	SEGMENT
__real@42fc0000 DD 042fc0000r			; 126
CONST	ENDS
;	COMDAT __real@42f80000
CONST	SEGMENT
__real@42f80000 DD 042f80000r			; 124
CONST	ENDS
;	COMDAT __real@42f40000
CONST	SEGMENT
__real@42f40000 DD 042f40000r			; 122
CONST	ENDS
;	COMDAT __real@42f00000
CONST	SEGMENT
__real@42f00000 DD 042f00000r			; 120
CONST	ENDS
;	COMDAT __real@42ee0000
CONST	SEGMENT
__real@42ee0000 DD 042ee0000r			; 119
CONST	ENDS
;	COMDAT __real@42ec0000
CONST	SEGMENT
__real@42ec0000 DD 042ec0000r			; 118
CONST	ENDS
;	COMDAT __real@42ea0000
CONST	SEGMENT
__real@42ea0000 DD 042ea0000r			; 117
CONST	ENDS
;	COMDAT __real@42e80000
CONST	SEGMENT
__real@42e80000 DD 042e80000r			; 116
CONST	ENDS
;	COMDAT __real@42e40000
CONST	SEGMENT
__real@42e40000 DD 042e40000r			; 114
CONST	ENDS
;	COMDAT __real@42dc0000
CONST	SEGMENT
__real@42dc0000 DD 042dc0000r			; 110
CONST	ENDS
;	COMDAT __real@42d80000
CONST	SEGMENT
__real@42d80000 DD 042d80000r			; 108
CONST	ENDS
;	COMDAT __real@42d00000
CONST	SEGMENT
__real@42d00000 DD 042d00000r			; 104
CONST	ENDS
;	COMDAT __real@42cc0000
CONST	SEGMENT
__real@42cc0000 DD 042cc0000r			; 102
CONST	ENDS
;	COMDAT __real@42c80000
CONST	SEGMENT
__real@42c80000 DD 042c80000r			; 100
CONST	ENDS
;	COMDAT __real@42b00000
CONST	SEGMENT
__real@42b00000 DD 042b00000r			; 88
CONST	ENDS
;	COMDAT __real@42ac0000
CONST	SEGMENT
__real@42ac0000 DD 042ac0000r			; 86
CONST	ENDS
;	COMDAT __real@42a00000
CONST	SEGMENT
__real@42a00000 DD 042a00000r			; 80
CONST	ENDS
;	COMDAT __real@429c0000
CONST	SEGMENT
__real@429c0000 DD 0429c0000r			; 78
CONST	ENDS
;	COMDAT __real@429a0000
CONST	SEGMENT
__real@429a0000 DD 0429a0000r			; 77
CONST	ENDS
;	COMDAT __real@42980000
CONST	SEGMENT
__real@42980000 DD 042980000r			; 76
CONST	ENDS
;	COMDAT __real@42960000
CONST	SEGMENT
__real@42960000 DD 042960000r			; 75
CONST	ENDS
;	COMDAT __real@42880000
CONST	SEGMENT
__real@42880000 DD 042880000r			; 68
CONST	ENDS
;	COMDAT __real@42840000
CONST	SEGMENT
__real@42840000 DD 042840000r			; 66
CONST	ENDS
;	COMDAT __real@42800000
CONST	SEGMENT
__real@42800000 DD 042800000r			; 64
CONST	ENDS
;	COMDAT __real@42700000
CONST	SEGMENT
__real@42700000 DD 042700000r			; 60
CONST	ENDS
;	COMDAT __real@42680000
CONST	SEGMENT
__real@42680000 DD 042680000r			; 58
CONST	ENDS
;	COMDAT __real@425c0000
CONST	SEGMENT
__real@425c0000 DD 0425c0000r			; 55
CONST	ENDS
;	COMDAT __real@424c0000
CONST	SEGMENT
__real@424c0000 DD 0424c0000r			; 51
CONST	ENDS
;	COMDAT __real@42480000
CONST	SEGMENT
__real@42480000 DD 042480000r			; 50
CONST	ENDS
;	COMDAT __real@42400000
CONST	SEGMENT
__real@42400000 DD 042400000r			; 48
CONST	ENDS
;	COMDAT __real@42300000
CONST	SEGMENT
__real@42300000 DD 042300000r			; 44
CONST	ENDS
;	COMDAT __real@42200000
CONST	SEGMENT
__real@42200000 DD 042200000r			; 40
CONST	ENDS
;	COMDAT __real@420c0000
CONST	SEGMENT
__real@420c0000 DD 0420c0000r			; 35
CONST	ENDS
;	COMDAT __real@42080000
CONST	SEGMENT
__real@42080000 DD 042080000r			; 34
CONST	ENDS
;	COMDAT __real@41f00000
CONST	SEGMENT
__real@41f00000 DD 041f00000r			; 30
CONST	ENDS
;	COMDAT __real@41d00000
CONST	SEGMENT
__real@41d00000 DD 041d00000r			; 26
CONST	ENDS
;	COMDAT __real@41c80000
CONST	SEGMENT
__real@41c80000 DD 041c80000r			; 25
CONST	ENDS
;	COMDAT __real@41c00000
CONST	SEGMENT
__real@41c00000 DD 041c00000r			; 24
CONST	ENDS
;	COMDAT __real@41b00000
CONST	SEGMENT
__real@41b00000 DD 041b00000r			; 22
CONST	ENDS
;	COMDAT __real@41a00000
CONST	SEGMENT
__real@41a00000 DD 041a00000r			; 20
CONST	ENDS
;	COMDAT __real@41900000
CONST	SEGMENT
__real@41900000 DD 041900000r			; 18
CONST	ENDS
;	COMDAT __real@41880000
CONST	SEGMENT
__real@41880000 DD 041880000r			; 17
CONST	ENDS
;	COMDAT __real@41800000
CONST	SEGMENT
__real@41800000 DD 041800000r			; 16
CONST	ENDS
;	COMDAT __real@41700000
CONST	SEGMENT
__real@41700000 DD 041700000r			; 15
CONST	ENDS
;	COMDAT __real@41600000
CONST	SEGMENT
__real@41600000 DD 041600000r			; 14
CONST	ENDS
;	COMDAT __real@41500000
CONST	SEGMENT
__real@41500000 DD 041500000r			; 13
CONST	ENDS
;	COMDAT __real@41400000
CONST	SEGMENT
__real@41400000 DD 041400000r			; 12
CONST	ENDS
;	COMDAT __real@41300000
CONST	SEGMENT
__real@41300000 DD 041300000r			; 11
CONST	ENDS
;	COMDAT __real@41200000
CONST	SEGMENT
__real@41200000 DD 041200000r			; 10
CONST	ENDS
;	COMDAT __real@411fd70a
CONST	SEGMENT
__real@411fd70a DD 0411fd70ar			; 9.99
CONST	ENDS
;	COMDAT __real@41100000
CONST	SEGMENT
__real@41100000 DD 041100000r			; 9
CONST	ENDS
;	COMDAT __real@41000000
CONST	SEGMENT
__real@41000000 DD 041000000r			; 8
CONST	ENDS
;	COMDAT __real@40c3880000000000
CONST	SEGMENT
__real@40c3880000000000 DQ 040c3880000000000r	; 10000
CONST	ENDS
;	COMDAT __real@40c00000
CONST	SEGMENT
__real@40c00000 DD 040c00000r			; 6
CONST	ENDS
;	COMDAT __real@40a00000
CONST	SEGMENT
__real@40a00000 DD 040a00000r			; 5
CONST	ENDS
;	COMDAT __real@409f400000000000
CONST	SEGMENT
__real@409f400000000000 DQ 0409f400000000000r	; 2000
CONST	ENDS
;	COMDAT __real@4099000000000000
CONST	SEGMENT
__real@4099000000000000 DQ 04099000000000000r	; 1600
CONST	ENDS
;	COMDAT __real@4091300000000000
CONST	SEGMENT
__real@4091300000000000 DQ 04091300000000000r	; 1100
CONST	ENDS
;	COMDAT __real@408f400000000000
CONST	SEGMENT
__real@408f400000000000 DQ 0408f400000000000r	; 1000
CONST	ENDS
;	COMDAT __real@4087700000000000
CONST	SEGMENT
__real@4087700000000000 DQ 04087700000000000r	; 750
CONST	ENDS
;	COMDAT __real@4082c00000000000
CONST	SEGMENT
__real@4082c00000000000 DQ 04082c00000000000r	; 600
CONST	ENDS
;	COMDAT __real@40800000
CONST	SEGMENT
__real@40800000 DD 040800000r			; 4
CONST	ENDS
;	COMDAT __real@407f400000000000
CONST	SEGMENT
__real@407f400000000000 DQ 0407f400000000000r	; 500
CONST	ENDS
;	COMDAT __real@407c200000000000
CONST	SEGMENT
__real@407c200000000000 DQ 0407c200000000000r	; 450
CONST	ENDS
;	COMDAT __real@4079000000000000
CONST	SEGMENT
__real@4079000000000000 DQ 04079000000000000r	; 400
CONST	ENDS
;	COMDAT __real@40784ffbe76c8b44
CONST	SEGMENT
__real@40784ffbe76c8b44 DQ 040784ffbe76c8b44r	; 388.999
CONST	ENDS
;	COMDAT __real@4078000000000000
CONST	SEGMENT
__real@4078000000000000 DQ 04078000000000000r	; 384
CONST	ENDS
;	COMDAT __real@4075e00000000000
CONST	SEGMENT
__real@4075e00000000000 DQ 04075e00000000000r	; 350
CONST	ENDS
;	COMDAT __real@4072c00007080003
CONST	SEGMENT
__real@4072c00007080003 DQ 04072c00007080003r	; 300
CONST	ENDS
;	COMDAT __real@4072c00000000000
CONST	SEGMENT
__real@4072c00000000000 DQ 04072c00000000000r	; 300
CONST	ENDS
;	COMDAT __real@406e1ff7ced91687
CONST	SEGMENT
__real@406e1ff7ced91687 DQ 0406e1ff7ced91687r	; 240.999
CONST	ENDS
;	COMDAT __real@406dc00000000000
CONST	SEGMENT
__real@406dc00000000000 DQ 0406dc00000000000r	; 238
CONST	ENDS
;	COMDAT __real@4067bff7ced91687
CONST	SEGMENT
__real@4067bff7ced91687 DQ 04067bff7ced91687r	; 189.999
CONST	ENDS
;	COMDAT __real@4067600000000000
CONST	SEGMENT
__real@4067600000000000 DQ 04067600000000000r	; 187
CONST	ENDS
;	COMDAT __real@4066e00000000000
CONST	SEGMENT
__real@4066e00000000000 DQ 04066e00000000000r	; 183
CONST	ENDS
;	COMDAT __real@40666666
CONST	SEGMENT
__real@40666666 DD 040666666r			; 3.6
CONST	ENDS
;	COMDAT __real@4066600000000000
CONST	SEGMENT
__real@4066600000000000 DQ 04066600000000000r	; 179
CONST	ENDS
;	COMDAT __real@405e000000000000
CONST	SEGMENT
__real@405e000000000000 DQ 0405e000000000000r	; 120
CONST	ENDS
;	COMDAT __real@405b800000000000
CONST	SEGMENT
__real@405b800000000000 DQ 0405b800000000000r	; 110
CONST	ENDS
;	COMDAT __real@4059000000000000
CONST	SEGMENT
__real@4059000000000000 DQ 04059000000000000r	; 100
CONST	ENDS
;	COMDAT __real@404e000000000000
CONST	SEGMENT
__real@404e000000000000 DQ 0404e000000000000r	; 60
CONST	ENDS
;	COMDAT __real@4049000000000000
CONST	SEGMENT
__real@4049000000000000 DQ 04049000000000000r	; 50
CONST	ENDS
;	COMDAT __real@4044000000000000
CONST	SEGMENT
__real@4044000000000000 DQ 04044000000000000r	; 40
CONST	ENDS
;	COMDAT __real@4034000000000000
CONST	SEGMENT
__real@4034000000000000 DQ 04034000000000000r	; 20
CONST	ENDS
;	COMDAT __real@4028000000000000
CONST	SEGMENT
__real@4028000000000000 DQ 04028000000000000r	; 12
CONST	ENDS
;	COMDAT __real@4024000000000000
CONST	SEGMENT
__real@4024000000000000 DQ 04024000000000000r	; 10
CONST	ENDS
;	COMDAT __real@401921fb51000000
CONST	SEGMENT
__real@401921fb51000000 DQ 0401921fb51000000r	; 6.28319
CONST	ENDS
;	COMDAT __real@4018000000000000
CONST	SEGMENT
__real@4018000000000000 DQ 04018000000000000r	; 6
CONST	ENDS
;	COMDAT __real@4014000000000000
CONST	SEGMENT
__real@4014000000000000 DQ 04014000000000000r	; 5
CONST	ENDS
;	COMDAT __real@4012000000000000
CONST	SEGMENT
__real@4012000000000000 DQ 04012000000000000r	; 4.5
CONST	ENDS
;	COMDAT __real@4010000000000000
CONST	SEGMENT
__real@4010000000000000 DQ 04010000000000000r	; 4
CONST	ENDS
;	COMDAT __real@400999999999999a
CONST	SEGMENT
__real@400999999999999a DQ 0400999999999999ar	; 3.2
CONST	ENDS
;	COMDAT __real@400921fb51000000
CONST	SEGMENT
__real@400921fb51000000 DQ 0400921fb51000000r	; 3.14159
CONST	ENDS
;	COMDAT __real@4000000000000000
CONST	SEGMENT
__real@4000000000000000 DQ 04000000000000000r	; 2
CONST	ENDS
;	COMDAT __real@3ffb333333333333
CONST	SEGMENT
__real@3ffb333333333333 DQ 03ffb333333333333r	; 1.7
CONST	ENDS
;	COMDAT __real@3ff0000000000000
CONST	SEGMENT
__real@3ff0000000000000 DQ 03ff0000000000000r	; 1
CONST	ENDS
;	COMDAT __real@3fecb91f38000000
CONST	SEGMENT
__real@3fecb91f38000000 DQ 03fecb91f38000000r	; 0.897598
CONST	ENDS
;	COMDAT __real@3fe7333333333333
CONST	SEGMENT
__real@3fe7333333333333 DQ 03fe7333333333333r	; 0.725
CONST	ENDS
;	COMDAT __real@3fe38c353f000000
CONST	SEGMENT
__real@3fe38c353f000000 DQ 03fe38c353f000000r	; 0.610865
CONST	ENDS
;	COMDAT __real@3fe0c15236000000
CONST	SEGMENT
__real@3fe0c15236000000 DQ 03fe0c15236000000r	; 0.523599
CONST	ENDS
;	COMDAT __real@3fe0000000000000
CONST	SEGMENT
__real@3fe0000000000000 DQ 03fe0000000000000r	; 0.5
CONST	ENDS
;	COMDAT __real@3fd47ae147ae147b
CONST	SEGMENT
__real@3fd47ae147ae147b DQ 03fd47ae147ae147br	; 0.32
CONST	ENDS
;	COMDAT __real@3fd353f7ced91687
CONST	SEGMENT
__real@3fd353f7ced91687 DQ 03fd353f7ced91687r	; 0.302
CONST	ENDS
;	COMDAT __real@3fbc28f5c28f5c29
CONST	SEGMENT
__real@3fbc28f5c28f5c29 DQ 03fbc28f5c28f5c29r	; 0.11
CONST	ENDS
;	COMDAT __real@3fb999999999999a
CONST	SEGMENT
__real@3fb999999999999a DQ 03fb999999999999ar	; 0.1
CONST	ENDS
;	COMDAT __real@3fb6571848000000
CONST	SEGMENT
__real@3fb6571848000000 DQ 03fb6571848000000r	; 0.0872665
CONST	ENDS
;	COMDAT __real@3faacee9f0000000
CONST	SEGMENT
__real@3faacee9f0000000 DQ 03faacee9f0000000r	; 0.0523599
CONST	ENDS
;	COMDAT __real@3fa999999999999a
CONST	SEGMENT
__real@3fa999999999999a DQ 03fa999999999999ar	; 0.05
CONST	ENDS
;	COMDAT __real@3fa41b2f74000000
CONST	SEGMENT
__real@3fa41b2f74000000 DQ 03fa41b2f74000000r	; 0.0392699
CONST	ENDS
;	COMDAT __real@3f91df46a0000000
CONST	SEGMENT
__real@3f91df46a0000000 DQ 03f91df46a0000000r	; 0.0174533
CONST	ENDS
;	COMDAT __real@3f857254c0000000
CONST	SEGMENT
__real@3f857254c0000000 DQ 03f857254c0000000r	; 0.010472
CONST	ENDS
;	COMDAT __real@3f8015bf90000000
CONST	SEGMENT
__real@3f8015bf90000000 DQ 03f8015bf90000000r	; 0.00785398
CONST	ENDS
;	COMDAT __real@3f800000
CONST	SEGMENT
__real@3f800000 DD 03f800000r			; 1
CONST	ENDS
;	COMDAT __real@3f7d70a4
CONST	SEGMENT
__real@3f7d70a4 DD 03f7d70a4r			; 0.99
CONST	ENDS
;	COMDAT __real@3f79bc65b3333333
CONST	SEGMENT
__real@3f79bc65b3333333 DQ 03f79bc65b3333333r	; 0.00628319
CONST	ENDS
;	COMDAT __real@3f50624dd2f1a9fc
CONST	SEGMENT
__real@3f50624dd2f1a9fc DQ 03f50624dd2f1a9fcr	; 0.001
CONST	ENDS
;	COMDAT __real@3f4496b7c28f5c29
CONST	SEGMENT
__real@3f4496b7c28f5c29 DQ 03f4496b7c28f5c29r	; 0.000628319
CONST	ENDS
;	COMDAT __real@3dcccccd
CONST	SEGMENT
__real@3dcccccd DD 03dcccccdr			; 0.1
CONST	ENDS
;	COMDAT __real@3db851ec
CONST	SEGMENT
__real@3db851ec DD 03db851ecr			; 0.09
CONST	ENDS
;	COMDAT __real@3c23d70a
CONST	SEGMENT
__real@3c23d70a DD 03c23d70ar			; 0.01
CONST	ENDS
;	COMDAT __real@0000000000000000
CONST	SEGMENT
__real@0000000000000000 DQ 00000000000000000r	; 0
CONST	ENDS
;	COMDAT ?__LINE__Var@?0??draw_havoc_virtual_cockpit_instruments_on_texture@@YGXXZ@4JA
_DATA	SEGMENT
?__LINE__Var@?0??draw_havoc_virtual_cockpit_instruments_on_texture@@YGXXZ@4JA DD 08c5H ; `draw_havoc_virtual_cockpit_instruments_on_texture'::`1'::__LINE__Var
_DATA	ENDS
;	COMDAT ?__LINE__Var@?0??get_havoc_virtual_cockpit_hsi_needle_values@@YGXPAM00@Z@4JA
_DATA	SEGMENT
?__LINE__Var@?0??get_havoc_virtual_cockpit_hsi_needle_values@@YGXPAM00@Z@4JA DD 0874H ; `get_havoc_virtual_cockpit_hsi_needle_values'::`1'::__LINE__Var
_DATA	ENDS
;	COMDAT ?__LINE__Var@?0??draw_havoc_fixed_cockpit_hsi_waypoint_identifier@@YGXW4COCKPIT_PANELS@@@Z@4JA
_DATA	SEGMENT
?__LINE__Var@?0??draw_havoc_fixed_cockpit_hsi_waypoint_identifier@@YGXW4COCKPIT_PANELS@@@Z@4JA DD 0814H ; `draw_havoc_fixed_cockpit_hsi_waypoint_identifier'::`1'::__LINE__Var
_DATA	ENDS
;	COMDAT ?__LINE__Var@?0??draw_havoc_fixed_cockpit_hsi_waypoint_distance_digits@@YGXW4COCKPIT_PANELS@@@Z@4JA
_DATA	SEGMENT
?__LINE__Var@?0??draw_havoc_fixed_cockpit_hsi_waypoint_distance_digits@@YGXW4COCKPIT_PANELS@@@Z@4JA DD 0731H ; `draw_havoc_fixed_cockpit_hsi_waypoint_distance_digits'::`1'::__LINE__Var
_DATA	ENDS
;	COMDAT ?__LINE__Var@?0??draw_havoc_clock@@YGXW4COCKPIT_PANELS@@@Z@4JA
_DATA	SEGMENT
?__LINE__Var@?0??draw_havoc_clock@@YGXW4COCKPIT_PANELS@@@Z@4JA DD 05ceH ; `draw_havoc_clock'::`1'::__LINE__Var
_DATA	ENDS
;	COMDAT ??_C@_05BPGNBDFG@drift@
CONST	SEGMENT
??_C@_05BPGNBDFG@drift@ DB 'drift', 00H			; `string'
CONST	ENDS
;	COMDAT ??_C@_0M@GOBOJDMO@flight_path@
CONST	SEGMENT
??_C@_0M@GOBOJDMO@flight_path@ DB 'flight_path', 00H	; `string'
CONST	ENDS
;	COMDAT ??_C@_0BB@PFAKKLCO@direction_finder@
CONST	SEGMENT
??_C@_0BB@PFAKKLCO@direction_finder@ DB 'direction_finder', 00H ; `string'
CONST	ENDS
;	COMDAT ?__LINE__Var@?0??get_hsi_needle_values@@YGXPAM00@Z@4JA
_DATA	SEGMENT
?__LINE__Var@?0??get_hsi_needle_values@@YGXPAM00@Z@4JA DD 0137H ; `get_hsi_needle_values'::`1'::__LINE__Var
_DATA	ENDS
;	COMDAT ??_C@_0EP@MNOBCBEH@c?3?2users?2nhv90?2projects?2eech?2ap@
CONST	SEGMENT
??_C@_0EP@MNOBCBEH@c?3?2users?2nhv90?2projects?2eech?2ap@ DB 'c:\users\nh'
	DB	'v90\projects\eech\aphavoc\source\gunships\cockpits\havoc\ha_i'
	DB	'nstr.c', 00H				; `string'
CONST	ENDS
_DATA	SEGMENT
?instrument_error@@3PBDB DD FLAT:??_C@_0CA@JPJNIOCL@Cannot?5draw?5instrument?5on?5panel@ ; instrument_error
?textures@@3PAY02HA DD 06d0H				; textures
	DD	06f4H
	DD	0708H
	DD	06d5H
	DD	06f9H
	DD	070dH
	DD	06d1H
	DD	06f5H
	DD	0709H
	DD	06d6H
	DD	06faH
	DD	070eH
	DD	06cfH
	DD	06f3H
	DD	0707H
?airspeed_indicator_airspeed_needle_scale_down_20_ahead@@3PAUSCALE_DATA@@A DW 081H ; airspeed_indicator_airspeed_needle_scale_down_20_ahead
	DW	0152H
	DD	0c2480000r			; -50
	DW	081H
	DW	0151H
	DD	0c231c71cr			; -44.4444
	DW	081H
	DW	0150H
	DD	0c21b8e39r			; -38.8889
	DW	080H
	DW	014fH
	DD	0c2055555r			; -33.3333
	DW	080H
	DW	014eH
	DD	0c1de38e4r			; -27.7778
	DW	080H
	DW	014dH
	DD	0c1b1c71cr			; -22.2222
	DW	080H
	DW	014cH
	DD	0c1855555r			; -16.6667
	DW	07fH
	DW	014bH
	DD	0c131c71cr			; -11.1111
	DW	07fH
	DW	014aH
	DD	0c0b1c71cr			; -5.55556
	DW	07fH
	DW	0149H
	DD	000000000r			; 0
	DW	07fH
	DW	0148H
	DD	040b1c71cr			; 5.55556
	DW	07fH
	DW	0147H
	DD	04131c71cr			; 11.1111
	DW	080H
	DW	0146H
	DD	041855555r			; 16.6667
	DW	080H
	DW	0145H
	DD	041b1c71cr			; 22.2222
	DW	080H
	DW	0144H
	DD	041de38e4r			; 27.7778
	DW	080H
	DW	0143H
	DD	042055555r			; 33.3333
	DW	080H
	DW	0142H
	DD	0421b8e39r			; 38.8889
	DW	081H
	DW	0141H
	DD	04231c71cr			; 44.4444
	DW	081H
	DW	0140H
	DD	042480000r			; 50
	DW	082H
	DW	013fH
	DD	042649249r			; 57.1429
	DW	082H
	DW	013eH
	DD	042809249r			; 64.2857
	DW	083H
	DW	013dH
	DD	0428edb6er			; 71.4286
	DW	083H
	DW	013cH
	DD	0429d2492r			; 78.5714
	DW	084H
	DW	013bH
	DD	042ab6db7r			; 85.7143
	DW	085H
	DW	013aH
	DD	042b9b6dbr			; 92.8571
	DW	086H
	DW	0139H
	DD	042c80000r			; 100
	DW	087H
	DW	0138H
	DD	042d48000r			; 106.25
	DW	088H
	DW	0137H
	DD	042e10000r			; 112.5
	DW	089H
	DW	0136H
	DD	042ed8000r			; 118.75
	DW	08aH
	DW	0136H
	DD	042fa0000r			; 125
	DW	08bH
	DW	0135H
	DD	043034000r			; 131.25
	DW	08cH
	DW	0135H
	DD	043098000r			; 137.5
	DW	08dH
	DW	0134H
	DD	0430fc000r			; 143.75
	DW	08eH
	DW	0134H
	DD	043160000r			; 150
	DW	08fH
	DW	0134H
	DD	0431c4000r			; 156.25
	DW	090H
	DW	0133H
	DD	043228000r			; 162.5
	DW	091H
	DW	0133H
	DD	04328c000r			; 168.75
	DW	092H
	DW	0133H
	DD	0432f0000r			; 175
	DW	093H
	DW	0133H
	DD	043354000r			; 181.25
	DW	094H
	DW	0133H
	DD	0433b8000r			; 187.5
	DW	095H
	DW	0133H
	DD	04341c000r			; 193.75
	DW	096H
	DW	0133H
	DD	043480000r			; 200
	DW	097H
	DW	0133H
	DD	0434eaaabr			; 206.667
	DW	098H
	DW	0133H
	DD	043555555r			; 213.333
	DW	099H
	DW	0133H
	DD	0435c0000r			; 220
	DW	09aH
	DW	0133H
	DD	04362aaabr			; 226.667
	DW	09bH
	DW	0133H
	DD	043695555r			; 233.333
	DW	09cH
	DW	0134H
	DD	043700000r			; 240
	DW	09dH
	DW	0134H
	DD	04376aaabr			; 246.667
	DW	09eH
	DW	0134H
	DD	0437d5555r			; 253.333
	DW	09fH
	DW	0135H
	DD	043820000r			; 260
	DW	0a0H
	DW	0135H
	DD	043855555r			; 266.667
	DW	0a1H
	DW	0136H
	DD	04388aaabr			; 273.333
	DW	0a2H
	DW	0136H
	DD	0438c0000r			; 280
	DW	0a3H
	DW	0137H
	DD	0438f5555r			; 286.667
	DW	0a4H
	DW	0138H
	DD	04392aaabr			; 293.333
	DW	0a5H
	DW	0139H
	DD	043960000r			; 300
	DW	0a6H
	DW	013aH
	DD	043992000r			; 306.25
	DW	0a7H
	DW	013bH
	DD	0439c4000r			; 312.5
	DW	0a8H
	DW	013cH
	DD	0439f6000r			; 318.75
	DW	0a9H
	DW	013dH
	DD	043a28000r			; 325
	DW	0a9H
	DW	013eH
	DD	043a5a000r			; 331.25
	DW	0aaH
	DW	013fH
	DD	043a8c000r			; 337.5
	DW	0aaH
	DW	0140H
	DD	043abe000r			; 343.75
	DW	0aaH
	DW	0141H
	DD	043af0000r			; 350
	DW	0abH
	DW	0142H
	DD	043b22000r			; 356.25
	DW	0abH
	DW	0143H
	DD	043b54000r			; 362.5
	DW	0abH
	DW	0144H
	DD	043b86000r			; 368.75
	DW	0acH
	DW	0145H
	DD	043bb8000r			; 375
	DW	0acH
	DW	0146H
	DD	043bea000r			; 381.25
	DW	0acH
	DW	0147H
	DD	043c1c000r			; 387.5
	DW	0acH
	DW	0148H
	DD	043c4e000r			; 393.75
	DW	0acH
	DW	0149H
	DD	043c80000r			; 400
	DW	0acH
	DW	014aH
	DD	043cb2000r			; 406.25
	DW	0acH
	DW	014bH
	DD	043ce4000r			; 412.5
	DW	0acH
	DW	014cH
	DD	043d16000r			; 418.75
	DW	0acH
	DW	014dH
	DD	043d48000r			; 425
	DW	0abH
	DW	014eH
	DD	043d7a000r			; 431.25
	DW	0abH
	DW	014fH
	DD	043dac000r			; 437.5
	DW	0abH
	DW	0150H
	DD	043dde000r			; 443.75
	DW	0aaH
	DW	0151H
	DD	043e10000r			; 450
	DW	00H
	DW	00H
	DD	07f7fffffr			; 3.40282e+38
?airspeed_indicator_slip_needle_scale_down_20_ahead@@3PAUSCALE_DATA@@A DW 086H ; airspeed_indicator_slip_needle_scale_down_20_ahead
	DW	0159H
	DD	0c2c80000r			; -100
	DW	087H
	DW	015aH
	DD	0c2b9b6dbr			; -92.8571
	DW	088H
	DW	015bH
	DD	0c2ab6db7r			; -85.7143
	DW	089H
	DW	015bH
	DD	0c29d2492r			; -78.5714
	DW	08aH
	DW	015cH
	DD	0c28edb6er			; -71.4286
	DW	08bH
	DW	015cH
	DD	0c2809249r			; -64.2857
	DW	08cH
	DW	015dH
	DD	0c2649249r			; -57.1429
	DW	08dH
	DW	015dH
	DD	0c2480000r			; -50
	DW	08eH
	DW	015eH
	DD	0c231c71cr			; -44.4444
	DW	08fH
	DW	015eH
	DD	0c21b8e39r			; -38.8889
	DW	090H
	DW	015eH
	DD	0c2055555r			; -33.3333
	DW	091H
	DW	015fH
	DD	0c1de38e4r			; -27.7778
	DW	092H
	DW	015fH
	DD	0c1b1c71cr			; -22.2222
	DW	093H
	DW	015fH
	DD	0c1855555r			; -16.6667
	DW	094H
	DW	015fH
	DD	0c131c71cr			; -11.1111
	DW	095H
	DW	015fH
	DD	0c0b1c71cr			; -5.55556
	DW	096H
	DW	015fH
	DD	000000000r			; 0
	DW	097H
	DW	015fH
	DD	040c80000r			; 6.25
	DW	098H
	DW	015fH
	DD	041480000r			; 12.5
	DW	099H
	DW	015fH
	DD	041960000r			; 18.75
	DW	09aH
	DW	015fH
	DD	041c80000r			; 25
	DW	09bH
	DW	015eH
	DD	041fa0000r			; 31.25
	DW	09cH
	DW	015eH
	DD	042160000r			; 37.5
	DW	09dH
	DW	015eH
	DD	0422f0000r			; 43.75
	DW	09eH
	DW	015eH
	DD	042480000r			; 50
	DW	09fH
	DW	015dH
	DD	042649249r			; 57.1429
	DW	0a0H
	DW	015dH
	DD	042809249r			; 64.2857
	DW	0a1H
	DW	015cH
	DD	0428edb6er			; 71.4286
	DW	0a2H
	DW	015bH
	DD	0429d2492r			; 78.5714
	DW	0a3H
	DW	015aH
	DD	042ab6db7r			; 85.7143
	DW	0a4H
	DW	0159H
	DD	042b9b6dbr			; 92.8571
	DW	0a5H
	DW	0158H
	DD	042c80000r			; 100
	DW	00H
	DW	00H
	DD	07f7fffffr			; 3.40282e+38
?airspeed_indicator_airspeed_needle_scale_down_20_left_30@@3PAUSCALE_DATA@@A DW 018bH ; airspeed_indicator_airspeed_needle_scale_down_20_left_30
	DW	0143H
	DD	0c2480000r			; -50
	DW	018bH
	DW	0142H
	DD	0c22f0000r			; -43.75
	DW	018bH
	DW	0141H
	DD	0c2160000r			; -37.5
	DW	018bH
	DW	0140H
	DD	0c1fa0000r			; -31.25
	DW	018bH
	DW	013fH
	DD	0c1c80000r			; -25
	DW	018bH
	DW	013eH
	DD	0c1960000r			; -18.75
	DW	018bH
	DW	013dH
	DD	0c1480000r			; -12.5
	DW	018bH
	DW	013cH
	DD	0c0c80000r			; -6.25
	DW	018bH
	DW	013bH
	DD	000000000r			; 0
	DW	018bH
	DW	013aH
	DD	040c80000r			; 6.25
	DW	018bH
	DW	0139H
	DD	041480000r			; 12.5
	DW	018cH
	DW	0138H
	DD	041960000r			; 18.75
	DW	018cH
	DW	0137H
	DD	041c80000r			; 25
	DW	018cH
	DW	0136H
	DD	041fa0000r			; 31.25
	DW	018dH
	DW	0135H
	DD	042160000r			; 37.5
	DW	018dH
	DW	0134H
	DD	0422f0000r			; 43.75
	DW	018eH
	DW	0133H
	DD	042480000r			; 50
	DW	018eH
	DW	0132H
	DD	042649249r			; 57.1429
	DW	018fH
	DW	0131H
	DD	042809249r			; 64.2857
	DW	0190H
	DW	0130H
	DD	0428edb6er			; 71.4286
	DW	0191H
	DW	012fH
	DD	0429d2492r			; 78.5714
	DW	0192H
	DW	012eH
	DD	042ab6db7r			; 85.7143
	DW	0193H
	DW	012eH
	DD	042b9b6dbr			; 92.8571
	DW	0194H
	DW	012dH
	DD	042c80000r			; 100
	DW	0195H
	DW	012cH
	DD	042d55555r			; 106.667
	DW	0196H
	DW	012cH
	DD	042e2aaabr			; 113.333
	DW	0197H
	DW	012bH
	DD	042f00000r			; 120
	DW	0198H
	DW	012bH
	DD	042fd5555r			; 126.667
	DW	0199H
	DW	012bH
	DD	043055555r			; 133.333
	DW	019aH
	DW	012bH
	DD	0430c0000r			; 140
	DW	019bH
	DW	012aH
	DD	04312aaabr			; 146.667
	DW	019cH
	DW	012aH
	DD	043195555r			; 153.333
	DW	019dH
	DW	012aH
	DD	043200000r			; 160
	DW	019eH
	DW	012aH
	DD	04326aaabr			; 166.667
	DW	019fH
	DW	012aH
	DD	0432d5555r			; 173.333
	DW	01a0H
	DW	012aH
	DD	043340000r			; 180
	DW	01a1H
	DW	012aH
	DD	0433aaaabr			; 186.667
	DW	01a2H
	DW	012aH
	DD	043415555r			; 193.333
	DW	01a3H
	DW	012bH
	DD	043480000r			; 200
	DW	01a4H
	DW	012bH
	DD	0434f2492r			; 207.143
	DW	01a5H
	DW	012bH
	DD	043564925r			; 214.286
	DW	01a6H
	DW	012cH
	DD	0435d6db7r			; 221.429
	DW	01a7H
	DW	012cH
	DD	043649249r			; 228.571
	DW	01a8H
	DW	012dH
	DD	0436bb6dbr			; 235.714
	DW	01a9H
	DW	012dH
	DD	04372db6er			; 242.857
	DW	01aaH
	DW	012eH
	DD	0437a0000r			; 250
	DW	01abH
	DW	012eH
	DD	043809249r			; 257.143
	DW	01acH
	DW	012fH
	DD	043842492r			; 264.286
	DW	01adH
	DW	0130H
	DD	04387b6dbr			; 271.429
	DW	01aeH
	DW	0131H
	DD	0438b4925r			; 278.571
	DW	01afH
	DW	0132H
	DD	0438edb6er			; 285.714
	DW	01afH
	DW	0133H
	DD	043926db7r			; 292.857
	DW	01b0H
	DW	0134H
	DD	043960000r			; 300
	DW	01b1H
	DW	0135H
	DD	04398f0f1r			; 305.882
	DW	01b1H
	DW	0136H
	DD	0439be1e2r			; 311.765
	DW	01b2H
	DW	0137H
	DD	0439ed2d3r			; 317.647
	DW	01b2H
	DW	0138H
	DD	043a1c3c4r			; 323.529
	DW	01b3H
	DW	0139H
	DD	043a4b4b5r			; 329.412
	DW	01b3H
	DW	013aH
	DD	043a7a5a6r			; 335.294
	DW	01b3H
	DW	013bH
	DD	043aa9697r			; 341.176
	DW	01b4H
	DW	013cH
	DD	043ad8788r			; 347.059
	DW	01b4H
	DW	013dH
	DD	043b07878r			; 352.941
	DW	01b4H
	DW	013eH
	DD	043b36969r			; 358.824
	DW	01b4H
	DW	013fH
	DD	043b65a5ar			; 364.706
	DW	01b4H
	DW	0140H
	DD	043b94b4br			; 370.588
	DW	01b4H
	DW	0141H
	DD	043bc3c3cr			; 376.471
	DW	01b4H
	DW	0142H
	DD	043bf2d2dr			; 382.353
	DW	01b4H
	DW	0143H
	DD	043c21e1er			; 388.235
	DW	01b4H
	DW	0144H
	DD	043c50f0fr			; 394.118
	DW	01b4H
	DW	0145H
	DD	043c80000r			; 400
	DW	01b3H
	DW	0146H
	DD	043cb2000r			; 406.25
	DW	01b3H
	DW	0147H
	DD	043ce4000r			; 412.5
	DW	01b3H
	DW	0148H
	DD	043d16000r			; 418.75
	DW	01b3H
	DW	0149H
	DD	043d48000r			; 425
	DW	01b2H
	DW	014aH
	DD	043d7a000r			; 431.25
	DW	01b2H
	DW	014bH
	DD	043dac000r			; 437.5
	DW	01b1H
	DW	014cH
	DD	043dde000r			; 443.75
	DW	01b1H
	DW	014dH
	DD	043e10000r			; 450
	DW	00H
	DW	00H
	DD	07f7fffffr			; 3.40282e+38
?airspeed_indicator_slip_needle_scale_down_20_left_30@@3PAUSCALE_DATA@@A DW 018eH ; airspeed_indicator_slip_needle_scale_down_20_left_30
	DW	014bH
	DD	0c2c80000r			; -100
	DW	018fH
	DW	014cH
	DD	0c2b75555r			; -91.6667
	DW	018fH
	DW	014dH
	DD	0c2a6aaabr			; -83.3333
	DW	0190H
	DW	014eH
	DD	0c2960000r			; -75
	DW	0191H
	DW	014fH
	DD	0c2855555r			; -66.6667
	DW	0192H
	DW	0150H
	DD	0c2695555r			; -58.3333
	DW	0193H
	DW	0151H
	DD	0c2480000r			; -50
	DW	0194H
	DW	0151H
	DD	0c231c71cr			; -44.4444
	DW	0195H
	DW	0152H
	DD	0c21b8e39r			; -38.8889
	DW	0196H
	DW	0153H
	DD	0c2055555r			; -33.3333
	DW	0197H
	DW	0153H
	DD	0c1de38e4r			; -27.7778
	DW	0198H
	DW	0154H
	DD	0c1b1c71cr			; -22.2222
	DW	0199H
	DW	0154H
	DD	0c1855555r			; -16.6667
	DW	019aH
	DW	0154H
	DD	0c131c71cr			; -11.1111
	DW	019bH
	DW	0154H
	DD	0c0b1c71cr			; -5.55556
	DW	019cH
	DW	0155H
	DD	000000000r			; 0
	DW	019dH
	DW	0155H
	DD	040e49249r			; 7.14286
	DW	019eH
	DW	0155H
	DD	041649249r			; 14.2857
	DW	019fH
	DW	0155H
	DD	041ab6db7r			; 21.4286
	DW	01a0H
	DW	0155H
	DD	041e49249r			; 28.5714
	DW	01a1H
	DW	0155H
	DD	0420edb6er			; 35.7143
	DW	01a2H
	DW	0155H
	DD	0422b6db7r			; 42.8571
	DW	01a3H
	DW	0155H
	DD	042480000r			; 50
	DW	01a4H
	DW	0155H
	DD	042610000r			; 56.25
	DW	01a5H
	DW	0155H
	DD	0427a0000r			; 62.5
	DW	01a6H
	DW	0155H
	DD	042898000r			; 68.75
	DW	01a7H
	DW	0154H
	DD	042960000r			; 75
	DW	01a8H
	DW	0154H
	DD	042a28000r			; 81.25
	DW	01a9H
	DW	0154H
	DD	042af0000r			; 87.5
	DW	01aaH
	DW	0153H
	DD	042bb8000r			; 93.75
	DW	01abH
	DW	0153H
	DD	042c80000r			; 100
	DW	00H
	DW	00H
	DD	07f7fffffr			; 3.40282e+38
?barometric_altimeter_large_needle_scale_down_20_ahead@@3PAUSCALE_DATA@@A DW 04bH ; barometric_altimeter_large_needle_scale_down_20_ahead
	DW	0174H
	DD	000000000r			; 0
	DW	04cH
	DW	0174H
	DD	040f62762r			; 7.69231
	DW	04dH
	DW	0174H
	DD	041762762r			; 15.3846
	DW	04eH
	DW	0174H
	DD	041b89d8ar			; 23.0769
	DW	04fH
	DW	0174H
	DD	041f62762r			; 30.7692
	DW	050H
	DW	0174H
	DD	04219d89er			; 38.4615
	DW	051H
	DW	0175H
	DD	042389d8ar			; 46.1538
	DW	052H
	DW	0175H
	DD	042576276r			; 53.8462
	DW	053H
	DW	0175H
	DD	042762762r			; 61.5385
	DW	054H
	DW	0176H
	DD	0428a7627r			; 69.2308
	DW	055H
	DW	0176H
	DD	04299d89er			; 76.9231
	DW	056H
	DW	0177H
	DD	042a93b14r			; 84.6154
	DW	057H
	DW	0177H
	DD	042b89d8ar			; 92.3077
	DW	058H
	DW	0178H
	DD	042c80000r			; 100
	DW	059H
	DW	0179H
	DD	042da2e8cr			; 109.091
	DW	05aH
	DW	017aH
	DD	042ec5d17r			; 118.182
	DW	05bH
	DW	017bH
	DD	042fe8ba3r			; 127.273
	DW	05cH
	DW	017cH
	DD	043085d17r			; 136.364
	DW	05dH
	DW	017dH
	DD	04311745dr			; 145.455
	DW	05dH
	DW	017eH
	DD	0431a8ba3r			; 154.545
	DW	05eH
	DW	017fH
	DD	04323a2e9r			; 163.636
	DW	05fH
	DW	0180H
	DD	0432cba2fr			; 172.727
	DW	05fH
	DW	0181H
	DD	04335d174r			; 181.818
	DW	05fH
	DW	0182H
	DD	0433ee8bar			; 190.909
	DW	060H
	DW	0183H
	DD	043480000r			; 200
	DW	060H
	DW	0184H
	DD	0434f2492r			; 207.143
	DW	060H
	DW	0185H
	DD	043564925r			; 214.286
	DW	061H
	DW	0186H
	DD	0435d6db7r			; 221.429
	DW	061H
	DW	0187H
	DD	043649249r			; 228.571
	DW	061H
	DW	0188H
	DD	0436bb6dbr			; 235.714
	DW	061H
	DW	0189H
	DD	04372db6er			; 242.857
	DW	061H
	DW	018aH
	DD	0437a0000r			; 250
	DW	061H
	DW	018bH
	DD	043809249r			; 257.143
	DW	061H
	DW	018cH
	DD	043842492r			; 264.286
	DW	061H
	DW	018dH
	DD	04387b6dbr			; 271.429
	DW	061H
	DW	018eH
	DD	0438b4925r			; 278.571
	DW	060H
	DW	018fH
	DD	0438edb6er			; 285.714
	DW	060H
	DW	0190H
	DD	043926db7r			; 292.857
	DW	060H
	DW	0191H
	DD	043960000r			; 300
	DW	05fH
	DW	0192H
	DD	0439a8ba3r			; 309.091
	DW	05fH
	DW	0193H
	DD	0439f1746r			; 318.182
	DW	05fH
	DW	0194H
	DD	043a3a2e9r			; 327.273
	DW	05eH
	DW	0195H
	DD	043a82e8cr			; 336.364
	DW	05dH
	DW	0196H
	DD	043acba2fr			; 345.455
	DW	05dH
	DW	0197H
	DD	043b145d1r			; 354.545
	DW	05cH
	DW	0198H
	DD	043b5d174r			; 363.636
	DW	05bH
	DW	0199H
	DD	043ba5d17r			; 372.727
	DW	05aH
	DW	019aH
	DD	043bee8bar			; 381.818
	DW	059H
	DW	019bH
	DD	043c3745dr			; 390.909
	DW	058H
	DW	019cH
	DD	043c80000r			; 400
	DW	057H
	DW	019dH
	DD	043cbd89er			; 407.692
	DW	056H
	DW	019dH
	DD	043cfb13br			; 415.385
	DW	055H
	DW	019eH
	DD	043d389d9r			; 423.077
	DW	054H
	DW	019eH
	DD	043d76276r			; 430.769
	DW	053H
	DW	019fH
	DD	043db3b14r			; 438.462
	DW	052H
	DW	019fH
	DD	043df13b1r			; 446.154
	DW	051H
	DW	019fH
	DD	043e2ec4fr			; 453.846
	DW	050H
	DW	01a0H
	DD	043e6c4ecr			; 461.538
	DW	04fH
	DW	01a0H
	DD	043ea9d8ar			; 469.231
	DW	04eH
	DW	01a0H
	DD	043ee7627r			; 476.923
	DW	04dH
	DW	01a0H
	DD	043f24ec5r			; 484.615
	DW	04cH
	DW	01a0H
	DD	043f62762r			; 492.308
	DW	04bH
	DW	01a0H
	DD	043fa0000r			; 500
	DW	04aH
	DW	01a0H
	DD	043fd9249r			; 507.143
	DW	049H
	DW	01a0H
	DD	044009249r			; 514.286
	DW	048H
	DW	01a0H
	DD	044025b6er			; 521.429
	DW	047H
	DW	01a0H
	DD	044042492r			; 528.571
	DW	046H
	DW	01a0H
	DD	04405edb7r			; 535.714
	DW	045H
	DW	01a0H
	DD	04407b6dbr			; 542.857
	DW	044H
	DW	019fH
	DD	044098000r			; 550
	DW	043H
	DW	019fH
	DD	0440b4925r			; 557.143
	DW	042H
	DW	019fH
	DD	0440d1249r			; 564.286
	DW	041H
	DW	019eH
	DD	0440edb6er			; 571.429
	DW	040H
	DW	019eH
	DD	04410a492r			; 578.571
	DW	03fH
	DW	019dH
	DD	044126db7r			; 585.714
	DW	03eH
	DW	019cH
	DD	0441436dbr			; 592.857
	DW	03dH
	DW	019cH
	DD	044160000r			; 600
	DW	03cH
	DW	019bH
	DD	0441845d1r			; 609.091
	DW	03bH
	DW	019aH
	DD	0441a8ba3r			; 618.182
	DW	03aH
	DW	0199H
	DD	0441cd174r			; 627.273
	DW	039H
	DW	0198H
	DD	0441f1746r			; 636.364
	DW	038H
	DW	0197H
	DD	044215d17r			; 645.455
	DW	038H
	DW	0196H
	DD	04423a2e9r			; 654.545
	DW	037H
	DW	0195H
	DD	04425e8bar			; 663.636
	DW	037H
	DW	0194H
	DD	044282e8cr			; 672.727
	DW	036H
	DW	0193H
	DD	0442a745dr			; 681.818
	DW	036H
	DW	0192H
	DD	0442cba2fr			; 690.909
	DW	036H
	DW	0191H
	DD	0442f0000r			; 700
	DW	035H
	DW	0190H
	DD	04430c925r			; 707.143
	DW	035H
	DW	018fH
	DD	044329249r			; 714.286
	DW	035H
	DW	018eH
	DD	044345b6er			; 721.429
	DW	035H
	DW	018dH
	DD	044362492r			; 728.571
	DW	034H
	DW	018cH
	DD	04437edb7r			; 735.714
	DW	034H
	DW	018bH
	DD	04439b6dbr			; 742.857
	DW	034H
	DW	018aH
	DD	0443b8000r			; 750
	DW	034H
	DW	0189H
	DD	0443d4925r			; 757.143
	DW	034H
	DW	0188H
	DD	0443f1249r			; 764.286
	DW	035H
	DW	0187H
	DD	04440db6er			; 771.429
	DW	035H
	DW	0186H
	DD	04442a492r			; 778.571
	DW	035H
	DW	0185H
	DD	044446db7r			; 785.714
	DW	035H
	DW	0184H
	DD	0444636dbr			; 792.857
	DW	035H
	DW	0183H
	DD	044480000r			; 800
	DW	036H
	DW	0182H
	DD	0444a45d1r			; 809.091
	DW	036H
	DW	0181H
	DD	0444c8ba3r			; 818.182
	DW	037H
	DW	0180H
	DD	0444ed174r			; 827.273
	DW	037H
	DW	017fH
	DD	044511746r			; 836.364
	DW	038H
	DW	017eH
	DD	044535d17r			; 845.455
	DW	038H
	DW	017dH
	DD	04455a2e9r			; 854.545
	DW	039H
	DW	017cH
	DD	04457e8bar			; 863.636
	DW	03aH
	DW	017bH
	DD	0445a2e8cr			; 872.727
	DW	03bH
	DW	017aH
	DD	0445c745dr			; 881.818
	DW	03cH
	DW	0179H
	DD	0445eba2fr			; 890.909
	DW	03dH
	DW	0178H
	DD	044610000r			; 900
	DW	03eH
	DW	0178H
	DD	04462c925r			; 907.143
	DW	03fH
	DW	0177H
	DD	044649249r			; 914.286
	DW	040H
	DW	0176H
	DD	044665b6er			; 921.429
	DW	041H
	DW	0176H
	DD	044682492r			; 928.571
	DW	042H
	DW	0175H
	DD	04469edb7r			; 935.714
	DW	043H
	DW	0175H
	DD	0446bb6dbr			; 942.857
	DW	044H
	DW	0175H
	DD	0446d8000r			; 950
	DW	045H
	DW	0174H
	DD	0446f4925r			; 957.143
	DW	046H
	DW	0174H
	DD	044711249r			; 964.286
	DW	047H
	DW	0174H
	DD	04472db6er			; 971.429
	DW	048H
	DW	0174H
	DD	04474a492r			; 978.571
	DW	049H
	DW	0174H
	DD	044766db7r			; 985.714
	DW	04aH
	DW	0174H
	DD	0447836dbr			; 992.857
	DW	00H
	DW	00H
	DD	07f7fffffr			; 3.40282e+38
?barometric_altimeter_small_needle_scale_down_20_ahead@@3PAUSCALE_DATA@@A DW 04bH ; barometric_altimeter_small_needle_scale_down_20_ahead
	DW	017dH
	DD	000000000r			; 0
	DW	04cH
	DW	017dH
	DD	042fa0000r			; 125
	DW	04dH
	DW	017dH
	DD	0437a0000r			; 250
	DW	04eH
	DW	017dH
	DD	043bb8000r			; 375
	DW	04fH
	DW	017dH
	DD	043fa0000r			; 500
	DW	050H
	DW	017eH
	DD	0441c4000r			; 625
	DW	051H
	DW	017eH
	DD	0443b8000r			; 750
	DW	052H
	DW	017fH
	DD	0445ac000r			; 875
	DW	053H
	DW	017fH
	DD	0447a0000r			; 1000
	DW	054H
	DW	0180H
	DD	0448edb6er			; 1142.86
	DW	055H
	DW	0181H
	DD	044a0b6dbr			; 1285.71
	DW	056H
	DW	0182H
	DD	044b29249r			; 1428.57
	DW	056H
	DW	0183H
	DD	044c46db7r			; 1571.43
	DW	057H
	DW	0184H
	DD	044d64925r			; 1714.29
	DW	057H
	DW	0185H
	DD	044e82492r			; 1857.14
	DW	058H
	DW	0186H
	DD	044fa0000r			; 2000
	DW	059H
	DW	0187H
	DD	04504d000r			; 2125
	DW	059H
	DW	0188H
	DD	0450ca000r			; 2250
	DW	059H
	DW	0189H
	DD	045147000r			; 2375
	DW	059H
	DW	018aH
	DD	0451c4000r			; 2500
	DW	059H
	DW	018bH
	DD	045241000r			; 2625
	DW	059H
	DW	018cH
	DD	0452be000r			; 2750
	DW	059H
	DW	018dH
	DD	04533b000r			; 2875
	DW	058H
	DW	018eH
	DD	0453b8000r			; 3000
	DW	057H
	DW	018fH
	DD	045446db7r			; 3142.86
	DW	057H
	DW	0190H
	DD	0454d5b6er			; 3285.71
	DW	056H
	DW	0191H
	DD	045564925r			; 3428.57
	DW	056H
	DW	0192H
	DD	0455f36dbr			; 3571.43
	DW	055H
	DW	0193H
	DD	045682492r			; 3714.29
	DW	054H
	DW	0194H
	DD	045711249r			; 3857.14
	DW	053H
	DW	0195H
	DD	0457a0000r			; 4000
	DW	052H
	DW	0195H
	DD	04580e800r			; 4125
	DW	051H
	DW	0196H
	DD	04584d000r			; 4250
	DW	050H
	DW	0196H
	DD	04588b800r			; 4375
	DW	04fH
	DW	0197H
	DD	0458ca000r			; 4500
	DW	04eH
	DW	0197H
	DD	045908800r			; 4625
	DW	04dH
	DW	0197H
	DD	045947000r			; 4750
	DW	04cH
	DW	0197H
	DD	045985800r			; 4875
	DW	04bH
	DW	0197H
	DD	0459c4000r			; 5000
	DW	04aH
	DW	0197H
	DD	045a02800r			; 5125
	DW	049H
	DW	0197H
	DD	045a41000r			; 5250
	DW	048H
	DW	0197H
	DD	045a7f800r			; 5375
	DW	047H
	DW	0197H
	DD	045abe000r			; 5500
	DW	046H
	DW	0197H
	DD	045afc800r			; 5625
	DW	045H
	DW	0196H
	DD	045b3b000r			; 5750
	DW	044H
	DW	0196H
	DD	045b79800r			; 5875
	DW	043H
	DW	0195H
	DD	045bb8000r			; 6000
	DW	042H
	DW	0195H
	DD	045bf6800r			; 6125
	DW	041H
	DW	0194H
	DD	045c35000r			; 6250
	DW	040H
	DW	0193H
	DD	045c73800r			; 6375
	DW	040H
	DW	0192H
	DD	045cb2000r			; 6500
	DW	03fH
	DW	0191H
	DD	045cf0800r			; 6625
	DW	03eH
	DW	0190H
	DD	045d2f000r			; 6750
	DW	03eH
	DW	018fH
	DD	045d6d800r			; 6875
	DW	03eH
	DW	018eH
	DD	045dac000r			; 7000
	DW	03dH
	DW	018dH
	DD	045dea800r			; 7125
	DW	03dH
	DW	018cH
	DD	045e29000r			; 7250
	DW	03dH
	DW	018bH
	DD	045e67800r			; 7375
	DW	03dH
	DW	018aH
	DD	045ea6000r			; 7500
	DW	03dH
	DW	0189H
	DD	045ee4800r			; 7625
	DW	03dH
	DW	0188H
	DD	045f23000r			; 7750
	DW	03dH
	DW	0187H
	DD	045f61800r			; 7875
	DW	03eH
	DW	0186H
	DD	045fa0000r			; 8000
	DW	03eH
	DW	0185H
	DD	045fde800r			; 8125
	DW	03eH
	DW	0184H
	DD	04600e800r			; 8250
	DW	03fH
	DW	0183H
	DD	04602dc00r			; 8375
	DW	040H
	DW	0182H
	DD	04604d000r			; 8500
	DW	040H
	DW	0181H
	DD	04606c400r			; 8625
	DW	041H
	DW	0180H
	DD	04608b800r			; 8750
	DW	042H
	DW	017fH
	DD	0460aac00r			; 8875
	DW	043H
	DW	017fH
	DD	0460ca000r			; 9000
	DW	044H
	DW	017eH
	DD	0460e9400r			; 9125
	DW	045H
	DW	017eH
	DD	046108800r			; 9250
	DW	046H
	DW	017dH
	DD	046127c00r			; 9375
	DW	047H
	DW	017dH
	DD	046147000r			; 9500
	DW	048H
	DW	017dH
	DD	046166400r			; 9625
	DW	049H
	DW	017dH
	DD	046185800r			; 9750
	DW	04aH
	DW	017dH
	DD	0461a4c00r			; 9875
	DW	00H
	DW	00H
	DD	07f7fffffr			; 3.40282e+38
?barometric_altimeter_large_needle_scale_down_20_left_30@@3PAUSCALE_DATA@@A DW 0157H ; barometric_altimeter_large_needle_scale_down_20_left_30
	DW	0155H
	DD	000000000r			; 0
	DW	0158H
	DW	0156H
	DD	041200000r			; 10
	DW	0159H
	DW	0156H
	DD	041a00000r			; 20
	DW	015aH
	DW	0157H
	DD	041f00000r			; 30
	DW	015bH
	DW	0157H
	DD	042200000r			; 40
	DW	015cH
	DW	0158H
	DD	042480000r			; 50
	DW	015dH
	DW	0158H
	DD	042700000r			; 60
	DW	015eH
	DW	0159H
	DD	0428c0000r			; 70
	DW	015fH
	DW	015aH
	DD	042a00000r			; 80
	DW	0160H
	DW	015bH
	DD	042b40000r			; 90
	DW	0161H
	DW	015cH
	DD	042c80000r			; 100
	DW	0162H
	DW	015dH
	DD	042d8aaabr			; 108.333
	DW	0162H
	DW	015eH
	DD	042e95555r			; 116.667
	DW	0163H
	DW	015fH
	DD	042fa0000r			; 125
	DW	0164H
	DW	0160H
	DD	043055555r			; 133.333
	DW	0164H
	DW	0161H
	DD	0430daaabr			; 141.667
	DW	0165H
	DW	0162H
	DD	043160000r			; 150
	DW	0165H
	DW	0163H
	DD	0431e5555r			; 158.333
	DW	0165H
	DW	0164H
	DD	04326aaabr			; 166.667
	DW	0166H
	DW	0165H
	DD	0432f0000r			; 175
	DW	0166H
	DW	0166H
	DD	043375555r			; 183.333
	DW	0166H
	DW	0167H
	DD	0433faaabr			; 191.667
	DW	0166H
	DW	0168H
	DD	043480000r			; 200
	DW	0166H
	DW	0169H
	DD	0434fb13br			; 207.692
	DW	0166H
	DW	016aH
	DD	043576276r			; 215.385
	DW	0166H
	DW	016bH
	DD	0435f13b1r			; 223.077
	DW	0166H
	DW	016cH
	DD	04366c4ecr			; 230.769
	DW	0166H
	DW	016dH
	DD	0436e7627r			; 238.462
	DW	0166H
	DW	016eH
	DD	043762762r			; 246.154
	DW	0166H
	DW	016fH
	DD	0437dd89er			; 253.846
	DW	0166H
	DW	0170H
	DD	04382c4ecr			; 261.538
	DW	0166H
	DW	0171H
	DD	043869d8ar			; 269.231
	DW	0165H
	DW	0172H
	DD	0438a7627r			; 276.923
	DW	0165H
	DW	0173H
	DD	0438e4ec5r			; 284.615
	DW	0164H
	DW	0174H
	DD	043922762r			; 292.308
	DW	0164H
	DW	0175H
	DD	043960000r			; 300
	DW	0163H
	DW	0176H
	DD	0439b8e39r			; 311.111
	DW	0163H
	DW	0177H
	DD	043a11c72r			; 322.222
	DW	0162H
	DW	0178H
	DD	043a6aaabr			; 333.333
	DW	0161H
	DW	0179H
	DD	043ac38e4r			; 344.444
	DW	0160H
	DW	017aH
	DD	043b1c71cr			; 355.556
	DW	015fH
	DW	017bH
	DD	043b75555r			; 366.667
	DW	015eH
	DW	017bH
	DD	043bce38er			; 377.778
	DW	015dH
	DW	017cH
	DD	043c271c7r			; 388.889
	DW	015cH
	DW	017dH
	DD	043c80000r			; 400
	DW	015bH
	DW	017dH
	DD	043cc2aabr			; 408.333
	DW	015aH
	DW	017dH
	DD	043d05555r			; 416.667
	DW	0159H
	DW	017dH
	DD	043d48000r			; 425
	DW	0158H
	DW	017eH
	DD	043d8aaabr			; 433.333
	DW	0157H
	DW	017eH
	DD	043dcd555r			; 441.667
	DW	0156H
	DW	017eH
	DD	043e10000r			; 450
	DW	0155H
	DW	017eH
	DD	043e52aabr			; 458.333
	DW	0154H
	DW	017eH
	DD	043e95555r			; 466.667
	DW	0153H
	DW	017eH
	DD	043ed8000r			; 475
	DW	0152H
	DW	017dH
	DD	043f1aaabr			; 483.333
	DW	0151H
	DW	017dH
	DD	043f5d555r			; 491.667
	DW	0150H
	DW	017dH
	DD	043fa0000r			; 500
	DW	014fH
	DW	017cH
	DD	043ff0000r			; 510
	DW	014eH
	DW	017cH
	DD	044020000r			; 520
	DW	014dH
	DW	017bH
	DD	044048000r			; 530
	DW	014cH
	DW	017bH
	DD	044070000r			; 540
	DW	014bH
	DW	017aH
	DD	044098000r			; 550
	DW	014aH
	DW	0179H
	DD	0440c0000r			; 560
	DW	0149H
	DW	0179H
	DD	0440e8000r			; 570
	DW	0148H
	DW	0178H
	DD	044110000r			; 580
	DW	0148H
	DW	0177H
	DD	044138000r			; 590
	DW	0147H
	DW	0176H
	DD	044160000r			; 600
	DW	0146H
	DW	0175H
	DD	044181555r			; 608.333
	DW	0146H
	DW	0174H
	DD	0441a2aabr			; 616.667
	DW	0145H
	DW	0173H
	DD	0441c4000r			; 625
	DW	0144H
	DW	0172H
	DD	0441e5555r			; 633.333
	DW	0144H
	DW	0171H
	DD	044206aabr			; 641.667
	DW	0144H
	DW	0170H
	DD	044228000r			; 650
	DW	0143H
	DW	016fH
	DD	044249555r			; 658.333
	DW	0143H
	DW	016eH
	DD	04426aaabr			; 666.667
	DW	0143H
	DW	016dH
	DD	04428c000r			; 675
	DW	0142H
	DW	016cH
	DD	0442ad555r			; 683.333
	DW	0142H
	DW	016bH
	DD	0442ceaabr			; 691.667
	DW	0142H
	DW	016aH
	DD	0442f0000r			; 700
	DW	0142H
	DW	0169H
	DD	044311555r			; 708.333
	DW	0142H
	DW	0168H
	DD	044332aabr			; 716.667
	DW	0142H
	DW	0167H
	DD	044354000r			; 725
	DW	0142H
	DW	0166H
	DD	044375555r			; 733.333
	DW	0142H
	DW	0165H
	DD	044396aabr			; 741.667
	DW	0142H
	DW	0164H
	DD	0443b8000r			; 750
	DW	0143H
	DW	0163H
	DD	0443d9555r			; 758.333
	DW	0143H
	DW	0162H
	DD	0443faaabr			; 766.667
	DW	0143H
	DW	0161H
	DD	04441c000r			; 775
	DW	0143H
	DW	0160H
	DD	04443d555r			; 783.333
	DW	0144H
	DW	015fH
	DD	04445eaabr			; 791.667
	DW	0144H
	DW	015eH
	DD	044480000r			; 800
	DW	0145H
	DW	015dH
	DD	0444ac71cr			; 811.111
	DW	0145H
	DW	015cH
	DD	0444d8e39r			; 822.222
	DW	0146H
	DW	015bH
	DD	044505555r			; 833.333
	DW	0147H
	DW	015aH
	DD	044531c72r			; 844.444
	DW	0148H
	DW	0159H
	DD	04455e38er			; 855.556
	DW	0149H
	DW	0158H
	DD	04458aaabr			; 866.667
	DW	014aH
	DW	0157H
	DD	0445b71c7r			; 877.778
	DW	014bH
	DW	0157H
	DD	0445e38e4r			; 888.889
	DW	014cH
	DW	0156H
	DD	044610000r			; 900
	DW	014dH
	DW	0156H
	DD	0446345d1r			; 909.091
	DW	014eH
	DW	0156H
	DD	044658ba3r			; 918.182
	DW	014fH
	DW	0155H
	DD	04467d174r			; 927.273
	DW	0150H
	DW	0155H
	DD	0446a1746r			; 936.364
	DW	0151H
	DW	0155H
	DD	0446c5d17r			; 945.455
	DW	0152H
	DW	0155H
	DD	0446ea2e9r			; 954.545
	DW	0153H
	DW	0155H
	DD	04470e8bar			; 963.636
	DW	0154H
	DW	0155H
	DD	044732e8cr			; 972.727
	DW	0155H
	DW	0155H
	DD	04475745dr			; 981.818
	DW	0156H
	DW	0155H
	DD	04477ba2fr			; 990.909
	DW	00H
	DW	00H
	DD	07f7fffffr			; 3.40282e+38
?barometric_altimeter_small_needle_scale_down_20_left_30@@3PAUSCALE_DATA@@A DW 0156H ; barometric_altimeter_small_needle_scale_down_20_left_30
	DW	015dH
	DD	000000000r			; 0
	DW	0157H
	DW	015eH
	DD	04326aaabr			; 166.667
	DW	0158H
	DW	015eH
	DD	043a6aaabr			; 333.333
	DW	0159H
	DW	015fH
	DD	043fa0000r			; 500
	DW	015aH
	DW	015fH
	DD	04426aaabr			; 666.667
	DW	015bH
	DW	0160H
	DD	044505555r			; 833.333
	DW	015cH
	DW	0161H
	DD	0447a0000r			; 1000
	DW	015cH
	DW	0162H
	DD	0448edb6er			; 1142.86
	DW	015dH
	DW	0163H
	DD	044a0b6dbr			; 1285.71
	DW	015eH
	DW	0164H
	DD	044b29249r			; 1428.57
	DW	015eH
	DW	0165H
	DD	044c46db7r			; 1571.43
	DW	015eH
	DW	0166H
	DD	044d64925r			; 1714.29
	DW	015fH
	DW	0167H
	DD	044e82492r			; 1857.14
	DW	015fH
	DW	0168H
	DD	044fa0000r			; 2000
	DW	015fH
	DW	0169H
	DD	04504d000r			; 2125
	DW	015fH
	DW	016aH
	DD	0450ca000r			; 2250
	DW	015fH
	DW	016bH
	DD	045147000r			; 2375
	DW	015fH
	DW	016cH
	DD	0451c4000r			; 2500
	DW	015fH
	DW	016dH
	DD	045241000r			; 2625
	DW	015eH
	DW	016eH
	DD	0452be000r			; 2750
	DW	015eH
	DW	016fH
	DD	04533b000r			; 2875
	DW	015eH
	DW	0170H
	DD	0453b8000r			; 3000
	DW	015dH
	DW	0171H
	DD	04545eaabr			; 3166.67
	DW	015dH
	DW	0172H
	DD	045505555r			; 3333.33
	DW	015cH
	DW	0173H
	DD	0455ac000r			; 3500
	DW	015bH
	DW	0174H
	DD	045652aabr			; 3666.67
	DW	015aH
	DW	0174H
	DD	0456f9555r			; 3833.33
	DW	0159H
	DW	0175H
	DD	0457a0000r			; 4000
	DW	0158H
	DW	0175H
	DD	0458176dbr			; 4142.86
	DW	0157H
	DW	0175H
	DD	04585edb7r			; 4285.71
	DW	0156H
	DW	0176H
	DD	0458a6492r			; 4428.57
	DW	0155H
	DW	0176H
	DD	0458edb6er			; 4571.43
	DW	0154H
	DW	0176H
	DD	045935249r			; 4714.29
	DW	0153H
	DW	0176H
	DD	04597c925r			; 4857.14
	DW	0152H
	DW	0175H
	DD	0459c4000r			; 5000
	DW	0151H
	DW	0175H
	DD	045a17555r			; 5166.67
	DW	0150H
	DW	0175H
	DD	045a6aaabr			; 5333.33
	DW	014fH
	DW	0174H
	DD	045abe000r			; 5500
	DW	014eH
	DW	0173H
	DD	045b11555r			; 5666.67
	DW	014dH
	DW	0172H
	DD	045b64aabr			; 5833.33
	DW	014cH
	DW	0171H
	DD	045bb8000r			; 6000
	DW	014bH
	DW	0170H
	DD	045bff6dbr			; 6142.86
	DW	014bH
	DW	016fH
	DD	045c46db7r			; 6285.71
	DW	014aH
	DW	016eH
	DD	045c8e492r			; 6428.57
	DW	014aH
	DW	016dH
	DD	045cd5b6er			; 6571.43
	DW	014aH
	DW	016cH
	DD	045d1d249r			; 6714.29
	DW	0149H
	DW	016bH
	DD	045d64925r			; 6857.14
	DW	0149H
	DW	016aH
	DD	045dac000r			; 7000
	DW	0149H
	DW	0169H
	DD	045dea800r			; 7125
	DW	0149H
	DW	0168H
	DD	045e29000r			; 7250
	DW	0149H
	DW	0167H
	DD	045e67800r			; 7375
	DW	0149H
	DW	0166H
	DD	045ea6000r			; 7500
	DW	0149H
	DW	0165H
	DD	045ee4800r			; 7625
	DW	014aH
	DW	0164H
	DD	045f23000r			; 7750
	DW	014aH
	DW	0163H
	DD	045f61800r			; 7875
	DW	014aH
	DW	0162H
	DD	045fa0000r			; 8000
	DW	014bH
	DW	0161H
	DD	046002000r			; 8200
	DW	014cH
	DW	0160H
	DD	046034000r			; 8400
	DW	014dH
	DW	015fH
	DD	046066000r			; 8600
	DW	014eH
	DW	015eH
	DD	046098000r			; 8800
	DW	014fH
	DW	015dH
	DD	0460ca000r			; 9000
	DW	0150H
	DW	015dH
	DD	0460edb6er			; 9142.86
	DW	0151H
	DW	015dH
	DD	0461116dbr			; 9285.71
	DW	0152H
	DW	015dH
	DD	046135249r			; 9428.57
	DW	0153H
	DW	015dH
	DD	046158db7r			; 9571.43
	DW	0154H
	DW	015dH
	DD	04617c925r			; 9714.29
	DW	0155H
	DW	015dH
	DD	0461a0492r			; 9857.14
	DW	00H
	DW	00H
	DD	07f7fffffr			; 3.40282e+38
?barometric_altimeter_large_needle_scale_down_20_left_60@@3PAUSCALE_DATA@@A DW 026fH ; barometric_altimeter_large_needle_scale_down_20_left_60
	DW	0183H
	DD	000000000r			; 0
	DW	0270H
	DW	0184H
	DD	040e49249r			; 7.14286
	DW	0271H
	DW	0184H
	DD	041649249r			; 14.2857
	DW	0272H
	DW	0185H
	DD	041ab6db7r			; 21.4286
	DW	0273H
	DW	0186H
	DD	041e49249r			; 28.5714
	DW	0274H
	DW	0186H
	DD	0420edb6er			; 35.7143
	DW	0275H
	DW	0187H
	DD	0422b6db7r			; 42.8571
	DW	0276H
	DW	0188H
	DD	042480000r			; 50
	DW	0277H
	DW	0189H
	DD	042649249r			; 57.1429
	DW	0278H
	DW	018aH
	DD	042809249r			; 64.2857
	DW	0279H
	DW	018bH
	DD	0428edb6er			; 71.4286
	DW	0279H
	DW	018cH
	DD	0429d2492r			; 78.5714
	DW	027aH
	DW	018dH
	DD	042ab6db7r			; 85.7143
	DW	027bH
	DW	018eH
	DD	042b9b6dbr			; 92.8571
	DW	027bH
	DW	018fH
	DD	042c80000r			; 100
	DW	027cH
	DW	0190H
	DD	042d55555r			; 106.667
	DW	027cH
	DW	0191H
	DD	042e2aaabr			; 113.333
	DW	027dH
	DW	0192H
	DD	042f00000r			; 120
	DW	027dH
	DW	0193H
	DD	042fd5555r			; 126.667
	DW	027dH
	DW	0194H
	DD	043055555r			; 133.333
	DW	027eH
	DW	0195H
	DD	0430c0000r			; 140
	DW	027eH
	DW	0196H
	DD	04312aaabr			; 146.667
	DW	027eH
	DW	0197H
	DD	043195555r			; 153.333
	DW	027eH
	DW	0198H
	DD	043200000r			; 160
	DW	027eH
	DW	0199H
	DD	04326aaabr			; 166.667
	DW	027eH
	DW	019aH
	DD	0432d5555r			; 173.333
	DW	027fH
	DW	019bH
	DD	043340000r			; 180
	DW	027fH
	DW	019cH
	DD	0433aaaabr			; 186.667
	DW	027fH
	DW	019dH
	DD	043415555r			; 193.333
	DW	027fH
	DW	019eH
	DD	043480000r			; 200
	DW	027eH
	DW	019fH
	DD	0434fb13br			; 207.692
	DW	027eH
	DW	01a0H
	DD	043576276r			; 215.385
	DW	027eH
	DW	01a1H
	DD	0435f13b1r			; 223.077
	DW	027eH
	DW	01a2H
	DD	04366c4ecr			; 230.769
	DW	027eH
	DW	01a3H
	DD	0436e7627r			; 238.462
	DW	027dH
	DW	01a4H
	DD	043762762r			; 246.154
	DW	027dH
	DW	01a5H
	DD	0437dd89er			; 253.846
	DW	027cH
	DW	01a6H
	DD	04382c4ecr			; 261.538
	DW	027cH
	DW	01a7H
	DD	043869d8ar			; 269.231
	DW	027bH
	DW	01a8H
	DD	0438a7627r			; 276.923
	DW	027bH
	DW	01a9H
	DD	0438e4ec5r			; 284.615
	DW	027aH
	DW	01aaH
	DD	043922762r			; 292.308
	DW	0279H
	DW	01abH
	DD	043960000r			; 300
	DW	0278H
	DW	01acH
	DD	04399d89er			; 307.692
	DW	0277H
	DW	01adH
	DD	0439db13br			; 315.385
	DW	0276H
	DW	01adH
	DD	043a189d9r			; 323.077
	DW	0275H
	DW	01aeH
	DD	043a56276r			; 330.769
	DW	0274H
	DW	01afH
	DD	043a93b14r			; 338.462
	DW	0273H
	DW	01afH
	DD	043ad13b1r			; 346.154
	DW	0272H
	DW	01afH
	DD	043b0ec4fr			; 353.846
	DW	0271H
	DW	01b0H
	DD	043b4c4ecr			; 361.538
	DW	0270H
	DW	01b0H
	DD	043b89d8ar			; 369.231
	DW	026fH
	DW	01b0H
	DD	043bc7627r			; 376.923
	DW	026eH
	DW	01b0H
	DD	043c04ec5r			; 384.615
	DW	026dH
	DW	01b0H
	DD	043c42762r			; 392.308
	DW	026cH
	DW	01b1H
	DD	043c80000r			; 400
	DW	026bH
	DW	01b1H
	DD	043cb9249r			; 407.143
	DW	026aH
	DW	01b1H
	DD	043cf2492r			; 414.286
	DW	0269H
	DW	01b0H
	DD	043d2b6dbr			; 421.429
	DW	0268H
	DW	01b0H
	DD	043d64925r			; 428.571
	DW	0267H
	DW	01b0H
	DD	043d9db6er			; 435.714
	DW	0266H
	DW	01b0H
	DD	043dd6db7r			; 442.857
	DW	0265H
	DW	01b0H
	DD	043e10000r			; 450
	DW	0264H
	DW	01b0H
	DD	043e49249r			; 457.143
	DW	0263H
	DW	01afH
	DD	043e82492r			; 464.286
	DW	0262H
	DW	01afH
	DD	043ebb6dbr			; 471.429
	DW	0261H
	DW	01aeH
	DD	043ef4925r			; 478.571
	DW	0260H
	DW	01aeH
	DD	043f2db6er			; 485.714
	DW	025fH
	DW	01adH
	DD	043f66db7r			; 492.857
	DW	025eH
	DW	01adH
	DD	043fa0000r			; 500
	DW	025dH
	DW	01acH
	DD	043fdd89er			; 507.692
	DW	025cH
	DW	01acH
	DD	04400d89er			; 515.385
	DW	025bH
	DW	01abH
	DD	04402c4ecr			; 523.077
	DW	025aH
	DW	01aaH
	DD	04404b13br			; 530.769
	DW	0259H
	DW	01a9H
	DD	044069d8ar			; 538.462
	DW	0258H
	DW	01a8H
	DD	0440889d9r			; 546.154
	DW	0257H
	DW	01a7H
	DD	0440a7627r			; 553.846
	DW	0256H
	DW	01a6H
	DD	0440c6276r			; 561.538
	DW	0255H
	DW	01a5H
	DD	0440e4ec5r			; 569.231
	DW	0255H
	DW	01a4H
	DD	044103b14r			; 576.923
	DW	0254H
	DW	01a3H
	DD	044122762r			; 584.615
	DW	0254H
	DW	01a2H
	DD	0441413b1r			; 592.308
	DW	0253H
	DW	01a1H
	DD	044160000r			; 600
	DW	0252H
	DW	01a0H
	DD	04417c925r			; 607.143
	DW	0252H
	DW	019fH
	DD	044199249r			; 614.286
	DW	0252H
	DW	019eH
	DD	0441b5b6er			; 621.429
	DW	0251H
	DW	019dH
	DD	0441d2492r			; 628.571
	DW	0251H
	DW	019cH
	DD	0441eedb7r			; 635.714
	DW	0251H
	DW	019bH
	DD	04420b6dbr			; 642.857
	DW	0250H
	DW	019aH
	DD	044228000r			; 650
	DW	0250H
	DW	0199H
	DD	044244925r			; 657.143
	DW	0250H
	DW	0198H
	DD	044261249r			; 664.286
	DW	0250H
	DW	0197H
	DD	04427db6er			; 671.429
	DW	0250H
	DW	0196H
	DD	04429a492r			; 678.571
	DW	0250H
	DW	0195H
	DD	0442b6db7r			; 685.714
	DW	0250H
	DW	0194H
	DD	0442d36dbr			; 692.857
	DW	0250H
	DW	0193H
	DD	0442f0000r			; 700
	DW	0250H
	DW	0192H
	DD	04430ec4fr			; 707.692
	DW	0250H
	DW	0191H
	DD	04432d89er			; 715.385
	DW	0250H
	DW	0190H
	DD	04434c4ecr			; 723.077
	DW	0251H
	DW	018fH
	DD	04436b13br			; 730.769
	DW	0251H
	DW	018eH
	DD	044389d8ar			; 738.462
	DW	0251H
	DW	018dH
	DD	0443a89d9r			; 746.154
	DW	0251H
	DW	018cH
	DD	0443c7627r			; 753.846
	DW	0252H
	DW	018bH
	DD	0443e6276r			; 761.538
	DW	0252H
	DW	018aH
	DD	044404ec5r			; 769.231
	DW	0253H
	DW	0189H
	DD	044423b14r			; 776.923
	DW	0254H
	DW	0188H
	DD	044442762r			; 784.615
	DW	0254H
	DW	0187H
	DD	0444613b1r			; 792.308
	DW	0255H
	DW	0186H
	DD	044480000r			; 800
	DW	0256H
	DW	0185H
	DD	0444a1555r			; 808.333
	DW	0257H
	DW	0184H
	DD	0444c2aabr			; 816.667
	DW	0258H
	DW	0184H
	DD	0444e4000r			; 825
	DW	0259H
	DW	0183H
	DD	044505555r			; 833.333
	DW	025aH
	DW	0182H
	DD	044526aabr			; 841.667
	DW	025bH
	DW	0182H
	DD	044548000r			; 850
	DW	025cH
	DW	0181H
	DD	044569555r			; 858.333
	DW	025dH
	DW	0181H
	DD	04458aaabr			; 866.667
	DW	025eH
	DW	0181H
	DD	0445ac000r			; 875
	DW	025fH
	DW	0181H
	DD	0445cd555r			; 883.333
	DW	0260H
	DW	0180H
	DD	0445eeaabr			; 891.667
	DW	0261H
	DW	0180H
	DD	044610000r			; 900
	DW	0262H
	DW	0180H
	DD	04462c925r			; 907.143
	DW	0263H
	DW	0180H
	DD	044649249r			; 914.286
	DW	0264H
	DW	0180H
	DD	044665b6er			; 921.429
	DW	0265H
	DW	0180H
	DD	044682492r			; 928.571
	DW	0266H
	DW	0180H
	DD	04469edb7r			; 935.714
	DW	0267H
	DW	0180H
	DD	0446bb6dbr			; 942.857
	DW	0268H
	DW	0181H
	DD	0446d8000r			; 950
	DW	0269H
	DW	0181H
	DD	0446f4925r			; 957.143
	DW	026aH
	DW	0181H
	DD	044711249r			; 964.286
	DW	026bH
	DW	0181H
	DD	04472db6er			; 971.429
	DW	026cH
	DW	0182H
	DD	04474a492r			; 978.571
	DW	026dH
	DW	0182H
	DD	044766db7r			; 985.714
	DW	026eH
	DW	0183H
	DD	0447836dbr			; 992.857
	DW	00H
	DW	00H
	DD	07f7fffffr			; 3.40282e+38
?barometric_altimeter_small_needle_scale_down_20_left_60@@3PAUSCALE_DATA@@A DW 026bH ; barometric_altimeter_small_needle_scale_down_20_left_60
	DW	018bH
	DD	000000000r			; 0
	DW	026cH
	DW	018cH
	DD	042fa0000r			; 125
	DW	026dH
	DW	018cH
	DD	0437a0000r			; 250
	DW	026eH
	DW	018dH
	DD	043bb8000r			; 375
	DW	026fH
	DW	018eH
	DD	043fa0000r			; 500
	DW	0270H
	DW	018fH
	DD	0441c4000r			; 625
	DW	0271H
	DW	0190H
	DD	0443b8000r			; 750
	DW	0272H
	DW	0191H
	DD	0445ac000r			; 875
	DW	0273H
	DW	0192H
	DD	0447a0000r			; 1000
	DW	0273H
	DW	0193H
	DD	0448ae38er			; 1111.11
	DW	0274H
	DW	0194H
	DD	04498c71cr			; 1222.22
	DW	0274H
	DW	0195H
	DD	044a6aaabr			; 1333.33
	DW	0274H
	DW	0196H
	DD	044b48e39r			; 1444.44
	DW	0275H
	DW	0197H
	DD	044c271c7r			; 1555.56
	DW	0275H
	DW	0198H
	DD	044d05555r			; 1666.67
	DW	0275H
	DW	0199H
	DD	044de38e4r			; 1777.78
	DW	0275H
	DW	019aH
	DD	044ec1c72r			; 1888.89
	DW	0275H
	DW	019bH
	DD	044fa0000r			; 2000
	DW	0275H
	DW	019cH
	DD	04504d000r			; 2125
	DW	0275H
	DW	019dH
	DD	0450ca000r			; 2250
	DW	0275H
	DW	019eH
	DD	045147000r			; 2375
	DW	0274H
	DW	019fH
	DD	0451c4000r			; 2500
	DW	0274H
	DW	01a0H
	DD	045241000r			; 2625
	DW	0273H
	DW	01a1H
	DD	0452be000r			; 2750
	DW	0272H
	DW	01a2H
	DD	04533b000r			; 2875
	DW	0271H
	DW	01a3H
	DD	0453b8000r			; 3000
	DW	0271H
	DW	01a4H
	DD	045435000r			; 3125
	DW	0270H
	DW	01a5H
	DD	0454b2000r			; 3250
	DW	026fH
	DW	01a5H
	DD	04552f000r			; 3375
	DW	026eH
	DW	01a6H
	DD	0455ac000r			; 3500
	DW	026dH
	DW	01a6H
	DD	045629000r			; 3625
	DW	026cH
	DW	01a7H
	DD	0456a6000r			; 3750
	DW	026bH
	DW	01a7H
	DD	045723000r			; 3875
	DW	026aH
	DW	01a7H
	DD	0457a0000r			; 4000
	DW	0269H
	DW	01a7H
	DD	0458078e4r			; 4111.11
	DW	0268H
	DW	01a7H
	DD	04583f1c7r			; 4222.22
	DW	0267H
	DW	01a7H
	DD	045876aabr			; 4333.33
	DW	0266H
	DW	01a7H
	DD	0458ae38er			; 4444.44
	DW	0265H
	DW	01a6H
	DD	0458e5c72r			; 4555.56
	DW	0264H
	DW	01a6H
	DD	04591d555r			; 4666.67
	DW	0263H
	DW	01a6H
	DD	045954e39r			; 4777.78
	DW	0262H
	DW	01a5H
	DD	04598c71cr			; 4888.89
	DW	0261H
	DW	01a5H
	DD	0459c4000r			; 5000
	DW	0260H
	DW	01a4H
	DD	045a02800r			; 5125
	DW	025fH
	DW	01a3H
	DD	045a41000r			; 5250
	DW	025eH
	DW	01a2H
	DD	045a7f800r			; 5375
	DW	025dH
	DW	01a1H
	DD	045abe000r			; 5500
	DW	025cH
	DW	01a0H
	DD	045afc800r			; 5625
	DW	025bH
	DW	019fH
	DD	045b3b000r			; 5750
	DW	025bH
	DW	019eH
	DD	045b79800r			; 5875
	DW	025aH
	DW	019dH
	DD	045bb8000r			; 6000
	DW	025aH
	DW	019cH
	DD	045bf6800r			; 6125
	DW	0259H
	DW	019bH
	DD	045c35000r			; 6250
	DW	0259H
	DW	019aH
	DD	045c73800r			; 6375
	DW	0259H
	DW	0199H
	DD	045cb2000r			; 6500
	DW	0259H
	DW	0198H
	DD	045cf0800r			; 6625
	DW	0259H
	DW	0197H
	DD	045d2f000r			; 6750
	DW	0259H
	DW	0196H
	DD	045d6d800r			; 6875
	DW	0259H
	DW	0195H
	DD	045dac000r			; 7000
	DW	0259H
	DW	0194H
	DD	045dea800r			; 7125
	DW	0259H
	DW	0193H
	DD	045e29000r			; 7250
	DW	0259H
	DW	0192H
	DD	045e67800r			; 7375
	DW	0259H
	DW	0191H
	DD	045ea6000r			; 7500
	DW	025aH
	DW	0190H
	DD	045ee4800r			; 7625
	DW	025aH
	DW	018fH
	DD	045f23000r			; 7750
	DW	025bH
	DW	018eH
	DD	045f61800r			; 7875
	DW	025cH
	DW	018dH
	DD	045fa0000r			; 8000
	DW	025dH
	DW	018cH
	DD	045fe76dbr			; 8142.86
	DW	025eH
	DW	018bH
	DD	0460176dbr			; 8285.71
	DW	025fH
	DW	018bH
	DD	04603b249r			; 8428.57
	DW	0260H
	DW	018aH
	DD	04605edb7r			; 8571.43
	DW	0261H
	DW	018aH
	DD	046082925r			; 8714.29
	DW	0262H
	DW	018aH
	DD	0460a6492r			; 8857.14
	DW	0263H
	DW	0189H
	DD	0460ca000r			; 9000
	DW	0264H
	DW	0189H
	DD	0460e9400r			; 9125
	DW	0265H
	DW	0189H
	DD	046108800r			; 9250
	DW	0266H
	DW	018aH
	DD	046127c00r			; 9375
	DW	0267H
	DW	018aH
	DD	046147000r			; 9500
	DW	0268H
	DW	018aH
	DD	046166400r			; 9625
	DW	0269H
	DW	018aH
	DD	046185800r			; 9750
	DW	026aH
	DW	018bH
	DD	0461a4c00r			; 9875
	DW	00H
	DW	00H
	DD	07f7fffffr			; 3.40282e+38
?clock_large_hand_scale_down_20_ahead@@3PAUSCALE_DATA@@A DW 0122H ; clock_large_hand_scale_down_20_ahead
	DW	01a2H
	DD	000000000r			; 0
	DW	0123H
	DW	01a2H
	DD	03f0e38e4r			; 0.555556
	DW	0124H
	DW	01a2H
	DD	03f8e38e4r			; 1.11111
	DW	0125H
	DW	01a3H
	DD	03fd55555r			; 1.66667
	DW	0126H
	DW	01a3H
	DD	0400e38e4r			; 2.22222
	DW	0127H
	DW	01a3H
	DD	04031c71cr			; 2.77778
	DW	0128H
	DW	01a3H
	DD	040555555r			; 3.33333
	DW	0129H
	DW	01a4H
	DD	04078e38er			; 3.88889
	DW	012aH
	DW	01a4H
	DD	0408e38e4r			; 4.44444
	DW	012bH
	DW	01a5H
	DD	040a00000r			; 5
	DW	012cH
	DW	01a5H
	DD	040b6db6er			; 5.71429
	DW	012dH
	DW	01a6H
	DD	040cdb6dbr			; 6.42857
	DW	012eH
	DW	01a7H
	DD	040e49249r			; 7.14286
	DW	012fH
	DW	01a8H
	DD	040fb6db7r			; 7.85714
	DW	0130H
	DW	01a9H
	DD	041092492r			; 8.57143
	DW	0131H
	DW	01aaH
	DD	041149249r			; 9.28571
	DW	0131H
	DW	01abH
	DD	041200000r			; 10
	DW	0132H
	DW	01acH
	DD	04128e38er			; 10.5556
	DW	0132H
	DW	01adH
	DD	04131c71cr			; 11.1111
	DW	0133H
	DW	01aeH
	DD	0413aaaabr			; 11.6667
	DW	0133H
	DW	01afH
	DD	041438e39r			; 12.2222
	DW	0133H
	DW	01b0H
	DD	0414c71c7r			; 12.7778
	DW	0133H
	DW	01b1H
	DD	041555555r			; 13.3333
	DW	0133H
	DW	01b2H
	DD	0415e38e4r			; 13.8889
	DW	0133H
	DW	01b3H
	DD	041671c72r			; 14.4444
	DW	0133H
	DW	01b4H
	DD	041700000r			; 15
	DW	0133H
	DW	01b5H
	DD	0417a0000r			; 15.625
	DW	0133H
	DW	01b6H
	DD	041820000r			; 16.25
	DW	0133H
	DW	01b7H
	DD	041870000r			; 16.875
	DW	0133H
	DW	01b8H
	DD	0418c0000r			; 17.5
	DW	0133H
	DW	01b9H
	DD	041910000r			; 18.125
	DW	0132H
	DW	01baH
	DD	041960000r			; 18.75
	DW	0132H
	DW	01bbH
	DD	0419b0000r			; 19.375
	DW	0131H
	DW	01bcH
	DD	041a00000r			; 20
	DW	0131H
	DW	01bdH
	DD	041a5b6dbr			; 20.7143
	DW	0130H
	DW	01beH
	DD	041ab6db7r			; 21.4286
	DW	012fH
	DW	01bfH
	DD	041b12492r			; 22.1429
	DW	012eH
	DW	01c0H
	DD	041b6db6er			; 22.8571
	DW	012dH
	DW	01c1H
	DD	041bc9249r			; 23.5714
	DW	012cH
	DW	01c2H
	DD	041c24925r			; 24.2857
	DW	012bH
	DW	01c3H
	DD	041c80000r			; 25
	DW	012aH
	DW	01c3H
	DD	041cc71c7r			; 25.5556
	DW	0129H
	DW	01c4H
	DD	041d0e38er			; 26.1111
	DW	0128H
	DW	01c4H
	DD	041d55555r			; 26.6667
	DW	0127H
	DW	01c4H
	DD	041d9c71cr			; 27.2222
	DW	0126H
	DW	01c4H
	DD	041de38e4r			; 27.7778
	DW	0125H
	DW	01c5H
	DD	041e2aaabr			; 28.3333
	DW	0124H
	DW	01c5H
	DD	041e71c72r			; 28.8889
	DW	0123H
	DW	01c5H
	DD	041eb8e39r			; 29.4444
	DW	0122H
	DW	01c5H
	DD	041f00000r			; 30
	DW	0121H
	DW	01c5H
	DD	041f471c7r			; 30.5556
	DW	0120H
	DW	01c5H
	DD	041f8e38er			; 31.1111
	DW	011fH
	DW	01c5H
	DD	041fd5555r			; 31.6667
	DW	011eH
	DW	01c4H
	DD	04200e38er			; 32.2222
	DW	011dH
	DW	01c4H
	DD	042031c72r			; 32.7778
	DW	011cH
	DW	01c4H
	DD	042055555r			; 33.3333
	DW	011bH
	DW	01c3H
	DD	042078e39r			; 33.8889
	DW	011aH
	DW	01c3H
	DD	04209c71cr			; 34.4444
	DW	0119H
	DW	01c2H
	DD	0420c0000r			; 35
	DW	0118H
	DW	01c2H
	DD	0420edb6er			; 35.7143
	DW	0117H
	DW	01c1H
	DD	04211b6dbr			; 36.4286
	DW	0116H
	DW	01c0H
	DD	042149249r			; 37.1429
	DW	0115H
	DW	01bfH
	DD	042176db7r			; 37.8571
	DW	0114H
	DW	01beH
	DD	0421a4925r			; 38.5714
	DW	0114H
	DW	01bdH
	DD	0421d2492r			; 39.2857
	DW	0113H
	DW	01bcH
	DD	042200000r			; 40
	DW	0113H
	DW	01bbH
	DD	042228000r			; 40.625
	DW	0112H
	DW	01baH
	DD	042250000r			; 41.25
	DW	0112H
	DW	01b9H
	DD	042278000r			; 41.875
	DW	0112H
	DW	01b8H
	DD	0422a0000r			; 42.5
	DW	0111H
	DW	01b7H
	DD	0422c8000r			; 43.125
	DW	0111H
	DW	01b6H
	DD	0422f0000r			; 43.75
	DW	0111H
	DW	01b5H
	DD	042318000r			; 44.375
	DW	0111H
	DW	01b4H
	DD	042340000r			; 45
	DW	0111H
	DW	01b3H
	DD	0423638e4r			; 45.5556
	DW	0111H
	DW	01b2H
	DD	0423871c7r			; 46.1111
	DW	0111H
	DW	01b1H
	DD	0423aaaabr			; 46.6667
	DW	0111H
	DW	01b0H
	DD	0423ce38er			; 47.2222
	DW	0112H
	DW	01afH
	DD	0423f1c72r			; 47.7778
	DW	0112H
	DW	01aeH
	DD	042415555r			; 48.3333
	DW	0112H
	DW	01adH
	DD	042438e39r			; 48.8889
	DW	0113H
	DW	01acH
	DD	04245c71cr			; 49.4444
	DW	0113H
	DW	01abH
	DD	042480000r			; 50
	DW	0114H
	DW	01aaH
	DD	0424adb6er			; 50.7143
	DW	0114H
	DW	01a9H
	DD	0424db6dbr			; 51.4286
	DW	0115H
	DW	01a8H
	DD	042509249r			; 52.1429
	DW	0116H
	DW	01a7H
	DD	042536db7r			; 52.8571
	DW	0117H
	DW	01a6H
	DD	042564925r			; 53.5714
	DW	0118H
	DW	01a6H
	DD	042592492r			; 54.2857
	DW	0119H
	DW	01a5H
	DD	0425c0000r			; 55
	DW	011aH
	DW	01a4H
	DD	0425e38e4r			; 55.5556
	DW	011bH
	DW	01a4H
	DD	0426071c7r			; 56.1111
	DW	011cH
	DW	01a3H
	DD	04262aaabr			; 56.6667
	DW	011dH
	DW	01a3H
	DD	04264e38er			; 57.2222
	DW	011eH
	DW	01a3H
	DD	042671c72r			; 57.7778
	DW	011fH
	DW	01a3H
	DD	042695555r			; 58.3333
	DW	0120H
	DW	01a2H
	DD	0426b8e39r			; 58.8889
	DW	0121H
	DW	01a2H
	DD	0426dc71cr			; 59.4444
	DW	00H
	DW	00H
	DD	07f7fffffr			; 3.40282e+38
?clock_small_hand_scale_down_20_ahead@@3PAUSCALE_DATA@@A DW 0122H ; clock_small_hand_scale_down_20_ahead
	DW	01a8H
	DD	000000000r			; 0
	DW	0123H
	DW	01a8H
	DD	03e124925r			; 0.142857
	DW	0124H
	DW	01a8H
	DD	03e924925r			; 0.285714
	DW	0125H
	DW	01a8H
	DD	03edb6db7r			; 0.428571
	DW	0126H
	DW	01a8H
	DD	03f124925r			; 0.571429
	DW	0127H
	DW	01a9H
	DD	03f36db6er			; 0.714286
	DW	0128H
	DW	01a9H
	DD	03f5b6db7r			; 0.857143
	DW	0129H
	DW	01a9H
	DD	03f800000r			; 1
	DW	012aH
	DW	01aaH
	DD	03fa00000r			; 1.25
	DW	012bH
	DW	01abH
	DD	03fc00000r			; 1.5
	DW	012cH
	DW	01acH
	DD	03fe00000r			; 1.75
	DW	012dH
	DW	01adH
	DD	040000000r			; 2
	DW	012dH
	DW	01aeH
	DD	040092492r			; 2.14286
	DW	012dH
	DW	01afH
	DD	040124925r			; 2.28571
	DW	012eH
	DW	01b0H
	DD	0401b6db7r			; 2.42857
	DW	012eH
	DW	01b1H
	DD	040249249r			; 2.57143
	DW	012eH
	DW	01b2H
	DD	0402db6dbr			; 2.71429
	DW	012eH
	DW	01b3H
	DD	04036db6er			; 2.85714
	DW	012eH
	DW	01b4H
	DD	040400000r			; 3
	DW	012eH
	DW	01b5H
	DD	0404aaaabr			; 3.16667
	DW	012eH
	DW	01b6H
	DD	040555555r			; 3.33333
	DW	012eH
	DW	01b7H
	DD	040600000r			; 3.5
	DW	012dH
	DW	01b8H
	DD	0406aaaabr			; 3.66667
	DW	012dH
	DW	01b9H
	DD	040755555r			; 3.83333
	DW	012dH
	DW	01baH
	DD	040800000r			; 4
	DW	012cH
	DW	01bbH
	DD	040866666r			; 4.2
	DW	012bH
	DW	01bcH
	DD	0408ccccdr			; 4.4
	DW	012aH
	DW	01bdH
	DD	040933333r			; 4.6
	DW	0129H
	DW	01beH
	DD	04099999ar			; 4.8
	DW	0128H
	DW	01beH
	DD	040a00000r			; 5
	DW	0127H
	DW	01bfH
	DD	040a55555r			; 5.16667
	DW	0126H
	DW	01bfH
	DD	040aaaaabr			; 5.33333
	DW	0125H
	DW	01bfH
	DD	040b00000r			; 5.5
	DW	0124H
	DW	01bfH
	DD	040b55555r			; 5.66667
	DW	0123H
	DW	01c0H
	DD	040baaaabr			; 5.83333
	DW	0122H
	DW	01c0H
	DD	040c00000r			; 6
	DW	0121H
	DW	01c0H
	DD	040c55555r			; 6.16667
	DW	0120H
	DW	01bfH
	DD	040caaaabr			; 6.33333
	DW	011fH
	DW	01bfH
	DD	040d00000r			; 6.5
	DW	011eH
	DW	01bfH
	DD	040d55555r			; 6.66667
	DW	011dH
	DW	01beH
	DD	040daaaabr			; 6.83333
	DW	011cH
	DW	01beH
	DD	040e00000r			; 7
	DW	011bH
	DW	01bdH
	DD	040e80000r			; 7.25
	DW	011aH
	DW	01bcH
	DD	040f00000r			; 7.5
	DW	0119H
	DW	01bbH
	DD	040f80000r			; 7.75
	DW	0118H
	DW	01baH
	DD	041000000r			; 8
	DW	0118H
	DW	01b9H
	DD	04102aaabr			; 8.16667
	DW	0117H
	DW	01b8H
	DD	041055555r			; 8.33333
	DW	0117H
	DW	01b7H
	DD	041080000r			; 8.5
	DW	0117H
	DW	01b6H
	DD	0410aaaabr			; 8.66667
	DW	0116H
	DW	01b5H
	DD	0410d5555r			; 8.83333
	DW	0116H
	DW	01b4H
	DD	041100000r			; 9
	DW	0116H
	DW	01b3H
	DD	04112aaabr			; 9.16667
	DW	0116H
	DW	01b2H
	DD	041155555r			; 9.33333
	DW	0117H
	DW	01b1H
	DD	041180000r			; 9.5
	DW	0117H
	DW	01b0H
	DD	0411aaaabr			; 9.66667
	DW	0117H
	DW	01afH
	DD	0411d5555r			; 9.83333
	DW	0118H
	DW	01aeH
	DD	041200000r			; 10
	DW	0118H
	DW	01adH
	DD	041233333r			; 10.2
	DW	0119H
	DW	01acH
	DD	041266666r			; 10.4
	DW	011aH
	DW	01abH
	DD	04129999ar			; 10.6
	DW	011bH
	DW	01aaH
	DD	0412ccccdr			; 10.8
	DW	011cH
	DW	01a9H
	DD	041300000r			; 11
	DW	011dH
	DW	01a9H
	DD	04132aaabr			; 11.1667
	DW	011eH
	DW	01a8H
	DD	041355555r			; 11.3333
	DW	011fH
	DW	01a8H
	DD	041380000r			; 11.5
	DW	0120H
	DW	01a8H
	DD	0413aaaabr			; 11.6667
	DW	0121H
	DW	01a8H
	DD	0413d5555r			; 11.8333
	DW	00H
	DW	00H
	DD	07f7fffffr			; 3.40282e+38
?clock_large_hand_scale_down_20_left_30@@3PAUSCALE_DATA@@A DW 021eH ; clock_large_hand_scale_down_20_left_30
	DW	01c3H
	DD	000000000r			; 0
	DW	021fH
	DW	01c4H
	DD	03f000000r			; 0.5
	DW	0220H
	DW	01c4H
	DD	03f800000r			; 1
	DW	0221H
	DW	01c4H
	DD	03fc00000r			; 1.5
	DW	0222H
	DW	01c5H
	DD	040000000r			; 2
	DW	0223H
	DW	01c5H
	DD	040200000r			; 2.5
	DW	0224H
	DW	01c6H
	DD	040400000r			; 3
	DW	0225H
	DW	01c7H
	DD	040600000r			; 3.5
	DW	0226H
	DW	01c7H
	DD	040800000r			; 4
	DW	0227H
	DW	01c8H
	DD	040900000r			; 4.5
	DW	0228H
	DW	01c9H
	DD	040a00000r			; 5
	DW	0229H
	DW	01caH
	DD	040b1c71cr			; 5.55556
	DW	022aH
	DW	01cbH
	DD	040c38e39r			; 6.11111
	DW	022bH
	DW	01ccH
	DD	040d55555r			; 6.66667
	DW	022bH
	DW	01cdH
	DD	040e71c72r			; 7.22222
	DW	022cH
	DW	01ceH
	DD	040f8e38er			; 7.77778
	DW	022cH
	DW	01cfH
	DD	041055555r			; 8.33333
	DW	022dH
	DW	01d0H
	DD	0410e38e4r			; 8.88889
	DW	022dH
	DW	01d1H
	DD	041171c72r			; 9.44444
	DW	022eH
	DW	01d2H
	DD	041200000r			; 10
	DW	022eH
	DW	01d3H
	DD	041280000r			; 10.5
	DW	022eH
	DW	01d4H
	DD	041300000r			; 11
	DW	022fH
	DW	01d5H
	DD	041380000r			; 11.5
	DW	022fH
	DW	01d6H
	DD	041400000r			; 12
	DW	022fH
	DW	01d7H
	DD	041480000r			; 12.5
	DW	022fH
	DW	01d8H
	DD	041500000r			; 13
	DW	022fH
	DW	01d9H
	DD	041580000r			; 13.5
	DW	022fH
	DW	01daH
	DD	041600000r			; 14
	DW	022fH
	DW	01dbH
	DD	041680000r			; 14.5
	DW	022fH
	DW	01dcH
	DD	041700000r			; 15
	DW	022fH
	DW	01ddH
	DD	04176aaabr			; 15.4167
	DW	022eH
	DW	01deH
	DD	0417d5555r			; 15.8333
	DW	022dH
	DW	01dfH
	DD	041820000r			; 16.25
	DW	022cH
	DW	01dfH
	DD	041855555r			; 16.6667
	DW	022bH
	DW	01dfH
	DD	04188aaabr			; 17.0833
	DW	022aH
	DW	01dfH
	DD	0418c0000r			; 17.5
	DW	0229H
	DW	01dfH
	DD	0418f5555r			; 17.9167
	DW	0228H
	DW	01dfH
	DD	04192aaabr			; 18.3333
	DW	0227H
	DW	01dfH
	DD	041960000r			; 18.75
	DW	0226H
	DW	01dfH
	DD	041995555r			; 19.1667
	DW	0225H
	DW	01dfH
	DD	0419caaabr			; 19.5833
	DW	0224H
	DW	01dfH
	DD	041a00000r			; 20
	DW	0223H
	DW	01dfH
	DD	041a6aaabr			; 20.8333
	DW	0222H
	DW	01dfH
	DD	041ad5555r			; 21.6667
	DW	0221H
	DW	01dfH
	DD	041b40000r			; 22.5
	DW	0220H
	DW	01dfH
	DD	041baaaabr			; 23.3333
	DW	021fH
	DW	01dfH
	DD	041c15555r			; 24.1667
	DW	021eH
	DW	01dfH
	DD	041c80000r			; 25
	DW	021dH
	DW	01dfH
	DD	041d00000r			; 26
	DW	021cH
	DW	01dfH
	DD	041d80000r			; 27
	DW	021bH
	DW	01dfH
	DD	041e00000r			; 28
	DW	021aH
	DW	01dfH
	DD	041e80000r			; 29
	DW	0219H
	DW	01dfH
	DD	041f00000r			; 30
	DW	0218H
	DW	01dfH
	DD	041f50000r			; 30.625
	DW	0217H
	DW	01dfH
	DD	041fa0000r			; 31.25
	DW	0216H
	DW	01dfH
	DD	041ff0000r			; 31.875
	DW	0215H
	DW	01dfH
	DD	042020000r			; 32.5
	DW	0214H
	DW	01dfH
	DD	042048000r			; 33.125
	DW	0213H
	DW	01dfH
	DD	042070000r			; 33.75
	DW	0212H
	DW	01dfH
	DD	042098000r			; 34.375
	DW	0211H
	DW	01dfH
	DD	0420c0000r			; 35
	DW	0210H
	DW	01dfH
	DD	0420daaabr			; 35.4167
	DW	020fH
	DW	01dfH
	DD	0420f5555r			; 35.8333
	DW	020eH
	DW	01dfH
	DD	042110000r			; 36.25
	DW	020dH
	DW	01dfH
	DD	04212aaabr			; 36.6667
	DW	020cH
	DW	01dfH
	DD	042145555r			; 37.0833
	DW	020bH
	DW	01deH
	DD	042160000r			; 37.5
	DW	020aH
	DW	01ddH
	DD	04217aaabr			; 37.9167
	DW	020aH
	DW	01dcH
	DD	042195555r			; 38.3333
	DW	0209H
	DW	01dbH
	DD	0421b0000r			; 38.75
	DW	0209H
	DW	01daH
	DD	0421caaabr			; 39.1667
	DW	0208H
	DW	01d9H
	DD	0421e5555r			; 39.5833
	DW	0208H
	DW	01d8H
	DD	042200000r			; 40
	DW	0208H
	DW	01d7H
	DD	0422238e4r			; 40.5556
	DW	0207H
	DW	01d6H
	DD	0422471c7r			; 41.1111
	DW	0207H
	DW	01d5H
	DD	04226aaabr			; 41.6667
	DW	0207H
	DW	01d4H
	DD	04228e38er			; 42.2222
	DW	0207H
	DW	01d3H
	DD	0422b1c72r			; 42.7778
	DW	0207H
	DW	01d2H
	DD	0422d5555r			; 43.3333
	DW	0207H
	DW	01d1H
	DD	0422f8e39r			; 43.8889
	DW	0207H
	DW	01d0H
	DD	04231c71cr			; 44.4444
	DW	0207H
	DW	01cfH
	DD	042340000r			; 45
	DW	0207H
	DW	01ceH
	DD	042368000r			; 45.625
	DW	0208H
	DW	01cdH
	DD	042390000r			; 46.25
	DW	0208H
	DW	01ccH
	DD	0423b8000r			; 46.875
	DW	0208H
	DW	01cbH
	DD	0423e0000r			; 47.5
	DW	0209H
	DW	01caH
	DD	042408000r			; 48.125
	DW	0209H
	DW	01c9H
	DD	042430000r			; 48.75
	DW	020aH
	DW	01c8H
	DD	042458000r			; 49.375
	DW	020bH
	DW	01c7H
	DD	042480000r			; 50
	DW	020cH
	DW	01c6H
	DD	0424a38e4r			; 50.5556
	DW	020dH
	DW	01c5H
	DD	0424c71c7r			; 51.1111
	DW	020eH
	DW	01c5H
	DD	0424eaaabr			; 51.6667
	DW	020fH
	DW	01c4H
	DD	04250e38er			; 52.2222
	DW	0210H
	DW	01c4H
	DD	042531c72r			; 52.7778
	DW	0211H
	DW	01c3H
	DD	042555555r			; 53.3333
	DW	0212H
	DW	01c3H
	DD	042578e39r			; 53.8889
	DW	0213H
	DW	01c3H
	DD	04259c71cr			; 54.4444
	DW	0214H
	DW	01c2H
	DD	0425c0000r			; 55
	DW	0215H
	DW	01c2H
	DD	0425e0000r			; 55.5
	DW	0216H
	DW	01c2H
	DD	042600000r			; 56
	DW	0217H
	DW	01c2H
	DD	042620000r			; 56.5
	DW	0218H
	DW	01c2H
	DD	042640000r			; 57
	DW	0219H
	DW	01c2H
	DD	042660000r			; 57.5
	DW	021aH
	DW	01c2H
	DD	042680000r			; 58
	DW	021bH
	DW	01c2H
	DD	0426a0000r			; 58.5
	DW	021cH
	DW	01c3H
	DD	0426c0000r			; 59
	DW	021dH
	DW	01c3H
	DD	0426e0000r			; 59.5
	DW	00H
	DW	00H
	DD	07f7fffffr			; 3.40282e+38
?clock_small_hand_scale_down_20_left_30@@3PAUSCALE_DATA@@A DW 021dH ; clock_small_hand_scale_down_20_left_30
	DW	01c9H
	DD	000000000r			; 0
	DW	021eH
	DW	01caH
	DD	03e124925r			; 0.142857
	DW	021fH
	DW	01caH
	DD	03e924925r			; 0.285714
	DW	0220H
	DW	01caH
	DD	03edb6db7r			; 0.428571
	DW	0221H
	DW	01cbH
	DD	03f124925r			; 0.571429
	DW	0222H
	DW	01cbH
	DD	03f36db6er			; 0.714286
	DW	0223H
	DW	01ccH
	DD	03f5b6db7r			; 0.857143
	DW	0224H
	DW	01cdH
	DD	03f800000r			; 1
	DW	0225H
	DW	01ceH
	DD	03f955555r			; 1.16667
	DW	0226H
	DW	01cfH
	DD	03faaaaabr			; 1.33333
	DW	0226H
	DW	01d0H
	DD	03fc00000r			; 1.5
	DW	0227H
	DW	01d1H
	DD	03fd55555r			; 1.66667
	DW	0227H
	DW	01d2H
	DD	03feaaaabr			; 1.83333
	DW	0228H
	DW	01d3H
	DD	040000000r			; 2
	DW	0228H
	DW	01d4H
	DD	040092492r			; 2.14286
	DW	0228H
	DW	01d5H
	DD	040124925r			; 2.28571
	DW	0229H
	DW	01d6H
	DD	0401b6db7r			; 2.42857
	DW	0229H
	DW	01d7H
	DD	040249249r			; 2.57143
	DW	0229H
	DW	01d8H
	DD	0402db6dbr			; 2.71429
	DW	0229H
	DW	01d9H
	DD	04036db6er			; 2.85714
	DW	0229H
	DW	01daH
	DD	040400000r			; 3
	DW	0228H
	DW	01dbH
	DD	0404aaaabr			; 3.16667
	DW	0228H
	DW	01dcH
	DD	040555555r			; 3.33333
	DW	0227H
	DW	01ddH
	DD	040600000r			; 3.5
	DW	0226H
	DW	01deH
	DD	0406aaaabr			; 3.66667
	DW	0225H
	DW	01dfH
	DD	040755555r			; 3.83333
	DW	0224H
	DW	01dfH
	DD	040800000r			; 4
	DW	0223H
	DW	01dfH
	DD	040855555r			; 4.16667
	DW	0222H
	DW	01dfH
	DD	0408aaaabr			; 4.33333
	DW	0221H
	DW	01dfH
	DD	040900000r			; 4.5
	DW	0220H
	DW	01dfH
	DD	040955555r			; 4.66667
	DW	021fH
	DW	01dfH
	DD	0409aaaabr			; 4.83333
	DW	021eH
	DW	01dfH
	DD	040a00000r			; 5
	DW	021dH
	DW	01dfH
	DD	040a66666r			; 5.2
	DW	021cH
	DW	01dfH
	DD	040accccdr			; 5.4
	DW	021bH
	DW	01dfH
	DD	040b33333r			; 5.6
	DW	021aH
	DW	01dfH
	DD	040b9999ar			; 5.8
	DW	0219H
	DW	01dfH
	DD	040c00000r			; 6
	DW	0218H
	DW	01dfH
	DD	040c49249r			; 6.14286
	DW	0217H
	DW	01dfH
	DD	040c92492r			; 6.28571
	DW	0216H
	DW	01dfH
	DD	040cdb6dbr			; 6.42857
	DW	0215H
	DW	01dfH
	DD	040d24925r			; 6.57143
	DW	0214H
	DW	01dfH
	DD	040d6db6er			; 6.71429
	DW	0213H
	DW	01dfH
	DD	040db6db7r			; 6.85714
	DW	0212H
	DW	01deH
	DD	040e00000r			; 7
	DW	0211H
	DW	01ddH
	DD	040e55555r			; 7.16667
	DW	0210H
	DW	01dcH
	DD	040eaaaabr			; 7.33333
	DW	020fH
	DW	01dbH
	DD	040f00000r			; 7.5
	DW	020fH
	DW	01daH
	DD	040f55555r			; 7.66667
	DW	020eH
	DW	01d9H
	DD	040faaaabr			; 7.83333
	DW	020eH
	DW	01d8H
	DD	041000000r			; 8
	DW	020eH
	DW	01d7H
	DD	041024925r			; 8.14286
	DW	020dH
	DW	01d6H
	DD	041049249r			; 8.28571
	DW	020dH
	DW	01d5H
	DD	04106db6er			; 8.42857
	DW	020dH
	DW	01d4H
	DD	041092492r			; 8.57143
	DW	020dH
	DW	01d3H
	DD	0410b6db7r			; 8.71429
	DW	020dH
	DW	01d2H
	DD	0410db6dbr			; 8.85714
	DW	020dH
	DW	01d1H
	DD	041100000r			; 9
	DW	020dH
	DW	01d0H
	DD	04112aaabr			; 9.16667
	DW	020eH
	DW	01cfH
	DD	041155555r			; 9.33333
	DW	020eH
	DW	01ceH
	DD	041180000r			; 9.5
	DW	020eH
	DW	01cdH
	DD	0411aaaabr			; 9.66667
	DW	020fH
	DW	01ccH
	DD	0411d5555r			; 9.83333
	DW	0210H
	DW	01cbH
	DD	041200000r			; 10
	DW	0211H
	DW	01caH
	DD	04122aaabr			; 10.1667
	DW	0212H
	DW	01caH
	DD	041255555r			; 10.3333
	DW	0213H
	DW	01c9H
	DD	041280000r			; 10.5
	DW	0214H
	DW	01c9H
	DD	0412aaaabr			; 10.6667
	DW	0215H
	DW	01c8H
	DD	0412d5555r			; 10.8333
	DW	0216H
	DW	01c8H
	DD	041300000r			; 11
	DW	0217H
	DW	01c8H
	DD	041324925r			; 11.1429
	DW	0218H
	DW	01c8H
	DD	041349249r			; 11.2857
	DW	0219H
	DW	01c8H
	DD	04136db6er			; 11.4286
	DW	021aH
	DW	01c8H
	DD	041392492r			; 11.5714
	DW	021bH
	DW	01c8H
	DD	0413b6db7r			; 11.7143
	DW	021cH
	DW	01c8H
	DD	0413db6dbr			; 11.8571
	DW	00H
	DW	00H
	DD	07f7fffffr			; 3.40282e+38
?lh_engine_rpm_indicator_line1_down_20_ahead@@3PAUSCALE_DATA@@A DW 01f3H ; lh_engine_rpm_indicator_line1_down_20_ahead
	DW	01c6H
	DD	000000000r			; 0
	DW	01f3H
	DW	01c5H
	DD	040a00000r			; 5
	DW	01f3H
	DW	01c4H
	DD	041200000r			; 10
	DW	01f3H
	DW	01c3H
	DD	041555555r			; 13.3333
	DW	01f3H
	DW	01c2H
	DD	041855555r			; 16.6667
	DW	01f3H
	DW	01c1H
	DD	041a00000r			; 20
	DW	01f3H
	DW	01c0H
	DD	041baaaabr			; 23.3333
	DW	01f3H
	DW	01bfH
	DD	041d55555r			; 26.6667
	DW	01f3H
	DW	01beH
	DD	041f00000r			; 30
	DW	01f3H
	DW	01bdH
	DD	0420c0000r			; 35
	DW	01f3H
	DW	01bcH
	DD	042200000r			; 40
	DW	01f3H
	DW	01bbH
	DD	0422d5555r			; 43.3333
	DW	01f3H
	DW	01baH
	DD	0423aaaabr			; 46.6667
	DW	01f3H
	DW	01b9H
	DD	042480000r			; 50
	DW	01f3H
	DW	01b8H
	DD	042555555r			; 53.3333
	DW	01f3H
	DW	01b7H
	DD	04262aaabr			; 56.6667
	DW	01f3H
	DW	01b6H
	DD	042700000r			; 60
	DW	01f3H
	DW	01b5H
	DD	042735555r			; 60.8333
	DW	01f3H
	DW	01b4H
	DD	04276aaabr			; 61.6667
	DW	01f3H
	DW	01b3H
	DD	0427a0000r			; 62.5
	DW	01f3H
	DW	01b2H
	DD	0427d5555r			; 63.3333
	DW	01f3H
	DW	01b1H
	DD	042805555r			; 64.1667
	DW	01f3H
	DW	01b0H
	DD	042820000r			; 65
	DW	01f3H
	DW	01afH
	DD	04283aaabr			; 65.8333
	DW	01f3H
	DW	01aeH
	DD	042855555r			; 66.6667
	DW	01f3H
	DW	01adH
	DD	042870000r			; 67.5
	DW	01f3H
	DW	01acH
	DD	04288aaabr			; 68.3333
	DW	01f3H
	DW	01abH
	DD	0428a5555r			; 69.1667
	DW	01f3H
	DW	01aaH
	DD	0428c0000r			; 70
	DW	01f3H
	DW	01a9H
	DD	0428daaabr			; 70.8333
	DW	01f3H
	DW	01a8H
	DD	0428f5555r			; 71.6667
	DW	01f3H
	DW	01a7H
	DD	042910000r			; 72.5
	DW	01f3H
	DW	01a6H
	DD	04292aaabr			; 73.3333
	DW	01f3H
	DW	01a5H
	DD	042945555r			; 74.1667
	DW	01f3H
	DW	01a4H
	DD	042960000r			; 75
	DW	01f3H
	DW	01a3H
	DD	04297aaabr			; 75.8333
	DW	01f3H
	DW	01a2H
	DD	042995555r			; 76.6667
	DW	01f3H
	DW	01a1H
	DD	0429b0000r			; 77.5
	DW	01f3H
	DW	01a0H
	DD	0429caaabr			; 78.3333
	DW	01f3H
	DW	019fH
	DD	0429e5555r			; 79.1667
	DW	01f3H
	DW	019eH
	DD	042a00000r			; 80
	DW	01f3H
	DW	019dH
	DD	042a189d9r			; 80.7692
	DW	01f3H
	DW	019cH
	DD	042a313b1r			; 81.5385
	DW	01f3H
	DW	019bH
	DD	042a49d8ar			; 82.3077
	DW	01f3H
	DW	019aH
	DD	042a62762r			; 83.0769
	DW	01f3H
	DW	0199H
	DD	042a7b13br			; 83.8462
	DW	01f3H
	DW	0198H
	DD	042a93b14r			; 84.6154
	DW	01f3H
	DW	0197H
	DD	042aac4ecr			; 85.3846
	DW	01f3H
	DW	0196H
	DD	042ac4ec5r			; 86.1538
	DW	01f3H
	DW	0195H
	DD	042add89er			; 86.9231
	DW	01f3H
	DW	0194H
	DD	042af6276r			; 87.6923
	DW	01f3H
	DW	0193H
	DD	042b0ec4fr			; 88.4615
	DW	01f3H
	DW	0192H
	DD	042b27627r			; 89.2308
	DW	01f3H
	DW	0191H
	DD	042b40000r			; 90
	DW	01f3H
	DW	0190H
	DD	042b5aaabr			; 90.8333
	DW	01f3H
	DW	018fH
	DD	042b75555r			; 91.6667
	DW	01f3H
	DW	018eH
	DD	042b90000r			; 92.5
	DW	01f3H
	DW	018dH
	DD	042baaaabr			; 93.3333
	DW	01f3H
	DW	018cH
	DD	042bc5555r			; 94.1667
	DW	01f3H
	DW	018bH
	DD	042be0000r			; 95
	DW	01f3H
	DW	018aH
	DD	042bfaaabr			; 95.8333
	DW	01f3H
	DW	0189H
	DD	042c15555r			; 96.6667
	DW	01f3H
	DW	0188H
	DD	042c30000r			; 97.5
	DW	01f3H
	DW	0187H
	DD	042c4aaabr			; 98.3333
	DW	01f3H
	DW	0186H
	DD	042c65555r			; 99.1667
	DW	01f3H
	DW	0185H
	DD	042c80000r			; 100
	DW	01f3H
	DW	0184H
	DD	042c9aaabr			; 100.833
	DW	01f3H
	DW	0183H
	DD	042cb5555r			; 101.667
	DW	01f3H
	DW	0182H
	DD	042cd0000r			; 102.5
	DW	01f3H
	DW	0181H
	DD	042ceaaabr			; 103.333
	DW	01f3H
	DW	0180H
	DD	042d05555r			; 104.167
	DW	01f3H
	DW	017fH
	DD	042d20000r			; 105
	DW	01f3H
	DW	017eH
	DD	042d3aaabr			; 105.833
	DW	01f3H
	DW	017dH
	DD	042d55555r			; 106.667
	DW	01f3H
	DW	017cH
	DD	042d70000r			; 107.5
	DW	01f3H
	DW	017bH
	DD	042d8aaabr			; 108.333
	DW	01f3H
	DW	017aH
	DD	042da5555r			; 109.167
	DW	01f3H
	DW	0179H
	DD	042dc0000r			; 110
	DW	00H
	DW	00H
	DD	07f7fffffr			; 3.40282e+38
?lh_engine_rpm_indicator_line2_down_20_ahead@@3PAUSCALE_DATA@@A DW 01f4H ; lh_engine_rpm_indicator_line2_down_20_ahead
	DW	01c6H
	DD	000000000r			; 0
	DW	01f4H
	DW	01c5H
	DD	040a00000r			; 5
	DW	01f4H
	DW	01c4H
	DD	041200000r			; 10
	DW	01f4H
	DW	01c3H
	DD	041555555r			; 13.3333
	DW	01f4H
	DW	01c2H
	DD	041855555r			; 16.6667
	DW	01f4H
	DW	01c1H
	DD	041a00000r			; 20
	DW	01f4H
	DW	01c0H
	DD	041baaaabr			; 23.3333
	DW	01f4H
	DW	01bfH
	DD	041d55555r			; 26.6667
	DW	01f4H
	DW	01beH
	DD	041f00000r			; 30
	DW	01f4H
	DW	01bdH
	DD	0420c0000r			; 35
	DW	01f4H
	DW	01bcH
	DD	042200000r			; 40
	DW	01f4H
	DW	01bbH
	DD	0422d5555r			; 43.3333
	DW	01f4H
	DW	01baH
	DD	0423aaaabr			; 46.6667
	DW	01f4H
	DW	01b9H
	DD	042480000r			; 50
	DW	01f4H
	DW	01b8H
	DD	042555555r			; 53.3333
	DW	01f4H
	DW	01b7H
	DD	04262aaabr			; 56.6667
	DW	01f4H
	DW	01b6H
	DD	042700000r			; 60
	DW	01f4H
	DW	01b5H
	DD	042735555r			; 60.8333
	DW	01f4H
	DW	01b4H
	DD	04276aaabr			; 61.6667
	DW	01f4H
	DW	01b3H
	DD	0427a0000r			; 62.5
	DW	01f4H
	DW	01b2H
	DD	0427d5555r			; 63.3333
	DW	01f4H
	DW	01b1H
	DD	042805555r			; 64.1667
	DW	01f4H
	DW	01b0H
	DD	042820000r			; 65
	DW	01f4H
	DW	01afH
	DD	04283aaabr			; 65.8333
	DW	01f4H
	DW	01aeH
	DD	042855555r			; 66.6667
	DW	01f4H
	DW	01adH
	DD	042870000r			; 67.5
	DW	01f4H
	DW	01acH
	DD	04288aaabr			; 68.3333
	DW	01f4H
	DW	01abH
	DD	0428a5555r			; 69.1667
	DW	01f4H
	DW	01aaH
	DD	0428c0000r			; 70
	DW	01f4H
	DW	01a9H
	DD	0428daaabr			; 70.8333
	DW	01f4H
	DW	01a8H
	DD	0428f5555r			; 71.6667
	DW	01f4H
	DW	01a7H
	DD	042910000r			; 72.5
	DW	01f4H
	DW	01a6H
	DD	04292aaabr			; 73.3333
	DW	01f4H
	DW	01a5H
	DD	042945555r			; 74.1667
	DW	01f4H
	DW	01a4H
	DD	042960000r			; 75
	DW	01f4H
	DW	01a3H
	DD	04297aaabr			; 75.8333
	DW	01f4H
	DW	01a2H
	DD	042995555r			; 76.6667
	DW	01f4H
	DW	01a1H
	DD	0429b0000r			; 77.5
	DW	01f4H
	DW	01a0H
	DD	0429caaabr			; 78.3333
	DW	01f4H
	DW	019fH
	DD	0429e5555r			; 79.1667
	DW	01f4H
	DW	019eH
	DD	042a00000r			; 80
	DW	01f4H
	DW	019dH
	DD	042a189d9r			; 80.7692
	DW	01f4H
	DW	019cH
	DD	042a313b1r			; 81.5385
	DW	01f4H
	DW	019bH
	DD	042a49d8ar			; 82.3077
	DW	01f4H
	DW	019aH
	DD	042a62762r			; 83.0769
	DW	01f4H
	DW	0199H
	DD	042a7b13br			; 83.8462
	DW	01f4H
	DW	0198H
	DD	042a93b14r			; 84.6154
	DW	01f4H
	DW	0197H
	DD	042aac4ecr			; 85.3846
	DW	01f4H
	DW	0196H
	DD	042ac4ec5r			; 86.1538
	DW	01f4H
	DW	0195H
	DD	042add89er			; 86.9231
	DW	01f4H
	DW	0194H
	DD	042af6276r			; 87.6923
	DW	01f4H
	DW	0193H
	DD	042b0ec4fr			; 88.4615
	DW	01f4H
	DW	0192H
	DD	042b27627r			; 89.2308
	DW	01f4H
	DW	0191H
	DD	042b40000r			; 90
	DW	01f4H
	DW	0190H
	DD	042b5aaabr			; 90.8333
	DW	01f4H
	DW	018fH
	DD	042b75555r			; 91.6667
	DW	01f4H
	DW	018eH
	DD	042b90000r			; 92.5
	DW	01f4H
	DW	018dH
	DD	042baaaabr			; 93.3333
	DW	01f4H
	DW	018cH
	DD	042bc5555r			; 94.1667
	DW	01f4H
	DW	018bH
	DD	042be0000r			; 95
	DW	01f4H
	DW	018aH
	DD	042bfaaabr			; 95.8333
	DW	01f4H
	DW	0189H
	DD	042c15555r			; 96.6667
	DW	01f4H
	DW	0188H
	DD	042c30000r			; 97.5
	DW	01f4H
	DW	0187H
	DD	042c4aaabr			; 98.3333
	DW	01f4H
	DW	0186H
	DD	042c65555r			; 99.1667
	DW	01f4H
	DW	0185H
	DD	042c80000r			; 100
	DW	01f4H
	DW	0184H
	DD	042c9aaabr			; 100.833
	DW	01f4H
	DW	0183H
	DD	042cb5555r			; 101.667
	DW	01f4H
	DW	0182H
	DD	042cd0000r			; 102.5
	DW	01f4H
	DW	0181H
	DD	042ceaaabr			; 103.333
	DW	01f4H
	DW	0180H
	DD	042d05555r			; 104.167
	DW	01f4H
	DW	017fH
	DD	042d20000r			; 105
	DW	01f4H
	DW	017eH
	DD	042d3aaabr			; 105.833
	DW	01f4H
	DW	017dH
	DD	042d55555r			; 106.667
	DW	01f4H
	DW	017cH
	DD	042d70000r			; 107.5
	DW	01f4H
	DW	017bH
	DD	042d8aaabr			; 108.333
	DW	01f4H
	DW	017aH
	DD	042da5555r			; 109.167
	DW	01f4H
	DW	0179H
	DD	042dc0000r			; 110
	DW	00H
	DW	00H
	DD	07f7fffffr			; 3.40282e+38
?lh_engine_rpm_indicator_line3_down_20_ahead@@3PAUSCALE_DATA@@A DW 01f5H ; lh_engine_rpm_indicator_line3_down_20_ahead
	DW	01c6H
	DD	000000000r			; 0
	DW	01f5H
	DW	01c5H
	DD	040a00000r			; 5
	DW	01f5H
	DW	01c4H
	DD	041200000r			; 10
	DW	01f5H
	DW	01c3H
	DD	041555555r			; 13.3333
	DW	01f5H
	DW	01c2H
	DD	041855555r			; 16.6667
	DW	01f5H
	DW	01c1H
	DD	041a00000r			; 20
	DW	01f5H
	DW	01c0H
	DD	041baaaabr			; 23.3333
	DW	01f5H
	DW	01bfH
	DD	041d55555r			; 26.6667
	DW	01f5H
	DW	01beH
	DD	041f00000r			; 30
	DW	01f5H
	DW	01bdH
	DD	0420c0000r			; 35
	DW	01f5H
	DW	01bcH
	DD	042200000r			; 40
	DW	01f5H
	DW	01bbH
	DD	0422d5555r			; 43.3333
	DW	01f5H
	DW	01baH
	DD	0423aaaabr			; 46.6667
	DW	01f5H
	DW	01b9H
	DD	042480000r			; 50
	DW	01f5H
	DW	01b8H
	DD	042555555r			; 53.3333
	DW	01f5H
	DW	01b7H
	DD	04262aaabr			; 56.6667
	DW	01f5H
	DW	01b6H
	DD	042700000r			; 60
	DW	01f5H
	DW	01b5H
	DD	042735555r			; 60.8333
	DW	01f5H
	DW	01b4H
	DD	04276aaabr			; 61.6667
	DW	01f5H
	DW	01b3H
	DD	0427a0000r			; 62.5
	DW	01f5H
	DW	01b2H
	DD	0427d5555r			; 63.3333
	DW	01f5H
	DW	01b1H
	DD	042805555r			; 64.1667
	DW	01f5H
	DW	01b0H
	DD	042820000r			; 65
	DW	01f5H
	DW	01afH
	DD	04283aaabr			; 65.8333
	DW	01f5H
	DW	01aeH
	DD	042855555r			; 66.6667
	DW	01f5H
	DW	01adH
	DD	042870000r			; 67.5
	DW	01f5H
	DW	01acH
	DD	04288aaabr			; 68.3333
	DW	01f5H
	DW	01abH
	DD	0428a5555r			; 69.1667
	DW	01f5H
	DW	01aaH
	DD	0428c0000r			; 70
	DW	01f5H
	DW	01a9H
	DD	0428daaabr			; 70.8333
	DW	01f5H
	DW	01a8H
	DD	0428f5555r			; 71.6667
	DW	01f5H
	DW	01a7H
	DD	042910000r			; 72.5
	DW	01f5H
	DW	01a6H
	DD	04292aaabr			; 73.3333
	DW	01f5H
	DW	01a5H
	DD	042945555r			; 74.1667
	DW	01f5H
	DW	01a4H
	DD	042960000r			; 75
	DW	01f5H
	DW	01a3H
	DD	04297aaabr			; 75.8333
	DW	01f5H
	DW	01a2H
	DD	042995555r			; 76.6667
	DW	01f5H
	DW	01a1H
	DD	0429b0000r			; 77.5
	DW	01f5H
	DW	01a0H
	DD	0429caaabr			; 78.3333
	DW	01f5H
	DW	019fH
	DD	0429e5555r			; 79.1667
	DW	01f5H
	DW	019eH
	DD	042a00000r			; 80
	DW	01f5H
	DW	019dH
	DD	042a189d9r			; 80.7692
	DW	01f5H
	DW	019cH
	DD	042a313b1r			; 81.5385
	DW	01f5H
	DW	019bH
	DD	042a49d8ar			; 82.3077
	DW	01f5H
	DW	019aH
	DD	042a62762r			; 83.0769
	DW	01f5H
	DW	0199H
	DD	042a7b13br			; 83.8462
	DW	01f5H
	DW	0198H
	DD	042a93b14r			; 84.6154
	DW	01f5H
	DW	0197H
	DD	042aac4ecr			; 85.3846
	DW	01f5H
	DW	0196H
	DD	042ac4ec5r			; 86.1538
	DW	01f5H
	DW	0195H
	DD	042add89er			; 86.9231
	DW	01f5H
	DW	0194H
	DD	042af6276r			; 87.6923
	DW	01f5H
	DW	0193H
	DD	042b0ec4fr			; 88.4615
	DW	01f5H
	DW	0192H
	DD	042b27627r			; 89.2308
	DW	01f5H
	DW	0191H
	DD	042b40000r			; 90
	DW	01f5H
	DW	0190H
	DD	042b5aaabr			; 90.8333
	DW	01f5H
	DW	018fH
	DD	042b75555r			; 91.6667
	DW	01f5H
	DW	018eH
	DD	042b90000r			; 92.5
	DW	01f5H
	DW	018dH
	DD	042baaaabr			; 93.3333
	DW	01f5H
	DW	018cH
	DD	042bc5555r			; 94.1667
	DW	01f5H
	DW	018bH
	DD	042be0000r			; 95
	DW	01f5H
	DW	018aH
	DD	042bfaaabr			; 95.8333
	DW	01f5H
	DW	0189H
	DD	042c15555r			; 96.6667
	DW	01f5H
	DW	0188H
	DD	042c30000r			; 97.5
	DW	01f5H
	DW	0187H
	DD	042c4aaabr			; 98.3333
	DW	01f5H
	DW	0186H
	DD	042c65555r			; 99.1667
	DW	01f5H
	DW	0185H
	DD	042c80000r			; 100
	DW	01f5H
	DW	0184H
	DD	042c9aaabr			; 100.833
	DW	01f5H
	DW	0183H
	DD	042cb5555r			; 101.667
	DW	01f5H
	DW	0182H
	DD	042cd0000r			; 102.5
	DW	01f5H
	DW	0181H
	DD	042ceaaabr			; 103.333
	DW	01f5H
	DW	0180H
	DD	042d05555r			; 104.167
	DW	01f5H
	DW	017fH
	DD	042d20000r			; 105
	DW	01f5H
	DW	017eH
	DD	042d3aaabr			; 105.833
	DW	01f5H
	DW	017dH
	DD	042d55555r			; 106.667
	DW	01f5H
	DW	017cH
	DD	042d70000r			; 107.5
	DW	01f5H
	DW	017bH
	DD	042d8aaabr			; 108.333
	DW	01f5H
	DW	017aH
	DD	042da5555r			; 109.167
	DW	01f5H
	DW	0179H
	DD	042dc0000r			; 110
	DW	00H
	DW	00H
	DD	07f7fffffr			; 3.40282e+38
?rh_engine_rpm_indicator_line1_down_20_ahead@@3PAUSCALE_DATA@@A DW 0203H ; rh_engine_rpm_indicator_line1_down_20_ahead
	DW	01c6H
	DD	000000000r			; 0
	DW	0203H
	DW	01c5H
	DD	040a00000r			; 5
	DW	0203H
	DW	01c4H
	DD	041200000r			; 10
	DW	0203H
	DW	01c3H
	DD	041555555r			; 13.3333
	DW	0203H
	DW	01c2H
	DD	041855555r			; 16.6667
	DW	0203H
	DW	01c1H
	DD	041a00000r			; 20
	DW	0203H
	DW	01c0H
	DD	041baaaabr			; 23.3333
	DW	0203H
	DW	01bfH
	DD	041d55555r			; 26.6667
	DW	0203H
	DW	01beH
	DD	041f00000r			; 30
	DW	0203H
	DW	01bdH
	DD	0420c0000r			; 35
	DW	0203H
	DW	01bcH
	DD	042200000r			; 40
	DW	0203H
	DW	01bbH
	DD	0422d5555r			; 43.3333
	DW	0203H
	DW	01baH
	DD	0423aaaabr			; 46.6667
	DW	0203H
	DW	01b9H
	DD	042480000r			; 50
	DW	0203H
	DW	01b8H
	DD	042555555r			; 53.3333
	DW	0203H
	DW	01b7H
	DD	04262aaabr			; 56.6667
	DW	0203H
	DW	01b6H
	DD	042700000r			; 60
	DW	0203H
	DW	01b5H
	DD	042735555r			; 60.8333
	DW	0203H
	DW	01b4H
	DD	04276aaabr			; 61.6667
	DW	0203H
	DW	01b3H
	DD	0427a0000r			; 62.5
	DW	0203H
	DW	01b2H
	DD	0427d5555r			; 63.3333
	DW	0203H
	DW	01b1H
	DD	042805555r			; 64.1667
	DW	0203H
	DW	01b0H
	DD	042820000r			; 65
	DW	0203H
	DW	01afH
	DD	04283aaabr			; 65.8333
	DW	0203H
	DW	01aeH
	DD	042855555r			; 66.6667
	DW	0203H
	DW	01adH
	DD	042870000r			; 67.5
	DW	0203H
	DW	01acH
	DD	04288aaabr			; 68.3333
	DW	0203H
	DW	01abH
	DD	0428a5555r			; 69.1667
	DW	0203H
	DW	01aaH
	DD	0428c0000r			; 70
	DW	0203H
	DW	01a9H
	DD	0428daaabr			; 70.8333
	DW	0203H
	DW	01a8H
	DD	0428f5555r			; 71.6667
	DW	0203H
	DW	01a7H
	DD	042910000r			; 72.5
	DW	0203H
	DW	01a6H
	DD	04292aaabr			; 73.3333
	DW	0203H
	DW	01a5H
	DD	042945555r			; 74.1667
	DW	0203H
	DW	01a4H
	DD	042960000r			; 75
	DW	0203H
	DW	01a3H
	DD	04297aaabr			; 75.8333
	DW	0203H
	DW	01a2H
	DD	042995555r			; 76.6667
	DW	0203H
	DW	01a1H
	DD	0429b0000r			; 77.5
	DW	0203H
	DW	01a0H
	DD	0429caaabr			; 78.3333
	DW	0203H
	DW	019fH
	DD	0429e5555r			; 79.1667
	DW	0203H
	DW	019eH
	DD	042a00000r			; 80
	DW	0203H
	DW	019dH
	DD	042a189d9r			; 80.7692
	DW	0203H
	DW	019cH
	DD	042a313b1r			; 81.5385
	DW	0203H
	DW	019bH
	DD	042a49d8ar			; 82.3077
	DW	0203H
	DW	019aH
	DD	042a62762r			; 83.0769
	DW	0203H
	DW	0199H
	DD	042a7b13br			; 83.8462
	DW	0203H
	DW	0198H
	DD	042a93b14r			; 84.6154
	DW	0203H
	DW	0197H
	DD	042aac4ecr			; 85.3846
	DW	0203H
	DW	0196H
	DD	042ac4ec5r			; 86.1538
	DW	0203H
	DW	0195H
	DD	042add89er			; 86.9231
	DW	0203H
	DW	0194H
	DD	042af6276r			; 87.6923
	DW	0203H
	DW	0193H
	DD	042b0ec4fr			; 88.4615
	DW	0203H
	DW	0192H
	DD	042b27627r			; 89.2308
	DW	0203H
	DW	0191H
	DD	042b40000r			; 90
	DW	0203H
	DW	0190H
	DD	042b5aaabr			; 90.8333
	DW	0203H
	DW	018fH
	DD	042b75555r			; 91.6667
	DW	0203H
	DW	018eH
	DD	042b90000r			; 92.5
	DW	0203H
	DW	018dH
	DD	042baaaabr			; 93.3333
	DW	0203H
	DW	018cH
	DD	042bc5555r			; 94.1667
	DW	0203H
	DW	018bH
	DD	042be0000r			; 95
	DW	0203H
	DW	018aH
	DD	042bfaaabr			; 95.8333
	DW	0203H
	DW	0189H
	DD	042c15555r			; 96.6667
	DW	0203H
	DW	0188H
	DD	042c30000r			; 97.5
	DW	0203H
	DW	0187H
	DD	042c4aaabr			; 98.3333
	DW	0203H
	DW	0186H
	DD	042c65555r			; 99.1667
	DW	0203H
	DW	0185H
	DD	042c80000r			; 100
	DW	0203H
	DW	0184H
	DD	042c9aaabr			; 100.833
	DW	0203H
	DW	0183H
	DD	042cb5555r			; 101.667
	DW	0203H
	DW	0182H
	DD	042cd0000r			; 102.5
	DW	0203H
	DW	0181H
	DD	042ceaaabr			; 103.333
	DW	0203H
	DW	0180H
	DD	042d05555r			; 104.167
	DW	0203H
	DW	017fH
	DD	042d20000r			; 105
	DW	0203H
	DW	017eH
	DD	042d3aaabr			; 105.833
	DW	0203H
	DW	017dH
	DD	042d55555r			; 106.667
	DW	0203H
	DW	017cH
	DD	042d70000r			; 107.5
	DW	0203H
	DW	017bH
	DD	042d8aaabr			; 108.333
	DW	0203H
	DW	017aH
	DD	042da5555r			; 109.167
	DW	0203H
	DW	0179H
	DD	042dc0000r			; 110
	DW	00H
	DW	00H
	DD	07f7fffffr			; 3.40282e+38
?rh_engine_rpm_indicator_line2_down_20_ahead@@3PAUSCALE_DATA@@A DW 0204H ; rh_engine_rpm_indicator_line2_down_20_ahead
	DW	01c6H
	DD	000000000r			; 0
	DW	0204H
	DW	01c5H
	DD	040a00000r			; 5
	DW	0204H
	DW	01c4H
	DD	041200000r			; 10
	DW	0204H
	DW	01c3H
	DD	041555555r			; 13.3333
	DW	0204H
	DW	01c2H
	DD	041855555r			; 16.6667
	DW	0204H
	DW	01c1H
	DD	041a00000r			; 20
	DW	0204H
	DW	01c0H
	DD	041baaaabr			; 23.3333
	DW	0204H
	DW	01bfH
	DD	041d55555r			; 26.6667
	DW	0204H
	DW	01beH
	DD	041f00000r			; 30
	DW	0204H
	DW	01bdH
	DD	0420c0000r			; 35
	DW	0204H
	DW	01bcH
	DD	042200000r			; 40
	DW	0204H
	DW	01bbH
	DD	0422d5555r			; 43.3333
	DW	0204H
	DW	01baH
	DD	0423aaaabr			; 46.6667
	DW	0204H
	DW	01b9H
	DD	042480000r			; 50
	DW	0204H
	DW	01b8H
	DD	042555555r			; 53.3333
	DW	0204H
	DW	01b7H
	DD	04262aaabr			; 56.6667
	DW	0204H
	DW	01b6H
	DD	042700000r			; 60
	DW	0204H
	DW	01b5H
	DD	042735555r			; 60.8333
	DW	0204H
	DW	01b4H
	DD	04276aaabr			; 61.6667
	DW	0204H
	DW	01b3H
	DD	0427a0000r			; 62.5
	DW	0204H
	DW	01b2H
	DD	0427d5555r			; 63.3333
	DW	0204H
	DW	01b1H
	DD	042805555r			; 64.1667
	DW	0204H
	DW	01b0H
	DD	042820000r			; 65
	DW	0204H
	DW	01afH
	DD	04283aaabr			; 65.8333
	DW	0204H
	DW	01aeH
	DD	042855555r			; 66.6667
	DW	0204H
	DW	01adH
	DD	042870000r			; 67.5
	DW	0204H
	DW	01acH
	DD	04288aaabr			; 68.3333
	DW	0204H
	DW	01abH
	DD	0428a5555r			; 69.1667
	DW	0204H
	DW	01aaH
	DD	0428c0000r			; 70
	DW	0204H
	DW	01a9H
	DD	0428daaabr			; 70.8333
	DW	0204H
	DW	01a8H
	DD	0428f5555r			; 71.6667
	DW	0204H
	DW	01a7H
	DD	042910000r			; 72.5
	DW	0204H
	DW	01a6H
	DD	04292aaabr			; 73.3333
	DW	0204H
	DW	01a5H
	DD	042945555r			; 74.1667
	DW	0204H
	DW	01a4H
	DD	042960000r			; 75
	DW	0204H
	DW	01a3H
	DD	04297aaabr			; 75.8333
	DW	0204H
	DW	01a2H
	DD	042995555r			; 76.6667
	DW	0204H
	DW	01a1H
	DD	0429b0000r			; 77.5
	DW	0204H
	DW	01a0H
	DD	0429caaabr			; 78.3333
	DW	0204H
	DW	019fH
	DD	0429e5555r			; 79.1667
	DW	0204H
	DW	019eH
	DD	042a00000r			; 80
	DW	0204H
	DW	019dH
	DD	042a189d9r			; 80.7692
	DW	0204H
	DW	019cH
	DD	042a313b1r			; 81.5385
	DW	0204H
	DW	019bH
	DD	042a49d8ar			; 82.3077
	DW	0204H
	DW	019aH
	DD	042a62762r			; 83.0769
	DW	0204H
	DW	0199H
	DD	042a7b13br			; 83.8462
	DW	0204H
	DW	0198H
	DD	042a93b14r			; 84.6154
	DW	0204H
	DW	0197H
	DD	042aac4ecr			; 85.3846
	DW	0204H
	DW	0196H
	DD	042ac4ec5r			; 86.1538
	DW	0204H
	DW	0195H
	DD	042add89er			; 86.9231
	DW	0204H
	DW	0194H
	DD	042af6276r			; 87.6923
	DW	0204H
	DW	0193H
	DD	042b0ec4fr			; 88.4615
	DW	0204H
	DW	0192H
	DD	042b27627r			; 89.2308
	DW	0204H
	DW	0191H
	DD	042b40000r			; 90
	DW	0204H
	DW	0190H
	DD	042b5aaabr			; 90.8333
	DW	0204H
	DW	018fH
	DD	042b75555r			; 91.6667
	DW	0204H
	DW	018eH
	DD	042b90000r			; 92.5
	DW	0204H
	DW	018dH
	DD	042baaaabr			; 93.3333
	DW	0204H
	DW	018cH
	DD	042bc5555r			; 94.1667
	DW	0204H
	DW	018bH
	DD	042be0000r			; 95
	DW	0204H
	DW	018aH
	DD	042bfaaabr			; 95.8333
	DW	0204H
	DW	0189H
	DD	042c15555r			; 96.6667
	DW	0204H
	DW	0188H
	DD	042c30000r			; 97.5
	DW	0204H
	DW	0187H
	DD	042c4aaabr			; 98.3333
	DW	0204H
	DW	0186H
	DD	042c65555r			; 99.1667
	DW	0204H
	DW	0185H
	DD	042c80000r			; 100
	DW	0204H
	DW	0184H
	DD	042c9aaabr			; 100.833
	DW	0204H
	DW	0183H
	DD	042cb5555r			; 101.667
	DW	0204H
	DW	0182H
	DD	042cd0000r			; 102.5
	DW	0204H
	DW	0181H
	DD	042ceaaabr			; 103.333
	DW	0204H
	DW	0180H
	DD	042d05555r			; 104.167
	DW	0204H
	DW	017fH
	DD	042d20000r			; 105
	DW	0204H
	DW	017eH
	DD	042d3aaabr			; 105.833
	DW	0204H
	DW	017dH
	DD	042d55555r			; 106.667
	DW	0204H
	DW	017cH
	DD	042d70000r			; 107.5
	DW	0204H
	DW	017bH
	DD	042d8aaabr			; 108.333
	DW	0204H
	DW	017aH
	DD	042da5555r			; 109.167
	DW	0204H
	DW	0179H
	DD	042dc0000r			; 110
	DW	00H
	DW	00H
	DD	07f7fffffr			; 3.40282e+38
?rh_engine_rpm_indicator_line3_down_20_ahead@@3PAUSCALE_DATA@@A DW 0205H ; rh_engine_rpm_indicator_line3_down_20_ahead
	DW	01c6H
	DD	000000000r			; 0
	DW	0205H
	DW	01c5H
	DD	040a00000r			; 5
	DW	0205H
	DW	01c4H
	DD	041200000r			; 10
	DW	0205H
	DW	01c3H
	DD	041555555r			; 13.3333
	DW	0205H
	DW	01c2H
	DD	041855555r			; 16.6667
	DW	0205H
	DW	01c1H
	DD	041a00000r			; 20
	DW	0205H
	DW	01c0H
	DD	041baaaabr			; 23.3333
	DW	0205H
	DW	01bfH
	DD	041d55555r			; 26.6667
	DW	0205H
	DW	01beH
	DD	041f00000r			; 30
	DW	0205H
	DW	01bdH
	DD	0420c0000r			; 35
	DW	0205H
	DW	01bcH
	DD	042200000r			; 40
	DW	0205H
	DW	01bbH
	DD	0422d5555r			; 43.3333
	DW	0205H
	DW	01baH
	DD	0423aaaabr			; 46.6667
	DW	0205H
	DW	01b9H
	DD	042480000r			; 50
	DW	0205H
	DW	01b8H
	DD	042555555r			; 53.3333
	DW	0205H
	DW	01b7H
	DD	04262aaabr			; 56.6667
	DW	0205H
	DW	01b6H
	DD	042700000r			; 60
	DW	0205H
	DW	01b5H
	DD	042735555r			; 60.8333
	DW	0205H
	DW	01b4H
	DD	04276aaabr			; 61.6667
	DW	0205H
	DW	01b3H
	DD	0427a0000r			; 62.5
	DW	0205H
	DW	01b2H
	DD	0427d5555r			; 63.3333
	DW	0205H
	DW	01b1H
	DD	042805555r			; 64.1667
	DW	0205H
	DW	01b0H
	DD	042820000r			; 65
	DW	0205H
	DW	01afH
	DD	04283aaabr			; 65.8333
	DW	0205H
	DW	01aeH
	DD	042855555r			; 66.6667
	DW	0205H
	DW	01adH
	DD	042870000r			; 67.5
	DW	0205H
	DW	01acH
	DD	04288aaabr			; 68.3333
	DW	0205H
	DW	01abH
	DD	0428a5555r			; 69.1667
	DW	0205H
	DW	01aaH
	DD	0428c0000r			; 70
	DW	0205H
	DW	01a9H
	DD	0428daaabr			; 70.8333
	DW	0205H
	DW	01a8H
	DD	0428f5555r			; 71.6667
	DW	0205H
	DW	01a7H
	DD	042910000r			; 72.5
	DW	0205H
	DW	01a6H
	DD	04292aaabr			; 73.3333
	DW	0205H
	DW	01a5H
	DD	042945555r			; 74.1667
	DW	0205H
	DW	01a4H
	DD	042960000r			; 75
	DW	0205H
	DW	01a3H
	DD	04297aaabr			; 75.8333
	DW	0205H
	DW	01a2H
	DD	042995555r			; 76.6667
	DW	0205H
	DW	01a1H
	DD	0429b0000r			; 77.5
	DW	0205H
	DW	01a0H
	DD	0429caaabr			; 78.3333
	DW	0205H
	DW	019fH
	DD	0429e5555r			; 79.1667
	DW	0205H
	DW	019eH
	DD	042a00000r			; 80
	DW	0205H
	DW	019dH
	DD	042a189d9r			; 80.7692
	DW	0205H
	DW	019cH
	DD	042a313b1r			; 81.5385
	DW	0205H
	DW	019bH
	DD	042a49d8ar			; 82.3077
	DW	0205H
	DW	019aH
	DD	042a62762r			; 83.0769
	DW	0205H
	DW	0199H
	DD	042a7b13br			; 83.8462
	DW	0205H
	DW	0198H
	DD	042a93b14r			; 84.6154
	DW	0205H
	DW	0197H
	DD	042aac4ecr			; 85.3846
	DW	0205H
	DW	0196H
	DD	042ac4ec5r			; 86.1538
	DW	0205H
	DW	0195H
	DD	042add89er			; 86.9231
	DW	0205H
	DW	0194H
	DD	042af6276r			; 87.6923
	DW	0205H
	DW	0193H
	DD	042b0ec4fr			; 88.4615
	DW	0205H
	DW	0192H
	DD	042b27627r			; 89.2308
	DW	0205H
	DW	0191H
	DD	042b40000r			; 90
	DW	0205H
	DW	0190H
	DD	042b5aaabr			; 90.8333
	DW	0205H
	DW	018fH
	DD	042b75555r			; 91.6667
	DW	0205H
	DW	018eH
	DD	042b90000r			; 92.5
	DW	0205H
	DW	018dH
	DD	042baaaabr			; 93.3333
	DW	0205H
	DW	018cH
	DD	042bc5555r			; 94.1667
	DW	0205H
	DW	018bH
	DD	042be0000r			; 95
	DW	0205H
	DW	018aH
	DD	042bfaaabr			; 95.8333
	DW	0205H
	DW	0189H
	DD	042c15555r			; 96.6667
	DW	0205H
	DW	0188H
	DD	042c30000r			; 97.5
	DW	0205H
	DW	0187H
	DD	042c4aaabr			; 98.3333
	DW	0205H
	DW	0186H
	DD	042c65555r			; 99.1667
	DW	0205H
	DW	0185H
	DD	042c80000r			; 100
	DW	0205H
	DW	0184H
	DD	042c9aaabr			; 100.833
	DW	0205H
	DW	0183H
	DD	042cb5555r			; 101.667
	DW	0205H
	DW	0182H
	DD	042cd0000r			; 102.5
	DW	0205H
	DW	0181H
	DD	042ceaaabr			; 103.333
	DW	0205H
	DW	0180H
	DD	042d05555r			; 104.167
	DW	0205H
	DW	017fH
	DD	042d20000r			; 105
	DW	0205H
	DW	017eH
	DD	042d3aaabr			; 105.833
	DW	0205H
	DW	017dH
	DD	042d55555r			; 106.667
	DW	0205H
	DW	017cH
	DD	042d70000r			; 107.5
	DW	0205H
	DW	017bH
	DD	042d8aaabr			; 108.333
	DW	0205H
	DW	017aH
	DD	042da5555r			; 109.167
	DW	0205H
	DW	0179H
	DD	042dc0000r			; 110
	DW	00H
	DW	00H
	DD	07f7fffffr			; 3.40282e+38
?lh_engine_rpm_indicator_line1_down_20_right_30@@3PAUSCALE_DATA@@A DW 0feH ; lh_engine_rpm_indicator_line1_down_20_right_30
	DW	01b1H
	DD	000000000r			; 0
	DW	0feH
	DW	01b0H
	DD	040a00000r			; 5
	DW	0fdH
	DW	01afH
	DD	041200000r			; 10
	DW	0fdH
	DW	01aeH
	DD	041555555r			; 13.3333
	DW	0fdH
	DW	01adH
	DD	041855555r			; 16.6667
	DW	0fdH
	DW	01acH
	DD	041a00000r			; 20
	DW	0fdH
	DW	01abH
	DD	041c80000r			; 25
	DW	0fdH
	DW	01aaH
	DD	041f00000r			; 30
	DW	0fcH
	DW	01a9H
	DD	042055555r			; 33.3333
	DW	0fcH
	DW	01a8H
	DD	04212aaabr			; 36.6667
	DW	0fcH
	DW	01a7H
	DD	042200000r			; 40
	DW	0fcH
	DW	01a6H
	DD	042340000r			; 45
	DW	0fcH
	DW	01a5H
	DD	042480000r			; 50
	DW	0fbH
	DW	01a4H
	DD	042555555r			; 53.3333
	DW	0fbH
	DW	01a3H
	DD	04262aaabr			; 56.6667
	DW	0fbH
	DW	01a2H
	DD	042700000r			; 60
	DW	0fbH
	DW	01a1H
	DD	04273a2e9r			; 60.9091
	DW	0fbH
	DW	01a0H
	DD	0427745d1r			; 61.8182
	DW	0fbH
	DW	019fH
	DD	0427ae8bar			; 62.7273
	DW	0faH
	DW	019eH
	DD	0427e8ba3r			; 63.6364
	DW	0faH
	DW	019dH
	DD	042811746r			; 64.5455
	DW	0faH
	DW	019cH
	DD	04282e8bar			; 65.4545
	DW	0faH
	DW	019bH
	DD	04284ba2fr			; 66.3636
	DW	0faH
	DW	019aH
	DD	042868ba3r			; 67.2727
	DW	0f9H
	DW	0199H
	DD	042885d17r			; 68.1818
	DW	0f9H
	DW	0198H
	DD	0428a2e8cr			; 69.0909
	DW	0f9H
	DW	0197H
	DD	0428c0000r			; 70
	DW	0f9H
	DW	0196H
	DD	0428dd174r			; 70.9091
	DW	0f9H
	DW	0195H
	DD	0428fa2e9r			; 71.8182
	DW	0f9H
	DW	0194H
	DD	04291745dr			; 72.7273
	DW	0f8H
	DW	0193H
	DD	0429345d1r			; 73.6364
	DW	0f8H
	DW	0192H
	DD	042951746r			; 74.5455
	DW	0f8H
	DW	0191H
	DD	04296e8bar			; 75.4545
	DW	0f8H
	DW	0190H
	DD	04298ba2fr			; 76.3636
	DW	0f8H
	DW	018fH
	DD	0429a8ba3r			; 77.2727
	DW	0f7H
	DW	018eH
	DD	0429c5d17r			; 78.1818
	DW	0f7H
	DW	018dH
	DD	0429e2e8cr			; 79.0909
	DW	0f7H
	DW	018cH
	DD	042a00000r			; 80
	DW	0f7H
	DW	018bH
	DD	042a1aaabr			; 80.8333
	DW	0f7H
	DW	018aH
	DD	042a35555r			; 81.6667
	DW	0f7H
	DW	0189H
	DD	042a50000r			; 82.5
	DW	0f6H
	DW	0188H
	DD	042a6aaabr			; 83.3333
	DW	0f6H
	DW	0187H
	DD	042a85555r			; 84.1667
	DW	0f6H
	DW	0186H
	DD	042aa0000r			; 85
	DW	0f6H
	DW	0185H
	DD	042abaaabr			; 85.8333
	DW	0f6H
	DW	0184H
	DD	042ad5555r			; 86.6667
	DW	0f5H
	DW	0183H
	DD	042af0000r			; 87.5
	DW	0f5H
	DW	0182H
	DD	042b0aaabr			; 88.3333
	DW	0f5H
	DW	0181H
	DD	042b25555r			; 89.1667
	DW	0f5H
	DW	0180H
	DD	042b40000r			; 90
	DW	0f5H
	DW	017fH
	DD	042b5d174r			; 90.9091
	DW	0f5H
	DW	017eH
	DD	042b7a2e9r			; 91.8182
	DW	0f4H
	DW	017dH
	DD	042b9745dr			; 92.7273
	DW	0f4H
	DW	017cH
	DD	042bb45d1r			; 93.6364
	DW	0f4H
	DW	017bH
	DD	042bd1746r			; 94.5455
	DW	0f4H
	DW	017aH
	DD	042bee8bar			; 95.4545
	DW	0f4H
	DW	0179H
	DD	042c0ba2fr			; 96.3636
	DW	0f3H
	DW	0178H
	DD	042c28ba3r			; 97.2727
	DW	0f3H
	DW	0177H
	DD	042c45d17r			; 98.1818
	DW	0f3H
	DW	0176H
	DD	042c62e8cr			; 99.0909
	DW	0f3H
	DW	0175H
	DD	042c80000r			; 100
	DW	0f3H
	DW	0174H
	DD	042c9aaabr			; 100.833
	DW	0f3H
	DW	0173H
	DD	042cb5555r			; 101.667
	DW	0f2H
	DW	0172H
	DD	042cd0000r			; 102.5
	DW	0f2H
	DW	0171H
	DD	042ceaaabr			; 103.333
	DW	0f2H
	DW	0170H
	DD	042d05555r			; 104.167
	DW	0f2H
	DW	016fH
	DD	042d20000r			; 105
	DW	0f2H
	DW	016eH
	DD	042d3aaabr			; 105.833
	DW	0f1H
	DW	016dH
	DD	042d55555r			; 106.667
	DW	0f1H
	DW	016cH
	DD	042d70000r			; 107.5
	DW	0f1H
	DW	016bH
	DD	042d8aaabr			; 108.333
	DW	0f1H
	DW	016aH
	DD	042da5555r			; 109.167
	DW	0f1H
	DW	0169H
	DD	042dc0000r			; 110
	DW	00H
	DW	00H
	DD	07f7fffffr			; 3.40282e+38
?lh_engine_rpm_indicator_line2_down_20_right_30@@3PAUSCALE_DATA@@A DW 0ffH ; lh_engine_rpm_indicator_line2_down_20_right_30
	DW	01b1H
	DD	000000000r			; 0
	DW	0ffH
	DW	01b0H
	DD	040a00000r			; 5
	DW	0feH
	DW	01afH
	DD	041200000r			; 10
	DW	0feH
	DW	01aeH
	DD	041555555r			; 13.3333
	DW	0feH
	DW	01adH
	DD	041855555r			; 16.6667
	DW	0feH
	DW	01acH
	DD	041a00000r			; 20
	DW	0fdH
	DW	01abH
	DD	041c80000r			; 25
	DW	0fdH
	DW	01aaH
	DD	041f00000r			; 30
	DW	0fdH
	DW	01a9H
	DD	042055555r			; 33.3333
	DW	0fdH
	DW	01a8H
	DD	04212aaabr			; 36.6667
	DW	0fdH
	DW	01a7H
	DD	042200000r			; 40
	DW	0fdH
	DW	01a6H
	DD	042340000r			; 45
	DW	0fcH
	DW	01a5H
	DD	042480000r			; 50
	DW	0fcH
	DW	01a4H
	DD	042555555r			; 53.3333
	DW	0fcH
	DW	01a3H
	DD	04262aaabr			; 56.6667
	DW	0fcH
	DW	01a2H
	DD	042700000r			; 60
	DW	0fcH
	DW	01a1H
	DD	04273a2e9r			; 60.9091
	DW	0fcH
	DW	01a0H
	DD	0427745d1r			; 61.8182
	DW	0fcH
	DW	019fH
	DD	0427ae8bar			; 62.7273
	DW	0fbH
	DW	019eH
	DD	0427e8ba3r			; 63.6364
	DW	0fbH
	DW	019dH
	DD	042811746r			; 64.5455
	DW	0fbH
	DW	019cH
	DD	04282e8bar			; 65.4545
	DW	0fbH
	DW	019bH
	DD	04284ba2fr			; 66.3636
	DW	0faH
	DW	019aH
	DD	042868ba3r			; 67.2727
	DW	0faH
	DW	0199H
	DD	042885d17r			; 68.1818
	DW	0faH
	DW	0198H
	DD	0428a2e8cr			; 69.0909
	DW	0faH
	DW	0197H
	DD	0428c0000r			; 70
	DW	0faH
	DW	0196H
	DD	0428dd174r			; 70.9091
	DW	0faH
	DW	0195H
	DD	0428fa2e9r			; 71.8182
	DW	0faH
	DW	0194H
	DD	04291745dr			; 72.7273
	DW	0f9H
	DW	0193H
	DD	0429345d1r			; 73.6364
	DW	0f9H
	DW	0192H
	DD	042951746r			; 74.5455
	DW	0f9H
	DW	0191H
	DD	04296e8bar			; 75.4545
	DW	0f9H
	DW	0190H
	DD	04298ba2fr			; 76.3636
	DW	0f8H
	DW	018fH
	DD	0429a8ba3r			; 77.2727
	DW	0f8H
	DW	018eH
	DD	0429c5d17r			; 78.1818
	DW	0f8H
	DW	018dH
	DD	0429e2e8cr			; 79.0909
	DW	0f8H
	DW	018cH
	DD	042a00000r			; 80
	DW	0f8H
	DW	018bH
	DD	042a1aaabr			; 80.8333
	DW	0f8H
	DW	018aH
	DD	042a35555r			; 81.6667
	DW	0f8H
	DW	0189H
	DD	042a50000r			; 82.5
	DW	0f7H
	DW	0188H
	DD	042a6aaabr			; 83.3333
	DW	0f7H
	DW	0187H
	DD	042a85555r			; 84.1667
	DW	0f7H
	DW	0186H
	DD	042aa0000r			; 85
	DW	0f7H
	DW	0185H
	DD	042abaaabr			; 85.8333
	DW	0f7H
	DW	0184H
	DD	042ad5555r			; 86.6667
	DW	0f6H
	DW	0183H
	DD	042af0000r			; 87.5
	DW	0f6H
	DW	0182H
	DD	042b0aaabr			; 88.3333
	DW	0f6H
	DW	0181H
	DD	042b25555r			; 89.1667
	DW	0f6H
	DW	0180H
	DD	042b40000r			; 90
	DW	0f6H
	DW	017fH
	DD	042b5d174r			; 90.9091
	DW	0f6H
	DW	017eH
	DD	042b7a2e9r			; 91.8182
	DW	0f5H
	DW	017dH
	DD	042b9745dr			; 92.7273
	DW	0f5H
	DW	017cH
	DD	042bb45d1r			; 93.6364
	DW	0f5H
	DW	017bH
	DD	042bd1746r			; 94.5455
	DW	0f5H
	DW	017aH
	DD	042bee8bar			; 95.4545
	DW	0f5H
	DW	0179H
	DD	042c0ba2fr			; 96.3636
	DW	0f4H
	DW	0178H
	DD	042c28ba3r			; 97.2727
	DW	0f4H
	DW	0177H
	DD	042c45d17r			; 98.1818
	DW	0f4H
	DW	0176H
	DD	042c62e8cr			; 99.0909
	DW	0f4H
	DW	0175H
	DD	042c80000r			; 100
	DW	0f4H
	DW	0174H
	DD	042c9aaabr			; 100.833
	DW	0f3H
	DW	0173H
	DD	042cb5555r			; 101.667
	DW	0f3H
	DW	0172H
	DD	042cd0000r			; 102.5
	DW	0f3H
	DW	0171H
	DD	042ceaaabr			; 103.333
	DW	0f3H
	DW	0170H
	DD	042d05555r			; 104.167
	DW	0f3H
	DW	016fH
	DD	042d20000r			; 105
	DW	0f2H
	DW	016eH
	DD	042d3aaabr			; 105.833
	DW	0f2H
	DW	016dH
	DD	042d55555r			; 106.667
	DW	0f2H
	DW	016cH
	DD	042d70000r			; 107.5
	DW	0f2H
	DW	016bH
	DD	042d8aaabr			; 108.333
	DW	0f2H
	DW	016aH
	DD	042da5555r			; 109.167
	DW	0f2H
	DW	0169H
	DD	042dc0000r			; 110
	DW	00H
	DW	00H
	DD	07f7fffffr			; 3.40282e+38
?lh_engine_rpm_indicator_line3_down_20_right_30@@3PAUSCALE_DATA@@A DW 0100H ; lh_engine_rpm_indicator_line3_down_20_right_30
	DW	01b1H
	DD	000000000r			; 0
	DW	0ffH
	DW	01b0H
	DD	040a00000r			; 5
	DW	0ffH
	DW	01afH
	DD	041200000r			; 10
	DW	0ffH
	DW	01aeH
	DD	041555555r			; 13.3333
	DW	0ffH
	DW	01adH
	DD	041855555r			; 16.6667
	DW	0ffH
	DW	01acH
	DD	041a00000r			; 20
	DW	0feH
	DW	01abH
	DD	041c80000r			; 25
	DW	0feH
	DW	01aaH
	DD	041f00000r			; 30
	DW	0feH
	DW	01a9H
	DD	042055555r			; 33.3333
	DW	0feH
	DW	01a8H
	DD	04212aaabr			; 36.6667
	DW	0feH
	DW	01a7H
	DD	042200000r			; 40
	DW	0feH
	DW	01a6H
	DD	042340000r			; 45
	DW	0fdH
	DW	01a5H
	DD	042480000r			; 50
	DW	0fdH
	DW	01a4H
	DD	042555555r			; 53.3333
	DW	0fdH
	DW	01a3H
	DD	04262aaabr			; 56.6667
	DW	0fdH
	DW	01a2H
	DD	042700000r			; 60
	DW	0fdH
	DW	01a1H
	DD	04273a2e9r			; 60.9091
	DW	0fcH
	DW	01a0H
	DD	0427745d1r			; 61.8182
	DW	0fcH
	DW	019fH
	DD	0427ae8bar			; 62.7273
	DW	0fcH
	DW	019eH
	DD	0427e8ba3r			; 63.6364
	DW	0fcH
	DW	019dH
	DD	042811746r			; 64.5455
	DW	0fcH
	DW	019cH
	DD	04282e8bar			; 65.4545
	DW	0fcH
	DW	019bH
	DD	04284ba2fr			; 66.3636
	DW	0fbH
	DW	019aH
	DD	042868ba3r			; 67.2727
	DW	0fbH
	DW	0199H
	DD	042885d17r			; 68.1818
	DW	0fbH
	DW	0198H
	DD	0428a2e8cr			; 69.0909
	DW	0fbH
	DW	0197H
	DD	0428c0000r			; 70
	DW	0fbH
	DW	0196H
	DD	0428dd174r			; 70.9091
	DW	0faH
	DW	0195H
	DD	0428fa2e9r			; 71.8182
	DW	0faH
	DW	0194H
	DD	04291745dr			; 72.7273
	DW	0faH
	DW	0193H
	DD	0429345d1r			; 73.6364
	DW	0faH
	DW	0192H
	DD	042951746r			; 74.5455
	DW	0faH
	DW	0191H
	DD	04296e8bar			; 75.4545
	DW	0faH
	DW	0190H
	DD	04298ba2fr			; 76.3636
	DW	0f9H
	DW	018fH
	DD	0429a8ba3r			; 77.2727
	DW	0f9H
	DW	018eH
	DD	0429c5d17r			; 78.1818
	DW	0f9H
	DW	018dH
	DD	0429e2e8cr			; 79.0909
	DW	0f9H
	DW	018cH
	DD	042a00000r			; 80
	DW	0f9H
	DW	018bH
	DD	042a1aaabr			; 80.8333
	DW	0f8H
	DW	018aH
	DD	042a35555r			; 81.6667
	DW	0f8H
	DW	0189H
	DD	042a50000r			; 82.5
	DW	0f8H
	DW	0188H
	DD	042a6aaabr			; 83.3333
	DW	0f8H
	DW	0187H
	DD	042a85555r			; 84.1667
	DW	0f8H
	DW	0186H
	DD	042aa0000r			; 85
	DW	0f8H
	DW	0185H
	DD	042abaaabr			; 85.8333
	DW	0f7H
	DW	0184H
	DD	042ad5555r			; 86.6667
	DW	0f7H
	DW	0183H
	DD	042af0000r			; 87.5
	DW	0f7H
	DW	0182H
	DD	042b0aaabr			; 88.3333
	DW	0f7H
	DW	0181H
	DD	042b25555r			; 89.1667
	DW	0f7H
	DW	0180H
	DD	042b40000r			; 90
	DW	0f7H
	DW	017fH
	DD	042b5d174r			; 90.9091
	DW	0f6H
	DW	017eH
	DD	042b7a2e9r			; 91.8182
	DW	0f6H
	DW	017dH
	DD	042b9745dr			; 92.7273
	DW	0f6H
	DW	017cH
	DD	042bb45d1r			; 93.6364
	DW	0f6H
	DW	017bH
	DD	042bd1746r			; 94.5455
	DW	0f6H
	DW	017aH
	DD	042bee8bar			; 95.4545
	DW	0f5H
	DW	0179H
	DD	042c0ba2fr			; 96.3636
	DW	0f5H
	DW	0178H
	DD	042c28ba3r			; 97.2727
	DW	0f5H
	DW	0177H
	DD	042c45d17r			; 98.1818
	DW	0f5H
	DW	0176H
	DD	042c62e8cr			; 99.0909
	DW	0f5H
	DW	0175H
	DD	042c80000r			; 100
	DW	0f5H
	DW	0174H
	DD	042c9aaabr			; 100.833
	DW	0f4H
	DW	0173H
	DD	042cb5555r			; 101.667
	DW	0f4H
	DW	0172H
	DD	042cd0000r			; 102.5
	DW	0f4H
	DW	0171H
	DD	042ceaaabr			; 103.333
	DW	0f4H
	DW	0170H
	DD	042d05555r			; 104.167
	DW	0f4H
	DW	016fH
	DD	042d20000r			; 105
	DW	0f3H
	DW	016eH
	DD	042d3aaabr			; 105.833
	DW	0f3H
	DW	016dH
	DD	042d55555r			; 106.667
	DW	0f3H
	DW	016cH
	DD	042d70000r			; 107.5
	DW	0f3H
	DW	016bH
	DD	042d8aaabr			; 108.333
	DW	0f3H
	DW	016aH
	DD	042da5555r			; 109.167
	DW	0f3H
	DW	0169H
	DD	042dc0000r			; 110
	DW	00H
	DW	00H
	DD	07f7fffffr			; 3.40282e+38
?rh_engine_rpm_indicator_line1_down_20_right_30@@3PAUSCALE_DATA@@A DW 010cH ; rh_engine_rpm_indicator_line1_down_20_right_30
	DW	01aeH
	DD	000000000r			; 0
	DW	010cH
	DW	01adH
	DD	040555555r			; 3.33333
	DW	010cH
	DW	01acH
	DD	040d55555r			; 6.66667
	DW	010cH
	DW	01abH
	DD	041200000r			; 10
	DW	010cH
	DW	01aaH
	DD	041700000r			; 15
	DW	010bH
	DW	01a9H
	DD	041a00000r			; 20
	DW	010bH
	DW	01a8H
	DD	041baaaabr			; 23.3333
	DW	010bH
	DW	01a7H
	DD	041d55555r			; 26.6667
	DW	010bH
	DW	01a6H
	DD	041f00000r			; 30
	DW	010bH
	DW	01a5H
	DD	0420c0000r			; 35
	DW	010bH
	DW	01a4H
	DD	042200000r			; 40
	DW	010aH
	DW	01a3H
	DD	0422d5555r			; 43.3333
	DW	010aH
	DW	01a2H
	DD	0423aaaabr			; 46.6667
	DW	010aH
	DW	01a1H
	DD	042480000r			; 50
	DW	010aH
	DW	01a0H
	DD	0425c0000r			; 55
	DW	010aH
	DW	019fH
	DD	042700000r			; 60
	DW	0109H
	DW	019eH
	DD	04273a2e9r			; 60.9091
	DW	0109H
	DW	019dH
	DD	0427745d1r			; 61.8182
	DW	0109H
	DW	019cH
	DD	0427ae8bar			; 62.7273
	DW	0109H
	DW	019bH
	DD	0427e8ba3r			; 63.6364
	DW	0109H
	DW	019aH
	DD	042811746r			; 64.5455
	DW	0109H
	DW	0199H
	DD	04282e8bar			; 65.4545
	DW	0108H
	DW	0198H
	DD	04284ba2fr			; 66.3636
	DW	0108H
	DW	0197H
	DD	042868ba3r			; 67.2727
	DW	0108H
	DW	0196H
	DD	042885d17r			; 68.1818
	DW	0108H
	DW	0195H
	DD	0428a2e8cr			; 69.0909
	DW	0108H
	DW	0194H
	DD	0428c0000r			; 70
	DW	0107H
	DW	0193H
	DD	0428dd174r			; 70.9091
	DW	0107H
	DW	0192H
	DD	0428fa2e9r			; 71.8182
	DW	0107H
	DW	0191H
	DD	04291745dr			; 72.7273
	DW	0107H
	DW	0190H
	DD	0429345d1r			; 73.6364
	DW	0107H
	DW	018fH
	DD	042951746r			; 74.5455
	DW	0107H
	DW	018eH
	DD	04296e8bar			; 75.4545
	DW	0106H
	DW	018dH
	DD	04298ba2fr			; 76.3636
	DW	0106H
	DW	018cH
	DD	0429a8ba3r			; 77.2727
	DW	0106H
	DW	018bH
	DD	0429c5d17r			; 78.1818
	DW	0106H
	DW	018aH
	DD	0429e2e8cr			; 79.0909
	DW	0106H
	DW	0189H
	DD	042a00000r			; 80
	DW	0106H
	DW	0188H
	DD	042a1aaabr			; 80.8333
	DW	0105H
	DW	0187H
	DD	042a35555r			; 81.6667
	DW	0105H
	DW	0186H
	DD	042a50000r			; 82.5
	DW	0105H
	DW	0185H
	DD	042a6aaabr			; 83.3333
	DW	0105H
	DW	0184H
	DD	042a85555r			; 84.1667
	DW	0105H
	DW	0183H
	DD	042aa0000r			; 85
	DW	0104H
	DW	0182H
	DD	042abaaabr			; 85.8333
	DW	0104H
	DW	0181H
	DD	042ad5555r			; 86.6667
	DW	0104H
	DW	0180H
	DD	042af0000r			; 87.5
	DW	0104H
	DW	017fH
	DD	042b0aaabr			; 88.3333
	DW	0104H
	DW	017eH
	DD	042b25555r			; 89.1667
	DW	0104H
	DW	017dH
	DD	042b40000r			; 90
	DW	0103H
	DW	017cH
	DD	042b5d174r			; 90.9091
	DW	0103H
	DW	017bH
	DD	042b7a2e9r			; 91.8182
	DW	0103H
	DW	017aH
	DD	042b9745dr			; 92.7273
	DW	0103H
	DW	0179H
	DD	042bb45d1r			; 93.6364
	DW	0103H
	DW	0178H
	DD	042bd1746r			; 94.5455
	DW	0102H
	DW	0177H
	DD	042bee8bar			; 95.4545
	DW	0102H
	DW	0176H
	DD	042c0ba2fr			; 96.3636
	DW	0102H
	DW	0175H
	DD	042c28ba3r			; 97.2727
	DW	0102H
	DW	0174H
	DD	042c45d17r			; 98.1818
	DW	0102H
	DW	0173H
	DD	042c62e8cr			; 99.0909
	DW	0102H
	DW	0172H
	DD	042c80000r			; 100
	DW	0101H
	DW	0171H
	DD	042c9aaabr			; 100.833
	DW	0101H
	DW	0170H
	DD	042cb5555r			; 101.667
	DW	0101H
	DW	016fH
	DD	042cd0000r			; 102.5
	DW	0101H
	DW	016eH
	DD	042ceaaabr			; 103.333
	DW	0101H
	DW	016dH
	DD	042d05555r			; 104.167
	DW	0100H
	DW	016cH
	DD	042d20000r			; 105
	DW	0100H
	DW	016bH
	DD	042d3aaabr			; 105.833
	DW	0100H
	DW	016aH
	DD	042d55555r			; 106.667
	DW	0100H
	DW	0169H
	DD	042d70000r			; 107.5
	DW	0100H
	DW	0168H
	DD	042d8aaabr			; 108.333
	DW	0100H
	DW	0167H
	DD	042da5555r			; 109.167
	DW	0ffH
	DW	0166H
	DD	042dc0000r			; 110
	DW	00H
	DW	00H
	DD	07f7fffffr			; 3.40282e+38
?rh_engine_rpm_indicator_line2_down_20_right_30@@3PAUSCALE_DATA@@A DW 010dH ; rh_engine_rpm_indicator_line2_down_20_right_30
	DW	01aeH
	DD	000000000r			; 0
	DW	010dH
	DW	01adH
	DD	040555555r			; 3.33333
	DW	010dH
	DW	01acH
	DD	040d55555r			; 6.66667
	DW	010dH
	DW	01abH
	DD	041200000r			; 10
	DW	010cH
	DW	01aaH
	DD	041700000r			; 15
	DW	010cH
	DW	01a9H
	DD	041a00000r			; 20
	DW	010cH
	DW	01a8H
	DD	041baaaabr			; 23.3333
	DW	010cH
	DW	01a7H
	DD	041d55555r			; 26.6667
	DW	010cH
	DW	01a6H
	DD	041f00000r			; 30
	DW	010bH
	DW	01a5H
	DD	0420c0000r			; 35
	DW	010bH
	DW	01a4H
	DD	042200000r			; 40
	DW	010bH
	DW	01a3H
	DD	0422d5555r			; 43.3333
	DW	010bH
	DW	01a2H
	DD	0423aaaabr			; 46.6667
	DW	010bH
	DW	01a1H
	DD	042480000r			; 50
	DW	010bH
	DW	01a0H
	DD	0425c0000r			; 55
	DW	010aH
	DW	019fH
	DD	042700000r			; 60
	DW	010aH
	DW	019eH
	DD	04273a2e9r			; 60.9091
	DW	010aH
	DW	019dH
	DD	0427745d1r			; 61.8182
	DW	010aH
	DW	019cH
	DD	0427ae8bar			; 62.7273
	DW	010aH
	DW	019bH
	DD	0427e8ba3r			; 63.6364
	DW	0109H
	DW	019aH
	DD	042811746r			; 64.5455
	DW	0109H
	DW	0199H
	DD	04282e8bar			; 65.4545
	DW	0109H
	DW	0198H
	DD	04284ba2fr			; 66.3636
	DW	0109H
	DW	0197H
	DD	042868ba3r			; 67.2727
	DW	0109H
	DW	0196H
	DD	042885d17r			; 68.1818
	DW	0109H
	DW	0195H
	DD	0428a2e8cr			; 69.0909
	DW	0108H
	DW	0194H
	DD	0428c0000r			; 70
	DW	0108H
	DW	0193H
	DD	0428dd174r			; 70.9091
	DW	0108H
	DW	0192H
	DD	0428fa2e9r			; 71.8182
	DW	0108H
	DW	0191H
	DD	04291745dr			; 72.7273
	DW	0108H
	DW	0190H
	DD	0429345d1r			; 73.6364
	DW	0107H
	DW	018fH
	DD	042951746r			; 74.5455
	DW	0107H
	DW	018eH
	DD	04296e8bar			; 75.4545
	DW	0107H
	DW	018dH
	DD	04298ba2fr			; 76.3636
	DW	0107H
	DW	018cH
	DD	0429a8ba3r			; 77.2727
	DW	0107H
	DW	018bH
	DD	0429c5d17r			; 78.1818
	DW	0107H
	DW	018aH
	DD	0429e2e8cr			; 79.0909
	DW	0106H
	DW	0189H
	DD	042a00000r			; 80
	DW	0106H
	DW	0188H
	DD	042a1aaabr			; 80.8333
	DW	0106H
	DW	0187H
	DD	042a35555r			; 81.6667
	DW	0106H
	DW	0186H
	DD	042a50000r			; 82.5
	DW	0106H
	DW	0185H
	DD	042a6aaabr			; 83.3333
	DW	0106H
	DW	0184H
	DD	042a85555r			; 84.1667
	DW	0106H
	DW	0183H
	DD	042aa0000r			; 85
	DW	0105H
	DW	0182H
	DD	042abaaabr			; 85.8333
	DW	0105H
	DW	0181H
	DD	042ad5555r			; 86.6667
	DW	0105H
	DW	0180H
	DD	042af0000r			; 87.5
	DW	0105H
	DW	017fH
	DD	042b0aaabr			; 88.3333
	DW	0104H
	DW	017eH
	DD	042b25555r			; 89.1667
	DW	0104H
	DW	017dH
	DD	042b40000r			; 90
	DW	0104H
	DW	017cH
	DD	042b5d174r			; 90.9091
	DW	0104H
	DW	017bH
	DD	042b7a2e9r			; 91.8182
	DW	0104H
	DW	017aH
	DD	042b9745dr			; 92.7273
	DW	0104H
	DW	0179H
	DD	042bb45d1r			; 93.6364
	DW	0103H
	DW	0178H
	DD	042bd1746r			; 94.5455
	DW	0103H
	DW	0177H
	DD	042bee8bar			; 95.4545
	DW	0103H
	DW	0176H
	DD	042c0ba2fr			; 96.3636
	DW	0103H
	DW	0175H
	DD	042c28ba3r			; 97.2727
	DW	0103H
	DW	0174H
	DD	042c45d17r			; 98.1818
	DW	0102H
	DW	0173H
	DD	042c62e8cr			; 99.0909
	DW	0102H
	DW	0172H
	DD	042c80000r			; 100
	DW	0102H
	DW	0171H
	DD	042c9aaabr			; 100.833
	DW	0102H
	DW	0170H
	DD	042cb5555r			; 101.667
	DW	0102H
	DW	016fH
	DD	042cd0000r			; 102.5
	DW	0102H
	DW	016eH
	DD	042ceaaabr			; 103.333
	DW	0101H
	DW	016dH
	DD	042d05555r			; 104.167
	DW	0101H
	DW	016cH
	DD	042d20000r			; 105
	DW	0101H
	DW	016bH
	DD	042d3aaabr			; 105.833
	DW	0101H
	DW	016aH
	DD	042d55555r			; 106.667
	DW	0101H
	DW	0169H
	DD	042d70000r			; 107.5
	DW	0100H
	DW	0168H
	DD	042d8aaabr			; 108.333
	DW	0100H
	DW	0167H
	DD	042da5555r			; 109.167
	DW	0100H
	DW	0166H
	DD	042dc0000r			; 110
	DW	00H
	DW	00H
	DD	07f7fffffr			; 3.40282e+38
?rh_engine_rpm_indicator_line3_down_20_right_30@@3PAUSCALE_DATA@@A DW 010eH ; rh_engine_rpm_indicator_line3_down_20_right_30
	DW	01aeH
	DD	000000000r			; 0
	DW	010eH
	DW	01adH
	DD	040555555r			; 3.33333
	DW	010eH
	DW	01acH
	DD	040d55555r			; 6.66667
	DW	010eH
	DW	01abH
	DD	041200000r			; 10
	DW	010dH
	DW	01aaH
	DD	041700000r			; 15
	DW	010dH
	DW	01a9H
	DD	041a00000r			; 20
	DW	010dH
	DW	01a8H
	DD	041baaaabr			; 23.3333
	DW	010dH
	DW	01a7H
	DD	041d55555r			; 26.6667
	DW	010dH
	DW	01a6H
	DD	041f00000r			; 30
	DW	010cH
	DW	01a5H
	DD	0420c0000r			; 35
	DW	010cH
	DW	01a4H
	DD	042200000r			; 40
	DW	010cH
	DW	01a3H
	DD	0422d5555r			; 43.3333
	DW	010cH
	DW	01a2H
	DD	0423aaaabr			; 46.6667
	DW	010cH
	DW	01a1H
	DD	042480000r			; 50
	DW	010cH
	DW	01a0H
	DD	0425c0000r			; 55
	DW	010bH
	DW	019fH
	DD	042700000r			; 60
	DW	010bH
	DW	019eH
	DD	04273a2e9r			; 60.9091
	DW	010bH
	DW	019dH
	DD	0427745d1r			; 61.8182
	DW	010bH
	DW	019cH
	DD	0427ae8bar			; 62.7273
	DW	010bH
	DW	019bH
	DD	0427e8ba3r			; 63.6364
	DW	010aH
	DW	019aH
	DD	042811746r			; 64.5455
	DW	010aH
	DW	0199H
	DD	04282e8bar			; 65.4545
	DW	010aH
	DW	0198H
	DD	04284ba2fr			; 66.3636
	DW	010aH
	DW	0197H
	DD	042868ba3r			; 67.2727
	DW	010aH
	DW	0196H
	DD	042885d17r			; 68.1818
	DW	010aH
	DW	0195H
	DD	0428a2e8cr			; 69.0909
	DW	0109H
	DW	0194H
	DD	0428c0000r			; 70
	DW	0109H
	DW	0193H
	DD	0428dd174r			; 70.9091
	DW	0109H
	DW	0192H
	DD	0428fa2e9r			; 71.8182
	DW	0109H
	DW	0191H
	DD	04291745dr			; 72.7273
	DW	0109H
	DW	0190H
	DD	0429345d1r			; 73.6364
	DW	0108H
	DW	018fH
	DD	042951746r			; 74.5455
	DW	0108H
	DW	018eH
	DD	04296e8bar			; 75.4545
	DW	0108H
	DW	018dH
	DD	04298ba2fr			; 76.3636
	DW	0108H
	DW	018cH
	DD	0429a8ba3r			; 77.2727
	DW	0108H
	DW	018bH
	DD	0429c5d17r			; 78.1818
	DW	0108H
	DW	018aH
	DD	0429e2e8cr			; 79.0909
	DW	0107H
	DW	0189H
	DD	042a00000r			; 80
	DW	0107H
	DW	0188H
	DD	042a1aaabr			; 80.8333
	DW	0107H
	DW	0187H
	DD	042a35555r			; 81.6667
	DW	0107H
	DW	0186H
	DD	042a50000r			; 82.5
	DW	0107H
	DW	0185H
	DD	042a6aaabr			; 83.3333
	DW	0107H
	DW	0184H
	DD	042a85555r			; 84.1667
	DW	0106H
	DW	0183H
	DD	042aa0000r			; 85
	DW	0106H
	DW	0182H
	DD	042abaaabr			; 85.8333
	DW	0106H
	DW	0181H
	DD	042ad5555r			; 86.6667
	DW	0106H
	DW	0180H
	DD	042af0000r			; 87.5
	DW	0106H
	DW	017fH
	DD	042b0aaabr			; 88.3333
	DW	0105H
	DW	017eH
	DD	042b25555r			; 89.1667
	DW	0105H
	DW	017dH
	DD	042b40000r			; 90
	DW	0105H
	DW	017cH
	DD	042b5d174r			; 90.9091
	DW	0105H
	DW	017bH
	DD	042b7a2e9r			; 91.8182
	DW	0105H
	DW	017aH
	DD	042b9745dr			; 92.7273
	DW	0105H
	DW	0179H
	DD	042bb45d1r			; 93.6364
	DW	0104H
	DW	0178H
	DD	042bd1746r			; 94.5455
	DW	0104H
	DW	0177H
	DD	042bee8bar			; 95.4545
	DW	0104H
	DW	0176H
	DD	042c0ba2fr			; 96.3636
	DW	0104H
	DW	0175H
	DD	042c28ba3r			; 97.2727
	DW	0104H
	DW	0174H
	DD	042c45d17r			; 98.1818
	DW	0103H
	DW	0173H
	DD	042c62e8cr			; 99.0909
	DW	0103H
	DW	0172H
	DD	042c80000r			; 100
	DW	0103H
	DW	0171H
	DD	042c9aaabr			; 100.833
	DW	0103H
	DW	0170H
	DD	042cb5555r			; 101.667
	DW	0103H
	DW	016fH
	DD	042cd0000r			; 102.5
	DW	0103H
	DW	016eH
	DD	042ceaaabr			; 103.333
	DW	0102H
	DW	016dH
	DD	042d05555r			; 104.167
	DW	0102H
	DW	016cH
	DD	042d20000r			; 105
	DW	0102H
	DW	016bH
	DD	042d3aaabr			; 105.833
	DW	0102H
	DW	016aH
	DD	042d55555r			; 106.667
	DW	0102H
	DW	0169H
	DD	042d70000r			; 107.5
	DW	0101H
	DW	0168H
	DD	042d8aaabr			; 108.333
	DW	0101H
	DW	0167H
	DD	042da5555r			; 109.167
	DW	0101H
	DW	0166H
	DD	042dc0000r			; 110
	DW	00H
	DW	00H
	DD	07f7fffffr			; 3.40282e+38
?lh_engine_temperature_indicator_line_down_20_ahead@@3PAUSCALE_DATA@@A DW 01f0H ; lh_engine_temperature_indicator_line_down_20_ahead
	DW	01c6H
	DD	000000000r			; 0
	DW	01f0H
	DW	01c5H
	DD	041c80000r			; 25
	DW	01f0H
	DW	01c4H
	DD	042480000r			; 50
	DW	01f0H
	DW	01c3H
	DD	042960000r			; 75
	DW	01f0H
	DW	01c2H
	DD	042c80000r			; 100
	DW	01f0H
	DW	01c1H
	DD	042fa0000r			; 125
	DW	01f0H
	DW	01c0H
	DD	043160000r			; 150
	DW	01f0H
	DW	01bfH
	DD	0432f0000r			; 175
	DW	01f0H
	DW	01beH
	DD	043480000r			; 200
	DW	01f0H
	DW	01bdH
	DD	043610000r			; 225
	DW	01f0H
	DW	01bcH
	DD	0437a0000r			; 250
	DW	01f0H
	DW	01bbH
	DD	043898000r			; 275
	DW	01f0H
	DW	01baH
	DD	043960000r			; 300
	DW	01f0H
	DW	01b9H
	DD	043a28000r			; 325
	DW	01f0H
	DW	01b8H
	DD	043af0000r			; 350
	DW	01f0H
	DW	01b7H
	DD	043bb8000r			; 375
	DW	01f0H
	DW	01b6H
	DD	043c80000r			; 400
	DW	01f0H
	DW	01b5H
	DD	043d48000r			; 425
	DW	01f0H
	DW	01b4H
	DD	043e10000r			; 450
	DW	01f0H
	DW	01b3H
	DD	043ed8000r			; 475
	DW	01f0H
	DW	01b2H
	DD	043fa0000r			; 500
	DW	01f0H
	DW	01b1H
	DD	044034000r			; 525
	DW	01f0H
	DW	01b0H
	DD	044098000r			; 550
	DW	01f0H
	DW	01afH
	DD	0440fc000r			; 575
	DW	01f0H
	DW	01aeH
	DD	044160000r			; 600
	DW	01f0H
	DW	01adH
	DD	044181555r			; 608.333
	DW	01f0H
	DW	01acH
	DD	0441a2aabr			; 616.667
	DW	01f0H
	DW	01abH
	DD	0441c4000r			; 625
	DW	01f0H
	DW	01aaH
	DD	0441e5555r			; 633.333
	DW	01f0H
	DW	01a9H
	DD	044206aabr			; 641.667
	DW	01f0H
	DW	01a8H
	DD	044228000r			; 650
	DW	01f0H
	DW	01a7H
	DD	044249555r			; 658.333
	DW	01f0H
	DW	01a6H
	DD	04426aaabr			; 666.667
	DW	01f0H
	DW	01a5H
	DD	04428c000r			; 675
	DW	01f0H
	DW	01a4H
	DD	0442ad555r			; 683.333
	DW	01f0H
	DW	01a3H
	DD	0442ceaabr			; 691.667
	DW	01f0H
	DW	01a2H
	DD	0442f0000r			; 700
	DW	01f0H
	DW	01a1H
	DD	044311555r			; 708.333
	DW	01f0H
	DW	01a0H
	DD	044332aabr			; 716.667
	DW	01f0H
	DW	019fH
	DD	044354000r			; 725
	DW	01f0H
	DW	019eH
	DD	044375555r			; 733.333
	DW	01f0H
	DW	019dH
	DD	044396aabr			; 741.667
	DW	01f0H
	DW	019cH
	DD	0443b8000r			; 750
	DW	01f0H
	DW	019bH
	DD	0443d9555r			; 758.333
	DW	01f0H
	DW	019aH
	DD	0443faaabr			; 766.667
	DW	01f0H
	DW	0199H
	DD	04441c000r			; 775
	DW	01f0H
	DW	0198H
	DD	04443d555r			; 783.333
	DW	01f0H
	DW	0197H
	DD	04445eaabr			; 791.667
	DW	01f0H
	DW	0196H
	DD	044480000r			; 800
	DW	01f0H
	DW	0195H
	DD	04449ec4fr			; 807.692
	DW	01f0H
	DW	0194H
	DD	0444bd89er			; 815.385
	DW	01f0H
	DW	0193H
	DD	0444dc4ecr			; 823.077
	DW	01f0H
	DW	0192H
	DD	0444fb13br			; 830.769
	DW	01f0H
	DW	0191H
	DD	044519d8ar			; 838.462
	DW	01f0H
	DW	0190H
	DD	0445389d9r			; 846.154
	DW	01f0H
	DW	018fH
	DD	044557627r			; 853.846
	DW	01f0H
	DW	018eH
	DD	044576276r			; 861.538
	DW	01f0H
	DW	018dH
	DD	044594ec5r			; 869.231
	DW	01f0H
	DW	018cH
	DD	0445b3b14r			; 876.923
	DW	01f0H
	DW	018bH
	DD	0445d2762r			; 884.615
	DW	01f0H
	DW	018aH
	DD	0445f13b1r			; 892.308
	DW	01f0H
	DW	0189H
	DD	044610000r			; 900
	DW	01f0H
	DW	0188H
	DD	044631555r			; 908.333
	DW	01f0H
	DW	0187H
	DD	044652aabr			; 916.667
	DW	01f0H
	DW	0186H
	DD	044674000r			; 925
	DW	01f0H
	DW	0185H
	DD	044695555r			; 933.333
	DW	01f0H
	DW	0184H
	DD	0446b6aabr			; 941.667
	DW	01f0H
	DW	0183H
	DD	0446d8000r			; 950
	DW	01f0H
	DW	0182H
	DD	0446f9555r			; 958.333
	DW	01f0H
	DW	0181H
	DD	04471aaabr			; 966.667
	DW	01f0H
	DW	0180H
	DD	04473c000r			; 975
	DW	01f0H
	DW	017fH
	DD	04475d555r			; 983.333
	DW	01f0H
	DW	017eH
	DD	04477eaabr			; 991.667
	DW	01f0H
	DW	017dH
	DD	0447a0000r			; 1000
	DW	00H
	DW	00H
	DD	07f7fffffr			; 3.40282e+38
?rh_engine_temperature_indicator_line_down_20_ahead@@3PAUSCALE_DATA@@A DW 0208H ; rh_engine_temperature_indicator_line_down_20_ahead
	DW	01c6H
	DD	000000000r			; 0
	DW	0208H
	DW	01c5H
	DD	041c80000r			; 25
	DW	0208H
	DW	01c4H
	DD	042480000r			; 50
	DW	0208H
	DW	01c3H
	DD	042960000r			; 75
	DW	0208H
	DW	01c2H
	DD	042c80000r			; 100
	DW	0208H
	DW	01c1H
	DD	042fa0000r			; 125
	DW	0208H
	DW	01c0H
	DD	043160000r			; 150
	DW	0208H
	DW	01bfH
	DD	0432f0000r			; 175
	DW	0208H
	DW	01beH
	DD	043480000r			; 200
	DW	0208H
	DW	01bdH
	DD	043610000r			; 225
	DW	0208H
	DW	01bcH
	DD	0437a0000r			; 250
	DW	0208H
	DW	01bbH
	DD	043898000r			; 275
	DW	0208H
	DW	01baH
	DD	043960000r			; 300
	DW	0208H
	DW	01b9H
	DD	043a28000r			; 325
	DW	0208H
	DW	01b8H
	DD	043af0000r			; 350
	DW	0208H
	DW	01b7H
	DD	043bb8000r			; 375
	DW	0208H
	DW	01b6H
	DD	043c80000r			; 400
	DW	0208H
	DW	01b5H
	DD	043d48000r			; 425
	DW	0208H
	DW	01b4H
	DD	043e10000r			; 450
	DW	0208H
	DW	01b3H
	DD	043ed8000r			; 475
	DW	0208H
	DW	01b2H
	DD	043fa0000r			; 500
	DW	0208H
	DW	01b1H
	DD	044034000r			; 525
	DW	0208H
	DW	01b0H
	DD	044098000r			; 550
	DW	0208H
	DW	01afH
	DD	0440fc000r			; 575
	DW	0208H
	DW	01aeH
	DD	044160000r			; 600
	DW	0208H
	DW	01adH
	DD	044181555r			; 608.333
	DW	0208H
	DW	01acH
	DD	0441a2aabr			; 616.667
	DW	0208H
	DW	01abH
	DD	0441c4000r			; 625
	DW	0208H
	DW	01aaH
	DD	0441e5555r			; 633.333
	DW	0208H
	DW	01a9H
	DD	044206aabr			; 641.667
	DW	0208H
	DW	01a8H
	DD	044228000r			; 650
	DW	0208H
	DW	01a7H
	DD	044249555r			; 658.333
	DW	0208H
	DW	01a6H
	DD	04426aaabr			; 666.667
	DW	0208H
	DW	01a5H
	DD	04428c000r			; 675
	DW	0208H
	DW	01a4H
	DD	0442ad555r			; 683.333
	DW	0208H
	DW	01a3H
	DD	0442ceaabr			; 691.667
	DW	0208H
	DW	01a2H
	DD	0442f0000r			; 700
	DW	0208H
	DW	01a1H
	DD	044311555r			; 708.333
	DW	0208H
	DW	01a0H
	DD	044332aabr			; 716.667
	DW	0208H
	DW	019fH
	DD	044354000r			; 725
	DW	0208H
	DW	019eH
	DD	044375555r			; 733.333
	DW	0208H
	DW	019dH
	DD	044396aabr			; 741.667
	DW	0208H
	DW	019cH
	DD	0443b8000r			; 750
	DW	0208H
	DW	019bH
	DD	0443d9555r			; 758.333
	DW	0208H
	DW	019aH
	DD	0443faaabr			; 766.667
	DW	0208H
	DW	0199H
	DD	04441c000r			; 775
	DW	0208H
	DW	0198H
	DD	04443d555r			; 783.333
	DW	0208H
	DW	0197H
	DD	04445eaabr			; 791.667
	DW	0208H
	DW	0196H
	DD	044480000r			; 800
	DW	0208H
	DW	0195H
	DD	04449ec4fr			; 807.692
	DW	0208H
	DW	0194H
	DD	0444bd89er			; 815.385
	DW	0208H
	DW	0193H
	DD	0444dc4ecr			; 823.077
	DW	0208H
	DW	0192H
	DD	0444fb13br			; 830.769
	DW	0208H
	DW	0191H
	DD	044519d8ar			; 838.462
	DW	0208H
	DW	0190H
	DD	0445389d9r			; 846.154
	DW	0208H
	DW	018fH
	DD	044557627r			; 853.846
	DW	0208H
	DW	018eH
	DD	044576276r			; 861.538
	DW	0208H
	DW	018dH
	DD	044594ec5r			; 869.231
	DW	0208H
	DW	018cH
	DD	0445b3b14r			; 876.923
	DW	0208H
	DW	018bH
	DD	0445d2762r			; 884.615
	DW	0208H
	DW	018aH
	DD	0445f13b1r			; 892.308
	DW	0208H
	DW	0189H
	DD	044610000r			; 900
	DW	0208H
	DW	0188H
	DD	044631555r			; 908.333
	DW	0208H
	DW	0187H
	DD	044652aabr			; 916.667
	DW	0208H
	DW	0186H
	DD	044674000r			; 925
	DW	0208H
	DW	0185H
	DD	044695555r			; 933.333
	DW	0208H
	DW	0184H
	DD	0446b6aabr			; 941.667
	DW	0208H
	DW	0183H
	DD	0446d8000r			; 950
	DW	0208H
	DW	0182H
	DD	0446f9555r			; 958.333
	DW	0208H
	DW	0181H
	DD	04471aaabr			; 966.667
	DW	0208H
	DW	0180H
	DD	04473c000r			; 975
	DW	0208H
	DW	017fH
	DD	04475d555r			; 983.333
	DW	0208H
	DW	017eH
	DD	04477eaabr			; 991.667
	DW	0208H
	DW	017dH
	DD	0447a0000r			; 1000
	DW	00H
	DW	00H
	DD	07f7fffffr			; 3.40282e+38
?lh_engine_temperature_indicator_line_down_20_right_30@@3PAUSCALE_DATA@@A DW 0fbH ; lh_engine_temperature_indicator_line_down_20_right_30
	DW	01b4H
	DD	000000000r			; 0
	DW	0fbH
	DW	01b3H
	DD	041c80000r			; 25
	DW	0fbH
	DW	01b2H
	DD	042480000r			; 50
	DW	0fbH
	DW	01b1H
	DD	042960000r			; 75
	DW	0fbH
	DW	01b0H
	DD	042c80000r			; 100
	DW	0fbH
	DW	01afH
	DD	042fa0000r			; 125
	DW	0faH
	DW	01aeH
	DD	043160000r			; 150
	DW	0faH
	DW	01adH
	DD	0432f0000r			; 175
	DW	0faH
	DW	01acH
	DD	043480000r			; 200
	DW	0faH
	DW	01abH
	DD	043610000r			; 225
	DW	0faH
	DW	01aaH
	DD	0437a0000r			; 250
	DW	0faH
	DW	01a9H
	DD	043898000r			; 275
	DW	0f9H
	DW	01a8H
	DD	043960000r			; 300
	DW	0f9H
	DW	01a7H
	DD	043a6aaabr			; 333.333
	DW	0f9H
	DW	01a6H
	DD	043b75555r			; 366.667
	DW	0f9H
	DW	01a5H
	DD	043c80000r			; 400
	DW	0f9H
	DW	01a4H
	DD	043d48000r			; 425
	DW	0f8H
	DW	01a3H
	DD	043e10000r			; 450
	DW	0f8H
	DW	01a2H
	DD	043ed8000r			; 475
	DW	0f8H
	DW	01a1H
	DD	043fa0000r			; 500
	DW	0f8H
	DW	01a0H
	DD	044034000r			; 525
	DW	0f8H
	DW	019fH
	DD	044098000r			; 550
	DW	0f8H
	DW	019eH
	DD	0440fc000r			; 575
	DW	0f7H
	DW	019dH
	DD	044160000r			; 600
	DW	0f7H
	DW	019cH
	DD	0441845d1r			; 609.091
	DW	0f7H
	DW	019bH
	DD	0441a8ba3r			; 618.182
	DW	0f7H
	DW	019aH
	DD	0441cd174r			; 627.273
	DW	0f7H
	DW	0199H
	DD	0441f1746r			; 636.364
	DW	0f6H
	DW	0198H
	DD	044215d17r			; 645.455
	DW	0f6H
	DW	0197H
	DD	04423a2e9r			; 654.545
	DW	0f6H
	DW	0196H
	DD	04425e8bar			; 663.636
	DW	0f6H
	DW	0195H
	DD	044282e8cr			; 672.727
	DW	0f6H
	DW	0194H
	DD	0442a745dr			; 681.818
	DW	0f6H
	DW	0193H
	DD	0442cba2fr			; 690.909
	DW	0f5H
	DW	0192H
	DD	0442f0000r			; 700
	DW	0f5H
	DW	0191H
	DD	0443145d1r			; 709.091
	DW	0f5H
	DW	0190H
	DD	044338ba3r			; 718.182
	DW	0f5H
	DW	018fH
	DD	04435d174r			; 727.273
	DW	0f5H
	DW	018eH
	DD	044381746r			; 736.364
	DW	0f4H
	DW	018dH
	DD	0443a5d17r			; 745.455
	DW	0f4H
	DW	018cH
	DD	0443ca2e9r			; 754.545
	DW	0f4H
	DW	018bH
	DD	0443ee8bar			; 763.636
	DW	0f4H
	DW	018aH
	DD	044412e8cr			; 772.727
	DW	0f4H
	DW	0189H
	DD	04443745dr			; 781.818
	DW	0f4H
	DW	0188H
	DD	04445ba2fr			; 790.909
	DW	0f3H
	DW	0187H
	DD	044480000r			; 800
	DW	0f3H
	DW	0186H
	DD	0444a1555r			; 808.333
	DW	0f3H
	DW	0185H
	DD	0444c2aabr			; 816.667
	DW	0f3H
	DW	0184H
	DD	0444e4000r			; 825
	DW	0f3H
	DW	0183H
	DD	044505555r			; 833.333
	DW	0f2H
	DW	0182H
	DD	044526aabr			; 841.667
	DW	0f2H
	DW	0181H
	DD	044548000r			; 850
	DW	0f2H
	DW	0180H
	DD	044569555r			; 858.333
	DW	0f2H
	DW	017fH
	DD	04458aaabr			; 866.667
	DW	0f2H
	DW	017eH
	DD	0445ac000r			; 875
	DW	0f2H
	DW	017dH
	DD	0445cd555r			; 883.333
	DW	0f1H
	DW	017cH
	DD	0445eeaabr			; 891.667
	DW	0f1H
	DW	017bH
	DD	044610000r			; 900
	DW	0f1H
	DW	017aH
	DD	0446345d1r			; 909.091
	DW	0f1H
	DW	0179H
	DD	044658ba3r			; 918.182
	DW	0f1H
	DW	0178H
	DD	04467d174r			; 927.273
	DW	0f0H
	DW	0177H
	DD	0446a1746r			; 936.364
	DW	0f0H
	DW	0176H
	DD	0446c5d17r			; 945.455
	DW	0f0H
	DW	0175H
	DD	0446ea2e9r			; 954.545
	DW	0f0H
	DW	0174H
	DD	04470e8bar			; 963.636
	DW	0f0H
	DW	0173H
	DD	044732e8cr			; 972.727
	DW	0f0H
	DW	0172H
	DD	04475745dr			; 981.818
	DW	0efH
	DW	0171H
	DD	04477ba2fr			; 990.909
	DW	0efH
	DW	0170H
	DD	0447a0000r			; 1000
	DW	00H
	DW	00H
	DD	07f7fffffr			; 3.40282e+38
?rh_engine_temperature_indicator_line_down_20_right_30@@3PAUSCALE_DATA@@A DW 0110H ; rh_engine_temperature_indicator_line_down_20_right_30
	DW	01abH
	DD	000000000r			; 0
	DW	0110H
	DW	01aaH
	DD	041c80000r			; 25
	DW	0110H
	DW	01a9H
	DD	042480000r			; 50
	DW	0110H
	DW	01a8H
	DD	042960000r			; 75
	DW	010fH
	DW	01a7H
	DD	042c80000r			; 100
	DW	010fH
	DW	01a6H
	DD	043055555r			; 133.333
	DW	010fH
	DW	01a5H
	DD	04326aaabr			; 166.667
	DW	010fH
	DW	01a4H
	DD	043480000r			; 200
	DW	010fH
	DW	01a3H
	DD	043610000r			; 225
	DW	010fH
	DW	01a2H
	DD	0437a0000r			; 250
	DW	010eH
	DW	01a1H
	DD	043898000r			; 275
	DW	010eH
	DW	01a0H
	DD	043960000r			; 300
	DW	010eH
	DW	019fH
	DD	043a28000r			; 325
	DW	010eH
	DW	019eH
	DD	043af0000r			; 350
	DW	010eH
	DW	019dH
	DD	043bb8000r			; 375
	DW	010eH
	DW	019cH
	DD	043c80000r			; 400
	DW	010dH
	DW	019bH
	DD	043d8aaabr			; 433.333
	DW	010dH
	DW	019aH
	DD	043e95555r			; 466.667
	DW	010dH
	DW	0199H
	DD	043fa0000r			; 500
	DW	010dH
	DW	0198H
	DD	044034000r			; 525
	DW	010dH
	DW	0197H
	DD	044098000r			; 550
	DW	010cH
	DW	0196H
	DD	0440fc000r			; 575
	DW	010cH
	DW	0195H
	DD	044160000r			; 600
	DW	010cH
	DW	0194H
	DD	0441845d1r			; 609.091
	DW	010cH
	DW	0193H
	DD	0441a8ba3r			; 618.182
	DW	010cH
	DW	0192H
	DD	0441cd174r			; 627.273
	DW	010cH
	DW	0191H
	DD	0441f1746r			; 636.364
	DW	010bH
	DW	0190H
	DD	044215d17r			; 645.455
	DW	010bH
	DW	018fH
	DD	04423a2e9r			; 654.545
	DW	010bH
	DW	018eH
	DD	04425e8bar			; 663.636
	DW	010bH
	DW	018dH
	DD	044282e8cr			; 672.727
	DW	010bH
	DW	018cH
	DD	0442a745dr			; 681.818
	DW	010aH
	DW	018bH
	DD	0442cba2fr			; 690.909
	DW	010aH
	DW	018aH
	DD	0442f0000r			; 700
	DW	010aH
	DW	0189H
	DD	0443145d1r			; 709.091
	DW	010aH
	DW	0188H
	DD	044338ba3r			; 718.182
	DW	010aH
	DW	0187H
	DD	04435d174r			; 727.273
	DW	010aH
	DW	0186H
	DD	044381746r			; 736.364
	DW	0109H
	DW	0185H
	DD	0443a5d17r			; 745.455
	DW	0109H
	DW	0184H
	DD	0443ca2e9r			; 754.545
	DW	0109H
	DW	0183H
	DD	0443ee8bar			; 763.636
	DW	0109H
	DW	0182H
	DD	044412e8cr			; 772.727
	DW	0109H
	DW	0181H
	DD	04443745dr			; 781.818
	DW	0108H
	DW	0180H
	DD	04445ba2fr			; 790.909
	DW	0108H
	DW	017fH
	DD	044480000r			; 800
	DW	0108H
	DW	017eH
	DD	0444a45d1r			; 809.091
	DW	0108H
	DW	017dH
	DD	0444c8ba3r			; 818.182
	DW	0108H
	DW	017cH
	DD	0444ed174r			; 827.273
	DW	0108H
	DW	017bH
	DD	044511746r			; 836.364
	DW	0107H
	DW	017aH
	DD	044535d17r			; 845.455
	DW	0107H
	DW	0179H
	DD	04455a2e9r			; 854.545
	DW	0107H
	DW	0178H
	DD	04457e8bar			; 863.636
	DW	0107H
	DW	0177H
	DD	0445a2e8cr			; 872.727
	DW	0107H
	DW	0176H
	DD	0445c745dr			; 881.818
	DW	0106H
	DW	0175H
	DD	0445eba2fr			; 890.909
	DW	0106H
	DW	0174H
	DD	044610000r			; 900
	DW	0106H
	DW	0173H
	DD	0446345d1r			; 909.091
	DW	0106H
	DW	0172H
	DD	044658ba3r			; 918.182
	DW	0106H
	DW	0171H
	DD	04467d174r			; 927.273
	DW	0106H
	DW	0170H
	DD	0446a1746r			; 936.364
	DW	0105H
	DW	016fH
	DD	0446c5d17r			; 945.455
	DW	0105H
	DW	016eH
	DD	0446ea2e9r			; 954.545
	DW	0105H
	DW	016dH
	DD	04470e8bar			; 963.636
	DW	0105H
	DW	016cH
	DD	044732e8cr			; 972.727
	DW	0105H
	DW	016bH
	DD	04475745dr			; 981.818
	DW	0105H
	DW	016aH
	DD	04477ba2fr			; 990.909
	DW	0104H
	DW	0169H
	DD	0447a0000r			; 1000
	DW	00H
	DW	00H
	DD	07f7fffffr			; 3.40282e+38
?lh_engine_torque_indicator_line1_down_20_ahead@@3PAUSCALE_DATA@@A DW 01c9H ; lh_engine_torque_indicator_line1_down_20_ahead
	DW	01c2H
	DD	000000000r			; 0
	DW	01c9H
	DW	01c1H
	DD	03fc4ec4fr			; 1.53846
	DW	01c9H
	DW	01c0H
	DD	04044ec4fr			; 3.07692
	DW	01c9H
	DW	01bfH
	DD	04093b13br			; 4.61538
	DW	01c9H
	DW	01beH
	DD	040c4ec4fr			; 6.15385
	DW	01c9H
	DW	01bdH
	DD	040f62762r			; 7.69231
	DW	01c9H
	DW	01bcH
	DD	04113b13br			; 9.23077
	DW	01c9H
	DW	01bbH
	DD	0412c4ec5r			; 10.7692
	DW	01c9H
	DW	01baH
	DD	04144ec4fr			; 12.3077
	DW	01c9H
	DW	01b9H
	DD	0415d89d9r			; 13.8462
	DW	01c9H
	DW	01b8H
	DD	041762762r			; 15.3846
	DW	01c9H
	DW	01b7H
	DD	041876276r			; 16.9231
	DW	01c9H
	DW	01b6H
	DD	04193b13br			; 18.4615
	DW	01c9H
	DW	01b5H
	DD	041a00000r			; 20
	DW	01c9H
	DW	01b4H
	DD	041ac4ec5r			; 21.5385
	DW	01c9H
	DW	01b3H
	DD	041b89d8ar			; 23.0769
	DW	01c9H
	DW	01b2H
	DD	041c4ec4fr			; 24.6154
	DW	01c9H
	DW	01b1H
	DD	041d13b14r			; 26.1538
	DW	01c9H
	DW	01b0H
	DD	041dd89d9r			; 27.6923
	DW	01c9H
	DW	01afH
	DD	041e9d89er			; 29.2308
	DW	01c9H
	DW	01aeH
	DD	041f62762r			; 30.7692
	DW	01c9H
	DW	01adH
	DD	042013b14r			; 32.3077
	DW	01c9H
	DW	01acH
	DD	042076276r			; 33.8462
	DW	01c9H
	DW	01abH
	DD	0420d89d9r			; 35.3846
	DW	01c9H
	DW	01aaH
	DD	04213b13br			; 36.9231
	DW	01c9H
	DW	01a9H
	DD	04219d89er			; 38.4615
	DW	01c9H
	DW	01a8H
	DD	042200000r			; 40
	DW	01c9H
	DW	01a7H
	DD	042262762r			; 41.5385
	DW	01c9H
	DW	01a6H
	DD	0422c4ec5r			; 43.0769
	DW	01c9H
	DW	01a5H
	DD	042327627r			; 44.6154
	DW	01c9H
	DW	01a4H
	DD	042389d8ar			; 46.1538
	DW	01c9H
	DW	01a3H
	DD	0423ec4ecr			; 47.6923
	DW	01c9H
	DW	01a2H
	DD	04244ec4fr			; 49.2308
	DW	01c9H
	DW	01a1H
	DD	0424b13b1r			; 50.7692
	DW	01c9H
	DW	01a0H
	DD	042513b14r			; 52.3077
	DW	01c9H
	DW	019fH
	DD	042576276r			; 53.8462
	DW	01c9H
	DW	019eH
	DD	0425d89d9r			; 55.3846
	DW	01c9H
	DW	019dH
	DD	04263b13br			; 56.9231
	DW	01c9H
	DW	019cH
	DD	04269d89er			; 58.4615
	DW	01c9H
	DW	019bH
	DD	042700000r			; 60
	DW	01c9H
	DW	019aH
	DD	042762762r			; 61.5385
	DW	01c9H
	DW	0199H
	DD	0427c4ec5r			; 63.0769
	DW	01c9H
	DW	0198H
	DD	042813b14r			; 64.6154
	DW	01c9H
	DW	0197H
	DD	042844ec5r			; 66.1538
	DW	01c9H
	DW	0196H
	DD	042876276r			; 67.6923
	DW	01c9H
	DW	0195H
	DD	0428a7627r			; 69.2308
	DW	01c9H
	DW	0194H
	DD	0428d89d9r			; 70.7692
	DW	01c9H
	DW	0193H
	DD	042909d8ar			; 72.3077
	DW	01c9H
	DW	0192H
	DD	04293b13br			; 73.8462
	DW	01c9H
	DW	0191H
	DD	04296c4ecr			; 75.3846
	DW	01c9H
	DW	0190H
	DD	04299d89er			; 76.9231
	DW	01c9H
	DW	018fH
	DD	0429cec4fr			; 78.4615
	DW	01c9H
	DW	018eH
	DD	042a00000r			; 80
	DW	01c9H
	DW	018dH
	DD	042a313b1r			; 81.5385
	DW	01c9H
	DW	018cH
	DD	042a62762r			; 83.0769
	DW	01c9H
	DW	018bH
	DD	042a93b14r			; 84.6154
	DW	01c9H
	DW	018aH
	DD	042ac4ec5r			; 86.1538
	DW	01c9H
	DW	0189H
	DD	042af6276r			; 87.6923
	DW	01c9H
	DW	0188H
	DD	042b27627r			; 89.2308
	DW	01c9H
	DW	0187H
	DD	042b589d9r			; 90.7692
	DW	01c9H
	DW	0186H
	DD	042b89d8ar			; 92.3077
	DW	01c9H
	DW	0185H
	DD	042bbb13br			; 93.8462
	DW	01c9H
	DW	0184H
	DD	042bec4ecr			; 95.3846
	DW	01c9H
	DW	0183H
	DD	042c1d89er			; 96.9231
	DW	01c9H
	DW	0182H
	DD	042c4ec4fr			; 98.4615
	DW	01c9H
	DW	0181H
	DD	042c80000r			; 100
	DW	01c9H
	DW	0180H
	DD	042cb5555r			; 101.667
	DW	01c9H
	DW	017fH
	DD	042ceaaabr			; 103.333
	DW	01c9H
	DW	017eH
	DD	042d20000r			; 105
	DW	01c9H
	DW	017dH
	DD	042d55555r			; 106.667
	DW	01c9H
	DW	017cH
	DD	042d8aaabr			; 108.333
	DW	01c9H
	DW	017bH
	DD	042dc0000r			; 110
	DW	00H
	DW	00H
	DD	07f7fffffr			; 3.40282e+38
?lh_engine_torque_indicator_line2_down_20_ahead@@3PAUSCALE_DATA@@A DW 01caH ; lh_engine_torque_indicator_line2_down_20_ahead
	DW	01c2H
	DD	000000000r			; 0
	DW	01caH
	DW	01c1H
	DD	03fc4ec4fr			; 1.53846
	DW	01caH
	DW	01c0H
	DD	04044ec4fr			; 3.07692
	DW	01caH
	DW	01bfH
	DD	04093b13br			; 4.61538
	DW	01caH
	DW	01beH
	DD	040c4ec4fr			; 6.15385
	DW	01caH
	DW	01bdH
	DD	040f62762r			; 7.69231
	DW	01caH
	DW	01bcH
	DD	04113b13br			; 9.23077
	DW	01caH
	DW	01bbH
	DD	0412c4ec5r			; 10.7692
	DW	01caH
	DW	01baH
	DD	04144ec4fr			; 12.3077
	DW	01caH
	DW	01b9H
	DD	0415d89d9r			; 13.8462
	DW	01caH
	DW	01b8H
	DD	041762762r			; 15.3846
	DW	01caH
	DW	01b7H
	DD	041876276r			; 16.9231
	DW	01caH
	DW	01b6H
	DD	04193b13br			; 18.4615
	DW	01caH
	DW	01b5H
	DD	041a00000r			; 20
	DW	01caH
	DW	01b4H
	DD	041ac4ec5r			; 21.5385
	DW	01caH
	DW	01b3H
	DD	041b89d8ar			; 23.0769
	DW	01caH
	DW	01b2H
	DD	041c4ec4fr			; 24.6154
	DW	01caH
	DW	01b1H
	DD	041d13b14r			; 26.1538
	DW	01caH
	DW	01b0H
	DD	041dd89d9r			; 27.6923
	DW	01caH
	DW	01afH
	DD	041e9d89er			; 29.2308
	DW	01caH
	DW	01aeH
	DD	041f62762r			; 30.7692
	DW	01caH
	DW	01adH
	DD	042013b14r			; 32.3077
	DW	01caH
	DW	01acH
	DD	042076276r			; 33.8462
	DW	01caH
	DW	01abH
	DD	0420d89d9r			; 35.3846
	DW	01caH
	DW	01aaH
	DD	04213b13br			; 36.9231
	DW	01caH
	DW	01a9H
	DD	04219d89er			; 38.4615
	DW	01caH
	DW	01a8H
	DD	042200000r			; 40
	DW	01caH
	DW	01a7H
	DD	042262762r			; 41.5385
	DW	01caH
	DW	01a6H
	DD	0422c4ec5r			; 43.0769
	DW	01caH
	DW	01a5H
	DD	042327627r			; 44.6154
	DW	01caH
	DW	01a4H
	DD	042389d8ar			; 46.1538
	DW	01caH
	DW	01a3H
	DD	0423ec4ecr			; 47.6923
	DW	01caH
	DW	01a2H
	DD	04244ec4fr			; 49.2308
	DW	01caH
	DW	01a1H
	DD	0424b13b1r			; 50.7692
	DW	01caH
	DW	01a0H
	DD	042513b14r			; 52.3077
	DW	01caH
	DW	019fH
	DD	042576276r			; 53.8462
	DW	01caH
	DW	019eH
	DD	0425d89d9r			; 55.3846
	DW	01caH
	DW	019dH
	DD	04263b13br			; 56.9231
	DW	01caH
	DW	019cH
	DD	04269d89er			; 58.4615
	DW	01caH
	DW	019bH
	DD	042700000r			; 60
	DW	01caH
	DW	019aH
	DD	042762762r			; 61.5385
	DW	01caH
	DW	0199H
	DD	0427c4ec5r			; 63.0769
	DW	01caH
	DW	0198H
	DD	042813b14r			; 64.6154
	DW	01caH
	DW	0197H
	DD	042844ec5r			; 66.1538
	DW	01caH
	DW	0196H
	DD	042876276r			; 67.6923
	DW	01caH
	DW	0195H
	DD	0428a7627r			; 69.2308
	DW	01caH
	DW	0194H
	DD	0428d89d9r			; 70.7692
	DW	01caH
	DW	0193H
	DD	042909d8ar			; 72.3077
	DW	01caH
	DW	0192H
	DD	04293b13br			; 73.8462
	DW	01caH
	DW	0191H
	DD	04296c4ecr			; 75.3846
	DW	01caH
	DW	0190H
	DD	04299d89er			; 76.9231
	DW	01caH
	DW	018fH
	DD	0429cec4fr			; 78.4615
	DW	01caH
	DW	018eH
	DD	042a00000r			; 80
	DW	01caH
	DW	018dH
	DD	042a313b1r			; 81.5385
	DW	01caH
	DW	018cH
	DD	042a62762r			; 83.0769
	DW	01caH
	DW	018bH
	DD	042a93b14r			; 84.6154
	DW	01caH
	DW	018aH
	DD	042ac4ec5r			; 86.1538
	DW	01caH
	DW	0189H
	DD	042af6276r			; 87.6923
	DW	01caH
	DW	0188H
	DD	042b27627r			; 89.2308
	DW	01caH
	DW	0187H
	DD	042b589d9r			; 90.7692
	DW	01caH
	DW	0186H
	DD	042b89d8ar			; 92.3077
	DW	01caH
	DW	0185H
	DD	042bbb13br			; 93.8462
	DW	01caH
	DW	0184H
	DD	042bec4ecr			; 95.3846
	DW	01caH
	DW	0183H
	DD	042c1d89er			; 96.9231
	DW	01caH
	DW	0182H
	DD	042c4ec4fr			; 98.4615
	DW	01caH
	DW	0181H
	DD	042c80000r			; 100
	DW	01caH
	DW	0180H
	DD	042cb5555r			; 101.667
	DW	01caH
	DW	017fH
	DD	042ceaaabr			; 103.333
	DW	01caH
	DW	017eH
	DD	042d20000r			; 105
	DW	01caH
	DW	017dH
	DD	042d55555r			; 106.667
	DW	01caH
	DW	017cH
	DD	042d8aaabr			; 108.333
	DW	01caH
	DW	017bH
	DD	042dc0000r			; 110
	DW	00H
	DW	00H
	DD	07f7fffffr			; 3.40282e+38
?rh_engine_torque_indicator_line1_down_20_ahead@@3PAUSCALE_DATA@@A DW 01d7H ; rh_engine_torque_indicator_line1_down_20_ahead
	DW	01c2H
	DD	000000000r			; 0
	DW	01d7H
	DW	01c1H
	DD	03fc4ec4fr			; 1.53846
	DW	01d7H
	DW	01c0H
	DD	04044ec4fr			; 3.07692
	DW	01d7H
	DW	01bfH
	DD	04093b13br			; 4.61538
	DW	01d7H
	DW	01beH
	DD	040c4ec4fr			; 6.15385
	DW	01d7H
	DW	01bdH
	DD	040f62762r			; 7.69231
	DW	01d7H
	DW	01bcH
	DD	04113b13br			; 9.23077
	DW	01d7H
	DW	01bbH
	DD	0412c4ec5r			; 10.7692
	DW	01d7H
	DW	01baH
	DD	04144ec4fr			; 12.3077
	DW	01d7H
	DW	01b9H
	DD	0415d89d9r			; 13.8462
	DW	01d7H
	DW	01b8H
	DD	041762762r			; 15.3846
	DW	01d7H
	DW	01b7H
	DD	041876276r			; 16.9231
	DW	01d7H
	DW	01b6H
	DD	04193b13br			; 18.4615
	DW	01d7H
	DW	01b5H
	DD	041a00000r			; 20
	DW	01d7H
	DW	01b4H
	DD	041ac4ec5r			; 21.5385
	DW	01d7H
	DW	01b3H
	DD	041b89d8ar			; 23.0769
	DW	01d7H
	DW	01b2H
	DD	041c4ec4fr			; 24.6154
	DW	01d7H
	DW	01b1H
	DD	041d13b14r			; 26.1538
	DW	01d7H
	DW	01b0H
	DD	041dd89d9r			; 27.6923
	DW	01d7H
	DW	01afH
	DD	041e9d89er			; 29.2308
	DW	01d7H
	DW	01aeH
	DD	041f62762r			; 30.7692
	DW	01d7H
	DW	01adH
	DD	042013b14r			; 32.3077
	DW	01d7H
	DW	01acH
	DD	042076276r			; 33.8462
	DW	01d7H
	DW	01abH
	DD	0420d89d9r			; 35.3846
	DW	01d7H
	DW	01aaH
	DD	04213b13br			; 36.9231
	DW	01d7H
	DW	01a9H
	DD	04219d89er			; 38.4615
	DW	01d7H
	DW	01a8H
	DD	042200000r			; 40
	DW	01d7H
	DW	01a7H
	DD	042262762r			; 41.5385
	DW	01d7H
	DW	01a6H
	DD	0422c4ec5r			; 43.0769
	DW	01d7H
	DW	01a5H
	DD	042327627r			; 44.6154
	DW	01d7H
	DW	01a4H
	DD	042389d8ar			; 46.1538
	DW	01d7H
	DW	01a3H
	DD	0423ec4ecr			; 47.6923
	DW	01d7H
	DW	01a2H
	DD	04244ec4fr			; 49.2308
	DW	01d7H
	DW	01a1H
	DD	0424b13b1r			; 50.7692
	DW	01d7H
	DW	01a0H
	DD	042513b14r			; 52.3077
	DW	01d7H
	DW	019fH
	DD	042576276r			; 53.8462
	DW	01d7H
	DW	019eH
	DD	0425d89d9r			; 55.3846
	DW	01d7H
	DW	019dH
	DD	04263b13br			; 56.9231
	DW	01d7H
	DW	019cH
	DD	04269d89er			; 58.4615
	DW	01d7H
	DW	019bH
	DD	042700000r			; 60
	DW	01d7H
	DW	019aH
	DD	042762762r			; 61.5385
	DW	01d7H
	DW	0199H
	DD	0427c4ec5r			; 63.0769
	DW	01d7H
	DW	0198H
	DD	042813b14r			; 64.6154
	DW	01d7H
	DW	0197H
	DD	042844ec5r			; 66.1538
	DW	01d7H
	DW	0196H
	DD	042876276r			; 67.6923
	DW	01d7H
	DW	0195H
	DD	0428a7627r			; 69.2308
	DW	01d7H
	DW	0194H
	DD	0428d89d9r			; 70.7692
	DW	01d7H
	DW	0193H
	DD	042909d8ar			; 72.3077
	DW	01d7H
	DW	0192H
	DD	04293b13br			; 73.8462
	DW	01d7H
	DW	0191H
	DD	04296c4ecr			; 75.3846
	DW	01d7H
	DW	0190H
	DD	04299d89er			; 76.9231
	DW	01d7H
	DW	018fH
	DD	0429cec4fr			; 78.4615
	DW	01d7H
	DW	018eH
	DD	042a00000r			; 80
	DW	01d7H
	DW	018dH
	DD	042a313b1r			; 81.5385
	DW	01d7H
	DW	018cH
	DD	042a62762r			; 83.0769
	DW	01d7H
	DW	018bH
	DD	042a93b14r			; 84.6154
	DW	01d7H
	DW	018aH
	DD	042ac4ec5r			; 86.1538
	DW	01d7H
	DW	0189H
	DD	042af6276r			; 87.6923
	DW	01d7H
	DW	0188H
	DD	042b27627r			; 89.2308
	DW	01d7H
	DW	0187H
	DD	042b589d9r			; 90.7692
	DW	01d7H
	DW	0186H
	DD	042b89d8ar			; 92.3077
	DW	01d7H
	DW	0185H
	DD	042bbb13br			; 93.8462
	DW	01d7H
	DW	0184H
	DD	042bec4ecr			; 95.3846
	DW	01d7H
	DW	0183H
	DD	042c1d89er			; 96.9231
	DW	01d7H
	DW	0182H
	DD	042c4ec4fr			; 98.4615
	DW	01d7H
	DW	0181H
	DD	042c80000r			; 100
	DW	01d7H
	DW	0180H
	DD	042cb5555r			; 101.667
	DW	01d7H
	DW	017fH
	DD	042ceaaabr			; 103.333
	DW	01d7H
	DW	017eH
	DD	042d20000r			; 105
	DW	01d7H
	DW	017dH
	DD	042d55555r			; 106.667
	DW	01d7H
	DW	017cH
	DD	042d8aaabr			; 108.333
	DW	01d7H
	DW	017bH
	DD	042dc0000r			; 110
	DW	00H
	DW	00H
	DD	07f7fffffr			; 3.40282e+38
?rh_engine_torque_indicator_line2_down_20_ahead@@3PAUSCALE_DATA@@A DW 01d8H ; rh_engine_torque_indicator_line2_down_20_ahead
	DW	01c2H
	DD	000000000r			; 0
	DW	01d8H
	DW	01c1H
	DD	03fc4ec4fr			; 1.53846
	DW	01d8H
	DW	01c0H
	DD	04044ec4fr			; 3.07692
	DW	01d8H
	DW	01bfH
	DD	04093b13br			; 4.61538
	DW	01d8H
	DW	01beH
	DD	040c4ec4fr			; 6.15385
	DW	01d8H
	DW	01bdH
	DD	040f62762r			; 7.69231
	DW	01d8H
	DW	01bcH
	DD	04113b13br			; 9.23077
	DW	01d8H
	DW	01bbH
	DD	0412c4ec5r			; 10.7692
	DW	01d8H
	DW	01baH
	DD	04144ec4fr			; 12.3077
	DW	01d8H
	DW	01b9H
	DD	0415d89d9r			; 13.8462
	DW	01d8H
	DW	01b8H
	DD	041762762r			; 15.3846
	DW	01d8H
	DW	01b7H
	DD	041876276r			; 16.9231
	DW	01d8H
	DW	01b6H
	DD	04193b13br			; 18.4615
	DW	01d8H
	DW	01b5H
	DD	041a00000r			; 20
	DW	01d8H
	DW	01b4H
	DD	041ac4ec5r			; 21.5385
	DW	01d8H
	DW	01b3H
	DD	041b89d8ar			; 23.0769
	DW	01d8H
	DW	01b2H
	DD	041c4ec4fr			; 24.6154
	DW	01d8H
	DW	01b1H
	DD	041d13b14r			; 26.1538
	DW	01d8H
	DW	01b0H
	DD	041dd89d9r			; 27.6923
	DW	01d8H
	DW	01afH
	DD	041e9d89er			; 29.2308
	DW	01d8H
	DW	01aeH
	DD	041f62762r			; 30.7692
	DW	01d8H
	DW	01adH
	DD	042013b14r			; 32.3077
	DW	01d8H
	DW	01acH
	DD	042076276r			; 33.8462
	DW	01d8H
	DW	01abH
	DD	0420d89d9r			; 35.3846
	DW	01d8H
	DW	01aaH
	DD	04213b13br			; 36.9231
	DW	01d8H
	DW	01a9H
	DD	04219d89er			; 38.4615
	DW	01d8H
	DW	01a8H
	DD	042200000r			; 40
	DW	01d8H
	DW	01a7H
	DD	042262762r			; 41.5385
	DW	01d8H
	DW	01a6H
	DD	0422c4ec5r			; 43.0769
	DW	01d8H
	DW	01a5H
	DD	042327627r			; 44.6154
	DW	01d8H
	DW	01a4H
	DD	042389d8ar			; 46.1538
	DW	01d8H
	DW	01a3H
	DD	0423ec4ecr			; 47.6923
	DW	01d8H
	DW	01a2H
	DD	04244ec4fr			; 49.2308
	DW	01d8H
	DW	01a1H
	DD	0424b13b1r			; 50.7692
	DW	01d8H
	DW	01a0H
	DD	042513b14r			; 52.3077
	DW	01d8H
	DW	019fH
	DD	042576276r			; 53.8462
	DW	01d8H
	DW	019eH
	DD	0425d89d9r			; 55.3846
	DW	01d8H
	DW	019dH
	DD	04263b13br			; 56.9231
	DW	01d8H
	DW	019cH
	DD	04269d89er			; 58.4615
	DW	01d8H
	DW	019bH
	DD	042700000r			; 60
	DW	01d8H
	DW	019aH
	DD	042762762r			; 61.5385
	DW	01d8H
	DW	0199H
	DD	0427c4ec5r			; 63.0769
	DW	01d8H
	DW	0198H
	DD	042813b14r			; 64.6154
	DW	01d8H
	DW	0197H
	DD	042844ec5r			; 66.1538
	DW	01d8H
	DW	0196H
	DD	042876276r			; 67.6923
	DW	01d8H
	DW	0195H
	DD	0428a7627r			; 69.2308
	DW	01d8H
	DW	0194H
	DD	0428d89d9r			; 70.7692
	DW	01d8H
	DW	0193H
	DD	042909d8ar			; 72.3077
	DW	01d8H
	DW	0192H
	DD	04293b13br			; 73.8462
	DW	01d8H
	DW	0191H
	DD	04296c4ecr			; 75.3846
	DW	01d8H
	DW	0190H
	DD	04299d89er			; 76.9231
	DW	01d8H
	DW	018fH
	DD	0429cec4fr			; 78.4615
	DW	01d8H
	DW	018eH
	DD	042a00000r			; 80
	DW	01d8H
	DW	018dH
	DD	042a313b1r			; 81.5385
	DW	01d8H
	DW	018cH
	DD	042a62762r			; 83.0769
	DW	01d8H
	DW	018bH
	DD	042a93b14r			; 84.6154
	DW	01d8H
	DW	018aH
	DD	042ac4ec5r			; 86.1538
	DW	01d8H
	DW	0189H
	DD	042af6276r			; 87.6923
	DW	01d8H
	DW	0188H
	DD	042b27627r			; 89.2308
	DW	01d8H
	DW	0187H
	DD	042b589d9r			; 90.7692
	DW	01d8H
	DW	0186H
	DD	042b89d8ar			; 92.3077
	DW	01d8H
	DW	0185H
	DD	042bbb13br			; 93.8462
	DW	01d8H
	DW	0184H
	DD	042bec4ecr			; 95.3846
	DW	01d8H
	DW	0183H
	DD	042c1d89er			; 96.9231
	DW	01d8H
	DW	0182H
	DD	042c4ec4fr			; 98.4615
	DW	01d8H
	DW	0181H
	DD	042c80000r			; 100
	DW	01d8H
	DW	0180H
	DD	042cb5555r			; 101.667
	DW	01d8H
	DW	017fH
	DD	042ceaaabr			; 103.333
	DW	01d8H
	DW	017eH
	DD	042d20000r			; 105
	DW	01d8H
	DW	017dH
	DD	042d55555r			; 106.667
	DW	01d8H
	DW	017cH
	DD	042d8aaabr			; 108.333
	DW	01d8H
	DW	017bH
	DD	042dc0000r			; 110
	DW	00H
	DW	00H
	DD	07f7fffffr			; 3.40282e+38
?lh_engine_torque_indicator_line1_down_20_right_30@@3PAUSCALE_DATA@@A DW 0d7H ; lh_engine_torque_indicator_line1_down_20_right_30
	DW	01bcH
	DD	000000000r			; 0
	DW	0d7H
	DW	01bbH
	DD	03fc4ec4fr			; 1.53846
	DW	0d7H
	DW	01baH
	DD	04044ec4fr			; 3.07692
	DW	0d7H
	DW	01b9H
	DD	04093b13br			; 4.61538
	DW	0d6H
	DW	01b8H
	DD	040c4ec4fr			; 6.15385
	DW	0d6H
	DW	01b7H
	DD	040f62762r			; 7.69231
	DW	0d6H
	DW	01b6H
	DD	04113b13br			; 9.23077
	DW	0d6H
	DW	01b5H
	DD	0412c4ec5r			; 10.7692
	DW	0d6H
	DW	01b4H
	DD	04144ec4fr			; 12.3077
	DW	0d5H
	DW	01b3H
	DD	0415d89d9r			; 13.8462
	DW	0d5H
	DW	01b2H
	DD	041762762r			; 15.3846
	DW	0d5H
	DW	01b1H
	DD	041876276r			; 16.9231
	DW	0d5H
	DW	01b0H
	DD	04193b13br			; 18.4615
	DW	0d5H
	DW	01afH
	DD	041a00000r			; 20
	DW	0d4H
	DW	01aeH
	DD	041ad5555r			; 21.6667
	DW	0d4H
	DW	01adH
	DD	041baaaabr			; 23.3333
	DW	0d4H
	DW	01acH
	DD	041c80000r			; 25
	DW	0d4H
	DW	01abH
	DD	041d55555r			; 26.6667
	DW	0d4H
	DW	01aaH
	DD	041e2aaabr			; 28.3333
	DW	0d4H
	DW	01a9H
	DD	041f00000r			; 30
	DW	0d3H
	DW	01a8H
	DD	041fd5555r			; 31.6667
	DW	0d3H
	DW	01a7H
	DD	042055555r			; 33.3333
	DW	0d3H
	DW	01a6H
	DD	0420c0000r			; 35
	DW	0d3H
	DW	01a5H
	DD	04212aaabr			; 36.6667
	DW	0d3H
	DW	01a4H
	DD	042195555r			; 38.3333
	DW	0d2H
	DW	01a3H
	DD	042200000r			; 40
	DW	0d2H
	DW	01a2H
	DD	042262762r			; 41.5385
	DW	0d2H
	DW	01a1H
	DD	0422c4ec5r			; 43.0769
	DW	0d2H
	DW	01a0H
	DD	042327627r			; 44.6154
	DW	0d2H
	DW	019fH
	DD	042389d8ar			; 46.1538
	DW	0d2H
	DW	019eH
	DD	0423ec4ecr			; 47.6923
	DW	0d1H
	DW	019dH
	DD	04244ec4fr			; 49.2308
	DW	0d1H
	DW	019cH
	DD	0424b13b1r			; 50.7692
	DW	0d1H
	DW	019bH
	DD	042513b14r			; 52.3077
	DW	0d1H
	DW	019aH
	DD	042576276r			; 53.8462
	DW	0d1H
	DW	0199H
	DD	0425d89d9r			; 55.3846
	DW	0d0H
	DW	0198H
	DD	04263b13br			; 56.9231
	DW	0d0H
	DW	0197H
	DD	04269d89er			; 58.4615
	DW	0d0H
	DW	0196H
	DD	042700000r			; 60
	DW	0d0H
	DW	0195H
	DD	04276aaabr			; 61.6667
	DW	0d0H
	DW	0194H
	DD	0427d5555r			; 63.3333
	DW	0cfH
	DW	0193H
	DD	042820000r			; 65
	DW	0cfH
	DW	0192H
	DD	042855555r			; 66.6667
	DW	0cfH
	DW	0191H
	DD	04288aaabr			; 68.3333
	DW	0cfH
	DW	0190H
	DD	0428c0000r			; 70
	DW	0cfH
	DW	018fH
	DD	0428f5555r			; 71.6667
	DW	0cfH
	DW	018eH
	DD	04292aaabr			; 73.3333
	DW	0ceH
	DW	018dH
	DD	042960000r			; 75
	DW	0ceH
	DW	018cH
	DD	042995555r			; 76.6667
	DW	0ceH
	DW	018bH
	DD	0429caaabr			; 78.3333
	DW	0ceH
	DW	018aH
	DD	042a00000r			; 80
	DW	0ceH
	DW	0189H
	DD	042a313b1r			; 81.5385
	DW	0cdH
	DW	0188H
	DD	042a62762r			; 83.0769
	DW	0cdH
	DW	0187H
	DD	042a93b14r			; 84.6154
	DW	0cdH
	DW	0186H
	DD	042ac4ec5r			; 86.1538
	DW	0cdH
	DW	0185H
	DD	042af6276r			; 87.6923
	DW	0cdH
	DW	0184H
	DD	042b27627r			; 89.2308
	DW	0cdH
	DW	0183H
	DD	042b589d9r			; 90.7692
	DW	0ccH
	DW	0182H
	DD	042b89d8ar			; 92.3077
	DW	0ccH
	DW	0181H
	DD	042bbb13br			; 93.8462
	DW	0ccH
	DW	0180H
	DD	042bec4ecr			; 95.3846
	DW	0ccH
	DW	017fH
	DD	042c1d89er			; 96.9231
	DW	0ccH
	DW	017eH
	DD	042c4ec4fr			; 98.4615
	DW	0cbH
	DW	017dH
	DD	042c80000r			; 100
	DW	0cbH
	DW	017cH
	DD	042cc0000r			; 102
	DW	0cbH
	DW	017bH
	DD	042d00000r			; 104
	DW	0cbH
	DW	017aH
	DD	042d40000r			; 106
	DW	0cbH
	DW	0179H
	DD	042d80000r			; 108
	DW	0cbH
	DW	0178H
	DD	042dc0000r			; 110
	DW	00H
	DW	00H
	DD	07f7fffffr			; 3.40282e+38
?lh_engine_torque_indicator_line2_down_20_right_30@@3PAUSCALE_DATA@@A DW 0d8H ; lh_engine_torque_indicator_line2_down_20_right_30
	DW	01bcH
	DD	000000000r			; 0
	DW	0d8H
	DW	01bbH
	DD	03fc4ec4fr			; 1.53846
	DW	0d8H
	DW	01baH
	DD	04044ec4fr			; 3.07692
	DW	0d7H
	DW	01b9H
	DD	04093b13br			; 4.61538
	DW	0d7H
	DW	01b8H
	DD	040c4ec4fr			; 6.15385
	DW	0d7H
	DW	01b7H
	DD	040f62762r			; 7.69231
	DW	0d7H
	DW	01b6H
	DD	04113b13br			; 9.23077
	DW	0d7H
	DW	01b5H
	DD	0412c4ec5r			; 10.7692
	DW	0d7H
	DW	01b4H
	DD	04144ec4fr			; 12.3077
	DW	0d6H
	DW	01b3H
	DD	0415d89d9r			; 13.8462
	DW	0d6H
	DW	01b2H
	DD	041762762r			; 15.3846
	DW	0d6H
	DW	01b1H
	DD	041876276r			; 16.9231
	DW	0d6H
	DW	01b0H
	DD	04193b13br			; 18.4615
	DW	0d6H
	DW	01afH
	DD	041a00000r			; 20
	DW	0d5H
	DW	01aeH
	DD	041ad5555r			; 21.6667
	DW	0d5H
	DW	01adH
	DD	041baaaabr			; 23.3333
	DW	0d5H
	DW	01acH
	DD	041c80000r			; 25
	DW	0d5H
	DW	01abH
	DD	041d55555r			; 26.6667
	DW	0d5H
	DW	01aaH
	DD	041e2aaabr			; 28.3333
	DW	0d5H
	DW	01a9H
	DD	041f00000r			; 30
	DW	0d4H
	DW	01a8H
	DD	041fd5555r			; 31.6667
	DW	0d4H
	DW	01a7H
	DD	042055555r			; 33.3333
	DW	0d4H
	DW	01a6H
	DD	0420c0000r			; 35
	DW	0d4H
	DW	01a5H
	DD	04212aaabr			; 36.6667
	DW	0d4H
	DW	01a4H
	DD	042195555r			; 38.3333
	DW	0d3H
	DW	01a3H
	DD	042200000r			; 40
	DW	0d3H
	DW	01a2H
	DD	042262762r			; 41.5385
	DW	0d3H
	DW	01a1H
	DD	0422c4ec5r			; 43.0769
	DW	0d3H
	DW	01a0H
	DD	042327627r			; 44.6154
	DW	0d3H
	DW	019fH
	DD	042389d8ar			; 46.1538
	DW	0d2H
	DW	019eH
	DD	0423ec4ecr			; 47.6923
	DW	0d2H
	DW	019dH
	DD	04244ec4fr			; 49.2308
	DW	0d2H
	DW	019cH
	DD	0424b13b1r			; 50.7692
	DW	0d2H
	DW	019bH
	DD	042513b14r			; 52.3077
	DW	0d2H
	DW	019aH
	DD	042576276r			; 53.8462
	DW	0d2H
	DW	0199H
	DD	0425d89d9r			; 55.3846
	DW	0d1H
	DW	0198H
	DD	04263b13br			; 56.9231
	DW	0d1H
	DW	0197H
	DD	04269d89er			; 58.4615
	DW	0d1H
	DW	0196H
	DD	042700000r			; 60
	DW	0d1H
	DW	0195H
	DD	04276aaabr			; 61.6667
	DW	0d1H
	DW	0194H
	DD	0427d5555r			; 63.3333
	DW	0d0H
	DW	0193H
	DD	042820000r			; 65
	DW	0d0H
	DW	0192H
	DD	042855555r			; 66.6667
	DW	0d0H
	DW	0191H
	DD	04288aaabr			; 68.3333
	DW	0d0H
	DW	0190H
	DD	0428c0000r			; 70
	DW	0d0H
	DW	018fH
	DD	0428f5555r			; 71.6667
	DW	0d0H
	DW	018eH
	DD	04292aaabr			; 73.3333
	DW	0cfH
	DW	018dH
	DD	042960000r			; 75
	DW	0cfH
	DW	018cH
	DD	042995555r			; 76.6667
	DW	0cfH
	DW	018bH
	DD	0429caaabr			; 78.3333
	DW	0cfH
	DW	018aH
	DD	042a00000r			; 80
	DW	0cfH
	DW	0189H
	DD	042a313b1r			; 81.5385
	DW	0ceH
	DW	0188H
	DD	042a62762r			; 83.0769
	DW	0ceH
	DW	0187H
	DD	042a93b14r			; 84.6154
	DW	0ceH
	DW	0186H
	DD	042ac4ec5r			; 86.1538
	DW	0ceH
	DW	0185H
	DD	042af6276r			; 87.6923
	DW	0ceH
	DW	0184H
	DD	042b27627r			; 89.2308
	DW	0cdH
	DW	0183H
	DD	042b589d9r			; 90.7692
	DW	0cdH
	DW	0182H
	DD	042b89d8ar			; 92.3077
	DW	0cdH
	DW	0181H
	DD	042bbb13br			; 93.8462
	DW	0cdH
	DW	0180H
	DD	042bec4ecr			; 95.3846
	DW	0cdH
	DW	017fH
	DD	042c1d89er			; 96.9231
	DW	0cdH
	DW	017eH
	DD	042c4ec4fr			; 98.4615
	DW	0ccH
	DW	017dH
	DD	042c80000r			; 100
	DW	0ccH
	DW	017cH
	DD	042cc0000r			; 102
	DW	0ccH
	DW	017bH
	DD	042d00000r			; 104
	DW	0ccH
	DW	017aH
	DD	042d40000r			; 106
	DW	0ccH
	DW	0179H
	DD	042d80000r			; 108
	DW	0ccH
	DW	0178H
	DD	042dc0000r			; 110
	DW	00H
	DW	00H
	DD	07f7fffffr			; 3.40282e+38
?rh_engine_torque_indicator_line1_down_20_right_30@@3PAUSCALE_DATA@@A DW 0e4H ; rh_engine_torque_indicator_line1_down_20_right_30
	DW	01b8H
	DD	000000000r			; 0
	DW	0e4H
	DW	01b7H
	DD	03fd55555r			; 1.66667
	DW	0e4H
	DW	01b6H
	DD	040555555r			; 3.33333
	DW	0e4H
	DW	01b5H
	DD	040a00000r			; 5
	DW	0e4H
	DW	01b4H
	DD	040d55555r			; 6.66667
	DW	0e3H
	DW	01b3H
	DD	041055555r			; 8.33333
	DW	0e3H
	DW	01b2H
	DD	041200000r			; 10
	DW	0e3H
	DW	01b1H
	DD	0413aaaabr			; 11.6667
	DW	0e3H
	DW	01b0H
	DD	041555555r			; 13.3333
	DW	0e3H
	DW	01afH
	DD	041700000r			; 15
	DW	0e2H
	DW	01aeH
	DD	041855555r			; 16.6667
	DW	0e2H
	DW	01adH
	DD	04192aaabr			; 18.3333
	DW	0e2H
	DW	01acH
	DD	041a00000r			; 20
	DW	0e2H
	DW	01abH
	DD	041ad5555r			; 21.6667
	DW	0e2H
	DW	01aaH
	DD	041baaaabr			; 23.3333
	DW	0e2H
	DW	01a9H
	DD	041c80000r			; 25
	DW	0e1H
	DW	01a8H
	DD	041d55555r			; 26.6667
	DW	0e1H
	DW	01a7H
	DD	041e2aaabr			; 28.3333
	DW	0e1H
	DW	01a6H
	DD	041f00000r			; 30
	DW	0e1H
	DW	01a5H
	DD	041fd5555r			; 31.6667
	DW	0e1H
	DW	01a4H
	DD	042055555r			; 33.3333
	DW	0e0H
	DW	01a3H
	DD	0420c0000r			; 35
	DW	0e0H
	DW	01a2H
	DD	04212aaabr			; 36.6667
	DW	0e0H
	DW	01a1H
	DD	042195555r			; 38.3333
	DW	0e0H
	DW	01a0H
	DD	042200000r			; 40
	DW	0e0H
	DW	019fH
	DD	042262762r			; 41.5385
	DW	0e0H
	DW	019eH
	DD	0422c4ec5r			; 43.0769
	DW	0dfH
	DW	019dH
	DD	042327627r			; 44.6154
	DW	0dfH
	DW	019cH
	DD	042389d8ar			; 46.1538
	DW	0dfH
	DW	019bH
	DD	0423ec4ecr			; 47.6923
	DW	0dfH
	DW	019aH
	DD	04244ec4fr			; 49.2308
	DW	0dfH
	DW	0199H
	DD	0424b13b1r			; 50.7692
	DW	0deH
	DW	0198H
	DD	042513b14r			; 52.3077
	DW	0deH
	DW	0197H
	DD	042576276r			; 53.8462
	DW	0deH
	DW	0196H
	DD	0425d89d9r			; 55.3846
	DW	0deH
	DW	0195H
	DD	04263b13br			; 56.9231
	DW	0deH
	DW	0194H
	DD	04269d89er			; 58.4615
	DW	0deH
	DW	0193H
	DD	042700000r			; 60
	DW	0ddH
	DW	0192H
	DD	04276aaabr			; 61.6667
	DW	0ddH
	DW	0191H
	DD	0427d5555r			; 63.3333
	DW	0ddH
	DW	0190H
	DD	042820000r			; 65
	DW	0ddH
	DW	018fH
	DD	042855555r			; 66.6667
	DW	0ddH
	DW	018eH
	DD	04288aaabr			; 68.3333
	DW	0dcH
	DW	018dH
	DD	0428c0000r			; 70
	DW	0dcH
	DW	018cH
	DD	0428f5555r			; 71.6667
	DW	0dcH
	DW	018bH
	DD	04292aaabr			; 73.3333
	DW	0dcH
	DW	018aH
	DD	042960000r			; 75
	DW	0dcH
	DW	0189H
	DD	042995555r			; 76.6667
	DW	0dbH
	DW	0188H
	DD	0429caaabr			; 78.3333
	DW	0dbH
	DW	0187H
	DD	042a00000r			; 80
	DW	0dbH
	DW	0186H
	DD	042a35555r			; 81.6667
	DW	0dbH
	DW	0185H
	DD	042a6aaabr			; 83.3333
	DW	0dbH
	DW	0184H
	DD	042aa0000r			; 85
	DW	0dbH
	DW	0183H
	DD	042ad5555r			; 86.6667
	DW	0daH
	DW	0182H
	DD	042b0aaabr			; 88.3333
	DW	0daH
	DW	0181H
	DD	042b40000r			; 90
	DW	0daH
	DW	0180H
	DD	042b75555r			; 91.6667
	DW	0daH
	DW	017fH
	DD	042baaaabr			; 93.3333
	DW	0daH
	DW	017eH
	DD	042be0000r			; 95
	DW	0d9H
	DW	017dH
	DD	042c15555r			; 96.6667
	DW	0d9H
	DW	017cH
	DD	042c4aaabr			; 98.3333
	DW	0d9H
	DW	017bH
	DD	042c80000r			; 100
	DW	0d9H
	DW	017aH
	DD	042cb5555r			; 101.667
	DW	0d9H
	DW	0179H
	DD	042ceaaabr			; 103.333
	DW	0d9H
	DW	0178H
	DD	042d20000r			; 105
	DW	0d8H
	DW	0177H
	DD	042d55555r			; 106.667
	DW	0d8H
	DW	0176H
	DD	042d8aaabr			; 108.333
	DW	0d8H
	DW	0175H
	DD	042dc0000r			; 110
	DW	00H
	DW	00H
	DD	07f7fffffr			; 3.40282e+38
?rh_engine_torque_indicator_line2_down_20_right_30@@3PAUSCALE_DATA@@A DW 0e5H ; rh_engine_torque_indicator_line2_down_20_right_30
	DW	01b8H
	DD	000000000r			; 0
	DW	0e5H
	DW	01b7H
	DD	03fd55555r			; 1.66667
	DW	0e5H
	DW	01b6H
	DD	040555555r			; 3.33333
	DW	0e5H
	DW	01b5H
	DD	040a00000r			; 5
	DW	0e4H
	DW	01b4H
	DD	040d55555r			; 6.66667
	DW	0e4H
	DW	01b3H
	DD	041055555r			; 8.33333
	DW	0e4H
	DW	01b2H
	DD	041200000r			; 10
	DW	0e4H
	DW	01b1H
	DD	0413aaaabr			; 11.6667
	DW	0e4H
	DW	01b0H
	DD	041555555r			; 13.3333
	DW	0e4H
	DW	01afH
	DD	041700000r			; 15
	DW	0e3H
	DW	01aeH
	DD	041855555r			; 16.6667
	DW	0e3H
	DW	01adH
	DD	04192aaabr			; 18.3333
	DW	0e3H
	DW	01acH
	DD	041a00000r			; 20
	DW	0e3H
	DW	01abH
	DD	041ad5555r			; 21.6667
	DW	0e3H
	DW	01aaH
	DD	041baaaabr			; 23.3333
	DW	0e2H
	DW	01a9H
	DD	041c80000r			; 25
	DW	0e2H
	DW	01a8H
	DD	041d55555r			; 26.6667
	DW	0e2H
	DW	01a7H
	DD	041e2aaabr			; 28.3333
	DW	0e2H
	DW	01a6H
	DD	041f00000r			; 30
	DW	0e2H
	DW	01a5H
	DD	041fd5555r			; 31.6667
	DW	0e2H
	DW	01a4H
	DD	042055555r			; 33.3333
	DW	0e1H
	DW	01a3H
	DD	0420c0000r			; 35
	DW	0e1H
	DW	01a2H
	DD	04212aaabr			; 36.6667
	DW	0e1H
	DW	01a1H
	DD	042195555r			; 38.3333
	DW	0e1H
	DW	01a0H
	DD	042200000r			; 40
	DW	0e1H
	DW	019fH
	DD	042262762r			; 41.5385
	DW	0e0H
	DW	019eH
	DD	0422c4ec5r			; 43.0769
	DW	0e0H
	DW	019dH
	DD	042327627r			; 44.6154
	DW	0e0H
	DW	019cH
	DD	042389d8ar			; 46.1538
	DW	0e0H
	DW	019bH
	DD	0423ec4ecr			; 47.6923
	DW	0e0H
	DW	019aH
	DD	04244ec4fr			; 49.2308
	DW	0e0H
	DW	0199H
	DD	0424b13b1r			; 50.7692
	DW	0dfH
	DW	0198H
	DD	042513b14r			; 52.3077
	DW	0dfH
	DW	0197H
	DD	042576276r			; 53.8462
	DW	0dfH
	DW	0196H
	DD	0425d89d9r			; 55.3846
	DW	0dfH
	DW	0195H
	DD	04263b13br			; 56.9231
	DW	0dfH
	DW	0194H
	DD	04269d89er			; 58.4615
	DW	0deH
	DW	0193H
	DD	042700000r			; 60
	DW	0deH
	DW	0192H
	DD	04276aaabr			; 61.6667
	DW	0deH
	DW	0191H
	DD	0427d5555r			; 63.3333
	DW	0deH
	DW	0190H
	DD	042820000r			; 65
	DW	0deH
	DW	018fH
	DD	042855555r			; 66.6667
	DW	0ddH
	DW	018eH
	DD	04288aaabr			; 68.3333
	DW	0ddH
	DW	018dH
	DD	0428c0000r			; 70
	DW	0ddH
	DW	018cH
	DD	0428f5555r			; 71.6667
	DW	0ddH
	DW	018bH
	DD	04292aaabr			; 73.3333
	DW	0ddH
	DW	018aH
	DD	042960000r			; 75
	DW	0ddH
	DW	0189H
	DD	042995555r			; 76.6667
	DW	0dcH
	DW	0188H
	DD	0429caaabr			; 78.3333
	DW	0dcH
	DW	0187H
	DD	042a00000r			; 80
	DW	0dcH
	DW	0186H
	DD	042a35555r			; 81.6667
	DW	0dcH
	DW	0185H
	DD	042a6aaabr			; 83.3333
	DW	0dcH
	DW	0184H
	DD	042aa0000r			; 85
	DW	0dbH
	DW	0183H
	DD	042ad5555r			; 86.6667
	DW	0dbH
	DW	0182H
	DD	042b0aaabr			; 88.3333
	DW	0dbH
	DW	0181H
	DD	042b40000r			; 90
	DW	0dbH
	DW	0180H
	DD	042b75555r			; 91.6667
	DW	0dbH
	DW	017fH
	DD	042baaaabr			; 93.3333
	DW	0dbH
	DW	017eH
	DD	042be0000r			; 95
	DW	0daH
	DW	017dH
	DD	042c15555r			; 96.6667
	DW	0daH
	DW	017cH
	DD	042c4aaabr			; 98.3333
	DW	0daH
	DW	017bH
	DD	042c80000r			; 100
	DW	0daH
	DW	017aH
	DD	042cb5555r			; 101.667
	DW	0daH
	DW	0179H
	DD	042ceaaabr			; 103.333
	DW	0d9H
	DW	0178H
	DD	042d20000r			; 105
	DW	0d9H
	DW	0177H
	DD	042d55555r			; 106.667
	DW	0d9H
	DW	0176H
	DD	042d8aaabr			; 108.333
	DW	0d9H
	DW	0175H
	DD	042dc0000r			; 110
	DW	00H
	DW	00H
	DD	07f7fffffr			; 3.40282e+38
?fuel_gauge_needle_scale_down_20_ahead@@3PAUSCALE_DATA@@A DW 0199H ; fuel_gauge_needle_scale_down_20_ahead
	DW	01bdH
	DD	000000000r			; 0
	DW	0198H
	DW	01bcH
	DD	041d286bdr			; 26.3158
	DW	0197H
	DW	01bbH
	DD	0425286bdr			; 52.6316
	DW	0196H
	DW	01baH
	DD	0429de50dr			; 78.9474
	DW	0196H
	DW	01b9H
	DD	042d286bdr			; 105.263
	DW	0196H
	DW	01b8H
	DD	043039436r			; 131.579
	DW	0196H
	DW	01b7H
	DD	0431de50dr			; 157.895
	DW	0195H
	DW	01b6H
	DD	0433835e5r			; 184.211
	DW	0195H
	DW	01b5H
	DD	0435286bdr			; 210.526
	DW	0195H
	DW	01b4H
	DD	0436cd794r			; 236.842
	DW	0195H
	DW	01b3H
	DD	043839436r			; 263.158
	DW	0195H
	DW	01b2H
	DD	04390bca2r			; 289.474
	DW	0195H
	DW	01b1H
	DD	0439de50dr			; 315.789
	DW	0195H
	DW	01b0H
	DD	043ab0d79r			; 342.105
	DW	0196H
	DW	01afH
	DD	043b835e5r			; 368.421
	DW	0196H
	DW	01aeH
	DD	043c55e51r			; 394.737
	DW	0197H
	DW	01adH
	DD	043d286bdr			; 421.053
	DW	0197H
	DW	01acH
	DD	043dfaf28r			; 447.368
	DW	0198H
	DW	01abH
	DD	043ecd794r			; 473.684
	DW	0199H
	DW	01aaH
	DD	043fa0000r			; 500
	DW	019aH
	DW	01a9H
	DD	044034000r			; 525
	DW	019bH
	DW	01a8H
	DD	044098000r			; 550
	DW	019cH
	DW	01a8H
	DD	0440fc000r			; 575
	DW	019dH
	DW	01a7H
	DD	044160000r			; 600
	DW	019eH
	DW	01a7H
	DD	0441c4000r			; 625
	DW	019fH
	DW	01a6H
	DD	044228000r			; 650
	DW	01a0H
	DW	01a6H
	DD	04428c000r			; 675
	DW	01a1H
	DW	01a6H
	DD	0442f0000r			; 700
	DW	01a2H
	DW	01a6H
	DD	044354000r			; 725
	DW	01a3H
	DW	01a6H
	DD	0443b8000r			; 750
	DW	01a4H
	DW	01a6H
	DD	04441c000r			; 775
	DW	01a5H
	DW	01a6H
	DD	044480000r			; 800
	DW	01a6H
	DW	01a6H
	DD	0444e4000r			; 825
	DW	01a7H
	DW	01a6H
	DD	044548000r			; 850
	DW	01a8H
	DW	01a6H
	DD	0445ac000r			; 875
	DW	01a9H
	DW	01a7H
	DD	044610000r			; 900
	DW	01aaH
	DW	01a7H
	DD	044674000r			; 925
	DW	01abH
	DW	01a8H
	DD	0446d8000r			; 950
	DW	01acH
	DW	01a9H
	DD	04473c000r			; 975
	DW	01adH
	DW	01aaH
	DD	0447a0000r			; 1000
	DW	01aeH
	DW	01abH
	DD	044804a1br			; 1026.32
	DW	01aeH
	DW	01acH
	DD	044839436r			; 1052.63
	DW	01afH
	DW	01adH
	DD	04486de51r			; 1078.95
	DW	01b0H
	DW	01aeH
	DD	0448a286cr			; 1105.26
	DW	01b0H
	DW	01afH
	DD	0448d7287r			; 1131.58
	DW	01b1H
	DW	01b0H
	DD	04490bca2r			; 1157.89
	DW	01b1H
	DW	01b1H
	DD	0449406bdr			; 1184.21
	DW	01b1H
	DW	01b2H
	DD	0449750d8r			; 1210.53
	DW	01b1H
	DW	01b3H
	DD	0449a9af3r			; 1236.84
	DW	01b1H
	DW	01b4H
	DD	0449de50dr			; 1263.16
	DW	01b1H
	DW	01b5H
	DD	044a12f28r			; 1289.47
	DW	01b1H
	DW	01b6H
	DD	044a47943r			; 1315.79
	DW	01b0H
	DW	01b7H
	DD	044a7c35er			; 1342.11
	DW	01b0H
	DW	01b8H
	DD	044ab0d79r			; 1368.42
	DW	01b0H
	DW	01b9H
	DD	044ae5794r			; 1394.74
	DW	01afH
	DW	01baH
	DD	044b1a1afr			; 1421.05
	DW	01afH
	DW	01bbH
	DD	044b4ebcar			; 1447.37
	DW	01aeH
	DW	01bcH
	DD	044b835e5r			; 1473.68
	DW	01adH
	DW	01bdH
	DD	044bb8000r			; 1500
	DW	01acH
	DW	01beH
	DD	044bfaaabr			; 1533.33
	DW	01abH
	DW	01bfH
	DD	044c3d555r			; 1566.67
	DW	01aaH
	DW	01bfH
	DD	044c80000r			; 1600
	DW	00H
	DW	00H
	DD	07f7fffffr			; 3.40282e+38
?fuel_gauge_needle_scale_down_20_right_30@@3PAUSCALE_DATA@@A DW 0a7H ; fuel_gauge_needle_scale_down_20_right_30
	DW	01c8H
	DD	000000000r			; 0
	DW	0a6H
	DW	01c7H
	DD	041c80000r			; 25
	DW	0a5H
	DW	01c7H
	DD	042480000r			; 50
	DW	0a4H
	DW	01c6H
	DD	042960000r			; 75
	DW	0a3H
	DW	01c5H
	DD	042c80000r			; 100
	DW	0a3H
	DW	01c4H
	DD	042fa0000r			; 125
	DW	0a2H
	DW	01c3H
	DD	043160000r			; 150
	DW	0a2H
	DW	01c2H
	DD	0432f0000r			; 175
	DW	0a2H
	DW	01c1H
	DD	043480000r			; 200
	DW	0a1H
	DW	01c0H
	DD	043610000r			; 225
	DW	0a1H
	DW	01bfH
	DD	0437a0000r			; 250
	DW	0a1H
	DW	01beH
	DD	043898000r			; 275
	DW	0a1H
	DW	01bdH
	DD	043960000r			; 300
	DW	0a1H
	DW	01bcH
	DD	043a28000r			; 325
	DW	0a1H
	DW	01bbH
	DD	043af0000r			; 350
	DW	0a2H
	DW	01baH
	DD	043bb8000r			; 375
	DW	0a2H
	DW	01b9H
	DD	043c80000r			; 400
	DW	0a2H
	DW	01b8H
	DD	043d48000r			; 425
	DW	0a3H
	DW	01b7H
	DD	043e10000r			; 450
	DW	0a3H
	DW	01b6H
	DD	043ed8000r			; 475
	DW	0a4H
	DW	01b5H
	DD	043fa0000r			; 500
	DW	0a4H
	DW	01b4H
	DD	04402f3cfr			; 523.81
	DW	0a5H
	DW	01b3H
	DD	04408e79er			; 547.619
	DW	0a6H
	DW	01b2H
	DD	0440edb6er			; 571.429
	DW	0a7H
	DW	01b1H
	DD	04414cf3dr			; 595.238
	DW	0a8H
	DW	01b0H
	DD	0441ac30cr			; 619.048
	DW	0a9H
	DW	01b0H
	DD	04420b6dbr			; 642.857
	DW	0aaH
	DW	01afH
	DD	04426aaabr			; 666.667
	DW	0abH
	DW	01aeH
	DD	0442c9e7ar			; 690.476
	DW	0acH
	DW	01aeH
	DD	044329249r			; 714.286
	DW	0adH
	DW	01aeH
	DD	044388618r			; 738.095
	DW	0aeH
	DW	01adH
	DD	0443e79e8r			; 761.905
	DW	0afH
	DW	01adH
	DD	044446db7r			; 785.714
	DW	0b0H
	DW	01adH
	DD	0444a6186r			; 809.524
	DW	0b1H
	DW	01adH
	DD	044505555r			; 833.333
	DW	0b2H
	DW	01adH
	DD	044564925r			; 857.143
	DW	0b3H
	DW	01adH
	DD	0445c3cf4r			; 880.952
	DW	0b4H
	DW	01adH
	DD	0446230c3r			; 904.762
	DW	0b5H
	DW	01adH
	DD	044682492r			; 928.571
	DW	0b6H
	DW	01adH
	DD	0446e1862r			; 952.381
	DW	0b7H
	DW	01aeH
	DD	044740c31r			; 976.19
	DW	0b8H
	DW	01afH
	DD	0447a0000r			; 1000
	DW	0b9H
	DW	01afH
	DD	044804a1br			; 1026.32
	DW	0baH
	DW	01b0H
	DD	044839436r			; 1052.63
	DW	0bbH
	DW	01b1H
	DD	04486de51r			; 1078.95
	DW	0bcH
	DW	01b2H
	DD	0448a286cr			; 1105.26
	DW	0bcH
	DW	01b3H
	DD	0448d7287r			; 1131.58
	DW	0bdH
	DW	01b4H
	DD	04490bca2r			; 1157.89
	DW	0bdH
	DW	01b5H
	DD	0449406bdr			; 1184.21
	DW	0bdH
	DW	01b6H
	DD	0449750d8r			; 1210.53
	DW	0beH
	DW	01b7H
	DD	0449a9af3r			; 1236.84
	DW	0beH
	DW	01b8H
	DD	0449de50dr			; 1263.16
	DW	0beH
	DW	01b9H
	DD	044a12f28r			; 1289.47
	DW	0beH
	DW	01baH
	DD	044a47943r			; 1315.79
	DW	0bdH
	DW	01bbH
	DD	044a7c35er			; 1342.11
	DW	0bdH
	DW	01bcH
	DD	044ab0d79r			; 1368.42
	DW	0bdH
	DW	01bdH
	DD	044ae5794r			; 1394.74
	DW	0bdH
	DW	01beH
	DD	044b1a1afr			; 1421.05
	DW	0bcH
	DW	01bfH
	DD	044b4ebcar			; 1447.37
	DW	0bcH
	DW	01c0H
	DD	044b835e5r			; 1473.68
	DW	0bbH
	DW	01c1H
	DD	044bb8000r			; 1500
	DW	0bbH
	DW	01c2H
	DD	044bea000r			; 1525
	DW	0baH
	DW	01c3H
	DD	044c1c000r			; 1550
	DW	0b9H
	DW	01c4H
	DD	044c4e000r			; 1575
	DW	0b8H
	DW	01c5H
	DD	044c80000r			; 1600
	DW	00H
	DW	00H
	DD	07f7fffffr			; 3.40282e+38
?g_meter_needle_scale_level_ahead@@3PAUSCALE_DATA@@A DW 064H ; g_meter_needle_scale_level_ahead
	DW	017aH
	DD	0c0000000r			; -2
	DW	064H
	DW	0179H
	DD	0bff77777r			; -1.93333
	DW	064H
	DW	0178H
	DD	0bfeeeeefr			; -1.86667
	DW	064H
	DW	0177H
	DD	0bfe66666r			; -1.8
	DW	064H
	DW	0176H
	DD	0bfddddder			; -1.73333
	DW	065H
	DW	0175H
	DD	0bfd55555r			; -1.66667
	DW	065H
	DW	0174H
	DD	0bfcccccdr			; -1.6
	DW	065H
	DW	0173H
	DD	0bfc44444r			; -1.53333
	DW	065H
	DW	0172H
	DD	0bfbbbbbcr			; -1.46667
	DW	066H
	DW	0171H
	DD	0bfb33333r			; -1.4
	DW	066H
	DW	0170H
	DD	0bfaaaaabr			; -1.33333
	DW	067H
	DW	016fH
	DD	0bfa22222r			; -1.26667
	DW	067H
	DW	016eH
	DD	0bf99999ar			; -1.2
	DW	068H
	DW	016dH
	DD	0bf911111r			; -1.13333
	DW	069H
	DW	016cH
	DD	0bf888889r			; -1.06667
	DW	06aH
	DW	016bH
	DD	0bf800000r			; -1
	DW	06bH
	DW	016aH
	DD	0bf6c4ec5r			; -0.923077
	DW	06cH
	DW	0169H
	DD	0bf589d8ar			; -0.846154
	DW	06dH
	DW	0168H
	DD	0bf44ec4fr			; -0.769231
	DW	06eH
	DW	0167H
	DD	0bf313b14r			; -0.692308
	DW	06fH
	DW	0167H
	DD	0bf1d89d9r			; -0.615385
	DW	070H
	DW	0166H
	DD	0bf09d89er			; -0.538462
	DW	071H
	DW	0166H
	DD	0beec4ec5r			; -0.461538
	DW	072H
	DW	0166H
	DD	0bec4ec4fr			; -0.384615
	DW	073H
	DW	0165H
	DD	0be9d89d9r			; -0.307692
	DW	074H
	DW	0165H
	DD	0be6c4ec5r			; -0.230769
	DW	075H
	DW	0165H
	DD	0be1d89d9r			; -0.153846
	DW	076H
	DW	0165H
	DD	0bd9d89d9r			; -0.0769231
	DW	077H
	DW	0165H
	DD	000000000r			; 0
	DW	078H
	DW	0165H
	DD	03d9d89d9r			; 0.0769231
	DW	079H
	DW	0165H
	DD	03e1d89d9r			; 0.153846
	DW	07aH
	DW	0165H
	DD	03e6c4ec5r			; 0.230769
	DW	07bH
	DW	0165H
	DD	03e9d89d9r			; 0.307692
	DW	07cH
	DW	0165H
	DD	03ec4ec4fr			; 0.384615
	DW	07dH
	DW	0166H
	DD	03eec4ec5r			; 0.461538
	DW	07eH
	DW	0166H
	DD	03f09d89er			; 0.538462
	DW	07fH
	DW	0167H
	DD	03f1d89d9r			; 0.615385
	DW	080H
	DW	0167H
	DD	03f313b14r			; 0.692308
	DW	081H
	DW	0168H
	DD	03f44ec4fr			; 0.769231
	DW	082H
	DW	0169H
	DD	03f589d8ar			; 0.846154
	DW	083H
	DW	016aH
	DD	03f6c4ec5r			; 0.923077
	DW	084H
	DW	016bH
	DD	03f800000r			; 1
	DW	085H
	DW	016cH
	DD	03f892492r			; 1.07143
	DW	085H
	DW	016dH
	DD	03f924925r			; 1.14286
	DW	085H
	DW	016eH
	DD	03f9b6db7r			; 1.21429
	DW	086H
	DW	016fH
	DD	03fa49249r			; 1.28571
	DW	086H
	DW	0170H
	DD	03fadb6dbr			; 1.35714
	DW	086H
	DW	0171H
	DD	03fb6db6er			; 1.42857
	DW	086H
	DW	0172H
	DD	03fc00000r			; 1.5
	DW	086H
	DW	0173H
	DD	03fc92492r			; 1.57143
	DW	086H
	DW	0174H
	DD	03fd24925r			; 1.64286
	DW	086H
	DW	0175H
	DD	03fdb6db7r			; 1.71429
	DW	086H
	DW	0176H
	DD	03fe49249r			; 1.78571
	DW	086H
	DW	0177H
	DD	03fedb6dbr			; 1.85714
	DW	086H
	DW	0178H
	DD	03ff6db6er			; 1.92857
	DW	086H
	DW	0179H
	DD	040000000r			; 2
	DW	085H
	DW	017aH
	DD	040049249r			; 2.07143
	DW	085H
	DW	017bH
	DD	040092492r			; 2.14286
	DW	085H
	DW	017cH
	DD	0400db6dbr			; 2.21429
	DW	084H
	DW	017dH
	DD	040124925r			; 2.28571
	DW	084H
	DW	017eH
	DD	04016db6er			; 2.35714
	DW	083H
	DW	017fH
	DD	0401b6db7r			; 2.42857
	DW	082H
	DW	0180H
	DD	040200000r			; 2.5
	DW	081H
	DW	0181H
	DD	040249249r			; 2.57143
	DW	080H
	DW	0182H
	DD	040292492r			; 2.64286
	DW	07fH
	DW	0183H
	DD	0402db6dbr			; 2.71429
	DW	07eH
	DW	0184H
	DD	040324925r			; 2.78571
	DW	07dH
	DW	0185H
	DD	04036db6er			; 2.85714
	DW	07cH
	DW	0185H
	DD	0403b6db7r			; 2.92857
	DW	07bH
	DW	0186H
	DD	040400000r			; 3
	DW	07aH
	DW	0186H
	DD	040444444r			; 3.06667
	DW	079H
	DW	0186H
	DD	040488889r			; 3.13333
	DW	078H
	DW	0187H
	DD	0404ccccdr			; 3.2
	DW	077H
	DW	0187H
	DD	040511111r			; 3.26667
	DW	076H
	DW	0187H
	DD	040555555r			; 3.33333
	DW	075H
	DW	0187H
	DD	04059999ar			; 3.4
	DW	074H
	DW	0187H
	DD	0405dddder			; 3.46667
	DW	073H
	DW	0187H
	DD	040622222r			; 3.53333
	DW	072H
	DW	0187H
	DD	040666666r			; 3.6
	DW	071H
	DW	0187H
	DD	0406aaaabr			; 3.66667
	DW	070H
	DW	0187H
	DD	0406eeeefr			; 3.73333
	DW	06fH
	DW	0187H
	DD	040733333r			; 3.8
	DW	06eH
	DW	0187H
	DD	040777777r			; 3.86667
	DW	06dH
	DW	0186H
	DD	0407bbbbcr			; 3.93333
	DW	06cH
	DW	0186H
	DD	040800000r			; 4
	DW	00H
	DW	00H
	DD	07f7fffffr			; 3.40282e+38
?g_meter_needle_scale_down_20_ahead@@3PAUSCALE_DATA@@A DW 06aH ; g_meter_needle_scale_down_20_ahead
	DW	0b5H
	DD	0c0000000r			; -2
	DW	06aH
	DW	0b4H
	DD	0bff6db6er			; -1.92857
	DW	069H
	DW	0b3H
	DD	0bfedb6dbr			; -1.85714
	DW	069H
	DW	0b2H
	DD	0bfe49249r			; -1.78571
	DW	069H
	DW	0b1H
	DD	0bfdb6db7r			; -1.71429
	DW	069H
	DW	0b0H
	DD	0bfd24925r			; -1.64286
	DW	069H
	DW	0afH
	DD	0bfc92492r			; -1.57143
	DW	06aH
	DW	0aeH
	DD	0bfc00000r			; -1.5
	DW	06aH
	DW	0adH
	DD	0bfb6db6er			; -1.42857
	DW	06aH
	DW	0acH
	DD	0bfadb6dbr			; -1.35714
	DW	06aH
	DW	0abH
	DD	0bfa49249r			; -1.28571
	DW	06bH
	DW	0aaH
	DD	0bf9b6db7r			; -1.21429
	DW	06bH
	DW	0a9H
	DD	0bf924925r			; -1.14286
	DW	06cH
	DW	0a8H
	DD	0bf892492r			; -1.07143
	DW	06dH
	DW	0a7H
	DD	0bf800000r			; -1
	DW	06dH
	DW	0a6H
	DD	0bf6db6dbr			; -0.928571
	DW	06eH
	DW	0a5H
	DD	0bf5b6db7r			; -0.857143
	DW	06fH
	DW	0a4H
	DD	0bf492492r			; -0.785714
	DW	070H
	DW	0a4H
	DD	0bf36db6er			; -0.714286
	DW	071H
	DW	0a3H
	DD	0bf249249r			; -0.642857
	DW	072H
	DW	0a3H
	DD	0bf124925r			; -0.571429
	DW	073H
	DW	0a2H
	DD	0bf000000r			; -0.5
	DW	074H
	DW	0a2H
	DD	0bedb6db7r			; -0.428571
	DW	075H
	DW	0a1H
	DD	0beb6db6er			; -0.357143
	DW	076H
	DW	0a1H
	DD	0be924925r			; -0.285714
	DW	077H
	DW	0a1H
	DD	0be5b6db7r			; -0.214286
	DW	078H
	DW	0a1H
	DD	0be124925r			; -0.142857
	DW	079H
	DW	0a1H
	DD	0bd924925r			; -0.0714286
	DW	07aH
	DW	0a1H
	DD	000000000r			; 0
	DW	07bH
	DW	0a1H
	DD	03d9d89d9r			; 0.0769231
	DW	07cH
	DW	0a1H
	DD	03e1d89d9r			; 0.153846
	DW	07dH
	DW	0a1H
	DD	03e6c4ec5r			; 0.230769
	DW	07eH
	DW	0a1H
	DD	03e9d89d9r			; 0.307692
	DW	07fH
	DW	0a1H
	DD	03ec4ec4fr			; 0.384615
	DW	080H
	DW	0a2H
	DD	03eec4ec5r			; 0.461538
	DW	081H
	DW	0a2H
	DD	03f09d89er			; 0.538462
	DW	082H
	DW	0a3H
	DD	03f1d89d9r			; 0.615385
	DW	083H
	DW	0a3H
	DD	03f313b14r			; 0.692308
	DW	084H
	DW	0a4H
	DD	03f44ec4fr			; 0.769231
	DW	085H
	DW	0a5H
	DD	03f589d8ar			; 0.846154
	DW	086H
	DW	0a6H
	DD	03f6c4ec5r			; 0.923077
	DW	087H
	DW	0a7H
	DD	03f800000r			; 1
	DW	088H
	DW	0a8H
	DD	03f892492r			; 1.07143
	DW	088H
	DW	0a9H
	DD	03f924925r			; 1.14286
	DW	089H
	DW	0aaH
	DD	03f9b6db7r			; 1.21429
	DW	089H
	DW	0abH
	DD	03fa49249r			; 1.28571
	DW	08aH
	DW	0acH
	DD	03fadb6dbr			; 1.35714
	DW	08aH
	DW	0adH
	DD	03fb6db6er			; 1.42857
	DW	08aH
	DW	0aeH
	DD	03fc00000r			; 1.5
	DW	08aH
	DW	0afH
	DD	03fc92492r			; 1.57143
	DW	08aH
	DW	0b0H
	DD	03fd24925r			; 1.64286
	DW	08aH
	DW	0b1H
	DD	03fdb6db7r			; 1.71429
	DW	08aH
	DW	0b2H
	DD	03fe49249r			; 1.78571
	DW	08aH
	DW	0b3H
	DD	03fedb6dbr			; 1.85714
	DW	08aH
	DW	0b4H
	DD	03ff6db6er			; 1.92857
	DW	08aH
	DW	0b5H
	DD	040000000r			; 2
	DW	08aH
	DW	0b6H
	DD	040055555r			; 2.08333
	DW	089H
	DW	0b7H
	DD	0400aaaabr			; 2.16667
	DW	089H
	DW	0b8H
	DD	040100000r			; 2.25
	DW	089H
	DW	0b9H
	DD	040155555r			; 2.33333
	DW	088H
	DW	0baH
	DD	0401aaaabr			; 2.41667
	DW	087H
	DW	0bbH
	DD	040200000r			; 2.5
	DW	087H
	DW	0bcH
	DD	040255555r			; 2.58333
	DW	086H
	DW	0bdH
	DD	0402aaaabr			; 2.66667
	DW	085H
	DW	0beH
	DD	040300000r			; 2.75
	DW	084H
	DW	0beH
	DD	040355555r			; 2.83333
	DW	083H
	DW	0bfH
	DD	0403aaaabr			; 2.91667
	DW	082H
	DW	0c0H
	DD	040400000r			; 3
	DW	081H
	DW	0c0H
	DD	040444444r			; 3.06667
	DW	080H
	DW	0c1H
	DD	040488889r			; 3.13333
	DW	07fH
	DW	0c1H
	DD	0404ccccdr			; 3.2
	DW	07eH
	DW	0c1H
	DD	040511111r			; 3.26667
	DW	07dH
	DW	0c1H
	DD	040555555r			; 3.33333
	DW	07cH
	DW	0c2H
	DD	04059999ar			; 3.4
	DW	07bH
	DW	0c2H
	DD	0405dddder			; 3.46667
	DW	07aH
	DW	0c2H
	DD	040622222r			; 3.53333
	DW	079H
	DW	0c2H
	DD	040666666r			; 3.6
	DW	078H
	DW	0c2H
	DD	0406aaaabr			; 3.66667
	DW	077H
	DW	0c1H
	DD	0406eeeefr			; 3.73333
	DW	076H
	DW	0c1H
	DD	040733333r			; 3.8
	DW	075H
	DW	0c1H
	DD	040777777r			; 3.86667
	DW	074H
	DW	0c1H
	DD	0407bbbbcr			; 3.93333
	DW	073H
	DW	0c0H
	DD	040800000r			; 4
	DW	00H
	DW	00H
	DD	07f7fffffr			; 3.40282e+38
?g_meter_needle_scale_level_left_30@@3PAUSCALE_DATA@@A DW 0192H ; g_meter_needle_scale_level_left_30
	DW	0171H
	DD	0c0000000r			; -2
	DW	0192H
	DW	0170H
	DD	0bff62762r			; -1.92308
	DW	0192H
	DW	016fH
	DD	0bfec4ec5r			; -1.84615
	DW	0192H
	DW	016eH
	DD	0bfe27627r			; -1.76923
	DW	0192H
	DW	016dH
	DD	0bfd89d8ar			; -1.69231
	DW	0193H
	DW	016cH
	DD	0bfcec4ecr			; -1.61538
	DW	0193H
	DW	016bH
	DD	0bfc4ec4fr			; -1.53846
	DW	0193H
	DW	016aH
	DD	0bfbb13b1r			; -1.46154
	DW	0194H
	DW	0169H
	DD	0bfb13b14r			; -1.38462
	DW	0194H
	DW	0168H
	DD	0bfa76276r			; -1.30769
	DW	0195H
	DW	0167H
	DD	0bf9d89d9r			; -1.23077
	DW	0195H
	DW	0166H
	DD	0bf93b13br			; -1.15385
	DW	0196H
	DW	0165H
	DD	0bf89d89er			; -1.07692
	DW	0197H
	DW	0164H
	DD	0bf800000r			; -1
	DW	0198H
	DW	0163H
	DD	0bf6aaaabr			; -0.916667
	DW	0199H
	DW	0162H
	DD	0bf555555r			; -0.833333
	DW	019aH
	DW	0162H
	DD	0bf400000r			; -0.75
	DW	019bH
	DW	0161H
	DD	0bf2aaaabr			; -0.666667
	DW	019cH
	DW	0161H
	DD	0bf155555r			; -0.583333
	DW	019dH
	DW	0160H
	DD	0bf000000r			; -0.5
	DW	019eH
	DW	0160H
	DD	0bed55555r			; -0.416667
	DW	019fH
	DW	0160H
	DD	0beaaaaabr			; -0.333333
	DW	01a0H
	DW	0160H
	DD	0be800000r			; -0.25
	DW	01a1H
	DW	0160H
	DD	0be2aaaabr			; -0.166667
	DW	01a2H
	DW	015fH
	DD	0bdaaaaabr			; -0.0833333
	DW	01a3H
	DW	0160H
	DD	000000000r			; 0
	DW	01a4H
	DW	0160H
	DD	03d9d89d9r			; 0.0769231
	DW	01a5H
	DW	0160H
	DD	03e1d89d9r			; 0.153846
	DW	01a6H
	DW	0160H
	DD	03e6c4ec5r			; 0.230769
	DW	01a7H
	DW	0160H
	DD	03e9d89d9r			; 0.307692
	DW	01a8H
	DW	0161H
	DD	03ec4ec4fr			; 0.384615
	DW	01a9H
	DW	0161H
	DD	03eec4ec5r			; 0.461538
	DW	01aaH
	DW	0162H
	DD	03f09d89er			; 0.538462
	DW	01abH
	DW	0163H
	DD	03f1d89d9r			; 0.615385
	DW	01acH
	DW	0163H
	DD	03f313b14r			; 0.692308
	DW	01adH
	DW	0164H
	DD	03f44ec4fr			; 0.769231
	DW	01aeH
	DW	0165H
	DD	03f589d8ar			; 0.846154
	DW	01aeH
	DW	0166H
	DD	03f6c4ec5r			; 0.923077
	DW	01afH
	DW	0167H
	DD	03f800000r			; 1
	DW	01afH
	DW	0168H
	DD	03f892492r			; 1.07143
	DW	01b0H
	DW	0169H
	DD	03f924925r			; 1.14286
	DW	01b0H
	DW	016aH
	DD	03f9b6db7r			; 1.21429
	DW	01b1H
	DW	016bH
	DD	03fa49249r			; 1.28571
	DW	01b1H
	DW	016cH
	DD	03fadb6dbr			; 1.35714
	DW	01b1H
	DW	016dH
	DD	03fb6db6er			; 1.42857
	DW	01b1H
	DW	016eH
	DD	03fc00000r			; 1.5
	DW	01b1H
	DW	016fH
	DD	03fc92492r			; 1.57143
	DW	01b1H
	DW	0170H
	DD	03fd24925r			; 1.64286
	DW	01b1H
	DW	0171H
	DD	03fdb6db7r			; 1.71429
	DW	01b1H
	DW	0172H
	DD	03fe49249r			; 1.78571
	DW	01b1H
	DW	0173H
	DD	03fedb6dbr			; 1.85714
	DW	01b1H
	DW	0174H
	DD	03ff6db6er			; 1.92857
	DW	01b0H
	DW	0175H
	DD	040000000r			; 2
	DW	01b0H
	DW	0176H
	DD	04004ec4fr			; 2.07692
	DW	01b0H
	DW	0177H
	DD	04009d89er			; 2.15385
	DW	01afH
	DW	0178H
	DD	0400ec4ecr			; 2.23077
	DW	01afH
	DW	0179H
	DD	04013b13br			; 2.30769
	DW	01aeH
	DW	017aH
	DD	040189d8ar			; 2.38462
	DW	01adH
	DW	017bH
	DD	0401d89d9r			; 2.46154
	DW	01acH
	DW	017cH
	DD	040227627r			; 2.53846
	DW	01abH
	DW	017dH
	DD	040276276r			; 2.61538
	DW	01aaH
	DW	017eH
	DD	0402c4ec5r			; 2.69231
	DW	01a9H
	DW	017eH
	DD	040313b14r			; 2.76923
	DW	01a8H
	DW	017fH
	DD	040362762r			; 2.84615
	DW	01a7H
	DW	017fH
	DD	0403b13b1r			; 2.92308
	DW	01a6H
	DW	0180H
	DD	040400000r			; 3
	DW	01a5H
	DW	0180H
	DD	04044ec4fr			; 3.07692
	DW	01a4H
	DW	0180H
	DD	04049d89er			; 3.15385
	DW	01a3H
	DW	0180H
	DD	0404ec4ecr			; 3.23077
	DW	01a2H
	DW	0180H
	DD	04053b13br			; 3.30769
	DW	01a1H
	DW	0180H
	DD	040589d8ar			; 3.38462
	DW	01a0H
	DW	0180H
	DD	0405d89d9r			; 3.46154
	DW	019fH
	DW	0180H
	DD	040627627r			; 3.53846
	DW	019eH
	DW	0180H
	DD	040676276r			; 3.61538
	DW	019dH
	DW	0180H
	DD	0406c4ec5r			; 3.69231
	DW	019cH
	DW	017fH
	DD	040713b14r			; 3.76923
	DW	019bH
	DW	017fH
	DD	040762762r			; 3.84615
	DW	019aH
	DW	017eH
	DD	0407b13b1r			; 3.92308
	DW	0199H
	DW	017eH
	DD	040800000r			; 4
	DW	00H
	DW	00H
	DD	07f7fffffr			; 3.40282e+38
?g_meter_needle_scale_down_20_left_30@@3PAUSCALE_DATA@@A DW 0191H ; g_meter_needle_scale_down_20_left_30
	DW	0adH
	DD	0c0000000r			; -2
	DW	0191H
	DW	0acH
	DD	0bff62762r			; -1.92308
	DW	0191H
	DW	0abH
	DD	0bfec4ec5r			; -1.84615
	DW	0191H
	DW	0aaH
	DD	0bfe27627r			; -1.76923
	DW	0191H
	DW	0a9H
	DD	0bfd89d8ar			; -1.69231
	DW	0191H
	DW	0a8H
	DD	0bfcec4ecr			; -1.61538
	DW	0192H
	DW	0a7H
	DD	0bfc4ec4fr			; -1.53846
	DW	0192H
	DW	0a6H
	DD	0bfbb13b1r			; -1.46154
	DW	0192H
	DW	0a5H
	DD	0bfb13b14r			; -1.38462
	DW	0193H
	DW	0a4H
	DD	0bfa76276r			; -1.30769
	DW	0193H
	DW	0a3H
	DD	0bf9d89d9r			; -1.23077
	DW	0194H
	DW	0a2H
	DD	0bf93b13br			; -1.15385
	DW	0195H
	DW	0a1H
	DD	0bf89d89er			; -1.07692
	DW	0196H
	DW	0a0H
	DD	0bf800000r			; -1
	DW	0197H
	DW	09fH
	DD	0bf6aaaabr			; -0.916667
	DW	0198H
	DW	09eH
	DD	0bf555555r			; -0.833333
	DW	0199H
	DW	09eH
	DD	0bf400000r			; -0.75
	DW	019aH
	DW	09dH
	DD	0bf2aaaabr			; -0.666667
	DW	019bH
	DW	09dH
	DD	0bf155555r			; -0.583333
	DW	019cH
	DW	09cH
	DD	0bf000000r			; -0.5
	DW	019dH
	DW	09cH
	DD	0bed55555r			; -0.416667
	DW	019eH
	DW	09cH
	DD	0beaaaaabr			; -0.333333
	DW	019fH
	DW	09cH
	DD	0be800000r			; -0.25
	DW	01a0H
	DW	09bH
	DD	0be2aaaabr			; -0.166667
	DW	01a1H
	DW	09bH
	DD	0bdaaaaabr			; -0.0833333
	DW	01a2H
	DW	09bH
	DD	000000000r			; 0
	DW	01a3H
	DW	09cH
	DD	03d9d89d9r			; 0.0769231
	DW	01a4H
	DW	09cH
	DD	03e1d89d9r			; 0.153846
	DW	01a5H
	DW	09cH
	DD	03e6c4ec5r			; 0.230769
	DW	01a6H
	DW	09cH
	DD	03e9d89d9r			; 0.307692
	DW	01a7H
	DW	09dH
	DD	03ec4ec4fr			; 0.384615
	DW	01a8H
	DW	09dH
	DD	03eec4ec5r			; 0.461538
	DW	01a9H
	DW	09eH
	DD	03f09d89er			; 0.538462
	DW	01aaH
	DW	09fH
	DD	03f1d89d9r			; 0.615385
	DW	01abH
	DW	09fH
	DD	03f313b14r			; 0.692308
	DW	01acH
	DW	0a0H
	DD	03f44ec4fr			; 0.769231
	DW	01acH
	DW	0a1H
	DD	03f589d8ar			; 0.846154
	DW	01adH
	DW	0a2H
	DD	03f6c4ec5r			; 0.923077
	DW	01aeH
	DW	0a3H
	DD	03f800000r			; 1
	DW	01aeH
	DW	0a4H
	DD	03f89d89er			; 1.07692
	DW	01aeH
	DW	0a5H
	DD	03f93b13br			; 1.15385
	DW	01afH
	DW	0a6H
	DD	03f9d89d9r			; 1.23077
	DW	01afH
	DW	0a7H
	DD	03fa76276r			; 1.30769
	DW	01afH
	DW	0a8H
	DD	03fb13b14r			; 1.38462
	DW	01afH
	DW	0a9H
	DD	03fbb13b1r			; 1.46154
	DW	01afH
	DW	0aaH
	DD	03fc4ec4fr			; 1.53846
	DW	01afH
	DW	0abH
	DD	03fcec4ecr			; 1.61538
	DW	01afH
	DW	0acH
	DD	03fd89d8ar			; 1.69231
	DW	01afH
	DW	0adH
	DD	03fe27627r			; 1.76923
	DW	01afH
	DW	0aeH
	DD	03fec4ec5r			; 1.84615
	DW	01aeH
	DW	0afH
	DD	03ff62762r			; 1.92308
	DW	01aeH
	DW	0b0H
	DD	040000000r			; 2
	DW	01aeH
	DW	0b1H
	DD	04004ec4fr			; 2.07692
	DW	01adH
	DW	0b2H
	DD	04009d89er			; 2.15385
	DW	01adH
	DW	0b3H
	DD	0400ec4ecr			; 2.23077
	DW	01acH
	DW	0b4H
	DD	04013b13br			; 2.30769
	DW	01abH
	DW	0b5H
	DD	040189d8ar			; 2.38462
	DW	01aaH
	DW	0b6H
	DD	0401d89d9r			; 2.46154
	DW	01a9H
	DW	0b7H
	DD	040227627r			; 2.53846
	DW	01a8H
	DW	0b8H
	DD	040276276r			; 2.61538
	DW	01a7H
	DW	0b9H
	DD	0402c4ec5r			; 2.69231
	DW	01a6H
	DW	0b9H
	DD	040313b14r			; 2.76923
	DW	01a5H
	DW	0baH
	DD	040362762r			; 2.84615
	DW	01a4H
	DW	0baH
	DD	0403b13b1r			; 2.92308
	DW	01a3H
	DW	0baH
	DD	040400000r			; 3
	DW	01a2H
	DW	0bbH
	DD	040455555r			; 3.08333
	DW	01a1H
	DW	0bbH
	DD	0404aaaabr			; 3.16667
	DW	01a0H
	DW	0bbH
	DD	040500000r			; 3.25
	DW	019fH
	DW	0bbH
	DD	040555555r			; 3.33333
	DW	019eH
	DW	0bbH
	DD	0405aaaabr			; 3.41667
	DW	019dH
	DW	0bbH
	DD	040600000r			; 3.5
	DW	019cH
	DW	0bbH
	DD	040655555r			; 3.58333
	DW	019bH
	DW	0bbH
	DD	0406aaaabr			; 3.66667
	DW	019aH
	DW	0baH
	DD	040700000r			; 3.75
	DW	0199H
	DW	0baH
	DD	040755555r			; 3.83333
	DW	0198H
	DW	0b9H
	DD	0407aaaabr			; 3.91667
	DW	0197H
	DW	0b9H
	DD	040800000r			; 4
	DW	00H
	DW	00H
	DD	07f7fffffr			; 3.40282e+38
?radar_altimeter_needle_scale_level_ahead@@3PAUSCALE_DATA@@A DW 069H ; radar_altimeter_needle_scale_level_ahead
	DW	0198H
	DD	000000000r			; 0
	DW	06aH
	DW	0198H
	DD	03fb6db6er			; 1.42857
	DW	06bH
	DW	0198H
	DD	04036db6er			; 2.85714
	DW	06cH
	DW	0198H
	DD	040892492r			; 4.28571
	DW	06dH
	DW	0198H
	DD	040b6db6er			; 5.71429
	DW	06eH
	DW	0198H
	DD	040e49249r			; 7.14286
	DW	06fH
	DW	0199H
	DD	041092492r			; 8.57143
	DW	070H
	DW	0199H
	DD	041200000r			; 10
	DW	071H
	DW	0199H
	DD	04136db6er			; 11.4286
	DW	072H
	DW	019aH
	DD	0414db6dbr			; 12.8571
	DW	073H
	DW	019aH
	DD	041649249r			; 14.2857
	DW	074H
	DW	019bH
	DD	0417b6db7r			; 15.7143
	DW	075H
	DW	019cH
	DD	041892492r			; 17.1429
	DW	076H
	DW	019dH
	DD	041949249r			; 18.5714
	DW	077H
	DW	019eH
	DD	041a00000r			; 20
	DW	078H
	DW	019fH
	DD	041aa0000r			; 21.25
	DW	079H
	DW	01a0H
	DD	041b40000r			; 22.5
	DW	079H
	DW	01a1H
	DD	041be0000r			; 23.75
	DW	07aH
	DW	01a2H
	DD	041c80000r			; 25
	DW	07aH
	DW	01a3H
	DD	041d20000r			; 26.25
	DW	07aH
	DW	01a4H
	DD	041dc0000r			; 27.5
	DW	07bH
	DW	01a5H
	DD	041e60000r			; 28.75
	DW	07bH
	DW	01a6H
	DD	041f00000r			; 30
	DW	07bH
	DW	01a7H
	DD	041fa0000r			; 31.25
	DW	07bH
	DW	01a8H
	DD	042020000r			; 32.5
	DW	07bH
	DW	01a9H
	DD	042070000r			; 33.75
	DW	07cH
	DW	01aaH
	DD	0420c0000r			; 35
	DW	07cH
	DW	01abH
	DD	042110000r			; 36.25
	DW	07cH
	DW	01acH
	DD	042160000r			; 37.5
	DW	07cH
	DW	01adH
	DD	0421b0000r			; 38.75
	DW	07bH
	DW	01aeH
	DD	042200000r			; 40
	DW	07bH
	DW	01afH
	DD	042250000r			; 41.25
	DW	07bH
	DW	01b0H
	DD	0422a0000r			; 42.5
	DW	07bH
	DW	01b1H
	DD	0422f0000r			; 43.75
	DW	07bH
	DW	01b2H
	DD	042340000r			; 45
	DW	07aH
	DW	01b3H
	DD	042390000r			; 46.25
	DW	07aH
	DW	01b4H
	DD	0423e0000r			; 47.5
	DW	07aH
	DW	01b5H
	DD	042430000r			; 48.75
	DW	079H
	DW	01b6H
	DD	042480000r			; 50
	DW	079H
	DW	01b7H
	DD	0424d0000r			; 51.25
	DW	078H
	DW	01b8H
	DD	042520000r			; 52.5
	DW	078H
	DW	01b9H
	DD	042570000r			; 53.75
	DW	077H
	DW	01baH
	DD	0425c0000r			; 55
	DW	076H
	DW	01bbH
	DD	042610000r			; 56.25
	DW	076H
	DW	01bcH
	DD	042660000r			; 57.5
	DW	075H
	DW	01bdH
	DD	0426b0000r			; 58.75
	DW	074H
	DW	01beH
	DD	042700000r			; 60
	DW	073H
	DW	01bfH
	DD	04274b4b5r			; 61.1765
	DW	072H
	DW	01c0H
	DD	042796969r			; 62.3529
	DW	071H
	DW	01c0H
	DD	0427e1e1er			; 63.5294
	DW	070H
	DW	01c1H
	DD	042816969r			; 64.7059
	DW	06fH
	DW	01c2H
	DD	04283c3c4r			; 65.8824
	DW	06eH
	DW	01c2H
	DD	042861e1er			; 67.0588
	DW	06dH
	DW	01c3H
	DD	042887878r			; 68.2353
	DW	06cH
	DW	01c3H
	DD	0428ad2d3r			; 69.4118
	DW	06bH
	DW	01c4H
	DD	0428d2d2dr			; 70.5882
	DW	06aH
	DW	01c4H
	DD	0428f8788r			; 71.7647
	DW	069H
	DW	01c4H
	DD	04291e1e2r			; 72.9412
	DW	068H
	DW	01c5H
	DD	042943c3cr			; 74.1176
	DW	067H
	DW	01c5H
	DD	042969697r			; 75.2941
	DW	066H
	DW	01c5H
	DD	04298f0f1r			; 76.4706
	DW	065H
	DW	01c5H
	DD	0429b4b4br			; 77.6471
	DW	064H
	DW	01c5H
	DD	0429da5a6r			; 78.8235
	DW	063H
	DW	01c5H
	DD	042a00000r			; 80
	DW	062H
	DW	01c5H
	DD	042a2db6er			; 81.4286
	DW	061H
	DW	01c5H
	DD	042a5b6dbr			; 82.8571
	DW	060H
	DW	01c5H
	DD	042a89249r			; 84.2857
	DW	05fH
	DW	01c5H
	DD	042ab6db7r			; 85.7143
	DW	05eH
	DW	01c5H
	DD	042ae4925r			; 87.1429
	DW	05dH
	DW	01c4H
	DD	042b12492r			; 88.5714
	DW	05cH
	DW	01c4H
	DD	042b40000r			; 90
	DW	05bH
	DW	01c4H
	DD	042b6db6er			; 91.4286
	DW	05aH
	DW	01c3H
	DD	042b9b6dbr			; 92.8571
	DW	059H
	DW	01c2H
	DD	042bc9249r			; 94.2857
	DW	058H
	DW	01c2H
	DD	042bf6db7r			; 95.7143
	DW	057H
	DW	01c1H
	DD	042c24925r			; 97.1429
	DW	056H
	DW	01c0H
	DD	042c52492r			; 98.5714
	DW	055H
	DW	01bfH
	DD	042c80000r			; 100
	DW	054H
	DW	01beH
	DD	042d3c3c4r			; 105.882
	DW	053H
	DW	01bdH
	DD	042df8788r			; 111.765
	DW	053H
	DW	01bcH
	DD	042eb4b4br			; 117.647
	DW	052H
	DW	01bbH
	DD	042f70f0fr			; 123.529
	DW	052H
	DW	01baH
	DD	043016969r			; 129.412
	DW	051H
	DW	01b9H
	DD	043074b4br			; 135.294
	DW	051H
	DW	01b8H
	DD	0430d2d2dr			; 141.176
	DW	051H
	DW	01b7H
	DD	043130f0fr			; 147.059
	DW	051H
	DW	01b6H
	DD	04318f0f1r			; 152.941
	DW	050H
	DW	01b5H
	DD	0431ed2d3r			; 158.824
	DW	050H
	DW	01b4H
	DD	04324b4b5r			; 164.706
	DW	050H
	DW	01b3H
	DD	0432a9697r			; 170.588
	DW	050H
	DW	01b2H
	DD	043307878r			; 176.471
	DW	050H
	DW	01b1H
	DD	043365a5ar			; 182.353
	DW	050H
	DW	01b0H
	DD	0433c3c3cr			; 188.235
	DW	050H
	DW	01afH
	DD	043421e1er			; 194.118
	DW	050H
	DW	01aeH
	DD	043480000r			; 200
	DW	051H
	DW	01adH
	DD	0434e4000r			; 206.25
	DW	051H
	DW	01acH
	DD	043548000r			; 212.5
	DW	051H
	DW	01abH
	DD	0435ac000r			; 218.75
	DW	051H
	DW	01aaH
	DD	043610000r			; 225
	DW	052H
	DW	01a9H
	DD	043674000r			; 231.25
	DW	052H
	DW	01a8H
	DD	0436d8000r			; 237.5
	DW	052H
	DW	01a7H
	DD	04373c000r			; 243.75
	DW	053H
	DW	01a6H
	DD	0437a0000r			; 250
	DW	053H
	DW	01a5H
	DD	043802000r			; 256.25
	DW	054H
	DW	01a4H
	DD	043834000r			; 262.5
	DW	055H
	DW	01a3H
	DD	043866000r			; 268.75
	DW	055H
	DW	01a2H
	DD	043898000r			; 275
	DW	056H
	DW	01a1H
	DD	0438ca000r			; 281.25
	DW	057H
	DW	01a0H
	DD	0438fc000r			; 287.5
	DW	058H
	DW	019fH
	DD	04392e000r			; 293.75
	DW	059H
	DW	019eH
	DD	043960000r			; 300
	DW	00H
	DW	00H
	DD	07f7fffffr			; 3.40282e+38
?radar_altimeter_needle_scale_down_20_ahead@@3PAUSCALE_DATA@@A DW 072H ; radar_altimeter_needle_scale_down_20_ahead
	DW	0d1H
	DD	000000000r			; 0
	DW	073H
	DW	0d1H
	DD	03fb6db6er			; 1.42857
	DW	074H
	DW	0d1H
	DD	04036db6er			; 2.85714
	DW	075H
	DW	0d1H
	DD	040892492r			; 4.28571
	DW	076H
	DW	0d1H
	DD	040b6db6er			; 5.71429
	DW	077H
	DW	0d2H
	DD	040e49249r			; 7.14286
	DW	078H
	DW	0d2H
	DD	041092492r			; 8.57143
	DW	079H
	DW	0d2H
	DD	041200000r			; 10
	DW	07aH
	DW	0d3H
	DD	04136db6er			; 11.4286
	DW	07bH
	DW	0d3H
	DD	0414db6dbr			; 12.8571
	DW	07cH
	DW	0d4H
	DD	041649249r			; 14.2857
	DW	07dH
	DW	0d4H
	DD	0417b6db7r			; 15.7143
	DW	07eH
	DW	0d5H
	DD	041892492r			; 17.1429
	DW	07fH
	DW	0d6H
	DD	041949249r			; 18.5714
	DW	080H
	DW	0d7H
	DD	041a00000r			; 20
	DW	081H
	DW	0d8H
	DD	041ab6db7r			; 21.4286
	DW	082H
	DW	0d9H
	DD	041b6db6er			; 22.8571
	DW	083H
	DW	0daH
	DD	041c24925r			; 24.2857
	DW	083H
	DW	0dbH
	DD	041cdb6dbr			; 25.7143
	DW	084H
	DW	0dcH
	DD	041d92492r			; 27.1429
	DW	084H
	DW	0ddH
	DD	041e49249r			; 28.5714
	DW	085H
	DW	0deH
	DD	041f00000r			; 30
	DW	085H
	DW	0dfH
	DD	041fb6db7r			; 31.4286
	DW	085H
	DW	0e0H
	DD	042036db7r			; 32.8571
	DW	086H
	DW	0e1H
	DD	042092492r			; 34.2857
	DW	086H
	DW	0e2H
	DD	0420edb6er			; 35.7143
	DW	086H
	DW	0e3H
	DD	042149249r			; 37.1429
	DW	086H
	DW	0e4H
	DD	0421a4925r			; 38.5714
	DW	086H
	DW	0e5H
	DD	042200000r			; 40
	DW	086H
	DW	0e6H
	DD	042255555r			; 41.3333
	DW	086H
	DW	0e7H
	DD	0422aaaabr			; 42.6667
	DW	086H
	DW	0e8H
	DD	042300000r			; 44
	DW	086H
	DW	0e9H
	DD	042355555r			; 45.3333
	DW	085H
	DW	0eaH
	DD	0423aaaabr			; 46.6667
	DW	085H
	DW	0ebH
	DD	042400000r			; 48
	DW	085H
	DW	0ecH
	DD	042455555r			; 49.3333
	DW	084H
	DW	0edH
	DD	0424aaaabr			; 50.6667
	DW	084H
	DW	0eeH
	DD	042500000r			; 52
	DW	084H
	DW	0efH
	DD	042555555r			; 53.3333
	DW	083H
	DW	0f0H
	DD	0425aaaabr			; 54.6667
	DW	082H
	DW	0f1H
	DD	042600000r			; 56
	DW	082H
	DW	0f2H
	DD	042655555r			; 57.3333
	DW	081H
	DW	0f3H
	DD	0426aaaabr			; 58.6667
	DW	080H
	DW	0f4H
	DD	042700000r			; 60
	DW	07fH
	DW	0f5H
	DD	04275b6dbr			; 61.4286
	DW	07eH
	DW	0f5H
	DD	0427b6db7r			; 62.8571
	DW	07dH
	DW	0f6H
	DD	042809249r			; 64.2857
	DW	07cH
	DW	0f7H
	DD	042836db7r			; 65.7143
	DW	07bH
	DW	0f7H
	DD	042864925r			; 67.1429
	DW	07aH
	DW	0f8H
	DD	042892492r			; 68.5714
	DW	079H
	DW	0f8H
	DD	0428c0000r			; 70
	DW	078H
	DW	0f9H
	DD	0428edb6er			; 71.4286
	DW	077H
	DW	0f9H
	DD	04291b6dbr			; 72.8571
	DW	076H
	DW	0f9H
	DD	042949249r			; 74.2857
	DW	075H
	DW	0f9H
	DD	042976db7r			; 75.7143
	DW	074H
	DW	0f9H
	DD	0429a4925r			; 77.1429
	DW	073H
	DW	0f9H
	DD	0429d2492r			; 78.5714
	DW	072H
	DW	0f9H
	DD	042a00000r			; 80
	DW	071H
	DW	0f9H
	DD	042a2aaabr			; 81.3333
	DW	070H
	DW	0f9H
	DD	042a55555r			; 82.6667
	DW	06fH
	DW	0f9H
	DD	042a80000r			; 84
	DW	06eH
	DW	0f9H
	DD	042aaaaabr			; 85.3333
	DW	06dH
	DW	0f9H
	DD	042ad5555r			; 86.6667
	DW	06cH
	DW	0f9H
	DD	042b00000r			; 88
	DW	06bH
	DW	0f8H
	DD	042b2aaabr			; 89.3333
	DW	06aH
	DW	0f8H
	DD	042b55555r			; 90.6667
	DW	069H
	DW	0f8H
	DD	042b80000r			; 92
	DW	068H
	DW	0f7H
	DD	042baaaabr			; 93.3333
	DW	067H
	DW	0f7H
	DD	042bd5555r			; 94.6667
	DW	066H
	DW	0f6H
	DD	042c00000r			; 96
	DW	065H
	DW	0f5H
	DD	042c2aaabr			; 97.3333
	DW	064H
	DW	0f4H
	DD	042c55555r			; 98.6667
	DW	063H
	DW	0f3H
	DD	042c80000r			; 100
	DW	062H
	DW	0f2H
	DD	042d64925r			; 107.143
	DW	061H
	DW	0f1H
	DD	042e49249r			; 114.286
	DW	060H
	DW	0f0H
	DD	042f2db6er			; 121.429
	DW	060H
	DW	0efH
	DD	043009249r			; 128.571
	DW	05fH
	DW	0eeH
	DD	04307b6dbr			; 135.714
	DW	05fH
	DW	0edH
	DD	0430edb6er			; 142.857
	DW	05fH
	DW	0ecH
	DD	043160000r			; 150
	DW	05eH
	DW	0ebH
	DD	0431d2492r			; 157.143
	DW	05eH
	DW	0eaH
	DD	043244925r			; 164.286
	DW	05eH
	DW	0e9H
	DD	0432b6db7r			; 171.429
	DW	05eH
	DW	0e8H
	DD	043329249r			; 178.571
	DW	05dH
	DW	0e7H
	DD	04339b6dbr			; 185.714
	DW	05dH
	DW	0e6H
	DD	04340db6er			; 192.857
	DW	05dH
	DW	0e5H
	DD	043480000r			; 200
	DW	05dH
	DW	0e4H
	DD	0434f2492r			; 207.143
	DW	05dH
	DW	0e3H
	DD	043564925r			; 214.286
	DW	05eH
	DW	0e2H
	DD	0435d6db7r			; 221.429
	DW	05eH
	DW	0e1H
	DD	043649249r			; 228.571
	DW	05eH
	DW	0e0H
	DD	0436bb6dbr			; 235.714
	DW	05eH
	DW	0dfH
	DD	04372db6er			; 242.857
	DW	05fH
	DW	0deH
	DD	0437a0000r			; 250
	DW	05fH
	DW	0ddH
	DD	043809249r			; 257.143
	DW	05fH
	DW	0dcH
	DD	043842492r			; 264.286
	DW	060H
	DW	0dbH
	DD	04387b6dbr			; 271.429
	DW	061H
	DW	0daH
	DD	0438b4925r			; 278.571
	DW	061H
	DW	0d9H
	DD	0438edb6er			; 285.714
	DW	062H
	DW	0d8H
	DD	043926db7r			; 292.857
	DW	063H
	DW	0d7H
	DD	043960000r			; 300
	DW	00H
	DW	00H
	DD	07f7fffffr			; 3.40282e+38
?radar_altimeter_needle_scale_level_left_30@@3PAUSCALE_DATA@@A DW 0196H ; radar_altimeter_needle_scale_level_left_30
	DW	018eH
	DD	000000000r			; 0
	DW	0197H
	DW	018eH
	DD	03fc4ec4fr			; 1.53846
	DW	0198H
	DW	018fH
	DD	04044ec4fr			; 3.07692
	DW	0199H
	DW	018fH
	DD	04093b13br			; 4.61538
	DW	019aH
	DW	018fH
	DD	040c4ec4fr			; 6.15385
	DW	019bH
	DW	0190H
	DD	040f62762r			; 7.69231
	DW	019cH
	DW	0190H
	DD	04113b13br			; 9.23077
	DW	019dH
	DW	0191H
	DD	0412c4ec5r			; 10.7692
	DW	019eH
	DW	0191H
	DD	04144ec4fr			; 12.3077
	DW	019fH
	DW	0192H
	DD	0415d89d9r			; 13.8462
	DW	01a0H
	DW	0193H
	DD	041762762r			; 15.3846
	DW	01a1H
	DW	0194H
	DD	041876276r			; 16.9231
	DW	01a2H
	DW	0195H
	DD	04193b13br			; 18.4615
	DW	01a3H
	DW	0196H
	DD	041a00000r			; 20
	DW	01a3H
	DW	0197H
	DD	041aa0000r			; 21.25
	DW	01a4H
	DW	0198H
	DD	041b40000r			; 22.5
	DW	01a5H
	DW	0199H
	DD	041be0000r			; 23.75
	DW	01a5H
	DW	019aH
	DD	041c80000r			; 25
	DW	01a5H
	DW	019bH
	DD	041d20000r			; 26.25
	DW	01a6H
	DW	019cH
	DD	041dc0000r			; 27.5
	DW	01a6H
	DW	019dH
	DD	041e60000r			; 28.75
	DW	01a6H
	DW	019eH
	DD	041f00000r			; 30
	DW	01a7H
	DW	019fH
	DD	041fa0000r			; 31.25
	DW	01a7H
	DW	01a0H
	DD	042020000r			; 32.5
	DW	01a7H
	DW	01a1H
	DD	042070000r			; 33.75
	DW	01a7H
	DW	01a2H
	DD	0420c0000r			; 35
	DW	01a7H
	DW	01a3H
	DD	042110000r			; 36.25
	DW	01a7H
	DW	01a4H
	DD	042160000r			; 37.5
	DW	01a7H
	DW	01a5H
	DD	0421b0000r			; 38.75
	DW	01a7H
	DW	01a6H
	DD	042200000r			; 40
	DW	01a7H
	DW	01a7H
	DD	04225b6dbr			; 41.4286
	DW	01a7H
	DW	01a8H
	DD	0422b6db7r			; 42.8571
	DW	01a6H
	DW	01a9H
	DD	042312492r			; 44.2857
	DW	01a6H
	DW	01aaH
	DD	04236db6er			; 45.7143
	DW	01a6H
	DW	01abH
	DD	0423c9249r			; 47.1429
	DW	01a6H
	DW	01acH
	DD	042424925r			; 48.5714
	DW	01a5H
	DW	01adH
	DD	042480000r			; 50
	DW	01a5H
	DW	01aeH
	DD	0424db6dbr			; 51.4286
	DW	01a4H
	DW	01afH
	DD	042536db7r			; 52.8571
	DW	01a4H
	DW	01b0H
	DD	042592492r			; 54.2857
	DW	01a3H
	DW	01b1H
	DD	0425edb6er			; 55.7143
	DW	01a2H
	DW	01b2H
	DD	042649249r			; 57.1429
	DW	01a1H
	DW	01b3H
	DD	0426a4925r			; 58.5714
	DW	01a0H
	DW	01b4H
	DD	042700000r			; 60
	DW	019fH
	DW	01b5H
	DD	042755555r			; 61.3333
	DW	019eH
	DW	01b6H
	DD	0427aaaabr			; 62.6667
	DW	019dH
	DW	01b6H
	DD	042800000r			; 64
	DW	019cH
	DW	01b7H
	DD	04282aaabr			; 65.3333
	DW	019bH
	DW	01b7H
	DD	042855555r			; 66.6667
	DW	019aH
	DW	01b8H
	DD	042880000r			; 68
	DW	0199H
	DW	01b8H
	DD	0428aaaabr			; 69.3333
	DW	0198H
	DW	01b8H
	DD	0428d5555r			; 70.6667
	DW	0197H
	DW	01b8H
	DD	042900000r			; 72
	DW	0196H
	DW	01b8H
	DD	04292aaabr			; 73.3333
	DW	0195H
	DW	01b8H
	DD	042955555r			; 74.6667
	DW	0194H
	DW	01b8H
	DD	042980000r			; 76
	DW	0193H
	DW	01b8H
	DD	0429aaaabr			; 77.3333
	DW	0192H
	DW	01b8H
	DD	0429d5555r			; 78.6667
	DW	0191H
	DW	01b8H
	DD	042a00000r			; 80
	DW	0190H
	DW	01b8H
	DD	042a313b1r			; 81.5385
	DW	018fH
	DW	01b8H
	DD	042a62762r			; 83.0769
	DW	018eH
	DW	01b7H
	DD	042a93b14r			; 84.6154
	DW	018dH
	DW	01b7H
	DD	042ac4ec5r			; 86.1538
	DW	018cH
	DW	01b7H
	DD	042af6276r			; 87.6923
	DW	018bH
	DW	01b6H
	DD	042b27627r			; 89.2308
	DW	018aH
	DW	01b5H
	DD	042b589d9r			; 90.7692
	DW	0189H
	DW	01b5H
	DD	042b89d8ar			; 92.3077
	DW	0188H
	DW	01b4H
	DD	042bbb13br			; 93.8462
	DW	0187H
	DW	01b3H
	DD	042bec4ecr			; 95.3846
	DW	0186H
	DW	01b2H
	DD	042c1d89er			; 96.9231
	DW	0185H
	DW	01b1H
	DD	042c4ec4fr			; 98.4615
	DW	0184H
	DW	01b0H
	DD	042c80000r			; 100
	DW	0184H
	DW	01afH
	DD	042d48000r			; 106.25
	DW	0183H
	DW	01aeH
	DD	042e10000r			; 112.5
	DW	0183H
	DW	01adH
	DD	042ed8000r			; 118.75
	DW	0182H
	DW	01acH
	DD	042fa0000r			; 125
	DW	0182H
	DW	01abH
	DD	043034000r			; 131.25
	DW	0182H
	DW	01aaH
	DD	043098000r			; 137.5
	DW	0181H
	DW	01a9H
	DD	0430fc000r			; 143.75
	DW	0181H
	DW	01a8H
	DD	043160000r			; 150
	DW	0181H
	DW	01a7H
	DD	0431c4000r			; 156.25
	DW	0181H
	DW	01a6H
	DD	043228000r			; 162.5
	DW	0181H
	DW	01a5H
	DD	04328c000r			; 168.75
	DW	0181H
	DW	01a4H
	DD	0432f0000r			; 175
	DW	0181H
	DW	01a3H
	DD	043354000r			; 181.25
	DW	0181H
	DW	01a2H
	DD	0433b8000r			; 187.5
	DW	0181H
	DW	01a1H
	DD	04341c000r			; 193.75
	DW	0181H
	DW	01a0H
	DD	043480000r			; 200
	DW	0181H
	DW	019fH
	DD	0434f2492r			; 207.143
	DW	0181H
	DW	019eH
	DD	043564925r			; 214.286
	DW	0181H
	DW	019dH
	DD	0435d6db7r			; 221.429
	DW	0182H
	DW	019cH
	DD	043649249r			; 228.571
	DW	0182H
	DW	019bH
	DD	0436bb6dbr			; 235.714
	DW	0182H
	DW	019aH
	DD	04372db6er			; 242.857
	DW	0183H
	DW	0199H
	DD	0437a0000r			; 250
	DW	0183H
	DW	0198H
	DD	043809249r			; 257.143
	DW	0184H
	DW	0197H
	DD	043842492r			; 264.286
	DW	0185H
	DW	0196H
	DD	04387b6dbr			; 271.429
	DW	0185H
	DW	0195H
	DD	0438b4925r			; 278.571
	DW	0186H
	DW	0194H
	DD	0438edb6er			; 285.714
	DW	0187H
	DW	0193H
	DD	043926db7r			; 292.857
	DW	0188H
	DW	0192H
	DD	043960000r			; 300
	DW	00H
	DW	00H
	DD	07f7fffffr			; 3.40282e+38
?radar_altimeter_needle_scale_down_20_left_30@@3PAUSCALE_DATA@@A DW 0193H ; radar_altimeter_needle_scale_down_20_left_30
	DW	0c8H
	DD	000000000r			; 0
	DW	0194H
	DW	0c8H
	DD	03fc4ec4fr			; 1.53846
	DW	0195H
	DW	0c9H
	DD	04044ec4fr			; 3.07692
	DW	0196H
	DW	0c9H
	DD	04093b13br			; 4.61538
	DW	0197H
	DW	0c9H
	DD	040c4ec4fr			; 6.15385
	DW	0198H
	DW	0caH
	DD	040f62762r			; 7.69231
	DW	0199H
	DW	0caH
	DD	04113b13br			; 9.23077
	DW	019aH
	DW	0cbH
	DD	0412c4ec5r			; 10.7692
	DW	019bH
	DW	0cbH
	DD	04144ec4fr			; 12.3077
	DW	019cH
	DW	0ccH
	DD	0415d89d9r			; 13.8462
	DW	019dH
	DW	0cdH
	DD	041762762r			; 15.3846
	DW	019eH
	DW	0ceH
	DD	041876276r			; 16.9231
	DW	019eH
	DW	0cfH
	DD	04193b13br			; 18.4615
	DW	019fH
	DW	0d0H
	DD	041a00000r			; 20
	DW	01a0H
	DW	0d1H
	DD	041ab6db7r			; 21.4286
	DW	01a0H
	DW	0d2H
	DD	041b6db6er			; 22.8571
	DW	01a1H
	DW	0d3H
	DD	041c24925r			; 24.2857
	DW	01a1H
	DW	0d4H
	DD	041cdb6dbr			; 25.7143
	DW	01a1H
	DW	0d5H
	DD	041d92492r			; 27.1429
	DW	01a2H
	DW	0d6H
	DD	041e49249r			; 28.5714
	DW	01a2H
	DW	0d7H
	DD	041f00000r			; 30
	DW	01a2H
	DW	0d8H
	DD	041fb6db7r			; 31.4286
	DW	01a2H
	DW	0d9H
	DD	042036db7r			; 32.8571
	DW	01a2H
	DW	0daH
	DD	042092492r			; 34.2857
	DW	01a2H
	DW	0dbH
	DD	0420edb6er			; 35.7143
	DW	01a2H
	DW	0dcH
	DD	042149249r			; 37.1429
	DW	01a2H
	DW	0ddH
	DD	0421a4925r			; 38.5714
	DW	01a2H
	DW	0deH
	DD	042200000r			; 40
	DW	01a2H
	DW	0dfH
	DD	042262762r			; 41.5385
	DW	01a1H
	DW	0e0H
	DD	0422c4ec5r			; 43.0769
	DW	01a1H
	DW	0e1H
	DD	042327627r			; 44.6154
	DW	01a1H
	DW	0e2H
	DD	042389d8ar			; 46.1538
	DW	01a0H
	DW	0e3H
	DD	0423ec4ecr			; 47.6923
	DW	01a0H
	DW	0e4H
	DD	04244ec4fr			; 49.2308
	DW	019fH
	DW	0e5H
	DD	0424b13b1r			; 50.7692
	DW	019fH
	DW	0e6H
	DD	042513b14r			; 52.3077
	DW	019eH
	DW	0e7H
	DD	042576276r			; 53.8462
	DW	019dH
	DW	0e8H
	DD	0425d89d9r			; 55.3846
	DW	019cH
	DW	0e9H
	DD	04263b13br			; 56.9231
	DW	019bH
	DW	0eaH
	DD	04269d89er			; 58.4615
	DW	019aH
	DW	0ebH
	DD	042700000r			; 60
	DW	0199H
	DW	0ecH
	DD	04275b6dbr			; 61.4286
	DW	0198H
	DW	0ecH
	DD	0427b6db7r			; 62.8571
	DW	0197H
	DW	0edH
	DD	042809249r			; 64.2857
	DW	0196H
	DW	0edH
	DD	042836db7r			; 65.7143
	DW	0195H
	DW	0edH
	DD	042864925r			; 67.1429
	DW	0194H
	DW	0eeH
	DD	042892492r			; 68.5714
	DW	0193H
	DW	0eeH
	DD	0428c0000r			; 70
	DW	0192H
	DW	0eeH
	DD	0428edb6er			; 71.4286
	DW	0191H
	DW	0eeH
	DD	04291b6dbr			; 72.8571
	DW	0190H
	DW	0eeH
	DD	042949249r			; 74.2857
	DW	018fH
	DW	0eeH
	DD	042976db7r			; 75.7143
	DW	018eH
	DW	0eeH
	DD	0429a4925r			; 77.1429
	DW	018dH
	DW	0eeH
	DD	0429d2492r			; 78.5714
	DW	018cH
	DW	0eeH
	DD	042a00000r			; 80
	DW	018bH
	DW	0eeH
	DD	042a35555r			; 81.6667
	DW	018aH
	DW	0eeH
	DD	042a6aaabr			; 83.3333
	DW	0189H
	DW	0edH
	DD	042aa0000r			; 85
	DW	0188H
	DW	0edH
	DD	042ad5555r			; 86.6667
	DW	0187H
	DW	0ecH
	DD	042b0aaabr			; 88.3333
	DW	0186H
	DW	0ecH
	DD	042b40000r			; 90
	DW	0185H
	DW	0ebH
	DD	042b75555r			; 91.6667
	DW	0184H
	DW	0eaH
	DD	042baaaabr			; 93.3333
	DW	0183H
	DW	0e9H
	DD	042be0000r			; 95
	DW	0182H
	DW	0e8H
	DD	042c15555r			; 96.6667
	DW	0181H
	DW	0e7H
	DD	042c4aaabr			; 98.3333
	DW	0180H
	DW	0e6H
	DD	042c80000r			; 100
	DW	0180H
	DW	0e5H
	DD	042d64925r			; 107.143
	DW	017fH
	DW	0e4H
	DD	042e49249r			; 114.286
	DW	017fH
	DW	0e3H
	DD	042f2db6er			; 121.429
	DW	017fH
	DW	0e2H
	DD	043009249r			; 128.571
	DW	017eH
	DW	0e1H
	DD	04307b6dbr			; 135.714
	DW	017eH
	DW	0e0H
	DD	0430edb6er			; 142.857
	DW	017eH
	DW	0dfH
	DD	043160000r			; 150
	DW	017eH
	DW	0deH
	DD	0431d2492r			; 157.143
	DW	017eH
	DW	0ddH
	DD	043244925r			; 164.286
	DW	017eH
	DW	0dcH
	DD	0432b6db7r			; 171.429
	DW	017eH
	DW	0dbH
	DD	043329249r			; 178.571
	DW	017eH
	DW	0daH
	DD	04339b6dbr			; 185.714
	DW	017eH
	DW	0d9H
	DD	04340db6er			; 192.857
	DW	017eH
	DW	0d8H
	DD	043480000r			; 200
	DW	017eH
	DW	0d7H
	DD	043505555r			; 208.333
	DW	017eH
	DW	0d6H
	DD	04358aaabr			; 216.667
	DW	017fH
	DW	0d5H
	DD	043610000r			; 225
	DW	017fH
	DW	0d4H
	DD	043695555r			; 233.333
	DW	0180H
	DW	0d3H
	DD	04371aaabr			; 241.667
	DW	0180H
	DW	0d2H
	DD	0437a0000r			; 250
	DW	0181H
	DW	0d1H
	DD	043812aabr			; 258.333
	DW	0181H
	DW	0d0H
	DD	043855555r			; 266.667
	DW	0182H
	DW	0cfH
	DD	043898000r			; 275
	DW	0183H
	DW	0ceH
	DD	0438daaabr			; 283.333
	DW	0184H
	DW	0cdH
	DD	04391d555r			; 291.667
	DW	0185H
	DW	0ccH
	DD	043960000r			; 300
	DW	00H
	DW	00H
	DD	07f7fffffr			; 3.40282e+38
?main_rotor_rpm_indicator_needle_scale_down_20_ahead@@3PAUSCALE_DATA@@A DW 06bH ; main_rotor_rpm_indicator_needle_scale_down_20_ahead
	DW	013eH
	DD	000000000r			; 0
	DW	06cH
	DW	013fH
	DD	03f68ba2fr			; 0.909091
	DW	06cH
	DW	0140H
	DD	03fe8ba2fr			; 1.81818
	DW	06dH
	DW	0141H
	DD	0402e8ba3r			; 2.72727
	DW	06dH
	DW	0142H
	DD	04068ba2fr			; 3.63636
	DW	06dH
	DW	0143H
	DD	04091745dr			; 4.54545
	DW	06eH
	DW	0144H
	DD	040ae8ba3r			; 5.45455
	DW	06eH
	DW	0145H
	DD	040cba2e9r			; 6.36364
	DW	06eH
	DW	0146H
	DD	040e8ba2fr			; 7.27273
	DW	06eH
	DW	0147H
	DD	04102e8bar			; 8.18182
	DW	06eH
	DW	0148H
	DD	04111745dr			; 9.09091
	DW	06eH
	DW	0149H
	DD	041200000r			; 10
	DW	06eH
	DW	014aH
	DD	0412e8ba3r			; 10.9091
	DW	06eH
	DW	014bH
	DD	0413d1746r			; 11.8182
	DW	06eH
	DW	014cH
	DD	0414ba2e9r			; 12.7273
	DW	06eH
	DW	014dH
	DD	0415a2e8cr			; 13.6364
	DW	06eH
	DW	014eH
	DD	04168ba2fr			; 14.5455
	DW	06dH
	DW	014fH
	DD	0417745d1r			; 15.4545
	DW	06dH
	DW	0150H
	DD	04182e8bar			; 16.3636
	DW	06dH
	DW	0151H
	DD	0418a2e8cr			; 17.2727
	DW	06cH
	DW	0152H
	DD	04191745dr			; 18.1818
	DW	06cH
	DW	0153H
	DD	04198ba2fr			; 19.0909
	DW	06bH
	DW	0154H
	DD	041a00000r			; 20
	DW	06bH
	DW	0155H
	DD	041a8e38er			; 21.1111
	DW	06aH
	DW	0156H
	DD	041b1c71cr			; 22.2222
	DW	069H
	DW	0157H
	DD	041baaaabr			; 23.3333
	DW	068H
	DW	0158H
	DD	041c38e39r			; 24.4444
	DW	067H
	DW	0159H
	DD	041cc71c7r			; 25.5556
	DW	066H
	DW	015aH
	DD	041d55555r			; 26.6667
	DW	065H
	DW	015bH
	DD	041de38e4r			; 27.7778
	DW	064H
	DW	015cH
	DD	041e71c72r			; 28.8889
	DW	063H
	DW	015cH
	DD	041f00000r			; 30
	DW	062H
	DW	015dH
	DD	041f745d1r			; 30.9091
	DW	061H
	DW	015dH
	DD	041fe8ba3r			; 31.8182
	DW	060H
	DW	015eH
	DD	04202e8bar			; 32.7273
	DW	05fH
	DW	015eH
	DD	042068ba3r			; 33.6364
	DW	05eH
	DW	015eH
	DD	0420a2e8cr			; 34.5455
	DW	05dH
	DW	015fH
	DD	0420dd174r			; 35.4545
	DW	05cH
	DW	015fH
	DD	04211745dr			; 36.3636
	DW	05bH
	DW	015fH
	DD	042151746r			; 37.2727
	DW	05aH
	DW	015fH
	DD	04218ba2fr			; 38.1818
	DW	059H
	DW	015fH
	DD	0421c5d17r			; 39.0909
	DW	058H
	DW	015fH
	DD	042200000r			; 40
	DW	057H
	DW	015fH
	DD	04223a2e9r			; 40.9091
	DW	056H
	DW	015fH
	DD	0422745d1r			; 41.8182
	DW	055H
	DW	015fH
	DD	0422ae8bar			; 42.7273
	DW	054H
	DW	015fH
	DD	0422e8ba3r			; 43.6364
	DW	053H
	DW	015fH
	DD	042322e8cr			; 44.5455
	DW	052H
	DW	015eH
	DD	04235d174r			; 45.4545
	DW	051H
	DW	015eH
	DD	04239745dr			; 46.3636
	DW	050H
	DW	015eH
	DD	0423d1746r			; 47.2727
	DW	04fH
	DW	015dH
	DD	04240ba2fr			; 48.1818
	DW	04eH
	DW	015dH
	DD	042445d17r			; 49.0909
	DW	04dH
	DW	015cH
	DD	042480000r			; 50
	DW	04cH
	DW	015cH
	DD	0424c0000r			; 51
	DW	04bH
	DW	015bH
	DD	042500000r			; 52
	DW	04aH
	DW	015aH
	DD	042540000r			; 53
	DW	049H
	DW	015aH
	DD	042580000r			; 54
	DW	048H
	DW	0159H
	DD	0425c0000r			; 55
	DW	047H
	DW	0158H
	DD	042600000r			; 56
	DW	047H
	DW	0157H
	DD	042640000r			; 57
	DW	046H
	DW	0156H
	DD	042680000r			; 58
	DW	045H
	DW	0155H
	DD	0426c0000r			; 59
	DW	045H
	DW	0154H
	DD	042700000r			; 60
	DW	044H
	DW	0153H
	DD	04273a2e9r			; 60.9091
	DW	044H
	DW	0152H
	DD	0427745d1r			; 61.8182
	DW	043H
	DW	0151H
	DD	0427ae8bar			; 62.7273
	DW	043H
	DW	0150H
	DD	0427e8ba3r			; 63.6364
	DW	043H
	DW	014fH
	DD	042811746r			; 64.5455
	DW	042H
	DW	014eH
	DD	04282e8bar			; 65.4545
	DW	042H
	DW	014dH
	DD	04284ba2fr			; 66.3636
	DW	042H
	DW	014cH
	DD	042868ba3r			; 67.2727
	DW	042H
	DW	014bH
	DD	042885d17r			; 68.1818
	DW	042H
	DW	014aH
	DD	0428a2e8cr			; 69.0909
	DW	042H
	DW	0149H
	DD	0428c0000r			; 70
	DW	042H
	DW	0148H
	DD	0428dd174r			; 70.9091
	DW	042H
	DW	0147H
	DD	0428fa2e9r			; 71.8182
	DW	042H
	DW	0146H
	DD	04291745dr			; 72.7273
	DW	042H
	DW	0145H
	DD	0429345d1r			; 73.6364
	DW	042H
	DW	0144H
	DD	042951746r			; 74.5455
	DW	042H
	DW	0143H
	DD	04296e8bar			; 75.4545
	DW	043H
	DW	0142H
	DD	04298ba2fr			; 76.3636
	DW	043H
	DW	0141H
	DD	0429a8ba3r			; 77.2727
	DW	044H
	DW	0140H
	DD	0429c5d17r			; 78.1818
	DW	044H
	DW	013fH
	DD	0429e2e8cr			; 79.0909
	DW	044H
	DW	013eH
	DD	042a00000r			; 80
	DW	045H
	DW	013dH
	DD	042a1e79er			; 80.9524
	DW	046H
	DW	013cH
	DD	042a3cf3dr			; 81.9048
	DW	046H
	DW	013bH
	DD	042a5b6dbr			; 82.8571
	DW	047H
	DW	013aH
	DD	042a79e7ar			; 83.8095
	DW	048H
	DW	0139H
	DD	042a98618r			; 84.7619
	DW	049H
	DW	0138H
	DD	042ab6db7r			; 85.7143
	DW	04aH
	DW	0137H
	DD	042ad5555r			; 86.6667
	DW	04bH
	DW	0136H
	DD	042af3cf4r			; 87.619
	DW	04cH
	DW	0136H
	DD	042b12492r			; 88.5714
	DW	04dH
	DW	0135H
	DD	042b30c31r			; 89.5238
	DW	04eH
	DW	0135H
	DD	042b4f3cfr			; 90.4762
	DW	04fH
	DW	0134H
	DD	042b6db6er			; 91.4286
	DW	050H
	DW	0134H
	DD	042b8c30cr			; 92.381
	DW	051H
	DW	0134H
	DD	042baaaabr			; 93.3333
	DW	052H
	DW	0133H
	DD	042bc9249r			; 94.2857
	DW	053H
	DW	0133H
	DD	042be79e8r			; 95.2381
	DW	054H
	DW	0133H
	DD	042c06186r			; 96.1905
	DW	055H
	DW	0133H
	DD	042c24925r			; 97.1429
	DW	056H
	DW	0133H
	DD	042c430c3r			; 98.0952
	DW	057H
	DW	0133H
	DD	042c61862r			; 99.0476
	DW	058H
	DW	0133H
	DD	042c7fae1r			; 99.99
	DW	00H
	DW	00H
	DD	07f7fffffr			; 3.40282e+38
?main_rotor_rpm_indicator_needle_scale_down_20_left_30@@3PAUSCALE_DATA@@A DW 017bH ; main_rotor_rpm_indicator_needle_scale_down_20_left_30
	DW	012cH
	DD	000000000r			; 0
	DW	017bH
	DW	012dH
	DD	03f68ba2fr			; 0.909091
	DW	017cH
	DW	012eH
	DD	03fe8ba2fr			; 1.81818
	DW	017cH
	DW	012fH
	DD	0402e8ba3r			; 2.72727
	DW	017cH
	DW	0130H
	DD	04068ba2fr			; 3.63636
	DW	017cH
	DW	0131H
	DD	04091745dr			; 4.54545
	DW	017cH
	DW	0132H
	DD	040ae8ba3r			; 5.45455
	DW	017cH
	DW	0133H
	DD	040cba2e9r			; 6.36364
	DW	017cH
	DW	0134H
	DD	040e8ba2fr			; 7.27273
	DW	017cH
	DW	0135H
	DD	04102e8bar			; 8.18182
	DW	017cH
	DW	0136H
	DD	04111745dr			; 9.09091
	DW	017cH
	DW	0137H
	DD	041200000r			; 10
	DW	017cH
	DW	0138H
	DD	041300000r			; 11
	DW	017bH
	DW	0139H
	DD	041400000r			; 12
	DW	017bH
	DW	013aH
	DD	041500000r			; 13
	DW	017bH
	DW	013bH
	DD	041600000r			; 14
	DW	017aH
	DW	013cH
	DD	041700000r			; 15
	DW	017aH
	DW	013dH
	DD	041800000r			; 16
	DW	0179H
	DW	013eH
	DD	041880000r			; 17
	DW	0179H
	DW	013fH
	DD	041900000r			; 18
	DW	0178H
	DW	0140H
	DD	041980000r			; 19
	DW	0177H
	DW	0141H
	DD	041a00000r			; 20
	DW	0176H
	DW	0142H
	DD	041aa0000r			; 21.25
	DW	0175H
	DW	0143H
	DD	041b40000r			; 22.5
	DW	0174H
	DW	0144H
	DD	041be0000r			; 23.75
	DW	0173H
	DW	0144H
	DD	041c80000r			; 25
	DW	0172H
	DW	0145H
	DD	041d20000r			; 26.25
	DW	0171H
	DW	0145H
	DD	041dc0000r			; 27.5
	DW	0170H
	DW	0146H
	DD	041e60000r			; 28.75
	DW	016fH
	DW	0146H
	DD	041f00000r			; 30
	DW	016eH
	DW	0146H
	DD	041f8e38er			; 31.1111
	DW	016dH
	DW	0147H
	DD	04200e38er			; 32.2222
	DW	016cH
	DW	0147H
	DD	042055555r			; 33.3333
	DW	016bH
	DW	0147H
	DD	04209c71cr			; 34.4444
	DW	016aH
	DW	0147H
	DD	0420e38e4r			; 35.5556
	DW	0169H
	DW	0147H
	DD	04212aaabr			; 36.6667
	DW	0168H
	DW	0147H
	DD	042171c72r			; 37.7778
	DW	0167H
	DW	0147H
	DD	0421b8e39r			; 38.8889
	DW	0166H
	DW	0146H
	DD	042200000r			; 40
	DW	0165H
	DW	0146H
	DD	0422471c7r			; 41.1111
	DW	0164H
	DW	0146H
	DD	04228e38er			; 42.2222
	DW	0163H
	DW	0145H
	DD	0422d5555r			; 43.3333
	DW	0162H
	DW	0145H
	DD	04231c71cr			; 44.4444
	DW	0161H
	DW	0144H
	DD	0423638e4r			; 45.5556
	DW	0160H
	DW	0144H
	DD	0423aaaabr			; 46.6667
	DW	015fH
	DW	0143H
	DD	0423f1c72r			; 47.7778
	DW	015eH
	DW	0142H
	DD	042438e39r			; 48.8889
	DW	015dH
	DW	0141H
	DD	042480000r			; 50
	DW	015cH
	DW	0140H
	DD	0424c71c7r			; 51.1111
	DW	015bH
	DW	013fH
	DD	04250e38er			; 52.2222
	DW	015aH
	DW	013eH
	DD	042555555r			; 53.3333
	DW	015aH
	DW	013dH
	DD	04259c71cr			; 54.4444
	DW	0159H
	DW	013cH
	DD	0425e38e4r			; 55.5556
	DW	0159H
	DW	013bH
	DD	04262aaabr			; 56.6667
	DW	0158H
	DW	013aH
	DD	042671c72r			; 57.7778
	DW	0158H
	DW	0139H
	DD	0426b8e39r			; 58.8889
	DW	0158H
	DW	0138H
	DD	042700000r			; 60
	DW	0157H
	DW	0137H
	DD	042740000r			; 61
	DW	0157H
	DW	0136H
	DD	042780000r			; 62
	DW	0157H
	DW	0135H
	DD	0427c0000r			; 63
	DW	0157H
	DW	0134H
	DD	042800000r			; 64
	DW	0157H
	DW	0133H
	DD	042820000r			; 65
	DW	0157H
	DW	0132H
	DD	042840000r			; 66
	DW	0157H
	DW	0131H
	DD	042860000r			; 67
	DW	0157H
	DW	0130H
	DD	042880000r			; 68
	DW	0157H
	DW	012fH
	DD	0428a0000r			; 69
	DW	0157H
	DW	012eH
	DD	0428c0000r			; 70
	DW	0157H
	DW	012dH
	DD	0428e0000r			; 71
	DW	0157H
	DW	012cH
	DD	042900000r			; 72
	DW	0158H
	DW	012bH
	DD	042920000r			; 73
	DW	0158H
	DW	012aH
	DD	042940000r			; 74
	DW	0158H
	DW	0129H
	DD	042960000r			; 75
	DW	0159H
	DW	0128H
	DD	042980000r			; 76
	DW	0159H
	DW	0127H
	DD	0429a0000r			; 77
	DW	015aH
	DW	0126H
	DD	0429c0000r			; 78
	DW	015aH
	DW	0125H
	DD	0429e0000r			; 79
	DW	015bH
	DW	0124H
	DD	042a00000r			; 80
	DW	015cH
	DW	0123H
	DD	042a238e4r			; 81.1111
	DW	015dH
	DW	0122H
	DD	042a471c7r			; 82.2222
	DW	015eH
	DW	0121H
	DD	042a6aaabr			; 83.3333
	DW	015fH
	DW	0121H
	DD	042a8e38er			; 84.4444
	DW	0160H
	DW	0120H
	DD	042ab1c72r			; 85.5556
	DW	0161H
	DW	011fH
	DD	042ad5555r			; 86.6667
	DW	0162H
	DW	011fH
	DD	042af8e39r			; 87.7778
	DW	0163H
	DW	011fH
	DD	042b1c71cr			; 88.8889
	DW	0164H
	DW	011eH
	DD	042b40000r			; 90
	DW	0165H
	DW	011eH
	DD	042b638e4r			; 91.1111
	DW	0166H
	DW	011eH
	DD	042b871c7r			; 92.2222
	DW	0167H
	DW	011eH
	DD	042baaaabr			; 93.3333
	DW	0168H
	DW	011eH
	DD	042bce38er			; 94.4444
	DW	0169H
	DW	011eH
	DD	042bf1c72r			; 95.5556
	DW	016aH
	DW	011eH
	DD	042c15555r			; 96.6667
	DW	016bH
	DW	011eH
	DD	042c38e39r			; 97.7778
	DW	016cH
	DW	011eH
	DD	042c5c71cr			; 98.8889
	DW	016dH
	DW	011eH
	DD	042c7fae1r			; 99.99
	DW	00H
	DW	00H
	DD	07f7fffffr			; 3.40282e+38
?vertical_speed_indicator_needle_scale_down_20_ahead@@3PAUSCALE_DATA@@A DW 09dH ; vertical_speed_indicator_needle_scale_down_20_ahead
	DW	018bH
	DD	0c3960000r			; -300
	DW	09dH
	DW	018cH
	DD	0c392aaabr			; -293.333
	DW	09dH
	DW	018dH
	DD	0c38f5555r			; -286.667
	DW	09dH
	DW	018eH
	DD	0c38c0000r			; -280
	DW	09cH
	DW	018fH
	DD	0c388aaabr			; -273.333
	DW	09cH
	DW	0190H
	DD	0c3855555r			; -266.667
	DW	09cH
	DW	0191H
	DD	0c3820000r			; -260
	DW	09cH
	DW	0192H
	DD	0c37d5555r			; -253.333
	DW	09bH
	DW	0193H
	DD	0c376aaabr			; -246.667
	DW	09bH
	DW	0194H
	DD	0c3700000r			; -240
	DW	09aH
	DW	0195H
	DD	0c3695555r			; -233.333
	DW	09aH
	DW	0196H
	DD	0c362aaabr			; -226.667
	DW	099H
	DW	0197H
	DD	0c35c0000r			; -220
	DW	098H
	DW	0198H
	DD	0c3555555r			; -213.333
	DW	097H
	DW	0199H
	DD	0c34eaaabr			; -206.667
	DW	096H
	DW	019aH
	DD	0c3480000r			; -200
	DW	095H
	DW	019bH
	DD	0c3415555r			; -193.333
	DW	094H
	DW	019cH
	DD	0c33aaaabr			; -186.667
	DW	093H
	DW	019dH
	DD	0c3340000r			; -180
	DW	092H
	DW	019dH
	DD	0c32d5555r			; -173.333
	DW	091H
	DW	019eH
	DD	0c326aaabr			; -166.667
	DW	090H
	DW	019eH
	DD	0c3200000r			; -160
	DW	08fH
	DW	019fH
	DD	0c3195555r			; -153.333
	DW	08eH
	DW	019fH
	DD	0c312aaabr			; -146.667
	DW	08dH
	DW	019fH
	DD	0c30c0000r			; -140
	DW	08cH
	DW	01a0H
	DD	0c3055555r			; -133.333
	DW	08bH
	DW	01a0H
	DD	0c2fd5555r			; -126.667
	DW	08aH
	DW	01a0H
	DD	0c2f00000r			; -120
	DW	089H
	DW	01a0H
	DD	0c2e2aaabr			; -113.333
	DW	088H
	DW	01a0H
	DD	0c2d55555r			; -106.667
	DW	087H
	DW	01a0H
	DD	0c2c80000r			; -100
	DW	086H
	DW	01a0H
	DD	0c2c1c000r			; -96.875
	DW	085H
	DW	01a0H
	DD	0c2bb8000r			; -93.75
	DW	084H
	DW	01a0H
	DD	0c2b54000r			; -90.625
	DW	083H
	DW	01a0H
	DD	0c2af0000r			; -87.5
	DW	082H
	DW	01a0H
	DD	0c2a8c000r			; -84.375
	DW	081H
	DW	01a0H
	DD	0c2a28000r			; -81.25
	DW	080H
	DW	019fH
	DD	0c29c4000r			; -78.125
	DW	07fH
	DW	019fH
	DD	0c2960000r			; -75
	DW	07eH
	DW	019eH
	DD	0c28fc000r			; -71.875
	DW	07dH
	DW	019eH
	DD	0c2898000r			; -68.75
	DW	07cH
	DW	019eH
	DD	0c2834000r			; -65.625
	DW	07bH
	DW	019dH
	DD	0c27a0000r			; -62.5
	DW	07aH
	DW	019cH
	DD	0c26d8000r			; -59.375
	DW	079H
	DW	019cH
	DD	0c2610000r			; -56.25
	DW	078H
	DW	019bH
	DD	0c2548000r			; -53.125
	DW	077H
	DW	019aH
	DD	0c2480000r			; -50
	DW	076H
	DW	0199H
	DD	0c23b8000r			; -46.875
	DW	075H
	DW	0198H
	DD	0c22f0000r			; -43.75
	DW	075H
	DW	0197H
	DD	0c2228000r			; -40.625
	DW	074H
	DW	0196H
	DD	0c2160000r			; -37.5
	DW	073H
	DW	0195H
	DD	0c2098000r			; -34.375
	DW	073H
	DW	0194H
	DD	0c1fa0000r			; -31.25
	DW	072H
	DW	0193H
	DD	0c1e10000r			; -28.125
	DW	072H
	DW	0192H
	DD	0c1c80000r			; -25
	DW	072H
	DW	0191H
	DD	0c1af0000r			; -21.875
	DW	071H
	DW	0190H
	DD	0c1960000r			; -18.75
	DW	071H
	DW	018fH
	DD	0c17a0000r			; -15.625
	DW	071H
	DW	018eH
	DD	0c1480000r			; -12.5
	DW	071H
	DW	018dH
	DD	0c1160000r			; -9.375
	DW	071H
	DW	018cH
	DD	0c0c80000r			; -6.25
	DW	071H
	DW	018bH
	DD	0c0480000r			; -3.125
	DW	070H
	DW	018aH
	DD	000000000r			; 0
	DW	070H
	DW	0189H
	DD	040480000r			; 3.125
	DW	071H
	DW	0188H
	DD	040c80000r			; 6.25
	DW	071H
	DW	0187H
	DD	041160000r			; 9.375
	DW	071H
	DW	0186H
	DD	041480000r			; 12.5
	DW	071H
	DW	0185H
	DD	0417a0000r			; 15.625
	DW	071H
	DW	0184H
	DD	041960000r			; 18.75
	DW	072H
	DW	0183H
	DD	041af0000r			; 21.875
	DW	072H
	DW	0182H
	DD	041c80000r			; 25
	DW	072H
	DW	0181H
	DD	041e10000r			; 28.125
	DW	073H
	DW	0180H
	DD	041fa0000r			; 31.25
	DW	073H
	DW	017fH
	DD	042098000r			; 34.375
	DW	074H
	DW	017eH
	DD	042160000r			; 37.5
	DW	075H
	DW	017dH
	DD	042228000r			; 40.625
	DW	075H
	DW	017cH
	DD	0422f0000r			; 43.75
	DW	076H
	DW	017bH
	DD	0423b8000r			; 46.875
	DW	077H
	DW	017aH
	DD	042480000r			; 50
	DW	078H
	DW	0179H
	DD	042548000r			; 53.125
	DW	079H
	DW	0178H
	DD	042610000r			; 56.25
	DW	07aH
	DW	0178H
	DD	0426d8000r			; 59.375
	DW	07bH
	DW	0177H
	DD	0427a0000r			; 62.5
	DW	07cH
	DW	0176H
	DD	042834000r			; 65.625
	DW	07dH
	DW	0176H
	DD	042898000r			; 68.75
	DW	07eH
	DW	0175H
	DD	0428fc000r			; 71.875
	DW	07fH
	DW	0175H
	DD	042960000r			; 75
	DW	080H
	DW	0175H
	DD	0429c4000r			; 78.125
	DW	081H
	DW	0174H
	DD	042a28000r			; 81.25
	DW	082H
	DW	0174H
	DD	042a8c000r			; 84.375
	DW	083H
	DW	0174H
	DD	042af0000r			; 87.5
	DW	084H
	DW	0174H
	DD	042b54000r			; 90.625
	DW	085H
	DW	0174H
	DD	042bb8000r			; 93.75
	DW	086H
	DW	0174H
	DD	042c1c000r			; 96.875
	DW	087H
	DW	0174H
	DD	042c80000r			; 100
	DW	088H
	DW	0174H
	DD	042d55555r			; 106.667
	DW	089H
	DW	0174H
	DD	042e2aaabr			; 113.333
	DW	08aH
	DW	0174H
	DD	042f00000r			; 120
	DW	08bH
	DW	0174H
	DD	042fd5555r			; 126.667
	DW	08cH
	DW	0174H
	DD	043055555r			; 133.333
	DW	08dH
	DW	0175H
	DD	0430c0000r			; 140
	DW	08eH
	DW	0175H
	DD	04312aaabr			; 146.667
	DW	08fH
	DW	0175H
	DD	043195555r			; 153.333
	DW	090H
	DW	0176H
	DD	043200000r			; 160
	DW	091H
	DW	0176H
	DD	04326aaabr			; 166.667
	DW	092H
	DW	0177H
	DD	0432d5555r			; 173.333
	DW	093H
	DW	0177H
	DD	043340000r			; 180
	DW	094H
	DW	0178H
	DD	0433aaaabr			; 186.667
	DW	095H
	DW	0179H
	DD	043415555r			; 193.333
	DW	096H
	DW	017aH
	DD	043480000r			; 200
	DW	097H
	DW	017bH
	DD	0434de1e2r			; 205.882
	DW	098H
	DW	017cH
	DD	04353c3c4r			; 211.765
	DW	099H
	DW	017dH
	DD	04359a5a6r			; 217.647
	DW	09aH
	DW	017eH
	DD	0435f8788r			; 223.529
	DW	09aH
	DW	017fH
	DD	043656969r			; 229.412
	DW	09bH
	DW	0180H
	DD	0436b4b4br			; 235.294
	DW	09bH
	DW	0181H
	DD	043712d2dr			; 241.176
	DW	09cH
	DW	0182H
	DD	043770f0fr			; 247.059
	DW	09cH
	DW	0183H
	DD	0437cf0f1r			; 252.941
	DW	09cH
	DW	0184H
	DD	043816969r			; 258.824
	DW	09cH
	DW	0185H
	DD	043845a5ar			; 264.706
	DW	09dH
	DW	0186H
	DD	043874b4br			; 270.588
	DW	09dH
	DW	0187H
	DD	0438a3c3cr			; 276.471
	DW	09dH
	DW	0188H
	DD	0438d2d2dr			; 282.353
	DW	09dH
	DW	0189H
	DD	043901e1er			; 288.235
	DW	09dH
	DW	018aH
	DD	043930f0fr			; 294.118
	DW	00H
	DW	00H
	DD	07f7fffffr			; 3.40282e+38
?vertical_speed_indicator_needle_scale_down_20_left_30@@3PAUSCALE_DATA@@A DW 019aH ; vertical_speed_indicator_needle_scale_down_20_left_30
	DW	0180H
	DD	0c3960000r			; -300
	DW	019aH
	DW	0181H
	DD	0c3922762r			; -292.308
	DW	019aH
	DW	0182H
	DD	0c38e4ec5r			; -284.615
	DW	0199H
	DW	0183H
	DD	0c38a7627r			; -276.923
	DW	0199H
	DW	0184H
	DD	0c3869d8ar			; -269.231
	DW	0198H
	DW	0185H
	DD	0c382c4ecr			; -261.538
	DW	0198H
	DW	0186H
	DD	0c37dd89er			; -253.846
	DW	0197H
	DW	0187H
	DD	0c3762762r			; -246.154
	DW	0197H
	DW	0188H
	DD	0c36e7627r			; -238.462
	DW	0196H
	DW	0189H
	DD	0c366c4ecr			; -230.769
	DW	0195H
	DW	018aH
	DD	0c35f13b1r			; -223.077
	DW	0194H
	DW	018bH
	DD	0c3576276r			; -215.385
	DW	0193H
	DW	018bH
	DD	0c34fb13br			; -207.692
	DW	0192H
	DW	018cH
	DD	0c3480000r			; -200
	DW	0191H
	DW	018dH
	DD	0c3415555r			; -193.333
	DW	0190H
	DW	018dH
	DD	0c33aaaabr			; -186.667
	DW	018fH
	DW	018dH
	DD	0c3340000r			; -180
	DW	018eH
	DW	018eH
	DD	0c32d5555r			; -173.333
	DW	018dH
	DW	018eH
	DD	0c326aaabr			; -166.667
	DW	018cH
	DW	018eH
	DD	0c3200000r			; -160
	DW	018bH
	DW	018eH
	DD	0c3195555r			; -153.333
	DW	018aH
	DW	018fH
	DD	0c312aaabr			; -146.667
	DW	0189H
	DW	018fH
	DD	0c30c0000r			; -140
	DW	0188H
	DW	018fH
	DD	0c3055555r			; -133.333
	DW	0187H
	DW	018eH
	DD	0c2fd5555r			; -126.667
	DW	0186H
	DW	018eH
	DD	0c2f00000r			; -120
	DW	0185H
	DW	018eH
	DD	0c2e2aaabr			; -113.333
	DW	0184H
	DW	018eH
	DD	0c2d55555r			; -106.667
	DW	0183H
	DW	018eH
	DD	0c2c80000r			; -100
	DW	0182H
	DW	018dH
	DD	0c2c0db6er			; -96.4286
	DW	0181H
	DW	018dH
	DD	0c2b9b6dbr			; -92.8571
	DW	0180H
	DW	018cH
	DD	0c2b29249r			; -89.2857
	DW	017fH
	DW	018cH
	DD	0c2ab6db7r			; -85.7143
	DW	017eH
	DW	018bH
	DD	0c2a44925r			; -82.1429
	DW	017dH
	DW	018bH
	DD	0c29d2492r			; -78.5714
	DW	017cH
	DW	018aH
	DD	0c2960000r			; -75
	DW	017bH
	DW	0189H
	DD	0c28edb6er			; -71.4286
	DW	017aH
	DW	0188H
	DD	0c287b6dbr			; -67.8571
	DW	0179H
	DW	0187H
	DD	0c2809249r			; -64.2857
	DW	0178H
	DW	0186H
	DD	0c272db6er			; -60.7143
	DW	0177H
	DW	0185H
	DD	0c2649249r			; -57.1429
	DW	0177H
	DW	0184H
	DD	0c2564925r			; -53.5714
	DW	0176H
	DW	0183H
	DD	0c2480000r			; -50
	DW	0176H
	DW	0182H
	DD	0c23b8000r			; -46.875
	DW	0175H
	DW	0181H
	DD	0c22f0000r			; -43.75
	DW	0175H
	DW	0180H
	DD	0c2228000r			; -40.625
	DW	0174H
	DW	017fH
	DD	0c2160000r			; -37.5
	DW	0174H
	DW	017eH
	DD	0c2098000r			; -34.375
	DW	0174H
	DW	017dH
	DD	0c1fa0000r			; -31.25
	DW	0173H
	DW	017cH
	DD	0c1e10000r			; -28.125
	DW	0173H
	DW	017bH
	DD	0c1c80000r			; -25
	DW	0173H
	DW	017aH
	DD	0c1af0000r			; -21.875
	DW	0173H
	DW	0179H
	DD	0c1960000r			; -18.75
	DW	0173H
	DW	0178H
	DD	0c17a0000r			; -15.625
	DW	0173H
	DW	0177H
	DD	0c1480000r			; -12.5
	DW	0173H
	DW	0176H
	DD	0c1160000r			; -9.375
	DW	0173H
	DW	0175H
	DD	0c0c80000r			; -6.25
	DW	0173H
	DW	0174H
	DD	0c0480000r			; -3.125
	DW	0173H
	DW	0173H
	DD	000000000r			; 0
	DW	0173H
	DW	0172H
	DD	040762762r			; 3.84615
	DW	0174H
	DW	0171H
	DD	040f62762r			; 7.69231
	DW	0174H
	DW	0170H
	DD	041389d8ar			; 11.5385
	DW	0174H
	DW	016fH
	DD	041762762r			; 15.3846
	DW	0175H
	DW	016eH
	DD	04199d89er			; 19.2308
	DW	0175H
	DW	016dH
	DD	041b89d8ar			; 23.0769
	DW	0176H
	DW	016cH
	DD	041d76276r			; 26.9231
	DW	0176H
	DW	016bH
	DD	041f62762r			; 30.7692
	DW	0177H
	DW	016aH
	DD	0420a7627r			; 34.6154
	DW	0178H
	DW	0169H
	DD	04219d89er			; 38.4615
	DW	0179H
	DW	0168H
	DD	042293b14r			; 42.3077
	DW	017aH
	DW	0167H
	DD	042389d8ar			; 46.1538
	DW	017bH
	DW	0166H
	DD	042480000r			; 50
	DW	017cH
	DW	0166H
	DD	042555555r			; 53.3333
	DW	017dH
	DW	0165H
	DD	04262aaabr			; 56.6667
	DW	017eH
	DW	0165H
	DD	042700000r			; 60
	DW	017fH
	DW	0164H
	DD	0427d5555r			; 63.3333
	DW	0180H
	DW	0164H
	DD	042855555r			; 66.6667
	DW	0181H
	DW	0164H
	DD	0428c0000r			; 70
	DW	0182H
	DW	0164H
	DD	04292aaabr			; 73.3333
	DW	0183H
	DW	0164H
	DD	042995555r			; 76.6667
	DW	0184H
	DW	0164H
	DD	042a00000r			; 80
	DW	0185H
	DW	0164H
	DD	042a6aaabr			; 83.3333
	DW	0186H
	DW	0164H
	DD	042ad5555r			; 86.6667
	DW	0187H
	DW	0164H
	DD	042b40000r			; 90
	DW	0188H
	DW	0164H
	DD	042baaaabr			; 93.3333
	DW	0189H
	DW	0164H
	DD	042c15555r			; 96.6667
	DW	018aH
	DW	0164H
	DD	042c80000r			; 100
	DW	018bH
	DW	0165H
	DD	042d64925r			; 107.143
	DW	018cH
	DW	0165H
	DD	042e49249r			; 114.286
	DW	018dH
	DW	0165H
	DD	042f2db6er			; 121.429
	DW	018eH
	DW	0166H
	DD	043009249r			; 128.571
	DW	018fH
	DW	0166H
	DD	04307b6dbr			; 135.714
	DW	0190H
	DW	0167H
	DD	0430edb6er			; 142.857
	DW	0191H
	DW	0168H
	DD	043160000r			; 150
	DW	0192H
	DW	0168H
	DD	0431d2492r			; 157.143
	DW	0193H
	DW	0169H
	DD	043244925r			; 164.286
	DW	0194H
	DW	016aH
	DD	0432b6db7r			; 171.429
	DW	0195H
	DW	016bH
	DD	043329249r			; 178.571
	DW	0195H
	DW	016cH
	DD	04339b6dbr			; 185.714
	DW	0196H
	DW	016dH
	DD	04340db6er			; 192.857
	DW	0197H
	DW	016eH
	DD	043480000r			; 200
	DW	0197H
	DW	016fH
	DD	0434d8e39r			; 205.556
	DW	0198H
	DW	0170H
	DD	043531c72r			; 211.111
	DW	0198H
	DW	0171H
	DD	04358aaabr			; 216.667
	DW	0199H
	DW	0172H
	DD	0435e38e4r			; 222.222
	DW	0199H
	DW	0173H
	DD	04363c71cr			; 227.778
	DW	019aH
	DW	0174H
	DD	043695555r			; 233.333
	DW	019aH
	DW	0175H
	DD	0436ee38er			; 238.889
	DW	019aH
	DW	0176H
	DD	0437471c7r			; 244.444
	DW	019aH
	DW	0177H
	DD	0437a0000r			; 250
	DW	019bH
	DW	0178H
	DD	0437f8e39r			; 255.556
	DW	019bH
	DW	0179H
	DD	043828e39r			; 261.111
	DW	019bH
	DW	017aH
	DD	043855555r			; 266.667
	DW	019bH
	DW	017bH
	DD	043881c72r			; 272.222
	DW	019bH
	DW	017cH
	DD	0438ae38er			; 277.778
	DW	019bH
	DW	017dH
	DD	0438daaabr			; 283.333
	DW	019bH
	DW	017eH
	DD	0439071c7r			; 288.889
	DW	019aH
	DW	017fH
	DD	0439338e4r			; 294.444
	DW	00H
	DW	00H
	DD	07f7fffffr			; 3.40282e+38
?flight_path_value@?L@??get_hsi_needle_values@@YGXPAM00@Z@4MA DD 03fc90fdbr ; 1.5708 ; `get_hsi_needle_values'::`11'::flight_path_value
?drift_value@?L@??get_hsi_needle_values@@YGXPAM00@Z@4MA DD 0beb2b8c2r ; -0.349066 ; `get_hsi_needle_values'::`11'::drift_value
?value@?4??draw_havoc_airspeed_indicator@@YGXW4COCKPIT_PANELS@@@Z@4MA DD 0c2c80000r ; -100 ; `draw_havoc_airspeed_indicator'::`5'::value
?value@?N@??draw_havoc_airspeed_indicator@@YGXW4COCKPIT_PANELS@@@Z@4MA DD 0c2f00000r ; -120 ; `draw_havoc_airspeed_indicator'::`13'::value
?value@?4??draw_havoc_main_rotor_rpm_indicator@@YGXW4COCKPIT_PANELS@@@Z@4MA DD 0c1200000r ; -10 ; `draw_havoc_main_rotor_rpm_indicator'::`5'::value
?value@?4??draw_havoc_g_meter@@YGXW4COCKPIT_PANELS@@@Z@4MA DD 0c0200000r ; -2.5 ; `draw_havoc_g_meter'::`5'::value
?value@?4??draw_havoc_engine_torque_indicator@@YGXW4COCKPIT_PANELS@@@Z@4MA DD 0c1200000r ; -10 ; `draw_havoc_engine_torque_indicator'::`5'::value
?value@?4??draw_havoc_engine_temperature_indicator@@YGXW4COCKPIT_PANELS@@@Z@4MA DD 0c2c80000r ; -100 ; `draw_havoc_engine_temperature_indicator'::`5'::value
?value@?4??draw_havoc_engine_rpm_indicator@@YGXW4COCKPIT_PANELS@@@Z@4MA DD 0c1200000r ; -10 ; `draw_havoc_engine_rpm_indicator'::`5'::value
?lh_temperature_sprite@?4??draw_havoc_engine_temperature_and_rpm_indicator_ticks@@YGXW4COCKPIT_PANELS@@@Z@4URGB_ALPHA_MASKED_SPRITE_DATA@@A DD 01edH ; `draw_havoc_engine_temperature_and_rpm_indicator_ticks'::`5'::lh_temperature_sprite
	DD	0199H
	DD	089H
	DD	0d5H
	DD	07H
	DD	04H
	DB	0edH
	ORG $+3
?rh_temperature_sprite@?4??draw_havoc_engine_temperature_and_rpm_indicator_ticks@@YGXW4COCKPIT_PANELS@@@Z@4URGB_ALPHA_MASKED_SPRITE_DATA@@A DD 0205H ; `draw_havoc_engine_temperature_and_rpm_indicator_ticks'::`5'::rh_temperature_sprite
	DD	0199H
	DD	0a1H
	DD	0d5H
	DD	07H
	DD	04H
	DB	0edH
	ORG $+3
?lh_rpm_sprite@?4??draw_havoc_engine_temperature_and_rpm_indicator_ticks@@YGXW4COCKPIT_PANELS@@@Z@4URGB_ALPHA_MASKED_SPRITE_DATA@@A DD 01f2H ; `draw_havoc_engine_temperature_and_rpm_indicator_ticks'::`5'::lh_rpm_sprite
	DD	0184H
	DD	08eH
	DD	0c0H
	DD	07H
	DD	03H
	DB	0edH
	ORG $+3
?rh_rpm_sprite@?4??draw_havoc_engine_temperature_and_rpm_indicator_ticks@@YGXW4COCKPIT_PANELS@@@Z@4URGB_ALPHA_MASKED_SPRITE_DATA@@A DD 0200H ; `draw_havoc_engine_temperature_and_rpm_indicator_ticks'::`5'::rh_rpm_sprite
	DD	0184H
	DD	09cH
	DD	0c0H
	DD	07H
	DD	03H
	DB	0edH
	ORG $+3
?lh_temperature_sprite@?5??draw_havoc_engine_temperature_and_rpm_indicator_ticks@@YGXW4COCKPIT_PANELS@@@Z@4URGB_ALPHA_MASKED_SPRITE_DATA@@A DD 0f1H ; `draw_havoc_engine_temperature_and_rpm_indicator_ticks'::`6'::lh_temperature_sprite
	DD	0189H
	DD	0b1H
	DD	0d9H
	DD	07H
	DD	05H
	DB	0edH
	ORG $+3
?rh_temperature_sprite@?5??draw_havoc_engine_temperature_and_rpm_indicator_ticks@@YGXW4COCKPIT_PANELS@@@Z@4URGB_ALPHA_MASKED_SPRITE_DATA@@A DD 0106H ; `draw_havoc_engine_temperature_and_rpm_indicator_ticks'::`6'::rh_temperature_sprite
	DD	0182H
	DD	0c6H
	DD	0d2H
	DD	07H
	DD	05H
	DB	0edH
	ORG $+3
?lh_rpm_sprite@?5??draw_havoc_engine_temperature_and_rpm_indicator_ticks@@YGXW4COCKPIT_PANELS@@@Z@4URGB_ALPHA_MASKED_SPRITE_DATA@@A DD 0f2H ; `draw_havoc_engine_temperature_and_rpm_indicator_ticks'::`6'::lh_rpm_sprite
	DD	0174H
	DD	0b2H
	DD	0c4H
	DD	07H
	DD	03H
	DB	0edH
	ORG $+3
?rh_rpm_sprite@?5??draw_havoc_engine_temperature_and_rpm_indicator_ticks@@YGXW4COCKPIT_PANELS@@@Z@4URGB_ALPHA_MASKED_SPRITE_DATA@@A DD 0ffH ; `draw_havoc_engine_temperature_and_rpm_indicator_ticks'::`6'::rh_rpm_sprite
	DD	0170H
	DD	0bfH
	DD	0c0H
	DD	06H
	DD	03H
	DB	0edH
	ORG $+3
?value@?4??draw_havoc_vertical_speed_indicator@@YGXW4COCKPIT_PANELS@@@Z@4MA DD 0c3af0000r ; -350 ; `draw_havoc_vertical_speed_indicator'::`5'::value
?minute_value@?4??draw_havoc_clock@@YGXW4COCKPIT_PANELS@@@Z@4MA DD 041f00000r ; 30 ; `draw_havoc_clock'::`5'::minute_value
?value@?4??draw_havoc_radar_altimeter@@YGXW4COCKPIT_PANELS@@@Z@4MA DD 0c1a00000r ; -20 ; `draw_havoc_radar_altimeter'::`5'::value
?value@?4??draw_havoc_fuel_gauge@@YGXW4COCKPIT_PANELS@@@Z@4MA DD 0c3fa0000r ; -500 ; `draw_havoc_fuel_gauge'::`5'::value
?sprite@?N@??draw_havoc_fuel_gauge@@YGXW4COCKPIT_PANELS@@@Z@4URGB_ALPHA_MASKED_SPRITE_DATA@@A DD 019eH ; `draw_havoc_fuel_gauge'::`13'::sprite
	DD	01afH
	DD	087H
	DD	0e6H
	DD	0cH
	DD	0cH
	DB	0ebH
	ORG $+3
?sprite@?O@??draw_havoc_fuel_gauge@@YGXW4COCKPIT_PANELS@@@Z@4URGB_ALPHA_MASKED_SPRITE_DATA@@A DD 0abH ; `draw_havoc_fuel_gauge'::`14'::sprite
	DD	01b7H
	DD	09dH
	DD	0e6H
	DD	0bH
	DD	0bH
	DB	0ebH
	ORG $+3
_DATA	ENDS
; Function compile flags: /Odtp /ZI
; File c:\users\nhv90\projects\eech\aphavoc\source\gunships\cockpits\havoc\ha_instr.c
;	COMDAT ?test_scale@@YGXPAUSCALE_DATA@@MMM@Z
_TEXT	SEGMENT
_value$ = -4						; size = 4
_scale$ = 8						; size = 4
_first$ = 12						; size = 4
_last$ = 16						; size = 4
_step$ = 20						; size = 4
?test_scale@@YGXPAUSCALE_DATA@@MMM@Z PROC		; test_scale, COMDAT

; 546  : {

  00000	55		 push	 ebp
  00001	8b ec		 mov	 ebp, esp
  00003	83 ec 44	 sub	 esp, 68			; 00000044H
  00006	53		 push	 ebx
  00007	56		 push	 esi
  00008	57		 push	 edi

; 547  : 	float
; 548  : 		value;
; 549  : 
; 550  : 	for (value = first; value <= last; value += step)

  00009	f3 0f 10 45 0c	 movss	 xmm0, DWORD PTR _first$[ebp]
  0000e	f3 0f 11 45 fc	 movss	 DWORD PTR _value$[ebp], xmm0
  00013	eb 0f		 jmp	 SHORT $LN4@test_scale
$LN2@test_scale:
  00015	f3 0f 10 45 fc	 movss	 xmm0, DWORD PTR _value$[ebp]
  0001a	f3 0f 58 45 14	 addss	 xmm0, DWORD PTR _step$[ebp]
  0001f	f3 0f 11 45 fc	 movss	 DWORD PTR _value$[ebp], xmm0
$LN4@test_scale:
  00024	f3 0f 10 45 10	 movss	 xmm0, DWORD PTR _last$[ebp]
  00029	0f 2f 45 fc	 comiss	 xmm0, DWORD PTR _value$[ebp]
  0002d	72 3f		 jb	 SHORT $LN3@test_scale

; 551  : 	{
; 552  : 		scale = find_scale_value (scale, value);

  0002f	51		 push	 ecx
  00030	f3 0f 10 45 fc	 movss	 xmm0, DWORD PTR _value$[ebp]
  00035	f3 0f 11 04 24	 movss	 DWORD PTR [esp], xmm0
  0003a	8b 45 08	 mov	 eax, DWORD PTR _scale$[ebp]
  0003d	50		 push	 eax
  0003e	e8 00 00 00 00	 call	 ?find_scale_value@@YGPAUSCALE_DATA@@PAU1@M@Z ; find_scale_value
  00043	89 45 08	 mov	 DWORD PTR _scale$[ebp], eax

; 553  : 
; 554  : 		set_pixel (ix_640_480 + scale->x, iy_640_480 + scale->y, sys_col_red);

  00046	a1 00 00 00 00	 mov	 eax, DWORD PTR ?sys_col_red@@3UREAL_COLOUR@@A ; sys_col_red
  0004b	50		 push	 eax
  0004c	8b 4d 08	 mov	 ecx, DWORD PTR _scale$[ebp]
  0004f	0f bf 51 02	 movsx	 edx, WORD PTR [ecx+2]
  00053	03 15 00 00 00
	00		 add	 edx, DWORD PTR ?iy_640_480@@3HA ; iy_640_480
  00059	52		 push	 edx
  0005a	8b 45 08	 mov	 eax, DWORD PTR _scale$[ebp]
  0005d	0f bf 08	 movsx	 ecx, WORD PTR [eax]
  00060	03 0d 00 00 00
	00		 add	 ecx, DWORD PTR ?ix_640_480@@3HA ; ix_640_480
  00066	51		 push	 ecx
  00067	e8 00 00 00 00	 call	 ?set_pixel@@YGXHHUREAL_COLOUR@@@Z ; set_pixel

; 555  : 	}

  0006c	eb a7		 jmp	 SHORT $LN2@test_scale
$LN3@test_scale:

; 556  : }

  0006e	5f		 pop	 edi
  0006f	5e		 pop	 esi
  00070	5b		 pop	 ebx
  00071	8b e5		 mov	 esp, ebp
  00073	5d		 pop	 ebp
  00074	c2 10 00	 ret	 16			; 00000010H
?test_scale@@YGXPAUSCALE_DATA@@MMM@Z ENDP		; test_scale
_TEXT	ENDS
; Function compile flags: /Odtp /ZI
; File c:\users\nhv90\projects\eech\aphavoc\source\gunships\cockpits\havoc\ha_instr.c
;	COMDAT ?draw_scale_value@@YGXPAUSCALE_DATA@@MUREAL_COLOUR@@@Z
_TEXT	SEGMENT
_scale$ = 8						; size = 4
_value$ = 12						; size = 4
_colour$ = 16						; size = 4
?draw_scale_value@@YGXPAUSCALE_DATA@@MUREAL_COLOUR@@@Z PROC ; draw_scale_value, COMDAT

; 532  : {

  00000	55		 push	 ebp
  00001	8b ec		 mov	 ebp, esp
  00003	83 ec 40	 sub	 esp, 64			; 00000040H
  00006	53		 push	 ebx
  00007	56		 push	 esi
  00008	57		 push	 edi
$LN2@draw_scale:

; 533  : 	while (value >= scale->value)

  00009	8b 45 08	 mov	 eax, DWORD PTR _scale$[ebp]
  0000c	f3 0f 10 45 0c	 movss	 xmm0, DWORD PTR _value$[ebp]
  00011	0f 2f 40 04	 comiss	 xmm0, DWORD PTR [eax+4]
  00015	72 2f		 jb	 SHORT $LN3@draw_scale

; 534  : 	{
; 535  : 		set_pixel (ix_640_480 + scale->x, iy_640_480 + scale->y, colour);

  00017	8b 45 10	 mov	 eax, DWORD PTR _colour$[ebp]
  0001a	50		 push	 eax
  0001b	8b 4d 08	 mov	 ecx, DWORD PTR _scale$[ebp]
  0001e	0f bf 51 02	 movsx	 edx, WORD PTR [ecx+2]
  00022	03 15 00 00 00
	00		 add	 edx, DWORD PTR ?iy_640_480@@3HA ; iy_640_480
  00028	52		 push	 edx
  00029	8b 45 08	 mov	 eax, DWORD PTR _scale$[ebp]
  0002c	0f bf 08	 movsx	 ecx, WORD PTR [eax]
  0002f	03 0d 00 00 00
	00		 add	 ecx, DWORD PTR ?ix_640_480@@3HA ; ix_640_480
  00035	51		 push	 ecx
  00036	e8 00 00 00 00	 call	 ?set_pixel@@YGXHHUREAL_COLOUR@@@Z ; set_pixel

; 536  : 
; 537  : 		scale++;

  0003b	8b 45 08	 mov	 eax, DWORD PTR _scale$[ebp]
  0003e	83 c0 08	 add	 eax, 8
  00041	89 45 08	 mov	 DWORD PTR _scale$[ebp], eax

; 538  : 	}

  00044	eb c3		 jmp	 SHORT $LN2@draw_scale
$LN3@draw_scale:

; 539  : }

  00046	5f		 pop	 edi
  00047	5e		 pop	 esi
  00048	5b		 pop	 ebx
  00049	8b e5		 mov	 esp, ebp
  0004b	5d		 pop	 ebp
  0004c	c2 0c 00	 ret	 12			; 0000000cH
?draw_scale_value@@YGXPAUSCALE_DATA@@MUREAL_COLOUR@@@Z ENDP ; draw_scale_value
_TEXT	ENDS
; Function compile flags: /Odtp /ZI
; File c:\users\nhv90\projects\eech\aphavoc\source\gunships\cockpits\havoc\ha_instr.c
;	COMDAT ?find_scale_value@@YGPAUSCALE_DATA@@PAU1@M@Z
_TEXT	SEGMENT
_scale$ = 8						; size = 4
_value$ = 12						; size = 4
?find_scale_value@@YGPAUSCALE_DATA@@PAU1@M@Z PROC	; find_scale_value, COMDAT

; 518  : {

  00000	55		 push	 ebp
  00001	8b ec		 mov	 ebp, esp
  00003	83 ec 40	 sub	 esp, 64			; 00000040H
  00006	53		 push	 ebx
  00007	56		 push	 esi
  00008	57		 push	 edi
$LN2@find_scale:

; 519  : 	while (value >= (scale+1)->value)

  00009	8b 45 08	 mov	 eax, DWORD PTR _scale$[ebp]
  0000c	f3 0f 10 45 0c	 movss	 xmm0, DWORD PTR _value$[ebp]
  00011	0f 2f 40 0c	 comiss	 xmm0, DWORD PTR [eax+12]
  00015	72 0b		 jb	 SHORT $LN3@find_scale

; 520  : 	{
; 521  : 		scale++;

  00017	8b 45 08	 mov	 eax, DWORD PTR _scale$[ebp]
  0001a	83 c0 08	 add	 eax, 8
  0001d	89 45 08	 mov	 DWORD PTR _scale$[ebp], eax

; 522  : 	}

  00020	eb e7		 jmp	 SHORT $LN2@find_scale
$LN3@find_scale:

; 523  : 
; 524  : 	return (scale);

  00022	8b 45 08	 mov	 eax, DWORD PTR _scale$[ebp]

; 525  : }

  00025	5f		 pop	 edi
  00026	5e		 pop	 esi
  00027	5b		 pop	 ebx
  00028	8b e5		 mov	 esp, ebp
  0002a	5d		 pop	 ebp
  0002b	c2 08 00	 ret	 8
?find_scale_value@@YGPAUSCALE_DATA@@PAU1@M@Z ENDP	; find_scale_value
_TEXT	ENDS
; Function compile flags: /Odtp /ZI
; File c:\users\nhv90\projects\eech\aphavoc\source\gunships\cockpits\havoc\ha_instr.c
;	COMDAT ?get_hsi_needle_values@@YGXPAM00@Z
_TEXT	SEGMENT
tv297 = -196						; size = 8
tv298 = -188						; size = 8
tv217 = -188						; size = 4
tv173 = -188						; size = 4
tv153 = -188						; size = 4
tv209 = -184						; size = 4
tv165 = -184						; size = 4
tv145 = -184						; size = 4
_v2$ = -116						; size = 8
_v1$ = -108						; size = 8
_prev_wp_position$ = -100				; size = 12
_wp_position$ = -88					; size = 12
_en_position$ = -76					; size = 4
_wind_vector$ = -72					; size = 12
_motion_vector$ = -60					; size = 4
_prev_wp$ = -56						; size = 4
_wp$ = -52						; size = 4
_en$ = -48						; size = 4
_cross_product$ = -44					; size = 4
_dot_product$ = -40					; size = 4
_length2$ = -36						; size = 4
_length1$ = -32						; size = 4
_bearing$ = -28						; size = 4
_heading$ = -24						; size = 4
_dz$ = -20						; size = 4
_dx$ = -16						; size = 4
_drift_needle_value$ = -12				; size = 4
_flight_path_needle_value$ = -8				; size = 4
_direction_finder_needle_value$ = -4			; size = 4
_direction_finder$ = 8					; size = 4
_flight_path$ = 12					; size = 4
_drift$ = 16						; size = 4
?get_hsi_needle_values@@YGXPAM00@Z PROC			; get_hsi_needle_values, COMDAT

; 311  : {

  00000	55		 push	 ebp
  00001	8b ec		 mov	 ebp, esp
  00003	81 ec c4 00 00
	00		 sub	 esp, 196		; 000000c4H
  00009	53		 push	 ebx
  0000a	56		 push	 esi
  0000b	57		 push	 edi

; 312  : 	float
; 313  : 		direction_finder_needle_value,
; 314  : 		flight_path_needle_value,
; 315  : 		drift_needle_value,
; 316  : 		dx,
; 317  : 		dz,
; 318  : 		heading,
; 319  : 		bearing,
; 320  : 		length1,
; 321  : 		length2,
; 322  : 		dot_product,
; 323  : 		cross_product;
; 324  : 
; 325  : 	entity
; 326  : 		*en,
; 327  : 		*wp,
; 328  : 		*prev_wp;
; 329  : 
; 330  : 	vec3d
; 331  : 		*motion_vector,
; 332  : 		wind_vector,
; 333  : 		*en_position,
; 334  : 		wp_position,
; 335  : 		prev_wp_position;
; 336  : 
; 337  : 	vec2d
; 338  : 		v1,
; 339  : 		v2;
; 340  : 
; 341  : 	ASSERT (direction_finder);

  0000c	83 7d 08 00	 cmp	 DWORD PTR _direction_finder$[ebp], 0
  00010	75 18		 jne	 SHORT $LN2@get_hsi_ne
  00012	a1 00 00 00 00	 mov	 eax, DWORD PTR ?__LINE__Var@?0??get_hsi_needle_values@@YGXPAM00@Z@4JA
  00017	83 c0 1e	 add	 eax, 30			; 0000001eH
  0001a	50		 push	 eax
  0001b	68 00 00 00 00	 push	 OFFSET ??_C@_0EP@MNOBCBEH@c?3?2users?2nhv90?2projects?2eech?2ap@
  00020	68 00 00 00 00	 push	 OFFSET ??_C@_0BB@PFAKKLCO@direction_finder@
  00025	e8 00 00 00 00	 call	 ?process_assert@@YGXPBD0H@Z ; process_assert
$LN2@get_hsi_ne:

; 342  : 
; 343  : 	ASSERT (flight_path);

  0002a	83 7d 0c 00	 cmp	 DWORD PTR _flight_path$[ebp], 0
  0002e	75 18		 jne	 SHORT $LN3@get_hsi_ne
  00030	a1 00 00 00 00	 mov	 eax, DWORD PTR ?__LINE__Var@?0??get_hsi_needle_values@@YGXPAM00@Z@4JA
  00035	83 c0 20	 add	 eax, 32			; 00000020H
  00038	50		 push	 eax
  00039	68 00 00 00 00	 push	 OFFSET ??_C@_0EP@MNOBCBEH@c?3?2users?2nhv90?2projects?2eech?2ap@
  0003e	68 00 00 00 00	 push	 OFFSET ??_C@_0M@GOBOJDMO@flight_path@
  00043	e8 00 00 00 00	 call	 ?process_assert@@YGXPBD0H@Z ; process_assert
$LN3@get_hsi_ne:

; 344  : 
; 345  : 	ASSERT (drift);

  00048	83 7d 10 00	 cmp	 DWORD PTR _drift$[ebp], 0
  0004c	75 18		 jne	 SHORT $LN4@get_hsi_ne
  0004e	a1 00 00 00 00	 mov	 eax, DWORD PTR ?__LINE__Var@?0??get_hsi_needle_values@@YGXPAM00@Z@4JA
  00053	83 c0 22	 add	 eax, 34			; 00000022H
  00056	50		 push	 eax
  00057	68 00 00 00 00	 push	 OFFSET ??_C@_0EP@MNOBCBEH@c?3?2users?2nhv90?2projects?2eech?2ap@
  0005c	68 00 00 00 00	 push	 OFFSET ??_C@_05BPGNBDFG@drift@
  00061	e8 00 00 00 00	 call	 ?process_assert@@YGXPBD0H@Z ; process_assert
$LN4@get_hsi_ne:

; 346  : 
; 347  : 	direction_finder_needle_value = 0.0;

  00066	0f 57 c0	 xorps	 xmm0, xmm0
  00069	f3 0f 11 45 fc	 movss	 DWORD PTR _direction_finder_needle_value$[ebp], xmm0

; 348  : 
; 349  : 	flight_path_needle_value = 0.0;

  0006e	0f 57 c0	 xorps	 xmm0, xmm0
  00071	f3 0f 11 45 f8	 movss	 DWORD PTR _flight_path_needle_value$[ebp], xmm0

; 350  : 
; 351  : 	drift_needle_value = 0.0;

  00076	0f 57 c0	 xorps	 xmm0, xmm0
  00079	f3 0f 11 45 f4	 movss	 DWORD PTR _drift_needle_value$[ebp], xmm0

; 352  : 
; 353  : 	if (test_cockpit_instruments)

  0007e	83 3d 00 00 00
	00 00		 cmp	 DWORD PTR ?test_cockpit_instruments@@3HA, 0 ; test_cockpit_instruments
  00085	0f 84 fe 00 00
	00		 je	 $LN5@get_hsi_ne

; 354  : 	{
; 355  : 		static float
; 356  : 			direction_finder_value = rad (0.0),
; 357  : 			flight_path_value = rad (90.0),
; 358  : 			drift_value = rad (-20.0);
; 359  : 
; 360  : 		//
; 361  : 		// automatic direction finder
; 362  : 		//
; 363  : 
; 364  : 		direction_finder_value += rad (5.0);

  0008b	f3 0f 5a 05 00
	00 00 00	 cvtss2sd xmm0, DWORD PTR ?direction_finder_value@?L@??get_hsi_needle_values@@YGXPAM00@Z@4MA
  00093	f2 0f 58 05 00
	00 00 00	 addsd	 xmm0, QWORD PTR __real@3fb6571848000000
  0009b	f2 0f 5a c0	 cvtsd2ss xmm0, xmm0
  0009f	f3 0f 11 05 00
	00 00 00	 movss	 DWORD PTR ?direction_finder_value@?L@??get_hsi_needle_values@@YGXPAM00@Z@4MA, xmm0

; 365  : 
; 366  : 		if (direction_finder_value > rad (360.0))

  000a7	f3 0f 5a 05 00
	00 00 00	 cvtss2sd xmm0, DWORD PTR ?direction_finder_value@?L@??get_hsi_needle_values@@YGXPAM00@Z@4MA
  000af	66 0f 2f 05 00
	00 00 00	 comisd	 xmm0, QWORD PTR __real@401921fb51000000
  000b7	76 1c		 jbe	 SHORT $LN7@get_hsi_ne

; 367  : 		{
; 368  : 			direction_finder_value -= rad (360.0);

  000b9	f3 0f 5a 05 00
	00 00 00	 cvtss2sd xmm0, DWORD PTR ?direction_finder_value@?L@??get_hsi_needle_values@@YGXPAM00@Z@4MA
  000c1	f2 0f 5c 05 00
	00 00 00	 subsd	 xmm0, QWORD PTR __real@401921fb51000000
  000c9	f2 0f 5a c0	 cvtsd2ss xmm0, xmm0
  000cd	f3 0f 11 05 00
	00 00 00	 movss	 DWORD PTR ?direction_finder_value@?L@??get_hsi_needle_values@@YGXPAM00@Z@4MA, xmm0
$LN7@get_hsi_ne:

; 369  : 		}
; 370  : 
; 371  : 		direction_finder_needle_value = direction_finder_value;

  000d5	f3 0f 10 05 00
	00 00 00	 movss	 xmm0, DWORD PTR ?direction_finder_value@?L@??get_hsi_needle_values@@YGXPAM00@Z@4MA
  000dd	f3 0f 11 45 fc	 movss	 DWORD PTR _direction_finder_needle_value$[ebp], xmm0

; 372  : 
; 373  : 		//
; 374  : 		// flight path
; 375  : 		//
; 376  : 
; 377  : 		flight_path_value += rad (3.0);

  000e2	f3 0f 5a 05 00
	00 00 00	 cvtss2sd xmm0, DWORD PTR ?flight_path_value@?L@??get_hsi_needle_values@@YGXPAM00@Z@4MA
  000ea	f2 0f 58 05 00
	00 00 00	 addsd	 xmm0, QWORD PTR __real@3faacee9f0000000
  000f2	f2 0f 5a c0	 cvtsd2ss xmm0, xmm0
  000f6	f3 0f 11 05 00
	00 00 00	 movss	 DWORD PTR ?flight_path_value@?L@??get_hsi_needle_values@@YGXPAM00@Z@4MA, xmm0

; 378  : 
; 379  : 		if (flight_path_value > rad (360.0))

  000fe	f3 0f 5a 05 00
	00 00 00	 cvtss2sd xmm0, DWORD PTR ?flight_path_value@?L@??get_hsi_needle_values@@YGXPAM00@Z@4MA
  00106	66 0f 2f 05 00
	00 00 00	 comisd	 xmm0, QWORD PTR __real@401921fb51000000
  0010e	76 1c		 jbe	 SHORT $LN8@get_hsi_ne

; 380  : 		{
; 381  : 			flight_path_value -= rad (360.0);

  00110	f3 0f 5a 05 00
	00 00 00	 cvtss2sd xmm0, DWORD PTR ?flight_path_value@?L@??get_hsi_needle_values@@YGXPAM00@Z@4MA
  00118	f2 0f 5c 05 00
	00 00 00	 subsd	 xmm0, QWORD PTR __real@401921fb51000000
  00120	f2 0f 5a c0	 cvtsd2ss xmm0, xmm0
  00124	f3 0f 11 05 00
	00 00 00	 movss	 DWORD PTR ?flight_path_value@?L@??get_hsi_needle_values@@YGXPAM00@Z@4MA, xmm0
$LN8@get_hsi_ne:

; 382  : 		}
; 383  : 
; 384  : 		flight_path_needle_value = flight_path_value;

  0012c	f3 0f 10 05 00
	00 00 00	 movss	 xmm0, DWORD PTR ?flight_path_value@?L@??get_hsi_needle_values@@YGXPAM00@Z@4MA
  00134	f3 0f 11 45 f8	 movss	 DWORD PTR _flight_path_needle_value$[ebp], xmm0

; 385  : 
; 386  : 		//
; 387  : 		// drift
; 388  : 		//
; 389  : 
; 390  : 		drift_value += rad (1.0);

  00139	f3 0f 5a 05 00
	00 00 00	 cvtss2sd xmm0, DWORD PTR ?drift_value@?L@??get_hsi_needle_values@@YGXPAM00@Z@4MA
  00141	f2 0f 58 05 00
	00 00 00	 addsd	 xmm0, QWORD PTR __real@3f91df46a0000000
  00149	f2 0f 5a c0	 cvtsd2ss xmm0, xmm0
  0014d	f3 0f 11 05 00
	00 00 00	 movss	 DWORD PTR ?drift_value@?L@??get_hsi_needle_values@@YGXPAM00@Z@4MA, xmm0

; 391  : 
; 392  : 		if (drift_value > rad (35.0))

  00155	f3 0f 5a 05 00
	00 00 00	 cvtss2sd xmm0, DWORD PTR ?drift_value@?L@??get_hsi_needle_values@@YGXPAM00@Z@4MA
  0015d	66 0f 2f 05 00
	00 00 00	 comisd	 xmm0, QWORD PTR __real@3fe38c353f000000
  00165	76 10		 jbe	 SHORT $LN9@get_hsi_ne

; 393  : 		{
; 394  : 			drift_value = rad (-35.0);

  00167	f3 0f 10 05 00
	00 00 00	 movss	 xmm0, DWORD PTR __real@bf1c61aa
  0016f	f3 0f 11 05 00
	00 00 00	 movss	 DWORD PTR ?drift_value@?L@??get_hsi_needle_values@@YGXPAM00@Z@4MA, xmm0
$LN9@get_hsi_ne:

; 395  : 		}
; 396  : 
; 397  : 		drift_needle_value = drift_value;

  00177	f3 0f 10 05 00
	00 00 00	 movss	 xmm0, DWORD PTR ?drift_value@?L@??get_hsi_needle_values@@YGXPAM00@Z@4MA
  0017f	f3 0f 11 45 f4	 movss	 DWORD PTR _drift_needle_value$[ebp], xmm0

; 398  : 	}
; 399  : 	else

  00184	e9 3d 04 00 00	 jmp	 $LN16@get_hsi_ne
$LN5@get_hsi_ne:

; 400  : 	{
; 401  : 		if (!havoc_damage.navigation_computer)

  00189	a1 00 00 00 00	 mov	 eax, DWORD PTR ?havoc_damage@@3THAVOC_DAMAGE_FLAGS@@A ; havoc_damage
  0018e	c1 e8 09	 shr	 eax, 9
  00191	83 e0 01	 and	 eax, 1
  00194	0f 85 2c 04 00
	00		 jne	 $LN16@get_hsi_ne

; 402  : 		{
; 403  : 			en = get_gunship_entity ();

  0019a	a1 00 00 00 00	 mov	 eax, DWORD PTR ?gunship_entity@@3PAUENTITY@@A ; gunship_entity
  0019f	89 45 d0	 mov	 DWORD PTR _en$[ebp], eax

; 404  : 
; 405  : 			wp = get_local_entity_current_waypoint (en);

  001a2	8b 45 d0	 mov	 eax, DWORD PTR _en$[ebp]
  001a5	50		 push	 eax
  001a6	e8 00 00 00 00	 call	 ?get_local_entity_current_waypoint@@YGPAUENTITY@@PAU1@@Z ; get_local_entity_current_waypoint
  001ab	89 45 cc	 mov	 DWORD PTR _wp$[ebp], eax

; 406  : 
; 407  : 			if (wp)

  001ae	83 7d cc 00	 cmp	 DWORD PTR _wp$[ebp], 0
  001b2	0f 84 0e 04 00
	00		 je	 $LN16@get_hsi_ne

; 408  : 			{
; 409  : 				//
; 410  : 				// automatic direction finder
; 411  : 				//
; 412  : 
; 413  : 				heading = get_local_entity_float_value (en, FLOAT_TYPE_HEADING);

  001b8	83 7d d0 00	 cmp	 DWORD PTR _en$[ebp], 0
  001bc	74 0d		 je	 SHORT $LN18@get_hsi_ne
  001be	8b 45 d0	 mov	 eax, DWORD PTR _en$[ebp]
  001c1	8b 08		 mov	 ecx, DWORD PTR [eax]
  001c3	89 8d 48 ff ff
	ff		 mov	 DWORD PTR tv145[ebp], ecx
  001c9	eb 24		 jmp	 SHORT $LN19@get_hsi_ne
$LN18@get_hsi_ne:
  001cb	8b 15 00 00 00
	00		 mov	 edx, DWORD PTR ?__LINE__Var@?0??get_hsi_needle_values@@YGXPAM00@Z@4JA
  001d1	83 c2 66	 add	 edx, 102		; 00000066H
  001d4	52		 push	 edx
  001d5	68 00 00 00 00	 push	 OFFSET ??_C@_0EP@MNOBCBEH@c?3?2users?2nhv90?2projects?2eech?2ap@
  001da	a1 00 00 00 00	 mov	 eax, DWORD PTR ?null_entity_pointer_message@@3PBDB ; null_entity_pointer_message
  001df	50		 push	 eax
  001e0	e8 00 00 00 00	 call	 ?process_assert@@YGXPBD0H@Z ; process_assert
  001e5	c7 85 48 ff ff
	ff 00 00 00 00	 mov	 DWORD PTR tv145[ebp], 0
$LN19@get_hsi_ne:
  001ef	b9 01 00 00 00	 mov	 ecx, 1
  001f4	85 c9		 test	 ecx, ecx
  001f6	74 0c		 je	 SHORT $LN20@get_hsi_ne
  001f8	c7 85 44 ff ff
	ff 34 00 00 00	 mov	 DWORD PTR tv153[ebp], 52 ; 00000034H
  00202	eb 24		 jmp	 SHORT $LN21@get_hsi_ne
$LN20@get_hsi_ne:
  00204	8b 15 00 00 00
	00		 mov	 edx, DWORD PTR ?__LINE__Var@?0??get_hsi_needle_values@@YGXPAM00@Z@4JA
  0020a	83 c2 66	 add	 edx, 102		; 00000066H
  0020d	52		 push	 edx
  0020e	68 00 00 00 00	 push	 OFFSET ??_C@_0EP@MNOBCBEH@c?3?2users?2nhv90?2projects?2eech?2ap@
  00213	a1 00 00 00 00	 mov	 eax, DWORD PTR ?overload_invalid_float_type_message@@3PBDB ; overload_invalid_float_type_message
  00218	50		 push	 eax
  00219	e8 00 00 00 00	 call	 ?process_assert@@YGXPBD0H@Z ; process_assert
  0021e	c7 85 44 ff ff
	ff 00 00 00 00	 mov	 DWORD PTR tv153[ebp], 0
$LN21@get_hsi_ne:
  00228	6a 34		 push	 52			; 00000034H
  0022a	8b 4d d0	 mov	 ecx, DWORD PTR _en$[ebp]
  0022d	51		 push	 ecx
  0022e	69 95 48 ff ff
	ff bc 02 00 00	 imul	 edx, DWORD PTR tv145[ebp], 700
  00238	8b 85 44 ff ff
	ff		 mov	 eax, DWORD PTR tv153[ebp]
  0023e	8b 8c 82 00 00
	00 00		 mov	 ecx, DWORD PTR ?fn_get_local_entity_float_value@@3PAY0KP@P6GMPAUENTITY@@W4FLOAT_TYPES@@@ZA[edx+eax*4]
  00245	ff d1		 call	 ecx
  00247	d9 5d e8	 fstp	 DWORD PTR _heading$[ebp]

; 414  : 
; 415  : 				en_position = get_local_entity_vec3d_ptr (en, VEC3D_TYPE_POSITION);

  0024a	83 7d d0 00	 cmp	 DWORD PTR _en$[ebp], 0
  0024e	74 0d		 je	 SHORT $LN22@get_hsi_ne
  00250	8b 45 d0	 mov	 eax, DWORD PTR _en$[ebp]
  00253	8b 08		 mov	 ecx, DWORD PTR [eax]
  00255	89 8d 48 ff ff
	ff		 mov	 DWORD PTR tv165[ebp], ecx
  0025b	eb 24		 jmp	 SHORT $LN23@get_hsi_ne
$LN22@get_hsi_ne:
  0025d	8b 15 00 00 00
	00		 mov	 edx, DWORD PTR ?__LINE__Var@?0??get_hsi_needle_values@@YGXPAM00@Z@4JA
  00263	83 c2 68	 add	 edx, 104		; 00000068H
  00266	52		 push	 edx
  00267	68 00 00 00 00	 push	 OFFSET ??_C@_0EP@MNOBCBEH@c?3?2users?2nhv90?2projects?2eech?2ap@
  0026c	a1 00 00 00 00	 mov	 eax, DWORD PTR ?null_entity_pointer_message@@3PBDB ; null_entity_pointer_message
  00271	50		 push	 eax
  00272	e8 00 00 00 00	 call	 ?process_assert@@YGXPBD0H@Z ; process_assert
  00277	c7 85 48 ff ff
	ff 00 00 00 00	 mov	 DWORD PTR tv165[ebp], 0
$LN23@get_hsi_ne:
  00281	b9 01 00 00 00	 mov	 ecx, 1
  00286	85 c9		 test	 ecx, ecx
  00288	74 0c		 je	 SHORT $LN24@get_hsi_ne
  0028a	c7 85 44 ff ff
	ff 08 00 00 00	 mov	 DWORD PTR tv173[ebp], 8
  00294	eb 24		 jmp	 SHORT $LN25@get_hsi_ne
$LN24@get_hsi_ne:
  00296	8b 15 00 00 00
	00		 mov	 edx, DWORD PTR ?__LINE__Var@?0??get_hsi_needle_values@@YGXPAM00@Z@4JA
  0029c	83 c2 68	 add	 edx, 104		; 00000068H
  0029f	52		 push	 edx
  002a0	68 00 00 00 00	 push	 OFFSET ??_C@_0EP@MNOBCBEH@c?3?2users?2nhv90?2projects?2eech?2ap@
  002a5	a1 00 00 00 00	 mov	 eax, DWORD PTR ?overload_invalid_vec3d_type_message@@3PBDB ; overload_invalid_vec3d_type_message
  002aa	50		 push	 eax
  002ab	e8 00 00 00 00	 call	 ?process_assert@@YGXPBD0H@Z ; process_assert
  002b0	c7 85 44 ff ff
	ff 00 00 00 00	 mov	 DWORD PTR tv173[ebp], 0
$LN25@get_hsi_ne:
  002ba	6a 08		 push	 8
  002bc	8b 4d d0	 mov	 ecx, DWORD PTR _en$[ebp]
  002bf	51		 push	 ecx
  002c0	6b 95 48 ff ff
	ff 60		 imul	 edx, DWORD PTR tv165[ebp], 96
  002c7	8b 85 44 ff ff
	ff		 mov	 eax, DWORD PTR tv173[ebp]
  002cd	8b 8c 82 00 00
	00 00		 mov	 ecx, DWORD PTR ?fn_get_local_entity_vec3d_ptr@@3PAY0BI@P6GPAUVEC3D@@PAUENTITY@@W4VEC3D_TYPES@@@ZA[edx+eax*4]
  002d4	ff d1		 call	 ecx
  002d6	89 45 b4	 mov	 DWORD PTR _en_position$[ebp], eax

; 416  : 
; 417  : 				get_waypoint_display_position (en, wp, &wp_position);

  002d9	8d 45 a8	 lea	 eax, DWORD PTR _wp_position$[ebp]
  002dc	50		 push	 eax
  002dd	8b 4d cc	 mov	 ecx, DWORD PTR _wp$[ebp]
  002e0	51		 push	 ecx
  002e1	8b 55 d0	 mov	 edx, DWORD PTR _en$[ebp]
  002e4	52		 push	 edx
  002e5	e8 00 00 00 00	 call	 ?get_waypoint_display_position@@YGXPAUENTITY@@0PAUVEC3D@@@Z ; get_waypoint_display_position

; 418  : 
; 419  : 				dx = wp_position.x - en_position->x;

  002ea	8b 45 b4	 mov	 eax, DWORD PTR _en_position$[ebp]
  002ed	f3 0f 10 45 a8	 movss	 xmm0, DWORD PTR _wp_position$[ebp]
  002f2	f3 0f 5c 00	 subss	 xmm0, DWORD PTR [eax]
  002f6	f3 0f 11 45 f0	 movss	 DWORD PTR _dx$[ebp], xmm0

; 420  : 				dz = wp_position.z - en_position->z;

  002fb	8b 45 b4	 mov	 eax, DWORD PTR _en_position$[ebp]
  002fe	f3 0f 10 45 b0	 movss	 xmm0, DWORD PTR _wp_position$[ebp+8]
  00303	f3 0f 5c 40 08	 subss	 xmm0, DWORD PTR [eax+8]
  00308	f3 0f 11 45 ec	 movss	 DWORD PTR _dz$[ebp], xmm0

; 421  : 
; 422  : 				bearing = atan2 (dx, dz);

  0030d	51		 push	 ecx
  0030e	f3 0f 10 45 ec	 movss	 xmm0, DWORD PTR _dz$[ebp]
  00313	f3 0f 11 04 24	 movss	 DWORD PTR [esp], xmm0
  00318	51		 push	 ecx
  00319	f3 0f 10 45 f0	 movss	 xmm0, DWORD PTR _dx$[ebp]
  0031e	f3 0f 11 04 24	 movss	 DWORD PTR [esp], xmm0
  00323	e8 00 00 00 00	 call	 ?atan2@@YGMMM@Z		; atan2
  00328	d9 5d e4	 fstp	 DWORD PTR _bearing$[ebp]

; 423  : 
; 424  : 				direction_finder_needle_value = bearing - heading;

  0032b	f3 0f 10 45 e4	 movss	 xmm0, DWORD PTR _bearing$[ebp]
  00330	f3 0f 5c 45 e8	 subss	 xmm0, DWORD PTR _heading$[ebp]
  00335	f3 0f 11 45 fc	 movss	 DWORD PTR _direction_finder_needle_value$[ebp], xmm0

; 425  : 
; 426  : 				//
; 427  : 				// flight path
; 428  : 				//
; 429  : 
; 430  : 				prev_wp = get_local_entity_prev_waypoint (en);

  0033a	8b 45 d0	 mov	 eax, DWORD PTR _en$[ebp]
  0033d	50		 push	 eax
  0033e	e8 00 00 00 00	 call	 ?get_local_entity_prev_waypoint@@YGPAUENTITY@@PAU1@@Z ; get_local_entity_prev_waypoint
  00343	89 45 c8	 mov	 DWORD PTR _prev_wp$[ebp], eax

; 431  : 
; 432  : 				if ((prev_wp) && (prev_wp != wp))

  00346	83 7d c8 00	 cmp	 DWORD PTR _prev_wp$[ebp], 0
  0034a	74 66		 je	 SHORT $LN12@get_hsi_ne
  0034c	8b 45 c8	 mov	 eax, DWORD PTR _prev_wp$[ebp]
  0034f	3b 45 cc	 cmp	 eax, DWORD PTR _wp$[ebp]
  00352	74 5e		 je	 SHORT $LN12@get_hsi_ne

; 433  : 				{
; 434  : 					get_waypoint_display_position (en, prev_wp, &prev_wp_position);

  00354	8d 45 9c	 lea	 eax, DWORD PTR _prev_wp_position$[ebp]
  00357	50		 push	 eax
  00358	8b 4d c8	 mov	 ecx, DWORD PTR _prev_wp$[ebp]
  0035b	51		 push	 ecx
  0035c	8b 55 d0	 mov	 edx, DWORD PTR _en$[ebp]
  0035f	52		 push	 edx
  00360	e8 00 00 00 00	 call	 ?get_waypoint_display_position@@YGXPAUENTITY@@0PAUVEC3D@@@Z ; get_waypoint_display_position

; 435  : 
; 436  : 					dx = wp_position.x - prev_wp_position.x;

  00365	f3 0f 10 45 a8	 movss	 xmm0, DWORD PTR _wp_position$[ebp]
  0036a	f3 0f 5c 45 9c	 subss	 xmm0, DWORD PTR _prev_wp_position$[ebp]
  0036f	f3 0f 11 45 f0	 movss	 DWORD PTR _dx$[ebp], xmm0

; 437  : 					dz = wp_position.z - prev_wp_position.z;

  00374	f3 0f 10 45 b0	 movss	 xmm0, DWORD PTR _wp_position$[ebp+8]
  00379	f3 0f 5c 45 a4	 subss	 xmm0, DWORD PTR _prev_wp_position$[ebp+8]
  0037e	f3 0f 11 45 ec	 movss	 DWORD PTR _dz$[ebp], xmm0

; 438  : 
; 439  : 					bearing = atan2 (dx, dz);

  00383	51		 push	 ecx
  00384	f3 0f 10 45 ec	 movss	 xmm0, DWORD PTR _dz$[ebp]
  00389	f3 0f 11 04 24	 movss	 DWORD PTR [esp], xmm0
  0038e	51		 push	 ecx
  0038f	f3 0f 10 45 f0	 movss	 xmm0, DWORD PTR _dx$[ebp]
  00394	f3 0f 11 04 24	 movss	 DWORD PTR [esp], xmm0
  00399	e8 00 00 00 00	 call	 ?atan2@@YGMMM@Z		; atan2
  0039e	d9 5d e4	 fstp	 DWORD PTR _bearing$[ebp]

; 440  : 
; 441  : 					flight_path_needle_value = bearing - heading;

  003a1	f3 0f 10 45 e4	 movss	 xmm0, DWORD PTR _bearing$[ebp]
  003a6	f3 0f 5c 45 e8	 subss	 xmm0, DWORD PTR _heading$[ebp]
  003ab	f3 0f 11 45 f8	 movss	 DWORD PTR _flight_path_needle_value$[ebp], xmm0

; 442  : 				}
; 443  : 				else

  003b0	eb 0a		 jmp	 SHORT $LN13@get_hsi_ne
$LN12@get_hsi_ne:

; 444  : 				{
; 445  : 					flight_path_needle_value = direction_finder_needle_value;

  003b2	f3 0f 10 45 fc	 movss	 xmm0, DWORD PTR _direction_finder_needle_value$[ebp]
  003b7	f3 0f 11 45 f8	 movss	 DWORD PTR _flight_path_needle_value$[ebp], xmm0
$LN13@get_hsi_ne:

; 446  : 				}
; 447  : 
; 448  : 				//
; 449  : 				// drift
; 450  : 				//
; 451  : 
; 452  : 				drift_needle_value = 0.0;

  003bc	0f 57 c0	 xorps	 xmm0, xmm0
  003bf	f3 0f 11 45 f4	 movss	 DWORD PTR _drift_needle_value$[ebp], xmm0

; 453  : 
; 454  : 				motion_vector = get_local_entity_vec3d_ptr (en, VEC3D_TYPE_MOTION_VECTOR);

  003c4	83 7d d0 00	 cmp	 DWORD PTR _en$[ebp], 0
  003c8	74 0d		 je	 SHORT $LN26@get_hsi_ne
  003ca	8b 45 d0	 mov	 eax, DWORD PTR _en$[ebp]
  003cd	8b 08		 mov	 ecx, DWORD PTR [eax]
  003cf	89 8d 48 ff ff
	ff		 mov	 DWORD PTR tv209[ebp], ecx
  003d5	eb 27		 jmp	 SHORT $LN27@get_hsi_ne
$LN26@get_hsi_ne:
  003d7	8b 15 00 00 00
	00		 mov	 edx, DWORD PTR ?__LINE__Var@?0??get_hsi_needle_values@@YGXPAM00@Z@4JA
  003dd	81 c2 8f 00 00
	00		 add	 edx, 143		; 0000008fH
  003e3	52		 push	 edx
  003e4	68 00 00 00 00	 push	 OFFSET ??_C@_0EP@MNOBCBEH@c?3?2users?2nhv90?2projects?2eech?2ap@
  003e9	a1 00 00 00 00	 mov	 eax, DWORD PTR ?null_entity_pointer_message@@3PBDB ; null_entity_pointer_message
  003ee	50		 push	 eax
  003ef	e8 00 00 00 00	 call	 ?process_assert@@YGXPBD0H@Z ; process_assert
  003f4	c7 85 48 ff ff
	ff 00 00 00 00	 mov	 DWORD PTR tv209[ebp], 0
$LN27@get_hsi_ne:
  003fe	b9 01 00 00 00	 mov	 ecx, 1
  00403	85 c9		 test	 ecx, ecx
  00405	74 0c		 je	 SHORT $LN28@get_hsi_ne
  00407	c7 85 44 ff ff
	ff 06 00 00 00	 mov	 DWORD PTR tv217[ebp], 6
  00411	eb 27		 jmp	 SHORT $LN29@get_hsi_ne
$LN28@get_hsi_ne:
  00413	8b 15 00 00 00
	00		 mov	 edx, DWORD PTR ?__LINE__Var@?0??get_hsi_needle_values@@YGXPAM00@Z@4JA
  00419	81 c2 8f 00 00
	00		 add	 edx, 143		; 0000008fH
  0041f	52		 push	 edx
  00420	68 00 00 00 00	 push	 OFFSET ??_C@_0EP@MNOBCBEH@c?3?2users?2nhv90?2projects?2eech?2ap@
  00425	a1 00 00 00 00	 mov	 eax, DWORD PTR ?overload_invalid_vec3d_type_message@@3PBDB ; overload_invalid_vec3d_type_message
  0042a	50		 push	 eax
  0042b	e8 00 00 00 00	 call	 ?process_assert@@YGXPBD0H@Z ; process_assert
  00430	c7 85 44 ff ff
	ff 00 00 00 00	 mov	 DWORD PTR tv217[ebp], 0
$LN29@get_hsi_ne:
  0043a	6a 06		 push	 6
  0043c	8b 4d d0	 mov	 ecx, DWORD PTR _en$[ebp]
  0043f	51		 push	 ecx
  00440	6b 95 48 ff ff
	ff 60		 imul	 edx, DWORD PTR tv209[ebp], 96
  00447	8b 85 44 ff ff
	ff		 mov	 eax, DWORD PTR tv217[ebp]
  0044d	8b 8c 82 00 00
	00 00		 mov	 ecx, DWORD PTR ?fn_get_local_entity_vec3d_ptr@@3PAY0BI@P6GPAUVEC3D@@PAUENTITY@@W4VEC3D_TYPES@@@ZA[edx+eax*4]
  00454	ff d1		 call	 ecx
  00456	89 45 c4	 mov	 DWORD PTR _motion_vector$[ebp], eax

; 455  : 
; 456  : 				v1.x = motion_vector->x;

  00459	8b 45 c4	 mov	 eax, DWORD PTR _motion_vector$[ebp]
  0045c	f3 0f 10 00	 movss	 xmm0, DWORD PTR [eax]
  00460	f3 0f 11 45 94	 movss	 DWORD PTR _v1$[ebp], xmm0

; 457  : 				v1.y = motion_vector->z;

  00465	8b 45 c4	 mov	 eax, DWORD PTR _motion_vector$[ebp]
  00468	f3 0f 10 40 08	 movss	 xmm0, DWORD PTR [eax+8]
  0046d	f3 0f 11 45 98	 movss	 DWORD PTR _v1$[ebp+4], xmm0

; 458  : 
; 459  : 				length1 = (v1.x * v1.x) + (v1.y * v1.y);

  00472	f3 0f 10 45 94	 movss	 xmm0, DWORD PTR _v1$[ebp]
  00477	f3 0f 59 45 94	 mulss	 xmm0, DWORD PTR _v1$[ebp]
  0047c	f3 0f 10 4d 98	 movss	 xmm1, DWORD PTR _v1$[ebp+4]
  00481	f3 0f 59 4d 98	 mulss	 xmm1, DWORD PTR _v1$[ebp+4]
  00486	f3 0f 58 c1	 addss	 xmm0, xmm1
  0048a	f3 0f 11 45 e0	 movss	 DWORD PTR _length1$[ebp], xmm0

; 460  : 
; 461  : 				if (length1 > 0.001)

  0048f	f3 0f 5a 45 e0	 cvtss2sd xmm0, DWORD PTR _length1$[ebp]
  00494	66 0f 2f 05 00
	00 00 00	 comisd	 xmm0, QWORD PTR __real@3f50624dd2f1a9fc
  0049c	0f 86 24 01 00
	00		 jbe	 $LN16@get_hsi_ne

; 462  : 				{
; 463  : 					length1 = sqrt (length1);

  004a2	51		 push	 ecx
  004a3	f3 0f 10 45 e0	 movss	 xmm0, DWORD PTR _length1$[ebp]
  004a8	f3 0f 11 04 24	 movss	 DWORD PTR [esp], xmm0
  004ad	e8 00 00 00 00	 call	 ?sqrt@@YGMM@Z		; sqrt
  004b2	d9 5d e0	 fstp	 DWORD PTR _length1$[ebp]

; 464  : 
; 465  : 					v1.x /= length1;

  004b5	f3 0f 10 45 94	 movss	 xmm0, DWORD PTR _v1$[ebp]
  004ba	f3 0f 5e 45 e0	 divss	 xmm0, DWORD PTR _length1$[ebp]
  004bf	f3 0f 11 45 94	 movss	 DWORD PTR _v1$[ebp], xmm0

; 466  : 					v1.y /= length1;

  004c4	f3 0f 10 45 98	 movss	 xmm0, DWORD PTR _v1$[ebp+4]
  004c9	f3 0f 5e 45 e0	 divss	 xmm0, DWORD PTR _length1$[ebp]
  004ce	f3 0f 11 45 98	 movss	 DWORD PTR _v1$[ebp+4], xmm0

; 467  : 
; 468  : 					get_session_wind_velocity_at_point (en_position, &wind_vector);

  004d3	8d 45 b8	 lea	 eax, DWORD PTR _wind_vector$[ebp]
  004d6	50		 push	 eax
  004d7	8b 4d b4	 mov	 ecx, DWORD PTR _en_position$[ebp]
  004da	51		 push	 ecx
  004db	e8 00 00 00 00	 call	 ?get_session_wind_velocity_at_point@@YGMPAUVEC3D@@0@Z ; get_session_wind_velocity_at_point
  004e0	dd d8		 fstp	 ST(0)

; 469  : 
; 470  : 					v2.x = motion_vector->x + wind_vector.x;

  004e2	8b 45 c4	 mov	 eax, DWORD PTR _motion_vector$[ebp]
  004e5	f3 0f 10 00	 movss	 xmm0, DWORD PTR [eax]
  004e9	f3 0f 58 45 b8	 addss	 xmm0, DWORD PTR _wind_vector$[ebp]
  004ee	f3 0f 11 45 8c	 movss	 DWORD PTR _v2$[ebp], xmm0

; 471  : 					v2.y = motion_vector->z + wind_vector.z;

  004f3	8b 45 c4	 mov	 eax, DWORD PTR _motion_vector$[ebp]
  004f6	f3 0f 10 40 08	 movss	 xmm0, DWORD PTR [eax+8]
  004fb	f3 0f 58 45 c0	 addss	 xmm0, DWORD PTR _wind_vector$[ebp+8]
  00500	f3 0f 11 45 90	 movss	 DWORD PTR _v2$[ebp+4], xmm0

; 472  : 
; 473  : 					length2 = (v2.x * v2.x) + (v2.y * v2.y);

  00505	f3 0f 10 45 8c	 movss	 xmm0, DWORD PTR _v2$[ebp]
  0050a	f3 0f 59 45 8c	 mulss	 xmm0, DWORD PTR _v2$[ebp]
  0050f	f3 0f 10 4d 90	 movss	 xmm1, DWORD PTR _v2$[ebp+4]
  00514	f3 0f 59 4d 90	 mulss	 xmm1, DWORD PTR _v2$[ebp+4]
  00519	f3 0f 58 c1	 addss	 xmm0, xmm1
  0051d	f3 0f 11 45 dc	 movss	 DWORD PTR _length2$[ebp], xmm0

; 474  : 
; 475  : 					if (length2 > 0.001)

  00522	f3 0f 5a 45 dc	 cvtss2sd xmm0, DWORD PTR _length2$[ebp]
  00527	66 0f 2f 05 00
	00 00 00	 comisd	 xmm0, QWORD PTR __real@3f50624dd2f1a9fc
  0052f	0f 86 91 00 00
	00		 jbe	 $LN16@get_hsi_ne

; 476  : 					{
; 477  : 						length2 = sqrt (length2);

  00535	51		 push	 ecx
  00536	f3 0f 10 45 dc	 movss	 xmm0, DWORD PTR _length2$[ebp]
  0053b	f3 0f 11 04 24	 movss	 DWORD PTR [esp], xmm0
  00540	e8 00 00 00 00	 call	 ?sqrt@@YGMM@Z		; sqrt
  00545	d9 5d dc	 fstp	 DWORD PTR _length2$[ebp]

; 478  : 
; 479  : 						v2.x /= length2;

  00548	f3 0f 10 45 8c	 movss	 xmm0, DWORD PTR _v2$[ebp]
  0054d	f3 0f 5e 45 dc	 divss	 xmm0, DWORD PTR _length2$[ebp]
  00552	f3 0f 11 45 8c	 movss	 DWORD PTR _v2$[ebp], xmm0

; 480  : 						v2.y /= length2;

  00557	f3 0f 10 45 90	 movss	 xmm0, DWORD PTR _v2$[ebp+4]
  0055c	f3 0f 5e 45 dc	 divss	 xmm0, DWORD PTR _length2$[ebp]
  00561	f3 0f 11 45 90	 movss	 DWORD PTR _v2$[ebp+4], xmm0

; 481  : 
; 482  : 						dot_product = get_2d_unit_vector_dot_product (&v1, &v2);

  00566	8d 45 8c	 lea	 eax, DWORD PTR _v2$[ebp]
  00569	50		 push	 eax
  0056a	8d 4d 94	 lea	 ecx, DWORD PTR _v1$[ebp]
  0056d	51		 push	 ecx
  0056e	e8 00 00 00 00	 call	 ?get_2d_unit_vector_dot_product@@YGMPBUVEC2D@@0@Z ; get_2d_unit_vector_dot_product
  00573	d9 5d d8	 fstp	 DWORD PTR _dot_product$[ebp]

; 483  : 
; 484  : 						drift_needle_value = acos (dot_product);

  00576	51		 push	 ecx
  00577	f3 0f 10 45 d8	 movss	 xmm0, DWORD PTR _dot_product$[ebp]
  0057c	f3 0f 11 04 24	 movss	 DWORD PTR [esp], xmm0
  00581	e8 00 00 00 00	 call	 ?acos@@YGMM@Z		; acos
  00586	d9 5d f4	 fstp	 DWORD PTR _drift_needle_value$[ebp]

; 485  : 
; 486  : 						cross_product = (v1.x * v2.y) - (v2.x * v1.y);

  00589	f3 0f 10 45 94	 movss	 xmm0, DWORD PTR _v1$[ebp]
  0058e	f3 0f 59 45 90	 mulss	 xmm0, DWORD PTR _v2$[ebp+4]
  00593	f3 0f 10 4d 8c	 movss	 xmm1, DWORD PTR _v2$[ebp]
  00598	f3 0f 59 4d 98	 mulss	 xmm1, DWORD PTR _v1$[ebp+4]
  0059d	f3 0f 5c c1	 subss	 xmm0, xmm1
  005a1	f3 0f 11 45 d4	 movss	 DWORD PTR _cross_product$[ebp], xmm0

; 487  : 
; 488  : 						if (cross_product > 0.0)

  005a6	f3 0f 5a 45 d4	 cvtss2sd xmm0, DWORD PTR _cross_product$[ebp]
  005ab	66 0f 2f 05 00
	00 00 00	 comisd	 xmm0, QWORD PTR __real@0000000000000000
  005b3	76 11		 jbe	 SHORT $LN16@get_hsi_ne

; 489  : 						{
; 490  : 							drift_needle_value = -drift_needle_value;

  005b5	f3 0f 10 45 f4	 movss	 xmm0, DWORD PTR _drift_needle_value$[ebp]
  005ba	0f 57 05 00 00
	00 00		 xorps	 xmm0, DWORD PTR __xmm@80000000800000008000000080000000
  005c1	f3 0f 11 45 f4	 movss	 DWORD PTR _drift_needle_value$[ebp], xmm0
$LN16@get_hsi_ne:

; 491  : 						}
; 492  : 					}
; 493  : 				}
; 494  : 			}
; 495  : 		}
; 496  : 	}
; 497  : 
; 498  : 	drift_needle_value = bound (drift_needle_value, rad (-30.0), rad (30.0));

  005c6	f3 0f 5a 45 f4	 cvtss2sd xmm0, DWORD PTR _drift_needle_value$[ebp]
  005cb	f2 0f 10 0d 00
	00 00 00	 movsd	 xmm1, QWORD PTR __real@bfe0c15236000000
  005d3	66 0f 2f c8	 comisd	 xmm1, xmm0
  005d7	76 12		 jbe	 SHORT $LN32@get_hsi_ne
  005d9	f2 0f 10 05 00
	00 00 00	 movsd	 xmm0, QWORD PTR __real@bfe0c15236000000
  005e1	f2 0f 11 85 44
	ff ff ff	 movsd	 QWORD PTR tv298[ebp], xmm0
  005e9	eb 3e		 jmp	 SHORT $LN33@get_hsi_ne
$LN32@get_hsi_ne:
  005eb	f3 0f 5a 45 f4	 cvtss2sd xmm0, DWORD PTR _drift_needle_value$[ebp]
  005f0	66 0f 2f 05 00
	00 00 00	 comisd	 xmm0, QWORD PTR __real@3fe0c15236000000
  005f8	76 12		 jbe	 SHORT $LN30@get_hsi_ne
  005fa	f2 0f 10 05 00
	00 00 00	 movsd	 xmm0, QWORD PTR __real@3fe0c15236000000
  00602	f2 0f 11 85 3c
	ff ff ff	 movsd	 QWORD PTR tv297[ebp], xmm0
  0060a	eb 0d		 jmp	 SHORT $LN31@get_hsi_ne
$LN30@get_hsi_ne:
  0060c	f3 0f 5a 45 f4	 cvtss2sd xmm0, DWORD PTR _drift_needle_value$[ebp]
  00611	f2 0f 11 85 3c
	ff ff ff	 movsd	 QWORD PTR tv297[ebp], xmm0
$LN31@get_hsi_ne:
  00619	f2 0f 10 85 3c
	ff ff ff	 movsd	 xmm0, QWORD PTR tv297[ebp]
  00621	f2 0f 11 85 44
	ff ff ff	 movsd	 QWORD PTR tv298[ebp], xmm0
$LN33@get_hsi_ne:
  00629	f2 0f 5a 85 44
	ff ff ff	 cvtsd2ss xmm0, QWORD PTR tv298[ebp]
  00631	f3 0f 11 45 f4	 movss	 DWORD PTR _drift_needle_value$[ebp], xmm0

; 499  : 
; 500  : 	*direction_finder = direction_finder_needle_value;

  00636	8b 45 08	 mov	 eax, DWORD PTR _direction_finder$[ebp]
  00639	f3 0f 10 45 fc	 movss	 xmm0, DWORD PTR _direction_finder_needle_value$[ebp]
  0063e	f3 0f 11 00	 movss	 DWORD PTR [eax], xmm0

; 501  : 
; 502  : 	*flight_path = flight_path_needle_value;

  00642	8b 45 0c	 mov	 eax, DWORD PTR _flight_path$[ebp]
  00645	f3 0f 10 45 f8	 movss	 xmm0, DWORD PTR _flight_path_needle_value$[ebp]
  0064a	f3 0f 11 00	 movss	 DWORD PTR [eax], xmm0

; 503  : 
; 504  : 	*drift = drift_needle_value;

  0064e	8b 45 10	 mov	 eax, DWORD PTR _drift$[ebp]
  00651	f3 0f 10 45 f4	 movss	 xmm0, DWORD PTR _drift_needle_value$[ebp]
  00656	f3 0f 11 00	 movss	 DWORD PTR [eax], xmm0

; 505  : }

  0065a	5f		 pop	 edi
  0065b	5e		 pop	 esi
  0065c	5b		 pop	 ebx
  0065d	8b e5		 mov	 esp, ebp
  0065f	5d		 pop	 ebp
  00660	c2 0c 00	 ret	 12			; 0000000cH
?get_hsi_needle_values@@YGXPAM00@Z ENDP			; get_hsi_needle_values
_TEXT	ENDS
; Function compile flags: /Odtp /ZI
; File c:\users\nhv90\projects\eech\aphavoc\source\gunships\cockpits\havoc\ha_instr.c
;	COMDAT ?draw_havoc_virtual_cockpit_instruments_on_texture@@YGXXZ
_TEXT	SEGMENT
tv3288 = -160						; size = 8
tv1020 = -160						; size = 8
tv1006 = -160						; size = 8
tv998 = -160						; size = 8
tv968 = -160						; size = 8
tv954 = -160						; size = 8
tv946 = -160						; size = 8
tv915 = -160						; size = 8
tv901 = -160						; size = 8
tv887 = -160						; size = 8
tv879 = -160						; size = 8
tv848 = -160						; size = 8
tv834 = -160						; size = 8
tv820 = -160						; size = 8
tv812 = -160						; size = 8
tv783 = -160						; size = 8
tv754 = -160						; size = 8
tv659 = -160						; size = 8
tv621 = -160						; size = 8
tv451 = -160						; size = 8
tv410 = -160						; size = 8
tv369 = -160						; size = 8
tv331 = -160						; size = 8
tv292 = -160						; size = 8
tv187 = -160						; size = 8
tv83 = -156						; size = 4
tv3289 = -152						; size = 8
tv3184 = -152						; size = 4
tv1021 = -152						; size = 8
tv1007 = -152						; size = 8
tv999 = -152						; size = 8
tv969 = -152						; size = 8
tv955 = -152						; size = 8
tv947 = -152						; size = 8
tv916 = -152						; size = 8
tv902 = -152						; size = 8
tv888 = -152						; size = 8
tv880 = -152						; size = 8
tv849 = -152						; size = 8
tv835 = -152						; size = 8
tv821 = -152						; size = 8
tv813 = -152						; size = 8
tv784 = -152						; size = 8
tv755 = -152						; size = 8
tv660 = -152						; size = 8
tv622 = -152						; size = 8
tv452 = -152						; size = 8
tv411 = -152						; size = 8
tv370 = -152						; size = 8
tv332 = -152						; size = 8
tv293 = -152						; size = 8
tv188 = -152						; size = 8
tv77 = -152						; size = 4
tv4826 = -148						; size = 4
tv4819 = -148						; size = 4
tv4812 = -148						; size = 4
tv4805 = -148						; size = 4
tv4777 = -148						; size = 4
tv4770 = -148						; size = 4
tv4748 = -148						; size = 4
tv4741 = -148						; size = 4
tv4719 = -148						; size = 4
tv4712 = -148						; size = 4
tv3870 = -148						; size = 4
tv3863 = -148						; size = 4
tv3834 = -148						; size = 4
tv3827 = -148						; size = 4
tv3755 = -148						; size = 4
tv3748 = -148						; size = 4
tv3720 = -148						; size = 4
tv3713 = -148						; size = 4
tv3685 = -148						; size = 4
tv3678 = -148						; size = 4
tv3650 = -148						; size = 4
tv3643 = -148						; size = 4
tv3615 = -148						; size = 4
tv3608 = -148						; size = 4
tv3580 = -148						; size = 4
tv3573 = -148						; size = 4
tv3544 = -148						; size = 4
tv3537 = -148						; size = 4
tv3508 = -148						; size = 4
tv3501 = -148						; size = 4
tv3176 = -148						; size = 4
tv70 = -148						; size = 4
_upper_value$1 = -80					; size = 4
_middle_value$2 = -76					; size = 4
_lower_value$3 = -72					; size = 4
_height$4 = -68						; size = 4
_width$5 = -64						; size = 4
_mask_data$ = -60					; size = 4
_sprite_data$ = -56					; size = 4
_base_cockpit_graphics_file$ = -52			; size = 4
_dot_y$ = -48						; size = 4
_dot_x$ = -44						; size = 4
_centre_y$ = -40					; size = 4
_centre_x$ = -36					; size = 4
_second_hand_value$ = -32				; size = 4
_minute_hand_value$ = -28				; size = 4
_hour_hand_value$ = -24					; size = 4
_value$ = -20						; size = 4
_height$ = -16						; size = 4
_width$ = -12						; size = 4
_tg$ = -8						; size = 4
_texture$ = -4						; size = 4
?draw_havoc_virtual_cockpit_instruments_on_texture@@YGXXZ PROC ; draw_havoc_virtual_cockpit_instruments_on_texture, COMDAT

; 2245 : {

  00000	55		 push	 ebp
  00001	8b ec		 mov	 ebp, esp
  00003	81 ec a0 00 00
	00		 sub	 esp, 160		; 000000a0H
  00009	53		 push	 ebx
  0000a	56		 push	 esi
  0000b	57		 push	 edi

; 2246 : 	int
; 2247 : 		texture;
; 2248 : 	int
; 2249 : 		tg;
; 2250 : 	float
; 2251 : 		width,
; 2252 : 		height,
; 2253 : 		value,
; 2254 : 		hour_hand_value,
; 2255 : 		minute_hand_value,
; 2256 : 		second_hand_value,
; 2257 : 		centre_x,
; 2258 : 		centre_y,
; 2259 : 		dot_x,
; 2260 : 		dot_y;
; 2261 : 	graphics_file_specifiers
; 2262 : 		base_cockpit_graphics_file;
; 2263 : 	unsigned char
; 2264 : 		*sprite_data,
; 2265 : 		*mask_data;
; 2266 : 	extern havoc_lamp_flags
; 2267 : 		havoc_lamps;
; 2268 : 
; 2269 : 	//VJ 051221 included check for presense EEAH sprite 
; 2270 : 	if (get_global_apache_havoc_installed())

  0000c	83 3d 60 03 00
	00 00		 cmp	 DWORD PTR ?global_options@@3UGLOBAL_OPTIONS_DATA@@A+864, 0
  00013	0f 84 b1 59 00
	00		 je	 $LN7@draw_havoc

; 2271 : 	{
; 2272 : 
; 2273 : 		set_havoc_instrument_colours ();

  00019	e8 00 00 00 00	 call	 ?set_havoc_instrument_colours@@YGXXZ ; set_havoc_instrument_colours

; 2274 : 	
; 2275 : 		switch (get_local_entity_int_value (get_session_entity (), INT_TYPE_DAY_SEGMENT_TYPE))

  0001e	83 3d 00 00 00
	00 00		 cmp	 DWORD PTR ?session_entity@@3PAUENTITY@@A, 0 ; session_entity
  00025	74 0f		 je	 SHORT $LN105@draw_havoc
  00027	a1 00 00 00 00	 mov	 eax, DWORD PTR ?session_entity@@3PAUENTITY@@A ; session_entity
  0002c	8b 08		 mov	 ecx, DWORD PTR [eax]
  0002e	89 8d 6c ff ff
	ff		 mov	 DWORD PTR tv70[ebp], ecx
  00034	eb 20		 jmp	 SHORT $LN106@draw_havoc
$LN105@draw_havoc:
  00036	68 e3 08 00 00	 push	 2275			; 000008e3H
  0003b	68 00 00 00 00	 push	 OFFSET ??_C@_0EP@MNOBCBEH@c?3?2users?2nhv90?2projects?2eech?2ap@
  00040	8b 15 00 00 00
	00		 mov	 edx, DWORD PTR ?null_entity_pointer_message@@3PBDB ; null_entity_pointer_message
  00046	52		 push	 edx
  00047	e8 00 00 00 00	 call	 ?process_assert@@YGXPBD0H@Z ; process_assert
  0004c	c7 85 6c ff ff
	ff 00 00 00 00	 mov	 DWORD PTR tv70[ebp], 0
$LN106@draw_havoc:
  00056	b8 01 00 00 00	 mov	 eax, 1
  0005b	85 c0		 test	 eax, eax
  0005d	74 0c		 je	 SHORT $LN107@draw_havoc
  0005f	c7 85 68 ff ff
	ff 27 00 00 00	 mov	 DWORD PTR tv77[ebp], 39	; 00000027H
  00069	eb 20		 jmp	 SHORT $LN108@draw_havoc
$LN107@draw_havoc:
  0006b	68 e3 08 00 00	 push	 2275			; 000008e3H
  00070	68 00 00 00 00	 push	 OFFSET ??_C@_0EP@MNOBCBEH@c?3?2users?2nhv90?2projects?2eech?2ap@
  00075	8b 0d 00 00 00
	00		 mov	 ecx, DWORD PTR ?overload_invalid_int_type_message@@3PBDB ; overload_invalid_int_type_message
  0007b	51		 push	 ecx
  0007c	e8 00 00 00 00	 call	 ?process_assert@@YGXPBD0H@Z ; process_assert
  00081	c7 85 68 ff ff
	ff 00 00 00 00	 mov	 DWORD PTR tv77[ebp], 0
$LN108@draw_havoc:
  0008b	6a 27		 push	 39			; 00000027H
  0008d	8b 15 00 00 00
	00		 mov	 edx, DWORD PTR ?session_entity@@3PAUENTITY@@A ; session_entity
  00093	52		 push	 edx
  00094	69 85 6c ff ff
	ff 5c 04 00 00	 imul	 eax, DWORD PTR tv70[ebp], 1116
  0009e	8b 8d 68 ff ff
	ff		 mov	 ecx, DWORD PTR tv77[ebp]
  000a4	8b 94 88 00 00
	00 00		 mov	 edx, DWORD PTR ?fn_get_local_entity_int_value@@3PAY0BBH@P6GHPAUENTITY@@W4INT_TYPES@@@ZA[eax+ecx*4]
  000ab	ff d2		 call	 edx
  000ad	89 85 64 ff ff
	ff		 mov	 DWORD PTR tv83[ebp], eax
  000b3	83 bd 64 ff ff
	ff 03		 cmp	 DWORD PTR tv83[ebp], 3
  000ba	77 4b		 ja	 SHORT $LN2@draw_havoc
  000bc	8b 85 64 ff ff
	ff		 mov	 eax, DWORD PTR tv83[ebp]
  000c2	ff 24 85 00 00
	00 00		 jmp	 DWORD PTR $LN213@draw_havoc[eax*4]
$LN8@draw_havoc:

; 2276 : 		{
; 2277 : 			case DAY_SEGMENT_TYPE_DAWN:
; 2278 : 			{
; 2279 : 				texture = 2;

  000c9	c7 45 fc 02 00
	00 00		 mov	 DWORD PTR _texture$[ebp], 2

; 2280 : 				base_cockpit_graphics_file = GRAPHICS_COCKPITS_HAVOC_LEVEL2_BASE;

  000d0	c7 45 cc e8 00
	00 00		 mov	 DWORD PTR _base_cockpit_graphics_file$[ebp], 232 ; 000000e8H

; 2281 : 				break;

  000d7	eb 2e		 jmp	 SHORT $LN2@draw_havoc
$LN9@draw_havoc:

; 2282 : 			}
; 2283 : 			case DAY_SEGMENT_TYPE_DAY:
; 2284 : 			{
; 2285 : 				texture = 0;

  000d9	c7 45 fc 00 00
	00 00		 mov	 DWORD PTR _texture$[ebp], 0

; 2286 : 				base_cockpit_graphics_file = GRAPHICS_COCKPITS_HAVOC_LEVEL1_BASE;

  000e0	c7 45 cc ba 00
	00 00		 mov	 DWORD PTR _base_cockpit_graphics_file$[ebp], 186 ; 000000baH

; 2287 : 				break;

  000e7	eb 1e		 jmp	 SHORT $LN2@draw_havoc
$LN10@draw_havoc:

; 2288 : 			}
; 2289 : 			case DAY_SEGMENT_TYPE_DUSK:
; 2290 : 			{
; 2291 : 				texture = 2;

  000e9	c7 45 fc 02 00
	00 00		 mov	 DWORD PTR _texture$[ebp], 2

; 2292 : 				base_cockpit_graphics_file = GRAPHICS_COCKPITS_HAVOC_LEVEL2_BASE;

  000f0	c7 45 cc e8 00
	00 00		 mov	 DWORD PTR _base_cockpit_graphics_file$[ebp], 232 ; 000000e8H

; 2293 : 				break;

  000f7	eb 0e		 jmp	 SHORT $LN2@draw_havoc
$LN11@draw_havoc:

; 2294 : 			}
; 2295 : 			case DAY_SEGMENT_TYPE_NIGHT:
; 2296 : 			{
; 2297 : 				texture = 1;

  000f9	c7 45 fc 01 00
	00 00		 mov	 DWORD PTR _texture$[ebp], 1

; 2298 : 				base_cockpit_graphics_file = GRAPHICS_COCKPITS_HAVOC_LEVEL3_BASE;

  00100	c7 45 cc 16 01
	00 00		 mov	 DWORD PTR _base_cockpit_graphics_file$[ebp], 278 ; 00000116H
$LN2@draw_havoc:

; 2299 : 				break;
; 2300 : 			}
; 2301 : 		}
; 2302 : 	
; 2303 : 		#if DEMO_VERSION
; 2304 : 	
; 2305 : 		texture = 0;
; 2306 : 		base_cockpit_graphics_file = GRAPHICS_COCKPITS_HAVOC_LEVEL1_BASE;
; 2307 : 	
; 2308 : 		#endif
; 2309 : 	
; 2310 : 		/* Copy original panels */
; 2311 : 		for (tg = 0; tg < TG_LAST; tg++)

  00107	c7 45 f8 00 00
	00 00		 mov	 DWORD PTR _tg$[ebp], 0
  0010e	eb 09		 jmp	 SHORT $LN6@draw_havoc
$LN4@draw_havoc:
  00110	8b 45 f8	 mov	 eax, DWORD PTR _tg$[ebp]
  00113	83 c0 01	 add	 eax, 1
  00116	89 45 f8	 mov	 DWORD PTR _tg$[ebp], eax
$LN6@draw_havoc:
  00119	83 7d f8 05	 cmp	 DWORD PTR _tg$[ebp], 5
  0011d	7d 6f		 jge	 SHORT $LN5@draw_havoc

; 2312 : 		{
; 2313 : 			register int
; 2314 : 				width = texture_width[tg][texture],

  0011f	6b 45 f8 0c	 imul	 eax, DWORD PTR _tg$[ebp], 12
  00123	8b 4d fc	 mov	 ecx, DWORD PTR _texture$[ebp]
  00126	f3 0f 2c 94 88
	00 00 00 00	 cvttss2si edx, DWORD PTR ?texture_width@@3PAY02MA[eax+ecx*4]
  0012f	89 55 c0	 mov	 DWORD PTR _width$5[ebp], edx

; 2315 : 				height = texture_height[tg][texture];

  00132	6b 45 f8 0c	 imul	 eax, DWORD PTR _tg$[ebp], 12
  00136	8b 4d fc	 mov	 ecx, DWORD PTR _texture$[ebp]
  00139	f3 0f 2c 94 88
	00 00 00 00	 cvttss2si edx, DWORD PTR ?texture_height@@3PAY02MA[eax+ecx*4]
  00142	89 55 bc	 mov	 DWORD PTR _height$4[ebp], edx

; 2316 : 			blit_screens (old_texture_screen[tg][texture], texture_screen[tg][texture], 0, 0, width - 1, height - 1, 0, 0, width - 1, height - 1);

  00145	8b 45 bc	 mov	 eax, DWORD PTR _height$4[ebp]
  00148	83 e8 01	 sub	 eax, 1
  0014b	50		 push	 eax
  0014c	8b 4d c0	 mov	 ecx, DWORD PTR _width$5[ebp]
  0014f	83 e9 01	 sub	 ecx, 1
  00152	51		 push	 ecx
  00153	6a 00		 push	 0
  00155	6a 00		 push	 0
  00157	8b 55 bc	 mov	 edx, DWORD PTR _height$4[ebp]
  0015a	83 ea 01	 sub	 edx, 1
  0015d	52		 push	 edx
  0015e	8b 45 c0	 mov	 eax, DWORD PTR _width$5[ebp]
  00161	83 e8 01	 sub	 eax, 1
  00164	50		 push	 eax
  00165	6a 00		 push	 0
  00167	6a 00		 push	 0
  00169	6b 4d f8 0c	 imul	 ecx, DWORD PTR _tg$[ebp], 12
  0016d	8b 55 fc	 mov	 edx, DWORD PTR _texture$[ebp]
  00170	8b 84 91 00 00
	00 00		 mov	 eax, DWORD PTR ?texture_screen@@3PAY02PAUSCREEN@@A[ecx+edx*4]
  00177	50		 push	 eax
  00178	6b 4d f8 0c	 imul	 ecx, DWORD PTR _tg$[ebp], 12
  0017c	8b 55 fc	 mov	 edx, DWORD PTR _texture$[ebp]
  0017f	8b 84 91 00 00
	00 00		 mov	 eax, DWORD PTR ?old_texture_screen@@3PAY02PAUSCREEN@@A[ecx+edx*4]
  00186	50		 push	 eax
  00187	e8 00 00 00 00	 call	 ?blit_screens@@YGXPAUSCREEN@@0HHHHHHHH@Z ; blit_screens

; 2317 : 		}

  0018c	eb 82		 jmp	 SHORT $LN4@draw_havoc
$LN5@draw_havoc:

; 2318 : 	
; 2319 : 		/* Find sprites */
; 2320 : 	
; 2321 : 		sprite_data = get_graphics_file_data (base_cockpit_graphics_file + GRAPHICS_COCKPITS_HAVOC_SPRITES);

  0018e	8b 45 cc	 mov	 eax, DWORD PTR _base_cockpit_graphics_file$[ebp]
  00191	83 c0 2b	 add	 eax, 43			; 0000002bH
  00194	6b c8 28	 imul	 ecx, eax, 40
  00197	8b 91 1c 00 00
	00		 mov	 edx, DWORD PTR ?graphics_files@@3PAUFILE_DATA@@A[ecx+28]
  0019d	89 55 c8	 mov	 DWORD PTR _sprite_data$[ebp], edx

; 2322 : 	
; 2323 : 		mask_data = get_graphics_file_data (base_cockpit_graphics_file + GRAPHICS_COCKPITS_HAVOC_SPRITES_MASK);

  001a0	8b 45 cc	 mov	 eax, DWORD PTR _base_cockpit_graphics_file$[ebp]
  001a3	83 c0 2c	 add	 eax, 44			; 0000002cH
  001a6	6b c8 28	 imul	 ecx, eax, 40
  001a9	8b 91 1c 00 00
	00		 mov	 edx, DWORD PTR ?graphics_files@@3PAUFILE_DATA@@A[ecx+28]
  001af	89 55 c4	 mov	 DWORD PTR _mask_data$[ebp], edx

; 2324 : 	
; 2325 : 		/* Draw indicators */
; 2326 : 	
; 2327 : 		/* Lower Left Panel */
; 2328 : 		width = texture_width[TG_LLHS][texture];

  001b2	b8 0c 00 00 00	 mov	 eax, 12			; 0000000cH
  001b7	6b c8 00	 imul	 ecx, eax, 0
  001ba	8b 55 fc	 mov	 edx, DWORD PTR _texture$[ebp]
  001bd	f3 0f 10 84 91
	00 00 00 00	 movss	 xmm0, DWORD PTR ?texture_width@@3PAY02MA[ecx+edx*4]
  001c6	f3 0f 11 45 f4	 movss	 DWORD PTR _width$[ebp], xmm0

; 2329 : 		height = texture_height[TG_LLHS][texture];

  001cb	b8 0c 00 00 00	 mov	 eax, 12			; 0000000cH
  001d0	6b c8 00	 imul	 ecx, eax, 0
  001d3	8b 55 fc	 mov	 edx, DWORD PTR _texture$[ebp]
  001d6	f3 0f 10 84 91
	00 00 00 00	 movss	 xmm0, DWORD PTR ?texture_height@@3PAY02MA[ecx+edx*4]
  001df	f3 0f 11 45 f0	 movss	 DWORD PTR _height$[ebp], xmm0

; 2330 : 	
; 2331 : 		if (lock_screen (texture_screen[TG_LLHS][texture]))

  001e4	b8 0c 00 00 00	 mov	 eax, 12			; 0000000cH
  001e9	6b c8 00	 imul	 ecx, eax, 0
  001ec	8b 55 fc	 mov	 edx, DWORD PTR _texture$[ebp]
  001ef	8b 84 91 00 00
	00 00		 mov	 eax, DWORD PTR ?texture_screen@@3PAY02PAUSCREEN@@A[ecx+edx*4]
  001f6	50		 push	 eax
  001f7	e8 00 00 00 00	 call	 ?lock_screen@@YGHPAUSCREEN@@@Z ; lock_screen
  001fc	85 c0		 test	 eax, eax
  001fe	0f 84 42 0f 00
	00		 je	 $LN12@draw_havoc

; 2332 : 		{
; 2333 : 			set_active_screen (texture_screen[TG_LLHS][texture]);

  00204	b8 0c 00 00 00	 mov	 eax, 12			; 0000000cH
  00209	6b c8 00	 imul	 ecx, eax, 0
  0020c	8b 55 fc	 mov	 edx, DWORD PTR _texture$[ebp]
  0020f	8b 84 91 00 00
	00 00		 mov	 eax, DWORD PTR ?texture_screen@@3PAY02PAUSCREEN@@A[ecx+edx*4]
  00216	50		 push	 eax
  00217	e8 00 00 00 00	 call	 ?set_active_screen@@YGHPAUSCREEN@@@Z ; set_active_screen

; 2334 : 	
; 2335 : 			/* Vertical speed indicator */
; 2336 : 			value = metres_per_minute (current_flight_dynamics->world_velocity_y.value);

  0021c	a1 00 00 00 00	 mov	 eax, DWORD PTR ?current_flight_dynamics@@3PAUDYNAMICS_TYPE@@A ; current_flight_dynamics
  00221	f3 0f 10 80 14
	21 00 00	 movss	 xmm0, DWORD PTR [eax+8468]
  00229	f3 0f 59 05 00
	00 00 00	 mulss	 xmm0, DWORD PTR __real@42700000
  00231	f3 0f 11 45 ec	 movss	 DWORD PTR _value$[ebp], xmm0

; 2337 : 			value = bound (value, -300.0, 300.0);

  00236	f3 0f 5a 45 ec	 cvtss2sd xmm0, DWORD PTR _value$[ebp]
  0023b	f2 0f 10 0d 00
	00 00 00	 movsd	 xmm1, QWORD PTR __real@c072c00000000000
  00243	66 0f 2f c8	 comisd	 xmm1, xmm0
  00247	76 12		 jbe	 SHORT $LN111@draw_havoc
  00249	f2 0f 10 05 00
	00 00 00	 movsd	 xmm0, QWORD PTR __real@c072c00000000000
  00251	f2 0f 11 85 68
	ff ff ff	 movsd	 QWORD PTR tv188[ebp], xmm0
  00259	eb 3e		 jmp	 SHORT $LN112@draw_havoc
$LN111@draw_havoc:
  0025b	f3 0f 5a 45 ec	 cvtss2sd xmm0, DWORD PTR _value$[ebp]
  00260	66 0f 2f 05 00
	00 00 00	 comisd	 xmm0, QWORD PTR __real@4072c00000000000
  00268	76 12		 jbe	 SHORT $LN109@draw_havoc
  0026a	f2 0f 10 05 00
	00 00 00	 movsd	 xmm0, QWORD PTR __real@4072c00000000000
  00272	f2 0f 11 85 60
	ff ff ff	 movsd	 QWORD PTR tv187[ebp], xmm0
  0027a	eb 0d		 jmp	 SHORT $LN110@draw_havoc
$LN109@draw_havoc:
  0027c	f3 0f 5a 45 ec	 cvtss2sd xmm0, DWORD PTR _value$[ebp]
  00281	f2 0f 11 85 60
	ff ff ff	 movsd	 QWORD PTR tv187[ebp], xmm0
$LN110@draw_havoc:
  00289	f2 0f 10 85 60
	ff ff ff	 movsd	 xmm0, QWORD PTR tv187[ebp]
  00291	f2 0f 11 85 68
	ff ff ff	 movsd	 QWORD PTR tv188[ebp], xmm0
$LN112@draw_havoc:
  00299	f2 0f 5a 85 68
	ff ff ff	 cvtsd2ss xmm0, QWORD PTR tv188[ebp]
  002a1	f3 0f 11 45 ec	 movss	 DWORD PTR _value$[ebp], xmm0

; 2338 : 			value *= rad (180.0) / 300.0;

  002a6	f3 0f 5a 45 ec	 cvtss2sd xmm0, DWORD PTR _value$[ebp]
  002ab	f2 0f 59 05 00
	00 00 00	 mulsd	 xmm0, QWORD PTR __real@3f857254c0000000
  002b3	f2 0f 5a c0	 cvtsd2ss xmm0, xmm0
  002b7	f3 0f 11 45 ec	 movss	 DWORD PTR _value$[ebp], xmm0

; 2339 : 		    centre_x = 251 * width / 512;

  002bc	f3 0f 10 05 00
	00 00 00	 movss	 xmm0, DWORD PTR __real@437b0000
  002c4	f3 0f 59 45 f4	 mulss	 xmm0, DWORD PTR _width$[ebp]
  002c9	f3 0f 5e 05 00
	00 00 00	 divss	 xmm0, DWORD PTR __real@44000000
  002d1	f3 0f 11 45 dc	 movss	 DWORD PTR _centre_x$[ebp], xmm0

; 2340 : 	    	centre_y = 315 * height / 512;

  002d6	f3 0f 10 05 00
	00 00 00	 movss	 xmm0, DWORD PTR __real@439d8000
  002de	f3 0f 59 45 f0	 mulss	 xmm0, DWORD PTR _height$[ebp]
  002e3	f3 0f 5e 05 00
	00 00 00	 divss	 xmm0, DWORD PTR __real@44000000
  002eb	f3 0f 11 45 d8	 movss	 DWORD PTR _centre_y$[ebp], xmm0

; 2341 : 			dot_x = centre_x - cos (value) * 40 * width / 512;

  002f0	51		 push	 ecx
  002f1	f3 0f 10 45 ec	 movss	 xmm0, DWORD PTR _value$[ebp]
  002f6	f3 0f 11 04 24	 movss	 DWORD PTR [esp], xmm0
  002fb	e8 00 00 00 00	 call	 ?cos@@YGMM@Z		; cos
  00300	d9 9d 6c ff ff
	ff		 fstp	 DWORD PTR tv3501[ebp]
  00306	f3 0f 10 85 6c
	ff ff ff	 movss	 xmm0, DWORD PTR tv3501[ebp]
  0030e	f3 0f 59 05 00
	00 00 00	 mulss	 xmm0, DWORD PTR __real@42200000
  00316	f3 0f 59 45 f4	 mulss	 xmm0, DWORD PTR _width$[ebp]
  0031b	f3 0f 5e 05 00
	00 00 00	 divss	 xmm0, DWORD PTR __real@44000000
  00323	f3 0f 10 4d dc	 movss	 xmm1, DWORD PTR _centre_x$[ebp]
  00328	f3 0f 5c c8	 subss	 xmm1, xmm0
  0032c	f3 0f 11 4d d4	 movss	 DWORD PTR _dot_x$[ebp], xmm1

; 2342 : 			dot_y = centre_y - sin (value) * 50 * height / 512;

  00331	51		 push	 ecx
  00332	f3 0f 10 45 ec	 movss	 xmm0, DWORD PTR _value$[ebp]
  00337	f3 0f 11 04 24	 movss	 DWORD PTR [esp], xmm0
  0033c	e8 00 00 00 00	 call	 ?sin@@YGMM@Z		; sin
  00341	d9 9d 6c ff ff
	ff		 fstp	 DWORD PTR tv3508[ebp]
  00347	f3 0f 10 85 6c
	ff ff ff	 movss	 xmm0, DWORD PTR tv3508[ebp]
  0034f	f3 0f 59 05 00
	00 00 00	 mulss	 xmm0, DWORD PTR __real@42480000
  00357	f3 0f 59 45 f0	 mulss	 xmm0, DWORD PTR _height$[ebp]
  0035c	f3 0f 5e 05 00
	00 00 00	 divss	 xmm0, DWORD PTR __real@44000000
  00364	f3 0f 10 4d d8	 movss	 xmm1, DWORD PTR _centre_y$[ebp]
  00369	f3 0f 5c c8	 subss	 xmm1, xmm0
  0036d	f3 0f 11 4d d0	 movss	 DWORD PTR _dot_y$[ebp], xmm1

; 2343 : 			draw_arrow (centre_x, centre_y, dot_x, dot_y, width / 128, height / 128, white_needle_colour);

  00372	a1 00 00 00 00	 mov	 eax, DWORD PTR ?white_needle_colour@@3UREAL_COLOUR@@A
  00377	50		 push	 eax
  00378	f3 0f 10 45 f0	 movss	 xmm0, DWORD PTR _height$[ebp]
  0037d	f3 0f 5e 05 00
	00 00 00	 divss	 xmm0, DWORD PTR __real@43000000
  00385	51		 push	 ecx
  00386	f3 0f 11 04 24	 movss	 DWORD PTR [esp], xmm0
  0038b	f3 0f 10 45 f4	 movss	 xmm0, DWORD PTR _width$[ebp]
  00390	f3 0f 5e 05 00
	00 00 00	 divss	 xmm0, DWORD PTR __real@43000000
  00398	51		 push	 ecx
  00399	f3 0f 11 04 24	 movss	 DWORD PTR [esp], xmm0
  0039e	51		 push	 ecx
  0039f	f3 0f 10 45 d0	 movss	 xmm0, DWORD PTR _dot_y$[ebp]
  003a4	f3 0f 11 04 24	 movss	 DWORD PTR [esp], xmm0
  003a9	51		 push	 ecx
  003aa	f3 0f 10 45 d4	 movss	 xmm0, DWORD PTR _dot_x$[ebp]
  003af	f3 0f 11 04 24	 movss	 DWORD PTR [esp], xmm0
  003b4	51		 push	 ecx
  003b5	f3 0f 10 45 d8	 movss	 xmm0, DWORD PTR _centre_y$[ebp]
  003ba	f3 0f 11 04 24	 movss	 DWORD PTR [esp], xmm0
  003bf	51		 push	 ecx
  003c0	f3 0f 10 45 dc	 movss	 xmm0, DWORD PTR _centre_x$[ebp]
  003c5	f3 0f 11 04 24	 movss	 DWORD PTR [esp], xmm0
  003ca	e8 00 00 00 00	 call	 ?draw_arrow@@YGXMMMMMMUREAL_COLOUR@@@Z ; draw_arrow

; 2344 : 	
; 2345 : 			/* Barometric altimeter long arrow */
; 2346 : 			value = fmod (current_flight_dynamics->barometric_altitude.value, 1000.0f);

  003cf	51		 push	 ecx
  003d0	f3 0f 10 05 00
	00 00 00	 movss	 xmm0, DWORD PTR __real@447a0000
  003d8	f3 0f 11 04 24	 movss	 DWORD PTR [esp], xmm0
  003dd	a1 00 00 00 00	 mov	 eax, DWORD PTR ?current_flight_dynamics@@3PAUDYNAMICS_TYPE@@A ; current_flight_dynamics
  003e2	51		 push	 ecx
  003e3	f3 0f 10 80 2c
	24 00 00	 movss	 xmm0, DWORD PTR [eax+9260]
  003eb	f3 0f 11 04 24	 movss	 DWORD PTR [esp], xmm0
  003f0	e8 00 00 00 00	 call	 ?fmod@@YGMMM@Z		; fmod
  003f5	d9 5d ec	 fstp	 DWORD PTR _value$[ebp]

; 2347 : 			value *= rad (360.0) / 1000.0;

  003f8	f3 0f 5a 45 ec	 cvtss2sd xmm0, DWORD PTR _value$[ebp]
  003fd	f2 0f 59 05 00
	00 00 00	 mulsd	 xmm0, QWORD PTR __real@3f79bc65b3333333
  00405	f2 0f 5a c0	 cvtsd2ss xmm0, xmm0
  00409	f3 0f 11 45 ec	 movss	 DWORD PTR _value$[ebp], xmm0

; 2348 : 		    centre_x = 126 * width / 512;

  0040e	f3 0f 10 05 00
	00 00 00	 movss	 xmm0, DWORD PTR __real@42fc0000
  00416	f3 0f 59 45 f4	 mulss	 xmm0, DWORD PTR _width$[ebp]
  0041b	f3 0f 5e 05 00
	00 00 00	 divss	 xmm0, DWORD PTR __real@44000000
  00423	f3 0f 11 45 dc	 movss	 DWORD PTR _centre_x$[ebp], xmm0

; 2349 : 	    	centre_y = 318 * height / 512;

  00428	f3 0f 10 05 00
	00 00 00	 movss	 xmm0, DWORD PTR __real@439f0000
  00430	f3 0f 59 45 f0	 mulss	 xmm0, DWORD PTR _height$[ebp]
  00435	f3 0f 5e 05 00
	00 00 00	 divss	 xmm0, DWORD PTR __real@44000000
  0043d	f3 0f 11 45 d8	 movss	 DWORD PTR _centre_y$[ebp], xmm0

; 2350 : 			dot_x = centre_x + sin (value) * 40 * width / 512;

  00442	51		 push	 ecx
  00443	f3 0f 10 45 ec	 movss	 xmm0, DWORD PTR _value$[ebp]
  00448	f3 0f 11 04 24	 movss	 DWORD PTR [esp], xmm0
  0044d	e8 00 00 00 00	 call	 ?sin@@YGMM@Z		; sin
  00452	d9 9d 6c ff ff
	ff		 fstp	 DWORD PTR tv3537[ebp]
  00458	f3 0f 10 85 6c
	ff ff ff	 movss	 xmm0, DWORD PTR tv3537[ebp]
  00460	f3 0f 59 05 00
	00 00 00	 mulss	 xmm0, DWORD PTR __real@42200000
  00468	f3 0f 59 45 f4	 mulss	 xmm0, DWORD PTR _width$[ebp]
  0046d	f3 0f 5e 05 00
	00 00 00	 divss	 xmm0, DWORD PTR __real@44000000
  00475	f3 0f 58 45 dc	 addss	 xmm0, DWORD PTR _centre_x$[ebp]
  0047a	f3 0f 11 45 d4	 movss	 DWORD PTR _dot_x$[ebp], xmm0

; 2351 : 			dot_y = centre_y - cos (value) * 50 * height / 512;

  0047f	51		 push	 ecx
  00480	f3 0f 10 45 ec	 movss	 xmm0, DWORD PTR _value$[ebp]
  00485	f3 0f 11 04 24	 movss	 DWORD PTR [esp], xmm0
  0048a	e8 00 00 00 00	 call	 ?cos@@YGMM@Z		; cos
  0048f	d9 9d 6c ff ff
	ff		 fstp	 DWORD PTR tv3544[ebp]
  00495	f3 0f 10 85 6c
	ff ff ff	 movss	 xmm0, DWORD PTR tv3544[ebp]
  0049d	f3 0f 59 05 00
	00 00 00	 mulss	 xmm0, DWORD PTR __real@42480000
  004a5	f3 0f 59 45 f0	 mulss	 xmm0, DWORD PTR _height$[ebp]
  004aa	f3 0f 5e 05 00
	00 00 00	 divss	 xmm0, DWORD PTR __real@44000000
  004b2	f3 0f 10 4d d8	 movss	 xmm1, DWORD PTR _centre_y$[ebp]
  004b7	f3 0f 5c c8	 subss	 xmm1, xmm0
  004bb	f3 0f 11 4d d0	 movss	 DWORD PTR _dot_y$[ebp], xmm1

; 2352 : 			draw_arrow (centre_x, centre_y, dot_x, dot_y, width / 128, height / 128, white_needle_colour);

  004c0	a1 00 00 00 00	 mov	 eax, DWORD PTR ?white_needle_colour@@3UREAL_COLOUR@@A
  004c5	50		 push	 eax
  004c6	f3 0f 10 45 f0	 movss	 xmm0, DWORD PTR _height$[ebp]
  004cb	f3 0f 5e 05 00
	00 00 00	 divss	 xmm0, DWORD PTR __real@43000000
  004d3	51		 push	 ecx
  004d4	f3 0f 11 04 24	 movss	 DWORD PTR [esp], xmm0
  004d9	f3 0f 10 45 f4	 movss	 xmm0, DWORD PTR _width$[ebp]
  004de	f3 0f 5e 05 00
	00 00 00	 divss	 xmm0, DWORD PTR __real@43000000
  004e6	51		 push	 ecx
  004e7	f3 0f 11 04 24	 movss	 DWORD PTR [esp], xmm0
  004ec	51		 push	 ecx
  004ed	f3 0f 10 45 d0	 movss	 xmm0, DWORD PTR _dot_y$[ebp]
  004f2	f3 0f 11 04 24	 movss	 DWORD PTR [esp], xmm0
  004f7	51		 push	 ecx
  004f8	f3 0f 10 45 d4	 movss	 xmm0, DWORD PTR _dot_x$[ebp]
  004fd	f3 0f 11 04 24	 movss	 DWORD PTR [esp], xmm0
  00502	51		 push	 ecx
  00503	f3 0f 10 45 d8	 movss	 xmm0, DWORD PTR _centre_y$[ebp]
  00508	f3 0f 11 04 24	 movss	 DWORD PTR [esp], xmm0
  0050d	51		 push	 ecx
  0050e	f3 0f 10 45 dc	 movss	 xmm0, DWORD PTR _centre_x$[ebp]
  00513	f3 0f 11 04 24	 movss	 DWORD PTR [esp], xmm0
  00518	e8 00 00 00 00	 call	 ?draw_arrow@@YGXMMMMMMUREAL_COLOUR@@@Z ; draw_arrow

; 2353 : 	
; 2354 : 			/* Barometric altimeter short arrow */
; 2355 : 			value = fmod (current_flight_dynamics->barometric_altitude.value, 10000.0f);

  0051d	51		 push	 ecx
  0051e	f3 0f 10 05 00
	00 00 00	 movss	 xmm0, DWORD PTR __real@461c4000
  00526	f3 0f 11 04 24	 movss	 DWORD PTR [esp], xmm0
  0052b	a1 00 00 00 00	 mov	 eax, DWORD PTR ?current_flight_dynamics@@3PAUDYNAMICS_TYPE@@A ; current_flight_dynamics
  00530	51		 push	 ecx
  00531	f3 0f 10 80 2c
	24 00 00	 movss	 xmm0, DWORD PTR [eax+9260]
  00539	f3 0f 11 04 24	 movss	 DWORD PTR [esp], xmm0
  0053e	e8 00 00 00 00	 call	 ?fmod@@YGMMM@Z		; fmod
  00543	d9 5d ec	 fstp	 DWORD PTR _value$[ebp]

; 2356 : 			value *= rad (360.0) / 10000.0;

  00546	f3 0f 5a 45 ec	 cvtss2sd xmm0, DWORD PTR _value$[ebp]
  0054b	f2 0f 59 05 00
	00 00 00	 mulsd	 xmm0, QWORD PTR __real@3f4496b7c28f5c29
  00553	f2 0f 5a c0	 cvtsd2ss xmm0, xmm0
  00557	f3 0f 11 45 ec	 movss	 DWORD PTR _value$[ebp], xmm0

; 2357 : 		    centre_x = 126 * width / 512;

  0055c	f3 0f 10 05 00
	00 00 00	 movss	 xmm0, DWORD PTR __real@42fc0000
  00564	f3 0f 59 45 f4	 mulss	 xmm0, DWORD PTR _width$[ebp]
  00569	f3 0f 5e 05 00
	00 00 00	 divss	 xmm0, DWORD PTR __real@44000000
  00571	f3 0f 11 45 dc	 movss	 DWORD PTR _centre_x$[ebp], xmm0

; 2358 : 	    	centre_y = 318 * height / 512;

  00576	f3 0f 10 05 00
	00 00 00	 movss	 xmm0, DWORD PTR __real@439f0000
  0057e	f3 0f 59 45 f0	 mulss	 xmm0, DWORD PTR _height$[ebp]
  00583	f3 0f 5e 05 00
	00 00 00	 divss	 xmm0, DWORD PTR __real@44000000
  0058b	f3 0f 11 45 d8	 movss	 DWORD PTR _centre_y$[ebp], xmm0

; 2359 : 			dot_x = centre_x + sin (value) * 20 * width / 512;

  00590	51		 push	 ecx
  00591	f3 0f 10 45 ec	 movss	 xmm0, DWORD PTR _value$[ebp]
  00596	f3 0f 11 04 24	 movss	 DWORD PTR [esp], xmm0
  0059b	e8 00 00 00 00	 call	 ?sin@@YGMM@Z		; sin
  005a0	d9 9d 6c ff ff
	ff		 fstp	 DWORD PTR tv3573[ebp]
  005a6	f3 0f 10 85 6c
	ff ff ff	 movss	 xmm0, DWORD PTR tv3573[ebp]
  005ae	f3 0f 59 05 00
	00 00 00	 mulss	 xmm0, DWORD PTR __real@41a00000
  005b6	f3 0f 59 45 f4	 mulss	 xmm0, DWORD PTR _width$[ebp]
  005bb	f3 0f 5e 05 00
	00 00 00	 divss	 xmm0, DWORD PTR __real@44000000
  005c3	f3 0f 58 45 dc	 addss	 xmm0, DWORD PTR _centre_x$[ebp]
  005c8	f3 0f 11 45 d4	 movss	 DWORD PTR _dot_x$[ebp], xmm0

; 2360 : 			dot_y = centre_y - cos (value) * 25 * height / 512;

  005cd	51		 push	 ecx
  005ce	f3 0f 10 45 ec	 movss	 xmm0, DWORD PTR _value$[ebp]
  005d3	f3 0f 11 04 24	 movss	 DWORD PTR [esp], xmm0
  005d8	e8 00 00 00 00	 call	 ?cos@@YGMM@Z		; cos
  005dd	d9 9d 6c ff ff
	ff		 fstp	 DWORD PTR tv3580[ebp]
  005e3	f3 0f 10 85 6c
	ff ff ff	 movss	 xmm0, DWORD PTR tv3580[ebp]
  005eb	f3 0f 59 05 00
	00 00 00	 mulss	 xmm0, DWORD PTR __real@41c80000
  005f3	f3 0f 59 45 f0	 mulss	 xmm0, DWORD PTR _height$[ebp]
  005f8	f3 0f 5e 05 00
	00 00 00	 divss	 xmm0, DWORD PTR __real@44000000
  00600	f3 0f 10 4d d8	 movss	 xmm1, DWORD PTR _centre_y$[ebp]
  00605	f3 0f 5c c8	 subss	 xmm1, xmm0
  00609	f3 0f 11 4d d0	 movss	 DWORD PTR _dot_y$[ebp], xmm1

; 2361 : 			draw_arrow (centre_x, centre_y, dot_x, dot_y, width / 128, height / 128, white_needle_colour);

  0060e	a1 00 00 00 00	 mov	 eax, DWORD PTR ?white_needle_colour@@3UREAL_COLOUR@@A
  00613	50		 push	 eax
  00614	f3 0f 10 45 f0	 movss	 xmm0, DWORD PTR _height$[ebp]
  00619	f3 0f 5e 05 00
	00 00 00	 divss	 xmm0, DWORD PTR __real@43000000
  00621	51		 push	 ecx
  00622	f3 0f 11 04 24	 movss	 DWORD PTR [esp], xmm0
  00627	f3 0f 10 45 f4	 movss	 xmm0, DWORD PTR _width$[ebp]
  0062c	f3 0f 5e 05 00
	00 00 00	 divss	 xmm0, DWORD PTR __real@43000000
  00634	51		 push	 ecx
  00635	f3 0f 11 04 24	 movss	 DWORD PTR [esp], xmm0
  0063a	51		 push	 ecx
  0063b	f3 0f 10 45 d0	 movss	 xmm0, DWORD PTR _dot_y$[ebp]
  00640	f3 0f 11 04 24	 movss	 DWORD PTR [esp], xmm0
  00645	51		 push	 ecx
  00646	f3 0f 10 45 d4	 movss	 xmm0, DWORD PTR _dot_x$[ebp]
  0064b	f3 0f 11 04 24	 movss	 DWORD PTR [esp], xmm0
  00650	51		 push	 ecx
  00651	f3 0f 10 45 d8	 movss	 xmm0, DWORD PTR _centre_y$[ebp]
  00656	f3 0f 11 04 24	 movss	 DWORD PTR [esp], xmm0
  0065b	51		 push	 ecx
  0065c	f3 0f 10 45 dc	 movss	 xmm0, DWORD PTR _centre_x$[ebp]
  00661	f3 0f 11 04 24	 movss	 DWORD PTR [esp], xmm0
  00666	e8 00 00 00 00	 call	 ?draw_arrow@@YGXMMMMMMUREAL_COLOUR@@@Z ; draw_arrow

; 2362 : 	
; 2363 : 			/* Airspeed */
; 2364 : 			value = kilometres_per_hour (current_flight_dynamics->indicated_airspeed.value);

  0066b	a1 00 00 00 00	 mov	 eax, DWORD PTR ?current_flight_dynamics@@3PAUDYNAMICS_TYPE@@A ; current_flight_dynamics
  00670	f3 0f 10 80 fc
	23 00 00	 movss	 xmm0, DWORD PTR [eax+9212]
  00678	f3 0f 59 05 00
	00 00 00	 mulss	 xmm0, DWORD PTR __real@40666666
  00680	f3 0f 11 45 ec	 movss	 DWORD PTR _value$[ebp], xmm0

; 2365 : 			value = bound (value, -50.0, 450.0);

  00685	f3 0f 5a 45 ec	 cvtss2sd xmm0, DWORD PTR _value$[ebp]
  0068a	f2 0f 10 0d 00
	00 00 00	 movsd	 xmm1, QWORD PTR __real@c049000000000000
  00692	66 0f 2f c8	 comisd	 xmm1, xmm0
  00696	76 12		 jbe	 SHORT $LN115@draw_havoc
  00698	f2 0f 10 05 00
	00 00 00	 movsd	 xmm0, QWORD PTR __real@c049000000000000
  006a0	f2 0f 11 85 68
	ff ff ff	 movsd	 QWORD PTR tv293[ebp], xmm0
  006a8	eb 3e		 jmp	 SHORT $LN116@draw_havoc
$LN115@draw_havoc:
  006aa	f3 0f 5a 45 ec	 cvtss2sd xmm0, DWORD PTR _value$[ebp]
  006af	66 0f 2f 05 00
	00 00 00	 comisd	 xmm0, QWORD PTR __real@407c200000000000
  006b7	76 12		 jbe	 SHORT $LN113@draw_havoc
  006b9	f2 0f 10 05 00
	00 00 00	 movsd	 xmm0, QWORD PTR __real@407c200000000000
  006c1	f2 0f 11 85 60
	ff ff ff	 movsd	 QWORD PTR tv292[ebp], xmm0
  006c9	eb 0d		 jmp	 SHORT $LN114@draw_havoc
$LN113@draw_havoc:
  006cb	f3 0f 5a 45 ec	 cvtss2sd xmm0, DWORD PTR _value$[ebp]
  006d0	f2 0f 11 85 60
	ff ff ff	 movsd	 QWORD PTR tv292[ebp], xmm0
$LN114@draw_havoc:
  006d8	f2 0f 10 85 60
	ff ff ff	 movsd	 xmm0, QWORD PTR tv292[ebp]
  006e0	f2 0f 11 85 68
	ff ff ff	 movsd	 QWORD PTR tv293[ebp], xmm0
$LN116@draw_havoc:
  006e8	f2 0f 5a 85 68
	ff ff ff	 cvtsd2ss xmm0, QWORD PTR tv293[ebp]
  006f0	f3 0f 11 45 ec	 movss	 DWORD PTR _value$[ebp], xmm0

; 2366 : 			value *= rad (180.0) / 400.0;

  006f5	f3 0f 5a 45 ec	 cvtss2sd xmm0, DWORD PTR _value$[ebp]
  006fa	f2 0f 59 05 00
	00 00 00	 mulsd	 xmm0, QWORD PTR __real@3f8015bf90000000
  00702	f2 0f 5a c0	 cvtsd2ss xmm0, xmm0
  00706	f3 0f 11 45 ec	 movss	 DWORD PTR _value$[ebp], xmm0

; 2367 : 		    centre_x = 282 * width / 512;

  0070b	f3 0f 10 05 00
	00 00 00	 movss	 xmm0, DWORD PTR __real@438d0000
  00713	f3 0f 59 45 f4	 mulss	 xmm0, DWORD PTR _width$[ebp]
  00718	f3 0f 5e 05 00
	00 00 00	 divss	 xmm0, DWORD PTR __real@44000000
  00720	f3 0f 11 45 dc	 movss	 DWORD PTR _centre_x$[ebp], xmm0

; 2368 : 	    	centre_y = 146 * height / 512;

  00725	f3 0f 10 05 00
	00 00 00	 movss	 xmm0, DWORD PTR __real@43120000
  0072d	f3 0f 59 45 f0	 mulss	 xmm0, DWORD PTR _height$[ebp]
  00732	f3 0f 5e 05 00
	00 00 00	 divss	 xmm0, DWORD PTR __real@44000000
  0073a	f3 0f 11 45 d8	 movss	 DWORD PTR _centre_y$[ebp], xmm0

; 2369 : 			dot_x = centre_x - cos (value) * 40 * width / 512;

  0073f	51		 push	 ecx
  00740	f3 0f 10 45 ec	 movss	 xmm0, DWORD PTR _value$[ebp]
  00745	f3 0f 11 04 24	 movss	 DWORD PTR [esp], xmm0
  0074a	e8 00 00 00 00	 call	 ?cos@@YGMM@Z		; cos
  0074f	d9 9d 6c ff ff
	ff		 fstp	 DWORD PTR tv3608[ebp]
  00755	f3 0f 10 85 6c
	ff ff ff	 movss	 xmm0, DWORD PTR tv3608[ebp]
  0075d	f3 0f 59 05 00
	00 00 00	 mulss	 xmm0, DWORD PTR __real@42200000
  00765	f3 0f 59 45 f4	 mulss	 xmm0, DWORD PTR _width$[ebp]
  0076a	f3 0f 5e 05 00
	00 00 00	 divss	 xmm0, DWORD PTR __real@44000000
  00772	f3 0f 10 4d dc	 movss	 xmm1, DWORD PTR _centre_x$[ebp]
  00777	f3 0f 5c c8	 subss	 xmm1, xmm0
  0077b	f3 0f 11 4d d4	 movss	 DWORD PTR _dot_x$[ebp], xmm1

; 2370 : 			dot_y = centre_y - sin (value) * 50 * height / 512;

  00780	51		 push	 ecx
  00781	f3 0f 10 45 ec	 movss	 xmm0, DWORD PTR _value$[ebp]
  00786	f3 0f 11 04 24	 movss	 DWORD PTR [esp], xmm0
  0078b	e8 00 00 00 00	 call	 ?sin@@YGMM@Z		; sin
  00790	d9 9d 6c ff ff
	ff		 fstp	 DWORD PTR tv3615[ebp]
  00796	f3 0f 10 85 6c
	ff ff ff	 movss	 xmm0, DWORD PTR tv3615[ebp]
  0079e	f3 0f 59 05 00
	00 00 00	 mulss	 xmm0, DWORD PTR __real@42480000
  007a6	f3 0f 59 45 f0	 mulss	 xmm0, DWORD PTR _height$[ebp]
  007ab	f3 0f 5e 05 00
	00 00 00	 divss	 xmm0, DWORD PTR __real@44000000
  007b3	f3 0f 10 4d d8	 movss	 xmm1, DWORD PTR _centre_y$[ebp]
  007b8	f3 0f 5c c8	 subss	 xmm1, xmm0
  007bc	f3 0f 11 4d d0	 movss	 DWORD PTR _dot_y$[ebp], xmm1

; 2371 : 			draw_arrow (centre_x, centre_y, dot_x, dot_y, width / 128, height / 128, white_needle_colour);

  007c1	a1 00 00 00 00	 mov	 eax, DWORD PTR ?white_needle_colour@@3UREAL_COLOUR@@A
  007c6	50		 push	 eax
  007c7	f3 0f 10 45 f0	 movss	 xmm0, DWORD PTR _height$[ebp]
  007cc	f3 0f 5e 05 00
	00 00 00	 divss	 xmm0, DWORD PTR __real@43000000
  007d4	51		 push	 ecx
  007d5	f3 0f 11 04 24	 movss	 DWORD PTR [esp], xmm0
  007da	f3 0f 10 45 f4	 movss	 xmm0, DWORD PTR _width$[ebp]
  007df	f3 0f 5e 05 00
	00 00 00	 divss	 xmm0, DWORD PTR __real@43000000
  007e7	51		 push	 ecx
  007e8	f3 0f 11 04 24	 movss	 DWORD PTR [esp], xmm0
  007ed	51		 push	 ecx
  007ee	f3 0f 10 45 d0	 movss	 xmm0, DWORD PTR _dot_y$[ebp]
  007f3	f3 0f 11 04 24	 movss	 DWORD PTR [esp], xmm0
  007f8	51		 push	 ecx
  007f9	f3 0f 10 45 d4	 movss	 xmm0, DWORD PTR _dot_x$[ebp]
  007fe	f3 0f 11 04 24	 movss	 DWORD PTR [esp], xmm0
  00803	51		 push	 ecx
  00804	f3 0f 10 45 d8	 movss	 xmm0, DWORD PTR _centre_y$[ebp]
  00809	f3 0f 11 04 24	 movss	 DWORD PTR [esp], xmm0
  0080e	51		 push	 ecx
  0080f	f3 0f 10 45 dc	 movss	 xmm0, DWORD PTR _centre_x$[ebp]
  00814	f3 0f 11 04 24	 movss	 DWORD PTR [esp], xmm0
  00819	e8 00 00 00 00	 call	 ?draw_arrow@@YGXMMMMMMUREAL_COLOUR@@@Z ; draw_arrow

; 2372 : 	
; 2373 : 			/* Slip */
; 2374 : 			value = kilometres_per_hour (current_flight_dynamics->indicated_slip.value);

  0081e	a1 00 00 00 00	 mov	 eax, DWORD PTR ?current_flight_dynamics@@3PAUDYNAMICS_TYPE@@A ; current_flight_dynamics
  00823	f3 0f 10 80 14
	24 00 00	 movss	 xmm0, DWORD PTR [eax+9236]
  0082b	f3 0f 59 05 00
	00 00 00	 mulss	 xmm0, DWORD PTR __real@40666666
  00833	f3 0f 11 45 ec	 movss	 DWORD PTR _value$[ebp], xmm0

; 2375 : 			value = bound (value, -100.0, 100.0);

  00838	f3 0f 5a 45 ec	 cvtss2sd xmm0, DWORD PTR _value$[ebp]
  0083d	f2 0f 10 0d 00
	00 00 00	 movsd	 xmm1, QWORD PTR __real@c059000000000000
  00845	66 0f 2f c8	 comisd	 xmm1, xmm0
  00849	76 12		 jbe	 SHORT $LN119@draw_havoc
  0084b	f2 0f 10 05 00
	00 00 00	 movsd	 xmm0, QWORD PTR __real@c059000000000000
  00853	f2 0f 11 85 68
	ff ff ff	 movsd	 QWORD PTR tv332[ebp], xmm0
  0085b	eb 3e		 jmp	 SHORT $LN120@draw_havoc
$LN119@draw_havoc:
  0085d	f3 0f 5a 45 ec	 cvtss2sd xmm0, DWORD PTR _value$[ebp]
  00862	66 0f 2f 05 00
	00 00 00	 comisd	 xmm0, QWORD PTR __real@4059000000000000
  0086a	76 12		 jbe	 SHORT $LN117@draw_havoc
  0086c	f2 0f 10 05 00
	00 00 00	 movsd	 xmm0, QWORD PTR __real@4059000000000000
  00874	f2 0f 11 85 60
	ff ff ff	 movsd	 QWORD PTR tv331[ebp], xmm0
  0087c	eb 0d		 jmp	 SHORT $LN118@draw_havoc
$LN117@draw_havoc:
  0087e	f3 0f 5a 45 ec	 cvtss2sd xmm0, DWORD PTR _value$[ebp]
  00883	f2 0f 11 85 60
	ff ff ff	 movsd	 QWORD PTR tv331[ebp], xmm0
$LN118@draw_havoc:
  0088b	f2 0f 10 85 60
	ff ff ff	 movsd	 xmm0, QWORD PTR tv331[ebp]
  00893	f2 0f 11 85 68
	ff ff ff	 movsd	 QWORD PTR tv332[ebp], xmm0
$LN120@draw_havoc:
  0089b	f2 0f 5a 85 68
	ff ff ff	 cvtsd2ss xmm0, QWORD PTR tv332[ebp]
  008a3	f3 0f 11 45 ec	 movss	 DWORD PTR _value$[ebp], xmm0

; 2376 : 			value *= rad (45.0) / 100.0;

  008a8	f3 0f 5a 45 ec	 cvtss2sd xmm0, DWORD PTR _value$[ebp]
  008ad	f2 0f 59 05 00
	00 00 00	 mulsd	 xmm0, QWORD PTR __real@3f8015bf90000000
  008b5	f2 0f 5a c0	 cvtsd2ss xmm0, xmm0
  008b9	f3 0f 11 45 ec	 movss	 DWORD PTR _value$[ebp], xmm0

; 2377 : 		    centre_x = 282 * width / 512;

  008be	f3 0f 10 05 00
	00 00 00	 movss	 xmm0, DWORD PTR __real@438d0000
  008c6	f3 0f 59 45 f4	 mulss	 xmm0, DWORD PTR _width$[ebp]
  008cb	f3 0f 5e 05 00
	00 00 00	 divss	 xmm0, DWORD PTR __real@44000000
  008d3	f3 0f 11 45 dc	 movss	 DWORD PTR _centre_x$[ebp], xmm0

; 2378 : 	    	centre_y = 146 * height / 512;

  008d8	f3 0f 10 05 00
	00 00 00	 movss	 xmm0, DWORD PTR __real@43120000
  008e0	f3 0f 59 45 f0	 mulss	 xmm0, DWORD PTR _height$[ebp]
  008e5	f3 0f 5e 05 00
	00 00 00	 divss	 xmm0, DWORD PTR __real@44000000
  008ed	f3 0f 11 45 d8	 movss	 DWORD PTR _centre_y$[ebp], xmm0

; 2379 : 			dot_x = centre_x + sin (value) * 20 * width / 512;

  008f2	51		 push	 ecx
  008f3	f3 0f 10 45 ec	 movss	 xmm0, DWORD PTR _value$[ebp]
  008f8	f3 0f 11 04 24	 movss	 DWORD PTR [esp], xmm0
  008fd	e8 00 00 00 00	 call	 ?sin@@YGMM@Z		; sin
  00902	d9 9d 6c ff ff
	ff		 fstp	 DWORD PTR tv3643[ebp]
  00908	f3 0f 10 85 6c
	ff ff ff	 movss	 xmm0, DWORD PTR tv3643[ebp]
  00910	f3 0f 59 05 00
	00 00 00	 mulss	 xmm0, DWORD PTR __real@41a00000
  00918	f3 0f 59 45 f4	 mulss	 xmm0, DWORD PTR _width$[ebp]
  0091d	f3 0f 5e 05 00
	00 00 00	 divss	 xmm0, DWORD PTR __real@44000000
  00925	f3 0f 58 45 dc	 addss	 xmm0, DWORD PTR _centre_x$[ebp]
  0092a	f3 0f 11 45 d4	 movss	 DWORD PTR _dot_x$[ebp], xmm0

; 2380 : 			dot_y = centre_y + cos (value) * 25 * height / 512;

  0092f	51		 push	 ecx
  00930	f3 0f 10 45 ec	 movss	 xmm0, DWORD PTR _value$[ebp]
  00935	f3 0f 11 04 24	 movss	 DWORD PTR [esp], xmm0
  0093a	e8 00 00 00 00	 call	 ?cos@@YGMM@Z		; cos
  0093f	d9 9d 6c ff ff
	ff		 fstp	 DWORD PTR tv3650[ebp]
  00945	f3 0f 10 85 6c
	ff ff ff	 movss	 xmm0, DWORD PTR tv3650[ebp]
  0094d	f3 0f 59 05 00
	00 00 00	 mulss	 xmm0, DWORD PTR __real@41c80000
  00955	f3 0f 59 45 f0	 mulss	 xmm0, DWORD PTR _height$[ebp]
  0095a	f3 0f 5e 05 00
	00 00 00	 divss	 xmm0, DWORD PTR __real@44000000
  00962	f3 0f 58 45 d8	 addss	 xmm0, DWORD PTR _centre_y$[ebp]
  00967	f3 0f 11 45 d0	 movss	 DWORD PTR _dot_y$[ebp], xmm0

; 2381 : 			draw_arrow (centre_x, centre_y, dot_x, dot_y, width / 128, height / 128, white_needle_colour);

  0096c	a1 00 00 00 00	 mov	 eax, DWORD PTR ?white_needle_colour@@3UREAL_COLOUR@@A
  00971	50		 push	 eax
  00972	f3 0f 10 45 f0	 movss	 xmm0, DWORD PTR _height$[ebp]
  00977	f3 0f 5e 05 00
	00 00 00	 divss	 xmm0, DWORD PTR __real@43000000
  0097f	51		 push	 ecx
  00980	f3 0f 11 04 24	 movss	 DWORD PTR [esp], xmm0
  00985	f3 0f 10 45 f4	 movss	 xmm0, DWORD PTR _width$[ebp]
  0098a	f3 0f 5e 05 00
	00 00 00	 divss	 xmm0, DWORD PTR __real@43000000
  00992	51		 push	 ecx
  00993	f3 0f 11 04 24	 movss	 DWORD PTR [esp], xmm0
  00998	51		 push	 ecx
  00999	f3 0f 10 45 d0	 movss	 xmm0, DWORD PTR _dot_y$[ebp]
  0099e	f3 0f 11 04 24	 movss	 DWORD PTR [esp], xmm0
  009a3	51		 push	 ecx
  009a4	f3 0f 10 45 d4	 movss	 xmm0, DWORD PTR _dot_x$[ebp]
  009a9	f3 0f 11 04 24	 movss	 DWORD PTR [esp], xmm0
  009ae	51		 push	 ecx
  009af	f3 0f 10 45 d8	 movss	 xmm0, DWORD PTR _centre_y$[ebp]
  009b4	f3 0f 11 04 24	 movss	 DWORD PTR [esp], xmm0
  009b9	51		 push	 ecx
  009ba	f3 0f 10 45 dc	 movss	 xmm0, DWORD PTR _centre_x$[ebp]
  009bf	f3 0f 11 04 24	 movss	 DWORD PTR [esp], xmm0
  009c4	e8 00 00 00 00	 call	 ?draw_arrow@@YGXMMMMMMUREAL_COLOUR@@@Z ; draw_arrow

; 2382 : 
; 2383 : 			// Left engine N2 RPM
; 2384 : 			value = current_flight_dynamics->left_engine_rpm.value;

  009c9	a1 00 00 00 00	 mov	 eax, DWORD PTR ?current_flight_dynamics@@3PAUDYNAMICS_TYPE@@A ; current_flight_dynamics
  009ce	f3 0f 10 80 7c
	1c 00 00	 movss	 xmm0, DWORD PTR [eax+7292]
  009d6	f3 0f 11 45 ec	 movss	 DWORD PTR _value$[ebp], xmm0

; 2385 : 			value = bound (value, 0.0, 110.0);

  009db	f3 0f 5a 45 ec	 cvtss2sd xmm0, DWORD PTR _value$[ebp]
  009e0	0f 57 c9	 xorps	 xmm1, xmm1
  009e3	66 0f 2f c8	 comisd	 xmm1, xmm0
  009e7	76 0d		 jbe	 SHORT $LN123@draw_havoc
  009e9	0f 57 c0	 xorps	 xmm0, xmm0
  009ec	f2 0f 11 85 68
	ff ff ff	 movsd	 QWORD PTR tv370[ebp], xmm0
  009f4	eb 3e		 jmp	 SHORT $LN124@draw_havoc
$LN123@draw_havoc:
  009f6	f3 0f 5a 45 ec	 cvtss2sd xmm0, DWORD PTR _value$[ebp]
  009fb	66 0f 2f 05 00
	00 00 00	 comisd	 xmm0, QWORD PTR __real@405b800000000000
  00a03	76 12		 jbe	 SHORT $LN121@draw_havoc
  00a05	f2 0f 10 05 00
	00 00 00	 movsd	 xmm0, QWORD PTR __real@405b800000000000
  00a0d	f2 0f 11 85 60
	ff ff ff	 movsd	 QWORD PTR tv369[ebp], xmm0
  00a15	eb 0d		 jmp	 SHORT $LN122@draw_havoc
$LN121@draw_havoc:
  00a17	f3 0f 5a 45 ec	 cvtss2sd xmm0, DWORD PTR _value$[ebp]
  00a1c	f2 0f 11 85 60
	ff ff ff	 movsd	 QWORD PTR tv369[ebp], xmm0
$LN122@draw_havoc:
  00a24	f2 0f 10 85 60
	ff ff ff	 movsd	 xmm0, QWORD PTR tv369[ebp]
  00a2c	f2 0f 11 85 68
	ff ff ff	 movsd	 QWORD PTR tv370[ebp], xmm0
$LN124@draw_havoc:
  00a34	f2 0f 5a 85 68
	ff ff ff	 cvtsd2ss xmm0, QWORD PTR tv370[ebp]
  00a3c	f3 0f 11 45 ec	 movss	 DWORD PTR _value$[ebp], xmm0

; 2386 : 			value += 20.0;

  00a41	f3 0f 5a 45 ec	 cvtss2sd xmm0, DWORD PTR _value$[ebp]
  00a46	f2 0f 58 05 00
	00 00 00	 addsd	 xmm0, QWORD PTR __real@4034000000000000
  00a4e	f2 0f 5a c0	 cvtsd2ss xmm0, xmm0
  00a52	f3 0f 11 45 ec	 movss	 DWORD PTR _value$[ebp], xmm0

; 2387 : 			value *= rad (360.0) / 120.0;

  00a57	f3 0f 5a 45 ec	 cvtss2sd xmm0, DWORD PTR _value$[ebp]
  00a5c	f2 0f 59 05 00
	00 00 00	 mulsd	 xmm0, QWORD PTR __real@3faacee9f0000000
  00a64	f2 0f 5a c0	 cvtsd2ss xmm0, xmm0
  00a68	f3 0f 11 45 ec	 movss	 DWORD PTR _value$[ebp], xmm0

; 2388 : 		    centre_x = 157 * width / 512;

  00a6d	f3 0f 10 05 00
	00 00 00	 movss	 xmm0, DWORD PTR __real@431d0000
  00a75	f3 0f 59 45 f4	 mulss	 xmm0, DWORD PTR _width$[ebp]
  00a7a	f3 0f 5e 05 00
	00 00 00	 divss	 xmm0, DWORD PTR __real@44000000
  00a82	f3 0f 11 45 dc	 movss	 DWORD PTR _centre_x$[ebp], xmm0

; 2389 : 	    	centre_y = 146 * height / 512;

  00a87	f3 0f 10 05 00
	00 00 00	 movss	 xmm0, DWORD PTR __real@43120000
  00a8f	f3 0f 59 45 f0	 mulss	 xmm0, DWORD PTR _height$[ebp]
  00a94	f3 0f 5e 05 00
	00 00 00	 divss	 xmm0, DWORD PTR __real@44000000
  00a9c	f3 0f 11 45 d8	 movss	 DWORD PTR _centre_y$[ebp], xmm0

; 2390 : 			dot_x = centre_x + sin (value) * 40 * width / 512;

  00aa1	51		 push	 ecx
  00aa2	f3 0f 10 45 ec	 movss	 xmm0, DWORD PTR _value$[ebp]
  00aa7	f3 0f 11 04 24	 movss	 DWORD PTR [esp], xmm0
  00aac	e8 00 00 00 00	 call	 ?sin@@YGMM@Z		; sin
  00ab1	d9 9d 6c ff ff
	ff		 fstp	 DWORD PTR tv3678[ebp]
  00ab7	f3 0f 10 85 6c
	ff ff ff	 movss	 xmm0, DWORD PTR tv3678[ebp]
  00abf	f3 0f 59 05 00
	00 00 00	 mulss	 xmm0, DWORD PTR __real@42200000
  00ac7	f3 0f 59 45 f4	 mulss	 xmm0, DWORD PTR _width$[ebp]
  00acc	f3 0f 5e 05 00
	00 00 00	 divss	 xmm0, DWORD PTR __real@44000000
  00ad4	f3 0f 58 45 dc	 addss	 xmm0, DWORD PTR _centre_x$[ebp]
  00ad9	f3 0f 11 45 d4	 movss	 DWORD PTR _dot_x$[ebp], xmm0

; 2391 : 			dot_y = centre_y - cos (value) * 50 * height / 512;

  00ade	51		 push	 ecx
  00adf	f3 0f 10 45 ec	 movss	 xmm0, DWORD PTR _value$[ebp]
  00ae4	f3 0f 11 04 24	 movss	 DWORD PTR [esp], xmm0
  00ae9	e8 00 00 00 00	 call	 ?cos@@YGMM@Z		; cos
  00aee	d9 9d 6c ff ff
	ff		 fstp	 DWORD PTR tv3685[ebp]
  00af4	f3 0f 10 85 6c
	ff ff ff	 movss	 xmm0, DWORD PTR tv3685[ebp]
  00afc	f3 0f 59 05 00
	00 00 00	 mulss	 xmm0, DWORD PTR __real@42480000
  00b04	f3 0f 59 45 f0	 mulss	 xmm0, DWORD PTR _height$[ebp]
  00b09	f3 0f 5e 05 00
	00 00 00	 divss	 xmm0, DWORD PTR __real@44000000
  00b11	f3 0f 10 4d d8	 movss	 xmm1, DWORD PTR _centre_y$[ebp]
  00b16	f3 0f 5c c8	 subss	 xmm1, xmm0
  00b1a	f3 0f 11 4d d0	 movss	 DWORD PTR _dot_y$[ebp], xmm1

; 2392 : 			draw_arrow (centre_x, centre_y, dot_x, dot_y, width / 128, height / 128, grey_needle_colour);

  00b1f	a1 00 00 00 00	 mov	 eax, DWORD PTR ?grey_needle_colour@@3UREAL_COLOUR@@A
  00b24	50		 push	 eax
  00b25	f3 0f 10 45 f0	 movss	 xmm0, DWORD PTR _height$[ebp]
  00b2a	f3 0f 5e 05 00
	00 00 00	 divss	 xmm0, DWORD PTR __real@43000000
  00b32	51		 push	 ecx
  00b33	f3 0f 11 04 24	 movss	 DWORD PTR [esp], xmm0
  00b38	f3 0f 10 45 f4	 movss	 xmm0, DWORD PTR _width$[ebp]
  00b3d	f3 0f 5e 05 00
	00 00 00	 divss	 xmm0, DWORD PTR __real@43000000
  00b45	51		 push	 ecx
  00b46	f3 0f 11 04 24	 movss	 DWORD PTR [esp], xmm0
  00b4b	51		 push	 ecx
  00b4c	f3 0f 10 45 d0	 movss	 xmm0, DWORD PTR _dot_y$[ebp]
  00b51	f3 0f 11 04 24	 movss	 DWORD PTR [esp], xmm0
  00b56	51		 push	 ecx
  00b57	f3 0f 10 45 d4	 movss	 xmm0, DWORD PTR _dot_x$[ebp]
  00b5c	f3 0f 11 04 24	 movss	 DWORD PTR [esp], xmm0
  00b61	51		 push	 ecx
  00b62	f3 0f 10 45 d8	 movss	 xmm0, DWORD PTR _centre_y$[ebp]
  00b67	f3 0f 11 04 24	 movss	 DWORD PTR [esp], xmm0
  00b6c	51		 push	 ecx
  00b6d	f3 0f 10 45 dc	 movss	 xmm0, DWORD PTR _centre_x$[ebp]
  00b72	f3 0f 11 04 24	 movss	 DWORD PTR [esp], xmm0
  00b77	e8 00 00 00 00	 call	 ?draw_arrow@@YGXMMMMMMUREAL_COLOUR@@@Z ; draw_arrow

; 2393 : 
; 2394 : 			// Right engine N2 RPM
; 2395 : 			value = current_flight_dynamics->right_engine_rpm.value;

  00b7c	a1 00 00 00 00	 mov	 eax, DWORD PTR ?current_flight_dynamics@@3PAUDYNAMICS_TYPE@@A ; current_flight_dynamics
  00b81	f3 0f 10 80 dc
	1c 00 00	 movss	 xmm0, DWORD PTR [eax+7388]
  00b89	f3 0f 11 45 ec	 movss	 DWORD PTR _value$[ebp], xmm0

; 2396 : 			value = bound (value, 0.0, 110.0);

  00b8e	f3 0f 5a 45 ec	 cvtss2sd xmm0, DWORD PTR _value$[ebp]
  00b93	0f 57 c9	 xorps	 xmm1, xmm1
  00b96	66 0f 2f c8	 comisd	 xmm1, xmm0
  00b9a	76 0d		 jbe	 SHORT $LN127@draw_havoc
  00b9c	0f 57 c0	 xorps	 xmm0, xmm0
  00b9f	f2 0f 11 85 68
	ff ff ff	 movsd	 QWORD PTR tv411[ebp], xmm0
  00ba7	eb 3e		 jmp	 SHORT $LN128@draw_havoc
$LN127@draw_havoc:
  00ba9	f3 0f 5a 45 ec	 cvtss2sd xmm0, DWORD PTR _value$[ebp]
  00bae	66 0f 2f 05 00
	00 00 00	 comisd	 xmm0, QWORD PTR __real@405b800000000000
  00bb6	76 12		 jbe	 SHORT $LN125@draw_havoc
  00bb8	f2 0f 10 05 00
	00 00 00	 movsd	 xmm0, QWORD PTR __real@405b800000000000
  00bc0	f2 0f 11 85 60
	ff ff ff	 movsd	 QWORD PTR tv410[ebp], xmm0
  00bc8	eb 0d		 jmp	 SHORT $LN126@draw_havoc
$LN125@draw_havoc:
  00bca	f3 0f 5a 45 ec	 cvtss2sd xmm0, DWORD PTR _value$[ebp]
  00bcf	f2 0f 11 85 60
	ff ff ff	 movsd	 QWORD PTR tv410[ebp], xmm0
$LN126@draw_havoc:
  00bd7	f2 0f 10 85 60
	ff ff ff	 movsd	 xmm0, QWORD PTR tv410[ebp]
  00bdf	f2 0f 11 85 68
	ff ff ff	 movsd	 QWORD PTR tv411[ebp], xmm0
$LN128@draw_havoc:
  00be7	f2 0f 5a 85 68
	ff ff ff	 cvtsd2ss xmm0, QWORD PTR tv411[ebp]
  00bef	f3 0f 11 45 ec	 movss	 DWORD PTR _value$[ebp], xmm0

; 2397 : 			value += 20.0;

  00bf4	f3 0f 5a 45 ec	 cvtss2sd xmm0, DWORD PTR _value$[ebp]
  00bf9	f2 0f 58 05 00
	00 00 00	 addsd	 xmm0, QWORD PTR __real@4034000000000000
  00c01	f2 0f 5a c0	 cvtsd2ss xmm0, xmm0
  00c05	f3 0f 11 45 ec	 movss	 DWORD PTR _value$[ebp], xmm0

; 2398 : 			value *= rad (360.0) / 120.0;

  00c0a	f3 0f 5a 45 ec	 cvtss2sd xmm0, DWORD PTR _value$[ebp]
  00c0f	f2 0f 59 05 00
	00 00 00	 mulsd	 xmm0, QWORD PTR __real@3faacee9f0000000
  00c17	f2 0f 5a c0	 cvtsd2ss xmm0, xmm0
  00c1b	f3 0f 11 45 ec	 movss	 DWORD PTR _value$[ebp], xmm0

; 2399 : 		    centre_x = 157 * width / 512;

  00c20	f3 0f 10 05 00
	00 00 00	 movss	 xmm0, DWORD PTR __real@431d0000
  00c28	f3 0f 59 45 f4	 mulss	 xmm0, DWORD PTR _width$[ebp]
  00c2d	f3 0f 5e 05 00
	00 00 00	 divss	 xmm0, DWORD PTR __real@44000000
  00c35	f3 0f 11 45 dc	 movss	 DWORD PTR _centre_x$[ebp], xmm0

; 2400 : 	    	centre_y = 146 * height / 512;

  00c3a	f3 0f 10 05 00
	00 00 00	 movss	 xmm0, DWORD PTR __real@43120000
  00c42	f3 0f 59 45 f0	 mulss	 xmm0, DWORD PTR _height$[ebp]
  00c47	f3 0f 5e 05 00
	00 00 00	 divss	 xmm0, DWORD PTR __real@44000000
  00c4f	f3 0f 11 45 d8	 movss	 DWORD PTR _centre_y$[ebp], xmm0

; 2401 : 			dot_x = centre_x + sin (value) * 40 * width / 512;

  00c54	51		 push	 ecx
  00c55	f3 0f 10 45 ec	 movss	 xmm0, DWORD PTR _value$[ebp]
  00c5a	f3 0f 11 04 24	 movss	 DWORD PTR [esp], xmm0
  00c5f	e8 00 00 00 00	 call	 ?sin@@YGMM@Z		; sin
  00c64	d9 9d 6c ff ff
	ff		 fstp	 DWORD PTR tv3713[ebp]
  00c6a	f3 0f 10 85 6c
	ff ff ff	 movss	 xmm0, DWORD PTR tv3713[ebp]
  00c72	f3 0f 59 05 00
	00 00 00	 mulss	 xmm0, DWORD PTR __real@42200000
  00c7a	f3 0f 59 45 f4	 mulss	 xmm0, DWORD PTR _width$[ebp]
  00c7f	f3 0f 5e 05 00
	00 00 00	 divss	 xmm0, DWORD PTR __real@44000000
  00c87	f3 0f 58 45 dc	 addss	 xmm0, DWORD PTR _centre_x$[ebp]
  00c8c	f3 0f 11 45 d4	 movss	 DWORD PTR _dot_x$[ebp], xmm0

; 2402 : 			dot_y = centre_y - cos (value) * 50 * height / 512;

  00c91	51		 push	 ecx
  00c92	f3 0f 10 45 ec	 movss	 xmm0, DWORD PTR _value$[ebp]
  00c97	f3 0f 11 04 24	 movss	 DWORD PTR [esp], xmm0
  00c9c	e8 00 00 00 00	 call	 ?cos@@YGMM@Z		; cos
  00ca1	d9 9d 6c ff ff
	ff		 fstp	 DWORD PTR tv3720[ebp]
  00ca7	f3 0f 10 85 6c
	ff ff ff	 movss	 xmm0, DWORD PTR tv3720[ebp]
  00caf	f3 0f 59 05 00
	00 00 00	 mulss	 xmm0, DWORD PTR __real@42480000
  00cb7	f3 0f 59 45 f0	 mulss	 xmm0, DWORD PTR _height$[ebp]
  00cbc	f3 0f 5e 05 00
	00 00 00	 divss	 xmm0, DWORD PTR __real@44000000
  00cc4	f3 0f 10 4d d8	 movss	 xmm1, DWORD PTR _centre_y$[ebp]
  00cc9	f3 0f 5c c8	 subss	 xmm1, xmm0
  00ccd	f3 0f 11 4d d0	 movss	 DWORD PTR _dot_y$[ebp], xmm1

; 2403 : 			draw_arrow (centre_x, centre_y, dot_x, dot_y, width / 128, height / 128, grey_needle_colour);

  00cd2	a1 00 00 00 00	 mov	 eax, DWORD PTR ?grey_needle_colour@@3UREAL_COLOUR@@A
  00cd7	50		 push	 eax
  00cd8	f3 0f 10 45 f0	 movss	 xmm0, DWORD PTR _height$[ebp]
  00cdd	f3 0f 5e 05 00
	00 00 00	 divss	 xmm0, DWORD PTR __real@43000000
  00ce5	51		 push	 ecx
  00ce6	f3 0f 11 04 24	 movss	 DWORD PTR [esp], xmm0
  00ceb	f3 0f 10 45 f4	 movss	 xmm0, DWORD PTR _width$[ebp]
  00cf0	f3 0f 5e 05 00
	00 00 00	 divss	 xmm0, DWORD PTR __real@43000000
  00cf8	51		 push	 ecx
  00cf9	f3 0f 11 04 24	 movss	 DWORD PTR [esp], xmm0
  00cfe	51		 push	 ecx
  00cff	f3 0f 10 45 d0	 movss	 xmm0, DWORD PTR _dot_y$[ebp]
  00d04	f3 0f 11 04 24	 movss	 DWORD PTR [esp], xmm0
  00d09	51		 push	 ecx
  00d0a	f3 0f 10 45 d4	 movss	 xmm0, DWORD PTR _dot_x$[ebp]
  00d0f	f3 0f 11 04 24	 movss	 DWORD PTR [esp], xmm0
  00d14	51		 push	 ecx
  00d15	f3 0f 10 45 d8	 movss	 xmm0, DWORD PTR _centre_y$[ebp]
  00d1a	f3 0f 11 04 24	 movss	 DWORD PTR [esp], xmm0
  00d1f	51		 push	 ecx
  00d20	f3 0f 10 45 dc	 movss	 xmm0, DWORD PTR _centre_x$[ebp]
  00d25	f3 0f 11 04 24	 movss	 DWORD PTR [esp], xmm0
  00d2a	e8 00 00 00 00	 call	 ?draw_arrow@@YGXMMMMMMUREAL_COLOUR@@@Z ; draw_arrow

; 2404 : 	
; 2405 : 			/* RPM */
; 2406 : 			value = current_flight_dynamics->main_rotor_rpm.value;

  00d2f	a1 00 00 00 00	 mov	 eax, DWORD PTR ?current_flight_dynamics@@3PAUDYNAMICS_TYPE@@A ; current_flight_dynamics
  00d34	f3 0f 10 80 14
	1e 00 00	 movss	 xmm0, DWORD PTR [eax+7700]
  00d3c	f3 0f 11 45 ec	 movss	 DWORD PTR _value$[ebp], xmm0

; 2407 : 			value = bound (value, 0.0, 110.0);

  00d41	f3 0f 5a 45 ec	 cvtss2sd xmm0, DWORD PTR _value$[ebp]
  00d46	0f 57 c9	 xorps	 xmm1, xmm1
  00d49	66 0f 2f c8	 comisd	 xmm1, xmm0
  00d4d	76 0d		 jbe	 SHORT $LN131@draw_havoc
  00d4f	0f 57 c0	 xorps	 xmm0, xmm0
  00d52	f2 0f 11 85 68
	ff ff ff	 movsd	 QWORD PTR tv452[ebp], xmm0
  00d5a	eb 3e		 jmp	 SHORT $LN132@draw_havoc
$LN131@draw_havoc:
  00d5c	f3 0f 5a 45 ec	 cvtss2sd xmm0, DWORD PTR _value$[ebp]
  00d61	66 0f 2f 05 00
	00 00 00	 comisd	 xmm0, QWORD PTR __real@405b800000000000
  00d69	76 12		 jbe	 SHORT $LN129@draw_havoc
  00d6b	f2 0f 10 05 00
	00 00 00	 movsd	 xmm0, QWORD PTR __real@405b800000000000
  00d73	f2 0f 11 85 60
	ff ff ff	 movsd	 QWORD PTR tv451[ebp], xmm0
  00d7b	eb 0d		 jmp	 SHORT $LN130@draw_havoc
$LN129@draw_havoc:
  00d7d	f3 0f 5a 45 ec	 cvtss2sd xmm0, DWORD PTR _value$[ebp]
  00d82	f2 0f 11 85 60
	ff ff ff	 movsd	 QWORD PTR tv451[ebp], xmm0
$LN130@draw_havoc:
  00d8a	f2 0f 10 85 60
	ff ff ff	 movsd	 xmm0, QWORD PTR tv451[ebp]
  00d92	f2 0f 11 85 68
	ff ff ff	 movsd	 QWORD PTR tv452[ebp], xmm0
$LN132@draw_havoc:
  00d9a	f2 0f 5a 85 68
	ff ff ff	 cvtsd2ss xmm0, QWORD PTR tv452[ebp]
  00da2	f3 0f 11 45 ec	 movss	 DWORD PTR _value$[ebp], xmm0

; 2408 : 			value += 20.0;

  00da7	f3 0f 5a 45 ec	 cvtss2sd xmm0, DWORD PTR _value$[ebp]
  00dac	f2 0f 58 05 00
	00 00 00	 addsd	 xmm0, QWORD PTR __real@4034000000000000
  00db4	f2 0f 5a c0	 cvtsd2ss xmm0, xmm0
  00db8	f3 0f 11 45 ec	 movss	 DWORD PTR _value$[ebp], xmm0

; 2409 : 			value *= rad (360.0) / 120.0;

  00dbd	f3 0f 5a 45 ec	 cvtss2sd xmm0, DWORD PTR _value$[ebp]
  00dc2	f2 0f 59 05 00
	00 00 00	 mulsd	 xmm0, QWORD PTR __real@3faacee9f0000000
  00dca	f2 0f 5a c0	 cvtsd2ss xmm0, xmm0
  00dce	f3 0f 11 45 ec	 movss	 DWORD PTR _value$[ebp], xmm0

; 2410 : 		    centre_x = 157 * width / 512;

  00dd3	f3 0f 10 05 00
	00 00 00	 movss	 xmm0, DWORD PTR __real@431d0000
  00ddb	f3 0f 59 45 f4	 mulss	 xmm0, DWORD PTR _width$[ebp]
  00de0	f3 0f 5e 05 00
	00 00 00	 divss	 xmm0, DWORD PTR __real@44000000
  00de8	f3 0f 11 45 dc	 movss	 DWORD PTR _centre_x$[ebp], xmm0

; 2411 : 	    	centre_y = 146 * height / 512;

  00ded	f3 0f 10 05 00
	00 00 00	 movss	 xmm0, DWORD PTR __real@43120000
  00df5	f3 0f 59 45 f0	 mulss	 xmm0, DWORD PTR _height$[ebp]
  00dfa	f3 0f 5e 05 00
	00 00 00	 divss	 xmm0, DWORD PTR __real@44000000
  00e02	f3 0f 11 45 d8	 movss	 DWORD PTR _centre_y$[ebp], xmm0

; 2412 : 			dot_x = centre_x + sin (value) * 40 * width / 512;

  00e07	51		 push	 ecx
  00e08	f3 0f 10 45 ec	 movss	 xmm0, DWORD PTR _value$[ebp]
  00e0d	f3 0f 11 04 24	 movss	 DWORD PTR [esp], xmm0
  00e12	e8 00 00 00 00	 call	 ?sin@@YGMM@Z		; sin
  00e17	d9 9d 6c ff ff
	ff		 fstp	 DWORD PTR tv3748[ebp]
  00e1d	f3 0f 10 85 6c
	ff ff ff	 movss	 xmm0, DWORD PTR tv3748[ebp]
  00e25	f3 0f 59 05 00
	00 00 00	 mulss	 xmm0, DWORD PTR __real@42200000
  00e2d	f3 0f 59 45 f4	 mulss	 xmm0, DWORD PTR _width$[ebp]
  00e32	f3 0f 5e 05 00
	00 00 00	 divss	 xmm0, DWORD PTR __real@44000000
  00e3a	f3 0f 58 45 dc	 addss	 xmm0, DWORD PTR _centre_x$[ebp]
  00e3f	f3 0f 11 45 d4	 movss	 DWORD PTR _dot_x$[ebp], xmm0

; 2413 : 			dot_y = centre_y - cos (value) * 50 * height / 512;

  00e44	51		 push	 ecx
  00e45	f3 0f 10 45 ec	 movss	 xmm0, DWORD PTR _value$[ebp]
  00e4a	f3 0f 11 04 24	 movss	 DWORD PTR [esp], xmm0
  00e4f	e8 00 00 00 00	 call	 ?cos@@YGMM@Z		; cos
  00e54	d9 9d 6c ff ff
	ff		 fstp	 DWORD PTR tv3755[ebp]
  00e5a	f3 0f 10 85 6c
	ff ff ff	 movss	 xmm0, DWORD PTR tv3755[ebp]
  00e62	f3 0f 59 05 00
	00 00 00	 mulss	 xmm0, DWORD PTR __real@42480000
  00e6a	f3 0f 59 45 f0	 mulss	 xmm0, DWORD PTR _height$[ebp]
  00e6f	f3 0f 5e 05 00
	00 00 00	 divss	 xmm0, DWORD PTR __real@44000000
  00e77	f3 0f 10 4d d8	 movss	 xmm1, DWORD PTR _centre_y$[ebp]
  00e7c	f3 0f 5c c8	 subss	 xmm1, xmm0
  00e80	f3 0f 11 4d d0	 movss	 DWORD PTR _dot_y$[ebp], xmm1

; 2414 : 			draw_arrow (centre_x, centre_y, dot_x, dot_y, width / 128, height / 128, white_needle_colour);

  00e85	a1 00 00 00 00	 mov	 eax, DWORD PTR ?white_needle_colour@@3UREAL_COLOUR@@A
  00e8a	50		 push	 eax
  00e8b	f3 0f 10 45 f0	 movss	 xmm0, DWORD PTR _height$[ebp]
  00e90	f3 0f 5e 05 00
	00 00 00	 divss	 xmm0, DWORD PTR __real@43000000
  00e98	51		 push	 ecx
  00e99	f3 0f 11 04 24	 movss	 DWORD PTR [esp], xmm0
  00e9e	f3 0f 10 45 f4	 movss	 xmm0, DWORD PTR _width$[ebp]
  00ea3	f3 0f 5e 05 00
	00 00 00	 divss	 xmm0, DWORD PTR __real@43000000
  00eab	51		 push	 ecx
  00eac	f3 0f 11 04 24	 movss	 DWORD PTR [esp], xmm0
  00eb1	51		 push	 ecx
  00eb2	f3 0f 10 45 d0	 movss	 xmm0, DWORD PTR _dot_y$[ebp]
  00eb7	f3 0f 11 04 24	 movss	 DWORD PTR [esp], xmm0
  00ebc	51		 push	 ecx
  00ebd	f3 0f 10 45 d4	 movss	 xmm0, DWORD PTR _dot_x$[ebp]
  00ec2	f3 0f 11 04 24	 movss	 DWORD PTR [esp], xmm0
  00ec7	51		 push	 ecx
  00ec8	f3 0f 10 45 d8	 movss	 xmm0, DWORD PTR _centre_y$[ebp]
  00ecd	f3 0f 11 04 24	 movss	 DWORD PTR [esp], xmm0
  00ed2	51		 push	 ecx
  00ed3	f3 0f 10 45 dc	 movss	 xmm0, DWORD PTR _centre_x$[ebp]
  00ed8	f3 0f 11 04 24	 movss	 DWORD PTR [esp], xmm0
  00edd	e8 00 00 00 00	 call	 ?draw_arrow@@YGXMMMMMMUREAL_COLOUR@@@Z ; draw_arrow

; 2415 : 	
; 2416 : 			/* Draw chaff & flare lamps */
; 2417 : 			draw_sprite(width / 512, height / 512, havoc_lamps.weapons_management_chaff_green, 172, 26, 40, 22, 481,  79,  22,  11,  51);

  00ee2	a1 00 00 00 00	 mov	 eax, DWORD PTR ?havoc_lamps@@3UHAVOC_LAMP_FLAGS@@A
  00ee7	c1 e8 0d	 shr	 eax, 13			; 0000000dH
  00eea	83 e0 01	 and	 eax, 1
  00eed	0f 84 82 00 00
	00		 je	 $LN13@draw_havoc
  00ef3	6a 33		 push	 51			; 00000033H
  00ef5	6a 0b		 push	 11			; 0000000bH
  00ef7	6a 16		 push	 22			; 00000016H
  00ef9	6a 4f		 push	 79			; 0000004fH
  00efb	68 e1 01 00 00	 push	 481			; 000001e1H
  00f00	f3 0f 10 05 00
	00 00 00	 movss	 xmm0, DWORD PTR __real@41b00000
  00f08	f3 0f 59 45 f0	 mulss	 xmm0, DWORD PTR _height$[ebp]
  00f0d	f3 0f 5e 05 00
	00 00 00	 divss	 xmm0, DWORD PTR __real@44000000
  00f15	f3 0f 2c c0	 cvttss2si eax, xmm0
  00f19	50		 push	 eax
  00f1a	f3 0f 10 05 00
	00 00 00	 movss	 xmm0, DWORD PTR __real@42200000
  00f22	f3 0f 59 45 f4	 mulss	 xmm0, DWORD PTR _width$[ebp]
  00f27	f3 0f 5e 05 00
	00 00 00	 divss	 xmm0, DWORD PTR __real@44000000
  00f2f	f3 0f 2c c8	 cvttss2si ecx, xmm0
  00f33	51		 push	 ecx
  00f34	f3 0f 10 05 00
	00 00 00	 movss	 xmm0, DWORD PTR __real@41d00000
  00f3c	f3 0f 59 45 f0	 mulss	 xmm0, DWORD PTR _height$[ebp]
  00f41	f3 0f 5e 05 00
	00 00 00	 divss	 xmm0, DWORD PTR __real@44000000
  00f49	f3 0f 2c d0	 cvttss2si edx, xmm0
  00f4d	52		 push	 edx
  00f4e	f3 0f 10 05 00
	00 00 00	 movss	 xmm0, DWORD PTR __real@432c0000
  00f56	f3 0f 59 45 f4	 mulss	 xmm0, DWORD PTR _width$[ebp]
  00f5b	f3 0f 5e 05 00
	00 00 00	 divss	 xmm0, DWORD PTR __real@44000000
  00f63	f3 0f 2c c0	 cvttss2si eax, xmm0
  00f67	50		 push	 eax
  00f68	8b 4d c4	 mov	 ecx, DWORD PTR _mask_data$[ebp]
  00f6b	51		 push	 ecx
  00f6c	8b 55 c8	 mov	 edx, DWORD PTR _sprite_data$[ebp]
  00f6f	52		 push	 edx
  00f70	e8 00 00 00 00	 call	 ?blit_rgb_alpha_masked_sprite_zero_mask_value_scaled@@YGXPBE0HHHHHHHHE@Z ; blit_rgb_alpha_masked_sprite_zero_mask_value_scaled
$LN13@draw_havoc:

; 2418 : 			draw_sprite(width / 512, height / 512, havoc_lamps.weapons_management_flare_green, 218, 26, 40, 22, 503,  79,  22,  11,  48);

  00f75	a1 00 00 00 00	 mov	 eax, DWORD PTR ?havoc_lamps@@3UHAVOC_LAMP_FLAGS@@A
  00f7a	c1 e8 0e	 shr	 eax, 14			; 0000000eH
  00f7d	83 e0 01	 and	 eax, 1
  00f80	0f 84 82 00 00
	00		 je	 $LN14@draw_havoc
  00f86	6a 30		 push	 48			; 00000030H
  00f88	6a 0b		 push	 11			; 0000000bH
  00f8a	6a 16		 push	 22			; 00000016H
  00f8c	6a 4f		 push	 79			; 0000004fH
  00f8e	68 f7 01 00 00	 push	 503			; 000001f7H
  00f93	f3 0f 10 05 00
	00 00 00	 movss	 xmm0, DWORD PTR __real@41b00000
  00f9b	f3 0f 59 45 f0	 mulss	 xmm0, DWORD PTR _height$[ebp]
  00fa0	f3 0f 5e 05 00
	00 00 00	 divss	 xmm0, DWORD PTR __real@44000000
  00fa8	f3 0f 2c c0	 cvttss2si eax, xmm0
  00fac	50		 push	 eax
  00fad	f3 0f 10 05 00
	00 00 00	 movss	 xmm0, DWORD PTR __real@42200000
  00fb5	f3 0f 59 45 f4	 mulss	 xmm0, DWORD PTR _width$[ebp]
  00fba	f3 0f 5e 05 00
	00 00 00	 divss	 xmm0, DWORD PTR __real@44000000
  00fc2	f3 0f 2c c8	 cvttss2si ecx, xmm0
  00fc6	51		 push	 ecx
  00fc7	f3 0f 10 05 00
	00 00 00	 movss	 xmm0, DWORD PTR __real@41d00000
  00fcf	f3 0f 59 45 f0	 mulss	 xmm0, DWORD PTR _height$[ebp]
  00fd4	f3 0f 5e 05 00
	00 00 00	 divss	 xmm0, DWORD PTR __real@44000000
  00fdc	f3 0f 2c d0	 cvttss2si edx, xmm0
  00fe0	52		 push	 edx
  00fe1	f3 0f 10 05 00
	00 00 00	 movss	 xmm0, DWORD PTR __real@435a0000
  00fe9	f3 0f 59 45 f4	 mulss	 xmm0, DWORD PTR _width$[ebp]
  00fee	f3 0f 5e 05 00
	00 00 00	 divss	 xmm0, DWORD PTR __real@44000000
  00ff6	f3 0f 2c c0	 cvttss2si eax, xmm0
  00ffa	50		 push	 eax
  00ffb	8b 4d c4	 mov	 ecx, DWORD PTR _mask_data$[ebp]
  00ffe	51		 push	 ecx
  00fff	8b 55 c8	 mov	 edx, DWORD PTR _sprite_data$[ebp]
  01002	52		 push	 edx
  01003	e8 00 00 00 00	 call	 ?blit_rgb_alpha_masked_sprite_zero_mask_value_scaled@@YGXPBE0HHHHHHHHE@Z ; blit_rgb_alpha_masked_sprite_zero_mask_value_scaled
$LN14@draw_havoc:

; 2419 : 			draw_sprite(width / 512, height / 512, havoc_lamps.weapons_management_chaff_red, 172, 26, 40, 22, 436,  54,  22,  11,  51);

  01008	a1 00 00 00 00	 mov	 eax, DWORD PTR ?havoc_lamps@@3UHAVOC_LAMP_FLAGS@@A
  0100d	c1 e8 0f	 shr	 eax, 15			; 0000000fH
  01010	83 e0 01	 and	 eax, 1
  01013	0f 84 82 00 00
	00		 je	 $LN15@draw_havoc
  01019	6a 33		 push	 51			; 00000033H
  0101b	6a 0b		 push	 11			; 0000000bH
  0101d	6a 16		 push	 22			; 00000016H
  0101f	6a 36		 push	 54			; 00000036H
  01021	68 b4 01 00 00	 push	 436			; 000001b4H
  01026	f3 0f 10 05 00
	00 00 00	 movss	 xmm0, DWORD PTR __real@41b00000
  0102e	f3 0f 59 45 f0	 mulss	 xmm0, DWORD PTR _height$[ebp]
  01033	f3 0f 5e 05 00
	00 00 00	 divss	 xmm0, DWORD PTR __real@44000000
  0103b	f3 0f 2c c0	 cvttss2si eax, xmm0
  0103f	50		 push	 eax
  01040	f3 0f 10 05 00
	00 00 00	 movss	 xmm0, DWORD PTR __real@42200000
  01048	f3 0f 59 45 f4	 mulss	 xmm0, DWORD PTR _width$[ebp]
  0104d	f3 0f 5e 05 00
	00 00 00	 divss	 xmm0, DWORD PTR __real@44000000
  01055	f3 0f 2c c8	 cvttss2si ecx, xmm0
  01059	51		 push	 ecx
  0105a	f3 0f 10 05 00
	00 00 00	 movss	 xmm0, DWORD PTR __real@41d00000
  01062	f3 0f 59 45 f0	 mulss	 xmm0, DWORD PTR _height$[ebp]
  01067	f3 0f 5e 05 00
	00 00 00	 divss	 xmm0, DWORD PTR __real@44000000
  0106f	f3 0f 2c d0	 cvttss2si edx, xmm0
  01073	52		 push	 edx
  01074	f3 0f 10 05 00
	00 00 00	 movss	 xmm0, DWORD PTR __real@432c0000
  0107c	f3 0f 59 45 f4	 mulss	 xmm0, DWORD PTR _width$[ebp]
  01081	f3 0f 5e 05 00
	00 00 00	 divss	 xmm0, DWORD PTR __real@44000000
  01089	f3 0f 2c c0	 cvttss2si eax, xmm0
  0108d	50		 push	 eax
  0108e	8b 4d c4	 mov	 ecx, DWORD PTR _mask_data$[ebp]
  01091	51		 push	 ecx
  01092	8b 55 c8	 mov	 edx, DWORD PTR _sprite_data$[ebp]
  01095	52		 push	 edx
  01096	e8 00 00 00 00	 call	 ?blit_rgb_alpha_masked_sprite_zero_mask_value_scaled@@YGXPBE0HHHHHHHHE@Z ; blit_rgb_alpha_masked_sprite_zero_mask_value_scaled
$LN15@draw_havoc:

; 2420 : 			draw_sprite(width / 512, height / 512, havoc_lamps.weapons_management_flare_red, 218, 26, 40, 22, 458,  54,  22,  11,  48);

  0109b	a1 00 00 00 00	 mov	 eax, DWORD PTR ?havoc_lamps@@3UHAVOC_LAMP_FLAGS@@A
  010a0	c1 e8 10	 shr	 eax, 16			; 00000010H
  010a3	83 e0 01	 and	 eax, 1
  010a6	0f 84 82 00 00
	00		 je	 $LN16@draw_havoc
  010ac	6a 30		 push	 48			; 00000030H
  010ae	6a 0b		 push	 11			; 0000000bH
  010b0	6a 16		 push	 22			; 00000016H
  010b2	6a 36		 push	 54			; 00000036H
  010b4	68 ca 01 00 00	 push	 458			; 000001caH
  010b9	f3 0f 10 05 00
	00 00 00	 movss	 xmm0, DWORD PTR __real@41b00000
  010c1	f3 0f 59 45 f0	 mulss	 xmm0, DWORD PTR _height$[ebp]
  010c6	f3 0f 5e 05 00
	00 00 00	 divss	 xmm0, DWORD PTR __real@44000000
  010ce	f3 0f 2c c0	 cvttss2si eax, xmm0
  010d2	50		 push	 eax
  010d3	f3 0f 10 05 00
	00 00 00	 movss	 xmm0, DWORD PTR __real@42200000
  010db	f3 0f 59 45 f4	 mulss	 xmm0, DWORD PTR _width$[ebp]
  010e0	f3 0f 5e 05 00
	00 00 00	 divss	 xmm0, DWORD PTR __real@44000000
  010e8	f3 0f 2c c8	 cvttss2si ecx, xmm0
  010ec	51		 push	 ecx
  010ed	f3 0f 10 05 00
	00 00 00	 movss	 xmm0, DWORD PTR __real@41d00000
  010f5	f3 0f 59 45 f0	 mulss	 xmm0, DWORD PTR _height$[ebp]
  010fa	f3 0f 5e 05 00
	00 00 00	 divss	 xmm0, DWORD PTR __real@44000000
  01102	f3 0f 2c d0	 cvttss2si edx, xmm0
  01106	52		 push	 edx
  01107	f3 0f 10 05 00
	00 00 00	 movss	 xmm0, DWORD PTR __real@435a0000
  0110f	f3 0f 59 45 f4	 mulss	 xmm0, DWORD PTR _width$[ebp]
  01114	f3 0f 5e 05 00
	00 00 00	 divss	 xmm0, DWORD PTR __real@44000000
  0111c	f3 0f 2c c0	 cvttss2si eax, xmm0
  01120	50		 push	 eax
  01121	8b 4d c4	 mov	 ecx, DWORD PTR _mask_data$[ebp]
  01124	51		 push	 ecx
  01125	8b 55 c8	 mov	 edx, DWORD PTR _sprite_data$[ebp]
  01128	52		 push	 edx
  01129	e8 00 00 00 00	 call	 ?blit_rgb_alpha_masked_sprite_zero_mask_value_scaled@@YGXPBE0HHHHHHHHE@Z ; blit_rgb_alpha_masked_sprite_zero_mask_value_scaled
$LN16@draw_havoc:

; 2421 : 	
; 2422 : 			unlock_screen (texture_screen[TG_LLHS][texture]);

  0112e	b8 0c 00 00 00	 mov	 eax, 12			; 0000000cH
  01133	6b c8 00	 imul	 ecx, eax, 0
  01136	8b 55 fc	 mov	 edx, DWORD PTR _texture$[ebp]
  01139	8b 84 91 00 00
	00 00		 mov	 eax, DWORD PTR ?texture_screen@@3PAY02PAUSCREEN@@A[ecx+edx*4]
  01140	50		 push	 eax
  01141	e8 00 00 00 00	 call	 ?unlock_screen@@YGHPAUSCREEN@@@Z ; unlock_screen
$LN12@draw_havoc:

; 2423 : 		}
; 2424 : 	
; 2425 : 		/* Upper Left Panel */
; 2426 : 		width = texture_width[TG_ULHS][texture];

  01146	b8 0c 00 00 00	 mov	 eax, 12			; 0000000cH
  0114b	c1 e0 00	 shl	 eax, 0
  0114e	8b 4d fc	 mov	 ecx, DWORD PTR _texture$[ebp]
  01151	f3 0f 10 84 88
	00 00 00 00	 movss	 xmm0, DWORD PTR ?texture_width@@3PAY02MA[eax+ecx*4]
  0115a	f3 0f 11 45 f4	 movss	 DWORD PTR _width$[ebp], xmm0

; 2427 : 		height = texture_height[TG_ULHS][texture];

  0115f	b8 0c 00 00 00	 mov	 eax, 12			; 0000000cH
  01164	c1 e0 00	 shl	 eax, 0
  01167	8b 4d fc	 mov	 ecx, DWORD PTR _texture$[ebp]
  0116a	f3 0f 10 84 88
	00 00 00 00	 movss	 xmm0, DWORD PTR ?texture_height@@3PAY02MA[eax+ecx*4]
  01173	f3 0f 11 45 f0	 movss	 DWORD PTR _height$[ebp], xmm0

; 2428 : 	
; 2429 : 		if (lock_screen (texture_screen[TG_ULHS][texture]))

  01178	b8 0c 00 00 00	 mov	 eax, 12			; 0000000cH
  0117d	c1 e0 00	 shl	 eax, 0
  01180	8b 4d fc	 mov	 ecx, DWORD PTR _texture$[ebp]
  01183	8b 94 88 00 00
	00 00		 mov	 edx, DWORD PTR ?texture_screen@@3PAY02PAUSCREEN@@A[eax+ecx*4]
  0118a	52		 push	 edx
  0118b	e8 00 00 00 00	 call	 ?lock_screen@@YGHPAUSCREEN@@@Z ; lock_screen
  01190	85 c0		 test	 eax, eax
  01192	0f 84 45 04 00
	00		 je	 $LN17@draw_havoc

; 2430 : 		{
; 2431 : 			set_active_screen (texture_screen[TG_ULHS][texture]);

  01198	b8 0c 00 00 00	 mov	 eax, 12			; 0000000cH
  0119d	c1 e0 00	 shl	 eax, 0
  011a0	8b 4d fc	 mov	 ecx, DWORD PTR _texture$[ebp]
  011a3	8b 94 88 00 00
	00 00		 mov	 edx, DWORD PTR ?texture_screen@@3PAY02PAUSCREEN@@A[eax+ecx*4]
  011aa	52		 push	 edx
  011ab	e8 00 00 00 00	 call	 ?set_active_screen@@YGHPAUSCREEN@@@Z ; set_active_screen

; 2432 : 	
; 2433 : 			/* G meter */
; 2434 : 			value = current_flight_dynamics->g_force.value;

  011b0	a1 00 00 00 00	 mov	 eax, DWORD PTR ?current_flight_dynamics@@3PAUDYNAMICS_TYPE@@A ; current_flight_dynamics
  011b5	f3 0f 10 80 5c
	24 00 00	 movss	 xmm0, DWORD PTR [eax+9308]
  011bd	f3 0f 11 45 ec	 movss	 DWORD PTR _value$[ebp], xmm0

; 2435 : 			value = bound (value, -2.0, 4.0);

  011c2	f3 0f 5a 45 ec	 cvtss2sd xmm0, DWORD PTR _value$[ebp]
  011c7	f2 0f 10 0d 00
	00 00 00	 movsd	 xmm1, QWORD PTR __real@c000000000000000
  011cf	66 0f 2f c8	 comisd	 xmm1, xmm0
  011d3	76 12		 jbe	 SHORT $LN135@draw_havoc
  011d5	f2 0f 10 05 00
	00 00 00	 movsd	 xmm0, QWORD PTR __real@c000000000000000
  011dd	f2 0f 11 85 68
	ff ff ff	 movsd	 QWORD PTR tv622[ebp], xmm0
  011e5	eb 3e		 jmp	 SHORT $LN136@draw_havoc
$LN135@draw_havoc:
  011e7	f3 0f 5a 45 ec	 cvtss2sd xmm0, DWORD PTR _value$[ebp]
  011ec	66 0f 2f 05 00
	00 00 00	 comisd	 xmm0, QWORD PTR __real@4010000000000000
  011f4	76 12		 jbe	 SHORT $LN133@draw_havoc
  011f6	f2 0f 10 05 00
	00 00 00	 movsd	 xmm0, QWORD PTR __real@4010000000000000
  011fe	f2 0f 11 85 60
	ff ff ff	 movsd	 QWORD PTR tv621[ebp], xmm0
  01206	eb 0d		 jmp	 SHORT $LN134@draw_havoc
$LN133@draw_havoc:
  01208	f3 0f 5a 45 ec	 cvtss2sd xmm0, DWORD PTR _value$[ebp]
  0120d	f2 0f 11 85 60
	ff ff ff	 movsd	 QWORD PTR tv621[ebp], xmm0
$LN134@draw_havoc:
  01215	f2 0f 10 85 60
	ff ff ff	 movsd	 xmm0, QWORD PTR tv621[ebp]
  0121d	f2 0f 11 85 68
	ff ff ff	 movsd	 QWORD PTR tv622[ebp], xmm0
$LN136@draw_havoc:
  01225	f2 0f 5a 85 68
	ff ff ff	 cvtsd2ss xmm0, QWORD PTR tv622[ebp]
  0122d	f3 0f 11 45 ec	 movss	 DWORD PTR _value$[ebp], xmm0

; 2436 : 			value *= rad (360.0) / 7.0;

  01232	f3 0f 5a 45 ec	 cvtss2sd xmm0, DWORD PTR _value$[ebp]
  01237	f2 0f 59 05 00
	00 00 00	 mulsd	 xmm0, QWORD PTR __real@3fecb91f38000000
  0123f	f2 0f 5a c0	 cvtsd2ss xmm0, xmm0
  01243	f3 0f 11 45 ec	 movss	 DWORD PTR _value$[ebp], xmm0

; 2437 : 		    centre_x = 209 * width / 512;

  01248	f3 0f 10 05 00
	00 00 00	 movss	 xmm0, DWORD PTR __real@43510000
  01250	f3 0f 59 45 f4	 mulss	 xmm0, DWORD PTR _width$[ebp]
  01255	f3 0f 5e 05 00
	00 00 00	 divss	 xmm0, DWORD PTR __real@44000000
  0125d	f3 0f 11 45 dc	 movss	 DWORD PTR _centre_x$[ebp], xmm0

; 2438 : 	    	centre_y = 194 * height / 512;

  01262	f3 0f 10 05 00
	00 00 00	 movss	 xmm0, DWORD PTR __real@43420000
  0126a	f3 0f 59 45 f0	 mulss	 xmm0, DWORD PTR _height$[ebp]
  0126f	f3 0f 5e 05 00
	00 00 00	 divss	 xmm0, DWORD PTR __real@44000000
  01277	f3 0f 11 45 d8	 movss	 DWORD PTR _centre_y$[ebp], xmm0

; 2439 : 			dot_x = centre_x + sin (value) * 35 * width / 512;

  0127c	51		 push	 ecx
  0127d	f3 0f 10 45 ec	 movss	 xmm0, DWORD PTR _value$[ebp]
  01282	f3 0f 11 04 24	 movss	 DWORD PTR [esp], xmm0
  01287	e8 00 00 00 00	 call	 ?sin@@YGMM@Z		; sin
  0128c	d9 9d 6c ff ff
	ff		 fstp	 DWORD PTR tv3827[ebp]
  01292	f3 0f 10 85 6c
	ff ff ff	 movss	 xmm0, DWORD PTR tv3827[ebp]
  0129a	f3 0f 59 05 00
	00 00 00	 mulss	 xmm0, DWORD PTR __real@420c0000
  012a2	f3 0f 59 45 f4	 mulss	 xmm0, DWORD PTR _width$[ebp]
  012a7	f3 0f 5e 05 00
	00 00 00	 divss	 xmm0, DWORD PTR __real@44000000
  012af	f3 0f 58 45 dc	 addss	 xmm0, DWORD PTR _centre_x$[ebp]
  012b4	f3 0f 11 45 d4	 movss	 DWORD PTR _dot_x$[ebp], xmm0

; 2440 : 			dot_y = centre_y - cos (value) * 35 * height / 512;

  012b9	51		 push	 ecx
  012ba	f3 0f 10 45 ec	 movss	 xmm0, DWORD PTR _value$[ebp]
  012bf	f3 0f 11 04 24	 movss	 DWORD PTR [esp], xmm0
  012c4	e8 00 00 00 00	 call	 ?cos@@YGMM@Z		; cos
  012c9	d9 9d 6c ff ff
	ff		 fstp	 DWORD PTR tv3834[ebp]
  012cf	f3 0f 10 85 6c
	ff ff ff	 movss	 xmm0, DWORD PTR tv3834[ebp]
  012d7	f3 0f 59 05 00
	00 00 00	 mulss	 xmm0, DWORD PTR __real@420c0000
  012df	f3 0f 59 45 f0	 mulss	 xmm0, DWORD PTR _height$[ebp]
  012e4	f3 0f 5e 05 00
	00 00 00	 divss	 xmm0, DWORD PTR __real@44000000
  012ec	f3 0f 10 4d d8	 movss	 xmm1, DWORD PTR _centre_y$[ebp]
  012f1	f3 0f 5c c8	 subss	 xmm1, xmm0
  012f5	f3 0f 11 4d d0	 movss	 DWORD PTR _dot_y$[ebp], xmm1

; 2441 : 			draw_arrow (centre_x, centre_y, dot_x, dot_y, width / 128, height / 128, white_needle_colour);

  012fa	a1 00 00 00 00	 mov	 eax, DWORD PTR ?white_needle_colour@@3UREAL_COLOUR@@A
  012ff	50		 push	 eax
  01300	f3 0f 10 45 f0	 movss	 xmm0, DWORD PTR _height$[ebp]
  01305	f3 0f 5e 05 00
	00 00 00	 divss	 xmm0, DWORD PTR __real@43000000
  0130d	51		 push	 ecx
  0130e	f3 0f 11 04 24	 movss	 DWORD PTR [esp], xmm0
  01313	f3 0f 10 45 f4	 movss	 xmm0, DWORD PTR _width$[ebp]
  01318	f3 0f 5e 05 00
	00 00 00	 divss	 xmm0, DWORD PTR __real@43000000
  01320	51		 push	 ecx
  01321	f3 0f 11 04 24	 movss	 DWORD PTR [esp], xmm0
  01326	51		 push	 ecx
  01327	f3 0f 10 45 d0	 movss	 xmm0, DWORD PTR _dot_y$[ebp]
  0132c	f3 0f 11 04 24	 movss	 DWORD PTR [esp], xmm0
  01331	51		 push	 ecx
  01332	f3 0f 10 45 d4	 movss	 xmm0, DWORD PTR _dot_x$[ebp]
  01337	f3 0f 11 04 24	 movss	 DWORD PTR [esp], xmm0
  0133c	51		 push	 ecx
  0133d	f3 0f 10 45 d8	 movss	 xmm0, DWORD PTR _centre_y$[ebp]
  01342	f3 0f 11 04 24	 movss	 DWORD PTR [esp], xmm0
  01347	51		 push	 ecx
  01348	f3 0f 10 45 dc	 movss	 xmm0, DWORD PTR _centre_x$[ebp]
  0134d	f3 0f 11 04 24	 movss	 DWORD PTR [esp], xmm0
  01352	e8 00 00 00 00	 call	 ?draw_arrow@@YGXMMMMMMUREAL_COLOUR@@@Z ; draw_arrow

; 2442 : 	
; 2443 : 			/* Radar altimeter */
; 2444 : 			value = current_flight_dynamics->radar_altitude.value;

  01357	a1 00 00 00 00	 mov	 eax, DWORD PTR ?current_flight_dynamics@@3PAUDYNAMICS_TYPE@@A ; current_flight_dynamics
  0135c	f3 0f 10 80 44
	24 00 00	 movss	 xmm0, DWORD PTR [eax+9284]
  01364	f3 0f 11 45 ec	 movss	 DWORD PTR _value$[ebp], xmm0

; 2445 : 			value = bound (value, 0.0, 300.0);

  01369	f3 0f 5a 45 ec	 cvtss2sd xmm0, DWORD PTR _value$[ebp]
  0136e	0f 57 c9	 xorps	 xmm1, xmm1
  01371	66 0f 2f c8	 comisd	 xmm1, xmm0
  01375	76 0d		 jbe	 SHORT $LN139@draw_havoc
  01377	0f 57 c0	 xorps	 xmm0, xmm0
  0137a	f2 0f 11 85 68
	ff ff ff	 movsd	 QWORD PTR tv660[ebp], xmm0
  01382	eb 3e		 jmp	 SHORT $LN140@draw_havoc
$LN139@draw_havoc:
  01384	f3 0f 5a 45 ec	 cvtss2sd xmm0, DWORD PTR _value$[ebp]
  01389	66 0f 2f 05 00
	00 00 00	 comisd	 xmm0, QWORD PTR __real@4072c00000000000
  01391	76 12		 jbe	 SHORT $LN137@draw_havoc
  01393	f2 0f 10 05 00
	00 00 00	 movsd	 xmm0, QWORD PTR __real@4072c00000000000
  0139b	f2 0f 11 85 60
	ff ff ff	 movsd	 QWORD PTR tv659[ebp], xmm0
  013a3	eb 0d		 jmp	 SHORT $LN138@draw_havoc
$LN137@draw_havoc:
  013a5	f3 0f 5a 45 ec	 cvtss2sd xmm0, DWORD PTR _value$[ebp]
  013aa	f2 0f 11 85 60
	ff ff ff	 movsd	 QWORD PTR tv659[ebp], xmm0
$LN138@draw_havoc:
  013b2	f2 0f 10 85 60
	ff ff ff	 movsd	 xmm0, QWORD PTR tv659[ebp]
  013ba	f2 0f 11 85 68
	ff ff ff	 movsd	 QWORD PTR tv660[ebp], xmm0
$LN140@draw_havoc:
  013c2	f2 0f 5a 85 68
	ff ff ff	 cvtsd2ss xmm0, QWORD PTR tv660[ebp]
  013ca	f3 0f 11 45 ec	 movss	 DWORD PTR _value$[ebp], xmm0

; 2446 : 			if (value < 100.0)

  013cf	f3 0f 5a 45 ec	 cvtss2sd xmm0, DWORD PTR _value$[ebp]
  013d4	f2 0f 10 0d 00
	00 00 00	 movsd	 xmm1, QWORD PTR __real@4059000000000000
  013dc	66 0f 2f c8	 comisd	 xmm1, xmm0
  013e0	76 18		 jbe	 SHORT $LN18@draw_havoc

; 2447 : 				value *= rad (360.0) / 160.0;

  013e2	f3 0f 5a 45 ec	 cvtss2sd xmm0, DWORD PTR _value$[ebp]
  013e7	f2 0f 59 05 00
	00 00 00	 mulsd	 xmm0, QWORD PTR __real@3fa41b2f74000000
  013ef	f2 0f 5a c0	 cvtsd2ss xmm0, xmm0
  013f3	f3 0f 11 45 ec	 movss	 DWORD PTR _value$[ebp], xmm0

; 2448 : 			else

  013f8	eb 26		 jmp	 SHORT $LN19@draw_havoc
$LN18@draw_havoc:

; 2449 : 				value = value * rad (180.0) / 400.0 + rad (180.0);

  013fa	f3 0f 5a 45 ec	 cvtss2sd xmm0, DWORD PTR _value$[ebp]
  013ff	f2 0f 59 05 00
	00 00 00	 mulsd	 xmm0, QWORD PTR __real@400921fb51000000
  01407	f2 0f 5e 05 00
	00 00 00	 divsd	 xmm0, QWORD PTR __real@4079000000000000
  0140f	f2 0f 58 05 00
	00 00 00	 addsd	 xmm0, QWORD PTR __real@400921fb51000000
  01417	f2 0f 5a c0	 cvtsd2ss xmm0, xmm0
  0141b	f3 0f 11 45 ec	 movss	 DWORD PTR _value$[ebp], xmm0
$LN19@draw_havoc:

; 2450 : 		    centre_x = 182 * width / 512;

  01420	f3 0f 10 05 00
	00 00 00	 movss	 xmm0, DWORD PTR __real@43360000
  01428	f3 0f 59 45 f4	 mulss	 xmm0, DWORD PTR _width$[ebp]
  0142d	f3 0f 5e 05 00
	00 00 00	 divss	 xmm0, DWORD PTR __real@44000000
  01435	f3 0f 11 45 dc	 movss	 DWORD PTR _centre_x$[ebp], xmm0

; 2451 : 	    	centre_y = 366 * height / 512;

  0143a	f3 0f 10 05 00
	00 00 00	 movss	 xmm0, DWORD PTR __real@43b70000
  01442	f3 0f 59 45 f0	 mulss	 xmm0, DWORD PTR _height$[ebp]
  01447	f3 0f 5e 05 00
	00 00 00	 divss	 xmm0, DWORD PTR __real@44000000
  0144f	f3 0f 11 45 d8	 movss	 DWORD PTR _centre_y$[ebp], xmm0

; 2452 : 			dot_x = centre_x + sin (value) * 50 * width / 512;

  01454	51		 push	 ecx
  01455	f3 0f 10 45 ec	 movss	 xmm0, DWORD PTR _value$[ebp]
  0145a	f3 0f 11 04 24	 movss	 DWORD PTR [esp], xmm0
  0145f	e8 00 00 00 00	 call	 ?sin@@YGMM@Z		; sin
  01464	d9 9d 6c ff ff
	ff		 fstp	 DWORD PTR tv3863[ebp]
  0146a	f3 0f 10 85 6c
	ff ff ff	 movss	 xmm0, DWORD PTR tv3863[ebp]
  01472	f3 0f 59 05 00
	00 00 00	 mulss	 xmm0, DWORD PTR __real@42480000
  0147a	f3 0f 59 45 f4	 mulss	 xmm0, DWORD PTR _width$[ebp]
  0147f	f3 0f 5e 05 00
	00 00 00	 divss	 xmm0, DWORD PTR __real@44000000
  01487	f3 0f 58 45 dc	 addss	 xmm0, DWORD PTR _centre_x$[ebp]
  0148c	f3 0f 11 45 d4	 movss	 DWORD PTR _dot_x$[ebp], xmm0

; 2453 : 			dot_y = centre_y - cos (value) * 50 * height / 512;

  01491	51		 push	 ecx
  01492	f3 0f 10 45 ec	 movss	 xmm0, DWORD PTR _value$[ebp]
  01497	f3 0f 11 04 24	 movss	 DWORD PTR [esp], xmm0
  0149c	e8 00 00 00 00	 call	 ?cos@@YGMM@Z		; cos
  014a1	d9 9d 6c ff ff
	ff		 fstp	 DWORD PTR tv3870[ebp]
  014a7	f3 0f 10 85 6c
	ff ff ff	 movss	 xmm0, DWORD PTR tv3870[ebp]
  014af	f3 0f 59 05 00
	00 00 00	 mulss	 xmm0, DWORD PTR __real@42480000
  014b7	f3 0f 59 45 f0	 mulss	 xmm0, DWORD PTR _height$[ebp]
  014bc	f3 0f 5e 05 00
	00 00 00	 divss	 xmm0, DWORD PTR __real@44000000
  014c4	f3 0f 10 4d d8	 movss	 xmm1, DWORD PTR _centre_y$[ebp]
  014c9	f3 0f 5c c8	 subss	 xmm1, xmm0
  014cd	f3 0f 11 4d d0	 movss	 DWORD PTR _dot_y$[ebp], xmm1

; 2454 : 			draw_arrow (centre_x, centre_y, dot_x, dot_y, width / 128, height / 128, white_needle_colour);

  014d2	a1 00 00 00 00	 mov	 eax, DWORD PTR ?white_needle_colour@@3UREAL_COLOUR@@A
  014d7	50		 push	 eax
  014d8	f3 0f 10 45 f0	 movss	 xmm0, DWORD PTR _height$[ebp]
  014dd	f3 0f 5e 05 00
	00 00 00	 divss	 xmm0, DWORD PTR __real@43000000
  014e5	51		 push	 ecx
  014e6	f3 0f 11 04 24	 movss	 DWORD PTR [esp], xmm0
  014eb	f3 0f 10 45 f4	 movss	 xmm0, DWORD PTR _width$[ebp]
  014f0	f3 0f 5e 05 00
	00 00 00	 divss	 xmm0, DWORD PTR __real@43000000
  014f8	51		 push	 ecx
  014f9	f3 0f 11 04 24	 movss	 DWORD PTR [esp], xmm0
  014fe	51		 push	 ecx
  014ff	f3 0f 10 45 d0	 movss	 xmm0, DWORD PTR _dot_y$[ebp]
  01504	f3 0f 11 04 24	 movss	 DWORD PTR [esp], xmm0
  01509	51		 push	 ecx
  0150a	f3 0f 10 45 d4	 movss	 xmm0, DWORD PTR _dot_x$[ebp]
  0150f	f3 0f 11 04 24	 movss	 DWORD PTR [esp], xmm0
  01514	51		 push	 ecx
  01515	f3 0f 10 45 d8	 movss	 xmm0, DWORD PTR _centre_y$[ebp]
  0151a	f3 0f 11 04 24	 movss	 DWORD PTR [esp], xmm0
  0151f	51		 push	 ecx
  01520	f3 0f 10 45 dc	 movss	 xmm0, DWORD PTR _centre_x$[ebp]
  01525	f3 0f 11 04 24	 movss	 DWORD PTR [esp], xmm0
  0152a	e8 00 00 00 00	 call	 ?draw_arrow@@YGXMMMMMMUREAL_COLOUR@@@Z ; draw_arrow

; 2455 : 	
; 2456 : 			/* Draw master caution lamp */
; 2457 : 			draw_sprite(width / 512, height / 512, havoc_lamps.master_caution, 315, 51, 124, 76, 213, 150,  42,  29, 232);

  0152f	a1 00 00 00 00	 mov	 eax, DWORD PTR ?havoc_lamps@@3UHAVOC_LAMP_FLAGS@@A
  01534	83 e0 01	 and	 eax, 1
  01537	0f 84 88 00 00
	00		 je	 $LN20@draw_havoc
  0153d	68 e8 00 00 00	 push	 232			; 000000e8H
  01542	6a 1d		 push	 29			; 0000001dH
  01544	6a 2a		 push	 42			; 0000002aH
  01546	68 96 00 00 00	 push	 150			; 00000096H
  0154b	68 d5 00 00 00	 push	 213			; 000000d5H
  01550	f3 0f 10 05 00
	00 00 00	 movss	 xmm0, DWORD PTR __real@42980000
  01558	f3 0f 59 45 f0	 mulss	 xmm0, DWORD PTR _height$[ebp]
  0155d	f3 0f 5e 05 00
	00 00 00	 divss	 xmm0, DWORD PTR __real@44000000
  01565	f3 0f 2c c0	 cvttss2si eax, xmm0
  01569	50		 push	 eax
  0156a	f3 0f 10 05 00
	00 00 00	 movss	 xmm0, DWORD PTR __real@42f80000
  01572	f3 0f 59 45 f4	 mulss	 xmm0, DWORD PTR _width$[ebp]
  01577	f3 0f 5e 05 00
	00 00 00	 divss	 xmm0, DWORD PTR __real@44000000
  0157f	f3 0f 2c c8	 cvttss2si ecx, xmm0
  01583	51		 push	 ecx
  01584	f3 0f 10 05 00
	00 00 00	 movss	 xmm0, DWORD PTR __real@424c0000
  0158c	f3 0f 59 45 f0	 mulss	 xmm0, DWORD PTR _height$[ebp]
  01591	f3 0f 5e 05 00
	00 00 00	 divss	 xmm0, DWORD PTR __real@44000000
  01599	f3 0f 2c d0	 cvttss2si edx, xmm0
  0159d	52		 push	 edx
  0159e	f3 0f 10 05 00
	00 00 00	 movss	 xmm0, DWORD PTR __real@439d8000
  015a6	f3 0f 59 45 f4	 mulss	 xmm0, DWORD PTR _width$[ebp]
  015ab	f3 0f 5e 05 00
	00 00 00	 divss	 xmm0, DWORD PTR __real@44000000
  015b3	f3 0f 2c c0	 cvttss2si eax, xmm0
  015b7	50		 push	 eax
  015b8	8b 4d c4	 mov	 ecx, DWORD PTR _mask_data$[ebp]
  015bb	51		 push	 ecx
  015bc	8b 55 c8	 mov	 edx, DWORD PTR _sprite_data$[ebp]
  015bf	52		 push	 edx
  015c0	e8 00 00 00 00	 call	 ?blit_rgb_alpha_masked_sprite_zero_mask_value_scaled@@YGXPBE0HHHHHHHHE@Z ; blit_rgb_alpha_masked_sprite_zero_mask_value_scaled
$LN20@draw_havoc:

; 2458 : 	
; 2459 : 			unlock_screen (texture_screen[TG_ULHS][texture]);

  015c5	b8 0c 00 00 00	 mov	 eax, 12			; 0000000cH
  015ca	c1 e0 00	 shl	 eax, 0
  015cd	8b 4d fc	 mov	 ecx, DWORD PTR _texture$[ebp]
  015d0	8b 94 88 00 00
	00 00		 mov	 edx, DWORD PTR ?texture_screen@@3PAY02PAUSCREEN@@A[eax+ecx*4]
  015d7	52		 push	 edx
  015d8	e8 00 00 00 00	 call	 ?unlock_screen@@YGHPAUSCREEN@@@Z ; unlock_screen
$LN17@draw_havoc:

; 2460 : 		}
; 2461 : 	
; 2462 : 		/* Lower Right Panel */
; 2463 : 		width = texture_width[TG_LRHS][texture];

  015dd	b8 0c 00 00 00	 mov	 eax, 12			; 0000000cH
  015e2	d1 e0		 shl	 eax, 1
  015e4	8b 4d fc	 mov	 ecx, DWORD PTR _texture$[ebp]
  015e7	f3 0f 10 84 88
	00 00 00 00	 movss	 xmm0, DWORD PTR ?texture_width@@3PAY02MA[eax+ecx*4]
  015f0	f3 0f 11 45 f4	 movss	 DWORD PTR _width$[ebp], xmm0

; 2464 : 		height = texture_height[TG_LRHS][texture];

  015f5	b8 0c 00 00 00	 mov	 eax, 12			; 0000000cH
  015fa	d1 e0		 shl	 eax, 1
  015fc	8b 4d fc	 mov	 ecx, DWORD PTR _texture$[ebp]
  015ff	f3 0f 10 84 88
	00 00 00 00	 movss	 xmm0, DWORD PTR ?texture_height@@3PAY02MA[eax+ecx*4]
  01608	f3 0f 11 45 f0	 movss	 DWORD PTR _height$[ebp], xmm0

; 2465 : 	
; 2466 : 		if (lock_screen (texture_screen[TG_LRHS][texture]))

  0160d	b8 0c 00 00 00	 mov	 eax, 12			; 0000000cH
  01612	d1 e0		 shl	 eax, 1
  01614	8b 4d fc	 mov	 ecx, DWORD PTR _texture$[ebp]
  01617	8b 94 88 00 00
	00 00		 mov	 edx, DWORD PTR ?texture_screen@@3PAY02PAUSCREEN@@A[eax+ecx*4]
  0161e	52		 push	 edx
  0161f	e8 00 00 00 00	 call	 ?lock_screen@@YGHPAUSCREEN@@@Z ; lock_screen
  01624	85 c0		 test	 eax, eax
  01626	0f 84 b4 1c 00
	00		 je	 $LN21@draw_havoc

; 2467 : 		{
; 2468 : 			float lower_value, middle_value, upper_value;
; 2469 : 			set_active_screen (texture_screen[TG_LRHS][texture]);

  0162c	b8 0c 00 00 00	 mov	 eax, 12			; 0000000cH
  01631	d1 e0		 shl	 eax, 1
  01633	8b 4d fc	 mov	 ecx, DWORD PTR _texture$[ebp]
  01636	8b 94 88 00 00
	00 00		 mov	 edx, DWORD PTR ?texture_screen@@3PAY02PAUSCREEN@@A[eax+ecx*4]
  0163d	52		 push	 edx
  0163e	e8 00 00 00 00	 call	 ?set_active_screen@@YGHPAUSCREEN@@@Z ; set_active_screen

; 2470 : 	
; 2471 : 			/* Left engine torque */
; 2472 : 			value = current_flight_dynamics->left_engine_torque.value;

  01643	a1 00 00 00 00	 mov	 eax, DWORD PTR ?current_flight_dynamics@@3PAUDYNAMICS_TYPE@@A ; current_flight_dynamics
  01648	f3 0f 10 80 ac
	1c 00 00	 movss	 xmm0, DWORD PTR [eax+7340]
  01650	f3 0f 11 45 ec	 movss	 DWORD PTR _value$[ebp], xmm0

; 2473 : 			value = bound (value, 0.0, 110.0);

  01655	f3 0f 5a 45 ec	 cvtss2sd xmm0, DWORD PTR _value$[ebp]
  0165a	0f 57 c9	 xorps	 xmm1, xmm1
  0165d	66 0f 2f c8	 comisd	 xmm1, xmm0
  01661	76 0d		 jbe	 SHORT $LN143@draw_havoc
  01663	0f 57 c0	 xorps	 xmm0, xmm0
  01666	f2 0f 11 85 68
	ff ff ff	 movsd	 QWORD PTR tv755[ebp], xmm0
  0166e	eb 3e		 jmp	 SHORT $LN144@draw_havoc
$LN143@draw_havoc:
  01670	f3 0f 5a 45 ec	 cvtss2sd xmm0, DWORD PTR _value$[ebp]
  01675	66 0f 2f 05 00
	00 00 00	 comisd	 xmm0, QWORD PTR __real@405b800000000000
  0167d	76 12		 jbe	 SHORT $LN141@draw_havoc
  0167f	f2 0f 10 05 00
	00 00 00	 movsd	 xmm0, QWORD PTR __real@405b800000000000
  01687	f2 0f 11 85 60
	ff ff ff	 movsd	 QWORD PTR tv754[ebp], xmm0
  0168f	eb 0d		 jmp	 SHORT $LN142@draw_havoc
$LN141@draw_havoc:
  01691	f3 0f 5a 45 ec	 cvtss2sd xmm0, DWORD PTR _value$[ebp]
  01696	f2 0f 11 85 60
	ff ff ff	 movsd	 QWORD PTR tv754[ebp], xmm0
$LN142@draw_havoc:
  0169e	f2 0f 10 85 60
	ff ff ff	 movsd	 xmm0, QWORD PTR tv754[ebp]
  016a6	f2 0f 11 85 68
	ff ff ff	 movsd	 QWORD PTR tv755[ebp], xmm0
$LN144@draw_havoc:
  016ae	f2 0f 5a 85 68
	ff ff ff	 cvtsd2ss xmm0, QWORD PTR tv755[ebp]
  016b6	f3 0f 11 45 ec	 movss	 DWORD PTR _value$[ebp], xmm0

; 2474 : 			value *= 170.0 / 100.0;

  016bb	f3 0f 5a 45 ec	 cvtss2sd xmm0, DWORD PTR _value$[ebp]
  016c0	f2 0f 59 05 00
	00 00 00	 mulsd	 xmm0, QWORD PTR __real@3ffb333333333333
  016c8	f2 0f 5a c0	 cvtsd2ss xmm0, xmm0
  016cc	f3 0f 11 45 ec	 movss	 DWORD PTR _value$[ebp], xmm0

; 2475 : 		    centre_x = 22 * width / 512;

  016d1	f3 0f 10 05 00
	00 00 00	 movss	 xmm0, DWORD PTR __real@41b00000
  016d9	f3 0f 59 45 f4	 mulss	 xmm0, DWORD PTR _width$[ebp]
  016de	f3 0f 5e 05 00
	00 00 00	 divss	 xmm0, DWORD PTR __real@44000000
  016e6	f3 0f 11 45 dc	 movss	 DWORD PTR _centre_x$[ebp], xmm0

; 2476 : 	    	centre_y = 466 * height / 512;

  016eb	f3 0f 10 05 00
	00 00 00	 movss	 xmm0, DWORD PTR __real@43e90000
  016f3	f3 0f 59 45 f0	 mulss	 xmm0, DWORD PTR _height$[ebp]
  016f8	f3 0f 5e 05 00
	00 00 00	 divss	 xmm0, DWORD PTR __real@44000000
  01700	f3 0f 11 45 d8	 movss	 DWORD PTR _centre_y$[ebp], xmm0

; 2477 : 		    dot_x = centre_x;

  01705	f3 0f 10 45 dc	 movss	 xmm0, DWORD PTR _centre_x$[ebp]
  0170a	f3 0f 11 45 d4	 movss	 DWORD PTR _dot_x$[ebp], xmm0

; 2478 : 	    	dot_y = centre_y - value * height / 512;

  0170f	f3 0f 10 45 ec	 movss	 xmm0, DWORD PTR _value$[ebp]
  01714	f3 0f 59 45 f0	 mulss	 xmm0, DWORD PTR _height$[ebp]
  01719	f3 0f 5e 05 00
	00 00 00	 divss	 xmm0, DWORD PTR __real@44000000
  01721	f3 0f 10 4d d8	 movss	 xmm1, DWORD PTR _centre_y$[ebp]
  01726	f3 0f 5c c8	 subss	 xmm1, xmm0
  0172a	f3 0f 11 4d d0	 movss	 DWORD PTR _dot_y$[ebp], xmm1

; 2479 : 			draw_arrow (centre_x, centre_y, dot_x, dot_y, width / 128, height / 128, yellow_needle_colour);

  0172f	a1 00 00 00 00	 mov	 eax, DWORD PTR ?yellow_needle_colour@@3UREAL_COLOUR@@A
  01734	50		 push	 eax
  01735	f3 0f 10 45 f0	 movss	 xmm0, DWORD PTR _height$[ebp]
  0173a	f3 0f 5e 05 00
	00 00 00	 divss	 xmm0, DWORD PTR __real@43000000
  01742	51		 push	 ecx
  01743	f3 0f 11 04 24	 movss	 DWORD PTR [esp], xmm0
  01748	f3 0f 10 45 f4	 movss	 xmm0, DWORD PTR _width$[ebp]
  0174d	f3 0f 5e 05 00
	00 00 00	 divss	 xmm0, DWORD PTR __real@43000000
  01755	51		 push	 ecx
  01756	f3 0f 11 04 24	 movss	 DWORD PTR [esp], xmm0
  0175b	51		 push	 ecx
  0175c	f3 0f 10 45 d0	 movss	 xmm0, DWORD PTR _dot_y$[ebp]
  01761	f3 0f 11 04 24	 movss	 DWORD PTR [esp], xmm0
  01766	51		 push	 ecx
  01767	f3 0f 10 45 d4	 movss	 xmm0, DWORD PTR _dot_x$[ebp]
  0176c	f3 0f 11 04 24	 movss	 DWORD PTR [esp], xmm0
  01771	51		 push	 ecx
  01772	f3 0f 10 45 d8	 movss	 xmm0, DWORD PTR _centre_y$[ebp]
  01777	f3 0f 11 04 24	 movss	 DWORD PTR [esp], xmm0
  0177c	51		 push	 ecx
  0177d	f3 0f 10 45 dc	 movss	 xmm0, DWORD PTR _centre_x$[ebp]
  01782	f3 0f 11 04 24	 movss	 DWORD PTR [esp], xmm0
  01787	e8 00 00 00 00	 call	 ?draw_arrow@@YGXMMMMMMUREAL_COLOUR@@@Z ; draw_arrow

; 2480 : 	
; 2481 : 			/* Right engine torque */
; 2482 : 			value = current_flight_dynamics->right_engine_torque.value;

  0178c	a1 00 00 00 00	 mov	 eax, DWORD PTR ?current_flight_dynamics@@3PAUDYNAMICS_TYPE@@A ; current_flight_dynamics
  01791	f3 0f 10 80 0c
	1d 00 00	 movss	 xmm0, DWORD PTR [eax+7436]
  01799	f3 0f 11 45 ec	 movss	 DWORD PTR _value$[ebp], xmm0

; 2483 : 			value = bound (value, 0.0, 110.0);

  0179e	f3 0f 5a 45 ec	 cvtss2sd xmm0, DWORD PTR _value$[ebp]
  017a3	0f 57 c9	 xorps	 xmm1, xmm1
  017a6	66 0f 2f c8	 comisd	 xmm1, xmm0
  017aa	76 0d		 jbe	 SHORT $LN147@draw_havoc
  017ac	0f 57 c0	 xorps	 xmm0, xmm0
  017af	f2 0f 11 85 68
	ff ff ff	 movsd	 QWORD PTR tv784[ebp], xmm0
  017b7	eb 3e		 jmp	 SHORT $LN148@draw_havoc
$LN147@draw_havoc:
  017b9	f3 0f 5a 45 ec	 cvtss2sd xmm0, DWORD PTR _value$[ebp]
  017be	66 0f 2f 05 00
	00 00 00	 comisd	 xmm0, QWORD PTR __real@405b800000000000
  017c6	76 12		 jbe	 SHORT $LN145@draw_havoc
  017c8	f2 0f 10 05 00
	00 00 00	 movsd	 xmm0, QWORD PTR __real@405b800000000000
  017d0	f2 0f 11 85 60
	ff ff ff	 movsd	 QWORD PTR tv783[ebp], xmm0
  017d8	eb 0d		 jmp	 SHORT $LN146@draw_havoc
$LN145@draw_havoc:
  017da	f3 0f 5a 45 ec	 cvtss2sd xmm0, DWORD PTR _value$[ebp]
  017df	f2 0f 11 85 60
	ff ff ff	 movsd	 QWORD PTR tv783[ebp], xmm0
$LN146@draw_havoc:
  017e7	f2 0f 10 85 60
	ff ff ff	 movsd	 xmm0, QWORD PTR tv783[ebp]
  017ef	f2 0f 11 85 68
	ff ff ff	 movsd	 QWORD PTR tv784[ebp], xmm0
$LN148@draw_havoc:
  017f7	f2 0f 5a 85 68
	ff ff ff	 cvtsd2ss xmm0, QWORD PTR tv784[ebp]
  017ff	f3 0f 11 45 ec	 movss	 DWORD PTR _value$[ebp], xmm0

; 2484 : 			value *= 170.0 / 100.0;

  01804	f3 0f 5a 45 ec	 cvtss2sd xmm0, DWORD PTR _value$[ebp]
  01809	f2 0f 59 05 00
	00 00 00	 mulsd	 xmm0, QWORD PTR __real@3ffb333333333333
  01811	f2 0f 5a c0	 cvtsd2ss xmm0, xmm0
  01815	f3 0f 11 45 ec	 movss	 DWORD PTR _value$[ebp], xmm0

; 2485 : 		    centre_x = 66 * width / 512;

  0181a	f3 0f 10 05 00
	00 00 00	 movss	 xmm0, DWORD PTR __real@42840000
  01822	f3 0f 59 45 f4	 mulss	 xmm0, DWORD PTR _width$[ebp]
  01827	f3 0f 5e 05 00
	00 00 00	 divss	 xmm0, DWORD PTR __real@44000000
  0182f	f3 0f 11 45 dc	 movss	 DWORD PTR _centre_x$[ebp], xmm0

; 2486 : 	    	centre_y = 466 * height / 512;

  01834	f3 0f 10 05 00
	00 00 00	 movss	 xmm0, DWORD PTR __real@43e90000
  0183c	f3 0f 59 45 f0	 mulss	 xmm0, DWORD PTR _height$[ebp]
  01841	f3 0f 5e 05 00
	00 00 00	 divss	 xmm0, DWORD PTR __real@44000000
  01849	f3 0f 11 45 d8	 movss	 DWORD PTR _centre_y$[ebp], xmm0

; 2487 : 		    dot_x = centre_x;

  0184e	f3 0f 10 45 dc	 movss	 xmm0, DWORD PTR _centre_x$[ebp]
  01853	f3 0f 11 45 d4	 movss	 DWORD PTR _dot_x$[ebp], xmm0

; 2488 : 	    	dot_y = centre_y - value * height / 512;

  01858	f3 0f 10 45 ec	 movss	 xmm0, DWORD PTR _value$[ebp]
  0185d	f3 0f 59 45 f0	 mulss	 xmm0, DWORD PTR _height$[ebp]
  01862	f3 0f 5e 05 00
	00 00 00	 divss	 xmm0, DWORD PTR __real@44000000
  0186a	f3 0f 10 4d d8	 movss	 xmm1, DWORD PTR _centre_y$[ebp]
  0186f	f3 0f 5c c8	 subss	 xmm1, xmm0
  01873	f3 0f 11 4d d0	 movss	 DWORD PTR _dot_y$[ebp], xmm1

; 2489 : 			draw_arrow (centre_x, centre_y, dot_x, dot_y, width / 128, height / 128, yellow_needle_colour);

  01878	a1 00 00 00 00	 mov	 eax, DWORD PTR ?yellow_needle_colour@@3UREAL_COLOUR@@A
  0187d	50		 push	 eax
  0187e	f3 0f 10 45 f0	 movss	 xmm0, DWORD PTR _height$[ebp]
  01883	f3 0f 5e 05 00
	00 00 00	 divss	 xmm0, DWORD PTR __real@43000000
  0188b	51		 push	 ecx
  0188c	f3 0f 11 04 24	 movss	 DWORD PTR [esp], xmm0
  01891	f3 0f 10 45 f4	 movss	 xmm0, DWORD PTR _width$[ebp]
  01896	f3 0f 5e 05 00
	00 00 00	 divss	 xmm0, DWORD PTR __real@43000000
  0189e	51		 push	 ecx
  0189f	f3 0f 11 04 24	 movss	 DWORD PTR [esp], xmm0
  018a4	51		 push	 ecx
  018a5	f3 0f 10 45 d0	 movss	 xmm0, DWORD PTR _dot_y$[ebp]
  018aa	f3 0f 11 04 24	 movss	 DWORD PTR [esp], xmm0
  018af	51		 push	 ecx
  018b0	f3 0f 10 45 d4	 movss	 xmm0, DWORD PTR _dot_x$[ebp]
  018b5	f3 0f 11 04 24	 movss	 DWORD PTR [esp], xmm0
  018ba	51		 push	 ecx
  018bb	f3 0f 10 45 d8	 movss	 xmm0, DWORD PTR _centre_y$[ebp]
  018c0	f3 0f 11 04 24	 movss	 DWORD PTR [esp], xmm0
  018c5	51		 push	 ecx
  018c6	f3 0f 10 45 dc	 movss	 xmm0, DWORD PTR _centre_x$[ebp]
  018cb	f3 0f 11 04 24	 movss	 DWORD PTR [esp], xmm0
  018d0	e8 00 00 00 00	 call	 ?draw_arrow@@YGXMMMMMMUREAL_COLOUR@@@Z ; draw_arrow

; 2490 : 
; 2491 : 			/* Left engine N1 RPM */
; 2492 : 			value = current_flight_dynamics->left_engine_n1_rpm.value;

  018d5	a1 00 00 00 00	 mov	 eax, DWORD PTR ?current_flight_dynamics@@3PAUDYNAMICS_TYPE@@A ; current_flight_dynamics
  018da	f3 0f 10 80 94
	1c 00 00	 movss	 xmm0, DWORD PTR [eax+7316]
  018e2	f3 0f 11 45 ec	 movss	 DWORD PTR _value$[ebp], xmm0

; 2493 : 			value = bound (value, 0.0, 110.0);

  018e7	f3 0f 5a 45 ec	 cvtss2sd xmm0, DWORD PTR _value$[ebp]
  018ec	0f 57 c9	 xorps	 xmm1, xmm1
  018ef	66 0f 2f c8	 comisd	 xmm1, xmm0
  018f3	76 0d		 jbe	 SHORT $LN151@draw_havoc
  018f5	0f 57 c0	 xorps	 xmm0, xmm0
  018f8	f2 0f 11 85 68
	ff ff ff	 movsd	 QWORD PTR tv813[ebp], xmm0
  01900	eb 3e		 jmp	 SHORT $LN152@draw_havoc
$LN151@draw_havoc:
  01902	f3 0f 5a 45 ec	 cvtss2sd xmm0, DWORD PTR _value$[ebp]
  01907	66 0f 2f 05 00
	00 00 00	 comisd	 xmm0, QWORD PTR __real@405b800000000000
  0190f	76 12		 jbe	 SHORT $LN149@draw_havoc
  01911	f2 0f 10 05 00
	00 00 00	 movsd	 xmm0, QWORD PTR __real@405b800000000000
  01919	f2 0f 11 85 60
	ff ff ff	 movsd	 QWORD PTR tv812[ebp], xmm0
  01921	eb 0d		 jmp	 SHORT $LN150@draw_havoc
$LN149@draw_havoc:
  01923	f3 0f 5a 45 ec	 cvtss2sd xmm0, DWORD PTR _value$[ebp]
  01928	f2 0f 11 85 60
	ff ff ff	 movsd	 QWORD PTR tv812[ebp], xmm0
$LN150@draw_havoc:
  01930	f2 0f 10 85 60
	ff ff ff	 movsd	 xmm0, QWORD PTR tv812[ebp]
  01938	f2 0f 11 85 68
	ff ff ff	 movsd	 QWORD PTR tv813[ebp], xmm0
$LN152@draw_havoc:
  01940	f2 0f 5a 85 68
	ff ff ff	 cvtsd2ss xmm0, QWORD PTR tv813[ebp]
  01948	f3 0f 11 45 ec	 movss	 DWORD PTR _value$[ebp], xmm0

; 2494 : 			lower_value = bound(value, 0.0, 60.0);

  0194d	f3 0f 5a 45 ec	 cvtss2sd xmm0, DWORD PTR _value$[ebp]
  01952	0f 57 c9	 xorps	 xmm1, xmm1
  01955	66 0f 2f c8	 comisd	 xmm1, xmm0
  01959	76 0d		 jbe	 SHORT $LN155@draw_havoc
  0195b	0f 57 c0	 xorps	 xmm0, xmm0
  0195e	f2 0f 11 85 68
	ff ff ff	 movsd	 QWORD PTR tv821[ebp], xmm0
  01966	eb 3e		 jmp	 SHORT $LN156@draw_havoc
$LN155@draw_havoc:
  01968	f3 0f 5a 45 ec	 cvtss2sd xmm0, DWORD PTR _value$[ebp]
  0196d	66 0f 2f 05 00
	00 00 00	 comisd	 xmm0, QWORD PTR __real@404e000000000000
  01975	76 12		 jbe	 SHORT $LN153@draw_havoc
  01977	f2 0f 10 05 00
	00 00 00	 movsd	 xmm0, QWORD PTR __real@404e000000000000
  0197f	f2 0f 11 85 60
	ff ff ff	 movsd	 QWORD PTR tv820[ebp], xmm0
  01987	eb 0d		 jmp	 SHORT $LN154@draw_havoc
$LN153@draw_havoc:
  01989	f3 0f 5a 45 ec	 cvtss2sd xmm0, DWORD PTR _value$[ebp]
  0198e	f2 0f 11 85 60
	ff ff ff	 movsd	 QWORD PTR tv820[ebp], xmm0
$LN154@draw_havoc:
  01996	f2 0f 10 85 60
	ff ff ff	 movsd	 xmm0, QWORD PTR tv820[ebp]
  0199e	f2 0f 11 85 68
	ff ff ff	 movsd	 QWORD PTR tv821[ebp], xmm0
$LN156@draw_havoc:
  019a6	f2 0f 5a 85 68
	ff ff ff	 cvtsd2ss xmm0, QWORD PTR tv821[ebp]
  019ae	f3 0f 11 45 b8	 movss	 DWORD PTR _lower_value$3[ebp], xmm0

; 2495 : 			lower_value *= 0.725;

  019b3	f3 0f 5a 45 b8	 cvtss2sd xmm0, DWORD PTR _lower_value$3[ebp]
  019b8	f2 0f 59 05 00
	00 00 00	 mulsd	 xmm0, QWORD PTR __real@3fe7333333333333
  019c0	f2 0f 5a c0	 cvtsd2ss xmm0, xmm0
  019c4	f3 0f 11 45 b8	 movss	 DWORD PTR _lower_value$3[ebp], xmm0

; 2496 : 			middle_value = bound(value - 60.0, 0.0, 40.0);

  019c9	f3 0f 5a 45 ec	 cvtss2sd xmm0, DWORD PTR _value$[ebp]
  019ce	f2 0f 5c 05 00
	00 00 00	 subsd	 xmm0, QWORD PTR __real@404e000000000000
  019d6	0f 57 c9	 xorps	 xmm1, xmm1
  019d9	66 0f 2f c8	 comisd	 xmm1, xmm0
  019dd	76 0d		 jbe	 SHORT $LN159@draw_havoc
  019df	0f 57 c0	 xorps	 xmm0, xmm0
  019e2	f2 0f 11 85 68
	ff ff ff	 movsd	 QWORD PTR tv835[ebp], xmm0
  019ea	eb 4e		 jmp	 SHORT $LN160@draw_havoc
$LN159@draw_havoc:
  019ec	f3 0f 5a 45 ec	 cvtss2sd xmm0, DWORD PTR _value$[ebp]
  019f1	f2 0f 5c 05 00
	00 00 00	 subsd	 xmm0, QWORD PTR __real@404e000000000000
  019f9	66 0f 2f 05 00
	00 00 00	 comisd	 xmm0, QWORD PTR __real@4044000000000000
  01a01	76 12		 jbe	 SHORT $LN157@draw_havoc
  01a03	f2 0f 10 05 00
	00 00 00	 movsd	 xmm0, QWORD PTR __real@4044000000000000
  01a0b	f2 0f 11 85 60
	ff ff ff	 movsd	 QWORD PTR tv834[ebp], xmm0
  01a13	eb 15		 jmp	 SHORT $LN158@draw_havoc
$LN157@draw_havoc:
  01a15	f3 0f 5a 45 ec	 cvtss2sd xmm0, DWORD PTR _value$[ebp]
  01a1a	f2 0f 5c 05 00
	00 00 00	 subsd	 xmm0, QWORD PTR __real@404e000000000000
  01a22	f2 0f 11 85 60
	ff ff ff	 movsd	 QWORD PTR tv834[ebp], xmm0
$LN158@draw_havoc:
  01a2a	f2 0f 10 85 60
	ff ff ff	 movsd	 xmm0, QWORD PTR tv834[ebp]
  01a32	f2 0f 11 85 68
	ff ff ff	 movsd	 QWORD PTR tv835[ebp], xmm0
$LN160@draw_havoc:
  01a3a	f2 0f 5a 85 68
	ff ff ff	 cvtsd2ss xmm0, QWORD PTR tv835[ebp]
  01a42	f3 0f 11 45 b4	 movss	 DWORD PTR _middle_value$2[ebp], xmm0

; 2497 : 			middle_value *= 3.2;

  01a47	f3 0f 5a 45 b4	 cvtss2sd xmm0, DWORD PTR _middle_value$2[ebp]
  01a4c	f2 0f 59 05 00
	00 00 00	 mulsd	 xmm0, QWORD PTR __real@400999999999999a
  01a54	f2 0f 5a c0	 cvtsd2ss xmm0, xmm0
  01a58	f3 0f 11 45 b4	 movss	 DWORD PTR _middle_value$2[ebp], xmm0

; 2498 : 			upper_value = bound(value - 100.0, 0.0, 100.0);

  01a5d	f3 0f 5a 45 ec	 cvtss2sd xmm0, DWORD PTR _value$[ebp]
  01a62	f2 0f 5c 05 00
	00 00 00	 subsd	 xmm0, QWORD PTR __real@4059000000000000
  01a6a	0f 57 c9	 xorps	 xmm1, xmm1
  01a6d	66 0f 2f c8	 comisd	 xmm1, xmm0
  01a71	76 0d		 jbe	 SHORT $LN163@draw_havoc
  01a73	0f 57 c0	 xorps	 xmm0, xmm0
  01a76	f2 0f 11 85 68
	ff ff ff	 movsd	 QWORD PTR tv849[ebp], xmm0
  01a7e	eb 4e		 jmp	 SHORT $LN164@draw_havoc
$LN163@draw_havoc:
  01a80	f3 0f 5a 45 ec	 cvtss2sd xmm0, DWORD PTR _value$[ebp]
  01a85	f2 0f 5c 05 00
	00 00 00	 subsd	 xmm0, QWORD PTR __real@4059000000000000
  01a8d	66 0f 2f 05 00
	00 00 00	 comisd	 xmm0, QWORD PTR __real@4059000000000000
  01a95	76 12		 jbe	 SHORT $LN161@draw_havoc
  01a97	f2 0f 10 05 00
	00 00 00	 movsd	 xmm0, QWORD PTR __real@4059000000000000
  01a9f	f2 0f 11 85 60
	ff ff ff	 movsd	 QWORD PTR tv848[ebp], xmm0
  01aa7	eb 15		 jmp	 SHORT $LN162@draw_havoc
$LN161@draw_havoc:
  01aa9	f3 0f 5a 45 ec	 cvtss2sd xmm0, DWORD PTR _value$[ebp]
  01aae	f2 0f 5c 05 00
	00 00 00	 subsd	 xmm0, QWORD PTR __real@4059000000000000
  01ab6	f2 0f 11 85 60
	ff ff ff	 movsd	 QWORD PTR tv848[ebp], xmm0
$LN162@draw_havoc:
  01abe	f2 0f 10 85 60
	ff ff ff	 movsd	 xmm0, QWORD PTR tv848[ebp]
  01ac6	f2 0f 11 85 68
	ff ff ff	 movsd	 QWORD PTR tv849[ebp], xmm0
$LN164@draw_havoc:
  01ace	f2 0f 5a 85 68
	ff ff ff	 cvtsd2ss xmm0, QWORD PTR tv849[ebp]
  01ad6	f3 0f 11 45 b0	 movss	 DWORD PTR _upper_value$1[ebp], xmm0

; 2499 : 			upper_value *= 0.302;

  01adb	f3 0f 5a 45 b0	 cvtss2sd xmm0, DWORD PTR _upper_value$1[ebp]
  01ae0	f2 0f 59 05 00
	00 00 00	 mulsd	 xmm0, QWORD PTR __real@3fd353f7ced91687
  01ae8	f2 0f 5a c0	 cvtsd2ss xmm0, xmm0
  01aec	f3 0f 11 45 b0	 movss	 DWORD PTR _upper_value$1[ebp], xmm0

; 2500 : 			value = lower_value + middle_value + upper_value;

  01af1	f3 0f 10 45 b8	 movss	 xmm0, DWORD PTR _lower_value$3[ebp]
  01af6	f3 0f 58 45 b4	 addss	 xmm0, DWORD PTR _middle_value$2[ebp]
  01afb	f3 0f 58 45 b0	 addss	 xmm0, DWORD PTR _upper_value$1[ebp]
  01b00	f3 0f 11 45 ec	 movss	 DWORD PTR _value$[ebp], xmm0

; 2501 : 		    centre_x = 142 * width / 512;

  01b05	f3 0f 10 05 00
	00 00 00	 movss	 xmm0, DWORD PTR __real@430e0000
  01b0d	f3 0f 59 45 f4	 mulss	 xmm0, DWORD PTR _width$[ebp]
  01b12	f3 0f 5e 05 00
	00 00 00	 divss	 xmm0, DWORD PTR __real@44000000
  01b1a	f3 0f 11 45 dc	 movss	 DWORD PTR _centre_x$[ebp], xmm0

; 2502 : 	    	centre_y = 475 * height / 512;

  01b1f	f3 0f 10 05 00
	00 00 00	 movss	 xmm0, DWORD PTR __real@43ed8000
  01b27	f3 0f 59 45 f0	 mulss	 xmm0, DWORD PTR _height$[ebp]
  01b2c	f3 0f 5e 05 00
	00 00 00	 divss	 xmm0, DWORD PTR __real@44000000
  01b34	f3 0f 11 45 d8	 movss	 DWORD PTR _centre_y$[ebp], xmm0

; 2503 : 		    dot_x = centre_x;

  01b39	f3 0f 10 45 dc	 movss	 xmm0, DWORD PTR _centre_x$[ebp]
  01b3e	f3 0f 11 45 d4	 movss	 DWORD PTR _dot_x$[ebp], xmm0

; 2504 : 	    	dot_y = centre_y - value * height / 512;

  01b43	f3 0f 10 45 ec	 movss	 xmm0, DWORD PTR _value$[ebp]
  01b48	f3 0f 59 45 f0	 mulss	 xmm0, DWORD PTR _height$[ebp]
  01b4d	f3 0f 5e 05 00
	00 00 00	 divss	 xmm0, DWORD PTR __real@44000000
  01b55	f3 0f 10 4d d8	 movss	 xmm1, DWORD PTR _centre_y$[ebp]
  01b5a	f3 0f 5c c8	 subss	 xmm1, xmm0
  01b5e	f3 0f 11 4d d0	 movss	 DWORD PTR _dot_y$[ebp], xmm1

; 2505 : 			draw_arrow (centre_x, centre_y, dot_x, dot_y, width / 128, height / 128, yellow_needle_colour);

  01b63	a1 00 00 00 00	 mov	 eax, DWORD PTR ?yellow_needle_colour@@3UREAL_COLOUR@@A
  01b68	50		 push	 eax
  01b69	f3 0f 10 45 f0	 movss	 xmm0, DWORD PTR _height$[ebp]
  01b6e	f3 0f 5e 05 00
	00 00 00	 divss	 xmm0, DWORD PTR __real@43000000
  01b76	51		 push	 ecx
  01b77	f3 0f 11 04 24	 movss	 DWORD PTR [esp], xmm0
  01b7c	f3 0f 10 45 f4	 movss	 xmm0, DWORD PTR _width$[ebp]
  01b81	f3 0f 5e 05 00
	00 00 00	 divss	 xmm0, DWORD PTR __real@43000000
  01b89	51		 push	 ecx
  01b8a	f3 0f 11 04 24	 movss	 DWORD PTR [esp], xmm0
  01b8f	51		 push	 ecx
  01b90	f3 0f 10 45 d0	 movss	 xmm0, DWORD PTR _dot_y$[ebp]
  01b95	f3 0f 11 04 24	 movss	 DWORD PTR [esp], xmm0
  01b9a	51		 push	 ecx
  01b9b	f3 0f 10 45 d4	 movss	 xmm0, DWORD PTR _dot_x$[ebp]
  01ba0	f3 0f 11 04 24	 movss	 DWORD PTR [esp], xmm0
  01ba5	51		 push	 ecx
  01ba6	f3 0f 10 45 d8	 movss	 xmm0, DWORD PTR _centre_y$[ebp]
  01bab	f3 0f 11 04 24	 movss	 DWORD PTR [esp], xmm0
  01bb0	51		 push	 ecx
  01bb1	f3 0f 10 45 dc	 movss	 xmm0, DWORD PTR _centre_x$[ebp]
  01bb6	f3 0f 11 04 24	 movss	 DWORD PTR [esp], xmm0
  01bbb	e8 00 00 00 00	 call	 ?draw_arrow@@YGXMMMMMMUREAL_COLOUR@@@Z ; draw_arrow

; 2506 : 
; 2507 : 			/* Right engine N1 RPM */
; 2508 : 			value = current_flight_dynamics->right_engine_n1_rpm.value;

  01bc0	a1 00 00 00 00	 mov	 eax, DWORD PTR ?current_flight_dynamics@@3PAUDYNAMICS_TYPE@@A ; current_flight_dynamics
  01bc5	f3 0f 10 80 f4
	1c 00 00	 movss	 xmm0, DWORD PTR [eax+7412]
  01bcd	f3 0f 11 45 ec	 movss	 DWORD PTR _value$[ebp], xmm0

; 2509 : 			value = bound (value, 0.0, 110.0);

  01bd2	f3 0f 5a 45 ec	 cvtss2sd xmm0, DWORD PTR _value$[ebp]
  01bd7	0f 57 c9	 xorps	 xmm1, xmm1
  01bda	66 0f 2f c8	 comisd	 xmm1, xmm0
  01bde	76 0d		 jbe	 SHORT $LN167@draw_havoc
  01be0	0f 57 c0	 xorps	 xmm0, xmm0
  01be3	f2 0f 11 85 68
	ff ff ff	 movsd	 QWORD PTR tv880[ebp], xmm0
  01beb	eb 3e		 jmp	 SHORT $LN168@draw_havoc
$LN167@draw_havoc:
  01bed	f3 0f 5a 45 ec	 cvtss2sd xmm0, DWORD PTR _value$[ebp]
  01bf2	66 0f 2f 05 00
	00 00 00	 comisd	 xmm0, QWORD PTR __real@405b800000000000
  01bfa	76 12		 jbe	 SHORT $LN165@draw_havoc
  01bfc	f2 0f 10 05 00
	00 00 00	 movsd	 xmm0, QWORD PTR __real@405b800000000000
  01c04	f2 0f 11 85 60
	ff ff ff	 movsd	 QWORD PTR tv879[ebp], xmm0
  01c0c	eb 0d		 jmp	 SHORT $LN166@draw_havoc
$LN165@draw_havoc:
  01c0e	f3 0f 5a 45 ec	 cvtss2sd xmm0, DWORD PTR _value$[ebp]
  01c13	f2 0f 11 85 60
	ff ff ff	 movsd	 QWORD PTR tv879[ebp], xmm0
$LN166@draw_havoc:
  01c1b	f2 0f 10 85 60
	ff ff ff	 movsd	 xmm0, QWORD PTR tv879[ebp]
  01c23	f2 0f 11 85 68
	ff ff ff	 movsd	 QWORD PTR tv880[ebp], xmm0
$LN168@draw_havoc:
  01c2b	f2 0f 5a 85 68
	ff ff ff	 cvtsd2ss xmm0, QWORD PTR tv880[ebp]
  01c33	f3 0f 11 45 ec	 movss	 DWORD PTR _value$[ebp], xmm0

; 2510 : 			lower_value = bound(value, 0.0, 60.0);

  01c38	f3 0f 5a 45 ec	 cvtss2sd xmm0, DWORD PTR _value$[ebp]
  01c3d	0f 57 c9	 xorps	 xmm1, xmm1
  01c40	66 0f 2f c8	 comisd	 xmm1, xmm0
  01c44	76 0d		 jbe	 SHORT $LN171@draw_havoc
  01c46	0f 57 c0	 xorps	 xmm0, xmm0
  01c49	f2 0f 11 85 68
	ff ff ff	 movsd	 QWORD PTR tv888[ebp], xmm0
  01c51	eb 3e		 jmp	 SHORT $LN172@draw_havoc
$LN171@draw_havoc:
  01c53	f3 0f 5a 45 ec	 cvtss2sd xmm0, DWORD PTR _value$[ebp]
  01c58	66 0f 2f 05 00
	00 00 00	 comisd	 xmm0, QWORD PTR __real@404e000000000000
  01c60	76 12		 jbe	 SHORT $LN169@draw_havoc
  01c62	f2 0f 10 05 00
	00 00 00	 movsd	 xmm0, QWORD PTR __real@404e000000000000
  01c6a	f2 0f 11 85 60
	ff ff ff	 movsd	 QWORD PTR tv887[ebp], xmm0
  01c72	eb 0d		 jmp	 SHORT $LN170@draw_havoc
$LN169@draw_havoc:
  01c74	f3 0f 5a 45 ec	 cvtss2sd xmm0, DWORD PTR _value$[ebp]
  01c79	f2 0f 11 85 60
	ff ff ff	 movsd	 QWORD PTR tv887[ebp], xmm0
$LN170@draw_havoc:
  01c81	f2 0f 10 85 60
	ff ff ff	 movsd	 xmm0, QWORD PTR tv887[ebp]
  01c89	f2 0f 11 85 68
	ff ff ff	 movsd	 QWORD PTR tv888[ebp], xmm0
$LN172@draw_havoc:
  01c91	f2 0f 5a 85 68
	ff ff ff	 cvtsd2ss xmm0, QWORD PTR tv888[ebp]
  01c99	f3 0f 11 45 b8	 movss	 DWORD PTR _lower_value$3[ebp], xmm0

; 2511 : 			lower_value *= 0.725;

  01c9e	f3 0f 5a 45 b8	 cvtss2sd xmm0, DWORD PTR _lower_value$3[ebp]
  01ca3	f2 0f 59 05 00
	00 00 00	 mulsd	 xmm0, QWORD PTR __real@3fe7333333333333
  01cab	f2 0f 5a c0	 cvtsd2ss xmm0, xmm0
  01caf	f3 0f 11 45 b8	 movss	 DWORD PTR _lower_value$3[ebp], xmm0

; 2512 : 			middle_value = bound(value - 60.0, 0.0, 40.0);

  01cb4	f3 0f 5a 45 ec	 cvtss2sd xmm0, DWORD PTR _value$[ebp]
  01cb9	f2 0f 5c 05 00
	00 00 00	 subsd	 xmm0, QWORD PTR __real@404e000000000000
  01cc1	0f 57 c9	 xorps	 xmm1, xmm1
  01cc4	66 0f 2f c8	 comisd	 xmm1, xmm0
  01cc8	76 0d		 jbe	 SHORT $LN175@draw_havoc
  01cca	0f 57 c0	 xorps	 xmm0, xmm0
  01ccd	f2 0f 11 85 68
	ff ff ff	 movsd	 QWORD PTR tv902[ebp], xmm0
  01cd5	eb 4e		 jmp	 SHORT $LN176@draw_havoc
$LN175@draw_havoc:
  01cd7	f3 0f 5a 45 ec	 cvtss2sd xmm0, DWORD PTR _value$[ebp]
  01cdc	f2 0f 5c 05 00
	00 00 00	 subsd	 xmm0, QWORD PTR __real@404e000000000000
  01ce4	66 0f 2f 05 00
	00 00 00	 comisd	 xmm0, QWORD PTR __real@4044000000000000
  01cec	76 12		 jbe	 SHORT $LN173@draw_havoc
  01cee	f2 0f 10 05 00
	00 00 00	 movsd	 xmm0, QWORD PTR __real@4044000000000000
  01cf6	f2 0f 11 85 60
	ff ff ff	 movsd	 QWORD PTR tv901[ebp], xmm0
  01cfe	eb 15		 jmp	 SHORT $LN174@draw_havoc
$LN173@draw_havoc:
  01d00	f3 0f 5a 45 ec	 cvtss2sd xmm0, DWORD PTR _value$[ebp]
  01d05	f2 0f 5c 05 00
	00 00 00	 subsd	 xmm0, QWORD PTR __real@404e000000000000
  01d0d	f2 0f 11 85 60
	ff ff ff	 movsd	 QWORD PTR tv901[ebp], xmm0
$LN174@draw_havoc:
  01d15	f2 0f 10 85 60
	ff ff ff	 movsd	 xmm0, QWORD PTR tv901[ebp]
  01d1d	f2 0f 11 85 68
	ff ff ff	 movsd	 QWORD PTR tv902[ebp], xmm0
$LN176@draw_havoc:
  01d25	f2 0f 5a 85 68
	ff ff ff	 cvtsd2ss xmm0, QWORD PTR tv902[ebp]
  01d2d	f3 0f 11 45 b4	 movss	 DWORD PTR _middle_value$2[ebp], xmm0

; 2513 : 			middle_value *= 3.2;

  01d32	f3 0f 5a 45 b4	 cvtss2sd xmm0, DWORD PTR _middle_value$2[ebp]
  01d37	f2 0f 59 05 00
	00 00 00	 mulsd	 xmm0, QWORD PTR __real@400999999999999a
  01d3f	f2 0f 5a c0	 cvtsd2ss xmm0, xmm0
  01d43	f3 0f 11 45 b4	 movss	 DWORD PTR _middle_value$2[ebp], xmm0

; 2514 : 			upper_value = bound(value - 100.0, 0.0, 100.0);

  01d48	f3 0f 5a 45 ec	 cvtss2sd xmm0, DWORD PTR _value$[ebp]
  01d4d	f2 0f 5c 05 00
	00 00 00	 subsd	 xmm0, QWORD PTR __real@4059000000000000
  01d55	0f 57 c9	 xorps	 xmm1, xmm1
  01d58	66 0f 2f c8	 comisd	 xmm1, xmm0
  01d5c	76 0d		 jbe	 SHORT $LN179@draw_havoc
  01d5e	0f 57 c0	 xorps	 xmm0, xmm0
  01d61	f2 0f 11 85 68
	ff ff ff	 movsd	 QWORD PTR tv916[ebp], xmm0
  01d69	eb 4e		 jmp	 SHORT $LN180@draw_havoc
$LN179@draw_havoc:
  01d6b	f3 0f 5a 45 ec	 cvtss2sd xmm0, DWORD PTR _value$[ebp]
  01d70	f2 0f 5c 05 00
	00 00 00	 subsd	 xmm0, QWORD PTR __real@4059000000000000
  01d78	66 0f 2f 05 00
	00 00 00	 comisd	 xmm0, QWORD PTR __real@4059000000000000
  01d80	76 12		 jbe	 SHORT $LN177@draw_havoc
  01d82	f2 0f 10 05 00
	00 00 00	 movsd	 xmm0, QWORD PTR __real@4059000000000000
  01d8a	f2 0f 11 85 60
	ff ff ff	 movsd	 QWORD PTR tv915[ebp], xmm0
  01d92	eb 15		 jmp	 SHORT $LN178@draw_havoc
$LN177@draw_havoc:
  01d94	f3 0f 5a 45 ec	 cvtss2sd xmm0, DWORD PTR _value$[ebp]
  01d99	f2 0f 5c 05 00
	00 00 00	 subsd	 xmm0, QWORD PTR __real@4059000000000000
  01da1	f2 0f 11 85 60
	ff ff ff	 movsd	 QWORD PTR tv915[ebp], xmm0
$LN178@draw_havoc:
  01da9	f2 0f 10 85 60
	ff ff ff	 movsd	 xmm0, QWORD PTR tv915[ebp]
  01db1	f2 0f 11 85 68
	ff ff ff	 movsd	 QWORD PTR tv916[ebp], xmm0
$LN180@draw_havoc:
  01db9	f2 0f 5a 85 68
	ff ff ff	 cvtsd2ss xmm0, QWORD PTR tv916[ebp]
  01dc1	f3 0f 11 45 b0	 movss	 DWORD PTR _upper_value$1[ebp], xmm0

; 2515 : 			upper_value *= 0.302;

  01dc6	f3 0f 5a 45 b0	 cvtss2sd xmm0, DWORD PTR _upper_value$1[ebp]
  01dcb	f2 0f 59 05 00
	00 00 00	 mulsd	 xmm0, QWORD PTR __real@3fd353f7ced91687
  01dd3	f2 0f 5a c0	 cvtsd2ss xmm0, xmm0
  01dd7	f3 0f 11 45 b0	 movss	 DWORD PTR _upper_value$1[ebp], xmm0

; 2516 : 			value = lower_value + middle_value + upper_value;

  01ddc	f3 0f 10 45 b8	 movss	 xmm0, DWORD PTR _lower_value$3[ebp]
  01de1	f3 0f 58 45 b4	 addss	 xmm0, DWORD PTR _middle_value$2[ebp]
  01de6	f3 0f 58 45 b0	 addss	 xmm0, DWORD PTR _upper_value$1[ebp]
  01deb	f3 0f 11 45 ec	 movss	 DWORD PTR _value$[ebp], xmm0

; 2517 : 		    centre_x = 186 * width / 512;

  01df0	f3 0f 10 05 00
	00 00 00	 movss	 xmm0, DWORD PTR __real@433a0000
  01df8	f3 0f 59 45 f4	 mulss	 xmm0, DWORD PTR _width$[ebp]
  01dfd	f3 0f 5e 05 00
	00 00 00	 divss	 xmm0, DWORD PTR __real@44000000
  01e05	f3 0f 11 45 dc	 movss	 DWORD PTR _centre_x$[ebp], xmm0

; 2518 : 	    	centre_y = 475 * height / 512;

  01e0a	f3 0f 10 05 00
	00 00 00	 movss	 xmm0, DWORD PTR __real@43ed8000
  01e12	f3 0f 59 45 f0	 mulss	 xmm0, DWORD PTR _height$[ebp]
  01e17	f3 0f 5e 05 00
	00 00 00	 divss	 xmm0, DWORD PTR __real@44000000
  01e1f	f3 0f 11 45 d8	 movss	 DWORD PTR _centre_y$[ebp], xmm0

; 2519 : 		    dot_x = centre_x;

  01e24	f3 0f 10 45 dc	 movss	 xmm0, DWORD PTR _centre_x$[ebp]
  01e29	f3 0f 11 45 d4	 movss	 DWORD PTR _dot_x$[ebp], xmm0

; 2520 : 	    	dot_y = centre_y - value * height / 512;

  01e2e	f3 0f 10 45 ec	 movss	 xmm0, DWORD PTR _value$[ebp]
  01e33	f3 0f 59 45 f0	 mulss	 xmm0, DWORD PTR _height$[ebp]
  01e38	f3 0f 5e 05 00
	00 00 00	 divss	 xmm0, DWORD PTR __real@44000000
  01e40	f3 0f 10 4d d8	 movss	 xmm1, DWORD PTR _centre_y$[ebp]
  01e45	f3 0f 5c c8	 subss	 xmm1, xmm0
  01e49	f3 0f 11 4d d0	 movss	 DWORD PTR _dot_y$[ebp], xmm1

; 2521 : 			draw_arrow (centre_x, centre_y, dot_x, dot_y, width / 128, height / 128, yellow_needle_colour);

  01e4e	a1 00 00 00 00	 mov	 eax, DWORD PTR ?yellow_needle_colour@@3UREAL_COLOUR@@A
  01e53	50		 push	 eax
  01e54	f3 0f 10 45 f0	 movss	 xmm0, DWORD PTR _height$[ebp]
  01e59	f3 0f 5e 05 00
	00 00 00	 divss	 xmm0, DWORD PTR __real@43000000
  01e61	51		 push	 ecx
  01e62	f3 0f 11 04 24	 movss	 DWORD PTR [esp], xmm0
  01e67	f3 0f 10 45 f4	 movss	 xmm0, DWORD PTR _width$[ebp]
  01e6c	f3 0f 5e 05 00
	00 00 00	 divss	 xmm0, DWORD PTR __real@43000000
  01e74	51		 push	 ecx
  01e75	f3 0f 11 04 24	 movss	 DWORD PTR [esp], xmm0
  01e7a	51		 push	 ecx
  01e7b	f3 0f 10 45 d0	 movss	 xmm0, DWORD PTR _dot_y$[ebp]
  01e80	f3 0f 11 04 24	 movss	 DWORD PTR [esp], xmm0
  01e85	51		 push	 ecx
  01e86	f3 0f 10 45 d4	 movss	 xmm0, DWORD PTR _dot_x$[ebp]
  01e8b	f3 0f 11 04 24	 movss	 DWORD PTR [esp], xmm0
  01e90	51		 push	 ecx
  01e91	f3 0f 10 45 d8	 movss	 xmm0, DWORD PTR _centre_y$[ebp]
  01e96	f3 0f 11 04 24	 movss	 DWORD PTR [esp], xmm0
  01e9b	51		 push	 ecx
  01e9c	f3 0f 10 45 dc	 movss	 xmm0, DWORD PTR _centre_x$[ebp]
  01ea1	f3 0f 11 04 24	 movss	 DWORD PTR [esp], xmm0
  01ea6	e8 00 00 00 00	 call	 ?draw_arrow@@YGXMMMMMMUREAL_COLOUR@@@Z ; draw_arrow

; 2522 : 	
; 2523 : 			/* Left engine temperature */
; 2524 : 			value = current_flight_dynamics->left_engine_temp.value;

  01eab	a1 00 00 00 00	 mov	 eax, DWORD PTR ?current_flight_dynamics@@3PAUDYNAMICS_TYPE@@A ; current_flight_dynamics
  01eb0	f3 0f 10 80 c4
	1c 00 00	 movss	 xmm0, DWORD PTR [eax+7364]
  01eb8	f3 0f 11 45 ec	 movss	 DWORD PTR _value$[ebp], xmm0

; 2525 : 			value = bound (value, 0.0, 1000.0);

  01ebd	f3 0f 5a 45 ec	 cvtss2sd xmm0, DWORD PTR _value$[ebp]
  01ec2	0f 57 c9	 xorps	 xmm1, xmm1
  01ec5	66 0f 2f c8	 comisd	 xmm1, xmm0
  01ec9	76 0d		 jbe	 SHORT $LN183@draw_havoc
  01ecb	0f 57 c0	 xorps	 xmm0, xmm0
  01ece	f2 0f 11 85 68
	ff ff ff	 movsd	 QWORD PTR tv947[ebp], xmm0
  01ed6	eb 3e		 jmp	 SHORT $LN184@draw_havoc
$LN183@draw_havoc:
  01ed8	f3 0f 5a 45 ec	 cvtss2sd xmm0, DWORD PTR _value$[ebp]
  01edd	66 0f 2f 05 00
	00 00 00	 comisd	 xmm0, QWORD PTR __real@408f400000000000
  01ee5	76 12		 jbe	 SHORT $LN181@draw_havoc
  01ee7	f2 0f 10 05 00
	00 00 00	 movsd	 xmm0, QWORD PTR __real@408f400000000000
  01eef	f2 0f 11 85 60
	ff ff ff	 movsd	 QWORD PTR tv946[ebp], xmm0
  01ef7	eb 0d		 jmp	 SHORT $LN182@draw_havoc
$LN181@draw_havoc:
  01ef9	f3 0f 5a 45 ec	 cvtss2sd xmm0, DWORD PTR _value$[ebp]
  01efe	f2 0f 11 85 60
	ff ff ff	 movsd	 QWORD PTR tv946[ebp], xmm0
$LN182@draw_havoc:
  01f06	f2 0f 10 85 60
	ff ff ff	 movsd	 xmm0, QWORD PTR tv946[ebp]
  01f0e	f2 0f 11 85 68
	ff ff ff	 movsd	 QWORD PTR tv947[ebp], xmm0
$LN184@draw_havoc:
  01f16	f2 0f 5a 85 68
	ff ff ff	 cvtsd2ss xmm0, QWORD PTR tv947[ebp]
  01f1e	f3 0f 11 45 ec	 movss	 DWORD PTR _value$[ebp], xmm0

; 2526 : 			lower_value = bound(value, 0.0, 600.0);

  01f23	f3 0f 5a 45 ec	 cvtss2sd xmm0, DWORD PTR _value$[ebp]
  01f28	0f 57 c9	 xorps	 xmm1, xmm1
  01f2b	66 0f 2f c8	 comisd	 xmm1, xmm0
  01f2f	76 0d		 jbe	 SHORT $LN187@draw_havoc
  01f31	0f 57 c0	 xorps	 xmm0, xmm0
  01f34	f2 0f 11 85 68
	ff ff ff	 movsd	 QWORD PTR tv955[ebp], xmm0
  01f3c	eb 3e		 jmp	 SHORT $LN188@draw_havoc
$LN187@draw_havoc:
  01f3e	f3 0f 5a 45 ec	 cvtss2sd xmm0, DWORD PTR _value$[ebp]
  01f43	66 0f 2f 05 00
	00 00 00	 comisd	 xmm0, QWORD PTR __real@4082c00000000000
  01f4b	76 12		 jbe	 SHORT $LN185@draw_havoc
  01f4d	f2 0f 10 05 00
	00 00 00	 movsd	 xmm0, QWORD PTR __real@4082c00000000000
  01f55	f2 0f 11 85 60
	ff ff ff	 movsd	 QWORD PTR tv954[ebp], xmm0
  01f5d	eb 0d		 jmp	 SHORT $LN186@draw_havoc
$LN185@draw_havoc:
  01f5f	f3 0f 5a 45 ec	 cvtss2sd xmm0, DWORD PTR _value$[ebp]
  01f64	f2 0f 11 85 60
	ff ff ff	 movsd	 QWORD PTR tv954[ebp], xmm0
$LN186@draw_havoc:
  01f6c	f2 0f 10 85 60
	ff ff ff	 movsd	 xmm0, QWORD PTR tv954[ebp]
  01f74	f2 0f 11 85 68
	ff ff ff	 movsd	 QWORD PTR tv955[ebp], xmm0
$LN188@draw_havoc:
  01f7c	f2 0f 5a 85 68
	ff ff ff	 cvtsd2ss xmm0, QWORD PTR tv955[ebp]
  01f84	f3 0f 11 45 b8	 movss	 DWORD PTR _lower_value$3[ebp], xmm0

; 2527 : 			lower_value *= 0.11;

  01f89	f3 0f 5a 45 b8	 cvtss2sd xmm0, DWORD PTR _lower_value$3[ebp]
  01f8e	f2 0f 59 05 00
	00 00 00	 mulsd	 xmm0, QWORD PTR __real@3fbc28f5c28f5c29
  01f96	f2 0f 5a c0	 cvtsd2ss xmm0, xmm0
  01f9a	f3 0f 11 45 b8	 movss	 DWORD PTR _lower_value$3[ebp], xmm0

; 2528 : 			upper_value = bound(value - 600.0, 0.0, 400.0);

  01f9f	f3 0f 5a 45 ec	 cvtss2sd xmm0, DWORD PTR _value$[ebp]
  01fa4	f2 0f 5c 05 00
	00 00 00	 subsd	 xmm0, QWORD PTR __real@4082c00000000000
  01fac	0f 57 c9	 xorps	 xmm1, xmm1
  01faf	66 0f 2f c8	 comisd	 xmm1, xmm0
  01fb3	76 0d		 jbe	 SHORT $LN191@draw_havoc
  01fb5	0f 57 c0	 xorps	 xmm0, xmm0
  01fb8	f2 0f 11 85 68
	ff ff ff	 movsd	 QWORD PTR tv969[ebp], xmm0
  01fc0	eb 4e		 jmp	 SHORT $LN192@draw_havoc
$LN191@draw_havoc:
  01fc2	f3 0f 5a 45 ec	 cvtss2sd xmm0, DWORD PTR _value$[ebp]
  01fc7	f2 0f 5c 05 00
	00 00 00	 subsd	 xmm0, QWORD PTR __real@4082c00000000000
  01fcf	66 0f 2f 05 00
	00 00 00	 comisd	 xmm0, QWORD PTR __real@4079000000000000
  01fd7	76 12		 jbe	 SHORT $LN189@draw_havoc
  01fd9	f2 0f 10 05 00
	00 00 00	 movsd	 xmm0, QWORD PTR __real@4079000000000000
  01fe1	f2 0f 11 85 60
	ff ff ff	 movsd	 QWORD PTR tv968[ebp], xmm0
  01fe9	eb 15		 jmp	 SHORT $LN190@draw_havoc
$LN189@draw_havoc:
  01feb	f3 0f 5a 45 ec	 cvtss2sd xmm0, DWORD PTR _value$[ebp]
  01ff0	f2 0f 5c 05 00
	00 00 00	 subsd	 xmm0, QWORD PTR __real@4082c00000000000
  01ff8	f2 0f 11 85 60
	ff ff ff	 movsd	 QWORD PTR tv968[ebp], xmm0
$LN190@draw_havoc:
  02000	f2 0f 10 85 60
	ff ff ff	 movsd	 xmm0, QWORD PTR tv968[ebp]
  02008	f2 0f 11 85 68
	ff ff ff	 movsd	 QWORD PTR tv969[ebp], xmm0
$LN192@draw_havoc:
  02010	f2 0f 5a 85 68
	ff ff ff	 cvtsd2ss xmm0, QWORD PTR tv969[ebp]
  02018	f3 0f 11 45 b0	 movss	 DWORD PTR _upper_value$1[ebp], xmm0

; 2529 : 			upper_value *= 0.32;

  0201d	f3 0f 5a 45 b0	 cvtss2sd xmm0, DWORD PTR _upper_value$1[ebp]
  02022	f2 0f 59 05 00
	00 00 00	 mulsd	 xmm0, QWORD PTR __real@3fd47ae147ae147b
  0202a	f2 0f 5a c0	 cvtsd2ss xmm0, xmm0
  0202e	f3 0f 11 45 b0	 movss	 DWORD PTR _upper_value$1[ebp], xmm0

; 2530 : 			value = lower_value + upper_value;

  02033	f3 0f 10 45 b8	 movss	 xmm0, DWORD PTR _lower_value$3[ebp]
  02038	f3 0f 58 45 b0	 addss	 xmm0, DWORD PTR _upper_value$1[ebp]
  0203d	f3 0f 11 45 ec	 movss	 DWORD PTR _value$[ebp], xmm0

; 2531 : 		    centre_x = 135 * width / 512;

  02042	f3 0f 10 05 00
	00 00 00	 movss	 xmm0, DWORD PTR __real@43070000
  0204a	f3 0f 59 45 f4	 mulss	 xmm0, DWORD PTR _width$[ebp]
  0204f	f3 0f 5e 05 00
	00 00 00	 divss	 xmm0, DWORD PTR __real@44000000
  02057	f3 0f 11 45 dc	 movss	 DWORD PTR _centre_x$[ebp], xmm0

; 2532 : 	    	centre_y = 475 * height / 512;

  0205c	f3 0f 10 05 00
	00 00 00	 movss	 xmm0, DWORD PTR __real@43ed8000
  02064	f3 0f 59 45 f0	 mulss	 xmm0, DWORD PTR _height$[ebp]
  02069	f3 0f 5e 05 00
	00 00 00	 divss	 xmm0, DWORD PTR __real@44000000
  02071	f3 0f 11 45 d8	 movss	 DWORD PTR _centre_y$[ebp], xmm0

; 2533 : 		    dot_x = centre_x;

  02076	f3 0f 10 45 dc	 movss	 xmm0, DWORD PTR _centre_x$[ebp]
  0207b	f3 0f 11 45 d4	 movss	 DWORD PTR _dot_x$[ebp], xmm0

; 2534 : 	    	dot_y = centre_y - value * height / 512;

  02080	f3 0f 10 45 ec	 movss	 xmm0, DWORD PTR _value$[ebp]
  02085	f3 0f 59 45 f0	 mulss	 xmm0, DWORD PTR _height$[ebp]
  0208a	f3 0f 5e 05 00
	00 00 00	 divss	 xmm0, DWORD PTR __real@44000000
  02092	f3 0f 10 4d d8	 movss	 xmm1, DWORD PTR _centre_y$[ebp]
  02097	f3 0f 5c c8	 subss	 xmm1, xmm0
  0209b	f3 0f 11 4d d0	 movss	 DWORD PTR _dot_y$[ebp], xmm1

; 2535 : 			draw_arrow (centre_x, centre_y, dot_x, dot_y, width / 128, height / 128, red_needle_colour);

  020a0	a1 00 00 00 00	 mov	 eax, DWORD PTR ?red_needle_colour@@3UREAL_COLOUR@@A
  020a5	50		 push	 eax
  020a6	f3 0f 10 45 f0	 movss	 xmm0, DWORD PTR _height$[ebp]
  020ab	f3 0f 5e 05 00
	00 00 00	 divss	 xmm0, DWORD PTR __real@43000000
  020b3	51		 push	 ecx
  020b4	f3 0f 11 04 24	 movss	 DWORD PTR [esp], xmm0
  020b9	f3 0f 10 45 f4	 movss	 xmm0, DWORD PTR _width$[ebp]
  020be	f3 0f 5e 05 00
	00 00 00	 divss	 xmm0, DWORD PTR __real@43000000
  020c6	51		 push	 ecx
  020c7	f3 0f 11 04 24	 movss	 DWORD PTR [esp], xmm0
  020cc	51		 push	 ecx
  020cd	f3 0f 10 45 d0	 movss	 xmm0, DWORD PTR _dot_y$[ebp]
  020d2	f3 0f 11 04 24	 movss	 DWORD PTR [esp], xmm0
  020d7	51		 push	 ecx
  020d8	f3 0f 10 45 d4	 movss	 xmm0, DWORD PTR _dot_x$[ebp]
  020dd	f3 0f 11 04 24	 movss	 DWORD PTR [esp], xmm0
  020e2	51		 push	 ecx
  020e3	f3 0f 10 45 d8	 movss	 xmm0, DWORD PTR _centre_y$[ebp]
  020e8	f3 0f 11 04 24	 movss	 DWORD PTR [esp], xmm0
  020ed	51		 push	 ecx
  020ee	f3 0f 10 45 dc	 movss	 xmm0, DWORD PTR _centre_x$[ebp]
  020f3	f3 0f 11 04 24	 movss	 DWORD PTR [esp], xmm0
  020f8	e8 00 00 00 00	 call	 ?draw_arrow@@YGXMMMMMMUREAL_COLOUR@@@Z ; draw_arrow

; 2536 : 
; 2537 : 			/* Right engine temperature */
; 2538 : 			value = current_flight_dynamics->right_engine_temp.value;

  020fd	a1 00 00 00 00	 mov	 eax, DWORD PTR ?current_flight_dynamics@@3PAUDYNAMICS_TYPE@@A ; current_flight_dynamics
  02102	f3 0f 10 80 24
	1d 00 00	 movss	 xmm0, DWORD PTR [eax+7460]
  0210a	f3 0f 11 45 ec	 movss	 DWORD PTR _value$[ebp], xmm0

; 2539 : 			value = bound (value, 0.0, 1000.0);

  0210f	f3 0f 5a 45 ec	 cvtss2sd xmm0, DWORD PTR _value$[ebp]
  02114	0f 57 c9	 xorps	 xmm1, xmm1
  02117	66 0f 2f c8	 comisd	 xmm1, xmm0
  0211b	76 0d		 jbe	 SHORT $LN195@draw_havoc
  0211d	0f 57 c0	 xorps	 xmm0, xmm0
  02120	f2 0f 11 85 68
	ff ff ff	 movsd	 QWORD PTR tv999[ebp], xmm0
  02128	eb 3e		 jmp	 SHORT $LN196@draw_havoc
$LN195@draw_havoc:
  0212a	f3 0f 5a 45 ec	 cvtss2sd xmm0, DWORD PTR _value$[ebp]
  0212f	66 0f 2f 05 00
	00 00 00	 comisd	 xmm0, QWORD PTR __real@408f400000000000
  02137	76 12		 jbe	 SHORT $LN193@draw_havoc
  02139	f2 0f 10 05 00
	00 00 00	 movsd	 xmm0, QWORD PTR __real@408f400000000000
  02141	f2 0f 11 85 60
	ff ff ff	 movsd	 QWORD PTR tv998[ebp], xmm0
  02149	eb 0d		 jmp	 SHORT $LN194@draw_havoc
$LN193@draw_havoc:
  0214b	f3 0f 5a 45 ec	 cvtss2sd xmm0, DWORD PTR _value$[ebp]
  02150	f2 0f 11 85 60
	ff ff ff	 movsd	 QWORD PTR tv998[ebp], xmm0
$LN194@draw_havoc:
  02158	f2 0f 10 85 60
	ff ff ff	 movsd	 xmm0, QWORD PTR tv998[ebp]
  02160	f2 0f 11 85 68
	ff ff ff	 movsd	 QWORD PTR tv999[ebp], xmm0
$LN196@draw_havoc:
  02168	f2 0f 5a 85 68
	ff ff ff	 cvtsd2ss xmm0, QWORD PTR tv999[ebp]
  02170	f3 0f 11 45 ec	 movss	 DWORD PTR _value$[ebp], xmm0

; 2540 : 			lower_value = bound(value, 0.0, 600.0);

  02175	f3 0f 5a 45 ec	 cvtss2sd xmm0, DWORD PTR _value$[ebp]
  0217a	0f 57 c9	 xorps	 xmm1, xmm1
  0217d	66 0f 2f c8	 comisd	 xmm1, xmm0
  02181	76 0d		 jbe	 SHORT $LN199@draw_havoc
  02183	0f 57 c0	 xorps	 xmm0, xmm0
  02186	f2 0f 11 85 68
	ff ff ff	 movsd	 QWORD PTR tv1007[ebp], xmm0
  0218e	eb 3e		 jmp	 SHORT $LN200@draw_havoc
$LN199@draw_havoc:
  02190	f3 0f 5a 45 ec	 cvtss2sd xmm0, DWORD PTR _value$[ebp]
  02195	66 0f 2f 05 00
	00 00 00	 comisd	 xmm0, QWORD PTR __real@4082c00000000000
  0219d	76 12		 jbe	 SHORT $LN197@draw_havoc
  0219f	f2 0f 10 05 00
	00 00 00	 movsd	 xmm0, QWORD PTR __real@4082c00000000000
  021a7	f2 0f 11 85 60
	ff ff ff	 movsd	 QWORD PTR tv1006[ebp], xmm0
  021af	eb 0d		 jmp	 SHORT $LN198@draw_havoc
$LN197@draw_havoc:
  021b1	f3 0f 5a 45 ec	 cvtss2sd xmm0, DWORD PTR _value$[ebp]
  021b6	f2 0f 11 85 60
	ff ff ff	 movsd	 QWORD PTR tv1006[ebp], xmm0
$LN198@draw_havoc:
  021be	f2 0f 10 85 60
	ff ff ff	 movsd	 xmm0, QWORD PTR tv1006[ebp]
  021c6	f2 0f 11 85 68
	ff ff ff	 movsd	 QWORD PTR tv1007[ebp], xmm0
$LN200@draw_havoc:
  021ce	f2 0f 5a 85 68
	ff ff ff	 cvtsd2ss xmm0, QWORD PTR tv1007[ebp]
  021d6	f3 0f 11 45 b8	 movss	 DWORD PTR _lower_value$3[ebp], xmm0

; 2541 : 			lower_value *= 0.11;

  021db	f3 0f 5a 45 b8	 cvtss2sd xmm0, DWORD PTR _lower_value$3[ebp]
  021e0	f2 0f 59 05 00
	00 00 00	 mulsd	 xmm0, QWORD PTR __real@3fbc28f5c28f5c29
  021e8	f2 0f 5a c0	 cvtsd2ss xmm0, xmm0
  021ec	f3 0f 11 45 b8	 movss	 DWORD PTR _lower_value$3[ebp], xmm0

; 2542 : 			upper_value = bound(value - 600.0, 0.0, 400.0);

  021f1	f3 0f 5a 45 ec	 cvtss2sd xmm0, DWORD PTR _value$[ebp]
  021f6	f2 0f 5c 05 00
	00 00 00	 subsd	 xmm0, QWORD PTR __real@4082c00000000000
  021fe	0f 57 c9	 xorps	 xmm1, xmm1
  02201	66 0f 2f c8	 comisd	 xmm1, xmm0
  02205	76 0d		 jbe	 SHORT $LN203@draw_havoc
  02207	0f 57 c0	 xorps	 xmm0, xmm0
  0220a	f2 0f 11 85 68
	ff ff ff	 movsd	 QWORD PTR tv1021[ebp], xmm0
  02212	eb 4e		 jmp	 SHORT $LN204@draw_havoc
$LN203@draw_havoc:
  02214	f3 0f 5a 45 ec	 cvtss2sd xmm0, DWORD PTR _value$[ebp]
  02219	f2 0f 5c 05 00
	00 00 00	 subsd	 xmm0, QWORD PTR __real@4082c00000000000
  02221	66 0f 2f 05 00
	00 00 00	 comisd	 xmm0, QWORD PTR __real@4079000000000000
  02229	76 12		 jbe	 SHORT $LN201@draw_havoc
  0222b	f2 0f 10 05 00
	00 00 00	 movsd	 xmm0, QWORD PTR __real@4079000000000000
  02233	f2 0f 11 85 60
	ff ff ff	 movsd	 QWORD PTR tv1020[ebp], xmm0
  0223b	eb 15		 jmp	 SHORT $LN202@draw_havoc
$LN201@draw_havoc:
  0223d	f3 0f 5a 45 ec	 cvtss2sd xmm0, DWORD PTR _value$[ebp]
  02242	f2 0f 5c 05 00
	00 00 00	 subsd	 xmm0, QWORD PTR __real@4082c00000000000
  0224a	f2 0f 11 85 60
	ff ff ff	 movsd	 QWORD PTR tv1020[ebp], xmm0
$LN202@draw_havoc:
  02252	f2 0f 10 85 60
	ff ff ff	 movsd	 xmm0, QWORD PTR tv1020[ebp]
  0225a	f2 0f 11 85 68
	ff ff ff	 movsd	 QWORD PTR tv1021[ebp], xmm0
$LN204@draw_havoc:
  02262	f2 0f 5a 85 68
	ff ff ff	 cvtsd2ss xmm0, QWORD PTR tv1021[ebp]
  0226a	f3 0f 11 45 b0	 movss	 DWORD PTR _upper_value$1[ebp], xmm0

; 2543 : 			upper_value *= 0.32;

  0226f	f3 0f 5a 45 b0	 cvtss2sd xmm0, DWORD PTR _upper_value$1[ebp]
  02274	f2 0f 59 05 00
	00 00 00	 mulsd	 xmm0, QWORD PTR __real@3fd47ae147ae147b
  0227c	f2 0f 5a c0	 cvtsd2ss xmm0, xmm0
  02280	f3 0f 11 45 b0	 movss	 DWORD PTR _upper_value$1[ebp], xmm0

; 2544 : 			value = lower_value + upper_value;

  02285	f3 0f 10 45 b8	 movss	 xmm0, DWORD PTR _lower_value$3[ebp]
  0228a	f3 0f 58 45 b0	 addss	 xmm0, DWORD PTR _upper_value$1[ebp]
  0228f	f3 0f 11 45 ec	 movss	 DWORD PTR _value$[ebp], xmm0

; 2545 : 		    centre_x = 193 * width / 512;

  02294	f3 0f 10 05 00
	00 00 00	 movss	 xmm0, DWORD PTR __real@43410000
  0229c	f3 0f 59 45 f4	 mulss	 xmm0, DWORD PTR _width$[ebp]
  022a1	f3 0f 5e 05 00
	00 00 00	 divss	 xmm0, DWORD PTR __real@44000000
  022a9	f3 0f 11 45 dc	 movss	 DWORD PTR _centre_x$[ebp], xmm0

; 2546 : 	    	centre_y = 475 * height / 512;

  022ae	f3 0f 10 05 00
	00 00 00	 movss	 xmm0, DWORD PTR __real@43ed8000
  022b6	f3 0f 59 45 f0	 mulss	 xmm0, DWORD PTR _height$[ebp]
  022bb	f3 0f 5e 05 00
	00 00 00	 divss	 xmm0, DWORD PTR __real@44000000
  022c3	f3 0f 11 45 d8	 movss	 DWORD PTR _centre_y$[ebp], xmm0

; 2547 : 		    dot_x = centre_x;

  022c8	f3 0f 10 45 dc	 movss	 xmm0, DWORD PTR _centre_x$[ebp]
  022cd	f3 0f 11 45 d4	 movss	 DWORD PTR _dot_x$[ebp], xmm0

; 2548 : 	    	dot_y = centre_y - value * height / 512;

  022d2	f3 0f 10 45 ec	 movss	 xmm0, DWORD PTR _value$[ebp]
  022d7	f3 0f 59 45 f0	 mulss	 xmm0, DWORD PTR _height$[ebp]
  022dc	f3 0f 5e 05 00
	00 00 00	 divss	 xmm0, DWORD PTR __real@44000000
  022e4	f3 0f 10 4d d8	 movss	 xmm1, DWORD PTR _centre_y$[ebp]
  022e9	f3 0f 5c c8	 subss	 xmm1, xmm0
  022ed	f3 0f 11 4d d0	 movss	 DWORD PTR _dot_y$[ebp], xmm1

; 2549 : 			draw_arrow (centre_x, centre_y, dot_x, dot_y, width / 128, height / 128, red_needle_colour);

  022f2	a1 00 00 00 00	 mov	 eax, DWORD PTR ?red_needle_colour@@3UREAL_COLOUR@@A
  022f7	50		 push	 eax
  022f8	f3 0f 10 45 f0	 movss	 xmm0, DWORD PTR _height$[ebp]
  022fd	f3 0f 5e 05 00
	00 00 00	 divss	 xmm0, DWORD PTR __real@43000000
  02305	51		 push	 ecx
  02306	f3 0f 11 04 24	 movss	 DWORD PTR [esp], xmm0
  0230b	f3 0f 10 45 f4	 movss	 xmm0, DWORD PTR _width$[ebp]
  02310	f3 0f 5e 05 00
	00 00 00	 divss	 xmm0, DWORD PTR __real@43000000
  02318	51		 push	 ecx
  02319	f3 0f 11 04 24	 movss	 DWORD PTR [esp], xmm0
  0231e	51		 push	 ecx
  0231f	f3 0f 10 45 d0	 movss	 xmm0, DWORD PTR _dot_y$[ebp]
  02324	f3 0f 11 04 24	 movss	 DWORD PTR [esp], xmm0
  02329	51		 push	 ecx
  0232a	f3 0f 10 45 d4	 movss	 xmm0, DWORD PTR _dot_x$[ebp]
  0232f	f3 0f 11 04 24	 movss	 DWORD PTR [esp], xmm0
  02334	51		 push	 ecx
  02335	f3 0f 10 45 d8	 movss	 xmm0, DWORD PTR _centre_y$[ebp]
  0233a	f3 0f 11 04 24	 movss	 DWORD PTR [esp], xmm0
  0233f	51		 push	 ecx
  02340	f3 0f 10 45 dc	 movss	 xmm0, DWORD PTR _centre_x$[ebp]
  02345	f3 0f 11 04 24	 movss	 DWORD PTR [esp], xmm0
  0234a	e8 00 00 00 00	 call	 ?draw_arrow@@YGXMMMMMMUREAL_COLOUR@@@Z ; draw_arrow

; 2550 : 	
; 2551 : 			/* Draw status lamps */
; 2552 : 			draw_sprite (width / 512, height / 512, havoc_lamps.status_1 , 167,  48, 58, 26, 332,   2,  22,  11, 120);

  0234f	a1 00 00 00 00	 mov	 eax, DWORD PTR ?havoc_lamps@@3UHAVOC_LAMP_FLAGS@@A
  02354	c1 e8 19	 shr	 eax, 25			; 00000019H
  02357	83 e0 01	 and	 eax, 1
  0235a	0f 84 82 00 00
	00		 je	 $LN22@draw_havoc
  02360	6a 78		 push	 120			; 00000078H
  02362	6a 0b		 push	 11			; 0000000bH
  02364	6a 16		 push	 22			; 00000016H
  02366	6a 02		 push	 2
  02368	68 4c 01 00 00	 push	 332			; 0000014cH
  0236d	f3 0f 10 05 00
	00 00 00	 movss	 xmm0, DWORD PTR __real@41d00000
  02375	f3 0f 59 45 f0	 mulss	 xmm0, DWORD PTR _height$[ebp]
  0237a	f3 0f 5e 05 00
	00 00 00	 divss	 xmm0, DWORD PTR __real@44000000
  02382	f3 0f 2c c0	 cvttss2si eax, xmm0
  02386	50		 push	 eax
  02387	f3 0f 10 05 00
	00 00 00	 movss	 xmm0, DWORD PTR __real@42680000
  0238f	f3 0f 59 45 f4	 mulss	 xmm0, DWORD PTR _width$[ebp]
  02394	f3 0f 5e 05 00
	00 00 00	 divss	 xmm0, DWORD PTR __real@44000000
  0239c	f3 0f 2c c8	 cvttss2si ecx, xmm0
  023a0	51		 push	 ecx
  023a1	f3 0f 10 05 00
	00 00 00	 movss	 xmm0, DWORD PTR __real@42400000
  023a9	f3 0f 59 45 f0	 mulss	 xmm0, DWORD PTR _height$[ebp]
  023ae	f3 0f 5e 05 00
	00 00 00	 divss	 xmm0, DWORD PTR __real@44000000
  023b6	f3 0f 2c d0	 cvttss2si edx, xmm0
  023ba	52		 push	 edx
  023bb	f3 0f 10 05 00
	00 00 00	 movss	 xmm0, DWORD PTR __real@43270000
  023c3	f3 0f 59 45 f4	 mulss	 xmm0, DWORD PTR _width$[ebp]
  023c8	f3 0f 5e 05 00
	00 00 00	 divss	 xmm0, DWORD PTR __real@44000000
  023d0	f3 0f 2c c0	 cvttss2si eax, xmm0
  023d4	50		 push	 eax
  023d5	8b 4d c4	 mov	 ecx, DWORD PTR _mask_data$[ebp]
  023d8	51		 push	 ecx
  023d9	8b 55 c8	 mov	 edx, DWORD PTR _sprite_data$[ebp]
  023dc	52		 push	 edx
  023dd	e8 00 00 00 00	 call	 ?blit_rgb_alpha_masked_sprite_zero_mask_value_scaled@@YGXPBE0HHHHHHHHE@Z ; blit_rgb_alpha_masked_sprite_zero_mask_value_scaled
$LN22@draw_havoc:

; 2553 : 			draw_sprite (width / 512, height / 512, havoc_lamps.status_2 , 227,  48, 58, 26, 354,   2,  22,  11, 117);

  023e2	a1 00 00 00 00	 mov	 eax, DWORD PTR ?havoc_lamps@@3UHAVOC_LAMP_FLAGS@@A
  023e7	c1 e8 1a	 shr	 eax, 26			; 0000001aH
  023ea	83 e0 01	 and	 eax, 1
  023ed	0f 84 82 00 00
	00		 je	 $LN23@draw_havoc
  023f3	6a 75		 push	 117			; 00000075H
  023f5	6a 0b		 push	 11			; 0000000bH
  023f7	6a 16		 push	 22			; 00000016H
  023f9	6a 02		 push	 2
  023fb	68 62 01 00 00	 push	 354			; 00000162H
  02400	f3 0f 10 05 00
	00 00 00	 movss	 xmm0, DWORD PTR __real@41d00000
  02408	f3 0f 59 45 f0	 mulss	 xmm0, DWORD PTR _height$[ebp]
  0240d	f3 0f 5e 05 00
	00 00 00	 divss	 xmm0, DWORD PTR __real@44000000
  02415	f3 0f 2c c0	 cvttss2si eax, xmm0
  02419	50		 push	 eax
  0241a	f3 0f 10 05 00
	00 00 00	 movss	 xmm0, DWORD PTR __real@42680000
  02422	f3 0f 59 45 f4	 mulss	 xmm0, DWORD PTR _width$[ebp]
  02427	f3 0f 5e 05 00
	00 00 00	 divss	 xmm0, DWORD PTR __real@44000000
  0242f	f3 0f 2c c8	 cvttss2si ecx, xmm0
  02433	51		 push	 ecx
  02434	f3 0f 10 05 00
	00 00 00	 movss	 xmm0, DWORD PTR __real@42400000
  0243c	f3 0f 59 45 f0	 mulss	 xmm0, DWORD PTR _height$[ebp]
  02441	f3 0f 5e 05 00
	00 00 00	 divss	 xmm0, DWORD PTR __real@44000000
  02449	f3 0f 2c d0	 cvttss2si edx, xmm0
  0244d	52		 push	 edx
  0244e	f3 0f 10 05 00
	00 00 00	 movss	 xmm0, DWORD PTR __real@43630000
  02456	f3 0f 59 45 f4	 mulss	 xmm0, DWORD PTR _width$[ebp]
  0245b	f3 0f 5e 05 00
	00 00 00	 divss	 xmm0, DWORD PTR __real@44000000
  02463	f3 0f 2c c0	 cvttss2si eax, xmm0
  02467	50		 push	 eax
  02468	8b 4d c4	 mov	 ecx, DWORD PTR _mask_data$[ebp]
  0246b	51		 push	 ecx
  0246c	8b 55 c8	 mov	 edx, DWORD PTR _sprite_data$[ebp]
  0246f	52		 push	 edx
  02470	e8 00 00 00 00	 call	 ?blit_rgb_alpha_masked_sprite_zero_mask_value_scaled@@YGXPBE0HHHHHHHHE@Z ; blit_rgb_alpha_masked_sprite_zero_mask_value_scaled
$LN23@draw_havoc:

; 2554 : 			draw_sprite (width / 512, height / 512, havoc_lamps.status_3 , 288,  48, 58, 26, 376,   2,  22,  11, 115);

  02475	a1 00 00 00 00	 mov	 eax, DWORD PTR ?havoc_lamps@@3UHAVOC_LAMP_FLAGS@@A
  0247a	c1 e8 1b	 shr	 eax, 27			; 0000001bH
  0247d	83 e0 01	 and	 eax, 1
  02480	0f 84 82 00 00
	00		 je	 $LN24@draw_havoc
  02486	6a 73		 push	 115			; 00000073H
  02488	6a 0b		 push	 11			; 0000000bH
  0248a	6a 16		 push	 22			; 00000016H
  0248c	6a 02		 push	 2
  0248e	68 78 01 00 00	 push	 376			; 00000178H
  02493	f3 0f 10 05 00
	00 00 00	 movss	 xmm0, DWORD PTR __real@41d00000
  0249b	f3 0f 59 45 f0	 mulss	 xmm0, DWORD PTR _height$[ebp]
  024a0	f3 0f 5e 05 00
	00 00 00	 divss	 xmm0, DWORD PTR __real@44000000
  024a8	f3 0f 2c c0	 cvttss2si eax, xmm0
  024ac	50		 push	 eax
  024ad	f3 0f 10 05 00
	00 00 00	 movss	 xmm0, DWORD PTR __real@42680000
  024b5	f3 0f 59 45 f4	 mulss	 xmm0, DWORD PTR _width$[ebp]
  024ba	f3 0f 5e 05 00
	00 00 00	 divss	 xmm0, DWORD PTR __real@44000000
  024c2	f3 0f 2c c8	 cvttss2si ecx, xmm0
  024c6	51		 push	 ecx
  024c7	f3 0f 10 05 00
	00 00 00	 movss	 xmm0, DWORD PTR __real@42400000
  024cf	f3 0f 59 45 f0	 mulss	 xmm0, DWORD PTR _height$[ebp]
  024d4	f3 0f 5e 05 00
	00 00 00	 divss	 xmm0, DWORD PTR __real@44000000
  024dc	f3 0f 2c d0	 cvttss2si edx, xmm0
  024e0	52		 push	 edx
  024e1	f3 0f 10 05 00
	00 00 00	 movss	 xmm0, DWORD PTR __real@43900000
  024e9	f3 0f 59 45 f4	 mulss	 xmm0, DWORD PTR _width$[ebp]
  024ee	f3 0f 5e 05 00
	00 00 00	 divss	 xmm0, DWORD PTR __real@44000000
  024f6	f3 0f 2c c0	 cvttss2si eax, xmm0
  024fa	50		 push	 eax
  024fb	8b 4d c4	 mov	 ecx, DWORD PTR _mask_data$[ebp]
  024fe	51		 push	 ecx
  024ff	8b 55 c8	 mov	 edx, DWORD PTR _sprite_data$[ebp]
  02502	52		 push	 edx
  02503	e8 00 00 00 00	 call	 ?blit_rgb_alpha_masked_sprite_zero_mask_value_scaled@@YGXPBE0HHHHHHHHE@Z ; blit_rgb_alpha_masked_sprite_zero_mask_value_scaled
$LN24@draw_havoc:

; 2555 : 			draw_sprite (width / 512, height / 512, havoc_lamps.status_4 , 167,  76, 58, 26, 332,  13,  22,  11, 112);

  02508	a1 00 00 00 00	 mov	 eax, DWORD PTR ?havoc_lamps@@3UHAVOC_LAMP_FLAGS@@A
  0250d	c1 e8 1c	 shr	 eax, 28			; 0000001cH
  02510	83 e0 01	 and	 eax, 1
  02513	0f 84 82 00 00
	00		 je	 $LN25@draw_havoc
  02519	6a 70		 push	 112			; 00000070H
  0251b	6a 0b		 push	 11			; 0000000bH
  0251d	6a 16		 push	 22			; 00000016H
  0251f	6a 0d		 push	 13			; 0000000dH
  02521	68 4c 01 00 00	 push	 332			; 0000014cH
  02526	f3 0f 10 05 00
	00 00 00	 movss	 xmm0, DWORD PTR __real@41d00000
  0252e	f3 0f 59 45 f0	 mulss	 xmm0, DWORD PTR _height$[ebp]
  02533	f3 0f 5e 05 00
	00 00 00	 divss	 xmm0, DWORD PTR __real@44000000
  0253b	f3 0f 2c c0	 cvttss2si eax, xmm0
  0253f	50		 push	 eax
  02540	f3 0f 10 05 00
	00 00 00	 movss	 xmm0, DWORD PTR __real@42680000
  02548	f3 0f 59 45 f4	 mulss	 xmm0, DWORD PTR _width$[ebp]
  0254d	f3 0f 5e 05 00
	00 00 00	 divss	 xmm0, DWORD PTR __real@44000000
  02555	f3 0f 2c c8	 cvttss2si ecx, xmm0
  02559	51		 push	 ecx
  0255a	f3 0f 10 05 00
	00 00 00	 movss	 xmm0, DWORD PTR __real@42980000
  02562	f3 0f 59 45 f0	 mulss	 xmm0, DWORD PTR _height$[ebp]
  02567	f3 0f 5e 05 00
	00 00 00	 divss	 xmm0, DWORD PTR __real@44000000
  0256f	f3 0f 2c d0	 cvttss2si edx, xmm0
  02573	52		 push	 edx
  02574	f3 0f 10 05 00
	00 00 00	 movss	 xmm0, DWORD PTR __real@43270000
  0257c	f3 0f 59 45 f4	 mulss	 xmm0, DWORD PTR _width$[ebp]
  02581	f3 0f 5e 05 00
	00 00 00	 divss	 xmm0, DWORD PTR __real@44000000
  02589	f3 0f 2c c0	 cvttss2si eax, xmm0
  0258d	50		 push	 eax
  0258e	8b 4d c4	 mov	 ecx, DWORD PTR _mask_data$[ebp]
  02591	51		 push	 ecx
  02592	8b 55 c8	 mov	 edx, DWORD PTR _sprite_data$[ebp]
  02595	52		 push	 edx
  02596	e8 00 00 00 00	 call	 ?blit_rgb_alpha_masked_sprite_zero_mask_value_scaled@@YGXPBE0HHHHHHHHE@Z ; blit_rgb_alpha_masked_sprite_zero_mask_value_scaled
$LN25@draw_havoc:

; 2556 : 			draw_sprite (width / 512, height / 512, havoc_lamps.status_5 , 227,  76, 58, 26, 354,  13,  22,  11, 110);

  0259b	a1 00 00 00 00	 mov	 eax, DWORD PTR ?havoc_lamps@@3UHAVOC_LAMP_FLAGS@@A
  025a0	c1 e8 1d	 shr	 eax, 29			; 0000001dH
  025a3	83 e0 01	 and	 eax, 1
  025a6	0f 84 82 00 00
	00		 je	 $LN26@draw_havoc
  025ac	6a 6e		 push	 110			; 0000006eH
  025ae	6a 0b		 push	 11			; 0000000bH
  025b0	6a 16		 push	 22			; 00000016H
  025b2	6a 0d		 push	 13			; 0000000dH
  025b4	68 62 01 00 00	 push	 354			; 00000162H
  025b9	f3 0f 10 05 00
	00 00 00	 movss	 xmm0, DWORD PTR __real@41d00000
  025c1	f3 0f 59 45 f0	 mulss	 xmm0, DWORD PTR _height$[ebp]
  025c6	f3 0f 5e 05 00
	00 00 00	 divss	 xmm0, DWORD PTR __real@44000000
  025ce	f3 0f 2c c0	 cvttss2si eax, xmm0
  025d2	50		 push	 eax
  025d3	f3 0f 10 05 00
	00 00 00	 movss	 xmm0, DWORD PTR __real@42680000
  025db	f3 0f 59 45 f4	 mulss	 xmm0, DWORD PTR _width$[ebp]
  025e0	f3 0f 5e 05 00
	00 00 00	 divss	 xmm0, DWORD PTR __real@44000000
  025e8	f3 0f 2c c8	 cvttss2si ecx, xmm0
  025ec	51		 push	 ecx
  025ed	f3 0f 10 05 00
	00 00 00	 movss	 xmm0, DWORD PTR __real@42980000
  025f5	f3 0f 59 45 f0	 mulss	 xmm0, DWORD PTR _height$[ebp]
  025fa	f3 0f 5e 05 00
	00 00 00	 divss	 xmm0, DWORD PTR __real@44000000
  02602	f3 0f 2c d0	 cvttss2si edx, xmm0
  02606	52		 push	 edx
  02607	f3 0f 10 05 00
	00 00 00	 movss	 xmm0, DWORD PTR __real@43630000
  0260f	f3 0f 59 45 f4	 mulss	 xmm0, DWORD PTR _width$[ebp]
  02614	f3 0f 5e 05 00
	00 00 00	 divss	 xmm0, DWORD PTR __real@44000000
  0261c	f3 0f 2c c0	 cvttss2si eax, xmm0
  02620	50		 push	 eax
  02621	8b 4d c4	 mov	 ecx, DWORD PTR _mask_data$[ebp]
  02624	51		 push	 ecx
  02625	8b 55 c8	 mov	 edx, DWORD PTR _sprite_data$[ebp]
  02628	52		 push	 edx
  02629	e8 00 00 00 00	 call	 ?blit_rgb_alpha_masked_sprite_zero_mask_value_scaled@@YGXPBE0HHHHHHHHE@Z ; blit_rgb_alpha_masked_sprite_zero_mask_value_scaled
$LN26@draw_havoc:

; 2557 : 			draw_sprite (width / 512, height / 512, havoc_lamps.status_6 , 288,  76, 58, 26, 376,  13,  22,  11, 107);

  0262e	a1 00 00 00 00	 mov	 eax, DWORD PTR ?havoc_lamps@@3UHAVOC_LAMP_FLAGS@@A
  02633	c1 e8 1e	 shr	 eax, 30			; 0000001eH
  02636	83 e0 01	 and	 eax, 1
  02639	0f 84 82 00 00
	00		 je	 $LN27@draw_havoc
  0263f	6a 6b		 push	 107			; 0000006bH
  02641	6a 0b		 push	 11			; 0000000bH
  02643	6a 16		 push	 22			; 00000016H
  02645	6a 0d		 push	 13			; 0000000dH
  02647	68 78 01 00 00	 push	 376			; 00000178H
  0264c	f3 0f 10 05 00
	00 00 00	 movss	 xmm0, DWORD PTR __real@41d00000
  02654	f3 0f 59 45 f0	 mulss	 xmm0, DWORD PTR _height$[ebp]
  02659	f3 0f 5e 05 00
	00 00 00	 divss	 xmm0, DWORD PTR __real@44000000
  02661	f3 0f 2c c0	 cvttss2si eax, xmm0
  02665	50		 push	 eax
  02666	f3 0f 10 05 00
	00 00 00	 movss	 xmm0, DWORD PTR __real@42680000
  0266e	f3 0f 59 45 f4	 mulss	 xmm0, DWORD PTR _width$[ebp]
  02673	f3 0f 5e 05 00
	00 00 00	 divss	 xmm0, DWORD PTR __real@44000000
  0267b	f3 0f 2c c8	 cvttss2si ecx, xmm0
  0267f	51		 push	 ecx
  02680	f3 0f 10 05 00
	00 00 00	 movss	 xmm0, DWORD PTR __real@42980000
  02688	f3 0f 59 45 f0	 mulss	 xmm0, DWORD PTR _height$[ebp]
  0268d	f3 0f 5e 05 00
	00 00 00	 divss	 xmm0, DWORD PTR __real@44000000
  02695	f3 0f 2c d0	 cvttss2si edx, xmm0
  02699	52		 push	 edx
  0269a	f3 0f 10 05 00
	00 00 00	 movss	 xmm0, DWORD PTR __real@43900000
  026a2	f3 0f 59 45 f4	 mulss	 xmm0, DWORD PTR _width$[ebp]
  026a7	f3 0f 5e 05 00
	00 00 00	 divss	 xmm0, DWORD PTR __real@44000000
  026af	f3 0f 2c c0	 cvttss2si eax, xmm0
  026b3	50		 push	 eax
  026b4	8b 4d c4	 mov	 ecx, DWORD PTR _mask_data$[ebp]
  026b7	51		 push	 ecx
  026b8	8b 55 c8	 mov	 edx, DWORD PTR _sprite_data$[ebp]
  026bb	52		 push	 edx
  026bc	e8 00 00 00 00	 call	 ?blit_rgb_alpha_masked_sprite_zero_mask_value_scaled@@YGXPBE0HHHHHHHHE@Z ; blit_rgb_alpha_masked_sprite_zero_mask_value_scaled
$LN27@draw_havoc:

; 2558 : 			draw_sprite (width / 512, height / 512, havoc_lamps.status_7 , 167, 104, 58, 26, 332,  24,  22,  11, 105);

  026c1	a1 00 00 00 00	 mov	 eax, DWORD PTR ?havoc_lamps@@3UHAVOC_LAMP_FLAGS@@A
  026c6	c1 e8 1f	 shr	 eax, 31			; 0000001fH
  026c9	83 e0 01	 and	 eax, 1
  026cc	0f 84 82 00 00
	00		 je	 $LN28@draw_havoc
  026d2	6a 69		 push	 105			; 00000069H
  026d4	6a 0b		 push	 11			; 0000000bH
  026d6	6a 16		 push	 22			; 00000016H
  026d8	6a 18		 push	 24			; 00000018H
  026da	68 4c 01 00 00	 push	 332			; 0000014cH
  026df	f3 0f 10 05 00
	00 00 00	 movss	 xmm0, DWORD PTR __real@41d00000
  026e7	f3 0f 59 45 f0	 mulss	 xmm0, DWORD PTR _height$[ebp]
  026ec	f3 0f 5e 05 00
	00 00 00	 divss	 xmm0, DWORD PTR __real@44000000
  026f4	f3 0f 2c c0	 cvttss2si eax, xmm0
  026f8	50		 push	 eax
  026f9	f3 0f 10 05 00
	00 00 00	 movss	 xmm0, DWORD PTR __real@42680000
  02701	f3 0f 59 45 f4	 mulss	 xmm0, DWORD PTR _width$[ebp]
  02706	f3 0f 5e 05 00
	00 00 00	 divss	 xmm0, DWORD PTR __real@44000000
  0270e	f3 0f 2c c8	 cvttss2si ecx, xmm0
  02712	51		 push	 ecx
  02713	f3 0f 10 05 00
	00 00 00	 movss	 xmm0, DWORD PTR __real@42d00000
  0271b	f3 0f 59 45 f0	 mulss	 xmm0, DWORD PTR _height$[ebp]
  02720	f3 0f 5e 05 00
	00 00 00	 divss	 xmm0, DWORD PTR __real@44000000
  02728	f3 0f 2c d0	 cvttss2si edx, xmm0
  0272c	52		 push	 edx
  0272d	f3 0f 10 05 00
	00 00 00	 movss	 xmm0, DWORD PTR __real@43270000
  02735	f3 0f 59 45 f4	 mulss	 xmm0, DWORD PTR _width$[ebp]
  0273a	f3 0f 5e 05 00
	00 00 00	 divss	 xmm0, DWORD PTR __real@44000000
  02742	f3 0f 2c c0	 cvttss2si eax, xmm0
  02746	50		 push	 eax
  02747	8b 4d c4	 mov	 ecx, DWORD PTR _mask_data$[ebp]
  0274a	51		 push	 ecx
  0274b	8b 55 c8	 mov	 edx, DWORD PTR _sprite_data$[ebp]
  0274e	52		 push	 edx
  0274f	e8 00 00 00 00	 call	 ?blit_rgb_alpha_masked_sprite_zero_mask_value_scaled@@YGXPBE0HHHHHHHHE@Z ; blit_rgb_alpha_masked_sprite_zero_mask_value_scaled
$LN28@draw_havoc:

; 2559 : 			draw_sprite (width / 512, height / 512, havoc_lamps.status_8 , 227, 104, 58, 26, 354,  24,  22,  11, 102);

  02754	a1 04 00 00 00	 mov	 eax, DWORD PTR ?havoc_lamps@@3UHAVOC_LAMP_FLAGS@@A+4
  02759	83 e0 01	 and	 eax, 1
  0275c	0f 84 82 00 00
	00		 je	 $LN29@draw_havoc
  02762	6a 66		 push	 102			; 00000066H
  02764	6a 0b		 push	 11			; 0000000bH
  02766	6a 16		 push	 22			; 00000016H
  02768	6a 18		 push	 24			; 00000018H
  0276a	68 62 01 00 00	 push	 354			; 00000162H
  0276f	f3 0f 10 05 00
	00 00 00	 movss	 xmm0, DWORD PTR __real@41d00000
  02777	f3 0f 59 45 f0	 mulss	 xmm0, DWORD PTR _height$[ebp]
  0277c	f3 0f 5e 05 00
	00 00 00	 divss	 xmm0, DWORD PTR __real@44000000
  02784	f3 0f 2c c0	 cvttss2si eax, xmm0
  02788	50		 push	 eax
  02789	f3 0f 10 05 00
	00 00 00	 movss	 xmm0, DWORD PTR __real@42680000
  02791	f3 0f 59 45 f4	 mulss	 xmm0, DWORD PTR _width$[ebp]
  02796	f3 0f 5e 05 00
	00 00 00	 divss	 xmm0, DWORD PTR __real@44000000
  0279e	f3 0f 2c c8	 cvttss2si ecx, xmm0
  027a2	51		 push	 ecx
  027a3	f3 0f 10 05 00
	00 00 00	 movss	 xmm0, DWORD PTR __real@42d00000
  027ab	f3 0f 59 45 f0	 mulss	 xmm0, DWORD PTR _height$[ebp]
  027b0	f3 0f 5e 05 00
	00 00 00	 divss	 xmm0, DWORD PTR __real@44000000
  027b8	f3 0f 2c d0	 cvttss2si edx, xmm0
  027bc	52		 push	 edx
  027bd	f3 0f 10 05 00
	00 00 00	 movss	 xmm0, DWORD PTR __real@43630000
  027c5	f3 0f 59 45 f4	 mulss	 xmm0, DWORD PTR _width$[ebp]
  027ca	f3 0f 5e 05 00
	00 00 00	 divss	 xmm0, DWORD PTR __real@44000000
  027d2	f3 0f 2c c0	 cvttss2si eax, xmm0
  027d6	50		 push	 eax
  027d7	8b 4d c4	 mov	 ecx, DWORD PTR _mask_data$[ebp]
  027da	51		 push	 ecx
  027db	8b 55 c8	 mov	 edx, DWORD PTR _sprite_data$[ebp]
  027de	52		 push	 edx
  027df	e8 00 00 00 00	 call	 ?blit_rgb_alpha_masked_sprite_zero_mask_value_scaled@@YGXPBE0HHHHHHHHE@Z ; blit_rgb_alpha_masked_sprite_zero_mask_value_scaled
$LN29@draw_havoc:

; 2560 : 			draw_sprite (width / 512, height / 512, havoc_lamps.status_9 , 288, 104, 58, 26, 376,  24,  22,  11,  99);

  027e4	a1 04 00 00 00	 mov	 eax, DWORD PTR ?havoc_lamps@@3UHAVOC_LAMP_FLAGS@@A+4
  027e9	d1 e8		 shr	 eax, 1
  027eb	83 e0 01	 and	 eax, 1
  027ee	0f 84 82 00 00
	00		 je	 $LN30@draw_havoc
  027f4	6a 63		 push	 99			; 00000063H
  027f6	6a 0b		 push	 11			; 0000000bH
  027f8	6a 16		 push	 22			; 00000016H
  027fa	6a 18		 push	 24			; 00000018H
  027fc	68 78 01 00 00	 push	 376			; 00000178H
  02801	f3 0f 10 05 00
	00 00 00	 movss	 xmm0, DWORD PTR __real@41d00000
  02809	f3 0f 59 45 f0	 mulss	 xmm0, DWORD PTR _height$[ebp]
  0280e	f3 0f 5e 05 00
	00 00 00	 divss	 xmm0, DWORD PTR __real@44000000
  02816	f3 0f 2c c0	 cvttss2si eax, xmm0
  0281a	50		 push	 eax
  0281b	f3 0f 10 05 00
	00 00 00	 movss	 xmm0, DWORD PTR __real@42680000
  02823	f3 0f 59 45 f4	 mulss	 xmm0, DWORD PTR _width$[ebp]
  02828	f3 0f 5e 05 00
	00 00 00	 divss	 xmm0, DWORD PTR __real@44000000
  02830	f3 0f 2c c8	 cvttss2si ecx, xmm0
  02834	51		 push	 ecx
  02835	f3 0f 10 05 00
	00 00 00	 movss	 xmm0, DWORD PTR __real@42d00000
  0283d	f3 0f 59 45 f0	 mulss	 xmm0, DWORD PTR _height$[ebp]
  02842	f3 0f 5e 05 00
	00 00 00	 divss	 xmm0, DWORD PTR __real@44000000
  0284a	f3 0f 2c d0	 cvttss2si edx, xmm0
  0284e	52		 push	 edx
  0284f	f3 0f 10 05 00
	00 00 00	 movss	 xmm0, DWORD PTR __real@43900000
  02857	f3 0f 59 45 f4	 mulss	 xmm0, DWORD PTR _width$[ebp]
  0285c	f3 0f 5e 05 00
	00 00 00	 divss	 xmm0, DWORD PTR __real@44000000
  02864	f3 0f 2c c0	 cvttss2si eax, xmm0
  02868	50		 push	 eax
  02869	8b 4d c4	 mov	 ecx, DWORD PTR _mask_data$[ebp]
  0286c	51		 push	 ecx
  0286d	8b 55 c8	 mov	 edx, DWORD PTR _sprite_data$[ebp]
  02870	52		 push	 edx
  02871	e8 00 00 00 00	 call	 ?blit_rgb_alpha_masked_sprite_zero_mask_value_scaled@@YGXPBE0HHHHHHHHE@Z ; blit_rgb_alpha_masked_sprite_zero_mask_value_scaled
$LN30@draw_havoc:

; 2561 : 			draw_sprite (width / 512, height / 512, havoc_lamps.status_10, 167, 133, 58, 26, 332,  35,  22,  11,  97);

  02876	a1 04 00 00 00	 mov	 eax, DWORD PTR ?havoc_lamps@@3UHAVOC_LAMP_FLAGS@@A+4
  0287b	c1 e8 02	 shr	 eax, 2
  0287e	83 e0 01	 and	 eax, 1
  02881	0f 84 82 00 00
	00		 je	 $LN31@draw_havoc
  02887	6a 61		 push	 97			; 00000061H
  02889	6a 0b		 push	 11			; 0000000bH
  0288b	6a 16		 push	 22			; 00000016H
  0288d	6a 23		 push	 35			; 00000023H
  0288f	68 4c 01 00 00	 push	 332			; 0000014cH
  02894	f3 0f 10 05 00
	00 00 00	 movss	 xmm0, DWORD PTR __real@41d00000
  0289c	f3 0f 59 45 f0	 mulss	 xmm0, DWORD PTR _height$[ebp]
  028a1	f3 0f 5e 05 00
	00 00 00	 divss	 xmm0, DWORD PTR __real@44000000
  028a9	f3 0f 2c c0	 cvttss2si eax, xmm0
  028ad	50		 push	 eax
  028ae	f3 0f 10 05 00
	00 00 00	 movss	 xmm0, DWORD PTR __real@42680000
  028b6	f3 0f 59 45 f4	 mulss	 xmm0, DWORD PTR _width$[ebp]
  028bb	f3 0f 5e 05 00
	00 00 00	 divss	 xmm0, DWORD PTR __real@44000000
  028c3	f3 0f 2c c8	 cvttss2si ecx, xmm0
  028c7	51		 push	 ecx
  028c8	f3 0f 10 05 00
	00 00 00	 movss	 xmm0, DWORD PTR __real@43050000
  028d0	f3 0f 59 45 f0	 mulss	 xmm0, DWORD PTR _height$[ebp]
  028d5	f3 0f 5e 05 00
	00 00 00	 divss	 xmm0, DWORD PTR __real@44000000
  028dd	f3 0f 2c d0	 cvttss2si edx, xmm0
  028e1	52		 push	 edx
  028e2	f3 0f 10 05 00
	00 00 00	 movss	 xmm0, DWORD PTR __real@43270000
  028ea	f3 0f 59 45 f4	 mulss	 xmm0, DWORD PTR _width$[ebp]
  028ef	f3 0f 5e 05 00
	00 00 00	 divss	 xmm0, DWORD PTR __real@44000000
  028f7	f3 0f 2c c0	 cvttss2si eax, xmm0
  028fb	50		 push	 eax
  028fc	8b 4d c4	 mov	 ecx, DWORD PTR _mask_data$[ebp]
  028ff	51		 push	 ecx
  02900	8b 55 c8	 mov	 edx, DWORD PTR _sprite_data$[ebp]
  02903	52		 push	 edx
  02904	e8 00 00 00 00	 call	 ?blit_rgb_alpha_masked_sprite_zero_mask_value_scaled@@YGXPBE0HHHHHHHHE@Z ; blit_rgb_alpha_masked_sprite_zero_mask_value_scaled
$LN31@draw_havoc:

; 2562 : 			draw_sprite (width / 512, height / 512, havoc_lamps.status_11, 227, 133, 58, 26, 354,  35,  22,  11,  94);

  02909	a1 04 00 00 00	 mov	 eax, DWORD PTR ?havoc_lamps@@3UHAVOC_LAMP_FLAGS@@A+4
  0290e	c1 e8 03	 shr	 eax, 3
  02911	83 e0 01	 and	 eax, 1
  02914	0f 84 82 00 00
	00		 je	 $LN32@draw_havoc
  0291a	6a 5e		 push	 94			; 0000005eH
  0291c	6a 0b		 push	 11			; 0000000bH
  0291e	6a 16		 push	 22			; 00000016H
  02920	6a 23		 push	 35			; 00000023H
  02922	68 62 01 00 00	 push	 354			; 00000162H
  02927	f3 0f 10 05 00
	00 00 00	 movss	 xmm0, DWORD PTR __real@41d00000
  0292f	f3 0f 59 45 f0	 mulss	 xmm0, DWORD PTR _height$[ebp]
  02934	f3 0f 5e 05 00
	00 00 00	 divss	 xmm0, DWORD PTR __real@44000000
  0293c	f3 0f 2c c0	 cvttss2si eax, xmm0
  02940	50		 push	 eax
  02941	f3 0f 10 05 00
	00 00 00	 movss	 xmm0, DWORD PTR __real@42680000
  02949	f3 0f 59 45 f4	 mulss	 xmm0, DWORD PTR _width$[ebp]
  0294e	f3 0f 5e 05 00
	00 00 00	 divss	 xmm0, DWORD PTR __real@44000000
  02956	f3 0f 2c c8	 cvttss2si ecx, xmm0
  0295a	51		 push	 ecx
  0295b	f3 0f 10 05 00
	00 00 00	 movss	 xmm0, DWORD PTR __real@43050000
  02963	f3 0f 59 45 f0	 mulss	 xmm0, DWORD PTR _height$[ebp]
  02968	f3 0f 5e 05 00
	00 00 00	 divss	 xmm0, DWORD PTR __real@44000000
  02970	f3 0f 2c d0	 cvttss2si edx, xmm0
  02974	52		 push	 edx
  02975	f3 0f 10 05 00
	00 00 00	 movss	 xmm0, DWORD PTR __real@43630000
  0297d	f3 0f 59 45 f4	 mulss	 xmm0, DWORD PTR _width$[ebp]
  02982	f3 0f 5e 05 00
	00 00 00	 divss	 xmm0, DWORD PTR __real@44000000
  0298a	f3 0f 2c c0	 cvttss2si eax, xmm0
  0298e	50		 push	 eax
  0298f	8b 4d c4	 mov	 ecx, DWORD PTR _mask_data$[ebp]
  02992	51		 push	 ecx
  02993	8b 55 c8	 mov	 edx, DWORD PTR _sprite_data$[ebp]
  02996	52		 push	 edx
  02997	e8 00 00 00 00	 call	 ?blit_rgb_alpha_masked_sprite_zero_mask_value_scaled@@YGXPBE0HHHHHHHHE@Z ; blit_rgb_alpha_masked_sprite_zero_mask_value_scaled
$LN32@draw_havoc:

; 2563 : 			draw_sprite (width / 512, height / 512, havoc_lamps.status_12, 288, 133, 58, 26, 376,  35,  22,  11,  92);

  0299c	a1 04 00 00 00	 mov	 eax, DWORD PTR ?havoc_lamps@@3UHAVOC_LAMP_FLAGS@@A+4
  029a1	c1 e8 04	 shr	 eax, 4
  029a4	83 e0 01	 and	 eax, 1
  029a7	0f 84 82 00 00
	00		 je	 $LN33@draw_havoc
  029ad	6a 5c		 push	 92			; 0000005cH
  029af	6a 0b		 push	 11			; 0000000bH
  029b1	6a 16		 push	 22			; 00000016H
  029b3	6a 23		 push	 35			; 00000023H
  029b5	68 78 01 00 00	 push	 376			; 00000178H
  029ba	f3 0f 10 05 00
	00 00 00	 movss	 xmm0, DWORD PTR __real@41d00000
  029c2	f3 0f 59 45 f0	 mulss	 xmm0, DWORD PTR _height$[ebp]
  029c7	f3 0f 5e 05 00
	00 00 00	 divss	 xmm0, DWORD PTR __real@44000000
  029cf	f3 0f 2c c0	 cvttss2si eax, xmm0
  029d3	50		 push	 eax
  029d4	f3 0f 10 05 00
	00 00 00	 movss	 xmm0, DWORD PTR __real@42680000
  029dc	f3 0f 59 45 f4	 mulss	 xmm0, DWORD PTR _width$[ebp]
  029e1	f3 0f 5e 05 00
	00 00 00	 divss	 xmm0, DWORD PTR __real@44000000
  029e9	f3 0f 2c c8	 cvttss2si ecx, xmm0
  029ed	51		 push	 ecx
  029ee	f3 0f 10 05 00
	00 00 00	 movss	 xmm0, DWORD PTR __real@43050000
  029f6	f3 0f 59 45 f0	 mulss	 xmm0, DWORD PTR _height$[ebp]
  029fb	f3 0f 5e 05 00
	00 00 00	 divss	 xmm0, DWORD PTR __real@44000000
  02a03	f3 0f 2c d0	 cvttss2si edx, xmm0
  02a07	52		 push	 edx
  02a08	f3 0f 10 05 00
	00 00 00	 movss	 xmm0, DWORD PTR __real@43900000
  02a10	f3 0f 59 45 f4	 mulss	 xmm0, DWORD PTR _width$[ebp]
  02a15	f3 0f 5e 05 00
	00 00 00	 divss	 xmm0, DWORD PTR __real@44000000
  02a1d	f3 0f 2c c0	 cvttss2si eax, xmm0
  02a21	50		 push	 eax
  02a22	8b 4d c4	 mov	 ecx, DWORD PTR _mask_data$[ebp]
  02a25	51		 push	 ecx
  02a26	8b 55 c8	 mov	 edx, DWORD PTR _sprite_data$[ebp]
  02a29	52		 push	 edx
  02a2a	e8 00 00 00 00	 call	 ?blit_rgb_alpha_masked_sprite_zero_mask_value_scaled@@YGXPBE0HHHHHHHHE@Z ; blit_rgb_alpha_masked_sprite_zero_mask_value_scaled
$LN33@draw_havoc:

; 2564 : 			draw_sprite (width / 512, height / 512, havoc_lamps.status_13, 167, 161, 58, 26, 332,  46,  22,  11,  89);

  02a2f	a1 04 00 00 00	 mov	 eax, DWORD PTR ?havoc_lamps@@3UHAVOC_LAMP_FLAGS@@A+4
  02a34	c1 e8 05	 shr	 eax, 5
  02a37	83 e0 01	 and	 eax, 1
  02a3a	0f 84 82 00 00
	00		 je	 $LN34@draw_havoc
  02a40	6a 59		 push	 89			; 00000059H
  02a42	6a 0b		 push	 11			; 0000000bH
  02a44	6a 16		 push	 22			; 00000016H
  02a46	6a 2e		 push	 46			; 0000002eH
  02a48	68 4c 01 00 00	 push	 332			; 0000014cH
  02a4d	f3 0f 10 05 00
	00 00 00	 movss	 xmm0, DWORD PTR __real@41d00000
  02a55	f3 0f 59 45 f0	 mulss	 xmm0, DWORD PTR _height$[ebp]
  02a5a	f3 0f 5e 05 00
	00 00 00	 divss	 xmm0, DWORD PTR __real@44000000
  02a62	f3 0f 2c c0	 cvttss2si eax, xmm0
  02a66	50		 push	 eax
  02a67	f3 0f 10 05 00
	00 00 00	 movss	 xmm0, DWORD PTR __real@42680000
  02a6f	f3 0f 59 45 f4	 mulss	 xmm0, DWORD PTR _width$[ebp]
  02a74	f3 0f 5e 05 00
	00 00 00	 divss	 xmm0, DWORD PTR __real@44000000
  02a7c	f3 0f 2c c8	 cvttss2si ecx, xmm0
  02a80	51		 push	 ecx
  02a81	f3 0f 10 05 00
	00 00 00	 movss	 xmm0, DWORD PTR __real@43210000
  02a89	f3 0f 59 45 f0	 mulss	 xmm0, DWORD PTR _height$[ebp]
  02a8e	f3 0f 5e 05 00
	00 00 00	 divss	 xmm0, DWORD PTR __real@44000000
  02a96	f3 0f 2c d0	 cvttss2si edx, xmm0
  02a9a	52		 push	 edx
  02a9b	f3 0f 10 05 00
	00 00 00	 movss	 xmm0, DWORD PTR __real@43270000
  02aa3	f3 0f 59 45 f4	 mulss	 xmm0, DWORD PTR _width$[ebp]
  02aa8	f3 0f 5e 05 00
	00 00 00	 divss	 xmm0, DWORD PTR __real@44000000
  02ab0	f3 0f 2c c0	 cvttss2si eax, xmm0
  02ab4	50		 push	 eax
  02ab5	8b 4d c4	 mov	 ecx, DWORD PTR _mask_data$[ebp]
  02ab8	51		 push	 ecx
  02ab9	8b 55 c8	 mov	 edx, DWORD PTR _sprite_data$[ebp]
  02abc	52		 push	 edx
  02abd	e8 00 00 00 00	 call	 ?blit_rgb_alpha_masked_sprite_zero_mask_value_scaled@@YGXPBE0HHHHHHHHE@Z ; blit_rgb_alpha_masked_sprite_zero_mask_value_scaled
$LN34@draw_havoc:

; 2565 : 			draw_sprite (width / 512, height / 512, havoc_lamps.status_14, 227, 161, 58, 26, 354,  46,  22,  11,  87);

  02ac2	a1 04 00 00 00	 mov	 eax, DWORD PTR ?havoc_lamps@@3UHAVOC_LAMP_FLAGS@@A+4
  02ac7	c1 e8 06	 shr	 eax, 6
  02aca	83 e0 01	 and	 eax, 1
  02acd	0f 84 82 00 00
	00		 je	 $LN35@draw_havoc
  02ad3	6a 57		 push	 87			; 00000057H
  02ad5	6a 0b		 push	 11			; 0000000bH
  02ad7	6a 16		 push	 22			; 00000016H
  02ad9	6a 2e		 push	 46			; 0000002eH
  02adb	68 62 01 00 00	 push	 354			; 00000162H
  02ae0	f3 0f 10 05 00
	00 00 00	 movss	 xmm0, DWORD PTR __real@41d00000
  02ae8	f3 0f 59 45 f0	 mulss	 xmm0, DWORD PTR _height$[ebp]
  02aed	f3 0f 5e 05 00
	00 00 00	 divss	 xmm0, DWORD PTR __real@44000000
  02af5	f3 0f 2c c0	 cvttss2si eax, xmm0
  02af9	50		 push	 eax
  02afa	f3 0f 10 05 00
	00 00 00	 movss	 xmm0, DWORD PTR __real@42680000
  02b02	f3 0f 59 45 f4	 mulss	 xmm0, DWORD PTR _width$[ebp]
  02b07	f3 0f 5e 05 00
	00 00 00	 divss	 xmm0, DWORD PTR __real@44000000
  02b0f	f3 0f 2c c8	 cvttss2si ecx, xmm0
  02b13	51		 push	 ecx
  02b14	f3 0f 10 05 00
	00 00 00	 movss	 xmm0, DWORD PTR __real@43210000
  02b1c	f3 0f 59 45 f0	 mulss	 xmm0, DWORD PTR _height$[ebp]
  02b21	f3 0f 5e 05 00
	00 00 00	 divss	 xmm0, DWORD PTR __real@44000000
  02b29	f3 0f 2c d0	 cvttss2si edx, xmm0
  02b2d	52		 push	 edx
  02b2e	f3 0f 10 05 00
	00 00 00	 movss	 xmm0, DWORD PTR __real@43630000
  02b36	f3 0f 59 45 f4	 mulss	 xmm0, DWORD PTR _width$[ebp]
  02b3b	f3 0f 5e 05 00
	00 00 00	 divss	 xmm0, DWORD PTR __real@44000000
  02b43	f3 0f 2c c0	 cvttss2si eax, xmm0
  02b47	50		 push	 eax
  02b48	8b 4d c4	 mov	 ecx, DWORD PTR _mask_data$[ebp]
  02b4b	51		 push	 ecx
  02b4c	8b 55 c8	 mov	 edx, DWORD PTR _sprite_data$[ebp]
  02b4f	52		 push	 edx
  02b50	e8 00 00 00 00	 call	 ?blit_rgb_alpha_masked_sprite_zero_mask_value_scaled@@YGXPBE0HHHHHHHHE@Z ; blit_rgb_alpha_masked_sprite_zero_mask_value_scaled
$LN35@draw_havoc:

; 2566 : 			draw_sprite (width / 512, height / 512, havoc_lamps.status_15, 288, 161, 58, 26, 376,  46,  22,  11,  84);

  02b55	a1 04 00 00 00	 mov	 eax, DWORD PTR ?havoc_lamps@@3UHAVOC_LAMP_FLAGS@@A+4
  02b5a	c1 e8 07	 shr	 eax, 7
  02b5d	83 e0 01	 and	 eax, 1
  02b60	0f 84 82 00 00
	00		 je	 $LN36@draw_havoc
  02b66	6a 54		 push	 84			; 00000054H
  02b68	6a 0b		 push	 11			; 0000000bH
  02b6a	6a 16		 push	 22			; 00000016H
  02b6c	6a 2e		 push	 46			; 0000002eH
  02b6e	68 78 01 00 00	 push	 376			; 00000178H
  02b73	f3 0f 10 05 00
	00 00 00	 movss	 xmm0, DWORD PTR __real@41d00000
  02b7b	f3 0f 59 45 f0	 mulss	 xmm0, DWORD PTR _height$[ebp]
  02b80	f3 0f 5e 05 00
	00 00 00	 divss	 xmm0, DWORD PTR __real@44000000
  02b88	f3 0f 2c c0	 cvttss2si eax, xmm0
  02b8c	50		 push	 eax
  02b8d	f3 0f 10 05 00
	00 00 00	 movss	 xmm0, DWORD PTR __real@42680000
  02b95	f3 0f 59 45 f4	 mulss	 xmm0, DWORD PTR _width$[ebp]
  02b9a	f3 0f 5e 05 00
	00 00 00	 divss	 xmm0, DWORD PTR __real@44000000
  02ba2	f3 0f 2c c8	 cvttss2si ecx, xmm0
  02ba6	51		 push	 ecx
  02ba7	f3 0f 10 05 00
	00 00 00	 movss	 xmm0, DWORD PTR __real@43210000
  02baf	f3 0f 59 45 f0	 mulss	 xmm0, DWORD PTR _height$[ebp]
  02bb4	f3 0f 5e 05 00
	00 00 00	 divss	 xmm0, DWORD PTR __real@44000000
  02bbc	f3 0f 2c d0	 cvttss2si edx, xmm0
  02bc0	52		 push	 edx
  02bc1	f3 0f 10 05 00
	00 00 00	 movss	 xmm0, DWORD PTR __real@43900000
  02bc9	f3 0f 59 45 f4	 mulss	 xmm0, DWORD PTR _width$[ebp]
  02bce	f3 0f 5e 05 00
	00 00 00	 divss	 xmm0, DWORD PTR __real@44000000
  02bd6	f3 0f 2c c0	 cvttss2si eax, xmm0
  02bda	50		 push	 eax
  02bdb	8b 4d c4	 mov	 ecx, DWORD PTR _mask_data$[ebp]
  02bde	51		 push	 ecx
  02bdf	8b 55 c8	 mov	 edx, DWORD PTR _sprite_data$[ebp]
  02be2	52		 push	 edx
  02be3	e8 00 00 00 00	 call	 ?blit_rgb_alpha_masked_sprite_zero_mask_value_scaled@@YGXPBE0HHHHHHHHE@Z ; blit_rgb_alpha_masked_sprite_zero_mask_value_scaled
$LN36@draw_havoc:

; 2567 : 			draw_sprite (width / 512, height / 512, havoc_lamps.status_16, 167, 189, 58, 26, 332,  57,  22,  11,  82);

  02be8	a1 04 00 00 00	 mov	 eax, DWORD PTR ?havoc_lamps@@3UHAVOC_LAMP_FLAGS@@A+4
  02bed	c1 e8 08	 shr	 eax, 8
  02bf0	83 e0 01	 and	 eax, 1
  02bf3	0f 84 82 00 00
	00		 je	 $LN37@draw_havoc
  02bf9	6a 52		 push	 82			; 00000052H
  02bfb	6a 0b		 push	 11			; 0000000bH
  02bfd	6a 16		 push	 22			; 00000016H
  02bff	6a 39		 push	 57			; 00000039H
  02c01	68 4c 01 00 00	 push	 332			; 0000014cH
  02c06	f3 0f 10 05 00
	00 00 00	 movss	 xmm0, DWORD PTR __real@41d00000
  02c0e	f3 0f 59 45 f0	 mulss	 xmm0, DWORD PTR _height$[ebp]
  02c13	f3 0f 5e 05 00
	00 00 00	 divss	 xmm0, DWORD PTR __real@44000000
  02c1b	f3 0f 2c c0	 cvttss2si eax, xmm0
  02c1f	50		 push	 eax
  02c20	f3 0f 10 05 00
	00 00 00	 movss	 xmm0, DWORD PTR __real@42680000
  02c28	f3 0f 59 45 f4	 mulss	 xmm0, DWORD PTR _width$[ebp]
  02c2d	f3 0f 5e 05 00
	00 00 00	 divss	 xmm0, DWORD PTR __real@44000000
  02c35	f3 0f 2c c8	 cvttss2si ecx, xmm0
  02c39	51		 push	 ecx
  02c3a	f3 0f 10 05 00
	00 00 00	 movss	 xmm0, DWORD PTR __real@433d0000
  02c42	f3 0f 59 45 f0	 mulss	 xmm0, DWORD PTR _height$[ebp]
  02c47	f3 0f 5e 05 00
	00 00 00	 divss	 xmm0, DWORD PTR __real@44000000
  02c4f	f3 0f 2c d0	 cvttss2si edx, xmm0
  02c53	52		 push	 edx
  02c54	f3 0f 10 05 00
	00 00 00	 movss	 xmm0, DWORD PTR __real@43270000
  02c5c	f3 0f 59 45 f4	 mulss	 xmm0, DWORD PTR _width$[ebp]
  02c61	f3 0f 5e 05 00
	00 00 00	 divss	 xmm0, DWORD PTR __real@44000000
  02c69	f3 0f 2c c0	 cvttss2si eax, xmm0
  02c6d	50		 push	 eax
  02c6e	8b 4d c4	 mov	 ecx, DWORD PTR _mask_data$[ebp]
  02c71	51		 push	 ecx
  02c72	8b 55 c8	 mov	 edx, DWORD PTR _sprite_data$[ebp]
  02c75	52		 push	 edx
  02c76	e8 00 00 00 00	 call	 ?blit_rgb_alpha_masked_sprite_zero_mask_value_scaled@@YGXPBE0HHHHHHHHE@Z ; blit_rgb_alpha_masked_sprite_zero_mask_value_scaled
$LN37@draw_havoc:

; 2568 : 			draw_sprite (width / 512, height / 512, havoc_lamps.status_17, 227, 189, 58, 26, 354,  57,  22,  11,  79);

  02c7b	a1 04 00 00 00	 mov	 eax, DWORD PTR ?havoc_lamps@@3UHAVOC_LAMP_FLAGS@@A+4
  02c80	c1 e8 09	 shr	 eax, 9
  02c83	83 e0 01	 and	 eax, 1
  02c86	0f 84 82 00 00
	00		 je	 $LN38@draw_havoc
  02c8c	6a 4f		 push	 79			; 0000004fH
  02c8e	6a 0b		 push	 11			; 0000000bH
  02c90	6a 16		 push	 22			; 00000016H
  02c92	6a 39		 push	 57			; 00000039H
  02c94	68 62 01 00 00	 push	 354			; 00000162H
  02c99	f3 0f 10 05 00
	00 00 00	 movss	 xmm0, DWORD PTR __real@41d00000
  02ca1	f3 0f 59 45 f0	 mulss	 xmm0, DWORD PTR _height$[ebp]
  02ca6	f3 0f 5e 05 00
	00 00 00	 divss	 xmm0, DWORD PTR __real@44000000
  02cae	f3 0f 2c c0	 cvttss2si eax, xmm0
  02cb2	50		 push	 eax
  02cb3	f3 0f 10 05 00
	00 00 00	 movss	 xmm0, DWORD PTR __real@42680000
  02cbb	f3 0f 59 45 f4	 mulss	 xmm0, DWORD PTR _width$[ebp]
  02cc0	f3 0f 5e 05 00
	00 00 00	 divss	 xmm0, DWORD PTR __real@44000000
  02cc8	f3 0f 2c c8	 cvttss2si ecx, xmm0
  02ccc	51		 push	 ecx
  02ccd	f3 0f 10 05 00
	00 00 00	 movss	 xmm0, DWORD PTR __real@433d0000
  02cd5	f3 0f 59 45 f0	 mulss	 xmm0, DWORD PTR _height$[ebp]
  02cda	f3 0f 5e 05 00
	00 00 00	 divss	 xmm0, DWORD PTR __real@44000000
  02ce2	f3 0f 2c d0	 cvttss2si edx, xmm0
  02ce6	52		 push	 edx
  02ce7	f3 0f 10 05 00
	00 00 00	 movss	 xmm0, DWORD PTR __real@43630000
  02cef	f3 0f 59 45 f4	 mulss	 xmm0, DWORD PTR _width$[ebp]
  02cf4	f3 0f 5e 05 00
	00 00 00	 divss	 xmm0, DWORD PTR __real@44000000
  02cfc	f3 0f 2c c0	 cvttss2si eax, xmm0
  02d00	50		 push	 eax
  02d01	8b 4d c4	 mov	 ecx, DWORD PTR _mask_data$[ebp]
  02d04	51		 push	 ecx
  02d05	8b 55 c8	 mov	 edx, DWORD PTR _sprite_data$[ebp]
  02d08	52		 push	 edx
  02d09	e8 00 00 00 00	 call	 ?blit_rgb_alpha_masked_sprite_zero_mask_value_scaled@@YGXPBE0HHHHHHHHE@Z ; blit_rgb_alpha_masked_sprite_zero_mask_value_scaled
$LN38@draw_havoc:

; 2569 : 			draw_sprite (width / 512, height / 512, havoc_lamps.status_18, 288, 189, 58, 26, 376,  57,  22,  11,  76);

  02d0e	a1 04 00 00 00	 mov	 eax, DWORD PTR ?havoc_lamps@@3UHAVOC_LAMP_FLAGS@@A+4
  02d13	c1 e8 0a	 shr	 eax, 10			; 0000000aH
  02d16	83 e0 01	 and	 eax, 1
  02d19	0f 84 82 00 00
	00		 je	 $LN39@draw_havoc
  02d1f	6a 4c		 push	 76			; 0000004cH
  02d21	6a 0b		 push	 11			; 0000000bH
  02d23	6a 16		 push	 22			; 00000016H
  02d25	6a 39		 push	 57			; 00000039H
  02d27	68 78 01 00 00	 push	 376			; 00000178H
  02d2c	f3 0f 10 05 00
	00 00 00	 movss	 xmm0, DWORD PTR __real@41d00000
  02d34	f3 0f 59 45 f0	 mulss	 xmm0, DWORD PTR _height$[ebp]
  02d39	f3 0f 5e 05 00
	00 00 00	 divss	 xmm0, DWORD PTR __real@44000000
  02d41	f3 0f 2c c0	 cvttss2si eax, xmm0
  02d45	50		 push	 eax
  02d46	f3 0f 10 05 00
	00 00 00	 movss	 xmm0, DWORD PTR __real@42680000
  02d4e	f3 0f 59 45 f4	 mulss	 xmm0, DWORD PTR _width$[ebp]
  02d53	f3 0f 5e 05 00
	00 00 00	 divss	 xmm0, DWORD PTR __real@44000000
  02d5b	f3 0f 2c c8	 cvttss2si ecx, xmm0
  02d5f	51		 push	 ecx
  02d60	f3 0f 10 05 00
	00 00 00	 movss	 xmm0, DWORD PTR __real@433d0000
  02d68	f3 0f 59 45 f0	 mulss	 xmm0, DWORD PTR _height$[ebp]
  02d6d	f3 0f 5e 05 00
	00 00 00	 divss	 xmm0, DWORD PTR __real@44000000
  02d75	f3 0f 2c d0	 cvttss2si edx, xmm0
  02d79	52		 push	 edx
  02d7a	f3 0f 10 05 00
	00 00 00	 movss	 xmm0, DWORD PTR __real@43900000
  02d82	f3 0f 59 45 f4	 mulss	 xmm0, DWORD PTR _width$[ebp]
  02d87	f3 0f 5e 05 00
	00 00 00	 divss	 xmm0, DWORD PTR __real@44000000
  02d8f	f3 0f 2c c0	 cvttss2si eax, xmm0
  02d93	50		 push	 eax
  02d94	8b 4d c4	 mov	 ecx, DWORD PTR _mask_data$[ebp]
  02d97	51		 push	 ecx
  02d98	8b 55 c8	 mov	 edx, DWORD PTR _sprite_data$[ebp]
  02d9b	52		 push	 edx
  02d9c	e8 00 00 00 00	 call	 ?blit_rgb_alpha_masked_sprite_zero_mask_value_scaled@@YGXPBE0HHHHHHHHE@Z ; blit_rgb_alpha_masked_sprite_zero_mask_value_scaled
$LN39@draw_havoc:

; 2570 : 	
; 2571 : 			/* Draw radio lamp */
; 2572 : 			draw_sprite(width / 512, height / 512, havoc_lamps.radio, 374, 271, 86, 44, 401,  50,  29,  17,  74);

  02da1	a1 08 00 00 00	 mov	 eax, DWORD PTR ?havoc_lamps@@3UHAVOC_LAMP_FLAGS@@A+8
  02da6	c1 e8 18	 shr	 eax, 24			; 00000018H
  02da9	83 e0 01	 and	 eax, 1
  02dac	0f 84 82 00 00
	00		 je	 $LN40@draw_havoc
  02db2	6a 4a		 push	 74			; 0000004aH
  02db4	6a 11		 push	 17			; 00000011H
  02db6	6a 1d		 push	 29			; 0000001dH
  02db8	6a 32		 push	 50			; 00000032H
  02dba	68 91 01 00 00	 push	 401			; 00000191H
  02dbf	f3 0f 10 05 00
	00 00 00	 movss	 xmm0, DWORD PTR __real@42300000
  02dc7	f3 0f 59 45 f0	 mulss	 xmm0, DWORD PTR _height$[ebp]
  02dcc	f3 0f 5e 05 00
	00 00 00	 divss	 xmm0, DWORD PTR __real@44000000
  02dd4	f3 0f 2c c0	 cvttss2si eax, xmm0
  02dd8	50		 push	 eax
  02dd9	f3 0f 10 05 00
	00 00 00	 movss	 xmm0, DWORD PTR __real@42ac0000
  02de1	f3 0f 59 45 f4	 mulss	 xmm0, DWORD PTR _width$[ebp]
  02de6	f3 0f 5e 05 00
	00 00 00	 divss	 xmm0, DWORD PTR __real@44000000
  02dee	f3 0f 2c c8	 cvttss2si ecx, xmm0
  02df2	51		 push	 ecx
  02df3	f3 0f 10 05 00
	00 00 00	 movss	 xmm0, DWORD PTR __real@43878000
  02dfb	f3 0f 59 45 f0	 mulss	 xmm0, DWORD PTR _height$[ebp]
  02e00	f3 0f 5e 05 00
	00 00 00	 divss	 xmm0, DWORD PTR __real@44000000
  02e08	f3 0f 2c d0	 cvttss2si edx, xmm0
  02e0c	52		 push	 edx
  02e0d	f3 0f 10 05 00
	00 00 00	 movss	 xmm0, DWORD PTR __real@43bb0000
  02e15	f3 0f 59 45 f4	 mulss	 xmm0, DWORD PTR _width$[ebp]
  02e1a	f3 0f 5e 05 00
	00 00 00	 divss	 xmm0, DWORD PTR __real@44000000
  02e22	f3 0f 2c c0	 cvttss2si eax, xmm0
  02e26	50		 push	 eax
  02e27	8b 4d c4	 mov	 ecx, DWORD PTR _mask_data$[ebp]
  02e2a	51		 push	 ecx
  02e2b	8b 55 c8	 mov	 edx, DWORD PTR _sprite_data$[ebp]
  02e2e	52		 push	 edx
  02e2f	e8 00 00 00 00	 call	 ?blit_rgb_alpha_masked_sprite_zero_mask_value_scaled@@YGXPBE0HHHHHHHHE@Z ; blit_rgb_alpha_masked_sprite_zero_mask_value_scaled
$LN40@draw_havoc:

; 2573 : 	
; 2574 : 			/* Draw oil & temperature lamps */
; 2575 : 			draw_sprite(width / 512, height / 512, havoc_lamps.lh_engine_oil_pressure_normal, 274, 392, 8, 30, 580,  55,   3,  13,  46);

  02e34	a1 08 00 00 00	 mov	 eax, DWORD PTR ?havoc_lamps@@3UHAVOC_LAMP_FLAGS@@A+8
  02e39	c1 e8 19	 shr	 eax, 25			; 00000019H
  02e3c	83 e0 01	 and	 eax, 1
  02e3f	0f 84 82 00 00
	00		 je	 $LN41@draw_havoc
  02e45	6a 2e		 push	 46			; 0000002eH
  02e47	6a 0d		 push	 13			; 0000000dH
  02e49	6a 03		 push	 3
  02e4b	6a 37		 push	 55			; 00000037H
  02e4d	68 44 02 00 00	 push	 580			; 00000244H
  02e52	f3 0f 10 05 00
	00 00 00	 movss	 xmm0, DWORD PTR __real@41f00000
  02e5a	f3 0f 59 45 f0	 mulss	 xmm0, DWORD PTR _height$[ebp]
  02e5f	f3 0f 5e 05 00
	00 00 00	 divss	 xmm0, DWORD PTR __real@44000000
  02e67	f3 0f 2c c0	 cvttss2si eax, xmm0
  02e6b	50		 push	 eax
  02e6c	f3 0f 10 05 00
	00 00 00	 movss	 xmm0, DWORD PTR __real@41000000
  02e74	f3 0f 59 45 f4	 mulss	 xmm0, DWORD PTR _width$[ebp]
  02e79	f3 0f 5e 05 00
	00 00 00	 divss	 xmm0, DWORD PTR __real@44000000
  02e81	f3 0f 2c c8	 cvttss2si ecx, xmm0
  02e85	51		 push	 ecx
  02e86	f3 0f 10 05 00
	00 00 00	 movss	 xmm0, DWORD PTR __real@43c40000
  02e8e	f3 0f 59 45 f0	 mulss	 xmm0, DWORD PTR _height$[ebp]
  02e93	f3 0f 5e 05 00
	00 00 00	 divss	 xmm0, DWORD PTR __real@44000000
  02e9b	f3 0f 2c d0	 cvttss2si edx, xmm0
  02e9f	52		 push	 edx
  02ea0	f3 0f 10 05 00
	00 00 00	 movss	 xmm0, DWORD PTR __real@43890000
  02ea8	f3 0f 59 45 f4	 mulss	 xmm0, DWORD PTR _width$[ebp]
  02ead	f3 0f 5e 05 00
	00 00 00	 divss	 xmm0, DWORD PTR __real@44000000
  02eb5	f3 0f 2c c0	 cvttss2si eax, xmm0
  02eb9	50		 push	 eax
  02eba	8b 4d c4	 mov	 ecx, DWORD PTR _mask_data$[ebp]
  02ebd	51		 push	 ecx
  02ebe	8b 55 c8	 mov	 edx, DWORD PTR _sprite_data$[ebp]
  02ec1	52		 push	 edx
  02ec2	e8 00 00 00 00	 call	 ?blit_rgb_alpha_masked_sprite_zero_mask_value_scaled@@YGXPBE0HHHHHHHHE@Z ; blit_rgb_alpha_masked_sprite_zero_mask_value_scaled
$LN41@draw_havoc:

; 2576 : 			draw_sprite(width / 512, height / 512, havoc_lamps.rh_engine_oil_pressure_normal, 306, 392, 8, 30, 591,  55,   4,  13,  43);

  02ec7	a1 08 00 00 00	 mov	 eax, DWORD PTR ?havoc_lamps@@3UHAVOC_LAMP_FLAGS@@A+8
  02ecc	c1 e8 1a	 shr	 eax, 26			; 0000001aH
  02ecf	83 e0 01	 and	 eax, 1
  02ed2	0f 84 82 00 00
	00		 je	 $LN42@draw_havoc
  02ed8	6a 2b		 push	 43			; 0000002bH
  02eda	6a 0d		 push	 13			; 0000000dH
  02edc	6a 04		 push	 4
  02ede	6a 37		 push	 55			; 00000037H
  02ee0	68 4f 02 00 00	 push	 591			; 0000024fH
  02ee5	f3 0f 10 05 00
	00 00 00	 movss	 xmm0, DWORD PTR __real@41f00000
  02eed	f3 0f 59 45 f0	 mulss	 xmm0, DWORD PTR _height$[ebp]
  02ef2	f3 0f 5e 05 00
	00 00 00	 divss	 xmm0, DWORD PTR __real@44000000
  02efa	f3 0f 2c c0	 cvttss2si eax, xmm0
  02efe	50		 push	 eax
  02eff	f3 0f 10 05 00
	00 00 00	 movss	 xmm0, DWORD PTR __real@41000000
  02f07	f3 0f 59 45 f4	 mulss	 xmm0, DWORD PTR _width$[ebp]
  02f0c	f3 0f 5e 05 00
	00 00 00	 divss	 xmm0, DWORD PTR __real@44000000
  02f14	f3 0f 2c c8	 cvttss2si ecx, xmm0
  02f18	51		 push	 ecx
  02f19	f3 0f 10 05 00
	00 00 00	 movss	 xmm0, DWORD PTR __real@43c40000
  02f21	f3 0f 59 45 f0	 mulss	 xmm0, DWORD PTR _height$[ebp]
  02f26	f3 0f 5e 05 00
	00 00 00	 divss	 xmm0, DWORD PTR __real@44000000
  02f2e	f3 0f 2c d0	 cvttss2si edx, xmm0
  02f32	52		 push	 edx
  02f33	f3 0f 10 05 00
	00 00 00	 movss	 xmm0, DWORD PTR __real@43990000
  02f3b	f3 0f 59 45 f4	 mulss	 xmm0, DWORD PTR _width$[ebp]
  02f40	f3 0f 5e 05 00
	00 00 00	 divss	 xmm0, DWORD PTR __real@44000000
  02f48	f3 0f 2c c0	 cvttss2si eax, xmm0
  02f4c	50		 push	 eax
  02f4d	8b 4d c4	 mov	 ecx, DWORD PTR _mask_data$[ebp]
  02f50	51		 push	 ecx
  02f51	8b 55 c8	 mov	 edx, DWORD PTR _sprite_data$[ebp]
  02f54	52		 push	 edx
  02f55	e8 00 00 00 00	 call	 ?blit_rgb_alpha_masked_sprite_zero_mask_value_scaled@@YGXPBE0HHHHHHHHE@Z ; blit_rgb_alpha_masked_sprite_zero_mask_value_scaled
$LN42@draw_havoc:

; 2577 : 			draw_sprite(width / 512, height / 512, havoc_lamps.lh_engine_oil_pressure_low, 274, 412, 8, 10, 579,  90,   4,   5,  46);

  02f5a	a1 08 00 00 00	 mov	 eax, DWORD PTR ?havoc_lamps@@3UHAVOC_LAMP_FLAGS@@A+8
  02f5f	c1 e8 1b	 shr	 eax, 27			; 0000001bH
  02f62	83 e0 01	 and	 eax, 1
  02f65	0f 84 82 00 00
	00		 je	 $LN43@draw_havoc
  02f6b	6a 2e		 push	 46			; 0000002eH
  02f6d	6a 05		 push	 5
  02f6f	6a 04		 push	 4
  02f71	6a 5a		 push	 90			; 0000005aH
  02f73	68 43 02 00 00	 push	 579			; 00000243H
  02f78	f3 0f 10 05 00
	00 00 00	 movss	 xmm0, DWORD PTR __real@41200000
  02f80	f3 0f 59 45 f0	 mulss	 xmm0, DWORD PTR _height$[ebp]
  02f85	f3 0f 5e 05 00
	00 00 00	 divss	 xmm0, DWORD PTR __real@44000000
  02f8d	f3 0f 2c c0	 cvttss2si eax, xmm0
  02f91	50		 push	 eax
  02f92	f3 0f 10 05 00
	00 00 00	 movss	 xmm0, DWORD PTR __real@41000000
  02f9a	f3 0f 59 45 f4	 mulss	 xmm0, DWORD PTR _width$[ebp]
  02f9f	f3 0f 5e 05 00
	00 00 00	 divss	 xmm0, DWORD PTR __real@44000000
  02fa7	f3 0f 2c c8	 cvttss2si ecx, xmm0
  02fab	51		 push	 ecx
  02fac	f3 0f 10 05 00
	00 00 00	 movss	 xmm0, DWORD PTR __real@43ce0000
  02fb4	f3 0f 59 45 f0	 mulss	 xmm0, DWORD PTR _height$[ebp]
  02fb9	f3 0f 5e 05 00
	00 00 00	 divss	 xmm0, DWORD PTR __real@44000000
  02fc1	f3 0f 2c d0	 cvttss2si edx, xmm0
  02fc5	52		 push	 edx
  02fc6	f3 0f 10 05 00
	00 00 00	 movss	 xmm0, DWORD PTR __real@43890000
  02fce	f3 0f 59 45 f4	 mulss	 xmm0, DWORD PTR _width$[ebp]
  02fd3	f3 0f 5e 05 00
	00 00 00	 divss	 xmm0, DWORD PTR __real@44000000
  02fdb	f3 0f 2c c0	 cvttss2si eax, xmm0
  02fdf	50		 push	 eax
  02fe0	8b 4d c4	 mov	 ecx, DWORD PTR _mask_data$[ebp]
  02fe3	51		 push	 ecx
  02fe4	8b 55 c8	 mov	 edx, DWORD PTR _sprite_data$[ebp]
  02fe7	52		 push	 edx
  02fe8	e8 00 00 00 00	 call	 ?blit_rgb_alpha_masked_sprite_zero_mask_value_scaled@@YGXPBE0HHHHHHHHE@Z ; blit_rgb_alpha_masked_sprite_zero_mask_value_scaled
$LN43@draw_havoc:

; 2578 : 			draw_sprite(width / 512, height / 512, havoc_lamps.rh_engine_oil_pressure_low, 306, 412, 8, 10, 591,  90,   4,   5,  43);

  02fed	a1 08 00 00 00	 mov	 eax, DWORD PTR ?havoc_lamps@@3UHAVOC_LAMP_FLAGS@@A+8
  02ff2	c1 e8 1c	 shr	 eax, 28			; 0000001cH
  02ff5	83 e0 01	 and	 eax, 1
  02ff8	0f 84 82 00 00
	00		 je	 $LN44@draw_havoc
  02ffe	6a 2b		 push	 43			; 0000002bH
  03000	6a 05		 push	 5
  03002	6a 04		 push	 4
  03004	6a 5a		 push	 90			; 0000005aH
  03006	68 4f 02 00 00	 push	 591			; 0000024fH
  0300b	f3 0f 10 05 00
	00 00 00	 movss	 xmm0, DWORD PTR __real@41200000
  03013	f3 0f 59 45 f0	 mulss	 xmm0, DWORD PTR _height$[ebp]
  03018	f3 0f 5e 05 00
	00 00 00	 divss	 xmm0, DWORD PTR __real@44000000
  03020	f3 0f 2c c0	 cvttss2si eax, xmm0
  03024	50		 push	 eax
  03025	f3 0f 10 05 00
	00 00 00	 movss	 xmm0, DWORD PTR __real@41000000
  0302d	f3 0f 59 45 f4	 mulss	 xmm0, DWORD PTR _width$[ebp]
  03032	f3 0f 5e 05 00
	00 00 00	 divss	 xmm0, DWORD PTR __real@44000000
  0303a	f3 0f 2c c8	 cvttss2si ecx, xmm0
  0303e	51		 push	 ecx
  0303f	f3 0f 10 05 00
	00 00 00	 movss	 xmm0, DWORD PTR __real@43ce0000
  03047	f3 0f 59 45 f0	 mulss	 xmm0, DWORD PTR _height$[ebp]
  0304c	f3 0f 5e 05 00
	00 00 00	 divss	 xmm0, DWORD PTR __real@44000000
  03054	f3 0f 2c d0	 cvttss2si edx, xmm0
  03058	52		 push	 edx
  03059	f3 0f 10 05 00
	00 00 00	 movss	 xmm0, DWORD PTR __real@43990000
  03061	f3 0f 59 45 f4	 mulss	 xmm0, DWORD PTR _width$[ebp]
  03066	f3 0f 5e 05 00
	00 00 00	 divss	 xmm0, DWORD PTR __real@44000000
  0306e	f3 0f 2c c0	 cvttss2si eax, xmm0
  03072	50		 push	 eax
  03073	8b 4d c4	 mov	 ecx, DWORD PTR _mask_data$[ebp]
  03076	51		 push	 ecx
  03077	8b 55 c8	 mov	 edx, DWORD PTR _sprite_data$[ebp]
  0307a	52		 push	 edx
  0307b	e8 00 00 00 00	 call	 ?blit_rgb_alpha_masked_sprite_zero_mask_value_scaled@@YGXPBE0HHHHHHHHE@Z ; blit_rgb_alpha_masked_sprite_zero_mask_value_scaled
$LN44@draw_havoc:

; 2579 : 			draw_sprite(width / 512, height / 512, havoc_lamps.lh_engine_oil_temperature_normal, 274, 292, 8, 34, 579,  72,   5,  15,  46);

  03080	a1 08 00 00 00	 mov	 eax, DWORD PTR ?havoc_lamps@@3UHAVOC_LAMP_FLAGS@@A+8
  03085	c1 e8 1d	 shr	 eax, 29			; 0000001dH
  03088	83 e0 01	 and	 eax, 1
  0308b	0f 84 82 00 00
	00		 je	 $LN45@draw_havoc
  03091	6a 2e		 push	 46			; 0000002eH
  03093	6a 0f		 push	 15			; 0000000fH
  03095	6a 05		 push	 5
  03097	6a 48		 push	 72			; 00000048H
  03099	68 43 02 00 00	 push	 579			; 00000243H
  0309e	f3 0f 10 05 00
	00 00 00	 movss	 xmm0, DWORD PTR __real@42080000
  030a6	f3 0f 59 45 f0	 mulss	 xmm0, DWORD PTR _height$[ebp]
  030ab	f3 0f 5e 05 00
	00 00 00	 divss	 xmm0, DWORD PTR __real@44000000
  030b3	f3 0f 2c c0	 cvttss2si eax, xmm0
  030b7	50		 push	 eax
  030b8	f3 0f 10 05 00
	00 00 00	 movss	 xmm0, DWORD PTR __real@41000000
  030c0	f3 0f 59 45 f4	 mulss	 xmm0, DWORD PTR _width$[ebp]
  030c5	f3 0f 5e 05 00
	00 00 00	 divss	 xmm0, DWORD PTR __real@44000000
  030cd	f3 0f 2c c8	 cvttss2si ecx, xmm0
  030d1	51		 push	 ecx
  030d2	f3 0f 10 05 00
	00 00 00	 movss	 xmm0, DWORD PTR __real@43920000
  030da	f3 0f 59 45 f0	 mulss	 xmm0, DWORD PTR _height$[ebp]
  030df	f3 0f 5e 05 00
	00 00 00	 divss	 xmm0, DWORD PTR __real@44000000
  030e7	f3 0f 2c d0	 cvttss2si edx, xmm0
  030eb	52		 push	 edx
  030ec	f3 0f 10 05 00
	00 00 00	 movss	 xmm0, DWORD PTR __real@43890000
  030f4	f3 0f 59 45 f4	 mulss	 xmm0, DWORD PTR _width$[ebp]
  030f9	f3 0f 5e 05 00
	00 00 00	 divss	 xmm0, DWORD PTR __real@44000000
  03101	f3 0f 2c c0	 cvttss2si eax, xmm0
  03105	50		 push	 eax
  03106	8b 4d c4	 mov	 ecx, DWORD PTR _mask_data$[ebp]
  03109	51		 push	 ecx
  0310a	8b 55 c8	 mov	 edx, DWORD PTR _sprite_data$[ebp]
  0310d	52		 push	 edx
  0310e	e8 00 00 00 00	 call	 ?blit_rgb_alpha_masked_sprite_zero_mask_value_scaled@@YGXPBE0HHHHHHHHE@Z ; blit_rgb_alpha_masked_sprite_zero_mask_value_scaled
$LN45@draw_havoc:

; 2580 : 			draw_sprite(width / 512, height / 512, havoc_lamps.rh_engine_oil_temperature_normal, 306, 292, 8, 34, 591,  72,   5,  15,  43);

  03113	a1 08 00 00 00	 mov	 eax, DWORD PTR ?havoc_lamps@@3UHAVOC_LAMP_FLAGS@@A+8
  03118	c1 e8 1e	 shr	 eax, 30			; 0000001eH
  0311b	83 e0 01	 and	 eax, 1
  0311e	0f 84 82 00 00
	00		 je	 $LN46@draw_havoc
  03124	6a 2b		 push	 43			; 0000002bH
  03126	6a 0f		 push	 15			; 0000000fH
  03128	6a 05		 push	 5
  0312a	6a 48		 push	 72			; 00000048H
  0312c	68 4f 02 00 00	 push	 591			; 0000024fH
  03131	f3 0f 10 05 00
	00 00 00	 movss	 xmm0, DWORD PTR __real@42080000
  03139	f3 0f 59 45 f0	 mulss	 xmm0, DWORD PTR _height$[ebp]
  0313e	f3 0f 5e 05 00
	00 00 00	 divss	 xmm0, DWORD PTR __real@44000000
  03146	f3 0f 2c c0	 cvttss2si eax, xmm0
  0314a	50		 push	 eax
  0314b	f3 0f 10 05 00
	00 00 00	 movss	 xmm0, DWORD PTR __real@41000000
  03153	f3 0f 59 45 f4	 mulss	 xmm0, DWORD PTR _width$[ebp]
  03158	f3 0f 5e 05 00
	00 00 00	 divss	 xmm0, DWORD PTR __real@44000000
  03160	f3 0f 2c c8	 cvttss2si ecx, xmm0
  03164	51		 push	 ecx
  03165	f3 0f 10 05 00
	00 00 00	 movss	 xmm0, DWORD PTR __real@43920000
  0316d	f3 0f 59 45 f0	 mulss	 xmm0, DWORD PTR _height$[ebp]
  03172	f3 0f 5e 05 00
	00 00 00	 divss	 xmm0, DWORD PTR __real@44000000
  0317a	f3 0f 2c d0	 cvttss2si edx, xmm0
  0317e	52		 push	 edx
  0317f	f3 0f 10 05 00
	00 00 00	 movss	 xmm0, DWORD PTR __real@43990000
  03187	f3 0f 59 45 f4	 mulss	 xmm0, DWORD PTR _width$[ebp]
  0318c	f3 0f 5e 05 00
	00 00 00	 divss	 xmm0, DWORD PTR __real@44000000
  03194	f3 0f 2c c0	 cvttss2si eax, xmm0
  03198	50		 push	 eax
  03199	8b 4d c4	 mov	 ecx, DWORD PTR _mask_data$[ebp]
  0319c	51		 push	 ecx
  0319d	8b 55 c8	 mov	 edx, DWORD PTR _sprite_data$[ebp]
  031a0	52		 push	 edx
  031a1	e8 00 00 00 00	 call	 ?blit_rgb_alpha_masked_sprite_zero_mask_value_scaled@@YGXPBE0HHHHHHHHE@Z ; blit_rgb_alpha_masked_sprite_zero_mask_value_scaled
$LN46@draw_havoc:

; 2581 : 			draw_sprite(width / 512, height / 512, havoc_lamps.lh_engine_oil_temperature_high, 274, 268, 8, 58, 576,  99,   4,  25,  46);

  031a6	a1 08 00 00 00	 mov	 eax, DWORD PTR ?havoc_lamps@@3UHAVOC_LAMP_FLAGS@@A+8
  031ab	c1 e8 1f	 shr	 eax, 31			; 0000001fH
  031ae	83 e0 01	 and	 eax, 1
  031b1	0f 84 82 00 00
	00		 je	 $LN47@draw_havoc
  031b7	6a 2e		 push	 46			; 0000002eH
  031b9	6a 19		 push	 25			; 00000019H
  031bb	6a 04		 push	 4
  031bd	6a 63		 push	 99			; 00000063H
  031bf	68 40 02 00 00	 push	 576			; 00000240H
  031c4	f3 0f 10 05 00
	00 00 00	 movss	 xmm0, DWORD PTR __real@42680000
  031cc	f3 0f 59 45 f0	 mulss	 xmm0, DWORD PTR _height$[ebp]
  031d1	f3 0f 5e 05 00
	00 00 00	 divss	 xmm0, DWORD PTR __real@44000000
  031d9	f3 0f 2c c0	 cvttss2si eax, xmm0
  031dd	50		 push	 eax
  031de	f3 0f 10 05 00
	00 00 00	 movss	 xmm0, DWORD PTR __real@41000000
  031e6	f3 0f 59 45 f4	 mulss	 xmm0, DWORD PTR _width$[ebp]
  031eb	f3 0f 5e 05 00
	00 00 00	 divss	 xmm0, DWORD PTR __real@44000000
  031f3	f3 0f 2c c8	 cvttss2si ecx, xmm0
  031f7	51		 push	 ecx
  031f8	f3 0f 10 05 00
	00 00 00	 movss	 xmm0, DWORD PTR __real@43860000
  03200	f3 0f 59 45 f0	 mulss	 xmm0, DWORD PTR _height$[ebp]
  03205	f3 0f 5e 05 00
	00 00 00	 divss	 xmm0, DWORD PTR __real@44000000
  0320d	f3 0f 2c d0	 cvttss2si edx, xmm0
  03211	52		 push	 edx
  03212	f3 0f 10 05 00
	00 00 00	 movss	 xmm0, DWORD PTR __real@43890000
  0321a	f3 0f 59 45 f4	 mulss	 xmm0, DWORD PTR _width$[ebp]
  0321f	f3 0f 5e 05 00
	00 00 00	 divss	 xmm0, DWORD PTR __real@44000000
  03227	f3 0f 2c c0	 cvttss2si eax, xmm0
  0322b	50		 push	 eax
  0322c	8b 4d c4	 mov	 ecx, DWORD PTR _mask_data$[ebp]
  0322f	51		 push	 ecx
  03230	8b 55 c8	 mov	 edx, DWORD PTR _sprite_data$[ebp]
  03233	52		 push	 edx
  03234	e8 00 00 00 00	 call	 ?blit_rgb_alpha_masked_sprite_zero_mask_value_scaled@@YGXPBE0HHHHHHHHE@Z ; blit_rgb_alpha_masked_sprite_zero_mask_value_scaled
$LN47@draw_havoc:

; 2582 : 			draw_sprite(width / 512, height / 512, havoc_lamps.rh_engine_oil_temperature_high, 306, 268, 8, 58, 588,  99,   4,  25,  43);

  03239	a1 0c 00 00 00	 mov	 eax, DWORD PTR ?havoc_lamps@@3UHAVOC_LAMP_FLAGS@@A+12
  0323e	83 e0 01	 and	 eax, 1
  03241	0f 84 82 00 00
	00		 je	 $LN48@draw_havoc
  03247	6a 2b		 push	 43			; 0000002bH
  03249	6a 19		 push	 25			; 00000019H
  0324b	6a 04		 push	 4
  0324d	6a 63		 push	 99			; 00000063H
  0324f	68 4c 02 00 00	 push	 588			; 0000024cH
  03254	f3 0f 10 05 00
	00 00 00	 movss	 xmm0, DWORD PTR __real@42680000
  0325c	f3 0f 59 45 f0	 mulss	 xmm0, DWORD PTR _height$[ebp]
  03261	f3 0f 5e 05 00
	00 00 00	 divss	 xmm0, DWORD PTR __real@44000000
  03269	f3 0f 2c c0	 cvttss2si eax, xmm0
  0326d	50		 push	 eax
  0326e	f3 0f 10 05 00
	00 00 00	 movss	 xmm0, DWORD PTR __real@41000000
  03276	f3 0f 59 45 f4	 mulss	 xmm0, DWORD PTR _width$[ebp]
  0327b	f3 0f 5e 05 00
	00 00 00	 divss	 xmm0, DWORD PTR __real@44000000
  03283	f3 0f 2c c8	 cvttss2si ecx, xmm0
  03287	51		 push	 ecx
  03288	f3 0f 10 05 00
	00 00 00	 movss	 xmm0, DWORD PTR __real@43860000
  03290	f3 0f 59 45 f0	 mulss	 xmm0, DWORD PTR _height$[ebp]
  03295	f3 0f 5e 05 00
	00 00 00	 divss	 xmm0, DWORD PTR __real@44000000
  0329d	f3 0f 2c d0	 cvttss2si edx, xmm0
  032a1	52		 push	 edx
  032a2	f3 0f 10 05 00
	00 00 00	 movss	 xmm0, DWORD PTR __real@43990000
  032aa	f3 0f 59 45 f4	 mulss	 xmm0, DWORD PTR _width$[ebp]
  032af	f3 0f 5e 05 00
	00 00 00	 divss	 xmm0, DWORD PTR __real@44000000
  032b7	f3 0f 2c c0	 cvttss2si eax, xmm0
  032bb	50		 push	 eax
  032bc	8b 4d c4	 mov	 ecx, DWORD PTR _mask_data$[ebp]
  032bf	51		 push	 ecx
  032c0	8b 55 c8	 mov	 edx, DWORD PTR _sprite_data$[ebp]
  032c3	52		 push	 edx
  032c4	e8 00 00 00 00	 call	 ?blit_rgb_alpha_masked_sprite_zero_mask_value_scaled@@YGXPBE0HHHHHHHHE@Z ; blit_rgb_alpha_masked_sprite_zero_mask_value_scaled
$LN48@draw_havoc:

; 2583 : 	
; 2584 : 			unlock_screen (texture_screen[TG_LRHS][texture]);

  032c9	b8 0c 00 00 00	 mov	 eax, 12			; 0000000cH
  032ce	d1 e0		 shl	 eax, 1
  032d0	8b 4d fc	 mov	 ecx, DWORD PTR _texture$[ebp]
  032d3	8b 94 88 00 00
	00 00		 mov	 edx, DWORD PTR ?texture_screen@@3PAY02PAUSCREEN@@A[eax+ecx*4]
  032da	52		 push	 edx
  032db	e8 00 00 00 00	 call	 ?unlock_screen@@YGHPAUSCREEN@@@Z ; unlock_screen
$LN21@draw_havoc:

; 2585 : 		}
; 2586 : 	
; 2587 : 		/* Upper Right Panel */
; 2588 : 		width = texture_width[TG_URHS][texture];

  032e0	b8 0c 00 00 00	 mov	 eax, 12			; 0000000cH
  032e5	6b c8 03	 imul	 ecx, eax, 3
  032e8	8b 55 fc	 mov	 edx, DWORD PTR _texture$[ebp]
  032eb	f3 0f 10 84 91
	00 00 00 00	 movss	 xmm0, DWORD PTR ?texture_width@@3PAY02MA[ecx+edx*4]
  032f4	f3 0f 11 45 f4	 movss	 DWORD PTR _width$[ebp], xmm0

; 2589 : 		height = texture_height[TG_URHS][texture];

  032f9	b8 0c 00 00 00	 mov	 eax, 12			; 0000000cH
  032fe	6b c8 03	 imul	 ecx, eax, 3
  03301	8b 55 fc	 mov	 edx, DWORD PTR _texture$[ebp]
  03304	f3 0f 10 84 91
	00 00 00 00	 movss	 xmm0, DWORD PTR ?texture_height@@3PAY02MA[ecx+edx*4]
  0330d	f3 0f 11 45 f0	 movss	 DWORD PTR _height$[ebp], xmm0

; 2590 : 	
; 2591 : 		if (lock_screen (texture_screen[TG_URHS][texture]))

  03312	b8 0c 00 00 00	 mov	 eax, 12			; 0000000cH
  03317	6b c8 03	 imul	 ecx, eax, 3
  0331a	8b 55 fc	 mov	 edx, DWORD PTR _texture$[ebp]
  0331d	8b 84 91 00 00
	00 00		 mov	 eax, DWORD PTR ?texture_screen@@3PAY02PAUSCREEN@@A[ecx+edx*4]
  03324	50		 push	 eax
  03325	e8 00 00 00 00	 call	 ?lock_screen@@YGHPAUSCREEN@@@Z ; lock_screen
  0332a	85 c0		 test	 eax, eax
  0332c	0f 84 9a 1f 00
	00		 je	 $LN49@draw_havoc

; 2592 : 		{
; 2593 : 			set_active_screen (texture_screen[TG_URHS][texture]);

  03332	b8 0c 00 00 00	 mov	 eax, 12			; 0000000cH
  03337	6b c8 03	 imul	 ecx, eax, 3
  0333a	8b 55 fc	 mov	 edx, DWORD PTR _texture$[ebp]
  0333d	8b 84 91 00 00
	00 00		 mov	 eax, DWORD PTR ?texture_screen@@3PAY02PAUSCREEN@@A[ecx+edx*4]
  03344	50		 push	 eax
  03345	e8 00 00 00 00	 call	 ?set_active_screen@@YGHPAUSCREEN@@@Z ; set_active_screen

; 2594 : 	
; 2595 : 			/* Draw warning lamps */
; 2596 : 			draw_sprite (width / 512, height / 512, havoc_lamps.warning_1, 118,  40, 68, 34, 539,   2,  22,  12,  71);

  0334a	a1 00 00 00 00	 mov	 eax, DWORD PTR ?havoc_lamps@@3UHAVOC_LAMP_FLAGS@@A
  0334f	c1 e8 11	 shr	 eax, 17			; 00000011H
  03352	83 e0 01	 and	 eax, 1
  03355	0f 84 82 00 00
	00		 je	 $LN50@draw_havoc
  0335b	6a 47		 push	 71			; 00000047H
  0335d	6a 0c		 push	 12			; 0000000cH
  0335f	6a 16		 push	 22			; 00000016H
  03361	6a 02		 push	 2
  03363	68 1b 02 00 00	 push	 539			; 0000021bH
  03368	f3 0f 10 05 00
	00 00 00	 movss	 xmm0, DWORD PTR __real@42080000
  03370	f3 0f 59 45 f0	 mulss	 xmm0, DWORD PTR _height$[ebp]
  03375	f3 0f 5e 05 00
	00 00 00	 divss	 xmm0, DWORD PTR __real@44000000
  0337d	f3 0f 2c c0	 cvttss2si eax, xmm0
  03381	50		 push	 eax
  03382	f3 0f 10 05 00
	00 00 00	 movss	 xmm0, DWORD PTR __real@42880000
  0338a	f3 0f 59 45 f4	 mulss	 xmm0, DWORD PTR _width$[ebp]
  0338f	f3 0f 5e 05 00
	00 00 00	 divss	 xmm0, DWORD PTR __real@44000000
  03397	f3 0f 2c c8	 cvttss2si ecx, xmm0
  0339b	51		 push	 ecx
  0339c	f3 0f 10 05 00
	00 00 00	 movss	 xmm0, DWORD PTR __real@42200000
  033a4	f3 0f 59 45 f0	 mulss	 xmm0, DWORD PTR _height$[ebp]
  033a9	f3 0f 5e 05 00
	00 00 00	 divss	 xmm0, DWORD PTR __real@44000000
  033b1	f3 0f 2c d0	 cvttss2si edx, xmm0
  033b5	52		 push	 edx
  033b6	f3 0f 10 05 00
	00 00 00	 movss	 xmm0, DWORD PTR __real@42ec0000
  033be	f3 0f 59 45 f4	 mulss	 xmm0, DWORD PTR _width$[ebp]
  033c3	f3 0f 5e 05 00
	00 00 00	 divss	 xmm0, DWORD PTR __real@44000000
  033cb	f3 0f 2c c0	 cvttss2si eax, xmm0
  033cf	50		 push	 eax
  033d0	8b 4d c4	 mov	 ecx, DWORD PTR _mask_data$[ebp]
  033d3	51		 push	 ecx
  033d4	8b 55 c8	 mov	 edx, DWORD PTR _sprite_data$[ebp]
  033d7	52		 push	 edx
  033d8	e8 00 00 00 00	 call	 ?blit_rgb_alpha_masked_sprite_zero_mask_value_scaled@@YGXPBE0HHHHHHHHE@Z ; blit_rgb_alpha_masked_sprite_zero_mask_value_scaled
$LN50@draw_havoc:

; 2597 : 			draw_sprite (width / 512, height / 512, havoc_lamps.warning_2, 193,  40, 68, 34, 561,   2,  23,  12,  69);

  033dd	a1 00 00 00 00	 mov	 eax, DWORD PTR ?havoc_lamps@@3UHAVOC_LAMP_FLAGS@@A
  033e2	c1 e8 12	 shr	 eax, 18			; 00000012H
  033e5	83 e0 01	 and	 eax, 1
  033e8	0f 84 82 00 00
	00		 je	 $LN51@draw_havoc
  033ee	6a 45		 push	 69			; 00000045H
  033f0	6a 0c		 push	 12			; 0000000cH
  033f2	6a 17		 push	 23			; 00000017H
  033f4	6a 02		 push	 2
  033f6	68 31 02 00 00	 push	 561			; 00000231H
  033fb	f3 0f 10 05 00
	00 00 00	 movss	 xmm0, DWORD PTR __real@42080000
  03403	f3 0f 59 45 f0	 mulss	 xmm0, DWORD PTR _height$[ebp]
  03408	f3 0f 5e 05 00
	00 00 00	 divss	 xmm0, DWORD PTR __real@44000000
  03410	f3 0f 2c c0	 cvttss2si eax, xmm0
  03414	50		 push	 eax
  03415	f3 0f 10 05 00
	00 00 00	 movss	 xmm0, DWORD PTR __real@42880000
  0341d	f3 0f 59 45 f4	 mulss	 xmm0, DWORD PTR _width$[ebp]
  03422	f3 0f 5e 05 00
	00 00 00	 divss	 xmm0, DWORD PTR __real@44000000
  0342a	f3 0f 2c c8	 cvttss2si ecx, xmm0
  0342e	51		 push	 ecx
  0342f	f3 0f 10 05 00
	00 00 00	 movss	 xmm0, DWORD PTR __real@42200000
  03437	f3 0f 59 45 f0	 mulss	 xmm0, DWORD PTR _height$[ebp]
  0343c	f3 0f 5e 05 00
	00 00 00	 divss	 xmm0, DWORD PTR __real@44000000
  03444	f3 0f 2c d0	 cvttss2si edx, xmm0
  03448	52		 push	 edx
  03449	f3 0f 10 05 00
	00 00 00	 movss	 xmm0, DWORD PTR __real@43410000
  03451	f3 0f 59 45 f4	 mulss	 xmm0, DWORD PTR _width$[ebp]
  03456	f3 0f 5e 05 00
	00 00 00	 divss	 xmm0, DWORD PTR __real@44000000
  0345e	f3 0f 2c c0	 cvttss2si eax, xmm0
  03462	50		 push	 eax
  03463	8b 4d c4	 mov	 ecx, DWORD PTR _mask_data$[ebp]
  03466	51		 push	 ecx
  03467	8b 55 c8	 mov	 edx, DWORD PTR _sprite_data$[ebp]
  0346a	52		 push	 edx
  0346b	e8 00 00 00 00	 call	 ?blit_rgb_alpha_masked_sprite_zero_mask_value_scaled@@YGXPBE0HHHHHHHHE@Z ; blit_rgb_alpha_masked_sprite_zero_mask_value_scaled
$LN51@draw_havoc:

; 2598 : 			draw_sprite (width / 512, height / 512, havoc_lamps.warning_3, 118,  78, 68, 34, 539,  14,  22,  11,  66);

  03470	a1 00 00 00 00	 mov	 eax, DWORD PTR ?havoc_lamps@@3UHAVOC_LAMP_FLAGS@@A
  03475	c1 e8 13	 shr	 eax, 19			; 00000013H
  03478	83 e0 01	 and	 eax, 1
  0347b	0f 84 82 00 00
	00		 je	 $LN52@draw_havoc
  03481	6a 42		 push	 66			; 00000042H
  03483	6a 0b		 push	 11			; 0000000bH
  03485	6a 16		 push	 22			; 00000016H
  03487	6a 0e		 push	 14			; 0000000eH
  03489	68 1b 02 00 00	 push	 539			; 0000021bH
  0348e	f3 0f 10 05 00
	00 00 00	 movss	 xmm0, DWORD PTR __real@42080000
  03496	f3 0f 59 45 f0	 mulss	 xmm0, DWORD PTR _height$[ebp]
  0349b	f3 0f 5e 05 00
	00 00 00	 divss	 xmm0, DWORD PTR __real@44000000
  034a3	f3 0f 2c c0	 cvttss2si eax, xmm0
  034a7	50		 push	 eax
  034a8	f3 0f 10 05 00
	00 00 00	 movss	 xmm0, DWORD PTR __real@42880000
  034b0	f3 0f 59 45 f4	 mulss	 xmm0, DWORD PTR _width$[ebp]
  034b5	f3 0f 5e 05 00
	00 00 00	 divss	 xmm0, DWORD PTR __real@44000000
  034bd	f3 0f 2c c8	 cvttss2si ecx, xmm0
  034c1	51		 push	 ecx
  034c2	f3 0f 10 05 00
	00 00 00	 movss	 xmm0, DWORD PTR __real@429c0000
  034ca	f3 0f 59 45 f0	 mulss	 xmm0, DWORD PTR _height$[ebp]
  034cf	f3 0f 5e 05 00
	00 00 00	 divss	 xmm0, DWORD PTR __real@44000000
  034d7	f3 0f 2c d0	 cvttss2si edx, xmm0
  034db	52		 push	 edx
  034dc	f3 0f 10 05 00
	00 00 00	 movss	 xmm0, DWORD PTR __real@42ec0000
  034e4	f3 0f 59 45 f4	 mulss	 xmm0, DWORD PTR _width$[ebp]
  034e9	f3 0f 5e 05 00
	00 00 00	 divss	 xmm0, DWORD PTR __real@44000000
  034f1	f3 0f 2c c0	 cvttss2si eax, xmm0
  034f5	50		 push	 eax
  034f6	8b 4d c4	 mov	 ecx, DWORD PTR _mask_data$[ebp]
  034f9	51		 push	 ecx
  034fa	8b 55 c8	 mov	 edx, DWORD PTR _sprite_data$[ebp]
  034fd	52		 push	 edx
  034fe	e8 00 00 00 00	 call	 ?blit_rgb_alpha_masked_sprite_zero_mask_value_scaled@@YGXPBE0HHHHHHHHE@Z ; blit_rgb_alpha_masked_sprite_zero_mask_value_scaled
$LN52@draw_havoc:

; 2599 : 			draw_sprite (width / 512, height / 512, havoc_lamps.warning_4, 193,  78, 68, 34, 561,  14,  23,  11,  64);

  03503	a1 00 00 00 00	 mov	 eax, DWORD PTR ?havoc_lamps@@3UHAVOC_LAMP_FLAGS@@A
  03508	c1 e8 14	 shr	 eax, 20			; 00000014H
  0350b	83 e0 01	 and	 eax, 1
  0350e	0f 84 82 00 00
	00		 je	 $LN53@draw_havoc
  03514	6a 40		 push	 64			; 00000040H
  03516	6a 0b		 push	 11			; 0000000bH
  03518	6a 17		 push	 23			; 00000017H
  0351a	6a 0e		 push	 14			; 0000000eH
  0351c	68 31 02 00 00	 push	 561			; 00000231H
  03521	f3 0f 10 05 00
	00 00 00	 movss	 xmm0, DWORD PTR __real@42080000
  03529	f3 0f 59 45 f0	 mulss	 xmm0, DWORD PTR _height$[ebp]
  0352e	f3 0f 5e 05 00
	00 00 00	 divss	 xmm0, DWORD PTR __real@44000000
  03536	f3 0f 2c c0	 cvttss2si eax, xmm0
  0353a	50		 push	 eax
  0353b	f3 0f 10 05 00
	00 00 00	 movss	 xmm0, DWORD PTR __real@42880000
  03543	f3 0f 59 45 f4	 mulss	 xmm0, DWORD PTR _width$[ebp]
  03548	f3 0f 5e 05 00
	00 00 00	 divss	 xmm0, DWORD PTR __real@44000000
  03550	f3 0f 2c c8	 cvttss2si ecx, xmm0
  03554	51		 push	 ecx
  03555	f3 0f 10 05 00
	00 00 00	 movss	 xmm0, DWORD PTR __real@429c0000
  0355d	f3 0f 59 45 f0	 mulss	 xmm0, DWORD PTR _height$[ebp]
  03562	f3 0f 5e 05 00
	00 00 00	 divss	 xmm0, DWORD PTR __real@44000000
  0356a	f3 0f 2c d0	 cvttss2si edx, xmm0
  0356e	52		 push	 edx
  0356f	f3 0f 10 05 00
	00 00 00	 movss	 xmm0, DWORD PTR __real@43410000
  03577	f3 0f 59 45 f4	 mulss	 xmm0, DWORD PTR _width$[ebp]
  0357c	f3 0f 5e 05 00
	00 00 00	 divss	 xmm0, DWORD PTR __real@44000000
  03584	f3 0f 2c c0	 cvttss2si eax, xmm0
  03588	50		 push	 eax
  03589	8b 4d c4	 mov	 ecx, DWORD PTR _mask_data$[ebp]
  0358c	51		 push	 ecx
  0358d	8b 55 c8	 mov	 edx, DWORD PTR _sprite_data$[ebp]
  03590	52		 push	 edx
  03591	e8 00 00 00 00	 call	 ?blit_rgb_alpha_masked_sprite_zero_mask_value_scaled@@YGXPBE0HHHHHHHHE@Z ; blit_rgb_alpha_masked_sprite_zero_mask_value_scaled
$LN53@draw_havoc:

; 2600 : 			draw_sprite (width / 512, height / 512, havoc_lamps.warning_5, 118, 116, 68, 34, 539,  25,  22,  11,  61);

  03596	a1 00 00 00 00	 mov	 eax, DWORD PTR ?havoc_lamps@@3UHAVOC_LAMP_FLAGS@@A
  0359b	c1 e8 15	 shr	 eax, 21			; 00000015H
  0359e	83 e0 01	 and	 eax, 1
  035a1	0f 84 82 00 00
	00		 je	 $LN54@draw_havoc
  035a7	6a 3d		 push	 61			; 0000003dH
  035a9	6a 0b		 push	 11			; 0000000bH
  035ab	6a 16		 push	 22			; 00000016H
  035ad	6a 19		 push	 25			; 00000019H
  035af	68 1b 02 00 00	 push	 539			; 0000021bH
  035b4	f3 0f 10 05 00
	00 00 00	 movss	 xmm0, DWORD PTR __real@42080000
  035bc	f3 0f 59 45 f0	 mulss	 xmm0, DWORD PTR _height$[ebp]
  035c1	f3 0f 5e 05 00
	00 00 00	 divss	 xmm0, DWORD PTR __real@44000000
  035c9	f3 0f 2c c0	 cvttss2si eax, xmm0
  035cd	50		 push	 eax
  035ce	f3 0f 10 05 00
	00 00 00	 movss	 xmm0, DWORD PTR __real@42880000
  035d6	f3 0f 59 45 f4	 mulss	 xmm0, DWORD PTR _width$[ebp]
  035db	f3 0f 5e 05 00
	00 00 00	 divss	 xmm0, DWORD PTR __real@44000000
  035e3	f3 0f 2c c8	 cvttss2si ecx, xmm0
  035e7	51		 push	 ecx
  035e8	f3 0f 10 05 00
	00 00 00	 movss	 xmm0, DWORD PTR __real@42e80000
  035f0	f3 0f 59 45 f0	 mulss	 xmm0, DWORD PTR _height$[ebp]
  035f5	f3 0f 5e 05 00
	00 00 00	 divss	 xmm0, DWORD PTR __real@44000000
  035fd	f3 0f 2c d0	 cvttss2si edx, xmm0
  03601	52		 push	 edx
  03602	f3 0f 10 05 00
	00 00 00	 movss	 xmm0, DWORD PTR __real@42ec0000
  0360a	f3 0f 59 45 f4	 mulss	 xmm0, DWORD PTR _width$[ebp]
  0360f	f3 0f 5e 05 00
	00 00 00	 divss	 xmm0, DWORD PTR __real@44000000
  03617	f3 0f 2c c0	 cvttss2si eax, xmm0
  0361b	50		 push	 eax
  0361c	8b 4d c4	 mov	 ecx, DWORD PTR _mask_data$[ebp]
  0361f	51		 push	 ecx
  03620	8b 55 c8	 mov	 edx, DWORD PTR _sprite_data$[ebp]
  03623	52		 push	 edx
  03624	e8 00 00 00 00	 call	 ?blit_rgb_alpha_masked_sprite_zero_mask_value_scaled@@YGXPBE0HHHHHHHHE@Z ; blit_rgb_alpha_masked_sprite_zero_mask_value_scaled
$LN54@draw_havoc:

; 2601 : 			draw_sprite (width / 512, height / 512, havoc_lamps.warning_6, 193, 116, 68, 34, 561,  25,  23,  11,  59);

  03629	a1 00 00 00 00	 mov	 eax, DWORD PTR ?havoc_lamps@@3UHAVOC_LAMP_FLAGS@@A
  0362e	c1 e8 16	 shr	 eax, 22			; 00000016H
  03631	83 e0 01	 and	 eax, 1
  03634	0f 84 82 00 00
	00		 je	 $LN55@draw_havoc
  0363a	6a 3b		 push	 59			; 0000003bH
  0363c	6a 0b		 push	 11			; 0000000bH
  0363e	6a 17		 push	 23			; 00000017H
  03640	6a 19		 push	 25			; 00000019H
  03642	68 31 02 00 00	 push	 561			; 00000231H
  03647	f3 0f 10 05 00
	00 00 00	 movss	 xmm0, DWORD PTR __real@42080000
  0364f	f3 0f 59 45 f0	 mulss	 xmm0, DWORD PTR _height$[ebp]
  03654	f3 0f 5e 05 00
	00 00 00	 divss	 xmm0, DWORD PTR __real@44000000
  0365c	f3 0f 2c c0	 cvttss2si eax, xmm0
  03660	50		 push	 eax
  03661	f3 0f 10 05 00
	00 00 00	 movss	 xmm0, DWORD PTR __real@42880000
  03669	f3 0f 59 45 f4	 mulss	 xmm0, DWORD PTR _width$[ebp]
  0366e	f3 0f 5e 05 00
	00 00 00	 divss	 xmm0, DWORD PTR __real@44000000
  03676	f3 0f 2c c8	 cvttss2si ecx, xmm0
  0367a	51		 push	 ecx
  0367b	f3 0f 10 05 00
	00 00 00	 movss	 xmm0, DWORD PTR __real@42e80000
  03683	f3 0f 59 45 f0	 mulss	 xmm0, DWORD PTR _height$[ebp]
  03688	f3 0f 5e 05 00
	00 00 00	 divss	 xmm0, DWORD PTR __real@44000000
  03690	f3 0f 2c d0	 cvttss2si edx, xmm0
  03694	52		 push	 edx
  03695	f3 0f 10 05 00
	00 00 00	 movss	 xmm0, DWORD PTR __real@43410000
  0369d	f3 0f 59 45 f4	 mulss	 xmm0, DWORD PTR _width$[ebp]
  036a2	f3 0f 5e 05 00
	00 00 00	 divss	 xmm0, DWORD PTR __real@44000000
  036aa	f3 0f 2c c0	 cvttss2si eax, xmm0
  036ae	50		 push	 eax
  036af	8b 4d c4	 mov	 ecx, DWORD PTR _mask_data$[ebp]
  036b2	51		 push	 ecx
  036b3	8b 55 c8	 mov	 edx, DWORD PTR _sprite_data$[ebp]
  036b6	52		 push	 edx
  036b7	e8 00 00 00 00	 call	 ?blit_rgb_alpha_masked_sprite_zero_mask_value_scaled@@YGXPBE0HHHHHHHHE@Z ; blit_rgb_alpha_masked_sprite_zero_mask_value_scaled
$LN55@draw_havoc:

; 2602 : 			draw_sprite (width / 512, height / 512, havoc_lamps.warning_7, 118, 154, 68, 34, 539,  36,  22,  12,  56);

  036bc	a1 00 00 00 00	 mov	 eax, DWORD PTR ?havoc_lamps@@3UHAVOC_LAMP_FLAGS@@A
  036c1	c1 e8 17	 shr	 eax, 23			; 00000017H
  036c4	83 e0 01	 and	 eax, 1
  036c7	0f 84 82 00 00
	00		 je	 $LN56@draw_havoc
  036cd	6a 38		 push	 56			; 00000038H
  036cf	6a 0c		 push	 12			; 0000000cH
  036d1	6a 16		 push	 22			; 00000016H
  036d3	6a 24		 push	 36			; 00000024H
  036d5	68 1b 02 00 00	 push	 539			; 0000021bH
  036da	f3 0f 10 05 00
	00 00 00	 movss	 xmm0, DWORD PTR __real@42080000
  036e2	f3 0f 59 45 f0	 mulss	 xmm0, DWORD PTR _height$[ebp]
  036e7	f3 0f 5e 05 00
	00 00 00	 divss	 xmm0, DWORD PTR __real@44000000
  036ef	f3 0f 2c c0	 cvttss2si eax, xmm0
  036f3	50		 push	 eax
  036f4	f3 0f 10 05 00
	00 00 00	 movss	 xmm0, DWORD PTR __real@42880000
  036fc	f3 0f 59 45 f4	 mulss	 xmm0, DWORD PTR _width$[ebp]
  03701	f3 0f 5e 05 00
	00 00 00	 divss	 xmm0, DWORD PTR __real@44000000
  03709	f3 0f 2c c8	 cvttss2si ecx, xmm0
  0370d	51		 push	 ecx
  0370e	f3 0f 10 05 00
	00 00 00	 movss	 xmm0, DWORD PTR __real@431a0000
  03716	f3 0f 59 45 f0	 mulss	 xmm0, DWORD PTR _height$[ebp]
  0371b	f3 0f 5e 05 00
	00 00 00	 divss	 xmm0, DWORD PTR __real@44000000
  03723	f3 0f 2c d0	 cvttss2si edx, xmm0
  03727	52		 push	 edx
  03728	f3 0f 10 05 00
	00 00 00	 movss	 xmm0, DWORD PTR __real@42ec0000
  03730	f3 0f 59 45 f4	 mulss	 xmm0, DWORD PTR _width$[ebp]
  03735	f3 0f 5e 05 00
	00 00 00	 divss	 xmm0, DWORD PTR __real@44000000
  0373d	f3 0f 2c c0	 cvttss2si eax, xmm0
  03741	50		 push	 eax
  03742	8b 4d c4	 mov	 ecx, DWORD PTR _mask_data$[ebp]
  03745	51		 push	 ecx
  03746	8b 55 c8	 mov	 edx, DWORD PTR _sprite_data$[ebp]
  03749	52		 push	 edx
  0374a	e8 00 00 00 00	 call	 ?blit_rgb_alpha_masked_sprite_zero_mask_value_scaled@@YGXPBE0HHHHHHHHE@Z ; blit_rgb_alpha_masked_sprite_zero_mask_value_scaled
$LN56@draw_havoc:

; 2603 : 			draw_sprite (width / 512, height / 512, havoc_lamps.warning_8, 193, 154, 68, 34, 561,  36,  23,  12,  54);

  0374f	a1 00 00 00 00	 mov	 eax, DWORD PTR ?havoc_lamps@@3UHAVOC_LAMP_FLAGS@@A
  03754	c1 e8 18	 shr	 eax, 24			; 00000018H
  03757	83 e0 01	 and	 eax, 1
  0375a	0f 84 82 00 00
	00		 je	 $LN57@draw_havoc
  03760	6a 36		 push	 54			; 00000036H
  03762	6a 0c		 push	 12			; 0000000cH
  03764	6a 17		 push	 23			; 00000017H
  03766	6a 24		 push	 36			; 00000024H
  03768	68 31 02 00 00	 push	 561			; 00000231H
  0376d	f3 0f 10 05 00
	00 00 00	 movss	 xmm0, DWORD PTR __real@42080000
  03775	f3 0f 59 45 f0	 mulss	 xmm0, DWORD PTR _height$[ebp]
  0377a	f3 0f 5e 05 00
	00 00 00	 divss	 xmm0, DWORD PTR __real@44000000
  03782	f3 0f 2c c0	 cvttss2si eax, xmm0
  03786	50		 push	 eax
  03787	f3 0f 10 05 00
	00 00 00	 movss	 xmm0, DWORD PTR __real@42880000
  0378f	f3 0f 59 45 f4	 mulss	 xmm0, DWORD PTR _width$[ebp]
  03794	f3 0f 5e 05 00
	00 00 00	 divss	 xmm0, DWORD PTR __real@44000000
  0379c	f3 0f 2c c8	 cvttss2si ecx, xmm0
  037a0	51		 push	 ecx
  037a1	f3 0f 10 05 00
	00 00 00	 movss	 xmm0, DWORD PTR __real@431a0000
  037a9	f3 0f 59 45 f0	 mulss	 xmm0, DWORD PTR _height$[ebp]
  037ae	f3 0f 5e 05 00
	00 00 00	 divss	 xmm0, DWORD PTR __real@44000000
  037b6	f3 0f 2c d0	 cvttss2si edx, xmm0
  037ba	52		 push	 edx
  037bb	f3 0f 10 05 00
	00 00 00	 movss	 xmm0, DWORD PTR __real@43410000
  037c3	f3 0f 59 45 f4	 mulss	 xmm0, DWORD PTR _width$[ebp]
  037c8	f3 0f 5e 05 00
	00 00 00	 divss	 xmm0, DWORD PTR __real@44000000
  037d0	f3 0f 2c c0	 cvttss2si eax, xmm0
  037d4	50		 push	 eax
  037d5	8b 4d c4	 mov	 ecx, DWORD PTR _mask_data$[ebp]
  037d8	51		 push	 ecx
  037d9	8b 55 c8	 mov	 edx, DWORD PTR _sprite_data$[ebp]
  037dc	52		 push	 edx
  037dd	e8 00 00 00 00	 call	 ?blit_rgb_alpha_masked_sprite_zero_mask_value_scaled@@YGXPBE0HHHHHHHHE@Z ; blit_rgb_alpha_masked_sprite_zero_mask_value_scaled
$LN57@draw_havoc:

; 2604 : 	
; 2605 : 			/* Draw threat warning lamps */
; 2606 : 			draw_sprite (width / 512, height / 512, havoc_lamps.threat_warning_radar_type_1, 120, 377, 18, 10, 274, 230,   8,   6, 229);

  037e2	a1 04 00 00 00	 mov	 eax, DWORD PTR ?havoc_lamps@@3UHAVOC_LAMP_FLAGS@@A+4
  037e7	c1 e8 0b	 shr	 eax, 11			; 0000000bH
  037ea	83 e0 01	 and	 eax, 1
  037ed	0f 84 88 00 00
	00		 je	 $LN58@draw_havoc
  037f3	68 e5 00 00 00	 push	 229			; 000000e5H
  037f8	6a 06		 push	 6
  037fa	6a 08		 push	 8
  037fc	68 e6 00 00 00	 push	 230			; 000000e6H
  03801	68 12 01 00 00	 push	 274			; 00000112H
  03806	f3 0f 10 05 00
	00 00 00	 movss	 xmm0, DWORD PTR __real@41200000
  0380e	f3 0f 59 45 f0	 mulss	 xmm0, DWORD PTR _height$[ebp]
  03813	f3 0f 5e 05 00
	00 00 00	 divss	 xmm0, DWORD PTR __real@44000000
  0381b	f3 0f 2c c0	 cvttss2si eax, xmm0
  0381f	50		 push	 eax
  03820	f3 0f 10 05 00
	00 00 00	 movss	 xmm0, DWORD PTR __real@41900000
  03828	f3 0f 59 45 f4	 mulss	 xmm0, DWORD PTR _width$[ebp]
  0382d	f3 0f 5e 05 00
	00 00 00	 divss	 xmm0, DWORD PTR __real@44000000
  03835	f3 0f 2c c8	 cvttss2si ecx, xmm0
  03839	51		 push	 ecx
  0383a	f3 0f 10 05 00
	00 00 00	 movss	 xmm0, DWORD PTR __real@43bc8000
  03842	f3 0f 59 45 f0	 mulss	 xmm0, DWORD PTR _height$[ebp]
  03847	f3 0f 5e 05 00
	00 00 00	 divss	 xmm0, DWORD PTR __real@44000000
  0384f	f3 0f 2c d0	 cvttss2si edx, xmm0
  03853	52		 push	 edx
  03854	f3 0f 10 05 00
	00 00 00	 movss	 xmm0, DWORD PTR __real@42f00000
  0385c	f3 0f 59 45 f4	 mulss	 xmm0, DWORD PTR _width$[ebp]
  03861	f3 0f 5e 05 00
	00 00 00	 divss	 xmm0, DWORD PTR __real@44000000
  03869	f3 0f 2c c0	 cvttss2si eax, xmm0
  0386d	50		 push	 eax
  0386e	8b 4d c4	 mov	 ecx, DWORD PTR _mask_data$[ebp]
  03871	51		 push	 ecx
  03872	8b 55 c8	 mov	 edx, DWORD PTR _sprite_data$[ebp]
  03875	52		 push	 edx
  03876	e8 00 00 00 00	 call	 ?blit_rgb_alpha_masked_sprite_zero_mask_value_scaled@@YGXPBE0HHHHHHHHE@Z ; blit_rgb_alpha_masked_sprite_zero_mask_value_scaled
$LN58@draw_havoc:

; 2607 : 			draw_sprite (width / 512, height / 512, havoc_lamps.threat_warning_radar_type_2, 143, 377, 18, 10, 282, 230,   8,   6, 227);

  0387b	a1 04 00 00 00	 mov	 eax, DWORD PTR ?havoc_lamps@@3UHAVOC_LAMP_FLAGS@@A+4
  03880	c1 e8 0c	 shr	 eax, 12			; 0000000cH
  03883	83 e0 01	 and	 eax, 1
  03886	0f 84 88 00 00
	00		 je	 $LN59@draw_havoc
  0388c	68 e3 00 00 00	 push	 227			; 000000e3H
  03891	6a 06		 push	 6
  03893	6a 08		 push	 8
  03895	68 e6 00 00 00	 push	 230			; 000000e6H
  0389a	68 1a 01 00 00	 push	 282			; 0000011aH
  0389f	f3 0f 10 05 00
	00 00 00	 movss	 xmm0, DWORD PTR __real@41200000
  038a7	f3 0f 59 45 f0	 mulss	 xmm0, DWORD PTR _height$[ebp]
  038ac	f3 0f 5e 05 00
	00 00 00	 divss	 xmm0, DWORD PTR __real@44000000
  038b4	f3 0f 2c c0	 cvttss2si eax, xmm0
  038b8	50		 push	 eax
  038b9	f3 0f 10 05 00
	00 00 00	 movss	 xmm0, DWORD PTR __real@41900000
  038c1	f3 0f 59 45 f4	 mulss	 xmm0, DWORD PTR _width$[ebp]
  038c6	f3 0f 5e 05 00
	00 00 00	 divss	 xmm0, DWORD PTR __real@44000000
  038ce	f3 0f 2c c8	 cvttss2si ecx, xmm0
  038d2	51		 push	 ecx
  038d3	f3 0f 10 05 00
	00 00 00	 movss	 xmm0, DWORD PTR __real@43bc8000
  038db	f3 0f 59 45 f0	 mulss	 xmm0, DWORD PTR _height$[ebp]
  038e0	f3 0f 5e 05 00
	00 00 00	 divss	 xmm0, DWORD PTR __real@44000000
  038e8	f3 0f 2c d0	 cvttss2si edx, xmm0
  038ec	52		 push	 edx
  038ed	f3 0f 10 05 00
	00 00 00	 movss	 xmm0, DWORD PTR __real@430f0000
  038f5	f3 0f 59 45 f4	 mulss	 xmm0, DWORD PTR _width$[ebp]
  038fa	f3 0f 5e 05 00
	00 00 00	 divss	 xmm0, DWORD PTR __real@44000000
  03902	f3 0f 2c c0	 cvttss2si eax, xmm0
  03906	50		 push	 eax
  03907	8b 4d c4	 mov	 ecx, DWORD PTR _mask_data$[ebp]
  0390a	51		 push	 ecx
  0390b	8b 55 c8	 mov	 edx, DWORD PTR _sprite_data$[ebp]
  0390e	52		 push	 edx
  0390f	e8 00 00 00 00	 call	 ?blit_rgb_alpha_masked_sprite_zero_mask_value_scaled@@YGXPBE0HHHHHHHHE@Z ; blit_rgb_alpha_masked_sprite_zero_mask_value_scaled
$LN59@draw_havoc:

; 2608 : 			draw_sprite (width / 512, height / 512, havoc_lamps.threat_warning_radar_type_3, 170, 377, 18, 10, 290, 230,   8,   6, 224);

  03914	a1 04 00 00 00	 mov	 eax, DWORD PTR ?havoc_lamps@@3UHAVOC_LAMP_FLAGS@@A+4
  03919	c1 e8 0d	 shr	 eax, 13			; 0000000dH
  0391c	83 e0 01	 and	 eax, 1
  0391f	0f 84 88 00 00
	00		 je	 $LN60@draw_havoc
  03925	68 e0 00 00 00	 push	 224			; 000000e0H
  0392a	6a 06		 push	 6
  0392c	6a 08		 push	 8
  0392e	68 e6 00 00 00	 push	 230			; 000000e6H
  03933	68 22 01 00 00	 push	 290			; 00000122H
  03938	f3 0f 10 05 00
	00 00 00	 movss	 xmm0, DWORD PTR __real@41200000
  03940	f3 0f 59 45 f0	 mulss	 xmm0, DWORD PTR _height$[ebp]
  03945	f3 0f 5e 05 00
	00 00 00	 divss	 xmm0, DWORD PTR __real@44000000
  0394d	f3 0f 2c c0	 cvttss2si eax, xmm0
  03951	50		 push	 eax
  03952	f3 0f 10 05 00
	00 00 00	 movss	 xmm0, DWORD PTR __real@41900000
  0395a	f3 0f 59 45 f4	 mulss	 xmm0, DWORD PTR _width$[ebp]
  0395f	f3 0f 5e 05 00
	00 00 00	 divss	 xmm0, DWORD PTR __real@44000000
  03967	f3 0f 2c c8	 cvttss2si ecx, xmm0
  0396b	51		 push	 ecx
  0396c	f3 0f 10 05 00
	00 00 00	 movss	 xmm0, DWORD PTR __real@43bc8000
  03974	f3 0f 59 45 f0	 mulss	 xmm0, DWORD PTR _height$[ebp]
  03979	f3 0f 5e 05 00
	00 00 00	 divss	 xmm0, DWORD PTR __real@44000000
  03981	f3 0f 2c d0	 cvttss2si edx, xmm0
  03985	52		 push	 edx
  03986	f3 0f 10 05 00
	00 00 00	 movss	 xmm0, DWORD PTR __real@432a0000
  0398e	f3 0f 59 45 f4	 mulss	 xmm0, DWORD PTR _width$[ebp]
  03993	f3 0f 5e 05 00
	00 00 00	 divss	 xmm0, DWORD PTR __real@44000000
  0399b	f3 0f 2c c0	 cvttss2si eax, xmm0
  0399f	50		 push	 eax
  039a0	8b 4d c4	 mov	 ecx, DWORD PTR _mask_data$[ebp]
  039a3	51		 push	 ecx
  039a4	8b 55 c8	 mov	 edx, DWORD PTR _sprite_data$[ebp]
  039a7	52		 push	 edx
  039a8	e8 00 00 00 00	 call	 ?blit_rgb_alpha_masked_sprite_zero_mask_value_scaled@@YGXPBE0HHHHHHHHE@Z ; blit_rgb_alpha_masked_sprite_zero_mask_value_scaled
$LN60@draw_havoc:

; 2609 : 			draw_sprite (width / 512, height / 512, havoc_lamps.threat_warning_radar_type_4, 195, 377, 18, 10, 298, 230,   7,   6, 222);

  039ad	a1 04 00 00 00	 mov	 eax, DWORD PTR ?havoc_lamps@@3UHAVOC_LAMP_FLAGS@@A+4
  039b2	c1 e8 0e	 shr	 eax, 14			; 0000000eH
  039b5	83 e0 01	 and	 eax, 1
  039b8	0f 84 88 00 00
	00		 je	 $LN61@draw_havoc
  039be	68 de 00 00 00	 push	 222			; 000000deH
  039c3	6a 06		 push	 6
  039c5	6a 07		 push	 7
  039c7	68 e6 00 00 00	 push	 230			; 000000e6H
  039cc	68 2a 01 00 00	 push	 298			; 0000012aH
  039d1	f3 0f 10 05 00
	00 00 00	 movss	 xmm0, DWORD PTR __real@41200000
  039d9	f3 0f 59 45 f0	 mulss	 xmm0, DWORD PTR _height$[ebp]
  039de	f3 0f 5e 05 00
	00 00 00	 divss	 xmm0, DWORD PTR __real@44000000
  039e6	f3 0f 2c c0	 cvttss2si eax, xmm0
  039ea	50		 push	 eax
  039eb	f3 0f 10 05 00
	00 00 00	 movss	 xmm0, DWORD PTR __real@41900000
  039f3	f3 0f 59 45 f4	 mulss	 xmm0, DWORD PTR _width$[ebp]
  039f8	f3 0f 5e 05 00
	00 00 00	 divss	 xmm0, DWORD PTR __real@44000000
  03a00	f3 0f 2c c8	 cvttss2si ecx, xmm0
  03a04	51		 push	 ecx
  03a05	f3 0f 10 05 00
	00 00 00	 movss	 xmm0, DWORD PTR __real@43bc8000
  03a0d	f3 0f 59 45 f0	 mulss	 xmm0, DWORD PTR _height$[ebp]
  03a12	f3 0f 5e 05 00
	00 00 00	 divss	 xmm0, DWORD PTR __real@44000000
  03a1a	f3 0f 2c d0	 cvttss2si edx, xmm0
  03a1e	52		 push	 edx
  03a1f	f3 0f 10 05 00
	00 00 00	 movss	 xmm0, DWORD PTR __real@43430000
  03a27	f3 0f 59 45 f4	 mulss	 xmm0, DWORD PTR _width$[ebp]
  03a2c	f3 0f 5e 05 00
	00 00 00	 divss	 xmm0, DWORD PTR __real@44000000
  03a34	f3 0f 2c c0	 cvttss2si eax, xmm0
  03a38	50		 push	 eax
  03a39	8b 4d c4	 mov	 ecx, DWORD PTR _mask_data$[ebp]
  03a3c	51		 push	 ecx
  03a3d	8b 55 c8	 mov	 edx, DWORD PTR _sprite_data$[ebp]
  03a40	52		 push	 edx
  03a41	e8 00 00 00 00	 call	 ?blit_rgb_alpha_masked_sprite_zero_mask_value_scaled@@YGXPBE0HHHHHHHHE@Z ; blit_rgb_alpha_masked_sprite_zero_mask_value_scaled
$LN61@draw_havoc:

; 2610 : 			draw_sprite (width / 512, height / 512, havoc_lamps.threat_warning_radar_type_5, 219, 377, 18, 10, 305, 230,   8,   6, 219);

  03a46	a1 04 00 00 00	 mov	 eax, DWORD PTR ?havoc_lamps@@3UHAVOC_LAMP_FLAGS@@A+4
  03a4b	c1 e8 0f	 shr	 eax, 15			; 0000000fH
  03a4e	83 e0 01	 and	 eax, 1
  03a51	0f 84 88 00 00
	00		 je	 $LN62@draw_havoc
  03a57	68 db 00 00 00	 push	 219			; 000000dbH
  03a5c	6a 06		 push	 6
  03a5e	6a 08		 push	 8
  03a60	68 e6 00 00 00	 push	 230			; 000000e6H
  03a65	68 31 01 00 00	 push	 305			; 00000131H
  03a6a	f3 0f 10 05 00
	00 00 00	 movss	 xmm0, DWORD PTR __real@41200000
  03a72	f3 0f 59 45 f0	 mulss	 xmm0, DWORD PTR _height$[ebp]
  03a77	f3 0f 5e 05 00
	00 00 00	 divss	 xmm0, DWORD PTR __real@44000000
  03a7f	f3 0f 2c c0	 cvttss2si eax, xmm0
  03a83	50		 push	 eax
  03a84	f3 0f 10 05 00
	00 00 00	 movss	 xmm0, DWORD PTR __real@41900000
  03a8c	f3 0f 59 45 f4	 mulss	 xmm0, DWORD PTR _width$[ebp]
  03a91	f3 0f 5e 05 00
	00 00 00	 divss	 xmm0, DWORD PTR __real@44000000
  03a99	f3 0f 2c c8	 cvttss2si ecx, xmm0
  03a9d	51		 push	 ecx
  03a9e	f3 0f 10 05 00
	00 00 00	 movss	 xmm0, DWORD PTR __real@43bc8000
  03aa6	f3 0f 59 45 f0	 mulss	 xmm0, DWORD PTR _height$[ebp]
  03aab	f3 0f 5e 05 00
	00 00 00	 divss	 xmm0, DWORD PTR __real@44000000
  03ab3	f3 0f 2c d0	 cvttss2si edx, xmm0
  03ab7	52		 push	 edx
  03ab8	f3 0f 10 05 00
	00 00 00	 movss	 xmm0, DWORD PTR __real@435b0000
  03ac0	f3 0f 59 45 f4	 mulss	 xmm0, DWORD PTR _width$[ebp]
  03ac5	f3 0f 5e 05 00
	00 00 00	 divss	 xmm0, DWORD PTR __real@44000000
  03acd	f3 0f 2c c0	 cvttss2si eax, xmm0
  03ad1	50		 push	 eax
  03ad2	8b 4d c4	 mov	 ecx, DWORD PTR _mask_data$[ebp]
  03ad5	51		 push	 ecx
  03ad6	8b 55 c8	 mov	 edx, DWORD PTR _sprite_data$[ebp]
  03ad9	52		 push	 edx
  03ada	e8 00 00 00 00	 call	 ?blit_rgb_alpha_masked_sprite_zero_mask_value_scaled@@YGXPBE0HHHHHHHHE@Z ; blit_rgb_alpha_masked_sprite_zero_mask_value_scaled
$LN62@draw_havoc:

; 2611 : 			draw_sprite (width / 512, height / 512, havoc_lamps.threat_warning_radar_type_6, 244, 377, 18, 10, 313, 230,   8,   6, 217);

  03adf	a1 04 00 00 00	 mov	 eax, DWORD PTR ?havoc_lamps@@3UHAVOC_LAMP_FLAGS@@A+4
  03ae4	c1 e8 10	 shr	 eax, 16			; 00000010H
  03ae7	83 e0 01	 and	 eax, 1
  03aea	0f 84 88 00 00
	00		 je	 $LN63@draw_havoc
  03af0	68 d9 00 00 00	 push	 217			; 000000d9H
  03af5	6a 06		 push	 6
  03af7	6a 08		 push	 8
  03af9	68 e6 00 00 00	 push	 230			; 000000e6H
  03afe	68 39 01 00 00	 push	 313			; 00000139H
  03b03	f3 0f 10 05 00
	00 00 00	 movss	 xmm0, DWORD PTR __real@41200000
  03b0b	f3 0f 59 45 f0	 mulss	 xmm0, DWORD PTR _height$[ebp]
  03b10	f3 0f 5e 05 00
	00 00 00	 divss	 xmm0, DWORD PTR __real@44000000
  03b18	f3 0f 2c c0	 cvttss2si eax, xmm0
  03b1c	50		 push	 eax
  03b1d	f3 0f 10 05 00
	00 00 00	 movss	 xmm0, DWORD PTR __real@41900000
  03b25	f3 0f 59 45 f4	 mulss	 xmm0, DWORD PTR _width$[ebp]
  03b2a	f3 0f 5e 05 00
	00 00 00	 divss	 xmm0, DWORD PTR __real@44000000
  03b32	f3 0f 2c c8	 cvttss2si ecx, xmm0
  03b36	51		 push	 ecx
  03b37	f3 0f 10 05 00
	00 00 00	 movss	 xmm0, DWORD PTR __real@43bc8000
  03b3f	f3 0f 59 45 f0	 mulss	 xmm0, DWORD PTR _height$[ebp]
  03b44	f3 0f 5e 05 00
	00 00 00	 divss	 xmm0, DWORD PTR __real@44000000
  03b4c	f3 0f 2c d0	 cvttss2si edx, xmm0
  03b50	52		 push	 edx
  03b51	f3 0f 10 05 00
	00 00 00	 movss	 xmm0, DWORD PTR __real@43740000
  03b59	f3 0f 59 45 f4	 mulss	 xmm0, DWORD PTR _width$[ebp]
  03b5e	f3 0f 5e 05 00
	00 00 00	 divss	 xmm0, DWORD PTR __real@44000000
  03b66	f3 0f 2c c0	 cvttss2si eax, xmm0
  03b6a	50		 push	 eax
  03b6b	8b 4d c4	 mov	 ecx, DWORD PTR _mask_data$[ebp]
  03b6e	51		 push	 ecx
  03b6f	8b 55 c8	 mov	 edx, DWORD PTR _sprite_data$[ebp]
  03b72	52		 push	 edx
  03b73	e8 00 00 00 00	 call	 ?blit_rgb_alpha_masked_sprite_zero_mask_value_scaled@@YGXPBE0HHHHHHHHE@Z ; blit_rgb_alpha_masked_sprite_zero_mask_value_scaled
$LN63@draw_havoc:

; 2612 : 			draw_sprite (width / 512, height / 512, havoc_lamps.threat_warning_close_range_1, 151, 322, 11, 12, 289, 221,   5,   3, 209);

  03b78	a1 04 00 00 00	 mov	 eax, DWORD PTR ?havoc_lamps@@3UHAVOC_LAMP_FLAGS@@A+4
  03b7d	c1 e8 13	 shr	 eax, 19			; 00000013H
  03b80	83 e0 01	 and	 eax, 1
  03b83	0f 84 88 00 00
	00		 je	 $LN64@draw_havoc
  03b89	68 d1 00 00 00	 push	 209			; 000000d1H
  03b8e	6a 03		 push	 3
  03b90	6a 05		 push	 5
  03b92	68 dd 00 00 00	 push	 221			; 000000ddH
  03b97	68 21 01 00 00	 push	 289			; 00000121H
  03b9c	f3 0f 10 05 00
	00 00 00	 movss	 xmm0, DWORD PTR __real@41400000
  03ba4	f3 0f 59 45 f0	 mulss	 xmm0, DWORD PTR _height$[ebp]
  03ba9	f3 0f 5e 05 00
	00 00 00	 divss	 xmm0, DWORD PTR __real@44000000
  03bb1	f3 0f 2c c0	 cvttss2si eax, xmm0
  03bb5	50		 push	 eax
  03bb6	f3 0f 10 05 00
	00 00 00	 movss	 xmm0, DWORD PTR __real@41300000
  03bbe	f3 0f 59 45 f4	 mulss	 xmm0, DWORD PTR _width$[ebp]
  03bc3	f3 0f 5e 05 00
	00 00 00	 divss	 xmm0, DWORD PTR __real@44000000
  03bcb	f3 0f 2c c8	 cvttss2si ecx, xmm0
  03bcf	51		 push	 ecx
  03bd0	f3 0f 10 05 00
	00 00 00	 movss	 xmm0, DWORD PTR __real@43a10000
  03bd8	f3 0f 59 45 f0	 mulss	 xmm0, DWORD PTR _height$[ebp]
  03bdd	f3 0f 5e 05 00
	00 00 00	 divss	 xmm0, DWORD PTR __real@44000000
  03be5	f3 0f 2c d0	 cvttss2si edx, xmm0
  03be9	52		 push	 edx
  03bea	f3 0f 10 05 00
	00 00 00	 movss	 xmm0, DWORD PTR __real@43170000
  03bf2	f3 0f 59 45 f4	 mulss	 xmm0, DWORD PTR _width$[ebp]
  03bf7	f3 0f 5e 05 00
	00 00 00	 divss	 xmm0, DWORD PTR __real@44000000
  03bff	f3 0f 2c c0	 cvttss2si eax, xmm0
  03c03	50		 push	 eax
  03c04	8b 4d c4	 mov	 ecx, DWORD PTR _mask_data$[ebp]
  03c07	51		 push	 ecx
  03c08	8b 55 c8	 mov	 edx, DWORD PTR _sprite_data$[ebp]
  03c0b	52		 push	 edx
  03c0c	e8 00 00 00 00	 call	 ?blit_rgb_alpha_masked_sprite_zero_mask_value_scaled@@YGXPBE0HHHHHHHHE@Z ; blit_rgb_alpha_masked_sprite_zero_mask_value_scaled
$LN64@draw_havoc:

; 2613 : 			draw_sprite (width / 512, height / 512, havoc_lamps.threat_warning_close_range_2, 145, 309,  9, 13, 284, 217,   5,   5, 207);	// (19% alpha)

  03c11	a1 04 00 00 00	 mov	 eax, DWORD PTR ?havoc_lamps@@3UHAVOC_LAMP_FLAGS@@A+4
  03c16	c1 e8 14	 shr	 eax, 20			; 00000014H
  03c19	83 e0 01	 and	 eax, 1
  03c1c	0f 84 88 00 00
	00		 je	 $LN65@draw_havoc
  03c22	68 cf 00 00 00	 push	 207			; 000000cfH
  03c27	6a 05		 push	 5
  03c29	6a 05		 push	 5
  03c2b	68 d9 00 00 00	 push	 217			; 000000d9H
  03c30	68 1c 01 00 00	 push	 284			; 0000011cH
  03c35	f3 0f 10 05 00
	00 00 00	 movss	 xmm0, DWORD PTR __real@41500000
  03c3d	f3 0f 59 45 f0	 mulss	 xmm0, DWORD PTR _height$[ebp]
  03c42	f3 0f 5e 05 00
	00 00 00	 divss	 xmm0, DWORD PTR __real@44000000
  03c4a	f3 0f 2c c0	 cvttss2si eax, xmm0
  03c4e	50		 push	 eax
  03c4f	f3 0f 10 05 00
	00 00 00	 movss	 xmm0, DWORD PTR __real@41100000
  03c57	f3 0f 59 45 f4	 mulss	 xmm0, DWORD PTR _width$[ebp]
  03c5c	f3 0f 5e 05 00
	00 00 00	 divss	 xmm0, DWORD PTR __real@44000000
  03c64	f3 0f 2c c8	 cvttss2si ecx, xmm0
  03c68	51		 push	 ecx
  03c69	f3 0f 10 05 00
	00 00 00	 movss	 xmm0, DWORD PTR __real@439a8000
  03c71	f3 0f 59 45 f0	 mulss	 xmm0, DWORD PTR _height$[ebp]
  03c76	f3 0f 5e 05 00
	00 00 00	 divss	 xmm0, DWORD PTR __real@44000000
  03c7e	f3 0f 2c d0	 cvttss2si edx, xmm0
  03c82	52		 push	 edx
  03c83	f3 0f 10 05 00
	00 00 00	 movss	 xmm0, DWORD PTR __real@43110000
  03c8b	f3 0f 59 45 f4	 mulss	 xmm0, DWORD PTR _width$[ebp]
  03c90	f3 0f 5e 05 00
	00 00 00	 divss	 xmm0, DWORD PTR __real@44000000
  03c98	f3 0f 2c c0	 cvttss2si eax, xmm0
  03c9c	50		 push	 eax
  03c9d	8b 4d c4	 mov	 ecx, DWORD PTR _mask_data$[ebp]
  03ca0	51		 push	 ecx
  03ca1	8b 55 c8	 mov	 edx, DWORD PTR _sprite_data$[ebp]
  03ca4	52		 push	 edx
  03ca5	e8 00 00 00 00	 call	 ?blit_rgb_alpha_masked_sprite_zero_mask_value_scaled@@YGXPBE0HHHHHHHHE@Z ; blit_rgb_alpha_masked_sprite_zero_mask_value_scaled
$LN65@draw_havoc:

; 2614 : 			draw_sprite (width / 512, height / 512, havoc_lamps.threat_warning_close_range_3, 144, 295,  6, 11, 281, 211,   4,   6, 204);	// (20% alpha)

  03caa	a1 04 00 00 00	 mov	 eax, DWORD PTR ?havoc_lamps@@3UHAVOC_LAMP_FLAGS@@A+4
  03caf	c1 e8 15	 shr	 eax, 21			; 00000015H
  03cb2	83 e0 01	 and	 eax, 1
  03cb5	0f 84 88 00 00
	00		 je	 $LN66@draw_havoc
  03cbb	68 cc 00 00 00	 push	 204			; 000000ccH
  03cc0	6a 06		 push	 6
  03cc2	6a 04		 push	 4
  03cc4	68 d3 00 00 00	 push	 211			; 000000d3H
  03cc9	68 19 01 00 00	 push	 281			; 00000119H
  03cce	f3 0f 10 05 00
	00 00 00	 movss	 xmm0, DWORD PTR __real@41300000
  03cd6	f3 0f 59 45 f0	 mulss	 xmm0, DWORD PTR _height$[ebp]
  03cdb	f3 0f 5e 05 00
	00 00 00	 divss	 xmm0, DWORD PTR __real@44000000
  03ce3	f3 0f 2c c0	 cvttss2si eax, xmm0
  03ce7	50		 push	 eax
  03ce8	f3 0f 10 05 00
	00 00 00	 movss	 xmm0, DWORD PTR __real@40c00000
  03cf0	f3 0f 59 45 f4	 mulss	 xmm0, DWORD PTR _width$[ebp]
  03cf5	f3 0f 5e 05 00
	00 00 00	 divss	 xmm0, DWORD PTR __real@44000000
  03cfd	f3 0f 2c c8	 cvttss2si ecx, xmm0
  03d01	51		 push	 ecx
  03d02	f3 0f 10 05 00
	00 00 00	 movss	 xmm0, DWORD PTR __real@43938000
  03d0a	f3 0f 59 45 f0	 mulss	 xmm0, DWORD PTR _height$[ebp]
  03d0f	f3 0f 5e 05 00
	00 00 00	 divss	 xmm0, DWORD PTR __real@44000000
  03d17	f3 0f 2c d0	 cvttss2si edx, xmm0
  03d1b	52		 push	 edx
  03d1c	f3 0f 10 05 00
	00 00 00	 movss	 xmm0, DWORD PTR __real@43100000
  03d24	f3 0f 59 45 f4	 mulss	 xmm0, DWORD PTR _width$[ebp]
  03d29	f3 0f 5e 05 00
	00 00 00	 divss	 xmm0, DWORD PTR __real@44000000
  03d31	f3 0f 2c c0	 cvttss2si eax, xmm0
  03d35	50		 push	 eax
  03d36	8b 4d c4	 mov	 ecx, DWORD PTR _mask_data$[ebp]
  03d39	51		 push	 ecx
  03d3a	8b 55 c8	 mov	 edx, DWORD PTR _sprite_data$[ebp]
  03d3d	52		 push	 edx
  03d3e	e8 00 00 00 00	 call	 ?blit_rgb_alpha_masked_sprite_zero_mask_value_scaled@@YGXPBE0HHHHHHHHE@Z ; blit_rgb_alpha_masked_sprite_zero_mask_value_scaled
$LN66@draw_havoc:

; 2615 : 			draw_sprite (width / 512, height / 512, havoc_lamps.threat_warning_close_range_4, 145, 279,  8, 15, 281, 205,   3,   6, 201);	// (21% alpha)

  03d43	a1 04 00 00 00	 mov	 eax, DWORD PTR ?havoc_lamps@@3UHAVOC_LAMP_FLAGS@@A+4
  03d48	c1 e8 16	 shr	 eax, 22			; 00000016H
  03d4b	83 e0 01	 and	 eax, 1
  03d4e	0f 84 88 00 00
	00		 je	 $LN67@draw_havoc
  03d54	68 c9 00 00 00	 push	 201			; 000000c9H
  03d59	6a 06		 push	 6
  03d5b	6a 03		 push	 3
  03d5d	68 cd 00 00 00	 push	 205			; 000000cdH
  03d62	68 19 01 00 00	 push	 281			; 00000119H
  03d67	f3 0f 10 05 00
	00 00 00	 movss	 xmm0, DWORD PTR __real@41700000
  03d6f	f3 0f 59 45 f0	 mulss	 xmm0, DWORD PTR _height$[ebp]
  03d74	f3 0f 5e 05 00
	00 00 00	 divss	 xmm0, DWORD PTR __real@44000000
  03d7c	f3 0f 2c c0	 cvttss2si eax, xmm0
  03d80	50		 push	 eax
  03d81	f3 0f 10 05 00
	00 00 00	 movss	 xmm0, DWORD PTR __real@41000000
  03d89	f3 0f 59 45 f4	 mulss	 xmm0, DWORD PTR _width$[ebp]
  03d8e	f3 0f 5e 05 00
	00 00 00	 divss	 xmm0, DWORD PTR __real@44000000
  03d96	f3 0f 2c c8	 cvttss2si ecx, xmm0
  03d9a	51		 push	 ecx
  03d9b	f3 0f 10 05 00
	00 00 00	 movss	 xmm0, DWORD PTR __real@438b8000
  03da3	f3 0f 59 45 f0	 mulss	 xmm0, DWORD PTR _height$[ebp]
  03da8	f3 0f 5e 05 00
	00 00 00	 divss	 xmm0, DWORD PTR __real@44000000
  03db0	f3 0f 2c d0	 cvttss2si edx, xmm0
  03db4	52		 push	 edx
  03db5	f3 0f 10 05 00
	00 00 00	 movss	 xmm0, DWORD PTR __real@43110000
  03dbd	f3 0f 59 45 f4	 mulss	 xmm0, DWORD PTR _width$[ebp]
  03dc2	f3 0f 5e 05 00
	00 00 00	 divss	 xmm0, DWORD PTR __real@44000000
  03dca	f3 0f 2c c0	 cvttss2si eax, xmm0
  03dce	50		 push	 eax
  03dcf	8b 4d c4	 mov	 ecx, DWORD PTR _mask_data$[ebp]
  03dd2	51		 push	 ecx
  03dd3	8b 55 c8	 mov	 edx, DWORD PTR _sprite_data$[ebp]
  03dd6	52		 push	 edx
  03dd7	e8 00 00 00 00	 call	 ?blit_rgb_alpha_masked_sprite_zero_mask_value_scaled@@YGXPBE0HHHHHHHHE@Z ; blit_rgb_alpha_masked_sprite_zero_mask_value_scaled
$LN67@draw_havoc:

; 2616 : 			draw_sprite (width / 512, height / 512, havoc_lamps.threat_warning_close_range_5, 149, 266, 10, 13, 282, 200,   3,   5, 199);	// (22% alpha)

  03ddc	a1 04 00 00 00	 mov	 eax, DWORD PTR ?havoc_lamps@@3UHAVOC_LAMP_FLAGS@@A+4
  03de1	c1 e8 17	 shr	 eax, 23			; 00000017H
  03de4	83 e0 01	 and	 eax, 1
  03de7	0f 84 88 00 00
	00		 je	 $LN68@draw_havoc
  03ded	68 c7 00 00 00	 push	 199			; 000000c7H
  03df2	6a 05		 push	 5
  03df4	6a 03		 push	 3
  03df6	68 c8 00 00 00	 push	 200			; 000000c8H
  03dfb	68 1a 01 00 00	 push	 282			; 0000011aH
  03e00	f3 0f 10 05 00
	00 00 00	 movss	 xmm0, DWORD PTR __real@41500000
  03e08	f3 0f 59 45 f0	 mulss	 xmm0, DWORD PTR _height$[ebp]
  03e0d	f3 0f 5e 05 00
	00 00 00	 divss	 xmm0, DWORD PTR __real@44000000
  03e15	f3 0f 2c c0	 cvttss2si eax, xmm0
  03e19	50		 push	 eax
  03e1a	f3 0f 10 05 00
	00 00 00	 movss	 xmm0, DWORD PTR __real@41200000
  03e22	f3 0f 59 45 f4	 mulss	 xmm0, DWORD PTR _width$[ebp]
  03e27	f3 0f 5e 05 00
	00 00 00	 divss	 xmm0, DWORD PTR __real@44000000
  03e2f	f3 0f 2c c8	 cvttss2si ecx, xmm0
  03e33	51		 push	 ecx
  03e34	f3 0f 10 05 00
	00 00 00	 movss	 xmm0, DWORD PTR __real@43850000
  03e3c	f3 0f 59 45 f0	 mulss	 xmm0, DWORD PTR _height$[ebp]
  03e41	f3 0f 5e 05 00
	00 00 00	 divss	 xmm0, DWORD PTR __real@44000000
  03e49	f3 0f 2c d0	 cvttss2si edx, xmm0
  03e4d	52		 push	 edx
  03e4e	f3 0f 10 05 00
	00 00 00	 movss	 xmm0, DWORD PTR __real@43150000
  03e56	f3 0f 59 45 f4	 mulss	 xmm0, DWORD PTR _width$[ebp]
  03e5b	f3 0f 5e 05 00
	00 00 00	 divss	 xmm0, DWORD PTR __real@44000000
  03e63	f3 0f 2c c0	 cvttss2si eax, xmm0
  03e67	50		 push	 eax
  03e68	8b 4d c4	 mov	 ecx, DWORD PTR _mask_data$[ebp]
  03e6b	51		 push	 ecx
  03e6c	8b 55 c8	 mov	 edx, DWORD PTR _sprite_data$[ebp]
  03e6f	52		 push	 edx
  03e70	e8 00 00 00 00	 call	 ?blit_rgb_alpha_masked_sprite_zero_mask_value_scaled@@YGXPBE0HHHHHHHHE@Z ; blit_rgb_alpha_masked_sprite_zero_mask_value_scaled
$LN68@draw_havoc:

; 2617 : 			draw_sprite (width / 512, height / 512, havoc_lamps.threat_warning_close_range_6, 158, 257, 12,  8, 285, 195,   4,   5, 196);	// (23% alpha)

  03e75	a1 04 00 00 00	 mov	 eax, DWORD PTR ?havoc_lamps@@3UHAVOC_LAMP_FLAGS@@A+4
  03e7a	c1 e8 18	 shr	 eax, 24			; 00000018H
  03e7d	83 e0 01	 and	 eax, 1
  03e80	0f 84 88 00 00
	00		 je	 $LN69@draw_havoc
  03e86	68 c4 00 00 00	 push	 196			; 000000c4H
  03e8b	6a 05		 push	 5
  03e8d	6a 04		 push	 4
  03e8f	68 c3 00 00 00	 push	 195			; 000000c3H
  03e94	68 1d 01 00 00	 push	 285			; 0000011dH
  03e99	f3 0f 10 05 00
	00 00 00	 movss	 xmm0, DWORD PTR __real@41000000
  03ea1	f3 0f 59 45 f0	 mulss	 xmm0, DWORD PTR _height$[ebp]
  03ea6	f3 0f 5e 05 00
	00 00 00	 divss	 xmm0, DWORD PTR __real@44000000
  03eae	f3 0f 2c c0	 cvttss2si eax, xmm0
  03eb2	50		 push	 eax
  03eb3	f3 0f 10 05 00
	00 00 00	 movss	 xmm0, DWORD PTR __real@41400000
  03ebb	f3 0f 59 45 f4	 mulss	 xmm0, DWORD PTR _width$[ebp]
  03ec0	f3 0f 5e 05 00
	00 00 00	 divss	 xmm0, DWORD PTR __real@44000000
  03ec8	f3 0f 2c c8	 cvttss2si ecx, xmm0
  03ecc	51		 push	 ecx
  03ecd	f3 0f 10 05 00
	00 00 00	 movss	 xmm0, DWORD PTR __real@43808000
  03ed5	f3 0f 59 45 f0	 mulss	 xmm0, DWORD PTR _height$[ebp]
  03eda	f3 0f 5e 05 00
	00 00 00	 divss	 xmm0, DWORD PTR __real@44000000
  03ee2	f3 0f 2c d0	 cvttss2si edx, xmm0
  03ee6	52		 push	 edx
  03ee7	f3 0f 10 05 00
	00 00 00	 movss	 xmm0, DWORD PTR __real@431e0000
  03eef	f3 0f 59 45 f4	 mulss	 xmm0, DWORD PTR _width$[ebp]
  03ef4	f3 0f 5e 05 00
	00 00 00	 divss	 xmm0, DWORD PTR __real@44000000
  03efc	f3 0f 2c c0	 cvttss2si eax, xmm0
  03f00	50		 push	 eax
  03f01	8b 4d c4	 mov	 ecx, DWORD PTR _mask_data$[ebp]
  03f04	51		 push	 ecx
  03f05	8b 55 c8	 mov	 edx, DWORD PTR _sprite_data$[ebp]
  03f08	52		 push	 edx
  03f09	e8 00 00 00 00	 call	 ?blit_rgb_alpha_masked_sprite_zero_mask_value_scaled@@YGXPBE0HHHHHHHHE@Z ; blit_rgb_alpha_masked_sprite_zero_mask_value_scaled
$LN69@draw_havoc:

; 2618 : 			draw_sprite (width / 512, height / 512, havoc_lamps.threat_warning_close_range_7, 167, 250, 14, 10, 289, 192,   6,   4, 194);	// (24% alpha)

  03f0e	a1 04 00 00 00	 mov	 eax, DWORD PTR ?havoc_lamps@@3UHAVOC_LAMP_FLAGS@@A+4
  03f13	c1 e8 19	 shr	 eax, 25			; 00000019H
  03f16	83 e0 01	 and	 eax, 1
  03f19	0f 84 88 00 00
	00		 je	 $LN70@draw_havoc
  03f1f	68 c2 00 00 00	 push	 194			; 000000c2H
  03f24	6a 04		 push	 4
  03f26	6a 06		 push	 6
  03f28	68 c0 00 00 00	 push	 192			; 000000c0H
  03f2d	68 21 01 00 00	 push	 289			; 00000121H
  03f32	f3 0f 10 05 00
	00 00 00	 movss	 xmm0, DWORD PTR __real@41200000
  03f3a	f3 0f 59 45 f0	 mulss	 xmm0, DWORD PTR _height$[ebp]
  03f3f	f3 0f 5e 05 00
	00 00 00	 divss	 xmm0, DWORD PTR __real@44000000
  03f47	f3 0f 2c c0	 cvttss2si eax, xmm0
  03f4b	50		 push	 eax
  03f4c	f3 0f 10 05 00
	00 00 00	 movss	 xmm0, DWORD PTR __real@41600000
  03f54	f3 0f 59 45 f4	 mulss	 xmm0, DWORD PTR _width$[ebp]
  03f59	f3 0f 5e 05 00
	00 00 00	 divss	 xmm0, DWORD PTR __real@44000000
  03f61	f3 0f 2c c8	 cvttss2si ecx, xmm0
  03f65	51		 push	 ecx
  03f66	f3 0f 10 05 00
	00 00 00	 movss	 xmm0, DWORD PTR __real@437a0000
  03f6e	f3 0f 59 45 f0	 mulss	 xmm0, DWORD PTR _height$[ebp]
  03f73	f3 0f 5e 05 00
	00 00 00	 divss	 xmm0, DWORD PTR __real@44000000
  03f7b	f3 0f 2c d0	 cvttss2si edx, xmm0
  03f7f	52		 push	 edx
  03f80	f3 0f 10 05 00
	00 00 00	 movss	 xmm0, DWORD PTR __real@43270000
  03f88	f3 0f 59 45 f4	 mulss	 xmm0, DWORD PTR _width$[ebp]
  03f8d	f3 0f 5e 05 00
	00 00 00	 divss	 xmm0, DWORD PTR __real@44000000
  03f95	f3 0f 2c c0	 cvttss2si eax, xmm0
  03f99	50		 push	 eax
  03f9a	8b 4d c4	 mov	 ecx, DWORD PTR _mask_data$[ebp]
  03f9d	51		 push	 ecx
  03f9e	8b 55 c8	 mov	 edx, DWORD PTR _sprite_data$[ebp]
  03fa1	52		 push	 edx
  03fa2	e8 00 00 00 00	 call	 ?blit_rgb_alpha_masked_sprite_zero_mask_value_scaled@@YGXPBE0HHHHHHHHE@Z ; blit_rgb_alpha_masked_sprite_zero_mask_value_scaled
$LN70@draw_havoc:

; 2619 : 			draw_sprite (width / 512, height / 512, havoc_lamps.threat_warning_close_range_8, 187, 249,  8,  6, 295, 192,   5,   2, 191);	// (25% alpha)

  03fa7	a1 04 00 00 00	 mov	 eax, DWORD PTR ?havoc_lamps@@3UHAVOC_LAMP_FLAGS@@A+4
  03fac	c1 e8 1a	 shr	 eax, 26			; 0000001aH
  03faf	83 e0 01	 and	 eax, 1
  03fb2	0f 84 88 00 00
	00		 je	 $LN71@draw_havoc
  03fb8	68 bf 00 00 00	 push	 191			; 000000bfH
  03fbd	6a 02		 push	 2
  03fbf	6a 05		 push	 5
  03fc1	68 c0 00 00 00	 push	 192			; 000000c0H
  03fc6	68 27 01 00 00	 push	 295			; 00000127H
  03fcb	f3 0f 10 05 00
	00 00 00	 movss	 xmm0, DWORD PTR __real@40c00000
  03fd3	f3 0f 59 45 f0	 mulss	 xmm0, DWORD PTR _height$[ebp]
  03fd8	f3 0f 5e 05 00
	00 00 00	 divss	 xmm0, DWORD PTR __real@44000000
  03fe0	f3 0f 2c c0	 cvttss2si eax, xmm0
  03fe4	50		 push	 eax
  03fe5	f3 0f 10 05 00
	00 00 00	 movss	 xmm0, DWORD PTR __real@41000000
  03fed	f3 0f 59 45 f4	 mulss	 xmm0, DWORD PTR _width$[ebp]
  03ff2	f3 0f 5e 05 00
	00 00 00	 divss	 xmm0, DWORD PTR __real@44000000
  03ffa	f3 0f 2c c8	 cvttss2si ecx, xmm0
  03ffe	51		 push	 ecx
  03fff	f3 0f 10 05 00
	00 00 00	 movss	 xmm0, DWORD PTR __real@43790000
  04007	f3 0f 59 45 f0	 mulss	 xmm0, DWORD PTR _height$[ebp]
  0400c	f3 0f 5e 05 00
	00 00 00	 divss	 xmm0, DWORD PTR __real@44000000
  04014	f3 0f 2c d0	 cvttss2si edx, xmm0
  04018	52		 push	 edx
  04019	f3 0f 10 05 00
	00 00 00	 movss	 xmm0, DWORD PTR __real@433b0000
  04021	f3 0f 59 45 f4	 mulss	 xmm0, DWORD PTR _width$[ebp]
  04026	f3 0f 5e 05 00
	00 00 00	 divss	 xmm0, DWORD PTR __real@44000000
  0402e	f3 0f 2c c0	 cvttss2si eax, xmm0
  04032	50		 push	 eax
  04033	8b 4d c4	 mov	 ecx, DWORD PTR _mask_data$[ebp]
  04036	51		 push	 ecx
  04037	8b 55 c8	 mov	 edx, DWORD PTR _sprite_data$[ebp]
  0403a	52		 push	 edx
  0403b	e8 00 00 00 00	 call	 ?blit_rgb_alpha_masked_sprite_zero_mask_value_scaled@@YGXPBE0HHHHHHHHE@Z ; blit_rgb_alpha_masked_sprite_zero_mask_value_scaled
$LN71@draw_havoc:

; 2620 : 			draw_sprite (width / 512, height / 512, havoc_lamps.threat_warning_close_range_9, 200, 250, 12,  9, 300, 192,   6,   4, 189);	// (26% alpha)

  04040	a1 04 00 00 00	 mov	 eax, DWORD PTR ?havoc_lamps@@3UHAVOC_LAMP_FLAGS@@A+4
  04045	c1 e8 1b	 shr	 eax, 27			; 0000001bH
  04048	83 e0 01	 and	 eax, 1
  0404b	0f 84 88 00 00
	00		 je	 $LN72@draw_havoc
  04051	68 bd 00 00 00	 push	 189			; 000000bdH
  04056	6a 04		 push	 4
  04058	6a 06		 push	 6
  0405a	68 c0 00 00 00	 push	 192			; 000000c0H
  0405f	68 2c 01 00 00	 push	 300			; 0000012cH
  04064	f3 0f 10 05 00
	00 00 00	 movss	 xmm0, DWORD PTR __real@41100000
  0406c	f3 0f 59 45 f0	 mulss	 xmm0, DWORD PTR _height$[ebp]
  04071	f3 0f 5e 05 00
	00 00 00	 divss	 xmm0, DWORD PTR __real@44000000
  04079	f3 0f 2c c0	 cvttss2si eax, xmm0
  0407d	50		 push	 eax
  0407e	f3 0f 10 05 00
	00 00 00	 movss	 xmm0, DWORD PTR __real@41400000
  04086	f3 0f 59 45 f4	 mulss	 xmm0, DWORD PTR _width$[ebp]
  0408b	f3 0f 5e 05 00
	00 00 00	 divss	 xmm0, DWORD PTR __real@44000000
  04093	f3 0f 2c c8	 cvttss2si ecx, xmm0
  04097	51		 push	 ecx
  04098	f3 0f 10 05 00
	00 00 00	 movss	 xmm0, DWORD PTR __real@437a0000
  040a0	f3 0f 59 45 f0	 mulss	 xmm0, DWORD PTR _height$[ebp]
  040a5	f3 0f 5e 05 00
	00 00 00	 divss	 xmm0, DWORD PTR __real@44000000
  040ad	f3 0f 2c d0	 cvttss2si edx, xmm0
  040b1	52		 push	 edx
  040b2	f3 0f 10 05 00
	00 00 00	 movss	 xmm0, DWORD PTR __real@43480000
  040ba	f3 0f 59 45 f4	 mulss	 xmm0, DWORD PTR _width$[ebp]
  040bf	f3 0f 5e 05 00
	00 00 00	 divss	 xmm0, DWORD PTR __real@44000000
  040c7	f3 0f 2c c0	 cvttss2si eax, xmm0
  040cb	50		 push	 eax
  040cc	8b 4d c4	 mov	 ecx, DWORD PTR _mask_data$[ebp]
  040cf	51		 push	 ecx
  040d0	8b 55 c8	 mov	 edx, DWORD PTR _sprite_data$[ebp]
  040d3	52		 push	 edx
  040d4	e8 00 00 00 00	 call	 ?blit_rgb_alpha_masked_sprite_zero_mask_value_scaled@@YGXPBE0HHHHHHHHE@Z ; blit_rgb_alpha_masked_sprite_zero_mask_value_scaled
$LN72@draw_havoc:

; 2621 : 			draw_sprite (width / 512, height / 512, havoc_lamps.threat_warning_close_range_10, 211, 256, 12, 12, 306, 195,   4,   5, 186);	// (27% alpha)

  040d9	a1 04 00 00 00	 mov	 eax, DWORD PTR ?havoc_lamps@@3UHAVOC_LAMP_FLAGS@@A+4
  040de	c1 e8 1c	 shr	 eax, 28			; 0000001cH
  040e1	83 e0 01	 and	 eax, 1
  040e4	0f 84 88 00 00
	00		 je	 $LN73@draw_havoc
  040ea	68 ba 00 00 00	 push	 186			; 000000baH
  040ef	6a 05		 push	 5
  040f1	6a 04		 push	 4
  040f3	68 c3 00 00 00	 push	 195			; 000000c3H
  040f8	68 32 01 00 00	 push	 306			; 00000132H
  040fd	f3 0f 10 05 00
	00 00 00	 movss	 xmm0, DWORD PTR __real@41400000
  04105	f3 0f 59 45 f0	 mulss	 xmm0, DWORD PTR _height$[ebp]
  0410a	f3 0f 5e 05 00
	00 00 00	 divss	 xmm0, DWORD PTR __real@44000000
  04112	f3 0f 2c c0	 cvttss2si eax, xmm0
  04116	50		 push	 eax
  04117	f3 0f 10 05 00
	00 00 00	 movss	 xmm0, DWORD PTR __real@41400000
  0411f	f3 0f 59 45 f4	 mulss	 xmm0, DWORD PTR _width$[ebp]
  04124	f3 0f 5e 05 00
	00 00 00	 divss	 xmm0, DWORD PTR __real@44000000
  0412c	f3 0f 2c c8	 cvttss2si ecx, xmm0
  04130	51		 push	 ecx
  04131	f3 0f 10 05 00
	00 00 00	 movss	 xmm0, DWORD PTR __real@43800000
  04139	f3 0f 59 45 f0	 mulss	 xmm0, DWORD PTR _height$[ebp]
  0413e	f3 0f 5e 05 00
	00 00 00	 divss	 xmm0, DWORD PTR __real@44000000
  04146	f3 0f 2c d0	 cvttss2si edx, xmm0
  0414a	52		 push	 edx
  0414b	f3 0f 10 05 00
	00 00 00	 movss	 xmm0, DWORD PTR __real@43530000
  04153	f3 0f 59 45 f4	 mulss	 xmm0, DWORD PTR _width$[ebp]
  04158	f3 0f 5e 05 00
	00 00 00	 divss	 xmm0, DWORD PTR __real@44000000
  04160	f3 0f 2c c0	 cvttss2si eax, xmm0
  04164	50		 push	 eax
  04165	8b 4d c4	 mov	 ecx, DWORD PTR _mask_data$[ebp]
  04168	51		 push	 ecx
  04169	8b 55 c8	 mov	 edx, DWORD PTR _sprite_data$[ebp]
  0416c	52		 push	 edx
  0416d	e8 00 00 00 00	 call	 ?blit_rgb_alpha_masked_sprite_zero_mask_value_scaled@@YGXPBE0HHHHHHHHE@Z ; blit_rgb_alpha_masked_sprite_zero_mask_value_scaled
$LN73@draw_havoc:

; 2622 : 			draw_sprite (width / 512, height / 512, havoc_lamps.threat_warning_close_range_11, 221, 267, 11, 14, 310, 200,   3,   6, 184);	// (28% alpha)

  04172	a1 04 00 00 00	 mov	 eax, DWORD PTR ?havoc_lamps@@3UHAVOC_LAMP_FLAGS@@A+4
  04177	c1 e8 1d	 shr	 eax, 29			; 0000001dH
  0417a	83 e0 01	 and	 eax, 1
  0417d	0f 84 88 00 00
	00		 je	 $LN74@draw_havoc
  04183	68 b8 00 00 00	 push	 184			; 000000b8H
  04188	6a 06		 push	 6
  0418a	6a 03		 push	 3
  0418c	68 c8 00 00 00	 push	 200			; 000000c8H
  04191	68 36 01 00 00	 push	 310			; 00000136H
  04196	f3 0f 10 05 00
	00 00 00	 movss	 xmm0, DWORD PTR __real@41600000
  0419e	f3 0f 59 45 f0	 mulss	 xmm0, DWORD PTR _height$[ebp]
  041a3	f3 0f 5e 05 00
	00 00 00	 divss	 xmm0, DWORD PTR __real@44000000
  041ab	f3 0f 2c c0	 cvttss2si eax, xmm0
  041af	50		 push	 eax
  041b0	f3 0f 10 05 00
	00 00 00	 movss	 xmm0, DWORD PTR __real@41300000
  041b8	f3 0f 59 45 f4	 mulss	 xmm0, DWORD PTR _width$[ebp]
  041bd	f3 0f 5e 05 00
	00 00 00	 divss	 xmm0, DWORD PTR __real@44000000
  041c5	f3 0f 2c c8	 cvttss2si ecx, xmm0
  041c9	51		 push	 ecx
  041ca	f3 0f 10 05 00
	00 00 00	 movss	 xmm0, DWORD PTR __real@43858000
  041d2	f3 0f 59 45 f0	 mulss	 xmm0, DWORD PTR _height$[ebp]
  041d7	f3 0f 5e 05 00
	00 00 00	 divss	 xmm0, DWORD PTR __real@44000000
  041df	f3 0f 2c d0	 cvttss2si edx, xmm0
  041e3	52		 push	 edx
  041e4	f3 0f 10 05 00
	00 00 00	 movss	 xmm0, DWORD PTR __real@435d0000
  041ec	f3 0f 59 45 f4	 mulss	 xmm0, DWORD PTR _width$[ebp]
  041f1	f3 0f 5e 05 00
	00 00 00	 divss	 xmm0, DWORD PTR __real@44000000
  041f9	f3 0f 2c c0	 cvttss2si eax, xmm0
  041fd	50		 push	 eax
  041fe	8b 4d c4	 mov	 ecx, DWORD PTR _mask_data$[ebp]
  04201	51		 push	 ecx
  04202	8b 55 c8	 mov	 edx, DWORD PTR _sprite_data$[ebp]
  04205	52		 push	 edx
  04206	e8 00 00 00 00	 call	 ?blit_rgb_alpha_masked_sprite_zero_mask_value_scaled@@YGXPBE0HHHHHHHHE@Z ; blit_rgb_alpha_masked_sprite_zero_mask_value_scaled
$LN74@draw_havoc:

; 2623 : 			draw_sprite (width / 512, height / 512, havoc_lamps.threat_warning_close_range_12, 228, 281,  9, 17, 311, 206,   3,   5, 181);	// (29% alpha)

  0420b	a1 04 00 00 00	 mov	 eax, DWORD PTR ?havoc_lamps@@3UHAVOC_LAMP_FLAGS@@A+4
  04210	c1 e8 1e	 shr	 eax, 30			; 0000001eH
  04213	83 e0 01	 and	 eax, 1
  04216	0f 84 88 00 00
	00		 je	 $LN75@draw_havoc
  0421c	68 b5 00 00 00	 push	 181			; 000000b5H
  04221	6a 05		 push	 5
  04223	6a 03		 push	 3
  04225	68 ce 00 00 00	 push	 206			; 000000ceH
  0422a	68 37 01 00 00	 push	 311			; 00000137H
  0422f	f3 0f 10 05 00
	00 00 00	 movss	 xmm0, DWORD PTR __real@41880000
  04237	f3 0f 59 45 f0	 mulss	 xmm0, DWORD PTR _height$[ebp]
  0423c	f3 0f 5e 05 00
	00 00 00	 divss	 xmm0, DWORD PTR __real@44000000
  04244	f3 0f 2c c0	 cvttss2si eax, xmm0
  04248	50		 push	 eax
  04249	f3 0f 10 05 00
	00 00 00	 movss	 xmm0, DWORD PTR __real@41100000
  04251	f3 0f 59 45 f4	 mulss	 xmm0, DWORD PTR _width$[ebp]
  04256	f3 0f 5e 05 00
	00 00 00	 divss	 xmm0, DWORD PTR __real@44000000
  0425e	f3 0f 2c c8	 cvttss2si ecx, xmm0
  04262	51		 push	 ecx
  04263	f3 0f 10 05 00
	00 00 00	 movss	 xmm0, DWORD PTR __real@438c8000
  0426b	f3 0f 59 45 f0	 mulss	 xmm0, DWORD PTR _height$[ebp]
  04270	f3 0f 5e 05 00
	00 00 00	 divss	 xmm0, DWORD PTR __real@44000000
  04278	f3 0f 2c d0	 cvttss2si edx, xmm0
  0427c	52		 push	 edx
  0427d	f3 0f 10 05 00
	00 00 00	 movss	 xmm0, DWORD PTR __real@43640000
  04285	f3 0f 59 45 f4	 mulss	 xmm0, DWORD PTR _width$[ebp]
  0428a	f3 0f 5e 05 00
	00 00 00	 divss	 xmm0, DWORD PTR __real@44000000
  04292	f3 0f 2c c0	 cvttss2si eax, xmm0
  04296	50		 push	 eax
  04297	8b 4d c4	 mov	 ecx, DWORD PTR _mask_data$[ebp]
  0429a	51		 push	 ecx
  0429b	8b 55 c8	 mov	 edx, DWORD PTR _sprite_data$[ebp]
  0429e	52		 push	 edx
  0429f	e8 00 00 00 00	 call	 ?blit_rgb_alpha_masked_sprite_zero_mask_value_scaled@@YGXPBE0HHHHHHHHE@Z ; blit_rgb_alpha_masked_sprite_zero_mask_value_scaled
$LN75@draw_havoc:

; 2624 : 			draw_sprite (width / 512, height / 512, havoc_lamps.threat_warning_close_range_13, 230, 300, 10, 16, 309, 211,   5,   6, 178);	// (30% alpha)

  042a4	a1 04 00 00 00	 mov	 eax, DWORD PTR ?havoc_lamps@@3UHAVOC_LAMP_FLAGS@@A+4
  042a9	c1 e8 1f	 shr	 eax, 31			; 0000001fH
  042ac	83 e0 01	 and	 eax, 1
  042af	0f 84 88 00 00
	00		 je	 $LN76@draw_havoc
  042b5	68 b2 00 00 00	 push	 178			; 000000b2H
  042ba	6a 06		 push	 6
  042bc	6a 05		 push	 5
  042be	68 d3 00 00 00	 push	 211			; 000000d3H
  042c3	68 35 01 00 00	 push	 309			; 00000135H
  042c8	f3 0f 10 05 00
	00 00 00	 movss	 xmm0, DWORD PTR __real@41800000
  042d0	f3 0f 59 45 f0	 mulss	 xmm0, DWORD PTR _height$[ebp]
  042d5	f3 0f 5e 05 00
	00 00 00	 divss	 xmm0, DWORD PTR __real@44000000
  042dd	f3 0f 2c c0	 cvttss2si eax, xmm0
  042e1	50		 push	 eax
  042e2	f3 0f 10 05 00
	00 00 00	 movss	 xmm0, DWORD PTR __real@41200000
  042ea	f3 0f 59 45 f4	 mulss	 xmm0, DWORD PTR _width$[ebp]
  042ef	f3 0f 5e 05 00
	00 00 00	 divss	 xmm0, DWORD PTR __real@44000000
  042f7	f3 0f 2c c8	 cvttss2si ecx, xmm0
  042fb	51		 push	 ecx
  042fc	f3 0f 10 05 00
	00 00 00	 movss	 xmm0, DWORD PTR __real@43960000
  04304	f3 0f 59 45 f0	 mulss	 xmm0, DWORD PTR _height$[ebp]
  04309	f3 0f 5e 05 00
	00 00 00	 divss	 xmm0, DWORD PTR __real@44000000
  04311	f3 0f 2c d0	 cvttss2si edx, xmm0
  04315	52		 push	 edx
  04316	f3 0f 10 05 00
	00 00 00	 movss	 xmm0, DWORD PTR __real@43660000
  0431e	f3 0f 59 45 f4	 mulss	 xmm0, DWORD PTR _width$[ebp]
  04323	f3 0f 5e 05 00
	00 00 00	 divss	 xmm0, DWORD PTR __real@44000000
  0432b	f3 0f 2c c0	 cvttss2si eax, xmm0
  0432f	50		 push	 eax
  04330	8b 4d c4	 mov	 ecx, DWORD PTR _mask_data$[ebp]
  04333	51		 push	 ecx
  04334	8b 55 c8	 mov	 edx, DWORD PTR _sprite_data$[ebp]
  04337	52		 push	 edx
  04338	e8 00 00 00 00	 call	 ?blit_rgb_alpha_masked_sprite_zero_mask_value_scaled@@YGXPBE0HHHHHHHHE@Z ; blit_rgb_alpha_masked_sprite_zero_mask_value_scaled
$LN76@draw_havoc:

; 2625 : 			draw_sprite (width / 512, height / 512, havoc_lamps.threat_warning_close_range_14, 220, 316, 12, 13, 306, 217,   5,   4, 176);	// (31% alpha)

  0433d	a1 08 00 00 00	 mov	 eax, DWORD PTR ?havoc_lamps@@3UHAVOC_LAMP_FLAGS@@A+8
  04342	83 e0 01	 and	 eax, 1
  04345	0f 84 88 00 00
	00		 je	 $LN77@draw_havoc
  0434b	68 b0 00 00 00	 push	 176			; 000000b0H
  04350	6a 04		 push	 4
  04352	6a 05		 push	 5
  04354	68 d9 00 00 00	 push	 217			; 000000d9H
  04359	68 32 01 00 00	 push	 306			; 00000132H
  0435e	f3 0f 10 05 00
	00 00 00	 movss	 xmm0, DWORD PTR __real@41500000
  04366	f3 0f 59 45 f0	 mulss	 xmm0, DWORD PTR _height$[ebp]
  0436b	f3 0f 5e 05 00
	00 00 00	 divss	 xmm0, DWORD PTR __real@44000000
  04373	f3 0f 2c c0	 cvttss2si eax, xmm0
  04377	50		 push	 eax
  04378	f3 0f 10 05 00
	00 00 00	 movss	 xmm0, DWORD PTR __real@41400000
  04380	f3 0f 59 45 f4	 mulss	 xmm0, DWORD PTR _width$[ebp]
  04385	f3 0f 5e 05 00
	00 00 00	 divss	 xmm0, DWORD PTR __real@44000000
  0438d	f3 0f 2c c8	 cvttss2si ecx, xmm0
  04391	51		 push	 ecx
  04392	f3 0f 10 05 00
	00 00 00	 movss	 xmm0, DWORD PTR __real@439e0000
  0439a	f3 0f 59 45 f0	 mulss	 xmm0, DWORD PTR _height$[ebp]
  0439f	f3 0f 5e 05 00
	00 00 00	 divss	 xmm0, DWORD PTR __real@44000000
  043a7	f3 0f 2c d0	 cvttss2si edx, xmm0
  043ab	52		 push	 edx
  043ac	f3 0f 10 05 00
	00 00 00	 movss	 xmm0, DWORD PTR __real@435c0000
  043b4	f3 0f 59 45 f4	 mulss	 xmm0, DWORD PTR _width$[ebp]
  043b9	f3 0f 5e 05 00
	00 00 00	 divss	 xmm0, DWORD PTR __real@44000000
  043c1	f3 0f 2c c0	 cvttss2si eax, xmm0
  043c5	50		 push	 eax
  043c6	8b 4d c4	 mov	 ecx, DWORD PTR _mask_data$[ebp]
  043c9	51		 push	 ecx
  043ca	8b 55 c8	 mov	 edx, DWORD PTR _sprite_data$[ebp]
  043cd	52		 push	 edx
  043ce	e8 00 00 00 00	 call	 ?blit_rgb_alpha_masked_sprite_zero_mask_value_scaled@@YGXPBE0HHHHHHHHE@Z ; blit_rgb_alpha_masked_sprite_zero_mask_value_scaled
$LN77@draw_havoc:

; 2626 : 			draw_sprite (width / 512, height / 512, havoc_lamps.threat_warning_close_range_15, 206, 329, 14, 15, 300, 220,   6,   4, 173);	// (32% alpha)

  043d3	a1 08 00 00 00	 mov	 eax, DWORD PTR ?havoc_lamps@@3UHAVOC_LAMP_FLAGS@@A+8
  043d8	d1 e8		 shr	 eax, 1
  043da	83 e0 01	 and	 eax, 1
  043dd	0f 84 88 00 00
	00		 je	 $LN78@draw_havoc
  043e3	68 ad 00 00 00	 push	 173			; 000000adH
  043e8	6a 04		 push	 4
  043ea	6a 06		 push	 6
  043ec	68 dc 00 00 00	 push	 220			; 000000dcH
  043f1	68 2c 01 00 00	 push	 300			; 0000012cH
  043f6	f3 0f 10 05 00
	00 00 00	 movss	 xmm0, DWORD PTR __real@41700000
  043fe	f3 0f 59 45 f0	 mulss	 xmm0, DWORD PTR _height$[ebp]
  04403	f3 0f 5e 05 00
	00 00 00	 divss	 xmm0, DWORD PTR __real@44000000
  0440b	f3 0f 2c c0	 cvttss2si eax, xmm0
  0440f	50		 push	 eax
  04410	f3 0f 10 05 00
	00 00 00	 movss	 xmm0, DWORD PTR __real@41600000
  04418	f3 0f 59 45 f4	 mulss	 xmm0, DWORD PTR _width$[ebp]
  0441d	f3 0f 5e 05 00
	00 00 00	 divss	 xmm0, DWORD PTR __real@44000000
  04425	f3 0f 2c c8	 cvttss2si ecx, xmm0
  04429	51		 push	 ecx
  0442a	f3 0f 10 05 00
	00 00 00	 movss	 xmm0, DWORD PTR __real@43a48000
  04432	f3 0f 59 45 f0	 mulss	 xmm0, DWORD PTR _height$[ebp]
  04437	f3 0f 5e 05 00
	00 00 00	 divss	 xmm0, DWORD PTR __real@44000000
  0443f	f3 0f 2c d0	 cvttss2si edx, xmm0
  04443	52		 push	 edx
  04444	f3 0f 10 05 00
	00 00 00	 movss	 xmm0, DWORD PTR __real@434e0000
  0444c	f3 0f 59 45 f4	 mulss	 xmm0, DWORD PTR _width$[ebp]
  04451	f3 0f 5e 05 00
	00 00 00	 divss	 xmm0, DWORD PTR __real@44000000
  04459	f3 0f 2c c0	 cvttss2si eax, xmm0
  0445d	50		 push	 eax
  0445e	8b 4d c4	 mov	 ecx, DWORD PTR _mask_data$[ebp]
  04461	51		 push	 ecx
  04462	8b 55 c8	 mov	 edx, DWORD PTR _sprite_data$[ebp]
  04465	52		 push	 edx
  04466	e8 00 00 00 00	 call	 ?blit_rgb_alpha_masked_sprite_zero_mask_value_scaled@@YGXPBE0HHHHHHHHE@Z ; blit_rgb_alpha_masked_sprite_zero_mask_value_scaled
$LN78@draw_havoc:

; 2627 : 			draw_sprite (width / 512, height / 512, havoc_lamps.threat_warning_bearing_lh_rear_close_range, 152, 345, 8, 6, 285, 222,   4,   4, 120);

  0446b	a1 08 00 00 00	 mov	 eax, DWORD PTR ?havoc_lamps@@3UHAVOC_LAMP_FLAGS@@A+8
  04470	c1 e8 16	 shr	 eax, 22			; 00000016H
  04473	83 e0 01	 and	 eax, 1
  04476	0f 84 85 00 00
	00		 je	 $LN79@draw_havoc
  0447c	6a 78		 push	 120			; 00000078H
  0447e	6a 04		 push	 4
  04480	6a 04		 push	 4
  04482	68 de 00 00 00	 push	 222			; 000000deH
  04487	68 1d 01 00 00	 push	 285			; 0000011dH
  0448c	f3 0f 10 05 00
	00 00 00	 movss	 xmm0, DWORD PTR __real@40c00000
  04494	f3 0f 59 45 f0	 mulss	 xmm0, DWORD PTR _height$[ebp]
  04499	f3 0f 5e 05 00
	00 00 00	 divss	 xmm0, DWORD PTR __real@44000000
  044a1	f3 0f 2c c0	 cvttss2si eax, xmm0
  044a5	50		 push	 eax
  044a6	f3 0f 10 05 00
	00 00 00	 movss	 xmm0, DWORD PTR __real@41000000
  044ae	f3 0f 59 45 f4	 mulss	 xmm0, DWORD PTR _width$[ebp]
  044b3	f3 0f 5e 05 00
	00 00 00	 divss	 xmm0, DWORD PTR __real@44000000
  044bb	f3 0f 2c c8	 cvttss2si ecx, xmm0
  044bf	51		 push	 ecx
  044c0	f3 0f 10 05 00
	00 00 00	 movss	 xmm0, DWORD PTR __real@43ac8000
  044c8	f3 0f 59 45 f0	 mulss	 xmm0, DWORD PTR _height$[ebp]
  044cd	f3 0f 5e 05 00
	00 00 00	 divss	 xmm0, DWORD PTR __real@44000000
  044d5	f3 0f 2c d0	 cvttss2si edx, xmm0
  044d9	52		 push	 edx
  044da	f3 0f 10 05 00
	00 00 00	 movss	 xmm0, DWORD PTR __real@43180000
  044e2	f3 0f 59 45 f4	 mulss	 xmm0, DWORD PTR _width$[ebp]
  044e7	f3 0f 5e 05 00
	00 00 00	 divss	 xmm0, DWORD PTR __real@44000000
  044ef	f3 0f 2c c0	 cvttss2si eax, xmm0
  044f3	50		 push	 eax
  044f4	8b 4d c4	 mov	 ecx, DWORD PTR _mask_data$[ebp]
  044f7	51		 push	 ecx
  044f8	8b 55 c8	 mov	 edx, DWORD PTR _sprite_data$[ebp]
  044fb	52		 push	 edx
  044fc	e8 00 00 00 00	 call	 ?blit_rgb_alpha_masked_sprite_zero_mask_value_scaled@@YGXPBE0HHHHHHHHE@Z ; blit_rgb_alpha_masked_sprite_zero_mask_value_scaled
$LN79@draw_havoc:

; 2628 : 			draw_sprite (width / 512, height / 512, havoc_lamps.threat_warning_bearing_rh_rear_close_range, 218, 345, 8, 6, 305, 222,   5,   4, 117);

  04501	a1 08 00 00 00	 mov	 eax, DWORD PTR ?havoc_lamps@@3UHAVOC_LAMP_FLAGS@@A+8
  04506	c1 e8 17	 shr	 eax, 23			; 00000017H
  04509	83 e0 01	 and	 eax, 1
  0450c	0f 84 85 00 00
	00		 je	 $LN80@draw_havoc
  04512	6a 75		 push	 117			; 00000075H
  04514	6a 04		 push	 4
  04516	6a 05		 push	 5
  04518	68 de 00 00 00	 push	 222			; 000000deH
  0451d	68 31 01 00 00	 push	 305			; 00000131H
  04522	f3 0f 10 05 00
	00 00 00	 movss	 xmm0, DWORD PTR __real@40c00000
  0452a	f3 0f 59 45 f0	 mulss	 xmm0, DWORD PTR _height$[ebp]
  0452f	f3 0f 5e 05 00
	00 00 00	 divss	 xmm0, DWORD PTR __real@44000000
  04537	f3 0f 2c c0	 cvttss2si eax, xmm0
  0453b	50		 push	 eax
  0453c	f3 0f 10 05 00
	00 00 00	 movss	 xmm0, DWORD PTR __real@41000000
  04544	f3 0f 59 45 f4	 mulss	 xmm0, DWORD PTR _width$[ebp]
  04549	f3 0f 5e 05 00
	00 00 00	 divss	 xmm0, DWORD PTR __real@44000000
  04551	f3 0f 2c c8	 cvttss2si ecx, xmm0
  04555	51		 push	 ecx
  04556	f3 0f 10 05 00
	00 00 00	 movss	 xmm0, DWORD PTR __real@43ac8000
  0455e	f3 0f 59 45 f0	 mulss	 xmm0, DWORD PTR _height$[ebp]
  04563	f3 0f 5e 05 00
	00 00 00	 divss	 xmm0, DWORD PTR __real@44000000
  0456b	f3 0f 2c d0	 cvttss2si edx, xmm0
  0456f	52		 push	 edx
  04570	f3 0f 10 05 00
	00 00 00	 movss	 xmm0, DWORD PTR __real@435a0000
  04578	f3 0f 59 45 f4	 mulss	 xmm0, DWORD PTR _width$[ebp]
  0457d	f3 0f 5e 05 00
	00 00 00	 divss	 xmm0, DWORD PTR __real@44000000
  04585	f3 0f 2c c0	 cvttss2si eax, xmm0
  04589	50		 push	 eax
  0458a	8b 4d c4	 mov	 ecx, DWORD PTR _mask_data$[ebp]
  0458d	51		 push	 ecx
  0458e	8b 55 c8	 mov	 edx, DWORD PTR _sprite_data$[ebp]
  04591	52		 push	 edx
  04592	e8 00 00 00 00	 call	 ?blit_rgb_alpha_masked_sprite_zero_mask_value_scaled@@YGXPBE0HHHHHHHHE@Z ; blit_rgb_alpha_masked_sprite_zero_mask_value_scaled
$LN80@draw_havoc:

; 2629 : 			draw_sprite (width / 512, height / 512, havoc_lamps.threat_warning_bearing_lh_90_close_range, 132, 279, 8, 6, 278, 203,   4,   4, 171);

  04597	a1 08 00 00 00	 mov	 eax, DWORD PTR ?havoc_lamps@@3UHAVOC_LAMP_FLAGS@@A+8
  0459c	c1 e8 02	 shr	 eax, 2
  0459f	83 e0 01	 and	 eax, 1
  045a2	0f 84 88 00 00
	00		 je	 $LN81@draw_havoc
  045a8	68 ab 00 00 00	 push	 171			; 000000abH
  045ad	6a 04		 push	 4
  045af	6a 04		 push	 4
  045b1	68 cb 00 00 00	 push	 203			; 000000cbH
  045b6	68 16 01 00 00	 push	 278			; 00000116H
  045bb	f3 0f 10 05 00
	00 00 00	 movss	 xmm0, DWORD PTR __real@40c00000
  045c3	f3 0f 59 45 f0	 mulss	 xmm0, DWORD PTR _height$[ebp]
  045c8	f3 0f 5e 05 00
	00 00 00	 divss	 xmm0, DWORD PTR __real@44000000
  045d0	f3 0f 2c c0	 cvttss2si eax, xmm0
  045d4	50		 push	 eax
  045d5	f3 0f 10 05 00
	00 00 00	 movss	 xmm0, DWORD PTR __real@41000000
  045dd	f3 0f 59 45 f4	 mulss	 xmm0, DWORD PTR _width$[ebp]
  045e2	f3 0f 5e 05 00
	00 00 00	 divss	 xmm0, DWORD PTR __real@44000000
  045ea	f3 0f 2c c8	 cvttss2si ecx, xmm0
  045ee	51		 push	 ecx
  045ef	f3 0f 10 05 00
	00 00 00	 movss	 xmm0, DWORD PTR __real@438b8000
  045f7	f3 0f 59 45 f0	 mulss	 xmm0, DWORD PTR _height$[ebp]
  045fc	f3 0f 5e 05 00
	00 00 00	 divss	 xmm0, DWORD PTR __real@44000000
  04604	f3 0f 2c d0	 cvttss2si edx, xmm0
  04608	52		 push	 edx
  04609	f3 0f 10 05 00
	00 00 00	 movss	 xmm0, DWORD PTR __real@43040000
  04611	f3 0f 59 45 f4	 mulss	 xmm0, DWORD PTR _width$[ebp]
  04616	f3 0f 5e 05 00
	00 00 00	 divss	 xmm0, DWORD PTR __real@44000000
  0461e	f3 0f 2c c0	 cvttss2si eax, xmm0
  04622	50		 push	 eax
  04623	8b 4d c4	 mov	 ecx, DWORD PTR _mask_data$[ebp]
  04626	51		 push	 ecx
  04627	8b 55 c8	 mov	 edx, DWORD PTR _sprite_data$[ebp]
  0462a	52		 push	 edx
  0462b	e8 00 00 00 00	 call	 ?blit_rgb_alpha_masked_sprite_zero_mask_value_scaled@@YGXPBE0HHHHHHHHE@Z ; blit_rgb_alpha_masked_sprite_zero_mask_value_scaled
$LN81@draw_havoc:

; 2630 : 			draw_sprite (width / 512, height / 512, havoc_lamps.threat_warning_bearing_lh_67_close_range, 141, 261, 8, 6, 281, 196,   4,   4, 168);

  04630	a1 08 00 00 00	 mov	 eax, DWORD PTR ?havoc_lamps@@3UHAVOC_LAMP_FLAGS@@A+8
  04635	c1 e8 03	 shr	 eax, 3
  04638	83 e0 01	 and	 eax, 1
  0463b	0f 84 88 00 00
	00		 je	 $LN82@draw_havoc
  04641	68 a8 00 00 00	 push	 168			; 000000a8H
  04646	6a 04		 push	 4
  04648	6a 04		 push	 4
  0464a	68 c4 00 00 00	 push	 196			; 000000c4H
  0464f	68 19 01 00 00	 push	 281			; 00000119H
  04654	f3 0f 10 05 00
	00 00 00	 movss	 xmm0, DWORD PTR __real@40c00000
  0465c	f3 0f 59 45 f0	 mulss	 xmm0, DWORD PTR _height$[ebp]
  04661	f3 0f 5e 05 00
	00 00 00	 divss	 xmm0, DWORD PTR __real@44000000
  04669	f3 0f 2c c0	 cvttss2si eax, xmm0
  0466d	50		 push	 eax
  0466e	f3 0f 10 05 00
	00 00 00	 movss	 xmm0, DWORD PTR __real@41000000
  04676	f3 0f 59 45 f4	 mulss	 xmm0, DWORD PTR _width$[ebp]
  0467b	f3 0f 5e 05 00
	00 00 00	 divss	 xmm0, DWORD PTR __real@44000000
  04683	f3 0f 2c c8	 cvttss2si ecx, xmm0
  04687	51		 push	 ecx
  04688	f3 0f 10 05 00
	00 00 00	 movss	 xmm0, DWORD PTR __real@43828000
  04690	f3 0f 59 45 f0	 mulss	 xmm0, DWORD PTR _height$[ebp]
  04695	f3 0f 5e 05 00
	00 00 00	 divss	 xmm0, DWORD PTR __real@44000000
  0469d	f3 0f 2c d0	 cvttss2si edx, xmm0
  046a1	52		 push	 edx
  046a2	f3 0f 10 05 00
	00 00 00	 movss	 xmm0, DWORD PTR __real@430d0000
  046aa	f3 0f 59 45 f4	 mulss	 xmm0, DWORD PTR _width$[ebp]
  046af	f3 0f 5e 05 00
	00 00 00	 divss	 xmm0, DWORD PTR __real@44000000
  046b7	f3 0f 2c c0	 cvttss2si eax, xmm0
  046bb	50		 push	 eax
  046bc	8b 4d c4	 mov	 ecx, DWORD PTR _mask_data$[ebp]
  046bf	51		 push	 ecx
  046c0	8b 55 c8	 mov	 edx, DWORD PTR _sprite_data$[ebp]
  046c3	52		 push	 edx
  046c4	e8 00 00 00 00	 call	 ?blit_rgb_alpha_masked_sprite_zero_mask_value_scaled@@YGXPBE0HHHHHHHHE@Z ; blit_rgb_alpha_masked_sprite_zero_mask_value_scaled
$LN82@draw_havoc:

; 2631 : 			draw_sprite (width / 512, height / 512, havoc_lamps.threat_warning_bearing_lh_45_close_range, 154, 246, 8, 6, 285, 191,   4,   4, 166);

  046c9	a1 08 00 00 00	 mov	 eax, DWORD PTR ?havoc_lamps@@3UHAVOC_LAMP_FLAGS@@A+8
  046ce	c1 e8 04	 shr	 eax, 4
  046d1	83 e0 01	 and	 eax, 1
  046d4	0f 84 88 00 00
	00		 je	 $LN83@draw_havoc
  046da	68 a6 00 00 00	 push	 166			; 000000a6H
  046df	6a 04		 push	 4
  046e1	6a 04		 push	 4
  046e3	68 bf 00 00 00	 push	 191			; 000000bfH
  046e8	68 1d 01 00 00	 push	 285			; 0000011dH
  046ed	f3 0f 10 05 00
	00 00 00	 movss	 xmm0, DWORD PTR __real@40c00000
  046f5	f3 0f 59 45 f0	 mulss	 xmm0, DWORD PTR _height$[ebp]
  046fa	f3 0f 5e 05 00
	00 00 00	 divss	 xmm0, DWORD PTR __real@44000000
  04702	f3 0f 2c c0	 cvttss2si eax, xmm0
  04706	50		 push	 eax
  04707	f3 0f 10 05 00
	00 00 00	 movss	 xmm0, DWORD PTR __real@41000000
  0470f	f3 0f 59 45 f4	 mulss	 xmm0, DWORD PTR _width$[ebp]
  04714	f3 0f 5e 05 00
	00 00 00	 divss	 xmm0, DWORD PTR __real@44000000
  0471c	f3 0f 2c c8	 cvttss2si ecx, xmm0
  04720	51		 push	 ecx
  04721	f3 0f 10 05 00
	00 00 00	 movss	 xmm0, DWORD PTR __real@43760000
  04729	f3 0f 59 45 f0	 mulss	 xmm0, DWORD PTR _height$[ebp]
  0472e	f3 0f 5e 05 00
	00 00 00	 divss	 xmm0, DWORD PTR __real@44000000
  04736	f3 0f 2c d0	 cvttss2si edx, xmm0
  0473a	52		 push	 edx
  0473b	f3 0f 10 05 00
	00 00 00	 movss	 xmm0, DWORD PTR __real@431a0000
  04743	f3 0f 59 45 f4	 mulss	 xmm0, DWORD PTR _width$[ebp]
  04748	f3 0f 5e 05 00
	00 00 00	 divss	 xmm0, DWORD PTR __real@44000000
  04750	f3 0f 2c c0	 cvttss2si eax, xmm0
  04754	50		 push	 eax
  04755	8b 4d c4	 mov	 ecx, DWORD PTR _mask_data$[ebp]
  04758	51		 push	 ecx
  04759	8b 55 c8	 mov	 edx, DWORD PTR _sprite_data$[ebp]
  0475c	52		 push	 edx
  0475d	e8 00 00 00 00	 call	 ?blit_rgb_alpha_masked_sprite_zero_mask_value_scaled@@YGXPBE0HHHHHHHHE@Z ; blit_rgb_alpha_masked_sprite_zero_mask_value_scaled
$LN83@draw_havoc:

; 2632 : 			draw_sprite (width / 512, height / 512, havoc_lamps.threat_warning_bearing_lh_22_close_range, 171, 237, 8, 6, 292, 188,   4,   4, 163);

  04762	a1 08 00 00 00	 mov	 eax, DWORD PTR ?havoc_lamps@@3UHAVOC_LAMP_FLAGS@@A+8
  04767	c1 e8 05	 shr	 eax, 5
  0476a	83 e0 01	 and	 eax, 1
  0476d	0f 84 88 00 00
	00		 je	 $LN84@draw_havoc
  04773	68 a3 00 00 00	 push	 163			; 000000a3H
  04778	6a 04		 push	 4
  0477a	6a 04		 push	 4
  0477c	68 bc 00 00 00	 push	 188			; 000000bcH
  04781	68 24 01 00 00	 push	 292			; 00000124H
  04786	f3 0f 10 05 00
	00 00 00	 movss	 xmm0, DWORD PTR __real@40c00000
  0478e	f3 0f 59 45 f0	 mulss	 xmm0, DWORD PTR _height$[ebp]
  04793	f3 0f 5e 05 00
	00 00 00	 divss	 xmm0, DWORD PTR __real@44000000
  0479b	f3 0f 2c c0	 cvttss2si eax, xmm0
  0479f	50		 push	 eax
  047a0	f3 0f 10 05 00
	00 00 00	 movss	 xmm0, DWORD PTR __real@41000000
  047a8	f3 0f 59 45 f4	 mulss	 xmm0, DWORD PTR _width$[ebp]
  047ad	f3 0f 5e 05 00
	00 00 00	 divss	 xmm0, DWORD PTR __real@44000000
  047b5	f3 0f 2c c8	 cvttss2si ecx, xmm0
  047b9	51		 push	 ecx
  047ba	f3 0f 10 05 00
	00 00 00	 movss	 xmm0, DWORD PTR __real@436d0000
  047c2	f3 0f 59 45 f0	 mulss	 xmm0, DWORD PTR _height$[ebp]
  047c7	f3 0f 5e 05 00
	00 00 00	 divss	 xmm0, DWORD PTR __real@44000000
  047cf	f3 0f 2c d0	 cvttss2si edx, xmm0
  047d3	52		 push	 edx
  047d4	f3 0f 10 05 00
	00 00 00	 movss	 xmm0, DWORD PTR __real@432b0000
  047dc	f3 0f 59 45 f4	 mulss	 xmm0, DWORD PTR _width$[ebp]
  047e1	f3 0f 5e 05 00
	00 00 00	 divss	 xmm0, DWORD PTR __real@44000000
  047e9	f3 0f 2c c0	 cvttss2si eax, xmm0
  047ed	50		 push	 eax
  047ee	8b 4d c4	 mov	 ecx, DWORD PTR _mask_data$[ebp]
  047f1	51		 push	 ecx
  047f2	8b 55 c8	 mov	 edx, DWORD PTR _sprite_data$[ebp]
  047f5	52		 push	 edx
  047f6	e8 00 00 00 00	 call	 ?blit_rgb_alpha_masked_sprite_zero_mask_value_scaled@@YGXPBE0HHHHHHHHE@Z ; blit_rgb_alpha_masked_sprite_zero_mask_value_scaled
$LN84@draw_havoc:

; 2633 : 			draw_sprite (width / 512, height / 512, havoc_lamps.threat_warning_bearing_rh_22_close_range, 200, 237, 8, 6, 299, 188,   4,   4, 161);

  047fb	a1 08 00 00 00	 mov	 eax, DWORD PTR ?havoc_lamps@@3UHAVOC_LAMP_FLAGS@@A+8
  04800	c1 e8 06	 shr	 eax, 6
  04803	83 e0 01	 and	 eax, 1
  04806	0f 84 88 00 00
	00		 je	 $LN85@draw_havoc
  0480c	68 a1 00 00 00	 push	 161			; 000000a1H
  04811	6a 04		 push	 4
  04813	6a 04		 push	 4
  04815	68 bc 00 00 00	 push	 188			; 000000bcH
  0481a	68 2b 01 00 00	 push	 299			; 0000012bH
  0481f	f3 0f 10 05 00
	00 00 00	 movss	 xmm0, DWORD PTR __real@40c00000
  04827	f3 0f 59 45 f0	 mulss	 xmm0, DWORD PTR _height$[ebp]
  0482c	f3 0f 5e 05 00
	00 00 00	 divss	 xmm0, DWORD PTR __real@44000000
  04834	f3 0f 2c c0	 cvttss2si eax, xmm0
  04838	50		 push	 eax
  04839	f3 0f 10 05 00
	00 00 00	 movss	 xmm0, DWORD PTR __real@41000000
  04841	f3 0f 59 45 f4	 mulss	 xmm0, DWORD PTR _width$[ebp]
  04846	f3 0f 5e 05 00
	00 00 00	 divss	 xmm0, DWORD PTR __real@44000000
  0484e	f3 0f 2c c8	 cvttss2si ecx, xmm0
  04852	51		 push	 ecx
  04853	f3 0f 10 05 00
	00 00 00	 movss	 xmm0, DWORD PTR __real@436d0000
  0485b	f3 0f 59 45 f0	 mulss	 xmm0, DWORD PTR _height$[ebp]
  04860	f3 0f 5e 05 00
	00 00 00	 divss	 xmm0, DWORD PTR __real@44000000
  04868	f3 0f 2c d0	 cvttss2si edx, xmm0
  0486c	52		 push	 edx
  0486d	f3 0f 10 05 00
	00 00 00	 movss	 xmm0, DWORD PTR __real@43480000
  04875	f3 0f 59 45 f4	 mulss	 xmm0, DWORD PTR _width$[ebp]
  0487a	f3 0f 5e 05 00
	00 00 00	 divss	 xmm0, DWORD PTR __real@44000000
  04882	f3 0f 2c c0	 cvttss2si eax, xmm0
  04886	50		 push	 eax
  04887	8b 4d c4	 mov	 ecx, DWORD PTR _mask_data$[ebp]
  0488a	51		 push	 ecx
  0488b	8b 55 c8	 mov	 edx, DWORD PTR _sprite_data$[ebp]
  0488e	52		 push	 edx
  0488f	e8 00 00 00 00	 call	 ?blit_rgb_alpha_masked_sprite_zero_mask_value_scaled@@YGXPBE0HHHHHHHHE@Z ; blit_rgb_alpha_masked_sprite_zero_mask_value_scaled
$LN85@draw_havoc:

; 2634 : 			draw_sprite (width / 512, height / 512, havoc_lamps.threat_warning_bearing_rh_45_close_range, 218, 246, 8, 6, 305, 191,   4,   4, 158);

  04894	a1 08 00 00 00	 mov	 eax, DWORD PTR ?havoc_lamps@@3UHAVOC_LAMP_FLAGS@@A+8
  04899	c1 e8 07	 shr	 eax, 7
  0489c	83 e0 01	 and	 eax, 1
  0489f	0f 84 88 00 00
	00		 je	 $LN86@draw_havoc
  048a5	68 9e 00 00 00	 push	 158			; 0000009eH
  048aa	6a 04		 push	 4
  048ac	6a 04		 push	 4
  048ae	68 bf 00 00 00	 push	 191			; 000000bfH
  048b3	68 31 01 00 00	 push	 305			; 00000131H
  048b8	f3 0f 10 05 00
	00 00 00	 movss	 xmm0, DWORD PTR __real@40c00000
  048c0	f3 0f 59 45 f0	 mulss	 xmm0, DWORD PTR _height$[ebp]
  048c5	f3 0f 5e 05 00
	00 00 00	 divss	 xmm0, DWORD PTR __real@44000000
  048cd	f3 0f 2c c0	 cvttss2si eax, xmm0
  048d1	50		 push	 eax
  048d2	f3 0f 10 05 00
	00 00 00	 movss	 xmm0, DWORD PTR __real@41000000
  048da	f3 0f 59 45 f4	 mulss	 xmm0, DWORD PTR _width$[ebp]
  048df	f3 0f 5e 05 00
	00 00 00	 divss	 xmm0, DWORD PTR __real@44000000
  048e7	f3 0f 2c c8	 cvttss2si ecx, xmm0
  048eb	51		 push	 ecx
  048ec	f3 0f 10 05 00
	00 00 00	 movss	 xmm0, DWORD PTR __real@43760000
  048f4	f3 0f 59 45 f0	 mulss	 xmm0, DWORD PTR _height$[ebp]
  048f9	f3 0f 5e 05 00
	00 00 00	 divss	 xmm0, DWORD PTR __real@44000000
  04901	f3 0f 2c d0	 cvttss2si edx, xmm0
  04905	52		 push	 edx
  04906	f3 0f 10 05 00
	00 00 00	 movss	 xmm0, DWORD PTR __real@435a0000
  0490e	f3 0f 59 45 f4	 mulss	 xmm0, DWORD PTR _width$[ebp]
  04913	f3 0f 5e 05 00
	00 00 00	 divss	 xmm0, DWORD PTR __real@44000000
  0491b	f3 0f 2c c0	 cvttss2si eax, xmm0
  0491f	50		 push	 eax
  04920	8b 4d c4	 mov	 ecx, DWORD PTR _mask_data$[ebp]
  04923	51		 push	 ecx
  04924	8b 55 c8	 mov	 edx, DWORD PTR _sprite_data$[ebp]
  04927	52		 push	 edx
  04928	e8 00 00 00 00	 call	 ?blit_rgb_alpha_masked_sprite_zero_mask_value_scaled@@YGXPBE0HHHHHHHHE@Z ; blit_rgb_alpha_masked_sprite_zero_mask_value_scaled
$LN86@draw_havoc:

; 2635 : 			draw_sprite (width / 512, height / 512, havoc_lamps.threat_warning_bearing_rh_67_close_range, 232, 261, 8, 6, 310, 196,   4,   4, 156);

  0492d	a1 08 00 00 00	 mov	 eax, DWORD PTR ?havoc_lamps@@3UHAVOC_LAMP_FLAGS@@A+8
  04932	c1 e8 08	 shr	 eax, 8
  04935	83 e0 01	 and	 eax, 1
  04938	0f 84 88 00 00
	00		 je	 $LN87@draw_havoc
  0493e	68 9c 00 00 00	 push	 156			; 0000009cH
  04943	6a 04		 push	 4
  04945	6a 04		 push	 4
  04947	68 c4 00 00 00	 push	 196			; 000000c4H
  0494c	68 36 01 00 00	 push	 310			; 00000136H
  04951	f3 0f 10 05 00
	00 00 00	 movss	 xmm0, DWORD PTR __real@40c00000
  04959	f3 0f 59 45 f0	 mulss	 xmm0, DWORD PTR _height$[ebp]
  0495e	f3 0f 5e 05 00
	00 00 00	 divss	 xmm0, DWORD PTR __real@44000000
  04966	f3 0f 2c c0	 cvttss2si eax, xmm0
  0496a	50		 push	 eax
  0496b	f3 0f 10 05 00
	00 00 00	 movss	 xmm0, DWORD PTR __real@41000000
  04973	f3 0f 59 45 f4	 mulss	 xmm0, DWORD PTR _width$[ebp]
  04978	f3 0f 5e 05 00
	00 00 00	 divss	 xmm0, DWORD PTR __real@44000000
  04980	f3 0f 2c c8	 cvttss2si ecx, xmm0
  04984	51		 push	 ecx
  04985	f3 0f 10 05 00
	00 00 00	 movss	 xmm0, DWORD PTR __real@43828000
  0498d	f3 0f 59 45 f0	 mulss	 xmm0, DWORD PTR _height$[ebp]
  04992	f3 0f 5e 05 00
	00 00 00	 divss	 xmm0, DWORD PTR __real@44000000
  0499a	f3 0f 2c d0	 cvttss2si edx, xmm0
  0499e	52		 push	 edx
  0499f	f3 0f 10 05 00
	00 00 00	 movss	 xmm0, DWORD PTR __real@43680000
  049a7	f3 0f 59 45 f4	 mulss	 xmm0, DWORD PTR _width$[ebp]
  049ac	f3 0f 5e 05 00
	00 00 00	 divss	 xmm0, DWORD PTR __real@44000000
  049b4	f3 0f 2c c0	 cvttss2si eax, xmm0
  049b8	50		 push	 eax
  049b9	8b 4d c4	 mov	 ecx, DWORD PTR _mask_data$[ebp]
  049bc	51		 push	 ecx
  049bd	8b 55 c8	 mov	 edx, DWORD PTR _sprite_data$[ebp]
  049c0	52		 push	 edx
  049c1	e8 00 00 00 00	 call	 ?blit_rgb_alpha_masked_sprite_zero_mask_value_scaled@@YGXPBE0HHHHHHHHE@Z ; blit_rgb_alpha_masked_sprite_zero_mask_value_scaled
$LN87@draw_havoc:

; 2636 : 			draw_sprite (width / 512, height / 512, havoc_lamps.threat_warning_bearing_rh_90_close_range, 240, 279, 8, 6, 313, 203,   4,   4, 153);

  049c6	a1 08 00 00 00	 mov	 eax, DWORD PTR ?havoc_lamps@@3UHAVOC_LAMP_FLAGS@@A+8
  049cb	c1 e8 09	 shr	 eax, 9
  049ce	83 e0 01	 and	 eax, 1
  049d1	0f 84 88 00 00
	00		 je	 $LN88@draw_havoc
  049d7	68 99 00 00 00	 push	 153			; 00000099H
  049dc	6a 04		 push	 4
  049de	6a 04		 push	 4
  049e0	68 cb 00 00 00	 push	 203			; 000000cbH
  049e5	68 39 01 00 00	 push	 313			; 00000139H
  049ea	f3 0f 10 05 00
	00 00 00	 movss	 xmm0, DWORD PTR __real@40c00000
  049f2	f3 0f 59 45 f0	 mulss	 xmm0, DWORD PTR _height$[ebp]
  049f7	f3 0f 5e 05 00
	00 00 00	 divss	 xmm0, DWORD PTR __real@44000000
  049ff	f3 0f 2c c0	 cvttss2si eax, xmm0
  04a03	50		 push	 eax
  04a04	f3 0f 10 05 00
	00 00 00	 movss	 xmm0, DWORD PTR __real@41000000
  04a0c	f3 0f 59 45 f4	 mulss	 xmm0, DWORD PTR _width$[ebp]
  04a11	f3 0f 5e 05 00
	00 00 00	 divss	 xmm0, DWORD PTR __real@44000000
  04a19	f3 0f 2c c8	 cvttss2si ecx, xmm0
  04a1d	51		 push	 ecx
  04a1e	f3 0f 10 05 00
	00 00 00	 movss	 xmm0, DWORD PTR __real@438b8000
  04a26	f3 0f 59 45 f0	 mulss	 xmm0, DWORD PTR _height$[ebp]
  04a2b	f3 0f 5e 05 00
	00 00 00	 divss	 xmm0, DWORD PTR __real@44000000
  04a33	f3 0f 2c d0	 cvttss2si edx, xmm0
  04a37	52		 push	 edx
  04a38	f3 0f 10 05 00
	00 00 00	 movss	 xmm0, DWORD PTR __real@43700000
  04a40	f3 0f 59 45 f4	 mulss	 xmm0, DWORD PTR _width$[ebp]
  04a45	f3 0f 5e 05 00
	00 00 00	 divss	 xmm0, DWORD PTR __real@44000000
  04a4d	f3 0f 2c c0	 cvttss2si eax, xmm0
  04a51	50		 push	 eax
  04a52	8b 4d c4	 mov	 ecx, DWORD PTR _mask_data$[ebp]
  04a55	51		 push	 ecx
  04a56	8b 55 c8	 mov	 edx, DWORD PTR _sprite_data$[ebp]
  04a59	52		 push	 edx
  04a5a	e8 00 00 00 00	 call	 ?blit_rgb_alpha_masked_sprite_zero_mask_value_scaled@@YGXPBE0HHHHHHHHE@Z ; blit_rgb_alpha_masked_sprite_zero_mask_value_scaled
$LN88@draw_havoc:

; 2637 : 			draw_sprite (width / 512, height / 512, havoc_lamps.threat_warning_bearing_lh_rear, 140, 351, 18, 20, 281, 224,   7,   6, 214);

  04a5f	a1 04 00 00 00	 mov	 eax, DWORD PTR ?havoc_lamps@@3UHAVOC_LAMP_FLAGS@@A+4
  04a64	c1 e8 11	 shr	 eax, 17			; 00000011H
  04a67	83 e0 01	 and	 eax, 1
  04a6a	0f 84 88 00 00
	00		 je	 $LN89@draw_havoc
  04a70	68 d6 00 00 00	 push	 214			; 000000d6H
  04a75	6a 06		 push	 6
  04a77	6a 07		 push	 7
  04a79	68 e0 00 00 00	 push	 224			; 000000e0H
  04a7e	68 19 01 00 00	 push	 281			; 00000119H
  04a83	f3 0f 10 05 00
	00 00 00	 movss	 xmm0, DWORD PTR __real@41a00000
  04a8b	f3 0f 59 45 f0	 mulss	 xmm0, DWORD PTR _height$[ebp]
  04a90	f3 0f 5e 05 00
	00 00 00	 divss	 xmm0, DWORD PTR __real@44000000
  04a98	f3 0f 2c c0	 cvttss2si eax, xmm0
  04a9c	50		 push	 eax
  04a9d	f3 0f 10 05 00
	00 00 00	 movss	 xmm0, DWORD PTR __real@41900000
  04aa5	f3 0f 59 45 f4	 mulss	 xmm0, DWORD PTR _width$[ebp]
  04aaa	f3 0f 5e 05 00
	00 00 00	 divss	 xmm0, DWORD PTR __real@44000000
  04ab2	f3 0f 2c c8	 cvttss2si ecx, xmm0
  04ab6	51		 push	 ecx
  04ab7	f3 0f 10 05 00
	00 00 00	 movss	 xmm0, DWORD PTR __real@43af8000
  04abf	f3 0f 59 45 f0	 mulss	 xmm0, DWORD PTR _height$[ebp]
  04ac4	f3 0f 5e 05 00
	00 00 00	 divss	 xmm0, DWORD PTR __real@44000000
  04acc	f3 0f 2c d0	 cvttss2si edx, xmm0
  04ad0	52		 push	 edx
  04ad1	f3 0f 10 05 00
	00 00 00	 movss	 xmm0, DWORD PTR __real@430c0000
  04ad9	f3 0f 59 45 f4	 mulss	 xmm0, DWORD PTR _width$[ebp]
  04ade	f3 0f 5e 05 00
	00 00 00	 divss	 xmm0, DWORD PTR __real@44000000
  04ae6	f3 0f 2c c0	 cvttss2si eax, xmm0
  04aea	50		 push	 eax
  04aeb	8b 4d c4	 mov	 ecx, DWORD PTR _mask_data$[ebp]
  04aee	51		 push	 ecx
  04aef	8b 55 c8	 mov	 edx, DWORD PTR _sprite_data$[ebp]
  04af2	52		 push	 edx
  04af3	e8 00 00 00 00	 call	 ?blit_rgb_alpha_masked_sprite_zero_mask_value_scaled@@YGXPBE0HHHHHHHHE@Z ; blit_rgb_alpha_masked_sprite_zero_mask_value_scaled
$LN89@draw_havoc:

; 2638 : 			draw_sprite (width / 512, height / 512, havoc_lamps.threat_warning_bearing_rh_rear, 224, 351, 18, 20, 307, 224,   6,   6, 212);

  04af8	a1 04 00 00 00	 mov	 eax, DWORD PTR ?havoc_lamps@@3UHAVOC_LAMP_FLAGS@@A+4
  04afd	c1 e8 12	 shr	 eax, 18			; 00000012H
  04b00	83 e0 01	 and	 eax, 1
  04b03	0f 84 88 00 00
	00		 je	 $LN90@draw_havoc
  04b09	68 d4 00 00 00	 push	 212			; 000000d4H
  04b0e	6a 06		 push	 6
  04b10	6a 06		 push	 6
  04b12	68 e0 00 00 00	 push	 224			; 000000e0H
  04b17	68 33 01 00 00	 push	 307			; 00000133H
  04b1c	f3 0f 10 05 00
	00 00 00	 movss	 xmm0, DWORD PTR __real@41a00000
  04b24	f3 0f 59 45 f0	 mulss	 xmm0, DWORD PTR _height$[ebp]
  04b29	f3 0f 5e 05 00
	00 00 00	 divss	 xmm0, DWORD PTR __real@44000000
  04b31	f3 0f 2c c0	 cvttss2si eax, xmm0
  04b35	50		 push	 eax
  04b36	f3 0f 10 05 00
	00 00 00	 movss	 xmm0, DWORD PTR __real@41900000
  04b3e	f3 0f 59 45 f4	 mulss	 xmm0, DWORD PTR _width$[ebp]
  04b43	f3 0f 5e 05 00
	00 00 00	 divss	 xmm0, DWORD PTR __real@44000000
  04b4b	f3 0f 2c c8	 cvttss2si ecx, xmm0
  04b4f	51		 push	 ecx
  04b50	f3 0f 10 05 00
	00 00 00	 movss	 xmm0, DWORD PTR __real@43af8000
  04b58	f3 0f 59 45 f0	 mulss	 xmm0, DWORD PTR _height$[ebp]
  04b5d	f3 0f 5e 05 00
	00 00 00	 divss	 xmm0, DWORD PTR __real@44000000
  04b65	f3 0f 2c d0	 cvttss2si edx, xmm0
  04b69	52		 push	 edx
  04b6a	f3 0f 10 05 00
	00 00 00	 movss	 xmm0, DWORD PTR __real@43600000
  04b72	f3 0f 59 45 f4	 mulss	 xmm0, DWORD PTR _width$[ebp]
  04b77	f3 0f 5e 05 00
	00 00 00	 divss	 xmm0, DWORD PTR __real@44000000
  04b7f	f3 0f 2c c0	 cvttss2si eax, xmm0
  04b83	50		 push	 eax
  04b84	8b 4d c4	 mov	 ecx, DWORD PTR _mask_data$[ebp]
  04b87	51		 push	 ecx
  04b88	8b 55 c8	 mov	 edx, DWORD PTR _sprite_data$[ebp]
  04b8b	52		 push	 edx
  04b8c	e8 00 00 00 00	 call	 ?blit_rgb_alpha_masked_sprite_zero_mask_value_scaled@@YGXPBE0HHHHHHHHE@Z ; blit_rgb_alpha_masked_sprite_zero_mask_value_scaled
$LN90@draw_havoc:

; 2639 : 			draw_sprite (width / 512, height / 512, havoc_lamps.threat_warning_bearing_lh_90, 108, 273, 18, 20, 272, 200,   6,   7, 150);

  04b91	a1 08 00 00 00	 mov	 eax, DWORD PTR ?havoc_lamps@@3UHAVOC_LAMP_FLAGS@@A+8
  04b96	c1 e8 0a	 shr	 eax, 10			; 0000000aH
  04b99	83 e0 01	 and	 eax, 1
  04b9c	0f 84 88 00 00
	00		 je	 $LN91@draw_havoc
  04ba2	68 96 00 00 00	 push	 150			; 00000096H
  04ba7	6a 07		 push	 7
  04ba9	6a 06		 push	 6
  04bab	68 c8 00 00 00	 push	 200			; 000000c8H
  04bb0	68 10 01 00 00	 push	 272			; 00000110H
  04bb5	f3 0f 10 05 00
	00 00 00	 movss	 xmm0, DWORD PTR __real@41a00000
  04bbd	f3 0f 59 45 f0	 mulss	 xmm0, DWORD PTR _height$[ebp]
  04bc2	f3 0f 5e 05 00
	00 00 00	 divss	 xmm0, DWORD PTR __real@44000000
  04bca	f3 0f 2c c0	 cvttss2si eax, xmm0
  04bce	50		 push	 eax
  04bcf	f3 0f 10 05 00
	00 00 00	 movss	 xmm0, DWORD PTR __real@41900000
  04bd7	f3 0f 59 45 f4	 mulss	 xmm0, DWORD PTR _width$[ebp]
  04bdc	f3 0f 5e 05 00
	00 00 00	 divss	 xmm0, DWORD PTR __real@44000000
  04be4	f3 0f 2c c8	 cvttss2si ecx, xmm0
  04be8	51		 push	 ecx
  04be9	f3 0f 10 05 00
	00 00 00	 movss	 xmm0, DWORD PTR __real@43888000
  04bf1	f3 0f 59 45 f0	 mulss	 xmm0, DWORD PTR _height$[ebp]
  04bf6	f3 0f 5e 05 00
	00 00 00	 divss	 xmm0, DWORD PTR __real@44000000
  04bfe	f3 0f 2c d0	 cvttss2si edx, xmm0
  04c02	52		 push	 edx
  04c03	f3 0f 10 05 00
	00 00 00	 movss	 xmm0, DWORD PTR __real@42d80000
  04c0b	f3 0f 59 45 f4	 mulss	 xmm0, DWORD PTR _width$[ebp]
  04c10	f3 0f 5e 05 00
	00 00 00	 divss	 xmm0, DWORD PTR __real@44000000
  04c18	f3 0f 2c c0	 cvttss2si eax, xmm0
  04c1c	50		 push	 eax
  04c1d	8b 4d c4	 mov	 ecx, DWORD PTR _mask_data$[ebp]
  04c20	51		 push	 ecx
  04c21	8b 55 c8	 mov	 edx, DWORD PTR _sprite_data$[ebp]
  04c24	52		 push	 edx
  04c25	e8 00 00 00 00	 call	 ?blit_rgb_alpha_masked_sprite_zero_mask_value_scaled@@YGXPBE0HHHHHHHHE@Z ; blit_rgb_alpha_masked_sprite_zero_mask_value_scaled
$LN91@draw_havoc:

; 2640 : 			draw_sprite (width / 512, height / 512, havoc_lamps.threat_warning_bearing_lh_67, 118, 249, 18, 20, 275, 192,   7,   7, 148);

  04c2a	a1 08 00 00 00	 mov	 eax, DWORD PTR ?havoc_lamps@@3UHAVOC_LAMP_FLAGS@@A+8
  04c2f	c1 e8 0b	 shr	 eax, 11			; 0000000bH
  04c32	83 e0 01	 and	 eax, 1
  04c35	0f 84 88 00 00
	00		 je	 $LN92@draw_havoc
  04c3b	68 94 00 00 00	 push	 148			; 00000094H
  04c40	6a 07		 push	 7
  04c42	6a 07		 push	 7
  04c44	68 c0 00 00 00	 push	 192			; 000000c0H
  04c49	68 13 01 00 00	 push	 275			; 00000113H
  04c4e	f3 0f 10 05 00
	00 00 00	 movss	 xmm0, DWORD PTR __real@41a00000
  04c56	f3 0f 59 45 f0	 mulss	 xmm0, DWORD PTR _height$[ebp]
  04c5b	f3 0f 5e 05 00
	00 00 00	 divss	 xmm0, DWORD PTR __real@44000000
  04c63	f3 0f 2c c0	 cvttss2si eax, xmm0
  04c67	50		 push	 eax
  04c68	f3 0f 10 05 00
	00 00 00	 movss	 xmm0, DWORD PTR __real@41900000
  04c70	f3 0f 59 45 f4	 mulss	 xmm0, DWORD PTR _width$[ebp]
  04c75	f3 0f 5e 05 00
	00 00 00	 divss	 xmm0, DWORD PTR __real@44000000
  04c7d	f3 0f 2c c8	 cvttss2si ecx, xmm0
  04c81	51		 push	 ecx
  04c82	f3 0f 10 05 00
	00 00 00	 movss	 xmm0, DWORD PTR __real@43790000
  04c8a	f3 0f 59 45 f0	 mulss	 xmm0, DWORD PTR _height$[ebp]
  04c8f	f3 0f 5e 05 00
	00 00 00	 divss	 xmm0, DWORD PTR __real@44000000
  04c97	f3 0f 2c d0	 cvttss2si edx, xmm0
  04c9b	52		 push	 edx
  04c9c	f3 0f 10 05 00
	00 00 00	 movss	 xmm0, DWORD PTR __real@42ec0000
  04ca4	f3 0f 59 45 f4	 mulss	 xmm0, DWORD PTR _width$[ebp]
  04ca9	f3 0f 5e 05 00
	00 00 00	 divss	 xmm0, DWORD PTR __real@44000000
  04cb1	f3 0f 2c c0	 cvttss2si eax, xmm0
  04cb5	50		 push	 eax
  04cb6	8b 4d c4	 mov	 ecx, DWORD PTR _mask_data$[ebp]
  04cb9	51		 push	 ecx
  04cba	8b 55 c8	 mov	 edx, DWORD PTR _sprite_data$[ebp]
  04cbd	52		 push	 edx
  04cbe	e8 00 00 00 00	 call	 ?blit_rgb_alpha_masked_sprite_zero_mask_value_scaled@@YGXPBE0HHHHHHHHE@Z ; blit_rgb_alpha_masked_sprite_zero_mask_value_scaled
$LN92@draw_havoc:

; 2641 : 			draw_sprite (width / 512, height / 512, havoc_lamps.threat_warning_bearing_lh_45, 137, 227, 18, 20, 281, 186,   7,   6, 145);

  04cc3	a1 08 00 00 00	 mov	 eax, DWORD PTR ?havoc_lamps@@3UHAVOC_LAMP_FLAGS@@A+8
  04cc8	c1 e8 0c	 shr	 eax, 12			; 0000000cH
  04ccb	83 e0 01	 and	 eax, 1
  04cce	0f 84 88 00 00
	00		 je	 $LN93@draw_havoc
  04cd4	68 91 00 00 00	 push	 145			; 00000091H
  04cd9	6a 06		 push	 6
  04cdb	6a 07		 push	 7
  04cdd	68 ba 00 00 00	 push	 186			; 000000baH
  04ce2	68 19 01 00 00	 push	 281			; 00000119H
  04ce7	f3 0f 10 05 00
	00 00 00	 movss	 xmm0, DWORD PTR __real@41a00000
  04cef	f3 0f 59 45 f0	 mulss	 xmm0, DWORD PTR _height$[ebp]
  04cf4	f3 0f 5e 05 00
	00 00 00	 divss	 xmm0, DWORD PTR __real@44000000
  04cfc	f3 0f 2c c0	 cvttss2si eax, xmm0
  04d00	50		 push	 eax
  04d01	f3 0f 10 05 00
	00 00 00	 movss	 xmm0, DWORD PTR __real@41900000
  04d09	f3 0f 59 45 f4	 mulss	 xmm0, DWORD PTR _width$[ebp]
  04d0e	f3 0f 5e 05 00
	00 00 00	 divss	 xmm0, DWORD PTR __real@44000000
  04d16	f3 0f 2c c8	 cvttss2si ecx, xmm0
  04d1a	51		 push	 ecx
  04d1b	f3 0f 10 05 00
	00 00 00	 movss	 xmm0, DWORD PTR __real@43630000
  04d23	f3 0f 59 45 f0	 mulss	 xmm0, DWORD PTR _height$[ebp]
  04d28	f3 0f 5e 05 00
	00 00 00	 divss	 xmm0, DWORD PTR __real@44000000
  04d30	f3 0f 2c d0	 cvttss2si edx, xmm0
  04d34	52		 push	 edx
  04d35	f3 0f 10 05 00
	00 00 00	 movss	 xmm0, DWORD PTR __real@43090000
  04d3d	f3 0f 59 45 f4	 mulss	 xmm0, DWORD PTR _width$[ebp]
  04d42	f3 0f 5e 05 00
	00 00 00	 divss	 xmm0, DWORD PTR __real@44000000
  04d4a	f3 0f 2c c0	 cvttss2si eax, xmm0
  04d4e	50		 push	 eax
  04d4f	8b 4d c4	 mov	 ecx, DWORD PTR _mask_data$[ebp]
  04d52	51		 push	 ecx
  04d53	8b 55 c8	 mov	 edx, DWORD PTR _sprite_data$[ebp]
  04d56	52		 push	 edx
  04d57	e8 00 00 00 00	 call	 ?blit_rgb_alpha_masked_sprite_zero_mask_value_scaled@@YGXPBE0HHHHHHHHE@Z ; blit_rgb_alpha_masked_sprite_zero_mask_value_scaled
$LN93@draw_havoc:

; 2642 : 			draw_sprite (width / 512, height / 512, havoc_lamps.threat_warning_bearing_lh_22, 162, 218, 18, 20, 290, 183,   6,   6, 143);

  04d5c	a1 08 00 00 00	 mov	 eax, DWORD PTR ?havoc_lamps@@3UHAVOC_LAMP_FLAGS@@A+8
  04d61	c1 e8 0d	 shr	 eax, 13			; 0000000dH
  04d64	83 e0 01	 and	 eax, 1
  04d67	0f 84 88 00 00
	00		 je	 $LN94@draw_havoc
  04d6d	68 8f 00 00 00	 push	 143			; 0000008fH
  04d72	6a 06		 push	 6
  04d74	6a 06		 push	 6
  04d76	68 b7 00 00 00	 push	 183			; 000000b7H
  04d7b	68 22 01 00 00	 push	 290			; 00000122H
  04d80	f3 0f 10 05 00
	00 00 00	 movss	 xmm0, DWORD PTR __real@41a00000
  04d88	f3 0f 59 45 f0	 mulss	 xmm0, DWORD PTR _height$[ebp]
  04d8d	f3 0f 5e 05 00
	00 00 00	 divss	 xmm0, DWORD PTR __real@44000000
  04d95	f3 0f 2c c0	 cvttss2si eax, xmm0
  04d99	50		 push	 eax
  04d9a	f3 0f 10 05 00
	00 00 00	 movss	 xmm0, DWORD PTR __real@41900000
  04da2	f3 0f 59 45 f4	 mulss	 xmm0, DWORD PTR _width$[ebp]
  04da7	f3 0f 5e 05 00
	00 00 00	 divss	 xmm0, DWORD PTR __real@44000000
  04daf	f3 0f 2c c8	 cvttss2si ecx, xmm0
  04db3	51		 push	 ecx
  04db4	f3 0f 10 05 00
	00 00 00	 movss	 xmm0, DWORD PTR __real@435a0000
  04dbc	f3 0f 59 45 f0	 mulss	 xmm0, DWORD PTR _height$[ebp]
  04dc1	f3 0f 5e 05 00
	00 00 00	 divss	 xmm0, DWORD PTR __real@44000000
  04dc9	f3 0f 2c d0	 cvttss2si edx, xmm0
  04dcd	52		 push	 edx
  04dce	f3 0f 10 05 00
	00 00 00	 movss	 xmm0, DWORD PTR __real@43220000
  04dd6	f3 0f 59 45 f4	 mulss	 xmm0, DWORD PTR _width$[ebp]
  04ddb	f3 0f 5e 05 00
	00 00 00	 divss	 xmm0, DWORD PTR __real@44000000
  04de3	f3 0f 2c c0	 cvttss2si eax, xmm0
  04de7	50		 push	 eax
  04de8	8b 4d c4	 mov	 ecx, DWORD PTR _mask_data$[ebp]
  04deb	51		 push	 ecx
  04dec	8b 55 c8	 mov	 edx, DWORD PTR _sprite_data$[ebp]
  04def	52		 push	 edx
  04df0	e8 00 00 00 00	 call	 ?blit_rgb_alpha_masked_sprite_zero_mask_value_scaled@@YGXPBE0HHHHHHHHE@Z ; blit_rgb_alpha_masked_sprite_zero_mask_value_scaled
$LN94@draw_havoc:

; 2643 : 			draw_sprite (width / 512, height / 512, havoc_lamps.threat_warning_bearing_rh_22, 200, 218, 18, 20, 299, 183,   6,   6, 140);

  04df5	a1 08 00 00 00	 mov	 eax, DWORD PTR ?havoc_lamps@@3UHAVOC_LAMP_FLAGS@@A+8
  04dfa	c1 e8 0e	 shr	 eax, 14			; 0000000eH
  04dfd	83 e0 01	 and	 eax, 1
  04e00	0f 84 88 00 00
	00		 je	 $LN95@draw_havoc
  04e06	68 8c 00 00 00	 push	 140			; 0000008cH
  04e0b	6a 06		 push	 6
  04e0d	6a 06		 push	 6
  04e0f	68 b7 00 00 00	 push	 183			; 000000b7H
  04e14	68 2b 01 00 00	 push	 299			; 0000012bH
  04e19	f3 0f 10 05 00
	00 00 00	 movss	 xmm0, DWORD PTR __real@41a00000
  04e21	f3 0f 59 45 f0	 mulss	 xmm0, DWORD PTR _height$[ebp]
  04e26	f3 0f 5e 05 00
	00 00 00	 divss	 xmm0, DWORD PTR __real@44000000
  04e2e	f3 0f 2c c0	 cvttss2si eax, xmm0
  04e32	50		 push	 eax
  04e33	f3 0f 10 05 00
	00 00 00	 movss	 xmm0, DWORD PTR __real@41900000
  04e3b	f3 0f 59 45 f4	 mulss	 xmm0, DWORD PTR _width$[ebp]
  04e40	f3 0f 5e 05 00
	00 00 00	 divss	 xmm0, DWORD PTR __real@44000000
  04e48	f3 0f 2c c8	 cvttss2si ecx, xmm0
  04e4c	51		 push	 ecx
  04e4d	f3 0f 10 05 00
	00 00 00	 movss	 xmm0, DWORD PTR __real@435a0000
  04e55	f3 0f 59 45 f0	 mulss	 xmm0, DWORD PTR _height$[ebp]
  04e5a	f3 0f 5e 05 00
	00 00 00	 divss	 xmm0, DWORD PTR __real@44000000
  04e62	f3 0f 2c d0	 cvttss2si edx, xmm0
  04e66	52		 push	 edx
  04e67	f3 0f 10 05 00
	00 00 00	 movss	 xmm0, DWORD PTR __real@43480000
  04e6f	f3 0f 59 45 f4	 mulss	 xmm0, DWORD PTR _width$[ebp]
  04e74	f3 0f 5e 05 00
	00 00 00	 divss	 xmm0, DWORD PTR __real@44000000
  04e7c	f3 0f 2c c0	 cvttss2si eax, xmm0
  04e80	50		 push	 eax
  04e81	8b 4d c4	 mov	 ecx, DWORD PTR _mask_data$[ebp]
  04e84	51		 push	 ecx
  04e85	8b 55 c8	 mov	 edx, DWORD PTR _sprite_data$[ebp]
  04e88	52		 push	 edx
  04e89	e8 00 00 00 00	 call	 ?blit_rgb_alpha_masked_sprite_zero_mask_value_scaled@@YGXPBE0HHHHHHHHE@Z ; blit_rgb_alpha_masked_sprite_zero_mask_value_scaled
$LN95@draw_havoc:

; 2644 : 			draw_sprite (width / 512, height / 512, havoc_lamps.threat_warning_bearing_rh_45, 222, 227, 18, 20, 307, 186,   6,   6, 138);

  04e8e	a1 08 00 00 00	 mov	 eax, DWORD PTR ?havoc_lamps@@3UHAVOC_LAMP_FLAGS@@A+8
  04e93	c1 e8 0f	 shr	 eax, 15			; 0000000fH
  04e96	83 e0 01	 and	 eax, 1
  04e99	0f 84 88 00 00
	00		 je	 $LN96@draw_havoc
  04e9f	68 8a 00 00 00	 push	 138			; 0000008aH
  04ea4	6a 06		 push	 6
  04ea6	6a 06		 push	 6
  04ea8	68 ba 00 00 00	 push	 186			; 000000baH
  04ead	68 33 01 00 00	 push	 307			; 00000133H
  04eb2	f3 0f 10 05 00
	00 00 00	 movss	 xmm0, DWORD PTR __real@41a00000
  04eba	f3 0f 59 45 f0	 mulss	 xmm0, DWORD PTR _height$[ebp]
  04ebf	f3 0f 5e 05 00
	00 00 00	 divss	 xmm0, DWORD PTR __real@44000000
  04ec7	f3 0f 2c c0	 cvttss2si eax, xmm0
  04ecb	50		 push	 eax
  04ecc	f3 0f 10 05 00
	00 00 00	 movss	 xmm0, DWORD PTR __real@41900000
  04ed4	f3 0f 59 45 f4	 mulss	 xmm0, DWORD PTR _width$[ebp]
  04ed9	f3 0f 5e 05 00
	00 00 00	 divss	 xmm0, DWORD PTR __real@44000000
  04ee1	f3 0f 2c c8	 cvttss2si ecx, xmm0
  04ee5	51		 push	 ecx
  04ee6	f3 0f 10 05 00
	00 00 00	 movss	 xmm0, DWORD PTR __real@43630000
  04eee	f3 0f 59 45 f0	 mulss	 xmm0, DWORD PTR _height$[ebp]
  04ef3	f3 0f 5e 05 00
	00 00 00	 divss	 xmm0, DWORD PTR __real@44000000
  04efb	f3 0f 2c d0	 cvttss2si edx, xmm0
  04eff	52		 push	 edx
  04f00	f3 0f 10 05 00
	00 00 00	 movss	 xmm0, DWORD PTR __real@435e0000
  04f08	f3 0f 59 45 f4	 mulss	 xmm0, DWORD PTR _width$[ebp]
  04f0d	f3 0f 5e 05 00
	00 00 00	 divss	 xmm0, DWORD PTR __real@44000000
  04f15	f3 0f 2c c0	 cvttss2si eax, xmm0
  04f19	50		 push	 eax
  04f1a	8b 4d c4	 mov	 ecx, DWORD PTR _mask_data$[ebp]
  04f1d	51		 push	 ecx
  04f1e	8b 55 c8	 mov	 edx, DWORD PTR _sprite_data$[ebp]
  04f21	52		 push	 edx
  04f22	e8 00 00 00 00	 call	 ?blit_rgb_alpha_masked_sprite_zero_mask_value_scaled@@YGXPBE0HHHHHHHHE@Z ; blit_rgb_alpha_masked_sprite_zero_mask_value_scaled
$LN96@draw_havoc:

; 2645 : 			draw_sprite (width / 512, height / 512, havoc_lamps.threat_warning_bearing_rh_67, 242, 249, 18, 20, 313, 192,   7,   7, 135);

  04f27	a1 08 00 00 00	 mov	 eax, DWORD PTR ?havoc_lamps@@3UHAVOC_LAMP_FLAGS@@A+8
  04f2c	c1 e8 10	 shr	 eax, 16			; 00000010H
  04f2f	83 e0 01	 and	 eax, 1
  04f32	0f 84 88 00 00
	00		 je	 $LN97@draw_havoc
  04f38	68 87 00 00 00	 push	 135			; 00000087H
  04f3d	6a 07		 push	 7
  04f3f	6a 07		 push	 7
  04f41	68 c0 00 00 00	 push	 192			; 000000c0H
  04f46	68 39 01 00 00	 push	 313			; 00000139H
  04f4b	f3 0f 10 05 00
	00 00 00	 movss	 xmm0, DWORD PTR __real@41a00000
  04f53	f3 0f 59 45 f0	 mulss	 xmm0, DWORD PTR _height$[ebp]
  04f58	f3 0f 5e 05 00
	00 00 00	 divss	 xmm0, DWORD PTR __real@44000000
  04f60	f3 0f 2c c0	 cvttss2si eax, xmm0
  04f64	50		 push	 eax
  04f65	f3 0f 10 05 00
	00 00 00	 movss	 xmm0, DWORD PTR __real@41900000
  04f6d	f3 0f 59 45 f4	 mulss	 xmm0, DWORD PTR _width$[ebp]
  04f72	f3 0f 5e 05 00
	00 00 00	 divss	 xmm0, DWORD PTR __real@44000000
  04f7a	f3 0f 2c c8	 cvttss2si ecx, xmm0
  04f7e	51		 push	 ecx
  04f7f	f3 0f 10 05 00
	00 00 00	 movss	 xmm0, DWORD PTR __real@43790000
  04f87	f3 0f 59 45 f0	 mulss	 xmm0, DWORD PTR _height$[ebp]
  04f8c	f3 0f 5e 05 00
	00 00 00	 divss	 xmm0, DWORD PTR __real@44000000
  04f94	f3 0f 2c d0	 cvttss2si edx, xmm0
  04f98	52		 push	 edx
  04f99	f3 0f 10 05 00
	00 00 00	 movss	 xmm0, DWORD PTR __real@43720000
  04fa1	f3 0f 59 45 f4	 mulss	 xmm0, DWORD PTR _width$[ebp]
  04fa6	f3 0f 5e 05 00
	00 00 00	 divss	 xmm0, DWORD PTR __real@44000000
  04fae	f3 0f 2c c0	 cvttss2si eax, xmm0
  04fb2	50		 push	 eax
  04fb3	8b 4d c4	 mov	 ecx, DWORD PTR _mask_data$[ebp]
  04fb6	51		 push	 ecx
  04fb7	8b 55 c8	 mov	 edx, DWORD PTR _sprite_data$[ebp]
  04fba	52		 push	 edx
  04fbb	e8 00 00 00 00	 call	 ?blit_rgb_alpha_masked_sprite_zero_mask_value_scaled@@YGXPBE0HHHHHHHHE@Z ; blit_rgb_alpha_masked_sprite_zero_mask_value_scaled
$LN97@draw_havoc:

; 2646 : 			draw_sprite (width / 512, height / 512, havoc_lamps.threat_warning_bearing_rh_90, 254, 273, 18, 20, 317, 201,   6,   6, 133);

  04fc0	a1 08 00 00 00	 mov	 eax, DWORD PTR ?havoc_lamps@@3UHAVOC_LAMP_FLAGS@@A+8
  04fc5	c1 e8 11	 shr	 eax, 17			; 00000011H
  04fc8	83 e0 01	 and	 eax, 1
  04fcb	0f 84 88 00 00
	00		 je	 $LN98@draw_havoc
  04fd1	68 85 00 00 00	 push	 133			; 00000085H
  04fd6	6a 06		 push	 6
  04fd8	6a 06		 push	 6
  04fda	68 c9 00 00 00	 push	 201			; 000000c9H
  04fdf	68 3d 01 00 00	 push	 317			; 0000013dH
  04fe4	f3 0f 10 05 00
	00 00 00	 movss	 xmm0, DWORD PTR __real@41a00000
  04fec	f3 0f 59 45 f0	 mulss	 xmm0, DWORD PTR _height$[ebp]
  04ff1	f3 0f 5e 05 00
	00 00 00	 divss	 xmm0, DWORD PTR __real@44000000
  04ff9	f3 0f 2c c0	 cvttss2si eax, xmm0
  04ffd	50		 push	 eax
  04ffe	f3 0f 10 05 00
	00 00 00	 movss	 xmm0, DWORD PTR __real@41900000
  05006	f3 0f 59 45 f4	 mulss	 xmm0, DWORD PTR _width$[ebp]
  0500b	f3 0f 5e 05 00
	00 00 00	 divss	 xmm0, DWORD PTR __real@44000000
  05013	f3 0f 2c c8	 cvttss2si ecx, xmm0
  05017	51		 push	 ecx
  05018	f3 0f 10 05 00
	00 00 00	 movss	 xmm0, DWORD PTR __real@43888000
  05020	f3 0f 59 45 f0	 mulss	 xmm0, DWORD PTR _height$[ebp]
  05025	f3 0f 5e 05 00
	00 00 00	 divss	 xmm0, DWORD PTR __real@44000000
  0502d	f3 0f 2c d0	 cvttss2si edx, xmm0
  05031	52		 push	 edx
  05032	f3 0f 10 05 00
	00 00 00	 movss	 xmm0, DWORD PTR __real@437e0000
  0503a	f3 0f 59 45 f4	 mulss	 xmm0, DWORD PTR _width$[ebp]
  0503f	f3 0f 5e 05 00
	00 00 00	 divss	 xmm0, DWORD PTR __real@44000000
  05047	f3 0f 2c c0	 cvttss2si eax, xmm0
  0504b	50		 push	 eax
  0504c	8b 4d c4	 mov	 ecx, DWORD PTR _mask_data$[ebp]
  0504f	51		 push	 ecx
  05050	8b 55 c8	 mov	 edx, DWORD PTR _sprite_data$[ebp]
  05053	52		 push	 edx
  05054	e8 00 00 00 00	 call	 ?blit_rgb_alpha_masked_sprite_zero_mask_value_scaled@@YGXPBE0HHHHHHHHE@Z ; blit_rgb_alpha_masked_sprite_zero_mask_value_scaled
$LN98@draw_havoc:

; 2647 : 			draw_sprite (width / 512, height / 512, havoc_lamps.threat_warning_missile_below, 177, 290, 26, 12, 292, 206,  11,   5, 130);

  05059	a1 08 00 00 00	 mov	 eax, DWORD PTR ?havoc_lamps@@3UHAVOC_LAMP_FLAGS@@A+8
  0505e	c1 e8 12	 shr	 eax, 18			; 00000012H
  05061	83 e0 01	 and	 eax, 1
  05064	0f 84 88 00 00
	00		 je	 $LN99@draw_havoc
  0506a	68 82 00 00 00	 push	 130			; 00000082H
  0506f	6a 05		 push	 5
  05071	6a 0b		 push	 11			; 0000000bH
  05073	68 ce 00 00 00	 push	 206			; 000000ceH
  05078	68 24 01 00 00	 push	 292			; 00000124H
  0507d	f3 0f 10 05 00
	00 00 00	 movss	 xmm0, DWORD PTR __real@41400000
  05085	f3 0f 59 45 f0	 mulss	 xmm0, DWORD PTR _height$[ebp]
  0508a	f3 0f 5e 05 00
	00 00 00	 divss	 xmm0, DWORD PTR __real@44000000
  05092	f3 0f 2c c0	 cvttss2si eax, xmm0
  05096	50		 push	 eax
  05097	f3 0f 10 05 00
	00 00 00	 movss	 xmm0, DWORD PTR __real@41d00000
  0509f	f3 0f 59 45 f4	 mulss	 xmm0, DWORD PTR _width$[ebp]
  050a4	f3 0f 5e 05 00
	00 00 00	 divss	 xmm0, DWORD PTR __real@44000000
  050ac	f3 0f 2c c8	 cvttss2si ecx, xmm0
  050b0	51		 push	 ecx
  050b1	f3 0f 10 05 00
	00 00 00	 movss	 xmm0, DWORD PTR __real@43910000
  050b9	f3 0f 59 45 f0	 mulss	 xmm0, DWORD PTR _height$[ebp]
  050be	f3 0f 5e 05 00
	00 00 00	 divss	 xmm0, DWORD PTR __real@44000000
  050c6	f3 0f 2c d0	 cvttss2si edx, xmm0
  050ca	52		 push	 edx
  050cb	f3 0f 10 05 00
	00 00 00	 movss	 xmm0, DWORD PTR __real@43310000
  050d3	f3 0f 59 45 f4	 mulss	 xmm0, DWORD PTR _width$[ebp]
  050d8	f3 0f 5e 05 00
	00 00 00	 divss	 xmm0, DWORD PTR __real@44000000
  050e0	f3 0f 2c c0	 cvttss2si eax, xmm0
  050e4	50		 push	 eax
  050e5	8b 4d c4	 mov	 ecx, DWORD PTR _mask_data$[ebp]
  050e8	51		 push	 ecx
  050e9	8b 55 c8	 mov	 edx, DWORD PTR _sprite_data$[ebp]
  050ec	52		 push	 edx
  050ed	e8 00 00 00 00	 call	 ?blit_rgb_alpha_masked_sprite_zero_mask_value_scaled@@YGXPBE0HHHHHHHHE@Z ; blit_rgb_alpha_masked_sprite_zero_mask_value_scaled
$LN99@draw_havoc:

; 2648 : 			draw_sprite (width / 512, height / 512, havoc_lamps.threat_warning_missile_above, 177, 274, 26, 12, 292, 202,  11,   4, 127);

  050f2	a1 08 00 00 00	 mov	 eax, DWORD PTR ?havoc_lamps@@3UHAVOC_LAMP_FLAGS@@A+8
  050f7	c1 e8 13	 shr	 eax, 19			; 00000013H
  050fa	83 e0 01	 and	 eax, 1
  050fd	0f 84 85 00 00
	00		 je	 $LN100@draw_havoc
  05103	6a 7f		 push	 127			; 0000007fH
  05105	6a 04		 push	 4
  05107	6a 0b		 push	 11			; 0000000bH
  05109	68 ca 00 00 00	 push	 202			; 000000caH
  0510e	68 24 01 00 00	 push	 292			; 00000124H
  05113	f3 0f 10 05 00
	00 00 00	 movss	 xmm0, DWORD PTR __real@41400000
  0511b	f3 0f 59 45 f0	 mulss	 xmm0, DWORD PTR _height$[ebp]
  05120	f3 0f 5e 05 00
	00 00 00	 divss	 xmm0, DWORD PTR __real@44000000
  05128	f3 0f 2c c0	 cvttss2si eax, xmm0
  0512c	50		 push	 eax
  0512d	f3 0f 10 05 00
	00 00 00	 movss	 xmm0, DWORD PTR __real@41d00000
  05135	f3 0f 59 45 f4	 mulss	 xmm0, DWORD PTR _width$[ebp]
  0513a	f3 0f 5e 05 00
	00 00 00	 divss	 xmm0, DWORD PTR __real@44000000
  05142	f3 0f 2c c8	 cvttss2si ecx, xmm0
  05146	51		 push	 ecx
  05147	f3 0f 10 05 00
	00 00 00	 movss	 xmm0, DWORD PTR __real@43890000
  0514f	f3 0f 59 45 f0	 mulss	 xmm0, DWORD PTR _height$[ebp]
  05154	f3 0f 5e 05 00
	00 00 00	 divss	 xmm0, DWORD PTR __real@44000000
  0515c	f3 0f 2c d0	 cvttss2si edx, xmm0
  05160	52		 push	 edx
  05161	f3 0f 10 05 00
	00 00 00	 movss	 xmm0, DWORD PTR __real@43310000
  05169	f3 0f 59 45 f4	 mulss	 xmm0, DWORD PTR _width$[ebp]
  0516e	f3 0f 5e 05 00
	00 00 00	 divss	 xmm0, DWORD PTR __real@44000000
  05176	f3 0f 2c c0	 cvttss2si eax, xmm0
  0517a	50		 push	 eax
  0517b	8b 4d c4	 mov	 ecx, DWORD PTR _mask_data$[ebp]
  0517e	51		 push	 ecx
  0517f	8b 55 c8	 mov	 edx, DWORD PTR _sprite_data$[ebp]
  05182	52		 push	 edx
  05183	e8 00 00 00 00	 call	 ?blit_rgb_alpha_masked_sprite_zero_mask_value_scaled@@YGXPBE0HHHHHHHHE@Z ; blit_rgb_alpha_masked_sprite_zero_mask_value_scaled
$LN100@draw_havoc:

; 2649 : 			draw_sprite (width / 512, height / 512, havoc_lamps.threat_warning_missile_lh_lock, 161, 266, 24, 66, 286, 197,  11,  23, 125);

  05188	a1 08 00 00 00	 mov	 eax, DWORD PTR ?havoc_lamps@@3UHAVOC_LAMP_FLAGS@@A+8
  0518d	c1 e8 14	 shr	 eax, 20			; 00000014H
  05190	83 e0 01	 and	 eax, 1
  05193	0f 84 85 00 00
	00		 je	 $LN101@draw_havoc
  05199	6a 7d		 push	 125			; 0000007dH
  0519b	6a 17		 push	 23			; 00000017H
  0519d	6a 0b		 push	 11			; 0000000bH
  0519f	68 c5 00 00 00	 push	 197			; 000000c5H
  051a4	68 1e 01 00 00	 push	 286			; 0000011eH
  051a9	f3 0f 10 05 00
	00 00 00	 movss	 xmm0, DWORD PTR __real@42840000
  051b1	f3 0f 59 45 f0	 mulss	 xmm0, DWORD PTR _height$[ebp]
  051b6	f3 0f 5e 05 00
	00 00 00	 divss	 xmm0, DWORD PTR __real@44000000
  051be	f3 0f 2c c0	 cvttss2si eax, xmm0
  051c2	50		 push	 eax
  051c3	f3 0f 10 05 00
	00 00 00	 movss	 xmm0, DWORD PTR __real@41c00000
  051cb	f3 0f 59 45 f4	 mulss	 xmm0, DWORD PTR _width$[ebp]
  051d0	f3 0f 5e 05 00
	00 00 00	 divss	 xmm0, DWORD PTR __real@44000000
  051d8	f3 0f 2c c8	 cvttss2si ecx, xmm0
  051dc	51		 push	 ecx
  051dd	f3 0f 10 05 00
	00 00 00	 movss	 xmm0, DWORD PTR __real@43850000
  051e5	f3 0f 59 45 f0	 mulss	 xmm0, DWORD PTR _height$[ebp]
  051ea	f3 0f 5e 05 00
	00 00 00	 divss	 xmm0, DWORD PTR __real@44000000
  051f2	f3 0f 2c d0	 cvttss2si edx, xmm0
  051f6	52		 push	 edx
  051f7	f3 0f 10 05 00
	00 00 00	 movss	 xmm0, DWORD PTR __real@43210000
  051ff	f3 0f 59 45 f4	 mulss	 xmm0, DWORD PTR _width$[ebp]
  05204	f3 0f 5e 05 00
	00 00 00	 divss	 xmm0, DWORD PTR __real@44000000
  0520c	f3 0f 2c c0	 cvttss2si eax, xmm0
  05210	50		 push	 eax
  05211	8b 4d c4	 mov	 ecx, DWORD PTR _mask_data$[ebp]
  05214	51		 push	 ecx
  05215	8b 55 c8	 mov	 edx, DWORD PTR _sprite_data$[ebp]
  05218	52		 push	 edx
  05219	e8 00 00 00 00	 call	 ?blit_rgb_alpha_masked_sprite_zero_mask_value_scaled@@YGXPBE0HHHHHHHHE@Z ; blit_rgb_alpha_masked_sprite_zero_mask_value_scaled
$LN101@draw_havoc:

; 2650 : 			draw_sprite (width / 512, height / 512, havoc_lamps.threat_warning_missile_rh_lock, 197, 266, 24, 66, 298, 197,  11,  23, 122);

  0521e	a1 08 00 00 00	 mov	 eax, DWORD PTR ?havoc_lamps@@3UHAVOC_LAMP_FLAGS@@A+8
  05223	c1 e8 15	 shr	 eax, 21			; 00000015H
  05226	83 e0 01	 and	 eax, 1
  05229	0f 84 85 00 00
	00		 je	 $LN102@draw_havoc
  0522f	6a 7a		 push	 122			; 0000007aH
  05231	6a 17		 push	 23			; 00000017H
  05233	6a 0b		 push	 11			; 0000000bH
  05235	68 c5 00 00 00	 push	 197			; 000000c5H
  0523a	68 2a 01 00 00	 push	 298			; 0000012aH
  0523f	f3 0f 10 05 00
	00 00 00	 movss	 xmm0, DWORD PTR __real@42840000
  05247	f3 0f 59 45 f0	 mulss	 xmm0, DWORD PTR _height$[ebp]
  0524c	f3 0f 5e 05 00
	00 00 00	 divss	 xmm0, DWORD PTR __real@44000000
  05254	f3 0f 2c c0	 cvttss2si eax, xmm0
  05258	50		 push	 eax
  05259	f3 0f 10 05 00
	00 00 00	 movss	 xmm0, DWORD PTR __real@41c00000
  05261	f3 0f 59 45 f4	 mulss	 xmm0, DWORD PTR _width$[ebp]
  05266	f3 0f 5e 05 00
	00 00 00	 divss	 xmm0, DWORD PTR __real@44000000
  0526e	f3 0f 2c c8	 cvttss2si ecx, xmm0
  05272	51		 push	 ecx
  05273	f3 0f 10 05 00
	00 00 00	 movss	 xmm0, DWORD PTR __real@43850000
  0527b	f3 0f 59 45 f0	 mulss	 xmm0, DWORD PTR _height$[ebp]
  05280	f3 0f 5e 05 00
	00 00 00	 divss	 xmm0, DWORD PTR __real@44000000
  05288	f3 0f 2c d0	 cvttss2si edx, xmm0
  0528c	52		 push	 edx
  0528d	f3 0f 10 05 00
	00 00 00	 movss	 xmm0, DWORD PTR __real@43450000
  05295	f3 0f 59 45 f4	 mulss	 xmm0, DWORD PTR _width$[ebp]
  0529a	f3 0f 5e 05 00
	00 00 00	 divss	 xmm0, DWORD PTR __real@44000000
  052a2	f3 0f 2c c0	 cvttss2si eax, xmm0
  052a6	50		 push	 eax
  052a7	8b 4d c4	 mov	 ecx, DWORD PTR _mask_data$[ebp]
  052aa	51		 push	 ecx
  052ab	8b 55 c8	 mov	 edx, DWORD PTR _sprite_data$[ebp]
  052ae	52		 push	 edx
  052af	e8 00 00 00 00	 call	 ?blit_rgb_alpha_masked_sprite_zero_mask_value_scaled@@YGXPBE0HHHHHHHHE@Z ; blit_rgb_alpha_masked_sprite_zero_mask_value_scaled
$LN102@draw_havoc:

; 2651 : 	
; 2652 : 			unlock_screen (texture_screen[TG_URHS][texture]);

  052b4	b8 0c 00 00 00	 mov	 eax, 12			; 0000000cH
  052b9	6b c8 03	 imul	 ecx, eax, 3
  052bc	8b 55 fc	 mov	 edx, DWORD PTR _texture$[ebp]
  052bf	8b 84 91 00 00
	00 00		 mov	 eax, DWORD PTR ?texture_screen@@3PAY02PAUSCREEN@@A[ecx+edx*4]
  052c6	50		 push	 eax
  052c7	e8 00 00 00 00	 call	 ?unlock_screen@@YGHPAUSCREEN@@@Z ; unlock_screen
$LN49@draw_havoc:

; 2653 : 		}
; 2654 : 	
; 2655 : 		/* Centre Panel */
; 2656 : 		width = texture_width[TG_CEN][texture];

  052cc	b8 0c 00 00 00	 mov	 eax, 12			; 0000000cH
  052d1	c1 e0 02	 shl	 eax, 2
  052d4	8b 4d fc	 mov	 ecx, DWORD PTR _texture$[ebp]
  052d7	f3 0f 10 84 88
	00 00 00 00	 movss	 xmm0, DWORD PTR ?texture_width@@3PAY02MA[eax+ecx*4]
  052e0	f3 0f 11 45 f4	 movss	 DWORD PTR _width$[ebp], xmm0

; 2657 : 		height = texture_height[TG_CEN][texture];

  052e5	b8 0c 00 00 00	 mov	 eax, 12			; 0000000cH
  052ea	c1 e0 02	 shl	 eax, 2
  052ed	8b 4d fc	 mov	 ecx, DWORD PTR _texture$[ebp]
  052f0	f3 0f 10 84 88
	00 00 00 00	 movss	 xmm0, DWORD PTR ?texture_height@@3PAY02MA[eax+ecx*4]
  052f9	f3 0f 11 45 f0	 movss	 DWORD PTR _height$[ebp], xmm0

; 2658 : 	
; 2659 : 		if (lock_screen (texture_screen[TG_CEN][texture]))

  052fe	b8 0c 00 00 00	 mov	 eax, 12			; 0000000cH
  05303	c1 e0 02	 shl	 eax, 2
  05306	8b 4d fc	 mov	 ecx, DWORD PTR _texture$[ebp]
  05309	8b 94 88 00 00
	00 00		 mov	 edx, DWORD PTR ?texture_screen@@3PAY02PAUSCREEN@@A[eax+ecx*4]
  05310	52		 push	 edx
  05311	e8 00 00 00 00	 call	 ?lock_screen@@YGHPAUSCREEN@@@Z ; lock_screen
  05316	85 c0		 test	 eax, eax
  05318	0f 84 a1 06 00
	00		 je	 $LN103@draw_havoc

; 2660 : 		{
; 2661 : 			set_active_screen (texture_screen[TG_CEN][texture]);

  0531e	b8 0c 00 00 00	 mov	 eax, 12			; 0000000cH
  05323	c1 e0 02	 shl	 eax, 2
  05326	8b 4d fc	 mov	 ecx, DWORD PTR _texture$[ebp]
  05329	8b 94 88 00 00
	00 00		 mov	 edx, DWORD PTR ?texture_screen@@3PAY02PAUSCREEN@@A[eax+ecx*4]
  05330	52		 push	 edx
  05331	e8 00 00 00 00	 call	 ?set_active_screen@@YGHPAUSCREEN@@@Z ; set_active_screen

; 2662 : 	
; 2663 : 			/* Clock */
; 2664 : 			value = get_local_entity_float_value (get_session_entity (), FLOAT_TYPE_TIME_OF_DAY);

  05336	83 3d 00 00 00
	00 00		 cmp	 DWORD PTR ?session_entity@@3PAUENTITY@@A, 0 ; session_entity
  0533d	74 0f		 je	 SHORT $LN205@draw_havoc
  0533f	a1 00 00 00 00	 mov	 eax, DWORD PTR ?session_entity@@3PAUENTITY@@A ; session_entity
  05344	8b 08		 mov	 ecx, DWORD PTR [eax]
  05346	89 8d 6c ff ff
	ff		 mov	 DWORD PTR tv3176[ebp], ecx
  0534c	eb 27		 jmp	 SHORT $LN206@draw_havoc
$LN205@draw_havoc:
  0534e	8b 15 00 00 00
	00		 mov	 edx, DWORD PTR ?__LINE__Var@?0??draw_havoc_virtual_cockpit_instruments_on_texture@@YGXXZ@4JA
  05354	81 c2 a3 01 00
	00		 add	 edx, 419		; 000001a3H
  0535a	52		 push	 edx
  0535b	68 00 00 00 00	 push	 OFFSET ??_C@_0EP@MNOBCBEH@c?3?2users?2nhv90?2projects?2eech?2ap@
  05360	a1 00 00 00 00	 mov	 eax, DWORD PTR ?null_entity_pointer_message@@3PBDB ; null_entity_pointer_message
  05365	50		 push	 eax
  05366	e8 00 00 00 00	 call	 ?process_assert@@YGXPBD0H@Z ; process_assert
  0536b	c7 85 6c ff ff
	ff 00 00 00 00	 mov	 DWORD PTR tv3176[ebp], 0
$LN206@draw_havoc:
  05375	b9 01 00 00 00	 mov	 ecx, 1
  0537a	85 c9		 test	 ecx, ecx
  0537c	74 0c		 je	 SHORT $LN207@draw_havoc
  0537e	c7 85 68 ff ff
	ff 8e 00 00 00	 mov	 DWORD PTR tv3184[ebp], 142 ; 0000008eH
  05388	eb 27		 jmp	 SHORT $LN208@draw_havoc
$LN207@draw_havoc:
  0538a	8b 15 00 00 00
	00		 mov	 edx, DWORD PTR ?__LINE__Var@?0??draw_havoc_virtual_cockpit_instruments_on_texture@@YGXXZ@4JA
  05390	81 c2 a3 01 00
	00		 add	 edx, 419		; 000001a3H
  05396	52		 push	 edx
  05397	68 00 00 00 00	 push	 OFFSET ??_C@_0EP@MNOBCBEH@c?3?2users?2nhv90?2projects?2eech?2ap@
  0539c	a1 00 00 00 00	 mov	 eax, DWORD PTR ?overload_invalid_float_type_message@@3PBDB ; overload_invalid_float_type_message
  053a1	50		 push	 eax
  053a2	e8 00 00 00 00	 call	 ?process_assert@@YGXPBD0H@Z ; process_assert
  053a7	c7 85 68 ff ff
	ff 00 00 00 00	 mov	 DWORD PTR tv3184[ebp], 0
$LN208@draw_havoc:
  053b1	68 8e 00 00 00	 push	 142			; 0000008eH
  053b6	8b 0d 00 00 00
	00		 mov	 ecx, DWORD PTR ?session_entity@@3PAUENTITY@@A ; session_entity
  053bc	51		 push	 ecx
  053bd	69 95 6c ff ff
	ff bc 02 00 00	 imul	 edx, DWORD PTR tv3176[ebp], 700
  053c7	8b 85 68 ff ff
	ff		 mov	 eax, DWORD PTR tv3184[ebp]
  053cd	8b 8c 82 00 00
	00 00		 mov	 ecx, DWORD PTR ?fn_get_local_entity_float_value@@3PAY0KP@P6GMPAUENTITY@@W4FLOAT_TYPES@@@ZA[edx+eax*4]
  053d4	ff d1		 call	 ecx
  053d6	d9 5d ec	 fstp	 DWORD PTR _value$[ebp]

; 2665 : 			get_analogue_clock_values (value, &hour_hand_value, &minute_hand_value, &second_hand_value);

  053d9	8d 45 e0	 lea	 eax, DWORD PTR _second_hand_value$[ebp]
  053dc	50		 push	 eax
  053dd	8d 4d e4	 lea	 ecx, DWORD PTR _minute_hand_value$[ebp]
  053e0	51		 push	 ecx
  053e1	8d 55 e8	 lea	 edx, DWORD PTR _hour_hand_value$[ebp]
  053e4	52		 push	 edx
  053e5	51		 push	 ecx
  053e6	f3 0f 10 45 ec	 movss	 xmm0, DWORD PTR _value$[ebp]
  053eb	f3 0f 11 04 24	 movss	 DWORD PTR [esp], xmm0
  053f0	e8 00 00 00 00	 call	 ?get_analogue_clock_values@@YGXMPAM00@Z ; get_analogue_clock_values

; 2666 : 			/* Hour */
; 2667 : 			value = hour_hand_value * rad (360.0) / 12.0;

  053f5	f3 0f 5a 45 e8	 cvtss2sd xmm0, DWORD PTR _hour_hand_value$[ebp]
  053fa	f2 0f 59 05 00
	00 00 00	 mulsd	 xmm0, QWORD PTR __real@401921fb51000000
  05402	f2 0f 5e 05 00
	00 00 00	 divsd	 xmm0, QWORD PTR __real@4028000000000000
  0540a	f2 0f 5a c0	 cvtsd2ss xmm0, xmm0
  0540e	f3 0f 11 45 ec	 movss	 DWORD PTR _value$[ebp], xmm0

; 2668 : 		    centre_x = 77 * width / 512;

  05413	f3 0f 10 05 00
	00 00 00	 movss	 xmm0, DWORD PTR __real@429a0000
  0541b	f3 0f 59 45 f4	 mulss	 xmm0, DWORD PTR _width$[ebp]
  05420	f3 0f 5e 05 00
	00 00 00	 divss	 xmm0, DWORD PTR __real@44000000
  05428	f3 0f 11 45 dc	 movss	 DWORD PTR _centre_x$[ebp], xmm0

; 2669 : 	    	centre_y = 119 * height / 256;

  0542d	f3 0f 10 05 00
	00 00 00	 movss	 xmm0, DWORD PTR __real@42ee0000
  05435	f3 0f 59 45 f0	 mulss	 xmm0, DWORD PTR _height$[ebp]
  0543a	f3 0f 5e 05 00
	00 00 00	 divss	 xmm0, DWORD PTR __real@43800000
  05442	f3 0f 11 45 d8	 movss	 DWORD PTR _centre_y$[ebp], xmm0

; 2670 : 			dot_x = centre_x + sin (value) * 20 * width / 512;

  05447	51		 push	 ecx
  05448	f3 0f 10 45 ec	 movss	 xmm0, DWORD PTR _value$[ebp]
  0544d	f3 0f 11 04 24	 movss	 DWORD PTR [esp], xmm0
  05452	e8 00 00 00 00	 call	 ?sin@@YGMM@Z		; sin
  05457	d9 9d 6c ff ff
	ff		 fstp	 DWORD PTR tv4712[ebp]
  0545d	f3 0f 10 85 6c
	ff ff ff	 movss	 xmm0, DWORD PTR tv4712[ebp]
  05465	f3 0f 59 05 00
	00 00 00	 mulss	 xmm0, DWORD PTR __real@41a00000
  0546d	f3 0f 59 45 f4	 mulss	 xmm0, DWORD PTR _width$[ebp]
  05472	f3 0f 5e 05 00
	00 00 00	 divss	 xmm0, DWORD PTR __real@44000000
  0547a	f3 0f 58 45 dc	 addss	 xmm0, DWORD PTR _centre_x$[ebp]
  0547f	f3 0f 11 45 d4	 movss	 DWORD PTR _dot_x$[ebp], xmm0

; 2671 : 			dot_y = centre_y - cos (value) * 30 * height / 256;

  05484	51		 push	 ecx
  05485	f3 0f 10 45 ec	 movss	 xmm0, DWORD PTR _value$[ebp]
  0548a	f3 0f 11 04 24	 movss	 DWORD PTR [esp], xmm0
  0548f	e8 00 00 00 00	 call	 ?cos@@YGMM@Z		; cos
  05494	d9 9d 6c ff ff
	ff		 fstp	 DWORD PTR tv4719[ebp]
  0549a	f3 0f 10 85 6c
	ff ff ff	 movss	 xmm0, DWORD PTR tv4719[ebp]
  054a2	f3 0f 59 05 00
	00 00 00	 mulss	 xmm0, DWORD PTR __real@41f00000
  054aa	f3 0f 59 45 f0	 mulss	 xmm0, DWORD PTR _height$[ebp]
  054af	f3 0f 5e 05 00
	00 00 00	 divss	 xmm0, DWORD PTR __real@43800000
  054b7	f3 0f 10 4d d8	 movss	 xmm1, DWORD PTR _centre_y$[ebp]
  054bc	f3 0f 5c c8	 subss	 xmm1, xmm0
  054c0	f3 0f 11 4d d0	 movss	 DWORD PTR _dot_y$[ebp], xmm1

; 2672 : 			draw_arrow (centre_x, centre_y, dot_x, dot_y, width / 128, height / 64, white_needle_colour);

  054c5	a1 00 00 00 00	 mov	 eax, DWORD PTR ?white_needle_colour@@3UREAL_COLOUR@@A
  054ca	50		 push	 eax
  054cb	f3 0f 10 45 f0	 movss	 xmm0, DWORD PTR _height$[ebp]
  054d0	f3 0f 5e 05 00
	00 00 00	 divss	 xmm0, DWORD PTR __real@42800000
  054d8	51		 push	 ecx
  054d9	f3 0f 11 04 24	 movss	 DWORD PTR [esp], xmm0
  054de	f3 0f 10 45 f4	 movss	 xmm0, DWORD PTR _width$[ebp]
  054e3	f3 0f 5e 05 00
	00 00 00	 divss	 xmm0, DWORD PTR __real@43000000
  054eb	51		 push	 ecx
  054ec	f3 0f 11 04 24	 movss	 DWORD PTR [esp], xmm0
  054f1	51		 push	 ecx
  054f2	f3 0f 10 45 d0	 movss	 xmm0, DWORD PTR _dot_y$[ebp]
  054f7	f3 0f 11 04 24	 movss	 DWORD PTR [esp], xmm0
  054fc	51		 push	 ecx
  054fd	f3 0f 10 45 d4	 movss	 xmm0, DWORD PTR _dot_x$[ebp]
  05502	f3 0f 11 04 24	 movss	 DWORD PTR [esp], xmm0
  05507	51		 push	 ecx
  05508	f3 0f 10 45 d8	 movss	 xmm0, DWORD PTR _centre_y$[ebp]
  0550d	f3 0f 11 04 24	 movss	 DWORD PTR [esp], xmm0
  05512	51		 push	 ecx
  05513	f3 0f 10 45 dc	 movss	 xmm0, DWORD PTR _centre_x$[ebp]
  05518	f3 0f 11 04 24	 movss	 DWORD PTR [esp], xmm0
  0551d	e8 00 00 00 00	 call	 ?draw_arrow@@YGXMMMMMMUREAL_COLOUR@@@Z ; draw_arrow

; 2673 : 			/* Minute */
; 2674 : 			value = minute_hand_value * rad (360.0) / 60.0;

  05522	f3 0f 5a 45 e4	 cvtss2sd xmm0, DWORD PTR _minute_hand_value$[ebp]
  05527	f2 0f 59 05 00
	00 00 00	 mulsd	 xmm0, QWORD PTR __real@401921fb51000000
  0552f	f2 0f 5e 05 00
	00 00 00	 divsd	 xmm0, QWORD PTR __real@404e000000000000
  05537	f2 0f 5a c0	 cvtsd2ss xmm0, xmm0
  0553b	f3 0f 11 45 ec	 movss	 DWORD PTR _value$[ebp], xmm0

; 2675 : 		    centre_x = 77 * width / 512;

  05540	f3 0f 10 05 00
	00 00 00	 movss	 xmm0, DWORD PTR __real@429a0000
  05548	f3 0f 59 45 f4	 mulss	 xmm0, DWORD PTR _width$[ebp]
  0554d	f3 0f 5e 05 00
	00 00 00	 divss	 xmm0, DWORD PTR __real@44000000
  05555	f3 0f 11 45 dc	 movss	 DWORD PTR _centre_x$[ebp], xmm0

; 2676 : 	    	centre_y = 119 * height / 256;

  0555a	f3 0f 10 05 00
	00 00 00	 movss	 xmm0, DWORD PTR __real@42ee0000
  05562	f3 0f 59 45 f0	 mulss	 xmm0, DWORD PTR _height$[ebp]
  05567	f3 0f 5e 05 00
	00 00 00	 divss	 xmm0, DWORD PTR __real@43800000
  0556f	f3 0f 11 45 d8	 movss	 DWORD PTR _centre_y$[ebp], xmm0

; 2677 : 			dot_x = centre_x + sin (value) * 40 * width / 512;

  05574	51		 push	 ecx
  05575	f3 0f 10 45 ec	 movss	 xmm0, DWORD PTR _value$[ebp]
  0557a	f3 0f 11 04 24	 movss	 DWORD PTR [esp], xmm0
  0557f	e8 00 00 00 00	 call	 ?sin@@YGMM@Z		; sin
  05584	d9 9d 6c ff ff
	ff		 fstp	 DWORD PTR tv4741[ebp]
  0558a	f3 0f 10 85 6c
	ff ff ff	 movss	 xmm0, DWORD PTR tv4741[ebp]
  05592	f3 0f 59 05 00
	00 00 00	 mulss	 xmm0, DWORD PTR __real@42200000
  0559a	f3 0f 59 45 f4	 mulss	 xmm0, DWORD PTR _width$[ebp]
  0559f	f3 0f 5e 05 00
	00 00 00	 divss	 xmm0, DWORD PTR __real@44000000
  055a7	f3 0f 58 45 dc	 addss	 xmm0, DWORD PTR _centre_x$[ebp]
  055ac	f3 0f 11 45 d4	 movss	 DWORD PTR _dot_x$[ebp], xmm0

; 2678 : 			dot_y = centre_y - cos (value) * 60 * height / 256;

  055b1	51		 push	 ecx
  055b2	f3 0f 10 45 ec	 movss	 xmm0, DWORD PTR _value$[ebp]
  055b7	f3 0f 11 04 24	 movss	 DWORD PTR [esp], xmm0
  055bc	e8 00 00 00 00	 call	 ?cos@@YGMM@Z		; cos
  055c1	d9 9d 6c ff ff
	ff		 fstp	 DWORD PTR tv4748[ebp]
  055c7	f3 0f 10 85 6c
	ff ff ff	 movss	 xmm0, DWORD PTR tv4748[ebp]
  055cf	f3 0f 59 05 00
	00 00 00	 mulss	 xmm0, DWORD PTR __real@42700000
  055d7	f3 0f 59 45 f0	 mulss	 xmm0, DWORD PTR _height$[ebp]
  055dc	f3 0f 5e 05 00
	00 00 00	 divss	 xmm0, DWORD PTR __real@43800000
  055e4	f3 0f 10 4d d8	 movss	 xmm1, DWORD PTR _centre_y$[ebp]
  055e9	f3 0f 5c c8	 subss	 xmm1, xmm0
  055ed	f3 0f 11 4d d0	 movss	 DWORD PTR _dot_y$[ebp], xmm1

; 2679 : 			draw_arrow (centre_x, centre_y, dot_x, dot_y, width / 256, height / 128, white_needle_colour);

  055f2	a1 00 00 00 00	 mov	 eax, DWORD PTR ?white_needle_colour@@3UREAL_COLOUR@@A
  055f7	50		 push	 eax
  055f8	f3 0f 10 45 f0	 movss	 xmm0, DWORD PTR _height$[ebp]
  055fd	f3 0f 5e 05 00
	00 00 00	 divss	 xmm0, DWORD PTR __real@43000000
  05605	51		 push	 ecx
  05606	f3 0f 11 04 24	 movss	 DWORD PTR [esp], xmm0
  0560b	f3 0f 10 45 f4	 movss	 xmm0, DWORD PTR _width$[ebp]
  05610	f3 0f 5e 05 00
	00 00 00	 divss	 xmm0, DWORD PTR __real@43800000
  05618	51		 push	 ecx
  05619	f3 0f 11 04 24	 movss	 DWORD PTR [esp], xmm0
  0561e	51		 push	 ecx
  0561f	f3 0f 10 45 d0	 movss	 xmm0, DWORD PTR _dot_y$[ebp]
  05624	f3 0f 11 04 24	 movss	 DWORD PTR [esp], xmm0
  05629	51		 push	 ecx
  0562a	f3 0f 10 45 d4	 movss	 xmm0, DWORD PTR _dot_x$[ebp]
  0562f	f3 0f 11 04 24	 movss	 DWORD PTR [esp], xmm0
  05634	51		 push	 ecx
  05635	f3 0f 10 45 d8	 movss	 xmm0, DWORD PTR _centre_y$[ebp]
  0563a	f3 0f 11 04 24	 movss	 DWORD PTR [esp], xmm0
  0563f	51		 push	 ecx
  05640	f3 0f 10 45 dc	 movss	 xmm0, DWORD PTR _centre_x$[ebp]
  05645	f3 0f 11 04 24	 movss	 DWORD PTR [esp], xmm0
  0564a	e8 00 00 00 00	 call	 ?draw_arrow@@YGXMMMMMMUREAL_COLOUR@@@Z ; draw_arrow

; 2680 : 			/* Second */
; 2681 : 			value = second_hand_value * rad (360.0) / 60.0;

  0564f	f3 0f 5a 45 e0	 cvtss2sd xmm0, DWORD PTR _second_hand_value$[ebp]
  05654	f2 0f 59 05 00
	00 00 00	 mulsd	 xmm0, QWORD PTR __real@401921fb51000000
  0565c	f2 0f 5e 05 00
	00 00 00	 divsd	 xmm0, QWORD PTR __real@404e000000000000
  05664	f2 0f 5a c0	 cvtsd2ss xmm0, xmm0
  05668	f3 0f 11 45 ec	 movss	 DWORD PTR _value$[ebp], xmm0

; 2682 : 		    centre_x = 77 * width / 512;

  0566d	f3 0f 10 05 00
	00 00 00	 movss	 xmm0, DWORD PTR __real@429a0000
  05675	f3 0f 59 45 f4	 mulss	 xmm0, DWORD PTR _width$[ebp]
  0567a	f3 0f 5e 05 00
	00 00 00	 divss	 xmm0, DWORD PTR __real@44000000
  05682	f3 0f 11 45 dc	 movss	 DWORD PTR _centre_x$[ebp], xmm0

; 2683 : 	    	centre_y = 119 * height / 256;

  05687	f3 0f 10 05 00
	00 00 00	 movss	 xmm0, DWORD PTR __real@42ee0000
  0568f	f3 0f 59 45 f0	 mulss	 xmm0, DWORD PTR _height$[ebp]
  05694	f3 0f 5e 05 00
	00 00 00	 divss	 xmm0, DWORD PTR __real@43800000
  0569c	f3 0f 11 45 d8	 movss	 DWORD PTR _centre_y$[ebp], xmm0

; 2684 : 			dot_x = centre_x + sin (value) * 40 * width / 512;

  056a1	51		 push	 ecx
  056a2	f3 0f 10 45 ec	 movss	 xmm0, DWORD PTR _value$[ebp]
  056a7	f3 0f 11 04 24	 movss	 DWORD PTR [esp], xmm0
  056ac	e8 00 00 00 00	 call	 ?sin@@YGMM@Z		; sin
  056b1	d9 9d 6c ff ff
	ff		 fstp	 DWORD PTR tv4770[ebp]
  056b7	f3 0f 10 85 6c
	ff ff ff	 movss	 xmm0, DWORD PTR tv4770[ebp]
  056bf	f3 0f 59 05 00
	00 00 00	 mulss	 xmm0, DWORD PTR __real@42200000
  056c7	f3 0f 59 45 f4	 mulss	 xmm0, DWORD PTR _width$[ebp]
  056cc	f3 0f 5e 05 00
	00 00 00	 divss	 xmm0, DWORD PTR __real@44000000
  056d4	f3 0f 58 45 dc	 addss	 xmm0, DWORD PTR _centre_x$[ebp]
  056d9	f3 0f 11 45 d4	 movss	 DWORD PTR _dot_x$[ebp], xmm0

; 2685 : 			dot_y = centre_y - cos (value) * 60 * height / 256;

  056de	51		 push	 ecx
  056df	f3 0f 10 45 ec	 movss	 xmm0, DWORD PTR _value$[ebp]
  056e4	f3 0f 11 04 24	 movss	 DWORD PTR [esp], xmm0
  056e9	e8 00 00 00 00	 call	 ?cos@@YGMM@Z		; cos
  056ee	d9 9d 6c ff ff
	ff		 fstp	 DWORD PTR tv4777[ebp]
  056f4	f3 0f 10 85 6c
	ff ff ff	 movss	 xmm0, DWORD PTR tv4777[ebp]
  056fc	f3 0f 59 05 00
	00 00 00	 mulss	 xmm0, DWORD PTR __real@42700000
  05704	f3 0f 59 45 f0	 mulss	 xmm0, DWORD PTR _height$[ebp]
  05709	f3 0f 5e 05 00
	00 00 00	 divss	 xmm0, DWORD PTR __real@43800000
  05711	f3 0f 10 4d d8	 movss	 xmm1, DWORD PTR _centre_y$[ebp]
  05716	f3 0f 5c c8	 subss	 xmm1, xmm0
  0571a	f3 0f 11 4d d0	 movss	 DWORD PTR _dot_y$[ebp], xmm1

; 2686 : 			draw_arrow (centre_x, centre_y, dot_x, dot_y, width / 256, height / 128, red_needle_colour);

  0571f	a1 00 00 00 00	 mov	 eax, DWORD PTR ?red_needle_colour@@3UREAL_COLOUR@@A
  05724	50		 push	 eax
  05725	f3 0f 10 45 f0	 movss	 xmm0, DWORD PTR _height$[ebp]
  0572a	f3 0f 5e 05 00
	00 00 00	 divss	 xmm0, DWORD PTR __real@43000000
  05732	51		 push	 ecx
  05733	f3 0f 11 04 24	 movss	 DWORD PTR [esp], xmm0
  05738	f3 0f 10 45 f4	 movss	 xmm0, DWORD PTR _width$[ebp]
  0573d	f3 0f 5e 05 00
	00 00 00	 divss	 xmm0, DWORD PTR __real@43800000
  05745	51		 push	 ecx
  05746	f3 0f 11 04 24	 movss	 DWORD PTR [esp], xmm0
  0574b	51		 push	 ecx
  0574c	f3 0f 10 45 d0	 movss	 xmm0, DWORD PTR _dot_y$[ebp]
  05751	f3 0f 11 04 24	 movss	 DWORD PTR [esp], xmm0
  05756	51		 push	 ecx
  05757	f3 0f 10 45 d4	 movss	 xmm0, DWORD PTR _dot_x$[ebp]
  0575c	f3 0f 11 04 24	 movss	 DWORD PTR [esp], xmm0
  05761	51		 push	 ecx
  05762	f3 0f 10 45 d8	 movss	 xmm0, DWORD PTR _centre_y$[ebp]
  05767	f3 0f 11 04 24	 movss	 DWORD PTR [esp], xmm0
  0576c	51		 push	 ecx
  0576d	f3 0f 10 45 dc	 movss	 xmm0, DWORD PTR _centre_x$[ebp]
  05772	f3 0f 11 04 24	 movss	 DWORD PTR [esp], xmm0
  05777	e8 00 00 00 00	 call	 ?draw_arrow@@YGXMMMMMMUREAL_COLOUR@@@Z ; draw_arrow

; 2687 : 	
; 2688 : 			/* Fuel */
; 2689 : 			value = current_flight_dynamics->fuel_weight.value;

  0577c	a1 00 00 00 00	 mov	 eax, DWORD PTR ?current_flight_dynamics@@3PAUDYNAMICS_TYPE@@A ; current_flight_dynamics
  05781	f3 0f 10 80 a4
	24 00 00	 movss	 xmm0, DWORD PTR [eax+9380]
  05789	f3 0f 11 45 ec	 movss	 DWORD PTR _value$[ebp], xmm0

; 2690 : 			value = bound (value, 0.0, 1600.0);

  0578e	f3 0f 5a 45 ec	 cvtss2sd xmm0, DWORD PTR _value$[ebp]
  05793	0f 57 c9	 xorps	 xmm1, xmm1
  05796	66 0f 2f c8	 comisd	 xmm1, xmm0
  0579a	76 0d		 jbe	 SHORT $LN211@draw_havoc
  0579c	0f 57 c0	 xorps	 xmm0, xmm0
  0579f	f2 0f 11 85 68
	ff ff ff	 movsd	 QWORD PTR tv3289[ebp], xmm0
  057a7	eb 3e		 jmp	 SHORT $LN212@draw_havoc
$LN211@draw_havoc:
  057a9	f3 0f 5a 45 ec	 cvtss2sd xmm0, DWORD PTR _value$[ebp]
  057ae	66 0f 2f 05 00
	00 00 00	 comisd	 xmm0, QWORD PTR __real@4099000000000000
  057b6	76 12		 jbe	 SHORT $LN209@draw_havoc
  057b8	f2 0f 10 05 00
	00 00 00	 movsd	 xmm0, QWORD PTR __real@4099000000000000
  057c0	f2 0f 11 85 60
	ff ff ff	 movsd	 QWORD PTR tv3288[ebp], xmm0
  057c8	eb 0d		 jmp	 SHORT $LN210@draw_havoc
$LN209@draw_havoc:
  057ca	f3 0f 5a 45 ec	 cvtss2sd xmm0, DWORD PTR _value$[ebp]
  057cf	f2 0f 11 85 60
	ff ff ff	 movsd	 QWORD PTR tv3288[ebp], xmm0
$LN210@draw_havoc:
  057d7	f2 0f 10 85 60
	ff ff ff	 movsd	 xmm0, QWORD PTR tv3288[ebp]
  057df	f2 0f 11 85 68
	ff ff ff	 movsd	 QWORD PTR tv3289[ebp], xmm0
$LN212@draw_havoc:
  057e7	f2 0f 5a 85 68
	ff ff ff	 cvtsd2ss xmm0, QWORD PTR tv3289[ebp]
  057ef	f3 0f 11 45 ec	 movss	 DWORD PTR _value$[ebp], xmm0

; 2691 : 			value = (value - 750.0) * rad (360.0) / 2000.0;

  057f4	f3 0f 5a 45 ec	 cvtss2sd xmm0, DWORD PTR _value$[ebp]
  057f9	f2 0f 5c 05 00
	00 00 00	 subsd	 xmm0, QWORD PTR __real@4087700000000000
  05801	f2 0f 59 05 00
	00 00 00	 mulsd	 xmm0, QWORD PTR __real@401921fb51000000
  05809	f2 0f 5e 05 00
	00 00 00	 divsd	 xmm0, QWORD PTR __real@409f400000000000
  05811	f2 0f 5a c0	 cvtsd2ss xmm0, xmm0
  05815	f3 0f 11 45 ec	 movss	 DWORD PTR _value$[ebp], xmm0

; 2692 : 		    centre_x = 432 * width / 512;

  0581a	f3 0f 10 05 00
	00 00 00	 movss	 xmm0, DWORD PTR __real@43d80000
  05822	f3 0f 59 45 f4	 mulss	 xmm0, DWORD PTR _width$[ebp]
  05827	f3 0f 5e 05 00
	00 00 00	 divss	 xmm0, DWORD PTR __real@44000000
  0582f	f3 0f 11 45 dc	 movss	 DWORD PTR _centre_x$[ebp], xmm0

; 2693 : 	    	centre_y = 118 * height / 256;

  05834	f3 0f 10 05 00
	00 00 00	 movss	 xmm0, DWORD PTR __real@42ec0000
  0583c	f3 0f 59 45 f0	 mulss	 xmm0, DWORD PTR _height$[ebp]
  05841	f3 0f 5e 05 00
	00 00 00	 divss	 xmm0, DWORD PTR __real@43800000
  05849	f3 0f 11 45 d8	 movss	 DWORD PTR _centre_y$[ebp], xmm0

; 2694 : 			dot_x = centre_x + sin (value) * 40 * width / 512;

  0584e	51		 push	 ecx
  0584f	f3 0f 10 45 ec	 movss	 xmm0, DWORD PTR _value$[ebp]
  05854	f3 0f 11 04 24	 movss	 DWORD PTR [esp], xmm0
  05859	e8 00 00 00 00	 call	 ?sin@@YGMM@Z		; sin
  0585e	d9 9d 6c ff ff
	ff		 fstp	 DWORD PTR tv4805[ebp]
  05864	f3 0f 10 85 6c
	ff ff ff	 movss	 xmm0, DWORD PTR tv4805[ebp]
  0586c	f3 0f 59 05 00
	00 00 00	 mulss	 xmm0, DWORD PTR __real@42200000
  05874	f3 0f 59 45 f4	 mulss	 xmm0, DWORD PTR _width$[ebp]
  05879	f3 0f 5e 05 00
	00 00 00	 divss	 xmm0, DWORD PTR __real@44000000
  05881	f3 0f 58 45 dc	 addss	 xmm0, DWORD PTR _centre_x$[ebp]
  05886	f3 0f 11 45 d4	 movss	 DWORD PTR _dot_x$[ebp], xmm0

; 2695 : 			dot_y = centre_y - cos (value) * 60 * height / 256;

  0588b	51		 push	 ecx
  0588c	f3 0f 10 45 ec	 movss	 xmm0, DWORD PTR _value$[ebp]
  05891	f3 0f 11 04 24	 movss	 DWORD PTR [esp], xmm0
  05896	e8 00 00 00 00	 call	 ?cos@@YGMM@Z		; cos
  0589b	d9 9d 6c ff ff
	ff		 fstp	 DWORD PTR tv4812[ebp]
  058a1	f3 0f 10 85 6c
	ff ff ff	 movss	 xmm0, DWORD PTR tv4812[ebp]
  058a9	f3 0f 59 05 00
	00 00 00	 mulss	 xmm0, DWORD PTR __real@42700000
  058b1	f3 0f 59 45 f0	 mulss	 xmm0, DWORD PTR _height$[ebp]
  058b6	f3 0f 5e 05 00
	00 00 00	 divss	 xmm0, DWORD PTR __real@43800000
  058be	f3 0f 10 4d d8	 movss	 xmm1, DWORD PTR _centre_y$[ebp]
  058c3	f3 0f 5c c8	 subss	 xmm1, xmm0
  058c7	f3 0f 11 4d d0	 movss	 DWORD PTR _dot_y$[ebp], xmm1

; 2696 : 			centre_x = centre_x + sin (value) * 10 * width / 512;

  058cc	51		 push	 ecx
  058cd	f3 0f 10 45 ec	 movss	 xmm0, DWORD PTR _value$[ebp]
  058d2	f3 0f 11 04 24	 movss	 DWORD PTR [esp], xmm0
  058d7	e8 00 00 00 00	 call	 ?sin@@YGMM@Z		; sin
  058dc	d9 9d 6c ff ff
	ff		 fstp	 DWORD PTR tv4819[ebp]
  058e2	f3 0f 10 85 6c
	ff ff ff	 movss	 xmm0, DWORD PTR tv4819[ebp]
  058ea	f3 0f 59 05 00
	00 00 00	 mulss	 xmm0, DWORD PTR __real@41200000
  058f2	f3 0f 59 45 f4	 mulss	 xmm0, DWORD PTR _width$[ebp]
  058f7	f3 0f 5e 05 00
	00 00 00	 divss	 xmm0, DWORD PTR __real@44000000
  058ff	f3 0f 58 45 dc	 addss	 xmm0, DWORD PTR _centre_x$[ebp]
  05904	f3 0f 11 45 dc	 movss	 DWORD PTR _centre_x$[ebp], xmm0

; 2697 : 			centre_y = centre_y - cos (value) * 15 * height / 256;

  05909	51		 push	 ecx
  0590a	f3 0f 10 45 ec	 movss	 xmm0, DWORD PTR _value$[ebp]
  0590f	f3 0f 11 04 24	 movss	 DWORD PTR [esp], xmm0
  05914	e8 00 00 00 00	 call	 ?cos@@YGMM@Z		; cos
  05919	d9 9d 6c ff ff
	ff		 fstp	 DWORD PTR tv4826[ebp]
  0591f	f3 0f 10 85 6c
	ff ff ff	 movss	 xmm0, DWORD PTR tv4826[ebp]
  05927	f3 0f 59 05 00
	00 00 00	 mulss	 xmm0, DWORD PTR __real@41700000
  0592f	f3 0f 59 45 f0	 mulss	 xmm0, DWORD PTR _height$[ebp]
  05934	f3 0f 5e 05 00
	00 00 00	 divss	 xmm0, DWORD PTR __real@43800000
  0593c	f3 0f 10 4d d8	 movss	 xmm1, DWORD PTR _centre_y$[ebp]
  05941	f3 0f 5c c8	 subss	 xmm1, xmm0
  05945	f3 0f 11 4d d8	 movss	 DWORD PTR _centre_y$[ebp], xmm1

; 2698 : 			draw_arrow (centre_x, centre_y, dot_x, dot_y, width / 128, height / 64, yellow_needle_colour);

  0594a	a1 00 00 00 00	 mov	 eax, DWORD PTR ?yellow_needle_colour@@3UREAL_COLOUR@@A
  0594f	50		 push	 eax
  05950	f3 0f 10 45 f0	 movss	 xmm0, DWORD PTR _height$[ebp]
  05955	f3 0f 5e 05 00
	00 00 00	 divss	 xmm0, DWORD PTR __real@42800000
  0595d	51		 push	 ecx
  0595e	f3 0f 11 04 24	 movss	 DWORD PTR [esp], xmm0
  05963	f3 0f 10 45 f4	 movss	 xmm0, DWORD PTR _width$[ebp]
  05968	f3 0f 5e 05 00
	00 00 00	 divss	 xmm0, DWORD PTR __real@43000000
  05970	51		 push	 ecx
  05971	f3 0f 11 04 24	 movss	 DWORD PTR [esp], xmm0
  05976	51		 push	 ecx
  05977	f3 0f 10 45 d0	 movss	 xmm0, DWORD PTR _dot_y$[ebp]
  0597c	f3 0f 11 04 24	 movss	 DWORD PTR [esp], xmm0
  05981	51		 push	 ecx
  05982	f3 0f 10 45 d4	 movss	 xmm0, DWORD PTR _dot_x$[ebp]
  05987	f3 0f 11 04 24	 movss	 DWORD PTR [esp], xmm0
  0598c	51		 push	 ecx
  0598d	f3 0f 10 45 d8	 movss	 xmm0, DWORD PTR _centre_y$[ebp]
  05992	f3 0f 11 04 24	 movss	 DWORD PTR [esp], xmm0
  05997	51		 push	 ecx
  05998	f3 0f 10 45 dc	 movss	 xmm0, DWORD PTR _centre_x$[ebp]
  0599d	f3 0f 11 04 24	 movss	 DWORD PTR [esp], xmm0
  059a2	e8 00 00 00 00	 call	 ?draw_arrow@@YGXMMMMMMUREAL_COLOUR@@@Z ; draw_arrow

; 2699 : 	
; 2700 : 			unlock_screen (texture_screen[TG_CEN][texture]);

  059a7	b8 0c 00 00 00	 mov	 eax, 12			; 0000000cH
  059ac	c1 e0 02	 shl	 eax, 2
  059af	8b 4d fc	 mov	 ecx, DWORD PTR _texture$[ebp]
  059b2	8b 94 88 00 00
	00 00		 mov	 edx, DWORD PTR ?texture_screen@@3PAY02PAUSCREEN@@A[eax+ecx*4]
  059b9	52		 push	 edx
  059ba	e8 00 00 00 00	 call	 ?unlock_screen@@YGHPAUSCREEN@@@Z ; unlock_screen
$LN103@draw_havoc:

; 2701 : 		}
; 2702 : 	
; 2703 : 		/* Restore */
; 2704 : 		set_active_screen (video_screen);

  059bf	a1 00 00 00 00	 mov	 eax, DWORD PTR ?video_screen@@3PAUSCREEN@@A ; video_screen
  059c4	50		 push	 eax
  059c5	e8 00 00 00 00	 call	 ?set_active_screen@@YGHPAUSCREEN@@@Z ; set_active_screen
$LN7@draw_havoc:

; 2705 : 	
; 2706 : 	} // check eeah files installed
; 2707 : }

  059ca	5f		 pop	 edi
  059cb	5e		 pop	 esi
  059cc	5b		 pop	 ebx
  059cd	8b e5		 mov	 esp, ebp
  059cf	5d		 pop	 ebp
  059d0	c3		 ret	 0
  059d1	0f 1f 00	 npad	 3
$LN213@draw_havoc:
  059d4	00 00 00 00	 DD	 $LN8@draw_havoc
  059d8	00 00 00 00	 DD	 $LN9@draw_havoc
  059dc	00 00 00 00	 DD	 $LN10@draw_havoc
  059e0	00 00 00 00	 DD	 $LN11@draw_havoc
?draw_havoc_virtual_cockpit_instruments_on_texture@@YGXXZ ENDP ; draw_havoc_virtual_cockpit_instruments_on_texture
_TEXT	ENDS
; Function compile flags: /Odtp /ZI
; File c:\users\nhv90\projects\eech\aphavoc\source\gunships\cockpits\havoc\ha_instr.c
;	COMDAT ?deinitialise_havoc_instruments@@YGXXZ
_TEXT	SEGMENT
_texture$ = -8						; size = 4
_tg$ = -4						; size = 4
?deinitialise_havoc_instruments@@YGXXZ PROC		; deinitialise_havoc_instruments, COMDAT

; 2220 : {

  00000	55		 push	 ebp
  00001	8b ec		 mov	 ebp, esp
  00003	83 ec 48	 sub	 esp, 72			; 00000048H
  00006	53		 push	 ebx
  00007	56		 push	 esi
  00008	57		 push	 edi

; 2221 : 	int
; 2222 : 		tg;
; 2223 : 	int
; 2224 : 		texture;
; 2225 : 
; 2226 : 	//VJ 051221 included check for presense EEAH sprite 
; 2227 : 	if (get_global_apache_havoc_installed()) 

  00009	83 3d 60 03 00
	00 00		 cmp	 DWORD PTR ?global_options@@3UGLOBAL_OPTIONS_DATA@@A+864, 0
  00010	74 6b		 je	 SHORT $LN1@deinitiali

; 2228 : 	{
; 2229 : 		for (tg = 0; tg < TG_LAST; tg++)

  00012	c7 45 fc 00 00
	00 00		 mov	 DWORD PTR _tg$[ebp], 0
  00019	eb 09		 jmp	 SHORT $LN4@deinitiali
$LN2@deinitiali:
  0001b	8b 45 fc	 mov	 eax, DWORD PTR _tg$[ebp]
  0001e	83 c0 01	 add	 eax, 1
  00021	89 45 fc	 mov	 DWORD PTR _tg$[ebp], eax
$LN4@deinitiali:
  00024	83 7d fc 05	 cmp	 DWORD PTR _tg$[ebp], 5
  00028	7d 53		 jge	 SHORT $LN1@deinitiali

; 2230 : 		{
; 2231 : 			for (texture = 0; texture < 3; texture++)

  0002a	c7 45 f8 00 00
	00 00		 mov	 DWORD PTR _texture$[ebp], 0
  00031	eb 09		 jmp	 SHORT $LN7@deinitiali
$LN5@deinitiali:
  00033	8b 45 f8	 mov	 eax, DWORD PTR _texture$[ebp]
  00036	83 c0 01	 add	 eax, 1
  00039	89 45 f8	 mov	 DWORD PTR _texture$[ebp], eax
$LN7@deinitiali:
  0003c	83 7d f8 03	 cmp	 DWORD PTR _texture$[ebp], 3
  00040	7d 39		 jge	 SHORT $LN6@deinitiali

; 2232 : 			{
; 2233 : 				set_system_texture_screen (old_texture_screen[tg][texture], textures[tg][texture]);

  00042	6b 45 fc 0c	 imul	 eax, DWORD PTR _tg$[ebp], 12
  00046	8b 4d f8	 mov	 ecx, DWORD PTR _texture$[ebp]
  00049	8b 94 88 00 00
	00 00		 mov	 edx, DWORD PTR ?textures@@3PAY02HA[eax+ecx*4]
  00050	52		 push	 edx
  00051	6b 45 fc 0c	 imul	 eax, DWORD PTR _tg$[ebp], 12
  00055	8b 4d f8	 mov	 ecx, DWORD PTR _texture$[ebp]
  00058	8b 94 88 00 00
	00 00		 mov	 edx, DWORD PTR ?old_texture_screen@@3PAY02PAUSCREEN@@A[eax+ecx*4]
  0005f	52		 push	 edx
  00060	e8 00 00 00 00	 call	 ?set_system_texture_screen@@YGXPAUSCREEN@@H@Z ; set_system_texture_screen

; 2234 : 				destroy_screen (texture_screen[tg][texture]);

  00065	6b 45 fc 0c	 imul	 eax, DWORD PTR _tg$[ebp], 12
  00069	8b 4d f8	 mov	 ecx, DWORD PTR _texture$[ebp]
  0006c	8b 94 88 00 00
	00 00		 mov	 edx, DWORD PTR ?texture_screen@@3PAY02PAUSCREEN@@A[eax+ecx*4]
  00073	52		 push	 edx
  00074	e8 00 00 00 00	 call	 ?destroy_screen@@YGHPAUSCREEN@@@Z ; destroy_screen

; 2235 : 			}

  00079	eb b8		 jmp	 SHORT $LN5@deinitiali
$LN6@deinitiali:

; 2236 : 		}

  0007b	eb 9e		 jmp	 SHORT $LN2@deinitiali
$LN1@deinitiali:

; 2237 : 	}	
; 2238 : }

  0007d	5f		 pop	 edi
  0007e	5e		 pop	 esi
  0007f	5b		 pop	 ebx
  00080	8b e5		 mov	 esp, ebp
  00082	5d		 pop	 ebp
  00083	c3		 ret	 0
?deinitialise_havoc_instruments@@YGXXZ ENDP		; deinitialise_havoc_instruments
_TEXT	ENDS
; Function compile flags: /Odtp /ZI
; File c:\users\nhv90\projects\eech\aphavoc\source\gunships\cockpits\havoc\ha_instr.c
;	COMDAT ?initialise_havoc_instruments@@YGXXZ
_TEXT	SEGMENT
_texture$ = -8						; size = 4
_tg$ = -4						; size = 4
?initialise_havoc_instruments@@YGXXZ PROC		; initialise_havoc_instruments, COMDAT

; 2192 : {

  00000	55		 push	 ebp
  00001	8b ec		 mov	 ebp, esp
  00003	83 ec 48	 sub	 esp, 72			; 00000048H
  00006	53		 push	 ebx
  00007	56		 push	 esi
  00008	57		 push	 edi

; 2193 : 	int
; 2194 : 		tg;
; 2195 : 	int
; 2196 : 		texture;
; 2197 : 
; 2198 : 	//VJ 051221 included check for presense EEAH sprite 
; 2199 : 	if (get_global_apache_havoc_installed()) 

  00009	83 3d 60 03 00
	00 00		 cmp	 DWORD PTR ?global_options@@3UGLOBAL_OPTIONS_DATA@@A+864, 0
  00010	0f 84 fa 00 00
	00		 je	 $LN3@initialise

; 2200 : 	{
; 2201 : 		for (tg = 0; tg < TG_LAST; tg++)

  00016	c7 45 fc 00 00
	00 00		 mov	 DWORD PTR _tg$[ebp], 0
  0001d	eb 09		 jmp	 SHORT $LN4@initialise
$LN2@initialise:
  0001f	8b 45 fc	 mov	 eax, DWORD PTR _tg$[ebp]
  00022	83 c0 01	 add	 eax, 1
  00025	89 45 fc	 mov	 DWORD PTR _tg$[ebp], eax
$LN4@initialise:
  00028	83 7d fc 05	 cmp	 DWORD PTR _tg$[ebp], 5
  0002c	0f 8d de 00 00
	00		 jge	 $LN3@initialise

; 2202 : 		{
; 2203 : 			for (texture = 0; texture < 3; texture++)

  00032	c7 45 f8 00 00
	00 00		 mov	 DWORD PTR _texture$[ebp], 0
  00039	eb 09		 jmp	 SHORT $LN7@initialise
$LN5@initialise:
  0003b	8b 45 f8	 mov	 eax, DWORD PTR _texture$[ebp]
  0003e	83 c0 01	 add	 eax, 1
  00041	89 45 f8	 mov	 DWORD PTR _texture$[ebp], eax
$LN7@initialise:
  00044	83 7d f8 03	 cmp	 DWORD PTR _texture$[ebp], 3
  00048	0f 8d bd 00 00
	00		 jge	 $LN6@initialise

; 2204 : 			{
; 2205 : 				old_texture_screen[tg][texture] = create_screen_for_system_texture (textures[tg][texture]);

  0004e	6b 45 fc 0c	 imul	 eax, DWORD PTR _tg$[ebp], 12
  00052	8b 4d f8	 mov	 ecx, DWORD PTR _texture$[ebp]
  00055	8b 94 88 00 00
	00 00		 mov	 edx, DWORD PTR ?textures@@3PAY02HA[eax+ecx*4]
  0005c	52		 push	 edx
  0005d	e8 00 00 00 00	 call	 ?create_screen_for_system_texture@@YGPAUSCREEN@@H@Z ; create_screen_for_system_texture
  00062	6b 4d fc 0c	 imul	 ecx, DWORD PTR _tg$[ebp], 12
  00066	8b 55 f8	 mov	 edx, DWORD PTR _texture$[ebp]
  00069	89 84 91 00 00
	00 00		 mov	 DWORD PTR ?old_texture_screen@@3PAY02PAUSCREEN@@A[ecx+edx*4], eax

; 2206 : 				texture_width[tg][texture] = get_screen_width (old_texture_screen[tg][texture]);

  00070	6b 45 fc 0c	 imul	 eax, DWORD PTR _tg$[ebp], 12
  00074	8b 4d f8	 mov	 ecx, DWORD PTR _texture$[ebp]
  00077	8b 94 88 00 00
	00 00		 mov	 edx, DWORD PTR ?old_texture_screen@@3PAY02PAUSCREEN@@A[eax+ecx*4]
  0007e	52		 push	 edx
  0007f	e8 00 00 00 00	 call	 ?get_screen_width@@YGHPAUSCREEN@@@Z ; get_screen_width
  00084	f3 0f 2a c0	 cvtsi2ss xmm0, eax
  00088	6b 45 fc 0c	 imul	 eax, DWORD PTR _tg$[ebp], 12
  0008c	8b 4d f8	 mov	 ecx, DWORD PTR _texture$[ebp]
  0008f	f3 0f 11 84 88
	00 00 00 00	 movss	 DWORD PTR ?texture_width@@3PAY02MA[eax+ecx*4], xmm0

; 2207 : 				texture_height[tg][texture] = get_screen_height (old_texture_screen[tg][texture]);

  00098	6b 45 fc 0c	 imul	 eax, DWORD PTR _tg$[ebp], 12
  0009c	8b 4d f8	 mov	 ecx, DWORD PTR _texture$[ebp]
  0009f	8b 94 88 00 00
	00 00		 mov	 edx, DWORD PTR ?old_texture_screen@@3PAY02PAUSCREEN@@A[eax+ecx*4]
  000a6	52		 push	 edx
  000a7	e8 00 00 00 00	 call	 ?get_screen_height@@YGHPAUSCREEN@@@Z ; get_screen_height
  000ac	f3 0f 2a c0	 cvtsi2ss xmm0, eax
  000b0	6b 45 fc 0c	 imul	 eax, DWORD PTR _tg$[ebp], 12
  000b4	8b 4d f8	 mov	 ecx, DWORD PTR _texture$[ebp]
  000b7	f3 0f 11 84 88
	00 00 00 00	 movss	 DWORD PTR ?texture_height@@3PAY02MA[eax+ecx*4], xmm0

; 2208 : 	
; 2209 : 				texture_screen[tg][texture] = create_system_texture_screen (texture_width[tg][texture], texture_height[tg][texture], textures[tg][texture], TEXTURE_TYPE_NOALPHA_NOPALETTE);

  000c0	6a 05		 push	 5
  000c2	6b 45 fc 0c	 imul	 eax, DWORD PTR _tg$[ebp], 12
  000c6	8b 4d f8	 mov	 ecx, DWORD PTR _texture$[ebp]
  000c9	8b 94 88 00 00
	00 00		 mov	 edx, DWORD PTR ?textures@@3PAY02HA[eax+ecx*4]
  000d0	52		 push	 edx
  000d1	6b 45 fc 0c	 imul	 eax, DWORD PTR _tg$[ebp], 12
  000d5	8b 4d f8	 mov	 ecx, DWORD PTR _texture$[ebp]
  000d8	f3 0f 2c 94 88
	00 00 00 00	 cvttss2si edx, DWORD PTR ?texture_height@@3PAY02MA[eax+ecx*4]
  000e1	52		 push	 edx
  000e2	6b 45 fc 0c	 imul	 eax, DWORD PTR _tg$[ebp], 12
  000e6	8b 4d f8	 mov	 ecx, DWORD PTR _texture$[ebp]
  000e9	f3 0f 2c 94 88
	00 00 00 00	 cvttss2si edx, DWORD PTR ?texture_width@@3PAY02MA[eax+ecx*4]
  000f2	52		 push	 edx
  000f3	e8 00 00 00 00	 call	 ?create_system_texture_screen@@YGPAUSCREEN@@HHHH@Z ; create_system_texture_screen
  000f8	6b 4d fc 0c	 imul	 ecx, DWORD PTR _tg$[ebp], 12
  000fc	8b 55 f8	 mov	 edx, DWORD PTR _texture$[ebp]
  000ff	89 84 91 00 00
	00 00		 mov	 DWORD PTR ?texture_screen@@3PAY02PAUSCREEN@@A[ecx+edx*4], eax

; 2210 : 			}

  00106	e9 30 ff ff ff	 jmp	 $LN5@initialise
$LN6@initialise:

; 2211 : 		}

  0010b	e9 0f ff ff ff	 jmp	 $LN2@initialise
$LN3@initialise:

; 2212 : 	}
; 2213 : }

  00110	5f		 pop	 edi
  00111	5e		 pop	 esi
  00112	5b		 pop	 ebx
  00113	8b e5		 mov	 esp, ebp
  00115	5d		 pop	 ebp
  00116	c3		 ret	 0
?initialise_havoc_instruments@@YGXXZ ENDP		; initialise_havoc_instruments
_TEXT	ENDS
; Function compile flags: /Odtp /ZI
; File c:\users\nhv90\projects\eech\aphavoc\source\gunships\cockpits\havoc\ha_instr.c
;	COMDAT ?get_havoc_virtual_cockpit_hsi_needle_values@@YGXPAM00@Z
_TEXT	SEGMENT
_drift_needle_value$ = -12				; size = 4
_flight_path_needle_value$ = -8				; size = 4
_direction_finder_needle_value$ = -4			; size = 4
_direction_finder$ = 8					; size = 4
_flight_path$ = 12					; size = 4
_drift$ = 16						; size = 4
?get_havoc_virtual_cockpit_hsi_needle_values@@YGXPAM00@Z PROC ; get_havoc_virtual_cockpit_hsi_needle_values, COMDAT

; 2164 : {

  00000	55		 push	 ebp
  00001	8b ec		 mov	 ebp, esp
  00003	83 ec 4c	 sub	 esp, 76			; 0000004cH
  00006	53		 push	 ebx
  00007	56		 push	 esi
  00008	57		 push	 edi

; 2165 : 	float
; 2166 : 		direction_finder_needle_value,
; 2167 : 		flight_path_needle_value,
; 2168 : 		drift_needle_value;
; 2169 : 
; 2170 : 	ASSERT  (direction_finder);

  00009	83 7d 08 00	 cmp	 DWORD PTR _direction_finder$[ebp], 0
  0000d	75 18		 jne	 SHORT $LN2@get_havoc_
  0000f	a1 00 00 00 00	 mov	 eax, DWORD PTR ?__LINE__Var@?0??get_havoc_virtual_cockpit_hsi_needle_values@@YGXPAM00@Z@4JA
  00014	83 c0 06	 add	 eax, 6
  00017	50		 push	 eax
  00018	68 00 00 00 00	 push	 OFFSET ??_C@_0EP@MNOBCBEH@c?3?2users?2nhv90?2projects?2eech?2ap@
  0001d	68 00 00 00 00	 push	 OFFSET ??_C@_0BB@PFAKKLCO@direction_finder@
  00022	e8 00 00 00 00	 call	 ?process_assert@@YGXPBD0H@Z ; process_assert
$LN2@get_havoc_:

; 2171 : 
; 2172 : 	ASSERT (flight_path);

  00027	83 7d 0c 00	 cmp	 DWORD PTR _flight_path$[ebp], 0
  0002b	75 18		 jne	 SHORT $LN3@get_havoc_
  0002d	a1 00 00 00 00	 mov	 eax, DWORD PTR ?__LINE__Var@?0??get_havoc_virtual_cockpit_hsi_needle_values@@YGXPAM00@Z@4JA
  00032	83 c0 08	 add	 eax, 8
  00035	50		 push	 eax
  00036	68 00 00 00 00	 push	 OFFSET ??_C@_0EP@MNOBCBEH@c?3?2users?2nhv90?2projects?2eech?2ap@
  0003b	68 00 00 00 00	 push	 OFFSET ??_C@_0M@GOBOJDMO@flight_path@
  00040	e8 00 00 00 00	 call	 ?process_assert@@YGXPBD0H@Z ; process_assert
$LN3@get_havoc_:

; 2173 : 
; 2174 : 	ASSERT (drift);

  00045	83 7d 10 00	 cmp	 DWORD PTR _drift$[ebp], 0
  00049	75 18		 jne	 SHORT $LN4@get_havoc_
  0004b	a1 00 00 00 00	 mov	 eax, DWORD PTR ?__LINE__Var@?0??get_havoc_virtual_cockpit_hsi_needle_values@@YGXPAM00@Z@4JA
  00050	83 c0 0a	 add	 eax, 10			; 0000000aH
  00053	50		 push	 eax
  00054	68 00 00 00 00	 push	 OFFSET ??_C@_0EP@MNOBCBEH@c?3?2users?2nhv90?2projects?2eech?2ap@
  00059	68 00 00 00 00	 push	 OFFSET ??_C@_05BPGNBDFG@drift@
  0005e	e8 00 00 00 00	 call	 ?process_assert@@YGXPBD0H@Z ; process_assert
$LN4@get_havoc_:

; 2175 : 
; 2176 : 	get_hsi_needle_values (&direction_finder_needle_value, &flight_path_needle_value, &drift_needle_value);

  00063	8d 45 f4	 lea	 eax, DWORD PTR _drift_needle_value$[ebp]
  00066	50		 push	 eax
  00067	8d 4d f8	 lea	 ecx, DWORD PTR _flight_path_needle_value$[ebp]
  0006a	51		 push	 ecx
  0006b	8d 55 fc	 lea	 edx, DWORD PTR _direction_finder_needle_value$[ebp]
  0006e	52		 push	 edx
  0006f	e8 00 00 00 00	 call	 ?get_hsi_needle_values@@YGXPAM00@Z ; get_hsi_needle_values

; 2177 : 
; 2178 : 	*direction_finder = direction_finder_needle_value * -1.0;

  00074	f3 0f 5a 45 fc	 cvtss2sd xmm0, DWORD PTR _direction_finder_needle_value$[ebp]
  00079	f2 0f 59 05 00
	00 00 00	 mulsd	 xmm0, QWORD PTR __real@bff0000000000000
  00081	f2 0f 5a c0	 cvtsd2ss xmm0, xmm0
  00085	8b 45 08	 mov	 eax, DWORD PTR _direction_finder$[ebp]
  00088	f3 0f 11 00	 movss	 DWORD PTR [eax], xmm0

; 2179 : 
; 2180 : 	*flight_path = flight_path_needle_value * -1.0;

  0008c	f3 0f 5a 45 f8	 cvtss2sd xmm0, DWORD PTR _flight_path_needle_value$[ebp]
  00091	f2 0f 59 05 00
	00 00 00	 mulsd	 xmm0, QWORD PTR __real@bff0000000000000
  00099	f2 0f 5a c0	 cvtsd2ss xmm0, xmm0
  0009d	8b 45 0c	 mov	 eax, DWORD PTR _flight_path$[ebp]
  000a0	f3 0f 11 00	 movss	 DWORD PTR [eax], xmm0

; 2181 : 
; 2182 : 	*drift = drift_needle_value * -1.0;

  000a4	f3 0f 5a 45 f4	 cvtss2sd xmm0, DWORD PTR _drift_needle_value$[ebp]
  000a9	f2 0f 59 05 00
	00 00 00	 mulsd	 xmm0, QWORD PTR __real@bff0000000000000
  000b1	f2 0f 5a c0	 cvtsd2ss xmm0, xmm0
  000b5	8b 45 10	 mov	 eax, DWORD PTR _drift$[ebp]
  000b8	f3 0f 11 00	 movss	 DWORD PTR [eax], xmm0

; 2183 : }

  000bc	5f		 pop	 edi
  000bd	5e		 pop	 esi
  000be	5b		 pop	 ebx
  000bf	8b e5		 mov	 esp, ebp
  000c1	5d		 pop	 ebp
  000c2	c2 0c 00	 ret	 12			; 0000000cH
?get_havoc_virtual_cockpit_hsi_needle_values@@YGXPAM00@Z ENDP ; get_havoc_virtual_cockpit_hsi_needle_values
_TEXT	ENDS
; Function compile flags: /Odtp /ZI
; File c:\users\nhv90\projects\eech\aphavoc\source\gunships\cockpits\havoc\ha_instr.c
;	COMDAT ?get_havoc_virtual_cockpit_adi_angles@@YGXQAY02MPAM11@Z
_TEXT	SEGMENT
tv273 = -176						; size = 4
_result$ = -108						; size = 36
_heading_rotation$ = -72				; size = 36
_inverse_attitude$ = -36				; size = 36
_attitude$ = 8						; size = 4
_heading$ = 12						; size = 4
_pitch$ = 16						; size = 4
_roll$ = 20						; size = 4
?get_havoc_virtual_cockpit_adi_angles@@YGXQAY02MPAM11@Z PROC ; get_havoc_virtual_cockpit_adi_angles, COMDAT

; 2124 : {

  00000	55		 push	 ebp
  00001	8b ec		 mov	 ebp, esp
  00003	81 ec b0 00 00
	00		 sub	 esp, 176		; 000000b0H
  00009	53		 push	 ebx
  0000a	56		 push	 esi
  0000b	57		 push	 edi

; 2125 : 	matrix3x3
; 2126 : 		inverse_attitude,
; 2127 : 		heading_rotation,
; 2128 : 		result;
; 2129 : 
; 2130 : 	//
; 2131 : 	// get inverse attitude (attiude * inverse attitude = identity) which aligns the ADI with the world axis
; 2132 : 	//
; 2133 : 
; 2134 : 	inverse_attitude[0][0] = attitude[0][0];

  0000c	b8 0c 00 00 00	 mov	 eax, 12			; 0000000cH
  00011	6b c8 00	 imul	 ecx, eax, 0
  00014	03 4d 08	 add	 ecx, DWORD PTR _attitude$[ebp]
  00017	ba 04 00 00 00	 mov	 edx, 4
  0001c	6b c2 00	 imul	 eax, edx, 0
  0001f	ba 0c 00 00 00	 mov	 edx, 12			; 0000000cH
  00024	6b d2 00	 imul	 edx, edx, 0
  00027	8d 54 15 dc	 lea	 edx, DWORD PTR _inverse_attitude$[ebp+edx]
  0002b	be 04 00 00 00	 mov	 esi, 4
  00030	6b f6 00	 imul	 esi, esi, 0
  00033	8b 04 01	 mov	 eax, DWORD PTR [ecx+eax]
  00036	89 04 32	 mov	 DWORD PTR [edx+esi], eax

; 2135 : 	inverse_attitude[1][0] = attitude[0][1];

  00039	b8 0c 00 00 00	 mov	 eax, 12			; 0000000cH
  0003e	6b c8 00	 imul	 ecx, eax, 0
  00041	03 4d 08	 add	 ecx, DWORD PTR _attitude$[ebp]
  00044	ba 04 00 00 00	 mov	 edx, 4
  00049	c1 e2 00	 shl	 edx, 0
  0004c	b8 0c 00 00 00	 mov	 eax, 12			; 0000000cH
  00051	c1 e0 00	 shl	 eax, 0
  00054	8d 44 05 dc	 lea	 eax, DWORD PTR _inverse_attitude$[ebp+eax]
  00058	be 04 00 00 00	 mov	 esi, 4
  0005d	6b f6 00	 imul	 esi, esi, 0
  00060	8b 0c 11	 mov	 ecx, DWORD PTR [ecx+edx]
  00063	89 0c 30	 mov	 DWORD PTR [eax+esi], ecx

; 2136 : 	inverse_attitude[2][0] = attitude[0][2];

  00066	b8 0c 00 00 00	 mov	 eax, 12			; 0000000cH
  0006b	6b c8 00	 imul	 ecx, eax, 0
  0006e	03 4d 08	 add	 ecx, DWORD PTR _attitude$[ebp]
  00071	ba 04 00 00 00	 mov	 edx, 4
  00076	d1 e2		 shl	 edx, 1
  00078	b8 0c 00 00 00	 mov	 eax, 12			; 0000000cH
  0007d	d1 e0		 shl	 eax, 1
  0007f	8d 44 05 dc	 lea	 eax, DWORD PTR _inverse_attitude$[ebp+eax]
  00083	be 04 00 00 00	 mov	 esi, 4
  00088	6b f6 00	 imul	 esi, esi, 0
  0008b	8b 0c 11	 mov	 ecx, DWORD PTR [ecx+edx]
  0008e	89 0c 30	 mov	 DWORD PTR [eax+esi], ecx

; 2137 : 	inverse_attitude[0][1] = attitude[1][0];

  00091	b8 0c 00 00 00	 mov	 eax, 12			; 0000000cH
  00096	c1 e0 00	 shl	 eax, 0
  00099	03 45 08	 add	 eax, DWORD PTR _attitude$[ebp]
  0009c	b9 04 00 00 00	 mov	 ecx, 4
  000a1	6b d1 00	 imul	 edx, ecx, 0
  000a4	b9 0c 00 00 00	 mov	 ecx, 12			; 0000000cH
  000a9	6b c9 00	 imul	 ecx, ecx, 0
  000ac	8d 4c 0d dc	 lea	 ecx, DWORD PTR _inverse_attitude$[ebp+ecx]
  000b0	be 04 00 00 00	 mov	 esi, 4
  000b5	c1 e6 00	 shl	 esi, 0
  000b8	8b 14 10	 mov	 edx, DWORD PTR [eax+edx]
  000bb	89 14 31	 mov	 DWORD PTR [ecx+esi], edx

; 2138 : 	inverse_attitude[1][1] = attitude[1][1];

  000be	b8 0c 00 00 00	 mov	 eax, 12			; 0000000cH
  000c3	c1 e0 00	 shl	 eax, 0
  000c6	03 45 08	 add	 eax, DWORD PTR _attitude$[ebp]
  000c9	b9 04 00 00 00	 mov	 ecx, 4
  000ce	c1 e1 00	 shl	 ecx, 0
  000d1	ba 0c 00 00 00	 mov	 edx, 12			; 0000000cH
  000d6	c1 e2 00	 shl	 edx, 0
  000d9	8d 54 15 dc	 lea	 edx, DWORD PTR _inverse_attitude$[ebp+edx]
  000dd	be 04 00 00 00	 mov	 esi, 4
  000e2	c1 e6 00	 shl	 esi, 0
  000e5	8b 04 08	 mov	 eax, DWORD PTR [eax+ecx]
  000e8	89 04 32	 mov	 DWORD PTR [edx+esi], eax

; 2139 : 	inverse_attitude[2][1] = attitude[1][2];

  000eb	b8 0c 00 00 00	 mov	 eax, 12			; 0000000cH
  000f0	c1 e0 00	 shl	 eax, 0
  000f3	03 45 08	 add	 eax, DWORD PTR _attitude$[ebp]
  000f6	b9 04 00 00 00	 mov	 ecx, 4
  000fb	d1 e1		 shl	 ecx, 1
  000fd	ba 0c 00 00 00	 mov	 edx, 12			; 0000000cH
  00102	d1 e2		 shl	 edx, 1
  00104	8d 54 15 dc	 lea	 edx, DWORD PTR _inverse_attitude$[ebp+edx]
  00108	be 04 00 00 00	 mov	 esi, 4
  0010d	c1 e6 00	 shl	 esi, 0
  00110	8b 04 08	 mov	 eax, DWORD PTR [eax+ecx]
  00113	89 04 32	 mov	 DWORD PTR [edx+esi], eax

; 2140 : 	inverse_attitude[0][2] = attitude[2][0];

  00116	b8 0c 00 00 00	 mov	 eax, 12			; 0000000cH
  0011b	d1 e0		 shl	 eax, 1
  0011d	03 45 08	 add	 eax, DWORD PTR _attitude$[ebp]
  00120	b9 04 00 00 00	 mov	 ecx, 4
  00125	6b d1 00	 imul	 edx, ecx, 0
  00128	b9 0c 00 00 00	 mov	 ecx, 12			; 0000000cH
  0012d	6b c9 00	 imul	 ecx, ecx, 0
  00130	8d 4c 0d dc	 lea	 ecx, DWORD PTR _inverse_attitude$[ebp+ecx]
  00134	be 04 00 00 00	 mov	 esi, 4
  00139	d1 e6		 shl	 esi, 1
  0013b	8b 14 10	 mov	 edx, DWORD PTR [eax+edx]
  0013e	89 14 31	 mov	 DWORD PTR [ecx+esi], edx

; 2141 : 	inverse_attitude[1][2] = attitude[2][1];

  00141	b8 0c 00 00 00	 mov	 eax, 12			; 0000000cH
  00146	d1 e0		 shl	 eax, 1
  00148	03 45 08	 add	 eax, DWORD PTR _attitude$[ebp]
  0014b	b9 04 00 00 00	 mov	 ecx, 4
  00150	c1 e1 00	 shl	 ecx, 0
  00153	ba 0c 00 00 00	 mov	 edx, 12			; 0000000cH
  00158	c1 e2 00	 shl	 edx, 0
  0015b	8d 54 15 dc	 lea	 edx, DWORD PTR _inverse_attitude$[ebp+edx]
  0015f	be 04 00 00 00	 mov	 esi, 4
  00164	d1 e6		 shl	 esi, 1
  00166	8b 04 08	 mov	 eax, DWORD PTR [eax+ecx]
  00169	89 04 32	 mov	 DWORD PTR [edx+esi], eax

; 2142 : 	inverse_attitude[2][2] = attitude[2][2];

  0016c	b8 0c 00 00 00	 mov	 eax, 12			; 0000000cH
  00171	d1 e0		 shl	 eax, 1
  00173	03 45 08	 add	 eax, DWORD PTR _attitude$[ebp]
  00176	b9 04 00 00 00	 mov	 ecx, 4
  0017b	d1 e1		 shl	 ecx, 1
  0017d	ba 0c 00 00 00	 mov	 edx, 12			; 0000000cH
  00182	d1 e2		 shl	 edx, 1
  00184	8d 54 15 dc	 lea	 edx, DWORD PTR _inverse_attitude$[ebp+edx]
  00188	be 04 00 00 00	 mov	 esi, 4
  0018d	d1 e6		 shl	 esi, 1
  0018f	8b 04 08	 mov	 eax, DWORD PTR [eax+ecx]
  00192	89 04 32	 mov	 DWORD PTR [edx+esi], eax

; 2143 : 
; 2144 : 	//
; 2145 : 	// rotate heading so that the ADI pitch markings face the pilot
; 2146 : 	//
; 2147 : 
; 2148 : 	get_3d_transformation_matrix (heading_rotation, get_heading_from_attitude_matrix (attitude), 0.0, 0.0);

  00195	51		 push	 ecx
  00196	0f 57 c0	 xorps	 xmm0, xmm0
  00199	f3 0f 11 04 24	 movss	 DWORD PTR [esp], xmm0
  0019e	51		 push	 ecx
  0019f	0f 57 c0	 xorps	 xmm0, xmm0
  001a2	f3 0f 11 04 24	 movss	 DWORD PTR [esp], xmm0
  001a7	b8 0c 00 00 00	 mov	 eax, 12			; 0000000cH
  001ac	d1 e0		 shl	 eax, 1
  001ae	03 45 08	 add	 eax, DWORD PTR _attitude$[ebp]
  001b1	b9 04 00 00 00	 mov	 ecx, 4
  001b6	d1 e1		 shl	 ecx, 1
  001b8	51		 push	 ecx
  001b9	f3 0f 10 04 08	 movss	 xmm0, DWORD PTR [eax+ecx]
  001be	f3 0f 11 04 24	 movss	 DWORD PTR [esp], xmm0
  001c3	ba 0c 00 00 00	 mov	 edx, 12			; 0000000cH
  001c8	d1 e2		 shl	 edx, 1
  001ca	03 55 08	 add	 edx, DWORD PTR _attitude$[ebp]
  001cd	b8 04 00 00 00	 mov	 eax, 4
  001d2	6b c8 00	 imul	 ecx, eax, 0
  001d5	51		 push	 ecx
  001d6	f3 0f 10 04 0a	 movss	 xmm0, DWORD PTR [edx+ecx]
  001db	f3 0f 11 04 24	 movss	 DWORD PTR [esp], xmm0
  001e0	e8 00 00 00 00	 call	 ?atan2@@YGMMM@Z		; atan2
  001e5	d9 9d 50 ff ff
	ff		 fstp	 DWORD PTR tv273[ebp]
  001eb	f3 0f 10 85 50
	ff ff ff	 movss	 xmm0, DWORD PTR tv273[ebp]
  001f3	51		 push	 ecx
  001f4	f3 0f 11 04 24	 movss	 DWORD PTR [esp], xmm0
  001f9	8d 55 b8	 lea	 edx, DWORD PTR _heading_rotation$[ebp]
  001fc	52		 push	 edx
  001fd	e8 00 00 00 00	 call	 ?get_3d_transformation_matrix@@YGXQAY02MMMM@Z ; get_3d_transformation_matrix

; 2149 : 
; 2150 : 	multiply_matrix3x3_matrix3x3 (result, heading_rotation, inverse_attitude);

  00202	8d 45 dc	 lea	 eax, DWORD PTR _inverse_attitude$[ebp]
  00205	50		 push	 eax
  00206	8d 4d b8	 lea	 ecx, DWORD PTR _heading_rotation$[ebp]
  00209	51		 push	 ecx
  0020a	8d 55 94	 lea	 edx, DWORD PTR _result$[ebp]
  0020d	52		 push	 edx
  0020e	e8 00 00 00 00	 call	 ?multiply_matrix3x3_matrix3x3@@YGXQAY02MQAY02$$CBM1@Z ; multiply_matrix3x3_matrix3x3

; 2151 : 
; 2152 : 	*heading = get_heading_from_attitude_matrix (result);

  00213	b8 0c 00 00 00	 mov	 eax, 12			; 0000000cH
  00218	d1 e0		 shl	 eax, 1
  0021a	8d 4c 05 94	 lea	 ecx, DWORD PTR _result$[ebp+eax]
  0021e	ba 04 00 00 00	 mov	 edx, 4
  00223	d1 e2		 shl	 edx, 1
  00225	51		 push	 ecx
  00226	f3 0f 10 04 11	 movss	 xmm0, DWORD PTR [ecx+edx]
  0022b	f3 0f 11 04 24	 movss	 DWORD PTR [esp], xmm0
  00230	b8 0c 00 00 00	 mov	 eax, 12			; 0000000cH
  00235	d1 e0		 shl	 eax, 1
  00237	8d 4c 05 94	 lea	 ecx, DWORD PTR _result$[ebp+eax]
  0023b	ba 04 00 00 00	 mov	 edx, 4
  00240	6b c2 00	 imul	 eax, edx, 0
  00243	51		 push	 ecx
  00244	f3 0f 10 04 01	 movss	 xmm0, DWORD PTR [ecx+eax]
  00249	f3 0f 11 04 24	 movss	 DWORD PTR [esp], xmm0
  0024e	e8 00 00 00 00	 call	 ?atan2@@YGMMM@Z		; atan2
  00253	8b 4d 0c	 mov	 ecx, DWORD PTR _heading$[ebp]
  00256	d9 19		 fstp	 DWORD PTR [ecx]

; 2153 : 
; 2154 : 	*pitch = get_pitch_from_attitude_matrix (result);

  00258	b8 0c 00 00 00	 mov	 eax, 12			; 0000000cH
  0025d	d1 e0		 shl	 eax, 1
  0025f	8d 4c 05 94	 lea	 ecx, DWORD PTR _result$[ebp+eax]
  00263	ba 04 00 00 00	 mov	 edx, 4
  00268	c1 e2 00	 shl	 edx, 0
  0026b	51		 push	 ecx
  0026c	f3 0f 10 04 11	 movss	 xmm0, DWORD PTR [ecx+edx]
  00271	f3 0f 11 04 24	 movss	 DWORD PTR [esp], xmm0
  00276	e8 00 00 00 00	 call	 ?asin@@YGMM@Z		; asin
  0027b	8b 45 10	 mov	 eax, DWORD PTR _pitch$[ebp]
  0027e	d9 18		 fstp	 DWORD PTR [eax]

; 2155 : 
; 2156 : 	*roll = get_roll_from_attitude_matrix (result);

  00280	b8 0c 00 00 00	 mov	 eax, 12			; 0000000cH
  00285	c1 e0 00	 shl	 eax, 0
  00288	8d 4c 05 94	 lea	 ecx, DWORD PTR _result$[ebp+eax]
  0028c	ba 04 00 00 00	 mov	 edx, 4
  00291	c1 e2 00	 shl	 edx, 0
  00294	51		 push	 ecx
  00295	f3 0f 10 04 11	 movss	 xmm0, DWORD PTR [ecx+edx]
  0029a	f3 0f 11 04 24	 movss	 DWORD PTR [esp], xmm0
  0029f	b8 0c 00 00 00	 mov	 eax, 12			; 0000000cH
  002a4	6b c8 00	 imul	 ecx, eax, 0
  002a7	8d 54 0d 94	 lea	 edx, DWORD PTR _result$[ebp+ecx]
  002ab	b8 04 00 00 00	 mov	 eax, 4
  002b0	c1 e0 00	 shl	 eax, 0
  002b3	f3 0f 10 04 02	 movss	 xmm0, DWORD PTR [edx+eax]
  002b8	0f 57 05 00 00
	00 00		 xorps	 xmm0, DWORD PTR __xmm@80000000800000008000000080000000
  002bf	51		 push	 ecx
  002c0	f3 0f 11 04 24	 movss	 DWORD PTR [esp], xmm0
  002c5	e8 00 00 00 00	 call	 ?atan2@@YGMMM@Z		; atan2
  002ca	8b 4d 14	 mov	 ecx, DWORD PTR _roll$[ebp]
  002cd	d9 19		 fstp	 DWORD PTR [ecx]

; 2157 : }

  002cf	5f		 pop	 edi
  002d0	5e		 pop	 esi
  002d1	5b		 pop	 ebx
  002d2	8b e5		 mov	 esp, ebp
  002d4	5d		 pop	 ebp
  002d5	c2 10 00	 ret	 16			; 00000010H
?get_havoc_virtual_cockpit_adi_angles@@YGXQAY02MPAM11@Z ENDP ; get_havoc_virtual_cockpit_adi_angles
_TEXT	ENDS
; Function compile flags: /Odtp /ZI
; File c:\users\nhv90\projects\eech\aphavoc\source\gunships\cockpits\havoc\ha_instr.c
;	COMDAT ?draw_havoc_fixed_cockpit_hsi_waypoint_identifier@@YGXW4COCKPIT_PANELS@@@Z
_TEXT	SEGMENT
tv143 = -76						; size = 4
tv135 = -72						; size = 4
tv67 = -72						; size = 4
_wp$ = -4						; size = 4
_panel$ = 8						; size = 4
?draw_havoc_fixed_cockpit_hsi_waypoint_identifier@@YGXW4COCKPIT_PANELS@@@Z PROC ; draw_havoc_fixed_cockpit_hsi_waypoint_identifier, COMDAT

; 2068 : {

  00000	55		 push	 ebp
  00001	8b ec		 mov	 ebp, esp
  00003	83 ec 4c	 sub	 esp, 76			; 0000004cH
  00006	53		 push	 ebx
  00007	56		 push	 esi
  00008	57		 push	 edi

; 2069 : 	entity
; 2070 : 		*wp;
; 2071 : 
; 2072 : 	wp = get_local_entity_current_waypoint (get_gunship_entity ());

  00009	a1 00 00 00 00	 mov	 eax, DWORD PTR ?gunship_entity@@3PAUENTITY@@A ; gunship_entity
  0000e	50		 push	 eax
  0000f	e8 00 00 00 00	 call	 ?get_local_entity_current_waypoint@@YGPAUENTITY@@PAU1@@Z ; get_local_entity_current_waypoint
  00014	89 45 fc	 mov	 DWORD PTR _wp$[ebp], eax

; 2073 : 
; 2074 : 	if (wp)

  00017	83 7d fc 00	 cmp	 DWORD PTR _wp$[ebp], 0
  0001b	0f 84 78 01 00
	00		 je	 $LN2@draw_havoc

; 2075 : 	{
; 2076 : 		switch (panel)

  00021	8b 45 08	 mov	 eax, DWORD PTR _panel$[ebp]
  00024	89 45 b8	 mov	 DWORD PTR tv67[ebp], eax
  00027	83 7d b8 18	 cmp	 DWORD PTR tv67[ebp], 24	; 00000018H
  0002b	74 05		 je	 SHORT $LN5@draw_havoc
  0002d	e9 59 01 00 00	 jmp	 $LN8@draw_havoc
$LN5@draw_havoc:

; 2077 : 		{
; 2078 : 			////////////////////////////////////////
; 2079 : 			case COCKPIT_PANEL_DOWN20_AHEAD:
; 2080 : 			////////////////////////////////////////
; 2081 : 			{
; 2082 : 				set_mono_font_type (MONO_FONT_TYPE_3X6);

  00032	6a 00		 push	 0
  00034	e8 00 00 00 00	 call	 ?set_mono_font_type@@YGXW4MONO_FONT_TYPES@@@Z ; set_mono_font_type

; 2083 : 
; 2084 : 				set_viewport (fx_640_480 + 238.0, fy_640_480 + 384.0, fx_640_480 + 240.999, fy_640_480 + 388.999);

  00039	f3 0f 5a 05 00
	00 00 00	 cvtss2sd xmm0, DWORD PTR ?fy_640_480@@3MA
  00041	f2 0f 58 05 00
	00 00 00	 addsd	 xmm0, QWORD PTR __real@40784ffbe76c8b44
  00049	f2 0f 5a c0	 cvtsd2ss xmm0, xmm0
  0004d	51		 push	 ecx
  0004e	f3 0f 11 04 24	 movss	 DWORD PTR [esp], xmm0
  00053	f3 0f 5a 05 00
	00 00 00	 cvtss2sd xmm0, DWORD PTR ?fx_640_480@@3MA
  0005b	f2 0f 58 05 00
	00 00 00	 addsd	 xmm0, QWORD PTR __real@406e1ff7ced91687
  00063	f2 0f 5a c0	 cvtsd2ss xmm0, xmm0
  00067	51		 push	 ecx
  00068	f3 0f 11 04 24	 movss	 DWORD PTR [esp], xmm0
  0006d	f3 0f 5a 05 00
	00 00 00	 cvtss2sd xmm0, DWORD PTR ?fy_640_480@@3MA
  00075	f2 0f 58 05 00
	00 00 00	 addsd	 xmm0, QWORD PTR __real@4078000000000000
  0007d	f2 0f 5a c0	 cvtsd2ss xmm0, xmm0
  00081	51		 push	 ecx
  00082	f3 0f 11 04 24	 movss	 DWORD PTR [esp], xmm0
  00087	f3 0f 5a 05 00
	00 00 00	 cvtss2sd xmm0, DWORD PTR ?fx_640_480@@3MA
  0008f	f2 0f 58 05 00
	00 00 00	 addsd	 xmm0, QWORD PTR __real@406dc00000000000
  00097	f2 0f 5a c0	 cvtsd2ss xmm0, xmm0
  0009b	51		 push	 ecx
  0009c	f3 0f 11 04 24	 movss	 DWORD PTR [esp], xmm0
  000a1	e8 00 00 00 00	 call	 ?set_viewport@@YGXMMMM@Z ; set_viewport

; 2085 : 
; 2086 : 				set_mono_font_colour (white_digit_colour);

  000a6	a1 00 00 00 00	 mov	 eax, DWORD PTR ?white_digit_colour@@3UREAL_COLOUR@@A
  000ab	50		 push	 eax
  000ac	e8 00 00 00 00	 call	 ?set_mono_font_colour@@YGXUREAL_COLOUR@@@Z ; set_mono_font_colour

; 2087 : 
; 2088 : 				set_mono_font_position (fx_640_480 + 238.0, fy_640_480 + 384.0);

  000b1	f3 0f 5a 05 00
	00 00 00	 cvtss2sd xmm0, DWORD PTR ?fy_640_480@@3MA
  000b9	f2 0f 58 05 00
	00 00 00	 addsd	 xmm0, QWORD PTR __real@4078000000000000
  000c1	f2 0f 5a c0	 cvtsd2ss xmm0, xmm0
  000c5	51		 push	 ecx
  000c6	f3 0f 11 04 24	 movss	 DWORD PTR [esp], xmm0
  000cb	f3 0f 5a 05 00
	00 00 00	 cvtss2sd xmm0, DWORD PTR ?fx_640_480@@3MA
  000d3	f2 0f 58 05 00
	00 00 00	 addsd	 xmm0, QWORD PTR __real@406dc00000000000
  000db	f2 0f 5a c0	 cvtsd2ss xmm0, xmm0
  000df	51		 push	 ecx
  000e0	f3 0f 11 04 24	 movss	 DWORD PTR [esp], xmm0
  000e5	e8 00 00 00 00	 call	 ?set_mono_font_position@@YGXMM@Z ; set_mono_font_position

; 2089 : 
; 2090 : 				if (!havoc_damage.navigation_computer)

  000ea	a1 00 00 00 00	 mov	 eax, DWORD PTR ?havoc_damage@@3THAVOC_DAMAGE_FLAGS@@A ; havoc_damage
  000ef	c1 e8 09	 shr	 eax, 9
  000f2	83 e0 01	 and	 eax, 1
  000f5	0f 85 87 00 00
	00		 jne	 $LN6@draw_havoc

; 2091 : 				{
; 2092 : 					print_mono_font_char (get_local_entity_char_value (wp, CHAR_TYPE_TAG));

  000fb	83 7d fc 00	 cmp	 DWORD PTR _wp$[ebp], 0
  000ff	74 0a		 je	 SHORT $LN10@draw_havoc
  00101	8b 45 fc	 mov	 eax, DWORD PTR _wp$[ebp]
  00104	8b 08		 mov	 ecx, DWORD PTR [eax]
  00106	89 4d b8	 mov	 DWORD PTR tv135[ebp], ecx
  00109	eb 21		 jmp	 SHORT $LN11@draw_havoc
$LN10@draw_havoc:
  0010b	8b 15 00 00 00
	00		 mov	 edx, DWORD PTR ?__LINE__Var@?0??draw_havoc_fixed_cockpit_hsi_waypoint_identifier@@YGXW4COCKPIT_PANELS@@@Z@4JA
  00111	83 c2 18	 add	 edx, 24			; 00000018H
  00114	52		 push	 edx
  00115	68 00 00 00 00	 push	 OFFSET ??_C@_0EP@MNOBCBEH@c?3?2users?2nhv90?2projects?2eech?2ap@
  0011a	a1 00 00 00 00	 mov	 eax, DWORD PTR ?null_entity_pointer_message@@3PBDB ; null_entity_pointer_message
  0011f	50		 push	 eax
  00120	e8 00 00 00 00	 call	 ?process_assert@@YGXPBD0H@Z ; process_assert
  00125	c7 45 b8 00 00
	00 00		 mov	 DWORD PTR tv135[ebp], 0
$LN11@draw_havoc:
  0012c	b9 01 00 00 00	 mov	 ecx, 1
  00131	85 c9		 test	 ecx, ecx
  00133	74 09		 je	 SHORT $LN12@draw_havoc
  00135	c7 45 b4 00 00
	00 00		 mov	 DWORD PTR tv143[ebp], 0
  0013c	eb 21		 jmp	 SHORT $LN13@draw_havoc
$LN12@draw_havoc:
  0013e	8b 15 00 00 00
	00		 mov	 edx, DWORD PTR ?__LINE__Var@?0??draw_havoc_fixed_cockpit_hsi_waypoint_identifier@@YGXW4COCKPIT_PANELS@@@Z@4JA
  00144	83 c2 18	 add	 edx, 24			; 00000018H
  00147	52		 push	 edx
  00148	68 00 00 00 00	 push	 OFFSET ??_C@_0EP@MNOBCBEH@c?3?2users?2nhv90?2projects?2eech?2ap@
  0014d	a1 00 00 00 00	 mov	 eax, DWORD PTR ?overload_invalid_char_type_message@@3PBDB ; overload_invalid_char_type_message
  00152	50		 push	 eax
  00153	e8 00 00 00 00	 call	 ?process_assert@@YGXPBD0H@Z ; process_assert
  00158	c7 45 b4 00 00
	00 00		 mov	 DWORD PTR tv143[ebp], 0
$LN13@draw_havoc:
  0015f	6a 00		 push	 0
  00161	8b 4d fc	 mov	 ecx, DWORD PTR _wp$[ebp]
  00164	51		 push	 ecx
  00165	8b 55 b4	 mov	 edx, DWORD PTR tv143[ebp]
  00168	c1 e2 02	 shl	 edx, 2
  0016b	8b 45 b8	 mov	 eax, DWORD PTR tv135[ebp]
  0016e	8b 8c c2 00 00
	00 00		 mov	 ecx, DWORD PTR ?fn_get_local_entity_char_value@@3PAY01P6GDPAUENTITY@@W4CHAR_TYPES@@@ZA[edx+eax*8]
  00175	ff d1		 call	 ecx
  00177	0f b6 d0	 movzx	 edx, al
  0017a	52		 push	 edx
  0017b	e8 00 00 00 00	 call	 ?print_mono_font_char@@YGXD@Z ; print_mono_font_char

; 2093 : 				}
; 2094 : 				else

  00180	eb 07		 jmp	 SHORT $LN7@draw_havoc
$LN6@draw_havoc:

; 2095 : 				{
; 2096 : 					print_mono_font_char ('A');

  00182	6a 41		 push	 65			; 00000041H
  00184	e8 00 00 00 00	 call	 ?print_mono_font_char@@YGXD@Z ; print_mono_font_char
$LN7@draw_havoc:

; 2097 : 				}
; 2098 : 
; 2099 : 				break;

  00189	eb 0e		 jmp	 SHORT $LN2@draw_havoc
$LN8@draw_havoc:

; 2100 : 			}
; 2101 : 			////////////////////////////////////////
; 2102 : 			default:
; 2103 : 			////////////////////////////////////////
; 2104 : 			{
; 2105 : 				debug_fatal (instrument_error);

  0018b	a1 00 00 00 00	 mov	 eax, DWORD PTR ?instrument_error@@3PBDB
  00190	50		 push	 eax
  00191	e8 00 00 00 00	 call	 ?debug_fatal@@YAXPBDZZ	; debug_fatal
  00196	83 c4 04	 add	 esp, 4
$LN2@draw_havoc:

; 2106 : 
; 2107 : 				break;
; 2108 : 			}
; 2109 : 		}
; 2110 : 	}
; 2111 : }

  00199	5f		 pop	 edi
  0019a	5e		 pop	 esi
  0019b	5b		 pop	 ebx
  0019c	8b e5		 mov	 esp, ebp
  0019e	5d		 pop	 ebp
  0019f	c2 04 00	 ret	 4
?draw_havoc_fixed_cockpit_hsi_waypoint_identifier@@YGXW4COCKPIT_PANELS@@@Z ENDP ; draw_havoc_fixed_cockpit_hsi_waypoint_identifier
_TEXT	ENDS
; Function compile flags: /Odtp /ZI
; File c:\users\nhv90\projects\eech\aphavoc\source\gunships\cockpits\havoc\ha_instr.c
;	COMDAT ?draw_havoc_fixed_cockpit_hsi_waypoint_distance_digits@@YGXW4COCKPIT_PANELS@@@Z
_TEXT	SEGMENT
tv497 = -116						; size = 8
tv84 = -116						; size = 4
tv131 = -112						; size = 4
tv76 = -112						; size = 4
_wp_position$ = -44					; size = 12
_en_position$ = -32					; size = 4
_wp$ = -28						; size = 4
_en$ = -24						; size = 4
_fractional_digit$ = -20				; size = 4
_whole_digit$ = -16					; size = 4
_y$ = -12						; size = 4
_x$ = -8						; size = 4
_distance_digital_value$ = -4				; size = 4
_panel$ = 8						; size = 4
?draw_havoc_fixed_cockpit_hsi_waypoint_distance_digits@@YGXW4COCKPIT_PANELS@@@Z PROC ; draw_havoc_fixed_cockpit_hsi_waypoint_distance_digits, COMDAT

; 1841 : {

  00000	55		 push	 ebp
  00001	8b ec		 mov	 ebp, esp
  00003	83 ec 74	 sub	 esp, 116		; 00000074H
  00006	53		 push	 ebx
  00007	56		 push	 esi
  00008	57		 push	 edi

; 1842 : 	float
; 1843 : 		distance_digital_value,
; 1844 : 		x,
; 1845 : 		y,
; 1846 : 		whole_digit,
; 1847 : 		fractional_digit;
; 1848 : 
; 1849 : 	entity
; 1850 : 		*en,
; 1851 : 		*wp;
; 1852 : 
; 1853 : 	vec3d
; 1854 : 		*en_position,
; 1855 : 		wp_position;
; 1856 : 
; 1857 : 	en = get_gunship_entity ();

  00009	a1 00 00 00 00	 mov	 eax, DWORD PTR ?gunship_entity@@3PAUENTITY@@A ; gunship_entity
  0000e	89 45 e8	 mov	 DWORD PTR _en$[ebp], eax

; 1858 : 
; 1859 : 	wp = get_local_entity_current_waypoint (en);

  00011	8b 45 e8	 mov	 eax, DWORD PTR _en$[ebp]
  00014	50		 push	 eax
  00015	e8 00 00 00 00	 call	 ?get_local_entity_current_waypoint@@YGPAUENTITY@@PAU1@@Z ; get_local_entity_current_waypoint
  0001a	89 45 e4	 mov	 DWORD PTR _wp$[ebp], eax

; 1860 : 
; 1861 : 	distance_digital_value = 0.0;

  0001d	0f 57 c0	 xorps	 xmm0, xmm0
  00020	f3 0f 11 45 fc	 movss	 DWORD PTR _distance_digital_value$[ebp], xmm0

; 1862 : 
; 1863 : 	if ((wp) && (!havoc_damage.navigation_computer))

  00025	83 7d e4 00	 cmp	 DWORD PTR _wp$[ebp], 0
  00029	0f 84 c5 00 00
	00		 je	 $LN4@draw_havoc
  0002f	a1 00 00 00 00	 mov	 eax, DWORD PTR ?havoc_damage@@3THAVOC_DAMAGE_FLAGS@@A ; havoc_damage
  00034	c1 e8 09	 shr	 eax, 9
  00037	83 e0 01	 and	 eax, 1
  0003a	0f 85 b4 00 00
	00		 jne	 $LN4@draw_havoc

; 1864 : 	{
; 1865 : 		en_position = get_local_entity_vec3d_ptr (en, VEC3D_TYPE_POSITION);

  00040	83 7d e8 00	 cmp	 DWORD PTR _en$[ebp], 0
  00044	74 0a		 je	 SHORT $LN20@draw_havoc
  00046	8b 45 e8	 mov	 eax, DWORD PTR _en$[ebp]
  00049	8b 08		 mov	 ecx, DWORD PTR [eax]
  0004b	89 4d 90	 mov	 DWORD PTR tv76[ebp], ecx
  0004e	eb 21		 jmp	 SHORT $LN21@draw_havoc
$LN20@draw_havoc:
  00050	8b 15 00 00 00
	00		 mov	 edx, DWORD PTR ?__LINE__Var@?0??draw_havoc_fixed_cockpit_hsi_waypoint_distance_digits@@YGXW4COCKPIT_PANELS@@@Z@4JA
  00056	83 c2 18	 add	 edx, 24			; 00000018H
  00059	52		 push	 edx
  0005a	68 00 00 00 00	 push	 OFFSET ??_C@_0EP@MNOBCBEH@c?3?2users?2nhv90?2projects?2eech?2ap@
  0005f	a1 00 00 00 00	 mov	 eax, DWORD PTR ?null_entity_pointer_message@@3PBDB ; null_entity_pointer_message
  00064	50		 push	 eax
  00065	e8 00 00 00 00	 call	 ?process_assert@@YGXPBD0H@Z ; process_assert
  0006a	c7 45 90 00 00
	00 00		 mov	 DWORD PTR tv76[ebp], 0
$LN21@draw_havoc:
  00071	b9 01 00 00 00	 mov	 ecx, 1
  00076	85 c9		 test	 ecx, ecx
  00078	74 09		 je	 SHORT $LN22@draw_havoc
  0007a	c7 45 8c 08 00
	00 00		 mov	 DWORD PTR tv84[ebp], 8
  00081	eb 21		 jmp	 SHORT $LN23@draw_havoc
$LN22@draw_havoc:
  00083	8b 15 00 00 00
	00		 mov	 edx, DWORD PTR ?__LINE__Var@?0??draw_havoc_fixed_cockpit_hsi_waypoint_distance_digits@@YGXW4COCKPIT_PANELS@@@Z@4JA
  00089	83 c2 18	 add	 edx, 24			; 00000018H
  0008c	52		 push	 edx
  0008d	68 00 00 00 00	 push	 OFFSET ??_C@_0EP@MNOBCBEH@c?3?2users?2nhv90?2projects?2eech?2ap@
  00092	a1 00 00 00 00	 mov	 eax, DWORD PTR ?overload_invalid_vec3d_type_message@@3PBDB ; overload_invalid_vec3d_type_message
  00097	50		 push	 eax
  00098	e8 00 00 00 00	 call	 ?process_assert@@YGXPBD0H@Z ; process_assert
  0009d	c7 45 8c 00 00
	00 00		 mov	 DWORD PTR tv84[ebp], 0
$LN23@draw_havoc:
  000a4	6a 08		 push	 8
  000a6	8b 4d e8	 mov	 ecx, DWORD PTR _en$[ebp]
  000a9	51		 push	 ecx
  000aa	6b 55 90 60	 imul	 edx, DWORD PTR tv76[ebp], 96
  000ae	8b 45 8c	 mov	 eax, DWORD PTR tv84[ebp]
  000b1	8b 8c 82 00 00
	00 00		 mov	 ecx, DWORD PTR ?fn_get_local_entity_vec3d_ptr@@3PAY0BI@P6GPAUVEC3D@@PAUENTITY@@W4VEC3D_TYPES@@@ZA[edx+eax*4]
  000b8	ff d1		 call	 ecx
  000ba	89 45 e0	 mov	 DWORD PTR _en_position$[ebp], eax

; 1866 : 
; 1867 : 		get_waypoint_display_position (en, wp, &wp_position);

  000bd	8d 45 d4	 lea	 eax, DWORD PTR _wp_position$[ebp]
  000c0	50		 push	 eax
  000c1	8b 4d e4	 mov	 ecx, DWORD PTR _wp$[ebp]
  000c4	51		 push	 ecx
  000c5	8b 55 e8	 mov	 edx, DWORD PTR _en$[ebp]
  000c8	52		 push	 edx
  000c9	e8 00 00 00 00	 call	 ?get_waypoint_display_position@@YGXPAUENTITY@@0PAUVEC3D@@@Z ; get_waypoint_display_position

; 1868 : 
; 1869 : 		distance_digital_value = get_2d_range (en_position, &wp_position) * 0.001;

  000ce	8d 45 d4	 lea	 eax, DWORD PTR _wp_position$[ebp]
  000d1	50		 push	 eax
  000d2	8b 4d e0	 mov	 ecx, DWORD PTR _en_position$[ebp]
  000d5	51		 push	 ecx
  000d6	e8 00 00 00 00	 call	 ?get_2d_range@@YGMPBUVEC3D@@0@Z ; get_2d_range
  000db	dd 5d 8c	 fstp	 QWORD PTR tv497[ebp]
  000de	f2 0f 10 45 8c	 movsd	 xmm0, QWORD PTR tv497[ebp]
  000e3	f2 0f 59 05 00
	00 00 00	 mulsd	 xmm0, QWORD PTR __real@3f50624dd2f1a9fc
  000eb	f2 0f 5a c0	 cvtsd2ss xmm0, xmm0
  000ef	f3 0f 11 45 fc	 movss	 DWORD PTR _distance_digital_value$[ebp], xmm0
$LN4@draw_havoc:

; 1870 : 	}
; 1871 : 
; 1872 : 	switch (panel)

  000f4	8b 45 08	 mov	 eax, DWORD PTR _panel$[ebp]
  000f7	89 45 90	 mov	 DWORD PTR tv131[ebp], eax
  000fa	83 7d 90 18	 cmp	 DWORD PTR tv131[ebp], 24 ; 00000018H
  000fe	74 05		 je	 SHORT $LN5@draw_havoc
  00100	e9 c8 0b 00 00	 jmp	 $LN18@draw_havoc
$LN5@draw_havoc:

; 1873 : 	{
; 1874 : 		////////////////////////////////////////
; 1875 : 		case COCKPIT_PANEL_DOWN20_AHEAD:
; 1876 : 		////////////////////////////////////////
; 1877 : 		{
; 1878 : 			set_mono_font_type (MONO_FONT_TYPE_3X6);

  00105	6a 00		 push	 0
  00107	e8 00 00 00 00	 call	 ?set_mono_font_type@@YGXW4MONO_FONT_TYPES@@@Z ; set_mono_font_type

; 1879 : 
; 1880 : 			set_viewport (fx_640_480 + 179.0, fy_640_480 + 384.0, fx_640_480 + 189.999, fy_640_480 + 388.999);

  0010c	f3 0f 5a 05 00
	00 00 00	 cvtss2sd xmm0, DWORD PTR ?fy_640_480@@3MA
  00114	f2 0f 58 05 00
	00 00 00	 addsd	 xmm0, QWORD PTR __real@40784ffbe76c8b44
  0011c	f2 0f 5a c0	 cvtsd2ss xmm0, xmm0
  00120	51		 push	 ecx
  00121	f3 0f 11 04 24	 movss	 DWORD PTR [esp], xmm0
  00126	f3 0f 5a 05 00
	00 00 00	 cvtss2sd xmm0, DWORD PTR ?fx_640_480@@3MA
  0012e	f2 0f 58 05 00
	00 00 00	 addsd	 xmm0, QWORD PTR __real@4067bff7ced91687
  00136	f2 0f 5a c0	 cvtsd2ss xmm0, xmm0
  0013a	51		 push	 ecx
  0013b	f3 0f 11 04 24	 movss	 DWORD PTR [esp], xmm0
  00140	f3 0f 5a 05 00
	00 00 00	 cvtss2sd xmm0, DWORD PTR ?fy_640_480@@3MA
  00148	f2 0f 58 05 00
	00 00 00	 addsd	 xmm0, QWORD PTR __real@4078000000000000
  00150	f2 0f 5a c0	 cvtsd2ss xmm0, xmm0
  00154	51		 push	 ecx
  00155	f3 0f 11 04 24	 movss	 DWORD PTR [esp], xmm0
  0015a	f3 0f 5a 05 00
	00 00 00	 cvtss2sd xmm0, DWORD PTR ?fx_640_480@@3MA
  00162	f2 0f 58 05 00
	00 00 00	 addsd	 xmm0, QWORD PTR __real@4066600000000000
  0016a	f2 0f 5a c0	 cvtsd2ss xmm0, xmm0
  0016e	51		 push	 ecx
  0016f	f3 0f 11 04 24	 movss	 DWORD PTR [esp], xmm0
  00174	e8 00 00 00 00	 call	 ?set_viewport@@YGXMMMM@Z ; set_viewport

; 1881 : 
; 1882 : 			////////////////////////////////////////
; 1883 : 			//
; 1884 : 			// tenths digit
; 1885 : 			//
; 1886 : 			////////////////////////////////////////
; 1887 : 
; 1888 : 			#define ONE_REV		  				(1.0f)
; 1889 : 			#define ONE_TENTH_REV				((ONE_REV) / 10.0f)
; 1890 : 			#define ONE_OVER_ONE_TENTH_REV	(1.0f / (ONE_TENTH_REV))
; 1891 : 			#define DIGIT_CHANGE_THRESHOLD	(0.01f)
; 1892 : 
; 1893 : 			set_mono_font_colour (yellow_digit_colour);

  00179	a1 00 00 00 00	 mov	 eax, DWORD PTR ?yellow_digit_colour@@3UREAL_COLOUR@@A
  0017e	50		 push	 eax
  0017f	e8 00 00 00 00	 call	 ?set_mono_font_colour@@YGXUREAL_COLOUR@@@Z ; set_mono_font_colour

; 1894 : 
; 1895 : 			x = fx_640_480 + 187.0;

  00184	f3 0f 5a 05 00
	00 00 00	 cvtss2sd xmm0, DWORD PTR ?fx_640_480@@3MA
  0018c	f2 0f 58 05 00
	00 00 00	 addsd	 xmm0, QWORD PTR __real@4067600000000000
  00194	f2 0f 5a c0	 cvtsd2ss xmm0, xmm0
  00198	f3 0f 11 45 f8	 movss	 DWORD PTR _x$[ebp], xmm0

; 1896 : 			y = fy_640_480 + 384.0 + 6.0;

  0019d	f3 0f 5a 05 00
	00 00 00	 cvtss2sd xmm0, DWORD PTR ?fy_640_480@@3MA
  001a5	f2 0f 58 05 00
	00 00 00	 addsd	 xmm0, QWORD PTR __real@4078000000000000
  001ad	f2 0f 58 05 00
	00 00 00	 addsd	 xmm0, QWORD PTR __real@4018000000000000
  001b5	f2 0f 5a c0	 cvtsd2ss xmm0, xmm0
  001b9	f3 0f 11 45 f4	 movss	 DWORD PTR _y$[ebp], xmm0

; 1897 : 
; 1898 : 			whole_digit = fmod (distance_digital_value, ONE_REV);

  001be	51		 push	 ecx
  001bf	f3 0f 10 05 00
	00 00 00	 movss	 xmm0, DWORD PTR __real@3f800000
  001c7	f3 0f 11 04 24	 movss	 DWORD PTR [esp], xmm0
  001cc	51		 push	 ecx
  001cd	f3 0f 10 45 fc	 movss	 xmm0, DWORD PTR _distance_digital_value$[ebp]
  001d2	f3 0f 11 04 24	 movss	 DWORD PTR [esp], xmm0
  001d7	e8 00 00 00 00	 call	 ?fmod@@YGMMM@Z		; fmod
  001dc	d9 5d f0	 fstp	 DWORD PTR _whole_digit$[ebp]

; 1899 : 
; 1900 : 			fractional_digit = fmod (distance_digital_value, ONE_TENTH_REV);

  001df	51		 push	 ecx
  001e0	f3 0f 10 05 00
	00 00 00	 movss	 xmm0, DWORD PTR __real@3dcccccd
  001e8	f3 0f 11 04 24	 movss	 DWORD PTR [esp], xmm0
  001ed	51		 push	 ecx
  001ee	f3 0f 10 45 fc	 movss	 xmm0, DWORD PTR _distance_digital_value$[ebp]
  001f3	f3 0f 11 04 24	 movss	 DWORD PTR [esp], xmm0
  001f8	e8 00 00 00 00	 call	 ?fmod@@YGMMM@Z		; fmod
  001fd	d9 5d ec	 fstp	 DWORD PTR _fractional_digit$[ebp]

; 1901 : 
; 1902 : 			y += (float) ((int) (whole_digit * ONE_OVER_ONE_TENTH_REV)) * 6.0;

  00200	f3 0f 10 45 f0	 movss	 xmm0, DWORD PTR _whole_digit$[ebp]
  00205	f3 0f 59 05 00
	00 00 00	 mulss	 xmm0, DWORD PTR __real@41200000
  0020d	f3 0f 2c c0	 cvttss2si eax, xmm0
  00211	f3 0f 2a c0	 cvtsi2ss xmm0, eax
  00215	f3 0f 5a c0	 cvtss2sd xmm0, xmm0
  00219	f2 0f 59 05 00
	00 00 00	 mulsd	 xmm0, QWORD PTR __real@4018000000000000
  00221	f3 0f 5a 4d f4	 cvtss2sd xmm1, DWORD PTR _y$[ebp]
  00226	f2 0f 58 c8	 addsd	 xmm1, xmm0
  0022a	f2 0f 5a c1	 cvtsd2ss xmm0, xmm1
  0022e	f3 0f 11 45 f4	 movss	 DWORD PTR _y$[ebp], xmm0

; 1903 : 
; 1904 : 			//
; 1905 : 			// rotate digits near change-over point (except at bottom zero)
; 1906 : 			//
; 1907 : 
; 1908 : 			if (distance_digital_value >= DIGIT_CHANGE_THRESHOLD)

  00233	f3 0f 10 45 fc	 movss	 xmm0, DWORD PTR _distance_digital_value$[ebp]
  00238	0f 2f 05 00 00
	00 00		 comiss	 xmm0, DWORD PTR __real@3c23d70a
  0023f	72 74		 jb	 SHORT $LN9@draw_havoc

; 1909 : 			{
; 1910 : 				if (fractional_digit <= DIGIT_CHANGE_THRESHOLD)

  00241	f3 0f 10 05 00
	00 00 00	 movss	 xmm0, DWORD PTR __real@3c23d70a
  00249	0f 2f 45 ec	 comiss	 xmm0, DWORD PTR _fractional_digit$[ebp]
  0024d	72 2d		 jb	 SHORT $LN7@draw_havoc

; 1911 : 				{
; 1912 : 					y += (fractional_digit - DIGIT_CHANGE_THRESHOLD) * (3.0 / DIGIT_CHANGE_THRESHOLD);

  0024f	f3 0f 10 45 ec	 movss	 xmm0, DWORD PTR _fractional_digit$[ebp]
  00254	f3 0f 5c 05 00
	00 00 00	 subss	 xmm0, DWORD PTR __real@3c23d70a
  0025c	f3 0f 5a c0	 cvtss2sd xmm0, xmm0
  00260	f2 0f 59 05 00
	00 00 00	 mulsd	 xmm0, QWORD PTR __real@4072c00007080003
  00268	f3 0f 5a 4d f4	 cvtss2sd xmm1, DWORD PTR _y$[ebp]
  0026d	f2 0f 58 c8	 addsd	 xmm1, xmm0
  00271	f2 0f 5a c1	 cvtsd2ss xmm0, xmm1
  00275	f3 0f 11 45 f4	 movss	 DWORD PTR _y$[ebp], xmm0
  0027a	eb 39		 jmp	 SHORT $LN9@draw_havoc
$LN7@draw_havoc:

; 1913 : 				}
; 1914 : 				else if (fractional_digit >= (ONE_TENTH_REV - DIGIT_CHANGE_THRESHOLD))

  0027c	f3 0f 10 45 ec	 movss	 xmm0, DWORD PTR _fractional_digit$[ebp]
  00281	0f 2f 05 00 00
	00 00		 comiss	 xmm0, DWORD PTR __real@3db851ec
  00288	72 2b		 jb	 SHORT $LN9@draw_havoc

; 1915 : 				{
; 1916 : 					y += (fractional_digit - (ONE_TENTH_REV - DIGIT_CHANGE_THRESHOLD)) * (3.0 / DIGIT_CHANGE_THRESHOLD);

  0028a	f3 0f 10 45 ec	 movss	 xmm0, DWORD PTR _fractional_digit$[ebp]
  0028f	f3 0f 5c 05 00
	00 00 00	 subss	 xmm0, DWORD PTR __real@3db851ec
  00297	f3 0f 5a c0	 cvtss2sd xmm0, xmm0
  0029b	f2 0f 59 05 00
	00 00 00	 mulsd	 xmm0, QWORD PTR __real@4072c00007080003
  002a3	f3 0f 5a 4d f4	 cvtss2sd xmm1, DWORD PTR _y$[ebp]
  002a8	f2 0f 58 c8	 addsd	 xmm1, xmm0
  002ac	f2 0f 5a c1	 cvtsd2ss xmm0, xmm1
  002b0	f3 0f 11 45 f4	 movss	 DWORD PTR _y$[ebp], xmm0
$LN9@draw_havoc:

; 1917 : 				}
; 1918 : 			}
; 1919 : 
; 1920 : 			set_mono_font_position (x, y); print_mono_font_char ('9'); y -= 6.0;

  002b5	51		 push	 ecx
  002b6	f3 0f 10 45 f4	 movss	 xmm0, DWORD PTR _y$[ebp]
  002bb	f3 0f 11 04 24	 movss	 DWORD PTR [esp], xmm0
  002c0	51		 push	 ecx
  002c1	f3 0f 10 45 f8	 movss	 xmm0, DWORD PTR _x$[ebp]
  002c6	f3 0f 11 04 24	 movss	 DWORD PTR [esp], xmm0
  002cb	e8 00 00 00 00	 call	 ?set_mono_font_position@@YGXMM@Z ; set_mono_font_position
  002d0	6a 39		 push	 57			; 00000039H
  002d2	e8 00 00 00 00	 call	 ?print_mono_font_char@@YGXD@Z ; print_mono_font_char
  002d7	f3 0f 5a 45 f4	 cvtss2sd xmm0, DWORD PTR _y$[ebp]
  002dc	f2 0f 5c 05 00
	00 00 00	 subsd	 xmm0, QWORD PTR __real@4018000000000000
  002e4	f2 0f 5a c0	 cvtsd2ss xmm0, xmm0
  002e8	f3 0f 11 45 f4	 movss	 DWORD PTR _y$[ebp], xmm0

; 1921 : 			set_mono_font_position (x, y); print_mono_font_char ('0'); y -= 6.0;

  002ed	51		 push	 ecx
  002ee	f3 0f 10 45 f4	 movss	 xmm0, DWORD PTR _y$[ebp]
  002f3	f3 0f 11 04 24	 movss	 DWORD PTR [esp], xmm0
  002f8	51		 push	 ecx
  002f9	f3 0f 10 45 f8	 movss	 xmm0, DWORD PTR _x$[ebp]
  002fe	f3 0f 11 04 24	 movss	 DWORD PTR [esp], xmm0
  00303	e8 00 00 00 00	 call	 ?set_mono_font_position@@YGXMM@Z ; set_mono_font_position
  00308	6a 30		 push	 48			; 00000030H
  0030a	e8 00 00 00 00	 call	 ?print_mono_font_char@@YGXD@Z ; print_mono_font_char
  0030f	f3 0f 5a 45 f4	 cvtss2sd xmm0, DWORD PTR _y$[ebp]
  00314	f2 0f 5c 05 00
	00 00 00	 subsd	 xmm0, QWORD PTR __real@4018000000000000
  0031c	f2 0f 5a c0	 cvtsd2ss xmm0, xmm0
  00320	f3 0f 11 45 f4	 movss	 DWORD PTR _y$[ebp], xmm0

; 1922 : 			set_mono_font_position (x, y); print_mono_font_char ('1'); y -= 6.0;

  00325	51		 push	 ecx
  00326	f3 0f 10 45 f4	 movss	 xmm0, DWORD PTR _y$[ebp]
  0032b	f3 0f 11 04 24	 movss	 DWORD PTR [esp], xmm0
  00330	51		 push	 ecx
  00331	f3 0f 10 45 f8	 movss	 xmm0, DWORD PTR _x$[ebp]
  00336	f3 0f 11 04 24	 movss	 DWORD PTR [esp], xmm0
  0033b	e8 00 00 00 00	 call	 ?set_mono_font_position@@YGXMM@Z ; set_mono_font_position
  00340	6a 31		 push	 49			; 00000031H
  00342	e8 00 00 00 00	 call	 ?print_mono_font_char@@YGXD@Z ; print_mono_font_char
  00347	f3 0f 5a 45 f4	 cvtss2sd xmm0, DWORD PTR _y$[ebp]
  0034c	f2 0f 5c 05 00
	00 00 00	 subsd	 xmm0, QWORD PTR __real@4018000000000000
  00354	f2 0f 5a c0	 cvtsd2ss xmm0, xmm0
  00358	f3 0f 11 45 f4	 movss	 DWORD PTR _y$[ebp], xmm0

; 1923 : 			set_mono_font_position (x, y); print_mono_font_char ('2'); y -= 6.0;

  0035d	51		 push	 ecx
  0035e	f3 0f 10 45 f4	 movss	 xmm0, DWORD PTR _y$[ebp]
  00363	f3 0f 11 04 24	 movss	 DWORD PTR [esp], xmm0
  00368	51		 push	 ecx
  00369	f3 0f 10 45 f8	 movss	 xmm0, DWORD PTR _x$[ebp]
  0036e	f3 0f 11 04 24	 movss	 DWORD PTR [esp], xmm0
  00373	e8 00 00 00 00	 call	 ?set_mono_font_position@@YGXMM@Z ; set_mono_font_position
  00378	6a 32		 push	 50			; 00000032H
  0037a	e8 00 00 00 00	 call	 ?print_mono_font_char@@YGXD@Z ; print_mono_font_char
  0037f	f3 0f 5a 45 f4	 cvtss2sd xmm0, DWORD PTR _y$[ebp]
  00384	f2 0f 5c 05 00
	00 00 00	 subsd	 xmm0, QWORD PTR __real@4018000000000000
  0038c	f2 0f 5a c0	 cvtsd2ss xmm0, xmm0
  00390	f3 0f 11 45 f4	 movss	 DWORD PTR _y$[ebp], xmm0

; 1924 : 			set_mono_font_position (x, y); print_mono_font_char ('3'); y -= 6.0;

  00395	51		 push	 ecx
  00396	f3 0f 10 45 f4	 movss	 xmm0, DWORD PTR _y$[ebp]
  0039b	f3 0f 11 04 24	 movss	 DWORD PTR [esp], xmm0
  003a0	51		 push	 ecx
  003a1	f3 0f 10 45 f8	 movss	 xmm0, DWORD PTR _x$[ebp]
  003a6	f3 0f 11 04 24	 movss	 DWORD PTR [esp], xmm0
  003ab	e8 00 00 00 00	 call	 ?set_mono_font_position@@YGXMM@Z ; set_mono_font_position
  003b0	6a 33		 push	 51			; 00000033H
  003b2	e8 00 00 00 00	 call	 ?print_mono_font_char@@YGXD@Z ; print_mono_font_char
  003b7	f3 0f 5a 45 f4	 cvtss2sd xmm0, DWORD PTR _y$[ebp]
  003bc	f2 0f 5c 05 00
	00 00 00	 subsd	 xmm0, QWORD PTR __real@4018000000000000
  003c4	f2 0f 5a c0	 cvtsd2ss xmm0, xmm0
  003c8	f3 0f 11 45 f4	 movss	 DWORD PTR _y$[ebp], xmm0

; 1925 : 			set_mono_font_position (x, y); print_mono_font_char ('4'); y -= 6.0;

  003cd	51		 push	 ecx
  003ce	f3 0f 10 45 f4	 movss	 xmm0, DWORD PTR _y$[ebp]
  003d3	f3 0f 11 04 24	 movss	 DWORD PTR [esp], xmm0
  003d8	51		 push	 ecx
  003d9	f3 0f 10 45 f8	 movss	 xmm0, DWORD PTR _x$[ebp]
  003de	f3 0f 11 04 24	 movss	 DWORD PTR [esp], xmm0
  003e3	e8 00 00 00 00	 call	 ?set_mono_font_position@@YGXMM@Z ; set_mono_font_position
  003e8	6a 34		 push	 52			; 00000034H
  003ea	e8 00 00 00 00	 call	 ?print_mono_font_char@@YGXD@Z ; print_mono_font_char
  003ef	f3 0f 5a 45 f4	 cvtss2sd xmm0, DWORD PTR _y$[ebp]
  003f4	f2 0f 5c 05 00
	00 00 00	 subsd	 xmm0, QWORD PTR __real@4018000000000000
  003fc	f2 0f 5a c0	 cvtsd2ss xmm0, xmm0
  00400	f3 0f 11 45 f4	 movss	 DWORD PTR _y$[ebp], xmm0

; 1926 : 			set_mono_font_position (x, y); print_mono_font_char ('5'); y -= 6.0;

  00405	51		 push	 ecx
  00406	f3 0f 10 45 f4	 movss	 xmm0, DWORD PTR _y$[ebp]
  0040b	f3 0f 11 04 24	 movss	 DWORD PTR [esp], xmm0
  00410	51		 push	 ecx
  00411	f3 0f 10 45 f8	 movss	 xmm0, DWORD PTR _x$[ebp]
  00416	f3 0f 11 04 24	 movss	 DWORD PTR [esp], xmm0
  0041b	e8 00 00 00 00	 call	 ?set_mono_font_position@@YGXMM@Z ; set_mono_font_position
  00420	6a 35		 push	 53			; 00000035H
  00422	e8 00 00 00 00	 call	 ?print_mono_font_char@@YGXD@Z ; print_mono_font_char
  00427	f3 0f 5a 45 f4	 cvtss2sd xmm0, DWORD PTR _y$[ebp]
  0042c	f2 0f 5c 05 00
	00 00 00	 subsd	 xmm0, QWORD PTR __real@4018000000000000
  00434	f2 0f 5a c0	 cvtsd2ss xmm0, xmm0
  00438	f3 0f 11 45 f4	 movss	 DWORD PTR _y$[ebp], xmm0

; 1927 : 			set_mono_font_position (x, y); print_mono_font_char ('6'); y -= 6.0;

  0043d	51		 push	 ecx
  0043e	f3 0f 10 45 f4	 movss	 xmm0, DWORD PTR _y$[ebp]
  00443	f3 0f 11 04 24	 movss	 DWORD PTR [esp], xmm0
  00448	51		 push	 ecx
  00449	f3 0f 10 45 f8	 movss	 xmm0, DWORD PTR _x$[ebp]
  0044e	f3 0f 11 04 24	 movss	 DWORD PTR [esp], xmm0
  00453	e8 00 00 00 00	 call	 ?set_mono_font_position@@YGXMM@Z ; set_mono_font_position
  00458	6a 36		 push	 54			; 00000036H
  0045a	e8 00 00 00 00	 call	 ?print_mono_font_char@@YGXD@Z ; print_mono_font_char
  0045f	f3 0f 5a 45 f4	 cvtss2sd xmm0, DWORD PTR _y$[ebp]
  00464	f2 0f 5c 05 00
	00 00 00	 subsd	 xmm0, QWORD PTR __real@4018000000000000
  0046c	f2 0f 5a c0	 cvtsd2ss xmm0, xmm0
  00470	f3 0f 11 45 f4	 movss	 DWORD PTR _y$[ebp], xmm0

; 1928 : 			set_mono_font_position (x, y); print_mono_font_char ('7'); y -= 6.0;

  00475	51		 push	 ecx
  00476	f3 0f 10 45 f4	 movss	 xmm0, DWORD PTR _y$[ebp]
  0047b	f3 0f 11 04 24	 movss	 DWORD PTR [esp], xmm0
  00480	51		 push	 ecx
  00481	f3 0f 10 45 f8	 movss	 xmm0, DWORD PTR _x$[ebp]
  00486	f3 0f 11 04 24	 movss	 DWORD PTR [esp], xmm0
  0048b	e8 00 00 00 00	 call	 ?set_mono_font_position@@YGXMM@Z ; set_mono_font_position
  00490	6a 37		 push	 55			; 00000037H
  00492	e8 00 00 00 00	 call	 ?print_mono_font_char@@YGXD@Z ; print_mono_font_char
  00497	f3 0f 5a 45 f4	 cvtss2sd xmm0, DWORD PTR _y$[ebp]
  0049c	f2 0f 5c 05 00
	00 00 00	 subsd	 xmm0, QWORD PTR __real@4018000000000000
  004a4	f2 0f 5a c0	 cvtsd2ss xmm0, xmm0
  004a8	f3 0f 11 45 f4	 movss	 DWORD PTR _y$[ebp], xmm0

; 1929 : 			set_mono_font_position (x, y); print_mono_font_char ('8'); y -= 6.0;

  004ad	51		 push	 ecx
  004ae	f3 0f 10 45 f4	 movss	 xmm0, DWORD PTR _y$[ebp]
  004b3	f3 0f 11 04 24	 movss	 DWORD PTR [esp], xmm0
  004b8	51		 push	 ecx
  004b9	f3 0f 10 45 f8	 movss	 xmm0, DWORD PTR _x$[ebp]
  004be	f3 0f 11 04 24	 movss	 DWORD PTR [esp], xmm0
  004c3	e8 00 00 00 00	 call	 ?set_mono_font_position@@YGXMM@Z ; set_mono_font_position
  004c8	6a 38		 push	 56			; 00000038H
  004ca	e8 00 00 00 00	 call	 ?print_mono_font_char@@YGXD@Z ; print_mono_font_char
  004cf	f3 0f 5a 45 f4	 cvtss2sd xmm0, DWORD PTR _y$[ebp]
  004d4	f2 0f 5c 05 00
	00 00 00	 subsd	 xmm0, QWORD PTR __real@4018000000000000
  004dc	f2 0f 5a c0	 cvtsd2ss xmm0, xmm0
  004e0	f3 0f 11 45 f4	 movss	 DWORD PTR _y$[ebp], xmm0

; 1930 : 			set_mono_font_position (x, y); print_mono_font_char ('9'); y -= 6.0;

  004e5	51		 push	 ecx
  004e6	f3 0f 10 45 f4	 movss	 xmm0, DWORD PTR _y$[ebp]
  004eb	f3 0f 11 04 24	 movss	 DWORD PTR [esp], xmm0
  004f0	51		 push	 ecx
  004f1	f3 0f 10 45 f8	 movss	 xmm0, DWORD PTR _x$[ebp]
  004f6	f3 0f 11 04 24	 movss	 DWORD PTR [esp], xmm0
  004fb	e8 00 00 00 00	 call	 ?set_mono_font_position@@YGXMM@Z ; set_mono_font_position
  00500	6a 39		 push	 57			; 00000039H
  00502	e8 00 00 00 00	 call	 ?print_mono_font_char@@YGXD@Z ; print_mono_font_char
  00507	f3 0f 5a 45 f4	 cvtss2sd xmm0, DWORD PTR _y$[ebp]
  0050c	f2 0f 5c 05 00
	00 00 00	 subsd	 xmm0, QWORD PTR __real@4018000000000000
  00514	f2 0f 5a c0	 cvtsd2ss xmm0, xmm0
  00518	f3 0f 11 45 f4	 movss	 DWORD PTR _y$[ebp], xmm0

; 1931 : 			set_mono_font_position (x, y); print_mono_font_char ('0');

  0051d	51		 push	 ecx
  0051e	f3 0f 10 45 f4	 movss	 xmm0, DWORD PTR _y$[ebp]
  00523	f3 0f 11 04 24	 movss	 DWORD PTR [esp], xmm0
  00528	51		 push	 ecx
  00529	f3 0f 10 45 f8	 movss	 xmm0, DWORD PTR _x$[ebp]
  0052e	f3 0f 11 04 24	 movss	 DWORD PTR [esp], xmm0
  00533	e8 00 00 00 00	 call	 ?set_mono_font_position@@YGXMM@Z ; set_mono_font_position
  00538	6a 30		 push	 48			; 00000030H
  0053a	e8 00 00 00 00	 call	 ?print_mono_font_char@@YGXD@Z ; print_mono_font_char

; 1932 : 
; 1933 : 			#undef ONE_REV
; 1934 : 			#undef ONE_TENTH_REV
; 1935 : 			#undef ONE_OVER_ONE_TENTH_REV
; 1936 : 			#undef DIGIT_CHANGE_THRESHOLD
; 1937 : 
; 1938 : 			////////////////////////////////////////
; 1939 : 			//
; 1940 : 			// units digit
; 1941 : 			//
; 1942 : 			////////////////////////////////////////
; 1943 : 
; 1944 : 			#define ONE_REV		  				(10.0f)
; 1945 : 			#define ONE_TENTH_REV				((ONE_REV) / 10.0f)
; 1946 : 			#define ONE_OVER_ONE_TENTH_REV	(1.0f / (ONE_TENTH_REV))
; 1947 : 			#define DIGIT_CHANGE_THRESHOLD	(0.01f)
; 1948 : 
; 1949 : 			set_mono_font_colour (white_digit_colour);

  0053f	a1 00 00 00 00	 mov	 eax, DWORD PTR ?white_digit_colour@@3UREAL_COLOUR@@A
  00544	50		 push	 eax
  00545	e8 00 00 00 00	 call	 ?set_mono_font_colour@@YGXUREAL_COLOUR@@@Z ; set_mono_font_colour

; 1950 : 
; 1951 : 			x = fx_640_480 + 183.0;

  0054a	f3 0f 5a 05 00
	00 00 00	 cvtss2sd xmm0, DWORD PTR ?fx_640_480@@3MA
  00552	f2 0f 58 05 00
	00 00 00	 addsd	 xmm0, QWORD PTR __real@4066e00000000000
  0055a	f2 0f 5a c0	 cvtsd2ss xmm0, xmm0
  0055e	f3 0f 11 45 f8	 movss	 DWORD PTR _x$[ebp], xmm0

; 1952 : 			y = fy_640_480 + 384.0 + 6.0;

  00563	f3 0f 5a 05 00
	00 00 00	 cvtss2sd xmm0, DWORD PTR ?fy_640_480@@3MA
  0056b	f2 0f 58 05 00
	00 00 00	 addsd	 xmm0, QWORD PTR __real@4078000000000000
  00573	f2 0f 58 05 00
	00 00 00	 addsd	 xmm0, QWORD PTR __real@4018000000000000
  0057b	f2 0f 5a c0	 cvtsd2ss xmm0, xmm0
  0057f	f3 0f 11 45 f4	 movss	 DWORD PTR _y$[ebp], xmm0

; 1953 : 
; 1954 : 			whole_digit = fmod (distance_digital_value, ONE_REV);

  00584	51		 push	 ecx
  00585	f3 0f 10 05 00
	00 00 00	 movss	 xmm0, DWORD PTR __real@41200000
  0058d	f3 0f 11 04 24	 movss	 DWORD PTR [esp], xmm0
  00592	51		 push	 ecx
  00593	f3 0f 10 45 fc	 movss	 xmm0, DWORD PTR _distance_digital_value$[ebp]
  00598	f3 0f 11 04 24	 movss	 DWORD PTR [esp], xmm0
  0059d	e8 00 00 00 00	 call	 ?fmod@@YGMMM@Z		; fmod
  005a2	d9 5d f0	 fstp	 DWORD PTR _whole_digit$[ebp]

; 1955 : 
; 1956 : 			fractional_digit = fmod (distance_digital_value, ONE_TENTH_REV);

  005a5	51		 push	 ecx
  005a6	f3 0f 10 05 00
	00 00 00	 movss	 xmm0, DWORD PTR __real@3f800000
  005ae	f3 0f 11 04 24	 movss	 DWORD PTR [esp], xmm0
  005b3	51		 push	 ecx
  005b4	f3 0f 10 45 fc	 movss	 xmm0, DWORD PTR _distance_digital_value$[ebp]
  005b9	f3 0f 11 04 24	 movss	 DWORD PTR [esp], xmm0
  005be	e8 00 00 00 00	 call	 ?fmod@@YGMMM@Z		; fmod
  005c3	d9 5d ec	 fstp	 DWORD PTR _fractional_digit$[ebp]

; 1957 : 
; 1958 : 			y += (float) ((int) (whole_digit * ONE_OVER_ONE_TENTH_REV)) * 6.0;

  005c6	f3 0f 10 45 f0	 movss	 xmm0, DWORD PTR _whole_digit$[ebp]
  005cb	f3 0f 59 05 00
	00 00 00	 mulss	 xmm0, DWORD PTR __real@3f800000
  005d3	f3 0f 2c c0	 cvttss2si eax, xmm0
  005d7	f3 0f 2a c0	 cvtsi2ss xmm0, eax
  005db	f3 0f 5a c0	 cvtss2sd xmm0, xmm0
  005df	f2 0f 59 05 00
	00 00 00	 mulsd	 xmm0, QWORD PTR __real@4018000000000000
  005e7	f3 0f 5a 4d f4	 cvtss2sd xmm1, DWORD PTR _y$[ebp]
  005ec	f2 0f 58 c8	 addsd	 xmm1, xmm0
  005f0	f2 0f 5a c1	 cvtsd2ss xmm0, xmm1
  005f4	f3 0f 11 45 f4	 movss	 DWORD PTR _y$[ebp], xmm0

; 1959 : 
; 1960 : 			//
; 1961 : 			// rotate digits near change-over point (except at bottom zero)
; 1962 : 			//
; 1963 : 
; 1964 : 			if (distance_digital_value >= DIGIT_CHANGE_THRESHOLD)

  005f9	f3 0f 10 45 fc	 movss	 xmm0, DWORD PTR _distance_digital_value$[ebp]
  005fe	0f 2f 05 00 00
	00 00		 comiss	 xmm0, DWORD PTR __real@3c23d70a
  00605	72 74		 jb	 SHORT $LN13@draw_havoc

; 1965 : 			{
; 1966 : 				if (fractional_digit <= DIGIT_CHANGE_THRESHOLD)

  00607	f3 0f 10 05 00
	00 00 00	 movss	 xmm0, DWORD PTR __real@3c23d70a
  0060f	0f 2f 45 ec	 comiss	 xmm0, DWORD PTR _fractional_digit$[ebp]
  00613	72 2d		 jb	 SHORT $LN11@draw_havoc

; 1967 : 				{
; 1968 : 					y += (fractional_digit - DIGIT_CHANGE_THRESHOLD) * (3.0 / DIGIT_CHANGE_THRESHOLD);

  00615	f3 0f 10 45 ec	 movss	 xmm0, DWORD PTR _fractional_digit$[ebp]
  0061a	f3 0f 5c 05 00
	00 00 00	 subss	 xmm0, DWORD PTR __real@3c23d70a
  00622	f3 0f 5a c0	 cvtss2sd xmm0, xmm0
  00626	f2 0f 59 05 00
	00 00 00	 mulsd	 xmm0, QWORD PTR __real@4072c00007080003
  0062e	f3 0f 5a 4d f4	 cvtss2sd xmm1, DWORD PTR _y$[ebp]
  00633	f2 0f 58 c8	 addsd	 xmm1, xmm0
  00637	f2 0f 5a c1	 cvtsd2ss xmm0, xmm1
  0063b	f3 0f 11 45 f4	 movss	 DWORD PTR _y$[ebp], xmm0
  00640	eb 39		 jmp	 SHORT $LN13@draw_havoc
$LN11@draw_havoc:

; 1969 : 				}
; 1970 : 				else if (fractional_digit >= (ONE_TENTH_REV - DIGIT_CHANGE_THRESHOLD))

  00642	f3 0f 10 45 ec	 movss	 xmm0, DWORD PTR _fractional_digit$[ebp]
  00647	0f 2f 05 00 00
	00 00		 comiss	 xmm0, DWORD PTR __real@3f7d70a4
  0064e	72 2b		 jb	 SHORT $LN13@draw_havoc

; 1971 : 				{
; 1972 : 					y += (fractional_digit - (ONE_TENTH_REV - DIGIT_CHANGE_THRESHOLD)) * (3.0 / DIGIT_CHANGE_THRESHOLD);

  00650	f3 0f 10 45 ec	 movss	 xmm0, DWORD PTR _fractional_digit$[ebp]
  00655	f3 0f 5c 05 00
	00 00 00	 subss	 xmm0, DWORD PTR __real@3f7d70a4
  0065d	f3 0f 5a c0	 cvtss2sd xmm0, xmm0
  00661	f2 0f 59 05 00
	00 00 00	 mulsd	 xmm0, QWORD PTR __real@4072c00007080003
  00669	f3 0f 5a 4d f4	 cvtss2sd xmm1, DWORD PTR _y$[ebp]
  0066e	f2 0f 58 c8	 addsd	 xmm1, xmm0
  00672	f2 0f 5a c1	 cvtsd2ss xmm0, xmm1
  00676	f3 0f 11 45 f4	 movss	 DWORD PTR _y$[ebp], xmm0
$LN13@draw_havoc:

; 1973 : 				}
; 1974 : 			}
; 1975 : 
; 1976 : 			set_mono_font_position (x, y); print_mono_font_char ('9'); y -= 6.0;

  0067b	51		 push	 ecx
  0067c	f3 0f 10 45 f4	 movss	 xmm0, DWORD PTR _y$[ebp]
  00681	f3 0f 11 04 24	 movss	 DWORD PTR [esp], xmm0
  00686	51		 push	 ecx
  00687	f3 0f 10 45 f8	 movss	 xmm0, DWORD PTR _x$[ebp]
  0068c	f3 0f 11 04 24	 movss	 DWORD PTR [esp], xmm0
  00691	e8 00 00 00 00	 call	 ?set_mono_font_position@@YGXMM@Z ; set_mono_font_position
  00696	6a 39		 push	 57			; 00000039H
  00698	e8 00 00 00 00	 call	 ?print_mono_font_char@@YGXD@Z ; print_mono_font_char
  0069d	f3 0f 5a 45 f4	 cvtss2sd xmm0, DWORD PTR _y$[ebp]
  006a2	f2 0f 5c 05 00
	00 00 00	 subsd	 xmm0, QWORD PTR __real@4018000000000000
  006aa	f2 0f 5a c0	 cvtsd2ss xmm0, xmm0
  006ae	f3 0f 11 45 f4	 movss	 DWORD PTR _y$[ebp], xmm0

; 1977 : 			set_mono_font_position (x, y); print_mono_font_char ('0'); y -= 6.0;

  006b3	51		 push	 ecx
  006b4	f3 0f 10 45 f4	 movss	 xmm0, DWORD PTR _y$[ebp]
  006b9	f3 0f 11 04 24	 movss	 DWORD PTR [esp], xmm0
  006be	51		 push	 ecx
  006bf	f3 0f 10 45 f8	 movss	 xmm0, DWORD PTR _x$[ebp]
  006c4	f3 0f 11 04 24	 movss	 DWORD PTR [esp], xmm0
  006c9	e8 00 00 00 00	 call	 ?set_mono_font_position@@YGXMM@Z ; set_mono_font_position
  006ce	6a 30		 push	 48			; 00000030H
  006d0	e8 00 00 00 00	 call	 ?print_mono_font_char@@YGXD@Z ; print_mono_font_char
  006d5	f3 0f 5a 45 f4	 cvtss2sd xmm0, DWORD PTR _y$[ebp]
  006da	f2 0f 5c 05 00
	00 00 00	 subsd	 xmm0, QWORD PTR __real@4018000000000000
  006e2	f2 0f 5a c0	 cvtsd2ss xmm0, xmm0
  006e6	f3 0f 11 45 f4	 movss	 DWORD PTR _y$[ebp], xmm0

; 1978 : 			set_mono_font_position (x, y); print_mono_font_char ('1'); y -= 6.0;

  006eb	51		 push	 ecx
  006ec	f3 0f 10 45 f4	 movss	 xmm0, DWORD PTR _y$[ebp]
  006f1	f3 0f 11 04 24	 movss	 DWORD PTR [esp], xmm0
  006f6	51		 push	 ecx
  006f7	f3 0f 10 45 f8	 movss	 xmm0, DWORD PTR _x$[ebp]
  006fc	f3 0f 11 04 24	 movss	 DWORD PTR [esp], xmm0
  00701	e8 00 00 00 00	 call	 ?set_mono_font_position@@YGXMM@Z ; set_mono_font_position
  00706	6a 31		 push	 49			; 00000031H
  00708	e8 00 00 00 00	 call	 ?print_mono_font_char@@YGXD@Z ; print_mono_font_char
  0070d	f3 0f 5a 45 f4	 cvtss2sd xmm0, DWORD PTR _y$[ebp]
  00712	f2 0f 5c 05 00
	00 00 00	 subsd	 xmm0, QWORD PTR __real@4018000000000000
  0071a	f2 0f 5a c0	 cvtsd2ss xmm0, xmm0
  0071e	f3 0f 11 45 f4	 movss	 DWORD PTR _y$[ebp], xmm0

; 1979 : 			set_mono_font_position (x, y); print_mono_font_char ('2'); y -= 6.0;

  00723	51		 push	 ecx
  00724	f3 0f 10 45 f4	 movss	 xmm0, DWORD PTR _y$[ebp]
  00729	f3 0f 11 04 24	 movss	 DWORD PTR [esp], xmm0
  0072e	51		 push	 ecx
  0072f	f3 0f 10 45 f8	 movss	 xmm0, DWORD PTR _x$[ebp]
  00734	f3 0f 11 04 24	 movss	 DWORD PTR [esp], xmm0
  00739	e8 00 00 00 00	 call	 ?set_mono_font_position@@YGXMM@Z ; set_mono_font_position
  0073e	6a 32		 push	 50			; 00000032H
  00740	e8 00 00 00 00	 call	 ?print_mono_font_char@@YGXD@Z ; print_mono_font_char
  00745	f3 0f 5a 45 f4	 cvtss2sd xmm0, DWORD PTR _y$[ebp]
  0074a	f2 0f 5c 05 00
	00 00 00	 subsd	 xmm0, QWORD PTR __real@4018000000000000
  00752	f2 0f 5a c0	 cvtsd2ss xmm0, xmm0
  00756	f3 0f 11 45 f4	 movss	 DWORD PTR _y$[ebp], xmm0

; 1980 : 			set_mono_font_position (x, y); print_mono_font_char ('3'); y -= 6.0;

  0075b	51		 push	 ecx
  0075c	f3 0f 10 45 f4	 movss	 xmm0, DWORD PTR _y$[ebp]
  00761	f3 0f 11 04 24	 movss	 DWORD PTR [esp], xmm0
  00766	51		 push	 ecx
  00767	f3 0f 10 45 f8	 movss	 xmm0, DWORD PTR _x$[ebp]
  0076c	f3 0f 11 04 24	 movss	 DWORD PTR [esp], xmm0
  00771	e8 00 00 00 00	 call	 ?set_mono_font_position@@YGXMM@Z ; set_mono_font_position
  00776	6a 33		 push	 51			; 00000033H
  00778	e8 00 00 00 00	 call	 ?print_mono_font_char@@YGXD@Z ; print_mono_font_char
  0077d	f3 0f 5a 45 f4	 cvtss2sd xmm0, DWORD PTR _y$[ebp]
  00782	f2 0f 5c 05 00
	00 00 00	 subsd	 xmm0, QWORD PTR __real@4018000000000000
  0078a	f2 0f 5a c0	 cvtsd2ss xmm0, xmm0
  0078e	f3 0f 11 45 f4	 movss	 DWORD PTR _y$[ebp], xmm0

; 1981 : 			set_mono_font_position (x, y); print_mono_font_char ('4'); y -= 6.0;

  00793	51		 push	 ecx
  00794	f3 0f 10 45 f4	 movss	 xmm0, DWORD PTR _y$[ebp]
  00799	f3 0f 11 04 24	 movss	 DWORD PTR [esp], xmm0
  0079e	51		 push	 ecx
  0079f	f3 0f 10 45 f8	 movss	 xmm0, DWORD PTR _x$[ebp]
  007a4	f3 0f 11 04 24	 movss	 DWORD PTR [esp], xmm0
  007a9	e8 00 00 00 00	 call	 ?set_mono_font_position@@YGXMM@Z ; set_mono_font_position
  007ae	6a 34		 push	 52			; 00000034H
  007b0	e8 00 00 00 00	 call	 ?print_mono_font_char@@YGXD@Z ; print_mono_font_char
  007b5	f3 0f 5a 45 f4	 cvtss2sd xmm0, DWORD PTR _y$[ebp]
  007ba	f2 0f 5c 05 00
	00 00 00	 subsd	 xmm0, QWORD PTR __real@4018000000000000
  007c2	f2 0f 5a c0	 cvtsd2ss xmm0, xmm0
  007c6	f3 0f 11 45 f4	 movss	 DWORD PTR _y$[ebp], xmm0

; 1982 : 			set_mono_font_position (x, y); print_mono_font_char ('5'); y -= 6.0;

  007cb	51		 push	 ecx
  007cc	f3 0f 10 45 f4	 movss	 xmm0, DWORD PTR _y$[ebp]
  007d1	f3 0f 11 04 24	 movss	 DWORD PTR [esp], xmm0
  007d6	51		 push	 ecx
  007d7	f3 0f 10 45 f8	 movss	 xmm0, DWORD PTR _x$[ebp]
  007dc	f3 0f 11 04 24	 movss	 DWORD PTR [esp], xmm0
  007e1	e8 00 00 00 00	 call	 ?set_mono_font_position@@YGXMM@Z ; set_mono_font_position
  007e6	6a 35		 push	 53			; 00000035H
  007e8	e8 00 00 00 00	 call	 ?print_mono_font_char@@YGXD@Z ; print_mono_font_char
  007ed	f3 0f 5a 45 f4	 cvtss2sd xmm0, DWORD PTR _y$[ebp]
  007f2	f2 0f 5c 05 00
	00 00 00	 subsd	 xmm0, QWORD PTR __real@4018000000000000
  007fa	f2 0f 5a c0	 cvtsd2ss xmm0, xmm0
  007fe	f3 0f 11 45 f4	 movss	 DWORD PTR _y$[ebp], xmm0

; 1983 : 			set_mono_font_position (x, y); print_mono_font_char ('6'); y -= 6.0;

  00803	51		 push	 ecx
  00804	f3 0f 10 45 f4	 movss	 xmm0, DWORD PTR _y$[ebp]
  00809	f3 0f 11 04 24	 movss	 DWORD PTR [esp], xmm0
  0080e	51		 push	 ecx
  0080f	f3 0f 10 45 f8	 movss	 xmm0, DWORD PTR _x$[ebp]
  00814	f3 0f 11 04 24	 movss	 DWORD PTR [esp], xmm0
  00819	e8 00 00 00 00	 call	 ?set_mono_font_position@@YGXMM@Z ; set_mono_font_position
  0081e	6a 36		 push	 54			; 00000036H
  00820	e8 00 00 00 00	 call	 ?print_mono_font_char@@YGXD@Z ; print_mono_font_char
  00825	f3 0f 5a 45 f4	 cvtss2sd xmm0, DWORD PTR _y$[ebp]
  0082a	f2 0f 5c 05 00
	00 00 00	 subsd	 xmm0, QWORD PTR __real@4018000000000000
  00832	f2 0f 5a c0	 cvtsd2ss xmm0, xmm0
  00836	f3 0f 11 45 f4	 movss	 DWORD PTR _y$[ebp], xmm0

; 1984 : 			set_mono_font_position (x, y); print_mono_font_char ('7'); y -= 6.0;

  0083b	51		 push	 ecx
  0083c	f3 0f 10 45 f4	 movss	 xmm0, DWORD PTR _y$[ebp]
  00841	f3 0f 11 04 24	 movss	 DWORD PTR [esp], xmm0
  00846	51		 push	 ecx
  00847	f3 0f 10 45 f8	 movss	 xmm0, DWORD PTR _x$[ebp]
  0084c	f3 0f 11 04 24	 movss	 DWORD PTR [esp], xmm0
  00851	e8 00 00 00 00	 call	 ?set_mono_font_position@@YGXMM@Z ; set_mono_font_position
  00856	6a 37		 push	 55			; 00000037H
  00858	e8 00 00 00 00	 call	 ?print_mono_font_char@@YGXD@Z ; print_mono_font_char
  0085d	f3 0f 5a 45 f4	 cvtss2sd xmm0, DWORD PTR _y$[ebp]
  00862	f2 0f 5c 05 00
	00 00 00	 subsd	 xmm0, QWORD PTR __real@4018000000000000
  0086a	f2 0f 5a c0	 cvtsd2ss xmm0, xmm0
  0086e	f3 0f 11 45 f4	 movss	 DWORD PTR _y$[ebp], xmm0

; 1985 : 			set_mono_font_position (x, y); print_mono_font_char ('8'); y -= 6.0;

  00873	51		 push	 ecx
  00874	f3 0f 10 45 f4	 movss	 xmm0, DWORD PTR _y$[ebp]
  00879	f3 0f 11 04 24	 movss	 DWORD PTR [esp], xmm0
  0087e	51		 push	 ecx
  0087f	f3 0f 10 45 f8	 movss	 xmm0, DWORD PTR _x$[ebp]
  00884	f3 0f 11 04 24	 movss	 DWORD PTR [esp], xmm0
  00889	e8 00 00 00 00	 call	 ?set_mono_font_position@@YGXMM@Z ; set_mono_font_position
  0088e	6a 38		 push	 56			; 00000038H
  00890	e8 00 00 00 00	 call	 ?print_mono_font_char@@YGXD@Z ; print_mono_font_char
  00895	f3 0f 5a 45 f4	 cvtss2sd xmm0, DWORD PTR _y$[ebp]
  0089a	f2 0f 5c 05 00
	00 00 00	 subsd	 xmm0, QWORD PTR __real@4018000000000000
  008a2	f2 0f 5a c0	 cvtsd2ss xmm0, xmm0
  008a6	f3 0f 11 45 f4	 movss	 DWORD PTR _y$[ebp], xmm0

; 1986 : 			set_mono_font_position (x, y); print_mono_font_char ('9'); y -= 6.0;

  008ab	51		 push	 ecx
  008ac	f3 0f 10 45 f4	 movss	 xmm0, DWORD PTR _y$[ebp]
  008b1	f3 0f 11 04 24	 movss	 DWORD PTR [esp], xmm0
  008b6	51		 push	 ecx
  008b7	f3 0f 10 45 f8	 movss	 xmm0, DWORD PTR _x$[ebp]
  008bc	f3 0f 11 04 24	 movss	 DWORD PTR [esp], xmm0
  008c1	e8 00 00 00 00	 call	 ?set_mono_font_position@@YGXMM@Z ; set_mono_font_position
  008c6	6a 39		 push	 57			; 00000039H
  008c8	e8 00 00 00 00	 call	 ?print_mono_font_char@@YGXD@Z ; print_mono_font_char
  008cd	f3 0f 5a 45 f4	 cvtss2sd xmm0, DWORD PTR _y$[ebp]
  008d2	f2 0f 5c 05 00
	00 00 00	 subsd	 xmm0, QWORD PTR __real@4018000000000000
  008da	f2 0f 5a c0	 cvtsd2ss xmm0, xmm0
  008de	f3 0f 11 45 f4	 movss	 DWORD PTR _y$[ebp], xmm0

; 1987 : 			set_mono_font_position (x, y); print_mono_font_char ('0');

  008e3	51		 push	 ecx
  008e4	f3 0f 10 45 f4	 movss	 xmm0, DWORD PTR _y$[ebp]
  008e9	f3 0f 11 04 24	 movss	 DWORD PTR [esp], xmm0
  008ee	51		 push	 ecx
  008ef	f3 0f 10 45 f8	 movss	 xmm0, DWORD PTR _x$[ebp]
  008f4	f3 0f 11 04 24	 movss	 DWORD PTR [esp], xmm0
  008f9	e8 00 00 00 00	 call	 ?set_mono_font_position@@YGXMM@Z ; set_mono_font_position
  008fe	6a 30		 push	 48			; 00000030H
  00900	e8 00 00 00 00	 call	 ?print_mono_font_char@@YGXD@Z ; print_mono_font_char

; 1988 : 
; 1989 : 			#undef ONE_REV
; 1990 : 			#undef ONE_TENTH_REV
; 1991 : 			#undef ONE_OVER_ONE_TENTH_REV
; 1992 : 			#undef DIGIT_CHANGE_THRESHOLD
; 1993 : 
; 1994 : 			////////////////////////////////////////
; 1995 : 			//
; 1996 : 			// tens digit
; 1997 : 			//
; 1998 : 			////////////////////////////////////////
; 1999 : 
; 2000 : 			#define ONE_REV		  				(100.0f)
; 2001 : 			#define ONE_TENTH_REV				((ONE_REV) / 10.0f)
; 2002 : 			#define ONE_OVER_ONE_TENTH_REV	(1.0f / (ONE_TENTH_REV))
; 2003 : 			#define DIGIT_CHANGE_THRESHOLD	(0.01f)
; 2004 : 
; 2005 : 			set_mono_font_colour (white_digit_colour);

  00905	a1 00 00 00 00	 mov	 eax, DWORD PTR ?white_digit_colour@@3UREAL_COLOUR@@A
  0090a	50		 push	 eax
  0090b	e8 00 00 00 00	 call	 ?set_mono_font_colour@@YGXUREAL_COLOUR@@@Z ; set_mono_font_colour

; 2006 : 
; 2007 : 			x = fx_640_480 + 179.0;

  00910	f3 0f 5a 05 00
	00 00 00	 cvtss2sd xmm0, DWORD PTR ?fx_640_480@@3MA
  00918	f2 0f 58 05 00
	00 00 00	 addsd	 xmm0, QWORD PTR __real@4066600000000000
  00920	f2 0f 5a c0	 cvtsd2ss xmm0, xmm0
  00924	f3 0f 11 45 f8	 movss	 DWORD PTR _x$[ebp], xmm0

; 2008 : 			y = fy_640_480 + 384.0 + 6.0;

  00929	f3 0f 5a 05 00
	00 00 00	 cvtss2sd xmm0, DWORD PTR ?fy_640_480@@3MA
  00931	f2 0f 58 05 00
	00 00 00	 addsd	 xmm0, QWORD PTR __real@4078000000000000
  00939	f2 0f 58 05 00
	00 00 00	 addsd	 xmm0, QWORD PTR __real@4018000000000000
  00941	f2 0f 5a c0	 cvtsd2ss xmm0, xmm0
  00945	f3 0f 11 45 f4	 movss	 DWORD PTR _y$[ebp], xmm0

; 2009 : 
; 2010 : 			whole_digit = fmod (distance_digital_value, ONE_REV);

  0094a	51		 push	 ecx
  0094b	f3 0f 10 05 00
	00 00 00	 movss	 xmm0, DWORD PTR __real@42c80000
  00953	f3 0f 11 04 24	 movss	 DWORD PTR [esp], xmm0
  00958	51		 push	 ecx
  00959	f3 0f 10 45 fc	 movss	 xmm0, DWORD PTR _distance_digital_value$[ebp]
  0095e	f3 0f 11 04 24	 movss	 DWORD PTR [esp], xmm0
  00963	e8 00 00 00 00	 call	 ?fmod@@YGMMM@Z		; fmod
  00968	d9 5d f0	 fstp	 DWORD PTR _whole_digit$[ebp]

; 2011 : 
; 2012 : 			fractional_digit = fmod (distance_digital_value, ONE_TENTH_REV);

  0096b	51		 push	 ecx
  0096c	f3 0f 10 05 00
	00 00 00	 movss	 xmm0, DWORD PTR __real@41200000
  00974	f3 0f 11 04 24	 movss	 DWORD PTR [esp], xmm0
  00979	51		 push	 ecx
  0097a	f3 0f 10 45 fc	 movss	 xmm0, DWORD PTR _distance_digital_value$[ebp]
  0097f	f3 0f 11 04 24	 movss	 DWORD PTR [esp], xmm0
  00984	e8 00 00 00 00	 call	 ?fmod@@YGMMM@Z		; fmod
  00989	d9 5d ec	 fstp	 DWORD PTR _fractional_digit$[ebp]

; 2013 : 
; 2014 : 			y += (float) ((int) (whole_digit * ONE_OVER_ONE_TENTH_REV)) * 6.0;

  0098c	f3 0f 10 45 f0	 movss	 xmm0, DWORD PTR _whole_digit$[ebp]
  00991	f3 0f 59 05 00
	00 00 00	 mulss	 xmm0, DWORD PTR __real@3dcccccd
  00999	f3 0f 2c c0	 cvttss2si eax, xmm0
  0099d	f3 0f 2a c0	 cvtsi2ss xmm0, eax
  009a1	f3 0f 5a c0	 cvtss2sd xmm0, xmm0
  009a5	f2 0f 59 05 00
	00 00 00	 mulsd	 xmm0, QWORD PTR __real@4018000000000000
  009ad	f3 0f 5a 4d f4	 cvtss2sd xmm1, DWORD PTR _y$[ebp]
  009b2	f2 0f 58 c8	 addsd	 xmm1, xmm0
  009b6	f2 0f 5a c1	 cvtsd2ss xmm0, xmm1
  009ba	f3 0f 11 45 f4	 movss	 DWORD PTR _y$[ebp], xmm0

; 2015 : 
; 2016 : 			//
; 2017 : 			// rotate digits near change-over point (except at bottom zero)
; 2018 : 			//
; 2019 : 
; 2020 : 			if (distance_digital_value >= DIGIT_CHANGE_THRESHOLD)

  009bf	f3 0f 10 45 fc	 movss	 xmm0, DWORD PTR _distance_digital_value$[ebp]
  009c4	0f 2f 05 00 00
	00 00		 comiss	 xmm0, DWORD PTR __real@3c23d70a
  009cb	72 74		 jb	 SHORT $LN17@draw_havoc

; 2021 : 			{
; 2022 : 				if (fractional_digit <= DIGIT_CHANGE_THRESHOLD)

  009cd	f3 0f 10 05 00
	00 00 00	 movss	 xmm0, DWORD PTR __real@3c23d70a
  009d5	0f 2f 45 ec	 comiss	 xmm0, DWORD PTR _fractional_digit$[ebp]
  009d9	72 2d		 jb	 SHORT $LN15@draw_havoc

; 2023 : 				{
; 2024 : 					y += (fractional_digit - DIGIT_CHANGE_THRESHOLD) * (3.0 / DIGIT_CHANGE_THRESHOLD);

  009db	f3 0f 10 45 ec	 movss	 xmm0, DWORD PTR _fractional_digit$[ebp]
  009e0	f3 0f 5c 05 00
	00 00 00	 subss	 xmm0, DWORD PTR __real@3c23d70a
  009e8	f3 0f 5a c0	 cvtss2sd xmm0, xmm0
  009ec	f2 0f 59 05 00
	00 00 00	 mulsd	 xmm0, QWORD PTR __real@4072c00007080003
  009f4	f3 0f 5a 4d f4	 cvtss2sd xmm1, DWORD PTR _y$[ebp]
  009f9	f2 0f 58 c8	 addsd	 xmm1, xmm0
  009fd	f2 0f 5a c1	 cvtsd2ss xmm0, xmm1
  00a01	f3 0f 11 45 f4	 movss	 DWORD PTR _y$[ebp], xmm0
  00a06	eb 39		 jmp	 SHORT $LN17@draw_havoc
$LN15@draw_havoc:

; 2025 : 				}
; 2026 : 				else if (fractional_digit >= (ONE_TENTH_REV - DIGIT_CHANGE_THRESHOLD))

  00a08	f3 0f 10 45 ec	 movss	 xmm0, DWORD PTR _fractional_digit$[ebp]
  00a0d	0f 2f 05 00 00
	00 00		 comiss	 xmm0, DWORD PTR __real@411fd70a
  00a14	72 2b		 jb	 SHORT $LN17@draw_havoc

; 2027 : 				{
; 2028 : 					y += (fractional_digit - (ONE_TENTH_REV - DIGIT_CHANGE_THRESHOLD)) * (3.0 / DIGIT_CHANGE_THRESHOLD);

  00a16	f3 0f 10 45 ec	 movss	 xmm0, DWORD PTR _fractional_digit$[ebp]
  00a1b	f3 0f 5c 05 00
	00 00 00	 subss	 xmm0, DWORD PTR __real@411fd70a
  00a23	f3 0f 5a c0	 cvtss2sd xmm0, xmm0
  00a27	f2 0f 59 05 00
	00 00 00	 mulsd	 xmm0, QWORD PTR __real@4072c00007080003
  00a2f	f3 0f 5a 4d f4	 cvtss2sd xmm1, DWORD PTR _y$[ebp]
  00a34	f2 0f 58 c8	 addsd	 xmm1, xmm0
  00a38	f2 0f 5a c1	 cvtsd2ss xmm0, xmm1
  00a3c	f3 0f 11 45 f4	 movss	 DWORD PTR _y$[ebp], xmm0
$LN17@draw_havoc:

; 2029 : 				}
; 2030 : 			}
; 2031 : 
; 2032 : 			set_mono_font_position (x, y); print_mono_font_char ('9'); y -= 6.0;

  00a41	51		 push	 ecx
  00a42	f3 0f 10 45 f4	 movss	 xmm0, DWORD PTR _y$[ebp]
  00a47	f3 0f 11 04 24	 movss	 DWORD PTR [esp], xmm0
  00a4c	51		 push	 ecx
  00a4d	f3 0f 10 45 f8	 movss	 xmm0, DWORD PTR _x$[ebp]
  00a52	f3 0f 11 04 24	 movss	 DWORD PTR [esp], xmm0
  00a57	e8 00 00 00 00	 call	 ?set_mono_font_position@@YGXMM@Z ; set_mono_font_position
  00a5c	6a 39		 push	 57			; 00000039H
  00a5e	e8 00 00 00 00	 call	 ?print_mono_font_char@@YGXD@Z ; print_mono_font_char
  00a63	f3 0f 5a 45 f4	 cvtss2sd xmm0, DWORD PTR _y$[ebp]
  00a68	f2 0f 5c 05 00
	00 00 00	 subsd	 xmm0, QWORD PTR __real@4018000000000000
  00a70	f2 0f 5a c0	 cvtsd2ss xmm0, xmm0
  00a74	f3 0f 11 45 f4	 movss	 DWORD PTR _y$[ebp], xmm0

; 2033 : 			set_mono_font_position (x, y); print_mono_font_char ('0'); y -= 6.0;

  00a79	51		 push	 ecx
  00a7a	f3 0f 10 45 f4	 movss	 xmm0, DWORD PTR _y$[ebp]
  00a7f	f3 0f 11 04 24	 movss	 DWORD PTR [esp], xmm0
  00a84	51		 push	 ecx
  00a85	f3 0f 10 45 f8	 movss	 xmm0, DWORD PTR _x$[ebp]
  00a8a	f3 0f 11 04 24	 movss	 DWORD PTR [esp], xmm0
  00a8f	e8 00 00 00 00	 call	 ?set_mono_font_position@@YGXMM@Z ; set_mono_font_position
  00a94	6a 30		 push	 48			; 00000030H
  00a96	e8 00 00 00 00	 call	 ?print_mono_font_char@@YGXD@Z ; print_mono_font_char
  00a9b	f3 0f 5a 45 f4	 cvtss2sd xmm0, DWORD PTR _y$[ebp]
  00aa0	f2 0f 5c 05 00
	00 00 00	 subsd	 xmm0, QWORD PTR __real@4018000000000000
  00aa8	f2 0f 5a c0	 cvtsd2ss xmm0, xmm0
  00aac	f3 0f 11 45 f4	 movss	 DWORD PTR _y$[ebp], xmm0

; 2034 : 			set_mono_font_position (x, y); print_mono_font_char ('1'); y -= 6.0;

  00ab1	51		 push	 ecx
  00ab2	f3 0f 10 45 f4	 movss	 xmm0, DWORD PTR _y$[ebp]
  00ab7	f3 0f 11 04 24	 movss	 DWORD PTR [esp], xmm0
  00abc	51		 push	 ecx
  00abd	f3 0f 10 45 f8	 movss	 xmm0, DWORD PTR _x$[ebp]
  00ac2	f3 0f 11 04 24	 movss	 DWORD PTR [esp], xmm0
  00ac7	e8 00 00 00 00	 call	 ?set_mono_font_position@@YGXMM@Z ; set_mono_font_position
  00acc	6a 31		 push	 49			; 00000031H
  00ace	e8 00 00 00 00	 call	 ?print_mono_font_char@@YGXD@Z ; print_mono_font_char
  00ad3	f3 0f 5a 45 f4	 cvtss2sd xmm0, DWORD PTR _y$[ebp]
  00ad8	f2 0f 5c 05 00
	00 00 00	 subsd	 xmm0, QWORD PTR __real@4018000000000000
  00ae0	f2 0f 5a c0	 cvtsd2ss xmm0, xmm0
  00ae4	f3 0f 11 45 f4	 movss	 DWORD PTR _y$[ebp], xmm0

; 2035 : 			set_mono_font_position (x, y); print_mono_font_char ('2'); y -= 6.0;

  00ae9	51		 push	 ecx
  00aea	f3 0f 10 45 f4	 movss	 xmm0, DWORD PTR _y$[ebp]
  00aef	f3 0f 11 04 24	 movss	 DWORD PTR [esp], xmm0
  00af4	51		 push	 ecx
  00af5	f3 0f 10 45 f8	 movss	 xmm0, DWORD PTR _x$[ebp]
  00afa	f3 0f 11 04 24	 movss	 DWORD PTR [esp], xmm0
  00aff	e8 00 00 00 00	 call	 ?set_mono_font_position@@YGXMM@Z ; set_mono_font_position
  00b04	6a 32		 push	 50			; 00000032H
  00b06	e8 00 00 00 00	 call	 ?print_mono_font_char@@YGXD@Z ; print_mono_font_char
  00b0b	f3 0f 5a 45 f4	 cvtss2sd xmm0, DWORD PTR _y$[ebp]
  00b10	f2 0f 5c 05 00
	00 00 00	 subsd	 xmm0, QWORD PTR __real@4018000000000000
  00b18	f2 0f 5a c0	 cvtsd2ss xmm0, xmm0
  00b1c	f3 0f 11 45 f4	 movss	 DWORD PTR _y$[ebp], xmm0

; 2036 : 			set_mono_font_position (x, y); print_mono_font_char ('3'); y -= 6.0;

  00b21	51		 push	 ecx
  00b22	f3 0f 10 45 f4	 movss	 xmm0, DWORD PTR _y$[ebp]
  00b27	f3 0f 11 04 24	 movss	 DWORD PTR [esp], xmm0
  00b2c	51		 push	 ecx
  00b2d	f3 0f 10 45 f8	 movss	 xmm0, DWORD PTR _x$[ebp]
  00b32	f3 0f 11 04 24	 movss	 DWORD PTR [esp], xmm0
  00b37	e8 00 00 00 00	 call	 ?set_mono_font_position@@YGXMM@Z ; set_mono_font_position
  00b3c	6a 33		 push	 51			; 00000033H
  00b3e	e8 00 00 00 00	 call	 ?print_mono_font_char@@YGXD@Z ; print_mono_font_char
  00b43	f3 0f 5a 45 f4	 cvtss2sd xmm0, DWORD PTR _y$[ebp]
  00b48	f2 0f 5c 05 00
	00 00 00	 subsd	 xmm0, QWORD PTR __real@4018000000000000
  00b50	f2 0f 5a c0	 cvtsd2ss xmm0, xmm0
  00b54	f3 0f 11 45 f4	 movss	 DWORD PTR _y$[ebp], xmm0

; 2037 : 			set_mono_font_position (x, y); print_mono_font_char ('4'); y -= 6.0;

  00b59	51		 push	 ecx
  00b5a	f3 0f 10 45 f4	 movss	 xmm0, DWORD PTR _y$[ebp]
  00b5f	f3 0f 11 04 24	 movss	 DWORD PTR [esp], xmm0
  00b64	51		 push	 ecx
  00b65	f3 0f 10 45 f8	 movss	 xmm0, DWORD PTR _x$[ebp]
  00b6a	f3 0f 11 04 24	 movss	 DWORD PTR [esp], xmm0
  00b6f	e8 00 00 00 00	 call	 ?set_mono_font_position@@YGXMM@Z ; set_mono_font_position
  00b74	6a 34		 push	 52			; 00000034H
  00b76	e8 00 00 00 00	 call	 ?print_mono_font_char@@YGXD@Z ; print_mono_font_char
  00b7b	f3 0f 5a 45 f4	 cvtss2sd xmm0, DWORD PTR _y$[ebp]
  00b80	f2 0f 5c 05 00
	00 00 00	 subsd	 xmm0, QWORD PTR __real@4018000000000000
  00b88	f2 0f 5a c0	 cvtsd2ss xmm0, xmm0
  00b8c	f3 0f 11 45 f4	 movss	 DWORD PTR _y$[ebp], xmm0

; 2038 : 			set_mono_font_position (x, y); print_mono_font_char ('5'); y -= 6.0;

  00b91	51		 push	 ecx
  00b92	f3 0f 10 45 f4	 movss	 xmm0, DWORD PTR _y$[ebp]
  00b97	f3 0f 11 04 24	 movss	 DWORD PTR [esp], xmm0
  00b9c	51		 push	 ecx
  00b9d	f3 0f 10 45 f8	 movss	 xmm0, DWORD PTR _x$[ebp]
  00ba2	f3 0f 11 04 24	 movss	 DWORD PTR [esp], xmm0
  00ba7	e8 00 00 00 00	 call	 ?set_mono_font_position@@YGXMM@Z ; set_mono_font_position
  00bac	6a 35		 push	 53			; 00000035H
  00bae	e8 00 00 00 00	 call	 ?print_mono_font_char@@YGXD@Z ; print_mono_font_char
  00bb3	f3 0f 5a 45 f4	 cvtss2sd xmm0, DWORD PTR _y$[ebp]
  00bb8	f2 0f 5c 05 00
	00 00 00	 subsd	 xmm0, QWORD PTR __real@4018000000000000
  00bc0	f2 0f 5a c0	 cvtsd2ss xmm0, xmm0
  00bc4	f3 0f 11 45 f4	 movss	 DWORD PTR _y$[ebp], xmm0

; 2039 : 			set_mono_font_position (x, y); print_mono_font_char ('6'); y -= 6.0;

  00bc9	51		 push	 ecx
  00bca	f3 0f 10 45 f4	 movss	 xmm0, DWORD PTR _y$[ebp]
  00bcf	f3 0f 11 04 24	 movss	 DWORD PTR [esp], xmm0
  00bd4	51		 push	 ecx
  00bd5	f3 0f 10 45 f8	 movss	 xmm0, DWORD PTR _x$[ebp]
  00bda	f3 0f 11 04 24	 movss	 DWORD PTR [esp], xmm0
  00bdf	e8 00 00 00 00	 call	 ?set_mono_font_position@@YGXMM@Z ; set_mono_font_position
  00be4	6a 36		 push	 54			; 00000036H
  00be6	e8 00 00 00 00	 call	 ?print_mono_font_char@@YGXD@Z ; print_mono_font_char
  00beb	f3 0f 5a 45 f4	 cvtss2sd xmm0, DWORD PTR _y$[ebp]
  00bf0	f2 0f 5c 05 00
	00 00 00	 subsd	 xmm0, QWORD PTR __real@4018000000000000
  00bf8	f2 0f 5a c0	 cvtsd2ss xmm0, xmm0
  00bfc	f3 0f 11 45 f4	 movss	 DWORD PTR _y$[ebp], xmm0

; 2040 : 			set_mono_font_position (x, y); print_mono_font_char ('7'); y -= 6.0;

  00c01	51		 push	 ecx
  00c02	f3 0f 10 45 f4	 movss	 xmm0, DWORD PTR _y$[ebp]
  00c07	f3 0f 11 04 24	 movss	 DWORD PTR [esp], xmm0
  00c0c	51		 push	 ecx
  00c0d	f3 0f 10 45 f8	 movss	 xmm0, DWORD PTR _x$[ebp]
  00c12	f3 0f 11 04 24	 movss	 DWORD PTR [esp], xmm0
  00c17	e8 00 00 00 00	 call	 ?set_mono_font_position@@YGXMM@Z ; set_mono_font_position
  00c1c	6a 37		 push	 55			; 00000037H
  00c1e	e8 00 00 00 00	 call	 ?print_mono_font_char@@YGXD@Z ; print_mono_font_char
  00c23	f3 0f 5a 45 f4	 cvtss2sd xmm0, DWORD PTR _y$[ebp]
  00c28	f2 0f 5c 05 00
	00 00 00	 subsd	 xmm0, QWORD PTR __real@4018000000000000
  00c30	f2 0f 5a c0	 cvtsd2ss xmm0, xmm0
  00c34	f3 0f 11 45 f4	 movss	 DWORD PTR _y$[ebp], xmm0

; 2041 : 			set_mono_font_position (x, y); print_mono_font_char ('8'); y -= 6.0;

  00c39	51		 push	 ecx
  00c3a	f3 0f 10 45 f4	 movss	 xmm0, DWORD PTR _y$[ebp]
  00c3f	f3 0f 11 04 24	 movss	 DWORD PTR [esp], xmm0
  00c44	51		 push	 ecx
  00c45	f3 0f 10 45 f8	 movss	 xmm0, DWORD PTR _x$[ebp]
  00c4a	f3 0f 11 04 24	 movss	 DWORD PTR [esp], xmm0
  00c4f	e8 00 00 00 00	 call	 ?set_mono_font_position@@YGXMM@Z ; set_mono_font_position
  00c54	6a 38		 push	 56			; 00000038H
  00c56	e8 00 00 00 00	 call	 ?print_mono_font_char@@YGXD@Z ; print_mono_font_char
  00c5b	f3 0f 5a 45 f4	 cvtss2sd xmm0, DWORD PTR _y$[ebp]
  00c60	f2 0f 5c 05 00
	00 00 00	 subsd	 xmm0, QWORD PTR __real@4018000000000000
  00c68	f2 0f 5a c0	 cvtsd2ss xmm0, xmm0
  00c6c	f3 0f 11 45 f4	 movss	 DWORD PTR _y$[ebp], xmm0

; 2042 : 			set_mono_font_position (x, y); print_mono_font_char ('9'); y -= 6.0;

  00c71	51		 push	 ecx
  00c72	f3 0f 10 45 f4	 movss	 xmm0, DWORD PTR _y$[ebp]
  00c77	f3 0f 11 04 24	 movss	 DWORD PTR [esp], xmm0
  00c7c	51		 push	 ecx
  00c7d	f3 0f 10 45 f8	 movss	 xmm0, DWORD PTR _x$[ebp]
  00c82	f3 0f 11 04 24	 movss	 DWORD PTR [esp], xmm0
  00c87	e8 00 00 00 00	 call	 ?set_mono_font_position@@YGXMM@Z ; set_mono_font_position
  00c8c	6a 39		 push	 57			; 00000039H
  00c8e	e8 00 00 00 00	 call	 ?print_mono_font_char@@YGXD@Z ; print_mono_font_char
  00c93	f3 0f 5a 45 f4	 cvtss2sd xmm0, DWORD PTR _y$[ebp]
  00c98	f2 0f 5c 05 00
	00 00 00	 subsd	 xmm0, QWORD PTR __real@4018000000000000
  00ca0	f2 0f 5a c0	 cvtsd2ss xmm0, xmm0
  00ca4	f3 0f 11 45 f4	 movss	 DWORD PTR _y$[ebp], xmm0

; 2043 : 			set_mono_font_position (x, y); print_mono_font_char ('0');

  00ca9	51		 push	 ecx
  00caa	f3 0f 10 45 f4	 movss	 xmm0, DWORD PTR _y$[ebp]
  00caf	f3 0f 11 04 24	 movss	 DWORD PTR [esp], xmm0
  00cb4	51		 push	 ecx
  00cb5	f3 0f 10 45 f8	 movss	 xmm0, DWORD PTR _x$[ebp]
  00cba	f3 0f 11 04 24	 movss	 DWORD PTR [esp], xmm0
  00cbf	e8 00 00 00 00	 call	 ?set_mono_font_position@@YGXMM@Z ; set_mono_font_position
  00cc4	6a 30		 push	 48			; 00000030H
  00cc6	e8 00 00 00 00	 call	 ?print_mono_font_char@@YGXD@Z ; print_mono_font_char

; 2044 : 
; 2045 : 			#undef ONE_REV
; 2046 : 			#undef ONE_TENTH_REV
; 2047 : 			#undef ONE_OVER_ONE_TENTH_REV
; 2048 : 			#undef DIGIT_CHANGE_THRESHOLD
; 2049 : 
; 2050 : 			break;

  00ccb	eb 0e		 jmp	 SHORT $LN2@draw_havoc
$LN18@draw_havoc:

; 2051 : 		}
; 2052 : 		////////////////////////////////////////
; 2053 : 		default:
; 2054 : 		////////////////////////////////////////
; 2055 : 		{
; 2056 : 			debug_fatal (instrument_error);

  00ccd	a1 00 00 00 00	 mov	 eax, DWORD PTR ?instrument_error@@3PBDB
  00cd2	50		 push	 eax
  00cd3	e8 00 00 00 00	 call	 ?debug_fatal@@YAXPBDZZ	; debug_fatal
  00cd8	83 c4 04	 add	 esp, 4
$LN2@draw_havoc:

; 2057 : 
; 2058 : 			break;
; 2059 : 		}
; 2060 : 	}
; 2061 : }

  00cdb	5f		 pop	 edi
  00cdc	5e		 pop	 esi
  00cdd	5b		 pop	 ebx
  00cde	8b e5		 mov	 esp, ebp
  00ce0	5d		 pop	 ebp
  00ce1	c2 04 00	 ret	 4
?draw_havoc_fixed_cockpit_hsi_waypoint_distance_digits@@YGXW4COCKPIT_PANELS@@@Z ENDP ; draw_havoc_fixed_cockpit_hsi_waypoint_distance_digits
_TEXT	ENDS
; Function compile flags: /Odtp /ZI
; File c:\users\nhv90\projects\eech\aphavoc\source\gunships\cockpits\havoc\ha_instr.c
;	COMDAT ?draw_havoc_fuel_gauge@@YGXW4COCKPIT_PANELS@@@Z
_TEXT	SEGMENT
tv77 = -128						; size = 8
tv78 = -120						; size = 8
tv80 = -116						; size = 4
_yellow_dot_sprite$ = -48				; size = 28
_p$ = -20						; size = 4
_fuel_gauge_needle_scale$ = -16				; size = 4
_y_centre$ = -12					; size = 4
_x_centre$ = -8						; size = 4
_fuel_gauge_needle_value$ = -4				; size = 4
_panel$ = 8						; size = 4
?draw_havoc_fuel_gauge@@YGXW4COCKPIT_PANELS@@@Z PROC	; draw_havoc_fuel_gauge, COMDAT

; 1734 : {

  00000	55		 push	 ebp
  00001	8b ec		 mov	 ebp, esp
  00003	81 ec 80 00 00
	00		 sub	 esp, 128		; 00000080H
  00009	53		 push	 ebx
  0000a	56		 push	 esi
  0000b	57		 push	 edi

; 1735 : 	float
; 1736 : 		fuel_gauge_needle_value,
; 1737 : 		x_centre,
; 1738 : 		y_centre;
; 1739 : 
; 1740 : 	scale_data
; 1741 : 		*fuel_gauge_needle_scale,
; 1742 : 		*p;
; 1743 : 
; 1744 : 	rgb_alpha_masked_sprite_data
; 1745 : 		yellow_dot_sprite;
; 1746 : 
; 1747 : 	if (test_cockpit_instruments)

  0000c	83 3d 00 00 00
	00 00		 cmp	 DWORD PTR ?test_cockpit_instruments@@3HA, 0 ; test_cockpit_instruments
  00013	74 4d		 je	 SHORT $LN4@draw_havoc

; 1748 : 	{
; 1749 : 		static float
; 1750 : 			value = -500.0;
; 1751 : 
; 1752 : 		value += 50.0;

  00015	f3 0f 5a 05 00
	00 00 00	 cvtss2sd xmm0, DWORD PTR ?value@?4??draw_havoc_fuel_gauge@@YGXW4COCKPIT_PANELS@@@Z@4MA
  0001d	f2 0f 58 05 00
	00 00 00	 addsd	 xmm0, QWORD PTR __real@4049000000000000
  00025	f2 0f 5a c0	 cvtsd2ss xmm0, xmm0
  00029	f3 0f 11 05 00
	00 00 00	 movss	 DWORD PTR ?value@?4??draw_havoc_fuel_gauge@@YGXW4COCKPIT_PANELS@@@Z@4MA, xmm0

; 1753 : 
; 1754 : 		if (value > 2000.0)

  00031	f3 0f 5a 05 00
	00 00 00	 cvtss2sd xmm0, DWORD PTR ?value@?4??draw_havoc_fuel_gauge@@YGXW4COCKPIT_PANELS@@@Z@4MA
  00039	66 0f 2f 05 00
	00 00 00	 comisd	 xmm0, QWORD PTR __real@409f400000000000
  00041	76 10		 jbe	 SHORT $LN6@draw_havoc

; 1755 : 		{
; 1756 : 			value = -500.0;

  00043	f3 0f 10 05 00
	00 00 00	 movss	 xmm0, DWORD PTR __real@c3fa0000
  0004b	f3 0f 11 05 00
	00 00 00	 movss	 DWORD PTR ?value@?4??draw_havoc_fuel_gauge@@YGXW4COCKPIT_PANELS@@@Z@4MA, xmm0
$LN6@draw_havoc:

; 1757 : 		}
; 1758 : 
; 1759 : 		fuel_gauge_needle_value = value;

  00053	f3 0f 10 05 00
	00 00 00	 movss	 xmm0, DWORD PTR ?value@?4??draw_havoc_fuel_gauge@@YGXW4COCKPIT_PANELS@@@Z@4MA
  0005b	f3 0f 11 45 fc	 movss	 DWORD PTR _fuel_gauge_needle_value$[ebp], xmm0

; 1760 : 	}
; 1761 : 	else

  00060	eb 12		 jmp	 SHORT $LN5@draw_havoc
$LN4@draw_havoc:

; 1762 : 	{
; 1763 : 		fuel_gauge_needle_value = current_flight_dynamics->fuel_weight.value;

  00062	a1 00 00 00 00	 mov	 eax, DWORD PTR ?current_flight_dynamics@@3PAUDYNAMICS_TYPE@@A ; current_flight_dynamics
  00067	f3 0f 10 80 a4
	24 00 00	 movss	 xmm0, DWORD PTR [eax+9380]
  0006f	f3 0f 11 45 fc	 movss	 DWORD PTR _fuel_gauge_needle_value$[ebp], xmm0
$LN5@draw_havoc:

; 1764 : 	}
; 1765 : 
; 1766 : 	fuel_gauge_needle_value = bound (fuel_gauge_needle_value, 0.0, 1600.0);

  00074	f3 0f 5a 45 fc	 cvtss2sd xmm0, DWORD PTR _fuel_gauge_needle_value$[ebp]
  00079	0f 57 c9	 xorps	 xmm1, xmm1
  0007c	66 0f 2f c8	 comisd	 xmm1, xmm0
  00080	76 0a		 jbe	 SHORT $LN14@draw_havoc
  00082	0f 57 c0	 xorps	 xmm0, xmm0
  00085	f2 0f 11 45 88	 movsd	 QWORD PTR tv78[ebp], xmm0
  0008a	eb 32		 jmp	 SHORT $LN15@draw_havoc
$LN14@draw_havoc:
  0008c	f3 0f 5a 45 fc	 cvtss2sd xmm0, DWORD PTR _fuel_gauge_needle_value$[ebp]
  00091	66 0f 2f 05 00
	00 00 00	 comisd	 xmm0, QWORD PTR __real@4099000000000000
  00099	76 0f		 jbe	 SHORT $LN12@draw_havoc
  0009b	f2 0f 10 05 00
	00 00 00	 movsd	 xmm0, QWORD PTR __real@4099000000000000
  000a3	f2 0f 11 45 80	 movsd	 QWORD PTR tv77[ebp], xmm0
  000a8	eb 0a		 jmp	 SHORT $LN13@draw_havoc
$LN12@draw_havoc:
  000aa	f3 0f 5a 45 fc	 cvtss2sd xmm0, DWORD PTR _fuel_gauge_needle_value$[ebp]
  000af	f2 0f 11 45 80	 movsd	 QWORD PTR tv77[ebp], xmm0
$LN13@draw_havoc:
  000b4	f2 0f 10 45 80	 movsd	 xmm0, QWORD PTR tv77[ebp]
  000b9	f2 0f 11 45 88	 movsd	 QWORD PTR tv78[ebp], xmm0
$LN15@draw_havoc:
  000be	f2 0f 5a 45 88	 cvtsd2ss xmm0, QWORD PTR tv78[ebp]
  000c3	f3 0f 11 45 fc	 movss	 DWORD PTR _fuel_gauge_needle_value$[ebp], xmm0

; 1767 : 
; 1768 : 	switch (panel)

  000c8	8b 45 08	 mov	 eax, DWORD PTR _panel$[ebp]
  000cb	89 45 8c	 mov	 DWORD PTR tv80[ebp], eax
  000ce	83 7d 8c 18	 cmp	 DWORD PTR tv80[ebp], 24	; 00000018H
  000d2	74 08		 je	 SHORT $LN7@draw_havoc
  000d4	83 7d 8c 19	 cmp	 DWORD PTR tv80[ebp], 25	; 00000019H
  000d8	74 38		 je	 SHORT $LN8@draw_havoc
  000da	eb 6c		 jmp	 SHORT $LN9@draw_havoc
$LN7@draw_havoc:

; 1769 : 	{
; 1770 : 		////////////////////////////////////////
; 1771 : 		case COCKPIT_PANEL_DOWN20_AHEAD:
; 1772 : 		////////////////////////////////////////
; 1773 : 		{
; 1774 : 			static rgb_alpha_masked_sprite_data
; 1775 : 				sprite = {414, 431, 135, 230, 12, 12, 235};
; 1776 : 
; 1777 : 			x_centre = 419.0;

  000dc	f3 0f 10 05 00
	00 00 00	 movss	 xmm0, DWORD PTR __real@43d18000
  000e4	f3 0f 11 45 f8	 movss	 DWORD PTR _x_centre$[ebp], xmm0

; 1778 : 
; 1779 : 			y_centre = 436.0;

  000e9	f3 0f 10 05 00
	00 00 00	 movss	 xmm0, DWORD PTR __real@43da0000
  000f1	f3 0f 11 45 f4	 movss	 DWORD PTR _y_centre$[ebp], xmm0

; 1780 : 
; 1781 : 			fuel_gauge_needle_scale = fuel_gauge_needle_scale_down_20_ahead;

  000f6	c7 45 f0 00 00
	00 00		 mov	 DWORD PTR _fuel_gauge_needle_scale$[ebp], OFFSET ?fuel_gauge_needle_scale_down_20_ahead@@3PAUSCALE_DATA@@A

; 1782 : 
; 1783 : 			memcpy (&yellow_dot_sprite, &sprite, sizeof (rgb_alpha_masked_sprite_data));

  000fd	6a 1c		 push	 28			; 0000001cH
  000ff	68 00 00 00 00	 push	 OFFSET ?sprite@?N@??draw_havoc_fuel_gauge@@YGXW4COCKPIT_PANELS@@@Z@4URGB_ALPHA_MASKED_SPRITE_DATA@@A
  00104	8d 45 d0	 lea	 eax, DWORD PTR _yellow_dot_sprite$[ebp]
  00107	50		 push	 eax
  00108	e8 00 00 00 00	 call	 _memcpy
  0010d	83 c4 0c	 add	 esp, 12			; 0000000cH

; 1784 : 
; 1785 : 			break;

  00110	eb 44		 jmp	 SHORT $LN2@draw_havoc
$LN8@draw_havoc:

; 1786 : 		}
; 1787 : 		////////////////////////////////////////
; 1788 : 		case COCKPIT_PANEL_DOWN20_RIGHT30:
; 1789 : 		////////////////////////////////////////
; 1790 : 		{
; 1791 : 			static rgb_alpha_masked_sprite_data
; 1792 : 				sprite = {171, 439, 157, 230, 11, 11, 235};
; 1793 : 
; 1794 : 			x_centre = 176.0;

  00112	f3 0f 10 05 00
	00 00 00	 movss	 xmm0, DWORD PTR __real@43300000
  0011a	f3 0f 11 45 f8	 movss	 DWORD PTR _x_centre$[ebp], xmm0

; 1795 : 
; 1796 : 			y_centre = 443.0;

  0011f	f3 0f 10 05 00
	00 00 00	 movss	 xmm0, DWORD PTR __real@43dd8000
  00127	f3 0f 11 45 f4	 movss	 DWORD PTR _y_centre$[ebp], xmm0

; 1797 : 
; 1798 : 			fuel_gauge_needle_scale = fuel_gauge_needle_scale_down_20_right_30;

  0012c	c7 45 f0 00 00
	00 00		 mov	 DWORD PTR _fuel_gauge_needle_scale$[ebp], OFFSET ?fuel_gauge_needle_scale_down_20_right_30@@3PAUSCALE_DATA@@A

; 1799 : 
; 1800 : 			memcpy (&yellow_dot_sprite, &sprite, sizeof (rgb_alpha_masked_sprite_data));

  00133	6a 1c		 push	 28			; 0000001cH
  00135	68 00 00 00 00	 push	 OFFSET ?sprite@?O@??draw_havoc_fuel_gauge@@YGXW4COCKPIT_PANELS@@@Z@4URGB_ALPHA_MASKED_SPRITE_DATA@@A
  0013a	8d 45 d0	 lea	 eax, DWORD PTR _yellow_dot_sprite$[ebp]
  0013d	50		 push	 eax
  0013e	e8 00 00 00 00	 call	 _memcpy
  00143	83 c4 0c	 add	 esp, 12			; 0000000cH

; 1801 : 
; 1802 : 			break;

  00146	eb 0e		 jmp	 SHORT $LN2@draw_havoc
$LN9@draw_havoc:

; 1803 : 		}
; 1804 : 		////////////////////////////////////////
; 1805 : 		default:
; 1806 : 		////////////////////////////////////////
; 1807 : 		{
; 1808 : 			debug_fatal (instrument_error);

  00148	a1 00 00 00 00	 mov	 eax, DWORD PTR ?instrument_error@@3PBDB
  0014d	50		 push	 eax
  0014e	e8 00 00 00 00	 call	 ?debug_fatal@@YAXPBDZZ	; debug_fatal
  00153	83 c4 04	 add	 esp, 4
$LN2@draw_havoc:

; 1809 : 
; 1810 : 			break;
; 1811 : 		}
; 1812 : 	}
; 1813 : 
; 1814 : 	p = find_scale_value (fuel_gauge_needle_scale, fuel_gauge_needle_value);

  00156	51		 push	 ecx
  00157	f3 0f 10 45 fc	 movss	 xmm0, DWORD PTR _fuel_gauge_needle_value$[ebp]
  0015c	f3 0f 11 04 24	 movss	 DWORD PTR [esp], xmm0
  00161	8b 45 f0	 mov	 eax, DWORD PTR _fuel_gauge_needle_scale$[ebp]
  00164	50		 push	 eax
  00165	e8 00 00 00 00	 call	 ?find_scale_value@@YGPAUSCALE_DATA@@PAU1@M@Z ; find_scale_value
  0016a	89 45 ec	 mov	 DWORD PTR _p$[ebp], eax

; 1815 : 
; 1816 : 	draw_line (fx_640_480 + x_centre, fy_640_480 + y_centre, fx_640_480 + p->x, fy_640_480 + p->y, white_needle_colour);

  0016d	a1 00 00 00 00	 mov	 eax, DWORD PTR ?white_needle_colour@@3UREAL_COLOUR@@A
  00172	50		 push	 eax
  00173	8b 4d ec	 mov	 ecx, DWORD PTR _p$[ebp]
  00176	0f bf 51 02	 movsx	 edx, WORD PTR [ecx+2]
  0017a	f3 0f 2a c2	 cvtsi2ss xmm0, edx
  0017e	f3 0f 58 05 00
	00 00 00	 addss	 xmm0, DWORD PTR ?fy_640_480@@3MA
  00186	51		 push	 ecx
  00187	f3 0f 11 04 24	 movss	 DWORD PTR [esp], xmm0
  0018c	8b 45 ec	 mov	 eax, DWORD PTR _p$[ebp]
  0018f	0f bf 08	 movsx	 ecx, WORD PTR [eax]
  00192	f3 0f 2a c1	 cvtsi2ss xmm0, ecx
  00196	f3 0f 58 05 00
	00 00 00	 addss	 xmm0, DWORD PTR ?fx_640_480@@3MA
  0019e	51		 push	 ecx
  0019f	f3 0f 11 04 24	 movss	 DWORD PTR [esp], xmm0
  001a4	f3 0f 10 05 00
	00 00 00	 movss	 xmm0, DWORD PTR ?fy_640_480@@3MA
  001ac	f3 0f 58 45 f4	 addss	 xmm0, DWORD PTR _y_centre$[ebp]
  001b1	51		 push	 ecx
  001b2	f3 0f 11 04 24	 movss	 DWORD PTR [esp], xmm0
  001b7	f3 0f 10 05 00
	00 00 00	 movss	 xmm0, DWORD PTR ?fx_640_480@@3MA
  001bf	f3 0f 58 45 f8	 addss	 xmm0, DWORD PTR _x_centre$[ebp]
  001c4	51		 push	 ecx
  001c5	f3 0f 11 04 24	 movss	 DWORD PTR [esp], xmm0
  001ca	e8 00 00 00 00	 call	 ?draw_line@@YGXMMMMUREAL_COLOUR@@@Z ; draw_line

; 1817 : 
; 1818 : 	if (test_cockpit_instruments && DEBUG_MODULE)

  001cf	83 3d 00 00 00
	00 00		 cmp	 DWORD PTR ?test_cockpit_instruments@@3HA, 0 ; test_cockpit_instruments
  001d6	74 61		 je	 SHORT $LN10@draw_havoc
  001d8	33 c0		 xor	 eax, eax
  001da	74 5d		 je	 SHORT $LN10@draw_havoc

; 1819 : 	{
; 1820 : 		test_scale (fuel_gauge_needle_scale, 0.0, 2000.0, 500.0);

  001dc	51		 push	 ecx
  001dd	f3 0f 10 05 00
	00 00 00	 movss	 xmm0, DWORD PTR __real@43fa0000
  001e5	f3 0f 11 04 24	 movss	 DWORD PTR [esp], xmm0
  001ea	51		 push	 ecx
  001eb	f3 0f 10 05 00
	00 00 00	 movss	 xmm0, DWORD PTR __real@44fa0000
  001f3	f3 0f 11 04 24	 movss	 DWORD PTR [esp], xmm0
  001f8	51		 push	 ecx
  001f9	0f 57 c0	 xorps	 xmm0, xmm0
  001fc	f3 0f 11 04 24	 movss	 DWORD PTR [esp], xmm0
  00201	8b 45 f0	 mov	 eax, DWORD PTR _fuel_gauge_needle_scale$[ebp]
  00204	50		 push	 eax
  00205	e8 00 00 00 00	 call	 ?test_scale@@YGXPAUSCALE_DATA@@MMM@Z ; test_scale

; 1821 : 
; 1822 : 		set_pixel (ix_640_480 + x_centre, iy_640_480 + y_centre, sys_col_red);

  0020a	a1 00 00 00 00	 mov	 eax, DWORD PTR ?sys_col_red@@3UREAL_COLOUR@@A ; sys_col_red
  0020f	50		 push	 eax
  00210	f3 0f 2a 05 00
	00 00 00	 cvtsi2ss xmm0, DWORD PTR ?iy_640_480@@3HA ; iy_640_480
  00218	f3 0f 58 45 f4	 addss	 xmm0, DWORD PTR _y_centre$[ebp]
  0021d	f3 0f 2c c8	 cvttss2si ecx, xmm0
  00221	51		 push	 ecx
  00222	f3 0f 2a 05 00
	00 00 00	 cvtsi2ss xmm0, DWORD PTR ?ix_640_480@@3HA ; ix_640_480
  0022a	f3 0f 58 45 f8	 addss	 xmm0, DWORD PTR _x_centre$[ebp]
  0022f	f3 0f 2c d0	 cvttss2si edx, xmm0
  00233	52		 push	 edx
  00234	e8 00 00 00 00	 call	 ?set_pixel@@YGXHHUREAL_COLOUR@@@Z ; set_pixel
$LN10@draw_havoc:

; 1823 : 	}
; 1824 : 
; 1825 : 	yellow_dot_sprite.x += ix_640_480;

  00239	8b 45 d0	 mov	 eax, DWORD PTR _yellow_dot_sprite$[ebp]
  0023c	03 05 00 00 00
	00		 add	 eax, DWORD PTR ?ix_640_480@@3HA ; ix_640_480
  00242	89 45 d0	 mov	 DWORD PTR _yellow_dot_sprite$[ebp], eax

; 1826 : 	yellow_dot_sprite.y += iy_640_480;

  00245	8b 45 d4	 mov	 eax, DWORD PTR _yellow_dot_sprite$[ebp+4]
  00248	03 05 00 00 00
	00		 add	 eax, DWORD PTR ?iy_640_480@@3HA ; iy_640_480
  0024e	89 45 d4	 mov	 DWORD PTR _yellow_dot_sprite$[ebp+4], eax

; 1827 : 
; 1828 : 	blit_rgb_alpha_masked_sprite

  00251	8d 45 d0	 lea	 eax, DWORD PTR _yellow_dot_sprite$[ebp]
  00254	50		 push	 eax
  00255	8b 0d 00 00 00
	00		 mov	 ecx, DWORD PTR ?base_cockpit_graphics_file@@3W4GRAPHICS_FILE_SPECIFIERS@@A ; base_cockpit_graphics_file
  0025b	83 c1 2c	 add	 ecx, 44			; 0000002cH
  0025e	6b d1 28	 imul	 edx, ecx, 40
  00261	8b 82 1c 00 00
	00		 mov	 eax, DWORD PTR ?graphics_files@@3PAUFILE_DATA@@A[edx+28]
  00267	50		 push	 eax
  00268	8b 0d 00 00 00
	00		 mov	 ecx, DWORD PTR ?base_cockpit_graphics_file@@3W4GRAPHICS_FILE_SPECIFIERS@@A ; base_cockpit_graphics_file
  0026e	83 c1 2b	 add	 ecx, 43			; 0000002bH
  00271	6b d1 28	 imul	 edx, ecx, 40
  00274	8b 82 1c 00 00
	00		 mov	 eax, DWORD PTR ?graphics_files@@3PAUFILE_DATA@@A[edx+28]
  0027a	50		 push	 eax
  0027b	e8 00 00 00 00	 call	 ?blit_rgb_alpha_masked_sprite@@YGXPBE0PBURGB_ALPHA_MASKED_SPRITE_DATA@@@Z ; blit_rgb_alpha_masked_sprite

; 1829 : 	(
; 1830 : 		get_graphics_file_data (base_cockpit_graphics_file + GRAPHICS_COCKPITS_HAVOC_SPRITES),
; 1831 : 		get_graphics_file_data (base_cockpit_graphics_file + GRAPHICS_COCKPITS_HAVOC_SPRITES_MASK),
; 1832 : 		&yellow_dot_sprite
; 1833 : 	);
; 1834 : }

  00280	5f		 pop	 edi
  00281	5e		 pop	 esi
  00282	5b		 pop	 ebx
  00283	8b e5		 mov	 esp, ebp
  00285	5d		 pop	 ebp
  00286	c2 04 00	 ret	 4
?draw_havoc_fuel_gauge@@YGXW4COCKPIT_PANELS@@@Z ENDP	; draw_havoc_fuel_gauge
_TEXT	ENDS
; Function compile flags: /Odtp /ZI
; File c:\users\nhv90\projects\eech\aphavoc\source\gunships\cockpits\havoc\ha_instr.c
;	COMDAT ?draw_havoc_radar_altimeter@@YGXW4COCKPIT_PANELS@@@Z
_TEXT	SEGMENT
tv82 = -100						; size = 8
tv83 = -92						; size = 8
tv85 = -88						; size = 4
_p$ = -20						; size = 4
_radar_altimeter_needle_scale$ = -16			; size = 4
_y_centre$ = -12					; size = 4
_x_centre$ = -8						; size = 4
_radar_altimeter_needle_value$ = -4			; size = 4
_panel$ = 8						; size = 4
?draw_havoc_radar_altimeter@@YGXW4COCKPIT_PANELS@@@Z PROC ; draw_havoc_radar_altimeter, COMDAT

; 1617 : {

  00000	55		 push	 ebp
  00001	8b ec		 mov	 ebp, esp
  00003	83 ec 64	 sub	 esp, 100		; 00000064H
  00006	53		 push	 ebx
  00007	56		 push	 esi
  00008	57		 push	 edi

; 1618 : 	float
; 1619 : 		radar_altimeter_needle_value,
; 1620 : 		x_centre,
; 1621 : 		y_centre;
; 1622 : 
; 1623 : 	scale_data
; 1624 : 		*radar_altimeter_needle_scale,
; 1625 : 		*p;
; 1626 : 
; 1627 : 	if (test_cockpit_instruments)

  00009	83 3d 00 00 00
	00 00		 cmp	 DWORD PTR ?test_cockpit_instruments@@3HA, 0 ; test_cockpit_instruments
  00010	0f 84 81 00 00
	00		 je	 $LN4@draw_havoc

; 1628 : 	{
; 1629 : 		static float
; 1630 : 			value = -20.0;
; 1631 : 
; 1632 : 		if (value < 100.0)

  00016	f3 0f 5a 05 00
	00 00 00	 cvtss2sd xmm0, DWORD PTR ?value@?4??draw_havoc_radar_altimeter@@YGXW4COCKPIT_PANELS@@@Z@4MA
  0001e	f2 0f 10 0d 00
	00 00 00	 movsd	 xmm1, QWORD PTR __real@4059000000000000
  00026	66 0f 2f c8	 comisd	 xmm1, xmm0
  0002a	76 1e		 jbe	 SHORT $LN6@draw_havoc

; 1633 : 		{
; 1634 : 			value += 2.0;

  0002c	f3 0f 5a 05 00
	00 00 00	 cvtss2sd xmm0, DWORD PTR ?value@?4??draw_havoc_radar_altimeter@@YGXW4COCKPIT_PANELS@@@Z@4MA
  00034	f2 0f 58 05 00
	00 00 00	 addsd	 xmm0, QWORD PTR __real@4000000000000000
  0003c	f2 0f 5a c0	 cvtsd2ss xmm0, xmm0
  00040	f3 0f 11 05 00
	00 00 00	 movss	 DWORD PTR ?value@?4??draw_havoc_radar_altimeter@@YGXW4COCKPIT_PANELS@@@Z@4MA, xmm0

; 1635 : 		}
; 1636 : 		else

  00048	eb 1c		 jmp	 SHORT $LN7@draw_havoc
$LN6@draw_havoc:

; 1637 : 		{
; 1638 : 			value += 10.0;

  0004a	f3 0f 5a 05 00
	00 00 00	 cvtss2sd xmm0, DWORD PTR ?value@?4??draw_havoc_radar_altimeter@@YGXW4COCKPIT_PANELS@@@Z@4MA
  00052	f2 0f 58 05 00
	00 00 00	 addsd	 xmm0, QWORD PTR __real@4024000000000000
  0005a	f2 0f 5a c0	 cvtsd2ss xmm0, xmm0
  0005e	f3 0f 11 05 00
	00 00 00	 movss	 DWORD PTR ?value@?4??draw_havoc_radar_altimeter@@YGXW4COCKPIT_PANELS@@@Z@4MA, xmm0
$LN7@draw_havoc:

; 1639 : 		}
; 1640 : 
; 1641 : 		if (value > 400.0)

  00066	f3 0f 5a 05 00
	00 00 00	 cvtss2sd xmm0, DWORD PTR ?value@?4??draw_havoc_radar_altimeter@@YGXW4COCKPIT_PANELS@@@Z@4MA
  0006e	66 0f 2f 05 00
	00 00 00	 comisd	 xmm0, QWORD PTR __real@4079000000000000
  00076	76 10		 jbe	 SHORT $LN8@draw_havoc

; 1642 : 		{
; 1643 : 			value = -20.0;

  00078	f3 0f 10 05 00
	00 00 00	 movss	 xmm0, DWORD PTR __real@c1a00000
  00080	f3 0f 11 05 00
	00 00 00	 movss	 DWORD PTR ?value@?4??draw_havoc_radar_altimeter@@YGXW4COCKPIT_PANELS@@@Z@4MA, xmm0
$LN8@draw_havoc:

; 1644 : 		}
; 1645 : 
; 1646 : 		radar_altimeter_needle_value = value;

  00088	f3 0f 10 05 00
	00 00 00	 movss	 xmm0, DWORD PTR ?value@?4??draw_havoc_radar_altimeter@@YGXW4COCKPIT_PANELS@@@Z@4MA
  00090	f3 0f 11 45 fc	 movss	 DWORD PTR _radar_altimeter_needle_value$[ebp], xmm0

; 1647 : 	}
; 1648 : 	else

  00095	eb 12		 jmp	 SHORT $LN5@draw_havoc
$LN4@draw_havoc:

; 1649 : 	{
; 1650 : 		radar_altimeter_needle_value = current_flight_dynamics->radar_altitude.value;

  00097	a1 00 00 00 00	 mov	 eax, DWORD PTR ?current_flight_dynamics@@3PAUDYNAMICS_TYPE@@A ; current_flight_dynamics
  0009c	f3 0f 10 80 44
	24 00 00	 movss	 xmm0, DWORD PTR [eax+9284]
  000a4	f3 0f 11 45 fc	 movss	 DWORD PTR _radar_altimeter_needle_value$[ebp], xmm0
$LN5@draw_havoc:

; 1651 : 	}
; 1652 : 
; 1653 : 	radar_altimeter_needle_value = bound (radar_altimeter_needle_value, 0.0, 300.0);

  000a9	f3 0f 5a 45 fc	 cvtss2sd xmm0, DWORD PTR _radar_altimeter_needle_value$[ebp]
  000ae	0f 57 c9	 xorps	 xmm1, xmm1
  000b1	66 0f 2f c8	 comisd	 xmm1, xmm0
  000b5	76 0a		 jbe	 SHORT $LN18@draw_havoc
  000b7	0f 57 c0	 xorps	 xmm0, xmm0
  000ba	f2 0f 11 45 a4	 movsd	 QWORD PTR tv83[ebp], xmm0
  000bf	eb 32		 jmp	 SHORT $LN19@draw_havoc
$LN18@draw_havoc:
  000c1	f3 0f 5a 45 fc	 cvtss2sd xmm0, DWORD PTR _radar_altimeter_needle_value$[ebp]
  000c6	66 0f 2f 05 00
	00 00 00	 comisd	 xmm0, QWORD PTR __real@4072c00000000000
  000ce	76 0f		 jbe	 SHORT $LN16@draw_havoc
  000d0	f2 0f 10 05 00
	00 00 00	 movsd	 xmm0, QWORD PTR __real@4072c00000000000
  000d8	f2 0f 11 45 9c	 movsd	 QWORD PTR tv82[ebp], xmm0
  000dd	eb 0a		 jmp	 SHORT $LN17@draw_havoc
$LN16@draw_havoc:
  000df	f3 0f 5a 45 fc	 cvtss2sd xmm0, DWORD PTR _radar_altimeter_needle_value$[ebp]
  000e4	f2 0f 11 45 9c	 movsd	 QWORD PTR tv82[ebp], xmm0
$LN17@draw_havoc:
  000e9	f2 0f 10 45 9c	 movsd	 xmm0, QWORD PTR tv82[ebp]
  000ee	f2 0f 11 45 a4	 movsd	 QWORD PTR tv83[ebp], xmm0
$LN19@draw_havoc:
  000f3	f2 0f 5a 45 a4	 cvtsd2ss xmm0, QWORD PTR tv83[ebp]
  000f8	f3 0f 11 45 fc	 movss	 DWORD PTR _radar_altimeter_needle_value$[ebp], xmm0

; 1654 : 
; 1655 : 	switch (panel)

  000fd	8b 45 08	 mov	 eax, DWORD PTR _panel$[ebp]
  00100	89 45 a8	 mov	 DWORD PTR tv85[ebp], eax
  00103	8b 4d a8	 mov	 ecx, DWORD PTR tv85[ebp]
  00106	83 e9 10	 sub	 ecx, 16			; 00000010H
  00109	89 4d a8	 mov	 DWORD PTR tv85[ebp], ecx
  0010c	83 7d a8 08	 cmp	 DWORD PTR tv85[ebp], 8
  00110	0f 87 96 00 00
	00		 ja	 $LN13@draw_havoc
  00116	8b 55 a8	 mov	 edx, DWORD PTR tv85[ebp]
  00119	ff 24 95 00 00
	00 00		 jmp	 DWORD PTR $LN20@draw_havoc[edx*4]
$LN9@draw_havoc:

; 1656 : 	{
; 1657 : 		////////////////////////////////////////
; 1658 : 		case COCKPIT_PANEL_LEVEL_AHEAD:
; 1659 : 		////////////////////////////////////////
; 1660 : 		{
; 1661 : 			x_centre = 102.0;

  00120	f3 0f 10 05 00
	00 00 00	 movss	 xmm0, DWORD PTR __real@42cc0000
  00128	f3 0f 11 45 f8	 movss	 DWORD PTR _x_centre$[ebp], xmm0

; 1662 : 
; 1663 : 			y_centre = 430.0;

  0012d	f3 0f 10 05 00
	00 00 00	 movss	 xmm0, DWORD PTR __real@43d70000
  00135	f3 0f 11 45 f4	 movss	 DWORD PTR _y_centre$[ebp], xmm0

; 1664 : 
; 1665 : 			radar_altimeter_needle_scale = radar_altimeter_needle_scale_level_ahead;

  0013a	c7 45 f0 00 00
	00 00		 mov	 DWORD PTR _radar_altimeter_needle_scale$[ebp], OFFSET ?radar_altimeter_needle_scale_level_ahead@@3PAUSCALE_DATA@@A

; 1666 : 
; 1667 : 			break;

  00141	eb 77		 jmp	 SHORT $LN2@draw_havoc
$LN10@draw_havoc:

; 1668 : 		}
; 1669 : 		////////////////////////////////////////
; 1670 : 		case COCKPIT_PANEL_DOWN20_AHEAD:
; 1671 : 		////////////////////////////////////////
; 1672 : 		{
; 1673 : 			x_centre = 114.0;

  00143	f3 0f 10 05 00
	00 00 00	 movss	 xmm0, DWORD PTR __real@42e40000
  0014b	f3 0f 11 45 f8	 movss	 DWORD PTR _x_centre$[ebp], xmm0

; 1674 : 
; 1675 : 			y_centre = 229.0;

  00150	f3 0f 10 05 00
	00 00 00	 movss	 xmm0, DWORD PTR __real@43650000
  00158	f3 0f 11 45 f4	 movss	 DWORD PTR _y_centre$[ebp], xmm0

; 1676 : 
; 1677 : 			radar_altimeter_needle_scale = radar_altimeter_needle_scale_down_20_ahead;

  0015d	c7 45 f0 00 00
	00 00		 mov	 DWORD PTR _radar_altimeter_needle_scale$[ebp], OFFSET ?radar_altimeter_needle_scale_down_20_ahead@@3PAUSCALE_DATA@@A

; 1678 : 
; 1679 : 			break;

  00164	eb 54		 jmp	 SHORT $LN2@draw_havoc
$LN11@draw_havoc:

; 1680 : 		}
; 1681 : 		////////////////////////////////////////
; 1682 : 		case COCKPIT_PANEL_LEVEL_LEFT30:
; 1683 : 		////////////////////////////////////////
; 1684 : 		{
; 1685 : 			x_centre = 404.0;

  00166	f3 0f 10 05 00
	00 00 00	 movss	 xmm0, DWORD PTR __real@43ca0000
  0016e	f3 0f 11 45 f8	 movss	 DWORD PTR _x_centre$[ebp], xmm0

; 1686 : 
; 1687 : 			y_centre = 419.0;

  00173	f3 0f 10 05 00
	00 00 00	 movss	 xmm0, DWORD PTR __real@43d18000
  0017b	f3 0f 11 45 f4	 movss	 DWORD PTR _y_centre$[ebp], xmm0

; 1688 : 
; 1689 : 			radar_altimeter_needle_scale = radar_altimeter_needle_scale_level_left_30;

  00180	c7 45 f0 00 00
	00 00		 mov	 DWORD PTR _radar_altimeter_needle_scale$[ebp], OFFSET ?radar_altimeter_needle_scale_level_left_30@@3PAUSCALE_DATA@@A

; 1690 : 
; 1691 : 			break;

  00187	eb 31		 jmp	 SHORT $LN2@draw_havoc
$LN12@draw_havoc:

; 1692 : 		}
; 1693 : 		////////////////////////////////////////
; 1694 : 		case COCKPIT_PANEL_DOWN20_LEFT30:
; 1695 : 		////////////////////////////////////////
; 1696 : 		{
; 1697 : 			x_centre = 400.0;

  00189	f3 0f 10 05 00
	00 00 00	 movss	 xmm0, DWORD PTR __real@43c80000
  00191	f3 0f 11 45 f8	 movss	 DWORD PTR _x_centre$[ebp], xmm0

; 1698 : 
; 1699 : 			y_centre = 219.0;

  00196	f3 0f 10 05 00
	00 00 00	 movss	 xmm0, DWORD PTR __real@435b0000
  0019e	f3 0f 11 45 f4	 movss	 DWORD PTR _y_centre$[ebp], xmm0

; 1700 : 
; 1701 : 			radar_altimeter_needle_scale = radar_altimeter_needle_scale_down_20_left_30;

  001a3	c7 45 f0 00 00
	00 00		 mov	 DWORD PTR _radar_altimeter_needle_scale$[ebp], OFFSET ?radar_altimeter_needle_scale_down_20_left_30@@3PAUSCALE_DATA@@A

; 1702 : 
; 1703 : 			break;

  001aa	eb 0e		 jmp	 SHORT $LN2@draw_havoc
$LN13@draw_havoc:

; 1704 : 		}
; 1705 : 		////////////////////////////////////////
; 1706 : 		default:
; 1707 : 		////////////////////////////////////////
; 1708 : 		{
; 1709 : 			debug_fatal (instrument_error);

  001ac	a1 00 00 00 00	 mov	 eax, DWORD PTR ?instrument_error@@3PBDB
  001b1	50		 push	 eax
  001b2	e8 00 00 00 00	 call	 ?debug_fatal@@YAXPBDZZ	; debug_fatal
  001b7	83 c4 04	 add	 esp, 4
$LN2@draw_havoc:

; 1710 : 
; 1711 : 			break;
; 1712 : 		}
; 1713 : 	}
; 1714 : 
; 1715 : 	p = find_scale_value (radar_altimeter_needle_scale, radar_altimeter_needle_value);

  001ba	51		 push	 ecx
  001bb	f3 0f 10 45 fc	 movss	 xmm0, DWORD PTR _radar_altimeter_needle_value$[ebp]
  001c0	f3 0f 11 04 24	 movss	 DWORD PTR [esp], xmm0
  001c5	8b 45 f0	 mov	 eax, DWORD PTR _radar_altimeter_needle_scale$[ebp]
  001c8	50		 push	 eax
  001c9	e8 00 00 00 00	 call	 ?find_scale_value@@YGPAUSCALE_DATA@@PAU1@M@Z ; find_scale_value
  001ce	89 45 ec	 mov	 DWORD PTR _p$[ebp], eax

; 1716 : 
; 1717 : 	draw_line (fx_640_480 + x_centre, fy_640_480 + y_centre, fx_640_480 + p->x, fy_640_480 + p->y, white_needle_colour);

  001d1	a1 00 00 00 00	 mov	 eax, DWORD PTR ?white_needle_colour@@3UREAL_COLOUR@@A
  001d6	50		 push	 eax
  001d7	8b 4d ec	 mov	 ecx, DWORD PTR _p$[ebp]
  001da	0f bf 51 02	 movsx	 edx, WORD PTR [ecx+2]
  001de	f3 0f 2a c2	 cvtsi2ss xmm0, edx
  001e2	f3 0f 58 05 00
	00 00 00	 addss	 xmm0, DWORD PTR ?fy_640_480@@3MA
  001ea	51		 push	 ecx
  001eb	f3 0f 11 04 24	 movss	 DWORD PTR [esp], xmm0
  001f0	8b 45 ec	 mov	 eax, DWORD PTR _p$[ebp]
  001f3	0f bf 08	 movsx	 ecx, WORD PTR [eax]
  001f6	f3 0f 2a c1	 cvtsi2ss xmm0, ecx
  001fa	f3 0f 58 05 00
	00 00 00	 addss	 xmm0, DWORD PTR ?fx_640_480@@3MA
  00202	51		 push	 ecx
  00203	f3 0f 11 04 24	 movss	 DWORD PTR [esp], xmm0
  00208	f3 0f 10 05 00
	00 00 00	 movss	 xmm0, DWORD PTR ?fy_640_480@@3MA
  00210	f3 0f 58 45 f4	 addss	 xmm0, DWORD PTR _y_centre$[ebp]
  00215	51		 push	 ecx
  00216	f3 0f 11 04 24	 movss	 DWORD PTR [esp], xmm0
  0021b	f3 0f 10 05 00
	00 00 00	 movss	 xmm0, DWORD PTR ?fx_640_480@@3MA
  00223	f3 0f 58 45 f8	 addss	 xmm0, DWORD PTR _x_centre$[ebp]
  00228	51		 push	 ecx
  00229	f3 0f 11 04 24	 movss	 DWORD PTR [esp], xmm0
  0022e	e8 00 00 00 00	 call	 ?draw_line@@YGXMMMMUREAL_COLOUR@@@Z ; draw_line

; 1718 : 
; 1719 : 	if (test_cockpit_instruments && DEBUG_MODULE)

  00233	83 3d 00 00 00
	00 00		 cmp	 DWORD PTR ?test_cockpit_instruments@@3HA, 0 ; test_cockpit_instruments
  0023a	0f 84 98 00 00
	00		 je	 $LN14@draw_havoc
  00240	33 c0		 xor	 eax, eax
  00242	0f 84 90 00 00
	00		 je	 $LN14@draw_havoc

; 1720 : 	{
; 1721 : 		test_scale (radar_altimeter_needle_scale, 0.0, 80.0, 20.0);

  00248	51		 push	 ecx
  00249	f3 0f 10 05 00
	00 00 00	 movss	 xmm0, DWORD PTR __real@41a00000
  00251	f3 0f 11 04 24	 movss	 DWORD PTR [esp], xmm0
  00256	51		 push	 ecx
  00257	f3 0f 10 05 00
	00 00 00	 movss	 xmm0, DWORD PTR __real@42a00000
  0025f	f3 0f 11 04 24	 movss	 DWORD PTR [esp], xmm0
  00264	51		 push	 ecx
  00265	0f 57 c0	 xorps	 xmm0, xmm0
  00268	f3 0f 11 04 24	 movss	 DWORD PTR [esp], xmm0
  0026d	8b 45 f0	 mov	 eax, DWORD PTR _radar_altimeter_needle_scale$[ebp]
  00270	50		 push	 eax
  00271	e8 00 00 00 00	 call	 ?test_scale@@YGXPAUSCALE_DATA@@MMM@Z ; test_scale

; 1722 : 
; 1723 : 		test_scale (radar_altimeter_needle_scale, 100.0, 300.0, 100.0);

  00276	51		 push	 ecx
  00277	f3 0f 10 05 00
	00 00 00	 movss	 xmm0, DWORD PTR __real@42c80000
  0027f	f3 0f 11 04 24	 movss	 DWORD PTR [esp], xmm0
  00284	51		 push	 ecx
  00285	f3 0f 10 05 00
	00 00 00	 movss	 xmm0, DWORD PTR __real@43960000
  0028d	f3 0f 11 04 24	 movss	 DWORD PTR [esp], xmm0
  00292	51		 push	 ecx
  00293	f3 0f 10 05 00
	00 00 00	 movss	 xmm0, DWORD PTR __real@42c80000
  0029b	f3 0f 11 04 24	 movss	 DWORD PTR [esp], xmm0
  002a0	8b 45 f0	 mov	 eax, DWORD PTR _radar_altimeter_needle_scale$[ebp]
  002a3	50		 push	 eax
  002a4	e8 00 00 00 00	 call	 ?test_scale@@YGXPAUSCALE_DATA@@MMM@Z ; test_scale

; 1724 : 
; 1725 : 		set_pixel (ix_640_480 + x_centre, iy_640_480 + y_centre, sys_col_red);

  002a9	a1 00 00 00 00	 mov	 eax, DWORD PTR ?sys_col_red@@3UREAL_COLOUR@@A ; sys_col_red
  002ae	50		 push	 eax
  002af	f3 0f 2a 05 00
	00 00 00	 cvtsi2ss xmm0, DWORD PTR ?iy_640_480@@3HA ; iy_640_480
  002b7	f3 0f 58 45 f4	 addss	 xmm0, DWORD PTR _y_centre$[ebp]
  002bc	f3 0f 2c c8	 cvttss2si ecx, xmm0
  002c0	51		 push	 ecx
  002c1	f3 0f 2a 05 00
	00 00 00	 cvtsi2ss xmm0, DWORD PTR ?ix_640_480@@3HA ; ix_640_480
  002c9	f3 0f 58 45 f8	 addss	 xmm0, DWORD PTR _x_centre$[ebp]
  002ce	f3 0f 2c d0	 cvttss2si edx, xmm0
  002d2	52		 push	 edx
  002d3	e8 00 00 00 00	 call	 ?set_pixel@@YGXHHUREAL_COLOUR@@@Z ; set_pixel
$LN14@draw_havoc:

; 1726 : 	}
; 1727 : }

  002d8	5f		 pop	 edi
  002d9	5e		 pop	 esi
  002da	5b		 pop	 ebx
  002db	8b e5		 mov	 esp, ebp
  002dd	5d		 pop	 ebp
  002de	c2 04 00	 ret	 4
  002e1	0f 1f 00	 npad	 3
$LN20@draw_havoc:
  002e4	00 00 00 00	 DD	 $LN11@draw_havoc
  002e8	00 00 00 00	 DD	 $LN9@draw_havoc
  002ec	00 00 00 00	 DD	 $LN13@draw_havoc
  002f0	00 00 00 00	 DD	 $LN13@draw_havoc
  002f4	00 00 00 00	 DD	 $LN13@draw_havoc
  002f8	00 00 00 00	 DD	 $LN13@draw_havoc
  002fc	00 00 00 00	 DD	 $LN13@draw_havoc
  00300	00 00 00 00	 DD	 $LN12@draw_havoc
  00304	00 00 00 00	 DD	 $LN10@draw_havoc
?draw_havoc_radar_altimeter@@YGXW4COCKPIT_PANELS@@@Z ENDP ; draw_havoc_radar_altimeter
_TEXT	ENDS
; Function compile flags: /Odtp /ZI
; File c:\users\nhv90\projects\eech\aphavoc\source\gunships\cockpits\havoc\ha_instr.c
;	COMDAT ?draw_havoc_clock@@YGXW4COCKPIT_PANELS@@@Z
_TEXT	SEGMENT
tv94 = -112						; size = 4
tv136 = -108						; size = 4
tv86 = -108						; size = 4
_p$ = -40						; size = 4
_second_hand_scale$ = -36				; size = 4
_minute_hand_scale$ = -32				; size = 4
_hour_hand_scale$ = -28					; size = 4
_y_centre$ = -24					; size = 4
_x_centre$ = -20					; size = 4
_second_hand_value$ = -16				; size = 4
_minute_hand_value$ = -12				; size = 4
_hour_hand_value$ = -8					; size = 4
_time_of_day$ = -4					; size = 4
_panel$ = 8						; size = 4
?draw_havoc_clock@@YGXW4COCKPIT_PANELS@@@Z PROC		; draw_havoc_clock, COMDAT

; 1486 : {

  00000	55		 push	 ebp
  00001	8b ec		 mov	 ebp, esp
  00003	83 ec 70	 sub	 esp, 112		; 00000070H
  00006	53		 push	 ebx
  00007	56		 push	 esi
  00008	57		 push	 edi

; 1487 : 	float
; 1488 : 		time_of_day,
; 1489 : 		hour_hand_value,
; 1490 : 		minute_hand_value,
; 1491 : 		second_hand_value,
; 1492 : 		x_centre,
; 1493 : 		y_centre;
; 1494 : 
; 1495 : 	scale_data
; 1496 : 		*hour_hand_scale,
; 1497 : 		*minute_hand_scale,
; 1498 : 		*second_hand_scale,
; 1499 : 		*p;
; 1500 : 
; 1501 : 	if (test_cockpit_instruments)

  00009	83 3d 00 00 00
	00 00		 cmp	 DWORD PTR ?test_cockpit_instruments@@3HA, 0 ; test_cockpit_instruments
  00010	0f 84 d7 00 00
	00		 je	 $LN4@draw_havoc

; 1502 : 	{
; 1503 : 		static float
; 1504 : 			hour_value = 0.0,
; 1505 : 			minute_value = 30.0,
; 1506 : 			second_value = 0.0;
; 1507 : 
; 1508 : 		hour_value += 0.1;

  00016	f3 0f 5a 05 00
	00 00 00	 cvtss2sd xmm0, DWORD PTR ?hour_value@?4??draw_havoc_clock@@YGXW4COCKPIT_PANELS@@@Z@4MA
  0001e	f2 0f 58 05 00
	00 00 00	 addsd	 xmm0, QWORD PTR __real@3fb999999999999a
  00026	f2 0f 5a c0	 cvtsd2ss xmm0, xmm0
  0002a	f3 0f 11 05 00
	00 00 00	 movss	 DWORD PTR ?hour_value@?4??draw_havoc_clock@@YGXW4COCKPIT_PANELS@@@Z@4MA, xmm0

; 1509 : 
; 1510 : 		if (hour_value >= 12.0)

  00032	f3 0f 5a 05 00
	00 00 00	 cvtss2sd xmm0, DWORD PTR ?hour_value@?4??draw_havoc_clock@@YGXW4COCKPIT_PANELS@@@Z@4MA
  0003a	66 0f 2f 05 00
	00 00 00	 comisd	 xmm0, QWORD PTR __real@4028000000000000
  00042	72 0b		 jb	 SHORT $LN6@draw_havoc

; 1511 : 		{
; 1512 : 			hour_value = 0.0;

  00044	0f 57 c0	 xorps	 xmm0, xmm0
  00047	f3 0f 11 05 00
	00 00 00	 movss	 DWORD PTR ?hour_value@?4??draw_havoc_clock@@YGXW4COCKPIT_PANELS@@@Z@4MA, xmm0
$LN6@draw_havoc:

; 1513 : 		}
; 1514 : 
; 1515 : 		minute_value += 0.5;

  0004f	f3 0f 5a 05 00
	00 00 00	 cvtss2sd xmm0, DWORD PTR ?minute_value@?4??draw_havoc_clock@@YGXW4COCKPIT_PANELS@@@Z@4MA
  00057	f2 0f 58 05 00
	00 00 00	 addsd	 xmm0, QWORD PTR __real@3fe0000000000000
  0005f	f2 0f 5a c0	 cvtsd2ss xmm0, xmm0
  00063	f3 0f 11 05 00
	00 00 00	 movss	 DWORD PTR ?minute_value@?4??draw_havoc_clock@@YGXW4COCKPIT_PANELS@@@Z@4MA, xmm0

; 1516 : 
; 1517 : 		if (minute_value >= 60.0)

  0006b	f3 0f 5a 05 00
	00 00 00	 cvtss2sd xmm0, DWORD PTR ?minute_value@?4??draw_havoc_clock@@YGXW4COCKPIT_PANELS@@@Z@4MA
  00073	66 0f 2f 05 00
	00 00 00	 comisd	 xmm0, QWORD PTR __real@404e000000000000
  0007b	72 0b		 jb	 SHORT $LN7@draw_havoc

; 1518 : 		{
; 1519 : 			minute_value = 0.0;

  0007d	0f 57 c0	 xorps	 xmm0, xmm0
  00080	f3 0f 11 05 00
	00 00 00	 movss	 DWORD PTR ?minute_value@?4??draw_havoc_clock@@YGXW4COCKPIT_PANELS@@@Z@4MA, xmm0
$LN7@draw_havoc:

; 1520 : 		}
; 1521 : 
; 1522 : 		second_value += 1.0;

  00088	f3 0f 5a 05 00
	00 00 00	 cvtss2sd xmm0, DWORD PTR ?second_value@?4??draw_havoc_clock@@YGXW4COCKPIT_PANELS@@@Z@4MA
  00090	f2 0f 58 05 00
	00 00 00	 addsd	 xmm0, QWORD PTR __real@3ff0000000000000
  00098	f2 0f 5a c0	 cvtsd2ss xmm0, xmm0
  0009c	f3 0f 11 05 00
	00 00 00	 movss	 DWORD PTR ?second_value@?4??draw_havoc_clock@@YGXW4COCKPIT_PANELS@@@Z@4MA, xmm0

; 1523 : 
; 1524 : 		if (second_value >= 60.0)

  000a4	f3 0f 5a 05 00
	00 00 00	 cvtss2sd xmm0, DWORD PTR ?second_value@?4??draw_havoc_clock@@YGXW4COCKPIT_PANELS@@@Z@4MA
  000ac	66 0f 2f 05 00
	00 00 00	 comisd	 xmm0, QWORD PTR __real@404e000000000000
  000b4	72 0b		 jb	 SHORT $LN8@draw_havoc

; 1525 : 		{
; 1526 : 			second_value = 0.0;

  000b6	0f 57 c0	 xorps	 xmm0, xmm0
  000b9	f3 0f 11 05 00
	00 00 00	 movss	 DWORD PTR ?second_value@?4??draw_havoc_clock@@YGXW4COCKPIT_PANELS@@@Z@4MA, xmm0
$LN8@draw_havoc:

; 1527 : 		}
; 1528 : 
; 1529 : 		hour_hand_value = hour_value;

  000c1	f3 0f 10 05 00
	00 00 00	 movss	 xmm0, DWORD PTR ?hour_value@?4??draw_havoc_clock@@YGXW4COCKPIT_PANELS@@@Z@4MA
  000c9	f3 0f 11 45 f8	 movss	 DWORD PTR _hour_hand_value$[ebp], xmm0

; 1530 : 
; 1531 : 		minute_hand_value = minute_value;

  000ce	f3 0f 10 05 00
	00 00 00	 movss	 xmm0, DWORD PTR ?minute_value@?4??draw_havoc_clock@@YGXW4COCKPIT_PANELS@@@Z@4MA
  000d6	f3 0f 11 45 f4	 movss	 DWORD PTR _minute_hand_value$[ebp], xmm0

; 1532 : 
; 1533 : 		second_hand_value = second_value;

  000db	f3 0f 10 05 00
	00 00 00	 movss	 xmm0, DWORD PTR ?second_value@?4??draw_havoc_clock@@YGXW4COCKPIT_PANELS@@@Z@4MA
  000e3	f3 0f 11 45 f0	 movss	 DWORD PTR _second_hand_value$[ebp], xmm0

; 1534 : 	}
; 1535 : 	else

  000e8	e9 a7 00 00 00	 jmp	 $LN5@draw_havoc
$LN4@draw_havoc:

; 1536 : 	{
; 1537 : 		time_of_day = get_local_entity_float_value (get_session_entity (), FLOAT_TYPE_TIME_OF_DAY);

  000ed	83 3d 00 00 00
	00 00		 cmp	 DWORD PTR ?session_entity@@3PAUENTITY@@A, 0 ; session_entity
  000f4	74 0c		 je	 SHORT $LN14@draw_havoc
  000f6	a1 00 00 00 00	 mov	 eax, DWORD PTR ?session_entity@@3PAUENTITY@@A ; session_entity
  000fb	8b 08		 mov	 ecx, DWORD PTR [eax]
  000fd	89 4d 94	 mov	 DWORD PTR tv86[ebp], ecx
  00100	eb 21		 jmp	 SHORT $LN15@draw_havoc
$LN14@draw_havoc:
  00102	8b 15 00 00 00
	00		 mov	 edx, DWORD PTR ?__LINE__Var@?0??draw_havoc_clock@@YGXW4COCKPIT_PANELS@@@Z@4JA
  00108	83 c2 33	 add	 edx, 51			; 00000033H
  0010b	52		 push	 edx
  0010c	68 00 00 00 00	 push	 OFFSET ??_C@_0EP@MNOBCBEH@c?3?2users?2nhv90?2projects?2eech?2ap@
  00111	a1 00 00 00 00	 mov	 eax, DWORD PTR ?null_entity_pointer_message@@3PBDB ; null_entity_pointer_message
  00116	50		 push	 eax
  00117	e8 00 00 00 00	 call	 ?process_assert@@YGXPBD0H@Z ; process_assert
  0011c	c7 45 94 00 00
	00 00		 mov	 DWORD PTR tv86[ebp], 0
$LN15@draw_havoc:
  00123	b9 01 00 00 00	 mov	 ecx, 1
  00128	85 c9		 test	 ecx, ecx
  0012a	74 09		 je	 SHORT $LN16@draw_havoc
  0012c	c7 45 90 8e 00
	00 00		 mov	 DWORD PTR tv94[ebp], 142 ; 0000008eH
  00133	eb 21		 jmp	 SHORT $LN17@draw_havoc
$LN16@draw_havoc:
  00135	8b 15 00 00 00
	00		 mov	 edx, DWORD PTR ?__LINE__Var@?0??draw_havoc_clock@@YGXW4COCKPIT_PANELS@@@Z@4JA
  0013b	83 c2 33	 add	 edx, 51			; 00000033H
  0013e	52		 push	 edx
  0013f	68 00 00 00 00	 push	 OFFSET ??_C@_0EP@MNOBCBEH@c?3?2users?2nhv90?2projects?2eech?2ap@
  00144	a1 00 00 00 00	 mov	 eax, DWORD PTR ?overload_invalid_float_type_message@@3PBDB ; overload_invalid_float_type_message
  00149	50		 push	 eax
  0014a	e8 00 00 00 00	 call	 ?process_assert@@YGXPBD0H@Z ; process_assert
  0014f	c7 45 90 00 00
	00 00		 mov	 DWORD PTR tv94[ebp], 0
$LN17@draw_havoc:
  00156	68 8e 00 00 00	 push	 142			; 0000008eH
  0015b	8b 0d 00 00 00
	00		 mov	 ecx, DWORD PTR ?session_entity@@3PAUENTITY@@A ; session_entity
  00161	51		 push	 ecx
  00162	69 55 94 bc 02
	00 00		 imul	 edx, DWORD PTR tv86[ebp], 700
  00169	8b 45 90	 mov	 eax, DWORD PTR tv94[ebp]
  0016c	8b 8c 82 00 00
	00 00		 mov	 ecx, DWORD PTR ?fn_get_local_entity_float_value@@3PAY0KP@P6GMPAUENTITY@@W4FLOAT_TYPES@@@ZA[edx+eax*4]
  00173	ff d1		 call	 ecx
  00175	d9 5d fc	 fstp	 DWORD PTR _time_of_day$[ebp]

; 1538 : 
; 1539 : 		get_analogue_clock_values (time_of_day, &hour_hand_value, &minute_hand_value, &second_hand_value);

  00178	8d 45 f0	 lea	 eax, DWORD PTR _second_hand_value$[ebp]
  0017b	50		 push	 eax
  0017c	8d 4d f4	 lea	 ecx, DWORD PTR _minute_hand_value$[ebp]
  0017f	51		 push	 ecx
  00180	8d 55 f8	 lea	 edx, DWORD PTR _hour_hand_value$[ebp]
  00183	52		 push	 edx
  00184	51		 push	 ecx
  00185	f3 0f 10 45 fc	 movss	 xmm0, DWORD PTR _time_of_day$[ebp]
  0018a	f3 0f 11 04 24	 movss	 DWORD PTR [esp], xmm0
  0018f	e8 00 00 00 00	 call	 ?get_analogue_clock_values@@YGXMPAM00@Z ; get_analogue_clock_values
$LN5@draw_havoc:

; 1540 : 	}
; 1541 : 
; 1542 : 	switch (panel)

  00194	8b 45 08	 mov	 eax, DWORD PTR _panel$[ebp]
  00197	89 45 94	 mov	 DWORD PTR tv136[ebp], eax
  0019a	83 7d 94 17	 cmp	 DWORD PTR tv136[ebp], 23 ; 00000017H
  0019e	74 39		 je	 SHORT $LN10@draw_havoc
  001a0	83 7d 94 18	 cmp	 DWORD PTR tv136[ebp], 24 ; 00000018H
  001a4	74 02		 je	 SHORT $LN9@draw_havoc
  001a6	eb 62		 jmp	 SHORT $LN11@draw_havoc
$LN9@draw_havoc:

; 1543 : 	{
; 1544 : 		////////////////////////////////////////
; 1545 : 		case COCKPIT_PANEL_DOWN20_AHEAD:
; 1546 : 		////////////////////////////////////////
; 1547 : 		{
; 1548 : 			x_centre = 290.0;

  001a8	f3 0f 10 05 00
	00 00 00	 movss	 xmm0, DWORD PTR __real@43910000
  001b0	f3 0f 11 45 ec	 movss	 DWORD PTR _x_centre$[ebp], xmm0

; 1549 : 
; 1550 : 			y_centre = 436.0;

  001b5	f3 0f 10 05 00
	00 00 00	 movss	 xmm0, DWORD PTR __real@43da0000
  001bd	f3 0f 11 45 e8	 movss	 DWORD PTR _y_centre$[ebp], xmm0

; 1551 : 
; 1552 : 			hour_hand_scale = clock_small_hand_scale_down_20_ahead;

  001c2	c7 45 e4 00 00
	00 00		 mov	 DWORD PTR _hour_hand_scale$[ebp], OFFSET ?clock_small_hand_scale_down_20_ahead@@3PAUSCALE_DATA@@A

; 1553 : 
; 1554 : 			minute_hand_scale = clock_large_hand_scale_down_20_ahead;

  001c9	c7 45 e0 00 00
	00 00		 mov	 DWORD PTR _minute_hand_scale$[ebp], OFFSET ?clock_large_hand_scale_down_20_ahead@@3PAUSCALE_DATA@@A

; 1555 : 
; 1556 : 			second_hand_scale = clock_large_hand_scale_down_20_ahead;

  001d0	c7 45 dc 00 00
	00 00		 mov	 DWORD PTR _second_hand_scale$[ebp], OFFSET ?clock_large_hand_scale_down_20_ahead@@3PAUSCALE_DATA@@A

; 1557 : 
; 1558 : 			break;

  001d7	eb 3f		 jmp	 SHORT $LN2@draw_havoc
$LN10@draw_havoc:

; 1559 : 		}
; 1560 : 		////////////////////////////////////////
; 1561 : 		case COCKPIT_PANEL_DOWN20_LEFT30:
; 1562 : 		////////////////////////////////////////
; 1563 : 		{
; 1564 : 			x_centre = 539.0;

  001d9	f3 0f 10 05 00
	00 00 00	 movss	 xmm0, DWORD PTR __real@4406c000
  001e1	f3 0f 11 45 ec	 movss	 DWORD PTR _x_centre$[ebp], xmm0

; 1565 : 
; 1566 : 			y_centre = 469.0;

  001e6	f3 0f 10 05 00
	00 00 00	 movss	 xmm0, DWORD PTR __real@43ea8000
  001ee	f3 0f 11 45 e8	 movss	 DWORD PTR _y_centre$[ebp], xmm0

; 1567 : 
; 1568 : 			hour_hand_scale = clock_small_hand_scale_down_20_left_30;

  001f3	c7 45 e4 00 00
	00 00		 mov	 DWORD PTR _hour_hand_scale$[ebp], OFFSET ?clock_small_hand_scale_down_20_left_30@@3PAUSCALE_DATA@@A

; 1569 : 
; 1570 : 			minute_hand_scale = clock_large_hand_scale_down_20_left_30;

  001fa	c7 45 e0 00 00
	00 00		 mov	 DWORD PTR _minute_hand_scale$[ebp], OFFSET ?clock_large_hand_scale_down_20_left_30@@3PAUSCALE_DATA@@A

; 1571 : 
; 1572 : 			second_hand_scale = clock_large_hand_scale_down_20_left_30;

  00201	c7 45 dc 00 00
	00 00		 mov	 DWORD PTR _second_hand_scale$[ebp], OFFSET ?clock_large_hand_scale_down_20_left_30@@3PAUSCALE_DATA@@A

; 1573 : 
; 1574 : 			break;

  00208	eb 0e		 jmp	 SHORT $LN2@draw_havoc
$LN11@draw_havoc:

; 1575 : 		}
; 1576 : 		////////////////////////////////////////
; 1577 : 		default:
; 1578 : 		////////////////////////////////////////
; 1579 : 		{
; 1580 : 			debug_fatal (instrument_error);

  0020a	a1 00 00 00 00	 mov	 eax, DWORD PTR ?instrument_error@@3PBDB
  0020f	50		 push	 eax
  00210	e8 00 00 00 00	 call	 ?debug_fatal@@YAXPBDZZ	; debug_fatal
  00215	83 c4 04	 add	 esp, 4
$LN2@draw_havoc:

; 1581 : 
; 1582 : 			break;
; 1583 : 		}
; 1584 : 	}
; 1585 : 
; 1586 : 	//
; 1587 : 	// draw second hand over minute hand over hour hand
; 1588 : 	//
; 1589 : 
; 1590 : 	p = find_scale_value (hour_hand_scale, hour_hand_value);

  00218	51		 push	 ecx
  00219	f3 0f 10 45 f8	 movss	 xmm0, DWORD PTR _hour_hand_value$[ebp]
  0021e	f3 0f 11 04 24	 movss	 DWORD PTR [esp], xmm0
  00223	8b 45 e4	 mov	 eax, DWORD PTR _hour_hand_scale$[ebp]
  00226	50		 push	 eax
  00227	e8 00 00 00 00	 call	 ?find_scale_value@@YGPAUSCALE_DATA@@PAU1@M@Z ; find_scale_value
  0022c	89 45 d8	 mov	 DWORD PTR _p$[ebp], eax

; 1591 : 
; 1592 : 	draw_line (fx_640_480 + x_centre, fy_640_480 + y_centre, fx_640_480 + p->x, fy_640_480 + p->y, white_needle_colour);

  0022f	a1 00 00 00 00	 mov	 eax, DWORD PTR ?white_needle_colour@@3UREAL_COLOUR@@A
  00234	50		 push	 eax
  00235	8b 4d d8	 mov	 ecx, DWORD PTR _p$[ebp]
  00238	0f bf 51 02	 movsx	 edx, WORD PTR [ecx+2]
  0023c	f3 0f 2a c2	 cvtsi2ss xmm0, edx
  00240	f3 0f 58 05 00
	00 00 00	 addss	 xmm0, DWORD PTR ?fy_640_480@@3MA
  00248	51		 push	 ecx
  00249	f3 0f 11 04 24	 movss	 DWORD PTR [esp], xmm0
  0024e	8b 45 d8	 mov	 eax, DWORD PTR _p$[ebp]
  00251	0f bf 08	 movsx	 ecx, WORD PTR [eax]
  00254	f3 0f 2a c1	 cvtsi2ss xmm0, ecx
  00258	f3 0f 58 05 00
	00 00 00	 addss	 xmm0, DWORD PTR ?fx_640_480@@3MA
  00260	51		 push	 ecx
  00261	f3 0f 11 04 24	 movss	 DWORD PTR [esp], xmm0
  00266	f3 0f 10 05 00
	00 00 00	 movss	 xmm0, DWORD PTR ?fy_640_480@@3MA
  0026e	f3 0f 58 45 e8	 addss	 xmm0, DWORD PTR _y_centre$[ebp]
  00273	51		 push	 ecx
  00274	f3 0f 11 04 24	 movss	 DWORD PTR [esp], xmm0
  00279	f3 0f 10 05 00
	00 00 00	 movss	 xmm0, DWORD PTR ?fx_640_480@@3MA
  00281	f3 0f 58 45 ec	 addss	 xmm0, DWORD PTR _x_centre$[ebp]
  00286	51		 push	 ecx
  00287	f3 0f 11 04 24	 movss	 DWORD PTR [esp], xmm0
  0028c	e8 00 00 00 00	 call	 ?draw_line@@YGXMMMMUREAL_COLOUR@@@Z ; draw_line

; 1593 : 
; 1594 : 	p = find_scale_value (minute_hand_scale, minute_hand_value);

  00291	51		 push	 ecx
  00292	f3 0f 10 45 f4	 movss	 xmm0, DWORD PTR _minute_hand_value$[ebp]
  00297	f3 0f 11 04 24	 movss	 DWORD PTR [esp], xmm0
  0029c	8b 45 e0	 mov	 eax, DWORD PTR _minute_hand_scale$[ebp]
  0029f	50		 push	 eax
  002a0	e8 00 00 00 00	 call	 ?find_scale_value@@YGPAUSCALE_DATA@@PAU1@M@Z ; find_scale_value
  002a5	89 45 d8	 mov	 DWORD PTR _p$[ebp], eax

; 1595 : 
; 1596 : 	draw_line (fx_640_480 + x_centre, fy_640_480 + y_centre, fx_640_480 + p->x, fy_640_480 + p->y, white_needle_colour);

  002a8	a1 00 00 00 00	 mov	 eax, DWORD PTR ?white_needle_colour@@3UREAL_COLOUR@@A
  002ad	50		 push	 eax
  002ae	8b 4d d8	 mov	 ecx, DWORD PTR _p$[ebp]
  002b1	0f bf 51 02	 movsx	 edx, WORD PTR [ecx+2]
  002b5	f3 0f 2a c2	 cvtsi2ss xmm0, edx
  002b9	f3 0f 58 05 00
	00 00 00	 addss	 xmm0, DWORD PTR ?fy_640_480@@3MA
  002c1	51		 push	 ecx
  002c2	f3 0f 11 04 24	 movss	 DWORD PTR [esp], xmm0
  002c7	8b 45 d8	 mov	 eax, DWORD PTR _p$[ebp]
  002ca	0f bf 08	 movsx	 ecx, WORD PTR [eax]
  002cd	f3 0f 2a c1	 cvtsi2ss xmm0, ecx
  002d1	f3 0f 58 05 00
	00 00 00	 addss	 xmm0, DWORD PTR ?fx_640_480@@3MA
  002d9	51		 push	 ecx
  002da	f3 0f 11 04 24	 movss	 DWORD PTR [esp], xmm0
  002df	f3 0f 10 05 00
	00 00 00	 movss	 xmm0, DWORD PTR ?fy_640_480@@3MA
  002e7	f3 0f 58 45 e8	 addss	 xmm0, DWORD PTR _y_centre$[ebp]
  002ec	51		 push	 ecx
  002ed	f3 0f 11 04 24	 movss	 DWORD PTR [esp], xmm0
  002f2	f3 0f 10 05 00
	00 00 00	 movss	 xmm0, DWORD PTR ?fx_640_480@@3MA
  002fa	f3 0f 58 45 ec	 addss	 xmm0, DWORD PTR _x_centre$[ebp]
  002ff	51		 push	 ecx
  00300	f3 0f 11 04 24	 movss	 DWORD PTR [esp], xmm0
  00305	e8 00 00 00 00	 call	 ?draw_line@@YGXMMMMUREAL_COLOUR@@@Z ; draw_line

; 1597 : 
; 1598 : 	p = find_scale_value (second_hand_scale, second_hand_value);

  0030a	51		 push	 ecx
  0030b	f3 0f 10 45 f0	 movss	 xmm0, DWORD PTR _second_hand_value$[ebp]
  00310	f3 0f 11 04 24	 movss	 DWORD PTR [esp], xmm0
  00315	8b 45 dc	 mov	 eax, DWORD PTR _second_hand_scale$[ebp]
  00318	50		 push	 eax
  00319	e8 00 00 00 00	 call	 ?find_scale_value@@YGPAUSCALE_DATA@@PAU1@M@Z ; find_scale_value
  0031e	89 45 d8	 mov	 DWORD PTR _p$[ebp], eax

; 1599 : 
; 1600 : 	draw_line (fx_640_480 + x_centre, fy_640_480 + y_centre, fx_640_480 + p->x, fy_640_480 + p->y, red_needle_colour);

  00321	a1 00 00 00 00	 mov	 eax, DWORD PTR ?red_needle_colour@@3UREAL_COLOUR@@A
  00326	50		 push	 eax
  00327	8b 4d d8	 mov	 ecx, DWORD PTR _p$[ebp]
  0032a	0f bf 51 02	 movsx	 edx, WORD PTR [ecx+2]
  0032e	f3 0f 2a c2	 cvtsi2ss xmm0, edx
  00332	f3 0f 58 05 00
	00 00 00	 addss	 xmm0, DWORD PTR ?fy_640_480@@3MA
  0033a	51		 push	 ecx
  0033b	f3 0f 11 04 24	 movss	 DWORD PTR [esp], xmm0
  00340	8b 45 d8	 mov	 eax, DWORD PTR _p$[ebp]
  00343	0f bf 08	 movsx	 ecx, WORD PTR [eax]
  00346	f3 0f 2a c1	 cvtsi2ss xmm0, ecx
  0034a	f3 0f 58 05 00
	00 00 00	 addss	 xmm0, DWORD PTR ?fx_640_480@@3MA
  00352	51		 push	 ecx
  00353	f3 0f 11 04 24	 movss	 DWORD PTR [esp], xmm0
  00358	f3 0f 10 05 00
	00 00 00	 movss	 xmm0, DWORD PTR ?fy_640_480@@3MA
  00360	f3 0f 58 45 e8	 addss	 xmm0, DWORD PTR _y_centre$[ebp]
  00365	51		 push	 ecx
  00366	f3 0f 11 04 24	 movss	 DWORD PTR [esp], xmm0
  0036b	f3 0f 10 05 00
	00 00 00	 movss	 xmm0, DWORD PTR ?fx_640_480@@3MA
  00373	f3 0f 58 45 ec	 addss	 xmm0, DWORD PTR _x_centre$[ebp]
  00378	51		 push	 ecx
  00379	f3 0f 11 04 24	 movss	 DWORD PTR [esp], xmm0
  0037e	e8 00 00 00 00	 call	 ?draw_line@@YGXMMMMUREAL_COLOUR@@@Z ; draw_line

; 1601 : 
; 1602 : 	if (test_cockpit_instruments && DEBUG_MODULE)

  00383	83 3d 00 00 00
	00 00		 cmp	 DWORD PTR ?test_cockpit_instruments@@3HA, 0 ; test_cockpit_instruments
  0038a	0f 84 93 00 00
	00		 je	 $LN12@draw_havoc
  00390	33 c0		 xor	 eax, eax
  00392	0f 84 8b 00 00
	00		 je	 $LN12@draw_havoc

; 1603 : 	{
; 1604 : 		test_scale (minute_hand_scale, 0.0, 55.0, 5.0);

  00398	51		 push	 ecx
  00399	f3 0f 10 05 00
	00 00 00	 movss	 xmm0, DWORD PTR __real@40a00000
  003a1	f3 0f 11 04 24	 movss	 DWORD PTR [esp], xmm0
  003a6	51		 push	 ecx
  003a7	f3 0f 10 05 00
	00 00 00	 movss	 xmm0, DWORD PTR __real@425c0000
  003af	f3 0f 11 04 24	 movss	 DWORD PTR [esp], xmm0
  003b4	51		 push	 ecx
  003b5	0f 57 c0	 xorps	 xmm0, xmm0
  003b8	f3 0f 11 04 24	 movss	 DWORD PTR [esp], xmm0
  003bd	8b 45 e0	 mov	 eax, DWORD PTR _minute_hand_scale$[ebp]
  003c0	50		 push	 eax
  003c1	e8 00 00 00 00	 call	 ?test_scale@@YGXPAUSCALE_DATA@@MMM@Z ; test_scale

; 1605 : 
; 1606 : 		test_scale (hour_hand_scale, 0.0, 11.0, 1.0);

  003c6	51		 push	 ecx
  003c7	f3 0f 10 05 00
	00 00 00	 movss	 xmm0, DWORD PTR __real@3f800000
  003cf	f3 0f 11 04 24	 movss	 DWORD PTR [esp], xmm0
  003d4	51		 push	 ecx
  003d5	f3 0f 10 05 00
	00 00 00	 movss	 xmm0, DWORD PTR __real@41300000
  003dd	f3 0f 11 04 24	 movss	 DWORD PTR [esp], xmm0
  003e2	51		 push	 ecx
  003e3	0f 57 c0	 xorps	 xmm0, xmm0
  003e6	f3 0f 11 04 24	 movss	 DWORD PTR [esp], xmm0
  003eb	8b 45 e4	 mov	 eax, DWORD PTR _hour_hand_scale$[ebp]
  003ee	50		 push	 eax
  003ef	e8 00 00 00 00	 call	 ?test_scale@@YGXPAUSCALE_DATA@@MMM@Z ; test_scale

; 1607 : 
; 1608 : 		set_pixel (ix_640_480 + x_centre, iy_640_480 + y_centre, sys_col_red);

  003f4	a1 00 00 00 00	 mov	 eax, DWORD PTR ?sys_col_red@@3UREAL_COLOUR@@A ; sys_col_red
  003f9	50		 push	 eax
  003fa	f3 0f 2a 05 00
	00 00 00	 cvtsi2ss xmm0, DWORD PTR ?iy_640_480@@3HA ; iy_640_480
  00402	f3 0f 58 45 e8	 addss	 xmm0, DWORD PTR _y_centre$[ebp]
  00407	f3 0f 2c c8	 cvttss2si ecx, xmm0
  0040b	51		 push	 ecx
  0040c	f3 0f 2a 05 00
	00 00 00	 cvtsi2ss xmm0, DWORD PTR ?ix_640_480@@3HA ; ix_640_480
  00414	f3 0f 58 45 ec	 addss	 xmm0, DWORD PTR _x_centre$[ebp]
  00419	f3 0f 2c d0	 cvttss2si edx, xmm0
  0041d	52		 push	 edx
  0041e	e8 00 00 00 00	 call	 ?set_pixel@@YGXHHUREAL_COLOUR@@@Z ; set_pixel
$LN12@draw_havoc:

; 1609 : 	}
; 1610 : }

  00423	5f		 pop	 edi
  00424	5e		 pop	 esi
  00425	5b		 pop	 ebx
  00426	8b e5		 mov	 esp, ebp
  00428	5d		 pop	 ebp
  00429	c2 04 00	 ret	 4
?draw_havoc_clock@@YGXW4COCKPIT_PANELS@@@Z ENDP		; draw_havoc_clock
_TEXT	ENDS
; Function compile flags: /Odtp /ZI
; File c:\users\nhv90\projects\eech\aphavoc\source\gunships\cockpits\havoc\ha_instr.c
;	COMDAT ?draw_havoc_vertical_speed_indicator@@YGXW4COCKPIT_PANELS@@@Z
_TEXT	SEGMENT
tv78 = -100						; size = 8
tv79 = -92						; size = 8
tv81 = -88						; size = 4
_p$ = -20						; size = 4
_vertical_speed_needle_scale$ = -16			; size = 4
_y_centre$ = -12					; size = 4
_x_centre$ = -8						; size = 4
_vertical_speed_needle_value$ = -4			; size = 4
_panel$ = 8						; size = 4
?draw_havoc_vertical_speed_indicator@@YGXW4COCKPIT_PANELS@@@Z PROC ; draw_havoc_vertical_speed_indicator, COMDAT

; 1402 : {

  00000	55		 push	 ebp
  00001	8b ec		 mov	 ebp, esp
  00003	83 ec 64	 sub	 esp, 100		; 00000064H
  00006	53		 push	 ebx
  00007	56		 push	 esi
  00008	57		 push	 edi

; 1403 : 	float
; 1404 : 		vertical_speed_needle_value,
; 1405 : 		x_centre,
; 1406 : 		y_centre;
; 1407 : 
; 1408 : 	scale_data
; 1409 : 		*vertical_speed_needle_scale,
; 1410 : 		*p;
; 1411 : 
; 1412 : 	if (test_cockpit_instruments)

  00009	83 3d 00 00 00
	00 00		 cmp	 DWORD PTR ?test_cockpit_instruments@@3HA, 0 ; test_cockpit_instruments
  00010	74 4d		 je	 SHORT $LN4@draw_havoc

; 1413 : 	{
; 1414 : 		static float
; 1415 : 			value = -350.0;
; 1416 : 
; 1417 : 		value += 5.0;

  00012	f3 0f 5a 05 00
	00 00 00	 cvtss2sd xmm0, DWORD PTR ?value@?4??draw_havoc_vertical_speed_indicator@@YGXW4COCKPIT_PANELS@@@Z@4MA
  0001a	f2 0f 58 05 00
	00 00 00	 addsd	 xmm0, QWORD PTR __real@4014000000000000
  00022	f2 0f 5a c0	 cvtsd2ss xmm0, xmm0
  00026	f3 0f 11 05 00
	00 00 00	 movss	 DWORD PTR ?value@?4??draw_havoc_vertical_speed_indicator@@YGXW4COCKPIT_PANELS@@@Z@4MA, xmm0

; 1418 : 
; 1419 : 		if (value > 350.0)

  0002e	f3 0f 5a 05 00
	00 00 00	 cvtss2sd xmm0, DWORD PTR ?value@?4??draw_havoc_vertical_speed_indicator@@YGXW4COCKPIT_PANELS@@@Z@4MA
  00036	66 0f 2f 05 00
	00 00 00	 comisd	 xmm0, QWORD PTR __real@4075e00000000000
  0003e	76 10		 jbe	 SHORT $LN6@draw_havoc

; 1420 : 		{
; 1421 : 			value = -350.0;

  00040	f3 0f 10 05 00
	00 00 00	 movss	 xmm0, DWORD PTR __real@c3af0000
  00048	f3 0f 11 05 00
	00 00 00	 movss	 DWORD PTR ?value@?4??draw_havoc_vertical_speed_indicator@@YGXW4COCKPIT_PANELS@@@Z@4MA, xmm0
$LN6@draw_havoc:

; 1422 : 		}
; 1423 : 
; 1424 : 		vertical_speed_needle_value = value;

  00050	f3 0f 10 05 00
	00 00 00	 movss	 xmm0, DWORD PTR ?value@?4??draw_havoc_vertical_speed_indicator@@YGXW4COCKPIT_PANELS@@@Z@4MA
  00058	f3 0f 11 45 fc	 movss	 DWORD PTR _vertical_speed_needle_value$[ebp], xmm0

; 1425 : 	}
; 1426 : 	else

  0005d	eb 1a		 jmp	 SHORT $LN5@draw_havoc
$LN4@draw_havoc:

; 1427 : 	{
; 1428 : 		vertical_speed_needle_value = metres_per_minute (current_flight_dynamics->world_velocity_y.value);

  0005f	a1 00 00 00 00	 mov	 eax, DWORD PTR ?current_flight_dynamics@@3PAUDYNAMICS_TYPE@@A ; current_flight_dynamics
  00064	f3 0f 10 80 14
	21 00 00	 movss	 xmm0, DWORD PTR [eax+8468]
  0006c	f3 0f 59 05 00
	00 00 00	 mulss	 xmm0, DWORD PTR __real@42700000
  00074	f3 0f 11 45 fc	 movss	 DWORD PTR _vertical_speed_needle_value$[ebp], xmm0
$LN5@draw_havoc:

; 1429 : 	}
; 1430 : 
; 1431 : 	vertical_speed_needle_value = bound (vertical_speed_needle_value, -300.0, 300.0);

  00079	f3 0f 5a 45 fc	 cvtss2sd xmm0, DWORD PTR _vertical_speed_needle_value$[ebp]
  0007e	f2 0f 10 0d 00
	00 00 00	 movsd	 xmm1, QWORD PTR __real@c072c00000000000
  00086	66 0f 2f c8	 comisd	 xmm1, xmm0
  0008a	76 0f		 jbe	 SHORT $LN14@draw_havoc
  0008c	f2 0f 10 05 00
	00 00 00	 movsd	 xmm0, QWORD PTR __real@c072c00000000000
  00094	f2 0f 11 45 a4	 movsd	 QWORD PTR tv79[ebp], xmm0
  00099	eb 32		 jmp	 SHORT $LN15@draw_havoc
$LN14@draw_havoc:
  0009b	f3 0f 5a 45 fc	 cvtss2sd xmm0, DWORD PTR _vertical_speed_needle_value$[ebp]
  000a0	66 0f 2f 05 00
	00 00 00	 comisd	 xmm0, QWORD PTR __real@4072c00000000000
  000a8	76 0f		 jbe	 SHORT $LN12@draw_havoc
  000aa	f2 0f 10 05 00
	00 00 00	 movsd	 xmm0, QWORD PTR __real@4072c00000000000
  000b2	f2 0f 11 45 9c	 movsd	 QWORD PTR tv78[ebp], xmm0
  000b7	eb 0a		 jmp	 SHORT $LN13@draw_havoc
$LN12@draw_havoc:
  000b9	f3 0f 5a 45 fc	 cvtss2sd xmm0, DWORD PTR _vertical_speed_needle_value$[ebp]
  000be	f2 0f 11 45 9c	 movsd	 QWORD PTR tv78[ebp], xmm0
$LN13@draw_havoc:
  000c3	f2 0f 10 45 9c	 movsd	 xmm0, QWORD PTR tv78[ebp]
  000c8	f2 0f 11 45 a4	 movsd	 QWORD PTR tv79[ebp], xmm0
$LN15@draw_havoc:
  000cd	f2 0f 5a 45 a4	 cvtsd2ss xmm0, QWORD PTR tv79[ebp]
  000d2	f3 0f 11 45 fc	 movss	 DWORD PTR _vertical_speed_needle_value$[ebp], xmm0

; 1432 : 
; 1433 : 	switch (panel)

  000d7	8b 45 08	 mov	 eax, DWORD PTR _panel$[ebp]
  000da	89 45 a8	 mov	 DWORD PTR tv81[ebp], eax
  000dd	83 7d a8 17	 cmp	 DWORD PTR tv81[ebp], 23	; 00000017H
  000e1	74 2b		 je	 SHORT $LN8@draw_havoc
  000e3	83 7d a8 18	 cmp	 DWORD PTR tv81[ebp], 24	; 00000018H
  000e7	74 02		 je	 SHORT $LN7@draw_havoc
  000e9	eb 46		 jmp	 SHORT $LN9@draw_havoc
$LN7@draw_havoc:

; 1434 : 	{
; 1435 : 		////////////////////////////////////////
; 1436 : 		case COCKPIT_PANEL_DOWN20_AHEAD:
; 1437 : 		////////////////////////////////////////
; 1438 : 		{
; 1439 : 			x_centre = 135.0;

  000eb	f3 0f 10 05 00
	00 00 00	 movss	 xmm0, DWORD PTR __real@43070000
  000f3	f3 0f 11 45 f8	 movss	 DWORD PTR _x_centre$[ebp], xmm0

; 1440 : 
; 1441 : 			y_centre = 394.0;

  000f8	f3 0f 10 05 00
	00 00 00	 movss	 xmm0, DWORD PTR __real@43c50000
  00100	f3 0f 11 45 f4	 movss	 DWORD PTR _y_centre$[ebp], xmm0

; 1442 : 
; 1443 : 			vertical_speed_needle_scale = vertical_speed_indicator_needle_scale_down_20_ahead;

  00105	c7 45 f0 00 00
	00 00		 mov	 DWORD PTR _vertical_speed_needle_scale$[ebp], OFFSET ?vertical_speed_indicator_needle_scale_down_20_ahead@@3PAUSCALE_DATA@@A

; 1444 : 
; 1445 : 			break;

  0010c	eb 31		 jmp	 SHORT $LN2@draw_havoc
$LN8@draw_havoc:

; 1446 : 		}
; 1447 : 		////////////////////////////////////////
; 1448 : 		case COCKPIT_PANEL_DOWN20_LEFT30:
; 1449 : 		////////////////////////////////////////
; 1450 : 		{
; 1451 : 			x_centre = 391.0;

  0010e	f3 0f 10 05 00
	00 00 00	 movss	 xmm0, DWORD PTR __real@43c38000
  00116	f3 0f 11 45 f8	 movss	 DWORD PTR _x_centre$[ebp], xmm0

; 1452 : 
; 1453 : 			y_centre = 377.0;

  0011b	f3 0f 10 05 00
	00 00 00	 movss	 xmm0, DWORD PTR __real@43bc8000
  00123	f3 0f 11 45 f4	 movss	 DWORD PTR _y_centre$[ebp], xmm0

; 1454 : 
; 1455 : 			vertical_speed_needle_scale = vertical_speed_indicator_needle_scale_down_20_left_30;

  00128	c7 45 f0 00 00
	00 00		 mov	 DWORD PTR _vertical_speed_needle_scale$[ebp], OFFSET ?vertical_speed_indicator_needle_scale_down_20_left_30@@3PAUSCALE_DATA@@A

; 1456 : 
; 1457 : 			break;

  0012f	eb 0e		 jmp	 SHORT $LN2@draw_havoc
$LN9@draw_havoc:

; 1458 : 		}
; 1459 : 		////////////////////////////////////////
; 1460 : 		default:
; 1461 : 		////////////////////////////////////////
; 1462 : 		{
; 1463 : 			debug_fatal (instrument_error);

  00131	a1 00 00 00 00	 mov	 eax, DWORD PTR ?instrument_error@@3PBDB
  00136	50		 push	 eax
  00137	e8 00 00 00 00	 call	 ?debug_fatal@@YAXPBDZZ	; debug_fatal
  0013c	83 c4 04	 add	 esp, 4
$LN2@draw_havoc:

; 1464 : 
; 1465 : 			break;
; 1466 : 		}
; 1467 : 	}
; 1468 : 
; 1469 : 	p = find_scale_value (vertical_speed_needle_scale, vertical_speed_needle_value);

  0013f	51		 push	 ecx
  00140	f3 0f 10 45 fc	 movss	 xmm0, DWORD PTR _vertical_speed_needle_value$[ebp]
  00145	f3 0f 11 04 24	 movss	 DWORD PTR [esp], xmm0
  0014a	8b 45 f0	 mov	 eax, DWORD PTR _vertical_speed_needle_scale$[ebp]
  0014d	50		 push	 eax
  0014e	e8 00 00 00 00	 call	 ?find_scale_value@@YGPAUSCALE_DATA@@PAU1@M@Z ; find_scale_value
  00153	89 45 ec	 mov	 DWORD PTR _p$[ebp], eax

; 1470 : 
; 1471 : 	draw_line (fx_640_480 + x_centre, fy_640_480 + y_centre, fx_640_480 + p->x, fy_640_480 + p->y, white_needle_colour);

  00156	a1 00 00 00 00	 mov	 eax, DWORD PTR ?white_needle_colour@@3UREAL_COLOUR@@A
  0015b	50		 push	 eax
  0015c	8b 4d ec	 mov	 ecx, DWORD PTR _p$[ebp]
  0015f	0f bf 51 02	 movsx	 edx, WORD PTR [ecx+2]
  00163	f3 0f 2a c2	 cvtsi2ss xmm0, edx
  00167	f3 0f 58 05 00
	00 00 00	 addss	 xmm0, DWORD PTR ?fy_640_480@@3MA
  0016f	51		 push	 ecx
  00170	f3 0f 11 04 24	 movss	 DWORD PTR [esp], xmm0
  00175	8b 45 ec	 mov	 eax, DWORD PTR _p$[ebp]
  00178	0f bf 08	 movsx	 ecx, WORD PTR [eax]
  0017b	f3 0f 2a c1	 cvtsi2ss xmm0, ecx
  0017f	f3 0f 58 05 00
	00 00 00	 addss	 xmm0, DWORD PTR ?fx_640_480@@3MA
  00187	51		 push	 ecx
  00188	f3 0f 11 04 24	 movss	 DWORD PTR [esp], xmm0
  0018d	f3 0f 10 05 00
	00 00 00	 movss	 xmm0, DWORD PTR ?fy_640_480@@3MA
  00195	f3 0f 58 45 f4	 addss	 xmm0, DWORD PTR _y_centre$[ebp]
  0019a	51		 push	 ecx
  0019b	f3 0f 11 04 24	 movss	 DWORD PTR [esp], xmm0
  001a0	f3 0f 10 05 00
	00 00 00	 movss	 xmm0, DWORD PTR ?fx_640_480@@3MA
  001a8	f3 0f 58 45 f8	 addss	 xmm0, DWORD PTR _x_centre$[ebp]
  001ad	51		 push	 ecx
  001ae	f3 0f 11 04 24	 movss	 DWORD PTR [esp], xmm0
  001b3	e8 00 00 00 00	 call	 ?draw_line@@YGXMMMMUREAL_COLOUR@@@Z ; draw_line

; 1472 : 
; 1473 : 	if (test_cockpit_instruments && DEBUG_MODULE)

  001b8	83 3d 00 00 00
	00 00		 cmp	 DWORD PTR ?test_cockpit_instruments@@3HA, 0 ; test_cockpit_instruments
  001bf	74 66		 je	 SHORT $LN10@draw_havoc
  001c1	33 c0		 xor	 eax, eax
  001c3	74 62		 je	 SHORT $LN10@draw_havoc

; 1474 : 	{
; 1475 : 		test_scale (vertical_speed_needle_scale, -300.0, 300.0, 50.0);

  001c5	51		 push	 ecx
  001c6	f3 0f 10 05 00
	00 00 00	 movss	 xmm0, DWORD PTR __real@42480000
  001ce	f3 0f 11 04 24	 movss	 DWORD PTR [esp], xmm0
  001d3	51		 push	 ecx
  001d4	f3 0f 10 05 00
	00 00 00	 movss	 xmm0, DWORD PTR __real@43960000
  001dc	f3 0f 11 04 24	 movss	 DWORD PTR [esp], xmm0
  001e1	51		 push	 ecx
  001e2	f3 0f 10 05 00
	00 00 00	 movss	 xmm0, DWORD PTR __real@c3960000
  001ea	f3 0f 11 04 24	 movss	 DWORD PTR [esp], xmm0
  001ef	8b 45 f0	 mov	 eax, DWORD PTR _vertical_speed_needle_scale$[ebp]
  001f2	50		 push	 eax
  001f3	e8 00 00 00 00	 call	 ?test_scale@@YGXPAUSCALE_DATA@@MMM@Z ; test_scale

; 1476 : 
; 1477 : 		set_pixel (ix_640_480 + x_centre, iy_640_480 + y_centre, sys_col_red);

  001f8	a1 00 00 00 00	 mov	 eax, DWORD PTR ?sys_col_red@@3UREAL_COLOUR@@A ; sys_col_red
  001fd	50		 push	 eax
  001fe	f3 0f 2a 05 00
	00 00 00	 cvtsi2ss xmm0, DWORD PTR ?iy_640_480@@3HA ; iy_640_480
  00206	f3 0f 58 45 f4	 addss	 xmm0, DWORD PTR _y_centre$[ebp]
  0020b	f3 0f 2c c8	 cvttss2si ecx, xmm0
  0020f	51		 push	 ecx
  00210	f3 0f 2a 05 00
	00 00 00	 cvtsi2ss xmm0, DWORD PTR ?ix_640_480@@3HA ; ix_640_480
  00218	f3 0f 58 45 f8	 addss	 xmm0, DWORD PTR _x_centre$[ebp]
  0021d	f3 0f 2c d0	 cvttss2si edx, xmm0
  00221	52		 push	 edx
  00222	e8 00 00 00 00	 call	 ?set_pixel@@YGXHHUREAL_COLOUR@@@Z ; set_pixel
$LN10@draw_havoc:

; 1478 : 	}
; 1479 : }

  00227	5f		 pop	 edi
  00228	5e		 pop	 esi
  00229	5b		 pop	 ebx
  0022a	8b e5		 mov	 esp, ebp
  0022c	5d		 pop	 ebp
  0022d	c2 04 00	 ret	 4
?draw_havoc_vertical_speed_indicator@@YGXW4COCKPIT_PANELS@@@Z ENDP ; draw_havoc_vertical_speed_indicator
_TEXT	ENDS
; Function compile flags: /Odtp /ZI
; File c:\users\nhv90\projects\eech\aphavoc\source\gunships\cockpits\havoc\ha_instr.c
;	COMDAT ?draw_havoc_engine_temperature_and_rpm_indicator_ticks@@YGXW4COCKPIT_PANELS@@@Z
_TEXT	SEGMENT
tv64 = -180						; size = 4
_rh_engine_rpm_tick_sprite$ = -112			; size = 28
_lh_engine_rpm_tick_sprite$ = -84			; size = 28
_rh_engine_temperature_tick_sprite$ = -56		; size = 28
_lh_engine_temperature_tick_sprite$ = -28		; size = 28
_panel$ = 8						; size = 4
?draw_havoc_engine_temperature_and_rpm_indicator_ticks@@YGXW4COCKPIT_PANELS@@@Z PROC ; draw_havoc_engine_temperature_and_rpm_indicator_ticks, COMDAT

; 1297 : {

  00000	55		 push	 ebp
  00001	8b ec		 mov	 ebp, esp
  00003	81 ec b4 00 00
	00		 sub	 esp, 180		; 000000b4H
  00009	53		 push	 ebx
  0000a	56		 push	 esi
  0000b	57		 push	 edi

; 1298 : 	rgb_alpha_masked_sprite_data
; 1299 : 		lh_engine_temperature_tick_sprite,
; 1300 : 		rh_engine_temperature_tick_sprite,
; 1301 : 		lh_engine_rpm_tick_sprite,
; 1302 : 		rh_engine_rpm_tick_sprite;
; 1303 : 
; 1304 : 	switch (panel)

  0000c	8b 45 08	 mov	 eax, DWORD PTR _panel$[ebp]
  0000f	89 85 4c ff ff
	ff		 mov	 DWORD PTR tv64[ebp], eax
  00015	83 bd 4c ff ff
	ff 18		 cmp	 DWORD PTR tv64[ebp], 24	; 00000018H
  0001c	74 0e		 je	 SHORT $LN4@draw_havoc
  0001e	83 bd 4c ff ff
	ff 19		 cmp	 DWORD PTR tv64[ebp], 25	; 00000019H
  00025	74 53		 je	 SHORT $LN5@draw_havoc
  00027	e9 9c 00 00 00	 jmp	 $LN6@draw_havoc
$LN4@draw_havoc:

; 1305 : 	{
; 1306 : 		////////////////////////////////////////
; 1307 : 		case COCKPIT_PANEL_DOWN20_AHEAD:
; 1308 : 		////////////////////////////////////////
; 1309 : 		{
; 1310 : 			static rgb_alpha_masked_sprite_data
; 1311 : 				lh_temperature_sprite = {493, 409, 137, 213, 7, 4, 237},
; 1312 : 				rh_temperature_sprite = {517, 409, 161, 213, 7, 4, 237},
; 1313 : 				lh_rpm_sprite = {498, 388, 142, 192, 7, 3, 237},
; 1314 : 				rh_rpm_sprite = {512, 388, 156, 192, 7, 3, 237};
; 1315 : 
; 1316 : 			memcpy (&lh_engine_temperature_tick_sprite, &lh_temperature_sprite, sizeof (rgb_alpha_masked_sprite_data));

  0002c	6a 1c		 push	 28			; 0000001cH
  0002e	68 00 00 00 00	 push	 OFFSET ?lh_temperature_sprite@?4??draw_havoc_engine_temperature_and_rpm_indicator_ticks@@YGXW4COCKPIT_PANELS@@@Z@4URGB_ALPHA_MASKED_SPRITE_DATA@@A
  00033	8d 45 e4	 lea	 eax, DWORD PTR _lh_engine_temperature_tick_sprite$[ebp]
  00036	50		 push	 eax
  00037	e8 00 00 00 00	 call	 _memcpy
  0003c	83 c4 0c	 add	 esp, 12			; 0000000cH

; 1317 : 
; 1318 : 			memcpy (&rh_engine_temperature_tick_sprite, &rh_temperature_sprite, sizeof (rgb_alpha_masked_sprite_data));

  0003f	6a 1c		 push	 28			; 0000001cH
  00041	68 00 00 00 00	 push	 OFFSET ?rh_temperature_sprite@?4??draw_havoc_engine_temperature_and_rpm_indicator_ticks@@YGXW4COCKPIT_PANELS@@@Z@4URGB_ALPHA_MASKED_SPRITE_DATA@@A
  00046	8d 45 c8	 lea	 eax, DWORD PTR _rh_engine_temperature_tick_sprite$[ebp]
  00049	50		 push	 eax
  0004a	e8 00 00 00 00	 call	 _memcpy
  0004f	83 c4 0c	 add	 esp, 12			; 0000000cH

; 1319 : 
; 1320 : 			memcpy (&lh_engine_rpm_tick_sprite, &lh_rpm_sprite, sizeof (rgb_alpha_masked_sprite_data));

  00052	6a 1c		 push	 28			; 0000001cH
  00054	68 00 00 00 00	 push	 OFFSET ?lh_rpm_sprite@?4??draw_havoc_engine_temperature_and_rpm_indicator_ticks@@YGXW4COCKPIT_PANELS@@@Z@4URGB_ALPHA_MASKED_SPRITE_DATA@@A
  00059	8d 45 ac	 lea	 eax, DWORD PTR _lh_engine_rpm_tick_sprite$[ebp]
  0005c	50		 push	 eax
  0005d	e8 00 00 00 00	 call	 _memcpy
  00062	83 c4 0c	 add	 esp, 12			; 0000000cH

; 1321 : 
; 1322 : 			memcpy (&rh_engine_rpm_tick_sprite, &rh_rpm_sprite, sizeof (rgb_alpha_masked_sprite_data));

  00065	6a 1c		 push	 28			; 0000001cH
  00067	68 00 00 00 00	 push	 OFFSET ?rh_rpm_sprite@?4??draw_havoc_engine_temperature_and_rpm_indicator_ticks@@YGXW4COCKPIT_PANELS@@@Z@4URGB_ALPHA_MASKED_SPRITE_DATA@@A
  0006c	8d 45 90	 lea	 eax, DWORD PTR _rh_engine_rpm_tick_sprite$[ebp]
  0006f	50		 push	 eax
  00070	e8 00 00 00 00	 call	 _memcpy
  00075	83 c4 0c	 add	 esp, 12			; 0000000cH

; 1323 : 
; 1324 : 			break;

  00078	eb 5c		 jmp	 SHORT $LN2@draw_havoc
$LN5@draw_havoc:

; 1325 : 		}
; 1326 : 		////////////////////////////////////////
; 1327 : 		case COCKPIT_PANEL_DOWN20_RIGHT30:
; 1328 : 		////////////////////////////////////////
; 1329 : 		{
; 1330 : 			static rgb_alpha_masked_sprite_data
; 1331 : 				lh_temperature_sprite = {241, 393, 177, 217, 7, 5, 237},
; 1332 : 				rh_temperature_sprite = {262, 386, 198, 210, 7, 5, 237},
; 1333 : 				lh_rpm_sprite = {242, 372, 178, 196, 7, 3, 237},
; 1334 : 				rh_rpm_sprite = {255, 368, 191, 192, 6, 3, 237};
; 1335 : 
; 1336 : 			memcpy (&lh_engine_temperature_tick_sprite, &lh_temperature_sprite, sizeof (rgb_alpha_masked_sprite_data));

  0007a	6a 1c		 push	 28			; 0000001cH
  0007c	68 00 00 00 00	 push	 OFFSET ?lh_temperature_sprite@?5??draw_havoc_engine_temperature_and_rpm_indicator_ticks@@YGXW4COCKPIT_PANELS@@@Z@4URGB_ALPHA_MASKED_SPRITE_DATA@@A
  00081	8d 45 e4	 lea	 eax, DWORD PTR _lh_engine_temperature_tick_sprite$[ebp]
  00084	50		 push	 eax
  00085	e8 00 00 00 00	 call	 _memcpy
  0008a	83 c4 0c	 add	 esp, 12			; 0000000cH

; 1337 : 
; 1338 : 			memcpy (&rh_engine_temperature_tick_sprite, &rh_temperature_sprite, sizeof (rgb_alpha_masked_sprite_data));

  0008d	6a 1c		 push	 28			; 0000001cH
  0008f	68 00 00 00 00	 push	 OFFSET ?rh_temperature_sprite@?5??draw_havoc_engine_temperature_and_rpm_indicator_ticks@@YGXW4COCKPIT_PANELS@@@Z@4URGB_ALPHA_MASKED_SPRITE_DATA@@A
  00094	8d 45 c8	 lea	 eax, DWORD PTR _rh_engine_temperature_tick_sprite$[ebp]
  00097	50		 push	 eax
  00098	e8 00 00 00 00	 call	 _memcpy
  0009d	83 c4 0c	 add	 esp, 12			; 0000000cH

; 1339 : 
; 1340 : 			memcpy (&lh_engine_rpm_tick_sprite, &lh_rpm_sprite, sizeof (rgb_alpha_masked_sprite_data));

  000a0	6a 1c		 push	 28			; 0000001cH
  000a2	68 00 00 00 00	 push	 OFFSET ?lh_rpm_sprite@?5??draw_havoc_engine_temperature_and_rpm_indicator_ticks@@YGXW4COCKPIT_PANELS@@@Z@4URGB_ALPHA_MASKED_SPRITE_DATA@@A
  000a7	8d 45 ac	 lea	 eax, DWORD PTR _lh_engine_rpm_tick_sprite$[ebp]
  000aa	50		 push	 eax
  000ab	e8 00 00 00 00	 call	 _memcpy
  000b0	83 c4 0c	 add	 esp, 12			; 0000000cH

; 1341 : 
; 1342 : 			memcpy (&rh_engine_rpm_tick_sprite, &rh_rpm_sprite, sizeof (rgb_alpha_masked_sprite_data));

  000b3	6a 1c		 push	 28			; 0000001cH
  000b5	68 00 00 00 00	 push	 OFFSET ?rh_rpm_sprite@?5??draw_havoc_engine_temperature_and_rpm_indicator_ticks@@YGXW4COCKPIT_PANELS@@@Z@4URGB_ALPHA_MASKED_SPRITE_DATA@@A
  000ba	8d 45 90	 lea	 eax, DWORD PTR _rh_engine_rpm_tick_sprite$[ebp]
  000bd	50		 push	 eax
  000be	e8 00 00 00 00	 call	 _memcpy
  000c3	83 c4 0c	 add	 esp, 12			; 0000000cH

; 1343 : 
; 1344 : 			break;

  000c6	eb 0e		 jmp	 SHORT $LN2@draw_havoc
$LN6@draw_havoc:

; 1345 : 		}
; 1346 : 		////////////////////////////////////////
; 1347 : 		default:
; 1348 : 		////////////////////////////////////////
; 1349 : 		{
; 1350 : 			debug_fatal (instrument_error);

  000c8	a1 00 00 00 00	 mov	 eax, DWORD PTR ?instrument_error@@3PBDB
  000cd	50		 push	 eax
  000ce	e8 00 00 00 00	 call	 ?debug_fatal@@YAXPBDZZ	; debug_fatal
  000d3	83 c4 04	 add	 esp, 4
$LN2@draw_havoc:

; 1351 : 
; 1352 : 			break;
; 1353 : 		}
; 1354 : 	}
; 1355 : 
; 1356 : 	lh_engine_temperature_tick_sprite.x += ix_640_480;

  000d6	8b 45 e4	 mov	 eax, DWORD PTR _lh_engine_temperature_tick_sprite$[ebp]
  000d9	03 05 00 00 00
	00		 add	 eax, DWORD PTR ?ix_640_480@@3HA ; ix_640_480
  000df	89 45 e4	 mov	 DWORD PTR _lh_engine_temperature_tick_sprite$[ebp], eax

; 1357 : 	lh_engine_temperature_tick_sprite.y += iy_640_480;

  000e2	8b 45 e8	 mov	 eax, DWORD PTR _lh_engine_temperature_tick_sprite$[ebp+4]
  000e5	03 05 00 00 00
	00		 add	 eax, DWORD PTR ?iy_640_480@@3HA ; iy_640_480
  000eb	89 45 e8	 mov	 DWORD PTR _lh_engine_temperature_tick_sprite$[ebp+4], eax

; 1358 : 
; 1359 : 	blit_rgb_alpha_masked_sprite

  000ee	8d 45 e4	 lea	 eax, DWORD PTR _lh_engine_temperature_tick_sprite$[ebp]
  000f1	50		 push	 eax
  000f2	8b 0d 00 00 00
	00		 mov	 ecx, DWORD PTR ?base_cockpit_graphics_file@@3W4GRAPHICS_FILE_SPECIFIERS@@A ; base_cockpit_graphics_file
  000f8	83 c1 2c	 add	 ecx, 44			; 0000002cH
  000fb	6b d1 28	 imul	 edx, ecx, 40
  000fe	8b 82 1c 00 00
	00		 mov	 eax, DWORD PTR ?graphics_files@@3PAUFILE_DATA@@A[edx+28]
  00104	50		 push	 eax
  00105	8b 0d 00 00 00
	00		 mov	 ecx, DWORD PTR ?base_cockpit_graphics_file@@3W4GRAPHICS_FILE_SPECIFIERS@@A ; base_cockpit_graphics_file
  0010b	83 c1 2b	 add	 ecx, 43			; 0000002bH
  0010e	6b d1 28	 imul	 edx, ecx, 40
  00111	8b 82 1c 00 00
	00		 mov	 eax, DWORD PTR ?graphics_files@@3PAUFILE_DATA@@A[edx+28]
  00117	50		 push	 eax
  00118	e8 00 00 00 00	 call	 ?blit_rgb_alpha_masked_sprite@@YGXPBE0PBURGB_ALPHA_MASKED_SPRITE_DATA@@@Z ; blit_rgb_alpha_masked_sprite

; 1360 : 	(
; 1361 : 		get_graphics_file_data (base_cockpit_graphics_file + GRAPHICS_COCKPITS_HAVOC_SPRITES),
; 1362 : 		get_graphics_file_data (base_cockpit_graphics_file + GRAPHICS_COCKPITS_HAVOC_SPRITES_MASK),
; 1363 : 		&lh_engine_temperature_tick_sprite
; 1364 : 	);
; 1365 : 
; 1366 : 	rh_engine_temperature_tick_sprite.x += ix_640_480;

  0011d	8b 45 c8	 mov	 eax, DWORD PTR _rh_engine_temperature_tick_sprite$[ebp]
  00120	03 05 00 00 00
	00		 add	 eax, DWORD PTR ?ix_640_480@@3HA ; ix_640_480
  00126	89 45 c8	 mov	 DWORD PTR _rh_engine_temperature_tick_sprite$[ebp], eax

; 1367 : 	rh_engine_temperature_tick_sprite.y += iy_640_480;

  00129	8b 45 cc	 mov	 eax, DWORD PTR _rh_engine_temperature_tick_sprite$[ebp+4]
  0012c	03 05 00 00 00
	00		 add	 eax, DWORD PTR ?iy_640_480@@3HA ; iy_640_480
  00132	89 45 cc	 mov	 DWORD PTR _rh_engine_temperature_tick_sprite$[ebp+4], eax

; 1368 : 
; 1369 : 	blit_rgb_alpha_masked_sprite

  00135	8d 45 c8	 lea	 eax, DWORD PTR _rh_engine_temperature_tick_sprite$[ebp]
  00138	50		 push	 eax
  00139	8b 0d 00 00 00
	00		 mov	 ecx, DWORD PTR ?base_cockpit_graphics_file@@3W4GRAPHICS_FILE_SPECIFIERS@@A ; base_cockpit_graphics_file
  0013f	83 c1 2c	 add	 ecx, 44			; 0000002cH
  00142	6b d1 28	 imul	 edx, ecx, 40
  00145	8b 82 1c 00 00
	00		 mov	 eax, DWORD PTR ?graphics_files@@3PAUFILE_DATA@@A[edx+28]
  0014b	50		 push	 eax
  0014c	8b 0d 00 00 00
	00		 mov	 ecx, DWORD PTR ?base_cockpit_graphics_file@@3W4GRAPHICS_FILE_SPECIFIERS@@A ; base_cockpit_graphics_file
  00152	83 c1 2b	 add	 ecx, 43			; 0000002bH
  00155	6b d1 28	 imul	 edx, ecx, 40
  00158	8b 82 1c 00 00
	00		 mov	 eax, DWORD PTR ?graphics_files@@3PAUFILE_DATA@@A[edx+28]
  0015e	50		 push	 eax
  0015f	e8 00 00 00 00	 call	 ?blit_rgb_alpha_masked_sprite@@YGXPBE0PBURGB_ALPHA_MASKED_SPRITE_DATA@@@Z ; blit_rgb_alpha_masked_sprite

; 1370 : 	(
; 1371 : 		get_graphics_file_data (base_cockpit_graphics_file + GRAPHICS_COCKPITS_HAVOC_SPRITES),
; 1372 : 		get_graphics_file_data (base_cockpit_graphics_file + GRAPHICS_COCKPITS_HAVOC_SPRITES_MASK),
; 1373 : 		&rh_engine_temperature_tick_sprite
; 1374 : 	);
; 1375 : 
; 1376 : 	lh_engine_rpm_tick_sprite.x += ix_640_480;

  00164	8b 45 ac	 mov	 eax, DWORD PTR _lh_engine_rpm_tick_sprite$[ebp]
  00167	03 05 00 00 00
	00		 add	 eax, DWORD PTR ?ix_640_480@@3HA ; ix_640_480
  0016d	89 45 ac	 mov	 DWORD PTR _lh_engine_rpm_tick_sprite$[ebp], eax

; 1377 : 	lh_engine_rpm_tick_sprite.y += iy_640_480;

  00170	8b 45 b0	 mov	 eax, DWORD PTR _lh_engine_rpm_tick_sprite$[ebp+4]
  00173	03 05 00 00 00
	00		 add	 eax, DWORD PTR ?iy_640_480@@3HA ; iy_640_480
  00179	89 45 b0	 mov	 DWORD PTR _lh_engine_rpm_tick_sprite$[ebp+4], eax

; 1378 : 
; 1379 : 	blit_rgb_alpha_masked_sprite

  0017c	8d 45 ac	 lea	 eax, DWORD PTR _lh_engine_rpm_tick_sprite$[ebp]
  0017f	50		 push	 eax
  00180	8b 0d 00 00 00
	00		 mov	 ecx, DWORD PTR ?base_cockpit_graphics_file@@3W4GRAPHICS_FILE_SPECIFIERS@@A ; base_cockpit_graphics_file
  00186	83 c1 2c	 add	 ecx, 44			; 0000002cH
  00189	6b d1 28	 imul	 edx, ecx, 40
  0018c	8b 82 1c 00 00
	00		 mov	 eax, DWORD PTR ?graphics_files@@3PAUFILE_DATA@@A[edx+28]
  00192	50		 push	 eax
  00193	8b 0d 00 00 00
	00		 mov	 ecx, DWORD PTR ?base_cockpit_graphics_file@@3W4GRAPHICS_FILE_SPECIFIERS@@A ; base_cockpit_graphics_file
  00199	83 c1 2b	 add	 ecx, 43			; 0000002bH
  0019c	6b d1 28	 imul	 edx, ecx, 40
  0019f	8b 82 1c 00 00
	00		 mov	 eax, DWORD PTR ?graphics_files@@3PAUFILE_DATA@@A[edx+28]
  001a5	50		 push	 eax
  001a6	e8 00 00 00 00	 call	 ?blit_rgb_alpha_masked_sprite@@YGXPBE0PBURGB_ALPHA_MASKED_SPRITE_DATA@@@Z ; blit_rgb_alpha_masked_sprite

; 1380 : 	(
; 1381 : 		get_graphics_file_data (base_cockpit_graphics_file + GRAPHICS_COCKPITS_HAVOC_SPRITES),
; 1382 : 		get_graphics_file_data (base_cockpit_graphics_file + GRAPHICS_COCKPITS_HAVOC_SPRITES_MASK),
; 1383 : 		&lh_engine_rpm_tick_sprite
; 1384 : 	);
; 1385 : 
; 1386 : 	rh_engine_rpm_tick_sprite.x += ix_640_480;

  001ab	8b 45 90	 mov	 eax, DWORD PTR _rh_engine_rpm_tick_sprite$[ebp]
  001ae	03 05 00 00 00
	00		 add	 eax, DWORD PTR ?ix_640_480@@3HA ; ix_640_480
  001b4	89 45 90	 mov	 DWORD PTR _rh_engine_rpm_tick_sprite$[ebp], eax

; 1387 : 	rh_engine_rpm_tick_sprite.y += iy_640_480;

  001b7	8b 45 94	 mov	 eax, DWORD PTR _rh_engine_rpm_tick_sprite$[ebp+4]
  001ba	03 05 00 00 00
	00		 add	 eax, DWORD PTR ?iy_640_480@@3HA ; iy_640_480
  001c0	89 45 94	 mov	 DWORD PTR _rh_engine_rpm_tick_sprite$[ebp+4], eax

; 1388 : 
; 1389 : 	blit_rgb_alpha_masked_sprite

  001c3	8d 45 90	 lea	 eax, DWORD PTR _rh_engine_rpm_tick_sprite$[ebp]
  001c6	50		 push	 eax
  001c7	8b 0d 00 00 00
	00		 mov	 ecx, DWORD PTR ?base_cockpit_graphics_file@@3W4GRAPHICS_FILE_SPECIFIERS@@A ; base_cockpit_graphics_file
  001cd	83 c1 2c	 add	 ecx, 44			; 0000002cH
  001d0	6b d1 28	 imul	 edx, ecx, 40
  001d3	8b 82 1c 00 00
	00		 mov	 eax, DWORD PTR ?graphics_files@@3PAUFILE_DATA@@A[edx+28]
  001d9	50		 push	 eax
  001da	8b 0d 00 00 00
	00		 mov	 ecx, DWORD PTR ?base_cockpit_graphics_file@@3W4GRAPHICS_FILE_SPECIFIERS@@A ; base_cockpit_graphics_file
  001e0	83 c1 2b	 add	 ecx, 43			; 0000002bH
  001e3	6b d1 28	 imul	 edx, ecx, 40
  001e6	8b 82 1c 00 00
	00		 mov	 eax, DWORD PTR ?graphics_files@@3PAUFILE_DATA@@A[edx+28]
  001ec	50		 push	 eax
  001ed	e8 00 00 00 00	 call	 ?blit_rgb_alpha_masked_sprite@@YGXPBE0PBURGB_ALPHA_MASKED_SPRITE_DATA@@@Z ; blit_rgb_alpha_masked_sprite

; 1390 : 	(
; 1391 : 		get_graphics_file_data (base_cockpit_graphics_file + GRAPHICS_COCKPITS_HAVOC_SPRITES),
; 1392 : 		get_graphics_file_data (base_cockpit_graphics_file + GRAPHICS_COCKPITS_HAVOC_SPRITES_MASK),
; 1393 : 		&rh_engine_rpm_tick_sprite
; 1394 : 	);
; 1395 : }

  001f2	5f		 pop	 edi
  001f3	5e		 pop	 esi
  001f4	5b		 pop	 ebx
  001f5	8b e5		 mov	 esp, ebp
  001f7	5d		 pop	 ebp
  001f8	c2 04 00	 ret	 4
?draw_havoc_engine_temperature_and_rpm_indicator_ticks@@YGXW4COCKPIT_PANELS@@@Z ENDP ; draw_havoc_engine_temperature_and_rpm_indicator_ticks
_TEXT	ENDS
; Function compile flags: /Odtp /ZI
; File c:\users\nhv90\projects\eech\aphavoc\source\gunships\cockpits\havoc\ha_instr.c
;	COMDAT ?draw_havoc_engine_rpm_indicator@@YGXW4COCKPIT_PANELS@@@Z
_TEXT	SEGMENT
tv87 = -112						; size = 8
tv79 = -112						; size = 8
tv88 = -104						; size = 8
tv80 = -104						; size = 8
tv90 = -100						; size = 4
_rh_engine_rpm_indicator_scale3$ = -32			; size = 4
_rh_engine_rpm_indicator_scale2$ = -28			; size = 4
_rh_engine_rpm_indicator_scale1$ = -24			; size = 4
_lh_engine_rpm_indicator_scale3$ = -20			; size = 4
_lh_engine_rpm_indicator_scale2$ = -16			; size = 4
_lh_engine_rpm_indicator_scale1$ = -12			; size = 4
_rh_engine_rpm_indicator_value$ = -8			; size = 4
_lh_engine_rpm_indicator_value$ = -4			; size = 4
_panel$ = 8						; size = 4
?draw_havoc_engine_rpm_indicator@@YGXW4COCKPIT_PANELS@@@Z PROC ; draw_havoc_engine_rpm_indicator, COMDAT

; 1176 : {

  00000	55		 push	 ebp
  00001	8b ec		 mov	 ebp, esp
  00003	83 ec 70	 sub	 esp, 112		; 00000070H
  00006	53		 push	 ebx
  00007	56		 push	 esi
  00008	57		 push	 edi

; 1177 : 	float
; 1178 : 		lh_engine_rpm_indicator_value,
; 1179 : 		rh_engine_rpm_indicator_value;
; 1180 : 
; 1181 : 	scale_data
; 1182 : 		*lh_engine_rpm_indicator_scale1,
; 1183 : 		*lh_engine_rpm_indicator_scale2,
; 1184 : 		*lh_engine_rpm_indicator_scale3,
; 1185 : 		*rh_engine_rpm_indicator_scale1,
; 1186 : 		*rh_engine_rpm_indicator_scale2,
; 1187 : 		*rh_engine_rpm_indicator_scale3;
; 1188 : 
; 1189 : 	if (test_cockpit_instruments)

  00009	83 3d 00 00 00
	00 00		 cmp	 DWORD PTR ?test_cockpit_instruments@@3HA, 0 ; test_cockpit_instruments
  00010	74 5a		 je	 SHORT $LN4@draw_havoc

; 1190 : 	{
; 1191 : 		static float
; 1192 : 			value = -10.0;
; 1193 : 
; 1194 : 		value += 2.0;

  00012	f3 0f 5a 05 00
	00 00 00	 cvtss2sd xmm0, DWORD PTR ?value@?4??draw_havoc_engine_rpm_indicator@@YGXW4COCKPIT_PANELS@@@Z@4MA
  0001a	f2 0f 58 05 00
	00 00 00	 addsd	 xmm0, QWORD PTR __real@4000000000000000
  00022	f2 0f 5a c0	 cvtsd2ss xmm0, xmm0
  00026	f3 0f 11 05 00
	00 00 00	 movss	 DWORD PTR ?value@?4??draw_havoc_engine_rpm_indicator@@YGXW4COCKPIT_PANELS@@@Z@4MA, xmm0

; 1195 : 
; 1196 : 		if (value > 120.0)

  0002e	f3 0f 5a 05 00
	00 00 00	 cvtss2sd xmm0, DWORD PTR ?value@?4??draw_havoc_engine_rpm_indicator@@YGXW4COCKPIT_PANELS@@@Z@4MA
  00036	66 0f 2f 05 00
	00 00 00	 comisd	 xmm0, QWORD PTR __real@405e000000000000
  0003e	76 10		 jbe	 SHORT $LN6@draw_havoc

; 1197 : 		{
; 1198 : 			value = -10.0;

  00040	f3 0f 10 05 00
	00 00 00	 movss	 xmm0, DWORD PTR __real@c1200000
  00048	f3 0f 11 05 00
	00 00 00	 movss	 DWORD PTR ?value@?4??draw_havoc_engine_rpm_indicator@@YGXW4COCKPIT_PANELS@@@Z@4MA, xmm0
$LN6@draw_havoc:

; 1199 : 		}
; 1200 : 
; 1201 : 		lh_engine_rpm_indicator_value = value;

  00050	f3 0f 10 05 00
	00 00 00	 movss	 xmm0, DWORD PTR ?value@?4??draw_havoc_engine_rpm_indicator@@YGXW4COCKPIT_PANELS@@@Z@4MA
  00058	f3 0f 11 45 fc	 movss	 DWORD PTR _lh_engine_rpm_indicator_value$[ebp], xmm0

; 1202 : 
; 1203 : 		rh_engine_rpm_indicator_value = value;

  0005d	f3 0f 10 05 00
	00 00 00	 movss	 xmm0, DWORD PTR ?value@?4??draw_havoc_engine_rpm_indicator@@YGXW4COCKPIT_PANELS@@@Z@4MA
  00065	f3 0f 11 45 f8	 movss	 DWORD PTR _rh_engine_rpm_indicator_value$[ebp], xmm0

; 1204 : 	}
; 1205 : 	else

  0006a	eb 24		 jmp	 SHORT $LN5@draw_havoc
$LN4@draw_havoc:

; 1206 : 	{
; 1207 : 		lh_engine_rpm_indicator_value = current_flight_dynamics->left_engine_rpm.value;

  0006c	a1 00 00 00 00	 mov	 eax, DWORD PTR ?current_flight_dynamics@@3PAUDYNAMICS_TYPE@@A ; current_flight_dynamics
  00071	f3 0f 10 80 7c
	1c 00 00	 movss	 xmm0, DWORD PTR [eax+7292]
  00079	f3 0f 11 45 fc	 movss	 DWORD PTR _lh_engine_rpm_indicator_value$[ebp], xmm0

; 1208 : 
; 1209 : 		rh_engine_rpm_indicator_value = current_flight_dynamics->right_engine_rpm.value;

  0007e	a1 00 00 00 00	 mov	 eax, DWORD PTR ?current_flight_dynamics@@3PAUDYNAMICS_TYPE@@A ; current_flight_dynamics
  00083	f3 0f 10 80 dc
	1c 00 00	 movss	 xmm0, DWORD PTR [eax+7388]
  0008b	f3 0f 11 45 f8	 movss	 DWORD PTR _rh_engine_rpm_indicator_value$[ebp], xmm0
$LN5@draw_havoc:

; 1210 : 	}
; 1211 : 
; 1212 : 	lh_engine_rpm_indicator_value = bound (lh_engine_rpm_indicator_value, 0.0, 110.0);

  00090	f3 0f 5a 45 fc	 cvtss2sd xmm0, DWORD PTR _lh_engine_rpm_indicator_value$[ebp]
  00095	0f 57 c9	 xorps	 xmm1, xmm1
  00098	66 0f 2f c8	 comisd	 xmm1, xmm0
  0009c	76 0a		 jbe	 SHORT $LN14@draw_havoc
  0009e	0f 57 c0	 xorps	 xmm0, xmm0
  000a1	f2 0f 11 45 98	 movsd	 QWORD PTR tv80[ebp], xmm0
  000a6	eb 32		 jmp	 SHORT $LN15@draw_havoc
$LN14@draw_havoc:
  000a8	f3 0f 5a 45 fc	 cvtss2sd xmm0, DWORD PTR _lh_engine_rpm_indicator_value$[ebp]
  000ad	66 0f 2f 05 00
	00 00 00	 comisd	 xmm0, QWORD PTR __real@405b800000000000
  000b5	76 0f		 jbe	 SHORT $LN12@draw_havoc
  000b7	f2 0f 10 05 00
	00 00 00	 movsd	 xmm0, QWORD PTR __real@405b800000000000
  000bf	f2 0f 11 45 90	 movsd	 QWORD PTR tv79[ebp], xmm0
  000c4	eb 0a		 jmp	 SHORT $LN13@draw_havoc
$LN12@draw_havoc:
  000c6	f3 0f 5a 45 fc	 cvtss2sd xmm0, DWORD PTR _lh_engine_rpm_indicator_value$[ebp]
  000cb	f2 0f 11 45 90	 movsd	 QWORD PTR tv79[ebp], xmm0
$LN13@draw_havoc:
  000d0	f2 0f 10 45 90	 movsd	 xmm0, QWORD PTR tv79[ebp]
  000d5	f2 0f 11 45 98	 movsd	 QWORD PTR tv80[ebp], xmm0
$LN15@draw_havoc:
  000da	f2 0f 5a 45 98	 cvtsd2ss xmm0, QWORD PTR tv80[ebp]
  000df	f3 0f 11 45 fc	 movss	 DWORD PTR _lh_engine_rpm_indicator_value$[ebp], xmm0

; 1213 : 
; 1214 : 	rh_engine_rpm_indicator_value = bound (rh_engine_rpm_indicator_value, 0.0, 110.0);

  000e4	f3 0f 5a 45 f8	 cvtss2sd xmm0, DWORD PTR _rh_engine_rpm_indicator_value$[ebp]
  000e9	0f 57 c9	 xorps	 xmm1, xmm1
  000ec	66 0f 2f c8	 comisd	 xmm1, xmm0
  000f0	76 0a		 jbe	 SHORT $LN18@draw_havoc
  000f2	0f 57 c0	 xorps	 xmm0, xmm0
  000f5	f2 0f 11 45 98	 movsd	 QWORD PTR tv88[ebp], xmm0
  000fa	eb 32		 jmp	 SHORT $LN19@draw_havoc
$LN18@draw_havoc:
  000fc	f3 0f 5a 45 f8	 cvtss2sd xmm0, DWORD PTR _rh_engine_rpm_indicator_value$[ebp]
  00101	66 0f 2f 05 00
	00 00 00	 comisd	 xmm0, QWORD PTR __real@405b800000000000
  00109	76 0f		 jbe	 SHORT $LN16@draw_havoc
  0010b	f2 0f 10 05 00
	00 00 00	 movsd	 xmm0, QWORD PTR __real@405b800000000000
  00113	f2 0f 11 45 90	 movsd	 QWORD PTR tv87[ebp], xmm0
  00118	eb 0a		 jmp	 SHORT $LN17@draw_havoc
$LN16@draw_havoc:
  0011a	f3 0f 5a 45 f8	 cvtss2sd xmm0, DWORD PTR _rh_engine_rpm_indicator_value$[ebp]
  0011f	f2 0f 11 45 90	 movsd	 QWORD PTR tv87[ebp], xmm0
$LN17@draw_havoc:
  00124	f2 0f 10 45 90	 movsd	 xmm0, QWORD PTR tv87[ebp]
  00129	f2 0f 11 45 98	 movsd	 QWORD PTR tv88[ebp], xmm0
$LN19@draw_havoc:
  0012e	f2 0f 5a 45 98	 cvtsd2ss xmm0, QWORD PTR tv88[ebp]
  00133	f3 0f 11 45 f8	 movss	 DWORD PTR _rh_engine_rpm_indicator_value$[ebp], xmm0

; 1215 : 
; 1216 : 	switch (panel)

  00138	8b 45 08	 mov	 eax, DWORD PTR _panel$[ebp]
  0013b	89 45 9c	 mov	 DWORD PTR tv90[ebp], eax
  0013e	83 7d 9c 18	 cmp	 DWORD PTR tv90[ebp], 24	; 00000018H
  00142	74 08		 je	 SHORT $LN7@draw_havoc
  00144	83 7d 9c 19	 cmp	 DWORD PTR tv90[ebp], 25	; 00000019H
  00148	74 2e		 je	 SHORT $LN8@draw_havoc
  0014a	eb 58		 jmp	 SHORT $LN9@draw_havoc
$LN7@draw_havoc:

; 1217 : 	{
; 1218 : 		////////////////////////////////////////
; 1219 : 		case COCKPIT_PANEL_DOWN20_AHEAD:
; 1220 : 		////////////////////////////////////////
; 1221 : 		{
; 1222 : 			lh_engine_rpm_indicator_scale1 = lh_engine_rpm_indicator_line1_down_20_ahead;

  0014c	c7 45 f4 00 00
	00 00		 mov	 DWORD PTR _lh_engine_rpm_indicator_scale1$[ebp], OFFSET ?lh_engine_rpm_indicator_line1_down_20_ahead@@3PAUSCALE_DATA@@A

; 1223 : 
; 1224 : 			lh_engine_rpm_indicator_scale2 = lh_engine_rpm_indicator_line2_down_20_ahead;

  00153	c7 45 f0 00 00
	00 00		 mov	 DWORD PTR _lh_engine_rpm_indicator_scale2$[ebp], OFFSET ?lh_engine_rpm_indicator_line2_down_20_ahead@@3PAUSCALE_DATA@@A

; 1225 : 
; 1226 : 			lh_engine_rpm_indicator_scale3 = lh_engine_rpm_indicator_line3_down_20_ahead;

  0015a	c7 45 ec 00 00
	00 00		 mov	 DWORD PTR _lh_engine_rpm_indicator_scale3$[ebp], OFFSET ?lh_engine_rpm_indicator_line3_down_20_ahead@@3PAUSCALE_DATA@@A

; 1227 : 
; 1228 : 			rh_engine_rpm_indicator_scale1 = rh_engine_rpm_indicator_line1_down_20_ahead;

  00161	c7 45 e8 00 00
	00 00		 mov	 DWORD PTR _rh_engine_rpm_indicator_scale1$[ebp], OFFSET ?rh_engine_rpm_indicator_line1_down_20_ahead@@3PAUSCALE_DATA@@A

; 1229 : 
; 1230 : 			rh_engine_rpm_indicator_scale2 = rh_engine_rpm_indicator_line2_down_20_ahead;

  00168	c7 45 e4 00 00
	00 00		 mov	 DWORD PTR _rh_engine_rpm_indicator_scale2$[ebp], OFFSET ?rh_engine_rpm_indicator_line2_down_20_ahead@@3PAUSCALE_DATA@@A

; 1231 : 
; 1232 : 			rh_engine_rpm_indicator_scale3 = rh_engine_rpm_indicator_line3_down_20_ahead;

  0016f	c7 45 e0 00 00
	00 00		 mov	 DWORD PTR _rh_engine_rpm_indicator_scale3$[ebp], OFFSET ?rh_engine_rpm_indicator_line3_down_20_ahead@@3PAUSCALE_DATA@@A

; 1233 : 
; 1234 : 			break;

  00176	eb 3a		 jmp	 SHORT $LN2@draw_havoc
$LN8@draw_havoc:

; 1235 : 		}
; 1236 : 		////////////////////////////////////////
; 1237 : 		case COCKPIT_PANEL_DOWN20_RIGHT30:
; 1238 : 		////////////////////////////////////////
; 1239 : 		{
; 1240 : 			lh_engine_rpm_indicator_scale1 = lh_engine_rpm_indicator_line1_down_20_right_30;

  00178	c7 45 f4 00 00
	00 00		 mov	 DWORD PTR _lh_engine_rpm_indicator_scale1$[ebp], OFFSET ?lh_engine_rpm_indicator_line1_down_20_right_30@@3PAUSCALE_DATA@@A

; 1241 : 
; 1242 : 			lh_engine_rpm_indicator_scale2 = lh_engine_rpm_indicator_line2_down_20_right_30;

  0017f	c7 45 f0 00 00
	00 00		 mov	 DWORD PTR _lh_engine_rpm_indicator_scale2$[ebp], OFFSET ?lh_engine_rpm_indicator_line2_down_20_right_30@@3PAUSCALE_DATA@@A

; 1243 : 
; 1244 : 			lh_engine_rpm_indicator_scale3 = lh_engine_rpm_indicator_line3_down_20_right_30;

  00186	c7 45 ec 00 00
	00 00		 mov	 DWORD PTR _lh_engine_rpm_indicator_scale3$[ebp], OFFSET ?lh_engine_rpm_indicator_line3_down_20_right_30@@3PAUSCALE_DATA@@A

; 1245 : 
; 1246 : 			rh_engine_rpm_indicator_scale1 = rh_engine_rpm_indicator_line1_down_20_right_30;

  0018d	c7 45 e8 00 00
	00 00		 mov	 DWORD PTR _rh_engine_rpm_indicator_scale1$[ebp], OFFSET ?rh_engine_rpm_indicator_line1_down_20_right_30@@3PAUSCALE_DATA@@A

; 1247 : 
; 1248 : 			rh_engine_rpm_indicator_scale2 = rh_engine_rpm_indicator_line2_down_20_right_30;

  00194	c7 45 e4 00 00
	00 00		 mov	 DWORD PTR _rh_engine_rpm_indicator_scale2$[ebp], OFFSET ?rh_engine_rpm_indicator_line2_down_20_right_30@@3PAUSCALE_DATA@@A

; 1249 : 
; 1250 : 			rh_engine_rpm_indicator_scale3 = rh_engine_rpm_indicator_line3_down_20_right_30;

  0019b	c7 45 e0 00 00
	00 00		 mov	 DWORD PTR _rh_engine_rpm_indicator_scale3$[ebp], OFFSET ?rh_engine_rpm_indicator_line3_down_20_right_30@@3PAUSCALE_DATA@@A

; 1251 : 
; 1252 : 			break;

  001a2	eb 0e		 jmp	 SHORT $LN2@draw_havoc
$LN9@draw_havoc:

; 1253 : 		}
; 1254 : 		////////////////////////////////////////
; 1255 : 		default:
; 1256 : 		////////////////////////////////////////
; 1257 : 		{
; 1258 : 			debug_fatal (instrument_error);

  001a4	a1 00 00 00 00	 mov	 eax, DWORD PTR ?instrument_error@@3PBDB
  001a9	50		 push	 eax
  001aa	e8 00 00 00 00	 call	 ?debug_fatal@@YAXPBDZZ	; debug_fatal
  001af	83 c4 04	 add	 esp, 4
$LN2@draw_havoc:

; 1259 : 
; 1260 : 			break;
; 1261 : 		}
; 1262 : 	}
; 1263 : 
; 1264 : 	draw_scale_value (lh_engine_rpm_indicator_scale1, lh_engine_rpm_indicator_value, white_needle_colour);

  001b2	a1 00 00 00 00	 mov	 eax, DWORD PTR ?white_needle_colour@@3UREAL_COLOUR@@A
  001b7	50		 push	 eax
  001b8	51		 push	 ecx
  001b9	f3 0f 10 45 fc	 movss	 xmm0, DWORD PTR _lh_engine_rpm_indicator_value$[ebp]
  001be	f3 0f 11 04 24	 movss	 DWORD PTR [esp], xmm0
  001c3	8b 4d f4	 mov	 ecx, DWORD PTR _lh_engine_rpm_indicator_scale1$[ebp]
  001c6	51		 push	 ecx
  001c7	e8 00 00 00 00	 call	 ?draw_scale_value@@YGXPAUSCALE_DATA@@MUREAL_COLOUR@@@Z ; draw_scale_value

; 1265 : 
; 1266 : 	draw_scale_value (lh_engine_rpm_indicator_scale2, lh_engine_rpm_indicator_value, white_needle_colour);

  001cc	a1 00 00 00 00	 mov	 eax, DWORD PTR ?white_needle_colour@@3UREAL_COLOUR@@A
  001d1	50		 push	 eax
  001d2	51		 push	 ecx
  001d3	f3 0f 10 45 fc	 movss	 xmm0, DWORD PTR _lh_engine_rpm_indicator_value$[ebp]
  001d8	f3 0f 11 04 24	 movss	 DWORD PTR [esp], xmm0
  001dd	8b 4d f0	 mov	 ecx, DWORD PTR _lh_engine_rpm_indicator_scale2$[ebp]
  001e0	51		 push	 ecx
  001e1	e8 00 00 00 00	 call	 ?draw_scale_value@@YGXPAUSCALE_DATA@@MUREAL_COLOUR@@@Z ; draw_scale_value

; 1267 : 
; 1268 : 	draw_scale_value (lh_engine_rpm_indicator_scale3, lh_engine_rpm_indicator_value, white_needle_colour);

  001e6	a1 00 00 00 00	 mov	 eax, DWORD PTR ?white_needle_colour@@3UREAL_COLOUR@@A
  001eb	50		 push	 eax
  001ec	51		 push	 ecx
  001ed	f3 0f 10 45 fc	 movss	 xmm0, DWORD PTR _lh_engine_rpm_indicator_value$[ebp]
  001f2	f3 0f 11 04 24	 movss	 DWORD PTR [esp], xmm0
  001f7	8b 4d ec	 mov	 ecx, DWORD PTR _lh_engine_rpm_indicator_scale3$[ebp]
  001fa	51		 push	 ecx
  001fb	e8 00 00 00 00	 call	 ?draw_scale_value@@YGXPAUSCALE_DATA@@MUREAL_COLOUR@@@Z ; draw_scale_value

; 1269 : 
; 1270 : 	draw_scale_value (rh_engine_rpm_indicator_scale1, rh_engine_rpm_indicator_value, white_needle_colour);

  00200	a1 00 00 00 00	 mov	 eax, DWORD PTR ?white_needle_colour@@3UREAL_COLOUR@@A
  00205	50		 push	 eax
  00206	51		 push	 ecx
  00207	f3 0f 10 45 f8	 movss	 xmm0, DWORD PTR _rh_engine_rpm_indicator_value$[ebp]
  0020c	f3 0f 11 04 24	 movss	 DWORD PTR [esp], xmm0
  00211	8b 4d e8	 mov	 ecx, DWORD PTR _rh_engine_rpm_indicator_scale1$[ebp]
  00214	51		 push	 ecx
  00215	e8 00 00 00 00	 call	 ?draw_scale_value@@YGXPAUSCALE_DATA@@MUREAL_COLOUR@@@Z ; draw_scale_value

; 1271 : 
; 1272 : 	draw_scale_value (rh_engine_rpm_indicator_scale2, rh_engine_rpm_indicator_value, white_needle_colour);

  0021a	a1 00 00 00 00	 mov	 eax, DWORD PTR ?white_needle_colour@@3UREAL_COLOUR@@A
  0021f	50		 push	 eax
  00220	51		 push	 ecx
  00221	f3 0f 10 45 f8	 movss	 xmm0, DWORD PTR _rh_engine_rpm_indicator_value$[ebp]
  00226	f3 0f 11 04 24	 movss	 DWORD PTR [esp], xmm0
  0022b	8b 4d e4	 mov	 ecx, DWORD PTR _rh_engine_rpm_indicator_scale2$[ebp]
  0022e	51		 push	 ecx
  0022f	e8 00 00 00 00	 call	 ?draw_scale_value@@YGXPAUSCALE_DATA@@MUREAL_COLOUR@@@Z ; draw_scale_value

; 1273 : 
; 1274 : 	draw_scale_value (rh_engine_rpm_indicator_scale3, rh_engine_rpm_indicator_value, white_needle_colour);

  00234	a1 00 00 00 00	 mov	 eax, DWORD PTR ?white_needle_colour@@3UREAL_COLOUR@@A
  00239	50		 push	 eax
  0023a	51		 push	 ecx
  0023b	f3 0f 10 45 f8	 movss	 xmm0, DWORD PTR _rh_engine_rpm_indicator_value$[ebp]
  00240	f3 0f 11 04 24	 movss	 DWORD PTR [esp], xmm0
  00245	8b 4d e0	 mov	 ecx, DWORD PTR _rh_engine_rpm_indicator_scale3$[ebp]
  00248	51		 push	 ecx
  00249	e8 00 00 00 00	 call	 ?draw_scale_value@@YGXPAUSCALE_DATA@@MUREAL_COLOUR@@@Z ; draw_scale_value

; 1275 : 
; 1276 : 	if (test_cockpit_instruments && DEBUG_MODULE)

  0024e	83 3d 00 00 00
	00 00		 cmp	 DWORD PTR ?test_cockpit_instruments@@3HA, 0 ; test_cockpit_instruments
  00255	0f 84 1c 01 00
	00		 je	 $LN10@draw_havoc
  0025b	33 c0		 xor	 eax, eax
  0025d	0f 84 14 01 00
	00		 je	 $LN10@draw_havoc

; 1277 : 	{
; 1278 : 		test_scale (lh_engine_rpm_indicator_scale1, 0.0, 110.0, 10.0);

  00263	51		 push	 ecx
  00264	f3 0f 10 05 00
	00 00 00	 movss	 xmm0, DWORD PTR __real@41200000
  0026c	f3 0f 11 04 24	 movss	 DWORD PTR [esp], xmm0
  00271	51		 push	 ecx
  00272	f3 0f 10 05 00
	00 00 00	 movss	 xmm0, DWORD PTR __real@42dc0000
  0027a	f3 0f 11 04 24	 movss	 DWORD PTR [esp], xmm0
  0027f	51		 push	 ecx
  00280	0f 57 c0	 xorps	 xmm0, xmm0
  00283	f3 0f 11 04 24	 movss	 DWORD PTR [esp], xmm0
  00288	8b 45 f4	 mov	 eax, DWORD PTR _lh_engine_rpm_indicator_scale1$[ebp]
  0028b	50		 push	 eax
  0028c	e8 00 00 00 00	 call	 ?test_scale@@YGXPAUSCALE_DATA@@MMM@Z ; test_scale

; 1279 : 
; 1280 : 		test_scale (lh_engine_rpm_indicator_scale2, 0.0, 110.0, 10.0);

  00291	51		 push	 ecx
  00292	f3 0f 10 05 00
	00 00 00	 movss	 xmm0, DWORD PTR __real@41200000
  0029a	f3 0f 11 04 24	 movss	 DWORD PTR [esp], xmm0
  0029f	51		 push	 ecx
  002a0	f3 0f 10 05 00
	00 00 00	 movss	 xmm0, DWORD PTR __real@42dc0000
  002a8	f3 0f 11 04 24	 movss	 DWORD PTR [esp], xmm0
  002ad	51		 push	 ecx
  002ae	0f 57 c0	 xorps	 xmm0, xmm0
  002b1	f3 0f 11 04 24	 movss	 DWORD PTR [esp], xmm0
  002b6	8b 45 f0	 mov	 eax, DWORD PTR _lh_engine_rpm_indicator_scale2$[ebp]
  002b9	50		 push	 eax
  002ba	e8 00 00 00 00	 call	 ?test_scale@@YGXPAUSCALE_DATA@@MMM@Z ; test_scale

; 1281 : 
; 1282 : 		test_scale (lh_engine_rpm_indicator_scale3, 0.0, 110.0, 10.0);

  002bf	51		 push	 ecx
  002c0	f3 0f 10 05 00
	00 00 00	 movss	 xmm0, DWORD PTR __real@41200000
  002c8	f3 0f 11 04 24	 movss	 DWORD PTR [esp], xmm0
  002cd	51		 push	 ecx
  002ce	f3 0f 10 05 00
	00 00 00	 movss	 xmm0, DWORD PTR __real@42dc0000
  002d6	f3 0f 11 04 24	 movss	 DWORD PTR [esp], xmm0
  002db	51		 push	 ecx
  002dc	0f 57 c0	 xorps	 xmm0, xmm0
  002df	f3 0f 11 04 24	 movss	 DWORD PTR [esp], xmm0
  002e4	8b 45 ec	 mov	 eax, DWORD PTR _lh_engine_rpm_indicator_scale3$[ebp]
  002e7	50		 push	 eax
  002e8	e8 00 00 00 00	 call	 ?test_scale@@YGXPAUSCALE_DATA@@MMM@Z ; test_scale

; 1283 : 
; 1284 : 		test_scale (rh_engine_rpm_indicator_scale1, 0.0, 110.0, 10.0);

  002ed	51		 push	 ecx
  002ee	f3 0f 10 05 00
	00 00 00	 movss	 xmm0, DWORD PTR __real@41200000
  002f6	f3 0f 11 04 24	 movss	 DWORD PTR [esp], xmm0
  002fb	51		 push	 ecx
  002fc	f3 0f 10 05 00
	00 00 00	 movss	 xmm0, DWORD PTR __real@42dc0000
  00304	f3 0f 11 04 24	 movss	 DWORD PTR [esp], xmm0
  00309	51		 push	 ecx
  0030a	0f 57 c0	 xorps	 xmm0, xmm0
  0030d	f3 0f 11 04 24	 movss	 DWORD PTR [esp], xmm0
  00312	8b 45 e8	 mov	 eax, DWORD PTR _rh_engine_rpm_indicator_scale1$[ebp]
  00315	50		 push	 eax
  00316	e8 00 00 00 00	 call	 ?test_scale@@YGXPAUSCALE_DATA@@MMM@Z ; test_scale

; 1285 : 
; 1286 : 		test_scale (rh_engine_rpm_indicator_scale2, 0.0, 110.0, 10.0);

  0031b	51		 push	 ecx
  0031c	f3 0f 10 05 00
	00 00 00	 movss	 xmm0, DWORD PTR __real@41200000
  00324	f3 0f 11 04 24	 movss	 DWORD PTR [esp], xmm0
  00329	51		 push	 ecx
  0032a	f3 0f 10 05 00
	00 00 00	 movss	 xmm0, DWORD PTR __real@42dc0000
  00332	f3 0f 11 04 24	 movss	 DWORD PTR [esp], xmm0
  00337	51		 push	 ecx
  00338	0f 57 c0	 xorps	 xmm0, xmm0
  0033b	f3 0f 11 04 24	 movss	 DWORD PTR [esp], xmm0
  00340	8b 45 e4	 mov	 eax, DWORD PTR _rh_engine_rpm_indicator_scale2$[ebp]
  00343	50		 push	 eax
  00344	e8 00 00 00 00	 call	 ?test_scale@@YGXPAUSCALE_DATA@@MMM@Z ; test_scale

; 1287 : 
; 1288 : 		test_scale (rh_engine_rpm_indicator_scale3, 0.0, 110.0, 10.0);

  00349	51		 push	 ecx
  0034a	f3 0f 10 05 00
	00 00 00	 movss	 xmm0, DWORD PTR __real@41200000
  00352	f3 0f 11 04 24	 movss	 DWORD PTR [esp], xmm0
  00357	51		 push	 ecx
  00358	f3 0f 10 05 00
	00 00 00	 movss	 xmm0, DWORD PTR __real@42dc0000
  00360	f3 0f 11 04 24	 movss	 DWORD PTR [esp], xmm0
  00365	51		 push	 ecx
  00366	0f 57 c0	 xorps	 xmm0, xmm0
  00369	f3 0f 11 04 24	 movss	 DWORD PTR [esp], xmm0
  0036e	8b 45 e0	 mov	 eax, DWORD PTR _rh_engine_rpm_indicator_scale3$[ebp]
  00371	50		 push	 eax
  00372	e8 00 00 00 00	 call	 ?test_scale@@YGXPAUSCALE_DATA@@MMM@Z ; test_scale
$LN10@draw_havoc:

; 1289 : 	}
; 1290 : }

  00377	5f		 pop	 edi
  00378	5e		 pop	 esi
  00379	5b		 pop	 ebx
  0037a	8b e5		 mov	 esp, ebp
  0037c	5d		 pop	 ebp
  0037d	c2 04 00	 ret	 4
?draw_havoc_engine_rpm_indicator@@YGXW4COCKPIT_PANELS@@@Z ENDP ; draw_havoc_engine_rpm_indicator
_TEXT	ENDS
; Function compile flags: /Odtp /ZI
; File c:\users\nhv90\projects\eech\aphavoc\source\gunships\cockpits\havoc\ha_instr.c
;	COMDAT ?draw_havoc_engine_temperature_indicator@@YGXW4COCKPIT_PANELS@@@Z
_TEXT	SEGMENT
tv87 = -96						; size = 8
tv79 = -96						; size = 8
tv88 = -88						; size = 8
tv80 = -88						; size = 8
tv90 = -84						; size = 4
_rh_engine_temperature_indicator_scale$ = -16		; size = 4
_lh_engine_temperature_indicator_scale$ = -12		; size = 4
_rh_engine_temperature_indicator_value$ = -8		; size = 4
_lh_engine_temperature_indicator_value$ = -4		; size = 4
_panel$ = 8						; size = 4
?draw_havoc_engine_temperature_indicator@@YGXW4COCKPIT_PANELS@@@Z PROC ; draw_havoc_engine_temperature_indicator, COMDAT

; 1091 : {

  00000	55		 push	 ebp
  00001	8b ec		 mov	 ebp, esp
  00003	83 ec 60	 sub	 esp, 96			; 00000060H
  00006	53		 push	 ebx
  00007	56		 push	 esi
  00008	57		 push	 edi

; 1092 : 	float
; 1093 : 		lh_engine_temperature_indicator_value,
; 1094 : 		rh_engine_temperature_indicator_value;
; 1095 : 
; 1096 : 	scale_data
; 1097 : 		*lh_engine_temperature_indicator_scale,
; 1098 : 		*rh_engine_temperature_indicator_scale;
; 1099 : 
; 1100 : 	if (test_cockpit_instruments)

  00009	83 3d 00 00 00
	00 00		 cmp	 DWORD PTR ?test_cockpit_instruments@@3HA, 0 ; test_cockpit_instruments
  00010	74 5a		 je	 SHORT $LN4@draw_havoc

; 1101 : 	{
; 1102 : 		static float
; 1103 : 			value = -100.0;
; 1104 : 
; 1105 : 		value += 20.0;

  00012	f3 0f 5a 05 00
	00 00 00	 cvtss2sd xmm0, DWORD PTR ?value@?4??draw_havoc_engine_temperature_indicator@@YGXW4COCKPIT_PANELS@@@Z@4MA
  0001a	f2 0f 58 05 00
	00 00 00	 addsd	 xmm0, QWORD PTR __real@4034000000000000
  00022	f2 0f 5a c0	 cvtsd2ss xmm0, xmm0
  00026	f3 0f 11 05 00
	00 00 00	 movss	 DWORD PTR ?value@?4??draw_havoc_engine_temperature_indicator@@YGXW4COCKPIT_PANELS@@@Z@4MA, xmm0

; 1106 : 
; 1107 : 		if (value > 1100.0)

  0002e	f3 0f 5a 05 00
	00 00 00	 cvtss2sd xmm0, DWORD PTR ?value@?4??draw_havoc_engine_temperature_indicator@@YGXW4COCKPIT_PANELS@@@Z@4MA
  00036	66 0f 2f 05 00
	00 00 00	 comisd	 xmm0, QWORD PTR __real@4091300000000000
  0003e	76 10		 jbe	 SHORT $LN6@draw_havoc

; 1108 : 		{
; 1109 : 			value = -100.0;

  00040	f3 0f 10 05 00
	00 00 00	 movss	 xmm0, DWORD PTR __real@c2c80000
  00048	f3 0f 11 05 00
	00 00 00	 movss	 DWORD PTR ?value@?4??draw_havoc_engine_temperature_indicator@@YGXW4COCKPIT_PANELS@@@Z@4MA, xmm0
$LN6@draw_havoc:

; 1110 : 		}
; 1111 : 
; 1112 : 		lh_engine_temperature_indicator_value = value;

  00050	f3 0f 10 05 00
	00 00 00	 movss	 xmm0, DWORD PTR ?value@?4??draw_havoc_engine_temperature_indicator@@YGXW4COCKPIT_PANELS@@@Z@4MA
  00058	f3 0f 11 45 fc	 movss	 DWORD PTR _lh_engine_temperature_indicator_value$[ebp], xmm0

; 1113 : 
; 1114 : 		rh_engine_temperature_indicator_value = value;

  0005d	f3 0f 10 05 00
	00 00 00	 movss	 xmm0, DWORD PTR ?value@?4??draw_havoc_engine_temperature_indicator@@YGXW4COCKPIT_PANELS@@@Z@4MA
  00065	f3 0f 11 45 f8	 movss	 DWORD PTR _rh_engine_temperature_indicator_value$[ebp], xmm0

; 1115 : 	}
; 1116 : 	else

  0006a	eb 24		 jmp	 SHORT $LN5@draw_havoc
$LN4@draw_havoc:

; 1117 : 	{
; 1118 : 		lh_engine_temperature_indicator_value = current_flight_dynamics->left_engine_temp.value;

  0006c	a1 00 00 00 00	 mov	 eax, DWORD PTR ?current_flight_dynamics@@3PAUDYNAMICS_TYPE@@A ; current_flight_dynamics
  00071	f3 0f 10 80 c4
	1c 00 00	 movss	 xmm0, DWORD PTR [eax+7364]
  00079	f3 0f 11 45 fc	 movss	 DWORD PTR _lh_engine_temperature_indicator_value$[ebp], xmm0

; 1119 : 
; 1120 : 		rh_engine_temperature_indicator_value = current_flight_dynamics->right_engine_temp.value;

  0007e	a1 00 00 00 00	 mov	 eax, DWORD PTR ?current_flight_dynamics@@3PAUDYNAMICS_TYPE@@A ; current_flight_dynamics
  00083	f3 0f 10 80 24
	1d 00 00	 movss	 xmm0, DWORD PTR [eax+7460]
  0008b	f3 0f 11 45 f8	 movss	 DWORD PTR _rh_engine_temperature_indicator_value$[ebp], xmm0
$LN5@draw_havoc:

; 1121 : 	}
; 1122 : 
; 1123 : 	lh_engine_temperature_indicator_value = bound (lh_engine_temperature_indicator_value, 0.0, 1000.0);

  00090	f3 0f 5a 45 fc	 cvtss2sd xmm0, DWORD PTR _lh_engine_temperature_indicator_value$[ebp]
  00095	0f 57 c9	 xorps	 xmm1, xmm1
  00098	66 0f 2f c8	 comisd	 xmm1, xmm0
  0009c	76 0a		 jbe	 SHORT $LN14@draw_havoc
  0009e	0f 57 c0	 xorps	 xmm0, xmm0
  000a1	f2 0f 11 45 a8	 movsd	 QWORD PTR tv80[ebp], xmm0
  000a6	eb 32		 jmp	 SHORT $LN15@draw_havoc
$LN14@draw_havoc:
  000a8	f3 0f 5a 45 fc	 cvtss2sd xmm0, DWORD PTR _lh_engine_temperature_indicator_value$[ebp]
  000ad	66 0f 2f 05 00
	00 00 00	 comisd	 xmm0, QWORD PTR __real@408f400000000000
  000b5	76 0f		 jbe	 SHORT $LN12@draw_havoc
  000b7	f2 0f 10 05 00
	00 00 00	 movsd	 xmm0, QWORD PTR __real@408f400000000000
  000bf	f2 0f 11 45 a0	 movsd	 QWORD PTR tv79[ebp], xmm0
  000c4	eb 0a		 jmp	 SHORT $LN13@draw_havoc
$LN12@draw_havoc:
  000c6	f3 0f 5a 45 fc	 cvtss2sd xmm0, DWORD PTR _lh_engine_temperature_indicator_value$[ebp]
  000cb	f2 0f 11 45 a0	 movsd	 QWORD PTR tv79[ebp], xmm0
$LN13@draw_havoc:
  000d0	f2 0f 10 45 a0	 movsd	 xmm0, QWORD PTR tv79[ebp]
  000d5	f2 0f 11 45 a8	 movsd	 QWORD PTR tv80[ebp], xmm0
$LN15@draw_havoc:
  000da	f2 0f 5a 45 a8	 cvtsd2ss xmm0, QWORD PTR tv80[ebp]
  000df	f3 0f 11 45 fc	 movss	 DWORD PTR _lh_engine_temperature_indicator_value$[ebp], xmm0

; 1124 : 
; 1125 : 	rh_engine_temperature_indicator_value = bound (rh_engine_temperature_indicator_value, 0.0, 1000.0);

  000e4	f3 0f 5a 45 f8	 cvtss2sd xmm0, DWORD PTR _rh_engine_temperature_indicator_value$[ebp]
  000e9	0f 57 c9	 xorps	 xmm1, xmm1
  000ec	66 0f 2f c8	 comisd	 xmm1, xmm0
  000f0	76 0a		 jbe	 SHORT $LN18@draw_havoc
  000f2	0f 57 c0	 xorps	 xmm0, xmm0
  000f5	f2 0f 11 45 a8	 movsd	 QWORD PTR tv88[ebp], xmm0
  000fa	eb 32		 jmp	 SHORT $LN19@draw_havoc
$LN18@draw_havoc:
  000fc	f3 0f 5a 45 f8	 cvtss2sd xmm0, DWORD PTR _rh_engine_temperature_indicator_value$[ebp]
  00101	66 0f 2f 05 00
	00 00 00	 comisd	 xmm0, QWORD PTR __real@408f400000000000
  00109	76 0f		 jbe	 SHORT $LN16@draw_havoc
  0010b	f2 0f 10 05 00
	00 00 00	 movsd	 xmm0, QWORD PTR __real@408f400000000000
  00113	f2 0f 11 45 a0	 movsd	 QWORD PTR tv87[ebp], xmm0
  00118	eb 0a		 jmp	 SHORT $LN17@draw_havoc
$LN16@draw_havoc:
  0011a	f3 0f 5a 45 f8	 cvtss2sd xmm0, DWORD PTR _rh_engine_temperature_indicator_value$[ebp]
  0011f	f2 0f 11 45 a0	 movsd	 QWORD PTR tv87[ebp], xmm0
$LN17@draw_havoc:
  00124	f2 0f 10 45 a0	 movsd	 xmm0, QWORD PTR tv87[ebp]
  00129	f2 0f 11 45 a8	 movsd	 QWORD PTR tv88[ebp], xmm0
$LN19@draw_havoc:
  0012e	f2 0f 5a 45 a8	 cvtsd2ss xmm0, QWORD PTR tv88[ebp]
  00133	f3 0f 11 45 f8	 movss	 DWORD PTR _rh_engine_temperature_indicator_value$[ebp], xmm0

; 1126 : 
; 1127 : 	switch (panel)

  00138	8b 45 08	 mov	 eax, DWORD PTR _panel$[ebp]
  0013b	89 45 ac	 mov	 DWORD PTR tv90[ebp], eax
  0013e	83 7d ac 18	 cmp	 DWORD PTR tv90[ebp], 24	; 00000018H
  00142	74 08		 je	 SHORT $LN7@draw_havoc
  00144	83 7d ac 19	 cmp	 DWORD PTR tv90[ebp], 25	; 00000019H
  00148	74 12		 je	 SHORT $LN8@draw_havoc
  0014a	eb 20		 jmp	 SHORT $LN9@draw_havoc
$LN7@draw_havoc:

; 1128 : 	{
; 1129 : 		////////////////////////////////////////
; 1130 : 		case COCKPIT_PANEL_DOWN20_AHEAD:
; 1131 : 		////////////////////////////////////////
; 1132 : 		{
; 1133 : 			lh_engine_temperature_indicator_scale = lh_engine_temperature_indicator_line_down_20_ahead;

  0014c	c7 45 f4 00 00
	00 00		 mov	 DWORD PTR _lh_engine_temperature_indicator_scale$[ebp], OFFSET ?lh_engine_temperature_indicator_line_down_20_ahead@@3PAUSCALE_DATA@@A

; 1134 : 
; 1135 : 			rh_engine_temperature_indicator_scale = rh_engine_temperature_indicator_line_down_20_ahead;

  00153	c7 45 f0 00 00
	00 00		 mov	 DWORD PTR _rh_engine_temperature_indicator_scale$[ebp], OFFSET ?rh_engine_temperature_indicator_line_down_20_ahead@@3PAUSCALE_DATA@@A

; 1136 : 
; 1137 : 			break;

  0015a	eb 1e		 jmp	 SHORT $LN2@draw_havoc
$LN8@draw_havoc:

; 1138 : 		}
; 1139 : 		////////////////////////////////////////
; 1140 : 		case COCKPIT_PANEL_DOWN20_RIGHT30:
; 1141 : 		////////////////////////////////////////
; 1142 : 		{
; 1143 : 			lh_engine_temperature_indicator_scale = lh_engine_temperature_indicator_line_down_20_right_30;

  0015c	c7 45 f4 00 00
	00 00		 mov	 DWORD PTR _lh_engine_temperature_indicator_scale$[ebp], OFFSET ?lh_engine_temperature_indicator_line_down_20_right_30@@3PAUSCALE_DATA@@A

; 1144 : 
; 1145 : 			rh_engine_temperature_indicator_scale = rh_engine_temperature_indicator_line_down_20_right_30;

  00163	c7 45 f0 00 00
	00 00		 mov	 DWORD PTR _rh_engine_temperature_indicator_scale$[ebp], OFFSET ?rh_engine_temperature_indicator_line_down_20_right_30@@3PAUSCALE_DATA@@A

; 1146 : 
; 1147 : 			break;

  0016a	eb 0e		 jmp	 SHORT $LN2@draw_havoc
$LN9@draw_havoc:

; 1148 : 		}
; 1149 : 		////////////////////////////////////////
; 1150 : 		default:
; 1151 : 		////////////////////////////////////////
; 1152 : 		{
; 1153 : 			debug_fatal (instrument_error);

  0016c	a1 00 00 00 00	 mov	 eax, DWORD PTR ?instrument_error@@3PBDB
  00171	50		 push	 eax
  00172	e8 00 00 00 00	 call	 ?debug_fatal@@YAXPBDZZ	; debug_fatal
  00177	83 c4 04	 add	 esp, 4
$LN2@draw_havoc:

; 1154 : 
; 1155 : 			break;
; 1156 : 		}
; 1157 : 	}
; 1158 : 
; 1159 : 	draw_scale_value (lh_engine_temperature_indicator_scale, lh_engine_temperature_indicator_value, orange_needle_colour);

  0017a	a1 00 00 00 00	 mov	 eax, DWORD PTR ?orange_needle_colour@@3UREAL_COLOUR@@A
  0017f	50		 push	 eax
  00180	51		 push	 ecx
  00181	f3 0f 10 45 fc	 movss	 xmm0, DWORD PTR _lh_engine_temperature_indicator_value$[ebp]
  00186	f3 0f 11 04 24	 movss	 DWORD PTR [esp], xmm0
  0018b	8b 4d f4	 mov	 ecx, DWORD PTR _lh_engine_temperature_indicator_scale$[ebp]
  0018e	51		 push	 ecx
  0018f	e8 00 00 00 00	 call	 ?draw_scale_value@@YGXPAUSCALE_DATA@@MUREAL_COLOUR@@@Z ; draw_scale_value

; 1160 : 
; 1161 : 	draw_scale_value (rh_engine_temperature_indicator_scale, rh_engine_temperature_indicator_value, orange_needle_colour);

  00194	a1 00 00 00 00	 mov	 eax, DWORD PTR ?orange_needle_colour@@3UREAL_COLOUR@@A
  00199	50		 push	 eax
  0019a	51		 push	 ecx
  0019b	f3 0f 10 45 f8	 movss	 xmm0, DWORD PTR _rh_engine_temperature_indicator_value$[ebp]
  001a0	f3 0f 11 04 24	 movss	 DWORD PTR [esp], xmm0
  001a5	8b 4d f0	 mov	 ecx, DWORD PTR _rh_engine_temperature_indicator_scale$[ebp]
  001a8	51		 push	 ecx
  001a9	e8 00 00 00 00	 call	 ?draw_scale_value@@YGXPAUSCALE_DATA@@MUREAL_COLOUR@@@Z ; draw_scale_value

; 1162 : 
; 1163 : 	if (test_cockpit_instruments && DEBUG_MODULE)

  001ae	83 3d 00 00 00
	00 00		 cmp	 DWORD PTR ?test_cockpit_instruments@@3HA, 0 ; test_cockpit_instruments
  001b5	74 60		 je	 SHORT $LN10@draw_havoc
  001b7	33 c0		 xor	 eax, eax
  001b9	74 5c		 je	 SHORT $LN10@draw_havoc

; 1164 : 	{
; 1165 : 		test_scale (lh_engine_temperature_indicator_scale, 0.0, 1000.0, 100.0);

  001bb	51		 push	 ecx
  001bc	f3 0f 10 05 00
	00 00 00	 movss	 xmm0, DWORD PTR __real@42c80000
  001c4	f3 0f 11 04 24	 movss	 DWORD PTR [esp], xmm0
  001c9	51		 push	 ecx
  001ca	f3 0f 10 05 00
	00 00 00	 movss	 xmm0, DWORD PTR __real@447a0000
  001d2	f3 0f 11 04 24	 movss	 DWORD PTR [esp], xmm0
  001d7	51		 push	 ecx
  001d8	0f 57 c0	 xorps	 xmm0, xmm0
  001db	f3 0f 11 04 24	 movss	 DWORD PTR [esp], xmm0
  001e0	8b 45 f4	 mov	 eax, DWORD PTR _lh_engine_temperature_indicator_scale$[ebp]
  001e3	50		 push	 eax
  001e4	e8 00 00 00 00	 call	 ?test_scale@@YGXPAUSCALE_DATA@@MMM@Z ; test_scale

; 1166 : 
; 1167 : 		test_scale (rh_engine_temperature_indicator_scale, 0.0, 1000.0, 100.0);

  001e9	51		 push	 ecx
  001ea	f3 0f 10 05 00
	00 00 00	 movss	 xmm0, DWORD PTR __real@42c80000
  001f2	f3 0f 11 04 24	 movss	 DWORD PTR [esp], xmm0
  001f7	51		 push	 ecx
  001f8	f3 0f 10 05 00
	00 00 00	 movss	 xmm0, DWORD PTR __real@447a0000
  00200	f3 0f 11 04 24	 movss	 DWORD PTR [esp], xmm0
  00205	51		 push	 ecx
  00206	0f 57 c0	 xorps	 xmm0, xmm0
  00209	f3 0f 11 04 24	 movss	 DWORD PTR [esp], xmm0
  0020e	8b 45 f0	 mov	 eax, DWORD PTR _rh_engine_temperature_indicator_scale$[ebp]
  00211	50		 push	 eax
  00212	e8 00 00 00 00	 call	 ?test_scale@@YGXPAUSCALE_DATA@@MMM@Z ; test_scale
$LN10@draw_havoc:

; 1168 : 	}
; 1169 : }

  00217	5f		 pop	 edi
  00218	5e		 pop	 esi
  00219	5b		 pop	 ebx
  0021a	8b e5		 mov	 esp, ebp
  0021c	5d		 pop	 ebp
  0021d	c2 04 00	 ret	 4
?draw_havoc_engine_temperature_indicator@@YGXW4COCKPIT_PANELS@@@Z ENDP ; draw_havoc_engine_temperature_indicator
_TEXT	ENDS
; Function compile flags: /Odtp /ZI
; File c:\users\nhv90\projects\eech\aphavoc\source\gunships\cockpits\havoc\ha_instr.c
;	COMDAT ?draw_havoc_engine_torque_indicator@@YGXW4COCKPIT_PANELS@@@Z
_TEXT	SEGMENT
tv87 = -104						; size = 8
tv79 = -104						; size = 8
tv88 = -96						; size = 8
tv80 = -96						; size = 8
tv90 = -92						; size = 4
_rh_engine_torque_indicator_scale2$ = -24		; size = 4
_rh_engine_torque_indicator_scale1$ = -20		; size = 4
_lh_engine_torque_indicator_scale2$ = -16		; size = 4
_lh_engine_torque_indicator_scale1$ = -12		; size = 4
_rh_engine_torque_indicator_value$ = -8			; size = 4
_lh_engine_torque_indicator_value$ = -4			; size = 4
_panel$ = 8						; size = 4
?draw_havoc_engine_torque_indicator@@YGXW4COCKPIT_PANELS@@@Z PROC ; draw_havoc_engine_torque_indicator, COMDAT

; 988  : {

  00000	55		 push	 ebp
  00001	8b ec		 mov	 ebp, esp
  00003	83 ec 68	 sub	 esp, 104		; 00000068H
  00006	53		 push	 ebx
  00007	56		 push	 esi
  00008	57		 push	 edi

; 989  : 	float
; 990  : 		lh_engine_torque_indicator_value,
; 991  : 		rh_engine_torque_indicator_value;
; 992  : 
; 993  : 	scale_data
; 994  : 		*lh_engine_torque_indicator_scale1,
; 995  : 		*lh_engine_torque_indicator_scale2,
; 996  : 		*rh_engine_torque_indicator_scale1,
; 997  : 		*rh_engine_torque_indicator_scale2;
; 998  : 
; 999  : 	if (test_cockpit_instruments)

  00009	83 3d 00 00 00
	00 00		 cmp	 DWORD PTR ?test_cockpit_instruments@@3HA, 0 ; test_cockpit_instruments
  00010	74 5a		 je	 SHORT $LN4@draw_havoc

; 1000 : 	{
; 1001 : 		static float
; 1002 : 			value = -10.0;
; 1003 : 
; 1004 : 		value += 2.0;

  00012	f3 0f 5a 05 00
	00 00 00	 cvtss2sd xmm0, DWORD PTR ?value@?4??draw_havoc_engine_torque_indicator@@YGXW4COCKPIT_PANELS@@@Z@4MA
  0001a	f2 0f 58 05 00
	00 00 00	 addsd	 xmm0, QWORD PTR __real@4000000000000000
  00022	f2 0f 5a c0	 cvtsd2ss xmm0, xmm0
  00026	f3 0f 11 05 00
	00 00 00	 movss	 DWORD PTR ?value@?4??draw_havoc_engine_torque_indicator@@YGXW4COCKPIT_PANELS@@@Z@4MA, xmm0

; 1005 : 
; 1006 : 		if (value > 120.0)

  0002e	f3 0f 5a 05 00
	00 00 00	 cvtss2sd xmm0, DWORD PTR ?value@?4??draw_havoc_engine_torque_indicator@@YGXW4COCKPIT_PANELS@@@Z@4MA
  00036	66 0f 2f 05 00
	00 00 00	 comisd	 xmm0, QWORD PTR __real@405e000000000000
  0003e	76 10		 jbe	 SHORT $LN6@draw_havoc

; 1007 : 		{
; 1008 : 			value = -10.0;

  00040	f3 0f 10 05 00
	00 00 00	 movss	 xmm0, DWORD PTR __real@c1200000
  00048	f3 0f 11 05 00
	00 00 00	 movss	 DWORD PTR ?value@?4??draw_havoc_engine_torque_indicator@@YGXW4COCKPIT_PANELS@@@Z@4MA, xmm0
$LN6@draw_havoc:

; 1009 : 		}
; 1010 : 
; 1011 : 		lh_engine_torque_indicator_value = value;

  00050	f3 0f 10 05 00
	00 00 00	 movss	 xmm0, DWORD PTR ?value@?4??draw_havoc_engine_torque_indicator@@YGXW4COCKPIT_PANELS@@@Z@4MA
  00058	f3 0f 11 45 fc	 movss	 DWORD PTR _lh_engine_torque_indicator_value$[ebp], xmm0

; 1012 : 
; 1013 : 		rh_engine_torque_indicator_value = value;

  0005d	f3 0f 10 05 00
	00 00 00	 movss	 xmm0, DWORD PTR ?value@?4??draw_havoc_engine_torque_indicator@@YGXW4COCKPIT_PANELS@@@Z@4MA
  00065	f3 0f 11 45 f8	 movss	 DWORD PTR _rh_engine_torque_indicator_value$[ebp], xmm0

; 1014 : 	}
; 1015 : 	else

  0006a	eb 24		 jmp	 SHORT $LN5@draw_havoc
$LN4@draw_havoc:

; 1016 : 	{
; 1017 : 		lh_engine_torque_indicator_value = current_flight_dynamics->left_engine_torque.value;

  0006c	a1 00 00 00 00	 mov	 eax, DWORD PTR ?current_flight_dynamics@@3PAUDYNAMICS_TYPE@@A ; current_flight_dynamics
  00071	f3 0f 10 80 ac
	1c 00 00	 movss	 xmm0, DWORD PTR [eax+7340]
  00079	f3 0f 11 45 fc	 movss	 DWORD PTR _lh_engine_torque_indicator_value$[ebp], xmm0

; 1018 : 
; 1019 : 		rh_engine_torque_indicator_value = current_flight_dynamics->right_engine_torque.value;

  0007e	a1 00 00 00 00	 mov	 eax, DWORD PTR ?current_flight_dynamics@@3PAUDYNAMICS_TYPE@@A ; current_flight_dynamics
  00083	f3 0f 10 80 0c
	1d 00 00	 movss	 xmm0, DWORD PTR [eax+7436]
  0008b	f3 0f 11 45 f8	 movss	 DWORD PTR _rh_engine_torque_indicator_value$[ebp], xmm0
$LN5@draw_havoc:

; 1020 : 	}
; 1021 : 
; 1022 : 	lh_engine_torque_indicator_value = bound (lh_engine_torque_indicator_value, 0.0, 110.0);

  00090	f3 0f 5a 45 fc	 cvtss2sd xmm0, DWORD PTR _lh_engine_torque_indicator_value$[ebp]
  00095	0f 57 c9	 xorps	 xmm1, xmm1
  00098	66 0f 2f c8	 comisd	 xmm1, xmm0
  0009c	76 0a		 jbe	 SHORT $LN14@draw_havoc
  0009e	0f 57 c0	 xorps	 xmm0, xmm0
  000a1	f2 0f 11 45 a0	 movsd	 QWORD PTR tv80[ebp], xmm0
  000a6	eb 32		 jmp	 SHORT $LN15@draw_havoc
$LN14@draw_havoc:
  000a8	f3 0f 5a 45 fc	 cvtss2sd xmm0, DWORD PTR _lh_engine_torque_indicator_value$[ebp]
  000ad	66 0f 2f 05 00
	00 00 00	 comisd	 xmm0, QWORD PTR __real@405b800000000000
  000b5	76 0f		 jbe	 SHORT $LN12@draw_havoc
  000b7	f2 0f 10 05 00
	00 00 00	 movsd	 xmm0, QWORD PTR __real@405b800000000000
  000bf	f2 0f 11 45 98	 movsd	 QWORD PTR tv79[ebp], xmm0
  000c4	eb 0a		 jmp	 SHORT $LN13@draw_havoc
$LN12@draw_havoc:
  000c6	f3 0f 5a 45 fc	 cvtss2sd xmm0, DWORD PTR _lh_engine_torque_indicator_value$[ebp]
  000cb	f2 0f 11 45 98	 movsd	 QWORD PTR tv79[ebp], xmm0
$LN13@draw_havoc:
  000d0	f2 0f 10 45 98	 movsd	 xmm0, QWORD PTR tv79[ebp]
  000d5	f2 0f 11 45 a0	 movsd	 QWORD PTR tv80[ebp], xmm0
$LN15@draw_havoc:
  000da	f2 0f 5a 45 a0	 cvtsd2ss xmm0, QWORD PTR tv80[ebp]
  000df	f3 0f 11 45 fc	 movss	 DWORD PTR _lh_engine_torque_indicator_value$[ebp], xmm0

; 1023 : 
; 1024 : 	rh_engine_torque_indicator_value = bound (rh_engine_torque_indicator_value, 0.0, 110.0);

  000e4	f3 0f 5a 45 f8	 cvtss2sd xmm0, DWORD PTR _rh_engine_torque_indicator_value$[ebp]
  000e9	0f 57 c9	 xorps	 xmm1, xmm1
  000ec	66 0f 2f c8	 comisd	 xmm1, xmm0
  000f0	76 0a		 jbe	 SHORT $LN18@draw_havoc
  000f2	0f 57 c0	 xorps	 xmm0, xmm0
  000f5	f2 0f 11 45 a0	 movsd	 QWORD PTR tv88[ebp], xmm0
  000fa	eb 32		 jmp	 SHORT $LN19@draw_havoc
$LN18@draw_havoc:
  000fc	f3 0f 5a 45 f8	 cvtss2sd xmm0, DWORD PTR _rh_engine_torque_indicator_value$[ebp]
  00101	66 0f 2f 05 00
	00 00 00	 comisd	 xmm0, QWORD PTR __real@405b800000000000
  00109	76 0f		 jbe	 SHORT $LN16@draw_havoc
  0010b	f2 0f 10 05 00
	00 00 00	 movsd	 xmm0, QWORD PTR __real@405b800000000000
  00113	f2 0f 11 45 98	 movsd	 QWORD PTR tv87[ebp], xmm0
  00118	eb 0a		 jmp	 SHORT $LN17@draw_havoc
$LN16@draw_havoc:
  0011a	f3 0f 5a 45 f8	 cvtss2sd xmm0, DWORD PTR _rh_engine_torque_indicator_value$[ebp]
  0011f	f2 0f 11 45 98	 movsd	 QWORD PTR tv87[ebp], xmm0
$LN17@draw_havoc:
  00124	f2 0f 10 45 98	 movsd	 xmm0, QWORD PTR tv87[ebp]
  00129	f2 0f 11 45 a0	 movsd	 QWORD PTR tv88[ebp], xmm0
$LN19@draw_havoc:
  0012e	f2 0f 5a 45 a0	 cvtsd2ss xmm0, QWORD PTR tv88[ebp]
  00133	f3 0f 11 45 f8	 movss	 DWORD PTR _rh_engine_torque_indicator_value$[ebp], xmm0

; 1025 : 
; 1026 : 	switch (panel)

  00138	8b 45 08	 mov	 eax, DWORD PTR _panel$[ebp]
  0013b	89 45 a4	 mov	 DWORD PTR tv90[ebp], eax
  0013e	83 7d a4 18	 cmp	 DWORD PTR tv90[ebp], 24	; 00000018H
  00142	74 08		 je	 SHORT $LN7@draw_havoc
  00144	83 7d a4 19	 cmp	 DWORD PTR tv90[ebp], 25	; 00000019H
  00148	74 20		 je	 SHORT $LN8@draw_havoc
  0014a	eb 3c		 jmp	 SHORT $LN9@draw_havoc
$LN7@draw_havoc:

; 1027 : 	{
; 1028 : 		////////////////////////////////////////
; 1029 : 		case COCKPIT_PANEL_DOWN20_AHEAD:
; 1030 : 		////////////////////////////////////////
; 1031 : 		{
; 1032 : 			lh_engine_torque_indicator_scale1 = lh_engine_torque_indicator_line1_down_20_ahead;

  0014c	c7 45 f4 00 00
	00 00		 mov	 DWORD PTR _lh_engine_torque_indicator_scale1$[ebp], OFFSET ?lh_engine_torque_indicator_line1_down_20_ahead@@3PAUSCALE_DATA@@A

; 1033 : 
; 1034 : 			lh_engine_torque_indicator_scale2 = lh_engine_torque_indicator_line2_down_20_ahead;

  00153	c7 45 f0 00 00
	00 00		 mov	 DWORD PTR _lh_engine_torque_indicator_scale2$[ebp], OFFSET ?lh_engine_torque_indicator_line2_down_20_ahead@@3PAUSCALE_DATA@@A

; 1035 : 
; 1036 : 			rh_engine_torque_indicator_scale1 = rh_engine_torque_indicator_line1_down_20_ahead;

  0015a	c7 45 ec 00 00
	00 00		 mov	 DWORD PTR _rh_engine_torque_indicator_scale1$[ebp], OFFSET ?rh_engine_torque_indicator_line1_down_20_ahead@@3PAUSCALE_DATA@@A

; 1037 : 
; 1038 : 			rh_engine_torque_indicator_scale2 = rh_engine_torque_indicator_line2_down_20_ahead;

  00161	c7 45 e8 00 00
	00 00		 mov	 DWORD PTR _rh_engine_torque_indicator_scale2$[ebp], OFFSET ?rh_engine_torque_indicator_line2_down_20_ahead@@3PAUSCALE_DATA@@A

; 1039 : 
; 1040 : 			break;

  00168	eb 2c		 jmp	 SHORT $LN2@draw_havoc
$LN8@draw_havoc:

; 1041 : 		}
; 1042 : 		////////////////////////////////////////
; 1043 : 		case COCKPIT_PANEL_DOWN20_RIGHT30:
; 1044 : 		////////////////////////////////////////
; 1045 : 		{
; 1046 : 			lh_engine_torque_indicator_scale1 = lh_engine_torque_indicator_line1_down_20_right_30;

  0016a	c7 45 f4 00 00
	00 00		 mov	 DWORD PTR _lh_engine_torque_indicator_scale1$[ebp], OFFSET ?lh_engine_torque_indicator_line1_down_20_right_30@@3PAUSCALE_DATA@@A

; 1047 : 
; 1048 : 			lh_engine_torque_indicator_scale2 = lh_engine_torque_indicator_line2_down_20_right_30;

  00171	c7 45 f0 00 00
	00 00		 mov	 DWORD PTR _lh_engine_torque_indicator_scale2$[ebp], OFFSET ?lh_engine_torque_indicator_line2_down_20_right_30@@3PAUSCALE_DATA@@A

; 1049 : 
; 1050 : 			rh_engine_torque_indicator_scale1 = rh_engine_torque_indicator_line1_down_20_right_30;

  00178	c7 45 ec 00 00
	00 00		 mov	 DWORD PTR _rh_engine_torque_indicator_scale1$[ebp], OFFSET ?rh_engine_torque_indicator_line1_down_20_right_30@@3PAUSCALE_DATA@@A

; 1051 : 
; 1052 : 			rh_engine_torque_indicator_scale2 = rh_engine_torque_indicator_line2_down_20_right_30;

  0017f	c7 45 e8 00 00
	00 00		 mov	 DWORD PTR _rh_engine_torque_indicator_scale2$[ebp], OFFSET ?rh_engine_torque_indicator_line2_down_20_right_30@@3PAUSCALE_DATA@@A

; 1053 : 
; 1054 : 			break;

  00186	eb 0e		 jmp	 SHORT $LN2@draw_havoc
$LN9@draw_havoc:

; 1055 : 		}
; 1056 : 		////////////////////////////////////////
; 1057 : 		default:
; 1058 : 		////////////////////////////////////////
; 1059 : 		{
; 1060 : 			debug_fatal (instrument_error);

  00188	a1 00 00 00 00	 mov	 eax, DWORD PTR ?instrument_error@@3PBDB
  0018d	50		 push	 eax
  0018e	e8 00 00 00 00	 call	 ?debug_fatal@@YAXPBDZZ	; debug_fatal
  00193	83 c4 04	 add	 esp, 4
$LN2@draw_havoc:

; 1061 : 
; 1062 : 			break;
; 1063 : 		}
; 1064 : 	}
; 1065 : 
; 1066 : 	draw_scale_value (lh_engine_torque_indicator_scale1, lh_engine_torque_indicator_value, white_needle_colour);

  00196	a1 00 00 00 00	 mov	 eax, DWORD PTR ?white_needle_colour@@3UREAL_COLOUR@@A
  0019b	50		 push	 eax
  0019c	51		 push	 ecx
  0019d	f3 0f 10 45 fc	 movss	 xmm0, DWORD PTR _lh_engine_torque_indicator_value$[ebp]
  001a2	f3 0f 11 04 24	 movss	 DWORD PTR [esp], xmm0
  001a7	8b 4d f4	 mov	 ecx, DWORD PTR _lh_engine_torque_indicator_scale1$[ebp]
  001aa	51		 push	 ecx
  001ab	e8 00 00 00 00	 call	 ?draw_scale_value@@YGXPAUSCALE_DATA@@MUREAL_COLOUR@@@Z ; draw_scale_value

; 1067 : 
; 1068 : 	draw_scale_value (lh_engine_torque_indicator_scale2, lh_engine_torque_indicator_value, white_needle_colour);

  001b0	a1 00 00 00 00	 mov	 eax, DWORD PTR ?white_needle_colour@@3UREAL_COLOUR@@A
  001b5	50		 push	 eax
  001b6	51		 push	 ecx
  001b7	f3 0f 10 45 fc	 movss	 xmm0, DWORD PTR _lh_engine_torque_indicator_value$[ebp]
  001bc	f3 0f 11 04 24	 movss	 DWORD PTR [esp], xmm0
  001c1	8b 4d f0	 mov	 ecx, DWORD PTR _lh_engine_torque_indicator_scale2$[ebp]
  001c4	51		 push	 ecx
  001c5	e8 00 00 00 00	 call	 ?draw_scale_value@@YGXPAUSCALE_DATA@@MUREAL_COLOUR@@@Z ; draw_scale_value

; 1069 : 
; 1070 : 	draw_scale_value (rh_engine_torque_indicator_scale1, rh_engine_torque_indicator_value, white_needle_colour);

  001ca	a1 00 00 00 00	 mov	 eax, DWORD PTR ?white_needle_colour@@3UREAL_COLOUR@@A
  001cf	50		 push	 eax
  001d0	51		 push	 ecx
  001d1	f3 0f 10 45 f8	 movss	 xmm0, DWORD PTR _rh_engine_torque_indicator_value$[ebp]
  001d6	f3 0f 11 04 24	 movss	 DWORD PTR [esp], xmm0
  001db	8b 4d ec	 mov	 ecx, DWORD PTR _rh_engine_torque_indicator_scale1$[ebp]
  001de	51		 push	 ecx
  001df	e8 00 00 00 00	 call	 ?draw_scale_value@@YGXPAUSCALE_DATA@@MUREAL_COLOUR@@@Z ; draw_scale_value

; 1071 : 
; 1072 : 	draw_scale_value (rh_engine_torque_indicator_scale2, rh_engine_torque_indicator_value, white_needle_colour);

  001e4	a1 00 00 00 00	 mov	 eax, DWORD PTR ?white_needle_colour@@3UREAL_COLOUR@@A
  001e9	50		 push	 eax
  001ea	51		 push	 ecx
  001eb	f3 0f 10 45 f8	 movss	 xmm0, DWORD PTR _rh_engine_torque_indicator_value$[ebp]
  001f0	f3 0f 11 04 24	 movss	 DWORD PTR [esp], xmm0
  001f5	8b 4d e8	 mov	 ecx, DWORD PTR _rh_engine_torque_indicator_scale2$[ebp]
  001f8	51		 push	 ecx
  001f9	e8 00 00 00 00	 call	 ?draw_scale_value@@YGXPAUSCALE_DATA@@MUREAL_COLOUR@@@Z ; draw_scale_value

; 1073 : 
; 1074 : 	if (test_cockpit_instruments && DEBUG_MODULE)

  001fe	83 3d 00 00 00
	00 00		 cmp	 DWORD PTR ?test_cockpit_instruments@@3HA, 0 ; test_cockpit_instruments
  00205	0f 84 c0 00 00
	00		 je	 $LN10@draw_havoc
  0020b	33 c0		 xor	 eax, eax
  0020d	0f 84 b8 00 00
	00		 je	 $LN10@draw_havoc

; 1075 : 	{
; 1076 : 		test_scale (lh_engine_torque_indicator_scale1, 0.0, 110.0, 10.0);

  00213	51		 push	 ecx
  00214	f3 0f 10 05 00
	00 00 00	 movss	 xmm0, DWORD PTR __real@41200000
  0021c	f3 0f 11 04 24	 movss	 DWORD PTR [esp], xmm0
  00221	51		 push	 ecx
  00222	f3 0f 10 05 00
	00 00 00	 movss	 xmm0, DWORD PTR __real@42dc0000
  0022a	f3 0f 11 04 24	 movss	 DWORD PTR [esp], xmm0
  0022f	51		 push	 ecx
  00230	0f 57 c0	 xorps	 xmm0, xmm0
  00233	f3 0f 11 04 24	 movss	 DWORD PTR [esp], xmm0
  00238	8b 45 f4	 mov	 eax, DWORD PTR _lh_engine_torque_indicator_scale1$[ebp]
  0023b	50		 push	 eax
  0023c	e8 00 00 00 00	 call	 ?test_scale@@YGXPAUSCALE_DATA@@MMM@Z ; test_scale

; 1077 : 
; 1078 : 		test_scale (lh_engine_torque_indicator_scale2, 0.0, 110.0, 10.0);

  00241	51		 push	 ecx
  00242	f3 0f 10 05 00
	00 00 00	 movss	 xmm0, DWORD PTR __real@41200000
  0024a	f3 0f 11 04 24	 movss	 DWORD PTR [esp], xmm0
  0024f	51		 push	 ecx
  00250	f3 0f 10 05 00
	00 00 00	 movss	 xmm0, DWORD PTR __real@42dc0000
  00258	f3 0f 11 04 24	 movss	 DWORD PTR [esp], xmm0
  0025d	51		 push	 ecx
  0025e	0f 57 c0	 xorps	 xmm0, xmm0
  00261	f3 0f 11 04 24	 movss	 DWORD PTR [esp], xmm0
  00266	8b 45 f0	 mov	 eax, DWORD PTR _lh_engine_torque_indicator_scale2$[ebp]
  00269	50		 push	 eax
  0026a	e8 00 00 00 00	 call	 ?test_scale@@YGXPAUSCALE_DATA@@MMM@Z ; test_scale

; 1079 : 
; 1080 : 		test_scale (rh_engine_torque_indicator_scale1, 0.0, 110.0, 10.0);

  0026f	51		 push	 ecx
  00270	f3 0f 10 05 00
	00 00 00	 movss	 xmm0, DWORD PTR __real@41200000
  00278	f3 0f 11 04 24	 movss	 DWORD PTR [esp], xmm0
  0027d	51		 push	 ecx
  0027e	f3 0f 10 05 00
	00 00 00	 movss	 xmm0, DWORD PTR __real@42dc0000
  00286	f3 0f 11 04 24	 movss	 DWORD PTR [esp], xmm0
  0028b	51		 push	 ecx
  0028c	0f 57 c0	 xorps	 xmm0, xmm0
  0028f	f3 0f 11 04 24	 movss	 DWORD PTR [esp], xmm0
  00294	8b 45 ec	 mov	 eax, DWORD PTR _rh_engine_torque_indicator_scale1$[ebp]
  00297	50		 push	 eax
  00298	e8 00 00 00 00	 call	 ?test_scale@@YGXPAUSCALE_DATA@@MMM@Z ; test_scale

; 1081 : 
; 1082 : 		test_scale (rh_engine_torque_indicator_scale2, 0.0, 110.0, 10.0);

  0029d	51		 push	 ecx
  0029e	f3 0f 10 05 00
	00 00 00	 movss	 xmm0, DWORD PTR __real@41200000
  002a6	f3 0f 11 04 24	 movss	 DWORD PTR [esp], xmm0
  002ab	51		 push	 ecx
  002ac	f3 0f 10 05 00
	00 00 00	 movss	 xmm0, DWORD PTR __real@42dc0000
  002b4	f3 0f 11 04 24	 movss	 DWORD PTR [esp], xmm0
  002b9	51		 push	 ecx
  002ba	0f 57 c0	 xorps	 xmm0, xmm0
  002bd	f3 0f 11 04 24	 movss	 DWORD PTR [esp], xmm0
  002c2	8b 45 e8	 mov	 eax, DWORD PTR _rh_engine_torque_indicator_scale2$[ebp]
  002c5	50		 push	 eax
  002c6	e8 00 00 00 00	 call	 ?test_scale@@YGXPAUSCALE_DATA@@MMM@Z ; test_scale
$LN10@draw_havoc:

; 1083 : 	}
; 1084 : }

  002cb	5f		 pop	 edi
  002cc	5e		 pop	 esi
  002cd	5b		 pop	 ebx
  002ce	8b e5		 mov	 esp, ebp
  002d0	5d		 pop	 ebp
  002d1	c2 04 00	 ret	 4
?draw_havoc_engine_torque_indicator@@YGXW4COCKPIT_PANELS@@@Z ENDP ; draw_havoc_engine_torque_indicator
_TEXT	ENDS
; Function compile flags: /Odtp /ZI
; File c:\users\nhv90\projects\eech\aphavoc\source\gunships\cockpits\havoc\ha_instr.c
;	COMDAT ?draw_havoc_g_meter@@YGXW4COCKPIT_PANELS@@@Z
_TEXT	SEGMENT
tv77 = -100						; size = 8
tv78 = -92						; size = 8
tv80 = -88						; size = 4
_p$ = -20						; size = 4
_g_meter_needle_scale$ = -16				; size = 4
_y_centre$ = -12					; size = 4
_x_centre$ = -8						; size = 4
_g_meter_needle_value$ = -4				; size = 4
_panel$ = 8						; size = 4
?draw_havoc_g_meter@@YGXW4COCKPIT_PANELS@@@Z PROC	; draw_havoc_g_meter, COMDAT

; 880  : {

  00000	55		 push	 ebp
  00001	8b ec		 mov	 ebp, esp
  00003	83 ec 64	 sub	 esp, 100		; 00000064H
  00006	53		 push	 ebx
  00007	56		 push	 esi
  00008	57		 push	 edi

; 881  : 	float
; 882  : 		g_meter_needle_value,
; 883  : 		x_centre,
; 884  : 		y_centre;
; 885  : 
; 886  : 	scale_data
; 887  : 		*g_meter_needle_scale,
; 888  : 		*p;
; 889  : 
; 890  : 	if (test_cockpit_instruments)

  00009	83 3d 00 00 00
	00 00		 cmp	 DWORD PTR ?test_cockpit_instruments@@3HA, 0 ; test_cockpit_instruments
  00010	74 4d		 je	 SHORT $LN4@draw_havoc

; 891  : 	{
; 892  : 		static float
; 893  : 			value = -2.5;
; 894  : 
; 895  : 		value += 0.05;

  00012	f3 0f 5a 05 00
	00 00 00	 cvtss2sd xmm0, DWORD PTR ?value@?4??draw_havoc_g_meter@@YGXW4COCKPIT_PANELS@@@Z@4MA
  0001a	f2 0f 58 05 00
	00 00 00	 addsd	 xmm0, QWORD PTR __real@3fa999999999999a
  00022	f2 0f 5a c0	 cvtsd2ss xmm0, xmm0
  00026	f3 0f 11 05 00
	00 00 00	 movss	 DWORD PTR ?value@?4??draw_havoc_g_meter@@YGXW4COCKPIT_PANELS@@@Z@4MA, xmm0

; 896  : 
; 897  : 		if (value > 4.5)

  0002e	f3 0f 5a 05 00
	00 00 00	 cvtss2sd xmm0, DWORD PTR ?value@?4??draw_havoc_g_meter@@YGXW4COCKPIT_PANELS@@@Z@4MA
  00036	66 0f 2f 05 00
	00 00 00	 comisd	 xmm0, QWORD PTR __real@4012000000000000
  0003e	76 10		 jbe	 SHORT $LN6@draw_havoc

; 898  : 		{
; 899  : 			value = -2.5;

  00040	f3 0f 10 05 00
	00 00 00	 movss	 xmm0, DWORD PTR __real@c0200000
  00048	f3 0f 11 05 00
	00 00 00	 movss	 DWORD PTR ?value@?4??draw_havoc_g_meter@@YGXW4COCKPIT_PANELS@@@Z@4MA, xmm0
$LN6@draw_havoc:

; 900  : 		}
; 901  : 
; 902  : 		g_meter_needle_value = value;

  00050	f3 0f 10 05 00
	00 00 00	 movss	 xmm0, DWORD PTR ?value@?4??draw_havoc_g_meter@@YGXW4COCKPIT_PANELS@@@Z@4MA
  00058	f3 0f 11 45 fc	 movss	 DWORD PTR _g_meter_needle_value$[ebp], xmm0

; 903  : 	}
; 904  : 	else

  0005d	eb 12		 jmp	 SHORT $LN5@draw_havoc
$LN4@draw_havoc:

; 905  : 	{
; 906  : 		g_meter_needle_value = current_flight_dynamics->g_force.value;

  0005f	a1 00 00 00 00	 mov	 eax, DWORD PTR ?current_flight_dynamics@@3PAUDYNAMICS_TYPE@@A ; current_flight_dynamics
  00064	f3 0f 10 80 5c
	24 00 00	 movss	 xmm0, DWORD PTR [eax+9308]
  0006c	f3 0f 11 45 fc	 movss	 DWORD PTR _g_meter_needle_value$[ebp], xmm0
$LN5@draw_havoc:

; 907  : 	}
; 908  : 
; 909  : 	g_meter_needle_value = bound (g_meter_needle_value, -2.0, 4.0);

  00071	f3 0f 5a 45 fc	 cvtss2sd xmm0, DWORD PTR _g_meter_needle_value$[ebp]
  00076	f2 0f 10 0d 00
	00 00 00	 movsd	 xmm1, QWORD PTR __real@c000000000000000
  0007e	66 0f 2f c8	 comisd	 xmm1, xmm0
  00082	76 0f		 jbe	 SHORT $LN16@draw_havoc
  00084	f2 0f 10 05 00
	00 00 00	 movsd	 xmm0, QWORD PTR __real@c000000000000000
  0008c	f2 0f 11 45 a4	 movsd	 QWORD PTR tv78[ebp], xmm0
  00091	eb 32		 jmp	 SHORT $LN17@draw_havoc
$LN16@draw_havoc:
  00093	f3 0f 5a 45 fc	 cvtss2sd xmm0, DWORD PTR _g_meter_needle_value$[ebp]
  00098	66 0f 2f 05 00
	00 00 00	 comisd	 xmm0, QWORD PTR __real@4010000000000000
  000a0	76 0f		 jbe	 SHORT $LN14@draw_havoc
  000a2	f2 0f 10 05 00
	00 00 00	 movsd	 xmm0, QWORD PTR __real@4010000000000000
  000aa	f2 0f 11 45 9c	 movsd	 QWORD PTR tv77[ebp], xmm0
  000af	eb 0a		 jmp	 SHORT $LN15@draw_havoc
$LN14@draw_havoc:
  000b1	f3 0f 5a 45 fc	 cvtss2sd xmm0, DWORD PTR _g_meter_needle_value$[ebp]
  000b6	f2 0f 11 45 9c	 movsd	 QWORD PTR tv77[ebp], xmm0
$LN15@draw_havoc:
  000bb	f2 0f 10 45 9c	 movsd	 xmm0, QWORD PTR tv77[ebp]
  000c0	f2 0f 11 45 a4	 movsd	 QWORD PTR tv78[ebp], xmm0
$LN17@draw_havoc:
  000c5	f2 0f 5a 45 a4	 cvtsd2ss xmm0, QWORD PTR tv78[ebp]
  000ca	f3 0f 11 45 fc	 movss	 DWORD PTR _g_meter_needle_value$[ebp], xmm0

; 910  : 
; 911  : 	switch (panel)

  000cf	8b 45 08	 mov	 eax, DWORD PTR _panel$[ebp]
  000d2	89 45 a8	 mov	 DWORD PTR tv80[ebp], eax
  000d5	8b 4d a8	 mov	 ecx, DWORD PTR tv80[ebp]
  000d8	83 e9 10	 sub	 ecx, 16			; 00000010H
  000db	89 4d a8	 mov	 DWORD PTR tv80[ebp], ecx
  000de	83 7d a8 08	 cmp	 DWORD PTR tv80[ebp], 8
  000e2	0f 87 96 00 00
	00		 ja	 $LN11@draw_havoc
  000e8	8b 55 a8	 mov	 edx, DWORD PTR tv80[ebp]
  000eb	ff 24 95 00 00
	00 00		 jmp	 DWORD PTR $LN18@draw_havoc[edx*4]
$LN7@draw_havoc:

; 912  : 	{
; 913  : 		////////////////////////////////////////
; 914  : 		case COCKPIT_PANEL_LEVEL_AHEAD:
; 915  : 		////////////////////////////////////////
; 916  : 		{
; 917  : 			x_centre = 117.0;

  000f2	f3 0f 10 05 00
	00 00 00	 movss	 xmm0, DWORD PTR __real@42ea0000
  000fa	f3 0f 11 45 f8	 movss	 DWORD PTR _x_centre$[ebp], xmm0

; 918  : 
; 919  : 			y_centre = 374.0;

  000ff	f3 0f 10 05 00
	00 00 00	 movss	 xmm0, DWORD PTR __real@43bb0000
  00107	f3 0f 11 45 f4	 movss	 DWORD PTR _y_centre$[ebp], xmm0

; 920  : 
; 921  : 			g_meter_needle_scale = g_meter_needle_scale_level_ahead;

  0010c	c7 45 f0 00 00
	00 00		 mov	 DWORD PTR _g_meter_needle_scale$[ebp], OFFSET ?g_meter_needle_scale_level_ahead@@3PAUSCALE_DATA@@A

; 922  : 
; 923  : 			break;

  00113	eb 77		 jmp	 SHORT $LN2@draw_havoc
$LN8@draw_havoc:

; 924  : 		}
; 925  : 		////////////////////////////////////////
; 926  : 		case COCKPIT_PANEL_DOWN20_AHEAD:
; 927  : 		////////////////////////////////////////
; 928  : 		{
; 929  : 			x_centre = 122.0;

  00115	f3 0f 10 05 00
	00 00 00	 movss	 xmm0, DWORD PTR __real@42f40000
  0011d	f3 0f 11 45 f8	 movss	 DWORD PTR _x_centre$[ebp], xmm0

; 930  : 
; 931  : 			y_centre = 177.0;

  00122	f3 0f 10 05 00
	00 00 00	 movss	 xmm0, DWORD PTR __real@43310000
  0012a	f3 0f 11 45 f4	 movss	 DWORD PTR _y_centre$[ebp], xmm0

; 932  : 
; 933  : 			g_meter_needle_scale = g_meter_needle_scale_down_20_ahead;

  0012f	c7 45 f0 00 00
	00 00		 mov	 DWORD PTR _g_meter_needle_scale$[ebp], OFFSET ?g_meter_needle_scale_down_20_ahead@@3PAUSCALE_DATA@@A

; 934  : 
; 935  : 			break;

  00136	eb 54		 jmp	 SHORT $LN2@draw_havoc
$LN9@draw_havoc:

; 936  : 		}
; 937  : 		////////////////////////////////////////
; 938  : 		case COCKPIT_PANEL_LEVEL_LEFT30:
; 939  : 		////////////////////////////////////////
; 940  : 		{
; 941  : 			x_centre = 418.0;

  00138	f3 0f 10 05 00
	00 00 00	 movss	 xmm0, DWORD PTR __real@43d10000
  00140	f3 0f 11 45 f8	 movss	 DWORD PTR _x_centre$[ebp], xmm0

; 942  : 
; 943  : 			y_centre = 368.0;

  00145	f3 0f 10 05 00
	00 00 00	 movss	 xmm0, DWORD PTR __real@43b80000
  0014d	f3 0f 11 45 f4	 movss	 DWORD PTR _y_centre$[ebp], xmm0

; 944  : 
; 945  : 			g_meter_needle_scale = g_meter_needle_scale_level_left_30;

  00152	c7 45 f0 00 00
	00 00		 mov	 DWORD PTR _g_meter_needle_scale$[ebp], OFFSET ?g_meter_needle_scale_level_left_30@@3PAUSCALE_DATA@@A

; 946  : 
; 947  : 			break;

  00159	eb 31		 jmp	 SHORT $LN2@draw_havoc
$LN10@draw_havoc:

; 948  : 		}
; 949  : 		////////////////////////////////////////
; 950  : 		case COCKPIT_PANEL_DOWN20_LEFT30:
; 951  : 		////////////////////////////////////////
; 952  : 		{
; 953  : 			x_centre = 416.0;

  0015b	f3 0f 10 05 00
	00 00 00	 movss	 xmm0, DWORD PTR __real@43d00000
  00163	f3 0f 11 45 f8	 movss	 DWORD PTR _x_centre$[ebp], xmm0

; 954  : 
; 955  : 			y_centre = 171.0;

  00168	f3 0f 10 05 00
	00 00 00	 movss	 xmm0, DWORD PTR __real@432b0000
  00170	f3 0f 11 45 f4	 movss	 DWORD PTR _y_centre$[ebp], xmm0

; 956  : 
; 957  : 			g_meter_needle_scale = g_meter_needle_scale_down_20_left_30;

  00175	c7 45 f0 00 00
	00 00		 mov	 DWORD PTR _g_meter_needle_scale$[ebp], OFFSET ?g_meter_needle_scale_down_20_left_30@@3PAUSCALE_DATA@@A

; 958  : 
; 959  : 			break;

  0017c	eb 0e		 jmp	 SHORT $LN2@draw_havoc
$LN11@draw_havoc:

; 960  : 		}
; 961  : 		////////////////////////////////////////
; 962  : 		default:
; 963  : 		////////////////////////////////////////
; 964  : 		{
; 965  : 			debug_fatal (instrument_error);

  0017e	a1 00 00 00 00	 mov	 eax, DWORD PTR ?instrument_error@@3PBDB
  00183	50		 push	 eax
  00184	e8 00 00 00 00	 call	 ?debug_fatal@@YAXPBDZZ	; debug_fatal
  00189	83 c4 04	 add	 esp, 4
$LN2@draw_havoc:

; 966  : 
; 967  : 			break;
; 968  : 		}
; 969  : 	}
; 970  : 
; 971  : 	p = find_scale_value (g_meter_needle_scale, g_meter_needle_value);

  0018c	51		 push	 ecx
  0018d	f3 0f 10 45 fc	 movss	 xmm0, DWORD PTR _g_meter_needle_value$[ebp]
  00192	f3 0f 11 04 24	 movss	 DWORD PTR [esp], xmm0
  00197	8b 45 f0	 mov	 eax, DWORD PTR _g_meter_needle_scale$[ebp]
  0019a	50		 push	 eax
  0019b	e8 00 00 00 00	 call	 ?find_scale_value@@YGPAUSCALE_DATA@@PAU1@M@Z ; find_scale_value
  001a0	89 45 ec	 mov	 DWORD PTR _p$[ebp], eax

; 972  : 
; 973  : 	draw_line (fx_640_480 + x_centre, fy_640_480 + y_centre, fx_640_480 + p->x, fy_640_480 + p->y, white_needle_colour);

  001a3	a1 00 00 00 00	 mov	 eax, DWORD PTR ?white_needle_colour@@3UREAL_COLOUR@@A
  001a8	50		 push	 eax
  001a9	8b 4d ec	 mov	 ecx, DWORD PTR _p$[ebp]
  001ac	0f bf 51 02	 movsx	 edx, WORD PTR [ecx+2]
  001b0	f3 0f 2a c2	 cvtsi2ss xmm0, edx
  001b4	f3 0f 58 05 00
	00 00 00	 addss	 xmm0, DWORD PTR ?fy_640_480@@3MA
  001bc	51		 push	 ecx
  001bd	f3 0f 11 04 24	 movss	 DWORD PTR [esp], xmm0
  001c2	8b 45 ec	 mov	 eax, DWORD PTR _p$[ebp]
  001c5	0f bf 08	 movsx	 ecx, WORD PTR [eax]
  001c8	f3 0f 2a c1	 cvtsi2ss xmm0, ecx
  001cc	f3 0f 58 05 00
	00 00 00	 addss	 xmm0, DWORD PTR ?fx_640_480@@3MA
  001d4	51		 push	 ecx
  001d5	f3 0f 11 04 24	 movss	 DWORD PTR [esp], xmm0
  001da	f3 0f 10 05 00
	00 00 00	 movss	 xmm0, DWORD PTR ?fy_640_480@@3MA
  001e2	f3 0f 58 45 f4	 addss	 xmm0, DWORD PTR _y_centre$[ebp]
  001e7	51		 push	 ecx
  001e8	f3 0f 11 04 24	 movss	 DWORD PTR [esp], xmm0
  001ed	f3 0f 10 05 00
	00 00 00	 movss	 xmm0, DWORD PTR ?fx_640_480@@3MA
  001f5	f3 0f 58 45 f8	 addss	 xmm0, DWORD PTR _x_centre$[ebp]
  001fa	51		 push	 ecx
  001fb	f3 0f 11 04 24	 movss	 DWORD PTR [esp], xmm0
  00200	e8 00 00 00 00	 call	 ?draw_line@@YGXMMMMUREAL_COLOUR@@@Z ; draw_line

; 974  : 
; 975  : 	if (test_cockpit_instruments && DEBUG_MODULE)

  00205	83 3d 00 00 00
	00 00		 cmp	 DWORD PTR ?test_cockpit_instruments@@3HA, 0 ; test_cockpit_instruments
  0020c	74 66		 je	 SHORT $LN12@draw_havoc
  0020e	33 c0		 xor	 eax, eax
  00210	74 62		 je	 SHORT $LN12@draw_havoc

; 976  : 	{
; 977  : 		test_scale (g_meter_needle_scale, -2.0, 4.0, 1.0);

  00212	51		 push	 ecx
  00213	f3 0f 10 05 00
	00 00 00	 movss	 xmm0, DWORD PTR __real@3f800000
  0021b	f3 0f 11 04 24	 movss	 DWORD PTR [esp], xmm0
  00220	51		 push	 ecx
  00221	f3 0f 10 05 00
	00 00 00	 movss	 xmm0, DWORD PTR __real@40800000
  00229	f3 0f 11 04 24	 movss	 DWORD PTR [esp], xmm0
  0022e	51		 push	 ecx
  0022f	f3 0f 10 05 00
	00 00 00	 movss	 xmm0, DWORD PTR __real@c0000000
  00237	f3 0f 11 04 24	 movss	 DWORD PTR [esp], xmm0
  0023c	8b 45 f0	 mov	 eax, DWORD PTR _g_meter_needle_scale$[ebp]
  0023f	50		 push	 eax
  00240	e8 00 00 00 00	 call	 ?test_scale@@YGXPAUSCALE_DATA@@MMM@Z ; test_scale

; 978  : 
; 979  : 		set_pixel (ix_640_480 + x_centre, iy_640_480 + y_centre, sys_col_red);

  00245	a1 00 00 00 00	 mov	 eax, DWORD PTR ?sys_col_red@@3UREAL_COLOUR@@A ; sys_col_red
  0024a	50		 push	 eax
  0024b	f3 0f 2a 05 00
	00 00 00	 cvtsi2ss xmm0, DWORD PTR ?iy_640_480@@3HA ; iy_640_480
  00253	f3 0f 58 45 f4	 addss	 xmm0, DWORD PTR _y_centre$[ebp]
  00258	f3 0f 2c c8	 cvttss2si ecx, xmm0
  0025c	51		 push	 ecx
  0025d	f3 0f 2a 05 00
	00 00 00	 cvtsi2ss xmm0, DWORD PTR ?ix_640_480@@3HA ; ix_640_480
  00265	f3 0f 58 45 f8	 addss	 xmm0, DWORD PTR _x_centre$[ebp]
  0026a	f3 0f 2c d0	 cvttss2si edx, xmm0
  0026e	52		 push	 edx
  0026f	e8 00 00 00 00	 call	 ?set_pixel@@YGXHHUREAL_COLOUR@@@Z ; set_pixel
$LN12@draw_havoc:

; 980  : 	}
; 981  : }

  00274	5f		 pop	 edi
  00275	5e		 pop	 esi
  00276	5b		 pop	 ebx
  00277	8b e5		 mov	 esp, ebp
  00279	5d		 pop	 ebp
  0027a	c2 04 00	 ret	 4
  0027d	0f 1f 00	 npad	 3
$LN18@draw_havoc:
  00280	00 00 00 00	 DD	 $LN9@draw_havoc
  00284	00 00 00 00	 DD	 $LN7@draw_havoc
  00288	00 00 00 00	 DD	 $LN11@draw_havoc
  0028c	00 00 00 00	 DD	 $LN11@draw_havoc
  00290	00 00 00 00	 DD	 $LN11@draw_havoc
  00294	00 00 00 00	 DD	 $LN11@draw_havoc
  00298	00 00 00 00	 DD	 $LN11@draw_havoc
  0029c	00 00 00 00	 DD	 $LN10@draw_havoc
  002a0	00 00 00 00	 DD	 $LN8@draw_havoc
?draw_havoc_g_meter@@YGXW4COCKPIT_PANELS@@@Z ENDP	; draw_havoc_g_meter
_TEXT	ENDS
; Function compile flags: /Odtp /ZI
; File c:\users\nhv90\projects\eech\aphavoc\source\gunships\cockpits\havoc\ha_instr.c
;	COMDAT ?draw_havoc_main_rotor_rpm_indicator@@YGXW4COCKPIT_PANELS@@@Z
_TEXT	SEGMENT
tv77 = -100						; size = 8
tv78 = -92						; size = 8
tv80 = -88						; size = 4
_p$ = -20						; size = 4
_main_rotor_rpm_needle_scale$ = -16			; size = 4
_y_centre$ = -12					; size = 4
_x_centre$ = -8						; size = 4
_main_rotor_rpm_needle_value$ = -4			; size = 4
_panel$ = 8						; size = 4
?draw_havoc_main_rotor_rpm_indicator@@YGXW4COCKPIT_PANELS@@@Z PROC ; draw_havoc_main_rotor_rpm_indicator, COMDAT

; 796  : {

  00000	55		 push	 ebp
  00001	8b ec		 mov	 ebp, esp
  00003	83 ec 64	 sub	 esp, 100		; 00000064H
  00006	53		 push	 ebx
  00007	56		 push	 esi
  00008	57		 push	 edi

; 797  : 	float
; 798  : 		main_rotor_rpm_needle_value,
; 799  : 		x_centre,
; 800  : 		y_centre;
; 801  : 
; 802  : 	scale_data
; 803  : 		*main_rotor_rpm_needle_scale,
; 804  : 		*p;
; 805  : 
; 806  : 	if (test_cockpit_instruments)

  00009	83 3d 00 00 00
	00 00		 cmp	 DWORD PTR ?test_cockpit_instruments@@3HA, 0 ; test_cockpit_instruments
  00010	74 4d		 je	 SHORT $LN4@draw_havoc

; 807  : 	{
; 808  : 		static float
; 809  : 			value = -10.0;
; 810  : 
; 811  : 		value += 1.0;

  00012	f3 0f 5a 05 00
	00 00 00	 cvtss2sd xmm0, DWORD PTR ?value@?4??draw_havoc_main_rotor_rpm_indicator@@YGXW4COCKPIT_PANELS@@@Z@4MA
  0001a	f2 0f 58 05 00
	00 00 00	 addsd	 xmm0, QWORD PTR __real@3ff0000000000000
  00022	f2 0f 5a c0	 cvtsd2ss xmm0, xmm0
  00026	f3 0f 11 05 00
	00 00 00	 movss	 DWORD PTR ?value@?4??draw_havoc_main_rotor_rpm_indicator@@YGXW4COCKPIT_PANELS@@@Z@4MA, xmm0

; 812  : 
; 813  : 		if (value > 110.0)

  0002e	f3 0f 5a 05 00
	00 00 00	 cvtss2sd xmm0, DWORD PTR ?value@?4??draw_havoc_main_rotor_rpm_indicator@@YGXW4COCKPIT_PANELS@@@Z@4MA
  00036	66 0f 2f 05 00
	00 00 00	 comisd	 xmm0, QWORD PTR __real@405b800000000000
  0003e	76 10		 jbe	 SHORT $LN6@draw_havoc

; 814  : 		{
; 815  : 			value = -10.0;

  00040	f3 0f 10 05 00
	00 00 00	 movss	 xmm0, DWORD PTR __real@c1200000
  00048	f3 0f 11 05 00
	00 00 00	 movss	 DWORD PTR ?value@?4??draw_havoc_main_rotor_rpm_indicator@@YGXW4COCKPIT_PANELS@@@Z@4MA, xmm0
$LN6@draw_havoc:

; 816  : 		}
; 817  : 
; 818  : 		main_rotor_rpm_needle_value = value;

  00050	f3 0f 10 05 00
	00 00 00	 movss	 xmm0, DWORD PTR ?value@?4??draw_havoc_main_rotor_rpm_indicator@@YGXW4COCKPIT_PANELS@@@Z@4MA
  00058	f3 0f 11 45 fc	 movss	 DWORD PTR _main_rotor_rpm_needle_value$[ebp], xmm0

; 819  : 	}
; 820  : 	else

  0005d	eb 12		 jmp	 SHORT $LN5@draw_havoc
$LN4@draw_havoc:

; 821  : 	{
; 822  : 		main_rotor_rpm_needle_value = current_flight_dynamics->main_rotor_rpm.value;

  0005f	a1 00 00 00 00	 mov	 eax, DWORD PTR ?current_flight_dynamics@@3PAUDYNAMICS_TYPE@@A ; current_flight_dynamics
  00064	f3 0f 10 80 14
	1e 00 00	 movss	 xmm0, DWORD PTR [eax+7700]
  0006c	f3 0f 11 45 fc	 movss	 DWORD PTR _main_rotor_rpm_needle_value$[ebp], xmm0
$LN5@draw_havoc:

; 823  : 	}
; 824  : 
; 825  : 	main_rotor_rpm_needle_value = bound (main_rotor_rpm_needle_value, 0.0, 100.0);

  00071	f3 0f 5a 45 fc	 cvtss2sd xmm0, DWORD PTR _main_rotor_rpm_needle_value$[ebp]
  00076	0f 57 c9	 xorps	 xmm1, xmm1
  00079	66 0f 2f c8	 comisd	 xmm1, xmm0
  0007d	76 0a		 jbe	 SHORT $LN14@draw_havoc
  0007f	0f 57 c0	 xorps	 xmm0, xmm0
  00082	f2 0f 11 45 a4	 movsd	 QWORD PTR tv78[ebp], xmm0
  00087	eb 32		 jmp	 SHORT $LN15@draw_havoc
$LN14@draw_havoc:
  00089	f3 0f 5a 45 fc	 cvtss2sd xmm0, DWORD PTR _main_rotor_rpm_needle_value$[ebp]
  0008e	66 0f 2f 05 00
	00 00 00	 comisd	 xmm0, QWORD PTR __real@4059000000000000
  00096	76 0f		 jbe	 SHORT $LN12@draw_havoc
  00098	f2 0f 10 05 00
	00 00 00	 movsd	 xmm0, QWORD PTR __real@4059000000000000
  000a0	f2 0f 11 45 9c	 movsd	 QWORD PTR tv77[ebp], xmm0
  000a5	eb 0a		 jmp	 SHORT $LN13@draw_havoc
$LN12@draw_havoc:
  000a7	f3 0f 5a 45 fc	 cvtss2sd xmm0, DWORD PTR _main_rotor_rpm_needle_value$[ebp]
  000ac	f2 0f 11 45 9c	 movsd	 QWORD PTR tv77[ebp], xmm0
$LN13@draw_havoc:
  000b1	f2 0f 10 45 9c	 movsd	 xmm0, QWORD PTR tv77[ebp]
  000b6	f2 0f 11 45 a4	 movsd	 QWORD PTR tv78[ebp], xmm0
$LN15@draw_havoc:
  000bb	f2 0f 5a 45 a4	 cvtsd2ss xmm0, QWORD PTR tv78[ebp]
  000c0	f3 0f 11 45 fc	 movss	 DWORD PTR _main_rotor_rpm_needle_value$[ebp], xmm0

; 826  : 
; 827  : 	switch (panel)

  000c5	8b 45 08	 mov	 eax, DWORD PTR _panel$[ebp]
  000c8	89 45 a8	 mov	 DWORD PTR tv80[ebp], eax
  000cb	83 7d a8 17	 cmp	 DWORD PTR tv80[ebp], 23	; 00000017H
  000cf	74 2b		 je	 SHORT $LN8@draw_havoc
  000d1	83 7d a8 18	 cmp	 DWORD PTR tv80[ebp], 24	; 00000018H
  000d5	74 02		 je	 SHORT $LN7@draw_havoc
  000d7	eb 46		 jmp	 SHORT $LN9@draw_havoc
$LN7@draw_havoc:

; 828  : 	{
; 829  : 		////////////////////////////////////////
; 830  : 		case COCKPIT_PANEL_DOWN20_AHEAD:
; 831  : 		////////////////////////////////////////
; 832  : 		{
; 833  : 			x_centre = 88.0;

  000d9	f3 0f 10 05 00
	00 00 00	 movss	 xmm0, DWORD PTR __real@42b00000
  000e1	f3 0f 11 45 f8	 movss	 DWORD PTR _x_centre$[ebp], xmm0

; 834  : 
; 835  : 			y_centre = 329.0;

  000e6	f3 0f 10 05 00
	00 00 00	 movss	 xmm0, DWORD PTR __real@43a48000
  000ee	f3 0f 11 45 f4	 movss	 DWORD PTR _y_centre$[ebp], xmm0

; 836  : 
; 837  : 			main_rotor_rpm_needle_scale = main_rotor_rpm_indicator_needle_scale_down_20_ahead;

  000f3	c7 45 f0 00 00
	00 00		 mov	 DWORD PTR _main_rotor_rpm_needle_scale$[ebp], OFFSET ?main_rotor_rpm_indicator_needle_scale_down_20_ahead@@3PAUSCALE_DATA@@A

; 838  : 
; 839  : 			break;

  000fa	eb 31		 jmp	 SHORT $LN2@draw_havoc
$LN8@draw_havoc:

; 840  : 		}
; 841  : 		////////////////////////////////////////
; 842  : 		case COCKPIT_PANEL_DOWN20_LEFT30:
; 843  : 		////////////////////////////////////////
; 844  : 		{
; 845  : 			x_centre = 361.0;

  000fc	f3 0f 10 05 00
	00 00 00	 movss	 xmm0, DWORD PTR __real@43b48000
  00104	f3 0f 11 45 f8	 movss	 DWORD PTR _x_centre$[ebp], xmm0

; 846  : 
; 847  : 			y_centre = 307.0;

  00109	f3 0f 10 05 00
	00 00 00	 movss	 xmm0, DWORD PTR __real@43998000
  00111	f3 0f 11 45 f4	 movss	 DWORD PTR _y_centre$[ebp], xmm0

; 848  : 
; 849  : 			main_rotor_rpm_needle_scale = main_rotor_rpm_indicator_needle_scale_down_20_left_30;

  00116	c7 45 f0 00 00
	00 00		 mov	 DWORD PTR _main_rotor_rpm_needle_scale$[ebp], OFFSET ?main_rotor_rpm_indicator_needle_scale_down_20_left_30@@3PAUSCALE_DATA@@A

; 850  : 
; 851  : 			break;

  0011d	eb 0e		 jmp	 SHORT $LN2@draw_havoc
$LN9@draw_havoc:

; 852  : 		}
; 853  : 		////////////////////////////////////////
; 854  : 		default:
; 855  : 		////////////////////////////////////////
; 856  : 		{
; 857  : 			debug_fatal (instrument_error);

  0011f	a1 00 00 00 00	 mov	 eax, DWORD PTR ?instrument_error@@3PBDB
  00124	50		 push	 eax
  00125	e8 00 00 00 00	 call	 ?debug_fatal@@YAXPBDZZ	; debug_fatal
  0012a	83 c4 04	 add	 esp, 4
$LN2@draw_havoc:

; 858  : 
; 859  : 			break;
; 860  : 		}
; 861  : 	}
; 862  : 
; 863  : 	p = find_scale_value (main_rotor_rpm_needle_scale, main_rotor_rpm_needle_value);

  0012d	51		 push	 ecx
  0012e	f3 0f 10 45 fc	 movss	 xmm0, DWORD PTR _main_rotor_rpm_needle_value$[ebp]
  00133	f3 0f 11 04 24	 movss	 DWORD PTR [esp], xmm0
  00138	8b 45 f0	 mov	 eax, DWORD PTR _main_rotor_rpm_needle_scale$[ebp]
  0013b	50		 push	 eax
  0013c	e8 00 00 00 00	 call	 ?find_scale_value@@YGPAUSCALE_DATA@@PAU1@M@Z ; find_scale_value
  00141	89 45 ec	 mov	 DWORD PTR _p$[ebp], eax

; 864  : 
; 865  : 	draw_line (fx_640_480 + x_centre, fy_640_480 + y_centre, fx_640_480 + p->x, fy_640_480 + p->y, white_needle_colour);

  00144	a1 00 00 00 00	 mov	 eax, DWORD PTR ?white_needle_colour@@3UREAL_COLOUR@@A
  00149	50		 push	 eax
  0014a	8b 4d ec	 mov	 ecx, DWORD PTR _p$[ebp]
  0014d	0f bf 51 02	 movsx	 edx, WORD PTR [ecx+2]
  00151	f3 0f 2a c2	 cvtsi2ss xmm0, edx
  00155	f3 0f 58 05 00
	00 00 00	 addss	 xmm0, DWORD PTR ?fy_640_480@@3MA
  0015d	51		 push	 ecx
  0015e	f3 0f 11 04 24	 movss	 DWORD PTR [esp], xmm0
  00163	8b 45 ec	 mov	 eax, DWORD PTR _p$[ebp]
  00166	0f bf 08	 movsx	 ecx, WORD PTR [eax]
  00169	f3 0f 2a c1	 cvtsi2ss xmm0, ecx
  0016d	f3 0f 58 05 00
	00 00 00	 addss	 xmm0, DWORD PTR ?fx_640_480@@3MA
  00175	51		 push	 ecx
  00176	f3 0f 11 04 24	 movss	 DWORD PTR [esp], xmm0
  0017b	f3 0f 10 05 00
	00 00 00	 movss	 xmm0, DWORD PTR ?fy_640_480@@3MA
  00183	f3 0f 58 45 f4	 addss	 xmm0, DWORD PTR _y_centre$[ebp]
  00188	51		 push	 ecx
  00189	f3 0f 11 04 24	 movss	 DWORD PTR [esp], xmm0
  0018e	f3 0f 10 05 00
	00 00 00	 movss	 xmm0, DWORD PTR ?fx_640_480@@3MA
  00196	f3 0f 58 45 f8	 addss	 xmm0, DWORD PTR _x_centre$[ebp]
  0019b	51		 push	 ecx
  0019c	f3 0f 11 04 24	 movss	 DWORD PTR [esp], xmm0
  001a1	e8 00 00 00 00	 call	 ?draw_line@@YGXMMMMUREAL_COLOUR@@@Z ; draw_line

; 866  : 
; 867  : 	if (test_cockpit_instruments && DEBUG_MODULE)

  001a6	83 3d 00 00 00
	00 00		 cmp	 DWORD PTR ?test_cockpit_instruments@@3HA, 0 ; test_cockpit_instruments
  001ad	74 61		 je	 SHORT $LN10@draw_havoc
  001af	33 c0		 xor	 eax, eax
  001b1	74 5d		 je	 SHORT $LN10@draw_havoc

; 868  : 	{
; 869  : 		test_scale (main_rotor_rpm_needle_scale, 0.0, 100.0, 10.0);

  001b3	51		 push	 ecx
  001b4	f3 0f 10 05 00
	00 00 00	 movss	 xmm0, DWORD PTR __real@41200000
  001bc	f3 0f 11 04 24	 movss	 DWORD PTR [esp], xmm0
  001c1	51		 push	 ecx
  001c2	f3 0f 10 05 00
	00 00 00	 movss	 xmm0, DWORD PTR __real@42c80000
  001ca	f3 0f 11 04 24	 movss	 DWORD PTR [esp], xmm0
  001cf	51		 push	 ecx
  001d0	0f 57 c0	 xorps	 xmm0, xmm0
  001d3	f3 0f 11 04 24	 movss	 DWORD PTR [esp], xmm0
  001d8	8b 45 f0	 mov	 eax, DWORD PTR _main_rotor_rpm_needle_scale$[ebp]
  001db	50		 push	 eax
  001dc	e8 00 00 00 00	 call	 ?test_scale@@YGXPAUSCALE_DATA@@MMM@Z ; test_scale

; 870  : 
; 871  : 		set_pixel (ix_640_480 + x_centre, iy_640_480 + y_centre, sys_col_red);

  001e1	a1 00 00 00 00	 mov	 eax, DWORD PTR ?sys_col_red@@3UREAL_COLOUR@@A ; sys_col_red
  001e6	50		 push	 eax
  001e7	f3 0f 2a 05 00
	00 00 00	 cvtsi2ss xmm0, DWORD PTR ?iy_640_480@@3HA ; iy_640_480
  001ef	f3 0f 58 45 f4	 addss	 xmm0, DWORD PTR _y_centre$[ebp]
  001f4	f3 0f 2c c8	 cvttss2si ecx, xmm0
  001f8	51		 push	 ecx
  001f9	f3 0f 2a 05 00
	00 00 00	 cvtsi2ss xmm0, DWORD PTR ?ix_640_480@@3HA ; ix_640_480
  00201	f3 0f 58 45 f8	 addss	 xmm0, DWORD PTR _x_centre$[ebp]
  00206	f3 0f 2c d0	 cvttss2si edx, xmm0
  0020a	52		 push	 edx
  0020b	e8 00 00 00 00	 call	 ?set_pixel@@YGXHHUREAL_COLOUR@@@Z ; set_pixel
$LN10@draw_havoc:

; 872  : 	}
; 873  : }

  00210	5f		 pop	 edi
  00211	5e		 pop	 esi
  00212	5b		 pop	 ebx
  00213	8b e5		 mov	 esp, ebp
  00215	5d		 pop	 ebp
  00216	c2 04 00	 ret	 4
?draw_havoc_main_rotor_rpm_indicator@@YGXW4COCKPIT_PANELS@@@Z ENDP ; draw_havoc_main_rotor_rpm_indicator
_TEXT	ENDS
; Function compile flags: /Odtp /ZI
; File c:\users\nhv90\projects\eech\aphavoc\source\gunships\cockpits\havoc\ha_instr.c
;	COMDAT ?draw_havoc_airspeed_indicator@@YGXW4COCKPIT_PANELS@@@Z
_TEXT	SEGMENT
tv95 = -108						; size = 8
tv78 = -108						; size = 8
tv128 = -100						; size = 8
tv79 = -100						; size = 8
tv130 = -96						; size = 4
_p$ = -28						; size = 4
_slip_needle_scale$ = -24				; size = 4
_airspeed_needle_scale$ = -20				; size = 4
_y_centre$ = -16					; size = 4
_x_centre$ = -12					; size = 4
_slip_needle_value$ = -8				; size = 4
_airspeed_needle_value$ = -4				; size = 4
_panel$ = 8						; size = 4
?draw_havoc_airspeed_indicator@@YGXW4COCKPIT_PANELS@@@Z PROC ; draw_havoc_airspeed_indicator, COMDAT

; 675  : {

  00000	55		 push	 ebp
  00001	8b ec		 mov	 ebp, esp
  00003	83 ec 6c	 sub	 esp, 108		; 0000006cH
  00006	53		 push	 ebx
  00007	56		 push	 esi
  00008	57		 push	 edi

; 676  : 	float
; 677  : 		airspeed_needle_value,
; 678  : 		slip_needle_value,
; 679  : 		x_centre,
; 680  : 		y_centre;
; 681  : 
; 682  : 	scale_data
; 683  : 		*airspeed_needle_scale,
; 684  : 		*slip_needle_scale,
; 685  : 		*p;
; 686  : 
; 687  : 	if (test_cockpit_instruments)

  00009	83 3d 00 00 00
	00 00		 cmp	 DWORD PTR ?test_cockpit_instruments@@3HA, 0 ; test_cockpit_instruments
  00010	74 4d		 je	 SHORT $LN4@draw_havoc

; 688  : 	{
; 689  : 		static float
; 690  : 			value = -100.0;
; 691  : 
; 692  : 		value += 5.0;

  00012	f3 0f 5a 05 00
	00 00 00	 cvtss2sd xmm0, DWORD PTR ?value@?4??draw_havoc_airspeed_indicator@@YGXW4COCKPIT_PANELS@@@Z@4MA
  0001a	f2 0f 58 05 00
	00 00 00	 addsd	 xmm0, QWORD PTR __real@4014000000000000
  00022	f2 0f 5a c0	 cvtsd2ss xmm0, xmm0
  00026	f3 0f 11 05 00
	00 00 00	 movss	 DWORD PTR ?value@?4??draw_havoc_airspeed_indicator@@YGXW4COCKPIT_PANELS@@@Z@4MA, xmm0

; 693  : 
; 694  : 		if (value > 500.0)

  0002e	f3 0f 5a 05 00
	00 00 00	 cvtss2sd xmm0, DWORD PTR ?value@?4??draw_havoc_airspeed_indicator@@YGXW4COCKPIT_PANELS@@@Z@4MA
  00036	66 0f 2f 05 00
	00 00 00	 comisd	 xmm0, QWORD PTR __real@407f400000000000
  0003e	76 10		 jbe	 SHORT $LN6@draw_havoc

; 695  : 		{
; 696  : 			value = -100.0;

  00040	f3 0f 10 05 00
	00 00 00	 movss	 xmm0, DWORD PTR __real@c2c80000
  00048	f3 0f 11 05 00
	00 00 00	 movss	 DWORD PTR ?value@?4??draw_havoc_airspeed_indicator@@YGXW4COCKPIT_PANELS@@@Z@4MA, xmm0
$LN6@draw_havoc:

; 697  : 		}
; 698  : 
; 699  : 		airspeed_needle_value = value;

  00050	f3 0f 10 05 00
	00 00 00	 movss	 xmm0, DWORD PTR ?value@?4??draw_havoc_airspeed_indicator@@YGXW4COCKPIT_PANELS@@@Z@4MA
  00058	f3 0f 11 45 fc	 movss	 DWORD PTR _airspeed_needle_value$[ebp], xmm0

; 700  : 	}
; 701  : 	else

  0005d	eb 1a		 jmp	 SHORT $LN5@draw_havoc
$LN4@draw_havoc:

; 702  : 	{
; 703  : 		airspeed_needle_value = kilometres_per_hour (current_flight_dynamics->indicated_airspeed.value);

  0005f	a1 00 00 00 00	 mov	 eax, DWORD PTR ?current_flight_dynamics@@3PAUDYNAMICS_TYPE@@A ; current_flight_dynamics
  00064	f3 0f 10 80 fc
	23 00 00	 movss	 xmm0, DWORD PTR [eax+9212]
  0006c	f3 0f 59 05 00
	00 00 00	 mulss	 xmm0, DWORD PTR __real@40666666
  00074	f3 0f 11 45 fc	 movss	 DWORD PTR _airspeed_needle_value$[ebp], xmm0
$LN5@draw_havoc:

; 704  : 	}
; 705  : 
; 706  : 	airspeed_needle_value = bound (airspeed_needle_value, -50.0, 450.0);

  00079	f3 0f 5a 45 fc	 cvtss2sd xmm0, DWORD PTR _airspeed_needle_value$[ebp]
  0007e	f2 0f 10 0d 00
	00 00 00	 movsd	 xmm1, QWORD PTR __real@c049000000000000
  00086	66 0f 2f c8	 comisd	 xmm1, xmm0
  0008a	76 0f		 jbe	 SHORT $LN17@draw_havoc
  0008c	f2 0f 10 05 00
	00 00 00	 movsd	 xmm0, QWORD PTR __real@c049000000000000
  00094	f2 0f 11 45 9c	 movsd	 QWORD PTR tv79[ebp], xmm0
  00099	eb 32		 jmp	 SHORT $LN18@draw_havoc
$LN17@draw_havoc:
  0009b	f3 0f 5a 45 fc	 cvtss2sd xmm0, DWORD PTR _airspeed_needle_value$[ebp]
  000a0	66 0f 2f 05 00
	00 00 00	 comisd	 xmm0, QWORD PTR __real@407c200000000000
  000a8	76 0f		 jbe	 SHORT $LN15@draw_havoc
  000aa	f2 0f 10 05 00
	00 00 00	 movsd	 xmm0, QWORD PTR __real@407c200000000000
  000b2	f2 0f 11 45 94	 movsd	 QWORD PTR tv78[ebp], xmm0
  000b7	eb 0a		 jmp	 SHORT $LN16@draw_havoc
$LN15@draw_havoc:
  000b9	f3 0f 5a 45 fc	 cvtss2sd xmm0, DWORD PTR _airspeed_needle_value$[ebp]
  000be	f2 0f 11 45 94	 movsd	 QWORD PTR tv78[ebp], xmm0
$LN16@draw_havoc:
  000c3	f2 0f 10 45 94	 movsd	 xmm0, QWORD PTR tv78[ebp]
  000c8	f2 0f 11 45 9c	 movsd	 QWORD PTR tv79[ebp], xmm0
$LN18@draw_havoc:
  000cd	f2 0f 5a 45 9c	 cvtsd2ss xmm0, QWORD PTR tv79[ebp]
  000d2	f3 0f 11 45 fc	 movss	 DWORD PTR _airspeed_needle_value$[ebp], xmm0

; 707  : 
; 708  : 	if (test_cockpit_instruments)

  000d7	83 3d 00 00 00
	00 00		 cmp	 DWORD PTR ?test_cockpit_instruments@@3HA, 0 ; test_cockpit_instruments
  000de	74 4d		 je	 SHORT $LN7@draw_havoc

; 709  : 	{
; 710  : 		static float
; 711  : 			value = -120.0;
; 712  : 
; 713  : 		value += 2.0;

  000e0	f3 0f 5a 05 00
	00 00 00	 cvtss2sd xmm0, DWORD PTR ?value@?N@??draw_havoc_airspeed_indicator@@YGXW4COCKPIT_PANELS@@@Z@4MA
  000e8	f2 0f 58 05 00
	00 00 00	 addsd	 xmm0, QWORD PTR __real@4000000000000000
  000f0	f2 0f 5a c0	 cvtsd2ss xmm0, xmm0
  000f4	f3 0f 11 05 00
	00 00 00	 movss	 DWORD PTR ?value@?N@??draw_havoc_airspeed_indicator@@YGXW4COCKPIT_PANELS@@@Z@4MA, xmm0

; 714  : 
; 715  : 		if (value > 120.0)

  000fc	f3 0f 5a 05 00
	00 00 00	 cvtss2sd xmm0, DWORD PTR ?value@?N@??draw_havoc_airspeed_indicator@@YGXW4COCKPIT_PANELS@@@Z@4MA
  00104	66 0f 2f 05 00
	00 00 00	 comisd	 xmm0, QWORD PTR __real@405e000000000000
  0010c	76 10		 jbe	 SHORT $LN9@draw_havoc

; 716  : 		{
; 717  : 			value = -120.0;

  0010e	f3 0f 10 05 00
	00 00 00	 movss	 xmm0, DWORD PTR __real@c2f00000
  00116	f3 0f 11 05 00
	00 00 00	 movss	 DWORD PTR ?value@?N@??draw_havoc_airspeed_indicator@@YGXW4COCKPIT_PANELS@@@Z@4MA, xmm0
$LN9@draw_havoc:

; 718  : 		}
; 719  : 
; 720  : 		slip_needle_value = value;

  0011e	f3 0f 10 05 00
	00 00 00	 movss	 xmm0, DWORD PTR ?value@?N@??draw_havoc_airspeed_indicator@@YGXW4COCKPIT_PANELS@@@Z@4MA
  00126	f3 0f 11 45 f8	 movss	 DWORD PTR _slip_needle_value$[ebp], xmm0

; 721  : 	}
; 722  : 	else

  0012b	eb 1a		 jmp	 SHORT $LN8@draw_havoc
$LN7@draw_havoc:

; 723  : 	{
; 724  : 		slip_needle_value = kilometres_per_hour (current_flight_dynamics->indicated_slip.value);

  0012d	a1 00 00 00 00	 mov	 eax, DWORD PTR ?current_flight_dynamics@@3PAUDYNAMICS_TYPE@@A ; current_flight_dynamics
  00132	f3 0f 10 80 14
	24 00 00	 movss	 xmm0, DWORD PTR [eax+9236]
  0013a	f3 0f 59 05 00
	00 00 00	 mulss	 xmm0, DWORD PTR __real@40666666
  00142	f3 0f 11 45 f8	 movss	 DWORD PTR _slip_needle_value$[ebp], xmm0
$LN8@draw_havoc:

; 725  : 	}
; 726  : 
; 727  : 	slip_needle_value = bound (slip_needle_value, -100.0, 100.0);

  00147	f3 0f 5a 45 f8	 cvtss2sd xmm0, DWORD PTR _slip_needle_value$[ebp]
  0014c	f2 0f 10 0d 00
	00 00 00	 movsd	 xmm1, QWORD PTR __real@c059000000000000
  00154	66 0f 2f c8	 comisd	 xmm1, xmm0
  00158	76 0f		 jbe	 SHORT $LN21@draw_havoc
  0015a	f2 0f 10 05 00
	00 00 00	 movsd	 xmm0, QWORD PTR __real@c059000000000000
  00162	f2 0f 11 45 9c	 movsd	 QWORD PTR tv128[ebp], xmm0
  00167	eb 32		 jmp	 SHORT $LN22@draw_havoc
$LN21@draw_havoc:
  00169	f3 0f 5a 45 f8	 cvtss2sd xmm0, DWORD PTR _slip_needle_value$[ebp]
  0016e	66 0f 2f 05 00
	00 00 00	 comisd	 xmm0, QWORD PTR __real@4059000000000000
  00176	76 0f		 jbe	 SHORT $LN19@draw_havoc
  00178	f2 0f 10 05 00
	00 00 00	 movsd	 xmm0, QWORD PTR __real@4059000000000000
  00180	f2 0f 11 45 94	 movsd	 QWORD PTR tv95[ebp], xmm0
  00185	eb 0a		 jmp	 SHORT $LN20@draw_havoc
$LN19@draw_havoc:
  00187	f3 0f 5a 45 f8	 cvtss2sd xmm0, DWORD PTR _slip_needle_value$[ebp]
  0018c	f2 0f 11 45 94	 movsd	 QWORD PTR tv95[ebp], xmm0
$LN20@draw_havoc:
  00191	f2 0f 10 45 94	 movsd	 xmm0, QWORD PTR tv95[ebp]
  00196	f2 0f 11 45 9c	 movsd	 QWORD PTR tv128[ebp], xmm0
$LN22@draw_havoc:
  0019b	f2 0f 5a 45 9c	 cvtsd2ss xmm0, QWORD PTR tv128[ebp]
  001a0	f3 0f 11 45 f8	 movss	 DWORD PTR _slip_needle_value$[ebp], xmm0

; 728  : 
; 729  : 	switch (panel)

  001a5	8b 45 08	 mov	 eax, DWORD PTR _panel$[ebp]
  001a8	89 45 a0	 mov	 DWORD PTR tv130[ebp], eax
  001ab	83 7d a0 17	 cmp	 DWORD PTR tv130[ebp], 23 ; 00000017H
  001af	74 32		 je	 SHORT $LN11@draw_havoc
  001b1	83 7d a0 18	 cmp	 DWORD PTR tv130[ebp], 24 ; 00000018H
  001b5	74 02		 je	 SHORT $LN10@draw_havoc
  001b7	eb 54		 jmp	 SHORT $LN12@draw_havoc
$LN10@draw_havoc:

; 730  : 	{
; 731  : 		////////////////////////////////////////
; 732  : 		case COCKPIT_PANEL_DOWN20_AHEAD:
; 733  : 		////////////////////////////////////////
; 734  : 		{
; 735  : 			x_centre = 150.0;

  001b9	f3 0f 10 05 00
	00 00 00	 movss	 xmm0, DWORD PTR __real@43160000
  001c1	f3 0f 11 45 f4	 movss	 DWORD PTR _x_centre$[ebp], xmm0

; 736  : 
; 737  : 			y_centre = 329.0;

  001c6	f3 0f 10 05 00
	00 00 00	 movss	 xmm0, DWORD PTR __real@43a48000
  001ce	f3 0f 11 45 f0	 movss	 DWORD PTR _y_centre$[ebp], xmm0

; 738  : 
; 739  : 			airspeed_needle_scale = airspeed_indicator_airspeed_needle_scale_down_20_ahead;

  001d3	c7 45 ec 00 00
	00 00		 mov	 DWORD PTR _airspeed_needle_scale$[ebp], OFFSET ?airspeed_indicator_airspeed_needle_scale_down_20_ahead@@3PAUSCALE_DATA@@A

; 740  : 
; 741  : 			slip_needle_scale = airspeed_indicator_slip_needle_scale_down_20_ahead;

  001da	c7 45 e8 00 00
	00 00		 mov	 DWORD PTR _slip_needle_scale$[ebp], OFFSET ?airspeed_indicator_slip_needle_scale_down_20_ahead@@3PAUSCALE_DATA@@A

; 742  : 
; 743  : 			break;

  001e1	eb 38		 jmp	 SHORT $LN2@draw_havoc
$LN11@draw_havoc:

; 744  : 		}
; 745  : 		////////////////////////////////////////
; 746  : 		case COCKPIT_PANEL_DOWN20_LEFT30:
; 747  : 		////////////////////////////////////////
; 748  : 		{
; 749  : 			x_centre = 415.0;

  001e3	f3 0f 10 05 00
	00 00 00	 movss	 xmm0, DWORD PTR __real@43cf8000
  001eb	f3 0f 11 45 f4	 movss	 DWORD PTR _x_centre$[ebp], xmm0

; 750  : 
; 751  : 			y_centre = 320.0;

  001f0	f3 0f 10 05 00
	00 00 00	 movss	 xmm0, DWORD PTR __real@43a00000
  001f8	f3 0f 11 45 f0	 movss	 DWORD PTR _y_centre$[ebp], xmm0

; 752  : 
; 753  : 			airspeed_needle_scale = airspeed_indicator_airspeed_needle_scale_down_20_left_30;

  001fd	c7 45 ec 00 00
	00 00		 mov	 DWORD PTR _airspeed_needle_scale$[ebp], OFFSET ?airspeed_indicator_airspeed_needle_scale_down_20_left_30@@3PAUSCALE_DATA@@A

; 754  : 
; 755  : 			slip_needle_scale = airspeed_indicator_slip_needle_scale_down_20_left_30;

  00204	c7 45 e8 00 00
	00 00		 mov	 DWORD PTR _slip_needle_scale$[ebp], OFFSET ?airspeed_indicator_slip_needle_scale_down_20_left_30@@3PAUSCALE_DATA@@A

; 756  : 
; 757  : 			break;

  0020b	eb 0e		 jmp	 SHORT $LN2@draw_havoc
$LN12@draw_havoc:

; 758  : 		}
; 759  : 		////////////////////////////////////////
; 760  : 		default:
; 761  : 		////////////////////////////////////////
; 762  : 		{
; 763  : 			debug_fatal (instrument_error);

  0020d	a1 00 00 00 00	 mov	 eax, DWORD PTR ?instrument_error@@3PBDB
  00212	50		 push	 eax
  00213	e8 00 00 00 00	 call	 ?debug_fatal@@YAXPBDZZ	; debug_fatal
  00218	83 c4 04	 add	 esp, 4
$LN2@draw_havoc:

; 764  : 
; 765  : 			break;
; 766  : 		}
; 767  : 	}
; 768  : 
; 769  : 	//
; 770  : 	// draw white needle over yellow needle
; 771  : 	//
; 772  : 
; 773  : 	p = find_scale_value (slip_needle_scale, slip_needle_value);

  0021b	51		 push	 ecx
  0021c	f3 0f 10 45 f8	 movss	 xmm0, DWORD PTR _slip_needle_value$[ebp]
  00221	f3 0f 11 04 24	 movss	 DWORD PTR [esp], xmm0
  00226	8b 45 e8	 mov	 eax, DWORD PTR _slip_needle_scale$[ebp]
  00229	50		 push	 eax
  0022a	e8 00 00 00 00	 call	 ?find_scale_value@@YGPAUSCALE_DATA@@PAU1@M@Z ; find_scale_value
  0022f	89 45 e4	 mov	 DWORD PTR _p$[ebp], eax

; 774  : 
; 775  : 	draw_line (fx_640_480 + x_centre, fy_640_480 + y_centre, fx_640_480 + p->x, fy_640_480 + p->y, yellow_needle_colour);

  00232	a1 00 00 00 00	 mov	 eax, DWORD PTR ?yellow_needle_colour@@3UREAL_COLOUR@@A
  00237	50		 push	 eax
  00238	8b 4d e4	 mov	 ecx, DWORD PTR _p$[ebp]
  0023b	0f bf 51 02	 movsx	 edx, WORD PTR [ecx+2]
  0023f	f3 0f 2a c2	 cvtsi2ss xmm0, edx
  00243	f3 0f 58 05 00
	00 00 00	 addss	 xmm0, DWORD PTR ?fy_640_480@@3MA
  0024b	51		 push	 ecx
  0024c	f3 0f 11 04 24	 movss	 DWORD PTR [esp], xmm0
  00251	8b 45 e4	 mov	 eax, DWORD PTR _p$[ebp]
  00254	0f bf 08	 movsx	 ecx, WORD PTR [eax]
  00257	f3 0f 2a c1	 cvtsi2ss xmm0, ecx
  0025b	f3 0f 58 05 00
	00 00 00	 addss	 xmm0, DWORD PTR ?fx_640_480@@3MA
  00263	51		 push	 ecx
  00264	f3 0f 11 04 24	 movss	 DWORD PTR [esp], xmm0
  00269	f3 0f 10 05 00
	00 00 00	 movss	 xmm0, DWORD PTR ?fy_640_480@@3MA
  00271	f3 0f 58 45 f0	 addss	 xmm0, DWORD PTR _y_centre$[ebp]
  00276	51		 push	 ecx
  00277	f3 0f 11 04 24	 movss	 DWORD PTR [esp], xmm0
  0027c	f3 0f 10 05 00
	00 00 00	 movss	 xmm0, DWORD PTR ?fx_640_480@@3MA
  00284	f3 0f 58 45 f4	 addss	 xmm0, DWORD PTR _x_centre$[ebp]
  00289	51		 push	 ecx
  0028a	f3 0f 11 04 24	 movss	 DWORD PTR [esp], xmm0
  0028f	e8 00 00 00 00	 call	 ?draw_line@@YGXMMMMUREAL_COLOUR@@@Z ; draw_line

; 776  : 
; 777  : 	p = find_scale_value (airspeed_needle_scale, airspeed_needle_value);

  00294	51		 push	 ecx
  00295	f3 0f 10 45 fc	 movss	 xmm0, DWORD PTR _airspeed_needle_value$[ebp]
  0029a	f3 0f 11 04 24	 movss	 DWORD PTR [esp], xmm0
  0029f	8b 45 ec	 mov	 eax, DWORD PTR _airspeed_needle_scale$[ebp]
  002a2	50		 push	 eax
  002a3	e8 00 00 00 00	 call	 ?find_scale_value@@YGPAUSCALE_DATA@@PAU1@M@Z ; find_scale_value
  002a8	89 45 e4	 mov	 DWORD PTR _p$[ebp], eax

; 778  : 
; 779  : 	draw_line (fx_640_480 + x_centre, fy_640_480 + y_centre, fx_640_480 + p->x, fy_640_480 + p->y, white_needle_colour);

  002ab	a1 00 00 00 00	 mov	 eax, DWORD PTR ?white_needle_colour@@3UREAL_COLOUR@@A
  002b0	50		 push	 eax
  002b1	8b 4d e4	 mov	 ecx, DWORD PTR _p$[ebp]
  002b4	0f bf 51 02	 movsx	 edx, WORD PTR [ecx+2]
  002b8	f3 0f 2a c2	 cvtsi2ss xmm0, edx
  002bc	f3 0f 58 05 00
	00 00 00	 addss	 xmm0, DWORD PTR ?fy_640_480@@3MA
  002c4	51		 push	 ecx
  002c5	f3 0f 11 04 24	 movss	 DWORD PTR [esp], xmm0
  002ca	8b 45 e4	 mov	 eax, DWORD PTR _p$[ebp]
  002cd	0f bf 08	 movsx	 ecx, WORD PTR [eax]
  002d0	f3 0f 2a c1	 cvtsi2ss xmm0, ecx
  002d4	f3 0f 58 05 00
	00 00 00	 addss	 xmm0, DWORD PTR ?fx_640_480@@3MA
  002dc	51		 push	 ecx
  002dd	f3 0f 11 04 24	 movss	 DWORD PTR [esp], xmm0
  002e2	f3 0f 10 05 00
	00 00 00	 movss	 xmm0, DWORD PTR ?fy_640_480@@3MA
  002ea	f3 0f 58 45 f0	 addss	 xmm0, DWORD PTR _y_centre$[ebp]
  002ef	51		 push	 ecx
  002f0	f3 0f 11 04 24	 movss	 DWORD PTR [esp], xmm0
  002f5	f3 0f 10 05 00
	00 00 00	 movss	 xmm0, DWORD PTR ?fx_640_480@@3MA
  002fd	f3 0f 58 45 f4	 addss	 xmm0, DWORD PTR _x_centre$[ebp]
  00302	51		 push	 ecx
  00303	f3 0f 11 04 24	 movss	 DWORD PTR [esp], xmm0
  00308	e8 00 00 00 00	 call	 ?draw_line@@YGXMMMMUREAL_COLOUR@@@Z ; draw_line

; 780  : 
; 781  : 	if (test_cockpit_instruments && DEBUG_MODULE)

  0030d	83 3d 00 00 00
	00 00		 cmp	 DWORD PTR ?test_cockpit_instruments@@3HA, 0 ; test_cockpit_instruments
  00314	0f 84 9d 00 00
	00		 je	 $LN13@draw_havoc
  0031a	33 c0		 xor	 eax, eax
  0031c	0f 84 95 00 00
	00		 je	 $LN13@draw_havoc

; 782  : 	{
; 783  : 		test_scale (airspeed_needle_scale, -50.0, 450.0, 50.0);

  00322	51		 push	 ecx
  00323	f3 0f 10 05 00
	00 00 00	 movss	 xmm0, DWORD PTR __real@42480000
  0032b	f3 0f 11 04 24	 movss	 DWORD PTR [esp], xmm0
  00330	51		 push	 ecx
  00331	f3 0f 10 05 00
	00 00 00	 movss	 xmm0, DWORD PTR __real@43e10000
  00339	f3 0f 11 04 24	 movss	 DWORD PTR [esp], xmm0
  0033e	51		 push	 ecx
  0033f	f3 0f 10 05 00
	00 00 00	 movss	 xmm0, DWORD PTR __real@c2480000
  00347	f3 0f 11 04 24	 movss	 DWORD PTR [esp], xmm0
  0034c	8b 45 ec	 mov	 eax, DWORD PTR _airspeed_needle_scale$[ebp]
  0034f	50		 push	 eax
  00350	e8 00 00 00 00	 call	 ?test_scale@@YGXPAUSCALE_DATA@@MMM@Z ; test_scale

; 784  : 
; 785  : 		test_scale (slip_needle_scale, -100.0, 100.0, 50.0);

  00355	51		 push	 ecx
  00356	f3 0f 10 05 00
	00 00 00	 movss	 xmm0, DWORD PTR __real@42480000
  0035e	f3 0f 11 04 24	 movss	 DWORD PTR [esp], xmm0
  00363	51		 push	 ecx
  00364	f3 0f 10 05 00
	00 00 00	 movss	 xmm0, DWORD PTR __real@42c80000
  0036c	f3 0f 11 04 24	 movss	 DWORD PTR [esp], xmm0
  00371	51		 push	 ecx
  00372	f3 0f 10 05 00
	00 00 00	 movss	 xmm0, DWORD PTR __real@c2c80000
  0037a	f3 0f 11 04 24	 movss	 DWORD PTR [esp], xmm0
  0037f	8b 45 e8	 mov	 eax, DWORD PTR _slip_needle_scale$[ebp]
  00382	50		 push	 eax
  00383	e8 00 00 00 00	 call	 ?test_scale@@YGXPAUSCALE_DATA@@MMM@Z ; test_scale

; 786  : 
; 787  : 		set_pixel (ix_640_480 + x_centre, iy_640_480 + y_centre, sys_col_red);

  00388	a1 00 00 00 00	 mov	 eax, DWORD PTR ?sys_col_red@@3UREAL_COLOUR@@A ; sys_col_red
  0038d	50		 push	 eax
  0038e	f3 0f 2a 05 00
	00 00 00	 cvtsi2ss xmm0, DWORD PTR ?iy_640_480@@3HA ; iy_640_480
  00396	f3 0f 58 45 f0	 addss	 xmm0, DWORD PTR _y_centre$[ebp]
  0039b	f3 0f 2c c8	 cvttss2si ecx, xmm0
  0039f	51		 push	 ecx
  003a0	f3 0f 2a 05 00
	00 00 00	 cvtsi2ss xmm0, DWORD PTR ?ix_640_480@@3HA ; ix_640_480
  003a8	f3 0f 58 45 f4	 addss	 xmm0, DWORD PTR _x_centre$[ebp]
  003ad	f3 0f 2c d0	 cvttss2si edx, xmm0
  003b1	52		 push	 edx
  003b2	e8 00 00 00 00	 call	 ?set_pixel@@YGXHHUREAL_COLOUR@@@Z ; set_pixel
$LN13@draw_havoc:

; 788  : 	}
; 789  : }

  003b7	5f		 pop	 edi
  003b8	5e		 pop	 esi
  003b9	5b		 pop	 ebx
  003ba	8b e5		 mov	 esp, ebp
  003bc	5d		 pop	 ebp
  003bd	c2 04 00	 ret	 4
?draw_havoc_airspeed_indicator@@YGXW4COCKPIT_PANELS@@@Z ENDP ; draw_havoc_airspeed_indicator
_TEXT	ENDS
; Function compile flags: /Odtp /ZI
; File c:\users\nhv90\projects\eech\aphavoc\source\gunships\cockpits\havoc\ha_instr.c
;	COMDAT ?draw_havoc_barometric_altimeter@@YGXW4COCKPIT_PANELS@@@Z
_TEXT	SEGMENT
tv86 = -96						; size = 4
_p$ = -28						; size = 4
_small_needle_scale$ = -24				; size = 4
_large_needle_scale$ = -20				; size = 4
_y_centre$ = -16					; size = 4
_x_centre$ = -12					; size = 4
_small_needle_value$ = -8				; size = 4
_large_needle_value$ = -4				; size = 4
_panel$ = 8						; size = 4
?draw_havoc_barometric_altimeter@@YGXW4COCKPIT_PANELS@@@Z PROC ; draw_havoc_barometric_altimeter, COMDAT

; 563  : {

  00000	55		 push	 ebp
  00001	8b ec		 mov	 ebp, esp
  00003	83 ec 60	 sub	 esp, 96			; 00000060H
  00006	53		 push	 ebx
  00007	56		 push	 esi
  00008	57		 push	 edi

; 564  : 	float
; 565  : 		large_needle_value,
; 566  : 		small_needle_value,
; 567  : 		x_centre,
; 568  : 		y_centre;
; 569  : 
; 570  : 	scale_data
; 571  : 		*large_needle_scale,
; 572  : 		*small_needle_scale,
; 573  : 		*p;
; 574  : 
; 575  : 	if (test_cockpit_instruments)

  00009	83 3d 00 00 00
	00 00		 cmp	 DWORD PTR ?test_cockpit_instruments@@3HA, 0 ; test_cockpit_instruments
  00010	0f 84 83 00 00
	00		 je	 $LN4@draw_havoc

; 576  : 	{
; 577  : 		static float
; 578  : 			value = 0.0;
; 579  : 
; 580  : 		value += 10.0;

  00016	f3 0f 5a 05 00
	00 00 00	 cvtss2sd xmm0, DWORD PTR ?value@?4??draw_havoc_barometric_altimeter@@YGXW4COCKPIT_PANELS@@@Z@4MA
  0001e	f2 0f 58 05 00
	00 00 00	 addsd	 xmm0, QWORD PTR __real@4024000000000000
  00026	f2 0f 5a c0	 cvtsd2ss xmm0, xmm0
  0002a	f3 0f 11 05 00
	00 00 00	 movss	 DWORD PTR ?value@?4??draw_havoc_barometric_altimeter@@YGXW4COCKPIT_PANELS@@@Z@4MA, xmm0

; 581  : 
; 582  : 		if (value > 10000.0)

  00032	f3 0f 5a 05 00
	00 00 00	 cvtss2sd xmm0, DWORD PTR ?value@?4??draw_havoc_barometric_altimeter@@YGXW4COCKPIT_PANELS@@@Z@4MA
  0003a	66 0f 2f 05 00
	00 00 00	 comisd	 xmm0, QWORD PTR __real@40c3880000000000
  00042	76 0b		 jbe	 SHORT $LN6@draw_havoc

; 583  : 		{
; 584  : 			value = 0.0;

  00044	0f 57 c0	 xorps	 xmm0, xmm0
  00047	f3 0f 11 05 00
	00 00 00	 movss	 DWORD PTR ?value@?4??draw_havoc_barometric_altimeter@@YGXW4COCKPIT_PANELS@@@Z@4MA, xmm0
$LN6@draw_havoc:

; 585  : 		}
; 586  : 
; 587  : 		large_needle_value = fmod (value, 1000.0f);

  0004f	51		 push	 ecx
  00050	f3 0f 10 05 00
	00 00 00	 movss	 xmm0, DWORD PTR __real@447a0000
  00058	f3 0f 11 04 24	 movss	 DWORD PTR [esp], xmm0
  0005d	51		 push	 ecx
  0005e	f3 0f 10 05 00
	00 00 00	 movss	 xmm0, DWORD PTR ?value@?4??draw_havoc_barometric_altimeter@@YGXW4COCKPIT_PANELS@@@Z@4MA
  00066	f3 0f 11 04 24	 movss	 DWORD PTR [esp], xmm0
  0006b	e8 00 00 00 00	 call	 ?fmod@@YGMMM@Z		; fmod
  00070	d9 5d fc	 fstp	 DWORD PTR _large_needle_value$[ebp]

; 588  : 
; 589  : 		small_needle_value = fmod (value, 10000.0f);

  00073	51		 push	 ecx
  00074	f3 0f 10 05 00
	00 00 00	 movss	 xmm0, DWORD PTR __real@461c4000
  0007c	f3 0f 11 04 24	 movss	 DWORD PTR [esp], xmm0
  00081	51		 push	 ecx
  00082	f3 0f 10 05 00
	00 00 00	 movss	 xmm0, DWORD PTR ?value@?4??draw_havoc_barometric_altimeter@@YGXW4COCKPIT_PANELS@@@Z@4MA
  0008a	f3 0f 11 04 24	 movss	 DWORD PTR [esp], xmm0
  0008f	e8 00 00 00 00	 call	 ?fmod@@YGMMM@Z		; fmod
  00094	d9 5d f8	 fstp	 DWORD PTR _small_needle_value$[ebp]

; 590  : 	}
; 591  : 	else

  00097	eb 52		 jmp	 SHORT $LN5@draw_havoc
$LN4@draw_havoc:

; 592  : 	{
; 593  : 		large_needle_value = fmod (current_flight_dynamics->barometric_altitude.value, 1000.0f);

  00099	51		 push	 ecx
  0009a	f3 0f 10 05 00
	00 00 00	 movss	 xmm0, DWORD PTR __real@447a0000
  000a2	f3 0f 11 04 24	 movss	 DWORD PTR [esp], xmm0
  000a7	a1 00 00 00 00	 mov	 eax, DWORD PTR ?current_flight_dynamics@@3PAUDYNAMICS_TYPE@@A ; current_flight_dynamics
  000ac	51		 push	 ecx
  000ad	f3 0f 10 80 2c
	24 00 00	 movss	 xmm0, DWORD PTR [eax+9260]
  000b5	f3 0f 11 04 24	 movss	 DWORD PTR [esp], xmm0
  000ba	e8 00 00 00 00	 call	 ?fmod@@YGMMM@Z		; fmod
  000bf	d9 5d fc	 fstp	 DWORD PTR _large_needle_value$[ebp]

; 594  : 
; 595  : 		small_needle_value = fmod (current_flight_dynamics->barometric_altitude.value, 10000.0f);

  000c2	51		 push	 ecx
  000c3	f3 0f 10 05 00
	00 00 00	 movss	 xmm0, DWORD PTR __real@461c4000
  000cb	f3 0f 11 04 24	 movss	 DWORD PTR [esp], xmm0
  000d0	a1 00 00 00 00	 mov	 eax, DWORD PTR ?current_flight_dynamics@@3PAUDYNAMICS_TYPE@@A ; current_flight_dynamics
  000d5	51		 push	 ecx
  000d6	f3 0f 10 80 2c
	24 00 00	 movss	 xmm0, DWORD PTR [eax+9260]
  000de	f3 0f 11 04 24	 movss	 DWORD PTR [esp], xmm0
  000e3	e8 00 00 00 00	 call	 ?fmod@@YGMMM@Z		; fmod
  000e8	d9 5d f8	 fstp	 DWORD PTR _small_needle_value$[ebp]
$LN5@draw_havoc:

; 596  : 	}
; 597  : 
; 598  : 	switch (panel)

  000eb	8b 45 08	 mov	 eax, DWORD PTR _panel$[ebp]
  000ee	89 45 a0	 mov	 DWORD PTR tv86[ebp], eax
  000f1	83 7d a0 16	 cmp	 DWORD PTR tv86[ebp], 22	; 00000016H
  000f5	74 62		 je	 SHORT $LN9@draw_havoc
  000f7	83 7d a0 17	 cmp	 DWORD PTR tv86[ebp], 23	; 00000017H
  000fb	74 32		 je	 SHORT $LN8@draw_havoc
  000fd	83 7d a0 18	 cmp	 DWORD PTR tv86[ebp], 24	; 00000018H
  00101	74 02		 je	 SHORT $LN7@draw_havoc
  00103	eb 7e		 jmp	 SHORT $LN10@draw_havoc
$LN7@draw_havoc:

; 599  : 	{
; 600  : 		////////////////////////////////////////
; 601  : 		case COCKPIT_PANEL_DOWN20_AHEAD:
; 602  : 		////////////////////////////////////////
; 603  : 		{
; 604  : 			x_centre = 75.0;

  00105	f3 0f 10 05 00
	00 00 00	 movss	 xmm0, DWORD PTR __real@42960000
  0010d	f3 0f 11 45 f4	 movss	 DWORD PTR _x_centre$[ebp], xmm0

; 605  : 
; 606  : 			y_centre = 394.0;

  00112	f3 0f 10 05 00
	00 00 00	 movss	 xmm0, DWORD PTR __real@43c50000
  0011a	f3 0f 11 45 f0	 movss	 DWORD PTR _y_centre$[ebp], xmm0

; 607  : 
; 608  : 			large_needle_scale = barometric_altimeter_large_needle_scale_down_20_ahead;

  0011f	c7 45 ec 00 00
	00 00		 mov	 DWORD PTR _large_needle_scale$[ebp], OFFSET ?barometric_altimeter_large_needle_scale_down_20_ahead@@3PAUSCALE_DATA@@A

; 609  : 
; 610  : 			small_needle_scale = barometric_altimeter_small_needle_scale_down_20_ahead;

  00126	c7 45 e8 00 00
	00 00		 mov	 DWORD PTR _small_needle_scale$[ebp], OFFSET ?barometric_altimeter_small_needle_scale_down_20_ahead@@3PAUSCALE_DATA@@A

; 611  : 
; 612  : 			break;

  0012d	eb 62		 jmp	 SHORT $LN2@draw_havoc
$LN8@draw_havoc:

; 613  : 		}
; 614  : 		////////////////////////////////////////
; 615  : 		case COCKPIT_PANEL_DOWN20_LEFT30:
; 616  : 		////////////////////////////////////////
; 617  : 		{
; 618  : 			x_centre = 340.0;

  0012f	f3 0f 10 05 00
	00 00 00	 movss	 xmm0, DWORD PTR __real@43aa0000
  00137	f3 0f 11 45 f4	 movss	 DWORD PTR _x_centre$[ebp], xmm0

; 619  : 
; 620  : 			y_centre = 361.0;

  0013c	f3 0f 10 05 00
	00 00 00	 movss	 xmm0, DWORD PTR __real@43b48000
  00144	f3 0f 11 45 f0	 movss	 DWORD PTR _y_centre$[ebp], xmm0

; 621  : 
; 622  : 			large_needle_scale = barometric_altimeter_large_needle_scale_down_20_left_30;

  00149	c7 45 ec 00 00
	00 00		 mov	 DWORD PTR _large_needle_scale$[ebp], OFFSET ?barometric_altimeter_large_needle_scale_down_20_left_30@@3PAUSCALE_DATA@@A

; 623  : 
; 624  : 			small_needle_scale = barometric_altimeter_small_needle_scale_down_20_left_30;

  00150	c7 45 e8 00 00
	00 00		 mov	 DWORD PTR _small_needle_scale$[ebp], OFFSET ?barometric_altimeter_small_needle_scale_down_20_left_30@@3PAUSCALE_DATA@@A

; 625  : 
; 626  : 			break;

  00157	eb 38		 jmp	 SHORT $LN2@draw_havoc
$LN9@draw_havoc:

; 627  : 		}
; 628  : 		////////////////////////////////////////
; 629  : 		case COCKPIT_PANEL_DOWN20_LEFT60:
; 630  : 		////////////////////////////////////////
; 631  : 		{
; 632  : 			x_centre = 614.0;

  00159	f3 0f 10 05 00
	00 00 00	 movss	 xmm0, DWORD PTR __real@44198000
  00161	f3 0f 11 45 f4	 movss	 DWORD PTR _x_centre$[ebp], xmm0

; 633  : 
; 634  : 			y_centre = 407.0;

  00166	f3 0f 10 05 00
	00 00 00	 movss	 xmm0, DWORD PTR __real@43cb8000
  0016e	f3 0f 11 45 f0	 movss	 DWORD PTR _y_centre$[ebp], xmm0

; 635  : 
; 636  : 			large_needle_scale = barometric_altimeter_large_needle_scale_down_20_left_60;

  00173	c7 45 ec 00 00
	00 00		 mov	 DWORD PTR _large_needle_scale$[ebp], OFFSET ?barometric_altimeter_large_needle_scale_down_20_left_60@@3PAUSCALE_DATA@@A

; 637  : 
; 638  : 			small_needle_scale = barometric_altimeter_small_needle_scale_down_20_left_60;

  0017a	c7 45 e8 00 00
	00 00		 mov	 DWORD PTR _small_needle_scale$[ebp], OFFSET ?barometric_altimeter_small_needle_scale_down_20_left_60@@3PAUSCALE_DATA@@A

; 639  : 
; 640  : 			break;

  00181	eb 0e		 jmp	 SHORT $LN2@draw_havoc
$LN10@draw_havoc:

; 641  : 		}
; 642  : 		////////////////////////////////////////
; 643  : 		default:
; 644  : 		////////////////////////////////////////
; 645  : 		{
; 646  : 			debug_fatal (instrument_error);

  00183	a1 00 00 00 00	 mov	 eax, DWORD PTR ?instrument_error@@3PBDB
  00188	50		 push	 eax
  00189	e8 00 00 00 00	 call	 ?debug_fatal@@YAXPBDZZ	; debug_fatal
  0018e	83 c4 04	 add	 esp, 4
$LN2@draw_havoc:

; 647  : 
; 648  : 			break;
; 649  : 		}
; 650  : 	}
; 651  : 
; 652  : 	p = find_scale_value (large_needle_scale, large_needle_value);

  00191	51		 push	 ecx
  00192	f3 0f 10 45 fc	 movss	 xmm0, DWORD PTR _large_needle_value$[ebp]
  00197	f3 0f 11 04 24	 movss	 DWORD PTR [esp], xmm0
  0019c	8b 45 ec	 mov	 eax, DWORD PTR _large_needle_scale$[ebp]
  0019f	50		 push	 eax
  001a0	e8 00 00 00 00	 call	 ?find_scale_value@@YGPAUSCALE_DATA@@PAU1@M@Z ; find_scale_value
  001a5	89 45 e4	 mov	 DWORD PTR _p$[ebp], eax

; 653  : 
; 654  : 	draw_line (fx_640_480 + x_centre, fy_640_480 + y_centre, fx_640_480 + p->x, fy_640_480 + p->y, white_needle_colour);

  001a8	a1 00 00 00 00	 mov	 eax, DWORD PTR ?white_needle_colour@@3UREAL_COLOUR@@A
  001ad	50		 push	 eax
  001ae	8b 4d e4	 mov	 ecx, DWORD PTR _p$[ebp]
  001b1	0f bf 51 02	 movsx	 edx, WORD PTR [ecx+2]
  001b5	f3 0f 2a c2	 cvtsi2ss xmm0, edx
  001b9	f3 0f 58 05 00
	00 00 00	 addss	 xmm0, DWORD PTR ?fy_640_480@@3MA
  001c1	51		 push	 ecx
  001c2	f3 0f 11 04 24	 movss	 DWORD PTR [esp], xmm0
  001c7	8b 45 e4	 mov	 eax, DWORD PTR _p$[ebp]
  001ca	0f bf 08	 movsx	 ecx, WORD PTR [eax]
  001cd	f3 0f 2a c1	 cvtsi2ss xmm0, ecx
  001d1	f3 0f 58 05 00
	00 00 00	 addss	 xmm0, DWORD PTR ?fx_640_480@@3MA
  001d9	51		 push	 ecx
  001da	f3 0f 11 04 24	 movss	 DWORD PTR [esp], xmm0
  001df	f3 0f 10 05 00
	00 00 00	 movss	 xmm0, DWORD PTR ?fy_640_480@@3MA
  001e7	f3 0f 58 45 f0	 addss	 xmm0, DWORD PTR _y_centre$[ebp]
  001ec	51		 push	 ecx
  001ed	f3 0f 11 04 24	 movss	 DWORD PTR [esp], xmm0
  001f2	f3 0f 10 05 00
	00 00 00	 movss	 xmm0, DWORD PTR ?fx_640_480@@3MA
  001fa	f3 0f 58 45 f4	 addss	 xmm0, DWORD PTR _x_centre$[ebp]
  001ff	51		 push	 ecx
  00200	f3 0f 11 04 24	 movss	 DWORD PTR [esp], xmm0
  00205	e8 00 00 00 00	 call	 ?draw_line@@YGXMMMMUREAL_COLOUR@@@Z ; draw_line

; 655  : 
; 656  : 	p = find_scale_value (small_needle_scale, small_needle_value);

  0020a	51		 push	 ecx
  0020b	f3 0f 10 45 f8	 movss	 xmm0, DWORD PTR _small_needle_value$[ebp]
  00210	f3 0f 11 04 24	 movss	 DWORD PTR [esp], xmm0
  00215	8b 45 e8	 mov	 eax, DWORD PTR _small_needle_scale$[ebp]
  00218	50		 push	 eax
  00219	e8 00 00 00 00	 call	 ?find_scale_value@@YGPAUSCALE_DATA@@PAU1@M@Z ; find_scale_value
  0021e	89 45 e4	 mov	 DWORD PTR _p$[ebp], eax

; 657  : 
; 658  : 	draw_line (fx_640_480 + x_centre, fy_640_480 + y_centre, fx_640_480 + p->x, fy_640_480 + p->y, white_needle_colour);

  00221	a1 00 00 00 00	 mov	 eax, DWORD PTR ?white_needle_colour@@3UREAL_COLOUR@@A
  00226	50		 push	 eax
  00227	8b 4d e4	 mov	 ecx, DWORD PTR _p$[ebp]
  0022a	0f bf 51 02	 movsx	 edx, WORD PTR [ecx+2]
  0022e	f3 0f 2a c2	 cvtsi2ss xmm0, edx
  00232	f3 0f 58 05 00
	00 00 00	 addss	 xmm0, DWORD PTR ?fy_640_480@@3MA
  0023a	51		 push	 ecx
  0023b	f3 0f 11 04 24	 movss	 DWORD PTR [esp], xmm0
  00240	8b 45 e4	 mov	 eax, DWORD PTR _p$[ebp]
  00243	0f bf 08	 movsx	 ecx, WORD PTR [eax]
  00246	f3 0f 2a c1	 cvtsi2ss xmm0, ecx
  0024a	f3 0f 58 05 00
	00 00 00	 addss	 xmm0, DWORD PTR ?fx_640_480@@3MA
  00252	51		 push	 ecx
  00253	f3 0f 11 04 24	 movss	 DWORD PTR [esp], xmm0
  00258	f3 0f 10 05 00
	00 00 00	 movss	 xmm0, DWORD PTR ?fy_640_480@@3MA
  00260	f3 0f 58 45 f0	 addss	 xmm0, DWORD PTR _y_centre$[ebp]
  00265	51		 push	 ecx
  00266	f3 0f 11 04 24	 movss	 DWORD PTR [esp], xmm0
  0026b	f3 0f 10 05 00
	00 00 00	 movss	 xmm0, DWORD PTR ?fx_640_480@@3MA
  00273	f3 0f 58 45 f4	 addss	 xmm0, DWORD PTR _x_centre$[ebp]
  00278	51		 push	 ecx
  00279	f3 0f 11 04 24	 movss	 DWORD PTR [esp], xmm0
  0027e	e8 00 00 00 00	 call	 ?draw_line@@YGXMMMMUREAL_COLOUR@@@Z ; draw_line

; 659  : 
; 660  : 	if (test_cockpit_instruments && DEBUG_MODULE)

  00283	83 3d 00 00 00
	00 00		 cmp	 DWORD PTR ?test_cockpit_instruments@@3HA, 0 ; test_cockpit_instruments
  0028a	0f 84 93 00 00
	00		 je	 $LN11@draw_havoc
  00290	33 c0		 xor	 eax, eax
  00292	0f 84 8b 00 00
	00		 je	 $LN11@draw_havoc

; 661  : 	{
; 662  : 		test_scale (large_needle_scale, 0.0, 900.0, 100.0);

  00298	51		 push	 ecx
  00299	f3 0f 10 05 00
	00 00 00	 movss	 xmm0, DWORD PTR __real@42c80000
  002a1	f3 0f 11 04 24	 movss	 DWORD PTR [esp], xmm0
  002a6	51		 push	 ecx
  002a7	f3 0f 10 05 00
	00 00 00	 movss	 xmm0, DWORD PTR __real@44610000
  002af	f3 0f 11 04 24	 movss	 DWORD PTR [esp], xmm0
  002b4	51		 push	 ecx
  002b5	0f 57 c0	 xorps	 xmm0, xmm0
  002b8	f3 0f 11 04 24	 movss	 DWORD PTR [esp], xmm0
  002bd	8b 45 ec	 mov	 eax, DWORD PTR _large_needle_scale$[ebp]
  002c0	50		 push	 eax
  002c1	e8 00 00 00 00	 call	 ?test_scale@@YGXPAUSCALE_DATA@@MMM@Z ; test_scale

; 663  : 
; 664  : 		test_scale (small_needle_scale, 0.0, 9000.0, 1000.0);

  002c6	51		 push	 ecx
  002c7	f3 0f 10 05 00
	00 00 00	 movss	 xmm0, DWORD PTR __real@447a0000
  002cf	f3 0f 11 04 24	 movss	 DWORD PTR [esp], xmm0
  002d4	51		 push	 ecx
  002d5	f3 0f 10 05 00
	00 00 00	 movss	 xmm0, DWORD PTR __real@460ca000
  002dd	f3 0f 11 04 24	 movss	 DWORD PTR [esp], xmm0
  002e2	51		 push	 ecx
  002e3	0f 57 c0	 xorps	 xmm0, xmm0
  002e6	f3 0f 11 04 24	 movss	 DWORD PTR [esp], xmm0
  002eb	8b 45 e8	 mov	 eax, DWORD PTR _small_needle_scale$[ebp]
  002ee	50		 push	 eax
  002ef	e8 00 00 00 00	 call	 ?test_scale@@YGXPAUSCALE_DATA@@MMM@Z ; test_scale

; 665  : 
; 666  : 		set_pixel (ix_640_480 + x_centre, iy_640_480 + y_centre, sys_col_red);

  002f4	a1 00 00 00 00	 mov	 eax, DWORD PTR ?sys_col_red@@3UREAL_COLOUR@@A ; sys_col_red
  002f9	50		 push	 eax
  002fa	f3 0f 2a 05 00
	00 00 00	 cvtsi2ss xmm0, DWORD PTR ?iy_640_480@@3HA ; iy_640_480
  00302	f3 0f 58 45 f0	 addss	 xmm0, DWORD PTR _y_centre$[ebp]
  00307	f3 0f 2c c8	 cvttss2si ecx, xmm0
  0030b	51		 push	 ecx
  0030c	f3 0f 2a 05 00
	00 00 00	 cvtsi2ss xmm0, DWORD PTR ?ix_640_480@@3HA ; ix_640_480
  00314	f3 0f 58 45 f4	 addss	 xmm0, DWORD PTR _x_centre$[ebp]
  00319	f3 0f 2c d0	 cvttss2si edx, xmm0
  0031d	52		 push	 edx
  0031e	e8 00 00 00 00	 call	 ?set_pixel@@YGXHHUREAL_COLOUR@@@Z ; set_pixel
$LN11@draw_havoc:

; 667  : 	}
; 668  : }

  00323	5f		 pop	 edi
  00324	5e		 pop	 esi
  00325	5b		 pop	 ebx
  00326	8b e5		 mov	 esp, ebp
  00328	5d		 pop	 ebp
  00329	c2 04 00	 ret	 4
?draw_havoc_barometric_altimeter@@YGXW4COCKPIT_PANELS@@@Z ENDP ; draw_havoc_barometric_altimeter
_TEXT	ENDS
; Function compile flags: /Odtp /ZI
; File c:\users\nhv90\projects\eech\aphavoc\source\gunships\cockpits\havoc\ha_instr.c
;	COMDAT ?set_havoc_instrument_colours@@YGXXZ
_TEXT	SEGMENT
tv82 = -76						; size = 4
tv76 = -72						; size = 4
tv69 = -68						; size = 4
?set_havoc_instrument_colours@@YGXXZ PROC		; set_havoc_instrument_colours, COMDAT

; 235  : {

  00000	55		 push	 ebp
  00001	8b ec		 mov	 ebp, esp
  00003	83 ec 4c	 sub	 esp, 76			; 0000004cH
  00006	53		 push	 ebx
  00007	56		 push	 esi
  00008	57		 push	 edi

; 236  : 	switch (get_local_entity_int_value (get_session_entity (), INT_TYPE_DAY_SEGMENT_TYPE))

  00009	83 3d 00 00 00
	00 00		 cmp	 DWORD PTR ?session_entity@@3PAUENTITY@@A, 0 ; session_entity
  00010	74 0c		 je	 SHORT $LN9@set_havoc_
  00012	a1 00 00 00 00	 mov	 eax, DWORD PTR ?session_entity@@3PAUENTITY@@A ; session_entity
  00017	8b 08		 mov	 ecx, DWORD PTR [eax]
  00019	89 4d bc	 mov	 DWORD PTR tv69[ebp], ecx
  0001c	eb 1d		 jmp	 SHORT $LN10@set_havoc_
$LN9@set_havoc_:
  0001e	68 ec 00 00 00	 push	 236			; 000000ecH
  00023	68 00 00 00 00	 push	 OFFSET ??_C@_0EP@MNOBCBEH@c?3?2users?2nhv90?2projects?2eech?2ap@
  00028	8b 15 00 00 00
	00		 mov	 edx, DWORD PTR ?null_entity_pointer_message@@3PBDB ; null_entity_pointer_message
  0002e	52		 push	 edx
  0002f	e8 00 00 00 00	 call	 ?process_assert@@YGXPBD0H@Z ; process_assert
  00034	c7 45 bc 00 00
	00 00		 mov	 DWORD PTR tv69[ebp], 0
$LN10@set_havoc_:
  0003b	b8 01 00 00 00	 mov	 eax, 1
  00040	85 c0		 test	 eax, eax
  00042	74 09		 je	 SHORT $LN11@set_havoc_
  00044	c7 45 b8 27 00
	00 00		 mov	 DWORD PTR tv76[ebp], 39	; 00000027H
  0004b	eb 1d		 jmp	 SHORT $LN12@set_havoc_
$LN11@set_havoc_:
  0004d	68 ec 00 00 00	 push	 236			; 000000ecH
  00052	68 00 00 00 00	 push	 OFFSET ??_C@_0EP@MNOBCBEH@c?3?2users?2nhv90?2projects?2eech?2ap@
  00057	8b 0d 00 00 00
	00		 mov	 ecx, DWORD PTR ?overload_invalid_int_type_message@@3PBDB ; overload_invalid_int_type_message
  0005d	51		 push	 ecx
  0005e	e8 00 00 00 00	 call	 ?process_assert@@YGXPBD0H@Z ; process_assert
  00063	c7 45 b8 00 00
	00 00		 mov	 DWORD PTR tv76[ebp], 0
$LN12@set_havoc_:
  0006a	6a 27		 push	 39			; 00000027H
  0006c	8b 15 00 00 00
	00		 mov	 edx, DWORD PTR ?session_entity@@3PAUENTITY@@A ; session_entity
  00072	52		 push	 edx
  00073	69 45 bc 5c 04
	00 00		 imul	 eax, DWORD PTR tv69[ebp], 1116
  0007a	8b 4d b8	 mov	 ecx, DWORD PTR tv76[ebp]
  0007d	8b 94 88 00 00
	00 00		 mov	 edx, DWORD PTR ?fn_get_local_entity_int_value@@3PAY0BBH@P6GHPAUENTITY@@W4INT_TYPES@@@ZA[eax+ecx*4]
  00084	ff d2		 call	 edx
  00086	89 45 b4	 mov	 DWORD PTR tv82[ebp], eax
  00089	83 7d b4 03	 cmp	 DWORD PTR tv82[ebp], 3
  0008d	0f 87 2e 01 00
	00		 ja	 $LN1@set_havoc_
  00093	8b 45 b4	 mov	 eax, DWORD PTR tv82[ebp]
  00096	ff 24 85 00 00
	00 00		 jmp	 DWORD PTR $LN13@set_havoc_[eax*4]
$LN4@set_havoc_:

; 237  : 	{
; 238  : 		case DAY_SEGMENT_TYPE_DAWN:
; 239  : 		{
; 240  : 			white_needle_colour	= white_needle_colour_level2;

  0009d	a1 00 00 00 00	 mov	 eax, DWORD PTR ?white_needle_colour_level2@@3UREAL_COLOUR@@A
  000a2	a3 00 00 00 00	 mov	 DWORD PTR ?white_needle_colour@@3UREAL_COLOUR@@A, eax

; 241  : 			grey_needle_colour = grey_needle_colour_level2;

  000a7	a1 00 00 00 00	 mov	 eax, DWORD PTR ?grey_needle_colour_level2@@3UREAL_COLOUR@@A
  000ac	a3 00 00 00 00	 mov	 DWORD PTR ?grey_needle_colour@@3UREAL_COLOUR@@A, eax

; 242  : 			yellow_needle_colour	= yellow_needle_colour_level2;

  000b1	a1 00 00 00 00	 mov	 eax, DWORD PTR ?yellow_needle_colour_level2@@3UREAL_COLOUR@@A
  000b6	a3 00 00 00 00	 mov	 DWORD PTR ?yellow_needle_colour@@3UREAL_COLOUR@@A, eax

; 243  : 			orange_needle_colour	= orange_needle_colour_level2;

  000bb	a1 00 00 00 00	 mov	 eax, DWORD PTR ?orange_needle_colour_level2@@3UREAL_COLOUR@@A
  000c0	a3 00 00 00 00	 mov	 DWORD PTR ?orange_needle_colour@@3UREAL_COLOUR@@A, eax

; 244  : 			red_needle_colour		= red_needle_colour_level2;

  000c5	a1 00 00 00 00	 mov	 eax, DWORD PTR ?red_needle_colour_level2@@3UREAL_COLOUR@@A
  000ca	a3 00 00 00 00	 mov	 DWORD PTR ?red_needle_colour@@3UREAL_COLOUR@@A, eax

; 245  : 			white_digit_colour	= white_digit_colour_level2;

  000cf	a1 00 00 00 00	 mov	 eax, DWORD PTR ?white_digit_colour_level2@@3UREAL_COLOUR@@A
  000d4	a3 00 00 00 00	 mov	 DWORD PTR ?white_digit_colour@@3UREAL_COLOUR@@A, eax

; 246  : 			yellow_digit_colour	= yellow_digit_colour_level2;

  000d9	a1 00 00 00 00	 mov	 eax, DWORD PTR ?yellow_digit_colour_level2@@3UREAL_COLOUR@@A
  000de	a3 00 00 00 00	 mov	 DWORD PTR ?yellow_digit_colour@@3UREAL_COLOUR@@A, eax

; 247  : 
; 248  : 			break;

  000e3	e9 d9 00 00 00	 jmp	 $LN1@set_havoc_
$LN5@set_havoc_:

; 249  : 		}
; 250  : 		case DAY_SEGMENT_TYPE_DAY:
; 251  : 		{
; 252  : 			white_needle_colour	= white_needle_colour_level1;

  000e8	a1 00 00 00 00	 mov	 eax, DWORD PTR ?white_needle_colour_level1@@3UREAL_COLOUR@@A
  000ed	a3 00 00 00 00	 mov	 DWORD PTR ?white_needle_colour@@3UREAL_COLOUR@@A, eax

; 253  : 			grey_needle_colour = grey_needle_colour_level1;

  000f2	a1 00 00 00 00	 mov	 eax, DWORD PTR ?grey_needle_colour_level1@@3UREAL_COLOUR@@A
  000f7	a3 00 00 00 00	 mov	 DWORD PTR ?grey_needle_colour@@3UREAL_COLOUR@@A, eax

; 254  : 			yellow_needle_colour	= yellow_needle_colour_level1;

  000fc	a1 00 00 00 00	 mov	 eax, DWORD PTR ?yellow_needle_colour_level1@@3UREAL_COLOUR@@A
  00101	a3 00 00 00 00	 mov	 DWORD PTR ?yellow_needle_colour@@3UREAL_COLOUR@@A, eax

; 255  : 			orange_needle_colour	= orange_needle_colour_level1;

  00106	a1 00 00 00 00	 mov	 eax, DWORD PTR ?orange_needle_colour_level1@@3UREAL_COLOUR@@A
  0010b	a3 00 00 00 00	 mov	 DWORD PTR ?orange_needle_colour@@3UREAL_COLOUR@@A, eax

; 256  : 			red_needle_colour		= red_needle_colour_level1;

  00110	a1 00 00 00 00	 mov	 eax, DWORD PTR ?red_needle_colour_level1@@3UREAL_COLOUR@@A
  00115	a3 00 00 00 00	 mov	 DWORD PTR ?red_needle_colour@@3UREAL_COLOUR@@A, eax

; 257  : 			white_digit_colour	= white_digit_colour_level1;

  0011a	a1 00 00 00 00	 mov	 eax, DWORD PTR ?white_digit_colour_level1@@3UREAL_COLOUR@@A
  0011f	a3 00 00 00 00	 mov	 DWORD PTR ?white_digit_colour@@3UREAL_COLOUR@@A, eax

; 258  : 			yellow_digit_colour	= yellow_digit_colour_level1;

  00124	a1 00 00 00 00	 mov	 eax, DWORD PTR ?yellow_digit_colour_level1@@3UREAL_COLOUR@@A
  00129	a3 00 00 00 00	 mov	 DWORD PTR ?yellow_digit_colour@@3UREAL_COLOUR@@A, eax

; 259  : 
; 260  : 			break;

  0012e	e9 8e 00 00 00	 jmp	 $LN1@set_havoc_
$LN6@set_havoc_:

; 261  : 		}
; 262  : 		case DAY_SEGMENT_TYPE_DUSK:
; 263  : 		{
; 264  : 			white_needle_colour	= white_needle_colour_level2;

  00133	a1 00 00 00 00	 mov	 eax, DWORD PTR ?white_needle_colour_level2@@3UREAL_COLOUR@@A
  00138	a3 00 00 00 00	 mov	 DWORD PTR ?white_needle_colour@@3UREAL_COLOUR@@A, eax

; 265  : 			grey_needle_colour = grey_needle_colour_level2;

  0013d	a1 00 00 00 00	 mov	 eax, DWORD PTR ?grey_needle_colour_level2@@3UREAL_COLOUR@@A
  00142	a3 00 00 00 00	 mov	 DWORD PTR ?grey_needle_colour@@3UREAL_COLOUR@@A, eax

; 266  : 			yellow_needle_colour	= yellow_needle_colour_level2;

  00147	a1 00 00 00 00	 mov	 eax, DWORD PTR ?yellow_needle_colour_level2@@3UREAL_COLOUR@@A
  0014c	a3 00 00 00 00	 mov	 DWORD PTR ?yellow_needle_colour@@3UREAL_COLOUR@@A, eax

; 267  : 			orange_needle_colour	= orange_needle_colour_level2;

  00151	a1 00 00 00 00	 mov	 eax, DWORD PTR ?orange_needle_colour_level2@@3UREAL_COLOUR@@A
  00156	a3 00 00 00 00	 mov	 DWORD PTR ?orange_needle_colour@@3UREAL_COLOUR@@A, eax

; 268  : 			red_needle_colour		= red_needle_colour_level2;

  0015b	a1 00 00 00 00	 mov	 eax, DWORD PTR ?red_needle_colour_level2@@3UREAL_COLOUR@@A
  00160	a3 00 00 00 00	 mov	 DWORD PTR ?red_needle_colour@@3UREAL_COLOUR@@A, eax

; 269  : 			white_digit_colour	= white_digit_colour_level2;

  00165	a1 00 00 00 00	 mov	 eax, DWORD PTR ?white_digit_colour_level2@@3UREAL_COLOUR@@A
  0016a	a3 00 00 00 00	 mov	 DWORD PTR ?white_digit_colour@@3UREAL_COLOUR@@A, eax

; 270  : 			yellow_digit_colour	= yellow_digit_colour_level2;

  0016f	a1 00 00 00 00	 mov	 eax, DWORD PTR ?yellow_digit_colour_level2@@3UREAL_COLOUR@@A
  00174	a3 00 00 00 00	 mov	 DWORD PTR ?yellow_digit_colour@@3UREAL_COLOUR@@A, eax

; 271  : 
; 272  : 			break;

  00179	eb 46		 jmp	 SHORT $LN1@set_havoc_
$LN7@set_havoc_:

; 273  : 		}
; 274  : 		case DAY_SEGMENT_TYPE_NIGHT:
; 275  : 		{
; 276  : 			white_needle_colour	= white_needle_colour_level3;

  0017b	a1 00 00 00 00	 mov	 eax, DWORD PTR ?white_needle_colour_level3@@3UREAL_COLOUR@@A
  00180	a3 00 00 00 00	 mov	 DWORD PTR ?white_needle_colour@@3UREAL_COLOUR@@A, eax

; 277  : 			grey_needle_colour = grey_needle_colour_level3;

  00185	a1 00 00 00 00	 mov	 eax, DWORD PTR ?grey_needle_colour_level3@@3UREAL_COLOUR@@A
  0018a	a3 00 00 00 00	 mov	 DWORD PTR ?grey_needle_colour@@3UREAL_COLOUR@@A, eax

; 278  : 			yellow_needle_colour	= yellow_needle_colour_level3;

  0018f	a1 00 00 00 00	 mov	 eax, DWORD PTR ?yellow_needle_colour_level3@@3UREAL_COLOUR@@A
  00194	a3 00 00 00 00	 mov	 DWORD PTR ?yellow_needle_colour@@3UREAL_COLOUR@@A, eax

; 279  : 			orange_needle_colour	= orange_needle_colour_level3;

  00199	a1 00 00 00 00	 mov	 eax, DWORD PTR ?orange_needle_colour_level3@@3UREAL_COLOUR@@A
  0019e	a3 00 00 00 00	 mov	 DWORD PTR ?orange_needle_colour@@3UREAL_COLOUR@@A, eax

; 280  : 			red_needle_colour		= red_needle_colour_level3;

  001a3	a1 00 00 00 00	 mov	 eax, DWORD PTR ?red_needle_colour_level3@@3UREAL_COLOUR@@A
  001a8	a3 00 00 00 00	 mov	 DWORD PTR ?red_needle_colour@@3UREAL_COLOUR@@A, eax

; 281  : 			white_digit_colour	= white_digit_colour_level3;

  001ad	a1 00 00 00 00	 mov	 eax, DWORD PTR ?white_digit_colour_level3@@3UREAL_COLOUR@@A
  001b2	a3 00 00 00 00	 mov	 DWORD PTR ?white_digit_colour@@3UREAL_COLOUR@@A, eax

; 282  : 			yellow_digit_colour	= yellow_digit_colour_level3;

  001b7	a1 00 00 00 00	 mov	 eax, DWORD PTR ?yellow_digit_colour_level3@@3UREAL_COLOUR@@A
  001bc	a3 00 00 00 00	 mov	 DWORD PTR ?yellow_digit_colour@@3UREAL_COLOUR@@A, eax
$LN1@set_havoc_:

; 283  : 
; 284  : 			break;
; 285  : 		}
; 286  : 	}
; 287  : 
; 288  : 	#if DEMO_VERSION
; 289  : 
; 290  : 	white_needle_colour	= white_needle_colour_level1;
; 291  : 	yellow_needle_colour	= yellow_needle_colour_level1;
; 292  : 	orange_needle_colour	= orange_needle_colour_level1;
; 293  : 	red_needle_colour		= red_needle_colour_level1;
; 294  : 	white_digit_colour	= white_digit_colour_level1;
; 295  : 	yellow_digit_colour	= yellow_digit_colour_level1;
; 296  : 
; 297  : 	#endif
; 298  : }

  001c1	5f		 pop	 edi
  001c2	5e		 pop	 esi
  001c3	5b		 pop	 ebx
  001c4	8b e5		 mov	 esp, ebp
  001c6	5d		 pop	 ebp
  001c7	c3		 ret	 0
$LN13@set_havoc_:
  001c8	00 00 00 00	 DD	 $LN4@set_havoc_
  001cc	00 00 00 00	 DD	 $LN5@set_havoc_
  001d0	00 00 00 00	 DD	 $LN6@set_havoc_
  001d4	00 00 00 00	 DD	 $LN7@set_havoc_
?set_havoc_instrument_colours@@YGXXZ ENDP		; set_havoc_instrument_colours
_TEXT	ENDS
; Function compile flags: /Odtp /ZI
; File c:\users\nhv90\projects\eech\aphavoc\source\gunships\cockpits\havoc\ha_instr.c
;	COMDAT ?initialise_havoc_instrument_colours@@YGXXZ
_TEXT	SEGMENT
?initialise_havoc_instrument_colours@@YGXXZ PROC	; initialise_havoc_instrument_colours, COMDAT

; 206  : {

  00000	55		 push	 ebp
  00001	8b ec		 mov	 ebp, esp
  00003	83 ec 40	 sub	 esp, 64			; 00000040H
  00006	53		 push	 ebx
  00007	56		 push	 esi
  00008	57		 push	 edi

; 207  : 	set_rgb_colour (white_needle_colour_level1,  255, 255, 255, 0);

  00009	c6 05 02 00 00
	00 ff		 mov	 BYTE PTR ?white_needle_colour_level1@@3UREAL_COLOUR@@A+2, 255 ; 000000ffH
  00010	c6 05 01 00 00
	00 ff		 mov	 BYTE PTR ?white_needle_colour_level1@@3UREAL_COLOUR@@A+1, 255 ; 000000ffH
  00017	c6 05 00 00 00
	00 ff		 mov	 BYTE PTR ?white_needle_colour_level1@@3UREAL_COLOUR@@A, 255 ; 000000ffH
  0001e	c6 05 03 00 00
	00 00		 mov	 BYTE PTR ?white_needle_colour_level1@@3UREAL_COLOUR@@A+3, 0

; 208  : 	set_rgb_colour (grey_needle_colour_level1,  128, 128, 128, 0);

  00025	c6 05 02 00 00
	00 80		 mov	 BYTE PTR ?grey_needle_colour_level1@@3UREAL_COLOUR@@A+2, 128 ; 00000080H
  0002c	c6 05 01 00 00
	00 80		 mov	 BYTE PTR ?grey_needle_colour_level1@@3UREAL_COLOUR@@A+1, 128 ; 00000080H
  00033	c6 05 00 00 00
	00 80		 mov	 BYTE PTR ?grey_needle_colour_level1@@3UREAL_COLOUR@@A, 128 ; 00000080H
  0003a	c6 05 03 00 00
	00 00		 mov	 BYTE PTR ?grey_needle_colour_level1@@3UREAL_COLOUR@@A+3, 0

; 209  : 	set_rgb_colour (yellow_needle_colour_level1, 205, 183,  13, 0);

  00041	c6 05 02 00 00
	00 cd		 mov	 BYTE PTR ?yellow_needle_colour_level1@@3UREAL_COLOUR@@A+2, 205 ; 000000cdH
  00048	c6 05 01 00 00
	00 b7		 mov	 BYTE PTR ?yellow_needle_colour_level1@@3UREAL_COLOUR@@A+1, 183 ; 000000b7H
  0004f	c6 05 00 00 00
	00 0d		 mov	 BYTE PTR ?yellow_needle_colour_level1@@3UREAL_COLOUR@@A, 13 ; 0000000dH
  00056	c6 05 03 00 00
	00 00		 mov	 BYTE PTR ?yellow_needle_colour_level1@@3UREAL_COLOUR@@A+3, 0

; 210  : 	set_rgb_colour (orange_needle_colour_level1, 255, 147,   0, 0);

  0005d	c6 05 02 00 00
	00 ff		 mov	 BYTE PTR ?orange_needle_colour_level1@@3UREAL_COLOUR@@A+2, 255 ; 000000ffH
  00064	c6 05 01 00 00
	00 93		 mov	 BYTE PTR ?orange_needle_colour_level1@@3UREAL_COLOUR@@A+1, 147 ; 00000093H
  0006b	c6 05 00 00 00
	00 00		 mov	 BYTE PTR ?orange_needle_colour_level1@@3UREAL_COLOUR@@A, 0
  00072	c6 05 03 00 00
	00 00		 mov	 BYTE PTR ?orange_needle_colour_level1@@3UREAL_COLOUR@@A+3, 0

; 211  : 	set_rgb_colour (red_needle_colour_level1,    188,  58,  26, 0);

  00079	c6 05 02 00 00
	00 bc		 mov	 BYTE PTR ?red_needle_colour_level1@@3UREAL_COLOUR@@A+2, 188 ; 000000bcH
  00080	c6 05 01 00 00
	00 3a		 mov	 BYTE PTR ?red_needle_colour_level1@@3UREAL_COLOUR@@A+1, 58 ; 0000003aH
  00087	c6 05 00 00 00
	00 1a		 mov	 BYTE PTR ?red_needle_colour_level1@@3UREAL_COLOUR@@A, 26 ; 0000001aH
  0008e	c6 05 03 00 00
	00 00		 mov	 BYTE PTR ?red_needle_colour_level1@@3UREAL_COLOUR@@A+3, 0

; 212  : 	set_rgb_colour (white_digit_colour_level1,   200, 200, 200, 0);

  00095	c6 05 02 00 00
	00 c8		 mov	 BYTE PTR ?white_digit_colour_level1@@3UREAL_COLOUR@@A+2, 200 ; 000000c8H
  0009c	c6 05 01 00 00
	00 c8		 mov	 BYTE PTR ?white_digit_colour_level1@@3UREAL_COLOUR@@A+1, 200 ; 000000c8H
  000a3	c6 05 00 00 00
	00 c8		 mov	 BYTE PTR ?white_digit_colour_level1@@3UREAL_COLOUR@@A, 200 ; 000000c8H
  000aa	c6 05 03 00 00
	00 00		 mov	 BYTE PTR ?white_digit_colour_level1@@3UREAL_COLOUR@@A+3, 0

; 213  : 	set_rgb_colour (yellow_digit_colour_level1,  205, 183,  13, 0);

  000b1	c6 05 02 00 00
	00 cd		 mov	 BYTE PTR ?yellow_digit_colour_level1@@3UREAL_COLOUR@@A+2, 205 ; 000000cdH
  000b8	c6 05 01 00 00
	00 b7		 mov	 BYTE PTR ?yellow_digit_colour_level1@@3UREAL_COLOUR@@A+1, 183 ; 000000b7H
  000bf	c6 05 00 00 00
	00 0d		 mov	 BYTE PTR ?yellow_digit_colour_level1@@3UREAL_COLOUR@@A, 13 ; 0000000dH
  000c6	c6 05 03 00 00
	00 00		 mov	 BYTE PTR ?yellow_digit_colour_level1@@3UREAL_COLOUR@@A+3, 0

; 214  : 	set_rgb_colour (white_needle_colour_level2,  255, 147,   0, 0);

  000cd	c6 05 02 00 00
	00 ff		 mov	 BYTE PTR ?white_needle_colour_level2@@3UREAL_COLOUR@@A+2, 255 ; 000000ffH
  000d4	c6 05 01 00 00
	00 93		 mov	 BYTE PTR ?white_needle_colour_level2@@3UREAL_COLOUR@@A+1, 147 ; 00000093H
  000db	c6 05 00 00 00
	00 00		 mov	 BYTE PTR ?white_needle_colour_level2@@3UREAL_COLOUR@@A, 0
  000e2	c6 05 03 00 00
	00 00		 mov	 BYTE PTR ?white_needle_colour_level2@@3UREAL_COLOUR@@A+3, 0

; 215  : 	set_rgb_colour (grey_needle_colour_level2,   128,  74,   0, 0);

  000e9	c6 05 02 00 00
	00 80		 mov	 BYTE PTR ?grey_needle_colour_level2@@3UREAL_COLOUR@@A+2, 128 ; 00000080H
  000f0	c6 05 01 00 00
	00 4a		 mov	 BYTE PTR ?grey_needle_colour_level2@@3UREAL_COLOUR@@A+1, 74 ; 0000004aH
  000f7	c6 05 00 00 00
	00 00		 mov	 BYTE PTR ?grey_needle_colour_level2@@3UREAL_COLOUR@@A, 0
  000fe	c6 05 03 00 00
	00 00		 mov	 BYTE PTR ?grey_needle_colour_level2@@3UREAL_COLOUR@@A+3, 0

; 216  : 	set_rgb_colour (yellow_needle_colour_level2, 255, 147,   0, 0);

  00105	c6 05 02 00 00
	00 ff		 mov	 BYTE PTR ?yellow_needle_colour_level2@@3UREAL_COLOUR@@A+2, 255 ; 000000ffH
  0010c	c6 05 01 00 00
	00 93		 mov	 BYTE PTR ?yellow_needle_colour_level2@@3UREAL_COLOUR@@A+1, 147 ; 00000093H
  00113	c6 05 00 00 00
	00 00		 mov	 BYTE PTR ?yellow_needle_colour_level2@@3UREAL_COLOUR@@A, 0
  0011a	c6 05 03 00 00
	00 00		 mov	 BYTE PTR ?yellow_needle_colour_level2@@3UREAL_COLOUR@@A+3, 0

; 217  : 	set_rgb_colour (orange_needle_colour_level2, 255, 147,   0, 0);

  00121	c6 05 02 00 00
	00 ff		 mov	 BYTE PTR ?orange_needle_colour_level2@@3UREAL_COLOUR@@A+2, 255 ; 000000ffH
  00128	c6 05 01 00 00
	00 93		 mov	 BYTE PTR ?orange_needle_colour_level2@@3UREAL_COLOUR@@A+1, 147 ; 00000093H
  0012f	c6 05 00 00 00
	00 00		 mov	 BYTE PTR ?orange_needle_colour_level2@@3UREAL_COLOUR@@A, 0
  00136	c6 05 03 00 00
	00 00		 mov	 BYTE PTR ?orange_needle_colour_level2@@3UREAL_COLOUR@@A+3, 0

; 218  : 	set_rgb_colour (red_needle_colour_level2,    255, 147,   0, 0);

  0013d	c6 05 02 00 00
	00 ff		 mov	 BYTE PTR ?red_needle_colour_level2@@3UREAL_COLOUR@@A+2, 255 ; 000000ffH
  00144	c6 05 01 00 00
	00 93		 mov	 BYTE PTR ?red_needle_colour_level2@@3UREAL_COLOUR@@A+1, 147 ; 00000093H
  0014b	c6 05 00 00 00
	00 00		 mov	 BYTE PTR ?red_needle_colour_level2@@3UREAL_COLOUR@@A, 0
  00152	c6 05 03 00 00
	00 00		 mov	 BYTE PTR ?red_needle_colour_level2@@3UREAL_COLOUR@@A+3, 0

; 219  : 	set_rgb_colour (white_digit_colour_level2,   255, 147,   0, 0);

  00159	c6 05 02 00 00
	00 ff		 mov	 BYTE PTR ?white_digit_colour_level2@@3UREAL_COLOUR@@A+2, 255 ; 000000ffH
  00160	c6 05 01 00 00
	00 93		 mov	 BYTE PTR ?white_digit_colour_level2@@3UREAL_COLOUR@@A+1, 147 ; 00000093H
  00167	c6 05 00 00 00
	00 00		 mov	 BYTE PTR ?white_digit_colour_level2@@3UREAL_COLOUR@@A, 0
  0016e	c6 05 03 00 00
	00 00		 mov	 BYTE PTR ?white_digit_colour_level2@@3UREAL_COLOUR@@A+3, 0

; 220  : 	set_rgb_colour (yellow_digit_colour_level2,  205, 183,  13, 0);

  00175	c6 05 02 00 00
	00 cd		 mov	 BYTE PTR ?yellow_digit_colour_level2@@3UREAL_COLOUR@@A+2, 205 ; 000000cdH
  0017c	c6 05 01 00 00
	00 b7		 mov	 BYTE PTR ?yellow_digit_colour_level2@@3UREAL_COLOUR@@A+1, 183 ; 000000b7H
  00183	c6 05 00 00 00
	00 0d		 mov	 BYTE PTR ?yellow_digit_colour_level2@@3UREAL_COLOUR@@A, 13 ; 0000000dH
  0018a	c6 05 03 00 00
	00 00		 mov	 BYTE PTR ?yellow_digit_colour_level2@@3UREAL_COLOUR@@A+3, 0

; 221  : 	set_rgb_colour (white_needle_colour_level3,  255, 147,   0, 0);

  00191	c6 05 02 00 00
	00 ff		 mov	 BYTE PTR ?white_needle_colour_level3@@3UREAL_COLOUR@@A+2, 255 ; 000000ffH
  00198	c6 05 01 00 00
	00 93		 mov	 BYTE PTR ?white_needle_colour_level3@@3UREAL_COLOUR@@A+1, 147 ; 00000093H
  0019f	c6 05 00 00 00
	00 00		 mov	 BYTE PTR ?white_needle_colour_level3@@3UREAL_COLOUR@@A, 0
  001a6	c6 05 03 00 00
	00 00		 mov	 BYTE PTR ?white_needle_colour_level3@@3UREAL_COLOUR@@A+3, 0

; 222  : 	set_rgb_colour (grey_needle_colour_level3,   128,  74,   0, 0);

  001ad	c6 05 02 00 00
	00 80		 mov	 BYTE PTR ?grey_needle_colour_level3@@3UREAL_COLOUR@@A+2, 128 ; 00000080H
  001b4	c6 05 01 00 00
	00 4a		 mov	 BYTE PTR ?grey_needle_colour_level3@@3UREAL_COLOUR@@A+1, 74 ; 0000004aH
  001bb	c6 05 00 00 00
	00 00		 mov	 BYTE PTR ?grey_needle_colour_level3@@3UREAL_COLOUR@@A, 0
  001c2	c6 05 03 00 00
	00 00		 mov	 BYTE PTR ?grey_needle_colour_level3@@3UREAL_COLOUR@@A+3, 0

; 223  : 	set_rgb_colour (yellow_needle_colour_level3, 255, 147,   0, 0);

  001c9	c6 05 02 00 00
	00 ff		 mov	 BYTE PTR ?yellow_needle_colour_level3@@3UREAL_COLOUR@@A+2, 255 ; 000000ffH
  001d0	c6 05 01 00 00
	00 93		 mov	 BYTE PTR ?yellow_needle_colour_level3@@3UREAL_COLOUR@@A+1, 147 ; 00000093H
  001d7	c6 05 00 00 00
	00 00		 mov	 BYTE PTR ?yellow_needle_colour_level3@@3UREAL_COLOUR@@A, 0
  001de	c6 05 03 00 00
	00 00		 mov	 BYTE PTR ?yellow_needle_colour_level3@@3UREAL_COLOUR@@A+3, 0

; 224  : 	set_rgb_colour (orange_needle_colour_level3, 255, 147,   0, 0);

  001e5	c6 05 02 00 00
	00 ff		 mov	 BYTE PTR ?orange_needle_colour_level3@@3UREAL_COLOUR@@A+2, 255 ; 000000ffH
  001ec	c6 05 01 00 00
	00 93		 mov	 BYTE PTR ?orange_needle_colour_level3@@3UREAL_COLOUR@@A+1, 147 ; 00000093H
  001f3	c6 05 00 00 00
	00 00		 mov	 BYTE PTR ?orange_needle_colour_level3@@3UREAL_COLOUR@@A, 0
  001fa	c6 05 03 00 00
	00 00		 mov	 BYTE PTR ?orange_needle_colour_level3@@3UREAL_COLOUR@@A+3, 0

; 225  : 	set_rgb_colour (red_needle_colour_level3,    255, 147,   0, 0);

  00201	c6 05 02 00 00
	00 ff		 mov	 BYTE PTR ?red_needle_colour_level3@@3UREAL_COLOUR@@A+2, 255 ; 000000ffH
  00208	c6 05 01 00 00
	00 93		 mov	 BYTE PTR ?red_needle_colour_level3@@3UREAL_COLOUR@@A+1, 147 ; 00000093H
  0020f	c6 05 00 00 00
	00 00		 mov	 BYTE PTR ?red_needle_colour_level3@@3UREAL_COLOUR@@A, 0
  00216	c6 05 03 00 00
	00 00		 mov	 BYTE PTR ?red_needle_colour_level3@@3UREAL_COLOUR@@A+3, 0

; 226  : 	set_rgb_colour (white_digit_colour_level3,   255, 147,   0, 0);

  0021d	c6 05 02 00 00
	00 ff		 mov	 BYTE PTR ?white_digit_colour_level3@@3UREAL_COLOUR@@A+2, 255 ; 000000ffH
  00224	c6 05 01 00 00
	00 93		 mov	 BYTE PTR ?white_digit_colour_level3@@3UREAL_COLOUR@@A+1, 147 ; 00000093H
  0022b	c6 05 00 00 00
	00 00		 mov	 BYTE PTR ?white_digit_colour_level3@@3UREAL_COLOUR@@A, 0
  00232	c6 05 03 00 00
	00 00		 mov	 BYTE PTR ?white_digit_colour_level3@@3UREAL_COLOUR@@A+3, 0

; 227  : 	set_rgb_colour (yellow_digit_colour_level3,  205, 183,  13, 0);

  00239	c6 05 02 00 00
	00 cd		 mov	 BYTE PTR ?yellow_digit_colour_level3@@3UREAL_COLOUR@@A+2, 205 ; 000000cdH
  00240	c6 05 01 00 00
	00 b7		 mov	 BYTE PTR ?yellow_digit_colour_level3@@3UREAL_COLOUR@@A+1, 183 ; 000000b7H
  00247	c6 05 00 00 00
	00 0d		 mov	 BYTE PTR ?yellow_digit_colour_level3@@3UREAL_COLOUR@@A, 13 ; 0000000dH
  0024e	c6 05 03 00 00
	00 00		 mov	 BYTE PTR ?yellow_digit_colour_level3@@3UREAL_COLOUR@@A+3, 0

; 228  : }

  00255	5f		 pop	 edi
  00256	5e		 pop	 esi
  00257	5b		 pop	 ebx
  00258	8b e5		 mov	 esp, ebp
  0025a	5d		 pop	 ebp
  0025b	c3		 ret	 0
?initialise_havoc_instrument_colours@@YGXXZ ENDP	; initialise_havoc_instrument_colours
_TEXT	ENDS
; Function compile flags: /Odtp /ZI
; File c:\program files (x86)\microsoft visual studio\2017\community\vc\tools\msvc\14.16.27023\include\cmath
;	COMDAT ?sqrt@@YGMM@Z
_TEXT	SEGMENT
__Xx$ = 8						; size = 4
?sqrt@@YGMM@Z PROC					; sqrt, COMDAT

; 294  : 	{

  00000	55		 push	 ebp
  00001	8b ec		 mov	 ebp, esp
  00003	83 ec 40	 sub	 esp, 64			; 00000040H
  00006	53		 push	 ebx
  00007	56		 push	 esi
  00008	57		 push	 edi

; 295  : 	return (_CSTD sqrtf(_Xx));

  00009	51		 push	 ecx
  0000a	f3 0f 10 45 08	 movss	 xmm0, DWORD PTR __Xx$[ebp]
  0000f	f3 0f 11 04 24	 movss	 DWORD PTR [esp], xmm0
  00014	e8 00 00 00 00	 call	 _sqrtf
  00019	83 c4 04	 add	 esp, 4

; 296  : 	}

  0001c	5f		 pop	 edi
  0001d	5e		 pop	 esi
  0001e	5b		 pop	 ebx
  0001f	8b e5		 mov	 esp, ebp
  00021	5d		 pop	 ebp
  00022	c2 04 00	 ret	 4
?sqrt@@YGMM@Z ENDP					; sqrt
_TEXT	ENDS
; Function compile flags: /Odtp /ZI
; File c:\program files (x86)\microsoft visual studio\2017\community\vc\tools\msvc\14.16.27023\include\cmath
;	COMDAT ?sin@@YGMM@Z
_TEXT	SEGMENT
__Xx$ = 8						; size = 4
?sin@@YGMM@Z PROC					; sin, COMDAT

; 284  : 	{

  00000	55		 push	 ebp
  00001	8b ec		 mov	 ebp, esp
  00003	83 ec 40	 sub	 esp, 64			; 00000040H
  00006	53		 push	 ebx
  00007	56		 push	 esi
  00008	57		 push	 edi

; 285  : 	return (_CSTD sinf(_Xx));

  00009	51		 push	 ecx
  0000a	f3 0f 10 45 08	 movss	 xmm0, DWORD PTR __Xx$[ebp]
  0000f	f3 0f 11 04 24	 movss	 DWORD PTR [esp], xmm0
  00014	e8 00 00 00 00	 call	 _sinf
  00019	83 c4 04	 add	 esp, 4

; 286  : 	}

  0001c	5f		 pop	 edi
  0001d	5e		 pop	 esi
  0001e	5b		 pop	 ebx
  0001f	8b e5		 mov	 esp, ebp
  00021	5d		 pop	 ebp
  00022	c2 04 00	 ret	 4
?sin@@YGMM@Z ENDP					; sin
_TEXT	ENDS
; Function compile flags: /Odtp /ZI
; File c:\program files (x86)\microsoft visual studio\2017\community\vc\tools\msvc\14.16.27023\include\cmath
;	COMDAT ?fmod@@YGMMM@Z
_TEXT	SEGMENT
__Xx$ = 8						; size = 4
__Yx$ = 12						; size = 4
?fmod@@YGMMM@Z PROC					; fmod, COMDAT

; 143  : 	{

  00000	55		 push	 ebp
  00001	8b ec		 mov	 ebp, esp
  00003	83 ec 40	 sub	 esp, 64			; 00000040H
  00006	53		 push	 ebx
  00007	56		 push	 esi
  00008	57		 push	 edi

; 144  : 	return (_CSTD fmodf(_Xx, _Yx));

  00009	51		 push	 ecx
  0000a	f3 0f 10 45 0c	 movss	 xmm0, DWORD PTR __Yx$[ebp]
  0000f	f3 0f 11 04 24	 movss	 DWORD PTR [esp], xmm0
  00014	51		 push	 ecx
  00015	f3 0f 10 45 08	 movss	 xmm0, DWORD PTR __Xx$[ebp]
  0001a	f3 0f 11 04 24	 movss	 DWORD PTR [esp], xmm0
  0001f	e8 00 00 00 00	 call	 _fmodf
  00024	83 c4 08	 add	 esp, 8

; 145  : 	}

  00027	5f		 pop	 edi
  00028	5e		 pop	 esi
  00029	5b		 pop	 ebx
  0002a	8b e5		 mov	 esp, ebp
  0002c	5d		 pop	 ebp
  0002d	c2 08 00	 ret	 8
?fmod@@YGMMM@Z ENDP					; fmod
_TEXT	ENDS
; Function compile flags: /Odtp /ZI
; File c:\program files (x86)\microsoft visual studio\2017\community\vc\tools\msvc\14.16.27023\include\cmath
;	COMDAT ?cos@@YGMM@Z
_TEXT	SEGMENT
__Xx$ = 8						; size = 4
?cos@@YGMM@Z PROC					; cos, COMDAT

; 77   : 	{

  00000	55		 push	 ebp
  00001	8b ec		 mov	 ebp, esp
  00003	83 ec 40	 sub	 esp, 64			; 00000040H
  00006	53		 push	 ebx
  00007	56		 push	 esi
  00008	57		 push	 edi

; 78   : 	return (_CSTD cosf(_Xx));

  00009	51		 push	 ecx
  0000a	f3 0f 10 45 08	 movss	 xmm0, DWORD PTR __Xx$[ebp]
  0000f	f3 0f 11 04 24	 movss	 DWORD PTR [esp], xmm0
  00014	e8 00 00 00 00	 call	 _cosf
  00019	83 c4 04	 add	 esp, 4

; 79   : 	}

  0001c	5f		 pop	 edi
  0001d	5e		 pop	 esi
  0001e	5b		 pop	 ebx
  0001f	8b e5		 mov	 esp, ebp
  00021	5d		 pop	 ebp
  00022	c2 04 00	 ret	 4
?cos@@YGMM@Z ENDP					; cos
_TEXT	ENDS
; Function compile flags: /Odtp /ZI
; File c:\program files (x86)\microsoft visual studio\2017\community\vc\tools\msvc\14.16.27023\include\cmath
;	COMDAT ?atan2@@YGMMM@Z
_TEXT	SEGMENT
__Yx$ = 8						; size = 4
__Xx$ = 12						; size = 4
?atan2@@YGMMM@Z PROC					; atan2, COMDAT

; 56   : 	{

  00000	55		 push	 ebp
  00001	8b ec		 mov	 ebp, esp
  00003	83 ec 40	 sub	 esp, 64			; 00000040H
  00006	53		 push	 ebx
  00007	56		 push	 esi
  00008	57		 push	 edi

; 57   : 	return (_CSTD atan2f(_Yx, _Xx));

  00009	51		 push	 ecx
  0000a	f3 0f 10 45 0c	 movss	 xmm0, DWORD PTR __Xx$[ebp]
  0000f	f3 0f 11 04 24	 movss	 DWORD PTR [esp], xmm0
  00014	51		 push	 ecx
  00015	f3 0f 10 45 08	 movss	 xmm0, DWORD PTR __Yx$[ebp]
  0001a	f3 0f 11 04 24	 movss	 DWORD PTR [esp], xmm0
  0001f	e8 00 00 00 00	 call	 _atan2f
  00024	83 c4 08	 add	 esp, 8

; 58   : 	}

  00027	5f		 pop	 edi
  00028	5e		 pop	 esi
  00029	5b		 pop	 ebx
  0002a	8b e5		 mov	 esp, ebp
  0002c	5d		 pop	 ebp
  0002d	c2 08 00	 ret	 8
?atan2@@YGMMM@Z ENDP					; atan2
_TEXT	ENDS
; Function compile flags: /Odtp /ZI
; File c:\program files (x86)\microsoft visual studio\2017\community\vc\tools\msvc\14.16.27023\include\cmath
;	COMDAT ?asin@@YGMM@Z
_TEXT	SEGMENT
__Xx$ = 8						; size = 4
?asin@@YGMM@Z PROC					; asin, COMDAT

; 36   : 	{

  00000	55		 push	 ebp
  00001	8b ec		 mov	 ebp, esp
  00003	83 ec 40	 sub	 esp, 64			; 00000040H
  00006	53		 push	 ebx
  00007	56		 push	 esi
  00008	57		 push	 edi

; 37   : 	return (_CSTD asinf(_Xx));

  00009	51		 push	 ecx
  0000a	f3 0f 10 45 08	 movss	 xmm0, DWORD PTR __Xx$[ebp]
  0000f	f3 0f 11 04 24	 movss	 DWORD PTR [esp], xmm0
  00014	e8 00 00 00 00	 call	 _asinf
  00019	83 c4 04	 add	 esp, 4

; 38   : 	}

  0001c	5f		 pop	 edi
  0001d	5e		 pop	 esi
  0001e	5b		 pop	 ebx
  0001f	8b e5		 mov	 esp, ebp
  00021	5d		 pop	 ebp
  00022	c2 04 00	 ret	 4
?asin@@YGMM@Z ENDP					; asin
_TEXT	ENDS
; Function compile flags: /Odtp /ZI
; File c:\program files (x86)\microsoft visual studio\2017\community\vc\tools\msvc\14.16.27023\include\cmath
;	COMDAT ?acos@@YGMM@Z
_TEXT	SEGMENT
__Xx$ = 8						; size = 4
?acos@@YGMM@Z PROC					; acos, COMDAT

; 26   : 	{

  00000	55		 push	 ebp
  00001	8b ec		 mov	 ebp, esp
  00003	83 ec 40	 sub	 esp, 64			; 00000040H
  00006	53		 push	 ebx
  00007	56		 push	 esi
  00008	57		 push	 edi

; 27   : 	return (_CSTD acosf(_Xx));

  00009	51		 push	 ecx
  0000a	f3 0f 10 45 08	 movss	 xmm0, DWORD PTR __Xx$[ebp]
  0000f	f3 0f 11 04 24	 movss	 DWORD PTR [esp], xmm0
  00014	e8 00 00 00 00	 call	 _acosf
  00019	83 c4 04	 add	 esp, 4

; 28   : 	}

  0001c	5f		 pop	 edi
  0001d	5e		 pop	 esi
  0001e	5b		 pop	 ebx
  0001f	8b e5		 mov	 esp, ebp
  00021	5d		 pop	 ebp
  00022	c2 04 00	 ret	 4
?acos@@YGMM@Z ENDP					; acos
_TEXT	ENDS
; Function compile flags: /Odtp /ZI
; File c:\program files (x86)\windows kits\10\include\10.0.18362.0\ucrt\corecrt_math.h
;	COMDAT _sqrtf
_TEXT	SEGMENT
tv71 = -68						; size = 4
__X$ = 8						; size = 4
_sqrtf	PROC						; COMDAT

; 759  :         {

  00000	55		 push	 ebp
  00001	8b ec		 mov	 ebp, esp
  00003	83 ec 44	 sub	 esp, 68			; 00000044H
  00006	53		 push	 ebx
  00007	56		 push	 esi
  00008	57		 push	 edi

; 760  :             return (float)sqrt(_X);

  00009	f3 0f 5a 45 08	 cvtss2sd xmm0, DWORD PTR __X$[ebp]
  0000e	83 ec 08	 sub	 esp, 8
  00011	f2 0f 11 04 24	 movsd	 QWORD PTR [esp], xmm0
  00016	e8 00 00 00 00	 call	 _sqrt
  0001b	83 c4 08	 add	 esp, 8
  0001e	d9 5d bc	 fstp	 DWORD PTR tv71[ebp]
  00021	d9 45 bc	 fld	 DWORD PTR tv71[ebp]

; 761  :         }

  00024	5f		 pop	 edi
  00025	5e		 pop	 esi
  00026	5b		 pop	 ebx
  00027	8b e5		 mov	 esp, ebp
  00029	5d		 pop	 ebp
  0002a	c3		 ret	 0
_sqrtf	ENDP
_TEXT	ENDS
; Function compile flags: /Odtp /ZI
; File c:\program files (x86)\windows kits\10\include\10.0.18362.0\ucrt\corecrt_math.h
;	COMDAT _sinf
_TEXT	SEGMENT
tv71 = -68						; size = 4
__X$ = 8						; size = 4
_sinf	PROC						; COMDAT

; 749  :         {

  00000	55		 push	 ebp
  00001	8b ec		 mov	 ebp, esp
  00003	83 ec 44	 sub	 esp, 68			; 00000044H
  00006	53		 push	 ebx
  00007	56		 push	 esi
  00008	57		 push	 edi

; 750  :             return (float)sin(_X);

  00009	f3 0f 5a 45 08	 cvtss2sd xmm0, DWORD PTR __X$[ebp]
  0000e	83 ec 08	 sub	 esp, 8
  00011	f2 0f 11 04 24	 movsd	 QWORD PTR [esp], xmm0
  00016	e8 00 00 00 00	 call	 _sin
  0001b	83 c4 08	 add	 esp, 8
  0001e	d9 5d bc	 fstp	 DWORD PTR tv71[ebp]
  00021	d9 45 bc	 fld	 DWORD PTR tv71[ebp]

; 751  :         }

  00024	5f		 pop	 edi
  00025	5e		 pop	 esi
  00026	5b		 pop	 ebx
  00027	8b e5		 mov	 esp, ebp
  00029	5d		 pop	 ebp
  0002a	c3		 ret	 0
_sinf	ENDP
_TEXT	ENDS
; Function compile flags: /Odtp /ZI
; File c:\program files (x86)\windows kits\10\include\10.0.18362.0\ucrt\corecrt_math.h
;	COMDAT _fmodf
_TEXT	SEGMENT
tv74 = -68						; size = 4
__X$ = 8						; size = 4
__Y$ = 12						; size = 4
_fmodf	PROC						; COMDAT

; 690  :         {

  00000	55		 push	 ebp
  00001	8b ec		 mov	 ebp, esp
  00003	83 ec 44	 sub	 esp, 68			; 00000044H
  00006	53		 push	 ebx
  00007	56		 push	 esi
  00008	57		 push	 edi

; 691  :             return (float)fmod(_X, _Y);

  00009	f3 0f 5a 45 0c	 cvtss2sd xmm0, DWORD PTR __Y$[ebp]
  0000e	83 ec 08	 sub	 esp, 8
  00011	f2 0f 11 04 24	 movsd	 QWORD PTR [esp], xmm0
  00016	f3 0f 5a 45 08	 cvtss2sd xmm0, DWORD PTR __X$[ebp]
  0001b	83 ec 08	 sub	 esp, 8
  0001e	f2 0f 11 04 24	 movsd	 QWORD PTR [esp], xmm0
  00023	e8 00 00 00 00	 call	 _fmod
  00028	83 c4 10	 add	 esp, 16			; 00000010H
  0002b	d9 5d bc	 fstp	 DWORD PTR tv74[ebp]
  0002e	d9 45 bc	 fld	 DWORD PTR tv74[ebp]

; 692  :         }

  00031	5f		 pop	 edi
  00032	5e		 pop	 esi
  00033	5b		 pop	 ebx
  00034	8b e5		 mov	 esp, ebp
  00036	5d		 pop	 ebp
  00037	c3		 ret	 0
_fmodf	ENDP
_TEXT	ENDS
; Function compile flags: /Odtp /ZI
; File c:\program files (x86)\windows kits\10\include\10.0.18362.0\ucrt\corecrt_math.h
;	COMDAT _cosf
_TEXT	SEGMENT
tv71 = -68						; size = 4
__X$ = 8						; size = 4
_cosf	PROC						; COMDAT

; 648  :         {

  00000	55		 push	 ebp
  00001	8b ec		 mov	 ebp, esp
  00003	83 ec 44	 sub	 esp, 68			; 00000044H
  00006	53		 push	 ebx
  00007	56		 push	 esi
  00008	57		 push	 edi

; 649  :             return (float)cos(_X);

  00009	f3 0f 5a 45 08	 cvtss2sd xmm0, DWORD PTR __X$[ebp]
  0000e	83 ec 08	 sub	 esp, 8
  00011	f2 0f 11 04 24	 movsd	 QWORD PTR [esp], xmm0
  00016	e8 00 00 00 00	 call	 _cos
  0001b	83 c4 08	 add	 esp, 8
  0001e	d9 5d bc	 fstp	 DWORD PTR tv71[ebp]
  00021	d9 45 bc	 fld	 DWORD PTR tv71[ebp]

; 650  :         }

  00024	5f		 pop	 edi
  00025	5e		 pop	 esi
  00026	5b		 pop	 ebx
  00027	8b e5		 mov	 esp, ebp
  00029	5d		 pop	 ebp
  0002a	c3		 ret	 0
_cosf	ENDP
_TEXT	ENDS
; Function compile flags: /Odtp /ZI
; File c:\program files (x86)\windows kits\10\include\10.0.18362.0\ucrt\corecrt_math.h
;	COMDAT _atan2f
_TEXT	SEGMENT
tv74 = -68						; size = 4
__Y$ = 8						; size = 4
__X$ = 12						; size = 4
_atan2f	PROC						; COMDAT

; 633  :         {

  00000	55		 push	 ebp
  00001	8b ec		 mov	 ebp, esp
  00003	83 ec 44	 sub	 esp, 68			; 00000044H
  00006	53		 push	 ebx
  00007	56		 push	 esi
  00008	57		 push	 edi

; 634  :             return (float)atan2(_Y, _X);

  00009	f3 0f 5a 45 0c	 cvtss2sd xmm0, DWORD PTR __X$[ebp]
  0000e	83 ec 08	 sub	 esp, 8
  00011	f2 0f 11 04 24	 movsd	 QWORD PTR [esp], xmm0
  00016	f3 0f 5a 45 08	 cvtss2sd xmm0, DWORD PTR __Y$[ebp]
  0001b	83 ec 08	 sub	 esp, 8
  0001e	f2 0f 11 04 24	 movsd	 QWORD PTR [esp], xmm0
  00023	e8 00 00 00 00	 call	 _atan2
  00028	83 c4 10	 add	 esp, 16			; 00000010H
  0002b	d9 5d bc	 fstp	 DWORD PTR tv74[ebp]
  0002e	d9 45 bc	 fld	 DWORD PTR tv74[ebp]

; 635  :         }

  00031	5f		 pop	 edi
  00032	5e		 pop	 esi
  00033	5b		 pop	 ebx
  00034	8b e5		 mov	 esp, ebp
  00036	5d		 pop	 ebp
  00037	c3		 ret	 0
_atan2f	ENDP
_TEXT	ENDS
; Function compile flags: /Odtp /ZI
; File c:\program files (x86)\windows kits\10\include\10.0.18362.0\ucrt\corecrt_math.h
;	COMDAT _asinf
_TEXT	SEGMENT
tv71 = -68						; size = 4
__X$ = 8						; size = 4
_asinf	PROC						; COMDAT

; 628  :         {

  00000	55		 push	 ebp
  00001	8b ec		 mov	 ebp, esp
  00003	83 ec 44	 sub	 esp, 68			; 00000044H
  00006	53		 push	 ebx
  00007	56		 push	 esi
  00008	57		 push	 edi

; 629  :             return (float)asin(_X);

  00009	f3 0f 5a 45 08	 cvtss2sd xmm0, DWORD PTR __X$[ebp]
  0000e	83 ec 08	 sub	 esp, 8
  00011	f2 0f 11 04 24	 movsd	 QWORD PTR [esp], xmm0
  00016	e8 00 00 00 00	 call	 _asin
  0001b	83 c4 08	 add	 esp, 8
  0001e	d9 5d bc	 fstp	 DWORD PTR tv71[ebp]
  00021	d9 45 bc	 fld	 DWORD PTR tv71[ebp]

; 630  :         }

  00024	5f		 pop	 edi
  00025	5e		 pop	 esi
  00026	5b		 pop	 ebx
  00027	8b e5		 mov	 esp, ebp
  00029	5d		 pop	 ebp
  0002a	c3		 ret	 0
_asinf	ENDP
_TEXT	ENDS
; Function compile flags: /Odtp /ZI
; File c:\program files (x86)\windows kits\10\include\10.0.18362.0\ucrt\corecrt_math.h
;	COMDAT _acosf
_TEXT	SEGMENT
tv71 = -68						; size = 4
__X$ = 8						; size = 4
_acosf	PROC						; COMDAT

; 623  :         {

  00000	55		 push	 ebp
  00001	8b ec		 mov	 ebp, esp
  00003	83 ec 44	 sub	 esp, 68			; 00000044H
  00006	53		 push	 ebx
  00007	56		 push	 esi
  00008	57		 push	 edi

; 624  :             return (float)acos(_X);

  00009	f3 0f 5a 45 08	 cvtss2sd xmm0, DWORD PTR __X$[ebp]
  0000e	83 ec 08	 sub	 esp, 8
  00011	f2 0f 11 04 24	 movsd	 QWORD PTR [esp], xmm0
  00016	e8 00 00 00 00	 call	 _acos
  0001b	83 c4 08	 add	 esp, 8
  0001e	d9 5d bc	 fstp	 DWORD PTR tv71[ebp]
  00021	d9 45 bc	 fld	 DWORD PTR tv71[ebp]

; 625  :         }

  00024	5f		 pop	 edi
  00025	5e		 pop	 esi
  00026	5b		 pop	 ebx
  00027	8b e5		 mov	 esp, ebp
  00029	5d		 pop	 ebp
  0002a	c3		 ret	 0
_acosf	ENDP
_TEXT	ENDS
END
