; Listing generated by Microsoft (R) Optimizing Compiler Version 19.16.27045.0 

	TITLE	C:\Users\nhv90\Projects\eech\aphavoc\source\gunships\cockpits\havoc\ha_instr.c
	.686P
	.XMM
	include listing.inc
	.model	flat

INCLUDELIB MSVCRTD
INCLUDELIB OLDNAMES

PUBLIC	??_C@_0CA@JPJNIOCL@Cannot?5draw?5instrument?5on?5panel@ ; `string'
;	COMDAT ??_C@_0CA@JPJNIOCL@Cannot?5draw?5instrument?5on?5panel@
CONST	SEGMENT
??_C@_0CA@JPJNIOCL@Cannot?5draw?5instrument?5on?5panel@ DB 'Cannot draw i'
	DB	'nstrument on panel', 00H			; `string'
CONST	ENDS
PUBLIC	_acosf
PUBLIC	_asinf
PUBLIC	_atan2f
PUBLIC	_cosf
PUBLIC	_fmodf
PUBLIC	_sinf
PUBLIC	_sqrtf
PUBLIC	?acos@@YGMM@Z					; acos
PUBLIC	?asin@@YGMM@Z					; asin
PUBLIC	?atan2@@YGMMM@Z					; atan2
PUBLIC	?cos@@YGMM@Z					; cos
PUBLIC	?fmod@@YGMMM@Z					; fmod
PUBLIC	?sin@@YGMM@Z					; sin
PUBLIC	?sqrt@@YGMM@Z					; sqrt
PUBLIC	?initialise_havoc_instrument_colours@@YGXXZ	; initialise_havoc_instrument_colours
PUBLIC	?set_havoc_instrument_colours@@YGXXZ		; set_havoc_instrument_colours
PUBLIC	?draw_havoc_barometric_altimeter@@YGXW4COCKPIT_PANELS@@@Z ; draw_havoc_barometric_altimeter
PUBLIC	?draw_havoc_airspeed_indicator@@YGXW4COCKPIT_PANELS@@@Z ; draw_havoc_airspeed_indicator
PUBLIC	?draw_havoc_main_rotor_rpm_indicator@@YGXW4COCKPIT_PANELS@@@Z ; draw_havoc_main_rotor_rpm_indicator
PUBLIC	?draw_havoc_g_meter@@YGXW4COCKPIT_PANELS@@@Z	; draw_havoc_g_meter
PUBLIC	?draw_havoc_engine_torque_indicator@@YGXW4COCKPIT_PANELS@@@Z ; draw_havoc_engine_torque_indicator
PUBLIC	?draw_havoc_engine_temperature_indicator@@YGXW4COCKPIT_PANELS@@@Z ; draw_havoc_engine_temperature_indicator
PUBLIC	?draw_havoc_engine_rpm_indicator@@YGXW4COCKPIT_PANELS@@@Z ; draw_havoc_engine_rpm_indicator
PUBLIC	?draw_havoc_engine_temperature_and_rpm_indicator_ticks@@YGXW4COCKPIT_PANELS@@@Z ; draw_havoc_engine_temperature_and_rpm_indicator_ticks
PUBLIC	?draw_havoc_vertical_speed_indicator@@YGXW4COCKPIT_PANELS@@@Z ; draw_havoc_vertical_speed_indicator
PUBLIC	?draw_havoc_clock@@YGXW4COCKPIT_PANELS@@@Z	; draw_havoc_clock
PUBLIC	?draw_havoc_radar_altimeter@@YGXW4COCKPIT_PANELS@@@Z ; draw_havoc_radar_altimeter
PUBLIC	?draw_havoc_fuel_gauge@@YGXW4COCKPIT_PANELS@@@Z	; draw_havoc_fuel_gauge
PUBLIC	?draw_havoc_fixed_cockpit_hsi_waypoint_distance_digits@@YGXW4COCKPIT_PANELS@@@Z ; draw_havoc_fixed_cockpit_hsi_waypoint_distance_digits
PUBLIC	?draw_havoc_fixed_cockpit_hsi_waypoint_identifier@@YGXW4COCKPIT_PANELS@@@Z ; draw_havoc_fixed_cockpit_hsi_waypoint_identifier
PUBLIC	?get_havoc_virtual_cockpit_adi_angles@@YGXQAY02MPAM11@Z ; get_havoc_virtual_cockpit_adi_angles
PUBLIC	?get_havoc_virtual_cockpit_hsi_needle_values@@YGXPAM00@Z ; get_havoc_virtual_cockpit_hsi_needle_values
PUBLIC	?initialise_havoc_instruments@@YGXXZ		; initialise_havoc_instruments
PUBLIC	?deinitialise_havoc_instruments@@YGXXZ		; deinitialise_havoc_instruments
PUBLIC	?draw_havoc_virtual_cockpit_instruments_on_texture@@YGXXZ ; draw_havoc_virtual_cockpit_instruments_on_texture
PUBLIC	??_C@_0EP@MNOBCBEH@c?3?2users?2nhv90?2projects?2eech?2ap@ ; `string'
PUBLIC	?__LINE__Var@?0??get_hsi_needle_values@@YGXPAM00@Z@4JA ; `get_hsi_needle_values'::`1'::__LINE__Var
PUBLIC	??_C@_0BB@PFAKKLCO@direction_finder@		; `string'
PUBLIC	??_C@_0M@GOBOJDMO@flight_path@			; `string'
PUBLIC	??_C@_05BPGNBDFG@drift@				; `string'
PUBLIC	?__LINE__Var@?0??draw_havoc_clock@@YGXW4COCKPIT_PANELS@@@Z@4JA ; `draw_havoc_clock'::`1'::__LINE__Var
PUBLIC	?__LINE__Var@?0??draw_havoc_fixed_cockpit_hsi_waypoint_distance_digits@@YGXW4COCKPIT_PANELS@@@Z@4JA ; `draw_havoc_fixed_cockpit_hsi_waypoint_distance_digits'::`1'::__LINE__Var
PUBLIC	?__LINE__Var@?0??draw_havoc_fixed_cockpit_hsi_waypoint_identifier@@YGXW4COCKPIT_PANELS@@@Z@4JA ; `draw_havoc_fixed_cockpit_hsi_waypoint_identifier'::`1'::__LINE__Var
PUBLIC	?__LINE__Var@?0??get_havoc_virtual_cockpit_hsi_needle_values@@YGXPAM00@Z@4JA ; `get_havoc_virtual_cockpit_hsi_needle_values'::`1'::__LINE__Var
PUBLIC	?__LINE__Var@?0??draw_havoc_virtual_cockpit_instruments_on_texture@@YGXXZ@4JA ; `draw_havoc_virtual_cockpit_instruments_on_texture'::`1'::__LINE__Var
PUBLIC	__real@0000000000000000
PUBLIC	__real@3c23d70a
PUBLIC	__real@3db851ec
PUBLIC	__real@3dcccccd
PUBLIC	__real@3f4496b7c28f5c29
PUBLIC	__real@3f50624dd2f1a9fc
PUBLIC	__real@3f79bc65b3333333
PUBLIC	__real@3f7d70a4
PUBLIC	__real@3f800000
PUBLIC	__real@3f8015bf90000000
PUBLIC	__real@3f857254c0000000
PUBLIC	__real@3f91df46a0000000
PUBLIC	__real@3fa41b2f74000000
PUBLIC	__real@3fa999999999999a
PUBLIC	__real@3faacee9f0000000
PUBLIC	__real@3fb6571848000000
PUBLIC	__real@3fb999999999999a
PUBLIC	__real@3fbc28f5c28f5c29
PUBLIC	__real@3fd353f7ced91687
PUBLIC	__real@3fd47ae147ae147b
PUBLIC	__real@3fe0000000000000
PUBLIC	__real@3fe0c15236000000
PUBLIC	__real@3fe38c353f000000
PUBLIC	__real@3fe7333333333333
PUBLIC	__real@3fecb91f38000000
PUBLIC	__real@3ff0000000000000
PUBLIC	__real@3ffb333333333333
PUBLIC	__real@4000000000000000
PUBLIC	__real@400921fb51000000
PUBLIC	__real@400999999999999a
PUBLIC	__real@4010000000000000
PUBLIC	__real@4012000000000000
PUBLIC	__real@4014000000000000
PUBLIC	__real@4018000000000000
PUBLIC	__real@401921fb51000000
PUBLIC	__real@4024000000000000
PUBLIC	__real@4028000000000000
PUBLIC	__real@4034000000000000
PUBLIC	__real@4044000000000000
PUBLIC	__real@4049000000000000
PUBLIC	__real@404e000000000000
PUBLIC	__real@4059000000000000
PUBLIC	__real@405b800000000000
PUBLIC	__real@405e000000000000
PUBLIC	__real@4066600000000000
PUBLIC	__real@40666666
PUBLIC	__real@4066e00000000000
PUBLIC	__real@4067600000000000
PUBLIC	__real@4067bff7ced91687
PUBLIC	__real@406dc00000000000
PUBLIC	__real@406e1ff7ced91687
PUBLIC	__real@4072c00000000000
PUBLIC	__real@4072c00007080003
PUBLIC	__real@4075e00000000000
PUBLIC	__real@4078000000000000
PUBLIC	__real@40784ffbe76c8b44
PUBLIC	__real@4079000000000000
PUBLIC	__real@407c200000000000
PUBLIC	__real@407f400000000000
PUBLIC	__real@40800000
PUBLIC	__real@4082c00000000000
PUBLIC	__real@4087700000000000
PUBLIC	__real@408f400000000000
PUBLIC	__real@4091300000000000
PUBLIC	__real@4099000000000000
PUBLIC	__real@409f400000000000
PUBLIC	__real@40a00000
PUBLIC	__real@40c00000
PUBLIC	__real@40c3880000000000
PUBLIC	__real@41000000
PUBLIC	__real@41100000
PUBLIC	__real@411fd70a
PUBLIC	__real@41200000
PUBLIC	__real@41300000
PUBLIC	__real@41400000
PUBLIC	__real@41500000
PUBLIC	__real@41600000
PUBLIC	__real@41700000
PUBLIC	__real@41800000
PUBLIC	__real@41880000
PUBLIC	__real@41900000
PUBLIC	__real@41a00000
PUBLIC	__real@41b00000
PUBLIC	__real@41c00000
PUBLIC	__real@41c80000
PUBLIC	__real@41d00000
PUBLIC	__real@41f00000
PUBLIC	__real@42080000
PUBLIC	__real@420c0000
PUBLIC	__real@42200000
PUBLIC	__real@42300000
PUBLIC	__real@42400000
PUBLIC	__real@42480000
PUBLIC	__real@424c0000
PUBLIC	__real@425c0000
PUBLIC	__real@42680000
PUBLIC	__real@42700000
PUBLIC	__real@42800000
PUBLIC	__real@42840000
PUBLIC	__real@42880000
PUBLIC	__real@42960000
PUBLIC	__real@42980000
PUBLIC	__real@429a0000
PUBLIC	__real@429c0000
PUBLIC	__real@42a00000
PUBLIC	__real@42ac0000
PUBLIC	__real@42b00000
PUBLIC	__real@42c80000
PUBLIC	__real@42cc0000
PUBLIC	__real@42d00000
PUBLIC	__real@42d80000
PUBLIC	__real@42dc0000
PUBLIC	__real@42e40000
PUBLIC	__real@42e80000
PUBLIC	__real@42ea0000
PUBLIC	__real@42ec0000
PUBLIC	__real@42ee0000
PUBLIC	__real@42f00000
PUBLIC	__real@42f40000
PUBLIC	__real@42f80000
PUBLIC	__real@42fc0000
PUBLIC	__real@43000000
PUBLIC	__real@43040000
PUBLIC	__real@43050000
PUBLIC	__real@43070000
PUBLIC	__real@43090000
PUBLIC	__real@430c0000
PUBLIC	__real@430d0000
PUBLIC	__real@430e0000
PUBLIC	__real@430f0000
PUBLIC	__real@43100000
PUBLIC	__real@43110000
PUBLIC	__real@43120000
PUBLIC	__real@43150000
PUBLIC	__real@43160000
PUBLIC	__real@43170000
PUBLIC	__real@43180000
PUBLIC	__real@431a0000
PUBLIC	__real@431d0000
PUBLIC	__real@431e0000
PUBLIC	__real@43210000
PUBLIC	__real@43220000
PUBLIC	__real@43270000
PUBLIC	__real@432a0000
PUBLIC	__real@432b0000
PUBLIC	__real@432c0000
PUBLIC	__real@43300000
PUBLIC	__real@43310000
PUBLIC	__real@43360000
PUBLIC	__real@433a0000
PUBLIC	__real@433b0000
PUBLIC	__real@433d0000
PUBLIC	__real@43410000
PUBLIC	__real@43420000
PUBLIC	__real@43430000
PUBLIC	__real@43450000
PUBLIC	__real@43480000
PUBLIC	__real@434e0000
PUBLIC	__real@43510000
PUBLIC	__real@43530000
PUBLIC	__real@435a0000
PUBLIC	__real@435b0000
PUBLIC	__real@435c0000
PUBLIC	__real@435d0000
PUBLIC	__real@435e0000
PUBLIC	__real@43600000
PUBLIC	__real@43630000
PUBLIC	__real@43640000
PUBLIC	__real@43650000
PUBLIC	__real@43660000
PUBLIC	__real@43680000
PUBLIC	__real@436d0000
PUBLIC	__real@43700000
PUBLIC	__real@43720000
PUBLIC	__real@43740000
PUBLIC	__real@43760000
PUBLIC	__real@43790000
PUBLIC	__real@437a0000
PUBLIC	__real@437b0000
PUBLIC	__real@437e0000
PUBLIC	__real@43800000
PUBLIC	__real@43808000
PUBLIC	__real@43828000
PUBLIC	__real@43850000
PUBLIC	__real@43858000
PUBLIC	__real@43860000
PUBLIC	__real@43878000
PUBLIC	__real@43888000
PUBLIC	__real@43890000
PUBLIC	__real@438b8000
PUBLIC	__real@438c8000
PUBLIC	__real@438d0000
PUBLIC	__real@43900000
PUBLIC	__real@43910000
PUBLIC	__real@43920000
PUBLIC	__real@43938000
PUBLIC	__real@43960000
PUBLIC	__real@43990000
PUBLIC	__real@43998000
PUBLIC	__real@439a8000
PUBLIC	__real@439d8000
PUBLIC	__real@439e0000
PUBLIC	__real@439f0000
PUBLIC	__real@43a00000
PUBLIC	__real@43a10000
PUBLIC	__real@43a48000
PUBLIC	__real@43aa0000
PUBLIC	__real@43ac8000
PUBLIC	__real@43af8000
PUBLIC	__real@43b48000
PUBLIC	__real@43b70000
PUBLIC	__real@43b80000
PUBLIC	__real@43bb0000
PUBLIC	__real@43bc8000
PUBLIC	__real@43c38000
PUBLIC	__real@43c40000
PUBLIC	__real@43c50000
PUBLIC	__real@43c80000
PUBLIC	__real@43ca0000
PUBLIC	__real@43cb8000
PUBLIC	__real@43ce0000
PUBLIC	__real@43cf8000
PUBLIC	__real@43d00000
PUBLIC	__real@43d10000
PUBLIC	__real@43d18000
PUBLIC	__real@43d70000
PUBLIC	__real@43d80000
PUBLIC	__real@43da0000
PUBLIC	__real@43dd8000
PUBLIC	__real@43e10000
PUBLIC	__real@43e90000
PUBLIC	__real@43ea8000
PUBLIC	__real@43ed8000
PUBLIC	__real@43fa0000
PUBLIC	__real@44000000
PUBLIC	__real@4406c000
PUBLIC	__real@44198000
PUBLIC	__real@44610000
PUBLIC	__real@447a0000
PUBLIC	__real@44fa0000
PUBLIC	__real@460ca000
PUBLIC	__real@461c4000
PUBLIC	__real@bf1c61aa
PUBLIC	__real@bfe0c15236000000
PUBLIC	__real@bff0000000000000
PUBLIC	__real@c0000000
PUBLIC	__real@c000000000000000
PUBLIC	__real@c0200000
PUBLIC	__real@c049000000000000
PUBLIC	__real@c059000000000000
PUBLIC	__real@c072c00000000000
PUBLIC	__real@c1200000
PUBLIC	__real@c1a00000
PUBLIC	__real@c2480000
PUBLIC	__real@c2c80000
PUBLIC	__real@c2f00000
PUBLIC	__real@c3960000
PUBLIC	__real@c3af0000
PUBLIC	__real@c3fa0000
PUBLIC	__xmm@80000000800000008000000080000000
EXTRN	_memcpy:PROC
EXTRN	_acos:PROC
EXTRN	_asin:PROC
EXTRN	_atan2:PROC
EXTRN	_cos:PROC
EXTRN	_fmod:PROC
EXTRN	_sin:PROC
EXTRN	_sqrt:PROC
EXTRN	?process_assert@@YGXPBD0H@Z:PROC		; process_assert
EXTRN	?debug_fatal@@YAXPBDZZ:PROC			; debug_fatal
EXTRN	?get_2d_unit_vector_dot_product@@YGMPBUVEC2D@@0@Z:PROC ; get_2d_unit_vector_dot_product
EXTRN	?get_3d_transformation_matrix@@YGXQAY02MMMM@Z:PROC ; get_3d_transformation_matrix
EXTRN	?multiply_matrix3x3_matrix3x3@@YGXQAY02MQAY02$$CBM1@Z:PROC ; multiply_matrix3x3_matrix3x3
EXTRN	?get_2d_range@@YGMPBUVEC3D@@0@Z:PROC		; get_2d_range
EXTRN	?set_viewport@@YGXMMMM@Z:PROC			; set_viewport
EXTRN	?create_system_texture_screen@@YGPAUSCREEN@@HHHH@Z:PROC ; create_system_texture_screen
EXTRN	?create_screen_for_system_texture@@YGPAUSCREEN@@H@Z:PROC ; create_screen_for_system_texture
EXTRN	?set_system_texture_screen@@YGXPAUSCREEN@@H@Z:PROC ; set_system_texture_screen
EXTRN	?destroy_screen@@YGHPAUSCREEN@@@Z:PROC		; destroy_screen
EXTRN	?lock_screen@@YGHPAUSCREEN@@@Z:PROC		; lock_screen
EXTRN	?unlock_screen@@YGHPAUSCREEN@@@Z:PROC		; unlock_screen
EXTRN	?set_active_screen@@YGHPAUSCREEN@@@Z:PROC	; set_active_screen
EXTRN	?get_screen_width@@YGHPAUSCREEN@@@Z:PROC	; get_screen_width
EXTRN	?get_screen_height@@YGHPAUSCREEN@@@Z:PROC	; get_screen_height
EXTRN	?blit_screens@@YGXPAUSCREEN@@0HHHHHHHH@Z:PROC	; blit_screens
EXTRN	?draw_line@@YGXMMMMUREAL_COLOUR@@@Z:PROC	; draw_line
EXTRN	?draw_arrow@@YGXMMMMMMUREAL_COLOUR@@@Z:PROC	; draw_arrow
EXTRN	?set_pixel@@YGXHHUREAL_COLOUR@@@Z:PROC		; set_pixel
EXTRN	?blit_rgb_alpha_masked_sprite@@YGXPBE0PBURGB_ALPHA_MASKED_SPRITE_DATA@@@Z:PROC ; blit_rgb_alpha_masked_sprite
EXTRN	?blit_rgb_alpha_masked_sprite_zero_mask_value_scaled@@YGXPBE0HHHHHHHHE@Z:PROC ; blit_rgb_alpha_masked_sprite_zero_mask_value_scaled
EXTRN	?set_mono_font_type@@YGXW4MONO_FONT_TYPES@@@Z:PROC ; set_mono_font_type
EXTRN	?set_mono_font_position@@YGXMM@Z:PROC		; set_mono_font_position
EXTRN	?set_mono_font_colour@@YGXUREAL_COLOUR@@@Z:PROC	; set_mono_font_colour
EXTRN	?print_mono_font_char@@YGXD@Z:PROC		; print_mono_font_char
EXTRN	?get_waypoint_display_position@@YGXPAUENTITY@@0PAUVEC3D@@@Z:PROC ; get_waypoint_display_position
EXTRN	?get_session_wind_velocity_at_point@@YGMPAUVEC3D@@0@Z:PROC ; get_session_wind_velocity_at_point
EXTRN	?get_local_entity_current_waypoint@@YGPAUENTITY@@PAU1@@Z:PROC ; get_local_entity_current_waypoint
EXTRN	?get_local_entity_prev_waypoint@@YGPAUENTITY@@PAU1@@Z:PROC ; get_local_entity_prev_waypoint
EXTRN	?get_analogue_clock_values@@YGXMPAM00@Z:PROC	; get_analogue_clock_values
EXTRN	?sys_col_red@@3UREAL_COLOUR@@A:DWORD		; sys_col_red
EXTRN	?video_screen@@3PAUSCREEN@@A:DWORD		; video_screen
EXTRN	?graphics_files@@3PAUFILE_DATA@@A:BYTE		; graphics_files
EXTRN	?null_entity_pointer_message@@3PBDB:DWORD	; null_entity_pointer_message
EXTRN	?global_options@@3UGLOBAL_OPTIONS_DATA@@A:BYTE	; global_options
EXTRN	?overload_invalid_char_type_message@@3PBDB:DWORD ; overload_invalid_char_type_message
EXTRN	?fn_get_local_entity_char_value@@3PAY01P6GDPAUENTITY@@W4CHAR_TYPES@@@ZA:BYTE ; fn_get_local_entity_char_value
EXTRN	?overload_invalid_float_type_message@@3PBDB:DWORD ; overload_invalid_float_type_message
EXTRN	?fn_get_local_entity_float_value@@3PAY0KP@P6GMPAUENTITY@@W4FLOAT_TYPES@@@ZA:BYTE ; fn_get_local_entity_float_value
EXTRN	?overload_invalid_int_type_message@@3PBDB:DWORD	; overload_invalid_int_type_message
EXTRN	?fn_get_local_entity_int_value@@3PAY0BBH@P6GHPAUENTITY@@W4INT_TYPES@@@ZA:BYTE ; fn_get_local_entity_int_value
EXTRN	?overload_invalid_vec3d_type_message@@3PBDB:DWORD ; overload_invalid_vec3d_type_message
EXTRN	?fn_get_local_entity_vec3d_ptr@@3PAY0BI@P6GPAUVEC3D@@PAUENTITY@@W4VEC3D_TYPES@@@ZA:BYTE ; fn_get_local_entity_vec3d_ptr
EXTRN	?gunship_entity@@3PAUENTITY@@A:DWORD		; gunship_entity
EXTRN	?session_entity@@3PAUENTITY@@A:DWORD		; session_entity
EXTRN	?ix_640_480@@3HA:DWORD				; ix_640_480
EXTRN	?iy_640_480@@3HA:DWORD				; iy_640_480
EXTRN	?fx_640_480@@3MA:DWORD				; fx_640_480
EXTRN	?fy_640_480@@3MA:DWORD				; fy_640_480
EXTRN	?havoc_damage@@3THAVOC_DAMAGE_FLAGS@@A:DWORD	; havoc_damage
EXTRN	?test_cockpit_instruments@@3HA:DWORD		; test_cockpit_instruments
EXTRN	?base_cockpit_graphics_file@@3W4GRAPHICS_FILE_SPECIFIERS@@A:DWORD ; base_cockpit_graphics_file
EXTRN	?havoc_lamps@@3UHAVOC_LAMP_FLAGS@@A:BYTE	; havoc_lamps
EXTRN	?current_flight_dynamics@@3PAUDYNAMICS_TYPE@@A:DWORD ; current_flight_dynamics
EXTRN	__fltused:DWORD
_BSS	SEGMENT
?white_needle_colour@@3UREAL_COLOUR@@A DD 01H DUP (?)	; white_needle_colour
?grey_needle_colour@@3UREAL_COLOUR@@A DD 01H DUP (?)	; grey_needle_colour
?yellow_needle_colour@@3UREAL_COLOUR@@A DD 01H DUP (?)	; yellow_needle_colour
?orange_needle_colour@@3UREAL_COLOUR@@A DD 01H DUP (?)	; orange_needle_colour
?red_needle_colour@@3UREAL_COLOUR@@A DD 01H DUP (?)	; red_needle_colour
?white_digit_colour@@3UREAL_COLOUR@@A DD 01H DUP (?)	; white_digit_colour
?yellow_digit_colour@@3UREAL_COLOUR@@A DD 01H DUP (?)	; yellow_digit_colour
?white_needle_colour_level1@@3UREAL_COLOUR@@A DD 01H DUP (?) ; white_needle_colour_level1
?grey_needle_colour_level1@@3UREAL_COLOUR@@A DD 01H DUP (?) ; grey_needle_colour_level1
?yellow_needle_colour_level1@@3UREAL_COLOUR@@A DD 01H DUP (?) ; yellow_needle_colour_level1
?orange_needle_colour_level1@@3UREAL_COLOUR@@A DD 01H DUP (?) ; orange_needle_colour_level1
?red_needle_colour_level1@@3UREAL_COLOUR@@A DD 01H DUP (?) ; red_needle_colour_level1
?white_digit_colour_level1@@3UREAL_COLOUR@@A DD 01H DUP (?) ; white_digit_colour_level1
?yellow_digit_colour_level1@@3UREAL_COLOUR@@A DD 01H DUP (?) ; yellow_digit_colour_level1
?white_needle_colour_level2@@3UREAL_COLOUR@@A DD 01H DUP (?) ; white_needle_colour_level2
?grey_needle_colour_level2@@3UREAL_COLOUR@@A DD 01H DUP (?) ; grey_needle_colour_level2
?yellow_needle_colour_level2@@3UREAL_COLOUR@@A DD 01H DUP (?) ; yellow_needle_colour_level2
?orange_needle_colour_level2@@3UREAL_COLOUR@@A DD 01H DUP (?) ; orange_needle_colour_level2
?red_needle_colour_level2@@3UREAL_COLOUR@@A DD 01H DUP (?) ; red_needle_colour_level2
?white_digit_colour_level2@@3UREAL_COLOUR@@A DD 01H DUP (?) ; white_digit_colour_level2
?yellow_digit_colour_level2@@3UREAL_COLOUR@@A DD 01H DUP (?) ; yellow_digit_colour_level2
?white_needle_colour_level3@@3UREAL_COLOUR@@A DD 01H DUP (?) ; white_needle_colour_level3
?grey_needle_colour_level3@@3UREAL_COLOUR@@A DD 01H DUP (?) ; grey_needle_colour_level3
?yellow_needle_colour_level3@@3UREAL_COLOUR@@A DD 01H DUP (?) ; yellow_needle_colour_level3
?orange_needle_colour_level3@@3UREAL_COLOUR@@A DD 01H DUP (?) ; orange_needle_colour_level3
?red_needle_colour_level3@@3UREAL_COLOUR@@A DD 01H DUP (?) ; red_needle_colour_level3
?white_digit_colour_level3@@3UREAL_COLOUR@@A DD 01H DUP (?) ; white_digit_colour_level3
?yellow_digit_colour_level3@@3UREAL_COLOUR@@A DD 01H DUP (?) ; yellow_digit_colour_level3
?old_texture_screen@@3PAY02PAUSCREEN@@A DD 0fH DUP (?)	; old_texture_screen
?texture_screen@@3PAY02PAUSCREEN@@A DD 0fH DUP (?)	; texture_screen
?texture_width@@3PAY02MA DD 0fH DUP (?)			; texture_width
?texture_height@@3PAY02MA DD 0fH DUP (?)		; texture_height
?direction_finder_value@?L@??get_hsi_needle_values@@YGXPAM00@Z@4MA DD 01H DUP (?) ; `get_hsi_needle_values'::`11'::direction_finder_value
?value@?4??draw_havoc_barometric_altimeter@@YGXW4COCKPIT_PANELS@@@Z@4MA DD 01H DUP (?) ; `draw_havoc_barometric_altimeter'::`5'::value
?hour_value@?4??draw_havoc_clock@@YGXW4COCKPIT_PANELS@@@Z@4MA DD 01H DUP (?) ; `draw_havoc_clock'::`5'::hour_value
?second_value@?4??draw_havoc_clock@@YGXW4COCKPIT_PANELS@@@Z@4MA DD 01H DUP (?) ; `draw_havoc_clock'::`5'::second_value
_BSS	ENDS
;	COMDAT __xmm@80000000800000008000000080000000
CONST	SEGMENT
__xmm@80000000800000008000000080000000 DB 00H, 00H, 00H, 080H, 00H, 00H, 00H
	DB	080H, 00H, 00H, 00H, 080H, 00H, 00H, 00H, 080H
CONST	ENDS
;	COMDAT __real@c3fa0000
CONST	SEGMENT
__real@c3fa0000 DD 0c3fa0000r			; -500
CONST	ENDS
;	COMDAT __real@c3af0000
CONST	SEGMENT
__real@c3af0000 DD 0c3af0000r			; -350
CONST	ENDS
;	COMDAT __real@c3960000
CONST	SEGMENT
__real@c3960000 DD 0c3960000r			; -300
CONST	ENDS
;	COMDAT __real@c2f00000
CONST	SEGMENT
__real@c2f00000 DD 0c2f00000r			; -120
CONST	ENDS
;	COMDAT __real@c2c80000
CONST	SEGMENT
__real@c2c80000 DD 0c2c80000r			; -100
CONST	ENDS
;	COMDAT __real@c2480000
CONST	SEGMENT
__real@c2480000 DD 0c2480000r			; -50
CONST	ENDS
;	COMDAT __real@c1a00000
CONST	SEGMENT
__real@c1a00000 DD 0c1a00000r			; -20
CONST	ENDS
;	COMDAT __real@c1200000
CONST	SEGMENT
__real@c1200000 DD 0c1200000r			; -10
CONST	ENDS
;	COMDAT __real@c072c00000000000
CONST	SEGMENT
__real@c072c00000000000 DQ 0c072c00000000000r	; -300
CONST	ENDS
;	COMDAT __real@c059000000000000
CONST	SEGMENT
__real@c059000000000000 DQ 0c059000000000000r	; -100
CONST	ENDS
;	COMDAT __real@c049000000000000
CONST	SEGMENT
__real@c049000000000000 DQ 0c049000000000000r	; -50
CONST	ENDS
;	COMDAT __real@c0200000
CONST	SEGMENT
__real@c0200000 DD 0c0200000r			; -2.5
CONST	ENDS
;	COMDAT __real@c000000000000000
CONST	SEGMENT
__real@c000000000000000 DQ 0c000000000000000r	; -2
CONST	ENDS
;	COMDAT __real@c0000000
CONST	SEGMENT
__real@c0000000 DD 0c0000000r			; -2
CONST	ENDS
;	COMDAT __real@bff0000000000000
CONST	SEGMENT
__real@bff0000000000000 DQ 0bff0000000000000r	; -1
CONST	ENDS
;	COMDAT __real@bfe0c15236000000
CONST	SEGMENT
__real@bfe0c15236000000 DQ 0bfe0c15236000000r	; -0.523599
CONST	ENDS
;	COMDAT __real@bf1c61aa
CONST	SEGMENT
__real@bf1c61aa DD 0bf1c61aar			; -0.610865
CONST	ENDS
;	COMDAT __real@461c4000
CONST	SEGMENT
__real@461c4000 DD 0461c4000r			; 10000
CONST	ENDS
;	COMDAT __real@460ca000
CONST	SEGMENT
__real@460ca000 DD 0460ca000r			; 9000
CONST	ENDS
;	COMDAT __real@44fa0000
CONST	SEGMENT
__real@44fa0000 DD 044fa0000r			; 2000
CONST	ENDS
;	COMDAT __real@447a0000
CONST	SEGMENT
__real@447a0000 DD 0447a0000r			; 1000
CONST	ENDS
;	COMDAT __real@44610000
CONST	SEGMENT
__real@44610000 DD 044610000r			; 900
CONST	ENDS
;	COMDAT __real@44198000
CONST	SEGMENT
__real@44198000 DD 044198000r			; 614
CONST	ENDS
;	COMDAT __real@4406c000
CONST	SEGMENT
__real@4406c000 DD 04406c000r			; 539
CONST	ENDS
;	COMDAT __real@44000000
CONST	SEGMENT
__real@44000000 DD 044000000r			; 512
CONST	ENDS
;	COMDAT __real@43fa0000
CONST	SEGMENT
__real@43fa0000 DD 043fa0000r			; 500
CONST	ENDS
;	COMDAT __real@43ed8000
CONST	SEGMENT
__real@43ed8000 DD 043ed8000r			; 475
CONST	ENDS
;	COMDAT __real@43ea8000
CONST	SEGMENT
__real@43ea8000 DD 043ea8000r			; 469
CONST	ENDS
;	COMDAT __real@43e90000
CONST	SEGMENT
__real@43e90000 DD 043e90000r			; 466
CONST	ENDS
;	COMDAT __real@43e10000
CONST	SEGMENT
__real@43e10000 DD 043e10000r			; 450
CONST	ENDS
;	COMDAT __real@43dd8000
CONST	SEGMENT
__real@43dd8000 DD 043dd8000r			; 443
CONST	ENDS
;	COMDAT __real@43da0000
CONST	SEGMENT
__real@43da0000 DD 043da0000r			; 436
CONST	ENDS
;	COMDAT __real@43d80000
CONST	SEGMENT
__real@43d80000 DD 043d80000r			; 432
CONST	ENDS
;	COMDAT __real@43d70000
CONST	SEGMENT
__real@43d70000 DD 043d70000r			; 430
CONST	ENDS
;	COMDAT __real@43d18000
CONST	SEGMENT
__real@43d18000 DD 043d18000r			; 419
CONST	ENDS
;	COMDAT __real@43d10000
CONST	SEGMENT
__real@43d10000 DD 043d10000r			; 418
CONST	ENDS
;	COMDAT __real@43d00000
CONST	SEGMENT
__real@43d00000 DD 043d00000r			; 416
CONST	ENDS
;	COMDAT __real@43cf8000
CONST	SEGMENT
__real@43cf8000 DD 043cf8000r			; 415
CONST	ENDS
;	COMDAT __real@43ce0000
CONST	SEGMENT
__real@43ce0000 DD 043ce0000r			; 412
CONST	ENDS
;	COMDAT __real@43cb8000
CONST	SEGMENT
__real@43cb8000 DD 043cb8000r			; 407
CONST	ENDS
;	COMDAT __real@43ca0000
CONST	SEGMENT
__real@43ca0000 DD 043ca0000r			; 404
CONST	ENDS
;	COMDAT __real@43c80000
CONST	SEGMENT
__real@43c80000 DD 043c80000r			; 400
CONST	ENDS
;	COMDAT __real@43c50000
CONST	SEGMENT
__real@43c50000 DD 043c50000r			; 394
CONST	ENDS
;	COMDAT __real@43c40000
CONST	SEGMENT
__real@43c40000 DD 043c40000r			; 392
CONST	ENDS
;	COMDAT __real@43c38000
CONST	SEGMENT
__real@43c38000 DD 043c38000r			; 391
CONST	ENDS
;	COMDAT __real@43bc8000
CONST	SEGMENT
__real@43bc8000 DD 043bc8000r			; 377
CONST	ENDS
;	COMDAT __real@43bb0000
CONST	SEGMENT
__real@43bb0000 DD 043bb0000r			; 374
CONST	ENDS
;	COMDAT __real@43b80000
CONST	SEGMENT
__real@43b80000 DD 043b80000r			; 368
CONST	ENDS
;	COMDAT __real@43b70000
CONST	SEGMENT
__real@43b70000 DD 043b70000r			; 366
CONST	ENDS
;	COMDAT __real@43b48000
CONST	SEGMENT
__real@43b48000 DD 043b48000r			; 361
CONST	ENDS
;	COMDAT __real@43af8000
CONST	SEGMENT
__real@43af8000 DD 043af8000r			; 351
CONST	ENDS
;	COMDAT __real@43ac8000
CONST	SEGMENT
__real@43ac8000 DD 043ac8000r			; 345
CONST	ENDS
;	COMDAT __real@43aa0000
CONST	SEGMENT
__real@43aa0000 DD 043aa0000r			; 340
CONST	ENDS
;	COMDAT __real@43a48000
CONST	SEGMENT
__real@43a48000 DD 043a48000r			; 329
CONST	ENDS
;	COMDAT __real@43a10000
CONST	SEGMENT
__real@43a10000 DD 043a10000r			; 322
CONST	ENDS
;	COMDAT __real@43a00000
CONST	SEGMENT
__real@43a00000 DD 043a00000r			; 320
CONST	ENDS
;	COMDAT __real@439f0000
CONST	SEGMENT
__real@439f0000 DD 0439f0000r			; 318
CONST	ENDS
;	COMDAT __real@439e0000
CONST	SEGMENT
__real@439e0000 DD 0439e0000r			; 316
CONST	ENDS
;	COMDAT __real@439d8000
CONST	SEGMENT
__real@439d8000 DD 0439d8000r			; 315
CONST	ENDS
;	COMDAT __real@439a8000
CONST	SEGMENT
__real@439a8000 DD 0439a8000r			; 309
CONST	ENDS
;	COMDAT __real@43998000
CONST	SEGMENT
__real@43998000 DD 043998000r			; 307
CONST	ENDS
;	COMDAT __real@43990000
CONST	SEGMENT
__real@43990000 DD 043990000r			; 306
CONST	ENDS
;	COMDAT __real@43960000
CONST	SEGMENT
__real@43960000 DD 043960000r			; 300
CONST	ENDS
;	COMDAT __real@43938000
CONST	SEGMENT
__real@43938000 DD 043938000r			; 295
CONST	ENDS
;	COMDAT __real@43920000
CONST	SEGMENT
__real@43920000 DD 043920000r			; 292
CONST	ENDS
;	COMDAT __real@43910000
CONST	SEGMENT
__real@43910000 DD 043910000r			; 290
CONST	ENDS
;	COMDAT __real@43900000
CONST	SEGMENT
__real@43900000 DD 043900000r			; 288
CONST	ENDS
;	COMDAT __real@438d0000
CONST	SEGMENT
__real@438d0000 DD 0438d0000r			; 282
CONST	ENDS
;	COMDAT __real@438c8000
CONST	SEGMENT
__real@438c8000 DD 0438c8000r			; 281
CONST	ENDS
;	COMDAT __real@438b8000
CONST	SEGMENT
__real@438b8000 DD 0438b8000r			; 279
CONST	ENDS
;	COMDAT __real@43890000
CONST	SEGMENT
__real@43890000 DD 043890000r			; 274
CONST	ENDS
;	COMDAT __real@43888000
CONST	SEGMENT
__real@43888000 DD 043888000r			; 273
CONST	ENDS
;	COMDAT __real@43878000
CONST	SEGMENT
__real@43878000 DD 043878000r			; 271
CONST	ENDS
;	COMDAT __real@43860000
CONST	SEGMENT
__real@43860000 DD 043860000r			; 268
CONST	ENDS
;	COMDAT __real@43858000
CONST	SEGMENT
__real@43858000 DD 043858000r			; 267
CONST	ENDS
;	COMDAT __real@43850000
CONST	SEGMENT
__real@43850000 DD 043850000r			; 266
CONST	ENDS
;	COMDAT __real@43828000
CONST	SEGMENT
__real@43828000 DD 043828000r			; 261
CONST	ENDS
;	COMDAT __real@43808000
CONST	SEGMENT
__real@43808000 DD 043808000r			; 257
CONST	ENDS
;	COMDAT __real@43800000
CONST	SEGMENT
__real@43800000 DD 043800000r			; 256
CONST	ENDS
;	COMDAT __real@437e0000
CONST	SEGMENT
__real@437e0000 DD 0437e0000r			; 254
CONST	ENDS
;	COMDAT __real@437b0000
CONST	SEGMENT
__real@437b0000 DD 0437b0000r			; 251
CONST	ENDS
;	COMDAT __real@437a0000
CONST	SEGMENT
__real@437a0000 DD 0437a0000r			; 250
CONST	ENDS
;	COMDAT __real@43790000
CONST	SEGMENT
__real@43790000 DD 043790000r			; 249
CONST	ENDS
;	COMDAT __real@43760000
CONST	SEGMENT
__real@43760000 DD 043760000r			; 246
CONST	ENDS
;	COMDAT __real@43740000
CONST	SEGMENT
__real@43740000 DD 043740000r			; 244
CONST	ENDS
;	COMDAT __real@43720000
CONST	SEGMENT
__real@43720000 DD 043720000r			; 242
CONST	ENDS
;	COMDAT __real@43700000
CONST	SEGMENT
__real@43700000 DD 043700000r			; 240
CONST	ENDS
;	COMDAT __real@436d0000
CONST	SEGMENT
__real@436d0000 DD 0436d0000r			; 237
CONST	ENDS
;	COMDAT __real@43680000
CONST	SEGMENT
__real@43680000 DD 043680000r			; 232
CONST	ENDS
;	COMDAT __real@43660000
CONST	SEGMENT
__real@43660000 DD 043660000r			; 230
CONST	ENDS
;	COMDAT __real@43650000
CONST	SEGMENT
__real@43650000 DD 043650000r			; 229
CONST	ENDS
;	COMDAT __real@43640000
CONST	SEGMENT
__real@43640000 DD 043640000r			; 228
CONST	ENDS
;	COMDAT __real@43630000
CONST	SEGMENT
__real@43630000 DD 043630000r			; 227
CONST	ENDS
;	COMDAT __real@43600000
CONST	SEGMENT
__real@43600000 DD 043600000r			; 224
CONST	ENDS
;	COMDAT __real@435e0000
CONST	SEGMENT
__real@435e0000 DD 0435e0000r			; 222
CONST	ENDS
;	COMDAT __real@435d0000
CONST	SEGMENT
__real@435d0000 DD 0435d0000r			; 221
CONST	ENDS
;	COMDAT __real@435c0000
CONST	SEGMENT
__real@435c0000 DD 0435c0000r			; 220
CONST	ENDS
;	COMDAT __real@435b0000
CONST	SEGMENT
__real@435b0000 DD 0435b0000r			; 219
CONST	ENDS
;	COMDAT __real@435a0000
CONST	SEGMENT
__real@435a0000 DD 0435a0000r			; 218
CONST	ENDS
;	COMDAT __real@43530000
CONST	SEGMENT
__real@43530000 DD 043530000r			; 211
CONST	ENDS
;	COMDAT __real@43510000
CONST	SEGMENT
__real@43510000 DD 043510000r			; 209
CONST	ENDS
;	COMDAT __real@434e0000
CONST	SEGMENT
__real@434e0000 DD 0434e0000r			; 206
CONST	ENDS
;	COMDAT __real@43480000
CONST	SEGMENT
__real@43480000 DD 043480000r			; 200
CONST	ENDS
;	COMDAT __real@43450000
CONST	SEGMENT
__real@43450000 DD 043450000r			; 197
CONST	ENDS
;	COMDAT __real@43430000
CONST	SEGMENT
__real@43430000 DD 043430000r			; 195
CONST	ENDS
;	COMDAT __real@43420000
CONST	SEGMENT
__real@43420000 DD 043420000r			; 194
CONST	ENDS
;	COMDAT __real@43410000
CONST	SEGMENT
__real@43410000 DD 043410000r			; 193
CONST	ENDS
;	COMDAT __real@433d0000
CONST	SEGMENT
__real@433d0000 DD 0433d0000r			; 189
CONST	ENDS
;	COMDAT __real@433b0000
CONST	SEGMENT
__real@433b0000 DD 0433b0000r			; 187
CONST	ENDS
;	COMDAT __real@433a0000
CONST	SEGMENT
__real@433a0000 DD 0433a0000r			; 186
CONST	ENDS
;	COMDAT __real@43360000
CONST	SEGMENT
__real@43360000 DD 043360000r			; 182
CONST	ENDS
;	COMDAT __real@43310000
CONST	SEGMENT
__real@43310000 DD 043310000r			; 177
CONST	ENDS
;	COMDAT __real@43300000
CONST	SEGMENT
__real@43300000 DD 043300000r			; 176
CONST	ENDS
;	COMDAT __real@432c0000
CONST	SEGMENT
__real@432c0000 DD 0432c0000r			; 172
CONST	ENDS
;	COMDAT __real@432b0000
CONST	SEGMENT
__real@432b0000 DD 0432b0000r			; 171
CONST	ENDS
;	COMDAT __real@432a0000
CONST	SEGMENT
__real@432a0000 DD 0432a0000r			; 170
CONST	ENDS
;	COMDAT __real@43270000
CONST	SEGMENT
__real@43270000 DD 043270000r			; 167
CONST	ENDS
;	COMDAT __real@43220000
CONST	SEGMENT
__real@43220000 DD 043220000r			; 162
CONST	ENDS
;	COMDAT __real@43210000
CONST	SEGMENT
__real@43210000 DD 043210000r			; 161
CONST	ENDS
;	COMDAT __real@431e0000
CONST	SEGMENT
__real@431e0000 DD 0431e0000r			; 158
CONST	ENDS
;	COMDAT __real@431d0000
CONST	SEGMENT
__real@431d0000 DD 0431d0000r			; 157
CONST	ENDS
;	COMDAT __real@431a0000
CONST	SEGMENT
__real@431a0000 DD 0431a0000r			; 154
CONST	ENDS
;	COMDAT __real@43180000
CONST	SEGMENT
__real@43180000 DD 043180000r			; 152
CONST	ENDS
;	COMDAT __real@43170000
CONST	SEGMENT
__real@43170000 DD 043170000r			; 151
CONST	ENDS
;	COMDAT __real@43160000
CONST	SEGMENT
__real@43160000 DD 043160000r			; 150
CONST	ENDS
;	COMDAT __real@43150000
CONST	SEGMENT
__real@43150000 DD 043150000r			; 149
CONST	ENDS
;	COMDAT __real@43120000
CONST	SEGMENT
__real@43120000 DD 043120000r			; 146
CONST	ENDS
;	COMDAT __real@43110000
CONST	SEGMENT
__real@43110000 DD 043110000r			; 145
CONST	ENDS
;	COMDAT __real@43100000
CONST	SEGMENT
__real@43100000 DD 043100000r			; 144
CONST	ENDS
;	COMDAT __real@430f0000
CONST	SEGMENT
__real@430f0000 DD 0430f0000r			; 143
CONST	ENDS
;	COMDAT __real@430e0000
CONST	SEGMENT
__real@430e0000 DD 0430e0000r			; 142
CONST	ENDS
;	COMDAT __real@430d0000
CONST	SEGMENT
__real@430d0000 DD 0430d0000r			; 141
CONST	ENDS
;	COMDAT __real@430c0000
CONST	SEGMENT
__real@430c0000 DD 0430c0000r			; 140
CONST	ENDS
;	COMDAT __real@43090000
CONST	SEGMENT
__real@43090000 DD 043090000r			; 137
CONST	ENDS
;	COMDAT __real@43070000
CONST	SEGMENT
__real@43070000 DD 043070000r			; 135
CONST	ENDS
;	COMDAT __real@43050000
CONST	SEGMENT
__real@43050000 DD 043050000r			; 133
CONST	ENDS
;	COMDAT __real@43040000
CONST	SEGMENT
__real@43040000 DD 043040000r			; 132
CONST	ENDS
;	COMDAT __real@43000000
CONST	SEGMENT
__real@43000000 DD 043000000r			; 128
CONST	ENDS
;	COMDAT __real@42fc0000
CONST	SEGMENT
__real@42fc0000 DD 042fc0000r			; 126
CONST	ENDS
;	COMDAT __real@42f80000
CONST	SEGMENT
__real@42f80000 DD 042f80000r			; 124
CONST	ENDS
;	COMDAT __real@42f40000
CONST	SEGMENT
__real@42f40000 DD 042f40000r			; 122
CONST	ENDS
;	COMDAT __real@42f00000
CONST	SEGMENT
__real@42f00000 DD 042f00000r			; 120
CONST	ENDS
;	COMDAT __real@42ee0000
CONST	SEGMENT
__real@42ee0000 DD 042ee0000r			; 119
CONST	ENDS
;	COMDAT __real@42ec0000
CONST	SEGMENT
__real@42ec0000 DD 042ec0000r			; 118
CONST	ENDS
;	COMDAT __real@42ea0000
CONST	SEGMENT
__real@42ea0000 DD 042ea0000r			; 117
CONST	ENDS
;	COMDAT __real@42e80000
CONST	SEGMENT
__real@42e80000 DD 042e80000r			; 116
CONST	ENDS
;	COMDAT __real@42e40000
CONST	SEGMENT
__real@42e40000 DD 042e40000r			; 114
CONST	ENDS
;	COMDAT __real@42dc0000
CONST	SEGMENT
__real@42dc0000 DD 042dc0000r			; 110
CONST	ENDS
;	COMDAT __real@42d80000
CONST	SEGMENT
__real@42d80000 DD 042d80000r			; 108
CONST	ENDS
;	COMDAT __real@42d00000
CONST	SEGMENT
__real@42d00000 DD 042d00000r			; 104
CONST	ENDS
;	COMDAT __real@42cc0000
CONST	SEGMENT
__real@42cc0000 DD 042cc0000r			; 102
CONST	ENDS
;	COMDAT __real@42c80000
CONST	SEGMENT
__real@42c80000 DD 042c80000r			; 100
CONST	ENDS
;	COMDAT __real@42b00000
CONST	SEGMENT
__real@42b00000 DD 042b00000r			; 88
CONST	ENDS
;	COMDAT __real@42ac0000
CONST	SEGMENT
__real@42ac0000 DD 042ac0000r			; 86
CONST	ENDS
;	COMDAT __real@42a00000
CONST	SEGMENT
__real@42a00000 DD 042a00000r			; 80
CONST	ENDS
;	COMDAT __real@429c0000
CONST	SEGMENT
__real@429c0000 DD 0429c0000r			; 78
CONST	ENDS
;	COMDAT __real@429a0000
CONST	SEGMENT
__real@429a0000 DD 0429a0000r			; 77
CONST	ENDS
;	COMDAT __real@42980000
CONST	SEGMENT
__real@42980000 DD 042980000r			; 76
CONST	ENDS
;	COMDAT __real@42960000
CONST	SEGMENT
__real@42960000 DD 042960000r			; 75
CONST	ENDS
;	COMDAT __real@42880000
CONST	SEGMENT
__real@42880000 DD 042880000r			; 68
CONST	ENDS
;	COMDAT __real@42840000
CONST	SEGMENT
__real@42840000 DD 042840000r			; 66
CONST	ENDS
;	COMDAT __real@42800000
CONST	SEGMENT
__real@42800000 DD 042800000r			; 64
CONST	ENDS
;	COMDAT __real@42700000
CONST	SEGMENT
__real@42700000 DD 042700000r			; 60
CONST	ENDS
;	COMDAT __real@42680000
CONST	SEGMENT
__real@42680000 DD 042680000r			; 58
CONST	ENDS
;	COMDAT __real@425c0000
CONST	SEGMENT
__real@425c0000 DD 0425c0000r			; 55
CONST	ENDS
;	COMDAT __real@424c0000
CONST	SEGMENT
__real@424c0000 DD 0424c0000r			; 51
CONST	ENDS
;	COMDAT __real@42480000
CONST	SEGMENT
__real@42480000 DD 042480000r			; 50
CONST	ENDS
;	COMDAT __real@42400000
CONST	SEGMENT
__real@42400000 DD 042400000r			; 48
CONST	ENDS
;	COMDAT __real@42300000
CONST	SEGMENT
__real@42300000 DD 042300000r			; 44
CONST	ENDS
;	COMDAT __real@42200000
CONST	SEGMENT
__real@42200000 DD 042200000r			; 40
CONST	ENDS
;	COMDAT __real@420c0000
CONST	SEGMENT
__real@420c0000 DD 0420c0000r			; 35
CONST	ENDS
;	COMDAT __real@42080000
CONST	SEGMENT
__real@42080000 DD 042080000r			; 34
CONST	ENDS
;	COMDAT __real@41f00000
CONST	SEGMENT
__real@41f00000 DD 041f00000r			; 30
CONST	ENDS
;	COMDAT __real@41d00000
CONST	SEGMENT
__real@41d00000 DD 041d00000r			; 26
CONST	ENDS
;	COMDAT __real@41c80000
CONST	SEGMENT
__real@41c80000 DD 041c80000r			; 25
CONST	ENDS
;	COMDAT __real@41c00000
CONST	SEGMENT
__real@41c00000 DD 041c00000r			; 24
CONST	ENDS
;	COMDAT __real@41b00000
CONST	SEGMENT
__real@41b00000 DD 041b00000r			; 22
CONST	ENDS
;	COMDAT __real@41a00000
CONST	SEGMENT
__real@41a00000 DD 041a00000r			; 20
CONST	ENDS
;	COMDAT __real@41900000
CONST	SEGMENT
__real@41900000 DD 041900000r			; 18
CONST	ENDS
;	COMDAT __real@41880000
CONST	SEGMENT
__real@41880000 DD 041880000r			; 17
CONST	ENDS
;	COMDAT __real@41800000
CONST	SEGMENT
__real@41800000 DD 041800000r			; 16
CONST	ENDS
;	COMDAT __real@41700000
CONST	SEGMENT
__real@41700000 DD 041700000r			; 15
CONST	ENDS
;	COMDAT __real@41600000
CONST	SEGMENT
__real@41600000 DD 041600000r			; 14
CONST	ENDS
;	COMDAT __real@41500000
CONST	SEGMENT
__real@41500000 DD 041500000r			; 13
CONST	ENDS
;	COMDAT __real@41400000
CONST	SEGMENT
__real@41400000 DD 041400000r			; 12
CONST	ENDS
;	COMDAT __real@41300000
CONST	SEGMENT
__real@41300000 DD 041300000r			; 11
CONST	ENDS
;	COMDAT __real@41200000
CONST	SEGMENT
__real@41200000 DD 041200000r			; 10
CONST	ENDS
;	COMDAT __real@411fd70a
CONST	SEGMENT
__real@411fd70a DD 0411fd70ar			; 9.99
CONST	ENDS
;	COMDAT __real@41100000
CONST	SEGMENT
__real@41100000 DD 041100000r			; 9
CONST	ENDS
;	COMDAT __real@41000000
CONST	SEGMENT
__real@41000000 DD 041000000r			; 8
CONST	ENDS
;	COMDAT __real@40c3880000000000
CONST	SEGMENT
__real@40c3880000000000 DQ 040c3880000000000r	; 10000
CONST	ENDS
;	COMDAT __real@40c00000
CONST	SEGMENT
__real@40c00000 DD 040c00000r			; 6
CONST	ENDS
;	COMDAT __real@40a00000
CONST	SEGMENT
__real@40a00000 DD 040a00000r			; 5
CONST	ENDS
;	COMDAT __real@409f400000000000
CONST	SEGMENT
__real@409f400000000000 DQ 0409f400000000000r	; 2000
CONST	ENDS
;	COMDAT __real@4099000000000000
CONST	SEGMENT
__real@4099000000000000 DQ 04099000000000000r	; 1600
CONST	ENDS
;	COMDAT __real@4091300000000000
CONST	SEGMENT
__real@4091300000000000 DQ 04091300000000000r	; 1100
CONST	ENDS
;	COMDAT __real@408f400000000000
CONST	SEGMENT
__real@408f400000000000 DQ 0408f400000000000r	; 1000
CONST	ENDS
;	COMDAT __real@4087700000000000
CONST	SEGMENT
__real@4087700000000000 DQ 04087700000000000r	; 750
CONST	ENDS
;	COMDAT __real@4082c00000000000
CONST	SEGMENT
__real@4082c00000000000 DQ 04082c00000000000r	; 600
CONST	ENDS
;	COMDAT __real@40800000
CONST	SEGMENT
__real@40800000 DD 040800000r			; 4
CONST	ENDS
;	COMDAT __real@407f400000000000
CONST	SEGMENT
__real@407f400000000000 DQ 0407f400000000000r	; 500
CONST	ENDS
;	COMDAT __real@407c200000000000
CONST	SEGMENT
__real@407c200000000000 DQ 0407c200000000000r	; 450
CONST	ENDS
;	COMDAT __real@4079000000000000
CONST	SEGMENT
__real@4079000000000000 DQ 04079000000000000r	; 400
CONST	ENDS
;	COMDAT __real@40784ffbe76c8b44
CONST	SEGMENT
__real@40784ffbe76c8b44 DQ 040784ffbe76c8b44r	; 388.999
CONST	ENDS
;	COMDAT __real@4078000000000000
CONST	SEGMENT
__real@4078000000000000 DQ 04078000000000000r	; 384
CONST	ENDS
;	COMDAT __real@4075e00000000000
CONST	SEGMENT
__real@4075e00000000000 DQ 04075e00000000000r	; 350
CONST	ENDS
;	COMDAT __real@4072c00007080003
CONST	SEGMENT
__real@4072c00007080003 DQ 04072c00007080003r	; 300
CONST	ENDS
;	COMDAT __real@4072c00000000000
CONST	SEGMENT
__real@4072c00000000000 DQ 04072c00000000000r	; 300
CONST	ENDS
;	COMDAT __real@406e1ff7ced91687
CONST	SEGMENT
__real@406e1ff7ced91687 DQ 0406e1ff7ced91687r	; 240.999
CONST	ENDS
;	COMDAT __real@406dc00000000000
CONST	SEGMENT
__real@406dc00000000000 DQ 0406dc00000000000r	; 238
CONST	ENDS
;	COMDAT __real@4067bff7ced91687
CONST	SEGMENT
__real@4067bff7ced91687 DQ 04067bff7ced91687r	; 189.999
CONST	ENDS
;	COMDAT __real@4067600000000000
CONST	SEGMENT
__real@4067600000000000 DQ 04067600000000000r	; 187
CONST	ENDS
;	COMDAT __real@4066e00000000000
CONST	SEGMENT
__real@4066e00000000000 DQ 04066e00000000000r	; 183
CONST	ENDS
;	COMDAT __real@40666666
CONST	SEGMENT
__real@40666666 DD 040666666r			; 3.6
CONST	ENDS
;	COMDAT __real@4066600000000000
CONST	SEGMENT
__real@4066600000000000 DQ 04066600000000000r	; 179
CONST	ENDS
;	COMDAT __real@405e000000000000
CONST	SEGMENT
__real@405e000000000000 DQ 0405e000000000000r	; 120
CONST	ENDS
;	COMDAT __real@405b800000000000
CONST	SEGMENT
__real@405b800000000000 DQ 0405b800000000000r	; 110
CONST	ENDS
;	COMDAT __real@4059000000000000
CONST	SEGMENT
__real@4059000000000000 DQ 04059000000000000r	; 100
CONST	ENDS
;	COMDAT __real@404e000000000000
CONST	SEGMENT
__real@404e000000000000 DQ 0404e000000000000r	; 60
CONST	ENDS
;	COMDAT __real@4049000000000000
CONST	SEGMENT
__real@4049000000000000 DQ 04049000000000000r	; 50
CONST	ENDS
;	COMDAT __real@4044000000000000
CONST	SEGMENT
__real@4044000000000000 DQ 04044000000000000r	; 40
CONST	ENDS
;	COMDAT __real@4034000000000000
CONST	SEGMENT
__real@4034000000000000 DQ 04034000000000000r	; 20
CONST	ENDS
;	COMDAT __real@4028000000000000
CONST	SEGMENT
__real@4028000000000000 DQ 04028000000000000r	; 12
CONST	ENDS
;	COMDAT __real@4024000000000000
CONST	SEGMENT
__real@4024000000000000 DQ 04024000000000000r	; 10
CONST	ENDS
;	COMDAT __real@401921fb51000000
CONST	SEGMENT
__real@401921fb51000000 DQ 0401921fb51000000r	; 6.28319
CONST	ENDS
;	COMDAT __real@4018000000000000
CONST	SEGMENT
__real@4018000000000000 DQ 04018000000000000r	; 6
CONST	ENDS
;	COMDAT __real@4014000000000000
CONST	SEGMENT
__real@4014000000000000 DQ 04014000000000000r	; 5
CONST	ENDS
;	COMDAT __real@4012000000000000
CONST	SEGMENT
__real@4012000000000000 DQ 04012000000000000r	; 4.5
CONST	ENDS
;	COMDAT __real@4010000000000000
CONST	SEGMENT
__real@4010000000000000 DQ 04010000000000000r	; 4
CONST	ENDS
;	COMDAT __real@400999999999999a
CONST	SEGMENT
__real@400999999999999a DQ 0400999999999999ar	; 3.2
CONST	ENDS
;	COMDAT __real@400921fb51000000
CONST	SEGMENT
__real@400921fb51000000 DQ 0400921fb51000000r	; 3.14159
CONST	ENDS
;	COMDAT __real@4000000000000000
CONST	SEGMENT
__real@4000000000000000 DQ 04000000000000000r	; 2
CONST	ENDS
;	COMDAT __real@3ffb333333333333
CONST	SEGMENT
__real@3ffb333333333333 DQ 03ffb333333333333r	; 1.7
CONST	ENDS
;	COMDAT __real@3ff0000000000000
CONST	SEGMENT
__real@3ff0000000000000 DQ 03ff0000000000000r	; 1
CONST	ENDS
;	COMDAT __real@3fecb91f38000000
CONST	SEGMENT
__real@3fecb91f38000000 DQ 03fecb91f38000000r	; 0.897598
CONST	ENDS
;	COMDAT __real@3fe7333333333333
CONST	SEGMENT
__real@3fe7333333333333 DQ 03fe7333333333333r	; 0.725
CONST	ENDS
;	COMDAT __real@3fe38c353f000000
CONST	SEGMENT
__real@3fe38c353f000000 DQ 03fe38c353f000000r	; 0.610865
CONST	ENDS
;	COMDAT __real@3fe0c15236000000
CONST	SEGMENT
__real@3fe0c15236000000 DQ 03fe0c15236000000r	; 0.523599
CONST	ENDS
;	COMDAT __real@3fe0000000000000
CONST	SEGMENT
__real@3fe0000000000000 DQ 03fe0000000000000r	; 0.5
CONST	ENDS
;	COMDAT __real@3fd47ae147ae147b
CONST	SEGMENT
__real@3fd47ae147ae147b DQ 03fd47ae147ae147br	; 0.32
CONST	ENDS
;	COMDAT __real@3fd353f7ced91687
CONST	SEGMENT
__real@3fd353f7ced91687 DQ 03fd353f7ced91687r	; 0.302
CONST	ENDS
;	COMDAT __real@3fbc28f5c28f5c29
CONST	SEGMENT
__real@3fbc28f5c28f5c29 DQ 03fbc28f5c28f5c29r	; 0.11
CONST	ENDS
;	COMDAT __real@3fb999999999999a
CONST	SEGMENT
__real@3fb999999999999a DQ 03fb999999999999ar	; 0.1
CONST	ENDS
;	COMDAT __real@3fb6571848000000
CONST	SEGMENT
__real@3fb6571848000000 DQ 03fb6571848000000r	; 0.0872665
CONST	ENDS
;	COMDAT __real@3faacee9f0000000
CONST	SEGMENT
__real@3faacee9f0000000 DQ 03faacee9f0000000r	; 0.0523599
CONST	ENDS
;	COMDAT __real@3fa999999999999a
CONST	SEGMENT
__real@3fa999999999999a DQ 03fa999999999999ar	; 0.05
CONST	ENDS
;	COMDAT __real@3fa41b2f74000000
CONST	SEGMENT
__real@3fa41b2f74000000 DQ 03fa41b2f74000000r	; 0.0392699
CONST	ENDS
;	COMDAT __real@3f91df46a0000000
CONST	SEGMENT
__real@3f91df46a0000000 DQ 03f91df46a0000000r	; 0.0174533
CONST	ENDS
;	COMDAT __real@3f857254c0000000
CONST	SEGMENT
__real@3f857254c0000000 DQ 03f857254c0000000r	; 0.010472
CONST	ENDS
;	COMDAT __real@3f8015bf90000000
CONST	SEGMENT
__real@3f8015bf90000000 DQ 03f8015bf90000000r	; 0.00785398
CONST	ENDS
;	COMDAT __real@3f800000
CONST	SEGMENT
__real@3f800000 DD 03f800000r			; 1
CONST	ENDS
;	COMDAT __real@3f7d70a4
CONST	SEGMENT
__real@3f7d70a4 DD 03f7d70a4r			; 0.99
CONST	ENDS
;	COMDAT __real@3f79bc65b3333333
CONST	SEGMENT
__real@3f79bc65b3333333 DQ 03f79bc65b3333333r	; 0.00628319
CONST	ENDS
;	COMDAT __real@3f50624dd2f1a9fc
CONST	SEGMENT
__real@3f50624dd2f1a9fc DQ 03f50624dd2f1a9fcr	; 0.001
CONST	ENDS
;	COMDAT __real@3f4496b7c28f5c29
CONST	SEGMENT
__real@3f4496b7c28f5c29 DQ 03f4496b7c28f5c29r	; 0.000628319
CONST	ENDS
;	COMDAT __real@3dcccccd
CONST	SEGMENT
__real@3dcccccd DD 03dcccccdr			; 0.1
CONST	ENDS
;	COMDAT __real@3db851ec
CONST	SEGMENT
__real@3db851ec DD 03db851ecr			; 0.09
CONST	ENDS
;	COMDAT __real@3c23d70a
CONST	SEGMENT
__real@3c23d70a DD 03c23d70ar			; 0.01
CONST	ENDS
;	COMDAT __real@0000000000000000
CONST	SEGMENT
__real@0000000000000000 DQ 00000000000000000r	; 0
CONST	ENDS
;	COMDAT ?__LINE__Var@?0??draw_havoc_virtual_cockpit_instruments_on_texture@@YGXXZ@4JA
_DATA	SEGMENT
?__LINE__Var@?0??draw_havoc_virtual_cockpit_instruments_on_texture@@YGXXZ@4JA DD 08c5H ; `draw_havoc_virtual_cockpit_instruments_on_texture'::`1'::__LINE__Var
_DATA	ENDS
;	COMDAT ?__LINE__Var@?0??get_havoc_virtual_cockpit_hsi_needle_values@@YGXPAM00@Z@4JA
_DATA	SEGMENT
?__LINE__Var@?0??get_havoc_virtual_cockpit_hsi_needle_values@@YGXPAM00@Z@4JA DD 0874H ; `get_havoc_virtual_cockpit_hsi_needle_values'::`1'::__LINE__Var
_DATA	ENDS
;	COMDAT ?__LINE__Var@?0??draw_havoc_fixed_cockpit_hsi_waypoint_identifier@@YGXW4COCKPIT_PANELS@@@Z@4JA
_DATA	SEGMENT
?__LINE__Var@?0??draw_havoc_fixed_cockpit_hsi_waypoint_identifier@@YGXW4COCKPIT_PANELS@@@Z@4JA DD 0814H ; `draw_havoc_fixed_cockpit_hsi_waypoint_identifier'::`1'::__LINE__Var
_DATA	ENDS
;	COMDAT ?__LINE__Var@?0??draw_havoc_fixed_cockpit_hsi_waypoint_distance_digits@@YGXW4COCKPIT_PANELS@@@Z@4JA
_DATA	SEGMENT
?__LINE__Var@?0??draw_havoc_fixed_cockpit_hsi_waypoint_distance_digits@@YGXW4COCKPIT_PANELS@@@Z@4JA DD 0731H ; `draw_havoc_fixed_cockpit_hsi_waypoint_distance_digits'::`1'::__LINE__Var
_DATA	ENDS
;	COMDAT ?__LINE__Var@?0??draw_havoc_clock@@YGXW4COCKPIT_PANELS@@@Z@4JA
_DATA	SEGMENT
?__LINE__Var@?0??draw_havoc_clock@@YGXW4COCKPIT_PANELS@@@Z@4JA DD 05ceH ; `draw_havoc_clock'::`1'::__LINE__Var
_DATA	ENDS
;	COMDAT ??_C@_05BPGNBDFG@drift@
CONST	SEGMENT
??_C@_05BPGNBDFG@drift@ DB 'drift', 00H			; `string'
CONST	ENDS
;	COMDAT ??_C@_0M@GOBOJDMO@flight_path@
CONST	SEGMENT
??_C@_0M@GOBOJDMO@flight_path@ DB 'flight_path', 00H	; `string'
CONST	ENDS
;	COMDAT ??_C@_0BB@PFAKKLCO@direction_finder@
CONST	SEGMENT
??_C@_0BB@PFAKKLCO@direction_finder@ DB 'direction_finder', 00H ; `string'
CONST	ENDS
;	COMDAT ?__LINE__Var@?0??get_hsi_needle_values@@YGXPAM00@Z@4JA
_DATA	SEGMENT
?__LINE__Var@?0??get_hsi_needle_values@@YGXPAM00@Z@4JA DD 0137H ; `get_hsi_needle_values'::`1'::__LINE__Var
_DATA	ENDS
;	COMDAT ??_C@_0EP@MNOBCBEH@c?3?2users?2nhv90?2projects?2eech?2ap@
CONST	SEGMENT
??_C@_0EP@MNOBCBEH@c?3?2users?2nhv90?2projects?2eech?2ap@ DB 'c:\users\nh'
	DB	'v90\projects\eech\aphavoc\source\gunships\cockpits\havoc\ha_i'
	DB	'nstr.c', 00H				; `string'
CONST	ENDS
_DATA	SEGMENT
?instrument_error@@3PBDB DD FLAT:??_C@_0CA@JPJNIOCL@Cannot?5draw?5instrument?5on?5panel@ ; instrument_error
?textures@@3PAY02HA DD 06d0H				; textures
	DD	06f4H
	DD	0708H
	DD	06d5H
	DD	06f9H
	DD	070dH
	DD	06d1H
	DD	06f5H
	DD	0709H
	DD	06d6H
	DD	06faH
	DD	070eH
	DD	06cfH
	DD	06f3H
	DD	0707H
?airspeed_indicator_airspeed_needle_scale_down_20_ahead@@3PAUSCALE_DATA@@A DW 081H ; airspeed_indicator_airspeed_needle_scale_down_20_ahead
	DW	0152H
	DD	0c2480000r			; -50
	DW	081H
	DW	0151H
	DD	0c231c71cr			; -44.4444
	DW	081H
	DW	0150H
	DD	0c21b8e39r			; -38.8889
	DW	080H
	DW	014fH
	DD	0c2055555r			; -33.3333
	DW	080H
	DW	014eH
	DD	0c1de38e4r			; -27.7778
	DW	080H
	DW	014dH
	DD	0c1b1c71cr			; -22.2222
	DW	080H
	DW	014cH
	DD	0c1855555r			; -16.6667
	DW	07fH
	DW	014bH
	DD	0c131c71cr			; -11.1111
	DW	07fH
	DW	014aH
	DD	0c0b1c71cr			; -5.55556
	DW	07fH
	DW	0149H
	DD	000000000r			; 0
	DW	07fH
	DW	0148H
	DD	040b1c71cr			; 5.55556
	DW	07fH
	DW	0147H
	DD	04131c71cr			; 11.1111
	DW	080H
	DW	0146H
	DD	041855555r			; 16.6667
	DW	080H
	DW	0145H
	DD	041b1c71cr			; 22.2222
	DW	080H
	DW	0144H
	DD	041de38e4r			; 27.7778
	DW	080H
	DW	0143H
	DD	042055555r			; 33.3333
	DW	080H
	DW	0142H
	DD	0421b8e39r			; 38.8889
	DW	081H
	DW	0141H
	DD	04231c71cr			; 44.4444
	DW	081H
	DW	0140H
	DD	042480000r			; 50
	DW	082H
	DW	013fH
	DD	042649249r			; 57.1429
	DW	082H
	DW	013eH
	DD	042809249r			; 64.2857
	DW	083H
	DW	013dH
	DD	0428edb6er			; 71.4286
	DW	083H
	DW	013cH
	DD	0429d2492r			; 78.5714
	DW	084H
	DW	013bH
	DD	042ab6db7r			; 85.7143
	DW	085H
	DW	013aH
	DD	042b9b6dbr			; 92.8571
	DW	086H
	DW	0139H
	DD	042c80000r			; 100
	DW	087H
	DW	0138H
	DD	042d48000r			; 106.25
	DW	088H
	DW	0137H
	DD	042e10000r			; 112.5
	DW	089H
	DW	0136H
	DD	042ed8000r			; 118.75
	DW	08aH
	DW	0136H
	DD	042fa0000r			; 125
	DW	08bH
	DW	0135H
	DD	043034000r			; 131.25
	DW	08cH
	DW	0135H
	DD	043098000r			; 137.5
	DW	08dH
	DW	0134H
	DD	0430fc000r			; 143.75
	DW	08eH
	DW	0134H
	DD	043160000r			; 150
	DW	08fH
	DW	0134H
	DD	0431c4000r			; 156.25
	DW	090H
	DW	0133H
	DD	043228000r			; 162.5
	DW	091H
	DW	0133H
	DD	04328c000r			; 168.75
	DW	092H
	DW	0133H
	DD	0432f0000r			; 175
	DW	093H
	DW	0133H
	DD	043354000r			; 181.25
	DW	094H
	DW	0133H
	DD	0433b8000r			; 187.5
	DW	095H
	DW	0133H
	DD	04341c000r			; 193.75
	DW	096H
	DW	0133H
	DD	043480000r			; 200
	DW	097H
	DW	0133H
	DD	0434eaaabr			; 206.667
	DW	098H
	DW	0133H
	DD	043555555r			; 213.333
	DW	099H
	DW	0133H
	DD	0435c0000r			; 220
	DW	09aH
	DW	0133H
	DD	04362aaabr			; 226.667
	DW	09bH
	DW	0133H
	DD	043695555r			; 233.333
	DW	09cH
	DW	0134H
	DD	043700000r			; 240
	DW	09dH
	DW	0134H
	DD	04376aaabr			; 246.667
	DW	09eH
	DW	0134H
	DD	0437d5555r			; 253.333
	DW	09fH
	DW	0135H
	DD	043820000r			; 260
	DW	0a0H
	DW	0135H
	DD	043855555r			; 266.667
	DW	0a1H
	DW	0136H
	DD	04388aaabr			; 273.333
	DW	0a2H
	DW	0136H
	DD	0438c0000r			; 280
	DW	0a3H
	DW	0137H
	DD	0438f5555r			; 286.667
	DW	0a4H
	DW	0138H
	DD	04392aaabr			; 293.333
	DW	0a5H
	DW	0139H
	DD	043960000r			; 300
	DW	0a6H
	DW	013aH
	DD	043992000r			; 306.25
	DW	0a7H
	DW	013bH
	DD	0439c4000r			; 312.5
	DW	0a8H
	DW	013cH
	DD	0439f6000r			; 318.75
	DW	0a9H
	DW	013dH
	DD	043a28000r			; 325
	DW	0a9H
	DW	013eH
	DD	043a5a000r			; 331.25
	DW	0aaH
	DW	013fH
	DD	043a8c000r			; 337.5
	DW	0aaH
	DW	0140H
	DD	043abe000r			; 343.75
	DW	0aaH
	DW	0141H
	DD	043af0000r			; 350
	DW	0abH
	DW	0142H
	DD	043b22000r			; 356.25
	DW	0abH
	DW	0143H
	DD	043b54000r			; 362.5
	DW	0abH
	DW	0144H
	DD	043b86000r			; 368.75
	DW	0acH
	DW	0145H
	DD	043bb8000r			; 375
	DW	0acH
	DW	0146H
	DD	043bea000r			; 381.25
	DW	0acH
	DW	0147H
	DD	043c1c000r			; 387.5
	DW	0acH
	DW	0148H
	DD	043c4e000r			; 393.75
	DW	0acH
	DW	0149H
	DD	043c80000r			; 400
	DW	0acH
	DW	014aH
	DD	043cb2000r			; 406.25
	DW	0acH
	DW	014bH
	DD	043ce4000r			; 412.5
	DW	0acH
	DW	014cH
	DD	043d16000r			; 418.75
	DW	0acH
	DW	014dH
	DD	043d48000r			; 425
	DW	0abH
	DW	014eH
	DD	043d7a000r			; 431.25
	DW	0abH
	DW	014fH
	DD	043dac000r			; 437.5
	DW	0abH
	DW	0150H
	DD	043dde000r			; 443.75
	DW	0aaH
	DW	0151H
	DD	043e10000r			; 450
	DW	00H
	DW	00H
	DD	07f7fffffr			; 3.40282e+38
?airspeed_indicator_slip_needle_scale_down_20_ahead@@3PAUSCALE_DATA@@A DW 086H ; airspeed_indicator_slip_needle_scale_down_20_ahead
	DW	0159H
	DD	0c2c80000r			; -100
	DW	087H
	DW	015aH
	DD	0c2b9b6dbr			; -92.8571
	DW	088H
	DW	015bH
	DD	0c2ab6db7r			; -85.7143
	DW	089H
	DW	015bH
	DD	0c29d2492r			; -78.5714
	DW	08aH
	DW	015cH
	DD	0c28edb6er			; -71.4286
	DW	08bH
	DW	015cH
	DD	0c2809249r			; -64.2857
	DW	08cH
	DW	015dH
	DD	0c2649249r			; -57.1429
	DW	08dH
	DW	015dH
	DD	0c2480000r			; -50
	DW	08eH
	DW	015eH
	DD	0c231c71cr			; -44.4444
	DW	08fH
	DW	015eH
	DD	0c21b8e39r			; -38.8889
	DW	090H
	DW	015eH
	DD	0c2055555r			; -33.3333
	DW	091H
	DW	015fH
	DD	0c1de38e4r			; -27.7778
	DW	092H
	DW	015fH
	DD	0c1b1c71cr			; -22.2222
	DW	093H
	DW	015fH
	DD	0c1855555r			; -16.6667
	DW	094H
	DW	015fH
	DD	0c131c71cr			; -11.1111
	DW	095H
	DW	015fH
	DD	0c0b1c71cr			; -5.55556
	DW	096H
	DW	015fH
	DD	000000000r			; 0
	DW	097H
	DW	015fH
	DD	040c80000r			; 6.25
	DW	098H
	DW	015fH
	DD	041480000r			; 12.5
	DW	099H
	DW	015fH
	DD	041960000r			; 18.75
	DW	09aH
	DW	015fH
	DD	041c80000r			; 25
	DW	09bH
	DW	015eH
	DD	041fa0000r			; 31.25
	DW	09cH
	DW	015eH
	DD	042160000r			; 37.5
	DW	09dH
	DW	015eH
	DD	0422f0000r			; 43.75
	DW	09eH
	DW	015eH
	DD	042480000r			; 50
	DW	09fH
	DW	015dH
	DD	042649249r			; 57.1429
	DW	0a0H
	DW	015dH
	DD	042809249r			; 64.2857
	DW	0a1H
	DW	015cH
	DD	0428edb6er			; 71.4286
	DW	0a2H
	DW	015bH
	DD	0429d2492r			; 78.5714
	DW	0a3H
	DW	015aH
	DD	042ab6db7r			; 85.7143
	DW	0a4H
	DW	0159H
	DD	042b9b6dbr			; 92.8571
	DW	0a5H
	DW	0158H
	DD	042c80000r			; 100
	DW	00H
	DW	00H
	DD	07f7fffffr			; 3.40282e+38
?airspeed_indicator_airspeed_needle_scale_down_20_left_30@@3PAUSCALE_DATA@@A DW 018bH ; airspeed_indicator_airspeed_needle_scale_down_20_left_30
	DW	0143H
	DD	0c2480000r			; -50
	DW	018bH
	DW	0142H
	DD	0c22f0000r			; -43.75
	DW	018bH
	DW	0141H
	DD	0c2160000r			; -37.5
	DW	018bH
	DW	0140H
	DD	0c1fa0000r			; -31.25
	DW	018bH
	DW	013fH
	DD	0c1c80000r			; -25
	DW	018bH
	DW	013eH
	DD	0c1960000r			; -18.75
	DW	018bH
	DW	013dH
	DD	0c1480000r			; -12.5
	DW	018bH
	DW	013cH
	DD	0c0c80000r			; -6.25
	DW	018bH
	DW	013bH
	DD	000000000r			; 0
	DW	018bH
	DW	013aH
	DD	040c80000r			; 6.25
	DW	018bH
	DW	0139H
	DD	041480000r			; 12.5
	DW	018cH
	DW	0138H
	DD	041960000r			; 18.75
	DW	018cH
	DW	0137H
	DD	041c80000r			; 25
	DW	018cH
	DW	0136H
	DD	041fa0000r			; 31.25
	DW	018dH
	DW	0135H
	DD	042160000r			; 37.5
	DW	018dH
	DW	0134H
	DD	0422f0000r			; 43.75
	DW	018eH
	DW	0133H
	DD	042480000r			; 50
	DW	018eH
	DW	0132H
	DD	042649249r			; 57.1429
	DW	018fH
	DW	0131H
	DD	042809249r			; 64.2857
	DW	0190H
	DW	0130H
	DD	0428edb6er			; 71.4286
	DW	0191H
	DW	012fH
	DD	0429d2492r			; 78.5714
	DW	0192H
	DW	012eH
	DD	042ab6db7r			; 85.7143
	DW	0193H
	DW	012eH
	DD	042b9b6dbr			; 92.8571
	DW	0194H
	DW	012dH
	DD	042c80000r			; 100
	DW	0195H
	DW	012cH
	DD	042d55555r			; 106.667
	DW	0196H
	DW	012cH
	DD	042e2aaabr			; 113.333
	DW	0197H
	DW	012bH
	DD	042f00000r			; 120
	DW	0198H
	DW	012bH
	DD	042fd5555r			; 126.667
	DW	0199H
	DW	012bH
	DD	043055555r			; 133.333
	DW	019aH
	DW	012bH
	DD	0430c0000r			; 140
	DW	019bH
	DW	012aH
	DD	04312aaabr			; 146.667
	DW	019cH
	DW	012aH
	DD	043195555r			; 153.333
	DW	019dH
	DW	012aH
	DD	043200000r			; 160
	DW	019eH
	DW	012aH
	DD	04326aaabr			; 166.667
	DW	019fH
	DW	012aH
	DD	0432d5555r			; 173.333
	DW	01a0H
	DW	012aH
	DD	043340000r			; 180
	DW	01a1H
	DW	012aH
	DD	0433aaaabr			; 186.667
	DW	01a2H
	DW	012aH
	DD	043415555r			; 193.333
	DW	01a3H
	DW	012bH
	DD	043480000r			; 200
	DW	01a4H
	DW	012bH
	DD	0434f2492r			; 207.143
	DW	01a5H
	DW	012bH
	DD	043564925r			; 214.286
	DW	01a6H
	DW	012cH
	DD	0435d6db7r			; 221.429
	DW	01a7H
	DW	012cH
	DD	043649249r			; 228.571
	DW	01a8H
	DW	012dH
	DD	0436bb6dbr			; 235.714
	DW	01a9H
	DW	012dH
	DD	04372db6er			; 242.857
	DW	01aaH
	DW	012eH
	DD	0437a0000r			; 250
	DW	01abH
	DW	012eH
	DD	043809249r			; 257.143
	DW	01acH
	DW	012fH
	DD	043842492r			; 264.286
	DW	01adH
	DW	0130H
	DD	04387b6dbr			; 271.429
	DW	01aeH
	DW	0131H
	DD	0438b4925r			; 278.571
	DW	01afH
	DW	0132H
	DD	0438edb6er			; 285.714
	DW	01afH
	DW	0133H
	DD	043926db7r			; 292.857
	DW	01b0H
	DW	0134H
	DD	043960000r			; 300
	DW	01b1H
	DW	0135H
	DD	04398f0f1r			; 305.882
	DW	01b1H
	DW	0136H
	DD	0439be1e2r			; 311.765
	DW	01b2H
	DW	0137H
	DD	0439ed2d3r			; 317.647
	DW	01b2H
	DW	0138H
	DD	043a1c3c4r			; 323.529
	DW	01b3H
	DW	0139H
	DD	043a4b4b5r			; 329.412
	DW	01b3H
	DW	013aH
	DD	043a7a5a6r			; 335.294
	DW	01b3H
	DW	013bH
	DD	043aa9697r			; 341.176
	DW	01b4H
	DW	013cH
	DD	043ad8788r			; 347.059
	DW	01b4H
	DW	013dH
	DD	043b07878r			; 352.941
	DW	01b4H
	DW	013eH
	DD	043b36969r			; 358.824
	DW	01b4H
	DW	013fH
	DD	043b65a5ar			; 364.706
	DW	01b4H
	DW	0140H
	DD	043b94b4br			; 370.588
	DW	01b4H
	DW	0141H
	DD	043bc3c3cr			; 376.471
	DW	01b4H
	DW	0142H
	DD	043bf2d2dr			; 382.353
	DW	01b4H
	DW	0143H
	DD	043c21e1er			; 388.235
	DW	01b4H
	DW	0144H
	DD	043c50f0fr			; 394.118
	DW	01b4H
	DW	0145H
	DD	043c80000r			; 400
	DW	01b3H
	DW	0146H
	DD	043cb2000r			; 406.25
	DW	01b3H
	DW	0147H
	DD	043ce4000r			; 412.5
	DW	01b3H
	DW	0148H
	DD	043d16000r			; 418.75
	DW	01b3H
	DW	0149H
	DD	043d48000r			; 425
	DW	01b2H
	DW	014aH
	DD	043d7a000r			; 431.25
	DW	01b2H
	DW	014bH
	DD	043dac000r			; 437.5
	DW	01b1H
	DW	014cH
	DD	043dde000r			; 443.75
	DW	01b1H
	DW	014dH
	DD	043e10000r			; 450
	DW	00H
	DW	00H
	DD	07f7fffffr			; 3.40282e+38
?airspeed_indicator_slip_needle_scale_down_20_left_30@@3PAUSCALE_DATA@@A DW 018eH ; airspeed_indicator_slip_needle_scale_down_20_left_30
	DW	014bH
	DD	0c2c80000r			; -100
	DW	018fH
	DW	014cH
	DD	0c2b75555r			; -91.6667
	DW	018fH
	DW	014dH
	DD	0c2a6aaabr			; -83.3333
	DW	0190H
	DW	014eH
	DD	0c2960000r			; -75
	DW	0191H
	DW	014fH
	DD	0c2855555r			; -66.6667
	DW	0192H
	DW	0150H
	DD	0c2695555r			; -58.3333
	DW	0193H
	DW	0151H
	DD	0c2480000r			; -50
	DW	0194H
	DW	0151H
	DD	0c231c71cr			; -44.4444
	DW	0195H
	DW	0152H
	DD	0c21b8e39r			; -38.8889
	DW	0196H
	DW	0153H
	DD	0c2055555r			; -33.3333
	DW	0197H
	DW	0153H
	DD	0c1de38e4r			; -27.7778
	DW	0198H
	DW	0154H
	DD	0c1b1c71cr			; -22.2222
	DW	0199H
	DW	0154H
	DD	0c1855555r			; -16.6667
	DW	019aH
	DW	0154H
	DD	0c131c71cr			; -11.1111
	DW	019bH
	DW	0154H
	DD	0c0b1c71cr			; -5.55556
	DW	019cH
	DW	0155H
	DD	000000000r			; 0
	DW	019dH
	DW	0155H
	DD	040e49249r			; 7.14286
	DW	019eH
	DW	0155H
	DD	041649249r			; 14.2857
	DW	019fH
	DW	0155H
	DD	041ab6db7r			; 21.4286
	DW	01a0H
	DW	0155H
	DD	041e49249r			; 28.5714
	DW	01a1H
	DW	0155H
	DD	0420edb6er			; 35.7143
	DW	01a2H
	DW	0155H
	DD	0422b6db7r			; 42.8571
	DW	01a3H
	DW	0155H
	DD	042480000r			; 50
	DW	01a4H
	DW	0155H
	DD	042610000r			; 56.25
	DW	01a5H
	DW	0155H
	DD	0427a0000r			; 62.5
	DW	01a6H
	DW	0155H
	DD	042898000r			; 68.75
	DW	01a7H
	DW	0154H
	DD	042960000r			; 75
	DW	01a8H
	DW	0154H
	DD	042a28000r			; 81.25
	DW	01a9H
	DW	0154H
	DD	042af0000r			; 87.5
	DW	01aaH
	DW	0153H
	DD	042bb8000r			; 93.75
	DW	01abH
	DW	0153H
	DD	042c80000r			; 100
	DW	00H
	DW	00H
	DD	07f7fffffr			; 3.40282e+38
?barometric_altimeter_large_needle_scale_down_20_ahead@@3PAUSCALE_DATA@@A DW 04bH ; barometric_altimeter_large_needle_scale_down_20_ahead
	DW	0174H
	DD	000000000r			; 0
	DW	04cH
	DW	0174H
	DD	040f62762r			; 7.69231
	DW	04dH
	DW	0174H
	DD	041762762r			; 15.3846
	DW	04eH
	DW	0174H
	DD	041b89d8ar			; 23.0769
	DW	04fH
	DW	0174H
	DD	041f62762r			; 30.7692
	DW	050H
	DW	0174H
	DD	04219d89er			; 38.4615
	DW	051H
	DW	0175H
	DD	042389d8ar			; 46.1538
	DW	052H
	DW	0175H
	DD	042576276r			; 53.8462
	DW	053H
	DW	0175H
	DD	042762762r			; 61.5385
	DW	054H
	DW	0176H
	DD	0428a7627r			; 69.2308
	DW	055H
	DW	0176H
	DD	04299d89er			; 76.9231
	DW	056H
	DW	0177H
	DD	042a93b14r			; 84.6154
	DW	057H
	DW	0177H
	DD	042b89d8ar			; 92.3077
	DW	058H
	DW	0178H
	DD	042c80000r			; 100
	DW	059H
	DW	0179H
	DD	042da2e8cr			; 109.091
	DW	05aH
	DW	017aH
	DD	042ec5d17r			; 118.182
	DW	05bH
	DW	017bH
	DD	042fe8ba3r			; 127.273
	DW	05cH
	DW	017cH
	DD	043085d17r			; 136.364
	DW	05dH
	DW	017dH
	DD	04311745dr			; 145.455
	DW	05dH
	DW	017eH
	DD	0431a8ba3r			; 154.545
	DW	05eH
	DW	017fH
	DD	04323a2e9r			; 163.636
	DW	05fH
	DW	0180H
	DD	0432cba2fr			; 172.727
	DW	05fH
	DW	0181H
	DD	04335d174r			; 181.818
	DW	05fH
	DW	0182H
	DD	0433ee8bar			; 190.909
	DW	060H
	DW	0183H
	DD	043480000r			; 200
	DW	060H
	DW	0184H
	DD	0434f2492r			; 207.143
	DW	060H
	DW	0185H
	DD	043564925r			; 214.286
	DW	061H
	DW	0186H
	DD	0435d6db7r			; 221.429
	DW	061H
	DW	0187H
	DD	043649249r			; 228.571
	DW	061H
	DW	0188H
	DD	0436bb6dbr			; 235.714
	DW	061H
	DW	0189H
	DD	04372db6er			; 242.857
	DW	061H
	DW	018aH
	DD	0437a0000r			; 250
	DW	061H
	DW	018bH
	DD	043809249r			; 257.143
	DW	061H
	DW	018cH
	DD	043842492r			; 264.286
	DW	061H
	DW	018dH
	DD	04387b6dbr			; 271.429
	DW	061H
	DW	018eH
	DD	0438b4925r			; 278.571
	DW	060H
	DW	018fH
	DD	0438edb6er			; 285.714
	DW	060H
	DW	0190H
	DD	043926db7r			; 292.857
	DW	060H
	DW	0191H
	DD	043960000r			; 300
	DW	05fH
	DW	0192H
	DD	0439a8ba3r			; 309.091
	DW	05fH
	DW	0193H
	DD	0439f1746r			; 318.182
	DW	05fH
	DW	0194H
	DD	043a3a2e9r			; 327.273
	DW	05eH
	DW	0195H
	DD	043a82e8cr			; 336.364
	DW	05dH
	DW	0196H
	DD	043acba2fr			; 345.455
	DW	05dH
	DW	0197H
	DD	043b145d1r			; 354.545
	DW	05cH
	DW	0198H
	DD	043b5d174r			; 363.636
	DW	05bH
	DW	0199H
	DD	043ba5d17r			; 372.727
	DW	05aH
	DW	019aH
	DD	043bee8bar			; 381.818
	DW	059H
	DW	019bH
	DD	043c3745dr			; 390.909
	DW	058H
	DW	019cH
	DD	043c80000r			; 400
	DW	057H
	DW	019dH
	DD	043cbd89er			; 407.692
	DW	056H
	DW	019dH
	DD	043cfb13br			; 415.385
	DW	055H
	DW	019eH
	DD	043d389d9r			; 423.077
	DW	054H
	DW	019eH
	DD	043d76276r			; 430.769
	DW	053H
	DW	019fH
	DD	043db3b14r			; 438.462
	DW	052H
	DW	019fH
	DD	043df13b1r			; 446.154
	DW	051H
	DW	019fH
	DD	043e2ec4fr			; 453.846
	DW	050H
	DW	01a0H
	DD	043e6c4ecr			; 461.538
	DW	04fH
	DW	01a0H
	DD	043ea9d8ar			; 469.231
	DW	04eH
	DW	01a0H
	DD	043ee7627r			; 476.923
	DW	04dH
	DW	01a0H
	DD	043f24ec5r			; 484.615
	DW	04cH
	DW	01a0H
	DD	043f62762r			; 492.308
	DW	04bH
	DW	01a0H
	DD	043fa0000r			; 500
	DW	04aH
	DW	01a0H
	DD	043fd9249r			; 507.143
	DW	049H
	DW	01a0H
	DD	044009249r			; 514.286
	DW	048H
	DW	01a0H
	DD	044025b6er			; 521.429
	DW	047H
	DW	01a0H
	DD	044042492r			; 528.571
	DW	046H
	DW	01a0H
	DD	04405edb7r			; 535.714
	DW	045H
	DW	01a0H
	DD	04407b6dbr			; 542.857
	DW	044H
	DW	019fH
	DD	044098000r			; 550
	DW	043H
	DW	019fH
	DD	0440b4925r			; 557.143
	DW	042H
	DW	019fH
	DD	0440d1249r			; 564.286
	DW	041H
	DW	019eH
	DD	0440edb6er			; 571.429
	DW	040H
	DW	019eH
	DD	04410a492r			; 578.571
	DW	03fH
	DW	019dH
	DD	044126db7r			; 585.714
	DW	03eH
	DW	019cH
	DD	0441436dbr			; 592.857
	DW	03dH
	DW	019cH
	DD	044160000r			; 600
	DW	03cH
	DW	019bH
	DD	0441845d1r			; 609.091
	DW	03bH
	DW	019aH
	DD	0441a8ba3r			; 618.182
	DW	03aH
	DW	0199H
	DD	0441cd174r			; 627.273
	DW	039H
	DW	0198H
	DD	0441f1746r			; 636.364
	DW	038H
	DW	0197H
	DD	044215d17r			; 645.455
	DW	038H
	DW	0196H
	DD	04423a2e9r			; 654.545
	DW	037H
	DW	0195H
	DD	04425e8bar			; 663.636
	DW	037H
	DW	0194H
	DD	044282e8cr			; 672.727
	DW	036H
	DW	0193H
	DD	0442a745dr			; 681.818
	DW	036H
	DW	0192H
	DD	0442cba2fr			; 690.909
	DW	036H
	DW	0191H
	DD	0442f0000r			; 700
	DW	035H
	DW	0190H
	DD	04430c925r			; 707.143
	DW	035H
	DW	018fH
	DD	044329249r			; 714.286
	DW	035H
	DW	018eH
	DD	044345b6er			; 721.429
	DW	035H
	DW	018dH
	DD	044362492r			; 728.571
	DW	034H
	DW	018cH
	DD	04437edb7r			; 735.714
	DW	034H
	DW	018bH
	DD	04439b6dbr			; 742.857
	DW	034H
	DW	018aH
	DD	0443b8000r			; 750
	DW	034H
	DW	0189H
	DD	0443d4925r			; 757.143
	DW	034H
	DW	0188H
	DD	0443f1249r			; 764.286
	DW	035H
	DW	0187H
	DD	04440db6er			; 771.429
	DW	035H
	DW	0186H
	DD	04442a492r			; 778.571
	DW	035H
	DW	0185H
	DD	044446db7r			; 785.714
	DW	035H
	DW	0184H
	DD	0444636dbr			; 792.857
	DW	035H
	DW	0183H
	DD	044480000r			; 800
	DW	036H
	DW	0182H
	DD	0444a45d1r			; 809.091
	DW	036H
	DW	0181H
	DD	0444c8ba3r			; 818.182
	DW	037H
	DW	0180H
	DD	0444ed174r			; 827.273
	DW	037H
	DW	017fH
	DD	044511746r			; 836.364
	DW	038H
	DW	017eH
	DD	044535d17r			; 845.455
	DW	038H
	DW	017dH
	DD	04455a2e9r			; 854.545
	DW	039H
	DW	017cH
	DD	04457e8bar			; 863.636
	DW	03aH
	DW	017bH
	DD	0445a2e8cr			; 872.727
	DW	03bH
	DW	017aH
	DD	0445c745dr			; 881.818
	DW	03cH
	DW	0179H
	DD	0445eba2fr			; 890.909
	DW	03dH
	DW	0178H
	DD	044610000r			; 900
	DW	03eH
	DW	0178H
	DD	04462c925r			; 907.143
	DW	03fH
	DW	0177H
	DD	044649249r			; 914.286
	DW	040H
	DW	0176H
	DD	044665b6er			; 921.429
	DW	041H
	DW	0176H
	DD	044682492r			; 928.571
	DW	042H
	DW	0175H
	DD	04469edb7r			; 935.714
	DW	043H
	DW	0175H
	DD	0446bb6dbr			; 942.857
	DW	044H
	DW	0175H
	DD	0446d8000r			; 950
	DW	045H
	DW	0174H
	DD	0446f4925r			; 957.143
	DW	046H
	DW	0174H
	DD	044711249r			; 964.286
	DW	047H
	DW	0174H
	DD	04472db6er			; 971.429
	DW	048H
	DW	0174H
	DD	04474a492r			; 978.571
	DW	049H
	DW	0174H
	DD	044766db7r			; 985.714
	DW	04aH
	DW	0174H
	DD	0447836dbr			; 992.857
	DW	00H
	DW	00H
	DD	07f7fffffr			; 3.40282e+38
?barometric_altimeter_small_needle_scale_down_20_ahead@@3PAUSCALE_DATA@@A DW 04bH ; barometric_altimeter_small_needle_scale_down_20_ahead
	DW	017dH
	DD	000000000r			; 0
	DW	04cH
	DW	017dH
	DD	042fa0000r			; 125
	DW	04dH
	DW	017dH
	DD	0437a0000r			; 250
	DW	04eH
	DW	017dH
	DD	043bb8000r			; 375
	DW	04fH
	DW	017dH
	DD	043fa0000r			; 500
	DW	050H
	DW	017eH
	DD	0441c4000r			; 625
	DW	051H
	DW	017eH
	DD	0443b8000r			; 750
	DW	052H
	DW	017fH
	DD	0445ac000r			; 875
	DW	053H
	DW	017fH
	DD	0447a0000r			; 1000
	DW	054H
	DW	0180H
	DD	0448edb6er			; 1142.86
	DW	055H
	DW	0181H
	DD	044a0b6dbr			; 1285.71
	DW	056H
	DW	0182H
	DD	044b29249r			; 1428.57
	DW	056H
	DW	0183H
	DD	044c46db7r			; 1571.43
	DW	057H
	DW	0184H
	DD	044d64925r			; 1714.29
	DW	057H
	DW	0185H
	DD	044e82492r			; 1857.14
	DW	058H
	DW	0186H
	DD	044fa0000r			; 2000
	DW	059H
	DW	0187H
	DD	04504d000r			; 2125
	DW	059H
	DW	0188H
	DD	0450ca000r			; 2250
	DW	059H
	DW	0189H
	DD	045147000r			; 2375
	DW	059H
	DW	018aH
	DD	0451c4000r			; 2500
	DW	059H
	DW	018bH
	DD	045241000r			; 2625
	DW	059H
	DW	018cH
	DD	0452be000r			; 2750
	DW	059H
	DW	018dH
	DD	04533b000r			; 2875
	DW	058H
	DW	018eH
	DD	0453b8000r			; 3000
	DW	057H
	DW	018fH
	DD	045446db7r			; 3142.86
	DW	057H
	DW	0190H
	DD	0454d5b6er			; 3285.71
	DW	056H
	DW	0191H
	DD	045564925r			; 3428.57
	DW	056H
	DW	0192H
	DD	0455f36dbr			; 3571.43
	DW	055H
	DW	0193H
	DD	045682492r			; 3714.29
	DW	054H
	DW	0194H
	DD	045711249r			; 3857.14
	DW	053H
	DW	0195H
	DD	0457a0000r			; 4000
	DW	052H
	DW	0195H
	DD	04580e800r			; 4125
	DW	051H
	DW	0196H
	DD	04584d000r			; 4250
	DW	050H
	DW	0196H
	DD	04588b800r			; 4375
	DW	04fH
	DW	0197H
	DD	0458ca000r			; 4500
	DW	04eH
	DW	0197H
	DD	045908800r			; 4625
	DW	04dH
	DW	0197H
	DD	045947000r			; 4750
	DW	04cH
	DW	0197H
	DD	045985800r			; 4875
	DW	04bH
	DW	0197H
	DD	0459c4000r			; 5000
	DW	04aH
	DW	0197H
	DD	045a02800r			; 5125
	DW	049H
	DW	0197H
	DD	045a41000r			; 5250
	DW	048H
	DW	0197H
	DD	045a7f800r			; 5375
	DW	047H
	DW	0197H
	DD	045abe000r			; 5500
	DW	046H
	DW	0197H
	DD	045afc800r			; 5625
	DW	045H
	DW	0196H
	DD	045b3b000r			; 5750
	DW	044H
	DW	0196H
	DD	045b79800r			; 5875
	DW	043H
	DW	0195H
	DD	045bb8000r			; 6000
	DW	042H
	DW	0195H
	DD	045bf6800r			; 6125
	DW	041H
	DW	0194H
	DD	045c35000r			; 6250
	DW	040H
	DW	0193H
	DD	045c73800r			; 6375
	DW	040H
	DW	0192H
	DD	045cb2000r			; 6500
	DW	03fH
	DW	0191H
	DD	045cf0800r			; 6625
	DW	03eH
	DW	0190H
	DD	045d2f000r			; 6750
	DW	03eH
	DW	018fH
	DD	045d6d800r			; 6875
	DW	03eH
	DW	018eH
	DD	045dac000r			; 7000
	DW	03dH
	DW	018dH
	DD	045dea800r			; 7125
	DW	03dH
	DW	018cH
	DD	045e29000r			; 7250
	DW	03dH
	DW	018bH
	DD	045e67800r			; 7375
	DW	03dH
	DW	018aH
	DD	045ea6000r			; 7500
	DW	03dH
	DW	0189H
	DD	045ee4800r			; 7625
	DW	03dH
	DW	0188H
	DD	045f23000r			; 7750
	DW	03dH
	DW	0187H
	DD	045f61800r			; 7875
	DW	03eH
	DW	0186H
	DD	045fa0000r			; 8000
	DW	03eH
	DW	0185H
	DD	045fde800r			; 8125
	DW	03eH
	DW	0184H
	DD	04600e800r			; 8250
	DW	03fH
	DW	0183H
	DD	04602dc00r			; 8375
	DW	040H
	DW	0182H
	DD	04604d000r			; 8500
	DW	040H
	DW	0181H
	DD	04606c400r			; 8625
	DW	041H
	DW	0180H
	DD	04608b800r			; 8750
	DW	042H
	DW	017fH
	DD	0460aac00r			; 8875
	DW	043H
	DW	017fH
	DD	0460ca000r			; 9000
	DW	044H
	DW	017eH
	DD	0460e9400r			; 9125
	DW	045H
	DW	017eH
	DD	046108800r			; 9250
	DW	046H
	DW	017dH
	DD	046127c00r			; 9375
	DW	047H
	DW	017dH
	DD	046147000r			; 9500
	DW	048H
	DW	017dH
	DD	046166400r			; 9625
	DW	049H
	DW	017dH
	DD	046185800r			; 9750
	DW	04aH
	DW	017dH
	DD	0461a4c00r			; 9875
	DW	00H
	DW	00H
	DD	07f7fffffr			; 3.40282e+38
?barometric_altimeter_large_needle_scale_down_20_left_30@@3PAUSCALE_DATA@@A DW 0157H ; barometric_altimeter_large_needle_scale_down_20_left_30
	DW	0155H
	DD	000000000r			; 0
	DW	0158H
	DW	0156H
	DD	041200000r			; 10
	DW	0159H
	DW	0156H
	DD	041a00000r			; 20
	DW	015aH
	DW	0157H
	DD	041f00000r			; 30
	DW	015bH
	DW	0157H
	DD	042200000r			; 40
	DW	015cH
	DW	0158H
	DD	042480000r			; 50
	DW	015dH
	DW	0158H
	DD	042700000r			; 60
	DW	015eH
	DW	0159H
	DD	0428c0000r			; 70
	DW	015fH
	DW	015aH
	DD	042a00000r			; 80
	DW	0160H
	DW	015bH
	DD	042b40000r			; 90
	DW	0161H
	DW	015cH
	DD	042c80000r			; 100
	DW	0162H
	DW	015dH
	DD	042d8aaabr			; 108.333
	DW	0162H
	DW	015eH
	DD	042e95555r			; 116.667
	DW	0163H
	DW	015fH
	DD	042fa0000r			; 125
	DW	0164H
	DW	0160H
	DD	043055555r			; 133.333
	DW	0164H
	DW	0161H
	DD	0430daaabr			; 141.667
	DW	0165H
	DW	0162H
	DD	043160000r			; 150
	DW	0165H
	DW	0163H
	DD	0431e5555r			; 158.333
	DW	0165H
	DW	0164H
	DD	04326aaabr			; 166.667
	DW	0166H
	DW	0165H
	DD	0432f0000r			; 175
	DW	0166H
	DW	0166H
	DD	043375555r			; 183.333
	DW	0166H
	DW	0167H
	DD	0433faaabr			; 191.667
	DW	0166H
	DW	0168H
	DD	043480000r			; 200
	DW	0166H
	DW	0169H
	DD	0434fb13br			; 207.692
	DW	0166H
	DW	016aH
	DD	043576276r			; 215.385
	DW	0166H
	DW	016bH
	DD	0435f13b1r			; 223.077
	DW	0166H
	DW	016cH
	DD	04366c4ecr			; 230.769
	DW	0166H
	DW	016dH
	DD	0436e7627r			; 238.462
	DW	0166H
	DW	016eH
	DD	043762762r			; 246.154
	DW	0166H
	DW	016fH
	DD	0437dd89er			; 253.846
	DW	0166H
	DW	0170H
	DD	04382c4ecr			; 261.538
	DW	0166H
	DW	0171H
	DD	043869d8ar			; 269.231
	DW	0165H
	DW	0172H
	DD	0438a7627r			; 276.923
	DW	0165H
	DW	0173H
	DD	0438e4ec5r			; 284.615
	DW	0164H
	DW	0174H
	DD	043922762r			; 292.308
	DW	0164H
	DW	0175H
	DD	043960000r			; 300
	DW	0163H
	DW	0176H
	DD	0439b8e39r			; 311.111
	DW	0163H
	DW	0177H
	DD	043a11c72r			; 322.222
	DW	0162H
	DW	0178H
	DD	043a6aaabr			; 333.333
	DW	0161H
	DW	0179H
	DD	043ac38e4r			; 344.444
	DW	0160H
	DW	017aH
	DD	043b1c71cr			; 355.556
	DW	015fH
	DW	017bH
	DD	043b75555r			; 366.667
	DW	015eH
	DW	017bH
	DD	043bce38er			; 377.778
	DW	015dH
	DW	017cH
	DD	043c271c7r			; 388.889
	DW	015cH
	DW	017dH
	DD	043c80000r			; 400
	DW	015bH
	DW	017dH
	DD	043cc2aabr			; 408.333
	DW	015aH
	DW	017dH
	DD	043d05555r			; 416.667
	DW	0159H
	DW	017dH
	DD	043d48000r			; 425
	DW	0158H
	DW	017eH
	DD	043d8aaabr			; 433.333
	DW	0157H
	DW	017eH
	DD	043dcd555r			; 441.667
	DW	0156H
	DW	017eH
	DD	043e10000r			; 450
	DW	0155H
	DW	017eH
	DD	043e52aabr			; 458.333
	DW	0154H
	DW	017eH
	DD	043e95555r			; 466.667
	DW	0153H
	DW	017eH
	DD	043ed8000r			; 475
	DW	0152H
	DW	017dH
	DD	043f1aaabr			; 483.333
	DW	0151H
	DW	017dH
	DD	043f5d555r			; 491.667
	DW	0150H
	DW	017dH
	DD	043fa0000r			; 500
	DW	014fH
	DW	017cH
	DD	043ff0000r			; 510
	DW	014eH
	DW	017cH
	DD	044020000r			; 520
	DW	014dH
	DW	017bH
	DD	044048000r			; 530
	DW	014cH
	DW	017bH
	DD	044070000r			; 540
	DW	014bH
	DW	017aH
	DD	044098000r			; 550
	DW	014aH
	DW	0179H
	DD	0440c0000r			; 560
	DW	0149H
	DW	0179H
	DD	0440e8000r			; 570
	DW	0148H
	DW	0178H
	DD	044110000r			; 580
	DW	0148H
	DW	0177H
	DD	044138000r			; 590
	DW	0147H
	DW	0176H
	DD	044160000r			; 600
	DW	0146H
	DW	0175H
	DD	044181555r			; 608.333
	DW	0146H
	DW	0174H
	DD	0441a2aabr			; 616.667
	DW	0145H
	DW	0173H
	DD	0441c4000r			; 625
	DW	0144H
	DW	0172H
	DD	0441e5555r			; 633.333
	DW	0144H
	DW	0171H
	DD	044206aabr			; 641.667
	DW	0144H
	DW	0170H
	DD	044228000r			; 650
	DW	0143H
	DW	016fH
	DD	044249555r			; 658.333
	DW	0143H
	DW	016eH
	DD	04426aaabr			; 666.667
	DW	0143H
	DW	016dH
	DD	04428c000r			; 675
	DW	0142H
	DW	016cH
	DD	0442ad555r			; 683.333
	DW	0142H
	DW	016bH
	DD	0442ceaabr			; 691.667
	DW	0142H
	DW	016aH
	DD	0442f0000r			; 700
	DW	0142H
	DW	0169H
	DD	044311555r			; 708.333
	DW	0142H
	DW	0168H
	DD	044332aabr			; 716.667
	DW	0142H
	DW	0167H
	DD	044354000r			; 725
	DW	0142H
	DW	0166H
	DD	044375555r			; 733.333
	DW	0142H
	DW	0165H
	DD	044396aabr			; 741.667
	DW	0142H
	DW	0164H
	DD	0443b8000r			; 750
	DW	0143H
	DW	0163H
	DD	0443d9555r			; 758.333
	DW	0143H
	DW	0162H
	DD	0443faaabr			; 766.667
	DW	0143H
	DW	0161H
	DD	04441c000r			; 775
	DW	0143H
	DW	0160H
	DD	04443d555r			; 783.333
	DW	0144H
	DW	015fH
	DD	04445eaabr			; 791.667
	DW	0144H
	DW	015eH
	DD	044480000r			; 800
	DW	0145H
	DW	015dH
	DD	0444ac71cr			; 811.111
	DW	0145H
	DW	015cH
	DD	0444d8e39r			; 822.222
	DW	0146H
	DW	015bH
	DD	044505555r			; 833.333
	DW	0147H
	DW	015aH
	DD	044531c72r			; 844.444
	DW	0148H
	DW	0159H
	DD	04455e38er			; 855.556
	DW	0149H
	DW	0158H
	DD	04458aaabr			; 866.667
	DW	014aH
	DW	0157H
	DD	0445b71c7r			; 877.778
	DW	014bH
	DW	0157H
	DD	0445e38e4r			; 888.889
	DW	014cH
	DW	0156H
	DD	044610000r			; 900
	DW	014dH
	DW	0156H
	DD	0446345d1r			; 909.091
	DW	014eH
	DW	0156H
	DD	044658ba3r			; 918.182
	DW	014fH
	DW	0155H
	DD	04467d174r			; 927.273
	DW	0150H
	DW	0155H
	DD	0446a1746r			; 936.364
	DW	0151H
	DW	0155H
	DD	0446c5d17r			; 945.455
	DW	0152H
	DW	0155H
	DD	0446ea2e9r			; 954.545
	DW	0153H
	DW	0155H
	DD	04470e8bar			; 963.636
	DW	0154H
	DW	0155H
	DD	044732e8cr			; 972.727
	DW	0155H
	DW	0155H
	DD	04475745dr			; 981.818
	DW	0156H
	DW	0155H
	DD	04477ba2fr			; 990.909
	DW	00H
	DW	00H
	DD	07f7fffffr			; 3.40282e+38
?barometric_altimeter_small_needle_scale_down_20_left_30@@3PAUSCALE_DATA@@A DW 0156H ; barometric_altimeter_small_needle_scale_down_20_left_30
	DW	015dH
	DD	000000000r			; 0
	DW	0157H
	DW	015eH
	DD	04326aaabr			; 166.667
	DW	0158H
	DW	015eH
	DD	043a6aaabr			; 333.333
	DW	0159H
	DW	015fH
	DD	043fa0000r			; 500
	DW	015aH
	DW	015fH
	DD	04426aaabr			; 666.667
	DW	015bH
	DW	0160H
	DD	044505555r			; 833.333
	DW	015cH
	DW	0161H
	DD	0447a0000r			; 1000
	DW	015cH
	DW	0162H
	DD	0448edb6er			; 1142.86
	DW	015dH
	DW	0163H
	DD	044a0b6dbr			; 1285.71
	DW	015eH
	DW	0164H
	DD	044b29249r			; 1428.57
	DW	015eH
	DW	0165H
	DD	044c46db7r			; 1571.43
	DW	015eH
	DW	0166H
	DD	044d64925r			; 1714.29
	DW	015fH
	DW	0167H
	DD	044e82492r			; 1857.14
	DW	015fH
	DW	0168H
	DD	044fa0000r			; 2000
	DW	015fH
	DW	0169H
	DD	04504d000r			; 2125
	DW	015fH
	DW	016aH
	DD	0450ca000r			; 2250
	DW	015fH
	DW	016bH
	DD	045147000r			; 2375
	DW	015fH
	DW	016cH
	DD	0451c4000r			; 2500
	DW	015fH
	DW	016dH
	DD	045241000r			; 2625
	DW	015eH
	DW	016eH
	DD	0452be000r			; 2750
	DW	015eH
	DW	016fH
	DD	04533b000r			; 2875
	DW	015eH
	DW	0170H
	DD	0453b8000r			; 3000
	DW	015dH
	DW	0171H
	DD	04545eaabr			; 3166.67
	DW	015dH
	DW	0172H
	DD	045505555r			; 3333.33
	DW	015cH
	DW	0173H
	DD	0455ac000r			; 3500
	DW	015bH
	DW	0174H
	DD	045652aabr			; 3666.67
	DW	015aH
	DW	0174H
	DD	0456f9555r			; 3833.33
	DW	0159H
	DW	0175H
	DD	0457a0000r			; 4000
	DW	0158H
	DW	0175H
	DD	0458176dbr			; 4142.86
	DW	0157H
	DW	0175H
	DD	04585edb7r			; 4285.71
	DW	0156H
	DW	0176H
	DD	0458a6492r			; 4428.57
	DW	0155H
	DW	0176H
	DD	0458edb6er			; 4571.43
	DW	0154H
	DW	0176H
	DD	045935249r			; 4714.29
	DW	0153H
	DW	0176H
	DD	04597c925r			; 4857.14
	DW	0152H
	DW	0175H
	DD	0459c4000r			; 5000
	DW	0151H
	DW	0175H
	DD	045a17555r			; 5166.67
	DW	0150H
	DW	0175H
	DD	045a6aaabr			; 5333.33
	DW	014fH
	DW	0174H
	DD	045abe000r			; 5500
	DW	014eH
	DW	0173H
	DD	045b11555r			; 5666.67
	DW	014dH
	DW	0172H
	DD	045b64aabr			; 5833.33
	DW	014cH
	DW	0171H
	DD	045bb8000r			; 6000
	DW	014bH
	DW	0170H
	DD	045bff6dbr			; 6142.86
	DW	014bH
	DW	016fH
	DD	045c46db7r			; 6285.71
	DW	014aH
	DW	016eH
	DD	045c8e492r			; 6428.57
	DW	014aH
	DW	016dH
	DD	045cd5b6er			; 6571.43
	DW	014aH
	DW	016cH
	DD	045d1d249r			; 6714.29
	DW	0149H
	DW	016bH
	DD	045d64925r			; 6857.14
	DW	0149H
	DW	016aH
	DD	045dac000r			; 7000
	DW	0149H
	DW	0169H
	DD	045dea800r			; 7125
	DW	0149H
	DW	0168H
	DD	045e29000r			; 7250
	DW	0149H
	DW	0167H
	DD	045e67800r			; 7375
	DW	0149H
	DW	0166H
	DD	045ea6000r			; 7500
	DW	0149H
	DW	0165H
	DD	045ee4800r			; 7625
	DW	014aH
	DW	0164H
	DD	045f23000r			; 7750
	DW	014aH
	DW	0163H
	DD	045f61800r			; 7875
	DW	014aH
	DW	0162H
	DD	045fa0000r			; 8000
	DW	014bH
	DW	0161H
	DD	046002000r			; 8200
	DW	014cH
	DW	0160H
	DD	046034000r			; 8400
	DW	014dH
	DW	015fH
	DD	046066000r			; 8600
	DW	014eH
	DW	015eH
	DD	046098000r			; 8800
	DW	014fH
	DW	015dH
	DD	0460ca000r			; 9000
	DW	0150H
	DW	015dH
	DD	0460edb6er			; 9142.86
	DW	0151H
	DW	015dH
	DD	0461116dbr			; 9285.71
	DW	0152H
	DW	015dH
	DD	046135249r			; 9428.57
	DW	0153H
	DW	015dH
	DD	046158db7r			; 9571.43
	DW	0154H
	DW	015dH
	DD	04617c925r			; 9714.29
	DW	0155H
	DW	015dH
	DD	0461a0492r			; 9857.14
	DW	00H
	DW	00H
	DD	07f7fffffr			; 3.40282e+38
?barometric_altimeter_large_needle_scale_down_20_left_60@@3PAUSCALE_DATA@@A DW 026fH ; barometric_altimeter_large_needle_scale_down_20_left_60
	DW	0183H
	DD	000000000r			; 0
	DW	0270H
	DW	0184H
	DD	040e49249r			; 7.14286
	DW	0271H
	DW	0184H
	DD	041649249r			; 14.2857
	DW	0272H
	DW	0185H
	DD	041ab6db7r			; 21.4286
	DW	0273H
	DW	0186H
	DD	041e49249r			; 28.5714
	DW	0274H
	DW	0186H
	DD	0420edb6er			; 35.7143
	DW	0275H
	DW	0187H
	DD	0422b6db7r			; 42.8571
	DW	0276H
	DW	0188H
	DD	042480000r			; 50
	DW	0277H
	DW	0189H
	DD	042649249r			; 57.1429
	DW	0278H
	DW	018aH
	DD	042809249r			; 64.2857
	DW	0279H
	DW	018bH
	DD	0428edb6er			; 71.4286
	DW	0279H
	DW	018cH
	DD	0429d2492r			; 78.5714
	DW	027aH
	DW	018dH
	DD	042ab6db7r			; 85.7143
	DW	027bH
	DW	018eH
	DD	042b9b6dbr			; 92.8571
	DW	027bH
	DW	018fH
	DD	042c80000r			; 100
	DW	027cH
	DW	0190H
	DD	042d55555r			; 106.667
	DW	027cH
	DW	0191H
	DD	042e2aaabr			; 113.333
	DW	027dH
	DW	0192H
	DD	042f00000r			; 120
	DW	027dH
	DW	0193H
	DD	042fd5555r			; 126.667
	DW	027dH
	DW	0194H
	DD	043055555r			; 133.333
	DW	027eH
	DW	0195H
	DD	0430c0000r			; 140
	DW	027eH
	DW	0196H
	DD	04312aaabr			; 146.667
	DW	027eH
	DW	0197H
	DD	043195555r			; 153.333
	DW	027eH
	DW	0198H
	DD	043200000r			; 160
	DW	027eH
	DW	0199H
	DD	04326aaabr			; 166.667
	DW	027eH
	DW	019aH
	DD	0432d5555r			; 173.333
	DW	027fH
	DW	019bH
	DD	043340000r			; 180
	DW	027fH
	DW	019cH
	DD	0433aaaabr			; 186.667
	DW	027fH
	DW	019dH
	DD	043415555r			; 193.333
	DW	027fH
	DW	019eH
	DD	043480000r			; 200
	DW	027eH
	DW	019fH
	DD	0434fb13br			; 207.692
	DW	027eH
	DW	01a0H
	DD	043576276r			; 215.385
	DW	027eH
	DW	01a1H
	DD	0435f13b1r			; 223.077
	DW	027eH
	DW	01a2H
	DD	04366c4ecr			; 230.769
	DW	027eH
	DW	01a3H
	DD	0436e7627r			; 238.462
	DW	027dH
	DW	01a4H
	DD	043762762r			; 246.154
	DW	027dH
	DW	01a5H
	DD	0437dd89er			; 253.846
	DW	027cH
	DW	01a6H
	DD	04382c4ecr			; 261.538
	DW	027cH
	DW	01a7H
	DD	043869d8ar			; 269.231
	DW	027bH
	DW	01a8H
	DD	0438a7627r			; 276.923
	DW	027bH
	DW	01a9H
	DD	0438e4ec5r			; 284.615
	DW	027aH
	DW	01aaH
	DD	043922762r			; 292.308
	DW	0279H
	DW	01abH
	DD	043960000r			; 300
	DW	0278H
	DW	01acH
	DD	04399d89er			; 307.692
	DW	0277H
	DW	01adH
	DD	0439db13br			; 315.385
	DW	0276H
	DW	01adH
	DD	043a189d9r			; 323.077
	DW	0275H
	DW	01aeH
	DD	043a56276r			; 330.769
	DW	0274H
	DW	01afH
	DD	043a93b14r			; 338.462
	DW	0273H
	DW	01afH
	DD	043ad13b1r			; 346.154
	DW	0272H
	DW	01afH
	DD	043b0ec4fr			; 353.846
	DW	0271H
	DW	01b0H
	DD	043b4c4ecr			; 361.538
	DW	0270H
	DW	01b0H
	DD	043b89d8ar			; 369.231
	DW	026fH
	DW	01b0H
	DD	043bc7627r			; 376.923
	DW	026eH
	DW	01b0H
	DD	043c04ec5r			; 384.615
	DW	026dH
	DW	01b0H
	DD	043c42762r			; 392.308
	DW	026cH
	DW	01b1H
	DD	043c80000r			; 400
	DW	026bH
	DW	01b1H
	DD	043cb9249r			; 407.143
	DW	026aH
	DW	01b1H
	DD	043cf2492r			; 414.286
	DW	0269H
	DW	01b0H
	DD	043d2b6dbr			; 421.429
	DW	0268H
	DW	01b0H
	DD	043d64925r			; 428.571
	DW	0267H
	DW	01b0H
	DD	043d9db6er			; 435.714
	DW	0266H
	DW	01b0H
	DD	043dd6db7r			; 442.857
	DW	0265H
	DW	01b0H
	DD	043e10000r			; 450
	DW	0264H
	DW	01b0H
	DD	043e49249r			; 457.143
	DW	0263H
	DW	01afH
	DD	043e82492r			; 464.286
	DW	0262H
	DW	01afH
	DD	043ebb6dbr			; 471.429
	DW	0261H
	DW	01aeH
	DD	043ef4925r			; 478.571
	DW	0260H
	DW	01aeH
	DD	043f2db6er			; 485.714
	DW	025fH
	DW	01adH
	DD	043f66db7r			; 492.857
	DW	025eH
	DW	01adH
	DD	043fa0000r			; 500
	DW	025dH
	DW	01acH
	DD	043fdd89er			; 507.692
	DW	025cH
	DW	01acH
	DD	04400d89er			; 515.385
	DW	025bH
	DW	01abH
	DD	04402c4ecr			; 523.077
	DW	025aH
	DW	01aaH
	DD	04404b13br			; 530.769
	DW	0259H
	DW	01a9H
	DD	044069d8ar			; 538.462
	DW	0258H
	DW	01a8H
	DD	0440889d9r			; 546.154
	DW	0257H
	DW	01a7H
	DD	0440a7627r			; 553.846
	DW	0256H
	DW	01a6H
	DD	0440c6276r			; 561.538
	DW	0255H
	DW	01a5H
	DD	0440e4ec5r			; 569.231
	DW	0255H
	DW	01a4H
	DD	044103b14r			; 576.923
	DW	0254H
	DW	01a3H
	DD	044122762r			; 584.615
	DW	0254H
	DW	01a2H
	DD	0441413b1r			; 592.308
	DW	0253H
	DW	01a1H
	DD	044160000r			; 600
	DW	0252H
	DW	01a0H
	DD	04417c925r			; 607.143
	DW	0252H
	DW	019fH
	DD	044199249r			; 614.286
	DW	0252H
	DW	019eH
	DD	0441b5b6er			; 621.429
	DW	0251H
	DW	019dH
	DD	0441d2492r			; 628.571
	DW	0251H
	DW	019cH
	DD	0441eedb7r			; 635.714
	DW	0251H
	DW	019bH
	DD	04420b6dbr			; 642.857
	DW	0250H
	DW	019aH
	DD	044228000r			; 650
	DW	0250H
	DW	0199H
	DD	044244925r			; 657.143
	DW	0250H
	DW	0198H
	DD	044261249r			; 664.286
	DW	0250H
	DW	0197H
	DD	04427db6er			; 671.429
	DW	0250H
	DW	0196H
	DD	04429a492r			; 678.571
	DW	0250H
	DW	0195H
	DD	0442b6db7r			; 685.714
	DW	0250H
	DW	0194H
	DD	0442d36dbr			; 692.857
	DW	0250H
	DW	0193H
	DD	0442f0000r			; 700
	DW	0250H
	DW	0192H
	DD	04430ec4fr			; 707.692
	DW	0250H
	DW	0191H
	DD	04432d89er			; 715.385
	DW	0250H
	DW	0190H
	DD	04434c4ecr			; 723.077
	DW	0251H
	DW	018fH
	DD	04436b13br			; 730.769
	DW	0251H
	DW	018eH
	DD	044389d8ar			; 738.462
	DW	0251H
	DW	018dH
	DD	0443a89d9r			; 746.154
	DW	0251H
	DW	018cH
	DD	0443c7627r			; 753.846
	DW	0252H
	DW	018bH
	DD	0443e6276r			; 761.538
	DW	0252H
	DW	018aH
	DD	044404ec5r			; 769.231
	DW	0253H
	DW	0189H
	DD	044423b14r			; 776.923
	DW	0254H
	DW	0188H
	DD	044442762r			; 784.615
	DW	0254H
	DW	0187H
	DD	0444613b1r			; 792.308
	DW	0255H
	DW	0186H
	DD	044480000r			; 800
	DW	0256H
	DW	0185H
	DD	0444a1555r			; 808.333
	DW	0257H
	DW	0184H
	DD	0444c2aabr			; 816.667
	DW	0258H
	DW	0184H
	DD	0444e4000r			; 825
	DW	0259H
	DW	0183H
	DD	044505555r			; 833.333
	DW	025aH
	DW	0182H
	DD	044526aabr			; 841.667
	DW	025bH
	DW	0182H
	DD	044548000r			; 850
	DW	025cH
	DW	0181H
	DD	044569555r			; 858.333
	DW	025dH
	DW	0181H
	DD	04458aaabr			; 866.667
	DW	025eH
	DW	0181H
	DD	0445ac000r			; 875
	DW	025fH
	DW	0181H
	DD	0445cd555r			; 883.333
	DW	0260H
	DW	0180H
	DD	0445eeaabr			; 891.667
	DW	0261H
	DW	0180H
	DD	044610000r			; 900
	DW	0262H
	DW	0180H
	DD	04462c925r			; 907.143
	DW	0263H
	DW	0180H
	DD	044649249r			; 914.286
	DW	0264H
	DW	0180H
	DD	044665b6er			; 921.429
	DW	0265H
	DW	0180H
	DD	044682492r			; 928.571
	DW	0266H
	DW	0180H
	DD	04469edb7r			; 935.714
	DW	0267H
	DW	0180H
	DD	0446bb6dbr			; 942.857
	DW	0268H
	DW	0181H
	DD	0446d8000r			; 950
	DW	0269H
	DW	0181H
	DD	0446f4925r			; 957.143
	DW	026aH
	DW	0181H
	DD	044711249r			; 964.286
	DW	026bH
	DW	0181H
	DD	04472db6er			; 971.429
	DW	026cH
	DW	0182H
	DD	04474a492r			; 978.571
	DW	026dH
	DW	0182H
	DD	044766db7r			; 985.714
	DW	026eH
	DW	0183H
	DD	0447836dbr			; 992.857
	DW	00H
	DW	00H
	DD	07f7fffffr			; 3.40282e+38
?barometric_altimeter_small_needle_scale_down_20_left_60@@3PAUSCALE_DATA@@A DW 026bH ; barometric_altimeter_small_needle_scale_down_20_left_60
	DW	018bH
	DD	000000000r			; 0
	DW	026cH
	DW	018cH
	DD	042fa0000r			; 125
	DW	026dH
	DW	018cH
	DD	0437a0000r			; 250
	DW	026eH
	DW	018dH
	DD	043bb8000r			; 375
	DW	026fH
	DW	018eH
	DD	043fa0000r			; 500
	DW	0270H
	DW	018fH
	DD	0441c4000r			; 625
	DW	0271H
	DW	0190H
	DD	0443b8000r			; 750
	DW	0272H
	DW	0191H
	DD	0445ac000r			; 875
	DW	0273H
	DW	0192H
	DD	0447a0000r			; 1000
	DW	0273H
	DW	0193H
	DD	0448ae38er			; 1111.11
	DW	0274H
	DW	0194H
	DD	04498c71cr			; 1222.22
	DW	0274H
	DW	0195H
	DD	044a6aaabr			; 1333.33
	DW	0274H
	DW	0196H
	DD	044b48e39r			; 1444.44
	DW	0275H
	DW	0197H
	DD	044c271c7r			; 1555.56
	DW	0275H
	DW	0198H
	DD	044d05555r			; 1666.67
	DW	0275H
	DW	0199H
	DD	044de38e4r			; 1777.78
	DW	0275H
	DW	019aH
	DD	044ec1c72r			; 1888.89
	DW	0275H
	DW	019bH
	DD	044fa0000r			; 2000
	DW	0275H
	DW	019cH
	DD	04504d000r			; 2125
	DW	0275H
	DW	019dH
	DD	0450ca000r			; 2250
	DW	0275H
	DW	019eH
	DD	045147000r			; 2375
	DW	0274H
	DW	019fH
	DD	0451c4000r			; 2500
	DW	0274H
	DW	01a0H
	DD	045241000r			; 2625
	DW	0273H
	DW	01a1H
	DD	0452be000r			; 2750
	DW	0272H
	DW	01a2H
	DD	04533b000r			; 2875
	DW	0271H
	DW	01a3H
	DD	0453b8000r			; 3000
	DW	0271H
	DW	01a4H
	DD	045435000r			; 3125
	DW	0270H
	DW	01a5H
	DD	0454b2000r			; 3250
	DW	026fH
	DW	01a5H
	DD	04552f000r			; 3375
	DW	026eH
	DW	01a6H
	DD	0455ac000r			; 3500
	DW	026dH
	DW	01a6H
	DD	045629000r			; 3625
	DW	026cH
	DW	01a7H
	DD	0456a6000r			; 3750
	DW	026bH
	DW	01a7H
	DD	045723000r			; 3875
	DW	026aH
	DW	01a7H
	DD	0457a0000r			; 4000
	DW	0269H
	DW	01a7H
	DD	0458078e4r			; 4111.11
	DW	0268H
	DW	01a7H
	DD	04583f1c7r			; 4222.22
	DW	0267H
	DW	01a7H
	DD	045876aabr			; 4333.33
	DW	0266H
	DW	01a7H
	DD	0458ae38er			; 4444.44
	DW	0265H
	DW	01a6H
	DD	0458e5c72r			; 4555.56
	DW	0264H
	DW	01a6H
	DD	04591d555r			; 4666.67
	DW	0263H
	DW	01a6H
	DD	045954e39r			; 4777.78
	DW	0262H
	DW	01a5H
	DD	04598c71cr			; 4888.89
	DW	0261H
	DW	01a5H
	DD	0459c4000r			; 5000
	DW	0260H
	DW	01a4H
	DD	045a02800r			; 5125
	DW	025fH
	DW	01a3H
	DD	045a41000r			; 5250
	DW	025eH
	DW	01a2H
	DD	045a7f800r			; 5375
	DW	025dH
	DW	01a1H
	DD	045abe000r			; 5500
	DW	025cH
	DW	01a0H
	DD	045afc800r			; 5625
	DW	025bH
	DW	019fH
	DD	045b3b000r			; 5750
	DW	025bH
	DW	019eH
	DD	045b79800r			; 5875
	DW	025aH
	DW	019dH
	DD	045bb8000r			; 6000
	DW	025aH
	DW	019cH
	DD	045bf6800r			; 6125
	DW	0259H
	DW	019bH
	DD	045c35000r			; 6250
	DW	0259H
	DW	019aH
	DD	045c73800r			; 6375
	DW	0259H
	DW	0199H
	DD	045cb2000r			; 6500
	DW	0259H
	DW	0198H
	DD	045cf0800r			; 6625
	DW	0259H
	DW	0197H
	DD	045d2f000r			; 6750
	DW	0259H
	DW	0196H
	DD	045d6d800r			; 6875
	DW	0259H
	DW	0195H
	DD	045dac000r			; 7000
	DW	0259H
	DW	0194H
	DD	045dea800r			; 7125
	DW	0259H
	DW	0193H
	DD	045e29000r			; 7250
	DW	0259H
	DW	0192H
	DD	045e67800r			; 7375
	DW	0259H
	DW	0191H
	DD	045ea6000r			; 7500
	DW	025aH
	DW	0190H
	DD	045ee4800r			; 7625
	DW	025aH
	DW	018fH
	DD	045f23000r			; 7750
	DW	025bH
	DW	018eH
	DD	045f61800r			; 7875
	DW	025cH
	DW	018dH
	DD	045fa0000r			; 8000
	DW	025dH
	DW	018cH
	DD	045fe76dbr			; 8142.86
	DW	025eH
	DW	018bH
	DD	0460176dbr			; 8285.71
	DW	025fH
	DW	018bH
	DD	04603b249r			; 8428.57
	DW	0260H
	DW	018aH
	DD	04605edb7r			; 8571.43
	DW	0261H
	DW	018aH
	DD	046082925r			; 8714.29
	DW	0262H
	DW	018aH
	DD	0460a6492r			; 8857.14
	DW	0263H
	DW	0189H
	DD	0460ca000r			; 9000
	DW	0264H
	DW	0189H
	DD	0460e9400r			; 9125
	DW	0265H
	DW	0189H
	DD	046108800r			; 9250
	DW	0266H
	DW	018aH
	DD	046127c00r			; 9375
	DW	0267H
	DW	018aH
	DD	046147000r			; 9500
	DW	0268H
	DW	018aH
	DD	046166400r			; 9625
	DW	0269H
	DW	018aH
	DD	046185800r			; 9750
	DW	026aH
	DW	018bH
	DD	0461a4c00r			; 9875
	DW	00H
	DW	00H
	DD	07f7fffffr			; 3.40282e+38
?clock_large_hand_scale_down_20_ahead@@3PAUSCALE_DATA@@A DW 0122H ; clock_large_hand_scale_down_20_ahead
	DW	01a2H
	DD	000000000r			; 0
	DW	0123H
	DW	01a2H
	DD	03f0e38e4r			; 0.555556
	DW	0124H
	DW	01a2H
	DD	03f8e38e4r			; 1.11111
	DW	0125H
	DW	01a3H
	DD	03fd55555r			; 1.66667
	DW	0126H
	DW	01a3H
	DD	0400e38e4r			; 2.22222
	DW	0127H
	DW	01a3H
	DD	04031c71cr			; 2.77778
	DW	0128H
	DW	01a3H
	DD	040555555r			; 3.33333
	DW	0129H
	DW	01a4H
	DD	04078e38er			; 3.88889
	DW	012aH
	DW	01a4H
	DD	0408e38e4r			; 4.44444
	DW	012bH
	DW	01a5H
	DD	040a00000r			; 5
	DW	012cH
	DW	01a5H
	DD	040b6db6er			; 5.71429
	DW	012dH
	DW	01a6H
	DD	040cdb6dbr			; 6.42857
	DW	012eH
	DW	01a7H
	DD	040e49249r			; 7.14286
	DW	012fH
	DW	01a8H
	DD	040fb6db7r			; 7.85714
	DW	0130H
	DW	01a9H
	DD	041092492r			; 8.57143
	DW	0131H
	DW	01aaH
	DD	041149249r			; 9.28571
	DW	0131H
	DW	01abH
	DD	041200000r			; 10
	DW	0132H
	DW	01acH
	DD	04128e38er			; 10.5556
	DW	0132H
	DW	01adH
	DD	04131c71cr			; 11.1111
	DW	0133H
	DW	01aeH
	DD	0413aaaabr			; 11.6667
	DW	0133H
	DW	01afH
	DD	041438e39r			; 12.2222
	DW	0133H
	DW	01b0H
	DD	0414c71c7r			; 12.7778
	DW	0133H
	DW	01b1H
	DD	041555555r			; 13.3333
	DW	0133H
	DW	01b2H
	DD	0415e38e4r			; 13.8889
	DW	0133H
	DW	01b3H
	DD	041671c72r			; 14.4444
	DW	0133H
	DW	01b4H
	DD	041700000r			; 15
	DW	0133H
	DW	01b5H
	DD	0417a0000r			; 15.625
	DW	0133H
	DW	01b6H
	DD	041820000r			; 16.25
	DW	0133H
	DW	01b7H
	DD	041870000r			; 16.875
	DW	0133H
	DW	01b8H
	DD	0418c0000r			; 17.5
	DW	0133H
	DW	01b9H
	DD	041910000r			; 18.125
	DW	0132H
	DW	01baH
	DD	041960000r			; 18.75
	DW	0132H
	DW	01bbH
	DD	0419b0000r			; 19.375
	DW	0131H
	DW	01bcH
	DD	041a00000r			; 20
	DW	0131H
	DW	01bdH
	DD	041a5b6dbr			; 20.7143
	DW	0130H
	DW	01beH
	DD	041ab6db7r			; 21.4286
	DW	012fH
	DW	01bfH
	DD	041b12492r			; 22.1429
	DW	012eH
	DW	01c0H
	DD	041b6db6er			; 22.8571
	DW	012dH
	DW	01c1H
	DD	041bc9249r			; 23.5714
	DW	012cH
	DW	01c2H
	DD	041c24925r			; 24.2857
	DW	012bH
	DW	01c3H
	DD	041c80000r			; 25
	DW	012aH
	DW	01c3H
	DD	041cc71c7r			; 25.5556
	DW	0129H
	DW	01c4H
	DD	041d0e38er			; 26.1111
	DW	0128H
	DW	01c4H
	DD	041d55555r			; 26.6667
	DW	0127H
	DW	01c4H
	DD	041d9c71cr			; 27.2222
	DW	0126H
	DW	01c4H
	DD	041de38e4r			; 27.7778
	DW	0125H
	DW	01c5H
	DD	041e2aaabr			; 28.3333
	DW	0124H
	DW	01c5H
	DD	041e71c72r			; 28.8889
	DW	0123H
	DW	01c5H
	DD	041eb8e39r			; 29.4444
	DW	0122H
	DW	01c5H
	DD	041f00000r			; 30
	DW	0121H
	DW	01c5H
	DD	041f471c7r			; 30.5556
	DW	0120H
	DW	01c5H
	DD	041f8e38er			; 31.1111
	DW	011fH
	DW	01c5H
	DD	041fd5555r			; 31.6667
	DW	011eH
	DW	01c4H
	DD	04200e38er			; 32.2222
	DW	011dH
	DW	01c4H
	DD	042031c72r			; 32.7778
	DW	011cH
	DW	01c4H
	DD	042055555r			; 33.3333
	DW	011bH
	DW	01c3H
	DD	042078e39r			; 33.8889
	DW	011aH
	DW	01c3H
	DD	04209c71cr			; 34.4444
	DW	0119H
	DW	01c2H
	DD	0420c0000r			; 35
	DW	0118H
	DW	01c2H
	DD	0420edb6er			; 35.7143
	DW	0117H
	DW	01c1H
	DD	04211b6dbr			; 36.4286
	DW	0116H
	DW	01c0H
	DD	042149249r			; 37.1429
	DW	0115H
	DW	01bfH
	DD	042176db7r			; 37.8571
	DW	0114H
	DW	01beH
	DD	0421a4925r			; 38.5714
	DW	0114H
	DW	01bdH
	DD	0421d2492r			; 39.2857
	DW	0113H
	DW	01bcH
	DD	042200000r			; 40
	DW	0113H
	DW	01bbH
	DD	042228000r			; 40.625
	DW	0112H
	DW	01baH
	DD	042250000r			; 41.25
	DW	0112H
	DW	01b9H
	DD	042278000r			; 41.875
	DW	0112H
	DW	01b8H
	DD	0422a0000r			; 42.5
	DW	0111H
	DW	01b7H
	DD	0422c8000r			; 43.125
	DW	0111H
	DW	01b6H
	DD	0422f0000r			; 43.75
	DW	0111H
	DW	01b5H
	DD	042318000r			; 44.375
	DW	0111H
	DW	01b4H
	DD	042340000r			; 45
	DW	0111H
	DW	01b3H
	DD	0423638e4r			; 45.5556
	DW	0111H
	DW	01b2H
	DD	0423871c7r			; 46.1111
	DW	0111H
	DW	01b1H
	DD	0423aaaabr			; 46.6667
	DW	0111H
	DW	01b0H
	DD	0423ce38er			; 47.2222
	DW	0112H
	DW	01afH
	DD	0423f1c72r			; 47.7778
	DW	0112H
	DW	01aeH
	DD	042415555r			; 48.3333
	DW	0112H
	DW	01adH
	DD	042438e39r			; 48.8889
	DW	0113H
	DW	01acH
	DD	04245c71cr			; 49.4444
	DW	0113H
	DW	01abH
	DD	042480000r			; 50
	DW	0114H
	DW	01aaH
	DD	0424adb6er			; 50.7143
	DW	0114H
	DW	01a9H
	DD	0424db6dbr			; 51.4286
	DW	0115H
	DW	01a8H
	DD	042509249r			; 52.1429
	DW	0116H
	DW	01a7H
	DD	042536db7r			; 52.8571
	DW	0117H
	DW	01a6H
	DD	042564925r			; 53.5714
	DW	0118H
	DW	01a6H
	DD	042592492r			; 54.2857
	DW	0119H
	DW	01a5H
	DD	0425c0000r			; 55
	DW	011aH
	DW	01a4H
	DD	0425e38e4r			; 55.5556
	DW	011bH
	DW	01a4H
	DD	0426071c7r			; 56.1111
	DW	011cH
	DW	01a3H
	DD	04262aaabr			; 56.6667
	DW	011dH
	DW	01a3H
	DD	04264e38er			; 57.2222
	DW	011eH
	DW	01a3H
	DD	042671c72r			; 57.7778
	DW	011fH
	DW	01a3H
	DD	042695555r			; 58.3333
	DW	0120H
	DW	01a2H
	DD	0426b8e39r			; 58.8889
	DW	0121H
	DW	01a2H
	DD	0426dc71cr			; 59.4444
	DW	00H
	DW	00H
	DD	07f7fffffr			; 3.40282e+38
?clock_small_hand_scale_down_20_ahead@@3PAUSCALE_DATA@@A DW 0122H ; clock_small_hand_scale_down_20_ahead
	DW	01a8H
	DD	000000000r			; 0
	DW	0123H
	DW	01a8H
	DD	03e124925r			; 0.142857
	DW	0124H
	DW	01a8H
	DD	03e924925r			; 0.285714
	DW	0125H
	DW	01a8H
	DD	03edb6db7r			; 0.428571
	DW	0126H
	DW	01a8H
	DD	03f124925r			; 0.571429
	DW	0127H
	DW	01a9H
	DD	03f36db6er			; 0.714286
	DW	0128H
	DW	01a9H
	DD	03f5b6db7r			; 0.857143
	DW	0129H
	DW	01a9H
	DD	03f800000r			; 1
	DW	012aH
	DW	01aaH
	DD	03fa00000r			; 1.25
	DW	012bH
	DW	01abH
	DD	03fc00000r			; 1.5
	DW	012cH
	DW	01acH
	DD	03fe00000r			; 1.75
	DW	012dH
	DW	01adH
	DD	040000000r			; 2
	DW	012dH
	DW	01aeH
	DD	040092492r			; 2.14286
	DW	012dH
	DW	01afH
	DD	040124925r			; 2.28571
	DW	012eH
	DW	01b0H
	DD	0401b6db7r			; 2.42857
	DW	012eH
	DW	01b1H
	DD	040249249r			; 2.57143
	DW	012eH
	DW	01b2H
	DD	0402db6dbr			; 2.71429
	DW	012eH
	DW	01b3H
	DD	04036db6er			; 2.85714
	DW	012eH
	DW	01b4H
	DD	040400000r			; 3
	DW	012eH
	DW	01b5H
	DD	0404aaaabr			; 3.16667
	DW	012eH
	DW	01b6H
	DD	040555555r			; 3.33333
	DW	012eH
	DW	01b7H
	DD	040600000r			; 3.5
	DW	012dH
	DW	01b8H
	DD	0406aaaabr			; 3.66667
	DW	012dH
	DW	01b9H
	DD	040755555r			; 3.83333
	DW	012dH
	DW	01baH
	DD	040800000r			; 4
	DW	012cH
	DW	01bbH
	DD	040866666r			; 4.2
	DW	012bH
	DW	01bcH
	DD	0408ccccdr			; 4.4
	DW	012aH
	DW	01bdH
	DD	040933333r			; 4.6
	DW	0129H
	DW	01beH
	DD	04099999ar			; 4.8
	DW	0128H
	DW	01beH
	DD	040a00000r			; 5
	DW	0127H
	DW	01bfH
	DD	040a55555r			; 5.16667
	DW	0126H
	DW	01bfH
	DD	040aaaaabr			; 5.33333
	DW	0125H
	DW	01bfH
	DD	040b00000r			; 5.5
	DW	0124H
	DW	01bfH
	DD	040b55555r			; 5.66667
	DW	0123H
	DW	01c0H
	DD	040baaaabr			; 5.83333
	DW	0122H
	DW	01c0H
	DD	040c00000r			; 6
	DW	0121H
	DW	01c0H
	DD	040c55555r			; 6.16667
	DW	0120H
	DW	01bfH
	DD	040caaaabr			; 6.33333
	DW	011fH
	DW	01bfH
	DD	040d00000r			; 6.5
	DW	011eH
	DW	01bfH
	DD	040d55555r			; 6.66667
	DW	011dH
	DW	01beH
	DD	040daaaabr			; 6.83333
	DW	011cH
	DW	01beH
	DD	040e00000r			; 7
	DW	011bH
	DW	01bdH
	DD	040e80000r			; 7.25
	DW	011aH
	DW	01bcH
	DD	040f00000r			; 7.5
	DW	0119H
	DW	01bbH
	DD	040f80000r			; 7.75
	DW	0118H
	DW	01baH
	DD	041000000r			; 8
	DW	0118H
	DW	01b9H
	DD	04102aaabr			; 8.16667
	DW	0117H
	DW	01b8H
	DD	041055555r			; 8.33333
	DW	0117H
	DW	01b7H
	DD	041080000r			; 8.5
	DW	0117H
	DW	01b6H
	DD	0410aaaabr			; 8.66667
	DW	0116H
	DW	01b5H
	DD	0410d5555r			; 8.83333
	DW	0116H
	DW	01b4H
	DD	041100000r			; 9
	DW	0116H
	DW	01b3H
	DD	04112aaabr			; 9.16667
	DW	0116H
	DW	01b2H
	DD	041155555r			; 9.33333
	DW	0117H
	DW	01b1H
	DD	041180000r			; 9.5
	DW	0117H
	DW	01b0H
	DD	0411aaaabr			; 9.66667
	DW	0117H
	DW	01afH
	DD	0411d5555r			; 9.83333
	DW	0118H
	DW	01aeH
	DD	041200000r			; 10
	DW	0118H
	DW	01adH
	DD	041233333r			; 10.2
	DW	0119H
	DW	01acH
	DD	041266666r			; 10.4
	DW	011aH
	DW	01abH
	DD	04129999ar			; 10.6
	DW	011bH
	DW	01aaH
	DD	0412ccccdr			; 10.8
	DW	011cH
	DW	01a9H
	DD	041300000r			; 11
	DW	011dH
	DW	01a9H
	DD	04132aaabr			; 11.1667
	DW	011eH
	DW	01a8H
	DD	041355555r			; 11.3333
	DW	011fH
	DW	01a8H
	DD	041380000r			; 11.5
	DW	0120H
	DW	01a8H
	DD	0413aaaabr			; 11.6667
	DW	0121H
	DW	01a8H
	DD	0413d5555r			; 11.8333
	DW	00H
	DW	00H
	DD	07f7fffffr			; 3.40282e+38
?clock_large_hand_scale_down_20_left_30@@3PAUSCALE_DATA@@A DW 021eH ; clock_large_hand_scale_down_20_left_30
	DW	01c3H
	DD	000000000r			; 0
	DW	021fH
	DW	01c4H
	DD	03f000000r			; 0.5
	DW	0220H
	DW	01c4H
	DD	03f800000r			; 1
	DW	0221H
	DW	01c4H
	DD	03fc00000r			; 1.5
	DW	0222H
	DW	01c5H
	DD	040000000r			; 2
	DW	0223H
	DW	01c5H
	DD	040200000r			; 2.5
	DW	0224H
	DW	01c6H
	DD	040400000r			; 3
	DW	0225H
	DW	01c7H
	DD	040600000r			; 3.5
	DW	0226H
	DW	01c7H
	DD	040800000r			; 4
	DW	0227H
	DW	01c8H
	DD	040900000r			; 4.5
	DW	0228H
	DW	01c9H
	DD	040a00000r			; 5
	DW	0229H
	DW	01caH
	DD	040b1c71cr			; 5.55556
	DW	022aH
	DW	01cbH
	DD	040c38e39r			; 6.11111
	DW	022bH
	DW	01ccH
	DD	040d55555r			; 6.66667
	DW	022bH
	DW	01cdH
	DD	040e71c72r			; 7.22222
	DW	022cH
	DW	01ceH
	DD	040f8e38er			; 7.77778
	DW	022cH
	DW	01cfH
	DD	041055555r			; 8.33333
	DW	022dH
	DW	01d0H
	DD	0410e38e4r			; 8.88889
	DW	022dH
	DW	01d1H
	DD	041171c72r			; 9.44444
	DW	022eH
	DW	01d2H
	DD	041200000r			; 10
	DW	022eH
	DW	01d3H
	DD	041280000r			; 10.5
	DW	022eH
	DW	01d4H
	DD	041300000r			; 11
	DW	022fH
	DW	01d5H
	DD	041380000r			; 11.5
	DW	022fH
	DW	01d6H
	DD	041400000r			; 12
	DW	022fH
	DW	01d7H
	DD	041480000r			; 12.5
	DW	022fH
	DW	01d8H
	DD	041500000r			; 13
	DW	022fH
	DW	01d9H
	DD	041580000r			; 13.5
	DW	022fH
	DW	01daH
	DD	041600000r			; 14
	DW	022fH
	DW	01dbH
	DD	041680000r			; 14.5
	DW	022fH
	DW	01dcH
	DD	041700000r			; 15
	DW	022fH
	DW	01ddH
	DD	04176aaabr			; 15.4167
	DW	022eH
	DW	01deH
	DD	0417d5555r			; 15.8333
	DW	022dH
	DW	01dfH
	DD	041820000r			; 16.25
	DW	022cH
	DW	01dfH
	DD	041855555r			; 16.6667
	DW	022bH
	DW	01dfH
	DD	04188aaabr			; 17.0833
	DW	022aH
	DW	01dfH
	DD	0418c0000r			; 17.5
	DW	0229H
	DW	01dfH
	DD	0418f5555r			; 17.9167
	DW	0228H
	DW	01dfH
	DD	04192aaabr			; 18.3333
	DW	0227H
	DW	01dfH
	DD	041960000r			; 18.75
	DW	0226H
	DW	01dfH
	DD	041995555r			; 19.1667
	DW	0225H
	DW	01dfH
	DD	0419caaabr			; 19.5833
	DW	0224H
	DW	01dfH
	DD	041a00000r			; 20
	DW	0223H
	DW	01dfH
	DD	041a6aaabr			; 20.8333
	DW	0222H
	DW	01dfH
	DD	041ad5555r			; 21.6667
	DW	0221H
	DW	01dfH
	DD	041b40000r			; 22.5
	DW	0220H
	DW	01dfH
	DD	041baaaabr			; 23.3333
	DW	021fH
	DW	01dfH
	DD	041c15555r			; 24.1667
	DW	021eH
	DW	01dfH
	DD	041c80000r			; 25
	DW	021dH
	DW	01dfH
	DD	041d00000r			; 26
	DW	021cH
	DW	01dfH
	DD	041d80000r			; 27
	DW	021bH
	DW	01dfH
	DD	041e00000r			; 28
	DW	021aH
	DW	01dfH
	DD	041e80000r			; 29
	DW	0219H
	DW	01dfH
	DD	041f00000r			; 30
	DW	0218H
	DW	01dfH
	DD	041f50000r			; 30.625
	DW	0217H
	DW	01dfH
	DD	041fa0000r			; 31.25
	DW	0216H
	DW	01dfH
	DD	041ff0000r			; 31.875
	DW	0215H
	DW	01dfH
	DD	042020000r			; 32.5
	DW	0214H
	DW	01dfH
	DD	042048000r			; 33.125
	DW	0213H
	DW	01dfH
	DD	042070000r			; 33.75
	DW	0212H
	DW	01dfH
	DD	042098000r			; 34.375
	DW	0211H
	DW	01dfH
	DD	0420c0000r			; 35
	DW	0210H
	DW	01dfH
	DD	0420daaabr			; 35.4167
	DW	020fH
	DW	01dfH
	DD	0420f5555r			; 35.8333
	DW	020eH
	DW	01dfH
	DD	042110000r			; 36.25
	DW	020dH
	DW	01dfH
	DD	04212aaabr			; 36.6667
	DW	020cH
	DW	01dfH
	DD	042145555r			; 37.0833
	DW	020bH
	DW	01deH
	DD	042160000r			; 37.5
	DW	020aH
	DW	01ddH
	DD	04217aaabr			; 37.9167
	DW	020aH
	DW	01dcH
	DD	042195555r			; 38.3333
	DW	0209H
	DW	01dbH
	DD	0421b0000r			; 38.75
	DW	0209H
	DW	01daH
	DD	0421caaabr			; 39.1667
	DW	0208H
	DW	01d9H
	DD	0421e5555r			; 39.5833
	DW	0208H
	DW	01d8H
	DD	042200000r			; 40
	DW	0208H
	DW	01d7H
	DD	0422238e4r			; 40.5556
	DW	0207H
	DW	01d6H
	DD	0422471c7r			; 41.1111
	DW	0207H
	DW	01d5H
	DD	04226aaabr			; 41.6667
	DW	0207H
	DW	01d4H
	DD	04228e38er			; 42.2222
	DW	0207H
	DW	01d3H
	DD	0422b1c72r			; 42.7778
	DW	0207H
	DW	01d2H
	DD	0422d5555r			; 43.3333
	DW	0207H
	DW	01d1H
	DD	0422f8e39r			; 43.8889
	DW	0207H
	DW	01d0H
	DD	04231c71cr			; 44.4444
	DW	0207H
	DW	01cfH
	DD	042340000r			; 45
	DW	0207H
	DW	01ceH
	DD	042368000r			; 45.625
	DW	0208H
	DW	01cdH
	DD	042390000r			; 46.25
	DW	0208H
	DW	01ccH
	DD	0423b8000r			; 46.875
	DW	0208H
	DW	01cbH
	DD	0423e0000r			; 47.5
	DW	0209H
	DW	01caH
	DD	042408000r			; 48.125
	DW	0209H
	DW	01c9H
	DD	042430000r			; 48.75
	DW	020aH
	DW	01c8H
	DD	042458000r			; 49.375
	DW	020bH
	DW	01c7H
	DD	042480000r			; 50
	DW	020cH
	DW	01c6H
	DD	0424a38e4r			; 50.5556
	DW	020dH
	DW	01c5H
	DD	0424c71c7r			; 51.1111
	DW	020eH
	DW	01c5H
	DD	0424eaaabr			; 51.6667
	DW	020fH
	DW	01c4H
	DD	04250e38er			; 52.2222
	DW	0210H
	DW	01c4H
	DD	042531c72r			; 52.7778
	DW	0211H
	DW	01c3H
	DD	042555555r			; 53.3333
	DW	0212H
	DW	01c3H
	DD	042578e39r			; 53.8889
	DW	0213H
	DW	01c3H
	DD	04259c71cr			; 54.4444
	DW	0214H
	DW	01c2H
	DD	0425c0000r			; 55
	DW	0215H
	DW	01c2H
	DD	0425e0000r			; 55.5
	DW	0216H
	DW	01c2H
	DD	042600000r			; 56
	DW	0217H
	DW	01c2H
	DD	042620000r			; 56.5
	DW	0218H
	DW	01c2H
	DD	042640000r			; 57
	DW	0219H
	DW	01c2H
	DD	042660000r			; 57.5
	DW	021aH
	DW	01c2H
	DD	042680000r			; 58
	DW	021bH
	DW	01c2H
	DD	0426a0000r			; 58.5
	DW	021cH
	DW	01c3H
	DD	0426c0000r			; 59
	DW	021dH
	DW	01c3H
	DD	0426e0000r			; 59.5
	DW	00H
	DW	00H
	DD	07f7fffffr			; 3.40282e+38
?clock_small_hand_scale_down_20_left_30@@3PAUSCALE_DATA@@A DW 021dH ; clock_small_hand_scale_down_20_left_30
	DW	01c9H
	DD	000000000r			; 0
	DW	021eH
	DW	01caH
	DD	03e124925r			; 0.142857
	DW	021fH
	DW	01caH
	DD	03e924925r			; 0.285714
	DW	0220H
	DW	01caH
	DD	03edb6db7r			; 0.428571
	DW	0221H
	DW	01cbH
	DD	03f124925r			; 0.571429
	DW	0222H
	DW	01cbH
	DD	03f36db6er			; 0.714286
	DW	0223H
	DW	01ccH
	DD	03f5b6db7r			; 0.857143
	DW	0224H
	DW	01cdH
	DD	03f800000r			; 1
	DW	0225H
	DW	01ceH
	DD	03f955555r			; 1.16667
	DW	0226H
	DW	01cfH
	DD	03faaaaabr			; 1.33333
	DW	0226H
	DW	01d0H
	DD	03fc00000r			; 1.5
	DW	0227H
	DW	01d1H
	DD	03fd55555r			; 1.66667
	DW	0227H
	DW	01d2H
	DD	03feaaaabr			; 1.83333
	DW	0228H
	DW	01d3H
	DD	040000000r			; 2
	DW	0228H
	DW	01d4H
	DD	040092492r			; 2.14286
	DW	0228H
	DW	01d5H
	DD	040124925r			; 2.28571
	DW	0229H
	DW	01d6H
	DD	0401b6db7r			; 2.42857
	DW	0229H
	DW	01d7H
	DD	040249249r			; 2.57143
	DW	0229H
	DW	01d8H
	DD	0402db6dbr			; 2.71429
	DW	0229H
	DW	01d9H
	DD	04036db6er			; 2.85714
	DW	0229H
	DW	01daH
	DD	040400000r			; 3
	DW	0228H
	DW	01dbH
	DD	0404aaaabr			; 3.16667
	DW	0228H
	DW	01dcH
	DD	040555555r			; 3.33333
	DW	0227H
	DW	01ddH
	DD	040600000r			; 3.5
	DW	0226H
	DW	01deH
	DD	0406aaaabr			; 3.66667
	DW	0225H
	DW	01dfH
	DD	040755555r			; 3.83333
	DW	0224H
	DW	01dfH
	DD	040800000r			; 4
	DW	0223H
	DW	01dfH
	DD	040855555r			; 4.16667
	DW	0222H
	DW	01dfH
	DD	0408aaaabr			; 4.33333
	DW	0221H
	DW	01dfH
	DD	040900000r			; 4.5
	DW	0220H
	DW	01dfH
	DD	040955555r			; 4.66667
	DW	021fH
	DW	01dfH
	DD	0409aaaabr			; 4.83333
	DW	021eH
	DW	01dfH
	DD	040a00000r			; 5
	DW	021dH
	DW	01dfH
	DD	040a66666r			; 5.2
	DW	021cH
	DW	01dfH
	DD	040accccdr			; 5.4
	DW	021bH
	DW	01dfH
	DD	040b33333r			; 5.6
	DW	021aH
	DW	01dfH
	DD	040b9999ar			; 5.8
	DW	0219H
	DW	01dfH
	DD	040c00000r			; 6
	DW	0218H
	DW	01dfH
	DD	040c49249r			; 6.14286
	DW	0217H
	DW	01dfH
	DD	040c92492r			; 6.28571
	DW	0216H
	DW	01dfH
	DD	040cdb6dbr			; 6.42857
	DW	0215H
	DW	01dfH
	DD	040d24925r			; 6.57143
	DW	0214H
	DW	01dfH
	DD	040d6db6er			; 6.71429
	DW	0213H
	DW	01dfH
	DD	040db6db7r			; 6.85714
	DW	0212H
	DW	01deH
	DD	040e00000r			; 7
	DW	0211H
	DW	01ddH
	DD	040e55555r			; 7.16667
	DW	0210H
	DW	01dcH
	DD	040eaaaabr			; 7.33333
	DW	020fH
	DW	01dbH
	DD	040f00000r			; 7.5
	DW	020fH
	DW	01daH
	DD	040f55555r			; 7.66667
	DW	020eH
	DW	01d9H
	DD	040faaaabr			; 7.83333
	DW	020eH
	DW	01d8H
	DD	041000000r			; 8
	DW	020eH
	DW	01d7H
	DD	041024925r			; 8.14286
	DW	020dH
	DW	01d6H
	DD	041049249r			; 8.28571
	DW	020dH
	DW	01d5H
	DD	04106db6er			; 8.42857
	DW	020dH
	DW	01d4H
	DD	041092492r			; 8.57143
	DW	020dH
	DW	01d3H
	DD	0410b6db7r			; 8.71429
	DW	020dH
	DW	01d2H
	DD	0410db6dbr			; 8.85714
	DW	020dH
	DW	01d1H
	DD	041100000r			; 9
	DW	020dH
	DW	01d0H
	DD	04112aaabr			; 9.16667
	DW	020eH
	DW	01cfH
	DD	041155555r			; 9.33333
	DW	020eH
	DW	01ceH
	DD	041180000r			; 9.5
	DW	020eH
	DW	01cdH
	DD	0411aaaabr			; 9.66667
	DW	020fH
	DW	01ccH
	DD	0411d5555r			; 9.83333
	DW	0210H
	DW	01cbH
	DD	041200000r			; 10
	DW	0211H
	DW	01caH
	DD	04122aaabr			; 10.1667
	DW	0212H
	DW	01caH
	DD	041255555r			; 10.3333
	DW	0213H
	DW	01c9H
	DD	041280000r			; 10.5
	DW	0214H
	DW	01c9H
	DD	0412aaaabr			; 10.6667
	DW	0215H
	DW	01c8H
	DD	0412d5555r			; 10.8333
	DW	0216H
	DW	01c8H
	DD	041300000r			; 11
	DW	0217H
	DW	01c8H
	DD	041324925r			; 11.1429
	DW	0218H
	DW	01c8H
	DD	041349249r			; 11.2857
	DW	0219H
	DW	01c8H
	DD	04136db6er			; 11.4286
	DW	021aH
	DW	01c8H
	DD	041392492r			; 11.5714
	DW	021bH
	DW	01c8H
	DD	0413b6db7r			; 11.7143
	DW	021cH
	DW	01c8H
	DD	0413db6dbr			; 11.8571
	DW	00H
	DW	00H
	DD	07f7fffffr			; 3.40282e+38
?lh_engine_rpm_indicator_line1_down_20_ahead@@3PAUSCALE_DATA@@A DW 01f3H ; lh_engine_rpm_indicator_line1_down_20_ahead
	DW	01c6H
	DD	000000000r			; 0
	DW	01f3H
	DW	01c5H
	DD	040a00000r			; 5
	DW	01f3H
	DW	01c4H
	DD	041200000r			; 10
	DW	01f3H
	DW	01c3H
	DD	041555555r			; 13.3333
	DW	01f3H
	DW	01c2H
	DD	041855555r			; 16.6667
	DW	01f3H
	DW	01c1H
	DD	041a00000r			; 20
	DW	01f3H
	DW	01c0H
	DD	041baaaabr			; 23.3333
	DW	01f3H
	DW	01bfH
	DD	041d55555r			; 26.6667
	DW	01f3H
	DW	01beH
	DD	041f00000r			; 30
	DW	01f3H
	DW	01bdH
	DD	0420c0000r			; 35
	DW	01f3H
	DW	01bcH
	DD	042200000r			; 40
	DW	01f3H
	DW	01bbH
	DD	0422d5555r			; 43.3333
	DW	01f3H
	DW	01baH
	DD	0423aaaabr			; 46.6667
	DW	01f3H
	DW	01b9H
	DD	042480000r			; 50
	DW	01f3H
	DW	01b8H
	DD	042555555r			; 53.3333
	DW	01f3H
	DW	01b7H
	DD	04262aaabr			; 56.6667
	DW	01f3H
	DW	01b6H
	DD	042700000r			; 60
	DW	01f3H
	DW	01b5H
	DD	042735555r			; 60.8333
	DW	01f3H
	DW	01b4H
	DD	04276aaabr			; 61.6667
	DW	01f3H
	DW	01b3H
	DD	0427a0000r			; 62.5
	DW	01f3H
	DW	01b2H
	DD	0427d5555r			; 63.3333
	DW	01f3H
	DW	01b1H
	DD	042805555r			; 64.1667
	DW	01f3H
	DW	01b0H
	DD	042820000r			; 65
	DW	01f3H
	DW	01afH
	DD	04283aaabr			; 65.8333
	DW	01f3H
	DW	01aeH
	DD	042855555r			; 66.6667
	DW	01f3H
	DW	01adH
	DD	042870000r			; 67.5
	DW	01f3H
	DW	01acH
	DD	04288aaabr			; 68.3333
	DW	01f3H
	DW	01abH
	DD	0428a5555r			; 69.1667
	DW	01f3H
	DW	01aaH
	DD	0428c0000r			; 70
	DW	01f3H
	DW	01a9H
	DD	0428daaabr			; 70.8333
	DW	01f3H
	DW	01a8H
	DD	0428f5555r			; 71.6667
	DW	01f3H
	DW	01a7H
	DD	042910000r			; 72.5
	DW	01f3H
	DW	01a6H
	DD	04292aaabr			; 73.3333
	DW	01f3H
	DW	01a5H
	DD	042945555r			; 74.1667
	DW	01f3H
	DW	01a4H
	DD	042960000r			; 75
	DW	01f3H
	DW	01a3H
	DD	04297aaabr			; 75.8333
	DW	01f3H
	DW	01a2H
	DD	042995555r			; 76.6667
	DW	01f3H
	DW	01a1H
	DD	0429b0000r			; 77.5
	DW	01f3H
	DW	01a0H
	DD	0429caaabr			; 78.3333
	DW	01f3H
	DW	019fH
	DD	0429e5555r			; 79.1667
	DW	01f3H
	DW	019eH
	DD	042a00000r			; 80
	DW	01f3H
	DW	019dH
	DD	042a189d9r			; 80.7692
	DW	01f3H
	DW	019cH
	DD	042a313b1r			; 81.5385
	DW	01f3H
	DW	019bH
	DD	042a49d8ar			; 82.3077
	DW	01f3H
	DW	019aH
	DD	042a62762r			; 83.0769
	DW	01f3H
	DW	0199H
	DD	042a7b13br			; 83.8462
	DW	01f3H
	DW	0198H
	DD	042a93b14r			; 84.6154
	DW	01f3H
	DW	0197H
	DD	042aac4ecr			; 85.3846
	DW	01f3H
	DW	0196H
	DD	042ac4ec5r			; 86.1538
	DW	01f3H
	DW	0195H
	DD	042add89er			; 86.9231
	DW	01f3H
	DW	0194H
	DD	042af6276r			; 87.6923
	DW	01f3H
	DW	0193H
	DD	042b0ec4fr			; 88.4615
	DW	01f3H
	DW	0192H
	DD	042b27627r			; 89.2308
	DW	01f3H
	DW	0191H
	DD	042b40000r			; 90
	DW	01f3H
	DW	0190H
	DD	042b5aaabr			; 90.8333
	DW	01f3H
	DW	018fH
	DD	042b75555r			; 91.6667
	DW	01f3H
	DW	018eH
	DD	042b90000r			; 92.5
	DW	01f3H
	DW	018dH
	DD	042baaaabr			; 93.3333
	DW	01f3H
	DW	018cH
	DD	042bc5555r			; 94.1667
	DW	01f3H
	DW	018bH
	DD	042be0000r			; 95
	DW	01f3H
	DW	018aH
	DD	042bfaaabr			; 95.8333
	DW	01f3H
	DW	0189H
	DD	042c15555r			; 96.6667
	DW	01f3H
	DW	0188H
	DD	042c30000r			; 97.5
	DW	01f3H
	DW	0187H
	DD	042c4aaabr			; 98.3333
	DW	01f3H
	DW	0186H
	DD	042c65555r			; 99.1667
	DW	01f3H
	DW	0185H
	DD	042c80000r			; 100
	DW	01f3H
	DW	0184H
	DD	042c9aaabr			; 100.833
	DW	01f3H
	DW	0183H
	DD	042cb5555r			; 101.667
	DW	01f3H
	DW	0182H
	DD	042cd0000r			; 102.5
	DW	01f3H
	DW	0181H
	DD	042ceaaabr			; 103.333
	DW	01f3H
	DW	0180H
	DD	042d05555r			; 104.167
	DW	01f3H
	DW	017fH
	DD	042d20000r			; 105
	DW	01f3H
	DW	017eH
	DD	042d3aaabr			; 105.833
	DW	01f3H
	DW	017dH
	DD	042d55555r			; 106.667
	DW	01f3H
	DW	017cH
	DD	042d70000r			; 107.5
	DW	01f3H
	DW	017bH
	DD	042d8aaabr			; 108.333
	DW	01f3H
	DW	017aH
	DD	042da5555r			; 109.167
	DW	01f3H
	DW	0179H
	DD	042dc0000r			; 110
	DW	00H
	DW	00H
	DD	07f7fffffr			; 3.40282e+38
?lh_engine_rpm_indicator_line2_down_20_ahead@@3PAUSCALE_DATA@@A DW 01f4H ; lh_engine_rpm_indicator_line2_down_20_ahead
	DW	01c6H
	DD	000000000r			; 0
	DW	01f4H
	DW	01c5H
	DD	040a00000r			; 5
	DW	01f4H
	DW	01c4H
	DD	041200000r			; 10
	DW	01f4H
	DW	01c3H
	DD	041555555r			; 13.3333
	DW	01f4H
	DW	01c2H
	DD	041855555r			; 16.6667
	DW	01f4H
	DW	01c1H
	DD	041a00000r			; 20
	DW	01f4H
	DW	01c0H
	DD	041baaaabr			; 23.3333
	DW	01f4H
	DW	01bfH
	DD	041d55555r			; 26.6667
	DW	01f4H
	DW	01beH
	DD	041f00000r			; 30
	DW	01f4H
	DW	01bdH
	DD	0420c0000r			; 35
	DW	01f4H
	DW	01bcH
	DD	042200000r			; 40
	DW	01f4H
	DW	01bbH
	DD	0422d5555r			; 43.3333
	DW	01f4H
	DW	01baH
	DD	0423aaaabr			; 46.6667
	DW	01f4H
	DW	01b9H
	DD	042480000r			; 50
	DW	01f4H
	DW	01b8H
	DD	042555555r			; 53.3333
	DW	01f4H
	DW	01b7H
	DD	04262aaabr			; 56.6667
	DW	01f4H
	DW	01b6H
	DD	042700000r			; 60
	DW	01f4H
	DW	01b5H
	DD	042735555r			; 60.8333
	DW	01f4H
	DW	01b4H
	DD	04276aaabr			; 61.6667
	DW	01f4H
	DW	01b3H
	DD	0427a0000r			; 62.5
	DW	01f4H
	DW	01b2H
	DD	0427d5555r			; 63.3333
	DW	01f4H
	DW	01b1H
	DD	042805555r			; 64.1667
	DW	01f4H
	DW	01b0H
	DD	042820000r			; 65
	DW	01f4H
	DW	01afH
	DD	04283aaabr			; 65.8333
	DW	01f4H
	DW	01aeH
	DD	042855555r			; 66.6667
	DW	01f4H
	DW	01adH
	DD	042870000r			; 67.5
	DW	01f4H
	DW	01acH
	DD	04288aaabr			; 68.3333
	DW	01f4H
	DW	01abH
	DD	0428a5555r			; 69.1667
	DW	01f4H
	DW	01aaH
	DD	0428c0000r			; 70
	DW	01f4H
	DW	01a9H
	DD	0428daaabr			; 70.8333
	DW	01f4H
	DW	01a8H
	DD	0428f5555r			; 71.6667
	DW	01f4H
	DW	01a7H
	DD	042910000r			; 72.5
	DW	01f4H
	DW	01a6H
	DD	04292aaabr			; 73.3333
	DW	01f4H
	DW	01a5H
	DD	042945555r			; 74.1667
	DW	01f4H
	DW	01a4H
	DD	042960000r			; 75
	DW	01f4H
	DW	01a3H
	DD	04297aaabr			; 75.8333
	DW	01f4H
	DW	01a2H
	DD	042995555r			; 76.6667
	DW	01f4H
	DW	01a1H
	DD	0429b0000r			; 77.5
	DW	01f4H
	DW	01a0H
	DD	0429caaabr			; 78.3333
	DW	01f4H
	DW	019fH
	DD	0429e5555r			; 79.1667
	DW	01f4H
	DW	019eH
	DD	042a00000r			; 80
	DW	01f4H
	DW	019dH
	DD	042a189d9r			; 80.7692
	DW	01f4H
	DW	019cH
	DD	042a313b1r			; 81.5385
	DW	01f4H
	DW	019bH
	DD	042a49d8ar			; 82.3077
	DW	01f4H
	DW	019aH
	DD	042a62762r			; 83.0769
	DW	01f4H
	DW	0199H
	DD	042a7b13br			; 83.8462
	DW	01f4H
	DW	0198H
	DD	042a93b14r			; 84.6154
	DW	01f4H
	DW	0197H
	DD	042aac4ecr			; 85.3846
	DW	01f4H
	DW	0196H
	DD	042ac4ec5r			; 86.1538
	DW	01f4H
	DW	0195H
	DD	042add89er			; 86.9231
	DW	01f4H
	DW	0194H
	DD	042af6276r			; 87.6923
	DW	01f4H
	DW	0193H
	DD	042b0ec4fr			; 88.4615
	DW	01f4H
	DW	0192H
	DD	042b27627r			; 89.2308
	DW	01f4H
	DW	0191H
	DD	042b40000r			; 90
	DW	01f4H
	DW	0190H
	DD	042b5aaabr			; 90.8333
	DW	01f4H
	DW	018fH
	DD	042b75555r			; 91.6667
	DW	01f4H
	DW	018eH
	DD	042b90000r			; 92.5
	DW	01f4H
	DW	018dH
	DD	042baaaabr			; 93.3333
	DW	01f4H
	DW	018cH
	DD	042bc5555r			; 94.1667
	DW	01f4H
	DW	018bH
	DD	042be0000r			; 95
	DW	01f4H
	DW	018aH
	DD	042bfaaabr			; 95.8333
	DW	01f4H
	DW	0189H
	DD	042c15555r			; 96.6667
	DW	01f4H
	DW	0188H
	DD	042c30000r			; 97.5
	DW	01f4H
	DW	0187H
	DD	042c4aaabr			; 98.3333
	DW	01f4H
	DW	0186H
	DD	042c65555r			; 99.1667
	DW	01f4H
	DW	0185H
	DD	042c80000r			; 100
	DW	01f4H
	DW	0184H
	DD	042c9aaabr			; 100.833
	DW	01f4H
	DW	0183H
	DD	042cb5555r			; 101.667
	DW	01f4H
	DW	0182H
	DD	042cd0000r			; 102.5
	DW	01f4H
	DW	0181H
	DD	042ceaaabr			; 103.333
	DW	01f4H
	DW	0180H
	DD	042d05555r			; 104.167
	DW	01f4H
	DW	017fH
	DD	042d20000r			; 105
	DW	01f4H
	DW	017eH
	DD	042d3aaabr			; 105.833
	DW	01f4H
	DW	017dH
	DD	042d55555r			; 106.667
	DW	01f4H
	DW	017cH
	DD	042d70000r			; 107.5
	DW	01f4H
	DW	017bH
	DD	042d8aaabr			; 108.333
	DW	01f4H
	DW	017aH
	DD	042da5555r			; 109.167
	DW	01f4H
	DW	0179H
	DD	042dc0000r			; 110
	DW	00H
	DW	00H
	DD	07f7fffffr			; 3.40282e+38
?lh_engine_rpm_indicator_line3_down_20_ahead@@3PAUSCALE_DATA@@A DW 01f5H ; lh_engine_rpm_indicator_line3_down_20_ahead
	DW	01c6H
	DD	000000000r			; 0
	DW	01f5H
	DW	01c5H
	DD	040a00000r			; 5
	DW	01f5H
	DW	01c4H
	DD	041200000r			; 10
	DW	01f5H
	DW	01c3H
	DD	041555555r			; 13.3333
	DW	01f5H
	DW	01c2H
	DD	041855555r			; 16.6667
	DW	01f5H
	DW	01c1H
	DD	041a00000r			; 20
	DW	01f5H
	DW	01c0H
	DD	041baaaabr			; 23.3333
	DW	01f5H
	DW	01bfH
	DD	041d55555r			; 26.6667
	DW	01f5H
	DW	01beH
	DD	041f00000r			; 30
	DW	01f5H
	DW	01bdH
	DD	0420c0000r			; 35
	DW	01f5H
	DW	01bcH
	DD	042200000r			; 40
	DW	01f5H
	DW	01bbH
	DD	0422d5555r			; 43.3333
	DW	01f5H
	DW	01baH
	DD	0423aaaabr			; 46.6667
	DW	01f5H
	DW	01b9H
	DD	042480000r			; 50
	DW	01f5H
	DW	01b8H
	DD	042555555r			; 53.3333
	DW	01f5H
	DW	01b7H
	DD	04262aaabr			; 56.6667
	DW	01f5H
	DW	01b6H
	DD	042700000r			; 60
	DW	01f5H
	DW	01b5H
	DD	042735555r			; 60.8333
	DW	01f5H
	DW	01b4H
	DD	04276aaabr			; 61.6667
	DW	01f5H
	DW	01b3H
	DD	0427a0000r			; 62.5
	DW	01f5H
	DW	01b2H
	DD	0427d5555r			; 63.3333
	DW	01f5H
	DW	01b1H
	DD	042805555r			; 64.1667
	DW	01f5H
	DW	01b0H
	DD	042820000r			; 65
	DW	01f5H
	DW	01afH
	DD	04283aaabr			; 65.8333
	DW	01f5H
	DW	01aeH
	DD	042855555r			; 66.6667
	DW	01f5H
	DW	01adH
	DD	042870000r			; 67.5
	DW	01f5H
	DW	01acH
	DD	04288aaabr			; 68.3333
	DW	01f5H
	DW	01abH
	DD	0428a5555r			; 69.1667
	DW	01f5H
	DW	01aaH
	DD	0428c0000r			; 70
	DW	01f5H
	DW	01a9H
	DD	0428daaabr			; 70.8333
	DW	01f5H
	DW	01a8H
	DD	0428f5555r			; 71.6667
	DW	01f5H
	DW	01a7H
	DD	042910000r			; 72.5
	DW	01f5H
	DW	01a6H
	DD	04292aaabr			; 73.3333
	DW	01f5H
	DW	01a5H
	DD	042945555r			; 74.1667
	DW	01f5H
	DW	01a4H
	DD	042960000r			; 75
	DW	01f5H
	DW	01a3H
	DD	04297aaabr			; 75.8333
	DW	01f5H
	DW	01a2H
	DD	042995555r			; 76.6667
	DW	01f5H
	DW	01a1H
	DD	0429b0000r			; 77.5
	DW	01f5H
	DW	01a0H
	DD	0429caaabr			; 78.3333
	DW	01f5H
	DW	019fH
	DD	0429e5555r			; 79.1667
	DW	01f5H
	DW	019eH
	DD	042a00000r			; 80
	DW	01f5H
	DW	019dH
	DD	042a189d9r			; 80.7692
	DW	01f5H
	DW	019cH
	DD	042a313b1r			; 81.5385
	DW	01f5H
	DW	019bH
	DD	042a49d8ar			; 82.3077
	DW	01f5H
	DW	019aH
	DD	042a62762r			; 83.0769
	DW	01f5H
	DW	0199H
	DD	042a7b13br			; 83.8462
	DW	01f5H
	DW	0198H
	DD	042a93b14r			; 84.6154
	DW	01f5H
	DW	0197H
	DD	042aac4ecr			; 85.3846
	DW	01f5H
	DW	0196H
	DD	042ac4ec5r			; 86.1538
	DW	01f5H
	DW	0195H
	DD	042add89er			; 86.9231
	DW	01f5H
	DW	0194H
	DD	042af6276r			; 87.6923
	DW	01f5H
	DW	0193H
	DD	042b0ec4fr			; 88.4615
	DW	01f5H
	DW	0192H
	DD	042b27627r			; 89.2308
	DW	01f5H
	DW	0191H
	DD	042b40000r			; 90
	DW	01f5H
	DW	0190H
	DD	042b5aaabr			; 90.8333
	DW	01f5H
	DW	018fH
	DD	042b75555r			; 91.6667
	DW	01f5H
	DW	018eH
	DD	042b90000r			; 92.5
	DW	01f5H
	DW	018dH
	DD	042baaaabr			; 93.3333
	DW	01f5H
	DW	018cH
	DD	042bc5555r			; 94.1667
	DW	01f5H
	DW	018bH
	DD	042be0000r			; 95
	DW	01f5H
	DW	018aH
	DD	042bfaaabr			; 95.8333
	DW	01f5H
	DW	0189H
	DD	042c15555r			; 96.6667
	DW	01f5H
	DW	0188H
	DD	042c30000r			; 97.5
	DW	01f5H
	DW	0187H
	DD	042c4aaabr			; 98.3333
	DW	01f5H
	DW	0186H
	DD	042c65555r			; 99.1667
	DW	01f5H
	DW	0185H
	DD	042c80000r			; 100
	DW	01f5H
	DW	0184H
	DD	042c9aaabr			; 100.833
	DW	01f5H
	DW	0183H
	DD	042cb5555r			; 101.667
	DW	01f5H
	DW	0182H
	DD	042cd0000r			; 102.5
	DW	01f5H
	DW	0181H
	DD	042ceaaabr			; 103.333
	DW	01f5H
	DW	0180H
	DD	042d05555r			; 104.167
	DW	01f5H
	DW	017fH
	DD	042d20000r			; 105
	DW	01f5H
	DW	017eH
	DD	042d3aaabr			; 105.833
	DW	01f5H
	DW	017dH
	DD	042d55555r			; 106.667
	DW	01f5H
	DW	017cH
	DD	042d70000r			; 107.5
	DW	01f5H
	DW	017bH
	DD	042d8aaabr			; 108.333
	DW	01f5H
	DW	017aH
	DD	042da5555r			; 109.167
	DW	01f5H
	DW	0179H
	DD	042dc0000r			; 110
	DW	00H
	DW	00H
	DD	07f7fffffr			; 3.40282e+38
?rh_engine_rpm_indicator_line1_down_20_ahead@@3PAUSCALE_DATA@@A DW 0203H ; rh_engine_rpm_indicator_line1_down_20_ahead
	DW	01c6H
	DD	000000000r			; 0
	DW	0203H
	DW	01c5H
	DD	040a00000r			; 5
	DW	0203H
	DW	01c4H
	DD	041200000r			; 10
	DW	0203H
	DW	01c3H
	DD	041555555r			; 13.3333
	DW	0203H
	DW	01c2H
	DD	041855555r			; 16.6667
	DW	0203H
	DW	01c1H
	DD	041a00000r			; 20
	DW	0203H
	DW	01c0H
	DD	041baaaabr			; 23.3333
	DW	0203H
	DW	01bfH
	DD	041d55555r			; 26.6667
	DW	0203H
	DW	01beH
	DD	041f00000r			; 30
	DW	0203H
	DW	01bdH
	DD	0420c0000r			; 35
	DW	0203H
	DW	01bcH
	DD	042200000r			; 40
	DW	0203H
	DW	01bbH
	DD	0422d5555r			; 43.3333
	DW	0203H
	DW	01baH
	DD	0423aaaabr			; 46.6667
	DW	0203H
	DW	01b9H
	DD	042480000r			; 50
	DW	0203H
	DW	01b8H
	DD	042555555r			; 53.3333
	DW	0203H
	DW	01b7H
	DD	04262aaabr			; 56.6667
	DW	0203H
	DW	01b6H
	DD	042700000r			; 60
	DW	0203H
	DW	01b5H
	DD	042735555r			; 60.8333
	DW	0203H
	DW	01b4H
	DD	04276aaabr			; 61.6667
	DW	0203H
	DW	01b3H
	DD	0427a0000r			; 62.5
	DW	0203H
	DW	01b2H
	DD	0427d5555r			; 63.3333
	DW	0203H
	DW	01b1H
	DD	042805555r			; 64.1667
	DW	0203H
	DW	01b0H
	DD	042820000r			; 65
	DW	0203H
	DW	01afH
	DD	04283aaabr			; 65.8333
	DW	0203H
	DW	01aeH
	DD	042855555r			; 66.6667
	DW	0203H
	DW	01adH
	DD	042870000r			; 67.5
	DW	0203H
	DW	01acH
	DD	04288aaabr			; 68.3333
	DW	0203H
	DW	01abH
	DD	0428a5555r			; 69.1667
	DW	0203H
	DW	01aaH
	DD	0428c0000r			; 70
	DW	0203H
	DW	01a9H
	DD	0428daaabr			; 70.8333
	DW	0203H
	DW	01a8H
	DD	0428f5555r			; 71.6667
	DW	0203H
	DW	01a7H
	DD	042910000r			; 72.5
	DW	0203H
	DW	01a6H
	DD	04292aaabr			; 73.3333
	DW	0203H
	DW	01a5H
	DD	042945555r			; 74.1667
	DW	0203H
	DW	01a4H
	DD	042960000r			; 75
	DW	0203H
	DW	01a3H
	DD	04297aaabr			; 75.8333
	DW	0203H
	DW	01a2H
	DD	042995555r			; 76.6667
	DW	0203H
	DW	01a1H
	DD	0429b0000r			; 77.5
	DW	0203H
	DW	01a0H
	DD	0429caaabr			; 78.3333
	DW	0203H
	DW	019fH
	DD	0429e5555r			; 79.1667
	DW	0203H
	DW	019eH
	DD	042a00000r			; 80
	DW	0203H
	DW	019dH
	DD	042a189d9r			; 80.7692
	DW	0203H
	DW	019cH
	DD	042a313b1r			; 81.5385
	DW	0203H
	DW	019bH
	DD	042a49d8ar			; 82.3077
	DW	0203H
	DW	019aH
	DD	042a62762r			; 83.0769
	DW	0203H
	DW	0199H
	DD	042a7b13br			; 83.8462
	DW	0203H
	DW	0198H
	DD	042a93b14r			; 84.6154
	DW	0203H
	DW	0197H
	DD	042aac4ecr			; 85.3846
	DW	0203H
	DW	0196H
	DD	042ac4ec5r			; 86.1538
	DW	0203H
	DW	0195H
	DD	042add89er			; 86.9231
	DW	0203H
	DW	0194H
	DD	042af6276r			; 87.6923
	DW	0203H
	DW	0193H
	DD	042b0ec4fr			; 88.4615
	DW	0203H
	DW	0192H
	DD	042b27627r			; 89.2308
	DW	0203H
	DW	0191H
	DD	042b40000r			; 90
	DW	0203H
	DW	0190H
	DD	042b5aaabr			; 90.8333
	DW	0203H
	DW	018fH
	DD	042b75555r			; 91.6667
	DW	0203H
	DW	018eH
	DD	042b90000r			; 92.5
	DW	0203H
	DW	018dH
	DD	042baaaabr			; 93.3333
	DW	0203H
	DW	018cH
	DD	042bc5555r			; 94.1667
	DW	0203H
	DW	018bH
	DD	042be0000r			; 95
	DW	0203H
	DW	018aH
	DD	042bfaaabr			; 95.8333
	DW	0203H
	DW	0189H
	DD	042c15555r			; 96.6667
	DW	0203H
	DW	0188H
	DD	042c30000r			; 97.5
	DW	0203H
	DW	0187H
	DD	042c4aaabr			; 98.3333
	DW	0203H
	DW	0186H
	DD	042c65555r			; 99.1667
	DW	0203H
	DW	0185H
	DD	042c80000r			; 100
	DW	0203H
	DW	0184H
	DD	042c9aaabr			; 100.833
	DW	0203H
	DW	0183H
	DD	042cb5555r			; 101.667
	DW	0203H
	DW	0182H
	DD	042cd0000r			; 102.5
	DW	0203H
	DW	0181H
	DD	042ceaaabr			; 103.333
	DW	0203H
	DW	0180H
	DD	042d05555r			; 104.167
	DW	0203H
	DW	017fH
	DD	042d20000r			; 105
	DW	0203H
	DW	017eH
	DD	042d3aaabr			; 105.833
	DW	0203H
	DW	017dH
	DD	042d55555r			; 106.667
	DW	0203H
	DW	017cH
	DD	042d70000r			; 107.5
	DW	0203H
	DW	017bH
	DD	042d8aaabr			; 108.333
	DW	0203H
	DW	017aH
	DD	042da5555r			; 109.167
	DW	0203H
	DW	0179H
	DD	042dc0000r			; 110
	DW	00H
	DW	00H
	DD	07f7fffffr			; 3.40282e+38
?rh_engine_rpm_indicator_line2_down_20_ahead@@3PAUSCALE_DATA@@A DW 0204H ; rh_engine_rpm_indicator_line2_down_20_ahead
	DW	01c6H
	DD	000000000r			; 0
	DW	0204H
	DW	01c5H
	DD	040a00000r			; 5
	DW	0204H
	DW	01c4H
	DD	041200000r			; 10
	DW	0204H
	DW	01c3H
	DD	041555555r			; 13.3333
	DW	0204H
	DW	01c2H
	DD	041855555r			; 16.6667
	DW	0204H
	DW	01c1H
	DD	041a00000r			; 20
	DW	0204H
	DW	01c0H
	DD	041baaaabr			; 23.3333
	DW	0204H
	DW	01bfH
	DD	041d55555r			; 26.6667
	DW	0204H
	DW	01beH
	DD	041f00000r			; 30
	DW	0204H
	DW	01bdH
	DD	0420c0000r			; 35
	DW	0204H
	DW	01bcH
	DD	042200000r			; 40
	DW	0204H
	DW	01bbH
	DD	0422d5555r			; 43.3333
	DW	0204H
	DW	01baH
	DD	0423aaaabr			; 46.6667
	DW	0204H
	DW	01b9H
	DD	042480000r			; 50
	DW	0204H
	DW	01b8H
	DD	042555555r			; 53.3333
	DW	0204H
	DW	01b7H
	DD	04262aaabr			; 56.6667
	DW	0204H
	DW	01b6H
	DD	042700000r			; 60
	DW	0204H
	DW	01b5H
	DD	042735555r			; 60.8333
	DW	0204H
	DW	01b4H
	DD	04276aaabr			; 61.6667
	DW	0204H
	DW	01b3H
	DD	0427a0000r			; 62.5
	DW	0204H
	DW	01b2H
	DD	0427d5555r			; 63.3333
	DW	0204H
	DW	01b1H
	DD	042805555r			; 64.1667
	DW	0204H
	DW	01b0H
	DD	042820000r			; 65
	DW	0204H
	DW	01afH
	DD	04283aaabr			; 65.8333
	DW	0204H
	DW	01aeH
	DD	042855555r			; 66.6667
	DW	0204H
	DW	01adH
	DD	042870000r			; 67.5
	DW	0204H
	DW	01acH
	DD	04288aaabr			; 68.3333
	DW	0204H
	DW	01abH
	DD	0428a5555r			; 69.1667
	DW	0204H
	DW	01aaH
	DD	0428c0000r			; 70
	DW	0204H
	DW	01a9H
	DD	0428daaabr			; 70.8333
	DW	0204H
	DW	01a8H
	DD	0428f5555r			; 71.6667
	DW	0204H
	DW	01a7H
	DD	042910000r			; 72.5
	DW	0204H
	DW	01a6H
	DD	04292aaabr			; 73.3333
	DW	0204H
	DW	01a5H
	DD	042945555r			; 74.1667
	DW	0204H
	DW	01a4H
	DD	042960000r			; 75
	DW	0204H
	DW	01a3H
	DD	04297aaabr			; 75.8333
	DW	0204H
	DW	01a2H
	DD	042995555r			; 76.6667
	DW	0204H
	DW	01a1H
	DD	0429b0000r			; 77.5
	DW	0204H
	DW	01a0H
	DD	0429caaabr			; 78.3333
	DW	0204H
	DW	019fH
	DD	0429e5555r			; 79.1667
	DW	0204H
	DW	019eH
	DD	042a00000r			; 80
	DW	0204H
	DW	019dH
	DD	042a189d9r			; 80.7692
	DW	0204H
	DW	019cH
	DD	042a313b1r			; 81.5385
	DW	0204H
	DW	019bH
	DD	042a49d8ar			; 82.3077
	DW	0204H
	DW	019aH
	DD	042a62762r			; 83.0769
	DW	0204H
	DW	0199H
	DD	042a7b13br			; 83.8462
	DW	0204H
	DW	0198H
	DD	042a93b14r			; 84.6154
	DW	0204H
	DW	0197H
	DD	042aac4ecr			; 85.3846
	DW	0204H
	DW	0196H
	DD	042ac4ec5r			; 86.1538
	DW	0204H
	DW	0195H
	DD	042add89er			; 86.9231
	DW	0204H
	DW	0194H
	DD	042af6276r			; 87.6923
	DW	0204H
	DW	0193H
	DD	042b0ec4fr			; 88.4615
	DW	0204H
	DW	0192H
	DD	042b27627r			; 89.2308
	DW	0204H
	DW	0191H
	DD	042b40000r			; 90
	DW	0204H
	DW	0190H
	DD	042b5aaabr			; 90.8333
	DW	0204H
	DW	018fH
	DD	042b75555r			; 91.6667
	DW	0204H
	DW	018eH
	DD	042b90000r			; 92.5
	DW	0204H
	DW	018dH
	DD	042baaaabr			; 93.3333
	DW	0204H
	DW	018cH
	DD	042bc5555r			; 94.1667
	DW	0204H
	DW	018bH
	DD	042be0000r			; 95
	DW	0204H
	DW	018aH
	DD	042bfaaabr			; 95.8333
	DW	0204H
	DW	0189H
	DD	042c15555r			; 96.6667
	DW	0204H
	DW	0188H
	DD	042c30000r			; 97.5
	DW	0204H
	DW	0187H
	DD	042c4aaabr			; 98.3333
	DW	0204H
	DW	0186H
	DD	042c65555r			; 99.1667
	DW	0204H
	DW	0185H
	DD	042c80000r			; 100
	DW	0204H
	DW	0184H
	DD	042c9aaabr			; 100.833
	DW	0204H
	DW	0183H
	DD	042cb5555r			; 101.667
	DW	0204H
	DW	0182H
	DD	042cd0000r			; 102.5
	DW	0204H
	DW	0181H
	DD	042ceaaabr			; 103.333
	DW	0204H
	DW	0180H
	DD	042d05555r			; 104.167
	DW	0204H
	DW	017fH
	DD	042d20000r			; 105
	DW	0204H
	DW	017eH
	DD	042d3aaabr			; 105.833
	DW	0204H
	DW	017dH
	DD	042d55555r			; 106.667
	DW	0204H
	DW	017cH
	DD	042d70000r			; 107.5
	DW	0204H
	DW	017bH
	DD	042d8aaabr			; 108.333
	DW	0204H
	DW	017aH
	DD	042da5555r			; 109.167
	DW	0204H
	DW	0179H
	DD	042dc0000r			; 110
	DW	00H
	DW	00H
	DD	07f7fffffr			; 3.40282e+38
?rh_engine_rpm_indicator_line3_down_20_ahead@@3PAUSCALE_DATA@@A DW 0205H ; rh_engine_rpm_indicator_line3_down_20_ahead
	DW	01c6H
	DD	000000000r			; 0
	DW	0205H
	DW	01c5H
	DD	040a00000r			; 5
	DW	0205H
	DW	01c4H
	DD	041200000r			; 10
	DW	0205H
	DW	01c3H
	DD	041555555r			; 13.3333
	DW	0205H
	DW	01c2H
	DD	041855555r			; 16.6667
	DW	0205H
	DW	01c1H
	DD	041a00000r			; 20
	DW	0205H
	DW	01c0H
	DD	041baaaabr			; 23.3333
	DW	0205H
	DW	01bfH
	DD	041d55555r			; 26.6667
	DW	0205H
	DW	01beH
	DD	041f00000r			; 30
	DW	0205H
	DW	01bdH
	DD	0420c0000r			; 35
	DW	0205H
	DW	01bcH
	DD	042200000r			; 40
	DW	0205H
	DW	01bbH
	DD	0422d5555r			; 43.3333
	DW	0205H
	DW	01baH
	DD	0423aaaabr			; 46.6667
	DW	0205H
	DW	01b9H
	DD	042480000r			; 50
	DW	0205H
	DW	01b8H
	DD	042555555r			; 53.3333
	DW	0205H
	DW	01b7H
	DD	04262aaabr			; 56.6667
	DW	0205H
	DW	01b6H
	DD	042700000r			; 60
	DW	0205H
	DW	01b5H
	DD	042735555r			; 60.8333
	DW	0205H
	DW	01b4H
	DD	04276aaabr			; 61.6667
	DW	0205H
	DW	01b3H
	DD	0427a0000r			; 62.5
	DW	0205H
	DW	01b2H
	DD	0427d5555r			; 63.3333
	DW	0205H
	DW	01b1H
	DD	042805555r			; 64.1667
	DW	0205H
	DW	01b0H
	DD	042820000r			; 65
	DW	0205H
	DW	01afH
	DD	04283aaabr			; 65.8333
	DW	0205H
	DW	01aeH
	DD	042855555r			; 66.6667
	DW	0205H
	DW	01adH
	DD	042870000r			; 67.5
	DW	0205H
	DW	01acH
	DD	04288aaabr			; 68.3333
	DW	0205H
	DW	01abH
	DD	0428a5555r			; 69.1667
	DW	0205H
	DW	01aaH
	DD	0428c0000r			; 70
	DW	0205H
	DW	01a9H
	DD	0428daaabr			; 70.8333
	DW	0205H
	DW	01a8H
	DD	0428f5555r			; 71.6667
	DW	0205H
	DW	01a7H
	DD	042910000r			; 72.5
	DW	0205H
	DW	01a6H
	DD	04292aaabr			; 73.3333
	DW	0205H
	DW	01a5H
	DD	042945555r			; 74.1667
	DW	0205H
	DW	01a4H
	DD	042960000r			; 75
	DW	0205H
	DW	01a3H
	DD	04297aaabr			; 75.8333
	DW	0205H
	DW	01a2H
	DD	042995555r			; 76.6667
	DW	0205H
	DW	01a1H
	DD	0429b0000r			; 77.5
	DW	0205H
	DW	01a0H
	DD	0429caaabr			; 78.3333
	DW	0205H
	DW	019fH
	DD	0429e5555r			; 79.1667
	DW	0205H
	DW	019eH
	DD	042a00000r			; 80
	DW	0205H
	DW	019dH
	DD	042a189d9r			; 80.7692
	DW	0205H
	DW	019cH
	DD	042a313b1r			; 81.5385
	DW	0205H
	DW	019bH
	DD	042a49d8ar			; 82.3077
	DW	0205H
	DW	019aH
	DD	042a62762r			; 83.0769
	DW	0205H
	DW	0199H
	DD	042a7b13br			; 83.8462
	DW	0205H
	DW	0198H
	DD	042a93b14r			; 84.6154
	DW	0205H
	DW	0197H
	DD	042aac4ecr			; 85.3846
	DW	0205H
	DW	0196H
	DD	042ac4ec5r			; 86.1538
	DW	0205H
	DW	0195H
	DD	042add89er			; 86.9231
	DW	0205H
	DW	0194H
	DD	042af6276r			; 87.6923
	DW	0205H
	DW	0193H
	DD	042b0ec4fr			; 88.4615
	DW	0205H
	DW	0192H
	DD	042b27627r			; 89.2308
	DW	0205H
	DW	0191H
	DD	042b40000r			; 90
	DW	0205H
	DW	0190H
	DD	042b5aaabr			; 90.8333
	DW	0205H
	DW	018fH
	DD	042b75555r			; 91.6667
	DW	0205H
	DW	018eH
	DD	042b90000r			; 92.5
	DW	0205H
	DW	018dH
	DD	042baaaabr			; 93.3333
	DW	0205H
	DW	018cH
	DD	042bc5555r			; 94.1667
	DW	0205H
	DW	018bH
	DD	042be0000r			; 95
	DW	0205H
	DW	018aH
	DD	042bfaaabr			; 95.8333
	DW	0205H
	DW	0189H
	DD	042c15555r			; 96.6667
	DW	0205H
	DW	0188H
	DD	042c30000r			; 97.5
	DW	0205H
	DW	0187H
	DD	042c4aaabr			; 98.3333
	DW	0205H
	DW	0186H
	DD	042c65555r			; 99.1667
	DW	0205H
	DW	0185H
	DD	042c80000r			; 100
	DW	0205H
	DW	0184H
	DD	042c9aaabr			; 100.833
	DW	0205H
	DW	0183H
	DD	042cb5555r			; 101.667
	DW	0205H
	DW	0182H
	DD	042cd0000r			; 102.5
	DW	0205H
	DW	0181H
	DD	042ceaaabr			; 103.333
	DW	0205H
	DW	0180H
	DD	042d05555r			; 104.167
	DW	0205H
	DW	017fH
	DD	042d20000r			; 105
	DW	0205H
	DW	017eH
	DD	042d3aaabr			; 105.833
	DW	0205H
	DW	017dH
	DD	042d55555r			; 106.667
	DW	0205H
	DW	017cH
	DD	042d70000r			; 107.5
	DW	0205H
	DW	017bH
	DD	042d8aaabr			; 108.333
	DW	0205H
	DW	017aH
	DD	042da5555r			; 109.167
	DW	0205H
	DW	0179H
	DD	042dc0000r			; 110
	DW	00H
	DW	00H
	DD	07f7fffffr			; 3.40282e+38
?lh_engine_rpm_indicator_line1_down_20_right_30@@3PAUSCALE_DATA@@A DW 0feH ; lh_engine_rpm_indicator_line1_down_20_right_30
	DW	01b1H
	DD	000000000r			; 0
	DW	0feH
	DW	01b0H
	DD	040a00000r			; 5
	DW	0fdH
	DW	01afH
	DD	041200000r			; 10
	DW	0fdH
	DW	01aeH
	DD	041555555r			; 13.3333
	DW	0fdH
	DW	01adH
	DD	041855555r			; 16.6667
	DW	0fdH
	DW	01acH
	DD	041a00000r			; 20
	DW	0fdH
	DW	01abH
	DD	041c80000r			; 25
	DW	0fdH
	DW	01aaH
	DD	041f00000r			; 30
	DW	0fcH
	DW	01a9H
	DD	042055555r			; 33.3333
	DW	0fcH
	DW	01a8H
	DD	04212aaabr			; 36.6667
	DW	0fcH
	DW	01a7H
	DD	042200000r			; 40
	DW	0fcH
	DW	01a6H
	DD	042340000r			; 45
	DW	0fcH
	DW	01a5H
	DD	042480000r			; 50
	DW	0fbH
	DW	01a4H
	DD	042555555r			; 53.3333
	DW	0fbH
	DW	01a3H
	DD	04262aaabr			; 56.6667
	DW	0fbH
	DW	01a2H
	DD	042700000r			; 60
	DW	0fbH
	DW	01a1H
	DD	04273a2e9r			; 60.9091
	DW	0fbH
	DW	01a0H
	DD	0427745d1r			; 61.8182
	DW	0fbH
	DW	019fH
	DD	0427ae8bar			; 62.7273
	DW	0faH
	DW	019eH
	DD	0427e8ba3r			; 63.6364
	DW	0faH
	DW	019dH
	DD	042811746r			; 64.5455
	DW	0faH
	DW	019cH
	DD	04282e8bar			; 65.4545
	DW	0faH
	DW	019bH
	DD	04284ba2fr			; 66.3636
	DW	0faH
	DW	019aH
	DD	042868ba3r			; 67.2727
	DW	0f9H
	DW	0199H
	DD	042885d17r			; 68.1818
	DW	0f9H
	DW	0198H
	DD	0428a2e8cr			; 69.0909
	DW	0f9H
	DW	0197H
	DD	0428c0000r			; 70
	DW	0f9H
	DW	0196H
	DD	0428dd174r			; 70.9091
	DW	0f9H
	DW	0195H
	DD	0428fa2e9r			; 71.8182
	DW	0f9H
	DW	0194H
	DD	04291745dr			; 72.7273
	DW	0f8H
	DW	0193H
	DD	0429345d1r			; 73.6364
	DW	0f8H
	DW	0192H
	DD	042951746r			; 74.5455
	DW	0f8H
	DW	0191H
	DD	04296e8bar			; 75.4545
	DW	0f8H
	DW	0190H
	DD	04298ba2fr			; 76.3636
	DW	0f8H
	DW	018fH
	DD	0429a8ba3r			; 77.2727
	DW	0f7H
	DW	018eH
	DD	0429c5d17r			; 78.1818
	DW	0f7H
	DW	018dH
	DD	0429e2e8cr			; 79.0909
	DW	0f7H
	DW	018cH
	DD	042a00000r			; 80
	DW	0f7H
	DW	018bH
	DD	042a1aaabr			; 80.8333
	DW	0f7H
	DW	018aH
	DD	042a35555r			; 81.6667
	DW	0f7H
	DW	0189H
	DD	042a50000r			; 82.5
	DW	0f6H
	DW	0188H
	DD	042a6aaabr			; 83.3333
	DW	0f6H
	DW	0187H
	DD	042a85555r			; 84.1667
	DW	0f6H
	DW	0186H
	DD	042aa0000r			; 85
	DW	0f6H
	DW	0185H
	DD	042abaaabr			; 85.8333
	DW	0f6H
	DW	0184H
	DD	042ad5555r			; 86.6667
	DW	0f5H
	DW	0183H
	DD	042af0000r			; 87.5
	DW	0f5H
	DW	0182H
	DD	042b0aaabr			; 88.3333
	DW	0f5H
	DW	0181H
	DD	042b25555r			; 89.1667
	DW	0f5H
	DW	0180H
	DD	042b40000r			; 90
	DW	0f5H
	DW	017fH
	DD	042b5d174r			; 90.9091
	DW	0f5H
	DW	017eH
	DD	042b7a2e9r			; 91.8182
	DW	0f4H
	DW	017dH
	DD	042b9745dr			; 92.7273
	DW	0f4H
	DW	017cH
	DD	042bb45d1r			; 93.6364
	DW	0f4H
	DW	017bH
	DD	042bd1746r			; 94.5455
	DW	0f4H
	DW	017aH
	DD	042bee8bar			; 95.4545
	DW	0f4H
	DW	0179H
	DD	042c0ba2fr			; 96.3636
	DW	0f3H
	DW	0178H
	DD	042c28ba3r			; 97.2727
	DW	0f3H
	DW	0177H
	DD	042c45d17r			; 98.1818
	DW	0f3H
	DW	0176H
	DD	042c62e8cr			; 99.0909
	DW	0f3H
	DW	0175H
	DD	042c80000r			; 100
	DW	0f3H
	DW	0174H
	DD	042c9aaabr			; 100.833
	DW	0f3H
	DW	0173H
	DD	042cb5555r			; 101.667
	DW	0f2H
	DW	0172H
	DD	042cd0000r			; 102.5
	DW	0f2H
	DW	0171H
	DD	042ceaaabr			; 103.333
	DW	0f2H
	DW	0170H
	DD	042d05555r			; 104.167
	DW	0f2H
	DW	016fH
	DD	042d20000r			; 105
	DW	0f2H
	DW	016eH
	DD	042d3aaabr			; 105.833
	DW	0f1H
	DW	016dH
	DD	042d55555r			; 106.667
	DW	0f1H
	DW	016cH
	DD	042d70000r			; 107.5
	DW	0f1H
	DW	016bH
	DD	042d8aaabr			; 108.333
	DW	0f1H
	DW	016aH
	DD	042da5555r			; 109.167
	DW	0f1H
	DW	0169H
	DD	042dc0000r			; 110
	DW	00H
	DW	00H
	DD	07f7fffffr			; 3.40282e+38
?lh_engine_rpm_indicator_line2_down_20_right_30@@3PAUSCALE_DATA@@A DW 0ffH ; lh_engine_rpm_indicator_line2_down_20_right_30
	DW	01b1H
	DD	000000000r			; 0
	DW	0ffH
	DW	01b0H
	DD	040a00000r			; 5
	DW	0feH
	DW	01afH
	DD	041200000r			; 10
	DW	0feH
	DW	01aeH
	DD	041555555r			; 13.3333
	DW	0feH
	DW	01adH
	DD	041855555r			; 16.6667
	DW	0feH
	DW	01acH
	DD	041a00000r			; 20
	DW	0fdH
	DW	01abH
	DD	041c80000r			; 25
	DW	0fdH
	DW	01aaH
	DD	041f00000r			; 30
	DW	0fdH
	DW	01a9H
	DD	042055555r			; 33.3333
	DW	0fdH
	DW	01a8H
	DD	04212aaabr			; 36.6667
	DW	0fdH
	DW	01a7H
	DD	042200000r			; 40
	DW	0fdH
	DW	01a6H
	DD	042340000r			; 45
	DW	0fcH
	DW	01a5H
	DD	042480000r			; 50
	DW	0fcH
	DW	01a4H
	DD	042555555r			; 53.3333
	DW	0fcH
	DW	01a3H
	DD	04262aaabr			; 56.6667
	DW	0fcH
	DW	01a2H
	DD	042700000r			; 60
	DW	0fcH
	DW	01a1H
	DD	04273a2e9r			; 60.9091
	DW	0fcH
	DW	01a0H
	DD	0427745d1r			; 61.8182
	DW	0fcH
	DW	019fH
	DD	0427ae8bar			; 62.7273
	DW	0fbH
	DW	019eH
	DD	0427e8ba3r			; 63.6364
	DW	0fbH
	DW	019dH
	DD	042811746r			; 64.5455
	DW	0fbH
	DW	019cH
	DD	04282e8bar			; 65.4545
	DW	0fbH
	DW	019bH
	DD	04284ba2fr			; 66.3636
	DW	0faH
	DW	019aH
	DD	042868ba3r			; 67.2727
	DW	0faH
	DW	0199H
	DD	042885d17r			; 68.1818
	DW	0faH
	DW	0198H
	DD	0428a2e8cr			; 69.0909
	DW	0faH
	DW	0197H
	DD	0428c0000r			; 70
	DW	0faH
	DW	0196H
	DD	0428dd174r			; 70.9091
	DW	0faH
	DW	0195H
	DD	0428fa2e9r			; 71.8182
	DW	0faH
	DW	0194H
	DD	04291745dr			; 72.7273
	DW	0f9H
	DW	0193H
	DD	0429345d1r			; 73.6364
	DW	0f9H
	DW	0192H
	DD	042951746r			; 74.5455
	DW	0f9H
	DW	0191H
	DD	04296e8bar			; 75.4545
	DW	0f9H
	DW	0190H
	DD	04298ba2fr			; 76.3636
	DW	0f8H
	DW	018fH
	DD	0429a8ba3r			; 77.2727
	DW	0f8H
	DW	018eH
	DD	0429c5d17r			; 78.1818
	DW	0f8H
	DW	018dH
	DD	0429e2e8cr			; 79.0909
	DW	0f8H
	DW	018cH
	DD	042a00000r			; 80
	DW	0f8H
	DW	018bH
	DD	042a1aaabr			; 80.8333
	DW	0f8H
	DW	018aH
	DD	042a35555r			; 81.6667
	DW	0f8H
	DW	0189H
	DD	042a50000r			; 82.5
	DW	0f7H
	DW	0188H
	DD	042a6aaabr			; 83.3333
	DW	0f7H
	DW	0187H
	DD	042a85555r			; 84.1667
	DW	0f7H
	DW	0186H
	DD	042aa0000r			; 85
	DW	0f7H
	DW	0185H
	DD	042abaaabr			; 85.8333
	DW	0f7H
	DW	0184H
	DD	042ad5555r			; 86.6667
	DW	0f6H
	DW	0183H
	DD	042af0000r			; 87.5
	DW	0f6H
	DW	0182H
	DD	042b0aaabr			; 88.3333
	DW	0f6H
	DW	0181H
	DD	042b25555r			; 89.1667
	DW	0f6H
	DW	0180H
	DD	042b40000r			; 90
	DW	0f6H
	DW	017fH
	DD	042b5d174r			; 90.9091
	DW	0f6H
	DW	017eH
	DD	042b7a2e9r			; 91.8182
	DW	0f5H
	DW	017dH
	DD	042b9745dr			; 92.7273
	DW	0f5H
	DW	017cH
	DD	042bb45d1r			; 93.6364
	DW	0f5H
	DW	017bH
	DD	042bd1746r			; 94.5455
	DW	0f5H
	DW	017aH
	DD	042bee8bar			; 95.4545
	DW	0f5H
	DW	0179H
	DD	042c0ba2fr			; 96.3636
	DW	0f4H
	DW	0178H
	DD	042c28ba3r			; 97.2727
	DW	0f4H
	DW	0177H
	DD	042c45d17r			; 98.1818
	DW	0f4H
	DW	0176H
	DD	042c62e8cr			; 99.0909
	DW	0f4H
	DW	0175H
	DD	042c80000r			; 100
	DW	0f4H
	DW	0174H
	DD	042c9aaabr			; 100.833
	DW	0f3H
	DW	0173H
	DD	042cb5555r			; 101.667
	DW	0f3H
	DW	0172H
	DD	042cd0000r			; 102.5
	DW	0f3H
	DW	0171H
	DD	042ceaaabr			; 103.333
	DW	0f3H
	DW	0170H
	DD	042d05555r			; 104.167
	DW	0f3H
	DW	016fH
	DD	042d20000r			; 105
	DW	0f2H
	DW	016eH
	DD	042d3aaabr			; 105.833
	DW	0f2H
	DW	016dH
	DD	042d55555r			; 106.667
	DW	0f2H
	DW	016cH
	DD	042d70000r			; 107.5
	DW	0f2H
	DW	016bH
	DD	042d8aaabr			; 108.333
	DW	0f2H
	DW	016aH
	DD	042da5555r			; 109.167
	DW	0f2H
	DW	0169H
	DD	042dc0000r			; 110
	DW	00H
	DW	00H
	DD	07f7fffffr			; 3.40282e+38
?lh_engine_rpm_indicator_line3_down_20_right_30@@3PAUSCALE_DATA@@A DW 0100H ; lh_engine_rpm_indicator_line3_down_20_right_30
	DW	01b1H
	DD	000000000r			; 0
	DW	0ffH
	DW	01b0H
	DD	040a00000r			; 5
	DW	0ffH
	DW	01afH
	DD	041200000r			; 10
	DW	0ffH
	DW	01aeH
	DD	041555555r			; 13.3333
	DW	0ffH
	DW	01adH
	DD	041855555r			; 16.6667
	DW	0ffH
	DW	01acH
	DD	041a00000r			; 20
	DW	0feH
	DW	01abH
	DD	041c80000r			; 25
	DW	0feH
	DW	01aaH
	DD	041f00000r			; 30
	DW	0feH
	DW	01a9H
	DD	042055555r			; 33.3333
	DW	0feH
	DW	01a8H
	DD	04212aaabr			; 36.6667
	DW	0feH
	DW	01a7H
	DD	042200000r			; 40
	DW	0feH
	DW	01a6H
	DD	042340000r			; 45
	DW	0fdH
	DW	01a5H
	DD	042480000r			; 50
	DW	0fdH
	DW	01a4H
	DD	042555555r			; 53.3333
	DW	0fdH
	DW	01a3H
	DD	04262aaabr			; 56.6667
	DW	0fdH
	DW	01a2H
	DD	042700000r			; 60
	DW	0fdH
	DW	01a1H
	DD	04273a2e9r			; 60.9091
	DW	0fcH
	DW	01a0H
	DD	0427745d1r			; 61.8182
	DW	0fcH
	DW	019fH
	DD	0427ae8bar			; 62.7273
	DW	0fcH
	DW	019eH
	DD	0427e8ba3r			; 63.6364
	DW	0fcH
	DW	019dH
	DD	042811746r			; 64.5455
	DW	0fcH
	DW	019cH
	DD	04282e8bar			; 65.4545
	DW	0fcH
	DW	019bH
	DD	04284ba2fr			; 66.3636
	DW	0fbH
	DW	019aH
	DD	042868ba3r			; 67.2727
	DW	0fbH
	DW	0199H
	DD	042885d17r			; 68.1818
	DW	0fbH
	DW	0198H
	DD	0428a2e8cr			; 69.0909
	DW	0fbH
	DW	0197H
	DD	0428c0000r			; 70
	DW	0fbH
	DW	0196H
	DD	0428dd174r			; 70.9091
	DW	0faH
	DW	0195H
	DD	0428fa2e9r			; 71.8182
	DW	0faH
	DW	0194H
	DD	04291745dr			; 72.7273
	DW	0faH
	DW	0193H
	DD	0429345d1r			; 73.6364
	DW	0faH
	DW	0192H
	DD	042951746r			; 74.5455
	DW	0faH
	DW	0191H
	DD	04296e8bar			; 75.4545
	DW	0faH
	DW	0190H
	DD	04298ba2fr			; 76.3636
	DW	0f9H
	DW	018fH
	DD	0429a8ba3r			; 77.2727
	DW	0f9H
	DW	018eH
	DD	0429c5d17r			; 78.1818
	DW	0f9H
	DW	018dH
	DD	0429e2e8cr			; 79.0909
	DW	0f9H
	DW	018cH
	DD	042a00000r			; 80
	DW	0f9H
	DW	018bH
	DD	042a1aaabr			; 80.8333
	DW	0f8H
	DW	018aH
	DD	042a35555r			; 81.6667
	DW	0f8H
	DW	0189H
	DD	042a50000r			; 82.5
	DW	0f8H
	DW	0188H
	DD	042a6aaabr			; 83.3333
	DW	0f8H
	DW	0187H
	DD	042a85555r			; 84.1667
	DW	0f8H
	DW	0186H
	DD	042aa0000r			; 85
	DW	0f8H
	DW	0185H
	DD	042abaaabr			; 85.8333
	DW	0f7H
	DW	0184H
	DD	042ad5555r			; 86.6667
	DW	0f7H
	DW	0183H
	DD	042af0000r			; 87.5
	DW	0f7H
	DW	0182H
	DD	042b0aaabr			; 88.3333
	DW	0f7H
	DW	0181H
	DD	042b25555r			; 89.1667
	DW	0f7H
	DW	0180H
	DD	042b40000r			; 90
	DW	0f7H
	DW	017fH
	DD	042b5d174r			; 90.9091
	DW	0f6H
	DW	017eH
	DD	042b7a2e9r			; 91.8182
	DW	0f6H
	DW	017dH
	DD	042b9745dr			; 92.7273
	DW	0f6H
	DW	017cH
	DD	042bb45d1r			; 93.6364
	DW	0f6H
	DW	017bH
	DD	042bd1746r			; 94.5455
	DW	0f6H
	DW	017aH
	DD	042bee8bar			; 95.4545
	DW	0f5H
	DW	0179H
	DD	042c0ba2fr			; 96.3636
	DW	0f5H
	DW	0178H
	DD	042c28ba3r			; 97.2727
	DW	0f5H
	DW	0177H
	DD	042c45d17r			; 98.1818
	DW	0f5H
	DW	0176H
	DD	042c62e8cr			; 99.0909
	DW	0f5H
	DW	0175H
	DD	042c80000r			; 100
	DW	0f5H
	DW	0174H
	DD	042c9aaabr			; 100.833
	DW	0f4H
	DW	0173H
	DD	042cb5555r			; 101.667
	DW	0f4H
	DW	0172H
	DD	042cd0000r			; 102.5
	DW	0f4H
	DW	0171H
	DD	042ceaaabr			; 103.333
	DW	0f4H
	DW	0170H
	DD	042d05555r			; 104.167
	DW	0f4H
	DW	016fH
	DD	042d20000r			; 105
	DW	0f3H
	DW	016eH
	DD	042d3aaabr			; 105.833
	DW	0f3H
	DW	016dH
	DD	042d55555r			; 106.667
	DW	0f3H
	DW	016cH
	DD	042d70000r			; 107.5
	DW	0f3H
	DW	016bH
	DD	042d8aaabr			; 108.333
	DW	0f3H
	DW	016aH
	DD	042da5555r			; 109.167
	DW	0f3H
	DW	0169H
	DD	042dc0000r			; 110
	DW	00H
	DW	00H
	DD	07f7fffffr			; 3.40282e+38
?rh_engine_rpm_indicator_line1_down_20_right_30@@3PAUSCALE_DATA@@A DW 010cH ; rh_engine_rpm_indicator_line1_down_20_right_30
	DW	01aeH
	DD	000000000r			; 0
	DW	010cH
	DW	01adH
	DD	040555555r			; 3.33333
	DW	010cH
	DW	01acH
	DD	040d55555r			; 6.66667
	DW	010cH
	DW	01abH
	DD	041200000r			; 10
	DW	010cH
	DW	01aaH
	DD	041700000r			; 15
	DW	010bH
	DW	01a9H
	DD	041a00000r			; 20
	DW	010bH
	DW	01a8H
	DD	041baaaabr			; 23.3333
	DW	010bH
	DW	01a7H
	DD	041d55555r			; 26.6667
	DW	010bH
	DW	01a6H
	DD	041f00000r			; 30
	DW	010bH
	DW	01a5H
	DD	0420c0000r			; 35
	DW	010bH
	DW	01a4H
	DD	042200000r			; 40
	DW	010aH
	DW	01a3H
	DD	0422d5555r			; 43.3333
	DW	010aH
	DW	01a2H
	DD	0423aaaabr			; 46.6667
	DW	010aH
	DW	01a1H
	DD	042480000r			; 50
	DW	010aH
	DW	01a0H
	DD	0425c0000r			; 55
	DW	010aH
	DW	019fH
	DD	042700000r			; 60
	DW	0109H
	DW	019eH
	DD	04273a2e9r			; 60.9091
	DW	0109H
	DW	019dH
	DD	0427745d1r			; 61.8182
	DW	0109H
	DW	019cH
	DD	0427ae8bar			; 62.7273
	DW	0109H
	DW	019bH
	DD	0427e8ba3r			; 63.6364
	DW	0109H
	DW	019aH
	DD	042811746r			; 64.5455
	DW	0109H
	DW	0199H
	DD	04282e8bar			; 65.4545
	DW	0108H
	DW	0198H
	DD	04284ba2fr			; 66.3636
	DW	0108H
	DW	0197H
	DD	042868ba3r			; 67.2727
	DW	0108H
	DW	0196H
	DD	042885d17r			; 68.1818
	DW	0108H
	DW	0195H
	DD	0428a2e8cr			; 69.0909
	DW	0108H
	DW	0194H
	DD	0428c0000r			; 70
	DW	0107H
	DW	0193H
	DD	0428dd174r			; 70.9091
	DW	0107H
	DW	0192H
	DD	0428fa2e9r			; 71.8182
	DW	0107H
	DW	0191H
	DD	04291745dr			; 72.7273
	DW	0107H
	DW	0190H
	DD	0429345d1r			; 73.6364
	DW	0107H
	DW	018fH
	DD	042951746r			; 74.5455
	DW	0107H
	DW	018eH
	DD	04296e8bar			; 75.4545
	DW	0106H
	DW	018dH
	DD	04298ba2fr			; 76.3636
	DW	0106H
	DW	018cH
	DD	0429a8ba3r			; 77.2727
	DW	0106H
	DW	018bH
	DD	0429c5d17r			; 78.1818
	DW	0106H
	DW	018aH
	DD	0429e2e8cr			; 79.0909
	DW	0106H
	DW	0189H
	DD	042a00000r			; 80
	DW	0106H
	DW	0188H
	DD	042a1aaabr			; 80.8333
	DW	0105H
	DW	0187H
	DD	042a35555r			; 81.6667
	DW	0105H
	DW	0186H
	DD	042a50000r			; 82.5
	DW	0105H
	DW	0185H
	DD	042a6aaabr			; 83.3333
	DW	0105H
	DW	0184H
	DD	042a85555r			; 84.1667
	DW	0105H
	DW	0183H
	DD	042aa0000r			; 85
	DW	0104H
	DW	0182H
	DD	042abaaabr			; 85.8333
	DW	0104H
	DW	0181H
	DD	042ad5555r			; 86.6667
	DW	0104H
	DW	0180H
	DD	042af0000r			; 87.5
	DW	0104H
	DW	017fH
	DD	042b0aaabr			; 88.3333
	DW	0104H
	DW	017eH
	DD	042b25555r			; 89.1667
	DW	0104H
	DW	017dH
	DD	042b40000r			; 90
	DW	0103H
	DW	017cH
	DD	042b5d174r			; 90.9091
	DW	0103H
	DW	017bH
	DD	042b7a2e9r			; 91.8182
	DW	0103H
	DW	017aH
	DD	042b9745dr			; 92.7273
	DW	0103H
	DW	0179H
	DD	042bb45d1r			; 93.6364
	DW	0103H
	DW	0178H
	DD	042bd1746r			; 94.5455
	DW	0102H
	DW	0177H
	DD	042bee8bar			; 95.4545
	DW	0102H
	DW	0176H
	DD	042c0ba2fr			; 96.3636
	DW	0102H
	DW	0175H
	DD	042c28ba3r			; 97.2727
	DW	0102H
	DW	0174H
	DD	042c45d17r			; 98.1818
	DW	0102H
	DW	0173H
	DD	042c62e8cr			; 99.0909
	DW	0102H
	DW	0172H
	DD	042c80000r			; 100
	DW	0101H
	DW	0171H
	DD	042c9aaabr			; 100.833
	DW	0101H
	DW	0170H
	DD	042cb5555r			; 101.667
	DW	0101H
	DW	016fH
	DD	042cd0000r			; 102.5
	DW	0101H
	DW	016eH
	DD	042ceaaabr			; 103.333
	DW	0101H
	DW	016dH
	DD	042d05555r			; 104.167
	DW	0100H
	DW	016cH
	DD	042d20000r			; 105
	DW	0100H
	DW	016bH
	DD	042d3aaabr			; 105.833
	DW	0100H
	DW	016aH
	DD	042d55555r			; 106.667
	DW	0100H
	DW	0169H
	DD	042d70000r			; 107.5
	DW	0100H
	DW	0168H
	DD	042d8aaabr			; 108.333
	DW	0100H
	DW	0167H
	DD	042da5555r			; 109.167
	DW	0ffH
	DW	0166H
	DD	042dc0000r			; 110
	DW	00H
	DW	00H
	DD	07f7fffffr			; 3.40282e+38
?rh_engine_rpm_indicator_line2_down_20_right_30@@3PAUSCALE_DATA@@A DW 010dH ; rh_engine_rpm_indicator_line2_down_20_right_30
	DW	01aeH
	DD	000000000r			; 0
	DW	010dH
	DW	01adH
	DD	040555555r			; 3.33333
	DW	010dH
	DW	01acH
	DD	040d55555r			; 6.66667
	DW	010dH
	DW	01abH
	DD	041200000r			; 10
	DW	010cH
	DW	01aaH
	DD	041700000r			; 15
	DW	010cH
	DW	01a9H
	DD	041a00000r			; 20
	DW	010cH
	DW	01a8H
	DD	041baaaabr			; 23.3333
	DW	010cH
	DW	01a7H
	DD	041d55555r			; 26.6667
	DW	010cH
	DW	01a6H
	DD	041f00000r			; 30
	DW	010bH
	DW	01a5H
	DD	0420c0000r			; 35
	DW	010bH
	DW	01a4H
	DD	042200000r			; 40
	DW	010bH
	DW	01a3H
	DD	0422d5555r			; 43.3333
	DW	010bH
	DW	01a2H
	DD	0423aaaabr			; 46.6667
	DW	010bH
	DW	01a1H
	DD	042480000r			; 50
	DW	010bH
	DW	01a0H
	DD	0425c0000r			; 55
	DW	010aH
	DW	019fH
	DD	042700000r			; 60
	DW	010aH
	DW	019eH
	DD	04273a2e9r			; 60.9091
	DW	010aH
	DW	019dH
	DD	0427745d1r			; 61.8182
	DW	010aH
	DW	019cH
	DD	0427ae8bar			; 62.7273
	DW	010aH
	DW	019bH
	DD	0427e8ba3r			; 63.6364
	DW	0109H
	DW	019aH
	DD	042811746r			; 64.5455
	DW	0109H
	DW	0199H
	DD	04282e8bar			; 65.4545
	DW	0109H
	DW	0198H
	DD	04284ba2fr			; 66.3636
	DW	0109H
	DW	0197H
	DD	042868ba3r			; 67.2727
	DW	0109H
	DW	0196H
	DD	042885d17r			; 68.1818
	DW	0109H
	DW	0195H
	DD	0428a2e8cr			; 69.0909
	DW	0108H
	DW	0194H
	DD	0428c0000r			; 70
	DW	0108H
	DW	0193H
	DD	0428dd174r			; 70.9091
	DW	0108H
	DW	0192H
	DD	0428fa2e9r			; 71.8182
	DW	0108H
	DW	0191H
	DD	04291745dr			; 72.7273
	DW	0108H
	DW	0190H
	DD	0429345d1r			; 73.6364
	DW	0107H
	DW	018fH
	DD	042951746r			; 74.5455
	DW	0107H
	DW	018eH
	DD	04296e8bar			; 75.4545
	DW	0107H
	DW	018dH
	DD	04298ba2fr			; 76.3636
	DW	0107H
	DW	018cH
	DD	0429a8ba3r			; 77.2727
	DW	0107H
	DW	018bH
	DD	0429c5d17r			; 78.1818
	DW	0107H
	DW	018aH
	DD	0429e2e8cr			; 79.0909
	DW	0106H
	DW	0189H
	DD	042a00000r			; 80
	DW	0106H
	DW	0188H
	DD	042a1aaabr			; 80.8333
	DW	0106H
	DW	0187H
	DD	042a35555r			; 81.6667
	DW	0106H
	DW	0186H
	DD	042a50000r			; 82.5
	DW	0106H
	DW	0185H
	DD	042a6aaabr			; 83.3333
	DW	0106H
	DW	0184H
	DD	042a85555r			; 84.1667
	DW	0106H
	DW	0183H
	DD	042aa0000r			; 85
	DW	0105H
	DW	0182H
	DD	042abaaabr			; 85.8333
	DW	0105H
	DW	0181H
	DD	042ad5555r			; 86.6667
	DW	0105H
	DW	0180H
	DD	042af0000r			; 87.5
	DW	0105H
	DW	017fH
	DD	042b0aaabr			; 88.3333
	DW	0104H
	DW	017eH
	DD	042b25555r			; 89.1667
	DW	0104H
	DW	017dH
	DD	042b40000r			; 90
	DW	0104H
	DW	017cH
	DD	042b5d174r			; 90.9091
	DW	0104H
	DW	017bH
	DD	042b7a2e9r			; 91.8182
	DW	0104H
	DW	017aH
	DD	042b9745dr			; 92.7273
	DW	0104H
	DW	0179H
	DD	042bb45d1r			; 93.6364
	DW	0103H
	DW	0178H
	DD	042bd1746r			; 94.5455
	DW	0103H
	DW	0177H
	DD	042bee8bar			; 95.4545
	DW	0103H
	DW	0176H
	DD	042c0ba2fr			; 96.3636
	DW	0103H
	DW	0175H
	DD	042c28ba3r			; 97.2727
	DW	0103H
	DW	0174H
	DD	042c45d17r			; 98.1818
	DW	0102H
	DW	0173H
	DD	042c62e8cr			; 99.0909
	DW	0102H
	DW	0172H
	DD	042c80000r			; 100
	DW	0102H
	DW	0171H
	DD	042c9aaabr			; 100.833
	DW	0102H
	DW	0170H
	DD	042cb5555r			; 101.667
	DW	0102H
	DW	016fH
	DD	042cd0000r			; 102.5
	DW	0102H
	DW	016eH
	DD	042ceaaabr			; 103.333
	DW	0101H
	DW	016dH
	DD	042d05555r			; 104.167
	DW	0101H
	DW	016cH
	DD	042d20000r			; 105
	DW	0101H
	DW	016bH
	DD	042d3aaabr			; 105.833
	DW	0101H
	DW	016aH
	DD	042d55555r			; 106.667
	DW	0101H
	DW	0169H
	DD	042d70000r			; 107.5
	DW	0100H
	DW	0168H
	DD	042d8aaabr			; 108.333
	DW	0100H
	DW	0167H
	DD	042da5555r			; 109.167
	DW	0100H
	DW	0166H
	DD	042dc0000r			; 110
	DW	00H
	DW	00H
	DD	07f7fffffr			; 3.40282e+38
?rh_engine_rpm_indicator_line3_down_20_right_30@@3PAUSCALE_DATA@@A DW 010eH ; rh_engine_rpm_indicator_line3_down_20_right_30
	DW	01aeH
	DD	000000000r			; 0
	DW	010eH
	DW	01adH
	DD	040555555r			; 3.33333
	DW	010eH
	DW	01acH
	DD	040d55555r			; 6.66667
	DW	010eH
	DW	01abH
	DD	041200000r			; 10
	DW	010dH
	DW	01aaH
	DD	041700000r			; 15
	DW	010dH
	DW	01a9H
	DD	041a00000r			; 20
	DW	010dH
	DW	01a8H
	DD	041baaaabr			; 23.3333
	DW	010dH
	DW	01a7H
	DD	041d55555r			; 26.6667
	DW	010dH
	DW	01a6H
	DD	041f00000r			; 30
	DW	010cH
	DW	01a5H
	DD	0420c0000r			; 35
	DW	010cH
	DW	01a4H
	DD	042200000r			; 40
	DW	010cH
	DW	01a3H
	DD	0422d5555r			; 43.3333
	DW	010cH
	DW	01a2H
	DD	0423aaaabr			; 46.6667
	DW	010cH
	DW	01a1H
	DD	042480000r			; 50
	DW	010cH
	DW	01a0H
	DD	0425c0000r			; 55
	DW	010bH
	DW	019fH
	DD	042700000r			; 60
	DW	010bH
	DW	019eH
	DD	04273a2e9r			; 60.9091
	DW	010bH
	DW	019dH
	DD	0427745d1r			; 61.8182
	DW	010bH
	DW	019cH
	DD	0427ae8bar			; 62.7273
	DW	010bH
	DW	019bH
	DD	0427e8ba3r			; 63.6364
	DW	010aH
	DW	019aH
	DD	042811746r			; 64.5455
	DW	010aH
	DW	0199H
	DD	04282e8bar			; 65.4545
	DW	010aH
	DW	0198H
	DD	04284ba2fr			; 66.3636
	DW	010aH
	DW	0197H
	DD	042868ba3r			; 67.2727
	DW	010aH
	DW	0196H
	DD	042885d17r			; 68.1818
	DW	010aH
	DW	0195H
	DD	0428a2e8cr			; 69.0909
	DW	0109H
	DW	0194H
	DD	0428c0000r			; 70
	DW	0109H
	DW	0193H
	DD	0428dd174r			; 70.9091
	DW	0109H
	DW	0192H
	DD	0428fa2e9r			; 71.8182
	DW	0109H
	DW	0191H
	DD	04291745dr			; 72.7273
	DW	0109H
	DW	0190H
	DD	0429345d1r			; 73.6364
	DW	0108H
	DW	018fH
	DD	042951746r			; 74.5455
	DW	0108H
	DW	018eH
	DD	04296e8bar			; 75.4545
	DW	0108H
	DW	018dH
	DD	04298ba2fr			; 76.3636
	DW	0108H
	DW	018cH
	DD	0429a8ba3r			; 77.2727
	DW	0108H
	DW	018bH
	DD	0429c5d17r			; 78.1818
	DW	0108H
	DW	018aH
	DD	0429e2e8cr			; 79.0909
	DW	0107H
	DW	0189H
	DD	042a00000r			; 80
	DW	0107H
	DW	0188H
	DD	042a1aaabr			; 80.8333
	DW	0107H
	DW	0187H
	DD	042a35555r			; 81.6667
	DW	0107H
	DW	0186H
	DD	042a50000r			; 82.5
	DW	0107H
	DW	0185H
	DD	042a6aaabr			; 83.3333
	DW	0107H
	DW	0184H
	DD	042a85555r			; 84.1667
	DW	0106H
	DW	0183H
	DD	042aa0000r			; 85
	DW	0106H
	DW	0182H
	DD	042abaaabr			; 85.8333
	DW	0106H
	DW	0181H
	DD	042ad5555r			; 86.6667
	DW	0106H
	DW	0180H
	DD	042af0000r			; 87.5
	DW	0106H
	DW	017fH
	DD	042b0aaabr			; 88.3333
	DW	0105H
	DW	017eH
	DD	042b25555r			; 89.1667
	DW	0105H
	DW	017dH
	DD	042b40000r			; 90
	DW	0105H
	DW	017cH
	DD	042b5d174r			; 90.9091
	DW	0105H
	DW	017bH
	DD	042b7a2e9r			; 91.8182
	DW	0105H
	DW	017aH
	DD	042b9745dr			; 92.7273
	DW	0105H
	DW	0179H
	DD	042bb45d1r			; 93.6364
	DW	0104H
	DW	0178H
	DD	042bd1746r			; 94.5455
	DW	0104H
	DW	0177H
	DD	042bee8bar			; 95.4545
	DW	0104H
	DW	0176H
	DD	042c0ba2fr			; 96.3636
	DW	0104H
	DW	0175H
	DD	042c28ba3r			; 97.2727
	DW	0104H
	DW	0174H
	DD	042c45d17r			; 98.1818
	DW	0103H
	DW	0173H
	DD	042c62e8cr			; 99.0909
	DW	0103H
	DW	0172H
	DD	042c80000r			; 100
	DW	0103H
	DW	0171H
	DD	042c9aaabr			; 100.833
	DW	0103H
	DW	0170H
	DD	042cb5555r			; 101.667
	DW	0103H
	DW	016fH
	DD	042cd0000r			; 102.5
	DW	0103H
	DW	016eH
	DD	042ceaaabr			; 103.333
	DW	0102H
	DW	016dH
	DD	042d05555r			; 104.167
	DW	0102H
	DW	016cH
	DD	042d20000r			; 105
	DW	0102H
	DW	016bH
	DD	042d3aaabr			; 105.833
	DW	0102H
	DW	016aH
	DD	042d55555r			; 106.667
	DW	0102H
	DW	0169H
	DD	042d70000r			; 107.5
	DW	0101H
	DW	0168H
	DD	042d8aaabr			; 108.333
	DW	0101H
	DW	0167H
	DD	042da5555r			; 109.167
	DW	0101H
	DW	0166H
	DD	042dc0000r			; 110
	DW	00H
	DW	00H
	DD	07f7fffffr			; 3.40282e+38
?lh_engine_temperature_indicator_line_down_20_ahead@@3PAUSCALE_DATA@@A DW 01f0H ; lh_engine_temperature_indicator_line_down_20_ahead
	DW	01c6H
	DD	000000000r			; 0
	DW	01f0H
	DW	01c5H
	DD	041c80000r			; 25
	DW	01f0H
	DW	01c4H
	DD	042480000r			; 50
	DW	01f0H
	DW	01c3H
	DD	042960000r			; 75
	DW	01f0H
	DW	01c2H
	DD	042c80000r			; 100
	DW	01f0H
	DW	01c1H
	DD	042fa0000r			; 125
	DW	01f0H
	DW	01c0H
	DD	043160000r			; 150
	DW	01f0H
	DW	01bfH
	DD	0432f0000r			; 175
	DW	01f0H
	DW	01beH
	DD	043480000r			; 200
	DW	01f0H
	DW	01bdH
	DD	043610000r			; 225
	DW	01f0H
	DW	01bcH
	DD	0437a0000r			; 250
	DW	01f0H
	DW	01bbH
	DD	043898000r			; 275
	DW	01f0H
	DW	01baH
	DD	043960000r			; 300
	DW	01f0H
	DW	01b9H
	DD	043a28000r			; 325
	DW	01f0H
	DW	01b8H
	DD	043af0000r			; 350
	DW	01f0H
	DW	01b7H
	DD	043bb8000r			; 375
	DW	01f0H
	DW	01b6H
	DD	043c80000r			; 400
	DW	01f0H
	DW	01b5H
	DD	043d48000r			; 425
	DW	01f0H
	DW	01b4H
	DD	043e10000r			; 450
	DW	01f0H
	DW	01b3H
	DD	043ed8000r			; 475
	DW	01f0H
	DW	01b2H
	DD	043fa0000r			; 500
	DW	01f0H
	DW	01b1H
	DD	044034000r			; 525
	DW	01f0H
	DW	01b0H
	DD	044098000r			; 550
	DW	01f0H
	DW	01afH
	DD	0440fc000r			; 575
	DW	01f0H
	DW	01aeH
	DD	044160000r			; 600
	DW	01f0H
	DW	01adH
	DD	044181555r			; 608.333
	DW	01f0H
	DW	01acH
	DD	0441a2aabr			; 616.667
	DW	01f0H
	DW	01abH
	DD	0441c4000r			; 625
	DW	01f0H
	DW	01aaH
	DD	0441e5555r			; 633.333
	DW	01f0H
	DW	01a9H
	DD	044206aabr			; 641.667
	DW	01f0H
	DW	01a8H
	DD	044228000r			; 650
	DW	01f0H
	DW	01a7H
	DD	044249555r			; 658.333
	DW	01f0H
	DW	01a6H
	DD	04426aaabr			; 666.667
	DW	01f0H
	DW	01a5H
	DD	04428c000r			; 675
	DW	01f0H
	DW	01a4H
	DD	0442ad555r			; 683.333
	DW	01f0H
	DW	01a3H
	DD	0442ceaabr			; 691.667
	DW	01f0H
	DW	01a2H
	DD	0442f0000r			; 700
	DW	01f0H
	DW	01a1H
	DD	044311555r			; 708.333
	DW	01f0H
	DW	01a0H
	DD	044332aabr			; 716.667
	DW	01f0H
	DW	019fH
	DD	044354000r			; 725
	DW	01f0H
	DW	019eH
	DD	044375555r			; 733.333
	DW	01f0H
	DW	019dH
	DD	044396aabr			; 741.667
	DW	01f0H
	DW	019cH
	DD	0443b8000r			; 750
	DW	01f0H
	DW	019bH
	DD	0443d9555r			; 758.333
	DW	01f0H
	DW	019aH
	DD	0443faaabr			; 766.667
	DW	01f0H
	DW	0199H
	DD	04441c000r			; 775
	DW	01f0H
	DW	0198H
	DD	04443d555r			; 783.333
	DW	01f0H
	DW	0197H
	DD	04445eaabr			; 791.667
	DW	01f0H
	DW	0196H
	DD	044480000r			; 800
	DW	01f0H
	DW	0195H
	DD	04449ec4fr			; 807.692
	DW	01f0H
	DW	0194H
	DD	0444bd89er			; 815.385
	DW	01f0H
	DW	0193H
	DD	0444dc4ecr			; 823.077
	DW	01f0H
	DW	0192H
	DD	0444fb13br			; 830.769
	DW	01f0H
	DW	0191H
	DD	044519d8ar			; 838.462
	DW	01f0H
	DW	0190H
	DD	0445389d9r			; 846.154
	DW	01f0H
	DW	018fH
	DD	044557627r			; 853.846
	DW	01f0H
	DW	018eH
	DD	044576276r			; 861.538
	DW	01f0H
	DW	018dH
	DD	044594ec5r			; 869.231
	DW	01f0H
	DW	018cH
	DD	0445b3b14r			; 876.923
	DW	01f0H
	DW	018bH
	DD	0445d2762r			; 884.615
	DW	01f0H
	DW	018aH
	DD	0445f13b1r			; 892.308
	DW	01f0H
	DW	0189H
	DD	044610000r			; 900
	DW	01f0H
	DW	0188H
	DD	044631555r			; 908.333
	DW	01f0H
	DW	0187H
	DD	044652aabr			; 916.667
	DW	01f0H
	DW	0186H
	DD	044674000r			; 925
	DW	01f0H
	DW	0185H
	DD	044695555r			; 933.333
	DW	01f0H
	DW	0184H
	DD	0446b6aabr			; 941.667
	DW	01f0H
	DW	0183H
	DD	0446d8000r			; 950
	DW	01f0H
	DW	0182H
	DD	0446f9555r			; 958.333
	DW	01f0H
	DW	0181H
	DD	04471aaabr			; 966.667
	DW	01f0H
	DW	0180H
	DD	04473c000r			; 975
	DW	01f0H
	DW	017fH
	DD	04475d555r			; 983.333
	DW	01f0H
	DW	017eH
	DD	04477eaabr			; 991.667
	DW	01f0H
	DW	017dH
	DD	0447a0000r			; 1000
	DW	00H
	DW	00H
	DD	07f7fffffr			; 3.40282e+38
?rh_engine_temperature_indicator_line_down_20_ahead@@3PAUSCALE_DATA@@A DW 0208H ; rh_engine_temperature_indicator_line_down_20_ahead
	DW	01c6H
	DD	000000000r			; 0
	DW	0208H
	DW	01c5H
	DD	041c80000r			; 25
	DW	0208H
	DW	01c4H
	DD	042480000r			; 50
	DW	0208H
	DW	01c3H
	DD	042960000r			; 75
	DW	0208H
	DW	01c2H
	DD	042c80000r			; 100
	DW	0208H
	DW	01c1H
	DD	042fa0000r			; 125
	DW	0208H
	DW	01c0H
	DD	043160000r			; 150
	DW	0208H
	DW	01bfH
	DD	0432f0000r			; 175
	DW	0208H
	DW	01beH
	DD	043480000r			; 200
	DW	0208H
	DW	01bdH
	DD	043610000r			; 225
	DW	0208H
	DW	01bcH
	DD	0437a0000r			; 250
	DW	0208H
	DW	01bbH
	DD	043898000r			; 275
	DW	0208H
	DW	01baH
	DD	043960000r			; 300
	DW	0208H
	DW	01b9H
	DD	043a28000r			; 325
	DW	0208H
	DW	01b8H
	DD	043af0000r			; 350
	DW	0208H
	DW	01b7H
	DD	043bb8000r			; 375
	DW	0208H
	DW	01b6H
	DD	043c80000r			; 400
	DW	0208H
	DW	01b5H
	DD	043d48000r			; 425
	DW	0208H
	DW	01b4H
	DD	043e10000r			; 450
	DW	0208H
	DW	01b3H
	DD	043ed8000r			; 475
	DW	0208H
	DW	01b2H
	DD	043fa0000r			; 500
	DW	0208H
	DW	01b1H
	DD	044034000r			; 525
	DW	0208H
	DW	01b0H
	DD	044098000r			; 550
	DW	0208H
	DW	01afH
	DD	0440fc000r			; 575
	DW	0208H
	DW	01aeH
	DD	044160000r			; 600
	DW	0208H
	DW	01adH
	DD	044181555r			; 608.333
	DW	0208H
	DW	01acH
	DD	0441a2aabr			; 616.667
	DW	0208H
	DW	01abH
	DD	0441c4000r			; 625
	DW	0208H
	DW	01aaH
	DD	0441e5555r			; 633.333
	DW	0208H
	DW	01a9H
	DD	044206aabr			; 641.667
	DW	0208H
	DW	01a8H
	DD	044228000r			; 650
	DW	0208H
	DW	01a7H
	DD	044249555r			; 658.333
	DW	0208H
	DW	01a6H
	DD	04426aaabr			; 666.667
	DW	0208H
	DW	01a5H
	DD	04428c000r			; 675
	DW	0208H
	DW	01a4H
	DD	0442ad555r			; 683.333
	DW	0208H
	DW	01a3H
	DD	0442ceaabr			; 691.667
	DW	0208H
	DW	01a2H
	DD	0442f0000r			; 700
	DW	0208H
	DW	01a1H
	DD	044311555r			; 708.333
	DW	0208H
	DW	01a0H
	DD	044332aabr			; 716.667
	DW	0208H
	DW	019fH
	DD	044354000r			; 725
	DW	0208H
	DW	019eH
	DD	044375555r			; 733.333
	DW	0208H
	DW	019dH
	DD	044396aabr			; 741.667
	DW	0208H
	DW	019cH
	DD	0443b8000r			; 750
	DW	0208H
	DW	019bH
	DD	0443d9555r			; 758.333
	DW	0208H
	DW	019aH
	DD	0443faaabr			; 766.667
	DW	0208H
	DW	0199H
	DD	04441c000r			; 775
	DW	0208H
	DW	0198H
	DD	04443d555r			; 783.333
	DW	0208H
	DW	0197H
	DD	04445eaabr			; 791.667
	DW	0208H
	DW	0196H
	DD	044480000r			; 800
	DW	0208H
	DW	0195H
	DD	04449ec4fr			; 807.692
	DW	0208H
	DW	0194H
	DD	0444bd89er			; 815.385
	DW	0208H
	DW	0193H
	DD	0444dc4ecr			; 823.077
	DW	0208H
	DW	0192H
	DD	0444fb13br			; 830.769
	DW	0208H
	DW	0191H
	DD	044519d8ar			; 838.462
	DW	0208H
	DW	0190H
	DD	0445389d9r			; 846.154
	DW	0208H
	DW	018fH
	DD	044557627r			; 853.846
	DW	0208H
	DW	018eH
	DD	044576276r			; 861.538
	DW	0208H
	DW	018dH
	DD	044594ec5r			; 869.231
	DW	0208H
	DW	018cH
	DD	0445b3b14r			; 876.923
	DW	0208H
	DW	018bH
	DD	0445d2762r			; 884.615
	DW	0208H
	DW	018aH
	DD	0445f13b1r			; 892.308
	DW	0208H
	DW	0189H
	DD	044610000r			; 900
	DW	0208H
	DW	0188H
	DD	044631555r			; 908.333
	DW	0208H
	DW	0187H
	DD	044652aabr			; 916.667
	DW	0208H
	DW	0186H
	DD	044674000r			; 925
	DW	0208H
	DW	0185H
	DD	044695555r			; 933.333
	DW	0208H
	DW	0184H
	DD	0446b6aabr			; 941.667
	DW	0208H
	DW	0183H
	DD	0446d8000r			; 950
	DW	0208H
	DW	0182H
	DD	0446f9555r			; 958.333
	DW	0208H
	DW	0181H
	DD	04471aaabr			; 966.667
	DW	0208H
	DW	0180H
	DD	04473c000r			; 975
	DW	0208H
	DW	017fH
	DD	04475d555r			; 983.333
	DW	0208H
	DW	017eH
	DD	04477eaabr			; 991.667
	DW	0208H
	DW	017dH
	DD	0447a0000r			; 1000
	DW	00H
	DW	00H
	DD	07f7fffffr			; 3.40282e+38
?lh_engine_temperature_indicator_line_down_20_right_30@@3PAUSCALE_DATA@@A DW 0fbH ; lh_engine_temperature_indicator_line_down_20_right_30
	DW	01b4H
	DD	000000000r			; 0
	DW	0fbH
	DW	01b3H
	DD	041c80000r			; 25
	DW	0fbH
	DW	01b2H
	DD	042480000r			; 50
	DW	0fbH
	DW	01b1H
	DD	042960000r			; 75
	DW	0fbH
	DW	01b0H
	DD	042c80000r			; 100
	DW	0fbH
	DW	01afH
	DD	042fa0000r			; 125
	DW	0faH
	DW	01aeH
	DD	043160000r			; 150
	DW	0faH
	DW	01adH
	DD	0432f0000r			; 175
	DW	0faH
	DW	01acH
	DD	043480000r			; 200
	DW	0faH
	DW	01abH
	DD	043610000r			; 225
	DW	0faH
	DW	01aaH
	DD	0437a0000r			; 250
	DW	0faH
	DW	01a9H
	DD	043898000r			; 275
	DW	0f9H
	DW	01a8H
	DD	043960000r			; 300
	DW	0f9H
	DW	01a7H
	DD	043a6aaabr			; 333.333
	DW	0f9H
	DW	01a6H
	DD	043b75555r			; 366.667
	DW	0f9H
	DW	01a5H
	DD	043c80000r			; 400
	DW	0f9H
	DW	01a4H
	DD	043d48000r			; 425
	DW	0f8H
	DW	01a3H
	DD	043e10000r			; 450
	DW	0f8H
	DW	01a2H
	DD	043ed8000r			; 475
	DW	0f8H
	DW	01a1H
	DD	043fa0000r			; 500
	DW	0f8H
	DW	01a0H
	DD	044034000r			; 525
	DW	0f8H
	DW	019fH
	DD	044098000r			; 550
	DW	0f8H
	DW	019eH
	DD	0440fc000r			; 575
	DW	0f7H
	DW	019dH
	DD	044160000r			; 600
	DW	0f7H
	DW	019cH
	DD	0441845d1r			; 609.091
	DW	0f7H
	DW	019bH
	DD	0441a8ba3r			; 618.182
	DW	0f7H
	DW	019aH
	DD	0441cd174r			; 627.273
	DW	0f7H
	DW	0199H
	DD	0441f1746r			; 636.364
	DW	0f6H
	DW	0198H
	DD	044215d17r			; 645.455
	DW	0f6H
	DW	0197H
	DD	04423a2e9r			; 654.545
	DW	0f6H
	DW	0196H
	DD	04425e8bar			; 663.636
	DW	0f6H
	DW	0195H
	DD	044282e8cr			; 672.727
	DW	0f6H
	DW	0194H
	DD	0442a745dr			; 681.818
	DW	0f6H
	DW	0193H
	DD	0442cba2fr			; 690.909
	DW	0f5H
	DW	0192H
	DD	0442f0000r			; 700
	DW	0f5H
	DW	0191H
	DD	0443145d1r			; 709.091
	DW	0f5H
	DW	0190H
	DD	044338ba3r			; 718.182
	DW	0f5H
	DW	018fH
	DD	04435d174r			; 727.273
	DW	0f5H
	DW	018eH
	DD	044381746r			; 736.364
	DW	0f4H
	DW	018dH
	DD	0443a5d17r			; 745.455
	DW	0f4H
	DW	018cH
	DD	0443ca2e9r			; 754.545
	DW	0f4H
	DW	018bH
	DD	0443ee8bar			; 763.636
	DW	0f4H
	DW	018aH
	DD	044412e8cr			; 772.727
	DW	0f4H
	DW	0189H
	DD	04443745dr			; 781.818
	DW	0f4H
	DW	0188H
	DD	04445ba2fr			; 790.909
	DW	0f3H
	DW	0187H
	DD	044480000r			; 800
	DW	0f3H
	DW	0186H
	DD	0444a1555r			; 808.333
	DW	0f3H
	DW	0185H
	DD	0444c2aabr			; 816.667
	DW	0f3H
	DW	0184H
	DD	0444e4000r			; 825
	DW	0f3H
	DW	0183H
	DD	044505555r			; 833.333
	DW	0f2H
	DW	0182H
	DD	044526aabr			; 841.667
	DW	0f2H
	DW	0181H
	DD	044548000r			; 850
	DW	0f2H
	DW	0180H
	DD	044569555r			; 858.333
	DW	0f2H
	DW	017fH
	DD	04458aaabr			; 866.667
	DW	0f2H
	DW	017eH
	DD	0445ac000r			; 875
	DW	0f2H
	DW	017dH
	DD	0445cd555r			; 883.333
	DW	0f1H
	DW	017cH
	DD	0445eeaabr			; 891.667
	DW	0f1H
	DW	017bH
	DD	044610000r			; 900
	DW	0f1H
	DW	017aH
	DD	0446345d1r			; 909.091
	DW	0f1H
	DW	0179H
	DD	044658ba3r			; 918.182
	DW	0f1H
	DW	0178H
	DD	04467d174r			; 927.273
	DW	0f0H
	DW	0177H
	DD	0446a1746r			; 936.364
	DW	0f0H
	DW	0176H
	DD	0446c5d17r			; 945.455
	DW	0f0H
	DW	0175H
	DD	0446ea2e9r			; 954.545
	DW	0f0H
	DW	0174H
	DD	04470e8bar			; 963.636
	DW	0f0H
	DW	0173H
	DD	044732e8cr			; 972.727
	DW	0f0H
	DW	0172H
	DD	04475745dr			; 981.818
	DW	0efH
	DW	0171H
	DD	04477ba2fr			; 990.909
	DW	0efH
	DW	0170H
	DD	0447a0000r			; 1000
	DW	00H
	DW	00H
	DD	07f7fffffr			; 3.40282e+38
?rh_engine_temperature_indicator_line_down_20_right_30@@3PAUSCALE_DATA@@A DW 0110H ; rh_engine_temperature_indicator_line_down_20_right_30
	DW	01abH
	DD	000000000r			; 0
	DW	0110H
	DW	01aaH
	DD	041c80000r			; 25
	DW	0110H
	DW	01a9H
	DD	042480000r			; 50
	DW	0110H
	DW	01a8H
	DD	042960000r			; 75
	DW	010fH
	DW	01a7H
	DD	042c80000r			; 100
	DW	010fH
	DW	01a6H
	DD	043055555r			; 133.333
	DW	010fH
	DW	01a5H
	DD	04326aaabr			; 166.667
	DW	010fH
	DW	01a4H
	DD	043480000r			; 200
	DW	010fH
	DW	01a3H
	DD	043610000r			; 225
	DW	010fH
	DW	01a2H
	DD	0437a0000r			; 250
	DW	010eH
	DW	01a1H
	DD	043898000r			; 275
	DW	010eH
	DW	01a0H
	DD	043960000r			; 300
	DW	010eH
	DW	019fH
	DD	043a28000r			; 325
	DW	010eH
	DW	019eH
	DD	043af0000r			; 350
	DW	010eH
	DW	019dH
	DD	043bb8000r			; 375
	DW	010eH
	DW	019cH
	DD	043c80000r			; 400
	DW	010dH
	DW	019bH
	DD	043d8aaabr			; 433.333
	DW	010dH
	DW	019aH
	DD	043e95555r			; 466.667
	DW	010dH
	DW	0199H
	DD	043fa0000r			; 500
	DW	010dH
	DW	0198H
	DD	044034000r			; 525
	DW	010dH
	DW	0197H
	DD	044098000r			; 550
	DW	010cH
	DW	0196H
	DD	0440fc000r			; 575
	DW	010cH
	DW	0195H
	DD	044160000r			; 600
	DW	010cH
	DW	0194H
	DD	0441845d1r			; 609.091
	DW	010cH
	DW	0193H
	DD	0441a8ba3r			; 618.182
	DW	010cH
	DW	0192H
	DD	0441cd174r			; 627.273
	DW	010cH
	DW	0191H
	DD	0441f1746r			; 636.364
	DW	010bH
	DW	0190H
	DD	044215d17r			; 645.455
	DW	010bH
	DW	018fH
	DD	04423a2e9r			; 654.545
	DW	010bH
	DW	018eH
	DD	04425e8bar			; 663.636
	DW	010bH
	DW	018dH
	DD	044282e8cr			; 672.727
	DW	010bH
	DW	018cH
	DD	0442a745dr			; 681.818
	DW	010aH
	DW	018bH
	DD	0442cba2fr			; 690.909
	DW	010aH
	DW	018aH
	DD	0442f0000r			; 700
	DW	010aH
	DW	0189H
	DD	0443145d1r			; 709.091
	DW	010aH
	DW	0188H
	DD	044338ba3r			; 718.182
	DW	010aH
	DW	0187H
	DD	04435d174r			; 727.273
	DW	010aH
	DW	0186H
	DD	044381746r			; 736.364
	DW	0109H
	DW	0185H
	DD	0443a5d17r			; 745.455
	DW	0109H
	DW	0184H
	DD	0443ca2e9r			; 754.545
	DW	0109H
	DW	0183H
	DD	0443ee8bar			; 763.636
	DW	0109H
	DW	0182H
	DD	044412e8cr			; 772.727
	DW	0109H
	DW	0181H
	DD	04443745dr			; 781.818
	DW	0108H
	DW	0180H
	DD	04445ba2fr			; 790.909
	DW	0108H
	DW	017fH
	DD	044480000r			; 800
	DW	0108H
	DW	017eH
	DD	0444a45d1r			; 809.091
	DW	0108H
	DW	017dH
	DD	0444c8ba3r			; 818.182
	DW	0108H
	DW	017cH
	DD	0444ed174r			; 827.273
	DW	0108H
	DW	017bH
	DD	044511746r			; 836.364
	DW	0107H
	DW	017aH
	DD	044535d17r			; 845.455
	DW	0107H
	DW	0179H
	DD	04455a2e9r			; 854.545
	DW	0107H
	DW	0178H
	DD	04457e8bar			; 863.636
	DW	0107H
	DW	0177H
	DD	0445a2e8cr			; 872.727
	DW	0107H
	DW	0176H
	DD	0445c745dr			; 881.818
	DW	0106H
	DW	0175H
	DD	0445eba2fr			; 890.909
	DW	0106H
	DW	0174H
	DD	044610000r			; 900
	DW	0106H
	DW	0173H
	DD	0446345d1r			; 909.091
	DW	0106H
	DW	0172H
	DD	044658ba3r			; 918.182
	DW	0106H
	DW	0171H
	DD	04467d174r			; 927.273
	DW	0106H
	DW	0170H
	DD	0446a1746r			; 936.364
	DW	0105H
	DW	016fH
	DD	0446c5d17r			; 945.455
	DW	0105H
	DW	016eH
	DD	0446ea2e9r			; 954.545
	DW	0105H
	DW	016dH
	DD	04470e8bar			; 963.636
	DW	0105H
	DW	016cH
	DD	044732e8cr			; 972.727
	DW	0105H
	DW	016bH
	DD	04475745dr			; 981.818
	DW	0105H
	DW	016aH
	DD	04477ba2fr			; 990.909
	DW	0104H
	DW	0169H
	DD	0447a0000r			; 1000
	DW	00H
	DW	00H
	DD	07f7fffffr			; 3.40282e+38
?lh_engine_torque_indicator_line1_down_20_ahead@@3PAUSCALE_DATA@@A DW 01c9H ; lh_engine_torque_indicator_line1_down_20_ahead
	DW	01c2H
	DD	000000000r			; 0
	DW	01c9H
	DW	01c1H
	DD	03fc4ec4fr			; 1.53846
	DW	01c9H
	DW	01c0H
	DD	04044ec4fr			; 3.07692
	DW	01c9H
	DW	01bfH
	DD	04093b13br			; 4.61538
	DW	01c9H
	DW	01beH
	DD	040c4ec4fr			; 6.15385
	DW	01c9H
	DW	01bdH
	DD	040f62762r			; 7.69231
	DW	01c9H
	DW	01bcH
	DD	04113b13br			; 9.23077
	DW	01c9H
	DW	01bbH
	DD	0412c4ec5r			; 10.7692
	DW	01c9H
	DW	01baH
	DD	04144ec4fr			; 12.3077
	DW	01c9H
	DW	01b9H
	DD	0415d89d9r			; 13.8462
	DW	01c9H
	DW	01b8H
	DD	041762762r			; 15.3846
	DW	01c9H
	DW	01b7H
	DD	041876276r			; 16.9231
	DW	01c9H
	DW	01b6H
	DD	04193b13br			; 18.4615
	DW	01c9H
	DW	01b5H
	DD	041a00000r			; 20
	DW	01c9H
	DW	01b4H
	DD	041ac4ec5r			; 21.5385
	DW	01c9H
	DW	01b3H
	DD	041b89d8ar			; 23.0769
	DW	01c9H
	DW	01b2H
	DD	041c4ec4fr			; 24.6154
	DW	01c9H
	DW	01b1H
	DD	041d13b14r			; 26.1538
	DW	01c9H
	DW	01b0H
	DD	041dd89d9r			; 27.6923
	DW	01c9H
	DW	01afH
	DD	041e9d89er			; 29.2308
	DW	01c9H
	DW	01aeH
	DD	041f62762r			; 30.7692
	DW	01c9H
	DW	01adH
	DD	042013b14r			; 32.3077
	DW	01c9H
	DW	01acH
	DD	042076276r			; 33.8462
	DW	01c9H
	DW	01abH
	DD	0420d89d9r			; 35.3846
	DW	01c9H
	DW	01aaH
	DD	04213b13br			; 36.9231
	DW	01c9H
	DW	01a9H
	DD	04219d89er			; 38.4615
	DW	01c9H
	DW	01a8H
	DD	042200000r			; 40
	DW	01c9H
	DW	01a7H
	DD	042262762r			; 41.5385
	DW	01c9H
	DW	01a6H
	DD	0422c4ec5r			; 43.0769
	DW	01c9H
	DW	01a5H
	DD	042327627r			; 44.6154
	DW	01c9H
	DW	01a4H
	DD	042389d8ar			; 46.1538
	DW	01c9H
	DW	01a3H
	DD	0423ec4ecr			; 47.6923
	DW	01c9H
	DW	01a2H
	DD	04244ec4fr			; 49.2308
	DW	01c9H
	DW	01a1H
	DD	0424b13b1r			; 50.7692
	DW	01c9H
	DW	01a0H
	DD	042513b14r			; 52.3077
	DW	01c9H
	DW	019fH
	DD	042576276r			; 53.8462
	DW	01c9H
	DW	019eH
	DD	0425d89d9r			; 55.3846
	DW	01c9H
	DW	019dH
	DD	04263b13br			; 56.9231
	DW	01c9H
	DW	019cH
	DD	04269d89er			; 58.4615
	DW	01c9H
	DW	019bH
	DD	042700000r			; 60
	DW	01c9H
	DW	019aH
	DD	042762762r			; 61.5385
	DW	01c9H
	DW	0199H
	DD	0427c4ec5r			; 63.0769
	DW	01c9H
	DW	0198H
	DD	042813b14r			; 64.6154
	DW	01c9H
	DW	0197H
	DD	042844ec5r			; 66.1538
	DW	01c9H
	DW	0196H
	DD	042876276r			; 67.6923
	DW	01c9H
	DW	0195H
	DD	0428a7627r			; 69.2308
	DW	01c9H
	DW	0194H
	DD	0428d89d9r			; 70.7692
	DW	01c9H
	DW	0193H
	DD	042909d8ar			; 72.3077
	DW	01c9H
	DW	0192H
	DD	04293b13br			; 73.8462
	DW	01c9H
	DW	0191H
	DD	04296c4ecr			; 75.3846
	DW	01c9H
	DW	0190H
	DD	04299d89er			; 76.9231
	DW	01c9H
	DW	018fH
	DD	0429cec4fr			; 78.4615
	DW	01c9H
	DW	018eH
	DD	042a00000r			; 80
	DW	01c9H
	DW	018dH
	DD	042a313b1r			; 81.5385
	DW	01c9H
	DW	018cH
	DD	042a62762r			; 83.0769
	DW	01c9H
	DW	018bH
	DD	042a93b14r			; 84.6154
	DW	01c9H
	DW	018aH
	DD	042ac4ec5r			; 86.1538
	DW	01c9H
	DW	0189H
	DD	042af6276r			; 87.6923
	DW	01c9H
	DW	0188H
	DD	042b27627r			; 89.2308
	DW	01c9H
	DW	0187H
	DD	042b589d9r			; 90.7692
	DW	01c9H
	DW	0186H
	DD	042b89d8ar			; 92.3077
	DW	01c9H
	DW	0185H
	DD	042bbb13br			; 93.8462
	DW	01c9H
	DW	0184H
	DD	042bec4ecr			; 95.3846
	DW	01c9H
	DW	0183H
	DD	042c1d89er			; 96.9231
	DW	01c9H
	DW	0182H
	DD	042c4ec4fr			; 98.4615
	DW	01c9H
	DW	0181H
	DD	042c80000r			; 100
	DW	01c9H
	DW	0180H
	DD	042cb5555r			; 101.667
	DW	01c9H
	DW	017fH
	DD	042ceaaabr			; 103.333
	DW	01c9H
	DW	017eH
	DD	042d20000r			; 105
	DW	01c9H
	DW	017dH
	DD	042d55555r			; 106.667
	DW	01c9H
	DW	017cH
	DD	042d8aaabr			; 108.333
	DW	01c9H
	DW	017bH
	DD	042dc0000r			; 110
	DW	00H
	DW	00H
	DD	07f7fffffr			; 3.40282e+38
?lh_engine_torque_indicator_line2_down_20_ahead@@3PAUSCALE_DATA@@A DW 01caH ; lh_engine_torque_indicator_line2_down_20_ahead
	DW	01c2H
	DD	000000000r			; 0
	DW	01caH
	DW	01c1H
	DD	03fc4ec4fr			; 1.53846
	DW	01caH
	DW	01c0H
	DD	04044ec4fr			; 3.07692
	DW	01caH
	DW	01bfH
	DD	04093b13br			; 4.61538
	DW	01caH
	DW	01beH
	DD	040c4ec4fr			; 6.15385
	DW	01caH
	DW	01bdH
	DD	040f62762r			; 7.69231
	DW	01caH
	DW	01bcH
	DD	04113b13br			; 9.23077
	DW	01caH
	DW	01bbH
	DD	0412c4ec5r			; 10.7692
	DW	01caH
	DW	01baH
	DD	04144ec4fr			; 12.3077
	DW	01caH
	DW	01b9H
	DD	0415d89d9r			; 13.8462
	DW	01caH
	DW	01b8H
	DD	041762762r			; 15.3846
	DW	01caH
	DW	01b7H
	DD	041876276r			; 16.9231
	DW	01caH
	DW	01b6H
	DD	04193b13br			; 18.4615
	DW	01caH
	DW	01b5H
	DD	041a00000r			; 20
	DW	01caH
	DW	01b4H
	DD	041ac4ec5r			; 21.5385
	DW	01caH
	DW	01b3H
	DD	041b89d8ar			; 23.0769
	DW	01caH
	DW	01b2H
	DD	041c4ec4fr			; 24.6154
	DW	01caH
	DW	01b1H
	DD	041d13b14r			; 26.1538
	DW	01caH
	DW	01b0H
	DD	041dd89d9r			; 27.6923
	DW	01caH
	DW	01afH
	DD	041e9d89er			; 29.2308
	DW	01caH
	DW	01aeH
	DD	041f62762r			; 30.7692
	DW	01caH
	DW	01adH
	DD	042013b14r			; 32.3077
	DW	01caH
	DW	01acH
	DD	042076276r			; 33.8462
	DW	01caH
	DW	01abH
	DD	0420d89d9r			; 35.3846
	DW	01caH
	DW	01aaH
	DD	04213b13br			; 36.9231
	DW	01caH
	DW	01a9H
	DD	04219d89er			; 38.4615
	DW	01caH
	DW	01a8H
	DD	042200000r			; 40
	DW	01caH
	DW	01a7H
	DD	042262762r			; 41.5385
	DW	01caH
	DW	01a6H
	DD	0422c4ec5r			; 43.0769
	DW	01caH
	DW	01a5H
	DD	042327627r			; 44.6154
	DW	01caH
	DW	01a4H
	DD	042389d8ar			; 46.1538
	DW	01caH
	DW	01a3H
	DD	0423ec4ecr			; 47.6923
	DW	01caH
	DW	01a2H
	DD	04244ec4fr			; 49.2308
	DW	01caH
	DW	01a1H
	DD	0424b13b1r			; 50.7692
	DW	01caH
	DW	01a0H
	DD	042513b14r			; 52.3077
	DW	01caH
	DW	019fH
	DD	042576276r			; 53.8462
	DW	01caH
	DW	019eH
	DD	0425d89d9r			; 55.3846
	DW	01caH
	DW	019dH
	DD	04263b13br			; 56.9231
	DW	01caH
	DW	019cH
	DD	04269d89er			; 58.4615
	DW	01caH
	DW	019bH
	DD	042700000r			; 60
	DW	01caH
	DW	019aH
	DD	042762762r			; 61.5385
	DW	01caH
	DW	0199H
	DD	0427c4ec5r			; 63.0769
	DW	01caH
	DW	0198H
	DD	042813b14r			; 64.6154
	DW	01caH
	DW	0197H
	DD	042844ec5r			; 66.1538
	DW	01caH
	DW	0196H
	DD	042876276r			; 67.6923
	DW	01caH
	DW	0195H
	DD	0428a7627r			; 69.2308
	DW	01caH
	DW	0194H
	DD	0428d89d9r			; 70.7692
	DW	01caH
	DW	0193H
	DD	042909d8ar			; 72.3077
	DW	01caH
	DW	0192H
	DD	04293b13br			; 73.8462
	DW	01caH
	DW	0191H
	DD	04296c4ecr			; 75.3846
	DW	01caH
	DW	0190H
	DD	04299d89er			; 76.9231
	DW	01caH
	DW	018fH
	DD	0429cec4fr			; 78.4615
	DW	01caH
	DW	018eH
	DD	042a00000r			; 80
	DW	01caH
	DW	018dH
	DD	042a313b1r			; 81.5385
	DW	01caH
	DW	018cH
	DD	042a62762r			; 83.0769
	DW	01caH
	DW	018bH
	DD	042a93b14r			; 84.6154
	DW	01caH
	DW	018aH
	DD	042ac4ec5r			; 86.1538
	DW	01caH
	DW	0189H
	DD	042af6276r			; 87.6923
	DW	01caH
	DW	0188H
	DD	042b27627r			; 89.2308
	DW	01caH
	DW	0187H
	DD	042b589d9r			; 90.7692
	DW	01caH
	DW	0186H
	DD	042b89d8ar			; 92.3077
	DW	01caH
	DW	0185H
	DD	042bbb13br			; 93.8462
	DW	01caH
	DW	0184H
	DD	042bec4ecr			; 95.3846
	DW	01caH
	DW	0183H
	DD	042c1d89er			; 96.9231
	DW	01caH
	DW	0182H
	DD	042c4ec4fr			; 98.4615
	DW	01caH
	DW	0181H
	DD	042c80000r			; 100
	DW	01caH
	DW	0180H
	DD	042cb5555r			; 101.667
	DW	01caH
	DW	017fH
	DD	042ceaaabr			; 103.333
	DW	01caH
	DW	017eH
	DD	042d20000r			; 105
	DW	01caH
	DW	017dH
	DD	042d55555r			; 106.667
	DW	01caH
	DW	017cH
	DD	042d8aaabr			; 108.333
	DW	01caH
	DW	017bH
	DD	042dc0000r			; 110
	DW	00H
	DW	00H
	DD	07f7fffffr			; 3.40282e+38
?rh_engine_torque_indicator_line1_down_20_ahead@@3PAUSCALE_DATA@@A DW 01d7H ; rh_engine_torque_indicator_line1_down_20_ahead
	DW	01c2H
	DD	000000000r			; 0
	DW	01d7H
	DW	01c1H
	DD	03fc4ec4fr			; 1.53846
	DW	01d7H
	DW	01c0H
	DD	04044ec4fr			; 3.07692
	DW	01d7H
	DW	01bfH
	DD	04093b13br			; 4.61538
	DW	01d7H
	DW	01beH
	DD	040c4ec4fr			; 6.15385
	DW	01d7H
	DW	01bdH
	DD	040f62762r			; 7.69231
	DW	01d7H
	DW	01bcH
	DD	04113b13br			; 9.23077
	DW	01d7H
	DW	01bbH
	DD	0412c4ec5r			; 10.7692
	DW	01d7H
	DW	01baH
	DD	04144ec4fr			; 12.3077
	DW	01d7H
	DW	01b9H
	DD	0415d89d9r			; 13.8462
	DW	01d7H
	DW	01b8H
	DD	041762762r			; 15.3846
	DW	01d7H
	DW	01b7H
	DD	041876276r			; 16.9231
	DW	01d7H
	DW	01b6H
	DD	04193b13br			; 18.4615
	DW	01d7H
	DW	01b5H
	DD	041a00000r			; 20
	DW	01d7H
	DW	01b4H
	DD	041ac4ec5r			; 21.5385
	DW	01d7H
	DW	01b3H
	DD	041b89d8ar			; 23.0769
	DW	01d7H
	DW	01b2H
	DD	041c4ec4fr			; 24.6154
	DW	01d7H
	DW	01b1H
	DD	041d13b14r			; 26.1538
	DW	01d7H
	DW	01b0H
	DD	041dd89d9r			; 27.6923
	DW	01d7H
	DW	01afH
	DD	041e9d89er			; 29.2308
	DW	01d7H
	DW	01aeH
	DD	041f62762r			; 30.7692
	DW	01d7H
	DW	01adH
	DD	042013b14r			; 32.3077
	DW	01d7H
	DW	01acH
	DD	042076276r			; 33.8462
	DW	01d7H
	DW	01abH
	DD	0420d89d9r			; 35.3846
	DW	01d7H
	DW	01aaH
	DD	04213b13br			; 36.9231
	DW	01d7H
	DW	01a9H
	DD	04219d89er			; 38.4615
	DW	01d7H
	DW	01a8H
	DD	042200000r			; 40
	DW	01d7H
	DW	01a7H
	DD	042262762r			; 41.5385
	DW	01d7H
	DW	01a6H
	DD	0422c4ec5r			; 43.0769
	DW	01d7H
	DW	01a5H
	DD	042327627r			; 44.6154
	DW	01d7H
	DW	01a4H
	DD	042389d8ar			; 46.1538
	DW	01d7H
	DW	01a3H
	DD	0423ec4ecr			; 47.6923
	DW	01d7H
	DW	01a2H
	DD	04244ec4fr			; 49.2308
	DW	01d7H
	DW	01a1H
	DD	0424b13b1r			; 50.7692
	DW	01d7H
	DW	01a0H
	DD	042513b14r			; 52.3077
	DW	01d7H
	DW	019fH
	DD	042576276r			; 53.8462
	DW	01d7H
	DW	019eH
	DD	0425d89d9r			; 55.3846
	DW	01d7H
	DW	019dH
	DD	04263b13br			; 56.9231
	DW	01d7H
	DW	019cH
	DD	04269d89er			; 58.4615
	DW	01d7H
	DW	019bH
	DD	042700000r			; 60
	DW	01d7H
	DW	019aH
	DD	042762762r			; 61.5385
	DW	01d7H
	DW	0199H
	DD	0427c4ec5r			; 63.0769
	DW	01d7H
	DW	0198H
	DD	042813b14r			; 64.6154
	DW	01d7H
	DW	0197H
	DD	042844ec5r			; 66.1538
	DW	01d7H
	DW	0196H
	DD	042876276r			; 67.6923
	DW	01d7H
	DW	0195H
	DD	0428a7627r			; 69.2308
	DW	01d7H
	DW	0194H
	DD	0428d89d9r			; 70.7692
	DW	01d7H
	DW	0193H
	DD	042909d8ar			; 72.3077
	DW	01d7H
	DW	0192H
	DD	04293b13br			; 73.8462
	DW	01d7H
	DW	0191H
	DD	04296c4ecr			; 75.3846
	DW	01d7H
	DW	0190H
	DD	04299d89er			; 76.9231
	DW	01d7H
	DW	018fH
	DD	0429cec4fr			; 78.4615
	DW	01d7H
	DW	018eH
	DD	042a00000r			; 80
	DW	01d7H
	DW	018dH
	DD	042a313b1r			; 81.5385
	DW	01d7H
	DW	018cH
	DD	042a62762r			; 83.0769
	DW	01d7H
	DW	018bH
	DD	042a93b14r			; 84.6154
	DW	01d7H
	DW	018aH
	DD	042ac4ec5r			; 86.1538
	DW	01d7H
	DW	0189H
	DD	042af6276r			; 87.6923
	DW	01d7H
	DW	0188H
	DD	042b27627r			; 89.2308
	DW	01d7H
	DW	0187H
	DD	042b589d9r			; 90.7692
	DW	01d7H
	DW	0186H
	DD	042b89d8ar			; 92.3077
	DW	01d7H
	DW	0185H
	DD	042bbb13br			; 93.8462
	DW	01d7H
	DW	0184H
	DD	042bec4ecr			; 95.3846
	DW	01d7H
	DW	0183H
	DD	042c1d89er			; 96.9231
	DW	01d7H
	DW	0182H
	DD	042c4ec4fr			; 98.4615
	DW	01d7H
	DW	0181H
	DD	042c80000r			; 100
	DW	01d7H
	DW	0180H
	DD	042cb5555r			; 101.667
	DW	01d7H
	DW	017fH
	DD	042ceaaabr			; 103.333
	DW	01d7H
	DW	017eH
	DD	042d20000r			; 105
	DW	01d7H
	DW	017dH
	DD	042d55555r			; 106.667
	DW	01d7H
	DW	017cH
	DD	042d8aaabr			; 108.333
	DW	01d7H
	DW	017bH
	DD	042dc0000r			; 110
	DW	00H
	DW	00H
	DD	07f7fffffr			; 3.40282e+38
?rh_engine_torque_indicator_line2_down_20_ahead@@3PAUSCALE_DATA@@A DW 01d8H ; rh_engine_torque_indicator_line2_down_20_ahead
	DW	01c2H
	DD	000000000r			; 0
	DW	01d8H
	DW	01c1H
	DD	03fc4ec4fr			; 1.53846
	DW	01d8H
	DW	01c0H
	DD	04044ec4fr			; 3.07692
	DW	01d8H
	DW	01bfH
	DD	04093b13br			; 4.61538
	DW	01d8H
	DW	01beH
	DD	040c4ec4fr			; 6.15385
	DW	01d8H
	DW	01bdH
	DD	040f62762r			; 7.69231
	DW	01d8H
	DW	01bcH
	DD	04113b13br			; 9.23077
	DW	01d8H
	DW	01bbH
	DD	0412c4ec5r			; 10.7692
	DW	01d8H
	DW	01baH
	DD	04144ec4fr			; 12.3077
	DW	01d8H
	DW	01b9H
	DD	0415d89d9r			; 13.8462
	DW	01d8H
	DW	01b8H
	DD	041762762r			; 15.3846
	DW	01d8H
	DW	01b7H
	DD	041876276r			; 16.9231
	DW	01d8H
	DW	01b6H
	DD	04193b13br			; 18.4615
	DW	01d8H
	DW	01b5H
	DD	041a00000r			; 20
	DW	01d8H
	DW	01b4H
	DD	041ac4ec5r			; 21.5385
	DW	01d8H
	DW	01b3H
	DD	041b89d8ar			; 23.0769
	DW	01d8H
	DW	01b2H
	DD	041c4ec4fr			; 24.6154
	DW	01d8H
	DW	01b1H
	DD	041d13b14r			; 26.1538
	DW	01d8H
	DW	01b0H
	DD	041dd89d9r			; 27.6923
	DW	01d8H
	DW	01afH
	DD	041e9d89er			; 29.2308
	DW	01d8H
	DW	01aeH
	DD	041f62762r			; 30.7692
	DW	01d8H
	DW	01adH
	DD	042013b14r			; 32.3077
	DW	01d8H
	DW	01acH
	DD	042076276r			; 33.8462
	DW	01d8H
	DW	01abH
	DD	0420d89d9r			; 35.3846
	DW	01d8H
	DW	01aaH
	DD	04213b13br			; 36.9231
	DW	01d8H
	DW	01a9H
	DD	04219d89er			; 38.4615
	DW	01d8H
	DW	01a8H
	DD	042200000r			; 40
	DW	01d8H
	DW	01a7H
	DD	042262762r			; 41.5385
	DW	01d8H
	DW	01a6H
	DD	0422c4ec5r			; 43.0769
	DW	01d8H
	DW	01a5H
	DD	042327627r			; 44.6154
	DW	01d8H
	DW	01a4H
	DD	042389d8ar			; 46.1538
	DW	01d8H
	DW	01a3H
	DD	0423ec4ecr			; 47.6923
	DW	01d8H
	DW	01a2H
	DD	04244ec4fr			; 49.2308
	DW	01d8H
	DW	01a1H
	DD	0424b13b1r			; 50.7692
	DW	01d8H
	DW	01a0H
	DD	042513b14r			; 52.3077
	DW	01d8H
	DW	019fH
	DD	042576276r			; 53.8462
	DW	01d8H
	DW	019eH
	DD	0425d89d9r			; 55.3846
	DW	01d8H
	DW	019dH
	DD	04263b13br			; 56.9231
	DW	01d8H
	DW	019cH
	DD	04269d89er			; 58.4615
	DW	01d8H
	DW	019bH
	DD	042700000r			; 60
	DW	01d8H
	DW	019aH
	DD	042762762r			; 61.5385
	DW	01d8H
	DW	0199H
	DD	0427c4ec5r			; 63.0769
	DW	01d8H
	DW	0198H
	DD	042813b14r			; 64.6154
	DW	01d8H
	DW	0197H
	DD	042844ec5r			; 66.1538
	DW	01d8H
	DW	0196H
	DD	042876276r			; 67.6923
	DW	01d8H
	DW	0195H
	DD	0428a7627r			; 69.2308
	DW	01d8H
	DW	0194H
	DD	0428d89d9r			; 70.7692
	DW	01d8H
	DW	0193H
	DD	042909d8ar			; 72.3077
	DW	01d8H
	DW	0192H
	DD	04293b13br			; 73.8462
	DW	01d8H
	DW	0191H
	DD	04296c4ecr			; 75.3846
	DW	01d8H
	DW	0190H
	DD	04299d89er			; 76.9231
	DW	01d8H
	DW	018fH
	DD	0429cec4fr			; 78.4615
	DW	01d8H
	DW	018eH
	DD	042a00000r			; 80
	DW	01d8H
	DW	018dH
	DD	042a313b1r			; 81.5385
	DW	01d8H
	DW	018cH
	DD	042a62762r			; 83.0769
	DW	01d8H
	DW	018bH
	DD	042a93b14r			; 84.6154
	DW	01d8H
	DW	018aH
	DD	042ac4ec5r			; 86.1538
	DW	01d8H
	DW	0189H
	DD	042af6276r			; 87.6923
	DW	01d8H
	DW	0188H
	DD	042b27627r			; 89.2308
	DW	01d8H
	DW	0187H
	DD	042b589d9r			; 90.7692
	DW	01d8H
	DW	0186H
	DD	042b89d8ar			; 92.3077
	DW	01d8H
	DW	0185H
	DD	042bbb13br			; 93.8462
	DW	01d8H
	DW	0184H
	DD	042bec4ecr			; 95.3846
	DW	01d8H
	DW	0183H
	DD	042c1d89er			; 96.9231
	DW	01d8H
	DW	0182H
	DD	042c4ec4fr			; 98.4615
	DW	01d8H
	DW	0181H
	DD	042c80000r			; 100
	DW	01d8H
	DW	0180H
	DD	042cb5555r			; 101.667
	DW	01d8H
	DW	017fH
	DD	042ceaaabr			; 103.333
	DW	01d8H
	DW	017eH
	DD	042d20000r			; 105
	DW	01d8H
	DW	017dH
	DD	042d55555r			; 106.667
	DW	01d8H
	DW	017cH
	DD	042d8aaabr			; 108.333
	DW	01d8H
	DW	017bH
	DD	042dc0000r			; 110
	DW	00H
	DW	00H
	DD	07f7fffffr			; 3.40282e+38
?lh_engine_torque_indicator_line1_down_20_right_30@@3PAUSCALE_DATA@@A DW 0d7H ; lh_engine_torque_indicator_line1_down_20_right_30
	DW	01bcH
	DD	000000000r			; 0
	DW	0d7H
	DW	01bbH
	DD	03fc4ec4fr			; 1.53846
	DW	0d7H
	DW	01baH
	DD	04044ec4fr			; 3.07692
	DW	0d7H
	DW	01b9H
	DD	04093b13br			; 4.61538
	DW	0d6H
	DW	01b8H
	DD	040c4ec4fr			; 6.15385
	DW	0d6H
	DW	01b7H
	DD	040f62762r			; 7.69231
	DW	0d6H
	DW	01b6H
	DD	04113b13br			; 9.23077
	DW	0d6H
	DW	01b5H
	DD	0412c4ec5r			; 10.7692
	DW	0d6H
	DW	01b4H
	DD	04144ec4fr			; 12.3077
	DW	0d5H
	DW	01b3H
	DD	0415d89d9r			; 13.8462
	DW	0d5H
	DW	01b2H
	DD	041762762r			; 15.3846
	DW	0d5H
	DW	01b1H
	DD	041876276r			; 16.9231
	DW	0d5H
	DW	01b0H
	DD	04193b13br			; 18.4615
	DW	0d5H
	DW	01afH
	DD	041a00000r			; 20
	DW	0d4H
	DW	01aeH
	DD	041ad5555r			; 21.6667
	DW	0d4H
	DW	01adH
	DD	041baaaabr			; 23.3333
	DW	0d4H
	DW	01acH
	DD	041c80000r			; 25
	DW	0d4H
	DW	01abH
	DD	041d55555r			; 26.6667
	DW	0d4H
	DW	01aaH
	DD	041e2aaabr			; 28.3333
	DW	0d4H
	DW	01a9H
	DD	041f00000r			; 30
	DW	0d3H
	DW	01a8H
	DD	041fd5555r			; 31.6667
	DW	0d3H
	DW	01a7H
	DD	042055555r			; 33.3333
	DW	0d3H
	DW	01a6H
	DD	0420c0000r			; 35
	DW	0d3H
	DW	01a5H
	DD	04212aaabr			; 36.6667
	DW	0d3H
	DW	01a4H
	DD	042195555r			; 38.3333
	DW	0d2H
	DW	01a3H
	DD	042200000r			; 40
	DW	0d2H
	DW	01a2H
	DD	042262762r			; 41.5385
	DW	0d2H
	DW	01a1H
	DD	0422c4ec5r			; 43.0769
	DW	0d2H
	DW	01a0H
	DD	042327627r			; 44.6154
	DW	0d2H
	DW	019fH
	DD	042389d8ar			; 46.1538
	DW	0d2H
	DW	019eH
	DD	0423ec4ecr			; 47.6923
	DW	0d1H
	DW	019dH
	DD	04244ec4fr			; 49.2308
	DW	0d1H
	DW	019cH
	DD	0424b13b1r			; 50.7692
	DW	0d1H
	DW	019bH
	DD	042513b14r			; 52.3077
	DW	0d1H
	DW	019aH
	DD	042576276r			; 53.8462
	DW	0d1H
	DW	0199H
	DD	0425d89d9r			; 55.3846
	DW	0d0H
	DW	0198H
	DD	04263b13br			; 56.9231
	DW	0d0H
	DW	0197H
	DD	04269d89er			; 58.4615
	DW	0d0H
	DW	0196H
	DD	042700000r			; 60
	DW	0d0H
	DW	0195H
	DD	04276aaabr			; 61.6667
	DW	0d0H
	DW	0194H
	DD	0427d5555r			; 63.3333
	DW	0cfH
	DW	0193H
	DD	042820000r			; 65
	DW	0cfH
	DW	0192H
	DD	042855555r			; 66.6667
	DW	0cfH
	DW	0191H
	DD	04288aaabr			; 68.3333
	DW	0cfH
	DW	0190H
	DD	0428c0000r			; 70
	DW	0cfH
	DW	018fH
	DD	0428f5555r			; 71.6667
	DW	0cfH
	DW	018eH
	DD	04292aaabr			; 73.3333
	DW	0ceH
	DW	018dH
	DD	042960000r			; 75
	DW	0ceH
	DW	018cH
	DD	042995555r			; 76.6667
	DW	0ceH
	DW	018bH
	DD	0429caaabr			; 78.3333
	DW	0ceH
	DW	018aH
	DD	042a00000r			; 80
	DW	0ceH
	DW	0189H
	DD	042a313b1r			; 81.5385
	DW	0cdH
	DW	0188H
	DD	042a62762r			; 83.0769
	DW	0cdH
	DW	0187H
	DD	042a93b14r			; 84.6154
	DW	0cdH
	DW	0186H
	DD	042ac4ec5r			; 86.1538
	DW	0cdH
	DW	0185H
	DD	042af6276r			; 87.6923
	DW	0cdH
	DW	0184H
	DD	042b27627r			; 89.2308
	DW	0cdH
	DW	0183H
	DD	042b589d9r			; 90.7692
	DW	0ccH
	DW	0182H
	DD	042b89d8ar			; 92.3077
	DW	0ccH
	DW	0181H
	DD	042bbb13br			; 93.8462
	DW	0ccH
	DW	0180H
	DD	042bec4ecr			; 95.3846
	DW	0ccH
	DW	017fH
	DD	042c1d89er			; 96.9231
	DW	0ccH
	DW	017eH
	DD	042c4ec4fr			; 98.4615
	DW	0cbH
	DW	017dH
	DD	042c80000r			; 100
	DW	0cbH
	DW	017cH
	DD	042cc0000r			; 102
	DW	0cbH
	DW	017bH
	DD	042d00000r			; 104
	DW	0cbH
	DW	017aH
	DD	042d40000r			; 106
	DW	0cbH
	DW	0179H
	DD	042d80000r			; 108
	DW	0cbH
	DW	0178H
	DD	042dc0000r			; 110
	DW	00H
	DW	00H
	DD	07f7fffffr			; 3.40282e+38
?lh_engine_torque_indicator_line2_down_20_right_30@@3PAUSCALE_DATA@@A DW 0d8H ; lh_engine_torque_indicator_line2_down_20_right_30
	DW	01bcH
	DD	000000000r			; 0
	DW	0d8H
	DW	01bbH
	DD	03fc4ec4fr			; 1.53846
	DW	0d8H
	DW	01baH
	DD	04044ec4fr			; 3.07692
	DW	0d7H
	DW	01b9H
	DD	04093b13br			; 4.61538
	DW	0d7H
	DW	01b8H
	DD	040c4ec4fr			; 6.15385
	DW	0d7H
	DW	01b7H
	DD	040f62762r			; 7.69231
	DW	0d7H
	DW	01b6H
	DD	04113b13br			; 9.23077
	DW	0d7H
	DW	01b5H
	DD	0412c4ec5r			; 10.7692
	DW	0d7H
	DW	01b4H
	DD	04144ec4fr			; 12.3077
	DW	0d6H
	DW	01b3H
	DD	0415d89d9r			; 13.8462
	DW	0d6H
	DW	01b2H
	DD	041762762r			; 15.3846
	DW	0d6H
	DW	01b1H
	DD	041876276r			; 16.9231
	DW	0d6H
	DW	01b0H
	DD	04193b13br			; 18.4615
	DW	0d6H
	DW	01afH
	DD	041a00000r			; 20
	DW	0d5H
	DW	01aeH
	DD	041ad5555r			; 21.6667
	DW	0d5H
	DW	01adH
	DD	041baaaabr			; 23.3333
	DW	0d5H
	DW	01acH
	DD	041c80000r			; 25
	DW	0d5H
	DW	01abH
	DD	041d55555r			; 26.6667
	DW	0d5H
	DW	01aaH
	DD	041e2aaabr			; 28.3333
	DW	0d5H
	DW	01a9H
	DD	041f00000r			; 30
	DW	0d4H
	DW	01a8H
	DD	041fd5555r			; 31.6667
	DW	0d4H
	DW	01a7H
	DD	042055555r			; 33.3333
	DW	0d4H
	DW	01a6H
	DD	0420c0000r			; 35
	DW	0d4H
	DW	01a5H
	DD	04212aaabr			; 36.6667
	DW	0d4H
	DW	01a4H
	DD	042195555r			; 38.3333
	DW	0d3H
	DW	01a3H
	DD	042200000r			; 40
	DW	0d3H
	DW	01a2H
	DD	042262762r			; 41.5385
	DW	0d3H
	DW	01a1H
	DD	0422c4ec5r			; 43.0769
	DW	0d3H
	DW	01a0H
	DD	042327627r			; 44.6154
	DW	0d3H
	DW	019fH
	DD	042389d8ar			; 46.1538
	DW	0d2H
	DW	019eH
	DD	0423ec4ecr			; 47.6923
	DW	0d2H
	DW	019dH
	DD	04244ec4fr			; 49.2308
	DW	0d2H
	DW	019cH
	DD	0424b13b1r			; 50.7692
	DW	0d2H
	DW	019bH
	DD	042513b14r			; 52.3077
	DW	0d2H
	DW	019aH
	DD	042576276r			; 53.8462
	DW	0d2H
	DW	0199H
	DD	0425d89d9r			; 55.3846
	DW	0d1H
	DW	0198H
	DD	04263b13br			; 56.9231
	DW	0d1H
	DW	0197H
	DD	04269d89er			; 58.4615
	DW	0d1H
	DW	0196H
	DD	042700000r			; 60
	DW	0d1H
	DW	0195H
	DD	04276aaabr			; 61.6667
	DW	0d1H
	DW	0194H
	DD	0427d5555r			; 63.3333
	DW	0d0H
	DW	0193H
	DD	042820000r			; 65
	DW	0d0H
	DW	0192H
	DD	042855555r			; 66.6667
	DW	0d0H
	DW	0191H
	DD	04288aaabr			; 68.3333
	DW	0d0H
	DW	0190H
	DD	0428c0000r			; 70
	DW	0d0H
	DW	018fH
	DD	0428f5555r			; 71.6667
	DW	0d0H
	DW	018eH
	DD	04292aaabr			; 73.3333
	DW	0cfH
	DW	018dH
	DD	042960000r			; 75
	DW	0cfH
	DW	018cH
	DD	042995555r			; 76.6667
	DW	0cfH
	DW	018bH
	DD	0429caaabr			; 78.3333
	DW	0cfH
	DW	018aH
	DD	042a00000r			; 80
	DW	0cfH
	DW	0189H
	DD	042a313b1r			; 81.5385
	DW	0ceH
	DW	0188H
	DD	042a62762r			; 83.0769
	DW	0ceH
	DW	0187H
	DD	042a93b14r			; 84.6154
	DW	0ceH
	DW	0186H
	DD	042ac4ec5r			; 86.1538
	DW	0ceH
	DW	0185H
	DD	042af6276r			; 87.6923
	DW	0ceH
	DW	0184H
	DD	042b27627r			; 89.2308
	DW	0cdH
	DW	0183H
	DD	042b589d9r			; 90.7692
	DW	0cdH
	DW	0182H
	DD	042b89d8ar			; 92.3077
	DW	0cdH
	DW	0181H
	DD	042bbb13br			; 93.8462
	DW	0cdH
	DW	0180H
	DD	042bec4ecr			; 95.3846
	DW	0cdH
	DW	017fH
	DD	042c1d89er			; 96.9231
	DW	0cdH
	DW	017eH
	DD	042c4ec4fr			; 98.4615
	DW	0ccH
	DW	017dH
	DD	042c80000r			; 100
	DW	0ccH
	DW	017cH
	DD	042cc0000r			; 102
	DW	0ccH
	DW	017bH
	DD	042d00000r			; 104
	DW	0ccH
	DW	017aH
	DD	042d40000r			; 106
	DW	0ccH
	DW	0179H
	DD	042d80000r			; 108
	DW	0ccH
	DW	0178H
	DD	042dc0000r			; 110
	DW	00H
	DW	00H
	DD	07f7fffffr			; 3.40282e+38
?rh_engine_torque_indicator_line1_down_20_right_30@@3PAUSCALE_DATA@@A DW 0e4H ; rh_engine_torque_indicator_line1_down_20_right_30
	DW	01b8H
	DD	000000000r			; 0
	DW	0e4H
	DW	01b7H
	DD	03fd55555r			; 1.66667
	DW	0e4H
	DW	01b6H
	DD	040555555r			; 3.33333
	DW	0e4H
	DW	01b5H
	DD	040a00000r			; 5
	DW	0e4H
	DW	01b4H
	DD	040d55555r			; 6.66667
	DW	0e3H
	DW	01b3H
	DD	041055555r			; 8.33333
	DW	0e3H
	DW	01b2H
	DD	041200000r			; 10
	DW	0e3H
	DW	01b1H
	DD	0413aaaabr			; 11.6667
	DW	0e3H
	DW	01b0H
	DD	041555555r			; 13.3333
	DW	0e3H
	DW	01afH
	DD	041700000r			; 15
	DW	0e2H
	DW	01aeH
	DD	041855555r			; 16.6667
	DW	0e2H
	DW	01adH
	DD	04192aaabr			; 18.3333
	DW	0e2H
	DW	01acH
	DD	041a00000r			; 20
	DW	0e2H
	DW	01abH
	DD	041ad5555r			; 21.6667
	DW	0e2H
	DW	01aaH
	DD	041baaaabr			; 23.3333
	DW	0e2H
	DW	01a9H
	DD	041c80000r			; 25
	DW	0e1H
	DW	01a8H
	DD	041d55555r			; 26.6667
	DW	0e1H
	DW	01a7H
	DD	041e2aaabr			; 28.3333
	DW	0e1H
	DW	01a6H
	DD	041f00000r			; 30
	DW	0e1H
	DW	01a5H
	DD	041fd5555r			; 31.6667
	DW	0e1H
	DW	01a4H
	DD	042055555r			; 33.3333
	DW	0e0H
	DW	01a3H
	DD	0420c0000r			; 35
	DW	0e0H
	DW	01a2H
	DD	04212aaabr			; 36.6667
	DW	0e0H
	DW	01a1H
	DD	042195555r			; 38.3333
	DW	0e0H
	DW	01a0H
	DD	042200000r			; 40
	DW	0e0H
	DW	019fH
	DD	042262762r			; 41.5385
	DW	0e0H
	DW	019eH
	DD	0422c4ec5r			; 43.0769
	DW	0dfH
	DW	019dH
	DD	042327627r			; 44.6154
	DW	0dfH
	DW	019cH
	DD	042389d8ar			; 46.1538
	DW	0dfH
	DW	019bH
	DD	0423ec4ecr			; 47.6923
	DW	0dfH
	DW	019aH
	DD	04244ec4fr			; 49.2308
	DW	0dfH
	DW	0199H
	DD	0424b13b1r			; 50.7692
	DW	0deH
	DW	0198H
	DD	042513b14r			; 52.3077
	DW	0deH
	DW	0197H
	DD	042576276r			; 53.8462
	DW	0deH
	DW	0196H
	DD	0425d89d9r			; 55.3846
	DW	0deH
	DW	0195H
	DD	04263b13br			; 56.9231
	DW	0deH
	DW	0194H
	DD	04269d89er			; 58.4615
	DW	0deH
	DW	0193H
	DD	042700000r			; 60
	DW	0ddH
	DW	0192H
	DD	04276aaabr			; 61.6667
	DW	0ddH
	DW	0191H
	DD	0427d5555r			; 63.3333
	DW	0ddH
	DW	0190H
	DD	042820000r			; 65
	DW	0ddH
	DW	018fH
	DD	042855555r			; 66.6667
	DW	0ddH
	DW	018eH
	DD	04288aaabr			; 68.3333
	DW	0dcH
	DW	018dH
	DD	0428c0000r			; 70
	DW	0dcH
	DW	018cH
	DD	0428f5555r			; 71.6667
	DW	0dcH
	DW	018bH
	DD	04292aaabr			; 73.3333
	DW	0dcH
	DW	018aH
	DD	042960000r			; 75
	DW	0dcH
	DW	0189H
	DD	042995555r			; 76.6667
	DW	0dbH
	DW	0188H
	DD	0429caaabr			; 78.3333
	DW	0dbH
	DW	0187H
	DD	042a00000r			; 80
	DW	0dbH
	DW	0186H
	DD	042a35555r			; 81.6667
	DW	0dbH
	DW	0185H
	DD	042a6aaabr			; 83.3333
	DW	0dbH
	DW	0184H
	DD	042aa0000r			; 85
	DW	0dbH
	DW	0183H
	DD	042ad5555r			; 86.6667
	DW	0daH
	DW	0182H
	DD	042b0aaabr			; 88.3333
	DW	0daH
	DW	0181H
	DD	042b40000r			; 90
	DW	0daH
	DW	0180H
	DD	042b75555r			; 91.6667
	DW	0daH
	DW	017fH
	DD	042baaaabr			; 93.3333
	DW	0daH
	DW	017eH
	DD	042be0000r			; 95
	DW	0d9H
	DW	017dH
	DD	042c15555r			; 96.6667
	DW	0d9H
	DW	017cH
	DD	042c4aaabr			; 98.3333
	DW	0d9H
	DW	017bH
	DD	042c80000r			; 100
	DW	0d9H
	DW	017aH
	DD	042cb5555r			; 101.667
	DW	0d9H
	DW	0179H
	DD	042ceaaabr			; 103.333
	DW	0d9H
	DW	0178H
	DD	042d20000r			; 105
	DW	0d8H
	DW	0177H
	DD	042d55555r			; 106.667
	DW	0d8H
	DW	0176H
	DD	042d8aaabr			; 108.333
	DW	0d8H
	DW	0175H
	DD	042dc0000r			; 110
	DW	00H
	DW	00H
	DD	07f7fffffr			; 3.40282e+38
?rh_engine_torque_indicator_line2_down_20_right_30@@3PAUSCALE_DATA@@A DW 0e5H ; rh_engine_torque_indicator_line2_down_20_right_30
	DW	01b8H
	DD	000000000r			; 0
	DW	0e5H
	DW	01b7H
	DD	03fd55555r			; 1.66667
	DW	0e5H
	DW	01b6H
	DD	040555555r			; 3.33333
	DW	0e5H
	DW	01b5H
	DD	040a00000r			; 5
	DW	0e4H
	DW	01b4H
	DD	040d55555r			; 6.66667
	DW	0e4H
	DW	01b3H
	DD	041055555r			; 8.33333
	DW	0e4H
	DW	01b2H
	DD	041200000r			; 10
	DW	0e4H
	DW	01b1H
	DD	0413aaaabr			; 11.6667
	DW	0e4H
	DW	01b0H
	DD	041555555r			; 13.3333
	DW	0e4H
	DW	01afH
	DD	041700000r			; 15
	DW	0e3H
	DW	01aeH
	DD	041855555r			; 16.6667
	DW	0e3H
	DW	01adH
	DD	04192aaabr			; 18.3333
	DW	0e3H
	DW	01acH
	DD	041a00000r			; 20
	DW	0e3H
	DW	01abH
	DD	041ad5555r			; 21.6667
	DW	0e3H
	DW	01aaH
	DD	041baaaabr			; 23.3333
	DW	0e2H
	DW	01a9H
	DD	041c80000r			; 25
	DW	0e2H
	DW	01a8H
	DD	041d55555r			; 26.6667
	DW	0e2H
	DW	01a7H
	DD	041e2aaabr			; 28.3333
	DW	0e2H
	DW	01a6H
	DD	041f00000r			; 30
	DW	0e2H
	DW	01a5H
	DD	041fd5555r			; 31.6667
	DW	0e2H
	DW	01a4H
	DD	042055555r			; 33.3333
	DW	0e1H
	DW	01a3H
	DD	0420c0000r			; 35
	DW	0e1H
	DW	01a2H
	DD	04212aaabr			; 36.6667
	DW	0e1H
	DW	01a1H
	DD	042195555r			; 38.3333
	DW	0e1H
	DW	01a0H
	DD	042200000r			; 40
	DW	0e1H
	DW	019fH
	DD	042262762r			; 41.5385
	DW	0e0H
	DW	019eH
	DD	0422c4ec5r			; 43.0769
	DW	0e0H
	DW	019dH
	DD	042327627r			; 44.6154
	DW	0e0H
	DW	019cH
	DD	042389d8ar			; 46.1538
	DW	0e0H
	DW	019bH
	DD	0423ec4ecr			; 47.6923
	DW	0e0H
	DW	019aH
	DD	04244ec4fr			; 49.2308
	DW	0e0H
	DW	0199H
	DD	0424b13b1r			; 50.7692
	DW	0dfH
	DW	0198H
	DD	042513b14r			; 52.3077
	DW	0dfH
	DW	0197H
	DD	042576276r			; 53.8462
	DW	0dfH
	DW	0196H
	DD	0425d89d9r			; 55.3846
	DW	0dfH
	DW	0195H
	DD	04263b13br			; 56.9231
	DW	0dfH
	DW	0194H
	DD	04269d89er			; 58.4615
	DW	0deH
	DW	0193H
	DD	042700000r			; 60
	DW	0deH
	DW	0192H
	DD	04276aaabr			; 61.6667
	DW	0deH
	DW	0191H
	DD	0427d5555r			; 63.3333
	DW	0deH
	DW	0190H
	DD	042820000r			; 65
	DW	0deH
	DW	018fH
	DD	042855555r			; 66.6667
	DW	0ddH
	DW	018eH
	DD	04288aaabr			; 68.3333
	DW	0ddH
	DW	018dH
	DD	0428c0000r			; 70
	DW	0ddH
	DW	018cH
	DD	0428f5555r			; 71.6667
	DW	0ddH
	DW	018bH
	DD	04292aaabr			; 73.3333
	DW	0ddH
	DW	018aH
	DD	042960000r			; 75
	DW	0ddH
	DW	0189H
	DD	042995555r			; 76.6667
	DW	0dcH
	DW	0188H
	DD	0429caaabr			; 78.3333
	DW	0dcH
	DW	0187H
	DD	042a00000r			; 80
	DW	0dcH
	DW	0186H
	DD	042a35555r			; 81.6667
	DW	0dcH
	DW	0185H
	DD	042a6aaabr			; 83.3333
	DW	0dcH
	DW	0184H
	DD	042aa0000r			; 85
	DW	0dbH
	DW	0183H
	DD	042ad5555r			; 86.6667
	DW	0dbH
	DW	0182H
	DD	042b0aaabr			; 88.3333
	DW	0dbH
	DW	0181H
	DD	042b40000r			; 90
	DW	0dbH
	DW	0180H
	DD	042b75555r			; 91.6667
	DW	0dbH
	DW	017fH
	DD	042baaaabr			; 93.3333
	DW	0dbH
	DW	017eH
	DD	042be0000r			; 95
	DW	0daH
	DW	017dH
	DD	042c15555r			; 96.6667
	DW	0daH
	DW	017cH
	DD	042c4aaabr			; 98.3333
	DW	0daH
	DW	017bH
	DD	042c80000r			; 100
	DW	0daH
	DW	017aH
	DD	042cb5555r			; 101.667
	DW	0daH
	DW	0179H
	DD	042ceaaabr			; 103.333
	DW	0d9H
	DW	0178H
	DD	042d20000r			; 105
	DW	0d9H
	DW	0177H
	DD	042d55555r			; 106.667
	DW	0d9H
	DW	0176H
	DD	042d8aaabr			; 108.333
	DW	0d9H
	DW	0175H
	DD	042dc0000r			; 110
	DW	00H
	DW	00H
	DD	07f7fffffr			; 3.40282e+38
?fuel_gauge_needle_scale_down_20_ahead@@3PAUSCALE_DATA@@A DW 0199H ; fuel_gauge_needle_scale_down_20_ahead
	DW	01bdH
	DD	000000000r			; 0
	DW	0198H
	DW	01bcH
	DD	041d286bdr			; 26.3158
	DW	0197H
	DW	01bbH
	DD	0425286bdr			; 52.6316
	DW	0196H
	DW	01baH
	DD	0429de50dr			; 78.9474
	DW	0196H
	DW	01b9H
	DD	042d286bdr			; 105.263
	DW	0196H
	DW	01b8H
	DD	043039436r			; 131.579
	DW	0196H
	DW	01b7H
	DD	0431de50dr			; 157.895
	DW	0195H
	DW	01b6H
	DD	0433835e5r			; 184.211
	DW	0195H
	DW	01b5H
	DD	0435286bdr			; 210.526
	DW	0195H
	DW	01b4H
	DD	0436cd794r			; 236.842
	DW	0195H
	DW	01b3H
	DD	043839436r			; 263.158
	DW	0195H
	DW	01b2H
	DD	04390bca2r			; 289.474
	DW	0195H
	DW	01b1H
	DD	0439de50dr			; 315.789
	DW	0195H
	DW	01b0H
	DD	043ab0d79r			; 342.105
	DW	0196H
	DW	01afH
	DD	043b835e5r			; 368.421
	DW	0196H
	DW	01aeH
	DD	043c55e51r			; 394.737
	DW	0197H
	DW	01adH
	DD	043d286bdr			; 421.053
	DW	0197H
	DW	01acH
	DD	043dfaf28r			; 447.368
	DW	0198H
	DW	01abH
	DD	043ecd794r			; 473.684
	DW	0199H
	DW	01aaH
	DD	043fa0000r			; 500
	DW	019aH
	DW	01a9H
	DD	044034000r			; 525
	DW	019bH
	DW	01a8H
	DD	044098000r			; 550
	DW	019cH
	DW	01a8H
	DD	0440fc000r			; 575
	DW	019dH
	DW	01a7H
	DD	044160000r			; 600
	DW	019eH
	DW	01a7H
	DD	0441c4000r			; 625
	DW	019fH
	DW	01a6H
	DD	044228000r			; 650
	DW	01a0H
	DW	01a6H
	DD	04428c000r			; 675
	DW	01a1H
	DW	01a6H
	DD	0442f0000r			; 700
	DW	01a2H
	DW	01a6H
	DD	044354000r			; 725
	DW	01a3H
	DW	01a6H
	DD	0443b8000r			; 750
	DW	01a4H
	DW	01a6H
	DD	04441c000r			; 775
	DW	01a5H
	DW	01a6H
	DD	044480000r			; 800
	DW	01a6H
	DW	01a6H
	DD	0444e4000r			; 825
	DW	01a7H
	DW	01a6H
	DD	044548000r			; 850
	DW	01a8H
	DW	01a6H
	DD	0445ac000r			; 875
	DW	01a9H
	DW	01a7H
	DD	044610000r			; 900
	DW	01aaH
	DW	01a7H
	DD	044674000r			; 925
	DW	01abH
	DW	01a8H
	DD	0446d8000r			; 950
	DW	01acH
	DW	01a9H
	DD	04473c000r			; 975
	DW	01adH
	DW	01aaH
	DD	0447a0000r			; 1000
	DW	01aeH
	DW	01abH
	DD	044804a1br			; 1026.32
	DW	01aeH
	DW	01acH
	DD	044839436r			; 1052.63
	DW	01afH
	DW	01adH
	DD	04486de51r			; 1078.95
	DW	01b0H
	DW	01aeH
	DD	0448a286cr			; 1105.26
	DW	01b0H
	DW	01afH
	DD	0448d7287r			; 1131.58
	DW	01b1H
	DW	01b0H
	DD	04490bca2r			; 1157.89
	DW	01b1H
	DW	01b1H
	DD	0449406bdr			; 1184.21
	DW	01b1H
	DW	01b2H
	DD	0449750d8r			; 1210.53
	DW	01b1H
	DW	01b3H
	DD	0449a9af3r			; 1236.84
	DW	01b1H
	DW	01b4H
	DD	0449de50dr			; 1263.16
	DW	01b1H
	DW	01b5H
	DD	044a12f28r			; 1289.47
	DW	01b1H
	DW	01b6H
	DD	044a47943r			; 1315.79
	DW	01b0H
	DW	01b7H
	DD	044a7c35er			; 1342.11
	DW	01b0H
	DW	01b8H
	DD	044ab0d79r			; 1368.42
	DW	01b0H
	DW	01b9H
	DD	044ae5794r			; 1394.74
	DW	01afH
	DW	01baH
	DD	044b1a1afr			; 1421.05
	DW	01afH
	DW	01bbH
	DD	044b4ebcar			; 1447.37
	DW	01aeH
	DW	01bcH
	DD	044b835e5r			; 1473.68
	DW	01adH
	DW	01bdH
	DD	044bb8000r			; 1500
	DW	01acH
	DW	01beH
	DD	044bfaaabr			; 1533.33
	DW	01abH
	DW	01bfH
	DD	044c3d555r			; 1566.67
	DW	01aaH
	DW	01bfH
	DD	044c80000r			; 1600
	DW	00H
	DW	00H
	DD	07f7fffffr			; 3.40282e+38
?fuel_gauge_needle_scale_down_20_right_30@@3PAUSCALE_DATA@@A DW 0a7H ; fuel_gauge_needle_scale_down_20_right_30
	DW	01c8H
	DD	000000000r			; 0
	DW	0a6H
	DW	01c7H
	DD	041c80000r			; 25
	DW	0a5H
	DW	01c7H
	DD	042480000r			; 50
	DW	0a4H
	DW	01c6H
	DD	042960000r			; 75
	DW	0a3H
	DW	01c5H
	DD	042c80000r			; 100
	DW	0a3H
	DW	01c4H
	DD	042fa0000r			; 125
	DW	0a2H
	DW	01c3H
	DD	043160000r			; 150
	DW	0a2H
	DW	01c2H
	DD	0432f0000r			; 175
	DW	0a2H
	DW	01c1H
	DD	043480000r			; 200
	DW	0a1H
	DW	01c0H
	DD	043610000r			; 225
	DW	0a1H
	DW	01bfH
	DD	0437a0000r			; 250
	DW	0a1H
	DW	01beH
	DD	043898000r			; 275
	DW	0a1H
	DW	01bdH
	DD	043960000r			; 300
	DW	0a1H
	DW	01bcH
	DD	043a28000r			; 325
	DW	0a1H
	DW	01bbH
	DD	043af0000r			; 350
	DW	0a2H
	DW	01baH
	DD	043bb8000r			; 375
	DW	0a2H
	DW	01b9H
	DD	043c80000r			; 400
	DW	0a2H
	DW	01b8H
	DD	043d48000r			; 425
	DW	0a3H
	DW	01b7H
	DD	043e10000r			; 450
	DW	0a3H
	DW	01b6H
	DD	043ed8000r			; 475
	DW	0a4H
	DW	01b5H
	DD	043fa0000r			; 500
	DW	0a4H
	DW	01b4H
	DD	04402f3cfr			; 523.81
	DW	0a5H
	DW	01b3H
	DD	04408e79er			; 547.619
	DW	0a6H
	DW	01b2H
	DD	0440edb6er			; 571.429
	DW	0a7H
	DW	01b1H
	DD	04414cf3dr			; 595.238
	DW	0a8H
	DW	01b0H
	DD	0441ac30cr			; 619.048
	DW	0a9H
	DW	01b0H
	DD	04420b6dbr			; 642.857
	DW	0aaH
	DW	01afH
	DD	04426aaabr			; 666.667
	DW	0abH
	DW	01aeH
	DD	0442c9e7ar			; 690.476
	DW	0acH
	DW	01aeH
	DD	044329249r			; 714.286
	DW	0adH
	DW	01aeH
	DD	044388618r			; 738.095
	DW	0aeH
	DW	01adH
	DD	0443e79e8r			; 761.905
	DW	0afH
	DW	01adH
	DD	044446db7r			; 785.714
	DW	0b0H
	DW	01adH
	DD	0444a6186r			; 809.524
	DW	0b1H
	DW	01adH
	DD	044505555r			; 833.333
	DW	0b2H
	DW	01adH
	DD	044564925r			; 857.143
	DW	0b3H
	DW	01adH
	DD	0445c3cf4r			; 880.952
	DW	0b4H
	DW	01adH
	DD	0446230c3r			; 904.762
	DW	0b5H
	DW	01adH
	DD	044682492r			; 928.571
	DW	0b6H
	DW	01adH
	DD	0446e1862r			; 952.381
	DW	0b7H
	DW	01aeH
	DD	044740c31r			; 976.19
	DW	0b8H
	DW	01afH
	DD	0447a0000r			; 1000
	DW	0b9H
	DW	01afH
	DD	044804a1br			; 1026.32
	DW	0baH
	DW	01b0H
	DD	044839436r			; 1052.63
	DW	0bbH
	DW	01b1H
	DD	04486de51r			; 1078.95
	DW	0bcH
	DW	01b2H
	DD	0448a286cr			; 1105.26
	DW	0bcH
	DW	01b3H
	DD	0448d7287r			; 1131.58
	DW	0bdH
	DW	01b4H
	DD	04490bca2r			; 1157.89
	DW	0bdH
	DW	01b5H
	DD	0449406bdr			; 1184.21
	DW	0bdH
	DW	01b6H
	DD	0449750d8r			; 1210.53
	DW	0beH
	DW	01b7H
	DD	0449a9af3r			; 1236.84
	DW	0beH
	DW	01b8H
	DD	0449de50dr			; 1263.16
	DW	0beH
	DW	01b9H
	DD	044a12f28r			; 1289.47
	DW	0beH
	DW	01baH
	DD	044a47943r			; 1315.79
	DW	0bdH
	DW	01bbH
	DD	044a7c35er			; 1342.11
	DW	0bdH
	DW	01bcH
	DD	044ab0d79r			; 1368.42
	DW	0bdH
	DW	01bdH
	DD	044ae5794r			; 1394.74
	DW	0bdH
	DW	01beH
	DD	044b1a1afr			; 1421.05
	DW	0bcH
	DW	01bfH
	DD	044b4ebcar			; 1447.37
	DW	0bcH
	DW	01c0H
	DD	044b835e5r			; 1473.68
	DW	0bbH
	DW	01c1H
	DD	044bb8000r			; 1500
	DW	0bbH
	DW	01c2H
	DD	044bea000r			; 1525
	DW	0baH
	DW	01c3H
	DD	044c1c000r			; 1550
	DW	0b9H
	DW	01c4H
	DD	044c4e000r			; 1575
	DW	0b8H
	DW	01c5H
	DD	044c80000r			; 1600
	DW	00H
	DW	00H
	DD	07f7fffffr			; 3.40282e+38
?g_meter_needle_scale_level_ahead@@3PAUSCALE_DATA@@A DW 064H ; g_meter_needle_scale_level_ahead
	DW	017aH
	DD	0c0000000r			; -2
	DW	064H
	DW	0179H
	DD	0bff77777r			; -1.93333
	DW	064H
	DW	0178H
	DD	0bfeeeeefr			; -1.86667
	DW	064H
	DW	0177H
	DD	0bfe66666r			; -1.8
	DW	064H
	DW	0176H
	DD	0bfddddder			; -1.73333
	DW	065H
	DW	0175H
	DD	0bfd55555r			; -1.66667
	DW	065H
	DW	0174H
	DD	0bfcccccdr			; -1.6
	DW	065H
	DW	0173H
	DD	0bfc44444r			; -1.53333
	DW	065H
	DW	0172H
	DD	0bfbbbbbcr			; -1.46667
	DW	066H
	DW	0171H
	DD	0bfb33333r			; -1.4
	DW	066H
	DW	0170H
	DD	0bfaaaaabr			; -1.33333
	DW	067H
	DW	016fH
	DD	0bfa22222r			; -1.26667
	DW	067H
	DW	016eH
	DD	0bf99999ar			; -1.2
	DW	068H
	DW	016dH
	DD	0bf911111r			; -1.13333
	DW	069H
	DW	016cH
	DD	0bf888889r			; -1.06667
	DW	06aH
	DW	016bH
	DD	0bf800000r			; -1
	DW	06bH
	DW	016aH
	DD	0bf6c4ec5r			; -0.923077
	DW	06cH
	DW	0169H
	DD	0bf589d8ar			; -0.846154
	DW	06dH
	DW	0168H
	DD	0bf44ec4fr			; -0.769231
	DW	06eH
	DW	0167H
	DD	0bf313b14r			; -0.692308
	DW	06fH
	DW	0167H
	DD	0bf1d89d9r			; -0.615385
	DW	070H
	DW	0166H
	DD	0bf09d89er			; -0.538462
	DW	071H
	DW	0166H
	DD	0beec4ec5r			; -0.461538
	DW	072H
	DW	0166H
	DD	0bec4ec4fr			; -0.384615
	DW	073H
	DW	0165H
	DD	0be9d89d9r			; -0.307692
	DW	074H
	DW	0165H
	DD	0be6c4ec5r			; -0.230769
	DW	075H
	DW	0165H
	DD	0be1d89d9r			; -0.153846
	DW	076H
	DW	0165H
	DD	0bd9d89d9r			; -0.0769231
	DW	077H
	DW	0165H
	DD	000000000r			; 0
	DW	078H
	DW	0165H
	DD	03d9d89d9r			; 0.0769231
	DW	079H
	DW	0165H
	DD	03e1d89d9r			; 0.153846
	DW	07aH
	DW	0165H
	DD	03e6c4ec5r			; 0.230769
	DW	07bH
	DW	0165H
	DD	03e9d89d9r			; 0.307692
	DW	07cH
	DW	0165H
	DD	03ec4ec4fr			; 0.384615
	DW	07dH
	DW	0166H
	DD	03eec4ec5r			; 0.461538
	DW	07eH
	DW	0166H
	DD	03f09d89er			; 0.538462
	DW	07fH
	DW	0167H
	DD	03f1d89d9r			; 0.615385
	DW	080H
	DW	0167H
	DD	03f313b14r			; 0.692308
	DW	081H
	DW	0168H
	DD	03f44ec4fr			; 0.769231
	DW	082H
	DW	0169H
	DD	03f589d8ar			; 0.846154
	DW	083H
	DW	016aH
	DD	03f6c4ec5r			; 0.923077
	DW	084H
	DW	016bH
	DD	03f800000r			; 1
	DW	085H
	DW	016cH
	DD	03f892492r			; 1.07143
	DW	085H
	DW	016dH
	DD	03f924925r			; 1.14286
	DW	085H
	DW	016eH
	DD	03f9b6db7r			; 1.21429
	DW	086H
	DW	016fH
	DD	03fa49249r			; 1.28571
	DW	086H
	DW	0170H
	DD	03fadb6dbr			; 1.35714
	DW	086H
	DW	0171H
	DD	03fb6db6er			; 1.42857
	DW	086H
	DW	0172H
	DD	03fc00000r			; 1.5
	DW	086H
	DW	0173H
	DD	03fc92492r			; 1.57143
	DW	086H
	DW	0174H
	DD	03fd24925r			; 1.64286
	DW	086H
	DW	0175H
	DD	03fdb6db7r			; 1.71429
	DW	086H
	DW	0176H
	DD	03fe49249r			; 1.78571
	DW	086H
	DW	0177H
	DD	03fedb6dbr			; 1.85714
	DW	086H
	DW	0178H
	DD	03ff6db6er			; 1.92857
	DW	086H
	DW	0179H
	DD	040000000r			; 2
	DW	085H
	DW	017aH
	DD	040049249r			; 2.07143
	DW	085H
	DW	017bH
	DD	040092492r			; 2.14286
	DW	085H
	DW	017cH
	DD	0400db6dbr			; 2.21429
	DW	084H
	DW	017dH
	DD	040124925r			; 2.28571
	DW	084H
	DW	017eH
	DD	04016db6er			; 2.35714
	DW	083H
	DW	017fH
	DD	0401b6db7r			; 2.42857
	DW	082H
	DW	0180H
	DD	040200000r			; 2.5
	DW	081H
	DW	0181H
	DD	040249249r			; 2.57143
	DW	080H
	DW	0182H
	DD	040292492r			; 2.64286
	DW	07fH
	DW	0183H
	DD	0402db6dbr			; 2.71429
	DW	07eH
	DW	0184H
	DD	040324925r			; 2.78571
	DW	07dH
	DW	0185H
	DD	04036db6er			; 2.85714
	DW	07cH
	DW	0185H
	DD	0403b6db7r			; 2.92857
	DW	07bH
	DW	0186H
	DD	040400000r			; 3
	DW	07aH
	DW	0186H
	DD	040444444r			; 3.06667
	DW	079H
	DW	0186H
	DD	040488889r			; 3.13333
	DW	078H
	DW	0187H
	DD	0404ccccdr			; 3.2
	DW	077H
	DW	0187H
	DD	040511111r			; 3.26667
	DW	076H
	DW	0187H
	DD	040555555r			; 3.33333
	DW	075H
	DW	0187H
	DD	04059999ar			; 3.4
	DW	074H
	DW	0187H
	DD	0405dddder			; 3.46667
	DW	073H
	DW	0187H
	DD	040622222r			; 3.53333
	DW	072H
	DW	0187H
	DD	040666666r			; 3.6
	DW	071H
	DW	0187H
	DD	0406aaaabr			; 3.66667
	DW	070H
	DW	0187H
	DD	0406eeeefr			; 3.73333
	DW	06fH
	DW	0187H
	DD	040733333r			; 3.8
	DW	06eH
	DW	0187H
	DD	040777777r			; 3.86667
	DW	06dH
	DW	0186H
	DD	0407bbbbcr			; 3.93333
	DW	06cH
	DW	0186H
	DD	040800000r			; 4
	DW	00H
	DW	00H
	DD	07f7fffffr			; 3.40282e+38
?g_meter_needle_scale_down_20_ahead@@3PAUSCALE_DATA@@A DW 06aH ; g_meter_needle_scale_down_20_ahead
	DW	0b5H
	DD	0c0000000r			; -2
	DW	06aH
	DW	0b4H
	DD	0bff6db6er			; -1.92857
	DW	069H
	DW	0b3H
	DD	0bfedb6dbr			; -1.85714
	DW	069H
	DW	0b2H
	DD	0bfe49249r			; -1.78571
	DW	069H
	DW	0b1H
	DD	0bfdb6db7r			; -1.71429
	DW	069H
	DW	0b0H
	DD	0bfd24925r			; -1.64286
	DW	069H
	DW	0afH
	DD	0bfc92492r			; -1.57143
	DW	06aH
	DW	0aeH
	DD	0bfc00000r			; -1.5
	DW	06aH
	DW	0adH
	DD	0bfb6db6er			; -1.42857
	DW	06aH
	DW	0acH
	DD	0bfadb6dbr			; -1.35714
	DW	06aH
	DW	0abH
	DD	0bfa49249r			; -1.28571
	DW	06bH
	DW	0aaH
	DD	0bf9b6db7r			; -1.21429
	DW	06bH
	DW	0a9H
	DD	0bf924925r			; -1.14286
	DW	06cH
	DW	0a8H
	DD	0bf892492r			; -1.07143
	DW	06dH
	DW	0a7H
	DD	0bf800000r			; -1
	DW	06dH
	DW	0a6H
	DD	0bf6db6dbr			; -0.928571
	DW	06eH
	DW	0a5H
	DD	0bf5b6db7r			; -0.857143
	DW	06fH
	DW	0a4H
	DD	0bf492492r			; -0.785714
	DW	070H
	DW	0a4H
	DD	0bf36db6er			; -0.714286
	DW	071H
	DW	0a3H
	DD	0bf249249r			; -0.642857
	DW	072H
	DW	0a3H
	DD	0bf124925r			; -0.571429
	DW	073H
	DW	0a2H
	DD	0bf000000r			; -0.5
	DW	074H
	DW	0a2H
	DD	0bedb6db7r			; -0.428571
	DW	075H
	DW	0a1H
	DD	0beb6db6er			; -0.357143
	DW	076H
	DW	0a1H
	DD	0be924925r			; -0.285714
	DW	077H
	DW	0a1H
	DD	0be5b6db7r			; -0.214286
	DW	078H
	DW	0a1H
	DD	0be124925r			; -0.142857
	DW	079H
	DW	0a1H
	DD	0bd924925r			; -0.0714286
	DW	07aH
	DW	0a1H
	DD	000000000r			; 0
	DW	07bH
	DW	0a1H
	DD	03d9d89d9r			; 0.0769231
	DW	07cH
	DW	0a1H
	DD	03e1d89d9r			; 0.153846
	DW	07dH
	DW	0a1H
	DD	03e6c4ec5r			; 0.230769
	DW	07eH
	DW	0a1H
	DD	03e9d89d9r			; 0.307692
	DW	07fH
	DW	0a1H
	DD	03ec4ec4fr			; 0.384615
	DW	080H
	DW	0a2H
	DD	03eec4ec5r			; 0.461538
	DW	081H
	DW	0a2H
	DD	03f09d89er			; 0.538462
	DW	082H
	DW	0a3H
	DD	03f1d89d9r			; 0.615385
	DW	083H
	DW	0a3H
	DD	03f313b14r			; 0.692308
	DW	084H
	DW	0a4H
	DD	03f44ec4fr			; 0.769231
	DW	085H
	DW	0a5H
	DD	03f589d8ar			; 0.846154
	DW	086H
	DW	0a6H
	DD	03f6c4ec5r			; 0.923077
	DW	087H
	DW	0a7H
	DD	03f800000r			; 1
	DW	088H
	DW	0a8H
	DD	03f892492r			; 1.07143
	DW	088H
	DW	0a9H
	DD	03f924925r			; 1.14286
	DW	089H
	DW	0aaH
	DD	03f9b6db7r			; 1.21429
	DW	089H
	DW	0abH
	DD	03fa49249r			; 1.28571
	DW	08aH
	DW	0acH
	DD	03fadb6dbr			; 1.35714
	DW	08aH
	DW	0adH
	DD	03fb6db6er			; 1.42857
	DW	08aH
	DW	0aeH
	DD	03fc00000r			; 1.5
	DW	08aH
	DW	0afH
	DD	03fc92492r			; 1.57143
	DW	08aH
	DW	0b0H
	DD	03fd24925r			; 1.64286
	DW	08aH
	DW	0b1H
	DD	03fdb6db7r			; 1.71429
	DW	08aH
	DW	0b2H
	DD	03fe49249r			; 1.78571
	DW	08aH
	DW	0b3H
	DD	03fedb6dbr			; 1.85714
	DW	08aH
	DW	0b4H
	DD	03ff6db6er			; 1.92857
	DW	08aH
	DW	0b5H
	DD	040000000r			; 2
	DW	08aH
	DW	0b6H
	DD	040055555r			; 2.08333
	DW	089H
	DW	0b7H
	DD	0400aaaabr			; 2.16667
	DW	089H
	DW	0b8H
	DD	040100000r			; 2.25
	DW	089H
	DW	0b9H
	DD	040155555r			; 2.33333
	DW	088H
	DW	0baH
	DD	0401aaaabr			; 2.41667
	DW	087H
	DW	0bbH
	DD	040200000r			; 2.5
	DW	087H
	DW	0bcH
	DD	040255555r			; 2.58333
	DW	086H
	DW	0bdH
	DD	0402aaaabr			; 2.66667
	DW	085H
	DW	0beH
	DD	040300000r			; 2.75
	DW	084H
	DW	0beH
	DD	040355555r			; 2.83333
	DW	083H
	DW	0bfH
	DD	0403aaaabr			; 2.91667
	DW	082H
	DW	0c0H
	DD	040400000r			; 3
	DW	081H
	DW	0c0H
	DD	040444444r			; 3.06667
	DW	080H
	DW	0c1H
	DD	040488889r			; 3.13333
	DW	07fH
	DW	0c1H
	DD	0404ccccdr			; 3.2
	DW	07eH
	DW	0c1H
	DD	040511111r			; 3.26667
	DW	07dH
	DW	0c1H
	DD	040555555r			; 3.33333
	DW	07cH
	DW	0c2H
	DD	04059999ar			; 3.4
	DW	07bH
	DW	0c2H
	DD	0405dddder			; 3.46667
	DW	07aH
	DW	0c2H
	DD	040622222r			; 3.53333
	DW	079H
	DW	0c2H
	DD	040666666r			; 3.6
	DW	078H
	DW	0c2H
	DD	0406aaaabr			; 3.66667
	DW	077H
	DW	0c1H
	DD	0406eeeefr			; 3.73333
	DW	076H
	DW	0c1H
	DD	040733333r			; 3.8
	DW	075H
	DW	0c1H
	DD	040777777r			; 3.86667
	DW	074H
	DW	0c1H
	DD	0407bbbbcr			; 3.93333
	DW	073H
	DW	0c0H
	DD	040800000r			; 4
	DW	00H
	DW	00H
	DD	07f7fffffr			; 3.40282e+38
?g_meter_needle_scale_level_left_30@@3PAUSCALE_DATA@@A DW 0192H ; g_meter_needle_scale_level_left_30
	DW	0171H
	DD	0c0000000r			; -2
	DW	0192H
	DW	0170H
	DD	0bff62762r			; -1.92308
	DW	0192H
	DW	016fH
	DD	0bfec4ec5r			; -1.84615
	DW	0192H
	DW	016eH
	DD	0bfe27627r			; -1.76923
	DW	0192H
	DW	016dH
	DD	0bfd89d8ar			; -1.69231
	DW	0193H
	DW	016cH
	DD	0bfcec4ecr			; -1.61538
	DW	0193H
	DW	016bH
	DD	0bfc4ec4fr			; -1.53846
	DW	0193H
	DW	016aH
	DD	0bfbb13b1r			; -1.46154
	DW	0194H
	DW	0169H
	DD	0bfb13b14r			; -1.38462
	DW	0194H
	DW	0168H
	DD	0bfa76276r			; -1.30769
	DW	0195H
	DW	0167H
	DD	0bf9d89d9r			; -1.23077
	DW	0195H
	DW	0166H
	DD	0bf93b13br			; -1.15385
	DW	0196H
	DW	0165H
	DD	0bf89d89er			; -1.07692
	DW	0197H
	DW	0164H
	DD	0bf800000r			; -1
	DW	0198H
	DW	0163H
	DD	0bf6aaaabr			; -0.916667
	DW	0199H
	DW	0162H
	DD	0bf555555r			; -0.833333
	DW	019aH
	DW	0162H
	DD	0bf400000r			; -0.75
	DW	019bH
	DW	0161H
	DD	0bf2aaaabr			; -0.666667
	DW	019cH
	DW	0161H
	DD	0bf155555r			; -0.583333
	DW	019dH
	DW	0160H
	DD	0bf000000r			; -0.5
	DW	019eH
	DW	0160H
	DD	0bed55555r			; -0.416667
	DW	019fH
	DW	0160H
	DD	0beaaaaabr			; -0.333333
	DW	01a0H
	DW	0160H
	DD	0be800000r			; -0.25
	DW	01a1H
	DW	0160H
	DD	0be2aaaabr			; -0.166667
	DW	01a2H
	DW	015fH
	DD	0bdaaaaabr			; -0.0833333
	DW	01a3H
	DW	0160H
	DD	000000000r			; 0
	DW	01a4H
	DW	0160H
	DD	03d9d89d9r			; 0.0769231
	DW	01a5H
	DW	0160H
	DD	03e1d89d9r			; 0.153846
	DW	01a6H
	DW	0160H
	DD	03e6c4ec5r			; 0.230769
	DW	01a7H
	DW	0160H
	DD	03e9d89d9r			; 0.307692
	DW	01a8H
	DW	0161H
	DD	03ec4ec4fr			; 0.384615
	DW	01a9H
	DW	0161H
	DD	03eec4ec5r			; 0.461538
	DW	01aaH
	DW	0162H
	DD	03f09d89er			; 0.538462
	DW	01abH
	DW	0163H
	DD	03f1d89d9r			; 0.615385
	DW	01acH
	DW	0163H
	DD	03f313b14r			; 0.692308
	DW	01adH
	DW	0164H
	DD	03f44ec4fr			; 0.769231
	DW	01aeH
	DW	0165H
	DD	03f589d8ar			; 0.846154
	DW	01aeH
	DW	0166H
	DD	03f6c4ec5r			; 0.923077
	DW	01afH
	DW	0167H
	DD	03f800000r			; 1
	DW	01afH
	DW	0168H
	DD	03f892492r			; 1.07143
	DW	01b0H
	DW	0169H
	DD	03f924925r			; 1.14286
	DW	01b0H
	DW	016aH
	DD	03f9b6db7r			; 1.21429
	DW	01b1H
	DW	016bH
	DD	03fa49249r			; 1.28571
	DW	01b1H
	DW	016cH
	DD	03fadb6dbr			; 1.35714
	DW	01b1H
	DW	016dH
	DD	03fb6db6er			; 1.42857
	DW	01b1H
	DW	016eH
	DD	03fc00000r			; 1.5
	DW	01b1H
	DW	016fH
	DD	03fc92492r			; 1.57143
	DW	01b1H
	DW	0170H
	DD	03fd24925r			; 1.64286
	DW	01b1H
	DW	0171H
	DD	03fdb6db7r			; 1.71429
	DW	01b1H
	DW	0172H
	DD	03fe49249r			; 1.78571
	DW	01b1H
	DW	0173H
	DD	03fedb6dbr			; 1.85714
	DW	01b1H
	DW	0174H
	DD	03ff6db6er			; 1.92857
	DW	01b0H
	DW	0175H
	DD	040000000r			; 2
	DW	01b0H
	DW	0176H
	DD	04004ec4fr			; 2.07692
	DW	01b0H
	DW	0177H
	DD	04009d89er			; 2.15385
	DW	01afH
	DW	0178H
	DD	0400ec4ecr			; 2.23077
	DW	01afH
	DW	0179H
	DD	04013b13br			; 2.30769
	DW	01aeH
	DW	017aH
	DD	040189d8ar			; 2.38462
	DW	01adH
	DW	017bH
	DD	0401d89d9r			; 2.46154
	DW	01acH
	DW	017cH
	DD	040227627r			; 2.53846
	DW	01abH
	DW	017dH
	DD	040276276r			; 2.61538
	DW	01aaH
	DW	017eH
	DD	0402c4ec5r			; 2.69231
	DW	01a9H
	DW	017eH
	DD	040313b14r			; 2.76923
	DW	01a8H
	DW	017fH
	DD	040362762r			; 2.84615
	DW	01a7H
	DW	017fH
	DD	0403b13b1r			; 2.92308
	DW	01a6H
	DW	0180H
	DD	040400000r			; 3
	DW	01a5H
	DW	0180H
	DD	04044ec4fr			; 3.07692
	DW	01a4H
	DW	0180H
	DD	04049d89er			; 3.15385
	DW	01a3H
	DW	0180H
	DD	0404ec4ecr			; 3.23077
	DW	01a2H
	DW	0180H
	DD	04053b13br			; 3.30769
	DW	01a1H
	DW	0180H
	DD	040589d8ar			; 3.38462
	DW	01a0H
	DW	0180H
	DD	0405d89d9r			; 3.46154
	DW	019fH
	DW	0180H
	DD	040627627r			; 3.53846
	DW	019eH
	DW	0180H
	DD	040676276r			; 3.61538
	DW	019dH
	DW	0180H
	DD	0406c4ec5r			; 3.69231
	DW	019cH
	DW	017fH
	DD	040713b14r			; 3.76923
	DW	019bH
	DW	017fH
	DD	040762762r			; 3.84615
	DW	019aH
	DW	017eH
	DD	0407b13b1r			; 3.92308
	DW	0199H
	DW	017eH
	DD	040800000r			; 4
	DW	00H
	DW	00H
	DD	07f7fffffr			; 3.40282e+38
?g_meter_needle_scale_down_20_left_30@@3PAUSCALE_DATA@@A DW 0191H ; g_meter_needle_scale_down_20_left_30
	DW	0adH
	DD	0c0000000r			; -2
	DW	0191H
	DW	0acH
	DD	0bff62762r			; -1.92308
	DW	0191H
	DW	0abH
	DD	0bfec4ec5r			; -1.84615
	DW	0191H
	DW	0aaH
	DD	0bfe27627r			; -1.76923
	DW	0191H
	DW	0a9H
	DD	0bfd89d8ar			; -1.69231
	DW	0191H
	DW	0a8H
	DD	0bfcec4ecr			; -1.61538
	DW	0192H
	DW	0a7H
	DD	0bfc4ec4fr			; -1.53846
	DW	0192H
	DW	0a6H
	DD	0bfbb13b1r			; -1.46154
	DW	0192H
	DW	0a5H
	DD	0bfb13b14r			; -1.38462
	DW	0193H
	DW	0a4H
	DD	0bfa76276r			; -1.30769
	DW	0193H
	DW	0a3H
	DD	0bf9d89d9r			; -1.23077
	DW	0194H
	DW	0a2H
	DD	0bf93b13br			; -1.15385
	DW	0195H
	DW	0a1H
	DD	0bf89d89er			; -1.07692
	DW	0196H
	DW	0a0H
	DD	0bf800000r			; -1
	DW	0197H
	DW	09fH
	DD	0bf6aaaabr			; -0.916667
	DW	0198H
	DW	09eH
	DD	0bf555555r			; -0.833333
	DW	0199H
	DW	09eH
	DD	0bf400000r			; -0.75
	DW	019aH
	DW	09dH
	DD	0bf2aaaabr			; -0.666667
	DW	019bH
	DW	09dH
	DD	0bf155555r			; -0.583333
	DW	019cH
	DW	09cH
	DD	0bf000000r			; -0.5
	DW	019dH
	DW	09cH
	DD	0bed55555r			; -0.416667
	DW	019eH
	DW	09cH
	DD	0beaaaaabr			; -0.333333
	DW	019fH
	DW	09cH
	DD	0be800000r			; -0.25
	DW	01a0H
	DW	09bH
	DD	0be2aaaabr			; -0.166667
	DW	01a1H
	DW	09bH
	DD	0bdaaaaabr			; -0.0833333
	DW	01a2H
	DW	09bH
	DD	000000000r			; 0
	DW	01a3H
	DW	09cH
	DD	03d9d89d9r			; 0.0769231
	DW	01a4H
	DW	09cH
	DD	03e1d89d9r			; 0.153846
	DW	01a5H
	DW	09cH
	DD	03e6c4ec5r			; 0.230769
	DW	01a6H
	DW	09cH
	DD	03e9d89d9r			; 0.307692
	DW	01a7H
	DW	09dH
	DD	03ec4ec4fr			; 0.384615
	DW	01a8H
	DW	09dH
	DD	03eec4ec5r			; 0.461538
	DW	01a9H
	DW	09eH
	DD	03f09d89er			; 0.538462
	DW	01aaH
	DW	09fH
	DD	03f1d89d9r			; 0.615385
	DW	01abH
	DW	09fH
	DD	03f313b14r			; 0.692308
	DW	01acH
	DW	0a0H
	DD	03f44ec4fr			; 0.769231
	DW	01acH
	DW	0a1H
	DD	03f589d8ar			; 0.846154
	DW	01adH
	DW	0a2H
	DD	03f6c4ec5r			; 0.923077
	DW	01aeH
	DW	0a3H
	DD	03f800000r			; 1
	DW	01aeH
	DW	0a4H
	DD	03f89d89er			; 1.07692
	DW	01aeH
	DW	0a5H
	DD	03f93b13br			; 1.15385
	DW	01afH
	DW	0a6H
	DD	03f9d89d9r			; 1.23077
	DW	01afH
	DW	0a7H
	DD	03fa76276r			; 1.30769
	DW	01afH
	DW	0a8H
	DD	03fb13b14r			; 1.38462
	DW	01afH
	DW	0a9H
	DD	03fbb13b1r			; 1.46154
	DW	01afH
	DW	0aaH
	DD	03fc4ec4fr			; 1.53846
	DW	01afH
	DW	0abH
	DD	03fcec4ecr			; 1.61538
	DW	01afH
	DW	0acH
	DD	03fd89d8ar			; 1.69231
	DW	01afH
	DW	0adH
	DD	03fe27627r			; 1.76923
	DW	01afH
	DW	0aeH
	DD	03fec4ec5r			; 1.84615
	DW	01aeH
	DW	0afH
	DD	03ff62762r			; 1.92308
	DW	01aeH
	DW	0b0H
	DD	040000000r			; 2
	DW	01aeH
	DW	0b1H
	DD	04004ec4fr			; 2.07692
	DW	01adH
	DW	0b2H
	DD	04009d89er			; 2.15385
	DW	01adH
	DW	0b3H
	DD	0400ec4ecr			; 2.23077
	DW	01acH
	DW	0b4H
	DD	04013b13br			; 2.30769
	DW	01abH
	DW	0b5H
	DD	040189d8ar			; 2.38462
	DW	01aaH
	DW	0b6H
	DD	0401d89d9r			; 2.46154
	DW	01a9H
	DW	0b7H
	DD	040227627r			; 2.53846
	DW	01a8H
	DW	0b8H
	DD	040276276r			; 2.61538
	DW	01a7H
	DW	0b9H
	DD	0402c4ec5r			; 2.69231
	DW	01a6H
	DW	0b9H
	DD	040313b14r			; 2.76923
	DW	01a5H
	DW	0baH
	DD	040362762r			; 2.84615
	DW	01a4H
	DW	0baH
	DD	0403b13b1r			; 2.92308
	DW	01a3H
	DW	0baH
	DD	040400000r			; 3
	DW	01a2H
	DW	0bbH
	DD	040455555r			; 3.08333
	DW	01a1H
	DW	0bbH
	DD	0404aaaabr			; 3.16667
	DW	01a0H
	DW	0bbH
	DD	040500000r			; 3.25
	DW	019fH
	DW	0bbH
	DD	040555555r			; 3.33333
	DW	019eH
	DW	0bbH
	DD	0405aaaabr			; 3.41667
	DW	019dH
	DW	0bbH
	DD	040600000r			; 3.5
	DW	019cH
	DW	0bbH
	DD	040655555r			; 3.58333
	DW	019bH
	DW	0bbH
	DD	0406aaaabr			; 3.66667
	DW	019aH
	DW	0baH
	DD	040700000r			; 3.75
	DW	0199H
	DW	0baH
	DD	040755555r			; 3.83333
	DW	0198H
	DW	0b9H
	DD	0407aaaabr			; 3.91667
	DW	0197H
	DW	0b9H
	DD	040800000r			; 4
	DW	00H
	DW	00H
	DD	07f7fffffr			; 3.40282e+38
?radar_altimeter_needle_scale_level_ahead@@3PAUSCALE_DATA@@A DW 069H ; radar_altimeter_needle_scale_level_ahead
	DW	0198H
	DD	000000000r			; 0
	DW	06aH
	DW	0198H
	DD	03fb6db6er			; 1.42857
	DW	06bH
	DW	0198H
	DD	04036db6er			; 2.85714
	DW	06cH
	DW	0198H
	DD	040892492r			; 4.28571
	DW	06dH
	DW	0198H
	DD	040b6db6er			; 5.71429
	DW	06eH
	DW	0198H
	DD	040e49249r			; 7.14286
	DW	06fH
	DW	0199H
	DD	041092492r			; 8.57143
	DW	070H
	DW	0199H
	DD	041200000r			; 10
	DW	071H
	DW	0199H
	DD	04136db6er			; 11.4286
	DW	072H
	DW	019aH
	DD	0414db6dbr			; 12.8571
	DW	073H
	DW	019aH
	DD	041649249r			; 14.2857
	DW	074H
	DW	019bH
	DD	0417b6db7r			; 15.7143
	DW	075H
	DW	019cH
	DD	041892492r			; 17.1429
	DW	076H
	DW	019dH
	DD	041949249r			; 18.5714
	DW	077H
	DW	019eH
	DD	041a00000r			; 20
	DW	078H
	DW	019fH
	DD	041aa0000r			; 21.25
	DW	079H
	DW	01a0H
	DD	041b40000r			; 22.5
	DW	079H
	DW	01a1H
	DD	041be0000r			; 23.75
	DW	07aH
	DW	01a2H
	DD	041c80000r			; 25
	DW	07aH
	DW	01a3H
	DD	041d20000r			; 26.25
	DW	07aH
	DW	01a4H
	DD	041dc0000r			; 27.5
	DW	07bH
	DW	01a5H
	DD	041e60000r			; 28.75
	DW	07bH
	DW	01a6H
	DD	041f00000r			; 30
	DW	07bH
	DW	01a7H
	DD	041fa0000r			; 31.25
	DW	07bH
	DW	01a8H
	DD	042020000r			; 32.5
	DW	07bH
	DW	01a9H
	DD	042070000r			; 33.75
	DW	07cH
	DW	01aaH
	DD	0420c0000r			; 35
	DW	07cH
	DW	01abH
	DD	042110000r			; 36.25
	DW	07cH
	DW	01acH
	DD	042160000r			; 37.5
	DW	07cH
	DW	01adH
	DD	0421b0000r			; 38.75
	DW	07bH
	DW	01aeH
	DD	042200000r			; 40
	DW	07bH
	DW	01afH
	DD	042250000r			; 41.25
	DW	07bH
	DW	01b0H
	DD	0422a0000r			; 42.5
	DW	07bH
	DW	01b1H
	DD	0422f0000r			; 43.75
	DW	07bH
	DW	01b2H
	DD	042340000r			; 45
	DW	07aH
	DW	01b3H
	DD	042390000r			; 46.25
	DW	07aH
	DW	01b4H
	DD	0423e0000r			; 47.5
	DW	07aH
	DW	01b5H
	DD	042430000r			; 48.75
	DW	079H
	DW	01b6H
	DD	042480000r			; 50
	DW	079H
	DW	01b7H
	DD	0424d0000r			; 51.25
	DW	078H
	DW	01b8H
	DD	042520000r			; 52.5
	DW	078H
	DW	01b9H
	DD	042570000r			; 53.75
	DW	077H
	DW	01baH
	DD	0425c0000r			; 55
	DW	076H
	DW	01bbH
	DD	042610000r			; 56.25
	DW	076H
	DW	01bcH
	DD	042660000r			; 57.5
	DW	075H
	DW	01bdH
	DD	0426b0000r			; 58.75
	DW	074H
	DW	01beH
	DD	042700000r			; 60
	DW	073H
	DW	01bfH
	DD	04274b4b5r			; 61.1765
	DW	072H
	DW	01c0H
	DD	042796969r			; 62.3529
	DW	071H
	DW	01c0H
	DD	0427e1e1er			; 63.5294
	DW	070H
	DW	01c1H
	DD	042816969r			; 64.7059
	DW	06fH
	DW	01c2H
	DD	04283c3c4r			; 65.8824
	DW	06eH
	DW	01c2H
	DD	042861e1er			; 67.0588
	DW	06dH
	DW	01c3H
	DD	042887878r			; 68.2353
	DW	06cH
	DW	01c3H
	DD	0428ad2d3r			; 69.4118
	DW	06bH
	DW	01c4H
	DD	0428d2d2dr			; 70.5882
	DW	06aH
	DW	01c4H
	DD	0428f8788r			; 71.7647
	DW	069H
	DW	01c4H
	DD	04291e1e2r			; 72.9412
	DW	068H
	DW	01c5H
	DD	042943c3cr			; 74.1176
	DW	067H
	DW	01c5H
	DD	042969697r			; 75.2941
	DW	066H
	DW	01c5H
	DD	04298f0f1r			; 76.4706
	DW	065H
	DW	01c5H
	DD	0429b4b4br			; 77.6471
	DW	064H
	DW	01c5H
	DD	0429da5a6r			; 78.8235
	DW	063H
	DW	01c5H
	DD	042a00000r			; 80
	DW	062H
	DW	01c5H
	DD	042a2db6er			; 81.4286
	DW	061H
	DW	01c5H
	DD	042a5b6dbr			; 82.8571
	DW	060H
	DW	01c5H
	DD	042a89249r			; 84.2857
	DW	05fH
	DW	01c5H
	DD	042ab6db7r			; 85.7143
	DW	05eH
	DW	01c5H
	DD	042ae4925r			; 87.1429
	DW	05dH
	DW	01c4H
	DD	042b12492r			; 88.5714
	DW	05cH
	DW	01c4H
	DD	042b40000r			; 90
	DW	05bH
	DW	01c4H
	DD	042b6db6er			; 91.4286
	DW	05aH
	DW	01c3H
	DD	042b9b6dbr			; 92.8571
	DW	059H
	DW	01c2H
	DD	042bc9249r			; 94.2857
	DW	058H
	DW	01c2H
	DD	042bf6db7r			; 95.7143
	DW	057H
	DW	01c1H
	DD	042c24925r			; 97.1429
	DW	056H
	DW	01c0H
	DD	042c52492r			; 98.5714
	DW	055H
	DW	01bfH
	DD	042c80000r			; 100
	DW	054H
	DW	01beH
	DD	042d3c3c4r			; 105.882
	DW	053H
	DW	01bdH
	DD	042df8788r			; 111.765
	DW	053H
	DW	01bcH
	DD	042eb4b4br			; 117.647
	DW	052H
	DW	01bbH
	DD	042f70f0fr			; 123.529
	DW	052H
	DW	01baH
	DD	043016969r			; 129.412
	DW	051H
	DW	01b9H
	DD	043074b4br			; 135.294
	DW	051H
	DW	01b8H
	DD	0430d2d2dr			; 141.176
	DW	051H
	DW	01b7H
	DD	043130f0fr			; 147.059
	DW	051H
	DW	01b6H
	DD	04318f0f1r			; 152.941
	DW	050H
	DW	01b5H
	DD	0431ed2d3r			; 158.824
	DW	050H
	DW	01b4H
	DD	04324b4b5r			; 164.706
	DW	050H
	DW	01b3H
	DD	0432a9697r			; 170.588
	DW	050H
	DW	01b2H
	DD	043307878r			; 176.471
	DW	050H
	DW	01b1H
	DD	043365a5ar			; 182.353
	DW	050H
	DW	01b0H
	DD	0433c3c3cr			; 188.235
	DW	050H
	DW	01afH
	DD	043421e1er			; 194.118
	DW	050H
	DW	01aeH
	DD	043480000r			; 200
	DW	051H
	DW	01adH
	DD	0434e4000r			; 206.25
	DW	051H
	DW	01acH
	DD	043548000r			; 212.5
	DW	051H
	DW	01abH
	DD	0435ac000r			; 218.75
	DW	051H
	DW	01aaH
	DD	043610000r			; 225
	DW	052H
	DW	01a9H
	DD	043674000r			; 231.25
	DW	052H
	DW	01a8H
	DD	0436d8000r			; 237.5
	DW	052H
	DW	01a7H
	DD	04373c000r			; 243.75
	DW	053H
	DW	01a6H
	DD	0437a0000r			; 250
	DW	053H
	DW	01a5H
	DD	043802000r			; 256.25
	DW	054H
	DW	01a4H
	DD	043834000r			; 262.5
	DW	055H
	DW	01a3H
	DD	043866000r			; 268.75
	DW	055H
	DW	01a2H
	DD	043898000r			; 275
	DW	056H
	DW	01a1H
	DD	0438ca000r			; 281.25
	DW	057H
	DW	01a0H
	DD	0438fc000r			; 287.5
	DW	058H
	DW	019fH
	DD	04392e000r			; 293.75
	DW	059H
	DW	019eH
	DD	043960000r			; 300
	DW	00H
	DW	00H
	DD	07f7fffffr			; 3.40282e+38
?radar_altimeter_needle_scale_down_20_ahead@@3PAUSCALE_DATA@@A DW 072H ; radar_altimeter_needle_scale_down_20_ahead
	DW	0d1H
	DD	000000000r			; 0
	DW	073H
	DW	0d1H
	DD	03fb6db6er			; 1.42857
	DW	074H
	DW	0d1H
	DD	04036db6er			; 2.85714
	DW	075H
	DW	0d1H
	DD	040892492r			; 4.28571
	DW	076H
	DW	0d1H
	DD	040b6db6er			; 5.71429
	DW	077H
	DW	0d2H
	DD	040e49249r			; 7.14286
	DW	078H
	DW	0d2H
	DD	041092492r			; 8.57143
	DW	079H
	DW	0d2H
	DD	041200000r			; 10
	DW	07aH
	DW	0d3H
	DD	04136db6er			; 11.4286
	DW	07bH
	DW	0d3H
	DD	0414db6dbr			; 12.8571
	DW	07cH
	DW	0d4H
	DD	041649249r			; 14.2857
	DW	07dH
	DW	0d4H
	DD	0417b6db7r			; 15.7143
	DW	07eH
	DW	0d5H
	DD	041892492r			; 17.1429
	DW	07fH
	DW	0d6H
	DD	041949249r			; 18.5714
	DW	080H
	DW	0d7H
	DD	041a00000r			; 20
	DW	081H
	DW	0d8H
	DD	041ab6db7r			; 21.4286
	DW	082H
	DW	0d9H
	DD	041b6db6er			; 22.8571
	DW	083H
	DW	0daH
	DD	041c24925r			; 24.2857
	DW	083H
	DW	0dbH
	DD	041cdb6dbr			; 25.7143
	DW	084H
	DW	0dcH
	DD	041d92492r			; 27.1429
	DW	084H
	DW	0ddH
	DD	041e49249r			; 28.5714
	DW	085H
	DW	0deH
	DD	041f00000r			; 30
	DW	085H
	DW	0dfH
	DD	041fb6db7r			; 31.4286
	DW	085H
	DW	0e0H
	DD	042036db7r			; 32.8571
	DW	086H
	DW	0e1H
	DD	042092492r			; 34.2857
	DW	086H
	DW	0e2H
	DD	0420edb6er			; 35.7143
	DW	086H
	DW	0e3H
	DD	042149249r			; 37.1429
	DW	086H
	DW	0e4H
	DD	0421a4925r			; 38.5714
	DW	086H
	DW	0e5H
	DD	042200000r			; 40
	DW	086H
	DW	0e6H
	DD	042255555r			; 41.3333
	DW	086H
	DW	0e7H
	DD	0422aaaabr			; 42.6667
	DW	086H
	DW	0e8H
	DD	042300000r			; 44
	DW	086H
	DW	0e9H
	DD	042355555r			; 45.3333
	DW	085H
	DW	0eaH
	DD	0423aaaabr			; 46.6667
	DW	085H
	DW	0ebH
	DD	042400000r			; 48
	DW	085H
	DW	0ecH
	DD	042455555r			; 49.3333
	DW	084H
	DW	0edH
	DD	0424aaaabr			; 50.6667
	DW	084H
	DW	0eeH
	DD	042500000r			; 52
	DW	084H
	DW	0efH
	DD	042555555r			; 53.3333
	DW	083H
	DW	0f0H
	DD	0425aaaabr			; 54.6667
	DW	082H
	DW	0f1H
	DD	042600000r			; 56
	DW	082H
	DW	0f2H
	DD	042655555r			; 57.3333
	DW	081H
	DW	0f3H
	DD	0426aaaabr			; 58.6667
	DW	080H
	DW	0f4H
	DD	042700000r			; 60
	DW	07fH
	DW	0f5H
	DD	04275b6dbr			; 61.4286
	DW	07eH
	DW	0f5H
	DD	0427b6db7r			; 62.8571
	DW	07dH
	DW	0f6H
	DD	042809249r			; 64.2857
	DW	07cH
	DW	0f7H
	DD	042836db7r			; 65.7143
	DW	07bH
	DW	0f7H
	DD	042864925r			; 67.1429
	DW	07aH
	DW	0f8H
	DD	042892492r			; 68.5714
	DW	079H
	DW	0f8H
	DD	0428c0000r			; 70
	DW	078H
	DW	0f9H
	DD	0428edb6er			; 71.4286
	DW	077H
	DW	0f9H
	DD	04291b6dbr			; 72.8571
	DW	076H
	DW	0f9H
	DD	042949249r			; 74.2857
	DW	075H
	DW	0f9H
	DD	042976db7r			; 75.7143
	DW	074H
	DW	0f9H
	DD	0429a4925r			; 77.1429
	DW	073H
	DW	0f9H
	DD	0429d2492r			; 78.5714
	DW	072H
	DW	0f9H
	DD	042a00000r			; 80
	DW	071H
	DW	0f9H
	DD	042a2aaabr			; 81.3333
	DW	070H
	DW	0f9H
	DD	042a55555r			; 82.6667
	DW	06fH
	DW	0f9H
	DD	042a80000r			; 84
	DW	06eH
	DW	0f9H
	DD	042aaaaabr			; 85.3333
	DW	06dH
	DW	0f9H
	DD	042ad5555r			; 86.6667
	DW	06cH
	DW	0f9H
	DD	042b00000r			; 88
	DW	06bH
	DW	0f8H
	DD	042b2aaabr			; 89.3333
	DW	06aH
	DW	0f8H
	DD	042b55555r			; 90.6667
	DW	069H
	DW	0f8H
	DD	042b80000r			; 92
	DW	068H
	DW	0f7H
	DD	042baaaabr			; 93.3333
	DW	067H
	DW	0f7H
	DD	042bd5555r			; 94.6667
	DW	066H
	DW	0f6H
	DD	042c00000r			; 96
	DW	065H
	DW	0f5H
	DD	042c2aaabr			; 97.3333
	DW	064H
	DW	0f4H
	DD	042c55555r			; 98.6667
	DW	063H
	DW	0f3H
	DD	042c80000r			; 100
	DW	062H
	DW	0f2H
	DD	042d64925r			; 107.143
	DW	061H
	DW	0f1H
	DD	042e49249r			; 114.286
	DW	060H
	DW	0f0H
	DD	042f2db6er			; 121.429
	DW	060H
	DW	0efH
	DD	043009249r			; 128.571
	DW	05fH
	DW	0eeH
	DD	04307b6dbr			; 135.714
	DW	05fH
	DW	0edH
	DD	0430edb6er			; 142.857
	DW	05fH
	DW	0ecH
	DD	043160000r			; 150
	DW	05eH
	DW	0ebH
	DD	0431d2492r			; 157.143
	DW	05eH
	DW	0eaH
	DD	043244925r			; 164.286
	DW	05eH
	DW	0e9H
	DD	0432b6db7r			; 171.429
	DW	05eH
	DW	0e8H
	DD	043329249r			; 178.571
	DW	05dH
	DW	0e7H
	DD	04339b6dbr			; 185.714
	DW	05dH
	DW	0e6H
	DD	04340db6er			; 192.857
	DW	05dH
	DW	0e5H
	DD	043480000r			; 200
	DW	05dH
	DW	0e4H
	DD	0434f2492r			; 207.143
	DW	05dH
	DW	0e3H
	DD	043564925r			; 214.286
	DW	05eH
	DW	0e2H
	DD	0435d6db7r			; 221.429
	DW	05eH
	DW	0e1H
	DD	043649249r			; 228.571
	DW	05eH
	DW	0e0H
	DD	0436bb6dbr			; 235.714
	DW	05eH
	DW	0dfH
	DD	04372db6er			; 242.857
	DW	05fH
	DW	0deH
	DD	0437a0000r			; 250
	DW	05fH
	DW	0ddH
	DD	043809249r			; 257.143
	DW	05fH
	DW	0dcH
	DD	043842492r			; 264.286
	DW	060H
	DW	0dbH
	DD	04387b6dbr			; 271.429
	DW	061H
	DW	0daH
	DD	0438b4925r			; 278.571
	DW	061H
	DW	0d9H
	DD	0438edb6er			; 285.714
	DW	062H
	DW	0d8H
	DD	043926db7r			; 292.857
	DW	063H
	DW	0d7H
	DD	043960000r			; 300
	DW	00H
	DW	00H
	DD	07f7fffffr			; 3.40282e+38
?radar_altimeter_needle_scale_level_left_30@@3PAUSCALE_DATA@@A DW 0196H ; radar_altimeter_needle_scale_level_left_30
	DW	018eH
	DD	000000000r			; 0
	DW	0197H
	DW	018eH
	DD	03fc4ec4fr			; 1.53846
	DW	0198H
	DW	018fH
	DD	04044ec4fr			; 3.07692
	DW	0199H
	DW	018fH
	DD	04093b13br			; 4.61538
	DW	019aH
	DW	018fH
	DD	040c4ec4fr			; 6.15385
	DW	019bH
	DW	0190H
	DD	040f62762r			; 7.69231
	DW	019cH
	DW	0190H
	DD	04113b13br			; 9.23077
	DW	019dH
	DW	0191H
	DD	0412c4ec5r			; 10.7692
	DW	019eH
	DW	0191H
	DD	04144ec4fr			; 12.3077
	DW	019fH
	DW	0192H
	DD	0415d89d9r			; 13.8462
	DW	01a0H
	DW	0193H
	DD	041762762r			; 15.3846
	DW	01a1H
	DW	0194H
	DD	041876276r			; 16.9231
	DW	01a2H
	DW	0195H
	DD	04193b13br			; 18.4615
	DW	01a3H
	DW	0196H
	DD	041a00000r			; 20
	DW	01a3H
	DW	0197H
	DD	041aa0000r			; 21.25
	DW	01a4H
	DW	0198H
	DD	041b40000r			; 22.5
	DW	01a5H
	DW	0199H
	DD	041be0000r			; 23.75
	DW	01a5H
	DW	019aH
	DD	041c80000r			; 25
	DW	01a5H
	DW	019bH
	DD	041d20000r			; 26.25
	DW	01a6H
	DW	019cH
	DD	041dc0000r			; 27.5
	DW	01a6H
	DW	019dH
	DD	041e60000r			; 28.75
	DW	01a6H
	DW	019eH
	DD	041f00000r			; 30
	DW	01a7H
	DW	019fH
	DD	041fa0000r			; 31.25
	DW	01a7H
	DW	01a0H
	DD	042020000r			; 32.5
	DW	01a7H
	DW	01a1H
	DD	042070000r			; 33.75
	DW	01a7H
	DW	01a2H
	DD	0420c0000r			; 35
	DW	01a7H
	DW	01a3H
	DD	042110000r			; 36.25
	DW	01a7H
	DW	01a4H
	DD	042160000r			; 37.5
	DW	01a7H
	DW	01a5H
	DD	0421b0000r			; 38.75
	DW	01a7H
	DW	01a6H
	DD	042200000r			; 40
	DW	01a7H
	DW	01a7H
	DD	04225b6dbr			; 41.4286
	DW	01a7H
	DW	01a8H
	DD	0422b6db7r			; 42.8571
	DW	01a6H
	DW	01a9H
	DD	042312492r			; 44.2857
	DW	01a6H
	DW	01aaH
	DD	04236db6er			; 45.7143
	DW	01a6H
	DW	01abH
	DD	0423c9249r			; 47.1429
	DW	01a6H
	DW	01acH
	DD	042424925r			; 48.5714
	DW	01a5H
	DW	01adH
	DD	042480000r			; 50
	DW	01a5H
	DW	01aeH
	DD	0424db6dbr			; 51.4286
	DW	01a4H
	DW	01afH
	DD	042536db7r			; 52.8571
	DW	01a4H
	DW	01b0H
	DD	042592492r			; 54.2857
	DW	01a3H
	DW	01b1H
	DD	0425edb6er			; 55.7143
	DW	01a2H
	DW	01b2H
	DD	042649249r			; 57.1429
	DW	01a1H
	DW	01b3H
	DD	0426a4925r			; 58.5714
	DW	01a0H
	DW	01b4H
	DD	042700000r			; 60
	DW	019fH
	DW	01b5H
	DD	042755555r			; 61.3333
	DW	019eH
	DW	01b6H
	DD	0427aaaabr			; 62.6667
	DW	019dH
	DW	01b6H
	DD	042800000r			; 64
	DW	019cH
	DW	01b7H
	DD	04282aaabr			; 65.3333
	DW	019bH
	DW	01b7H
	DD	042855555r			; 66.6667
	DW	019aH
	DW	01b8H
	DD	042880000r			; 68
	DW	0199H
	DW	01b8H
	DD	0428aaaabr			; 69.3333
	DW	0198H
	DW	01b8H
	DD	0428d5555r			; 70.6667
	DW	0197H
	DW	01b8H
	DD	042900000r			; 72
	DW	0196H
	DW	01b8H
	DD	04292aaabr			; 73.3333
	DW	0195H
	DW	01b8H
	DD	042955555r			; 74.6667
	DW	0194H
	DW	01b8H
	DD	042980000r			; 76
	DW	0193H
	DW	01b8H
	DD	0429aaaabr			; 77.3333
	DW	0192H
	DW	01b8H
	DD	0429d5555r			; 78.6667
	DW	0191H
	DW	01b8H
	DD	042a00000r			; 80
	DW	0190H
	DW	01b8H
	DD	042a313b1r			; 81.5385
	DW	018fH
	DW	01b8H
	DD	042a62762r			; 83.0769
	DW	018eH
	DW	01b7H
	DD	042a93b14r			; 84.6154
	DW	018dH
	DW	01b7H
	DD	042ac4ec5r			; 86.1538
	DW	018cH
	DW	01b7H
	DD	042af6276r			; 87.6923
	DW	018bH
	DW	01b6H
	DD	042b27627r			; 89.2308
	DW	018aH
	DW	01b5H
	DD	042b589d9r			; 90.7692
	DW	0189H
	DW	01b5H
	DD	042b89d8ar			; 92.3077
	DW	0188H
	DW	01b4H
	DD	042bbb13br			; 93.8462
	DW	0187H
	DW	01b3H
	DD	042bec4ecr			; 95.3846
	DW	0186H
	DW	01b2H
	DD	042c1d89er			; 96.9231
	DW	0185H
	DW	01b1H
	DD	042c4ec4fr			; 98.4615
	DW	0184H
	DW	01b0H
	DD	042c80000r			; 100
	DW	0184H
	DW	01afH
	DD	042d48000r			; 106.25
	DW	0183H
	DW	01aeH
	DD	042e10000r			; 112.5
	DW	0183H
	DW	01adH
	DD	042ed8000r			; 118.75
	DW	0182H
	DW	01acH
	DD	042fa0000r			; 125
	DW	0182H
	DW	01abH
	DD	043034000r			; 131.25
	DW	0182H
	DW	01aaH
	DD	043098000r			; 137.5
	DW	0181H
	DW	01a9H
	DD	0430fc000r			; 143.75
	DW	0181H
	DW	01a8H
	DD	043160000r			; 150
	DW	0181H
	DW	01a7H
	DD	0431c4000r			; 156.25
	DW	0181H
	DW	01a6H
	DD	043228000r			; 162.5
	DW	0181H
	DW	01a5H
	DD	04328c000r			; 168.75
	DW	0181H
	DW	01a4H
	DD	0432f0000r			; 175
	DW	0181H
	DW	01a3H
	DD	043354000r			; 181.25
	DW	0181H
	DW	01a2H
	DD	0433b8000r			; 187.5
	DW	0181H
	DW	01a1H
	DD	04341c000r			; 193.75
	DW	0181H
	DW	01a0H
	DD	043480000r			; 200
	DW	0181H
	DW	019fH
	DD	0434f2492r			; 207.143
	DW	0181H
	DW	019eH
	DD	043564925r			; 214.286
	DW	0181H
	DW	019dH
	DD	0435d6db7r			; 221.429
	DW	0182H
	DW	019cH
	DD	043649249r			; 228.571
	DW	0182H
	DW	019bH
	DD	0436bb6dbr			; 235.714
	DW	0182H
	DW	019aH
	DD	04372db6er			; 242.857
	DW	0183H
	DW	0199H
	DD	0437a0000r			; 250
	DW	0183H
	DW	0198H
	DD	043809249r			; 257.143
	DW	0184H
	DW	0197H
	DD	043842492r			; 264.286
	DW	0185H
	DW	0196H
	DD	04387b6dbr			; 271.429
	DW	0185H
	DW	0195H
	DD	0438b4925r			; 278.571
	DW	0186H
	DW	0194H
	DD	0438edb6er			; 285.714
	DW	0187H
	DW	0193H
	DD	043926db7r			; 292.857
	DW	0188H
	DW	0192H
	DD	043960000r			; 300
	DW	00H
	DW	00H
	DD	07f7fffffr			; 3.40282e+38
?radar_altimeter_needle_scale_down_20_left_30@@3PAUSCALE_DATA@@A DW 0193H ; radar_altimeter_needle_scale_down_20_left_30
	DW	0c8H
	DD	000000000r			; 0
	DW	0194H
	DW	0c8H
	DD	03fc4ec4fr			; 1.53846
	DW	0195H
	DW	0c9H
	DD	04044ec4fr			; 3.07692
	DW	0196H
	DW	0c9H
	DD	04093b13br			; 4.61538
	DW	0197H
	DW	0c9H
	DD	040c4ec4fr			; 6.15385
	DW	0198H
	DW	0caH
	DD	040f62762r			; 7.69231
	DW	0199H
	DW	0caH
	DD	04113b13br			; 9.23077
	DW	019aH
	DW	0cbH
	DD	0412c4ec5r			; 10.7692
	DW	019bH
	DW	0cbH
	DD	04144ec4fr			; 12.3077
	DW	019cH
	DW	0ccH
	DD	0415d89d9r			; 13.8462
	DW	019dH
	DW	0cdH
	DD	041762762r			; 15.3846
	DW	019eH
	DW	0ceH
	DD	041876276r			; 16.9231
	DW	019eH
	DW	0cfH
	DD	04193b13br			; 18.4615
	DW	019fH
	DW	0d0H
	DD	041a00000r			; 20
	DW	01a0H
	DW	0d1H
	DD	041ab6db7r			; 21.4286
	DW	01a0H
	DW	0d2H
	DD	041b6db6er			; 22.8571
	DW	01a1H
	DW	0d3H
	DD	041c24925r			; 24.2857
	DW	01a1H
	DW	0d4H
	DD	041cdb6dbr			; 25.7143
	DW	01a1H
	DW	0d5H
	DD	041d92492r			; 27.1429
	DW	01a2H
	DW	0d6H
	DD	041e49249r			; 28.5714
	DW	01a2H
	DW	0d7H
	DD	041f00000r			; 30
	DW	01a2H
	DW	0d8H
	DD	041fb6db7r			; 31.4286
	DW	01a2H
	DW	0d9H
	DD	042036db7r			; 32.8571
	DW	01a2H
	DW	0daH
	DD	042092492r			; 34.2857
	DW	01a2H
	DW	0dbH
	DD	0420edb6er			; 35.7143
	DW	01a2H
	DW	0dcH
	DD	042149249r			; 37.1429
	DW	01a2H
	DW	0ddH
	DD	0421a4925r			; 38.5714
	DW	01a2H
	DW	0deH
	DD	042200000r			; 40
	DW	01a2H
	DW	0dfH
	DD	042262762r			; 41.5385
	DW	01a1H
	DW	0e0H
	DD	0422c4ec5r			; 43.0769
	DW	01a1H
	DW	0e1H
	DD	042327627r			; 44.6154
	DW	01a1H
	DW	0e2H
	DD	042389d8ar			; 46.1538
	DW	01a0H
	DW	0e3H
	DD	0423ec4ecr			; 47.6923
	DW	01a0H
	DW	0e4H
	DD	04244ec4fr			; 49.2308
	DW	019fH
	DW	0e5H
	DD	0424b13b1r			; 50.7692
	DW	019fH
	DW	0e6H
	DD	042513b14r			; 52.3077
	DW	019eH
	DW	0e7H
	DD	042576276r			; 53.8462
	DW	019dH
	DW	0e8H
	DD	0425d89d9r			; 55.3846
	DW	019cH
	DW	0e9H
	DD	04263b13br			; 56.9231
	DW	019bH
	DW	0eaH
	DD	04269d89er			; 58.4615
	DW	019aH
	DW	0ebH
	DD	042700000r			; 60
	DW	0199H
	DW	0ecH
	DD	04275b6dbr			; 61.4286
	DW	0198H
	DW	0ecH
	DD	0427b6db7r			; 62.8571
	DW	0197H
	DW	0edH
	DD	042809249r			; 64.2857
	DW	0196H
	DW	0edH
	DD	042836db7r			; 65.7143
	DW	0195H
	DW	0edH
	DD	042864925r			; 67.1429
	DW	0194H
	DW	0eeH
	DD	042892492r			; 68.5714
	DW	0193H
	DW	0eeH
	DD	0428c0000r			; 70
	DW	0192H
	DW	0eeH
	DD	0428edb6er			; 71.4286
	DW	0191H
	DW	0eeH
	DD	04291b6dbr			; 72.8571
	DW	0190H
	DW	0eeH
	DD	042949249r			; 74.2857
	DW	018fH
	DW	0eeH
	DD	042976db7r			; 75.7143
	DW	018eH
	DW	0eeH
	DD	0429a4925r			; 77.1429
	DW	018dH
	DW	0eeH
	DD	0429d2492r			; 78.5714
	DW	018cH
	DW	0eeH
	DD	042a00000r			; 80
	DW	018bH
	DW	0eeH
	DD	042a35555r			; 81.6667
	DW	018aH
	DW	0eeH
	DD	042a6aaabr			; 83.3333
	DW	0189H
	DW	0edH
	DD	042aa0000r			; 85
	DW	0188H
	DW	0edH
	DD	042ad5555r			; 86.6667
	DW	0187H
	DW	0ecH
	DD	042b0aaabr			; 88.3333
	DW	0186H
	DW	0ecH
	DD	042b40000r			; 90
	DW	0185H
	DW	0ebH
	DD	042b75555r			; 91.6667
	DW	0184H
	DW	0eaH
	DD	042baaaabr			; 93.3333
	DW	0183H
	DW	0e9H
	DD	042be0000r			; 95
	DW	0182H
	DW	0e8H
	DD	042c15555r			; 96.6667
	DW	0181H
	DW	0e7H
	DD	042c4aaabr			; 98.3333
	DW	0180H
	DW	0e6H
	DD	042c80000r			; 100
	DW	0180H
	DW	0e5H
	DD	042d64925r			; 107.143
	DW	017fH
	DW	0e4H
	DD	042e49249r			; 114.286
	DW	017fH
	DW	0e3H
	DD	042f2db6er			; 121.429
	DW	017fH
	DW	0e2H
	DD	043009249r			; 128.571
	DW	017eH
	DW	0e1H
	DD	04307b6dbr			; 135.714
	DW	017eH
	DW	0e0H
	DD	0430edb6er			; 142.857
	DW	017eH
	DW	0dfH
	DD	043160000r			; 150
	DW	017eH
	DW	0deH
	DD	0431d2492r			; 157.143
	DW	017eH
	DW	0ddH
	DD	043244925r			; 164.286
	DW	017eH
	DW	0dcH
	DD	0432b6db7r			; 171.429
	DW	017eH
	DW	0dbH
	DD	043329249r			; 178.571
	DW	017eH
	DW	0daH
	DD	04339b6dbr			; 185.714
	DW	017eH
	DW	0d9H
	DD	04340db6er			; 192.857
	DW	017eH
	DW	0d8H
	DD	043480000r			; 200
	DW	017eH
	DW	0d7H
	DD	043505555r			; 208.333
	DW	017eH
	DW	0d6H
	DD	04358aaabr			; 216.667
	DW	017fH
	DW	0d5H
	DD	043610000r			; 225
	DW	017fH
	DW	0d4H
	DD	043695555r			; 233.333
	DW	0180H
	DW	0d3H
	DD	04371aaabr			; 241.667
	DW	0180H
	DW	0d2H
	DD	0437a0000r			; 250
	DW	0181H
	DW	0d1H
	DD	043812aabr			; 258.333
	DW	0181H
	DW	0d0H
	DD	043855555r			; 266.667
	DW	0182H
	DW	0cfH
	DD	043898000r			; 275
	DW	0183H
	DW	0ceH
	DD	0438daaabr			; 283.333
	DW	0184H
	DW	0cdH
	DD	04391d555r			; 291.667
	DW	0185H
	DW	0ccH
	DD	043960000r			; 300
	DW	00H
	DW	00H
	DD	07f7fffffr			; 3.40282e+38
?main_rotor_rpm_indicator_needle_scale_down_20_ahead@@3PAUSCALE_DATA@@A DW 06bH ; main_rotor_rpm_indicator_needle_scale_down_20_ahead
	DW	013eH
	DD	000000000r			; 0
	DW	06cH
	DW	013fH
	DD	03f68ba2fr			; 0.909091
	DW	06cH
	DW	0140H
	DD	03fe8ba2fr			; 1.81818
	DW	06dH
	DW	0141H
	DD	0402e8ba3r			; 2.72727
	DW	06dH
	DW	0142H
	DD	04068ba2fr			; 3.63636
	DW	06dH
	DW	0143H
	DD	04091745dr			; 4.54545
	DW	06eH
	DW	0144H
	DD	040ae8ba3r			; 5.45455
	DW	06eH
	DW	0145H
	DD	040cba2e9r			; 6.36364
	DW	06eH
	DW	0146H
	DD	040e8ba2fr			; 7.27273
	DW	06eH
	DW	0147H
	DD	04102e8bar			; 8.18182
	DW	06eH
	DW	0148H
	DD	04111745dr			; 9.09091
	DW	06eH
	DW	0149H
	DD	041200000r			; 10
	DW	06eH
	DW	014aH
	DD	0412e8ba3r			; 10.9091
	DW	06eH
	DW	014bH
	DD	0413d1746r			; 11.8182
	DW	06eH
	DW	014cH
	DD	0414ba2e9r			; 12.7273
	DW	06eH
	DW	014dH
	DD	0415a2e8cr			; 13.6364
	DW	06eH
	DW	014eH
	DD	04168ba2fr			; 14.5455
	DW	06dH
	DW	014fH
	DD	0417745d1r			; 15.4545
	DW	06dH
	DW	0150H
	DD	04182e8bar			; 16.3636
	DW	06dH
	DW	0151H
	DD	0418a2e8cr			; 17.2727
	DW	06cH
	DW	0152H
	DD	04191745dr			; 18.1818
	DW	06cH
	DW	0153H
	DD	04198ba2fr			; 19.0909
	DW	06bH
	DW	0154H
	DD	041a00000r			; 20
	DW	06bH
	DW	0155H
	DD	041a8e38er			; 21.1111
	DW	06aH
	DW	0156H
	DD	041b1c71cr			; 22.2222
	DW	069H
	DW	0157H
	DD	041baaaabr			; 23.3333
	DW	068H
	DW	0158H
	DD	041c38e39r			; 24.4444
	DW	067H
	DW	0159H
	DD	041cc71c7r			; 25.5556
	DW	066H
	DW	015aH
	DD	041d55555r			; 26.6667
	DW	065H
	DW	015bH
	DD	041de38e4r			; 27.7778
	DW	064H
	DW	015cH
	DD	041e71c72r			; 28.8889
	DW	063H
	DW	015cH
	DD	041f00000r			; 30
	DW	062H
	DW	015dH
	DD	041f745d1r			; 30.9091
	DW	061H
	DW	015dH
	DD	041fe8ba3r			; 31.8182
	DW	060H
	DW	015eH
	DD	04202e8bar			; 32.7273
	DW	05fH
	DW	015eH
	DD	042068ba3r			; 33.6364
	DW	05eH
	DW	015eH
	DD	0420a2e8cr			; 34.5455
	DW	05dH
	DW	015fH
	DD	0420dd174r			; 35.4545
	DW	05cH
	DW	015fH
	DD	04211745dr			; 36.3636
	DW	05bH
	DW	015fH
	DD	042151746r			; 37.2727
	DW	05aH
	DW	015fH
	DD	04218ba2fr			; 38.1818
	DW	059H
	DW	015fH
	DD	0421c5d17r			; 39.0909
	DW	058H
	DW	015fH
	DD	042200000r			; 40
	DW	057H
	DW	015fH
	DD	04223a2e9r			; 40.9091
	DW	056H
	DW	015fH
	DD	0422745d1r			; 41.8182
	DW	055H
	DW	015fH
	DD	0422ae8bar			; 42.7273
	DW	054H
	DW	015fH
	DD	0422e8ba3r			; 43.6364
	DW	053H
	DW	015fH
	DD	042322e8cr			; 44.5455
	DW	052H
	DW	015eH
	DD	04235d174r			; 45.4545
	DW	051H
	DW	015eH
	DD	04239745dr			; 46.3636
	DW	050H
	DW	015eH
	DD	0423d1746r			; 47.2727
	DW	04fH
	DW	015dH
	DD	04240ba2fr			; 48.1818
	DW	04eH
	DW	015dH
	DD	042445d17r			; 49.0909
	DW	04dH
	DW	015cH
	DD	042480000r			; 50
	DW	04cH
	DW	015cH
	DD	0424c0000r			; 51
	DW	04bH
	DW	015bH
	DD	042500000r			; 52
	DW	04aH
	DW	015aH
	DD	042540000r			; 53
	DW	049H
	DW	015aH
	DD	042580000r			; 54
	DW	048H
	DW	0159H
	DD	0425c0000r			; 55
	DW	047H
	DW	0158H
	DD	042600000r			; 56
	DW	047H
	DW	0157H
	DD	042640000r			; 57
	DW	046H
	DW	0156H
	DD	042680000r			; 58
	DW	045H
	DW	0155H
	DD	0426c0000r			; 59
	DW	045H
	DW	0154H
	DD	042700000r			; 60
	DW	044H
	DW	0153H
	DD	04273a2e9r			; 60.9091
	DW	044H
	DW	0152H
	DD	0427745d1r			; 61.8182
	DW	043H
	DW	0151H
	DD	0427ae8bar			; 62.7273
	DW	043H
	DW	0150H
	DD	0427e8ba3r			; 63.6364
	DW	043H
	DW	014fH
	DD	042811746r			; 64.5455
	DW	042H
	DW	014eH
	DD	04282e8bar			; 65.4545
	DW	042H
	DW	014dH
	DD	04284ba2fr			; 66.3636
	DW	042H
	DW	014cH
	DD	042868ba3r			; 67.2727
	DW	042H
	DW	014bH
	DD	042885d17r			; 68.1818
	DW	042H
	DW	014aH
	DD	0428a2e8cr			; 69.0909
	DW	042H
	DW	0149H
	DD	0428c0000r			; 70
	DW	042H
	DW	0148H
	DD	0428dd174r			; 70.9091
	DW	042H
	DW	0147H
	DD	0428fa2e9r			; 71.8182
	DW	042H
	DW	0146H
	DD	04291745dr			; 72.7273
	DW	042H
	DW	0145H
	DD	0429345d1r			; 73.6364
	DW	042H
	DW	0144H
	DD	042951746r			; 74.5455
	DW	042H
	DW	0143H
	DD	04296e8bar			; 75.4545
	DW	043H
	DW	0142H
	DD	04298ba2fr			; 76.3636
	DW	043H
	DW	0141H
	DD	0429a8ba3r			; 77.2727
	DW	044H
	DW	0140H
	DD	0429c5d17r			; 78.1818
	DW	044H
	DW	013fH
	DD	0429e2e8cr			; 79.0909
	DW	044H
	DW	013eH
	DD	042a00000r			; 80
	DW	045H
	DW	013dH
	DD	042a1e79er			; 80.9524
	DW	046H
	DW	013cH
	DD	042a3cf3dr			; 81.9048
	DW	046H
	DW	013bH
	DD	042a5b6dbr			; 82.8571
	DW	047H
	DW	013aH
	DD	042a79e7ar			; 83.8095
	DW	048H
	DW	0139H
	DD	042a98618r			; 84.7619
	DW	049H
	DW	0138H
	DD	042ab6db7r			; 85.7143
	DW	04aH
	DW	0137H
	DD	042ad5555r			; 86.6667
	DW	04bH
	DW	0136H
	DD	042af3cf4r			; 87.619
	DW	04cH
	DW	0136H
	DD	042b12492r			; 88.5714
	DW	04dH
	DW	0135H
	DD	042b30c31r			; 89.5238
	DW	04eH
	DW	0135H
	DD	042b4f3cfr			; 90.4762
	DW	04fH
	DW	0134H
	DD	042b6db6er			; 91.4286
	DW	050H
	DW	0134H
	DD	042b8c30cr			; 92.381
	DW	051H
	DW	0134H
	DD	042baaaabr			; 93.3333
	DW	052H
	DW	0133H
	DD	042bc9249r			; 94.2857
	DW	053H
	DW	0133H
	DD	042be79e8r			; 95.2381
	DW	054H
	DW	0133H
	DD	042c06186r			; 96.1905
	DW	055H
	DW	0133H
	DD	042c24925r			; 97.1429
	DW	056H
	DW	0133H
	DD	042c430c3r			; 98.0952
	DW	057H
	DW	0133H
	DD	042c61862r			; 99.0476
	DW	058H
	DW	0133H
	DD	042c7fae1r			; 99.99
	DW	00H
	DW	00H
	DD	07f7fffffr			; 3.40282e+38
?main_rotor_rpm_indicator_needle_scale_down_20_left_30@@3PAUSCALE_DATA@@A DW 017bH ; main_rotor_rpm_indicator_needle_scale_down_20_left_30
	DW	012cH
	DD	000000000r			; 0
	DW	017bH
	DW	012dH
	DD	03f68ba2fr			; 0.909091
	DW	017cH
	DW	012eH
	DD	03fe8ba2fr			; 1.81818
	DW	017cH
	DW	012fH
	DD	0402e8ba3r			; 2.72727
	DW	017cH
	DW	0130H
	DD	04068ba2fr			; 3.63636
	DW	017cH
	DW	0131H
	DD	04091745dr			; 4.54545
	DW	017cH
	DW	0132H
	DD	040ae8ba3r			; 5.45455
	DW	017cH
	DW	0133H
	DD	040cba2e9r			; 6.36364
	DW	017cH
	DW	0134H
	DD	040e8ba2fr			; 7.27273
	DW	017cH
	DW	0135H
	DD	04102e8bar			; 8.18182
	DW	017cH
	DW	0136H
	DD	04111745dr			; 9.09091
	DW	017cH
	DW	0137H
	DD	041200000r			; 10
	DW	017cH
	DW	0138H
	DD	041300000r			; 11
	DW	017bH
	DW	0139H
	DD	041400000r			; 12
	DW	017bH
	DW	013aH
	DD	041500000r			; 13
	DW	017bH
	DW	013bH
	DD	041600000r			; 14
	DW	017aH
	DW	013cH
	DD	041700000r			; 15
	DW	017aH
	DW	013dH
	DD	041800000r			; 16
	DW	0179H
	DW	013eH
	DD	041880000r			; 17
	DW	0179H
	DW	013fH
	DD	041900000r			; 18
	DW	0178H
	DW	0140H
	DD	041980000r			; 19
	DW	0177H
	DW	0141H
	DD	041a00000r			; 20
	DW	0176H
	DW	0142H
	DD	041aa0000r			; 21.25
	DW	0175H
	DW	0143H
	DD	041b40000r			; 22.5
	DW	0174H
	DW	0144H
	DD	041be0000r			; 23.75
	DW	0173H
	DW	0144H
	DD	041c80000r			; 25
	DW	0172H
	DW	0145H
	DD	041d20000r			; 26.25
	DW	0171H
	DW	0145H
	DD	041dc0000r			; 27.5
	DW	0170H
	DW	0146H
	DD	041e60000r			; 28.75
	DW	016fH
	DW	0146H
	DD	041f00000r			; 30
	DW	016eH
	DW	0146H
	DD	041f8e38er			; 31.1111
	DW	016dH
	DW	0147H
	DD	04200e38er			; 32.2222
	DW	016cH
	DW	0147H
	DD	042055555r			; 33.3333
	DW	016bH
	DW	0147H
	DD	04209c71cr			; 34.4444
	DW	016aH
	DW	0147H
	DD	0420e38e4r			; 35.5556
	DW	0169H
	DW	0147H
	DD	04212aaabr			; 36.6667
	DW	0168H
	DW	0147H
	DD	042171c72r			; 37.7778
	DW	0167H
	DW	0147H
	DD	0421b8e39r			; 38.8889
	DW	0166H
	DW	0146H
	DD	042200000r			; 40
	DW	0165H
	DW	0146H
	DD	0422471c7r			; 41.1111
	DW	0164H
	DW	0146H
	DD	04228e38er			; 42.2222
	DW	0163H
	DW	0145H
	DD	0422d5555r			; 43.3333
	DW	0162H
	DW	0145H
	DD	04231c71cr			; 44.4444
	DW	0161H
	DW	0144H
	DD	0423638e4r			; 45.5556
	DW	0160H
	DW	0144H
	DD	0423aaaabr			; 46.6667
	DW	015fH
	DW	0143H
	DD	0423f1c72r			; 47.7778
	DW	015eH
	DW	0142H
	DD	042438e39r			; 48.8889
	DW	015dH
	DW	0141H
	DD	042480000r			; 50
	DW	015cH
	DW	0140H
	DD	0424c71c7r			; 51.1111
	DW	015bH
	DW	013fH
	DD	04250e38er			; 52.2222
	DW	015aH
	DW	013eH
	DD	042555555r			; 53.3333
	DW	015aH
	DW	013dH
	DD	04259c71cr			; 54.4444
	DW	0159H
	DW	013cH
	DD	0425e38e4r			; 55.5556
	DW	0159H
	DW	013bH
	DD	04262aaabr			; 56.6667
	DW	0158H
	DW	013aH
	DD	042671c72r			; 57.7778
	DW	0158H
	DW	0139H
	DD	0426b8e39r			; 58.8889
	DW	0158H
	DW	0138H
	DD	042700000r			; 60
	DW	0157H
	DW	0137H
	DD	042740000r			; 61
	DW	0157H
	DW	0136H
	DD	042780000r			; 62
	DW	0157H
	DW	0135H
	DD	0427c0000r			; 63
	DW	0157H
	DW	0134H
	DD	042800000r			; 64
	DW	0157H
	DW	0133H
	DD	042820000r			; 65
	DW	0157H
	DW	0132H
	DD	042840000r			; 66
	DW	0157H
	DW	0131H
	DD	042860000r			; 67
	DW	0157H
	DW	0130H
	DD	042880000r			; 68
	DW	0157H
	DW	012fH
	DD	0428a0000r			; 69
	DW	0157H
	DW	012eH
	DD	0428c0000r			; 70
	DW	0157H
	DW	012dH
	DD	0428e0000r			; 71
	DW	0157H
	DW	012cH
	DD	042900000r			; 72
	DW	0158H
	DW	012bH
	DD	042920000r			; 73
	DW	0158H
	DW	012aH
	DD	042940000r			; 74
	DW	0158H
	DW	0129H
	DD	042960000r			; 75
	DW	0159H
	DW	0128H
	DD	042980000r			; 76
	DW	0159H
	DW	0127H
	DD	0429a0000r			; 77
	DW	015aH
	DW	0126H
	DD	0429c0000r			; 78
	DW	015aH
	DW	0125H
	DD	0429e0000r			; 79
	DW	015bH
	DW	0124H
	DD	042a00000r			; 80
	DW	015cH
	DW	0123H
	DD	042a238e4r			; 81.1111
	DW	015dH
	DW	0122H
	DD	042a471c7r			; 82.2222
	DW	015eH
	DW	0121H
	DD	042a6aaabr			; 83.3333
	DW	015fH
	DW	0121H
	DD	042a8e38er			; 84.4444
	DW	0160H
	DW	0120H
	DD	042ab1c72r			; 85.5556
	DW	0161H
	DW	011fH
	DD	042ad5555r			; 86.6667
	DW	0162H
	DW	011fH
	DD	042af8e39r			; 87.7778
	DW	0163H
	DW	011fH
	DD	042b1c71cr			; 88.8889
	DW	0164H
	DW	011eH
	DD	042b40000r			; 90
	DW	0165H
	DW	011eH
	DD	042b638e4r			; 91.1111
	DW	0166H
	DW	011eH
	DD	042b871c7r			; 92.2222
	DW	0167H
	DW	011eH
	DD	042baaaabr			; 93.3333
	DW	0168H
	DW	011eH
	DD	042bce38er			; 94.4444
	DW	0169H
	DW	011eH
	DD	042bf1c72r			; 95.5556
	DW	016aH
	DW	011eH
	DD	042c15555r			; 96.6667
	DW	016bH
	DW	011eH
	DD	042c38e39r			; 97.7778
	DW	016cH
	DW	011eH
	DD	042c5c71cr			; 98.8889
	DW	016dH
	DW	011eH
	DD	042c7fae1r			; 99.99
	DW	00H
	DW	00H
	DD	07f7fffffr			; 3.40282e+38
?vertical_speed_indicator_needle_scale_down_20_ahead@@3PAUSCALE_DATA@@A DW 09dH ; vertical_speed_indicator_needle_scale_down_20_ahead
	DW	018bH
	DD	0c3960000r			; -300
	DW	09dH
	DW	018cH
	DD	0c392aaabr			; -293.333
	DW	09dH
	DW	018dH
	DD	0c38f5555r			; -286.667
	DW	09dH
	DW	018eH
	DD	0c38c0000r			; -280
	DW	09cH
	DW	018fH
	DD	0c388aaabr			; -273.333
	DW	09cH
	DW	0190H
	DD	0c3855555r			; -266.667
	DW	09cH
	DW	0191H
	DD	0c3820000r			; -260
	DW	09cH
	DW	0192H
	DD	0c37d5555r			; -253.333
	DW	09bH
	DW	0193H
	DD	0c376aaabr			; -246.667
	DW	09bH
	DW	0194H
	DD	0c3700000r			; -240
	DW	09aH
	DW	0195H
	DD	0c3695555r			; -233.333
	DW	09aH
	DW	0196H
	DD	0c362aaabr			; -226.667
	DW	099H
	DW	0197H
	DD	0c35c0000r			; -220
	DW	098H
	DW	0198H
	DD	0c3555555r			; -213.333
	DW	097H
	DW	0199H
	DD	0c34eaaabr			; -206.667
	DW	096H
	DW	019aH
	DD	0c3480000r			; -200
	DW	095H
	DW	019bH
	DD	0c3415555r			; -193.333
	DW	094H
	DW	019cH
	DD	0c33aaaabr			; -186.667
	DW	093H
	DW	019dH
	DD	0c3340000r			; -180
	DW	092H
	DW	019dH
	DD	0c32d5555r			; -173.333
	DW	091H
	DW	019eH
	DD	0c326aaabr			; -166.667
	DW	090H
	DW	019eH
	DD	0c3200000r			; -160
	DW	08fH
	DW	019fH
	DD	0c3195555r			; -153.333
	DW	08eH
	DW	019fH
	DD	0c312aaabr			; -146.667
	DW	08dH
	DW	019fH
	DD	0c30c0000r			; -140
	DW	08cH
	DW	01a0H
	DD	0c3055555r			; -133.333
	DW	08bH
	DW	01a0H
	DD	0c2fd5555r			; -126.667
	DW	08aH
	DW	01a0H
	DD	0c2f00000r			; -120
	DW	089H
	DW	01a0H
	DD	0c2e2aaabr			; -113.333
	DW	088H
	DW	01a0H
	DD	0c2d55555r			; -106.667
	DW	087H
	DW	01a0H
	DD	0c2c80000r			; -100
	DW	086H
	DW	01a0H
	DD	0c2c1c000r			; -96.875
	DW	085H
	DW	01a0H
	DD	0c2bb8000r			; -93.75
	DW	084H
	DW	01a0H
	DD	0c2b54000r			; -90.625
	DW	083H
	DW	01a0H
	DD	0c2af0000r			; -87.5
	DW	082H
	DW	01a0H
	DD	0c2a8c000r			; -84.375
	DW	081H
	DW	01a0H
	DD	0c2a28000r			; -81.25
	DW	080H
	DW	019fH
	DD	0c29c4000r			; -78.125
	DW	07fH
	DW	019fH
	DD	0c2960000r			; -75
	DW	07eH
	DW	019eH
	DD	0c28fc000r			; -71.875
	DW	07dH
	DW	019eH
	DD	0c2898000r			; -68.75
	DW	07cH
	DW	019eH
	DD	0c2834000r			; -65.625
	DW	07bH
	DW	019dH
	DD	0c27a0000r			; -62.5
	DW	07aH
	DW	019cH
	DD	0c26d8000r			; -59.375
	DW	079H
	DW	019cH
	DD	0c2610000r			; -56.25
	DW	078H
	DW	019bH
	DD	0c2548000r			; -53.125
	DW	077H
	DW	019aH
	DD	0c2480000r			; -50
	DW	076H
	DW	0199H
	DD	0c23b8000r			; -46.875
	DW	075H
	DW	0198H
	DD	0c22f0000r			; -43.75
	DW	075H
	DW	0197H
	DD	0c2228000r			; -40.625
	DW	074H
	DW	0196H
	DD	0c2160000r			; -37.5
	DW	073H
	DW	0195H
	DD	0c2098000r			; -34.375
	DW	073H
	DW	0194H
	DD	0c1fa0000r			; -31.25
	DW	072H
	DW	0193H
	DD	0c1e10000r			; -28.125
	DW	072H
	DW	0192H
	DD	0c1c80000r			; -25
	DW	072H
	DW	0191H
	DD	0c1af0000r			; -21.875
	DW	071H
	DW	0190H
	DD	0c1960000r			; -18.75
	DW	071H
	DW	018fH
	DD	0c17a0000r			; -15.625
	DW	071H
	DW	018eH
	DD	0c1480000r			; -12.5
	DW	071H
	DW	018dH
	DD	0c1160000r			; -9.375
	DW	071H
	DW	018cH
	DD	0c0c80000r			; -6.25
	DW	071H
	DW	018bH
	DD	0c0480000r			; -3.125
	DW	070H
	DW	018aH
	DD	000000000r			; 0
	DW	070H
	DW	0189H
	DD	040480000r			; 3.125
	DW	071H
	DW	0188H
	DD	040c80000r			; 6.25
	DW	071H
	DW	0187H
	DD	041160000r			; 9.375
	DW	071H
	DW	0186H
	DD	041480000r			; 12.5
	DW	071H
	DW	0185H
	DD	0417a0000r			; 15.625
	DW	071H
	DW	0184H
	DD	041960000r			; 18.75
	DW	072H
	DW	0183H
	DD	041af0000r			; 21.875
	DW	072H
	DW	0182H
	DD	041c80000r			; 25
	DW	072H
	DW	0181H
	DD	041e10000r			; 28.125
	DW	073H
	DW	0180H
	DD	041fa0000r			; 31.25
	DW	073H
	DW	017fH
	DD	042098000r			; 34.375
	DW	074H
	DW	017eH
	DD	042160000r			; 37.5
	DW	075H
	DW	017dH
	DD	042228000r			; 40.625
	DW	075H
	DW	017cH
	DD	0422f0000r			; 43.75
	DW	076H
	DW	017bH
	DD	0423b8000r			; 46.875
	DW	077H
	DW	017aH
	DD	042480000r			; 50
	DW	078H
	DW	0179H
	DD	042548000r			; 53.125
	DW	079H
	DW	0178H
	DD	042610000r			; 56.25
	DW	07aH
	DW	0178H
	DD	0426d8000r			; 59.375
	DW	07bH
	DW	0177H
	DD	0427a0000r			; 62.5
	DW	07cH
	DW	0176H
	DD	042834000r			; 65.625
	DW	07dH
	DW	0176H
	DD	042898000r			; 68.75
	DW	07eH
	DW	0175H
	DD	0428fc000r			; 71.875
	DW	07fH
	DW	0175H
	DD	042960000r			; 75
	DW	080H
	DW	0175H
	DD	0429c4000r			; 78.125
	DW	081H
	DW	0174H
	DD	042a28000r			; 81.25
	DW	082H
	DW	0174H
	DD	042a8c000r			; 84.375
	DW	083H
	DW	0174H
	DD	042af0000r			; 87.5
	DW	084H
	DW	0174H
	DD	042b54000r			; 90.625
	DW	085H
	DW	0174H
	DD	042bb8000r			; 93.75
	DW	086H
	DW	0174H
	DD	042c1c000r			; 96.875
	DW	087H
	DW	0174H
	DD	042c80000r			; 100
	DW	088H
	DW	0174H
	DD	042d55555r			; 106.667
	DW	089H
	DW	0174H
	DD	042e2aaabr			; 113.333
	DW	08aH
	DW	0174H
	DD	042f00000r			; 120
	DW	08bH
	DW	0174H
	DD	042fd5555r			; 126.667
	DW	08cH
	DW	0174H
	DD	043055555r			; 133.333
	DW	08dH
	DW	0175H
	DD	0430c0000r			; 140
	DW	08eH
	DW	0175H
	DD	04312aaabr			; 146.667
	DW	08fH
	DW	0175H
	DD	043195555r			; 153.333
	DW	090H
	DW	0176H
	DD	043200000r			; 160
	DW	091H
	DW	0176H
	DD	04326aaabr			; 166.667
	DW	092H
	DW	0177H
	DD	0432d5555r			; 173.333
	DW	093H
	DW	0177H
	DD	043340000r			; 180
	DW	094H
	DW	0178H
	DD	0433aaaabr			; 186.667
	DW	095H
	DW	0179H
	DD	043415555r			; 193.333
	DW	096H
	DW	017aH
	DD	043480000r			; 200
	DW	097H
	DW	017bH
	DD	0434de1e2r			; 205.882
	DW	098H
	DW	017cH
	DD	04353c3c4r			; 211.765
	DW	099H
	DW	017dH
	DD	04359a5a6r			; 217.647
	DW	09aH
	DW	017eH
	DD	0435f8788r			; 223.529
	DW	09aH
	DW	017fH
	DD	043656969r			; 229.412
	DW	09bH
	DW	0180H
	DD	0436b4b4br			; 235.294
	DW	09bH
	DW	0181H
	DD	043712d2dr			; 241.176
	DW	09cH
	DW	0182H
	DD	043770f0fr			; 247.059
	DW	09cH
	DW	0183H
	DD	0437cf0f1r			; 252.941
	DW	09cH
	DW	0184H
	DD	043816969r			; 258.824
	DW	09cH
	DW	0185H
	DD	043845a5ar			; 264.706
	DW	09dH
	DW	0186H
	DD	043874b4br			; 270.588
	DW	09dH
	DW	0187H
	DD	0438a3c3cr			; 276.471
	DW	09dH
	DW	0188H
	DD	0438d2d2dr			; 282.353
	DW	09dH
	DW	0189H
	DD	043901e1er			; 288.235
	DW	09dH
	DW	018aH
	DD	043930f0fr			; 294.118
	DW	00H
	DW	00H
	DD	07f7fffffr			; 3.40282e+38
?vertical_speed_indicator_needle_scale_down_20_left_30@@3PAUSCALE_DATA@@A DW 019aH ; vertical_speed_indicator_needle_scale_down_20_left_30
	DW	0180H
	DD	0c3960000r			; -300
	DW	019aH
	DW	0181H
	DD	0c3922762r			; -292.308
	DW	019aH
	DW	0182H
	DD	0c38e4ec5r			; -284.615
	DW	0199H
	DW	0183H
	DD	0c38a7627r			; -276.923
	DW	0199H
	DW	0184H
	DD	0c3869d8ar			; -269.231
	DW	0198H
	DW	0185H
	DD	0c382c4ecr			; -261.538
	DW	0198H
	DW	0186H
	DD	0c37dd89er			; -253.846
	DW	0197H
	DW	0187H
	DD	0c3762762r			; -246.154
	DW	0197H
	DW	0188H
	DD	0c36e7627r			; -238.462
	DW	0196H
	DW	0189H
	DD	0c366c4ecr			; -230.769
	DW	0195H
	DW	018aH
	DD	0c35f13b1r			; -223.077
	DW	0194H
	DW	018bH
	DD	0c3576276r			; -215.385
	DW	0193H
	DW	018bH
	DD	0c34fb13br			; -207.692
	DW	0192H
	DW	018cH
	DD	0c3480000r			; -200
	DW	0191H
	DW	018dH
	DD	0c3415555r			; -193.333
	DW	0190H
	DW	018dH
	DD	0c33aaaabr			; -186.667
	DW	018fH
	DW	018dH
	DD	0c3340000r			; -180
	DW	018eH
	DW	018eH
	DD	0c32d5555r			; -173.333
	DW	018dH
	DW	018eH
	DD	0c326aaabr			; -166.667
	DW	018cH
	DW	018eH
	DD	0c3200000r			; -160
	DW	018bH
	DW	018eH
	DD	0c3195555r			; -153.333
	DW	018aH
	DW	018fH
	DD	0c312aaabr			; -146.667
	DW	0189H
	DW	018fH
	DD	0c30c0000r			; -140
	DW	0188H
	DW	018fH
	DD	0c3055555r			; -133.333
	DW	0187H
	DW	018eH
	DD	0c2fd5555r			; -126.667
	DW	0186H
	DW	018eH
	DD	0c2f00000r			; -120
	DW	0185H
	DW	018eH
	DD	0c2e2aaabr			; -113.333
	DW	0184H
	DW	018eH
	DD	0c2d55555r			; -106.667
	DW	0183H
	DW	018eH
	DD	0c2c80000r			; -100
	DW	0182H
	DW	018dH
	DD	0c2c0db6er			; -96.4286
	DW	0181H
	DW	018dH
	DD	0c2b9b6dbr			; -92.8571
	DW	0180H
	DW	018cH
	DD	0c2b29249r			; -89.2857
	DW	017fH
	DW	018cH
	DD	0c2ab6db7r			; -85.7143
	DW	017eH
	DW	018bH
	DD	0c2a44925r			; -82.1429
	DW	017dH
	DW	018bH
	DD	0c29d2492r			; -78.5714
	DW	017cH
	DW	018aH
	DD	0c2960000r			; -75
	DW	017bH
	DW	0189H
	DD	0c28edb6er			; -71.4286
	DW	017aH
	DW	0188H
	DD	0c287b6dbr			; -67.8571
	DW	0179H
	DW	0187H
	DD	0c2809249r			; -64.2857
	DW	0178H
	DW	0186H
	DD	0c272db6er			; -60.7143
	DW	0177H
	DW	0185H
	DD	0c2649249r			; -57.1429
	DW	0177H
	DW	0184H
	DD	0c2564925r			; -53.5714
	DW	0176H
	DW	0183H
	DD	0c2480000r			; -50
	DW	0176H
	DW	0182H
	DD	0c23b8000r			; -46.875
	DW	0175H
	DW	0181H
	DD	0c22f0000r			; -43.75
	DW	0175H
	DW	0180H
	DD	0c2228000r			; -40.625
	DW	0174H
	DW	017fH
	DD	0c2160000r			; -37.5
	DW	0174H
	DW	017eH
	DD	0c2098000r			; -34.375
	DW	0174H
	DW	017dH
	DD	0c1fa0000r			; -31.25
	DW	0173H
	DW	017cH
	DD	0c1e10000r			; -28.125
	DW	0173H
	DW	017bH
	DD	0c1c80000r			; -25
	DW	0173H
	DW	017aH
	DD	0c1af0000r			; -21.875
	DW	0173H
	DW	0179H
	DD	0c1960000r			; -18.75
	DW	0173H
	DW	0178H
	DD	0c17a0000r			; -15.625
	DW	0173H
	DW	0177H
	DD	0c1480000r			; -12.5
	DW	0173H
	DW	0176H
	DD	0c1160000r			; -9.375
	DW	0173H
	DW	0175H
	DD	0c0c80000r			; -6.25
	DW	0173H
	DW	0174H
	DD	0c0480000r			; -3.125
	DW	0173H
	DW	0173H
	DD	000000000r			; 0
	DW	0173H
	DW	0172H
	DD	040762762r			; 3.84615
	DW	0174H
	DW	0171H
	DD	040f62762r			; 7.69231
	DW	0174H
	DW	0170H
	DD	041389d8ar			; 11.5385
	DW	0174H
	DW	016fH
	DD	041762762r			; 15.3846
	DW	0175H
	DW	016eH
	DD	04199d89er			; 19.2308
	DW	0175H
	DW	016dH
	DD	041b89d8ar			; 23.0769
	DW	0176H
	DW	016cH
	DD	041d76276r			; 26.9231
	DW	0176H
	DW	016bH
	DD	041f62762r			; 30.7692
	DW	0177H
	DW	016aH
	DD	0420a7627r			; 34.6154
	DW	0178H
	DW	0169H
	DD	04219d89er			; 38.4615
	DW	0179H
	DW	0168H
	DD	042293b14r			; 42.3077
	DW	017aH
	DW	0167H
	DD	042389d8ar			; 46.1538
	DW	017bH
	DW	0166H
	DD	042480000r			; 50
	DW	017cH
	DW	0166H
	DD	042555555r			; 53.3333
	DW	017dH
	DW	0165H
	DD	04262aaabr			; 56.6667
	DW	017eH
	DW	0165H
	DD	042700000r			; 60
	DW	017fH
	DW	0164H
	DD	0427d5555r			; 63.3333
	DW	0180H
	DW	0164H
	DD	042855555r			; 66.6667
	DW	0181H
	DW	0164H
	DD	0428c0000r			; 70
	DW	0182H
	DW	0164H
	DD	04292aaabr			; 73.3333
	DW	0183H
	DW	0164H
	DD	042995555r			; 76.6667
	DW	0184H
	DW	0164H
	DD	042a00000r			; 80
	DW	0185H
	DW	0164H
	DD	042a6aaabr			; 83.3333
	DW	0186H
	DW	0164H
	DD	042ad5555r			; 86.6667
	DW	0187H
	DW	0164H
	DD	042b40000r			; 90
	DW	0188H
	DW	0164H
	DD	042baaaabr			; 93.3333
	DW	0189H
	DW	0164H
	DD	042c15555r			; 96.6667
	DW	018aH
	DW	0164H
	DD	042c80000r			; 100
	DW	018bH
	DW	0165H
	DD	042d64925r			; 107.143
	DW	018cH
	DW	0165H
	DD	042e49249r			; 114.286
	DW	018dH
	DW	0165H
	DD	042f2db6er			; 121.429
	DW	018eH
	DW	0166H
	DD	043009249r			; 128.571
	DW	018fH
	DW	0166H
	DD	04307b6dbr			; 135.714
	DW	0190H
	DW	0167H
	DD	0430edb6er			; 142.857
	DW	0191H
	DW	0168H
	DD	043160000r			; 150
	DW	0192H
	DW	0168H
	DD	0431d2492r			; 157.143
	DW	0193H
	DW	0169H
	DD	043244925r			; 164.286
	DW	0194H
	DW	016aH
	DD	0432b6db7r			; 171.429
	DW	0195H
	DW	016bH
	DD	043329249r			; 178.571
	DW	0195H
	DW	016cH
	DD	04339b6dbr			; 185.714
	DW	0196H
	DW	016dH
	DD	04340db6er			; 192.857
	DW	0197H
	DW	016eH
	DD	043480000r			; 200
	DW	0197H
	DW	016fH
	DD	0434d8e39r			; 205.556
	DW	0198H
	DW	0170H
	DD	043531c72r			; 211.111
	DW	0198H
	DW	0171H
	DD	04358aaabr			; 216.667
	DW	0199H
	DW	0172H
	DD	0435e38e4r			; 222.222
	DW	0199H
	DW	0173H
	DD	04363c71cr			; 227.778
	DW	019aH
	DW	0174H
	DD	043695555r			; 233.333
	DW	019aH
	DW	0175H
	DD	0436ee38er			; 238.889
	DW	019aH
	DW	0176H
	DD	0437471c7r			; 244.444
	DW	019aH
	DW	0177H
	DD	0437a0000r			; 250
	DW	019bH
	DW	0178H
	DD	0437f8e39r			; 255.556
	DW	019bH
	DW	0179H
	DD	043828e39r			; 261.111
	DW	019bH
	DW	017aH
	DD	043855555r			; 266.667
	DW	019bH
	DW	017bH
	DD	043881c72r			; 272.222
	DW	019bH
	DW	017cH
	DD	0438ae38er			; 277.778
	DW	019bH
	DW	017dH
	DD	0438daaabr			; 283.333
	DW	019bH
	DW	017eH
	DD	0439071c7r			; 288.889
	DW	019aH
	DW	017fH
	DD	0439338e4r			; 294.444
	DW	00H
	DW	00H
	DD	07f7fffffr			; 3.40282e+38
?flight_path_value@?L@??get_hsi_needle_values@@YGXPAM00@Z@4MA DD 03fc90fdbr ; 1.5708 ; `get_hsi_needle_values'::`11'::flight_path_value
?drift_value@?L@??get_hsi_needle_values@@YGXPAM00@Z@4MA DD 0beb2b8c2r ; -0.349066 ; `get_hsi_needle_values'::`11'::drift_value
?value@?4??draw_havoc_airspeed_indicator@@YGXW4COCKPIT_PANELS@@@Z@4MA DD 0c2c80000r ; -100 ; `draw_havoc_airspeed_indicator'::`5'::value
?value@?N@??draw_havoc_airspeed_indicator@@YGXW4COCKPIT_PANELS@@@Z@4MA DD 0c2f00000r ; -120 ; `draw_havoc_airspeed_indicator'::`13'::value
?value@?4??draw_havoc_main_rotor_rpm_indicator@@YGXW4COCKPIT_PANELS@@@Z@4MA DD 0c1200000r ; -10 ; `draw_havoc_main_rotor_rpm_indicator'::`5'::value
?value@?4??draw_havoc_g_meter@@YGXW4COCKPIT_PANELS@@@Z@4MA DD 0c0200000r ; -2.5 ; `draw_havoc_g_meter'::`5'::value
?value@?4??draw_havoc_engine_torque_indicator@@YGXW4COCKPIT_PANELS@@@Z@4MA DD 0c1200000r ; -10 ; `draw_havoc_engine_torque_indicator'::`5'::value
?value@?4??draw_havoc_engine_temperature_indicator@@YGXW4COCKPIT_PANELS@@@Z@4MA DD 0c2c80000r ; -100 ; `draw_havoc_engine_temperature_indicator'::`5'::value
?value@?4??draw_havoc_engine_rpm_indicator@@YGXW4COCKPIT_PANELS@@@Z@4MA DD 0c1200000r ; -10 ; `draw_havoc_engine_rpm_indicator'::`5'::value
?lh_temperature_sprite@?4??draw_havoc_engine_temperature_and_rpm_indicator_ticks@@YGXW4COCKPIT_PANELS@@@Z@4URGB_ALPHA_MASKED_SPRITE_DATA@@A DD 01edH ; `draw_havoc_engine_temperature_and_rpm_indicator_ticks'::`5'::lh_temperature_sprite
	DD	0199H
	DD	089H
	DD	0d5H
	DD	07H
	DD	04H
	DB	0edH
	ORG $+3
?rh_temperature_sprite@?4??draw_havoc_engine_temperature_and_rpm_indicator_ticks@@YGXW4COCKPIT_PANELS@@@Z@4URGB_ALPHA_MASKED_SPRITE_DATA@@A DD 0205H ; `draw_havoc_engine_temperature_and_rpm_indicator_ticks'::`5'::rh_temperature_sprite
	DD	0199H
	DD	0a1H
	DD	0d5H
	DD	07H
	DD	04H
	DB	0edH
	ORG $+3
?lh_rpm_sprite@?4??draw_havoc_engine_temperature_and_rpm_indicator_ticks@@YGXW4COCKPIT_PANELS@@@Z@4URGB_ALPHA_MASKED_SPRITE_DATA@@A DD 01f2H ; `draw_havoc_engine_temperature_and_rpm_indicator_ticks'::`5'::lh_rpm_sprite
	DD	0184H
	DD	08eH
	DD	0c0H
	DD	07H
	DD	03H
	DB	0edH
	ORG $+3
?rh_rpm_sprite@?4??draw_havoc_engine_temperature_and_rpm_indicator_ticks@@YGXW4COCKPIT_PANELS@@@Z@4URGB_ALPHA_MASKED_SPRITE_DATA@@A DD 0200H ; `draw_havoc_engine_temperature_and_rpm_indicator_ticks'::`5'::rh_rpm_sprite
	DD	0184H
	DD	09cH
	DD	0c0H
	DD	07H
	DD	03H
	DB	0edH
	ORG $+3
?lh_temperature_sprite@?5??draw_havoc_engine_temperature_and_rpm_indicator_ticks@@YGXW4COCKPIT_PANELS@@@Z@4URGB_ALPHA_MASKED_SPRITE_DATA@@A DD 0f1H ; `draw_havoc_engine_temperature_and_rpm_indicator_ticks'::`6'::lh_temperature_sprite
	DD	0189H
	DD	0b1H
	DD	0d9H
	DD	07H
	DD	05H
	DB	0edH
	ORG $+3
?rh_temperature_sprite@?5??draw_havoc_engine_temperature_and_rpm_indicator_ticks@@YGXW4COCKPIT_PANELS@@@Z@4URGB_ALPHA_MASKED_SPRITE_DATA@@A DD 0106H ; `draw_havoc_engine_temperature_and_rpm_indicator_ticks'::`6'::rh_temperature_sprite
	DD	0182H
	DD	0c6H
	DD	0d2H
	DD	07H
	DD	05H
	DB	0edH
	ORG $+3
?lh_rpm_sprite@?5??draw_havoc_engine_temperature_and_rpm_indicator_ticks@@YGXW4COCKPIT_PANELS@@@Z@4URGB_ALPHA_MASKED_SPRITE_DATA@@A DD 0f2H ; `draw_havoc_engine_temperature_and_rpm_indicator_ticks'::`6'::lh_rpm_sprite
	DD	0174H
	DD	0b2H
	DD	0c4H
	DD	07H
	DD	03H
	DB	0edH
	ORG $+3
?rh_rpm_sprite@?5??draw_havoc_engine_temperature_and_rpm_indicator_ticks@@YGXW4COCKPIT_PANELS@@@Z@4URGB_ALPHA_MASKED_SPRITE_DATA@@A DD 0ffH ; `draw_havoc_engine_temperature_and_rpm_indicator_ticks'::`6'::rh_rpm_sprite
	DD	0170H
	DD	0bfH
	DD	0c0H
	DD	06H
	DD	03H
	DB	0edH
	ORG $+3
?value@?4??draw_havoc_vertical_speed_indicator@@YGXW4COCKPIT_PANELS@@@Z@4MA DD 0c3af0000r ; -350 ; `draw_havoc_vertical_speed_indicator'::`5'::value
?minute_value@?4??draw_havoc_clock@@YGXW4COCKPIT_PANELS@@@Z@4MA DD 041f00000r ; 30 ; `draw_havoc_clock'::`5'::minute_value
?value@?4??draw_havoc_radar_altimeter@@YGXW4COCKPIT_PANELS@@@Z@4MA DD 0c1a00000r ; -20 ; `draw_havoc_radar_altimeter'::`5'::value
?value@?4??draw_havoc_fuel_gauge@@YGXW4COCKPIT_PANELS@@@Z@4MA DD 0c3fa0000r ; -500 ; `draw_havoc_fuel_gauge'::`5'::value
?sprite@?N@??draw_havoc_fuel_gauge@@YGXW4COCKPIT_PANELS@@@Z@4URGB_ALPHA_MASKED_SPRITE_DATA@@A DD 019eH ; `draw_havoc_fuel_gauge'::`13'::sprite
	DD	01afH
	DD	087H
	DD	0e6H
	DD	0cH
	DD	0cH
	DB	0ebH
	ORG $+3
?sprite@?O@??draw_havoc_fuel_gauge@@YGXW4COCKPIT_PANELS@@@Z@4URGB_ALPHA_MASKED_SPRITE_DATA@@A DD 0abH ; `draw_havoc_fuel_gauge'::`14'::sprite
	DD	01b7H
	DD	09dH
	DD	0e6H
	DD	0bH
	DD	0bH
	DB	0ebH
	ORG $+3
_DATA	ENDS
; Function compile flags: /Odtp /ZI
; File c:\users\nhv90\projects\eech\aphavoc\source\gunships\cockpits\havoc\ha_instr.c
;	COMDAT ?test_scale@@YGXPAUSCALE_DATA@@MMM@Z
_TEXT	SEGMENT
_value$ = -4						; size = 4
_scale$ = 8						; size = 4
_first$ = 12						; size = 4
