; Listing generated by Microsoft (R) Optimizing Compiler Version 19.16.27045.0 

	TITLE	C:\Users\nhv90\Projects\eech\aphavoc\source\gunships\avionics\havoc\ha_radar.c
	.686P
	.XMM
	include listing.inc
	.model	flat

INCLUDELIB MSVCRTD
INCLUDELIB OLDNAMES

PUBLIC	?radar_range_havoc@@3PAMA			; radar_range_havoc
PUBLIC	?HAVOC_RADAR_SCAN_RANGE_1000@@3MA		; HAVOC_RADAR_SCAN_RANGE_1000
PUBLIC	?HAVOC_RADAR_SCAN_RANGE_2000@@3MA		; HAVOC_RADAR_SCAN_RANGE_2000
PUBLIC	?HAVOC_RADAR_SCAN_RANGE_4000@@3MA		; HAVOC_RADAR_SCAN_RANGE_4000
PUBLIC	?HAVOC_RADAR_SCAN_RANGE_6000@@3MA		; HAVOC_RADAR_SCAN_RANGE_6000
_BSS	SEGMENT
?radar_range_havoc@@3PAMA DD 04H DUP (?)		; radar_range_havoc
?HAVOC_RADAR_SCAN_RANGE_1000@@3MA DD 01H DUP (?)	; HAVOC_RADAR_SCAN_RANGE_1000
?HAVOC_RADAR_SCAN_RANGE_2000@@3MA DD 01H DUP (?)	; HAVOC_RADAR_SCAN_RANGE_2000
?HAVOC_RADAR_SCAN_RANGE_4000@@3MA DD 01H DUP (?)	; HAVOC_RADAR_SCAN_RANGE_4000
?HAVOC_RADAR_SCAN_RANGE_6000@@3MA DD 01H DUP (?)	; HAVOC_RADAR_SCAN_RANGE_6000
_BSS	ENDS
PUBLIC	?initialise_havoc_radar@@YGXXZ			; initialise_havoc_radar
PUBLIC	?deinitialise_havoc_radar@@YGXXZ		; deinitialise_havoc_radar
PUBLIC	?update_havoc_ground_radar@@YGXXZ		; update_havoc_ground_radar
PUBLIC	?centre_havoc_ground_radar@@YGXXZ		; centre_havoc_ground_radar
PUBLIC	?update_havoc_air_radar@@YGXXZ			; update_havoc_air_radar
PUBLIC	?centre_havoc_air_radar@@YGXXZ			; centre_havoc_air_radar
PUBLIC	__real@3e860a92
PUBLIC	__real@3f060a92
PUBLIC	__real@3f490fdb
PUBLIC	__real@3f800000
PUBLIC	__real@3f860a92
PUBLIC	__real@3fc0c15240000000
PUBLIC	__real@3fc90fdb
PUBLIC	__real@3fd0c15240000000
PUBLIC	__real@3fe0000000000000
PUBLIC	__real@3fe921fb60000000
PUBLIC	__real@3ff921fb51000000
PUBLIC	__real@400921fb51000000
PUBLIC	__real@401921fb51000000
PUBLIC	__real@40490fdb
PUBLIC	__real@409f400000000000
PUBLIC	__real@40c90fdb
PUBLIC	__real@bfe921fb60000000
PUBLIC	__real@c00921fb51000000
EXTRN	?limit_radar_sweep@@YGXPAURADAR_PARAMS@@@Z:PROC	; limit_radar_sweep
EXTRN	?get_next_ground_radar_target@@YGXXZ:PROC	; get_next_ground_radar_target
EXTRN	?get_previous_ground_radar_target@@YGXXZ:PROC	; get_previous_ground_radar_target
EXTRN	?select_next_designated_ground_radar_target@@YGXXZ:PROC ; select_next_designated_ground_radar_target
EXTRN	?get_next_air_radar_target@@YGXXZ:PROC		; get_next_air_radar_target
EXTRN	?get_previous_air_radar_target@@YGXXZ:PROC	; get_previous_air_radar_target
EXTRN	?select_next_designated_air_radar_target@@YGXXZ:PROC ; select_next_designated_air_radar_target
EXTRN	?command_line_designated_targets@@3HA:DWORD	; command_line_designated_targets
EXTRN	?single_target_acquisition_system_steer_left_key@@3HA:DWORD ; single_target_acquisition_system_steer_left_key
EXTRN	?single_target_acquisition_system_steer_right_key@@3HA:DWORD ; single_target_acquisition_system_steer_right_key
EXTRN	?single_target_acquisition_system_steer_up_key@@3HA:DWORD ; single_target_acquisition_system_steer_up_key
EXTRN	?single_target_acquisition_system_steer_down_key@@3HA:DWORD ; single_target_acquisition_system_steer_down_key
EXTRN	?single_target_acquisition_system_inc_range_key@@3HA:DWORD ; single_target_acquisition_system_inc_range_key
EXTRN	?single_target_acquisition_system_dec_range_key@@3HA:DWORD ; single_target_acquisition_system_dec_range_key
EXTRN	?single_target_acquisition_system_inc_target_priority_key@@3HA:DWORD ; single_target_acquisition_system_inc_target_priority_key
EXTRN	?single_target_acquisition_system_dec_target_priority_key@@3HA:DWORD ; single_target_acquisition_system_dec_target_priority_key
EXTRN	?single_target_acquisition_system_select_next_target_key@@3HA:DWORD ; single_target_acquisition_system_select_next_target_key
EXTRN	?single_target_acquisition_system_select_previous_target_key@@3HA:DWORD ; single_target_acquisition_system_select_previous_target_key
EXTRN	?single_target_acquisition_system_select_next_designated_key@@3HA:DWORD ; single_target_acquisition_system_select_next_designated_key
EXTRN	?single_target_acquisition_system_select_previous_designated_key@@3HA:DWORD ; single_target_acquisition_system_select_previous_designated_key
EXTRN	?single_target_acquisition_system_steer_left_fast_key@@3HA:DWORD ; single_target_acquisition_system_steer_left_fast_key
EXTRN	?single_target_acquisition_system_steer_right_fast_key@@3HA:DWORD ; single_target_acquisition_system_steer_right_fast_key
EXTRN	?single_target_acquisition_system_steer_up_fast_key@@3HA:DWORD ; single_target_acquisition_system_steer_up_fast_key
EXTRN	?single_target_acquisition_system_steer_down_fast_key@@3HA:DWORD ; single_target_acquisition_system_steer_down_fast_key
EXTRN	?single_target_acquisition_system_inc_range_fast_key@@3HA:DWORD ; single_target_acquisition_system_inc_range_fast_key
EXTRN	?single_target_acquisition_system_dec_range_fast_key@@3HA:DWORD ; single_target_acquisition_system_dec_range_fast_key
EXTRN	?single_target_acquisition_system_inc_target_priority_fast_key@@3HA:DWORD ; single_target_acquisition_system_inc_target_priority_fast_key
EXTRN	?single_target_acquisition_system_dec_target_priority_fast_key@@3HA:DWORD ; single_target_acquisition_system_dec_target_priority_fast_key
EXTRN	?ground_radar@@3URADAR_PARAMS@@A:BYTE		; ground_radar
EXTRN	?air_radar@@3URADAR_PARAMS@@A:BYTE		; air_radar
EXTRN	__fltused:DWORD
;	COMDAT __real@c00921fb51000000
CONST	SEGMENT
__real@c00921fb51000000 DQ 0c00921fb51000000r	; -3.14159
CONST	ENDS
;	COMDAT __real@bfe921fb60000000
CONST	SEGMENT
__real@bfe921fb60000000 DQ 0bfe921fb60000000r	; -0.785398
CONST	ENDS
;	COMDAT __real@40c90fdb
CONST	SEGMENT
__real@40c90fdb DD 040c90fdbr			; 6.28319
CONST	ENDS
;	COMDAT __real@409f400000000000
CONST	SEGMENT
__real@409f400000000000 DQ 0409f400000000000r	; 2000
CONST	ENDS
;	COMDAT __real@40490fdb
CONST	SEGMENT
__real@40490fdb DD 040490fdbr			; 3.14159
CONST	ENDS
;	COMDAT __real@401921fb51000000
CONST	SEGMENT
__real@401921fb51000000 DQ 0401921fb51000000r	; 6.28319
CONST	ENDS
;	COMDAT __real@400921fb51000000
CONST	SEGMENT
__real@400921fb51000000 DQ 0400921fb51000000r	; 3.14159
CONST	ENDS
;	COMDAT __real@3ff921fb51000000
CONST	SEGMENT
__real@3ff921fb51000000 DQ 03ff921fb51000000r	; 1.5708
CONST	ENDS
;	COMDAT __real@3fe921fb60000000
CONST	SEGMENT
__real@3fe921fb60000000 DQ 03fe921fb60000000r	; 0.785398
CONST	ENDS
;	COMDAT __real@3fe0000000000000
CONST	SEGMENT
__real@3fe0000000000000 DQ 03fe0000000000000r	; 0.5
CONST	ENDS
;	COMDAT __real@3fd0c15240000000
CONST	SEGMENT
__real@3fd0c15240000000 DQ 03fd0c15240000000r	; 0.261799
CONST	ENDS
;	COMDAT __real@3fc90fdb
CONST	SEGMENT
__real@3fc90fdb DD 03fc90fdbr			; 1.5708
CONST	ENDS
;	COMDAT __real@3fc0c15240000000
CONST	SEGMENT
__real@3fc0c15240000000 DQ 03fc0c15240000000r	; 0.1309
CONST	ENDS
;	COMDAT __real@3f860a92
CONST	SEGMENT
__real@3f860a92 DD 03f860a92r			; 1.0472
CONST	ENDS
;	COMDAT __real@3f800000
CONST	SEGMENT
__real@3f800000 DD 03f800000r			; 1
CONST	ENDS
;	COMDAT __real@3f490fdb
CONST	SEGMENT
__real@3f490fdb DD 03f490fdbr			; 0.785398
CONST	ENDS
;	COMDAT __real@3f060a92
CONST	SEGMENT
__real@3f060a92 DD 03f060a92r			; 0.523599
CONST	ENDS
;	COMDAT __real@3e860a92
CONST	SEGMENT
__real@3e860a92 DD 03e860a92r			; 0.261799
CONST	ENDS
; Function compile flags: /Odtp /ZI
; File c:\users\nhv90\projects\eech\aphavoc\source\gunships\avionics\havoc\ha_radar.c
;	COMDAT ?select_previous_air_radar_target@@YGXXZ
_TEXT	SEGMENT
?select_previous_air_radar_target@@YGXXZ PROC		; select_previous_air_radar_target, COMDAT

; 873  : {

  00000	55		 push	 ebp
  00001	8b ec		 mov	 ebp, esp
  00003	83 ec 40	 sub	 esp, 64			; 00000040H
  00006	53		 push	 ebx
  00007	56		 push	 esi
  00008	57		 push	 edi

; 874  : 	get_previous_air_radar_target ();

  00009	e8 00 00 00 00	 call	 ?get_previous_air_radar_target@@YGXXZ ; get_previous_air_radar_target

; 875  : }

  0000e	5f		 pop	 edi
  0000f	5e		 pop	 esi
  00010	5b		 pop	 ebx
  00011	8b e5		 mov	 esp, ebp
  00013	5d		 pop	 ebp
  00014	c3		 ret	 0
?select_previous_air_radar_target@@YGXXZ ENDP		; select_previous_air_radar_target
_TEXT	ENDS
; Function compile flags: /Odtp /ZI
; File c:\users\nhv90\projects\eech\aphavoc\source\gunships\avionics\havoc\ha_radar.c
;	COMDAT ?select_next_air_radar_target@@YGXXZ
_TEXT	SEGMENT
?select_next_air_radar_target@@YGXXZ PROC		; select_next_air_radar_target, COMDAT

; 864  : {

  00000	55		 push	 ebp
  00001	8b ec		 mov	 ebp, esp
  00003	83 ec 40	 sub	 esp, 64			; 00000040H
  00006	53		 push	 ebx
  00007	56		 push	 esi
  00008	57		 push	 edi

; 865  : 	get_next_air_radar_target ();

  00009	e8 00 00 00 00	 call	 ?get_next_air_radar_target@@YGXXZ ; get_next_air_radar_target

; 866  : }

  0000e	5f		 pop	 edi
  0000f	5e		 pop	 esi
  00010	5b		 pop	 ebx
  00011	8b e5		 mov	 esp, ebp
  00013	5d		 pop	 ebp
  00014	c3		 ret	 0
?select_next_air_radar_target@@YGXXZ ENDP		; select_next_air_radar_target
_TEXT	ENDS
; Function compile flags: /Odtp /ZI
; File c:\users\nhv90\projects\eech\aphavoc\source\gunships\avionics\havoc\ha_radar.c
;	COMDAT ?fast_dec_air_radar_scan_range@@YGXXZ
_TEXT	SEGMENT
?fast_dec_air_radar_scan_range@@YGXXZ PROC		; fast_dec_air_radar_scan_range, COMDAT

; 855  : {

  00000	55		 push	 ebp
  00001	8b ec		 mov	 ebp, esp
  00003	83 ec 40	 sub	 esp, 64			; 00000040H
  00006	53		 push	 ebx
  00007	56		 push	 esi
  00008	57		 push	 edi

; 856  : 	air_radar.scan_range = HAVOC_RADAR_SCAN_RANGE_1000;

  00009	f3 0f 10 05 00
	00 00 00	 movss	 xmm0, DWORD PTR ?HAVOC_RADAR_SCAN_RANGE_1000@@3MA
  00011	f3 0f 11 05 00
	00 00 00	 movss	 DWORD PTR ?air_radar@@3URADAR_PARAMS@@A, xmm0

; 857  : }

  00019	5f		 pop	 edi
  0001a	5e		 pop	 esi
  0001b	5b		 pop	 ebx
  0001c	8b e5		 mov	 esp, ebp
  0001e	5d		 pop	 ebp
  0001f	c3		 ret	 0
?fast_dec_air_radar_scan_range@@YGXXZ ENDP		; fast_dec_air_radar_scan_range
_TEXT	ENDS
; Function compile flags: /Odtp /ZI
; File c:\users\nhv90\projects\eech\aphavoc\source\gunships\avionics\havoc\ha_radar.c
;	COMDAT ?dec_air_radar_scan_range@@YGXXZ
_TEXT	SEGMENT
?dec_air_radar_scan_range@@YGXXZ PROC			; dec_air_radar_scan_range, COMDAT

; 835  : {

  00000	55		 push	 ebp
  00001	8b ec		 mov	 ebp, esp
  00003	83 ec 40	 sub	 esp, 64			; 00000040H
  00006	53		 push	 ebx
  00007	56		 push	 esi
  00008	57		 push	 edi

; 836  : 	if (air_radar.scan_range == HAVOC_RADAR_SCAN_RANGE_6000)

  00009	f3 0f 10 05 00
	00 00 00	 movss	 xmm0, DWORD PTR ?air_radar@@3URADAR_PARAMS@@A
  00011	0f 2e 05 00 00
	00 00		 ucomiss xmm0, DWORD PTR ?HAVOC_RADAR_SCAN_RANGE_6000@@3MA
  00018	9f		 lahf
  00019	f6 c4 44	 test	 ah, 68			; 00000044H
  0001c	7a 12		 jp	 SHORT $LN2@dec_air_ra

; 837  : 	{
; 838  : 		air_radar.scan_range = HAVOC_RADAR_SCAN_RANGE_4000;

  0001e	f3 0f 10 05 00
	00 00 00	 movss	 xmm0, DWORD PTR ?HAVOC_RADAR_SCAN_RANGE_4000@@3MA
  00026	f3 0f 11 05 00
	00 00 00	 movss	 DWORD PTR ?air_radar@@3URADAR_PARAMS@@A, xmm0
  0002e	eb 4c		 jmp	 SHORT $LN6@dec_air_ra
$LN2@dec_air_ra:

; 839  : 	}
; 840  : 	else if (air_radar.scan_range == HAVOC_RADAR_SCAN_RANGE_4000)

  00030	f3 0f 10 05 00
	00 00 00	 movss	 xmm0, DWORD PTR ?air_radar@@3URADAR_PARAMS@@A
  00038	0f 2e 05 00 00
	00 00		 ucomiss xmm0, DWORD PTR ?HAVOC_RADAR_SCAN_RANGE_4000@@3MA
  0003f	9f		 lahf
  00040	f6 c4 44	 test	 ah, 68			; 00000044H
  00043	7a 12		 jp	 SHORT $LN4@dec_air_ra

; 841  : 	{
; 842  : 		air_radar.scan_range = HAVOC_RADAR_SCAN_RANGE_2000;

  00045	f3 0f 10 05 00
	00 00 00	 movss	 xmm0, DWORD PTR ?HAVOC_RADAR_SCAN_RANGE_2000@@3MA
  0004d	f3 0f 11 05 00
	00 00 00	 movss	 DWORD PTR ?air_radar@@3URADAR_PARAMS@@A, xmm0
  00055	eb 25		 jmp	 SHORT $LN6@dec_air_ra
$LN4@dec_air_ra:

; 843  : 	}
; 844  : 	else if (air_radar.scan_range == HAVOC_RADAR_SCAN_RANGE_2000)

  00057	f3 0f 10 05 00
	00 00 00	 movss	 xmm0, DWORD PTR ?air_radar@@3URADAR_PARAMS@@A
  0005f	0f 2e 05 00 00
	00 00		 ucomiss xmm0, DWORD PTR ?HAVOC_RADAR_SCAN_RANGE_2000@@3MA
  00066	9f		 lahf
  00067	f6 c4 44	 test	 ah, 68			; 00000044H
  0006a	7a 10		 jp	 SHORT $LN6@dec_air_ra

; 845  : 	{
; 846  : 		air_radar.scan_range = HAVOC_RADAR_SCAN_RANGE_1000;

  0006c	f3 0f 10 05 00
	00 00 00	 movss	 xmm0, DWORD PTR ?HAVOC_RADAR_SCAN_RANGE_1000@@3MA
  00074	f3 0f 11 05 00
	00 00 00	 movss	 DWORD PTR ?air_radar@@3URADAR_PARAMS@@A, xmm0
$LN6@dec_air_ra:

; 847  : 	}
; 848  : }

  0007c	5f		 pop	 edi
  0007d	5e		 pop	 esi
  0007e	5b		 pop	 ebx
  0007f	8b e5		 mov	 esp, ebp
  00081	5d		 pop	 ebp
  00082	c3		 ret	 0
?dec_air_radar_scan_range@@YGXXZ ENDP			; dec_air_radar_scan_range
_TEXT	ENDS
; Function compile flags: /Odtp /ZI
; File c:\users\nhv90\projects\eech\aphavoc\source\gunships\avionics\havoc\ha_radar.c
;	COMDAT ?fast_inc_air_radar_scan_range@@YGXXZ
_TEXT	SEGMENT
?fast_inc_air_radar_scan_range@@YGXXZ PROC		; fast_inc_air_radar_scan_range, COMDAT

; 826  : {

  00000	55		 push	 ebp
  00001	8b ec		 mov	 ebp, esp
  00003	83 ec 40	 sub	 esp, 64			; 00000040H
  00006	53		 push	 ebx
  00007	56		 push	 esi
  00008	57		 push	 edi

; 827  : 	air_radar.scan_range = HAVOC_RADAR_SCAN_RANGE_6000;

  00009	f3 0f 10 05 00
	00 00 00	 movss	 xmm0, DWORD PTR ?HAVOC_RADAR_SCAN_RANGE_6000@@3MA
  00011	f3 0f 11 05 00
	00 00 00	 movss	 DWORD PTR ?air_radar@@3URADAR_PARAMS@@A, xmm0

; 828  : }

  00019	5f		 pop	 edi
  0001a	5e		 pop	 esi
  0001b	5b		 pop	 ebx
  0001c	8b e5		 mov	 esp, ebp
  0001e	5d		 pop	 ebp
  0001f	c3		 ret	 0
?fast_inc_air_radar_scan_range@@YGXXZ ENDP		; fast_inc_air_radar_scan_range
_TEXT	ENDS
; Function compile flags: /Odtp /ZI
; File c:\users\nhv90\projects\eech\aphavoc\source\gunships\avionics\havoc\ha_radar.c
;	COMDAT ?inc_air_radar_scan_range@@YGXXZ
_TEXT	SEGMENT
?inc_air_radar_scan_range@@YGXXZ PROC			; inc_air_radar_scan_range, COMDAT

; 806  : {

  00000	55		 push	 ebp
  00001	8b ec		 mov	 ebp, esp
  00003	83 ec 40	 sub	 esp, 64			; 00000040H
  00006	53		 push	 ebx
  00007	56		 push	 esi
  00008	57		 push	 edi

; 807  : 	if (air_radar.scan_range == HAVOC_RADAR_SCAN_RANGE_1000)

  00009	f3 0f 10 05 00
	00 00 00	 movss	 xmm0, DWORD PTR ?air_radar@@3URADAR_PARAMS@@A
  00011	0f 2e 05 00 00
	00 00		 ucomiss xmm0, DWORD PTR ?HAVOC_RADAR_SCAN_RANGE_1000@@3MA
  00018	9f		 lahf
  00019	f6 c4 44	 test	 ah, 68			; 00000044H
  0001c	7a 12		 jp	 SHORT $LN2@inc_air_ra

; 808  : 	{
; 809  : 		air_radar.scan_range = HAVOC_RADAR_SCAN_RANGE_2000;

  0001e	f3 0f 10 05 00
	00 00 00	 movss	 xmm0, DWORD PTR ?HAVOC_RADAR_SCAN_RANGE_2000@@3MA
  00026	f3 0f 11 05 00
	00 00 00	 movss	 DWORD PTR ?air_radar@@3URADAR_PARAMS@@A, xmm0
  0002e	eb 4c		 jmp	 SHORT $LN6@inc_air_ra
$LN2@inc_air_ra:

; 810  : 	}
; 811  : 	else if (air_radar.scan_range == HAVOC_RADAR_SCAN_RANGE_2000)

  00030	f3 0f 10 05 00
	00 00 00	 movss	 xmm0, DWORD PTR ?air_radar@@3URADAR_PARAMS@@A
  00038	0f 2e 05 00 00
	00 00		 ucomiss xmm0, DWORD PTR ?HAVOC_RADAR_SCAN_RANGE_2000@@3MA
  0003f	9f		 lahf
  00040	f6 c4 44	 test	 ah, 68			; 00000044H
  00043	7a 12		 jp	 SHORT $LN4@inc_air_ra

; 812  : 	{
; 813  : 		air_radar.scan_range = HAVOC_RADAR_SCAN_RANGE_4000;

  00045	f3 0f 10 05 00
	00 00 00	 movss	 xmm0, DWORD PTR ?HAVOC_RADAR_SCAN_RANGE_4000@@3MA
  0004d	f3 0f 11 05 00
	00 00 00	 movss	 DWORD PTR ?air_radar@@3URADAR_PARAMS@@A, xmm0
  00055	eb 25		 jmp	 SHORT $LN6@inc_air_ra
$LN4@inc_air_ra:

; 814  : 	}
; 815  : 	else if (air_radar.scan_range == HAVOC_RADAR_SCAN_RANGE_4000)

  00057	f3 0f 10 05 00
	00 00 00	 movss	 xmm0, DWORD PTR ?air_radar@@3URADAR_PARAMS@@A
  0005f	0f 2e 05 00 00
	00 00		 ucomiss xmm0, DWORD PTR ?HAVOC_RADAR_SCAN_RANGE_4000@@3MA
  00066	9f		 lahf
  00067	f6 c4 44	 test	 ah, 68			; 00000044H
  0006a	7a 10		 jp	 SHORT $LN6@inc_air_ra

; 816  : 	{
; 817  : 		air_radar.scan_range = HAVOC_RADAR_SCAN_RANGE_6000;

  0006c	f3 0f 10 05 00
	00 00 00	 movss	 xmm0, DWORD PTR ?HAVOC_RADAR_SCAN_RANGE_6000@@3MA
  00074	f3 0f 11 05 00
	00 00 00	 movss	 DWORD PTR ?air_radar@@3URADAR_PARAMS@@A, xmm0
$LN6@inc_air_ra:

; 818  : 	}
; 819  : }

  0007c	5f		 pop	 edi
  0007d	5e		 pop	 esi
  0007e	5b		 pop	 ebx
  0007f	8b e5		 mov	 esp, ebp
  00081	5d		 pop	 ebp
  00082	c3		 ret	 0
?inc_air_radar_scan_range@@YGXXZ ENDP			; inc_air_radar_scan_range
_TEXT	ENDS
; Function compile flags: /Odtp /ZI
; File c:\users\nhv90\projects\eech\aphavoc\source\gunships\avionics\havoc\ha_radar.c
;	COMDAT ?fast_dec_air_radar_scan_arc_size@@YGXXZ
_TEXT	SEGMENT
?fast_dec_air_radar_scan_arc_size@@YGXXZ PROC		; fast_dec_air_radar_scan_arc_size, COMDAT

; 795  : {

  00000	55		 push	 ebp
  00001	8b ec		 mov	 ebp, esp
  00003	83 ec 40	 sub	 esp, 64			; 00000040H
  00006	53		 push	 ebx
  00007	56		 push	 esi
  00008	57		 push	 edi

; 796  : 	air_radar.scan_arc_size = HAVOC_RADAR_SCAN_ARC_SIZE_30;

  00009	f3 0f 10 05 00
	00 00 00	 movss	 xmm0, DWORD PTR __real@3f060a92
  00011	f3 0f 11 05 08
	00 00 00	 movss	 DWORD PTR ?air_radar@@3URADAR_PARAMS@@A+8, xmm0

; 797  : 
; 798  : 	limit_radar_sweep (&air_radar);

  00019	68 00 00 00 00	 push	 OFFSET ?air_radar@@3URADAR_PARAMS@@A ; air_radar
  0001e	e8 00 00 00 00	 call	 ?limit_radar_sweep@@YGXPAURADAR_PARAMS@@@Z ; limit_radar_sweep

; 799  : }

  00023	5f		 pop	 edi
  00024	5e		 pop	 esi
  00025	5b		 pop	 ebx
  00026	8b e5		 mov	 esp, ebp
  00028	5d		 pop	 ebp
  00029	c3		 ret	 0
?fast_dec_air_radar_scan_arc_size@@YGXXZ ENDP		; fast_dec_air_radar_scan_arc_size
_TEXT	ENDS
; Function compile flags: /Odtp /ZI
; File c:\users\nhv90\projects\eech\aphavoc\source\gunships\avionics\havoc\ha_radar.c
;	COMDAT ?dec_air_radar_scan_arc_size@@YGXXZ
_TEXT	SEGMENT
?dec_air_radar_scan_arc_size@@YGXXZ PROC		; dec_air_radar_scan_arc_size, COMDAT

; 765  : {

  00000	55		 push	 ebp
  00001	8b ec		 mov	 ebp, esp
  00003	83 ec 40	 sub	 esp, 64			; 00000040H
  00006	53		 push	 ebx
  00007	56		 push	 esi
  00008	57		 push	 edi

; 766  : 	if (air_radar.scan_arc_size == HAVOC_RADAR_SCAN_ARC_SIZE_360)

  00009	f3 0f 10 05 08
	00 00 00	 movss	 xmm0, DWORD PTR ?air_radar@@3URADAR_PARAMS@@A+8
  00011	0f 2e 05 00 00
	00 00		 ucomiss xmm0, DWORD PTR __real@40c90fdb
  00018	9f		 lahf
  00019	f6 c4 44	 test	 ah, 68			; 00000044H
  0001c	7a 15		 jp	 SHORT $LN2@dec_air_ra

; 767  : 	{
; 768  : 		air_radar.scan_arc_size = HAVOC_RADAR_SCAN_ARC_SIZE_180;

  0001e	f3 0f 10 05 00
	00 00 00	 movss	 xmm0, DWORD PTR __real@40490fdb
  00026	f3 0f 11 05 08
	00 00 00	 movss	 DWORD PTR ?air_radar@@3URADAR_PARAMS@@A+8, xmm0
  0002e	e9 9a 00 00 00	 jmp	 $LN10@dec_air_ra
$LN2@dec_air_ra:

; 769  : 	}
; 770  : 	else if (air_radar.scan_arc_size == HAVOC_RADAR_SCAN_ARC_SIZE_180)

  00033	f3 0f 10 05 08
	00 00 00	 movss	 xmm0, DWORD PTR ?air_radar@@3URADAR_PARAMS@@A+8
  0003b	0f 2e 05 00 00
	00 00		 ucomiss xmm0, DWORD PTR __real@40490fdb
  00042	9f		 lahf
  00043	f6 c4 44	 test	 ah, 68			; 00000044H
  00046	7a 12		 jp	 SHORT $LN4@dec_air_ra

; 771  : 	{
; 772  : 		air_radar.scan_arc_size = HAVOC_RADAR_SCAN_ARC_SIZE_90;

  00048	f3 0f 10 05 00
	00 00 00	 movss	 xmm0, DWORD PTR __real@3fc90fdb
  00050	f3 0f 11 05 08
	00 00 00	 movss	 DWORD PTR ?air_radar@@3URADAR_PARAMS@@A+8, xmm0
  00058	eb 73		 jmp	 SHORT $LN10@dec_air_ra
$LN4@dec_air_ra:

; 773  : 	}
; 774  : 	else if (air_radar.scan_arc_size == HAVOC_RADAR_SCAN_ARC_SIZE_90)

  0005a	f3 0f 10 05 08
	00 00 00	 movss	 xmm0, DWORD PTR ?air_radar@@3URADAR_PARAMS@@A+8
  00062	0f 2e 05 00 00
	00 00		 ucomiss xmm0, DWORD PTR __real@3fc90fdb
  00069	9f		 lahf
  0006a	f6 c4 44	 test	 ah, 68			; 00000044H
  0006d	7a 12		 jp	 SHORT $LN6@dec_air_ra

; 775  : 	{
; 776  : 		air_radar.scan_arc_size = HAVOC_RADAR_SCAN_ARC_SIZE_60;

  0006f	f3 0f 10 05 00
	00 00 00	 movss	 xmm0, DWORD PTR __real@3f860a92
  00077	f3 0f 11 05 08
	00 00 00	 movss	 DWORD PTR ?air_radar@@3URADAR_PARAMS@@A+8, xmm0
  0007f	eb 4c		 jmp	 SHORT $LN10@dec_air_ra
$LN6@dec_air_ra:

; 777  : 	}
; 778  : 	else if (air_radar.scan_arc_size == HAVOC_RADAR_SCAN_ARC_SIZE_60)

  00081	f3 0f 10 05 08
	00 00 00	 movss	 xmm0, DWORD PTR ?air_radar@@3URADAR_PARAMS@@A+8
  00089	0f 2e 05 00 00
	00 00		 ucomiss xmm0, DWORD PTR __real@3f860a92
  00090	9f		 lahf
  00091	f6 c4 44	 test	 ah, 68			; 00000044H
  00094	7a 12		 jp	 SHORT $LN8@dec_air_ra

; 779  : 	{
; 780  : 		air_radar.scan_arc_size = HAVOC_RADAR_SCAN_ARC_SIZE_45;

  00096	f3 0f 10 05 00
	00 00 00	 movss	 xmm0, DWORD PTR __real@3f490fdb
  0009e	f3 0f 11 05 08
	00 00 00	 movss	 DWORD PTR ?air_radar@@3URADAR_PARAMS@@A+8, xmm0
  000a6	eb 25		 jmp	 SHORT $LN10@dec_air_ra
$LN8@dec_air_ra:

; 781  : 	}
; 782  : 	else if (air_radar.scan_arc_size == HAVOC_RADAR_SCAN_ARC_SIZE_45)

  000a8	f3 0f 10 05 08
	00 00 00	 movss	 xmm0, DWORD PTR ?air_radar@@3URADAR_PARAMS@@A+8
  000b0	0f 2e 05 00 00
	00 00		 ucomiss xmm0, DWORD PTR __real@3f490fdb
  000b7	9f		 lahf
  000b8	f6 c4 44	 test	 ah, 68			; 00000044H
  000bb	7a 10		 jp	 SHORT $LN10@dec_air_ra

; 783  : 	{
; 784  : 		air_radar.scan_arc_size = HAVOC_RADAR_SCAN_ARC_SIZE_30;

  000bd	f3 0f 10 05 00
	00 00 00	 movss	 xmm0, DWORD PTR __real@3f060a92
  000c5	f3 0f 11 05 08
	00 00 00	 movss	 DWORD PTR ?air_radar@@3URADAR_PARAMS@@A+8, xmm0
$LN10@dec_air_ra:

; 785  : 	}
; 786  : 
; 787  : 	limit_radar_sweep (&air_radar);

  000cd	68 00 00 00 00	 push	 OFFSET ?air_radar@@3URADAR_PARAMS@@A ; air_radar
  000d2	e8 00 00 00 00	 call	 ?limit_radar_sweep@@YGXPAURADAR_PARAMS@@@Z ; limit_radar_sweep

; 788  : }

  000d7	5f		 pop	 edi
  000d8	5e		 pop	 esi
  000d9	5b		 pop	 ebx
  000da	8b e5		 mov	 esp, ebp
  000dc	5d		 pop	 ebp
  000dd	c3		 ret	 0
?dec_air_radar_scan_arc_size@@YGXXZ ENDP		; dec_air_radar_scan_arc_size
_TEXT	ENDS
; Function compile flags: /Odtp /ZI
; File c:\users\nhv90\projects\eech\aphavoc\source\gunships\avionics\havoc\ha_radar.c
;	COMDAT ?fast_inc_air_radar_scan_arc_size@@YGXXZ
_TEXT	SEGMENT
?fast_inc_air_radar_scan_arc_size@@YGXXZ PROC		; fast_inc_air_radar_scan_arc_size, COMDAT

; 752  : {

  00000	55		 push	 ebp
  00001	8b ec		 mov	 ebp, esp
  00003	83 ec 40	 sub	 esp, 64			; 00000040H
  00006	53		 push	 ebx
  00007	56		 push	 esi
  00008	57		 push	 edi

; 753  : 	air_radar.scan_arc_size = HAVOC_RADAR_SCAN_ARC_SIZE_360;

  00009	f3 0f 10 05 00
	00 00 00	 movss	 xmm0, DWORD PTR __real@40c90fdb
  00011	f3 0f 11 05 08
	00 00 00	 movss	 DWORD PTR ?air_radar@@3URADAR_PARAMS@@A+8, xmm0

; 754  : 
; 755  : 	air_radar.sweep_direction = RADAR_SWEEP_CW;

  00019	f3 0f 10 05 00
	00 00 00	 movss	 xmm0, DWORD PTR __real@3f800000
  00021	f3 0f 11 05 14
	00 00 00	 movss	 DWORD PTR ?air_radar@@3URADAR_PARAMS@@A+20, xmm0

; 756  : 
; 757  : 	limit_radar_sweep (&air_radar);

  00029	68 00 00 00 00	 push	 OFFSET ?air_radar@@3URADAR_PARAMS@@A ; air_radar
  0002e	e8 00 00 00 00	 call	 ?limit_radar_sweep@@YGXPAURADAR_PARAMS@@@Z ; limit_radar_sweep

; 758  : }

  00033	5f		 pop	 edi
  00034	5e		 pop	 esi
  00035	5b		 pop	 ebx
  00036	8b e5		 mov	 esp, ebp
  00038	5d		 pop	 ebp
  00039	c3		 ret	 0
?fast_inc_air_radar_scan_arc_size@@YGXXZ ENDP		; fast_inc_air_radar_scan_arc_size
_TEXT	ENDS
; Function compile flags: /Odtp /ZI
; File c:\users\nhv90\projects\eech\aphavoc\source\gunships\avionics\havoc\ha_radar.c
;	COMDAT ?inc_air_radar_scan_arc_size@@YGXXZ
_TEXT	SEGMENT
?inc_air_radar_scan_arc_size@@YGXXZ PROC		; inc_air_radar_scan_arc_size, COMDAT

; 720  : {

  00000	55		 push	 ebp
  00001	8b ec		 mov	 ebp, esp
  00003	83 ec 40	 sub	 esp, 64			; 00000040H
  00006	53		 push	 ebx
  00007	56		 push	 esi
  00008	57		 push	 edi

; 721  : 	if (air_radar.scan_arc_size == HAVOC_RADAR_SCAN_ARC_SIZE_30)

  00009	f3 0f 10 05 08
	00 00 00	 movss	 xmm0, DWORD PTR ?air_radar@@3URADAR_PARAMS@@A+8
  00011	0f 2e 05 00 00
	00 00		 ucomiss xmm0, DWORD PTR __real@3f060a92
  00018	9f		 lahf
  00019	f6 c4 44	 test	 ah, 68			; 00000044H
  0001c	7a 15		 jp	 SHORT $LN2@inc_air_ra

; 722  : 	{
; 723  : 		air_radar.scan_arc_size = HAVOC_RADAR_SCAN_ARC_SIZE_45;

  0001e	f3 0f 10 05 00
	00 00 00	 movss	 xmm0, DWORD PTR __real@3f490fdb
  00026	f3 0f 11 05 08
	00 00 00	 movss	 DWORD PTR ?air_radar@@3URADAR_PARAMS@@A+8, xmm0
  0002e	e9 ad 00 00 00	 jmp	 $LN10@inc_air_ra
$LN2@inc_air_ra:

; 724  : 	}
; 725  : 	else if (air_radar.scan_arc_size == HAVOC_RADAR_SCAN_ARC_SIZE_45)

  00033	f3 0f 10 05 08
	00 00 00	 movss	 xmm0, DWORD PTR ?air_radar@@3URADAR_PARAMS@@A+8
  0003b	0f 2e 05 00 00
	00 00		 ucomiss xmm0, DWORD PTR __real@3f490fdb
  00042	9f		 lahf
  00043	f6 c4 44	 test	 ah, 68			; 00000044H
  00046	7a 15		 jp	 SHORT $LN4@inc_air_ra

; 726  : 	{
; 727  : 		air_radar.scan_arc_size = HAVOC_RADAR_SCAN_ARC_SIZE_60;

  00048	f3 0f 10 05 00
	00 00 00	 movss	 xmm0, DWORD PTR __real@3f860a92
  00050	f3 0f 11 05 08
	00 00 00	 movss	 DWORD PTR ?air_radar@@3URADAR_PARAMS@@A+8, xmm0
  00058	e9 83 00 00 00	 jmp	 $LN10@inc_air_ra
$LN4@inc_air_ra:

; 728  : 	}
; 729  : 	else if (air_radar.scan_arc_size == HAVOC_RADAR_SCAN_ARC_SIZE_60)

  0005d	f3 0f 10 05 08
	00 00 00	 movss	 xmm0, DWORD PTR ?air_radar@@3URADAR_PARAMS@@A+8
  00065	0f 2e 05 00 00
	00 00		 ucomiss xmm0, DWORD PTR __real@3f860a92
  0006c	9f		 lahf
  0006d	f6 c4 44	 test	 ah, 68			; 00000044H
  00070	7a 12		 jp	 SHORT $LN6@inc_air_ra

; 730  : 	{
; 731  : 		air_radar.scan_arc_size = HAVOC_RADAR_SCAN_ARC_SIZE_90;

  00072	f3 0f 10 05 00
	00 00 00	 movss	 xmm0, DWORD PTR __real@3fc90fdb
  0007a	f3 0f 11 05 08
	00 00 00	 movss	 DWORD PTR ?air_radar@@3URADAR_PARAMS@@A+8, xmm0
  00082	eb 5c		 jmp	 SHORT $LN10@inc_air_ra
$LN6@inc_air_ra:

; 732  : 	}
; 733  : 	else if (air_radar.scan_arc_size == HAVOC_RADAR_SCAN_ARC_SIZE_90)

  00084	f3 0f 10 05 08
	00 00 00	 movss	 xmm0, DWORD PTR ?air_radar@@3URADAR_PARAMS@@A+8
  0008c	0f 2e 05 00 00
	00 00		 ucomiss xmm0, DWORD PTR __real@3fc90fdb
  00093	9f		 lahf
  00094	f6 c4 44	 test	 ah, 68			; 00000044H
  00097	7a 12		 jp	 SHORT $LN8@inc_air_ra

; 734  : 	{
; 735  : 		air_radar.scan_arc_size = HAVOC_RADAR_SCAN_ARC_SIZE_180;

  00099	f3 0f 10 05 00
	00 00 00	 movss	 xmm0, DWORD PTR __real@40490fdb
  000a1	f3 0f 11 05 08
	00 00 00	 movss	 DWORD PTR ?air_radar@@3URADAR_PARAMS@@A+8, xmm0
  000a9	eb 35		 jmp	 SHORT $LN10@inc_air_ra
$LN8@inc_air_ra:

; 736  : 	}
; 737  : 	else if (air_radar.scan_arc_size == HAVOC_RADAR_SCAN_ARC_SIZE_180)

  000ab	f3 0f 10 05 08
	00 00 00	 movss	 xmm0, DWORD PTR ?air_radar@@3URADAR_PARAMS@@A+8
  000b3	0f 2e 05 00 00
	00 00		 ucomiss xmm0, DWORD PTR __real@40490fdb
  000ba	9f		 lahf
  000bb	f6 c4 44	 test	 ah, 68			; 00000044H
  000be	7a 20		 jp	 SHORT $LN10@inc_air_ra

; 738  : 	{
; 739  : 		air_radar.scan_arc_size = HAVOC_RADAR_SCAN_ARC_SIZE_360;

  000c0	f3 0f 10 05 00
	00 00 00	 movss	 xmm0, DWORD PTR __real@40c90fdb
  000c8	f3 0f 11 05 08
	00 00 00	 movss	 DWORD PTR ?air_radar@@3URADAR_PARAMS@@A+8, xmm0

; 740  : 
; 741  : 		air_radar.sweep_direction = RADAR_SWEEP_CW;

  000d0	f3 0f 10 05 00
	00 00 00	 movss	 xmm0, DWORD PTR __real@3f800000
  000d8	f3 0f 11 05 14
	00 00 00	 movss	 DWORD PTR ?air_radar@@3URADAR_PARAMS@@A+20, xmm0
$LN10@inc_air_ra:

; 742  : 	}
; 743  : 
; 744  : 	limit_radar_sweep (&air_radar);

  000e0	68 00 00 00 00	 push	 OFFSET ?air_radar@@3URADAR_PARAMS@@A ; air_radar
  000e5	e8 00 00 00 00	 call	 ?limit_radar_sweep@@YGXPAURADAR_PARAMS@@@Z ; limit_radar_sweep

; 745  : }

  000ea	5f		 pop	 edi
  000eb	5e		 pop	 esi
  000ec	5b		 pop	 ebx
  000ed	8b e5		 mov	 esp, ebp
  000ef	5d		 pop	 ebp
  000f0	c3		 ret	 0
?inc_air_radar_scan_arc_size@@YGXXZ ENDP		; inc_air_radar_scan_arc_size
_TEXT	ENDS
; Function compile flags: /Odtp /ZI
; File c:\users\nhv90\projects\eech\aphavoc\source\gunships\avionics\havoc\ha_radar.c
;	COMDAT ?fast_rotate_air_radar_scan_datum_right@@YGXXZ
_TEXT	SEGMENT
?fast_rotate_air_radar_scan_datum_right@@YGXXZ PROC	; fast_rotate_air_radar_scan_datum_right, COMDAT

; 702  : {

  00000	55		 push	 ebp
  00001	8b ec		 mov	 ebp, esp
  00003	83 ec 40	 sub	 esp, 64			; 00000040H
  00006	53		 push	 ebx
  00007	56		 push	 esi
  00008	57		 push	 edi

; 703  : 	air_radar.scan_datum += rad (90.0);

  00009	f3 0f 5a 05 04
	00 00 00	 cvtss2sd xmm0, DWORD PTR ?air_radar@@3URADAR_PARAMS@@A+4
  00011	f2 0f 58 05 00
	00 00 00	 addsd	 xmm0, QWORD PTR __real@3ff921fb51000000
  00019	f2 0f 5a c0	 cvtsd2ss xmm0, xmm0
  0001d	f3 0f 11 05 04
	00 00 00	 movss	 DWORD PTR ?air_radar@@3URADAR_PARAMS@@A+4, xmm0

; 704  : 
; 705  : 	air_radar.sweep_offset -= rad (90.0);

  00025	f3 0f 5a 05 0c
	00 00 00	 cvtss2sd xmm0, DWORD PTR ?air_radar@@3URADAR_PARAMS@@A+12
  0002d	f2 0f 5c 05 00
	00 00 00	 subsd	 xmm0, QWORD PTR __real@3ff921fb51000000
  00035	f2 0f 5a c0	 cvtsd2ss xmm0, xmm0
  00039	f3 0f 11 05 0c
	00 00 00	 movss	 DWORD PTR ?air_radar@@3URADAR_PARAMS@@A+12, xmm0

; 706  : 
; 707  : 	if (air_radar.scan_datum > rad (180.0))

  00041	f3 0f 5a 05 04
	00 00 00	 cvtss2sd xmm0, DWORD PTR ?air_radar@@3URADAR_PARAMS@@A+4
  00049	66 0f 2f 05 00
	00 00 00	 comisd	 xmm0, QWORD PTR __real@400921fb51000000
  00051	76 1c		 jbe	 SHORT $LN2@fast_rotat

; 708  : 	{
; 709  : 		air_radar.scan_datum -= rad (360.0);

  00053	f3 0f 5a 05 04
	00 00 00	 cvtss2sd xmm0, DWORD PTR ?air_radar@@3URADAR_PARAMS@@A+4
  0005b	f2 0f 5c 05 00
	00 00 00	 subsd	 xmm0, QWORD PTR __real@401921fb51000000
  00063	f2 0f 5a c0	 cvtsd2ss xmm0, xmm0
  00067	f3 0f 11 05 04
	00 00 00	 movss	 DWORD PTR ?air_radar@@3URADAR_PARAMS@@A+4, xmm0
$LN2@fast_rotat:

; 710  : 	}
; 711  : 
; 712  : 	limit_radar_sweep (&air_radar);

  0006f	68 00 00 00 00	 push	 OFFSET ?air_radar@@3URADAR_PARAMS@@A ; air_radar
  00074	e8 00 00 00 00	 call	 ?limit_radar_sweep@@YGXPAURADAR_PARAMS@@@Z ; limit_radar_sweep

; 713  : }

  00079	5f		 pop	 edi
  0007a	5e		 pop	 esi
  0007b	5b		 pop	 ebx
  0007c	8b e5		 mov	 esp, ebp
  0007e	5d		 pop	 ebp
  0007f	c3		 ret	 0
?fast_rotate_air_radar_scan_datum_right@@YGXXZ ENDP	; fast_rotate_air_radar_scan_datum_right
_TEXT	ENDS
; Function compile flags: /Odtp /ZI
; File c:\users\nhv90\projects\eech\aphavoc\source\gunships\avionics\havoc\ha_radar.c
;	COMDAT ?rotate_air_radar_scan_datum_right@@YGXXZ
_TEXT	SEGMENT
?rotate_air_radar_scan_datum_right@@YGXXZ PROC		; rotate_air_radar_scan_datum_right, COMDAT

; 684  : {

  00000	55		 push	 ebp
  00001	8b ec		 mov	 ebp, esp
  00003	83 ec 40	 sub	 esp, 64			; 00000040H
  00006	53		 push	 ebx
  00007	56		 push	 esi
  00008	57		 push	 edi

; 685  : 	air_radar.scan_datum += HAVOC_AIR_RADAR_SCAN_DATUM_ROTATE_STEP;

  00009	f3 0f 5a 05 04
	00 00 00	 cvtss2sd xmm0, DWORD PTR ?air_radar@@3URADAR_PARAMS@@A+4
  00011	f2 0f 58 05 00
	00 00 00	 addsd	 xmm0, QWORD PTR __real@3fd0c15240000000
  00019	f2 0f 5a c0	 cvtsd2ss xmm0, xmm0
  0001d	f3 0f 11 05 04
	00 00 00	 movss	 DWORD PTR ?air_radar@@3URADAR_PARAMS@@A+4, xmm0

; 686  : 
; 687  : 	air_radar.sweep_offset -= HAVOC_AIR_RADAR_SCAN_DATUM_ROTATE_STEP;

  00025	f3 0f 5a 05 0c
	00 00 00	 cvtss2sd xmm0, DWORD PTR ?air_radar@@3URADAR_PARAMS@@A+12
  0002d	f2 0f 5c 05 00
	00 00 00	 subsd	 xmm0, QWORD PTR __real@3fd0c15240000000
  00035	f2 0f 5a c0	 cvtsd2ss xmm0, xmm0
  00039	f3 0f 11 05 0c
	00 00 00	 movss	 DWORD PTR ?air_radar@@3URADAR_PARAMS@@A+12, xmm0

; 688  : 
; 689  : 	if (air_radar.scan_datum > rad (180.0))

  00041	f3 0f 5a 05 04
	00 00 00	 cvtss2sd xmm0, DWORD PTR ?air_radar@@3URADAR_PARAMS@@A+4
  00049	66 0f 2f 05 00
	00 00 00	 comisd	 xmm0, QWORD PTR __real@400921fb51000000
  00051	76 1c		 jbe	 SHORT $LN2@rotate_air

; 690  : 	{
; 691  : 		air_radar.scan_datum -= rad (360.0);

  00053	f3 0f 5a 05 04
	00 00 00	 cvtss2sd xmm0, DWORD PTR ?air_radar@@3URADAR_PARAMS@@A+4
  0005b	f2 0f 5c 05 00
	00 00 00	 subsd	 xmm0, QWORD PTR __real@401921fb51000000
  00063	f2 0f 5a c0	 cvtsd2ss xmm0, xmm0
  00067	f3 0f 11 05 04
	00 00 00	 movss	 DWORD PTR ?air_radar@@3URADAR_PARAMS@@A+4, xmm0
$LN2@rotate_air:

; 692  : 	}
; 693  : 
; 694  : 	limit_radar_sweep (&air_radar);

  0006f	68 00 00 00 00	 push	 OFFSET ?air_radar@@3URADAR_PARAMS@@A ; air_radar
  00074	e8 00 00 00 00	 call	 ?limit_radar_sweep@@YGXPAURADAR_PARAMS@@@Z ; limit_radar_sweep

; 695  : }

  00079	5f		 pop	 edi
  0007a	5e		 pop	 esi
  0007b	5b		 pop	 ebx
  0007c	8b e5		 mov	 esp, ebp
  0007e	5d		 pop	 ebp
  0007f	c3		 ret	 0
?rotate_air_radar_scan_datum_right@@YGXXZ ENDP		; rotate_air_radar_scan_datum_right
_TEXT	ENDS
; Function compile flags: /Odtp /ZI
; File c:\users\nhv90\projects\eech\aphavoc\source\gunships\avionics\havoc\ha_radar.c
;	COMDAT ?fast_rotate_air_radar_scan_datum_left@@YGXXZ
_TEXT	SEGMENT
?fast_rotate_air_radar_scan_datum_left@@YGXXZ PROC	; fast_rotate_air_radar_scan_datum_left, COMDAT

; 666  : {

  00000	55		 push	 ebp
  00001	8b ec		 mov	 ebp, esp
  00003	83 ec 40	 sub	 esp, 64			; 00000040H
  00006	53		 push	 ebx
  00007	56		 push	 esi
  00008	57		 push	 edi

; 667  : 	air_radar.scan_datum -= rad (90.0);

  00009	f3 0f 5a 05 04
	00 00 00	 cvtss2sd xmm0, DWORD PTR ?air_radar@@3URADAR_PARAMS@@A+4
  00011	f2 0f 5c 05 00
	00 00 00	 subsd	 xmm0, QWORD PTR __real@3ff921fb51000000
  00019	f2 0f 5a c0	 cvtsd2ss xmm0, xmm0
  0001d	f3 0f 11 05 04
	00 00 00	 movss	 DWORD PTR ?air_radar@@3URADAR_PARAMS@@A+4, xmm0

; 668  : 
; 669  : 	air_radar.sweep_offset += rad (90.0);

  00025	f3 0f 5a 05 0c
	00 00 00	 cvtss2sd xmm0, DWORD PTR ?air_radar@@3URADAR_PARAMS@@A+12
  0002d	f2 0f 58 05 00
	00 00 00	 addsd	 xmm0, QWORD PTR __real@3ff921fb51000000
  00035	f2 0f 5a c0	 cvtsd2ss xmm0, xmm0
  00039	f3 0f 11 05 0c
	00 00 00	 movss	 DWORD PTR ?air_radar@@3URADAR_PARAMS@@A+12, xmm0

; 670  : 
; 671  : 	if (air_radar.scan_datum < rad (-180.0))

  00041	f3 0f 5a 05 04
	00 00 00	 cvtss2sd xmm0, DWORD PTR ?air_radar@@3URADAR_PARAMS@@A+4
  00049	f2 0f 10 0d 00
	00 00 00	 movsd	 xmm1, QWORD PTR __real@c00921fb51000000
  00051	66 0f 2f c8	 comisd	 xmm1, xmm0
  00055	76 1c		 jbe	 SHORT $LN2@fast_rotat

; 672  : 	{
; 673  : 		air_radar.scan_datum += rad (360.0);

  00057	f3 0f 5a 05 04
	00 00 00	 cvtss2sd xmm0, DWORD PTR ?air_radar@@3URADAR_PARAMS@@A+4
  0005f	f2 0f 58 05 00
	00 00 00	 addsd	 xmm0, QWORD PTR __real@401921fb51000000
  00067	f2 0f 5a c0	 cvtsd2ss xmm0, xmm0
  0006b	f3 0f 11 05 04
	00 00 00	 movss	 DWORD PTR ?air_radar@@3URADAR_PARAMS@@A+4, xmm0
$LN2@fast_rotat:

; 674  : 	}
; 675  : 
; 676  : 	limit_radar_sweep (&air_radar);

  00073	68 00 00 00 00	 push	 OFFSET ?air_radar@@3URADAR_PARAMS@@A ; air_radar
  00078	e8 00 00 00 00	 call	 ?limit_radar_sweep@@YGXPAURADAR_PARAMS@@@Z ; limit_radar_sweep

; 677  : }

  0007d	5f		 pop	 edi
  0007e	5e		 pop	 esi
  0007f	5b		 pop	 ebx
  00080	8b e5		 mov	 esp, ebp
  00082	5d		 pop	 ebp
  00083	c3		 ret	 0
?fast_rotate_air_radar_scan_datum_left@@YGXXZ ENDP	; fast_rotate_air_radar_scan_datum_left
_TEXT	ENDS
; Function compile flags: /Odtp /ZI
; File c:\users\nhv90\projects\eech\aphavoc\source\gunships\avionics\havoc\ha_radar.c
;	COMDAT ?rotate_air_radar_scan_datum_left@@YGXXZ
_TEXT	SEGMENT
?rotate_air_radar_scan_datum_left@@YGXXZ PROC		; rotate_air_radar_scan_datum_left, COMDAT

; 648  : {

  00000	55		 push	 ebp
  00001	8b ec		 mov	 ebp, esp
  00003	83 ec 40	 sub	 esp, 64			; 00000040H
  00006	53		 push	 ebx
  00007	56		 push	 esi
  00008	57		 push	 edi

; 649  : 	air_radar.scan_datum -= HAVOC_AIR_RADAR_SCAN_DATUM_ROTATE_STEP;

  00009	f3 0f 5a 05 04
	00 00 00	 cvtss2sd xmm0, DWORD PTR ?air_radar@@3URADAR_PARAMS@@A+4
  00011	f2 0f 5c 05 00
	00 00 00	 subsd	 xmm0, QWORD PTR __real@3fd0c15240000000
  00019	f2 0f 5a c0	 cvtsd2ss xmm0, xmm0
  0001d	f3 0f 11 05 04
	00 00 00	 movss	 DWORD PTR ?air_radar@@3URADAR_PARAMS@@A+4, xmm0

; 650  : 
; 651  : 	air_radar.sweep_offset += HAVOC_AIR_RADAR_SCAN_DATUM_ROTATE_STEP;

  00025	f3 0f 5a 05 0c
	00 00 00	 cvtss2sd xmm0, DWORD PTR ?air_radar@@3URADAR_PARAMS@@A+12
  0002d	f2 0f 58 05 00
	00 00 00	 addsd	 xmm0, QWORD PTR __real@3fd0c15240000000
  00035	f2 0f 5a c0	 cvtsd2ss xmm0, xmm0
  00039	f3 0f 11 05 0c
	00 00 00	 movss	 DWORD PTR ?air_radar@@3URADAR_PARAMS@@A+12, xmm0

; 652  : 
; 653  : 	if (air_radar.scan_datum < rad (-180.0))

  00041	f3 0f 5a 05 04
	00 00 00	 cvtss2sd xmm0, DWORD PTR ?air_radar@@3URADAR_PARAMS@@A+4
  00049	f2 0f 10 0d 00
	00 00 00	 movsd	 xmm1, QWORD PTR __real@c00921fb51000000
  00051	66 0f 2f c8	 comisd	 xmm1, xmm0
  00055	76 1c		 jbe	 SHORT $LN2@rotate_air

; 654  : 	{
; 655  : 		air_radar.scan_datum += rad (360.0);

  00057	f3 0f 5a 05 04
	00 00 00	 cvtss2sd xmm0, DWORD PTR ?air_radar@@3URADAR_PARAMS@@A+4
  0005f	f2 0f 58 05 00
	00 00 00	 addsd	 xmm0, QWORD PTR __real@401921fb51000000
  00067	f2 0f 5a c0	 cvtsd2ss xmm0, xmm0
  0006b	f3 0f 11 05 04
	00 00 00	 movss	 DWORD PTR ?air_radar@@3URADAR_PARAMS@@A+4, xmm0
$LN2@rotate_air:

; 656  : 	}
; 657  : 
; 658  : 	limit_radar_sweep (&air_radar);

  00073	68 00 00 00 00	 push	 OFFSET ?air_radar@@3URADAR_PARAMS@@A ; air_radar
  00078	e8 00 00 00 00	 call	 ?limit_radar_sweep@@YGXPAURADAR_PARAMS@@@Z ; limit_radar_sweep

; 659  : }

  0007d	5f		 pop	 edi
  0007e	5e		 pop	 esi
  0007f	5b		 pop	 ebx
  00080	8b e5		 mov	 esp, ebp
  00082	5d		 pop	 ebp
  00083	c3		 ret	 0
?rotate_air_radar_scan_datum_left@@YGXXZ ENDP		; rotate_air_radar_scan_datum_left
_TEXT	ENDS
; Function compile flags: /Odtp /ZI
; File c:\users\nhv90\projects\eech\aphavoc\source\gunships\avionics\havoc\ha_radar.c
;	COMDAT ?select_previous_ground_radar_target@@YGXXZ
_TEXT	SEGMENT
?select_previous_ground_radar_target@@YGXXZ PROC	; select_previous_ground_radar_target, COMDAT

; 448  : {

  00000	55		 push	 ebp
  00001	8b ec		 mov	 ebp, esp
  00003	83 ec 40	 sub	 esp, 64			; 00000040H
  00006	53		 push	 ebx
  00007	56		 push	 esi
  00008	57		 push	 edi

; 449  : 	get_previous_ground_radar_target ();

  00009	e8 00 00 00 00	 call	 ?get_previous_ground_radar_target@@YGXXZ ; get_previous_ground_radar_target

; 450  : }

  0000e	5f		 pop	 edi
  0000f	5e		 pop	 esi
  00010	5b		 pop	 ebx
  00011	8b e5		 mov	 esp, ebp
  00013	5d		 pop	 ebp
  00014	c3		 ret	 0
?select_previous_ground_radar_target@@YGXXZ ENDP	; select_previous_ground_radar_target
_TEXT	ENDS
; Function compile flags: /Odtp /ZI
; File c:\users\nhv90\projects\eech\aphavoc\source\gunships\avionics\havoc\ha_radar.c
;	COMDAT ?select_next_ground_radar_target@@YGXXZ
_TEXT	SEGMENT
?select_next_ground_radar_target@@YGXXZ PROC		; select_next_ground_radar_target, COMDAT

; 439  : {

  00000	55		 push	 ebp
  00001	8b ec		 mov	 ebp, esp
  00003	83 ec 40	 sub	 esp, 64			; 00000040H
  00006	53		 push	 ebx
  00007	56		 push	 esi
  00008	57		 push	 edi

; 440  : 	get_next_ground_radar_target ();

  00009	e8 00 00 00 00	 call	 ?get_next_ground_radar_target@@YGXXZ ; get_next_ground_radar_target

; 441  : }

  0000e	5f		 pop	 edi
  0000f	5e		 pop	 esi
  00010	5b		 pop	 ebx
  00011	8b e5		 mov	 esp, ebp
  00013	5d		 pop	 ebp
  00014	c3		 ret	 0
?select_next_ground_radar_target@@YGXXZ ENDP		; select_next_ground_radar_target
_TEXT	ENDS
; Function compile flags: /Odtp /ZI
; File c:\users\nhv90\projects\eech\aphavoc\source\gunships\avionics\havoc\ha_radar.c
;	COMDAT ?fast_dec_ground_radar_target_priority@@YGXXZ
_TEXT	SEGMENT
?fast_dec_ground_radar_target_priority@@YGXXZ PROC	; fast_dec_ground_radar_target_priority, COMDAT

; 430  : {

  00000	55		 push	 ebp
  00001	8b ec		 mov	 ebp, esp
  00003	83 ec 40	 sub	 esp, 64			; 00000040H
  00006	53		 push	 ebx
  00007	56		 push	 esi
  00008	57		 push	 edi

; 431  : 	ground_radar.target_priority_type = TARGET_PRIORITY_UNKNOWN;

  00009	c7 05 2c 00 00
	00 00 00 00 00	 mov	 DWORD PTR ?ground_radar@@3URADAR_PARAMS@@A+44, 0

; 432  : }

  00013	5f		 pop	 edi
  00014	5e		 pop	 esi
  00015	5b		 pop	 ebx
  00016	8b e5		 mov	 esp, ebp
  00018	5d		 pop	 ebp
  00019	c3		 ret	 0
?fast_dec_ground_radar_target_priority@@YGXXZ ENDP	; fast_dec_ground_radar_target_priority
_TEXT	ENDS
; Function compile flags: /Odtp /ZI
; File c:\users\nhv90\projects\eech\aphavoc\source\gunships\avionics\havoc\ha_radar.c
;	COMDAT ?dec_ground_radar_target_priority@@YGXXZ
_TEXT	SEGMENT
?dec_ground_radar_target_priority@@YGXXZ PROC		; dec_ground_radar_target_priority, COMDAT

; 404  : {

  00000	55		 push	 ebp
  00001	8b ec		 mov	 ebp, esp
  00003	83 ec 40	 sub	 esp, 64			; 00000040H
  00006	53		 push	 ebx
  00007	56		 push	 esi
  00008	57		 push	 edi

; 405  : 	if (ground_radar.target_priority_type == TARGET_PRIORITY_HIGH)

  00009	83 3d 2c 00 00
	00 03		 cmp	 DWORD PTR ?ground_radar@@3URADAR_PARAMS@@A+44, 3
  00010	75 0c		 jne	 SHORT $LN2@dec_ground

; 406  : 	{
; 407  : 		ground_radar.target_priority_type = TARGET_PRIORITY_MEDIUM;

  00012	c7 05 2c 00 00
	00 02 00 00 00	 mov	 DWORD PTR ?ground_radar@@3URADAR_PARAMS@@A+44, 2
  0001c	eb 3d		 jmp	 SHORT $LN1@dec_ground
$LN2@dec_ground:

; 408  : 	}
; 409  : 	else if (ground_radar.target_priority_type == TARGET_PRIORITY_MEDIUM)

  0001e	83 3d 2c 00 00
	00 02		 cmp	 DWORD PTR ?ground_radar@@3URADAR_PARAMS@@A+44, 2
  00025	75 0c		 jne	 SHORT $LN4@dec_ground

; 410  : 	{
; 411  : 		ground_radar.target_priority_type = TARGET_PRIORITY_LOW;

  00027	c7 05 2c 00 00
	00 01 00 00 00	 mov	 DWORD PTR ?ground_radar@@3URADAR_PARAMS@@A+44, 1
  00031	eb 28		 jmp	 SHORT $LN1@dec_ground
$LN4@dec_ground:

; 412  : 	}
; 413  : 	else if (ground_radar.target_priority_type == TARGET_PRIORITY_LOW)

  00033	83 3d 2c 00 00
	00 01		 cmp	 DWORD PTR ?ground_radar@@3URADAR_PARAMS@@A+44, 1
  0003a	75 0c		 jne	 SHORT $LN6@dec_ground

; 414  : 	{
; 415  : 		ground_radar.target_priority_type = TARGET_PRIORITY_UNKNOWN;

  0003c	c7 05 2c 00 00
	00 00 00 00 00	 mov	 DWORD PTR ?ground_radar@@3URADAR_PARAMS@@A+44, 0
  00046	eb 13		 jmp	 SHORT $LN1@dec_ground
$LN6@dec_ground:

; 416  : 	}
; 417  : 	// Jabberwock 031107 Designated targets
; 418  : 	else if (ground_radar.target_priority_type == TARGET_PRIORITY_DESIGNATED)

  00048	83 3d 2c 00 00
	00 04		 cmp	 DWORD PTR ?ground_radar@@3URADAR_PARAMS@@A+44, 4
  0004f	75 0a		 jne	 SHORT $LN1@dec_ground

; 419  : 	{
; 420  : 		ground_radar.target_priority_type = TARGET_PRIORITY_HIGH;

  00051	c7 05 2c 00 00
	00 03 00 00 00	 mov	 DWORD PTR ?ground_radar@@3URADAR_PARAMS@@A+44, 3
$LN1@dec_ground:

; 421  : 	}
; 422  : 	// Jabberwock 031107 ends	
; 423  : }

  0005b	5f		 pop	 edi
  0005c	5e		 pop	 esi
  0005d	5b		 pop	 ebx
  0005e	8b e5		 mov	 esp, ebp
  00060	5d		 pop	 ebp
  00061	c3		 ret	 0
?dec_ground_radar_target_priority@@YGXXZ ENDP		; dec_ground_radar_target_priority
_TEXT	ENDS
; Function compile flags: /Odtp /ZI
; File c:\users\nhv90\projects\eech\aphavoc\source\gunships\avionics\havoc\ha_radar.c
;	COMDAT ?fast_inc_ground_radar_target_priority@@YGXXZ
_TEXT	SEGMENT
?fast_inc_ground_radar_target_priority@@YGXXZ PROC	; fast_inc_ground_radar_target_priority, COMDAT

; 395  : {

  00000	55		 push	 ebp
  00001	8b ec		 mov	 ebp, esp
  00003	83 ec 40	 sub	 esp, 64			; 00000040H
  00006	53		 push	 ebx
  00007	56		 push	 esi
  00008	57		 push	 edi

; 396  : 	ground_radar.target_priority_type = TARGET_PRIORITY_HIGH;

  00009	c7 05 2c 00 00
	00 03 00 00 00	 mov	 DWORD PTR ?ground_radar@@3URADAR_PARAMS@@A+44, 3

; 397  : }

  00013	5f		 pop	 edi
  00014	5e		 pop	 esi
  00015	5b		 pop	 ebx
  00016	8b e5		 mov	 esp, ebp
  00018	5d		 pop	 ebp
  00019	c3		 ret	 0
?fast_inc_ground_radar_target_priority@@YGXXZ ENDP	; fast_inc_ground_radar_target_priority
_TEXT	ENDS
; Function compile flags: /Odtp /ZI
; File c:\users\nhv90\projects\eech\aphavoc\source\gunships\avionics\havoc\ha_radar.c
;	COMDAT ?inc_ground_radar_target_priority@@YGXXZ
_TEXT	SEGMENT
?inc_ground_radar_target_priority@@YGXXZ PROC		; inc_ground_radar_target_priority, COMDAT

; 369  : {

  00000	55		 push	 ebp
  00001	8b ec		 mov	 ebp, esp
  00003	83 ec 40	 sub	 esp, 64			; 00000040H
  00006	53		 push	 ebx
  00007	56		 push	 esi
  00008	57		 push	 edi

; 370  : 	if (ground_radar.target_priority_type == TARGET_PRIORITY_UNKNOWN)

  00009	83 3d 2c 00 00
	00 00		 cmp	 DWORD PTR ?ground_radar@@3URADAR_PARAMS@@A+44, 0
  00010	75 0c		 jne	 SHORT $LN2@inc_ground

; 371  : 	{
; 372  : 		ground_radar.target_priority_type = TARGET_PRIORITY_LOW;

  00012	c7 05 2c 00 00
	00 01 00 00 00	 mov	 DWORD PTR ?ground_radar@@3URADAR_PARAMS@@A+44, 1
  0001c	eb 46		 jmp	 SHORT $LN1@inc_ground
$LN2@inc_ground:

; 373  : 	}
; 374  : 	else if (ground_radar.target_priority_type == TARGET_PRIORITY_LOW)

  0001e	83 3d 2c 00 00
	00 01		 cmp	 DWORD PTR ?ground_radar@@3URADAR_PARAMS@@A+44, 1
  00025	75 0c		 jne	 SHORT $LN4@inc_ground

; 375  : 	{
; 376  : 		ground_radar.target_priority_type = TARGET_PRIORITY_MEDIUM;

  00027	c7 05 2c 00 00
	00 02 00 00 00	 mov	 DWORD PTR ?ground_radar@@3URADAR_PARAMS@@A+44, 2
  00031	eb 31		 jmp	 SHORT $LN1@inc_ground
$LN4@inc_ground:

; 377  : 	}
; 378  : 	else if (ground_radar.target_priority_type == TARGET_PRIORITY_MEDIUM)

  00033	83 3d 2c 00 00
	00 02		 cmp	 DWORD PTR ?ground_radar@@3URADAR_PARAMS@@A+44, 2
  0003a	75 0c		 jne	 SHORT $LN6@inc_ground

; 379  : 	{
; 380  : 		ground_radar.target_priority_type = TARGET_PRIORITY_HIGH;

  0003c	c7 05 2c 00 00
	00 03 00 00 00	 mov	 DWORD PTR ?ground_radar@@3URADAR_PARAMS@@A+44, 3
  00046	eb 1c		 jmp	 SHORT $LN1@inc_ground
$LN6@inc_ground:

; 381  : 	}
; 382  : 	// Jabberwock 031107 Designated targets
; 383  : 	else if ((ground_radar.target_priority_type == TARGET_PRIORITY_HIGH) && command_line_designated_targets)

  00048	83 3d 2c 00 00
	00 03		 cmp	 DWORD PTR ?ground_radar@@3URADAR_PARAMS@@A+44, 3
  0004f	75 13		 jne	 SHORT $LN1@inc_ground
  00051	83 3d 00 00 00
	00 00		 cmp	 DWORD PTR ?command_line_designated_targets@@3HA, 0 ; command_line_designated_targets
  00058	74 0a		 je	 SHORT $LN1@inc_ground

; 384  : 	{
; 385  : 		ground_radar.target_priority_type = TARGET_PRIORITY_DESIGNATED;

  0005a	c7 05 2c 00 00
	00 04 00 00 00	 mov	 DWORD PTR ?ground_radar@@3URADAR_PARAMS@@A+44, 4
$LN1@inc_ground:

; 386  : 	}
; 387  : 	// Jabberwock 031107 ends	
; 388  : }

  00064	5f		 pop	 edi
  00065	5e		 pop	 esi
  00066	5b		 pop	 ebx
  00067	8b e5		 mov	 esp, ebp
  00069	5d		 pop	 ebp
  0006a	c3		 ret	 0
?inc_ground_radar_target_priority@@YGXXZ ENDP		; inc_ground_radar_target_priority
_TEXT	ENDS
; Function compile flags: /Odtp /ZI
; File c:\users\nhv90\projects\eech\aphavoc\source\gunships\avionics\havoc\ha_radar.c
;	COMDAT ?fast_dec_ground_radar_scan_range@@YGXXZ
_TEXT	SEGMENT
?fast_dec_ground_radar_scan_range@@YGXXZ PROC		; fast_dec_ground_radar_scan_range, COMDAT

; 360  : {

  00000	55		 push	 ebp
  00001	8b ec		 mov	 ebp, esp
  00003	83 ec 40	 sub	 esp, 64			; 00000040H
  00006	53		 push	 ebx
  00007	56		 push	 esi
  00008	57		 push	 edi

; 361  : 	ground_radar.scan_range = HAVOC_RADAR_SCAN_RANGE_1000;

  00009	f3 0f 10 05 00
	00 00 00	 movss	 xmm0, DWORD PTR ?HAVOC_RADAR_SCAN_RANGE_1000@@3MA
  00011	f3 0f 11 05 00
	00 00 00	 movss	 DWORD PTR ?ground_radar@@3URADAR_PARAMS@@A, xmm0

; 362  : }

  00019	5f		 pop	 edi
  0001a	5e		 pop	 esi
  0001b	5b		 pop	 ebx
  0001c	8b e5		 mov	 esp, ebp
  0001e	5d		 pop	 ebp
  0001f	c3		 ret	 0
?fast_dec_ground_radar_scan_range@@YGXXZ ENDP		; fast_dec_ground_radar_scan_range
_TEXT	ENDS
; Function compile flags: /Odtp /ZI
; File c:\users\nhv90\projects\eech\aphavoc\source\gunships\avionics\havoc\ha_radar.c
;	COMDAT ?dec_ground_radar_scan_range@@YGXXZ
_TEXT	SEGMENT
?dec_ground_radar_scan_range@@YGXXZ PROC		; dec_ground_radar_scan_range, COMDAT

; 340  : {

  00000	55		 push	 ebp
  00001	8b ec		 mov	 ebp, esp
  00003	83 ec 40	 sub	 esp, 64			; 00000040H
  00006	53		 push	 ebx
  00007	56		 push	 esi
  00008	57		 push	 edi

; 341  : 	if (ground_radar.scan_range == HAVOC_RADAR_SCAN_RANGE_6000)

  00009	f3 0f 10 05 00
	00 00 00	 movss	 xmm0, DWORD PTR ?ground_radar@@3URADAR_PARAMS@@A
  00011	0f 2e 05 00 00
	00 00		 ucomiss xmm0, DWORD PTR ?HAVOC_RADAR_SCAN_RANGE_6000@@3MA
  00018	9f		 lahf
  00019	f6 c4 44	 test	 ah, 68			; 00000044H
  0001c	7a 12		 jp	 SHORT $LN2@dec_ground

; 342  : 	{
; 343  : 		ground_radar.scan_range = HAVOC_RADAR_SCAN_RANGE_4000;

  0001e	f3 0f 10 05 00
	00 00 00	 movss	 xmm0, DWORD PTR ?HAVOC_RADAR_SCAN_RANGE_4000@@3MA
  00026	f3 0f 11 05 00
	00 00 00	 movss	 DWORD PTR ?ground_radar@@3URADAR_PARAMS@@A, xmm0
  0002e	eb 4c		 jmp	 SHORT $LN6@dec_ground
$LN2@dec_ground:

; 344  : 	}
; 345  : 	else if (ground_radar.scan_range == HAVOC_RADAR_SCAN_RANGE_4000)

  00030	f3 0f 10 05 00
	00 00 00	 movss	 xmm0, DWORD PTR ?ground_radar@@3URADAR_PARAMS@@A
  00038	0f 2e 05 00 00
	00 00		 ucomiss xmm0, DWORD PTR ?HAVOC_RADAR_SCAN_RANGE_4000@@3MA
  0003f	9f		 lahf
  00040	f6 c4 44	 test	 ah, 68			; 00000044H
  00043	7a 12		 jp	 SHORT $LN4@dec_ground

; 346  : 	{
; 347  : 		ground_radar.scan_range = HAVOC_RADAR_SCAN_RANGE_2000;

  00045	f3 0f 10 05 00
	00 00 00	 movss	 xmm0, DWORD PTR ?HAVOC_RADAR_SCAN_RANGE_2000@@3MA
  0004d	f3 0f 11 05 00
	00 00 00	 movss	 DWORD PTR ?ground_radar@@3URADAR_PARAMS@@A, xmm0
  00055	eb 25		 jmp	 SHORT $LN6@dec_ground
$LN4@dec_ground:

; 348  : 	}
; 349  : 	else if (ground_radar.scan_range == HAVOC_RADAR_SCAN_RANGE_2000)

  00057	f3 0f 10 05 00
	00 00 00	 movss	 xmm0, DWORD PTR ?ground_radar@@3URADAR_PARAMS@@A
  0005f	0f 2e 05 00 00
	00 00		 ucomiss xmm0, DWORD PTR ?HAVOC_RADAR_SCAN_RANGE_2000@@3MA
  00066	9f		 lahf
  00067	f6 c4 44	 test	 ah, 68			; 00000044H
  0006a	7a 10		 jp	 SHORT $LN6@dec_ground

; 350  : 	{
; 351  : 		ground_radar.scan_range = HAVOC_RADAR_SCAN_RANGE_1000;

  0006c	f3 0f 10 05 00
	00 00 00	 movss	 xmm0, DWORD PTR ?HAVOC_RADAR_SCAN_RANGE_1000@@3MA
  00074	f3 0f 11 05 00
	00 00 00	 movss	 DWORD PTR ?ground_radar@@3URADAR_PARAMS@@A, xmm0
$LN6@dec_ground:

; 352  : 	}
; 353  : }

  0007c	5f		 pop	 edi
  0007d	5e		 pop	 esi
  0007e	5b		 pop	 ebx
  0007f	8b e5		 mov	 esp, ebp
  00081	5d		 pop	 ebp
  00082	c3		 ret	 0
?dec_ground_radar_scan_range@@YGXXZ ENDP		; dec_ground_radar_scan_range
_TEXT	ENDS
; Function compile flags: /Odtp /ZI
; File c:\users\nhv90\projects\eech\aphavoc\source\gunships\avionics\havoc\ha_radar.c
;	COMDAT ?fast_inc_ground_radar_scan_range@@YGXXZ
_TEXT	SEGMENT
?fast_inc_ground_radar_scan_range@@YGXXZ PROC		; fast_inc_ground_radar_scan_range, COMDAT

; 331  : {

  00000	55		 push	 ebp
  00001	8b ec		 mov	 ebp, esp
  00003	83 ec 40	 sub	 esp, 64			; 00000040H
  00006	53		 push	 ebx
  00007	56		 push	 esi
  00008	57		 push	 edi

; 332  : 	ground_radar.scan_range = HAVOC_RADAR_SCAN_RANGE_6000;

  00009	f3 0f 10 05 00
	00 00 00	 movss	 xmm0, DWORD PTR ?HAVOC_RADAR_SCAN_RANGE_6000@@3MA
  00011	f3 0f 11 05 00
	00 00 00	 movss	 DWORD PTR ?ground_radar@@3URADAR_PARAMS@@A, xmm0

; 333  : }

  00019	5f		 pop	 edi
  0001a	5e		 pop	 esi
  0001b	5b		 pop	 ebx
  0001c	8b e5		 mov	 esp, ebp
  0001e	5d		 pop	 ebp
  0001f	c3		 ret	 0
?fast_inc_ground_radar_scan_range@@YGXXZ ENDP		; fast_inc_ground_radar_scan_range
_TEXT	ENDS
; Function compile flags: /Odtp /ZI
; File c:\users\nhv90\projects\eech\aphavoc\source\gunships\avionics\havoc\ha_radar.c
;	COMDAT ?inc_ground_radar_scan_range@@YGXXZ
_TEXT	SEGMENT
?inc_ground_radar_scan_range@@YGXXZ PROC		; inc_ground_radar_scan_range, COMDAT

; 311  : {

  00000	55		 push	 ebp
  00001	8b ec		 mov	 ebp, esp
  00003	83 ec 40	 sub	 esp, 64			; 00000040H
  00006	53		 push	 ebx
  00007	56		 push	 esi
  00008	57		 push	 edi

; 312  : 	if (ground_radar.scan_range == HAVOC_RADAR_SCAN_RANGE_1000)

  00009	f3 0f 10 05 00
	00 00 00	 movss	 xmm0, DWORD PTR ?ground_radar@@3URADAR_PARAMS@@A
  00011	0f 2e 05 00 00
	00 00		 ucomiss xmm0, DWORD PTR ?HAVOC_RADAR_SCAN_RANGE_1000@@3MA
  00018	9f		 lahf
  00019	f6 c4 44	 test	 ah, 68			; 00000044H
  0001c	7a 12		 jp	 SHORT $LN2@inc_ground

; 313  : 	{
; 314  : 		ground_radar.scan_range = HAVOC_RADAR_SCAN_RANGE_2000;

  0001e	f3 0f 10 05 00
	00 00 00	 movss	 xmm0, DWORD PTR ?HAVOC_RADAR_SCAN_RANGE_2000@@3MA
  00026	f3 0f 11 05 00
	00 00 00	 movss	 DWORD PTR ?ground_radar@@3URADAR_PARAMS@@A, xmm0
  0002e	eb 4c		 jmp	 SHORT $LN6@inc_ground
$LN2@inc_ground:

; 315  : 	}
; 316  : 	else if (ground_radar.scan_range == HAVOC_RADAR_SCAN_RANGE_2000)

  00030	f3 0f 10 05 00
	00 00 00	 movss	 xmm0, DWORD PTR ?ground_radar@@3URADAR_PARAMS@@A
  00038	0f 2e 05 00 00
	00 00		 ucomiss xmm0, DWORD PTR ?HAVOC_RADAR_SCAN_RANGE_2000@@3MA
  0003f	9f		 lahf
  00040	f6 c4 44	 test	 ah, 68			; 00000044H
  00043	7a 12		 jp	 SHORT $LN4@inc_ground

; 317  : 	{
; 318  : 		ground_radar.scan_range = HAVOC_RADAR_SCAN_RANGE_4000;

  00045	f3 0f 10 05 00
	00 00 00	 movss	 xmm0, DWORD PTR ?HAVOC_RADAR_SCAN_RANGE_4000@@3MA
  0004d	f3 0f 11 05 00
	00 00 00	 movss	 DWORD PTR ?ground_radar@@3URADAR_PARAMS@@A, xmm0
  00055	eb 25		 jmp	 SHORT $LN6@inc_ground
$LN4@inc_ground:

; 319  : 	}
; 320  : 	else if (ground_radar.scan_range == HAVOC_RADAR_SCAN_RANGE_4000)

  00057	f3 0f 10 05 00
	00 00 00	 movss	 xmm0, DWORD PTR ?ground_radar@@3URADAR_PARAMS@@A
  0005f	0f 2e 05 00 00
	00 00		 ucomiss xmm0, DWORD PTR ?HAVOC_RADAR_SCAN_RANGE_4000@@3MA
  00066	9f		 lahf
  00067	f6 c4 44	 test	 ah, 68			; 00000044H
  0006a	7a 10		 jp	 SHORT $LN6@inc_ground

; 321  : 	{
; 322  : 		ground_radar.scan_range = HAVOC_RADAR_SCAN_RANGE_6000;

  0006c	f3 0f 10 05 00
	00 00 00	 movss	 xmm0, DWORD PTR ?HAVOC_RADAR_SCAN_RANGE_6000@@3MA
  00074	f3 0f 11 05 00
	00 00 00	 movss	 DWORD PTR ?ground_radar@@3URADAR_PARAMS@@A, xmm0
$LN6@inc_ground:

; 323  : 	}
; 324  : }

  0007c	5f		 pop	 edi
  0007d	5e		 pop	 esi
  0007e	5b		 pop	 ebx
  0007f	8b e5		 mov	 esp, ebp
  00081	5d		 pop	 ebp
  00082	c3		 ret	 0
?inc_ground_radar_scan_range@@YGXXZ ENDP		; inc_ground_radar_scan_range
_TEXT	ENDS
; Function compile flags: /Odtp /ZI
; File c:\users\nhv90\projects\eech\aphavoc\source\gunships\avionics\havoc\ha_radar.c
;	COMDAT ?fast_dec_ground_radar_scan_arc_size@@YGXXZ
_TEXT	SEGMENT
?fast_dec_ground_radar_scan_arc_size@@YGXXZ PROC	; fast_dec_ground_radar_scan_arc_size, COMDAT

; 300  : {

  00000	55		 push	 ebp
  00001	8b ec		 mov	 ebp, esp
  00003	83 ec 40	 sub	 esp, 64			; 00000040H
  00006	53		 push	 ebx
  00007	56		 push	 esi
  00008	57		 push	 edi

; 301  : 	ground_radar.scan_arc_size = HAVOC_RADAR_SCAN_ARC_SIZE_15;

  00009	f3 0f 10 05 00
	00 00 00	 movss	 xmm0, DWORD PTR __real@3e860a92
  00011	f3 0f 11 05 08
	00 00 00	 movss	 DWORD PTR ?ground_radar@@3URADAR_PARAMS@@A+8, xmm0

; 302  : 
; 303  : 	limit_radar_sweep (&ground_radar);

  00019	68 00 00 00 00	 push	 OFFSET ?ground_radar@@3URADAR_PARAMS@@A ; ground_radar
  0001e	e8 00 00 00 00	 call	 ?limit_radar_sweep@@YGXPAURADAR_PARAMS@@@Z ; limit_radar_sweep

; 304  : }

  00023	5f		 pop	 edi
  00024	5e		 pop	 esi
  00025	5b		 pop	 ebx
  00026	8b e5		 mov	 esp, ebp
  00028	5d		 pop	 ebp
  00029	c3		 ret	 0
?fast_dec_ground_radar_scan_arc_size@@YGXXZ ENDP	; fast_dec_ground_radar_scan_arc_size
_TEXT	ENDS
; Function compile flags: /Odtp /ZI
; File c:\users\nhv90\projects\eech\aphavoc\source\gunships\avionics\havoc\ha_radar.c
;	COMDAT ?dec_ground_radar_scan_arc_size@@YGXXZ
_TEXT	SEGMENT
?dec_ground_radar_scan_arc_size@@YGXXZ PROC		; dec_ground_radar_scan_arc_size, COMDAT

; 274  : {

  00000	55		 push	 ebp
  00001	8b ec		 mov	 ebp, esp
  00003	83 ec 40	 sub	 esp, 64			; 00000040H
  00006	53		 push	 ebx
  00007	56		 push	 esi
  00008	57		 push	 edi

; 275  : 	if (ground_radar.scan_arc_size == HAVOC_RADAR_SCAN_ARC_SIZE_90)

  00009	f3 0f 10 05 08
	00 00 00	 movss	 xmm0, DWORD PTR ?ground_radar@@3URADAR_PARAMS@@A+8
  00011	0f 2e 05 00 00
	00 00		 ucomiss xmm0, DWORD PTR __real@3fc90fdb
  00018	9f		 lahf
  00019	f6 c4 44	 test	 ah, 68			; 00000044H
  0001c	7a 12		 jp	 SHORT $LN2@dec_ground

; 276  : 	{
; 277  : 		ground_radar.scan_arc_size = HAVOC_RADAR_SCAN_ARC_SIZE_60;

  0001e	f3 0f 10 05 00
	00 00 00	 movss	 xmm0, DWORD PTR __real@3f860a92
  00026	f3 0f 11 05 08
	00 00 00	 movss	 DWORD PTR ?ground_radar@@3URADAR_PARAMS@@A+8, xmm0
  0002e	eb 73		 jmp	 SHORT $LN8@dec_ground
$LN2@dec_ground:

; 278  : 	}
; 279  : 	else if (ground_radar.scan_arc_size == HAVOC_RADAR_SCAN_ARC_SIZE_60)

  00030	f3 0f 10 05 08
	00 00 00	 movss	 xmm0, DWORD PTR ?ground_radar@@3URADAR_PARAMS@@A+8
  00038	0f 2e 05 00 00
	00 00		 ucomiss xmm0, DWORD PTR __real@3f860a92
  0003f	9f		 lahf
  00040	f6 c4 44	 test	 ah, 68			; 00000044H
  00043	7a 12		 jp	 SHORT $LN4@dec_ground

; 280  : 	{
; 281  : 		ground_radar.scan_arc_size = HAVOC_RADAR_SCAN_ARC_SIZE_45;

  00045	f3 0f 10 05 00
	00 00 00	 movss	 xmm0, DWORD PTR __real@3f490fdb
  0004d	f3 0f 11 05 08
	00 00 00	 movss	 DWORD PTR ?ground_radar@@3URADAR_PARAMS@@A+8, xmm0
  00055	eb 4c		 jmp	 SHORT $LN8@dec_ground
$LN4@dec_ground:

; 282  : 	}
; 283  : 	else if (ground_radar.scan_arc_size == HAVOC_RADAR_SCAN_ARC_SIZE_45)

  00057	f3 0f 10 05 08
	00 00 00	 movss	 xmm0, DWORD PTR ?ground_radar@@3URADAR_PARAMS@@A+8
  0005f	0f 2e 05 00 00
	00 00		 ucomiss xmm0, DWORD PTR __real@3f490fdb
  00066	9f		 lahf
  00067	f6 c4 44	 test	 ah, 68			; 00000044H
  0006a	7a 12		 jp	 SHORT $LN6@dec_ground

; 284  : 	{
; 285  : 		ground_radar.scan_arc_size = HAVOC_RADAR_SCAN_ARC_SIZE_30;

  0006c	f3 0f 10 05 00
	00 00 00	 movss	 xmm0, DWORD PTR __real@3f060a92
  00074	f3 0f 11 05 08
	00 00 00	 movss	 DWORD PTR ?ground_radar@@3URADAR_PARAMS@@A+8, xmm0
  0007c	eb 25		 jmp	 SHORT $LN8@dec_ground
$LN6@dec_ground:

; 286  : 	}
; 287  : 	else if (ground_radar.scan_arc_size == HAVOC_RADAR_SCAN_ARC_SIZE_30)

  0007e	f3 0f 10 05 08
	00 00 00	 movss	 xmm0, DWORD PTR ?ground_radar@@3URADAR_PARAMS@@A+8
  00086	0f 2e 05 00 00
	00 00		 ucomiss xmm0, DWORD PTR __real@3f060a92
  0008d	9f		 lahf
  0008e	f6 c4 44	 test	 ah, 68			; 00000044H
  00091	7a 10		 jp	 SHORT $LN8@dec_ground

; 288  : 	{
; 289  : 		ground_radar.scan_arc_size = HAVOC_RADAR_SCAN_ARC_SIZE_15;

  00093	f3 0f 10 05 00
	00 00 00	 movss	 xmm0, DWORD PTR __real@3e860a92
  0009b	f3 0f 11 05 08
	00 00 00	 movss	 DWORD PTR ?ground_radar@@3URADAR_PARAMS@@A+8, xmm0
$LN8@dec_ground:

; 290  : 	}
; 291  : 
; 292  : 	limit_radar_sweep (&ground_radar);

  000a3	68 00 00 00 00	 push	 OFFSET ?ground_radar@@3URADAR_PARAMS@@A ; ground_radar
  000a8	e8 00 00 00 00	 call	 ?limit_radar_sweep@@YGXPAURADAR_PARAMS@@@Z ; limit_radar_sweep

; 293  : }

  000ad	5f		 pop	 edi
  000ae	5e		 pop	 esi
  000af	5b		 pop	 ebx
  000b0	8b e5		 mov	 esp, ebp
  000b2	5d		 pop	 ebp
  000b3	c3		 ret	 0
?dec_ground_radar_scan_arc_size@@YGXXZ ENDP		; dec_ground_radar_scan_arc_size
_TEXT	ENDS
; Function compile flags: /Odtp /ZI
; File c:\users\nhv90\projects\eech\aphavoc\source\gunships\avionics\havoc\ha_radar.c
;	COMDAT ?fast_inc_ground_radar_scan_arc_size@@YGXXZ
_TEXT	SEGMENT
?fast_inc_ground_radar_scan_arc_size@@YGXXZ PROC	; fast_inc_ground_radar_scan_arc_size, COMDAT

; 254  : {

  00000	55		 push	 ebp
  00001	8b ec		 mov	 ebp, esp
  00003	83 ec 40	 sub	 esp, 64			; 00000040H
  00006	53		 push	 ebx
  00007	56		 push	 esi
  00008	57		 push	 edi

; 255  : 	ground_radar.scan_arc_size = HAVOC_RADAR_SCAN_ARC_SIZE_90;

  00009	f3 0f 10 05 00
	00 00 00	 movss	 xmm0, DWORD PTR __real@3fc90fdb
  00011	f3 0f 11 05 08
	00 00 00	 movss	 DWORD PTR ?ground_radar@@3URADAR_PARAMS@@A+8, xmm0

; 256  : 
; 257  : 	if ((ground_radar.scan_datum - (ground_radar.scan_arc_size * 0.5)) < -HAVOC_RADAR_SCAN_ARC_SIZE_45)

  00019	f3 0f 5a 05 04
	00 00 00	 cvtss2sd xmm0, DWORD PTR ?ground_radar@@3URADAR_PARAMS@@A+4
  00021	f3 0f 5a 0d 08
	00 00 00	 cvtss2sd xmm1, DWORD PTR ?ground_radar@@3URADAR_PARAMS@@A+8
  00029	f2 0f 59 0d 00
	00 00 00	 mulsd	 xmm1, QWORD PTR __real@3fe0000000000000
  00031	f2 0f 5c c1	 subsd	 xmm0, xmm1
  00035	f2 0f 10 0d 00
	00 00 00	 movsd	 xmm1, QWORD PTR __real@bfe921fb60000000
  0003d	66 0f 2f c8	 comisd	 xmm1, xmm0
  00041	76 26		 jbe	 SHORT $LN2@fast_inc_g

; 258  : 	{
; 259  : 		ground_radar.scan_datum = -HAVOC_RADAR_SCAN_ARC_SIZE_45 + (ground_radar.scan_arc_size * 0.5);

  00043	f3 0f 5a 05 08
	00 00 00	 cvtss2sd xmm0, DWORD PTR ?ground_radar@@3URADAR_PARAMS@@A+8
  0004b	f2 0f 59 05 00
	00 00 00	 mulsd	 xmm0, QWORD PTR __real@3fe0000000000000
  00053	f2 0f 58 05 00
	00 00 00	 addsd	 xmm0, QWORD PTR __real@bfe921fb60000000
  0005b	f2 0f 5a c0	 cvtsd2ss xmm0, xmm0
  0005f	f3 0f 11 05 04
	00 00 00	 movss	 DWORD PTR ?ground_radar@@3URADAR_PARAMS@@A+4, xmm0
  00067	eb 4e		 jmp	 SHORT $LN4@fast_inc_g
$LN2@fast_inc_g:

; 260  : 	}
; 261  : 	else if ((ground_radar.scan_datum + (ground_radar.scan_arc_size * 0.5)) > HAVOC_RADAR_SCAN_ARC_SIZE_45)

  00069	f3 0f 5a 05 04
	00 00 00	 cvtss2sd xmm0, DWORD PTR ?ground_radar@@3URADAR_PARAMS@@A+4
  00071	f3 0f 5a 0d 08
	00 00 00	 cvtss2sd xmm1, DWORD PTR ?ground_radar@@3URADAR_PARAMS@@A+8
  00079	f2 0f 59 0d 00
	00 00 00	 mulsd	 xmm1, QWORD PTR __real@3fe0000000000000
  00081	f2 0f 58 c1	 addsd	 xmm0, xmm1
  00085	66 0f 2f 05 00
	00 00 00	 comisd	 xmm0, QWORD PTR __real@3fe921fb60000000
  0008d	76 28		 jbe	 SHORT $LN4@fast_inc_g

; 262  : 	{
; 263  : 		ground_radar.scan_datum = HAVOC_RADAR_SCAN_ARC_SIZE_45 - (ground_radar.scan_arc_size * 0.5);

  0008f	f3 0f 5a 05 08
	00 00 00	 cvtss2sd xmm0, DWORD PTR ?ground_radar@@3URADAR_PARAMS@@A+8
  00097	f2 0f 59 05 00
	00 00 00	 mulsd	 xmm0, QWORD PTR __real@3fe0000000000000
  0009f	f2 0f 10 0d 00
	00 00 00	 movsd	 xmm1, QWORD PTR __real@3fe921fb60000000
  000a7	f2 0f 5c c8	 subsd	 xmm1, xmm0
  000ab	f2 0f 5a c1	 cvtsd2ss xmm0, xmm1
  000af	f3 0f 11 05 04
	00 00 00	 movss	 DWORD PTR ?ground_radar@@3URADAR_PARAMS@@A+4, xmm0
$LN4@fast_inc_g:

; 264  : 	}
; 265  : 
; 266  : 	limit_radar_sweep (&ground_radar);

  000b7	68 00 00 00 00	 push	 OFFSET ?ground_radar@@3URADAR_PARAMS@@A ; ground_radar
  000bc	e8 00 00 00 00	 call	 ?limit_radar_sweep@@YGXPAURADAR_PARAMS@@@Z ; limit_radar_sweep

; 267  : }

  000c1	5f		 pop	 edi
  000c2	5e		 pop	 esi
  000c3	5b		 pop	 ebx
  000c4	8b e5		 mov	 esp, ebp
  000c6	5d		 pop	 ebp
  000c7	c3		 ret	 0
?fast_inc_ground_radar_scan_arc_size@@YGXXZ ENDP	; fast_inc_ground_radar_scan_arc_size
_TEXT	ENDS
; Function compile flags: /Odtp /ZI
; File c:\users\nhv90\projects\eech\aphavoc\source\gunships\avionics\havoc\ha_radar.c
;	COMDAT ?inc_ground_radar_scan_arc_size@@YGXXZ
_TEXT	SEGMENT
?inc_ground_radar_scan_arc_size@@YGXXZ PROC		; inc_ground_radar_scan_arc_size, COMDAT

; 219  : {

  00000	55		 push	 ebp
  00001	8b ec		 mov	 ebp, esp
  00003	83 ec 40	 sub	 esp, 64			; 00000040H
  00006	53		 push	 ebx
  00007	56		 push	 esi
  00008	57		 push	 edi

; 220  : 	if (ground_radar.scan_arc_size == HAVOC_RADAR_SCAN_ARC_SIZE_15)

  00009	f3 0f 10 05 08
	00 00 00	 movss	 xmm0, DWORD PTR ?ground_radar@@3URADAR_PARAMS@@A+8
  00011	0f 2e 05 00 00
	00 00		 ucomiss xmm0, DWORD PTR __real@3e860a92
  00018	9f		 lahf
  00019	f6 c4 44	 test	 ah, 68			; 00000044H
  0001c	7a 12		 jp	 SHORT $LN2@inc_ground

; 221  : 	{
; 222  : 		ground_radar.scan_arc_size = HAVOC_RADAR_SCAN_ARC_SIZE_30;

  0001e	f3 0f 10 05 00
	00 00 00	 movss	 xmm0, DWORD PTR __real@3f060a92
  00026	f3 0f 11 05 08
	00 00 00	 movss	 DWORD PTR ?ground_radar@@3URADAR_PARAMS@@A+8, xmm0
  0002e	eb 73		 jmp	 SHORT $LN8@inc_ground
$LN2@inc_ground:

; 223  : 	}
; 224  : 	else if (ground_radar.scan_arc_size == HAVOC_RADAR_SCAN_ARC_SIZE_30)

  00030	f3 0f 10 05 08
	00 00 00	 movss	 xmm0, DWORD PTR ?ground_radar@@3URADAR_PARAMS@@A+8
  00038	0f 2e 05 00 00
	00 00		 ucomiss xmm0, DWORD PTR __real@3f060a92
  0003f	9f		 lahf
  00040	f6 c4 44	 test	 ah, 68			; 00000044H
  00043	7a 12		 jp	 SHORT $LN4@inc_ground

; 225  : 	{
; 226  : 		ground_radar.scan_arc_size = HAVOC_RADAR_SCAN_ARC_SIZE_45;

  00045	f3 0f 10 05 00
	00 00 00	 movss	 xmm0, DWORD PTR __real@3f490fdb
  0004d	f3 0f 11 05 08
	00 00 00	 movss	 DWORD PTR ?ground_radar@@3URADAR_PARAMS@@A+8, xmm0
  00055	eb 4c		 jmp	 SHORT $LN8@inc_ground
$LN4@inc_ground:

; 227  : 	}
; 228  : 	else if (ground_radar.scan_arc_size == HAVOC_RADAR_SCAN_ARC_SIZE_45)

  00057	f3 0f 10 05 08
	00 00 00	 movss	 xmm0, DWORD PTR ?ground_radar@@3URADAR_PARAMS@@A+8
  0005f	0f 2e 05 00 00
	00 00		 ucomiss xmm0, DWORD PTR __real@3f490fdb
  00066	9f		 lahf
  00067	f6 c4 44	 test	 ah, 68			; 00000044H
  0006a	7a 12		 jp	 SHORT $LN6@inc_ground

; 229  : 	{
; 230  : 		ground_radar.scan_arc_size = HAVOC_RADAR_SCAN_ARC_SIZE_60;

  0006c	f3 0f 10 05 00
	00 00 00	 movss	 xmm0, DWORD PTR __real@3f860a92
  00074	f3 0f 11 05 08
	00 00 00	 movss	 DWORD PTR ?ground_radar@@3URADAR_PARAMS@@A+8, xmm0
  0007c	eb 25		 jmp	 SHORT $LN8@inc_ground
$LN6@inc_ground:

; 231  : 	}
; 232  : 	else if (ground_radar.scan_arc_size == HAVOC_RADAR_SCAN_ARC_SIZE_60)

  0007e	f3 0f 10 05 08
	00 00 00	 movss	 xmm0, DWORD PTR ?ground_radar@@3URADAR_PARAMS@@A+8
  00086	0f 2e 05 00 00
	00 00		 ucomiss xmm0, DWORD PTR __real@3f860a92
  0008d	9f		 lahf
  0008e	f6 c4 44	 test	 ah, 68			; 00000044H
  00091	7a 10		 jp	 SHORT $LN8@inc_ground

; 233  : 	{
; 234  : 		ground_radar.scan_arc_size = HAVOC_RADAR_SCAN_ARC_SIZE_90;

  00093	f3 0f 10 05 00
	00 00 00	 movss	 xmm0, DWORD PTR __real@3fc90fdb
  0009b	f3 0f 11 05 08
	00 00 00	 movss	 DWORD PTR ?ground_radar@@3URADAR_PARAMS@@A+8, xmm0
$LN8@inc_ground:

; 235  : 	}
; 236  : 
; 237  : 	if ((ground_radar.scan_datum - (ground_radar.scan_arc_size * 0.5)) < -HAVOC_RADAR_SCAN_ARC_SIZE_45)

  000a3	f3 0f 5a 05 04
	00 00 00	 cvtss2sd xmm0, DWORD PTR ?ground_radar@@3URADAR_PARAMS@@A+4
  000ab	f3 0f 5a 0d 08
	00 00 00	 cvtss2sd xmm1, DWORD PTR ?ground_radar@@3URADAR_PARAMS@@A+8
  000b3	f2 0f 59 0d 00
	00 00 00	 mulsd	 xmm1, QWORD PTR __real@3fe0000000000000
  000bb	f2 0f 5c c1	 subsd	 xmm0, xmm1
  000bf	f2 0f 10 0d 00
	00 00 00	 movsd	 xmm1, QWORD PTR __real@bfe921fb60000000
  000c7	66 0f 2f c8	 comisd	 xmm1, xmm0
  000cb	76 26		 jbe	 SHORT $LN9@inc_ground

; 238  : 	{
; 239  : 		ground_radar.scan_datum = -HAVOC_RADAR_SCAN_ARC_SIZE_45 + (ground_radar.scan_arc_size * 0.5);

  000cd	f3 0f 5a 05 08
	00 00 00	 cvtss2sd xmm0, DWORD PTR ?ground_radar@@3URADAR_PARAMS@@A+8
  000d5	f2 0f 59 05 00
	00 00 00	 mulsd	 xmm0, QWORD PTR __real@3fe0000000000000
  000dd	f2 0f 58 05 00
	00 00 00	 addsd	 xmm0, QWORD PTR __real@bfe921fb60000000
  000e5	f2 0f 5a c0	 cvtsd2ss xmm0, xmm0
  000e9	f3 0f 11 05 04
	00 00 00	 movss	 DWORD PTR ?ground_radar@@3URADAR_PARAMS@@A+4, xmm0
  000f1	eb 4e		 jmp	 SHORT $LN11@inc_ground
$LN9@inc_ground:

; 240  : 	}
; 241  : 	else if ((ground_radar.scan_datum + (ground_radar.scan_arc_size * 0.5)) > HAVOC_RADAR_SCAN_ARC_SIZE_45)

  000f3	f3 0f 5a 05 04
	00 00 00	 cvtss2sd xmm0, DWORD PTR ?ground_radar@@3URADAR_PARAMS@@A+4
  000fb	f3 0f 5a 0d 08
	00 00 00	 cvtss2sd xmm1, DWORD PTR ?ground_radar@@3URADAR_PARAMS@@A+8
  00103	f2 0f 59 0d 00
	00 00 00	 mulsd	 xmm1, QWORD PTR __real@3fe0000000000000
  0010b	f2 0f 58 c1	 addsd	 xmm0, xmm1
  0010f	66 0f 2f 05 00
	00 00 00	 comisd	 xmm0, QWORD PTR __real@3fe921fb60000000
  00117	76 28		 jbe	 SHORT $LN11@inc_ground

; 242  : 	{
; 243  : 		ground_radar.scan_datum = HAVOC_RADAR_SCAN_ARC_SIZE_45 - (ground_radar.scan_arc_size * 0.5);

  00119	f3 0f 5a 05 08
	00 00 00	 cvtss2sd xmm0, DWORD PTR ?ground_radar@@3URADAR_PARAMS@@A+8
  00121	f2 0f 59 05 00
	00 00 00	 mulsd	 xmm0, QWORD PTR __real@3fe0000000000000
  00129	f2 0f 10 0d 00
	00 00 00	 movsd	 xmm1, QWORD PTR __real@3fe921fb60000000
  00131	f2 0f 5c c8	 subsd	 xmm1, xmm0
  00135	f2 0f 5a c1	 cvtsd2ss xmm0, xmm1
  00139	f3 0f 11 05 04
	00 00 00	 movss	 DWORD PTR ?ground_radar@@3URADAR_PARAMS@@A+4, xmm0
$LN11@inc_ground:

; 244  : 	}
; 245  : 
; 246  : 	limit_radar_sweep (&ground_radar);

  00141	68 00 00 00 00	 push	 OFFSET ?ground_radar@@3URADAR_PARAMS@@A ; ground_radar
  00146	e8 00 00 00 00	 call	 ?limit_radar_sweep@@YGXPAURADAR_PARAMS@@@Z ; limit_radar_sweep

; 247  : }

  0014b	5f		 pop	 edi
  0014c	5e		 pop	 esi
  0014d	5b		 pop	 ebx
  0014e	8b e5		 mov	 esp, ebp
  00150	5d		 pop	 ebp
  00151	c3		 ret	 0
?inc_ground_radar_scan_arc_size@@YGXXZ ENDP		; inc_ground_radar_scan_arc_size
_TEXT	ENDS
; Function compile flags: /Odtp /ZI
; File c:\users\nhv90\projects\eech\aphavoc\source\gunships\avionics\havoc\ha_radar.c
;	COMDAT ?fast_rotate_ground_radar_scan_datum_right@@YGXXZ
_TEXT	SEGMENT
_theta$ = -4						; size = 4
?fast_rotate_ground_radar_scan_datum_right@@YGXXZ PROC	; fast_rotate_ground_radar_scan_datum_right, COMDAT

; 199  : {

  00000	55		 push	 ebp
  00001	8b ec		 mov	 ebp, esp
  00003	83 ec 44	 sub	 esp, 68			; 00000044H
  00006	53		 push	 ebx
  00007	56		 push	 esi
  00008	57		 push	 edi

; 200  : 	float
; 201  : 		theta;
; 202  : 
; 203  : 	theta = ground_radar.scan_datum;

  00009	f3 0f 10 05 04
	00 00 00	 movss	 xmm0, DWORD PTR ?ground_radar@@3URADAR_PARAMS@@A+4
  00011	f3 0f 11 45 fc	 movss	 DWORD PTR _theta$[ebp], xmm0

; 204  : 
; 205  : 	ground_radar.scan_datum = HAVOC_RADAR_SCAN_ARC_SIZE_45 - (ground_radar.scan_arc_size * 0.5);

  00016	f3 0f 5a 05 08
	00 00 00	 cvtss2sd xmm0, DWORD PTR ?ground_radar@@3URADAR_PARAMS@@A+8
  0001e	f2 0f 59 05 00
	00 00 00	 mulsd	 xmm0, QWORD PTR __real@3fe0000000000000
  00026	f2 0f 10 0d 00
	00 00 00	 movsd	 xmm1, QWORD PTR __real@3fe921fb60000000
  0002e	f2 0f 5c c8	 subsd	 xmm1, xmm0
  00032	f2 0f 5a c1	 cvtsd2ss xmm0, xmm1
  00036	f3 0f 11 05 04
	00 00 00	 movss	 DWORD PTR ?ground_radar@@3URADAR_PARAMS@@A+4, xmm0

; 206  : 
; 207  : 	theta = ground_radar.scan_datum - theta;

  0003e	f3 0f 10 05 04
	00 00 00	 movss	 xmm0, DWORD PTR ?ground_radar@@3URADAR_PARAMS@@A+4
  00046	f3 0f 5c 45 fc	 subss	 xmm0, DWORD PTR _theta$[ebp]
  0004b	f3 0f 11 45 fc	 movss	 DWORD PTR _theta$[ebp], xmm0

; 208  : 
; 209  : 	ground_radar.sweep_offset -= theta;

  00050	f3 0f 10 05 0c
	00 00 00	 movss	 xmm0, DWORD PTR ?ground_radar@@3URADAR_PARAMS@@A+12
  00058	f3 0f 5c 45 fc	 subss	 xmm0, DWORD PTR _theta$[ebp]
  0005d	f3 0f 11 05 0c
	00 00 00	 movss	 DWORD PTR ?ground_radar@@3URADAR_PARAMS@@A+12, xmm0

; 210  : 
; 211  : 	limit_radar_sweep (&ground_radar);

  00065	68 00 00 00 00	 push	 OFFSET ?ground_radar@@3URADAR_PARAMS@@A ; ground_radar
  0006a	e8 00 00 00 00	 call	 ?limit_radar_sweep@@YGXPAURADAR_PARAMS@@@Z ; limit_radar_sweep

; 212  : }

  0006f	5f		 pop	 edi
  00070	5e		 pop	 esi
  00071	5b		 pop	 ebx
  00072	8b e5		 mov	 esp, ebp
  00074	5d		 pop	 ebp
  00075	c3		 ret	 0
?fast_rotate_ground_radar_scan_datum_right@@YGXXZ ENDP	; fast_rotate_ground_radar_scan_datum_right
_TEXT	ENDS
; Function compile flags: /Odtp /ZI
; File c:\users\nhv90\projects\eech\aphavoc\source\gunships\avionics\havoc\ha_radar.c
;	COMDAT ?rotate_ground_radar_scan_datum_right@@YGXXZ
_TEXT	SEGMENT
?rotate_ground_radar_scan_datum_right@@YGXXZ PROC	; rotate_ground_radar_scan_datum_right, COMDAT

; 179  : {

  00000	55		 push	 ebp
  00001	8b ec		 mov	 ebp, esp
  00003	83 ec 40	 sub	 esp, 64			; 00000040H
  00006	53		 push	 ebx
  00007	56		 push	 esi
  00008	57		 push	 edi

; 180  : 	ground_radar.scan_datum += HAVOC_GROUND_RADAR_SCAN_DATUM_ROTATE_STEP;

  00009	f3 0f 5a 05 04
	00 00 00	 cvtss2sd xmm0, DWORD PTR ?ground_radar@@3URADAR_PARAMS@@A+4
  00011	f2 0f 58 05 00
	00 00 00	 addsd	 xmm0, QWORD PTR __real@3fc0c15240000000
  00019	f2 0f 5a c0	 cvtsd2ss xmm0, xmm0
  0001d	f3 0f 11 05 04
	00 00 00	 movss	 DWORD PTR ?ground_radar@@3URADAR_PARAMS@@A+4, xmm0

; 181  : 
; 182  : 	if ((ground_radar.scan_datum + (ground_radar.scan_arc_size * 0.5)) <= HAVOC_RADAR_SCAN_ARC_SIZE_45)

  00025	f3 0f 5a 05 04
	00 00 00	 cvtss2sd xmm0, DWORD PTR ?ground_radar@@3URADAR_PARAMS@@A+4
  0002d	f3 0f 5a 0d 08
	00 00 00	 cvtss2sd xmm1, DWORD PTR ?ground_radar@@3URADAR_PARAMS@@A+8
  00035	f2 0f 59 0d 00
	00 00 00	 mulsd	 xmm1, QWORD PTR __real@3fe0000000000000
  0003d	f2 0f 58 c1	 addsd	 xmm0, xmm1
  00041	f2 0f 10 0d 00
	00 00 00	 movsd	 xmm1, QWORD PTR __real@3fe921fb60000000
  00049	66 0f 2f c8	 comisd	 xmm1, xmm0
  0004d	72 1e		 jb	 SHORT $LN2@rotate_gro

; 183  : 	{
; 184  : 		ground_radar.sweep_offset -= HAVOC_GROUND_RADAR_SCAN_DATUM_ROTATE_STEP;

  0004f	f3 0f 5a 05 0c
	00 00 00	 cvtss2sd xmm0, DWORD PTR ?ground_radar@@3URADAR_PARAMS@@A+12
  00057	f2 0f 5c 05 00
	00 00 00	 subsd	 xmm0, QWORD PTR __real@3fc0c15240000000
  0005f	f2 0f 5a c0	 cvtsd2ss xmm0, xmm0
  00063	f3 0f 11 05 0c
	00 00 00	 movss	 DWORD PTR ?ground_radar@@3URADAR_PARAMS@@A+12, xmm0

; 185  : 	}
; 186  : 	else

  0006b	eb 28		 jmp	 SHORT $LN3@rotate_gro
$LN2@rotate_gro:

; 187  : 	{
; 188  : 		ground_radar.scan_datum = HAVOC_RADAR_SCAN_ARC_SIZE_45 - (ground_radar.scan_arc_size * 0.5);

  0006d	f3 0f 5a 05 08
	00 00 00	 cvtss2sd xmm0, DWORD PTR ?ground_radar@@3URADAR_PARAMS@@A+8
  00075	f2 0f 59 05 00
	00 00 00	 mulsd	 xmm0, QWORD PTR __real@3fe0000000000000
  0007d	f2 0f 10 0d 00
	00 00 00	 movsd	 xmm1, QWORD PTR __real@3fe921fb60000000
  00085	f2 0f 5c c8	 subsd	 xmm1, xmm0
  00089	f2 0f 5a c1	 cvtsd2ss xmm0, xmm1
  0008d	f3 0f 11 05 04
	00 00 00	 movss	 DWORD PTR ?ground_radar@@3URADAR_PARAMS@@A+4, xmm0
$LN3@rotate_gro:

; 189  : 	}
; 190  : 
; 191  : 	limit_radar_sweep (&ground_radar);

  00095	68 00 00 00 00	 push	 OFFSET ?ground_radar@@3URADAR_PARAMS@@A ; ground_radar
  0009a	e8 00 00 00 00	 call	 ?limit_radar_sweep@@YGXPAURADAR_PARAMS@@@Z ; limit_radar_sweep

; 192  : }

  0009f	5f		 pop	 edi
  000a0	5e		 pop	 esi
  000a1	5b		 pop	 ebx
  000a2	8b e5		 mov	 esp, ebp
  000a4	5d		 pop	 ebp
  000a5	c3		 ret	 0
?rotate_ground_radar_scan_datum_right@@YGXXZ ENDP	; rotate_ground_radar_scan_datum_right
_TEXT	ENDS
; Function compile flags: /Odtp /ZI
; File c:\users\nhv90\projects\eech\aphavoc\source\gunships\avionics\havoc\ha_radar.c
;	COMDAT ?fast_rotate_ground_radar_scan_datum_left@@YGXXZ
_TEXT	SEGMENT
_theta$ = -4						; size = 4
?fast_rotate_ground_radar_scan_datum_left@@YGXXZ PROC	; fast_rotate_ground_radar_scan_datum_left, COMDAT

; 159  : {

  00000	55		 push	 ebp
  00001	8b ec		 mov	 ebp, esp
  00003	83 ec 44	 sub	 esp, 68			; 00000044H
  00006	53		 push	 ebx
  00007	56		 push	 esi
  00008	57		 push	 edi

; 160  : 	float
; 161  : 		theta;
; 162  : 
; 163  : 	theta = ground_radar.scan_datum;

  00009	f3 0f 10 05 04
	00 00 00	 movss	 xmm0, DWORD PTR ?ground_radar@@3URADAR_PARAMS@@A+4
  00011	f3 0f 11 45 fc	 movss	 DWORD PTR _theta$[ebp], xmm0

; 164  : 
; 165  : 	ground_radar.scan_datum = -HAVOC_RADAR_SCAN_ARC_SIZE_45 + (ground_radar.scan_arc_size * 0.5);

  00016	f3 0f 5a 05 08
	00 00 00	 cvtss2sd xmm0, DWORD PTR ?ground_radar@@3URADAR_PARAMS@@A+8
  0001e	f2 0f 59 05 00
	00 00 00	 mulsd	 xmm0, QWORD PTR __real@3fe0000000000000
  00026	f2 0f 58 05 00
	00 00 00	 addsd	 xmm0, QWORD PTR __real@bfe921fb60000000
  0002e	f2 0f 5a c0	 cvtsd2ss xmm0, xmm0
  00032	f3 0f 11 05 04
	00 00 00	 movss	 DWORD PTR ?ground_radar@@3URADAR_PARAMS@@A+4, xmm0

; 166  : 
; 167  : 	theta = ground_radar.scan_datum - theta;

  0003a	f3 0f 10 05 04
	00 00 00	 movss	 xmm0, DWORD PTR ?ground_radar@@3URADAR_PARAMS@@A+4
  00042	f3 0f 5c 45 fc	 subss	 xmm0, DWORD PTR _theta$[ebp]
  00047	f3 0f 11 45 fc	 movss	 DWORD PTR _theta$[ebp], xmm0

; 168  : 
; 169  : 	ground_radar.sweep_offset -= theta;

  0004c	f3 0f 10 05 0c
	00 00 00	 movss	 xmm0, DWORD PTR ?ground_radar@@3URADAR_PARAMS@@A+12
  00054	f3 0f 5c 45 fc	 subss	 xmm0, DWORD PTR _theta$[ebp]
  00059	f3 0f 11 05 0c
	00 00 00	 movss	 DWORD PTR ?ground_radar@@3URADAR_PARAMS@@A+12, xmm0

; 170  : 
; 171  : 	limit_radar_sweep (&ground_radar);

  00061	68 00 00 00 00	 push	 OFFSET ?ground_radar@@3URADAR_PARAMS@@A ; ground_radar
  00066	e8 00 00 00 00	 call	 ?limit_radar_sweep@@YGXPAURADAR_PARAMS@@@Z ; limit_radar_sweep

; 172  : }

  0006b	5f		 pop	 edi
  0006c	5e		 pop	 esi
  0006d	5b		 pop	 ebx
  0006e	8b e5		 mov	 esp, ebp
  00070	5d		 pop	 ebp
  00071	c3		 ret	 0
?fast_rotate_ground_radar_scan_datum_left@@YGXXZ ENDP	; fast_rotate_ground_radar_scan_datum_left
_TEXT	ENDS
; Function compile flags: /Odtp /ZI
; File c:\users\nhv90\projects\eech\aphavoc\source\gunships\avionics\havoc\ha_radar.c
;	COMDAT ?rotate_ground_radar_scan_datum_left@@YGXXZ
_TEXT	SEGMENT
?rotate_ground_radar_scan_datum_left@@YGXXZ PROC	; rotate_ground_radar_scan_datum_left, COMDAT

; 139  : {

  00000	55		 push	 ebp
  00001	8b ec		 mov	 ebp, esp
  00003	83 ec 40	 sub	 esp, 64			; 00000040H
  00006	53		 push	 ebx
  00007	56		 push	 esi
  00008	57		 push	 edi

; 140  : 	ground_radar.scan_datum -= HAVOC_GROUND_RADAR_SCAN_DATUM_ROTATE_STEP;

  00009	f3 0f 5a 05 04
	00 00 00	 cvtss2sd xmm0, DWORD PTR ?ground_radar@@3URADAR_PARAMS@@A+4
  00011	f2 0f 5c 05 00
	00 00 00	 subsd	 xmm0, QWORD PTR __real@3fc0c15240000000
  00019	f2 0f 5a c0	 cvtsd2ss xmm0, xmm0
  0001d	f3 0f 11 05 04
	00 00 00	 movss	 DWORD PTR ?ground_radar@@3URADAR_PARAMS@@A+4, xmm0

; 141  : 
; 142  : 	if ((ground_radar.scan_datum - (ground_radar.scan_arc_size * 0.5)) >= -HAVOC_RADAR_SCAN_ARC_SIZE_45)

  00025	f3 0f 5a 05 04
	00 00 00	 cvtss2sd xmm0, DWORD PTR ?ground_radar@@3URADAR_PARAMS@@A+4
  0002d	f3 0f 5a 0d 08
	00 00 00	 cvtss2sd xmm1, DWORD PTR ?ground_radar@@3URADAR_PARAMS@@A+8
  00035	f2 0f 59 0d 00
	00 00 00	 mulsd	 xmm1, QWORD PTR __real@3fe0000000000000
  0003d	f2 0f 5c c1	 subsd	 xmm0, xmm1
  00041	66 0f 2f 05 00
	00 00 00	 comisd	 xmm0, QWORD PTR __real@bfe921fb60000000
  00049	72 1e		 jb	 SHORT $LN2@rotate_gro

; 143  : 	{
; 144  : 		ground_radar.sweep_offset += HAVOC_GROUND_RADAR_SCAN_DATUM_ROTATE_STEP;

  0004b	f3 0f 5a 05 0c
	00 00 00	 cvtss2sd xmm0, DWORD PTR ?ground_radar@@3URADAR_PARAMS@@A+12
  00053	f2 0f 58 05 00
	00 00 00	 addsd	 xmm0, QWORD PTR __real@3fc0c15240000000
  0005b	f2 0f 5a c0	 cvtsd2ss xmm0, xmm0
  0005f	f3 0f 11 05 0c
	00 00 00	 movss	 DWORD PTR ?ground_radar@@3URADAR_PARAMS@@A+12, xmm0

; 145  : 	}
; 146  : 	else

  00067	eb 24		 jmp	 SHORT $LN3@rotate_gro
$LN2@rotate_gro:

; 147  : 	{
; 148  : 		ground_radar.scan_datum = -HAVOC_RADAR_SCAN_ARC_SIZE_45 + (ground_radar.scan_arc_size * 0.5);

  00069	f3 0f 5a 05 08
	00 00 00	 cvtss2sd xmm0, DWORD PTR ?ground_radar@@3URADAR_PARAMS@@A+8
  00071	f2 0f 59 05 00
	00 00 00	 mulsd	 xmm0, QWORD PTR __real@3fe0000000000000
  00079	f2 0f 58 05 00
	00 00 00	 addsd	 xmm0, QWORD PTR __real@bfe921fb60000000
  00081	f2 0f 5a c0	 cvtsd2ss xmm0, xmm0
  00085	f3 0f 11 05 04
	00 00 00	 movss	 DWORD PTR ?ground_radar@@3URADAR_PARAMS@@A+4, xmm0
$LN3@rotate_gro:

; 149  : 	}
; 150  : 
; 151  : 	limit_radar_sweep (&ground_radar);

  0008d	68 00 00 00 00	 push	 OFFSET ?ground_radar@@3URADAR_PARAMS@@A ; ground_radar
  00092	e8 00 00 00 00	 call	 ?limit_radar_sweep@@YGXPAURADAR_PARAMS@@@Z ; limit_radar_sweep

; 152  : }

  00097	5f		 pop	 edi
  00098	5e		 pop	 esi
  00099	5b		 pop	 ebx
  0009a	8b e5		 mov	 esp, ebp
  0009c	5d		 pop	 ebp
  0009d	c3		 ret	 0
?rotate_ground_radar_scan_datum_left@@YGXXZ ENDP	; rotate_ground_radar_scan_datum_left
_TEXT	ENDS
; Function compile flags: /Odtp /ZI
; File c:\users\nhv90\projects\eech\aphavoc\source\gunships\avionics\havoc\ha_radar.c
;	COMDAT ?centre_havoc_air_radar@@YGXXZ
_TEXT	SEGMENT
?centre_havoc_air_radar@@YGXXZ PROC			; centre_havoc_air_radar, COMDAT

; 1021 : {

  00000	55		 push	 ebp
  00001	8b ec		 mov	 ebp, esp
  00003	83 ec 40	 sub	 esp, 64			; 00000040H
  00006	53		 push	 ebx
  00007	56		 push	 esi
  00008	57		 push	 edi

; 1022 : 	air_radar.sweep_offset += air_radar.scan_datum;

  00009	f3 0f 10 05 0c
	00 00 00	 movss	 xmm0, DWORD PTR ?air_radar@@3URADAR_PARAMS@@A+12
  00011	f3 0f 58 05 04
	00 00 00	 addss	 xmm0, DWORD PTR ?air_radar@@3URADAR_PARAMS@@A+4
  00019	f3 0f 11 05 0c
	00 00 00	 movss	 DWORD PTR ?air_radar@@3URADAR_PARAMS@@A+12, xmm0

; 1023 : 
; 1024 : 	air_radar.scan_datum = rad (0.0);

  00021	0f 57 c0	 xorps	 xmm0, xmm0
  00024	f3 0f 11 05 04
	00 00 00	 movss	 DWORD PTR ?air_radar@@3URADAR_PARAMS@@A+4, xmm0

; 1025 : 
; 1026 : 	limit_radar_sweep (&air_radar);

  0002c	68 00 00 00 00	 push	 OFFSET ?air_radar@@3URADAR_PARAMS@@A ; air_radar
  00031	e8 00 00 00 00	 call	 ?limit_radar_sweep@@YGXPAURADAR_PARAMS@@@Z ; limit_radar_sweep

; 1027 : }

  00036	5f		 pop	 edi
  00037	5e		 pop	 esi
  00038	5b		 pop	 ebx
  00039	8b e5		 mov	 esp, ebp
  0003b	5d		 pop	 ebp
  0003c	c3		 ret	 0
?centre_havoc_air_radar@@YGXXZ ENDP			; centre_havoc_air_radar
_TEXT	ENDS
; Function compile flags: /Odtp /ZI
; File c:\users\nhv90\projects\eech\aphavoc\source\gunships\avionics\havoc\ha_radar.c
;	COMDAT ?update_havoc_air_radar@@YGXXZ
_TEXT	SEGMENT
?update_havoc_air_radar@@YGXXZ PROC			; update_havoc_air_radar, COMDAT

; 882  : {

  00000	55		 push	 ebp
  00001	8b ec		 mov	 ebp, esp
  00003	83 ec 40	 sub	 esp, 64			; 00000040H
  00006	53		 push	 ebx
  00007	56		 push	 esi
  00008	57		 push	 edi
$LN2@update_hav:

; 883  : 	////////////////////////////////////////
; 884  : 
; 885  : 	while (single_target_acquisition_system_steer_left_key)

  00009	83 3d 00 00 00
	00 00		 cmp	 DWORD PTR ?single_target_acquisition_system_steer_left_key@@3HA, 0 ; single_target_acquisition_system_steer_left_key
  00010	74 14		 je	 SHORT $LN4@update_hav

; 886  : 	{
; 887  : 		rotate_air_radar_scan_datum_left ();

  00012	e8 00 00 00 00	 call	 ?rotate_air_radar_scan_datum_left@@YGXXZ ; rotate_air_radar_scan_datum_left

; 888  : 
; 889  : 		single_target_acquisition_system_steer_left_key--;

  00017	a1 00 00 00 00	 mov	 eax, DWORD PTR ?single_target_acquisition_system_steer_left_key@@3HA ; single_target_acquisition_system_steer_left_key
  0001c	83 e8 01	 sub	 eax, 1
  0001f	a3 00 00 00 00	 mov	 DWORD PTR ?single_target_acquisition_system_steer_left_key@@3HA, eax ; single_target_acquisition_system_steer_left_key

; 890  : 	}

  00024	eb e3		 jmp	 SHORT $LN2@update_hav
$LN4@update_hav:

; 891  : 
; 892  : 	while (single_target_acquisition_system_steer_left_fast_key)

  00026	83 3d 00 00 00
	00 00		 cmp	 DWORD PTR ?single_target_acquisition_system_steer_left_fast_key@@3HA, 0 ; single_target_acquisition_system_steer_left_fast_key
  0002d	74 14		 je	 SHORT $LN6@update_hav

; 893  : 	{
; 894  : 		fast_rotate_air_radar_scan_datum_left ();

  0002f	e8 00 00 00 00	 call	 ?fast_rotate_air_radar_scan_datum_left@@YGXXZ ; fast_rotate_air_radar_scan_datum_left

; 895  : 
; 896  : 		single_target_acquisition_system_steer_left_fast_key--;

  00034	a1 00 00 00 00	 mov	 eax, DWORD PTR ?single_target_acquisition_system_steer_left_fast_key@@3HA ; single_target_acquisition_system_steer_left_fast_key
  00039	83 e8 01	 sub	 eax, 1
  0003c	a3 00 00 00 00	 mov	 DWORD PTR ?single_target_acquisition_system_steer_left_fast_key@@3HA, eax ; single_target_acquisition_system_steer_left_fast_key

; 897  : 	}

  00041	eb e3		 jmp	 SHORT $LN4@update_hav
$LN6@update_hav:

; 898  : 
; 899  : 	////////////////////////////////////////
; 900  : 
; 901  : 	while (single_target_acquisition_system_steer_right_key)

  00043	83 3d 00 00 00
	00 00		 cmp	 DWORD PTR ?single_target_acquisition_system_steer_right_key@@3HA, 0 ; single_target_acquisition_system_steer_right_key
  0004a	74 14		 je	 SHORT $LN8@update_hav

; 902  : 	{
; 903  : 		rotate_air_radar_scan_datum_right ();

  0004c	e8 00 00 00 00	 call	 ?rotate_air_radar_scan_datum_right@@YGXXZ ; rotate_air_radar_scan_datum_right

; 904  : 
; 905  : 		single_target_acquisition_system_steer_right_key--;

  00051	a1 00 00 00 00	 mov	 eax, DWORD PTR ?single_target_acquisition_system_steer_right_key@@3HA ; single_target_acquisition_system_steer_right_key
  00056	83 e8 01	 sub	 eax, 1
  00059	a3 00 00 00 00	 mov	 DWORD PTR ?single_target_acquisition_system_steer_right_key@@3HA, eax ; single_target_acquisition_system_steer_right_key

; 906  : 	}

  0005e	eb e3		 jmp	 SHORT $LN6@update_hav
$LN8@update_hav:

; 907  : 
; 908  : 	while (single_target_acquisition_system_steer_right_fast_key)

  00060	83 3d 00 00 00
	00 00		 cmp	 DWORD PTR ?single_target_acquisition_system_steer_right_fast_key@@3HA, 0 ; single_target_acquisition_system_steer_right_fast_key
  00067	74 14		 je	 SHORT $LN10@update_hav

; 909  : 	{
; 910  : 		fast_rotate_air_radar_scan_datum_right ();

  00069	e8 00 00 00 00	 call	 ?fast_rotate_air_radar_scan_datum_right@@YGXXZ ; fast_rotate_air_radar_scan_datum_right

; 911  : 
; 912  : 		single_target_acquisition_system_steer_right_fast_key--;

  0006e	a1 00 00 00 00	 mov	 eax, DWORD PTR ?single_target_acquisition_system_steer_right_fast_key@@3HA ; single_target_acquisition_system_steer_right_fast_key
  00073	83 e8 01	 sub	 eax, 1
  00076	a3 00 00 00 00	 mov	 DWORD PTR ?single_target_acquisition_system_steer_right_fast_key@@3HA, eax ; single_target_acquisition_system_steer_right_fast_key

; 913  : 	}

  0007b	eb e3		 jmp	 SHORT $LN8@update_hav
$LN10@update_hav:

; 914  : 
; 915  : 	////////////////////////////////////////
; 916  : 
; 917  : 	while (single_target_acquisition_system_steer_up_key)

  0007d	83 3d 00 00 00
	00 00		 cmp	 DWORD PTR ?single_target_acquisition_system_steer_up_key@@3HA, 0 ; single_target_acquisition_system_steer_up_key
  00084	74 14		 je	 SHORT $LN12@update_hav

; 918  : 	{
; 919  : 		inc_air_radar_scan_arc_size ();

  00086	e8 00 00 00 00	 call	 ?inc_air_radar_scan_arc_size@@YGXXZ ; inc_air_radar_scan_arc_size

; 920  : 
; 921  : 		single_target_acquisition_system_steer_up_key--;

  0008b	a1 00 00 00 00	 mov	 eax, DWORD PTR ?single_target_acquisition_system_steer_up_key@@3HA ; single_target_acquisition_system_steer_up_key
  00090	83 e8 01	 sub	 eax, 1
  00093	a3 00 00 00 00	 mov	 DWORD PTR ?single_target_acquisition_system_steer_up_key@@3HA, eax ; single_target_acquisition_system_steer_up_key

; 922  : 	}

  00098	eb e3		 jmp	 SHORT $LN10@update_hav
$LN12@update_hav:

; 923  : 
; 924  : 	while (single_target_acquisition_system_steer_up_fast_key)

  0009a	83 3d 00 00 00
	00 00		 cmp	 DWORD PTR ?single_target_acquisition_system_steer_up_fast_key@@3HA, 0 ; single_target_acquisition_system_steer_up_fast_key
  000a1	74 14		 je	 SHORT $LN14@update_hav

; 925  : 	{
; 926  : 		fast_inc_air_radar_scan_arc_size ();

  000a3	e8 00 00 00 00	 call	 ?fast_inc_air_radar_scan_arc_size@@YGXXZ ; fast_inc_air_radar_scan_arc_size

; 927  : 
; 928  : 		single_target_acquisition_system_steer_up_fast_key--;

  000a8	a1 00 00 00 00	 mov	 eax, DWORD PTR ?single_target_acquisition_system_steer_up_fast_key@@3HA ; single_target_acquisition_system_steer_up_fast_key
  000ad	83 e8 01	 sub	 eax, 1
  000b0	a3 00 00 00 00	 mov	 DWORD PTR ?single_target_acquisition_system_steer_up_fast_key@@3HA, eax ; single_target_acquisition_system_steer_up_fast_key

; 929  : 	}

  000b5	eb e3		 jmp	 SHORT $LN12@update_hav
$LN14@update_hav:

; 930  : 
; 931  : 	////////////////////////////////////////
; 932  : 
; 933  : 	while (single_target_acquisition_system_steer_down_key)

  000b7	83 3d 00 00 00
	00 00		 cmp	 DWORD PTR ?single_target_acquisition_system_steer_down_key@@3HA, 0 ; single_target_acquisition_system_steer_down_key
  000be	74 14		 je	 SHORT $LN16@update_hav

; 934  : 	{
; 935  : 		dec_air_radar_scan_arc_size ();

  000c0	e8 00 00 00 00	 call	 ?dec_air_radar_scan_arc_size@@YGXXZ ; dec_air_radar_scan_arc_size

; 936  : 
; 937  : 		single_target_acquisition_system_steer_down_key--;

  000c5	a1 00 00 00 00	 mov	 eax, DWORD PTR ?single_target_acquisition_system_steer_down_key@@3HA ; single_target_acquisition_system_steer_down_key
  000ca	83 e8 01	 sub	 eax, 1
  000cd	a3 00 00 00 00	 mov	 DWORD PTR ?single_target_acquisition_system_steer_down_key@@3HA, eax ; single_target_acquisition_system_steer_down_key

; 938  : 	}

  000d2	eb e3		 jmp	 SHORT $LN14@update_hav
$LN16@update_hav:

; 939  : 
; 940  : 	while (single_target_acquisition_system_steer_down_fast_key)

  000d4	83 3d 00 00 00
	00 00		 cmp	 DWORD PTR ?single_target_acquisition_system_steer_down_fast_key@@3HA, 0 ; single_target_acquisition_system_steer_down_fast_key
  000db	74 14		 je	 SHORT $LN18@update_hav

; 941  : 	{
; 942  : 		fast_dec_air_radar_scan_arc_size ();

  000dd	e8 00 00 00 00	 call	 ?fast_dec_air_radar_scan_arc_size@@YGXXZ ; fast_dec_air_radar_scan_arc_size

; 943  : 
; 944  : 		single_target_acquisition_system_steer_down_fast_key--;

  000e2	a1 00 00 00 00	 mov	 eax, DWORD PTR ?single_target_acquisition_system_steer_down_fast_key@@3HA ; single_target_acquisition_system_steer_down_fast_key
  000e7	83 e8 01	 sub	 eax, 1
  000ea	a3 00 00 00 00	 mov	 DWORD PTR ?single_target_acquisition_system_steer_down_fast_key@@3HA, eax ; single_target_acquisition_system_steer_down_fast_key

; 945  : 	}

  000ef	eb e3		 jmp	 SHORT $LN16@update_hav
$LN18@update_hav:

; 946  : 
; 947  : 	////////////////////////////////////////
; 948  : 
; 949  : 	while (single_target_acquisition_system_inc_range_key)

  000f1	83 3d 00 00 00
	00 00		 cmp	 DWORD PTR ?single_target_acquisition_system_inc_range_key@@3HA, 0 ; single_target_acquisition_system_inc_range_key
  000f8	74 14		 je	 SHORT $LN20@update_hav

; 950  : 	{
; 951  : 		inc_air_radar_scan_range ();

  000fa	e8 00 00 00 00	 call	 ?inc_air_radar_scan_range@@YGXXZ ; inc_air_radar_scan_range

; 952  : 
; 953  : 		single_target_acquisition_system_inc_range_key--;

  000ff	a1 00 00 00 00	 mov	 eax, DWORD PTR ?single_target_acquisition_system_inc_range_key@@3HA ; single_target_acquisition_system_inc_range_key
  00104	83 e8 01	 sub	 eax, 1
  00107	a3 00 00 00 00	 mov	 DWORD PTR ?single_target_acquisition_system_inc_range_key@@3HA, eax ; single_target_acquisition_system_inc_range_key

; 954  : 	}

  0010c	eb e3		 jmp	 SHORT $LN18@update_hav
$LN20@update_hav:

; 955  : 
; 956  : 	while (single_target_acquisition_system_inc_range_fast_key)

  0010e	83 3d 00 00 00
	00 00		 cmp	 DWORD PTR ?single_target_acquisition_system_inc_range_fast_key@@3HA, 0 ; single_target_acquisition_system_inc_range_fast_key
  00115	74 14		 je	 SHORT $LN22@update_hav

; 957  : 	{
; 958  : 		fast_inc_air_radar_scan_range ();

  00117	e8 00 00 00 00	 call	 ?fast_inc_air_radar_scan_range@@YGXXZ ; fast_inc_air_radar_scan_range

; 959  : 
; 960  : 		single_target_acquisition_system_inc_range_fast_key--;

  0011c	a1 00 00 00 00	 mov	 eax, DWORD PTR ?single_target_acquisition_system_inc_range_fast_key@@3HA ; single_target_acquisition_system_inc_range_fast_key
  00121	83 e8 01	 sub	 eax, 1
  00124	a3 00 00 00 00	 mov	 DWORD PTR ?single_target_acquisition_system_inc_range_fast_key@@3HA, eax ; single_target_acquisition_system_inc_range_fast_key

; 961  : 	}

  00129	eb e3		 jmp	 SHORT $LN20@update_hav
$LN22@update_hav:

; 962  : 
; 963  : 	////////////////////////////////////////
; 964  : 
; 965  : 	while (single_target_acquisition_system_dec_range_key)

  0012b	83 3d 00 00 00
	00 00		 cmp	 DWORD PTR ?single_target_acquisition_system_dec_range_key@@3HA, 0 ; single_target_acquisition_system_dec_range_key
  00132	74 14		 je	 SHORT $LN24@update_hav

; 966  : 	{
; 967  : 		dec_air_radar_scan_range ();

  00134	e8 00 00 00 00	 call	 ?dec_air_radar_scan_range@@YGXXZ ; dec_air_radar_scan_range

; 968  : 
; 969  : 		single_target_acquisition_system_dec_range_key--;

  00139	a1 00 00 00 00	 mov	 eax, DWORD PTR ?single_target_acquisition_system_dec_range_key@@3HA ; single_target_acquisition_system_dec_range_key
  0013e	83 e8 01	 sub	 eax, 1
  00141	a3 00 00 00 00	 mov	 DWORD PTR ?single_target_acquisition_system_dec_range_key@@3HA, eax ; single_target_acquisition_system_dec_range_key

; 970  : 	}

  00146	eb e3		 jmp	 SHORT $LN22@update_hav
$LN24@update_hav:

; 971  : 
; 972  : 	while (single_target_acquisition_system_dec_range_fast_key)

  00148	83 3d 00 00 00
	00 00		 cmp	 DWORD PTR ?single_target_acquisition_system_dec_range_fast_key@@3HA, 0 ; single_target_acquisition_system_dec_range_fast_key
  0014f	74 14		 je	 SHORT $LN26@update_hav

; 973  : 	{
; 974  : 		fast_dec_air_radar_scan_range ();

  00151	e8 00 00 00 00	 call	 ?fast_dec_air_radar_scan_range@@YGXXZ ; fast_dec_air_radar_scan_range

; 975  : 
; 976  : 		single_target_acquisition_system_dec_range_fast_key--;

  00156	a1 00 00 00 00	 mov	 eax, DWORD PTR ?single_target_acquisition_system_dec_range_fast_key@@3HA ; single_target_acquisition_system_dec_range_fast_key
  0015b	83 e8 01	 sub	 eax, 1
  0015e	a3 00 00 00 00	 mov	 DWORD PTR ?single_target_acquisition_system_dec_range_fast_key@@3HA, eax ; single_target_acquisition_system_dec_range_fast_key

; 977  : 	}

  00163	eb e3		 jmp	 SHORT $LN24@update_hav
$LN26@update_hav:

; 978  : 
; 979  : 	////////////////////////////////////////
; 980  : 
; 981  : 	while (single_target_acquisition_system_select_next_target_key)

  00165	83 3d 00 00 00
	00 00		 cmp	 DWORD PTR ?single_target_acquisition_system_select_next_target_key@@3HA, 0 ; single_target_acquisition_system_select_next_target_key
  0016c	74 14		 je	 SHORT $LN28@update_hav

; 982  : 	{
; 983  : 		select_next_air_radar_target ();

  0016e	e8 00 00 00 00	 call	 ?select_next_air_radar_target@@YGXXZ ; select_next_air_radar_target

; 984  : 
; 985  : 		single_target_acquisition_system_select_next_target_key--;

  00173	a1 00 00 00 00	 mov	 eax, DWORD PTR ?single_target_acquisition_system_select_next_target_key@@3HA ; single_target_acquisition_system_select_next_target_key
  00178	83 e8 01	 sub	 eax, 1
  0017b	a3 00 00 00 00	 mov	 DWORD PTR ?single_target_acquisition_system_select_next_target_key@@3HA, eax ; single_target_acquisition_system_select_next_target_key

; 986  : 	}

  00180	eb e3		 jmp	 SHORT $LN26@update_hav
$LN28@update_hav:

; 987  : 
; 988  : 	////////////////////////////////////////
; 989  : 
; 990  : 	while (single_target_acquisition_system_select_previous_target_key)

  00182	83 3d 00 00 00
	00 00		 cmp	 DWORD PTR ?single_target_acquisition_system_select_previous_target_key@@3HA, 0 ; single_target_acquisition_system_select_previous_target_key
  00189	74 14		 je	 SHORT $LN30@update_hav

; 991  : 	{
; 992  : 		select_previous_air_radar_target ();

  0018b	e8 00 00 00 00	 call	 ?select_previous_air_radar_target@@YGXXZ ; select_previous_air_radar_target

; 993  : 
; 994  : 		single_target_acquisition_system_select_previous_target_key--;

  00190	a1 00 00 00 00	 mov	 eax, DWORD PTR ?single_target_acquisition_system_select_previous_target_key@@3HA ; single_target_acquisition_system_select_previous_target_key
  00195	83 e8 01	 sub	 eax, 1
  00198	a3 00 00 00 00	 mov	 DWORD PTR ?single_target_acquisition_system_select_previous_target_key@@3HA, eax ; single_target_acquisition_system_select_previous_target_key

; 995  : 	}

  0019d	eb e3		 jmp	 SHORT $LN28@update_hav
$LN30@update_hav:

; 996  : // Jabberwock 031107 Designated targets
; 997  : 	
; 998  : 	while (single_target_acquisition_system_select_next_designated_key)

  0019f	83 3d 00 00 00
	00 00		 cmp	 DWORD PTR ?single_target_acquisition_system_select_next_designated_key@@3HA, 0 ; single_target_acquisition_system_select_next_designated_key
  001a6	74 14		 je	 SHORT $LN32@update_hav

; 999  : 	{
; 1000 : 		select_next_designated_air_radar_target ();

  001a8	e8 00 00 00 00	 call	 ?select_next_designated_air_radar_target@@YGXXZ ; select_next_designated_air_radar_target

; 1001 : 
; 1002 : 		single_target_acquisition_system_select_next_designated_key--;

  001ad	a1 00 00 00 00	 mov	 eax, DWORD PTR ?single_target_acquisition_system_select_next_designated_key@@3HA ; single_target_acquisition_system_select_next_designated_key
  001b2	83 e8 01	 sub	 eax, 1
  001b5	a3 00 00 00 00	 mov	 DWORD PTR ?single_target_acquisition_system_select_next_designated_key@@3HA, eax ; single_target_acquisition_system_select_next_designated_key

; 1003 : 	}

  001ba	eb e3		 jmp	 SHORT $LN30@update_hav
$LN32@update_hav:

; 1004 : 
; 1005 : 	////////////////////////////////////////
; 1006 : 
; 1007 : 	while (single_target_acquisition_system_select_previous_designated_key)

  001bc	83 3d 00 00 00
	00 00		 cmp	 DWORD PTR ?single_target_acquisition_system_select_previous_designated_key@@3HA, 0 ; single_target_acquisition_system_select_previous_designated_key
  001c3	74 14		 je	 SHORT $LN1@update_hav

; 1008 : 	{
; 1009 : 		select_next_designated_air_radar_target ();

  001c5	e8 00 00 00 00	 call	 ?select_next_designated_air_radar_target@@YGXXZ ; select_next_designated_air_radar_target

; 1010 : 
; 1011 : 		single_target_acquisition_system_select_previous_designated_key--;

  001ca	a1 00 00 00 00	 mov	 eax, DWORD PTR ?single_target_acquisition_system_select_previous_designated_key@@3HA ; single_target_acquisition_system_select_previous_designated_key
  001cf	83 e8 01	 sub	 eax, 1
  001d2	a3 00 00 00 00	 mov	 DWORD PTR ?single_target_acquisition_system_select_previous_designated_key@@3HA, eax ; single_target_acquisition_system_select_previous_designated_key

; 1012 : 	}	

  001d7	eb e3		 jmp	 SHORT $LN32@update_hav
$LN1@update_hav:

; 1013 : // Jabberwock 031107 ends	
; 1014 : }

  001d9	5f		 pop	 edi
  001da	5e		 pop	 esi
  001db	5b		 pop	 ebx
  001dc	8b e5		 mov	 esp, ebp
  001de	5d		 pop	 ebp
  001df	c3		 ret	 0
?update_havoc_air_radar@@YGXXZ ENDP			; update_havoc_air_radar
_TEXT	ENDS
; Function compile flags: /Odtp /ZI
; File c:\users\nhv90\projects\eech\aphavoc\source\gunships\avionics\havoc\ha_radar.c
;	COMDAT ?centre_havoc_ground_radar@@YGXXZ
_TEXT	SEGMENT
?centre_havoc_ground_radar@@YGXXZ PROC			; centre_havoc_ground_radar, COMDAT

; 629  : {

  00000	55		 push	 ebp
  00001	8b ec		 mov	 ebp, esp
  00003	83 ec 40	 sub	 esp, 64			; 00000040H
  00006	53		 push	 ebx
  00007	56		 push	 esi
  00008	57		 push	 edi

; 630  : 	ground_radar.sweep_offset += ground_radar.scan_datum;

  00009	f3 0f 10 05 0c
	00 00 00	 movss	 xmm0, DWORD PTR ?ground_radar@@3URADAR_PARAMS@@A+12
  00011	f3 0f 58 05 04
	00 00 00	 addss	 xmm0, DWORD PTR ?ground_radar@@3URADAR_PARAMS@@A+4
  00019	f3 0f 11 05 0c
	00 00 00	 movss	 DWORD PTR ?ground_radar@@3URADAR_PARAMS@@A+12, xmm0

; 631  : 
; 632  : 	ground_radar.scan_datum = rad (0.0);

  00021	0f 57 c0	 xorps	 xmm0, xmm0
  00024	f3 0f 11 05 04
	00 00 00	 movss	 DWORD PTR ?ground_radar@@3URADAR_PARAMS@@A+4, xmm0

; 633  : 
; 634  : 	limit_radar_sweep (&ground_radar);

  0002c	68 00 00 00 00	 push	 OFFSET ?ground_radar@@3URADAR_PARAMS@@A ; ground_radar
  00031	e8 00 00 00 00	 call	 ?limit_radar_sweep@@YGXPAURADAR_PARAMS@@@Z ; limit_radar_sweep

; 635  : }

  00036	5f		 pop	 edi
  00037	5e		 pop	 esi
  00038	5b		 pop	 ebx
  00039	8b e5		 mov	 esp, ebp
  0003b	5d		 pop	 ebp
  0003c	c3		 ret	 0
?centre_havoc_ground_radar@@YGXXZ ENDP			; centre_havoc_ground_radar
_TEXT	ENDS
; Function compile flags: /Odtp /ZI
; File c:\users\nhv90\projects\eech\aphavoc\source\gunships\avionics\havoc\ha_radar.c
;	COMDAT ?update_havoc_ground_radar@@YGXXZ
_TEXT	SEGMENT
?update_havoc_ground_radar@@YGXXZ PROC			; update_havoc_ground_radar, COMDAT

; 457  : {

  00000	55		 push	 ebp
  00001	8b ec		 mov	 ebp, esp
  00003	83 ec 40	 sub	 esp, 64			; 00000040H
  00006	53		 push	 ebx
  00007	56		 push	 esi
  00008	57		 push	 edi
$LN2@update_hav:

; 458  : 	////////////////////////////////////////
; 459  : 
; 460  : 	while (single_target_acquisition_system_steer_left_key)

  00009	83 3d 00 00 00
	00 00		 cmp	 DWORD PTR ?single_target_acquisition_system_steer_left_key@@3HA, 0 ; single_target_acquisition_system_steer_left_key
  00010	74 14		 je	 SHORT $LN4@update_hav

; 461  : 	{
; 462  : 		rotate_ground_radar_scan_datum_left ();

  00012	e8 00 00 00 00	 call	 ?rotate_ground_radar_scan_datum_left@@YGXXZ ; rotate_ground_radar_scan_datum_left

; 463  : 
; 464  : 		single_target_acquisition_system_steer_left_key--;

  00017	a1 00 00 00 00	 mov	 eax, DWORD PTR ?single_target_acquisition_system_steer_left_key@@3HA ; single_target_acquisition_system_steer_left_key
  0001c	83 e8 01	 sub	 eax, 1
  0001f	a3 00 00 00 00	 mov	 DWORD PTR ?single_target_acquisition_system_steer_left_key@@3HA, eax ; single_target_acquisition_system_steer_left_key

; 465  : 	}

  00024	eb e3		 jmp	 SHORT $LN2@update_hav
$LN4@update_hav:

; 466  : 
; 467  : 	while (single_target_acquisition_system_steer_left_fast_key)

  00026	83 3d 00 00 00
	00 00		 cmp	 DWORD PTR ?single_target_acquisition_system_steer_left_fast_key@@3HA, 0 ; single_target_acquisition_system_steer_left_fast_key
  0002d	74 14		 je	 SHORT $LN6@update_hav

; 468  : 	{
; 469  : 		fast_rotate_ground_radar_scan_datum_left ();

  0002f	e8 00 00 00 00	 call	 ?fast_rotate_ground_radar_scan_datum_left@@YGXXZ ; fast_rotate_ground_radar_scan_datum_left

; 470  : 
; 471  : 		single_target_acquisition_system_steer_left_fast_key--;

  00034	a1 00 00 00 00	 mov	 eax, DWORD PTR ?single_target_acquisition_system_steer_left_fast_key@@3HA ; single_target_acquisition_system_steer_left_fast_key
  00039	83 e8 01	 sub	 eax, 1
  0003c	a3 00 00 00 00	 mov	 DWORD PTR ?single_target_acquisition_system_steer_left_fast_key@@3HA, eax ; single_target_acquisition_system_steer_left_fast_key

; 472  : 	}

  00041	eb e3		 jmp	 SHORT $LN4@update_hav
$LN6@update_hav:

; 473  : 
; 474  : 	////////////////////////////////////////
; 475  : 
; 476  : 	while (single_target_acquisition_system_steer_right_key)

  00043	83 3d 00 00 00
	00 00		 cmp	 DWORD PTR ?single_target_acquisition_system_steer_right_key@@3HA, 0 ; single_target_acquisition_system_steer_right_key
  0004a	74 14		 je	 SHORT $LN8@update_hav

; 477  : 	{
; 478  : 		rotate_ground_radar_scan_datum_right ();

  0004c	e8 00 00 00 00	 call	 ?rotate_ground_radar_scan_datum_right@@YGXXZ ; rotate_ground_radar_scan_datum_right

; 479  : 
; 480  : 		single_target_acquisition_system_steer_right_key--;

  00051	a1 00 00 00 00	 mov	 eax, DWORD PTR ?single_target_acquisition_system_steer_right_key@@3HA ; single_target_acquisition_system_steer_right_key
  00056	83 e8 01	 sub	 eax, 1
  00059	a3 00 00 00 00	 mov	 DWORD PTR ?single_target_acquisition_system_steer_right_key@@3HA, eax ; single_target_acquisition_system_steer_right_key

; 481  : 	}

  0005e	eb e3		 jmp	 SHORT $LN6@update_hav
$LN8@update_hav:

; 482  : 
; 483  : 	while (single_target_acquisition_system_steer_right_fast_key)

  00060	83 3d 00 00 00
	00 00		 cmp	 DWORD PTR ?single_target_acquisition_system_steer_right_fast_key@@3HA, 0 ; single_target_acquisition_system_steer_right_fast_key
  00067	74 14		 je	 SHORT $LN10@update_hav

; 484  : 	{
; 485  : 		fast_rotate_ground_radar_scan_datum_right ();

  00069	e8 00 00 00 00	 call	 ?fast_rotate_ground_radar_scan_datum_right@@YGXXZ ; fast_rotate_ground_radar_scan_datum_right

; 486  : 
; 487  : 		single_target_acquisition_system_steer_right_fast_key--;

  0006e	a1 00 00 00 00	 mov	 eax, DWORD PTR ?single_target_acquisition_system_steer_right_fast_key@@3HA ; single_target_acquisition_system_steer_right_fast_key
  00073	83 e8 01	 sub	 eax, 1
  00076	a3 00 00 00 00	 mov	 DWORD PTR ?single_target_acquisition_system_steer_right_fast_key@@3HA, eax ; single_target_acquisition_system_steer_right_fast_key

; 488  : 	}

  0007b	eb e3		 jmp	 SHORT $LN8@update_hav
$LN10@update_hav:

; 489  : 
; 490  : 	////////////////////////////////////////
; 491  : 
; 492  : 	while (single_target_acquisition_system_steer_up_key)

  0007d	83 3d 00 00 00
	00 00		 cmp	 DWORD PTR ?single_target_acquisition_system_steer_up_key@@3HA, 0 ; single_target_acquisition_system_steer_up_key
  00084	74 14		 je	 SHORT $LN12@update_hav

; 493  : 	{
; 494  : 		inc_ground_radar_scan_arc_size ();

  00086	e8 00 00 00 00	 call	 ?inc_ground_radar_scan_arc_size@@YGXXZ ; inc_ground_radar_scan_arc_size

; 495  : 
; 496  : 		single_target_acquisition_system_steer_up_key--;

  0008b	a1 00 00 00 00	 mov	 eax, DWORD PTR ?single_target_acquisition_system_steer_up_key@@3HA ; single_target_acquisition_system_steer_up_key
  00090	83 e8 01	 sub	 eax, 1
  00093	a3 00 00 00 00	 mov	 DWORD PTR ?single_target_acquisition_system_steer_up_key@@3HA, eax ; single_target_acquisition_system_steer_up_key

; 497  : 	}

  00098	eb e3		 jmp	 SHORT $LN10@update_hav
$LN12@update_hav:

; 498  : 
; 499  : 	while (single_target_acquisition_system_steer_up_fast_key)

  0009a	83 3d 00 00 00
	00 00		 cmp	 DWORD PTR ?single_target_acquisition_system_steer_up_fast_key@@3HA, 0 ; single_target_acquisition_system_steer_up_fast_key
  000a1	74 14		 je	 SHORT $LN14@update_hav

; 500  : 	{
; 501  : 		fast_inc_ground_radar_scan_arc_size ();

  000a3	e8 00 00 00 00	 call	 ?fast_inc_ground_radar_scan_arc_size@@YGXXZ ; fast_inc_ground_radar_scan_arc_size

; 502  : 
; 503  : 		single_target_acquisition_system_steer_up_fast_key--;

  000a8	a1 00 00 00 00	 mov	 eax, DWORD PTR ?single_target_acquisition_system_steer_up_fast_key@@3HA ; single_target_acquisition_system_steer_up_fast_key
  000ad	83 e8 01	 sub	 eax, 1
  000b0	a3 00 00 00 00	 mov	 DWORD PTR ?single_target_acquisition_system_steer_up_fast_key@@3HA, eax ; single_target_acquisition_system_steer_up_fast_key

; 504  : 	}

  000b5	eb e3		 jmp	 SHORT $LN12@update_hav
$LN14@update_hav:

; 505  : 
; 506  : 	////////////////////////////////////////
; 507  : 
; 508  : 	while (single_target_acquisition_system_steer_down_key)

  000b7	83 3d 00 00 00
	00 00		 cmp	 DWORD PTR ?single_target_acquisition_system_steer_down_key@@3HA, 0 ; single_target_acquisition_system_steer_down_key
  000be	74 14		 je	 SHORT $LN16@update_hav

; 509  : 	{
; 510  : 		dec_ground_radar_scan_arc_size ();

  000c0	e8 00 00 00 00	 call	 ?dec_ground_radar_scan_arc_size@@YGXXZ ; dec_ground_radar_scan_arc_size

; 511  : 
; 512  : 		single_target_acquisition_system_steer_down_key--;

  000c5	a1 00 00 00 00	 mov	 eax, DWORD PTR ?single_target_acquisition_system_steer_down_key@@3HA ; single_target_acquisition_system_steer_down_key
  000ca	83 e8 01	 sub	 eax, 1
  000cd	a3 00 00 00 00	 mov	 DWORD PTR ?single_target_acquisition_system_steer_down_key@@3HA, eax ; single_target_acquisition_system_steer_down_key

; 513  : 	}

  000d2	eb e3		 jmp	 SHORT $LN14@update_hav
$LN16@update_hav:

; 514  : 
; 515  : 	while (single_target_acquisition_system_steer_down_fast_key)

  000d4	83 3d 00 00 00
	00 00		 cmp	 DWORD PTR ?single_target_acquisition_system_steer_down_fast_key@@3HA, 0 ; single_target_acquisition_system_steer_down_fast_key
  000db	74 14		 je	 SHORT $LN18@update_hav

; 516  : 	{
; 517  : 		fast_dec_ground_radar_scan_arc_size ();

  000dd	e8 00 00 00 00	 call	 ?fast_dec_ground_radar_scan_arc_size@@YGXXZ ; fast_dec_ground_radar_scan_arc_size

; 518  : 
; 519  : 		single_target_acquisition_system_steer_down_fast_key--;

  000e2	a1 00 00 00 00	 mov	 eax, DWORD PTR ?single_target_acquisition_system_steer_down_fast_key@@3HA ; single_target_acquisition_system_steer_down_fast_key
  000e7	83 e8 01	 sub	 eax, 1
  000ea	a3 00 00 00 00	 mov	 DWORD PTR ?single_target_acquisition_system_steer_down_fast_key@@3HA, eax ; single_target_acquisition_system_steer_down_fast_key

; 520  : 	}

  000ef	eb e3		 jmp	 SHORT $LN16@update_hav
$LN18@update_hav:

; 521  : 
; 522  : 	////////////////////////////////////////
; 523  : 
; 524  : 	while (single_target_acquisition_system_inc_range_key)

  000f1	83 3d 00 00 00
	00 00		 cmp	 DWORD PTR ?single_target_acquisition_system_inc_range_key@@3HA, 0 ; single_target_acquisition_system_inc_range_key
  000f8	74 14		 je	 SHORT $LN20@update_hav

; 525  : 	{
; 526  : 		inc_ground_radar_scan_range ();

  000fa	e8 00 00 00 00	 call	 ?inc_ground_radar_scan_range@@YGXXZ ; inc_ground_radar_scan_range

; 527  : 
; 528  : 		single_target_acquisition_system_inc_range_key--;

  000ff	a1 00 00 00 00	 mov	 eax, DWORD PTR ?single_target_acquisition_system_inc_range_key@@3HA ; single_target_acquisition_system_inc_range_key
  00104	83 e8 01	 sub	 eax, 1
  00107	a3 00 00 00 00	 mov	 DWORD PTR ?single_target_acquisition_system_inc_range_key@@3HA, eax ; single_target_acquisition_system_inc_range_key

; 529  : 	}

  0010c	eb e3		 jmp	 SHORT $LN18@update_hav
$LN20@update_hav:

; 530  : 
; 531  : 	while (single_target_acquisition_system_inc_range_fast_key)

  0010e	83 3d 00 00 00
	00 00		 cmp	 DWORD PTR ?single_target_acquisition_system_inc_range_fast_key@@3HA, 0 ; single_target_acquisition_system_inc_range_fast_key
  00115	74 14		 je	 SHORT $LN22@update_hav

; 532  : 	{
; 533  : 		fast_inc_ground_radar_scan_range ();

  00117	e8 00 00 00 00	 call	 ?fast_inc_ground_radar_scan_range@@YGXXZ ; fast_inc_ground_radar_scan_range

; 534  : 
; 535  : 		single_target_acquisition_system_inc_range_fast_key--;

  0011c	a1 00 00 00 00	 mov	 eax, DWORD PTR ?single_target_acquisition_system_inc_range_fast_key@@3HA ; single_target_acquisition_system_inc_range_fast_key
  00121	83 e8 01	 sub	 eax, 1
  00124	a3 00 00 00 00	 mov	 DWORD PTR ?single_target_acquisition_system_inc_range_fast_key@@3HA, eax ; single_target_acquisition_system_inc_range_fast_key

; 536  : 	}

  00129	eb e3		 jmp	 SHORT $LN20@update_hav
$LN22@update_hav:

; 537  : 
; 538  : 	////////////////////////////////////////
; 539  : 
; 540  : 	while (single_target_acquisition_system_dec_range_key)

  0012b	83 3d 00 00 00
	00 00		 cmp	 DWORD PTR ?single_target_acquisition_system_dec_range_key@@3HA, 0 ; single_target_acquisition_system_dec_range_key
  00132	74 14		 je	 SHORT $LN24@update_hav

; 541  : 	{
; 542  : 		dec_ground_radar_scan_range ();

  00134	e8 00 00 00 00	 call	 ?dec_ground_radar_scan_range@@YGXXZ ; dec_ground_radar_scan_range

; 543  : 
; 544  : 		single_target_acquisition_system_dec_range_key--;

  00139	a1 00 00 00 00	 mov	 eax, DWORD PTR ?single_target_acquisition_system_dec_range_key@@3HA ; single_target_acquisition_system_dec_range_key
  0013e	83 e8 01	 sub	 eax, 1
  00141	a3 00 00 00 00	 mov	 DWORD PTR ?single_target_acquisition_system_dec_range_key@@3HA, eax ; single_target_acquisition_system_dec_range_key

; 545  : 	}

  00146	eb e3		 jmp	 SHORT $LN22@update_hav
$LN24@update_hav:

; 546  : 
; 547  : 	while (single_target_acquisition_system_dec_range_fast_key)

  00148	83 3d 00 00 00
	00 00		 cmp	 DWORD PTR ?single_target_acquisition_system_dec_range_fast_key@@3HA, 0 ; single_target_acquisition_system_dec_range_fast_key
  0014f	74 14		 je	 SHORT $LN26@update_hav

; 548  : 	{
; 549  : 		fast_dec_ground_radar_scan_range ();

  00151	e8 00 00 00 00	 call	 ?fast_dec_ground_radar_scan_range@@YGXXZ ; fast_dec_ground_radar_scan_range

; 550  : 
; 551  : 		single_target_acquisition_system_dec_range_fast_key--;

  00156	a1 00 00 00 00	 mov	 eax, DWORD PTR ?single_target_acquisition_system_dec_range_fast_key@@3HA ; single_target_acquisition_system_dec_range_fast_key
  0015b	83 e8 01	 sub	 eax, 1
  0015e	a3 00 00 00 00	 mov	 DWORD PTR ?single_target_acquisition_system_dec_range_fast_key@@3HA, eax ; single_target_acquisition_system_dec_range_fast_key

; 552  : 	}

  00163	eb e3		 jmp	 SHORT $LN24@update_hav
$LN26@update_hav:

; 553  : 
; 554  : 	////////////////////////////////////////
; 555  : 
; 556  : 	while (single_target_acquisition_system_inc_target_priority_key)

  00165	83 3d 00 00 00
	00 00		 cmp	 DWORD PTR ?single_target_acquisition_system_inc_target_priority_key@@3HA, 0 ; single_target_acquisition_system_inc_target_priority_key
  0016c	74 14		 je	 SHORT $LN28@update_hav

; 557  : 	{
; 558  : 		inc_ground_radar_target_priority ();

  0016e	e8 00 00 00 00	 call	 ?inc_ground_radar_target_priority@@YGXXZ ; inc_ground_radar_target_priority

; 559  : 
; 560  : 		single_target_acquisition_system_inc_target_priority_key--;

  00173	a1 00 00 00 00	 mov	 eax, DWORD PTR ?single_target_acquisition_system_inc_target_priority_key@@3HA ; single_target_acquisition_system_inc_target_priority_key
  00178	83 e8 01	 sub	 eax, 1
  0017b	a3 00 00 00 00	 mov	 DWORD PTR ?single_target_acquisition_system_inc_target_priority_key@@3HA, eax ; single_target_acquisition_system_inc_target_priority_key

; 561  : 	}

  00180	eb e3		 jmp	 SHORT $LN26@update_hav
$LN28@update_hav:

; 562  : 
; 563  : 	while (single_target_acquisition_system_inc_target_priority_fast_key)

  00182	83 3d 00 00 00
	00 00		 cmp	 DWORD PTR ?single_target_acquisition_system_inc_target_priority_fast_key@@3HA, 0 ; single_target_acquisition_system_inc_target_priority_fast_key
  00189	74 14		 je	 SHORT $LN30@update_hav

; 564  : 	{
; 565  : 		fast_inc_ground_radar_target_priority ();

  0018b	e8 00 00 00 00	 call	 ?fast_inc_ground_radar_target_priority@@YGXXZ ; fast_inc_ground_radar_target_priority

; 566  : 
; 567  : 		single_target_acquisition_system_inc_target_priority_fast_key--;

  00190	a1 00 00 00 00	 mov	 eax, DWORD PTR ?single_target_acquisition_system_inc_target_priority_fast_key@@3HA ; single_target_acquisition_system_inc_target_priority_fast_key
  00195	83 e8 01	 sub	 eax, 1
  00198	a3 00 00 00 00	 mov	 DWORD PTR ?single_target_acquisition_system_inc_target_priority_fast_key@@3HA, eax ; single_target_acquisition_system_inc_target_priority_fast_key

; 568  : 	}

  0019d	eb e3		 jmp	 SHORT $LN28@update_hav
$LN30@update_hav:

; 569  : 
; 570  : 	////////////////////////////////////////
; 571  : 
; 572  : 	while (single_target_acquisition_system_dec_target_priority_key)

  0019f	83 3d 00 00 00
	00 00		 cmp	 DWORD PTR ?single_target_acquisition_system_dec_target_priority_key@@3HA, 0 ; single_target_acquisition_system_dec_target_priority_key
  001a6	74 14		 je	 SHORT $LN32@update_hav

; 573  : 	{
; 574  : 		dec_ground_radar_target_priority ();

  001a8	e8 00 00 00 00	 call	 ?dec_ground_radar_target_priority@@YGXXZ ; dec_ground_radar_target_priority

; 575  : 
; 576  : 		single_target_acquisition_system_dec_target_priority_key--;

  001ad	a1 00 00 00 00	 mov	 eax, DWORD PTR ?single_target_acquisition_system_dec_target_priority_key@@3HA ; single_target_acquisition_system_dec_target_priority_key
  001b2	83 e8 01	 sub	 eax, 1
  001b5	a3 00 00 00 00	 mov	 DWORD PTR ?single_target_acquisition_system_dec_target_priority_key@@3HA, eax ; single_target_acquisition_system_dec_target_priority_key

; 577  : 	}

  001ba	eb e3		 jmp	 SHORT $LN30@update_hav
$LN32@update_hav:

; 578  : 
; 579  : 	while (single_target_acquisition_system_dec_target_priority_fast_key)

  001bc	83 3d 00 00 00
	00 00		 cmp	 DWORD PTR ?single_target_acquisition_system_dec_target_priority_fast_key@@3HA, 0 ; single_target_acquisition_system_dec_target_priority_fast_key
  001c3	74 14		 je	 SHORT $LN34@update_hav

; 580  : 	{
; 581  : 		fast_dec_ground_radar_target_priority ();

  001c5	e8 00 00 00 00	 call	 ?fast_dec_ground_radar_target_priority@@YGXXZ ; fast_dec_ground_radar_target_priority

; 582  : 
; 583  : 		single_target_acquisition_system_dec_target_priority_fast_key--;

  001ca	a1 00 00 00 00	 mov	 eax, DWORD PTR ?single_target_acquisition_system_dec_target_priority_fast_key@@3HA ; single_target_acquisition_system_dec_target_priority_fast_key
  001cf	83 e8 01	 sub	 eax, 1
  001d2	a3 00 00 00 00	 mov	 DWORD PTR ?single_target_acquisition_system_dec_target_priority_fast_key@@3HA, eax ; single_target_acquisition_system_dec_target_priority_fast_key

; 584  : 	}

  001d7	eb e3		 jmp	 SHORT $LN32@update_hav
$LN34@update_hav:

; 585  : 
; 586  : 	////////////////////////////////////////
; 587  : 
; 588  : 	while (single_target_acquisition_system_select_next_target_key)

  001d9	83 3d 00 00 00
	00 00		 cmp	 DWORD PTR ?single_target_acquisition_system_select_next_target_key@@3HA, 0 ; single_target_acquisition_system_select_next_target_key
  001e0	74 14		 je	 SHORT $LN36@update_hav

; 589  : 	{
; 590  : 		select_next_ground_radar_target ();

  001e2	e8 00 00 00 00	 call	 ?select_next_ground_radar_target@@YGXXZ ; select_next_ground_radar_target

; 591  : 
; 592  : 		single_target_acquisition_system_select_next_target_key--;

  001e7	a1 00 00 00 00	 mov	 eax, DWORD PTR ?single_target_acquisition_system_select_next_target_key@@3HA ; single_target_acquisition_system_select_next_target_key
  001ec	83 e8 01	 sub	 eax, 1
  001ef	a3 00 00 00 00	 mov	 DWORD PTR ?single_target_acquisition_system_select_next_target_key@@3HA, eax ; single_target_acquisition_system_select_next_target_key

; 593  : 	}

  001f4	eb e3		 jmp	 SHORT $LN34@update_hav
$LN36@update_hav:

; 594  : 
; 595  : 	////////////////////////////////////////
; 596  : 
; 597  : 	while (single_target_acquisition_system_select_previous_target_key)

  001f6	83 3d 00 00 00
	00 00		 cmp	 DWORD PTR ?single_target_acquisition_system_select_previous_target_key@@3HA, 0 ; single_target_acquisition_system_select_previous_target_key
  001fd	74 14		 je	 SHORT $LN38@update_hav

; 598  : 	{
; 599  : 		select_previous_ground_radar_target ();

  001ff	e8 00 00 00 00	 call	 ?select_previous_ground_radar_target@@YGXXZ ; select_previous_ground_radar_target

; 600  : 
; 601  : 		single_target_acquisition_system_select_previous_target_key--;

  00204	a1 00 00 00 00	 mov	 eax, DWORD PTR ?single_target_acquisition_system_select_previous_target_key@@3HA ; single_target_acquisition_system_select_previous_target_key
  00209	83 e8 01	 sub	 eax, 1
  0020c	a3 00 00 00 00	 mov	 DWORD PTR ?single_target_acquisition_system_select_previous_target_key@@3HA, eax ; single_target_acquisition_system_select_previous_target_key

; 602  : 	}

  00211	eb e3		 jmp	 SHORT $LN36@update_hav
$LN38@update_hav:

; 603  : // Jabberwock 031107 Designated targets
; 604  : 	
; 605  : 	while (single_target_acquisition_system_select_next_designated_key)

  00213	83 3d 00 00 00
	00 00		 cmp	 DWORD PTR ?single_target_acquisition_system_select_next_designated_key@@3HA, 0 ; single_target_acquisition_system_select_next_designated_key
  0021a	74 14		 je	 SHORT $LN40@update_hav

; 606  : 	{
; 607  : 		select_next_designated_ground_radar_target ();

  0021c	e8 00 00 00 00	 call	 ?select_next_designated_ground_radar_target@@YGXXZ ; select_next_designated_ground_radar_target

; 608  : 
; 609  : 		single_target_acquisition_system_select_next_designated_key--;

  00221	a1 00 00 00 00	 mov	 eax, DWORD PTR ?single_target_acquisition_system_select_next_designated_key@@3HA ; single_target_acquisition_system_select_next_designated_key
  00226	83 e8 01	 sub	 eax, 1
  00229	a3 00 00 00 00	 mov	 DWORD PTR ?single_target_acquisition_system_select_next_designated_key@@3HA, eax ; single_target_acquisition_system_select_next_designated_key

; 610  : 	}

  0022e	eb e3		 jmp	 SHORT $LN38@update_hav
$LN40@update_hav:

; 611  : 
; 612  : 	////////////////////////////////////////
; 613  : 
; 614  : 	while (single_target_acquisition_system_select_previous_designated_key)

  00230	83 3d 00 00 00
	00 00		 cmp	 DWORD PTR ?single_target_acquisition_system_select_previous_designated_key@@3HA, 0 ; single_target_acquisition_system_select_previous_designated_key
  00237	74 14		 je	 SHORT $LN1@update_hav

; 615  : 	{
; 616  : 		select_next_designated_ground_radar_target ();

  00239	e8 00 00 00 00	 call	 ?select_next_designated_ground_radar_target@@YGXXZ ; select_next_designated_ground_radar_target

; 617  : 
; 618  : 		single_target_acquisition_system_select_previous_designated_key--;

  0023e	a1 00 00 00 00	 mov	 eax, DWORD PTR ?single_target_acquisition_system_select_previous_designated_key@@3HA ; single_target_acquisition_system_select_previous_designated_key
  00243	83 e8 01	 sub	 eax, 1
  00246	a3 00 00 00 00	 mov	 DWORD PTR ?single_target_acquisition_system_select_previous_designated_key@@3HA, eax ; single_target_acquisition_system_select_previous_designated_key

; 619  : 	}	

  0024b	eb e3		 jmp	 SHORT $LN40@update_hav
$LN1@update_hav:

; 620  : // Jabberwock 031107 ends	
; 621  : 
; 622  : }

  0024d	5f		 pop	 edi
  0024e	5e		 pop	 esi
  0024f	5b		 pop	 ebx
  00250	8b e5		 mov	 esp, ebp
  00252	5d		 pop	 ebp
  00253	c3		 ret	 0
?update_havoc_ground_radar@@YGXXZ ENDP			; update_havoc_ground_radar
_TEXT	ENDS
; Function compile flags: /Odtp /ZI
; File c:\users\nhv90\projects\eech\aphavoc\source\gunships\avionics\havoc\ha_radar.c
;	COMDAT ?deinitialise_havoc_radar@@YGXXZ
_TEXT	SEGMENT
?deinitialise_havoc_radar@@YGXXZ PROC			; deinitialise_havoc_radar, COMDAT

; 125  : {

  00000	55		 push	 ebp
  00001	8b ec		 mov	 ebp, esp
  00003	83 ec 40	 sub	 esp, 64			; 00000040H
  00006	53		 push	 ebx
  00007	56		 push	 esi
  00008	57		 push	 edi

; 126  : }

  00009	5f		 pop	 edi
  0000a	5e		 pop	 esi
  0000b	5b		 pop	 ebx
  0000c	8b e5		 mov	 esp, ebp
  0000e	5d		 pop	 ebp
  0000f	c3		 ret	 0
?deinitialise_havoc_radar@@YGXXZ ENDP			; deinitialise_havoc_radar
_TEXT	ENDS
; Function compile flags: /Odtp /ZI
; File c:\users\nhv90\projects\eech\aphavoc\source\gunships\avionics\havoc\ha_radar.c
;	COMDAT ?initialise_havoc_radar@@YGXXZ
_TEXT	SEGMENT
?initialise_havoc_radar@@YGXXZ PROC			; initialise_havoc_radar, COMDAT

; 86   : {

  00000	55		 push	 ebp
  00001	8b ec		 mov	 ebp, esp
  00003	83 ec 40	 sub	 esp, 64			; 00000040H
  00006	53		 push	 ebx
  00007	56		 push	 esi
  00008	57		 push	 edi

; 87   : //VJ 030807 radar range adjustable 
; 88   :   	HAVOC_RADAR_SCAN_RANGE_1000 = radar_range_havoc[0];	

  00009	b8 04 00 00 00	 mov	 eax, 4
  0000e	6b c8 00	 imul	 ecx, eax, 0
  00011	f3 0f 10 81 00
	00 00 00	 movss	 xmm0, DWORD PTR ?radar_range_havoc@@3PAMA[ecx]
  00019	f3 0f 11 05 00
	00 00 00	 movss	 DWORD PTR ?HAVOC_RADAR_SCAN_RANGE_1000@@3MA, xmm0

; 89   : 	HAVOC_RADAR_SCAN_RANGE_2000 = radar_range_havoc[1];

  00021	b8 04 00 00 00	 mov	 eax, 4
  00026	c1 e0 00	 shl	 eax, 0
  00029	f3 0f 10 80 00
	00 00 00	 movss	 xmm0, DWORD PTR ?radar_range_havoc@@3PAMA[eax]
  00031	f3 0f 11 05 00
	00 00 00	 movss	 DWORD PTR ?HAVOC_RADAR_SCAN_RANGE_2000@@3MA, xmm0

; 90   : 	HAVOC_RADAR_SCAN_RANGE_4000 = radar_range_havoc[2];			

  00039	b8 04 00 00 00	 mov	 eax, 4
  0003e	d1 e0		 shl	 eax, 1
  00040	f3 0f 10 80 00
	00 00 00	 movss	 xmm0, DWORD PTR ?radar_range_havoc@@3PAMA[eax]
  00048	f3 0f 11 05 00
	00 00 00	 movss	 DWORD PTR ?HAVOC_RADAR_SCAN_RANGE_4000@@3MA, xmm0

; 91   : 	HAVOC_RADAR_SCAN_RANGE_6000 =	radar_range_havoc[3];		

  00050	b8 04 00 00 00	 mov	 eax, 4
  00055	6b c8 03	 imul	 ecx, eax, 3
  00058	f3 0f 10 81 00
	00 00 00	 movss	 xmm0, DWORD PTR ?radar_range_havoc@@3PAMA[ecx]
  00060	f3 0f 11 05 00
	00 00 00	 movss	 DWORD PTR ?HAVOC_RADAR_SCAN_RANGE_6000@@3MA, xmm0

; 92   : 	
; 93   : 	ground_radar.scan_range			  		= HAVOC_RADAR_SCAN_RANGE_6000;

  00068	f3 0f 10 05 00
	00 00 00	 movss	 xmm0, DWORD PTR ?HAVOC_RADAR_SCAN_RANGE_6000@@3MA
  00070	f3 0f 11 05 00
	00 00 00	 movss	 DWORD PTR ?ground_radar@@3URADAR_PARAMS@@A, xmm0

; 94   : 	ground_radar.scan_datum	  	  	  		= rad (0.0);

  00078	0f 57 c0	 xorps	 xmm0, xmm0
  0007b	f3 0f 11 05 04
	00 00 00	 movss	 DWORD PTR ?ground_radar@@3URADAR_PARAMS@@A+4, xmm0

; 95   : 	ground_radar.scan_arc_size	  	  		= HAVOC_RADAR_SCAN_ARC_SIZE_90;

  00083	f3 0f 10 05 00
	00 00 00	 movss	 xmm0, DWORD PTR __real@3fc90fdb
  0008b	f3 0f 11 05 08
	00 00 00	 movss	 DWORD PTR ?ground_radar@@3URADAR_PARAMS@@A+8, xmm0

; 96   : 	ground_radar.sweep_offset	  	  		= rad (0.0);

  00093	0f 57 c0	 xorps	 xmm0, xmm0
  00096	f3 0f 11 05 0c
	00 00 00	 movss	 DWORD PTR ?ground_radar@@3URADAR_PARAMS@@A+12, xmm0

; 97   : 	ground_radar.sweep_rate		  	  		= rad (360.0) / 6.0;

  0009e	f3 0f 10 05 00
	00 00 00	 movss	 xmm0, DWORD PTR __real@3f860a92
  000a6	f3 0f 11 05 10
	00 00 00	 movss	 DWORD PTR ?ground_radar@@3URADAR_PARAMS@@A+16, xmm0

; 98   : 	ground_radar.sweep_direction 	 		= RADAR_SWEEP_CW;

  000ae	f3 0f 10 05 00
	00 00 00	 movss	 xmm0, DWORD PTR __real@3f800000
  000b6	f3 0f 11 05 14
	00 00 00	 movss	 DWORD PTR ?ground_radar@@3URADAR_PARAMS@@A+20, xmm0

; 99   : 	ground_radar.max_target_track_range	= HAVOC_RADAR_SCAN_RANGE_6000 + 2000.0;

  000be	f3 0f 5a 05 00
	00 00 00	 cvtss2sd xmm0, DWORD PTR ?HAVOC_RADAR_SCAN_RANGE_6000@@3MA
  000c6	f2 0f 58 05 00
	00 00 00	 addsd	 xmm0, QWORD PTR __real@409f400000000000
  000ce	f2 0f 5a c0	 cvtsd2ss xmm0, xmm0
  000d2	f3 0f 11 05 18
	00 00 00	 movss	 DWORD PTR ?ground_radar@@3URADAR_PARAMS@@A+24, xmm0

; 100  : 	ground_radar.show_allied_targets		= TRUE;

  000da	c7 05 1c 00 00
	00 01 00 00 00	 mov	 DWORD PTR ?ground_radar@@3URADAR_PARAMS@@A+28, 1

; 101  : 	ground_radar.target_locked				= FALSE;

  000e4	c7 05 20 00 00
	00 00 00 00 00	 mov	 DWORD PTR ?ground_radar@@3URADAR_PARAMS@@A+32, 0

; 102  : 	ground_radar.auto_target				= TRUE;

  000ee	c7 05 24 00 00
	00 01 00 00 00	 mov	 DWORD PTR ?ground_radar@@3URADAR_PARAMS@@A+36, 1

; 103  : 	ground_radar.target_priority_type	= TARGET_PRIORITY_UNKNOWN;

  000f8	c7 05 2c 00 00
	00 00 00 00 00	 mov	 DWORD PTR ?ground_radar@@3URADAR_PARAMS@@A+44, 0

; 104  : 	ground_radar.sweep_mode	  				= RADAR_SWEEP_MODE_CONTINUOUS;

  00102	c7 05 28 00 00
	00 00 00 00 00	 mov	 DWORD PTR ?ground_radar@@3URADAR_PARAMS@@A+40, 0

; 105  : 
; 106  : 	air_radar.scan_range		  		  		= HAVOC_RADAR_SCAN_RANGE_6000;

  0010c	f3 0f 10 05 00
	00 00 00	 movss	 xmm0, DWORD PTR ?HAVOC_RADAR_SCAN_RANGE_6000@@3MA
  00114	f3 0f 11 05 00
	00 00 00	 movss	 DWORD PTR ?air_radar@@3URADAR_PARAMS@@A, xmm0

; 107  : 	air_radar.scan_datum	  	  		  		= rad (0.0);

  0011c	0f 57 c0	 xorps	 xmm0, xmm0
  0011f	f3 0f 11 05 04
	00 00 00	 movss	 DWORD PTR ?air_radar@@3URADAR_PARAMS@@A+4, xmm0

; 108  : 	air_radar.scan_arc_size	  		  		= HAVOC_RADAR_SCAN_ARC_SIZE_360;

  00127	f3 0f 10 05 00
	00 00 00	 movss	 xmm0, DWORD PTR __real@40c90fdb
  0012f	f3 0f 11 05 08
	00 00 00	 movss	 DWORD PTR ?air_radar@@3URADAR_PARAMS@@A+8, xmm0

; 109  : 	air_radar.sweep_offset	  		  		= rad (0.0);

  00137	0f 57 c0	 xorps	 xmm0, xmm0
  0013a	f3 0f 11 05 0c
	00 00 00	 movss	 DWORD PTR ?air_radar@@3URADAR_PARAMS@@A+12, xmm0

; 110  : 	air_radar.sweep_rate		  		  		= rad (360.0) / 6.0;

  00142	f3 0f 10 05 00
	00 00 00	 movss	 xmm0, DWORD PTR __real@3f860a92
  0014a	f3 0f 11 05 10
	00 00 00	 movss	 DWORD PTR ?air_radar@@3URADAR_PARAMS@@A+16, xmm0

; 111  : 	air_radar.sweep_direction 		  		= RADAR_SWEEP_CW;

  00152	f3 0f 10 05 00
	00 00 00	 movss	 xmm0, DWORD PTR __real@3f800000
  0015a	f3 0f 11 05 14
	00 00 00	 movss	 DWORD PTR ?air_radar@@3URADAR_PARAMS@@A+20, xmm0

; 112  : 	air_radar.max_target_track_range		= HAVOC_RADAR_SCAN_RANGE_6000 + 2000.0;

  00162	f3 0f 5a 05 00
	00 00 00	 cvtss2sd xmm0, DWORD PTR ?HAVOC_RADAR_SCAN_RANGE_6000@@3MA
  0016a	f2 0f 58 05 00
	00 00 00	 addsd	 xmm0, QWORD PTR __real@409f400000000000
  00172	f2 0f 5a c0	 cvtsd2ss xmm0, xmm0
  00176	f3 0f 11 05 18
	00 00 00	 movss	 DWORD PTR ?air_radar@@3URADAR_PARAMS@@A+24, xmm0

; 113  : 	air_radar.show_allied_targets			= TRUE;

  0017e	c7 05 1c 00 00
	00 01 00 00 00	 mov	 DWORD PTR ?air_radar@@3URADAR_PARAMS@@A+28, 1

; 114  : 	air_radar.target_locked					= FALSE;

  00188	c7 05 20 00 00
	00 00 00 00 00	 mov	 DWORD PTR ?air_radar@@3URADAR_PARAMS@@A+32, 0

; 115  : 	air_radar.auto_target					= TRUE;

  00192	c7 05 24 00 00
	00 01 00 00 00	 mov	 DWORD PTR ?air_radar@@3URADAR_PARAMS@@A+36, 1

; 116  : 	air_radar.target_priority_type		= TARGET_PRIORITY_UNKNOWN;

  0019c	c7 05 2c 00 00
	00 00 00 00 00	 mov	 DWORD PTR ?air_radar@@3URADAR_PARAMS@@A+44, 0

; 117  : 	air_radar.sweep_mode		 				= RADAR_SWEEP_MODE_CONTINUOUS;

  001a6	c7 05 28 00 00
	00 00 00 00 00	 mov	 DWORD PTR ?air_radar@@3URADAR_PARAMS@@A+40, 0

; 118  : }

  001b0	5f		 pop	 edi
  001b1	5e		 pop	 esi
  001b2	5b		 pop	 ebx
  001b3	8b e5		 mov	 esp, ebp
  001b5	5d		 pop	 ebp
  001b6	c3		 ret	 0
?initialise_havoc_radar@@YGXXZ ENDP			; initialise_havoc_radar
_TEXT	ENDS
END
