; Listing generated by Microsoft (R) Optimizing Compiler Version 19.16.27045.0 

	TITLE	C:\Users\nhv90\Projects\eech\aphavoc\source\entity\mobile\aircraft\helicop\hc_creat.c
	.686P
	.XMM
	include listing.inc
	.model	flat

INCLUDELIB MSVCRTD
INCLUDELIB OLDNAMES

PUBLIC	?overload_helicopter_create_functions@@YGXXZ	; overload_helicopter_create_functions
PUBLIC	?create_client_server_entity_helicopter@@YGPAUENTITY@@HHPAU1@PAUVEC3D@@@Z ; create_client_server_entity_helicopter
PUBLIC	?__LINE__Var@?0??create_local@@YGPAUENTITY@@W4ENTITY_TYPES@@HPAD@Z@4JA ; `create_local'::`1'::__LINE__Var
PUBLIC	??_C@_0FG@KGLCEJMF@c?3?2users?2nhv90?2projects?2eech?2ap@ ; `string'
PUBLIC	??_C@_0CL@OOPHFNJI@assert_local_create_entity_inde@ ; `string'
PUBLIC	??_C@_0BL@KLFILFGE@raw?9?$DOac?4member_link?4parent@ ; `string'
PUBLIC	??_C@_0EI@LMPOBACG@get_local_entity_type?5?$CIraw?9?$DOac?4@ ; `string'
PUBLIC	??_C@_0CI@CGPGOOPC@raw?9?$DOac?4mob?4side?5?$CB?$DN?5ENTITY_SIDE@ ; `string'
PUBLIC	??_C@_0DG@KEJHCNJ@entity_sub_type_aircraft_valid?5@ ; `string'
PUBLIC	??_C@_0DG@OOAIMCDD@weapon_config_type_valid?5?$CIraw?9?$DO@ ; `string'
PUBLIC	?__LINE__Var@?0??create_remote@@YGPAUENTITY@@W4ENTITY_TYPES@@HPAD@Z@4JA ; `create_remote'::`1'::__LINE__Var
PUBLIC	??_C@_0CM@DHBIKIGD@assert_remote_create_entity_ind@ ; `string'
PUBLIC	?__LINE__Var@?0??create_server@@YGPAUENTITY@@W4ENTITY_TYPES@@HPAD@Z@4JA ; `create_server'::`1'::__LINE__Var
PUBLIC	??_C@_0CB@CFOCLFOK@assert_client_server_local_fn?5?$CI@ ; `string'
PUBLIC	??_C@_0CC@BNNNEGEG@assert_client_server_remote_fn?5@ ; `string'
PUBLIC	?__LINE__Var@?0??create_client@@YGPAUENTITY@@W4ENTITY_TYPES@@HPAD@Z@4JA ; `create_client'::`1'::__LINE__Var
PUBLIC	?__LINE__Var@?0??create_client_server_entity_helicopter@@YGPAUENTITY@@HHPAU2@PAUVEC3D@@@Z@4JA ; `create_client_server_entity_helicopter'::`1'::__LINE__Var
PUBLIC	??_C@_0CI@NLFHFOLH@get_comms_model?$CI?$CJ?5?$DN?$DN?5COMMS_MODE@ ; `string'
PUBLIC	?__LINE__Var@?0??create_helicopter_cockpit_sound_effect@@YGXPAUENTITY@@HH@Z@4JA ; `create_helicopter_cockpit_sound_effect'::`1'::__LINE__Var
PUBLIC	__real@3f10000000000000
PUBLIC	__real@3f800000
PUBLIC	__real@40000000
PUBLIC	__real@400921fb60000000
PUBLIC	__real@49742400
PUBLIC	__real@bf800000
PUBLIC	__real@c61c4000
EXTRN	_memset:PROC
EXTRN	?process_assert@@YGXPBD0H@Z:PROC		; process_assert
EXTRN	?malloc_fast_memory@@YGPAXI@Z:PROC		; malloc_fast_memory
EXTRN	?get_identity_matrix3x3@@YGXQAY02M@Z:PROC	; get_identity_matrix3x3
EXTRN	?construct_3d_object@@YGPAUOBJECT_3D_INSTANCE@@H@Z:PROC ; construct_3d_object
EXTRN	?get_3d_terrain_point_data@@YGMMMPAUTERRAIN_3D_POINT_DATA@@@Z:PROC ; get_3d_terrain_point_data
EXTRN	?set_local_entity_attributes@@YGXPAUENTITY@@PAD@Z:PROC ; set_local_entity_attributes
EXTRN	?insert_local_entity_into_parents_child_list@@YGXPAUENTITY@@W4LIST_TYPES@@00@Z:PROC ; insert_local_entity_into_parents_child_list
EXTRN	?create_client_server_entity@@YAPAUENTITY@@W4ENTITY_TYPES@@HZZ:PROC ; create_client_server_entity
EXTRN	?transmit_entity_comms_message@@YAXW4ENTITY_COMMS_MESSAGES@@PAUENTITY@@ZZ:PROC ; transmit_entity_comms_message
EXTRN	?assert_client_server_local_fn@@YGHXZ:PROC	; assert_client_server_local_fn
EXTRN	?assert_client_server_remote_fn@@YGHXZ:PROC	; assert_client_server_remote_fn
EXTRN	?assert_local_create_entity_index@@YGHH@Z:PROC	; assert_local_create_entity_index
EXTRN	?assert_remote_create_entity_index@@YGHH@Z:PROC	; assert_remote_create_entity_index
EXTRN	?get_free_entity@@YGPAUENTITY@@H@Z:PROC		; get_free_entity
EXTRN	?set_sub_object_type_visible_status@@YGHPAUOBJECT_3D_INSTANCE@@HH@Z:PROC ; set_sub_object_type_visible_status
EXTRN	?deactivate_weapon_payload_markers@@YGXPAUENTITY@@@Z:PROC ; deactivate_weapon_payload_markers
EXTRN	?load_local_entity_weapon_config@@YGXPAUENTITY@@@Z:PROC ; load_local_entity_weapon_config
EXTRN	?create_helicopter_rotor_sound_effects@@YGXPAUENTITY@@@Z:PROC ; create_helicopter_rotor_sound_effects
EXTRN	?set_rotation_angle_of_helicopter_main_rotors@@YGXPAUOBJECT_3D_INSTANCE@@M@Z:PROC ; set_rotation_angle_of_helicopter_main_rotors
EXTRN	?set_rotation_angle_of_helicopter_tail_rotor@@YGXPAUOBJECT_3D_INSTANCE@@M@Z:PROC ; set_rotation_angle_of_helicopter_tail_rotor
EXTRN	?set_helicopter_id_number@@YGXPAUENTITY@@@Z:PROC ; set_helicopter_id_number
EXTRN	?get_local_entity_view_list_pred@@YGPAUENTITY@@PAU1@@Z:PROC ; get_local_entity_view_list_pred
EXTRN	?create_client_server_sound_effect_entity@@YGPAUENTITY@@PAU1@W4ENTITY_SIDES@@HW4SOUND_CHANNEL_TYPES@@W4SOUND_LOCALITY_TYPES@@PAUVEC3D@@MMHHHPAH@Z:PROC ; create_client_server_sound_effect_entity
EXTRN	?get_local_force_entity@@YGPAUENTITY@@W4ENTITY_SIDES@@@Z:PROC ; get_local_force_entity
EXTRN	?add_to_force_info@@YGXPAUENTITY@@0@Z:PROC	; add_to_force_info
EXTRN	?get_local_sector_entity@@YGPAUENTITY@@PAUVEC3D@@@Z:PROC ; get_local_sector_entity
EXTRN	?write_tacview_new_unit@@YGXPAUENTITY@@@Z:PROC	; write_tacview_new_unit
EXTRN	?random_number_seed@@3HA:DWORD			; random_number_seed
EXTRN	?null_entity_pointer_message@@3PBDB:DWORD	; null_entity_pointer_message
EXTRN	?system_comms_model@@3W4COMMS_MODEL_TYPES@@A:DWORD ; system_comms_model
EXTRN	?system_comms_data_flow@@3W4COMMS_DATA_FLOW_TYPES@@A:DWORD ; system_comms_data_flow
EXTRN	?world_map@@3UWORLD_MAP_DATA@@A:BYTE		; world_map
EXTRN	?fn_create_local_entity@@3PAP6GPAUENTITY@@W4ENTITY_TYPES@@HPAD@ZA:BYTE ; fn_create_local_entity
EXTRN	?fn_create_client_server_entity@@3PAY01P6GPAUENTITY@@W4ENTITY_TYPES@@HPAD@ZA:BYTE ; fn_create_client_server_entity
EXTRN	?overload_invalid_int_type_message@@3PBDB:DWORD	; overload_invalid_int_type_message
EXTRN	?fn_get_local_entity_int_value@@3PAY0BBH@P6GHPAUENTITY@@W4INT_TYPES@@@ZA:BYTE ; fn_get_local_entity_int_value
EXTRN	?entities@@3PAUENTITY@@A:DWORD			; entities
EXTRN	?aircraft_database@@3PAUAIRCRAFT_DATA@@A:BYTE	; aircraft_database
EXTRN	?camera_entity@@3PAUENTITY@@A:DWORD		; camera_entity
EXTRN	?group_database@@3PAUGROUP_DATA@@A:BYTE		; group_database
EXTRN	?update_entity@@3PAUENTITY@@A:DWORD		; update_entity
EXTRN	?tacview_log_file@@3PAU_iobuf@@A:DWORD		; tacview_log_file
EXTRN	__fltused:DWORD
;	COMDAT __real@c61c4000
CONST	SEGMENT
__real@c61c4000 DD 0c61c4000r			; -10000
CONST	ENDS
;	COMDAT __real@bf800000
CONST	SEGMENT
__real@bf800000 DD 0bf800000r			; -1
CONST	ENDS
;	COMDAT __real@49742400
CONST	SEGMENT
__real@49742400 DD 049742400r			; 1e+06
CONST	ENDS
;	COMDAT __real@400921fb60000000
CONST	SEGMENT
__real@400921fb60000000 DQ 0400921fb60000000r	; 3.14159
CONST	ENDS
;	COMDAT __real@40000000
CONST	SEGMENT
__real@40000000 DD 040000000r			; 2
CONST	ENDS
;	COMDAT __real@3f800000
CONST	SEGMENT
__real@3f800000 DD 03f800000r			; 1
CONST	ENDS
;	COMDAT __real@3f10000000000000
CONST	SEGMENT
__real@3f10000000000000 DQ 03f10000000000000r	; 6.10352e-05
CONST	ENDS
;	COMDAT ?__LINE__Var@?0??create_helicopter_cockpit_sound_effect@@YGXPAUENTITY@@HH@Z@4JA
_DATA	SEGMENT
?__LINE__Var@?0??create_helicopter_cockpit_sound_effect@@YGXPAUENTITY@@HH@Z@4JA DD 0276H ; `create_helicopter_cockpit_sound_effect'::`1'::__LINE__Var
_DATA	ENDS
;	COMDAT ??_C@_0CI@NLFHFOLH@get_comms_model?$CI?$CJ?5?$DN?$DN?5COMMS_MODE@
CONST	SEGMENT
??_C@_0CI@NLFHFOLH@get_comms_model?$CI?$CJ?5?$DN?$DN?5COMMS_MODE@ DB 'get'
	DB	'_comms_model() == COMMS_MODEL_SERVER', 00H	; `string'
CONST	ENDS
;	COMDAT ?__LINE__Var@?0??create_client_server_entity_helicopter@@YGPAUENTITY@@HHPAU2@PAUVEC3D@@@Z@4JA
_DATA	SEGMENT
?__LINE__Var@?0??create_client_server_entity_helicopter@@YGPAUENTITY@@HHPAU2@PAUVEC3D@@@Z@4JA DD 01c0H ; `create_client_server_entity_helicopter'::`1'::__LINE__Var
_DATA	ENDS
;	COMDAT ?__LINE__Var@?0??create_client@@YGPAUENTITY@@W4ENTITY_TYPES@@HPAD@Z@4JA
_DATA	SEGMENT
?__LINE__Var@?0??create_client@@YGPAUENTITY@@W4ENTITY_TYPES@@HPAD@Z@4JA DD 019aH ; `create_client'::`1'::__LINE__Var
_DATA	ENDS
;	COMDAT ??_C@_0CC@BNNNEGEG@assert_client_server_remote_fn?5@
CONST	SEGMENT
??_C@_0CC@BNNNEGEG@assert_client_server_remote_fn?5@ DB 'assert_client_se'
	DB	'rver_remote_fn ()', 00H			; `string'
CONST	ENDS
;	COMDAT ??_C@_0CB@CFOCLFOK@assert_client_server_local_fn?5?$CI@
CONST	SEGMENT
??_C@_0CB@CFOCLFOK@assert_client_server_local_fn?5?$CI@ DB 'assert_client'
	DB	'_server_local_fn ()', 00H			; `string'
CONST	ENDS
;	COMDAT ?__LINE__Var@?0??create_server@@YGPAUENTITY@@W4ENTITY_TYPES@@HPAD@Z@4JA
_DATA	SEGMENT
?__LINE__Var@?0??create_server@@YGPAUENTITY@@W4ENTITY_TYPES@@HPAD@Z@4JA DD 0183H ; `create_server'::`1'::__LINE__Var
_DATA	ENDS
;	COMDAT ??_C@_0CM@DHBIKIGD@assert_remote_create_entity_ind@
CONST	SEGMENT
??_C@_0CM@DHBIKIGD@assert_remote_create_entity_ind@ DB 'assert_remote_cre'
	DB	'ate_entity_index ((index))', 00H		; `string'
CONST	ENDS
;	COMDAT ?__LINE__Var@?0??create_remote@@YGPAUENTITY@@W4ENTITY_TYPES@@HPAD@Z@4JA
_DATA	SEGMENT
?__LINE__Var@?0??create_remote@@YGPAUENTITY@@W4ENTITY_TYPES@@HPAD@Z@4JA DD 0170H ; `create_remote'::`1'::__LINE__Var
_DATA	ENDS
;	COMDAT ??_C@_0DG@OOAIMCDD@weapon_config_type_valid?5?$CIraw?9?$DO@
CONST	SEGMENT
??_C@_0DG@OOAIMCDD@weapon_config_type_valid?5?$CIraw?9?$DO@ DB 'weapon_co'
	DB	'nfig_type_valid (raw->ac.weapon_config_type)', 00H ; `string'
CONST	ENDS
;	COMDAT ??_C@_0DG@KEJHCNJ@entity_sub_type_aircraft_valid?5@
CONST	SEGMENT
??_C@_0DG@KEJHCNJ@entity_sub_type_aircraft_valid?5@ DB 'entity_sub_type_a'
	DB	'ircraft_valid (raw->ac.mob.sub_type)', 00H	; `string'
CONST	ENDS
;	COMDAT ??_C@_0CI@CGPGOOPC@raw?9?$DOac?4mob?4side?5?$CB?$DN?5ENTITY_SIDE@
CONST	SEGMENT
??_C@_0CI@CGPGOOPC@raw?9?$DOac?4mob?4side?5?$CB?$DN?5ENTITY_SIDE@ DB 'raw'
	DB	'->ac.mob.side != ENTITY_SIDE_NEUTRAL', 00H	; `string'
CONST	ENDS
;	COMDAT ??_C@_0EI@LMPOBACG@get_local_entity_type?5?$CIraw?9?$DOac?4@
CONST	SEGMENT
??_C@_0EI@LMPOBACG@get_local_entity_type?5?$CIraw?9?$DOac?4@ DB 'get_loca'
	DB	'l_entity_type (raw->ac.member_link.parent) == ENTITY_TYPE_GRO'
	DB	'UP', 00H					; `string'
CONST	ENDS
;	COMDAT ??_C@_0BL@KLFILFGE@raw?9?$DOac?4member_link?4parent@
CONST	SEGMENT
??_C@_0BL@KLFILFGE@raw?9?$DOac?4member_link?4parent@ DB 'raw->ac.member_l'
	DB	'ink.parent', 00H				; `string'
CONST	ENDS
;	COMDAT ??_C@_0CL@OOPHFNJI@assert_local_create_entity_inde@
CONST	SEGMENT
??_C@_0CL@OOPHFNJI@assert_local_create_entity_inde@ DB 'assert_local_crea'
	DB	'te_entity_index ((index))', 00H		; `string'
CONST	ENDS
;	COMDAT ??_C@_0FG@KGLCEJMF@c?3?2users?2nhv90?2projects?2eech?2ap@
CONST	SEGMENT
??_C@_0FG@KGLCEJMF@c?3?2users?2nhv90?2projects?2eech?2ap@ DB 'c:\users\nh'
	DB	'v90\projects\eech\aphavoc\source\entity\mobile\aircraft\helic'
	DB	'op\hc_creat.c', 00H				; `string'
CONST	ENDS
;	COMDAT ?__LINE__Var@?0??create_local@@YGPAUENTITY@@W4ENTITY_TYPES@@HPAD@Z@4JA
_DATA	SEGMENT
?__LINE__Var@?0??create_local@@YGPAUENTITY@@W4ENTITY_TYPES@@HPAD@Z@4JA DD 058H ; `create_local'::`1'::__LINE__Var
_DATA	ENDS
; Function compile flags: /Odtp /ZI
; File c:\users\nhv90\projects\eech\aphavoc\source\entity\mobile\aircraft\helicop\hc_creat.c
;	COMDAT ?create_client@@YGPAUENTITY@@W4ENTITY_TYPES@@HPAD@Z
_TEXT	SEGMENT
_en$ = -4						; size = 4
_type$ = 8						; size = 4
_index$ = 12						; size = 4
_pargs$ = 16						; size = 4
?create_client@@YGPAUENTITY@@W4ENTITY_TYPES@@HPAD@Z PROC ; create_client, COMDAT

; 410  : {

  00000	55		 push	 ebp
  00001	8b ec		 mov	 ebp, esp
  00003	83 ec 44	 sub	 esp, 68			; 00000044H
  00006	53		 push	 ebx
  00007	56		 push	 esi
  00008	57		 push	 edi

; 411  : 	entity
; 412  : 		*en;
; 413  : 
; 414  : 	if (get_comms_data_flow () == COMMS_DATA_FLOW_TX)

  00009	83 3d 00 00 00
	00 00		 cmp	 DWORD PTR ?system_comms_data_flow@@3W4COMMS_DATA_FLOW_TYPES@@A, 0 ; system_comms_data_flow
  00010	75 37		 jne	 SHORT $LN2@create_cli

; 415  : 	{
; 416  : 		validate_client_server_remote_fn ();

  00012	e8 00 00 00 00	 call	 ?assert_client_server_remote_fn@@YGHXZ ; assert_client_server_remote_fn
  00017	85 c0		 test	 eax, eax
  00019	75 18		 jne	 SHORT $LN4@create_cli
  0001b	a1 00 00 00 00	 mov	 eax, DWORD PTR ?__LINE__Var@?0??create_client@@YGPAUENTITY@@W4ENTITY_TYPES@@HPAD@Z@4JA
  00020	83 c0 06	 add	 eax, 6
  00023	50		 push	 eax
  00024	68 00 00 00 00	 push	 OFFSET ??_C@_0FG@KGLCEJMF@c?3?2users?2nhv90?2projects?2eech?2ap@
  00029	68 00 00 00 00	 push	 OFFSET ??_C@_0CC@BNNNEGEG@assert_client_server_remote_fn?5@
  0002e	e8 00 00 00 00	 call	 ?process_assert@@YGXPBD0H@Z ; process_assert
$LN4@create_cli:

; 417  : 
; 418  : 		en = create_remote (type, index, pargs);

  00033	8b 45 10	 mov	 eax, DWORD PTR _pargs$[ebp]
  00036	50		 push	 eax
  00037	8b 4d 0c	 mov	 ecx, DWORD PTR _index$[ebp]
  0003a	51		 push	 ecx
  0003b	8b 55 08	 mov	 edx, DWORD PTR _type$[ebp]
  0003e	52		 push	 edx
  0003f	e8 00 00 00 00	 call	 ?create_remote@@YGPAUENTITY@@W4ENTITY_TYPES@@HPAD@Z ; create_remote
  00044	89 45 fc	 mov	 DWORD PTR _en$[ebp], eax

; 419  : 	}
; 420  : 	else

  00047	eb 35		 jmp	 SHORT $LN3@create_cli
$LN2@create_cli:

; 421  : 	{
; 422  : 		validate_client_server_local_fn ();

  00049	e8 00 00 00 00	 call	 ?assert_client_server_local_fn@@YGHXZ ; assert_client_server_local_fn
  0004e	85 c0		 test	 eax, eax
  00050	75 18		 jne	 SHORT $LN5@create_cli
  00052	a1 00 00 00 00	 mov	 eax, DWORD PTR ?__LINE__Var@?0??create_client@@YGPAUENTITY@@W4ENTITY_TYPES@@HPAD@Z@4JA
  00057	83 c0 0c	 add	 eax, 12			; 0000000cH
  0005a	50		 push	 eax
  0005b	68 00 00 00 00	 push	 OFFSET ??_C@_0FG@KGLCEJMF@c?3?2users?2nhv90?2projects?2eech?2ap@
  00060	68 00 00 00 00	 push	 OFFSET ??_C@_0CB@CFOCLFOK@assert_client_server_local_fn?5?$CI@
  00065	e8 00 00 00 00	 call	 ?process_assert@@YGXPBD0H@Z ; process_assert
$LN5@create_cli:

; 423  : 
; 424  : 		en = create_local (type, index, pargs);

  0006a	8b 45 10	 mov	 eax, DWORD PTR _pargs$[ebp]
  0006d	50		 push	 eax
  0006e	8b 4d 0c	 mov	 ecx, DWORD PTR _index$[ebp]
  00071	51		 push	 ecx
  00072	8b 55 08	 mov	 edx, DWORD PTR _type$[ebp]
  00075	52		 push	 edx
  00076	e8 00 00 00 00	 call	 ?create_local@@YGPAUENTITY@@W4ENTITY_TYPES@@HPAD@Z ; create_local
  0007b	89 45 fc	 mov	 DWORD PTR _en$[ebp], eax
$LN3@create_cli:

; 425  : 	}
; 426  : 
; 427  : 	return (en);

  0007e	8b 45 fc	 mov	 eax, DWORD PTR _en$[ebp]

; 428  : }

  00081	5f		 pop	 edi
  00082	5e		 pop	 esi
  00083	5b		 pop	 ebx
  00084	8b e5		 mov	 esp, ebp
  00086	5d		 pop	 ebp
  00087	c2 0c 00	 ret	 12			; 0000000cH
?create_client@@YGPAUENTITY@@W4ENTITY_TYPES@@HPAD@Z ENDP ; create_client
_TEXT	ENDS
; Function compile flags: /Odtp /ZI
; File c:\users\nhv90\projects\eech\aphavoc\source\entity\mobile\aircraft\helicop\hc_creat.c
;	COMDAT ?create_server@@YGPAUENTITY@@W4ENTITY_TYPES@@HPAD@Z
_TEXT	SEGMENT
_en$ = -4						; size = 4
_type$ = 8						; size = 4
_index$ = 12						; size = 4
_pargs$ = 16						; size = 4
?create_server@@YGPAUENTITY@@W4ENTITY_TYPES@@HPAD@Z PROC ; create_server, COMDAT

; 387  : {

  00000	55		 push	 ebp
  00001	8b ec		 mov	 ebp, esp
  00003	83 ec 44	 sub	 esp, 68			; 00000044H
  00006	53		 push	 ebx
  00007	56		 push	 esi
  00008	57		 push	 edi

; 388  : 	entity
; 389  : 		*en;
; 390  : 
; 391  : 	validate_client_server_local_fn ();

  00009	e8 00 00 00 00	 call	 ?assert_client_server_local_fn@@YGHXZ ; assert_client_server_local_fn
  0000e	85 c0		 test	 eax, eax
  00010	75 18		 jne	 SHORT $LN2@create_ser
  00012	a1 00 00 00 00	 mov	 eax, DWORD PTR ?__LINE__Var@?0??create_server@@YGPAUENTITY@@W4ENTITY_TYPES@@HPAD@Z@4JA
  00017	83 c0 04	 add	 eax, 4
  0001a	50		 push	 eax
  0001b	68 00 00 00 00	 push	 OFFSET ??_C@_0FG@KGLCEJMF@c?3?2users?2nhv90?2projects?2eech?2ap@
  00020	68 00 00 00 00	 push	 OFFSET ??_C@_0CB@CFOCLFOK@assert_client_server_local_fn?5?$CI@
  00025	e8 00 00 00 00	 call	 ?process_assert@@YGXPBD0H@Z ; process_assert
$LN2@create_ser:

; 392  : 
; 393  : 	en = create_local (type, index, pargs);

  0002a	8b 45 10	 mov	 eax, DWORD PTR _pargs$[ebp]
  0002d	50		 push	 eax
  0002e	8b 4d 0c	 mov	 ecx, DWORD PTR _index$[ebp]
  00031	51		 push	 ecx
  00032	8b 55 08	 mov	 edx, DWORD PTR _type$[ebp]
  00035	52		 push	 edx
  00036	e8 00 00 00 00	 call	 ?create_local@@YGPAUENTITY@@W4ENTITY_TYPES@@HPAD@Z ; create_local
  0003b	89 45 fc	 mov	 DWORD PTR _en$[ebp], eax

; 394  : 
; 395  : 	if (en)

  0003e	83 7d fc 00	 cmp	 DWORD PTR _en$[ebp], 0
  00042	74 3b		 je	 SHORT $LN3@create_ser

; 396  : 	{
; 397  : 		validate_client_server_remote_fn ();

  00044	e8 00 00 00 00	 call	 ?assert_client_server_remote_fn@@YGHXZ ; assert_client_server_remote_fn
  00049	85 c0		 test	 eax, eax
  0004b	75 18		 jne	 SHORT $LN4@create_ser
  0004d	a1 00 00 00 00	 mov	 eax, DWORD PTR ?__LINE__Var@?0??create_server@@YGPAUENTITY@@W4ENTITY_TYPES@@HPAD@Z@4JA
  00052	83 c0 0a	 add	 eax, 10			; 0000000aH
  00055	50		 push	 eax
  00056	68 00 00 00 00	 push	 OFFSET ??_C@_0FG@KGLCEJMF@c?3?2users?2nhv90?2projects?2eech?2ap@
  0005b	68 00 00 00 00	 push	 OFFSET ??_C@_0CC@BNNNEGEG@assert_client_server_remote_fn?5@
  00060	e8 00 00 00 00	 call	 ?process_assert@@YGXPBD0H@Z ; process_assert
$LN4@create_ser:

; 398  : 
; 399  : 		create_remote (type, get_local_entity_index (en), pargs);

  00065	8b 45 10	 mov	 eax, DWORD PTR _pargs$[ebp]
  00068	50		 push	 eax
  00069	8b 4d fc	 mov	 ecx, DWORD PTR _en$[ebp]
  0006c	2b 0d 00 00 00
	00		 sub	 ecx, DWORD PTR ?entities@@3PAUENTITY@@A ; entities
  00072	c1 f9 04	 sar	 ecx, 4
  00075	51		 push	 ecx
  00076	8b 55 08	 mov	 edx, DWORD PTR _type$[ebp]
  00079	52		 push	 edx
  0007a	e8 00 00 00 00	 call	 ?create_remote@@YGPAUENTITY@@W4ENTITY_TYPES@@HPAD@Z ; create_remote
$LN3@create_ser:

; 400  : 	}
; 401  : 
; 402  : 	return (en);

  0007f	8b 45 fc	 mov	 eax, DWORD PTR _en$[ebp]

; 403  : }

  00082	5f		 pop	 edi
  00083	5e		 pop	 esi
  00084	5b		 pop	 ebx
  00085	8b e5		 mov	 esp, ebp
  00087	5d		 pop	 ebp
  00088	c2 0c 00	 ret	 12			; 0000000cH
?create_server@@YGPAUENTITY@@W4ENTITY_TYPES@@HPAD@Z ENDP ; create_server
_TEXT	ENDS
; Function compile flags: /Odtp /ZI
; File c:\users\nhv90\projects\eech\aphavoc\source\entity\mobile\aircraft\helicop\hc_creat.c
;	COMDAT ?create_remote@@YGPAUENTITY@@W4ENTITY_TYPES@@HPAD@Z
_TEXT	SEGMENT
_type$ = 8						; size = 4
_index$ = 12						; size = 4
_pargs$ = 16						; size = 4
?create_remote@@YGPAUENTITY@@W4ENTITY_TYPES@@HPAD@Z PROC ; create_remote, COMDAT

; 368  : {

  00000	55		 push	 ebp
  00001	8b ec		 mov	 ebp, esp
  00003	83 ec 40	 sub	 esp, 64			; 00000040H
  00006	53		 push	 ebx
  00007	56		 push	 esi
  00008	57		 push	 edi

; 369  : 	validate_remote_create_entity_index (index);

  00009	8b 45 0c	 mov	 eax, DWORD PTR _index$[ebp]
  0000c	50		 push	 eax
  0000d	e8 00 00 00 00	 call	 ?assert_remote_create_entity_index@@YGHH@Z ; assert_remote_create_entity_index
  00012	85 c0		 test	 eax, eax
  00014	75 18		 jne	 SHORT $LN2@create_rem
  00016	a1 00 00 00 00	 mov	 eax, DWORD PTR ?__LINE__Var@?0??create_remote@@YGPAUENTITY@@W4ENTITY_TYPES@@HPAD@Z@4JA
  0001b	83 c0 01	 add	 eax, 1
  0001e	50		 push	 eax
  0001f	68 00 00 00 00	 push	 OFFSET ??_C@_0FG@KGLCEJMF@c?3?2users?2nhv90?2projects?2eech?2ap@
  00024	68 00 00 00 00	 push	 OFFSET ??_C@_0CM@DHBIKIGD@assert_remote_create_entity_ind@
  00029	e8 00 00 00 00	 call	 ?process_assert@@YGXPBD0H@Z ; process_assert
$LN2@create_rem:

; 370  : 
; 371  : 	#if DEBUG_MODULE
; 372  : 
; 373  : 	debug_log_entity_args (ENTITY_DEBUG_REMOTE, ENTITY_DEBUG_CREATE, NULL, type, index);
; 374  : 
; 375  : 	#endif
; 376  : 
; 377  : 	transmit_entity_comms_message (ENTITY_COMMS_CREATE, NULL, type, index, pargs);

  0002e	8b 45 10	 mov	 eax, DWORD PTR _pargs$[ebp]
  00031	50		 push	 eax
  00032	8b 4d 0c	 mov	 ecx, DWORD PTR _index$[ebp]
  00035	51		 push	 ecx
  00036	8b 55 08	 mov	 edx, DWORD PTR _type$[ebp]
  00039	52		 push	 edx
  0003a	6a 00		 push	 0
  0003c	6a 08		 push	 8
  0003e	e8 00 00 00 00	 call	 ?transmit_entity_comms_message@@YAXW4ENTITY_COMMS_MESSAGES@@PAUENTITY@@ZZ ; transmit_entity_comms_message
  00043	83 c4 14	 add	 esp, 20			; 00000014H

; 378  : 
; 379  : 	return (NULL);

  00046	33 c0		 xor	 eax, eax

; 380  : }

  00048	5f		 pop	 edi
  00049	5e		 pop	 esi
  0004a	5b		 pop	 ebx
  0004b	8b e5		 mov	 esp, ebp
  0004d	5d		 pop	 ebp
  0004e	c2 0c 00	 ret	 12			; 0000000cH
?create_remote@@YGPAUENTITY@@W4ENTITY_TYPES@@HPAD@Z ENDP ; create_remote
_TEXT	ENDS
; Function compile flags: /Odtp /ZI
; File c:\users\nhv90\projects\eech\aphavoc\source\entity\mobile\aircraft\helicop\hc_creat.c
;	COMDAT ?create_local@@YGPAUENTITY@@W4ENTITY_TYPES@@HPAD@Z
_TEXT	SEGMENT
tv264 = -88						; size = 4
tv404 = -84						; size = 4
tv306 = -84						; size = 4
tv255 = -84						; size = 4
tv397 = -80						; size = 4
tv298 = -80						; size = 4
tv247 = -80						; size = 4
tv213 = -80						; size = 4
_group_sub_type$ = -12					; size = 4
_raw$ = -8						; size = 4
_en$ = -4						; size = 4
_type$ = 8						; size = 4
_index$ = 12						; size = 4
_pargs$ = 16						; size = 4
?create_local@@YGPAUENTITY@@W4ENTITY_TYPES@@HPAD@Z PROC	; create_local, COMDAT

; 88   : {

  00000	55		 push	 ebp
  00001	8b ec		 mov	 ebp, esp
  00003	83 ec 58	 sub	 esp, 88			; 00000058H
  00006	53		 push	 ebx
  00007	56		 push	 esi
  00008	57		 push	 edi

; 89   : 	entity
; 90   : 		*en;
; 91   : 
; 92   : 	helicopter
; 93   : 		*raw;
; 94   : 
; 95   : 	entity_sub_types
; 96   : 		group_sub_type;
; 97   : 
; 98   : 	////////////////////////////////////////
; 99   :   	//
; 100  :   	// VALIDATE
; 101  :   	//
; 102  : 	////////////////////////////////////////
; 103  : 
; 104  : 	validate_local_create_entity_index (index);

  00009	8b 45 0c	 mov	 eax, DWORD PTR _index$[ebp]
  0000c	50		 push	 eax
  0000d	e8 00 00 00 00	 call	 ?assert_local_create_entity_index@@YGHH@Z ; assert_local_create_entity_index
  00012	85 c0		 test	 eax, eax
  00014	75 18		 jne	 SHORT $LN2@create_loc
  00016	a1 00 00 00 00	 mov	 eax, DWORD PTR ?__LINE__Var@?0??create_local@@YGPAUENTITY@@W4ENTITY_TYPES@@HPAD@Z@4JA
  0001b	83 c0 10	 add	 eax, 16			; 00000010H
  0001e	50		 push	 eax
  0001f	68 00 00 00 00	 push	 OFFSET ??_C@_0FG@KGLCEJMF@c?3?2users?2nhv90?2projects?2eech?2ap@
  00024	68 00 00 00 00	 push	 OFFSET ??_C@_0CL@OOPHFNJI@assert_local_create_entity_inde@
  00029	e8 00 00 00 00	 call	 ?process_assert@@YGXPBD0H@Z ; process_assert
$LN2@create_loc:

; 105  : 
; 106  : 	#if DEBUG_MODULE
; 107  : 
; 108  : 	debug_log_entity_args (ENTITY_DEBUG_LOCAL, ENTITY_DEBUG_CREATE, NULL, type, index);
; 109  : 
; 110  : 	#endif
; 111  : 
; 112  : 	en = get_free_entity (index);

  0002e	8b 45 0c	 mov	 eax, DWORD PTR _index$[ebp]
  00031	50		 push	 eax
  00032	e8 00 00 00 00	 call	 ?get_free_entity@@YGPAUENTITY@@H@Z ; get_free_entity
  00037	89 45 fc	 mov	 DWORD PTR _en$[ebp], eax

; 113  : 
; 114  : 	if (en)

  0003a	83 7d fc 00	 cmp	 DWORD PTR _en$[ebp], 0
  0003e	0f 84 29 07 00
	00		 je	 $LN18@create_loc

; 115  : 	{
; 116  : 		////////////////////////////////////////
; 117  :    	//
; 118  :    	// MALLOC ENTITY DATA
; 119  :    	//
; 120  : 		////////////////////////////////////////
; 121  : 
; 122  : 		set_local_entity_type (en, type);

  00044	8b 45 fc	 mov	 eax, DWORD PTR _en$[ebp]
  00047	8b 4d 08	 mov	 ecx, DWORD PTR _type$[ebp]
  0004a	89 08		 mov	 DWORD PTR [eax], ecx

; 123  : 
; 124  : 		raw = (helicopter *) malloc_fast_mem (sizeof (helicopter));

  0004c	68 e4 01 00 00	 push	 484			; 000001e4H
  00051	e8 00 00 00 00	 call	 ?malloc_fast_memory@@YGPAXI@Z ; malloc_fast_memory
  00056	89 45 f8	 mov	 DWORD PTR _raw$[ebp], eax

; 125  : 
; 126  : 		set_local_entity_data (en, raw);

  00059	8b 45 fc	 mov	 eax, DWORD PTR _en$[ebp]
  0005c	8b 4d f8	 mov	 ecx, DWORD PTR _raw$[ebp]
  0005f	89 48 04	 mov	 DWORD PTR [eax+4], ecx

; 127  : 
; 128  : 		////////////////////////////////////////
; 129  :    	//
; 130  :    	// INITIALISE ALL ENTITY DATA TO 'WORKING' DEFAULT VALUES
; 131  : 		//
; 132  : 		// DO NOT USE ACCESS FUNCTIONS
; 133  : 		//
; 134  : 		// DO NOT USE RANDOM VALUES
; 135  : 		//
; 136  : 		////////////////////////////////////////
; 137  : 
; 138  : 		memset (raw, 0, sizeof (helicopter));

  00062	68 e4 01 00 00	 push	 484			; 000001e4H
  00067	6a 00		 push	 0
  00069	8b 45 f8	 mov	 eax, DWORD PTR _raw$[ebp]
  0006c	50		 push	 eax
  0006d	e8 00 00 00 00	 call	 _memset
  00072	83 c4 0c	 add	 esp, 12			; 0000000cH

; 139  : 
; 140  : 		//
; 141  : 		// mobile
; 142  : 		//
; 143  : 
; 144  : 		raw->ac.mob.sub_type = ENTITY_SUB_TYPE_UNINITIALISED;

  00075	8b 45 f8	 mov	 eax, DWORD PTR _raw$[ebp]
  00078	c7 00 ff ff ff
	ff		 mov	 DWORD PTR [eax], -1

; 145  : 
; 146  : 		raw->ac.mob.position.x = MID_MAP_X;

  0007e	8b 45 f8	 mov	 eax, DWORD PTR _raw$[ebp]
  00081	f3 0f 10 05 30
	00 00 00	 movss	 xmm0, DWORD PTR ?world_map@@3UWORLD_MAP_DATA@@A+48
  00089	f3 0f 11 40 04	 movss	 DWORD PTR [eax+4], xmm0

; 147  : 		raw->ac.mob.position.y = MID_MAP_Y;

  0008e	8b 45 f8	 mov	 eax, DWORD PTR _raw$[ebp]
  00091	f3 0f 10 05 34
	00 00 00	 movss	 xmm0, DWORD PTR ?world_map@@3UWORLD_MAP_DATA@@A+52
  00099	f3 0f 11 40 08	 movss	 DWORD PTR [eax+8], xmm0

; 148  : 		raw->ac.mob.position.z = MID_MAP_Z;

  0009e	8b 45 f8	 mov	 eax, DWORD PTR _raw$[ebp]
  000a1	f3 0f 10 05 38
	00 00 00	 movss	 xmm0, DWORD PTR ?world_map@@3UWORLD_MAP_DATA@@A+56
  000a9	f3 0f 11 40 0c	 movss	 DWORD PTR [eax+12], xmm0

; 149  : 
; 150  : 		get_identity_matrix3x3 (raw->ac.mob.attitude);

  000ae	8b 45 f8	 mov	 eax, DWORD PTR _raw$[ebp]
  000b1	83 c0 10	 add	 eax, 16			; 00000010H
  000b4	50		 push	 eax
  000b5	e8 00 00 00 00	 call	 ?get_identity_matrix3x3@@YGXQAY02M@Z ; get_identity_matrix3x3

; 151  : 
; 152  : 		raw->ac.mob.alive = TRUE;

  000ba	8b 45 f8	 mov	 eax, DWORD PTR _raw$[ebp]
  000bd	8b 48 7c	 mov	 ecx, DWORD PTR [eax+124]
  000c0	83 c9 01	 or	 ecx, 1
  000c3	8b 55 f8	 mov	 edx, DWORD PTR _raw$[ebp]
  000c6	89 4a 7c	 mov	 DWORD PTR [edx+124], ecx

; 153  : 
; 154  : 		raw->ac.mob.side = ENTITY_SIDE_UNINITIALISED;

  000c9	8b 45 f8	 mov	 eax, DWORD PTR _raw$[ebp]
  000cc	8b 48 7c	 mov	 ecx, DWORD PTR [eax+124]
  000cf	83 c9 06	 or	 ecx, 6
  000d2	8b 55 f8	 mov	 edx, DWORD PTR _raw$[ebp]
  000d5	89 4a 7c	 mov	 DWORD PTR [edx+124], ecx

; 155  : 
; 156  : 		raw->ac.operational_state = OPERATIONAL_STATE_UNKNOWN;

  000d8	8b 45 f8	 mov	 eax, DWORD PTR _raw$[ebp]
  000db	8b 88 2c 01 00
	00		 mov	 ecx, DWORD PTR [eax+300]
  000e1	81 e1 1f fc ff
	ff		 and	 ecx, -993		; fffffc1fH
  000e7	8b 55 f8	 mov	 edx, DWORD PTR _raw$[ebp]
  000ea	89 8a 2c 01 00
	00		 mov	 DWORD PTR [edx+300], ecx

; 157  : 
; 158  : 		//
; 159  : 		// aircraft
; 160  : 		//
; 161  : 
; 162  : 		raw->ac.object_3d_shape = OBJECT_3D_INVALID_OBJECT_INDEX;

  000f0	8b 45 f8	 mov	 eax, DWORD PTR _raw$[ebp]
  000f3	c7 80 80 00 00
	00 00 00 00 00	 mov	 DWORD PTR [eax+128], 0

; 163  : 
; 164  : 		raw->ac.weapon_config_type = WEAPON_CONFIG_TYPE_UNINITIALISED;

  000fd	8b 45 f8	 mov	 eax, DWORD PTR _raw$[ebp]
  00100	c7 80 1c 01 00
	00 ff ff ff ff	 mov	 DWORD PTR [eax+284], -1

; 165  : 
; 166  : 		raw->ac.selected_weapon = ENTITY_SUB_TYPE_WEAPON_NO_WEAPON;

  0010a	8b 45 f8	 mov	 eax, DWORD PTR _raw$[ebp]
  0010d	c7 80 24 01 00
	00 00 00 00 00	 mov	 DWORD PTR [eax+292], 0

; 167  : 
; 168  : 		raw->ac.weapon_vector.x = 0.0;

  00117	8b 45 f8	 mov	 eax, DWORD PTR _raw$[ebp]
  0011a	0f 57 c0	 xorps	 xmm0, xmm0
  0011d	f3 0f 11 80 3c
	01 00 00	 movss	 DWORD PTR [eax+316], xmm0

; 169  : 		raw->ac.weapon_vector.y = 0.0;

  00125	8b 45 f8	 mov	 eax, DWORD PTR _raw$[ebp]
  00128	0f 57 c0	 xorps	 xmm0, xmm0
  0012b	f3 0f 11 80 40
	01 00 00	 movss	 DWORD PTR [eax+320], xmm0

; 170  : 		raw->ac.weapon_vector.z = 1.0;

  00133	8b 45 f8	 mov	 eax, DWORD PTR _raw$[ebp]
  00136	f3 0f 10 05 00
	00 00 00	 movss	 xmm0, DWORD PTR __real@3f800000
  0013e	f3 0f 11 80 44
	01 00 00	 movss	 DWORD PTR [eax+324], xmm0

; 171  : 
; 172  : 		raw->ac.weapon_to_target_vector.x = 0.0;

  00146	8b 45 f8	 mov	 eax, DWORD PTR _raw$[ebp]
  00149	0f 57 c0	 xorps	 xmm0, xmm0
  0014c	f3 0f 11 80 48
	01 00 00	 movss	 DWORD PTR [eax+328], xmm0

; 173  : 		raw->ac.weapon_to_target_vector.y = 0.0;

  00154	8b 45 f8	 mov	 eax, DWORD PTR _raw$[ebp]
  00157	0f 57 c0	 xorps	 xmm0, xmm0
  0015a	f3 0f 11 80 4c
	01 00 00	 movss	 DWORD PTR [eax+332], xmm0

; 174  : 		raw->ac.weapon_to_target_vector.z = -1.0;

  00162	8b 45 f8	 mov	 eax, DWORD PTR _raw$[ebp]
  00165	f3 0f 10 05 00
	00 00 00	 movss	 xmm0, DWORD PTR __real@bf800000
  0016d	f3 0f 11 80 50
	01 00 00	 movss	 DWORD PTR [eax+336], xmm0

; 175  : 
; 176  : 		raw->ac.loading_door_state = AIRCRAFT_LOADING_DOORS_OPEN_FLOAT_VALUE;

  00175	8b 45 f8	 mov	 eax, DWORD PTR _raw$[ebp]
  00178	f3 0f 10 05 00
	00 00 00	 movss	 xmm0, DWORD PTR __real@40000000
  00180	f3 0f 11 80 f4
	00 00 00	 movss	 DWORD PTR [eax+244], xmm0

; 177  : 		raw->ac.undercarriage_state = AIRCRAFT_UNDERCARRIAGE_DOWN_FLOAT_VALUE;

  00188	8b 45 f8	 mov	 eax, DWORD PTR _raw$[ebp]
  0018b	f3 0f 10 05 00
	00 00 00	 movss	 xmm0, DWORD PTR __real@40000000
  00193	f3 0f 11 80 fc
	00 00 00	 movss	 DWORD PTR [eax+252], xmm0

; 178  : 
; 179  : 		raw->ac.air_radar_contact_timeout = AIR_RADAR_CONTACT_TIMEOUT_INVALID;

  0019b	8b 45 f8	 mov	 eax, DWORD PTR _raw$[ebp]
  0019e	f3 0f 10 05 00
	00 00 00	 movss	 xmm0, DWORD PTR __real@49742400
  001a6	f3 0f 11 80 14
	01 00 00	 movss	 DWORD PTR [eax+276], xmm0

; 180  : 
; 181  : 		//
; 182  : 		// helicopter
; 183  : 		//
; 184  : 
; 185  : 		raw->main_rotor_rpm = 0.0;

  001ae	8b 45 f8	 mov	 eax, DWORD PTR _raw$[ebp]
  001b1	0f 57 c0	 xorps	 xmm0, xmm0
  001b4	f3 0f 11 80 8c
	01 00 00	 movss	 DWORD PTR [eax+396], xmm0

; 186  : 
; 187  : 		raw->player = ENTITY_PLAYER_AI;

  001bc	8b 45 f8	 mov	 eax, DWORD PTR _raw$[ebp]
  001bf	8b 88 b0 01 00
	00		 mov	 ecx, DWORD PTR [eax+432]
  001c5	83 e1 f9	 and	 ecx, -7			; fffffff9H
  001c8	8b 55 f8	 mov	 edx, DWORD PTR _raw$[ebp]
  001cb	89 8a b0 01 00
	00		 mov	 DWORD PTR [edx+432], ecx

; 188  : 
; 189  : 		raw->eo_tracking_point.x = 0.0;

  001d1	8b 45 f8	 mov	 eax, DWORD PTR _raw$[ebp]
  001d4	0f 57 c0	 xorps	 xmm0, xmm0
  001d7	f3 0f 11 80 d8
	01 00 00	 movss	 DWORD PTR [eax+472], xmm0

; 190  : 		raw->eo_tracking_point.y = -10000.0;  // NOT_TRACKING value in co_eo.c

  001df	8b 45 f8	 mov	 eax, DWORD PTR _raw$[ebp]
  001e2	f3 0f 10 05 00
	00 00 00	 movss	 xmm0, DWORD PTR __real@c61c4000
  001ea	f3 0f 11 80 dc
	01 00 00	 movss	 DWORD PTR [eax+476], xmm0

; 191  : 		raw->eo_tracking_point.z = 0.0;

  001f2	8b 45 f8	 mov	 eax, DWORD PTR _raw$[ebp]
  001f5	0f 57 c0	 xorps	 xmm0, xmm0
  001f8	f3 0f 11 80 e0
	01 00 00	 movss	 DWORD PTR [eax+480], xmm0

; 192  : 
; 193  : 		////////////////////////////////////////
; 194  : 		//
; 195  : 		// OVERWRITE DEFAULT VALUES WITH GIVEN ATTRIBUTES
; 196  : 		//
; 197  : 		////////////////////////////////////////
; 198  : 
; 199  : 		set_local_entity_attributes (en, pargs);

  00200	8b 45 10	 mov	 eax, DWORD PTR _pargs$[ebp]
  00203	50		 push	 eax
  00204	8b 4d fc	 mov	 ecx, DWORD PTR _en$[ebp]
  00207	51		 push	 ecx
  00208	e8 00 00 00 00	 call	 ?set_local_entity_attributes@@YGXPAUENTITY@@PAD@Z ; set_local_entity_attributes

; 200  : 
; 201  : 		////////////////////////////////////////
; 202  : 		//
; 203  : 		// CHECK MANDATORY ATTRIBUTES HAVE BEEN GIVEN
; 204  : 		//
; 205  : 		////////////////////////////////////////
; 206  : 
; 207  : 		ASSERT (raw->ac.member_link.parent);

  0020d	8b 45 f8	 mov	 eax, DWORD PTR _raw$[ebp]
  00210	83 b8 bc 00 00
	00 00		 cmp	 DWORD PTR [eax+188], 0
  00217	75 18		 jne	 SHORT $LN4@create_loc
  00219	a1 00 00 00 00	 mov	 eax, DWORD PTR ?__LINE__Var@?0??create_local@@YGPAUENTITY@@W4ENTITY_TYPES@@HPAD@Z@4JA
  0021e	83 c0 77	 add	 eax, 119		; 00000077H
  00221	50		 push	 eax
  00222	68 00 00 00 00	 push	 OFFSET ??_C@_0FG@KGLCEJMF@c?3?2users?2nhv90?2projects?2eech?2ap@
  00227	68 00 00 00 00	 push	 OFFSET ??_C@_0BL@KLFILFGE@raw?9?$DOac?4member_link?4parent@
  0022c	e8 00 00 00 00	 call	 ?process_assert@@YGXPBD0H@Z ; process_assert
$LN4@create_loc:

; 208  : 
; 209  : 		ASSERT (get_local_entity_type (raw->ac.member_link.parent) == ENTITY_TYPE_GROUP);

  00231	8b 45 f8	 mov	 eax, DWORD PTR _raw$[ebp]
  00234	83 b8 bc 00 00
	00 00		 cmp	 DWORD PTR [eax+188], 0
  0023b	74 10		 je	 SHORT $LN20@create_loc
  0023d	8b 4d f8	 mov	 ecx, DWORD PTR _raw$[ebp]
  00240	8b 91 bc 00 00
	00		 mov	 edx, DWORD PTR [ecx+188]
  00246	8b 02		 mov	 eax, DWORD PTR [edx]
  00248	89 45 b0	 mov	 DWORD PTR tv213[ebp], eax
  0024b	eb 22		 jmp	 SHORT $LN21@create_loc
$LN20@create_loc:
  0024d	8b 0d 00 00 00
	00		 mov	 ecx, DWORD PTR ?__LINE__Var@?0??create_local@@YGPAUENTITY@@W4ENTITY_TYPES@@HPAD@Z@4JA
  00253	83 c1 79	 add	 ecx, 121		; 00000079H
  00256	51		 push	 ecx
  00257	68 00 00 00 00	 push	 OFFSET ??_C@_0FG@KGLCEJMF@c?3?2users?2nhv90?2projects?2eech?2ap@
  0025c	8b 15 00 00 00
	00		 mov	 edx, DWORD PTR ?null_entity_pointer_message@@3PBDB ; null_entity_pointer_message
  00262	52		 push	 edx
  00263	e8 00 00 00 00	 call	 ?process_assert@@YGXPBD0H@Z ; process_assert
  00268	c7 45 b0 00 00
	00 00		 mov	 DWORD PTR tv213[ebp], 0
$LN21@create_loc:
  0026f	83 7d b0 0c	 cmp	 DWORD PTR tv213[ebp], 12 ; 0000000cH
  00273	74 18		 je	 SHORT $LN5@create_loc
  00275	a1 00 00 00 00	 mov	 eax, DWORD PTR ?__LINE__Var@?0??create_local@@YGPAUENTITY@@W4ENTITY_TYPES@@HPAD@Z@4JA
  0027a	83 c0 79	 add	 eax, 121		; 00000079H
  0027d	50		 push	 eax
  0027e	68 00 00 00 00	 push	 OFFSET ??_C@_0FG@KGLCEJMF@c?3?2users?2nhv90?2projects?2eech?2ap@
  00283	68 00 00 00 00	 push	 OFFSET ??_C@_0EI@LMPOBACG@get_local_entity_type?5?$CIraw?9?$DOac?4@
  00288	e8 00 00 00 00	 call	 ?process_assert@@YGXPBD0H@Z ; process_assert
$LN5@create_loc:

; 210  : 
; 211  : 		////////////////////////////////////////
; 212  : 		//
; 213  : 		// RESOLVE DEFAULT VALUES
; 214  : 		//
; 215  : 		////////////////////////////////////////
; 216  : 
; 217  : 		raw->fuel_supply_level = aircraft_database [raw->ac.mob.sub_type].fuel_default_weight;

  0028d	8b 45 f8	 mov	 eax, DWORD PTR _raw$[ebp]
  00290	69 08 f4 00 00
	00		 imul	 ecx, DWORD PTR [eax], 244
  00296	8b 55 f8	 mov	 edx, DWORD PTR _raw$[ebp]
  00299	8b 81 d0 00 00
	00		 mov	 eax, DWORD PTR ?aircraft_database@@3PAUAIRCRAFT_DATA@@A[ecx+208]
  0029f	89 82 84 01 00
	00		 mov	 DWORD PTR [edx+388], eax

; 218  : 
; 219  : 		//
; 220  : 		// side
; 221  : 		//
; 222  : 
; 223  : 		if (raw->ac.mob.side == ENTITY_SIDE_UNINITIALISED)

  002a5	8b 45 f8	 mov	 eax, DWORD PTR _raw$[ebp]
  002a8	8b 48 7c	 mov	 ecx, DWORD PTR [eax+124]
  002ab	d1 e9		 shr	 ecx, 1
  002ad	83 e1 03	 and	 ecx, 3
  002b0	83 f9 03	 cmp	 ecx, 3
  002b3	0f 85 b6 00 00
	00		 jne	 $LN6@create_loc

; 224  : 		{
; 225  : 			raw->ac.mob.side = get_local_entity_int_value (raw->ac.member_link.parent, INT_TYPE_SIDE);

  002b9	8b 45 f8	 mov	 eax, DWORD PTR _raw$[ebp]
  002bc	83 b8 bc 00 00
	00 00		 cmp	 DWORD PTR [eax+188], 0
  002c3	74 10		 je	 SHORT $LN22@create_loc
  002c5	8b 4d f8	 mov	 ecx, DWORD PTR _raw$[ebp]
  002c8	8b 91 bc 00 00
	00		 mov	 edx, DWORD PTR [ecx+188]
  002ce	8b 02		 mov	 eax, DWORD PTR [edx]
  002d0	89 45 b0	 mov	 DWORD PTR tv247[ebp], eax
  002d3	eb 25		 jmp	 SHORT $LN23@create_loc
$LN22@create_loc:
  002d5	8b 0d 00 00 00
	00		 mov	 ecx, DWORD PTR ?__LINE__Var@?0??create_local@@YGPAUENTITY@@W4ENTITY_TYPES@@HPAD@Z@4JA
  002db	81 c1 89 00 00
	00		 add	 ecx, 137		; 00000089H
  002e1	51		 push	 ecx
  002e2	68 00 00 00 00	 push	 OFFSET ??_C@_0FG@KGLCEJMF@c?3?2users?2nhv90?2projects?2eech?2ap@
  002e7	8b 15 00 00 00
	00		 mov	 edx, DWORD PTR ?null_entity_pointer_message@@3PBDB ; null_entity_pointer_message
  002ed	52		 push	 edx
  002ee	e8 00 00 00 00	 call	 ?process_assert@@YGXPBD0H@Z ; process_assert
  002f3	c7 45 b0 00 00
	00 00		 mov	 DWORD PTR tv247[ebp], 0
$LN23@create_loc:
  002fa	b8 01 00 00 00	 mov	 eax, 1
  002ff	85 c0		 test	 eax, eax
  00301	74 09		 je	 SHORT $LN24@create_loc
  00303	c7 45 ac bb 00
	00 00		 mov	 DWORD PTR tv255[ebp], 187 ; 000000bbH
  0030a	eb 25		 jmp	 SHORT $LN25@create_loc
$LN24@create_loc:
  0030c	8b 0d 00 00 00
	00		 mov	 ecx, DWORD PTR ?__LINE__Var@?0??create_local@@YGPAUENTITY@@W4ENTITY_TYPES@@HPAD@Z@4JA
  00312	81 c1 89 00 00
	00		 add	 ecx, 137		; 00000089H
  00318	51		 push	 ecx
  00319	68 00 00 00 00	 push	 OFFSET ??_C@_0FG@KGLCEJMF@c?3?2users?2nhv90?2projects?2eech?2ap@
  0031e	8b 15 00 00 00
	00		 mov	 edx, DWORD PTR ?overload_invalid_int_type_message@@3PBDB ; overload_invalid_int_type_message
  00324	52		 push	 edx
  00325	e8 00 00 00 00	 call	 ?process_assert@@YGXPBD0H@Z ; process_assert
  0032a	c7 45 ac 00 00
	00 00		 mov	 DWORD PTR tv255[ebp], 0
$LN25@create_loc:
  00331	68 bb 00 00 00	 push	 187			; 000000bbH
  00336	8b 45 f8	 mov	 eax, DWORD PTR _raw$[ebp]
  00339	8b 88 bc 00 00
	00		 mov	 ecx, DWORD PTR [eax+188]
  0033f	51		 push	 ecx
  00340	69 55 b0 5c 04
	00 00		 imul	 edx, DWORD PTR tv247[ebp], 1116
  00347	8b 45 ac	 mov	 eax, DWORD PTR tv255[ebp]
  0034a	8b 8c 82 00 00
	00 00		 mov	 ecx, DWORD PTR ?fn_get_local_entity_int_value@@3PAY0BBH@P6GHPAUENTITY@@W4INT_TYPES@@@ZA[edx+eax*4]
  00351	ff d1		 call	 ecx
  00353	89 45 a8	 mov	 DWORD PTR tv264[ebp], eax
  00356	8b 55 a8	 mov	 edx, DWORD PTR tv264[ebp]
  00359	83 e2 03	 and	 edx, 3
  0035c	d1 e2		 shl	 edx, 1
  0035e	8b 45 f8	 mov	 eax, DWORD PTR _raw$[ebp]
  00361	8b 48 7c	 mov	 ecx, DWORD PTR [eax+124]
  00364	83 e1 f9	 and	 ecx, -7			; fffffff9H
  00367	0b ca		 or	 ecx, edx
  00369	8b 55 f8	 mov	 edx, DWORD PTR _raw$[ebp]
  0036c	89 4a 7c	 mov	 DWORD PTR [edx+124], ecx
$LN6@create_loc:

; 226  : 		}
; 227  : 
; 228  : 		ASSERT (raw->ac.mob.side != ENTITY_SIDE_NEUTRAL);

  0036f	8b 45 f8	 mov	 eax, DWORD PTR _raw$[ebp]
  00372	8b 48 7c	 mov	 ecx, DWORD PTR [eax+124]
  00375	d1 e9		 shr	 ecx, 1
  00377	83 e1 03	 and	 ecx, 3
  0037a	75 1a		 jne	 SHORT $LN7@create_loc
  0037c	a1 00 00 00 00	 mov	 eax, DWORD PTR ?__LINE__Var@?0??create_local@@YGPAUENTITY@@W4ENTITY_TYPES@@HPAD@Z@4JA
  00381	05 8c 00 00 00	 add	 eax, 140		; 0000008cH
  00386	50		 push	 eax
  00387	68 00 00 00 00	 push	 OFFSET ??_C@_0FG@KGLCEJMF@c?3?2users?2nhv90?2projects?2eech?2ap@
  0038c	68 00 00 00 00	 push	 OFFSET ??_C@_0CI@CGPGOOPC@raw?9?$DOac?4mob?4side?5?$CB?$DN?5ENTITY_SIDE@
  00391	e8 00 00 00 00	 call	 ?process_assert@@YGXPBD0H@Z ; process_assert
$LN7@create_loc:

; 229  : 
; 230  : 		//
; 231  : 		// sub type
; 232  : 		//
; 233  : 
; 234  : 		if (raw->ac.mob.sub_type == ENTITY_SUB_TYPE_UNINITIALISED)

  00396	8b 45 f8	 mov	 eax, DWORD PTR _raw$[ebp]
  00399	83 38 ff	 cmp	 DWORD PTR [eax], -1
  0039c	0f 85 ca 00 00
	00		 jne	 $LN10@create_loc

; 235  : 		{
; 236  : 			group_sub_type = get_local_entity_int_value (raw->ac.member_link.parent, INT_TYPE_ENTITY_SUB_TYPE);

  003a2	8b 45 f8	 mov	 eax, DWORD PTR _raw$[ebp]
  003a5	83 b8 bc 00 00
	00 00		 cmp	 DWORD PTR [eax+188], 0
  003ac	74 10		 je	 SHORT $LN26@create_loc
  003ae	8b 4d f8	 mov	 ecx, DWORD PTR _raw$[ebp]
  003b1	8b 91 bc 00 00
	00		 mov	 edx, DWORD PTR [ecx+188]
  003b7	8b 02		 mov	 eax, DWORD PTR [edx]
  003b9	89 45 b0	 mov	 DWORD PTR tv298[ebp], eax
  003bc	eb 25		 jmp	 SHORT $LN27@create_loc
$LN26@create_loc:
  003be	8b 0d 00 00 00
	00		 mov	 ecx, DWORD PTR ?__LINE__Var@?0??create_local@@YGPAUENTITY@@W4ENTITY_TYPES@@HPAD@Z@4JA
  003c4	81 c1 94 00 00
	00		 add	 ecx, 148		; 00000094H
  003ca	51		 push	 ecx
  003cb	68 00 00 00 00	 push	 OFFSET ??_C@_0FG@KGLCEJMF@c?3?2users?2nhv90?2projects?2eech?2ap@
  003d0	8b 15 00 00 00
	00		 mov	 edx, DWORD PTR ?null_entity_pointer_message@@3PBDB ; null_entity_pointer_message
  003d6	52		 push	 edx
  003d7	e8 00 00 00 00	 call	 ?process_assert@@YGXPBD0H@Z ; process_assert
  003dc	c7 45 b0 00 00
	00 00		 mov	 DWORD PTR tv298[ebp], 0
$LN27@create_loc:
  003e3	b8 01 00 00 00	 mov	 eax, 1
  003e8	85 c0		 test	 eax, eax
  003ea	74 09		 je	 SHORT $LN28@create_loc
  003ec	c7 45 ac 34 00
	00 00		 mov	 DWORD PTR tv306[ebp], 52 ; 00000034H
  003f3	eb 25		 jmp	 SHORT $LN29@create_loc
$LN28@create_loc:
  003f5	8b 0d 00 00 00
	00		 mov	 ecx, DWORD PTR ?__LINE__Var@?0??create_local@@YGPAUENTITY@@W4ENTITY_TYPES@@HPAD@Z@4JA
  003fb	81 c1 94 00 00
	00		 add	 ecx, 148		; 00000094H
  00401	51		 push	 ecx
  00402	68 00 00 00 00	 push	 OFFSET ??_C@_0FG@KGLCEJMF@c?3?2users?2nhv90?2projects?2eech?2ap@
  00407	8b 15 00 00 00
	00		 mov	 edx, DWORD PTR ?overload_invalid_int_type_message@@3PBDB ; overload_invalid_int_type_message
  0040d	52		 push	 edx
  0040e	e8 00 00 00 00	 call	 ?process_assert@@YGXPBD0H@Z ; process_assert
  00413	c7 45 ac 00 00
	00 00		 mov	 DWORD PTR tv306[ebp], 0
$LN29@create_loc:
  0041a	6a 34		 push	 52			; 00000034H
  0041c	8b 45 f8	 mov	 eax, DWORD PTR _raw$[ebp]
  0041f	8b 88 bc 00 00
	00		 mov	 ecx, DWORD PTR [eax+188]
  00425	51		 push	 ecx
  00426	69 55 b0 5c 04
	00 00		 imul	 edx, DWORD PTR tv298[ebp], 1116
  0042d	8b 45 ac	 mov	 eax, DWORD PTR tv306[ebp]
  00430	8b 8c 82 00 00
	00 00		 mov	 ecx, DWORD PTR ?fn_get_local_entity_int_value@@3PAY0BBH@P6GHPAUENTITY@@W4INT_TYPES@@@ZA[edx+eax*4]
  00437	ff d1		 call	 ecx
  00439	89 45 f4	 mov	 DWORD PTR _group_sub_type$[ebp], eax

; 237  : 
; 238  : 			if (raw->ac.mob.side == ENTITY_SIDE_BLUE_FORCE)

  0043c	8b 45 f8	 mov	 eax, DWORD PTR _raw$[ebp]
  0043f	8b 48 7c	 mov	 ecx, DWORD PTR [eax+124]
  00442	d1 e9		 shr	 ecx, 1
  00444	83 e1 03	 and	 ecx, 3
  00447	83 f9 01	 cmp	 ecx, 1
  0044a	75 11		 jne	 SHORT $LN9@create_loc

; 239  : 			{
; 240  : 				raw->ac.mob.sub_type = group_database[group_sub_type].default_blue_force_sub_type;

  0044c	6b 45 f4 64	 imul	 eax, DWORD PTR _group_sub_type$[ebp], 100
  00450	8b 4d f8	 mov	 ecx, DWORD PTR _raw$[ebp]
  00453	8b 90 20 00 00
	00		 mov	 edx, DWORD PTR ?group_database@@3PAUGROUP_DATA@@A[eax+32]
  00459	89 11		 mov	 DWORD PTR [ecx], edx

; 241  : 			}
; 242  : 			else

  0045b	eb 0f		 jmp	 SHORT $LN10@create_loc
$LN9@create_loc:

; 243  : 			{
; 244  : 				raw->ac.mob.sub_type = group_database[group_sub_type].default_red_force_sub_type;

  0045d	6b 45 f4 64	 imul	 eax, DWORD PTR _group_sub_type$[ebp], 100
  00461	8b 4d f8	 mov	 ecx, DWORD PTR _raw$[ebp]
  00464	8b 90 24 00 00
	00		 mov	 edx, DWORD PTR ?group_database@@3PAUGROUP_DATA@@A[eax+36]
  0046a	89 11		 mov	 DWORD PTR [ecx], edx
$LN10@create_loc:

; 245  : 			}
; 246  : 		}
; 247  : 
; 248  : 		ASSERT (entity_sub_type_aircraft_valid (raw->ac.mob.sub_type));

  0046c	8b 45 f8	 mov	 eax, DWORD PTR _raw$[ebp]
  0046f	83 38 00	 cmp	 DWORD PTR [eax], 0
  00472	7c 08		 jl	 SHORT $LN12@create_loc
  00474	8b 45 f8	 mov	 eax, DWORD PTR _raw$[ebp]
  00477	83 38 20	 cmp	 DWORD PTR [eax], 32	; 00000020H
  0047a	7c 1a		 jl	 SHORT $LN11@create_loc
$LN12@create_loc:
  0047c	a1 00 00 00 00	 mov	 eax, DWORD PTR ?__LINE__Var@?0??create_local@@YGPAUENTITY@@W4ENTITY_TYPES@@HPAD@Z@4JA
  00481	05 a0 00 00 00	 add	 eax, 160		; 000000a0H
  00486	50		 push	 eax
  00487	68 00 00 00 00	 push	 OFFSET ??_C@_0FG@KGLCEJMF@c?3?2users?2nhv90?2projects?2eech?2ap@
  0048c	68 00 00 00 00	 push	 OFFSET ??_C@_0DG@KEJHCNJ@entity_sub_type_aircraft_valid?5@
  00491	e8 00 00 00 00	 call	 ?process_assert@@YGXPBD0H@Z ; process_assert
$LN11@create_loc:

; 249  : 
; 250  : 		//
; 251  : 		// 3D shape
; 252  : 		//
; 253  : 
; 254  : 		if (raw->ac.object_3d_shape == OBJECT_3D_INVALID_OBJECT_INDEX)

  00496	8b 45 f8	 mov	 eax, DWORD PTR _raw$[ebp]
  00499	83 b8 80 00 00
	00 00		 cmp	 DWORD PTR [eax+128], 0
  004a0	75 18		 jne	 SHORT $LN13@create_loc

; 255  : 		{
; 256  : 			raw->ac.object_3d_shape = aircraft_database[raw->ac.mob.sub_type].default_3d_shape;

  004a2	8b 45 f8	 mov	 eax, DWORD PTR _raw$[ebp]
  004a5	69 08 f4 00 00
	00		 imul	 ecx, DWORD PTR [eax], 244
  004ab	8b 55 f8	 mov	 edx, DWORD PTR _raw$[ebp]
  004ae	8b 81 10 00 00
	00		 mov	 eax, DWORD PTR ?aircraft_database@@3PAUAIRCRAFT_DATA@@A[ecx+16]
  004b4	89 82 80 00 00
	00		 mov	 DWORD PTR [edx+128], eax
$LN13@create_loc:

; 257  : 		}
; 258  : 
; 259  : 		//
; 260  : 		// weapon config
; 261  : 		//
; 262  : 
; 263  : 		if (raw->ac.weapon_config_type == WEAPON_CONFIG_TYPE_UNINITIALISED)

  004ba	8b 45 f8	 mov	 eax, DWORD PTR _raw$[ebp]
  004bd	83 b8 1c 01 00
	00 ff		 cmp	 DWORD PTR [eax+284], -1
  004c4	75 18		 jne	 SHORT $LN14@create_loc

; 264  : 		{
; 265  : 			raw->ac.weapon_config_type = aircraft_database[raw->ac.mob.sub_type].default_weapon_config_type;

  004c6	8b 45 f8	 mov	 eax, DWORD PTR _raw$[ebp]
  004c9	69 08 f4 00 00
	00		 imul	 ecx, DWORD PTR [eax], 244
  004cf	8b 55 f8	 mov	 edx, DWORD PTR _raw$[ebp]
  004d2	8b 81 1c 00 00
	00		 mov	 eax, DWORD PTR ?aircraft_database@@3PAUAIRCRAFT_DATA@@A[ecx+28]
  004d8	89 82 1c 01 00
	00		 mov	 DWORD PTR [edx+284], eax
$LN14@create_loc:

; 266  : 		}
; 267  : 
; 268  : 		ASSERT (weapon_config_type_valid (raw->ac.weapon_config_type));

  004de	8b 45 f8	 mov	 eax, DWORD PTR _raw$[ebp]
  004e1	83 b8 1c 01 00
	00 00		 cmp	 DWORD PTR [eax+284], 0
  004e8	7c 0f		 jl	 SHORT $LN16@create_loc
  004ea	8b 45 f8	 mov	 eax, DWORD PTR _raw$[ebp]
  004ed	81 b8 1c 01 00
	00 cc 02 00 00	 cmp	 DWORD PTR [eax+284], 716 ; 000002ccH
  004f7	7c 1a		 jl	 SHORT $LN15@create_loc
$LN16@create_loc:
  004f9	a1 00 00 00 00	 mov	 eax, DWORD PTR ?__LINE__Var@?0??create_local@@YGPAUENTITY@@W4ENTITY_TYPES@@HPAD@Z@4JA
  004fe	05 b4 00 00 00	 add	 eax, 180		; 000000b4H
  00503	50		 push	 eax
  00504	68 00 00 00 00	 push	 OFFSET ??_C@_0FG@KGLCEJMF@c?3?2users?2nhv90?2projects?2eech?2ap@
  00509	68 00 00 00 00	 push	 OFFSET ??_C@_0DG@OOAIMCDD@weapon_config_type_valid?5?$CIraw?9?$DO@
  0050e	e8 00 00 00 00	 call	 ?process_assert@@YGXPBD0H@Z ; process_assert
$LN15@create_loc:

; 269  : 
; 270  : 		//
; 271  : 		// damage levels
; 272  : 		//
; 273  : 
; 274  : 		raw->ac.damage_level = aircraft_database[raw->ac.mob.sub_type].initial_damage_level;

  00513	8b 45 f8	 mov	 eax, DWORD PTR _raw$[ebp]
  00516	69 08 f4 00 00
	00		 imul	 ecx, DWORD PTR [eax], 244
  0051c	8b 55 f8	 mov	 edx, DWORD PTR _raw$[ebp]
  0051f	8b 81 e0 00 00
	00		 mov	 eax, DWORD PTR ?aircraft_database@@3PAUAIRCRAFT_DATA@@A[ecx+224]
  00525	89 82 34 01 00
	00		 mov	 DWORD PTR [edx+308], eax

; 275  : 
; 276  : 		////////////////////////////////////////
; 277  : 		//
; 278  : 		// BUILD COMPONENTS
; 279  : 		//
; 280  : 		////////////////////////////////////////
; 281  : 
; 282  : 		//
; 283  : 		// 3D object
; 284  : 		//
; 285  : 
; 286  : 		raw->ac.inst3d = construct_3d_object (raw->ac.object_3d_shape);

  0052b	8b 45 f8	 mov	 eax, DWORD PTR _raw$[ebp]
  0052e	8b 88 80 00 00
	00		 mov	 ecx, DWORD PTR [eax+128]
  00534	51		 push	 ecx
  00535	e8 00 00 00 00	 call	 ?construct_3d_object@@YGPAUOBJECT_3D_INSTANCE@@H@Z ; construct_3d_object
  0053a	8b 55 f8	 mov	 edx, DWORD PTR _raw$[ebp]
  0053d	89 82 84 00 00
	00		 mov	 DWORD PTR [edx+132], eax

; 287  : 
; 288  : 		set_helicopter_id_number (en);

  00543	8b 45 fc	 mov	 eax, DWORD PTR _en$[ebp]
  00546	50		 push	 eax
  00547	e8 00 00 00 00	 call	 ?set_helicopter_id_number@@YGXPAUENTITY@@@Z ; set_helicopter_id_number

; 289  : 
; 290  : 		if (get_local_entity_int_value (en, INT_TYPE_PLAYER_CONTROLLABLE))

  0054c	83 7d fc 00	 cmp	 DWORD PTR _en$[ebp], 0
  00550	74 0a		 je	 SHORT $LN30@create_loc
  00552	8b 45 fc	 mov	 eax, DWORD PTR _en$[ebp]
  00555	8b 08		 mov	 ecx, DWORD PTR [eax]
  00557	89 4d b0	 mov	 DWORD PTR tv397[ebp], ecx
  0055a	eb 1d		 jmp	 SHORT $LN31@create_loc
$LN30@create_loc:
  0055c	68 22 01 00 00	 push	 290			; 00000122H
  00561	68 00 00 00 00	 push	 OFFSET ??_C@_0FG@KGLCEJMF@c?3?2users?2nhv90?2projects?2eech?2ap@
  00566	8b 15 00 00 00
	00		 mov	 edx, DWORD PTR ?null_entity_pointer_message@@3PBDB ; null_entity_pointer_message
  0056c	52		 push	 edx
  0056d	e8 00 00 00 00	 call	 ?process_assert@@YGXPBD0H@Z ; process_assert
  00572	c7 45 b0 00 00
	00 00		 mov	 DWORD PTR tv397[ebp], 0
$LN31@create_loc:
  00579	b8 01 00 00 00	 mov	 eax, 1
  0057e	85 c0		 test	 eax, eax
  00580	74 09		 je	 SHORT $LN32@create_loc
  00582	c7 45 ac 9d 00
	00 00		 mov	 DWORD PTR tv404[ebp], 157 ; 0000009dH
  00589	eb 1d		 jmp	 SHORT $LN33@create_loc
$LN32@create_loc:
  0058b	68 22 01 00 00	 push	 290			; 00000122H
  00590	68 00 00 00 00	 push	 OFFSET ??_C@_0FG@KGLCEJMF@c?3?2users?2nhv90?2projects?2eech?2ap@
  00595	8b 0d 00 00 00
	00		 mov	 ecx, DWORD PTR ?overload_invalid_int_type_message@@3PBDB ; overload_invalid_int_type_message
  0059b	51		 push	 ecx
  0059c	e8 00 00 00 00	 call	 ?process_assert@@YGXPBD0H@Z ; process_assert
  005a1	c7 45 ac 00 00
	00 00		 mov	 DWORD PTR tv404[ebp], 0
$LN33@create_loc:
  005a8	68 9d 00 00 00	 push	 157			; 0000009dH
  005ad	8b 55 fc	 mov	 edx, DWORD PTR _en$[ebp]
  005b0	52		 push	 edx
  005b1	69 45 b0 5c 04
	00 00		 imul	 eax, DWORD PTR tv397[ebp], 1116
  005b8	8b 4d ac	 mov	 ecx, DWORD PTR tv404[ebp]
  005bb	8b 94 88 00 00
	00 00		 mov	 edx, DWORD PTR ?fn_get_local_entity_int_value@@3PAY0BBH@P6GHPAUENTITY@@W4INT_TYPES@@@ZA[eax+ecx*4]
  005c2	ff d2		 call	 edx
  005c4	85 c0		 test	 eax, eax
  005c6	74 09		 je	 SHORT $LN17@create_loc

; 291  : 		{
; 292  : 			deactivate_weapon_payload_markers (en);

  005c8	8b 45 fc	 mov	 eax, DWORD PTR _en$[ebp]
  005cb	50		 push	 eax
  005cc	e8 00 00 00 00	 call	 ?deactivate_weapon_payload_markers@@YGXPAUENTITY@@@Z ; deactivate_weapon_payload_markers
$LN17@create_loc:

; 293  : 		}
; 294  : 
; 295  : 		#if RECOGNITION_GUIDE
; 296  : 
; 297  : 		raw->ac.loading_door_state = AIRCRAFT_LOADING_DOORS_CLOSED_FLOAT_VALUE;
; 298  : 
; 299  : 		#endif
; 300  : 
; 301  : 		set_sub_object_type_visible_status (raw->ac.inst3d, OBJECT_3D_SUB_OBJECT_TROOP_TAKEOFF_ROUTE, FALSE);

  005d1	6a 00		 push	 0
  005d3	6a 34		 push	 52			; 00000034H
  005d5	8b 45 f8	 mov	 eax, DWORD PTR _raw$[ebp]
  005d8	8b 88 84 00 00
	00		 mov	 ecx, DWORD PTR [eax+132]
  005de	51		 push	 ecx
  005df	e8 00 00 00 00	 call	 ?set_sub_object_type_visible_status@@YGHPAUOBJECT_3D_INSTANCE@@HH@Z ; set_sub_object_type_visible_status

; 302  : 		set_sub_object_type_visible_status (raw->ac.inst3d, OBJECT_3D_SUB_OBJECT_TROOP_LANDING_ROUTE, FALSE);

  005e4	6a 00		 push	 0
  005e6	6a 59		 push	 89			; 00000059H
  005e8	8b 45 f8	 mov	 eax, DWORD PTR _raw$[ebp]
  005eb	8b 88 84 00 00
	00		 mov	 ecx, DWORD PTR [eax+132]
  005f1	51		 push	 ecx
  005f2	e8 00 00 00 00	 call	 ?set_sub_object_type_visible_status@@YGHPAUOBJECT_3D_INSTANCE@@HH@Z ; set_sub_object_type_visible_status

; 303  : 
; 304  : 		//
; 305  : 		// vary main rotor start position (ok to use a random number as this is for visual effect only)
; 306  : 		//
; 307  : 
; 308  : 		#if RECOGNITION_GUIDE
; 309  : 
; 310  : 		set_rotation_angle_of_helicopter_main_rotors (raw->ac.inst3d, 0.0);
; 311  : 
; 312  : 		set_rotation_angle_of_helicopter_tail_rotor (raw->ac.inst3d, 0.0);
; 313  : 
; 314  : 		#else
; 315  : 
; 316  : 		set_rotation_angle_of_helicopter_main_rotors (raw->ac.inst3d, sfrand1 () * PI);

  005f7	69 05 00 00 00
	00 6d 4e c6 41	 imul	 eax, DWORD PTR ?random_number_seed@@3HA, 1103515245 ; random_number_seed
  00601	05 39 30 00 00	 add	 eax, 12345		; 00003039H
  00606	a3 00 00 00 00	 mov	 DWORD PTR ?random_number_seed@@3HA, eax ; random_number_seed
  0060b	8b 0d 00 00 00
	00		 mov	 ecx, DWORD PTR ?random_number_seed@@3HA ; random_number_seed
  00611	c1 f9 10	 sar	 ecx, 16			; 00000010H
  00614	81 e1 ff 7f 00
	00		 and	 ecx, 32767		; 00007fffH
  0061a	81 e9 00 40 00
	00		 sub	 ecx, 16384		; 00004000H
  00620	f2 0f 2a c1	 cvtsi2sd xmm0, ecx
  00624	f2 0f 59 05 00
	00 00 00	 mulsd	 xmm0, QWORD PTR __real@3f10000000000000
  0062c	f2 0f 59 05 00
	00 00 00	 mulsd	 xmm0, QWORD PTR __real@400921fb60000000
  00634	f2 0f 5a c0	 cvtsd2ss xmm0, xmm0
  00638	51		 push	 ecx
  00639	f3 0f 11 04 24	 movss	 DWORD PTR [esp], xmm0
  0063e	8b 55 f8	 mov	 edx, DWORD PTR _raw$[ebp]
  00641	8b 82 84 00 00
	00		 mov	 eax, DWORD PTR [edx+132]
  00647	50		 push	 eax
  00648	e8 00 00 00 00	 call	 ?set_rotation_angle_of_helicopter_main_rotors@@YGXPAUOBJECT_3D_INSTANCE@@M@Z ; set_rotation_angle_of_helicopter_main_rotors

; 317  : 
; 318  : 		set_rotation_angle_of_helicopter_tail_rotor (raw->ac.inst3d, sfrand1 () * PI);

  0064d	69 05 00 00 00
	00 6d 4e c6 41	 imul	 eax, DWORD PTR ?random_number_seed@@3HA, 1103515245 ; random_number_seed
  00657	05 39 30 00 00	 add	 eax, 12345		; 00003039H
  0065c	a3 00 00 00 00	 mov	 DWORD PTR ?random_number_seed@@3HA, eax ; random_number_seed
  00661	8b 0d 00 00 00
	00		 mov	 ecx, DWORD PTR ?random_number_seed@@3HA ; random_number_seed
  00667	c1 f9 10	 sar	 ecx, 16			; 00000010H
  0066a	81 e1 ff 7f 00
	00		 and	 ecx, 32767		; 00007fffH
  00670	81 e9 00 40 00
	00		 sub	 ecx, 16384		; 00004000H
  00676	f2 0f 2a c1	 cvtsi2sd xmm0, ecx
  0067a	f2 0f 59 05 00
	00 00 00	 mulsd	 xmm0, QWORD PTR __real@3f10000000000000
  00682	f2 0f 59 05 00
	00 00 00	 mulsd	 xmm0, QWORD PTR __real@400921fb60000000
  0068a	f2 0f 5a c0	 cvtsd2ss xmm0, xmm0
  0068e	51		 push	 ecx
  0068f	f3 0f 11 04 24	 movss	 DWORD PTR [esp], xmm0
  00694	8b 55 f8	 mov	 edx, DWORD PTR _raw$[ebp]
  00697	8b 82 84 00 00
	00		 mov	 eax, DWORD PTR [edx+132]
  0069d	50		 push	 eax
  0069e	e8 00 00 00 00	 call	 ?set_rotation_angle_of_helicopter_tail_rotor@@YGXPAUOBJECT_3D_INSTANCE@@M@Z ; set_rotation_angle_of_helicopter_tail_rotor

; 319  : 
; 320  : 		#endif
; 321  : 
; 322  : 		//
; 323  : 		// weapon config
; 324  : 		//
; 325  : 
; 326  : 		raw->ac.weapon_package_status_array = (weapon_package_status *) malloc_fast_mem (SIZE_WEAPON_PACKAGE_STATUS_ARRAY);

  006a3	68 00 02 00 00	 push	 512			; 00000200H
  006a8	e8 00 00 00 00	 call	 ?malloc_fast_memory@@YGPAXI@Z ; malloc_fast_memory
  006ad	8b 4d f8	 mov	 ecx, DWORD PTR _raw$[ebp]
  006b0	89 81 20 01 00
	00		 mov	 DWORD PTR [ecx+288], eax

; 327  : 
; 328  : 		memset (raw->ac.weapon_package_status_array, 0, SIZE_WEAPON_PACKAGE_STATUS_ARRAY);

  006b6	68 00 02 00 00	 push	 512			; 00000200H
  006bb	6a 00		 push	 0
  006bd	8b 45 f8	 mov	 eax, DWORD PTR _raw$[ebp]
  006c0	8b 88 20 01 00
	00		 mov	 ecx, DWORD PTR [eax+288]
  006c6	51		 push	 ecx
  006c7	e8 00 00 00 00	 call	 _memset
  006cc	83 c4 0c	 add	 esp, 12			; 0000000cH

; 329  : 
; 330  : 		load_local_entity_weapon_config (en);

  006cf	8b 45 fc	 mov	 eax, DWORD PTR _en$[ebp]
  006d2	50		 push	 eax
  006d3	e8 00 00 00 00	 call	 ?load_local_entity_weapon_config@@YGXPAUENTITY@@@Z ; load_local_entity_weapon_config

; 331  : 
; 332  : 		//
; 333  : 		// update force info
; 334  : 		//
; 335  : 
; 336  : 		add_to_force_info (get_local_force_entity ((entity_sides) raw->ac.mob.side), en);

  006d8	8b 45 fc	 mov	 eax, DWORD PTR _en$[ebp]
  006db	50		 push	 eax
  006dc	8b 4d f8	 mov	 ecx, DWORD PTR _raw$[ebp]
  006df	8b 51 7c	 mov	 edx, DWORD PTR [ecx+124]
  006e2	d1 ea		 shr	 edx, 1
  006e4	83 e2 03	 and	 edx, 3
  006e7	52		 push	 edx
  006e8	e8 00 00 00 00	 call	 ?get_local_force_entity@@YGPAUENTITY@@W4ENTITY_SIDES@@@Z ; get_local_force_entity
  006ed	50		 push	 eax
  006ee	e8 00 00 00 00	 call	 ?add_to_force_info@@YGXPAUENTITY@@0@Z ; add_to_force_info

; 337  : 
; 338  : 		////////////////////////////////////////
; 339  : 		//
; 340  : 		// LINK INTO SYSTEM
; 341  : 		//
; 342  : 		////////////////////////////////////////
; 343  : 
; 344  : 		insert_local_entity_into_parents_child_list (en, LIST_TYPE_MEMBER, raw->ac.member_link.parent, raw->ac.member_link.child_pred);

  006f3	8b 45 f8	 mov	 eax, DWORD PTR _raw$[ebp]
  006f6	8b 88 c4 00 00
	00		 mov	 ecx, DWORD PTR [eax+196]
  006fc	51		 push	 ecx
  006fd	8b 55 f8	 mov	 edx, DWORD PTR _raw$[ebp]
  00700	8b 82 bc 00 00
	00		 mov	 eax, DWORD PTR [edx+188]
  00706	50		 push	 eax
  00707	6a 19		 push	 25			; 00000019H
  00709	8b 4d fc	 mov	 ecx, DWORD PTR _en$[ebp]
  0070c	51		 push	 ecx
  0070d	e8 00 00 00 00	 call	 ?insert_local_entity_into_parents_child_list@@YGXPAUENTITY@@W4LIST_TYPES@@00@Z ; insert_local_entity_into_parents_child_list

; 345  : 
; 346  : 		//
; 347  : 		// insert into LIST_TYPE_MEMBER before LIST_TYPE_VIEW
; 348  : 		//
; 349  : 
; 350  : 		insert_local_entity_into_parents_child_list (en, LIST_TYPE_VIEW, get_camera_entity (), get_local_entity_view_list_pred (en));

  00712	8b 45 fc	 mov	 eax, DWORD PTR _en$[ebp]
  00715	50		 push	 eax
  00716	e8 00 00 00 00	 call	 ?get_local_entity_view_list_pred@@YGPAUENTITY@@PAU1@@Z ; get_local_entity_view_list_pred
  0071b	50		 push	 eax
  0071c	8b 0d 00 00 00
	00		 mov	 ecx, DWORD PTR ?camera_entity@@3PAUENTITY@@A ; camera_entity
  00722	51		 push	 ecx
  00723	6a 2a		 push	 42			; 0000002aH
  00725	8b 55 fc	 mov	 edx, DWORD PTR _en$[ebp]
  00728	52		 push	 edx
  00729	e8 00 00 00 00	 call	 ?insert_local_entity_into_parents_child_list@@YGXPAUENTITY@@W4LIST_TYPES@@00@Z ; insert_local_entity_into_parents_child_list

; 351  : 
; 352  : 		insert_local_entity_into_parents_child_list (en, LIST_TYPE_SECTOR, get_local_sector_entity (&raw->ac.mob.position), NULL);

  0072e	6a 00		 push	 0
  00730	8b 45 f8	 mov	 eax, DWORD PTR _raw$[ebp]
  00733	83 c0 04	 add	 eax, 4
  00736	50		 push	 eax
  00737	e8 00 00 00 00	 call	 ?get_local_sector_entity@@YGPAUENTITY@@PAUVEC3D@@@Z ; get_local_sector_entity
  0073c	50		 push	 eax
  0073d	6a 21		 push	 33			; 00000021H
  0073f	8b 4d fc	 mov	 ecx, DWORD PTR _en$[ebp]
  00742	51		 push	 ecx
  00743	e8 00 00 00 00	 call	 ?insert_local_entity_into_parents_child_list@@YGXPAUENTITY@@W4LIST_TYPES@@00@Z ; insert_local_entity_into_parents_child_list

; 353  : 
; 354  : 		insert_local_entity_into_parents_child_list (en, LIST_TYPE_UPDATE, get_update_entity (), NULL);

  00748	6a 00		 push	 0
  0074a	a1 00 00 00 00	 mov	 eax, DWORD PTR ?update_entity@@3PAUENTITY@@A ; update_entity
  0074f	50		 push	 eax
  00750	6a 29		 push	 41			; 00000029H
  00752	8b 4d fc	 mov	 ecx, DWORD PTR _en$[ebp]
  00755	51		 push	 ecx
  00756	e8 00 00 00 00	 call	 ?insert_local_entity_into_parents_child_list@@YGXPAUENTITY@@W4LIST_TYPES@@00@Z ; insert_local_entity_into_parents_child_list

; 355  : 
; 356  : 		if (tacview_is_logging())

  0075b	83 3d 00 00 00
	00 00		 cmp	 DWORD PTR ?tacview_log_file@@3PAU_iobuf@@A, 0 ; tacview_log_file
  00762	74 09		 je	 SHORT $LN18@create_loc

; 357  : 			write_tacview_new_unit(en);

  00764	8b 45 fc	 mov	 eax, DWORD PTR _en$[ebp]
  00767	50		 push	 eax
  00768	e8 00 00 00 00	 call	 ?write_tacview_new_unit@@YGXPAUENTITY@@@Z ; write_tacview_new_unit
$LN18@create_loc:

; 358  : 	}
; 359  : 
; 360  : 	return (en);

  0076d	8b 45 fc	 mov	 eax, DWORD PTR _en$[ebp]

; 361  : }

  00770	5f		 pop	 edi
  00771	5e		 pop	 esi
  00772	5b		 pop	 ebx
  00773	8b e5		 mov	 esp, ebp
  00775	5d		 pop	 ebp
  00776	c2 0c 00	 ret	 12			; 0000000cH
?create_local@@YGPAUENTITY@@W4ENTITY_TYPES@@HPAD@Z ENDP	; create_local
_TEXT	ENDS
; Function compile flags: /Odtp /ZI
; File c:\users\nhv90\projects\eech\aphavoc\source\entity\mobile\aircraft\helicop\hc_creat.c
;	COMDAT ?create_helicopter_cockpit_sound_effect@@YGXPAUENTITY@@HH@Z
_TEXT	SEGMENT
tv90 = -76						; size = 4
tv82 = -72						; size = 4
_index$ = -4						; size = 4
_en$ = 8						; size = 4
_sub_type$ = 12						; size = 4
_sound_index$ = 16					; size = 4
?create_helicopter_cockpit_sound_effect@@YGXPAUENTITY@@HH@Z PROC ; create_helicopter_cockpit_sound_effect, COMDAT

; 630  : {

  00000	55		 push	 ebp
  00001	8b ec		 mov	 ebp, esp
  00003	83 ec 4c	 sub	 esp, 76			; 0000004cH
  00006	53		 push	 ebx
  00007	56		 push	 esi
  00008	57		 push	 edi

; 631  : 	int
; 632  : 		index;
; 633  : 
; 634  : 	index = sound_index;

  00009	8b 45 10	 mov	 eax, DWORD PTR _sound_index$[ebp]
  0000c	89 45 fc	 mov	 DWORD PTR _index$[ebp], eax

; 635  : 
; 636  : 	if (index != SOUND_SAMPLE_INDEX_NONE)

  0000f	83 7d fc 00	 cmp	 DWORD PTR _index$[ebp], 0
  00013	0f 84 ba 00 00
	00		 je	 $LN2@create_hel

; 637  : 	{
; 638  : 		create_client_server_sound_effect_entity

  00019	83 7d 08 00	 cmp	 DWORD PTR _en$[ebp], 0
  0001d	74 0a		 je	 SHORT $LN4@create_hel
  0001f	8b 45 08	 mov	 eax, DWORD PTR _en$[ebp]
  00022	8b 08		 mov	 ecx, DWORD PTR [eax]
  00024	89 4d b8	 mov	 DWORD PTR tv82[ebp], ecx
  00027	eb 21		 jmp	 SHORT $LN5@create_hel
$LN4@create_hel:
  00029	8b 15 00 00 00
	00		 mov	 edx, DWORD PTR ?__LINE__Var@?0??create_helicopter_cockpit_sound_effect@@YGXPAUENTITY@@HH@Z@4JA
  0002f	83 c2 0b	 add	 edx, 11			; 0000000bH
  00032	52		 push	 edx
  00033	68 00 00 00 00	 push	 OFFSET ??_C@_0FG@KGLCEJMF@c?3?2users?2nhv90?2projects?2eech?2ap@
  00038	a1 00 00 00 00	 mov	 eax, DWORD PTR ?null_entity_pointer_message@@3PBDB ; null_entity_pointer_message
  0003d	50		 push	 eax
  0003e	e8 00 00 00 00	 call	 ?process_assert@@YGXPBD0H@Z ; process_assert
  00043	c7 45 b8 00 00
	00 00		 mov	 DWORD PTR tv82[ebp], 0
$LN5@create_hel:
  0004a	b9 01 00 00 00	 mov	 ecx, 1
  0004f	85 c9		 test	 ecx, ecx
  00051	74 09		 je	 SHORT $LN6@create_hel
  00053	c7 45 b4 bb 00
	00 00		 mov	 DWORD PTR tv90[ebp], 187 ; 000000bbH
  0005a	eb 21		 jmp	 SHORT $LN7@create_hel
$LN6@create_hel:
  0005c	8b 15 00 00 00
	00		 mov	 edx, DWORD PTR ?__LINE__Var@?0??create_helicopter_cockpit_sound_effect@@YGXPAUENTITY@@HH@Z@4JA
  00062	83 c2 0b	 add	 edx, 11			; 0000000bH
  00065	52		 push	 edx
  00066	68 00 00 00 00	 push	 OFFSET ??_C@_0FG@KGLCEJMF@c?3?2users?2nhv90?2projects?2eech?2ap@
  0006b	a1 00 00 00 00	 mov	 eax, DWORD PTR ?overload_invalid_int_type_message@@3PBDB ; overload_invalid_int_type_message
  00070	50		 push	 eax
  00071	e8 00 00 00 00	 call	 ?process_assert@@YGXPBD0H@Z ; process_assert
  00076	c7 45 b4 00 00
	00 00		 mov	 DWORD PTR tv90[ebp], 0
$LN7@create_hel:
  0007d	8d 4d fc	 lea	 ecx, DWORD PTR _index$[ebp]
  00080	51		 push	 ecx
  00081	6a 01		 push	 1
  00083	6a 01		 push	 1
  00085	6a 00		 push	 0
  00087	51		 push	 ecx
  00088	f3 0f 10 05 00
	00 00 00	 movss	 xmm0, DWORD PTR __real@3f800000
  00090	f3 0f 11 04 24	 movss	 DWORD PTR [esp], xmm0
  00095	51		 push	 ecx
  00096	f3 0f 10 05 00
	00 00 00	 movss	 xmm0, DWORD PTR __real@3f800000
  0009e	f3 0f 11 04 24	 movss	 DWORD PTR [esp], xmm0
  000a3	6a 00		 push	 0
  000a5	6a 01		 push	 1
  000a7	6a 00		 push	 0
  000a9	8b 55 0c	 mov	 edx, DWORD PTR _sub_type$[ebp]
  000ac	52		 push	 edx
  000ad	68 bb 00 00 00	 push	 187			; 000000bbH
  000b2	8b 45 08	 mov	 eax, DWORD PTR _en$[ebp]
  000b5	50		 push	 eax
  000b6	69 4d b8 5c 04
	00 00		 imul	 ecx, DWORD PTR tv82[ebp], 1116
  000bd	8b 55 b4	 mov	 edx, DWORD PTR tv90[ebp]
  000c0	8b 84 91 00 00
	00 00		 mov	 eax, DWORD PTR ?fn_get_local_entity_int_value@@3PAY0BBH@P6GHPAUENTITY@@W4INT_TYPES@@@ZA[ecx+edx*4]
  000c7	ff d0		 call	 eax
  000c9	50		 push	 eax
  000ca	8b 4d 08	 mov	 ecx, DWORD PTR _en$[ebp]
  000cd	51		 push	 ecx
  000ce	e8 00 00 00 00	 call	 ?create_client_server_sound_effect_entity@@YGPAUENTITY@@PAU1@W4ENTITY_SIDES@@HW4SOUND_CHANNEL_TYPES@@W4SOUND_LOCALITY_TYPES@@PAUVEC3D@@MMHHHPAH@Z ; create_client_server_sound_effect_entity
$LN2@create_hel:

; 639  : 		(
; 640  : 			en,
; 641  : 			(entity_sides) get_local_entity_int_value (en, INT_TYPE_SIDE),
; 642  : 			sub_type,
; 643  : 			SOUND_CHANNEL_SOUND_EFFECT,
; 644  : 			SOUND_LOCALITY_INTERIOR,
; 645  : 			NULL,												// position
; 646  : 			1.0,												// amplification
; 647  : 			1.0,												// Werewolf pitch
; 648  : 			FALSE,											// valid sound effect
; 649  : 			TRUE,												// looping
; 650  : 			1,													// sample count
; 651  : 			&index											// sample index list
; 652  : 		);
; 653  : 	}
; 654  : }

  000d3	5f		 pop	 edi
  000d4	5e		 pop	 esi
  000d5	5b		 pop	 ebx
  000d6	8b e5		 mov	 esp, ebp
  000d8	5d		 pop	 ebp
  000d9	c2 0c 00	 ret	 12			; 0000000cH
?create_helicopter_cockpit_sound_effect@@YGXPAUENTITY@@HH@Z ENDP ; create_helicopter_cockpit_sound_effect
_TEXT	ENDS
; Function compile flags: /Odtp /ZI
; File c:\users\nhv90\projects\eech\aphavoc\source\entity\mobile\aircraft\helicop\hc_creat.c
;	COMDAT ?create_client_server_entity_helicopter@@YGPAUENTITY@@HHPAU1@PAUVEC3D@@@Z
_TEXT	SEGMENT
tv129 = -96						; size = 4
_incoming_effect_index$1 = -28				; size = 4
_locked_effect_index$2 = -24				; size = 4
_tracked_effect_index$3 = -20				; size = 4
_lock_on_effect_index$4 = -16				; size = 4
_mca_effect_index$5 = -12				; size = 4
_raw$ = -8						; size = 4
_new_entity$ = -4					; size = 4
_index$ = 8						; size = 4
_sub_type$ = 12						; size = 4
_group$ = 16						; size = 4
_position$ = 20						; size = 4
?create_client_server_entity_helicopter@@YGPAUENTITY@@HHPAU1@PAUVEC3D@@@Z PROC ; create_client_server_entity_helicopter, COMDAT

; 448  : {

  00000	55		 push	 ebp
  00001	8b ec		 mov	 ebp, esp
  00003	83 ec 60	 sub	 esp, 96			; 00000060H
  00006	53		 push	 ebx
  00007	56		 push	 esi
  00008	57		 push	 edi

; 449  : 	entity
; 450  : 		*new_entity;
; 451  : 
; 452  : 	helicopter
; 453  : 		*raw;
; 454  : 
; 455  : 	ASSERT (get_comms_model() == COMMS_MODEL_SERVER);

  00009	83 3d 00 00 00
	00 00		 cmp	 DWORD PTR ?system_comms_model@@3W4COMMS_MODEL_TYPES@@A, 0 ; system_comms_model
  00010	74 18		 je	 SHORT $LN4@create_cli
  00012	a1 00 00 00 00	 mov	 eax, DWORD PTR ?__LINE__Var@?0??create_client_server_entity_helicopter@@YGPAUENTITY@@HHPAU2@PAUVEC3D@@@Z@4JA
  00017	83 c0 07	 add	 eax, 7
  0001a	50		 push	 eax
  0001b	68 00 00 00 00	 push	 OFFSET ??_C@_0FG@KGLCEJMF@c?3?2users?2nhv90?2projects?2eech?2ap@
  00020	68 00 00 00 00	 push	 OFFSET ??_C@_0CI@NLFHFOLH@get_comms_model?$CI?$CJ?5?$DN?$DN?5COMMS_MODE@
  00025	e8 00 00 00 00	 call	 ?process_assert@@YGXPBD0H@Z ; process_assert
$LN4@create_cli:

; 456  : 
; 457  : 	//
; 458  : 	// create helicopter entity
; 459  : 	//
; 460  : 
; 461  : 	new_entity = create_client_server_entity

  0002a	6a 00		 push	 0
  0002c	8b 45 14	 mov	 eax, DWORD PTR _position$[ebp]
  0002f	f3 0f 10 40 08	 movss	 xmm0, DWORD PTR [eax+8]
  00034	f3 0f 5a c0	 cvtss2sd xmm0, xmm0
  00038	83 ec 08	 sub	 esp, 8
  0003b	f2 0f 11 04 24	 movsd	 QWORD PTR [esp], xmm0
  00040	8b 4d 14	 mov	 ecx, DWORD PTR _position$[ebp]
  00043	f3 0f 10 41 04	 movss	 xmm0, DWORD PTR [ecx+4]
  00048	f3 0f 5a c0	 cvtss2sd xmm0, xmm0
  0004c	83 ec 08	 sub	 esp, 8
  0004f	f2 0f 11 04 24	 movsd	 QWORD PTR [esp], xmm0
  00054	8b 55 14	 mov	 edx, DWORD PTR _position$[ebp]
  00057	f3 0f 10 02	 movss	 xmm0, DWORD PTR [edx]
  0005b	f3 0f 5a c0	 cvtss2sd xmm0, xmm0
  0005f	83 ec 08	 sub	 esp, 8
  00062	f2 0f 11 04 24	 movsd	 QWORD PTR [esp], xmm0
  00067	6a 08		 push	 8
  00069	6a 09		 push	 9
  0006b	8b 45 0c	 mov	 eax, DWORD PTR _sub_type$[ebp]
  0006e	50		 push	 eax
  0006f	6a 34		 push	 52			; 00000034H
  00071	6a 05		 push	 5
  00073	8b 4d 10	 mov	 ecx, DWORD PTR _group$[ebp]
  00076	51		 push	 ecx
  00077	6a 19		 push	 25			; 00000019H
  00079	6a 06		 push	 6
  0007b	8b 55 08	 mov	 edx, DWORD PTR _index$[ebp]
  0007e	52		 push	 edx
  0007f	6a 0e		 push	 14			; 0000000eH
  00081	e8 00 00 00 00	 call	 ?create_client_server_entity@@YAPAUENTITY@@W4ENTITY_TYPES@@HZZ ; create_client_server_entity
  00086	83 c4 44	 add	 esp, 68			; 00000044H
  00089	89 45 fc	 mov	 DWORD PTR _new_entity$[ebp], eax

; 462  : 	(
; 463  : 		ENTITY_TYPE_HELICOPTER,
; 464  : 		index,
; 465  : 		ENTITY_ATTR_PARENT (LIST_TYPE_MEMBER, group),
; 466  : 		ENTITY_ATTR_INT_VALUE (INT_TYPE_ENTITY_SUB_TYPE, sub_type),
; 467  : 		ENTITY_ATTR_VEC3D (VEC3D_TYPE_POSITION, position->x, position->y, position->z),
; 468  : 		ENTITY_ATTR_END
; 469  : 	);
; 470  : 
; 471  : 	//
; 472  : 	// create and attach special effects
; 473  : 	//
; 474  : 
; 475  : 	create_helicopter_rotor_sound_effects (new_entity);

  0008c	8b 45 fc	 mov	 eax, DWORD PTR _new_entity$[ebp]
  0008f	50		 push	 eax
  00090	e8 00 00 00 00	 call	 ?create_helicopter_rotor_sound_effects@@YGXPAUENTITY@@@Z ; create_helicopter_rotor_sound_effects

; 476  : 
; 477  : 	{
; 478  : 		sound_sample_indices
; 479  : 			mca_effect_index,
; 480  : 			lock_on_effect_index,
; 481  : 			tracked_effect_index,
; 482  : 			locked_effect_index,
; 483  : 			incoming_effect_index;
; 484  : 
; 485  : 		//
; 486  : 		// sound effects
; 487  : 		//
; 488  : 
; 489  : 		mca_effect_index = SOUND_SAMPLE_INDEX_NONE;

  00095	c7 45 f4 00 00
	00 00		 mov	 DWORD PTR _mca_effect_index$5[ebp], 0

; 490  : 		lock_on_effect_index = SOUND_SAMPLE_INDEX_NONE;

  0009c	c7 45 f0 00 00
	00 00		 mov	 DWORD PTR _lock_on_effect_index$4[ebp], 0

; 491  : 		tracked_effect_index = SOUND_SAMPLE_INDEX_NONE;

  000a3	c7 45 ec 00 00
	00 00		 mov	 DWORD PTR _tracked_effect_index$3[ebp], 0

; 492  : 		locked_effect_index = SOUND_SAMPLE_INDEX_NONE;

  000aa	c7 45 e8 00 00
	00 00		 mov	 DWORD PTR _locked_effect_index$2[ebp], 0

; 493  : 		incoming_effect_index = SOUND_SAMPLE_INDEX_NONE;

  000b1	c7 45 e4 00 00
	00 00		 mov	 DWORD PTR _incoming_effect_index$1[ebp], 0

; 494  : 
; 495  : 		switch (sub_type)

  000b8	8b 45 0c	 mov	 eax, DWORD PTR _sub_type$[ebp]
  000bb	89 45 a0	 mov	 DWORD PTR tv129[ebp], eax
  000be	83 7d a0 1f	 cmp	 DWORD PTR tv129[ebp], 31 ; 0000001fH
  000c2	0f 87 93 01 00
	00		 ja	 $LN2@create_cli
  000c8	8b 4d a0	 mov	 ecx, DWORD PTR tv129[ebp]
  000cb	0f b6 91 00 00
	00 00		 movzx	 edx, BYTE PTR $LN16@create_cli[ecx]
  000d2	ff 24 95 00 00
	00 00		 jmp	 DWORD PTR $LN17@create_cli[edx*4]
$LN5@create_cli:

; 496  : 		{
; 497  : 			case ENTITY_SUB_TYPE_AIRCRAFT_AH64D_APACHE_LONGBOW:
; 498  : 			{
; 499  : 				mca_effect_index = SOUND_SAMPLE_INDEX_APACHE_MCA;

  000d9	c7 45 f4 08 00
	00 00		 mov	 DWORD PTR _mca_effect_index$5[ebp], 8

; 500  : 				lock_on_effect_index = SOUND_SAMPLE_INDEX_APACHE_LOCK_ON;

  000e0	c7 45 f0 07 00
	00 00		 mov	 DWORD PTR _lock_on_effect_index$4[ebp], 7

; 501  : 				tracked_effect_index = SOUND_SAMPLE_INDEX_WARNING_TRACKED_BY_RADAR;

  000e7	c7 45 ec 27 00
	00 00		 mov	 DWORD PTR _tracked_effect_index$3[ebp], 39 ; 00000027H

; 502  : 				locked_effect_index = SOUND_SAMPLE_INDEX_WARNING_LOCKED_BY_RADAR;

  000ee	c7 45 e8 28 00
	00 00		 mov	 DWORD PTR _locked_effect_index$2[ebp], 40 ; 00000028H

; 503  : 				incoming_effect_index = SOUND_SAMPLE_INDEX_WARNING_INCOMING_MISSILE;

  000f5	c7 45 e4 29 00
	00 00		 mov	 DWORD PTR _incoming_effect_index$1[ebp], 41 ; 00000029H

; 504  : 				break;

  000fc	e9 5a 01 00 00	 jmp	 $LN2@create_cli
$LN6@create_cli:

; 505  : 			}
; 506  : 			case ENTITY_SUB_TYPE_AIRCRAFT_RAH66_COMANCHE:
; 507  : 			{
; 508  : 				mca_effect_index = SOUND_SAMPLE_INDEX_COMANCHE_MCA;

  00101	c7 45 f4 ac 07
	00 00		 mov	 DWORD PTR _mca_effect_index$5[ebp], 1964 ; 000007acH

; 509  : 				lock_on_effect_index = SOUND_SAMPLE_INDEX_COMANCHE_LOCK_ON;

  00108	c7 45 f0 ab 07
	00 00		 mov	 DWORD PTR _lock_on_effect_index$4[ebp], 1963 ; 000007abH

; 510  : 				tracked_effect_index = SOUND_SAMPLE_INDEX_WARNING_TRACKED_BY_RADAR;

  0010f	c7 45 ec 27 00
	00 00		 mov	 DWORD PTR _tracked_effect_index$3[ebp], 39 ; 00000027H

; 511  : 				locked_effect_index = SOUND_SAMPLE_INDEX_WARNING_LOCKED_BY_RADAR;

  00116	c7 45 e8 28 00
	00 00		 mov	 DWORD PTR _locked_effect_index$2[ebp], 40 ; 00000028H

; 512  : 				incoming_effect_index = SOUND_SAMPLE_INDEX_WARNING_INCOMING_MISSILE;

  0011d	c7 45 e4 29 00
	00 00		 mov	 DWORD PTR _incoming_effect_index$1[ebp], 41 ; 00000029H

; 513  : 				break;

  00124	e9 32 01 00 00	 jmp	 $LN2@create_cli
$LN7@create_cli:

; 514  : 			}
; 515  : 		////Moje 030527 start
; 516  : 			case ENTITY_SUB_TYPE_AIRCRAFT_UH60_BLACK_HAWK:
; 517  : 		////Moje 030527 End
; 518  : 			{
; 519  : 				mca_effect_index = SOUND_SAMPLE_INDEX_BLACKHAWK_MCA;

  00129	c7 45 f4 c4 07
	00 00		 mov	 DWORD PTR _mca_effect_index$5[ebp], 1988 ; 000007c4H

; 520  : 				lock_on_effect_index = SOUND_SAMPLE_INDEX_BLACKHAWK_LOCK_ON;

  00130	c7 45 f0 c3 07
	00 00		 mov	 DWORD PTR _lock_on_effect_index$4[ebp], 1987 ; 000007c3H

; 521  : 				tracked_effect_index = SOUND_SAMPLE_INDEX_WARNING_TRACKED_BY_RADAR;

  00137	c7 45 ec 27 00
	00 00		 mov	 DWORD PTR _tracked_effect_index$3[ebp], 39 ; 00000027H

; 522  : 				locked_effect_index = SOUND_SAMPLE_INDEX_WARNING_LOCKED_BY_RADAR;

  0013e	c7 45 e8 28 00
	00 00		 mov	 DWORD PTR _locked_effect_index$2[ebp], 40 ; 00000028H

; 523  : 				incoming_effect_index = SOUND_SAMPLE_INDEX_WARNING_INCOMING_MISSILE;

  00145	c7 45 e4 29 00
	00 00		 mov	 DWORD PTR _incoming_effect_index$1[ebp], 41 ; 00000029H

; 524  : 				break;

  0014c	e9 0a 01 00 00	 jmp	 $LN2@create_cli
$LN8@create_cli:

; 525  : 			}
; 526  : 		////Moje 030816 start
; 527  : 			case ENTITY_SUB_TYPE_AIRCRAFT_AH64A_APACHE:
; 528  : 		////Moje 030816 End
; 529  : 			{
; 530  : 				mca_effect_index = SOUND_SAMPLE_INDEX_APACHE_MCA;

  00151	c7 45 f4 08 00
	00 00		 mov	 DWORD PTR _mca_effect_index$5[ebp], 8

; 531  : 				lock_on_effect_index = SOUND_SAMPLE_INDEX_APACHE_LOCK_ON;

  00158	c7 45 f0 07 00
	00 00		 mov	 DWORD PTR _lock_on_effect_index$4[ebp], 7

; 532  : 				tracked_effect_index = SOUND_SAMPLE_INDEX_WARNING_TRACKED_BY_RADAR;

  0015f	c7 45 ec 27 00
	00 00		 mov	 DWORD PTR _tracked_effect_index$3[ebp], 39 ; 00000027H

; 533  : 				locked_effect_index = SOUND_SAMPLE_INDEX_WARNING_LOCKED_BY_RADAR;

  00166	c7 45 e8 28 00
	00 00		 mov	 DWORD PTR _locked_effect_index$2[ebp], 40 ; 00000028H

; 534  : 				incoming_effect_index = SOUND_SAMPLE_INDEX_WARNING_INCOMING_MISSILE;

  0016d	c7 45 e4 29 00
	00 00		 mov	 DWORD PTR _incoming_effect_index$1[ebp], 41 ; 00000029H

; 535  : 				break;

  00174	e9 e2 00 00 00	 jmp	 $LN2@create_cli
$LN9@create_cli:

; 536  : 			}
; 537  : 			case ENTITY_SUB_TYPE_AIRCRAFT_MI28N_HAVOC_B:
; 538  : 			{
; 539  : 				mca_effect_index = SOUND_SAMPLE_INDEX_HAVOC_MCA;

  00179	c7 45 f4 10 00
	00 00		 mov	 DWORD PTR _mca_effect_index$5[ebp], 16 ; 00000010H

; 540  : 				lock_on_effect_index = SOUND_SAMPLE_INDEX_HAVOC_LOCK_ON;

  00180	c7 45 f0 0f 00
	00 00		 mov	 DWORD PTR _lock_on_effect_index$4[ebp], 15 ; 0000000fH

; 541  : 				tracked_effect_index = SOUND_SAMPLE_INDEX_WARNING_TRACKED_BY_RADAR;

  00187	c7 45 ec 27 00
	00 00		 mov	 DWORD PTR _tracked_effect_index$3[ebp], 39 ; 00000027H

; 542  : 				locked_effect_index = SOUND_SAMPLE_INDEX_WARNING_LOCKED_BY_RADAR;

  0018e	c7 45 e8 28 00
	00 00		 mov	 DWORD PTR _locked_effect_index$2[ebp], 40 ; 00000028H

; 543  : 				incoming_effect_index = SOUND_SAMPLE_INDEX_WARNING_INCOMING_MISSILE;

  00195	c7 45 e4 29 00
	00 00		 mov	 DWORD PTR _incoming_effect_index$1[ebp], 41 ; 00000029H

; 544  : 				break;

  0019c	e9 ba 00 00 00	 jmp	 $LN2@create_cli
$LN10@create_cli:

; 545  : 			}
; 546  : 			case ENTITY_SUB_TYPE_AIRCRAFT_KA52_HOKUM_B:
; 547  : 			{
; 548  : 				mca_effect_index = SOUND_SAMPLE_INDEX_HOKUM_MCA;

  001a1	c7 45 f4 b8 07
	00 00		 mov	 DWORD PTR _mca_effect_index$5[ebp], 1976 ; 000007b8H

; 549  : 				lock_on_effect_index = SOUND_SAMPLE_INDEX_HOKUM_LOCK_ON;

  001a8	c7 45 f0 b7 07
	00 00		 mov	 DWORD PTR _lock_on_effect_index$4[ebp], 1975 ; 000007b7H

; 550  : 				tracked_effect_index = SOUND_SAMPLE_INDEX_WARNING_TRACKED_BY_RADAR;

  001af	c7 45 ec 27 00
	00 00		 mov	 DWORD PTR _tracked_effect_index$3[ebp], 39 ; 00000027H

; 551  : 				locked_effect_index = SOUND_SAMPLE_INDEX_WARNING_LOCKED_BY_RADAR;

  001b6	c7 45 e8 28 00
	00 00		 mov	 DWORD PTR _locked_effect_index$2[ebp], 40 ; 00000028H

; 552  : 				incoming_effect_index = SOUND_SAMPLE_INDEX_WARNING_INCOMING_MISSILE;

  001bd	c7 45 e4 29 00
	00 00		 mov	 DWORD PTR _incoming_effect_index$1[ebp], 41 ; 00000029H

; 553  : 				break;

  001c4	e9 92 00 00 00	 jmp	 $LN2@create_cli
$LN11@create_cli:

; 554  : 			}
; 555  : 			////Moje 030612 line below added
; 556  : 			case ENTITY_SUB_TYPE_AIRCRAFT_MI24D_HIND:
; 557  : 			{
; 558  : 				mca_effect_index = SOUND_SAMPLE_INDEX_HIND_MCA;

  001c9	c7 45 f4 d0 07
	00 00		 mov	 DWORD PTR _mca_effect_index$5[ebp], 2000 ; 000007d0H

; 559  : 				lock_on_effect_index = SOUND_SAMPLE_INDEX_HIND_LOCK_ON;

  001d0	c7 45 f0 cf 07
	00 00		 mov	 DWORD PTR _lock_on_effect_index$4[ebp], 1999 ; 000007cfH

; 560  : 				tracked_effect_index = SOUND_SAMPLE_INDEX_WARNING_TRACKED_BY_RADAR;

  001d7	c7 45 ec 27 00
	00 00		 mov	 DWORD PTR _tracked_effect_index$3[ebp], 39 ; 00000027H

; 561  : 				locked_effect_index = SOUND_SAMPLE_INDEX_WARNING_LOCKED_BY_RADAR;

  001de	c7 45 e8 28 00
	00 00		 mov	 DWORD PTR _locked_effect_index$2[ebp], 40 ; 00000028H

; 562  : 				incoming_effect_index = SOUND_SAMPLE_INDEX_WARNING_INCOMING_MISSILE;

  001e5	c7 45 e4 29 00
	00 00		 mov	 DWORD PTR _incoming_effect_index$1[ebp], 41 ; 00000029H

; 563  : 				break;

  001ec	eb 6d		 jmp	 SHORT $LN2@create_cli
$LN12@create_cli:

; 564  : 			}
; 565  : 			////Moje 030816 line below added
; 566  : 			case ENTITY_SUB_TYPE_AIRCRAFT_KA50_HOKUM:
; 567  : 			{
; 568  : 				mca_effect_index = SOUND_SAMPLE_INDEX_HOKUM_MCA;

  001ee	c7 45 f4 b8 07
	00 00		 mov	 DWORD PTR _mca_effect_index$5[ebp], 1976 ; 000007b8H

; 569  : 				lock_on_effect_index = SOUND_SAMPLE_INDEX_HOKUM_LOCK_ON;

  001f5	c7 45 f0 b7 07
	00 00		 mov	 DWORD PTR _lock_on_effect_index$4[ebp], 1975 ; 000007b7H

; 570  : 				tracked_effect_index = SOUND_SAMPLE_INDEX_WARNING_TRACKED_BY_RADAR;

  001fc	c7 45 ec 27 00
	00 00		 mov	 DWORD PTR _tracked_effect_index$3[ebp], 39 ; 00000027H

; 571  : 				locked_effect_index = SOUND_SAMPLE_INDEX_WARNING_LOCKED_BY_RADAR;

  00203	c7 45 e8 28 00
	00 00		 mov	 DWORD PTR _locked_effect_index$2[ebp], 40 ; 00000028H

; 572  : 				incoming_effect_index = SOUND_SAMPLE_INDEX_WARNING_INCOMING_MISSILE;

  0020a	c7 45 e4 29 00
	00 00		 mov	 DWORD PTR _incoming_effect_index$1[ebp], 41 ; 00000029H

; 573  : 				break;

  00211	eb 48		 jmp	 SHORT $LN2@create_cli
$LN13@create_cli:

; 574  : 			}
; 575  : 			// start new entities by GCsDriver  08-12-2007
; 576  : 			case ENTITY_SUB_TYPE_AIRCRAFT_AH1T_SEACOBRA:
; 577  : 			case ENTITY_SUB_TYPE_AIRCRAFT_AH1W_SUPERCOBRA:
; 578  : 			case ENTITY_SUB_TYPE_AIRCRAFT_AH1Z_VIPER:
; 579  : 			case ENTITY_SUB_TYPE_AIRCRAFT_OH58D_KIOWA_WARRIOR:
; 580  : 			case ENTITY_SUB_TYPE_AIRCRAFT_CH46E_SEA_KNIGHT:
; 581  : 			case ENTITY_SUB_TYPE_AIRCRAFT_CH3_JOLLY_GREEN_GIANT:
; 582  : 			case ENTITY_SUB_TYPE_AIRCRAFT_CH47D_CHINOOK:
; 583  : 			case ENTITY_SUB_TYPE_AIRCRAFT_MV22_OSPREY:
; 584  : 			case ENTITY_SUB_TYPE_AIRCRAFT_CH53E_SUPER_STALLION:
; 585  : 			{
; 586  : 				mca_effect_index = SOUND_SAMPLE_INDEX_APACHE_MCA;

  00213	c7 45 f4 08 00
	00 00		 mov	 DWORD PTR _mca_effect_index$5[ebp], 8

; 587  : 				lock_on_effect_index = SOUND_SAMPLE_INDEX_APACHE_LOCK_ON;

  0021a	c7 45 f0 07 00
	00 00		 mov	 DWORD PTR _lock_on_effect_index$4[ebp], 7

; 588  : 				tracked_effect_index = SOUND_SAMPLE_INDEX_WARNING_TRACKED_BY_RADAR;

  00221	c7 45 ec 27 00
	00 00		 mov	 DWORD PTR _tracked_effect_index$3[ebp], 39 ; 00000027H

; 589  : 				locked_effect_index = SOUND_SAMPLE_INDEX_WARNING_LOCKED_BY_RADAR;

  00228	c7 45 e8 28 00
	00 00		 mov	 DWORD PTR _locked_effect_index$2[ebp], 40 ; 00000028H

; 590  : 				incoming_effect_index = SOUND_SAMPLE_INDEX_WARNING_INCOMING_MISSILE;

  0022f	c7 45 e4 29 00
	00 00		 mov	 DWORD PTR _incoming_effect_index$1[ebp], 41 ; 00000029H

; 591  : 				break;

  00236	eb 23		 jmp	 SHORT $LN2@create_cli
$LN14@create_cli:

; 592  : 			}
; 593  : 			case ENTITY_SUB_TYPE_AIRCRAFT_KA29_HELIX_B:
; 594  : 			case ENTITY_SUB_TYPE_AIRCRAFT_MI17_HIP:
; 595  : 			case ENTITY_SUB_TYPE_AIRCRAFT_MI6_HOOK:
; 596  : 			{
; 597  : 				mca_effect_index = SOUND_SAMPLE_INDEX_HOKUM_MCA;

  00238	c7 45 f4 b8 07
	00 00		 mov	 DWORD PTR _mca_effect_index$5[ebp], 1976 ; 000007b8H

; 598  : 				lock_on_effect_index = SOUND_SAMPLE_INDEX_HOKUM_LOCK_ON;

  0023f	c7 45 f0 b7 07
	00 00		 mov	 DWORD PTR _lock_on_effect_index$4[ebp], 1975 ; 000007b7H

; 599  : 				tracked_effect_index = SOUND_SAMPLE_INDEX_WARNING_TRACKED_BY_RADAR;

  00246	c7 45 ec 27 00
	00 00		 mov	 DWORD PTR _tracked_effect_index$3[ebp], 39 ; 00000027H

; 600  : 				locked_effect_index = SOUND_SAMPLE_INDEX_WARNING_LOCKED_BY_RADAR;

  0024d	c7 45 e8 28 00
	00 00		 mov	 DWORD PTR _locked_effect_index$2[ebp], 40 ; 00000028H

; 601  : 				incoming_effect_index = SOUND_SAMPLE_INDEX_WARNING_INCOMING_MISSILE;

  00254	c7 45 e4 29 00
	00 00		 mov	 DWORD PTR _incoming_effect_index$1[ebp], 41 ; 00000029H
$LN2@create_cli:

; 602  : 				break;
; 603  : 			}
; 604  : 			// end new entities by GCsDriver  08-12-2007
; 605  : 		}
; 606  : 
; 607  : 		create_helicopter_cockpit_sound_effect (new_entity, ENTITY_SUB_TYPE_EFFECT_SOUND_MCA, mca_effect_index);

  0025b	8b 45 f4	 mov	 eax, DWORD PTR _mca_effect_index$5[ebp]
  0025e	50		 push	 eax
  0025f	6a 19		 push	 25			; 00000019H
  00261	8b 4d fc	 mov	 ecx, DWORD PTR _new_entity$[ebp]
  00264	51		 push	 ecx
  00265	e8 00 00 00 00	 call	 ?create_helicopter_cockpit_sound_effect@@YGXPAUENTITY@@HH@Z ; create_helicopter_cockpit_sound_effect

; 608  : 		create_helicopter_cockpit_sound_effect (new_entity, ENTITY_SUB_TYPE_EFFECT_SOUND_LOCK_ON_TONE, lock_on_effect_index);

  0026a	8b 45 f0	 mov	 eax, DWORD PTR _lock_on_effect_index$4[ebp]
  0026d	50		 push	 eax
  0026e	6a 18		 push	 24			; 00000018H
  00270	8b 4d fc	 mov	 ecx, DWORD PTR _new_entity$[ebp]
  00273	51		 push	 ecx
  00274	e8 00 00 00 00	 call	 ?create_helicopter_cockpit_sound_effect@@YGXPAUENTITY@@HH@Z ; create_helicopter_cockpit_sound_effect

; 609  : 		create_helicopter_cockpit_sound_effect (new_entity, ENTITY_SUB_TYPE_EFFECT_SOUND_RADAR_TRACKED, tracked_effect_index);

  00279	8b 45 ec	 mov	 eax, DWORD PTR _tracked_effect_index$3[ebp]
  0027c	50		 push	 eax
  0027d	6a 1d		 push	 29			; 0000001dH
  0027f	8b 4d fc	 mov	 ecx, DWORD PTR _new_entity$[ebp]
  00282	51		 push	 ecx
  00283	e8 00 00 00 00	 call	 ?create_helicopter_cockpit_sound_effect@@YGXPAUENTITY@@HH@Z ; create_helicopter_cockpit_sound_effect

; 610  : 		create_helicopter_cockpit_sound_effect (new_entity, ENTITY_SUB_TYPE_EFFECT_SOUND_RADAR_LOCKED, locked_effect_index);

  00288	8b 45 e8	 mov	 eax, DWORD PTR _locked_effect_index$2[ebp]
  0028b	50		 push	 eax
  0028c	6a 1c		 push	 28			; 0000001cH
  0028e	8b 4d fc	 mov	 ecx, DWORD PTR _new_entity$[ebp]
  00291	51		 push	 ecx
  00292	e8 00 00 00 00	 call	 ?create_helicopter_cockpit_sound_effect@@YGXPAUENTITY@@HH@Z ; create_helicopter_cockpit_sound_effect

; 611  : 		create_helicopter_cockpit_sound_effect (new_entity, ENTITY_SUB_TYPE_EFFECT_SOUND_INCOMING_MISSILE_WARNING, incoming_effect_index);

  00297	8b 45 e4	 mov	 eax, DWORD PTR _incoming_effect_index$1[ebp]
  0029a	50		 push	 eax
  0029b	6a 17		 push	 23			; 00000017H
  0029d	8b 4d fc	 mov	 ecx, DWORD PTR _new_entity$[ebp]
  002a0	51		 push	 ecx
  002a1	e8 00 00 00 00	 call	 ?create_helicopter_cockpit_sound_effect@@YGXPAUENTITY@@HH@Z ; create_helicopter_cockpit_sound_effect

; 612  : 	}
; 613  : 
; 614  : 	//
; 615  : 	// initialise terrain elevation cache
; 616  : 	//
; 617  : 
; 618  : 	raw = (helicopter *) get_local_entity_data (new_entity);

  002a6	8b 45 fc	 mov	 eax, DWORD PTR _new_entity$[ebp]
  002a9	8b 48 04	 mov	 ecx, DWORD PTR [eax+4]
  002ac	89 4d f8	 mov	 DWORD PTR _raw$[ebp], ecx

; 619  : 
; 620  : 	get_3d_terrain_point_data (position->x, position->z, &raw->ac.terrain_info);

  002af	8b 45 f8	 mov	 eax, DWORD PTR _raw$[ebp]
  002b2	05 54 01 00 00	 add	 eax, 340		; 00000154H
  002b7	50		 push	 eax
  002b8	8b 4d 14	 mov	 ecx, DWORD PTR _position$[ebp]
  002bb	51		 push	 ecx
  002bc	f3 0f 10 41 08	 movss	 xmm0, DWORD PTR [ecx+8]
  002c1	f3 0f 11 04 24	 movss	 DWORD PTR [esp], xmm0
  002c6	8b 55 14	 mov	 edx, DWORD PTR _position$[ebp]
  002c9	51		 push	 ecx
  002ca	f3 0f 10 02	 movss	 xmm0, DWORD PTR [edx]
  002ce	f3 0f 11 04 24	 movss	 DWORD PTR [esp], xmm0
  002d3	e8 00 00 00 00	 call	 ?get_3d_terrain_point_data@@YGMMMPAUTERRAIN_3D_POINT_DATA@@@Z ; get_3d_terrain_point_data
  002d8	dd d8		 fstp	 ST(0)

; 621  : 
; 622  : 	return new_entity;

  002da	8b 45 fc	 mov	 eax, DWORD PTR _new_entity$[ebp]

; 623  : }

  002dd	5f		 pop	 edi
  002de	5e		 pop	 esi
  002df	5b		 pop	 ebx
  002e0	8b e5		 mov	 esp, ebp
  002e2	5d		 pop	 ebp
  002e3	c2 10 00	 ret	 16			; 00000010H
  002e6	66 90		 npad	 2
$LN17@create_cli:
  002e8	00 00 00 00	 DD	 $LN5@create_cli
  002ec	00 00 00 00	 DD	 $LN9@create_cli
  002f0	00 00 00 00	 DD	 $LN6@create_cli
  002f4	00 00 00 00	 DD	 $LN10@create_cli
  002f8	00 00 00 00	 DD	 $LN7@create_cli
  002fc	00 00 00 00	 DD	 $LN11@create_cli
  00300	00 00 00 00	 DD	 $LN13@create_cli
  00304	00 00 00 00	 DD	 $LN14@create_cli
  00308	00 00 00 00	 DD	 $LN8@create_cli
  0030c	00 00 00 00	 DD	 $LN12@create_cli
  00310	00 00 00 00	 DD	 $LN2@create_cli
$LN16@create_cli:
  00314	00		 DB	 0
  00315	01		 DB	 1
  00316	02		 DB	 2
  00317	03		 DB	 3
  00318	04		 DB	 4
  00319	05		 DB	 5
  0031a	06		 DB	 6
  0031b	07		 DB	 7
  0031c	06		 DB	 6
  0031d	07		 DB	 7
  0031e	06		 DB	 6
  0031f	07		 DB	 7
  00320	0a		 DB	 10			; 0000000aH
  00321	0a		 DB	 10			; 0000000aH
  00322	0a		 DB	 10			; 0000000aH
  00323	0a		 DB	 10			; 0000000aH
  00324	0a		 DB	 10			; 0000000aH
  00325	0a		 DB	 10			; 0000000aH
  00326	0a		 DB	 10			; 0000000aH
  00327	0a		 DB	 10			; 0000000aH
  00328	08		 DB	 8
  00329	09		 DB	 9
  0032a	06		 DB	 6
  0032b	06		 DB	 6
  0032c	06		 DB	 6
  0032d	06		 DB	 6
  0032e	06		 DB	 6
  0032f	0a		 DB	 10			; 0000000aH
  00330	0a		 DB	 10			; 0000000aH
  00331	0a		 DB	 10			; 0000000aH
  00332	0a		 DB	 10			; 0000000aH
  00333	06		 DB	 6
?create_client_server_entity_helicopter@@YGPAUENTITY@@HHPAU1@PAUVEC3D@@@Z ENDP ; create_client_server_entity_helicopter
_TEXT	ENDS
; Function compile flags: /Odtp /ZI
; File c:\users\nhv90\projects\eech\aphavoc\source\entity\mobile\aircraft\helicop\hc_creat.c
;	COMDAT ?overload_helicopter_create_functions@@YGXXZ
_TEXT	SEGMENT
?overload_helicopter_create_functions@@YGXXZ PROC	; overload_helicopter_create_functions, COMDAT

; 435  : {

  00000	55		 push	 ebp
  00001	8b ec		 mov	 ebp, esp
  00003	83 ec 40	 sub	 esp, 64			; 00000040H
  00006	53		 push	 ebx
  00007	56		 push	 esi
  00008	57		 push	 edi

; 436  : 	fn_create_local_entity[ENTITY_TYPE_HELICOPTER]		  								= create_local;

  00009	b8 04 00 00 00	 mov	 eax, 4
  0000e	6b c8 0e	 imul	 ecx, eax, 14
  00011	c7 81 00 00 00
	00 00 00 00 00	 mov	 DWORD PTR ?fn_create_local_entity@@3PAP6GPAUENTITY@@W4ENTITY_TYPES@@HPAD@ZA[ecx], OFFSET ?create_local@@YGPAUENTITY@@W4ENTITY_TYPES@@HPAD@Z ; create_local

; 437  : 
; 438  : 	fn_create_client_server_entity[ENTITY_TYPE_HELICOPTER][COMMS_MODEL_SERVER]	= create_server;

  0001b	b8 08 00 00 00	 mov	 eax, 8
  00020	6b c8 0e	 imul	 ecx, eax, 14
  00023	ba 04 00 00 00	 mov	 edx, 4
  00028	6b c2 00	 imul	 eax, edx, 0
  0002b	c7 84 01 00 00
	00 00 00 00 00
	00		 mov	 DWORD PTR ?fn_create_client_server_entity@@3PAY01P6GPAUENTITY@@W4ENTITY_TYPES@@HPAD@ZA[ecx+eax], OFFSET ?create_server@@YGPAUENTITY@@W4ENTITY_TYPES@@HPAD@Z ; create_server

; 439  : 
; 440  : 	fn_create_client_server_entity[ENTITY_TYPE_HELICOPTER][COMMS_MODEL_CLIENT]	= create_client;

  00036	b8 08 00 00 00	 mov	 eax, 8
  0003b	6b c8 0e	 imul	 ecx, eax, 14
  0003e	ba 04 00 00 00	 mov	 edx, 4
  00043	c1 e2 00	 shl	 edx, 0
  00046	c7 84 11 00 00
	00 00 00 00 00
	00		 mov	 DWORD PTR ?fn_create_client_server_entity@@3PAY01P6GPAUENTITY@@W4ENTITY_TYPES@@HPAD@ZA[ecx+edx], OFFSET ?create_client@@YGPAUENTITY@@W4ENTITY_TYPES@@HPAD@Z ; create_client

; 441  : }

  00051	5f		 pop	 edi
  00052	5e		 pop	 esi
  00053	5b		 pop	 ebx
  00054	8b e5		 mov	 esp, ebp
  00056	5d		 pop	 ebp
  00057	c3		 ret	 0
?overload_helicopter_create_functions@@YGXXZ ENDP	; overload_helicopter_create_functions
_TEXT	ENDS
END
