; Listing generated by Microsoft (R) Optimizing Compiler Version 19.16.27045.0 

	TITLE	C:\Users\nhv90\Projects\eech\aphavoc\source\entity\mobile\aircraft\helicop\hc_float.c
	.686P
	.XMM
	include listing.inc
	.model	flat

INCLUDELIB MSVCRTD
INCLUDELIB OLDNAMES

PUBLIC	?overload_helicopter_float_value_functions@@YGXXZ ; overload_helicopter_float_value_functions
PUBLIC	?__LINE__Var@?0??set_local_float_value@@YGXPAUENTITY@@W4FLOAT_TYPES@@M@Z@4JA ; `set_local_float_value'::`1'::__LINE__Var
PUBLIC	??_C@_0FG@HICIIDFE@c?3?2users?2nhv90?2projects?2eech?2ap@ ; `string'
PUBLIC	?__LINE__Var@?0??set_server_float_value@@YGXPAUENTITY@@W4FLOAT_TYPES@@M@Z@4JA ; `set_server_float_value'::`1'::__LINE__Var
PUBLIC	??_C@_0CB@CFOCLFOK@assert_client_server_local_fn?5?$CI@ ; `string'
PUBLIC	??_C@_0CC@BNNNEGEG@assert_client_server_remote_fn?5@ ; `string'
PUBLIC	?__LINE__Var@?0??set_client_float_value@@YGXPAUENTITY@@W4FLOAT_TYPES@@M@Z@4JA ; `set_client_float_value'::`1'::__LINE__Var
PUBLIC	?__LINE__Var@?0??get_local_float_value@@YGMPAUENTITY@@W4FLOAT_TYPES@@@Z@4JA ; `get_local_float_value'::`1'::__LINE__Var
PUBLIC	??_C@_0M@BKFBENDK@value?5?$DO?50?40@		; `string'
PUBLIC	__real@0000000000000000
PUBLIC	__real@3f800000
PUBLIC	__real@3fd6666666666666
PUBLIC	__real@3fe0000000000000
EXTRN	?process_assert@@YGXPBD0H@Z:PROC		; process_assert
EXTRN	?debug_fatal@@YAXPBDZZ:PROC			; debug_fatal
EXTRN	?transmit_entity_comms_message@@YAXW4ENTITY_COMMS_MESSAGES@@PAUENTITY@@ZZ:PROC ; transmit_entity_comms_message
EXTRN	?assert_client_server_local_fn@@YGHXZ:PROC	; assert_client_server_local_fn
EXTRN	?assert_client_server_remote_fn@@YGHXZ:PROC	; assert_client_server_remote_fn
EXTRN	?get_local_entity_undercarriage_state@@YGHPAUENTITY@@@Z:PROC ; get_local_entity_undercarriage_state
EXTRN	?get_local_entity_weapon_system_ready_state@@YGHPAUENTITY@@@Z:PROC ; get_local_entity_weapon_system_ready_state
EXTRN	?get_comanche_stub_wings_attached@@YGHPAUENTITY@@@Z:PROC ; get_comanche_stub_wings_attached
EXTRN	?null_entity_pointer_message@@3PBDB:DWORD	; null_entity_pointer_message
EXTRN	?entity_type_database@@3PAUENTITY_TYPE_DATA@@A:BYTE ; entity_type_database
EXTRN	?system_comms_data_flow@@3W4COMMS_DATA_FLOW_TYPES@@A:DWORD ; system_comms_data_flow
EXTRN	?float_type_database@@3PAUFLOAT_TYPE_DATA@@A:BYTE ; float_type_database
EXTRN	?debug_fatal_invalid_float_type_message@@3PBDB:DWORD ; debug_fatal_invalid_float_type_message
EXTRN	?fn_set_local_entity_raw_float_value@@3PAY0KP@P6GXPAUENTITY@@W4FLOAT_TYPES@@M@ZA:BYTE ; fn_set_local_entity_raw_float_value
EXTRN	?fn_set_local_entity_float_value@@3PAY0KP@P6GXPAUENTITY@@W4FLOAT_TYPES@@M@ZA:BYTE ; fn_set_local_entity_float_value
EXTRN	?fn_set_client_server_entity_float_value@@3PAY1KP@1P6GXPAUENTITY@@W4FLOAT_TYPES@@M@ZA:BYTE ; fn_set_client_server_entity_float_value
EXTRN	?fn_get_local_entity_float_value@@3PAY0KP@P6GMPAUENTITY@@W4FLOAT_TYPES@@@ZA:BYTE ; fn_get_local_entity_float_value
EXTRN	?entities@@3PAUENTITY@@A:DWORD			; entities
EXTRN	__fltused:DWORD
;	COMDAT __real@3fe0000000000000
CONST	SEGMENT
__real@3fe0000000000000 DQ 03fe0000000000000r	; 0.5
CONST	ENDS
;	COMDAT __real@3fd6666666666666
CONST	SEGMENT
__real@3fd6666666666666 DQ 03fd6666666666666r	; 0.35
CONST	ENDS
;	COMDAT __real@3f800000
CONST	SEGMENT
__real@3f800000 DD 03f800000r			; 1
CONST	ENDS
;	COMDAT __real@0000000000000000
CONST	SEGMENT
__real@0000000000000000 DQ 00000000000000000r	; 0
CONST	ENDS
;	COMDAT ??_C@_0M@BKFBENDK@value?5?$DO?50?40@
CONST	SEGMENT
??_C@_0M@BKFBENDK@value?5?$DO?50?40@ DB 'value > 0.0', 00H ; `string'
CONST	ENDS
;	COMDAT ?__LINE__Var@?0??get_local_float_value@@YGMPAUENTITY@@W4FLOAT_TYPES@@@Z@4JA
_DATA	SEGMENT
?__LINE__Var@?0??get_local_float_value@@YGMPAUENTITY@@W4FLOAT_TYPES@@@Z@4JA DD 0f4H ; `get_local_float_value'::`1'::__LINE__Var
_DATA	ENDS
;	COMDAT ?__LINE__Var@?0??set_client_float_value@@YGXPAUENTITY@@W4FLOAT_TYPES@@M@Z@4JA
_DATA	SEGMENT
?__LINE__Var@?0??set_client_float_value@@YGXPAUENTITY@@W4FLOAT_TYPES@@M@Z@4JA DD 0e0H ; `set_client_float_value'::`1'::__LINE__Var
_DATA	ENDS
;	COMDAT ??_C@_0CC@BNNNEGEG@assert_client_server_remote_fn?5@
CONST	SEGMENT
??_C@_0CC@BNNNEGEG@assert_client_server_remote_fn?5@ DB 'assert_client_se'
	DB	'rver_remote_fn ()', 00H			; `string'
CONST	ENDS
;	COMDAT ??_C@_0CB@CFOCLFOK@assert_client_server_local_fn?5?$CI@
CONST	SEGMENT
??_C@_0CB@CFOCLFOK@assert_client_server_local_fn?5?$CI@ DB 'assert_client'
	DB	'_server_local_fn ()', 00H			; `string'
CONST	ENDS
;	COMDAT ?__LINE__Var@?0??set_server_float_value@@YGXPAUENTITY@@W4FLOAT_TYPES@@M@Z@4JA
_DATA	SEGMENT
?__LINE__Var@?0??set_server_float_value@@YGXPAUENTITY@@W4FLOAT_TYPES@@M@Z@4JA DD 0d1H ; `set_server_float_value'::`1'::__LINE__Var
_DATA	ENDS
;	COMDAT ??_C@_0FG@HICIIDFE@c?3?2users?2nhv90?2projects?2eech?2ap@
CONST	SEGMENT
??_C@_0FG@HICIIDFE@c?3?2users?2nhv90?2projects?2eech?2ap@ DB 'c:\users\nh'
	DB	'v90\projects\eech\aphavoc\source\entity\mobile\aircraft\helic'
	DB	'op\hc_float.c', 00H				; `string'
CONST	ENDS
;	COMDAT ?__LINE__Var@?0??set_local_float_value@@YGXPAUENTITY@@W4FLOAT_TYPES@@M@Z@4JA
_DATA	SEGMENT
?__LINE__Var@?0??set_local_float_value@@YGXPAUENTITY@@W4FLOAT_TYPES@@M@Z@4JA DD 050H ; `set_local_float_value'::`1'::__LINE__Var
_DATA	ENDS
; Function compile flags: /Odtp /ZI
; File c:\users\nhv90\projects\eech\aphavoc\source\entity\mobile\aircraft\helicop\hc_float.c
;	COMDAT ?get_local_float_value@@YGMPAUENTITY@@W4FLOAT_TYPES@@@Z
_TEXT	SEGMENT
tv149 = -76						; size = 4
tv65 = -76						; size = 4
_value$ = -8						; size = 4
_raw$ = -4						; size = 4
_en$ = 8						; size = 4
_type$ = 12						; size = 4
?get_local_float_value@@YGMPAUENTITY@@W4FLOAT_TYPES@@@Z PROC ; get_local_float_value, COMDAT

; 244  : {

  00000	55		 push	 ebp
  00001	8b ec		 mov	 ebp, esp
  00003	83 ec 4c	 sub	 esp, 76			; 0000004cH
  00006	53		 push	 ebx
  00007	56		 push	 esi
  00008	57		 push	 edi

; 245  : 	helicopter
; 246  : 		*raw;
; 247  : 
; 248  : 	float
; 249  : 		value;
; 250  : 
; 251  : 	raw = (helicopter *) get_local_entity_data (en);

  00009	8b 45 08	 mov	 eax, DWORD PTR _en$[ebp]
  0000c	8b 48 04	 mov	 ecx, DWORD PTR [eax+4]
  0000f	89 4d fc	 mov	 DWORD PTR _raw$[ebp], ecx

; 252  : 
; 253  : 	switch (type)

  00012	8b 45 0c	 mov	 eax, DWORD PTR _type$[ebp]
  00015	89 45 b4	 mov	 DWORD PTR tv65[ebp], eax
  00018	8b 4d b4	 mov	 ecx, DWORD PTR tv65[ebp]
  0001b	83 e9 30	 sub	 ecx, 48			; 00000030H
  0001e	89 4d b4	 mov	 DWORD PTR tv65[ebp], ecx
  00021	83 7d b4 51	 cmp	 DWORD PTR tv65[ebp], 81	; 00000051H
  00025	0f 87 74 01 00
	00		 ja	 $LN20@get_local_
  0002b	8b 55 b4	 mov	 edx, DWORD PTR tv65[ebp]
  0002e	0f b6 82 00 00
	00 00		 movzx	 eax, BYTE PTR $LN24@get_local_[edx]
  00035	ff 24 85 00 00
	00 00		 jmp	 DWORD PTR $LN25@get_local_[eax*4]
$LN4@get_local_:

; 254  : 	{
; 255  : 		////////////////////////////////////////
; 256  : 		case FLOAT_TYPE_FUEL_SUPPLY_LEVEL:
; 257  : 		////////////////////////////////////////
; 258  : 		{
; 259  : 			value = raw->fuel_supply_level;

  0003c	8b 45 fc	 mov	 eax, DWORD PTR _raw$[ebp]
  0003f	f3 0f 10 80 84
	01 00 00	 movss	 xmm0, DWORD PTR [eax+388]
  00047	f3 0f 11 45 f8	 movss	 DWORD PTR _value$[ebp], xmm0

; 260  : 
; 261  : 			break;

  0004c	e9 c0 01 00 00	 jmp	 $LN2@get_local_
$LN5@get_local_:

; 262  : 		}
; 263  : 		////////////////////////////////////////
; 264  : 		case FLOAT_TYPE_INVULNERABLE_TIMER:
; 265  : 		////////////////////////////////////////
; 266  : 		{
; 267  : 			value = raw->invulnerable_timer;

  00051	8b 45 fc	 mov	 eax, DWORD PTR _raw$[ebp]
  00054	f3 0f 10 80 88
	01 00 00	 movss	 xmm0, DWORD PTR [eax+392]
  0005c	f3 0f 11 45 f8	 movss	 DWORD PTR _value$[ebp], xmm0

; 268  : 
; 269  : 			break;

  00061	e9 ab 01 00 00	 jmp	 $LN2@get_local_
$LN6@get_local_:

; 270  : 		}
; 271  : 		////////////////////////////////////////
; 272  : 		case FLOAT_TYPE_MAIN_ROTOR_BLADE_CONING_ANGLE:
; 273  : 		////////////////////////////////////////
; 274  : 		{
; 275  : 			value = raw->main_rotor_blade_coning_angle;

  00066	8b 45 fc	 mov	 eax, DWORD PTR _raw$[ebp]
  00069	f3 0f 10 80 98
	01 00 00	 movss	 xmm0, DWORD PTR [eax+408]
  00071	f3 0f 11 45 f8	 movss	 DWORD PTR _value$[ebp], xmm0

; 276  : 
; 277  : 			break;

  00076	e9 96 01 00 00	 jmp	 $LN2@get_local_
$LN7@get_local_:

; 278  : 		}
; 279  : 		////////////////////////////////////////
; 280  : 		case FLOAT_TYPE_MAIN_ROTOR_PITCH:
; 281  : 		////////////////////////////////////////
; 282  : 		{
; 283  : 			value = raw->main_rotor_pitch;

  0007b	8b 45 fc	 mov	 eax, DWORD PTR _raw$[ebp]
  0007e	f3 0f 10 80 90
	01 00 00	 movss	 xmm0, DWORD PTR [eax+400]
  00086	f3 0f 11 45 f8	 movss	 DWORD PTR _value$[ebp], xmm0

; 284  : 
; 285  : 			break;

  0008b	e9 81 01 00 00	 jmp	 $LN2@get_local_
$LN8@get_local_:

; 286  : 		}
; 287  : 		////////////////////////////////////////
; 288  : 		case FLOAT_TYPE_MAIN_ROTOR_ROLL:
; 289  : 		////////////////////////////////////////
; 290  : 		{
; 291  : 			value = raw->main_rotor_roll;

  00090	8b 45 fc	 mov	 eax, DWORD PTR _raw$[ebp]
  00093	f3 0f 10 80 94
	01 00 00	 movss	 xmm0, DWORD PTR [eax+404]
  0009b	f3 0f 11 45 f8	 movss	 DWORD PTR _value$[ebp], xmm0

; 292  : 
; 293  : 			break;

  000a0	e9 6c 01 00 00	 jmp	 $LN2@get_local_
$LN9@get_local_:

; 294  : 		}
; 295  : 		////////////////////////////////////////
; 296  : 		case FLOAT_TYPE_MAIN_ROTOR_RPM:
; 297  : 		////////////////////////////////////////
; 298  : 		{
; 299  : 			value = raw->main_rotor_rpm;

  000a5	8b 45 fc	 mov	 eax, DWORD PTR _raw$[ebp]
  000a8	f3 0f 10 80 8c
	01 00 00	 movss	 xmm0, DWORD PTR [eax+396]
  000b0	f3 0f 11 45 f8	 movss	 DWORD PTR _value$[ebp], xmm0

; 300  : 
; 301  : 			break;

  000b5	e9 57 01 00 00	 jmp	 $LN2@get_local_
$LN10@get_local_:

; 302  : 		}
; 303  : 		////////////////////////////////////////
; 304  : 		case FLOAT_TYPE_MAIN_ROTOR_SPIN_UP_TIMER:
; 305  : 		////////////////////////////////////////
; 306  : 		{
; 307  : 			value = raw->main_rotor_spin_up_timer;

  000ba	8b 45 fc	 mov	 eax, DWORD PTR _raw$[ebp]
  000bd	f3 0f 10 80 9c
	01 00 00	 movss	 xmm0, DWORD PTR [eax+412]
  000c5	f3 0f 11 45 f8	 movss	 DWORD PTR _value$[ebp], xmm0

; 308  : 
; 309  : 			break;

  000ca	e9 42 01 00 00	 jmp	 $LN2@get_local_
$LN11@get_local_:

; 310  : 		}
; 311  : 		////////////////////////////////////////
; 312  : 		case FLOAT_TYPE_RADAR_STEALTH_FACTOR:
; 313  : 		////////////////////////////////////////
; 314  : 		{
; 315  : 			value = NO_RADAR_STEALTH_FACTOR;

  000cf	f3 0f 10 05 00
	00 00 00	 movss	 xmm0, DWORD PTR __real@3f800000
  000d7	f3 0f 11 45 f8	 movss	 DWORD PTR _value$[ebp], xmm0

; 316  : 
; 317  : 			if (raw->ac.mob.sub_type == ENTITY_SUB_TYPE_AIRCRAFT_RAH66_COMANCHE)

  000dc	8b 45 fc	 mov	 eax, DWORD PTR _raw$[ebp]
  000df	83 38 02	 cmp	 DWORD PTR [eax], 2
  000e2	75 53		 jne	 SHORT $LN15@get_local_

; 318  : 			{
; 319  : 				if (!get_comanche_stub_wings_attached (en))

  000e4	8b 45 08	 mov	 eax, DWORD PTR _en$[ebp]
  000e7	50		 push	 eax
  000e8	e8 00 00 00 00	 call	 ?get_comanche_stub_wings_attached@@YGHPAUENTITY@@@Z ; get_comanche_stub_wings_attached
  000ed	85 c0		 test	 eax, eax
  000ef	75 46		 jne	 SHORT $LN15@get_local_

; 320  : 				{
; 321  : 					if (get_local_entity_weapon_system_ready_state (en) == WEAPON_SYSTEM_READY_CLOSED)

  000f1	8b 45 08	 mov	 eax, DWORD PTR _en$[ebp]
  000f4	50		 push	 eax
  000f5	e8 00 00 00 00	 call	 ?get_local_entity_weapon_system_ready_state@@YGHPAUENTITY@@@Z ; get_local_entity_weapon_system_ready_state
  000fa	85 c0		 test	 eax, eax
  000fc	75 16		 jne	 SHORT $LN14@get_local_

; 322  : 					{
; 323  : 						value -= NO_RADAR_STEALTH_FACTOR * 0.5;

  000fe	f3 0f 5a 45 f8	 cvtss2sd xmm0, DWORD PTR _value$[ebp]
  00103	f2 0f 5c 05 00
	00 00 00	 subsd	 xmm0, QWORD PTR __real@3fe0000000000000
  0010b	f2 0f 5a c0	 cvtsd2ss xmm0, xmm0
  0010f	f3 0f 11 45 f8	 movss	 DWORD PTR _value$[ebp], xmm0
$LN14@get_local_:

; 324  : 					}
; 325  : 
; 326  : 					if (get_local_entity_undercarriage_state (en) == AIRCRAFT_UNDERCARRIAGE_UP)

  00114	8b 45 08	 mov	 eax, DWORD PTR _en$[ebp]
  00117	50		 push	 eax
  00118	e8 00 00 00 00	 call	 ?get_local_entity_undercarriage_state@@YGHPAUENTITY@@@Z ; get_local_entity_undercarriage_state
  0011d	85 c0		 test	 eax, eax
  0011f	75 16		 jne	 SHORT $LN15@get_local_

; 327  : 					{
; 328  : 						value -= NO_RADAR_STEALTH_FACTOR * 0.35;

  00121	f3 0f 5a 45 f8	 cvtss2sd xmm0, DWORD PTR _value$[ebp]
  00126	f2 0f 5c 05 00
	00 00 00	 subsd	 xmm0, QWORD PTR __real@3fd6666666666666
  0012e	f2 0f 5a c0	 cvtsd2ss xmm0, xmm0
  00132	f3 0f 11 45 f8	 movss	 DWORD PTR _value$[ebp], xmm0
$LN15@get_local_:

; 329  : 					}
; 330  : 				}
; 331  : 			}
; 332  : 
; 333  : 			ASSERT (value > 0.0);

  00137	f3 0f 5a 45 f8	 cvtss2sd xmm0, DWORD PTR _value$[ebp]
  0013c	66 0f 2f 05 00
	00 00 00	 comisd	 xmm0, QWORD PTR __real@0000000000000000
  00144	77 18		 ja	 SHORT $LN16@get_local_
  00146	a1 00 00 00 00	 mov	 eax, DWORD PTR ?__LINE__Var@?0??get_local_float_value@@YGMPAUENTITY@@W4FLOAT_TYPES@@@Z@4JA
  0014b	83 c0 59	 add	 eax, 89			; 00000059H
  0014e	50		 push	 eax
  0014f	68 00 00 00 00	 push	 OFFSET ??_C@_0FG@HICIIDFE@c?3?2users?2nhv90?2projects?2eech?2ap@
  00154	68 00 00 00 00	 push	 OFFSET ??_C@_0M@BKFBENDK@value?5?$DO?50?40@
  00159	e8 00 00 00 00	 call	 ?process_assert@@YGXPBD0H@Z ; process_assert
$LN16@get_local_:

; 334  : 
; 335  : 			break;

  0015e	e9 ae 00 00 00	 jmp	 $LN2@get_local_
$LN17@get_local_:

; 336  : 		}
; 337  : 		////////////////////////////////////////
; 338  : 		case FLOAT_TYPE_TAIL_ROTOR_RPM:
; 339  : 		////////////////////////////////////////
; 340  : 		{
; 341  : 			value = raw->tail_rotor_rpm;

  00163	8b 45 fc	 mov	 eax, DWORD PTR _raw$[ebp]
  00166	f3 0f 10 80 a8
	01 00 00	 movss	 xmm0, DWORD PTR [eax+424]
  0016e	f3 0f 11 45 f8	 movss	 DWORD PTR _value$[ebp], xmm0

; 342  : 
; 343  : 			break;

  00173	e9 99 00 00 00	 jmp	 $LN2@get_local_
$LN18@get_local_:

; 344  : 		}
; 345  : 		////////////////////////////////////////
; 346  : 		
; 347  : 		// Jabberwock 050310 MP Cannon bug
; 348  : 		case FLOAT_TYPE_PLAYER_WEAPON_HEADING:
; 349  : 		////////////////////////////////////////
; 350  : 		{
; 351  : 			value = raw->player_weapon_heading;

  00178	8b 45 fc	 mov	 eax, DWORD PTR _raw$[ebp]
  0017b	f3 0f 10 80 a0
	01 00 00	 movss	 xmm0, DWORD PTR [eax+416]
  00183	f3 0f 11 45 f8	 movss	 DWORD PTR _value$[ebp], xmm0

; 352  : 
; 353  : 			break;

  00188	e9 84 00 00 00	 jmp	 $LN2@get_local_
$LN19@get_local_:

; 354  : 		}
; 355  : 		////////////////////////////////////////
; 356  : 		case FLOAT_TYPE_PLAYER_WEAPON_PITCH:
; 357  : 		////////////////////////////////////////
; 358  : 		{
; 359  : 			value = raw->player_weapon_pitch;

  0018d	8b 45 fc	 mov	 eax, DWORD PTR _raw$[ebp]
  00190	f3 0f 10 80 a4
	01 00 00	 movss	 xmm0, DWORD PTR [eax+420]
  00198	f3 0f 11 45 f8	 movss	 DWORD PTR _value$[ebp], xmm0

; 360  : 
; 361  : 			break;

  0019d	eb 72		 jmp	 SHORT $LN2@get_local_
$LN20@get_local_:

; 362  : 		}
; 363  : 		// Jabberwock 050310 ends
; 364  : 		////////////////////////////////////////
; 365  : 		default:
; 366  : 		////////////////////////////////////////
; 367  : 		{
; 368  : 			debug_fatal_invalid_float_type (en, type);

  0019f	83 7d 08 00	 cmp	 DWORD PTR _en$[ebp], 0
  001a3	74 0a		 je	 SHORT $LN22@get_local_
  001a5	8b 45 08	 mov	 eax, DWORD PTR _en$[ebp]
  001a8	8b 08		 mov	 ecx, DWORD PTR [eax]
  001aa	89 4d b4	 mov	 DWORD PTR tv149[ebp], ecx
  001ad	eb 21		 jmp	 SHORT $LN23@get_local_
$LN22@get_local_:
  001af	8b 15 00 00 00
	00		 mov	 edx, DWORD PTR ?__LINE__Var@?0??get_local_float_value@@YGMPAUENTITY@@W4FLOAT_TYPES@@@Z@4JA
  001b5	83 c2 7c	 add	 edx, 124		; 0000007cH
  001b8	52		 push	 edx
  001b9	68 00 00 00 00	 push	 OFFSET ??_C@_0FG@HICIIDFE@c?3?2users?2nhv90?2projects?2eech?2ap@
  001be	a1 00 00 00 00	 mov	 eax, DWORD PTR ?null_entity_pointer_message@@3PBDB ; null_entity_pointer_message
  001c3	50		 push	 eax
  001c4	e8 00 00 00 00	 call	 ?process_assert@@YGXPBD0H@Z ; process_assert
  001c9	c7 45 b4 00 00
	00 00		 mov	 DWORD PTR tv149[ebp], 0
$LN23@get_local_:
  001d0	8b 0d 00 00 00
	00		 mov	 ecx, DWORD PTR ?__LINE__Var@?0??get_local_float_value@@YGMPAUENTITY@@W4FLOAT_TYPES@@@Z@4JA
  001d6	83 c1 7c	 add	 ecx, 124		; 0000007cH
  001d9	51		 push	 ecx
  001da	68 00 00 00 00	 push	 OFFSET ??_C@_0FG@HICIIDFE@c?3?2users?2nhv90?2projects?2eech?2ap@
  001df	6b 55 0c 18	 imul	 edx, DWORD PTR _type$[ebp], 24
  001e3	8b 82 00 00 00
	00		 mov	 eax, DWORD PTR ?float_type_database@@3PAUFLOAT_TYPE_DATA@@A[edx]
  001e9	50		 push	 eax
  001ea	8b 4d 08	 mov	 ecx, DWORD PTR _en$[ebp]
  001ed	2b 0d 00 00 00
	00		 sub	 ecx, DWORD PTR ?entities@@3PAUENTITY@@A ; entities
  001f3	c1 f9 04	 sar	 ecx, 4
  001f6	51		 push	 ecx
  001f7	6b 55 b4 0c	 imul	 edx, DWORD PTR tv149[ebp], 12
  001fb	8b 82 00 00 00
	00		 mov	 eax, DWORD PTR ?entity_type_database@@3PAUENTITY_TYPE_DATA@@A[edx]
  00201	50		 push	 eax
  00202	8b 0d 00 00 00
	00		 mov	 ecx, DWORD PTR ?debug_fatal_invalid_float_type_message@@3PBDB ; debug_fatal_invalid_float_type_message
  00208	51		 push	 ecx
  00209	e8 00 00 00 00	 call	 ?debug_fatal@@YAXPBDZZ	; debug_fatal
  0020e	83 c4 18	 add	 esp, 24			; 00000018H
$LN2@get_local_:

; 369  : 
; 370  : 			break;
; 371  : 		}
; 372  : 	}
; 373  : 
; 374  : 	return (value);

  00211	d9 45 f8	 fld	 DWORD PTR _value$[ebp]

; 375  : }

  00214	5f		 pop	 edi
  00215	5e		 pop	 esi
  00216	5b		 pop	 ebx
  00217	8b e5		 mov	 esp, ebp
  00219	5d		 pop	 ebp
  0021a	c2 08 00	 ret	 8
  0021d	0f 1f 00	 npad	 3
$LN25@get_local_:
  00220	00 00 00 00	 DD	 $LN4@get_local_
  00224	00 00 00 00	 DD	 $LN5@get_local_
  00228	00 00 00 00	 DD	 $LN6@get_local_
  0022c	00 00 00 00	 DD	 $LN7@get_local_
  00230	00 00 00 00	 DD	 $LN8@get_local_
  00234	00 00 00 00	 DD	 $LN9@get_local_
  00238	00 00 00 00	 DD	 $LN10@get_local_
  0023c	00 00 00 00	 DD	 $LN18@get_local_
  00240	00 00 00 00	 DD	 $LN19@get_local_
  00244	00 00 00 00	 DD	 $LN11@get_local_
  00248	00 00 00 00	 DD	 $LN17@get_local_
  0024c	00 00 00 00	 DD	 $LN20@get_local_
$LN24@get_local_:
  00250	00		 DB	 0
  00251	0b		 DB	 11			; 0000000bH
  00252	0b		 DB	 11			; 0000000bH
  00253	0b		 DB	 11			; 0000000bH
  00254	0b		 DB	 11			; 0000000bH
  00255	0b		 DB	 11			; 0000000bH
  00256	0b		 DB	 11			; 0000000bH
  00257	01		 DB	 1
  00258	0b		 DB	 11			; 0000000bH
  00259	0b		 DB	 11			; 0000000bH
  0025a	0b		 DB	 11			; 0000000bH
  0025b	0b		 DB	 11			; 0000000bH
  0025c	0b		 DB	 11			; 0000000bH
  0025d	0b		 DB	 11			; 0000000bH
  0025e	0b		 DB	 11			; 0000000bH
  0025f	0b		 DB	 11			; 0000000bH
  00260	0b		 DB	 11			; 0000000bH
  00261	0b		 DB	 11			; 0000000bH
  00262	02		 DB	 2
  00263	0b		 DB	 11			; 0000000bH
  00264	0b		 DB	 11			; 0000000bH
  00265	03		 DB	 3
  00266	0b		 DB	 11			; 0000000bH
  00267	04		 DB	 4
  00268	05		 DB	 5
  00269	0b		 DB	 11			; 0000000bH
  0026a	06		 DB	 6
  0026b	0b		 DB	 11			; 0000000bH
  0026c	0b		 DB	 11			; 0000000bH
  0026d	0b		 DB	 11			; 0000000bH
  0026e	0b		 DB	 11			; 0000000bH
  0026f	0b		 DB	 11			; 0000000bH
  00270	0b		 DB	 11			; 0000000bH
  00271	0b		 DB	 11			; 0000000bH
  00272	0b		 DB	 11			; 0000000bH
  00273	0b		 DB	 11			; 0000000bH
  00274	0b		 DB	 11			; 0000000bH
  00275	07		 DB	 7
  00276	08		 DB	 8
  00277	0b		 DB	 11			; 0000000bH
  00278	0b		 DB	 11			; 0000000bH
  00279	0b		 DB	 11			; 0000000bH
  0027a	0b		 DB	 11			; 0000000bH
  0027b	0b		 DB	 11			; 0000000bH
  0027c	0b		 DB	 11			; 0000000bH
  0027d	0b		 DB	 11			; 0000000bH
  0027e	0b		 DB	 11			; 0000000bH
  0027f	0b		 DB	 11			; 0000000bH
  00280	0b		 DB	 11			; 0000000bH
  00281	0b		 DB	 11			; 0000000bH
  00282	0b		 DB	 11			; 0000000bH
  00283	0b		 DB	 11			; 0000000bH
  00284	0b		 DB	 11			; 0000000bH
  00285	0b		 DB	 11			; 0000000bH
  00286	0b		 DB	 11			; 0000000bH
  00287	0b		 DB	 11			; 0000000bH
  00288	0b		 DB	 11			; 0000000bH
  00289	0b		 DB	 11			; 0000000bH
  0028a	09		 DB	 9
  0028b	0b		 DB	 11			; 0000000bH
  0028c	0b		 DB	 11			; 0000000bH
  0028d	0b		 DB	 11			; 0000000bH
  0028e	0b		 DB	 11			; 0000000bH
  0028f	0b		 DB	 11			; 0000000bH
  00290	0b		 DB	 11			; 0000000bH
  00291	0b		 DB	 11			; 0000000bH
  00292	0b		 DB	 11			; 0000000bH
  00293	0b		 DB	 11			; 0000000bH
  00294	0b		 DB	 11			; 0000000bH
  00295	0b		 DB	 11			; 0000000bH
  00296	0b		 DB	 11			; 0000000bH
  00297	0b		 DB	 11			; 0000000bH
  00298	0b		 DB	 11			; 0000000bH
  00299	0b		 DB	 11			; 0000000bH
  0029a	0b		 DB	 11			; 0000000bH
  0029b	0b		 DB	 11			; 0000000bH
  0029c	0b		 DB	 11			; 0000000bH
  0029d	0b		 DB	 11			; 0000000bH
  0029e	0b		 DB	 11			; 0000000bH
  0029f	0b		 DB	 11			; 0000000bH
  002a0	0b		 DB	 11			; 0000000bH
  002a1	0a		 DB	 10			; 0000000aH
?get_local_float_value@@YGMPAUENTITY@@W4FLOAT_TYPES@@@Z ENDP ; get_local_float_value
_TEXT	ENDS
; Function compile flags: /Odtp /ZI
; File c:\users\nhv90\projects\eech\aphavoc\source\entity\mobile\aircraft\helicop\hc_float.c
;	COMDAT ?set_client_float_value@@YGXPAUENTITY@@W4FLOAT_TYPES@@M@Z
_TEXT	SEGMENT
_en$ = 8						; size = 4
_type$ = 12						; size = 4
_value$ = 16						; size = 4
?set_client_float_value@@YGXPAUENTITY@@W4FLOAT_TYPES@@M@Z PROC ; set_client_float_value, COMDAT

; 224  : {

  00000	55		 push	 ebp
  00001	8b ec		 mov	 ebp, esp
  00003	83 ec 40	 sub	 esp, 64			; 00000040H
  00006	53		 push	 ebx
  00007	56		 push	 esi
  00008	57		 push	 edi

; 225  : 	if (get_comms_data_flow () == COMMS_DATA_FLOW_TX)

  00009	83 3d 00 00 00
	00 00		 cmp	 DWORD PTR ?system_comms_data_flow@@3W4COMMS_DATA_FLOW_TYPES@@A, 0 ; system_comms_data_flow
  00010	75 3b		 jne	 SHORT $LN2@set_client

; 226  : 	{
; 227  : 		validate_client_server_remote_fn ();

  00012	e8 00 00 00 00	 call	 ?assert_client_server_remote_fn@@YGHXZ ; assert_client_server_remote_fn
  00017	85 c0		 test	 eax, eax
  00019	75 18		 jne	 SHORT $LN4@set_client
  0001b	a1 00 00 00 00	 mov	 eax, DWORD PTR ?__LINE__Var@?0??set_client_float_value@@YGXPAUENTITY@@W4FLOAT_TYPES@@M@Z@4JA
  00020	83 c0 03	 add	 eax, 3
  00023	50		 push	 eax
  00024	68 00 00 00 00	 push	 OFFSET ??_C@_0FG@HICIIDFE@c?3?2users?2nhv90?2projects?2eech?2ap@
  00029	68 00 00 00 00	 push	 OFFSET ??_C@_0CC@BNNNEGEG@assert_client_server_remote_fn?5@
  0002e	e8 00 00 00 00	 call	 ?process_assert@@YGXPBD0H@Z ; process_assert
$LN4@set_client:

; 228  : 
; 229  : 		set_remote_float_value (en, type, value);

  00033	51		 push	 ecx
  00034	f3 0f 10 45 10	 movss	 xmm0, DWORD PTR _value$[ebp]
  00039	f3 0f 11 04 24	 movss	 DWORD PTR [esp], xmm0
  0003e	8b 45 0c	 mov	 eax, DWORD PTR _type$[ebp]
  00041	50		 push	 eax
  00042	8b 4d 08	 mov	 ecx, DWORD PTR _en$[ebp]
  00045	51		 push	 ecx
  00046	e8 00 00 00 00	 call	 ?set_remote_float_value@@YGXPAUENTITY@@W4FLOAT_TYPES@@M@Z ; set_remote_float_value

; 230  : 	}
; 231  : 	else

  0004b	eb 39		 jmp	 SHORT $LN3@set_client
$LN2@set_client:

; 232  : 	{
; 233  : 		validate_client_server_local_fn ();

  0004d	e8 00 00 00 00	 call	 ?assert_client_server_local_fn@@YGHXZ ; assert_client_server_local_fn
  00052	85 c0		 test	 eax, eax
  00054	75 18		 jne	 SHORT $LN5@set_client
  00056	a1 00 00 00 00	 mov	 eax, DWORD PTR ?__LINE__Var@?0??set_client_float_value@@YGXPAUENTITY@@W4FLOAT_TYPES@@M@Z@4JA
  0005b	83 c0 09	 add	 eax, 9
  0005e	50		 push	 eax
  0005f	68 00 00 00 00	 push	 OFFSET ??_C@_0FG@HICIIDFE@c?3?2users?2nhv90?2projects?2eech?2ap@
  00064	68 00 00 00 00	 push	 OFFSET ??_C@_0CB@CFOCLFOK@assert_client_server_local_fn?5?$CI@
  00069	e8 00 00 00 00	 call	 ?process_assert@@YGXPBD0H@Z ; process_assert
$LN5@set_client:

; 234  : 
; 235  : 		set_local_float_value (en, type, value);

  0006e	51		 push	 ecx
  0006f	f3 0f 10 45 10	 movss	 xmm0, DWORD PTR _value$[ebp]
  00074	f3 0f 11 04 24	 movss	 DWORD PTR [esp], xmm0
  00079	8b 45 0c	 mov	 eax, DWORD PTR _type$[ebp]
  0007c	50		 push	 eax
  0007d	8b 4d 08	 mov	 ecx, DWORD PTR _en$[ebp]
  00080	51		 push	 ecx
  00081	e8 00 00 00 00	 call	 ?set_local_float_value@@YGXPAUENTITY@@W4FLOAT_TYPES@@M@Z ; set_local_float_value
$LN3@set_client:

; 236  : 	}
; 237  : }

  00086	5f		 pop	 edi
  00087	5e		 pop	 esi
  00088	5b		 pop	 ebx
  00089	8b e5		 mov	 esp, ebp
  0008b	5d		 pop	 ebp
  0008c	c2 0c 00	 ret	 12			; 0000000cH
?set_client_float_value@@YGXPAUENTITY@@W4FLOAT_TYPES@@M@Z ENDP ; set_client_float_value
_TEXT	ENDS
; Function compile flags: /Odtp /ZI
; File c:\users\nhv90\projects\eech\aphavoc\source\entity\mobile\aircraft\helicop\hc_float.c
;	COMDAT ?set_server_float_value@@YGXPAUENTITY@@W4FLOAT_TYPES@@M@Z
_TEXT	SEGMENT
_en$ = 8						; size = 4
_type$ = 12						; size = 4
_value$ = 16						; size = 4
?set_server_float_value@@YGXPAUENTITY@@W4FLOAT_TYPES@@M@Z PROC ; set_server_float_value, COMDAT

; 209  : {

  00000	55		 push	 ebp
  00001	8b ec		 mov	 ebp, esp
  00003	83 ec 40	 sub	 esp, 64			; 00000040H
  00006	53		 push	 ebx
  00007	56		 push	 esi
  00008	57		 push	 edi

; 210  : 	validate_client_server_local_fn ();

  00009	e8 00 00 00 00	 call	 ?assert_client_server_local_fn@@YGHXZ ; assert_client_server_local_fn
  0000e	85 c0		 test	 eax, eax
  00010	75 18		 jne	 SHORT $LN2@set_server
  00012	a1 00 00 00 00	 mov	 eax, DWORD PTR ?__LINE__Var@?0??set_server_float_value@@YGXPAUENTITY@@W4FLOAT_TYPES@@M@Z@4JA
  00017	83 c0 01	 add	 eax, 1
  0001a	50		 push	 eax
  0001b	68 00 00 00 00	 push	 OFFSET ??_C@_0FG@HICIIDFE@c?3?2users?2nhv90?2projects?2eech?2ap@
  00020	68 00 00 00 00	 push	 OFFSET ??_C@_0CB@CFOCLFOK@assert_client_server_local_fn?5?$CI@
  00025	e8 00 00 00 00	 call	 ?process_assert@@YGXPBD0H@Z ; process_assert
$LN2@set_server:

; 211  : 
; 212  : 	set_local_float_value (en, type, value);

  0002a	51		 push	 ecx
  0002b	f3 0f 10 45 10	 movss	 xmm0, DWORD PTR _value$[ebp]
  00030	f3 0f 11 04 24	 movss	 DWORD PTR [esp], xmm0
  00035	8b 45 0c	 mov	 eax, DWORD PTR _type$[ebp]
  00038	50		 push	 eax
  00039	8b 4d 08	 mov	 ecx, DWORD PTR _en$[ebp]
  0003c	51		 push	 ecx
  0003d	e8 00 00 00 00	 call	 ?set_local_float_value@@YGXPAUENTITY@@W4FLOAT_TYPES@@M@Z ; set_local_float_value

; 213  : 
; 214  : 	validate_client_server_remote_fn ();

  00042	e8 00 00 00 00	 call	 ?assert_client_server_remote_fn@@YGHXZ ; assert_client_server_remote_fn
  00047	85 c0		 test	 eax, eax
  00049	75 18		 jne	 SHORT $LN3@set_server
  0004b	a1 00 00 00 00	 mov	 eax, DWORD PTR ?__LINE__Var@?0??set_server_float_value@@YGXPAUENTITY@@W4FLOAT_TYPES@@M@Z@4JA
  00050	83 c0 05	 add	 eax, 5
  00053	50		 push	 eax
  00054	68 00 00 00 00	 push	 OFFSET ??_C@_0FG@HICIIDFE@c?3?2users?2nhv90?2projects?2eech?2ap@
  00059	68 00 00 00 00	 push	 OFFSET ??_C@_0CC@BNNNEGEG@assert_client_server_remote_fn?5@
  0005e	e8 00 00 00 00	 call	 ?process_assert@@YGXPBD0H@Z ; process_assert
$LN3@set_server:

; 215  : 
; 216  : 	set_remote_float_value (en, type, value);

  00063	51		 push	 ecx
  00064	f3 0f 10 45 10	 movss	 xmm0, DWORD PTR _value$[ebp]
  00069	f3 0f 11 04 24	 movss	 DWORD PTR [esp], xmm0
  0006e	8b 45 0c	 mov	 eax, DWORD PTR _type$[ebp]
  00071	50		 push	 eax
  00072	8b 4d 08	 mov	 ecx, DWORD PTR _en$[ebp]
  00075	51		 push	 ecx
  00076	e8 00 00 00 00	 call	 ?set_remote_float_value@@YGXPAUENTITY@@W4FLOAT_TYPES@@M@Z ; set_remote_float_value

; 217  : }

  0007b	5f		 pop	 edi
  0007c	5e		 pop	 esi
  0007d	5b		 pop	 ebx
  0007e	8b e5		 mov	 esp, ebp
  00080	5d		 pop	 ebp
  00081	c2 0c 00	 ret	 12			; 0000000cH
?set_server_float_value@@YGXPAUENTITY@@W4FLOAT_TYPES@@M@Z ENDP ; set_server_float_value
_TEXT	ENDS
; Function compile flags: /Odtp /ZI
; File c:\users\nhv90\projects\eech\aphavoc\source\entity\mobile\aircraft\helicop\hc_float.c
;	COMDAT ?set_remote_float_value@@YGXPAUENTITY@@W4FLOAT_TYPES@@M@Z
_TEXT	SEGMENT
_en$ = 8						; size = 4
_type$ = 12						; size = 4
_value$ = 16						; size = 4
?set_remote_float_value@@YGXPAUENTITY@@W4FLOAT_TYPES@@M@Z PROC ; set_remote_float_value, COMDAT

; 194  : {

  00000	55		 push	 ebp
  00001	8b ec		 mov	 ebp, esp
  00003	83 ec 40	 sub	 esp, 64			; 00000040H
  00006	53		 push	 ebx
  00007	56		 push	 esi
  00008	57		 push	 edi

; 195  : 	#if DEBUG_MODULE
; 196  : 
; 197  : 	debug_log_entity_args (ENTITY_DEBUG_REMOTE, ENTITY_DEBUG_FLOAT_VALUE, en, type, value);
; 198  : 
; 199  : 	#endif
; 200  : 
; 201  : 	transmit_entity_comms_message (ENTITY_COMMS_FLOAT_VALUE, en, type, value);

  00009	f3 0f 5a 45 10	 cvtss2sd xmm0, DWORD PTR _value$[ebp]
  0000e	83 ec 08	 sub	 esp, 8
  00011	f2 0f 11 04 24	 movsd	 QWORD PTR [esp], xmm0
  00016	8b 45 0c	 mov	 eax, DWORD PTR _type$[ebp]
  00019	50		 push	 eax
  0001a	8b 4d 08	 mov	 ecx, DWORD PTR _en$[ebp]
  0001d	51		 push	 ecx
  0001e	6a 16		 push	 22			; 00000016H
  00020	e8 00 00 00 00	 call	 ?transmit_entity_comms_message@@YAXW4ENTITY_COMMS_MESSAGES@@PAUENTITY@@ZZ ; transmit_entity_comms_message
  00025	83 c4 14	 add	 esp, 20			; 00000014H

; 202  : }

  00028	5f		 pop	 edi
  00029	5e		 pop	 esi
  0002a	5b		 pop	 ebx
  0002b	8b e5		 mov	 esp, ebp
  0002d	5d		 pop	 ebp
  0002e	c2 0c 00	 ret	 12			; 0000000cH
?set_remote_float_value@@YGXPAUENTITY@@W4FLOAT_TYPES@@M@Z ENDP ; set_remote_float_value
_TEXT	ENDS
; Function compile flags: /Odtp /ZI
; File c:\users\nhv90\projects\eech\aphavoc\source\entity\mobile\aircraft\helicop\hc_float.c
;	COMDAT ?set_local_float_value@@YGXPAUENTITY@@W4FLOAT_TYPES@@M@Z
_TEXT	SEGMENT
tv92 = -72						; size = 4
tv65 = -72						; size = 4
_raw$ = -4						; size = 4
_en$ = 8						; size = 4
_type$ = 12						; size = 4
_value$ = 16						; size = 4
?set_local_float_value@@YGXPAUENTITY@@W4FLOAT_TYPES@@M@Z PROC ; set_local_float_value, COMDAT

; 80   : {

  00000	55		 push	 ebp
  00001	8b ec		 mov	 ebp, esp
  00003	83 ec 48	 sub	 esp, 72			; 00000048H
  00006	53		 push	 ebx
  00007	56		 push	 esi
  00008	57		 push	 edi

; 81   : 	helicopter
; 82   : 		*raw;
; 83   : 
; 84   : 	#if DEBUG_MODULE
; 85   : 
; 86   : 	debug_log_entity_args (ENTITY_DEBUG_LOCAL, ENTITY_DEBUG_FLOAT_VALUE, en, type, value);
; 87   : 
; 88   : 	#endif
; 89   : 
; 90   : 	raw = (helicopter *) get_local_entity_data (en);

  00009	8b 45 08	 mov	 eax, DWORD PTR _en$[ebp]
  0000c	8b 48 04	 mov	 ecx, DWORD PTR [eax+4]
  0000f	89 4d fc	 mov	 DWORD PTR _raw$[ebp], ecx

; 91   : 
; 92   : 	switch (type)

  00012	8b 45 0c	 mov	 eax, DWORD PTR _type$[ebp]
  00015	89 45 b8	 mov	 DWORD PTR tv65[ebp], eax
  00018	8b 4d b8	 mov	 ecx, DWORD PTR tv65[ebp]
  0001b	83 e9 30	 sub	 ecx, 48			; 00000030H
  0001e	89 4d b8	 mov	 DWORD PTR tv65[ebp], ecx
  00021	83 7d b8 51	 cmp	 DWORD PTR tv65[ebp], 81	; 00000051H
  00025	0f 87 e0 00 00
	00		 ja	 $LN14@set_local_
  0002b	8b 55 b8	 mov	 edx, DWORD PTR tv65[ebp]
  0002e	0f b6 82 00 00
	00 00		 movzx	 eax, BYTE PTR $LN18@set_local_[edx]
  00035	ff 24 85 00 00
	00 00		 jmp	 DWORD PTR $LN19@set_local_[eax*4]
$LN4@set_local_:

; 93   : 	{
; 94   : 		////////////////////////////////////////
; 95   : 		case FLOAT_TYPE_FUEL_SUPPLY_LEVEL:
; 96   : 		////////////////////////////////////////
; 97   : 		{
; 98   : 
; 99   : 			raw->fuel_supply_level = value;

  0003c	8b 45 fc	 mov	 eax, DWORD PTR _raw$[ebp]
  0003f	f3 0f 10 45 10	 movss	 xmm0, DWORD PTR _value$[ebp]
  00044	f3 0f 11 80 84
	01 00 00	 movss	 DWORD PTR [eax+388], xmm0

; 100  : 
; 101  : 			break;

  0004c	e9 2c 01 00 00	 jmp	 $LN2@set_local_
$LN5@set_local_:

; 102  : 		}
; 103  : 		////////////////////////////////////////
; 104  : 		case FLOAT_TYPE_INVULNERABLE_TIMER:
; 105  : 		////////////////////////////////////////
; 106  : 		{
; 107  : 			raw->invulnerable_timer = value;

  00051	8b 45 fc	 mov	 eax, DWORD PTR _raw$[ebp]
  00054	f3 0f 10 45 10	 movss	 xmm0, DWORD PTR _value$[ebp]
  00059	f3 0f 11 80 88
	01 00 00	 movss	 DWORD PTR [eax+392], xmm0

; 108  : 
; 109  : 			break;

  00061	e9 17 01 00 00	 jmp	 $LN2@set_local_
$LN6@set_local_:

; 110  : 		}
; 111  : 		////////////////////////////////////////
; 112  : 		case FLOAT_TYPE_MAIN_ROTOR_BLADE_CONING_ANGLE:
; 113  : 		////////////////////////////////////////
; 114  : 		{
; 115  : 			raw->main_rotor_blade_coning_angle = value;

  00066	8b 45 fc	 mov	 eax, DWORD PTR _raw$[ebp]
  00069	f3 0f 10 45 10	 movss	 xmm0, DWORD PTR _value$[ebp]
  0006e	f3 0f 11 80 98
	01 00 00	 movss	 DWORD PTR [eax+408], xmm0

; 116  : 
; 117  : 			break;

  00076	e9 02 01 00 00	 jmp	 $LN2@set_local_
$LN7@set_local_:

; 118  : 		}
; 119  : 		////////////////////////////////////////
; 120  : 		case FLOAT_TYPE_MAIN_ROTOR_PITCH:
; 121  : 		////////////////////////////////////////
; 122  : 		{
; 123  : 			raw->main_rotor_pitch = value;

  0007b	8b 45 fc	 mov	 eax, DWORD PTR _raw$[ebp]
  0007e	f3 0f 10 45 10	 movss	 xmm0, DWORD PTR _value$[ebp]
  00083	f3 0f 11 80 90
	01 00 00	 movss	 DWORD PTR [eax+400], xmm0

; 124  : 
; 125  : 			break;

  0008b	e9 ed 00 00 00	 jmp	 $LN2@set_local_
$LN8@set_local_:

; 126  : 		}
; 127  : 		////////////////////////////////////////
; 128  : 		case FLOAT_TYPE_MAIN_ROTOR_ROLL:
; 129  : 		////////////////////////////////////////
; 130  : 		{
; 131  : 			raw->main_rotor_roll = value;

  00090	8b 45 fc	 mov	 eax, DWORD PTR _raw$[ebp]
  00093	f3 0f 10 45 10	 movss	 xmm0, DWORD PTR _value$[ebp]
  00098	f3 0f 11 80 94
	01 00 00	 movss	 DWORD PTR [eax+404], xmm0

; 132  : 
; 133  : 			break;

  000a0	e9 d8 00 00 00	 jmp	 $LN2@set_local_
$LN9@set_local_:

; 134  : 		}
; 135  : 		////////////////////////////////////////
; 136  : 		case FLOAT_TYPE_MAIN_ROTOR_RPM:
; 137  : 		////////////////////////////////////////
; 138  : 		{
; 139  : 			raw->main_rotor_rpm = value;

  000a5	8b 45 fc	 mov	 eax, DWORD PTR _raw$[ebp]
  000a8	f3 0f 10 45 10	 movss	 xmm0, DWORD PTR _value$[ebp]
  000ad	f3 0f 11 80 8c
	01 00 00	 movss	 DWORD PTR [eax+396], xmm0

; 140  : 
; 141  : 			break;

  000b5	e9 c3 00 00 00	 jmp	 $LN2@set_local_
$LN10@set_local_:

; 142  : 		}
; 143  : 		////////////////////////////////////////
; 144  : 		case FLOAT_TYPE_MAIN_ROTOR_SPIN_UP_TIMER:
; 145  : 		////////////////////////////////////////
; 146  : 		{
; 147  : 			raw->main_rotor_spin_up_timer = value;

  000ba	8b 45 fc	 mov	 eax, DWORD PTR _raw$[ebp]
  000bd	f3 0f 10 45 10	 movss	 xmm0, DWORD PTR _value$[ebp]
  000c2	f3 0f 11 80 9c
	01 00 00	 movss	 DWORD PTR [eax+412], xmm0

; 148  : 
; 149  : 			break;

  000ca	e9 ae 00 00 00	 jmp	 $LN2@set_local_
$LN11@set_local_:

; 150  : 		}
; 151  : 		////////////////////////////////////////
; 152  : 		case FLOAT_TYPE_TAIL_ROTOR_RPM:
; 153  : 		////////////////////////////////////////
; 154  : 		{
; 155  : 			raw->tail_rotor_rpm = value;

  000cf	8b 45 fc	 mov	 eax, DWORD PTR _raw$[ebp]
  000d2	f3 0f 10 45 10	 movss	 xmm0, DWORD PTR _value$[ebp]
  000d7	f3 0f 11 80 a8
	01 00 00	 movss	 DWORD PTR [eax+424], xmm0

; 156  : 
; 157  : 			break;

  000df	e9 99 00 00 00	 jmp	 $LN2@set_local_
$LN12@set_local_:

; 158  : 		}
; 159  : 		////////////////////////////////////////
; 160  : 		
; 161  : 		// Jabberwock 050310 MP Cannon bug
; 162  : 		case FLOAT_TYPE_PLAYER_WEAPON_HEADING:
; 163  : 		////////////////////////////////////////
; 164  : 		{
; 165  : 			raw->player_weapon_heading = value;

  000e4	8b 45 fc	 mov	 eax, DWORD PTR _raw$[ebp]
  000e7	f3 0f 10 45 10	 movss	 xmm0, DWORD PTR _value$[ebp]
  000ec	f3 0f 11 80 a0
	01 00 00	 movss	 DWORD PTR [eax+416], xmm0

; 166  : 
; 167  : 			break;

  000f4	e9 84 00 00 00	 jmp	 $LN2@set_local_
$LN13@set_local_:

; 168  : 		}
; 169  : 		////////////////////////////////////////
; 170  : 		case FLOAT_TYPE_PLAYER_WEAPON_PITCH:
; 171  : 		////////////////////////////////////////
; 172  : 		{
; 173  : 			raw->player_weapon_pitch = value;

  000f9	8b 45 fc	 mov	 eax, DWORD PTR _raw$[ebp]
  000fc	f3 0f 10 45 10	 movss	 xmm0, DWORD PTR _value$[ebp]
  00101	f3 0f 11 80 a4
	01 00 00	 movss	 DWORD PTR [eax+420], xmm0

; 174  : 
; 175  : 			break;

  00109	eb 72		 jmp	 SHORT $LN2@set_local_
$LN14@set_local_:

; 176  : 		}
; 177  : 		// Jabberwock 050310 ends
; 178  : 		////////////////////////////////////////
; 179  : 		default:
; 180  : 		////////////////////////////////////////
; 181  : 		{
; 182  : 			debug_fatal_invalid_float_type (en, type);

  0010b	83 7d 08 00	 cmp	 DWORD PTR _en$[ebp], 0
  0010f	74 0a		 je	 SHORT $LN16@set_local_
  00111	8b 45 08	 mov	 eax, DWORD PTR _en$[ebp]
  00114	8b 08		 mov	 ecx, DWORD PTR [eax]
  00116	89 4d b8	 mov	 DWORD PTR tv92[ebp], ecx
  00119	eb 21		 jmp	 SHORT $LN17@set_local_
$LN16@set_local_:
  0011b	8b 15 00 00 00
	00		 mov	 edx, DWORD PTR ?__LINE__Var@?0??set_local_float_value@@YGXPAUENTITY@@W4FLOAT_TYPES@@M@Z@4JA
  00121	83 c2 66	 add	 edx, 102		; 00000066H
  00124	52		 push	 edx
  00125	68 00 00 00 00	 push	 OFFSET ??_C@_0FG@HICIIDFE@c?3?2users?2nhv90?2projects?2eech?2ap@
  0012a	a1 00 00 00 00	 mov	 eax, DWORD PTR ?null_entity_pointer_message@@3PBDB ; null_entity_pointer_message
  0012f	50		 push	 eax
  00130	e8 00 00 00 00	 call	 ?process_assert@@YGXPBD0H@Z ; process_assert
  00135	c7 45 b8 00 00
	00 00		 mov	 DWORD PTR tv92[ebp], 0
$LN17@set_local_:
  0013c	8b 0d 00 00 00
	00		 mov	 ecx, DWORD PTR ?__LINE__Var@?0??set_local_float_value@@YGXPAUENTITY@@W4FLOAT_TYPES@@M@Z@4JA
  00142	83 c1 66	 add	 ecx, 102		; 00000066H
  00145	51		 push	 ecx
  00146	68 00 00 00 00	 push	 OFFSET ??_C@_0FG@HICIIDFE@c?3?2users?2nhv90?2projects?2eech?2ap@
  0014b	6b 55 0c 18	 imul	 edx, DWORD PTR _type$[ebp], 24
  0014f	8b 82 00 00 00
	00		 mov	 eax, DWORD PTR ?float_type_database@@3PAUFLOAT_TYPE_DATA@@A[edx]
  00155	50		 push	 eax
  00156	8b 4d 08	 mov	 ecx, DWORD PTR _en$[ebp]
  00159	2b 0d 00 00 00
	00		 sub	 ecx, DWORD PTR ?entities@@3PAUENTITY@@A ; entities
  0015f	c1 f9 04	 sar	 ecx, 4
  00162	51		 push	 ecx
  00163	6b 55 b8 0c	 imul	 edx, DWORD PTR tv92[ebp], 12
  00167	8b 82 00 00 00
	00		 mov	 eax, DWORD PTR ?entity_type_database@@3PAUENTITY_TYPE_DATA@@A[edx]
  0016d	50		 push	 eax
  0016e	8b 0d 00 00 00
	00		 mov	 ecx, DWORD PTR ?debug_fatal_invalid_float_type_message@@3PBDB ; debug_fatal_invalid_float_type_message
  00174	51		 push	 ecx
  00175	e8 00 00 00 00	 call	 ?debug_fatal@@YAXPBDZZ	; debug_fatal
  0017a	83 c4 18	 add	 esp, 24			; 00000018H
$LN2@set_local_:

; 183  : 
; 184  : 			break;
; 185  : 		}
; 186  : 	}
; 187  : }

  0017d	5f		 pop	 edi
  0017e	5e		 pop	 esi
  0017f	5b		 pop	 ebx
  00180	8b e5		 mov	 esp, ebp
  00182	5d		 pop	 ebp
  00183	c2 0c 00	 ret	 12			; 0000000cH
  00186	66 90		 npad	 2
$LN19@set_local_:
  00188	00 00 00 00	 DD	 $LN4@set_local_
  0018c	00 00 00 00	 DD	 $LN5@set_local_
  00190	00 00 00 00	 DD	 $LN6@set_local_
  00194	00 00 00 00	 DD	 $LN7@set_local_
  00198	00 00 00 00	 DD	 $LN8@set_local_
  0019c	00 00 00 00	 DD	 $LN9@set_local_
  001a0	00 00 00 00	 DD	 $LN10@set_local_
  001a4	00 00 00 00	 DD	 $LN12@set_local_
  001a8	00 00 00 00	 DD	 $LN13@set_local_
  001ac	00 00 00 00	 DD	 $LN11@set_local_
  001b0	00 00 00 00	 DD	 $LN14@set_local_
$LN18@set_local_:
  001b4	00		 DB	 0
  001b5	0a		 DB	 10			; 0000000aH
  001b6	0a		 DB	 10			; 0000000aH
  001b7	0a		 DB	 10			; 0000000aH
  001b8	0a		 DB	 10			; 0000000aH
  001b9	0a		 DB	 10			; 0000000aH
  001ba	0a		 DB	 10			; 0000000aH
  001bb	01		 DB	 1
  001bc	0a		 DB	 10			; 0000000aH
  001bd	0a		 DB	 10			; 0000000aH
  001be	0a		 DB	 10			; 0000000aH
  001bf	0a		 DB	 10			; 0000000aH
  001c0	0a		 DB	 10			; 0000000aH
  001c1	0a		 DB	 10			; 0000000aH
  001c2	0a		 DB	 10			; 0000000aH
  001c3	0a		 DB	 10			; 0000000aH
  001c4	0a		 DB	 10			; 0000000aH
  001c5	0a		 DB	 10			; 0000000aH
  001c6	02		 DB	 2
  001c7	0a		 DB	 10			; 0000000aH
  001c8	0a		 DB	 10			; 0000000aH
  001c9	03		 DB	 3
  001ca	0a		 DB	 10			; 0000000aH
  001cb	04		 DB	 4
  001cc	05		 DB	 5
  001cd	0a		 DB	 10			; 0000000aH
  001ce	06		 DB	 6
  001cf	0a		 DB	 10			; 0000000aH
  001d0	0a		 DB	 10			; 0000000aH
  001d1	0a		 DB	 10			; 0000000aH
  001d2	0a		 DB	 10			; 0000000aH
  001d3	0a		 DB	 10			; 0000000aH
  001d4	0a		 DB	 10			; 0000000aH
  001d5	0a		 DB	 10			; 0000000aH
  001d6	0a		 DB	 10			; 0000000aH
  001d7	0a		 DB	 10			; 0000000aH
  001d8	0a		 DB	 10			; 0000000aH
  001d9	07		 DB	 7
  001da	08		 DB	 8
  001db	0a		 DB	 10			; 0000000aH
  001dc	0a		 DB	 10			; 0000000aH
  001dd	0a		 DB	 10			; 0000000aH
  001de	0a		 DB	 10			; 0000000aH
  001df	0a		 DB	 10			; 0000000aH
  001e0	0a		 DB	 10			; 0000000aH
  001e1	0a		 DB	 10			; 0000000aH
  001e2	0a		 DB	 10			; 0000000aH
  001e3	0a		 DB	 10			; 0000000aH
  001e4	0a		 DB	 10			; 0000000aH
  001e5	0a		 DB	 10			; 0000000aH
  001e6	0a		 DB	 10			; 0000000aH
  001e7	0a		 DB	 10			; 0000000aH
  001e8	0a		 DB	 10			; 0000000aH
  001e9	0a		 DB	 10			; 0000000aH
  001ea	0a		 DB	 10			; 0000000aH
  001eb	0a		 DB	 10			; 0000000aH
  001ec	0a		 DB	 10			; 0000000aH
  001ed	0a		 DB	 10			; 0000000aH
  001ee	0a		 DB	 10			; 0000000aH
  001ef	0a		 DB	 10			; 0000000aH
  001f0	0a		 DB	 10			; 0000000aH
  001f1	0a		 DB	 10			; 0000000aH
  001f2	0a		 DB	 10			; 0000000aH
  001f3	0a		 DB	 10			; 0000000aH
  001f4	0a		 DB	 10			; 0000000aH
  001f5	0a		 DB	 10			; 0000000aH
  001f6	0a		 DB	 10			; 0000000aH
  001f7	0a		 DB	 10			; 0000000aH
  001f8	0a		 DB	 10			; 0000000aH
  001f9	0a		 DB	 10			; 0000000aH
  001fa	0a		 DB	 10			; 0000000aH
  001fb	0a		 DB	 10			; 0000000aH
  001fc	0a		 DB	 10			; 0000000aH
  001fd	0a		 DB	 10			; 0000000aH
  001fe	0a		 DB	 10			; 0000000aH
  001ff	0a		 DB	 10			; 0000000aH
  00200	0a		 DB	 10			; 0000000aH
  00201	0a		 DB	 10			; 0000000aH
  00202	0a		 DB	 10			; 0000000aH
  00203	0a		 DB	 10			; 0000000aH
  00204	0a		 DB	 10			; 0000000aH
  00205	09		 DB	 9
?set_local_float_value@@YGXPAUENTITY@@W4FLOAT_TYPES@@M@Z ENDP ; set_local_float_value
_TEXT	ENDS
; Function compile flags: /Odtp /ZI
; File c:\users\nhv90\projects\eech\aphavoc\source\entity\mobile\aircraft\helicop\hc_float.c
;	COMDAT ?overload_helicopter_float_value_functions@@YGXXZ
_TEXT	SEGMENT
?overload_helicopter_float_value_functions@@YGXXZ PROC	; overload_helicopter_float_value_functions, COMDAT

; 382  : {

  00000	55		 push	 ebp
  00001	8b ec		 mov	 ebp, esp
  00003	83 ec 40	 sub	 esp, 64			; 00000040H
  00006	53		 push	 ebx
  00007	56		 push	 esi
  00008	57		 push	 edi

; 383  : 	fn_set_local_entity_raw_float_value			[ENTITY_TYPE_HELICOPTER][FLOAT_TYPE_FUEL_SUPPLY_LEVEL]					 		= set_local_float_value;

  00009	b8 bc 02 00 00	 mov	 eax, 700		; 000002bcH
  0000e	6b c8 0e	 imul	 ecx, eax, 14
  00011	ba 04 00 00 00	 mov	 edx, 4
  00016	6b c2 30	 imul	 eax, edx, 48
  00019	c7 84 01 00 00
	00 00 00 00 00
	00		 mov	 DWORD PTR ?fn_set_local_entity_raw_float_value@@3PAY0KP@P6GXPAUENTITY@@W4FLOAT_TYPES@@M@ZA[ecx+eax], OFFSET ?set_local_float_value@@YGXPAUENTITY@@W4FLOAT_TYPES@@M@Z ; set_local_float_value

; 384  : 	fn_set_local_entity_float_value				[ENTITY_TYPE_HELICOPTER][FLOAT_TYPE_FUEL_SUPPLY_LEVEL]							= set_local_float_value;

  00024	b8 bc 02 00 00	 mov	 eax, 700		; 000002bcH
  00029	6b c8 0e	 imul	 ecx, eax, 14
  0002c	ba 04 00 00 00	 mov	 edx, 4
  00031	6b c2 30	 imul	 eax, edx, 48
  00034	c7 84 01 00 00
	00 00 00 00 00
	00		 mov	 DWORD PTR ?fn_set_local_entity_float_value@@3PAY0KP@P6GXPAUENTITY@@W4FLOAT_TYPES@@M@ZA[ecx+eax], OFFSET ?set_local_float_value@@YGXPAUENTITY@@W4FLOAT_TYPES@@M@Z ; set_local_float_value

; 385  : 	fn_set_client_server_entity_float_value	[ENTITY_TYPE_HELICOPTER][FLOAT_TYPE_FUEL_SUPPLY_LEVEL][COMMS_MODEL_SERVER]	= set_server_float_value;

  0003f	b8 78 05 00 00	 mov	 eax, 1400		; 00000578H
  00044	6b c8 0e	 imul	 ecx, eax, 14
  00047	ba 08 00 00 00	 mov	 edx, 8
  0004c	6b c2 30	 imul	 eax, edx, 48
  0004f	8d 8c 01 00 00
	00 00		 lea	 ecx, DWORD PTR ?fn_set_client_server_entity_float_value@@3PAY1KP@1P6GXPAUENTITY@@W4FLOAT_TYPES@@M@ZA[ecx+eax]
  00056	ba 04 00 00 00	 mov	 edx, 4
  0005b	6b c2 00	 imul	 eax, edx, 0
  0005e	c7 04 01 00 00
	00 00		 mov	 DWORD PTR [ecx+eax], OFFSET ?set_server_float_value@@YGXPAUENTITY@@W4FLOAT_TYPES@@M@Z ; set_server_float_value

; 386  : 	fn_set_client_server_entity_float_value	[ENTITY_TYPE_HELICOPTER][FLOAT_TYPE_FUEL_SUPPLY_LEVEL][COMMS_MODEL_CLIENT]	= set_client_float_value;

  00065	b8 78 05 00 00	 mov	 eax, 1400		; 00000578H
  0006a	6b c8 0e	 imul	 ecx, eax, 14
  0006d	ba 08 00 00 00	 mov	 edx, 8
  00072	6b c2 30	 imul	 eax, edx, 48
  00075	8d 8c 01 00 00
	00 00		 lea	 ecx, DWORD PTR ?fn_set_client_server_entity_float_value@@3PAY1KP@1P6GXPAUENTITY@@W4FLOAT_TYPES@@M@ZA[ecx+eax]
  0007c	ba 04 00 00 00	 mov	 edx, 4
  00081	c1 e2 00	 shl	 edx, 0
  00084	c7 04 11 00 00
	00 00		 mov	 DWORD PTR [ecx+edx], OFFSET ?set_client_float_value@@YGXPAUENTITY@@W4FLOAT_TYPES@@M@Z ; set_client_float_value

; 387  : 	fn_get_local_entity_float_value				[ENTITY_TYPE_HELICOPTER][FLOAT_TYPE_FUEL_SUPPLY_LEVEL]						  	= get_local_float_value;

  0008b	b8 bc 02 00 00	 mov	 eax, 700		; 000002bcH
  00090	6b c8 0e	 imul	 ecx, eax, 14
  00093	ba 04 00 00 00	 mov	 edx, 4
  00098	6b c2 30	 imul	 eax, edx, 48
  0009b	c7 84 01 00 00
	00 00 00 00 00
	00		 mov	 DWORD PTR ?fn_get_local_entity_float_value@@3PAY0KP@P6GMPAUENTITY@@W4FLOAT_TYPES@@@ZA[ecx+eax], OFFSET ?get_local_float_value@@YGMPAUENTITY@@W4FLOAT_TYPES@@@Z ; get_local_float_value

; 388  : 
; 389  : 	fn_set_local_entity_raw_float_value			[ENTITY_TYPE_HELICOPTER][FLOAT_TYPE_INVULNERABLE_TIMER]					 		= set_local_float_value;

  000a6	b8 bc 02 00 00	 mov	 eax, 700		; 000002bcH
  000ab	6b c8 0e	 imul	 ecx, eax, 14
  000ae	ba 04 00 00 00	 mov	 edx, 4
  000b3	6b c2 37	 imul	 eax, edx, 55
  000b6	c7 84 01 00 00
	00 00 00 00 00
	00		 mov	 DWORD PTR ?fn_set_local_entity_raw_float_value@@3PAY0KP@P6GXPAUENTITY@@W4FLOAT_TYPES@@M@ZA[ecx+eax], OFFSET ?set_local_float_value@@YGXPAUENTITY@@W4FLOAT_TYPES@@M@Z ; set_local_float_value

; 390  : 	fn_set_local_entity_float_value				[ENTITY_TYPE_HELICOPTER][FLOAT_TYPE_INVULNERABLE_TIMER]							= set_local_float_value;

  000c1	b8 bc 02 00 00	 mov	 eax, 700		; 000002bcH
  000c6	6b c8 0e	 imul	 ecx, eax, 14
  000c9	ba 04 00 00 00	 mov	 edx, 4
  000ce	6b c2 37	 imul	 eax, edx, 55
  000d1	c7 84 01 00 00
	00 00 00 00 00
	00		 mov	 DWORD PTR ?fn_set_local_entity_float_value@@3PAY0KP@P6GXPAUENTITY@@W4FLOAT_TYPES@@M@ZA[ecx+eax], OFFSET ?set_local_float_value@@YGXPAUENTITY@@W4FLOAT_TYPES@@M@Z ; set_local_float_value

; 391  : 	fn_set_client_server_entity_float_value	[ENTITY_TYPE_HELICOPTER][FLOAT_TYPE_INVULNERABLE_TIMER][COMMS_MODEL_SERVER]	= set_server_float_value;

  000dc	b8 78 05 00 00	 mov	 eax, 1400		; 00000578H
  000e1	6b c8 0e	 imul	 ecx, eax, 14
  000e4	ba 08 00 00 00	 mov	 edx, 8
  000e9	6b c2 37	 imul	 eax, edx, 55
  000ec	8d 8c 01 00 00
	00 00		 lea	 ecx, DWORD PTR ?fn_set_client_server_entity_float_value@@3PAY1KP@1P6GXPAUENTITY@@W4FLOAT_TYPES@@M@ZA[ecx+eax]
  000f3	ba 04 00 00 00	 mov	 edx, 4
  000f8	6b c2 00	 imul	 eax, edx, 0
  000fb	c7 04 01 00 00
	00 00		 mov	 DWORD PTR [ecx+eax], OFFSET ?set_server_float_value@@YGXPAUENTITY@@W4FLOAT_TYPES@@M@Z ; set_server_float_value

; 392  : 	fn_set_client_server_entity_float_value	[ENTITY_TYPE_HELICOPTER][FLOAT_TYPE_INVULNERABLE_TIMER][COMMS_MODEL_CLIENT]	= set_client_float_value;

  00102	b8 78 05 00 00	 mov	 eax, 1400		; 00000578H
  00107	6b c8 0e	 imul	 ecx, eax, 14
  0010a	ba 08 00 00 00	 mov	 edx, 8
  0010f	6b c2 37	 imul	 eax, edx, 55
  00112	8d 8c 01 00 00
	00 00		 lea	 ecx, DWORD PTR ?fn_set_client_server_entity_float_value@@3PAY1KP@1P6GXPAUENTITY@@W4FLOAT_TYPES@@M@ZA[ecx+eax]
  00119	ba 04 00 00 00	 mov	 edx, 4
  0011e	c1 e2 00	 shl	 edx, 0
  00121	c7 04 11 00 00
	00 00		 mov	 DWORD PTR [ecx+edx], OFFSET ?set_client_float_value@@YGXPAUENTITY@@W4FLOAT_TYPES@@M@Z ; set_client_float_value

; 393  : 	fn_get_local_entity_float_value				[ENTITY_TYPE_HELICOPTER][FLOAT_TYPE_INVULNERABLE_TIMER]						  	= get_local_float_value;

  00128	b8 bc 02 00 00	 mov	 eax, 700		; 000002bcH
  0012d	6b c8 0e	 imul	 ecx, eax, 14
  00130	ba 04 00 00 00	 mov	 edx, 4
  00135	6b c2 37	 imul	 eax, edx, 55
  00138	c7 84 01 00 00
	00 00 00 00 00
	00		 mov	 DWORD PTR ?fn_get_local_entity_float_value@@3PAY0KP@P6GMPAUENTITY@@W4FLOAT_TYPES@@@ZA[ecx+eax], OFFSET ?get_local_float_value@@YGMPAUENTITY@@W4FLOAT_TYPES@@@Z ; get_local_float_value

; 394  : 
; 395  : 	fn_set_local_entity_raw_float_value			[ENTITY_TYPE_HELICOPTER][FLOAT_TYPE_MAIN_ROTOR_BLADE_CONING_ANGLE]					 		= set_local_float_value;

  00143	b8 bc 02 00 00	 mov	 eax, 700		; 000002bcH
  00148	6b c8 0e	 imul	 ecx, eax, 14
  0014b	ba 04 00 00 00	 mov	 edx, 4
  00150	6b c2 42	 imul	 eax, edx, 66
  00153	c7 84 01 00 00
	00 00 00 00 00
	00		 mov	 DWORD PTR ?fn_set_local_entity_raw_float_value@@3PAY0KP@P6GXPAUENTITY@@W4FLOAT_TYPES@@M@ZA[ecx+eax], OFFSET ?set_local_float_value@@YGXPAUENTITY@@W4FLOAT_TYPES@@M@Z ; set_local_float_value

; 396  : 	fn_set_local_entity_float_value				[ENTITY_TYPE_HELICOPTER][FLOAT_TYPE_MAIN_ROTOR_BLADE_CONING_ANGLE]							= set_local_float_value;

  0015e	b8 bc 02 00 00	 mov	 eax, 700		; 000002bcH
  00163	6b c8 0e	 imul	 ecx, eax, 14
  00166	ba 04 00 00 00	 mov	 edx, 4
  0016b	6b c2 42	 imul	 eax, edx, 66
  0016e	c7 84 01 00 00
	00 00 00 00 00
	00		 mov	 DWORD PTR ?fn_set_local_entity_float_value@@3PAY0KP@P6GXPAUENTITY@@W4FLOAT_TYPES@@M@ZA[ecx+eax], OFFSET ?set_local_float_value@@YGXPAUENTITY@@W4FLOAT_TYPES@@M@Z ; set_local_float_value

; 397  : 	fn_set_client_server_entity_float_value	[ENTITY_TYPE_HELICOPTER][FLOAT_TYPE_MAIN_ROTOR_BLADE_CONING_ANGLE][COMMS_MODEL_SERVER]	= set_server_float_value;

  00179	b8 78 05 00 00	 mov	 eax, 1400		; 00000578H
  0017e	6b c8 0e	 imul	 ecx, eax, 14
  00181	ba 08 00 00 00	 mov	 edx, 8
  00186	6b c2 42	 imul	 eax, edx, 66
  00189	8d 8c 01 00 00
	00 00		 lea	 ecx, DWORD PTR ?fn_set_client_server_entity_float_value@@3PAY1KP@1P6GXPAUENTITY@@W4FLOAT_TYPES@@M@ZA[ecx+eax]
  00190	ba 04 00 00 00	 mov	 edx, 4
  00195	6b c2 00	 imul	 eax, edx, 0
  00198	c7 04 01 00 00
	00 00		 mov	 DWORD PTR [ecx+eax], OFFSET ?set_server_float_value@@YGXPAUENTITY@@W4FLOAT_TYPES@@M@Z ; set_server_float_value

; 398  : 	fn_set_client_server_entity_float_value	[ENTITY_TYPE_HELICOPTER][FLOAT_TYPE_MAIN_ROTOR_BLADE_CONING_ANGLE][COMMS_MODEL_CLIENT]	= set_client_float_value;

  0019f	b8 78 05 00 00	 mov	 eax, 1400		; 00000578H
  001a4	6b c8 0e	 imul	 ecx, eax, 14
  001a7	ba 08 00 00 00	 mov	 edx, 8
  001ac	6b c2 42	 imul	 eax, edx, 66
  001af	8d 8c 01 00 00
	00 00		 lea	 ecx, DWORD PTR ?fn_set_client_server_entity_float_value@@3PAY1KP@1P6GXPAUENTITY@@W4FLOAT_TYPES@@M@ZA[ecx+eax]
  001b6	ba 04 00 00 00	 mov	 edx, 4
  001bb	c1 e2 00	 shl	 edx, 0
  001be	c7 04 11 00 00
	00 00		 mov	 DWORD PTR [ecx+edx], OFFSET ?set_client_float_value@@YGXPAUENTITY@@W4FLOAT_TYPES@@M@Z ; set_client_float_value

; 399  : 	fn_get_local_entity_float_value				[ENTITY_TYPE_HELICOPTER][FLOAT_TYPE_MAIN_ROTOR_BLADE_CONING_ANGLE]						  	= get_local_float_value;

  001c5	b8 bc 02 00 00	 mov	 eax, 700		; 000002bcH
  001ca	6b c8 0e	 imul	 ecx, eax, 14
  001cd	ba 04 00 00 00	 mov	 edx, 4
  001d2	6b c2 42	 imul	 eax, edx, 66
  001d5	c7 84 01 00 00
	00 00 00 00 00
	00		 mov	 DWORD PTR ?fn_get_local_entity_float_value@@3PAY0KP@P6GMPAUENTITY@@W4FLOAT_TYPES@@@ZA[ecx+eax], OFFSET ?get_local_float_value@@YGMPAUENTITY@@W4FLOAT_TYPES@@@Z ; get_local_float_value

; 400  : 
; 401  : 	fn_set_local_entity_raw_float_value			[ENTITY_TYPE_HELICOPTER][FLOAT_TYPE_MAIN_ROTOR_PITCH]					 			= set_local_float_value;

  001e0	b8 bc 02 00 00	 mov	 eax, 700		; 000002bcH
  001e5	6b c8 0e	 imul	 ecx, eax, 14
  001e8	ba 04 00 00 00	 mov	 edx, 4
  001ed	6b c2 45	 imul	 eax, edx, 69
  001f0	c7 84 01 00 00
	00 00 00 00 00
	00		 mov	 DWORD PTR ?fn_set_local_entity_raw_float_value@@3PAY0KP@P6GXPAUENTITY@@W4FLOAT_TYPES@@M@ZA[ecx+eax], OFFSET ?set_local_float_value@@YGXPAUENTITY@@W4FLOAT_TYPES@@M@Z ; set_local_float_value

; 402  : 	fn_set_local_entity_float_value				[ENTITY_TYPE_HELICOPTER][FLOAT_TYPE_MAIN_ROTOR_PITCH]								= set_local_float_value;

  001fb	b8 bc 02 00 00	 mov	 eax, 700		; 000002bcH
  00200	6b c8 0e	 imul	 ecx, eax, 14
  00203	ba 04 00 00 00	 mov	 edx, 4
  00208	6b c2 45	 imul	 eax, edx, 69
  0020b	c7 84 01 00 00
	00 00 00 00 00
	00		 mov	 DWORD PTR ?fn_set_local_entity_float_value@@3PAY0KP@P6GXPAUENTITY@@W4FLOAT_TYPES@@M@ZA[ecx+eax], OFFSET ?set_local_float_value@@YGXPAUENTITY@@W4FLOAT_TYPES@@M@Z ; set_local_float_value

; 403  : 	fn_set_client_server_entity_float_value	[ENTITY_TYPE_HELICOPTER][FLOAT_TYPE_MAIN_ROTOR_PITCH][COMMS_MODEL_SERVER]	= set_server_float_value;

  00216	b8 78 05 00 00	 mov	 eax, 1400		; 00000578H
  0021b	6b c8 0e	 imul	 ecx, eax, 14
  0021e	ba 08 00 00 00	 mov	 edx, 8
  00223	6b c2 45	 imul	 eax, edx, 69
  00226	8d 8c 01 00 00
	00 00		 lea	 ecx, DWORD PTR ?fn_set_client_server_entity_float_value@@3PAY1KP@1P6GXPAUENTITY@@W4FLOAT_TYPES@@M@ZA[ecx+eax]
  0022d	ba 04 00 00 00	 mov	 edx, 4
  00232	6b c2 00	 imul	 eax, edx, 0
  00235	c7 04 01 00 00
	00 00		 mov	 DWORD PTR [ecx+eax], OFFSET ?set_server_float_value@@YGXPAUENTITY@@W4FLOAT_TYPES@@M@Z ; set_server_float_value

; 404  : 	fn_set_client_server_entity_float_value	[ENTITY_TYPE_HELICOPTER][FLOAT_TYPE_MAIN_ROTOR_PITCH][COMMS_MODEL_CLIENT]	= set_client_float_value;

  0023c	b8 78 05 00 00	 mov	 eax, 1400		; 00000578H
  00241	6b c8 0e	 imul	 ecx, eax, 14
  00244	ba 08 00 00 00	 mov	 edx, 8
  00249	6b c2 45	 imul	 eax, edx, 69
  0024c	8d 8c 01 00 00
	00 00		 lea	 ecx, DWORD PTR ?fn_set_client_server_entity_float_value@@3PAY1KP@1P6GXPAUENTITY@@W4FLOAT_TYPES@@M@ZA[ecx+eax]
  00253	ba 04 00 00 00	 mov	 edx, 4
  00258	c1 e2 00	 shl	 edx, 0
  0025b	c7 04 11 00 00
	00 00		 mov	 DWORD PTR [ecx+edx], OFFSET ?set_client_float_value@@YGXPAUENTITY@@W4FLOAT_TYPES@@M@Z ; set_client_float_value

; 405  : 	fn_get_local_entity_float_value				[ENTITY_TYPE_HELICOPTER][FLOAT_TYPE_MAIN_ROTOR_PITCH]						  		= get_local_float_value;

  00262	b8 bc 02 00 00	 mov	 eax, 700		; 000002bcH
  00267	6b c8 0e	 imul	 ecx, eax, 14
  0026a	ba 04 00 00 00	 mov	 edx, 4
  0026f	6b c2 45	 imul	 eax, edx, 69
  00272	c7 84 01 00 00
	00 00 00 00 00
	00		 mov	 DWORD PTR ?fn_get_local_entity_float_value@@3PAY0KP@P6GMPAUENTITY@@W4FLOAT_TYPES@@@ZA[ecx+eax], OFFSET ?get_local_float_value@@YGMPAUENTITY@@W4FLOAT_TYPES@@@Z ; get_local_float_value

; 406  : 
; 407  : 	fn_set_local_entity_raw_float_value			[ENTITY_TYPE_HELICOPTER][FLOAT_TYPE_MAIN_ROTOR_ROLL]					 			= set_local_float_value;

  0027d	b8 bc 02 00 00	 mov	 eax, 700		; 000002bcH
  00282	6b c8 0e	 imul	 ecx, eax, 14
  00285	ba 04 00 00 00	 mov	 edx, 4
  0028a	6b c2 47	 imul	 eax, edx, 71
  0028d	c7 84 01 00 00
	00 00 00 00 00
	00		 mov	 DWORD PTR ?fn_set_local_entity_raw_float_value@@3PAY0KP@P6GXPAUENTITY@@W4FLOAT_TYPES@@M@ZA[ecx+eax], OFFSET ?set_local_float_value@@YGXPAUENTITY@@W4FLOAT_TYPES@@M@Z ; set_local_float_value

; 408  : 	fn_set_local_entity_float_value				[ENTITY_TYPE_HELICOPTER][FLOAT_TYPE_MAIN_ROTOR_ROLL]								= set_local_float_value;

  00298	b8 bc 02 00 00	 mov	 eax, 700		; 000002bcH
  0029d	6b c8 0e	 imul	 ecx, eax, 14
  002a0	ba 04 00 00 00	 mov	 edx, 4
  002a5	6b c2 47	 imul	 eax, edx, 71
  002a8	c7 84 01 00 00
	00 00 00 00 00
	00		 mov	 DWORD PTR ?fn_set_local_entity_float_value@@3PAY0KP@P6GXPAUENTITY@@W4FLOAT_TYPES@@M@ZA[ecx+eax], OFFSET ?set_local_float_value@@YGXPAUENTITY@@W4FLOAT_TYPES@@M@Z ; set_local_float_value

; 409  : 	fn_set_client_server_entity_float_value	[ENTITY_TYPE_HELICOPTER][FLOAT_TYPE_MAIN_ROTOR_ROLL][COMMS_MODEL_SERVER]	= set_server_float_value;

  002b3	b8 78 05 00 00	 mov	 eax, 1400		; 00000578H
  002b8	6b c8 0e	 imul	 ecx, eax, 14
  002bb	ba 08 00 00 00	 mov	 edx, 8
  002c0	6b c2 47	 imul	 eax, edx, 71
  002c3	8d 8c 01 00 00
	00 00		 lea	 ecx, DWORD PTR ?fn_set_client_server_entity_float_value@@3PAY1KP@1P6GXPAUENTITY@@W4FLOAT_TYPES@@M@ZA[ecx+eax]
  002ca	ba 04 00 00 00	 mov	 edx, 4
  002cf	6b c2 00	 imul	 eax, edx, 0
  002d2	c7 04 01 00 00
	00 00		 mov	 DWORD PTR [ecx+eax], OFFSET ?set_server_float_value@@YGXPAUENTITY@@W4FLOAT_TYPES@@M@Z ; set_server_float_value

; 410  : 	fn_set_client_server_entity_float_value	[ENTITY_TYPE_HELICOPTER][FLOAT_TYPE_MAIN_ROTOR_ROLL][COMMS_MODEL_CLIENT]	= set_client_float_value;

  002d9	b8 78 05 00 00	 mov	 eax, 1400		; 00000578H
  002de	6b c8 0e	 imul	 ecx, eax, 14
  002e1	ba 08 00 00 00	 mov	 edx, 8
  002e6	6b c2 47	 imul	 eax, edx, 71
  002e9	8d 8c 01 00 00
	00 00		 lea	 ecx, DWORD PTR ?fn_set_client_server_entity_float_value@@3PAY1KP@1P6GXPAUENTITY@@W4FLOAT_TYPES@@M@ZA[ecx+eax]
  002f0	ba 04 00 00 00	 mov	 edx, 4
  002f5	c1 e2 00	 shl	 edx, 0
  002f8	c7 04 11 00 00
	00 00		 mov	 DWORD PTR [ecx+edx], OFFSET ?set_client_float_value@@YGXPAUENTITY@@W4FLOAT_TYPES@@M@Z ; set_client_float_value

; 411  : 	fn_get_local_entity_float_value				[ENTITY_TYPE_HELICOPTER][FLOAT_TYPE_MAIN_ROTOR_ROLL]						  		= get_local_float_value;

  002ff	b8 bc 02 00 00	 mov	 eax, 700		; 000002bcH
  00304	6b c8 0e	 imul	 ecx, eax, 14
  00307	ba 04 00 00 00	 mov	 edx, 4
  0030c	6b c2 47	 imul	 eax, edx, 71
  0030f	c7 84 01 00 00
	00 00 00 00 00
	00		 mov	 DWORD PTR ?fn_get_local_entity_float_value@@3PAY0KP@P6GMPAUENTITY@@W4FLOAT_TYPES@@@ZA[ecx+eax], OFFSET ?get_local_float_value@@YGMPAUENTITY@@W4FLOAT_TYPES@@@Z ; get_local_float_value

; 412  : 
; 413  : 	fn_set_local_entity_raw_float_value			[ENTITY_TYPE_HELICOPTER][FLOAT_TYPE_MAIN_ROTOR_RPM]				 				= set_local_float_value;

  0031a	b8 bc 02 00 00	 mov	 eax, 700		; 000002bcH
  0031f	6b c8 0e	 imul	 ecx, eax, 14
  00322	ba 04 00 00 00	 mov	 edx, 4
  00327	6b c2 48	 imul	 eax, edx, 72
  0032a	c7 84 01 00 00
	00 00 00 00 00
	00		 mov	 DWORD PTR ?fn_set_local_entity_raw_float_value@@3PAY0KP@P6GXPAUENTITY@@W4FLOAT_TYPES@@M@ZA[ecx+eax], OFFSET ?set_local_float_value@@YGXPAUENTITY@@W4FLOAT_TYPES@@M@Z ; set_local_float_value

; 414  : 	fn_set_local_entity_float_value				[ENTITY_TYPE_HELICOPTER][FLOAT_TYPE_MAIN_ROTOR_RPM]								= set_local_float_value;

  00335	b8 bc 02 00 00	 mov	 eax, 700		; 000002bcH
  0033a	6b c8 0e	 imul	 ecx, eax, 14
  0033d	ba 04 00 00 00	 mov	 edx, 4
  00342	6b c2 48	 imul	 eax, edx, 72
  00345	c7 84 01 00 00
	00 00 00 00 00
	00		 mov	 DWORD PTR ?fn_set_local_entity_float_value@@3PAY0KP@P6GXPAUENTITY@@W4FLOAT_TYPES@@M@ZA[ecx+eax], OFFSET ?set_local_float_value@@YGXPAUENTITY@@W4FLOAT_TYPES@@M@Z ; set_local_float_value

; 415  : 	fn_set_client_server_entity_float_value	[ENTITY_TYPE_HELICOPTER][FLOAT_TYPE_MAIN_ROTOR_RPM][COMMS_MODEL_SERVER]		= set_server_float_value;

  00350	b8 78 05 00 00	 mov	 eax, 1400		; 00000578H
  00355	6b c8 0e	 imul	 ecx, eax, 14
  00358	ba 08 00 00 00	 mov	 edx, 8
  0035d	6b c2 48	 imul	 eax, edx, 72
  00360	8d 8c 01 00 00
	00 00		 lea	 ecx, DWORD PTR ?fn_set_client_server_entity_float_value@@3PAY1KP@1P6GXPAUENTITY@@W4FLOAT_TYPES@@M@ZA[ecx+eax]
  00367	ba 04 00 00 00	 mov	 edx, 4
  0036c	6b c2 00	 imul	 eax, edx, 0
  0036f	c7 04 01 00 00
	00 00		 mov	 DWORD PTR [ecx+eax], OFFSET ?set_server_float_value@@YGXPAUENTITY@@W4FLOAT_TYPES@@M@Z ; set_server_float_value

; 416  : 	fn_set_client_server_entity_float_value	[ENTITY_TYPE_HELICOPTER][FLOAT_TYPE_MAIN_ROTOR_RPM][COMMS_MODEL_CLIENT]		= set_client_float_value;

  00376	b8 78 05 00 00	 mov	 eax, 1400		; 00000578H
  0037b	6b c8 0e	 imul	 ecx, eax, 14
  0037e	ba 08 00 00 00	 mov	 edx, 8
  00383	6b c2 48	 imul	 eax, edx, 72
  00386	8d 8c 01 00 00
	00 00		 lea	 ecx, DWORD PTR ?fn_set_client_server_entity_float_value@@3PAY1KP@1P6GXPAUENTITY@@W4FLOAT_TYPES@@M@ZA[ecx+eax]
  0038d	ba 04 00 00 00	 mov	 edx, 4
  00392	c1 e2 00	 shl	 edx, 0
  00395	c7 04 11 00 00
	00 00		 mov	 DWORD PTR [ecx+edx], OFFSET ?set_client_float_value@@YGXPAUENTITY@@W4FLOAT_TYPES@@M@Z ; set_client_float_value

; 417  : 	fn_get_local_entity_float_value				[ENTITY_TYPE_HELICOPTER][FLOAT_TYPE_MAIN_ROTOR_RPM]					  			= get_local_float_value;

  0039c	b8 bc 02 00 00	 mov	 eax, 700		; 000002bcH
  003a1	6b c8 0e	 imul	 ecx, eax, 14
  003a4	ba 04 00 00 00	 mov	 edx, 4
  003a9	6b c2 48	 imul	 eax, edx, 72
  003ac	c7 84 01 00 00
	00 00 00 00 00
	00		 mov	 DWORD PTR ?fn_get_local_entity_float_value@@3PAY0KP@P6GMPAUENTITY@@W4FLOAT_TYPES@@@ZA[ecx+eax], OFFSET ?get_local_float_value@@YGMPAUENTITY@@W4FLOAT_TYPES@@@Z ; get_local_float_value

; 418  : 
; 419  : 	fn_set_local_entity_raw_float_value			[ENTITY_TYPE_HELICOPTER][FLOAT_TYPE_MAIN_ROTOR_SPIN_UP_TIMER]				 				= set_local_float_value;

  003b7	b8 bc 02 00 00	 mov	 eax, 700		; 000002bcH
  003bc	6b c8 0e	 imul	 ecx, eax, 14
  003bf	ba 04 00 00 00	 mov	 edx, 4
  003c4	6b c2 4a	 imul	 eax, edx, 74
  003c7	c7 84 01 00 00
	00 00 00 00 00
	00		 mov	 DWORD PTR ?fn_set_local_entity_raw_float_value@@3PAY0KP@P6GXPAUENTITY@@W4FLOAT_TYPES@@M@ZA[ecx+eax], OFFSET ?set_local_float_value@@YGXPAUENTITY@@W4FLOAT_TYPES@@M@Z ; set_local_float_value

; 420  : 	fn_set_local_entity_float_value				[ENTITY_TYPE_HELICOPTER][FLOAT_TYPE_MAIN_ROTOR_SPIN_UP_TIMER]								= set_local_float_value;

  003d2	b8 bc 02 00 00	 mov	 eax, 700		; 000002bcH
  003d7	6b c8 0e	 imul	 ecx, eax, 14
  003da	ba 04 00 00 00	 mov	 edx, 4
  003df	6b c2 4a	 imul	 eax, edx, 74
  003e2	c7 84 01 00 00
	00 00 00 00 00
	00		 mov	 DWORD PTR ?fn_set_local_entity_float_value@@3PAY0KP@P6GXPAUENTITY@@W4FLOAT_TYPES@@M@ZA[ecx+eax], OFFSET ?set_local_float_value@@YGXPAUENTITY@@W4FLOAT_TYPES@@M@Z ; set_local_float_value

; 421  : 	fn_set_client_server_entity_float_value	[ENTITY_TYPE_HELICOPTER][FLOAT_TYPE_MAIN_ROTOR_SPIN_UP_TIMER][COMMS_MODEL_SERVER]	= set_server_float_value;

  003ed	b8 78 05 00 00	 mov	 eax, 1400		; 00000578H
  003f2	6b c8 0e	 imul	 ecx, eax, 14
  003f5	ba 08 00 00 00	 mov	 edx, 8
  003fa	6b c2 4a	 imul	 eax, edx, 74
  003fd	8d 8c 01 00 00
	00 00		 lea	 ecx, DWORD PTR ?fn_set_client_server_entity_float_value@@3PAY1KP@1P6GXPAUENTITY@@W4FLOAT_TYPES@@M@ZA[ecx+eax]
  00404	ba 04 00 00 00	 mov	 edx, 4
  00409	6b c2 00	 imul	 eax, edx, 0
  0040c	c7 04 01 00 00
	00 00		 mov	 DWORD PTR [ecx+eax], OFFSET ?set_server_float_value@@YGXPAUENTITY@@W4FLOAT_TYPES@@M@Z ; set_server_float_value

; 422  : 	fn_set_client_server_entity_float_value	[ENTITY_TYPE_HELICOPTER][FLOAT_TYPE_MAIN_ROTOR_SPIN_UP_TIMER][COMMS_MODEL_CLIENT]	= set_client_float_value;

  00413	b8 78 05 00 00	 mov	 eax, 1400		; 00000578H
  00418	6b c8 0e	 imul	 ecx, eax, 14
  0041b	ba 08 00 00 00	 mov	 edx, 8
  00420	6b c2 4a	 imul	 eax, edx, 74
  00423	8d 8c 01 00 00
	00 00		 lea	 ecx, DWORD PTR ?fn_set_client_server_entity_float_value@@3PAY1KP@1P6GXPAUENTITY@@W4FLOAT_TYPES@@M@ZA[ecx+eax]
  0042a	ba 04 00 00 00	 mov	 edx, 4
  0042f	c1 e2 00	 shl	 edx, 0
  00432	c7 04 11 00 00
	00 00		 mov	 DWORD PTR [ecx+edx], OFFSET ?set_client_float_value@@YGXPAUENTITY@@W4FLOAT_TYPES@@M@Z ; set_client_float_value

; 423  : 	fn_get_local_entity_float_value				[ENTITY_TYPE_HELICOPTER][FLOAT_TYPE_MAIN_ROTOR_SPIN_UP_TIMER]					  			= get_local_float_value;

  00439	b8 bc 02 00 00	 mov	 eax, 700		; 000002bcH
  0043e	6b c8 0e	 imul	 ecx, eax, 14
  00441	ba 04 00 00 00	 mov	 edx, 4
  00446	6b c2 4a	 imul	 eax, edx, 74
  00449	c7 84 01 00 00
	00 00 00 00 00
	00		 mov	 DWORD PTR ?fn_get_local_entity_float_value@@3PAY0KP@P6GMPAUENTITY@@W4FLOAT_TYPES@@@ZA[ecx+eax], OFFSET ?get_local_float_value@@YGMPAUENTITY@@W4FLOAT_TYPES@@@Z ; get_local_float_value

; 424  : 
; 425  : 	fn_get_local_entity_float_value				[ENTITY_TYPE_HELICOPTER][FLOAT_TYPE_RADAR_STEALTH_FACTOR]  						= get_local_float_value;

  00454	b8 bc 02 00 00	 mov	 eax, 700		; 000002bcH
  00459	6b c8 0e	 imul	 ecx, eax, 14
  0045c	ba 04 00 00 00	 mov	 edx, 4
  00461	6b c2 6a	 imul	 eax, edx, 106
  00464	c7 84 01 00 00
	00 00 00 00 00
	00		 mov	 DWORD PTR ?fn_get_local_entity_float_value@@3PAY0KP@P6GMPAUENTITY@@W4FLOAT_TYPES@@@ZA[ecx+eax], OFFSET ?get_local_float_value@@YGMPAUENTITY@@W4FLOAT_TYPES@@@Z ; get_local_float_value

; 426  : 
; 427  : 	fn_set_local_entity_raw_float_value			[ENTITY_TYPE_HELICOPTER][FLOAT_TYPE_TAIL_ROTOR_RPM]					 			= set_local_float_value;

  0046f	b8 bc 02 00 00	 mov	 eax, 700		; 000002bcH
  00474	6b c8 0e	 imul	 ecx, eax, 14
  00477	ba 04 00 00 00	 mov	 edx, 4
  0047c	69 c2 81 00 00
	00		 imul	 eax, edx, 129
  00482	c7 84 01 00 00
	00 00 00 00 00
	00		 mov	 DWORD PTR ?fn_set_local_entity_raw_float_value@@3PAY0KP@P6GXPAUENTITY@@W4FLOAT_TYPES@@M@ZA[ecx+eax], OFFSET ?set_local_float_value@@YGXPAUENTITY@@W4FLOAT_TYPES@@M@Z ; set_local_float_value

; 428  : 	fn_set_local_entity_float_value				[ENTITY_TYPE_HELICOPTER][FLOAT_TYPE_TAIL_ROTOR_RPM]								= set_local_float_value;

  0048d	b8 bc 02 00 00	 mov	 eax, 700		; 000002bcH
  00492	6b c8 0e	 imul	 ecx, eax, 14
  00495	ba 04 00 00 00	 mov	 edx, 4
  0049a	69 c2 81 00 00
	00		 imul	 eax, edx, 129
  004a0	c7 84 01 00 00
	00 00 00 00 00
	00		 mov	 DWORD PTR ?fn_set_local_entity_float_value@@3PAY0KP@P6GXPAUENTITY@@W4FLOAT_TYPES@@M@ZA[ecx+eax], OFFSET ?set_local_float_value@@YGXPAUENTITY@@W4FLOAT_TYPES@@M@Z ; set_local_float_value

; 429  : 	fn_set_client_server_entity_float_value	[ENTITY_TYPE_HELICOPTER][FLOAT_TYPE_TAIL_ROTOR_RPM][COMMS_MODEL_SERVER]		= set_server_float_value;

  004ab	b8 78 05 00 00	 mov	 eax, 1400		; 00000578H
  004b0	6b c8 0e	 imul	 ecx, eax, 14
  004b3	ba 08 00 00 00	 mov	 edx, 8
  004b8	69 c2 81 00 00
	00		 imul	 eax, edx, 129
  004be	8d 8c 01 00 00
	00 00		 lea	 ecx, DWORD PTR ?fn_set_client_server_entity_float_value@@3PAY1KP@1P6GXPAUENTITY@@W4FLOAT_TYPES@@M@ZA[ecx+eax]
  004c5	ba 04 00 00 00	 mov	 edx, 4
  004ca	6b c2 00	 imul	 eax, edx, 0
  004cd	c7 04 01 00 00
	00 00		 mov	 DWORD PTR [ecx+eax], OFFSET ?set_server_float_value@@YGXPAUENTITY@@W4FLOAT_TYPES@@M@Z ; set_server_float_value

; 430  : 	fn_set_client_server_entity_float_value	[ENTITY_TYPE_HELICOPTER][FLOAT_TYPE_TAIL_ROTOR_RPM][COMMS_MODEL_CLIENT]		= set_client_float_value;

  004d4	b8 78 05 00 00	 mov	 eax, 1400		; 00000578H
  004d9	6b c8 0e	 imul	 ecx, eax, 14
  004dc	ba 08 00 00 00	 mov	 edx, 8
  004e1	69 c2 81 00 00
	00		 imul	 eax, edx, 129
  004e7	8d 8c 01 00 00
	00 00		 lea	 ecx, DWORD PTR ?fn_set_client_server_entity_float_value@@3PAY1KP@1P6GXPAUENTITY@@W4FLOAT_TYPES@@M@ZA[ecx+eax]
  004ee	ba 04 00 00 00	 mov	 edx, 4
  004f3	c1 e2 00	 shl	 edx, 0
  004f6	c7 04 11 00 00
	00 00		 mov	 DWORD PTR [ecx+edx], OFFSET ?set_client_float_value@@YGXPAUENTITY@@W4FLOAT_TYPES@@M@Z ; set_client_float_value

; 431  : 	fn_get_local_entity_float_value				[ENTITY_TYPE_HELICOPTER][FLOAT_TYPE_TAIL_ROTOR_RPM]					  			= get_local_float_value;

  004fd	b8 bc 02 00 00	 mov	 eax, 700		; 000002bcH
  00502	6b c8 0e	 imul	 ecx, eax, 14
  00505	ba 04 00 00 00	 mov	 edx, 4
  0050a	69 c2 81 00 00
	00		 imul	 eax, edx, 129
  00510	c7 84 01 00 00
	00 00 00 00 00
	00		 mov	 DWORD PTR ?fn_get_local_entity_float_value@@3PAY0KP@P6GMPAUENTITY@@W4FLOAT_TYPES@@@ZA[ecx+eax], OFFSET ?get_local_float_value@@YGMPAUENTITY@@W4FLOAT_TYPES@@@Z ; get_local_float_value

; 432  : 	
; 433  : 	// Jabberwock 050310 MP Cannon bug
; 434  : 	fn_set_local_entity_raw_float_value			[ENTITY_TYPE_HELICOPTER][FLOAT_TYPE_PLAYER_WEAPON_HEADING]					 			= set_local_float_value;

  0051b	b8 bc 02 00 00	 mov	 eax, 700		; 000002bcH
  00520	6b c8 0e	 imul	 ecx, eax, 14
  00523	ba 04 00 00 00	 mov	 edx, 4
  00528	6b c2 55	 imul	 eax, edx, 85
  0052b	c7 84 01 00 00
	00 00 00 00 00
	00		 mov	 DWORD PTR ?fn_set_local_entity_raw_float_value@@3PAY0KP@P6GXPAUENTITY@@W4FLOAT_TYPES@@M@ZA[ecx+eax], OFFSET ?set_local_float_value@@YGXPAUENTITY@@W4FLOAT_TYPES@@M@Z ; set_local_float_value

; 435  : 	fn_set_local_entity_float_value				[ENTITY_TYPE_HELICOPTER][FLOAT_TYPE_PLAYER_WEAPON_HEADING]								= set_local_float_value;

  00536	b8 bc 02 00 00	 mov	 eax, 700		; 000002bcH
  0053b	6b c8 0e	 imul	 ecx, eax, 14
  0053e	ba 04 00 00 00	 mov	 edx, 4
  00543	6b c2 55	 imul	 eax, edx, 85
  00546	c7 84 01 00 00
	00 00 00 00 00
	00		 mov	 DWORD PTR ?fn_set_local_entity_float_value@@3PAY0KP@P6GXPAUENTITY@@W4FLOAT_TYPES@@M@ZA[ecx+eax], OFFSET ?set_local_float_value@@YGXPAUENTITY@@W4FLOAT_TYPES@@M@Z ; set_local_float_value

; 436  : 	fn_set_client_server_entity_float_value	[ENTITY_TYPE_HELICOPTER][FLOAT_TYPE_PLAYER_WEAPON_HEADING][COMMS_MODEL_SERVER]		= set_server_float_value;

  00551	b8 78 05 00 00	 mov	 eax, 1400		; 00000578H
  00556	6b c8 0e	 imul	 ecx, eax, 14
  00559	ba 08 00 00 00	 mov	 edx, 8
  0055e	6b c2 55	 imul	 eax, edx, 85
  00561	8d 8c 01 00 00
	00 00		 lea	 ecx, DWORD PTR ?fn_set_client_server_entity_float_value@@3PAY1KP@1P6GXPAUENTITY@@W4FLOAT_TYPES@@M@ZA[ecx+eax]
  00568	ba 04 00 00 00	 mov	 edx, 4
  0056d	6b c2 00	 imul	 eax, edx, 0
  00570	c7 04 01 00 00
	00 00		 mov	 DWORD PTR [ecx+eax], OFFSET ?set_server_float_value@@YGXPAUENTITY@@W4FLOAT_TYPES@@M@Z ; set_server_float_value

; 437  : 	fn_set_client_server_entity_float_value	[ENTITY_TYPE_HELICOPTER][FLOAT_TYPE_PLAYER_WEAPON_HEADING][COMMS_MODEL_CLIENT]		= set_client_float_value;

  00577	b8 78 05 00 00	 mov	 eax, 1400		; 00000578H
  0057c	6b c8 0e	 imul	 ecx, eax, 14
  0057f	ba 08 00 00 00	 mov	 edx, 8
  00584	6b c2 55	 imul	 eax, edx, 85
  00587	8d 8c 01 00 00
	00 00		 lea	 ecx, DWORD PTR ?fn_set_client_server_entity_float_value@@3PAY1KP@1P6GXPAUENTITY@@W4FLOAT_TYPES@@M@ZA[ecx+eax]
  0058e	ba 04 00 00 00	 mov	 edx, 4
  00593	c1 e2 00	 shl	 edx, 0
  00596	c7 04 11 00 00
	00 00		 mov	 DWORD PTR [ecx+edx], OFFSET ?set_client_float_value@@YGXPAUENTITY@@W4FLOAT_TYPES@@M@Z ; set_client_float_value

; 438  : 	fn_get_local_entity_float_value				[ENTITY_TYPE_HELICOPTER][FLOAT_TYPE_PLAYER_WEAPON_HEADING]					  			= get_local_float_value;

  0059d	b8 bc 02 00 00	 mov	 eax, 700		; 000002bcH
  005a2	6b c8 0e	 imul	 ecx, eax, 14
  005a5	ba 04 00 00 00	 mov	 edx, 4
  005aa	6b c2 55	 imul	 eax, edx, 85
  005ad	c7 84 01 00 00
	00 00 00 00 00
	00		 mov	 DWORD PTR ?fn_get_local_entity_float_value@@3PAY0KP@P6GMPAUENTITY@@W4FLOAT_TYPES@@@ZA[ecx+eax], OFFSET ?get_local_float_value@@YGMPAUENTITY@@W4FLOAT_TYPES@@@Z ; get_local_float_value

; 439  : 
; 440  : 	fn_set_local_entity_raw_float_value			[ENTITY_TYPE_HELICOPTER][FLOAT_TYPE_PLAYER_WEAPON_PITCH]					 			= set_local_float_value;

  005b8	b8 bc 02 00 00	 mov	 eax, 700		; 000002bcH
  005bd	6b c8 0e	 imul	 ecx, eax, 14
  005c0	ba 04 00 00 00	 mov	 edx, 4
  005c5	6b c2 56	 imul	 eax, edx, 86
  005c8	c7 84 01 00 00
	00 00 00 00 00
	00		 mov	 DWORD PTR ?fn_set_local_entity_raw_float_value@@3PAY0KP@P6GXPAUENTITY@@W4FLOAT_TYPES@@M@ZA[ecx+eax], OFFSET ?set_local_float_value@@YGXPAUENTITY@@W4FLOAT_TYPES@@M@Z ; set_local_float_value

; 441  : 	fn_set_local_entity_float_value				[ENTITY_TYPE_HELICOPTER][FLOAT_TYPE_PLAYER_WEAPON_PITCH]								= set_local_float_value;

  005d3	b8 bc 02 00 00	 mov	 eax, 700		; 000002bcH
  005d8	6b c8 0e	 imul	 ecx, eax, 14
  005db	ba 04 00 00 00	 mov	 edx, 4
  005e0	6b c2 56	 imul	 eax, edx, 86
  005e3	c7 84 01 00 00
	00 00 00 00 00
	00		 mov	 DWORD PTR ?fn_set_local_entity_float_value@@3PAY0KP@P6GXPAUENTITY@@W4FLOAT_TYPES@@M@ZA[ecx+eax], OFFSET ?set_local_float_value@@YGXPAUENTITY@@W4FLOAT_TYPES@@M@Z ; set_local_float_value

; 442  : 	fn_set_client_server_entity_float_value	[ENTITY_TYPE_HELICOPTER][FLOAT_TYPE_PLAYER_WEAPON_PITCH][COMMS_MODEL_SERVER]		= set_server_float_value;

  005ee	b8 78 05 00 00	 mov	 eax, 1400		; 00000578H
  005f3	6b c8 0e	 imul	 ecx, eax, 14
  005f6	ba 08 00 00 00	 mov	 edx, 8
  005fb	6b c2 56	 imul	 eax, edx, 86
  005fe	8d 8c 01 00 00
	00 00		 lea	 ecx, DWORD PTR ?fn_set_client_server_entity_float_value@@3PAY1KP@1P6GXPAUENTITY@@W4FLOAT_TYPES@@M@ZA[ecx+eax]
  00605	ba 04 00 00 00	 mov	 edx, 4
  0060a	6b c2 00	 imul	 eax, edx, 0
  0060d	c7 04 01 00 00
	00 00		 mov	 DWORD PTR [ecx+eax], OFFSET ?set_server_float_value@@YGXPAUENTITY@@W4FLOAT_TYPES@@M@Z ; set_server_float_value

; 443  : 	fn_set_client_server_entity_float_value	[ENTITY_TYPE_HELICOPTER][FLOAT_TYPE_PLAYER_WEAPON_PITCH][COMMS_MODEL_CLIENT]		= set_client_float_value;

  00614	b8 78 05 00 00	 mov	 eax, 1400		; 00000578H
  00619	6b c8 0e	 imul	 ecx, eax, 14
  0061c	ba 08 00 00 00	 mov	 edx, 8
  00621	6b c2 56	 imul	 eax, edx, 86
  00624	8d 8c 01 00 00
	00 00		 lea	 ecx, DWORD PTR ?fn_set_client_server_entity_float_value@@3PAY1KP@1P6GXPAUENTITY@@W4FLOAT_TYPES@@M@ZA[ecx+eax]
  0062b	ba 04 00 00 00	 mov	 edx, 4
  00630	c1 e2 00	 shl	 edx, 0
  00633	c7 04 11 00 00
	00 00		 mov	 DWORD PTR [ecx+edx], OFFSET ?set_client_float_value@@YGXPAUENTITY@@W4FLOAT_TYPES@@M@Z ; set_client_float_value

; 444  : 	fn_get_local_entity_float_value				[ENTITY_TYPE_HELICOPTER][FLOAT_TYPE_PLAYER_WEAPON_PITCH]					  			= get_local_float_value;

  0063a	b8 bc 02 00 00	 mov	 eax, 700		; 000002bcH
  0063f	6b c8 0e	 imul	 ecx, eax, 14
  00642	ba 04 00 00 00	 mov	 edx, 4
  00647	6b c2 56	 imul	 eax, edx, 86
  0064a	c7 84 01 00 00
	00 00 00 00 00
	00		 mov	 DWORD PTR ?fn_get_local_entity_float_value@@3PAY0KP@P6GMPAUENTITY@@W4FLOAT_TYPES@@@ZA[ecx+eax], OFFSET ?get_local_float_value@@YGMPAUENTITY@@W4FLOAT_TYPES@@@Z ; get_local_float_value

; 445  : 	// Jabberwock 050310 ends
; 446  : }

  00655	5f		 pop	 edi
  00656	5e		 pop	 esi
  00657	5b		 pop	 ebx
  00658	8b e5		 mov	 esp, ebp
  0065a	5d		 pop	 ebp
  0065b	c3		 ret	 0
?overload_helicopter_float_value_functions@@YGXXZ ENDP	; overload_helicopter_float_value_functions
_TEXT	ENDS
END
