; Listing generated by Microsoft (R) Optimizing Compiler Version 19.16.27045.0 

	TITLE	C:\Users\nhv90\Projects\eech\aphavoc\source\gunships\avionics\hind\hi_avevn.c
	.686P
	.XMM
	include listing.inc
	.model	flat

INCLUDELIB MSVCRTD
INCLUDELIB OLDNAMES

PUBLIC	?set_hind_avionics_events@@YGXXZ		; set_hind_avionics_events
PUBLIC	?__LINE__Var@?0??virtual_cockpit_track_target_event@@YGXPAUEVENT@@@Z@4JA ; `virtual_cockpit_track_target_event'::`1'::__LINE__Var
PUBLIC	??_C@_0EO@BINHHKGL@c?3?2users?2nhv90?2projects?2eech?2ap@ ; `string'
PUBLIC	??_C@_02DHMHPBFG@ev@				; `string'
PUBLIC	?__LINE__Var@?0??toggle_navigation_lights_event@@YGXPAUEVENT@@@Z@4JA ; `toggle_navigation_lights_event'::`1'::__LINE__Var
PUBLIC	??_C@_0CB@DLOLLEPM@Invalid?5undercarriage?5state?5?$DN?5?$CF@ ; `string'
PUBLIC	__real@3f000000
PUBLIC	__real@3f800000
EXTRN	?process_assert@@YGXPBD0H@Z:PROC		; process_assert
EXTRN	?debug_fatal@@YAXPBDZZ:PROC			; debug_fatal
EXTRN	?set_event@@YGXHHHP6GXPAUEVENT@@@Z@Z:PROC	; set_event
EXTRN	?open_client_server_entity_loading_doors@@YGXPAUENTITY@@@Z:PROC ; open_client_server_entity_loading_doors
EXTRN	?close_client_server_entity_loading_doors@@YGXPAUENTITY@@@Z:PROC ; close_client_server_entity_loading_doors
EXTRN	?open_client_server_entity_cargo_doors@@YGXPAUENTITY@@@Z:PROC ; open_client_server_entity_cargo_doors
EXTRN	?close_client_server_entity_cargo_doors@@YGXPAUENTITY@@@Z:PROC ; close_client_server_entity_cargo_doors
EXTRN	?lower_client_server_entity_undercarriage@@YGXPAUENTITY@@@Z:PROC ; lower_client_server_entity_undercarriage
EXTRN	?raise_client_server_entity_undercarriage@@YGXPAUENTITY@@@Z:PROC ; raise_client_server_entity_undercarriage
EXTRN	?get_local_entity_undercarriage_state@@YGHPAUENTITY@@@Z:PROC ; get_local_entity_undercarriage_state
EXTRN	?get_local_entity_loading_door_state@@YGHPAUENTITY@@@Z:PROC ; get_local_entity_loading_door_state
EXTRN	?get_local_entity_weapon_available@@YGHPAUENTITY@@H@Z:PROC ; get_local_entity_weapon_available
EXTRN	?play_client_server_cpg_message@@YGHPAUENTITY@@MMHMH@Z:PROC ; play_client_server_cpg_message
EXTRN	?set_view_mode@@YGHW4VIEW_MODES@@@Z:PROC	; set_view_mode
EXTRN	?select_padlock_view_event@@YGXW4PADLOCK_MODES@@@Z:PROC ; select_padlock_view_event
EXTRN	?set_gunship_weapon@@YGXH@Z:PROC		; set_gunship_weapon
EXTRN	?deactivate_hind_master_caution_lamp@@YGXXZ:PROC ; deactivate_hind_master_caution_lamp
EXTRN	?toggle_hind_backup_sight@@YGXXZ:PROC		; toggle_hind_backup_sight
EXTRN	?toggle_mi24_map@@YGXXZ:PROC			; toggle_mi24_map
EXTRN	?select_hind_target_acquisition_system@@YGXW4TARGET_ACQUISITION_SYSTEMS@@@Z:PROC ; select_hind_target_acquisition_system
EXTRN	?centre_hind_target_acquisition_system@@YGXXZ:PROC ; centre_hind_target_acquisition_system
EXTRN	?toggle_hind_auto_target@@YGXXZ:PROC		; toggle_hind_auto_target
EXTRN	?toggle_hind_lock_target@@YGXXZ:PROC		; toggle_hind_lock_target
EXTRN	?set_hind_lock_target@@YGXH@Z:PROC		; set_hind_lock_target
EXTRN	?toggle_hind_radar_jammer_manual@@YGXXZ:PROC	; toggle_hind_radar_jammer_manual
EXTRN	?toggle_hind_infra_red_jammer_manual@@YGXXZ:PROC ; toggle_hind_infra_red_jammer_manual
EXTRN	?toggle_mi24_cockpit_fan@@YGXXZ:PROC		; toggle_mi24_cockpit_fan
EXTRN	?toggle_mi24_cockpit_doors@@YGXXZ:PROC		; toggle_mi24_cockpit_doors
EXTRN	?null_entity_pointer_message@@3PBDB:DWORD	; null_entity_pointer_message
EXTRN	?global_options@@3UGLOBAL_OPTIONS_DATA@@A:BYTE	; global_options
EXTRN	?system_comms_model@@3W4COMMS_MODEL_TYPES@@A:DWORD ; system_comms_model
EXTRN	?overload_invalid_int_type_message@@3PBDB:DWORD	; overload_invalid_int_type_message
EXTRN	?fn_set_client_server_entity_int_value@@3PAY1BBH@1P6GXPAUENTITY@@W4INT_TYPES@@H@ZA:BYTE ; fn_set_client_server_entity_int_value
EXTRN	?fn_get_local_entity_int_value@@3PAY0BBH@P6GHPAUENTITY@@W4INT_TYPES@@@ZA:BYTE ; fn_get_local_entity_int_value
EXTRN	?gunship_entity@@3PAUENTITY@@A:DWORD		; gunship_entity
EXTRN	?view_mode@@3W4VIEW_MODES@@A:DWORD		; view_mode
EXTRN	?continuous_target_acquisition_system_steer_left_key@@3HA:DWORD ; continuous_target_acquisition_system_steer_left_key
EXTRN	?continuous_target_acquisition_system_steer_right_key@@3HA:DWORD ; continuous_target_acquisition_system_steer_right_key
EXTRN	?continuous_target_acquisition_system_steer_up_key@@3HA:DWORD ; continuous_target_acquisition_system_steer_up_key
EXTRN	?continuous_target_acquisition_system_steer_down_key@@3HA:DWORD ; continuous_target_acquisition_system_steer_down_key
EXTRN	?single_target_acquisition_system_steer_left_key@@3HA:DWORD ; single_target_acquisition_system_steer_left_key
EXTRN	?single_target_acquisition_system_steer_right_key@@3HA:DWORD ; single_target_acquisition_system_steer_right_key
EXTRN	?single_target_acquisition_system_steer_up_key@@3HA:DWORD ; single_target_acquisition_system_steer_up_key
EXTRN	?single_target_acquisition_system_steer_down_key@@3HA:DWORD ; single_target_acquisition_system_steer_down_key
EXTRN	?single_target_acquisition_system_inc_range_key@@3HA:DWORD ; single_target_acquisition_system_inc_range_key
EXTRN	?single_target_acquisition_system_dec_range_key@@3HA:DWORD ; single_target_acquisition_system_dec_range_key
EXTRN	?single_target_acquisition_system_select_next_target_key@@3HA:DWORD ; single_target_acquisition_system_select_next_target_key
EXTRN	?single_target_acquisition_system_select_previous_target_key@@3HA:DWORD ; single_target_acquisition_system_select_previous_target_key
EXTRN	?continuous_target_acquisition_system_steer_left_fast_key@@3HA:DWORD ; continuous_target_acquisition_system_steer_left_fast_key
EXTRN	?continuous_target_acquisition_system_steer_right_fast_key@@3HA:DWORD ; continuous_target_acquisition_system_steer_right_fast_key
EXTRN	?continuous_target_acquisition_system_steer_up_fast_key@@3HA:DWORD ; continuous_target_acquisition_system_steer_up_fast_key
EXTRN	?continuous_target_acquisition_system_steer_down_fast_key@@3HA:DWORD ; continuous_target_acquisition_system_steer_down_fast_key
EXTRN	?single_target_acquisition_system_steer_left_fast_key@@3HA:DWORD ; single_target_acquisition_system_steer_left_fast_key
EXTRN	?single_target_acquisition_system_steer_right_fast_key@@3HA:DWORD ; single_target_acquisition_system_steer_right_fast_key
EXTRN	?single_target_acquisition_system_steer_up_fast_key@@3HA:DWORD ; single_target_acquisition_system_steer_up_fast_key
EXTRN	?single_target_acquisition_system_steer_down_fast_key@@3HA:DWORD ; single_target_acquisition_system_steer_down_fast_key
EXTRN	?single_target_acquisition_system_inc_range_fast_key@@3HA:DWORD ; single_target_acquisition_system_inc_range_fast_key
EXTRN	?single_target_acquisition_system_dec_range_fast_key@@3HA:DWORD ; single_target_acquisition_system_dec_range_fast_key
EXTRN	?continuous_target_acquisition_system_steer_left_fine_key@@3HA:DWORD ; continuous_target_acquisition_system_steer_left_fine_key
EXTRN	?continuous_target_acquisition_system_steer_right_fine_key@@3HA:DWORD ; continuous_target_acquisition_system_steer_right_fine_key
EXTRN	?continuous_target_acquisition_system_steer_up_fine_key@@3HA:DWORD ; continuous_target_acquisition_system_steer_up_fine_key
EXTRN	?continuous_target_acquisition_system_steer_down_fine_key@@3HA:DWORD ; continuous_target_acquisition_system_steer_down_fine_key
EXTRN	?toggle_ground_stabilisation_key@@3HA:DWORD	; toggle_ground_stabilisation_key
EXTRN	?night_vision_system_active@@3HA:DWORD		; night_vision_system_active
EXTRN	?hind_damage@@3THIND_DAMAGE_FLAGS@@A:DWORD	; hind_damage
EXTRN	?current_flight_dynamics@@3PAUDYNAMICS_TYPE@@A:DWORD ; current_flight_dynamics
EXTRN	__fltused:DWORD
;	COMDAT __real@3f800000
CONST	SEGMENT
__real@3f800000 DD 03f800000r			; 1
CONST	ENDS
;	COMDAT __real@3f000000
CONST	SEGMENT
__real@3f000000 DD 03f000000r			; 0.5
CONST	ENDS
;	COMDAT ??_C@_0CB@DLOLLEPM@Invalid?5undercarriage?5state?5?$DN?5?$CF@
CONST	SEGMENT
??_C@_0CB@DLOLLEPM@Invalid?5undercarriage?5state?5?$DN?5?$CF@ DB 'Invalid'
	DB	' undercarriage state = %d', 00H		; `string'
CONST	ENDS
;	COMDAT ?__LINE__Var@?0??toggle_navigation_lights_event@@YGXPAUEVENT@@@Z@4JA
_DATA	SEGMENT
?__LINE__Var@?0??toggle_navigation_lights_event@@YGXPAUEVENT@@@Z@4JA DD 0227H ; `toggle_navigation_lights_event'::`1'::__LINE__Var
_DATA	ENDS
;	COMDAT ??_C@_02DHMHPBFG@ev@
CONST	SEGMENT
??_C@_02DHMHPBFG@ev@ DB 'ev', 00H			; `string'
CONST	ENDS
;	COMDAT ??_C@_0EO@BINHHKGL@c?3?2users?2nhv90?2projects?2eech?2ap@
CONST	SEGMENT
??_C@_0EO@BINHHKGL@c?3?2users?2nhv90?2projects?2eech?2ap@ DB 'c:\users\nh'
	DB	'v90\projects\eech\aphavoc\source\gunships\avionics\hind\hi_av'
	DB	'evn.c', 00H					; `string'
CONST	ENDS
;	COMDAT ?__LINE__Var@?0??virtual_cockpit_track_target_event@@YGXPAUEVENT@@@Z@4JA
_DATA	SEGMENT
?__LINE__Var@?0??virtual_cockpit_track_target_event@@YGXPAUEVENT@@@Z@4JA DD 01e4H ; `virtual_cockpit_track_target_event'::`1'::__LINE__Var
_DATA	ENDS
; Function compile flags: /Odtp /ZI
; File c:\users\nhv90\projects\eech\aphavoc\source\gunships\avionics\hind\hi_avevn.c
;	COMDAT ?toggle_map_on_off_event@@YGXPAUEVENT@@@Z
_TEXT	SEGMENT
_ev$ = 8						; size = 4
?toggle_map_on_off_event@@YGXPAUEVENT@@@Z PROC		; toggle_map_on_off_event, COMDAT

; 662  : {

  00000	55		 push	 ebp
  00001	8b ec		 mov	 ebp, esp
  00003	83 ec 40	 sub	 esp, 64			; 00000040H
  00006	53		 push	 ebx
  00007	56		 push	 esi
  00008	57		 push	 edi

; 663  : 	toggle_mi24_map();

  00009	e8 00 00 00 00	 call	 ?toggle_mi24_map@@YGXXZ	; toggle_mi24_map

; 664  : }

  0000e	5f		 pop	 edi
  0000f	5e		 pop	 esi
  00010	5b		 pop	 ebx
  00011	8b e5		 mov	 esp, ebp
  00013	5d		 pop	 ebp
  00014	c2 04 00	 ret	 4
?toggle_map_on_off_event@@YGXPAUEVENT@@@Z ENDP		; toggle_map_on_off_event
_TEXT	ENDS
; Function compile flags: /Odtp /ZI
; File c:\users\nhv90\projects\eech\aphavoc\source\gunships\avionics\hind\hi_avevn.c
;	COMDAT ?toggle_cockpit_fan_event@@YGXPAUEVENT@@@Z
_TEXT	SEGMENT
_ev$ = 8						; size = 4
?toggle_cockpit_fan_event@@YGXPAUEVENT@@@Z PROC		; toggle_cockpit_fan_event, COMDAT

; 653  : {

  00000	55		 push	 ebp
  00001	8b ec		 mov	 ebp, esp
  00003	83 ec 40	 sub	 esp, 64			; 00000040H
  00006	53		 push	 ebx
  00007	56		 push	 esi
  00008	57		 push	 edi

; 654  : 	toggle_mi24_cockpit_fan();

  00009	e8 00 00 00 00	 call	 ?toggle_mi24_cockpit_fan@@YGXXZ ; toggle_mi24_cockpit_fan

; 655  : }

  0000e	5f		 pop	 edi
  0000f	5e		 pop	 esi
  00010	5b		 pop	 ebx
  00011	8b e5		 mov	 esp, ebp
  00013	5d		 pop	 ebp
  00014	c2 04 00	 ret	 4
?toggle_cockpit_fan_event@@YGXPAUEVENT@@@Z ENDP		; toggle_cockpit_fan_event
_TEXT	ENDS
; Function compile flags: /Odtp /ZI
; File c:\users\nhv90\projects\eech\aphavoc\source\gunships\avionics\hind\hi_avevn.c
;	COMDAT ?select_eo_view_event@@YGXPAUEVENT@@@Z
_TEXT	SEGMENT
_ev$ = 8						; size = 4
?select_eo_view_event@@YGXPAUEVENT@@@Z PROC		; select_eo_view_event, COMDAT

; 641  : {

  00000	55		 push	 ebp
  00001	8b ec		 mov	 ebp, esp
  00003	83 ec 40	 sub	 esp, 64			; 00000040H
  00006	53		 push	 ebx
  00007	56		 push	 esi
  00008	57		 push	 edi

; 642  : 	// If ORT is not active then first press activates it
; 643  : 	if (view_mode != VIEW_MODE_VIRTUAL_COCKPIT_PERISCOPE)

  00009	83 3d 00 00 00
	00 25		 cmp	 DWORD PTR ?view_mode@@3W4VIEW_MODES@@A, 37 ; view_mode, 00000025H
  00010	74 09		 je	 SHORT $LN2@select_eo_

; 644  : 		set_view_mode (VIEW_MODE_VIRTUAL_COCKPIT_PERISCOPE);

  00012	6a 25		 push	 37			; 00000025H
  00014	e8 00 00 00 00	 call	 ?set_view_mode@@YGHW4VIEW_MODES@@@Z ; set_view_mode
  00019	eb 10		 jmp	 SHORT $LN1@select_eo_
$LN2@select_eo_:

; 645  : 	else if (view_mode == VIEW_MODE_VIRTUAL_COCKPIT_PERISCOPE) set_view_mode (VIEW_MODE_COCKPIT_PANEL_LEVEL_AHEAD);

  0001b	83 3d 00 00 00
	00 25		 cmp	 DWORD PTR ?view_mode@@3W4VIEW_MODES@@A, 37 ; view_mode, 00000025H
  00022	75 07		 jne	 SHORT $LN1@select_eo_
  00024	6a 11		 push	 17			; 00000011H
  00026	e8 00 00 00 00	 call	 ?set_view_mode@@YGHW4VIEW_MODES@@@Z ; set_view_mode
$LN1@select_eo_:

; 646  : }

  0002b	5f		 pop	 edi
  0002c	5e		 pop	 esi
  0002d	5b		 pop	 ebx
  0002e	8b e5		 mov	 esp, ebp
  00030	5d		 pop	 ebp
  00031	c2 04 00	 ret	 4
?select_eo_view_event@@YGXPAUEVENT@@@Z ENDP		; select_eo_view_event
_TEXT	ENDS
; Function compile flags: /Odtp /ZI
; File c:\users\nhv90\projects\eech\aphavoc\source\gunships\avionics\hind\hi_avevn.c
;	COMDAT ?toggle_cockpit_doors_event@@YGXPAUEVENT@@@Z
_TEXT	SEGMENT
_ev$ = 8						; size = 4
?toggle_cockpit_doors_event@@YGXPAUEVENT@@@Z PROC	; toggle_cockpit_doors_event, COMDAT

; 632  : {

  00000	55		 push	 ebp
  00001	8b ec		 mov	 ebp, esp
  00003	83 ec 40	 sub	 esp, 64			; 00000040H
  00006	53		 push	 ebx
  00007	56		 push	 esi
  00008	57		 push	 edi

; 633  : 	toggle_mi24_cockpit_doors();

  00009	e8 00 00 00 00	 call	 ?toggle_mi24_cockpit_doors@@YGXXZ ; toggle_mi24_cockpit_doors

; 634  : }

  0000e	5f		 pop	 edi
  0000f	5e		 pop	 esi
  00010	5b		 pop	 ebx
  00011	8b e5		 mov	 esp, ebp
  00013	5d		 pop	 ebp
  00014	c2 04 00	 ret	 4
?toggle_cockpit_doors_event@@YGXPAUEVENT@@@Z ENDP	; toggle_cockpit_doors_event
_TEXT	ENDS
; Function compile flags: /Odtp /ZI
; File c:\users\nhv90\projects\eech\aphavoc\source\gunships\avionics\hind\hi_avevn.c
;	COMDAT ?toggle_door_event@@YGXPAUEVENT@@@Z
_TEXT	SEGMENT
tv66 = -76						; size = 4
_en$ = -8						; size = 4
_state$ = -4						; size = 4
_ev$ = 8						; size = 4
?toggle_door_event@@YGXPAUEVENT@@@Z PROC		; toggle_door_event, COMDAT

; 598  : {

  00000	55		 push	 ebp
  00001	8b ec		 mov	 ebp, esp
  00003	83 ec 4c	 sub	 esp, 76			; 0000004cH
  00006	53		 push	 ebx
  00007	56		 push	 esi
  00008	57		 push	 edi

; 599  : 	int
; 600  : 		state;
; 601  : 
; 602  : 	entity *en;
; 603  : 
; 604  : 	en = get_gunship_entity ();

  00009	a1 00 00 00 00	 mov	 eax, DWORD PTR ?gunship_entity@@3PAUENTITY@@A ; gunship_entity
  0000e	89 45 f8	 mov	 DWORD PTR _en$[ebp], eax

; 605  : 
; 606  : 	state = get_local_entity_loading_door_state (get_gunship_entity ());

  00011	a1 00 00 00 00	 mov	 eax, DWORD PTR ?gunship_entity@@3PAUENTITY@@A ; gunship_entity
  00016	50		 push	 eax
  00017	e8 00 00 00 00	 call	 ?get_local_entity_loading_door_state@@YGHPAUENTITY@@@Z ; get_local_entity_loading_door_state
  0001c	89 45 fc	 mov	 DWORD PTR _state$[ebp], eax

; 607  : 
; 608  : 	switch ( state )

  0001f	8b 45 fc	 mov	 eax, DWORD PTR _state$[ebp]
  00022	89 45 b4	 mov	 DWORD PTR tv66[ebp], eax
  00025	83 7d b4 00	 cmp	 DWORD PTR tv66[ebp], 0
  00029	74 08		 je	 SHORT $LN4@toggle_doo
  0002b	83 7d b4 02	 cmp	 DWORD PTR tv66[ebp], 2
  0002f	74 16		 je	 SHORT $LN5@toggle_doo
  00031	eb 26		 jmp	 SHORT $LN1@toggle_doo
$LN4@toggle_doo:

; 609  : 	{
; 610  : 		//////////////////////////////////////////////////
; 611  : 		case 0:
; 612  : 		//////////////////////////////////////////////////
; 613  : 		{
; 614  : 			open_client_server_entity_loading_doors( en );

  00033	8b 45 f8	 mov	 eax, DWORD PTR _en$[ebp]
  00036	50		 push	 eax
  00037	e8 00 00 00 00	 call	 ?open_client_server_entity_loading_doors@@YGXPAUENTITY@@@Z ; open_client_server_entity_loading_doors

; 615  : 			open_client_server_entity_cargo_doors( en );

  0003c	8b 45 f8	 mov	 eax, DWORD PTR _en$[ebp]
  0003f	50		 push	 eax
  00040	e8 00 00 00 00	 call	 ?open_client_server_entity_cargo_doors@@YGXPAUENTITY@@@Z ; open_client_server_entity_cargo_doors

; 616  : 
; 617  : 			break;

  00045	eb 12		 jmp	 SHORT $LN1@toggle_doo
$LN5@toggle_doo:

; 618  : 		}
; 619  : 		//////////////////////////////////////////////////
; 620  : 		case 2:
; 621  : 		//////////////////////////////////////////////////
; 622  : 		{
; 623  : 			close_client_server_entity_loading_doors( en );

  00047	8b 45 f8	 mov	 eax, DWORD PTR _en$[ebp]
  0004a	50		 push	 eax
  0004b	e8 00 00 00 00	 call	 ?close_client_server_entity_loading_doors@@YGXPAUENTITY@@@Z ; close_client_server_entity_loading_doors

; 624  : 			close_client_server_entity_cargo_doors( en );

  00050	8b 45 f8	 mov	 eax, DWORD PTR _en$[ebp]
  00053	50		 push	 eax
  00054	e8 00 00 00 00	 call	 ?close_client_server_entity_cargo_doors@@YGXPAUENTITY@@@Z ; close_client_server_entity_cargo_doors
$LN1@toggle_doo:

; 625  : 
; 626  : 			break;
; 627  : 		}
; 628  : 	}
; 629  : }

  00059	5f		 pop	 edi
  0005a	5e		 pop	 esi
  0005b	5b		 pop	 ebx
  0005c	8b e5		 mov	 esp, ebp
  0005e	5d		 pop	 ebp
  0005f	c2 04 00	 ret	 4
?toggle_door_event@@YGXPAUEVENT@@@Z ENDP		; toggle_door_event
_TEXT	ENDS
; Function compile flags: /Odtp /ZI
; File c:\users\nhv90\projects\eech\aphavoc\source\gunships\avionics\hind\hi_avevn.c
;	COMDAT ?toggle_gear_event@@YGXPAUEVENT@@@Z
_TEXT	SEGMENT
tv81 = -76						; size = 4
tv74 = -72						; size = 4
tv67 = -72						; size = 4
_state$ = -4						; size = 4
_ev$ = 8						; size = 4
?toggle_gear_event@@YGXPAUEVENT@@@Z PROC		; toggle_gear_event, COMDAT

; 568  : {

  00000	55		 push	 ebp
  00001	8b ec		 mov	 ebp, esp
  00003	83 ec 4c	 sub	 esp, 76			; 0000004cH
  00006	53		 push	 ebx
  00007	56		 push	 esi
  00008	57		 push	 edi

; 569  : 	int
; 570  : 		state;
; 571  : 
; 572  : 	if (!get_dynamics_damage_type (DYNAMICS_DAMAGE_UNDERCARRIAGE))

  00009	a1 00 00 00 00	 mov	 eax, DWORD PTR ?current_flight_dynamics@@3PAUDYNAMICS_TYPE@@A ; current_flight_dynamics
  0000e	8b 88 24 25 00
	00		 mov	 ecx, DWORD PTR [eax+9508]
  00014	81 e1 00 40 00
	00		 and	 ecx, 16384		; 00004000H
  0001a	74 09		 je	 SHORT $LN11@toggle_gea
  0001c	c7 45 b8 01 00
	00 00		 mov	 DWORD PTR tv67[ebp], 1
  00023	eb 07		 jmp	 SHORT $LN12@toggle_gea
$LN11@toggle_gea:
  00025	c7 45 b8 00 00
	00 00		 mov	 DWORD PTR tv67[ebp], 0
$LN12@toggle_gea:
  0002c	83 7d b8 00	 cmp	 DWORD PTR tv67[ebp], 0
  00030	0f 85 d2 00 00
	00		 jne	 $LN1@toggle_gea

; 573  : 	{
; 574  : 		if (get_local_entity_int_value (get_gunship_entity (), INT_TYPE_AIRBORNE_AIRCRAFT))

  00036	83 3d 00 00 00
	00 00		 cmp	 DWORD PTR ?gunship_entity@@3PAUENTITY@@A, 0 ; gunship_entity
  0003d	74 0c		 je	 SHORT $LN13@toggle_gea
  0003f	a1 00 00 00 00	 mov	 eax, DWORD PTR ?gunship_entity@@3PAUENTITY@@A ; gunship_entity
  00044	8b 08		 mov	 ecx, DWORD PTR [eax]
  00046	89 4d b8	 mov	 DWORD PTR tv74[ebp], ecx
  00049	eb 1d		 jmp	 SHORT $LN14@toggle_gea
$LN13@toggle_gea:
  0004b	68 3e 02 00 00	 push	 574			; 0000023eH
  00050	68 00 00 00 00	 push	 OFFSET ??_C@_0EO@BINHHKGL@c?3?2users?2nhv90?2projects?2eech?2ap@
  00055	8b 15 00 00 00
	00		 mov	 edx, DWORD PTR ?null_entity_pointer_message@@3PBDB ; null_entity_pointer_message
  0005b	52		 push	 edx
  0005c	e8 00 00 00 00	 call	 ?process_assert@@YGXPBD0H@Z ; process_assert
  00061	c7 45 b8 00 00
	00 00		 mov	 DWORD PTR tv74[ebp], 0
$LN14@toggle_gea:
  00068	b8 01 00 00 00	 mov	 eax, 1
  0006d	85 c0		 test	 eax, eax
  0006f	74 09		 je	 SHORT $LN15@toggle_gea
  00071	c7 45 b4 04 00
	00 00		 mov	 DWORD PTR tv81[ebp], 4
  00078	eb 1d		 jmp	 SHORT $LN16@toggle_gea
$LN15@toggle_gea:
  0007a	68 3e 02 00 00	 push	 574			; 0000023eH
  0007f	68 00 00 00 00	 push	 OFFSET ??_C@_0EO@BINHHKGL@c?3?2users?2nhv90?2projects?2eech?2ap@
  00084	8b 0d 00 00 00
	00		 mov	 ecx, DWORD PTR ?overload_invalid_int_type_message@@3PBDB ; overload_invalid_int_type_message
  0008a	51		 push	 ecx
  0008b	e8 00 00 00 00	 call	 ?process_assert@@YGXPBD0H@Z ; process_assert
  00090	c7 45 b4 00 00
	00 00		 mov	 DWORD PTR tv81[ebp], 0
$LN16@toggle_gea:
  00097	6a 04		 push	 4
  00099	8b 15 00 00 00
	00		 mov	 edx, DWORD PTR ?gunship_entity@@3PAUENTITY@@A ; gunship_entity
  0009f	52		 push	 edx
  000a0	69 45 b8 5c 04
	00 00		 imul	 eax, DWORD PTR tv74[ebp], 1116
  000a7	8b 4d b4	 mov	 ecx, DWORD PTR tv81[ebp]
  000aa	8b 94 88 00 00
	00 00		 mov	 edx, DWORD PTR ?fn_get_local_entity_int_value@@3PAY0BBH@P6GHPAUENTITY@@W4INT_TYPES@@@ZA[eax+ecx*4]
  000b1	ff d2		 call	 edx
  000b3	85 c0		 test	 eax, eax
  000b5	74 51		 je	 SHORT $LN1@toggle_gea

; 575  : 		{
; 576  : 			state = get_local_entity_undercarriage_state (get_gunship_entity ());

  000b7	a1 00 00 00 00	 mov	 eax, DWORD PTR ?gunship_entity@@3PAUENTITY@@A ; gunship_entity
  000bc	50		 push	 eax
  000bd	e8 00 00 00 00	 call	 ?get_local_entity_undercarriage_state@@YGHPAUENTITY@@@Z ; get_local_entity_undercarriage_state
  000c2	89 45 fc	 mov	 DWORD PTR _state$[ebp], eax

; 577  : 
; 578  : 			if ((state == AIRCRAFT_UNDERCARRIAGE_UP) || (state == AIRCRAFT_UNDERCARRIAGE_RAISING))

  000c5	83 7d fc 00	 cmp	 DWORD PTR _state$[ebp], 0
  000c9	74 06		 je	 SHORT $LN6@toggle_gea
  000cb	83 7d fc 03	 cmp	 DWORD PTR _state$[ebp], 3
  000cf	75 0d		 jne	 SHORT $LN4@toggle_gea
$LN6@toggle_gea:

; 579  : 			{
; 580  : 				lower_client_server_entity_undercarriage (get_gunship_entity ());

  000d1	a1 00 00 00 00	 mov	 eax, DWORD PTR ?gunship_entity@@3PAUENTITY@@A ; gunship_entity
  000d6	50		 push	 eax
  000d7	e8 00 00 00 00	 call	 ?lower_client_server_entity_undercarriage@@YGXPAUENTITY@@@Z ; lower_client_server_entity_undercarriage
  000dc	eb 2a		 jmp	 SHORT $LN1@toggle_gea
$LN4@toggle_gea:

; 581  : //				open_client_server_entity_loading_doors (get_gunship_entity ());
; 582  : 			}
; 583  : 			else if ((state == AIRCRAFT_UNDERCARRIAGE_DOWN) || (state == AIRCRAFT_UNDERCARRIAGE_LOWERING))

  000de	83 7d fc 02	 cmp	 DWORD PTR _state$[ebp], 2
  000e2	74 06		 je	 SHORT $LN9@toggle_gea
  000e4	83 7d fc 01	 cmp	 DWORD PTR _state$[ebp], 1
  000e8	75 0d		 jne	 SHORT $LN7@toggle_gea
$LN9@toggle_gea:

; 584  : 			{
; 585  : 				raise_client_server_entity_undercarriage (get_gunship_entity ());

  000ea	a1 00 00 00 00	 mov	 eax, DWORD PTR ?gunship_entity@@3PAUENTITY@@A ; gunship_entity
  000ef	50		 push	 eax
  000f0	e8 00 00 00 00	 call	 ?raise_client_server_entity_undercarriage@@YGXPAUENTITY@@@Z ; raise_client_server_entity_undercarriage

; 586  : //				close_client_server_entity_loading_doors (get_gunship_entity ());
; 587  : 			}
; 588  : 			else

  000f5	eb 11		 jmp	 SHORT $LN1@toggle_gea
$LN7@toggle_gea:

; 589  : 			{
; 590  : 				debug_fatal ("Invalid undercarriage state = %d", state);

  000f7	8b 45 fc	 mov	 eax, DWORD PTR _state$[ebp]
  000fa	50		 push	 eax
  000fb	68 00 00 00 00	 push	 OFFSET ??_C@_0CB@DLOLLEPM@Invalid?5undercarriage?5state?5?$DN?5?$CF@
  00100	e8 00 00 00 00	 call	 ?debug_fatal@@YAXPBDZZ	; debug_fatal
  00105	83 c4 08	 add	 esp, 8
$LN1@toggle_gea:

; 591  : 			}
; 592  : 		}
; 593  : 	}
; 594  : }

  00108	5f		 pop	 edi
  00109	5e		 pop	 esi
  0010a	5b		 pop	 ebx
  0010b	8b e5		 mov	 esp, ebp
  0010d	5d		 pop	 ebp
  0010e	c2 04 00	 ret	 4
?toggle_gear_event@@YGXPAUEVENT@@@Z ENDP		; toggle_gear_event
_TEXT	ENDS
; Function compile flags: /Odtp /ZI
; File c:\users\nhv90\projects\eech\aphavoc\source\gunships\avionics\hind\hi_avevn.c
;	COMDAT ?toggle_navigation_lights_event@@YGXPAUEVENT@@@Z
_TEXT	SEGMENT
tv131 = -76						; size = 4
tv78 = -76						; size = 4
tv91 = -72						; size = 4
tv70 = -72						; size = 4
_status$ = -4						; size = 4
_ev$ = 8						; size = 4
?toggle_navigation_lights_event@@YGXPAUEVENT@@@Z PROC	; toggle_navigation_lights_event, COMDAT

; 551  : {

  00000	55		 push	 ebp
  00001	8b ec		 mov	 ebp, esp
  00003	83 ec 4c	 sub	 esp, 76			; 0000004cH
  00006	53		 push	 ebx
  00007	56		 push	 esi
  00008	57		 push	 edi

; 552  : 	int
; 553  : 		status;
; 554  : 
; 555  : 	status = get_local_entity_int_value (get_gunship_entity (), INT_TYPE_LIGHTS_ON);

  00009	83 3d 00 00 00
	00 00		 cmp	 DWORD PTR ?gunship_entity@@3PAUENTITY@@A, 0 ; gunship_entity
  00010	74 0c		 je	 SHORT $LN3@toggle_nav
  00012	a1 00 00 00 00	 mov	 eax, DWORD PTR ?gunship_entity@@3PAUENTITY@@A ; gunship_entity
  00017	8b 08		 mov	 ecx, DWORD PTR [eax]
  00019	89 4d b8	 mov	 DWORD PTR tv70[ebp], ecx
  0001c	eb 21		 jmp	 SHORT $LN4@toggle_nav
$LN3@toggle_nav:
  0001e	8b 15 00 00 00
	00		 mov	 edx, DWORD PTR ?__LINE__Var@?0??toggle_navigation_lights_event@@YGXPAUEVENT@@@Z@4JA
  00024	83 c2 04	 add	 edx, 4
  00027	52		 push	 edx
  00028	68 00 00 00 00	 push	 OFFSET ??_C@_0EO@BINHHKGL@c?3?2users?2nhv90?2projects?2eech?2ap@
  0002d	a1 00 00 00 00	 mov	 eax, DWORD PTR ?null_entity_pointer_message@@3PBDB ; null_entity_pointer_message
  00032	50		 push	 eax
  00033	e8 00 00 00 00	 call	 ?process_assert@@YGXPBD0H@Z ; process_assert
  00038	c7 45 b8 00 00
	00 00		 mov	 DWORD PTR tv70[ebp], 0
$LN4@toggle_nav:
  0003f	b9 01 00 00 00	 mov	 ecx, 1
  00044	85 c9		 test	 ecx, ecx
  00046	74 09		 je	 SHORT $LN5@toggle_nav
  00048	c7 45 b4 7a 00
	00 00		 mov	 DWORD PTR tv78[ebp], 122 ; 0000007aH
  0004f	eb 21		 jmp	 SHORT $LN6@toggle_nav
$LN5@toggle_nav:
  00051	8b 15 00 00 00
	00		 mov	 edx, DWORD PTR ?__LINE__Var@?0??toggle_navigation_lights_event@@YGXPAUEVENT@@@Z@4JA
  00057	83 c2 04	 add	 edx, 4
  0005a	52		 push	 edx
  0005b	68 00 00 00 00	 push	 OFFSET ??_C@_0EO@BINHHKGL@c?3?2users?2nhv90?2projects?2eech?2ap@
  00060	a1 00 00 00 00	 mov	 eax, DWORD PTR ?overload_invalid_int_type_message@@3PBDB ; overload_invalid_int_type_message
  00065	50		 push	 eax
  00066	e8 00 00 00 00	 call	 ?process_assert@@YGXPBD0H@Z ; process_assert
  0006b	c7 45 b4 00 00
	00 00		 mov	 DWORD PTR tv78[ebp], 0
$LN6@toggle_nav:
  00072	6a 7a		 push	 122			; 0000007aH
  00074	8b 0d 00 00 00
	00		 mov	 ecx, DWORD PTR ?gunship_entity@@3PAUENTITY@@A ; gunship_entity
  0007a	51		 push	 ecx
  0007b	69 55 b8 5c 04
	00 00		 imul	 edx, DWORD PTR tv70[ebp], 1116
  00082	8b 45 b4	 mov	 eax, DWORD PTR tv78[ebp]
  00085	8b 8c 82 00 00
	00 00		 mov	 ecx, DWORD PTR ?fn_get_local_entity_int_value@@3PAY0BBH@P6GHPAUENTITY@@W4INT_TYPES@@@ZA[edx+eax*4]
  0008c	ff d1		 call	 ecx
  0008e	89 45 fc	 mov	 DWORD PTR _status$[ebp], eax

; 556  : 
; 557  : 	status ^= 1;

  00091	8b 45 fc	 mov	 eax, DWORD PTR _status$[ebp]
  00094	83 f0 01	 xor	 eax, 1
  00097	89 45 fc	 mov	 DWORD PTR _status$[ebp], eax

; 558  : 
; 559  : 	set_client_server_entity_int_value (get_gunship_entity (), INT_TYPE_LIGHTS_ON, status);

  0009a	83 3d 00 00 00
	00 00		 cmp	 DWORD PTR ?gunship_entity@@3PAUENTITY@@A, 0 ; gunship_entity
  000a1	74 0c		 je	 SHORT $LN7@toggle_nav
  000a3	a1 00 00 00 00	 mov	 eax, DWORD PTR ?gunship_entity@@3PAUENTITY@@A ; gunship_entity
  000a8	8b 08		 mov	 ecx, DWORD PTR [eax]
  000aa	89 4d b8	 mov	 DWORD PTR tv91[ebp], ecx
  000ad	eb 21		 jmp	 SHORT $LN8@toggle_nav
$LN7@toggle_nav:
  000af	8b 15 00 00 00
	00		 mov	 edx, DWORD PTR ?__LINE__Var@?0??toggle_navigation_lights_event@@YGXPAUEVENT@@@Z@4JA
  000b5	83 c2 08	 add	 edx, 8
  000b8	52		 push	 edx
  000b9	68 00 00 00 00	 push	 OFFSET ??_C@_0EO@BINHHKGL@c?3?2users?2nhv90?2projects?2eech?2ap@
  000be	a1 00 00 00 00	 mov	 eax, DWORD PTR ?null_entity_pointer_message@@3PBDB ; null_entity_pointer_message
  000c3	50		 push	 eax
  000c4	e8 00 00 00 00	 call	 ?process_assert@@YGXPBD0H@Z ; process_assert
  000c9	c7 45 b8 00 00
	00 00		 mov	 DWORD PTR tv91[ebp], 0
$LN8@toggle_nav:
  000d0	b9 01 00 00 00	 mov	 ecx, 1
  000d5	85 c9		 test	 ecx, ecx
  000d7	74 09		 je	 SHORT $LN9@toggle_nav
  000d9	c7 45 b4 7a 00
	00 00		 mov	 DWORD PTR tv131[ebp], 122 ; 0000007aH
  000e0	eb 21		 jmp	 SHORT $LN10@toggle_nav
$LN9@toggle_nav:
  000e2	8b 15 00 00 00
	00		 mov	 edx, DWORD PTR ?__LINE__Var@?0??toggle_navigation_lights_event@@YGXPAUEVENT@@@Z@4JA
  000e8	83 c2 08	 add	 edx, 8
  000eb	52		 push	 edx
  000ec	68 00 00 00 00	 push	 OFFSET ??_C@_0EO@BINHHKGL@c?3?2users?2nhv90?2projects?2eech?2ap@
  000f1	a1 00 00 00 00	 mov	 eax, DWORD PTR ?overload_invalid_int_type_message@@3PBDB ; overload_invalid_int_type_message
  000f6	50		 push	 eax
  000f7	e8 00 00 00 00	 call	 ?process_assert@@YGXPBD0H@Z ; process_assert
  000fc	c7 45 b4 00 00
	00 00		 mov	 DWORD PTR tv131[ebp], 0
$LN10@toggle_nav:
  00103	8b 4d fc	 mov	 ecx, DWORD PTR _status$[ebp]
  00106	51		 push	 ecx
  00107	6a 7a		 push	 122			; 0000007aH
  00109	8b 15 00 00 00
	00		 mov	 edx, DWORD PTR ?gunship_entity@@3PAUENTITY@@A ; gunship_entity
  0010f	52		 push	 edx
  00110	69 45 b8 b8 08
	00 00		 imul	 eax, DWORD PTR tv91[ebp], 2232
  00117	8b 4d b4	 mov	 ecx, DWORD PTR tv131[ebp]
  0011a	8d 94 c8 00 00
	00 00		 lea	 edx, DWORD PTR ?fn_set_client_server_entity_int_value@@3PAY1BBH@1P6GXPAUENTITY@@W4INT_TYPES@@H@ZA[eax+ecx*8]
  00121	a1 00 00 00 00	 mov	 eax, DWORD PTR ?system_comms_model@@3W4COMMS_MODEL_TYPES@@A ; system_comms_model
  00126	8b 0c 82	 mov	 ecx, DWORD PTR [edx+eax*4]
  00129	ff d1		 call	 ecx

; 560  : }

  0012b	5f		 pop	 edi
  0012c	5e		 pop	 esi
  0012d	5b		 pop	 ebx
  0012e	8b e5		 mov	 esp, ebp
  00130	5d		 pop	 ebp
  00131	c2 04 00	 ret	 4
?toggle_navigation_lights_event@@YGXPAUEVENT@@@Z ENDP	; toggle_navigation_lights_event
_TEXT	ENDS
; Function compile flags: /Odtp /ZI
; File c:\users\nhv90\projects\eech\aphavoc\source\gunships\avionics\hind\hi_avevn.c
;	COMDAT ?toggle_backup_sight_event@@YGXPAUEVENT@@@Z
_TEXT	SEGMENT
_ev$ = 8						; size = 4
?toggle_backup_sight_event@@YGXPAUEVENT@@@Z PROC	; toggle_backup_sight_event, COMDAT

; 542  : {

  00000	55		 push	 ebp
  00001	8b ec		 mov	 ebp, esp
  00003	83 ec 40	 sub	 esp, 64			; 00000040H
  00006	53		 push	 ebx
  00007	56		 push	 esi
  00008	57		 push	 edi

; 543  : 	toggle_hind_backup_sight();

  00009	e8 00 00 00 00	 call	 ?toggle_hind_backup_sight@@YGXXZ ; toggle_hind_backup_sight

; 544  : }

  0000e	5f		 pop	 edi
  0000f	5e		 pop	 esi
  00010	5b		 pop	 ebx
  00011	8b e5		 mov	 esp, ebp
  00013	5d		 pop	 ebp
  00014	c2 04 00	 ret	 4
?toggle_backup_sight_event@@YGXPAUEVENT@@@Z ENDP	; toggle_backup_sight_event
_TEXT	ENDS
; Function compile flags: /Odtp /ZI
; File c:\users\nhv90\projects\eech\aphavoc\source\gunships\avionics\hind\hi_avevn.c
;	COMDAT ?toggle_infra_red_jammer_event@@YGXPAUEVENT@@@Z
_TEXT	SEGMENT
_ev$ = 8						; size = 4
?toggle_infra_red_jammer_event@@YGXPAUEVENT@@@Z PROC	; toggle_infra_red_jammer_event, COMDAT

; 533  : {

  00000	55		 push	 ebp
  00001	8b ec		 mov	 ebp, esp
  00003	83 ec 40	 sub	 esp, 64			; 00000040H
  00006	53		 push	 ebx
  00007	56		 push	 esi
  00008	57		 push	 edi

; 534  : 	toggle_hind_infra_red_jammer_manual ();

  00009	e8 00 00 00 00	 call	 ?toggle_hind_infra_red_jammer_manual@@YGXXZ ; toggle_hind_infra_red_jammer_manual

; 535  : }

  0000e	5f		 pop	 edi
  0000f	5e		 pop	 esi
  00010	5b		 pop	 ebx
  00011	8b e5		 mov	 esp, ebp
  00013	5d		 pop	 ebp
  00014	c2 04 00	 ret	 4
?toggle_infra_red_jammer_event@@YGXPAUEVENT@@@Z ENDP	; toggle_infra_red_jammer_event
_TEXT	ENDS
; Function compile flags: /Odtp /ZI
; File c:\users\nhv90\projects\eech\aphavoc\source\gunships\avionics\hind\hi_avevn.c
;	COMDAT ?toggle_radar_jammer_event@@YGXPAUEVENT@@@Z
_TEXT	SEGMENT
_ev$ = 8						; size = 4
?toggle_radar_jammer_event@@YGXPAUEVENT@@@Z PROC	; toggle_radar_jammer_event, COMDAT

; 524  : {

  00000	55		 push	 ebp
  00001	8b ec		 mov	 ebp, esp
  00003	83 ec 40	 sub	 esp, 64			; 00000040H
  00006	53		 push	 ebx
  00007	56		 push	 esi
  00008	57		 push	 edi

; 525  : 	toggle_hind_radar_jammer_manual ();

  00009	e8 00 00 00 00	 call	 ?toggle_hind_radar_jammer_manual@@YGXXZ ; toggle_hind_radar_jammer_manual

; 526  : }

  0000e	5f		 pop	 edi
  0000f	5e		 pop	 esi
  00010	5b		 pop	 ebx
  00011	8b e5		 mov	 esp, ebp
  00013	5d		 pop	 ebp
  00014	c2 04 00	 ret	 4
?toggle_radar_jammer_event@@YGXPAUEVENT@@@Z ENDP	; toggle_radar_jammer_event
_TEXT	ENDS
; Function compile flags: /Odtp /ZI
; File c:\users\nhv90\projects\eech\aphavoc\source\gunships\avionics\hind\hi_avevn.c
;	COMDAT ?select_cannon_event@@YGXPAUEVENT@@@Z
_TEXT	SEGMENT
_ev$ = 8						; size = 4
?select_cannon_event@@YGXPAUEVENT@@@Z PROC		; select_cannon_event, COMDAT

; 508  : {

  00000	55		 push	 ebp
  00001	8b ec		 mov	 ebp, esp
  00003	83 ec 40	 sub	 esp, 64			; 00000040H
  00006	53		 push	 ebx
  00007	56		 push	 esi
  00008	57		 push	 edi

; 509  : 	if (get_local_entity_weapon_available (get_gunship_entity (), ENTITY_SUB_TYPE_WEAPON_2A42_30MM_HE_ROUND))

  00009	6a 13		 push	 19			; 00000013H
  0000b	a1 00 00 00 00	 mov	 eax, DWORD PTR ?gunship_entity@@3PAUENTITY@@A ; gunship_entity
  00010	50		 push	 eax
  00011	e8 00 00 00 00	 call	 ?get_local_entity_weapon_available@@YGHPAUENTITY@@H@Z ; get_local_entity_weapon_available
  00016	85 c0		 test	 eax, eax
  00018	74 09		 je	 SHORT $LN2@select_can

; 510  : 	{
; 511  : 		set_gunship_weapon (ENTITY_SUB_TYPE_WEAPON_2A42_30MM_HE_ROUND);

  0001a	6a 13		 push	 19			; 00000013H
  0001c	e8 00 00 00 00	 call	 ?set_gunship_weapon@@YGXH@Z ; set_gunship_weapon
  00021	eb 18		 jmp	 SHORT $LN1@select_can
$LN2@select_can:

; 512  : 	}
; 513  : 	else if (get_local_entity_weapon_available (get_gunship_entity (), ENTITY_SUB_TYPE_WEAPON_2A42_30MM_AP_ROUND))

  00023	6a 14		 push	 20			; 00000014H
  00025	a1 00 00 00 00	 mov	 eax, DWORD PTR ?gunship_entity@@3PAUENTITY@@A ; gunship_entity
  0002a	50		 push	 eax
  0002b	e8 00 00 00 00	 call	 ?get_local_entity_weapon_available@@YGHPAUENTITY@@H@Z ; get_local_entity_weapon_available
  00030	85 c0		 test	 eax, eax
  00032	74 07		 je	 SHORT $LN1@select_can

; 514  : 	{
; 515  : 		set_gunship_weapon (ENTITY_SUB_TYPE_WEAPON_2A42_30MM_AP_ROUND);

  00034	6a 14		 push	 20			; 00000014H
  00036	e8 00 00 00 00	 call	 ?set_gunship_weapon@@YGXH@Z ; set_gunship_weapon
$LN1@select_can:

; 516  : 	}
; 517  : }

  0003b	5f		 pop	 edi
  0003c	5e		 pop	 esi
  0003d	5b		 pop	 ebx
  0003e	8b e5		 mov	 esp, ebp
  00040	5d		 pop	 ebp
  00041	c2 04 00	 ret	 4
?select_cannon_event@@YGXPAUEVENT@@@Z ENDP		; select_cannon_event
_TEXT	ENDS
; Function compile flags: /Odtp /ZI
; File c:\users\nhv90\projects\eech\aphavoc\source\gunships\avionics\hind\hi_avevn.c
;	COMDAT ?virtual_cockpit_track_target_event@@YGXPAUEVENT@@@Z
_TEXT	SEGMENT
_ev$ = 8						; size = 4
?virtual_cockpit_track_target_event@@YGXPAUEVENT@@@Z PROC ; virtual_cockpit_track_target_event, COMDAT

; 484  : {

  00000	55		 push	 ebp
  00001	8b ec		 mov	 ebp, esp
  00003	83 ec 40	 sub	 esp, 64			; 00000040H
  00006	53		 push	 ebx
  00007	56		 push	 esi
  00008	57		 push	 edi

; 485  : 	ASSERT (ev);

  00009	83 7d 08 00	 cmp	 DWORD PTR _ev$[ebp], 0
  0000d	75 18		 jne	 SHORT $LN2@virtual_co
  0000f	a1 00 00 00 00	 mov	 eax, DWORD PTR ?__LINE__Var@?0??virtual_cockpit_track_target_event@@YGXPAUEVENT@@@Z@4JA
  00014	83 c0 01	 add	 eax, 1
  00017	50		 push	 eax
  00018	68 00 00 00 00	 push	 OFFSET ??_C@_0EO@BINHHKGL@c?3?2users?2nhv90?2projects?2eech?2ap@
  0001d	68 00 00 00 00	 push	 OFFSET ??_C@_02DHMHPBFG@ev@
  00022	e8 00 00 00 00	 call	 ?process_assert@@YGXPBD0H@Z ; process_assert
$LN2@virtual_co:

; 486  : 
; 487  : 	if ((ev->key == DIK_1) || (get_view_mode () != VIEW_MODE_VIRTUAL_COCKPIT_TRACK_TARGET))

  00027	8b 45 08	 mov	 eax, DWORD PTR _ev$[ebp]
  0002a	0f b6 48 06	 movzx	 ecx, BYTE PTR [eax+6]
  0002e	83 f9 02	 cmp	 ecx, 2
  00031	74 09		 je	 SHORT $LN5@virtual_co
  00033	83 3d 00 00 00
	00 22		 cmp	 DWORD PTR ?view_mode@@3W4VIEW_MODES@@A, 34 ; view_mode, 00000022H
  0003a	74 14		 je	 SHORT $LN3@virtual_co
$LN5@virtual_co:

; 488  : 	{
; 489  : 		if (set_view_mode (VIEW_MODE_VIRTUAL_COCKPIT_TRACK_TARGET))

  0003c	6a 22		 push	 34			; 00000022H
  0003e	e8 00 00 00 00	 call	 ?set_view_mode@@YGHW4VIEW_MODES@@@Z ; set_view_mode
  00043	85 c0		 test	 eax, eax
  00045	74 07		 je	 SHORT $LN6@virtual_co

; 490  : 		{
; 491  : 			set_hind_lock_target (TRUE);

  00047	6a 01		 push	 1
  00049	e8 00 00 00 00	 call	 ?set_hind_lock_target@@YGXH@Z ; set_hind_lock_target
$LN6@virtual_co:

; 492  : 		}
; 493  : 	}
; 494  : 	else

  0004e	eb 10		 jmp	 SHORT $LN1@virtual_co
$LN3@virtual_co:

; 495  : 	{
; 496  : 		if (get_view_mode () == VIEW_MODE_VIRTUAL_COCKPIT_TRACK_TARGET)

  00050	83 3d 00 00 00
	00 22		 cmp	 DWORD PTR ?view_mode@@3W4VIEW_MODES@@A, 34 ; view_mode, 00000022H
  00057	75 07		 jne	 SHORT $LN1@virtual_co

; 497  : 		{
; 498  : 			select_padlock_view_event (PADLOCK_MODE_NONE);

  00059	6a 00		 push	 0
  0005b	e8 00 00 00 00	 call	 ?select_padlock_view_event@@YGXW4PADLOCK_MODES@@@Z ; select_padlock_view_event
$LN1@virtual_co:

; 499  : 		}
; 500  : 	}
; 501  : }

  00060	5f		 pop	 edi
  00061	5e		 pop	 esi
  00062	5b		 pop	 ebx
  00063	8b e5		 mov	 esp, ebp
  00065	5d		 pop	 ebp
  00066	c2 04 00	 ret	 4
?virtual_cockpit_track_target_event@@YGXPAUEVENT@@@Z ENDP ; virtual_cockpit_track_target_event
_TEXT	ENDS
; Function compile flags: /Odtp /ZI
; File c:\users\nhv90\projects\eech\aphavoc\source\gunships\avionics\hind\hi_avevn.c
;	COMDAT ?toggle_night_vision_system_event@@YGXPAUEVENT@@@Z
_TEXT	SEGMENT
_ev$ = 8						; size = 4
?toggle_night_vision_system_event@@YGXPAUEVENT@@@Z PROC	; toggle_night_vision_system_event, COMDAT

; 468  : {

  00000	55		 push	 ebp
  00001	8b ec		 mov	 ebp, esp
  00003	83 ec 40	 sub	 esp, 64			; 00000040H
  00006	53		 push	 ebx
  00007	56		 push	 esi
  00008	57		 push	 edi

; 469  : 	if (!hind_damage.night_vision_goggles)

  00009	a1 00 00 00 00	 mov	 eax, DWORD PTR ?hind_damage@@3THIND_DAMAGE_FLAGS@@A ; hind_damage
  0000e	c1 e8 14	 shr	 eax, 20			; 00000014H
  00011	83 e0 01	 and	 eax, 1
  00014	75 0f		 jne	 SHORT $LN2@toggle_nig

; 470  : 	{
; 471  : 		night_vision_system_active ^= 1;

  00016	a1 00 00 00 00	 mov	 eax, DWORD PTR ?night_vision_system_active@@3HA ; night_vision_system_active
  0001b	83 f0 01	 xor	 eax, 1
  0001e	a3 00 00 00 00	 mov	 DWORD PTR ?night_vision_system_active@@3HA, eax ; night_vision_system_active

; 472  : 	}
; 473  : 	else

  00023	eb 39		 jmp	 SHORT $LN3@toggle_nig
$LN2@toggle_nig:

; 474  : 	{
; 475  : 		play_client_server_cpg_message (get_gunship_entity (), 0.5, 1.0, SPEECH_CATEGORY_CPG_SYSTEMS, 1.0, SPEECH_CPG_NIGHT_VISION_GOGGLES_DAMAGED);

  00025	6a 1d		 push	 29			; 0000001dH
  00027	51		 push	 ecx
  00028	f3 0f 10 05 00
	00 00 00	 movss	 xmm0, DWORD PTR __real@3f800000
  00030	f3 0f 11 04 24	 movss	 DWORD PTR [esp], xmm0
  00035	6a 04		 push	 4
  00037	51		 push	 ecx
  00038	f3 0f 10 05 00
	00 00 00	 movss	 xmm0, DWORD PTR __real@3f800000
  00040	f3 0f 11 04 24	 movss	 DWORD PTR [esp], xmm0
  00045	51		 push	 ecx
  00046	f3 0f 10 05 00
	00 00 00	 movss	 xmm0, DWORD PTR __real@3f000000
  0004e	f3 0f 11 04 24	 movss	 DWORD PTR [esp], xmm0
  00053	a1 00 00 00 00	 mov	 eax, DWORD PTR ?gunship_entity@@3PAUENTITY@@A ; gunship_entity
  00058	50		 push	 eax
  00059	e8 00 00 00 00	 call	 ?play_client_server_cpg_message@@YGHPAUENTITY@@MMHMH@Z ; play_client_server_cpg_message
$LN3@toggle_nig:

; 476  : 	}
; 477  : }

  0005e	5f		 pop	 edi
  0005f	5e		 pop	 esi
  00060	5b		 pop	 ebx
  00061	8b e5		 mov	 esp, ebp
  00063	5d		 pop	 ebp
  00064	c2 04 00	 ret	 4
?toggle_night_vision_system_event@@YGXPAUEVENT@@@Z ENDP	; toggle_night_vision_system_event
_TEXT	ENDS
; Function compile flags: /Odtp /ZI
; File c:\users\nhv90\projects\eech\aphavoc\source\gunships\avionics\hind\hi_avevn.c
;	COMDAT ?acknowledge_master_caution_event@@YGXPAUEVENT@@@Z
_TEXT	SEGMENT
_ev$ = 8						; size = 4
?acknowledge_master_caution_event@@YGXPAUEVENT@@@Z PROC	; acknowledge_master_caution_event, COMDAT

; 459  : {

  00000	55		 push	 ebp
  00001	8b ec		 mov	 ebp, esp
  00003	83 ec 40	 sub	 esp, 64			; 00000040H
  00006	53		 push	 ebx
  00007	56		 push	 esi
  00008	57		 push	 edi

; 460  : 	deactivate_hind_master_caution_lamp ();

  00009	e8 00 00 00 00	 call	 ?deactivate_hind_master_caution_lamp@@YGXXZ ; deactivate_hind_master_caution_lamp

; 461  : }

  0000e	5f		 pop	 edi
  0000f	5e		 pop	 esi
  00010	5b		 pop	 ebx
  00011	8b e5		 mov	 esp, ebp
  00013	5d		 pop	 ebp
  00014	c2 04 00	 ret	 4
?acknowledge_master_caution_event@@YGXPAUEVENT@@@Z ENDP	; acknowledge_master_caution_event
_TEXT	ENDS
; Function compile flags: /Odtp /ZI
; File c:\users\nhv90\projects\eech\aphavoc\source\gunships\avionics\hind\hi_avevn.c
;	COMDAT ?toggle_ground_stabilisation_event@@YGXPAUEVENT@@@Z
_TEXT	SEGMENT
_ev$ = 8						; size = 4
?toggle_ground_stabilisation_event@@YGXPAUEVENT@@@Z PROC ; toggle_ground_stabilisation_event, COMDAT

; 450  : {

  00000	55		 push	 ebp
  00001	8b ec		 mov	 ebp, esp
  00003	83 ec 40	 sub	 esp, 64			; 00000040H
  00006	53		 push	 ebx
  00007	56		 push	 esi
  00008	57		 push	 edi

; 451  : 	toggle_ground_stabilisation_key++;

  00009	a1 00 00 00 00	 mov	 eax, DWORD PTR ?toggle_ground_stabilisation_key@@3HA ; toggle_ground_stabilisation_key
  0000e	83 c0 01	 add	 eax, 1
  00011	a3 00 00 00 00	 mov	 DWORD PTR ?toggle_ground_stabilisation_key@@3HA, eax ; toggle_ground_stabilisation_key

; 452  : }

  00016	5f		 pop	 edi
  00017	5e		 pop	 esi
  00018	5b		 pop	 ebx
  00019	8b e5		 mov	 esp, ebp
  0001b	5d		 pop	 ebp
  0001c	c2 04 00	 ret	 4
?toggle_ground_stabilisation_event@@YGXPAUEVENT@@@Z ENDP ; toggle_ground_stabilisation_event
_TEXT	ENDS
; Function compile flags: /Odtp /ZI
; File c:\users\nhv90\projects\eech\aphavoc\source\gunships\avionics\hind\hi_avevn.c
;	COMDAT ?toggle_lock_target_event@@YGXPAUEVENT@@@Z
_TEXT	SEGMENT
_ev$ = 8						; size = 4
?toggle_lock_target_event@@YGXPAUEVENT@@@Z PROC		; toggle_lock_target_event, COMDAT

; 423  : {

  00000	55		 push	 ebp
  00001	8b ec		 mov	 ebp, esp
  00003	83 ec 40	 sub	 esp, 64			; 00000040H
  00006	53		 push	 ebx
  00007	56		 push	 esi
  00008	57		 push	 edi

; 424  : 	toggle_hind_lock_target ();

  00009	e8 00 00 00 00	 call	 ?toggle_hind_lock_target@@YGXXZ ; toggle_hind_lock_target

; 425  : }

  0000e	5f		 pop	 edi
  0000f	5e		 pop	 esi
  00010	5b		 pop	 ebx
  00011	8b e5		 mov	 esp, ebp
  00013	5d		 pop	 ebp
  00014	c2 04 00	 ret	 4
?toggle_lock_target_event@@YGXPAUEVENT@@@Z ENDP		; toggle_lock_target_event
_TEXT	ENDS
; Function compile flags: /Odtp /ZI
; File c:\users\nhv90\projects\eech\aphavoc\source\gunships\avionics\hind\hi_avevn.c
;	COMDAT ?toggle_auto_target_event@@YGXPAUEVENT@@@Z
_TEXT	SEGMENT
_ev$ = 8						; size = 4
?toggle_auto_target_event@@YGXPAUEVENT@@@Z PROC		; toggle_auto_target_event, COMDAT

; 414  : {

  00000	55		 push	 ebp
  00001	8b ec		 mov	 ebp, esp
  00003	83 ec 40	 sub	 esp, 64			; 00000040H
  00006	53		 push	 ebx
  00007	56		 push	 esi
  00008	57		 push	 edi

; 415  : 	toggle_hind_auto_target ();

  00009	e8 00 00 00 00	 call	 ?toggle_hind_auto_target@@YGXXZ ; toggle_hind_auto_target

; 416  : }

  0000e	5f		 pop	 edi
  0000f	5e		 pop	 esi
  00010	5b		 pop	 ebx
  00011	8b e5		 mov	 esp, ebp
  00013	5d		 pop	 ebp
  00014	c2 04 00	 ret	 4
?toggle_auto_target_event@@YGXPAUEVENT@@@Z ENDP		; toggle_auto_target_event
_TEXT	ENDS
; Function compile flags: /Odtp /ZI
; File c:\users\nhv90\projects\eech\aphavoc\source\gunships\avionics\hind\hi_avevn.c
;	COMDAT ?select_previous_target_event@@YGXPAUEVENT@@@Z
_TEXT	SEGMENT
_ev$ = 8						; size = 4
?select_previous_target_event@@YGXPAUEVENT@@@Z PROC	; select_previous_target_event, COMDAT

; 405  : {

  00000	55		 push	 ebp
  00001	8b ec		 mov	 ebp, esp
  00003	83 ec 40	 sub	 esp, 64			; 00000040H
  00006	53		 push	 ebx
  00007	56		 push	 esi
  00008	57		 push	 edi

; 406  : 	single_target_acquisition_system_select_previous_target_key++;

  00009	a1 00 00 00 00	 mov	 eax, DWORD PTR ?single_target_acquisition_system_select_previous_target_key@@3HA ; single_target_acquisition_system_select_previous_target_key
  0000e	83 c0 01	 add	 eax, 1
  00011	a3 00 00 00 00	 mov	 DWORD PTR ?single_target_acquisition_system_select_previous_target_key@@3HA, eax ; single_target_acquisition_system_select_previous_target_key

; 407  : }

  00016	5f		 pop	 edi
  00017	5e		 pop	 esi
  00018	5b		 pop	 ebx
  00019	8b e5		 mov	 esp, ebp
  0001b	5d		 pop	 ebp
  0001c	c2 04 00	 ret	 4
?select_previous_target_event@@YGXPAUEVENT@@@Z ENDP	; select_previous_target_event
_TEXT	ENDS
; Function compile flags: /Odtp /ZI
; File c:\users\nhv90\projects\eech\aphavoc\source\gunships\avionics\hind\hi_avevn.c
;	COMDAT ?select_next_target_event@@YGXPAUEVENT@@@Z
_TEXT	SEGMENT
_ev$ = 8						; size = 4
?select_next_target_event@@YGXPAUEVENT@@@Z PROC		; select_next_target_event, COMDAT

; 396  : {

  00000	55		 push	 ebp
  00001	8b ec		 mov	 ebp, esp
  00003	83 ec 40	 sub	 esp, 64			; 00000040H
  00006	53		 push	 ebx
  00007	56		 push	 esi
  00008	57		 push	 edi

; 397  : 	single_target_acquisition_system_select_next_target_key++;

  00009	a1 00 00 00 00	 mov	 eax, DWORD PTR ?single_target_acquisition_system_select_next_target_key@@3HA ; single_target_acquisition_system_select_next_target_key
  0000e	83 c0 01	 add	 eax, 1
  00011	a3 00 00 00 00	 mov	 DWORD PTR ?single_target_acquisition_system_select_next_target_key@@3HA, eax ; single_target_acquisition_system_select_next_target_key

; 398  : }

  00016	5f		 pop	 edi
  00017	5e		 pop	 esi
  00018	5b		 pop	 ebx
  00019	8b e5		 mov	 esp, ebp
  0001b	5d		 pop	 ebp
  0001c	c2 04 00	 ret	 4
?select_next_target_event@@YGXPAUEVENT@@@Z ENDP		; select_next_target_event
_TEXT	ENDS
; Function compile flags: /Odtp /ZI
; File c:\users\nhv90\projects\eech\aphavoc\source\gunships\avionics\hind\hi_avevn.c
;	COMDAT ?steer_centre_event@@YGXPAUEVENT@@@Z
_TEXT	SEGMENT
_ev$ = 8						; size = 4
?steer_centre_event@@YGXPAUEVENT@@@Z PROC		; steer_centre_event, COMDAT

; 387  : {

  00000	55		 push	 ebp
  00001	8b ec		 mov	 ebp, esp
  00003	83 ec 40	 sub	 esp, 64			; 00000040H
  00006	53		 push	 ebx
  00007	56		 push	 esi
  00008	57		 push	 edi

; 388  : 	centre_hind_target_acquisition_system ();

  00009	e8 00 00 00 00	 call	 ?centre_hind_target_acquisition_system@@YGXXZ ; centre_hind_target_acquisition_system

; 389  : }

  0000e	5f		 pop	 edi
  0000f	5e		 pop	 esi
  00010	5b		 pop	 ebx
  00011	8b e5		 mov	 esp, ebp
  00013	5d		 pop	 ebp
  00014	c2 04 00	 ret	 4
?steer_centre_event@@YGXPAUEVENT@@@Z ENDP		; steer_centre_event
_TEXT	ENDS
; Function compile flags: /Odtp /ZI
; File c:\users\nhv90\projects\eech\aphavoc\source\gunships\avionics\hind\hi_avevn.c
;	COMDAT ?dec_range_fast_event@@YGXPAUEVENT@@@Z
_TEXT	SEGMENT
_ev$ = 8						; size = 4
?dec_range_fast_event@@YGXPAUEVENT@@@Z PROC		; dec_range_fast_event, COMDAT

; 378  : {

  00000	55		 push	 ebp
  00001	8b ec		 mov	 ebp, esp
  00003	83 ec 40	 sub	 esp, 64			; 00000040H
  00006	53		 push	 ebx
  00007	56		 push	 esi
  00008	57		 push	 edi

; 379  : 	single_target_acquisition_system_dec_range_fast_key++;

  00009	a1 00 00 00 00	 mov	 eax, DWORD PTR ?single_target_acquisition_system_dec_range_fast_key@@3HA ; single_target_acquisition_system_dec_range_fast_key
  0000e	83 c0 01	 add	 eax, 1
  00011	a3 00 00 00 00	 mov	 DWORD PTR ?single_target_acquisition_system_dec_range_fast_key@@3HA, eax ; single_target_acquisition_system_dec_range_fast_key

; 380  : }

  00016	5f		 pop	 edi
  00017	5e		 pop	 esi
  00018	5b		 pop	 ebx
  00019	8b e5		 mov	 esp, ebp
  0001b	5d		 pop	 ebp
  0001c	c2 04 00	 ret	 4
?dec_range_fast_event@@YGXPAUEVENT@@@Z ENDP		; dec_range_fast_event
_TEXT	ENDS
; Function compile flags: /Odtp /ZI
; File c:\users\nhv90\projects\eech\aphavoc\source\gunships\avionics\hind\hi_avevn.c
;	COMDAT ?dec_range_event@@YGXPAUEVENT@@@Z
_TEXT	SEGMENT
_ev$ = 8						; size = 4
?dec_range_event@@YGXPAUEVENT@@@Z PROC			; dec_range_event, COMDAT

; 369  : {

  00000	55		 push	 ebp
  00001	8b ec		 mov	 ebp, esp
  00003	83 ec 40	 sub	 esp, 64			; 00000040H
  00006	53		 push	 ebx
  00007	56		 push	 esi
  00008	57		 push	 edi

; 370  : 	single_target_acquisition_system_dec_range_key++;

  00009	a1 00 00 00 00	 mov	 eax, DWORD PTR ?single_target_acquisition_system_dec_range_key@@3HA ; single_target_acquisition_system_dec_range_key
  0000e	83 c0 01	 add	 eax, 1
  00011	a3 00 00 00 00	 mov	 DWORD PTR ?single_target_acquisition_system_dec_range_key@@3HA, eax ; single_target_acquisition_system_dec_range_key

; 371  : }

  00016	5f		 pop	 edi
  00017	5e		 pop	 esi
  00018	5b		 pop	 ebx
  00019	8b e5		 mov	 esp, ebp
  0001b	5d		 pop	 ebp
  0001c	c2 04 00	 ret	 4
?dec_range_event@@YGXPAUEVENT@@@Z ENDP			; dec_range_event
_TEXT	ENDS
; Function compile flags: /Odtp /ZI
; File c:\users\nhv90\projects\eech\aphavoc\source\gunships\avionics\hind\hi_avevn.c
;	COMDAT ?inc_range_fast_event@@YGXPAUEVENT@@@Z
_TEXT	SEGMENT
_ev$ = 8						; size = 4
?inc_range_fast_event@@YGXPAUEVENT@@@Z PROC		; inc_range_fast_event, COMDAT

; 360  : {

  00000	55		 push	 ebp
  00001	8b ec		 mov	 ebp, esp
  00003	83 ec 40	 sub	 esp, 64			; 00000040H
  00006	53		 push	 ebx
  00007	56		 push	 esi
  00008	57		 push	 edi

; 361  : 	single_target_acquisition_system_inc_range_fast_key++;

  00009	a1 00 00 00 00	 mov	 eax, DWORD PTR ?single_target_acquisition_system_inc_range_fast_key@@3HA ; single_target_acquisition_system_inc_range_fast_key
  0000e	83 c0 01	 add	 eax, 1
  00011	a3 00 00 00 00	 mov	 DWORD PTR ?single_target_acquisition_system_inc_range_fast_key@@3HA, eax ; single_target_acquisition_system_inc_range_fast_key

; 362  : }

  00016	5f		 pop	 edi
  00017	5e		 pop	 esi
  00018	5b		 pop	 ebx
  00019	8b e5		 mov	 esp, ebp
  0001b	5d		 pop	 ebp
  0001c	c2 04 00	 ret	 4
?inc_range_fast_event@@YGXPAUEVENT@@@Z ENDP		; inc_range_fast_event
_TEXT	ENDS
; Function compile flags: /Odtp /ZI
; File c:\users\nhv90\projects\eech\aphavoc\source\gunships\avionics\hind\hi_avevn.c
;	COMDAT ?inc_range_event@@YGXPAUEVENT@@@Z
_TEXT	SEGMENT
_ev$ = 8						; size = 4
?inc_range_event@@YGXPAUEVENT@@@Z PROC			; inc_range_event, COMDAT

; 351  : {

  00000	55		 push	 ebp
  00001	8b ec		 mov	 ebp, esp
  00003	83 ec 40	 sub	 esp, 64			; 00000040H
  00006	53		 push	 ebx
  00007	56		 push	 esi
  00008	57		 push	 edi

; 352  : 	single_target_acquisition_system_inc_range_key++;

  00009	a1 00 00 00 00	 mov	 eax, DWORD PTR ?single_target_acquisition_system_inc_range_key@@3HA ; single_target_acquisition_system_inc_range_key
  0000e	83 c0 01	 add	 eax, 1
  00011	a3 00 00 00 00	 mov	 DWORD PTR ?single_target_acquisition_system_inc_range_key@@3HA, eax ; single_target_acquisition_system_inc_range_key

; 353  : }

  00016	5f		 pop	 edi
  00017	5e		 pop	 esi
  00018	5b		 pop	 ebx
  00019	8b e5		 mov	 esp, ebp
  0001b	5d		 pop	 ebp
  0001c	c2 04 00	 ret	 4
?inc_range_event@@YGXPAUEVENT@@@Z ENDP			; inc_range_event
_TEXT	ENDS
; Function compile flags: /Odtp /ZI
; File c:\users\nhv90\projects\eech\aphavoc\source\gunships\avionics\hind\hi_avevn.c
;	COMDAT ?steer_down_fine_event@@YGXPAUEVENT@@@Z
_TEXT	SEGMENT
_ev$ = 8						; size = 4
?steer_down_fine_event@@YGXPAUEVENT@@@Z PROC		; steer_down_fine_event, COMDAT

; 335  : {

  00000	55		 push	 ebp
  00001	8b ec		 mov	 ebp, esp
  00003	83 ec 40	 sub	 esp, 64			; 00000040H
  00006	53		 push	 ebx
  00007	56		 push	 esi
  00008	57		 push	 edi

; 336  : 	if (ev->state == KEY_STATE_DOWN)

  00009	8b 45 08	 mov	 eax, DWORD PTR _ev$[ebp]
  0000c	0f b7 48 08	 movzx	 ecx, WORD PTR [eax+8]
  00010	83 f9 02	 cmp	 ecx, 2
  00013	75 0c		 jne	 SHORT $LN2@steer_down

; 337  : 	{
; 338  : 		continuous_target_acquisition_system_steer_down_fine_key = TRUE;

  00015	c7 05 00 00 00
	00 01 00 00 00	 mov	 DWORD PTR ?continuous_target_acquisition_system_steer_down_fine_key@@3HA, 1 ; continuous_target_acquisition_system_steer_down_fine_key

; 339  : 	}
; 340  : 	else

  0001f	eb 0a		 jmp	 SHORT $LN1@steer_down
$LN2@steer_down:

; 341  : 	{
; 342  : 		continuous_target_acquisition_system_steer_down_fine_key = FALSE;

  00021	c7 05 00 00 00
	00 00 00 00 00	 mov	 DWORD PTR ?continuous_target_acquisition_system_steer_down_fine_key@@3HA, 0 ; continuous_target_acquisition_system_steer_down_fine_key
$LN1@steer_down:

; 343  : 	}
; 344  : }

  0002b	5f		 pop	 edi
  0002c	5e		 pop	 esi
  0002d	5b		 pop	 ebx
  0002e	8b e5		 mov	 esp, ebp
  00030	5d		 pop	 ebp
  00031	c2 04 00	 ret	 4
?steer_down_fine_event@@YGXPAUEVENT@@@Z ENDP		; steer_down_fine_event
_TEXT	ENDS
; Function compile flags: /Odtp /ZI
; File c:\users\nhv90\projects\eech\aphavoc\source\gunships\avionics\hind\hi_avevn.c
;	COMDAT ?steer_down_fast_event@@YGXPAUEVENT@@@Z
_TEXT	SEGMENT
_ev$ = 8						; size = 4
?steer_down_fast_event@@YGXPAUEVENT@@@Z PROC		; steer_down_fast_event, COMDAT

; 317  : {

  00000	55		 push	 ebp
  00001	8b ec		 mov	 ebp, esp
  00003	83 ec 40	 sub	 esp, 64			; 00000040H
  00006	53		 push	 ebx
  00007	56		 push	 esi
  00008	57		 push	 edi

; 318  : 	if (ev->state == KEY_STATE_DOWN)

  00009	8b 45 08	 mov	 eax, DWORD PTR _ev$[ebp]
  0000c	0f b7 48 08	 movzx	 ecx, WORD PTR [eax+8]
  00010	83 f9 02	 cmp	 ecx, 2
  00013	75 19		 jne	 SHORT $LN2@steer_down

; 319  : 	{
; 320  : 		continuous_target_acquisition_system_steer_down_fast_key = TRUE;

  00015	c7 05 00 00 00
	00 01 00 00 00	 mov	 DWORD PTR ?continuous_target_acquisition_system_steer_down_fast_key@@3HA, 1 ; continuous_target_acquisition_system_steer_down_fast_key

; 321  : 
; 322  : 		single_target_acquisition_system_steer_down_fast_key++;

  0001f	a1 00 00 00 00	 mov	 eax, DWORD PTR ?single_target_acquisition_system_steer_down_fast_key@@3HA ; single_target_acquisition_system_steer_down_fast_key
  00024	83 c0 01	 add	 eax, 1
  00027	a3 00 00 00 00	 mov	 DWORD PTR ?single_target_acquisition_system_steer_down_fast_key@@3HA, eax ; single_target_acquisition_system_steer_down_fast_key

; 323  : 	}
; 324  : 	else

  0002c	eb 0a		 jmp	 SHORT $LN1@steer_down
$LN2@steer_down:

; 325  : 	{
; 326  : 		continuous_target_acquisition_system_steer_down_fast_key = FALSE;

  0002e	c7 05 00 00 00
	00 00 00 00 00	 mov	 DWORD PTR ?continuous_target_acquisition_system_steer_down_fast_key@@3HA, 0 ; continuous_target_acquisition_system_steer_down_fast_key
$LN1@steer_down:

; 327  : 	}
; 328  : }

  00038	5f		 pop	 edi
  00039	5e		 pop	 esi
  0003a	5b		 pop	 ebx
  0003b	8b e5		 mov	 esp, ebp
  0003d	5d		 pop	 ebp
  0003e	c2 04 00	 ret	 4
?steer_down_fast_event@@YGXPAUEVENT@@@Z ENDP		; steer_down_fast_event
_TEXT	ENDS
; Function compile flags: /Odtp /ZI
; File c:\users\nhv90\projects\eech\aphavoc\source\gunships\avionics\hind\hi_avevn.c
;	COMDAT ?steer_down_event@@YGXPAUEVENT@@@Z
_TEXT	SEGMENT
_ev$ = 8						; size = 4
?steer_down_event@@YGXPAUEVENT@@@Z PROC			; steer_down_event, COMDAT

; 299  : {

  00000	55		 push	 ebp
  00001	8b ec		 mov	 ebp, esp
  00003	83 ec 40	 sub	 esp, 64			; 00000040H
  00006	53		 push	 ebx
  00007	56		 push	 esi
  00008	57		 push	 edi

; 300  : 	if (ev->state == KEY_STATE_DOWN)

  00009	8b 45 08	 mov	 eax, DWORD PTR _ev$[ebp]
  0000c	0f b7 48 08	 movzx	 ecx, WORD PTR [eax+8]
  00010	83 f9 02	 cmp	 ecx, 2
  00013	75 19		 jne	 SHORT $LN2@steer_down

; 301  : 	{
; 302  : 		continuous_target_acquisition_system_steer_down_key = TRUE;

  00015	c7 05 00 00 00
	00 01 00 00 00	 mov	 DWORD PTR ?continuous_target_acquisition_system_steer_down_key@@3HA, 1 ; continuous_target_acquisition_system_steer_down_key

; 303  : 
; 304  : 		single_target_acquisition_system_steer_down_key++;

  0001f	a1 00 00 00 00	 mov	 eax, DWORD PTR ?single_target_acquisition_system_steer_down_key@@3HA ; single_target_acquisition_system_steer_down_key
  00024	83 c0 01	 add	 eax, 1
  00027	a3 00 00 00 00	 mov	 DWORD PTR ?single_target_acquisition_system_steer_down_key@@3HA, eax ; single_target_acquisition_system_steer_down_key

; 305  : 	}
; 306  : 	else

  0002c	eb 0a		 jmp	 SHORT $LN1@steer_down
$LN2@steer_down:

; 307  : 	{
; 308  : 		continuous_target_acquisition_system_steer_down_key = FALSE;

  0002e	c7 05 00 00 00
	00 00 00 00 00	 mov	 DWORD PTR ?continuous_target_acquisition_system_steer_down_key@@3HA, 0 ; continuous_target_acquisition_system_steer_down_key
$LN1@steer_down:

; 309  : 	}
; 310  : }

  00038	5f		 pop	 edi
  00039	5e		 pop	 esi
  0003a	5b		 pop	 ebx
  0003b	8b e5		 mov	 esp, ebp
  0003d	5d		 pop	 ebp
  0003e	c2 04 00	 ret	 4
?steer_down_event@@YGXPAUEVENT@@@Z ENDP			; steer_down_event
_TEXT	ENDS
; Function compile flags: /Odtp /ZI
; File c:\users\nhv90\projects\eech\aphavoc\source\gunships\avionics\hind\hi_avevn.c
;	COMDAT ?steer_up_fine_event@@YGXPAUEVENT@@@Z
_TEXT	SEGMENT
_ev$ = 8						; size = 4
?steer_up_fine_event@@YGXPAUEVENT@@@Z PROC		; steer_up_fine_event, COMDAT

; 283  : {

  00000	55		 push	 ebp
  00001	8b ec		 mov	 ebp, esp
  00003	83 ec 40	 sub	 esp, 64			; 00000040H
  00006	53		 push	 ebx
  00007	56		 push	 esi
  00008	57		 push	 edi

; 284  : 	if (ev->state == KEY_STATE_DOWN)

  00009	8b 45 08	 mov	 eax, DWORD PTR _ev$[ebp]
  0000c	0f b7 48 08	 movzx	 ecx, WORD PTR [eax+8]
  00010	83 f9 02	 cmp	 ecx, 2
  00013	75 0c		 jne	 SHORT $LN2@steer_up_f

; 285  : 	{
; 286  : 		continuous_target_acquisition_system_steer_up_fine_key = TRUE;

  00015	c7 05 00 00 00
	00 01 00 00 00	 mov	 DWORD PTR ?continuous_target_acquisition_system_steer_up_fine_key@@3HA, 1 ; continuous_target_acquisition_system_steer_up_fine_key

; 287  : 	}
; 288  : 	else

  0001f	eb 0a		 jmp	 SHORT $LN1@steer_up_f
$LN2@steer_up_f:

; 289  : 	{
; 290  : 		continuous_target_acquisition_system_steer_up_fine_key = FALSE;

  00021	c7 05 00 00 00
	00 00 00 00 00	 mov	 DWORD PTR ?continuous_target_acquisition_system_steer_up_fine_key@@3HA, 0 ; continuous_target_acquisition_system_steer_up_fine_key
$LN1@steer_up_f:

; 291  : 	}
; 292  : }

  0002b	5f		 pop	 edi
  0002c	5e		 pop	 esi
  0002d	5b		 pop	 ebx
  0002e	8b e5		 mov	 esp, ebp
  00030	5d		 pop	 ebp
  00031	c2 04 00	 ret	 4
?steer_up_fine_event@@YGXPAUEVENT@@@Z ENDP		; steer_up_fine_event
_TEXT	ENDS
; Function compile flags: /Odtp /ZI
; File c:\users\nhv90\projects\eech\aphavoc\source\gunships\avionics\hind\hi_avevn.c
;	COMDAT ?steer_up_fast_event@@YGXPAUEVENT@@@Z
_TEXT	SEGMENT
_ev$ = 8						; size = 4
?steer_up_fast_event@@YGXPAUEVENT@@@Z PROC		; steer_up_fast_event, COMDAT

; 265  : {

  00000	55		 push	 ebp
  00001	8b ec		 mov	 ebp, esp
  00003	83 ec 40	 sub	 esp, 64			; 00000040H
  00006	53		 push	 ebx
  00007	56		 push	 esi
  00008	57		 push	 edi

; 266  : 	if (ev->state == KEY_STATE_DOWN)

  00009	8b 45 08	 mov	 eax, DWORD PTR _ev$[ebp]
  0000c	0f b7 48 08	 movzx	 ecx, WORD PTR [eax+8]
  00010	83 f9 02	 cmp	 ecx, 2
  00013	75 19		 jne	 SHORT $LN2@steer_up_f

; 267  : 	{
; 268  : 		continuous_target_acquisition_system_steer_up_fast_key = TRUE;

  00015	c7 05 00 00 00
	00 01 00 00 00	 mov	 DWORD PTR ?continuous_target_acquisition_system_steer_up_fast_key@@3HA, 1 ; continuous_target_acquisition_system_steer_up_fast_key

; 269  : 
; 270  : 		single_target_acquisition_system_steer_up_fast_key++;

  0001f	a1 00 00 00 00	 mov	 eax, DWORD PTR ?single_target_acquisition_system_steer_up_fast_key@@3HA ; single_target_acquisition_system_steer_up_fast_key
  00024	83 c0 01	 add	 eax, 1
  00027	a3 00 00 00 00	 mov	 DWORD PTR ?single_target_acquisition_system_steer_up_fast_key@@3HA, eax ; single_target_acquisition_system_steer_up_fast_key

; 271  : 	}
; 272  : 	else

  0002c	eb 0a		 jmp	 SHORT $LN1@steer_up_f
$LN2@steer_up_f:

; 273  : 	{
; 274  : 		continuous_target_acquisition_system_steer_up_fast_key = FALSE;

  0002e	c7 05 00 00 00
	00 00 00 00 00	 mov	 DWORD PTR ?continuous_target_acquisition_system_steer_up_fast_key@@3HA, 0 ; continuous_target_acquisition_system_steer_up_fast_key
$LN1@steer_up_f:

; 275  : 	}
; 276  : }

  00038	5f		 pop	 edi
  00039	5e		 pop	 esi
  0003a	5b		 pop	 ebx
  0003b	8b e5		 mov	 esp, ebp
  0003d	5d		 pop	 ebp
  0003e	c2 04 00	 ret	 4
?steer_up_fast_event@@YGXPAUEVENT@@@Z ENDP		; steer_up_fast_event
_TEXT	ENDS
; Function compile flags: /Odtp /ZI
; File c:\users\nhv90\projects\eech\aphavoc\source\gunships\avionics\hind\hi_avevn.c
;	COMDAT ?steer_up_event@@YGXPAUEVENT@@@Z
_TEXT	SEGMENT
_ev$ = 8						; size = 4
?steer_up_event@@YGXPAUEVENT@@@Z PROC			; steer_up_event, COMDAT

; 247  : {

  00000	55		 push	 ebp
  00001	8b ec		 mov	 ebp, esp
  00003	83 ec 40	 sub	 esp, 64			; 00000040H
  00006	53		 push	 ebx
  00007	56		 push	 esi
  00008	57		 push	 edi

; 248  : 	if (ev->state == KEY_STATE_DOWN)

  00009	8b 45 08	 mov	 eax, DWORD PTR _ev$[ebp]
  0000c	0f b7 48 08	 movzx	 ecx, WORD PTR [eax+8]
  00010	83 f9 02	 cmp	 ecx, 2
  00013	75 19		 jne	 SHORT $LN2@steer_up_e

; 249  : 	{
; 250  : 		continuous_target_acquisition_system_steer_up_key = TRUE;

  00015	c7 05 00 00 00
	00 01 00 00 00	 mov	 DWORD PTR ?continuous_target_acquisition_system_steer_up_key@@3HA, 1 ; continuous_target_acquisition_system_steer_up_key

; 251  : 
; 252  : 		single_target_acquisition_system_steer_up_key++;

  0001f	a1 00 00 00 00	 mov	 eax, DWORD PTR ?single_target_acquisition_system_steer_up_key@@3HA ; single_target_acquisition_system_steer_up_key
  00024	83 c0 01	 add	 eax, 1
  00027	a3 00 00 00 00	 mov	 DWORD PTR ?single_target_acquisition_system_steer_up_key@@3HA, eax ; single_target_acquisition_system_steer_up_key

; 253  : 	}
; 254  : 	else

  0002c	eb 0a		 jmp	 SHORT $LN1@steer_up_e
$LN2@steer_up_e:

; 255  : 	{
; 256  : 		continuous_target_acquisition_system_steer_up_key = FALSE;

  0002e	c7 05 00 00 00
	00 00 00 00 00	 mov	 DWORD PTR ?continuous_target_acquisition_system_steer_up_key@@3HA, 0 ; continuous_target_acquisition_system_steer_up_key
$LN1@steer_up_e:

; 257  : 	}
; 258  : }

  00038	5f		 pop	 edi
  00039	5e		 pop	 esi
  0003a	5b		 pop	 ebx
  0003b	8b e5		 mov	 esp, ebp
  0003d	5d		 pop	 ebp
  0003e	c2 04 00	 ret	 4
?steer_up_event@@YGXPAUEVENT@@@Z ENDP			; steer_up_event
_TEXT	ENDS
; Function compile flags: /Odtp /ZI
; File c:\users\nhv90\projects\eech\aphavoc\source\gunships\avionics\hind\hi_avevn.c
;	COMDAT ?steer_right_fine_event@@YGXPAUEVENT@@@Z
_TEXT	SEGMENT
_ev$ = 8						; size = 4
?steer_right_fine_event@@YGXPAUEVENT@@@Z PROC		; steer_right_fine_event, COMDAT

; 231  : {

  00000	55		 push	 ebp
  00001	8b ec		 mov	 ebp, esp
  00003	83 ec 40	 sub	 esp, 64			; 00000040H
  00006	53		 push	 ebx
  00007	56		 push	 esi
  00008	57		 push	 edi

; 232  : 	if (ev->state == KEY_STATE_DOWN)

  00009	8b 45 08	 mov	 eax, DWORD PTR _ev$[ebp]
  0000c	0f b7 48 08	 movzx	 ecx, WORD PTR [eax+8]
  00010	83 f9 02	 cmp	 ecx, 2
  00013	75 0c		 jne	 SHORT $LN2@steer_righ

; 233  : 	{
; 234  : 		continuous_target_acquisition_system_steer_right_fine_key = TRUE;

  00015	c7 05 00 00 00
	00 01 00 00 00	 mov	 DWORD PTR ?continuous_target_acquisition_system_steer_right_fine_key@@3HA, 1 ; continuous_target_acquisition_system_steer_right_fine_key

; 235  : 	}
; 236  : 	else

  0001f	eb 0a		 jmp	 SHORT $LN1@steer_righ
$LN2@steer_righ:

; 237  : 	{
; 238  : 		continuous_target_acquisition_system_steer_right_fine_key = FALSE;

  00021	c7 05 00 00 00
	00 00 00 00 00	 mov	 DWORD PTR ?continuous_target_acquisition_system_steer_right_fine_key@@3HA, 0 ; continuous_target_acquisition_system_steer_right_fine_key
$LN1@steer_righ:

; 239  : 	}
; 240  : }

  0002b	5f		 pop	 edi
  0002c	5e		 pop	 esi
  0002d	5b		 pop	 ebx
  0002e	8b e5		 mov	 esp, ebp
  00030	5d		 pop	 ebp
  00031	c2 04 00	 ret	 4
?steer_right_fine_event@@YGXPAUEVENT@@@Z ENDP		; steer_right_fine_event
_TEXT	ENDS
; Function compile flags: /Odtp /ZI
; File c:\users\nhv90\projects\eech\aphavoc\source\gunships\avionics\hind\hi_avevn.c
;	COMDAT ?steer_right_fast_event@@YGXPAUEVENT@@@Z
_TEXT	SEGMENT
_ev$ = 8						; size = 4
?steer_right_fast_event@@YGXPAUEVENT@@@Z PROC		; steer_right_fast_event, COMDAT

; 213  : {

  00000	55		 push	 ebp
  00001	8b ec		 mov	 ebp, esp
  00003	83 ec 40	 sub	 esp, 64			; 00000040H
  00006	53		 push	 ebx
  00007	56		 push	 esi
  00008	57		 push	 edi

; 214  : 	if (ev->state == KEY_STATE_DOWN)

  00009	8b 45 08	 mov	 eax, DWORD PTR _ev$[ebp]
  0000c	0f b7 48 08	 movzx	 ecx, WORD PTR [eax+8]
  00010	83 f9 02	 cmp	 ecx, 2
  00013	75 19		 jne	 SHORT $LN2@steer_righ

; 215  : 	{
; 216  : 		continuous_target_acquisition_system_steer_right_fast_key = TRUE;

  00015	c7 05 00 00 00
	00 01 00 00 00	 mov	 DWORD PTR ?continuous_target_acquisition_system_steer_right_fast_key@@3HA, 1 ; continuous_target_acquisition_system_steer_right_fast_key

; 217  : 
; 218  : 		single_target_acquisition_system_steer_right_fast_key++;

  0001f	a1 00 00 00 00	 mov	 eax, DWORD PTR ?single_target_acquisition_system_steer_right_fast_key@@3HA ; single_target_acquisition_system_steer_right_fast_key
  00024	83 c0 01	 add	 eax, 1
  00027	a3 00 00 00 00	 mov	 DWORD PTR ?single_target_acquisition_system_steer_right_fast_key@@3HA, eax ; single_target_acquisition_system_steer_right_fast_key

; 219  : 	}
; 220  : 	else

  0002c	eb 0a		 jmp	 SHORT $LN1@steer_righ
$LN2@steer_righ:

; 221  : 	{
; 222  : 		continuous_target_acquisition_system_steer_right_fast_key = FALSE;

  0002e	c7 05 00 00 00
	00 00 00 00 00	 mov	 DWORD PTR ?continuous_target_acquisition_system_steer_right_fast_key@@3HA, 0 ; continuous_target_acquisition_system_steer_right_fast_key
$LN1@steer_righ:

; 223  : 	}
; 224  : }

  00038	5f		 pop	 edi
  00039	5e		 pop	 esi
  0003a	5b		 pop	 ebx
  0003b	8b e5		 mov	 esp, ebp
  0003d	5d		 pop	 ebp
  0003e	c2 04 00	 ret	 4
?steer_right_fast_event@@YGXPAUEVENT@@@Z ENDP		; steer_right_fast_event
_TEXT	ENDS
; Function compile flags: /Odtp /ZI
; File c:\users\nhv90\projects\eech\aphavoc\source\gunships\avionics\hind\hi_avevn.c
;	COMDAT ?steer_right_event@@YGXPAUEVENT@@@Z
_TEXT	SEGMENT
_ev$ = 8						; size = 4
?steer_right_event@@YGXPAUEVENT@@@Z PROC		; steer_right_event, COMDAT

; 195  : {

  00000	55		 push	 ebp
  00001	8b ec		 mov	 ebp, esp
  00003	83 ec 40	 sub	 esp, 64			; 00000040H
  00006	53		 push	 ebx
  00007	56		 push	 esi
  00008	57		 push	 edi

; 196  : 	if (ev->state == KEY_STATE_DOWN)

  00009	8b 45 08	 mov	 eax, DWORD PTR _ev$[ebp]
  0000c	0f b7 48 08	 movzx	 ecx, WORD PTR [eax+8]
  00010	83 f9 02	 cmp	 ecx, 2
  00013	75 19		 jne	 SHORT $LN2@steer_righ

; 197  : 	{
; 198  : 		continuous_target_acquisition_system_steer_right_key = TRUE;

  00015	c7 05 00 00 00
	00 01 00 00 00	 mov	 DWORD PTR ?continuous_target_acquisition_system_steer_right_key@@3HA, 1 ; continuous_target_acquisition_system_steer_right_key

; 199  : 
; 200  : 		single_target_acquisition_system_steer_right_key++;

  0001f	a1 00 00 00 00	 mov	 eax, DWORD PTR ?single_target_acquisition_system_steer_right_key@@3HA ; single_target_acquisition_system_steer_right_key
  00024	83 c0 01	 add	 eax, 1
  00027	a3 00 00 00 00	 mov	 DWORD PTR ?single_target_acquisition_system_steer_right_key@@3HA, eax ; single_target_acquisition_system_steer_right_key

; 201  : 	}
; 202  : 	else

  0002c	eb 0a		 jmp	 SHORT $LN1@steer_righ
$LN2@steer_righ:

; 203  : 	{
; 204  : 		continuous_target_acquisition_system_steer_right_key = FALSE;

  0002e	c7 05 00 00 00
	00 00 00 00 00	 mov	 DWORD PTR ?continuous_target_acquisition_system_steer_right_key@@3HA, 0 ; continuous_target_acquisition_system_steer_right_key
$LN1@steer_righ:

; 205  : 	}
; 206  : }

  00038	5f		 pop	 edi
  00039	5e		 pop	 esi
  0003a	5b		 pop	 ebx
  0003b	8b e5		 mov	 esp, ebp
  0003d	5d		 pop	 ebp
  0003e	c2 04 00	 ret	 4
?steer_right_event@@YGXPAUEVENT@@@Z ENDP		; steer_right_event
_TEXT	ENDS
; Function compile flags: /Odtp /ZI
; File c:\users\nhv90\projects\eech\aphavoc\source\gunships\avionics\hind\hi_avevn.c
;	COMDAT ?steer_left_fine_event@@YGXPAUEVENT@@@Z
_TEXT	SEGMENT
_ev$ = 8						; size = 4
?steer_left_fine_event@@YGXPAUEVENT@@@Z PROC		; steer_left_fine_event, COMDAT

; 179  : {

  00000	55		 push	 ebp
  00001	8b ec		 mov	 ebp, esp
  00003	83 ec 40	 sub	 esp, 64			; 00000040H
  00006	53		 push	 ebx
  00007	56		 push	 esi
  00008	57		 push	 edi

; 180  : 	if (ev->state == KEY_STATE_DOWN)

  00009	8b 45 08	 mov	 eax, DWORD PTR _ev$[ebp]
  0000c	0f b7 48 08	 movzx	 ecx, WORD PTR [eax+8]
  00010	83 f9 02	 cmp	 ecx, 2
  00013	75 0c		 jne	 SHORT $LN2@steer_left

; 181  : 	{
; 182  : 		continuous_target_acquisition_system_steer_left_fine_key = TRUE;

  00015	c7 05 00 00 00
	00 01 00 00 00	 mov	 DWORD PTR ?continuous_target_acquisition_system_steer_left_fine_key@@3HA, 1 ; continuous_target_acquisition_system_steer_left_fine_key

; 183  : 	}
; 184  : 	else

  0001f	eb 0a		 jmp	 SHORT $LN1@steer_left
$LN2@steer_left:

; 185  : 	{
; 186  : 		continuous_target_acquisition_system_steer_left_fine_key = FALSE;

  00021	c7 05 00 00 00
	00 00 00 00 00	 mov	 DWORD PTR ?continuous_target_acquisition_system_steer_left_fine_key@@3HA, 0 ; continuous_target_acquisition_system_steer_left_fine_key
$LN1@steer_left:

; 187  : 	}
; 188  : }

  0002b	5f		 pop	 edi
  0002c	5e		 pop	 esi
  0002d	5b		 pop	 ebx
  0002e	8b e5		 mov	 esp, ebp
  00030	5d		 pop	 ebp
  00031	c2 04 00	 ret	 4
?steer_left_fine_event@@YGXPAUEVENT@@@Z ENDP		; steer_left_fine_event
_TEXT	ENDS
; Function compile flags: /Odtp /ZI
; File c:\users\nhv90\projects\eech\aphavoc\source\gunships\avionics\hind\hi_avevn.c
;	COMDAT ?steer_left_fast_event@@YGXPAUEVENT@@@Z
_TEXT	SEGMENT
_ev$ = 8						; size = 4
?steer_left_fast_event@@YGXPAUEVENT@@@Z PROC		; steer_left_fast_event, COMDAT

; 161  : {

  00000	55		 push	 ebp
  00001	8b ec		 mov	 ebp, esp
  00003	83 ec 40	 sub	 esp, 64			; 00000040H
  00006	53		 push	 ebx
  00007	56		 push	 esi
  00008	57		 push	 edi

; 162  : 	if (ev->state == KEY_STATE_DOWN)

  00009	8b 45 08	 mov	 eax, DWORD PTR _ev$[ebp]
  0000c	0f b7 48 08	 movzx	 ecx, WORD PTR [eax+8]
  00010	83 f9 02	 cmp	 ecx, 2
  00013	75 19		 jne	 SHORT $LN2@steer_left

; 163  : 	{
; 164  : 		continuous_target_acquisition_system_steer_left_fast_key = TRUE;

  00015	c7 05 00 00 00
	00 01 00 00 00	 mov	 DWORD PTR ?continuous_target_acquisition_system_steer_left_fast_key@@3HA, 1 ; continuous_target_acquisition_system_steer_left_fast_key

; 165  : 
; 166  : 		single_target_acquisition_system_steer_left_fast_key++;

  0001f	a1 00 00 00 00	 mov	 eax, DWORD PTR ?single_target_acquisition_system_steer_left_fast_key@@3HA ; single_target_acquisition_system_steer_left_fast_key
  00024	83 c0 01	 add	 eax, 1
  00027	a3 00 00 00 00	 mov	 DWORD PTR ?single_target_acquisition_system_steer_left_fast_key@@3HA, eax ; single_target_acquisition_system_steer_left_fast_key

; 167  : 	}
; 168  : 	else

  0002c	eb 0a		 jmp	 SHORT $LN1@steer_left
$LN2@steer_left:

; 169  : 	{
; 170  : 		continuous_target_acquisition_system_steer_left_fast_key = FALSE;

  0002e	c7 05 00 00 00
	00 00 00 00 00	 mov	 DWORD PTR ?continuous_target_acquisition_system_steer_left_fast_key@@3HA, 0 ; continuous_target_acquisition_system_steer_left_fast_key
$LN1@steer_left:

; 171  : 	}
; 172  : }

  00038	5f		 pop	 edi
  00039	5e		 pop	 esi
  0003a	5b		 pop	 ebx
  0003b	8b e5		 mov	 esp, ebp
  0003d	5d		 pop	 ebp
  0003e	c2 04 00	 ret	 4
?steer_left_fast_event@@YGXPAUEVENT@@@Z ENDP		; steer_left_fast_event
_TEXT	ENDS
; Function compile flags: /Odtp /ZI
; File c:\users\nhv90\projects\eech\aphavoc\source\gunships\avionics\hind\hi_avevn.c
;	COMDAT ?steer_left_event@@YGXPAUEVENT@@@Z
_TEXT	SEGMENT
_ev$ = 8						; size = 4
?steer_left_event@@YGXPAUEVENT@@@Z PROC			; steer_left_event, COMDAT

; 143  : {

  00000	55		 push	 ebp
  00001	8b ec		 mov	 ebp, esp
  00003	83 ec 40	 sub	 esp, 64			; 00000040H
  00006	53		 push	 ebx
  00007	56		 push	 esi
  00008	57		 push	 edi

; 144  : 	if (ev->state == KEY_STATE_DOWN)

  00009	8b 45 08	 mov	 eax, DWORD PTR _ev$[ebp]
  0000c	0f b7 48 08	 movzx	 ecx, WORD PTR [eax+8]
  00010	83 f9 02	 cmp	 ecx, 2
  00013	75 19		 jne	 SHORT $LN2@steer_left

; 145  : 	{
; 146  : 		continuous_target_acquisition_system_steer_left_key = TRUE;

  00015	c7 05 00 00 00
	00 01 00 00 00	 mov	 DWORD PTR ?continuous_target_acquisition_system_steer_left_key@@3HA, 1 ; continuous_target_acquisition_system_steer_left_key

; 147  : 
; 148  : 		single_target_acquisition_system_steer_left_key++;

  0001f	a1 00 00 00 00	 mov	 eax, DWORD PTR ?single_target_acquisition_system_steer_left_key@@3HA ; single_target_acquisition_system_steer_left_key
  00024	83 c0 01	 add	 eax, 1
  00027	a3 00 00 00 00	 mov	 DWORD PTR ?single_target_acquisition_system_steer_left_key@@3HA, eax ; single_target_acquisition_system_steer_left_key

; 149  : 	}
; 150  : 	else

  0002c	eb 0a		 jmp	 SHORT $LN1@steer_left
$LN2@steer_left:

; 151  : 	{
; 152  : 		continuous_target_acquisition_system_steer_left_key = FALSE;

  0002e	c7 05 00 00 00
	00 00 00 00 00	 mov	 DWORD PTR ?continuous_target_acquisition_system_steer_left_key@@3HA, 0 ; continuous_target_acquisition_system_steer_left_key
$LN1@steer_left:

; 153  : 	}
; 154  : }

  00038	5f		 pop	 edi
  00039	5e		 pop	 esi
  0003a	5b		 pop	 ebx
  0003b	8b e5		 mov	 esp, ebp
  0003d	5d		 pop	 ebp
  0003e	c2 04 00	 ret	 4
?steer_left_event@@YGXPAUEVENT@@@Z ENDP			; steer_left_event
_TEXT	ENDS
; Function compile flags: /Odtp /ZI
; File c:\users\nhv90\projects\eech\aphavoc\source\gunships\avionics\hind\hi_avevn.c
;	COMDAT ?select_target_acquisition_system_hms_event@@YGXPAUEVENT@@@Z
_TEXT	SEGMENT
_ev$ = 8						; size = 4
?select_target_acquisition_system_hms_event@@YGXPAUEVENT@@@Z PROC ; select_target_acquisition_system_hms_event, COMDAT

; 131  : {

  00000	55		 push	 ebp
  00001	8b ec		 mov	 ebp, esp
  00003	83 ec 40	 sub	 esp, 64			; 00000040H
  00006	53		 push	 ebx
  00007	56		 push	 esi
  00008	57		 push	 edi

; 132  : 	if (!get_global_simple_avionics ())

  00009	83 3d 6c 03 00
	00 00		 cmp	 DWORD PTR ?global_options@@3UGLOBAL_OPTIONS_DATA@@A+876, 0
  00010	75 07		 jne	 SHORT $LN1@select_tar

; 133  : 	{
; 134  : 		select_hind_target_acquisition_system (TARGET_ACQUISITION_SYSTEM_HMS);

  00012	6a 0a		 push	 10			; 0000000aH
  00014	e8 00 00 00 00	 call	 ?select_hind_target_acquisition_system@@YGXW4TARGET_ACQUISITION_SYSTEMS@@@Z ; select_hind_target_acquisition_system
$LN1@select_tar:

; 135  : 	}
; 136  : }

  00019	5f		 pop	 edi
  0001a	5e		 pop	 esi
  0001b	5b		 pop	 ebx
  0001c	8b e5		 mov	 esp, ebp
  0001e	5d		 pop	 ebp
  0001f	c2 04 00	 ret	 4
?select_target_acquisition_system_hms_event@@YGXPAUEVENT@@@Z ENDP ; select_target_acquisition_system_hms_event
_TEXT	ENDS
; Function compile flags: /Odtp /ZI
; File c:\users\nhv90\projects\eech\aphavoc\source\gunships\avionics\hind\hi_avevn.c
;	COMDAT ?select_target_acquisition_system_llltv_event@@YGXPAUEVENT@@@Z
_TEXT	SEGMENT
_ev$ = 8						; size = 4
?select_target_acquisition_system_llltv_event@@YGXPAUEVENT@@@Z PROC ; select_target_acquisition_system_llltv_event, COMDAT

; 119  : {

  00000	55		 push	 ebp
  00001	8b ec		 mov	 ebp, esp
  00003	83 ec 40	 sub	 esp, 64			; 00000040H
  00006	53		 push	 ebx
  00007	56		 push	 esi
  00008	57		 push	 edi

; 120  : 	if (!get_global_simple_avionics ())

  00009	83 3d 6c 03 00
	00 00		 cmp	 DWORD PTR ?global_options@@3UGLOBAL_OPTIONS_DATA@@A+876, 0
  00010	75 07		 jne	 SHORT $LN1@select_tar

; 121  : 	{
; 122  : 		select_hind_target_acquisition_system (TARGET_ACQUISITION_SYSTEM_LLLTV);

  00012	6a 06		 push	 6
  00014	e8 00 00 00 00	 call	 ?select_hind_target_acquisition_system@@YGXW4TARGET_ACQUISITION_SYSTEMS@@@Z ; select_hind_target_acquisition_system
$LN1@select_tar:

; 123  : 	}
; 124  : }

  00019	5f		 pop	 edi
  0001a	5e		 pop	 esi
  0001b	5b		 pop	 ebx
  0001c	8b e5		 mov	 esp, ebp
  0001e	5d		 pop	 ebp
  0001f	c2 04 00	 ret	 4
?select_target_acquisition_system_llltv_event@@YGXPAUEVENT@@@Z ENDP ; select_target_acquisition_system_llltv_event
_TEXT	ENDS
; Function compile flags: /Odtp /ZI
; File c:\users\nhv90\projects\eech\aphavoc\source\gunships\avionics\hind\hi_avevn.c
;	COMDAT ?select_target_acquisition_system_flir_event@@YGXPAUEVENT@@@Z
_TEXT	SEGMENT
_ev$ = 8						; size = 4
?select_target_acquisition_system_flir_event@@YGXPAUEVENT@@@Z PROC ; select_target_acquisition_system_flir_event, COMDAT

; 107  : {

  00000	55		 push	 ebp
  00001	8b ec		 mov	 ebp, esp
  00003	83 ec 40	 sub	 esp, 64			; 00000040H
  00006	53		 push	 ebx
  00007	56		 push	 esi
  00008	57		 push	 edi

; 108  : 	if (!get_global_simple_avionics ())

  00009	83 3d 6c 03 00
	00 00		 cmp	 DWORD PTR ?global_options@@3UGLOBAL_OPTIONS_DATA@@A+876, 0
  00010	75 07		 jne	 SHORT $LN1@select_tar

; 109  : 	{
; 110  : 		select_hind_target_acquisition_system (TARGET_ACQUISITION_SYSTEM_FLIR);

  00012	6a 03		 push	 3
  00014	e8 00 00 00 00	 call	 ?select_hind_target_acquisition_system@@YGXW4TARGET_ACQUISITION_SYSTEMS@@@Z ; select_hind_target_acquisition_system
$LN1@select_tar:

; 111  : 	}
; 112  : }

  00019	5f		 pop	 edi
  0001a	5e		 pop	 esi
  0001b	5b		 pop	 ebx
  0001c	8b e5		 mov	 esp, ebp
  0001e	5d		 pop	 ebp
  0001f	c2 04 00	 ret	 4
?select_target_acquisition_system_flir_event@@YGXPAUEVENT@@@Z ENDP ; select_target_acquisition_system_flir_event
_TEXT	ENDS
; Function compile flags: /Odtp /ZI
; File c:\users\nhv90\projects\eech\aphavoc\source\gunships\avionics\hind\hi_avevn.c
;	COMDAT ?select_target_acquisition_system_off_event@@YGXPAUEVENT@@@Z
_TEXT	SEGMENT
_ev$ = 8						; size = 4
?select_target_acquisition_system_off_event@@YGXPAUEVENT@@@Z PROC ; select_target_acquisition_system_off_event, COMDAT

; 74   : {

  00000	55		 push	 ebp
  00001	8b ec		 mov	 ebp, esp
  00003	83 ec 40	 sub	 esp, 64			; 00000040H
  00006	53		 push	 ebx
  00007	56		 push	 esi
  00008	57		 push	 edi

; 75   : 	select_hind_target_acquisition_system (TARGET_ACQUISITION_SYSTEM_OFF);

  00009	6a 00		 push	 0
  0000b	e8 00 00 00 00	 call	 ?select_hind_target_acquisition_system@@YGXW4TARGET_ACQUISITION_SYSTEMS@@@Z ; select_hind_target_acquisition_system

; 76   : }

  00010	5f		 pop	 edi
  00011	5e		 pop	 esi
  00012	5b		 pop	 ebx
  00013	8b e5		 mov	 esp, ebp
  00015	5d		 pop	 ebp
  00016	c2 04 00	 ret	 4
?select_target_acquisition_system_off_event@@YGXPAUEVENT@@@Z ENDP ; select_target_acquisition_system_off_event
_TEXT	ENDS
; Function compile flags: /Odtp /ZI
; File c:\users\nhv90\projects\eech\aphavoc\source\gunships\avionics\hind\hi_avevn.c
;	COMDAT ?set_hind_avionics_events@@YGXXZ
_TEXT	SEGMENT
?set_hind_avionics_events@@YGXXZ PROC			; set_hind_avionics_events, COMDAT

; 671  : {

  00000	55		 push	 ebp
  00001	8b ec		 mov	 ebp, esp
  00003	83 ec 40	 sub	 esp, 64			; 00000040H
  00006	53		 push	 ebx
  00007	56		 push	 esi
  00008	57		 push	 edi

; 672  : 	if (!get_gunship_entity ())

  00009	83 3d 00 00 00
	00 00		 cmp	 DWORD PTR ?gunship_entity@@3PAUENTITY@@A, 0 ; gunship_entity
  00010	75 05		 jne	 SHORT $LN2@set_hind_a

; 673  : 	{
; 674  : 		return;

  00012	e9 1e 03 00 00	 jmp	 $LN1@set_hind_a
$LN2@set_hind_a:

; 675  : 	}
; 676  : 
; 677  : 	////////////////////////////////////////
; 678  : 	//
; 679  : 	// KEYBOARD EVENTS
; 680  : 	//
; 681  : 	////////////////////////////////////////
; 682  : 
; 683  : 	// Retro 18Jul2004
; 684  : 	set_event (DIK_G, MODIFIER_LEFT_CONTROL, KEY_STATE_DOWN, toggle_gear_event);

  00017	68 00 00 00 00	 push	 OFFSET ?toggle_gear_event@@YGXPAUEVENT@@@Z ; toggle_gear_event
  0001c	6a 02		 push	 2
  0001e	6a 02		 push	 2
  00020	6a 22		 push	 34			; 00000022H
  00022	e8 00 00 00 00	 call	 ?set_event@@YGXHHHP6GXPAUEVENT@@@Z@Z ; set_event

; 685  : 	set_event (DIK_D, MODIFIER_LEFT_ALT, KEY_STATE_DOWN, toggle_door_event);

  00027	68 00 00 00 00	 push	 OFFSET ?toggle_door_event@@YGXPAUEVENT@@@Z ; toggle_door_event
  0002c	6a 02		 push	 2
  0002e	6a 03		 push	 3
  00030	6a 20		 push	 32			; 00000020H
  00032	e8 00 00 00 00	 call	 ?set_event@@YGXHHHP6GXPAUEVENT@@@Z@Z ; set_event

; 686  : 	set_event (DIK_C, MODIFIER_LEFT_ALT, KEY_STATE_DOWN, toggle_cockpit_doors_event);

  00037	68 00 00 00 00	 push	 OFFSET ?toggle_cockpit_doors_event@@YGXPAUEVENT@@@Z ; toggle_cockpit_doors_event
  0003c	6a 02		 push	 2
  0003e	6a 03		 push	 3
  00040	6a 2e		 push	 46			; 0000002eH
  00042	e8 00 00 00 00	 call	 ?set_event@@YGXHHHP6GXPAUEVENT@@@Z@Z ; set_event

; 687  : 
; 688  : 	//
; 689  : 	// select target acquisition system
; 690  : 	//
; 691  : 
; 692  : 	set_event (DIK_DELETE, MODIFIER_LEFT_SHIFT, KEY_STATE_DOWN, select_target_acquisition_system_off_event);

  00047	68 00 00 00 00	 push	 OFFSET ?select_target_acquisition_system_off_event@@YGXPAUEVENT@@@Z ; select_target_acquisition_system_off_event
  0004c	6a 02		 push	 2
  0004e	6a 01		 push	 1
  00050	68 d3 00 00 00	 push	 211			; 000000d3H
  00055	e8 00 00 00 00	 call	 ?set_event@@YGXHHHP6GXPAUEVENT@@@Z@Z ; set_event

; 693  : 
; 694  : 	set_event (DIK_DELETE, MODIFIER_NONE, KEY_STATE_DOWN, select_target_acquisition_system_flir_event);

  0005a	68 00 00 00 00	 push	 OFFSET ?select_target_acquisition_system_flir_event@@YGXPAUEVENT@@@Z ; select_target_acquisition_system_flir_event
  0005f	6a 02		 push	 2
  00061	6a 00		 push	 0
  00063	68 d3 00 00 00	 push	 211			; 000000d3H
  00068	e8 00 00 00 00	 call	 ?set_event@@YGXHHHP6GXPAUEVENT@@@Z@Z ; set_event

; 695  : 
; 696  : 	set_event (DIK_END, MODIFIER_NONE, KEY_STATE_DOWN, select_target_acquisition_system_llltv_event);

  0006d	68 00 00 00 00	 push	 OFFSET ?select_target_acquisition_system_llltv_event@@YGXPAUEVENT@@@Z ; select_target_acquisition_system_llltv_event
  00072	6a 02		 push	 2
  00074	6a 00		 push	 0
  00076	68 cf 00 00 00	 push	 207			; 000000cfH
  0007b	e8 00 00 00 00	 call	 ?set_event@@YGXHHHP6GXPAUEVENT@@@Z@Z ; set_event

; 697  : 
; 698  : 	set_event (DIK_PRIOR, MODIFIER_NONE, KEY_STATE_DOWN, select_target_acquisition_system_hms_event);

  00080	68 00 00 00 00	 push	 OFFSET ?select_target_acquisition_system_hms_event@@YGXPAUEVENT@@@Z ; select_target_acquisition_system_hms_event
  00085	6a 02		 push	 2
  00087	6a 00		 push	 0
  00089	68 c9 00 00 00	 push	 201			; 000000c9H
  0008e	e8 00 00 00 00	 call	 ?set_event@@YGXHHHP6GXPAUEVENT@@@Z@Z ; set_event

; 699  : 
; 700  : 	set_event (DIK_NEXT, MODIFIER_NONE, KEY_STATE_DOWN, select_eo_view_event);

  00093	68 00 00 00 00	 push	 OFFSET ?select_eo_view_event@@YGXPAUEVENT@@@Z ; select_eo_view_event
  00098	6a 02		 push	 2
  0009a	6a 00		 push	 0
  0009c	68 d1 00 00 00	 push	 209			; 000000d1H
  000a1	e8 00 00 00 00	 call	 ?set_event@@YGXHHHP6GXPAUEVENT@@@Z@Z ; set_event

; 701  : 
; 702  : 	//
; 703  : 	// repeated for programmable joysticks ...
; 704  : 	//
; 705  : 
; 706  : 	set_event (DIK_3, MODIFIER_LEFT_SHIFT, KEY_STATE_DOWN, select_target_acquisition_system_hms_event);

  000a6	68 00 00 00 00	 push	 OFFSET ?select_target_acquisition_system_hms_event@@YGXPAUEVENT@@@Z ; select_target_acquisition_system_hms_event
  000ab	6a 02		 push	 2
  000ad	6a 01		 push	 1
  000af	6a 04		 push	 4
  000b1	e8 00 00 00 00	 call	 ?set_event@@YGXHHHP6GXPAUEVENT@@@Z@Z ; set_event

; 707  : 
; 708  : 	set_event (DIK_4, MODIFIER_LEFT_SHIFT, KEY_STATE_DOWN, select_target_acquisition_system_flir_event);

  000b6	68 00 00 00 00	 push	 OFFSET ?select_target_acquisition_system_flir_event@@YGXPAUEVENT@@@Z ; select_target_acquisition_system_flir_event
  000bb	6a 02		 push	 2
  000bd	6a 01		 push	 1
  000bf	6a 05		 push	 5
  000c1	e8 00 00 00 00	 call	 ?set_event@@YGXHHHP6GXPAUEVENT@@@Z@Z ; set_event

; 709  : 
; 710  : 	set_event (DIK_5, MODIFIER_LEFT_SHIFT, KEY_STATE_DOWN, select_target_acquisition_system_llltv_event);

  000c6	68 00 00 00 00	 push	 OFFSET ?select_target_acquisition_system_llltv_event@@YGXPAUEVENT@@@Z ; select_target_acquisition_system_llltv_event
  000cb	6a 02		 push	 2
  000cd	6a 01		 push	 1
  000cf	6a 06		 push	 6
  000d1	e8 00 00 00 00	 call	 ?set_event@@YGXHHHP6GXPAUEVENT@@@Z@Z ; set_event

; 711  : 
; 712  : 	//
; 713  : 	// target acquisition system control
; 714  : 	//
; 715  : 
; 716  : 	set_event (DIK_NUMPAD4, MODIFIER_NONE, KEY_STATE_EITHER, steer_left_event);

  000d6	68 00 00 00 00	 push	 OFFSET ?steer_left_event@@YGXPAUEVENT@@@Z ; steer_left_event
  000db	6a 03		 push	 3
  000dd	6a 00		 push	 0
  000df	6a 4b		 push	 75			; 0000004bH
  000e1	e8 00 00 00 00	 call	 ?set_event@@YGXHHHP6GXPAUEVENT@@@Z@Z ; set_event

; 717  : 	set_event (DIK_NUMPAD4, MODIFIER_LEFT_SHIFT, KEY_STATE_EITHER, steer_left_fast_event);

  000e6	68 00 00 00 00	 push	 OFFSET ?steer_left_fast_event@@YGXPAUEVENT@@@Z ; steer_left_fast_event
  000eb	6a 03		 push	 3
  000ed	6a 01		 push	 1
  000ef	6a 4b		 push	 75			; 0000004bH
  000f1	e8 00 00 00 00	 call	 ?set_event@@YGXHHHP6GXPAUEVENT@@@Z@Z ; set_event

; 718  : 	set_event (DIK_NUMPAD4, MODIFIER_LEFT_ALT, KEY_STATE_EITHER, steer_left_fine_event);

  000f6	68 00 00 00 00	 push	 OFFSET ?steer_left_fine_event@@YGXPAUEVENT@@@Z ; steer_left_fine_event
  000fb	6a 03		 push	 3
  000fd	6a 03		 push	 3
  000ff	6a 4b		 push	 75			; 0000004bH
  00101	e8 00 00 00 00	 call	 ?set_event@@YGXHHHP6GXPAUEVENT@@@Z@Z ; set_event

; 719  : 
; 720  : 	set_event (DIK_NUMPAD6, MODIFIER_NONE, KEY_STATE_EITHER, steer_right_event);

  00106	68 00 00 00 00	 push	 OFFSET ?steer_right_event@@YGXPAUEVENT@@@Z ; steer_right_event
  0010b	6a 03		 push	 3
  0010d	6a 00		 push	 0
  0010f	6a 4d		 push	 77			; 0000004dH
  00111	e8 00 00 00 00	 call	 ?set_event@@YGXHHHP6GXPAUEVENT@@@Z@Z ; set_event

; 721  : 	set_event (DIK_NUMPAD6, MODIFIER_LEFT_SHIFT, KEY_STATE_EITHER, steer_right_fast_event);

  00116	68 00 00 00 00	 push	 OFFSET ?steer_right_fast_event@@YGXPAUEVENT@@@Z ; steer_right_fast_event
  0011b	6a 03		 push	 3
  0011d	6a 01		 push	 1
  0011f	6a 4d		 push	 77			; 0000004dH
  00121	e8 00 00 00 00	 call	 ?set_event@@YGXHHHP6GXPAUEVENT@@@Z@Z ; set_event

; 722  : 	set_event (DIK_NUMPAD6, MODIFIER_LEFT_ALT, KEY_STATE_EITHER, steer_right_fine_event);

  00126	68 00 00 00 00	 push	 OFFSET ?steer_right_fine_event@@YGXPAUEVENT@@@Z ; steer_right_fine_event
  0012b	6a 03		 push	 3
  0012d	6a 03		 push	 3
  0012f	6a 4d		 push	 77			; 0000004dH
  00131	e8 00 00 00 00	 call	 ?set_event@@YGXHHHP6GXPAUEVENT@@@Z@Z ; set_event

; 723  : 
; 724  : 	set_event (DIK_NUMPAD8, MODIFIER_NONE, KEY_STATE_EITHER, steer_up_event);

  00136	68 00 00 00 00	 push	 OFFSET ?steer_up_event@@YGXPAUEVENT@@@Z ; steer_up_event
  0013b	6a 03		 push	 3
  0013d	6a 00		 push	 0
  0013f	6a 48		 push	 72			; 00000048H
  00141	e8 00 00 00 00	 call	 ?set_event@@YGXHHHP6GXPAUEVENT@@@Z@Z ; set_event

; 725  : 	set_event (DIK_NUMPAD8, MODIFIER_LEFT_SHIFT, KEY_STATE_EITHER, steer_up_fast_event);

  00146	68 00 00 00 00	 push	 OFFSET ?steer_up_fast_event@@YGXPAUEVENT@@@Z ; steer_up_fast_event
  0014b	6a 03		 push	 3
  0014d	6a 01		 push	 1
  0014f	6a 48		 push	 72			; 00000048H
  00151	e8 00 00 00 00	 call	 ?set_event@@YGXHHHP6GXPAUEVENT@@@Z@Z ; set_event

; 726  : 	set_event (DIK_NUMPAD8, MODIFIER_LEFT_ALT, KEY_STATE_EITHER, steer_up_fine_event);

  00156	68 00 00 00 00	 push	 OFFSET ?steer_up_fine_event@@YGXPAUEVENT@@@Z ; steer_up_fine_event
  0015b	6a 03		 push	 3
  0015d	6a 03		 push	 3
  0015f	6a 48		 push	 72			; 00000048H
  00161	e8 00 00 00 00	 call	 ?set_event@@YGXHHHP6GXPAUEVENT@@@Z@Z ; set_event

; 727  : 
; 728  : 	set_event (DIK_NUMPAD2, MODIFIER_NONE, KEY_STATE_EITHER, steer_down_event);

  00166	68 00 00 00 00	 push	 OFFSET ?steer_down_event@@YGXPAUEVENT@@@Z ; steer_down_event
  0016b	6a 03		 push	 3
  0016d	6a 00		 push	 0
  0016f	6a 50		 push	 80			; 00000050H
  00171	e8 00 00 00 00	 call	 ?set_event@@YGXHHHP6GXPAUEVENT@@@Z@Z ; set_event

; 729  : 	set_event (DIK_NUMPAD2, MODIFIER_LEFT_SHIFT, KEY_STATE_EITHER, steer_down_fast_event);

  00176	68 00 00 00 00	 push	 OFFSET ?steer_down_fast_event@@YGXPAUEVENT@@@Z ; steer_down_fast_event
  0017b	6a 03		 push	 3
  0017d	6a 01		 push	 1
  0017f	6a 50		 push	 80			; 00000050H
  00181	e8 00 00 00 00	 call	 ?set_event@@YGXHHHP6GXPAUEVENT@@@Z@Z ; set_event

; 730  : 	set_event (DIK_NUMPAD2, MODIFIER_LEFT_ALT, KEY_STATE_EITHER, steer_down_fine_event);

  00186	68 00 00 00 00	 push	 OFFSET ?steer_down_fine_event@@YGXPAUEVENT@@@Z ; steer_down_fine_event
  0018b	6a 03		 push	 3
  0018d	6a 03		 push	 3
  0018f	6a 50		 push	 80			; 00000050H
  00191	e8 00 00 00 00	 call	 ?set_event@@YGXHHHP6GXPAUEVENT@@@Z@Z ; set_event

; 731  : 
; 732  : 	set_event (DIK_ADD, MODIFIER_NONE, KEY_STATE_DOWN, inc_range_event);

  00196	68 00 00 00 00	 push	 OFFSET ?inc_range_event@@YGXPAUEVENT@@@Z ; inc_range_event
  0019b	6a 02		 push	 2
  0019d	6a 00		 push	 0
  0019f	6a 4e		 push	 78			; 0000004eH
  001a1	e8 00 00 00 00	 call	 ?set_event@@YGXHHHP6GXPAUEVENT@@@Z@Z ; set_event

; 733  : 	set_event (DIK_ADD, MODIFIER_LEFT_SHIFT, KEY_STATE_DOWN, inc_range_fast_event);

  001a6	68 00 00 00 00	 push	 OFFSET ?inc_range_fast_event@@YGXPAUEVENT@@@Z ; inc_range_fast_event
  001ab	6a 02		 push	 2
  001ad	6a 01		 push	 1
  001af	6a 4e		 push	 78			; 0000004eH
  001b1	e8 00 00 00 00	 call	 ?set_event@@YGXHHHP6GXPAUEVENT@@@Z@Z ; set_event

; 734  : 
; 735  : 	set_event (DIK_SUBTRACT, MODIFIER_NONE, KEY_STATE_DOWN, dec_range_event);

  001b6	68 00 00 00 00	 push	 OFFSET ?dec_range_event@@YGXPAUEVENT@@@Z ; dec_range_event
  001bb	6a 02		 push	 2
  001bd	6a 00		 push	 0
  001bf	6a 4a		 push	 74			; 0000004aH
  001c1	e8 00 00 00 00	 call	 ?set_event@@YGXHHHP6GXPAUEVENT@@@Z@Z ; set_event

; 736  : 	set_event (DIK_SUBTRACT, MODIFIER_LEFT_SHIFT, KEY_STATE_DOWN, dec_range_fast_event);

  001c6	68 00 00 00 00	 push	 OFFSET ?dec_range_fast_event@@YGXPAUEVENT@@@Z ; dec_range_fast_event
  001cb	6a 02		 push	 2
  001cd	6a 01		 push	 1
  001cf	6a 4a		 push	 74			; 0000004aH
  001d1	e8 00 00 00 00	 call	 ?set_event@@YGXHHHP6GXPAUEVENT@@@Z@Z ; set_event

; 737  : 
; 738  : 	set_event (DIK_NUMPAD5, MODIFIER_NONE, KEY_STATE_DOWN, steer_centre_event);

  001d6	68 00 00 00 00	 push	 OFFSET ?steer_centre_event@@YGXPAUEVENT@@@Z ; steer_centre_event
  001db	6a 02		 push	 2
  001dd	6a 00		 push	 0
  001df	6a 4c		 push	 76			; 0000004cH
  001e1	e8 00 00 00 00	 call	 ?set_event@@YGXHHHP6GXPAUEVENT@@@Z@Z ; set_event

; 739  : 	set_event (DIK_NUMPAD5, MODIFIER_LEFT_SHIFT, KEY_STATE_DOWN, steer_centre_event);

  001e6	68 00 00 00 00	 push	 OFFSET ?steer_centre_event@@YGXPAUEVENT@@@Z ; steer_centre_event
  001eb	6a 02		 push	 2
  001ed	6a 01		 push	 1
  001ef	6a 4c		 push	 76			; 0000004cH
  001f1	e8 00 00 00 00	 call	 ?set_event@@YGXHHHP6GXPAUEVENT@@@Z@Z ; set_event

; 740  : 
; 741  : 	set_event (DIK_NUMPAD0, MODIFIER_NONE, KEY_STATE_DOWN, select_next_target_event);

  001f6	68 00 00 00 00	 push	 OFFSET ?select_next_target_event@@YGXPAUEVENT@@@Z ; select_next_target_event
  001fb	6a 02		 push	 2
  001fd	6a 00		 push	 0
  001ff	6a 52		 push	 82			; 00000052H
  00201	e8 00 00 00 00	 call	 ?set_event@@YGXHHHP6GXPAUEVENT@@@Z@Z ; set_event

; 742  : 	set_event (DIK_NUMPAD0, MODIFIER_LEFT_SHIFT, KEY_STATE_DOWN, select_previous_target_event);

  00206	68 00 00 00 00	 push	 OFFSET ?select_previous_target_event@@YGXPAUEVENT@@@Z ; select_previous_target_event
  0020b	6a 02		 push	 2
  0020d	6a 01		 push	 1
  0020f	6a 52		 push	 82			; 00000052H
  00211	e8 00 00 00 00	 call	 ?set_event@@YGXHHHP6GXPAUEVENT@@@Z@Z ; set_event

; 743  : 
; 744  : 	set_event (DIK_NUMPAD1, MODIFIER_NONE, KEY_STATE_DOWN, toggle_auto_target_event);

  00216	68 00 00 00 00	 push	 OFFSET ?toggle_auto_target_event@@YGXPAUEVENT@@@Z ; toggle_auto_target_event
  0021b	6a 02		 push	 2
  0021d	6a 00		 push	 0
  0021f	6a 4f		 push	 79			; 0000004fH
  00221	e8 00 00 00 00	 call	 ?set_event@@YGXHHHP6GXPAUEVENT@@@Z@Z ; set_event

; 745  : 
; 746  : 	set_event (DIK_NUMPADENTER, MODIFIER_NONE, KEY_STATE_DOWN, toggle_lock_target_event);

  00226	68 00 00 00 00	 push	 OFFSET ?toggle_lock_target_event@@YGXPAUEVENT@@@Z ; toggle_lock_target_event
  0022b	6a 02		 push	 2
  0022d	6a 00		 push	 0
  0022f	68 9c 00 00 00	 push	 156			; 0000009cH
  00234	e8 00 00 00 00	 call	 ?set_event@@YGXHHHP6GXPAUEVENT@@@Z@Z ; set_event

; 747  : //	set_event (DIK_NUMPADENTER, MODIFIER_LEFT_ALT, KEY_STATE_DOWN, toggle_lock_target_event); // Jabberwock 031107 Designated targets
; 748  : 	set_event (DIK_NUMPADENTER, MODIFIER_LEFT_SHIFT, KEY_STATE_DOWN, toggle_lock_target_event);

  00239	68 00 00 00 00	 push	 OFFSET ?toggle_lock_target_event@@YGXPAUEVENT@@@Z ; toggle_lock_target_event
  0023e	6a 02		 push	 2
  00240	6a 01		 push	 1
  00242	68 9c 00 00 00	 push	 156			; 0000009cH
  00247	e8 00 00 00 00	 call	 ?set_event@@YGXHHHP6GXPAUEVENT@@@Z@Z ; set_event

; 749  : 
; 750  : 	set_event (DIK_S, MODIFIER_LEFT_CONTROL, KEY_STATE_DOWN, toggle_ground_stabilisation_event);

  0024c	68 00 00 00 00	 push	 OFFSET ?toggle_ground_stabilisation_event@@YGXPAUEVENT@@@Z ; toggle_ground_stabilisation_event
  00251	6a 02		 push	 2
  00253	6a 02		 push	 2
  00255	6a 1f		 push	 31			; 0000001fH
  00257	e8 00 00 00 00	 call	 ?set_event@@YGXHHHP6GXPAUEVENT@@@Z@Z ; set_event

; 751  : 
; 752  : 	//
; 753  : 	// miscellaneous
; 754  : 	//
; 755  : 
; 756  : 	set_event (DIK_M, MODIFIER_NONE, KEY_STATE_DOWN, acknowledge_master_caution_event);

  0025c	68 00 00 00 00	 push	 OFFSET ?acknowledge_master_caution_event@@YGXPAUEVENT@@@Z ; acknowledge_master_caution_event
  00261	6a 02		 push	 2
  00263	6a 00		 push	 0
  00265	6a 32		 push	 50			; 00000032H
  00267	e8 00 00 00 00	 call	 ?set_event@@YGXHHHP6GXPAUEVENT@@@Z@Z ; set_event

; 757  : 
; 758  : 	set_event (DIK_N, MODIFIER_NONE, KEY_STATE_DOWN, toggle_night_vision_system_event);

  0026c	68 00 00 00 00	 push	 OFFSET ?toggle_night_vision_system_event@@YGXPAUEVENT@@@Z ; toggle_night_vision_system_event
  00271	6a 02		 push	 2
  00273	6a 00		 push	 0
  00275	6a 31		 push	 49			; 00000031H
  00277	e8 00 00 00 00	 call	 ?set_event@@YGXHHHP6GXPAUEVENT@@@Z@Z ; set_event

; 759  : 
; 760  : 	set_event (DIK_O, MODIFIER_NONE, KEY_STATE_DOWN, toggle_backup_sight_event);

  0027c	68 00 00 00 00	 push	 OFFSET ?toggle_backup_sight_event@@YGXPAUEVENT@@@Z ; toggle_backup_sight_event
  00281	6a 02		 push	 2
  00283	6a 00		 push	 0
  00285	6a 18		 push	 24			; 00000018H
  00287	e8 00 00 00 00	 call	 ?set_event@@YGXHHHP6GXPAUEVENT@@@Z@Z ; set_event

; 761  : 
; 762  : 	set_event (DIK_V, MODIFIER_NONE, KEY_STATE_DOWN, toggle_navigation_lights_event);

  0028c	68 00 00 00 00	 push	 OFFSET ?toggle_navigation_lights_event@@YGXPAUEVENT@@@Z ; toggle_navigation_lights_event
  00291	6a 02		 push	 2
  00293	6a 00		 push	 0
  00295	6a 2f		 push	 47			; 0000002fH
  00297	e8 00 00 00 00	 call	 ?set_event@@YGXHHHP6GXPAUEVENT@@@Z@Z ; set_event

; 763  : 
; 764  : 	set_event (DIK_1, MODIFIER_NONE, KEY_STATE_DOWN, virtual_cockpit_track_target_event);

  0029c	68 00 00 00 00	 push	 OFFSET ?virtual_cockpit_track_target_event@@YGXPAUEVENT@@@Z ; virtual_cockpit_track_target_event
  002a1	6a 02		 push	 2
  002a3	6a 00		 push	 0
  002a5	6a 02		 push	 2
  002a7	e8 00 00 00 00	 call	 ?set_event@@YGXHHHP6GXPAUEVENT@@@Z@Z ; set_event

; 765  : 
; 766  : 	set_event (DIK_NUMPADENTER, MODIFIER_LEFT_CONTROL, KEY_STATE_DOWN, virtual_cockpit_track_target_event);

  002ac	68 00 00 00 00	 push	 OFFSET ?virtual_cockpit_track_target_event@@YGXPAUEVENT@@@Z ; virtual_cockpit_track_target_event
  002b1	6a 02		 push	 2
  002b3	6a 02		 push	 2
  002b5	68 9c 00 00 00	 push	 156			; 0000009cH
  002ba	e8 00 00 00 00	 call	 ?set_event@@YGXHHHP6GXPAUEVENT@@@Z@Z ; set_event

; 767  : 
; 768  : 	set_event (DIK_BACKSPACE, MODIFIER_LEFT_ALT, KEY_STATE_DOWN, select_cannon_event);

  002bf	68 00 00 00 00	 push	 OFFSET ?select_cannon_event@@YGXPAUEVENT@@@Z ; select_cannon_event
  002c4	6a 02		 push	 2
  002c6	6a 03		 push	 3
  002c8	6a 0e		 push	 14			; 0000000eH
  002ca	e8 00 00 00 00	 call	 ?set_event@@YGXHHHP6GXPAUEVENT@@@Z@Z ; set_event

; 769  : 
; 770  : 	set_event (DIK_I, MODIFIER_NONE, KEY_STATE_DOWN, toggle_infra_red_jammer_event);

  002cf	68 00 00 00 00	 push	 OFFSET ?toggle_infra_red_jammer_event@@YGXPAUEVENT@@@Z ; toggle_infra_red_jammer_event
  002d4	6a 02		 push	 2
  002d6	6a 00		 push	 0
  002d8	6a 17		 push	 23			; 00000017H
  002da	e8 00 00 00 00	 call	 ?set_event@@YGXHHHP6GXPAUEVENT@@@Z@Z ; set_event

; 771  : 
; 772  : 	set_event (DIK_J, MODIFIER_NONE, KEY_STATE_DOWN, toggle_radar_jammer_event);

  002df	68 00 00 00 00	 push	 OFFSET ?toggle_radar_jammer_event@@YGXPAUEVENT@@@Z ; toggle_radar_jammer_event
  002e4	6a 02		 push	 2
  002e6	6a 00		 push	 0
  002e8	6a 24		 push	 36			; 00000024H
  002ea	e8 00 00 00 00	 call	 ?set_event@@YGXHHHP6GXPAUEVENT@@@Z@Z ; set_event

; 773  : 
; 774  : 	set_event (DIK_Y, MODIFIER_LEFT_CONTROL, KEY_STATE_DOWN, toggle_cockpit_fan_event);

  002ef	68 00 00 00 00	 push	 OFFSET ?toggle_cockpit_fan_event@@YGXPAUEVENT@@@Z ; toggle_cockpit_fan_event
  002f4	6a 02		 push	 2
  002f6	6a 02		 push	 2
  002f8	6a 15		 push	 21			; 00000015H
  002fa	e8 00 00 00 00	 call	 ?set_event@@YGXHHHP6GXPAUEVENT@@@Z@Z ; set_event

; 775  : 
; 776  : 	set_event (DIK_RBRACKET, MODIFIER_LEFT_CONTROL, KEY_STATE_DOWN, toggle_map_on_off_event);

  002ff	68 00 00 00 00	 push	 OFFSET ?toggle_map_on_off_event@@YGXPAUEVENT@@@Z ; toggle_map_on_off_event
  00304	6a 02		 push	 2
  00306	6a 02		 push	 2
  00308	6a 1b		 push	 27			; 0000001bH
  0030a	e8 00 00 00 00	 call	 ?set_event@@YGXHHHP6GXPAUEVENT@@@Z@Z ; set_event

; 777  : 
; 778  : 	////////////////////////////////////////
; 779  : 	//
; 780  : 	// JOYSTICK EVENTS
; 781  : 	//
; 782  : 	////////////////////////////////////////
; 783  : 
; 784  : 	set_event ((JOYSTICK_BUTTON + 3), MODIFIER_NONE, KEY_STATE_DOWN, select_next_target_event);

  0030f	68 00 00 00 00	 push	 OFFSET ?select_next_target_event@@YGXPAUEVENT@@@Z ; select_next_target_event
  00314	6a 02		 push	 2
  00316	6a 00		 push	 0
  00318	68 0e 01 00 00	 push	 270			; 0000010eH
  0031d	e8 00 00 00 00	 call	 ?set_event@@YGXHHHP6GXPAUEVENT@@@Z@Z ; set_event

; 785  : 
; 786  : 	set_event ((JOYSTICK_BUTTON + 4), MODIFIER_NONE, KEY_STATE_DOWN, virtual_cockpit_track_target_event);

  00322	68 00 00 00 00	 push	 OFFSET ?virtual_cockpit_track_target_event@@YGXPAUEVENT@@@Z ; virtual_cockpit_track_target_event
  00327	6a 02		 push	 2
  00329	6a 00		 push	 0
  0032b	68 0f 01 00 00	 push	 271			; 0000010fH
  00330	e8 00 00 00 00	 call	 ?set_event@@YGXHHHP6GXPAUEVENT@@@Z@Z ; set_event
$LN1@set_hind_a:

; 787  : 
; 788  : }

  00335	5f		 pop	 edi
  00336	5e		 pop	 esi
  00337	5b		 pop	 ebx
  00338	8b e5		 mov	 esp, ebp
  0033a	5d		 pop	 ebp
  0033b	c3		 ret	 0
?set_hind_avionics_events@@YGXXZ ENDP			; set_hind_avionics_events
_TEXT	ENDS
END
