; Listing generated by Microsoft (R) Optimizing Compiler Version 19.16.27045.0 

	TITLE	C:\Users\nhv90\Projects\eech\aphavoc\source\gunships\cockpits\hind\hi_ckpt.c
	.686P
	.XMM
	include listing.inc
	.model	flat

INCLUDELIB MSVCRTD
INCLUDELIB OLDNAMES

PUBLIC	?initialise_hind_cockpits@@YGXXZ		; initialise_hind_cockpits
PUBLIC	?deinitialise_hind_cockpits@@YGXXZ		; deinitialise_hind_cockpits
PUBLIC	?update_hind_cockpits@@YGXXZ			; update_hind_cockpits
PUBLIC	?draw_hind_cockpit@@YGXW4COCKPIT_PANELS@@@Z	; draw_hind_cockpit
PUBLIC	??_C@_0EN@FLMPPOBM@c?3?2users?2nhv90?2projects?2eech?2ap@ ; `string'
PUBLIC	??_C@_0BL@LGMPIFCI@Invalid?5cockpit?5panel?5?$DN?5?$CFd@ ; `string'
PUBLIC	__real@406ca00000000000
PUBLIC	__real@4073600000000000
PUBLIC	__real@4074100000000000
PUBLIC	__real@4075100000000000
PUBLIC	__real@4076200000000000
PUBLIC	__real@407cb00000000000
PUBLIC	__real@42880000
PUBLIC	__real@43000000
PUBLIC	__real@43ce0000
EXTRN	?process_assert@@YGXPBD0H@Z:PROC		; process_assert
EXTRN	?debug_fatal@@YAXPBDZZ:PROC			; debug_fatal
EXTRN	?lock_screen@@YGHPAUSCREEN@@@Z:PROC		; lock_screen
EXTRN	?unlock_screen@@YGHPAUSCREEN@@@Z:PROC		; unlock_screen
EXTRN	?blit_rle_graphic@@YGXPBEHH@Z:PROC		; blit_rle_graphic
EXTRN	?blit_rgb_graphic@@YGXPBEHH@Z:PROC		; blit_rgb_graphic
EXTRN	?draw_hind_ekran_display_on_cockpit@@YGXMM@Z:PROC ; draw_hind_ekran_display_on_cockpit
EXTRN	?draw_hind_hud_on_cockpit@@YGXH@Z:PROC		; draw_hind_hud_on_cockpit
EXTRN	?draw_hind_hms@@YGXXZ:PROC			; draw_hind_hms
EXTRN	?draw_hind_mfd_on_cockpit@@YGXMMHH@Z:PROC	; draw_hind_mfd_on_cockpit
EXTRN	?draw_overlaid_hind_mfd@@YGXMMM@Z:PROC		; draw_overlaid_hind_mfd
EXTRN	?initialise_havoc_instrument_colours@@YGXXZ:PROC ; initialise_havoc_instrument_colours
EXTRN	?set_havoc_instrument_colours@@YGXXZ:PROC	; set_havoc_instrument_colours
EXTRN	?draw_havoc_barometric_altimeter@@YGXW4COCKPIT_PANELS@@@Z:PROC ; draw_havoc_barometric_altimeter
EXTRN	?draw_havoc_airspeed_indicator@@YGXW4COCKPIT_PANELS@@@Z:PROC ; draw_havoc_airspeed_indicator
EXTRN	?draw_havoc_main_rotor_rpm_indicator@@YGXW4COCKPIT_PANELS@@@Z:PROC ; draw_havoc_main_rotor_rpm_indicator
EXTRN	?draw_havoc_g_meter@@YGXW4COCKPIT_PANELS@@@Z:PROC ; draw_havoc_g_meter
EXTRN	?draw_havoc_engine_torque_indicator@@YGXW4COCKPIT_PANELS@@@Z:PROC ; draw_havoc_engine_torque_indicator
EXTRN	?draw_havoc_engine_temperature_indicator@@YGXW4COCKPIT_PANELS@@@Z:PROC ; draw_havoc_engine_temperature_indicator
EXTRN	?draw_havoc_engine_rpm_indicator@@YGXW4COCKPIT_PANELS@@@Z:PROC ; draw_havoc_engine_rpm_indicator
EXTRN	?draw_havoc_engine_temperature_and_rpm_indicator_ticks@@YGXW4COCKPIT_PANELS@@@Z:PROC ; draw_havoc_engine_temperature_and_rpm_indicator_ticks
EXTRN	?draw_havoc_vertical_speed_indicator@@YGXW4COCKPIT_PANELS@@@Z:PROC ; draw_havoc_vertical_speed_indicator
EXTRN	?draw_havoc_clock@@YGXW4COCKPIT_PANELS@@@Z:PROC	; draw_havoc_clock
EXTRN	?draw_havoc_radar_altimeter@@YGXW4COCKPIT_PANELS@@@Z:PROC ; draw_havoc_radar_altimeter
EXTRN	?draw_havoc_fuel_gauge@@YGXW4COCKPIT_PANELS@@@Z:PROC ; draw_havoc_fuel_gauge
EXTRN	?draw_havoc_fixed_cockpit_hsi_waypoint_distance_digits@@YGXW4COCKPIT_PANELS@@@Z:PROC ; draw_havoc_fixed_cockpit_hsi_waypoint_distance_digits
EXTRN	?draw_havoc_fixed_cockpit_hsi_waypoint_identifier@@YGXW4COCKPIT_PANELS@@@Z:PROC ; draw_havoc_fixed_cockpit_hsi_waypoint_identifier
EXTRN	?draw_havoc_weapons_management_panel_lamps@@YGXW4COCKPIT_PANELS@@@Z:PROC ; draw_havoc_weapons_management_panel_lamps
EXTRN	?draw_havoc_status_panel_lamps@@YGXW4COCKPIT_PANELS@@@Z:PROC ; draw_havoc_status_panel_lamps
EXTRN	?draw_havoc_threat_warning_display@@YGXW4COCKPIT_PANELS@@@Z:PROC ; draw_havoc_threat_warning_display
EXTRN	?draw_havoc_master_caution_lamp@@YGXW4COCKPIT_PANELS@@@Z:PROC ; draw_havoc_master_caution_lamp
EXTRN	?draw_havoc_warning_panel_lamps@@YGXW4COCKPIT_PANELS@@@Z:PROC ; draw_havoc_warning_panel_lamps
EXTRN	?draw_havoc_radio_lamp@@YGXW4COCKPIT_PANELS@@@Z:PROC ; draw_havoc_radio_lamp
EXTRN	?draw_havoc_oil_gauges@@YGXW4COCKPIT_PANELS@@@Z:PROC ; draw_havoc_oil_gauges
EXTRN	?initialise_hind_lamps@@YGXXZ:PROC		; initialise_hind_lamps
EXTRN	?draw_hind_weapons_management_panel_lamps@@YGXW4COCKPIT_PANELS@@@Z:PROC ; draw_hind_weapons_management_panel_lamps
EXTRN	?draw_hind_status_panel_lamps@@YGXW4COCKPIT_PANELS@@@Z:PROC ; draw_hind_status_panel_lamps
EXTRN	?draw_hind_threat_warning_display@@YGXW4COCKPIT_PANELS@@@Z:PROC ; draw_hind_threat_warning_display
EXTRN	?draw_hind_master_caution_lamp@@YGXW4COCKPIT_PANELS@@@Z:PROC ; draw_hind_master_caution_lamp
EXTRN	?draw_hind_warning_panel_lamps@@YGXW4COCKPIT_PANELS@@@Z:PROC ; draw_hind_warning_panel_lamps
EXTRN	?draw_hind_radio_lamp@@YGXW4COCKPIT_PANELS@@@Z:PROC ; draw_hind_radio_lamp
EXTRN	?draw_overlaid_hind_threat_warning_display@@YGXHH@Z:PROC ; draw_overlaid_hind_threat_warning_display
EXTRN	?draw_hind_internal_virtual_cockpit@@YGXI@Z:PROC ; draw_hind_internal_virtual_cockpit
EXTRN	?draw_hind_internal_3d_cockpit@@YGXI@Z:PROC	; draw_hind_internal_3d_cockpit
EXTRN	?draw_hind_external_virtual_cockpit@@YGXIPAE@Z:PROC ; draw_hind_external_virtual_cockpit
EXTRN	?draw_hind_external_3d_cockpit@@YGXIPAE@Z:PROC	; draw_hind_external_3d_cockpit
EXTRN	?active_screen@@3PAUSCREEN@@A:DWORD		; active_screen
EXTRN	?graphics_files@@3PAUFILE_DATA@@A:BYTE		; graphics_files
EXTRN	?null_entity_pointer_message@@3PBDB:DWORD	; null_entity_pointer_message
EXTRN	?global_options@@3UGLOBAL_OPTIONS_DATA@@A:BYTE	; global_options
EXTRN	?custom_3d_models@@3Uinstalled_custom_3d_models@@A:QWORD ; custom_3d_models
EXTRN	?overload_invalid_int_type_message@@3PBDB:DWORD	; overload_invalid_int_type_message
EXTRN	?fn_get_local_entity_int_value@@3PAY0BBH@P6GHPAUENTITY@@W4INT_TYPES@@@ZA:BYTE ; fn_get_local_entity_int_value
EXTRN	?session_entity@@3PAUENTITY@@A:DWORD		; session_entity
EXTRN	?ix_640_480@@3HA:DWORD				; ix_640_480
EXTRN	?iy_640_480@@3HA:DWORD				; iy_640_480
EXTRN	?fx_640_480@@3MA:DWORD				; fx_640_480
EXTRN	?fy_640_480@@3MA:DWORD				; fy_640_480
EXTRN	?int_full_screen_width@@3HA:DWORD		; int_full_screen_width
EXTRN	?int_full_screen_height@@3HA:DWORD		; int_full_screen_height
EXTRN	?base_cockpit_graphics_file@@3W4GRAPHICS_FILE_SPECIFIERS@@A:DWORD ; base_cockpit_graphics_file
EXTRN	__fltused:DWORD
;	COMDAT __real@43ce0000
CONST	SEGMENT
__real@43ce0000 DD 043ce0000r			; 412
CONST	ENDS
;	COMDAT __real@43000000
CONST	SEGMENT
__real@43000000 DD 043000000r			; 128
CONST	ENDS
;	COMDAT __real@42880000
CONST	SEGMENT
__real@42880000 DD 042880000r			; 68
CONST	ENDS
;	COMDAT __real@407cb00000000000
CONST	SEGMENT
__real@407cb00000000000 DQ 0407cb00000000000r	; 459
CONST	ENDS
;	COMDAT __real@4076200000000000
CONST	SEGMENT
__real@4076200000000000 DQ 04076200000000000r	; 354
CONST	ENDS
;	COMDAT __real@4075100000000000
CONST	SEGMENT
__real@4075100000000000 DQ 04075100000000000r	; 337
CONST	ENDS
;	COMDAT __real@4074100000000000
CONST	SEGMENT
__real@4074100000000000 DQ 04074100000000000r	; 321
CONST	ENDS
;	COMDAT __real@4073600000000000
CONST	SEGMENT
__real@4073600000000000 DQ 04073600000000000r	; 310
CONST	ENDS
;	COMDAT __real@406ca00000000000
CONST	SEGMENT
__real@406ca00000000000 DQ 0406ca00000000000r	; 229
CONST	ENDS
;	COMDAT ??_C@_0BL@LGMPIFCI@Invalid?5cockpit?5panel?5?$DN?5?$CFd@
CONST	SEGMENT
??_C@_0BL@LGMPIFCI@Invalid?5cockpit?5panel?5?$DN?5?$CFd@ DB 'Invalid cock'
	DB	'pit panel = %d', 00H			; `string'
CONST	ENDS
;	COMDAT ??_C@_0EN@FLMPPOBM@c?3?2users?2nhv90?2projects?2eech?2ap@
CONST	SEGMENT
??_C@_0EN@FLMPPOBM@c?3?2users?2nhv90?2projects?2eech?2ap@ DB 'c:\users\nh'
	DB	'v90\projects\eech\aphavoc\source\gunships\cockpits\hind\hi_ck'
	DB	'pt.c', 00H					; `string'
CONST	ENDS
; Function compile flags: /Odtp /ZI
; File c:\users\nhv90\projects\eech\aphavoc\source\gunships\cockpits\hind\hi_ckpt.c
;	COMDAT ?draw_hind_cockpit@@YGXW4COCKPIT_PANELS@@@Z
_TEXT	SEGMENT
tv82 = -76						; size = 4
tv76 = -72						; size = 4
tv94 = -68						; size = 4
tv69 = -68						; size = 4
_panel$ = 8						; size = 4
?draw_hind_cockpit@@YGXW4COCKPIT_PANELS@@@Z PROC	; draw_hind_cockpit, COMDAT

; 107  : {

  00000	55		 push	 ebp
  00001	8b ec		 mov	 ebp, esp
  00003	83 ec 4c	 sub	 esp, 76			; 0000004cH
  00006	53		 push	 ebx
  00007	56		 push	 esi
  00008	57		 push	 edi

; 108  : 	////////////////////////////////////////
; 109  : 	//
; 110  : 	// select cockpit graphics wrt time of day
; 111  : 	//
; 112  : 	////////////////////////////////////////
; 113  : 
; 114  : 	switch (get_local_entity_int_value (get_session_entity (), INT_TYPE_DAY_SEGMENT_TYPE))

  00009	83 3d 00 00 00
	00 00		 cmp	 DWORD PTR ?session_entity@@3PAUENTITY@@A, 0 ; session_entity
  00010	74 0c		 je	 SHORT $LN138@draw_hind_
  00012	a1 00 00 00 00	 mov	 eax, DWORD PTR ?session_entity@@3PAUENTITY@@A ; session_entity
  00017	8b 08		 mov	 ecx, DWORD PTR [eax]
  00019	89 4d bc	 mov	 DWORD PTR tv69[ebp], ecx
  0001c	eb 1a		 jmp	 SHORT $LN139@draw_hind_
$LN138@draw_hind_:
  0001e	6a 72		 push	 114			; 00000072H
  00020	68 00 00 00 00	 push	 OFFSET ??_C@_0EN@FLMPPOBM@c?3?2users?2nhv90?2projects?2eech?2ap@
  00025	8b 15 00 00 00
	00		 mov	 edx, DWORD PTR ?null_entity_pointer_message@@3PBDB ; null_entity_pointer_message
  0002b	52		 push	 edx
  0002c	e8 00 00 00 00	 call	 ?process_assert@@YGXPBD0H@Z ; process_assert
  00031	c7 45 bc 00 00
	00 00		 mov	 DWORD PTR tv69[ebp], 0
$LN139@draw_hind_:
  00038	b8 01 00 00 00	 mov	 eax, 1
  0003d	85 c0		 test	 eax, eax
  0003f	74 09		 je	 SHORT $LN140@draw_hind_
  00041	c7 45 b8 27 00
	00 00		 mov	 DWORD PTR tv76[ebp], 39	; 00000027H
  00048	eb 1a		 jmp	 SHORT $LN141@draw_hind_
$LN140@draw_hind_:
  0004a	6a 72		 push	 114			; 00000072H
  0004c	68 00 00 00 00	 push	 OFFSET ??_C@_0EN@FLMPPOBM@c?3?2users?2nhv90?2projects?2eech?2ap@
  00051	8b 0d 00 00 00
	00		 mov	 ecx, DWORD PTR ?overload_invalid_int_type_message@@3PBDB ; overload_invalid_int_type_message
  00057	51		 push	 ecx
  00058	e8 00 00 00 00	 call	 ?process_assert@@YGXPBD0H@Z ; process_assert
  0005d	c7 45 b8 00 00
	00 00		 mov	 DWORD PTR tv76[ebp], 0
$LN141@draw_hind_:
  00064	6a 27		 push	 39			; 00000027H
  00066	8b 15 00 00 00
	00		 mov	 edx, DWORD PTR ?session_entity@@3PAUENTITY@@A ; session_entity
  0006c	52		 push	 edx
  0006d	69 45 bc 5c 04
	00 00		 imul	 eax, DWORD PTR tv69[ebp], 1116
  00074	8b 4d b8	 mov	 ecx, DWORD PTR tv76[ebp]
  00077	8b 94 88 00 00
	00 00		 mov	 edx, DWORD PTR ?fn_get_local_entity_int_value@@3PAY0BBH@P6GHPAUENTITY@@W4INT_TYPES@@@ZA[eax+ecx*4]
  0007e	ff d2		 call	 edx
  00080	89 45 b4	 mov	 DWORD PTR tv82[ebp], eax
  00083	83 7d b4 03	 cmp	 DWORD PTR tv82[ebp], 3
  00087	77 38		 ja	 SHORT $LN2@draw_hind_
  00089	8b 45 b4	 mov	 eax, DWORD PTR tv82[ebp]
  0008c	ff 24 85 00 00
	00 00		 jmp	 DWORD PTR $LN142@draw_hind_[eax*4]
$LN6@draw_hind_:

; 115  : 	{
; 116  : 		case DAY_SEGMENT_TYPE_DAWN:
; 117  : 		{
; 118  : 			base_cockpit_graphics_file = GRAPHICS_COCKPITS_HAVOC_LEVEL2_BASE;

  00093	c7 05 00 00 00
	00 e8 00 00 00	 mov	 DWORD PTR ?base_cockpit_graphics_file@@3W4GRAPHICS_FILE_SPECIFIERS@@A, 232 ; base_cockpit_graphics_file, 000000e8H

; 119  : 
; 120  : 			break;

  0009d	eb 22		 jmp	 SHORT $LN2@draw_hind_
$LN7@draw_hind_:

; 121  : 		}
; 122  : 		case DAY_SEGMENT_TYPE_DAY:
; 123  : 		{
; 124  : 			base_cockpit_graphics_file = GRAPHICS_COCKPITS_HAVOC_LEVEL1_BASE;

  0009f	c7 05 00 00 00
	00 ba 00 00 00	 mov	 DWORD PTR ?base_cockpit_graphics_file@@3W4GRAPHICS_FILE_SPECIFIERS@@A, 186 ; base_cockpit_graphics_file, 000000baH

; 125  : 
; 126  : 			break;

  000a9	eb 16		 jmp	 SHORT $LN2@draw_hind_
$LN8@draw_hind_:

; 127  : 		}
; 128  : 		case DAY_SEGMENT_TYPE_DUSK:
; 129  : 		{
; 130  : 			base_cockpit_graphics_file = GRAPHICS_COCKPITS_HAVOC_LEVEL2_BASE;

  000ab	c7 05 00 00 00
	00 e8 00 00 00	 mov	 DWORD PTR ?base_cockpit_graphics_file@@3W4GRAPHICS_FILE_SPECIFIERS@@A, 232 ; base_cockpit_graphics_file, 000000e8H

; 131  : 
; 132  : 			break;

  000b5	eb 0a		 jmp	 SHORT $LN2@draw_hind_
$LN9@draw_hind_:

; 133  : 		}
; 134  : 		case DAY_SEGMENT_TYPE_NIGHT:
; 135  : 		{
; 136  : 			base_cockpit_graphics_file = GRAPHICS_COCKPITS_HAVOC_LEVEL3_BASE;

  000b7	c7 05 00 00 00
	00 16 01 00 00	 mov	 DWORD PTR ?base_cockpit_graphics_file@@3W4GRAPHICS_FILE_SPECIFIERS@@A, 278 ; base_cockpit_graphics_file, 00000116H
$LN2@draw_hind_:

; 137  : 
; 138  : 			break;
; 139  : 		}
; 140  : 	}
; 141  : 
; 142  : 	#if DEMO_VERSION
; 143  : 
; 144  : 	base_cockpit_graphics_file = GRAPHICS_COCKPITS_HAVOC_LEVEL1_BASE;
; 145  : 
; 146  : 	#endif
; 147  : 
; 148  : 	set_havoc_instrument_colours ();

  000c1	e8 00 00 00 00	 call	 ?set_havoc_instrument_colours@@YGXXZ ; set_havoc_instrument_colours

; 149  : 
; 150  : 	////////////////////////////////////////
; 151  : 	//
; 152  : 	// draw overlaid instruments
; 153  : 	//
; 154  : 	////////////////////////////////////////
; 155  : 
; 156  : 	if (!get_global_draw_cockpit_graphics ())

  000c6	83 3d b8 01 00
	00 00		 cmp	 DWORD PTR ?global_options@@3UGLOBAL_OPTIONS_DATA@@A+440, 0
  000cd	75 56		 jne	 SHORT $LN12@draw_hind_

; 157  : 	{
; 158  : 		if (get_global_draw_overlaid_instruments ())

  000cf	83 3d bc 01 00
	00 00		 cmp	 DWORD PTR ?global_options@@3UGLOBAL_OPTIONS_DATA@@A+444, 0
  000d6	74 4d		 je	 SHORT $LN12@draw_hind_

; 159  : 		{
; 160  : 			if (panel != COCKPIT_PANEL_SPECIAL_HAVOC_TV)

  000d8	83 7d 08 1e	 cmp	 DWORD PTR _panel$[ebp], 30 ; 0000001eH
  000dc	74 47		 je	 SHORT $LN12@draw_hind_

; 161  : 			{
; 162  : 				draw_overlaid_hind_mfd (68.0, 412.0, 128.0);

  000de	51		 push	 ecx
  000df	f3 0f 10 05 00
	00 00 00	 movss	 xmm0, DWORD PTR __real@43000000
  000e7	f3 0f 11 04 24	 movss	 DWORD PTR [esp], xmm0
  000ec	51		 push	 ecx
  000ed	f3 0f 10 05 00
	00 00 00	 movss	 xmm0, DWORD PTR __real@43ce0000
  000f5	f3 0f 11 04 24	 movss	 DWORD PTR [esp], xmm0
  000fa	51		 push	 ecx
  000fb	f3 0f 10 05 00
	00 00 00	 movss	 xmm0, DWORD PTR __real@42880000
  00103	f3 0f 11 04 24	 movss	 DWORD PTR [esp], xmm0
  00108	e8 00 00 00 00	 call	 ?draw_overlaid_hind_mfd@@YGXMMM@Z ; draw_overlaid_hind_mfd

; 163  : 
; 164  : 				draw_overlaid_hind_threat_warning_display (int_full_screen_width - 64, int_full_screen_height - 84);

  0010d	a1 00 00 00 00	 mov	 eax, DWORD PTR ?int_full_screen_height@@3HA ; int_full_screen_height
  00112	83 e8 54	 sub	 eax, 84			; 00000054H
  00115	50		 push	 eax
  00116	8b 0d 00 00 00
	00		 mov	 ecx, DWORD PTR ?int_full_screen_width@@3HA ; int_full_screen_width
  0011c	83 e9 40	 sub	 ecx, 64			; 00000040H
  0011f	51		 push	 ecx
  00120	e8 00 00 00 00	 call	 ?draw_overlaid_hind_threat_warning_display@@YGXHH@Z ; draw_overlaid_hind_threat_warning_display
$LN12@draw_hind_:

; 165  : 			}
; 166  : 		}
; 167  : 	}
; 168  : 
; 169  : 	////////////////////////////////////////
; 170  : 	//
; 171  : 	// draw cockpits
; 172  : 	//
; 173  : 	////////////////////////////////////////
; 174  : 
; 175  : 	switch (panel)

  00125	8b 45 08	 mov	 eax, DWORD PTR _panel$[ebp]
  00128	89 45 bc	 mov	 DWORD PTR tv94[ebp], eax
  0012b	83 7d bc 1f	 cmp	 DWORD PTR tv94[ebp], 31	; 0000001fH
  0012f	0f 87 9e 10 00
	00		 ja	 $LN136@draw_hind_
  00135	8b 4d bc	 mov	 ecx, DWORD PTR tv94[ebp]
  00138	ff 24 8d 00 00
	00 00		 jmp	 DWORD PTR $LN143@draw_hind_[ecx*4]
$LN13@draw_hind_:

; 176  : 	{
; 177  : 		////////////////////////////////////////
; 178  : 		case COCKPIT_PANEL_UP40_LEFT90:
; 179  : 		////////////////////////////////////////
; 180  : 		{
; 181  : 			if (get_global_draw_cockpit_graphics ())

  0013f	83 3d b8 01 00
	00 00		 cmp	 DWORD PTR ?global_options@@3UGLOBAL_OPTIONS_DATA@@A+440, 0
  00146	74 5c		 je	 SHORT $LN14@draw_hind_

; 182  : 			{
; 183  : 				if (custom_3d_models.arneh_mi24v_cockpit)

  00148	83 3d 04 00 00
	00 00		 cmp	 DWORD PTR ?custom_3d_models@@3Uinstalled_custom_3d_models@@A+4, 0
  0014f	74 0b		 je	 SHORT $LN16@draw_hind_

; 184  : 					draw_hind_external_3d_cockpit(0, NULL);

  00151	6a 00		 push	 0
  00153	6a 00		 push	 0
  00155	e8 00 00 00 00	 call	 ?draw_hind_external_3d_cockpit@@YGXIPAE@Z ; draw_hind_external_3d_cockpit

; 185  : 				else

  0015a	eb 46		 jmp	 SHORT $LN18@draw_hind_
$LN16@draw_hind_:

; 186  : 				{
; 187  : 					draw_hind_external_virtual_cockpit

  0015c	6a 00		 push	 0
  0015e	68 00 10 01 00	 push	 69632			; 00011000H
  00163	e8 00 00 00 00	 call	 ?draw_hind_external_virtual_cockpit@@YGXIPAE@Z ; draw_hind_external_virtual_cockpit

; 188  : 					(
; 189  : 						VIRTUAL_COCKPIT_RAIN_EFFECT |
; 190  : 						VIRTUAL_COCKPIT_MAIN_ROTOR,
; 191  : 						NULL
; 192  : 					);
; 193  : 	
; 194  : 					if (lock_screen (active_screen))

  00168	a1 00 00 00 00	 mov	 eax, DWORD PTR ?active_screen@@3PAUSCREEN@@A ; active_screen
  0016d	50		 push	 eax
  0016e	e8 00 00 00 00	 call	 ?lock_screen@@YGHPAUSCREEN@@@Z ; lock_screen
  00173	85 c0		 test	 eax, eax
  00175	74 2b		 je	 SHORT $LN18@draw_hind_

; 195  : 					{
; 196  : 						blit_rle_graphic (get_graphics_file_data (base_cockpit_graphics_file + GRAPHICS_COCKPITS_HAVOC_U40_L90_RLE), ix_640_480, iy_640_480);

  00177	a1 00 00 00 00	 mov	 eax, DWORD PTR ?iy_640_480@@3HA ; iy_640_480
  0017c	50		 push	 eax
  0017d	8b 0d 00 00 00
	00		 mov	 ecx, DWORD PTR ?ix_640_480@@3HA ; ix_640_480
  00183	51		 push	 ecx
  00184	6b 15 00 00 00
	00 28		 imul	 edx, DWORD PTR ?base_cockpit_graphics_file@@3W4GRAPHICS_FILE_SPECIFIERS@@A, 40 ; base_cockpit_graphics_file
  0018b	8b 82 1c 00 00
	00		 mov	 eax, DWORD PTR ?graphics_files@@3PAUFILE_DATA@@A[edx+28]
  00191	50		 push	 eax
  00192	e8 00 00 00 00	 call	 ?blit_rle_graphic@@YGXPBEHH@Z ; blit_rle_graphic

; 197  : 	
; 198  : 						unlock_screen (active_screen);

  00197	a1 00 00 00 00	 mov	 eax, DWORD PTR ?active_screen@@3PAUSCREEN@@A ; active_screen
  0019c	50		 push	 eax
  0019d	e8 00 00 00 00	 call	 ?unlock_screen@@YGHPAUSCREEN@@@Z ; unlock_screen
$LN18@draw_hind_:

; 199  : 					}
; 200  : 				}
; 201  : 			}
; 202  : 			else

  001a2	eb 07		 jmp	 SHORT $LN15@draw_hind_
$LN14@draw_hind_:

; 203  : 			{
; 204  : 				draw_hind_hud_on_cockpit (TRUE);

  001a4	6a 01		 push	 1
  001a6	e8 00 00 00 00	 call	 ?draw_hind_hud_on_cockpit@@YGXH@Z ; draw_hind_hud_on_cockpit
$LN15@draw_hind_:

; 205  : 			}
; 206  : 
; 207  : 			draw_hind_hms ();

  001ab	e8 00 00 00 00	 call	 ?draw_hind_hms@@YGXXZ	; draw_hind_hms

; 208  : 
; 209  : 			break;

  001b0	e9 2f 10 00 00	 jmp	 $LN4@draw_hind_
$LN19@draw_hind_:

; 210  : 		}
; 211  : 		////////////////////////////////////////
; 212  : 		case COCKPIT_PANEL_UP40_LEFT60:
; 213  : 		////////////////////////////////////////
; 214  : 		{
; 215  : 			if (get_global_draw_cockpit_graphics ())

  001b5	83 3d b8 01 00
	00 00		 cmp	 DWORD PTR ?global_options@@3UGLOBAL_OPTIONS_DATA@@A+440, 0
  001bc	74 4d		 je	 SHORT $LN20@draw_hind_

; 216  : 			{
; 217  : 				draw_hind_external_virtual_cockpit

  001be	6a 00		 push	 0
  001c0	68 00 10 01 00	 push	 69632			; 00011000H
  001c5	e8 00 00 00 00	 call	 ?draw_hind_external_virtual_cockpit@@YGXIPAE@Z ; draw_hind_external_virtual_cockpit

; 218  : 				(
; 219  : 					VIRTUAL_COCKPIT_RAIN_EFFECT |
; 220  : 					VIRTUAL_COCKPIT_MAIN_ROTOR,
; 221  : 					NULL
; 222  : 				);
; 223  : 
; 224  : 				if (lock_screen (active_screen))

  001ca	a1 00 00 00 00	 mov	 eax, DWORD PTR ?active_screen@@3PAUSCREEN@@A ; active_screen
  001cf	50		 push	 eax
  001d0	e8 00 00 00 00	 call	 ?lock_screen@@YGHPAUSCREEN@@@Z ; lock_screen
  001d5	85 c0		 test	 eax, eax
  001d7	74 30		 je	 SHORT $LN22@draw_hind_

; 225  : 				{
; 226  : 					blit_rle_graphic (get_graphics_file_data (base_cockpit_graphics_file + GRAPHICS_COCKPITS_HAVOC_U40_L60_RLE), ix_640_480, iy_640_480);

  001d9	a1 00 00 00 00	 mov	 eax, DWORD PTR ?iy_640_480@@3HA ; iy_640_480
  001de	50		 push	 eax
  001df	8b 0d 00 00 00
	00		 mov	 ecx, DWORD PTR ?ix_640_480@@3HA ; ix_640_480
  001e5	51		 push	 ecx
  001e6	8b 15 00 00 00
	00		 mov	 edx, DWORD PTR ?base_cockpit_graphics_file@@3W4GRAPHICS_FILE_SPECIFIERS@@A ; base_cockpit_graphics_file
  001ec	83 c2 01	 add	 edx, 1
  001ef	6b c2 28	 imul	 eax, edx, 40
  001f2	8b 88 1c 00 00
	00		 mov	 ecx, DWORD PTR ?graphics_files@@3PAUFILE_DATA@@A[eax+28]
  001f8	51		 push	 ecx
  001f9	e8 00 00 00 00	 call	 ?blit_rle_graphic@@YGXPBEHH@Z ; blit_rle_graphic

; 227  : 
; 228  : 					unlock_screen (active_screen);

  001fe	a1 00 00 00 00	 mov	 eax, DWORD PTR ?active_screen@@3PAUSCREEN@@A ; active_screen
  00203	50		 push	 eax
  00204	e8 00 00 00 00	 call	 ?unlock_screen@@YGHPAUSCREEN@@@Z ; unlock_screen
$LN22@draw_hind_:

; 229  : 				}
; 230  : 			}
; 231  : 			else

  00209	eb 07		 jmp	 SHORT $LN21@draw_hind_
$LN20@draw_hind_:

; 232  : 			{
; 233  : 				draw_hind_hud_on_cockpit (TRUE);

  0020b	6a 01		 push	 1
  0020d	e8 00 00 00 00	 call	 ?draw_hind_hud_on_cockpit@@YGXH@Z ; draw_hind_hud_on_cockpit
$LN21@draw_hind_:

; 234  : 			}
; 235  : 
; 236  : 			draw_hind_hms ();

  00212	e8 00 00 00 00	 call	 ?draw_hind_hms@@YGXXZ	; draw_hind_hms

; 237  : 
; 238  : 			break;

  00217	e9 c8 0f 00 00	 jmp	 $LN4@draw_hind_
$LN23@draw_hind_:

; 239  : 		}
; 240  : 		////////////////////////////////////////
; 241  : 		case COCKPIT_PANEL_UP40_LEFT30:
; 242  : 		////////////////////////////////////////
; 243  : 		{
; 244  : 			if (get_global_draw_cockpit_graphics ())

  0021c	83 3d b8 01 00
	00 00		 cmp	 DWORD PTR ?global_options@@3UGLOBAL_OPTIONS_DATA@@A+440, 0
  00223	74 4d		 je	 SHORT $LN24@draw_hind_

; 245  : 			{
; 246  : 				draw_hind_external_virtual_cockpit

  00225	6a 00		 push	 0
  00227	68 00 94 01 00	 push	 103424			; 00019400H
  0022c	e8 00 00 00 00	 call	 ?draw_hind_external_virtual_cockpit@@YGXIPAE@Z ; draw_hind_external_virtual_cockpit

; 247  : 				(
; 248  : 					VIRTUAL_COCKPIT_MOVING_WIPER |
; 249  : 					VIRTUAL_COCKPIT_RAIN_EFFECT |
; 250  : 					VIRTUAL_COCKPIT_MAIN_ROTOR |
; 251  : 					VIRTUAL_COCKPIT_COMPASS,
; 252  : 					NULL
; 253  : 				);
; 254  : 
; 255  : 				if (lock_screen (active_screen))

  00231	a1 00 00 00 00	 mov	 eax, DWORD PTR ?active_screen@@3PAUSCREEN@@A ; active_screen
  00236	50		 push	 eax
  00237	e8 00 00 00 00	 call	 ?lock_screen@@YGHPAUSCREEN@@@Z ; lock_screen
  0023c	85 c0		 test	 eax, eax
  0023e	74 30		 je	 SHORT $LN26@draw_hind_

; 256  : 				{
; 257  : 					blit_rle_graphic (get_graphics_file_data (base_cockpit_graphics_file + GRAPHICS_COCKPITS_HAVOC_U40_L30_RLE), ix_640_480, iy_640_480);

  00240	a1 00 00 00 00	 mov	 eax, DWORD PTR ?iy_640_480@@3HA ; iy_640_480
  00245	50		 push	 eax
  00246	8b 0d 00 00 00
	00		 mov	 ecx, DWORD PTR ?ix_640_480@@3HA ; ix_640_480
  0024c	51		 push	 ecx
  0024d	8b 15 00 00 00
	00		 mov	 edx, DWORD PTR ?base_cockpit_graphics_file@@3W4GRAPHICS_FILE_SPECIFIERS@@A ; base_cockpit_graphics_file
  00253	83 c2 02	 add	 edx, 2
  00256	6b c2 28	 imul	 eax, edx, 40
  00259	8b 88 1c 00 00
	00		 mov	 ecx, DWORD PTR ?graphics_files@@3PAUFILE_DATA@@A[eax+28]
  0025f	51		 push	 ecx
  00260	e8 00 00 00 00	 call	 ?blit_rle_graphic@@YGXPBEHH@Z ; blit_rle_graphic

; 258  : 
; 259  : 					unlock_screen (active_screen);

  00265	a1 00 00 00 00	 mov	 eax, DWORD PTR ?active_screen@@3PAUSCREEN@@A ; active_screen
  0026a	50		 push	 eax
  0026b	e8 00 00 00 00	 call	 ?unlock_screen@@YGHPAUSCREEN@@@Z ; unlock_screen
$LN26@draw_hind_:

; 260  : 				}
; 261  : 			}
; 262  : 			else

  00270	eb 07		 jmp	 SHORT $LN25@draw_hind_
$LN24@draw_hind_:

; 263  : 			{
; 264  : 				draw_hind_hud_on_cockpit (TRUE);

  00272	6a 01		 push	 1
  00274	e8 00 00 00 00	 call	 ?draw_hind_hud_on_cockpit@@YGXH@Z ; draw_hind_hud_on_cockpit
$LN25@draw_hind_:

; 265  : 			}
; 266  : 
; 267  : 			draw_hind_hms ();

  00279	e8 00 00 00 00	 call	 ?draw_hind_hms@@YGXXZ	; draw_hind_hms

; 268  : 
; 269  : 			break;

  0027e	e9 61 0f 00 00	 jmp	 $LN4@draw_hind_
$LN27@draw_hind_:

; 270  : 		}
; 271  : 		////////////////////////////////////////
; 272  : 		case COCKPIT_PANEL_UP40_AHEAD:
; 273  : 		////////////////////////////////////////
; 274  : 		{
; 275  : 			if (get_global_draw_cockpit_graphics ())

  00283	83 3d b8 01 00
	00 00		 cmp	 DWORD PTR ?global_options@@3UGLOBAL_OPTIONS_DATA@@A+440, 0
  0028a	74 5d		 je	 SHORT $LN28@draw_hind_

; 276  : 			{
; 277  : 				draw_hind_external_virtual_cockpit

  0028c	a1 00 00 00 00	 mov	 eax, DWORD PTR ?base_cockpit_graphics_file@@3W4GRAPHICS_FILE_SPECIFIERS@@A ; base_cockpit_graphics_file
  00291	83 c0 20	 add	 eax, 32			; 00000020H
  00294	6b c8 28	 imul	 ecx, eax, 40
  00297	8b 91 1c 00 00
	00		 mov	 edx, DWORD PTR ?graphics_files@@3PAUFILE_DATA@@A[ecx+28]
  0029d	52		 push	 edx
  0029e	68 00 b4 01 00	 push	 111616			; 0001b400H
  002a3	e8 00 00 00 00	 call	 ?draw_hind_external_virtual_cockpit@@YGXIPAE@Z ; draw_hind_external_virtual_cockpit

; 278  : 				(
; 279  : 					VIRTUAL_COCKPIT_RENDERED_WIPER |
; 280  : 					VIRTUAL_COCKPIT_MOVING_WIPER |
; 281  : 					VIRTUAL_COCKPIT_RAIN_EFFECT |
; 282  : 					VIRTUAL_COCKPIT_MAIN_ROTOR |
; 283  : 					VIRTUAL_COCKPIT_COMPASS,
; 284  : 					get_graphics_file_data (base_cockpit_graphics_file + GRAPHICS_COCKPITS_HAVOC_WIPER_U40_AHD_RLE)
; 285  : 				);
; 286  : 
; 287  : 				if (lock_screen (active_screen))

  002a8	a1 00 00 00 00	 mov	 eax, DWORD PTR ?active_screen@@3PAUSCREEN@@A ; active_screen
  002ad	50		 push	 eax
  002ae	e8 00 00 00 00	 call	 ?lock_screen@@YGHPAUSCREEN@@@Z ; lock_screen
  002b3	85 c0		 test	 eax, eax
  002b5	74 30		 je	 SHORT $LN30@draw_hind_

; 288  : 				{
; 289  : 					blit_rle_graphic (get_graphics_file_data (base_cockpit_graphics_file + GRAPHICS_COCKPITS_HAVOC_U40_AHD_RLE), ix_640_480, iy_640_480);

  002b7	a1 00 00 00 00	 mov	 eax, DWORD PTR ?iy_640_480@@3HA ; iy_640_480
  002bc	50		 push	 eax
  002bd	8b 0d 00 00 00
	00		 mov	 ecx, DWORD PTR ?ix_640_480@@3HA ; ix_640_480
  002c3	51		 push	 ecx
  002c4	8b 15 00 00 00
	00		 mov	 edx, DWORD PTR ?base_cockpit_graphics_file@@3W4GRAPHICS_FILE_SPECIFIERS@@A ; base_cockpit_graphics_file
  002ca	83 c2 03	 add	 edx, 3
  002cd	6b c2 28	 imul	 eax, edx, 40
  002d0	8b 88 1c 00 00
	00		 mov	 ecx, DWORD PTR ?graphics_files@@3PAUFILE_DATA@@A[eax+28]
  002d6	51		 push	 ecx
  002d7	e8 00 00 00 00	 call	 ?blit_rle_graphic@@YGXPBEHH@Z ; blit_rle_graphic

; 290  : 
; 291  : 					unlock_screen (active_screen);

  002dc	a1 00 00 00 00	 mov	 eax, DWORD PTR ?active_screen@@3PAUSCREEN@@A ; active_screen
  002e1	50		 push	 eax
  002e2	e8 00 00 00 00	 call	 ?unlock_screen@@YGHPAUSCREEN@@@Z ; unlock_screen
$LN30@draw_hind_:

; 292  : 				}
; 293  : 			}
; 294  : 			else

  002e7	eb 07		 jmp	 SHORT $LN29@draw_hind_
$LN28@draw_hind_:

; 295  : 			{
; 296  : 				draw_hind_hud_on_cockpit (TRUE);

  002e9	6a 01		 push	 1
  002eb	e8 00 00 00 00	 call	 ?draw_hind_hud_on_cockpit@@YGXH@Z ; draw_hind_hud_on_cockpit
$LN29@draw_hind_:

; 297  : 			}
; 298  : 
; 299  : 			draw_hind_hms ();

  002f0	e8 00 00 00 00	 call	 ?draw_hind_hms@@YGXXZ	; draw_hind_hms

; 300  : 
; 301  : 			break;

  002f5	e9 ea 0e 00 00	 jmp	 $LN4@draw_hind_
$LN31@draw_hind_:

; 302  : 		}
; 303  : 		////////////////////////////////////////
; 304  : 		case COCKPIT_PANEL_UP40_RIGHT30:
; 305  : 		////////////////////////////////////////
; 306  : 		{
; 307  : 			if (get_global_draw_cockpit_graphics ())

  002fa	83 3d b8 01 00
	00 00		 cmp	 DWORD PTR ?global_options@@3UGLOBAL_OPTIONS_DATA@@A+440, 0
  00301	74 5d		 je	 SHORT $LN32@draw_hind_

; 308  : 			{
; 309  : 				draw_hind_external_virtual_cockpit

  00303	a1 00 00 00 00	 mov	 eax, DWORD PTR ?base_cockpit_graphics_file@@3W4GRAPHICS_FILE_SPECIFIERS@@A ; base_cockpit_graphics_file
  00308	83 c0 21	 add	 eax, 33			; 00000021H
  0030b	6b c8 28	 imul	 ecx, eax, 40
  0030e	8b 91 1c 00 00
	00		 mov	 edx, DWORD PTR ?graphics_files@@3PAUFILE_DATA@@A[ecx+28]
  00314	52		 push	 edx
  00315	68 00 b0 01 00	 push	 110592			; 0001b000H
  0031a	e8 00 00 00 00	 call	 ?draw_hind_external_virtual_cockpit@@YGXIPAE@Z ; draw_hind_external_virtual_cockpit

; 310  : 				(
; 311  : 					VIRTUAL_COCKPIT_RENDERED_WIPER |
; 312  : 					VIRTUAL_COCKPIT_MOVING_WIPER |
; 313  : 					VIRTUAL_COCKPIT_RAIN_EFFECT |
; 314  : 					VIRTUAL_COCKPIT_MAIN_ROTOR,
; 315  : 					get_graphics_file_data (base_cockpit_graphics_file + GRAPHICS_COCKPITS_HAVOC_WIPER_U40_R30_RLE)
; 316  : 				);
; 317  : 
; 318  : 				if (lock_screen (active_screen))

  0031f	a1 00 00 00 00	 mov	 eax, DWORD PTR ?active_screen@@3PAUSCREEN@@A ; active_screen
  00324	50		 push	 eax
  00325	e8 00 00 00 00	 call	 ?lock_screen@@YGHPAUSCREEN@@@Z ; lock_screen
  0032a	85 c0		 test	 eax, eax
  0032c	74 30		 je	 SHORT $LN34@draw_hind_

; 319  : 				{
; 320  : 					blit_rle_graphic (get_graphics_file_data (base_cockpit_graphics_file + GRAPHICS_COCKPITS_HAVOC_U40_R30_RLE), ix_640_480, iy_640_480);

  0032e	a1 00 00 00 00	 mov	 eax, DWORD PTR ?iy_640_480@@3HA ; iy_640_480
  00333	50		 push	 eax
  00334	8b 0d 00 00 00
	00		 mov	 ecx, DWORD PTR ?ix_640_480@@3HA ; ix_640_480
  0033a	51		 push	 ecx
  0033b	8b 15 00 00 00
	00		 mov	 edx, DWORD PTR ?base_cockpit_graphics_file@@3W4GRAPHICS_FILE_SPECIFIERS@@A ; base_cockpit_graphics_file
  00341	83 c2 04	 add	 edx, 4
  00344	6b c2 28	 imul	 eax, edx, 40
  00347	8b 88 1c 00 00
	00		 mov	 ecx, DWORD PTR ?graphics_files@@3PAUFILE_DATA@@A[eax+28]
  0034d	51		 push	 ecx
  0034e	e8 00 00 00 00	 call	 ?blit_rle_graphic@@YGXPBEHH@Z ; blit_rle_graphic

; 321  : 
; 322  : 					unlock_screen (active_screen);

  00353	a1 00 00 00 00	 mov	 eax, DWORD PTR ?active_screen@@3PAUSCREEN@@A ; active_screen
  00358	50		 push	 eax
  00359	e8 00 00 00 00	 call	 ?unlock_screen@@YGHPAUSCREEN@@@Z ; unlock_screen
$LN34@draw_hind_:

; 323  : 				}
; 324  : 			}
; 325  : 			else

  0035e	eb 07		 jmp	 SHORT $LN33@draw_hind_
$LN32@draw_hind_:

; 326  : 			{
; 327  : 				draw_hind_hud_on_cockpit (TRUE);

  00360	6a 01		 push	 1
  00362	e8 00 00 00 00	 call	 ?draw_hind_hud_on_cockpit@@YGXH@Z ; draw_hind_hud_on_cockpit
$LN33@draw_hind_:

; 328  : 			}
; 329  : 
; 330  : 			draw_hind_hms ();

  00367	e8 00 00 00 00	 call	 ?draw_hind_hms@@YGXXZ	; draw_hind_hms

; 331  : 
; 332  : 			break;

  0036c	e9 73 0e 00 00	 jmp	 $LN4@draw_hind_
$LN35@draw_hind_:

; 333  : 		}
; 334  : 		////////////////////////////////////////
; 335  : 		case COCKPIT_PANEL_UP40_RIGHT60:
; 336  : 		////////////////////////////////////////
; 337  : 		{
; 338  : 			if (get_global_draw_cockpit_graphics ())

  00371	83 3d b8 01 00
	00 00		 cmp	 DWORD PTR ?global_options@@3UGLOBAL_OPTIONS_DATA@@A+440, 0
  00378	74 4d		 je	 SHORT $LN36@draw_hind_

; 339  : 			{
; 340  : 				draw_hind_external_virtual_cockpit

  0037a	6a 00		 push	 0
  0037c	68 00 10 01 00	 push	 69632			; 00011000H
  00381	e8 00 00 00 00	 call	 ?draw_hind_external_virtual_cockpit@@YGXIPAE@Z ; draw_hind_external_virtual_cockpit

; 341  : 				(
; 342  : 					VIRTUAL_COCKPIT_RAIN_EFFECT |
; 343  : 					VIRTUAL_COCKPIT_MAIN_ROTOR,
; 344  : 					NULL
; 345  : 				);
; 346  : 
; 347  : 				if (lock_screen (active_screen))

  00386	a1 00 00 00 00	 mov	 eax, DWORD PTR ?active_screen@@3PAUSCREEN@@A ; active_screen
  0038b	50		 push	 eax
  0038c	e8 00 00 00 00	 call	 ?lock_screen@@YGHPAUSCREEN@@@Z ; lock_screen
  00391	85 c0		 test	 eax, eax
  00393	74 30		 je	 SHORT $LN38@draw_hind_

; 348  : 				{
; 349  : 					blit_rle_graphic (get_graphics_file_data (base_cockpit_graphics_file + GRAPHICS_COCKPITS_HAVOC_U40_R60_RLE), ix_640_480, iy_640_480);

  00395	a1 00 00 00 00	 mov	 eax, DWORD PTR ?iy_640_480@@3HA ; iy_640_480
  0039a	50		 push	 eax
  0039b	8b 0d 00 00 00
	00		 mov	 ecx, DWORD PTR ?ix_640_480@@3HA ; ix_640_480
  003a1	51		 push	 ecx
  003a2	8b 15 00 00 00
	00		 mov	 edx, DWORD PTR ?base_cockpit_graphics_file@@3W4GRAPHICS_FILE_SPECIFIERS@@A ; base_cockpit_graphics_file
  003a8	83 c2 05	 add	 edx, 5
  003ab	6b c2 28	 imul	 eax, edx, 40
  003ae	8b 88 1c 00 00
	00		 mov	 ecx, DWORD PTR ?graphics_files@@3PAUFILE_DATA@@A[eax+28]
  003b4	51		 push	 ecx
  003b5	e8 00 00 00 00	 call	 ?blit_rle_graphic@@YGXPBEHH@Z ; blit_rle_graphic

; 350  : 
; 351  : 					unlock_screen (active_screen);

  003ba	a1 00 00 00 00	 mov	 eax, DWORD PTR ?active_screen@@3PAUSCREEN@@A ; active_screen
  003bf	50		 push	 eax
  003c0	e8 00 00 00 00	 call	 ?unlock_screen@@YGHPAUSCREEN@@@Z ; unlock_screen
$LN38@draw_hind_:

; 352  : 				}
; 353  : 			}
; 354  : 			else

  003c5	eb 07		 jmp	 SHORT $LN37@draw_hind_
$LN36@draw_hind_:

; 355  : 			{
; 356  : 				draw_hind_hud_on_cockpit (TRUE);

  003c7	6a 01		 push	 1
  003c9	e8 00 00 00 00	 call	 ?draw_hind_hud_on_cockpit@@YGXH@Z ; draw_hind_hud_on_cockpit
$LN37@draw_hind_:

; 357  : 			}
; 358  : 
; 359  : 			draw_hind_hms ();

  003ce	e8 00 00 00 00	 call	 ?draw_hind_hms@@YGXXZ	; draw_hind_hms

; 360  : 
; 361  : 			break;

  003d3	e9 0c 0e 00 00	 jmp	 $LN4@draw_hind_
$LN39@draw_hind_:

; 362  : 		}
; 363  : 		////////////////////////////////////////
; 364  : 		case COCKPIT_PANEL_UP40_RIGHT90:
; 365  : 		////////////////////////////////////////
; 366  : 		{
; 367  : 			if (get_global_draw_cockpit_graphics ())

  003d8	83 3d b8 01 00
	00 00		 cmp	 DWORD PTR ?global_options@@3UGLOBAL_OPTIONS_DATA@@A+440, 0
  003df	74 4d		 je	 SHORT $LN40@draw_hind_

; 368  : 			{
; 369  : 				draw_hind_external_virtual_cockpit

  003e1	6a 00		 push	 0
  003e3	68 00 10 01 00	 push	 69632			; 00011000H
  003e8	e8 00 00 00 00	 call	 ?draw_hind_external_virtual_cockpit@@YGXIPAE@Z ; draw_hind_external_virtual_cockpit

; 370  : 				(
; 371  : 					VIRTUAL_COCKPIT_RAIN_EFFECT |
; 372  : 					VIRTUAL_COCKPIT_MAIN_ROTOR,
; 373  : 					NULL
; 374  : 				);
; 375  : 
; 376  : 				if (lock_screen (active_screen))

  003ed	a1 00 00 00 00	 mov	 eax, DWORD PTR ?active_screen@@3PAUSCREEN@@A ; active_screen
  003f2	50		 push	 eax
  003f3	e8 00 00 00 00	 call	 ?lock_screen@@YGHPAUSCREEN@@@Z ; lock_screen
  003f8	85 c0		 test	 eax, eax
  003fa	74 30		 je	 SHORT $LN42@draw_hind_

; 377  : 				{
; 378  : 					blit_rle_graphic (get_graphics_file_data (base_cockpit_graphics_file + GRAPHICS_COCKPITS_HAVOC_U40_R90_RLE), ix_640_480, iy_640_480);

  003fc	a1 00 00 00 00	 mov	 eax, DWORD PTR ?iy_640_480@@3HA ; iy_640_480
  00401	50		 push	 eax
  00402	8b 0d 00 00 00
	00		 mov	 ecx, DWORD PTR ?ix_640_480@@3HA ; ix_640_480
  00408	51		 push	 ecx
  00409	8b 15 00 00 00
	00		 mov	 edx, DWORD PTR ?base_cockpit_graphics_file@@3W4GRAPHICS_FILE_SPECIFIERS@@A ; base_cockpit_graphics_file
  0040f	83 c2 06	 add	 edx, 6
  00412	6b c2 28	 imul	 eax, edx, 40
  00415	8b 88 1c 00 00
	00		 mov	 ecx, DWORD PTR ?graphics_files@@3PAUFILE_DATA@@A[eax+28]
  0041b	51		 push	 ecx
  0041c	e8 00 00 00 00	 call	 ?blit_rle_graphic@@YGXPBEHH@Z ; blit_rle_graphic

; 379  : 
; 380  : 					unlock_screen (active_screen);

  00421	a1 00 00 00 00	 mov	 eax, DWORD PTR ?active_screen@@3PAUSCREEN@@A ; active_screen
  00426	50		 push	 eax
  00427	e8 00 00 00 00	 call	 ?unlock_screen@@YGHPAUSCREEN@@@Z ; unlock_screen
$LN42@draw_hind_:

; 381  : 				}
; 382  : 			}
; 383  : 			else

  0042c	eb 07		 jmp	 SHORT $LN41@draw_hind_
$LN40@draw_hind_:

; 384  : 			{
; 385  : 				draw_hind_hud_on_cockpit (TRUE);

  0042e	6a 01		 push	 1
  00430	e8 00 00 00 00	 call	 ?draw_hind_hud_on_cockpit@@YGXH@Z ; draw_hind_hud_on_cockpit
$LN41@draw_hind_:

; 386  : 			}
; 387  : 
; 388  : 			draw_hind_hms ();

  00435	e8 00 00 00 00	 call	 ?draw_hind_hms@@YGXXZ	; draw_hind_hms

; 389  : 
; 390  : 			break;

  0043a	e9 a5 0d 00 00	 jmp	 $LN4@draw_hind_
$LN43@draw_hind_:

; 391  : 		}
; 392  : 		////////////////////////////////////////
; 393  : 		case COCKPIT_PANEL_UP20_LEFT90:
; 394  : 		////////////////////////////////////////
; 395  : 		{
; 396  : 			if (get_global_draw_cockpit_graphics ())

  0043f	83 3d b8 01 00
	00 00		 cmp	 DWORD PTR ?global_options@@3UGLOBAL_OPTIONS_DATA@@A+440, 0
  00446	74 4d		 je	 SHORT $LN44@draw_hind_

; 397  : 			{
; 398  : 				draw_hind_external_virtual_cockpit

  00448	6a 00		 push	 0
  0044a	68 00 10 01 00	 push	 69632			; 00011000H
  0044f	e8 00 00 00 00	 call	 ?draw_hind_external_virtual_cockpit@@YGXIPAE@Z ; draw_hind_external_virtual_cockpit

; 399  : 				(
; 400  : 					VIRTUAL_COCKPIT_RAIN_EFFECT |
; 401  : 					VIRTUAL_COCKPIT_MAIN_ROTOR,
; 402  : 					NULL
; 403  : 				);
; 404  : 
; 405  : 				if (lock_screen (active_screen))

  00454	a1 00 00 00 00	 mov	 eax, DWORD PTR ?active_screen@@3PAUSCREEN@@A ; active_screen
  00459	50		 push	 eax
  0045a	e8 00 00 00 00	 call	 ?lock_screen@@YGHPAUSCREEN@@@Z ; lock_screen
  0045f	85 c0		 test	 eax, eax
  00461	74 30		 je	 SHORT $LN46@draw_hind_

; 406  : 				{
; 407  : 					blit_rle_graphic (get_graphics_file_data (base_cockpit_graphics_file + GRAPHICS_COCKPITS_HAVOC_U20_L90_RLE), ix_640_480, iy_640_480);

  00463	a1 00 00 00 00	 mov	 eax, DWORD PTR ?iy_640_480@@3HA ; iy_640_480
  00468	50		 push	 eax
  00469	8b 0d 00 00 00
	00		 mov	 ecx, DWORD PTR ?ix_640_480@@3HA ; ix_640_480
  0046f	51		 push	 ecx
  00470	8b 15 00 00 00
	00		 mov	 edx, DWORD PTR ?base_cockpit_graphics_file@@3W4GRAPHICS_FILE_SPECIFIERS@@A ; base_cockpit_graphics_file
  00476	83 c2 07	 add	 edx, 7
  00479	6b c2 28	 imul	 eax, edx, 40
  0047c	8b 88 1c 00 00
	00		 mov	 ecx, DWORD PTR ?graphics_files@@3PAUFILE_DATA@@A[eax+28]
  00482	51		 push	 ecx
  00483	e8 00 00 00 00	 call	 ?blit_rle_graphic@@YGXPBEHH@Z ; blit_rle_graphic

; 408  : 
; 409  : 					unlock_screen (active_screen);

  00488	a1 00 00 00 00	 mov	 eax, DWORD PTR ?active_screen@@3PAUSCREEN@@A ; active_screen
  0048d	50		 push	 eax
  0048e	e8 00 00 00 00	 call	 ?unlock_screen@@YGHPAUSCREEN@@@Z ; unlock_screen
$LN46@draw_hind_:

; 410  : 				}
; 411  : 			}
; 412  : 			else

  00493	eb 07		 jmp	 SHORT $LN45@draw_hind_
$LN44@draw_hind_:

; 413  : 			{
; 414  : 				draw_hind_hud_on_cockpit (TRUE);

  00495	6a 01		 push	 1
  00497	e8 00 00 00 00	 call	 ?draw_hind_hud_on_cockpit@@YGXH@Z ; draw_hind_hud_on_cockpit
$LN45@draw_hind_:

; 415  : 			}
; 416  : 
; 417  : 			draw_hind_hms ();

  0049c	e8 00 00 00 00	 call	 ?draw_hind_hms@@YGXXZ	; draw_hind_hms

; 418  : 
; 419  : 			break;

  004a1	e9 3e 0d 00 00	 jmp	 $LN4@draw_hind_
$LN47@draw_hind_:

; 420  : 		}
; 421  : 		////////////////////////////////////////
; 422  : 		case COCKPIT_PANEL_UP20_LEFT60:
; 423  : 		////////////////////////////////////////
; 424  : 		{
; 425  : 			if (get_global_draw_cockpit_graphics ())

  004a6	83 3d b8 01 00
	00 00		 cmp	 DWORD PTR ?global_options@@3UGLOBAL_OPTIONS_DATA@@A+440, 0
  004ad	74 4d		 je	 SHORT $LN48@draw_hind_

; 426  : 			{
; 427  : 				draw_hind_external_virtual_cockpit

  004af	6a 00		 push	 0
  004b1	68 00 10 01 00	 push	 69632			; 00011000H
  004b6	e8 00 00 00 00	 call	 ?draw_hind_external_virtual_cockpit@@YGXIPAE@Z ; draw_hind_external_virtual_cockpit

; 428  : 				(
; 429  : 					VIRTUAL_COCKPIT_RAIN_EFFECT |
; 430  : 					VIRTUAL_COCKPIT_MAIN_ROTOR,
; 431  : 					NULL
; 432  : 				);
; 433  : 
; 434  : 				if (lock_screen (active_screen))

  004bb	a1 00 00 00 00	 mov	 eax, DWORD PTR ?active_screen@@3PAUSCREEN@@A ; active_screen
  004c0	50		 push	 eax
  004c1	e8 00 00 00 00	 call	 ?lock_screen@@YGHPAUSCREEN@@@Z ; lock_screen
  004c6	85 c0		 test	 eax, eax
  004c8	74 30		 je	 SHORT $LN50@draw_hind_

; 435  : 				{
; 436  : 					blit_rle_graphic (get_graphics_file_data (base_cockpit_graphics_file + GRAPHICS_COCKPITS_HAVOC_U20_L60_RLE), ix_640_480, iy_640_480);

  004ca	a1 00 00 00 00	 mov	 eax, DWORD PTR ?iy_640_480@@3HA ; iy_640_480
  004cf	50		 push	 eax
  004d0	8b 0d 00 00 00
	00		 mov	 ecx, DWORD PTR ?ix_640_480@@3HA ; ix_640_480
  004d6	51		 push	 ecx
  004d7	8b 15 00 00 00
	00		 mov	 edx, DWORD PTR ?base_cockpit_graphics_file@@3W4GRAPHICS_FILE_SPECIFIERS@@A ; base_cockpit_graphics_file
  004dd	83 c2 08	 add	 edx, 8
  004e0	6b c2 28	 imul	 eax, edx, 40
  004e3	8b 88 1c 00 00
	00		 mov	 ecx, DWORD PTR ?graphics_files@@3PAUFILE_DATA@@A[eax+28]
  004e9	51		 push	 ecx
  004ea	e8 00 00 00 00	 call	 ?blit_rle_graphic@@YGXPBEHH@Z ; blit_rle_graphic

; 437  : 
; 438  : 					unlock_screen (active_screen);

  004ef	a1 00 00 00 00	 mov	 eax, DWORD PTR ?active_screen@@3PAUSCREEN@@A ; active_screen
  004f4	50		 push	 eax
  004f5	e8 00 00 00 00	 call	 ?unlock_screen@@YGHPAUSCREEN@@@Z ; unlock_screen
$LN50@draw_hind_:

; 439  : 				}
; 440  : 			}
; 441  : 			else

  004fa	eb 07		 jmp	 SHORT $LN49@draw_hind_
$LN48@draw_hind_:

; 442  : 			{
; 443  : 				draw_hind_hud_on_cockpit (TRUE);

  004fc	6a 01		 push	 1
  004fe	e8 00 00 00 00	 call	 ?draw_hind_hud_on_cockpit@@YGXH@Z ; draw_hind_hud_on_cockpit
$LN49@draw_hind_:

; 444  : 			}
; 445  : 
; 446  : 			draw_hind_hms ();

  00503	e8 00 00 00 00	 call	 ?draw_hind_hms@@YGXXZ	; draw_hind_hms

; 447  : 
; 448  : 			break;

  00508	e9 d7 0c 00 00	 jmp	 $LN4@draw_hind_
$LN51@draw_hind_:

; 449  : 		}
; 450  : 		////////////////////////////////////////
; 451  : 		case COCKPIT_PANEL_UP20_LEFT30:
; 452  : 		////////////////////////////////////////
; 453  : 		{
; 454  : 			if (get_global_draw_cockpit_graphics ())

  0050d	83 3d b8 01 00
	00 00		 cmp	 DWORD PTR ?global_options@@3UGLOBAL_OPTIONS_DATA@@A+440, 0
  00514	74 6f		 je	 SHORT $LN52@draw_hind_

; 455  : 			{
; 456  : 				if (custom_3d_models.arneh_mi24v_cockpit)

  00516	83 3d 04 00 00
	00 00		 cmp	 DWORD PTR ?custom_3d_models@@3Uinstalled_custom_3d_models@@A+4, 0
  0051d	74 12		 je	 SHORT $LN54@draw_hind_

; 457  : 				{
; 458  : 					draw_hind_external_3d_cockpit(0, NULL);

  0051f	6a 00		 push	 0
  00521	6a 00		 push	 0
  00523	e8 00 00 00 00	 call	 ?draw_hind_external_3d_cockpit@@YGXIPAE@Z ; draw_hind_external_3d_cockpit

; 459  : 					draw_hind_internal_3d_cockpit(0);

  00528	6a 00		 push	 0
  0052a	e8 00 00 00 00	 call	 ?draw_hind_internal_3d_cockpit@@YGXI@Z ; draw_hind_internal_3d_cockpit

; 460  : 				}
; 461  : 				else

  0052f	eb 52		 jmp	 SHORT $LN55@draw_hind_
$LN54@draw_hind_:

; 462  : 				{
; 463  : 					draw_hind_external_virtual_cockpit

  00531	6a 00		 push	 0
  00533	68 00 94 01 00	 push	 103424			; 00019400H
  00538	e8 00 00 00 00	 call	 ?draw_hind_external_virtual_cockpit@@YGXIPAE@Z ; draw_hind_external_virtual_cockpit

; 464  : 					(
; 465  : 						VIRTUAL_COCKPIT_MOVING_WIPER |
; 466  : 						VIRTUAL_COCKPIT_RAIN_EFFECT |
; 467  : 						VIRTUAL_COCKPIT_MAIN_ROTOR |
; 468  : 						VIRTUAL_COCKPIT_COMPASS,
; 469  : 						NULL
; 470  : 					);
; 471  : 	
; 472  : 					if (lock_screen (active_screen))

  0053d	a1 00 00 00 00	 mov	 eax, DWORD PTR ?active_screen@@3PAUSCREEN@@A ; active_screen
  00542	50		 push	 eax
  00543	e8 00 00 00 00	 call	 ?lock_screen@@YGHPAUSCREEN@@@Z ; lock_screen
  00548	85 c0		 test	 eax, eax
  0054a	74 30		 je	 SHORT $LN56@draw_hind_

; 473  : 					{
; 474  : 						blit_rle_graphic (get_graphics_file_data (base_cockpit_graphics_file + GRAPHICS_COCKPITS_HAVOC_U20_L30_RLE), ix_640_480, iy_640_480);

  0054c	a1 00 00 00 00	 mov	 eax, DWORD PTR ?iy_640_480@@3HA ; iy_640_480
  00551	50		 push	 eax
  00552	8b 0d 00 00 00
	00		 mov	 ecx, DWORD PTR ?ix_640_480@@3HA ; ix_640_480
  00558	51		 push	 ecx
  00559	8b 15 00 00 00
	00		 mov	 edx, DWORD PTR ?base_cockpit_graphics_file@@3W4GRAPHICS_FILE_SPECIFIERS@@A ; base_cockpit_graphics_file
  0055f	83 c2 09	 add	 edx, 9
  00562	6b c2 28	 imul	 eax, edx, 40
  00565	8b 88 1c 00 00
	00		 mov	 ecx, DWORD PTR ?graphics_files@@3PAUFILE_DATA@@A[eax+28]
  0056b	51		 push	 ecx
  0056c	e8 00 00 00 00	 call	 ?blit_rle_graphic@@YGXPBEHH@Z ; blit_rle_graphic

; 475  : 	
; 476  : 						unlock_screen (active_screen);

  00571	a1 00 00 00 00	 mov	 eax, DWORD PTR ?active_screen@@3PAUSCREEN@@A ; active_screen
  00576	50		 push	 eax
  00577	e8 00 00 00 00	 call	 ?unlock_screen@@YGHPAUSCREEN@@@Z ; unlock_screen
$LN56@draw_hind_:

; 477  : 					}
; 478  : 
; 479  : 					draw_hind_internal_virtual_cockpit

  0057c	6a 0c		 push	 12			; 0000000cH
  0057e	e8 00 00 00 00	 call	 ?draw_hind_internal_virtual_cockpit@@YGXI@Z ; draw_hind_internal_virtual_cockpit
$LN55@draw_hind_:

; 480  : 					(
; 481  : 						VIRTUAL_COCKPIT_HUD_GLASS |
; 482  : 						VIRTUAL_COCKPIT_HUD_DISPLAY
; 483  : 					);
; 484  : 				}
; 485  : 			}
; 486  : 			else

  00583	eb 07		 jmp	 SHORT $LN53@draw_hind_
$LN52@draw_hind_:

; 487  : 			{
; 488  : 				draw_hind_hud_on_cockpit (TRUE);

  00585	6a 01		 push	 1
  00587	e8 00 00 00 00	 call	 ?draw_hind_hud_on_cockpit@@YGXH@Z ; draw_hind_hud_on_cockpit
$LN53@draw_hind_:

; 489  : 			}
; 490  : 
; 491  : 			draw_hind_hms ();

  0058c	e8 00 00 00 00	 call	 ?draw_hind_hms@@YGXXZ	; draw_hind_hms

; 492  : 
; 493  : 			break;

  00591	e9 4e 0c 00 00	 jmp	 $LN4@draw_hind_
$LN57@draw_hind_:

; 494  : 		}
; 495  : 		////////////////////////////////////////
; 496  : 		case COCKPIT_PANEL_UP20_AHEAD:
; 497  : 		////////////////////////////////////////
; 498  : 		{
; 499  : 			if (get_global_draw_cockpit_graphics ())

  00596	83 3d b8 01 00
	00 00		 cmp	 DWORD PTR ?global_options@@3UGLOBAL_OPTIONS_DATA@@A+440, 0
  0059d	74 64		 je	 SHORT $LN58@draw_hind_

; 500  : 			{
; 501  : 				draw_hind_external_virtual_cockpit

  0059f	a1 00 00 00 00	 mov	 eax, DWORD PTR ?base_cockpit_graphics_file@@3W4GRAPHICS_FILE_SPECIFIERS@@A ; base_cockpit_graphics_file
  005a4	83 c0 22	 add	 eax, 34			; 00000022H
  005a7	6b c8 28	 imul	 ecx, eax, 40
  005aa	8b 91 1c 00 00
	00		 mov	 edx, DWORD PTR ?graphics_files@@3PAUFILE_DATA@@A[ecx+28]
  005b0	52		 push	 edx
  005b1	68 00 b4 01 00	 push	 111616			; 0001b400H
  005b6	e8 00 00 00 00	 call	 ?draw_hind_external_virtual_cockpit@@YGXIPAE@Z ; draw_hind_external_virtual_cockpit

; 502  : 				(
; 503  : 					VIRTUAL_COCKPIT_RENDERED_WIPER |
; 504  : 					VIRTUAL_COCKPIT_MOVING_WIPER |
; 505  : 					VIRTUAL_COCKPIT_RAIN_EFFECT |
; 506  : 					VIRTUAL_COCKPIT_MAIN_ROTOR |
; 507  : 					VIRTUAL_COCKPIT_COMPASS,
; 508  : 					get_graphics_file_data (base_cockpit_graphics_file + GRAPHICS_COCKPITS_HAVOC_WIPER_U20_AHD_RLE)
; 509  : 				);
; 510  : 
; 511  : 				if (lock_screen (active_screen))

  005bb	a1 00 00 00 00	 mov	 eax, DWORD PTR ?active_screen@@3PAUSCREEN@@A ; active_screen
  005c0	50		 push	 eax
  005c1	e8 00 00 00 00	 call	 ?lock_screen@@YGHPAUSCREEN@@@Z ; lock_screen
  005c6	85 c0		 test	 eax, eax
  005c8	74 30		 je	 SHORT $LN60@draw_hind_

; 512  : 				{
; 513  : 					blit_rle_graphic (get_graphics_file_data (base_cockpit_graphics_file + GRAPHICS_COCKPITS_HAVOC_U20_AHD_RLE), ix_640_480, iy_640_480);

  005ca	a1 00 00 00 00	 mov	 eax, DWORD PTR ?iy_640_480@@3HA ; iy_640_480
  005cf	50		 push	 eax
  005d0	8b 0d 00 00 00
	00		 mov	 ecx, DWORD PTR ?ix_640_480@@3HA ; ix_640_480
  005d6	51		 push	 ecx
  005d7	8b 15 00 00 00
	00		 mov	 edx, DWORD PTR ?base_cockpit_graphics_file@@3W4GRAPHICS_FILE_SPECIFIERS@@A ; base_cockpit_graphics_file
  005dd	83 c2 0a	 add	 edx, 10			; 0000000aH
  005e0	6b c2 28	 imul	 eax, edx, 40
  005e3	8b 88 1c 00 00
	00		 mov	 ecx, DWORD PTR ?graphics_files@@3PAUFILE_DATA@@A[eax+28]
  005e9	51		 push	 ecx
  005ea	e8 00 00 00 00	 call	 ?blit_rle_graphic@@YGXPBEHH@Z ; blit_rle_graphic

; 514  : 
; 515  : 					unlock_screen (active_screen);

  005ef	a1 00 00 00 00	 mov	 eax, DWORD PTR ?active_screen@@3PAUSCREEN@@A ; active_screen
  005f4	50		 push	 eax
  005f5	e8 00 00 00 00	 call	 ?unlock_screen@@YGHPAUSCREEN@@@Z ; unlock_screen
$LN60@draw_hind_:

; 516  : 				}
; 517  : 
; 518  : 				draw_hind_internal_virtual_cockpit

  005fa	6a 0c		 push	 12			; 0000000cH
  005fc	e8 00 00 00 00	 call	 ?draw_hind_internal_virtual_cockpit@@YGXI@Z ; draw_hind_internal_virtual_cockpit

; 519  : 				(
; 520  : 					VIRTUAL_COCKPIT_HUD_GLASS |
; 521  : 					VIRTUAL_COCKPIT_HUD_DISPLAY
; 522  : 				);
; 523  : 			}
; 524  : 			else

  00601	eb 07		 jmp	 SHORT $LN59@draw_hind_
$LN58@draw_hind_:

; 525  : 			{
; 526  : 				draw_hind_hud_on_cockpit (TRUE);

  00603	6a 01		 push	 1
  00605	e8 00 00 00 00	 call	 ?draw_hind_hud_on_cockpit@@YGXH@Z ; draw_hind_hud_on_cockpit
$LN59@draw_hind_:

; 527  : 			}
; 528  : 
; 529  : 			draw_hind_hms ();

  0060a	e8 00 00 00 00	 call	 ?draw_hind_hms@@YGXXZ	; draw_hind_hms

; 530  : 
; 531  : 			break;

  0060f	e9 d0 0b 00 00	 jmp	 $LN4@draw_hind_
$LN61@draw_hind_:

; 532  : 		}
; 533  : 		////////////////////////////////////////
; 534  : 		case COCKPIT_PANEL_UP20_RIGHT30:
; 535  : 		////////////////////////////////////////
; 536  : 		{
; 537  : 			if (get_global_draw_cockpit_graphics ())

  00614	83 3d b8 01 00
	00 00		 cmp	 DWORD PTR ?global_options@@3UGLOBAL_OPTIONS_DATA@@A+440, 0
  0061b	74 64		 je	 SHORT $LN62@draw_hind_

; 538  : 			{
; 539  : 				draw_hind_external_virtual_cockpit

  0061d	a1 00 00 00 00	 mov	 eax, DWORD PTR ?base_cockpit_graphics_file@@3W4GRAPHICS_FILE_SPECIFIERS@@A ; base_cockpit_graphics_file
  00622	83 c0 23	 add	 eax, 35			; 00000023H
  00625	6b c8 28	 imul	 ecx, eax, 40
  00628	8b 91 1c 00 00
	00		 mov	 edx, DWORD PTR ?graphics_files@@3PAUFILE_DATA@@A[ecx+28]
  0062e	52		 push	 edx
  0062f	68 00 b0 01 00	 push	 110592			; 0001b000H
  00634	e8 00 00 00 00	 call	 ?draw_hind_external_virtual_cockpit@@YGXIPAE@Z ; draw_hind_external_virtual_cockpit

; 540  : 				(
; 541  : 					VIRTUAL_COCKPIT_RENDERED_WIPER |
; 542  : 					VIRTUAL_COCKPIT_MOVING_WIPER |
; 543  : 					VIRTUAL_COCKPIT_RAIN_EFFECT |
; 544  : 					VIRTUAL_COCKPIT_MAIN_ROTOR,
; 545  : 					get_graphics_file_data (base_cockpit_graphics_file + GRAPHICS_COCKPITS_HAVOC_WIPER_U20_R30_RLE)
; 546  : 				);
; 547  : 
; 548  : 				if (lock_screen (active_screen))

  00639	a1 00 00 00 00	 mov	 eax, DWORD PTR ?active_screen@@3PAUSCREEN@@A ; active_screen
  0063e	50		 push	 eax
  0063f	e8 00 00 00 00	 call	 ?lock_screen@@YGHPAUSCREEN@@@Z ; lock_screen
  00644	85 c0		 test	 eax, eax
  00646	74 30		 je	 SHORT $LN64@draw_hind_

; 549  : 				{
; 550  : 					blit_rle_graphic (get_graphics_file_data (base_cockpit_graphics_file + GRAPHICS_COCKPITS_HAVOC_U20_R30_RLE), ix_640_480, iy_640_480);

  00648	a1 00 00 00 00	 mov	 eax, DWORD PTR ?iy_640_480@@3HA ; iy_640_480
  0064d	50		 push	 eax
  0064e	8b 0d 00 00 00
	00		 mov	 ecx, DWORD PTR ?ix_640_480@@3HA ; ix_640_480
  00654	51		 push	 ecx
  00655	8b 15 00 00 00
	00		 mov	 edx, DWORD PTR ?base_cockpit_graphics_file@@3W4GRAPHICS_FILE_SPECIFIERS@@A ; base_cockpit_graphics_file
  0065b	83 c2 0b	 add	 edx, 11			; 0000000bH
  0065e	6b c2 28	 imul	 eax, edx, 40
  00661	8b 88 1c 00 00
	00		 mov	 ecx, DWORD PTR ?graphics_files@@3PAUFILE_DATA@@A[eax+28]
  00667	51		 push	 ecx
  00668	e8 00 00 00 00	 call	 ?blit_rle_graphic@@YGXPBEHH@Z ; blit_rle_graphic

; 551  : 
; 552  : 					unlock_screen (active_screen);

  0066d	a1 00 00 00 00	 mov	 eax, DWORD PTR ?active_screen@@3PAUSCREEN@@A ; active_screen
  00672	50		 push	 eax
  00673	e8 00 00 00 00	 call	 ?unlock_screen@@YGHPAUSCREEN@@@Z ; unlock_screen
$LN64@draw_hind_:

; 553  : 				}
; 554  : 
; 555  : 				draw_hind_internal_virtual_cockpit

  00678	6a 0c		 push	 12			; 0000000cH
  0067a	e8 00 00 00 00	 call	 ?draw_hind_internal_virtual_cockpit@@YGXI@Z ; draw_hind_internal_virtual_cockpit

; 556  : 				(
; 557  : 					VIRTUAL_COCKPIT_HUD_GLASS |
; 558  : 					VIRTUAL_COCKPIT_HUD_DISPLAY
; 559  : 				);
; 560  : 			}
; 561  : 			else

  0067f	eb 07		 jmp	 SHORT $LN63@draw_hind_
$LN62@draw_hind_:

; 562  : 			{
; 563  : 				draw_hind_hud_on_cockpit (TRUE);

  00681	6a 01		 push	 1
  00683	e8 00 00 00 00	 call	 ?draw_hind_hud_on_cockpit@@YGXH@Z ; draw_hind_hud_on_cockpit
$LN63@draw_hind_:

; 564  : 			}
; 565  : 
; 566  : 			draw_hind_hms ();

  00688	e8 00 00 00 00	 call	 ?draw_hind_hms@@YGXXZ	; draw_hind_hms

; 567  : 
; 568  : 			break;

  0068d	e9 52 0b 00 00	 jmp	 $LN4@draw_hind_
$LN65@draw_hind_:

; 569  : 		}
; 570  : 		////////////////////////////////////////
; 571  : 		case COCKPIT_PANEL_UP20_RIGHT60:
; 572  : 		////////////////////////////////////////
; 573  : 		{
; 574  : 			if (get_global_draw_cockpit_graphics ())

  00692	83 3d b8 01 00
	00 00		 cmp	 DWORD PTR ?global_options@@3UGLOBAL_OPTIONS_DATA@@A+440, 0
  00699	74 4d		 je	 SHORT $LN66@draw_hind_

; 575  : 			{
; 576  : 				draw_hind_external_virtual_cockpit

  0069b	6a 00		 push	 0
  0069d	68 00 10 01 00	 push	 69632			; 00011000H
  006a2	e8 00 00 00 00	 call	 ?draw_hind_external_virtual_cockpit@@YGXIPAE@Z ; draw_hind_external_virtual_cockpit

; 577  : 				(
; 578  : 					VIRTUAL_COCKPIT_RAIN_EFFECT |
; 579  : 					VIRTUAL_COCKPIT_MAIN_ROTOR,
; 580  : 					NULL
; 581  : 				);
; 582  : 
; 583  : 				if (lock_screen (active_screen))

  006a7	a1 00 00 00 00	 mov	 eax, DWORD PTR ?active_screen@@3PAUSCREEN@@A ; active_screen
  006ac	50		 push	 eax
  006ad	e8 00 00 00 00	 call	 ?lock_screen@@YGHPAUSCREEN@@@Z ; lock_screen
  006b2	85 c0		 test	 eax, eax
  006b4	74 30		 je	 SHORT $LN68@draw_hind_

; 584  : 				{
; 585  : 					blit_rle_graphic (get_graphics_file_data (base_cockpit_graphics_file + GRAPHICS_COCKPITS_HAVOC_U20_R60_RLE), ix_640_480, iy_640_480);

  006b6	a1 00 00 00 00	 mov	 eax, DWORD PTR ?iy_640_480@@3HA ; iy_640_480
  006bb	50		 push	 eax
  006bc	8b 0d 00 00 00
	00		 mov	 ecx, DWORD PTR ?ix_640_480@@3HA ; ix_640_480
  006c2	51		 push	 ecx
  006c3	8b 15 00 00 00
	00		 mov	 edx, DWORD PTR ?base_cockpit_graphics_file@@3W4GRAPHICS_FILE_SPECIFIERS@@A ; base_cockpit_graphics_file
  006c9	83 c2 0c	 add	 edx, 12			; 0000000cH
  006cc	6b c2 28	 imul	 eax, edx, 40
  006cf	8b 88 1c 00 00
	00		 mov	 ecx, DWORD PTR ?graphics_files@@3PAUFILE_DATA@@A[eax+28]
  006d5	51		 push	 ecx
  006d6	e8 00 00 00 00	 call	 ?blit_rle_graphic@@YGXPBEHH@Z ; blit_rle_graphic

; 586  : 
; 587  : 					unlock_screen (active_screen);

  006db	a1 00 00 00 00	 mov	 eax, DWORD PTR ?active_screen@@3PAUSCREEN@@A ; active_screen
  006e0	50		 push	 eax
  006e1	e8 00 00 00 00	 call	 ?unlock_screen@@YGHPAUSCREEN@@@Z ; unlock_screen
$LN68@draw_hind_:

; 588  : 				}
; 589  : 			}
; 590  : 			else

  006e6	eb 07		 jmp	 SHORT $LN67@draw_hind_
$LN66@draw_hind_:

; 591  : 			{
; 592  : 				draw_hind_hud_on_cockpit (TRUE);

  006e8	6a 01		 push	 1
  006ea	e8 00 00 00 00	 call	 ?draw_hind_hud_on_cockpit@@YGXH@Z ; draw_hind_hud_on_cockpit
$LN67@draw_hind_:

; 593  : 			}
; 594  : 
; 595  : 			draw_hind_hms ();

  006ef	e8 00 00 00 00	 call	 ?draw_hind_hms@@YGXXZ	; draw_hind_hms

; 596  : 
; 597  : 			break;

  006f4	e9 eb 0a 00 00	 jmp	 $LN4@draw_hind_
$LN69@draw_hind_:

; 598  : 		}
; 599  : 		////////////////////////////////////////
; 600  : 		case COCKPIT_PANEL_UP20_RIGHT90:
; 601  : 		////////////////////////////////////////
; 602  : 		{
; 603  : 			if (get_global_draw_cockpit_graphics ())

  006f9	83 3d b8 01 00
	00 00		 cmp	 DWORD PTR ?global_options@@3UGLOBAL_OPTIONS_DATA@@A+440, 0
  00700	74 4d		 je	 SHORT $LN70@draw_hind_

; 604  : 			{
; 605  : 				draw_hind_external_virtual_cockpit

  00702	6a 00		 push	 0
  00704	68 00 10 01 00	 push	 69632			; 00011000H
  00709	e8 00 00 00 00	 call	 ?draw_hind_external_virtual_cockpit@@YGXIPAE@Z ; draw_hind_external_virtual_cockpit

; 606  : 				(
; 607  : 					VIRTUAL_COCKPIT_RAIN_EFFECT |
; 608  : 					VIRTUAL_COCKPIT_MAIN_ROTOR,
; 609  : 					NULL
; 610  : 				);
; 611  : 
; 612  : 				if (lock_screen (active_screen))

  0070e	a1 00 00 00 00	 mov	 eax, DWORD PTR ?active_screen@@3PAUSCREEN@@A ; active_screen
  00713	50		 push	 eax
  00714	e8 00 00 00 00	 call	 ?lock_screen@@YGHPAUSCREEN@@@Z ; lock_screen
  00719	85 c0		 test	 eax, eax
  0071b	74 30		 je	 SHORT $LN72@draw_hind_

; 613  : 				{
; 614  : 					blit_rle_graphic (get_graphics_file_data (base_cockpit_graphics_file + GRAPHICS_COCKPITS_HAVOC_U20_R90_RLE), ix_640_480, iy_640_480);

  0071d	a1 00 00 00 00	 mov	 eax, DWORD PTR ?iy_640_480@@3HA ; iy_640_480
  00722	50		 push	 eax
  00723	8b 0d 00 00 00
	00		 mov	 ecx, DWORD PTR ?ix_640_480@@3HA ; ix_640_480
  00729	51		 push	 ecx
  0072a	8b 15 00 00 00
	00		 mov	 edx, DWORD PTR ?base_cockpit_graphics_file@@3W4GRAPHICS_FILE_SPECIFIERS@@A ; base_cockpit_graphics_file
  00730	83 c2 0d	 add	 edx, 13			; 0000000dH
  00733	6b c2 28	 imul	 eax, edx, 40
  00736	8b 88 1c 00 00
	00		 mov	 ecx, DWORD PTR ?graphics_files@@3PAUFILE_DATA@@A[eax+28]
  0073c	51		 push	 ecx
  0073d	e8 00 00 00 00	 call	 ?blit_rle_graphic@@YGXPBEHH@Z ; blit_rle_graphic

; 615  : 
; 616  : 					unlock_screen (active_screen);

  00742	a1 00 00 00 00	 mov	 eax, DWORD PTR ?active_screen@@3PAUSCREEN@@A ; active_screen
  00747	50		 push	 eax
  00748	e8 00 00 00 00	 call	 ?unlock_screen@@YGHPAUSCREEN@@@Z ; unlock_screen
$LN72@draw_hind_:

; 617  : 				}
; 618  : 			}
; 619  : 			else

  0074d	eb 07		 jmp	 SHORT $LN71@draw_hind_
$LN70@draw_hind_:

; 620  : 			{
; 621  : 				draw_hind_hud_on_cockpit (TRUE);

  0074f	6a 01		 push	 1
  00751	e8 00 00 00 00	 call	 ?draw_hind_hud_on_cockpit@@YGXH@Z ; draw_hind_hud_on_cockpit
$LN71@draw_hind_:

; 622  : 			}
; 623  : 
; 624  : 			draw_hind_hms ();

  00756	e8 00 00 00 00	 call	 ?draw_hind_hms@@YGXXZ	; draw_hind_hms

; 625  : 
; 626  : 			break;

  0075b	e9 84 0a 00 00	 jmp	 $LN4@draw_hind_
$LN73@draw_hind_:

; 627  : 		}
; 628  : 		////////////////////////////////////////
; 629  : 		case COCKPIT_PANEL_LEVEL_LEFT90:
; 630  : 		////////////////////////////////////////
; 631  : 		{
; 632  : 			if (get_global_draw_cockpit_graphics ())

  00760	83 3d b8 01 00
	00 00		 cmp	 DWORD PTR ?global_options@@3UGLOBAL_OPTIONS_DATA@@A+440, 0
  00767	74 4d		 je	 SHORT $LN74@draw_hind_

; 633  : 			{
; 634  : 				draw_hind_external_virtual_cockpit

  00769	6a 00		 push	 0
  0076b	68 00 10 01 00	 push	 69632			; 00011000H
  00770	e8 00 00 00 00	 call	 ?draw_hind_external_virtual_cockpit@@YGXIPAE@Z ; draw_hind_external_virtual_cockpit

; 635  : 				(
; 636  : 					VIRTUAL_COCKPIT_RAIN_EFFECT |
; 637  : 					VIRTUAL_COCKPIT_MAIN_ROTOR,
; 638  : 					NULL
; 639  : 				);
; 640  : 
; 641  : 				if (lock_screen (active_screen))

  00775	a1 00 00 00 00	 mov	 eax, DWORD PTR ?active_screen@@3PAUSCREEN@@A ; active_screen
  0077a	50		 push	 eax
  0077b	e8 00 00 00 00	 call	 ?lock_screen@@YGHPAUSCREEN@@@Z ; lock_screen
  00780	85 c0		 test	 eax, eax
  00782	74 30		 je	 SHORT $LN76@draw_hind_

; 642  : 				{
; 643  : 					blit_rle_graphic (get_graphics_file_data (base_cockpit_graphics_file + GRAPHICS_COCKPITS_HAVOC_LVL_L90_RLE), ix_640_480, iy_640_480);

  00784	a1 00 00 00 00	 mov	 eax, DWORD PTR ?iy_640_480@@3HA ; iy_640_480
  00789	50		 push	 eax
  0078a	8b 0d 00 00 00
	00		 mov	 ecx, DWORD PTR ?ix_640_480@@3HA ; ix_640_480
  00790	51		 push	 ecx
  00791	8b 15 00 00 00
	00		 mov	 edx, DWORD PTR ?base_cockpit_graphics_file@@3W4GRAPHICS_FILE_SPECIFIERS@@A ; base_cockpit_graphics_file
  00797	83 c2 0e	 add	 edx, 14			; 0000000eH
  0079a	6b c2 28	 imul	 eax, edx, 40
  0079d	8b 88 1c 00 00
	00		 mov	 ecx, DWORD PTR ?graphics_files@@3PAUFILE_DATA@@A[eax+28]
  007a3	51		 push	 ecx
  007a4	e8 00 00 00 00	 call	 ?blit_rle_graphic@@YGXPBEHH@Z ; blit_rle_graphic

; 644  : 
; 645  : 					unlock_screen (active_screen);

  007a9	a1 00 00 00 00	 mov	 eax, DWORD PTR ?active_screen@@3PAUSCREEN@@A ; active_screen
  007ae	50		 push	 eax
  007af	e8 00 00 00 00	 call	 ?unlock_screen@@YGHPAUSCREEN@@@Z ; unlock_screen
$LN76@draw_hind_:

; 646  : 				}
; 647  : 			}
; 648  : 			else

  007b4	eb 07		 jmp	 SHORT $LN75@draw_hind_
$LN74@draw_hind_:

; 649  : 			{
; 650  : 				draw_hind_hud_on_cockpit (TRUE);

  007b6	6a 01		 push	 1
  007b8	e8 00 00 00 00	 call	 ?draw_hind_hud_on_cockpit@@YGXH@Z ; draw_hind_hud_on_cockpit
$LN75@draw_hind_:

; 651  : 			}
; 652  : 
; 653  : 			draw_hind_hms ();

  007bd	e8 00 00 00 00	 call	 ?draw_hind_hms@@YGXXZ	; draw_hind_hms

; 654  : 
; 655  : 			break;

  007c2	e9 1d 0a 00 00	 jmp	 $LN4@draw_hind_
$LN77@draw_hind_:

; 656  : 		}
; 657  : 		////////////////////////////////////////
; 658  : 		case COCKPIT_PANEL_LEVEL_LEFT60:
; 659  : 		////////////////////////////////////////
; 660  : 		{
; 661  : 			if (get_global_draw_cockpit_graphics ())

  007c7	83 3d b8 01 00
	00 00		 cmp	 DWORD PTR ?global_options@@3UGLOBAL_OPTIONS_DATA@@A+440, 0
  007ce	74 4d		 je	 SHORT $LN78@draw_hind_

; 662  : 			{
; 663  : 				draw_hind_external_virtual_cockpit

  007d0	6a 00		 push	 0
  007d2	68 00 10 01 00	 push	 69632			; 00011000H
  007d7	e8 00 00 00 00	 call	 ?draw_hind_external_virtual_cockpit@@YGXIPAE@Z ; draw_hind_external_virtual_cockpit

; 664  : 				(
; 665  : 					VIRTUAL_COCKPIT_RAIN_EFFECT |
; 666  : 					VIRTUAL_COCKPIT_MAIN_ROTOR,
; 667  : 					NULL
; 668  : 				);
; 669  : 
; 670  : 				if (lock_screen (active_screen))

  007dc	a1 00 00 00 00	 mov	 eax, DWORD PTR ?active_screen@@3PAUSCREEN@@A ; active_screen
  007e1	50		 push	 eax
  007e2	e8 00 00 00 00	 call	 ?lock_screen@@YGHPAUSCREEN@@@Z ; lock_screen
  007e7	85 c0		 test	 eax, eax
  007e9	74 30		 je	 SHORT $LN80@draw_hind_

; 671  : 				{
; 672  : 					blit_rle_graphic (get_graphics_file_data (base_cockpit_graphics_file + GRAPHICS_COCKPITS_HAVOC_LVL_L60_RLE), ix_640_480, iy_640_480);

  007eb	a1 00 00 00 00	 mov	 eax, DWORD PTR ?iy_640_480@@3HA ; iy_640_480
  007f0	50		 push	 eax
  007f1	8b 0d 00 00 00
	00		 mov	 ecx, DWORD PTR ?ix_640_480@@3HA ; ix_640_480
  007f7	51		 push	 ecx
  007f8	8b 15 00 00 00
	00		 mov	 edx, DWORD PTR ?base_cockpit_graphics_file@@3W4GRAPHICS_FILE_SPECIFIERS@@A ; base_cockpit_graphics_file
  007fe	83 c2 0f	 add	 edx, 15			; 0000000fH
  00801	6b c2 28	 imul	 eax, edx, 40
  00804	8b 88 1c 00 00
	00		 mov	 ecx, DWORD PTR ?graphics_files@@3PAUFILE_DATA@@A[eax+28]
  0080a	51		 push	 ecx
  0080b	e8 00 00 00 00	 call	 ?blit_rle_graphic@@YGXPBEHH@Z ; blit_rle_graphic

; 673  : 
; 674  : 					unlock_screen (active_screen);

  00810	a1 00 00 00 00	 mov	 eax, DWORD PTR ?active_screen@@3PAUSCREEN@@A ; active_screen
  00815	50		 push	 eax
  00816	e8 00 00 00 00	 call	 ?unlock_screen@@YGHPAUSCREEN@@@Z ; unlock_screen
$LN80@draw_hind_:

; 675  : 				}
; 676  : 			}
; 677  : 			else

  0081b	eb 07		 jmp	 SHORT $LN79@draw_hind_
$LN78@draw_hind_:

; 678  : 			{
; 679  : 				draw_hind_hud_on_cockpit (TRUE);

  0081d	6a 01		 push	 1
  0081f	e8 00 00 00 00	 call	 ?draw_hind_hud_on_cockpit@@YGXH@Z ; draw_hind_hud_on_cockpit
$LN79@draw_hind_:

; 680  : 			}
; 681  : 
; 682  : 			draw_hind_hms ();

  00824	e8 00 00 00 00	 call	 ?draw_hind_hms@@YGXXZ	; draw_hind_hms

; 683  : 
; 684  : 			break;

  00829	e9 b6 09 00 00	 jmp	 $LN4@draw_hind_
$LN81@draw_hind_:

; 685  : 		}
; 686  : 		////////////////////////////////////////
; 687  : 		case COCKPIT_PANEL_LEVEL_LEFT30:
; 688  : 		////////////////////////////////////////
; 689  : 		{
; 690  : 			if (get_global_draw_cockpit_graphics ())

  0082e	83 3d b8 01 00
	00 00		 cmp	 DWORD PTR ?global_options@@3UGLOBAL_OPTIONS_DATA@@A+440, 0
  00835	0f 84 88 00 00
	00		 je	 $LN82@draw_hind_

; 691  : 			{
; 692  : 				draw_hind_external_virtual_cockpit

  0083b	a1 00 00 00 00	 mov	 eax, DWORD PTR ?base_cockpit_graphics_file@@3W4GRAPHICS_FILE_SPECIFIERS@@A ; base_cockpit_graphics_file
  00840	83 c0 24	 add	 eax, 36			; 00000024H
  00843	6b c8 28	 imul	 ecx, eax, 40
  00846	8b 91 1c 00 00
	00		 mov	 edx, DWORD PTR ?graphics_files@@3PAUFILE_DATA@@A[ecx+28]
  0084c	52		 push	 edx
  0084d	68 00 b0 01 00	 push	 110592			; 0001b000H
  00852	e8 00 00 00 00	 call	 ?draw_hind_external_virtual_cockpit@@YGXIPAE@Z ; draw_hind_external_virtual_cockpit

; 693  : 				(
; 694  : 					VIRTUAL_COCKPIT_RENDERED_WIPER |
; 695  : 					VIRTUAL_COCKPIT_MOVING_WIPER |
; 696  : 					VIRTUAL_COCKPIT_RAIN_EFFECT |
; 697  : 					VIRTUAL_COCKPIT_MAIN_ROTOR,
; 698  : 					get_graphics_file_data (base_cockpit_graphics_file + GRAPHICS_COCKPITS_HAVOC_WIPER_LVL_L30_RLE)
; 699  : 				);
; 700  : 
; 701  : 				if (lock_screen (active_screen))

  00857	a1 00 00 00 00	 mov	 eax, DWORD PTR ?active_screen@@3PAUSCREEN@@A ; active_screen
  0085c	50		 push	 eax
  0085d	e8 00 00 00 00	 call	 ?lock_screen@@YGHPAUSCREEN@@@Z ; lock_screen
  00862	85 c0		 test	 eax, eax
  00864	74 54		 je	 SHORT $LN84@draw_hind_

; 702  : 				{
; 703  : 					blit_rle_graphic (get_graphics_file_data (base_cockpit_graphics_file + GRAPHICS_COCKPITS_HAVOC_LVL_L30_RLE), ix_640_480, iy_640_480);

  00866	a1 00 00 00 00	 mov	 eax, DWORD PTR ?iy_640_480@@3HA ; iy_640_480
  0086b	50		 push	 eax
  0086c	8b 0d 00 00 00
	00		 mov	 ecx, DWORD PTR ?ix_640_480@@3HA ; ix_640_480
  00872	51		 push	 ecx
  00873	8b 15 00 00 00
	00		 mov	 edx, DWORD PTR ?base_cockpit_graphics_file@@3W4GRAPHICS_FILE_SPECIFIERS@@A ; base_cockpit_graphics_file
  00879	83 c2 10	 add	 edx, 16			; 00000010H
  0087c	6b c2 28	 imul	 eax, edx, 40
  0087f	8b 88 1c 00 00
	00		 mov	 ecx, DWORD PTR ?graphics_files@@3PAUFILE_DATA@@A[eax+28]
  00885	51		 push	 ecx
  00886	e8 00 00 00 00	 call	 ?blit_rle_graphic@@YGXPBEHH@Z ; blit_rle_graphic

; 704  : 
; 705  : 					draw_havoc_g_meter (panel);

  0088b	8b 45 08	 mov	 eax, DWORD PTR _panel$[ebp]
  0088e	50		 push	 eax
  0088f	e8 00 00 00 00	 call	 ?draw_havoc_g_meter@@YGXW4COCKPIT_PANELS@@@Z ; draw_havoc_g_meter

; 706  : 
; 707  : 					draw_havoc_radar_altimeter (panel);

  00894	8b 45 08	 mov	 eax, DWORD PTR _panel$[ebp]
  00897	50		 push	 eax
  00898	e8 00 00 00 00	 call	 ?draw_havoc_radar_altimeter@@YGXW4COCKPIT_PANELS@@@Z ; draw_havoc_radar_altimeter

; 708  : 
; 709  : 					draw_hind_weapons_management_panel_lamps (panel);

  0089d	8b 45 08	 mov	 eax, DWORD PTR _panel$[ebp]
  008a0	50		 push	 eax
  008a1	e8 00 00 00 00	 call	 ?draw_hind_weapons_management_panel_lamps@@YGXW4COCKPIT_PANELS@@@Z ; draw_hind_weapons_management_panel_lamps

; 710  : 
; 711  : 					draw_hind_master_caution_lamp (panel);

  008a6	8b 45 08	 mov	 eax, DWORD PTR _panel$[ebp]
  008a9	50		 push	 eax
  008aa	e8 00 00 00 00	 call	 ?draw_hind_master_caution_lamp@@YGXW4COCKPIT_PANELS@@@Z ; draw_hind_master_caution_lamp

; 712  : 
; 713  : 					unlock_screen (active_screen);

  008af	a1 00 00 00 00	 mov	 eax, DWORD PTR ?active_screen@@3PAUSCREEN@@A ; active_screen
  008b4	50		 push	 eax
  008b5	e8 00 00 00 00	 call	 ?unlock_screen@@YGHPAUSCREEN@@@Z ; unlock_screen
$LN84@draw_hind_:

; 714  : 				}
; 715  : 
; 716  : 				draw_hind_internal_virtual_cockpit

  008ba	6a 0c		 push	 12			; 0000000cH
  008bc	e8 00 00 00 00	 call	 ?draw_hind_internal_virtual_cockpit@@YGXI@Z ; draw_hind_internal_virtual_cockpit

; 717  : 				(
; 718  : 					VIRTUAL_COCKPIT_HUD_GLASS |
; 719  : 					VIRTUAL_COCKPIT_HUD_DISPLAY
; 720  : 				);
; 721  : 			}
; 722  : 			else

  008c1	eb 07		 jmp	 SHORT $LN83@draw_hind_
$LN82@draw_hind_:

; 723  : 			{
; 724  : 				draw_hind_hud_on_cockpit (TRUE);

  008c3	6a 01		 push	 1
  008c5	e8 00 00 00 00	 call	 ?draw_hind_hud_on_cockpit@@YGXH@Z ; draw_hind_hud_on_cockpit
$LN83@draw_hind_:

; 725  : 			}
; 726  : 
; 727  : 			draw_hind_hms ();

  008ca	e8 00 00 00 00	 call	 ?draw_hind_hms@@YGXXZ	; draw_hind_hms

; 728  : 
; 729  : 			break;

  008cf	e9 10 09 00 00	 jmp	 $LN4@draw_hind_
$LN85@draw_hind_:

; 730  : 		}
; 731  : 		////////////////////////////////////////
; 732  : 		case COCKPIT_PANEL_LEVEL_AHEAD:
; 733  : 		////////////////////////////////////////
; 734  : 		{
; 735  : 			if (get_global_draw_cockpit_graphics ())

  008d4	83 3d b8 01 00
	00 00		 cmp	 DWORD PTR ?global_options@@3UGLOBAL_OPTIONS_DATA@@A+440, 0
  008db	0f 84 a5 00 00
	00		 je	 $LN86@draw_hind_

; 736  : 			{
; 737  : 				draw_hind_external_virtual_cockpit

  008e1	a1 00 00 00 00	 mov	 eax, DWORD PTR ?base_cockpit_graphics_file@@3W4GRAPHICS_FILE_SPECIFIERS@@A ; base_cockpit_graphics_file
  008e6	83 c0 25	 add	 eax, 37			; 00000025H
  008e9	6b c8 28	 imul	 ecx, eax, 40
  008ec	8b 91 1c 00 00
	00		 mov	 edx, DWORD PTR ?graphics_files@@3PAUFILE_DATA@@A[ecx+28]
  008f2	52		 push	 edx
  008f3	68 00 b0 01 00	 push	 110592			; 0001b000H
  008f8	e8 00 00 00 00	 call	 ?draw_hind_external_virtual_cockpit@@YGXIPAE@Z ; draw_hind_external_virtual_cockpit

; 738  : 				(
; 739  : 					VIRTUAL_COCKPIT_RENDERED_WIPER |
; 740  : 					VIRTUAL_COCKPIT_MOVING_WIPER |
; 741  : 					VIRTUAL_COCKPIT_RAIN_EFFECT |
; 742  : 					VIRTUAL_COCKPIT_MAIN_ROTOR,
; 743  : 					get_graphics_file_data (base_cockpit_graphics_file + GRAPHICS_COCKPITS_HAVOC_WIPER_LVL_AHD_RLE)
; 744  : 				);
; 745  : 
; 746  : 				if (lock_screen (active_screen))

  008fd	a1 00 00 00 00	 mov	 eax, DWORD PTR ?active_screen@@3PAUSCREEN@@A ; active_screen
  00902	50		 push	 eax
  00903	e8 00 00 00 00	 call	 ?lock_screen@@YGHPAUSCREEN@@@Z ; lock_screen
  00908	85 c0		 test	 eax, eax
  0090a	74 66		 je	 SHORT $LN88@draw_hind_

; 747  : 				{
; 748  : 					blit_rle_graphic (get_graphics_file_data (base_cockpit_graphics_file + GRAPHICS_COCKPITS_HAVOC_LVL_AHD_RLE), ix_640_480, iy_640_480);

  0090c	a1 00 00 00 00	 mov	 eax, DWORD PTR ?iy_640_480@@3HA ; iy_640_480
  00911	50		 push	 eax
  00912	8b 0d 00 00 00
	00		 mov	 ecx, DWORD PTR ?ix_640_480@@3HA ; ix_640_480
  00918	51		 push	 ecx
  00919	8b 15 00 00 00
	00		 mov	 edx, DWORD PTR ?base_cockpit_graphics_file@@3W4GRAPHICS_FILE_SPECIFIERS@@A ; base_cockpit_graphics_file
  0091f	83 c2 11	 add	 edx, 17			; 00000011H
  00922	6b c2 28	 imul	 eax, edx, 40
  00925	8b 88 1c 00 00
	00		 mov	 ecx, DWORD PTR ?graphics_files@@3PAUFILE_DATA@@A[eax+28]
  0092b	51		 push	 ecx
  0092c	e8 00 00 00 00	 call	 ?blit_rle_graphic@@YGXPBEHH@Z ; blit_rle_graphic

; 749  : 
; 750  : 					draw_havoc_g_meter (panel);

  00931	8b 45 08	 mov	 eax, DWORD PTR _panel$[ebp]
  00934	50		 push	 eax
  00935	e8 00 00 00 00	 call	 ?draw_havoc_g_meter@@YGXW4COCKPIT_PANELS@@@Z ; draw_havoc_g_meter

; 751  : 
; 752  : 					draw_havoc_radar_altimeter (panel);

  0093a	8b 45 08	 mov	 eax, DWORD PTR _panel$[ebp]
  0093d	50		 push	 eax
  0093e	e8 00 00 00 00	 call	 ?draw_havoc_radar_altimeter@@YGXW4COCKPIT_PANELS@@@Z ; draw_havoc_radar_altimeter

; 753  : 
; 754  : 					draw_havoc_weapons_management_panel_lamps (panel);

  00943	8b 45 08	 mov	 eax, DWORD PTR _panel$[ebp]
  00946	50		 push	 eax
  00947	e8 00 00 00 00	 call	 ?draw_havoc_weapons_management_panel_lamps@@YGXW4COCKPIT_PANELS@@@Z ; draw_havoc_weapons_management_panel_lamps

; 755  : 
; 756  : 					draw_hind_threat_warning_display (panel);

  0094c	8b 45 08	 mov	 eax, DWORD PTR _panel$[ebp]
  0094f	50		 push	 eax
  00950	e8 00 00 00 00	 call	 ?draw_hind_threat_warning_display@@YGXW4COCKPIT_PANELS@@@Z ; draw_hind_threat_warning_display

; 757  : 
; 758  : 					draw_hind_master_caution_lamp (panel);

  00955	8b 45 08	 mov	 eax, DWORD PTR _panel$[ebp]
  00958	50		 push	 eax
  00959	e8 00 00 00 00	 call	 ?draw_hind_master_caution_lamp@@YGXW4COCKPIT_PANELS@@@Z ; draw_hind_master_caution_lamp

; 759  : 
; 760  : 					draw_hind_warning_panel_lamps (panel);

  0095e	8b 45 08	 mov	 eax, DWORD PTR _panel$[ebp]
  00961	50		 push	 eax
  00962	e8 00 00 00 00	 call	 ?draw_hind_warning_panel_lamps@@YGXW4COCKPIT_PANELS@@@Z ; draw_hind_warning_panel_lamps

; 761  : 
; 762  : 					unlock_screen (active_screen);

  00967	a1 00 00 00 00	 mov	 eax, DWORD PTR ?active_screen@@3PAUSCREEN@@A ; active_screen
  0096c	50		 push	 eax
  0096d	e8 00 00 00 00	 call	 ?unlock_screen@@YGHPAUSCREEN@@@Z ; unlock_screen
$LN88@draw_hind_:

; 763  : 				}
; 764  : 
; 765  : 				draw_hind_internal_virtual_cockpit (VIRTUAL_COCKPIT_HUD_GLASS);

  00972	6a 04		 push	 4
  00974	e8 00 00 00 00	 call	 ?draw_hind_internal_virtual_cockpit@@YGXI@Z ; draw_hind_internal_virtual_cockpit

; 766  : 
; 767  : 				draw_hind_hud_on_cockpit (get_global_hud_enlarge ());

  00979	a1 18 00 00 00	 mov	 eax, DWORD PTR ?global_options@@3UGLOBAL_OPTIONS_DATA@@A+24
  0097e	50		 push	 eax
  0097f	e8 00 00 00 00	 call	 ?draw_hind_hud_on_cockpit@@YGXH@Z ; draw_hind_hud_on_cockpit

; 768  : 			}
; 769  : 			else

  00984	eb 07		 jmp	 SHORT $LN87@draw_hind_
$LN86@draw_hind_:

; 770  : 			{
; 771  : 				draw_hind_hud_on_cockpit (TRUE);

  00986	6a 01		 push	 1
  00988	e8 00 00 00 00	 call	 ?draw_hind_hud_on_cockpit@@YGXH@Z ; draw_hind_hud_on_cockpit
$LN87@draw_hind_:

; 772  : 			}
; 773  : 
; 774  : 			draw_hind_hms ();

  0098d	e8 00 00 00 00	 call	 ?draw_hind_hms@@YGXXZ	; draw_hind_hms

; 775  : 
; 776  : 			break;

  00992	e9 4d 08 00 00	 jmp	 $LN4@draw_hind_
$LN89@draw_hind_:

; 777  : 		}
; 778  : 		////////////////////////////////////////
; 779  : 		case COCKPIT_PANEL_LEVEL_RIGHT30:
; 780  : 		////////////////////////////////////////
; 781  : 		{
; 782  : 			if (get_global_draw_cockpit_graphics ())

  00997	83 3d b8 01 00
	00 00		 cmp	 DWORD PTR ?global_options@@3UGLOBAL_OPTIONS_DATA@@A+440, 0
  0099e	74 7f		 je	 SHORT $LN90@draw_hind_

; 783  : 			{
; 784  : 				draw_hind_external_virtual_cockpit

  009a0	a1 00 00 00 00	 mov	 eax, DWORD PTR ?base_cockpit_graphics_file@@3W4GRAPHICS_FILE_SPECIFIERS@@A ; base_cockpit_graphics_file
  009a5	83 c0 26	 add	 eax, 38			; 00000026H
  009a8	6b c8 28	 imul	 ecx, eax, 40
  009ab	8b 91 1c 00 00
	00		 mov	 edx, DWORD PTR ?graphics_files@@3PAUFILE_DATA@@A[ecx+28]
  009b1	52		 push	 edx
  009b2	68 00 b0 01 00	 push	 110592			; 0001b000H
  009b7	e8 00 00 00 00	 call	 ?draw_hind_external_virtual_cockpit@@YGXIPAE@Z ; draw_hind_external_virtual_cockpit

; 785  : 				(
; 786  : 					VIRTUAL_COCKPIT_RENDERED_WIPER |
; 787  : 					VIRTUAL_COCKPIT_MOVING_WIPER |
; 788  : 					VIRTUAL_COCKPIT_RAIN_EFFECT |
; 789  : 					VIRTUAL_COCKPIT_MAIN_ROTOR,
; 790  : 					get_graphics_file_data (base_cockpit_graphics_file + GRAPHICS_COCKPITS_HAVOC_WIPER_LVL_R30_RLE)
; 791  : 				);
; 792  : 
; 793  : 				if (lock_screen (active_screen))

  009bc	a1 00 00 00 00	 mov	 eax, DWORD PTR ?active_screen@@3PAUSCREEN@@A ; active_screen
  009c1	50		 push	 eax
  009c2	e8 00 00 00 00	 call	 ?lock_screen@@YGHPAUSCREEN@@@Z ; lock_screen
  009c7	85 c0		 test	 eax, eax
  009c9	74 4b		 je	 SHORT $LN92@draw_hind_

; 794  : 				{
; 795  : 					blit_rle_graphic (get_graphics_file_data (base_cockpit_graphics_file + GRAPHICS_COCKPITS_HAVOC_LVL_R30_RLE), ix_640_480, iy_640_480);

  009cb	a1 00 00 00 00	 mov	 eax, DWORD PTR ?iy_640_480@@3HA ; iy_640_480
  009d0	50		 push	 eax
  009d1	8b 0d 00 00 00
	00		 mov	 ecx, DWORD PTR ?ix_640_480@@3HA ; ix_640_480
  009d7	51		 push	 ecx
  009d8	8b 15 00 00 00
	00		 mov	 edx, DWORD PTR ?base_cockpit_graphics_file@@3W4GRAPHICS_FILE_SPECIFIERS@@A ; base_cockpit_graphics_file
  009de	83 c2 12	 add	 edx, 18			; 00000012H
  009e1	6b c2 28	 imul	 eax, edx, 40
  009e4	8b 88 1c 00 00
	00		 mov	 ecx, DWORD PTR ?graphics_files@@3PAUFILE_DATA@@A[eax+28]
  009ea	51		 push	 ecx
  009eb	e8 00 00 00 00	 call	 ?blit_rle_graphic@@YGXPBEHH@Z ; blit_rle_graphic

; 796  : 
; 797  : 					draw_hind_status_panel_lamps (panel);

  009f0	8b 45 08	 mov	 eax, DWORD PTR _panel$[ebp]
  009f3	50		 push	 eax
  009f4	e8 00 00 00 00	 call	 ?draw_hind_status_panel_lamps@@YGXW4COCKPIT_PANELS@@@Z ; draw_hind_status_panel_lamps

; 798  : 
; 799  : 					draw_hind_threat_warning_display (panel);

  009f9	8b 45 08	 mov	 eax, DWORD PTR _panel$[ebp]
  009fc	50		 push	 eax
  009fd	e8 00 00 00 00	 call	 ?draw_hind_threat_warning_display@@YGXW4COCKPIT_PANELS@@@Z ; draw_hind_threat_warning_display

; 800  : 
; 801  : 					draw_hind_warning_panel_lamps (panel);

  00a02	8b 45 08	 mov	 eax, DWORD PTR _panel$[ebp]
  00a05	50		 push	 eax
  00a06	e8 00 00 00 00	 call	 ?draw_hind_warning_panel_lamps@@YGXW4COCKPIT_PANELS@@@Z ; draw_hind_warning_panel_lamps

; 802  : 
; 803  : 					unlock_screen (active_screen);

  00a0b	a1 00 00 00 00	 mov	 eax, DWORD PTR ?active_screen@@3PAUSCREEN@@A ; active_screen
  00a10	50		 push	 eax
  00a11	e8 00 00 00 00	 call	 ?unlock_screen@@YGHPAUSCREEN@@@Z ; unlock_screen
$LN92@draw_hind_:

; 804  : 				}
; 805  : 
; 806  : 				draw_hind_internal_virtual_cockpit

  00a16	6a 0c		 push	 12			; 0000000cH
  00a18	e8 00 00 00 00	 call	 ?draw_hind_internal_virtual_cockpit@@YGXI@Z ; draw_hind_internal_virtual_cockpit

; 807  : 				(
; 808  : 					VIRTUAL_COCKPIT_HUD_GLASS |
; 809  : 					VIRTUAL_COCKPIT_HUD_DISPLAY
; 810  : 				);
; 811  : 			}
; 812  : 			else

  00a1d	eb 07		 jmp	 SHORT $LN91@draw_hind_
$LN90@draw_hind_:

; 813  : 			{
; 814  : 				draw_hind_hud_on_cockpit (TRUE);

  00a1f	6a 01		 push	 1
  00a21	e8 00 00 00 00	 call	 ?draw_hind_hud_on_cockpit@@YGXH@Z ; draw_hind_hud_on_cockpit
$LN91@draw_hind_:

; 815  : 			}
; 816  : 
; 817  : 			draw_hind_hms ();

  00a26	e8 00 00 00 00	 call	 ?draw_hind_hms@@YGXXZ	; draw_hind_hms

; 818  : 
; 819  : 			break;

  00a2b	e9 b4 07 00 00	 jmp	 $LN4@draw_hind_
$LN93@draw_hind_:

; 820  : 		}
; 821  : 		////////////////////////////////////////
; 822  : 		case COCKPIT_PANEL_LEVEL_RIGHT60:
; 823  : 		////////////////////////////////////////
; 824  : 		{
; 825  : 			if (get_global_draw_cockpit_graphics ())

  00a30	83 3d b8 01 00
	00 00		 cmp	 DWORD PTR ?global_options@@3UGLOBAL_OPTIONS_DATA@@A+440, 0
  00a37	74 4d		 je	 SHORT $LN94@draw_hind_

; 826  : 			{
; 827  : 				draw_hind_external_virtual_cockpit

  00a39	6a 00		 push	 0
  00a3b	68 00 10 01 00	 push	 69632			; 00011000H
  00a40	e8 00 00 00 00	 call	 ?draw_hind_external_virtual_cockpit@@YGXIPAE@Z ; draw_hind_external_virtual_cockpit

; 828  : 				(
; 829  : 					VIRTUAL_COCKPIT_RAIN_EFFECT |
; 830  : 					VIRTUAL_COCKPIT_MAIN_ROTOR,
; 831  : 					NULL
; 832  : 				);
; 833  : 
; 834  : 				if (lock_screen (active_screen))

  00a45	a1 00 00 00 00	 mov	 eax, DWORD PTR ?active_screen@@3PAUSCREEN@@A ; active_screen
  00a4a	50		 push	 eax
  00a4b	e8 00 00 00 00	 call	 ?lock_screen@@YGHPAUSCREEN@@@Z ; lock_screen
  00a50	85 c0		 test	 eax, eax
  00a52	74 30		 je	 SHORT $LN96@draw_hind_

; 835  : 				{
; 836  : 					blit_rle_graphic (get_graphics_file_data (base_cockpit_graphics_file + GRAPHICS_COCKPITS_HAVOC_LVL_R60_RLE), ix_640_480, iy_640_480);

  00a54	a1 00 00 00 00	 mov	 eax, DWORD PTR ?iy_640_480@@3HA ; iy_640_480
  00a59	50		 push	 eax
  00a5a	8b 0d 00 00 00
	00		 mov	 ecx, DWORD PTR ?ix_640_480@@3HA ; ix_640_480
  00a60	51		 push	 ecx
  00a61	8b 15 00 00 00
	00		 mov	 edx, DWORD PTR ?base_cockpit_graphics_file@@3W4GRAPHICS_FILE_SPECIFIERS@@A ; base_cockpit_graphics_file
  00a67	83 c2 13	 add	 edx, 19			; 00000013H
  00a6a	6b c2 28	 imul	 eax, edx, 40
  00a6d	8b 88 1c 00 00
	00		 mov	 ecx, DWORD PTR ?graphics_files@@3PAUFILE_DATA@@A[eax+28]
  00a73	51		 push	 ecx
  00a74	e8 00 00 00 00	 call	 ?blit_rle_graphic@@YGXPBEHH@Z ; blit_rle_graphic

; 837  : 
; 838  : 					unlock_screen (active_screen);

  00a79	a1 00 00 00 00	 mov	 eax, DWORD PTR ?active_screen@@3PAUSCREEN@@A ; active_screen
  00a7e	50		 push	 eax
  00a7f	e8 00 00 00 00	 call	 ?unlock_screen@@YGHPAUSCREEN@@@Z ; unlock_screen
$LN96@draw_hind_:

; 839  : 				}
; 840  : 			}
; 841  : 			else

  00a84	eb 07		 jmp	 SHORT $LN95@draw_hind_
$LN94@draw_hind_:

; 842  : 			{
; 843  : 				draw_hind_hud_on_cockpit (TRUE);

  00a86	6a 01		 push	 1
  00a88	e8 00 00 00 00	 call	 ?draw_hind_hud_on_cockpit@@YGXH@Z ; draw_hind_hud_on_cockpit
$LN95@draw_hind_:

; 844  : 			}
; 845  : 
; 846  : 			draw_hind_hms ();

  00a8d	e8 00 00 00 00	 call	 ?draw_hind_hms@@YGXXZ	; draw_hind_hms

; 847  : 
; 848  : 			break;

  00a92	e9 4d 07 00 00	 jmp	 $LN4@draw_hind_
$LN97@draw_hind_:

; 849  : 		}
; 850  : 		////////////////////////////////////////
; 851  : 		case COCKPIT_PANEL_LEVEL_RIGHT90:
; 852  : 		////////////////////////////////////////
; 853  : 		{
; 854  : 			if (get_global_draw_cockpit_graphics ())

  00a97	83 3d b8 01 00
	00 00		 cmp	 DWORD PTR ?global_options@@3UGLOBAL_OPTIONS_DATA@@A+440, 0
  00a9e	74 4d		 je	 SHORT $LN98@draw_hind_

; 855  : 			{
; 856  : 				draw_hind_external_virtual_cockpit

  00aa0	6a 00		 push	 0
  00aa2	68 00 10 01 00	 push	 69632			; 00011000H
  00aa7	e8 00 00 00 00	 call	 ?draw_hind_external_virtual_cockpit@@YGXIPAE@Z ; draw_hind_external_virtual_cockpit

; 857  : 				(
; 858  : 					VIRTUAL_COCKPIT_RAIN_EFFECT |
; 859  : 					VIRTUAL_COCKPIT_MAIN_ROTOR,
; 860  : 					NULL
; 861  : 				);
; 862  : 
; 863  : 				if (lock_screen (active_screen))

  00aac	a1 00 00 00 00	 mov	 eax, DWORD PTR ?active_screen@@3PAUSCREEN@@A ; active_screen
  00ab1	50		 push	 eax
  00ab2	e8 00 00 00 00	 call	 ?lock_screen@@YGHPAUSCREEN@@@Z ; lock_screen
  00ab7	85 c0		 test	 eax, eax
  00ab9	74 30		 je	 SHORT $LN100@draw_hind_

; 864  : 				{
; 865  : 					blit_rle_graphic (get_graphics_file_data (base_cockpit_graphics_file + GRAPHICS_COCKPITS_HAVOC_LVL_R90_RLE), ix_640_480, iy_640_480);

  00abb	a1 00 00 00 00	 mov	 eax, DWORD PTR ?iy_640_480@@3HA ; iy_640_480
  00ac0	50		 push	 eax
  00ac1	8b 0d 00 00 00
	00		 mov	 ecx, DWORD PTR ?ix_640_480@@3HA ; ix_640_480
  00ac7	51		 push	 ecx
  00ac8	8b 15 00 00 00
	00		 mov	 edx, DWORD PTR ?base_cockpit_graphics_file@@3W4GRAPHICS_FILE_SPECIFIERS@@A ; base_cockpit_graphics_file
  00ace	83 c2 14	 add	 edx, 20			; 00000014H
  00ad1	6b c2 28	 imul	 eax, edx, 40
  00ad4	8b 88 1c 00 00
	00		 mov	 ecx, DWORD PTR ?graphics_files@@3PAUFILE_DATA@@A[eax+28]
  00ada	51		 push	 ecx
  00adb	e8 00 00 00 00	 call	 ?blit_rle_graphic@@YGXPBEHH@Z ; blit_rle_graphic

; 866  : 
; 867  : 					unlock_screen (active_screen);

  00ae0	a1 00 00 00 00	 mov	 eax, DWORD PTR ?active_screen@@3PAUSCREEN@@A ; active_screen
  00ae5	50		 push	 eax
  00ae6	e8 00 00 00 00	 call	 ?unlock_screen@@YGHPAUSCREEN@@@Z ; unlock_screen
$LN100@draw_hind_:

; 868  : 				}
; 869  : 			}
; 870  : 			else

  00aeb	eb 07		 jmp	 SHORT $LN99@draw_hind_
$LN98@draw_hind_:

; 871  : 			{
; 872  : 				draw_hind_hud_on_cockpit (TRUE);

  00aed	6a 01		 push	 1
  00aef	e8 00 00 00 00	 call	 ?draw_hind_hud_on_cockpit@@YGXH@Z ; draw_hind_hud_on_cockpit
$LN99@draw_hind_:

; 873  : 			}
; 874  : 
; 875  : 			draw_hind_hms ();

  00af4	e8 00 00 00 00	 call	 ?draw_hind_hms@@YGXXZ	; draw_hind_hms

; 876  : 
; 877  : 			break;

  00af9	e9 e6 06 00 00	 jmp	 $LN4@draw_hind_
$LN101@draw_hind_:

; 878  : 		}
; 879  : 		////////////////////////////////////////
; 880  : 		case COCKPIT_PANEL_DOWN20_LEFT90:
; 881  : 		////////////////////////////////////////
; 882  : 		{
; 883  : 			if (get_global_draw_cockpit_graphics ())

  00afe	83 3d b8 01 00
	00 00		 cmp	 DWORD PTR ?global_options@@3UGLOBAL_OPTIONS_DATA@@A+440, 0
  00b05	74 4d		 je	 SHORT $LN102@draw_hind_

; 884  : 			{
; 885  : 				draw_hind_external_virtual_cockpit

  00b07	6a 00		 push	 0
  00b09	68 00 10 01 00	 push	 69632			; 00011000H
  00b0e	e8 00 00 00 00	 call	 ?draw_hind_external_virtual_cockpit@@YGXIPAE@Z ; draw_hind_external_virtual_cockpit

; 886  : 				(
; 887  : 					VIRTUAL_COCKPIT_RAIN_EFFECT |
; 888  : 					VIRTUAL_COCKPIT_MAIN_ROTOR,
; 889  : 					NULL
; 890  : 				);
; 891  : 
; 892  : 				if (lock_screen (active_screen))

  00b13	a1 00 00 00 00	 mov	 eax, DWORD PTR ?active_screen@@3PAUSCREEN@@A ; active_screen
  00b18	50		 push	 eax
  00b19	e8 00 00 00 00	 call	 ?lock_screen@@YGHPAUSCREEN@@@Z ; lock_screen
  00b1e	85 c0		 test	 eax, eax
  00b20	74 30		 je	 SHORT $LN104@draw_hind_

; 893  : 				{
; 894  : 					blit_rle_graphic (get_graphics_file_data (base_cockpit_graphics_file + GRAPHICS_COCKPITS_HAVOC_D20_L90_RLE), ix_640_480, iy_640_480);

  00b22	a1 00 00 00 00	 mov	 eax, DWORD PTR ?iy_640_480@@3HA ; iy_640_480
  00b27	50		 push	 eax
  00b28	8b 0d 00 00 00
	00		 mov	 ecx, DWORD PTR ?ix_640_480@@3HA ; ix_640_480
  00b2e	51		 push	 ecx
  00b2f	8b 15 00 00 00
	00		 mov	 edx, DWORD PTR ?base_cockpit_graphics_file@@3W4GRAPHICS_FILE_SPECIFIERS@@A ; base_cockpit_graphics_file
  00b35	83 c2 15	 add	 edx, 21			; 00000015H
  00b38	6b c2 28	 imul	 eax, edx, 40
  00b3b	8b 88 1c 00 00
	00		 mov	 ecx, DWORD PTR ?graphics_files@@3PAUFILE_DATA@@A[eax+28]
  00b41	51		 push	 ecx
  00b42	e8 00 00 00 00	 call	 ?blit_rle_graphic@@YGXPBEHH@Z ; blit_rle_graphic

; 895  : 
; 896  : 					unlock_screen (active_screen);

  00b47	a1 00 00 00 00	 mov	 eax, DWORD PTR ?active_screen@@3PAUSCREEN@@A ; active_screen
  00b4c	50		 push	 eax
  00b4d	e8 00 00 00 00	 call	 ?unlock_screen@@YGHPAUSCREEN@@@Z ; unlock_screen
$LN104@draw_hind_:

; 897  : 				}
; 898  : 			}
; 899  : 			else

  00b52	eb 07		 jmp	 SHORT $LN103@draw_hind_
$LN102@draw_hind_:

; 900  : 			{
; 901  : 				draw_hind_hud_on_cockpit (TRUE);

  00b54	6a 01		 push	 1
  00b56	e8 00 00 00 00	 call	 ?draw_hind_hud_on_cockpit@@YGXH@Z ; draw_hind_hud_on_cockpit
$LN103@draw_hind_:

; 902  : 			}
; 903  : 
; 904  : 			draw_hind_hms ();

  00b5b	e8 00 00 00 00	 call	 ?draw_hind_hms@@YGXXZ	; draw_hind_hms

; 905  : 
; 906  : 			break;

  00b60	e9 7f 06 00 00	 jmp	 $LN4@draw_hind_
$LN105@draw_hind_:

; 907  : 		}
; 908  : 		////////////////////////////////////////
; 909  : 		case COCKPIT_PANEL_DOWN20_LEFT60:
; 910  : 		////////////////////////////////////////
; 911  : 		{
; 912  : 			if (get_global_draw_cockpit_graphics ())

  00b65	83 3d b8 01 00
	00 00		 cmp	 DWORD PTR ?global_options@@3UGLOBAL_OPTIONS_DATA@@A+440, 0
  00b6c	74 5f		 je	 SHORT $LN106@draw_hind_

; 913  : 			{
; 914  : 				draw_hind_external_virtual_cockpit

  00b6e	6a 00		 push	 0
  00b70	68 00 10 01 00	 push	 69632			; 00011000H
  00b75	e8 00 00 00 00	 call	 ?draw_hind_external_virtual_cockpit@@YGXIPAE@Z ; draw_hind_external_virtual_cockpit

; 915  : 				(
; 916  : 					VIRTUAL_COCKPIT_RAIN_EFFECT |
; 917  : 					VIRTUAL_COCKPIT_MAIN_ROTOR,
; 918  : 					NULL
; 919  : 				);
; 920  : 
; 921  : 				if (lock_screen (active_screen))

  00b7a	a1 00 00 00 00	 mov	 eax, DWORD PTR ?active_screen@@3PAUSCREEN@@A ; active_screen
  00b7f	50		 push	 eax
  00b80	e8 00 00 00 00	 call	 ?lock_screen@@YGHPAUSCREEN@@@Z ; lock_screen
  00b85	85 c0		 test	 eax, eax
  00b87	74 42		 je	 SHORT $LN108@draw_hind_

; 922  : 				{
; 923  : 					blit_rle_graphic (get_graphics_file_data (base_cockpit_graphics_file + GRAPHICS_COCKPITS_HAVOC_D20_L60_RLE), ix_640_480, iy_640_480);

  00b89	a1 00 00 00 00	 mov	 eax, DWORD PTR ?iy_640_480@@3HA ; iy_640_480
  00b8e	50		 push	 eax
  00b8f	8b 0d 00 00 00
	00		 mov	 ecx, DWORD PTR ?ix_640_480@@3HA ; ix_640_480
  00b95	51		 push	 ecx
  00b96	8b 15 00 00 00
	00		 mov	 edx, DWORD PTR ?base_cockpit_graphics_file@@3W4GRAPHICS_FILE_SPECIFIERS@@A ; base_cockpit_graphics_file
  00b9c	83 c2 16	 add	 edx, 22			; 00000016H
  00b9f	6b c2 28	 imul	 eax, edx, 40
  00ba2	8b 88 1c 00 00
	00		 mov	 ecx, DWORD PTR ?graphics_files@@3PAUFILE_DATA@@A[eax+28]
  00ba8	51		 push	 ecx
  00ba9	e8 00 00 00 00	 call	 ?blit_rle_graphic@@YGXPBEHH@Z ; blit_rle_graphic

; 924  : 
; 925  : 					draw_havoc_barometric_altimeter (panel);

  00bae	8b 45 08	 mov	 eax, DWORD PTR _panel$[ebp]
  00bb1	50		 push	 eax
  00bb2	e8 00 00 00 00	 call	 ?draw_havoc_barometric_altimeter@@YGXW4COCKPIT_PANELS@@@Z ; draw_havoc_barometric_altimeter

; 926  : 
; 927  : 					draw_hind_weapons_management_panel_lamps (panel);

  00bb7	8b 45 08	 mov	 eax, DWORD PTR _panel$[ebp]
  00bba	50		 push	 eax
  00bbb	e8 00 00 00 00	 call	 ?draw_hind_weapons_management_panel_lamps@@YGXW4COCKPIT_PANELS@@@Z ; draw_hind_weapons_management_panel_lamps

; 928  : 
; 929  : 					unlock_screen (active_screen);

  00bc0	a1 00 00 00 00	 mov	 eax, DWORD PTR ?active_screen@@3PAUSCREEN@@A ; active_screen
  00bc5	50		 push	 eax
  00bc6	e8 00 00 00 00	 call	 ?unlock_screen@@YGHPAUSCREEN@@@Z ; unlock_screen
$LN108@draw_hind_:

; 930  : 				}
; 931  : 			}
; 932  : 			else

  00bcb	eb 07		 jmp	 SHORT $LN107@draw_hind_
$LN106@draw_hind_:

; 933  : 			{
; 934  : 				draw_hind_hud_on_cockpit (TRUE);

  00bcd	6a 01		 push	 1
  00bcf	e8 00 00 00 00	 call	 ?draw_hind_hud_on_cockpit@@YGXH@Z ; draw_hind_hud_on_cockpit
$LN107@draw_hind_:

; 935  : 			}
; 936  : 
; 937  : 			draw_hind_hms ();

  00bd4	e8 00 00 00 00	 call	 ?draw_hind_hms@@YGXXZ	; draw_hind_hms

; 938  : 
; 939  : 			break;

  00bd9	e9 06 06 00 00	 jmp	 $LN4@draw_hind_
$LN109@draw_hind_:

; 940  : 		}
; 941  : 		////////////////////////////////////////
; 942  : 		case COCKPIT_PANEL_DOWN20_LEFT30:
; 943  : 		////////////////////////////////////////
; 944  : 		{
; 945  : 			if (get_global_draw_cockpit_graphics ())

  00bde	83 3d b8 01 00
	00 00		 cmp	 DWORD PTR ?global_options@@3UGLOBAL_OPTIONS_DATA@@A+440, 0
  00be5	0f 84 bc 00 00
	00		 je	 $LN110@draw_hind_

; 946  : 			{
; 947  : 				draw_hind_external_virtual_cockpit

  00beb	a1 00 00 00 00	 mov	 eax, DWORD PTR ?base_cockpit_graphics_file@@3W4GRAPHICS_FILE_SPECIFIERS@@A ; base_cockpit_graphics_file
  00bf0	83 c0 27	 add	 eax, 39			; 00000027H
  00bf3	6b c8 28	 imul	 ecx, eax, 40
  00bf6	8b 91 1c 00 00
	00		 mov	 edx, DWORD PTR ?graphics_files@@3PAUFILE_DATA@@A[ecx+28]
  00bfc	52		 push	 edx
  00bfd	68 80 b2 01 00	 push	 111232			; 0001b280H
  00c02	e8 00 00 00 00	 call	 ?draw_hind_external_virtual_cockpit@@YGXIPAE@Z ; draw_hind_external_virtual_cockpit

; 948  : 				(
; 949  : 					VIRTUAL_COCKPIT_RENDERED_WIPER |
; 950  : 					VIRTUAL_COCKPIT_MOVING_WIPER |
; 951  : 					VIRTUAL_COCKPIT_ADI |
; 952  : 					VIRTUAL_COCKPIT_HSI |
; 953  : 					VIRTUAL_COCKPIT_RAIN_EFFECT |
; 954  : 					VIRTUAL_COCKPIT_MAIN_ROTOR,
; 955  : 					get_graphics_file_data (base_cockpit_graphics_file + GRAPHICS_COCKPITS_HAVOC_WIPER_D20_L30_RLE)
; 956  : 				);
; 957  : 
; 958  : 				if (lock_screen (active_screen))

  00c07	a1 00 00 00 00	 mov	 eax, DWORD PTR ?active_screen@@3PAUSCREEN@@A ; active_screen
  00c0c	50		 push	 eax
  00c0d	e8 00 00 00 00	 call	 ?lock_screen@@YGHPAUSCREEN@@@Z ; lock_screen
  00c12	85 c0		 test	 eax, eax
  00c14	0f 84 81 00 00
	00		 je	 $LN112@draw_hind_

; 959  : 				{
; 960  : 					blit_rle_graphic (get_graphics_file_data (base_cockpit_graphics_file + GRAPHICS_COCKPITS_HAVOC_D20_L30_RLE), ix_640_480, iy_640_480);

  00c1a	a1 00 00 00 00	 mov	 eax, DWORD PTR ?iy_640_480@@3HA ; iy_640_480
  00c1f	50		 push	 eax
  00c20	8b 0d 00 00 00
	00		 mov	 ecx, DWORD PTR ?ix_640_480@@3HA ; ix_640_480
  00c26	51		 push	 ecx
  00c27	8b 15 00 00 00
	00		 mov	 edx, DWORD PTR ?base_cockpit_graphics_file@@3W4GRAPHICS_FILE_SPECIFIERS@@A ; base_cockpit_graphics_file
  00c2d	83 c2 17	 add	 edx, 23			; 00000017H
  00c30	6b c2 28	 imul	 eax, edx, 40
  00c33	8b 88 1c 00 00
	00		 mov	 ecx, DWORD PTR ?graphics_files@@3PAUFILE_DATA@@A[eax+28]
  00c39	51		 push	 ecx
  00c3a	e8 00 00 00 00	 call	 ?blit_rle_graphic@@YGXPBEHH@Z ; blit_rle_graphic

; 961  : 
; 962  : 					draw_havoc_barometric_altimeter (panel);

  00c3f	8b 45 08	 mov	 eax, DWORD PTR _panel$[ebp]
  00c42	50		 push	 eax
  00c43	e8 00 00 00 00	 call	 ?draw_havoc_barometric_altimeter@@YGXW4COCKPIT_PANELS@@@Z ; draw_havoc_barometric_altimeter

; 963  : 
; 964  : 					draw_havoc_airspeed_indicator (panel);

  00c48	8b 45 08	 mov	 eax, DWORD PTR _panel$[ebp]
  00c4b	50		 push	 eax
  00c4c	e8 00 00 00 00	 call	 ?draw_havoc_airspeed_indicator@@YGXW4COCKPIT_PANELS@@@Z ; draw_havoc_airspeed_indicator

; 965  : 
; 966  : 					draw_havoc_main_rotor_rpm_indicator (panel);

  00c51	8b 45 08	 mov	 eax, DWORD PTR _panel$[ebp]
  00c54	50		 push	 eax
  00c55	e8 00 00 00 00	 call	 ?draw_havoc_main_rotor_rpm_indicator@@YGXW4COCKPIT_PANELS@@@Z ; draw_havoc_main_rotor_rpm_indicator

; 967  : 
; 968  : 					draw_havoc_g_meter (panel);

  00c5a	8b 45 08	 mov	 eax, DWORD PTR _panel$[ebp]
  00c5d	50		 push	 eax
  00c5e	e8 00 00 00 00	 call	 ?draw_havoc_g_meter@@YGXW4COCKPIT_PANELS@@@Z ; draw_havoc_g_meter

; 969  : 
; 970  : 					draw_havoc_vertical_speed_indicator (panel);

  00c63	8b 45 08	 mov	 eax, DWORD PTR _panel$[ebp]
  00c66	50		 push	 eax
  00c67	e8 00 00 00 00	 call	 ?draw_havoc_vertical_speed_indicator@@YGXW4COCKPIT_PANELS@@@Z ; draw_havoc_vertical_speed_indicator

; 971  : 
; 972  : 					draw_havoc_clock (panel);

  00c6c	8b 45 08	 mov	 eax, DWORD PTR _panel$[ebp]
  00c6f	50		 push	 eax
  00c70	e8 00 00 00 00	 call	 ?draw_havoc_clock@@YGXW4COCKPIT_PANELS@@@Z ; draw_havoc_clock

; 973  : 
; 974  : 					draw_havoc_radar_altimeter (panel);

  00c75	8b 45 08	 mov	 eax, DWORD PTR _panel$[ebp]
  00c78	50		 push	 eax
  00c79	e8 00 00 00 00	 call	 ?draw_havoc_radar_altimeter@@YGXW4COCKPIT_PANELS@@@Z ; draw_havoc_radar_altimeter

; 975  : 
; 976  : 					draw_hind_weapons_management_panel_lamps (panel);

  00c7e	8b 45 08	 mov	 eax, DWORD PTR _panel$[ebp]
  00c81	50		 push	 eax
  00c82	e8 00 00 00 00	 call	 ?draw_hind_weapons_management_panel_lamps@@YGXW4COCKPIT_PANELS@@@Z ; draw_hind_weapons_management_panel_lamps

; 977  : 
; 978  : 					draw_hind_master_caution_lamp (panel);

  00c87	8b 45 08	 mov	 eax, DWORD PTR _panel$[ebp]
  00c8a	50		 push	 eax
  00c8b	e8 00 00 00 00	 call	 ?draw_hind_master_caution_lamp@@YGXW4COCKPIT_PANELS@@@Z ; draw_hind_master_caution_lamp

; 979  : 
; 980  : 					unlock_screen (active_screen);

  00c90	a1 00 00 00 00	 mov	 eax, DWORD PTR ?active_screen@@3PAUSCREEN@@A ; active_screen
  00c95	50		 push	 eax
  00c96	e8 00 00 00 00	 call	 ?unlock_screen@@YGHPAUSCREEN@@@Z ; unlock_screen
$LN112@draw_hind_:

; 981  : 				}
; 982  : 
; 983  : 				draw_hind_internal_virtual_cockpit

  00c9b	68 1c 00 02 00	 push	 131100			; 0002001cH
  00ca0	e8 00 00 00 00	 call	 ?draw_hind_internal_virtual_cockpit@@YGXI@Z ; draw_hind_internal_virtual_cockpit

; 984  : 				(
; 985  : 					VIRTUAL_COCKPIT_HUD_GLASS |
; 986  : 					VIRTUAL_COCKPIT_HUD_DISPLAY |
; 987  : 					VIRTUAL_COCKPIT_CRT_DISPLAY |
; 988  : 					VIRTUAL_COCKPIT_INSTRUMENT_NEEDLES
; 989  : 				);
; 990  : 			}
; 991  : 			else

  00ca5	eb 07		 jmp	 SHORT $LN111@draw_hind_
$LN110@draw_hind_:

; 992  : 			{
; 993  : 				draw_hind_hud_on_cockpit (TRUE);

  00ca7	6a 01		 push	 1
  00ca9	e8 00 00 00 00	 call	 ?draw_hind_hud_on_cockpit@@YGXH@Z ; draw_hind_hud_on_cockpit
$LN111@draw_hind_:

; 994  : 			}
; 995  : 
; 996  : 			draw_hind_hms ();

  00cae	e8 00 00 00 00	 call	 ?draw_hind_hms@@YGXXZ	; draw_hind_hms

; 997  : 
; 998  : 			break;

  00cb3	e9 2c 05 00 00	 jmp	 $LN4@draw_hind_
$LN113@draw_hind_:

; 999  : 		}
; 1000 : 		////////////////////////////////////////
; 1001 : 		case COCKPIT_PANEL_DOWN20_AHEAD:
; 1002 : 		////////////////////////////////////////
; 1003 : 		{
; 1004 : 			if (get_global_draw_cockpit_graphics ())

  00cb8	83 3d b8 01 00
	00 00		 cmp	 DWORD PTR ?global_options@@3UGLOBAL_OPTIONS_DATA@@A+440, 0
  00cbf	0f 84 dd 01 00
	00		 je	 $LN114@draw_hind_

; 1005 : 			{
; 1006 : 				draw_hind_external_virtual_cockpit

  00cc5	a1 00 00 00 00	 mov	 eax, DWORD PTR ?base_cockpit_graphics_file@@3W4GRAPHICS_FILE_SPECIFIERS@@A ; base_cockpit_graphics_file
  00cca	83 c0 28	 add	 eax, 40			; 00000028H
  00ccd	6b c8 28	 imul	 ecx, eax, 40
  00cd0	8b 91 1c 00 00
	00		 mov	 edx, DWORD PTR ?graphics_files@@3PAUFILE_DATA@@A[ecx+28]
  00cd6	52		 push	 edx
  00cd7	68 80 b2 01 00	 push	 111232			; 0001b280H
  00cdc	e8 00 00 00 00	 call	 ?draw_hind_external_virtual_cockpit@@YGXIPAE@Z ; draw_hind_external_virtual_cockpit

; 1007 : 				(
; 1008 : 					VIRTUAL_COCKPIT_RENDERED_WIPER |
; 1009 : 					VIRTUAL_COCKPIT_MOVING_WIPER |
; 1010 : 					VIRTUAL_COCKPIT_ADI |
; 1011 : 					VIRTUAL_COCKPIT_HSI |
; 1012 : 					VIRTUAL_COCKPIT_RAIN_EFFECT |
; 1013 : 					VIRTUAL_COCKPIT_MAIN_ROTOR,
; 1014 : 					get_graphics_file_data (base_cockpit_graphics_file + GRAPHICS_COCKPITS_HAVOC_WIPER_D20_AHD_RLE)
; 1015 : 				);
; 1016 : 
; 1017 : 				if (lock_screen (active_screen))

  00ce1	a1 00 00 00 00	 mov	 eax, DWORD PTR ?active_screen@@3PAUSCREEN@@A ; active_screen
  00ce6	50		 push	 eax
  00ce7	e8 00 00 00 00	 call	 ?lock_screen@@YGHPAUSCREEN@@@Z ; lock_screen
  00cec	85 c0		 test	 eax, eax
  00cee	0f 84 ed 00 00
	00		 je	 $LN116@draw_hind_

; 1018 : 				{
; 1019 : 					blit_rle_graphic (get_graphics_file_data (base_cockpit_graphics_file + GRAPHICS_COCKPITS_HAVOC_D20_AHD_RLE), ix_640_480, iy_640_480);

  00cf4	a1 00 00 00 00	 mov	 eax, DWORD PTR ?iy_640_480@@3HA ; iy_640_480
  00cf9	50		 push	 eax
  00cfa	8b 0d 00 00 00
	00		 mov	 ecx, DWORD PTR ?ix_640_480@@3HA ; ix_640_480
  00d00	51		 push	 ecx
  00d01	8b 15 00 00 00
	00		 mov	 edx, DWORD PTR ?base_cockpit_graphics_file@@3W4GRAPHICS_FILE_SPECIFIERS@@A ; base_cockpit_graphics_file
  00d07	83 c2 18	 add	 edx, 24			; 00000018H
  00d0a	6b c2 28	 imul	 eax, edx, 40
  00d0d	8b 88 1c 00 00
	00		 mov	 ecx, DWORD PTR ?graphics_files@@3PAUFILE_DATA@@A[eax+28]
  00d13	51		 push	 ecx
  00d14	e8 00 00 00 00	 call	 ?blit_rle_graphic@@YGXPBEHH@Z ; blit_rle_graphic

; 1020 : 
; 1021 : 					draw_havoc_barometric_altimeter (panel);

  00d19	8b 45 08	 mov	 eax, DWORD PTR _panel$[ebp]
  00d1c	50		 push	 eax
  00d1d	e8 00 00 00 00	 call	 ?draw_havoc_barometric_altimeter@@YGXW4COCKPIT_PANELS@@@Z ; draw_havoc_barometric_altimeter

; 1022 : 
; 1023 : 					draw_havoc_airspeed_indicator (panel);

  00d22	8b 45 08	 mov	 eax, DWORD PTR _panel$[ebp]
  00d25	50		 push	 eax
  00d26	e8 00 00 00 00	 call	 ?draw_havoc_airspeed_indicator@@YGXW4COCKPIT_PANELS@@@Z ; draw_havoc_airspeed_indicator

; 1024 : 
; 1025 : 					draw_havoc_main_rotor_rpm_indicator (panel);

  00d2b	8b 45 08	 mov	 eax, DWORD PTR _panel$[ebp]
  00d2e	50		 push	 eax
  00d2f	e8 00 00 00 00	 call	 ?draw_havoc_main_rotor_rpm_indicator@@YGXW4COCKPIT_PANELS@@@Z ; draw_havoc_main_rotor_rpm_indicator

; 1026 : 
; 1027 : 					draw_havoc_g_meter (panel);

  00d34	8b 45 08	 mov	 eax, DWORD PTR _panel$[ebp]
  00d37	50		 push	 eax
  00d38	e8 00 00 00 00	 call	 ?draw_havoc_g_meter@@YGXW4COCKPIT_PANELS@@@Z ; draw_havoc_g_meter

; 1028 : 
; 1029 : 					draw_havoc_engine_torque_indicator (panel);

  00d3d	8b 45 08	 mov	 eax, DWORD PTR _panel$[ebp]
  00d40	50		 push	 eax
  00d41	e8 00 00 00 00	 call	 ?draw_havoc_engine_torque_indicator@@YGXW4COCKPIT_PANELS@@@Z ; draw_havoc_engine_torque_indicator

; 1030 : 
; 1031 : 					draw_havoc_engine_temperature_indicator (panel);

  00d46	8b 45 08	 mov	 eax, DWORD PTR _panel$[ebp]
  00d49	50		 push	 eax
  00d4a	e8 00 00 00 00	 call	 ?draw_havoc_engine_temperature_indicator@@YGXW4COCKPIT_PANELS@@@Z ; draw_havoc_engine_temperature_indicator

; 1032 : 
; 1033 : 					draw_havoc_engine_rpm_indicator (panel);

  00d4f	8b 45 08	 mov	 eax, DWORD PTR _panel$[ebp]
  00d52	50		 push	 eax
  00d53	e8 00 00 00 00	 call	 ?draw_havoc_engine_rpm_indicator@@YGXW4COCKPIT_PANELS@@@Z ; draw_havoc_engine_rpm_indicator

; 1034 : 
; 1035 : 					draw_havoc_engine_temperature_and_rpm_indicator_ticks (panel);

  00d58	8b 45 08	 mov	 eax, DWORD PTR _panel$[ebp]
  00d5b	50		 push	 eax
  00d5c	e8 00 00 00 00	 call	 ?draw_havoc_engine_temperature_and_rpm_indicator_ticks@@YGXW4COCKPIT_PANELS@@@Z ; draw_havoc_engine_temperature_and_rpm_indicator_ticks

; 1036 : 
; 1037 : 					draw_havoc_vertical_speed_indicator (panel);

  00d61	8b 45 08	 mov	 eax, DWORD PTR _panel$[ebp]
  00d64	50		 push	 eax
  00d65	e8 00 00 00 00	 call	 ?draw_havoc_vertical_speed_indicator@@YGXW4COCKPIT_PANELS@@@Z ; draw_havoc_vertical_speed_indicator

; 1038 : 
; 1039 : 					draw_havoc_clock (panel);

  00d6a	8b 45 08	 mov	 eax, DWORD PTR _panel$[ebp]
  00d6d	50		 push	 eax
  00d6e	e8 00 00 00 00	 call	 ?draw_havoc_clock@@YGXW4COCKPIT_PANELS@@@Z ; draw_havoc_clock

; 1040 : 
; 1041 : 					draw_havoc_radar_altimeter (panel);

  00d73	8b 45 08	 mov	 eax, DWORD PTR _panel$[ebp]
  00d76	50		 push	 eax
  00d77	e8 00 00 00 00	 call	 ?draw_havoc_radar_altimeter@@YGXW4COCKPIT_PANELS@@@Z ; draw_havoc_radar_altimeter

; 1042 : 
; 1043 : 					draw_havoc_fuel_gauge (panel);

  00d7c	8b 45 08	 mov	 eax, DWORD PTR _panel$[ebp]
  00d7f	50		 push	 eax
  00d80	e8 00 00 00 00	 call	 ?draw_havoc_fuel_gauge@@YGXW4COCKPIT_PANELS@@@Z ; draw_havoc_fuel_gauge

; 1044 : 
; 1045 : 					draw_havoc_fixed_cockpit_hsi_waypoint_distance_digits (panel);

  00d85	8b 45 08	 mov	 eax, DWORD PTR _panel$[ebp]
  00d88	50		 push	 eax
  00d89	e8 00 00 00 00	 call	 ?draw_havoc_fixed_cockpit_hsi_waypoint_distance_digits@@YGXW4COCKPIT_PANELS@@@Z ; draw_havoc_fixed_cockpit_hsi_waypoint_distance_digits

; 1046 : 
; 1047 : 					draw_havoc_fixed_cockpit_hsi_waypoint_identifier (panel);

  00d8e	8b 45 08	 mov	 eax, DWORD PTR _panel$[ebp]
  00d91	50		 push	 eax
  00d92	e8 00 00 00 00	 call	 ?draw_havoc_fixed_cockpit_hsi_waypoint_identifier@@YGXW4COCKPIT_PANELS@@@Z ; draw_havoc_fixed_cockpit_hsi_waypoint_identifier

; 1048 : 
; 1049 : 					draw_havoc_weapons_management_panel_lamps (panel);

  00d97	8b 45 08	 mov	 eax, DWORD PTR _panel$[ebp]
  00d9a	50		 push	 eax
  00d9b	e8 00 00 00 00	 call	 ?draw_havoc_weapons_management_panel_lamps@@YGXW4COCKPIT_PANELS@@@Z ; draw_havoc_weapons_management_panel_lamps

; 1050 : 
; 1051 : 					draw_havoc_status_panel_lamps (panel);

  00da0	8b 45 08	 mov	 eax, DWORD PTR _panel$[ebp]
  00da3	50		 push	 eax
  00da4	e8 00 00 00 00	 call	 ?draw_havoc_status_panel_lamps@@YGXW4COCKPIT_PANELS@@@Z ; draw_havoc_status_panel_lamps

; 1052 : 
; 1053 : 					draw_havoc_threat_warning_display (panel);

  00da9	8b 45 08	 mov	 eax, DWORD PTR _panel$[ebp]
  00dac	50		 push	 eax
  00dad	e8 00 00 00 00	 call	 ?draw_havoc_threat_warning_display@@YGXW4COCKPIT_PANELS@@@Z ; draw_havoc_threat_warning_display

; 1054 : 
; 1055 : 					draw_havoc_master_caution_lamp (panel);

  00db2	8b 45 08	 mov	 eax, DWORD PTR _panel$[ebp]
  00db5	50		 push	 eax
  00db6	e8 00 00 00 00	 call	 ?draw_havoc_master_caution_lamp@@YGXW4COCKPIT_PANELS@@@Z ; draw_havoc_master_caution_lamp

; 1056 : 
; 1057 : 					draw_havoc_warning_panel_lamps (panel);

  00dbb	8b 45 08	 mov	 eax, DWORD PTR _panel$[ebp]
  00dbe	50		 push	 eax
  00dbf	e8 00 00 00 00	 call	 ?draw_havoc_warning_panel_lamps@@YGXW4COCKPIT_PANELS@@@Z ; draw_havoc_warning_panel_lamps

; 1058 : 
; 1059 : 					draw_havoc_radio_lamp (panel);

  00dc4	8b 45 08	 mov	 eax, DWORD PTR _panel$[ebp]
  00dc7	50		 push	 eax
  00dc8	e8 00 00 00 00	 call	 ?draw_havoc_radio_lamp@@YGXW4COCKPIT_PANELS@@@Z ; draw_havoc_radio_lamp

; 1060 : 
; 1061 : 					draw_havoc_oil_gauges (panel);

  00dcd	8b 45 08	 mov	 eax, DWORD PTR _panel$[ebp]
  00dd0	50		 push	 eax
  00dd1	e8 00 00 00 00	 call	 ?draw_havoc_oil_gauges@@YGXW4COCKPIT_PANELS@@@Z ; draw_havoc_oil_gauges

; 1062 : 
; 1063 : 					unlock_screen (active_screen);

  00dd6	a1 00 00 00 00	 mov	 eax, DWORD PTR ?active_screen@@3PAUSCREEN@@A ; active_screen
  00ddb	50		 push	 eax
  00ddc	e8 00 00 00 00	 call	 ?unlock_screen@@YGHPAUSCREEN@@@Z ; unlock_screen
$LN116@draw_hind_:

; 1064 : 				}
; 1065 : 
; 1066 : 				draw_hind_internal_virtual_cockpit

  00de1	68 0c 00 02 00	 push	 131084			; 0002000cH
  00de6	e8 00 00 00 00	 call	 ?draw_hind_internal_virtual_cockpit@@YGXI@Z ; draw_hind_internal_virtual_cockpit

; 1067 : 				(
; 1068 : 					VIRTUAL_COCKPIT_HUD_GLASS |
; 1069 : 					VIRTUAL_COCKPIT_HUD_DISPLAY |
; 1070 : 					VIRTUAL_COCKPIT_INSTRUMENT_NEEDLES
; 1071 : 				);
; 1072 : 
; 1073 : 				draw_hind_mfd_on_cockpit (fx_640_480 + 354.0, fy_640_480 + 337.0, FALSE, FALSE);

  00deb	6a 00		 push	 0
  00ded	6a 00		 push	 0
  00def	f3 0f 5a 05 00
	00 00 00	 cvtss2sd xmm0, DWORD PTR ?fy_640_480@@3MA
  00df7	f2 0f 58 05 00
	00 00 00	 addsd	 xmm0, QWORD PTR __real@4075100000000000
  00dff	f2 0f 5a c0	 cvtsd2ss xmm0, xmm0
  00e03	51		 push	 ecx
  00e04	f3 0f 11 04 24	 movss	 DWORD PTR [esp], xmm0
  00e09	f3 0f 5a 05 00
	00 00 00	 cvtss2sd xmm0, DWORD PTR ?fx_640_480@@3MA
  00e11	f2 0f 58 05 00
	00 00 00	 addsd	 xmm0, QWORD PTR __real@4076200000000000
  00e19	f2 0f 5a c0	 cvtsd2ss xmm0, xmm0
  00e1d	51		 push	 ecx
  00e1e	f3 0f 11 04 24	 movss	 DWORD PTR [esp], xmm0
  00e23	e8 00 00 00 00	 call	 ?draw_hind_mfd_on_cockpit@@YGXMMHH@Z ; draw_hind_mfd_on_cockpit

; 1074 : 
; 1075 : 				draw_hind_ekran_display_on_cockpit (fx_640_480 + 459.0, fy_640_480 + 310.0);

  00e28	f3 0f 5a 05 00
	00 00 00	 cvtss2sd xmm0, DWORD PTR ?fy_640_480@@3MA
  00e30	f2 0f 58 05 00
	00 00 00	 addsd	 xmm0, QWORD PTR __real@4073600000000000
  00e38	f2 0f 5a c0	 cvtsd2ss xmm0, xmm0
  00e3c	51		 push	 ecx
  00e3d	f3 0f 11 04 24	 movss	 DWORD PTR [esp], xmm0
  00e42	f3 0f 5a 05 00
	00 00 00	 cvtss2sd xmm0, DWORD PTR ?fx_640_480@@3MA
  00e4a	f2 0f 58 05 00
	00 00 00	 addsd	 xmm0, QWORD PTR __real@407cb00000000000
  00e52	f2 0f 5a c0	 cvtsd2ss xmm0, xmm0
  00e56	51		 push	 ecx
  00e57	f3 0f 11 04 24	 movss	 DWORD PTR [esp], xmm0
  00e5c	e8 00 00 00 00	 call	 ?draw_hind_ekran_display_on_cockpit@@YGXMM@Z ; draw_hind_ekran_display_on_cockpit

; 1076 : 
; 1077 : 				if (lock_screen (active_screen))

  00e61	a1 00 00 00 00	 mov	 eax, DWORD PTR ?active_screen@@3PAUSCREEN@@A ; active_screen
  00e66	50		 push	 eax
  00e67	e8 00 00 00 00	 call	 ?lock_screen@@YGHPAUSCREEN@@@Z ; lock_screen
  00e6c	85 c0		 test	 eax, eax
  00e6e	74 30		 je	 SHORT $LN117@draw_hind_

; 1078 : 				{
; 1079 : 					blit_rle_graphic (get_graphics_file_data (base_cockpit_graphics_file + GRAPHICS_COCKPITS_HAVOC_CRT_MASK_D20_AHD_RLE), ix_640_480, iy_640_480);

  00e70	a1 00 00 00 00	 mov	 eax, DWORD PTR ?iy_640_480@@3HA ; iy_640_480
  00e75	50		 push	 eax
  00e76	8b 0d 00 00 00
	00		 mov	 ecx, DWORD PTR ?ix_640_480@@3HA ; ix_640_480
  00e7c	51		 push	 ecx
  00e7d	8b 15 00 00 00
	00		 mov	 edx, DWORD PTR ?base_cockpit_graphics_file@@3W4GRAPHICS_FILE_SPECIFIERS@@A ; base_cockpit_graphics_file
  00e83	83 c2 1e	 add	 edx, 30			; 0000001eH
  00e86	6b c2 28	 imul	 eax, edx, 40
  00e89	8b 88 1c 00 00
	00		 mov	 ecx, DWORD PTR ?graphics_files@@3PAUFILE_DATA@@A[eax+28]
  00e8f	51		 push	 ecx
  00e90	e8 00 00 00 00	 call	 ?blit_rle_graphic@@YGXPBEHH@Z ; blit_rle_graphic

; 1080 : 
; 1081 : 					unlock_screen (active_screen);

  00e95	a1 00 00 00 00	 mov	 eax, DWORD PTR ?active_screen@@3PAUSCREEN@@A ; active_screen
  00e9a	50		 push	 eax
  00e9b	e8 00 00 00 00	 call	 ?unlock_screen@@YGHPAUSCREEN@@@Z ; unlock_screen
$LN117@draw_hind_:

; 1082 : 				}
; 1083 : 			}
; 1084 : 			else

  00ea0	eb 07		 jmp	 SHORT $LN115@draw_hind_
$LN114@draw_hind_:

; 1085 : 			{
; 1086 : 				draw_hind_hud_on_cockpit (TRUE);

  00ea2	6a 01		 push	 1
  00ea4	e8 00 00 00 00	 call	 ?draw_hind_hud_on_cockpit@@YGXH@Z ; draw_hind_hud_on_cockpit
$LN115@draw_hind_:

; 1087 : 			}
; 1088 : 
; 1089 : 			draw_hind_hms ();

  00ea9	e8 00 00 00 00	 call	 ?draw_hind_hms@@YGXXZ	; draw_hind_hms

; 1090 : 
; 1091 : 			break;

  00eae	e9 31 03 00 00	 jmp	 $LN4@draw_hind_
$LN118@draw_hind_:

; 1092 : 		}
; 1093 : 		////////////////////////////////////////
; 1094 : 		case COCKPIT_PANEL_DOWN20_RIGHT30:
; 1095 : 		////////////////////////////////////////
; 1096 : 		{
; 1097 : 			if (get_global_draw_cockpit_graphics ())

  00eb3	83 3d b8 01 00
	00 00		 cmp	 DWORD PTR ?global_options@@3UGLOBAL_OPTIONS_DATA@@A+440, 0
  00eba	0f 84 c5 00 00
	00		 je	 $LN119@draw_hind_

; 1098 : 			{
; 1099 : 				draw_hind_external_virtual_cockpit

  00ec0	a1 00 00 00 00	 mov	 eax, DWORD PTR ?base_cockpit_graphics_file@@3W4GRAPHICS_FILE_SPECIFIERS@@A ; base_cockpit_graphics_file
  00ec5	83 c0 29	 add	 eax, 41			; 00000029H
  00ec8	6b c8 28	 imul	 ecx, eax, 40
  00ecb	8b 91 1c 00 00
	00		 mov	 edx, DWORD PTR ?graphics_files@@3PAUFILE_DATA@@A[ecx+28]
  00ed1	52		 push	 edx
  00ed2	68 00 b0 01 00	 push	 110592			; 0001b000H
  00ed7	e8 00 00 00 00	 call	 ?draw_hind_external_virtual_cockpit@@YGXIPAE@Z ; draw_hind_external_virtual_cockpit

; 1100 : 				(
; 1101 : 					VIRTUAL_COCKPIT_RENDERED_WIPER |
; 1102 : 					VIRTUAL_COCKPIT_MOVING_WIPER |
; 1103 : 					VIRTUAL_COCKPIT_RAIN_EFFECT |
; 1104 : 					VIRTUAL_COCKPIT_MAIN_ROTOR,
; 1105 : 					get_graphics_file_data (base_cockpit_graphics_file + GRAPHICS_COCKPITS_HAVOC_WIPER_D20_R30_RLE)
; 1106 : 				);
; 1107 : 
; 1108 : 				if (lock_screen (active_screen))

  00edc	a1 00 00 00 00	 mov	 eax, DWORD PTR ?active_screen@@3PAUSCREEN@@A ; active_screen
  00ee1	50		 push	 eax
  00ee2	e8 00 00 00 00	 call	 ?lock_screen@@YGHPAUSCREEN@@@Z ; lock_screen
  00ee7	85 c0		 test	 eax, eax
  00ee9	0f 84 8a 00 00
	00		 je	 $LN121@draw_hind_

; 1109 : 				{
; 1110 : 					blit_rle_graphic (get_graphics_file_data (base_cockpit_graphics_file + GRAPHICS_COCKPITS_HAVOC_D20_R30_RLE), ix_640_480, iy_640_480);

  00eef	a1 00 00 00 00	 mov	 eax, DWORD PTR ?iy_640_480@@3HA ; iy_640_480
  00ef4	50		 push	 eax
  00ef5	8b 0d 00 00 00
	00		 mov	 ecx, DWORD PTR ?ix_640_480@@3HA ; ix_640_480
  00efb	51		 push	 ecx
  00efc	8b 15 00 00 00
	00		 mov	 edx, DWORD PTR ?base_cockpit_graphics_file@@3W4GRAPHICS_FILE_SPECIFIERS@@A ; base_cockpit_graphics_file
  00f02	83 c2 19	 add	 edx, 25			; 00000019H
  00f05	6b c2 28	 imul	 eax, edx, 40
  00f08	8b 88 1c 00 00
	00		 mov	 ecx, DWORD PTR ?graphics_files@@3PAUFILE_DATA@@A[eax+28]
  00f0e	51		 push	 ecx
  00f0f	e8 00 00 00 00	 call	 ?blit_rle_graphic@@YGXPBEHH@Z ; blit_rle_graphic

; 1111 : 
; 1112 : 					draw_havoc_engine_torque_indicator (panel);

  00f14	8b 45 08	 mov	 eax, DWORD PTR _panel$[ebp]
  00f17	50		 push	 eax
  00f18	e8 00 00 00 00	 call	 ?draw_havoc_engine_torque_indicator@@YGXW4COCKPIT_PANELS@@@Z ; draw_havoc_engine_torque_indicator

; 1113 : 
; 1114 : 					draw_havoc_engine_temperature_indicator (panel);

  00f1d	8b 45 08	 mov	 eax, DWORD PTR _panel$[ebp]
  00f20	50		 push	 eax
  00f21	e8 00 00 00 00	 call	 ?draw_havoc_engine_temperature_indicator@@YGXW4COCKPIT_PANELS@@@Z ; draw_havoc_engine_temperature_indicator

; 1115 : 
; 1116 : 					draw_havoc_engine_rpm_indicator (panel);

  00f26	8b 45 08	 mov	 eax, DWORD PTR _panel$[ebp]
  00f29	50		 push	 eax
  00f2a	e8 00 00 00 00	 call	 ?draw_havoc_engine_rpm_indicator@@YGXW4COCKPIT_PANELS@@@Z ; draw_havoc_engine_rpm_indicator

; 1117 : 
; 1118 : 					draw_havoc_engine_temperature_and_rpm_indicator_ticks (panel);

  00f2f	8b 45 08	 mov	 eax, DWORD PTR _panel$[ebp]
  00f32	50		 push	 eax
  00f33	e8 00 00 00 00	 call	 ?draw_havoc_engine_temperature_and_rpm_indicator_ticks@@YGXW4COCKPIT_PANELS@@@Z ; draw_havoc_engine_temperature_and_rpm_indicator_ticks

; 1119 : 
; 1120 : 					draw_havoc_fuel_gauge (panel);

  00f38	8b 45 08	 mov	 eax, DWORD PTR _panel$[ebp]
  00f3b	50		 push	 eax
  00f3c	e8 00 00 00 00	 call	 ?draw_havoc_fuel_gauge@@YGXW4COCKPIT_PANELS@@@Z ; draw_havoc_fuel_gauge

; 1121 : 
; 1122 : 					draw_hind_status_panel_lamps (panel);

  00f41	8b 45 08	 mov	 eax, DWORD PTR _panel$[ebp]
  00f44	50		 push	 eax
  00f45	e8 00 00 00 00	 call	 ?draw_hind_status_panel_lamps@@YGXW4COCKPIT_PANELS@@@Z ; draw_hind_status_panel_lamps

; 1123 : 
; 1124 : 					draw_hind_threat_warning_display (panel);

  00f4a	8b 45 08	 mov	 eax, DWORD PTR _panel$[ebp]
  00f4d	50		 push	 eax
  00f4e	e8 00 00 00 00	 call	 ?draw_hind_threat_warning_display@@YGXW4COCKPIT_PANELS@@@Z ; draw_hind_threat_warning_display

; 1125 : 
; 1126 : 					draw_hind_warning_panel_lamps (panel);

  00f53	8b 45 08	 mov	 eax, DWORD PTR _panel$[ebp]
  00f56	50		 push	 eax
  00f57	e8 00 00 00 00	 call	 ?draw_hind_warning_panel_lamps@@YGXW4COCKPIT_PANELS@@@Z ; draw_hind_warning_panel_lamps

; 1127 : 
; 1128 : 					draw_hind_radio_lamp (panel);

  00f5c	8b 45 08	 mov	 eax, DWORD PTR _panel$[ebp]
  00f5f	50		 push	 eax
  00f60	e8 00 00 00 00	 call	 ?draw_hind_radio_lamp@@YGXW4COCKPIT_PANELS@@@Z ; draw_hind_radio_lamp

; 1129 : 
; 1130 : 					draw_havoc_oil_gauges (panel);

  00f65	8b 45 08	 mov	 eax, DWORD PTR _panel$[ebp]
  00f68	50		 push	 eax
  00f69	e8 00 00 00 00	 call	 ?draw_havoc_oil_gauges@@YGXW4COCKPIT_PANELS@@@Z ; draw_havoc_oil_gauges

; 1131 : 
; 1132 : 					unlock_screen (active_screen);

  00f6e	a1 00 00 00 00	 mov	 eax, DWORD PTR ?active_screen@@3PAUSCREEN@@A ; active_screen
  00f73	50		 push	 eax
  00f74	e8 00 00 00 00	 call	 ?unlock_screen@@YGHPAUSCREEN@@@Z ; unlock_screen
$LN121@draw_hind_:

; 1133 : 				}
; 1134 : 
; 1135 : 				draw_hind_internal_virtual_cockpit

  00f79	68 1c 08 00 00	 push	 2076			; 0000081cH
  00f7e	e8 00 00 00 00	 call	 ?draw_hind_internal_virtual_cockpit@@YGXI@Z ; draw_hind_internal_virtual_cockpit

; 1136 : 				(
; 1137 : 					VIRTUAL_COCKPIT_HUD_GLASS |
; 1138 : 					VIRTUAL_COCKPIT_HUD_DISPLAY |
; 1139 : 					VIRTUAL_COCKPIT_CRT_DISPLAY |
; 1140 : 					VIRTUAL_COCKPIT_EKRAN_DISPLAY
; 1141 : 				);
; 1142 : 			}
; 1143 : 			else

  00f83	eb 07		 jmp	 SHORT $LN120@draw_hind_
$LN119@draw_hind_:

; 1144 : 			{
; 1145 : 				draw_hind_hud_on_cockpit (TRUE);

  00f85	6a 01		 push	 1
  00f87	e8 00 00 00 00	 call	 ?draw_hind_hud_on_cockpit@@YGXH@Z ; draw_hind_hud_on_cockpit
$LN120@draw_hind_:

; 1146 : 			}
; 1147 : 
; 1148 : 			draw_hind_hms ();

  00f8c	e8 00 00 00 00	 call	 ?draw_hind_hms@@YGXXZ	; draw_hind_hms

; 1149 : 
; 1150 : 			break;

  00f91	e9 4e 02 00 00	 jmp	 $LN4@draw_hind_
$LN122@draw_hind_:

; 1151 : 		}
; 1152 : 		////////////////////////////////////////
; 1153 : 		case COCKPIT_PANEL_DOWN20_RIGHT60:
; 1154 : 		////////////////////////////////////////
; 1155 : 		{
; 1156 : 			if (get_global_draw_cockpit_graphics ())

  00f96	83 3d b8 01 00
	00 00		 cmp	 DWORD PTR ?global_options@@3UGLOBAL_OPTIONS_DATA@@A+440, 0
  00f9d	74 68		 je	 SHORT $LN123@draw_hind_

; 1157 : 			{
; 1158 : 				draw_hind_external_virtual_cockpit

  00f9f	6a 00		 push	 0
  00fa1	68 00 10 01 00	 push	 69632			; 00011000H
  00fa6	e8 00 00 00 00	 call	 ?draw_hind_external_virtual_cockpit@@YGXIPAE@Z ; draw_hind_external_virtual_cockpit

; 1159 : 				(
; 1160 : 					VIRTUAL_COCKPIT_RAIN_EFFECT |
; 1161 : 					VIRTUAL_COCKPIT_MAIN_ROTOR,
; 1162 : 					NULL
; 1163 : 				);
; 1164 : 
; 1165 : 				if (lock_screen (active_screen))

  00fab	a1 00 00 00 00	 mov	 eax, DWORD PTR ?active_screen@@3PAUSCREEN@@A ; active_screen
  00fb0	50		 push	 eax
  00fb1	e8 00 00 00 00	 call	 ?lock_screen@@YGHPAUSCREEN@@@Z ; lock_screen
  00fb6	85 c0		 test	 eax, eax
  00fb8	74 4b		 je	 SHORT $LN125@draw_hind_

; 1166 : 				{
; 1167 : 					blit_rle_graphic (get_graphics_file_data (base_cockpit_graphics_file + GRAPHICS_COCKPITS_HAVOC_D20_R60_RLE), ix_640_480, iy_640_480);

  00fba	a1 00 00 00 00	 mov	 eax, DWORD PTR ?iy_640_480@@3HA ; iy_640_480
  00fbf	50		 push	 eax
  00fc0	8b 0d 00 00 00
	00		 mov	 ecx, DWORD PTR ?ix_640_480@@3HA ; ix_640_480
  00fc6	51		 push	 ecx
  00fc7	8b 15 00 00 00
	00		 mov	 edx, DWORD PTR ?base_cockpit_graphics_file@@3W4GRAPHICS_FILE_SPECIFIERS@@A ; base_cockpit_graphics_file
  00fcd	83 c2 1a	 add	 edx, 26			; 0000001aH
  00fd0	6b c2 28	 imul	 eax, edx, 40
  00fd3	8b 88 1c 00 00
	00		 mov	 ecx, DWORD PTR ?graphics_files@@3PAUFILE_DATA@@A[eax+28]
  00fd9	51		 push	 ecx
  00fda	e8 00 00 00 00	 call	 ?blit_rle_graphic@@YGXPBEHH@Z ; blit_rle_graphic

; 1168 : 
; 1169 : 					draw_hind_status_panel_lamps (panel);

  00fdf	8b 45 08	 mov	 eax, DWORD PTR _panel$[ebp]
  00fe2	50		 push	 eax
  00fe3	e8 00 00 00 00	 call	 ?draw_hind_status_panel_lamps@@YGXW4COCKPIT_PANELS@@@Z ; draw_hind_status_panel_lamps

; 1170 : 
; 1171 : 					draw_hind_radio_lamp (panel);

  00fe8	8b 45 08	 mov	 eax, DWORD PTR _panel$[ebp]
  00feb	50		 push	 eax
  00fec	e8 00 00 00 00	 call	 ?draw_hind_radio_lamp@@YGXW4COCKPIT_PANELS@@@Z ; draw_hind_radio_lamp

; 1172 : 
; 1173 : 					draw_havoc_oil_gauges (panel);

  00ff1	8b 45 08	 mov	 eax, DWORD PTR _panel$[ebp]
  00ff4	50		 push	 eax
  00ff5	e8 00 00 00 00	 call	 ?draw_havoc_oil_gauges@@YGXW4COCKPIT_PANELS@@@Z ; draw_havoc_oil_gauges

; 1174 : 
; 1175 : 					unlock_screen (active_screen);

  00ffa	a1 00 00 00 00	 mov	 eax, DWORD PTR ?active_screen@@3PAUSCREEN@@A ; active_screen
  00fff	50		 push	 eax
  01000	e8 00 00 00 00	 call	 ?unlock_screen@@YGHPAUSCREEN@@@Z ; unlock_screen
$LN125@draw_hind_:

; 1176 : 				}
; 1177 : 			}
; 1178 : 			else

  01005	eb 07		 jmp	 SHORT $LN124@draw_hind_
$LN123@draw_hind_:

; 1179 : 			{
; 1180 : 				draw_hind_hud_on_cockpit (TRUE);

  01007	6a 01		 push	 1
  01009	e8 00 00 00 00	 call	 ?draw_hind_hud_on_cockpit@@YGXH@Z ; draw_hind_hud_on_cockpit
$LN124@draw_hind_:

; 1181 : 			}
; 1182 : 
; 1183 : 			draw_hind_hms ();

  0100e	e8 00 00 00 00	 call	 ?draw_hind_hms@@YGXXZ	; draw_hind_hms

; 1184 : 
; 1185 : 			break;

  01013	e9 cc 01 00 00	 jmp	 $LN4@draw_hind_
$LN126@draw_hind_:

; 1186 : 		}
; 1187 : 		////////////////////////////////////////
; 1188 : 		case COCKPIT_PANEL_DOWN20_RIGHT90:
; 1189 : 		////////////////////////////////////////
; 1190 : 		{
; 1191 : 			if (get_global_draw_cockpit_graphics ())

  01018	83 3d b8 01 00
	00 00		 cmp	 DWORD PTR ?global_options@@3UGLOBAL_OPTIONS_DATA@@A+440, 0
  0101f	74 4d		 je	 SHORT $LN127@draw_hind_

; 1192 : 			{
; 1193 : 				draw_hind_external_virtual_cockpit

  01021	6a 00		 push	 0
  01023	68 00 10 01 00	 push	 69632			; 00011000H
  01028	e8 00 00 00 00	 call	 ?draw_hind_external_virtual_cockpit@@YGXIPAE@Z ; draw_hind_external_virtual_cockpit

; 1194 : 				(
; 1195 : 					VIRTUAL_COCKPIT_RAIN_EFFECT |
; 1196 : 					VIRTUAL_COCKPIT_MAIN_ROTOR,
; 1197 : 					NULL
; 1198 : 				);
; 1199 : 
; 1200 : 				if (lock_screen (active_screen))

  0102d	a1 00 00 00 00	 mov	 eax, DWORD PTR ?active_screen@@3PAUSCREEN@@A ; active_screen
  01032	50		 push	 eax
  01033	e8 00 00 00 00	 call	 ?lock_screen@@YGHPAUSCREEN@@@Z ; lock_screen
  01038	85 c0		 test	 eax, eax
  0103a	74 30		 je	 SHORT $LN129@draw_hind_

; 1201 : 				{
; 1202 : 					blit_rle_graphic (get_graphics_file_data (base_cockpit_graphics_file + GRAPHICS_COCKPITS_HAVOC_D20_R90_RLE), ix_640_480, iy_640_480);

  0103c	a1 00 00 00 00	 mov	 eax, DWORD PTR ?iy_640_480@@3HA ; iy_640_480
  01041	50		 push	 eax
  01042	8b 0d 00 00 00
	00		 mov	 ecx, DWORD PTR ?ix_640_480@@3HA ; ix_640_480
  01048	51		 push	 ecx
  01049	8b 15 00 00 00
	00		 mov	 edx, DWORD PTR ?base_cockpit_graphics_file@@3W4GRAPHICS_FILE_SPECIFIERS@@A ; base_cockpit_graphics_file
  0104f	83 c2 1b	 add	 edx, 27			; 0000001bH
  01052	6b c2 28	 imul	 eax, edx, 40
  01055	8b 88 1c 00 00
	00		 mov	 ecx, DWORD PTR ?graphics_files@@3PAUFILE_DATA@@A[eax+28]
  0105b	51		 push	 ecx
  0105c	e8 00 00 00 00	 call	 ?blit_rle_graphic@@YGXPBEHH@Z ; blit_rle_graphic

; 1203 : 
; 1204 : 					unlock_screen (active_screen);

  01061	a1 00 00 00 00	 mov	 eax, DWORD PTR ?active_screen@@3PAUSCREEN@@A ; active_screen
  01066	50		 push	 eax
  01067	e8 00 00 00 00	 call	 ?unlock_screen@@YGHPAUSCREEN@@@Z ; unlock_screen
$LN129@draw_hind_:

; 1205 : 				}
; 1206 : 			}
; 1207 : 			else

  0106c	eb 07		 jmp	 SHORT $LN128@draw_hind_
$LN127@draw_hind_:

; 1208 : 			{
; 1209 : 				draw_hind_hud_on_cockpit (TRUE);

  0106e	6a 01		 push	 1
  01070	e8 00 00 00 00	 call	 ?draw_hind_hud_on_cockpit@@YGXH@Z ; draw_hind_hud_on_cockpit
$LN128@draw_hind_:

; 1210 : 			}
; 1211 : 
; 1212 : 			draw_hind_hms ();

  01075	e8 00 00 00 00	 call	 ?draw_hind_hms@@YGXXZ	; draw_hind_hms

; 1213 : 
; 1214 : 			break;

  0107a	e9 65 01 00 00	 jmp	 $LN4@draw_hind_
$LN130@draw_hind_:

; 1215 : 		}
; 1216 : 		////////////////////////////////////////
; 1217 : 		case COCKPIT_PANEL_SPECIAL_HAVOC_TV:
; 1218 : 		////////////////////////////////////////
; 1219 : 		{
; 1220 : 			if (lock_screen (active_screen))

  0107f	a1 00 00 00 00	 mov	 eax, DWORD PTR ?active_screen@@3PAUSCREEN@@A ; active_screen
  01084	50		 push	 eax
  01085	e8 00 00 00 00	 call	 ?lock_screen@@YGHPAUSCREEN@@@Z ; lock_screen
  0108a	85 c0		 test	 eax, eax
  0108c	74 30		 je	 SHORT $LN131@draw_hind_

; 1221 : 			{
; 1222 : 				blit_rgb_graphic (get_graphics_file_data (base_cockpit_graphics_file + GRAPHICS_COCKPITS_HAVOC_CRT_RGB), ix_640_480, iy_640_480);

  0108e	a1 00 00 00 00	 mov	 eax, DWORD PTR ?iy_640_480@@3HA ; iy_640_480
  01093	50		 push	 eax
  01094	8b 0d 00 00 00
	00		 mov	 ecx, DWORD PTR ?ix_640_480@@3HA ; ix_640_480
  0109a	51		 push	 ecx
  0109b	8b 15 00 00 00
	00		 mov	 edx, DWORD PTR ?base_cockpit_graphics_file@@3W4GRAPHICS_FILE_SPECIFIERS@@A ; base_cockpit_graphics_file
  010a1	83 c2 1c	 add	 edx, 28			; 0000001cH
  010a4	6b c2 28	 imul	 eax, edx, 40
  010a7	8b 88 1c 00 00
	00		 mov	 ecx, DWORD PTR ?graphics_files@@3PAUFILE_DATA@@A[eax+28]
  010ad	51		 push	 ecx
  010ae	e8 00 00 00 00	 call	 ?blit_rgb_graphic@@YGXPBEHH@Z ; blit_rgb_graphic

; 1223 : 
; 1224 : 				unlock_screen (active_screen);

  010b3	a1 00 00 00 00	 mov	 eax, DWORD PTR ?active_screen@@3PAUSCREEN@@A ; active_screen
  010b8	50		 push	 eax
  010b9	e8 00 00 00 00	 call	 ?unlock_screen@@YGHPAUSCREEN@@@Z ; unlock_screen
$LN131@draw_hind_:

; 1225 : 			}
; 1226 : 
; 1227 : 			draw_hind_mfd_on_cockpit (fx_640_480 + 321.0, fy_640_480 + 229.0, TRUE, FALSE);

  010be	6a 00		 push	 0
  010c0	6a 01		 push	 1
  010c2	f3 0f 5a 05 00
	00 00 00	 cvtss2sd xmm0, DWORD PTR ?fy_640_480@@3MA
  010ca	f2 0f 58 05 00
	00 00 00	 addsd	 xmm0, QWORD PTR __real@406ca00000000000
  010d2	f2 0f 5a c0	 cvtsd2ss xmm0, xmm0
  010d6	51		 push	 ecx
  010d7	f3 0f 11 04 24	 movss	 DWORD PTR [esp], xmm0
  010dc	f3 0f 5a 05 00
	00 00 00	 cvtss2sd xmm0, DWORD PTR ?fx_640_480@@3MA
  010e4	f2 0f 58 05 00
	00 00 00	 addsd	 xmm0, QWORD PTR __real@4074100000000000
  010ec	f2 0f 5a c0	 cvtsd2ss xmm0, xmm0
  010f0	51		 push	 ecx
  010f1	f3 0f 11 04 24	 movss	 DWORD PTR [esp], xmm0
  010f6	e8 00 00 00 00	 call	 ?draw_hind_mfd_on_cockpit@@YGXMMHH@Z ; draw_hind_mfd_on_cockpit

; 1228 : 
; 1229 : 			if (lock_screen (active_screen))

  010fb	a1 00 00 00 00	 mov	 eax, DWORD PTR ?active_screen@@3PAUSCREEN@@A ; active_screen
  01100	50		 push	 eax
  01101	e8 00 00 00 00	 call	 ?lock_screen@@YGHPAUSCREEN@@@Z ; lock_screen
  01106	85 c0		 test	 eax, eax
  01108	74 30		 je	 SHORT $LN132@draw_hind_

; 1230 : 			{
; 1231 : 				blit_rle_graphic (get_graphics_file_data (base_cockpit_graphics_file + GRAPHICS_COCKPITS_HAVOC_CRT_MASK_CRT_RLE), ix_640_480, iy_640_480);

  0110a	a1 00 00 00 00	 mov	 eax, DWORD PTR ?iy_640_480@@3HA ; iy_640_480
  0110f	50		 push	 eax
  01110	8b 0d 00 00 00
	00		 mov	 ecx, DWORD PTR ?ix_640_480@@3HA ; ix_640_480
  01116	51		 push	 ecx
  01117	8b 15 00 00 00
	00		 mov	 edx, DWORD PTR ?base_cockpit_graphics_file@@3W4GRAPHICS_FILE_SPECIFIERS@@A ; base_cockpit_graphics_file
  0111d	83 c2 1f	 add	 edx, 31			; 0000001fH
  01120	6b c2 28	 imul	 eax, edx, 40
  01123	8b 88 1c 00 00
	00		 mov	 ecx, DWORD PTR ?graphics_files@@3PAUFILE_DATA@@A[eax+28]
  01129	51		 push	 ecx
  0112a	e8 00 00 00 00	 call	 ?blit_rle_graphic@@YGXPBEHH@Z ; blit_rle_graphic

; 1232 : 
; 1233 : 				unlock_screen (active_screen);

  0112f	a1 00 00 00 00	 mov	 eax, DWORD PTR ?active_screen@@3PAUSCREEN@@A ; active_screen
  01134	50		 push	 eax
  01135	e8 00 00 00 00	 call	 ?unlock_screen@@YGHPAUSCREEN@@@Z ; unlock_screen
$LN132@draw_hind_:

; 1234 : 			}
; 1235 : 
; 1236 : 			break;

  0113a	e9 a5 00 00 00	 jmp	 $LN4@draw_hind_
$LN133@draw_hind_:

; 1237 : 		}
; 1238 : 		////////////////////////////////////////
; 1239 : 		case COCKPIT_PANEL_SPECIAL_HAVOC_HUD:
; 1240 : 		////////////////////////////////////////
; 1241 : 		{
; 1242 : 			if (get_global_draw_cockpit_graphics ())

  0113f	83 3d b8 01 00
	00 00		 cmp	 DWORD PTR ?global_options@@3UGLOBAL_OPTIONS_DATA@@A+440, 0
  01146	74 7d		 je	 SHORT $LN134@draw_hind_

; 1243 : 			{
; 1244 : 				draw_hind_external_virtual_cockpit

  01148	a1 00 00 00 00	 mov	 eax, DWORD PTR ?base_cockpit_graphics_file@@3W4GRAPHICS_FILE_SPECIFIERS@@A ; base_cockpit_graphics_file
  0114d	83 c0 2a	 add	 eax, 42			; 0000002aH
  01150	6b c8 28	 imul	 ecx, eax, 40
  01153	8b 91 1c 00 00
	00		 mov	 edx, DWORD PTR ?graphics_files@@3PAUFILE_DATA@@A[ecx+28]
  01159	52		 push	 edx
  0115a	68 02 b0 01 00	 push	 110594			; 0001b002H
  0115f	e8 00 00 00 00	 call	 ?draw_hind_external_virtual_cockpit@@YGXIPAE@Z ; draw_hind_external_virtual_cockpit

; 1245 : 				(
; 1246 : 					VIRTUAL_COCKPIT_LARGE_HUD |
; 1247 : 					VIRTUAL_COCKPIT_RENDERED_WIPER |
; 1248 : 					VIRTUAL_COCKPIT_MOVING_WIPER |
; 1249 : 					VIRTUAL_COCKPIT_RAIN_EFFECT |
; 1250 : 					VIRTUAL_COCKPIT_MAIN_ROTOR,
; 1251 : 					get_graphics_file_data (base_cockpit_graphics_file + GRAPHICS_COCKPITS_HAVOC_WIPER_HUD)
; 1252 : 				);
; 1253 : 
; 1254 : 				if (lock_screen (active_screen))

  01164	a1 00 00 00 00	 mov	 eax, DWORD PTR ?active_screen@@3PAUSCREEN@@A ; active_screen
  01169	50		 push	 eax
  0116a	e8 00 00 00 00	 call	 ?lock_screen@@YGHPAUSCREEN@@@Z ; lock_screen
  0116f	85 c0		 test	 eax, eax
  01171	74 4b		 je	 SHORT $LN135@draw_hind_

; 1255 : 				{
; 1256 : 					blit_rle_graphic (get_graphics_file_data (base_cockpit_graphics_file + GRAPHICS_COCKPITS_HAVOC_HUD_RLE), ix_640_480, iy_640_480);

  01173	a1 00 00 00 00	 mov	 eax, DWORD PTR ?iy_640_480@@3HA ; iy_640_480
  01178	50		 push	 eax
  01179	8b 0d 00 00 00
	00		 mov	 ecx, DWORD PTR ?ix_640_480@@3HA ; ix_640_480
  0117f	51		 push	 ecx
  01180	8b 15 00 00 00
	00		 mov	 edx, DWORD PTR ?base_cockpit_graphics_file@@3W4GRAPHICS_FILE_SPECIFIERS@@A ; base_cockpit_graphics_file
  01186	83 c2 1d	 add	 edx, 29			; 0000001dH
  01189	6b c2 28	 imul	 eax, edx, 40
  0118c	8b 88 1c 00 00
	00		 mov	 ecx, DWORD PTR ?graphics_files@@3PAUFILE_DATA@@A[eax+28]
  01192	51		 push	 ecx
  01193	e8 00 00 00 00	 call	 ?blit_rle_graphic@@YGXPBEHH@Z ; blit_rle_graphic

; 1257 : 
; 1258 : 					draw_hind_threat_warning_display (panel);

  01198	8b 45 08	 mov	 eax, DWORD PTR _panel$[ebp]
  0119b	50		 push	 eax
  0119c	e8 00 00 00 00	 call	 ?draw_hind_threat_warning_display@@YGXW4COCKPIT_PANELS@@@Z ; draw_hind_threat_warning_display

; 1259 : 
; 1260 : 					draw_hind_master_caution_lamp (panel);

  011a1	8b 45 08	 mov	 eax, DWORD PTR _panel$[ebp]
  011a4	50		 push	 eax
  011a5	e8 00 00 00 00	 call	 ?draw_hind_master_caution_lamp@@YGXW4COCKPIT_PANELS@@@Z ; draw_hind_master_caution_lamp

; 1261 : 
; 1262 : 					draw_hind_warning_panel_lamps (panel);

  011aa	8b 45 08	 mov	 eax, DWORD PTR _panel$[ebp]
  011ad	50		 push	 eax
  011ae	e8 00 00 00 00	 call	 ?draw_hind_warning_panel_lamps@@YGXW4COCKPIT_PANELS@@@Z ; draw_hind_warning_panel_lamps

; 1263 : 
; 1264 : 					unlock_screen (active_screen);

  011b3	a1 00 00 00 00	 mov	 eax, DWORD PTR ?active_screen@@3PAUSCREEN@@A ; active_screen
  011b8	50		 push	 eax
  011b9	e8 00 00 00 00	 call	 ?unlock_screen@@YGHPAUSCREEN@@@Z ; unlock_screen
$LN135@draw_hind_:

; 1265 : 				}
; 1266 : 
; 1267 : 				draw_hind_internal_virtual_cockpit

  011be	6a 06		 push	 6
  011c0	e8 00 00 00 00	 call	 ?draw_hind_internal_virtual_cockpit@@YGXI@Z ; draw_hind_internal_virtual_cockpit
$LN134@draw_hind_:

; 1268 : 				(
; 1269 : 					VIRTUAL_COCKPIT_LARGE_HUD |
; 1270 : 					VIRTUAL_COCKPIT_HUD_GLASS
; 1271 : 				);
; 1272 : 			}
; 1273 : 
; 1274 : 			draw_hind_hud_on_cockpit (TRUE);

  011c5	6a 01		 push	 1
  011c7	e8 00 00 00 00	 call	 ?draw_hind_hud_on_cockpit@@YGXH@Z ; draw_hind_hud_on_cockpit

; 1275 : 
; 1276 : 			draw_hind_hms ();

  011cc	e8 00 00 00 00	 call	 ?draw_hind_hms@@YGXXZ	; draw_hind_hms

; 1277 : 
; 1278 : 			break;

  011d1	eb 11		 jmp	 SHORT $LN4@draw_hind_
$LN136@draw_hind_:

; 1279 : 		}
; 1280 : 		////////////////////////////////////////
; 1281 : 		default:
; 1282 : 		////////////////////////////////////////
; 1283 : 		{
; 1284 : 			debug_fatal ("Invalid cockpit panel = %d", panel);

  011d3	8b 45 08	 mov	 eax, DWORD PTR _panel$[ebp]
  011d6	50		 push	 eax
  011d7	68 00 00 00 00	 push	 OFFSET ??_C@_0BL@LGMPIFCI@Invalid?5cockpit?5panel?5?$DN?5?$CFd@
  011dc	e8 00 00 00 00	 call	 ?debug_fatal@@YAXPBDZZ	; debug_fatal
  011e1	83 c4 08	 add	 esp, 8
$LN4@draw_hind_:

; 1285 : 
; 1286 : 			break;
; 1287 : 		}
; 1288 : 	}
; 1289 : }

  011e4	5f		 pop	 edi
  011e5	5e		 pop	 esi
  011e6	5b		 pop	 ebx
  011e7	8b e5		 mov	 esp, ebp
  011e9	5d		 pop	 ebp
  011ea	c2 04 00	 ret	 4
  011ed	0f 1f 00	 npad	 3
$LN142@draw_hind_:
  011f0	00 00 00 00	 DD	 $LN6@draw_hind_
  011f4	00 00 00 00	 DD	 $LN7@draw_hind_
  011f8	00 00 00 00	 DD	 $LN8@draw_hind_
  011fc	00 00 00 00	 DD	 $LN9@draw_hind_
$LN143@draw_hind_:
  01200	00 00 00 00	 DD	 $LN13@draw_hind_
  01204	00 00 00 00	 DD	 $LN19@draw_hind_
  01208	00 00 00 00	 DD	 $LN23@draw_hind_
  0120c	00 00 00 00	 DD	 $LN27@draw_hind_
  01210	00 00 00 00	 DD	 $LN31@draw_hind_
  01214	00 00 00 00	 DD	 $LN35@draw_hind_
  01218	00 00 00 00	 DD	 $LN39@draw_hind_
  0121c	00 00 00 00	 DD	 $LN43@draw_hind_
  01220	00 00 00 00	 DD	 $LN47@draw_hind_
  01224	00 00 00 00	 DD	 $LN51@draw_hind_
  01228	00 00 00 00	 DD	 $LN57@draw_hind_
  0122c	00 00 00 00	 DD	 $LN61@draw_hind_
  01230	00 00 00 00	 DD	 $LN65@draw_hind_
  01234	00 00 00 00	 DD	 $LN69@draw_hind_
  01238	00 00 00 00	 DD	 $LN73@draw_hind_
  0123c	00 00 00 00	 DD	 $LN77@draw_hind_
  01240	00 00 00 00	 DD	 $LN81@draw_hind_
  01244	00 00 00 00	 DD	 $LN85@draw_hind_
  01248	00 00 00 00	 DD	 $LN89@draw_hind_
  0124c	00 00 00 00	 DD	 $LN93@draw_hind_
  01250	00 00 00 00	 DD	 $LN97@draw_hind_
  01254	00 00 00 00	 DD	 $LN101@draw_hind_
  01258	00 00 00 00	 DD	 $LN105@draw_hind_
  0125c	00 00 00 00	 DD	 $LN109@draw_hind_
  01260	00 00 00 00	 DD	 $LN113@draw_hind_
  01264	00 00 00 00	 DD	 $LN118@draw_hind_
  01268	00 00 00 00	 DD	 $LN122@draw_hind_
  0126c	00 00 00 00	 DD	 $LN126@draw_hind_
  01270	00 00 00 00	 DD	 $LN136@draw_hind_
  01274	00 00 00 00	 DD	 $LN136@draw_hind_
  01278	00 00 00 00	 DD	 $LN130@draw_hind_
  0127c	00 00 00 00	 DD	 $LN133@draw_hind_
?draw_hind_cockpit@@YGXW4COCKPIT_PANELS@@@Z ENDP	; draw_hind_cockpit
_TEXT	ENDS
; Function compile flags: /Odtp /ZI
; File c:\users\nhv90\projects\eech\aphavoc\source\gunships\cockpits\hind\hi_ckpt.c
;	COMDAT ?update_hind_cockpits@@YGXXZ
_TEXT	SEGMENT
?update_hind_cockpits@@YGXXZ PROC			; update_hind_cockpits, COMDAT

; 99   : {

  00000	55		 push	 ebp
  00001	8b ec		 mov	 ebp, esp
  00003	83 ec 40	 sub	 esp, 64			; 00000040H
  00006	53		 push	 ebx
  00007	56		 push	 esi
  00008	57		 push	 edi

; 100  : }

  00009	5f		 pop	 edi
  0000a	5e		 pop	 esi
  0000b	5b		 pop	 ebx
  0000c	8b e5		 mov	 esp, ebp
  0000e	5d		 pop	 ebp
  0000f	c3		 ret	 0
?update_hind_cockpits@@YGXXZ ENDP			; update_hind_cockpits
_TEXT	ENDS
; Function compile flags: /Odtp /ZI
; File c:\users\nhv90\projects\eech\aphavoc\source\gunships\cockpits\hind\hi_ckpt.c
;	COMDAT ?deinitialise_hind_cockpits@@YGXXZ
_TEXT	SEGMENT
?deinitialise_hind_cockpits@@YGXXZ PROC			; deinitialise_hind_cockpits, COMDAT

; 91   : {

  00000	55		 push	 ebp
  00001	8b ec		 mov	 ebp, esp
  00003	83 ec 40	 sub	 esp, 64			; 00000040H
  00006	53		 push	 ebx
  00007	56		 push	 esi
  00008	57		 push	 edi

; 92   : }

  00009	5f		 pop	 edi
  0000a	5e		 pop	 esi
  0000b	5b		 pop	 ebx
  0000c	8b e5		 mov	 esp, ebp
  0000e	5d		 pop	 ebp
  0000f	c3		 ret	 0
?deinitialise_hind_cockpits@@YGXXZ ENDP			; deinitialise_hind_cockpits
_TEXT	ENDS
; Function compile flags: /Odtp /ZI
; File c:\users\nhv90\projects\eech\aphavoc\source\gunships\cockpits\hind\hi_ckpt.c
;	COMDAT ?initialise_hind_cockpits@@YGXXZ
_TEXT	SEGMENT
?initialise_hind_cockpits@@YGXXZ PROC			; initialise_hind_cockpits, COMDAT

; 80   : {

  00000	55		 push	 ebp
  00001	8b ec		 mov	 ebp, esp
  00003	83 ec 40	 sub	 esp, 64			; 00000040H
  00006	53		 push	 ebx
  00007	56		 push	 esi
  00008	57		 push	 edi

; 81   : 	initialise_hind_lamps ();

  00009	e8 00 00 00 00	 call	 ?initialise_hind_lamps@@YGXXZ ; initialise_hind_lamps

; 82   : 
; 83   : 	initialise_havoc_instrument_colours ();

  0000e	e8 00 00 00 00	 call	 ?initialise_havoc_instrument_colours@@YGXXZ ; initialise_havoc_instrument_colours

; 84   : }

  00013	5f		 pop	 edi
  00014	5e		 pop	 esi
  00015	5b		 pop	 ebx
  00016	8b e5		 mov	 esp, ebp
  00018	5d		 pop	 ebp
  00019	c3		 ret	 0
?initialise_hind_cockpits@@YGXXZ ENDP			; initialise_hind_cockpits
_TEXT	ENDS
END
