; Listing generated by Microsoft (R) Optimizing Compiler Version 19.16.27045.0 

	TITLE	C:\Users\nhv90\Projects\eech\aphavoc\source\gunships\avionics\hind\hi_dam.c
	.686P
	.XMM
	include listing.inc
	.model	flat

INCLUDELIB MSVCRTD
INCLUDELIB OLDNAMES

PUBLIC	?hind_damage@@3THIND_DAMAGE_FLAGS@@A		; hind_damage
_BSS	SEGMENT
?hind_damage@@3THIND_DAMAGE_FLAGS@@A DD 01H DUP (?)	; hind_damage
_BSS	ENDS
PUBLIC	?set_hind_weapon_damage_status@@YGXXZ		; set_hind_weapon_damage_status
PUBLIC	?fully_repair_hind_damage@@YGXXZ		; fully_repair_hind_damage
PUBLIC	?partially_repair_hind_damage@@YGXXZ		; partially_repair_hind_damage
PUBLIC	?repair_hind_weapon_damage@@YGXXZ		; repair_hind_weapon_damage
PUBLIC	?damage_hind@@YGXW4GUNSHIP_DAMAGE_LEVELS@@@Z	; damage_hind
PUBLIC	?notify_hind_avionics_of_dynamics_fault@@YGXI@Z	; notify_hind_avionics_of_dynamics_fault
PUBLIC	?__LINE__Var@?0??set_hind_weapon_damage_status@@YGXXZ@4JA ; `set_hind_weapon_damage_status'::`1'::__LINE__Var
PUBLIC	??_C@_0EM@MBPMPMLI@c?3?2users?2nhv90?2projects?2eech?2ap@ ; `string'
PUBLIC	??_C@_00CNPNBAHC@@				; `string'
PUBLIC	?__LINE__Var@?0??damage_systems@@YGXTHIND_DAMAGE_FLAGS@@@Z@4JA ; `damage_systems'::`1'::__LINE__Var
PUBLIC	??_C@_07DMOCMFND@FAILURE@			; `string'
PUBLIC	??_C@_05IHELJBBC@RADAR@				; `string'
PUBLIC	??_C@_04MIGKMLBH@FLIR@				; `string'
PUBLIC	??_C@_05PNDCLKDI@LLLTV@				; `string'
PUBLIC	??_C@_05HEFADFAD@LASER@				; `string'
PUBLIC	??_C@_09MICCGOLK@RD?5JAMMER@			; `string'
PUBLIC	??_C@_09MILGCPFO@IR?5JAMMER@			; `string'
PUBLIC	??_C@_08LDOFABDJ@NAV?5COMP@			; `string'
PUBLIC	??_C@_05JNPIHJOC@COMMS@				; `string'
PUBLIC	??_C@_03EHNKNBGI@RWS@				; `string'
PUBLIC	??_C@_03HOHJDGGL@HUD@				; `string'
PUBLIC	??_C@_03GJMPEADF@HMS@				; `string'
PUBLIC	??_C@_02IHOKFKFD@TV@				; `string'
PUBLIC	??_C@_03GHDCAKCC@TWD@				; `string'
PUBLIC	??_C@_07OHKEFPKJ@DAMAGED@			; `string'
PUBLIC	??_C@_03HCHJIECN@NVG@				; `string'
PUBLIC	??_C@_06GNLFAKEN@JAMMED@			; `string'
PUBLIC	??_C@_03NMPFMOLH@GUN@				; `string'
PUBLIC	??_C@_09GLFEIKAK@HARDPOINT@			; `string'
PUBLIC	??_C@_05FOOOBDLP@CHAFF@				; `string'
PUBLIC	??_C@_06NOICFNLJ@FLARES@			; `string'
PUBLIC	??_C@_0BK@EECAIEOA@Invalid?5damage_level?5?$DN?5?$CFd@ ; `string'
PUBLIC	??_C@_08HECAMHFD@MAIN?5RTR@			; `string'
PUBLIC	??_C@_08DJILJCHC@TAIL?5RTR@			; `string'
PUBLIC	??_C@_08KNAGGCOA@ENGINE?51@			; `string'
PUBLIC	??_C@_08IGCLDBCD@ENGINE?52@			; `string'
PUBLIC	??_C@_04OKEEPDCC@FIRE@				; `string'
PUBLIC	??_C@_08IBNIHFAO@PRESSURE@			; `string'
PUBLIC	??_C@_09ENKCBBHJ@LOW?5HYDRA@			; `string'
PUBLIC	??_C@_08GAIDHJND@SEC?5HYDR@			; `string'
PUBLIC	??_C@_09OCHEEKPP@STABILISR@			; `string'
PUBLIC	??_C@_09BHCFOJL@FUEL?5LEAK@			; `string'
PUBLIC	??_C@_07GGBGBLMC@LOW?5OIL@			; `string'
PUBLIC	??_C@_08JPIIBFH@HIGH?5OIL@			; `string'
PUBLIC	__real@3f00002000400080
PUBLIC	__real@3feccccccccccccd
EXTRN	?process_assert@@YGXPBD0H@Z:PROC		; process_assert
EXTRN	?debug_fatal@@YAXPBDZZ:PROC			; debug_fatal
EXTRN	?set_client_server_entity_weapon_damage@@YGXPAUENTITY@@HHH@Z:PROC ; set_client_server_entity_weapon_damage
EXTRN	?get_next_available_weapon_sub_type@@YGHPAUENTITY@@@Z:PROC ; get_next_available_weapon_sub_type
EXTRN	?get_local_entity_weapon_available@@YGHPAUENTITY@@H@Z:PROC ; get_local_entity_weapon_available
EXTRN	?play_client_server_warning_message@@YGHPAUENTITY@@H@Z:PROC ; play_client_server_warning_message
EXTRN	?set_gunship_weapon@@YGXH@Z:PROC		; set_gunship_weapon
EXTRN	?activate_hind_master_caution_lamp@@YGXXZ:PROC	; activate_hind_master_caution_lamp
EXTRN	?set_hind_ekran_display_text@@YGXPAD000@Z:PROC	; set_hind_ekran_display_text
EXTRN	?select_hind_target_acquisition_system@@YGXW4TARGET_ACQUISITION_SYSTEMS@@@Z:PROC ; select_hind_target_acquisition_system
EXTRN	?dynamics_damage_model@@YGXIH@Z:PROC		; dynamics_damage_model
EXTRN	?random_number_seed@@3HA:DWORD			; random_number_seed
EXTRN	?null_entity_pointer_message@@3PBDB:DWORD	; null_entity_pointer_message
EXTRN	?global_options@@3UGLOBAL_OPTIONS_DATA@@A:BYTE	; global_options
EXTRN	?system_comms_model@@3W4COMMS_MODEL_TYPES@@A:DWORD ; system_comms_model
EXTRN	?overload_invalid_int_type_message@@3PBDB:DWORD	; overload_invalid_int_type_message
EXTRN	?fn_set_client_server_entity_int_value@@3PAY1BBH@1P6GXPAUENTITY@@W4INT_TYPES@@H@ZA:BYTE ; fn_set_client_server_entity_int_value
EXTRN	?fn_get_local_entity_int_value@@3PAY0BBH@P6GHPAUENTITY@@W4INT_TYPES@@@ZA:BYTE ; fn_get_local_entity_int_value
EXTRN	?gunship_entity@@3PAUENTITY@@A:DWORD		; gunship_entity
EXTRN	?target_acquisition_system@@3W4TARGET_ACQUISITION_SYSTEMS@@A:DWORD ; target_acquisition_system
EXTRN	?fire_extinguisher_used@@3HA:DWORD		; fire_extinguisher_used
EXTRN	?night_vision_system_active@@3HA:DWORD		; night_vision_system_active
EXTRN	__fltused:DWORD
;	COMDAT __real@3feccccccccccccd
CONST	SEGMENT
__real@3feccccccccccccd DQ 03feccccccccccccdr	; 0.9
CONST	ENDS
;	COMDAT __real@3f00002000400080
CONST	SEGMENT
__real@3f00002000400080 DQ 03f00002000400080r	; 3.05185e-05
CONST	ENDS
;	COMDAT ??_C@_08JPIIBFH@HIGH?5OIL@
CONST	SEGMENT
??_C@_08JPIIBFH@HIGH?5OIL@ DB 'HIGH OIL', 00H		; `string'
CONST	ENDS
;	COMDAT ??_C@_07GGBGBLMC@LOW?5OIL@
CONST	SEGMENT
??_C@_07GGBGBLMC@LOW?5OIL@ DB 'LOW OIL', 00H		; `string'
CONST	ENDS
;	COMDAT ??_C@_09BHCFOJL@FUEL?5LEAK@
CONST	SEGMENT
??_C@_09BHCFOJL@FUEL?5LEAK@ DB 'FUEL LEAK', 00H		; `string'
CONST	ENDS
;	COMDAT ??_C@_09OCHEEKPP@STABILISR@
CONST	SEGMENT
??_C@_09OCHEEKPP@STABILISR@ DB 'STABILISR', 00H		; `string'
CONST	ENDS
;	COMDAT ??_C@_08GAIDHJND@SEC?5HYDR@
CONST	SEGMENT
??_C@_08GAIDHJND@SEC?5HYDR@ DB 'SEC HYDR', 00H		; `string'
CONST	ENDS
;	COMDAT ??_C@_09ENKCBBHJ@LOW?5HYDRA@
CONST	SEGMENT
??_C@_09ENKCBBHJ@LOW?5HYDRA@ DB 'LOW HYDRA', 00H	; `string'
CONST	ENDS
;	COMDAT ??_C@_08IBNIHFAO@PRESSURE@
CONST	SEGMENT
??_C@_08IBNIHFAO@PRESSURE@ DB 'PRESSURE', 00H		; `string'
CONST	ENDS
;	COMDAT ??_C@_04OKEEPDCC@FIRE@
CONST	SEGMENT
??_C@_04OKEEPDCC@FIRE@ DB 'FIRE', 00H			; `string'
CONST	ENDS
;	COMDAT ??_C@_08IGCLDBCD@ENGINE?52@
CONST	SEGMENT
??_C@_08IGCLDBCD@ENGINE?52@ DB 'ENGINE 2', 00H		; `string'
CONST	ENDS
;	COMDAT ??_C@_08KNAGGCOA@ENGINE?51@
CONST	SEGMENT
??_C@_08KNAGGCOA@ENGINE?51@ DB 'ENGINE 1', 00H		; `string'
CONST	ENDS
;	COMDAT ??_C@_08DJILJCHC@TAIL?5RTR@
CONST	SEGMENT
??_C@_08DJILJCHC@TAIL?5RTR@ DB 'TAIL RTR', 00H		; `string'
CONST	ENDS
;	COMDAT ??_C@_08HECAMHFD@MAIN?5RTR@
CONST	SEGMENT
??_C@_08HECAMHFD@MAIN?5RTR@ DB 'MAIN RTR', 00H		; `string'
CONST	ENDS
;	COMDAT ??_C@_0BK@EECAIEOA@Invalid?5damage_level?5?$DN?5?$CFd@
CONST	SEGMENT
??_C@_0BK@EECAIEOA@Invalid?5damage_level?5?$DN?5?$CFd@ DB 'Invalid damage'
	DB	'_level = %d', 00H				; `string'
CONST	ENDS
;	COMDAT ??_C@_06NOICFNLJ@FLARES@
CONST	SEGMENT
??_C@_06NOICFNLJ@FLARES@ DB 'FLARES', 00H		; `string'
CONST	ENDS
;	COMDAT ??_C@_05FOOOBDLP@CHAFF@
CONST	SEGMENT
??_C@_05FOOOBDLP@CHAFF@ DB 'CHAFF', 00H			; `string'
CONST	ENDS
;	COMDAT ??_C@_09GLFEIKAK@HARDPOINT@
CONST	SEGMENT
??_C@_09GLFEIKAK@HARDPOINT@ DB 'HARDPOINT', 00H		; `string'
CONST	ENDS
;	COMDAT ??_C@_03NMPFMOLH@GUN@
CONST	SEGMENT
??_C@_03NMPFMOLH@GUN@ DB 'GUN', 00H			; `string'
CONST	ENDS
;	COMDAT ??_C@_06GNLFAKEN@JAMMED@
CONST	SEGMENT
??_C@_06GNLFAKEN@JAMMED@ DB 'JAMMED', 00H		; `string'
CONST	ENDS
;	COMDAT ??_C@_03HCHJIECN@NVG@
CONST	SEGMENT
??_C@_03HCHJIECN@NVG@ DB 'NVG', 00H			; `string'
CONST	ENDS
;	COMDAT ??_C@_07OHKEFPKJ@DAMAGED@
CONST	SEGMENT
??_C@_07OHKEFPKJ@DAMAGED@ DB 'DAMAGED', 00H		; `string'
CONST	ENDS
;	COMDAT ??_C@_03GHDCAKCC@TWD@
CONST	SEGMENT
??_C@_03GHDCAKCC@TWD@ DB 'TWD', 00H			; `string'
CONST	ENDS
;	COMDAT ??_C@_02IHOKFKFD@TV@
CONST	SEGMENT
??_C@_02IHOKFKFD@TV@ DB 'TV', 00H			; `string'
CONST	ENDS
;	COMDAT ??_C@_03GJMPEADF@HMS@
CONST	SEGMENT
??_C@_03GJMPEADF@HMS@ DB 'HMS', 00H			; `string'
CONST	ENDS
;	COMDAT ??_C@_03HOHJDGGL@HUD@
CONST	SEGMENT
??_C@_03HOHJDGGL@HUD@ DB 'HUD', 00H			; `string'
CONST	ENDS
;	COMDAT ??_C@_03EHNKNBGI@RWS@
CONST	SEGMENT
??_C@_03EHNKNBGI@RWS@ DB 'RWS', 00H			; `string'
CONST	ENDS
;	COMDAT ??_C@_05JNPIHJOC@COMMS@
CONST	SEGMENT
??_C@_05JNPIHJOC@COMMS@ DB 'COMMS', 00H			; `string'
CONST	ENDS
;	COMDAT ??_C@_08LDOFABDJ@NAV?5COMP@
CONST	SEGMENT
??_C@_08LDOFABDJ@NAV?5COMP@ DB 'NAV COMP', 00H		; `string'
CONST	ENDS
;	COMDAT ??_C@_09MILGCPFO@IR?5JAMMER@
CONST	SEGMENT
??_C@_09MILGCPFO@IR?5JAMMER@ DB 'IR JAMMER', 00H	; `string'
CONST	ENDS
;	COMDAT ??_C@_09MICCGOLK@RD?5JAMMER@
CONST	SEGMENT
??_C@_09MICCGOLK@RD?5JAMMER@ DB 'RD JAMMER', 00H	; `string'
CONST	ENDS
;	COMDAT ??_C@_05HEFADFAD@LASER@
CONST	SEGMENT
??_C@_05HEFADFAD@LASER@ DB 'LASER', 00H			; `string'
CONST	ENDS
;	COMDAT ??_C@_05PNDCLKDI@LLLTV@
CONST	SEGMENT
??_C@_05PNDCLKDI@LLLTV@ DB 'LLLTV', 00H			; `string'
CONST	ENDS
;	COMDAT ??_C@_04MIGKMLBH@FLIR@
CONST	SEGMENT
??_C@_04MIGKMLBH@FLIR@ DB 'FLIR', 00H			; `string'
CONST	ENDS
;	COMDAT ??_C@_05IHELJBBC@RADAR@
CONST	SEGMENT
??_C@_05IHELJBBC@RADAR@ DB 'RADAR', 00H			; `string'
CONST	ENDS
;	COMDAT ??_C@_07DMOCMFND@FAILURE@
CONST	SEGMENT
??_C@_07DMOCMFND@FAILURE@ DB 'FAILURE', 00H		; `string'
CONST	ENDS
;	COMDAT ?__LINE__Var@?0??damage_systems@@YGXTHIND_DAMAGE_FLAGS@@@Z@4JA
_DATA	SEGMENT
?__LINE__Var@?0??damage_systems@@YGXTHIND_DAMAGE_FLAGS@@@Z@4JA DD 01d0H ; `damage_systems'::`1'::__LINE__Var
_DATA	ENDS
;	COMDAT ??_C@_00CNPNBAHC@@
CONST	SEGMENT
??_C@_00CNPNBAHC@@ DB 00H				; `string'
CONST	ENDS
;	COMDAT ??_C@_0EM@MBPMPMLI@c?3?2users?2nhv90?2projects?2eech?2ap@
CONST	SEGMENT
??_C@_0EM@MBPMPMLI@c?3?2users?2nhv90?2projects?2eech?2ap@ DB 'c:\users\nh'
	DB	'v90\projects\eech\aphavoc\source\gunships\avionics\hind\hi_da'
	DB	'm.c', 00H					; `string'
CONST	ENDS
;	COMDAT ?__LINE__Var@?0??set_hind_weapon_damage_status@@YGXXZ@4JA
_DATA	SEGMENT
?__LINE__Var@?0??set_hind_weapon_damage_status@@YGXXZ@4JA DD 057H ; `set_hind_weapon_damage_status'::`1'::__LINE__Var
_DATA	ENDS
; Function compile flags: /Odtp /ZI
; File c:\users\nhv90\projects\eech\aphavoc\source\gunships\avionics\hind\hi_dam.c
;	COMDAT ?damage_systems@@YGXTHIND_DAMAGE_FLAGS@@@Z
_TEXT	SEGMENT
tv265 = -76						; size = 4
tv244 = -76						; size = 4
tv209 = -76						; size = 4
tv188 = -76						; size = 4
tv257 = -72						; size = 4
tv237 = -72						; size = 4
tv201 = -72						; size = 4
tv181 = -72						; size = 4
_en$ = -4						; size = 4
_damage$ = 8						; size = 4
?damage_systems@@YGXTHIND_DAMAGE_FLAGS@@@Z PROC		; damage_systems, COMDAT

; 464  : {

  00000	55		 push	 ebp
  00001	8b ec		 mov	 ebp, esp
  00003	83 ec 4c	 sub	 esp, 76			; 0000004cH
  00006	53		 push	 ebx
  00007	56		 push	 esi
  00008	57		 push	 edi

; 465  : 	entity
; 466  : 		*en;
; 467  : 
; 468  : 	en = get_gunship_entity ();

  00009	a1 00 00 00 00	 mov	 eax, DWORD PTR ?gunship_entity@@3PAUENTITY@@A ; gunship_entity
  0000e	89 45 fc	 mov	 DWORD PTR _en$[ebp], eax

; 469  : 
; 470  : 	////////////////////////////////////////
; 471  : 
; 472  : 	if (damage.radar)

  00011	8b 45 08	 mov	 eax, DWORD PTR _damage$[ebp]
  00014	83 e0 01	 and	 eax, 1
  00017	74 5f		 je	 SHORT $LN2@damage_sys

; 473  : 	{
; 474  : 		if (!hind_damage.radar)

  00019	a1 00 00 00 00	 mov	 eax, DWORD PTR ?hind_damage@@3THIND_DAMAGE_FLAGS@@A ; hind_damage
  0001e	83 e0 01	 and	 eax, 1
  00021	75 55		 jne	 SHORT $LN2@damage_sys

; 475  : 		{
; 476  : 			activate_hind_master_caution_lamp ();

  00023	e8 00 00 00 00	 call	 ?activate_hind_master_caution_lamp@@YGXXZ ; activate_hind_master_caution_lamp

; 477  : 
; 478  : 			hind_damage.radar = TRUE;

  00028	a1 00 00 00 00	 mov	 eax, DWORD PTR ?hind_damage@@3THIND_DAMAGE_FLAGS@@A ; hind_damage
  0002d	83 c8 01	 or	 eax, 1
  00030	a3 00 00 00 00	 mov	 DWORD PTR ?hind_damage@@3THIND_DAMAGE_FLAGS@@A, eax ; hind_damage

; 479  : 
; 480  : 			dynamics_damage_model (DYNAMICS_DAMAGE_AVIONICS, FALSE);

  00035	6a 00		 push	 0
  00037	68 00 10 00 00	 push	 4096			; 00001000H
  0003c	e8 00 00 00 00	 call	 ?dynamics_damage_model@@YGXIH@Z ; dynamics_damage_model

; 481  : 
; 482  : 			set_hind_ekran_display_text ("RADAR", "FAILURE", NULL, NULL);

  00041	6a 00		 push	 0
  00043	6a 00		 push	 0
  00045	68 00 00 00 00	 push	 OFFSET ??_C@_07DMOCMFND@FAILURE@
  0004a	68 00 00 00 00	 push	 OFFSET ??_C@_05IHELJBBC@RADAR@
  0004f	e8 00 00 00 00	 call	 ?set_hind_ekran_display_text@@YGXPAD000@Z ; set_hind_ekran_display_text

; 483  : 
; 484  : 			play_client_server_warning_message (en, SPEECH_SYSTEM_RADAR_FAILURE);

  00054	6a 00		 push	 0
  00056	8b 45 fc	 mov	 eax, DWORD PTR _en$[ebp]
  00059	50		 push	 eax
  0005a	e8 00 00 00 00	 call	 ?play_client_server_warning_message@@YGHPAUENTITY@@H@Z ; play_client_server_warning_message

; 485  : 
; 486  : 			if
; 487  : 			(
; 488  : 				(target_acquisition_system == TARGET_ACQUISITION_SYSTEM_GROUND_RADAR) ||

  0005f	83 3d 00 00 00
	00 01		 cmp	 DWORD PTR ?target_acquisition_system@@3W4TARGET_ACQUISITION_SYSTEMS@@A, 1 ; target_acquisition_system
  00066	74 09		 je	 SHORT $LN5@damage_sys
  00068	83 3d 00 00 00
	00 02		 cmp	 DWORD PTR ?target_acquisition_system@@3W4TARGET_ACQUISITION_SYSTEMS@@A, 2 ; target_acquisition_system
  0006f	75 07		 jne	 SHORT $LN2@damage_sys
$LN5@damage_sys:

; 489  : 				(target_acquisition_system == TARGET_ACQUISITION_SYSTEM_AIR_RADAR)
; 490  : 			)
; 491  : 			{
; 492  : 				select_hind_target_acquisition_system (TARGET_ACQUISITION_SYSTEM_OFF);

  00071	6a 00		 push	 0
  00073	e8 00 00 00 00	 call	 ?select_hind_target_acquisition_system@@YGXW4TARGET_ACQUISITION_SYSTEMS@@@Z ; select_hind_target_acquisition_system
$LN2@damage_sys:

; 493  : 			}
; 494  : 		}
; 495  : 	}
; 496  : 
; 497  : 	////////////////////////////////////////
; 498  : 
; 499  : 	if (damage.flir)

  00078	8b 45 08	 mov	 eax, DWORD PTR _damage$[ebp]
  0007b	d1 e8		 shr	 eax, 1
  0007d	83 e0 01	 and	 eax, 1
  00080	74 58		 je	 SHORT $LN6@damage_sys

; 500  : 	{
; 501  : 		if (!hind_damage.flir)

  00082	a1 00 00 00 00	 mov	 eax, DWORD PTR ?hind_damage@@3THIND_DAMAGE_FLAGS@@A ; hind_damage
  00087	d1 e8		 shr	 eax, 1
  00089	83 e0 01	 and	 eax, 1
  0008c	75 4c		 jne	 SHORT $LN6@damage_sys

; 502  : 		{
; 503  : 			activate_hind_master_caution_lamp ();

  0008e	e8 00 00 00 00	 call	 ?activate_hind_master_caution_lamp@@YGXXZ ; activate_hind_master_caution_lamp

; 504  : 
; 505  : 			hind_damage.flir = TRUE;

  00093	a1 00 00 00 00	 mov	 eax, DWORD PTR ?hind_damage@@3THIND_DAMAGE_FLAGS@@A ; hind_damage
  00098	83 c8 02	 or	 eax, 2
  0009b	a3 00 00 00 00	 mov	 DWORD PTR ?hind_damage@@3THIND_DAMAGE_FLAGS@@A, eax ; hind_damage

; 506  : 
; 507  : 			dynamics_damage_model (DYNAMICS_DAMAGE_AVIONICS, FALSE);

  000a0	6a 00		 push	 0
  000a2	68 00 10 00 00	 push	 4096			; 00001000H
  000a7	e8 00 00 00 00	 call	 ?dynamics_damage_model@@YGXIH@Z ; dynamics_damage_model

; 508  : 
; 509  : 			set_hind_ekran_display_text ("FLIR", "FAILURE", NULL, NULL);

  000ac	6a 00		 push	 0
  000ae	6a 00		 push	 0
  000b0	68 00 00 00 00	 push	 OFFSET ??_C@_07DMOCMFND@FAILURE@
  000b5	68 00 00 00 00	 push	 OFFSET ??_C@_04MIGKMLBH@FLIR@
  000ba	e8 00 00 00 00	 call	 ?set_hind_ekran_display_text@@YGXPAD000@Z ; set_hind_ekran_display_text

; 510  : 
; 511  : 			play_client_server_warning_message (en, SPEECH_SYSTEM_FLIR_FAILURE);

  000bf	6a 01		 push	 1
  000c1	8b 45 fc	 mov	 eax, DWORD PTR _en$[ebp]
  000c4	50		 push	 eax
  000c5	e8 00 00 00 00	 call	 ?play_client_server_warning_message@@YGHPAUENTITY@@H@Z ; play_client_server_warning_message

; 512  : 
; 513  : 			if (target_acquisition_system == TARGET_ACQUISITION_SYSTEM_FLIR)

  000ca	83 3d 00 00 00
	00 03		 cmp	 DWORD PTR ?target_acquisition_system@@3W4TARGET_ACQUISITION_SYSTEMS@@A, 3 ; target_acquisition_system
  000d1	75 07		 jne	 SHORT $LN6@damage_sys

; 514  : 			{
; 515  : 				select_hind_target_acquisition_system (TARGET_ACQUISITION_SYSTEM_OFF);

  000d3	6a 00		 push	 0
  000d5	e8 00 00 00 00	 call	 ?select_hind_target_acquisition_system@@YGXW4TARGET_ACQUISITION_SYSTEMS@@@Z ; select_hind_target_acquisition_system
$LN6@damage_sys:

; 516  : 			}
; 517  : 		}
; 518  : 	}
; 519  : 
; 520  : 	////////////////////////////////////////
; 521  : 
; 522  : 	if (damage.llltv)

  000da	8b 45 08	 mov	 eax, DWORD PTR _damage$[ebp]
  000dd	c1 e8 03	 shr	 eax, 3
  000e0	83 e0 01	 and	 eax, 1
  000e3	74 59		 je	 SHORT $LN9@damage_sys

; 523  : 	{
; 524  : 		if (!hind_damage.llltv)

  000e5	a1 00 00 00 00	 mov	 eax, DWORD PTR ?hind_damage@@3THIND_DAMAGE_FLAGS@@A ; hind_damage
  000ea	c1 e8 03	 shr	 eax, 3
  000ed	83 e0 01	 and	 eax, 1
  000f0	75 4c		 jne	 SHORT $LN9@damage_sys

; 525  : 		{
; 526  : 			activate_hind_master_caution_lamp ();

  000f2	e8 00 00 00 00	 call	 ?activate_hind_master_caution_lamp@@YGXXZ ; activate_hind_master_caution_lamp

; 527  : 
; 528  : 			hind_damage.llltv = TRUE;

  000f7	a1 00 00 00 00	 mov	 eax, DWORD PTR ?hind_damage@@3THIND_DAMAGE_FLAGS@@A ; hind_damage
  000fc	83 c8 08	 or	 eax, 8
  000ff	a3 00 00 00 00	 mov	 DWORD PTR ?hind_damage@@3THIND_DAMAGE_FLAGS@@A, eax ; hind_damage

; 529  : 
; 530  : 			dynamics_damage_model (DYNAMICS_DAMAGE_AVIONICS, FALSE);

  00104	6a 00		 push	 0
  00106	68 00 10 00 00	 push	 4096			; 00001000H
  0010b	e8 00 00 00 00	 call	 ?dynamics_damage_model@@YGXIH@Z ; dynamics_damage_model

; 531  : 
; 532  : 			set_hind_ekran_display_text ("LLLTV", "FAILURE", NULL, NULL);

  00110	6a 00		 push	 0
  00112	6a 00		 push	 0
  00114	68 00 00 00 00	 push	 OFFSET ??_C@_07DMOCMFND@FAILURE@
  00119	68 00 00 00 00	 push	 OFFSET ??_C@_05PNDCLKDI@LLLTV@
  0011e	e8 00 00 00 00	 call	 ?set_hind_ekran_display_text@@YGXPAD000@Z ; set_hind_ekran_display_text

; 533  : 
; 534  : 			play_client_server_warning_message (en, SPEECH_SYSTEM_LLLTV_FAILURE);

  00123	6a 03		 push	 3
  00125	8b 45 fc	 mov	 eax, DWORD PTR _en$[ebp]
  00128	50		 push	 eax
  00129	e8 00 00 00 00	 call	 ?play_client_server_warning_message@@YGHPAUENTITY@@H@Z ; play_client_server_warning_message

; 535  : 
; 536  : 			if (target_acquisition_system == TARGET_ACQUISITION_SYSTEM_LLLTV)

  0012e	83 3d 00 00 00
	00 06		 cmp	 DWORD PTR ?target_acquisition_system@@3W4TARGET_ACQUISITION_SYSTEMS@@A, 6 ; target_acquisition_system
  00135	75 07		 jne	 SHORT $LN9@damage_sys

; 537  : 			{
; 538  : 				select_hind_target_acquisition_system (TARGET_ACQUISITION_SYSTEM_OFF);

  00137	6a 00		 push	 0
  00139	e8 00 00 00 00	 call	 ?select_hind_target_acquisition_system@@YGXW4TARGET_ACQUISITION_SYSTEMS@@@Z ; select_hind_target_acquisition_system
$LN9@damage_sys:

; 539  : 			}
; 540  : 		}
; 541  : 	}
; 542  : 
; 543  : 	////////////////////////////////////////
; 544  : 
; 545  : 	if (damage.laser_range_finder)

  0013e	8b 45 08	 mov	 eax, DWORD PTR _damage$[ebp]
  00141	c1 e8 04	 shr	 eax, 4
  00144	83 e0 01	 and	 eax, 1
  00147	74 49		 je	 SHORT $LN12@damage_sys

; 546  : 	{
; 547  : 		if (!hind_damage.laser_range_finder)

  00149	a1 00 00 00 00	 mov	 eax, DWORD PTR ?hind_damage@@3THIND_DAMAGE_FLAGS@@A ; hind_damage
  0014e	c1 e8 04	 shr	 eax, 4
  00151	83 e0 01	 and	 eax, 1
  00154	75 3c		 jne	 SHORT $LN12@damage_sys

; 548  : 		{
; 549  : 			activate_hind_master_caution_lamp ();

  00156	e8 00 00 00 00	 call	 ?activate_hind_master_caution_lamp@@YGXXZ ; activate_hind_master_caution_lamp

; 550  : 
; 551  : 			hind_damage.laser_range_finder = TRUE;

  0015b	a1 00 00 00 00	 mov	 eax, DWORD PTR ?hind_damage@@3THIND_DAMAGE_FLAGS@@A ; hind_damage
  00160	83 c8 10	 or	 eax, 16			; 00000010H
  00163	a3 00 00 00 00	 mov	 DWORD PTR ?hind_damage@@3THIND_DAMAGE_FLAGS@@A, eax ; hind_damage

; 552  : 
; 553  : 			dynamics_damage_model (DYNAMICS_DAMAGE_AVIONICS, FALSE);

  00168	6a 00		 push	 0
  0016a	68 00 10 00 00	 push	 4096			; 00001000H
  0016f	e8 00 00 00 00	 call	 ?dynamics_damage_model@@YGXIH@Z ; dynamics_damage_model

; 554  : 
; 555  : 			set_hind_ekran_display_text ("LASER", "FAILURE", NULL, NULL);

  00174	6a 00		 push	 0
  00176	6a 00		 push	 0
  00178	68 00 00 00 00	 push	 OFFSET ??_C@_07DMOCMFND@FAILURE@
  0017d	68 00 00 00 00	 push	 OFFSET ??_C@_05HEFADFAD@LASER@
  00182	e8 00 00 00 00	 call	 ?set_hind_ekran_display_text@@YGXPAD000@Z ; set_hind_ekran_display_text

; 556  : 
; 557  : 			play_client_server_warning_message (en, SPEECH_SYSTEM_LASER_RANGE_FINDER_FAILURE);

  00187	6a 07		 push	 7
  00189	8b 45 fc	 mov	 eax, DWORD PTR _en$[ebp]
  0018c	50		 push	 eax
  0018d	e8 00 00 00 00	 call	 ?play_client_server_warning_message@@YGHPAUENTITY@@H@Z ; play_client_server_warning_message
$LN12@damage_sys:

; 558  : 		}
; 559  : 	}
; 560  : 
; 561  : 	////////////////////////////////////////
; 562  : 
; 563  : 	if (damage.radar_jammer)

  00192	8b 45 08	 mov	 eax, DWORD PTR _damage$[ebp]
  00195	c1 e8 06	 shr	 eax, 6
  00198	83 e0 01	 and	 eax, 1
  0019b	0f 84 68 01 00
	00		 je	 $LN14@damage_sys

; 564  : 	{
; 565  : 		if (!hind_damage.radar_jammer)

  001a1	a1 00 00 00 00	 mov	 eax, DWORD PTR ?hind_damage@@3THIND_DAMAGE_FLAGS@@A ; hind_damage
  001a6	c1 e8 06	 shr	 eax, 6
  001a9	83 e0 01	 and	 eax, 1
  001ac	0f 85 57 01 00
	00		 jne	 $LN14@damage_sys

; 566  : 		{
; 567  : 			activate_hind_master_caution_lamp ();

  001b2	e8 00 00 00 00	 call	 ?activate_hind_master_caution_lamp@@YGXXZ ; activate_hind_master_caution_lamp

; 568  : 
; 569  : 			hind_damage.radar_jammer = TRUE;

  001b7	a1 00 00 00 00	 mov	 eax, DWORD PTR ?hind_damage@@3THIND_DAMAGE_FLAGS@@A ; hind_damage
  001bc	83 c8 40	 or	 eax, 64			; 00000040H
  001bf	a3 00 00 00 00	 mov	 DWORD PTR ?hind_damage@@3THIND_DAMAGE_FLAGS@@A, eax ; hind_damage

; 570  : 
; 571  : 			dynamics_damage_model (DYNAMICS_DAMAGE_AVIONICS, FALSE);

  001c4	6a 00		 push	 0
  001c6	68 00 10 00 00	 push	 4096			; 00001000H
  001cb	e8 00 00 00 00	 call	 ?dynamics_damage_model@@YGXIH@Z ; dynamics_damage_model

; 572  : 
; 573  : 			set_hind_ekran_display_text ("RD JAMMER", "FAILURE", NULL, NULL);

  001d0	6a 00		 push	 0
  001d2	6a 00		 push	 0
  001d4	68 00 00 00 00	 push	 OFFSET ??_C@_07DMOCMFND@FAILURE@
  001d9	68 00 00 00 00	 push	 OFFSET ??_C@_09MICCGOLK@RD?5JAMMER@
  001de	e8 00 00 00 00	 call	 ?set_hind_ekran_display_text@@YGXPAD000@Z ; set_hind_ekran_display_text

; 574  : 
; 575  : 			play_client_server_warning_message (en, SPEECH_SYSTEM_RADAR_JAMMER_FAILURE);

  001e3	6a 08		 push	 8
  001e5	8b 45 fc	 mov	 eax, DWORD PTR _en$[ebp]
  001e8	50		 push	 eax
  001e9	e8 00 00 00 00	 call	 ?play_client_server_warning_message@@YGHPAUENTITY@@H@Z ; play_client_server_warning_message

; 576  : 
; 577  : 			if (get_local_entity_int_value (get_gunship_entity (), INT_TYPE_RADAR_JAMMER_ON))

  001ee	83 3d 00 00 00
	00 00		 cmp	 DWORD PTR ?gunship_entity@@3PAUENTITY@@A, 0 ; gunship_entity
  001f5	74 0c		 je	 SHORT $LN58@damage_sys
  001f7	a1 00 00 00 00	 mov	 eax, DWORD PTR ?gunship_entity@@3PAUENTITY@@A ; gunship_entity
  001fc	8b 08		 mov	 ecx, DWORD PTR [eax]
  001fe	89 4d b8	 mov	 DWORD PTR tv181[ebp], ecx
  00201	eb 1d		 jmp	 SHORT $LN59@damage_sys
$LN58@damage_sys:
  00203	68 41 02 00 00	 push	 577			; 00000241H
  00208	68 00 00 00 00	 push	 OFFSET ??_C@_0EM@MBPMPMLI@c?3?2users?2nhv90?2projects?2eech?2ap@
  0020d	8b 15 00 00 00
	00		 mov	 edx, DWORD PTR ?null_entity_pointer_message@@3PBDB ; null_entity_pointer_message
  00213	52		 push	 edx
  00214	e8 00 00 00 00	 call	 ?process_assert@@YGXPBD0H@Z ; process_assert
  00219	c7 45 b8 00 00
	00 00		 mov	 DWORD PTR tv181[ebp], 0
$LN59@damage_sys:
  00220	b8 01 00 00 00	 mov	 eax, 1
  00225	85 c0		 test	 eax, eax
  00227	74 09		 je	 SHORT $LN60@damage_sys
  00229	c7 45 b4 a8 00
	00 00		 mov	 DWORD PTR tv188[ebp], 168 ; 000000a8H
  00230	eb 1d		 jmp	 SHORT $LN61@damage_sys
$LN60@damage_sys:
  00232	68 41 02 00 00	 push	 577			; 00000241H
  00237	68 00 00 00 00	 push	 OFFSET ??_C@_0EM@MBPMPMLI@c?3?2users?2nhv90?2projects?2eech?2ap@
  0023c	8b 0d 00 00 00
	00		 mov	 ecx, DWORD PTR ?overload_invalid_int_type_message@@3PBDB ; overload_invalid_int_type_message
  00242	51		 push	 ecx
  00243	e8 00 00 00 00	 call	 ?process_assert@@YGXPBD0H@Z ; process_assert
  00248	c7 45 b4 00 00
	00 00		 mov	 DWORD PTR tv188[ebp], 0
$LN61@damage_sys:
  0024f	68 a8 00 00 00	 push	 168			; 000000a8H
  00254	8b 15 00 00 00
	00		 mov	 edx, DWORD PTR ?gunship_entity@@3PAUENTITY@@A ; gunship_entity
  0025a	52		 push	 edx
  0025b	69 45 b8 5c 04
	00 00		 imul	 eax, DWORD PTR tv181[ebp], 1116
  00262	8b 4d b4	 mov	 ecx, DWORD PTR tv188[ebp]
  00265	8b 94 88 00 00
	00 00		 mov	 edx, DWORD PTR ?fn_get_local_entity_int_value@@3PAY0BBH@P6GHPAUENTITY@@W4INT_TYPES@@@ZA[eax+ecx*4]
  0026c	ff d2		 call	 edx
  0026e	85 c0		 test	 eax, eax
  00270	0f 84 93 00 00
	00		 je	 $LN14@damage_sys

; 578  : 			{
; 579  : 				set_client_server_entity_int_value (get_gunship_entity (), INT_TYPE_RADAR_JAMMER_ON, FALSE);

  00276	83 3d 00 00 00
	00 00		 cmp	 DWORD PTR ?gunship_entity@@3PAUENTITY@@A, 0 ; gunship_entity
  0027d	74 0c		 je	 SHORT $LN62@damage_sys
  0027f	a1 00 00 00 00	 mov	 eax, DWORD PTR ?gunship_entity@@3PAUENTITY@@A ; gunship_entity
  00284	8b 08		 mov	 ecx, DWORD PTR [eax]
  00286	89 4d b8	 mov	 DWORD PTR tv201[ebp], ecx
  00289	eb 21		 jmp	 SHORT $LN63@damage_sys
$LN62@damage_sys:
  0028b	8b 15 00 00 00
	00		 mov	 edx, DWORD PTR ?__LINE__Var@?0??damage_systems@@YGXTHIND_DAMAGE_FLAGS@@@Z@4JA
  00291	83 c2 73	 add	 edx, 115		; 00000073H
  00294	52		 push	 edx
  00295	68 00 00 00 00	 push	 OFFSET ??_C@_0EM@MBPMPMLI@c?3?2users?2nhv90?2projects?2eech?2ap@
  0029a	a1 00 00 00 00	 mov	 eax, DWORD PTR ?null_entity_pointer_message@@3PBDB ; null_entity_pointer_message
  0029f	50		 push	 eax
  002a0	e8 00 00 00 00	 call	 ?process_assert@@YGXPBD0H@Z ; process_assert
  002a5	c7 45 b8 00 00
	00 00		 mov	 DWORD PTR tv201[ebp], 0
$LN63@damage_sys:
  002ac	b9 01 00 00 00	 mov	 ecx, 1
  002b1	85 c9		 test	 ecx, ecx
  002b3	74 09		 je	 SHORT $LN64@damage_sys
  002b5	c7 45 b4 a8 00
	00 00		 mov	 DWORD PTR tv209[ebp], 168 ; 000000a8H
  002bc	eb 21		 jmp	 SHORT $LN65@damage_sys
$LN64@damage_sys:
  002be	8b 15 00 00 00
	00		 mov	 edx, DWORD PTR ?__LINE__Var@?0??damage_systems@@YGXTHIND_DAMAGE_FLAGS@@@Z@4JA
  002c4	83 c2 73	 add	 edx, 115		; 00000073H
  002c7	52		 push	 edx
  002c8	68 00 00 00 00	 push	 OFFSET ??_C@_0EM@MBPMPMLI@c?3?2users?2nhv90?2projects?2eech?2ap@
  002cd	a1 00 00 00 00	 mov	 eax, DWORD PTR ?overload_invalid_int_type_message@@3PBDB ; overload_invalid_int_type_message
  002d2	50		 push	 eax
  002d3	e8 00 00 00 00	 call	 ?process_assert@@YGXPBD0H@Z ; process_assert
  002d8	c7 45 b4 00 00
	00 00		 mov	 DWORD PTR tv209[ebp], 0
$LN65@damage_sys:
  002df	6a 00		 push	 0
  002e1	68 a8 00 00 00	 push	 168			; 000000a8H
  002e6	8b 0d 00 00 00
	00		 mov	 ecx, DWORD PTR ?gunship_entity@@3PAUENTITY@@A ; gunship_entity
  002ec	51		 push	 ecx
  002ed	69 55 b8 b8 08
	00 00		 imul	 edx, DWORD PTR tv201[ebp], 2232
  002f4	8b 45 b4	 mov	 eax, DWORD PTR tv209[ebp]
  002f7	8d 8c c2 00 00
	00 00		 lea	 ecx, DWORD PTR ?fn_set_client_server_entity_int_value@@3PAY1BBH@1P6GXPAUENTITY@@W4INT_TYPES@@H@ZA[edx+eax*8]
  002fe	8b 15 00 00 00
	00		 mov	 edx, DWORD PTR ?system_comms_model@@3W4COMMS_MODEL_TYPES@@A ; system_comms_model
  00304	8b 04 91	 mov	 eax, DWORD PTR [ecx+edx*4]
  00307	ff d0		 call	 eax
$LN14@damage_sys:

; 580  : 			}
; 581  : 		}
; 582  : 	}
; 583  : 
; 584  : 	////////////////////////////////////////
; 585  : 
; 586  : 	if (damage.infra_red_jammer)

  00309	8b 45 08	 mov	 eax, DWORD PTR _damage$[ebp]
  0030c	c1 e8 07	 shr	 eax, 7
  0030f	83 e0 01	 and	 eax, 1
  00312	0f 84 6a 01 00
	00		 je	 $LN17@damage_sys

; 587  : 	{
; 588  : 		if (!hind_damage.infra_red_jammer)

  00318	a1 00 00 00 00	 mov	 eax, DWORD PTR ?hind_damage@@3THIND_DAMAGE_FLAGS@@A ; hind_damage
  0031d	c1 e8 07	 shr	 eax, 7
  00320	83 e0 01	 and	 eax, 1
  00323	0f 85 59 01 00
	00		 jne	 $LN17@damage_sys

; 589  : 		{
; 590  : 			activate_hind_master_caution_lamp ();

  00329	e8 00 00 00 00	 call	 ?activate_hind_master_caution_lamp@@YGXXZ ; activate_hind_master_caution_lamp

; 591  : 
; 592  : 			hind_damage.infra_red_jammer = TRUE;

  0032e	a1 00 00 00 00	 mov	 eax, DWORD PTR ?hind_damage@@3THIND_DAMAGE_FLAGS@@A ; hind_damage
  00333	0d 80 00 00 00	 or	 eax, 128		; 00000080H
  00338	a3 00 00 00 00	 mov	 DWORD PTR ?hind_damage@@3THIND_DAMAGE_FLAGS@@A, eax ; hind_damage

; 593  : 
; 594  : 			dynamics_damage_model (DYNAMICS_DAMAGE_AVIONICS, FALSE);

  0033d	6a 00		 push	 0
  0033f	68 00 10 00 00	 push	 4096			; 00001000H
  00344	e8 00 00 00 00	 call	 ?dynamics_damage_model@@YGXIH@Z ; dynamics_damage_model

; 595  : 
; 596  : 			set_hind_ekran_display_text ("IR JAMMER", "FAILURE", NULL, NULL);

  00349	6a 00		 push	 0
  0034b	6a 00		 push	 0
  0034d	68 00 00 00 00	 push	 OFFSET ??_C@_07DMOCMFND@FAILURE@
  00352	68 00 00 00 00	 push	 OFFSET ??_C@_09MILGCPFO@IR?5JAMMER@
  00357	e8 00 00 00 00	 call	 ?set_hind_ekran_display_text@@YGXPAD000@Z ; set_hind_ekran_display_text

; 597  : 
; 598  : 			play_client_server_warning_message (en, SPEECH_SYSTEM_IR_JAMMER_FAILURE);

  0035c	6a 09		 push	 9
  0035e	8b 45 fc	 mov	 eax, DWORD PTR _en$[ebp]
  00361	50		 push	 eax
  00362	e8 00 00 00 00	 call	 ?play_client_server_warning_message@@YGHPAUENTITY@@H@Z ; play_client_server_warning_message

; 599  : 
; 600  : 			if (get_local_entity_int_value (get_gunship_entity (), INT_TYPE_INFRA_RED_JAMMER_ON))

  00367	83 3d 00 00 00
	00 00		 cmp	 DWORD PTR ?gunship_entity@@3PAUENTITY@@A, 0 ; gunship_entity
  0036e	74 0c		 je	 SHORT $LN66@damage_sys
  00370	a1 00 00 00 00	 mov	 eax, DWORD PTR ?gunship_entity@@3PAUENTITY@@A ; gunship_entity
  00375	8b 08		 mov	 ecx, DWORD PTR [eax]
  00377	89 4d b8	 mov	 DWORD PTR tv237[ebp], ecx
  0037a	eb 1d		 jmp	 SHORT $LN67@damage_sys
$LN66@damage_sys:
  0037c	68 58 02 00 00	 push	 600			; 00000258H
  00381	68 00 00 00 00	 push	 OFFSET ??_C@_0EM@MBPMPMLI@c?3?2users?2nhv90?2projects?2eech?2ap@
  00386	8b 15 00 00 00
	00		 mov	 edx, DWORD PTR ?null_entity_pointer_message@@3PBDB ; null_entity_pointer_message
  0038c	52		 push	 edx
  0038d	e8 00 00 00 00	 call	 ?process_assert@@YGXPBD0H@Z ; process_assert
  00392	c7 45 b8 00 00
	00 00		 mov	 DWORD PTR tv237[ebp], 0
$LN67@damage_sys:
  00399	b8 01 00 00 00	 mov	 eax, 1
  0039e	85 c0		 test	 eax, eax
  003a0	74 09		 je	 SHORT $LN68@damage_sys
  003a2	c7 45 b4 68 00
	00 00		 mov	 DWORD PTR tv244[ebp], 104 ; 00000068H
  003a9	eb 1d		 jmp	 SHORT $LN69@damage_sys
$LN68@damage_sys:
  003ab	68 58 02 00 00	 push	 600			; 00000258H
  003b0	68 00 00 00 00	 push	 OFFSET ??_C@_0EM@MBPMPMLI@c?3?2users?2nhv90?2projects?2eech?2ap@
  003b5	8b 0d 00 00 00
	00		 mov	 ecx, DWORD PTR ?overload_invalid_int_type_message@@3PBDB ; overload_invalid_int_type_message
  003bb	51		 push	 ecx
  003bc	e8 00 00 00 00	 call	 ?process_assert@@YGXPBD0H@Z ; process_assert
  003c1	c7 45 b4 00 00
	00 00		 mov	 DWORD PTR tv244[ebp], 0
$LN69@damage_sys:
  003c8	6a 68		 push	 104			; 00000068H
  003ca	8b 15 00 00 00
	00		 mov	 edx, DWORD PTR ?gunship_entity@@3PAUENTITY@@A ; gunship_entity
  003d0	52		 push	 edx
  003d1	69 45 b8 5c 04
	00 00		 imul	 eax, DWORD PTR tv237[ebp], 1116
  003d8	8b 4d b4	 mov	 ecx, DWORD PTR tv244[ebp]
  003db	8b 94 88 00 00
	00 00		 mov	 edx, DWORD PTR ?fn_get_local_entity_int_value@@3PAY0BBH@P6GHPAUENTITY@@W4INT_TYPES@@@ZA[eax+ecx*4]
  003e2	ff d2		 call	 edx
  003e4	85 c0		 test	 eax, eax
  003e6	0f 84 96 00 00
	00		 je	 $LN17@damage_sys

; 601  : 			{
; 602  : 				set_client_server_entity_int_value (get_gunship_entity (), INT_TYPE_INFRA_RED_JAMMER_ON, FALSE);

  003ec	83 3d 00 00 00
	00 00		 cmp	 DWORD PTR ?gunship_entity@@3PAUENTITY@@A, 0 ; gunship_entity
  003f3	74 0c		 je	 SHORT $LN70@damage_sys
  003f5	a1 00 00 00 00	 mov	 eax, DWORD PTR ?gunship_entity@@3PAUENTITY@@A ; gunship_entity
  003fa	8b 08		 mov	 ecx, DWORD PTR [eax]
  003fc	89 4d b8	 mov	 DWORD PTR tv257[ebp], ecx
  003ff	eb 24		 jmp	 SHORT $LN71@damage_sys
$LN70@damage_sys:
  00401	8b 15 00 00 00
	00		 mov	 edx, DWORD PTR ?__LINE__Var@?0??damage_systems@@YGXTHIND_DAMAGE_FLAGS@@@Z@4JA
  00407	81 c2 8a 00 00
	00		 add	 edx, 138		; 0000008aH
  0040d	52		 push	 edx
  0040e	68 00 00 00 00	 push	 OFFSET ??_C@_0EM@MBPMPMLI@c?3?2users?2nhv90?2projects?2eech?2ap@
  00413	a1 00 00 00 00	 mov	 eax, DWORD PTR ?null_entity_pointer_message@@3PBDB ; null_entity_pointer_message
  00418	50		 push	 eax
  00419	e8 00 00 00 00	 call	 ?process_assert@@YGXPBD0H@Z ; process_assert
  0041e	c7 45 b8 00 00
	00 00		 mov	 DWORD PTR tv257[ebp], 0
$LN71@damage_sys:
  00425	b9 01 00 00 00	 mov	 ecx, 1
  0042a	85 c9		 test	 ecx, ecx
  0042c	74 09		 je	 SHORT $LN72@damage_sys
  0042e	c7 45 b4 68 00
	00 00		 mov	 DWORD PTR tv265[ebp], 104 ; 00000068H
  00435	eb 24		 jmp	 SHORT $LN73@damage_sys
$LN72@damage_sys:
  00437	8b 15 00 00 00
	00		 mov	 edx, DWORD PTR ?__LINE__Var@?0??damage_systems@@YGXTHIND_DAMAGE_FLAGS@@@Z@4JA
  0043d	81 c2 8a 00 00
	00		 add	 edx, 138		; 0000008aH
  00443	52		 push	 edx
  00444	68 00 00 00 00	 push	 OFFSET ??_C@_0EM@MBPMPMLI@c?3?2users?2nhv90?2projects?2eech?2ap@
  00449	a1 00 00 00 00	 mov	 eax, DWORD PTR ?overload_invalid_int_type_message@@3PBDB ; overload_invalid_int_type_message
  0044e	50		 push	 eax
  0044f	e8 00 00 00 00	 call	 ?process_assert@@YGXPBD0H@Z ; process_assert
  00454	c7 45 b4 00 00
	00 00		 mov	 DWORD PTR tv265[ebp], 0
$LN73@damage_sys:
  0045b	6a 00		 push	 0
  0045d	6a 68		 push	 104			; 00000068H
  0045f	8b 0d 00 00 00
	00		 mov	 ecx, DWORD PTR ?gunship_entity@@3PAUENTITY@@A ; gunship_entity
  00465	51		 push	 ecx
  00466	69 55 b8 b8 08
	00 00		 imul	 edx, DWORD PTR tv257[ebp], 2232
  0046d	8b 45 b4	 mov	 eax, DWORD PTR tv265[ebp]
  00470	8d 8c c2 00 00
	00 00		 lea	 ecx, DWORD PTR ?fn_set_client_server_entity_int_value@@3PAY1BBH@1P6GXPAUENTITY@@W4INT_TYPES@@H@ZA[edx+eax*8]
  00477	8b 15 00 00 00
	00		 mov	 edx, DWORD PTR ?system_comms_model@@3W4COMMS_MODEL_TYPES@@A ; system_comms_model
  0047d	8b 04 91	 mov	 eax, DWORD PTR [ecx+edx*4]
  00480	ff d0		 call	 eax
$LN17@damage_sys:

; 603  : 			}
; 604  : 		}
; 605  : 	}
; 606  : 
; 607  : 	////////////////////////////////////////
; 608  : 
; 609  : 	if (damage.navigation_computer)

  00482	8b 45 08	 mov	 eax, DWORD PTR _damage$[ebp]
  00485	c1 e8 09	 shr	 eax, 9
  00488	83 e0 01	 and	 eax, 1
  0048b	74 4b		 je	 SHORT $LN20@damage_sys

; 610  : 	{
; 611  : 		if (!hind_damage.navigation_computer)

  0048d	a1 00 00 00 00	 mov	 eax, DWORD PTR ?hind_damage@@3THIND_DAMAGE_FLAGS@@A ; hind_damage
  00492	c1 e8 09	 shr	 eax, 9
  00495	83 e0 01	 and	 eax, 1
  00498	75 3e		 jne	 SHORT $LN20@damage_sys

; 612  : 		{
; 613  : 			activate_hind_master_caution_lamp ();

  0049a	e8 00 00 00 00	 call	 ?activate_hind_master_caution_lamp@@YGXXZ ; activate_hind_master_caution_lamp

; 614  : 
; 615  : 			hind_damage.navigation_computer = TRUE;

  0049f	a1 00 00 00 00	 mov	 eax, DWORD PTR ?hind_damage@@3THIND_DAMAGE_FLAGS@@A ; hind_damage
  004a4	0d 00 02 00 00	 or	 eax, 512		; 00000200H
  004a9	a3 00 00 00 00	 mov	 DWORD PTR ?hind_damage@@3THIND_DAMAGE_FLAGS@@A, eax ; hind_damage

; 616  : 
; 617  : 			dynamics_damage_model (DYNAMICS_DAMAGE_AVIONICS, FALSE);

  004ae	6a 00		 push	 0
  004b0	68 00 10 00 00	 push	 4096			; 00001000H
  004b5	e8 00 00 00 00	 call	 ?dynamics_damage_model@@YGXIH@Z ; dynamics_damage_model

; 618  : 
; 619  : 			set_hind_ekran_display_text ("NAV COMP", "FAILURE", NULL, NULL);

  004ba	6a 00		 push	 0
  004bc	6a 00		 push	 0
  004be	68 00 00 00 00	 push	 OFFSET ??_C@_07DMOCMFND@FAILURE@
  004c3	68 00 00 00 00	 push	 OFFSET ??_C@_08LDOFABDJ@NAV?5COMP@
  004c8	e8 00 00 00 00	 call	 ?set_hind_ekran_display_text@@YGXPAD000@Z ; set_hind_ekran_display_text

; 620  : 
; 621  : 			play_client_server_warning_message (en, SPEECH_SYSTEM_NAV_COMPUTER_FAILURE);

  004cd	6a 0a		 push	 10			; 0000000aH
  004cf	8b 45 fc	 mov	 eax, DWORD PTR _en$[ebp]
  004d2	50		 push	 eax
  004d3	e8 00 00 00 00	 call	 ?play_client_server_warning_message@@YGHPAUENTITY@@H@Z ; play_client_server_warning_message
$LN20@damage_sys:

; 622  : 		}
; 623  : 	}
; 624  : 
; 625  : 	////////////////////////////////////////
; 626  : 
; 627  : 	if (damage.communications)

  004d8	8b 45 08	 mov	 eax, DWORD PTR _damage$[ebp]
  004db	c1 e8 0b	 shr	 eax, 11			; 0000000bH
  004de	83 e0 01	 and	 eax, 1
  004e1	74 4b		 je	 SHORT $LN22@damage_sys

; 628  : 	{
; 629  : 		if (!hind_damage.communications)

  004e3	a1 00 00 00 00	 mov	 eax, DWORD PTR ?hind_damage@@3THIND_DAMAGE_FLAGS@@A ; hind_damage
  004e8	c1 e8 0b	 shr	 eax, 11			; 0000000bH
  004eb	83 e0 01	 and	 eax, 1
  004ee	75 3e		 jne	 SHORT $LN22@damage_sys

; 630  : 		{
; 631  : 			activate_hind_master_caution_lamp ();

  004f0	e8 00 00 00 00	 call	 ?activate_hind_master_caution_lamp@@YGXXZ ; activate_hind_master_caution_lamp

; 632  : 
; 633  : 			hind_damage.communications = TRUE;

  004f5	a1 00 00 00 00	 mov	 eax, DWORD PTR ?hind_damage@@3THIND_DAMAGE_FLAGS@@A ; hind_damage
  004fa	0d 00 08 00 00	 or	 eax, 2048		; 00000800H
  004ff	a3 00 00 00 00	 mov	 DWORD PTR ?hind_damage@@3THIND_DAMAGE_FLAGS@@A, eax ; hind_damage

; 634  : 
; 635  : 			dynamics_damage_model (DYNAMICS_DAMAGE_AVIONICS, FALSE);

  00504	6a 00		 push	 0
  00506	68 00 10 00 00	 push	 4096			; 00001000H
  0050b	e8 00 00 00 00	 call	 ?dynamics_damage_model@@YGXIH@Z ; dynamics_damage_model

; 636  : 
; 637  : 			set_hind_ekran_display_text ("COMMS", "FAILURE", NULL, NULL);

  00510	6a 00		 push	 0
  00512	6a 00		 push	 0
  00514	68 00 00 00 00	 push	 OFFSET ??_C@_07DMOCMFND@FAILURE@
  00519	68 00 00 00 00	 push	 OFFSET ??_C@_05JNPIHJOC@COMMS@
  0051e	e8 00 00 00 00	 call	 ?set_hind_ekran_display_text@@YGXPAD000@Z ; set_hind_ekran_display_text

; 638  : 
; 639  : 			play_client_server_warning_message (en, SPEECH_SYSTEM_COMMS_FAILURE);

  00523	6a 0b		 push	 11			; 0000000bH
  00525	8b 45 fc	 mov	 eax, DWORD PTR _en$[ebp]
  00528	50		 push	 eax
  00529	e8 00 00 00 00	 call	 ?play_client_server_warning_message@@YGHPAUENTITY@@H@Z ; play_client_server_warning_message
$LN22@damage_sys:

; 640  : 		}
; 641  : 	}
; 642  : 
; 643  : 	////////////////////////////////////////
; 644  : 
; 645  : 	if (damage.radar_warning_system)

  0052e	8b 45 08	 mov	 eax, DWORD PTR _damage$[ebp]
  00531	c1 e8 0d	 shr	 eax, 13			; 0000000dH
  00534	83 e0 01	 and	 eax, 1
  00537	74 4b		 je	 SHORT $LN24@damage_sys

; 646  : 	{
; 647  : 		if (!hind_damage.radar_warning_system)

  00539	a1 00 00 00 00	 mov	 eax, DWORD PTR ?hind_damage@@3THIND_DAMAGE_FLAGS@@A ; hind_damage
  0053e	c1 e8 0d	 shr	 eax, 13			; 0000000dH
  00541	83 e0 01	 and	 eax, 1
  00544	75 3e		 jne	 SHORT $LN24@damage_sys

; 648  : 		{
; 649  : 			activate_hind_master_caution_lamp ();

  00546	e8 00 00 00 00	 call	 ?activate_hind_master_caution_lamp@@YGXXZ ; activate_hind_master_caution_lamp

; 650  : 
; 651  : 			hind_damage.radar_warning_system = TRUE;

  0054b	a1 00 00 00 00	 mov	 eax, DWORD PTR ?hind_damage@@3THIND_DAMAGE_FLAGS@@A ; hind_damage
  00550	0d 00 20 00 00	 or	 eax, 8192		; 00002000H
  00555	a3 00 00 00 00	 mov	 DWORD PTR ?hind_damage@@3THIND_DAMAGE_FLAGS@@A, eax ; hind_damage

; 652  : 
; 653  : 			dynamics_damage_model (DYNAMICS_DAMAGE_AVIONICS, FALSE);

  0055a	6a 00		 push	 0
  0055c	68 00 10 00 00	 push	 4096			; 00001000H
  00561	e8 00 00 00 00	 call	 ?dynamics_damage_model@@YGXIH@Z ; dynamics_damage_model

; 654  : 
; 655  : 			set_hind_ekran_display_text ("RWS", "FAILURE", NULL, NULL);

  00566	6a 00		 push	 0
  00568	6a 00		 push	 0
  0056a	68 00 00 00 00	 push	 OFFSET ??_C@_07DMOCMFND@FAILURE@
  0056f	68 00 00 00 00	 push	 OFFSET ??_C@_03EHNKNBGI@RWS@
  00574	e8 00 00 00 00	 call	 ?set_hind_ekran_display_text@@YGXPAD000@Z ; set_hind_ekran_display_text

; 656  : 
; 657  : 			play_client_server_warning_message (en, SPEECH_SYSTEM_RADAR_WARNING_FAILURE);

  00579	6a 0c		 push	 12			; 0000000cH
  0057b	8b 45 fc	 mov	 eax, DWORD PTR _en$[ebp]
  0057e	50		 push	 eax
  0057f	e8 00 00 00 00	 call	 ?play_client_server_warning_message@@YGHPAUENTITY@@H@Z ; play_client_server_warning_message
$LN24@damage_sys:

; 658  : 		}
; 659  : 	}
; 660  : 
; 661  : 	////////////////////////////////////////
; 662  : 
; 663  : 	if (!get_global_simple_avionics ())

  00584	83 3d 6c 03 00
	00 00		 cmp	 DWORD PTR ?global_options@@3UGLOBAL_OPTIONS_DATA@@A+876, 0
  0058b	75 56		 jne	 SHORT $LN26@damage_sys

; 664  : 	{
; 665  : 		if (damage.head_up_display)

  0058d	8b 45 08	 mov	 eax, DWORD PTR _damage$[ebp]
  00590	c1 e8 0f	 shr	 eax, 15			; 0000000fH
  00593	83 e0 01	 and	 eax, 1
  00596	74 4b		 je	 SHORT $LN26@damage_sys

; 666  : 		{
; 667  : 			if (!hind_damage.head_up_display)

  00598	a1 00 00 00 00	 mov	 eax, DWORD PTR ?hind_damage@@3THIND_DAMAGE_FLAGS@@A ; hind_damage
  0059d	c1 e8 0f	 shr	 eax, 15			; 0000000fH
  005a0	83 e0 01	 and	 eax, 1
  005a3	75 3e		 jne	 SHORT $LN26@damage_sys

; 668  : 			{
; 669  : 				activate_hind_master_caution_lamp ();

  005a5	e8 00 00 00 00	 call	 ?activate_hind_master_caution_lamp@@YGXXZ ; activate_hind_master_caution_lamp

; 670  : 
; 671  : 				hind_damage.head_up_display = TRUE;

  005aa	a1 00 00 00 00	 mov	 eax, DWORD PTR ?hind_damage@@3THIND_DAMAGE_FLAGS@@A ; hind_damage
  005af	0d 00 80 00 00	 or	 eax, 32768		; 00008000H
  005b4	a3 00 00 00 00	 mov	 DWORD PTR ?hind_damage@@3THIND_DAMAGE_FLAGS@@A, eax ; hind_damage

; 672  : 
; 673  : 				dynamics_damage_model (DYNAMICS_DAMAGE_AVIONICS, FALSE);

  005b9	6a 00		 push	 0
  005bb	68 00 10 00 00	 push	 4096			; 00001000H
  005c0	e8 00 00 00 00	 call	 ?dynamics_damage_model@@YGXIH@Z ; dynamics_damage_model

; 674  : 
; 675  : 				set_hind_ekran_display_text ("HUD", "FAILURE", NULL, NULL);

  005c5	6a 00		 push	 0
  005c7	6a 00		 push	 0
  005c9	68 00 00 00 00	 push	 OFFSET ??_C@_07DMOCMFND@FAILURE@
  005ce	68 00 00 00 00	 push	 OFFSET ??_C@_03HOHJDGGL@HUD@
  005d3	e8 00 00 00 00	 call	 ?set_hind_ekran_display_text@@YGXPAD000@Z ; set_hind_ekran_display_text

; 676  : 
; 677  : 				play_client_server_warning_message (en, SPEECH_SYSTEM_HUD_FAILURE);

  005d8	6a 0f		 push	 15			; 0000000fH
  005da	8b 45 fc	 mov	 eax, DWORD PTR _en$[ebp]
  005dd	50		 push	 eax
  005de	e8 00 00 00 00	 call	 ?play_client_server_warning_message@@YGHPAUENTITY@@H@Z ; play_client_server_warning_message
$LN26@damage_sys:

; 678  : 			}
; 679  : 		}
; 680  : 	}
; 681  : 
; 682  : 	////////////////////////////////////////
; 683  : 
; 684  : 	if (!get_global_simple_avionics ())

  005e3	83 3d 6c 03 00
	00 00		 cmp	 DWORD PTR ?global_options@@3UGLOBAL_OPTIONS_DATA@@A+876, 0
  005ea	75 66		 jne	 SHORT $LN29@damage_sys

; 685  : 	{
; 686  : 		if (damage.helmet_mounted_sight)

  005ec	8b 45 08	 mov	 eax, DWORD PTR _damage$[ebp]
  005ef	c1 e8 11	 shr	 eax, 17			; 00000011H
  005f2	83 e0 01	 and	 eax, 1
  005f5	74 5b		 je	 SHORT $LN29@damage_sys

; 687  : 		{
; 688  : 			if (!hind_damage.helmet_mounted_sight)

  005f7	a1 00 00 00 00	 mov	 eax, DWORD PTR ?hind_damage@@3THIND_DAMAGE_FLAGS@@A ; hind_damage
  005fc	c1 e8 11	 shr	 eax, 17			; 00000011H
  005ff	83 e0 01	 and	 eax, 1
  00602	75 4e		 jne	 SHORT $LN29@damage_sys

; 689  : 			{
; 690  : 				activate_hind_master_caution_lamp ();

  00604	e8 00 00 00 00	 call	 ?activate_hind_master_caution_lamp@@YGXXZ ; activate_hind_master_caution_lamp

; 691  : 
; 692  : 				hind_damage.helmet_mounted_sight = TRUE;

  00609	a1 00 00 00 00	 mov	 eax, DWORD PTR ?hind_damage@@3THIND_DAMAGE_FLAGS@@A ; hind_damage
  0060e	0d 00 00 02 00	 or	 eax, 131072		; 00020000H
  00613	a3 00 00 00 00	 mov	 DWORD PTR ?hind_damage@@3THIND_DAMAGE_FLAGS@@A, eax ; hind_damage

; 693  : 
; 694  : 				dynamics_damage_model (DYNAMICS_DAMAGE_AVIONICS, FALSE);

  00618	6a 00		 push	 0
  0061a	68 00 10 00 00	 push	 4096			; 00001000H
  0061f	e8 00 00 00 00	 call	 ?dynamics_damage_model@@YGXIH@Z ; dynamics_damage_model

; 695  : 
; 696  : 				set_hind_ekran_display_text ("HMS", "FAILURE", NULL, NULL);

  00624	6a 00		 push	 0
  00626	6a 00		 push	 0
  00628	68 00 00 00 00	 push	 OFFSET ??_C@_07DMOCMFND@FAILURE@
  0062d	68 00 00 00 00	 push	 OFFSET ??_C@_03GJMPEADF@HMS@
  00632	e8 00 00 00 00	 call	 ?set_hind_ekran_display_text@@YGXPAD000@Z ; set_hind_ekran_display_text

; 697  : 
; 698  : 				play_client_server_warning_message (en, SPEECH_SYSTEM_HELMET_MOUNTED_SIGHT_FAILURE);

  00637	6a 10		 push	 16			; 00000010H
  00639	8b 45 fc	 mov	 eax, DWORD PTR _en$[ebp]
  0063c	50		 push	 eax
  0063d	e8 00 00 00 00	 call	 ?play_client_server_warning_message@@YGHPAUENTITY@@H@Z ; play_client_server_warning_message

; 699  : 
; 700  : 				if (target_acquisition_system == TARGET_ACQUISITION_SYSTEM_HMS)

  00642	83 3d 00 00 00
	00 0a		 cmp	 DWORD PTR ?target_acquisition_system@@3W4TARGET_ACQUISITION_SYSTEMS@@A, 10 ; target_acquisition_system, 0000000aH
  00649	75 07		 jne	 SHORT $LN29@damage_sys

; 701  : 				{
; 702  : 					select_hind_target_acquisition_system (TARGET_ACQUISITION_SYSTEM_OFF);

  0064b	6a 00		 push	 0
  0064d	e8 00 00 00 00	 call	 ?select_hind_target_acquisition_system@@YGXW4TARGET_ACQUISITION_SYSTEMS@@@Z ; select_hind_target_acquisition_system
$LN29@damage_sys:

; 703  : 				}
; 704  : 			}
; 705  : 		}
; 706  : 	}
; 707  : 
; 708  : 	////////////////////////////////////////
; 709  : 
; 710  : 	if (damage.tv_display)

  00652	8b 45 08	 mov	 eax, DWORD PTR _damage$[ebp]
  00655	c1 e8 12	 shr	 eax, 18			; 00000012H
  00658	83 e0 01	 and	 eax, 1
  0065b	74 4b		 je	 SHORT $LN33@damage_sys

; 711  : 	{
; 712  : 		if (!hind_damage.tv_display)

  0065d	a1 00 00 00 00	 mov	 eax, DWORD PTR ?hind_damage@@3THIND_DAMAGE_FLAGS@@A ; hind_damage
  00662	c1 e8 12	 shr	 eax, 18			; 00000012H
  00665	83 e0 01	 and	 eax, 1
  00668	75 3e		 jne	 SHORT $LN33@damage_sys

; 713  : 		{
; 714  : 			activate_hind_master_caution_lamp ();

  0066a	e8 00 00 00 00	 call	 ?activate_hind_master_caution_lamp@@YGXXZ ; activate_hind_master_caution_lamp

; 715  : 
; 716  : 			hind_damage.tv_display = TRUE;

  0066f	a1 00 00 00 00	 mov	 eax, DWORD PTR ?hind_damage@@3THIND_DAMAGE_FLAGS@@A ; hind_damage
  00674	0d 00 00 04 00	 or	 eax, 262144		; 00040000H
  00679	a3 00 00 00 00	 mov	 DWORD PTR ?hind_damage@@3THIND_DAMAGE_FLAGS@@A, eax ; hind_damage

; 717  : 
; 718  : 			dynamics_damage_model (DYNAMICS_DAMAGE_AVIONICS, FALSE);

  0067e	6a 00		 push	 0
  00680	68 00 10 00 00	 push	 4096			; 00001000H
  00685	e8 00 00 00 00	 call	 ?dynamics_damage_model@@YGXIH@Z ; dynamics_damage_model

; 719  : 
; 720  : 			set_hind_ekran_display_text ("TV", "FAILURE", NULL, NULL);

  0068a	6a 00		 push	 0
  0068c	6a 00		 push	 0
  0068e	68 00 00 00 00	 push	 OFFSET ??_C@_07DMOCMFND@FAILURE@
  00693	68 00 00 00 00	 push	 OFFSET ??_C@_02IHOKFKFD@TV@
  00698	e8 00 00 00 00	 call	 ?set_hind_ekran_display_text@@YGXPAD000@Z ; set_hind_ekran_display_text

; 721  : 
; 722  : 			play_client_server_warning_message (en, SPEECH_SYSTEM_TV_DISPLAY_FAILURE);

  0069d	6a 13		 push	 19			; 00000013H
  0069f	8b 45 fc	 mov	 eax, DWORD PTR _en$[ebp]
  006a2	50		 push	 eax
  006a3	e8 00 00 00 00	 call	 ?play_client_server_warning_message@@YGHPAUENTITY@@H@Z ; play_client_server_warning_message
$LN33@damage_sys:

; 723  : 		}
; 724  : 	}
; 725  : 
; 726  : 	////////////////////////////////////////
; 727  : 
; 728  : 	if (damage.threat_warning_display)

  006a8	8b 45 08	 mov	 eax, DWORD PTR _damage$[ebp]
  006ab	c1 e8 13	 shr	 eax, 19			; 00000013H
  006ae	83 e0 01	 and	 eax, 1
  006b1	74 4b		 je	 SHORT $LN35@damage_sys

; 729  : 	{
; 730  : 		if (!hind_damage.threat_warning_display)

  006b3	a1 00 00 00 00	 mov	 eax, DWORD PTR ?hind_damage@@3THIND_DAMAGE_FLAGS@@A ; hind_damage
  006b8	c1 e8 13	 shr	 eax, 19			; 00000013H
  006bb	83 e0 01	 and	 eax, 1
  006be	75 3e		 jne	 SHORT $LN35@damage_sys

; 731  : 		{
; 732  : 			activate_hind_master_caution_lamp ();

  006c0	e8 00 00 00 00	 call	 ?activate_hind_master_caution_lamp@@YGXXZ ; activate_hind_master_caution_lamp

; 733  : 
; 734  : 			hind_damage.threat_warning_display = TRUE;

  006c5	a1 00 00 00 00	 mov	 eax, DWORD PTR ?hind_damage@@3THIND_DAMAGE_FLAGS@@A ; hind_damage
  006ca	0d 00 00 08 00	 or	 eax, 524288		; 00080000H
  006cf	a3 00 00 00 00	 mov	 DWORD PTR ?hind_damage@@3THIND_DAMAGE_FLAGS@@A, eax ; hind_damage

; 735  : 
; 736  : 			dynamics_damage_model (DYNAMICS_DAMAGE_AVIONICS, FALSE);

  006d4	6a 00		 push	 0
  006d6	68 00 10 00 00	 push	 4096			; 00001000H
  006db	e8 00 00 00 00	 call	 ?dynamics_damage_model@@YGXIH@Z ; dynamics_damage_model

; 737  : 
; 738  : 			set_hind_ekran_display_text ("TWD", "FAILURE", NULL, NULL);

  006e0	6a 00		 push	 0
  006e2	6a 00		 push	 0
  006e4	68 00 00 00 00	 push	 OFFSET ??_C@_07DMOCMFND@FAILURE@
  006e9	68 00 00 00 00	 push	 OFFSET ??_C@_03GHDCAKCC@TWD@
  006ee	e8 00 00 00 00	 call	 ?set_hind_ekran_display_text@@YGXPAD000@Z ; set_hind_ekran_display_text

; 739  : 
; 740  : 			play_client_server_warning_message (en, SPEECH_SYSTEM_THREAT_WARNING_DISPLAY_FAILURE);

  006f3	6a 14		 push	 20			; 00000014H
  006f5	8b 45 fc	 mov	 eax, DWORD PTR _en$[ebp]
  006f8	50		 push	 eax
  006f9	e8 00 00 00 00	 call	 ?play_client_server_warning_message@@YGHPAUENTITY@@H@Z ; play_client_server_warning_message
$LN35@damage_sys:

; 741  : 		}
; 742  : 	}
; 743  : 
; 744  : 	////////////////////////////////////////
; 745  : 
; 746  : 	if (damage.night_vision_goggles)

  006fe	8b 45 08	 mov	 eax, DWORD PTR _damage$[ebp]
  00701	c1 e8 14	 shr	 eax, 20			; 00000014H
  00704	83 e0 01	 and	 eax, 1
  00707	74 55		 je	 SHORT $LN37@damage_sys

; 747  : 	{
; 748  : 		if (!hind_damage.night_vision_goggles)

  00709	a1 00 00 00 00	 mov	 eax, DWORD PTR ?hind_damage@@3THIND_DAMAGE_FLAGS@@A ; hind_damage
  0070e	c1 e8 14	 shr	 eax, 20			; 00000014H
  00711	83 e0 01	 and	 eax, 1
  00714	75 48		 jne	 SHORT $LN37@damage_sys

; 749  : 		{
; 750  : 			activate_hind_master_caution_lamp ();

  00716	e8 00 00 00 00	 call	 ?activate_hind_master_caution_lamp@@YGXXZ ; activate_hind_master_caution_lamp

; 751  : 
; 752  : 			hind_damage.night_vision_goggles = TRUE;

  0071b	a1 00 00 00 00	 mov	 eax, DWORD PTR ?hind_damage@@3THIND_DAMAGE_FLAGS@@A ; hind_damage
  00720	0d 00 00 10 00	 or	 eax, 1048576		; 00100000H
  00725	a3 00 00 00 00	 mov	 DWORD PTR ?hind_damage@@3THIND_DAMAGE_FLAGS@@A, eax ; hind_damage

; 753  : 
; 754  : 			dynamics_damage_model (DYNAMICS_DAMAGE_AVIONICS, FALSE);

  0072a	6a 00		 push	 0
  0072c	68 00 10 00 00	 push	 4096			; 00001000H
  00731	e8 00 00 00 00	 call	 ?dynamics_damage_model@@YGXIH@Z ; dynamics_damage_model

; 755  : 
; 756  : 			set_hind_ekran_display_text ("NVG", "DAMAGED", NULL, NULL);

  00736	6a 00		 push	 0
  00738	6a 00		 push	 0
  0073a	68 00 00 00 00	 push	 OFFSET ??_C@_07OHKEFPKJ@DAMAGED@
  0073f	68 00 00 00 00	 push	 OFFSET ??_C@_03HCHJIECN@NVG@
  00744	e8 00 00 00 00	 call	 ?set_hind_ekran_display_text@@YGXPAD000@Z ; set_hind_ekran_display_text

; 757  : 
; 758  : 			play_client_server_warning_message (en, SPEECH_SYSTEM_NIGHT_VISION_GOGGLES_FAILURE);

  00749	6a 16		 push	 22			; 00000016H
  0074b	8b 45 fc	 mov	 eax, DWORD PTR _en$[ebp]
  0074e	50		 push	 eax
  0074f	e8 00 00 00 00	 call	 ?play_client_server_warning_message@@YGHPAUENTITY@@H@Z ; play_client_server_warning_message

; 759  : 
; 760  : 			night_vision_system_active = FALSE;

  00754	c7 05 00 00 00
	00 00 00 00 00	 mov	 DWORD PTR ?night_vision_system_active@@3HA, 0 ; night_vision_system_active
$LN37@damage_sys:

; 761  : 		}
; 762  : 	}
; 763  : 
; 764  : 	////////////////////////////////////////
; 765  : 
; 766  : 	if (damage.gun_jammed)

  0075e	8b 45 08	 mov	 eax, DWORD PTR _damage$[ebp]
  00761	c1 e8 15	 shr	 eax, 21			; 00000015H
  00764	83 e0 01	 and	 eax, 1
  00767	74 4b		 je	 SHORT $LN39@damage_sys

; 767  : 	{
; 768  : 		if (!hind_damage.gun_jammed)

  00769	a1 00 00 00 00	 mov	 eax, DWORD PTR ?hind_damage@@3THIND_DAMAGE_FLAGS@@A ; hind_damage
  0076e	c1 e8 15	 shr	 eax, 21			; 00000015H
  00771	83 e0 01	 and	 eax, 1
  00774	75 3e		 jne	 SHORT $LN39@damage_sys

; 769  : 		{
; 770  : 			activate_hind_master_caution_lamp ();

  00776	e8 00 00 00 00	 call	 ?activate_hind_master_caution_lamp@@YGXXZ ; activate_hind_master_caution_lamp

; 771  : 
; 772  : 			hind_damage.gun_jammed = TRUE;

  0077b	a1 00 00 00 00	 mov	 eax, DWORD PTR ?hind_damage@@3THIND_DAMAGE_FLAGS@@A ; hind_damage
  00780	0d 00 00 20 00	 or	 eax, 2097152		; 00200000H
  00785	a3 00 00 00 00	 mov	 DWORD PTR ?hind_damage@@3THIND_DAMAGE_FLAGS@@A, eax ; hind_damage

; 773  : 
; 774  : 			dynamics_damage_model (DYNAMICS_DAMAGE_AVIONICS, FALSE);

  0078a	6a 00		 push	 0
  0078c	68 00 10 00 00	 push	 4096			; 00001000H
  00791	e8 00 00 00 00	 call	 ?dynamics_damage_model@@YGXIH@Z ; dynamics_damage_model

; 775  : 
; 776  : 			set_hind_ekran_display_text ("GUN", "JAMMED", NULL, NULL);

  00796	6a 00		 push	 0
  00798	6a 00		 push	 0
  0079a	68 00 00 00 00	 push	 OFFSET ??_C@_06GNLFAKEN@JAMMED@
  0079f	68 00 00 00 00	 push	 OFFSET ??_C@_03NMPFMOLH@GUN@
  007a4	e8 00 00 00 00	 call	 ?set_hind_ekran_display_text@@YGXPAD000@Z ; set_hind_ekran_display_text

; 777  : 
; 778  : 			play_client_server_warning_message (en, SPEECH_SYSTEM_GUN_JAMMED);

  007a9	6a 17		 push	 23			; 00000017H
  007ab	8b 45 fc	 mov	 eax, DWORD PTR _en$[ebp]
  007ae	50		 push	 eax
  007af	e8 00 00 00 00	 call	 ?play_client_server_warning_message@@YGHPAUENTITY@@H@Z ; play_client_server_warning_message
$LN39@damage_sys:

; 779  : 		}
; 780  : 	}
; 781  : 
; 782  : 	////////////////////////////////////////
; 783  : 
; 784  : 	if (damage.lh_outer_pylon)

  007b4	8b 45 08	 mov	 eax, DWORD PTR _damage$[ebp]
  007b7	c1 e8 17	 shr	 eax, 23			; 00000017H
  007ba	83 e0 01	 and	 eax, 1
  007bd	74 4b		 je	 SHORT $LN41@damage_sys

; 785  : 	{
; 786  : 		if (!hind_damage.lh_outer_pylon)

  007bf	a1 00 00 00 00	 mov	 eax, DWORD PTR ?hind_damage@@3THIND_DAMAGE_FLAGS@@A ; hind_damage
  007c4	c1 e8 17	 shr	 eax, 23			; 00000017H
  007c7	83 e0 01	 and	 eax, 1
  007ca	75 3e		 jne	 SHORT $LN41@damage_sys

; 787  : 		{
; 788  : 			activate_hind_master_caution_lamp ();

  007cc	e8 00 00 00 00	 call	 ?activate_hind_master_caution_lamp@@YGXXZ ; activate_hind_master_caution_lamp

; 789  : 
; 790  : 			hind_damage.lh_outer_pylon = TRUE;

  007d1	a1 00 00 00 00	 mov	 eax, DWORD PTR ?hind_damage@@3THIND_DAMAGE_FLAGS@@A ; hind_damage
  007d6	0d 00 00 80 00	 or	 eax, 8388608		; 00800000H
  007db	a3 00 00 00 00	 mov	 DWORD PTR ?hind_damage@@3THIND_DAMAGE_FLAGS@@A, eax ; hind_damage

; 791  : 
; 792  : 			dynamics_damage_model (DYNAMICS_DAMAGE_AVIONICS, FALSE);

  007e0	6a 00		 push	 0
  007e2	68 00 10 00 00	 push	 4096			; 00001000H
  007e7	e8 00 00 00 00	 call	 ?dynamics_damage_model@@YGXIH@Z ; dynamics_damage_model

; 793  : 
; 794  : 			set_hind_ekran_display_text ("HARDPOINT", "DAMAGED", NULL, NULL);

  007ec	6a 00		 push	 0
  007ee	6a 00		 push	 0
  007f0	68 00 00 00 00	 push	 OFFSET ??_C@_07OHKEFPKJ@DAMAGED@
  007f5	68 00 00 00 00	 push	 OFFSET ??_C@_09GLFEIKAK@HARDPOINT@
  007fa	e8 00 00 00 00	 call	 ?set_hind_ekran_display_text@@YGXPAD000@Z ; set_hind_ekran_display_text

; 795  : 
; 796  : 			play_client_server_warning_message (en, SPEECH_SYSTEM_HARDPOINT_DAMAGED);

  007ff	6a 18		 push	 24			; 00000018H
  00801	8b 45 fc	 mov	 eax, DWORD PTR _en$[ebp]
  00804	50		 push	 eax
  00805	e8 00 00 00 00	 call	 ?play_client_server_warning_message@@YGHPAUENTITY@@H@Z ; play_client_server_warning_message
$LN41@damage_sys:

; 797  : 		}
; 798  : 	}
; 799  : 
; 800  : 	////////////////////////////////////////
; 801  : 
; 802  : 	if (damage.lh_inner_pylon)

  0080a	8b 45 08	 mov	 eax, DWORD PTR _damage$[ebp]
  0080d	c1 e8 18	 shr	 eax, 24			; 00000018H
  00810	83 e0 01	 and	 eax, 1
  00813	74 4b		 je	 SHORT $LN43@damage_sys

; 803  : 	{
; 804  : 		if (!hind_damage.lh_inner_pylon)

  00815	a1 00 00 00 00	 mov	 eax, DWORD PTR ?hind_damage@@3THIND_DAMAGE_FLAGS@@A ; hind_damage
  0081a	c1 e8 18	 shr	 eax, 24			; 00000018H
  0081d	83 e0 01	 and	 eax, 1
  00820	75 3e		 jne	 SHORT $LN43@damage_sys

; 805  : 		{
; 806  : 			activate_hind_master_caution_lamp ();

  00822	e8 00 00 00 00	 call	 ?activate_hind_master_caution_lamp@@YGXXZ ; activate_hind_master_caution_lamp

; 807  : 
; 808  : 			hind_damage.lh_inner_pylon = TRUE;

  00827	a1 00 00 00 00	 mov	 eax, DWORD PTR ?hind_damage@@3THIND_DAMAGE_FLAGS@@A ; hind_damage
  0082c	0d 00 00 00 01	 or	 eax, 16777216		; 01000000H
  00831	a3 00 00 00 00	 mov	 DWORD PTR ?hind_damage@@3THIND_DAMAGE_FLAGS@@A, eax ; hind_damage

; 809  : 
; 810  : 			dynamics_damage_model (DYNAMICS_DAMAGE_AVIONICS, FALSE);

  00836	6a 00		 push	 0
  00838	68 00 10 00 00	 push	 4096			; 00001000H
  0083d	e8 00 00 00 00	 call	 ?dynamics_damage_model@@YGXIH@Z ; dynamics_damage_model

; 811  : 
; 812  : 			set_hind_ekran_display_text ("HARDPOINT", "DAMAGED", NULL, NULL);

  00842	6a 00		 push	 0
  00844	6a 00		 push	 0
  00846	68 00 00 00 00	 push	 OFFSET ??_C@_07OHKEFPKJ@DAMAGED@
  0084b	68 00 00 00 00	 push	 OFFSET ??_C@_09GLFEIKAK@HARDPOINT@
  00850	e8 00 00 00 00	 call	 ?set_hind_ekran_display_text@@YGXPAD000@Z ; set_hind_ekran_display_text

; 813  : 
; 814  : 			play_client_server_warning_message (en, SPEECH_SYSTEM_HARDPOINT_DAMAGED);

  00855	6a 18		 push	 24			; 00000018H
  00857	8b 45 fc	 mov	 eax, DWORD PTR _en$[ebp]
  0085a	50		 push	 eax
  0085b	e8 00 00 00 00	 call	 ?play_client_server_warning_message@@YGHPAUENTITY@@H@Z ; play_client_server_warning_message
$LN43@damage_sys:

; 815  : 		}
; 816  : 	}
; 817  : 
; 818  : 	////////////////////////////////////////
; 819  : 
; 820  : 	if (damage.rh_outer_pylon)

  00860	8b 45 08	 mov	 eax, DWORD PTR _damage$[ebp]
  00863	c1 e8 1a	 shr	 eax, 26			; 0000001aH
  00866	83 e0 01	 and	 eax, 1
  00869	74 4b		 je	 SHORT $LN45@damage_sys

; 821  : 	{
; 822  : 		if (!hind_damage.rh_outer_pylon)

  0086b	a1 00 00 00 00	 mov	 eax, DWORD PTR ?hind_damage@@3THIND_DAMAGE_FLAGS@@A ; hind_damage
  00870	c1 e8 1a	 shr	 eax, 26			; 0000001aH
  00873	83 e0 01	 and	 eax, 1
  00876	75 3e		 jne	 SHORT $LN45@damage_sys

; 823  : 		{
; 824  : 			activate_hind_master_caution_lamp ();

  00878	e8 00 00 00 00	 call	 ?activate_hind_master_caution_lamp@@YGXXZ ; activate_hind_master_caution_lamp

; 825  : 
; 826  : 			hind_damage.rh_outer_pylon = TRUE;

  0087d	a1 00 00 00 00	 mov	 eax, DWORD PTR ?hind_damage@@3THIND_DAMAGE_FLAGS@@A ; hind_damage
  00882	0d 00 00 00 04	 or	 eax, 67108864		; 04000000H
  00887	a3 00 00 00 00	 mov	 DWORD PTR ?hind_damage@@3THIND_DAMAGE_FLAGS@@A, eax ; hind_damage

; 827  : 
; 828  : 			dynamics_damage_model (DYNAMICS_DAMAGE_AVIONICS, FALSE);

  0088c	6a 00		 push	 0
  0088e	68 00 10 00 00	 push	 4096			; 00001000H
  00893	e8 00 00 00 00	 call	 ?dynamics_damage_model@@YGXIH@Z ; dynamics_damage_model

; 829  : 
; 830  : 			set_hind_ekran_display_text ("HARDPOINT", "DAMAGED", NULL, NULL);

  00898	6a 00		 push	 0
  0089a	6a 00		 push	 0
  0089c	68 00 00 00 00	 push	 OFFSET ??_C@_07OHKEFPKJ@DAMAGED@
  008a1	68 00 00 00 00	 push	 OFFSET ??_C@_09GLFEIKAK@HARDPOINT@
  008a6	e8 00 00 00 00	 call	 ?set_hind_ekran_display_text@@YGXPAD000@Z ; set_hind_ekran_display_text

; 831  : 
; 832  : 			play_client_server_warning_message (en, SPEECH_SYSTEM_HARDPOINT_DAMAGED);

  008ab	6a 18		 push	 24			; 00000018H
  008ad	8b 45 fc	 mov	 eax, DWORD PTR _en$[ebp]
  008b0	50		 push	 eax
  008b1	e8 00 00 00 00	 call	 ?play_client_server_warning_message@@YGHPAUENTITY@@H@Z ; play_client_server_warning_message
$LN45@damage_sys:

; 833  : 		}
; 834  : 	}
; 835  : 
; 836  : 	////////////////////////////////////////
; 837  : 
; 838  : 	if (damage.rh_inner_pylon)

  008b6	8b 45 08	 mov	 eax, DWORD PTR _damage$[ebp]
  008b9	c1 e8 1b	 shr	 eax, 27			; 0000001bH
  008bc	83 e0 01	 and	 eax, 1
  008bf	74 4b		 je	 SHORT $LN47@damage_sys

; 839  : 	{
; 840  : 		if (!hind_damage.rh_inner_pylon)

  008c1	a1 00 00 00 00	 mov	 eax, DWORD PTR ?hind_damage@@3THIND_DAMAGE_FLAGS@@A ; hind_damage
  008c6	c1 e8 1b	 shr	 eax, 27			; 0000001bH
  008c9	83 e0 01	 and	 eax, 1
  008cc	75 3e		 jne	 SHORT $LN47@damage_sys

; 841  : 		{
; 842  : 			activate_hind_master_caution_lamp ();

  008ce	e8 00 00 00 00	 call	 ?activate_hind_master_caution_lamp@@YGXXZ ; activate_hind_master_caution_lamp

; 843  : 
; 844  : 			hind_damage.rh_inner_pylon = TRUE;

  008d3	a1 00 00 00 00	 mov	 eax, DWORD PTR ?hind_damage@@3THIND_DAMAGE_FLAGS@@A ; hind_damage
  008d8	0d 00 00 00 08	 or	 eax, 134217728		; 08000000H
  008dd	a3 00 00 00 00	 mov	 DWORD PTR ?hind_damage@@3THIND_DAMAGE_FLAGS@@A, eax ; hind_damage

; 845  : 
; 846  : 			dynamics_damage_model (DYNAMICS_DAMAGE_AVIONICS, FALSE);

  008e2	6a 00		 push	 0
  008e4	68 00 10 00 00	 push	 4096			; 00001000H
  008e9	e8 00 00 00 00	 call	 ?dynamics_damage_model@@YGXIH@Z ; dynamics_damage_model

; 847  : 
; 848  : 			set_hind_ekran_display_text ("HARDPOINT", "DAMAGED", NULL, NULL);

  008ee	6a 00		 push	 0
  008f0	6a 00		 push	 0
  008f2	68 00 00 00 00	 push	 OFFSET ??_C@_07OHKEFPKJ@DAMAGED@
  008f7	68 00 00 00 00	 push	 OFFSET ??_C@_09GLFEIKAK@HARDPOINT@
  008fc	e8 00 00 00 00	 call	 ?set_hind_ekran_display_text@@YGXPAD000@Z ; set_hind_ekran_display_text

; 849  : 
; 850  : 			play_client_server_warning_message (en, SPEECH_SYSTEM_HARDPOINT_DAMAGED);

  00901	6a 18		 push	 24			; 00000018H
  00903	8b 45 fc	 mov	 eax, DWORD PTR _en$[ebp]
  00906	50		 push	 eax
  00907	e8 00 00 00 00	 call	 ?play_client_server_warning_message@@YGHPAUENTITY@@H@Z ; play_client_server_warning_message
$LN47@damage_sys:

; 851  : 		}
; 852  : 	}
; 853  : 
; 854  : 	////////////////////////////////////////
; 855  : 
; 856  : 	if (damage.lhs_chaff_dispensers)

  0090c	8b 45 08	 mov	 eax, DWORD PTR _damage$[ebp]
  0090f	c1 e8 1c	 shr	 eax, 28			; 0000001cH
  00912	83 e0 01	 and	 eax, 1
  00915	74 4b		 je	 SHORT $LN49@damage_sys

; 857  : 	{
; 858  : 		if (!hind_damage.lhs_chaff_dispensers)

  00917	a1 00 00 00 00	 mov	 eax, DWORD PTR ?hind_damage@@3THIND_DAMAGE_FLAGS@@A ; hind_damage
  0091c	c1 e8 1c	 shr	 eax, 28			; 0000001cH
  0091f	83 e0 01	 and	 eax, 1
  00922	75 3e		 jne	 SHORT $LN49@damage_sys

; 859  : 		{
; 860  : 			activate_hind_master_caution_lamp ();

  00924	e8 00 00 00 00	 call	 ?activate_hind_master_caution_lamp@@YGXXZ ; activate_hind_master_caution_lamp

; 861  : 
; 862  : 			hind_damage.lhs_chaff_dispensers = TRUE;

  00929	a1 00 00 00 00	 mov	 eax, DWORD PTR ?hind_damage@@3THIND_DAMAGE_FLAGS@@A ; hind_damage
  0092e	0d 00 00 00 10	 or	 eax, 268435456		; 10000000H
  00933	a3 00 00 00 00	 mov	 DWORD PTR ?hind_damage@@3THIND_DAMAGE_FLAGS@@A, eax ; hind_damage

; 863  : 
; 864  : 			dynamics_damage_model (DYNAMICS_DAMAGE_AVIONICS, FALSE);

  00938	6a 00		 push	 0
  0093a	68 00 10 00 00	 push	 4096			; 00001000H
  0093f	e8 00 00 00 00	 call	 ?dynamics_damage_model@@YGXIH@Z ; dynamics_damage_model

; 865  : 
; 866  : 			set_hind_ekran_display_text ("CHAFF", "DAMAGED", NULL, NULL);

  00944	6a 00		 push	 0
  00946	6a 00		 push	 0
  00948	68 00 00 00 00	 push	 OFFSET ??_C@_07OHKEFPKJ@DAMAGED@
  0094d	68 00 00 00 00	 push	 OFFSET ??_C@_05FOOOBDLP@CHAFF@
  00952	e8 00 00 00 00	 call	 ?set_hind_ekran_display_text@@YGXPAD000@Z ; set_hind_ekran_display_text

; 867  : 
; 868  : 			play_client_server_warning_message (en, SPEECH_SYSTEM_CHAFF_DISPENSER_DAMAGED);

  00957	6a 19		 push	 25			; 00000019H
  00959	8b 45 fc	 mov	 eax, DWORD PTR _en$[ebp]
  0095c	50		 push	 eax
  0095d	e8 00 00 00 00	 call	 ?play_client_server_warning_message@@YGHPAUENTITY@@H@Z ; play_client_server_warning_message
$LN49@damage_sys:

; 869  : 		}
; 870  : 	}
; 871  : 
; 872  : 	////////////////////////////////////////
; 873  : 
; 874  : 	if (damage.lhs_flare_dispensers)

  00962	8b 45 08	 mov	 eax, DWORD PTR _damage$[ebp]
  00965	c1 e8 1e	 shr	 eax, 30			; 0000001eH
  00968	83 e0 01	 and	 eax, 1
  0096b	74 4b		 je	 SHORT $LN51@damage_sys

; 875  : 	{
; 876  : 		if (!hind_damage.lhs_flare_dispensers)

  0096d	a1 00 00 00 00	 mov	 eax, DWORD PTR ?hind_damage@@3THIND_DAMAGE_FLAGS@@A ; hind_damage
  00972	c1 e8 1e	 shr	 eax, 30			; 0000001eH
  00975	83 e0 01	 and	 eax, 1
  00978	75 3e		 jne	 SHORT $LN51@damage_sys

; 877  : 		{
; 878  : 			activate_hind_master_caution_lamp ();

  0097a	e8 00 00 00 00	 call	 ?activate_hind_master_caution_lamp@@YGXXZ ; activate_hind_master_caution_lamp

; 879  : 
; 880  : 			hind_damage.lhs_flare_dispensers = TRUE;

  0097f	a1 00 00 00 00	 mov	 eax, DWORD PTR ?hind_damage@@3THIND_DAMAGE_FLAGS@@A ; hind_damage
  00984	0d 00 00 00 40	 or	 eax, 1073741824		; 40000000H
  00989	a3 00 00 00 00	 mov	 DWORD PTR ?hind_damage@@3THIND_DAMAGE_FLAGS@@A, eax ; hind_damage

; 881  : 
; 882  : 			dynamics_damage_model (DYNAMICS_DAMAGE_AVIONICS, FALSE);

  0098e	6a 00		 push	 0
  00990	68 00 10 00 00	 push	 4096			; 00001000H
  00995	e8 00 00 00 00	 call	 ?dynamics_damage_model@@YGXIH@Z ; dynamics_damage_model

; 883  : 
; 884  : 			set_hind_ekran_display_text ("FLARES", "DAMAGED", NULL, NULL);

  0099a	6a 00		 push	 0
  0099c	6a 00		 push	 0
  0099e	68 00 00 00 00	 push	 OFFSET ??_C@_07OHKEFPKJ@DAMAGED@
  009a3	68 00 00 00 00	 push	 OFFSET ??_C@_06NOICFNLJ@FLARES@
  009a8	e8 00 00 00 00	 call	 ?set_hind_ekran_display_text@@YGXPAD000@Z ; set_hind_ekran_display_text

; 885  : 
; 886  : 			play_client_server_warning_message (en, SPEECH_SYSTEM_FLARE_DISPENSER_DAMAGED);

  009ad	6a 1a		 push	 26			; 0000001aH
  009af	8b 45 fc	 mov	 eax, DWORD PTR _en$[ebp]
  009b2	50		 push	 eax
  009b3	e8 00 00 00 00	 call	 ?play_client_server_warning_message@@YGHPAUENTITY@@H@Z ; play_client_server_warning_message
$LN51@damage_sys:

; 887  : 		}
; 888  : 	}
; 889  : 	////////////////////////////////////////
; 890  : 
; 891  : 	if (damage.rhs_chaff_dispensers)

  009b8	8b 45 08	 mov	 eax, DWORD PTR _damage$[ebp]
  009bb	c1 e8 1d	 shr	 eax, 29			; 0000001dH
  009be	83 e0 01	 and	 eax, 1
  009c1	74 4b		 je	 SHORT $LN53@damage_sys

; 892  : 	{
; 893  : 		if (!hind_damage.rhs_chaff_dispensers)

  009c3	a1 00 00 00 00	 mov	 eax, DWORD PTR ?hind_damage@@3THIND_DAMAGE_FLAGS@@A ; hind_damage
  009c8	c1 e8 1d	 shr	 eax, 29			; 0000001dH
  009cb	83 e0 01	 and	 eax, 1
  009ce	75 3e		 jne	 SHORT $LN53@damage_sys

; 894  : 		{
; 895  : 			activate_hind_master_caution_lamp ();

  009d0	e8 00 00 00 00	 call	 ?activate_hind_master_caution_lamp@@YGXXZ ; activate_hind_master_caution_lamp

; 896  : 
; 897  : 			hind_damage.rhs_chaff_dispensers = TRUE;

  009d5	a1 00 00 00 00	 mov	 eax, DWORD PTR ?hind_damage@@3THIND_DAMAGE_FLAGS@@A ; hind_damage
  009da	0d 00 00 00 20	 or	 eax, 536870912		; 20000000H
  009df	a3 00 00 00 00	 mov	 DWORD PTR ?hind_damage@@3THIND_DAMAGE_FLAGS@@A, eax ; hind_damage

; 898  : 
; 899  : 			dynamics_damage_model (DYNAMICS_DAMAGE_AVIONICS, FALSE);

  009e4	6a 00		 push	 0
  009e6	68 00 10 00 00	 push	 4096			; 00001000H
  009eb	e8 00 00 00 00	 call	 ?dynamics_damage_model@@YGXIH@Z ; dynamics_damage_model

; 900  : 
; 901  : 			set_hind_ekran_display_text ("CHAFF", "DAMAGED", NULL, NULL);

  009f0	6a 00		 push	 0
  009f2	6a 00		 push	 0
  009f4	68 00 00 00 00	 push	 OFFSET ??_C@_07OHKEFPKJ@DAMAGED@
  009f9	68 00 00 00 00	 push	 OFFSET ??_C@_05FOOOBDLP@CHAFF@
  009fe	e8 00 00 00 00	 call	 ?set_hind_ekran_display_text@@YGXPAD000@Z ; set_hind_ekran_display_text

; 902  : 
; 903  : 			play_client_server_warning_message (en, SPEECH_SYSTEM_CHAFF_DISPENSER_DAMAGED);

  00a03	6a 19		 push	 25			; 00000019H
  00a05	8b 45 fc	 mov	 eax, DWORD PTR _en$[ebp]
  00a08	50		 push	 eax
  00a09	e8 00 00 00 00	 call	 ?play_client_server_warning_message@@YGHPAUENTITY@@H@Z ; play_client_server_warning_message
$LN53@damage_sys:

; 904  : 		}
; 905  : 	}
; 906  : 
; 907  : 	////////////////////////////////////////
; 908  : 
; 909  : 	if (damage.rhs_flare_dispensers)

  00a0e	8b 45 08	 mov	 eax, DWORD PTR _damage$[ebp]
  00a11	c1 e8 1f	 shr	 eax, 31			; 0000001fH
  00a14	83 e0 01	 and	 eax, 1
  00a17	74 4b		 je	 SHORT $LN55@damage_sys

; 910  : 	{
; 911  : 		if (!hind_damage.rhs_flare_dispensers)

  00a19	a1 00 00 00 00	 mov	 eax, DWORD PTR ?hind_damage@@3THIND_DAMAGE_FLAGS@@A ; hind_damage
  00a1e	c1 e8 1f	 shr	 eax, 31			; 0000001fH
  00a21	83 e0 01	 and	 eax, 1
  00a24	75 3e		 jne	 SHORT $LN55@damage_sys

; 912  : 		{
; 913  : 			activate_hind_master_caution_lamp ();

  00a26	e8 00 00 00 00	 call	 ?activate_hind_master_caution_lamp@@YGXXZ ; activate_hind_master_caution_lamp

; 914  : 
; 915  : 			hind_damage.rhs_flare_dispensers = TRUE;

  00a2b	a1 00 00 00 00	 mov	 eax, DWORD PTR ?hind_damage@@3THIND_DAMAGE_FLAGS@@A ; hind_damage
  00a30	0d 00 00 00 80	 or	 eax, -2147483648	; 80000000H
  00a35	a3 00 00 00 00	 mov	 DWORD PTR ?hind_damage@@3THIND_DAMAGE_FLAGS@@A, eax ; hind_damage

; 916  : 
; 917  : 			dynamics_damage_model (DYNAMICS_DAMAGE_AVIONICS, FALSE);

  00a3a	6a 00		 push	 0
  00a3c	68 00 10 00 00	 push	 4096			; 00001000H
  00a41	e8 00 00 00 00	 call	 ?dynamics_damage_model@@YGXIH@Z ; dynamics_damage_model

; 918  : 
; 919  : 			set_hind_ekran_display_text ("FLARES", "DAMAGED", NULL, NULL);

  00a46	6a 00		 push	 0
  00a48	6a 00		 push	 0
  00a4a	68 00 00 00 00	 push	 OFFSET ??_C@_07OHKEFPKJ@DAMAGED@
  00a4f	68 00 00 00 00	 push	 OFFSET ??_C@_06NOICFNLJ@FLARES@
  00a54	e8 00 00 00 00	 call	 ?set_hind_ekran_display_text@@YGXPAD000@Z ; set_hind_ekran_display_text

; 920  : 
; 921  : 			play_client_server_warning_message (en, SPEECH_SYSTEM_FLARE_DISPENSER_DAMAGED);

  00a59	6a 1a		 push	 26			; 0000001aH
  00a5b	8b 45 fc	 mov	 eax, DWORD PTR _en$[ebp]
  00a5e	50		 push	 eax
  00a5f	e8 00 00 00 00	 call	 ?play_client_server_warning_message@@YGHPAUENTITY@@H@Z ; play_client_server_warning_message
$LN55@damage_sys:

; 922  : 		}
; 923  : 	}
; 924  : 	////////////////////////////////////////
; 925  : 
; 926  : 	set_hind_weapon_damage_status ();

  00a64	e8 00 00 00 00	 call	 ?set_hind_weapon_damage_status@@YGXXZ ; set_hind_weapon_damage_status

; 927  : }

  00a69	5f		 pop	 edi
  00a6a	5e		 pop	 esi
  00a6b	5b		 pop	 ebx
  00a6c	8b e5		 mov	 esp, ebp
  00a6e	5d		 pop	 ebp
  00a6f	c2 04 00	 ret	 4
?damage_systems@@YGXTHIND_DAMAGE_FLAGS@@@Z ENDP		; damage_systems
_TEXT	ENDS
; Function compile flags: /Odtp /ZI
; File c:\users\nhv90\projects\eech\aphavoc\source\gunships\avionics\hind\hi_dam.c
;	COMDAT ?notify_hind_avionics_of_dynamics_fault@@YGXI@Z
_TEXT	SEGMENT
_damage$ = 8						; size = 4
?notify_hind_avionics_of_dynamics_fault@@YGXI@Z PROC	; notify_hind_avionics_of_dynamics_fault, COMDAT

; 984  : {

  00000	55		 push	 ebp
  00001	8b ec		 mov	 ebp, esp
  00003	83 ec 40	 sub	 esp, 64			; 00000040H
  00006	53		 push	 ebx
  00007	56		 push	 esi
  00008	57		 push	 edi

; 985  : 	if (damage & DYNAMICS_DAMAGE_MAIN_ROTOR)

  00009	8b 45 08	 mov	 eax, DWORD PTR _damage$[ebp]
  0000c	83 e0 02	 and	 eax, 2
  0000f	74 18		 je	 SHORT $LN2@notify_hin

; 986  : 	{
; 987  : 		activate_hind_master_caution_lamp ();

  00011	e8 00 00 00 00	 call	 ?activate_hind_master_caution_lamp@@YGXXZ ; activate_hind_master_caution_lamp

; 988  : 
; 989  : 		set_hind_ekran_display_text ("MAIN RTR", "DAMAGED", NULL, NULL);

  00016	6a 00		 push	 0
  00018	6a 00		 push	 0
  0001a	68 00 00 00 00	 push	 OFFSET ??_C@_07OHKEFPKJ@DAMAGED@
  0001f	68 00 00 00 00	 push	 OFFSET ??_C@_08HECAMHFD@MAIN?5RTR@
  00024	e8 00 00 00 00	 call	 ?set_hind_ekran_display_text@@YGXPAD000@Z ; set_hind_ekran_display_text
$LN2@notify_hin:

; 990  : 	}
; 991  : 
; 992  : 	if (damage & DYNAMICS_DAMAGE_TAIL_ROTOR)

  00029	8b 45 08	 mov	 eax, DWORD PTR _damage$[ebp]
  0002c	83 e0 04	 and	 eax, 4
  0002f	74 18		 je	 SHORT $LN3@notify_hin

; 993  : 	{
; 994  : 		activate_hind_master_caution_lamp ();

  00031	e8 00 00 00 00	 call	 ?activate_hind_master_caution_lamp@@YGXXZ ; activate_hind_master_caution_lamp

; 995  : 
; 996  : 		set_hind_ekran_display_text ("TAIL RTR", "DAMAGED", NULL, NULL);

  00036	6a 00		 push	 0
  00038	6a 00		 push	 0
  0003a	68 00 00 00 00	 push	 OFFSET ??_C@_07OHKEFPKJ@DAMAGED@
  0003f	68 00 00 00 00	 push	 OFFSET ??_C@_08DJILJCHC@TAIL?5RTR@
  00044	e8 00 00 00 00	 call	 ?set_hind_ekran_display_text@@YGXPAD000@Z ; set_hind_ekran_display_text
$LN3@notify_hin:

; 997  : 	}
; 998  : 
; 999  : 	if (damage & DYNAMICS_DAMAGE_LEFT_ENGINE)

  00049	8b 45 08	 mov	 eax, DWORD PTR _damage$[ebp]
  0004c	83 e0 08	 and	 eax, 8
  0004f	74 18		 je	 SHORT $LN4@notify_hin

; 1000 : 	{
; 1001 : 		activate_hind_master_caution_lamp ();

  00051	e8 00 00 00 00	 call	 ?activate_hind_master_caution_lamp@@YGXXZ ; activate_hind_master_caution_lamp

; 1002 : 
; 1003 : 		set_hind_ekran_display_text ("ENGINE 1", "DAMAGED", NULL, NULL);

  00056	6a 00		 push	 0
  00058	6a 00		 push	 0
  0005a	68 00 00 00 00	 push	 OFFSET ??_C@_07OHKEFPKJ@DAMAGED@
  0005f	68 00 00 00 00	 push	 OFFSET ??_C@_08KNAGGCOA@ENGINE?51@
  00064	e8 00 00 00 00	 call	 ?set_hind_ekran_display_text@@YGXPAD000@Z ; set_hind_ekran_display_text
$LN4@notify_hin:

; 1004 : 	}
; 1005 : 
; 1006 : 	if (damage & DYNAMICS_DAMAGE_RIGHT_ENGINE)

  00069	8b 45 08	 mov	 eax, DWORD PTR _damage$[ebp]
  0006c	83 e0 10	 and	 eax, 16			; 00000010H
  0006f	74 18		 je	 SHORT $LN5@notify_hin

; 1007 : 	{
; 1008 : 		activate_hind_master_caution_lamp ();

  00071	e8 00 00 00 00	 call	 ?activate_hind_master_caution_lamp@@YGXXZ ; activate_hind_master_caution_lamp

; 1009 : 
; 1010 : 		set_hind_ekran_display_text ("ENGINE 2", "DAMAGED", NULL, NULL);

  00076	6a 00		 push	 0
  00078	6a 00		 push	 0
  0007a	68 00 00 00 00	 push	 OFFSET ??_C@_07OHKEFPKJ@DAMAGED@
  0007f	68 00 00 00 00	 push	 OFFSET ??_C@_08IGCLDBCD@ENGINE?52@
  00084	e8 00 00 00 00	 call	 ?set_hind_ekran_display_text@@YGXPAD000@Z ; set_hind_ekran_display_text
$LN5@notify_hin:

; 1011 : 	}
; 1012 : 
; 1013 : 	if (damage & DYNAMICS_DAMAGE_LEFT_ENGINE_FIRE)

  00089	8b 45 08	 mov	 eax, DWORD PTR _damage$[ebp]
  0008c	83 e0 20	 and	 eax, 32			; 00000020H
  0008f	74 18		 je	 SHORT $LN6@notify_hin

; 1014 : 	{
; 1015 : 		activate_hind_master_caution_lamp ();

  00091	e8 00 00 00 00	 call	 ?activate_hind_master_caution_lamp@@YGXXZ ; activate_hind_master_caution_lamp

; 1016 : 
; 1017 : 		set_hind_ekran_display_text ("ENGINE 1", "FIRE", NULL, NULL);

  00096	6a 00		 push	 0
  00098	6a 00		 push	 0
  0009a	68 00 00 00 00	 push	 OFFSET ??_C@_04OKEEPDCC@FIRE@
  0009f	68 00 00 00 00	 push	 OFFSET ??_C@_08KNAGGCOA@ENGINE?51@
  000a4	e8 00 00 00 00	 call	 ?set_hind_ekran_display_text@@YGXPAD000@Z ; set_hind_ekran_display_text
$LN6@notify_hin:

; 1018 : 	}
; 1019 : 
; 1020 : 	if (damage & DYNAMICS_DAMAGE_RIGHT_ENGINE_FIRE)

  000a9	8b 45 08	 mov	 eax, DWORD PTR _damage$[ebp]
  000ac	83 e0 40	 and	 eax, 64			; 00000040H
  000af	74 18		 je	 SHORT $LN7@notify_hin

; 1021 : 	{
; 1022 : 		activate_hind_master_caution_lamp ();

  000b1	e8 00 00 00 00	 call	 ?activate_hind_master_caution_lamp@@YGXXZ ; activate_hind_master_caution_lamp

; 1023 : 
; 1024 : 		set_hind_ekran_display_text ("ENGINE 2", "FIRE", NULL, NULL);

  000b6	6a 00		 push	 0
  000b8	6a 00		 push	 0
  000ba	68 00 00 00 00	 push	 OFFSET ??_C@_04OKEEPDCC@FIRE@
  000bf	68 00 00 00 00	 push	 OFFSET ??_C@_08IGCLDBCD@ENGINE?52@
  000c4	e8 00 00 00 00	 call	 ?set_hind_ekran_display_text@@YGXPAD000@Z ; set_hind_ekran_display_text
$LN7@notify_hin:

; 1025 : 	}
; 1026 : 
; 1027 : 	if (damage & DYNAMICS_DAMAGE_LOW_HYDRAULICS)

  000c9	8b 45 08	 mov	 eax, DWORD PTR _damage$[ebp]
  000cc	25 80 00 00 00	 and	 eax, 128		; 00000080H
  000d1	74 18		 je	 SHORT $LN8@notify_hin

; 1028 : 	{
; 1029 : 		activate_hind_master_caution_lamp ();

  000d3	e8 00 00 00 00	 call	 ?activate_hind_master_caution_lamp@@YGXXZ ; activate_hind_master_caution_lamp

; 1030 : 
; 1031 : 		set_hind_ekran_display_text ("LOW HYDRA", "PRESSURE", NULL, NULL);

  000d8	6a 00		 push	 0
  000da	6a 00		 push	 0
  000dc	68 00 00 00 00	 push	 OFFSET ??_C@_08IBNIHFAO@PRESSURE@
  000e1	68 00 00 00 00	 push	 OFFSET ??_C@_09ENKCBBHJ@LOW?5HYDRA@
  000e6	e8 00 00 00 00	 call	 ?set_hind_ekran_display_text@@YGXPAD000@Z ; set_hind_ekran_display_text
$LN8@notify_hin:

; 1032 : 	}
; 1033 : 
; 1034 : 	if (damage & DYNAMICS_DAMAGE_SECONDARY_HYDRAULICS)

  000eb	8b 45 08	 mov	 eax, DWORD PTR _damage$[ebp]
  000ee	25 00 00 02 00	 and	 eax, 131072		; 00020000H
  000f3	74 18		 je	 SHORT $LN9@notify_hin

; 1035 : 	{
; 1036 : 		activate_hind_master_caution_lamp ();

  000f5	e8 00 00 00 00	 call	 ?activate_hind_master_caution_lamp@@YGXXZ ; activate_hind_master_caution_lamp

; 1037 : 
; 1038 : 		set_hind_ekran_display_text ("SEC HYDR", "FAILURE", NULL, NULL);

  000fa	6a 00		 push	 0
  000fc	6a 00		 push	 0
  000fe	68 00 00 00 00	 push	 OFFSET ??_C@_07DMOCMFND@FAILURE@
  00103	68 00 00 00 00	 push	 OFFSET ??_C@_08GAIDHJND@SEC?5HYDR@
  00108	e8 00 00 00 00	 call	 ?set_hind_ekran_display_text@@YGXPAD000@Z ; set_hind_ekran_display_text
$LN9@notify_hin:

; 1039 : 	}
; 1040 : 
; 1041 : 	if (damage & DYNAMICS_DAMAGE_STABILISER)

  0010d	8b 45 08	 mov	 eax, DWORD PTR _damage$[ebp]
  00110	25 00 01 00 00	 and	 eax, 256		; 00000100H
  00115	74 18		 je	 SHORT $LN10@notify_hin

; 1042 : 	{
; 1043 : 		activate_hind_master_caution_lamp ();

  00117	e8 00 00 00 00	 call	 ?activate_hind_master_caution_lamp@@YGXXZ ; activate_hind_master_caution_lamp

; 1044 : 
; 1045 : 		set_hind_ekran_display_text ("STABILISR", "FAILURE", NULL, NULL);

  0011c	6a 00		 push	 0
  0011e	6a 00		 push	 0
  00120	68 00 00 00 00	 push	 OFFSET ??_C@_07DMOCMFND@FAILURE@
  00125	68 00 00 00 00	 push	 OFFSET ??_C@_09OCHEEKPP@STABILISR@
  0012a	e8 00 00 00 00	 call	 ?set_hind_ekran_display_text@@YGXPAD000@Z ; set_hind_ekran_display_text
$LN10@notify_hin:

; 1046 : 	}
; 1047 : 
; 1048 : 	if (damage & DYNAMICS_DAMAGE_FUEL_LEAK)

  0012f	8b 45 08	 mov	 eax, DWORD PTR _damage$[ebp]
  00132	25 00 02 00 00	 and	 eax, 512		; 00000200H
  00137	74 18		 je	 SHORT $LN11@notify_hin

; 1049 : 	{
; 1050 : 		activate_hind_master_caution_lamp ();

  00139	e8 00 00 00 00	 call	 ?activate_hind_master_caution_lamp@@YGXXZ ; activate_hind_master_caution_lamp

; 1051 : 
; 1052 : 		set_hind_ekran_display_text ("FUEL LEAK", "", NULL, NULL);

  0013e	6a 00		 push	 0
  00140	6a 00		 push	 0
  00142	68 00 00 00 00	 push	 OFFSET ??_C@_00CNPNBAHC@@
  00147	68 00 00 00 00	 push	 OFFSET ??_C@_09BHCFOJL@FUEL?5LEAK@
  0014c	e8 00 00 00 00	 call	 ?set_hind_ekran_display_text@@YGXPAD000@Z ; set_hind_ekran_display_text
$LN11@notify_hin:

; 1053 : 	}
; 1054 : 
; 1055 : 	if (damage & DYNAMICS_DAMAGE_LOW_OIL_PRESSURE)

  00151	8b 45 08	 mov	 eax, DWORD PTR _damage$[ebp]
  00154	25 00 04 00 00	 and	 eax, 1024		; 00000400H
  00159	74 18		 je	 SHORT $LN12@notify_hin

; 1056 : 	{
; 1057 : 		activate_hind_master_caution_lamp ();

  0015b	e8 00 00 00 00	 call	 ?activate_hind_master_caution_lamp@@YGXXZ ; activate_hind_master_caution_lamp

; 1058 : 
; 1059 : 		set_hind_ekran_display_text ("LOW OIL", "PRESSURE", NULL, NULL);

  00160	6a 00		 push	 0
  00162	6a 00		 push	 0
  00164	68 00 00 00 00	 push	 OFFSET ??_C@_08IBNIHFAO@PRESSURE@
  00169	68 00 00 00 00	 push	 OFFSET ??_C@_07GGBGBLMC@LOW?5OIL@
  0016e	e8 00 00 00 00	 call	 ?set_hind_ekran_display_text@@YGXPAD000@Z ; set_hind_ekran_display_text
$LN12@notify_hin:

; 1060 : 	}
; 1061 : 
; 1062 : 	if (damage & DYNAMICS_DAMAGE_HIGH_OIL_PRESSURE)

  00173	8b 45 08	 mov	 eax, DWORD PTR _damage$[ebp]
  00176	25 00 08 00 00	 and	 eax, 2048		; 00000800H
  0017b	74 18		 je	 SHORT $LN1@notify_hin

; 1063 : 	{
; 1064 : 		activate_hind_master_caution_lamp ();

  0017d	e8 00 00 00 00	 call	 ?activate_hind_master_caution_lamp@@YGXXZ ; activate_hind_master_caution_lamp

; 1065 : 
; 1066 : 		set_hind_ekran_display_text ("HIGH OIL", "PRESSURE", NULL, NULL);

  00182	6a 00		 push	 0
  00184	6a 00		 push	 0
  00186	68 00 00 00 00	 push	 OFFSET ??_C@_08IBNIHFAO@PRESSURE@
  0018b	68 00 00 00 00	 push	 OFFSET ??_C@_08JPIIBFH@HIGH?5OIL@
  00190	e8 00 00 00 00	 call	 ?set_hind_ekran_display_text@@YGXPAD000@Z ; set_hind_ekran_display_text
$LN1@notify_hin:

; 1067 : 	}
; 1068 : }

  00195	5f		 pop	 edi
  00196	5e		 pop	 esi
  00197	5b		 pop	 ebx
  00198	8b e5		 mov	 esp, ebp
  0019a	5d		 pop	 ebp
  0019b	c2 04 00	 ret	 4
?notify_hind_avionics_of_dynamics_fault@@YGXI@Z ENDP	; notify_hind_avionics_of_dynamics_fault
_TEXT	ENDS
; Function compile flags: /Odtp /ZI
; File c:\users\nhv90\projects\eech\aphavoc\source\gunships\avionics\hind\hi_dam.c
;	COMDAT ?damage_hind@@YGXW4GUNSHIP_DAMAGE_LEVELS@@@Z
_TEXT	SEGMENT
tv64 = -76						; size = 4
_hind_damage$ = -8					; size = 4
_damage$ = -4						; size = 4
_damage_level$ = 8					; size = 4
?damage_hind@@YGXW4GUNSHIP_DAMAGE_LEVELS@@@Z PROC	; damage_hind, COMDAT

; 934  : {

  00000	55		 push	 ebp
  00001	8b ec		 mov	 ebp, esp
  00003	83 ec 4c	 sub	 esp, 76			; 0000004cH
  00006	53		 push	 ebx
  00007	56		 push	 esi
  00008	57		 push	 edi

; 935  : 	unsigned int
; 936  : 		damage;
; 937  : 
; 938  : 	hind_damage_flags
; 939  : 		hind_damage;
; 940  : 
; 941  : 	damage = 0;

  00009	c7 45 fc 00 00
	00 00		 mov	 DWORD PTR _damage$[ebp], 0

; 942  : 
; 943  : 	switch (damage_level)

  00010	8b 45 08	 mov	 eax, DWORD PTR _damage_level$[ebp]
  00013	89 45 b4	 mov	 DWORD PTR tv64[ebp], eax
  00016	83 7d b4 00	 cmp	 DWORD PTR tv64[ebp], 0
  0001a	74 15		 je	 SHORT $LN4@damage_hin
  0001c	83 7d b4 01	 cmp	 DWORD PTR tv64[ebp], 1
  00020	74 47		 je	 SHORT $LN5@damage_hin
  00022	83 7d b4 02	 cmp	 DWORD PTR tv64[ebp], 2
  00026	0f 84 a8 00 00
	00		 je	 $LN6@damage_hin
  0002c	e9 3e 01 00 00	 jmp	 $LN7@damage_hin
$LN4@damage_hin:

; 944  : 	{
; 945  : 		case GUNSHIP_DAMAGE_LEVEL_LIGHT:
; 946  : 		{
; 947  : 			damage |= 1 << (rand16 () & 0x1f);

  00031	69 05 00 00 00
	00 6d 4e c6 41	 imul	 eax, DWORD PTR ?random_number_seed@@3HA, 1103515245 ; random_number_seed
  0003b	05 39 30 00 00	 add	 eax, 12345		; 00003039H
  00040	a3 00 00 00 00	 mov	 DWORD PTR ?random_number_seed@@3HA, eax ; random_number_seed
  00045	8b 0d 00 00 00
	00		 mov	 ecx, DWORD PTR ?random_number_seed@@3HA ; random_number_seed
  0004b	c1 f9 10	 sar	 ecx, 16			; 00000010H
  0004e	81 e1 ff 7f 00
	00		 and	 ecx, 32767		; 00007fffH
  00054	83 e1 1f	 and	 ecx, 31			; 0000001fH
  00057	ba 01 00 00 00	 mov	 edx, 1
  0005c	d3 e2		 shl	 edx, cl
  0005e	0b 55 fc	 or	 edx, DWORD PTR _damage$[ebp]
  00061	89 55 fc	 mov	 DWORD PTR _damage$[ebp], edx

; 948  : 
; 949  : 			break;

  00064	e9 17 01 00 00	 jmp	 $LN2@damage_hin
$LN5@damage_hin:

; 950  : 		}
; 951  : 		case GUNSHIP_DAMAGE_LEVEL_MEDIUM:
; 952  : 		{
; 953  : 			damage |= 1 << (rand16 () & 0x1f);

  00069	69 05 00 00 00
	00 6d 4e c6 41	 imul	 eax, DWORD PTR ?random_number_seed@@3HA, 1103515245 ; random_number_seed
  00073	05 39 30 00 00	 add	 eax, 12345		; 00003039H
  00078	a3 00 00 00 00	 mov	 DWORD PTR ?random_number_seed@@3HA, eax ; random_number_seed
  0007d	8b 0d 00 00 00
	00		 mov	 ecx, DWORD PTR ?random_number_seed@@3HA ; random_number_seed
  00083	c1 f9 10	 sar	 ecx, 16			; 00000010H
  00086	81 e1 ff 7f 00
	00		 and	 ecx, 32767		; 00007fffH
  0008c	83 e1 1f	 and	 ecx, 31			; 0000001fH
  0008f	ba 01 00 00 00	 mov	 edx, 1
  00094	d3 e2		 shl	 edx, cl
  00096	0b 55 fc	 or	 edx, DWORD PTR _damage$[ebp]
  00099	89 55 fc	 mov	 DWORD PTR _damage$[ebp], edx

; 954  : 			damage |= 1 << (rand16 () & 0x1f);

  0009c	69 05 00 00 00
	00 6d 4e c6 41	 imul	 eax, DWORD PTR ?random_number_seed@@3HA, 1103515245 ; random_number_seed
  000a6	05 39 30 00 00	 add	 eax, 12345		; 00003039H
  000ab	a3 00 00 00 00	 mov	 DWORD PTR ?random_number_seed@@3HA, eax ; random_number_seed
  000b0	8b 0d 00 00 00
	00		 mov	 ecx, DWORD PTR ?random_number_seed@@3HA ; random_number_seed
  000b6	c1 f9 10	 sar	 ecx, 16			; 00000010H
  000b9	81 e1 ff 7f 00
	00		 and	 ecx, 32767		; 00007fffH
  000bf	83 e1 1f	 and	 ecx, 31			; 0000001fH
  000c2	ba 01 00 00 00	 mov	 edx, 1
  000c7	d3 e2		 shl	 edx, cl
  000c9	0b 55 fc	 or	 edx, DWORD PTR _damage$[ebp]
  000cc	89 55 fc	 mov	 DWORD PTR _damage$[ebp], edx

; 955  : 
; 956  : 			break;

  000cf	e9 ac 00 00 00	 jmp	 $LN2@damage_hin
$LN6@damage_hin:

; 957  : 		}
; 958  : 		case GUNSHIP_DAMAGE_LEVEL_HEAVY:
; 959  : 		{
; 960  : 			damage |= 1 << (rand16 () & 0x1f);

  000d4	69 05 00 00 00
	00 6d 4e c6 41	 imul	 eax, DWORD PTR ?random_number_seed@@3HA, 1103515245 ; random_number_seed
  000de	05 39 30 00 00	 add	 eax, 12345		; 00003039H
  000e3	a3 00 00 00 00	 mov	 DWORD PTR ?random_number_seed@@3HA, eax ; random_number_seed
  000e8	8b 0d 00 00 00
	00		 mov	 ecx, DWORD PTR ?random_number_seed@@3HA ; random_number_seed
  000ee	c1 f9 10	 sar	 ecx, 16			; 00000010H
  000f1	81 e1 ff 7f 00
	00		 and	 ecx, 32767		; 00007fffH
  000f7	83 e1 1f	 and	 ecx, 31			; 0000001fH
  000fa	ba 01 00 00 00	 mov	 edx, 1
  000ff	d3 e2		 shl	 edx, cl
  00101	0b 55 fc	 or	 edx, DWORD PTR _damage$[ebp]
  00104	89 55 fc	 mov	 DWORD PTR _damage$[ebp], edx

; 961  : 			damage |= 1 << (rand16 () & 0x1f);

  00107	69 05 00 00 00
	00 6d 4e c6 41	 imul	 eax, DWORD PTR ?random_number_seed@@3HA, 1103515245 ; random_number_seed
  00111	05 39 30 00 00	 add	 eax, 12345		; 00003039H
  00116	a3 00 00 00 00	 mov	 DWORD PTR ?random_number_seed@@3HA, eax ; random_number_seed
  0011b	8b 0d 00 00 00
	00		 mov	 ecx, DWORD PTR ?random_number_seed@@3HA ; random_number_seed
  00121	c1 f9 10	 sar	 ecx, 16			; 00000010H
  00124	81 e1 ff 7f 00
	00		 and	 ecx, 32767		; 00007fffH
  0012a	83 e1 1f	 and	 ecx, 31			; 0000001fH
  0012d	ba 01 00 00 00	 mov	 edx, 1
  00132	d3 e2		 shl	 edx, cl
  00134	0b 55 fc	 or	 edx, DWORD PTR _damage$[ebp]
  00137	89 55 fc	 mov	 DWORD PTR _damage$[ebp], edx

; 962  : 			damage |= 1 << (rand16 () & 0x1f);

  0013a	69 05 00 00 00
	00 6d 4e c6 41	 imul	 eax, DWORD PTR ?random_number_seed@@3HA, 1103515245 ; random_number_seed
  00144	05 39 30 00 00	 add	 eax, 12345		; 00003039H
  00149	a3 00 00 00 00	 mov	 DWORD PTR ?random_number_seed@@3HA, eax ; random_number_seed
  0014e	8b 0d 00 00 00
	00		 mov	 ecx, DWORD PTR ?random_number_seed@@3HA ; random_number_seed
  00154	c1 f9 10	 sar	 ecx, 16			; 00000010H
  00157	81 e1 ff 7f 00
	00		 and	 ecx, 32767		; 00007fffH
  0015d	83 e1 1f	 and	 ecx, 31			; 0000001fH
  00160	ba 01 00 00 00	 mov	 edx, 1
  00165	d3 e2		 shl	 edx, cl
  00167	0b 55 fc	 or	 edx, DWORD PTR _damage$[ebp]
  0016a	89 55 fc	 mov	 DWORD PTR _damage$[ebp], edx

; 963  : 
; 964  : 			break;

  0016d	eb 11		 jmp	 SHORT $LN2@damage_hin
$LN7@damage_hin:

; 965  : 		}
; 966  : 		default:
; 967  : 		{
; 968  : 			debug_fatal ("Invalid damage_level = %d", damage_level);

  0016f	8b 45 08	 mov	 eax, DWORD PTR _damage_level$[ebp]
  00172	50		 push	 eax
  00173	68 00 00 00 00	 push	 OFFSET ??_C@_0BK@EECAIEOA@Invalid?5damage_level?5?$DN?5?$CFd@
  00178	e8 00 00 00 00	 call	 ?debug_fatal@@YAXPBDZZ	; debug_fatal
  0017d	83 c4 08	 add	 esp, 8
$LN2@damage_hin:

; 969  : 
; 970  : 			break;
; 971  : 		}
; 972  : 	}
; 973  : 
; 974  : 	hind_damage.flags = damage;

  00180	8b 45 fc	 mov	 eax, DWORD PTR _damage$[ebp]
  00183	89 45 f8	 mov	 DWORD PTR _hind_damage$[ebp], eax

; 975  : 
; 976  : 	damage_systems (hind_damage);

  00186	8b 45 f8	 mov	 eax, DWORD PTR _hind_damage$[ebp]
  00189	50		 push	 eax
  0018a	e8 00 00 00 00	 call	 ?damage_systems@@YGXTHIND_DAMAGE_FLAGS@@@Z ; damage_systems

; 977  : }

  0018f	5f		 pop	 edi
  00190	5e		 pop	 esi
  00191	5b		 pop	 ebx
  00192	8b e5		 mov	 esp, ebp
  00194	5d		 pop	 ebp
  00195	c2 04 00	 ret	 4
?damage_hind@@YGXW4GUNSHIP_DAMAGE_LEVELS@@@Z ENDP	; damage_hind
_TEXT	ENDS
; Function compile flags: /Odtp /ZI
; File c:\users\nhv90\projects\eech\aphavoc\source\gunships\avionics\hind\hi_dam.c
;	COMDAT ?repair_hind_weapon_damage@@YGXXZ
_TEXT	SEGMENT
?repair_hind_weapon_damage@@YGXXZ PROC			; repair_hind_weapon_damage, COMDAT

; 441  : {

  00000	55		 push	 ebp
  00001	8b ec		 mov	 ebp, esp
  00003	83 ec 40	 sub	 esp, 64			; 00000040H
  00006	53		 push	 ebx
  00007	56		 push	 esi
  00008	57		 push	 edi

; 442  : 	set_hind_ekran_display_text ("", "", NULL, NULL);

  00009	6a 00		 push	 0
  0000b	6a 00		 push	 0
  0000d	68 00 00 00 00	 push	 OFFSET ??_C@_00CNPNBAHC@@
  00012	68 00 00 00 00	 push	 OFFSET ??_C@_00CNPNBAHC@@
  00017	e8 00 00 00 00	 call	 ?set_hind_ekran_display_text@@YGXPAD000@Z ; set_hind_ekran_display_text

; 443  : 
; 444  : 	hind_damage.gun_jammed		= FALSE;

  0001c	a1 00 00 00 00	 mov	 eax, DWORD PTR ?hind_damage@@3THIND_DAMAGE_FLAGS@@A ; hind_damage
  00021	25 ff ff df ff	 and	 eax, -2097153		; ffdfffffH
  00026	a3 00 00 00 00	 mov	 DWORD PTR ?hind_damage@@3THIND_DAMAGE_FLAGS@@A, eax ; hind_damage

; 445  : 	hind_damage.lh_wing_tip_mount	= FALSE;

  0002b	a1 00 00 00 00	 mov	 eax, DWORD PTR ?hind_damage@@3THIND_DAMAGE_FLAGS@@A ; hind_damage
  00030	25 ff ff bf ff	 and	 eax, -4194305		; ffbfffffH
  00035	a3 00 00 00 00	 mov	 DWORD PTR ?hind_damage@@3THIND_DAMAGE_FLAGS@@A, eax ; hind_damage

; 446  : 	hind_damage.lh_outer_pylon	= FALSE;

  0003a	a1 00 00 00 00	 mov	 eax, DWORD PTR ?hind_damage@@3THIND_DAMAGE_FLAGS@@A ; hind_damage
  0003f	25 ff ff 7f ff	 and	 eax, -8388609		; ff7fffffH
  00044	a3 00 00 00 00	 mov	 DWORD PTR ?hind_damage@@3THIND_DAMAGE_FLAGS@@A, eax ; hind_damage

; 447  : 	hind_damage.lh_inner_pylon	= FALSE;

  00049	a1 00 00 00 00	 mov	 eax, DWORD PTR ?hind_damage@@3THIND_DAMAGE_FLAGS@@A ; hind_damage
  0004e	25 ff ff ff fe	 and	 eax, -16777217		; feffffffH
  00053	a3 00 00 00 00	 mov	 DWORD PTR ?hind_damage@@3THIND_DAMAGE_FLAGS@@A, eax ; hind_damage

; 448  : 	hind_damage.rh_wing_tip_mount	= FALSE;

  00058	a1 00 00 00 00	 mov	 eax, DWORD PTR ?hind_damage@@3THIND_DAMAGE_FLAGS@@A ; hind_damage
  0005d	25 ff ff ff fd	 and	 eax, -33554433		; fdffffffH
  00062	a3 00 00 00 00	 mov	 DWORD PTR ?hind_damage@@3THIND_DAMAGE_FLAGS@@A, eax ; hind_damage

; 449  : 	hind_damage.rh_outer_pylon	= FALSE;

  00067	a1 00 00 00 00	 mov	 eax, DWORD PTR ?hind_damage@@3THIND_DAMAGE_FLAGS@@A ; hind_damage
  0006c	25 ff ff ff fb	 and	 eax, -67108865		; fbffffffH
  00071	a3 00 00 00 00	 mov	 DWORD PTR ?hind_damage@@3THIND_DAMAGE_FLAGS@@A, eax ; hind_damage

; 450  : 	hind_damage.rh_inner_pylon	= FALSE;

  00076	a1 00 00 00 00	 mov	 eax, DWORD PTR ?hind_damage@@3THIND_DAMAGE_FLAGS@@A ; hind_damage
  0007b	25 ff ff ff f7	 and	 eax, -134217729		; f7ffffffH
  00080	a3 00 00 00 00	 mov	 DWORD PTR ?hind_damage@@3THIND_DAMAGE_FLAGS@@A, eax ; hind_damage

; 451  : 	hind_damage.lhs_chaff_dispensers	= FALSE;

  00085	a1 00 00 00 00	 mov	 eax, DWORD PTR ?hind_damage@@3THIND_DAMAGE_FLAGS@@A ; hind_damage
  0008a	25 ff ff ff ef	 and	 eax, -268435457		; efffffffH
  0008f	a3 00 00 00 00	 mov	 DWORD PTR ?hind_damage@@3THIND_DAMAGE_FLAGS@@A, eax ; hind_damage

; 452  : 	hind_damage.lhs_flare_dispensers	= FALSE;

  00094	a1 00 00 00 00	 mov	 eax, DWORD PTR ?hind_damage@@3THIND_DAMAGE_FLAGS@@A ; hind_damage
  00099	25 ff ff ff bf	 and	 eax, -1073741825	; bfffffffH
  0009e	a3 00 00 00 00	 mov	 DWORD PTR ?hind_damage@@3THIND_DAMAGE_FLAGS@@A, eax ; hind_damage

; 453  : 	hind_damage.rhs_chaff_dispensers	= FALSE;

  000a3	a1 00 00 00 00	 mov	 eax, DWORD PTR ?hind_damage@@3THIND_DAMAGE_FLAGS@@A ; hind_damage
  000a8	25 ff ff ff df	 and	 eax, -536870913		; dfffffffH
  000ad	a3 00 00 00 00	 mov	 DWORD PTR ?hind_damage@@3THIND_DAMAGE_FLAGS@@A, eax ; hind_damage

; 454  : 	hind_damage.rhs_flare_dispensers	= FALSE;

  000b2	a1 00 00 00 00	 mov	 eax, DWORD PTR ?hind_damage@@3THIND_DAMAGE_FLAGS@@A ; hind_damage
  000b7	25 ff ff ff 7f	 and	 eax, 2147483647		; 7fffffffH
  000bc	a3 00 00 00 00	 mov	 DWORD PTR ?hind_damage@@3THIND_DAMAGE_FLAGS@@A, eax ; hind_damage

; 455  : 
; 456  : 	set_hind_weapon_damage_status ();

  000c1	e8 00 00 00 00	 call	 ?set_hind_weapon_damage_status@@YGXXZ ; set_hind_weapon_damage_status

; 457  : }

  000c6	5f		 pop	 edi
  000c7	5e		 pop	 esi
  000c8	5b		 pop	 ebx
  000c9	8b e5		 mov	 esp, ebp
  000cb	5d		 pop	 ebp
  000cc	c3		 ret	 0
?repair_hind_weapon_damage@@YGXXZ ENDP			; repair_hind_weapon_damage
_TEXT	ENDS
; Function compile flags: /Odtp /ZI
; File c:\users\nhv90\projects\eech\aphavoc\source\gunships\avionics\hind\hi_dam.c
;	COMDAT ?partially_repair_hind_damage@@YGXXZ
_TEXT	SEGMENT
tv468 = -68						; size = 4
tv453 = -68						; size = 4
tv438 = -68						; size = 4
tv423 = -68						; size = 4
tv408 = -68						; size = 4
tv393 = -68						; size = 4
tv378 = -68						; size = 4
tv363 = -68						; size = 4
tv348 = -68						; size = 4
tv333 = -68						; size = 4
tv318 = -68						; size = 4
tv303 = -68						; size = 4
tv288 = -68						; size = 4
tv273 = -68						; size = 4
tv258 = -68						; size = 4
tv243 = -68						; size = 4
tv228 = -68						; size = 4
tv213 = -68						; size = 4
tv198 = -68						; size = 4
tv183 = -68						; size = 4
tv168 = -68						; size = 4
tv153 = -68						; size = 4
tv138 = -68						; size = 4
tv91 = -68						; size = 4
tv77 = -68						; size = 4
?partially_repair_hind_damage@@YGXXZ PROC		; partially_repair_hind_damage, COMDAT

; 253  : {

  00000	55		 push	 ebp
  00001	8b ec		 mov	 ebp, esp
  00003	83 ec 44	 sub	 esp, 68			; 00000044H
  00006	53		 push	 ebx
  00007	56		 push	 esi
  00008	57		 push	 edi

; 254  : 	set_hind_ekran_display_text ("", "", NULL, NULL);

  00009	6a 00		 push	 0
  0000b	6a 00		 push	 0
  0000d	68 00 00 00 00	 push	 OFFSET ??_C@_00CNPNBAHC@@
  00012	68 00 00 00 00	 push	 OFFSET ??_C@_00CNPNBAHC@@
  00017	e8 00 00 00 00	 call	 ?set_hind_ekran_display_text@@YGXPAD000@Z ; set_hind_ekran_display_text

; 255  : 
; 256  : 	fire_extinguisher_used = FALSE;

  0001c	c7 05 00 00 00
	00 00 00 00 00	 mov	 DWORD PTR ?fire_extinguisher_used@@3HA, 0 ; fire_extinguisher_used

; 257  : 
; 258  : 	////////////////////////////////////////
; 259  : 
; 260  : 	if (hind_damage.radar)

  00026	a1 00 00 00 00	 mov	 eax, DWORD PTR ?hind_damage@@3THIND_DAMAGE_FLAGS@@A ; hind_damage
  0002b	83 e0 01	 and	 eax, 1
  0002e	74 5e		 je	 SHORT $LN2@partially_

; 261  : 	{
; 262  : 		hind_damage.radar = frand1 () > 0.90;

  00030	69 05 00 00 00
	00 6d 4e c6 41	 imul	 eax, DWORD PTR ?random_number_seed@@3HA, 1103515245 ; random_number_seed
  0003a	05 39 30 00 00	 add	 eax, 12345		; 00003039H
  0003f	a3 00 00 00 00	 mov	 DWORD PTR ?random_number_seed@@3HA, eax ; random_number_seed
  00044	8b 0d 00 00 00
	00		 mov	 ecx, DWORD PTR ?random_number_seed@@3HA ; random_number_seed
  0004a	c1 f9 10	 sar	 ecx, 16			; 00000010H
  0004d	81 e1 ff 7f 00
	00		 and	 ecx, 32767		; 00007fffH
  00053	f2 0f 2a c1	 cvtsi2sd xmm0, ecx
  00057	f2 0f 59 05 00
	00 00 00	 mulsd	 xmm0, QWORD PTR __real@3f00002000400080
  0005f	66 0f 2f 05 00
	00 00 00	 comisd	 xmm0, QWORD PTR __real@3feccccccccccccd
  00067	76 09		 jbe	 SHORT $LN28@partially_
  00069	c7 45 bc 01 00
	00 00		 mov	 DWORD PTR tv77[ebp], 1
  00070	eb 07		 jmp	 SHORT $LN29@partially_
$LN28@partially_:
  00072	c7 45 bc 00 00
	00 00		 mov	 DWORD PTR tv77[ebp], 0
$LN29@partially_:
  00079	8b 55 bc	 mov	 edx, DWORD PTR tv77[ebp]
  0007c	83 e2 01	 and	 edx, 1
  0007f	a1 00 00 00 00	 mov	 eax, DWORD PTR ?hind_damage@@3THIND_DAMAGE_FLAGS@@A ; hind_damage
  00084	83 e0 fe	 and	 eax, -2			; fffffffeH
  00087	0b c2		 or	 eax, edx
  00089	a3 00 00 00 00	 mov	 DWORD PTR ?hind_damage@@3THIND_DAMAGE_FLAGS@@A, eax ; hind_damage
$LN2@partially_:

; 263  : 	}
; 264  : 
; 265  : 	////////////////////////////////////////
; 266  : 
; 267  : 	if (hind_damage.flir)

  0008e	a1 00 00 00 00	 mov	 eax, DWORD PTR ?hind_damage@@3THIND_DAMAGE_FLAGS@@A ; hind_damage
  00093	d1 e8		 shr	 eax, 1
  00095	83 e0 01	 and	 eax, 1
  00098	74 60		 je	 SHORT $LN3@partially_

; 268  : 	{
; 269  : 		hind_damage.flir = frand1 () > 0.90;

  0009a	69 05 00 00 00
	00 6d 4e c6 41	 imul	 eax, DWORD PTR ?random_number_seed@@3HA, 1103515245 ; random_number_seed
  000a4	05 39 30 00 00	 add	 eax, 12345		; 00003039H
  000a9	a3 00 00 00 00	 mov	 DWORD PTR ?random_number_seed@@3HA, eax ; random_number_seed
  000ae	8b 0d 00 00 00
	00		 mov	 ecx, DWORD PTR ?random_number_seed@@3HA ; random_number_seed
  000b4	c1 f9 10	 sar	 ecx, 16			; 00000010H
  000b7	81 e1 ff 7f 00
	00		 and	 ecx, 32767		; 00007fffH
  000bd	f2 0f 2a c1	 cvtsi2sd xmm0, ecx
  000c1	f2 0f 59 05 00
	00 00 00	 mulsd	 xmm0, QWORD PTR __real@3f00002000400080
  000c9	66 0f 2f 05 00
	00 00 00	 comisd	 xmm0, QWORD PTR __real@3feccccccccccccd
  000d1	76 09		 jbe	 SHORT $LN30@partially_
  000d3	c7 45 bc 01 00
	00 00		 mov	 DWORD PTR tv91[ebp], 1
  000da	eb 07		 jmp	 SHORT $LN31@partially_
$LN30@partially_:
  000dc	c7 45 bc 00 00
	00 00		 mov	 DWORD PTR tv91[ebp], 0
$LN31@partially_:
  000e3	8b 55 bc	 mov	 edx, DWORD PTR tv91[ebp]
  000e6	83 e2 01	 and	 edx, 1
  000e9	d1 e2		 shl	 edx, 1
  000eb	a1 00 00 00 00	 mov	 eax, DWORD PTR ?hind_damage@@3THIND_DAMAGE_FLAGS@@A ; hind_damage
  000f0	83 e0 fd	 and	 eax, -3			; fffffffdH
  000f3	0b c2		 or	 eax, edx
  000f5	a3 00 00 00 00	 mov	 DWORD PTR ?hind_damage@@3THIND_DAMAGE_FLAGS@@A, eax ; hind_damage
$LN3@partially_:

; 270  : 	}
; 271  : 
; 272  : 	////////////////////////////////////////
; 273  : 
; 274  : 	if (hind_damage.llltv)

  000fa	a1 00 00 00 00	 mov	 eax, DWORD PTR ?hind_damage@@3THIND_DAMAGE_FLAGS@@A ; hind_damage
  000ff	c1 e8 03	 shr	 eax, 3
  00102	83 e0 01	 and	 eax, 1
  00105	74 61		 je	 SHORT $LN4@partially_

; 275  : 	{
; 276  : 		hind_damage.llltv = frand1 () > 0.90;

  00107	69 05 00 00 00
	00 6d 4e c6 41	 imul	 eax, DWORD PTR ?random_number_seed@@3HA, 1103515245 ; random_number_seed
  00111	05 39 30 00 00	 add	 eax, 12345		; 00003039H
  00116	a3 00 00 00 00	 mov	 DWORD PTR ?random_number_seed@@3HA, eax ; random_number_seed
  0011b	8b 0d 00 00 00
	00		 mov	 ecx, DWORD PTR ?random_number_seed@@3HA ; random_number_seed
  00121	c1 f9 10	 sar	 ecx, 16			; 00000010H
  00124	81 e1 ff 7f 00
	00		 and	 ecx, 32767		; 00007fffH
  0012a	f2 0f 2a c1	 cvtsi2sd xmm0, ecx
  0012e	f2 0f 59 05 00
	00 00 00	 mulsd	 xmm0, QWORD PTR __real@3f00002000400080
  00136	66 0f 2f 05 00
	00 00 00	 comisd	 xmm0, QWORD PTR __real@3feccccccccccccd
  0013e	76 09		 jbe	 SHORT $LN32@partially_
  00140	c7 45 bc 01 00
	00 00		 mov	 DWORD PTR tv138[ebp], 1
  00147	eb 07		 jmp	 SHORT $LN33@partially_
$LN32@partially_:
  00149	c7 45 bc 00 00
	00 00		 mov	 DWORD PTR tv138[ebp], 0
$LN33@partially_:
  00150	8b 55 bc	 mov	 edx, DWORD PTR tv138[ebp]
  00153	83 e2 01	 and	 edx, 1
  00156	c1 e2 03	 shl	 edx, 3
  00159	a1 00 00 00 00	 mov	 eax, DWORD PTR ?hind_damage@@3THIND_DAMAGE_FLAGS@@A ; hind_damage
  0015e	83 e0 f7	 and	 eax, -9			; fffffff7H
  00161	0b c2		 or	 eax, edx
  00163	a3 00 00 00 00	 mov	 DWORD PTR ?hind_damage@@3THIND_DAMAGE_FLAGS@@A, eax ; hind_damage
$LN4@partially_:

; 277  : 	}
; 278  : 
; 279  : 	////////////////////////////////////////
; 280  : 
; 281  : 	if (hind_damage.laser_range_finder)

  00168	a1 00 00 00 00	 mov	 eax, DWORD PTR ?hind_damage@@3THIND_DAMAGE_FLAGS@@A ; hind_damage
  0016d	c1 e8 04	 shr	 eax, 4
  00170	83 e0 01	 and	 eax, 1
  00173	74 61		 je	 SHORT $LN5@partially_

; 282  : 	{
; 283  : 		hind_damage.laser_range_finder = frand1 () > 0.90;

  00175	69 05 00 00 00
	00 6d 4e c6 41	 imul	 eax, DWORD PTR ?random_number_seed@@3HA, 1103515245 ; random_number_seed
  0017f	05 39 30 00 00	 add	 eax, 12345		; 00003039H
  00184	a3 00 00 00 00	 mov	 DWORD PTR ?random_number_seed@@3HA, eax ; random_number_seed
  00189	8b 0d 00 00 00
	00		 mov	 ecx, DWORD PTR ?random_number_seed@@3HA ; random_number_seed
  0018f	c1 f9 10	 sar	 ecx, 16			; 00000010H
  00192	81 e1 ff 7f 00
	00		 and	 ecx, 32767		; 00007fffH
  00198	f2 0f 2a c1	 cvtsi2sd xmm0, ecx
  0019c	f2 0f 59 05 00
	00 00 00	 mulsd	 xmm0, QWORD PTR __real@3f00002000400080
  001a4	66 0f 2f 05 00
	00 00 00	 comisd	 xmm0, QWORD PTR __real@3feccccccccccccd
  001ac	76 09		 jbe	 SHORT $LN34@partially_
  001ae	c7 45 bc 01 00
	00 00		 mov	 DWORD PTR tv153[ebp], 1
  001b5	eb 07		 jmp	 SHORT $LN35@partially_
$LN34@partially_:
  001b7	c7 45 bc 00 00
	00 00		 mov	 DWORD PTR tv153[ebp], 0
$LN35@partially_:
  001be	8b 55 bc	 mov	 edx, DWORD PTR tv153[ebp]
  001c1	83 e2 01	 and	 edx, 1
  001c4	c1 e2 04	 shl	 edx, 4
  001c7	a1 00 00 00 00	 mov	 eax, DWORD PTR ?hind_damage@@3THIND_DAMAGE_FLAGS@@A ; hind_damage
  001cc	83 e0 ef	 and	 eax, -17		; ffffffefH
  001cf	0b c2		 or	 eax, edx
  001d1	a3 00 00 00 00	 mov	 DWORD PTR ?hind_damage@@3THIND_DAMAGE_FLAGS@@A, eax ; hind_damage
$LN5@partially_:

; 284  : 	}
; 285  : 
; 286  : 	////////////////////////////////////////
; 287  : 
; 288  : 	if (hind_damage.radar_jammer)

  001d6	a1 00 00 00 00	 mov	 eax, DWORD PTR ?hind_damage@@3THIND_DAMAGE_FLAGS@@A ; hind_damage
  001db	c1 e8 06	 shr	 eax, 6
  001de	83 e0 01	 and	 eax, 1
  001e1	74 61		 je	 SHORT $LN6@partially_

; 289  : 	{
; 290  : 		hind_damage.radar_jammer = frand1 () > 0.90;

  001e3	69 05 00 00 00
	00 6d 4e c6 41	 imul	 eax, DWORD PTR ?random_number_seed@@3HA, 1103515245 ; random_number_seed
  001ed	05 39 30 00 00	 add	 eax, 12345		; 00003039H
  001f2	a3 00 00 00 00	 mov	 DWORD PTR ?random_number_seed@@3HA, eax ; random_number_seed
  001f7	8b 0d 00 00 00
	00		 mov	 ecx, DWORD PTR ?random_number_seed@@3HA ; random_number_seed
  001fd	c1 f9 10	 sar	 ecx, 16			; 00000010H
  00200	81 e1 ff 7f 00
	00		 and	 ecx, 32767		; 00007fffH
  00206	f2 0f 2a c1	 cvtsi2sd xmm0, ecx
  0020a	f2 0f 59 05 00
	00 00 00	 mulsd	 xmm0, QWORD PTR __real@3f00002000400080
  00212	66 0f 2f 05 00
	00 00 00	 comisd	 xmm0, QWORD PTR __real@3feccccccccccccd
  0021a	76 09		 jbe	 SHORT $LN36@partially_
  0021c	c7 45 bc 01 00
	00 00		 mov	 DWORD PTR tv168[ebp], 1
  00223	eb 07		 jmp	 SHORT $LN37@partially_
$LN36@partially_:
  00225	c7 45 bc 00 00
	00 00		 mov	 DWORD PTR tv168[ebp], 0
$LN37@partially_:
  0022c	8b 55 bc	 mov	 edx, DWORD PTR tv168[ebp]
  0022f	83 e2 01	 and	 edx, 1
  00232	c1 e2 06	 shl	 edx, 6
  00235	a1 00 00 00 00	 mov	 eax, DWORD PTR ?hind_damage@@3THIND_DAMAGE_FLAGS@@A ; hind_damage
  0023a	83 e0 bf	 and	 eax, -65		; ffffffbfH
  0023d	0b c2		 or	 eax, edx
  0023f	a3 00 00 00 00	 mov	 DWORD PTR ?hind_damage@@3THIND_DAMAGE_FLAGS@@A, eax ; hind_damage
$LN6@partially_:

; 291  : 	}
; 292  : 
; 293  : 	////////////////////////////////////////
; 294  : 
; 295  : 	if (hind_damage.infra_red_jammer)

  00244	a1 00 00 00 00	 mov	 eax, DWORD PTR ?hind_damage@@3THIND_DAMAGE_FLAGS@@A ; hind_damage
  00249	c1 e8 07	 shr	 eax, 7
  0024c	83 e0 01	 and	 eax, 1
  0024f	74 63		 je	 SHORT $LN7@partially_

; 296  : 	{
; 297  : 		hind_damage.infra_red_jammer = frand1 () > 0.90;

  00251	69 05 00 00 00
	00 6d 4e c6 41	 imul	 eax, DWORD PTR ?random_number_seed@@3HA, 1103515245 ; random_number_seed
  0025b	05 39 30 00 00	 add	 eax, 12345		; 00003039H
  00260	a3 00 00 00 00	 mov	 DWORD PTR ?random_number_seed@@3HA, eax ; random_number_seed
  00265	8b 0d 00 00 00
	00		 mov	 ecx, DWORD PTR ?random_number_seed@@3HA ; random_number_seed
  0026b	c1 f9 10	 sar	 ecx, 16			; 00000010H
  0026e	81 e1 ff 7f 00
	00		 and	 ecx, 32767		; 00007fffH
  00274	f2 0f 2a c1	 cvtsi2sd xmm0, ecx
  00278	f2 0f 59 05 00
	00 00 00	 mulsd	 xmm0, QWORD PTR __real@3f00002000400080
  00280	66 0f 2f 05 00
	00 00 00	 comisd	 xmm0, QWORD PTR __real@3feccccccccccccd
  00288	76 09		 jbe	 SHORT $LN38@partially_
  0028a	c7 45 bc 01 00
	00 00		 mov	 DWORD PTR tv183[ebp], 1
  00291	eb 07		 jmp	 SHORT $LN39@partially_
$LN38@partially_:
  00293	c7 45 bc 00 00
	00 00		 mov	 DWORD PTR tv183[ebp], 0
$LN39@partially_:
  0029a	8b 55 bc	 mov	 edx, DWORD PTR tv183[ebp]
  0029d	83 e2 01	 and	 edx, 1
  002a0	c1 e2 07	 shl	 edx, 7
  002a3	a1 00 00 00 00	 mov	 eax, DWORD PTR ?hind_damage@@3THIND_DAMAGE_FLAGS@@A ; hind_damage
  002a8	25 7f ff ff ff	 and	 eax, -129		; ffffff7fH
  002ad	0b c2		 or	 eax, edx
  002af	a3 00 00 00 00	 mov	 DWORD PTR ?hind_damage@@3THIND_DAMAGE_FLAGS@@A, eax ; hind_damage
$LN7@partially_:

; 298  : 	}
; 299  : 
; 300  : 	////////////////////////////////////////
; 301  : 
; 302  : 	if (hind_damage.navigation_computer)

  002b4	a1 00 00 00 00	 mov	 eax, DWORD PTR ?hind_damage@@3THIND_DAMAGE_FLAGS@@A ; hind_damage
  002b9	c1 e8 09	 shr	 eax, 9
  002bc	83 e0 01	 and	 eax, 1
  002bf	74 63		 je	 SHORT $LN8@partially_

; 303  : 	{
; 304  : 		hind_damage.navigation_computer = frand1 () > 0.90;

  002c1	69 05 00 00 00
	00 6d 4e c6 41	 imul	 eax, DWORD PTR ?random_number_seed@@3HA, 1103515245 ; random_number_seed
  002cb	05 39 30 00 00	 add	 eax, 12345		; 00003039H
  002d0	a3 00 00 00 00	 mov	 DWORD PTR ?random_number_seed@@3HA, eax ; random_number_seed
  002d5	8b 0d 00 00 00
	00		 mov	 ecx, DWORD PTR ?random_number_seed@@3HA ; random_number_seed
  002db	c1 f9 10	 sar	 ecx, 16			; 00000010H
  002de	81 e1 ff 7f 00
	00		 and	 ecx, 32767		; 00007fffH
  002e4	f2 0f 2a c1	 cvtsi2sd xmm0, ecx
  002e8	f2 0f 59 05 00
	00 00 00	 mulsd	 xmm0, QWORD PTR __real@3f00002000400080
  002f0	66 0f 2f 05 00
	00 00 00	 comisd	 xmm0, QWORD PTR __real@3feccccccccccccd
  002f8	76 09		 jbe	 SHORT $LN40@partially_
  002fa	c7 45 bc 01 00
	00 00		 mov	 DWORD PTR tv198[ebp], 1
  00301	eb 07		 jmp	 SHORT $LN41@partially_
$LN40@partially_:
  00303	c7 45 bc 00 00
	00 00		 mov	 DWORD PTR tv198[ebp], 0
$LN41@partially_:
  0030a	8b 55 bc	 mov	 edx, DWORD PTR tv198[ebp]
  0030d	83 e2 01	 and	 edx, 1
  00310	c1 e2 09	 shl	 edx, 9
  00313	a1 00 00 00 00	 mov	 eax, DWORD PTR ?hind_damage@@3THIND_DAMAGE_FLAGS@@A ; hind_damage
  00318	25 ff fd ff ff	 and	 eax, -513		; fffffdffH
  0031d	0b c2		 or	 eax, edx
  0031f	a3 00 00 00 00	 mov	 DWORD PTR ?hind_damage@@3THIND_DAMAGE_FLAGS@@A, eax ; hind_damage
$LN8@partially_:

; 305  : 	}
; 306  : 
; 307  : 	////////////////////////////////////////
; 308  : 
; 309  : 	if (hind_damage.communications)

  00324	a1 00 00 00 00	 mov	 eax, DWORD PTR ?hind_damage@@3THIND_DAMAGE_FLAGS@@A ; hind_damage
  00329	c1 e8 0b	 shr	 eax, 11			; 0000000bH
  0032c	83 e0 01	 and	 eax, 1
  0032f	74 63		 je	 SHORT $LN9@partially_

; 310  : 	{
; 311  : 		hind_damage.communications = frand1 () > 0.90;

  00331	69 05 00 00 00
	00 6d 4e c6 41	 imul	 eax, DWORD PTR ?random_number_seed@@3HA, 1103515245 ; random_number_seed
  0033b	05 39 30 00 00	 add	 eax, 12345		; 00003039H
  00340	a3 00 00 00 00	 mov	 DWORD PTR ?random_number_seed@@3HA, eax ; random_number_seed
  00345	8b 0d 00 00 00
	00		 mov	 ecx, DWORD PTR ?random_number_seed@@3HA ; random_number_seed
  0034b	c1 f9 10	 sar	 ecx, 16			; 00000010H
  0034e	81 e1 ff 7f 00
	00		 and	 ecx, 32767		; 00007fffH
  00354	f2 0f 2a c1	 cvtsi2sd xmm0, ecx
  00358	f2 0f 59 05 00
	00 00 00	 mulsd	 xmm0, QWORD PTR __real@3f00002000400080
  00360	66 0f 2f 05 00
	00 00 00	 comisd	 xmm0, QWORD PTR __real@3feccccccccccccd
  00368	76 09		 jbe	 SHORT $LN42@partially_
  0036a	c7 45 bc 01 00
	00 00		 mov	 DWORD PTR tv213[ebp], 1
  00371	eb 07		 jmp	 SHORT $LN43@partially_
$LN42@partially_:
  00373	c7 45 bc 00 00
	00 00		 mov	 DWORD PTR tv213[ebp], 0
$LN43@partially_:
  0037a	8b 55 bc	 mov	 edx, DWORD PTR tv213[ebp]
  0037d	83 e2 01	 and	 edx, 1
  00380	c1 e2 0b	 shl	 edx, 11			; 0000000bH
  00383	a1 00 00 00 00	 mov	 eax, DWORD PTR ?hind_damage@@3THIND_DAMAGE_FLAGS@@A ; hind_damage
  00388	25 ff f7 ff ff	 and	 eax, -2049		; fffff7ffH
  0038d	0b c2		 or	 eax, edx
  0038f	a3 00 00 00 00	 mov	 DWORD PTR ?hind_damage@@3THIND_DAMAGE_FLAGS@@A, eax ; hind_damage
$LN9@partially_:

; 312  : 	}
; 313  : 
; 314  : 	////////////////////////////////////////
; 315  : 
; 316  : 	if (hind_damage.radar_warning_system)

  00394	a1 00 00 00 00	 mov	 eax, DWORD PTR ?hind_damage@@3THIND_DAMAGE_FLAGS@@A ; hind_damage
  00399	c1 e8 0d	 shr	 eax, 13			; 0000000dH
  0039c	83 e0 01	 and	 eax, 1
  0039f	74 63		 je	 SHORT $LN10@partially_

; 317  : 	{
; 318  : 		hind_damage.radar_warning_system = frand1 () > 0.90;

  003a1	69 05 00 00 00
	00 6d 4e c6 41	 imul	 eax, DWORD PTR ?random_number_seed@@3HA, 1103515245 ; random_number_seed
  003ab	05 39 30 00 00	 add	 eax, 12345		; 00003039H
  003b0	a3 00 00 00 00	 mov	 DWORD PTR ?random_number_seed@@3HA, eax ; random_number_seed
  003b5	8b 0d 00 00 00
	00		 mov	 ecx, DWORD PTR ?random_number_seed@@3HA ; random_number_seed
  003bb	c1 f9 10	 sar	 ecx, 16			; 00000010H
  003be	81 e1 ff 7f 00
	00		 and	 ecx, 32767		; 00007fffH
  003c4	f2 0f 2a c1	 cvtsi2sd xmm0, ecx
  003c8	f2 0f 59 05 00
	00 00 00	 mulsd	 xmm0, QWORD PTR __real@3f00002000400080
  003d0	66 0f 2f 05 00
	00 00 00	 comisd	 xmm0, QWORD PTR __real@3feccccccccccccd
  003d8	76 09		 jbe	 SHORT $LN44@partially_
  003da	c7 45 bc 01 00
	00 00		 mov	 DWORD PTR tv228[ebp], 1
  003e1	eb 07		 jmp	 SHORT $LN45@partially_
$LN44@partially_:
  003e3	c7 45 bc 00 00
	00 00		 mov	 DWORD PTR tv228[ebp], 0
$LN45@partially_:
  003ea	8b 55 bc	 mov	 edx, DWORD PTR tv228[ebp]
  003ed	83 e2 01	 and	 edx, 1
  003f0	c1 e2 0d	 shl	 edx, 13			; 0000000dH
  003f3	a1 00 00 00 00	 mov	 eax, DWORD PTR ?hind_damage@@3THIND_DAMAGE_FLAGS@@A ; hind_damage
  003f8	25 ff df ff ff	 and	 eax, -8193		; ffffdfffH
  003fd	0b c2		 or	 eax, edx
  003ff	a3 00 00 00 00	 mov	 DWORD PTR ?hind_damage@@3THIND_DAMAGE_FLAGS@@A, eax ; hind_damage
$LN10@partially_:

; 319  : 	}
; 320  : 
; 321  : 	////////////////////////////////////////
; 322  : 
; 323  : 	if (hind_damage.head_up_display)

  00404	a1 00 00 00 00	 mov	 eax, DWORD PTR ?hind_damage@@3THIND_DAMAGE_FLAGS@@A ; hind_damage
  00409	c1 e8 0f	 shr	 eax, 15			; 0000000fH
  0040c	83 e0 01	 and	 eax, 1
  0040f	74 63		 je	 SHORT $LN11@partially_

; 324  : 	{
; 325  : 		hind_damage.head_up_display = frand1 () > 0.90;

  00411	69 05 00 00 00
	00 6d 4e c6 41	 imul	 eax, DWORD PTR ?random_number_seed@@3HA, 1103515245 ; random_number_seed
  0041b	05 39 30 00 00	 add	 eax, 12345		; 00003039H
  00420	a3 00 00 00 00	 mov	 DWORD PTR ?random_number_seed@@3HA, eax ; random_number_seed
  00425	8b 0d 00 00 00
	00		 mov	 ecx, DWORD PTR ?random_number_seed@@3HA ; random_number_seed
  0042b	c1 f9 10	 sar	 ecx, 16			; 00000010H
  0042e	81 e1 ff 7f 00
	00		 and	 ecx, 32767		; 00007fffH
  00434	f2 0f 2a c1	 cvtsi2sd xmm0, ecx
  00438	f2 0f 59 05 00
	00 00 00	 mulsd	 xmm0, QWORD PTR __real@3f00002000400080
  00440	66 0f 2f 05 00
	00 00 00	 comisd	 xmm0, QWORD PTR __real@3feccccccccccccd
  00448	76 09		 jbe	 SHORT $LN46@partially_
  0044a	c7 45 bc 01 00
	00 00		 mov	 DWORD PTR tv243[ebp], 1
  00451	eb 07		 jmp	 SHORT $LN47@partially_
$LN46@partially_:
  00453	c7 45 bc 00 00
	00 00		 mov	 DWORD PTR tv243[ebp], 0
$LN47@partially_:
  0045a	8b 55 bc	 mov	 edx, DWORD PTR tv243[ebp]
  0045d	83 e2 01	 and	 edx, 1
  00460	c1 e2 0f	 shl	 edx, 15			; 0000000fH
  00463	a1 00 00 00 00	 mov	 eax, DWORD PTR ?hind_damage@@3THIND_DAMAGE_FLAGS@@A ; hind_damage
  00468	25 ff 7f ff ff	 and	 eax, -32769		; ffff7fffH
  0046d	0b c2		 or	 eax, edx
  0046f	a3 00 00 00 00	 mov	 DWORD PTR ?hind_damage@@3THIND_DAMAGE_FLAGS@@A, eax ; hind_damage
$LN11@partially_:

; 326  : 	}
; 327  : 
; 328  : 	////////////////////////////////////////
; 329  : 
; 330  : 	if (hind_damage.helmet_mounted_sight)

  00474	a1 00 00 00 00	 mov	 eax, DWORD PTR ?hind_damage@@3THIND_DAMAGE_FLAGS@@A ; hind_damage
  00479	c1 e8 11	 shr	 eax, 17			; 00000011H
  0047c	83 e0 01	 and	 eax, 1
  0047f	74 63		 je	 SHORT $LN12@partially_

; 331  : 	{
; 332  : 		hind_damage.helmet_mounted_sight = frand1 () > 0.90;

  00481	69 05 00 00 00
	00 6d 4e c6 41	 imul	 eax, DWORD PTR ?random_number_seed@@3HA, 1103515245 ; random_number_seed
  0048b	05 39 30 00 00	 add	 eax, 12345		; 00003039H
  00490	a3 00 00 00 00	 mov	 DWORD PTR ?random_number_seed@@3HA, eax ; random_number_seed
  00495	8b 0d 00 00 00
	00		 mov	 ecx, DWORD PTR ?random_number_seed@@3HA ; random_number_seed
  0049b	c1 f9 10	 sar	 ecx, 16			; 00000010H
  0049e	81 e1 ff 7f 00
	00		 and	 ecx, 32767		; 00007fffH
  004a4	f2 0f 2a c1	 cvtsi2sd xmm0, ecx
  004a8	f2 0f 59 05 00
	00 00 00	 mulsd	 xmm0, QWORD PTR __real@3f00002000400080
  004b0	66 0f 2f 05 00
	00 00 00	 comisd	 xmm0, QWORD PTR __real@3feccccccccccccd
  004b8	76 09		 jbe	 SHORT $LN48@partially_
  004ba	c7 45 bc 01 00
	00 00		 mov	 DWORD PTR tv258[ebp], 1
  004c1	eb 07		 jmp	 SHORT $LN49@partially_
$LN48@partially_:
  004c3	c7 45 bc 00 00
	00 00		 mov	 DWORD PTR tv258[ebp], 0
$LN49@partially_:
  004ca	8b 55 bc	 mov	 edx, DWORD PTR tv258[ebp]
  004cd	83 e2 01	 and	 edx, 1
  004d0	c1 e2 11	 shl	 edx, 17			; 00000011H
  004d3	a1 00 00 00 00	 mov	 eax, DWORD PTR ?hind_damage@@3THIND_DAMAGE_FLAGS@@A ; hind_damage
  004d8	25 ff ff fd ff	 and	 eax, -131073		; fffdffffH
  004dd	0b c2		 or	 eax, edx
  004df	a3 00 00 00 00	 mov	 DWORD PTR ?hind_damage@@3THIND_DAMAGE_FLAGS@@A, eax ; hind_damage
$LN12@partially_:

; 333  : 	}
; 334  : 
; 335  : 	////////////////////////////////////////
; 336  : 
; 337  : 	if (hind_damage.tv_display)

  004e4	a1 00 00 00 00	 mov	 eax, DWORD PTR ?hind_damage@@3THIND_DAMAGE_FLAGS@@A ; hind_damage
  004e9	c1 e8 12	 shr	 eax, 18			; 00000012H
  004ec	83 e0 01	 and	 eax, 1
  004ef	74 63		 je	 SHORT $LN13@partially_

; 338  : 	{
; 339  : 		hind_damage.tv_display = frand1 () > 0.90;

  004f1	69 05 00 00 00
	00 6d 4e c6 41	 imul	 eax, DWORD PTR ?random_number_seed@@3HA, 1103515245 ; random_number_seed
  004fb	05 39 30 00 00	 add	 eax, 12345		; 00003039H
  00500	a3 00 00 00 00	 mov	 DWORD PTR ?random_number_seed@@3HA, eax ; random_number_seed
  00505	8b 0d 00 00 00
	00		 mov	 ecx, DWORD PTR ?random_number_seed@@3HA ; random_number_seed
  0050b	c1 f9 10	 sar	 ecx, 16			; 00000010H
  0050e	81 e1 ff 7f 00
	00		 and	 ecx, 32767		; 00007fffH
  00514	f2 0f 2a c1	 cvtsi2sd xmm0, ecx
  00518	f2 0f 59 05 00
	00 00 00	 mulsd	 xmm0, QWORD PTR __real@3f00002000400080
  00520	66 0f 2f 05 00
	00 00 00	 comisd	 xmm0, QWORD PTR __real@3feccccccccccccd
  00528	76 09		 jbe	 SHORT $LN50@partially_
  0052a	c7 45 bc 01 00
	00 00		 mov	 DWORD PTR tv273[ebp], 1
  00531	eb 07		 jmp	 SHORT $LN51@partially_
$LN50@partially_:
  00533	c7 45 bc 00 00
	00 00		 mov	 DWORD PTR tv273[ebp], 0
$LN51@partially_:
  0053a	8b 55 bc	 mov	 edx, DWORD PTR tv273[ebp]
  0053d	83 e2 01	 and	 edx, 1
  00540	c1 e2 12	 shl	 edx, 18			; 00000012H
  00543	a1 00 00 00 00	 mov	 eax, DWORD PTR ?hind_damage@@3THIND_DAMAGE_FLAGS@@A ; hind_damage
  00548	25 ff ff fb ff	 and	 eax, -262145		; fffbffffH
  0054d	0b c2		 or	 eax, edx
  0054f	a3 00 00 00 00	 mov	 DWORD PTR ?hind_damage@@3THIND_DAMAGE_FLAGS@@A, eax ; hind_damage
$LN13@partially_:

; 340  : 	}
; 341  : 
; 342  : 	////////////////////////////////////////
; 343  : 
; 344  : 	if (hind_damage.threat_warning_display)

  00554	a1 00 00 00 00	 mov	 eax, DWORD PTR ?hind_damage@@3THIND_DAMAGE_FLAGS@@A ; hind_damage
  00559	c1 e8 13	 shr	 eax, 19			; 00000013H
  0055c	83 e0 01	 and	 eax, 1
  0055f	74 63		 je	 SHORT $LN14@partially_

; 345  : 	{
; 346  : 		hind_damage.threat_warning_display = frand1 () > 0.90;

  00561	69 05 00 00 00
	00 6d 4e c6 41	 imul	 eax, DWORD PTR ?random_number_seed@@3HA, 1103515245 ; random_number_seed
  0056b	05 39 30 00 00	 add	 eax, 12345		; 00003039H
  00570	a3 00 00 00 00	 mov	 DWORD PTR ?random_number_seed@@3HA, eax ; random_number_seed
  00575	8b 0d 00 00 00
	00		 mov	 ecx, DWORD PTR ?random_number_seed@@3HA ; random_number_seed
  0057b	c1 f9 10	 sar	 ecx, 16			; 00000010H
  0057e	81 e1 ff 7f 00
	00		 and	 ecx, 32767		; 00007fffH
  00584	f2 0f 2a c1	 cvtsi2sd xmm0, ecx
  00588	f2 0f 59 05 00
	00 00 00	 mulsd	 xmm0, QWORD PTR __real@3f00002000400080
  00590	66 0f 2f 05 00
	00 00 00	 comisd	 xmm0, QWORD PTR __real@3feccccccccccccd
  00598	76 09		 jbe	 SHORT $LN52@partially_
  0059a	c7 45 bc 01 00
	00 00		 mov	 DWORD PTR tv288[ebp], 1
  005a1	eb 07		 jmp	 SHORT $LN53@partially_
$LN52@partially_:
  005a3	c7 45 bc 00 00
	00 00		 mov	 DWORD PTR tv288[ebp], 0
$LN53@partially_:
  005aa	8b 55 bc	 mov	 edx, DWORD PTR tv288[ebp]
  005ad	83 e2 01	 and	 edx, 1
  005b0	c1 e2 13	 shl	 edx, 19			; 00000013H
  005b3	a1 00 00 00 00	 mov	 eax, DWORD PTR ?hind_damage@@3THIND_DAMAGE_FLAGS@@A ; hind_damage
  005b8	25 ff ff f7 ff	 and	 eax, -524289		; fff7ffffH
  005bd	0b c2		 or	 eax, edx
  005bf	a3 00 00 00 00	 mov	 DWORD PTR ?hind_damage@@3THIND_DAMAGE_FLAGS@@A, eax ; hind_damage
$LN14@partially_:

; 347  : 	}
; 348  : 
; 349  : 	////////////////////////////////////////
; 350  : 
; 351  : 	if (hind_damage.night_vision_goggles)

  005c4	a1 00 00 00 00	 mov	 eax, DWORD PTR ?hind_damage@@3THIND_DAMAGE_FLAGS@@A ; hind_damage
  005c9	c1 e8 14	 shr	 eax, 20			; 00000014H
  005cc	83 e0 01	 and	 eax, 1
  005cf	74 63		 je	 SHORT $LN15@partially_

; 352  : 	{
; 353  : 		hind_damage.night_vision_goggles = frand1 () > 0.90;

  005d1	69 05 00 00 00
	00 6d 4e c6 41	 imul	 eax, DWORD PTR ?random_number_seed@@3HA, 1103515245 ; random_number_seed
  005db	05 39 30 00 00	 add	 eax, 12345		; 00003039H
  005e0	a3 00 00 00 00	 mov	 DWORD PTR ?random_number_seed@@3HA, eax ; random_number_seed
  005e5	8b 0d 00 00 00
	00		 mov	 ecx, DWORD PTR ?random_number_seed@@3HA ; random_number_seed
  005eb	c1 f9 10	 sar	 ecx, 16			; 00000010H
  005ee	81 e1 ff 7f 00
	00		 and	 ecx, 32767		; 00007fffH
  005f4	f2 0f 2a c1	 cvtsi2sd xmm0, ecx
  005f8	f2 0f 59 05 00
	00 00 00	 mulsd	 xmm0, QWORD PTR __real@3f00002000400080
  00600	66 0f 2f 05 00
	00 00 00	 comisd	 xmm0, QWORD PTR __real@3feccccccccccccd
  00608	76 09		 jbe	 SHORT $LN54@partially_
  0060a	c7 45 bc 01 00
	00 00		 mov	 DWORD PTR tv303[ebp], 1
  00611	eb 07		 jmp	 SHORT $LN55@partially_
$LN54@partially_:
  00613	c7 45 bc 00 00
	00 00		 mov	 DWORD PTR tv303[ebp], 0
$LN55@partially_:
  0061a	8b 55 bc	 mov	 edx, DWORD PTR tv303[ebp]
  0061d	83 e2 01	 and	 edx, 1
  00620	c1 e2 14	 shl	 edx, 20			; 00000014H
  00623	a1 00 00 00 00	 mov	 eax, DWORD PTR ?hind_damage@@3THIND_DAMAGE_FLAGS@@A ; hind_damage
  00628	25 ff ff ef ff	 and	 eax, -1048577		; ffefffffH
  0062d	0b c2		 or	 eax, edx
  0062f	a3 00 00 00 00	 mov	 DWORD PTR ?hind_damage@@3THIND_DAMAGE_FLAGS@@A, eax ; hind_damage
$LN15@partially_:

; 354  : 	}
; 355  : 
; 356  : 	////////////////////////////////////////
; 357  : 
; 358  : 	if (hind_damage.gun_jammed)

  00634	a1 00 00 00 00	 mov	 eax, DWORD PTR ?hind_damage@@3THIND_DAMAGE_FLAGS@@A ; hind_damage
  00639	c1 e8 15	 shr	 eax, 21			; 00000015H
  0063c	83 e0 01	 and	 eax, 1
  0063f	74 63		 je	 SHORT $LN16@partially_

; 359  : 	{
; 360  : 		hind_damage.gun_jammed = frand1 () > 0.90;

  00641	69 05 00 00 00
	00 6d 4e c6 41	 imul	 eax, DWORD PTR ?random_number_seed@@3HA, 1103515245 ; random_number_seed
  0064b	05 39 30 00 00	 add	 eax, 12345		; 00003039H
  00650	a3 00 00 00 00	 mov	 DWORD PTR ?random_number_seed@@3HA, eax ; random_number_seed
  00655	8b 0d 00 00 00
	00		 mov	 ecx, DWORD PTR ?random_number_seed@@3HA ; random_number_seed
  0065b	c1 f9 10	 sar	 ecx, 16			; 00000010H
  0065e	81 e1 ff 7f 00
	00		 and	 ecx, 32767		; 00007fffH
  00664	f2 0f 2a c1	 cvtsi2sd xmm0, ecx
  00668	f2 0f 59 05 00
	00 00 00	 mulsd	 xmm0, QWORD PTR __real@3f00002000400080
  00670	66 0f 2f 05 00
	00 00 00	 comisd	 xmm0, QWORD PTR __real@3feccccccccccccd
  00678	76 09		 jbe	 SHORT $LN56@partially_
  0067a	c7 45 bc 01 00
	00 00		 mov	 DWORD PTR tv318[ebp], 1
  00681	eb 07		 jmp	 SHORT $LN57@partially_
$LN56@partially_:
  00683	c7 45 bc 00 00
	00 00		 mov	 DWORD PTR tv318[ebp], 0
$LN57@partially_:
  0068a	8b 55 bc	 mov	 edx, DWORD PTR tv318[ebp]
  0068d	83 e2 01	 and	 edx, 1
  00690	c1 e2 15	 shl	 edx, 21			; 00000015H
  00693	a1 00 00 00 00	 mov	 eax, DWORD PTR ?hind_damage@@3THIND_DAMAGE_FLAGS@@A ; hind_damage
  00698	25 ff ff df ff	 and	 eax, -2097153		; ffdfffffH
  0069d	0b c2		 or	 eax, edx
  0069f	a3 00 00 00 00	 mov	 DWORD PTR ?hind_damage@@3THIND_DAMAGE_FLAGS@@A, eax ; hind_damage
$LN16@partially_:

; 361  : 	}
; 362  : 
; 363  : 	////////////////////////////////////////
; 364  : 
; 365  : 	if (hind_damage.lh_wing_tip_mount)

  006a4	a1 00 00 00 00	 mov	 eax, DWORD PTR ?hind_damage@@3THIND_DAMAGE_FLAGS@@A ; hind_damage
  006a9	c1 e8 16	 shr	 eax, 22			; 00000016H
  006ac	83 e0 01	 and	 eax, 1
  006af	74 63		 je	 SHORT $LN17@partially_

; 366  : 	{
; 367  : 		hind_damage.lh_wing_tip_mount = frand1 () > 0.90;

  006b1	69 05 00 00 00
	00 6d 4e c6 41	 imul	 eax, DWORD PTR ?random_number_seed@@3HA, 1103515245 ; random_number_seed
  006bb	05 39 30 00 00	 add	 eax, 12345		; 00003039H
  006c0	a3 00 00 00 00	 mov	 DWORD PTR ?random_number_seed@@3HA, eax ; random_number_seed
  006c5	8b 0d 00 00 00
	00		 mov	 ecx, DWORD PTR ?random_number_seed@@3HA ; random_number_seed
  006cb	c1 f9 10	 sar	 ecx, 16			; 00000010H
  006ce	81 e1 ff 7f 00
	00		 and	 ecx, 32767		; 00007fffH
  006d4	f2 0f 2a c1	 cvtsi2sd xmm0, ecx
  006d8	f2 0f 59 05 00
	00 00 00	 mulsd	 xmm0, QWORD PTR __real@3f00002000400080
  006e0	66 0f 2f 05 00
	00 00 00	 comisd	 xmm0, QWORD PTR __real@3feccccccccccccd
  006e8	76 09		 jbe	 SHORT $LN58@partially_
  006ea	c7 45 bc 01 00
	00 00		 mov	 DWORD PTR tv333[ebp], 1
  006f1	eb 07		 jmp	 SHORT $LN59@partially_
$LN58@partially_:
  006f3	c7 45 bc 00 00
	00 00		 mov	 DWORD PTR tv333[ebp], 0
$LN59@partially_:
  006fa	8b 55 bc	 mov	 edx, DWORD PTR tv333[ebp]
  006fd	83 e2 01	 and	 edx, 1
  00700	c1 e2 16	 shl	 edx, 22			; 00000016H
  00703	a1 00 00 00 00	 mov	 eax, DWORD PTR ?hind_damage@@3THIND_DAMAGE_FLAGS@@A ; hind_damage
  00708	25 ff ff bf ff	 and	 eax, -4194305		; ffbfffffH
  0070d	0b c2		 or	 eax, edx
  0070f	a3 00 00 00 00	 mov	 DWORD PTR ?hind_damage@@3THIND_DAMAGE_FLAGS@@A, eax ; hind_damage
$LN17@partially_:

; 368  : 	}
; 369  : 
; 370  : 	////////////////////////////////////////
; 371  : 
; 372  : 	if (hind_damage.lh_outer_pylon)

  00714	a1 00 00 00 00	 mov	 eax, DWORD PTR ?hind_damage@@3THIND_DAMAGE_FLAGS@@A ; hind_damage
  00719	c1 e8 17	 shr	 eax, 23			; 00000017H
  0071c	83 e0 01	 and	 eax, 1
  0071f	74 63		 je	 SHORT $LN18@partially_

; 373  : 	{
; 374  : 		hind_damage.lh_outer_pylon = frand1 () > 0.90;

  00721	69 05 00 00 00
	00 6d 4e c6 41	 imul	 eax, DWORD PTR ?random_number_seed@@3HA, 1103515245 ; random_number_seed
  0072b	05 39 30 00 00	 add	 eax, 12345		; 00003039H
  00730	a3 00 00 00 00	 mov	 DWORD PTR ?random_number_seed@@3HA, eax ; random_number_seed
  00735	8b 0d 00 00 00
	00		 mov	 ecx, DWORD PTR ?random_number_seed@@3HA ; random_number_seed
  0073b	c1 f9 10	 sar	 ecx, 16			; 00000010H
  0073e	81 e1 ff 7f 00
	00		 and	 ecx, 32767		; 00007fffH
  00744	f2 0f 2a c1	 cvtsi2sd xmm0, ecx
  00748	f2 0f 59 05 00
	00 00 00	 mulsd	 xmm0, QWORD PTR __real@3f00002000400080
  00750	66 0f 2f 05 00
	00 00 00	 comisd	 xmm0, QWORD PTR __real@3feccccccccccccd
  00758	76 09		 jbe	 SHORT $LN60@partially_
  0075a	c7 45 bc 01 00
	00 00		 mov	 DWORD PTR tv348[ebp], 1
  00761	eb 07		 jmp	 SHORT $LN61@partially_
$LN60@partially_:
  00763	c7 45 bc 00 00
	00 00		 mov	 DWORD PTR tv348[ebp], 0
$LN61@partially_:
  0076a	8b 55 bc	 mov	 edx, DWORD PTR tv348[ebp]
  0076d	83 e2 01	 and	 edx, 1
  00770	c1 e2 17	 shl	 edx, 23			; 00000017H
  00773	a1 00 00 00 00	 mov	 eax, DWORD PTR ?hind_damage@@3THIND_DAMAGE_FLAGS@@A ; hind_damage
  00778	25 ff ff 7f ff	 and	 eax, -8388609		; ff7fffffH
  0077d	0b c2		 or	 eax, edx
  0077f	a3 00 00 00 00	 mov	 DWORD PTR ?hind_damage@@3THIND_DAMAGE_FLAGS@@A, eax ; hind_damage
$LN18@partially_:

; 375  : 	}
; 376  : 
; 377  : 	////////////////////////////////////////
; 378  : 
; 379  : 	if (hind_damage.lh_inner_pylon)

  00784	a1 00 00 00 00	 mov	 eax, DWORD PTR ?hind_damage@@3THIND_DAMAGE_FLAGS@@A ; hind_damage
  00789	c1 e8 18	 shr	 eax, 24			; 00000018H
  0078c	83 e0 01	 and	 eax, 1
  0078f	74 63		 je	 SHORT $LN19@partially_

; 380  : 	{
; 381  : 		hind_damage.lh_inner_pylon = frand1 () > 0.90;

  00791	69 05 00 00 00
	00 6d 4e c6 41	 imul	 eax, DWORD PTR ?random_number_seed@@3HA, 1103515245 ; random_number_seed
  0079b	05 39 30 00 00	 add	 eax, 12345		; 00003039H
  007a0	a3 00 00 00 00	 mov	 DWORD PTR ?random_number_seed@@3HA, eax ; random_number_seed
  007a5	8b 0d 00 00 00
	00		 mov	 ecx, DWORD PTR ?random_number_seed@@3HA ; random_number_seed
  007ab	c1 f9 10	 sar	 ecx, 16			; 00000010H
  007ae	81 e1 ff 7f 00
	00		 and	 ecx, 32767		; 00007fffH
  007b4	f2 0f 2a c1	 cvtsi2sd xmm0, ecx
  007b8	f2 0f 59 05 00
	00 00 00	 mulsd	 xmm0, QWORD PTR __real@3f00002000400080
  007c0	66 0f 2f 05 00
	00 00 00	 comisd	 xmm0, QWORD PTR __real@3feccccccccccccd
  007c8	76 09		 jbe	 SHORT $LN62@partially_
  007ca	c7 45 bc 01 00
	00 00		 mov	 DWORD PTR tv363[ebp], 1
  007d1	eb 07		 jmp	 SHORT $LN63@partially_
$LN62@partially_:
  007d3	c7 45 bc 00 00
	00 00		 mov	 DWORD PTR tv363[ebp], 0
$LN63@partially_:
  007da	8b 55 bc	 mov	 edx, DWORD PTR tv363[ebp]
  007dd	83 e2 01	 and	 edx, 1
  007e0	c1 e2 18	 shl	 edx, 24			; 00000018H
  007e3	a1 00 00 00 00	 mov	 eax, DWORD PTR ?hind_damage@@3THIND_DAMAGE_FLAGS@@A ; hind_damage
  007e8	25 ff ff ff fe	 and	 eax, -16777217		; feffffffH
  007ed	0b c2		 or	 eax, edx
  007ef	a3 00 00 00 00	 mov	 DWORD PTR ?hind_damage@@3THIND_DAMAGE_FLAGS@@A, eax ; hind_damage
$LN19@partially_:

; 382  : 	}
; 383  : 
; 384  : 	////////////////////////////////////////
; 385  : 
; 386  : 	if (hind_damage.rh_wing_tip_mount)

  007f4	a1 00 00 00 00	 mov	 eax, DWORD PTR ?hind_damage@@3THIND_DAMAGE_FLAGS@@A ; hind_damage
  007f9	c1 e8 19	 shr	 eax, 25			; 00000019H
  007fc	83 e0 01	 and	 eax, 1
  007ff	74 63		 je	 SHORT $LN20@partially_

; 387  : 	{
; 388  : 		hind_damage.rh_wing_tip_mount = frand1 () > 0.90;

  00801	69 05 00 00 00
	00 6d 4e c6 41	 imul	 eax, DWORD PTR ?random_number_seed@@3HA, 1103515245 ; random_number_seed
  0080b	05 39 30 00 00	 add	 eax, 12345		; 00003039H
  00810	a3 00 00 00 00	 mov	 DWORD PTR ?random_number_seed@@3HA, eax ; random_number_seed
  00815	8b 0d 00 00 00
	00		 mov	 ecx, DWORD PTR ?random_number_seed@@3HA ; random_number_seed
  0081b	c1 f9 10	 sar	 ecx, 16			; 00000010H
  0081e	81 e1 ff 7f 00
	00		 and	 ecx, 32767		; 00007fffH
  00824	f2 0f 2a c1	 cvtsi2sd xmm0, ecx
  00828	f2 0f 59 05 00
	00 00 00	 mulsd	 xmm0, QWORD PTR __real@3f00002000400080
  00830	66 0f 2f 05 00
	00 00 00	 comisd	 xmm0, QWORD PTR __real@3feccccccccccccd
  00838	76 09		 jbe	 SHORT $LN64@partially_
  0083a	c7 45 bc 01 00
	00 00		 mov	 DWORD PTR tv378[ebp], 1
  00841	eb 07		 jmp	 SHORT $LN65@partially_
$LN64@partially_:
  00843	c7 45 bc 00 00
	00 00		 mov	 DWORD PTR tv378[ebp], 0
$LN65@partially_:
  0084a	8b 55 bc	 mov	 edx, DWORD PTR tv378[ebp]
  0084d	83 e2 01	 and	 edx, 1
  00850	c1 e2 19	 shl	 edx, 25			; 00000019H
  00853	a1 00 00 00 00	 mov	 eax, DWORD PTR ?hind_damage@@3THIND_DAMAGE_FLAGS@@A ; hind_damage
  00858	25 ff ff ff fd	 and	 eax, -33554433		; fdffffffH
  0085d	0b c2		 or	 eax, edx
  0085f	a3 00 00 00 00	 mov	 DWORD PTR ?hind_damage@@3THIND_DAMAGE_FLAGS@@A, eax ; hind_damage
$LN20@partially_:

; 389  : 	}
; 390  : 
; 391  : 	////////////////////////////////////////
; 392  : 
; 393  : 	if (hind_damage.rh_outer_pylon)

  00864	a1 00 00 00 00	 mov	 eax, DWORD PTR ?hind_damage@@3THIND_DAMAGE_FLAGS@@A ; hind_damage
  00869	c1 e8 1a	 shr	 eax, 26			; 0000001aH
  0086c	83 e0 01	 and	 eax, 1
  0086f	74 63		 je	 SHORT $LN21@partially_

; 394  : 	{
; 395  : 		hind_damage.rh_outer_pylon = frand1 () > 0.90;

  00871	69 05 00 00 00
	00 6d 4e c6 41	 imul	 eax, DWORD PTR ?random_number_seed@@3HA, 1103515245 ; random_number_seed
  0087b	05 39 30 00 00	 add	 eax, 12345		; 00003039H
  00880	a3 00 00 00 00	 mov	 DWORD PTR ?random_number_seed@@3HA, eax ; random_number_seed
  00885	8b 0d 00 00 00
	00		 mov	 ecx, DWORD PTR ?random_number_seed@@3HA ; random_number_seed
  0088b	c1 f9 10	 sar	 ecx, 16			; 00000010H
  0088e	81 e1 ff 7f 00
	00		 and	 ecx, 32767		; 00007fffH
  00894	f2 0f 2a c1	 cvtsi2sd xmm0, ecx
  00898	f2 0f 59 05 00
	00 00 00	 mulsd	 xmm0, QWORD PTR __real@3f00002000400080
  008a0	66 0f 2f 05 00
	00 00 00	 comisd	 xmm0, QWORD PTR __real@3feccccccccccccd
  008a8	76 09		 jbe	 SHORT $LN66@partially_
  008aa	c7 45 bc 01 00
	00 00		 mov	 DWORD PTR tv393[ebp], 1
  008b1	eb 07		 jmp	 SHORT $LN67@partially_
$LN66@partially_:
  008b3	c7 45 bc 00 00
	00 00		 mov	 DWORD PTR tv393[ebp], 0
$LN67@partially_:
  008ba	8b 55 bc	 mov	 edx, DWORD PTR tv393[ebp]
  008bd	83 e2 01	 and	 edx, 1
  008c0	c1 e2 1a	 shl	 edx, 26			; 0000001aH
  008c3	a1 00 00 00 00	 mov	 eax, DWORD PTR ?hind_damage@@3THIND_DAMAGE_FLAGS@@A ; hind_damage
  008c8	25 ff ff ff fb	 and	 eax, -67108865		; fbffffffH
  008cd	0b c2		 or	 eax, edx
  008cf	a3 00 00 00 00	 mov	 DWORD PTR ?hind_damage@@3THIND_DAMAGE_FLAGS@@A, eax ; hind_damage
$LN21@partially_:

; 396  : 	}
; 397  : 
; 398  : 	////////////////////////////////////////
; 399  : 
; 400  : 	if (hind_damage.rh_inner_pylon)

  008d4	a1 00 00 00 00	 mov	 eax, DWORD PTR ?hind_damage@@3THIND_DAMAGE_FLAGS@@A ; hind_damage
  008d9	c1 e8 1b	 shr	 eax, 27			; 0000001bH
  008dc	83 e0 01	 and	 eax, 1
  008df	74 63		 je	 SHORT $LN22@partially_

; 401  : 	{
; 402  : 		hind_damage.rh_inner_pylon = frand1 () > 0.90;

  008e1	69 05 00 00 00
	00 6d 4e c6 41	 imul	 eax, DWORD PTR ?random_number_seed@@3HA, 1103515245 ; random_number_seed
  008eb	05 39 30 00 00	 add	 eax, 12345		; 00003039H
  008f0	a3 00 00 00 00	 mov	 DWORD PTR ?random_number_seed@@3HA, eax ; random_number_seed
  008f5	8b 0d 00 00 00
	00		 mov	 ecx, DWORD PTR ?random_number_seed@@3HA ; random_number_seed
  008fb	c1 f9 10	 sar	 ecx, 16			; 00000010H
  008fe	81 e1 ff 7f 00
	00		 and	 ecx, 32767		; 00007fffH
  00904	f2 0f 2a c1	 cvtsi2sd xmm0, ecx
  00908	f2 0f 59 05 00
	00 00 00	 mulsd	 xmm0, QWORD PTR __real@3f00002000400080
  00910	66 0f 2f 05 00
	00 00 00	 comisd	 xmm0, QWORD PTR __real@3feccccccccccccd
  00918	76 09		 jbe	 SHORT $LN68@partially_
  0091a	c7 45 bc 01 00
	00 00		 mov	 DWORD PTR tv408[ebp], 1
  00921	eb 07		 jmp	 SHORT $LN69@partially_
$LN68@partially_:
  00923	c7 45 bc 00 00
	00 00		 mov	 DWORD PTR tv408[ebp], 0
$LN69@partially_:
  0092a	8b 55 bc	 mov	 edx, DWORD PTR tv408[ebp]
  0092d	83 e2 01	 and	 edx, 1
  00930	c1 e2 1b	 shl	 edx, 27			; 0000001bH
  00933	a1 00 00 00 00	 mov	 eax, DWORD PTR ?hind_damage@@3THIND_DAMAGE_FLAGS@@A ; hind_damage
  00938	25 ff ff ff f7	 and	 eax, -134217729		; f7ffffffH
  0093d	0b c2		 or	 eax, edx
  0093f	a3 00 00 00 00	 mov	 DWORD PTR ?hind_damage@@3THIND_DAMAGE_FLAGS@@A, eax ; hind_damage
$LN22@partially_:

; 403  : 	}
; 404  : 
; 405  : 	////////////////////////////////////////
; 406  : 
; 407  : 	if (hind_damage.lhs_chaff_dispensers)

  00944	a1 00 00 00 00	 mov	 eax, DWORD PTR ?hind_damage@@3THIND_DAMAGE_FLAGS@@A ; hind_damage
  00949	c1 e8 1c	 shr	 eax, 28			; 0000001cH
  0094c	83 e0 01	 and	 eax, 1
  0094f	74 63		 je	 SHORT $LN23@partially_

; 408  : 	{
; 409  : 		hind_damage.lhs_chaff_dispensers = frand1 () > 0.90;

  00951	69 05 00 00 00
	00 6d 4e c6 41	 imul	 eax, DWORD PTR ?random_number_seed@@3HA, 1103515245 ; random_number_seed
  0095b	05 39 30 00 00	 add	 eax, 12345		; 00003039H
  00960	a3 00 00 00 00	 mov	 DWORD PTR ?random_number_seed@@3HA, eax ; random_number_seed
  00965	8b 0d 00 00 00
	00		 mov	 ecx, DWORD PTR ?random_number_seed@@3HA ; random_number_seed
  0096b	c1 f9 10	 sar	 ecx, 16			; 00000010H
  0096e	81 e1 ff 7f 00
	00		 and	 ecx, 32767		; 00007fffH
  00974	f2 0f 2a c1	 cvtsi2sd xmm0, ecx
  00978	f2 0f 59 05 00
	00 00 00	 mulsd	 xmm0, QWORD PTR __real@3f00002000400080
  00980	66 0f 2f 05 00
	00 00 00	 comisd	 xmm0, QWORD PTR __real@3feccccccccccccd
  00988	76 09		 jbe	 SHORT $LN70@partially_
  0098a	c7 45 bc 01 00
	00 00		 mov	 DWORD PTR tv423[ebp], 1
  00991	eb 07		 jmp	 SHORT $LN71@partially_
$LN70@partially_:
  00993	c7 45 bc 00 00
	00 00		 mov	 DWORD PTR tv423[ebp], 0
$LN71@partially_:
  0099a	8b 55 bc	 mov	 edx, DWORD PTR tv423[ebp]
  0099d	83 e2 01	 and	 edx, 1
  009a0	c1 e2 1c	 shl	 edx, 28			; 0000001cH
  009a3	a1 00 00 00 00	 mov	 eax, DWORD PTR ?hind_damage@@3THIND_DAMAGE_FLAGS@@A ; hind_damage
  009a8	25 ff ff ff ef	 and	 eax, -268435457		; efffffffH
  009ad	0b c2		 or	 eax, edx
  009af	a3 00 00 00 00	 mov	 DWORD PTR ?hind_damage@@3THIND_DAMAGE_FLAGS@@A, eax ; hind_damage
$LN23@partially_:

; 410  : 	}
; 411  : 
; 412  : 	////////////////////////////////////////
; 413  : 
; 414  : 	if (hind_damage.rhs_chaff_dispensers)

  009b4	a1 00 00 00 00	 mov	 eax, DWORD PTR ?hind_damage@@3THIND_DAMAGE_FLAGS@@A ; hind_damage
  009b9	c1 e8 1d	 shr	 eax, 29			; 0000001dH
  009bc	83 e0 01	 and	 eax, 1
  009bf	74 63		 je	 SHORT $LN24@partially_

; 415  : 	{
; 416  : 		hind_damage.rhs_chaff_dispensers = frand1 () > 0.90;

  009c1	69 05 00 00 00
	00 6d 4e c6 41	 imul	 eax, DWORD PTR ?random_number_seed@@3HA, 1103515245 ; random_number_seed
  009cb	05 39 30 00 00	 add	 eax, 12345		; 00003039H
  009d0	a3 00 00 00 00	 mov	 DWORD PTR ?random_number_seed@@3HA, eax ; random_number_seed
  009d5	8b 0d 00 00 00
	00		 mov	 ecx, DWORD PTR ?random_number_seed@@3HA ; random_number_seed
  009db	c1 f9 10	 sar	 ecx, 16			; 00000010H
  009de	81 e1 ff 7f 00
	00		 and	 ecx, 32767		; 00007fffH
  009e4	f2 0f 2a c1	 cvtsi2sd xmm0, ecx
  009e8	f2 0f 59 05 00
	00 00 00	 mulsd	 xmm0, QWORD PTR __real@3f00002000400080
  009f0	66 0f 2f 05 00
	00 00 00	 comisd	 xmm0, QWORD PTR __real@3feccccccccccccd
  009f8	76 09		 jbe	 SHORT $LN72@partially_
  009fa	c7 45 bc 01 00
	00 00		 mov	 DWORD PTR tv438[ebp], 1
  00a01	eb 07		 jmp	 SHORT $LN73@partially_
$LN72@partially_:
  00a03	c7 45 bc 00 00
	00 00		 mov	 DWORD PTR tv438[ebp], 0
$LN73@partially_:
  00a0a	8b 55 bc	 mov	 edx, DWORD PTR tv438[ebp]
  00a0d	83 e2 01	 and	 edx, 1
  00a10	c1 e2 1d	 shl	 edx, 29			; 0000001dH
  00a13	a1 00 00 00 00	 mov	 eax, DWORD PTR ?hind_damage@@3THIND_DAMAGE_FLAGS@@A ; hind_damage
  00a18	25 ff ff ff df	 and	 eax, -536870913		; dfffffffH
  00a1d	0b c2		 or	 eax, edx
  00a1f	a3 00 00 00 00	 mov	 DWORD PTR ?hind_damage@@3THIND_DAMAGE_FLAGS@@A, eax ; hind_damage
$LN24@partially_:

; 417  : 	}
; 418  : 
; 419  : 	////////////////////////////////////////
; 420  : 	if (hind_damage.lhs_flare_dispensers)

  00a24	a1 00 00 00 00	 mov	 eax, DWORD PTR ?hind_damage@@3THIND_DAMAGE_FLAGS@@A ; hind_damage
  00a29	c1 e8 1e	 shr	 eax, 30			; 0000001eH
  00a2c	83 e0 01	 and	 eax, 1
  00a2f	74 63		 je	 SHORT $LN25@partially_

; 421  : 	{
; 422  : 		hind_damage.lhs_flare_dispensers = frand1 () > 0.90;

  00a31	69 05 00 00 00
	00 6d 4e c6 41	 imul	 eax, DWORD PTR ?random_number_seed@@3HA, 1103515245 ; random_number_seed
  00a3b	05 39 30 00 00	 add	 eax, 12345		; 00003039H
  00a40	a3 00 00 00 00	 mov	 DWORD PTR ?random_number_seed@@3HA, eax ; random_number_seed
  00a45	8b 0d 00 00 00
	00		 mov	 ecx, DWORD PTR ?random_number_seed@@3HA ; random_number_seed
  00a4b	c1 f9 10	 sar	 ecx, 16			; 00000010H
  00a4e	81 e1 ff 7f 00
	00		 and	 ecx, 32767		; 00007fffH
  00a54	f2 0f 2a c1	 cvtsi2sd xmm0, ecx
  00a58	f2 0f 59 05 00
	00 00 00	 mulsd	 xmm0, QWORD PTR __real@3f00002000400080
  00a60	66 0f 2f 05 00
	00 00 00	 comisd	 xmm0, QWORD PTR __real@3feccccccccccccd
  00a68	76 09		 jbe	 SHORT $LN74@partially_
  00a6a	c7 45 bc 01 00
	00 00		 mov	 DWORD PTR tv453[ebp], 1
  00a71	eb 07		 jmp	 SHORT $LN75@partially_
$LN74@partially_:
  00a73	c7 45 bc 00 00
	00 00		 mov	 DWORD PTR tv453[ebp], 0
$LN75@partially_:
  00a7a	8b 55 bc	 mov	 edx, DWORD PTR tv453[ebp]
  00a7d	83 e2 01	 and	 edx, 1
  00a80	c1 e2 1e	 shl	 edx, 30			; 0000001eH
  00a83	a1 00 00 00 00	 mov	 eax, DWORD PTR ?hind_damage@@3THIND_DAMAGE_FLAGS@@A ; hind_damage
  00a88	25 ff ff ff bf	 and	 eax, -1073741825	; bfffffffH
  00a8d	0b c2		 or	 eax, edx
  00a8f	a3 00 00 00 00	 mov	 DWORD PTR ?hind_damage@@3THIND_DAMAGE_FLAGS@@A, eax ; hind_damage
$LN25@partially_:

; 423  : 	}
; 424  : 
; 425  : 	////////////////////////////////////////
; 426  : 	if (hind_damage.rhs_flare_dispensers)

  00a94	a1 00 00 00 00	 mov	 eax, DWORD PTR ?hind_damage@@3THIND_DAMAGE_FLAGS@@A ; hind_damage
  00a99	c1 e8 1f	 shr	 eax, 31			; 0000001fH
  00a9c	83 e0 01	 and	 eax, 1
  00a9f	74 63		 je	 SHORT $LN26@partially_

; 427  : 	{
; 428  : 		hind_damage.rhs_flare_dispensers = frand1 () > 0.90;

  00aa1	69 05 00 00 00
	00 6d 4e c6 41	 imul	 eax, DWORD PTR ?random_number_seed@@3HA, 1103515245 ; random_number_seed
  00aab	05 39 30 00 00	 add	 eax, 12345		; 00003039H
  00ab0	a3 00 00 00 00	 mov	 DWORD PTR ?random_number_seed@@3HA, eax ; random_number_seed
  00ab5	8b 0d 00 00 00
	00		 mov	 ecx, DWORD PTR ?random_number_seed@@3HA ; random_number_seed
  00abb	c1 f9 10	 sar	 ecx, 16			; 00000010H
  00abe	81 e1 ff 7f 00
	00		 and	 ecx, 32767		; 00007fffH
  00ac4	f2 0f 2a c1	 cvtsi2sd xmm0, ecx
  00ac8	f2 0f 59 05 00
	00 00 00	 mulsd	 xmm0, QWORD PTR __real@3f00002000400080
  00ad0	66 0f 2f 05 00
	00 00 00	 comisd	 xmm0, QWORD PTR __real@3feccccccccccccd
  00ad8	76 09		 jbe	 SHORT $LN76@partially_
  00ada	c7 45 bc 01 00
	00 00		 mov	 DWORD PTR tv468[ebp], 1
  00ae1	eb 07		 jmp	 SHORT $LN77@partially_
$LN76@partially_:
  00ae3	c7 45 bc 00 00
	00 00		 mov	 DWORD PTR tv468[ebp], 0
$LN77@partially_:
  00aea	8b 55 bc	 mov	 edx, DWORD PTR tv468[ebp]
  00aed	83 e2 01	 and	 edx, 1
  00af0	c1 e2 1f	 shl	 edx, 31			; 0000001fH
  00af3	a1 00 00 00 00	 mov	 eax, DWORD PTR ?hind_damage@@3THIND_DAMAGE_FLAGS@@A ; hind_damage
  00af8	25 ff ff ff 7f	 and	 eax, 2147483647		; 7fffffffH
  00afd	0b c2		 or	 eax, edx
  00aff	a3 00 00 00 00	 mov	 DWORD PTR ?hind_damage@@3THIND_DAMAGE_FLAGS@@A, eax ; hind_damage
$LN26@partially_:

; 429  : 	}
; 430  : 
; 431  : 	////////////////////////////////////////
; 432  : 
; 433  : 	set_hind_weapon_damage_status ();

  00b04	e8 00 00 00 00	 call	 ?set_hind_weapon_damage_status@@YGXXZ ; set_hind_weapon_damage_status

; 434  : }

  00b09	5f		 pop	 edi
  00b0a	5e		 pop	 esi
  00b0b	5b		 pop	 ebx
  00b0c	8b e5		 mov	 esp, ebp
  00b0e	5d		 pop	 ebp
  00b0f	c3		 ret	 0
?partially_repair_hind_damage@@YGXXZ ENDP		; partially_repair_hind_damage
_TEXT	ENDS
; Function compile flags: /Odtp /ZI
; File c:\users\nhv90\projects\eech\aphavoc\source\gunships\avionics\hind\hi_dam.c
;	COMDAT ?fully_repair_hind_damage@@YGXXZ
_TEXT	SEGMENT
?fully_repair_hind_damage@@YGXXZ PROC			; fully_repair_hind_damage, COMDAT

; 134  : {

  00000	55		 push	 ebp
  00001	8b ec		 mov	 ebp, esp
  00003	83 ec 40	 sub	 esp, 64			; 00000040H
  00006	53		 push	 ebx
  00007	56		 push	 esi
  00008	57		 push	 edi

; 135  : 	set_hind_ekran_display_text ("", "", NULL, NULL);

  00009	6a 00		 push	 0
  0000b	6a 00		 push	 0
  0000d	68 00 00 00 00	 push	 OFFSET ??_C@_00CNPNBAHC@@
  00012	68 00 00 00 00	 push	 OFFSET ??_C@_00CNPNBAHC@@
  00017	e8 00 00 00 00	 call	 ?set_hind_ekran_display_text@@YGXPAD000@Z ; set_hind_ekran_display_text

; 136  : 
; 137  : 	fire_extinguisher_used = FALSE;

  0001c	c7 05 00 00 00
	00 00 00 00 00	 mov	 DWORD PTR ?fire_extinguisher_used@@3HA, 0 ; fire_extinguisher_used

; 138  : 
; 139  : 	////////////////////////////////////////
; 140  : 
; 141  : 	hind_damage.radar = FALSE;

  00026	a1 00 00 00 00	 mov	 eax, DWORD PTR ?hind_damage@@3THIND_DAMAGE_FLAGS@@A ; hind_damage
  0002b	83 e0 fe	 and	 eax, -2			; fffffffeH
  0002e	a3 00 00 00 00	 mov	 DWORD PTR ?hind_damage@@3THIND_DAMAGE_FLAGS@@A, eax ; hind_damage

; 142  : 
; 143  : 	////////////////////////////////////////
; 144  : 
; 145  : 	hind_damage.flir = FALSE;

  00033	a1 00 00 00 00	 mov	 eax, DWORD PTR ?hind_damage@@3THIND_DAMAGE_FLAGS@@A ; hind_damage
  00038	83 e0 fd	 and	 eax, -3			; fffffffdH
  0003b	a3 00 00 00 00	 mov	 DWORD PTR ?hind_damage@@3THIND_DAMAGE_FLAGS@@A, eax ; hind_damage

; 146  : 
; 147  : 	////////////////////////////////////////
; 148  : 
; 149  : 	hind_damage.llltv = FALSE;

  00040	a1 00 00 00 00	 mov	 eax, DWORD PTR ?hind_damage@@3THIND_DAMAGE_FLAGS@@A ; hind_damage
  00045	83 e0 f7	 and	 eax, -9			; fffffff7H
  00048	a3 00 00 00 00	 mov	 DWORD PTR ?hind_damage@@3THIND_DAMAGE_FLAGS@@A, eax ; hind_damage

; 150  : 
; 151  : 	////////////////////////////////////////
; 152  : 
; 153  : 	hind_damage.laser_range_finder = FALSE;

  0004d	a1 00 00 00 00	 mov	 eax, DWORD PTR ?hind_damage@@3THIND_DAMAGE_FLAGS@@A ; hind_damage
  00052	83 e0 ef	 and	 eax, -17		; ffffffefH
  00055	a3 00 00 00 00	 mov	 DWORD PTR ?hind_damage@@3THIND_DAMAGE_FLAGS@@A, eax ; hind_damage

; 154  : 
; 155  : 	////////////////////////////////////////
; 156  : 
; 157  : 	hind_damage.radar_jammer = FALSE;

  0005a	a1 00 00 00 00	 mov	 eax, DWORD PTR ?hind_damage@@3THIND_DAMAGE_FLAGS@@A ; hind_damage
  0005f	83 e0 bf	 and	 eax, -65		; ffffffbfH
  00062	a3 00 00 00 00	 mov	 DWORD PTR ?hind_damage@@3THIND_DAMAGE_FLAGS@@A, eax ; hind_damage

; 158  : 
; 159  : 	////////////////////////////////////////
; 160  : 
; 161  : 	hind_damage.infra_red_jammer = FALSE;

  00067	a1 00 00 00 00	 mov	 eax, DWORD PTR ?hind_damage@@3THIND_DAMAGE_FLAGS@@A ; hind_damage
  0006c	25 7f ff ff ff	 and	 eax, -129		; ffffff7fH
  00071	a3 00 00 00 00	 mov	 DWORD PTR ?hind_damage@@3THIND_DAMAGE_FLAGS@@A, eax ; hind_damage

; 162  : 
; 163  : 	////////////////////////////////////////
; 164  : 
; 165  : 	hind_damage.navigation_computer = FALSE;

  00076	a1 00 00 00 00	 mov	 eax, DWORD PTR ?hind_damage@@3THIND_DAMAGE_FLAGS@@A ; hind_damage
  0007b	25 ff fd ff ff	 and	 eax, -513		; fffffdffH
  00080	a3 00 00 00 00	 mov	 DWORD PTR ?hind_damage@@3THIND_DAMAGE_FLAGS@@A, eax ; hind_damage

; 166  : 
; 167  : 	////////////////////////////////////////
; 168  : 
; 169  : 	hind_damage.communications = FALSE;

  00085	a1 00 00 00 00	 mov	 eax, DWORD PTR ?hind_damage@@3THIND_DAMAGE_FLAGS@@A ; hind_damage
  0008a	25 ff f7 ff ff	 and	 eax, -2049		; fffff7ffH
  0008f	a3 00 00 00 00	 mov	 DWORD PTR ?hind_damage@@3THIND_DAMAGE_FLAGS@@A, eax ; hind_damage

; 170  : 
; 171  : 	////////////////////////////////////////
; 172  : 
; 173  : 	hind_damage.radar_warning_system = FALSE;

  00094	a1 00 00 00 00	 mov	 eax, DWORD PTR ?hind_damage@@3THIND_DAMAGE_FLAGS@@A ; hind_damage
  00099	25 ff df ff ff	 and	 eax, -8193		; ffffdfffH
  0009e	a3 00 00 00 00	 mov	 DWORD PTR ?hind_damage@@3THIND_DAMAGE_FLAGS@@A, eax ; hind_damage

; 174  : 
; 175  : 	////////////////////////////////////////
; 176  : 
; 177  : 	hind_damage.head_up_display = FALSE;

  000a3	a1 00 00 00 00	 mov	 eax, DWORD PTR ?hind_damage@@3THIND_DAMAGE_FLAGS@@A ; hind_damage
  000a8	25 ff 7f ff ff	 and	 eax, -32769		; ffff7fffH
  000ad	a3 00 00 00 00	 mov	 DWORD PTR ?hind_damage@@3THIND_DAMAGE_FLAGS@@A, eax ; hind_damage

; 178  : 
; 179  : 	////////////////////////////////////////
; 180  : 
; 181  : 	hind_damage.helmet_mounted_sight = FALSE;

  000b2	a1 00 00 00 00	 mov	 eax, DWORD PTR ?hind_damage@@3THIND_DAMAGE_FLAGS@@A ; hind_damage
  000b7	25 ff ff fd ff	 and	 eax, -131073		; fffdffffH
  000bc	a3 00 00 00 00	 mov	 DWORD PTR ?hind_damage@@3THIND_DAMAGE_FLAGS@@A, eax ; hind_damage

; 182  : 
; 183  : 	////////////////////////////////////////
; 184  : 
; 185  : 	hind_damage.tv_display = FALSE;

  000c1	a1 00 00 00 00	 mov	 eax, DWORD PTR ?hind_damage@@3THIND_DAMAGE_FLAGS@@A ; hind_damage
  000c6	25 ff ff fb ff	 and	 eax, -262145		; fffbffffH
  000cb	a3 00 00 00 00	 mov	 DWORD PTR ?hind_damage@@3THIND_DAMAGE_FLAGS@@A, eax ; hind_damage

; 186  : 
; 187  : 	////////////////////////////////////////
; 188  : 
; 189  : 	hind_damage.threat_warning_display = FALSE;

  000d0	a1 00 00 00 00	 mov	 eax, DWORD PTR ?hind_damage@@3THIND_DAMAGE_FLAGS@@A ; hind_damage
  000d5	25 ff ff f7 ff	 and	 eax, -524289		; fff7ffffH
  000da	a3 00 00 00 00	 mov	 DWORD PTR ?hind_damage@@3THIND_DAMAGE_FLAGS@@A, eax ; hind_damage

; 190  : 
; 191  : 	////////////////////////////////////////
; 192  : 
; 193  : 	hind_damage.night_vision_goggles = FALSE;

  000df	a1 00 00 00 00	 mov	 eax, DWORD PTR ?hind_damage@@3THIND_DAMAGE_FLAGS@@A ; hind_damage
  000e4	25 ff ff ef ff	 and	 eax, -1048577		; ffefffffH
  000e9	a3 00 00 00 00	 mov	 DWORD PTR ?hind_damage@@3THIND_DAMAGE_FLAGS@@A, eax ; hind_damage

; 194  : 
; 195  : 	////////////////////////////////////////
; 196  : 
; 197  : 	hind_damage.gun_jammed = FALSE;

  000ee	a1 00 00 00 00	 mov	 eax, DWORD PTR ?hind_damage@@3THIND_DAMAGE_FLAGS@@A ; hind_damage
  000f3	25 ff ff df ff	 and	 eax, -2097153		; ffdfffffH
  000f8	a3 00 00 00 00	 mov	 DWORD PTR ?hind_damage@@3THIND_DAMAGE_FLAGS@@A, eax ; hind_damage

; 198  : 
; 199  : 	////////////////////////////////////////
; 200  : 
; 201  : 	hind_damage.lh_wing_tip_mount = FALSE;

  000fd	a1 00 00 00 00	 mov	 eax, DWORD PTR ?hind_damage@@3THIND_DAMAGE_FLAGS@@A ; hind_damage
  00102	25 ff ff bf ff	 and	 eax, -4194305		; ffbfffffH
  00107	a3 00 00 00 00	 mov	 DWORD PTR ?hind_damage@@3THIND_DAMAGE_FLAGS@@A, eax ; hind_damage

; 202  : 
; 203  : 	////////////////////////////////////////
; 204  : 
; 205  : 	////////////////////////////////////////
; 206  : 
; 207  : 	hind_damage.lh_outer_pylon = FALSE;

  0010c	a1 00 00 00 00	 mov	 eax, DWORD PTR ?hind_damage@@3THIND_DAMAGE_FLAGS@@A ; hind_damage
  00111	25 ff ff 7f ff	 and	 eax, -8388609		; ff7fffffH
  00116	a3 00 00 00 00	 mov	 DWORD PTR ?hind_damage@@3THIND_DAMAGE_FLAGS@@A, eax ; hind_damage

; 208  : 
; 209  : 	////////////////////////////////////////
; 210  : 
; 211  : 	hind_damage.lh_inner_pylon = FALSE;

  0011b	a1 00 00 00 00	 mov	 eax, DWORD PTR ?hind_damage@@3THIND_DAMAGE_FLAGS@@A ; hind_damage
  00120	25 ff ff ff fe	 and	 eax, -16777217		; feffffffH
  00125	a3 00 00 00 00	 mov	 DWORD PTR ?hind_damage@@3THIND_DAMAGE_FLAGS@@A, eax ; hind_damage

; 212  : 
; 213  : 	////////////////////////////////////////
; 214  : 
; 215  : 	hind_damage.rh_wing_tip_mount = FALSE;

  0012a	a1 00 00 00 00	 mov	 eax, DWORD PTR ?hind_damage@@3THIND_DAMAGE_FLAGS@@A ; hind_damage
  0012f	25 ff ff ff fd	 and	 eax, -33554433		; fdffffffH
  00134	a3 00 00 00 00	 mov	 DWORD PTR ?hind_damage@@3THIND_DAMAGE_FLAGS@@A, eax ; hind_damage

; 216  : 
; 217  : 	////////////////////////////////////////
; 218  : 
; 219  : 	////////////////////////////////////////
; 220  : 
; 221  : 	hind_damage.rh_outer_pylon = FALSE;

  00139	a1 00 00 00 00	 mov	 eax, DWORD PTR ?hind_damage@@3THIND_DAMAGE_FLAGS@@A ; hind_damage
  0013e	25 ff ff ff fb	 and	 eax, -67108865		; fbffffffH
  00143	a3 00 00 00 00	 mov	 DWORD PTR ?hind_damage@@3THIND_DAMAGE_FLAGS@@A, eax ; hind_damage

; 222  : 
; 223  : 	////////////////////////////////////////
; 224  : 
; 225  : 	hind_damage.rh_inner_pylon = FALSE;

  00148	a1 00 00 00 00	 mov	 eax, DWORD PTR ?hind_damage@@3THIND_DAMAGE_FLAGS@@A ; hind_damage
  0014d	25 ff ff ff f7	 and	 eax, -134217729		; f7ffffffH
  00152	a3 00 00 00 00	 mov	 DWORD PTR ?hind_damage@@3THIND_DAMAGE_FLAGS@@A, eax ; hind_damage

; 226  : 
; 227  : 	////////////////////////////////////////
; 228  : 
; 229  : 	hind_damage.lhs_chaff_dispensers = FALSE;

  00157	a1 00 00 00 00	 mov	 eax, DWORD PTR ?hind_damage@@3THIND_DAMAGE_FLAGS@@A ; hind_damage
  0015c	25 ff ff ff ef	 and	 eax, -268435457		; efffffffH
  00161	a3 00 00 00 00	 mov	 DWORD PTR ?hind_damage@@3THIND_DAMAGE_FLAGS@@A, eax ; hind_damage

; 230  : 
; 231  : 	////////////////////////////////////////
; 232  : 
; 233  : 	hind_damage.rhs_chaff_dispensers = FALSE;

  00166	a1 00 00 00 00	 mov	 eax, DWORD PTR ?hind_damage@@3THIND_DAMAGE_FLAGS@@A ; hind_damage
  0016b	25 ff ff ff df	 and	 eax, -536870913		; dfffffffH
  00170	a3 00 00 00 00	 mov	 DWORD PTR ?hind_damage@@3THIND_DAMAGE_FLAGS@@A, eax ; hind_damage

; 234  : 
; 235  : 	////////////////////////////////////////
; 236  : 
; 237  : 	hind_damage.lhs_flare_dispensers = FALSE;

  00175	a1 00 00 00 00	 mov	 eax, DWORD PTR ?hind_damage@@3THIND_DAMAGE_FLAGS@@A ; hind_damage
  0017a	25 ff ff ff bf	 and	 eax, -1073741825	; bfffffffH
  0017f	a3 00 00 00 00	 mov	 DWORD PTR ?hind_damage@@3THIND_DAMAGE_FLAGS@@A, eax ; hind_damage

; 238  : 
; 239  : 	////////////////////////////////////////
; 240  : 
; 241  : 	hind_damage.rhs_flare_dispensers = FALSE;

  00184	a1 00 00 00 00	 mov	 eax, DWORD PTR ?hind_damage@@3THIND_DAMAGE_FLAGS@@A ; hind_damage
  00189	25 ff ff ff 7f	 and	 eax, 2147483647		; 7fffffffH
  0018e	a3 00 00 00 00	 mov	 DWORD PTR ?hind_damage@@3THIND_DAMAGE_FLAGS@@A, eax ; hind_damage

; 242  : 
; 243  : 	////////////////////////////////////////
; 244  : 
; 245  : 	set_hind_weapon_damage_status ();

  00193	e8 00 00 00 00	 call	 ?set_hind_weapon_damage_status@@YGXXZ ; set_hind_weapon_damage_status

; 246  : }

  00198	5f		 pop	 edi
  00199	5e		 pop	 esi
  0019a	5b		 pop	 ebx
  0019b	8b e5		 mov	 esp, ebp
  0019d	5d		 pop	 ebp
  0019e	c3		 ret	 0
?fully_repair_hind_damage@@YGXXZ ENDP			; fully_repair_hind_damage
_TEXT	ENDS
; Function compile flags: /Odtp /ZI
; File c:\users\nhv90\projects\eech\aphavoc\source\gunships\avionics\hind\hi_dam.c
;	COMDAT ?set_hind_weapon_damage_status@@YGXXZ
_TEXT	SEGMENT
tv176 = -80						; size = 4
tv168 = -76						; size = 4
_weapon_sub_type$ = -8					; size = 4
_en$ = -4						; size = 4
?set_hind_weapon_damage_status@@YGXXZ PROC		; set_hind_weapon_damage_status, COMDAT

; 87   : {

  00000	55		 push	 ebp
  00001	8b ec		 mov	 ebp, esp
  00003	83 ec 50	 sub	 esp, 80			; 00000050H
  00006	53		 push	 ebx
  00007	56		 push	 esi
  00008	57		 push	 edi

; 88   : 	entity
; 89   : 		*en;
; 90   : 
; 91   : 	entity_sub_types
; 92   : 		weapon_sub_type;
; 93   : 
; 94   : 	en = get_gunship_entity ();

  00009	a1 00 00 00 00	 mov	 eax, DWORD PTR ?gunship_entity@@3PAUENTITY@@A ; gunship_entity
  0000e	89 45 fc	 mov	 DWORD PTR _en$[ebp], eax

; 95   : 
; 96   : 	set_client_server_entity_weapon_damage (en, HIND_CANNON_TURRET, ENTITY_SUB_TYPE_WEAPON_9A642_12P7MM_ROUND, hind_damage.gun_jammed);

  00011	a1 00 00 00 00	 mov	 eax, DWORD PTR ?hind_damage@@3THIND_DAMAGE_FLAGS@@A ; hind_damage
  00016	c1 e8 15	 shr	 eax, 21			; 00000015H
  00019	83 e0 01	 and	 eax, 1
  0001c	50		 push	 eax
  0001d	6a 0d		 push	 13			; 0000000dH
  0001f	6a 06		 push	 6
  00021	8b 4d fc	 mov	 ecx, DWORD PTR _en$[ebp]
  00024	51		 push	 ecx
  00025	e8 00 00 00 00	 call	 ?set_client_server_entity_weapon_damage@@YGXPAUENTITY@@HHH@Z ; set_client_server_entity_weapon_damage

; 97   : 
; 98   : 	set_client_server_entity_weapon_damage (en, HIND_LHS_WING_TIP_MOUNT, ENTITY_SUB_TYPE_WEAPON_NO_WEAPON, hind_damage.lh_wing_tip_mount);

  0002a	a1 00 00 00 00	 mov	 eax, DWORD PTR ?hind_damage@@3THIND_DAMAGE_FLAGS@@A ; hind_damage
  0002f	c1 e8 16	 shr	 eax, 22			; 00000016H
  00032	83 e0 01	 and	 eax, 1
  00035	50		 push	 eax
  00036	6a 00		 push	 0
  00038	6a 04		 push	 4
  0003a	8b 4d fc	 mov	 ecx, DWORD PTR _en$[ebp]
  0003d	51		 push	 ecx
  0003e	e8 00 00 00 00	 call	 ?set_client_server_entity_weapon_damage@@YGXPAUENTITY@@HHH@Z ; set_client_server_entity_weapon_damage

; 99   : 	set_client_server_entity_weapon_damage (en, HIND_LHS_OUTER_PYLON, ENTITY_SUB_TYPE_WEAPON_NO_WEAPON, hind_damage.lh_outer_pylon);

  00043	a1 00 00 00 00	 mov	 eax, DWORD PTR ?hind_damage@@3THIND_DAMAGE_FLAGS@@A ; hind_damage
  00048	c1 e8 17	 shr	 eax, 23			; 00000017H
  0004b	83 e0 01	 and	 eax, 1
  0004e	50		 push	 eax
  0004f	6a 00		 push	 0
  00051	6a 02		 push	 2
  00053	8b 4d fc	 mov	 ecx, DWORD PTR _en$[ebp]
  00056	51		 push	 ecx
  00057	e8 00 00 00 00	 call	 ?set_client_server_entity_weapon_damage@@YGXPAUENTITY@@HHH@Z ; set_client_server_entity_weapon_damage

; 100  : 	set_client_server_entity_weapon_damage (en, HIND_LHS_INNER_PYLON, ENTITY_SUB_TYPE_WEAPON_NO_WEAPON, hind_damage.lh_inner_pylon);

  0005c	a1 00 00 00 00	 mov	 eax, DWORD PTR ?hind_damage@@3THIND_DAMAGE_FLAGS@@A ; hind_damage
  00061	c1 e8 18	 shr	 eax, 24			; 00000018H
  00064	83 e0 01	 and	 eax, 1
  00067	50		 push	 eax
  00068	6a 00		 push	 0
  0006a	6a 00		 push	 0
  0006c	8b 4d fc	 mov	 ecx, DWORD PTR _en$[ebp]
  0006f	51		 push	 ecx
  00070	e8 00 00 00 00	 call	 ?set_client_server_entity_weapon_damage@@YGXPAUENTITY@@HHH@Z ; set_client_server_entity_weapon_damage

; 101  : 
; 102  : 	set_client_server_entity_weapon_damage (en, HIND_RHS_WING_TIP_MOUNT, ENTITY_SUB_TYPE_WEAPON_NO_WEAPON, hind_damage.rh_wing_tip_mount);

  00075	a1 00 00 00 00	 mov	 eax, DWORD PTR ?hind_damage@@3THIND_DAMAGE_FLAGS@@A ; hind_damage
  0007a	c1 e8 19	 shr	 eax, 25			; 00000019H
  0007d	83 e0 01	 and	 eax, 1
  00080	50		 push	 eax
  00081	6a 00		 push	 0
  00083	6a 05		 push	 5
  00085	8b 4d fc	 mov	 ecx, DWORD PTR _en$[ebp]
  00088	51		 push	 ecx
  00089	e8 00 00 00 00	 call	 ?set_client_server_entity_weapon_damage@@YGXPAUENTITY@@HHH@Z ; set_client_server_entity_weapon_damage

; 103  : 	set_client_server_entity_weapon_damage (en, HIND_RHS_OUTER_PYLON, ENTITY_SUB_TYPE_WEAPON_NO_WEAPON, hind_damage.rh_outer_pylon);

  0008e	a1 00 00 00 00	 mov	 eax, DWORD PTR ?hind_damage@@3THIND_DAMAGE_FLAGS@@A ; hind_damage
  00093	c1 e8 1a	 shr	 eax, 26			; 0000001aH
  00096	83 e0 01	 and	 eax, 1
  00099	50		 push	 eax
  0009a	6a 00		 push	 0
  0009c	6a 03		 push	 3
  0009e	8b 4d fc	 mov	 ecx, DWORD PTR _en$[ebp]
  000a1	51		 push	 ecx
  000a2	e8 00 00 00 00	 call	 ?set_client_server_entity_weapon_damage@@YGXPAUENTITY@@HHH@Z ; set_client_server_entity_weapon_damage

; 104  : 	set_client_server_entity_weapon_damage (en, HIND_RHS_INNER_PYLON, ENTITY_SUB_TYPE_WEAPON_NO_WEAPON, hind_damage.rh_inner_pylon);

  000a7	a1 00 00 00 00	 mov	 eax, DWORD PTR ?hind_damage@@3THIND_DAMAGE_FLAGS@@A ; hind_damage
  000ac	c1 e8 1b	 shr	 eax, 27			; 0000001bH
  000af	83 e0 01	 and	 eax, 1
  000b2	50		 push	 eax
  000b3	6a 00		 push	 0
  000b5	6a 01		 push	 1
  000b7	8b 4d fc	 mov	 ecx, DWORD PTR _en$[ebp]
  000ba	51		 push	 ecx
  000bb	e8 00 00 00 00	 call	 ?set_client_server_entity_weapon_damage@@YGXPAUENTITY@@HHH@Z ; set_client_server_entity_weapon_damage

; 105  : 
; 106  : 	set_client_server_entity_weapon_damage (en, HIND_LHS_CHAFF_DISPENSER, ENTITY_SUB_TYPE_WEAPON_CHAFF, hind_damage.lhs_chaff_dispensers);

  000c0	a1 00 00 00 00	 mov	 eax, DWORD PTR ?hind_damage@@3THIND_DAMAGE_FLAGS@@A ; hind_damage
  000c5	c1 e8 1c	 shr	 eax, 28			; 0000001cH
  000c8	83 e0 01	 and	 eax, 1
  000cb	50		 push	 eax
  000cc	6a 43		 push	 67			; 00000043H
  000ce	6a 07		 push	 7
  000d0	8b 4d fc	 mov	 ecx, DWORD PTR _en$[ebp]
  000d3	51		 push	 ecx
  000d4	e8 00 00 00 00	 call	 ?set_client_server_entity_weapon_damage@@YGXPAUENTITY@@HHH@Z ; set_client_server_entity_weapon_damage

; 107  : 	set_client_server_entity_weapon_damage (en, HIND_RHS_CHAFF_DISPENSER, ENTITY_SUB_TYPE_WEAPON_CHAFF, hind_damage.rhs_chaff_dispensers);

  000d9	a1 00 00 00 00	 mov	 eax, DWORD PTR ?hind_damage@@3THIND_DAMAGE_FLAGS@@A ; hind_damage
  000de	c1 e8 1d	 shr	 eax, 29			; 0000001dH
  000e1	83 e0 01	 and	 eax, 1
  000e4	50		 push	 eax
  000e5	6a 43		 push	 67			; 00000043H
  000e7	6a 08		 push	 8
  000e9	8b 4d fc	 mov	 ecx, DWORD PTR _en$[ebp]
  000ec	51		 push	 ecx
  000ed	e8 00 00 00 00	 call	 ?set_client_server_entity_weapon_damage@@YGXPAUENTITY@@HHH@Z ; set_client_server_entity_weapon_damage

; 108  : 
; 109  : 	set_client_server_entity_weapon_damage (en, HIND_LHS_FLARE_DISPENSER, ENTITY_SUB_TYPE_WEAPON_FLARE, hind_damage.lhs_flare_dispensers);

  000f2	a1 00 00 00 00	 mov	 eax, DWORD PTR ?hind_damage@@3THIND_DAMAGE_FLAGS@@A ; hind_damage
  000f7	c1 e8 1e	 shr	 eax, 30			; 0000001eH
  000fa	83 e0 01	 and	 eax, 1
  000fd	50		 push	 eax
  000fe	6a 44		 push	 68			; 00000044H
  00100	6a 07		 push	 7
  00102	8b 4d fc	 mov	 ecx, DWORD PTR _en$[ebp]
  00105	51		 push	 ecx
  00106	e8 00 00 00 00	 call	 ?set_client_server_entity_weapon_damage@@YGXPAUENTITY@@HHH@Z ; set_client_server_entity_weapon_damage

; 110  : 	set_client_server_entity_weapon_damage (en, HIND_RHS_FLARE_DISPENSER, ENTITY_SUB_TYPE_WEAPON_FLARE, hind_damage.rhs_flare_dispensers);

  0010b	a1 00 00 00 00	 mov	 eax, DWORD PTR ?hind_damage@@3THIND_DAMAGE_FLAGS@@A ; hind_damage
  00110	c1 e8 1f	 shr	 eax, 31			; 0000001fH
  00113	83 e0 01	 and	 eax, 1
  00116	50		 push	 eax
  00117	6a 44		 push	 68			; 00000044H
  00119	6a 08		 push	 8
  0011b	8b 4d fc	 mov	 ecx, DWORD PTR _en$[ebp]
  0011e	51		 push	 ecx
  0011f	e8 00 00 00 00	 call	 ?set_client_server_entity_weapon_damage@@YGXPAUENTITY@@HHH@Z ; set_client_server_entity_weapon_damage

; 111  : 
; 112  : 	//
; 113  : 	// check if selected weapon is still available, if not, select next
; 114  : 	//
; 115  : 
; 116  : 	weapon_sub_type = get_local_entity_int_value (en, INT_TYPE_SELECTED_WEAPON);

  00124	83 7d fc 00	 cmp	 DWORD PTR _en$[ebp], 0
  00128	74 0a		 je	 SHORT $LN5@set_hind_w
  0012a	8b 45 fc	 mov	 eax, DWORD PTR _en$[ebp]
  0012d	8b 08		 mov	 ecx, DWORD PTR [eax]
  0012f	89 4d b4	 mov	 DWORD PTR tv168[ebp], ecx
  00132	eb 21		 jmp	 SHORT $LN6@set_hind_w
$LN5@set_hind_w:
  00134	8b 15 00 00 00
	00		 mov	 edx, DWORD PTR ?__LINE__Var@?0??set_hind_weapon_damage_status@@YGXXZ@4JA
  0013a	83 c2 1d	 add	 edx, 29			; 0000001dH
  0013d	52		 push	 edx
  0013e	68 00 00 00 00	 push	 OFFSET ??_C@_0EM@MBPMPMLI@c?3?2users?2nhv90?2projects?2eech?2ap@
  00143	a1 00 00 00 00	 mov	 eax, DWORD PTR ?null_entity_pointer_message@@3PBDB ; null_entity_pointer_message
  00148	50		 push	 eax
  00149	e8 00 00 00 00	 call	 ?process_assert@@YGXPBD0H@Z ; process_assert
  0014e	c7 45 b4 00 00
	00 00		 mov	 DWORD PTR tv168[ebp], 0
$LN6@set_hind_w:
  00155	b9 01 00 00 00	 mov	 ecx, 1
  0015a	85 c9		 test	 ecx, ecx
  0015c	74 09		 je	 SHORT $LN7@set_hind_w
  0015e	c7 45 b0 b8 00
	00 00		 mov	 DWORD PTR tv176[ebp], 184 ; 000000b8H
  00165	eb 21		 jmp	 SHORT $LN8@set_hind_w
$LN7@set_hind_w:
  00167	8b 15 00 00 00
	00		 mov	 edx, DWORD PTR ?__LINE__Var@?0??set_hind_weapon_damage_status@@YGXXZ@4JA
  0016d	83 c2 1d	 add	 edx, 29			; 0000001dH
  00170	52		 push	 edx
  00171	68 00 00 00 00	 push	 OFFSET ??_C@_0EM@MBPMPMLI@c?3?2users?2nhv90?2projects?2eech?2ap@
  00176	a1 00 00 00 00	 mov	 eax, DWORD PTR ?overload_invalid_int_type_message@@3PBDB ; overload_invalid_int_type_message
  0017b	50		 push	 eax
  0017c	e8 00 00 00 00	 call	 ?process_assert@@YGXPBD0H@Z ; process_assert
  00181	c7 45 b0 00 00
	00 00		 mov	 DWORD PTR tv176[ebp], 0
$LN8@set_hind_w:
  00188	68 b8 00 00 00	 push	 184			; 000000b8H
  0018d	8b 4d fc	 mov	 ecx, DWORD PTR _en$[ebp]
  00190	51		 push	 ecx
  00191	69 55 b4 5c 04
	00 00		 imul	 edx, DWORD PTR tv168[ebp], 1116
  00198	8b 45 b0	 mov	 eax, DWORD PTR tv176[ebp]
  0019b	8b 8c 82 00 00
	00 00		 mov	 ecx, DWORD PTR ?fn_get_local_entity_int_value@@3PAY0BBH@P6GHPAUENTITY@@W4INT_TYPES@@@ZA[edx+eax*4]
  001a2	ff d1		 call	 ecx
  001a4	89 45 f8	 mov	 DWORD PTR _weapon_sub_type$[ebp], eax

; 117  : 
; 118  : 	if (weapon_sub_type != ENTITY_SUB_TYPE_WEAPON_NO_WEAPON)

  001a7	83 7d f8 00	 cmp	 DWORD PTR _weapon_sub_type$[ebp], 0
  001ab	74 26		 je	 SHORT $LN1@set_hind_w

; 119  : 	{
; 120  : 		if (!get_local_entity_weapon_available (en, weapon_sub_type))

  001ad	8b 45 f8	 mov	 eax, DWORD PTR _weapon_sub_type$[ebp]
  001b0	50		 push	 eax
  001b1	8b 4d fc	 mov	 ecx, DWORD PTR _en$[ebp]
  001b4	51		 push	 ecx
  001b5	e8 00 00 00 00	 call	 ?get_local_entity_weapon_available@@YGHPAUENTITY@@H@Z ; get_local_entity_weapon_available
  001ba	85 c0		 test	 eax, eax
  001bc	75 15		 jne	 SHORT $LN1@set_hind_w

; 121  : 		{
; 122  : 			weapon_sub_type = get_next_available_weapon_sub_type (en);

  001be	8b 45 fc	 mov	 eax, DWORD PTR _en$[ebp]
  001c1	50		 push	 eax
  001c2	e8 00 00 00 00	 call	 ?get_next_available_weapon_sub_type@@YGHPAUENTITY@@@Z ; get_next_available_weapon_sub_type
  001c7	89 45 f8	 mov	 DWORD PTR _weapon_sub_type$[ebp], eax

; 123  : 
; 124  : 			set_gunship_weapon (weapon_sub_type);

  001ca	8b 45 f8	 mov	 eax, DWORD PTR _weapon_sub_type$[ebp]
  001cd	50		 push	 eax
  001ce	e8 00 00 00 00	 call	 ?set_gunship_weapon@@YGXH@Z ; set_gunship_weapon
$LN1@set_hind_w:

; 125  : 		}
; 126  : 	}
; 127  : }

  001d3	5f		 pop	 edi
  001d4	5e		 pop	 esi
  001d5	5b		 pop	 ebx
  001d6	8b e5		 mov	 esp, ebp
  001d8	5d		 pop	 ebp
  001d9	c3		 ret	 0
?set_hind_weapon_damage_status@@YGXXZ ENDP		; set_hind_weapon_damage_status
_TEXT	ENDS
END
