; Listing generated by Microsoft (R) Optimizing Compiler Version 19.16.27045.0 

	TITLE	C:\Users\nhv90\Projects\eech\aphavoc\source\gunships\dynamics\hind\hi_dyn.c
	.686P
	.XMM
	include listing.inc
	.model	flat

INCLUDELIB MSVCRTD
INCLUDELIB OLDNAMES

PUBLIC	___local_stdio_printf_options
PUBLIC	__vsnprintf_l
PUBLIC	__vsprintf_l
PUBLIC	_sprintf
PUBLIC	_asinf
PUBLIC	_fabsf
PUBLIC	_powf
PUBLIC	_sinf
PUBLIC	?pow@@YGNNH@Z					; pow
PUBLIC	?asin@@YGMM@Z					; asin
PUBLIC	?fabs@@YGMM@Z					; fabs
PUBLIC	?pow@@YGMMM@Z					; pow
PUBLIC	?pow@@YGMMH@Z					; pow
PUBLIC	?sin@@YGMM@Z					; sin
PUBLIC	?initialise_hind_advanced_dynamics@@YGXPAUENTITY@@@Z ; initialise_hind_advanced_dynamics
PUBLIC	?update_hind_advanced_dynamics@@YGXXZ		; update_hind_advanced_dynamics
PUBLIC	??$max@M@std@@YGABMABM0@Z			; std::max<float>
PUBLIC	??$max@N@std@@YGABNABN0@Z			; std::max<double>
PUBLIC	??$min@N@std@@YGABNABN0@Z			; std::min<double>
PUBLIC	??$min@M@std@@YGABMABM0@Z			; std::min<float>
PUBLIC	?hind_restore_damage_values@@YGXXZ		; hind_restore_damage_values
PUBLIC	?_OptionsStorage@?1??__local_stdio_printf_options@@9@4_KA ; `__local_stdio_printf_options'::`2'::_OptionsStorage
PUBLIC	??_C@_02DKCKIIND@?$CFs@				; `string'
PUBLIC	??_C@_0BI@JEIEOBCF@?4?4?2common?2data?2hind?4dyn@ ; `string'
PUBLIC	?__LINE__Var@?0??set_dynamics_defaults@@YGXPAUENTITY@@@Z@4JA ; `set_dynamics_defaults'::`1'::__LINE__Var
PUBLIC	??_C@_0EM@BHCFJHIE@c?3?2users?2nhv90?2projects?2eech?2ap@ ; `string'
PUBLIC	?__LINE__Var@?0??update_attitude_dynamics@@YGXXZ@4JA ; `update_attitude_dynamics'::`1'::__LINE__Var
PUBLIC	??_C@_0BD@EHBODOFB@DYNAMICS?3?5UNSTABLE@	; `string'
PUBLIC	??_C@_0O@DAHLPFDH@Taxiing?5force@		; `string'
PUBLIC	??_C@_0BD@BBEFFKGJ@Middle?5rotor?5force@	; `string'
PUBLIC	??_C@_0BC@MEMJFFEH@Front?5rotor?5force@		; `string'
PUBLIC	??_C@_0BB@LJEAAOI@Back?5rotor?5force@		; `string'
PUBLIC	??_C@_0BB@JNCAICOI@Left?5rotor?5force@		; `string'
PUBLIC	??_C@_0BC@BCPABIID@Right?5rotor?5force@		; `string'
PUBLIC	??_C@_0BJ@INGIGFJO@Angular?5tail?5rotor?5force@	; `string'
PUBLIC	??_C@_07JMGDFJEK@Gravity@			; `string'
PUBLIC	??_C@_0BC@GCGACPAK@Transitional?5lift@		; `string'
PUBLIC	??_C@_0BH@HFGLNDFM@Retreating?5blade?5stall@	; `string'
PUBLIC	??_C@_0BG@LPCPLOKH@Advancing?5blade?5stall@	; `string'
PUBLIC	??_C@_0O@JIJAGCOD@Sonic?5buildup@		; `string'
PUBLIC	??_C@_0BK@DILBAPLM@Main?5rotor?5angular?5torque@ ; `string'
PUBLIC	??_C@_0BB@FPOJGHNF@Pitch?5resistance@		; `string'
PUBLIC	??_C@_0BA@JHNCKIDL@Roll?5resistance@		; `string'
PUBLIC	??_C@_0P@OJCKBBIP@Yaw?5resistance@		; `string'
PUBLIC	??_C@_0BH@EICDHFJI@Realign?5force?5?$CIY?5axis?$CJ@ ; `string'
PUBLIC	??_C@_0BH@IEIJHFAG@Realign?5force?5?$CIX?5axis?$CJ@ ; `string'
PUBLIC	??_C@_0BO@BHAFBPMJ@Forward?5motion?5Yaw?5input?5drag@ ; `string'
PUBLIC	??_C@_0BE@JPPEFMCN@Forward?5motion?5drag@	; `string'
PUBLIC	??_C@_0BE@DICEDONG@Lateral?5motion?5drag@	; `string'
PUBLIC	??_C@_0BF@LAMOPNAJ@Vertical?5motion?5drag@	; `string'
PUBLIC	??_C@_0BL@CBNCBPEP@Middle?5rotor?5Ground?5effect@ ; `string'
PUBLIC	??_C@_0BK@BDABDLEI@Front?5rotor?5Ground?5effect@ ; `string'
PUBLIC	??_C@_0BJ@MKNEGMFL@Back?5rotor?5Ground?5effect@	; `string'
PUBLIC	??_C@_0BJ@KEABEFD@Left?5rotor?5Ground?5effect@	; `string'
PUBLIC	??_C@_0BK@ONPBLKKA@Right?5rotor?5Ground?5effect@ ; `string'
PUBLIC	??_C@_0BC@MPODPIKD@Vortex?5ring?5force@		; `string'
PUBLIC	??_C@_04LGBIOLDJ@Wind@				; `string'
PUBLIC	??_C@_0BG@EBOEKGCA@Ground?5Friction?5force@	; `string'
PUBLIC	?__LINE__Var@?0??update_acceleration_dynamics@@YGXXZ@4JA ; `update_acceleration_dynamics'::`1'::__LINE__Var
PUBLIC	??_C@_0BD@FEEMDEPI@invalid?5comparator@		; `string'
PUBLIC	??_C@_0GK@JMBMHIBC@c?3?2program?5files?5?$CIx86?$CJ?2microsof@ ; `string'
PUBLIC	??_C@_1NE@FKBPBJEB@?$AAc?$AA?3?$AA?2?$AAp?$AAr?$AAo?$AAg?$AAr?$AAa?$AAm?$AA?5?$AAf?$AAi?$AAl?$AAe@ ; `string'
PUBLIC	??_C@_1BC@ICCOKLEG@?$AAs?$AAt?$AAd?$AA?3?$AA?3?$AAm?$AAa?$AAx@ ; `string'
PUBLIC	??_C@_1CK@NDNHPKPI@?$AA?$CC?$AAi?$AAn?$AAv?$AAa?$AAl?$AAi?$AAd?$AA?5?$AAc?$AAo?$AAm?$AAp?$AAa?$AAr@ ; `string'
PUBLIC	??_C@_1BC@BLAPCBGI@?$AAs?$AAt?$AAd?$AA?3?$AA?3?$AAm?$AAi?$AAn@ ; `string'
PUBLIC	__real@00000000
PUBLIC	__real@0000000000000000
PUBLIC	__real@3aa3d70a
PUBLIC	__real@3b23d70a
PUBLIC	__real@3c23d70a
PUBLIC	__real@3c8efa35
PUBLIC	__real@3d0efa35
PUBLIC	__real@3da88ce7
PUBLIC	__real@3db2b8c2
PUBLIC	__real@3dc49809
PUBLIC	__real@3dcccccd
PUBLIC	__real@3e060a92
PUBLIC	__real@3e3020c5
PUBLIC	__real@3e99999a
PUBLIC	__real@3ecccccd
PUBLIC	__real@3ecda922
PUBLIC	__real@3f000000
PUBLIC	__real@3f00002000400080
PUBLIC	__real@3f0ccccd
PUBLIC	__real@3f10000000000000
PUBLIC	__real@3f1a36e2eb1c432d
PUBLIC	__real@3f364840e1719f80
PUBLIC	__real@3f50624dd2f1a9fc
PUBLIC	__real@3f666666
PUBLIC	__real@3f689374bc6a7efa
PUBLIC	__real@3f800000
PUBLIC	__real@3f8b4cc25072085c
PUBLIC	__real@3f99999a
PUBLIC	__real@3fa16872b020c49c
PUBLIC	__real@3fa999999999999a
PUBLIC	__real@3fb999999999999a
PUBLIC	__real@3fc00000
PUBLIC	__real@3fc999999999999a
PUBLIC	__real@3fd0000000000000
PUBLIC	__real@3fd3333333333333
PUBLIC	__real@3fd999999999999a
PUBLIC	__real@3fe0000000000000
PUBLIC	__real@3fe3333333333333
PUBLIC	__real@3fe4cccccccccccd
PUBLIC	__real@3fe8000000000000
PUBLIC	__real@3feccccccccccccd
PUBLIC	__real@3ff0000000000000
PUBLIC	__real@3ff8000000000000
PUBLIC	__real@40000000
PUBLIC	__real@4000000000000000
PUBLIC	__real@4008000000000000
PUBLIC	__real@400921fb60000000
PUBLIC	__real@4010000000000000
PUBLIC	__real@4012000000000000
PUBLIC	__real@4014000000000000
PUBLIC	__real@4020000000000000
PUBLIC	__real@4024000000000000
PUBLIC	__real@402e000000000000
PUBLIC	__real@4030000000000000
PUBLIC	__real@40309d14e3bcd35b
PUBLIC	__real@4034000000000000
PUBLIC	__real@403e000000000000
PUBLIC	__real@403eec14e0000000
PUBLIC	__real@40400000
PUBLIC	__real@4041800000000000
PUBLIC	__real@4046800000000000
PUBLIC	__real@404b800000000000
PUBLIC	__real@404e000000000000
PUBLIC	__real@4059000000000000
PUBLIC	__real@405e000000000000
PUBLIC	__real@405f400000000000
PUBLIC	__real@40600000
PUBLIC	__real@4079999a
PUBLIC	__real@40900000
PUBLIC	__real@4099c40000000000
PUBLIC	__real@40a00000
PUBLIC	__real@40a4eb1a
PUBLIC	__real@40c90fdb
PUBLIC	__real@40e99168
PUBLIC	__real@41000000
PUBLIC	__real@41100000
PUBLIC	__real@411cf5c3
PUBLIC	__real@41200000
PUBLIC	__real@412970a4
PUBLIC	__real@4131999a
PUBLIC	__real@41700000
PUBLIC	__real@417b3333
PUBLIC	__real@418a6666
PUBLIC	__real@41a00000
PUBLIC	__real@41d00000
PUBLIC	__real@41f00000
PUBLIC	__real@41f760a7
PUBLIC	__real@41fb53d2
PUBLIC	__real@42200000
PUBLIC	__real@42480000
PUBLIC	__real@42652ee0
PUBLIC	__real@42c80000
PUBLIC	__real@42cb0e45
PUBLIC	__real@42ce25e0
PUBLIC	__real@42f00000
PUBLIC	__real@44480000
PUBLIC	__real@447a0000
PUBLIC	__real@44ce2000
PUBLIC	__real@44d70000
PUBLIC	__real@450b6000
PUBLIC	__real@46025000
PUBLIC	__real@461c4000
PUBLIC	__real@469c4000
PUBLIC	__real@bba3d70a
PUBLIC	__real@bd0efa35
PUBLIC	__real@bd0f5c29
PUBLIC	__real@bd4ccccd
PUBLIC	__real@bd567750
PUBLIC	__real@bda44a62
PUBLIC	__real@bdc49809
PUBLIC	__real@be4ccccd
PUBLIC	__real@bf800000
PUBLIC	__real@bfd999999999999a
PUBLIC	__real@bff0000000000000
PUBLIC	__real@c000000000000000
PUBLIC	__real@c024000000000000
PUBLIC	__real@c0400000
PUBLIC	__real@c059000000000000
PUBLIC	__real@c0a00000
PUBLIC	__real@c0c90fdb
PUBLIC	__real@c0e00000
PUBLIC	__real@c0e99168
PUBLIC	__real@c10547ae
PUBLIC	__real@c1200000
PUBLIC	__real@c131999a
PUBLIC	__real@c1855555
PUBLIC	__real@c1a00000
PUBLIC	__real@c2200000
PUBLIC	__real@c2c80000
PUBLIC	__real@c47a0000
PUBLIC	__xmm@80000000000000008000000000000000
PUBLIC	__xmm@80000000800000008000000080000000
EXTRN	__imp___invalid_parameter:PROC
EXTRN	__imp____stdio_common_vsprintf:PROC
EXTRN	_memset:PROC
EXTRN	__imp___CrtDbgReport:PROC
EXTRN	_asin:PROC
EXTRN	_exp:PROC
EXTRN	_fabs:PROC
EXTRN	_pow:PROC
EXTRN	_sin:PROC
EXTRN	?process_assert@@YGXPBD0H@Z:PROC		; process_assert
EXTRN	?debug_log@@YAXPBDZZ:PROC			; debug_log
EXTRN	?normalise_any_3d_vector@@YGMPAUVEC3D@@@Z:PROC	; normalise_any_3d_vector
EXTRN	?get_3d_vector_magnitude@@YGMPBUVEC3D@@@Z:PROC	; get_3d_vector_magnitude
EXTRN	?invert_3d_vector@@YGXPAUVEC3D@@@Z:PROC		; invert_3d_vector
EXTRN	?multiply_matrix3x3_vec3d@@YGXPAUVEC3D@@QAY02$$CBMPBU1@@Z:PROC ; multiply_matrix3x3_vec3d
EXTRN	?multiply_transpose_matrix3x3_vec3d@@YGXPAUVEC3D@@QAY02$$CBMPBU1@@Z:PROC ; multiply_transpose_matrix3x3_vec3d
EXTRN	?get_identity_matrix3x3@@YGXQAY02M@Z:PROC	; get_identity_matrix3x3
EXTRN	?get_3d_terrain_point_data@@YGMMMPAUTERRAIN_3D_POINT_DATA@@@Z:PROC ; get_3d_terrain_point_data
EXTRN	?get_3d_terrain_point_data_elevation@@YGMPAUTERRAIN_3D_POINT_DATA@@@Z:PROC ; get_3d_terrain_point_data_elevation
EXTRN	?get_3d_terrain_point_data_type@@YGHPAUTERRAIN_3D_POINT_DATA@@@Z:PROC ; get_3d_terrain_point_data_type
EXTRN	?bound_position_to_adjusted_map_volume@@YGHPAUVEC3D@@@Z:PROC ; bound_position_to_adjusted_map_volume
EXTRN	?bound_double_position_to_adjusted_map_volume@@YGHPAUDOUBLE_VEC3D@@@Z:PROC ; bound_double_position_to_adjusted_map_volume
EXTRN	?helicopter_within_keysite_area@@YGHPAUENTITY@@@Z:PROC ; helicopter_within_keysite_area
EXTRN	?play_client_server_cpg_message@@YGHPAUENTITY@@MMHMH@Z:PROC ; play_client_server_cpg_message
EXTRN	?play_client_server_warning_message@@YGHPAUENTITY@@H@Z:PROC ; play_client_server_warning_message
EXTRN	?get_session_wind_velocity_at_point@@YGMPAUVEC3D@@0@Z:PROC ; get_session_wind_velocity_at_point
EXTRN	?dynamics_damage_model@@YGXIH@Z:PROC		; dynamics_damage_model
EXTRN	?set_current_dynamics_options@@YGXW4DYNAMICS_OPTIONS_TYPES@@H@Z:PROC ; set_current_dynamics_options
EXTRN	?add_dynamic_force@@YGXPBDMMPAUVEC3D@@1H@Z:PROC	; add_dynamic_force
EXTRN	?update_dynamic_forces@@YGXXZ:PROC		; update_dynamic_forces
EXTRN	?resolve_dynamic_forces@@YGXXZ:PROC		; resolve_dynamic_forces
EXTRN	?update_common_attitude_dynamics@@YGXXZ:PROC	; update_common_attitude_dynamics
EXTRN	?update_apu_rpm_dynamics@@YGXXZ:PROC		; update_apu_rpm_dynamics
EXTRN	?update_engine_rpm_dynamics@@YGXH@Z:PROC	; update_engine_rpm_dynamics
EXTRN	?update_engine_temperature_dynamics@@YGXH@Z:PROC ; update_engine_temperature_dynamics
EXTRN	?update_dynamics_external_values@@YGXXZ:PROC	; update_dynamics_external_values
EXTRN	?get_current_dynamics_options@@YGHW4DYNAMICS_OPTIONS_TYPES@@@Z:PROC ; get_current_dynamics_options
EXTRN	?set_flight_dynamics_mass@@YGMXZ:PROC		; set_flight_dynamics_mass
EXTRN	?create_rotor_vibration@@YGXM@Z:PROC		; create_rotor_vibration
EXTRN	?get_terrain_type_class@@YG?AW4TERRAIN_CLASSES@@H@Z:PROC ; get_terrain_type_class
EXTRN	?update_undercarriage_dynamics@@YGXXZ:PROC	; update_undercarriage_dynamics
EXTRN	?random_number_seed@@3HA:DWORD			; random_number_seed
EXTRN	?command_line_dynamics_advanced_engine_model@@3HA:DWORD ; command_line_dynamics_advanced_engine_model
EXTRN	?command_line_dynamics_flight_model@@3HA:DWORD	; command_line_dynamics_flight_model
EXTRN	?command_line_dynamics_retreating_blade_stall_effect@@3MA:DWORD ; command_line_dynamics_retreating_blade_stall_effect
EXTRN	?command_line_dynamics_main_rotor_drag@@3MA:DWORD ; command_line_dynamics_main_rotor_drag
EXTRN	?command_line_dynamics_main_rotor_lift@@3MA:DWORD ; command_line_dynamics_main_rotor_lift
EXTRN	?command_line_dynamics_tail_rotor_drag@@3MA:DWORD ; command_line_dynamics_tail_rotor_drag
EXTRN	?command_line_dynamics_yaw_altitude_loss@@3MA:DWORD ; command_line_dynamics_yaw_altitude_loss
EXTRN	?null_entity_pointer_message@@3PBDB:DWORD	; null_entity_pointer_message
EXTRN	?global_options@@3UGLOBAL_OPTIONS_DATA@@A:BYTE	; global_options
EXTRN	?system_comms_model@@3W4COMMS_MODEL_TYPES@@A:DWORD ; system_comms_model
EXTRN	?world_map@@3UWORLD_MAP_DATA@@A:BYTE		; world_map
EXTRN	?overload_invalid_list_type_message@@3PBDB:DWORD ; overload_invalid_list_type_message
EXTRN	?fn_get_local_entity_parent@@3PAY0CN@P6GPAUENTITY@@PAU1@W4LIST_TYPES@@@ZA:BYTE ; fn_get_local_entity_parent
EXTRN	?fn_get_local_entity_attitude_matrix@@3PAP6GXPAUENTITY@@QAY02M@ZA:BYTE ; fn_get_local_entity_attitude_matrix
EXTRN	?fn_kill_client_server_entity@@3PAY01P6GXPAUENTITY@@@ZA:BYTE ; fn_kill_client_server_entity
EXTRN	?overload_invalid_float_type_message@@3PBDB:DWORD ; overload_invalid_float_type_message
EXTRN	?fn_set_client_server_entity_float_value@@3PAY1KP@1P6GXPAUENTITY@@W4FLOAT_TYPES@@M@ZA:BYTE ; fn_set_client_server_entity_float_value
EXTRN	?fn_get_local_entity_float_value@@3PAY0KP@P6GMPAUENTITY@@W4FLOAT_TYPES@@@ZA:BYTE ; fn_get_local_entity_float_value
EXTRN	?overload_invalid_int_type_message@@3PBDB:DWORD	; overload_invalid_int_type_message
EXTRN	?fn_set_client_server_entity_int_value@@3PAY1BBH@1P6GXPAUENTITY@@W4INT_TYPES@@H@ZA:BYTE ; fn_set_client_server_entity_int_value
EXTRN	?fn_get_local_entity_int_value@@3PAY0BBH@P6GHPAUENTITY@@W4INT_TYPES@@@ZA:BYTE ; fn_get_local_entity_int_value
EXTRN	?overload_invalid_vec3d_type_message@@3PBDB:DWORD ; overload_invalid_vec3d_type_message
EXTRN	?fn_set_client_server_entity_vec3d@@3PAY1BI@1P6GXPAUENTITY@@W4VEC3D_TYPES@@PAUVEC3D@@@ZA:BYTE ; fn_set_client_server_entity_vec3d
EXTRN	?fn_get_local_entity_vec3d@@3PAY0BI@P6GXPAUENTITY@@W4VEC3D_TYPES@@PAUVEC3D@@@ZA:BYTE ; fn_get_local_entity_vec3d
EXTRN	?aircraft_database@@3PAUAIRCRAFT_DATA@@A:BYTE	; aircraft_database
EXTRN	?gunship_entity@@3PAUENTITY@@A:DWORD		; gunship_entity
EXTRN	?fixed_collision_count@@3HA:DWORD		; fixed_collision_count
EXTRN	?current_flight_dynamics@@3PAUDYNAMICS_TYPE@@A:DWORD ; current_flight_dynamics
EXTRN	?parser_flight_dynamics_options@@3HA:DWORD	; parser_flight_dynamics_options
EXTRN	__fltused:DWORD
;	COMDAT ?_OptionsStorage@?1??__local_stdio_printf_options@@9@4_KA
_BSS	SEGMENT
?_OptionsStorage@?1??__local_stdio_printf_options@@9@4_KA DQ 01H DUP (?) ; `__local_stdio_printf_options'::`2'::_OptionsStorage
_BSS	ENDS
_BSS	SEGMENT
?advanced_flight_dynamics@@3UDYNAMICS_TYPE@@A DB 02540H DUP (?) ; advanced_flight_dynamics
?right_g_e_force@@3MA DD 01H DUP (?)			; right_g_e_force
?left_g_e_force@@3MA DD 01H DUP (?)			; left_g_e_force
?back_g_e_force@@3MA DD 01H DUP (?)			; back_g_e_force
?front_g_e_force@@3MA DD 01H DUP (?)			; front_g_e_force
?this_reaction_force@@3MA DD 01H DUP (?)		; this_reaction_force
?centre_of_gravity@@3UVEC3D@@A DB 0cH DUP (?)		; centre_of_gravity
?time@?BM@??update_main_rotor_rpm_dynamics@@YGXXZ@4MA DD 01H DUP (?) ; `update_main_rotor_rpm_dynamics'::`28'::time
?time@?GP@??update_attitude_dynamics@@YGXXZ@4MA DD 01H DUP (?) ; `update_attitude_dynamics'::`111'::time
?v@?HI@??update_attitude_dynamics@@YGXXZ@4MA DD 01H DUP (?) ; `update_attitude_dynamics'::`120'::v
?relative_air_flow_angle@?HI@??update_attitude_dynamics@@YGXXZ@4MA DD 01H DUP (?) ; `update_attitude_dynamics'::`120'::relative_air_flow_angle
?torque@?HI@??update_attitude_dynamics@@YGXXZ@4MA DD 01H DUP (?) ; `update_attitude_dynamics'::`120'::torque
?force@?OP@??update_attitude_dynamics@@YGXXZ@4MA DD 01H DUP (?) ; `update_attitude_dynamics'::`239'::force
?desired_force@?OP@??update_attitude_dynamics@@YGXXZ@4MA DD 01H DUP (?) ; `update_attitude_dynamics'::`239'::desired_force
_BSS	ENDS
;	COMDAT __xmm@80000000800000008000000080000000
CONST	SEGMENT
__xmm@80000000800000008000000080000000 DB 00H, 00H, 00H, 080H, 00H, 00H, 00H
	DB	080H, 00H, 00H, 00H, 080H, 00H, 00H, 00H, 080H
CONST	ENDS
;	COMDAT __xmm@80000000000000008000000000000000
CONST	SEGMENT
__xmm@80000000000000008000000000000000 DB 00H, 00H, 00H, 00H, 00H, 00H, 00H
	DB	080H, 00H, 00H, 00H, 00H, 00H, 00H, 00H, 080H
CONST	ENDS
;	COMDAT __real@c47a0000
CONST	SEGMENT
__real@c47a0000 DD 0c47a0000r			; -1000
CONST	ENDS
;	COMDAT __real@c2c80000
CONST	SEGMENT
__real@c2c80000 DD 0c2c80000r			; -100
CONST	ENDS
;	COMDAT __real@c2200000
CONST	SEGMENT
__real@c2200000 DD 0c2200000r			; -40
CONST	ENDS
;	COMDAT __real@c1a00000
CONST	SEGMENT
__real@c1a00000 DD 0c1a00000r			; -20
CONST	ENDS
;	COMDAT __real@c1855555
CONST	SEGMENT
__real@c1855555 DD 0c1855555r			; -16.6667
CONST	ENDS
;	COMDAT __real@c131999a
CONST	SEGMENT
__real@c131999a DD 0c131999ar			; -11.1
CONST	ENDS
;	COMDAT __real@c1200000
CONST	SEGMENT
__real@c1200000 DD 0c1200000r			; -10
CONST	ENDS
;	COMDAT __real@c10547ae
CONST	SEGMENT
__real@c10547ae DD 0c10547aer			; -8.33
CONST	ENDS
;	COMDAT __real@c0e99168
CONST	SEGMENT
__real@c0e99168 DD 0c0e99168r			; -7.299
CONST	ENDS
;	COMDAT __real@c0e00000
CONST	SEGMENT
__real@c0e00000 DD 0c0e00000r			; -7
CONST	ENDS
;	COMDAT __real@c0c90fdb
CONST	SEGMENT
__real@c0c90fdb DD 0c0c90fdbr			; -6.28319
CONST	ENDS
;	COMDAT __real@c0a00000
CONST	SEGMENT
__real@c0a00000 DD 0c0a00000r			; -5
CONST	ENDS
;	COMDAT __real@c059000000000000
CONST	SEGMENT
__real@c059000000000000 DQ 0c059000000000000r	; -100
CONST	ENDS
;	COMDAT __real@c0400000
CONST	SEGMENT
__real@c0400000 DD 0c0400000r			; -3
CONST	ENDS
;	COMDAT __real@c024000000000000
CONST	SEGMENT
__real@c024000000000000 DQ 0c024000000000000r	; -10
CONST	ENDS
;	COMDAT __real@c000000000000000
CONST	SEGMENT
__real@c000000000000000 DQ 0c000000000000000r	; -2
CONST	ENDS
;	COMDAT __real@bff0000000000000
CONST	SEGMENT
__real@bff0000000000000 DQ 0bff0000000000000r	; -1
CONST	ENDS
;	COMDAT __real@bfd999999999999a
CONST	SEGMENT
__real@bfd999999999999a DQ 0bfd999999999999ar	; -0.4
CONST	ENDS
;	COMDAT __real@bf800000
CONST	SEGMENT
__real@bf800000 DD 0bf800000r			; -1
CONST	ENDS
;	COMDAT __real@be4ccccd
CONST	SEGMENT
__real@be4ccccd DD 0be4ccccdr			; -0.2
CONST	ENDS
;	COMDAT __real@bdc49809
CONST	SEGMENT
__real@bdc49809 DD 0bdc49809r			; -0.0959931
CONST	ENDS
;	COMDAT __real@bda44a62
CONST	SEGMENT
__real@bda44a62 DD 0bda44a62r			; -0.08022
CONST	ENDS
;	COMDAT __real@bd567750
CONST	SEGMENT
__real@bd567750 DD 0bd567750r			; -0.0523599
CONST	ENDS
;	COMDAT __real@bd4ccccd
CONST	SEGMENT
__real@bd4ccccd DD 0bd4ccccdr			; -0.05
CONST	ENDS
;	COMDAT __real@bd0f5c29
CONST	SEGMENT
__real@bd0f5c29 DD 0bd0f5c29r			; -0.035
CONST	ENDS
;	COMDAT __real@bd0efa35
CONST	SEGMENT
__real@bd0efa35 DD 0bd0efa35r			; -0.0349066
CONST	ENDS
;	COMDAT __real@bba3d70a
CONST	SEGMENT
__real@bba3d70a DD 0bba3d70ar			; -0.005
CONST	ENDS
;	COMDAT __real@469c4000
CONST	SEGMENT
__real@469c4000 DD 0469c4000r			; 20000
CONST	ENDS
;	COMDAT __real@461c4000
CONST	SEGMENT
__real@461c4000 DD 0461c4000r			; 10000
CONST	ENDS
;	COMDAT __real@46025000
CONST	SEGMENT
__real@46025000 DD 046025000r			; 8340
CONST	ENDS
;	COMDAT __real@450b6000
CONST	SEGMENT
__real@450b6000 DD 0450b6000r			; 2230
CONST	ENDS
;	COMDAT __real@44d70000
CONST	SEGMENT
__real@44d70000 DD 044d70000r			; 1720
CONST	ENDS
;	COMDAT __real@44ce2000
CONST	SEGMENT
__real@44ce2000 DD 044ce2000r			; 1649
CONST	ENDS
;	COMDAT __real@447a0000
CONST	SEGMENT
__real@447a0000 DD 0447a0000r			; 1000
CONST	ENDS
;	COMDAT __real@44480000
CONST	SEGMENT
__real@44480000 DD 044480000r			; 800
CONST	ENDS
;	COMDAT __real@42f00000
CONST	SEGMENT
__real@42f00000 DD 042f00000r			; 120
CONST	ENDS
;	COMDAT __real@42ce25e0
CONST	SEGMENT
__real@42ce25e0 DD 042ce25e0r			; 103.074
CONST	ENDS
;	COMDAT __real@42cb0e45
CONST	SEGMENT
__real@42cb0e45 DD 042cb0e45r			; 101.528
CONST	ENDS
;	COMDAT __real@42c80000
CONST	SEGMENT
__real@42c80000 DD 042c80000r			; 100
CONST	ENDS
;	COMDAT __real@42652ee0
CONST	SEGMENT
__real@42652ee0 DD 042652ee0r			; 57.2958
CONST	ENDS
;	COMDAT __real@42480000
CONST	SEGMENT
__real@42480000 DD 042480000r			; 50
CONST	ENDS
;	COMDAT __real@42200000
CONST	SEGMENT
__real@42200000 DD 042200000r			; 40
CONST	ENDS
;	COMDAT __real@41fb53d2
CONST	SEGMENT
__real@41fb53d2 DD 041fb53d2r			; 31.4159
CONST	ENDS
;	COMDAT __real@41f760a7
CONST	SEGMENT
__real@41f760a7 DD 041f760a7r			; 30.9222
CONST	ENDS
;	COMDAT __real@41f00000
CONST	SEGMENT
__real@41f00000 DD 041f00000r			; 30
CONST	ENDS
;	COMDAT __real@41d00000
CONST	SEGMENT
__real@41d00000 DD 041d00000r			; 26
CONST	ENDS
;	COMDAT __real@41a00000
CONST	SEGMENT
__real@41a00000 DD 041a00000r			; 20
CONST	ENDS
;	COMDAT __real@418a6666
CONST	SEGMENT
__real@418a6666 DD 0418a6666r			; 17.3
CONST	ENDS
;	COMDAT __real@417b3333
CONST	SEGMENT
__real@417b3333 DD 0417b3333r			; 15.7
CONST	ENDS
;	COMDAT __real@41700000
CONST	SEGMENT
__real@41700000 DD 041700000r			; 15
CONST	ENDS
;	COMDAT __real@4131999a
CONST	SEGMENT
__real@4131999a DD 04131999ar			; 11.1
CONST	ENDS
;	COMDAT __real@412970a4
CONST	SEGMENT
__real@412970a4 DD 0412970a4r			; 10.59
CONST	ENDS
;	COMDAT __real@41200000
CONST	SEGMENT
__real@41200000 DD 041200000r			; 10
CONST	ENDS
;	COMDAT __real@411cf5c3
CONST	SEGMENT
__real@411cf5c3 DD 0411cf5c3r			; 9.81
CONST	ENDS
;	COMDAT __real@41100000
CONST	SEGMENT
__real@41100000 DD 041100000r			; 9
CONST	ENDS
;	COMDAT __real@41000000
CONST	SEGMENT
__real@41000000 DD 041000000r			; 8
CONST	ENDS
;	COMDAT __real@40e99168
CONST	SEGMENT
__real@40e99168 DD 040e99168r			; 7.299
CONST	ENDS
;	COMDAT __real@40c90fdb
CONST	SEGMENT
__real@40c90fdb DD 040c90fdbr			; 6.28319
CONST	ENDS
;	COMDAT __real@40a4eb1a
CONST	SEGMENT
__real@40a4eb1a DD 040a4eb1ar			; 5.1537
CONST	ENDS
;	COMDAT __real@40a00000
CONST	SEGMENT
__real@40a00000 DD 040a00000r			; 5
CONST	ENDS
;	COMDAT __real@4099c40000000000
CONST	SEGMENT
__real@4099c40000000000 DQ 04099c40000000000r	; 1649
CONST	ENDS
;	COMDAT __real@40900000
CONST	SEGMENT
__real@40900000 DD 040900000r			; 4.5
CONST	ENDS
;	COMDAT __real@4079999a
CONST	SEGMENT
__real@4079999a DD 04079999ar			; 3.9
CONST	ENDS
;	COMDAT __real@40600000
CONST	SEGMENT
__real@40600000 DD 040600000r			; 3.5
CONST	ENDS
;	COMDAT __real@405f400000000000
CONST	SEGMENT
__real@405f400000000000 DQ 0405f400000000000r	; 125
CONST	ENDS
;	COMDAT __real@405e000000000000
CONST	SEGMENT
__real@405e000000000000 DQ 0405e000000000000r	; 120
CONST	ENDS
;	COMDAT __real@4059000000000000
CONST	SEGMENT
__real@4059000000000000 DQ 04059000000000000r	; 100
CONST	ENDS
;	COMDAT __real@404e000000000000
CONST	SEGMENT
__real@404e000000000000 DQ 0404e000000000000r	; 60
CONST	ENDS
;	COMDAT __real@404b800000000000
CONST	SEGMENT
__real@404b800000000000 DQ 0404b800000000000r	; 55
CONST	ENDS
;	COMDAT __real@4046800000000000
CONST	SEGMENT
__real@4046800000000000 DQ 04046800000000000r	; 45
CONST	ENDS
;	COMDAT __real@4041800000000000
CONST	SEGMENT
__real@4041800000000000 DQ 04041800000000000r	; 35
CONST	ENDS
;	COMDAT __real@40400000
CONST	SEGMENT
__real@40400000 DD 040400000r			; 3
CONST	ENDS
;	COMDAT __real@403eec14e0000000
CONST	SEGMENT
__real@403eec14e0000000 DQ 0403eec14e0000000r	; 30.9222
CONST	ENDS
;	COMDAT __real@403e000000000000
CONST	SEGMENT
__real@403e000000000000 DQ 0403e000000000000r	; 30
CONST	ENDS
;	COMDAT __real@4034000000000000
CONST	SEGMENT
__real@4034000000000000 DQ 04034000000000000r	; 20
CONST	ENDS
;	COMDAT __real@40309d14e3bcd35b
CONST	SEGMENT
__real@40309d14e3bcd35b DQ 040309d14e3bcd35br	; 16.6136
CONST	ENDS
;	COMDAT __real@4030000000000000
CONST	SEGMENT
__real@4030000000000000 DQ 04030000000000000r	; 16
CONST	ENDS
;	COMDAT __real@402e000000000000
CONST	SEGMENT
__real@402e000000000000 DQ 0402e000000000000r	; 15
CONST	ENDS
;	COMDAT __real@4024000000000000
CONST	SEGMENT
__real@4024000000000000 DQ 04024000000000000r	; 10
CONST	ENDS
;	COMDAT __real@4020000000000000
CONST	SEGMENT
__real@4020000000000000 DQ 04020000000000000r	; 8
CONST	ENDS
;	COMDAT __real@4014000000000000
CONST	SEGMENT
__real@4014000000000000 DQ 04014000000000000r	; 5
CONST	ENDS
;	COMDAT __real@4012000000000000
CONST	SEGMENT
__real@4012000000000000 DQ 04012000000000000r	; 4.5
CONST	ENDS
;	COMDAT __real@4010000000000000
CONST	SEGMENT
__real@4010000000000000 DQ 04010000000000000r	; 4
CONST	ENDS
;	COMDAT __real@400921fb60000000
CONST	SEGMENT
__real@400921fb60000000 DQ 0400921fb60000000r	; 3.14159
CONST	ENDS
;	COMDAT __real@4008000000000000
CONST	SEGMENT
__real@4008000000000000 DQ 04008000000000000r	; 3
CONST	ENDS
;	COMDAT __real@4000000000000000
CONST	SEGMENT
__real@4000000000000000 DQ 04000000000000000r	; 2
CONST	ENDS
;	COMDAT __real@40000000
CONST	SEGMENT
__real@40000000 DD 040000000r			; 2
CONST	ENDS
;	COMDAT __real@3ff8000000000000
CONST	SEGMENT
__real@3ff8000000000000 DQ 03ff8000000000000r	; 1.5
CONST	ENDS
;	COMDAT __real@3ff0000000000000
CONST	SEGMENT
__real@3ff0000000000000 DQ 03ff0000000000000r	; 1
CONST	ENDS
;	COMDAT __real@3feccccccccccccd
CONST	SEGMENT
__real@3feccccccccccccd DQ 03feccccccccccccdr	; 0.9
CONST	ENDS
;	COMDAT __real@3fe8000000000000
CONST	SEGMENT
__real@3fe8000000000000 DQ 03fe8000000000000r	; 0.75
CONST	ENDS
;	COMDAT __real@3fe4cccccccccccd
CONST	SEGMENT
__real@3fe4cccccccccccd DQ 03fe4cccccccccccdr	; 0.65
CONST	ENDS
;	COMDAT __real@3fe3333333333333
CONST	SEGMENT
__real@3fe3333333333333 DQ 03fe3333333333333r	; 0.6
CONST	ENDS
;	COMDAT __real@3fe0000000000000
CONST	SEGMENT
__real@3fe0000000000000 DQ 03fe0000000000000r	; 0.5
CONST	ENDS
;	COMDAT __real@3fd999999999999a
CONST	SEGMENT
__real@3fd999999999999a DQ 03fd999999999999ar	; 0.4
CONST	ENDS
;	COMDAT __real@3fd3333333333333
CONST	SEGMENT
__real@3fd3333333333333 DQ 03fd3333333333333r	; 0.3
CONST	ENDS
;	COMDAT __real@3fd0000000000000
CONST	SEGMENT
__real@3fd0000000000000 DQ 03fd0000000000000r	; 0.25
CONST	ENDS
;	COMDAT __real@3fc999999999999a
CONST	SEGMENT
__real@3fc999999999999a DQ 03fc999999999999ar	; 0.2
CONST	ENDS
;	COMDAT __real@3fc00000
CONST	SEGMENT
__real@3fc00000 DD 03fc00000r			; 1.5
CONST	ENDS
;	COMDAT __real@3fb999999999999a
CONST	SEGMENT
__real@3fb999999999999a DQ 03fb999999999999ar	; 0.1
CONST	ENDS
;	COMDAT __real@3fa999999999999a
CONST	SEGMENT
__real@3fa999999999999a DQ 03fa999999999999ar	; 0.05
CONST	ENDS
;	COMDAT __real@3fa16872b020c49c
CONST	SEGMENT
__real@3fa16872b020c49c DQ 03fa16872b020c49cr	; 0.034
CONST	ENDS
;	COMDAT __real@3f99999a
CONST	SEGMENT
__real@3f99999a DD 03f99999ar			; 1.2
CONST	ENDS
;	COMDAT __real@3f8b4cc25072085c
CONST	SEGMENT
__real@3f8b4cc25072085c DQ 03f8b4cc25072085cr	; 0.01333
CONST	ENDS
;	COMDAT __real@3f800000
CONST	SEGMENT
__real@3f800000 DD 03f800000r			; 1
CONST	ENDS
;	COMDAT __real@3f689374bc6a7efa
CONST	SEGMENT
__real@3f689374bc6a7efa DQ 03f689374bc6a7efar	; 0.003
CONST	ENDS
;	COMDAT __real@3f666666
CONST	SEGMENT
__real@3f666666 DD 03f666666r			; 0.9
CONST	ENDS
;	COMDAT __real@3f50624dd2f1a9fc
CONST	SEGMENT
__real@3f50624dd2f1a9fc DQ 03f50624dd2f1a9fcr	; 0.001
CONST	ENDS
;	COMDAT __real@3f364840e1719f80
CONST	SEGMENT
__real@3f364840e1719f80 DQ 03f364840e1719f80r	; 0.00034
CONST	ENDS
;	COMDAT __real@3f1a36e2eb1c432d
CONST	SEGMENT
__real@3f1a36e2eb1c432d DQ 03f1a36e2eb1c432dr	; 0.0001
CONST	ENDS
;	COMDAT __real@3f10000000000000
CONST	SEGMENT
__real@3f10000000000000 DQ 03f10000000000000r	; 6.10352e-05
CONST	ENDS
;	COMDAT __real@3f0ccccd
CONST	SEGMENT
__real@3f0ccccd DD 03f0ccccdr			; 0.55
CONST	ENDS
;	COMDAT __real@3f00002000400080
CONST	SEGMENT
__real@3f00002000400080 DQ 03f00002000400080r	; 3.05185e-05
CONST	ENDS
;	COMDAT __real@3f000000
CONST	SEGMENT
__real@3f000000 DD 03f000000r			; 0.5
CONST	ENDS
;	COMDAT __real@3ecda922
CONST	SEGMENT
__real@3ecda922 DD 03ecda922r			; 0.401681
CONST	ENDS
;	COMDAT __real@3ecccccd
CONST	SEGMENT
__real@3ecccccd DD 03ecccccdr			; 0.4
CONST	ENDS
;	COMDAT __real@3e99999a
CONST	SEGMENT
__real@3e99999a DD 03e99999ar			; 0.3
CONST	ENDS
;	COMDAT __real@3e3020c5
CONST	SEGMENT
__real@3e3020c5 DD 03e3020c5r			; 0.172
CONST	ENDS
;	COMDAT __real@3e060a92
CONST	SEGMENT
__real@3e060a92 DD 03e060a92r			; 0.1309
CONST	ENDS
;	COMDAT __real@3dcccccd
CONST	SEGMENT
__real@3dcccccd DD 03dcccccdr			; 0.1
CONST	ENDS
;	COMDAT __real@3dc49809
CONST	SEGMENT
__real@3dc49809 DD 03dc49809r			; 0.0959931
CONST	ENDS
;	COMDAT __real@3db2b8c2
CONST	SEGMENT
__real@3db2b8c2 DD 03db2b8c2r			; 0.0872665
CONST	ENDS
;	COMDAT __real@3da88ce7
CONST	SEGMENT
__real@3da88ce7 DD 03da88ce7r			; 0.0823
CONST	ENDS
;	COMDAT __real@3d0efa35
CONST	SEGMENT
__real@3d0efa35 DD 03d0efa35r			; 0.0349066
CONST	ENDS
;	COMDAT __real@3c8efa35
CONST	SEGMENT
__real@3c8efa35 DD 03c8efa35r			; 0.0174533
CONST	ENDS
;	COMDAT __real@3c23d70a
CONST	SEGMENT
__real@3c23d70a DD 03c23d70ar			; 0.01
CONST	ENDS
;	COMDAT __real@3b23d70a
CONST	SEGMENT
__real@3b23d70a DD 03b23d70ar			; 0.0025
CONST	ENDS
;	COMDAT __real@3aa3d70a
CONST	SEGMENT
__real@3aa3d70a DD 03aa3d70ar			; 0.00125
CONST	ENDS
;	COMDAT __real@0000000000000000
CONST	SEGMENT
__real@0000000000000000 DQ 00000000000000000r	; 0
CONST	ENDS
;	COMDAT __real@00000000
CONST	SEGMENT
__real@00000000 DD 000000000r			; 0
CONST	ENDS
;	COMDAT ??_C@_1BC@BLAPCBGI@?$AAs?$AAt?$AAd?$AA?3?$AA?3?$AAm?$AAi?$AAn@
CONST	SEGMENT
??_C@_1BC@BLAPCBGI@?$AAs?$AAt?$AAd?$AA?3?$AA?3?$AAm?$AAi?$AAn@ DB 's', 00H
	DB	't', 00H, 'd', 00H, ':', 00H, ':', 00H, 'm', 00H, 'i', 00H, 'n'
	DB	00H, 00H, 00H				; `string'
CONST	ENDS
;	COMDAT ??_C@_1CK@NDNHPKPI@?$AA?$CC?$AAi?$AAn?$AAv?$AAa?$AAl?$AAi?$AAd?$AA?5?$AAc?$AAo?$AAm?$AAp?$AAa?$AAr@
CONST	SEGMENT
??_C@_1CK@NDNHPKPI@?$AA?$CC?$AAi?$AAn?$AAv?$AAa?$AAl?$AAi?$AAd?$AA?5?$AAc?$AAo?$AAm?$AAp?$AAa?$AAr@ DB '"'
	DB	00H, 'i', 00H, 'n', 00H, 'v', 00H, 'a', 00H, 'l', 00H, 'i', 00H
	DB	'd', 00H, ' ', 00H, 'c', 00H, 'o', 00H, 'm', 00H, 'p', 00H, 'a'
	DB	00H, 'r', 00H, 'a', 00H, 't', 00H, 'o', 00H, 'r', 00H, '"', 00H
	DB	00H, 00H					; `string'
CONST	ENDS
;	COMDAT ??_C@_1BC@ICCOKLEG@?$AAs?$AAt?$AAd?$AA?3?$AA?3?$AAm?$AAa?$AAx@
CONST	SEGMENT
??_C@_1BC@ICCOKLEG@?$AAs?$AAt?$AAd?$AA?3?$AA?3?$AAm?$AAa?$AAx@ DB 's', 00H
	DB	't', 00H, 'd', 00H, ':', 00H, ':', 00H, 'm', 00H, 'a', 00H, 'x'
	DB	00H, 00H, 00H				; `string'
CONST	ENDS
;	COMDAT ??_C@_1NE@FKBPBJEB@?$AAc?$AA?3?$AA?2?$AAp?$AAr?$AAo?$AAg?$AAr?$AAa?$AAm?$AA?5?$AAf?$AAi?$AAl?$AAe@
CONST	SEGMENT
??_C@_1NE@FKBPBJEB@?$AAc?$AA?3?$AA?2?$AAp?$AAr?$AAo?$AAg?$AAr?$AAa?$AAm?$AA?5?$AAf?$AAi?$AAl?$AAe@ DB 'c'
	DB	00H, ':', 00H, '\', 00H, 'p', 00H, 'r', 00H, 'o', 00H, 'g', 00H
	DB	'r', 00H, 'a', 00H, 'm', 00H, ' ', 00H, 'f', 00H, 'i', 00H, 'l'
	DB	00H, 'e', 00H, 's', 00H, ' ', 00H, '(', 00H, 'x', 00H, '8', 00H
	DB	'6', 00H, ')', 00H, '\', 00H, 'm', 00H, 'i', 00H, 'c', 00H, 'r'
	DB	00H, 'o', 00H, 's', 00H, 'o', 00H, 'f', 00H, 't', 00H, ' ', 00H
	DB	'v', 00H, 'i', 00H, 's', 00H, 'u', 00H, 'a', 00H, 'l', 00H, ' '
	DB	00H, 's', 00H, 't', 00H, 'u', 00H, 'd', 00H, 'i', 00H, 'o', 00H
	DB	'\', 00H, '2', 00H, '0', 00H, '1', 00H, '7', 00H, '\', 00H, 'c'
	DB	00H, 'o', 00H, 'm', 00H, 'm', 00H, 'u', 00H, 'n', 00H, 'i', 00H
	DB	't', 00H, 'y', 00H, '\', 00H, 'v', 00H, 'c', 00H, '\', 00H, 't'
	DB	00H, 'o', 00H, 'o', 00H, 'l', 00H, 's', 00H, '\', 00H, 'm', 00H
	DB	's', 00H, 'v', 00H, 'c', 00H, '\', 00H, '1', 00H, '4', 00H, '.'
	DB	00H, '1', 00H, '6', 00H, '.', 00H, '2', 00H, '7', 00H, '0', 00H
	DB	'2', 00H, '3', 00H, '\', 00H, 'i', 00H, 'n', 00H, 'c', 00H, 'l'
	DB	00H, 'u', 00H, 'd', 00H, 'e', 00H, '\', 00H, 'a', 00H, 'l', 00H
	DB	'g', 00H, 'o', 00H, 'r', 00H, 'i', 00H, 't', 00H, 'h', 00H, 'm'
	DB	00H, 00H, 00H				; `string'
CONST	ENDS
;	COMDAT ??_C@_0GK@JMBMHIBC@c?3?2program?5files?5?$CIx86?$CJ?2microsof@
CONST	SEGMENT
??_C@_0GK@JMBMHIBC@c?3?2program?5files?5?$CIx86?$CJ?2microsof@ DB 'c:\pro'
	DB	'gram files (x86)\microsoft visual studio\2017\community\vc\to'
	DB	'ols\msvc\14.16.27023\include\algorithm', 00H ; `string'
CONST	ENDS
;	COMDAT ??_C@_0BD@FEEMDEPI@invalid?5comparator@
CONST	SEGMENT
??_C@_0BD@FEEMDEPI@invalid?5comparator@ DB 'invalid comparator', 00H ; `string'
CONST	ENDS
;	COMDAT ?__LINE__Var@?0??update_acceleration_dynamics@@YGXXZ@4JA
_DATA	SEGMENT
?__LINE__Var@?0??update_acceleration_dynamics@@YGXXZ@4JA DD 0b54H ; `update_acceleration_dynamics'::`1'::__LINE__Var
_DATA	ENDS
;	COMDAT ??_C@_0BG@EBOEKGCA@Ground?5Friction?5force@
CONST	SEGMENT
??_C@_0BG@EBOEKGCA@Ground?5Friction?5force@ DB 'Ground Friction force', 00H ; `string'
CONST	ENDS
;	COMDAT ??_C@_04LGBIOLDJ@Wind@
CONST	SEGMENT
??_C@_04LGBIOLDJ@Wind@ DB 'Wind', 00H			; `string'
CONST	ENDS
;	COMDAT ??_C@_0BC@MPODPIKD@Vortex?5ring?5force@
CONST	SEGMENT
??_C@_0BC@MPODPIKD@Vortex?5ring?5force@ DB 'Vortex ring force', 00H ; `string'
CONST	ENDS
;	COMDAT ??_C@_0BK@ONPBLKKA@Right?5rotor?5Ground?5effect@
CONST	SEGMENT
??_C@_0BK@ONPBLKKA@Right?5rotor?5Ground?5effect@ DB 'Right rotor Ground e'
	DB	'ffect', 00H					; `string'
CONST	ENDS
;	COMDAT ??_C@_0BJ@KEABEFD@Left?5rotor?5Ground?5effect@
CONST	SEGMENT
??_C@_0BJ@KEABEFD@Left?5rotor?5Ground?5effect@ DB 'Left rotor Ground effe'
	DB	'ct', 00H					; `string'
CONST	ENDS
;	COMDAT ??_C@_0BJ@MKNEGMFL@Back?5rotor?5Ground?5effect@
CONST	SEGMENT
??_C@_0BJ@MKNEGMFL@Back?5rotor?5Ground?5effect@ DB 'Back rotor Ground eff'
	DB	'ect', 00H					; `string'
CONST	ENDS
;	COMDAT ??_C@_0BK@BDABDLEI@Front?5rotor?5Ground?5effect@
CONST	SEGMENT
??_C@_0BK@BDABDLEI@Front?5rotor?5Ground?5effect@ DB 'Front rotor Ground e'
	DB	'ffect', 00H					; `string'
CONST	ENDS
;	COMDAT ??_C@_0BL@CBNCBPEP@Middle?5rotor?5Ground?5effect@
CONST	SEGMENT
??_C@_0BL@CBNCBPEP@Middle?5rotor?5Ground?5effect@ DB 'Middle rotor Ground'
	DB	' effect', 00H				; `string'
CONST	ENDS
;	COMDAT ??_C@_0BF@LAMOPNAJ@Vertical?5motion?5drag@
CONST	SEGMENT
??_C@_0BF@LAMOPNAJ@Vertical?5motion?5drag@ DB 'Vertical motion drag', 00H ; `string'
CONST	ENDS
;	COMDAT ??_C@_0BE@DICEDONG@Lateral?5motion?5drag@
CONST	SEGMENT
??_C@_0BE@DICEDONG@Lateral?5motion?5drag@ DB 'Lateral motion drag', 00H ; `string'
CONST	ENDS
;	COMDAT ??_C@_0BE@JPPEFMCN@Forward?5motion?5drag@
CONST	SEGMENT
??_C@_0BE@JPPEFMCN@Forward?5motion?5drag@ DB 'Forward motion drag', 00H ; `string'
CONST	ENDS
;	COMDAT ??_C@_0BO@BHAFBPMJ@Forward?5motion?5Yaw?5input?5drag@
CONST	SEGMENT
??_C@_0BO@BHAFBPMJ@Forward?5motion?5Yaw?5input?5drag@ DB 'Forward motion '
	DB	'Yaw input drag', 00H			; `string'
CONST	ENDS
;	COMDAT ??_C@_0BH@IEIJHFAG@Realign?5force?5?$CIX?5axis?$CJ@
CONST	SEGMENT
??_C@_0BH@IEIJHFAG@Realign?5force?5?$CIX?5axis?$CJ@ DB 'Realign force (X '
	DB	'axis)', 00H					; `string'
CONST	ENDS
;	COMDAT ??_C@_0BH@EICDHFJI@Realign?5force?5?$CIY?5axis?$CJ@
CONST	SEGMENT
??_C@_0BH@EICDHFJI@Realign?5force?5?$CIY?5axis?$CJ@ DB 'Realign force (Y '
	DB	'axis)', 00H					; `string'
CONST	ENDS
;	COMDAT ??_C@_0P@OJCKBBIP@Yaw?5resistance@
CONST	SEGMENT
??_C@_0P@OJCKBBIP@Yaw?5resistance@ DB 'Yaw resistance', 00H ; `string'
CONST	ENDS
;	COMDAT ??_C@_0BA@JHNCKIDL@Roll?5resistance@
CONST	SEGMENT
??_C@_0BA@JHNCKIDL@Roll?5resistance@ DB 'Roll resistance', 00H ; `string'
CONST	ENDS
;	COMDAT ??_C@_0BB@FPOJGHNF@Pitch?5resistance@
CONST	SEGMENT
??_C@_0BB@FPOJGHNF@Pitch?5resistance@ DB 'Pitch resistance', 00H ; `string'
CONST	ENDS
;	COMDAT ??_C@_0BK@DILBAPLM@Main?5rotor?5angular?5torque@
CONST	SEGMENT
??_C@_0BK@DILBAPLM@Main?5rotor?5angular?5torque@ DB 'Main rotor angular t'
	DB	'orque', 00H					; `string'
CONST	ENDS
;	COMDAT ??_C@_0O@JIJAGCOD@Sonic?5buildup@
CONST	SEGMENT
??_C@_0O@JIJAGCOD@Sonic?5buildup@ DB 'Sonic buildup', 00H ; `string'
CONST	ENDS
;	COMDAT ??_C@_0BG@LPCPLOKH@Advancing?5blade?5stall@
CONST	SEGMENT
??_C@_0BG@LPCPLOKH@Advancing?5blade?5stall@ DB 'Advancing blade stall', 00H ; `string'
CONST	ENDS
;	COMDAT ??_C@_0BH@HFGLNDFM@Retreating?5blade?5stall@
CONST	SEGMENT
??_C@_0BH@HFGLNDFM@Retreating?5blade?5stall@ DB 'Retreating blade stall', 00H ; `string'
CONST	ENDS
;	COMDAT ??_C@_0BC@GCGACPAK@Transitional?5lift@
CONST	SEGMENT
??_C@_0BC@GCGACPAK@Transitional?5lift@ DB 'Transitional lift', 00H ; `string'
CONST	ENDS
;	COMDAT ??_C@_07JMGDFJEK@Gravity@
CONST	SEGMENT
??_C@_07JMGDFJEK@Gravity@ DB 'Gravity', 00H		; `string'
CONST	ENDS
;	COMDAT ??_C@_0BJ@INGIGFJO@Angular?5tail?5rotor?5force@
CONST	SEGMENT
??_C@_0BJ@INGIGFJO@Angular?5tail?5rotor?5force@ DB 'Angular tail rotor fo'
	DB	'rce', 00H					; `string'
CONST	ENDS
;	COMDAT ??_C@_0BC@BCPABIID@Right?5rotor?5force@
CONST	SEGMENT
??_C@_0BC@BCPABIID@Right?5rotor?5force@ DB 'Right rotor force', 00H ; `string'
CONST	ENDS
;	COMDAT ??_C@_0BB@JNCAICOI@Left?5rotor?5force@
CONST	SEGMENT
??_C@_0BB@JNCAICOI@Left?5rotor?5force@ DB 'Left rotor force', 00H ; `string'
CONST	ENDS
;	COMDAT ??_C@_0BB@LJEAAOI@Back?5rotor?5force@
CONST	SEGMENT
??_C@_0BB@LJEAAOI@Back?5rotor?5force@ DB 'Back rotor force', 00H ; `string'
CONST	ENDS
;	COMDAT ??_C@_0BC@MEMJFFEH@Front?5rotor?5force@
CONST	SEGMENT
??_C@_0BC@MEMJFFEH@Front?5rotor?5force@ DB 'Front rotor force', 00H ; `string'
CONST	ENDS
;	COMDAT ??_C@_0BD@BBEFFKGJ@Middle?5rotor?5force@
CONST	SEGMENT
??_C@_0BD@BBEFFKGJ@Middle?5rotor?5force@ DB 'Middle rotor force', 00H ; `string'
CONST	ENDS
;	COMDAT ??_C@_0O@DAHLPFDH@Taxiing?5force@
CONST	SEGMENT
??_C@_0O@DAHLPFDH@Taxiing?5force@ DB 'Taxiing force', 00H ; `string'
CONST	ENDS
;	COMDAT ??_C@_0BD@EHBODOFB@DYNAMICS?3?5UNSTABLE@
CONST	SEGMENT
??_C@_0BD@EHBODOFB@DYNAMICS?3?5UNSTABLE@ DB 'DYNAMICS: UNSTABLE', 00H ; `string'
CONST	ENDS
_DATA	SEGMENT
?res@?HI@??update_attitude_dynamics@@YGXXZ@4MA DD 040c00000r ; 6 ; `update_attitude_dynamics'::`120'::res
?mass@?HI@??update_attitude_dynamics@@YGXXZ@4MA DD 042200000r ; 40 ; `update_attitude_dynamics'::`120'::mass
_DATA	ENDS
;	COMDAT ?__LINE__Var@?0??update_attitude_dynamics@@YGXXZ@4JA
_DATA	SEGMENT
?__LINE__Var@?0??update_attitude_dynamics@@YGXXZ@4JA DD 0508H ; `update_attitude_dynamics'::`1'::__LINE__Var
_DATA	ENDS
;	COMDAT ??_C@_0EM@BHCFJHIE@c?3?2users?2nhv90?2projects?2eech?2ap@
CONST	SEGMENT
??_C@_0EM@BHCFJHIE@c?3?2users?2nhv90?2projects?2eech?2ap@ DB 'c:\users\nh'
	DB	'v90\projects\eech\aphavoc\source\gunships\dynamics\hind\hi_dy'
	DB	'n.c', 00H					; `string'
CONST	ENDS
;	COMDAT ?__LINE__Var@?0??set_dynamics_defaults@@YGXPAUENTITY@@@Z@4JA
_DATA	SEGMENT
?__LINE__Var@?0??set_dynamics_defaults@@YGXPAUENTITY@@@Z@4JA DD 094H ; `set_dynamics_defaults'::`1'::__LINE__Var
_DATA	ENDS
;	COMDAT ??_C@_0BI@JEIEOBCF@?4?4?2common?2data?2hind?4dyn@
CONST	SEGMENT
??_C@_0BI@JEIEOBCF@?4?4?2common?2data?2hind?4dyn@ DB '..\common\data\hind'
	DB	'.dyn', 00H					; `string'
CONST	ENDS
;	COMDAT ??_C@_02DKCKIIND@?$CFs@
CONST	SEGMENT
??_C@_02DKCKIIND@?$CFs@ DB '%s', 00H			; `string'
CONST	ENDS
; Function compile flags: /Odtp /ZI
; File c:\users\nhv90\projects\eech\aphavoc\source\gunships\dynamics\hind\hi_dyn.c
;	COMDAT ?hind_restore_damage_values@@YGXXZ
_TEXT	SEGMENT
?hind_restore_damage_values@@YGXXZ PROC			; hind_restore_damage_values, COMDAT

; 3033 : {

  00000	55		 push	 ebp
  00001	8b ec		 mov	 ebp, esp
  00003	83 ec 40	 sub	 esp, 64			; 00000040H
  00006	53		 push	 ebx
  00007	56		 push	 esi
  00008	57		 push	 edi

; 3034 : 	current_flight_dynamics->centre_of_gravity = centre_of_gravity;

  00009	a1 00 00 00 00	 mov	 eax, DWORD PTR ?current_flight_dynamics@@3PAUDYNAMICS_TYPE@@A ; current_flight_dynamics
  0000e	05 24 1c 00 00	 add	 eax, 7204		; 00001c24H
  00013	8b 0d 00 00 00
	00		 mov	 ecx, DWORD PTR ?centre_of_gravity@@3UVEC3D@@A
  00019	89 08		 mov	 DWORD PTR [eax], ecx
  0001b	8b 15 04 00 00
	00		 mov	 edx, DWORD PTR ?centre_of_gravity@@3UVEC3D@@A+4
  00021	89 50 04	 mov	 DWORD PTR [eax+4], edx
  00024	8b 0d 08 00 00
	00		 mov	 ecx, DWORD PTR ?centre_of_gravity@@3UVEC3D@@A+8
  0002a	89 48 08	 mov	 DWORD PTR [eax+8], ecx

; 3035 : }

  0002d	5f		 pop	 edi
  0002e	5e		 pop	 esi
  0002f	5b		 pop	 ebx
  00030	8b e5		 mov	 esp, ebp
  00032	5d		 pop	 ebp
  00033	c3		 ret	 0
?hind_restore_damage_values@@YGXXZ ENDP			; hind_restore_damage_values
_TEXT	ENDS
; Function compile flags: /Odtp /ZI
; File c:\program files (x86)\microsoft visual studio\2017\community\vc\tools\msvc\14.16.27023\include\algorithm
;	COMDAT ??$min@M@std@@YGABMABM0@Z
_TEXT	SEGMENT
__Left$ = 8						; size = 4
__Right$ = 12						; size = 4
??$min@M@std@@YGABMABM0@Z PROC				; std::min<float>, COMDAT

; 5427 : 	{	// return smaller of _Left and _Right

  00000	55		 push	 ebp
  00001	8b ec		 mov	 ebp, esp
  00003	83 ec 40	 sub	 esp, 64			; 00000040H
  00006	53		 push	 ebx
  00007	56		 push	 esi
  00008	57		 push	 edi

; 5428 : 	if (_Right < _Left)

  00009	8b 45 08	 mov	 eax, DWORD PTR __Left$[ebp]
  0000c	8b 4d 0c	 mov	 ecx, DWORD PTR __Right$[ebp]
  0000f	f3 0f 10 00	 movss	 xmm0, DWORD PTR [eax]
  00013	0f 2f 01	 comiss	 xmm0, DWORD PTR [ecx]
  00016	76 64		 jbe	 SHORT $LN8@min
$LN4@min:

; 5429 : 		{
; 5430 : 		_STL_ASSERT(!(_Left < _Right), "invalid comparator");

  00018	8b 45 0c	 mov	 eax, DWORD PTR __Right$[ebp]
  0001b	8b 4d 08	 mov	 ecx, DWORD PTR __Left$[ebp]
  0001e	f3 0f 10 00	 movss	 xmm0, DWORD PTR [eax]
  00022	0f 2f 01	 comiss	 xmm0, DWORD PTR [ecx]
  00025	77 02		 ja	 SHORT $LN9@min
  00027	eb 4a		 jmp	 SHORT $LN6@min
$LN9@min:
  00029	68 00 00 00 00	 push	 OFFSET ??_C@_0BD@FEEMDEPI@invalid?5comparator@
  0002e	68 00 00 00 00	 push	 OFFSET ??_C@_02DKCKIIND@?$CFs@
  00033	6a 00		 push	 0
  00035	68 36 15 00 00	 push	 5430			; 00001536H
  0003a	68 00 00 00 00	 push	 OFFSET ??_C@_0GK@JMBMHIBC@c?3?2program?5files?5?$CIx86?$CJ?2microsof@
  0003f	6a 02		 push	 2
  00041	ff 15 00 00 00
	00		 call	 DWORD PTR __imp___CrtDbgReport
  00047	83 c4 18	 add	 esp, 24			; 00000018H
  0004a	83 f8 01	 cmp	 eax, 1
  0004d	75 01		 jne	 SHORT $LN12@min
  0004f	cc		 int	 3
$LN12@min:
  00050	6a 00		 push	 0
  00052	68 36 15 00 00	 push	 5430			; 00001536H
  00057	68 00 00 00 00	 push	 OFFSET ??_C@_1NE@FKBPBJEB@?$AAc?$AA?3?$AA?2?$AAp?$AAr?$AAo?$AAg?$AAr?$AAa?$AAm?$AA?5?$AAf?$AAi?$AAl?$AAe@
  0005c	68 00 00 00 00	 push	 OFFSET ??_C@_1BC@BLAPCBGI@?$AAs?$AAt?$AAd?$AA?3?$AA?3?$AAm?$AAi?$AAn@
  00061	68 00 00 00 00	 push	 OFFSET ??_C@_1CK@NDNHPKPI@?$AA?$CC?$AAi?$AAn?$AAv?$AAa?$AAl?$AAi?$AAd?$AA?5?$AAc?$AAo?$AAm?$AAp?$AAa?$AAr@
  00066	ff 15 00 00 00
	00		 call	 DWORD PTR __imp___invalid_parameter
  0006c	83 c4 14	 add	 esp, 20			; 00000014H
  0006f	33 c0		 xor	 eax, eax
  00071	75 b6		 jne	 SHORT $LN9@min
$LN6@min:
  00073	33 c0		 xor	 eax, eax
  00075	75 a1		 jne	 SHORT $LN4@min

; 5431 : 		return (_Right);

  00077	8b 45 0c	 mov	 eax, DWORD PTR __Right$[ebp]
  0007a	eb 03		 jmp	 SHORT $LN1@min
$LN8@min:

; 5432 : 		}
; 5433 : 
; 5434 : 	return (_Left);

  0007c	8b 45 08	 mov	 eax, DWORD PTR __Left$[ebp]
$LN1@min:

; 5435 : 	}

  0007f	5f		 pop	 edi
  00080	5e		 pop	 esi
  00081	5b		 pop	 ebx
  00082	8b e5		 mov	 esp, ebp
  00084	5d		 pop	 ebp
  00085	c2 08 00	 ret	 8
??$min@M@std@@YGABMABM0@Z ENDP				; std::min<float>
_TEXT	ENDS
; Function compile flags: /Odtp /ZI
; File c:\program files (x86)\microsoft visual studio\2017\community\vc\tools\msvc\14.16.27023\include\algorithm
;	COMDAT ??$min@N@std@@YGABNABN0@Z
_TEXT	SEGMENT
__Left$ = 8						; size = 4
__Right$ = 12						; size = 4
??$min@N@std@@YGABNABN0@Z PROC				; std::min<double>, COMDAT

; 5427 : 	{	// return smaller of _Left and _Right

  00000	55		 push	 ebp
  00001	8b ec		 mov	 ebp, esp
  00003	83 ec 40	 sub	 esp, 64			; 00000040H
  00006	53		 push	 ebx
  00007	56		 push	 esi
  00008	57		 push	 edi

; 5428 : 	if (_Right < _Left)

  00009	8b 45 08	 mov	 eax, DWORD PTR __Left$[ebp]
  0000c	8b 4d 0c	 mov	 ecx, DWORD PTR __Right$[ebp]
  0000f	f2 0f 10 00	 movsd	 xmm0, QWORD PTR [eax]
  00013	66 0f 2f 01	 comisd	 xmm0, QWORD PTR [ecx]
  00017	76 65		 jbe	 SHORT $LN8@min
$LN4@min:

; 5429 : 		{
; 5430 : 		_STL_ASSERT(!(_Left < _Right), "invalid comparator");

  00019	8b 45 0c	 mov	 eax, DWORD PTR __Right$[ebp]
  0001c	8b 4d 08	 mov	 ecx, DWORD PTR __Left$[ebp]
  0001f	f2 0f 10 00	 movsd	 xmm0, QWORD PTR [eax]
  00023	66 0f 2f 01	 comisd	 xmm0, QWORD PTR [ecx]
  00027	77 02		 ja	 SHORT $LN9@min
  00029	eb 4a		 jmp	 SHORT $LN6@min
$LN9@min:
  0002b	68 00 00 00 00	 push	 OFFSET ??_C@_0BD@FEEMDEPI@invalid?5comparator@
  00030	68 00 00 00 00	 push	 OFFSET ??_C@_02DKCKIIND@?$CFs@
  00035	6a 00		 push	 0
  00037	68 36 15 00 00	 push	 5430			; 00001536H
  0003c	68 00 00 00 00	 push	 OFFSET ??_C@_0GK@JMBMHIBC@c?3?2program?5files?5?$CIx86?$CJ?2microsof@
  00041	6a 02		 push	 2
  00043	ff 15 00 00 00
	00		 call	 DWORD PTR __imp___CrtDbgReport
  00049	83 c4 18	 add	 esp, 24			; 00000018H
  0004c	83 f8 01	 cmp	 eax, 1
  0004f	75 01		 jne	 SHORT $LN12@min
  00051	cc		 int	 3
$LN12@min:
  00052	6a 00		 push	 0
  00054	68 36 15 00 00	 push	 5430			; 00001536H
  00059	68 00 00 00 00	 push	 OFFSET ??_C@_1NE@FKBPBJEB@?$AAc?$AA?3?$AA?2?$AAp?$AAr?$AAo?$AAg?$AAr?$AAa?$AAm?$AA?5?$AAf?$AAi?$AAl?$AAe@
  0005e	68 00 00 00 00	 push	 OFFSET ??_C@_1BC@BLAPCBGI@?$AAs?$AAt?$AAd?$AA?3?$AA?3?$AAm?$AAi?$AAn@
  00063	68 00 00 00 00	 push	 OFFSET ??_C@_1CK@NDNHPKPI@?$AA?$CC?$AAi?$AAn?$AAv?$AAa?$AAl?$AAi?$AAd?$AA?5?$AAc?$AAo?$AAm?$AAp?$AAa?$AAr@
  00068	ff 15 00 00 00
	00		 call	 DWORD PTR __imp___invalid_parameter
  0006e	83 c4 14	 add	 esp, 20			; 00000014H
  00071	33 c0		 xor	 eax, eax
  00073	75 b6		 jne	 SHORT $LN9@min
$LN6@min:
  00075	33 c0		 xor	 eax, eax
  00077	75 a0		 jne	 SHORT $LN4@min

; 5431 : 		return (_Right);

  00079	8b 45 0c	 mov	 eax, DWORD PTR __Right$[ebp]
  0007c	eb 03		 jmp	 SHORT $LN1@min
$LN8@min:

; 5432 : 		}
; 5433 : 
; 5434 : 	return (_Left);

  0007e	8b 45 08	 mov	 eax, DWORD PTR __Left$[ebp]
$LN1@min:

; 5435 : 	}

  00081	5f		 pop	 edi
  00082	5e		 pop	 esi
  00083	5b		 pop	 ebx
  00084	8b e5		 mov	 esp, ebp
  00086	5d		 pop	 ebp
  00087	c2 08 00	 ret	 8
??$min@N@std@@YGABNABN0@Z ENDP				; std::min<double>
_TEXT	ENDS
; Function compile flags: /Odtp /ZI
; File c:\program files (x86)\microsoft visual studio\2017\community\vc\tools\msvc\14.16.27023\include\algorithm
;	COMDAT ??$max@N@std@@YGABNABN0@Z
_TEXT	SEGMENT
__Left$ = 8						; size = 4
__Right$ = 12						; size = 4
??$max@N@std@@YGABNABN0@Z PROC				; std::max<double>, COMDAT

; 5387 : 	{	// return larger of _Left and _Right

  00000	55		 push	 ebp
  00001	8b ec		 mov	 ebp, esp
  00003	83 ec 40	 sub	 esp, 64			; 00000040H
  00006	53		 push	 ebx
  00007	56		 push	 esi
  00008	57		 push	 edi

; 5388 : 	if (_Left < _Right)

  00009	8b 45 0c	 mov	 eax, DWORD PTR __Right$[ebp]
  0000c	8b 4d 08	 mov	 ecx, DWORD PTR __Left$[ebp]
  0000f	f2 0f 10 00	 movsd	 xmm0, QWORD PTR [eax]
  00013	66 0f 2f 01	 comisd	 xmm0, QWORD PTR [ecx]
  00017	76 65		 jbe	 SHORT $LN8@max
$LN4@max:

; 5389 : 		{
; 5390 : 		_STL_ASSERT(!(_Right < _Left), "invalid comparator");

  00019	8b 45 08	 mov	 eax, DWORD PTR __Left$[ebp]
  0001c	8b 4d 0c	 mov	 ecx, DWORD PTR __Right$[ebp]
  0001f	f2 0f 10 00	 movsd	 xmm0, QWORD PTR [eax]
  00023	66 0f 2f 01	 comisd	 xmm0, QWORD PTR [ecx]
  00027	77 02		 ja	 SHORT $LN9@max
  00029	eb 4a		 jmp	 SHORT $LN6@max
$LN9@max:
  0002b	68 00 00 00 00	 push	 OFFSET ??_C@_0BD@FEEMDEPI@invalid?5comparator@
  00030	68 00 00 00 00	 push	 OFFSET ??_C@_02DKCKIIND@?$CFs@
  00035	6a 00		 push	 0
  00037	68 0e 15 00 00	 push	 5390			; 0000150eH
  0003c	68 00 00 00 00	 push	 OFFSET ??_C@_0GK@JMBMHIBC@c?3?2program?5files?5?$CIx86?$CJ?2microsof@
  00041	6a 02		 push	 2
  00043	ff 15 00 00 00
	00		 call	 DWORD PTR __imp___CrtDbgReport
  00049	83 c4 18	 add	 esp, 24			; 00000018H
  0004c	83 f8 01	 cmp	 eax, 1
  0004f	75 01		 jne	 SHORT $LN12@max
  00051	cc		 int	 3
$LN12@max:
  00052	6a 00		 push	 0
  00054	68 0e 15 00 00	 push	 5390			; 0000150eH
  00059	68 00 00 00 00	 push	 OFFSET ??_C@_1NE@FKBPBJEB@?$AAc?$AA?3?$AA?2?$AAp?$AAr?$AAo?$AAg?$AAr?$AAa?$AAm?$AA?5?$AAf?$AAi?$AAl?$AAe@
  0005e	68 00 00 00 00	 push	 OFFSET ??_C@_1BC@ICCOKLEG@?$AAs?$AAt?$AAd?$AA?3?$AA?3?$AAm?$AAa?$AAx@
  00063	68 00 00 00 00	 push	 OFFSET ??_C@_1CK@NDNHPKPI@?$AA?$CC?$AAi?$AAn?$AAv?$AAa?$AAl?$AAi?$AAd?$AA?5?$AAc?$AAo?$AAm?$AAp?$AAa?$AAr@
  00068	ff 15 00 00 00
	00		 call	 DWORD PTR __imp___invalid_parameter
  0006e	83 c4 14	 add	 esp, 20			; 00000014H
  00071	33 c0		 xor	 eax, eax
  00073	75 b6		 jne	 SHORT $LN9@max
$LN6@max:
  00075	33 c0		 xor	 eax, eax
  00077	75 a0		 jne	 SHORT $LN4@max

; 5391 : 		return (_Right);

  00079	8b 45 0c	 mov	 eax, DWORD PTR __Right$[ebp]
  0007c	eb 03		 jmp	 SHORT $LN1@max
$LN8@max:

; 5392 : 		}
; 5393 : 
; 5394 : 	return (_Left);

  0007e	8b 45 08	 mov	 eax, DWORD PTR __Left$[ebp]
$LN1@max:

; 5395 : 	}

  00081	5f		 pop	 edi
  00082	5e		 pop	 esi
  00083	5b		 pop	 ebx
  00084	8b e5		 mov	 esp, ebp
  00086	5d		 pop	 ebp
  00087	c2 08 00	 ret	 8
??$max@N@std@@YGABNABN0@Z ENDP				; std::max<double>
_TEXT	ENDS
; Function compile flags: /Odtp /ZI
; File c:\program files (x86)\microsoft visual studio\2017\community\vc\tools\msvc\14.16.27023\include\algorithm
;	COMDAT ??$max@M@std@@YGABMABM0@Z
_TEXT	SEGMENT
__Left$ = 8						; size = 4
__Right$ = 12						; size = 4
??$max@M@std@@YGABMABM0@Z PROC				; std::max<float>, COMDAT

; 5387 : 	{	// return larger of _Left and _Right

  00000	55		 push	 ebp
  00001	8b ec		 mov	 ebp, esp
  00003	83 ec 40	 sub	 esp, 64			; 00000040H
  00006	53		 push	 ebx
  00007	56		 push	 esi
  00008	57		 push	 edi

; 5388 : 	if (_Left < _Right)

  00009	8b 45 0c	 mov	 eax, DWORD PTR __Right$[ebp]
  0000c	8b 4d 08	 mov	 ecx, DWORD PTR __Left$[ebp]
  0000f	f3 0f 10 00	 movss	 xmm0, DWORD PTR [eax]
  00013	0f 2f 01	 comiss	 xmm0, DWORD PTR [ecx]
  00016	76 64		 jbe	 SHORT $LN8@max
$LN4@max:

; 5389 : 		{
; 5390 : 		_STL_ASSERT(!(_Right < _Left), "invalid comparator");

  00018	8b 45 08	 mov	 eax, DWORD PTR __Left$[ebp]
  0001b	8b 4d 0c	 mov	 ecx, DWORD PTR __Right$[ebp]
  0001e	f3 0f 10 00	 movss	 xmm0, DWORD PTR [eax]
  00022	0f 2f 01	 comiss	 xmm0, DWORD PTR [ecx]
  00025	77 02		 ja	 SHORT $LN9@max
  00027	eb 4a		 jmp	 SHORT $LN6@max
$LN9@max:
  00029	68 00 00 00 00	 push	 OFFSET ??_C@_0BD@FEEMDEPI@invalid?5comparator@
  0002e	68 00 00 00 00	 push	 OFFSET ??_C@_02DKCKIIND@?$CFs@
  00033	6a 00		 push	 0
  00035	68 0e 15 00 00	 push	 5390			; 0000150eH
  0003a	68 00 00 00 00	 push	 OFFSET ??_C@_0GK@JMBMHIBC@c?3?2program?5files?5?$CIx86?$CJ?2microsof@
  0003f	6a 02		 push	 2
  00041	ff 15 00 00 00
	00		 call	 DWORD PTR __imp___CrtDbgReport
  00047	83 c4 18	 add	 esp, 24			; 00000018H
  0004a	83 f8 01	 cmp	 eax, 1
  0004d	75 01		 jne	 SHORT $LN12@max
  0004f	cc		 int	 3
$LN12@max:
  00050	6a 00		 push	 0
  00052	68 0e 15 00 00	 push	 5390			; 0000150eH
  00057	68 00 00 00 00	 push	 OFFSET ??_C@_1NE@FKBPBJEB@?$AAc?$AA?3?$AA?2?$AAp?$AAr?$AAo?$AAg?$AAr?$AAa?$AAm?$AA?5?$AAf?$AAi?$AAl?$AAe@
  0005c	68 00 00 00 00	 push	 OFFSET ??_C@_1BC@ICCOKLEG@?$AAs?$AAt?$AAd?$AA?3?$AA?3?$AAm?$AAa?$AAx@
  00061	68 00 00 00 00	 push	 OFFSET ??_C@_1CK@NDNHPKPI@?$AA?$CC?$AAi?$AAn?$AAv?$AAa?$AAl?$AAi?$AAd?$AA?5?$AAc?$AAo?$AAm?$AAp?$AAa?$AAr@
  00066	ff 15 00 00 00
	00		 call	 DWORD PTR __imp___invalid_parameter
  0006c	83 c4 14	 add	 esp, 20			; 00000014H
  0006f	33 c0		 xor	 eax, eax
  00071	75 b6		 jne	 SHORT $LN9@max
$LN6@max:
  00073	33 c0		 xor	 eax, eax
  00075	75 a1		 jne	 SHORT $LN4@max

; 5391 : 		return (_Right);

  00077	8b 45 0c	 mov	 eax, DWORD PTR __Right$[ebp]
  0007a	eb 03		 jmp	 SHORT $LN1@max
$LN8@max:

; 5392 : 		}
; 5393 : 
; 5394 : 	return (_Left);

  0007c	8b 45 08	 mov	 eax, DWORD PTR __Left$[ebp]
$LN1@max:

; 5395 : 	}

  0007f	5f		 pop	 edi
  00080	5e		 pop	 esi
  00081	5b		 pop	 ebx
  00082	8b e5		 mov	 esp, ebp
  00084	5d		 pop	 ebp
  00085	c2 08 00	 ret	 8
??$max@M@std@@YGABMABM0@Z ENDP				; std::max<float>
_TEXT	ENDS
; Function compile flags: /Odtp /ZI
; File c:\users\nhv90\projects\eech\aphavoc\source\gunships\dynamics\hind\hi_dyn.c
;	COMDAT ?update_hind_advanced_dynamics@@YGXXZ
_TEXT	SEGMENT
tv158 = -120						; size = 8
tv159 = -112						; size = 8
tv295 = -104						; size = 8
tv215 = -104						; size = 8
tv178 = -104						; size = 8
tv142 = -104						; size = 8
tv93 = -104						; size = 8
tv380 = -100						; size = 4
tv479 = -96						; size = 4
tv296 = -96						; size = 8
tv216 = -96						; size = 8
tv179 = -96						; size = 8
tv143 = -96						; size = 8
tv94 = -96						; size = 8
tv373 = -92						; size = 4
_rotor_rpm_diff$1 = -24					; size = 4
_rotor_rpm_diff$2 = -20					; size = 4
_left_power_ratio$ = -16				; size = 4
_total_rpm$ = -12					; size = 4
_workload$ = -8						; size = 4
_rpm$ = -4						; size = 4
?update_hind_advanced_dynamics@@YGXXZ PROC		; update_hind_advanced_dynamics, COMDAT

; 637  : {

  00000	55		 push	 ebp
  00001	8b ec		 mov	 ebp, esp
  00003	83 ec 78	 sub	 esp, 120		; 00000078H
  00006	53		 push	 ebx
  00007	56		 push	 esi
  00008	57		 push	 edi

; 638  : 	float
; 639  : 		rpm, workload=0.0, total_rpm, left_power_ratio;

  00009	0f 57 c0	 xorps	 xmm0, xmm0
  0000c	f3 0f 11 45 f8	 movss	 DWORD PTR _workload$[ebp], xmm0

; 640  : 
; 641  : 	current_flight_dynamics->centre_of_gravity = centre_of_gravity;

  00011	a1 00 00 00 00	 mov	 eax, DWORD PTR ?current_flight_dynamics@@3PAUDYNAMICS_TYPE@@A ; current_flight_dynamics
  00016	05 24 1c 00 00	 add	 eax, 7204		; 00001c24H
  0001b	8b 0d 00 00 00
	00		 mov	 ecx, DWORD PTR ?centre_of_gravity@@3UVEC3D@@A
  00021	89 08		 mov	 DWORD PTR [eax], ecx
  00023	8b 15 04 00 00
	00		 mov	 edx, DWORD PTR ?centre_of_gravity@@3UVEC3D@@A+4
  00029	89 50 04	 mov	 DWORD PTR [eax+4], edx
  0002c	8b 0d 08 00 00
	00		 mov	 ecx, DWORD PTR ?centre_of_gravity@@3UVEC3D@@A+8
  00032	89 48 08	 mov	 DWORD PTR [eax+8], ecx

; 642  : 
; 643  : 	update_power_dynamics ();

  00035	e8 00 00 00 00	 call	 ?update_power_dynamics@@YGXXZ ; update_power_dynamics

; 644  : 
; 645  : 	update_apu_rpm_dynamics();

  0003a	e8 00 00 00 00	 call	 ?update_apu_rpm_dynamics@@YGXXZ ; update_apu_rpm_dynamics

; 646  : 	update_engine_rpm_dynamics(1);

  0003f	6a 01		 push	 1
  00041	e8 00 00 00 00	 call	 ?update_engine_rpm_dynamics@@YGXH@Z ; update_engine_rpm_dynamics

; 647  : 	update_engine_rpm_dynamics(2);

  00046	6a 02		 push	 2
  00048	e8 00 00 00 00	 call	 ?update_engine_rpm_dynamics@@YGXH@Z ; update_engine_rpm_dynamics

; 648  : 
; 649  : 	update_engine_temperature_dynamics (1);

  0004d	6a 01		 push	 1
  0004f	e8 00 00 00 00	 call	 ?update_engine_temperature_dynamics@@YGXH@Z ; update_engine_temperature_dynamics

; 650  : 	update_engine_temperature_dynamics (2);

  00054	6a 02		 push	 2
  00056	e8 00 00 00 00	 call	 ?update_engine_temperature_dynamics@@YGXH@Z ; update_engine_temperature_dynamics

; 651  : 
; 652  : 	update_main_rotor_dynamics ();

  0005b	e8 00 00 00 00	 call	 ?update_main_rotor_dynamics@@YGXXZ ; update_main_rotor_dynamics

; 653  : 
; 654  : 	update_tail_rotor_dynamics ();

  00060	e8 00 00 00 00	 call	 ?update_tail_rotor_dynamics@@YGXXZ ; update_tail_rotor_dynamics

; 655  : 
; 656  : 	update_main_rotor_rpm_dynamics ();

  00065	e8 00 00 00 00	 call	 ?update_main_rotor_rpm_dynamics@@YGXXZ ; update_main_rotor_rpm_dynamics

; 657  : 
; 658  : 	update_tail_rotor_rpm_dynamics ();

  0006a	e8 00 00 00 00	 call	 ?update_tail_rotor_rpm_dynamics@@YGXXZ ; update_tail_rotor_rpm_dynamics

; 659  : 
; 660  : 	update_main_rotor_coning_angle ();

  0006f	e8 00 00 00 00	 call	 ?update_main_rotor_coning_angle@@YGXXZ ; update_main_rotor_coning_angle

; 661  : 
; 662  : 	update_main_rotor_thrust_dynamics ();

  00074	e8 00 00 00 00	 call	 ?update_main_rotor_thrust_dynamics@@YGXXZ ; update_main_rotor_thrust_dynamics

; 663  : 
; 664  : 	update_tail_rotor_thrust_dynamics ();

  00079	e8 00 00 00 00	 call	 ?update_tail_rotor_thrust_dynamics@@YGXXZ ; update_tail_rotor_thrust_dynamics

; 665  : 
; 666  : 	update_power_dynamics ();

  0007e	e8 00 00 00 00	 call	 ?update_power_dynamics@@YGXXZ ; update_power_dynamics

; 667  : 
; 668  : 	update_air_density_dynamics ();

  00083	e8 00 00 00 00	 call	 ?update_air_density_dynamics@@YGXXZ ; update_air_density_dynamics

; 669  : 
; 670  : 	update_acceleration_dynamics ();

  00088	e8 00 00 00 00	 call	 ?update_acceleration_dynamics@@YGXXZ ; update_acceleration_dynamics

; 671  : 
; 672  : 	if (command_line_dynamics_flight_model == 2)

  0008d	83 3d 00 00 00
	00 02		 cmp	 DWORD PTR ?command_line_dynamics_flight_model@@3HA, 2 ; command_line_dynamics_flight_model
  00094	75 0c		 jne	 SHORT $LN2@update_hin

; 673  : 	{
; 674  : 		update_common_attitude_dynamics();

  00096	e8 00 00 00 00	 call	 ?update_common_attitude_dynamics@@YGXXZ ; update_common_attitude_dynamics

; 675  : 		update_undercarriage_dynamics();

  0009b	e8 00 00 00 00	 call	 ?update_undercarriage_dynamics@@YGXXZ ; update_undercarriage_dynamics

; 676  : 	}
; 677  : 	else

  000a0	eb 05		 jmp	 SHORT $LN3@update_hin
$LN2@update_hin:

; 678  : 		update_attitude_dynamics ();

  000a2	e8 00 00 00 00	 call	 ?update_attitude_dynamics@@YGXXZ ; update_attitude_dynamics
$LN3@update_hin:

; 679  : 
; 680  : 	resolve_dynamic_forces ();

  000a7	e8 00 00 00 00	 call	 ?resolve_dynamic_forces@@YGXXZ ; resolve_dynamic_forces

; 681  : 
; 682  : 	update_dynamics_external_values ();

  000ac	e8 00 00 00 00	 call	 ?update_dynamics_external_values@@YGXXZ ; update_dynamics_external_values

; 683  : 
; 684  : 	// Leave the last iteration of forces to allow the draw function to work.
; 685  : 	if (get_current_dynamics_options (DYNAMICS_OPTIONS_DRAW_FLIGHT_PATH))

  000b1	6a 02		 push	 2
  000b3	e8 00 00 00 00	 call	 ?get_current_dynamics_options@@YGHW4DYNAMICS_OPTIONS_TYPES@@@Z ; get_current_dynamics_options
  000b8	85 c0		 test	 eax, eax
  000ba	74 15		 je	 SHORT $LN4@update_hin

; 686  : 	{
; 687  : 
; 688  : 		if (current_flight_dynamics->model_iterations > 0)

  000bc	a1 00 00 00 00	 mov	 eax, DWORD PTR ?current_flight_dynamics@@3PAUDYNAMICS_TYPE@@A ; current_flight_dynamics
  000c1	83 b8 8c 00 00
	00 00		 cmp	 DWORD PTR [eax+140], 0
  000c8	7e 05		 jle	 SHORT $LN6@update_hin

; 689  : 		{
; 690  : 
; 691  : 			update_dynamic_forces ();

  000ca	e8 00 00 00 00	 call	 ?update_dynamic_forces@@YGXXZ ; update_dynamic_forces
$LN6@update_hin:

; 692  : 		}
; 693  : 	}
; 694  : 	else

  000cf	eb 05		 jmp	 SHORT $LN5@update_hin
$LN4@update_hin:

; 695  : 	{
; 696  : 
; 697  : 		update_dynamic_forces ();

  000d1	e8 00 00 00 00	 call	 ?update_dynamic_forces@@YGXXZ ; update_dynamic_forces
$LN5@update_hin:

; 698  : 	}
; 699  : 
; 700  : 	//debug
; 701  : 
; 702  : 	//Werewolf engine torque management
; 703  : 	//Rotor RPM is reduced by workload, so we have to have twice as much workload on the engine to circumvent the whacky way EECH mixes RPM into the engine torque
; 704  : 	if (command_line_dynamics_advanced_engine_model == TRUE)

  000d6	83 3d 00 00 00
	00 01		 cmp	 DWORD PTR ?command_line_dynamics_advanced_engine_model@@3HA, 1 ; command_line_dynamics_advanced_engine_model
  000dd	0f 85 b4 00 00
	00		 jne	 $LN7@update_hin

; 705  : 	{
; 706  : 	  workload = ((float) fabs (current_flight_dynamics->main_rotor_pitch_angle.value) + (float) fabs (current_flight_dynamics->main_rotor_roll_angle.value))

  000e3	a1 00 00 00 00	 mov	 eax, DWORD PTR ?current_flight_dynamics@@3PAUDYNAMICS_TYPE@@A ; current_flight_dynamics
  000e8	51		 push	 ecx
  000e9	f3 0f 10 80 fc
	1d 00 00	 movss	 xmm0, DWORD PTR [eax+7676]
  000f1	f3 0f 11 04 24	 movss	 DWORD PTR [esp], xmm0
  000f6	e8 00 00 00 00	 call	 ?fabs@@YGMM@Z		; fabs
  000fb	d9 5d a4	 fstp	 DWORD PTR tv373[ebp]
  000fe	f3 0f 10 45 a4	 movss	 xmm0, DWORD PTR tv373[ebp]
  00103	8b 0d 00 00 00
	00		 mov	 ecx, DWORD PTR ?current_flight_dynamics@@3PAUDYNAMICS_TYPE@@A ; current_flight_dynamics
  00109	51		 push	 ecx
  0010a	f3 0f 10 89 e4
	1d 00 00	 movss	 xmm1, DWORD PTR [ecx+7652]
  00112	f3 0f 11 0c 24	 movss	 DWORD PTR [esp], xmm1
  00117	f3 0f 11 45 a0	 movss	 DWORD PTR tv479[ebp], xmm0
  0011c	e8 00 00 00 00	 call	 ?fabs@@YGMM@Z		; fabs
  00121	d9 5d 9c	 fstp	 DWORD PTR tv380[ebp]
  00124	f3 0f 10 45 a0	 movss	 xmm0, DWORD PTR tv479[ebp]
  00129	f3 0f 58 45 9c	 addss	 xmm0, DWORD PTR tv380[ebp]
  0012e	f3 0f 5a c0	 cvtss2sd xmm0, xmm0
  00132	f2 0f 59 05 00
	00 00 00	 mulsd	 xmm0, QWORD PTR __real@4059000000000000
  0013a	f2 0f 5a c0	 cvtsd2ss xmm0, xmm0
  0013e	f3 0f 11 45 f8	 movss	 DWORD PTR _workload$[ebp], xmm0

; 707  : 		  * 100.0;
; 708  : 	  workload = bound (workload, 0.0, 100.0);

  00143	f3 0f 5a 45 f8	 cvtss2sd xmm0, DWORD PTR _workload$[ebp]
  00148	0f 57 c9	 xorps	 xmm1, xmm1
  0014b	66 0f 2f c8	 comisd	 xmm1, xmm0
  0014f	76 0a		 jbe	 SHORT $LN23@update_hin
  00151	0f 57 c0	 xorps	 xmm0, xmm0
  00154	f2 0f 11 45 a0	 movsd	 QWORD PTR tv94[ebp], xmm0
  00159	eb 32		 jmp	 SHORT $LN24@update_hin
$LN23@update_hin:
  0015b	f3 0f 5a 45 f8	 cvtss2sd xmm0, DWORD PTR _workload$[ebp]
  00160	66 0f 2f 05 00
	00 00 00	 comisd	 xmm0, QWORD PTR __real@4059000000000000
  00168	76 0f		 jbe	 SHORT $LN21@update_hin
  0016a	f2 0f 10 05 00
	00 00 00	 movsd	 xmm0, QWORD PTR __real@4059000000000000
  00172	f2 0f 11 45 98	 movsd	 QWORD PTR tv93[ebp], xmm0
  00177	eb 0a		 jmp	 SHORT $LN22@update_hin
$LN21@update_hin:
  00179	f3 0f 5a 45 f8	 cvtss2sd xmm0, DWORD PTR _workload$[ebp]
  0017e	f2 0f 11 45 98	 movsd	 QWORD PTR tv93[ebp], xmm0
$LN22@update_hin:
  00183	f2 0f 10 45 98	 movsd	 xmm0, QWORD PTR tv93[ebp]
  00188	f2 0f 11 45 a0	 movsd	 QWORD PTR tv94[ebp], xmm0
$LN24@update_hin:
  0018d	f2 0f 5a 45 a0	 cvtsd2ss xmm0, QWORD PTR tv94[ebp]
  00192	f3 0f 11 45 f8	 movss	 DWORD PTR _workload$[ebp], xmm0
$LN7@update_hin:

; 709  : 	}
; 710  : 
; 711  : 	// arneh - distribute torque among engines depending on the N1 RPM of each engine
; 712  : 	total_rpm = bound(current_flight_dynamics->left_engine_n1_rpm.value - 55.0, 0.0, 100.0) +

  00197	a1 00 00 00 00	 mov	 eax, DWORD PTR ?current_flight_dynamics@@3PAUDYNAMICS_TYPE@@A ; current_flight_dynamics
  0019c	f3 0f 5a 80 94
	1c 00 00	 cvtss2sd xmm0, DWORD PTR [eax+7316]
  001a4	f2 0f 5c 05 00
	00 00 00	 subsd	 xmm0, QWORD PTR __real@404b800000000000
  001ac	0f 57 c9	 xorps	 xmm1, xmm1
  001af	66 0f 2f c8	 comisd	 xmm1, xmm0
  001b3	76 0a		 jbe	 SHORT $LN27@update_hin
  001b5	0f 57 c0	 xorps	 xmm0, xmm0
  001b8	f2 0f 11 45 a0	 movsd	 QWORD PTR tv143[ebp], xmm0
  001bd	eb 54		 jmp	 SHORT $LN28@update_hin
$LN27@update_hin:
  001bf	8b 0d 00 00 00
	00		 mov	 ecx, DWORD PTR ?current_flight_dynamics@@3PAUDYNAMICS_TYPE@@A ; current_flight_dynamics
  001c5	f3 0f 5a 81 94
	1c 00 00	 cvtss2sd xmm0, DWORD PTR [ecx+7316]
  001cd	f2 0f 5c 05 00
	00 00 00	 subsd	 xmm0, QWORD PTR __real@404b800000000000
  001d5	66 0f 2f 05 00
	00 00 00	 comisd	 xmm0, QWORD PTR __real@4059000000000000
  001dd	76 0f		 jbe	 SHORT $LN25@update_hin
  001df	f2 0f 10 05 00
	00 00 00	 movsd	 xmm0, QWORD PTR __real@4059000000000000
  001e7	f2 0f 11 45 98	 movsd	 QWORD PTR tv142[ebp], xmm0
  001ec	eb 1b		 jmp	 SHORT $LN26@update_hin
$LN25@update_hin:
  001ee	8b 15 00 00 00
	00		 mov	 edx, DWORD PTR ?current_flight_dynamics@@3PAUDYNAMICS_TYPE@@A ; current_flight_dynamics
  001f4	f3 0f 5a 82 94
	1c 00 00	 cvtss2sd xmm0, DWORD PTR [edx+7316]
  001fc	f2 0f 5c 05 00
	00 00 00	 subsd	 xmm0, QWORD PTR __real@404b800000000000
  00204	f2 0f 11 45 98	 movsd	 QWORD PTR tv142[ebp], xmm0
$LN26@update_hin:
  00209	f2 0f 10 45 98	 movsd	 xmm0, QWORD PTR tv142[ebp]
  0020e	f2 0f 11 45 a0	 movsd	 QWORD PTR tv143[ebp], xmm0
$LN28@update_hin:
  00213	a1 00 00 00 00	 mov	 eax, DWORD PTR ?current_flight_dynamics@@3PAUDYNAMICS_TYPE@@A ; current_flight_dynamics
  00218	f3 0f 5a 80 f4
	1c 00 00	 cvtss2sd xmm0, DWORD PTR [eax+7412]
  00220	f2 0f 5c 05 00
	00 00 00	 subsd	 xmm0, QWORD PTR __real@404b800000000000
  00228	0f 57 c9	 xorps	 xmm1, xmm1
  0022b	66 0f 2f c8	 comisd	 xmm1, xmm0
  0022f	76 0a		 jbe	 SHORT $LN31@update_hin
  00231	0f 57 c0	 xorps	 xmm0, xmm0
  00234	f2 0f 11 45 90	 movsd	 QWORD PTR tv159[ebp], xmm0
  00239	eb 54		 jmp	 SHORT $LN32@update_hin
$LN31@update_hin:
  0023b	8b 0d 00 00 00
	00		 mov	 ecx, DWORD PTR ?current_flight_dynamics@@3PAUDYNAMICS_TYPE@@A ; current_flight_dynamics
  00241	f3 0f 5a 81 f4
	1c 00 00	 cvtss2sd xmm0, DWORD PTR [ecx+7412]
  00249	f2 0f 5c 05 00
	00 00 00	 subsd	 xmm0, QWORD PTR __real@404b800000000000
  00251	66 0f 2f 05 00
	00 00 00	 comisd	 xmm0, QWORD PTR __real@4059000000000000
  00259	76 0f		 jbe	 SHORT $LN29@update_hin
  0025b	f2 0f 10 05 00
	00 00 00	 movsd	 xmm0, QWORD PTR __real@4059000000000000
  00263	f2 0f 11 45 88	 movsd	 QWORD PTR tv158[ebp], xmm0
  00268	eb 1b		 jmp	 SHORT $LN30@update_hin
$LN29@update_hin:
  0026a	8b 15 00 00 00
	00		 mov	 edx, DWORD PTR ?current_flight_dynamics@@3PAUDYNAMICS_TYPE@@A ; current_flight_dynamics
  00270	f3 0f 5a 82 f4
	1c 00 00	 cvtss2sd xmm0, DWORD PTR [edx+7412]
  00278	f2 0f 5c 05 00
	00 00 00	 subsd	 xmm0, QWORD PTR __real@404b800000000000
  00280	f2 0f 11 45 88	 movsd	 QWORD PTR tv158[ebp], xmm0
$LN30@update_hin:
  00285	f2 0f 10 45 88	 movsd	 xmm0, QWORD PTR tv158[ebp]
  0028a	f2 0f 11 45 90	 movsd	 QWORD PTR tv159[ebp], xmm0
$LN32@update_hin:
  0028f	f2 0f 10 45 a0	 movsd	 xmm0, QWORD PTR tv143[ebp]
  00294	f2 0f 58 45 90	 addsd	 xmm0, QWORD PTR tv159[ebp]
  00299	f2 0f 5a c0	 cvtsd2ss xmm0, xmm0
  0029d	f3 0f 11 45 f4	 movss	 DWORD PTR _total_rpm$[ebp], xmm0

; 713  : 		bound(current_flight_dynamics->right_engine_n1_rpm.value - 55.0, 0.0, 100.0);
; 714  : 	if (total_rpm > 0.0)

  002a2	f3 0f 5a 45 f4	 cvtss2sd xmm0, DWORD PTR _total_rpm$[ebp]
  002a7	66 0f 2f 05 00
	00 00 00	 comisd	 xmm0, QWORD PTR __real@0000000000000000
  002af	0f 86 95 00 00
	00		 jbe	 $LN8@update_hin

; 715  : 		left_power_ratio = bound(current_flight_dynamics->left_engine_n1_rpm.value -55.0, 0.0, 100.0) / total_rpm;

  002b5	a1 00 00 00 00	 mov	 eax, DWORD PTR ?current_flight_dynamics@@3PAUDYNAMICS_TYPE@@A ; current_flight_dynamics
  002ba	f3 0f 5a 80 94
	1c 00 00	 cvtss2sd xmm0, DWORD PTR [eax+7316]
  002c2	f2 0f 5c 05 00
	00 00 00	 subsd	 xmm0, QWORD PTR __real@404b800000000000
  002ca	0f 57 c9	 xorps	 xmm1, xmm1
  002cd	66 0f 2f c8	 comisd	 xmm1, xmm0
  002d1	76 0a		 jbe	 SHORT $LN35@update_hin
  002d3	0f 57 c0	 xorps	 xmm0, xmm0
  002d6	f2 0f 11 45 a0	 movsd	 QWORD PTR tv179[ebp], xmm0
  002db	eb 54		 jmp	 SHORT $LN36@update_hin
$LN35@update_hin:
  002dd	8b 0d 00 00 00
	00		 mov	 ecx, DWORD PTR ?current_flight_dynamics@@3PAUDYNAMICS_TYPE@@A ; current_flight_dynamics
  002e3	f3 0f 5a 81 94
	1c 00 00	 cvtss2sd xmm0, DWORD PTR [ecx+7316]
  002eb	f2 0f 5c 05 00
	00 00 00	 subsd	 xmm0, QWORD PTR __real@404b800000000000
  002f3	66 0f 2f 05 00
	00 00 00	 comisd	 xmm0, QWORD PTR __real@4059000000000000
  002fb	76 0f		 jbe	 SHORT $LN33@update_hin
  002fd	f2 0f 10 05 00
	00 00 00	 movsd	 xmm0, QWORD PTR __real@4059000000000000
  00305	f2 0f 11 45 98	 movsd	 QWORD PTR tv178[ebp], xmm0
  0030a	eb 1b		 jmp	 SHORT $LN34@update_hin
$LN33@update_hin:
  0030c	8b 15 00 00 00
	00		 mov	 edx, DWORD PTR ?current_flight_dynamics@@3PAUDYNAMICS_TYPE@@A ; current_flight_dynamics
  00312	f3 0f 5a 82 94
	1c 00 00	 cvtss2sd xmm0, DWORD PTR [edx+7316]
  0031a	f2 0f 5c 05 00
	00 00 00	 subsd	 xmm0, QWORD PTR __real@404b800000000000
  00322	f2 0f 11 45 98	 movsd	 QWORD PTR tv178[ebp], xmm0
$LN34@update_hin:
  00327	f2 0f 10 45 98	 movsd	 xmm0, QWORD PTR tv178[ebp]
  0032c	f2 0f 11 45 a0	 movsd	 QWORD PTR tv179[ebp], xmm0
$LN36@update_hin:
  00331	f3 0f 5a 45 f4	 cvtss2sd xmm0, DWORD PTR _total_rpm$[ebp]
  00336	f2 0f 10 4d a0	 movsd	 xmm1, QWORD PTR tv179[ebp]
  0033b	f2 0f 5e c8	 divsd	 xmm1, xmm0
  0033f	f2 0f 5a c1	 cvtsd2ss xmm0, xmm1
  00343	f3 0f 11 45 f0	 movss	 DWORD PTR _left_power_ratio$[ebp], xmm0

; 716  : 	else

  00348	eb 0d		 jmp	 SHORT $LN9@update_hin
$LN8@update_hin:

; 717  : 		left_power_ratio = 0.5;

  0034a	f3 0f 10 05 00
	00 00 00	 movss	 xmm0, DWORD PTR __real@3f000000
  00352	f3 0f 11 45 f0	 movss	 DWORD PTR _left_power_ratio$[ebp], xmm0
$LN9@update_hin:

; 718  : 
; 719  : 	if (!current_flight_dynamics->left_engine_torque.damaged)

  00357	a1 00 00 00 00	 mov	 eax, DWORD PTR ?current_flight_dynamics@@3PAUDYNAMICS_TYPE@@A ; current_flight_dynamics
  0035c	0f b7 88 bc 1c
	00 00		 movzx	 ecx, WORD PTR [eax+7356]
  00363	85 c9		 test	 ecx, ecx
  00365	0f 85 c8 01 00
	00		 jne	 $LN10@update_hin

; 720  : 	{
; 721  : 		rpm = 0.0;

  0036b	0f 57 c0	 xorps	 xmm0, xmm0
  0036e	f3 0f 11 45 fc	 movss	 DWORD PTR _rpm$[ebp], xmm0

; 722  : 
; 723  : 		if (current_flight_dynamics->main_rotor_rpm.max != 0.0)

  00373	a1 00 00 00 00	 mov	 eax, DWORD PTR ?current_flight_dynamics@@3PAUDYNAMICS_TYPE@@A ; current_flight_dynamics
  00378	f3 0f 5a 80 20
	1e 00 00	 cvtss2sd xmm0, DWORD PTR [eax+7712]
  00380	66 0f 2e 05 00
	00 00 00	 ucomisd xmm0, QWORD PTR __real@0000000000000000
  00388	9f		 lahf
  00389	f6 c4 44	 test	 ah, 68			; 00000044H
  0038c	0f 8b f3 00 00
	00		 jnp	 $LN13@update_hin

; 724  : 		{
; 725  : 			float rotor_rpm_diff = current_flight_dynamics->main_rotor_rpm.value - current_flight_dynamics->left_engine_rpm.value;

  00392	a1 00 00 00 00	 mov	 eax, DWORD PTR ?current_flight_dynamics@@3PAUDYNAMICS_TYPE@@A ; current_flight_dynamics
  00397	8b 0d 00 00 00
	00		 mov	 ecx, DWORD PTR ?current_flight_dynamics@@3PAUDYNAMICS_TYPE@@A ; current_flight_dynamics
  0039d	f3 0f 10 80 14
	1e 00 00	 movss	 xmm0, DWORD PTR [eax+7700]
  003a5	f3 0f 5c 81 7c
	1c 00 00	 subss	 xmm0, DWORD PTR [ecx+7292]
  003ad	f3 0f 11 45 ec	 movss	 DWORD PTR _rotor_rpm_diff$2[ebp], xmm0

; 726  : 
; 727  : 			rpm = current_flight_dynamics->main_rotor_rpm.value / current_flight_dynamics->main_rotor_max_rpm;

  003b2	a1 00 00 00 00	 mov	 eax, DWORD PTR ?current_flight_dynamics@@3PAUDYNAMICS_TYPE@@A ; current_flight_dynamics
  003b7	8b 0d 00 00 00
	00		 mov	 ecx, DWORD PTR ?current_flight_dynamics@@3PAUDYNAMICS_TYPE@@A ; current_flight_dynamics
  003bd	f3 0f 10 80 14
	1e 00 00	 movss	 xmm0, DWORD PTR [eax+7700]
  003c5	f3 0f 5e 81 34
	25 00 00	 divss	 xmm0, DWORD PTR [ecx+9524]
  003cd	f3 0f 11 45 fc	 movss	 DWORD PTR _rpm$[ebp], xmm0

; 728  : 			rpm *= 0.5 + left_power_ratio;

  003d2	f3 0f 5a 45 f0	 cvtss2sd xmm0, DWORD PTR _left_power_ratio$[ebp]
  003d7	f2 0f 58 05 00
	00 00 00	 addsd	 xmm0, QWORD PTR __real@3fe0000000000000
  003df	f3 0f 5a 4d fc	 cvtss2sd xmm1, DWORD PTR _rpm$[ebp]
  003e4	f2 0f 59 c8	 mulsd	 xmm1, xmm0
  003e8	f2 0f 5a c1	 cvtsd2ss xmm0, xmm1
  003ec	f3 0f 11 45 fc	 movss	 DWORD PTR _rpm$[ebp], xmm0

; 729  : 			if (rotor_rpm_diff > 0.0)

  003f1	f3 0f 5a 45 ec	 cvtss2sd xmm0, DWORD PTR _rotor_rpm_diff$2[ebp]
  003f6	66 0f 2f 05 00
	00 00 00	 comisd	 xmm0, QWORD PTR __real@0000000000000000
  003fe	0f 86 81 00 00
	00		 jbe	 $LN13@update_hin

; 730  : 				rpm *= 1.0 - bound(rotor_rpm_diff * 0.75, 0.0, 1.0);

  00404	f3 0f 5a 45 ec	 cvtss2sd xmm0, DWORD PTR _rotor_rpm_diff$2[ebp]
  00409	f2 0f 59 05 00
	00 00 00	 mulsd	 xmm0, QWORD PTR __real@3fe8000000000000
  00411	0f 57 c9	 xorps	 xmm1, xmm1
  00414	66 0f 2f c8	 comisd	 xmm1, xmm0
  00418	76 0a		 jbe	 SHORT $LN39@update_hin
  0041a	0f 57 c0	 xorps	 xmm0, xmm0
  0041d	f2 0f 11 45 a0	 movsd	 QWORD PTR tv216[ebp], xmm0
  00422	eb 42		 jmp	 SHORT $LN40@update_hin
$LN39@update_hin:
  00424	f3 0f 5a 45 ec	 cvtss2sd xmm0, DWORD PTR _rotor_rpm_diff$2[ebp]
  00429	f2 0f 59 05 00
	00 00 00	 mulsd	 xmm0, QWORD PTR __real@3fe8000000000000
  00431	66 0f 2f 05 00
	00 00 00	 comisd	 xmm0, QWORD PTR __real@3ff0000000000000
  00439	76 0f		 jbe	 SHORT $LN37@update_hin
  0043b	f2 0f 10 05 00
	00 00 00	 movsd	 xmm0, QWORD PTR __real@3ff0000000000000
  00443	f2 0f 11 45 98	 movsd	 QWORD PTR tv215[ebp], xmm0
  00448	eb 12		 jmp	 SHORT $LN38@update_hin
$LN37@update_hin:
  0044a	f3 0f 5a 45 ec	 cvtss2sd xmm0, DWORD PTR _rotor_rpm_diff$2[ebp]
  0044f	f2 0f 59 05 00
	00 00 00	 mulsd	 xmm0, QWORD PTR __real@3fe8000000000000
  00457	f2 0f 11 45 98	 movsd	 QWORD PTR tv215[ebp], xmm0
$LN38@update_hin:
  0045c	f2 0f 10 45 98	 movsd	 xmm0, QWORD PTR tv215[ebp]
  00461	f2 0f 11 45 a0	 movsd	 QWORD PTR tv216[ebp], xmm0
$LN40@update_hin:
  00466	f2 0f 10 05 00
	00 00 00	 movsd	 xmm0, QWORD PTR __real@3ff0000000000000
  0046e	f2 0f 5c 45 a0	 subsd	 xmm0, QWORD PTR tv216[ebp]
  00473	f3 0f 5a 4d fc	 cvtss2sd xmm1, DWORD PTR _rpm$[ebp]
  00478	f2 0f 59 c8	 mulsd	 xmm1, xmm0
  0047c	f2 0f 5a c1	 cvtsd2ss xmm0, xmm1
  00480	f3 0f 11 45 fc	 movss	 DWORD PTR _rpm$[ebp], xmm0
$LN13@update_hin:

; 731  : 		}
; 732  : 
; 733  : //Werewolf: engine torque should INCREASE when the aircraft works harder
; 734  : //Rotor RPM drops under workload, so we use twice as much workload here to make the torque sum increase under workload
; 735  : 		current_flight_dynamics->left_engine_torque.value += ((current_flight_dynamics->input_data.collective.value * rpm) - current_flight_dynamics->left_engine_torque.value) * (4.0 * get_model_delta_time ());

  00485	a1 00 00 00 00	 mov	 eax, DWORD PTR ?current_flight_dynamics@@3PAUDYNAMICS_TYPE@@A ; current_flight_dynamics
  0048a	f3 0f 10 80 a8
	1b 00 00	 movss	 xmm0, DWORD PTR [eax+7080]
  00492	f3 0f 59 45 fc	 mulss	 xmm0, DWORD PTR _rpm$[ebp]
  00497	8b 0d 00 00 00
	00		 mov	 ecx, DWORD PTR ?current_flight_dynamics@@3PAUDYNAMICS_TYPE@@A ; current_flight_dynamics
  0049d	f3 0f 5c 81 ac
	1c 00 00	 subss	 xmm0, DWORD PTR [ecx+7340]
  004a5	f3 0f 5a c0	 cvtss2sd xmm0, xmm0
  004a9	8b 15 00 00 00
	00		 mov	 edx, DWORD PTR ?current_flight_dynamics@@3PAUDYNAMICS_TYPE@@A ; current_flight_dynamics
  004af	f3 0f 5a 8a 90
	00 00 00	 cvtss2sd xmm1, DWORD PTR [edx+144]
  004b7	f2 0f 59 0d 00
	00 00 00	 mulsd	 xmm1, QWORD PTR __real@4010000000000000
  004bf	f2 0f 59 c1	 mulsd	 xmm0, xmm1
  004c3	a1 00 00 00 00	 mov	 eax, DWORD PTR ?current_flight_dynamics@@3PAUDYNAMICS_TYPE@@A ; current_flight_dynamics
  004c8	f3 0f 5a 88 ac
	1c 00 00	 cvtss2sd xmm1, DWORD PTR [eax+7340]
  004d0	f2 0f 58 c8	 addsd	 xmm1, xmm0
  004d4	f2 0f 5a c1	 cvtsd2ss xmm0, xmm1
  004d8	8b 0d 00 00 00
	00		 mov	 ecx, DWORD PTR ?current_flight_dynamics@@3PAUDYNAMICS_TYPE@@A ; current_flight_dynamics
  004de	f3 0f 11 81 ac
	1c 00 00	 movss	 DWORD PTR [ecx+7340], xmm0

; 736  : 		if (command_line_dynamics_advanced_engine_model == TRUE)

  004e6	83 3d 00 00 00
	00 01		 cmp	 DWORD PTR ?command_line_dynamics_advanced_engine_model@@3HA, 1 ; command_line_dynamics_advanced_engine_model
  004ed	75 42		 jne	 SHORT $LN14@update_hin

; 737  : 		  current_flight_dynamics->left_engine_torque.value += (workload) * (4.0 * get_model_delta_time ());

  004ef	f3 0f 5a 45 f8	 cvtss2sd xmm0, DWORD PTR _workload$[ebp]
  004f4	a1 00 00 00 00	 mov	 eax, DWORD PTR ?current_flight_dynamics@@3PAUDYNAMICS_TYPE@@A ; current_flight_dynamics
  004f9	f3 0f 5a 88 90
	00 00 00	 cvtss2sd xmm1, DWORD PTR [eax+144]
  00501	f2 0f 59 0d 00
	00 00 00	 mulsd	 xmm1, QWORD PTR __real@4010000000000000
  00509	f2 0f 59 c1	 mulsd	 xmm0, xmm1
  0050d	8b 0d 00 00 00
	00		 mov	 ecx, DWORD PTR ?current_flight_dynamics@@3PAUDYNAMICS_TYPE@@A ; current_flight_dynamics
  00513	f3 0f 5a 89 ac
	1c 00 00	 cvtss2sd xmm1, DWORD PTR [ecx+7340]
  0051b	f2 0f 58 c8	 addsd	 xmm1, xmm0
  0051f	f2 0f 5a c1	 cvtsd2ss xmm0, xmm1
  00523	8b 15 00 00 00
	00		 mov	 edx, DWORD PTR ?current_flight_dynamics@@3PAUDYNAMICS_TYPE@@A ; current_flight_dynamics
  00529	f3 0f 11 82 ac
	1c 00 00	 movss	 DWORD PTR [edx+7340], xmm0
$LN14@update_hin:

; 738  : 	}
; 739  : 	else

  00531	eb 3a		 jmp	 SHORT $LN11@update_hin
$LN10@update_hin:

; 740  : 	{
; 741  : 
; 742  : 		current_flight_dynamics->left_engine_torque.value -= current_flight_dynamics->left_engine_torque.value * get_model_delta_time ();

  00533	a1 00 00 00 00	 mov	 eax, DWORD PTR ?current_flight_dynamics@@3PAUDYNAMICS_TYPE@@A ; current_flight_dynamics
  00538	8b 0d 00 00 00
	00		 mov	 ecx, DWORD PTR ?current_flight_dynamics@@3PAUDYNAMICS_TYPE@@A ; current_flight_dynamics
  0053e	f3 0f 10 80 ac
	1c 00 00	 movss	 xmm0, DWORD PTR [eax+7340]
  00546	f3 0f 59 81 90
	00 00 00	 mulss	 xmm0, DWORD PTR [ecx+144]
  0054e	8b 15 00 00 00
	00		 mov	 edx, DWORD PTR ?current_flight_dynamics@@3PAUDYNAMICS_TYPE@@A ; current_flight_dynamics
  00554	f3 0f 10 8a ac
	1c 00 00	 movss	 xmm1, DWORD PTR [edx+7340]
  0055c	f3 0f 5c c8	 subss	 xmm1, xmm0
  00560	a1 00 00 00 00	 mov	 eax, DWORD PTR ?current_flight_dynamics@@3PAUDYNAMICS_TYPE@@A ; current_flight_dynamics
  00565	f3 0f 11 88 ac
	1c 00 00	 movss	 DWORD PTR [eax+7340], xmm1
$LN11@update_hin:

; 743  : 	}
; 744  : 
; 745  : 	if (!current_flight_dynamics->right_engine_torque.damaged)

  0056d	a1 00 00 00 00	 mov	 eax, DWORD PTR ?current_flight_dynamics@@3PAUDYNAMICS_TYPE@@A ; current_flight_dynamics
  00572	0f b7 88 1c 1d
	00 00		 movzx	 ecx, WORD PTR [eax+7452]
  00579	85 c9		 test	 ecx, ecx
  0057b	0f 85 d4 01 00
	00		 jne	 $LN15@update_hin

; 746  : 	{
; 747  : 		rpm = 0.0;

  00581	0f 57 c0	 xorps	 xmm0, xmm0
  00584	f3 0f 11 45 fc	 movss	 DWORD PTR _rpm$[ebp], xmm0

; 748  : 
; 749  : 		if (current_flight_dynamics->main_rotor_rpm.max != 0.0)

  00589	a1 00 00 00 00	 mov	 eax, DWORD PTR ?current_flight_dynamics@@3PAUDYNAMICS_TYPE@@A ; current_flight_dynamics
  0058e	f3 0f 5a 80 20
	1e 00 00	 cvtss2sd xmm0, DWORD PTR [eax+7712]
  00596	66 0f 2e 05 00
	00 00 00	 ucomisd xmm0, QWORD PTR __real@0000000000000000
  0059e	9f		 lahf
  0059f	f6 c4 44	 test	 ah, 68			; 00000044H
  005a2	0f 8b ff 00 00
	00		 jnp	 $LN18@update_hin

; 750  : 		{
; 751  : 			float rotor_rpm_diff = current_flight_dynamics->main_rotor_rpm.value - current_flight_dynamics->right_engine_rpm.value;

  005a8	a1 00 00 00 00	 mov	 eax, DWORD PTR ?current_flight_dynamics@@3PAUDYNAMICS_TYPE@@A ; current_flight_dynamics
  005ad	8b 0d 00 00 00
	00		 mov	 ecx, DWORD PTR ?current_flight_dynamics@@3PAUDYNAMICS_TYPE@@A ; current_flight_dynamics
  005b3	f3 0f 10 80 14
	1e 00 00	 movss	 xmm0, DWORD PTR [eax+7700]
  005bb	f3 0f 5c 81 dc
	1c 00 00	 subss	 xmm0, DWORD PTR [ecx+7388]
  005c3	f3 0f 11 45 e8	 movss	 DWORD PTR _rotor_rpm_diff$1[ebp], xmm0

; 752  : 
; 753  : 			rpm = current_flight_dynamics->main_rotor_rpm.value / current_flight_dynamics->main_rotor_max_rpm;

  005c8	a1 00 00 00 00	 mov	 eax, DWORD PTR ?current_flight_dynamics@@3PAUDYNAMICS_TYPE@@A ; current_flight_dynamics
  005cd	8b 0d 00 00 00
	00		 mov	 ecx, DWORD PTR ?current_flight_dynamics@@3PAUDYNAMICS_TYPE@@A ; current_flight_dynamics
  005d3	f3 0f 10 80 14
	1e 00 00	 movss	 xmm0, DWORD PTR [eax+7700]
  005db	f3 0f 5e 81 34
	25 00 00	 divss	 xmm0, DWORD PTR [ecx+9524]
  005e3	f3 0f 11 45 fc	 movss	 DWORD PTR _rpm$[ebp], xmm0

; 754  : 			rpm *= 0.5 + (1.0 - left_power_ratio);

  005e8	f3 0f 5a 45 f0	 cvtss2sd xmm0, DWORD PTR _left_power_ratio$[ebp]
  005ed	f2 0f 10 0d 00
	00 00 00	 movsd	 xmm1, QWORD PTR __real@3ff0000000000000
  005f5	f2 0f 5c c8	 subsd	 xmm1, xmm0
  005f9	f2 0f 58 0d 00
	00 00 00	 addsd	 xmm1, QWORD PTR __real@3fe0000000000000
  00601	f3 0f 5a 45 fc	 cvtss2sd xmm0, DWORD PTR _rpm$[ebp]
  00606	f2 0f 59 c1	 mulsd	 xmm0, xmm1
  0060a	f2 0f 5a c0	 cvtsd2ss xmm0, xmm0
  0060e	f3 0f 11 45 fc	 movss	 DWORD PTR _rpm$[ebp], xmm0

; 755  : 			if (rotor_rpm_diff > 0.0)

  00613	f3 0f 5a 45 e8	 cvtss2sd xmm0, DWORD PTR _rotor_rpm_diff$1[ebp]
  00618	66 0f 2f 05 00
	00 00 00	 comisd	 xmm0, QWORD PTR __real@0000000000000000
  00620	0f 86 81 00 00
	00		 jbe	 $LN18@update_hin

; 756  : 				rpm *= 1.0 - bound(rotor_rpm_diff * 0.75, 0.0, 1.0);

  00626	f3 0f 5a 45 e8	 cvtss2sd xmm0, DWORD PTR _rotor_rpm_diff$1[ebp]
  0062b	f2 0f 59 05 00
	00 00 00	 mulsd	 xmm0, QWORD PTR __real@3fe8000000000000
  00633	0f 57 c9	 xorps	 xmm1, xmm1
  00636	66 0f 2f c8	 comisd	 xmm1, xmm0
  0063a	76 0a		 jbe	 SHORT $LN43@update_hin
  0063c	0f 57 c0	 xorps	 xmm0, xmm0
  0063f	f2 0f 11 45 a0	 movsd	 QWORD PTR tv296[ebp], xmm0
  00644	eb 42		 jmp	 SHORT $LN44@update_hin
$LN43@update_hin:
  00646	f3 0f 5a 45 e8	 cvtss2sd xmm0, DWORD PTR _rotor_rpm_diff$1[ebp]
  0064b	f2 0f 59 05 00
	00 00 00	 mulsd	 xmm0, QWORD PTR __real@3fe8000000000000
  00653	66 0f 2f 05 00
	00 00 00	 comisd	 xmm0, QWORD PTR __real@3ff0000000000000
  0065b	76 0f		 jbe	 SHORT $LN41@update_hin
  0065d	f2 0f 10 05 00
	00 00 00	 movsd	 xmm0, QWORD PTR __real@3ff0000000000000
  00665	f2 0f 11 45 98	 movsd	 QWORD PTR tv295[ebp], xmm0
  0066a	eb 12		 jmp	 SHORT $LN42@update_hin
$LN41@update_hin:
  0066c	f3 0f 5a 45 e8	 cvtss2sd xmm0, DWORD PTR _rotor_rpm_diff$1[ebp]
  00671	f2 0f 59 05 00
	00 00 00	 mulsd	 xmm0, QWORD PTR __real@3fe8000000000000
  00679	f2 0f 11 45 98	 movsd	 QWORD PTR tv295[ebp], xmm0
$LN42@update_hin:
  0067e	f2 0f 10 45 98	 movsd	 xmm0, QWORD PTR tv295[ebp]
  00683	f2 0f 11 45 a0	 movsd	 QWORD PTR tv296[ebp], xmm0
$LN44@update_hin:
  00688	f2 0f 10 05 00
	00 00 00	 movsd	 xmm0, QWORD PTR __real@3ff0000000000000
  00690	f2 0f 5c 45 a0	 subsd	 xmm0, QWORD PTR tv296[ebp]
  00695	f3 0f 5a 4d fc	 cvtss2sd xmm1, DWORD PTR _rpm$[ebp]
  0069a	f2 0f 59 c8	 mulsd	 xmm1, xmm0
  0069e	f2 0f 5a c1	 cvtsd2ss xmm0, xmm1
  006a2	f3 0f 11 45 fc	 movss	 DWORD PTR _rpm$[ebp], xmm0
$LN18@update_hin:

; 757  : 		}
; 758  : 
; 759  : //Werewolf
; 760  : 		current_flight_dynamics->right_engine_torque.value += ((current_flight_dynamics->input_data.collective.value * rpm) - current_flight_dynamics->right_engine_torque.value) * (4.0 * get_model_delta_time ());

  006a7	a1 00 00 00 00	 mov	 eax, DWORD PTR ?current_flight_dynamics@@3PAUDYNAMICS_TYPE@@A ; current_flight_dynamics
  006ac	f3 0f 10 80 a8
	1b 00 00	 movss	 xmm0, DWORD PTR [eax+7080]
  006b4	f3 0f 59 45 fc	 mulss	 xmm0, DWORD PTR _rpm$[ebp]
  006b9	8b 0d 00 00 00
	00		 mov	 ecx, DWORD PTR ?current_flight_dynamics@@3PAUDYNAMICS_TYPE@@A ; current_flight_dynamics
  006bf	f3 0f 5c 81 0c
	1d 00 00	 subss	 xmm0, DWORD PTR [ecx+7436]
  006c7	f3 0f 5a c0	 cvtss2sd xmm0, xmm0
  006cb	8b 15 00 00 00
	00		 mov	 edx, DWORD PTR ?current_flight_dynamics@@3PAUDYNAMICS_TYPE@@A ; current_flight_dynamics
  006d1	f3 0f 5a 8a 90
	00 00 00	 cvtss2sd xmm1, DWORD PTR [edx+144]
  006d9	f2 0f 59 0d 00
	00 00 00	 mulsd	 xmm1, QWORD PTR __real@4010000000000000
  006e1	f2 0f 59 c1	 mulsd	 xmm0, xmm1
  006e5	a1 00 00 00 00	 mov	 eax, DWORD PTR ?current_flight_dynamics@@3PAUDYNAMICS_TYPE@@A ; current_flight_dynamics
  006ea	f3 0f 5a 88 0c
	1d 00 00	 cvtss2sd xmm1, DWORD PTR [eax+7436]
  006f2	f2 0f 58 c8	 addsd	 xmm1, xmm0
  006f6	f2 0f 5a c1	 cvtsd2ss xmm0, xmm1
  006fa	8b 0d 00 00 00
	00		 mov	 ecx, DWORD PTR ?current_flight_dynamics@@3PAUDYNAMICS_TYPE@@A ; current_flight_dynamics
  00700	f3 0f 11 81 0c
	1d 00 00	 movss	 DWORD PTR [ecx+7436], xmm0

; 761  : 		if (command_line_dynamics_advanced_engine_model == TRUE)

  00708	83 3d 00 00 00
	00 01		 cmp	 DWORD PTR ?command_line_dynamics_advanced_engine_model@@3HA, 1 ; command_line_dynamics_advanced_engine_model
  0070f	75 42		 jne	 SHORT $LN19@update_hin

; 762  : 			current_flight_dynamics->right_engine_torque.value += (workload) * (4.0 * get_model_delta_time ());

  00711	f3 0f 5a 45 f8	 cvtss2sd xmm0, DWORD PTR _workload$[ebp]
  00716	a1 00 00 00 00	 mov	 eax, DWORD PTR ?current_flight_dynamics@@3PAUDYNAMICS_TYPE@@A ; current_flight_dynamics
  0071b	f3 0f 5a 88 90
	00 00 00	 cvtss2sd xmm1, DWORD PTR [eax+144]
  00723	f2 0f 59 0d 00
	00 00 00	 mulsd	 xmm1, QWORD PTR __real@4010000000000000
  0072b	f2 0f 59 c1	 mulsd	 xmm0, xmm1
  0072f	8b 0d 00 00 00
	00		 mov	 ecx, DWORD PTR ?current_flight_dynamics@@3PAUDYNAMICS_TYPE@@A ; current_flight_dynamics
  00735	f3 0f 5a 89 0c
	1d 00 00	 cvtss2sd xmm1, DWORD PTR [ecx+7436]
  0073d	f2 0f 58 c8	 addsd	 xmm1, xmm0
  00741	f2 0f 5a c1	 cvtsd2ss xmm0, xmm1
  00745	8b 15 00 00 00
	00		 mov	 edx, DWORD PTR ?current_flight_dynamics@@3PAUDYNAMICS_TYPE@@A ; current_flight_dynamics
  0074b	f3 0f 11 82 0c
	1d 00 00	 movss	 DWORD PTR [edx+7436], xmm0
$LN19@update_hin:

; 763  : 	}
; 764  : 	else

  00753	eb 3a		 jmp	 SHORT $LN16@update_hin
$LN15@update_hin:

; 765  : 	{
; 766  : 
; 767  : 		current_flight_dynamics->right_engine_torque.value -= current_flight_dynamics->right_engine_torque.value * get_model_delta_time ();

  00755	a1 00 00 00 00	 mov	 eax, DWORD PTR ?current_flight_dynamics@@3PAUDYNAMICS_TYPE@@A ; current_flight_dynamics
  0075a	8b 0d 00 00 00
	00		 mov	 ecx, DWORD PTR ?current_flight_dynamics@@3PAUDYNAMICS_TYPE@@A ; current_flight_dynamics
  00760	f3 0f 10 80 0c
	1d 00 00	 movss	 xmm0, DWORD PTR [eax+7436]
  00768	f3 0f 59 81 90
	00 00 00	 mulss	 xmm0, DWORD PTR [ecx+144]
  00770	8b 15 00 00 00
	00		 mov	 edx, DWORD PTR ?current_flight_dynamics@@3PAUDYNAMICS_TYPE@@A ; current_flight_dynamics
  00776	f3 0f 10 8a 0c
	1d 00 00	 movss	 xmm1, DWORD PTR [edx+7436]
  0077e	f3 0f 5c c8	 subss	 xmm1, xmm0
  00782	a1 00 00 00 00	 mov	 eax, DWORD PTR ?current_flight_dynamics@@3PAUDYNAMICS_TYPE@@A ; current_flight_dynamics
  00787	f3 0f 11 88 0c
	1d 00 00	 movss	 DWORD PTR [eax+7436], xmm1
$LN16@update_hin:

; 768  : 	}
; 769  : }

  0078f	5f		 pop	 edi
  00790	5e		 pop	 esi
  00791	5b		 pop	 ebx
  00792	8b e5		 mov	 esp, ebp
  00794	5d		 pop	 ebp
  00795	c3		 ret	 0
?update_hind_advanced_dynamics@@YGXXZ ENDP		; update_hind_advanced_dynamics
_TEXT	ENDS
; Function compile flags: /Odtp /ZI
; File c:\users\nhv90\projects\eech\aphavoc\source\gunships\dynamics\hind\hi_dyn.c
;	COMDAT ?initialise_hind_advanced_dynamics@@YGXPAUENTITY@@@Z
_TEXT	SEGMENT
_en$ = 8						; size = 4
?initialise_hind_advanced_dynamics@@YGXPAUENTITY@@@Z PROC ; initialise_hind_advanced_dynamics, COMDAT

; 130  : {

  00000	55		 push	 ebp
  00001	8b ec		 mov	 ebp, esp
  00003	83 ec 40	 sub	 esp, 64			; 00000040H
  00006	53		 push	 ebx
  00007	56		 push	 esi
  00008	57		 push	 edi

; 131  : 
; 132  : 	current_flight_dynamics = &advanced_flight_dynamics;

  00009	c7 05 00 00 00
	00 00 00 00 00	 mov	 DWORD PTR ?current_flight_dynamics@@3PAUDYNAMICS_TYPE@@A, OFFSET ?advanced_flight_dynamics@@3UDYNAMICS_TYPE@@A ; current_flight_dynamics

; 133  : 
; 134  : 	memset (current_flight_dynamics, 0, sizeof (dynamics_type));

  00013	68 40 25 00 00	 push	 9536			; 00002540H
  00018	6a 00		 push	 0
  0001a	a1 00 00 00 00	 mov	 eax, DWORD PTR ?current_flight_dynamics@@3PAUDYNAMICS_TYPE@@A ; current_flight_dynamics
  0001f	50		 push	 eax
  00020	e8 00 00 00 00	 call	 _memset
  00025	83 c4 0c	 add	 esp, 12			; 0000000cH

; 135  : 
; 136  : 	set_dynamics_defaults (en);

  00028	8b 45 08	 mov	 eax, DWORD PTR _en$[ebp]
  0002b	50		 push	 eax
  0002c	e8 00 00 00 00	 call	 ?set_dynamics_defaults@@YGXPAUENTITY@@@Z ; set_dynamics_defaults

; 137  : 
; 138  : 	current_flight_dynamics->sub_type = ENTITY_SUB_TYPE_AIRCRAFT_MI24D_HIND;

  00031	a1 00 00 00 00	 mov	 eax, DWORD PTR ?current_flight_dynamics@@3PAUDYNAMICS_TYPE@@A ; current_flight_dynamics
  00036	c7 40 04 05 00
	00 00		 mov	 DWORD PTR [eax+4], 5

; 139  : 
; 140  : 	sprintf (current_flight_dynamics->filename, "..\\common\\data\\hind.dyn");

  0003d	68 00 00 00 00	 push	 OFFSET ??_C@_0BI@JEIEOBCF@?4?4?2common?2data?2hind?4dyn@
  00042	a1 00 00 00 00	 mov	 eax, DWORD PTR ?current_flight_dynamics@@3PAUDYNAMICS_TYPE@@A ; current_flight_dynamics
  00047	83 c0 08	 add	 eax, 8
  0004a	50		 push	 eax
  0004b	e8 00 00 00 00	 call	 _sprintf
  00050	83 c4 08	 add	 esp, 8

; 141  : }

  00053	5f		 pop	 edi
  00054	5e		 pop	 esi
  00055	5b		 pop	 ebx
  00056	8b e5		 mov	 esp, ebp
  00058	5d		 pop	 ebp
  00059	c2 04 00	 ret	 4
?initialise_hind_advanced_dynamics@@YGXPAUENTITY@@@Z ENDP ; initialise_hind_advanced_dynamics
_TEXT	ENDS
; Function compile flags: /Odtp /ZI
; File c:\users\nhv90\projects\eech\aphavoc\source\gunships\dynamics\hind\hi_dyn.c
;	COMDAT ?update_acceleration_dynamics@@YGXXZ
_TEXT	SEGMENT
tv586 = -152						; size = 8
tv587 = -144						; size = 8
tv918 = -136						; size = 8
tv417 = -136						; size = 4
tv409 = -132						; size = 4
tv571 = -128						; size = 4
tv397 = -128						; size = 4
tv563 = -124						; size = 4
tv389 = -124						; size = 4
tv901 = -120						; size = 8
tv864 = -120						; size = 8
tv377 = -120						; size = 4
tv255 = -120						; size = 8
tv241 = -120						; size = 8
tv369 = -116						; size = 4
tv609 = -112						; size = 4
tv548 = -112						; size = 4
tv522 = -112						; size = 4
tv501 = -112						; size = 4
tv480 = -112						; size = 4
tv456 = -112						; size = 4
tv436 = -112						; size = 4
tv270 = -112						; size = 4
tv256 = -112						; size = 8
tv242 = -112						; size = 8
tv601 = -108						; size = 4
tv540 = -108						; size = 4
tv514 = -108						; size = 4
tv494 = -108						; size = 4
tv473 = -108						; size = 4
tv449 = -108						; size = 4
tv428 = -108						; size = 4
tv263 = -108						; size = 4
$T1 = -104						; size = 4
$T2 = -100						; size = 4
$T3 = -96						; size = 4
$T4 = -92						; size = 4
$T5 = -88						; size = 4
$T6 = -84						; size = 4
$T7 = -80						; size = 4
$T8 = -76						; size = 4
_keysite$9 = -8						; size = 4
_raw$ = -4						; size = 4
?update_acceleration_dynamics@@YGXXZ PROC		; update_acceleration_dynamics, COMDAT

; 2900 : {

  00000	55		 push	 ebp
  00001	8b ec		 mov	 ebp, esp
  00003	81 ec 98 00 00
	00		 sub	 esp, 152		; 00000098H
  00009	53		 push	 ebx
  0000a	56		 push	 esi
  0000b	57		 push	 edi

; 2901 : 
; 2902 : 	helicopter
; 2903 : 		*raw;
; 2904 : 
; 2905 : 	raw = (helicopter *) get_local_entity_data (get_gunship_entity ());

  0000c	a1 00 00 00 00	 mov	 eax, DWORD PTR ?gunship_entity@@3PAUENTITY@@A ; gunship_entity
  00011	8b 48 04	 mov	 ecx, DWORD PTR [eax+4]
  00014	89 4d fc	 mov	 DWORD PTR _raw$[ebp], ecx

; 2906 : 
; 2907 : 	// calculate total lift provided by main rotor
; 2908 : 
; 2909 : 	current_flight_dynamics->lift.value = current_flight_dynamics->power_surplus.value * 50;

  00017	a1 00 00 00 00	 mov	 eax, DWORD PTR ?current_flight_dynamics@@3PAUDYNAMICS_TYPE@@A ; current_flight_dynamics
  0001c	f3 0f 10 80 54
	20 00 00	 movss	 xmm0, DWORD PTR [eax+8276]
  00024	f3 0f 59 05 00
	00 00 00	 mulss	 xmm0, DWORD PTR __real@42480000
  0002c	8b 0d 00 00 00
	00		 mov	 ecx, DWORD PTR ?current_flight_dynamics@@3PAUDYNAMICS_TYPE@@A ; current_flight_dynamics
  00032	f3 0f 11 81 a4
	21 00 00	 movss	 DWORD PTR [ecx+8612], xmm0

; 2910 : 
; 2911 : 	current_flight_dynamics->lift.value /= current_flight_dynamics->mass.value;

  0003a	a1 00 00 00 00	 mov	 eax, DWORD PTR ?current_flight_dynamics@@3PAUDYNAMICS_TYPE@@A ; current_flight_dynamics
  0003f	8b 0d 00 00 00
	00		 mov	 ecx, DWORD PTR ?current_flight_dynamics@@3PAUDYNAMICS_TYPE@@A ; current_flight_dynamics
  00045	f3 0f 10 80 a4
	21 00 00	 movss	 xmm0, DWORD PTR [eax+8612]
  0004d	f3 0f 5e 81 b4
	23 00 00	 divss	 xmm0, DWORD PTR [ecx+9140]
  00055	8b 15 00 00 00
	00		 mov	 edx, DWORD PTR ?current_flight_dynamics@@3PAUDYNAMICS_TYPE@@A ; current_flight_dynamics
  0005b	f3 0f 11 82 a4
	21 00 00	 movss	 DWORD PTR [edx+8612], xmm0

; 2912 : 
; 2913 : 	// transform model acceleration into world acceleration
; 2914 : 
; 2915 : 	multiply_matrix3x3_vec3d (&current_flight_dynamics->world_acceleration_vector, current_flight_dynamics->attitude, &current_flight_dynamics->model_acceleration_vector);

  00063	a1 00 00 00 00	 mov	 eax, DWORD PTR ?current_flight_dynamics@@3PAUDYNAMICS_TYPE@@A ; current_flight_dynamics
  00068	05 48 1c 00 00	 add	 eax, 7240		; 00001c48H
  0006d	50		 push	 eax
  0006e	8b 0d 00 00 00
	00		 mov	 ecx, DWORD PTR ?current_flight_dynamics@@3PAUDYNAMICS_TYPE@@A ; current_flight_dynamics
  00074	81 c1 d0 00 00
	00		 add	 ecx, 208		; 000000d0H
  0007a	51		 push	 ecx
  0007b	8b 15 00 00 00
	00		 mov	 edx, DWORD PTR ?current_flight_dynamics@@3PAUDYNAMICS_TYPE@@A ; current_flight_dynamics
  00081	81 c2 54 1c 00
	00		 add	 edx, 7252		; 00001c54H
  00087	52		 push	 edx
  00088	e8 00 00 00 00	 call	 ?multiply_matrix3x3_vec3d@@YGXPAUVEC3D@@QAY02$$CBMPBU1@@Z ; multiply_matrix3x3_vec3d

; 2916 : 
; 2917 : 	// calculate the motion vector, in world coords
; 2918 : 
; 2919 : 	current_flight_dynamics->world_motion_vector.x += current_flight_dynamics->world_acceleration_vector.x * get_model_delta_time ();

  0008d	a1 00 00 00 00	 mov	 eax, DWORD PTR ?current_flight_dynamics@@3PAUDYNAMICS_TYPE@@A ; current_flight_dynamics
  00092	8b 0d 00 00 00
	00		 mov	 ecx, DWORD PTR ?current_flight_dynamics@@3PAUDYNAMICS_TYPE@@A ; current_flight_dynamics
  00098	f3 0f 10 80 54
	1c 00 00	 movss	 xmm0, DWORD PTR [eax+7252]
  000a0	f3 0f 59 81 90
	00 00 00	 mulss	 xmm0, DWORD PTR [ecx+144]
  000a8	8b 15 00 00 00
	00		 mov	 edx, DWORD PTR ?current_flight_dynamics@@3PAUDYNAMICS_TYPE@@A ; current_flight_dynamics
  000ae	f3 0f 58 82 3c
	1c 00 00	 addss	 xmm0, DWORD PTR [edx+7228]
  000b6	a1 00 00 00 00	 mov	 eax, DWORD PTR ?current_flight_dynamics@@3PAUDYNAMICS_TYPE@@A ; current_flight_dynamics
  000bb	f3 0f 11 80 3c
	1c 00 00	 movss	 DWORD PTR [eax+7228], xmm0

; 2920 : 	current_flight_dynamics->world_motion_vector.y += current_flight_dynamics->world_acceleration_vector.y * get_model_delta_time ();

  000c3	a1 00 00 00 00	 mov	 eax, DWORD PTR ?current_flight_dynamics@@3PAUDYNAMICS_TYPE@@A ; current_flight_dynamics
  000c8	8b 0d 00 00 00
	00		 mov	 ecx, DWORD PTR ?current_flight_dynamics@@3PAUDYNAMICS_TYPE@@A ; current_flight_dynamics
  000ce	f3 0f 10 80 58
	1c 00 00	 movss	 xmm0, DWORD PTR [eax+7256]
  000d6	f3 0f 59 81 90
	00 00 00	 mulss	 xmm0, DWORD PTR [ecx+144]
  000de	8b 15 00 00 00
	00		 mov	 edx, DWORD PTR ?current_flight_dynamics@@3PAUDYNAMICS_TYPE@@A ; current_flight_dynamics
  000e4	f3 0f 58 82 40
	1c 00 00	 addss	 xmm0, DWORD PTR [edx+7232]
  000ec	a1 00 00 00 00	 mov	 eax, DWORD PTR ?current_flight_dynamics@@3PAUDYNAMICS_TYPE@@A ; current_flight_dynamics
  000f1	f3 0f 11 80 40
	1c 00 00	 movss	 DWORD PTR [eax+7232], xmm0

; 2921 : 	current_flight_dynamics->world_motion_vector.z += current_flight_dynamics->world_acceleration_vector.z * get_model_delta_time ();

  000f9	a1 00 00 00 00	 mov	 eax, DWORD PTR ?current_flight_dynamics@@3PAUDYNAMICS_TYPE@@A ; current_flight_dynamics
  000fe	8b 0d 00 00 00
	00		 mov	 ecx, DWORD PTR ?current_flight_dynamics@@3PAUDYNAMICS_TYPE@@A ; current_flight_dynamics
  00104	f3 0f 10 80 5c
	1c 00 00	 movss	 xmm0, DWORD PTR [eax+7260]
  0010c	f3 0f 59 81 90
	00 00 00	 mulss	 xmm0, DWORD PTR [ecx+144]
  00114	8b 15 00 00 00
	00		 mov	 edx, DWORD PTR ?current_flight_dynamics@@3PAUDYNAMICS_TYPE@@A ; current_flight_dynamics
  0011a	f3 0f 58 82 44
	1c 00 00	 addss	 xmm0, DWORD PTR [edx+7236]
  00122	a1 00 00 00 00	 mov	 eax, DWORD PTR ?current_flight_dynamics@@3PAUDYNAMICS_TYPE@@A ; current_flight_dynamics
  00127	f3 0f 11 80 44
	1c 00 00	 movss	 DWORD PTR [eax+7236], xmm0

; 2922 : 
; 2923 : 	current_flight_dynamics->world_velocity_x.value = current_flight_dynamics->world_motion_vector.x;

  0012f	a1 00 00 00 00	 mov	 eax, DWORD PTR ?current_flight_dynamics@@3PAUDYNAMICS_TYPE@@A ; current_flight_dynamics
  00134	8b 0d 00 00 00
	00		 mov	 ecx, DWORD PTR ?current_flight_dynamics@@3PAUDYNAMICS_TYPE@@A ; current_flight_dynamics
  0013a	8b 91 3c 1c 00
	00		 mov	 edx, DWORD PTR [ecx+7228]
  00140	89 90 fc 20 00
	00		 mov	 DWORD PTR [eax+8444], edx

; 2924 : 	current_flight_dynamics->world_velocity_y.value = current_flight_dynamics->world_motion_vector.y;

  00146	a1 00 00 00 00	 mov	 eax, DWORD PTR ?current_flight_dynamics@@3PAUDYNAMICS_TYPE@@A ; current_flight_dynamics
  0014b	8b 0d 00 00 00
	00		 mov	 ecx, DWORD PTR ?current_flight_dynamics@@3PAUDYNAMICS_TYPE@@A ; current_flight_dynamics
  00151	8b 91 40 1c 00
	00		 mov	 edx, DWORD PTR [ecx+7232]
  00157	89 90 14 21 00
	00		 mov	 DWORD PTR [eax+8468], edx

; 2925 : 	current_flight_dynamics->world_velocity_z.value = current_flight_dynamics->world_motion_vector.z;

  0015d	a1 00 00 00 00	 mov	 eax, DWORD PTR ?current_flight_dynamics@@3PAUDYNAMICS_TYPE@@A ; current_flight_dynamics
  00162	8b 0d 00 00 00
	00		 mov	 ecx, DWORD PTR ?current_flight_dynamics@@3PAUDYNAMICS_TYPE@@A ; current_flight_dynamics
  00168	8b 91 44 1c 00
	00		 mov	 edx, DWORD PTR [ecx+7236]
  0016e	89 90 2c 21 00
	00		 mov	 DWORD PTR [eax+8492], edx

; 2926 : 
; 2927 : 	// transform the motion vector back into model coords ready for read-out and bounding
; 2928 : 
; 2929 : 	multiply_transpose_matrix3x3_vec3d (&current_flight_dynamics->model_motion_vector, current_flight_dynamics->attitude, &current_flight_dynamics->world_motion_vector);

  00174	a1 00 00 00 00	 mov	 eax, DWORD PTR ?current_flight_dynamics@@3PAUDYNAMICS_TYPE@@A ; current_flight_dynamics
  00179	05 3c 1c 00 00	 add	 eax, 7228		; 00001c3cH
  0017e	50		 push	 eax
  0017f	8b 0d 00 00 00
	00		 mov	 ecx, DWORD PTR ?current_flight_dynamics@@3PAUDYNAMICS_TYPE@@A ; current_flight_dynamics
  00185	81 c1 d0 00 00
	00		 add	 ecx, 208		; 000000d0H
  0018b	51		 push	 ecx
  0018c	8b 15 00 00 00
	00		 mov	 edx, DWORD PTR ?current_flight_dynamics@@3PAUDYNAMICS_TYPE@@A ; current_flight_dynamics
  00192	81 c2 30 1c 00
	00		 add	 edx, 7216		; 00001c30H
  00198	52		 push	 edx
  00199	e8 00 00 00 00	 call	 ?multiply_transpose_matrix3x3_vec3d@@YGXPAUVEC3D@@QAY02$$CBMPBU1@@Z ; multiply_transpose_matrix3x3_vec3d

; 2930 : 
; 2931 : 	// output values for HUD etc..
; 2932 : 
; 2933 : 	current_flight_dynamics->velocity_x.delta = current_flight_dynamics->world_acceleration_vector.x * get_model_delta_time ();

  0019e	a1 00 00 00 00	 mov	 eax, DWORD PTR ?current_flight_dynamics@@3PAUDYNAMICS_TYPE@@A ; current_flight_dynamics
  001a3	8b 0d 00 00 00
	00		 mov	 ecx, DWORD PTR ?current_flight_dynamics@@3PAUDYNAMICS_TYPE@@A ; current_flight_dynamics
  001a9	f3 0f 10 80 54
	1c 00 00	 movss	 xmm0, DWORD PTR [eax+7252]
  001b1	f3 0f 59 81 90
	00 00 00	 mulss	 xmm0, DWORD PTR [ecx+144]
  001b9	8b 15 00 00 00
	00		 mov	 edx, DWORD PTR ?current_flight_dynamics@@3PAUDYNAMICS_TYPE@@A ; current_flight_dynamics
  001bf	f3 0f 11 82 70
	20 00 00	 movss	 DWORD PTR [edx+8304], xmm0

; 2934 : 	current_flight_dynamics->velocity_y.delta = current_flight_dynamics->world_acceleration_vector.y * get_model_delta_time ();

  001c7	a1 00 00 00 00	 mov	 eax, DWORD PTR ?current_flight_dynamics@@3PAUDYNAMICS_TYPE@@A ; current_flight_dynamics
  001cc	8b 0d 00 00 00
	00		 mov	 ecx, DWORD PTR ?current_flight_dynamics@@3PAUDYNAMICS_TYPE@@A ; current_flight_dynamics
  001d2	f3 0f 10 80 58
	1c 00 00	 movss	 xmm0, DWORD PTR [eax+7256]
  001da	f3 0f 59 81 90
	00 00 00	 mulss	 xmm0, DWORD PTR [ecx+144]
  001e2	8b 15 00 00 00
	00		 mov	 edx, DWORD PTR ?current_flight_dynamics@@3PAUDYNAMICS_TYPE@@A ; current_flight_dynamics
  001e8	f3 0f 11 82 88
	20 00 00	 movss	 DWORD PTR [edx+8328], xmm0

; 2935 : 	current_flight_dynamics->velocity_z.delta = current_flight_dynamics->world_acceleration_vector.z * get_model_delta_time ();

  001f0	a1 00 00 00 00	 mov	 eax, DWORD PTR ?current_flight_dynamics@@3PAUDYNAMICS_TYPE@@A ; current_flight_dynamics
  001f5	8b 0d 00 00 00
	00		 mov	 ecx, DWORD PTR ?current_flight_dynamics@@3PAUDYNAMICS_TYPE@@A ; current_flight_dynamics
  001fb	f3 0f 10 80 5c
	1c 00 00	 movss	 xmm0, DWORD PTR [eax+7260]
  00203	f3 0f 59 81 90
	00 00 00	 mulss	 xmm0, DWORD PTR [ecx+144]
  0020b	8b 15 00 00 00
	00		 mov	 edx, DWORD PTR ?current_flight_dynamics@@3PAUDYNAMICS_TYPE@@A ; current_flight_dynamics
  00211	f3 0f 11 82 a0
	20 00 00	 movss	 DWORD PTR [edx+8352], xmm0

; 2936 : 
; 2937 : 	current_flight_dynamics->velocity_x.value = current_flight_dynamics->model_motion_vector.x;

  00219	a1 00 00 00 00	 mov	 eax, DWORD PTR ?current_flight_dynamics@@3PAUDYNAMICS_TYPE@@A ; current_flight_dynamics
  0021e	8b 0d 00 00 00
	00		 mov	 ecx, DWORD PTR ?current_flight_dynamics@@3PAUDYNAMICS_TYPE@@A ; current_flight_dynamics
  00224	8b 91 30 1c 00
	00		 mov	 edx, DWORD PTR [ecx+7216]
  0022a	89 90 6c 20 00
	00		 mov	 DWORD PTR [eax+8300], edx

; 2938 : 	current_flight_dynamics->velocity_y.value = current_flight_dynamics->model_motion_vector.y;

  00230	a1 00 00 00 00	 mov	 eax, DWORD PTR ?current_flight_dynamics@@3PAUDYNAMICS_TYPE@@A ; current_flight_dynamics
  00235	8b 0d 00 00 00
	00		 mov	 ecx, DWORD PTR ?current_flight_dynamics@@3PAUDYNAMICS_TYPE@@A ; current_flight_dynamics
  0023b	8b 91 34 1c 00
	00		 mov	 edx, DWORD PTR [ecx+7220]
  00241	89 90 84 20 00
	00		 mov	 DWORD PTR [eax+8324], edx

; 2939 : 	current_flight_dynamics->velocity_z.value = current_flight_dynamics->model_motion_vector.z;

  00247	a1 00 00 00 00	 mov	 eax, DWORD PTR ?current_flight_dynamics@@3PAUDYNAMICS_TYPE@@A ; current_flight_dynamics
  0024c	8b 0d 00 00 00
	00		 mov	 ecx, DWORD PTR ?current_flight_dynamics@@3PAUDYNAMICS_TYPE@@A ; current_flight_dynamics
  00252	8b 91 38 1c 00
	00		 mov	 edx, DWORD PTR [ecx+7224]
  00258	89 90 9c 20 00
	00		 mov	 DWORD PTR [eax+8348], edx

; 2940 : 
; 2941 : 	// move position
; 2942 : 
; 2943 : 	current_flight_dynamics->position.x += current_flight_dynamics->world_motion_vector.x * get_model_delta_time ();

  0025e	a1 00 00 00 00	 mov	 eax, DWORD PTR ?current_flight_dynamics@@3PAUDYNAMICS_TYPE@@A ; current_flight_dynamics
  00263	8b 0d 00 00 00
	00		 mov	 ecx, DWORD PTR ?current_flight_dynamics@@3PAUDYNAMICS_TYPE@@A ; current_flight_dynamics
  00269	f3 0f 10 80 3c
	1c 00 00	 movss	 xmm0, DWORD PTR [eax+7228]
  00271	f3 0f 59 81 90
	00 00 00	 mulss	 xmm0, DWORD PTR [ecx+144]
  00279	f3 0f 5a c0	 cvtss2sd xmm0, xmm0
  0027d	8b 15 00 00 00
	00		 mov	 edx, DWORD PTR ?current_flight_dynamics@@3PAUDYNAMICS_TYPE@@A ; current_flight_dynamics
  00283	f2 0f 58 82 ac
	00 00 00	 addsd	 xmm0, QWORD PTR [edx+172]
  0028b	a1 00 00 00 00	 mov	 eax, DWORD PTR ?current_flight_dynamics@@3PAUDYNAMICS_TYPE@@A ; current_flight_dynamics
  00290	f2 0f 11 80 ac
	00 00 00	 movsd	 QWORD PTR [eax+172], xmm0

; 2944 : 	current_flight_dynamics->position.y += current_flight_dynamics->world_motion_vector.y * get_model_delta_time ();

  00298	a1 00 00 00 00	 mov	 eax, DWORD PTR ?current_flight_dynamics@@3PAUDYNAMICS_TYPE@@A ; current_flight_dynamics
  0029d	8b 0d 00 00 00
	00		 mov	 ecx, DWORD PTR ?current_flight_dynamics@@3PAUDYNAMICS_TYPE@@A ; current_flight_dynamics
  002a3	f3 0f 10 80 40
	1c 00 00	 movss	 xmm0, DWORD PTR [eax+7232]
  002ab	f3 0f 59 81 90
	00 00 00	 mulss	 xmm0, DWORD PTR [ecx+144]
  002b3	f3 0f 5a c0	 cvtss2sd xmm0, xmm0
  002b7	8b 15 00 00 00
	00		 mov	 edx, DWORD PTR ?current_flight_dynamics@@3PAUDYNAMICS_TYPE@@A ; current_flight_dynamics
  002bd	f2 0f 58 82 b4
	00 00 00	 addsd	 xmm0, QWORD PTR [edx+180]
  002c5	a1 00 00 00 00	 mov	 eax, DWORD PTR ?current_flight_dynamics@@3PAUDYNAMICS_TYPE@@A ; current_flight_dynamics
  002ca	f2 0f 11 80 b4
	00 00 00	 movsd	 QWORD PTR [eax+180], xmm0

; 2945 : 	current_flight_dynamics->position.z += current_flight_dynamics->world_motion_vector.z * get_model_delta_time ();

  002d2	a1 00 00 00 00	 mov	 eax, DWORD PTR ?current_flight_dynamics@@3PAUDYNAMICS_TYPE@@A ; current_flight_dynamics
  002d7	8b 0d 00 00 00
	00		 mov	 ecx, DWORD PTR ?current_flight_dynamics@@3PAUDYNAMICS_TYPE@@A ; current_flight_dynamics
  002dd	f3 0f 10 80 44
	1c 00 00	 movss	 xmm0, DWORD PTR [eax+7236]
  002e5	f3 0f 59 81 90
	00 00 00	 mulss	 xmm0, DWORD PTR [ecx+144]
  002ed	f3 0f 5a c0	 cvtss2sd xmm0, xmm0
  002f1	8b 15 00 00 00
	00		 mov	 edx, DWORD PTR ?current_flight_dynamics@@3PAUDYNAMICS_TYPE@@A ; current_flight_dynamics
  002f7	f2 0f 58 82 bc
	00 00 00	 addsd	 xmm0, QWORD PTR [edx+188]
  002ff	a1 00 00 00 00	 mov	 eax, DWORD PTR ?current_flight_dynamics@@3PAUDYNAMICS_TYPE@@A ; current_flight_dynamics
  00304	f2 0f 11 80 bc
	00 00 00	 movsd	 QWORD PTR [eax+188], xmm0

; 2946 : 
; 2947 : 	// bound to the world
; 2948 : 
; 2949 : 	bound_double_position_to_adjusted_map_volume (&current_flight_dynamics->position);

  0030c	a1 00 00 00 00	 mov	 eax, DWORD PTR ?current_flight_dynamics@@3PAUDYNAMICS_TYPE@@A ; current_flight_dynamics
  00311	05 ac 00 00 00	 add	 eax, 172		; 000000acH
  00316	50		 push	 eax
  00317	e8 00 00 00 00	 call	 ?bound_double_position_to_adjusted_map_volume@@YGHPAUDOUBLE_VEC3D@@@Z ; bound_double_position_to_adjusted_map_volume

; 2950 : 	//current_flight_dynamics->position.x = bound (current_flight_dynamics->position.x, MIN_MAP_X, MAX_MAP_X);
; 2951 : 	//current_flight_dynamics->position.z = bound (current_flight_dynamics->position.z, MIN_MAP_Z, MAX_MAP_Z);
; 2952 : 
; 2953 : 	if (get_terrain_type_class (get_3d_terrain_point_data_type (&raw->ac.terrain_info)) == TERRAIN_CLASS_LAND)

  0031c	8b 45 fc	 mov	 eax, DWORD PTR _raw$[ebp]
  0031f	05 54 01 00 00	 add	 eax, 340		; 00000154H
  00324	50		 push	 eax
  00325	e8 00 00 00 00	 call	 ?get_3d_terrain_point_data_type@@YGHPAUTERRAIN_3D_POINT_DATA@@@Z ; get_3d_terrain_point_data_type
  0032a	50		 push	 eax
  0032b	e8 00 00 00 00	 call	 ?get_terrain_type_class@@YG?AW4TERRAIN_CLASSES@@H@Z ; get_terrain_type_class
  00330	83 f8 03	 cmp	 eax, 3
  00333	75 7b		 jne	 SHORT $LN2@update_acc

; 2954 : 	{
; 2955 : 
; 2956 : 		current_flight_dynamics->position.y = bound (current_flight_dynamics->position.y, 0.0, MAX_MAP_Y);

  00335	a1 00 00 00 00	 mov	 eax, DWORD PTR ?current_flight_dynamics@@3PAUDYNAMICS_TYPE@@A ; current_flight_dynamics
  0033a	0f 57 c0	 xorps	 xmm0, xmm0
  0033d	66 0f 2f 80 b4
	00 00 00	 comisd	 xmm0, QWORD PTR [eax+180]
  00345	76 0a		 jbe	 SHORT $LN18@update_acc
  00347	0f 57 c0	 xorps	 xmm0, xmm0
  0034a	f2 0f 11 45 90	 movsd	 QWORD PTR tv242[ebp], xmm0
  0034f	eb 48		 jmp	 SHORT $LN19@update_acc
$LN18@update_acc:
  00351	f3 0f 5a 05 40
	00 00 00	 cvtss2sd xmm0, DWORD PTR ?world_map@@3UWORLD_MAP_DATA@@A+64
  00359	8b 0d 00 00 00
	00		 mov	 ecx, DWORD PTR ?current_flight_dynamics@@3PAUDYNAMICS_TYPE@@A ; current_flight_dynamics
  0035f	f2 0f 10 89 b4
	00 00 00	 movsd	 xmm1, QWORD PTR [ecx+180]
  00367	66 0f 2f c8	 comisd	 xmm1, xmm0
  0036b	76 0f		 jbe	 SHORT $LN16@update_acc
  0036d	f3 0f 5a 05 40
	00 00 00	 cvtss2sd xmm0, DWORD PTR ?world_map@@3UWORLD_MAP_DATA@@A+64
  00375	f2 0f 11 45 88	 movsd	 QWORD PTR tv241[ebp], xmm0
  0037a	eb 13		 jmp	 SHORT $LN17@update_acc
$LN16@update_acc:
  0037c	8b 15 00 00 00
	00		 mov	 edx, DWORD PTR ?current_flight_dynamics@@3PAUDYNAMICS_TYPE@@A ; current_flight_dynamics
  00382	f2 0f 10 82 b4
	00 00 00	 movsd	 xmm0, QWORD PTR [edx+180]
  0038a	f2 0f 11 45 88	 movsd	 QWORD PTR tv241[ebp], xmm0
$LN17@update_acc:
  0038f	f2 0f 10 45 88	 movsd	 xmm0, QWORD PTR tv241[ebp]
  00394	f2 0f 11 45 90	 movsd	 QWORD PTR tv242[ebp], xmm0
$LN19@update_acc:
  00399	a1 00 00 00 00	 mov	 eax, DWORD PTR ?current_flight_dynamics@@3PAUDYNAMICS_TYPE@@A ; current_flight_dynamics
  0039e	f2 0f 10 45 90	 movsd	 xmm0, QWORD PTR tv242[ebp]
  003a3	f2 0f 11 80 b4
	00 00 00	 movsd	 QWORD PTR [eax+180], xmm0

; 2957 : 	}
; 2958 : 	else

  003ab	e9 80 00 00 00	 jmp	 $LN3@update_acc
$LN2@update_acc:

; 2959 : 	{
; 2960 : 
; 2961 : 		//
; 2962 : 		// allow model to go 1m into water/forest and then blow up
; 2963 : 		//
; 2964 : 
; 2965 : 		current_flight_dynamics->position.y = bound (current_flight_dynamics->position.y, -1.0, MAX_MAP_Y);

  003b0	a1 00 00 00 00	 mov	 eax, DWORD PTR ?current_flight_dynamics@@3PAUDYNAMICS_TYPE@@A ; current_flight_dynamics
  003b5	f2 0f 10 05 00
	00 00 00	 movsd	 xmm0, QWORD PTR __real@bff0000000000000
  003bd	66 0f 2f 80 b4
	00 00 00	 comisd	 xmm0, QWORD PTR [eax+180]
  003c5	76 0f		 jbe	 SHORT $LN22@update_acc
  003c7	f2 0f 10 05 00
	00 00 00	 movsd	 xmm0, QWORD PTR __real@bff0000000000000
  003cf	f2 0f 11 45 90	 movsd	 QWORD PTR tv256[ebp], xmm0
  003d4	eb 48		 jmp	 SHORT $LN23@update_acc
$LN22@update_acc:
  003d6	f3 0f 5a 05 40
	00 00 00	 cvtss2sd xmm0, DWORD PTR ?world_map@@3UWORLD_MAP_DATA@@A+64
  003de	8b 0d 00 00 00
	00		 mov	 ecx, DWORD PTR ?current_flight_dynamics@@3PAUDYNAMICS_TYPE@@A ; current_flight_dynamics
  003e4	f2 0f 10 89 b4
	00 00 00	 movsd	 xmm1, QWORD PTR [ecx+180]
  003ec	66 0f 2f c8	 comisd	 xmm1, xmm0
  003f0	76 0f		 jbe	 SHORT $LN20@update_acc
  003f2	f3 0f 5a 05 40
	00 00 00	 cvtss2sd xmm0, DWORD PTR ?world_map@@3UWORLD_MAP_DATA@@A+64
  003fa	f2 0f 11 45 88	 movsd	 QWORD PTR tv255[ebp], xmm0
  003ff	eb 13		 jmp	 SHORT $LN21@update_acc
$LN20@update_acc:
  00401	8b 15 00 00 00
	00		 mov	 edx, DWORD PTR ?current_flight_dynamics@@3PAUDYNAMICS_TYPE@@A ; current_flight_dynamics
  00407	f2 0f 10 82 b4
	00 00 00	 movsd	 xmm0, QWORD PTR [edx+180]
  0040f	f2 0f 11 45 88	 movsd	 QWORD PTR tv255[ebp], xmm0
$LN21@update_acc:
  00414	f2 0f 10 45 88	 movsd	 xmm0, QWORD PTR tv255[ebp]
  00419	f2 0f 11 45 90	 movsd	 QWORD PTR tv256[ebp], xmm0
$LN23@update_acc:
  0041e	a1 00 00 00 00	 mov	 eax, DWORD PTR ?current_flight_dynamics@@3PAUDYNAMICS_TYPE@@A ; current_flight_dynamics
  00423	f2 0f 10 45 90	 movsd	 xmm0, QWORD PTR tv256[ebp]
  00428	f2 0f 11 80 b4
	00 00 00	 movsd	 QWORD PTR [eax+180], xmm0
$LN3@update_acc:

; 2966 : 	}
; 2967 : 
; 2968 : 	// debug - for ships, VSI = 0 when landed.
; 2969 : 
; 2970 : 	if (command_line_dynamics_flight_model < 2 && !get_local_entity_int_value (get_gunship_entity (), INT_TYPE_AIRBORNE_AIRCRAFT))

  00430	83 3d 00 00 00
	00 02		 cmp	 DWORD PTR ?command_line_dynamics_flight_model@@3HA, 2 ; command_line_dynamics_flight_model
  00437	0f 8d bc 02 00
	00		 jge	 $LN9@update_acc
  0043d	83 3d 00 00 00
	00 00		 cmp	 DWORD PTR ?gunship_entity@@3PAUENTITY@@A, 0 ; gunship_entity
  00444	74 0c		 je	 SHORT $LN24@update_acc
  00446	a1 00 00 00 00	 mov	 eax, DWORD PTR ?gunship_entity@@3PAUENTITY@@A ; gunship_entity
  0044b	8b 08		 mov	 ecx, DWORD PTR [eax]
  0044d	89 4d 94	 mov	 DWORD PTR tv263[ebp], ecx
  00450	eb 1d		 jmp	 SHORT $LN25@update_acc
$LN24@update_acc:
  00452	68 9a 0b 00 00	 push	 2970			; 00000b9aH
  00457	68 00 00 00 00	 push	 OFFSET ??_C@_0EM@BHCFJHIE@c?3?2users?2nhv90?2projects?2eech?2ap@
  0045c	8b 15 00 00 00
	00		 mov	 edx, DWORD PTR ?null_entity_pointer_message@@3PBDB ; null_entity_pointer_message
  00462	52		 push	 edx
  00463	e8 00 00 00 00	 call	 ?process_assert@@YGXPBD0H@Z ; process_assert
  00468	c7 45 94 00 00
	00 00		 mov	 DWORD PTR tv263[ebp], 0
$LN25@update_acc:
  0046f	b8 01 00 00 00	 mov	 eax, 1
  00474	85 c0		 test	 eax, eax
  00476	74 09		 je	 SHORT $LN26@update_acc
  00478	c7 45 90 04 00
	00 00		 mov	 DWORD PTR tv270[ebp], 4
  0047f	eb 1d		 jmp	 SHORT $LN27@update_acc
$LN26@update_acc:
  00481	68 9a 0b 00 00	 push	 2970			; 00000b9aH
  00486	68 00 00 00 00	 push	 OFFSET ??_C@_0EM@BHCFJHIE@c?3?2users?2nhv90?2projects?2eech?2ap@
  0048b	8b 0d 00 00 00
	00		 mov	 ecx, DWORD PTR ?overload_invalid_int_type_message@@3PBDB ; overload_invalid_int_type_message
  00491	51		 push	 ecx
  00492	e8 00 00 00 00	 call	 ?process_assert@@YGXPBD0H@Z ; process_assert
  00497	c7 45 90 00 00
	00 00		 mov	 DWORD PTR tv270[ebp], 0
$LN27@update_acc:
  0049e	6a 04		 push	 4
  004a0	8b 15 00 00 00
	00		 mov	 edx, DWORD PTR ?gunship_entity@@3PAUENTITY@@A ; gunship_entity
  004a6	52		 push	 edx
  004a7	69 45 94 5c 04
	00 00		 imul	 eax, DWORD PTR tv263[ebp], 1116
  004ae	8b 4d 90	 mov	 ecx, DWORD PTR tv270[ebp]
  004b1	8b 94 88 00 00
	00 00		 mov	 edx, DWORD PTR ?fn_get_local_entity_int_value@@3PAY0BBH@P6GHPAUENTITY@@W4INT_TYPES@@@ZA[eax+ecx*4]
  004b8	ff d2		 call	 edx
  004ba	85 c0		 test	 eax, eax
  004bc	0f 85 37 02 00
	00		 jne	 $LN9@update_acc

; 2971 : 	{
; 2972 : 		current_flight_dynamics->world_velocity_y.value = max (current_flight_dynamics->world_velocity_y.value, 0.0f);

  004c2	0f 57 c0	 xorps	 xmm0, xmm0
  004c5	f3 0f 11 45 b4	 movss	 DWORD PTR $T8[ebp], xmm0
  004ca	8d 45 b4	 lea	 eax, DWORD PTR $T8[ebp]
  004cd	50		 push	 eax
  004ce	8b 0d 00 00 00
	00		 mov	 ecx, DWORD PTR ?current_flight_dynamics@@3PAUDYNAMICS_TYPE@@A ; current_flight_dynamics
  004d4	81 c1 14 21 00
	00		 add	 ecx, 8468		; 00002114H
  004da	51		 push	 ecx
  004db	e8 00 00 00 00	 call	 ??$max@M@std@@YGABMABM0@Z ; std::max<float>
  004e0	8b 15 00 00 00
	00		 mov	 edx, DWORD PTR ?current_flight_dynamics@@3PAUDYNAMICS_TYPE@@A ; current_flight_dynamics
  004e6	8b 00		 mov	 eax, DWORD PTR [eax]
  004e8	89 82 14 21 00
	00		 mov	 DWORD PTR [edx+8468], eax

; 2973 : 		current_flight_dynamics->velocity_y.value = max (current_flight_dynamics->velocity_y.value, 0.0f);

  004ee	0f 57 c0	 xorps	 xmm0, xmm0
  004f1	f3 0f 11 45 b0	 movss	 DWORD PTR $T7[ebp], xmm0
  004f6	8d 45 b0	 lea	 eax, DWORD PTR $T7[ebp]
  004f9	50		 push	 eax
  004fa	8b 0d 00 00 00
	00		 mov	 ecx, DWORD PTR ?current_flight_dynamics@@3PAUDYNAMICS_TYPE@@A ; current_flight_dynamics
  00500	81 c1 84 20 00
	00		 add	 ecx, 8324		; 00002084H
  00506	51		 push	 ecx
  00507	e8 00 00 00 00	 call	 ??$max@M@std@@YGABMABM0@Z ; std::max<float>
  0050c	8b 15 00 00 00
	00		 mov	 edx, DWORD PTR ?current_flight_dynamics@@3PAUDYNAMICS_TYPE@@A ; current_flight_dynamics
  00512	8b 00		 mov	 eax, DWORD PTR [eax]
  00514	89 82 84 20 00
	00		 mov	 DWORD PTR [edx+8324], eax

; 2974 : 		current_flight_dynamics->model_motion_vector.y = max (current_flight_dynamics->model_motion_vector.y, 0.0f);

  0051a	0f 57 c0	 xorps	 xmm0, xmm0
  0051d	f3 0f 11 45 ac	 movss	 DWORD PTR $T6[ebp], xmm0
  00522	8d 45 ac	 lea	 eax, DWORD PTR $T6[ebp]
  00525	50		 push	 eax
  00526	8b 0d 00 00 00
	00		 mov	 ecx, DWORD PTR ?current_flight_dynamics@@3PAUDYNAMICS_TYPE@@A ; current_flight_dynamics
  0052c	81 c1 34 1c 00
	00		 add	 ecx, 7220		; 00001c34H
  00532	51		 push	 ecx
  00533	e8 00 00 00 00	 call	 ??$max@M@std@@YGABMABM0@Z ; std::max<float>
  00538	8b 15 00 00 00
	00		 mov	 edx, DWORD PTR ?current_flight_dynamics@@3PAUDYNAMICS_TYPE@@A ; current_flight_dynamics
  0053e	8b 00		 mov	 eax, DWORD PTR [eax]
  00540	89 82 34 1c 00
	00		 mov	 DWORD PTR [edx+7220], eax

; 2975 : 		current_flight_dynamics->world_motion_vector.y = max (current_flight_dynamics->world_motion_vector.y, 0.0f);

  00546	0f 57 c0	 xorps	 xmm0, xmm0
  00549	f3 0f 11 45 a8	 movss	 DWORD PTR $T5[ebp], xmm0
  0054e	8d 45 a8	 lea	 eax, DWORD PTR $T5[ebp]
  00551	50		 push	 eax
  00552	8b 0d 00 00 00
	00		 mov	 ecx, DWORD PTR ?current_flight_dynamics@@3PAUDYNAMICS_TYPE@@A ; current_flight_dynamics
  00558	81 c1 40 1c 00
	00		 add	 ecx, 7232		; 00001c40H
  0055e	51		 push	 ecx
  0055f	e8 00 00 00 00	 call	 ??$max@M@std@@YGABMABM0@Z ; std::max<float>
  00564	8b 15 00 00 00
	00		 mov	 edx, DWORD PTR ?current_flight_dynamics@@3PAUDYNAMICS_TYPE@@A ; current_flight_dynamics
  0056a	8b 00		 mov	 eax, DWORD PTR [eax]
  0056c	89 82 40 1c 00
	00		 mov	 DWORD PTR [edx+7232], eax

; 2976 : 
; 2977 : 		if (current_flight_dynamics->wheel_brake)

  00572	a1 00 00 00 00	 mov	 eax, DWORD PTR ?current_flight_dynamics@@3PAUDYNAMICS_TYPE@@A ; current_flight_dynamics
  00577	8b 88 28 25 00
	00		 mov	 ecx, DWORD PTR [eax+9512]
  0057d	c1 e9 06	 shr	 ecx, 6
  00580	83 e1 01	 and	 ecx, 1
  00583	0f 84 70 01 00
	00		 je	 $LN9@update_acc

; 2978 : 		{
; 2979 : 			// arneh, june 2006 - reduces effectivness of wheel brakes
; 2980 : 			if (current_flight_dynamics->world_motion_vector.x > 0)

  00589	a1 00 00 00 00	 mov	 eax, DWORD PTR ?current_flight_dynamics@@3PAUDYNAMICS_TYPE@@A ; current_flight_dynamics
  0058e	f3 0f 10 80 3c
	1c 00 00	 movss	 xmm0, DWORD PTR [eax+7228]
  00596	0f 2f 05 00 00
	00 00		 comiss	 xmm0, DWORD PTR __real@00000000
  0059d	76 52		 jbe	 SHORT $LN6@update_acc

; 2981 : 				current_flight_dynamics->world_motion_vector.x -= min(20.0f * get_model_delta_time (), current_flight_dynamics->world_motion_vector.x );

  0059f	a1 00 00 00 00	 mov	 eax, DWORD PTR ?current_flight_dynamics@@3PAUDYNAMICS_TYPE@@A ; current_flight_dynamics
  005a4	f3 0f 10 05 00
	00 00 00	 movss	 xmm0, DWORD PTR __real@41a00000
  005ac	f3 0f 59 80 90
	00 00 00	 mulss	 xmm0, DWORD PTR [eax+144]
  005b4	f3 0f 11 45 a4	 movss	 DWORD PTR $T4[ebp], xmm0
  005b9	8b 0d 00 00 00
	00		 mov	 ecx, DWORD PTR ?current_flight_dynamics@@3PAUDYNAMICS_TYPE@@A ; current_flight_dynamics
  005bf	81 c1 3c 1c 00
	00		 add	 ecx, 7228		; 00001c3cH
  005c5	51		 push	 ecx
  005c6	8d 55 a4	 lea	 edx, DWORD PTR $T4[ebp]
  005c9	52		 push	 edx
  005ca	e8 00 00 00 00	 call	 ??$min@M@std@@YGABMABM0@Z ; std::min<float>
  005cf	8b 0d 00 00 00
	00		 mov	 ecx, DWORD PTR ?current_flight_dynamics@@3PAUDYNAMICS_TYPE@@A ; current_flight_dynamics
  005d5	f3 0f 10 81 3c
	1c 00 00	 movss	 xmm0, DWORD PTR [ecx+7228]
  005dd	f3 0f 5c 00	 subss	 xmm0, DWORD PTR [eax]
  005e1	8b 15 00 00 00
	00		 mov	 edx, DWORD PTR ?current_flight_dynamics@@3PAUDYNAMICS_TYPE@@A ; current_flight_dynamics
  005e7	f3 0f 11 82 3c
	1c 00 00	 movss	 DWORD PTR [edx+7228], xmm0

; 2982 : 			else

  005ef	eb 50		 jmp	 SHORT $LN7@update_acc
$LN6@update_acc:

; 2983 : 				current_flight_dynamics->world_motion_vector.x -= max(-20.0f * get_model_delta_time (), current_flight_dynamics->world_motion_vector.x );

  005f1	a1 00 00 00 00	 mov	 eax, DWORD PTR ?current_flight_dynamics@@3PAUDYNAMICS_TYPE@@A ; current_flight_dynamics
  005f6	f3 0f 10 05 00
	00 00 00	 movss	 xmm0, DWORD PTR __real@c1a00000
  005fe	f3 0f 59 80 90
	00 00 00	 mulss	 xmm0, DWORD PTR [eax+144]
  00606	f3 0f 11 45 a0	 movss	 DWORD PTR $T3[ebp], xmm0
  0060b	8b 0d 00 00 00
	00		 mov	 ecx, DWORD PTR ?current_flight_dynamics@@3PAUDYNAMICS_TYPE@@A ; current_flight_dynamics
  00611	81 c1 3c 1c 00
	00		 add	 ecx, 7228		; 00001c3cH
  00617	51		 push	 ecx
  00618	8d 55 a0	 lea	 edx, DWORD PTR $T3[ebp]
  0061b	52		 push	 edx
  0061c	e8 00 00 00 00	 call	 ??$max@M@std@@YGABMABM0@Z ; std::max<float>
  00621	8b 0d 00 00 00
	00		 mov	 ecx, DWORD PTR ?current_flight_dynamics@@3PAUDYNAMICS_TYPE@@A ; current_flight_dynamics
  00627	f3 0f 10 81 3c
	1c 00 00	 movss	 xmm0, DWORD PTR [ecx+7228]
  0062f	f3 0f 5c 00	 subss	 xmm0, DWORD PTR [eax]
  00633	8b 15 00 00 00
	00		 mov	 edx, DWORD PTR ?current_flight_dynamics@@3PAUDYNAMICS_TYPE@@A ; current_flight_dynamics
  00639	f3 0f 11 82 3c
	1c 00 00	 movss	 DWORD PTR [edx+7228], xmm0
$LN7@update_acc:

; 2984 : 
; 2985 : 			if (current_flight_dynamics->world_motion_vector.z > 0)

  00641	a1 00 00 00 00	 mov	 eax, DWORD PTR ?current_flight_dynamics@@3PAUDYNAMICS_TYPE@@A ; current_flight_dynamics
  00646	f3 0f 10 80 44
	1c 00 00	 movss	 xmm0, DWORD PTR [eax+7236]
  0064e	0f 2f 05 00 00
	00 00		 comiss	 xmm0, DWORD PTR __real@00000000
  00655	76 52		 jbe	 SHORT $LN8@update_acc

; 2986 : 				current_flight_dynamics->world_motion_vector.z -= min(5.0f * get_model_delta_time (), current_flight_dynamics->world_motion_vector.z);

  00657	a1 00 00 00 00	 mov	 eax, DWORD PTR ?current_flight_dynamics@@3PAUDYNAMICS_TYPE@@A ; current_flight_dynamics
  0065c	f3 0f 10 05 00
	00 00 00	 movss	 xmm0, DWORD PTR __real@40a00000
  00664	f3 0f 59 80 90
	00 00 00	 mulss	 xmm0, DWORD PTR [eax+144]
  0066c	f3 0f 11 45 9c	 movss	 DWORD PTR $T2[ebp], xmm0
  00671	8b 0d 00 00 00
	00		 mov	 ecx, DWORD PTR ?current_flight_dynamics@@3PAUDYNAMICS_TYPE@@A ; current_flight_dynamics
  00677	81 c1 44 1c 00
	00		 add	 ecx, 7236		; 00001c44H
  0067d	51		 push	 ecx
  0067e	8d 55 9c	 lea	 edx, DWORD PTR $T2[ebp]
  00681	52		 push	 edx
  00682	e8 00 00 00 00	 call	 ??$min@M@std@@YGABMABM0@Z ; std::min<float>
  00687	8b 0d 00 00 00
	00		 mov	 ecx, DWORD PTR ?current_flight_dynamics@@3PAUDYNAMICS_TYPE@@A ; current_flight_dynamics
  0068d	f3 0f 10 81 44
	1c 00 00	 movss	 xmm0, DWORD PTR [ecx+7236]
  00695	f3 0f 5c 00	 subss	 xmm0, DWORD PTR [eax]
  00699	8b 15 00 00 00
	00		 mov	 edx, DWORD PTR ?current_flight_dynamics@@3PAUDYNAMICS_TYPE@@A ; current_flight_dynamics
  0069f	f3 0f 11 82 44
	1c 00 00	 movss	 DWORD PTR [edx+7236], xmm0

; 2987 : 			else

  006a7	eb 50		 jmp	 SHORT $LN9@update_acc
$LN8@update_acc:

; 2988 : 				current_flight_dynamics->world_motion_vector.z -= max(-5.0f * get_model_delta_time (), current_flight_dynamics->world_motion_vector.z);

  006a9	a1 00 00 00 00	 mov	 eax, DWORD PTR ?current_flight_dynamics@@3PAUDYNAMICS_TYPE@@A ; current_flight_dynamics
  006ae	f3 0f 10 05 00
	00 00 00	 movss	 xmm0, DWORD PTR __real@c0a00000
  006b6	f3 0f 59 80 90
	00 00 00	 mulss	 xmm0, DWORD PTR [eax+144]
  006be	f3 0f 11 45 98	 movss	 DWORD PTR $T1[ebp], xmm0
  006c3	8b 0d 00 00 00
	00		 mov	 ecx, DWORD PTR ?current_flight_dynamics@@3PAUDYNAMICS_TYPE@@A ; current_flight_dynamics
  006c9	81 c1 44 1c 00
	00		 add	 ecx, 7236		; 00001c44H
  006cf	51		 push	 ecx
  006d0	8d 55 98	 lea	 edx, DWORD PTR $T1[ebp]
  006d3	52		 push	 edx
  006d4	e8 00 00 00 00	 call	 ??$max@M@std@@YGABMABM0@Z ; std::max<float>
  006d9	8b 0d 00 00 00
	00		 mov	 ecx, DWORD PTR ?current_flight_dynamics@@3PAUDYNAMICS_TYPE@@A ; current_flight_dynamics
  006df	f3 0f 10 81 44
	1c 00 00	 movss	 xmm0, DWORD PTR [ecx+7236]
  006e7	f3 0f 5c 00	 subss	 xmm0, DWORD PTR [eax]
  006eb	8b 15 00 00 00
	00		 mov	 edx, DWORD PTR ?current_flight_dynamics@@3PAUDYNAMICS_TYPE@@A ; current_flight_dynamics
  006f1	f3 0f 11 82 44
	1c 00 00	 movss	 DWORD PTR [edx+7236], xmm0
$LN9@update_acc:

; 2989 : 		}
; 2990 : 	}
; 2991 : 	{
; 2992 : 
; 2993 : 		entity
; 2994 : 			*keysite;
; 2995 : 
; 2996 : 		keysite = get_local_entity_parent (get_local_entity_parent (get_gunship_entity (), LIST_TYPE_MEMBER), LIST_TYPE_KEYSITE_GROUP);

  006f9	83 3d 00 00 00
	00 00		 cmp	 DWORD PTR ?gunship_entity@@3PAUENTITY@@A, 0 ; gunship_entity
  00700	74 0c		 je	 SHORT $LN40@update_acc
  00702	a1 00 00 00 00	 mov	 eax, DWORD PTR ?gunship_entity@@3PAUENTITY@@A ; gunship_entity
  00707	8b 08		 mov	 ecx, DWORD PTR [eax]
  00709	89 4d 94	 mov	 DWORD PTR tv428[ebp], ecx
  0070c	eb 21		 jmp	 SHORT $LN41@update_acc
$LN40@update_acc:
  0070e	8b 15 00 00 00
	00		 mov	 edx, DWORD PTR ?__LINE__Var@?0??update_acceleration_dynamics@@YGXXZ@4JA
  00714	83 c2 60	 add	 edx, 96			; 00000060H
  00717	52		 push	 edx
  00718	68 00 00 00 00	 push	 OFFSET ??_C@_0EM@BHCFJHIE@c?3?2users?2nhv90?2projects?2eech?2ap@
  0071d	a1 00 00 00 00	 mov	 eax, DWORD PTR ?null_entity_pointer_message@@3PBDB ; null_entity_pointer_message
  00722	50		 push	 eax
  00723	e8 00 00 00 00	 call	 ?process_assert@@YGXPBD0H@Z ; process_assert
  00728	c7 45 94 00 00
	00 00		 mov	 DWORD PTR tv428[ebp], 0
$LN41@update_acc:
  0072f	b9 01 00 00 00	 mov	 ecx, 1
  00734	85 c9		 test	 ecx, ecx
  00736	74 09		 je	 SHORT $LN42@update_acc
  00738	c7 45 90 19 00
	00 00		 mov	 DWORD PTR tv436[ebp], 25 ; 00000019H
  0073f	eb 21		 jmp	 SHORT $LN43@update_acc
$LN42@update_acc:
  00741	8b 15 00 00 00
	00		 mov	 edx, DWORD PTR ?__LINE__Var@?0??update_acceleration_dynamics@@YGXXZ@4JA
  00747	83 c2 60	 add	 edx, 96			; 00000060H
  0074a	52		 push	 edx
  0074b	68 00 00 00 00	 push	 OFFSET ??_C@_0EM@BHCFJHIE@c?3?2users?2nhv90?2projects?2eech?2ap@
  00750	a1 00 00 00 00	 mov	 eax, DWORD PTR ?overload_invalid_list_type_message@@3PBDB ; overload_invalid_list_type_message
  00755	50		 push	 eax
  00756	e8 00 00 00 00	 call	 ?process_assert@@YGXPBD0H@Z ; process_assert
  0075b	c7 45 90 00 00
	00 00		 mov	 DWORD PTR tv436[ebp], 0
$LN43@update_acc:
  00762	83 3d 00 00 00
	00 00		 cmp	 DWORD PTR ?gunship_entity@@3PAUENTITY@@A, 0 ; gunship_entity
  00769	74 0d		 je	 SHORT $LN28@update_acc
  0076b	8b 0d 00 00 00
	00		 mov	 ecx, DWORD PTR ?gunship_entity@@3PAUENTITY@@A ; gunship_entity
  00771	8b 11		 mov	 edx, DWORD PTR [ecx]
  00773	89 55 8c	 mov	 DWORD PTR tv369[ebp], edx
  00776	eb 21		 jmp	 SHORT $LN29@update_acc
$LN28@update_acc:
  00778	a1 00 00 00 00	 mov	 eax, DWORD PTR ?__LINE__Var@?0??update_acceleration_dynamics@@YGXXZ@4JA
  0077d	83 c0 60	 add	 eax, 96			; 00000060H
  00780	50		 push	 eax
  00781	68 00 00 00 00	 push	 OFFSET ??_C@_0EM@BHCFJHIE@c?3?2users?2nhv90?2projects?2eech?2ap@
  00786	8b 0d 00 00 00
	00		 mov	 ecx, DWORD PTR ?null_entity_pointer_message@@3PBDB ; null_entity_pointer_message
  0078c	51		 push	 ecx
  0078d	e8 00 00 00 00	 call	 ?process_assert@@YGXPBD0H@Z ; process_assert
  00792	c7 45 8c 00 00
	00 00		 mov	 DWORD PTR tv369[ebp], 0
$LN29@update_acc:
  00799	ba 01 00 00 00	 mov	 edx, 1
  0079e	85 d2		 test	 edx, edx
  007a0	74 09		 je	 SHORT $LN30@update_acc
  007a2	c7 45 88 19 00
	00 00		 mov	 DWORD PTR tv377[ebp], 25 ; 00000019H
  007a9	eb 21		 jmp	 SHORT $LN31@update_acc
$LN30@update_acc:
  007ab	a1 00 00 00 00	 mov	 eax, DWORD PTR ?__LINE__Var@?0??update_acceleration_dynamics@@YGXXZ@4JA
  007b0	83 c0 60	 add	 eax, 96			; 00000060H
  007b3	50		 push	 eax
  007b4	68 00 00 00 00	 push	 OFFSET ??_C@_0EM@BHCFJHIE@c?3?2users?2nhv90?2projects?2eech?2ap@
  007b9	8b 0d 00 00 00
	00		 mov	 ecx, DWORD PTR ?overload_invalid_list_type_message@@3PBDB ; overload_invalid_list_type_message
  007bf	51		 push	 ecx
  007c0	e8 00 00 00 00	 call	 ?process_assert@@YGXPBD0H@Z ; process_assert
  007c5	c7 45 88 00 00
	00 00		 mov	 DWORD PTR tv377[ebp], 0
$LN31@update_acc:
  007cc	6a 19		 push	 25			; 00000019H
  007ce	8b 15 00 00 00
	00		 mov	 edx, DWORD PTR ?gunship_entity@@3PAUENTITY@@A ; gunship_entity
  007d4	52		 push	 edx
  007d5	69 45 8c b4 00
	00 00		 imul	 eax, DWORD PTR tv369[ebp], 180
  007dc	8b 4d 88	 mov	 ecx, DWORD PTR tv377[ebp]
  007df	8b 94 88 00 00
	00 00		 mov	 edx, DWORD PTR ?fn_get_local_entity_parent@@3PAY0CN@P6GPAUENTITY@@PAU1@W4LIST_TYPES@@@ZA[eax+ecx*4]
  007e6	ff d2		 call	 edx
  007e8	85 c0		 test	 eax, eax
  007ea	0f 84 8f 00 00
	00		 je	 $LN36@update_acc
  007f0	83 3d 00 00 00
	00 00		 cmp	 DWORD PTR ?gunship_entity@@3PAUENTITY@@A, 0 ; gunship_entity
  007f7	74 0c		 je	 SHORT $LN32@update_acc
  007f9	a1 00 00 00 00	 mov	 eax, DWORD PTR ?gunship_entity@@3PAUENTITY@@A ; gunship_entity
  007fe	8b 08		 mov	 ecx, DWORD PTR [eax]
  00800	89 4d 84	 mov	 DWORD PTR tv389[ebp], ecx
  00803	eb 21		 jmp	 SHORT $LN33@update_acc
$LN32@update_acc:
  00805	8b 15 00 00 00
	00		 mov	 edx, DWORD PTR ?__LINE__Var@?0??update_acceleration_dynamics@@YGXXZ@4JA
  0080b	83 c2 60	 add	 edx, 96			; 00000060H
  0080e	52		 push	 edx
  0080f	68 00 00 00 00	 push	 OFFSET ??_C@_0EM@BHCFJHIE@c?3?2users?2nhv90?2projects?2eech?2ap@
  00814	a1 00 00 00 00	 mov	 eax, DWORD PTR ?null_entity_pointer_message@@3PBDB ; null_entity_pointer_message
  00819	50		 push	 eax
  0081a	e8 00 00 00 00	 call	 ?process_assert@@YGXPBD0H@Z ; process_assert
  0081f	c7 45 84 00 00
	00 00		 mov	 DWORD PTR tv389[ebp], 0
$LN33@update_acc:
  00826	b9 01 00 00 00	 mov	 ecx, 1
  0082b	85 c9		 test	 ecx, ecx
  0082d	74 09		 je	 SHORT $LN34@update_acc
  0082f	c7 45 80 19 00
	00 00		 mov	 DWORD PTR tv397[ebp], 25 ; 00000019H
  00836	eb 21		 jmp	 SHORT $LN35@update_acc
$LN34@update_acc:
  00838	8b 15 00 00 00
	00		 mov	 edx, DWORD PTR ?__LINE__Var@?0??update_acceleration_dynamics@@YGXXZ@4JA
  0083e	83 c2 60	 add	 edx, 96			; 00000060H
  00841	52		 push	 edx
  00842	68 00 00 00 00	 push	 OFFSET ??_C@_0EM@BHCFJHIE@c?3?2users?2nhv90?2projects?2eech?2ap@
  00847	a1 00 00 00 00	 mov	 eax, DWORD PTR ?overload_invalid_list_type_message@@3PBDB ; overload_invalid_list_type_message
  0084c	50		 push	 eax
  0084d	e8 00 00 00 00	 call	 ?process_assert@@YGXPBD0H@Z ; process_assert
  00852	c7 45 80 00 00
	00 00		 mov	 DWORD PTR tv397[ebp], 0
$LN35@update_acc:
  00859	6a 19		 push	 25			; 00000019H
  0085b	8b 0d 00 00 00
	00		 mov	 ecx, DWORD PTR ?gunship_entity@@3PAUENTITY@@A ; gunship_entity
  00861	51		 push	 ecx
  00862	69 55 84 b4 00
	00 00		 imul	 edx, DWORD PTR tv389[ebp], 180
  00869	8b 45 80	 mov	 eax, DWORD PTR tv397[ebp]
  0086c	8b 8c 82 00 00
	00 00		 mov	 ecx, DWORD PTR ?fn_get_local_entity_parent@@3PAY0CN@P6GPAUENTITY@@PAU1@W4LIST_TYPES@@@ZA[edx+eax*4]
  00873	ff d1		 call	 ecx
  00875	8b 10		 mov	 edx, DWORD PTR [eax]
  00877	89 95 7c ff ff
	ff		 mov	 DWORD PTR tv409[ebp], edx
  0087d	eb 24		 jmp	 SHORT $LN37@update_acc
$LN36@update_acc:
  0087f	a1 00 00 00 00	 mov	 eax, DWORD PTR ?__LINE__Var@?0??update_acceleration_dynamics@@YGXXZ@4JA
  00884	83 c0 60	 add	 eax, 96			; 00000060H
  00887	50		 push	 eax
  00888	68 00 00 00 00	 push	 OFFSET ??_C@_0EM@BHCFJHIE@c?3?2users?2nhv90?2projects?2eech?2ap@
  0088d	8b 0d 00 00 00
	00		 mov	 ecx, DWORD PTR ?null_entity_pointer_message@@3PBDB ; null_entity_pointer_message
  00893	51		 push	 ecx
  00894	e8 00 00 00 00	 call	 ?process_assert@@YGXPBD0H@Z ; process_assert
  00899	c7 85 7c ff ff
	ff 00 00 00 00	 mov	 DWORD PTR tv409[ebp], 0
$LN37@update_acc:
  008a3	ba 01 00 00 00	 mov	 edx, 1
  008a8	85 d2		 test	 edx, edx
  008aa	74 0c		 je	 SHORT $LN38@update_acc
  008ac	c7 85 78 ff ff
	ff 16 00 00 00	 mov	 DWORD PTR tv417[ebp], 22 ; 00000016H
  008b6	eb 24		 jmp	 SHORT $LN39@update_acc
$LN38@update_acc:
  008b8	a1 00 00 00 00	 mov	 eax, DWORD PTR ?__LINE__Var@?0??update_acceleration_dynamics@@YGXXZ@4JA
  008bd	83 c0 60	 add	 eax, 96			; 00000060H
  008c0	50		 push	 eax
  008c1	68 00 00 00 00	 push	 OFFSET ??_C@_0EM@BHCFJHIE@c?3?2users?2nhv90?2projects?2eech?2ap@
  008c6	8b 0d 00 00 00
	00		 mov	 ecx, DWORD PTR ?overload_invalid_list_type_message@@3PBDB ; overload_invalid_list_type_message
  008cc	51		 push	 ecx
  008cd	e8 00 00 00 00	 call	 ?process_assert@@YGXPBD0H@Z ; process_assert
  008d2	c7 85 78 ff ff
	ff 00 00 00 00	 mov	 DWORD PTR tv417[ebp], 0
$LN39@update_acc:
  008dc	6a 16		 push	 22			; 00000016H
  008de	6a 19		 push	 25			; 00000019H
  008e0	8b 15 00 00 00
	00		 mov	 edx, DWORD PTR ?gunship_entity@@3PAUENTITY@@A ; gunship_entity
  008e6	52		 push	 edx
  008e7	69 45 94 b4 00
	00 00		 imul	 eax, DWORD PTR tv428[ebp], 180
  008ee	8b 4d 90	 mov	 ecx, DWORD PTR tv436[ebp]
  008f1	8b 94 88 00 00
	00 00		 mov	 edx, DWORD PTR ?fn_get_local_entity_parent@@3PAY0CN@P6GPAUENTITY@@PAU1@W4LIST_TYPES@@@ZA[eax+ecx*4]
  008f8	ff d2		 call	 edx
  008fa	50		 push	 eax
  008fb	69 85 7c ff ff
	ff b4 00 00 00	 imul	 eax, DWORD PTR tv409[ebp], 180
  00905	8b 8d 78 ff ff
	ff		 mov	 ecx, DWORD PTR tv417[ebp]
  0090b	8b 94 88 00 00
	00 00		 mov	 edx, DWORD PTR ?fn_get_local_entity_parent@@3PAY0CN@P6GPAUENTITY@@PAU1@W4LIST_TYPES@@@ZA[eax+ecx*4]
  00912	ff d2		 call	 edx
  00914	89 45 f8	 mov	 DWORD PTR _keysite$9[ebp], eax

; 2997 : 
; 2998 : 		if (keysite)

  00917	83 7d f8 00	 cmp	 DWORD PTR _keysite$9[ebp], 0
  0091b	0f 84 00 04 00
	00		 je	 $LN13@update_acc

; 2999 : 		{
; 3000 : 
; 3001 : 			if (get_local_entity_int_value (keysite, INT_TYPE_ENTITY_SUB_TYPE) == ENTITY_SUB_TYPE_KEYSITE_ANCHORAGE)

  00921	83 7d f8 00	 cmp	 DWORD PTR _keysite$9[ebp], 0
  00925	74 0a		 je	 SHORT $LN44@update_acc
  00927	8b 45 f8	 mov	 eax, DWORD PTR _keysite$9[ebp]
  0092a	8b 08		 mov	 ecx, DWORD PTR [eax]
  0092c	89 4d 94	 mov	 DWORD PTR tv449[ebp], ecx
  0092f	eb 1d		 jmp	 SHORT $LN45@update_acc
$LN44@update_acc:
  00931	68 b9 0b 00 00	 push	 3001			; 00000bb9H
  00936	68 00 00 00 00	 push	 OFFSET ??_C@_0EM@BHCFJHIE@c?3?2users?2nhv90?2projects?2eech?2ap@
  0093b	8b 15 00 00 00
	00		 mov	 edx, DWORD PTR ?null_entity_pointer_message@@3PBDB ; null_entity_pointer_message
  00941	52		 push	 edx
  00942	e8 00 00 00 00	 call	 ?process_assert@@YGXPBD0H@Z ; process_assert
  00947	c7 45 94 00 00
	00 00		 mov	 DWORD PTR tv449[ebp], 0
$LN45@update_acc:
  0094e	b8 01 00 00 00	 mov	 eax, 1
  00953	85 c0		 test	 eax, eax
  00955	74 09		 je	 SHORT $LN46@update_acc
  00957	c7 45 90 34 00
	00 00		 mov	 DWORD PTR tv456[ebp], 52 ; 00000034H
  0095e	eb 1d		 jmp	 SHORT $LN47@update_acc
$LN46@update_acc:
  00960	68 b9 0b 00 00	 push	 3001			; 00000bb9H
  00965	68 00 00 00 00	 push	 OFFSET ??_C@_0EM@BHCFJHIE@c?3?2users?2nhv90?2projects?2eech?2ap@
  0096a	8b 0d 00 00 00
	00		 mov	 ecx, DWORD PTR ?overload_invalid_int_type_message@@3PBDB ; overload_invalid_int_type_message
  00970	51		 push	 ecx
  00971	e8 00 00 00 00	 call	 ?process_assert@@YGXPBD0H@Z ; process_assert
  00976	c7 45 90 00 00
	00 00		 mov	 DWORD PTR tv456[ebp], 0
$LN47@update_acc:
  0097d	6a 34		 push	 52			; 00000034H
  0097f	8b 55 f8	 mov	 edx, DWORD PTR _keysite$9[ebp]
  00982	52		 push	 edx
  00983	69 45 94 5c 04
	00 00		 imul	 eax, DWORD PTR tv449[ebp], 1116
  0098a	8b 4d 90	 mov	 ecx, DWORD PTR tv456[ebp]
  0098d	8b 94 88 00 00
	00 00		 mov	 edx, DWORD PTR ?fn_get_local_entity_int_value@@3PAY0BBH@P6GHPAUENTITY@@W4INT_TYPES@@@ZA[eax+ecx*4]
  00994	ff d2		 call	 edx
  00996	83 f8 01	 cmp	 eax, 1
  00999	0f 85 82 03 00
	00		 jne	 $LN13@update_acc

; 3002 : 			{
; 3003 : 
; 3004 : 				if (helicopter_within_keysite_area (get_gunship_entity ()))

  0099f	a1 00 00 00 00	 mov	 eax, DWORD PTR ?gunship_entity@@3PAUENTITY@@A ; gunship_entity
  009a4	50		 push	 eax
  009a5	e8 00 00 00 00	 call	 ?helicopter_within_keysite_area@@YGHPAUENTITY@@@Z ; helicopter_within_keysite_area
  009aa	85 c0		 test	 eax, eax
  009ac	0f 84 6f 03 00
	00		 je	 $LN13@update_acc

; 3005 : 				{
; 3006 : 
; 3007 : 					if (current_flight_dynamics->position.y < 16.6136 + get_local_entity_float_value (get_gunship_entity (), FLOAT_TYPE_CENTRE_OF_GRAVITY_TO_GROUND_DISTANCE))

  009b2	83 3d 00 00 00
	00 00		 cmp	 DWORD PTR ?gunship_entity@@3PAUENTITY@@A, 0 ; gunship_entity
  009b9	74 0c		 je	 SHORT $LN48@update_acc
  009bb	a1 00 00 00 00	 mov	 eax, DWORD PTR ?gunship_entity@@3PAUENTITY@@A ; gunship_entity
  009c0	8b 08		 mov	 ecx, DWORD PTR [eax]
  009c2	89 4d 94	 mov	 DWORD PTR tv473[ebp], ecx
  009c5	eb 1d		 jmp	 SHORT $LN49@update_acc
$LN48@update_acc:
  009c7	68 bf 0b 00 00	 push	 3007			; 00000bbfH
  009cc	68 00 00 00 00	 push	 OFFSET ??_C@_0EM@BHCFJHIE@c?3?2users?2nhv90?2projects?2eech?2ap@
  009d1	8b 15 00 00 00
	00		 mov	 edx, DWORD PTR ?null_entity_pointer_message@@3PBDB ; null_entity_pointer_message
  009d7	52		 push	 edx
  009d8	e8 00 00 00 00	 call	 ?process_assert@@YGXPBD0H@Z ; process_assert
  009dd	c7 45 94 00 00
	00 00		 mov	 DWORD PTR tv473[ebp], 0
$LN49@update_acc:
  009e4	b8 01 00 00 00	 mov	 eax, 1
  009e9	85 c0		 test	 eax, eax
  009eb	74 09		 je	 SHORT $LN50@update_acc
  009ed	c7 45 90 12 00
	00 00		 mov	 DWORD PTR tv480[ebp], 18 ; 00000012H
  009f4	eb 1d		 jmp	 SHORT $LN51@update_acc
$LN50@update_acc:
  009f6	68 bf 0b 00 00	 push	 3007			; 00000bbfH
  009fb	68 00 00 00 00	 push	 OFFSET ??_C@_0EM@BHCFJHIE@c?3?2users?2nhv90?2projects?2eech?2ap@
  00a00	8b 0d 00 00 00
	00		 mov	 ecx, DWORD PTR ?overload_invalid_float_type_message@@3PBDB ; overload_invalid_float_type_message
  00a06	51		 push	 ecx
  00a07	e8 00 00 00 00	 call	 ?process_assert@@YGXPBD0H@Z ; process_assert
  00a0c	c7 45 90 00 00
	00 00		 mov	 DWORD PTR tv480[ebp], 0
$LN51@update_acc:
  00a13	6a 12		 push	 18			; 00000012H
  00a15	8b 15 00 00 00
	00		 mov	 edx, DWORD PTR ?gunship_entity@@3PAUENTITY@@A ; gunship_entity
  00a1b	52		 push	 edx
  00a1c	69 45 94 bc 02
	00 00		 imul	 eax, DWORD PTR tv473[ebp], 700
  00a23	8b 4d 90	 mov	 ecx, DWORD PTR tv480[ebp]
  00a26	8b 94 88 00 00
	00 00		 mov	 edx, DWORD PTR ?fn_get_local_entity_float_value@@3PAY0KP@P6GMPAUENTITY@@W4FLOAT_TYPES@@@ZA[eax+ecx*4]
  00a2d	ff d2		 call	 edx
  00a2f	dd 5d 88	 fstp	 QWORD PTR tv864[ebp]
  00a32	f2 0f 10 45 88	 movsd	 xmm0, QWORD PTR tv864[ebp]
  00a37	f2 0f 58 05 00
	00 00 00	 addsd	 xmm0, QWORD PTR __real@40309d14e3bcd35b
  00a3f	a1 00 00 00 00	 mov	 eax, DWORD PTR ?current_flight_dynamics@@3PAUDYNAMICS_TYPE@@A ; current_flight_dynamics
  00a44	66 0f 2f 80 b4
	00 00 00	 comisd	 xmm0, QWORD PTR [eax+180]
  00a4c	0f 86 cf 02 00
	00		 jbe	 $LN13@update_acc

; 3008 : 					{
; 3009 : 
; 3010 : 						if (get_local_entity_int_value (get_gunship_entity (), INT_TYPE_AIRBORNE_AIRCRAFT))

  00a52	83 3d 00 00 00
	00 00		 cmp	 DWORD PTR ?gunship_entity@@3PAUENTITY@@A, 0 ; gunship_entity
  00a59	74 0c		 je	 SHORT $LN52@update_acc
  00a5b	a1 00 00 00 00	 mov	 eax, DWORD PTR ?gunship_entity@@3PAUENTITY@@A ; gunship_entity
  00a60	8b 08		 mov	 ecx, DWORD PTR [eax]
  00a62	89 4d 94	 mov	 DWORD PTR tv494[ebp], ecx
  00a65	eb 1d		 jmp	 SHORT $LN53@update_acc
$LN52@update_acc:
  00a67	68 c2 0b 00 00	 push	 3010			; 00000bc2H
  00a6c	68 00 00 00 00	 push	 OFFSET ??_C@_0EM@BHCFJHIE@c?3?2users?2nhv90?2projects?2eech?2ap@
  00a71	8b 15 00 00 00
	00		 mov	 edx, DWORD PTR ?null_entity_pointer_message@@3PBDB ; null_entity_pointer_message
  00a77	52		 push	 edx
  00a78	e8 00 00 00 00	 call	 ?process_assert@@YGXPBD0H@Z ; process_assert
  00a7d	c7 45 94 00 00
	00 00		 mov	 DWORD PTR tv494[ebp], 0
$LN53@update_acc:
  00a84	b8 01 00 00 00	 mov	 eax, 1
  00a89	85 c0		 test	 eax, eax
  00a8b	74 09		 je	 SHORT $LN54@update_acc
  00a8d	c7 45 90 04 00
	00 00		 mov	 DWORD PTR tv501[ebp], 4
  00a94	eb 1d		 jmp	 SHORT $LN55@update_acc
$LN54@update_acc:
  00a96	68 c2 0b 00 00	 push	 3010			; 00000bc2H
  00a9b	68 00 00 00 00	 push	 OFFSET ??_C@_0EM@BHCFJHIE@c?3?2users?2nhv90?2projects?2eech?2ap@
  00aa0	8b 0d 00 00 00
	00		 mov	 ecx, DWORD PTR ?overload_invalid_int_type_message@@3PBDB ; overload_invalid_int_type_message
  00aa6	51		 push	 ecx
  00aa7	e8 00 00 00 00	 call	 ?process_assert@@YGXPBD0H@Z ; process_assert
  00aac	c7 45 90 00 00
	00 00		 mov	 DWORD PTR tv501[ebp], 0
$LN55@update_acc:
  00ab3	6a 04		 push	 4
  00ab5	8b 15 00 00 00
	00		 mov	 edx, DWORD PTR ?gunship_entity@@3PAUENTITY@@A ; gunship_entity
  00abb	52		 push	 edx
  00abc	69 45 94 5c 04
	00 00		 imul	 eax, DWORD PTR tv494[ebp], 1116
  00ac3	8b 4d 90	 mov	 ecx, DWORD PTR tv501[ebp]
  00ac6	8b 94 88 00 00
	00 00		 mov	 edx, DWORD PTR ?fn_get_local_entity_int_value@@3PAY0BBH@P6GHPAUENTITY@@W4INT_TYPES@@@ZA[eax+ecx*4]
  00acd	ff d2		 call	 edx
  00acf	85 c0		 test	 eax, eax
  00ad1	0f 84 93 00 00
	00		 je	 $LN14@update_acc

; 3011 : 						{
; 3012 : 
; 3013 : 							set_client_server_entity_int_value (get_gunship_entity (), INT_TYPE_OPERATIONAL_STATE, OPERATIONAL_STATE_TAXIING);

  00ad7	83 3d 00 00 00
	00 00		 cmp	 DWORD PTR ?gunship_entity@@3PAUENTITY@@A, 0 ; gunship_entity
  00ade	74 0c		 je	 SHORT $LN56@update_acc
  00ae0	a1 00 00 00 00	 mov	 eax, DWORD PTR ?gunship_entity@@3PAUENTITY@@A ; gunship_entity
  00ae5	8b 08		 mov	 ecx, DWORD PTR [eax]
  00ae7	89 4d 94	 mov	 DWORD PTR tv514[ebp], ecx
  00aea	eb 21		 jmp	 SHORT $LN57@update_acc
$LN56@update_acc:
  00aec	8b 15 00 00 00
	00		 mov	 edx, DWORD PTR ?__LINE__Var@?0??update_acceleration_dynamics@@YGXXZ@4JA
  00af2	83 c2 71	 add	 edx, 113		; 00000071H
  00af5	52		 push	 edx
  00af6	68 00 00 00 00	 push	 OFFSET ??_C@_0EM@BHCFJHIE@c?3?2users?2nhv90?2projects?2eech?2ap@
  00afb	a1 00 00 00 00	 mov	 eax, DWORD PTR ?null_entity_pointer_message@@3PBDB ; null_entity_pointer_message
  00b00	50		 push	 eax
  00b01	e8 00 00 00 00	 call	 ?process_assert@@YGXPBD0H@Z ; process_assert
  00b06	c7 45 94 00 00
	00 00		 mov	 DWORD PTR tv514[ebp], 0
$LN57@update_acc:
  00b0d	b9 01 00 00 00	 mov	 ecx, 1
  00b12	85 c9		 test	 ecx, ecx
  00b14	74 09		 je	 SHORT $LN58@update_acc
  00b16	c7 45 90 97 00
	00 00		 mov	 DWORD PTR tv522[ebp], 151 ; 00000097H
  00b1d	eb 21		 jmp	 SHORT $LN59@update_acc
$LN58@update_acc:
  00b1f	8b 15 00 00 00
	00		 mov	 edx, DWORD PTR ?__LINE__Var@?0??update_acceleration_dynamics@@YGXXZ@4JA
  00b25	83 c2 71	 add	 edx, 113		; 00000071H
  00b28	52		 push	 edx
  00b29	68 00 00 00 00	 push	 OFFSET ??_C@_0EM@BHCFJHIE@c?3?2users?2nhv90?2projects?2eech?2ap@
  00b2e	a1 00 00 00 00	 mov	 eax, DWORD PTR ?overload_invalid_int_type_message@@3PBDB ; overload_invalid_int_type_message
  00b33	50		 push	 eax
  00b34	e8 00 00 00 00	 call	 ?process_assert@@YGXPBD0H@Z ; process_assert
  00b39	c7 45 90 00 00
	00 00		 mov	 DWORD PTR tv522[ebp], 0
$LN59@update_acc:
  00b40	6a 0b		 push	 11			; 0000000bH
  00b42	68 97 00 00 00	 push	 151			; 00000097H
  00b47	8b 0d 00 00 00
	00		 mov	 ecx, DWORD PTR ?gunship_entity@@3PAUENTITY@@A ; gunship_entity
  00b4d	51		 push	 ecx
  00b4e	69 55 94 b8 08
	00 00		 imul	 edx, DWORD PTR tv514[ebp], 2232
  00b55	8b 45 90	 mov	 eax, DWORD PTR tv522[ebp]
  00b58	8d 8c c2 00 00
	00 00		 lea	 ecx, DWORD PTR ?fn_set_client_server_entity_int_value@@3PAY1BBH@1P6GXPAUENTITY@@W4INT_TYPES@@H@ZA[edx+eax*8]
  00b5f	8b 15 00 00 00
	00		 mov	 edx, DWORD PTR ?system_comms_model@@3W4COMMS_MODEL_TYPES@@A ; system_comms_model
  00b65	8b 04 91	 mov	 eax, DWORD PTR [ecx+edx*4]
  00b68	ff d0		 call	 eax
$LN14@update_acc:

; 3014 : 						}
; 3015 : 
; 3016 : 						current_flight_dynamics->position.y = bound (current_flight_dynamics->position.y, 16.6136 + get_local_entity_float_value (get_gunship_entity (), FLOAT_TYPE_CENTRE_OF_GRAVITY_TO_GROUND_DISTANCE), MAX_MAP_Y);

  00b6a	83 3d 00 00 00
	00 00		 cmp	 DWORD PTR ?gunship_entity@@3PAUENTITY@@A, 0 ; gunship_entity
  00b71	74 0c		 je	 SHORT $LN60@update_acc
  00b73	a1 00 00 00 00	 mov	 eax, DWORD PTR ?gunship_entity@@3PAUENTITY@@A ; gunship_entity
  00b78	8b 08		 mov	 ecx, DWORD PTR [eax]
  00b7a	89 4d 94	 mov	 DWORD PTR tv540[ebp], ecx
  00b7d	eb 21		 jmp	 SHORT $LN61@update_acc
$LN60@update_acc:
  00b7f	8b 15 00 00 00
	00		 mov	 edx, DWORD PTR ?__LINE__Var@?0??update_acceleration_dynamics@@YGXXZ@4JA
  00b85	83 c2 74	 add	 edx, 116		; 00000074H
  00b88	52		 push	 edx
  00b89	68 00 00 00 00	 push	 OFFSET ??_C@_0EM@BHCFJHIE@c?3?2users?2nhv90?2projects?2eech?2ap@
  00b8e	a1 00 00 00 00	 mov	 eax, DWORD PTR ?null_entity_pointer_message@@3PBDB ; null_entity_pointer_message
  00b93	50		 push	 eax
  00b94	e8 00 00 00 00	 call	 ?process_assert@@YGXPBD0H@Z ; process_assert
  00b99	c7 45 94 00 00
	00 00		 mov	 DWORD PTR tv540[ebp], 0
$LN61@update_acc:
  00ba0	b9 01 00 00 00	 mov	 ecx, 1
  00ba5	85 c9		 test	 ecx, ecx
  00ba7	74 09		 je	 SHORT $LN62@update_acc
  00ba9	c7 45 90 12 00
	00 00		 mov	 DWORD PTR tv548[ebp], 18 ; 00000012H
  00bb0	eb 21		 jmp	 SHORT $LN63@update_acc
$LN62@update_acc:
  00bb2	8b 15 00 00 00
	00		 mov	 edx, DWORD PTR ?__LINE__Var@?0??update_acceleration_dynamics@@YGXXZ@4JA
  00bb8	83 c2 74	 add	 edx, 116		; 00000074H
  00bbb	52		 push	 edx
  00bbc	68 00 00 00 00	 push	 OFFSET ??_C@_0EM@BHCFJHIE@c?3?2users?2nhv90?2projects?2eech?2ap@
  00bc1	a1 00 00 00 00	 mov	 eax, DWORD PTR ?overload_invalid_float_type_message@@3PBDB ; overload_invalid_float_type_message
  00bc6	50		 push	 eax
  00bc7	e8 00 00 00 00	 call	 ?process_assert@@YGXPBD0H@Z ; process_assert
  00bcc	c7 45 90 00 00
	00 00		 mov	 DWORD PTR tv548[ebp], 0
$LN63@update_acc:
  00bd3	6a 12		 push	 18			; 00000012H
  00bd5	8b 0d 00 00 00
	00		 mov	 ecx, DWORD PTR ?gunship_entity@@3PAUENTITY@@A ; gunship_entity
  00bdb	51		 push	 ecx
  00bdc	69 55 94 bc 02
	00 00		 imul	 edx, DWORD PTR tv540[ebp], 700
  00be3	8b 45 90	 mov	 eax, DWORD PTR tv548[ebp]
  00be6	8b 8c 82 00 00
	00 00		 mov	 ecx, DWORD PTR ?fn_get_local_entity_float_value@@3PAY0KP@P6GMPAUENTITY@@W4FLOAT_TYPES@@@ZA[edx+eax*4]
  00bed	ff d1		 call	 ecx
  00bef	dd 5d 88	 fstp	 QWORD PTR tv901[ebp]
  00bf2	f2 0f 10 45 88	 movsd	 xmm0, QWORD PTR tv901[ebp]
  00bf7	f2 0f 58 05 00
	00 00 00	 addsd	 xmm0, QWORD PTR __real@40309d14e3bcd35b
  00bff	8b 15 00 00 00
	00		 mov	 edx, DWORD PTR ?current_flight_dynamics@@3PAUDYNAMICS_TYPE@@A ; current_flight_dynamics
  00c05	66 0f 2f 82 b4
	00 00 00	 comisd	 xmm0, QWORD PTR [edx+180]
  00c0d	0f 86 a5 00 00
	00		 jbe	 $LN70@update_acc
  00c13	83 3d 00 00 00
	00 00		 cmp	 DWORD PTR ?gunship_entity@@3PAUENTITY@@A, 0 ; gunship_entity
  00c1a	74 0c		 je	 SHORT $LN64@update_acc
  00c1c	a1 00 00 00 00	 mov	 eax, DWORD PTR ?gunship_entity@@3PAUENTITY@@A ; gunship_entity
  00c21	8b 08		 mov	 ecx, DWORD PTR [eax]
  00c23	89 4d 84	 mov	 DWORD PTR tv563[ebp], ecx
  00c26	eb 21		 jmp	 SHORT $LN65@update_acc
$LN64@update_acc:
  00c28	8b 15 00 00 00
	00		 mov	 edx, DWORD PTR ?__LINE__Var@?0??update_acceleration_dynamics@@YGXXZ@4JA
  00c2e	83 c2 74	 add	 edx, 116		; 00000074H
  00c31	52		 push	 edx
  00c32	68 00 00 00 00	 push	 OFFSET ??_C@_0EM@BHCFJHIE@c?3?2users?2nhv90?2projects?2eech?2ap@
  00c37	a1 00 00 00 00	 mov	 eax, DWORD PTR ?null_entity_pointer_message@@3PBDB ; null_entity_pointer_message
  00c3c	50		 push	 eax
  00c3d	e8 00 00 00 00	 call	 ?process_assert@@YGXPBD0H@Z ; process_assert
  00c42	c7 45 84 00 00
	00 00		 mov	 DWORD PTR tv563[ebp], 0
$LN65@update_acc:
  00c49	b9 01 00 00 00	 mov	 ecx, 1
  00c4e	85 c9		 test	 ecx, ecx
  00c50	74 09		 je	 SHORT $LN66@update_acc
  00c52	c7 45 80 12 00
	00 00		 mov	 DWORD PTR tv571[ebp], 18 ; 00000012H
  00c59	eb 21		 jmp	 SHORT $LN67@update_acc
$LN66@update_acc:
  00c5b	8b 15 00 00 00
	00		 mov	 edx, DWORD PTR ?__LINE__Var@?0??update_acceleration_dynamics@@YGXXZ@4JA
  00c61	83 c2 74	 add	 edx, 116		; 00000074H
  00c64	52		 push	 edx
  00c65	68 00 00 00 00	 push	 OFFSET ??_C@_0EM@BHCFJHIE@c?3?2users?2nhv90?2projects?2eech?2ap@
  00c6a	a1 00 00 00 00	 mov	 eax, DWORD PTR ?overload_invalid_float_type_message@@3PBDB ; overload_invalid_float_type_message
  00c6f	50		 push	 eax
  00c70	e8 00 00 00 00	 call	 ?process_assert@@YGXPBD0H@Z ; process_assert
  00c75	c7 45 80 00 00
	00 00		 mov	 DWORD PTR tv571[ebp], 0
$LN67@update_acc:
  00c7c	6a 12		 push	 18			; 00000012H
  00c7e	8b 0d 00 00 00
	00		 mov	 ecx, DWORD PTR ?gunship_entity@@3PAUENTITY@@A ; gunship_entity
  00c84	51		 push	 ecx
  00c85	69 55 84 bc 02
	00 00		 imul	 edx, DWORD PTR tv563[ebp], 700
  00c8c	8b 45 80	 mov	 eax, DWORD PTR tv571[ebp]
  00c8f	8b 8c 82 00 00
	00 00		 mov	 ecx, DWORD PTR ?fn_get_local_entity_float_value@@3PAY0KP@P6GMPAUENTITY@@W4FLOAT_TYPES@@@ZA[edx+eax*4]
  00c96	ff d1		 call	 ecx
  00c98	dd 9d 78 ff ff
	ff		 fstp	 QWORD PTR tv918[ebp]
  00c9e	f2 0f 10 85 78
	ff ff ff	 movsd	 xmm0, QWORD PTR tv918[ebp]
  00ca6	f2 0f 58 05 00
	00 00 00	 addsd	 xmm0, QWORD PTR __real@40309d14e3bcd35b
  00cae	f2 0f 11 85 70
	ff ff ff	 movsd	 QWORD PTR tv587[ebp], xmm0
  00cb6	eb 53		 jmp	 SHORT $LN71@update_acc
$LN70@update_acc:
  00cb8	f3 0f 5a 05 40
	00 00 00	 cvtss2sd xmm0, DWORD PTR ?world_map@@3UWORLD_MAP_DATA@@A+64
  00cc0	8b 15 00 00 00
	00		 mov	 edx, DWORD PTR ?current_flight_dynamics@@3PAUDYNAMICS_TYPE@@A ; current_flight_dynamics
  00cc6	f2 0f 10 8a b4
	00 00 00	 movsd	 xmm1, QWORD PTR [edx+180]
  00cce	66 0f 2f c8	 comisd	 xmm1, xmm0
  00cd2	76 12		 jbe	 SHORT $LN68@update_acc
  00cd4	f3 0f 5a 05 40
	00 00 00	 cvtss2sd xmm0, DWORD PTR ?world_map@@3UWORLD_MAP_DATA@@A+64
  00cdc	f2 0f 11 85 68
	ff ff ff	 movsd	 QWORD PTR tv586[ebp], xmm0
  00ce4	eb 15		 jmp	 SHORT $LN69@update_acc
$LN68@update_acc:
  00ce6	a1 00 00 00 00	 mov	 eax, DWORD PTR ?current_flight_dynamics@@3PAUDYNAMICS_TYPE@@A ; current_flight_dynamics
  00ceb	f2 0f 10 80 b4
	00 00 00	 movsd	 xmm0, QWORD PTR [eax+180]
  00cf3	f2 0f 11 85 68
	ff ff ff	 movsd	 QWORD PTR tv586[ebp], xmm0
$LN69@update_acc:
  00cfb	f2 0f 10 85 68
	ff ff ff	 movsd	 xmm0, QWORD PTR tv586[ebp]
  00d03	f2 0f 11 85 70
	ff ff ff	 movsd	 QWORD PTR tv587[ebp], xmm0
$LN71@update_acc:
  00d0b	8b 0d 00 00 00
	00		 mov	 ecx, DWORD PTR ?current_flight_dynamics@@3PAUDYNAMICS_TYPE@@A ; current_flight_dynamics
  00d11	f2 0f 10 85 70
	ff ff ff	 movsd	 xmm0, QWORD PTR tv587[ebp]
  00d19	f2 0f 11 81 b4
	00 00 00	 movsd	 QWORD PTR [ecx+180], xmm0
$LN13@update_acc:

; 3017 : 					}
; 3018 : 				}
; 3019 : 			}
; 3020 : 		}
; 3021 : 	}
; 3022 : 
; 3023 : 	current_flight_dynamics->altitude.value = current_flight_dynamics->position.y;

  00d21	a1 00 00 00 00	 mov	 eax, DWORD PTR ?current_flight_dynamics@@3PAUDYNAMICS_TYPE@@A ; current_flight_dynamics
  00d26	f2 0f 5a 80 b4
	00 00 00	 cvtsd2ss xmm0, QWORD PTR [eax+180]
  00d2e	8b 0d 00 00 00
	00		 mov	 ecx, DWORD PTR ?current_flight_dynamics@@3PAUDYNAMICS_TYPE@@A ; current_flight_dynamics
  00d34	f3 0f 11 81 d4
	21 00 00	 movss	 DWORD PTR [ecx+8660], xmm0

; 3024 : 
; 3025 : 	current_flight_dynamics->altitude.min = get_local_entity_float_value (get_gunship_entity (), FLOAT_TYPE_TERRAIN_ELEVATION);

  00d3c	83 3d 00 00 00
	00 00		 cmp	 DWORD PTR ?gunship_entity@@3PAUENTITY@@A, 0 ; gunship_entity
  00d43	74 0c		 je	 SHORT $LN72@update_acc
  00d45	a1 00 00 00 00	 mov	 eax, DWORD PTR ?gunship_entity@@3PAUENTITY@@A ; gunship_entity
  00d4a	8b 08		 mov	 ecx, DWORD PTR [eax]
  00d4c	89 4d 94	 mov	 DWORD PTR tv601[ebp], ecx
  00d4f	eb 21		 jmp	 SHORT $LN73@update_acc
$LN72@update_acc:
  00d51	8b 15 00 00 00
	00		 mov	 edx, DWORD PTR ?__LINE__Var@?0??update_acceleration_dynamics@@YGXXZ@4JA
  00d57	83 c2 7d	 add	 edx, 125		; 0000007dH
  00d5a	52		 push	 edx
  00d5b	68 00 00 00 00	 push	 OFFSET ??_C@_0EM@BHCFJHIE@c?3?2users?2nhv90?2projects?2eech?2ap@
  00d60	a1 00 00 00 00	 mov	 eax, DWORD PTR ?null_entity_pointer_message@@3PBDB ; null_entity_pointer_message
  00d65	50		 push	 eax
  00d66	e8 00 00 00 00	 call	 ?process_assert@@YGXPBD0H@Z ; process_assert
  00d6b	c7 45 94 00 00
	00 00		 mov	 DWORD PTR tv601[ebp], 0
$LN73@update_acc:
  00d72	b9 01 00 00 00	 mov	 ecx, 1
  00d77	85 c9		 test	 ecx, ecx
  00d79	74 09		 je	 SHORT $LN74@update_acc
  00d7b	c7 45 90 8d 00
	00 00		 mov	 DWORD PTR tv609[ebp], 141 ; 0000008dH
  00d82	eb 21		 jmp	 SHORT $LN75@update_acc
$LN74@update_acc:
  00d84	8b 15 00 00 00
	00		 mov	 edx, DWORD PTR ?__LINE__Var@?0??update_acceleration_dynamics@@YGXXZ@4JA
  00d8a	83 c2 7d	 add	 edx, 125		; 0000007dH
  00d8d	52		 push	 edx
  00d8e	68 00 00 00 00	 push	 OFFSET ??_C@_0EM@BHCFJHIE@c?3?2users?2nhv90?2projects?2eech?2ap@
  00d93	a1 00 00 00 00	 mov	 eax, DWORD PTR ?overload_invalid_float_type_message@@3PBDB ; overload_invalid_float_type_message
  00d98	50		 push	 eax
  00d99	e8 00 00 00 00	 call	 ?process_assert@@YGXPBD0H@Z ; process_assert
  00d9e	c7 45 90 00 00
	00 00		 mov	 DWORD PTR tv609[ebp], 0
$LN75@update_acc:
  00da5	68 8d 00 00 00	 push	 141			; 0000008dH
  00daa	8b 0d 00 00 00
	00		 mov	 ecx, DWORD PTR ?gunship_entity@@3PAUENTITY@@A ; gunship_entity
  00db0	51		 push	 ecx
  00db1	69 55 94 bc 02
	00 00		 imul	 edx, DWORD PTR tv601[ebp], 700
  00db8	8b 45 90	 mov	 eax, DWORD PTR tv609[ebp]
  00dbb	8b 8c 82 00 00
	00 00		 mov	 ecx, DWORD PTR ?fn_get_local_entity_float_value@@3PAY0KP@P6GMPAUENTITY@@W4FLOAT_TYPES@@@ZA[edx+eax*4]
  00dc2	ff d1		 call	 ecx
  00dc4	8b 15 00 00 00
	00		 mov	 edx, DWORD PTR ?current_flight_dynamics@@3PAUDYNAMICS_TYPE@@A ; current_flight_dynamics
  00dca	d9 9a dc 21 00
	00		 fstp	 DWORD PTR [edx+8668]

; 3026 : }

  00dd0	5f		 pop	 edi
  00dd1	5e		 pop	 esi
  00dd2	5b		 pop	 ebx
  00dd3	8b e5		 mov	 esp, ebp
  00dd5	5d		 pop	 ebp
  00dd6	c3		 ret	 0
?update_acceleration_dynamics@@YGXXZ ENDP		; update_acceleration_dynamics
_TEXT	ENDS
; Function compile flags: /Odtp /ZI
; File c:\users\nhv90\projects\eech\aphavoc\source\gunships\dynamics\hind\hi_dyn.c
;	COMDAT ?update_air_density_dynamics@@YGXXZ
_TEXT	SEGMENT
_Amin$ = -8						; size = 4
_Amax$ = -4						; size = 4
?update_air_density_dynamics@@YGXXZ PROC		; update_air_density_dynamics, COMDAT

; 2882 : {

  00000	55		 push	 ebp
  00001	8b ec		 mov	 ebp, esp
  00003	83 ec 48	 sub	 esp, 72			; 00000048H
  00006	53		 push	 ebx
  00007	56		 push	 esi
  00008	57		 push	 edi

; 2883 : 
; 2884 : 	float
; 2885 : 		Amax,
; 2886 : 		Amin;
; 2887 : 
; 2888 : 	Amax = current_flight_dynamics->air_density.max;

  00009	a1 00 00 00 00	 mov	 eax, DWORD PTR ?current_flight_dynamics@@3PAUDYNAMICS_TYPE@@A ; current_flight_dynamics
  0000e	f3 0f 10 80 50
	21 00 00	 movss	 xmm0, DWORD PTR [eax+8528]
  00016	f3 0f 11 45 fc	 movss	 DWORD PTR _Amax$[ebp], xmm0

; 2889 : 
; 2890 : 	Amin = current_flight_dynamics->air_density.min;

  0001b	a1 00 00 00 00	 mov	 eax, DWORD PTR ?current_flight_dynamics@@3PAUDYNAMICS_TYPE@@A ; current_flight_dynamics
  00020	f3 0f 10 80 4c
	21 00 00	 movss	 xmm0, DWORD PTR [eax+8524]
  00028	f3 0f 11 45 f8	 movss	 DWORD PTR _Amin$[ebp], xmm0

; 2891 : 
; 2892 : 	current_flight_dynamics->air_density.value = Amax - (((Amax - Amin) / 10000) * current_flight_dynamics->position.y);

  0002d	f3 0f 5a 45 fc	 cvtss2sd xmm0, DWORD PTR _Amax$[ebp]
  00032	f3 0f 10 4d fc	 movss	 xmm1, DWORD PTR _Amax$[ebp]
  00037	f3 0f 5c 4d f8	 subss	 xmm1, DWORD PTR _Amin$[ebp]
  0003c	f3 0f 5e 0d 00
	00 00 00	 divss	 xmm1, DWORD PTR __real@461c4000
  00044	f3 0f 5a c9	 cvtss2sd xmm1, xmm1
  00048	a1 00 00 00 00	 mov	 eax, DWORD PTR ?current_flight_dynamics@@3PAUDYNAMICS_TYPE@@A ; current_flight_dynamics
  0004d	f2 0f 59 88 b4
	00 00 00	 mulsd	 xmm1, QWORD PTR [eax+180]
  00055	f2 0f 5c c1	 subsd	 xmm0, xmm1
  00059	f2 0f 5a c0	 cvtsd2ss xmm0, xmm0
  0005d	8b 0d 00 00 00
	00		 mov	 ecx, DWORD PTR ?current_flight_dynamics@@3PAUDYNAMICS_TYPE@@A ; current_flight_dynamics
  00063	f3 0f 11 81 44
	21 00 00	 movss	 DWORD PTR [ecx+8516], xmm0

; 2893 : }

  0006b	5f		 pop	 edi
  0006c	5e		 pop	 esi
  0006d	5b		 pop	 ebx
  0006e	8b e5		 mov	 esp, ebp
  00070	5d		 pop	 ebp
  00071	c3		 ret	 0
?update_air_density_dynamics@@YGXXZ ENDP		; update_air_density_dynamics
_TEXT	ENDS
; Function compile flags: /Odtp /ZI
; File c:\users\nhv90\projects\eech\aphavoc\source\gunships\dynamics\hind\hi_dyn.c
;	COMDAT ?update_power_dynamics@@YGXXZ
_TEXT	SEGMENT
tv286 = -112						; size = 4
tv262 = -112						; size = 4
tv334 = -108						; size = 4
tv332 = -108						; size = 4
tv278 = -104						; size = 4
tv255 = -104						; size = 4
$T1 = -100						; size = 4
_total_velocity$ = -32					; size = 4
_Bmax$ = -28						; size = 4
_Vmax$ = -24						; size = 4
_blade_pitch$ = -20					; size = 4
_induced_max$ = -16					; size = 4
_induced_min$ = -12					; size = 4
_profile_max$ = -8					; size = 4
_profile_min$ = -4					; size = 4
?update_power_dynamics@@YGXXZ PROC			; update_power_dynamics, COMDAT

; 2808 : {

  00000	55		 push	 ebp
  00001	8b ec		 mov	 ebp, esp
  00003	83 ec 70	 sub	 esp, 112		; 00000070H
  00006	53		 push	 ebx
  00007	56		 push	 esi
  00008	57		 push	 edi

; 2809 : 
; 2810 : 	float
; 2811 : 		profile_min = 20.0,

  00009	f3 0f 10 05 00
	00 00 00	 movss	 xmm0, DWORD PTR __real@41a00000
  00011	f3 0f 11 45 fc	 movss	 DWORD PTR _profile_min$[ebp], xmm0

; 2812 : 		profile_max = 40.0,

  00016	f3 0f 10 05 00
	00 00 00	 movss	 xmm0, DWORD PTR __real@42200000
  0001e	f3 0f 11 45 f8	 movss	 DWORD PTR _profile_max$[ebp], xmm0

; 2813 : 		induced_min = 50.0,

  00023	f3 0f 10 05 00
	00 00 00	 movss	 xmm0, DWORD PTR __real@42480000
  0002b	f3 0f 11 45 f4	 movss	 DWORD PTR _induced_min$[ebp], xmm0

; 2814 : 		induced_max = 30.0,

  00030	f3 0f 10 05 00
	00 00 00	 movss	 xmm0, DWORD PTR __real@41f00000
  00038	f3 0f 11 45 f0	 movss	 DWORD PTR _induced_max$[ebp], xmm0

; 2815 : 		blade_pitch,
; 2816 : 		Vmax,
; 2817 : 		Bmax,
; 2818 : 		total_velocity;
; 2819 : 
; 2820 : 	current_flight_dynamics->power_avaliable.value = current_flight_dynamics->main_rotor_thrust.value * ((current_flight_dynamics->main_rotor_induced_air.value) - (current_flight_dynamics->velocity_y.value / 10.0));

  0003d	a1 00 00 00 00	 mov	 eax, DWORD PTR ?current_flight_dynamics@@3PAUDYNAMICS_TYPE@@A ; current_flight_dynamics
  00042	f3 0f 5a 80 cc
	1d 00 00	 cvtss2sd xmm0, DWORD PTR [eax+7628]
  0004a	8b 0d 00 00 00
	00		 mov	 ecx, DWORD PTR ?current_flight_dynamics@@3PAUDYNAMICS_TYPE@@A ; current_flight_dynamics
  00050	f3 0f 5a 89 6c
	1d 00 00	 cvtss2sd xmm1, DWORD PTR [ecx+7532]
  00058	8b 15 00 00 00
	00		 mov	 edx, DWORD PTR ?current_flight_dynamics@@3PAUDYNAMICS_TYPE@@A ; current_flight_dynamics
  0005e	f3 0f 5a 92 84
	20 00 00	 cvtss2sd xmm2, DWORD PTR [edx+8324]
  00066	f2 0f 5e 15 00
	00 00 00	 divsd	 xmm2, QWORD PTR __real@4024000000000000
  0006e	f2 0f 5c ca	 subsd	 xmm1, xmm2
  00072	f2 0f 59 c1	 mulsd	 xmm0, xmm1
  00076	f2 0f 5a c0	 cvtsd2ss xmm0, xmm0
  0007a	a1 00 00 00 00	 mov	 eax, DWORD PTR ?current_flight_dynamics@@3PAUDYNAMICS_TYPE@@A ; current_flight_dynamics
  0007f	f3 0f 11 80 dc
	1f 00 00	 movss	 DWORD PTR [eax+8156], xmm0

; 2821 : 
; 2822 : 	total_velocity = (fabs (current_flight_dynamics->velocity_x.value) + fabs (current_flight_dynamics->velocity_z.value));

  00087	a1 00 00 00 00	 mov	 eax, DWORD PTR ?current_flight_dynamics@@3PAUDYNAMICS_TYPE@@A ; current_flight_dynamics
  0008c	51		 push	 ecx
  0008d	f3 0f 10 80 6c
	20 00 00	 movss	 xmm0, DWORD PTR [eax+8300]
  00095	f3 0f 11 04 24	 movss	 DWORD PTR [esp], xmm0
  0009a	e8 00 00 00 00	 call	 ?fabs@@YGMM@Z		; fabs
  0009f	d9 5d 98	 fstp	 DWORD PTR tv255[ebp]
  000a2	f3 0f 10 45 98	 movss	 xmm0, DWORD PTR tv255[ebp]
  000a7	8b 0d 00 00 00
	00		 mov	 ecx, DWORD PTR ?current_flight_dynamics@@3PAUDYNAMICS_TYPE@@A ; current_flight_dynamics
  000ad	51		 push	 ecx
  000ae	f3 0f 10 89 9c
	20 00 00	 movss	 xmm1, DWORD PTR [ecx+8348]
  000b6	f3 0f 11 0c 24	 movss	 DWORD PTR [esp], xmm1
  000bb	f3 0f 11 45 94	 movss	 DWORD PTR tv332[ebp], xmm0
  000c0	e8 00 00 00 00	 call	 ?fabs@@YGMM@Z		; fabs
  000c5	d9 5d 90	 fstp	 DWORD PTR tv262[ebp]
  000c8	f3 0f 10 45 94	 movss	 xmm0, DWORD PTR tv332[ebp]
  000cd	f3 0f 58 45 90	 addss	 xmm0, DWORD PTR tv262[ebp]
  000d2	f3 0f 11 45 e0	 movss	 DWORD PTR _total_velocity$[ebp], xmm0

; 2823 : 
; 2824 : 	blade_pitch = current_flight_dynamics->main_blade_pitch.value;

  000d7	a1 00 00 00 00	 mov	 eax, DWORD PTR ?current_flight_dynamics@@3PAUDYNAMICS_TYPE@@A ; current_flight_dynamics
  000dc	f3 0f 10 80 8c
	1e 00 00	 movss	 xmm0, DWORD PTR [eax+7820]
  000e4	f3 0f 11 45 ec	 movss	 DWORD PTR _blade_pitch$[ebp], xmm0

; 2825 : 
; 2826 : 	Bmax = current_flight_dynamics->main_blade_pitch.max;

  000e9	a1 00 00 00 00	 mov	 eax, DWORD PTR ?current_flight_dynamics@@3PAUDYNAMICS_TYPE@@A ; current_flight_dynamics
  000ee	f3 0f 10 80 98
	1e 00 00	 movss	 xmm0, DWORD PTR [eax+7832]
  000f6	f3 0f 11 45 e4	 movss	 DWORD PTR _Bmax$[ebp], xmm0

; 2827 : 
; 2828 : 	Vmax = (current_flight_dynamics->velocity_x.max + current_flight_dynamics->velocity_z.max);

  000fb	a1 00 00 00 00	 mov	 eax, DWORD PTR ?current_flight_dynamics@@3PAUDYNAMICS_TYPE@@A ; current_flight_dynamics
  00100	8b 0d 00 00 00
	00		 mov	 ecx, DWORD PTR ?current_flight_dynamics@@3PAUDYNAMICS_TYPE@@A ; current_flight_dynamics
  00106	f3 0f 10 80 78
	20 00 00	 movss	 xmm0, DWORD PTR [eax+8312]
  0010e	f3 0f 58 81 a8
	20 00 00	 addss	 xmm0, DWORD PTR [ecx+8360]
  00116	f3 0f 11 45 e8	 movss	 DWORD PTR _Vmax$[ebp], xmm0

; 2829 : 
; 2830 : 	// parasitic drag = square of velocity
; 2831 : 
; 2832 : 	if (total_velocity)

  0011b	f3 0f 10 45 e0	 movss	 xmm0, DWORD PTR _total_velocity$[ebp]
  00120	0f 2e 05 00 00
	00 00		 ucomiss xmm0, DWORD PTR __real@00000000
  00127	9f		 lahf
  00128	f6 c4 44	 test	 ah, 68			; 00000044H
  0012b	0f 8b 89 00 00
	00		 jnp	 $LN2@update_pow

; 2833 : 	{
; 2834 : 
; 2835 : 		current_flight_dynamics->power_parasite.value = (current_flight_dynamics->power_avaliable.value * pow (total_velocity, 2) / pow (Vmax, 2)) / 10;

  00131	6a 02		 push	 2
  00133	51		 push	 ecx
  00134	f3 0f 10 45 e0	 movss	 xmm0, DWORD PTR _total_velocity$[ebp]
  00139	f3 0f 11 04 24	 movss	 DWORD PTR [esp], xmm0
  0013e	e8 00 00 00 00	 call	 ?pow@@YGMMH@Z		; pow
  00143	d9 5d 98	 fstp	 DWORD PTR tv278[ebp]
  00146	a1 00 00 00 00	 mov	 eax, DWORD PTR ?current_flight_dynamics@@3PAUDYNAMICS_TYPE@@A ; current_flight_dynamics
  0014b	f3 0f 10 45 98	 movss	 xmm0, DWORD PTR tv278[ebp]
  00150	f3 0f 59 80 dc
	1f 00 00	 mulss	 xmm0, DWORD PTR [eax+8156]
  00158	6a 02		 push	 2
  0015a	51		 push	 ecx
  0015b	f3 0f 10 4d e8	 movss	 xmm1, DWORD PTR _Vmax$[ebp]
  00160	f3 0f 11 0c 24	 movss	 DWORD PTR [esp], xmm1
  00165	f3 0f 11 45 94	 movss	 DWORD PTR tv334[ebp], xmm0
  0016a	e8 00 00 00 00	 call	 ?pow@@YGMMH@Z		; pow
  0016f	d9 5d 90	 fstp	 DWORD PTR tv286[ebp]
  00172	f3 0f 10 45 94	 movss	 xmm0, DWORD PTR tv334[ebp]
  00177	f3 0f 5e 45 90	 divss	 xmm0, DWORD PTR tv286[ebp]
  0017c	f3 0f 5e 05 00
	00 00 00	 divss	 xmm0, DWORD PTR __real@41200000
  00184	8b 0d 00 00 00
	00		 mov	 ecx, DWORD PTR ?current_flight_dynamics@@3PAUDYNAMICS_TYPE@@A ; current_flight_dynamics
  0018a	f3 0f 11 81 3c
	20 00 00	 movss	 DWORD PTR [ecx+8252], xmm0

; 2836 : 
; 2837 : 		// rotor profile drag = linear from min to max across V
; 2838 : 
; 2839 : 		current_flight_dynamics->power_profile.value = ((profile_max - profile_min) / Vmax) * total_velocity + profile_min;

  00192	f3 0f 10 45 f8	 movss	 xmm0, DWORD PTR _profile_max$[ebp]
  00197	f3 0f 5c 45 fc	 subss	 xmm0, DWORD PTR _profile_min$[ebp]
  0019c	f3 0f 5e 45 e8	 divss	 xmm0, DWORD PTR _Vmax$[ebp]
  001a1	f3 0f 59 45 e0	 mulss	 xmm0, DWORD PTR _total_velocity$[ebp]
  001a6	f3 0f 58 45 fc	 addss	 xmm0, DWORD PTR _profile_min$[ebp]
  001ab	a1 00 00 00 00	 mov	 eax, DWORD PTR ?current_flight_dynamics@@3PAUDYNAMICS_TYPE@@A ; current_flight_dynamics
  001b0	f3 0f 11 80 24
	20 00 00	 movss	 DWORD PTR [eax+8228], xmm0

; 2840 : 	}
; 2841 : 	else

  001b8	eb 22		 jmp	 SHORT $LN3@update_pow
$LN2@update_pow:

; 2842 : 	{
; 2843 : 		current_flight_dynamics->power_parasite.value = 0;

  001ba	a1 00 00 00 00	 mov	 eax, DWORD PTR ?current_flight_dynamics@@3PAUDYNAMICS_TYPE@@A ; current_flight_dynamics
  001bf	0f 57 c0	 xorps	 xmm0, xmm0
  001c2	f3 0f 11 80 3c
	20 00 00	 movss	 DWORD PTR [eax+8252], xmm0

; 2844 : 
; 2845 : 		current_flight_dynamics->power_profile.value = profile_min;

  001ca	a1 00 00 00 00	 mov	 eax, DWORD PTR ?current_flight_dynamics@@3PAUDYNAMICS_TYPE@@A ; current_flight_dynamics
  001cf	f3 0f 10 45 fc	 movss	 xmm0, DWORD PTR _profile_min$[ebp]
  001d4	f3 0f 11 80 24
	20 00 00	 movss	 DWORD PTR [eax+8228], xmm0
$LN3@update_pow:

; 2846 : 	}
; 2847 : 
; 2848 : 	// rotor induced power = linear wrt blade angle
; 2849 : 
; 2850 : 	current_flight_dynamics->power_induced.value = ((induced_max - induced_min) / Bmax) * blade_pitch + induced_min;

  001dc	f3 0f 10 45 f0	 movss	 xmm0, DWORD PTR _induced_max$[ebp]
  001e1	f3 0f 5c 45 f4	 subss	 xmm0, DWORD PTR _induced_min$[ebp]
  001e6	f3 0f 5e 45 e4	 divss	 xmm0, DWORD PTR _Bmax$[ebp]
  001eb	f3 0f 59 45 ec	 mulss	 xmm0, DWORD PTR _blade_pitch$[ebp]
  001f0	f3 0f 58 45 f4	 addss	 xmm0, DWORD PTR _induced_min$[ebp]
  001f5	a1 00 00 00 00	 mov	 eax, DWORD PTR ?current_flight_dynamics@@3PAUDYNAMICS_TYPE@@A ; current_flight_dynamics
  001fa	f3 0f 11 80 0c
	20 00 00	 movss	 DWORD PTR [eax+8204], xmm0

; 2851 : 
; 2852 : //tg
; 2853 : 	// induced power decreases upto 60kts and then increases. 100% @ 0kts -> 50% @ 60 kts-> 100% @ max kts
; 2854 : 
; 2855 : 	if (current_flight_dynamics->velocity_z.value < knots_to_metres_per_second (60.0))

  00202	a1 00 00 00 00	 mov	 eax, DWORD PTR ?current_flight_dynamics@@3PAUDYNAMICS_TYPE@@A ; current_flight_dynamics
  00207	f3 0f 5a 80 9c
	20 00 00	 cvtss2sd xmm0, DWORD PTR [eax+8348]
  0020f	f2 0f 10 0d 00
	00 00 00	 movsd	 xmm1, QWORD PTR __real@403eec14e0000000
  00217	66 0f 2f c8	 comisd	 xmm1, xmm0
  0021b	76 54		 jbe	 SHORT $LN4@update_pow

; 2856 : 	{
; 2857 : 
; 2858 : 		current_flight_dynamics->power_induced.value -= (current_flight_dynamics->power_induced.value / 2.0) * (current_flight_dynamics->velocity_z.value / knots_to_metres_per_second (60.0));

  0021d	a1 00 00 00 00	 mov	 eax, DWORD PTR ?current_flight_dynamics@@3PAUDYNAMICS_TYPE@@A ; current_flight_dynamics
  00222	f3 0f 5a 80 0c
	20 00 00	 cvtss2sd xmm0, DWORD PTR [eax+8204]
  0022a	f2 0f 5e 05 00
	00 00 00	 divsd	 xmm0, QWORD PTR __real@4000000000000000
  00232	8b 0d 00 00 00
	00		 mov	 ecx, DWORD PTR ?current_flight_dynamics@@3PAUDYNAMICS_TYPE@@A ; current_flight_dynamics
  00238	f3 0f 5a 89 9c
	20 00 00	 cvtss2sd xmm1, DWORD PTR [ecx+8348]
  00240	f2 0f 5e 0d 00
	00 00 00	 divsd	 xmm1, QWORD PTR __real@403eec14e0000000
  00248	f2 0f 59 c1	 mulsd	 xmm0, xmm1
  0024c	8b 15 00 00 00
	00		 mov	 edx, DWORD PTR ?current_flight_dynamics@@3PAUDYNAMICS_TYPE@@A ; current_flight_dynamics
  00252	f3 0f 5a 8a 0c
	20 00 00	 cvtss2sd xmm1, DWORD PTR [edx+8204]
  0025a	f2 0f 5c c8	 subsd	 xmm1, xmm0
  0025e	f2 0f 5a c1	 cvtsd2ss xmm0, xmm1
  00262	a1 00 00 00 00	 mov	 eax, DWORD PTR ?current_flight_dynamics@@3PAUDYNAMICS_TYPE@@A ; current_flight_dynamics
  00267	f3 0f 11 80 0c
	20 00 00	 movss	 DWORD PTR [eax+8204], xmm0

; 2859 : 	}
; 2860 : 	else

  0026f	eb 76		 jmp	 SHORT $LN5@update_pow
$LN4@update_pow:

; 2861 : 	{
; 2862 : 
; 2863 : 		current_flight_dynamics->power_induced.value -= (current_flight_dynamics->power_induced.value / 2.0) * ((current_flight_dynamics->velocity_z.max - current_flight_dynamics->velocity_z.value) + knots_to_metres_per_second (60.0)) / (current_flight_dynamics->velocity_z.max);

  00271	a1 00 00 00 00	 mov	 eax, DWORD PTR ?current_flight_dynamics@@3PAUDYNAMICS_TYPE@@A ; current_flight_dynamics
  00276	f3 0f 5a 80 0c
	20 00 00	 cvtss2sd xmm0, DWORD PTR [eax+8204]
  0027e	f2 0f 5e 05 00
	00 00 00	 divsd	 xmm0, QWORD PTR __real@4000000000000000
  00286	8b 0d 00 00 00
	00		 mov	 ecx, DWORD PTR ?current_flight_dynamics@@3PAUDYNAMICS_TYPE@@A ; current_flight_dynamics
  0028c	8b 15 00 00 00
	00		 mov	 edx, DWORD PTR ?current_flight_dynamics@@3PAUDYNAMICS_TYPE@@A ; current_flight_dynamics
  00292	f3 0f 10 89 a8
	20 00 00	 movss	 xmm1, DWORD PTR [ecx+8360]
  0029a	f3 0f 5c 8a 9c
	20 00 00	 subss	 xmm1, DWORD PTR [edx+8348]
  002a2	f3 0f 5a c9	 cvtss2sd xmm1, xmm1
  002a6	f2 0f 58 0d 00
	00 00 00	 addsd	 xmm1, QWORD PTR __real@403eec14e0000000
  002ae	f2 0f 59 c1	 mulsd	 xmm0, xmm1
  002b2	a1 00 00 00 00	 mov	 eax, DWORD PTR ?current_flight_dynamics@@3PAUDYNAMICS_TYPE@@A ; current_flight_dynamics
  002b7	f3 0f 5a 88 a8
	20 00 00	 cvtss2sd xmm1, DWORD PTR [eax+8360]
  002bf	f2 0f 5e c1	 divsd	 xmm0, xmm1
  002c3	8b 0d 00 00 00
	00		 mov	 ecx, DWORD PTR ?current_flight_dynamics@@3PAUDYNAMICS_TYPE@@A ; current_flight_dynamics
  002c9	f3 0f 5a 89 0c
	20 00 00	 cvtss2sd xmm1, DWORD PTR [ecx+8204]
  002d1	f2 0f 5c c8	 subsd	 xmm1, xmm0
  002d5	f2 0f 5a c1	 cvtsd2ss xmm0, xmm1
  002d9	8b 15 00 00 00
	00		 mov	 edx, DWORD PTR ?current_flight_dynamics@@3PAUDYNAMICS_TYPE@@A ; current_flight_dynamics
  002df	f3 0f 11 82 0c
	20 00 00	 movss	 DWORD PTR [edx+8204], xmm0
$LN5@update_pow:

; 2864 : 	}
; 2865 : 
; 2866 : 	current_flight_dynamics->power_required.value = current_flight_dynamics->power_induced.value + current_flight_dynamics->power_profile.value + current_flight_dynamics->power_parasite.value;

  002e7	a1 00 00 00 00	 mov	 eax, DWORD PTR ?current_flight_dynamics@@3PAUDYNAMICS_TYPE@@A ; current_flight_dynamics
  002ec	8b 0d 00 00 00
	00		 mov	 ecx, DWORD PTR ?current_flight_dynamics@@3PAUDYNAMICS_TYPE@@A ; current_flight_dynamics
  002f2	f3 0f 10 80 0c
	20 00 00	 movss	 xmm0, DWORD PTR [eax+8204]
  002fa	f3 0f 58 81 24
	20 00 00	 addss	 xmm0, DWORD PTR [ecx+8228]
  00302	8b 15 00 00 00
	00		 mov	 edx, DWORD PTR ?current_flight_dynamics@@3PAUDYNAMICS_TYPE@@A ; current_flight_dynamics
  00308	f3 0f 58 82 3c
	20 00 00	 addss	 xmm0, DWORD PTR [edx+8252]
  00310	a1 00 00 00 00	 mov	 eax, DWORD PTR ?current_flight_dynamics@@3PAUDYNAMICS_TYPE@@A ; current_flight_dynamics
  00315	f3 0f 11 80 f4
	1f 00 00	 movss	 DWORD PTR [eax+8180], xmm0

; 2867 : 
; 2868 : 	current_flight_dynamics->power_required.value /= 100;

  0031d	a1 00 00 00 00	 mov	 eax, DWORD PTR ?current_flight_dynamics@@3PAUDYNAMICS_TYPE@@A ; current_flight_dynamics
  00322	f3 0f 10 80 f4
	1f 00 00	 movss	 xmm0, DWORD PTR [eax+8180]
  0032a	f3 0f 5e 05 00
	00 00 00	 divss	 xmm0, DWORD PTR __real@42c80000
  00332	8b 0d 00 00 00
	00		 mov	 ecx, DWORD PTR ?current_flight_dynamics@@3PAUDYNAMICS_TYPE@@A ; current_flight_dynamics
  00338	f3 0f 11 81 f4
	1f 00 00	 movss	 DWORD PTR [ecx+8180], xmm0

; 2869 : 
; 2870 : 	current_flight_dynamics->power_required.value *= current_flight_dynamics->power_avaliable.max;

  00340	a1 00 00 00 00	 mov	 eax, DWORD PTR ?current_flight_dynamics@@3PAUDYNAMICS_TYPE@@A ; current_flight_dynamics
  00345	8b 0d 00 00 00
	00		 mov	 ecx, DWORD PTR ?current_flight_dynamics@@3PAUDYNAMICS_TYPE@@A ; current_flight_dynamics
  0034b	f3 0f 10 80 f4
	1f 00 00	 movss	 xmm0, DWORD PTR [eax+8180]
  00353	f3 0f 59 81 e8
	1f 00 00	 mulss	 xmm0, DWORD PTR [ecx+8168]
  0035b	8b 15 00 00 00
	00		 mov	 edx, DWORD PTR ?current_flight_dynamics@@3PAUDYNAMICS_TYPE@@A ; current_flight_dynamics
  00361	f3 0f 11 82 f4
	1f 00 00	 movss	 DWORD PTR [edx+8180], xmm0

; 2871 : 
; 2872 : 	current_flight_dynamics->power_surplus.value = current_flight_dynamics->power_avaliable.value - current_flight_dynamics->power_required.value;

  00369	a1 00 00 00 00	 mov	 eax, DWORD PTR ?current_flight_dynamics@@3PAUDYNAMICS_TYPE@@A ; current_flight_dynamics
  0036e	8b 0d 00 00 00
	00		 mov	 ecx, DWORD PTR ?current_flight_dynamics@@3PAUDYNAMICS_TYPE@@A ; current_flight_dynamics
  00374	f3 0f 10 80 dc
	1f 00 00	 movss	 xmm0, DWORD PTR [eax+8156]
  0037c	f3 0f 5c 81 f4
	1f 00 00	 subss	 xmm0, DWORD PTR [ecx+8180]
  00384	8b 15 00 00 00
	00		 mov	 edx, DWORD PTR ?current_flight_dynamics@@3PAUDYNAMICS_TYPE@@A ; current_flight_dynamics
  0038a	f3 0f 11 82 54
	20 00 00	 movss	 DWORD PTR [edx+8276], xmm0

; 2873 : 
; 2874 : 	current_flight_dynamics->power_surplus.value = max (current_flight_dynamics->power_surplus.value, 0.0f);

  00392	0f 57 c0	 xorps	 xmm0, xmm0
  00395	f3 0f 11 45 9c	 movss	 DWORD PTR $T1[ebp], xmm0
  0039a	8d 45 9c	 lea	 eax, DWORD PTR $T1[ebp]
  0039d	50		 push	 eax
  0039e	8b 0d 00 00 00
	00		 mov	 ecx, DWORD PTR ?current_flight_dynamics@@3PAUDYNAMICS_TYPE@@A ; current_flight_dynamics
  003a4	81 c1 54 20 00
	00		 add	 ecx, 8276		; 00002054H
  003aa	51		 push	 ecx
  003ab	e8 00 00 00 00	 call	 ??$max@M@std@@YGABMABM0@Z ; std::max<float>
  003b0	8b 15 00 00 00
	00		 mov	 edx, DWORD PTR ?current_flight_dynamics@@3PAUDYNAMICS_TYPE@@A ; current_flight_dynamics
  003b6	8b 00		 mov	 eax, DWORD PTR [eax]
  003b8	89 82 54 20 00
	00		 mov	 DWORD PTR [edx+8276], eax

; 2875 : }

  003be	5f		 pop	 edi
  003bf	5e		 pop	 esi
  003c0	5b		 pop	 ebx
  003c1	8b e5		 mov	 esp, ebp
  003c3	5d		 pop	 ebp
  003c4	c3		 ret	 0
?update_power_dynamics@@YGXXZ ENDP			; update_power_dynamics
_TEXT	ENDS
; Function compile flags: /Odtp /ZI
; File c:\users\nhv90\projects\eech\aphavoc\source\gunships\dynamics\hind\hi_dyn.c
;	COMDAT ?update_attitude_dynamics@@YGXXZ
_TEXT	SEGMENT
tv3273 = -752						; size = 8
tv3178 = -752						; size = 8
tv2895 = -752						; size = 8
tv1943 = -752						; size = 8
tv1862 = -752						; size = 8
tv1779 = -752						; size = 8
tv1696 = -752						; size = 8
tv1613 = -752						; size = 8
tv1529 = -752						; size = 8
tv1408 = -752						; size = 8
tv1273 = -752						; size = 8
tv1128 = -752						; size = 8
tv1037 = -752						; size = 8
tv395 = -752						; size = 8
tv3300 = -748						; size = 4
tv3239 = -748						; size = 4
tv85 = -748						; size = 4
tv3766 = -744						; size = 4
tv3764 = -744						; size = 8
tv3762 = -744						; size = 4
tv3760 = -744						; size = 8
tv3758 = -744						; size = 8
tv3754 = -744						; size = 8
tv3704 = -744						; size = 8
tv3327 = -744						; size = 8
tv3105 = -744						; size = 8
tv3014 = -744						; size = 8
tv2976 = -744						; size = 4
tv2920 = -744						; size = 8
tv2909 = -744						; size = 8
tv2816 = -744						; size = 8
tv2807 = -744						; size = 8
tv2632 = -744						; size = 8
tv1944 = -744						; size = 8
tv1863 = -744						; size = 8
tv1780 = -744						; size = 8
tv1697 = -744						; size = 8
tv1614 = -744						; size = 8
tv1530 = -744						; size = 8
tv1409 = -744						; size = 8
tv1274 = -744						; size = 8
tv1129 = -744						; size = 8
tv1084 = -744						; size = 4
tv1038 = -744						; size = 8
tv396 = -744						; size = 8
tv377 = -744						; size = 4
tv273 = -744						; size = 4
tv251 = -744						; size = 4
tv206 = -744						; size = 4
tv78 = -744						; size = 4
tv3756 = -740						; size = 4
tv3660 = -740						; size = 4
tv3640 = -740						; size = 4
tv3633 = -740						; size = 4
tv3627 = -740						; size = 4
tv3606 = -740						; size = 4
tv3579 = -740						; size = 4
tv3543 = -740						; size = 4
tv3516 = -740						; size = 4
tv3480 = -740						; size = 4
tv3453 = -740						; size = 4
tv3417 = -740						; size = 4
tv3390 = -740						; size = 4
tv3348 = -740						; size = 4
tv3290 = -740						; size = 4
tv3229 = -740						; size = 4
tv3207 = -740						; size = 4
tv2790 = -740						; size = 4
tv1085 = -740						; size = 4
tv370 = -740						; size = 4
tv288 = -740						; size = 4
tv265 = -740						; size = 4
tv243 = -740						; size = 4
tv199 = -740						; size = 4
tv92 = -740						; size = 4
tv70 = -740						; size = 4
$T1 = -736						; size = 4
$T2 = -732						; size = 4
$T3 = -728						; size = 4
$T4 = -724						; size = 4
$T5 = -720						; size = 4
$T6 = -716						; size = 4
$T7 = -712						; size = 4
$T8 = -708						; size = 4
$T9 = -704						; size = 4
$T10 = -700						; size = 8
$T11 = -692						; size = 8
$T12 = -684						; size = 4
$T13 = -680						; size = 8
$T14 = -672						; size = 8
$T15 = -664						; size = 8
$T16 = -656						; size = 8
_position$17 = -520					; size = 12
_direction$18 = -508					; size = 12
_force$19 = -496					; size = 4
_velocity_factor$20 = -492				; size = 4
_vibration_limit$21 = -488				; size = 4
_air_over_rotor$22 = -484				; size = 4
_tuning_value$23 = -480					; size = 4
_tuning_value$24 = -476					; size = 4
_tuning_value$25 = -472					; size = 4
_tuning_value$26 = -468					; size = 4
_over_all_g_e_force$27 = -464				; size = 4
_world_position$28 = -460				; size = 12
_terrain_info$29 = -448					; size = 44
_altitude$30 = -404					; size = 4
_Fmax$31 = -400						; size = 4
_sideways_drag$32 = -396				; size = 4
_drag$33 = -392						; size = 4
_Fmax$34 = -388						; size = 4
_drag$35 = -384						; size = 4
_sign$36 = -380						; size = 4
_drag$37 = -376						; size = 4
_a$38 = -372						; size = 4
_unnormalised_direction$39 = -368			; size = 12
_drag$40 = -356						; size = 4
_scaling$41 = -352					; size = 4
_a$42 = -348						; size = 4
_rotor_drag$43 = -344					; size = 4
_rotor_induced$44 = -340				; size = 4
_rotor_parasitic$45 = -336				; size = 4
_rotor_friction$46 = -332				; size = 4
_u$47 = -328						; size = 4
_a$48 = -324						; size = 4
_blade_pitch$49 = -320					; size = 4
_engine_response$50 = -316				; size = 4
_i$51 = -312						; size = 4
_p$52 = -308						; size = 4
_f$53 = -304						; size = 4
_normalised_world_motion_vector$54 = -300		; size = 12
_motion_vector_pitch$55 = -288				; size = 4
_vel$56 = -284						; size = 4
_force$57 = -280					; size = 4
_normalised_model_motion_vector$58 = -276		; size = 12
_position$59 = -264					; size = 12
_wind$60 = -252						; size = 12
_temp_model_motion_vector$61 = -240			; size = 12
_mass_percentage$62 = -228				; size = 4
_model_motion_vector$ = -224				; size = 12
_world_motion_vector$ = -212				; size = 12
_direction$ = -200					; size = 12
_position$ = -188					; size = 12
_model_wind$ = -176					; size = 12
_wind$ = -164						; size = 12
_main_blade_pitch_value$ = -152				; size = 4
_horizontal_velocity$ = -148				; size = 4
_velocity_z_value$ = -144				; size = 4
_main_blade_y_pitch_value$ = -140			; size = 4
_main_blade_x_pitch_value$ = -136			; size = 4
_pitch_value$ = -132					; size = 4
_roll_inertia_value$ = -128				; size = 4
_pitch_inertia_value$ = -124				; size = 4
_heading_inertia_value$ = -120				; size = 4
_tail_rotor_induced_air_value$ = -116			; size = 4
_main_rotor_roll_angle_value$ = -112			; size = 4
_main_rotor_rpm_value$ = -108				; size = 4
_main_rotor_pitch_angle_value$ = -104			; size = 4
_main_rotor_induced_air_value$ = -100			; size = 4
_tail_angular_force$ = -96				; size = 4
_main_angular_force$ = -92				; size = 4
_reaction_force$ = -88					; size = 4
_right_rotor_force$ = -84				; size = 4
_left_rotor_force$ = -80				; size = 4
_back_rotor_force$ = -76				; size = 4
_front_rotor_force$ = -72				; size = 4
_rotor_force$ = -68					; size = 4
_force$ = -64						; size = 4
_edge_rotor_split$ = -60				; size = 4
_rotor_split$ = -56					; size = 4
_motion_vector_magnitude$ = -52				; size = 4
_rotor_edge_value$ = -48				; size = 4
_angle$ = -44						; size = 4
_attitude$ = -40					; size = 36
_model_landed$ = -4					; size = 4
?update_attitude_dynamics@@YGXXZ PROC			; update_attitude_dynamics, COMDAT

; 1288 : {

  00000	55		 push	 ebp
  00001	8b ec		 mov	 ebp, esp
  00003	81 ec f0 02 00
	00		 sub	 esp, 752		; 000002f0H
  00009	53		 push	 ebx
  0000a	56		 push	 esi
  0000b	57		 push	 edi

; 1289 : 
; 1290 : 	int
; 1291 : 		model_landed;
; 1292 : 
; 1293 : 	matrix3x3
; 1294 : 		attitude;
; 1295 : 
; 1296 : 	float
; 1297 : 		angle,
; 1298 : 		rotor_edge_value,
; 1299 : 		motion_vector_magnitude,
; 1300 : 		rotor_split,
; 1301 : 		edge_rotor_split,
; 1302 : 		force,
; 1303 : 		rotor_force,
; 1304 : 		front_rotor_force,
; 1305 : 		back_rotor_force,
; 1306 : 		left_rotor_force,
; 1307 : 		right_rotor_force,
; 1308 : 		reaction_force,
; 1309 : 		main_angular_force,
; 1310 : 		tail_angular_force;
; 1311 : 
; 1312 : 	float
; 1313 : 		main_rotor_induced_air_value,
; 1314 : 		main_rotor_pitch_angle_value,
; 1315 : 		main_rotor_rpm_value,
; 1316 : 		main_rotor_roll_angle_value,
; 1317 : 		tail_rotor_induced_air_value,
; 1318 : 		heading_inertia_value,
; 1319 : 		pitch_inertia_value,
; 1320 : 		roll_inertia_value,
; 1321 : 		pitch_value,
; 1322 : 		main_blade_x_pitch_value,
; 1323 : 		main_blade_y_pitch_value,
; 1324 : 		velocity_z_value,
; 1325 : 		horizontal_velocity,
; 1326 : 		main_blade_pitch_value;
; 1327 : 
; 1328 : 	vec3d
; 1329 : 		wind,
; 1330 : 		model_wind,
; 1331 : 		position,
; 1332 : 		direction,
; 1333 : 		world_motion_vector,
; 1334 : 		model_motion_vector;
; 1335 : 
; 1336 : 	model_landed = !get_local_entity_int_value (get_gunship_entity (), INT_TYPE_AIRBORNE_AIRCRAFT);

  0000c	83 3d 00 00 00
	00 00		 cmp	 DWORD PTR ?gunship_entity@@3PAUENTITY@@A, 0 ; gunship_entity
  00013	74 0f		 je	 SHORT $LN88@update_att
  00015	a1 00 00 00 00	 mov	 eax, DWORD PTR ?gunship_entity@@3PAUENTITY@@A ; gunship_entity
  0001a	8b 08		 mov	 ecx, DWORD PTR [eax]
  0001c	89 8d 1c fd ff
	ff		 mov	 DWORD PTR tv70[ebp], ecx
  00022	eb 24		 jmp	 SHORT $LN89@update_att
$LN88@update_att:
  00024	8b 15 00 00 00
	00		 mov	 edx, DWORD PTR ?__LINE__Var@?0??update_attitude_dynamics@@YGXXZ@4JA
  0002a	83 c2 30	 add	 edx, 48			; 00000030H
  0002d	52		 push	 edx
  0002e	68 00 00 00 00	 push	 OFFSET ??_C@_0EM@BHCFJHIE@c?3?2users?2nhv90?2projects?2eech?2ap@
  00033	a1 00 00 00 00	 mov	 eax, DWORD PTR ?null_entity_pointer_message@@3PBDB ; null_entity_pointer_message
  00038	50		 push	 eax
  00039	e8 00 00 00 00	 call	 ?process_assert@@YGXPBD0H@Z ; process_assert
  0003e	c7 85 1c fd ff
	ff 00 00 00 00	 mov	 DWORD PTR tv70[ebp], 0
$LN89@update_att:
  00048	b9 01 00 00 00	 mov	 ecx, 1
  0004d	85 c9		 test	 ecx, ecx
  0004f	74 0c		 je	 SHORT $LN90@update_att
  00051	c7 85 18 fd ff
	ff 04 00 00 00	 mov	 DWORD PTR tv78[ebp], 4
  0005b	eb 24		 jmp	 SHORT $LN91@update_att
$LN90@update_att:
  0005d	8b 15 00 00 00
	00		 mov	 edx, DWORD PTR ?__LINE__Var@?0??update_attitude_dynamics@@YGXXZ@4JA
  00063	83 c2 30	 add	 edx, 48			; 00000030H
  00066	52		 push	 edx
  00067	68 00 00 00 00	 push	 OFFSET ??_C@_0EM@BHCFJHIE@c?3?2users?2nhv90?2projects?2eech?2ap@
  0006c	a1 00 00 00 00	 mov	 eax, DWORD PTR ?overload_invalid_int_type_message@@3PBDB ; overload_invalid_int_type_message
  00071	50		 push	 eax
  00072	e8 00 00 00 00	 call	 ?process_assert@@YGXPBD0H@Z ; process_assert
  00077	c7 85 18 fd ff
	ff 00 00 00 00	 mov	 DWORD PTR tv78[ebp], 0
$LN91@update_att:
  00081	6a 04		 push	 4
  00083	8b 0d 00 00 00
	00		 mov	 ecx, DWORD PTR ?gunship_entity@@3PAUENTITY@@A ; gunship_entity
  00089	51		 push	 ecx
  0008a	69 95 1c fd ff
	ff 5c 04 00 00	 imul	 edx, DWORD PTR tv70[ebp], 1116
  00094	8b 85 18 fd ff
	ff		 mov	 eax, DWORD PTR tv78[ebp]
  0009a	8b 8c 82 00 00
	00 00		 mov	 ecx, DWORD PTR ?fn_get_local_entity_int_value@@3PAY0BBH@P6GHPAUENTITY@@W4INT_TYPES@@@ZA[edx+eax*4]
  000a1	ff d1		 call	 ecx
  000a3	85 c0		 test	 eax, eax
  000a5	75 0c		 jne	 SHORT $LN92@update_att
  000a7	c7 85 14 fd ff
	ff 01 00 00 00	 mov	 DWORD PTR tv85[ebp], 1
  000b1	eb 0a		 jmp	 SHORT $LN93@update_att
$LN92@update_att:
  000b3	c7 85 14 fd ff
	ff 00 00 00 00	 mov	 DWORD PTR tv85[ebp], 0
$LN93@update_att:
  000bd	8b 95 14 fd ff
	ff		 mov	 edx, DWORD PTR tv85[ebp]
  000c3	89 55 fc	 mov	 DWORD PTR _model_landed$[ebp], edx

; 1337 : 
; 1338 : 	get_local_entity_attitude_matrix (get_gunship_entity (), attitude);

  000c6	83 3d 00 00 00
	00 00		 cmp	 DWORD PTR ?gunship_entity@@3PAUENTITY@@A, 0 ; gunship_entity
  000cd	74 0f		 je	 SHORT $LN94@update_att
  000cf	a1 00 00 00 00	 mov	 eax, DWORD PTR ?gunship_entity@@3PAUENTITY@@A ; gunship_entity
  000d4	8b 08		 mov	 ecx, DWORD PTR [eax]
  000d6	89 8d 1c fd ff
	ff		 mov	 DWORD PTR tv92[ebp], ecx
  000dc	eb 24		 jmp	 SHORT $LN95@update_att
$LN94@update_att:
  000de	8b 15 00 00 00
	00		 mov	 edx, DWORD PTR ?__LINE__Var@?0??update_attitude_dynamics@@YGXXZ@4JA
  000e4	83 c2 32	 add	 edx, 50			; 00000032H
  000e7	52		 push	 edx
  000e8	68 00 00 00 00	 push	 OFFSET ??_C@_0EM@BHCFJHIE@c?3?2users?2nhv90?2projects?2eech?2ap@
  000ed	a1 00 00 00 00	 mov	 eax, DWORD PTR ?null_entity_pointer_message@@3PBDB ; null_entity_pointer_message
  000f2	50		 push	 eax
  000f3	e8 00 00 00 00	 call	 ?process_assert@@YGXPBD0H@Z ; process_assert
  000f8	c7 85 1c fd ff
	ff 00 00 00 00	 mov	 DWORD PTR tv92[ebp], 0
$LN95@update_att:
  00102	8d 4d d8	 lea	 ecx, DWORD PTR _attitude$[ebp]
  00105	51		 push	 ecx
  00106	8b 15 00 00 00
	00		 mov	 edx, DWORD PTR ?gunship_entity@@3PAUENTITY@@A ; gunship_entity
  0010c	52		 push	 edx
  0010d	8b 85 1c fd ff
	ff		 mov	 eax, DWORD PTR tv92[ebp]
  00113	8b 0c 85 00 00
	00 00		 mov	 ecx, DWORD PTR ?fn_get_local_entity_attitude_matrix@@3PAP6GXPAUENTITY@@QAY02M@ZA[eax*4]
  0011a	ff d1		 call	 ecx

; 1339 : 
; 1340 : 	world_motion_vector = current_flight_dynamics->world_motion_vector;

  0011c	a1 00 00 00 00	 mov	 eax, DWORD PTR ?current_flight_dynamics@@3PAUDYNAMICS_TYPE@@A ; current_flight_dynamics
  00121	05 3c 1c 00 00	 add	 eax, 7228		; 00001c3cH
  00126	8b 08		 mov	 ecx, DWORD PTR [eax]
  00128	89 8d 2c ff ff
	ff		 mov	 DWORD PTR _world_motion_vector$[ebp], ecx
  0012e	8b 50 04	 mov	 edx, DWORD PTR [eax+4]
  00131	89 95 30 ff ff
	ff		 mov	 DWORD PTR _world_motion_vector$[ebp+4], edx
  00137	8b 40 08	 mov	 eax, DWORD PTR [eax+8]
  0013a	89 85 34 ff ff
	ff		 mov	 DWORD PTR _world_motion_vector$[ebp+8], eax

; 1341 : 
; 1342 : 	model_motion_vector = current_flight_dynamics->model_motion_vector;

  00140	a1 00 00 00 00	 mov	 eax, DWORD PTR ?current_flight_dynamics@@3PAUDYNAMICS_TYPE@@A ; current_flight_dynamics
  00145	05 30 1c 00 00	 add	 eax, 7216		; 00001c30H
  0014a	8b 08		 mov	 ecx, DWORD PTR [eax]
  0014c	89 8d 20 ff ff
	ff		 mov	 DWORD PTR _model_motion_vector$[ebp], ecx
  00152	8b 50 04	 mov	 edx, DWORD PTR [eax+4]
  00155	89 95 24 ff ff
	ff		 mov	 DWORD PTR _model_motion_vector$[ebp+4], edx
  0015b	8b 40 08	 mov	 eax, DWORD PTR [eax+8]
  0015e	89 85 28 ff ff
	ff		 mov	 DWORD PTR _model_motion_vector$[ebp+8], eax

; 1343 : 
; 1344 : 	//
; 1345 : 	// allow for wind
; 1346 : 	//
; 1347 : 
; 1348 : 	position.x = current_flight_dynamics->position.x;

  00164	a1 00 00 00 00	 mov	 eax, DWORD PTR ?current_flight_dynamics@@3PAUDYNAMICS_TYPE@@A ; current_flight_dynamics
  00169	f2 0f 5a 80 ac
	00 00 00	 cvtsd2ss xmm0, QWORD PTR [eax+172]
  00171	f3 0f 11 85 44
	ff ff ff	 movss	 DWORD PTR _position$[ebp], xmm0

; 1349 : 	position.y = current_flight_dynamics->position.y;

  00179	a1 00 00 00 00	 mov	 eax, DWORD PTR ?current_flight_dynamics@@3PAUDYNAMICS_TYPE@@A ; current_flight_dynamics
  0017e	f2 0f 5a 80 b4
	00 00 00	 cvtsd2ss xmm0, QWORD PTR [eax+180]
  00186	f3 0f 11 85 48
	ff ff ff	 movss	 DWORD PTR _position$[ebp+4], xmm0

; 1350 : 	position.z = current_flight_dynamics->position.z;

  0018e	a1 00 00 00 00	 mov	 eax, DWORD PTR ?current_flight_dynamics@@3PAUDYNAMICS_TYPE@@A ; current_flight_dynamics
  00193	f2 0f 5a 80 bc
	00 00 00	 cvtsd2ss xmm0, QWORD PTR [eax+188]
  0019b	f3 0f 11 85 4c
	ff ff ff	 movss	 DWORD PTR _position$[ebp+8], xmm0

; 1351 : 
; 1352 : 	if (get_current_dynamics_options (DYNAMICS_OPTIONS_WIND))

  001a3	6a 0c		 push	 12			; 0000000cH
  001a5	e8 00 00 00 00	 call	 ?get_current_dynamics_options@@YGHW4DYNAMICS_OPTIONS_TYPES@@@Z ; get_current_dynamics_options
  001aa	85 c0		 test	 eax, eax
  001ac	0f 84 c5 00 00
	00		 je	 $LN2@update_att

; 1353 : 	{
; 1354 : 
; 1355 : 		get_session_wind_velocity_at_point (&position, &wind);

  001b2	8d 85 5c ff ff
	ff		 lea	 eax, DWORD PTR _wind$[ebp]
  001b8	50		 push	 eax
  001b9	8d 8d 44 ff ff
	ff		 lea	 ecx, DWORD PTR _position$[ebp]
  001bf	51		 push	 ecx
  001c0	e8 00 00 00 00	 call	 ?get_session_wind_velocity_at_point@@YGMPAUVEC3D@@0@Z ; get_session_wind_velocity_at_point
  001c5	dd d8		 fstp	 ST(0)

; 1356 : 
; 1357 : 		multiply_matrix3x3_vec3d (&model_wind, current_flight_dynamics->attitude, &wind);

  001c7	8d 85 5c ff ff
	ff		 lea	 eax, DWORD PTR _wind$[ebp]
  001cd	50		 push	 eax
  001ce	8b 0d 00 00 00
	00		 mov	 ecx, DWORD PTR ?current_flight_dynamics@@3PAUDYNAMICS_TYPE@@A ; current_flight_dynamics
  001d4	81 c1 d0 00 00
	00		 add	 ecx, 208		; 000000d0H
  001da	51		 push	 ecx
  001db	8d 95 50 ff ff
	ff		 lea	 edx, DWORD PTR _model_wind$[ebp]
  001e1	52		 push	 edx
  001e2	e8 00 00 00 00	 call	 ?multiply_matrix3x3_vec3d@@YGXPAUVEC3D@@QAY02$$CBMPBU1@@Z ; multiply_matrix3x3_vec3d

; 1358 : 
; 1359 : 		world_motion_vector.x -= wind.x;

  001e7	f3 0f 10 85 2c
	ff ff ff	 movss	 xmm0, DWORD PTR _world_motion_vector$[ebp]
  001ef	f3 0f 5c 85 5c
	ff ff ff	 subss	 xmm0, DWORD PTR _wind$[ebp]
  001f7	f3 0f 11 85 2c
	ff ff ff	 movss	 DWORD PTR _world_motion_vector$[ebp], xmm0

; 1360 : 		world_motion_vector.y -= wind.y;

  001ff	f3 0f 10 85 30
	ff ff ff	 movss	 xmm0, DWORD PTR _world_motion_vector$[ebp+4]
  00207	f3 0f 5c 85 60
	ff ff ff	 subss	 xmm0, DWORD PTR _wind$[ebp+4]
  0020f	f3 0f 11 85 30
	ff ff ff	 movss	 DWORD PTR _world_motion_vector$[ebp+4], xmm0

; 1361 : 		world_motion_vector.z -= wind.z;

  00217	f3 0f 10 85 34
	ff ff ff	 movss	 xmm0, DWORD PTR _world_motion_vector$[ebp+8]
  0021f	f3 0f 5c 85 64
	ff ff ff	 subss	 xmm0, DWORD PTR _wind$[ebp+8]
  00227	f3 0f 11 85 34
	ff ff ff	 movss	 DWORD PTR _world_motion_vector$[ebp+8], xmm0

; 1362 : 
; 1363 : 		model_motion_vector.x -= model_wind.x;

  0022f	f3 0f 10 85 20
	ff ff ff	 movss	 xmm0, DWORD PTR _model_motion_vector$[ebp]
  00237	f3 0f 5c 85 50
	ff ff ff	 subss	 xmm0, DWORD PTR _model_wind$[ebp]
  0023f	f3 0f 11 85 20
	ff ff ff	 movss	 DWORD PTR _model_motion_vector$[ebp], xmm0

; 1364 : 		model_motion_vector.y -= model_wind.y;

  00247	f3 0f 10 85 24
	ff ff ff	 movss	 xmm0, DWORD PTR _model_motion_vector$[ebp+4]
  0024f	f3 0f 5c 85 54
	ff ff ff	 subss	 xmm0, DWORD PTR _model_wind$[ebp+4]
  00257	f3 0f 11 85 24
	ff ff ff	 movss	 DWORD PTR _model_motion_vector$[ebp+4], xmm0

; 1365 : 		model_motion_vector.z -= model_wind.z;

  0025f	f3 0f 10 85 28
	ff ff ff	 movss	 xmm0, DWORD PTR _model_motion_vector$[ebp+8]
  00267	f3 0f 5c 85 58
	ff ff ff	 subss	 xmm0, DWORD PTR _model_wind$[ebp+8]
  0026f	f3 0f 11 85 28
	ff ff ff	 movss	 DWORD PTR _model_motion_vector$[ebp+8], xmm0
$LN2@update_att:

; 1366 : 	}
; 1367 : 
; 1368 : 	motion_vector_magnitude = get_3d_vector_magnitude (&current_flight_dynamics->model_motion_vector);

  00277	a1 00 00 00 00	 mov	 eax, DWORD PTR ?current_flight_dynamics@@3PAUDYNAMICS_TYPE@@A ; current_flight_dynamics
  0027c	05 30 1c 00 00	 add	 eax, 7216		; 00001c30H
  00281	50		 push	 eax
  00282	e8 00 00 00 00	 call	 ?get_3d_vector_magnitude@@YGMPBUVEC3D@@@Z ; get_3d_vector_magnitude
  00287	d9 5d cc	 fstp	 DWORD PTR _motion_vector_magnitude$[ebp]

; 1369 : 
; 1370 : 	//////////////////////////////////////////////////////////
; 1371 : 	// safey check
; 1372 : 	//////////////////////////////////////////////////////////
; 1373 : 	if (motion_vector_magnitude > 1000)

  0028a	f3 0f 10 45 cc	 movss	 xmm0, DWORD PTR _motion_vector_magnitude$[ebp]
  0028f	0f 2f 05 00 00
	00 00		 comiss	 xmm0, DWORD PTR __real@447a0000
  00296	0f 86 1c 03 00
	00		 jbe	 $LN3@update_att

; 1374 : 	{
; 1375 : 
; 1376 : 		debug_log ("DYNAMICS: UNSTABLE");

  0029c	68 00 00 00 00	 push	 OFFSET ??_C@_0BD@EHBODOFB@DYNAMICS?3?5UNSTABLE@
  002a1	e8 00 00 00 00	 call	 ?debug_log@@YAXPBDZZ	; debug_log
  002a6	83 c4 04	 add	 esp, 4

; 1377 : 
; 1378 : 		if (get_local_entity_int_value (get_gunship_entity (), INT_TYPE_ALIVE))

  002a9	83 3d 00 00 00
	00 00		 cmp	 DWORD PTR ?gunship_entity@@3PAUENTITY@@A, 0 ; gunship_entity
  002b0	74 0f		 je	 SHORT $LN96@update_att
  002b2	a1 00 00 00 00	 mov	 eax, DWORD PTR ?gunship_entity@@3PAUENTITY@@A ; gunship_entity
  002b7	8b 08		 mov	 ecx, DWORD PTR [eax]
  002b9	89 8d 1c fd ff
	ff		 mov	 DWORD PTR tv199[ebp], ecx
  002bf	eb 20		 jmp	 SHORT $LN97@update_att
$LN96@update_att:
  002c1	68 62 05 00 00	 push	 1378			; 00000562H
  002c6	68 00 00 00 00	 push	 OFFSET ??_C@_0EM@BHCFJHIE@c?3?2users?2nhv90?2projects?2eech?2ap@
  002cb	8b 15 00 00 00
	00		 mov	 edx, DWORD PTR ?null_entity_pointer_message@@3PBDB ; null_entity_pointer_message
  002d1	52		 push	 edx
  002d2	e8 00 00 00 00	 call	 ?process_assert@@YGXPBD0H@Z ; process_assert
  002d7	c7 85 1c fd ff
	ff 00 00 00 00	 mov	 DWORD PTR tv199[ebp], 0
$LN97@update_att:
  002e1	b8 01 00 00 00	 mov	 eax, 1
  002e6	85 c0		 test	 eax, eax
  002e8	74 0c		 je	 SHORT $LN98@update_att
  002ea	c7 85 18 fd ff
	ff 07 00 00 00	 mov	 DWORD PTR tv206[ebp], 7
  002f4	eb 20		 jmp	 SHORT $LN99@update_att
$LN98@update_att:
  002f6	68 62 05 00 00	 push	 1378			; 00000562H
  002fb	68 00 00 00 00	 push	 OFFSET ??_C@_0EM@BHCFJHIE@c?3?2users?2nhv90?2projects?2eech?2ap@
  00300	8b 0d 00 00 00
	00		 mov	 ecx, DWORD PTR ?overload_invalid_int_type_message@@3PBDB ; overload_invalid_int_type_message
  00306	51		 push	 ecx
  00307	e8 00 00 00 00	 call	 ?process_assert@@YGXPBD0H@Z ; process_assert
  0030c	c7 85 18 fd ff
	ff 00 00 00 00	 mov	 DWORD PTR tv206[ebp], 0
$LN99@update_att:
  00316	6a 07		 push	 7
  00318	8b 15 00 00 00
	00		 mov	 edx, DWORD PTR ?gunship_entity@@3PAUENTITY@@A ; gunship_entity
  0031e	52		 push	 edx
  0031f	69 85 1c fd ff
	ff 5c 04 00 00	 imul	 eax, DWORD PTR tv199[ebp], 1116
  00329	8b 8d 18 fd ff
	ff		 mov	 ecx, DWORD PTR tv206[ebp]
  0032f	8b 94 88 00 00
	00 00		 mov	 edx, DWORD PTR ?fn_get_local_entity_int_value@@3PAY0BBH@P6GHPAUENTITY@@W4INT_TYPES@@@ZA[eax+ecx*4]
  00336	ff d2		 call	 edx
  00338	85 c0		 test	 eax, eax
  0033a	0f 84 73 02 00
	00		 je	 $LN4@update_att

; 1379 : 		{
; 1380 : 
; 1381 : 			current_flight_dynamics->model_motion_vector.x = 0.0;

  00340	a1 00 00 00 00	 mov	 eax, DWORD PTR ?current_flight_dynamics@@3PAUDYNAMICS_TYPE@@A ; current_flight_dynamics
  00345	0f 57 c0	 xorps	 xmm0, xmm0
  00348	f3 0f 11 80 30
	1c 00 00	 movss	 DWORD PTR [eax+7216], xmm0

; 1382 : 			current_flight_dynamics->model_motion_vector.y = 0.0;

  00350	a1 00 00 00 00	 mov	 eax, DWORD PTR ?current_flight_dynamics@@3PAUDYNAMICS_TYPE@@A ; current_flight_dynamics
  00355	0f 57 c0	 xorps	 xmm0, xmm0
  00358	f3 0f 11 80 34
	1c 00 00	 movss	 DWORD PTR [eax+7220], xmm0

; 1383 : 			current_flight_dynamics->model_motion_vector.z = 0.0;

  00360	a1 00 00 00 00	 mov	 eax, DWORD PTR ?current_flight_dynamics@@3PAUDYNAMICS_TYPE@@A ; current_flight_dynamics
  00365	0f 57 c0	 xorps	 xmm0, xmm0
  00368	f3 0f 11 80 38
	1c 00 00	 movss	 DWORD PTR [eax+7224], xmm0

; 1384 : 
; 1385 : 			current_flight_dynamics->model_acceleration_vector.x = 0.0;

  00370	a1 00 00 00 00	 mov	 eax, DWORD PTR ?current_flight_dynamics@@3PAUDYNAMICS_TYPE@@A ; current_flight_dynamics
  00375	0f 57 c0	 xorps	 xmm0, xmm0
  00378	f3 0f 11 80 48
	1c 00 00	 movss	 DWORD PTR [eax+7240], xmm0

; 1386 : 			current_flight_dynamics->model_acceleration_vector.y = 0.0;

  00380	a1 00 00 00 00	 mov	 eax, DWORD PTR ?current_flight_dynamics@@3PAUDYNAMICS_TYPE@@A ; current_flight_dynamics
  00385	0f 57 c0	 xorps	 xmm0, xmm0
  00388	f3 0f 11 80 4c
	1c 00 00	 movss	 DWORD PTR [eax+7244], xmm0

; 1387 : 			current_flight_dynamics->model_acceleration_vector.z = 0.0;

  00390	a1 00 00 00 00	 mov	 eax, DWORD PTR ?current_flight_dynamics@@3PAUDYNAMICS_TYPE@@A ; current_flight_dynamics
  00395	0f 57 c0	 xorps	 xmm0, xmm0
  00398	f3 0f 11 80 50
	1c 00 00	 movss	 DWORD PTR [eax+7248], xmm0

; 1388 : 
; 1389 : 			current_flight_dynamics->world_motion_vector.x = 0.0;

  003a0	a1 00 00 00 00	 mov	 eax, DWORD PTR ?current_flight_dynamics@@3PAUDYNAMICS_TYPE@@A ; current_flight_dynamics
  003a5	0f 57 c0	 xorps	 xmm0, xmm0
  003a8	f3 0f 11 80 3c
	1c 00 00	 movss	 DWORD PTR [eax+7228], xmm0

; 1390 : 			current_flight_dynamics->world_motion_vector.y = 0.0;

  003b0	a1 00 00 00 00	 mov	 eax, DWORD PTR ?current_flight_dynamics@@3PAUDYNAMICS_TYPE@@A ; current_flight_dynamics
  003b5	0f 57 c0	 xorps	 xmm0, xmm0
  003b8	f3 0f 11 80 40
	1c 00 00	 movss	 DWORD PTR [eax+7232], xmm0

; 1391 : 			current_flight_dynamics->world_motion_vector.z = 0.0;

  003c0	a1 00 00 00 00	 mov	 eax, DWORD PTR ?current_flight_dynamics@@3PAUDYNAMICS_TYPE@@A ; current_flight_dynamics
  003c5	0f 57 c0	 xorps	 xmm0, xmm0
  003c8	f3 0f 11 80 44
	1c 00 00	 movss	 DWORD PTR [eax+7236], xmm0

; 1392 : 
; 1393 : 			current_flight_dynamics->world_acceleration_vector.x = 0.0;

  003d0	a1 00 00 00 00	 mov	 eax, DWORD PTR ?current_flight_dynamics@@3PAUDYNAMICS_TYPE@@A ; current_flight_dynamics
  003d5	0f 57 c0	 xorps	 xmm0, xmm0
  003d8	f3 0f 11 80 54
	1c 00 00	 movss	 DWORD PTR [eax+7252], xmm0

; 1394 : 			current_flight_dynamics->world_acceleration_vector.y = 0.0;

  003e0	a1 00 00 00 00	 mov	 eax, DWORD PTR ?current_flight_dynamics@@3PAUDYNAMICS_TYPE@@A ; current_flight_dynamics
  003e5	0f 57 c0	 xorps	 xmm0, xmm0
  003e8	f3 0f 11 80 58
	1c 00 00	 movss	 DWORD PTR [eax+7256], xmm0

; 1395 : 			current_flight_dynamics->world_acceleration_vector.z = 0.0;

  003f0	a1 00 00 00 00	 mov	 eax, DWORD PTR ?current_flight_dynamics@@3PAUDYNAMICS_TYPE@@A ; current_flight_dynamics
  003f5	0f 57 c0	 xorps	 xmm0, xmm0
  003f8	f3 0f 11 80 5c
	1c 00 00	 movss	 DWORD PTR [eax+7260], xmm0

; 1396 : 
; 1397 : 			set_client_server_entity_float_value (get_gunship_entity (), FLOAT_TYPE_VELOCITY, 0.0);

  00400	83 3d 00 00 00
	00 00		 cmp	 DWORD PTR ?gunship_entity@@3PAUENTITY@@A, 0 ; gunship_entity
  00407	74 0f		 je	 SHORT $LN100@update_att
  00409	a1 00 00 00 00	 mov	 eax, DWORD PTR ?gunship_entity@@3PAUENTITY@@A ; gunship_entity
  0040e	8b 08		 mov	 ecx, DWORD PTR [eax]
  00410	89 8d 1c fd ff
	ff		 mov	 DWORD PTR tv243[ebp], ecx
  00416	eb 24		 jmp	 SHORT $LN101@update_att
$LN100@update_att:
  00418	8b 15 00 00 00
	00		 mov	 edx, DWORD PTR ?__LINE__Var@?0??update_attitude_dynamics@@YGXXZ@4JA
  0041e	83 c2 6d	 add	 edx, 109		; 0000006dH
  00421	52		 push	 edx
  00422	68 00 00 00 00	 push	 OFFSET ??_C@_0EM@BHCFJHIE@c?3?2users?2nhv90?2projects?2eech?2ap@
  00427	a1 00 00 00 00	 mov	 eax, DWORD PTR ?null_entity_pointer_message@@3PBDB ; null_entity_pointer_message
  0042c	50		 push	 eax
  0042d	e8 00 00 00 00	 call	 ?process_assert@@YGXPBD0H@Z ; process_assert
  00432	c7 85 1c fd ff
	ff 00 00 00 00	 mov	 DWORD PTR tv243[ebp], 0
$LN101@update_att:
  0043c	b9 01 00 00 00	 mov	 ecx, 1
  00441	85 c9		 test	 ecx, ecx
  00443	74 0c		 je	 SHORT $LN102@update_att
  00445	c7 85 18 fd ff
	ff 93 00 00 00	 mov	 DWORD PTR tv251[ebp], 147 ; 00000093H
  0044f	eb 24		 jmp	 SHORT $LN103@update_att
$LN102@update_att:
  00451	8b 15 00 00 00
	00		 mov	 edx, DWORD PTR ?__LINE__Var@?0??update_attitude_dynamics@@YGXXZ@4JA
  00457	83 c2 6d	 add	 edx, 109		; 0000006dH
  0045a	52		 push	 edx
  0045b	68 00 00 00 00	 push	 OFFSET ??_C@_0EM@BHCFJHIE@c?3?2users?2nhv90?2projects?2eech?2ap@
  00460	a1 00 00 00 00	 mov	 eax, DWORD PTR ?overload_invalid_float_type_message@@3PBDB ; overload_invalid_float_type_message
  00465	50		 push	 eax
  00466	e8 00 00 00 00	 call	 ?process_assert@@YGXPBD0H@Z ; process_assert
  0046b	c7 85 18 fd ff
	ff 00 00 00 00	 mov	 DWORD PTR tv251[ebp], 0
$LN103@update_att:
  00475	51		 push	 ecx
  00476	0f 57 c0	 xorps	 xmm0, xmm0
  00479	f3 0f 11 04 24	 movss	 DWORD PTR [esp], xmm0
  0047e	68 93 00 00 00	 push	 147			; 00000093H
  00483	8b 0d 00 00 00
	00		 mov	 ecx, DWORD PTR ?gunship_entity@@3PAUENTITY@@A ; gunship_entity
  00489	51		 push	 ecx
  0048a	69 95 1c fd ff
	ff 78 05 00 00	 imul	 edx, DWORD PTR tv243[ebp], 1400
  00494	8b 85 18 fd ff
	ff		 mov	 eax, DWORD PTR tv251[ebp]
  0049a	8d 8c c2 00 00
	00 00		 lea	 ecx, DWORD PTR ?fn_set_client_server_entity_float_value@@3PAY1KP@1P6GXPAUENTITY@@W4FLOAT_TYPES@@M@ZA[edx+eax*8]
  004a1	8b 15 00 00 00
	00		 mov	 edx, DWORD PTR ?system_comms_model@@3W4COMMS_MODEL_TYPES@@A ; system_comms_model
  004a7	8b 04 91	 mov	 eax, DWORD PTR [ecx+edx*4]
  004aa	ff d0		 call	 eax

; 1398 : 
; 1399 : 			set_client_server_entity_vec3d (get_gunship_entity (), VEC3D_TYPE_MOTION_VECTOR, &current_flight_dynamics->model_motion_vector);

  004ac	83 3d 00 00 00
	00 00		 cmp	 DWORD PTR ?gunship_entity@@3PAUENTITY@@A, 0 ; gunship_entity
  004b3	74 0f		 je	 SHORT $LN104@update_att
  004b5	a1 00 00 00 00	 mov	 eax, DWORD PTR ?gunship_entity@@3PAUENTITY@@A ; gunship_entity
  004ba	8b 08		 mov	 ecx, DWORD PTR [eax]
  004bc	89 8d 1c fd ff
	ff		 mov	 DWORD PTR tv265[ebp], ecx
  004c2	eb 24		 jmp	 SHORT $LN105@update_att
$LN104@update_att:
  004c4	8b 15 00 00 00
	00		 mov	 edx, DWORD PTR ?__LINE__Var@?0??update_attitude_dynamics@@YGXXZ@4JA
  004ca	83 c2 6f	 add	 edx, 111		; 0000006fH
  004cd	52		 push	 edx
  004ce	68 00 00 00 00	 push	 OFFSET ??_C@_0EM@BHCFJHIE@c?3?2users?2nhv90?2projects?2eech?2ap@
  004d3	a1 00 00 00 00	 mov	 eax, DWORD PTR ?null_entity_pointer_message@@3PBDB ; null_entity_pointer_message
  004d8	50		 push	 eax
  004d9	e8 00 00 00 00	 call	 ?process_assert@@YGXPBD0H@Z ; process_assert
  004de	c7 85 1c fd ff
	ff 00 00 00 00	 mov	 DWORD PTR tv265[ebp], 0
$LN105@update_att:
  004e8	b9 01 00 00 00	 mov	 ecx, 1
  004ed	85 c9		 test	 ecx, ecx
  004ef	74 0c		 je	 SHORT $LN106@update_att
  004f1	c7 85 18 fd ff
	ff 06 00 00 00	 mov	 DWORD PTR tv273[ebp], 6
  004fb	eb 24		 jmp	 SHORT $LN107@update_att
$LN106@update_att:
  004fd	8b 15 00 00 00
	00		 mov	 edx, DWORD PTR ?__LINE__Var@?0??update_attitude_dynamics@@YGXXZ@4JA
  00503	83 c2 6f	 add	 edx, 111		; 0000006fH
  00506	52		 push	 edx
  00507	68 00 00 00 00	 push	 OFFSET ??_C@_0EM@BHCFJHIE@c?3?2users?2nhv90?2projects?2eech?2ap@
  0050c	a1 00 00 00 00	 mov	 eax, DWORD PTR ?overload_invalid_vec3d_type_message@@3PBDB ; overload_invalid_vec3d_type_message
  00511	50		 push	 eax
  00512	e8 00 00 00 00	 call	 ?process_assert@@YGXPBD0H@Z ; process_assert
  00517	c7 85 18 fd ff
	ff 00 00 00 00	 mov	 DWORD PTR tv273[ebp], 0
$LN107@update_att:
  00521	8b 0d 00 00 00
	00		 mov	 ecx, DWORD PTR ?current_flight_dynamics@@3PAUDYNAMICS_TYPE@@A ; current_flight_dynamics
  00527	81 c1 30 1c 00
	00		 add	 ecx, 7216		; 00001c30H
  0052d	51		 push	 ecx
  0052e	6a 06		 push	 6
  00530	8b 15 00 00 00
	00		 mov	 edx, DWORD PTR ?gunship_entity@@3PAUENTITY@@A ; gunship_entity
  00536	52		 push	 edx
  00537	69 85 1c fd ff
	ff c0 00 00 00	 imul	 eax, DWORD PTR tv265[ebp], 192
  00541	8b 8d 18 fd ff
	ff		 mov	 ecx, DWORD PTR tv273[ebp]
  00547	8d 94 c8 00 00
	00 00		 lea	 edx, DWORD PTR ?fn_set_client_server_entity_vec3d@@3PAY1BI@1P6GXPAUENTITY@@W4VEC3D_TYPES@@PAUVEC3D@@@ZA[eax+ecx*8]
  0054e	a1 00 00 00 00	 mov	 eax, DWORD PTR ?system_comms_model@@3W4COMMS_MODEL_TYPES@@A ; system_comms_model
  00553	8b 0c 82	 mov	 ecx, DWORD PTR [edx+eax*4]
  00556	ff d1		 call	 ecx

; 1400 : 
; 1401 : 			kill_client_server_entity (get_gunship_entity ());

  00558	83 3d 00 00 00
	00 00		 cmp	 DWORD PTR ?gunship_entity@@3PAUENTITY@@A, 0 ; gunship_entity
  0055f	74 0f		 je	 SHORT $LN108@update_att
  00561	a1 00 00 00 00	 mov	 eax, DWORD PTR ?gunship_entity@@3PAUENTITY@@A ; gunship_entity
  00566	8b 08		 mov	 ecx, DWORD PTR [eax]
  00568	89 8d 1c fd ff
	ff		 mov	 DWORD PTR tv288[ebp], ecx
  0056e	eb 24		 jmp	 SHORT $LN109@update_att
$LN108@update_att:
  00570	8b 15 00 00 00
	00		 mov	 edx, DWORD PTR ?__LINE__Var@?0??update_attitude_dynamics@@YGXXZ@4JA
  00576	83 c2 71	 add	 edx, 113		; 00000071H
  00579	52		 push	 edx
  0057a	68 00 00 00 00	 push	 OFFSET ??_C@_0EM@BHCFJHIE@c?3?2users?2nhv90?2projects?2eech?2ap@
  0057f	a1 00 00 00 00	 mov	 eax, DWORD PTR ?null_entity_pointer_message@@3PBDB ; null_entity_pointer_message
  00584	50		 push	 eax
  00585	e8 00 00 00 00	 call	 ?process_assert@@YGXPBD0H@Z ; process_assert
  0058a	c7 85 1c fd ff
	ff 00 00 00 00	 mov	 DWORD PTR tv288[ebp], 0
$LN109@update_att:
  00594	8b 0d 00 00 00
	00		 mov	 ecx, DWORD PTR ?gunship_entity@@3PAUENTITY@@A ; gunship_entity
  0059a	51		 push	 ecx
  0059b	8b 15 00 00 00
	00		 mov	 edx, DWORD PTR ?system_comms_model@@3W4COMMS_MODEL_TYPES@@A ; system_comms_model
  005a1	c1 e2 02	 shl	 edx, 2
  005a4	8b 85 1c fd ff
	ff		 mov	 eax, DWORD PTR tv288[ebp]
  005aa	8b 8c c2 00 00
	00 00		 mov	 ecx, DWORD PTR ?fn_kill_client_server_entity@@3PAY01P6GXPAUENTITY@@@ZA[edx+eax*8]
  005b1	ff d1		 call	 ecx
$LN4@update_att:

; 1402 : 
; 1403 : //			start_game_exit (GAME_EXIT_CRASH, FALSE);
; 1404 : 		}
; 1405 : 
; 1406 : 		return;

  005b3	e9 f9 3e 00 00	 jmp	 $LN1@update_att
$LN3@update_att:

; 1407 : 	}
; 1408 : 	//////////////////////////////////////////////////////////
; 1409 : 
; 1410 : 	//
; 1411 : 	// Set up variables
; 1412 : 	//
; 1413 : 
; 1414 : 	main_rotor_induced_air_value = current_flight_dynamics->main_rotor_induced_air.value * current_flight_dynamics->main_rotor_induced_air.modifier;

  005b8	a1 00 00 00 00	 mov	 eax, DWORD PTR ?current_flight_dynamics@@3PAUDYNAMICS_TYPE@@A ; current_flight_dynamics
  005bd	8b 0d 00 00 00
	00		 mov	 ecx, DWORD PTR ?current_flight_dynamics@@3PAUDYNAMICS_TYPE@@A ; current_flight_dynamics
  005c3	f3 0f 10 80 6c
	1d 00 00	 movss	 xmm0, DWORD PTR [eax+7532]
  005cb	f3 0f 59 81 68
	1d 00 00	 mulss	 xmm0, DWORD PTR [ecx+7528]
  005d3	f3 0f 11 45 9c	 movss	 DWORD PTR _main_rotor_induced_air_value$[ebp], xmm0

; 1415 : 	main_rotor_pitch_angle_value = current_flight_dynamics->main_rotor_pitch_angle.value * current_flight_dynamics->main_rotor_pitch_angle.modifier;

  005d8	a1 00 00 00 00	 mov	 eax, DWORD PTR ?current_flight_dynamics@@3PAUDYNAMICS_TYPE@@A ; current_flight_dynamics
  005dd	8b 0d 00 00 00
	00		 mov	 ecx, DWORD PTR ?current_flight_dynamics@@3PAUDYNAMICS_TYPE@@A ; current_flight_dynamics
  005e3	f3 0f 10 80 fc
	1d 00 00	 movss	 xmm0, DWORD PTR [eax+7676]
  005eb	f3 0f 59 81 f8
	1d 00 00	 mulss	 xmm0, DWORD PTR [ecx+7672]
  005f3	f3 0f 11 45 98	 movss	 DWORD PTR _main_rotor_pitch_angle_value$[ebp], xmm0

; 1416 : 	main_rotor_rpm_value = current_flight_dynamics->main_rotor_rpm.value * current_flight_dynamics->main_rotor_rpm.modifier;

  005f8	a1 00 00 00 00	 mov	 eax, DWORD PTR ?current_flight_dynamics@@3PAUDYNAMICS_TYPE@@A ; current_flight_dynamics
  005fd	8b 0d 00 00 00
	00		 mov	 ecx, DWORD PTR ?current_flight_dynamics@@3PAUDYNAMICS_TYPE@@A ; current_flight_dynamics
  00603	f3 0f 10 80 14
	1e 00 00	 movss	 xmm0, DWORD PTR [eax+7700]
  0060b	f3 0f 59 81 10
	1e 00 00	 mulss	 xmm0, DWORD PTR [ecx+7696]
  00613	f3 0f 11 45 94	 movss	 DWORD PTR _main_rotor_rpm_value$[ebp], xmm0

; 1417 : 	main_rotor_roll_angle_value = current_flight_dynamics->main_rotor_roll_angle.value * current_flight_dynamics->main_rotor_roll_angle.modifier;

  00618	a1 00 00 00 00	 mov	 eax, DWORD PTR ?current_flight_dynamics@@3PAUDYNAMICS_TYPE@@A ; current_flight_dynamics
  0061d	8b 0d 00 00 00
	00		 mov	 ecx, DWORD PTR ?current_flight_dynamics@@3PAUDYNAMICS_TYPE@@A ; current_flight_dynamics
  00623	f3 0f 10 80 e4
	1d 00 00	 movss	 xmm0, DWORD PTR [eax+7652]
  0062b	f3 0f 59 81 e0
	1d 00 00	 mulss	 xmm0, DWORD PTR [ecx+7648]
  00633	f3 0f 11 45 90	 movss	 DWORD PTR _main_rotor_roll_angle_value$[ebp], xmm0

; 1418 : 	tail_rotor_induced_air_value = current_flight_dynamics->tail_rotor_induced_air.value * current_flight_dynamics->tail_rotor_induced_air.modifier;

  00638	a1 00 00 00 00	 mov	 eax, DWORD PTR ?current_flight_dynamics@@3PAUDYNAMICS_TYPE@@A ; current_flight_dynamics
  0063d	8b 0d 00 00 00
	00		 mov	 ecx, DWORD PTR ?current_flight_dynamics@@3PAUDYNAMICS_TYPE@@A ; current_flight_dynamics
  00643	f3 0f 10 80 04
	1f 00 00	 movss	 xmm0, DWORD PTR [eax+7940]
  0064b	f3 0f 59 81 00
	1f 00 00	 mulss	 xmm0, DWORD PTR [ecx+7936]
  00653	f3 0f 11 45 8c	 movss	 DWORD PTR _tail_rotor_induced_air_value$[ebp], xmm0

; 1419 : 	heading_inertia_value = current_flight_dynamics->heading_inertia.value * current_flight_dynamics->heading_inertia.modifier;

  00658	a1 00 00 00 00	 mov	 eax, DWORD PTR ?current_flight_dynamics@@3PAUDYNAMICS_TYPE@@A ; current_flight_dynamics
  0065d	8b 0d 00 00 00
	00		 mov	 ecx, DWORD PTR ?current_flight_dynamics@@3PAUDYNAMICS_TYPE@@A ; current_flight_dynamics
  00663	f3 0f 10 80 34
	22 00 00	 movss	 xmm0, DWORD PTR [eax+8756]
  0066b	f3 0f 59 81 30
	22 00 00	 mulss	 xmm0, DWORD PTR [ecx+8752]
  00673	f3 0f 11 45 88	 movss	 DWORD PTR _heading_inertia_value$[ebp], xmm0

; 1420 : 	pitch_inertia_value = current_flight_dynamics->pitch_inertia.value * current_flight_dynamics->pitch_inertia.modifier;

  00678	a1 00 00 00 00	 mov	 eax, DWORD PTR ?current_flight_dynamics@@3PAUDYNAMICS_TYPE@@A ; current_flight_dynamics
  0067d	8b 0d 00 00 00
	00		 mov	 ecx, DWORD PTR ?current_flight_dynamics@@3PAUDYNAMICS_TYPE@@A ; current_flight_dynamics
  00683	f3 0f 10 80 4c
	22 00 00	 movss	 xmm0, DWORD PTR [eax+8780]
  0068b	f3 0f 59 81 48
	22 00 00	 mulss	 xmm0, DWORD PTR [ecx+8776]
  00693	f3 0f 11 45 84	 movss	 DWORD PTR _pitch_inertia_value$[ebp], xmm0

; 1421 : 	roll_inertia_value = current_flight_dynamics->roll_inertia.value * current_flight_dynamics->roll_inertia.modifier;

  00698	a1 00 00 00 00	 mov	 eax, DWORD PTR ?current_flight_dynamics@@3PAUDYNAMICS_TYPE@@A ; current_flight_dynamics
  0069d	8b 0d 00 00 00
	00		 mov	 ecx, DWORD PTR ?current_flight_dynamics@@3PAUDYNAMICS_TYPE@@A ; current_flight_dynamics
  006a3	f3 0f 10 80 64
	22 00 00	 movss	 xmm0, DWORD PTR [eax+8804]
  006ab	f3 0f 59 81 60
	22 00 00	 mulss	 xmm0, DWORD PTR [ecx+8800]
  006b3	f3 0f 11 45 80	 movss	 DWORD PTR _roll_inertia_value$[ebp], xmm0

; 1422 : 	pitch_value = current_flight_dynamics->pitch.value * current_flight_dynamics->pitch.modifier;

  006b8	a1 00 00 00 00	 mov	 eax, DWORD PTR ?current_flight_dynamics@@3PAUDYNAMICS_TYPE@@A ; current_flight_dynamics
  006bd	8b 0d 00 00 00
	00		 mov	 ecx, DWORD PTR ?current_flight_dynamics@@3PAUDYNAMICS_TYPE@@A ; current_flight_dynamics
  006c3	f3 0f 10 80 5c
	21 00 00	 movss	 xmm0, DWORD PTR [eax+8540]
  006cb	f3 0f 59 81 58
	21 00 00	 mulss	 xmm0, DWORD PTR [ecx+8536]
  006d3	f3 0f 11 85 7c
	ff ff ff	 movss	 DWORD PTR _pitch_value$[ebp], xmm0

; 1423 : 	main_blade_x_pitch_value = current_flight_dynamics->main_blade_x_pitch.value * current_flight_dynamics->main_blade_x_pitch.modifier;

  006db	a1 00 00 00 00	 mov	 eax, DWORD PTR ?current_flight_dynamics@@3PAUDYNAMICS_TYPE@@A ; current_flight_dynamics
  006e0	8b 0d 00 00 00
	00		 mov	 ecx, DWORD PTR ?current_flight_dynamics@@3PAUDYNAMICS_TYPE@@A ; current_flight_dynamics
  006e6	f3 0f 10 80 a4
	1e 00 00	 movss	 xmm0, DWORD PTR [eax+7844]
  006ee	f3 0f 59 81 a0
	1e 00 00	 mulss	 xmm0, DWORD PTR [ecx+7840]
  006f6	f3 0f 11 85 78
	ff ff ff	 movss	 DWORD PTR _main_blade_x_pitch_value$[ebp], xmm0

; 1424 : 	main_blade_y_pitch_value = current_flight_dynamics->main_blade_y_pitch.value * current_flight_dynamics->main_blade_y_pitch.modifier;

  006fe	a1 00 00 00 00	 mov	 eax, DWORD PTR ?current_flight_dynamics@@3PAUDYNAMICS_TYPE@@A ; current_flight_dynamics
  00703	8b 0d 00 00 00
	00		 mov	 ecx, DWORD PTR ?current_flight_dynamics@@3PAUDYNAMICS_TYPE@@A ; current_flight_dynamics
  00709	f3 0f 10 80 bc
	1e 00 00	 movss	 xmm0, DWORD PTR [eax+7868]
  00711	f3 0f 59 81 b8
	1e 00 00	 mulss	 xmm0, DWORD PTR [ecx+7864]
  00719	f3 0f 11 85 74
	ff ff ff	 movss	 DWORD PTR _main_blade_y_pitch_value$[ebp], xmm0

; 1425 : 	velocity_z_value = current_flight_dynamics->velocity_z.value * current_flight_dynamics->velocity_z.modifier;

  00721	a1 00 00 00 00	 mov	 eax, DWORD PTR ?current_flight_dynamics@@3PAUDYNAMICS_TYPE@@A ; current_flight_dynamics
  00726	8b 0d 00 00 00
	00		 mov	 ecx, DWORD PTR ?current_flight_dynamics@@3PAUDYNAMICS_TYPE@@A ; current_flight_dynamics
  0072c	f3 0f 10 80 9c
	20 00 00	 movss	 xmm0, DWORD PTR [eax+8348]
  00734	f3 0f 59 81 98
	20 00 00	 mulss	 xmm0, DWORD PTR [ecx+8344]
  0073c	f3 0f 11 85 70
	ff ff ff	 movss	 DWORD PTR _velocity_z_value$[ebp], xmm0

; 1426 : 	main_blade_pitch_value = current_flight_dynamics->main_blade_pitch.value * current_flight_dynamics->main_blade_pitch.modifier;

  00744	a1 00 00 00 00	 mov	 eax, DWORD PTR ?current_flight_dynamics@@3PAUDYNAMICS_TYPE@@A ; current_flight_dynamics
  00749	8b 0d 00 00 00
	00		 mov	 ecx, DWORD PTR ?current_flight_dynamics@@3PAUDYNAMICS_TYPE@@A ; current_flight_dynamics
  0074f	f3 0f 10 80 8c
	1e 00 00	 movss	 xmm0, DWORD PTR [eax+7820]
  00757	f3 0f 59 81 88
	1e 00 00	 mulss	 xmm0, DWORD PTR [ecx+7816]
  0075f	f3 0f 11 85 68
	ff ff ff	 movss	 DWORD PTR _main_blade_pitch_value$[ebp], xmm0

; 1427 : 
; 1428 : 	/////////////////////////////////////////////////////////////////////////////////////////////////////////////////////////////////
; 1429 : 	// Rotor Force Analysis
; 1430 : 	/////////////////////////////////////////////////////////////////////////////////////////////////////////////////////////////////
; 1431 : 
; 1432 : 	angle = 1.0;

  00767	f3 0f 10 05 00
	00 00 00	 movss	 xmm0, DWORD PTR __real@3f800000
  0076f	f3 0f 11 45 d4	 movss	 DWORD PTR _angle$[ebp], xmm0

; 1433 : 
; 1434 : 	rotor_split = 0.90;

  00774	f3 0f 10 05 00
	00 00 00	 movss	 xmm0, DWORD PTR __real@3f666666
  0077c	f3 0f 11 45 c8	 movss	 DWORD PTR _rotor_split$[ebp], xmm0

; 1435 : 
; 1436 : 	edge_rotor_split = 1.0 - rotor_split;

  00781	f3 0f 5a 45 c8	 cvtss2sd xmm0, DWORD PTR _rotor_split$[ebp]
  00786	f2 0f 10 0d 00
	00 00 00	 movsd	 xmm1, QWORD PTR __real@3ff0000000000000
  0078e	f2 0f 5c c8	 subsd	 xmm1, xmm0
  00792	f2 0f 5a c1	 cvtsd2ss xmm0, xmm1
  00796	f3 0f 11 45 c4	 movss	 DWORD PTR _edge_rotor_split$[ebp], xmm0

; 1437 : 
; 1438 : 	edge_rotor_split /= 8.0;

  0079b	f3 0f 5a 45 c4	 cvtss2sd xmm0, DWORD PTR _edge_rotor_split$[ebp]
  007a0	f2 0f 5e 05 00
	00 00 00	 divsd	 xmm0, QWORD PTR __real@4020000000000000
  007a8	f2 0f 5a c0	 cvtsd2ss xmm0, xmm0
  007ac	f3 0f 11 45 c4	 movss	 DWORD PTR _edge_rotor_split$[ebp], xmm0

; 1439 : 
; 1440 : 	rotor_edge_value = 0.401681;

  007b1	f3 0f 10 05 00
	00 00 00	 movss	 xmm0, DWORD PTR __real@3ecda922
  007b9	f3 0f 11 45 d0	 movss	 DWORD PTR _rotor_edge_value$[ebp], xmm0

; 1441 : 
; 1442 : 	////////////////////////////////////////////
; 1443 : 	// Taxiing
; 1444 : 	////////////////////////////////////////////
; 1445 : 	if (!get_local_entity_int_value (get_gunship_entity (), INT_TYPE_AIRBORNE_AIRCRAFT))

  007be	83 3d 00 00 00
	00 00		 cmp	 DWORD PTR ?gunship_entity@@3PAUENTITY@@A, 0 ; gunship_entity
  007c5	74 0f		 je	 SHORT $LN110@update_att
  007c7	a1 00 00 00 00	 mov	 eax, DWORD PTR ?gunship_entity@@3PAUENTITY@@A ; gunship_entity
  007cc	8b 08		 mov	 ecx, DWORD PTR [eax]
  007ce	89 8d 1c fd ff
	ff		 mov	 DWORD PTR tv370[ebp], ecx
  007d4	eb 20		 jmp	 SHORT $LN111@update_att
$LN110@update_att:
  007d6	68 a5 05 00 00	 push	 1445			; 000005a5H
  007db	68 00 00 00 00	 push	 OFFSET ??_C@_0EM@BHCFJHIE@c?3?2users?2nhv90?2projects?2eech?2ap@
  007e0	8b 15 00 00 00
	00		 mov	 edx, DWORD PTR ?null_entity_pointer_message@@3PBDB ; null_entity_pointer_message
  007e6	52		 push	 edx
  007e7	e8 00 00 00 00	 call	 ?process_assert@@YGXPBD0H@Z ; process_assert
  007ec	c7 85 1c fd ff
	ff 00 00 00 00	 mov	 DWORD PTR tv370[ebp], 0
$LN111@update_att:
  007f6	b8 01 00 00 00	 mov	 eax, 1
  007fb	85 c0		 test	 eax, eax
  007fd	74 0c		 je	 SHORT $LN112@update_att
  007ff	c7 85 18 fd ff
	ff 04 00 00 00	 mov	 DWORD PTR tv377[ebp], 4
  00809	eb 20		 jmp	 SHORT $LN113@update_att
$LN112@update_att:
  0080b	68 a5 05 00 00	 push	 1445			; 000005a5H
  00810	68 00 00 00 00	 push	 OFFSET ??_C@_0EM@BHCFJHIE@c?3?2users?2nhv90?2projects?2eech?2ap@
  00815	8b 0d 00 00 00
	00		 mov	 ecx, DWORD PTR ?overload_invalid_int_type_message@@3PBDB ; overload_invalid_int_type_message
  0081b	51		 push	 ecx
  0081c	e8 00 00 00 00	 call	 ?process_assert@@YGXPBD0H@Z ; process_assert
  00821	c7 85 18 fd ff
	ff 00 00 00 00	 mov	 DWORD PTR tv377[ebp], 0
$LN113@update_att:
  0082b	6a 04		 push	 4
  0082d	8b 15 00 00 00
	00		 mov	 edx, DWORD PTR ?gunship_entity@@3PAUENTITY@@A ; gunship_entity
  00833	52		 push	 edx
  00834	69 85 1c fd ff
	ff 5c 04 00 00	 imul	 eax, DWORD PTR tv370[ebp], 1116
  0083e	8b 8d 18 fd ff
	ff		 mov	 ecx, DWORD PTR tv377[ebp]
  00844	8b 94 88 00 00
	00 00		 mov	 edx, DWORD PTR ?fn_get_local_entity_int_value@@3PAY0BBH@P6GHPAUENTITY@@W4INT_TYPES@@@ZA[eax+ecx*4]
  0084b	ff d2		 call	 edx
  0084d	85 c0		 test	 eax, eax
  0084f	0f 85 0f 01 00
	00		 jne	 $LN5@update_att

; 1446 : 	{
; 1447 : 
; 1448 : 		// rotor
; 1449 : 
; 1450 : 		rotor_force = main_rotor_induced_air_value * 35.0;

  00855	f3 0f 5a 45 9c	 cvtss2sd xmm0, DWORD PTR _main_rotor_induced_air_value$[ebp]
  0085a	f2 0f 59 05 00
	00 00 00	 mulsd	 xmm0, QWORD PTR __real@4041800000000000
  00862	f2 0f 5a c0	 cvtsd2ss xmm0, xmm0
  00866	f3 0f 11 45 bc	 movss	 DWORD PTR _rotor_force$[ebp], xmm0

; 1451 : 
; 1452 : 		direction.x = 0.0;

  0086b	0f 57 c0	 xorps	 xmm0, xmm0
  0086e	f3 0f 11 85 38
	ff ff ff	 movss	 DWORD PTR _direction$[ebp], xmm0

; 1453 : 		direction.y = 0.0;

  00876	0f 57 c0	 xorps	 xmm0, xmm0
  00879	f3 0f 11 85 3c
	ff ff ff	 movss	 DWORD PTR _direction$[ebp+4], xmm0

; 1454 : 		direction.z = bound (-main_rotor_pitch_angle_value, -1.0, 1.0);

  00881	f3 0f 10 45 98	 movss	 xmm0, DWORD PTR _main_rotor_pitch_angle_value$[ebp]
  00886	0f 57 05 00 00
	00 00		 xorps	 xmm0, DWORD PTR __xmm@80000000800000008000000080000000
  0088d	f3 0f 5a c0	 cvtss2sd xmm0, xmm0
  00891	f2 0f 10 0d 00
	00 00 00	 movsd	 xmm1, QWORD PTR __real@bff0000000000000
  00899	66 0f 2f c8	 comisd	 xmm1, xmm0
  0089d	76 12		 jbe	 SHORT $LN116@update_att
  0089f	f2 0f 10 05 00
	00 00 00	 movsd	 xmm0, QWORD PTR __real@bff0000000000000
  008a7	f2 0f 11 85 18
	fd ff ff	 movsd	 QWORD PTR tv396[ebp], xmm0
  008af	eb 54		 jmp	 SHORT $LN117@update_att
$LN116@update_att:
  008b1	f3 0f 10 45 98	 movss	 xmm0, DWORD PTR _main_rotor_pitch_angle_value$[ebp]
  008b6	0f 57 05 00 00
	00 00		 xorps	 xmm0, DWORD PTR __xmm@80000000800000008000000080000000
  008bd	f3 0f 5a c0	 cvtss2sd xmm0, xmm0
  008c1	66 0f 2f 05 00
	00 00 00	 comisd	 xmm0, QWORD PTR __real@3ff0000000000000
  008c9	76 12		 jbe	 SHORT $LN114@update_att
  008cb	f2 0f 10 05 00
	00 00 00	 movsd	 xmm0, QWORD PTR __real@3ff0000000000000
  008d3	f2 0f 11 85 10
	fd ff ff	 movsd	 QWORD PTR tv395[ebp], xmm0
  008db	eb 18		 jmp	 SHORT $LN115@update_att
$LN114@update_att:
  008dd	f3 0f 10 45 98	 movss	 xmm0, DWORD PTR _main_rotor_pitch_angle_value$[ebp]
  008e2	0f 57 05 00 00
	00 00		 xorps	 xmm0, DWORD PTR __xmm@80000000800000008000000080000000
  008e9	f3 0f 5a c0	 cvtss2sd xmm0, xmm0
  008ed	f2 0f 11 85 10
	fd ff ff	 movsd	 QWORD PTR tv395[ebp], xmm0
$LN115@update_att:
  008f5	f2 0f 10 85 10
	fd ff ff	 movsd	 xmm0, QWORD PTR tv395[ebp]
  008fd	f2 0f 11 85 18
	fd ff ff	 movsd	 QWORD PTR tv396[ebp], xmm0
$LN117@update_att:
  00905	f2 0f 5a 85 18
	fd ff ff	 cvtsd2ss xmm0, QWORD PTR tv396[ebp]
  0090d	f3 0f 11 85 40
	ff ff ff	 movss	 DWORD PTR _direction$[ebp+8], xmm0

; 1455 : 
; 1456 : 		position.x = 0.0;

  00915	0f 57 c0	 xorps	 xmm0, xmm0
  00918	f3 0f 11 85 44
	ff ff ff	 movss	 DWORD PTR _position$[ebp], xmm0

; 1457 : 		position.y = 0.0;

  00920	0f 57 c0	 xorps	 xmm0, xmm0
  00923	f3 0f 11 85 48
	ff ff ff	 movss	 DWORD PTR _position$[ebp+4], xmm0

; 1458 : 		position.z = 0.0;

  0092b	0f 57 c0	 xorps	 xmm0, xmm0
  0092e	f3 0f 11 85 4c
	ff ff ff	 movss	 DWORD PTR _position$[ebp+8], xmm0

; 1459 : 
; 1460 : 		add_dynamic_force ("Taxiing force", rotor_force, 0.0, &position, &direction, FALSE);

  00936	6a 00		 push	 0
  00938	8d 85 38 ff ff
	ff		 lea	 eax, DWORD PTR _direction$[ebp]
  0093e	50		 push	 eax
  0093f	8d 8d 44 ff ff
	ff		 lea	 ecx, DWORD PTR _position$[ebp]
  00945	51		 push	 ecx
  00946	51		 push	 ecx
  00947	0f 57 c0	 xorps	 xmm0, xmm0
  0094a	f3 0f 11 04 24	 movss	 DWORD PTR [esp], xmm0
  0094f	51		 push	 ecx
  00950	f3 0f 10 45 bc	 movss	 xmm0, DWORD PTR _rotor_force$[ebp]
  00955	f3 0f 11 04 24	 movss	 DWORD PTR [esp], xmm0
  0095a	68 00 00 00 00	 push	 OFFSET ??_C@_0O@DAHLPFDH@Taxiing?5force@
  0095f	e8 00 00 00 00	 call	 ?add_dynamic_force@@YGXPBDMMPAUVEC3D@@1H@Z ; add_dynamic_force
$LN5@update_att:

; 1461 : 	}
; 1462 : 
; 1463 : 	////////////////////////////////////////////
; 1464 : 	// middle of rotor disc
; 1465 : 	////////////////////////////////////////////
; 1466 : 	{
; 1467 : 
; 1468 : 		rotor_force = rotor_split * main_rotor_induced_air_value;

  00964	f3 0f 10 45 c8	 movss	 xmm0, DWORD PTR _rotor_split$[ebp]
  00969	f3 0f 59 45 9c	 mulss	 xmm0, DWORD PTR _main_rotor_induced_air_value$[ebp]
  0096e	f3 0f 11 45 bc	 movss	 DWORD PTR _rotor_force$[ebp], xmm0

; 1469 : 
; 1470 : 		if ((current_flight_dynamics->rotor_brake) && (current_flight_dynamics->main_rotor_rpm.max != 0.0))

  00973	a1 00 00 00 00	 mov	 eax, DWORD PTR ?current_flight_dynamics@@3PAUDYNAMICS_TYPE@@A ; current_flight_dynamics
  00978	8b 88 28 25 00
	00		 mov	 ecx, DWORD PTR [eax+9512]
  0097e	c1 e9 05	 shr	 ecx, 5
  00981	83 e1 01	 and	 ecx, 1
  00984	74 37		 je	 SHORT $LN6@update_att
  00986	a1 00 00 00 00	 mov	 eax, DWORD PTR ?current_flight_dynamics@@3PAUDYNAMICS_TYPE@@A ; current_flight_dynamics
  0098b	f3 0f 5a 80 20
	1e 00 00	 cvtss2sd xmm0, DWORD PTR [eax+7712]
  00993	66 0f 2e 05 00
	00 00 00	 ucomisd xmm0, QWORD PTR __real@0000000000000000
  0099b	9f		 lahf
  0099c	f6 c4 44	 test	 ah, 68			; 00000044H
  0099f	7b 1c		 jnp	 SHORT $LN6@update_att

; 1471 : 		{
; 1472 : 
; 1473 : 			rotor_force *= main_rotor_rpm_value / current_flight_dynamics->main_rotor_rpm.max;

  009a1	a1 00 00 00 00	 mov	 eax, DWORD PTR ?current_flight_dynamics@@3PAUDYNAMICS_TYPE@@A ; current_flight_dynamics
  009a6	f3 0f 10 45 94	 movss	 xmm0, DWORD PTR _main_rotor_rpm_value$[ebp]
  009ab	f3 0f 5e 80 20
	1e 00 00	 divss	 xmm0, DWORD PTR [eax+7712]
  009b3	f3 0f 59 45 bc	 mulss	 xmm0, DWORD PTR _rotor_force$[ebp]
  009b8	f3 0f 11 45 bc	 movss	 DWORD PTR _rotor_force$[ebp], xmm0
$LN6@update_att:

; 1474 : 		}
; 1475 : 
; 1476 : 		position.x = 0.0;

  009bd	0f 57 c0	 xorps	 xmm0, xmm0
  009c0	f3 0f 11 85 44
	ff ff ff	 movss	 DWORD PTR _position$[ebp], xmm0

; 1477 : 		position.y = 0.0;

  009c8	0f 57 c0	 xorps	 xmm0, xmm0
  009cb	f3 0f 11 85 48
	ff ff ff	 movss	 DWORD PTR _position$[ebp+4], xmm0

; 1478 : 		position.z = 0.0;

  009d3	0f 57 c0	 xorps	 xmm0, xmm0
  009d6	f3 0f 11 85 4c
	ff ff ff	 movss	 DWORD PTR _position$[ebp+8], xmm0

; 1479 : 
; 1480 : 		direction.x = 0.0;

  009de	0f 57 c0	 xorps	 xmm0, xmm0
  009e1	f3 0f 11 85 38
	ff ff ff	 movss	 DWORD PTR _direction$[ebp], xmm0

; 1481 : 		direction.y = 1.0;

  009e9	f3 0f 10 05 00
	00 00 00	 movss	 xmm0, DWORD PTR __real@3f800000
  009f1	f3 0f 11 85 3c
	ff ff ff	 movss	 DWORD PTR _direction$[ebp+4], xmm0

; 1482 : 		direction.z = 0.0;

  009f9	0f 57 c0	 xorps	 xmm0, xmm0
  009fc	f3 0f 11 85 40
	ff ff ff	 movss	 DWORD PTR _direction$[ebp+8], xmm0

; 1483 : 
; 1484 : 		add_dynamic_force ("Middle rotor force", command_line_dynamics_main_rotor_lift * rotor_force, 0.0, &position, &direction, FALSE);

  00a04	6a 00		 push	 0
  00a06	8d 85 38 ff ff
	ff		 lea	 eax, DWORD PTR _direction$[ebp]
  00a0c	50		 push	 eax
  00a0d	8d 8d 44 ff ff
	ff		 lea	 ecx, DWORD PTR _position$[ebp]
  00a13	51		 push	 ecx
  00a14	51		 push	 ecx
  00a15	0f 57 c0	 xorps	 xmm0, xmm0
  00a18	f3 0f 11 04 24	 movss	 DWORD PTR [esp], xmm0
  00a1d	f3 0f 10 05 00
	00 00 00	 movss	 xmm0, DWORD PTR ?command_line_dynamics_main_rotor_lift@@3MA
  00a25	f3 0f 59 45 bc	 mulss	 xmm0, DWORD PTR _rotor_force$[ebp]
  00a2a	51		 push	 ecx
  00a2b	f3 0f 11 04 24	 movss	 DWORD PTR [esp], xmm0
  00a30	68 00 00 00 00	 push	 OFFSET ??_C@_0BD@BBEFFKGJ@Middle?5rotor?5force@
  00a35	e8 00 00 00 00	 call	 ?add_dynamic_force@@YGXPBDMMPAUVEC3D@@1H@Z ; add_dynamic_force

; 1485 : 	}
; 1486 : 
; 1487 : 	////////////////////////////////////////////
; 1488 : 	// front of rotor disc
; 1489 : 	////////////////////////////////////////////
; 1490 : 	{
; 1491 : 
; 1492 : 		angle = main_rotor_pitch_angle_value;

  00a3a	f3 0f 10 45 98	 movss	 xmm0, DWORD PTR _main_rotor_pitch_angle_value$[ebp]
  00a3f	f3 0f 11 45 d4	 movss	 DWORD PTR _angle$[ebp], xmm0

; 1493 : 
; 1494 : 		front_rotor_force = rotor_edge_value +

  00a44	f3 0f 5a 45 d0	 cvtss2sd xmm0, DWORD PTR _rotor_edge_value$[ebp]
  00a49	f3 0f 5a 4d d4	 cvtss2sd xmm1, DWORD PTR _angle$[ebp]
  00a4e	f2 0f 59 0d 00
	00 00 00	 mulsd	 xmm1, QWORD PTR __real@3fe3333333333333
  00a56	a1 00 00 00 00	 mov	 eax, DWORD PTR ?current_flight_dynamics@@3PAUDYNAMICS_TYPE@@A ; current_flight_dynamics
  00a5b	8b 0d 00 00 00
	00		 mov	 ecx, DWORD PTR ?current_flight_dynamics@@3PAUDYNAMICS_TYPE@@A ; current_flight_dynamics
  00a61	f3 0f 10 90 08
	1e 00 00	 movss	 xmm2, DWORD PTR [eax+7688]
  00a69	f3 0f 5c 91 04
	1e 00 00	 subss	 xmm2, DWORD PTR [ecx+7684]
  00a71	f3 0f 5a d2	 cvtss2sd xmm2, xmm2
  00a75	f2 0f 5e ca	 divsd	 xmm1, xmm2
  00a79	f2 0f 58 c1	 addsd	 xmm0, xmm1
  00a7d	8b 15 00 00 00
	00		 mov	 edx, DWORD PTR ?current_flight_dynamics@@3PAUDYNAMICS_TYPE@@A ; current_flight_dynamics
  00a83	f3 0f 5a 8a a8
	1b 00 00	 cvtss2sd xmm1, DWORD PTR [edx+7080]
  00a8b	f2 0f 59 0d 00
	00 00 00	 mulsd	 xmm1, QWORD PTR __real@3fc999999999999a
  00a93	a1 00 00 00 00	 mov	 eax, DWORD PTR ?current_flight_dynamics@@3PAUDYNAMICS_TYPE@@A ; current_flight_dynamics
  00a98	8b 0d 00 00 00
	00		 mov	 ecx, DWORD PTR ?current_flight_dynamics@@3PAUDYNAMICS_TYPE@@A ; current_flight_dynamics
  00a9e	f3 0f 10 90 b4
	1b 00 00	 movss	 xmm2, DWORD PTR [eax+7092]
  00aa6	f3 0f 5c 91 b0
	1b 00 00	 subss	 xmm2, DWORD PTR [ecx+7088]
  00aae	f3 0f 5a d2	 cvtss2sd xmm2, xmm2
  00ab2	f2 0f 5e ca	 divsd	 xmm1, xmm2
  00ab6	f2 0f 58 c1	 addsd	 xmm0, xmm1
  00aba	f2 0f 5a c0	 cvtsd2ss xmm0, xmm0
  00abe	f3 0f 11 45 b8	 movss	 DWORD PTR _front_rotor_force$[ebp], xmm0

; 1495 : 				(0.6 * angle) / (current_flight_dynamics->main_rotor_pitch_angle.max - current_flight_dynamics->main_rotor_pitch_angle.min) +
; 1496 : 				(0.2 * current_flight_dynamics->input_data.collective.value) / (current_flight_dynamics->input_data.collective.max - current_flight_dynamics->input_data.collective.min);
; 1497 : 
; 1498 : 		if ((current_flight_dynamics->rotor_brake) && (current_flight_dynamics->main_rotor_rpm.max != 0.0))

  00ac3	a1 00 00 00 00	 mov	 eax, DWORD PTR ?current_flight_dynamics@@3PAUDYNAMICS_TYPE@@A ; current_flight_dynamics
  00ac8	8b 88 28 25 00
	00		 mov	 ecx, DWORD PTR [eax+9512]
  00ace	c1 e9 05	 shr	 ecx, 5
  00ad1	83 e1 01	 and	 ecx, 1
  00ad4	74 37		 je	 SHORT $LN7@update_att
  00ad6	a1 00 00 00 00	 mov	 eax, DWORD PTR ?current_flight_dynamics@@3PAUDYNAMICS_TYPE@@A ; current_flight_dynamics
  00adb	f3 0f 5a 80 20
	1e 00 00	 cvtss2sd xmm0, DWORD PTR [eax+7712]
  00ae3	66 0f 2e 05 00
	00 00 00	 ucomisd xmm0, QWORD PTR __real@0000000000000000
  00aeb	9f		 lahf
  00aec	f6 c4 44	 test	 ah, 68			; 00000044H
  00aef	7b 1c		 jnp	 SHORT $LN7@update_att

; 1499 : 		{
; 1500 : 
; 1501 : 			front_rotor_force *= main_rotor_rpm_value / current_flight_dynamics->main_rotor_rpm.max;

  00af1	a1 00 00 00 00	 mov	 eax, DWORD PTR ?current_flight_dynamics@@3PAUDYNAMICS_TYPE@@A ; current_flight_dynamics
  00af6	f3 0f 10 45 94	 movss	 xmm0, DWORD PTR _main_rotor_rpm_value$[ebp]
  00afb	f3 0f 5e 80 20
	1e 00 00	 divss	 xmm0, DWORD PTR [eax+7712]
  00b03	f3 0f 59 45 b8	 mulss	 xmm0, DWORD PTR _front_rotor_force$[ebp]
  00b08	f3 0f 11 45 b8	 movss	 DWORD PTR _front_rotor_force$[ebp], xmm0
$LN7@update_att:

; 1502 : 		}
; 1503 : 
; 1504 : 		if (model_landed)

  00b0d	83 7d fc 00	 cmp	 DWORD PTR _model_landed$[ebp], 0
  00b11	74 23		 je	 SHORT $LN8@update_att

; 1505 : 		{
; 1506 : 
; 1507 : 			position.x = 0.0;

  00b13	0f 57 c0	 xorps	 xmm0, xmm0
  00b16	f3 0f 11 85 44
	ff ff ff	 movss	 DWORD PTR _position$[ebp], xmm0

; 1508 : 			position.y = 0.0;

  00b1e	0f 57 c0	 xorps	 xmm0, xmm0
  00b21	f3 0f 11 85 48
	ff ff ff	 movss	 DWORD PTR _position$[ebp+4], xmm0

; 1509 : 			position.z = 0.0;

  00b29	0f 57 c0	 xorps	 xmm0, xmm0
  00b2c	f3 0f 11 85 4c
	ff ff ff	 movss	 DWORD PTR _position$[ebp+8], xmm0

; 1510 : 		}
; 1511 : 		else

  00b34	eb 26		 jmp	 SHORT $LN9@update_att
$LN8@update_att:

; 1512 : 		{
; 1513 : 
; 1514 : 			position.x = 0.0;

  00b36	0f 57 c0	 xorps	 xmm0, xmm0
  00b39	f3 0f 11 85 44
	ff ff ff	 movss	 DWORD PTR _position$[ebp], xmm0

; 1515 : 			position.y = 0.0;

  00b41	0f 57 c0	 xorps	 xmm0, xmm0
  00b44	f3 0f 11 85 48
	ff ff ff	 movss	 DWORD PTR _position$[ebp+4], xmm0

; 1516 : 			position.z = 7.299;

  00b4c	f3 0f 10 05 00
	00 00 00	 movss	 xmm0, DWORD PTR __real@40e99168
  00b54	f3 0f 11 85 4c
	ff ff ff	 movss	 DWORD PTR _position$[ebp+8], xmm0
$LN9@update_att:

; 1517 : 		}
; 1518 : 
; 1519 : 		direction.x = 0.0;

  00b5c	0f 57 c0	 xorps	 xmm0, xmm0
  00b5f	f3 0f 11 85 38
	ff ff ff	 movss	 DWORD PTR _direction$[ebp], xmm0

; 1520 : 		direction.y = 1.0;

  00b67	f3 0f 10 05 00
	00 00 00	 movss	 xmm0, DWORD PTR __real@3f800000
  00b6f	f3 0f 11 85 3c
	ff ff ff	 movss	 DWORD PTR _direction$[ebp+4], xmm0

; 1521 : 		direction.z = 0.0;

  00b77	0f 57 c0	 xorps	 xmm0, xmm0
  00b7a	f3 0f 11 85 40
	ff ff ff	 movss	 DWORD PTR _direction$[ebp+8], xmm0

; 1522 : 
; 1523 : 		add_dynamic_force ("Front rotor force", command_line_dynamics_main_rotor_lift * front_rotor_force, 0.0, &position, &direction, FALSE);

  00b82	6a 00		 push	 0
  00b84	8d 85 38 ff ff
	ff		 lea	 eax, DWORD PTR _direction$[ebp]
  00b8a	50		 push	 eax
  00b8b	8d 8d 44 ff ff
	ff		 lea	 ecx, DWORD PTR _position$[ebp]
  00b91	51		 push	 ecx
  00b92	51		 push	 ecx
  00b93	0f 57 c0	 xorps	 xmm0, xmm0
  00b96	f3 0f 11 04 24	 movss	 DWORD PTR [esp], xmm0
  00b9b	f3 0f 10 05 00
	00 00 00	 movss	 xmm0, DWORD PTR ?command_line_dynamics_main_rotor_lift@@3MA
  00ba3	f3 0f 59 45 b8	 mulss	 xmm0, DWORD PTR _front_rotor_force$[ebp]
  00ba8	51		 push	 ecx
  00ba9	f3 0f 11 04 24	 movss	 DWORD PTR [esp], xmm0
  00bae	68 00 00 00 00	 push	 OFFSET ??_C@_0BC@MEMJFFEH@Front?5rotor?5force@
  00bb3	e8 00 00 00 00	 call	 ?add_dynamic_force@@YGXPBDMMPAUVEC3D@@1H@Z ; add_dynamic_force

; 1524 : 	}
; 1525 : 	////////////////////////////////////////////
; 1526 : 	// back of rotor disc
; 1527 : 	////////////////////////////////////////////
; 1528 : 	{
; 1529 : 
; 1530 : 		angle = main_rotor_pitch_angle_value;

  00bb8	f3 0f 10 45 98	 movss	 xmm0, DWORD PTR _main_rotor_pitch_angle_value$[ebp]
  00bbd	f3 0f 11 45 d4	 movss	 DWORD PTR _angle$[ebp], xmm0

; 1531 : 
; 1532 : 		back_rotor_force = rotor_edge_value -

  00bc2	f3 0f 5a 45 d0	 cvtss2sd xmm0, DWORD PTR _rotor_edge_value$[ebp]
  00bc7	f3 0f 5a 4d d4	 cvtss2sd xmm1, DWORD PTR _angle$[ebp]
  00bcc	f2 0f 59 0d 00
	00 00 00	 mulsd	 xmm1, QWORD PTR __real@3fe3333333333333
  00bd4	a1 00 00 00 00	 mov	 eax, DWORD PTR ?current_flight_dynamics@@3PAUDYNAMICS_TYPE@@A ; current_flight_dynamics
  00bd9	8b 0d 00 00 00
	00		 mov	 ecx, DWORD PTR ?current_flight_dynamics@@3PAUDYNAMICS_TYPE@@A ; current_flight_dynamics
  00bdf	f3 0f 10 90 08
	1e 00 00	 movss	 xmm2, DWORD PTR [eax+7688]
  00be7	f3 0f 5c 91 04
	1e 00 00	 subss	 xmm2, DWORD PTR [ecx+7684]
  00bef	f3 0f 5a d2	 cvtss2sd xmm2, xmm2
  00bf3	f2 0f 5e ca	 divsd	 xmm1, xmm2
  00bf7	f2 0f 5c c1	 subsd	 xmm0, xmm1
  00bfb	8b 15 00 00 00
	00		 mov	 edx, DWORD PTR ?current_flight_dynamics@@3PAUDYNAMICS_TYPE@@A ; current_flight_dynamics
  00c01	f3 0f 5a 8a a8
	1b 00 00	 cvtss2sd xmm1, DWORD PTR [edx+7080]
  00c09	f2 0f 59 0d 00
	00 00 00	 mulsd	 xmm1, QWORD PTR __real@3fc999999999999a
  00c11	a1 00 00 00 00	 mov	 eax, DWORD PTR ?current_flight_dynamics@@3PAUDYNAMICS_TYPE@@A ; current_flight_dynamics
  00c16	8b 0d 00 00 00
	00		 mov	 ecx, DWORD PTR ?current_flight_dynamics@@3PAUDYNAMICS_TYPE@@A ; current_flight_dynamics
  00c1c	f3 0f 10 90 b4
	1b 00 00	 movss	 xmm2, DWORD PTR [eax+7092]
  00c24	f3 0f 5c 91 b0
	1b 00 00	 subss	 xmm2, DWORD PTR [ecx+7088]
  00c2c	f3 0f 5a d2	 cvtss2sd xmm2, xmm2
  00c30	f2 0f 5e ca	 divsd	 xmm1, xmm2
  00c34	f2 0f 58 c1	 addsd	 xmm0, xmm1
  00c38	f2 0f 5a c0	 cvtsd2ss xmm0, xmm0
  00c3c	f3 0f 11 45 b4	 movss	 DWORD PTR _back_rotor_force$[ebp], xmm0

; 1533 : 				(0.6 * angle) / (current_flight_dynamics->main_rotor_pitch_angle.max - current_flight_dynamics->main_rotor_pitch_angle.min) +
; 1534 : 				(0.2 * current_flight_dynamics->input_data.collective.value) / (current_flight_dynamics->input_data.collective.max - current_flight_dynamics->input_data.collective.min);
; 1535 : 
; 1536 : 		if ((current_flight_dynamics->rotor_brake) && (current_flight_dynamics->main_rotor_rpm.max != 0.0))

  00c41	a1 00 00 00 00	 mov	 eax, DWORD PTR ?current_flight_dynamics@@3PAUDYNAMICS_TYPE@@A ; current_flight_dynamics
  00c46	8b 88 28 25 00
	00		 mov	 ecx, DWORD PTR [eax+9512]
  00c4c	c1 e9 05	 shr	 ecx, 5
  00c4f	83 e1 01	 and	 ecx, 1
  00c52	74 37		 je	 SHORT $LN10@update_att
  00c54	a1 00 00 00 00	 mov	 eax, DWORD PTR ?current_flight_dynamics@@3PAUDYNAMICS_TYPE@@A ; current_flight_dynamics
  00c59	f3 0f 5a 80 20
	1e 00 00	 cvtss2sd xmm0, DWORD PTR [eax+7712]
  00c61	66 0f 2e 05 00
	00 00 00	 ucomisd xmm0, QWORD PTR __real@0000000000000000
  00c69	9f		 lahf
  00c6a	f6 c4 44	 test	 ah, 68			; 00000044H
  00c6d	7b 1c		 jnp	 SHORT $LN10@update_att

; 1537 : 		{
; 1538 : 
; 1539 : 			back_rotor_force *= main_rotor_rpm_value / current_flight_dynamics->main_rotor_rpm.max;

  00c6f	a1 00 00 00 00	 mov	 eax, DWORD PTR ?current_flight_dynamics@@3PAUDYNAMICS_TYPE@@A ; current_flight_dynamics
  00c74	f3 0f 10 45 94	 movss	 xmm0, DWORD PTR _main_rotor_rpm_value$[ebp]
  00c79	f3 0f 5e 80 20
	1e 00 00	 divss	 xmm0, DWORD PTR [eax+7712]
  00c81	f3 0f 59 45 b4	 mulss	 xmm0, DWORD PTR _back_rotor_force$[ebp]
  00c86	f3 0f 11 45 b4	 movss	 DWORD PTR _back_rotor_force$[ebp], xmm0
$LN10@update_att:

; 1540 : 		}
; 1541 : 
; 1542 : 		if (model_landed)

  00c8b	83 7d fc 00	 cmp	 DWORD PTR _model_landed$[ebp], 0
  00c8f	74 23		 je	 SHORT $LN11@update_att

; 1543 : 		{
; 1544 : 
; 1545 : 			position.x = 0.0;

  00c91	0f 57 c0	 xorps	 xmm0, xmm0
  00c94	f3 0f 11 85 44
	ff ff ff	 movss	 DWORD PTR _position$[ebp], xmm0

; 1546 : 			position.y = 0.0;

  00c9c	0f 57 c0	 xorps	 xmm0, xmm0
  00c9f	f3 0f 11 85 48
	ff ff ff	 movss	 DWORD PTR _position$[ebp+4], xmm0

; 1547 : 			position.z = 0.0;

  00ca7	0f 57 c0	 xorps	 xmm0, xmm0
  00caa	f3 0f 11 85 4c
	ff ff ff	 movss	 DWORD PTR _position$[ebp+8], xmm0

; 1548 : 		}
; 1549 : 		else

  00cb2	eb 26		 jmp	 SHORT $LN12@update_att
$LN11@update_att:

; 1550 : 		{
; 1551 : 
; 1552 : 			position.x = 0.0;

  00cb4	0f 57 c0	 xorps	 xmm0, xmm0
  00cb7	f3 0f 11 85 44
	ff ff ff	 movss	 DWORD PTR _position$[ebp], xmm0

; 1553 : 			position.y = 0.0;

  00cbf	0f 57 c0	 xorps	 xmm0, xmm0
  00cc2	f3 0f 11 85 48
	ff ff ff	 movss	 DWORD PTR _position$[ebp+4], xmm0

; 1554 : 			position.z = -7.299;

  00cca	f3 0f 10 05 00
	00 00 00	 movss	 xmm0, DWORD PTR __real@c0e99168
  00cd2	f3 0f 11 85 4c
	ff ff ff	 movss	 DWORD PTR _position$[ebp+8], xmm0
$LN12@update_att:

; 1555 : 		}
; 1556 : 
; 1557 : 		direction.x = 0.0;

  00cda	0f 57 c0	 xorps	 xmm0, xmm0
  00cdd	f3 0f 11 85 38
	ff ff ff	 movss	 DWORD PTR _direction$[ebp], xmm0

; 1558 : 		direction.y = 1.0;

  00ce5	f3 0f 10 05 00
	00 00 00	 movss	 xmm0, DWORD PTR __real@3f800000
  00ced	f3 0f 11 85 3c
	ff ff ff	 movss	 DWORD PTR _direction$[ebp+4], xmm0

; 1559 : 		direction.z = 0.0;

  00cf5	0f 57 c0	 xorps	 xmm0, xmm0
  00cf8	f3 0f 11 85 40
	ff ff ff	 movss	 DWORD PTR _direction$[ebp+8], xmm0

; 1560 : 
; 1561 : 		add_dynamic_force ("Back rotor force", command_line_dynamics_main_rotor_lift * back_rotor_force, 0.0, &position, &direction, FALSE);

  00d00	6a 00		 push	 0
  00d02	8d 85 38 ff ff
	ff		 lea	 eax, DWORD PTR _direction$[ebp]
  00d08	50		 push	 eax
  00d09	8d 8d 44 ff ff
	ff		 lea	 ecx, DWORD PTR _position$[ebp]
  00d0f	51		 push	 ecx
  00d10	51		 push	 ecx
  00d11	0f 57 c0	 xorps	 xmm0, xmm0
  00d14	f3 0f 11 04 24	 movss	 DWORD PTR [esp], xmm0
  00d19	f3 0f 10 05 00
	00 00 00	 movss	 xmm0, DWORD PTR ?command_line_dynamics_main_rotor_lift@@3MA
  00d21	f3 0f 59 45 b4	 mulss	 xmm0, DWORD PTR _back_rotor_force$[ebp]
  00d26	51		 push	 ecx
  00d27	f3 0f 11 04 24	 movss	 DWORD PTR [esp], xmm0
  00d2c	68 00 00 00 00	 push	 OFFSET ??_C@_0BB@LJEAAOI@Back?5rotor?5force@
  00d31	e8 00 00 00 00	 call	 ?add_dynamic_force@@YGXPBDMMPAUVEC3D@@1H@Z ; add_dynamic_force

; 1562 : 	}
; 1563 : 	////////////////////////////////////////////
; 1564 : 	// left of rotor disc
; 1565 : 	////////////////////////////////////////////
; 1566 : 	{
; 1567 : 
; 1568 : 		angle = main_rotor_roll_angle_value;

  00d36	f3 0f 10 45 90	 movss	 xmm0, DWORD PTR _main_rotor_roll_angle_value$[ebp]
  00d3b	f3 0f 11 45 d4	 movss	 DWORD PTR _angle$[ebp], xmm0

; 1569 : 
; 1570 : 		left_rotor_force = rotor_edge_value -

  00d40	f3 0f 5a 45 d0	 cvtss2sd xmm0, DWORD PTR _rotor_edge_value$[ebp]
  00d45	f3 0f 5a 4d d4	 cvtss2sd xmm1, DWORD PTR _angle$[ebp]
  00d4a	f2 0f 59 0d 00
	00 00 00	 mulsd	 xmm1, QWORD PTR __real@3fe3333333333333
  00d52	a1 00 00 00 00	 mov	 eax, DWORD PTR ?current_flight_dynamics@@3PAUDYNAMICS_TYPE@@A ; current_flight_dynamics
  00d57	8b 0d 00 00 00
	00		 mov	 ecx, DWORD PTR ?current_flight_dynamics@@3PAUDYNAMICS_TYPE@@A ; current_flight_dynamics
  00d5d	f3 0f 10 90 f0
	1d 00 00	 movss	 xmm2, DWORD PTR [eax+7664]
  00d65	f3 0f 5c 91 ec
	1d 00 00	 subss	 xmm2, DWORD PTR [ecx+7660]
  00d6d	f3 0f 5a d2	 cvtss2sd xmm2, xmm2
  00d71	f2 0f 5e ca	 divsd	 xmm1, xmm2
  00d75	f2 0f 5c c1	 subsd	 xmm0, xmm1
  00d79	8b 15 00 00 00
	00		 mov	 edx, DWORD PTR ?current_flight_dynamics@@3PAUDYNAMICS_TYPE@@A ; current_flight_dynamics
  00d7f	f3 0f 5a 8a a8
	1b 00 00	 cvtss2sd xmm1, DWORD PTR [edx+7080]
  00d87	f2 0f 59 0d 00
	00 00 00	 mulsd	 xmm1, QWORD PTR __real@3fc999999999999a
  00d8f	a1 00 00 00 00	 mov	 eax, DWORD PTR ?current_flight_dynamics@@3PAUDYNAMICS_TYPE@@A ; current_flight_dynamics
  00d94	8b 0d 00 00 00
	00		 mov	 ecx, DWORD PTR ?current_flight_dynamics@@3PAUDYNAMICS_TYPE@@A ; current_flight_dynamics
  00d9a	f3 0f 10 90 b4
	1b 00 00	 movss	 xmm2, DWORD PTR [eax+7092]
  00da2	f3 0f 5c 91 b0
	1b 00 00	 subss	 xmm2, DWORD PTR [ecx+7088]
  00daa	f3 0f 5a d2	 cvtss2sd xmm2, xmm2
  00dae	f2 0f 5e ca	 divsd	 xmm1, xmm2
  00db2	f2 0f 58 c1	 addsd	 xmm0, xmm1
  00db6	f2 0f 5a c0	 cvtsd2ss xmm0, xmm0
  00dba	f3 0f 11 45 b0	 movss	 DWORD PTR _left_rotor_force$[ebp], xmm0

; 1571 : 				(0.6 * angle) / (current_flight_dynamics->main_rotor_roll_angle.max - current_flight_dynamics->main_rotor_roll_angle.min) +
; 1572 : 				(0.2 * current_flight_dynamics->input_data.collective.value) / (current_flight_dynamics->input_data.collective.max - current_flight_dynamics->input_data.collective.min);
; 1573 : 
; 1574 : 		if ((current_flight_dynamics->rotor_brake) && (current_flight_dynamics->main_rotor_rpm.max != 0.0))

  00dbf	a1 00 00 00 00	 mov	 eax, DWORD PTR ?current_flight_dynamics@@3PAUDYNAMICS_TYPE@@A ; current_flight_dynamics
  00dc4	8b 88 28 25 00
	00		 mov	 ecx, DWORD PTR [eax+9512]
  00dca	c1 e9 05	 shr	 ecx, 5
  00dcd	83 e1 01	 and	 ecx, 1
  00dd0	74 37		 je	 SHORT $LN13@update_att
  00dd2	a1 00 00 00 00	 mov	 eax, DWORD PTR ?current_flight_dynamics@@3PAUDYNAMICS_TYPE@@A ; current_flight_dynamics
  00dd7	f3 0f 5a 80 20
	1e 00 00	 cvtss2sd xmm0, DWORD PTR [eax+7712]
  00ddf	66 0f 2e 05 00
	00 00 00	 ucomisd xmm0, QWORD PTR __real@0000000000000000
  00de7	9f		 lahf
  00de8	f6 c4 44	 test	 ah, 68			; 00000044H
  00deb	7b 1c		 jnp	 SHORT $LN13@update_att

; 1575 : 		{
; 1576 : 
; 1577 : 			left_rotor_force *= main_rotor_rpm_value / current_flight_dynamics->main_rotor_rpm.max;

  00ded	a1 00 00 00 00	 mov	 eax, DWORD PTR ?current_flight_dynamics@@3PAUDYNAMICS_TYPE@@A ; current_flight_dynamics
  00df2	f3 0f 10 45 94	 movss	 xmm0, DWORD PTR _main_rotor_rpm_value$[ebp]
  00df7	f3 0f 5e 80 20
	1e 00 00	 divss	 xmm0, DWORD PTR [eax+7712]
  00dff	f3 0f 59 45 b0	 mulss	 xmm0, DWORD PTR _left_rotor_force$[ebp]
  00e04	f3 0f 11 45 b0	 movss	 DWORD PTR _left_rotor_force$[ebp], xmm0
$LN13@update_att:

; 1578 : 		}
; 1579 : 
; 1580 : 		if (model_landed)

  00e09	83 7d fc 00	 cmp	 DWORD PTR _model_landed$[ebp], 0
  00e0d	74 23		 je	 SHORT $LN14@update_att

; 1581 : 		{
; 1582 : 
; 1583 : 			position.x = 0.0;

  00e0f	0f 57 c0	 xorps	 xmm0, xmm0
  00e12	f3 0f 11 85 44
	ff ff ff	 movss	 DWORD PTR _position$[ebp], xmm0

; 1584 : 			position.y = 0.0;

  00e1a	0f 57 c0	 xorps	 xmm0, xmm0
  00e1d	f3 0f 11 85 48
	ff ff ff	 movss	 DWORD PTR _position$[ebp+4], xmm0

; 1585 : 			position.z = 0.0;

  00e25	0f 57 c0	 xorps	 xmm0, xmm0
  00e28	f3 0f 11 85 4c
	ff ff ff	 movss	 DWORD PTR _position$[ebp+8], xmm0

; 1586 : 		}
; 1587 : 		else

  00e30	eb 26		 jmp	 SHORT $LN15@update_att
$LN14@update_att:

; 1588 : 		{
; 1589 : 
; 1590 : 			position.x = 7.299;

  00e32	f3 0f 10 05 00
	00 00 00	 movss	 xmm0, DWORD PTR __real@40e99168
  00e3a	f3 0f 11 85 44
	ff ff ff	 movss	 DWORD PTR _position$[ebp], xmm0

; 1591 : 			position.y = 0.0;

  00e42	0f 57 c0	 xorps	 xmm0, xmm0
  00e45	f3 0f 11 85 48
	ff ff ff	 movss	 DWORD PTR _position$[ebp+4], xmm0

; 1592 : 			position.z = 0.0;

  00e4d	0f 57 c0	 xorps	 xmm0, xmm0
  00e50	f3 0f 11 85 4c
	ff ff ff	 movss	 DWORD PTR _position$[ebp+8], xmm0
$LN15@update_att:

; 1593 : 		}
; 1594 : 
; 1595 : 		direction.x = 0.0;

  00e58	0f 57 c0	 xorps	 xmm0, xmm0
  00e5b	f3 0f 11 85 38
	ff ff ff	 movss	 DWORD PTR _direction$[ebp], xmm0

; 1596 : 		direction.y = 1.0;

  00e63	f3 0f 10 05 00
	00 00 00	 movss	 xmm0, DWORD PTR __real@3f800000
  00e6b	f3 0f 11 85 3c
	ff ff ff	 movss	 DWORD PTR _direction$[ebp+4], xmm0

; 1597 : 		direction.z = 0.0;

  00e73	0f 57 c0	 xorps	 xmm0, xmm0
  00e76	f3 0f 11 85 40
	ff ff ff	 movss	 DWORD PTR _direction$[ebp+8], xmm0

; 1598 : 
; 1599 : 		add_dynamic_force ("Left rotor force", command_line_dynamics_main_rotor_lift * left_rotor_force, 0.0, &position, &direction, FALSE);

  00e7e	6a 00		 push	 0
  00e80	8d 85 38 ff ff
	ff		 lea	 eax, DWORD PTR _direction$[ebp]
  00e86	50		 push	 eax
  00e87	8d 8d 44 ff ff
	ff		 lea	 ecx, DWORD PTR _position$[ebp]
  00e8d	51		 push	 ecx
  00e8e	51		 push	 ecx
  00e8f	0f 57 c0	 xorps	 xmm0, xmm0
  00e92	f3 0f 11 04 24	 movss	 DWORD PTR [esp], xmm0
  00e97	f3 0f 10 05 00
	00 00 00	 movss	 xmm0, DWORD PTR ?command_line_dynamics_main_rotor_lift@@3MA
  00e9f	f3 0f 59 45 b0	 mulss	 xmm0, DWORD PTR _left_rotor_force$[ebp]
  00ea4	51		 push	 ecx
  00ea5	f3 0f 11 04 24	 movss	 DWORD PTR [esp], xmm0
  00eaa	68 00 00 00 00	 push	 OFFSET ??_C@_0BB@JNCAICOI@Left?5rotor?5force@
  00eaf	e8 00 00 00 00	 call	 ?add_dynamic_force@@YGXPBDMMPAUVEC3D@@1H@Z ; add_dynamic_force

; 1600 : 	}
; 1601 : 	////////////////////////////////////////////
; 1602 : 	// right of rotor disc
; 1603 : 	////////////////////////////////////////////
; 1604 : 	{
; 1605 : 
; 1606 : 		angle = main_rotor_roll_angle_value;

  00eb4	f3 0f 10 45 90	 movss	 xmm0, DWORD PTR _main_rotor_roll_angle_value$[ebp]
  00eb9	f3 0f 11 45 d4	 movss	 DWORD PTR _angle$[ebp], xmm0

; 1607 : 
; 1608 : 		right_rotor_force = rotor_edge_value +

  00ebe	f3 0f 5a 45 d0	 cvtss2sd xmm0, DWORD PTR _rotor_edge_value$[ebp]
  00ec3	f3 0f 5a 4d d4	 cvtss2sd xmm1, DWORD PTR _angle$[ebp]
  00ec8	f2 0f 59 0d 00
	00 00 00	 mulsd	 xmm1, QWORD PTR __real@3fe3333333333333
  00ed0	a1 00 00 00 00	 mov	 eax, DWORD PTR ?current_flight_dynamics@@3PAUDYNAMICS_TYPE@@A ; current_flight_dynamics
  00ed5	8b 0d 00 00 00
	00		 mov	 ecx, DWORD PTR ?current_flight_dynamics@@3PAUDYNAMICS_TYPE@@A ; current_flight_dynamics
  00edb	f3 0f 10 90 f0
	1d 00 00	 movss	 xmm2, DWORD PTR [eax+7664]
  00ee3	f3 0f 5c 91 ec
	1d 00 00	 subss	 xmm2, DWORD PTR [ecx+7660]
  00eeb	f3 0f 5a d2	 cvtss2sd xmm2, xmm2
  00eef	f2 0f 5e ca	 divsd	 xmm1, xmm2
  00ef3	f2 0f 58 c1	 addsd	 xmm0, xmm1
  00ef7	8b 15 00 00 00
	00		 mov	 edx, DWORD PTR ?current_flight_dynamics@@3PAUDYNAMICS_TYPE@@A ; current_flight_dynamics
  00efd	f3 0f 5a 8a a8
	1b 00 00	 cvtss2sd xmm1, DWORD PTR [edx+7080]
  00f05	f2 0f 59 0d 00
	00 00 00	 mulsd	 xmm1, QWORD PTR __real@3fc999999999999a
  00f0d	a1 00 00 00 00	 mov	 eax, DWORD PTR ?current_flight_dynamics@@3PAUDYNAMICS_TYPE@@A ; current_flight_dynamics
  00f12	8b 0d 00 00 00
	00		 mov	 ecx, DWORD PTR ?current_flight_dynamics@@3PAUDYNAMICS_TYPE@@A ; current_flight_dynamics
  00f18	f3 0f 10 90 b4
	1b 00 00	 movss	 xmm2, DWORD PTR [eax+7092]
  00f20	f3 0f 5c 91 b0
	1b 00 00	 subss	 xmm2, DWORD PTR [ecx+7088]
  00f28	f3 0f 5a d2	 cvtss2sd xmm2, xmm2
  00f2c	f2 0f 5e ca	 divsd	 xmm1, xmm2
  00f30	f2 0f 58 c1	 addsd	 xmm0, xmm1
  00f34	f2 0f 5a c0	 cvtsd2ss xmm0, xmm0
  00f38	f3 0f 11 45 ac	 movss	 DWORD PTR _right_rotor_force$[ebp], xmm0

; 1609 : 				(0.6 * angle) / (current_flight_dynamics->main_rotor_roll_angle.max - current_flight_dynamics->main_rotor_roll_angle.min) +
; 1610 : 				(0.2 * current_flight_dynamics->input_data.collective.value) / (current_flight_dynamics->input_data.collective.max - current_flight_dynamics->input_data.collective.min);
; 1611 : 
; 1612 : 		if ((current_flight_dynamics->rotor_brake) && (current_flight_dynamics->main_rotor_rpm.max != 0.0))

  00f3d	a1 00 00 00 00	 mov	 eax, DWORD PTR ?current_flight_dynamics@@3PAUDYNAMICS_TYPE@@A ; current_flight_dynamics
  00f42	8b 88 28 25 00
	00		 mov	 ecx, DWORD PTR [eax+9512]
  00f48	c1 e9 05	 shr	 ecx, 5
  00f4b	83 e1 01	 and	 ecx, 1
  00f4e	74 37		 je	 SHORT $LN16@update_att
  00f50	a1 00 00 00 00	 mov	 eax, DWORD PTR ?current_flight_dynamics@@3PAUDYNAMICS_TYPE@@A ; current_flight_dynamics
  00f55	f3 0f 5a 80 20
	1e 00 00	 cvtss2sd xmm0, DWORD PTR [eax+7712]
  00f5d	66 0f 2e 05 00
	00 00 00	 ucomisd xmm0, QWORD PTR __real@0000000000000000
  00f65	9f		 lahf
  00f66	f6 c4 44	 test	 ah, 68			; 00000044H
  00f69	7b 1c		 jnp	 SHORT $LN16@update_att

; 1613 : 		{
; 1614 : 
; 1615 : 			right_rotor_force *= main_rotor_rpm_value / current_flight_dynamics->main_rotor_rpm.max;

  00f6b	a1 00 00 00 00	 mov	 eax, DWORD PTR ?current_flight_dynamics@@3PAUDYNAMICS_TYPE@@A ; current_flight_dynamics
  00f70	f3 0f 10 45 94	 movss	 xmm0, DWORD PTR _main_rotor_rpm_value$[ebp]
  00f75	f3 0f 5e 80 20
	1e 00 00	 divss	 xmm0, DWORD PTR [eax+7712]
  00f7d	f3 0f 59 45 ac	 mulss	 xmm0, DWORD PTR _right_rotor_force$[ebp]
  00f82	f3 0f 11 45 ac	 movss	 DWORD PTR _right_rotor_force$[ebp], xmm0
$LN16@update_att:

; 1616 : 		}
; 1617 : 
; 1618 : 		if (model_landed)

  00f87	83 7d fc 00	 cmp	 DWORD PTR _model_landed$[ebp], 0
  00f8b	74 23		 je	 SHORT $LN17@update_att

; 1619 : 		{
; 1620 : 
; 1621 : 			position.x = 0.0;

  00f8d	0f 57 c0	 xorps	 xmm0, xmm0
  00f90	f3 0f 11 85 44
	ff ff ff	 movss	 DWORD PTR _position$[ebp], xmm0

; 1622 : 			position.y = 0.0;

  00f98	0f 57 c0	 xorps	 xmm0, xmm0
  00f9b	f3 0f 11 85 48
	ff ff ff	 movss	 DWORD PTR _position$[ebp+4], xmm0

; 1623 : 			position.z = 0.0;

  00fa3	0f 57 c0	 xorps	 xmm0, xmm0
  00fa6	f3 0f 11 85 4c
	ff ff ff	 movss	 DWORD PTR _position$[ebp+8], xmm0

; 1624 : 		}
; 1625 : 		else

  00fae	eb 26		 jmp	 SHORT $LN18@update_att
$LN17@update_att:

; 1626 : 		{
; 1627 : 
; 1628 : 			position.x = -7.299;

  00fb0	f3 0f 10 05 00
	00 00 00	 movss	 xmm0, DWORD PTR __real@c0e99168
  00fb8	f3 0f 11 85 44
	ff ff ff	 movss	 DWORD PTR _position$[ebp], xmm0

; 1629 : 			position.y = 0.0;

  00fc0	0f 57 c0	 xorps	 xmm0, xmm0
  00fc3	f3 0f 11 85 48
	ff ff ff	 movss	 DWORD PTR _position$[ebp+4], xmm0

; 1630 : 			position.z = 0.0;

  00fcb	0f 57 c0	 xorps	 xmm0, xmm0
  00fce	f3 0f 11 85 4c
	ff ff ff	 movss	 DWORD PTR _position$[ebp+8], xmm0
$LN18@update_att:

; 1631 : 		}
; 1632 : 
; 1633 : 		direction.x = 0.0;

  00fd6	0f 57 c0	 xorps	 xmm0, xmm0
  00fd9	f3 0f 11 85 38
	ff ff ff	 movss	 DWORD PTR _direction$[ebp], xmm0

; 1634 : 		direction.y = 1.0;

  00fe1	f3 0f 10 05 00
	00 00 00	 movss	 xmm0, DWORD PTR __real@3f800000
  00fe9	f3 0f 11 85 3c
	ff ff ff	 movss	 DWORD PTR _direction$[ebp+4], xmm0

; 1635 : 		direction.z = 0.0;

  00ff1	0f 57 c0	 xorps	 xmm0, xmm0
  00ff4	f3 0f 11 85 40
	ff ff ff	 movss	 DWORD PTR _direction$[ebp+8], xmm0

; 1636 : 
; 1637 : 		add_dynamic_force ("Right rotor force", command_line_dynamics_main_rotor_lift * right_rotor_force, 0.0, &position, &direction, FALSE);

  00ffc	6a 00		 push	 0
  00ffe	8d 85 38 ff ff
	ff		 lea	 eax, DWORD PTR _direction$[ebp]
  01004	50		 push	 eax
  01005	8d 8d 44 ff ff
	ff		 lea	 ecx, DWORD PTR _position$[ebp]
  0100b	51		 push	 ecx
  0100c	51		 push	 ecx
  0100d	0f 57 c0	 xorps	 xmm0, xmm0
  01010	f3 0f 11 04 24	 movss	 DWORD PTR [esp], xmm0
  01015	f3 0f 10 05 00
	00 00 00	 movss	 xmm0, DWORD PTR ?command_line_dynamics_main_rotor_lift@@3MA
  0101d	f3 0f 59 45 ac	 mulss	 xmm0, DWORD PTR _right_rotor_force$[ebp]
  01022	51		 push	 ecx
  01023	f3 0f 11 04 24	 movss	 DWORD PTR [esp], xmm0
  01028	68 00 00 00 00	 push	 OFFSET ??_C@_0BC@BCPABIID@Right?5rotor?5force@
  0102d	e8 00 00 00 00	 call	 ?add_dynamic_force@@YGXPBDMMPAUVEC3D@@1H@Z ; add_dynamic_force

; 1638 : 	}
; 1639 : 	////////////////////////////////////////////
; 1640 : 	// tail rotor disc
; 1641 : 	////////////////////////////////////////////
; 1642 : 	{
; 1643 : 
; 1644 : 		tail_angular_force = tail_rotor_induced_air_value * current_flight_dynamics->tail_boom_length.value;

  01032	a1 00 00 00 00	 mov	 eax, DWORD PTR ?current_flight_dynamics@@3PAUDYNAMICS_TYPE@@A ; current_flight_dynamics
  01037	f3 0f 10 45 8c	 movss	 xmm0, DWORD PTR _tail_rotor_induced_air_value$[ebp]
  0103c	f3 0f 59 80 ac
	1f 00 00	 mulss	 xmm0, DWORD PTR [eax+8108]
  01044	f3 0f 11 45 a0	 movss	 DWORD PTR _tail_angular_force$[ebp], xmm0

; 1645 : 		tail_angular_force *= heading_inertia_value;

  01049	f3 0f 10 45 a0	 movss	 xmm0, DWORD PTR _tail_angular_force$[ebp]
  0104e	f3 0f 59 45 88	 mulss	 xmm0, DWORD PTR _heading_inertia_value$[ebp]
  01053	f3 0f 11 45 a0	 movss	 DWORD PTR _tail_angular_force$[ebp], xmm0

; 1646 : 
; 1647 : 		position.x = 0.0;

  01058	0f 57 c0	 xorps	 xmm0, xmm0
  0105b	f3 0f 11 85 44
	ff ff ff	 movss	 DWORD PTR _position$[ebp], xmm0

; 1648 : 		position.y = -0.08022;

  01063	f3 0f 10 05 00
	00 00 00	 movss	 xmm0, DWORD PTR __real@bda44a62
  0106b	f3 0f 11 85 48
	ff ff ff	 movss	 DWORD PTR _position$[ebp+4], xmm0

; 1649 : 		position.z = -current_flight_dynamics->tail_boom_length.value;

  01073	a1 00 00 00 00	 mov	 eax, DWORD PTR ?current_flight_dynamics@@3PAUDYNAMICS_TYPE@@A ; current_flight_dynamics
  01078	f3 0f 10 80 ac
	1f 00 00	 movss	 xmm0, DWORD PTR [eax+8108]
  01080	0f 57 05 00 00
	00 00		 xorps	 xmm0, DWORD PTR __xmm@80000000800000008000000080000000
  01087	f3 0f 11 85 4c
	ff ff ff	 movss	 DWORD PTR _position$[ebp+8], xmm0

; 1650 : 
; 1651 : 		direction.x = -current_flight_dynamics->rotor_rotation_direction;

  0108f	a1 00 00 00 00	 mov	 eax, DWORD PTR ?current_flight_dynamics@@3PAUDYNAMICS_TYPE@@A ; current_flight_dynamics
  01094	0f bf 88 1c 25
	00 00		 movsx	 ecx, WORD PTR [eax+9500]
  0109b	f7 d9		 neg	 ecx
  0109d	f3 0f 2a c1	 cvtsi2ss xmm0, ecx
  010a1	f3 0f 11 85 38
	ff ff ff	 movss	 DWORD PTR _direction$[ebp], xmm0

; 1652 : 		direction.y = 0.0;

  010a9	0f 57 c0	 xorps	 xmm0, xmm0
  010ac	f3 0f 11 85 3c
	ff ff ff	 movss	 DWORD PTR _direction$[ebp+4], xmm0

; 1653 : 		direction.z = 0.0;

  010b4	0f 57 c0	 xorps	 xmm0, xmm0
  010b7	f3 0f 11 85 40
	ff ff ff	 movss	 DWORD PTR _direction$[ebp+8], xmm0

; 1654 : 
; 1655 : 		if (model_landed)

  010bf	83 7d fc 00	 cmp	 DWORD PTR _model_landed$[ebp], 0
  010c3	0f 84 97 00 00
	00		 je	 $LN21@update_att

; 1656 : 		{
; 1657 : 
; 1658 : 			position.y = 0.0;

  010c9	0f 57 c0	 xorps	 xmm0, xmm0
  010cc	f3 0f 11 85 48
	ff ff ff	 movss	 DWORD PTR _position$[ebp+4], xmm0

; 1659 : 
; 1660 : 			if ((current_flight_dynamics->input_data.pedal_input_pressure != PEDAL_PRESSURE_LEFT) &&

  010d4	a1 00 00 00 00	 mov	 eax, DWORD PTR ?current_flight_dynamics@@3PAUDYNAMICS_TYPE@@A ; current_flight_dynamics
  010d9	83 b8 20 1c 00
	00 01		 cmp	 DWORD PTR [eax+7200], 1
  010e0	74 18		 je	 SHORT $LN20@update_att
  010e2	a1 00 00 00 00	 mov	 eax, DWORD PTR ?current_flight_dynamics@@3PAUDYNAMICS_TYPE@@A ; current_flight_dynamics
  010e7	83 b8 20 1c 00
	00 02		 cmp	 DWORD PTR [eax+7200], 2
  010ee	74 0a		 je	 SHORT $LN20@update_att

; 1661 : 				(current_flight_dynamics->input_data.pedal_input_pressure != PEDAL_PRESSURE_RIGHT))
; 1662 : 			{
; 1663 : 
; 1664 : 				tail_angular_force = 0.0;

  010f0	0f 57 c0	 xorps	 xmm0, xmm0
  010f3	f3 0f 11 45 a0	 movss	 DWORD PTR _tail_angular_force$[ebp], xmm0

; 1665 : 			}
; 1666 : 			else

  010f8	eb 66		 jmp	 SHORT $LN21@update_att
$LN20@update_att:

; 1667 : 			{
; 1668 : 
; 1669 : 				tail_angular_force *= min (fabs (velocity_z_value) / 15.0, 1.0);

  010fa	f2 0f 10 05 00
	00 00 00	 movsd	 xmm0, QWORD PTR __real@3ff0000000000000
  01102	f2 0f 11 85 70
	fd ff ff	 movsd	 QWORD PTR $T16[ebp], xmm0
  0110a	51		 push	 ecx
  0110b	f3 0f 10 85 70
	ff ff ff	 movss	 xmm0, DWORD PTR _velocity_z_value$[ebp]
  01113	f3 0f 11 04 24	 movss	 DWORD PTR [esp], xmm0
  01118	e8 00 00 00 00	 call	 ?fabs@@YGMM@Z		; fabs
  0111d	dd 9d 18 fd ff
	ff		 fstp	 QWORD PTR tv2632[ebp]
  01123	f2 0f 10 85 18
	fd ff ff	 movsd	 xmm0, QWORD PTR tv2632[ebp]
  0112b	f2 0f 5e 05 00
	00 00 00	 divsd	 xmm0, QWORD PTR __real@402e000000000000
  01133	f2 0f 11 85 68
	fd ff ff	 movsd	 QWORD PTR $T15[ebp], xmm0
  0113b	8d 85 70 fd ff
	ff		 lea	 eax, DWORD PTR $T16[ebp]
  01141	50		 push	 eax
  01142	8d 8d 68 fd ff
	ff		 lea	 ecx, DWORD PTR $T15[ebp]
  01148	51		 push	 ecx
  01149	e8 00 00 00 00	 call	 ??$min@N@std@@YGABNABN0@Z ; std::min<double>
  0114e	f3 0f 5a 45 a0	 cvtss2sd xmm0, DWORD PTR _tail_angular_force$[ebp]
  01153	f2 0f 59 00	 mulsd	 xmm0, QWORD PTR [eax]
  01157	f2 0f 5a c0	 cvtsd2ss xmm0, xmm0
  0115b	f3 0f 11 45 a0	 movss	 DWORD PTR _tail_angular_force$[ebp], xmm0
$LN21@update_att:

; 1670 : 			}
; 1671 : 		}
; 1672 : 
; 1673 : 		add_dynamic_force ("Angular tail rotor force", tail_angular_force, 0.0, &position, &direction, FALSE);

  01160	6a 00		 push	 0
  01162	8d 85 38 ff ff
	ff		 lea	 eax, DWORD PTR _direction$[ebp]
  01168	50		 push	 eax
  01169	8d 8d 44 ff ff
	ff		 lea	 ecx, DWORD PTR _position$[ebp]
  0116f	51		 push	 ecx
  01170	51		 push	 ecx
  01171	0f 57 c0	 xorps	 xmm0, xmm0
  01174	f3 0f 11 04 24	 movss	 DWORD PTR [esp], xmm0
  01179	51		 push	 ecx
  0117a	f3 0f 10 45 a0	 movss	 xmm0, DWORD PTR _tail_angular_force$[ebp]
  0117f	f3 0f 11 04 24	 movss	 DWORD PTR [esp], xmm0
  01184	68 00 00 00 00	 push	 OFFSET ??_C@_0BJ@INGIGFJO@Angular?5tail?5rotor?5force@
  01189	e8 00 00 00 00	 call	 ?add_dynamic_force@@YGXPBDMMPAUVEC3D@@1H@Z ; add_dynamic_force

; 1674 : 	}
; 1675 : 
; 1676 : 	////////////////////////////////////////////
; 1677 : 	// gravity
; 1678 : 	////////////////////////////////////////////
; 1679 : 	{
; 1680 : 
; 1681 : 		float
; 1682 : 			mass_percentage;
; 1683 : 
; 1684 : 		set_flight_dynamics_mass ();

  0118e	e8 00 00 00 00	 call	 ?set_flight_dynamics_mass@@YGMXZ ; set_flight_dynamics_mass
  01193	dd d8		 fstp	 ST(0)

; 1685 : 
; 1686 : 		mass_percentage = current_flight_dynamics->mass.value;

  01195	a1 00 00 00 00	 mov	 eax, DWORD PTR ?current_flight_dynamics@@3PAUDYNAMICS_TYPE@@A ; current_flight_dynamics
  0119a	f3 0f 10 80 b4
	23 00 00	 movss	 xmm0, DWORD PTR [eax+9140]
  011a2	f3 0f 11 85 1c
	ff ff ff	 movss	 DWORD PTR _mass_percentage$62[ebp], xmm0

; 1687 : 		mass_percentage /= (current_flight_dynamics->mass.min + current_flight_dynamics->fuel_weight.max);

  011aa	a1 00 00 00 00	 mov	 eax, DWORD PTR ?current_flight_dynamics@@3PAUDYNAMICS_TYPE@@A ; current_flight_dynamics
  011af	8b 0d 00 00 00
	00		 mov	 ecx, DWORD PTR ?current_flight_dynamics@@3PAUDYNAMICS_TYPE@@A ; current_flight_dynamics
  011b5	f3 0f 10 80 bc
	23 00 00	 movss	 xmm0, DWORD PTR [eax+9148]
  011bd	f3 0f 58 81 b0
	24 00 00	 addss	 xmm0, DWORD PTR [ecx+9392]
  011c5	f3 0f 10 8d 1c
	ff ff ff	 movss	 xmm1, DWORD PTR _mass_percentage$62[ebp]
  011cd	f3 0f 5e c8	 divss	 xmm1, xmm0
  011d1	f3 0f 11 8d 1c
	ff ff ff	 movss	 DWORD PTR _mass_percentage$62[ebp], xmm1

; 1688 : 
; 1689 : 		force = G * mass_percentage;

  011d9	f3 0f 10 05 00
	00 00 00	 movss	 xmm0, DWORD PTR __real@411cf5c3
  011e1	f3 0f 59 85 1c
	ff ff ff	 mulss	 xmm0, DWORD PTR _mass_percentage$62[ebp]
  011e9	f3 0f 11 45 c0	 movss	 DWORD PTR _force$[ebp], xmm0

; 1690 : 
; 1691 : 		position.x = current_flight_dynamics->centre_of_gravity.x;

  011ee	a1 00 00 00 00	 mov	 eax, DWORD PTR ?current_flight_dynamics@@3PAUDYNAMICS_TYPE@@A ; current_flight_dynamics
  011f3	f3 0f 10 80 24
	1c 00 00	 movss	 xmm0, DWORD PTR [eax+7204]
  011fb	f3 0f 11 85 44
	ff ff ff	 movss	 DWORD PTR _position$[ebp], xmm0

; 1692 : 		position.y = current_flight_dynamics->centre_of_gravity.y;

  01203	a1 00 00 00 00	 mov	 eax, DWORD PTR ?current_flight_dynamics@@3PAUDYNAMICS_TYPE@@A ; current_flight_dynamics
  01208	f3 0f 10 80 28
	1c 00 00	 movss	 xmm0, DWORD PTR [eax+7208]
  01210	f3 0f 11 85 48
	ff ff ff	 movss	 DWORD PTR _position$[ebp+4], xmm0

; 1693 : 		position.z = current_flight_dynamics->centre_of_gravity.z;

  01218	a1 00 00 00 00	 mov	 eax, DWORD PTR ?current_flight_dynamics@@3PAUDYNAMICS_TYPE@@A ; current_flight_dynamics
  0121d	f3 0f 10 80 2c
	1c 00 00	 movss	 xmm0, DWORD PTR [eax+7212]
  01225	f3 0f 11 85 4c
	ff ff ff	 movss	 DWORD PTR _position$[ebp+8], xmm0

; 1694 : 
; 1695 : 		direction.x = 0.0;

  0122d	0f 57 c0	 xorps	 xmm0, xmm0
  01230	f3 0f 11 85 38
	ff ff ff	 movss	 DWORD PTR _direction$[ebp], xmm0

; 1696 : 		direction.y = -1.0;

  01238	f3 0f 10 05 00
	00 00 00	 movss	 xmm0, DWORD PTR __real@bf800000
  01240	f3 0f 11 85 3c
	ff ff ff	 movss	 DWORD PTR _direction$[ebp+4], xmm0

; 1697 : 		direction.z = 0.0;

  01248	0f 57 c0	 xorps	 xmm0, xmm0
  0124b	f3 0f 11 85 40
	ff ff ff	 movss	 DWORD PTR _direction$[ebp+8], xmm0

; 1698 : 
; 1699 : 		multiply_transpose_matrix3x3_vec3d (&direction, attitude, &direction);

  01253	8d 85 38 ff ff
	ff		 lea	 eax, DWORD PTR _direction$[ebp]
  01259	50		 push	 eax
  0125a	8d 4d d8	 lea	 ecx, DWORD PTR _attitude$[ebp]
  0125d	51		 push	 ecx
  0125e	8d 95 38 ff ff
	ff		 lea	 edx, DWORD PTR _direction$[ebp]
  01264	52		 push	 edx
  01265	e8 00 00 00 00	 call	 ?multiply_transpose_matrix3x3_vec3d@@YGXPAUVEC3D@@QAY02$$CBMPBU1@@Z ; multiply_transpose_matrix3x3_vec3d

; 1700 : 
; 1701 : 		add_dynamic_force ("Gravity", force, 0.0, &position, &direction, FALSE);

  0126a	6a 00		 push	 0
  0126c	8d 85 38 ff ff
	ff		 lea	 eax, DWORD PTR _direction$[ebp]
  01272	50		 push	 eax
  01273	8d 8d 44 ff ff
	ff		 lea	 ecx, DWORD PTR _position$[ebp]
  01279	51		 push	 ecx
  0127a	51		 push	 ecx
  0127b	0f 57 c0	 xorps	 xmm0, xmm0
  0127e	f3 0f 11 04 24	 movss	 DWORD PTR [esp], xmm0
  01283	51		 push	 ecx
  01284	f3 0f 10 45 c0	 movss	 xmm0, DWORD PTR _force$[ebp]
  01289	f3 0f 11 04 24	 movss	 DWORD PTR [esp], xmm0
  0128e	68 00 00 00 00	 push	 OFFSET ??_C@_07JMGDFJEK@Gravity@
  01293	e8 00 00 00 00	 call	 ?add_dynamic_force@@YGXPBDMMPAUVEC3D@@1H@Z ; add_dynamic_force

; 1702 : 	}
; 1703 : 	/////////////////////////////////////////////////////////////////////////////////////////////////////////////////////////////////
; 1704 : 	// Rotor Aerodynamic Analysis
; 1705 : 	/////////////////////////////////////////////////////////////////////////////////////////////////////////////////////////////////
; 1706 : 
; 1707 : 	{
; 1708 : 		vec3d
; 1709 : 			temp_model_motion_vector;
; 1710 : 
; 1711 : 		temp_model_motion_vector = current_flight_dynamics->model_motion_vector;

  01298	a1 00 00 00 00	 mov	 eax, DWORD PTR ?current_flight_dynamics@@3PAUDYNAMICS_TYPE@@A ; current_flight_dynamics
  0129d	05 30 1c 00 00	 add	 eax, 7216		; 00001c30H
  012a2	8b 08		 mov	 ecx, DWORD PTR [eax]
  012a4	89 8d 10 ff ff
	ff		 mov	 DWORD PTR _temp_model_motion_vector$61[ebp], ecx
  012aa	8b 50 04	 mov	 edx, DWORD PTR [eax+4]
  012ad	89 95 14 ff ff
	ff		 mov	 DWORD PTR _temp_model_motion_vector$61[ebp+4], edx
  012b3	8b 40 08	 mov	 eax, DWORD PTR [eax+8]
  012b6	89 85 18 ff ff
	ff		 mov	 DWORD PTR _temp_model_motion_vector$61[ebp+8], eax

; 1712 : 		temp_model_motion_vector.y = 0.0;

  012bc	0f 57 c0	 xorps	 xmm0, xmm0
  012bf	f3 0f 11 85 14
	ff ff ff	 movss	 DWORD PTR _temp_model_motion_vector$61[ebp+4], xmm0

; 1713 : 		horizontal_velocity = (get_3d_vector_magnitude (&temp_model_motion_vector));

  012c7	8d 85 10 ff ff
	ff		 lea	 eax, DWORD PTR _temp_model_motion_vector$61[ebp]
  012cd	50		 push	 eax
  012ce	e8 00 00 00 00	 call	 ?get_3d_vector_magnitude@@YGMPBUVEC3D@@@Z ; get_3d_vector_magnitude
  012d3	d9 9d 6c ff ff
	ff		 fstp	 DWORD PTR _horizontal_velocity$[ebp]

; 1714 : 	}
; 1715 : 
; 1716 : 	////////////////////////////////////////////
; 1717 : 	// Transitional Lift generated by 'Wing' effect
; 1718 : 	////////////////////////////////////////////
; 1719 : 	//if ((!model_landed) &&
; 1720 : 	if ((get_current_dynamics_options (DYNAMICS_OPTIONS_TRANSITIONAL_LIFT)) &&

  012d9	6a 0a		 push	 10			; 0000000aH
  012db	e8 00 00 00 00	 call	 ?get_current_dynamics_options@@YGHW4DYNAMICS_OPTIONS_TYPES@@@Z ; get_current_dynamics_options
  012e0	85 c0		 test	 eax, eax
  012e2	0f 84 ef 04 00
	00		 je	 $LN22@update_att
  012e8	a1 00 00 00 00	 mov	 eax, DWORD PTR ?current_flight_dynamics@@3PAUDYNAMICS_TYPE@@A ; current_flight_dynamics
  012ed	8b 88 24 25 00
	00		 mov	 ecx, DWORD PTR [eax+9508]
  012f3	83 e1 02	 and	 ecx, 2
  012f6	0f 85 db 04 00
	00		 jne	 $LN22@update_att

; 1721 : 		(!(current_flight_dynamics->dynamics_damage & DYNAMICS_DAMAGE_MAIN_ROTOR)))
; 1722 : 	{
; 1723 : 
; 1724 : 		vec3d
; 1725 : 			wind,
; 1726 : 			position,
; 1727 : 			normalised_model_motion_vector;
; 1728 : 
; 1729 : 		float
; 1730 : 			force,
; 1731 : 			vel;
; 1732 : 
; 1733 : 		normalised_model_motion_vector = model_motion_vector;

  012fc	8b 85 20 ff ff
	ff		 mov	 eax, DWORD PTR _model_motion_vector$[ebp]
  01302	89 85 ec fe ff
	ff		 mov	 DWORD PTR _normalised_model_motion_vector$58[ebp], eax
  01308	8b 8d 24 ff ff
	ff		 mov	 ecx, DWORD PTR _model_motion_vector$[ebp+4]
  0130e	89 8d f0 fe ff
	ff		 mov	 DWORD PTR _normalised_model_motion_vector$58[ebp+4], ecx
  01314	8b 95 28 ff ff
	ff		 mov	 edx, DWORD PTR _model_motion_vector$[ebp+8]
  0131a	89 95 f4 fe ff
	ff		 mov	 DWORD PTR _normalised_model_motion_vector$58[ebp+8], edx

; 1734 : 
; 1735 : 		position.x = current_flight_dynamics->position.x;

  01320	a1 00 00 00 00	 mov	 eax, DWORD PTR ?current_flight_dynamics@@3PAUDYNAMICS_TYPE@@A ; current_flight_dynamics
  01325	f2 0f 5a 80 ac
	00 00 00	 cvtsd2ss xmm0, QWORD PTR [eax+172]
  0132d	f3 0f 11 85 f8
	fe ff ff	 movss	 DWORD PTR _position$59[ebp], xmm0

; 1736 : 		position.y = current_flight_dynamics->position.y;

  01335	a1 00 00 00 00	 mov	 eax, DWORD PTR ?current_flight_dynamics@@3PAUDYNAMICS_TYPE@@A ; current_flight_dynamics
  0133a	f2 0f 5a 80 b4
	00 00 00	 cvtsd2ss xmm0, QWORD PTR [eax+180]
  01342	f3 0f 11 85 fc
	fe ff ff	 movss	 DWORD PTR _position$59[ebp+4], xmm0

; 1737 : 		position.z = current_flight_dynamics->position.z;

  0134a	a1 00 00 00 00	 mov	 eax, DWORD PTR ?current_flight_dynamics@@3PAUDYNAMICS_TYPE@@A ; current_flight_dynamics
  0134f	f2 0f 5a 80 bc
	00 00 00	 cvtsd2ss xmm0, QWORD PTR [eax+188]
  01357	f3 0f 11 85 00
	ff ff ff	 movss	 DWORD PTR _position$59[ebp+8], xmm0

; 1738 : 
; 1739 : 		if (get_current_dynamics_options (DYNAMICS_OPTIONS_WIND))

  0135f	6a 0c		 push	 12			; 0000000cH
  01361	e8 00 00 00 00	 call	 ?get_current_dynamics_options@@YGHW4DYNAMICS_OPTIONS_TYPES@@@Z ; get_current_dynamics_options
  01366	85 c0		 test	 eax, eax
  01368	74 7d		 je	 SHORT $LN23@update_att

; 1740 : 		{
; 1741 : 
; 1742 : 			get_session_wind_velocity_at_point (&position, &wind);

  0136a	8d 85 04 ff ff
	ff		 lea	 eax, DWORD PTR _wind$60[ebp]
  01370	50		 push	 eax
  01371	8d 8d f8 fe ff
	ff		 lea	 ecx, DWORD PTR _position$59[ebp]
  01377	51		 push	 ecx
  01378	e8 00 00 00 00	 call	 ?get_session_wind_velocity_at_point@@YGMPAUVEC3D@@0@Z ; get_session_wind_velocity_at_point
  0137d	dd d8		 fstp	 ST(0)

; 1743 : 
; 1744 : 			multiply_transpose_matrix3x3_vec3d (&wind, current_flight_dynamics->attitude, &wind);

  0137f	8d 85 04 ff ff
	ff		 lea	 eax, DWORD PTR _wind$60[ebp]
  01385	50		 push	 eax
  01386	8b 0d 00 00 00
	00		 mov	 ecx, DWORD PTR ?current_flight_dynamics@@3PAUDYNAMICS_TYPE@@A ; current_flight_dynamics
  0138c	81 c1 d0 00 00
	00		 add	 ecx, 208		; 000000d0H
  01392	51		 push	 ecx
  01393	8d 95 04 ff ff
	ff		 lea	 edx, DWORD PTR _wind$60[ebp]
  01399	52		 push	 edx
  0139a	e8 00 00 00 00	 call	 ?multiply_transpose_matrix3x3_vec3d@@YGXPAUVEC3D@@QAY02$$CBMPBU1@@Z ; multiply_transpose_matrix3x3_vec3d

; 1745 : 
; 1746 : 			normalised_model_motion_vector.x -= wind.x;

  0139f	f3 0f 10 85 ec
	fe ff ff	 movss	 xmm0, DWORD PTR _normalised_model_motion_vector$58[ebp]
  013a7	f3 0f 5c 85 04
	ff ff ff	 subss	 xmm0, DWORD PTR _wind$60[ebp]
  013af	f3 0f 11 85 ec
	fe ff ff	 movss	 DWORD PTR _normalised_model_motion_vector$58[ebp], xmm0

; 1747 : 			normalised_model_motion_vector.y -= wind.y;

  013b7	f3 0f 10 85 f0
	fe ff ff	 movss	 xmm0, DWORD PTR _normalised_model_motion_vector$58[ebp+4]
  013bf	f3 0f 5c 85 08
	ff ff ff	 subss	 xmm0, DWORD PTR _wind$60[ebp+4]
  013c7	f3 0f 11 85 f0
	fe ff ff	 movss	 DWORD PTR _normalised_model_motion_vector$58[ebp+4], xmm0

; 1748 : 			normalised_model_motion_vector.z -= wind.z;

  013cf	f3 0f 10 85 f4
	fe ff ff	 movss	 xmm0, DWORD PTR _normalised_model_motion_vector$58[ebp+8]
  013d7	f3 0f 5c 85 0c
	ff ff ff	 subss	 xmm0, DWORD PTR _wind$60[ebp+8]
  013df	f3 0f 11 85 f4
	fe ff ff	 movss	 DWORD PTR _normalised_model_motion_vector$58[ebp+8], xmm0
$LN23@update_att:

; 1749 : 		}
; 1750 : 
; 1751 : 		normalised_model_motion_vector.y = 0.0;

  013e7	0f 57 c0	 xorps	 xmm0, xmm0
  013ea	f3 0f 11 85 f0
	fe ff ff	 movss	 DWORD PTR _normalised_model_motion_vector$58[ebp+4], xmm0

; 1752 : 
; 1753 : 		vel = normalise_any_3d_vector (&normalised_model_motion_vector);

  013f2	8d 85 ec fe ff
	ff		 lea	 eax, DWORD PTR _normalised_model_motion_vector$58[ebp]
  013f8	50		 push	 eax
  013f9	e8 00 00 00 00	 call	 ?normalise_any_3d_vector@@YGMPAUVEC3D@@@Z ; normalise_any_3d_vector
  013fe	d9 9d e4 fe ff
	ff		 fstp	 DWORD PTR _vel$56[ebp]

; 1754 : 
; 1755 : 		// * 3 because induced air at normal is 9 and max is about 26... needs to scale 0.0 -> 1.0
; 1756 : 		vel *= min (fabs ((3.0 * current_flight_dynamics->main_rotor_induced_air.value) / (current_flight_dynamics->main_rotor_induced_air.max - current_flight_dynamics->main_rotor_induced_air.min)), 1.0);

  01404	f2 0f 10 05 00
	00 00 00	 movsd	 xmm0, QWORD PTR __real@3ff0000000000000
  0140c	f2 0f 11 85 60
	fd ff ff	 movsd	 QWORD PTR $T14[ebp], xmm0
  01414	a1 00 00 00 00	 mov	 eax, DWORD PTR ?current_flight_dynamics@@3PAUDYNAMICS_TYPE@@A ; current_flight_dynamics
  01419	f3 0f 5a 80 6c
	1d 00 00	 cvtss2sd xmm0, DWORD PTR [eax+7532]
  01421	f2 0f 59 05 00
	00 00 00	 mulsd	 xmm0, QWORD PTR __real@4008000000000000
  01429	8b 0d 00 00 00
	00		 mov	 ecx, DWORD PTR ?current_flight_dynamics@@3PAUDYNAMICS_TYPE@@A ; current_flight_dynamics
  0142f	8b 15 00 00 00
	00		 mov	 edx, DWORD PTR ?current_flight_dynamics@@3PAUDYNAMICS_TYPE@@A ; current_flight_dynamics
  01435	f3 0f 10 89 78
	1d 00 00	 movss	 xmm1, DWORD PTR [ecx+7544]
  0143d	f3 0f 5c 8a 74
	1d 00 00	 subss	 xmm1, DWORD PTR [edx+7540]
  01445	f3 0f 5a c9	 cvtss2sd xmm1, xmm1
  01449	f2 0f 5e c1	 divsd	 xmm0, xmm1
  0144d	83 ec 08	 sub	 esp, 8
  01450	f2 0f 11 04 24	 movsd	 QWORD PTR [esp], xmm0
  01455	e8 00 00 00 00	 call	 _fabs
  0145a	83 c4 08	 add	 esp, 8
  0145d	dd 9d 58 fd ff
	ff		 fstp	 QWORD PTR $T13[ebp]
  01463	8d 85 60 fd ff
	ff		 lea	 eax, DWORD PTR $T14[ebp]
  01469	50		 push	 eax
  0146a	8d 8d 58 fd ff
	ff		 lea	 ecx, DWORD PTR $T13[ebp]
  01470	51		 push	 ecx
  01471	e8 00 00 00 00	 call	 ??$min@N@std@@YGABNABN0@Z ; std::min<double>
  01476	f3 0f 5a 85 e4
	fe ff ff	 cvtss2sd xmm0, DWORD PTR _vel$56[ebp]
  0147e	f2 0f 59 00	 mulsd	 xmm0, QWORD PTR [eax]
  01482	f2 0f 5a c0	 cvtsd2ss xmm0, xmm0
  01486	f3 0f 11 85 e4
	fe ff ff	 movss	 DWORD PTR _vel$56[ebp], xmm0

; 1757 : 
; 1758 : 		if (vel >= current_flight_dynamics->translational_lift.min)

  0148e	a1 00 00 00 00	 mov	 eax, DWORD PTR ?current_flight_dynamics@@3PAUDYNAMICS_TYPE@@A ; current_flight_dynamics
  01493	f3 0f 10 85 e4
	fe ff ff	 movss	 xmm0, DWORD PTR _vel$56[ebp]
  0149b	0f 2f 80 c4 21
	00 00		 comiss	 xmm0, DWORD PTR [eax+8644]
  014a2	0f 82 57 01 00
	00		 jb	 $LN24@update_att

; 1759 : 		{
; 1760 : 
; 1761 : 			if (vel <= current_flight_dynamics->translational_lift.max)

  014a8	a1 00 00 00 00	 mov	 eax, DWORD PTR ?current_flight_dynamics@@3PAUDYNAMICS_TYPE@@A ; current_flight_dynamics
  014ad	f3 0f 10 80 c8
	21 00 00	 movss	 xmm0, DWORD PTR [eax+8648]
  014b5	0f 2f 85 e4 fe
	ff ff		 comiss	 xmm0, DWORD PTR _vel$56[ebp]
  014bc	72 4c		 jb	 SHORT $LN25@update_att

; 1762 : 			{
; 1763 : 
; 1764 : 				force = (current_flight_dynamics->translational_lift.value * (vel - current_flight_dynamics->translational_lift.min)) / (current_flight_dynamics->translational_lift.max - current_flight_dynamics->translational_lift.min);

  014be	a1 00 00 00 00	 mov	 eax, DWORD PTR ?current_flight_dynamics@@3PAUDYNAMICS_TYPE@@A ; current_flight_dynamics
  014c3	f3 0f 10 85 e4
	fe ff ff	 movss	 xmm0, DWORD PTR _vel$56[ebp]
  014cb	f3 0f 5c 80 c4
	21 00 00	 subss	 xmm0, DWORD PTR [eax+8644]
  014d3	8b 0d 00 00 00
	00		 mov	 ecx, DWORD PTR ?current_flight_dynamics@@3PAUDYNAMICS_TYPE@@A ; current_flight_dynamics
  014d9	f3 0f 59 81 bc
	21 00 00	 mulss	 xmm0, DWORD PTR [ecx+8636]
  014e1	8b 15 00 00 00
	00		 mov	 edx, DWORD PTR ?current_flight_dynamics@@3PAUDYNAMICS_TYPE@@A ; current_flight_dynamics
  014e7	a1 00 00 00 00	 mov	 eax, DWORD PTR ?current_flight_dynamics@@3PAUDYNAMICS_TYPE@@A ; current_flight_dynamics
  014ec	f3 0f 10 8a c8
	21 00 00	 movss	 xmm1, DWORD PTR [edx+8648]
  014f4	f3 0f 5c 88 c4
	21 00 00	 subss	 xmm1, DWORD PTR [eax+8644]
  014fc	f3 0f 5e c1	 divss	 xmm0, xmm1
  01500	f3 0f 11 85 e8
	fe ff ff	 movss	 DWORD PTR _force$57[ebp], xmm0

; 1765 : 			}
; 1766 : 			else

  01508	eb 15		 jmp	 SHORT $LN26@update_att
$LN25@update_att:

; 1767 : 			{
; 1768 : 
; 1769 : 				force = current_flight_dynamics->translational_lift.value;

  0150a	a1 00 00 00 00	 mov	 eax, DWORD PTR ?current_flight_dynamics@@3PAUDYNAMICS_TYPE@@A ; current_flight_dynamics
  0150f	f3 0f 10 80 bc
	21 00 00	 movss	 xmm0, DWORD PTR [eax+8636]
  01517	f3 0f 11 85 e8
	fe ff ff	 movss	 DWORD PTR _force$57[ebp], xmm0
$LN26@update_att:

; 1770 : 			}
; 1771 : 
; 1772 : 			position.x = (current_flight_dynamics->translational_lift.modifier * current_flight_dynamics->main_rotor_diameter.value / 2.0) * normalised_model_motion_vector.x;

  0151f	a1 00 00 00 00	 mov	 eax, DWORD PTR ?current_flight_dynamics@@3PAUDYNAMICS_TYPE@@A ; current_flight_dynamics
  01524	8b 0d 00 00 00
	00		 mov	 ecx, DWORD PTR ?current_flight_dynamics@@3PAUDYNAMICS_TYPE@@A ; current_flight_dynamics
  0152a	f3 0f 10 80 b8
	21 00 00	 movss	 xmm0, DWORD PTR [eax+8632]
  01532	f3 0f 59 81 9c
	1d 00 00	 mulss	 xmm0, DWORD PTR [ecx+7580]
  0153a	f3 0f 5a c0	 cvtss2sd xmm0, xmm0
  0153e	f2 0f 5e 05 00
	00 00 00	 divsd	 xmm0, QWORD PTR __real@4000000000000000
  01546	f3 0f 5a 8d ec
	fe ff ff	 cvtss2sd xmm1, DWORD PTR _normalised_model_motion_vector$58[ebp]
  0154e	f2 0f 59 c1	 mulsd	 xmm0, xmm1
  01552	f2 0f 5a c0	 cvtsd2ss xmm0, xmm0
  01556	f3 0f 11 85 f8
	fe ff ff	 movss	 DWORD PTR _position$59[ebp], xmm0

; 1773 : 			position.y = 0.0;

  0155e	0f 57 c0	 xorps	 xmm0, xmm0
  01561	f3 0f 11 85 fc
	fe ff ff	 movss	 DWORD PTR _position$59[ebp+4], xmm0

; 1774 : 			position.z = (current_flight_dynamics->translational_lift.modifier * current_flight_dynamics->main_rotor_diameter.value / 2.0) * normalised_model_motion_vector.z;

  01569	a1 00 00 00 00	 mov	 eax, DWORD PTR ?current_flight_dynamics@@3PAUDYNAMICS_TYPE@@A ; current_flight_dynamics
  0156e	8b 0d 00 00 00
	00		 mov	 ecx, DWORD PTR ?current_flight_dynamics@@3PAUDYNAMICS_TYPE@@A ; current_flight_dynamics
  01574	f3 0f 10 80 b8
	21 00 00	 movss	 xmm0, DWORD PTR [eax+8632]
  0157c	f3 0f 59 81 9c
	1d 00 00	 mulss	 xmm0, DWORD PTR [ecx+7580]
  01584	f3 0f 5a c0	 cvtss2sd xmm0, xmm0
  01588	f2 0f 5e 05 00
	00 00 00	 divsd	 xmm0, QWORD PTR __real@4000000000000000
  01590	f3 0f 5a 8d f4
	fe ff ff	 cvtss2sd xmm1, DWORD PTR _normalised_model_motion_vector$58[ebp+8]
  01598	f2 0f 59 c1	 mulsd	 xmm0, xmm1
  0159c	f2 0f 5a c0	 cvtsd2ss xmm0, xmm0
  015a0	f3 0f 11 85 00
	ff ff ff	 movss	 DWORD PTR _position$59[ebp+8], xmm0

; 1775 : 
; 1776 : 			direction.x = 0.0;

  015a8	0f 57 c0	 xorps	 xmm0, xmm0
  015ab	f3 0f 11 85 38
	ff ff ff	 movss	 DWORD PTR _direction$[ebp], xmm0

; 1777 : 			direction.y = 1.0;

  015b3	f3 0f 10 05 00
	00 00 00	 movss	 xmm0, DWORD PTR __real@3f800000
  015bb	f3 0f 11 85 3c
	ff ff ff	 movss	 DWORD PTR _direction$[ebp+4], xmm0

; 1778 : 			direction.z = 0.0;

  015c3	0f 57 c0	 xorps	 xmm0, xmm0
  015c6	f3 0f 11 85 40
	ff ff ff	 movss	 DWORD PTR _direction$[ebp+8], xmm0

; 1779 : 
; 1780 : 			add_dynamic_force ("Transitional lift", force, 0.0, &position, &direction, FALSE);

  015ce	6a 00		 push	 0
  015d0	8d 85 38 ff ff
	ff		 lea	 eax, DWORD PTR _direction$[ebp]
  015d6	50		 push	 eax
  015d7	8d 8d f8 fe ff
	ff		 lea	 ecx, DWORD PTR _position$59[ebp]
  015dd	51		 push	 ecx
  015de	51		 push	 ecx
  015df	0f 57 c0	 xorps	 xmm0, xmm0
  015e2	f3 0f 11 04 24	 movss	 DWORD PTR [esp], xmm0
  015e7	51		 push	 ecx
  015e8	f3 0f 10 85 e8
	fe ff ff	 movss	 xmm0, DWORD PTR _force$57[ebp]
  015f0	f3 0f 11 04 24	 movss	 DWORD PTR [esp], xmm0
  015f5	68 00 00 00 00	 push	 OFFSET ??_C@_0BC@GCGACPAK@Transitional?5lift@
  015fa	e8 00 00 00 00	 call	 ?add_dynamic_force@@YGXPBDMMPAUVEC3D@@1H@Z ; add_dynamic_force
$LN24@update_att:

; 1781 : /*
; 1782 : 			// debug
; 1783 : 			{
; 1784 : 				multiply_matrix3x3_vec3d (&position, current_flight_dynamics->attitude, &position);
; 1785 : 
; 1786 : 				multiply_matrix3x3_vec3d (&direction, current_flight_dynamics->attitude, &direction);
; 1787 : 
; 1788 : 				position.x += current_flight_dynamics->position.x;
; 1789 : 				position.y += current_flight_dynamics->position.y;
; 1790 : 				position.z += current_flight_dynamics->position.z;
; 1791 : 
; 1792 : 				create_vectored_debug_3d_object (&position, &direction, OBJECT_3D_ARROW_FORCES, 0, 10.0);
; 1793 : 			}
; 1794 : 			// debug
; 1795 : */
; 1796 : 		}
; 1797 : 		{
; 1798 : 			float
; 1799 : 				motion_vector_pitch;
; 1800 : 
; 1801 : 			vec3d
; 1802 : 				normalised_world_motion_vector;
; 1803 : 
; 1804 : 			normalised_world_motion_vector = world_motion_vector;

  015ff	8b 85 2c ff ff
	ff		 mov	 eax, DWORD PTR _world_motion_vector$[ebp]
  01605	89 85 d4 fe ff
	ff		 mov	 DWORD PTR _normalised_world_motion_vector$54[ebp], eax
  0160b	8b 8d 30 ff ff
	ff		 mov	 ecx, DWORD PTR _world_motion_vector$[ebp+4]
  01611	89 8d d8 fe ff
	ff		 mov	 DWORD PTR _normalised_world_motion_vector$54[ebp+4], ecx
  01617	8b 95 34 ff ff
	ff		 mov	 edx, DWORD PTR _world_motion_vector$[ebp+8]
  0161d	89 95 dc fe ff
	ff		 mov	 DWORD PTR _normalised_world_motion_vector$54[ebp+8], edx

; 1805 : 			normalise_any_3d_vector (&normalised_world_motion_vector);

  01623	8d 85 d4 fe ff
	ff		 lea	 eax, DWORD PTR _normalised_world_motion_vector$54[ebp]
  01629	50		 push	 eax
  0162a	e8 00 00 00 00	 call	 ?normalise_any_3d_vector@@YGMPAUVEC3D@@@Z ; normalise_any_3d_vector
  0162f	dd d8		 fstp	 ST(0)

; 1806 : 			motion_vector_pitch = asin (normalised_world_motion_vector.y) - aircraft_database [current_flight_dynamics->sub_type].main_rotor_shaft_angle;

  01631	51		 push	 ecx
  01632	f3 0f 10 85 d8
	fe ff ff	 movss	 xmm0, DWORD PTR _normalised_world_motion_vector$54[ebp+4]
  0163a	f3 0f 11 04 24	 movss	 DWORD PTR [esp], xmm0
  0163f	e8 00 00 00 00	 call	 ?asin@@YGMM@Z		; asin
  01644	d9 9d 1c fd ff
	ff		 fstp	 DWORD PTR tv2790[ebp]
  0164a	f3 0f 10 85 1c
	fd ff ff	 movss	 xmm0, DWORD PTR tv2790[ebp]
  01652	a1 00 00 00 00	 mov	 eax, DWORD PTR ?current_flight_dynamics@@3PAUDYNAMICS_TYPE@@A ; current_flight_dynamics
  01657	69 48 04 f4 00
	00 00		 imul	 ecx, DWORD PTR [eax+4], 244
  0165e	f3 0f 5c 81 88
	00 00 00	 subss	 xmm0, DWORD PTR ?aircraft_database@@3PAUAIRCRAFT_DATA@@A[ecx+136]
  01666	f3 0f 11 85 e0
	fe ff ff	 movss	 DWORD PTR _motion_vector_pitch$55[ebp], xmm0

; 1807 : 
; 1808 : 			if (current_flight_dynamics->model_motion_vector.z < 0.0)

  0166e	a1 00 00 00 00	 mov	 eax, DWORD PTR ?current_flight_dynamics@@3PAUDYNAMICS_TYPE@@A ; current_flight_dynamics
  01673	f3 0f 5a 80 38
	1c 00 00	 cvtss2sd xmm0, DWORD PTR [eax+7224]
  0167b	0f 57 c9	 xorps	 xmm1, xmm1
  0167e	66 0f 2f c8	 comisd	 xmm1, xmm0
  01682	76 1c		 jbe	 SHORT $LN27@update_att

; 1809 : 			{
; 1810 : 
; 1811 : 				pitch_value *= -1.0;

  01684	f3 0f 5a 85 7c
	ff ff ff	 cvtss2sd xmm0, DWORD PTR _pitch_value$[ebp]
  0168c	f2 0f 59 05 00
	00 00 00	 mulsd	 xmm0, QWORD PTR __real@bff0000000000000
  01694	f2 0f 5a c0	 cvtsd2ss xmm0, xmm0
  01698	f3 0f 11 85 7c
	ff ff ff	 movss	 DWORD PTR _pitch_value$[ebp], xmm0
$LN27@update_att:

; 1812 : 			}
; 1813 : 
; 1814 : 			force = horizontal_velocity *

  016a0	f3 0f 10 85 7c
	ff ff ff	 movss	 xmm0, DWORD PTR _pitch_value$[ebp]
  016a8	f3 0f 58 45 98	 addss	 xmm0, DWORD PTR _main_rotor_pitch_angle_value$[ebp]
  016ad	f3 0f 5c 85 e0
	fe ff ff	 subss	 xmm0, DWORD PTR _motion_vector_pitch$55[ebp]
  016b5	f3 0f 59 85 6c
	ff ff ff	 mulss	 xmm0, DWORD PTR _horizontal_velocity$[ebp]
  016bd	f3 0f 11 85 e8
	fe ff ff	 movss	 DWORD PTR _force$57[ebp], xmm0

; 1815 : 						((pitch_value +
; 1816 : 						main_rotor_pitch_angle_value) -
; 1817 : 						motion_vector_pitch);
; 1818 : 
; 1819 : 			force = max (force, 0.0f);

  016c5	0f 57 c0	 xorps	 xmm0, xmm0
  016c8	f3 0f 11 85 54
	fd ff ff	 movss	 DWORD PTR $T12[ebp], xmm0
  016d0	8d 85 54 fd ff
	ff		 lea	 eax, DWORD PTR $T12[ebp]
  016d6	50		 push	 eax
  016d7	8d 8d e8 fe ff
	ff		 lea	 ecx, DWORD PTR _force$57[ebp]
  016dd	51		 push	 ecx
  016de	e8 00 00 00 00	 call	 ??$max@M@std@@YGABMABM0@Z ; std::max<float>
  016e3	f3 0f 10 00	 movss	 xmm0, DWORD PTR [eax]
  016e7	f3 0f 11 85 e8
	fe ff ff	 movss	 DWORD PTR _force$57[ebp], xmm0

; 1820 : 
; 1821 : 			position.x = -0.4 * sin (main_blade_x_pitch_value);

  016ef	51		 push	 ecx
  016f0	f3 0f 10 85 78
	ff ff ff	 movss	 xmm0, DWORD PTR _main_blade_x_pitch_value$[ebp]
  016f8	f3 0f 11 04 24	 movss	 DWORD PTR [esp], xmm0
  016fd	e8 00 00 00 00	 call	 ?sin@@YGMM@Z		; sin
  01702	dd 9d 18 fd ff
	ff		 fstp	 QWORD PTR tv2807[ebp]
  01708	f2 0f 10 85 18
	fd ff ff	 movsd	 xmm0, QWORD PTR tv2807[ebp]
  01710	f2 0f 59 05 00
	00 00 00	 mulsd	 xmm0, QWORD PTR __real@bfd999999999999a
  01718	f2 0f 5a c0	 cvtsd2ss xmm0, xmm0
  0171c	f3 0f 11 85 f8
	fe ff ff	 movss	 DWORD PTR _position$59[ebp], xmm0

; 1822 : 			position.y = 0.0;

  01724	0f 57 c0	 xorps	 xmm0, xmm0
  01727	f3 0f 11 85 fc
	fe ff ff	 movss	 DWORD PTR _position$59[ebp+4], xmm0

; 1823 : 			position.z = 0.4 * sin (main_blade_y_pitch_value);

  0172f	51		 push	 ecx
  01730	f3 0f 10 85 74
	ff ff ff	 movss	 xmm0, DWORD PTR _main_blade_y_pitch_value$[ebp]
  01738	f3 0f 11 04 24	 movss	 DWORD PTR [esp], xmm0
  0173d	e8 00 00 00 00	 call	 ?sin@@YGMM@Z		; sin
  01742	dd 9d 18 fd ff
	ff		 fstp	 QWORD PTR tv2816[ebp]
  01748	f2 0f 10 85 18
	fd ff ff	 movsd	 xmm0, QWORD PTR tv2816[ebp]
  01750	f2 0f 59 05 00
	00 00 00	 mulsd	 xmm0, QWORD PTR __real@3fd999999999999a
  01758	f2 0f 5a c0	 cvtsd2ss xmm0, xmm0
  0175c	f3 0f 11 85 00
	ff ff ff	 movss	 DWORD PTR _position$59[ebp+8], xmm0

; 1824 : 
; 1825 : 			direction.x = 0.0;

  01764	0f 57 c0	 xorps	 xmm0, xmm0
  01767	f3 0f 11 85 38
	ff ff ff	 movss	 DWORD PTR _direction$[ebp], xmm0

; 1826 : 			direction.y = 1.0;

  0176f	f3 0f 10 05 00
	00 00 00	 movss	 xmm0, DWORD PTR __real@3f800000
  01777	f3 0f 11 85 3c
	ff ff ff	 movss	 DWORD PTR _direction$[ebp+4], xmm0

; 1827 : 			direction.z = 0.0;

  0177f	0f 57 c0	 xorps	 xmm0, xmm0
  01782	f3 0f 11 85 40
	ff ff ff	 movss	 DWORD PTR _direction$[ebp+8], xmm0

; 1828 : 
; 1829 : 			// arneh - this force seems too strong, impossible to decend faster than
; 1830 : 			// about 7-8 m/s by default with forward speed. So reduce it a little
; 1831 : 			force *= 0.9;

  0178a	f3 0f 5a 85 e8
	fe ff ff	 cvtss2sd xmm0, DWORD PTR _force$57[ebp]
  01792	f2 0f 59 05 00
	00 00 00	 mulsd	 xmm0, QWORD PTR __real@3feccccccccccccd
  0179a	f2 0f 5a c0	 cvtsd2ss xmm0, xmm0
  0179e	f3 0f 11 85 e8
	fe ff ff	 movss	 DWORD PTR _force$57[ebp], xmm0

; 1832 : 			add_dynamic_force ("Transitional lift", force, 0.0, &position, &direction, FALSE);

  017a6	6a 00		 push	 0
  017a8	8d 85 38 ff ff
	ff		 lea	 eax, DWORD PTR _direction$[ebp]
  017ae	50		 push	 eax
  017af	8d 8d f8 fe ff
	ff		 lea	 ecx, DWORD PTR _position$59[ebp]
  017b5	51		 push	 ecx
  017b6	51		 push	 ecx
  017b7	0f 57 c0	 xorps	 xmm0, xmm0
  017ba	f3 0f 11 04 24	 movss	 DWORD PTR [esp], xmm0
  017bf	51		 push	 ecx
  017c0	f3 0f 10 85 e8
	fe ff ff	 movss	 xmm0, DWORD PTR _force$57[ebp]
  017c8	f3 0f 11 04 24	 movss	 DWORD PTR [esp], xmm0
  017cd	68 00 00 00 00	 push	 OFFSET ??_C@_0BC@GCGACPAK@Transitional?5lift@
  017d2	e8 00 00 00 00	 call	 ?add_dynamic_force@@YGXPBDMMPAUVEC3D@@1H@Z ; add_dynamic_force
$LN22@update_att:

; 1833 : 		}
; 1834 : 	}
; 1835 : 
; 1836 : 	/////////////////////////////////////////////////////////////////////////////////////////////////////////////////////////////////
; 1837 : 	// Secondary effects
; 1838 : 	/////////////////////////////////////////////////////////////////////////////////////////////////////////////////////////////////
; 1839 : 
; 1840 : 	////////////////////////////////////////////
; 1841 : 	// Retreating blade lift loss
; 1842 : 	////////////////////////////////////////////
; 1843 : 	if (get_current_dynamics_options (DYNAMICS_OPTIONS_RETREATING_BLADE_STALL))

  017d7	6a 08		 push	 8
  017d9	e8 00 00 00 00	 call	 ?get_current_dynamics_options@@YGHW4DYNAMICS_OPTIONS_TYPES@@@Z ; get_current_dynamics_options
  017de	85 c0		 test	 eax, eax
  017e0	0f 84 59 01 00
	00		 je	 $LN31@update_att

; 1844 : 	{
; 1845 : 
; 1846 : 		if (!(get_current_dynamics_options (DYNAMICS_OPTIONS_KEYBOARD_ASSISTANCE) && (get_global_cyclic_input () == KEYBOARD_INPUT)))

  017e6	6a 05		 push	 5
  017e8	e8 00 00 00 00	 call	 ?get_current_dynamics_options@@YGHW4DYNAMICS_OPTIONS_TYPES@@@Z ; get_current_dynamics_options
  017ed	85 c0		 test	 eax, eax
  017ef	74 0d		 je	 SHORT $LN30@update_att
  017f1	83 3d 28 00 00
	00 01		 cmp	 DWORD PTR ?global_options@@3UGLOBAL_OPTIONS_DATA@@A+40, 1
  017f8	0f 84 41 01 00
	00		 je	 $LN31@update_att
$LN30@update_att:

; 1847 : 		{
; 1848 : 
; 1849 : 			if (!(current_flight_dynamics->dynamics_damage & DYNAMICS_DAMAGE_MAIN_ROTOR))

  017fe	a1 00 00 00 00	 mov	 eax, DWORD PTR ?current_flight_dynamics@@3PAUDYNAMICS_TYPE@@A ; current_flight_dynamics
  01803	8b 88 24 25 00
	00		 mov	 ecx, DWORD PTR [eax+9508]
  01809	83 e1 02	 and	 ecx, 2
  0180c	0f 85 2d 01 00
	00		 jne	 $LN31@update_att

; 1850 : 			{
; 1851 : 
; 1852 : 				left_rotor_force = 0.25 * ((edge_rotor_split * main_rotor_induced_air_value) -

  01812	f3 0f 10 45 c4	 movss	 xmm0, DWORD PTR _edge_rotor_split$[ebp]
  01817	f3 0f 59 45 9c	 mulss	 xmm0, DWORD PTR _main_rotor_induced_air_value$[ebp]
  0181c	f3 0f 10 4d c4	 movss	 xmm1, DWORD PTR _edge_rotor_split$[ebp]
  01821	f3 0f 59 4d 9c	 mulss	 xmm1, DWORD PTR _main_rotor_induced_air_value$[ebp]
  01826	f3 0f 59 4d 90	 mulss	 xmm1, DWORD PTR _main_rotor_roll_angle_value$[ebp]
  0182b	a1 00 00 00 00	 mov	 eax, DWORD PTR ?current_flight_dynamics@@3PAUDYNAMICS_TYPE@@A ; current_flight_dynamics
  01830	8b 0d 00 00 00
	00		 mov	 ecx, DWORD PTR ?current_flight_dynamics@@3PAUDYNAMICS_TYPE@@A ; current_flight_dynamics
  01836	f3 0f 10 90 f0
	1d 00 00	 movss	 xmm2, DWORD PTR [eax+7664]
  0183e	f3 0f 5c 91 ec
	1d 00 00	 subss	 xmm2, DWORD PTR [ecx+7660]
  01846	f3 0f 5e ca	 divss	 xmm1, xmm2
  0184a	f3 0f 5c c1	 subss	 xmm0, xmm1
  0184e	f3 0f 5a c0	 cvtss2sd xmm0, xmm0
  01852	f2 0f 59 05 00
	00 00 00	 mulsd	 xmm0, QWORD PTR __real@3fd0000000000000
  0185a	f2 0f 5a c0	 cvtsd2ss xmm0, xmm0
  0185e	f3 0f 11 45 b0	 movss	 DWORD PTR _left_rotor_force$[ebp], xmm0

; 1853 : 							((edge_rotor_split * main_rotor_induced_air_value * main_rotor_roll_angle_value) /
; 1854 : 							(current_flight_dynamics->main_rotor_roll_angle.max - current_flight_dynamics->main_rotor_roll_angle.min)));
; 1855 : 
; 1856 : 				left_rotor_force *= (motion_vector_magnitude *

  01863	f3 0f 10 45 cc	 movss	 xmm0, DWORD PTR _motion_vector_magnitude$[ebp]
  01868	f3 0f 59 45 cc	 mulss	 xmm0, DWORD PTR _motion_vector_magnitude$[ebp]
  0186d	f3 0f 59 45 cc	 mulss	 xmm0, DWORD PTR _motion_vector_magnitude$[ebp]
  01872	a1 00 00 00 00	 mov	 eax, DWORD PTR ?current_flight_dynamics@@3PAUDYNAMICS_TYPE@@A ; current_flight_dynamics
  01877	8b 0d 00 00 00
	00		 mov	 ecx, DWORD PTR ?current_flight_dynamics@@3PAUDYNAMICS_TYPE@@A ; current_flight_dynamics
  0187d	f3 0f 10 88 a8
	20 00 00	 movss	 xmm1, DWORD PTR [eax+8360]
  01885	f3 0f 59 89 a8
	20 00 00	 mulss	 xmm1, DWORD PTR [ecx+8360]
  0188d	8b 15 00 00 00
	00		 mov	 edx, DWORD PTR ?current_flight_dynamics@@3PAUDYNAMICS_TYPE@@A ; current_flight_dynamics
  01893	f3 0f 59 8a a8
	20 00 00	 mulss	 xmm1, DWORD PTR [edx+8360]
  0189b	f3 0f 5e c1	 divss	 xmm0, xmm1
  0189f	f3 0f 59 45 b0	 mulss	 xmm0, DWORD PTR _left_rotor_force$[ebp]
  018a4	f3 0f 11 45 b0	 movss	 DWORD PTR _left_rotor_force$[ebp], xmm0

; 1857 : 											motion_vector_magnitude *
; 1858 : 											motion_vector_magnitude) /
; 1859 : 											(current_flight_dynamics->velocity_z.max *
; 1860 : 											current_flight_dynamics->velocity_z.max *
; 1861 : 											current_flight_dynamics->velocity_z.max);
; 1862 : 
; 1863 : 				left_rotor_force *= command_line_dynamics_retreating_blade_stall_effect;

  018a9	f3 0f 10 45 b0	 movss	 xmm0, DWORD PTR _left_rotor_force$[ebp]
  018ae	f3 0f 59 05 00
	00 00 00	 mulss	 xmm0, DWORD PTR ?command_line_dynamics_retreating_blade_stall_effect@@3MA
  018b6	f3 0f 11 45 b0	 movss	 DWORD PTR _left_rotor_force$[ebp], xmm0

; 1864 : 
; 1865 : 				position.x = 7.299;

  018bb	f3 0f 10 05 00
	00 00 00	 movss	 xmm0, DWORD PTR __real@40e99168
  018c3	f3 0f 11 85 44
	ff ff ff	 movss	 DWORD PTR _position$[ebp], xmm0

; 1866 : 				position.y = 0.0;

  018cb	0f 57 c0	 xorps	 xmm0, xmm0
  018ce	f3 0f 11 85 48
	ff ff ff	 movss	 DWORD PTR _position$[ebp+4], xmm0

; 1867 : 				position.z = 0.0;

  018d6	0f 57 c0	 xorps	 xmm0, xmm0
  018d9	f3 0f 11 85 4c
	ff ff ff	 movss	 DWORD PTR _position$[ebp+8], xmm0

; 1868 : 
; 1869 : 				direction.x = 0.0;

  018e1	0f 57 c0	 xorps	 xmm0, xmm0
  018e4	f3 0f 11 85 38
	ff ff ff	 movss	 DWORD PTR _direction$[ebp], xmm0

; 1870 : 				direction.y = -current_flight_dynamics->rotor_rotation_direction;

  018ec	a1 00 00 00 00	 mov	 eax, DWORD PTR ?current_flight_dynamics@@3PAUDYNAMICS_TYPE@@A ; current_flight_dynamics
  018f1	0f bf 88 1c 25
	00 00		 movsx	 ecx, WORD PTR [eax+9500]
  018f8	f7 d9		 neg	 ecx
  018fa	f3 0f 2a c1	 cvtsi2ss xmm0, ecx
  018fe	f3 0f 11 85 3c
	ff ff ff	 movss	 DWORD PTR _direction$[ebp+4], xmm0

; 1871 : 				direction.z = 0.0;

  01906	0f 57 c0	 xorps	 xmm0, xmm0
  01909	f3 0f 11 85 40
	ff ff ff	 movss	 DWORD PTR _direction$[ebp+8], xmm0

; 1872 : 
; 1873 : 				add_dynamic_force ("Retreating blade stall", left_rotor_force, 0.0, &position, &direction, FALSE);

  01911	6a 00		 push	 0
  01913	8d 85 38 ff ff
	ff		 lea	 eax, DWORD PTR _direction$[ebp]
  01919	50		 push	 eax
  0191a	8d 8d 44 ff ff
	ff		 lea	 ecx, DWORD PTR _position$[ebp]
  01920	51		 push	 ecx
  01921	51		 push	 ecx
  01922	0f 57 c0	 xorps	 xmm0, xmm0
  01925	f3 0f 11 04 24	 movss	 DWORD PTR [esp], xmm0
  0192a	51		 push	 ecx
  0192b	f3 0f 10 45 b0	 movss	 xmm0, DWORD PTR _left_rotor_force$[ebp]
  01930	f3 0f 11 04 24	 movss	 DWORD PTR [esp], xmm0
  01935	68 00 00 00 00	 push	 OFFSET ??_C@_0BH@HFGLNDFM@Retreating?5blade?5stall@
  0193a	e8 00 00 00 00	 call	 ?add_dynamic_force@@YGXPBDMMPAUVEC3D@@1H@Z ; add_dynamic_force
$LN31@update_att:

; 1874 : 			}
; 1875 : 		}
; 1876 : 	}
; 1877 : 	////////////////////////////////////////////
; 1878 : 	// Advancing Blade lift gain
; 1879 : 	////////////////////////////////////////////
; 1880 : 	if (get_current_dynamics_options (DYNAMICS_OPTIONS_RETREATING_BLADE_STALL))

  0193f	6a 08		 push	 8
  01941	e8 00 00 00 00	 call	 ?get_current_dynamics_options@@YGHW4DYNAMICS_OPTIONS_TYPES@@@Z ; get_current_dynamics_options
  01946	85 c0		 test	 eax, eax
  01948	0f 84 57 01 00
	00		 je	 $LN35@update_att

; 1881 : 	{
; 1882 : 
; 1883 : 		if (!(get_current_dynamics_options (DYNAMICS_OPTIONS_KEYBOARD_ASSISTANCE) && (get_global_cyclic_input () == KEYBOARD_INPUT)))

  0194e	6a 05		 push	 5
  01950	e8 00 00 00 00	 call	 ?get_current_dynamics_options@@YGHW4DYNAMICS_OPTIONS_TYPES@@@Z ; get_current_dynamics_options
  01955	85 c0		 test	 eax, eax
  01957	74 0d		 je	 SHORT $LN34@update_att
  01959	83 3d 28 00 00
	00 01		 cmp	 DWORD PTR ?global_options@@3UGLOBAL_OPTIONS_DATA@@A+40, 1
  01960	0f 84 3f 01 00
	00		 je	 $LN35@update_att
$LN34@update_att:

; 1884 : 		{
; 1885 : 
; 1886 : 			if (!(current_flight_dynamics->dynamics_damage & DYNAMICS_DAMAGE_MAIN_ROTOR))

  01966	a1 00 00 00 00	 mov	 eax, DWORD PTR ?current_flight_dynamics@@3PAUDYNAMICS_TYPE@@A ; current_flight_dynamics
  0196b	8b 88 24 25 00
	00		 mov	 ecx, DWORD PTR [eax+9508]
  01971	83 e1 02	 and	 ecx, 2
  01974	0f 85 2b 01 00
	00		 jne	 $LN35@update_att

; 1887 : 			{
; 1888 : 
; 1889 : 				right_rotor_force = 0.25 * ((edge_rotor_split * main_rotor_induced_air_value) +

  0197a	f3 0f 10 45 c4	 movss	 xmm0, DWORD PTR _edge_rotor_split$[ebp]
  0197f	f3 0f 59 45 9c	 mulss	 xmm0, DWORD PTR _main_rotor_induced_air_value$[ebp]
  01984	f3 0f 10 4d c4	 movss	 xmm1, DWORD PTR _edge_rotor_split$[ebp]
  01989	f3 0f 59 4d 9c	 mulss	 xmm1, DWORD PTR _main_rotor_induced_air_value$[ebp]
  0198e	f3 0f 59 4d 90	 mulss	 xmm1, DWORD PTR _main_rotor_roll_angle_value$[ebp]
  01993	a1 00 00 00 00	 mov	 eax, DWORD PTR ?current_flight_dynamics@@3PAUDYNAMICS_TYPE@@A ; current_flight_dynamics
  01998	8b 0d 00 00 00
	00		 mov	 ecx, DWORD PTR ?current_flight_dynamics@@3PAUDYNAMICS_TYPE@@A ; current_flight_dynamics
  0199e	f3 0f 10 90 f0
	1d 00 00	 movss	 xmm2, DWORD PTR [eax+7664]
  019a6	f3 0f 5c 91 ec
	1d 00 00	 subss	 xmm2, DWORD PTR [ecx+7660]
  019ae	f3 0f 5e ca	 divss	 xmm1, xmm2
  019b2	f3 0f 58 c1	 addss	 xmm0, xmm1
  019b6	f3 0f 5a c0	 cvtss2sd xmm0, xmm0
  019ba	f2 0f 59 05 00
	00 00 00	 mulsd	 xmm0, QWORD PTR __real@3fd0000000000000
  019c2	f2 0f 5a c0	 cvtsd2ss xmm0, xmm0
  019c6	f3 0f 11 45 ac	 movss	 DWORD PTR _right_rotor_force$[ebp], xmm0

; 1890 : 							((edge_rotor_split * main_rotor_induced_air_value * main_rotor_roll_angle_value) /
; 1891 : 							(current_flight_dynamics->main_rotor_roll_angle.max - current_flight_dynamics->main_rotor_roll_angle.min)));
; 1892 : 
; 1893 : 				right_rotor_force *= (motion_vector_magnitude *

  019cb	f3 0f 10 45 cc	 movss	 xmm0, DWORD PTR _motion_vector_magnitude$[ebp]
  019d0	f3 0f 59 45 cc	 mulss	 xmm0, DWORD PTR _motion_vector_magnitude$[ebp]
  019d5	f3 0f 59 45 cc	 mulss	 xmm0, DWORD PTR _motion_vector_magnitude$[ebp]
  019da	a1 00 00 00 00	 mov	 eax, DWORD PTR ?current_flight_dynamics@@3PAUDYNAMICS_TYPE@@A ; current_flight_dynamics
  019df	8b 0d 00 00 00
	00		 mov	 ecx, DWORD PTR ?current_flight_dynamics@@3PAUDYNAMICS_TYPE@@A ; current_flight_dynamics
  019e5	f3 0f 10 88 a8
	20 00 00	 movss	 xmm1, DWORD PTR [eax+8360]
  019ed	f3 0f 59 89 a8
	20 00 00	 mulss	 xmm1, DWORD PTR [ecx+8360]
  019f5	8b 15 00 00 00
	00		 mov	 edx, DWORD PTR ?current_flight_dynamics@@3PAUDYNAMICS_TYPE@@A ; current_flight_dynamics
  019fb	f3 0f 59 8a a8
	20 00 00	 mulss	 xmm1, DWORD PTR [edx+8360]
  01a03	f3 0f 5e c1	 divss	 xmm0, xmm1
  01a07	f3 0f 59 45 ac	 mulss	 xmm0, DWORD PTR _right_rotor_force$[ebp]
  01a0c	f3 0f 11 45 ac	 movss	 DWORD PTR _right_rotor_force$[ebp], xmm0

; 1894 : 											motion_vector_magnitude *
; 1895 : 											motion_vector_magnitude) /
; 1896 : 											(current_flight_dynamics->velocity_z.max *
; 1897 : 											current_flight_dynamics->velocity_z.max *
; 1898 : 											current_flight_dynamics->velocity_z.max);
; 1899 : 
; 1900 : 				right_rotor_force *= command_line_dynamics_retreating_blade_stall_effect;

  01a11	f3 0f 10 45 ac	 movss	 xmm0, DWORD PTR _right_rotor_force$[ebp]
  01a16	f3 0f 59 05 00
	00 00 00	 mulss	 xmm0, DWORD PTR ?command_line_dynamics_retreating_blade_stall_effect@@3MA
  01a1e	f3 0f 11 45 ac	 movss	 DWORD PTR _right_rotor_force$[ebp], xmm0

; 1901 : 
; 1902 : 				position.x = -7.299;

  01a23	f3 0f 10 05 00
	00 00 00	 movss	 xmm0, DWORD PTR __real@c0e99168
  01a2b	f3 0f 11 85 44
	ff ff ff	 movss	 DWORD PTR _position$[ebp], xmm0

; 1903 : 				position.y = 0.0;

  01a33	0f 57 c0	 xorps	 xmm0, xmm0
  01a36	f3 0f 11 85 48
	ff ff ff	 movss	 DWORD PTR _position$[ebp+4], xmm0

; 1904 : 				position.z = 0.0;

  01a3e	0f 57 c0	 xorps	 xmm0, xmm0
  01a41	f3 0f 11 85 4c
	ff ff ff	 movss	 DWORD PTR _position$[ebp+8], xmm0

; 1905 : 
; 1906 : 				direction.x = 0.0;

  01a49	0f 57 c0	 xorps	 xmm0, xmm0
  01a4c	f3 0f 11 85 38
	ff ff ff	 movss	 DWORD PTR _direction$[ebp], xmm0

; 1907 : 				direction.y = current_flight_dynamics->rotor_rotation_direction;

  01a54	a1 00 00 00 00	 mov	 eax, DWORD PTR ?current_flight_dynamics@@3PAUDYNAMICS_TYPE@@A ; current_flight_dynamics
  01a59	0f bf 88 1c 25
	00 00		 movsx	 ecx, WORD PTR [eax+9500]
  01a60	f3 0f 2a c1	 cvtsi2ss xmm0, ecx
  01a64	f3 0f 11 85 3c
	ff ff ff	 movss	 DWORD PTR _direction$[ebp+4], xmm0

; 1908 : 				direction.z = 0.0;

  01a6c	0f 57 c0	 xorps	 xmm0, xmm0
  01a6f	f3 0f 11 85 40
	ff ff ff	 movss	 DWORD PTR _direction$[ebp+8], xmm0

; 1909 : 
; 1910 : 				add_dynamic_force ("Advancing blade stall", right_rotor_force, 0.0, &position, &direction, FALSE);

  01a77	6a 00		 push	 0
  01a79	8d 85 38 ff ff
	ff		 lea	 eax, DWORD PTR _direction$[ebp]
  01a7f	50		 push	 eax
  01a80	8d 8d 44 ff ff
	ff		 lea	 ecx, DWORD PTR _position$[ebp]
  01a86	51		 push	 ecx
  01a87	51		 push	 ecx
  01a88	0f 57 c0	 xorps	 xmm0, xmm0
  01a8b	f3 0f 11 04 24	 movss	 DWORD PTR [esp], xmm0
  01a90	51		 push	 ecx
  01a91	f3 0f 10 45 ac	 movss	 xmm0, DWORD PTR _right_rotor_force$[ebp]
  01a96	f3 0f 11 04 24	 movss	 DWORD PTR [esp], xmm0
  01a9b	68 00 00 00 00	 push	 OFFSET ??_C@_0BG@LPCPLOKH@Advancing?5blade?5stall@
  01aa0	e8 00 00 00 00	 call	 ?add_dynamic_force@@YGXPBDMMPAUVEC3D@@1H@Z ; add_dynamic_force
$LN35@update_att:

; 1911 : 			}
; 1912 : 		}
; 1913 : 	}
; 1914 : 	////////////////////////////////////////////
; 1915 : 	// Advancing Blade Sonic Buildup effect
; 1916 : 	////////////////////////////////////////////
; 1917 : 	if (!(current_flight_dynamics->dynamics_damage & DYNAMICS_DAMAGE_MAIN_ROTOR))

  01aa5	a1 00 00 00 00	 mov	 eax, DWORD PTR ?current_flight_dynamics@@3PAUDYNAMICS_TYPE@@A ; current_flight_dynamics
  01aaa	8b 88 24 25 00
	00		 mov	 ecx, DWORD PTR [eax+9508]
  01ab0	83 e1 02	 and	 ecx, 2
  01ab3	0f 85 99 02 00
	00		 jne	 $LN36@update_att

; 1918 : 	{
; 1919 : 
; 1920 : 		// 0.2 defines the buildup
; 1921 : 		force = sfrand1 () * exp (0.2 * (velocity_z_value - current_flight_dynamics->velocity_z.max));

  01ab9	69 05 00 00 00
	00 6d 4e c6 41	 imul	 eax, DWORD PTR ?random_number_seed@@3HA, 1103515245 ; random_number_seed
  01ac3	05 39 30 00 00	 add	 eax, 12345		; 00003039H
  01ac8	a3 00 00 00 00	 mov	 DWORD PTR ?random_number_seed@@3HA, eax ; random_number_seed
  01acd	8b 0d 00 00 00
	00		 mov	 ecx, DWORD PTR ?random_number_seed@@3HA ; random_number_seed
  01ad3	c1 f9 10	 sar	 ecx, 16			; 00000010H
  01ad6	81 e1 ff 7f 00
	00		 and	 ecx, 32767		; 00007fffH
  01adc	81 e9 00 40 00
	00		 sub	 ecx, 16384		; 00004000H
  01ae2	f2 0f 2a c1	 cvtsi2sd xmm0, ecx
  01ae6	f2 0f 59 05 00
	00 00 00	 mulsd	 xmm0, QWORD PTR __real@3f10000000000000
  01aee	8b 15 00 00 00
	00		 mov	 edx, DWORD PTR ?current_flight_dynamics@@3PAUDYNAMICS_TYPE@@A ; current_flight_dynamics
  01af4	f3 0f 10 8d 70
	ff ff ff	 movss	 xmm1, DWORD PTR _velocity_z_value$[ebp]
  01afc	f3 0f 5c 8a a8
	20 00 00	 subss	 xmm1, DWORD PTR [edx+8360]
  01b04	f3 0f 5a c9	 cvtss2sd xmm1, xmm1
  01b08	f2 0f 59 0d 00
	00 00 00	 mulsd	 xmm1, QWORD PTR __real@3fc999999999999a
  01b10	83 ec 08	 sub	 esp, 8
  01b13	f2 0f 11 0c 24	 movsd	 QWORD PTR [esp], xmm1
  01b18	f2 0f 11 85 18
	fd ff ff	 movsd	 QWORD PTR tv3754[ebp], xmm0
  01b20	e8 00 00 00 00	 call	 _exp
  01b25	83 c4 08	 add	 esp, 8
  01b28	dd 9d 10 fd ff
	ff		 fstp	 QWORD PTR tv2895[ebp]
  01b2e	f2 0f 10 85 18
	fd ff ff	 movsd	 xmm0, QWORD PTR tv3754[ebp]
  01b36	f2 0f 59 85 10
	fd ff ff	 mulsd	 xmm0, QWORD PTR tv2895[ebp]
  01b3e	f2 0f 5a c0	 cvtsd2ss xmm0, xmm0
  01b42	f3 0f 11 45 c0	 movss	 DWORD PTR _force$[ebp], xmm0

; 1922 : 
; 1923 : 		// scale on blade pitch.
; 1924 : 		force *= ((current_flight_dynamics->main_blade_pitch.value - current_flight_dynamics->main_blade_pitch.min) / (current_flight_dynamics->main_blade_pitch.max - current_flight_dynamics->main_blade_pitch.min));

  01b47	a1 00 00 00 00	 mov	 eax, DWORD PTR ?current_flight_dynamics@@3PAUDYNAMICS_TYPE@@A ; current_flight_dynamics
  01b4c	8b 0d 00 00 00
	00		 mov	 ecx, DWORD PTR ?current_flight_dynamics@@3PAUDYNAMICS_TYPE@@A ; current_flight_dynamics
  01b52	f3 0f 10 80 8c
	1e 00 00	 movss	 xmm0, DWORD PTR [eax+7820]
  01b5a	f3 0f 5c 81 94
	1e 00 00	 subss	 xmm0, DWORD PTR [ecx+7828]
  01b62	8b 15 00 00 00
	00		 mov	 edx, DWORD PTR ?current_flight_dynamics@@3PAUDYNAMICS_TYPE@@A ; current_flight_dynamics
  01b68	a1 00 00 00 00	 mov	 eax, DWORD PTR ?current_flight_dynamics@@3PAUDYNAMICS_TYPE@@A ; current_flight_dynamics
  01b6d	f3 0f 10 8a 98
	1e 00 00	 movss	 xmm1, DWORD PTR [edx+7832]
  01b75	f3 0f 5c 88 94
	1e 00 00	 subss	 xmm1, DWORD PTR [eax+7828]
  01b7d	f3 0f 5e c1	 divss	 xmm0, xmm1
  01b81	f3 0f 59 45 c0	 mulss	 xmm0, DWORD PTR _force$[ebp]
  01b86	f3 0f 11 45 c0	 movss	 DWORD PTR _force$[ebp], xmm0

; 1925 : 
; 1926 : 		if (fabs (force) > 2.0)

  01b8b	51		 push	 ecx
  01b8c	f3 0f 10 45 c0	 movss	 xmm0, DWORD PTR _force$[ebp]
  01b91	f3 0f 11 04 24	 movss	 DWORD PTR [esp], xmm0
  01b96	e8 00 00 00 00	 call	 ?fabs@@YGMM@Z		; fabs
  01b9b	dd 9d 18 fd ff
	ff		 fstp	 QWORD PTR tv2909[ebp]
  01ba1	f2 0f 10 85 18
	fd ff ff	 movsd	 xmm0, QWORD PTR tv2909[ebp]
  01ba9	66 0f 2f 05 00
	00 00 00	 comisd	 xmm0, QWORD PTR __real@4000000000000000
  01bb1	76 7e		 jbe	 SHORT $LN37@update_att

; 1927 : 		{
; 1928 : 
; 1929 : 			dynamics_damage_model (DYNAMICS_DAMAGE_MAIN_ROTOR, FALSE);

  01bb3	6a 00		 push	 0
  01bb5	6a 02		 push	 2
  01bb7	e8 00 00 00 00	 call	 ?dynamics_damage_model@@YGXIH@Z ; dynamics_damage_model

; 1930 : 
; 1931 : 			force = bound (force, -2.0, 2.0);

  01bbc	f3 0f 5a 45 c0	 cvtss2sd xmm0, DWORD PTR _force$[ebp]
  01bc1	f2 0f 10 0d 00
	00 00 00	 movsd	 xmm1, QWORD PTR __real@c000000000000000
  01bc9	66 0f 2f c8	 comisd	 xmm1, xmm0
  01bcd	76 12		 jbe	 SHORT $LN120@update_att
  01bcf	f2 0f 10 05 00
	00 00 00	 movsd	 xmm0, QWORD PTR __real@c000000000000000
  01bd7	f2 0f 11 85 18
	fd ff ff	 movsd	 QWORD PTR tv1038[ebp], xmm0
  01bdf	eb 3e		 jmp	 SHORT $LN121@update_att
$LN120@update_att:
  01be1	f3 0f 5a 45 c0	 cvtss2sd xmm0, DWORD PTR _force$[ebp]
  01be6	66 0f 2f 05 00
	00 00 00	 comisd	 xmm0, QWORD PTR __real@4000000000000000
  01bee	76 12		 jbe	 SHORT $LN118@update_att
  01bf0	f2 0f 10 05 00
	00 00 00	 movsd	 xmm0, QWORD PTR __real@4000000000000000
  01bf8	f2 0f 11 85 10
	fd ff ff	 movsd	 QWORD PTR tv1037[ebp], xmm0
  01c00	eb 0d		 jmp	 SHORT $LN119@update_att
$LN118@update_att:
  01c02	f3 0f 5a 45 c0	 cvtss2sd xmm0, DWORD PTR _force$[ebp]
  01c07	f2 0f 11 85 10
	fd ff ff	 movsd	 QWORD PTR tv1037[ebp], xmm0
$LN119@update_att:
  01c0f	f2 0f 10 85 10
	fd ff ff	 movsd	 xmm0, QWORD PTR tv1037[ebp]
  01c17	f2 0f 11 85 18
	fd ff ff	 movsd	 QWORD PTR tv1038[ebp], xmm0
$LN121@update_att:
  01c1f	f2 0f 5a 85 18
	fd ff ff	 cvtsd2ss xmm0, QWORD PTR tv1038[ebp]
  01c27	f3 0f 11 45 c0	 movss	 DWORD PTR _force$[ebp], xmm0
  01c2c	e9 9f 00 00 00	 jmp	 $LN40@update_att
$LN37@update_att:

; 1932 : 		}
; 1933 : 		else if (fabs (force) > 1.0)

  01c31	51		 push	 ecx
  01c32	f3 0f 10 45 c0	 movss	 xmm0, DWORD PTR _force$[ebp]
  01c37	f3 0f 11 04 24	 movss	 DWORD PTR [esp], xmm0
  01c3c	e8 00 00 00 00	 call	 ?fabs@@YGMM@Z		; fabs
  01c41	dd 9d 18 fd ff
	ff		 fstp	 QWORD PTR tv2920[ebp]
  01c47	f2 0f 10 85 18
	fd ff ff	 movsd	 xmm0, QWORD PTR tv2920[ebp]
  01c4f	66 0f 2f 05 00
	00 00 00	 comisd	 xmm0, QWORD PTR __real@3ff0000000000000
  01c57	76 77		 jbe	 SHORT $LN40@update_att

; 1934 : 		{
; 1935 : 
; 1936 : 			static float
; 1937 : 				time = 0.0;
; 1938 : 
; 1939 : 			// Approaching VNE speech
; 1940 : 
; 1941 : 			time -= get_model_delta_time ();

  01c59	a1 00 00 00 00	 mov	 eax, DWORD PTR ?current_flight_dynamics@@3PAUDYNAMICS_TYPE@@A ; current_flight_dynamics
  01c5e	f3 0f 10 05 00
	00 00 00	 movss	 xmm0, DWORD PTR ?time@?GP@??update_attitude_dynamics@@YGXXZ@4MA
  01c66	f3 0f 5c 80 90
	00 00 00	 subss	 xmm0, DWORD PTR [eax+144]
  01c6e	f3 0f 11 05 00
	00 00 00	 movss	 DWORD PTR ?time@?GP@??update_attitude_dynamics@@YGXXZ@4MA, xmm0

; 1942 : 
; 1943 : 			if (time <= 0.0)

  01c76	f3 0f 5a 05 00
	00 00 00	 cvtss2sd xmm0, DWORD PTR ?time@?GP@??update_attitude_dynamics@@YGXXZ@4MA
  01c7e	0f 57 c9	 xorps	 xmm1, xmm1
  01c81	66 0f 2f c8	 comisd	 xmm1, xmm0
  01c85	72 49		 jb	 SHORT $LN40@update_att

; 1944 : 			{
; 1945 : 
; 1946 : 				play_client_server_cpg_message (get_gunship_entity (), 0.5, 1.0, SPEECH_CATEGORY_CPG_SYSTEMS, 1.0, SPEECH_CPG_HOVER_HOLD_TOO_FAST1);

  01c87	6a 0a		 push	 10			; 0000000aH
  01c89	51		 push	 ecx
  01c8a	f3 0f 10 05 00
	00 00 00	 movss	 xmm0, DWORD PTR __real@3f800000
  01c92	f3 0f 11 04 24	 movss	 DWORD PTR [esp], xmm0
  01c97	6a 04		 push	 4
  01c99	51		 push	 ecx
  01c9a	f3 0f 10 05 00
	00 00 00	 movss	 xmm0, DWORD PTR __real@3f800000
  01ca2	f3 0f 11 04 24	 movss	 DWORD PTR [esp], xmm0
  01ca7	51		 push	 ecx
  01ca8	f3 0f 10 05 00
	00 00 00	 movss	 xmm0, DWORD PTR __real@3f000000
  01cb0	f3 0f 11 04 24	 movss	 DWORD PTR [esp], xmm0
  01cb5	a1 00 00 00 00	 mov	 eax, DWORD PTR ?gunship_entity@@3PAUENTITY@@A ; gunship_entity
  01cba	50		 push	 eax
  01cbb	e8 00 00 00 00	 call	 ?play_client_server_cpg_message@@YGHPAUENTITY@@MMHMH@Z ; play_client_server_cpg_message

; 1947 : 
; 1948 : 				time = DYNAMICS_EXCEEDING_VNE_SPEECH_TIME;

  01cc0	f3 0f 10 05 00
	00 00 00	 movss	 xmm0, DWORD PTR __real@41a00000
  01cc8	f3 0f 11 05 00
	00 00 00	 movss	 DWORD PTR ?time@?GP@??update_attitude_dynamics@@YGXXZ@4MA, xmm0
$LN40@update_att:

; 1949 : 			}
; 1950 : 		}
; 1951 : 
; 1952 : 		position.x = -7.299;

  01cd0	f3 0f 10 05 00
	00 00 00	 movss	 xmm0, DWORD PTR __real@c0e99168
  01cd8	f3 0f 11 85 44
	ff ff ff	 movss	 DWORD PTR _position$[ebp], xmm0

; 1953 : 		position.y = 0.0;

  01ce0	0f 57 c0	 xorps	 xmm0, xmm0
  01ce3	f3 0f 11 85 48
	ff ff ff	 movss	 DWORD PTR _position$[ebp+4], xmm0

; 1954 : 		position.z = 0.0;

  01ceb	0f 57 c0	 xorps	 xmm0, xmm0
  01cee	f3 0f 11 85 4c
	ff ff ff	 movss	 DWORD PTR _position$[ebp+8], xmm0

; 1955 : 
; 1956 : 		direction.x = 0.0;

  01cf6	0f 57 c0	 xorps	 xmm0, xmm0
  01cf9	f3 0f 11 85 38
	ff ff ff	 movss	 DWORD PTR _direction$[ebp], xmm0

; 1957 : 		direction.y = current_flight_dynamics->rotor_rotation_direction;

  01d01	a1 00 00 00 00	 mov	 eax, DWORD PTR ?current_flight_dynamics@@3PAUDYNAMICS_TYPE@@A ; current_flight_dynamics
  01d06	0f bf 88 1c 25
	00 00		 movsx	 ecx, WORD PTR [eax+9500]
  01d0d	f3 0f 2a c1	 cvtsi2ss xmm0, ecx
  01d11	f3 0f 11 85 3c
	ff ff ff	 movss	 DWORD PTR _direction$[ebp+4], xmm0

; 1958 : 		direction.z = 0.0;

  01d19	0f 57 c0	 xorps	 xmm0, xmm0
  01d1c	f3 0f 11 85 40
	ff ff ff	 movss	 DWORD PTR _direction$[ebp+8], xmm0

; 1959 : 
; 1960 : 		add_dynamic_force ("Sonic buildup", force, 0.0, &position, &direction, FALSE);

  01d24	6a 00		 push	 0
  01d26	8d 85 38 ff ff
	ff		 lea	 eax, DWORD PTR _direction$[ebp]
  01d2c	50		 push	 eax
  01d2d	8d 8d 44 ff ff
	ff		 lea	 ecx, DWORD PTR _position$[ebp]
  01d33	51		 push	 ecx
  01d34	51		 push	 ecx
  01d35	0f 57 c0	 xorps	 xmm0, xmm0
  01d38	f3 0f 11 04 24	 movss	 DWORD PTR [esp], xmm0
  01d3d	51		 push	 ecx
  01d3e	f3 0f 10 45 c0	 movss	 xmm0, DWORD PTR _force$[ebp]
  01d43	f3 0f 11 04 24	 movss	 DWORD PTR [esp], xmm0
  01d48	68 00 00 00 00	 push	 OFFSET ??_C@_0O@JIJAGCOD@Sonic?5buildup@
  01d4d	e8 00 00 00 00	 call	 ?add_dynamic_force@@YGXPBDMMPAUVEC3D@@1H@Z ; add_dynamic_force
$LN36@update_att:

; 1961 : 	}
; 1962 : 	////////////////////////////////////////////
; 1963 : 	// main rotor disc torque effect
; 1964 : 	////////////////////////////////////////////
; 1965 : 
; 1966 : 	{
; 1967 : 		// arneh - main rotor produces no torque when disengaged from
; 1968 : 		// engine or if running with cross coupling enabled
; 1969 : 		if (current_flight_dynamics->rotor_brake ||

  01d52	a1 00 00 00 00	 mov	 eax, DWORD PTR ?current_flight_dynamics@@3PAUDYNAMICS_TYPE@@A ; current_flight_dynamics
  01d57	8b 88 28 25 00
	00		 mov	 ecx, DWORD PTR [eax+9512]
  01d5d	c1 e9 05	 shr	 ecx, 5
  01d60	83 e1 01	 and	 ecx, 1
  01d63	75 1b		 jne	 SHORT $LN43@update_att
  01d65	a1 00 00 00 00	 mov	 eax, DWORD PTR ?current_flight_dynamics@@3PAUDYNAMICS_TYPE@@A ; current_flight_dynamics
  01d6a	0f b7 88 d4 1f
	00 00		 movzx	 ecx, WORD PTR [eax+8148]
  01d71	85 c9		 test	 ecx, ecx
  01d73	75 18		 jne	 SHORT $LN41@update_att
  01d75	6a 00		 push	 0
  01d77	e8 00 00 00 00	 call	 ?get_current_dynamics_options@@YGHW4DYNAMICS_OPTIONS_TYPES@@@Z ; get_current_dynamics_options
  01d7c	85 c0		 test	 eax, eax
  01d7e	74 0d		 je	 SHORT $LN41@update_att
$LN43@update_att:

; 1970 : 			(!current_flight_dynamics->cross_coupling_effect.damaged) &&
; 1971 : 			(get_current_dynamics_options (DYNAMICS_OPTIONS_CROSS_COUPLING)))
; 1972 : 		{
; 1973 : 			main_angular_force = 0.0;

  01d80	0f 57 c0	 xorps	 xmm0, xmm0
  01d83	f3 0f 11 45 a4	 movss	 DWORD PTR _main_angular_force$[ebp], xmm0

; 1974 : 		}
; 1975 : 		else

  01d88	e9 90 04 00 00	 jmp	 $LN42@update_att
$LN41@update_att:

; 1976 : 		{
; 1977 : 
; 1978 : 			static float
; 1979 : 				v = 0.0,
; 1980 : 				relative_air_flow_angle = 0,
; 1981 : 				res = 6,
; 1982 : 				mass = 40.0,
; 1983 : 				torque = 0.0;
; 1984 : 
; 1985 : 			float
; 1986 : 				f = 0.0,

  01d8d	0f 57 c0	 xorps	 xmm0, xmm0
  01d90	f3 0f 11 85 d0
	fe ff ff	 movss	 DWORD PTR _f$53[ebp], xmm0

; 1987 : 				p = 0.0025,

  01d98	f3 0f 10 05 00
	00 00 00	 movss	 xmm0, DWORD PTR __real@3b23d70a
  01da0	f3 0f 11 85 cc
	fe ff ff	 movss	 DWORD PTR _p$52[ebp], xmm0

; 1988 : 				i = 0.00125,

  01da8	f3 0f 10 05 00
	00 00 00	 movss	 xmm0, DWORD PTR __real@3aa3d70a
  01db0	f3 0f 11 85 c8
	fe ff ff	 movss	 DWORD PTR _i$51[ebp], xmm0

; 1989 : 				engine_response = 8.0,

  01db8	f3 0f 10 05 00
	00 00 00	 movss	 xmm0, DWORD PTR __real@41000000
  01dc0	f3 0f 11 85 c4
	fe ff ff	 movss	 DWORD PTR _engine_response$50[ebp], xmm0

; 1990 : 				blade_pitch,
; 1991 : 				a,
; 1992 : 				u,
; 1993 : 				rotor_friction,
; 1994 : 				rotor_parasitic,
; 1995 : 				rotor_induced,
; 1996 : 				rotor_drag;
; 1997 : 
; 1998 : 			u = main_rotor_rpm_value;

  01dc8	f3 0f 10 45 94	 movss	 xmm0, DWORD PTR _main_rotor_rpm_value$[ebp]
  01dcd	f3 0f 11 85 b8
	fe ff ff	 movss	 DWORD PTR _u$47[ebp], xmm0

; 1999 : 
; 2000 : 			blade_pitch = bound (main_blade_pitch_value, current_flight_dynamics->main_blade_pitch.min, current_flight_dynamics->main_blade_pitch.max);

  01dd5	a1 00 00 00 00	 mov	 eax, DWORD PTR ?current_flight_dynamics@@3PAUDYNAMICS_TYPE@@A ; current_flight_dynamics
  01dda	f3 0f 10 80 94
	1e 00 00	 movss	 xmm0, DWORD PTR [eax+7828]
  01de2	0f 2f 85 68 ff
	ff ff		 comiss	 xmm0, DWORD PTR _main_blade_pitch_value$[ebp]
  01de9	76 18		 jbe	 SHORT $LN124@update_att
  01deb	8b 0d 00 00 00
	00		 mov	 ecx, DWORD PTR ?current_flight_dynamics@@3PAUDYNAMICS_TYPE@@A ; current_flight_dynamics
  01df1	f3 0f 10 81 94
	1e 00 00	 movss	 xmm0, DWORD PTR [ecx+7828]
  01df9	f3 0f 11 85 1c
	fd ff ff	 movss	 DWORD PTR tv1085[ebp], xmm0
  01e01	eb 4e		 jmp	 SHORT $LN125@update_att
$LN124@update_att:
  01e03	8b 15 00 00 00
	00		 mov	 edx, DWORD PTR ?current_flight_dynamics@@3PAUDYNAMICS_TYPE@@A ; current_flight_dynamics
  01e09	f3 0f 10 85 68
	ff ff ff	 movss	 xmm0, DWORD PTR _main_blade_pitch_value$[ebp]
  01e11	0f 2f 82 98 1e
	00 00		 comiss	 xmm0, DWORD PTR [edx+7832]
  01e18	76 17		 jbe	 SHORT $LN122@update_att
  01e1a	a1 00 00 00 00	 mov	 eax, DWORD PTR ?current_flight_dynamics@@3PAUDYNAMICS_TYPE@@A ; current_flight_dynamics
  01e1f	f3 0f 10 80 98
	1e 00 00	 movss	 xmm0, DWORD PTR [eax+7832]
  01e27	f3 0f 11 85 18
	fd ff ff	 movss	 DWORD PTR tv1084[ebp], xmm0
  01e2f	eb 10		 jmp	 SHORT $LN123@update_att
$LN122@update_att:
  01e31	f3 0f 10 85 68
	ff ff ff	 movss	 xmm0, DWORD PTR _main_blade_pitch_value$[ebp]
  01e39	f3 0f 11 85 18
	fd ff ff	 movss	 DWORD PTR tv1084[ebp], xmm0
$LN123@update_att:
  01e41	f3 0f 10 85 18
	fd ff ff	 movss	 xmm0, DWORD PTR tv1084[ebp]
  01e49	f3 0f 11 85 1c
	fd ff ff	 movss	 DWORD PTR tv1085[ebp], xmm0
$LN125@update_att:
  01e51	f3 0f 10 85 1c
	fd ff ff	 movss	 xmm0, DWORD PTR tv1085[ebp]
  01e59	f3 0f 11 85 c0
	fe ff ff	 movss	 DWORD PTR _blade_pitch$49[ebp], xmm0

; 2001 : 
; 2002 : 			blade_pitch = main_blade_pitch_value - current_flight_dynamics->main_blade_pitch.min;

  01e61	a1 00 00 00 00	 mov	 eax, DWORD PTR ?current_flight_dynamics@@3PAUDYNAMICS_TYPE@@A ; current_flight_dynamics
  01e66	f3 0f 10 85 68
	ff ff ff	 movss	 xmm0, DWORD PTR _main_blade_pitch_value$[ebp]
  01e6e	f3 0f 5c 80 94
	1e 00 00	 subss	 xmm0, DWORD PTR [eax+7828]
  01e76	f3 0f 11 85 c0
	fe ff ff	 movss	 DWORD PTR _blade_pitch$49[ebp], xmm0

; 2003 : 
; 2004 : 			////////////////////////////////////////////////////////////
; 2005 : 
; 2006 : 			relative_air_flow_angle = 0.0;

  01e7e	0f 57 c0	 xorps	 xmm0, xmm0
  01e81	f3 0f 11 05 00
	00 00 00	 movss	 DWORD PTR ?relative_air_flow_angle@?HI@??update_attitude_dynamics@@YGXXZ@4MA, xmm0

; 2007 : 
; 2008 : 			rotor_friction = u * f;

  01e89	f3 0f 10 85 b8
	fe ff ff	 movss	 xmm0, DWORD PTR _u$47[ebp]
  01e91	f3 0f 59 85 d0
	fe ff ff	 mulss	 xmm0, DWORD PTR _f$53[ebp]
  01e99	f3 0f 11 85 b4
	fe ff ff	 movss	 DWORD PTR _rotor_friction$46[ebp], xmm0

; 2009 : 			rotor_parasitic = (u * u) * p;

  01ea1	f3 0f 10 85 b8
	fe ff ff	 movss	 xmm0, DWORD PTR _u$47[ebp]
  01ea9	f3 0f 59 85 b8
	fe ff ff	 mulss	 xmm0, DWORD PTR _u$47[ebp]
  01eb1	f3 0f 59 85 cc
	fe ff ff	 mulss	 xmm0, DWORD PTR _p$52[ebp]
  01eb9	f3 0f 11 85 b0
	fe ff ff	 movss	 DWORD PTR _rotor_parasitic$45[ebp], xmm0

; 2010 : 			rotor_induced = (u * u) * i * deg (fabs (blade_pitch + relative_air_flow_angle));

  01ec1	f3 0f 10 85 b8
	fe ff ff	 movss	 xmm0, DWORD PTR _u$47[ebp]
  01ec9	f3 0f 59 85 b8
	fe ff ff	 mulss	 xmm0, DWORD PTR _u$47[ebp]
  01ed1	f3 0f 59 85 c8
	fe ff ff	 mulss	 xmm0, DWORD PTR _i$51[ebp]
  01ed9	f3 0f 10 8d c0
	fe ff ff	 movss	 xmm1, DWORD PTR _blade_pitch$49[ebp]
  01ee1	f3 0f 58 0d 00
	00 00 00	 addss	 xmm1, DWORD PTR ?relative_air_flow_angle@?HI@??update_attitude_dynamics@@YGXXZ@4MA
  01ee9	51		 push	 ecx
  01eea	f3 0f 11 0c 24	 movss	 DWORD PTR [esp], xmm1
  01eef	f3 0f 11 85 1c
	fd ff ff	 movss	 DWORD PTR tv3756[ebp], xmm0
  01ef7	e8 00 00 00 00	 call	 ?fabs@@YGMM@Z		; fabs
  01efc	d9 9d 18 fd ff
	ff		 fstp	 DWORD PTR tv2976[ebp]
  01f02	f3 0f 10 85 18
	fd ff ff	 movss	 xmm0, DWORD PTR tv2976[ebp]
  01f0a	f3 0f 59 05 00
	00 00 00	 mulss	 xmm0, DWORD PTR __real@42652ee0
  01f12	f3 0f 10 8d 1c
	fd ff ff	 movss	 xmm1, DWORD PTR tv3756[ebp]
  01f1a	f3 0f 59 c8	 mulss	 xmm1, xmm0
  01f1e	f3 0f 11 8d ac
	fe ff ff	 movss	 DWORD PTR _rotor_induced$44[ebp], xmm1

; 2011 : 			rotor_drag = rotor_friction + rotor_parasitic + rotor_induced;

  01f26	f3 0f 10 85 b4
	fe ff ff	 movss	 xmm0, DWORD PTR _rotor_friction$46[ebp]
  01f2e	f3 0f 58 85 b0
	fe ff ff	 addss	 xmm0, DWORD PTR _rotor_parasitic$45[ebp]
  01f36	f3 0f 58 85 ac
	fe ff ff	 addss	 xmm0, DWORD PTR _rotor_induced$44[ebp]
  01f3e	f3 0f 11 85 a8
	fe ff ff	 movss	 DWORD PTR _rotor_drag$43[ebp], xmm0

; 2012 : 
; 2013 : 			if (current_flight_dynamics->rotor_brake)

  01f46	a1 00 00 00 00	 mov	 eax, DWORD PTR ?current_flight_dynamics@@3PAUDYNAMICS_TYPE@@A ; current_flight_dynamics
  01f4b	8b 88 28 25 00
	00		 mov	 ecx, DWORD PTR [eax+9512]
  01f51	c1 e9 05	 shr	 ecx, 5
  01f54	83 e1 01	 and	 ecx, 1
  01f57	74 1a		 je	 SHORT $LN44@update_att

; 2014 : 			{
; 2015 : 
; 2016 : 				a = rotor_drag / mass;

  01f59	f3 0f 10 85 a8
	fe ff ff	 movss	 xmm0, DWORD PTR _rotor_drag$43[ebp]
  01f61	f3 0f 5e 05 00
	00 00 00	 divss	 xmm0, DWORD PTR ?mass@?HI@??update_attitude_dynamics@@YGXXZ@4MA
  01f69	f3 0f 11 85 bc
	fe ff ff	 movss	 DWORD PTR _a$48[ebp], xmm0

; 2017 : 			}
; 2018 : 			else

  01f71	eb 20		 jmp	 SHORT $LN45@update_att
$LN44@update_att:

; 2019 : 			{
; 2020 : 
; 2021 : 				a = (torque - rotor_drag) / mass;

  01f73	f3 0f 10 05 00
	00 00 00	 movss	 xmm0, DWORD PTR ?torque@?HI@??update_attitude_dynamics@@YGXXZ@4MA
  01f7b	f3 0f 5c 85 a8
	fe ff ff	 subss	 xmm0, DWORD PTR _rotor_drag$43[ebp]
  01f83	f3 0f 5e 05 00
	00 00 00	 divss	 xmm0, DWORD PTR ?mass@?HI@??update_attitude_dynamics@@YGXXZ@4MA
  01f8b	f3 0f 11 85 bc
	fe ff ff	 movss	 DWORD PTR _a$48[ebp], xmm0
$LN45@update_att:

; 2022 : 			}
; 2023 : 
; 2024 : 			v = u + (a * get_model_delta_time ());

  01f93	a1 00 00 00 00	 mov	 eax, DWORD PTR ?current_flight_dynamics@@3PAUDYNAMICS_TYPE@@A ; current_flight_dynamics
  01f98	f3 0f 10 85 bc
	fe ff ff	 movss	 xmm0, DWORD PTR _a$48[ebp]
  01fa0	f3 0f 59 80 90
	00 00 00	 mulss	 xmm0, DWORD PTR [eax+144]
  01fa8	f3 0f 58 85 b8
	fe ff ff	 addss	 xmm0, DWORD PTR _u$47[ebp]
  01fb0	f3 0f 11 05 00
	00 00 00	 movss	 DWORD PTR ?v@?HI@??update_attitude_dynamics@@YGXXZ@4MA, xmm0

; 2025 : 
; 2026 : 			// engine management
; 2027 : 
; 2028 : 			torque += engine_response * (100.0 - (v + (a * res))) * get_model_delta_time ();

  01fb8	f3 0f 5a 85 c4
	fe ff ff	 cvtss2sd xmm0, DWORD PTR _engine_response$50[ebp]
  01fc0	f3 0f 10 8d bc
	fe ff ff	 movss	 xmm1, DWORD PTR _a$48[ebp]
  01fc8	f3 0f 59 0d 00
	00 00 00	 mulss	 xmm1, DWORD PTR ?res@?HI@??update_attitude_dynamics@@YGXXZ@4MA
  01fd0	f3 0f 58 0d 00
	00 00 00	 addss	 xmm1, DWORD PTR ?v@?HI@??update_attitude_dynamics@@YGXXZ@4MA
  01fd8	f3 0f 5a c9	 cvtss2sd xmm1, xmm1
  01fdc	f2 0f 10 15 00
	00 00 00	 movsd	 xmm2, QWORD PTR __real@4059000000000000
  01fe4	f2 0f 5c d1	 subsd	 xmm2, xmm1
  01fe8	f2 0f 59 c2	 mulsd	 xmm0, xmm2
  01fec	a1 00 00 00 00	 mov	 eax, DWORD PTR ?current_flight_dynamics@@3PAUDYNAMICS_TYPE@@A ; current_flight_dynamics
  01ff1	f3 0f 5a 88 90
	00 00 00	 cvtss2sd xmm1, DWORD PTR [eax+144]
  01ff9	f2 0f 59 c1	 mulsd	 xmm0, xmm1
  01ffd	f3 0f 5a 0d 00
	00 00 00	 cvtss2sd xmm1, DWORD PTR ?torque@?HI@??update_attitude_dynamics@@YGXXZ@4MA
  02005	f2 0f 58 c8	 addsd	 xmm1, xmm0
  02009	f2 0f 5a c1	 cvtsd2ss xmm0, xmm1
  0200d	f3 0f 11 05 00
	00 00 00	 movss	 DWORD PTR ?torque@?HI@??update_attitude_dynamics@@YGXXZ@4MA, xmm0

; 2029 : 			torque = bound (torque, 0.0, 120.0);

  02015	f3 0f 5a 05 00
	00 00 00	 cvtss2sd xmm0, DWORD PTR ?torque@?HI@??update_attitude_dynamics@@YGXXZ@4MA
  0201d	0f 57 c9	 xorps	 xmm1, xmm1
  02020	66 0f 2f c8	 comisd	 xmm1, xmm0
  02024	76 0d		 jbe	 SHORT $LN128@update_att
  02026	0f 57 c0	 xorps	 xmm0, xmm0
  02029	f2 0f 11 85 18
	fd ff ff	 movsd	 QWORD PTR tv1129[ebp], xmm0
  02031	eb 44		 jmp	 SHORT $LN129@update_att
$LN128@update_att:
  02033	f3 0f 5a 05 00
	00 00 00	 cvtss2sd xmm0, DWORD PTR ?torque@?HI@??update_attitude_dynamics@@YGXXZ@4MA
  0203b	66 0f 2f 05 00
	00 00 00	 comisd	 xmm0, QWORD PTR __real@405e000000000000
  02043	76 12		 jbe	 SHORT $LN126@update_att
  02045	f2 0f 10 05 00
	00 00 00	 movsd	 xmm0, QWORD PTR __real@405e000000000000
  0204d	f2 0f 11 85 10
	fd ff ff	 movsd	 QWORD PTR tv1128[ebp], xmm0
  02055	eb 10		 jmp	 SHORT $LN127@update_att
$LN126@update_att:
  02057	f3 0f 5a 05 00
	00 00 00	 cvtss2sd xmm0, DWORD PTR ?torque@?HI@??update_attitude_dynamics@@YGXXZ@4MA
  0205f	f2 0f 11 85 10
	fd ff ff	 movsd	 QWORD PTR tv1128[ebp], xmm0
$LN127@update_att:
  02067	f2 0f 10 85 10
	fd ff ff	 movsd	 xmm0, QWORD PTR tv1128[ebp]
  0206f	f2 0f 11 85 18
	fd ff ff	 movsd	 QWORD PTR tv1129[ebp], xmm0
$LN129@update_att:
  02077	f2 0f 5a 85 18
	fd ff ff	 cvtsd2ss xmm0, QWORD PTR tv1129[ebp]
  0207f	f3 0f 11 05 00
	00 00 00	 movss	 DWORD PTR ?torque@?HI@??update_attitude_dynamics@@YGXXZ@4MA, xmm0

; 2030 : 
; 2031 : 			main_angular_force = heading_inertia_value * (torque * 2.0 * PI * (current_flight_dynamics->main_rotor_diameter.value / 2.0)) / 1649.0;

  02087	f3 0f 5a 45 88	 cvtss2sd xmm0, DWORD PTR _heading_inertia_value$[ebp]
  0208c	f3 0f 5a 0d 00
	00 00 00	 cvtss2sd xmm1, DWORD PTR ?torque@?HI@??update_attitude_dynamics@@YGXXZ@4MA
  02094	f2 0f 59 0d 00
	00 00 00	 mulsd	 xmm1, QWORD PTR __real@4000000000000000
  0209c	f2 0f 59 0d 00
	00 00 00	 mulsd	 xmm1, QWORD PTR __real@400921fb60000000
  020a4	a1 00 00 00 00	 mov	 eax, DWORD PTR ?current_flight_dynamics@@3PAUDYNAMICS_TYPE@@A ; current_flight_dynamics
  020a9	f3 0f 5a 90 9c
	1d 00 00	 cvtss2sd xmm2, DWORD PTR [eax+7580]
  020b1	f2 0f 5e 15 00
	00 00 00	 divsd	 xmm2, QWORD PTR __real@4000000000000000
  020b9	f2 0f 59 ca	 mulsd	 xmm1, xmm2
  020bd	f2 0f 59 c1	 mulsd	 xmm0, xmm1
  020c1	f2 0f 5e 05 00
	00 00 00	 divsd	 xmm0, QWORD PTR __real@4099c40000000000
  020c9	f2 0f 5a c0	 cvtsd2ss xmm0, xmm0
  020cd	f3 0f 11 45 a4	 movss	 DWORD PTR _main_angular_force$[ebp], xmm0

; 2032 : 
; 2033 : 			position.x = 0.0;

  020d2	0f 57 c0	 xorps	 xmm0, xmm0
  020d5	f3 0f 11 85 44
	ff ff ff	 movss	 DWORD PTR _position$[ebp], xmm0

; 2034 : 			position.y = -0.08022;

  020dd	f3 0f 10 05 00
	00 00 00	 movss	 xmm0, DWORD PTR __real@bda44a62
  020e5	f3 0f 11 85 48
	ff ff ff	 movss	 DWORD PTR _position$[ebp+4], xmm0

; 2035 : 			position.z = -current_flight_dynamics->tail_boom_length.value;

  020ed	a1 00 00 00 00	 mov	 eax, DWORD PTR ?current_flight_dynamics@@3PAUDYNAMICS_TYPE@@A ; current_flight_dynamics
  020f2	f3 0f 10 80 ac
	1f 00 00	 movss	 xmm0, DWORD PTR [eax+8108]
  020fa	0f 57 05 00 00
	00 00		 xorps	 xmm0, DWORD PTR __xmm@80000000800000008000000080000000
  02101	f3 0f 11 85 4c
	ff ff ff	 movss	 DWORD PTR _position$[ebp+8], xmm0

; 2036 : 
; 2037 : 			direction.x = current_flight_dynamics->rotor_rotation_direction;

  02109	a1 00 00 00 00	 mov	 eax, DWORD PTR ?current_flight_dynamics@@3PAUDYNAMICS_TYPE@@A ; current_flight_dynamics
  0210e	0f bf 88 1c 25
	00 00		 movsx	 ecx, WORD PTR [eax+9500]
  02115	f3 0f 2a c1	 cvtsi2ss xmm0, ecx
  02119	f3 0f 11 85 38
	ff ff ff	 movss	 DWORD PTR _direction$[ebp], xmm0

; 2038 : 			direction.y = 0.0;

  02121	0f 57 c0	 xorps	 xmm0, xmm0
  02124	f3 0f 11 85 3c
	ff ff ff	 movss	 DWORD PTR _direction$[ebp+4], xmm0

; 2039 : 			direction.z = 0.0;

  0212c	0f 57 c0	 xorps	 xmm0, xmm0
  0212f	f3 0f 11 85 40
	ff ff ff	 movss	 DWORD PTR _direction$[ebp+8], xmm0

; 2040 : 
; 2041 : 			main_angular_force = (9) + main_angular_force;

  02137	f3 0f 10 05 00
	00 00 00	 movss	 xmm0, DWORD PTR __real@41100000
  0213f	f3 0f 58 45 a4	 addss	 xmm0, DWORD PTR _main_angular_force$[ebp]
  02144	f3 0f 11 45 a4	 movss	 DWORD PTR _main_angular_force$[ebp], xmm0

; 2042 : 
; 2043 : 			if (model_landed)

  02149	83 7d fc 00	 cmp	 DWORD PTR _model_landed$[ebp], 0
  0214d	0f 84 9c 00 00
	00		 je	 $LN48@update_att

; 2044 : 			{
; 2045 : 
; 2046 : 				position.y = 0.0;

  02153	0f 57 c0	 xorps	 xmm0, xmm0
  02156	f3 0f 11 85 48
	ff ff ff	 movss	 DWORD PTR _position$[ebp+4], xmm0

; 2047 : 
; 2048 : 				if ((current_flight_dynamics->input_data.pedal_input_pressure != PEDAL_PRESSURE_LEFT) &&

  0215e	a1 00 00 00 00	 mov	 eax, DWORD PTR ?current_flight_dynamics@@3PAUDYNAMICS_TYPE@@A ; current_flight_dynamics
  02163	83 b8 20 1c 00
	00 01		 cmp	 DWORD PTR [eax+7200], 1
  0216a	74 18		 je	 SHORT $LN47@update_att
  0216c	a1 00 00 00 00	 mov	 eax, DWORD PTR ?current_flight_dynamics@@3PAUDYNAMICS_TYPE@@A ; current_flight_dynamics
  02171	83 b8 20 1c 00
	00 02		 cmp	 DWORD PTR [eax+7200], 2
  02178	74 0a		 je	 SHORT $LN47@update_att

; 2049 : 					(current_flight_dynamics->input_data.pedal_input_pressure != PEDAL_PRESSURE_RIGHT))
; 2050 : 				{
; 2051 : 
; 2052 : 					main_angular_force = 0.0;

  0217a	0f 57 c0	 xorps	 xmm0, xmm0
  0217d	f3 0f 11 45 a4	 movss	 DWORD PTR _main_angular_force$[ebp], xmm0

; 2053 : 				}
; 2054 : 				else

  02182	eb 6b		 jmp	 SHORT $LN48@update_att
$LN47@update_att:

; 2055 : 				{
; 2056 : 
; 2057 : 					main_angular_force *= min (fabs (current_flight_dynamics->velocity_z.value) / 15.0, 1.0);

  02184	f2 0f 10 05 00
	00 00 00	 movsd	 xmm0, QWORD PTR __real@3ff0000000000000
  0218c	f2 0f 11 85 4c
	fd ff ff	 movsd	 QWORD PTR $T11[ebp], xmm0
  02194	a1 00 00 00 00	 mov	 eax, DWORD PTR ?current_flight_dynamics@@3PAUDYNAMICS_TYPE@@A ; current_flight_dynamics
  02199	51		 push	 ecx
  0219a	f3 0f 10 80 9c
	20 00 00	 movss	 xmm0, DWORD PTR [eax+8348]
  021a2	f3 0f 11 04 24	 movss	 DWORD PTR [esp], xmm0
  021a7	e8 00 00 00 00	 call	 ?fabs@@YGMM@Z		; fabs
  021ac	dd 9d 18 fd ff
	ff		 fstp	 QWORD PTR tv3014[ebp]
  021b2	f2 0f 10 85 18
	fd ff ff	 movsd	 xmm0, QWORD PTR tv3014[ebp]
  021ba	f2 0f 5e 05 00
	00 00 00	 divsd	 xmm0, QWORD PTR __real@402e000000000000
  021c2	f2 0f 11 85 44
	fd ff ff	 movsd	 QWORD PTR $T10[ebp], xmm0
  021ca	8d 8d 4c fd ff
	ff		 lea	 ecx, DWORD PTR $T11[ebp]
  021d0	51		 push	 ecx
  021d1	8d 95 44 fd ff
	ff		 lea	 edx, DWORD PTR $T10[ebp]
  021d7	52		 push	 edx
  021d8	e8 00 00 00 00	 call	 ??$min@N@std@@YGABNABN0@Z ; std::min<double>
  021dd	f3 0f 5a 45 a4	 cvtss2sd xmm0, DWORD PTR _main_angular_force$[ebp]
  021e2	f2 0f 59 00	 mulsd	 xmm0, QWORD PTR [eax]
  021e6	f2 0f 5a c0	 cvtsd2ss xmm0, xmm0
  021ea	f3 0f 11 45 a4	 movss	 DWORD PTR _main_angular_force$[ebp], xmm0
$LN48@update_att:

; 2058 : 				}
; 2059 : 			}
; 2060 : 
; 2061 : 			add_dynamic_force ("Main rotor angular torque", main_angular_force, 0.0, &position, &direction, FALSE);

  021ef	6a 00		 push	 0
  021f1	8d 85 38 ff ff
	ff		 lea	 eax, DWORD PTR _direction$[ebp]
  021f7	50		 push	 eax
  021f8	8d 8d 44 ff ff
	ff		 lea	 ecx, DWORD PTR _position$[ebp]
  021fe	51		 push	 ecx
  021ff	51		 push	 ecx
  02200	0f 57 c0	 xorps	 xmm0, xmm0
  02203	f3 0f 11 04 24	 movss	 DWORD PTR [esp], xmm0
  02208	51		 push	 ecx
  02209	f3 0f 10 45 a4	 movss	 xmm0, DWORD PTR _main_angular_force$[ebp]
  0220e	f3 0f 11 04 24	 movss	 DWORD PTR [esp], xmm0
  02213	68 00 00 00 00	 push	 OFFSET ??_C@_0BK@DILBAPLM@Main?5rotor?5angular?5torque@
  02218	e8 00 00 00 00	 call	 ?add_dynamic_force@@YGXPBDMMPAUVEC3D@@1H@Z ; add_dynamic_force
$LN42@update_att:

; 2062 : 		}
; 2063 : 	}
; 2064 : 	////////////////////////////////////////////
; 2065 : 	// Rotor Resistance to movement (Pitch) raw delta pitch
; 2066 : 	////////////////////////////////////////////
; 2067 : 	{
; 2068 : 
; 2069 : 		reaction_force = pitch_inertia_value *

  0221d	a1 00 00 00 00	 mov	 eax, DWORD PTR ?current_flight_dynamics@@3PAUDYNAMICS_TYPE@@A ; current_flight_dynamics
  02222	8b 0d 00 00 00
	00		 mov	 ecx, DWORD PTR ?current_flight_dynamics@@3PAUDYNAMICS_TYPE@@A ; current_flight_dynamics
  02228	f3 0f 10 80 60
	21 00 00	 movss	 xmm0, DWORD PTR [eax+8544]
  02230	f3 0f 58 81 00
	1e 00 00	 addss	 xmm0, DWORD PTR [ecx+7680]
  02238	f3 0f 59 45 84	 mulss	 xmm0, DWORD PTR _pitch_inertia_value$[ebp]
  0223d	f3 0f 11 45 a8	 movss	 DWORD PTR _reaction_force$[ebp], xmm0

; 2070 : 							(current_flight_dynamics->pitch.delta + current_flight_dynamics->main_rotor_pitch_angle.delta);
; 2071 : 
; 2072 : 		position.x = 0.0;

  02242	0f 57 c0	 xorps	 xmm0, xmm0
  02245	f3 0f 11 85 44
	ff ff ff	 movss	 DWORD PTR _position$[ebp], xmm0

; 2073 : 		position.y = 0.0;

  0224d	0f 57 c0	 xorps	 xmm0, xmm0
  02250	f3 0f 11 85 48
	ff ff ff	 movss	 DWORD PTR _position$[ebp+4], xmm0

; 2074 : 		position.z = 7.299;

  02258	f3 0f 10 05 00
	00 00 00	 movss	 xmm0, DWORD PTR __real@40e99168
  02260	f3 0f 11 85 4c
	ff ff ff	 movss	 DWORD PTR _position$[ebp+8], xmm0

; 2075 : 
; 2076 : 		direction.x = 0.0;

  02268	0f 57 c0	 xorps	 xmm0, xmm0
  0226b	f3 0f 11 85 38
	ff ff ff	 movss	 DWORD PTR _direction$[ebp], xmm0

; 2077 : 		direction.y = -1.0;

  02273	f3 0f 10 05 00
	00 00 00	 movss	 xmm0, DWORD PTR __real@bf800000
  0227b	f3 0f 11 85 3c
	ff ff ff	 movss	 DWORD PTR _direction$[ebp+4], xmm0

; 2078 : 		direction.z = 0.0;

  02283	0f 57 c0	 xorps	 xmm0, xmm0
  02286	f3 0f 11 85 40
	ff ff ff	 movss	 DWORD PTR _direction$[ebp+8], xmm0

; 2079 : 
; 2080 : 		add_dynamic_force ("Pitch resistance", reaction_force, 0.0, &position, &direction, FALSE);

  0228e	6a 00		 push	 0
  02290	8d 85 38 ff ff
	ff		 lea	 eax, DWORD PTR _direction$[ebp]
  02296	50		 push	 eax
  02297	8d 8d 44 ff ff
	ff		 lea	 ecx, DWORD PTR _position$[ebp]
  0229d	51		 push	 ecx
  0229e	51		 push	 ecx
  0229f	0f 57 c0	 xorps	 xmm0, xmm0
  022a2	f3 0f 11 04 24	 movss	 DWORD PTR [esp], xmm0
  022a7	51		 push	 ecx
  022a8	f3 0f 10 45 a8	 movss	 xmm0, DWORD PTR _reaction_force$[ebp]
  022ad	f3 0f 11 04 24	 movss	 DWORD PTR [esp], xmm0
  022b2	68 00 00 00 00	 push	 OFFSET ??_C@_0BB@FPOJGHNF@Pitch?5resistance@
  022b7	e8 00 00 00 00	 call	 ?add_dynamic_force@@YGXPBDMMPAUVEC3D@@1H@Z ; add_dynamic_force

; 2081 : 	}
; 2082 : 	////////////////////////////////////////////
; 2083 : 	// Rotor Resistance to movement (Roll)
; 2084 : 	////////////////////////////////////////////
; 2085 : 	{
; 2086 : 
; 2087 : 		reaction_force = roll_inertia_value *

  022bc	a1 00 00 00 00	 mov	 eax, DWORD PTR ?current_flight_dynamics@@3PAUDYNAMICS_TYPE@@A ; current_flight_dynamics
  022c1	8b 0d 00 00 00
	00		 mov	 ecx, DWORD PTR ?current_flight_dynamics@@3PAUDYNAMICS_TYPE@@A ; current_flight_dynamics
  022c7	f3 0f 10 80 78
	21 00 00	 movss	 xmm0, DWORD PTR [eax+8568]
  022cf	f3 0f 58 81 e8
	1d 00 00	 addss	 xmm0, DWORD PTR [ecx+7656]
  022d7	f3 0f 59 45 80	 mulss	 xmm0, DWORD PTR _roll_inertia_value$[ebp]
  022dc	f3 0f 11 45 a8	 movss	 DWORD PTR _reaction_force$[ebp], xmm0

; 2088 : 							(current_flight_dynamics->roll.delta + current_flight_dynamics->main_rotor_roll_angle.delta);
; 2089 : 
; 2090 : 		position.x = 7.299;

  022e1	f3 0f 10 05 00
	00 00 00	 movss	 xmm0, DWORD PTR __real@40e99168
  022e9	f3 0f 11 85 44
	ff ff ff	 movss	 DWORD PTR _position$[ebp], xmm0

; 2091 : 		position.y = 0.0;

  022f1	0f 57 c0	 xorps	 xmm0, xmm0
  022f4	f3 0f 11 85 48
	ff ff ff	 movss	 DWORD PTR _position$[ebp+4], xmm0

; 2092 : 		position.z = 0.0;

  022fc	0f 57 c0	 xorps	 xmm0, xmm0
  022ff	f3 0f 11 85 4c
	ff ff ff	 movss	 DWORD PTR _position$[ebp+8], xmm0

; 2093 : 
; 2094 : 		direction.x = 0.0;

  02307	0f 57 c0	 xorps	 xmm0, xmm0
  0230a	f3 0f 11 85 38
	ff ff ff	 movss	 DWORD PTR _direction$[ebp], xmm0

; 2095 : 		direction.y = 1.0;

  02312	f3 0f 10 05 00
	00 00 00	 movss	 xmm0, DWORD PTR __real@3f800000
  0231a	f3 0f 11 85 3c
	ff ff ff	 movss	 DWORD PTR _direction$[ebp+4], xmm0

; 2096 : 		direction.z = 0.0;

  02322	0f 57 c0	 xorps	 xmm0, xmm0
  02325	f3 0f 11 85 40
	ff ff ff	 movss	 DWORD PTR _direction$[ebp+8], xmm0

; 2097 : 
; 2098 : 		add_dynamic_force ("Roll resistance", reaction_force, 0.0, &position, &direction, FALSE);

  0232d	6a 00		 push	 0
  0232f	8d 85 38 ff ff
	ff		 lea	 eax, DWORD PTR _direction$[ebp]
  02335	50		 push	 eax
  02336	8d 8d 44 ff ff
	ff		 lea	 ecx, DWORD PTR _position$[ebp]
  0233c	51		 push	 ecx
  0233d	51		 push	 ecx
  0233e	0f 57 c0	 xorps	 xmm0, xmm0
  02341	f3 0f 11 04 24	 movss	 DWORD PTR [esp], xmm0
  02346	51		 push	 ecx
  02347	f3 0f 10 45 a8	 movss	 xmm0, DWORD PTR _reaction_force$[ebp]
  0234c	f3 0f 11 04 24	 movss	 DWORD PTR [esp], xmm0
  02351	68 00 00 00 00	 push	 OFFSET ??_C@_0BA@JHNCKIDL@Roll?5resistance@
  02356	e8 00 00 00 00	 call	 ?add_dynamic_force@@YGXPBDMMPAUVEC3D@@1H@Z ; add_dynamic_force

; 2099 : 	}
; 2100 : 	////////////////////////////////////////////
; 2101 : 	// Tail Rotor Resistance to movement. raw delta heading resistance
; 2102 : 	////////////////////////////////////////////
; 2103 : 	//if (!model_landed)
; 2104 : 	{
; 2105 : 
; 2106 : 		float
; 2107 : 			a,
; 2108 : 			scaling,
; 2109 : 			drag;
; 2110 : 
; 2111 : 		drag = -40.0;

  0235b	f3 0f 10 05 00
	00 00 00	 movss	 xmm0, DWORD PTR __real@c2200000
  02363	f3 0f 11 85 9c
	fe ff ff	 movss	 DWORD PTR _drag$40[ebp], xmm0

; 2112 : 
; 2113 : 		reaction_force = drag * current_flight_dynamics->heading.delta * current_flight_dynamics->tail_boom_length.value;

  0236b	a1 00 00 00 00	 mov	 eax, DWORD PTR ?current_flight_dynamics@@3PAUDYNAMICS_TYPE@@A ; current_flight_dynamics
  02370	f3 0f 10 85 9c
	fe ff ff	 movss	 xmm0, DWORD PTR _drag$40[ebp]
  02378	f3 0f 59 80 90
	21 00 00	 mulss	 xmm0, DWORD PTR [eax+8592]
  02380	8b 0d 00 00 00
	00		 mov	 ecx, DWORD PTR ?current_flight_dynamics@@3PAUDYNAMICS_TYPE@@A ; current_flight_dynamics
  02386	f3 0f 59 81 ac
	1f 00 00	 mulss	 xmm0, DWORD PTR [ecx+8108]
  0238e	f3 0f 11 45 a8	 movss	 DWORD PTR _reaction_force$[ebp], xmm0

; 2114 : 
; 2115 : 		a = exp (velocity_z_value / 45.0);

  02393	f3 0f 5a 85 70
	ff ff ff	 cvtss2sd xmm0, DWORD PTR _velocity_z_value$[ebp]
  0239b	f2 0f 5e 05 00
	00 00 00	 divsd	 xmm0, QWORD PTR __real@4046800000000000
  023a3	83 ec 08	 sub	 esp, 8
  023a6	f2 0f 11 04 24	 movsd	 QWORD PTR [esp], xmm0
  023ab	e8 00 00 00 00	 call	 _exp
  023b0	83 c4 08	 add	 esp, 8
  023b3	d9 9d a4 fe ff
	ff		 fstp	 DWORD PTR _a$42[ebp]

; 2116 : 
; 2117 : 		if (a != 0.0)

  023b9	f3 0f 5a 85 a4
	fe ff ff	 cvtss2sd xmm0, DWORD PTR _a$42[ebp]
  023c1	66 0f 2e 05 00
	00 00 00	 ucomisd xmm0, QWORD PTR __real@0000000000000000
  023c9	9f		 lahf
  023ca	f6 c4 44	 test	 ah, 68			; 00000044H
  023cd	7b 2c		 jnp	 SHORT $LN49@update_att

; 2118 : 		{
; 2119 : 
; 2120 : 			scaling = 1.0 - (1.0 / a);

  023cf	f3 0f 5a 85 a4
	fe ff ff	 cvtss2sd xmm0, DWORD PTR _a$42[ebp]
  023d7	f2 0f 10 0d 00
	00 00 00	 movsd	 xmm1, QWORD PTR __real@3ff0000000000000
  023df	f2 0f 5e c8	 divsd	 xmm1, xmm0
  023e3	f2 0f 10 05 00
	00 00 00	 movsd	 xmm0, QWORD PTR __real@3ff0000000000000
  023eb	f2 0f 5c c1	 subsd	 xmm0, xmm1
  023ef	f2 0f 5a c0	 cvtsd2ss xmm0, xmm0
  023f3	f3 0f 11 85 a0
	fe ff ff	 movss	 DWORD PTR _scaling$41[ebp], xmm0
$LN49@update_att:

; 2121 : 		}
; 2122 : 
; 2123 : 		scaling = min (fabs (scaling), 1.0f);

  023fb	f3 0f 10 05 00
	00 00 00	 movss	 xmm0, DWORD PTR __real@3f800000
  02403	f3 0f 11 85 40
	fd ff ff	 movss	 DWORD PTR $T9[ebp], xmm0
  0240b	51		 push	 ecx
  0240c	f3 0f 10 85 a0
	fe ff ff	 movss	 xmm0, DWORD PTR _scaling$41[ebp]
  02414	f3 0f 11 04 24	 movss	 DWORD PTR [esp], xmm0
  02419	e8 00 00 00 00	 call	 ?fabs@@YGMM@Z		; fabs
  0241e	d9 9d 3c fd ff
	ff		 fstp	 DWORD PTR $T8[ebp]
  02424	8d 85 40 fd ff
	ff		 lea	 eax, DWORD PTR $T9[ebp]
  0242a	50		 push	 eax
  0242b	8d 8d 3c fd ff
	ff		 lea	 ecx, DWORD PTR $T8[ebp]
  02431	51		 push	 ecx
  02432	e8 00 00 00 00	 call	 ??$min@M@std@@YGABMABM0@Z ; std::min<float>
  02437	f3 0f 10 00	 movss	 xmm0, DWORD PTR [eax]
  0243b	f3 0f 11 85 a0
	fe ff ff	 movss	 DWORD PTR _scaling$41[ebp], xmm0

; 2124 : 
; 2125 : 		reaction_force += (tail_angular_force - main_angular_force) * scaling;

  02443	f3 0f 10 45 a0	 movss	 xmm0, DWORD PTR _tail_angular_force$[ebp]
  02448	f3 0f 5c 45 a4	 subss	 xmm0, DWORD PTR _main_angular_force$[ebp]
  0244d	f3 0f 59 85 a0
	fe ff ff	 mulss	 xmm0, DWORD PTR _scaling$41[ebp]
  02455	f3 0f 58 45 a8	 addss	 xmm0, DWORD PTR _reaction_force$[ebp]
  0245a	f3 0f 11 45 a8	 movss	 DWORD PTR _reaction_force$[ebp], xmm0

; 2126 : 
; 2127 : 		position.x = 0.0;

  0245f	0f 57 c0	 xorps	 xmm0, xmm0
  02462	f3 0f 11 85 44
	ff ff ff	 movss	 DWORD PTR _position$[ebp], xmm0

; 2128 : 		position.y = -0.08022;

  0246a	f3 0f 10 05 00
	00 00 00	 movss	 xmm0, DWORD PTR __real@bda44a62
  02472	f3 0f 11 85 48
	ff ff ff	 movss	 DWORD PTR _position$[ebp+4], xmm0

; 2129 : 		position.z = -current_flight_dynamics->tail_boom_length.value;

  0247a	a1 00 00 00 00	 mov	 eax, DWORD PTR ?current_flight_dynamics@@3PAUDYNAMICS_TYPE@@A ; current_flight_dynamics
  0247f	f3 0f 10 80 ac
	1f 00 00	 movss	 xmm0, DWORD PTR [eax+8108]
  02487	0f 57 05 00 00
	00 00		 xorps	 xmm0, DWORD PTR __xmm@80000000800000008000000080000000
  0248e	f3 0f 11 85 4c
	ff ff ff	 movss	 DWORD PTR _position$[ebp+8], xmm0

; 2130 : 
; 2131 : 		if (model_landed)

  02496	83 7d fc 00	 cmp	 DWORD PTR _model_landed$[ebp], 0
  0249a	74 0b		 je	 SHORT $LN50@update_att

; 2132 : 		{
; 2133 : 
; 2134 : 			position.y = 0.0;

  0249c	0f 57 c0	 xorps	 xmm0, xmm0
  0249f	f3 0f 11 85 48
	ff ff ff	 movss	 DWORD PTR _position$[ebp+4], xmm0
$LN50@update_att:

; 2135 : 		}
; 2136 : 
; 2137 : 		direction.x = 1.0;

  024a7	f3 0f 10 05 00
	00 00 00	 movss	 xmm0, DWORD PTR __real@3f800000
  024af	f3 0f 11 85 38
	ff ff ff	 movss	 DWORD PTR _direction$[ebp], xmm0

; 2138 : 		direction.y = 0.0;

  024b7	0f 57 c0	 xorps	 xmm0, xmm0
  024ba	f3 0f 11 85 3c
	ff ff ff	 movss	 DWORD PTR _direction$[ebp+4], xmm0

; 2139 : 		direction.z = 0.0;

  024c2	0f 57 c0	 xorps	 xmm0, xmm0
  024c5	f3 0f 11 85 40
	ff ff ff	 movss	 DWORD PTR _direction$[ebp+8], xmm0

; 2140 : 
; 2141 : 		if (current_flight_dynamics->tail_rotor_rpm.damaged)

  024cd	a1 00 00 00 00	 mov	 eax, DWORD PTR ?current_flight_dynamics@@3PAUDYNAMICS_TYPE@@A ; current_flight_dynamics
  024d2	0f b7 88 5c 1f
	00 00		 movzx	 ecx, WORD PTR [eax+8028]
  024d9	85 c9		 test	 ecx, ecx
  024db	74 3b		 je	 SHORT $LN51@update_att

; 2142 : 		{
; 2143 : 
; 2144 : 			reaction_force *= 0.25 + 0.65 * (velocity_z_value / current_flight_dynamics->velocity_z.max);

  024dd	a1 00 00 00 00	 mov	 eax, DWORD PTR ?current_flight_dynamics@@3PAUDYNAMICS_TYPE@@A ; current_flight_dynamics
  024e2	f3 0f 10 85 70
	ff ff ff	 movss	 xmm0, DWORD PTR _velocity_z_value$[ebp]
  024ea	f3 0f 5e 80 a8
	20 00 00	 divss	 xmm0, DWORD PTR [eax+8360]
  024f2	f3 0f 5a c0	 cvtss2sd xmm0, xmm0
  024f6	f2 0f 59 05 00
	00 00 00	 mulsd	 xmm0, QWORD PTR __real@3fe4cccccccccccd
  024fe	f2 0f 58 05 00
	00 00 00	 addsd	 xmm0, QWORD PTR __real@3fd0000000000000
  02506	f3 0f 5a 4d a8	 cvtss2sd xmm1, DWORD PTR _reaction_force$[ebp]
  0250b	f2 0f 59 c8	 mulsd	 xmm1, xmm0
  0250f	f2 0f 5a c1	 cvtsd2ss xmm0, xmm1
  02513	f3 0f 11 45 a8	 movss	 DWORD PTR _reaction_force$[ebp], xmm0
$LN51@update_att:

; 2145 : 		}
; 2146 : 
; 2147 : 		add_dynamic_force ("Yaw resistance", reaction_force, 0.0, &position, &direction, FALSE);

  02518	6a 00		 push	 0
  0251a	8d 85 38 ff ff
	ff		 lea	 eax, DWORD PTR _direction$[ebp]
  02520	50		 push	 eax
  02521	8d 8d 44 ff ff
	ff		 lea	 ecx, DWORD PTR _position$[ebp]
  02527	51		 push	 ecx
  02528	51		 push	 ecx
  02529	0f 57 c0	 xorps	 xmm0, xmm0
  0252c	f3 0f 11 04 24	 movss	 DWORD PTR [esp], xmm0
  02531	51		 push	 ecx
  02532	f3 0f 10 45 a8	 movss	 xmm0, DWORD PTR _reaction_force$[ebp]
  02537	f3 0f 11 04 24	 movss	 DWORD PTR [esp], xmm0
  0253c	68 00 00 00 00	 push	 OFFSET ??_C@_0P@OJCKBBIP@Yaw?5resistance@
  02541	e8 00 00 00 00	 call	 ?add_dynamic_force@@YGXPBDMMPAUVEC3D@@1H@Z ; add_dynamic_force

; 2148 : 	}
; 2149 : 	////////////////////////////////////////////
; 2150 : 	// Fuselage aerodynamics motion_vector -> attitude realignment force in the y axis
; 2151 : 	////////////////////////////////////////////
; 2152 : 	if ((!model_landed) &&

  02546	83 7d fc 00	 cmp	 DWORD PTR _model_landed$[ebp], 0
  0254a	0f 85 1c 02 00
	00		 jne	 $LN53@update_att
  02550	a1 00 00 00 00	 mov	 eax, DWORD PTR ?current_flight_dynamics@@3PAUDYNAMICS_TYPE@@A ; current_flight_dynamics
  02555	8b 88 24 25 00
	00		 mov	 ecx, DWORD PTR [eax+9508]
  0255b	83 e1 02	 and	 ecx, 2
  0255e	0f 85 08 02 00
	00		 jne	 $LN53@update_att

; 2153 : 		(!(current_flight_dynamics->dynamics_damage & DYNAMICS_DAMAGE_MAIN_ROTOR)))
; 2154 : 	{
; 2155 : 
; 2156 : 		if (!check_zero_3d_vector (&model_motion_vector))

  02564	8d 85 20 ff ff
	ff		 lea	 eax, DWORD PTR _model_motion_vector$[ebp]
  0256a	50		 push	 eax
  0256b	e8 00 00 00 00	 call	 ?get_3d_vector_magnitude@@YGMPBUVEC3D@@@Z ; get_3d_vector_magnitude
  02570	dd 9d 18 fd ff
	ff		 fstp	 QWORD PTR tv3105[ebp]
  02576	f2 0f 10 85 18
	fd ff ff	 movsd	 xmm0, QWORD PTR tv3105[ebp]
  0257e	66 0f 2e 05 00
	00 00 00	 ucomisd xmm0, QWORD PTR __real@0000000000000000
  02586	9f		 lahf
  02587	f6 c4 44	 test	 ah, 68			; 00000044H
  0258a	0f 8b dc 01 00
	00		 jnp	 $LN53@update_att

; 2157 : 		{
; 2158 : 
; 2159 : 			vec3d
; 2160 : 				unnormalised_direction;
; 2161 : 
; 2162 : 			direction = model_motion_vector;

  02590	8b 85 20 ff ff
	ff		 mov	 eax, DWORD PTR _model_motion_vector$[ebp]
  02596	89 85 38 ff ff
	ff		 mov	 DWORD PTR _direction$[ebp], eax
  0259c	8b 8d 24 ff ff
	ff		 mov	 ecx, DWORD PTR _model_motion_vector$[ebp+4]
  025a2	89 8d 3c ff ff
	ff		 mov	 DWORD PTR _direction$[ebp+4], ecx
  025a8	8b 95 28 ff ff
	ff		 mov	 edx, DWORD PTR _model_motion_vector$[ebp+8]
  025ae	89 95 40 ff ff
	ff		 mov	 DWORD PTR _direction$[ebp+8], edx

; 2163 : 
; 2164 : 			invert_3d_vector (&direction);

  025b4	8d 85 38 ff ff
	ff		 lea	 eax, DWORD PTR _direction$[ebp]
  025ba	50		 push	 eax
  025bb	e8 00 00 00 00	 call	 ?invert_3d_vector@@YGXPAUVEC3D@@@Z ; invert_3d_vector

; 2165 : 
; 2166 : 			unnormalised_direction = direction;

  025c0	8b 85 38 ff ff
	ff		 mov	 eax, DWORD PTR _direction$[ebp]
  025c6	89 85 90 fe ff
	ff		 mov	 DWORD PTR _unnormalised_direction$39[ebp], eax
  025cc	8b 8d 3c ff ff
	ff		 mov	 ecx, DWORD PTR _direction$[ebp+4]
  025d2	89 8d 94 fe ff
	ff		 mov	 DWORD PTR _unnormalised_direction$39[ebp+4], ecx
  025d8	8b 95 40 ff ff
	ff		 mov	 edx, DWORD PTR _direction$[ebp+8]
  025de	89 95 98 fe ff
	ff		 mov	 DWORD PTR _unnormalised_direction$39[ebp+8], edx

; 2167 : 
; 2168 : 			// arneh, 20060813 - reduce banking effect on heading change at slow speed
; 2169 : 			force = 0.0030 * (horizontal_velocity * horizontal_velocity) * current_flight_dynamics->tail_boom_length.value;

  025e4	f3 0f 10 85 6c
	ff ff ff	 movss	 xmm0, DWORD PTR _horizontal_velocity$[ebp]
  025ec	f3 0f 59 85 6c
	ff ff ff	 mulss	 xmm0, DWORD PTR _horizontal_velocity$[ebp]
  025f4	f3 0f 5a c0	 cvtss2sd xmm0, xmm0
  025f8	f2 0f 59 05 00
	00 00 00	 mulsd	 xmm0, QWORD PTR __real@3f689374bc6a7efa
  02600	a1 00 00 00 00	 mov	 eax, DWORD PTR ?current_flight_dynamics@@3PAUDYNAMICS_TYPE@@A ; current_flight_dynamics
  02605	f3 0f 5a 88 ac
	1f 00 00	 cvtss2sd xmm1, DWORD PTR [eax+8108]
  0260d	f2 0f 59 c1	 mulsd	 xmm0, xmm1
  02611	f2 0f 5a c0	 cvtsd2ss xmm0, xmm0
  02615	f3 0f 11 45 c0	 movss	 DWORD PTR _force$[ebp], xmm0

; 2170 : //			force = (motion_vector_magnitude * motion_vector_magnitude) / (3.5 * current_flight_dynamics->tail_boom_length.value);
; 2171 : 
; 2172 : 			this_reaction_force += (force - this_reaction_force) * get_model_delta_time ();

  0261a	f3 0f 10 45 c0	 movss	 xmm0, DWORD PTR _force$[ebp]
  0261f	f3 0f 5c 05 00
	00 00 00	 subss	 xmm0, DWORD PTR ?this_reaction_force@@3MA
  02627	a1 00 00 00 00	 mov	 eax, DWORD PTR ?current_flight_dynamics@@3PAUDYNAMICS_TYPE@@A ; current_flight_dynamics
  0262c	f3 0f 59 80 90
	00 00 00	 mulss	 xmm0, DWORD PTR [eax+144]
  02634	f3 0f 58 05 00
	00 00 00	 addss	 xmm0, DWORD PTR ?this_reaction_force@@3MA
  0263c	f3 0f 11 05 00
	00 00 00	 movss	 DWORD PTR ?this_reaction_force@@3MA, xmm0

; 2173 : 
; 2174 : 			this_reaction_force = bound (this_reaction_force, -100.0, 100.0);

  02644	f3 0f 5a 05 00
	00 00 00	 cvtss2sd xmm0, DWORD PTR ?this_reaction_force@@3MA
  0264c	f2 0f 10 0d 00
	00 00 00	 movsd	 xmm1, QWORD PTR __real@c059000000000000
  02654	66 0f 2f c8	 comisd	 xmm1, xmm0
  02658	76 12		 jbe	 SHORT $LN132@update_att
  0265a	f2 0f 10 05 00
	00 00 00	 movsd	 xmm0, QWORD PTR __real@c059000000000000
  02662	f2 0f 11 85 18
	fd ff ff	 movsd	 QWORD PTR tv1274[ebp], xmm0
  0266a	eb 44		 jmp	 SHORT $LN133@update_att
$LN132@update_att:
  0266c	f3 0f 5a 05 00
	00 00 00	 cvtss2sd xmm0, DWORD PTR ?this_reaction_force@@3MA
  02674	66 0f 2f 05 00
	00 00 00	 comisd	 xmm0, QWORD PTR __real@4059000000000000
  0267c	76 12		 jbe	 SHORT $LN130@update_att
  0267e	f2 0f 10 05 00
	00 00 00	 movsd	 xmm0, QWORD PTR __real@4059000000000000
  02686	f2 0f 11 85 10
	fd ff ff	 movsd	 QWORD PTR tv1273[ebp], xmm0
  0268e	eb 10		 jmp	 SHORT $LN131@update_att
$LN130@update_att:
  02690	f3 0f 5a 05 00
	00 00 00	 cvtss2sd xmm0, DWORD PTR ?this_reaction_force@@3MA
  02698	f2 0f 11 85 10
	fd ff ff	 movsd	 QWORD PTR tv1273[ebp], xmm0
$LN131@update_att:
  026a0	f2 0f 10 85 10
	fd ff ff	 movsd	 xmm0, QWORD PTR tv1273[ebp]
  026a8	f2 0f 11 85 18
	fd ff ff	 movsd	 QWORD PTR tv1274[ebp], xmm0
$LN133@update_att:
  026b0	f2 0f 5a 85 18
	fd ff ff	 cvtsd2ss xmm0, QWORD PTR tv1274[ebp]
  026b8	f3 0f 11 05 00
	00 00 00	 movss	 DWORD PTR ?this_reaction_force@@3MA, xmm0

; 2175 : 
; 2176 : 			normalise_any_3d_vector (&direction);

  026c0	8d 85 38 ff ff
	ff		 lea	 eax, DWORD PTR _direction$[ebp]
  026c6	50		 push	 eax
  026c7	e8 00 00 00 00	 call	 ?normalise_any_3d_vector@@YGMPAUVEC3D@@@Z ; normalise_any_3d_vector
  026cc	dd d8		 fstp	 ST(0)

; 2177 : 
; 2178 : 			direction.y = 0.0;

  026ce	0f 57 c0	 xorps	 xmm0, xmm0
  026d1	f3 0f 11 85 3c
	ff ff ff	 movss	 DWORD PTR _direction$[ebp+4], xmm0

; 2179 : 			direction.z = 0.0;

  026d9	0f 57 c0	 xorps	 xmm0, xmm0
  026dc	f3 0f 11 85 40
	ff ff ff	 movss	 DWORD PTR _direction$[ebp+8], xmm0

; 2180 : 
; 2181 : 			position.x = 0.0;

  026e4	0f 57 c0	 xorps	 xmm0, xmm0
  026e7	f3 0f 11 85 44
	ff ff ff	 movss	 DWORD PTR _position$[ebp], xmm0

; 2182 : 			position.y = 0.0;

  026ef	0f 57 c0	 xorps	 xmm0, xmm0
  026f2	f3 0f 11 85 48
	ff ff ff	 movss	 DWORD PTR _position$[ebp+4], xmm0

; 2183 : 			position.z = -current_flight_dynamics->tail_boom_length.value;

  026fa	a1 00 00 00 00	 mov	 eax, DWORD PTR ?current_flight_dynamics@@3PAUDYNAMICS_TYPE@@A ; current_flight_dynamics
  026ff	f3 0f 10 80 ac
	1f 00 00	 movss	 xmm0, DWORD PTR [eax+8108]
  02707	0f 57 05 00 00
	00 00		 xorps	 xmm0, DWORD PTR __xmm@80000000800000008000000080000000
  0270e	f3 0f 11 85 4c
	ff ff ff	 movss	 DWORD PTR _position$[ebp+8], xmm0

; 2184 : 
; 2185 : 			//Werewolf 3 Jan 04
; 2186 : 			if (command_line_dynamics_flight_model == 1)

  02716	83 3d 00 00 00
	00 01		 cmp	 DWORD PTR ?command_line_dynamics_flight_model@@3HA, 1 ; command_line_dynamics_flight_model
  0271d	75 1c		 jne	 SHORT $LN54@update_att

; 2187 : 				this_reaction_force *= 0.6;

  0271f	f3 0f 5a 05 00
	00 00 00	 cvtss2sd xmm0, DWORD PTR ?this_reaction_force@@3MA
  02727	f2 0f 59 05 00
	00 00 00	 mulsd	 xmm0, QWORD PTR __real@3fe3333333333333
  0272f	f2 0f 5a c0	 cvtsd2ss xmm0, xmm0
  02733	f3 0f 11 05 00
	00 00 00	 movss	 DWORD PTR ?this_reaction_force@@3MA, xmm0
$LN54@update_att:

; 2188 : 
; 2189 : 			add_dynamic_force ("Realign force (Y axis)", this_reaction_force, 0.0, &position, &direction, FALSE);

  0273b	6a 00		 push	 0
  0273d	8d 85 38 ff ff
	ff		 lea	 eax, DWORD PTR _direction$[ebp]
  02743	50		 push	 eax
  02744	8d 8d 44 ff ff
	ff		 lea	 ecx, DWORD PTR _position$[ebp]
  0274a	51		 push	 ecx
  0274b	51		 push	 ecx
  0274c	0f 57 c0	 xorps	 xmm0, xmm0
  0274f	f3 0f 11 04 24	 movss	 DWORD PTR [esp], xmm0
  02754	51		 push	 ecx
  02755	f3 0f 10 05 00
	00 00 00	 movss	 xmm0, DWORD PTR ?this_reaction_force@@3MA
  0275d	f3 0f 11 04 24	 movss	 DWORD PTR [esp], xmm0
  02762	68 00 00 00 00	 push	 OFFSET ??_C@_0BH@EICDHFJI@Realign?5force?5?$CIY?5axis?$CJ@
  02767	e8 00 00 00 00	 call	 ?add_dynamic_force@@YGXPBDMMPAUVEC3D@@1H@Z ; add_dynamic_force
$LN53@update_att:

; 2190 : 		}
; 2191 : 	}
; 2192 : 
; 2193 : 	/////////////////////////////////////////////////////////////////////////////////////////////////////////////////////////////////
; 2194 : 	// Aerodynamics
; 2195 : 	/////////////////////////////////////////////////////////////////////////////////////////////////////////////////////////////////
; 2196 : 
; 2197 : 	////////////////////////////////////////////
; 2198 : 	// Fuselage aerodynamics motion_vector -> attitude realignment force in the x axis
; 2199 : 	////////////////////////////////////////////
; 2200 : 	if ((!model_landed) &&

  0276c	83 7d fc 00	 cmp	 DWORD PTR _model_landed$[ebp], 0
  02770	0f 85 1e 01 00
	00		 jne	 $LN55@update_att
  02776	a1 00 00 00 00	 mov	 eax, DWORD PTR ?current_flight_dynamics@@3PAUDYNAMICS_TYPE@@A ; current_flight_dynamics
  0277b	8b 88 24 25 00
	00		 mov	 ecx, DWORD PTR [eax+9508]
  02781	83 e1 02	 and	 ecx, 2
  02784	0f 85 0a 01 00
	00		 jne	 $LN55@update_att

; 2201 : 		(!(current_flight_dynamics->dynamics_damage & DYNAMICS_DAMAGE_MAIN_ROTOR)))
; 2202 : 	{
; 2203 : 
; 2204 : 		reaction_force = 30.0 * (current_flight_dynamics->pitch.delta + current_flight_dynamics->main_rotor_pitch_angle.delta);

  0278a	a1 00 00 00 00	 mov	 eax, DWORD PTR ?current_flight_dynamics@@3PAUDYNAMICS_TYPE@@A ; current_flight_dynamics
  0278f	8b 0d 00 00 00
	00		 mov	 ecx, DWORD PTR ?current_flight_dynamics@@3PAUDYNAMICS_TYPE@@A ; current_flight_dynamics
  02795	f3 0f 10 80 60
	21 00 00	 movss	 xmm0, DWORD PTR [eax+8544]
  0279d	f3 0f 58 81 00
	1e 00 00	 addss	 xmm0, DWORD PTR [ecx+7680]
  027a5	f3 0f 5a c0	 cvtss2sd xmm0, xmm0
  027a9	f2 0f 59 05 00
	00 00 00	 mulsd	 xmm0, QWORD PTR __real@403e000000000000
  027b1	f2 0f 5a c0	 cvtsd2ss xmm0, xmm0
  027b5	f3 0f 11 45 a8	 movss	 DWORD PTR _reaction_force$[ebp], xmm0

; 2205 : 
; 2206 : 		if (current_flight_dynamics->velocity_z.max != 0.0)

  027ba	a1 00 00 00 00	 mov	 eax, DWORD PTR ?current_flight_dynamics@@3PAUDYNAMICS_TYPE@@A ; current_flight_dynamics
  027bf	f3 0f 5a 80 a8
	20 00 00	 cvtss2sd xmm0, DWORD PTR [eax+8360]
  027c7	66 0f 2e 05 00
	00 00 00	 ucomisd xmm0, QWORD PTR __real@0000000000000000
  027cf	9f		 lahf
  027d0	f6 c4 44	 test	 ah, 68			; 00000044H
  027d3	7b 1e		 jnp	 SHORT $LN56@update_att

; 2207 : 			reaction_force *= motion_vector_magnitude / current_flight_dynamics->velocity_z.max;

  027d5	a1 00 00 00 00	 mov	 eax, DWORD PTR ?current_flight_dynamics@@3PAUDYNAMICS_TYPE@@A ; current_flight_dynamics
  027da	f3 0f 10 45 cc	 movss	 xmm0, DWORD PTR _motion_vector_magnitude$[ebp]
  027df	f3 0f 5e 80 a8
	20 00 00	 divss	 xmm0, DWORD PTR [eax+8360]
  027e7	f3 0f 59 45 a8	 mulss	 xmm0, DWORD PTR _reaction_force$[ebp]
  027ec	f3 0f 11 45 a8	 movss	 DWORD PTR _reaction_force$[ebp], xmm0

; 2208 : 		else

  027f1	eb 08		 jmp	 SHORT $LN57@update_att
$LN56@update_att:

; 2209 : 			reaction_force = 0.0;

  027f3	0f 57 c0	 xorps	 xmm0, xmm0
  027f6	f3 0f 11 45 a8	 movss	 DWORD PTR _reaction_force$[ebp], xmm0
$LN57@update_att:

; 2210 : 
; 2211 : 		position.x = 0.0;

  027fb	0f 57 c0	 xorps	 xmm0, xmm0
  027fe	f3 0f 11 85 44
	ff ff ff	 movss	 DWORD PTR _position$[ebp], xmm0

; 2212 : 		position.y = 0.0;

  02806	0f 57 c0	 xorps	 xmm0, xmm0
  02809	f3 0f 11 85 48
	ff ff ff	 movss	 DWORD PTR _position$[ebp+4], xmm0

; 2213 : 		position.z = 7.299;

  02811	f3 0f 10 05 00
	00 00 00	 movss	 xmm0, DWORD PTR __real@40e99168
  02819	f3 0f 11 85 4c
	ff ff ff	 movss	 DWORD PTR _position$[ebp+8], xmm0

; 2214 : 
; 2215 : 		direction.x = 0.0;

  02821	0f 57 c0	 xorps	 xmm0, xmm0
  02824	f3 0f 11 85 38
	ff ff ff	 movss	 DWORD PTR _direction$[ebp], xmm0

; 2216 : 		direction.y = -1.0;

  0282c	f3 0f 10 05 00
	00 00 00	 movss	 xmm0, DWORD PTR __real@bf800000
  02834	f3 0f 11 85 3c
	ff ff ff	 movss	 DWORD PTR _direction$[ebp+4], xmm0

; 2217 : 		direction.z = 0.0;

  0283c	0f 57 c0	 xorps	 xmm0, xmm0
  0283f	f3 0f 11 85 40
	ff ff ff	 movss	 DWORD PTR _direction$[ebp+8], xmm0

; 2218 : 
; 2219 : 		//Werewolf 3 Jan 04
; 2220 : 		if (command_line_dynamics_flight_model == 1)

  02847	83 3d 00 00 00
	00 01		 cmp	 DWORD PTR ?command_line_dynamics_flight_model@@3HA, 1 ; command_line_dynamics_flight_model
  0284e	75 16		 jne	 SHORT $LN58@update_att

; 2221 : 			reaction_force *= 0.6;

  02850	f3 0f 5a 45 a8	 cvtss2sd xmm0, DWORD PTR _reaction_force$[ebp]
  02855	f2 0f 59 05 00
	00 00 00	 mulsd	 xmm0, QWORD PTR __real@3fe3333333333333
  0285d	f2 0f 5a c0	 cvtsd2ss xmm0, xmm0
  02861	f3 0f 11 45 a8	 movss	 DWORD PTR _reaction_force$[ebp], xmm0
$LN58@update_att:

; 2222 : 
; 2223 : 		add_dynamic_force ("Realign force (X axis)", reaction_force, 0.0, &position, &direction, FALSE);

  02866	6a 00		 push	 0
  02868	8d 85 38 ff ff
	ff		 lea	 eax, DWORD PTR _direction$[ebp]
  0286e	50		 push	 eax
  0286f	8d 8d 44 ff ff
	ff		 lea	 ecx, DWORD PTR _position$[ebp]
  02875	51		 push	 ecx
  02876	51		 push	 ecx
  02877	0f 57 c0	 xorps	 xmm0, xmm0
  0287a	f3 0f 11 04 24	 movss	 DWORD PTR [esp], xmm0
  0287f	51		 push	 ecx
  02880	f3 0f 10 45 a8	 movss	 xmm0, DWORD PTR _reaction_force$[ebp]
  02885	f3 0f 11 04 24	 movss	 DWORD PTR [esp], xmm0
  0288a	68 00 00 00 00	 push	 OFFSET ??_C@_0BH@IEIJHFAG@Realign?5force?5?$CIX?5axis?$CJ@
  0288f	e8 00 00 00 00	 call	 ?add_dynamic_force@@YGXPBDMMPAUVEC3D@@1H@Z ; add_dynamic_force
$LN55@update_att:

; 2224 : 	}
; 2225 : 	////////////////////////////////////////////
; 2226 : 	// forward drag caused by yaw input
; 2227 : 	////////////////////////////////////////////
; 2228 : 	{
; 2229 : 
; 2230 : 		float
; 2231 : 			a;
; 2232 : 
; 2233 : 		float
; 2234 : 			drag;
; 2235 : 
; 2236 : 		a = 0.0823;

  02894	f3 0f 10 05 00
	00 00 00	 movss	 xmm0, DWORD PTR __real@3da88ce7
  0289c	f3 0f 11 85 8c
	fe ff ff	 movss	 DWORD PTR _a$38[ebp], xmm0

; 2237 : 
; 2238 : 		drag = 0.5 * a * command_line_dynamics_tail_rotor_drag * fabs (current_flight_dynamics->tail_blade_pitch.value);

  028a4	f3 0f 5a 85 8c
	fe ff ff	 cvtss2sd xmm0, DWORD PTR _a$38[ebp]
  028ac	f2 0f 59 05 00
	00 00 00	 mulsd	 xmm0, QWORD PTR __real@3fe0000000000000
  028b4	f3 0f 5a 0d 00
	00 00 00	 cvtss2sd xmm1, DWORD PTR ?command_line_dynamics_tail_rotor_drag@@3MA
  028bc	f2 0f 59 c1	 mulsd	 xmm0, xmm1
  028c0	a1 00 00 00 00	 mov	 eax, DWORD PTR ?current_flight_dynamics@@3PAUDYNAMICS_TYPE@@A ; current_flight_dynamics
  028c5	51		 push	 ecx
  028c6	f3 0f 10 88 94
	1f 00 00	 movss	 xmm1, DWORD PTR [eax+8084]
  028ce	f3 0f 11 0c 24	 movss	 DWORD PTR [esp], xmm1
  028d3	f2 0f 11 85 18
	fd ff ff	 movsd	 QWORD PTR tv3758[ebp], xmm0
  028db	e8 00 00 00 00	 call	 ?fabs@@YGMM@Z		; fabs
  028e0	dd 9d 10 fd ff
	ff		 fstp	 QWORD PTR tv3178[ebp]
  028e6	f2 0f 10 85 18
	fd ff ff	 movsd	 xmm0, QWORD PTR tv3758[ebp]
  028ee	f2 0f 59 85 10
	fd ff ff	 mulsd	 xmm0, QWORD PTR tv3178[ebp]
  028f6	f2 0f 5a c0	 cvtsd2ss xmm0, xmm0
  028fa	f3 0f 11 85 88
	fe ff ff	 movss	 DWORD PTR _drag$37[ebp], xmm0

; 2239 : 
; 2240 : 		reaction_force = drag * motion_vector_magnitude * motion_vector_magnitude;

  02902	f3 0f 10 85 88
	fe ff ff	 movss	 xmm0, DWORD PTR _drag$37[ebp]
  0290a	f3 0f 59 45 cc	 mulss	 xmm0, DWORD PTR _motion_vector_magnitude$[ebp]
  0290f	f3 0f 59 45 cc	 mulss	 xmm0, DWORD PTR _motion_vector_magnitude$[ebp]
  02914	f3 0f 11 45 a8	 movss	 DWORD PTR _reaction_force$[ebp], xmm0

; 2241 : 
; 2242 : 		position.x = 0.0;

  02919	0f 57 c0	 xorps	 xmm0, xmm0
  0291c	f3 0f 11 85 44
	ff ff ff	 movss	 DWORD PTR _position$[ebp], xmm0

; 2243 : 		position.y = 0.0;

  02924	0f 57 c0	 xorps	 xmm0, xmm0
  02927	f3 0f 11 85 48
	ff ff ff	 movss	 DWORD PTR _position$[ebp+4], xmm0

; 2244 : 		position.z = 7.299;

  0292f	f3 0f 10 05 00
	00 00 00	 movss	 xmm0, DWORD PTR __real@40e99168
  02937	f3 0f 11 85 4c
	ff ff ff	 movss	 DWORD PTR _position$[ebp+8], xmm0

; 2245 : 
; 2246 : 		direction.x = 0.0;

  0293f	0f 57 c0	 xorps	 xmm0, xmm0
  02942	f3 0f 11 85 38
	ff ff ff	 movss	 DWORD PTR _direction$[ebp], xmm0

; 2247 : 		direction.y = 0.0;

  0294a	0f 57 c0	 xorps	 xmm0, xmm0
  0294d	f3 0f 11 85 3c
	ff ff ff	 movss	 DWORD PTR _direction$[ebp+4], xmm0

; 2248 : 		direction.z = -1.0;

  02955	f3 0f 10 05 00
	00 00 00	 movss	 xmm0, DWORD PTR __real@bf800000
  0295d	f3 0f 11 85 40
	ff ff ff	 movss	 DWORD PTR _direction$[ebp+8], xmm0

; 2249 : 
; 2250 : 		add_dynamic_force ("Forward motion Yaw input drag", reaction_force, 0.0, &position, &direction, FALSE);

  02965	6a 00		 push	 0
  02967	8d 85 38 ff ff
	ff		 lea	 eax, DWORD PTR _direction$[ebp]
  0296d	50		 push	 eax
  0296e	8d 8d 44 ff ff
	ff		 lea	 ecx, DWORD PTR _position$[ebp]
  02974	51		 push	 ecx
  02975	51		 push	 ecx
  02976	0f 57 c0	 xorps	 xmm0, xmm0
  02979	f3 0f 11 04 24	 movss	 DWORD PTR [esp], xmm0
  0297e	51		 push	 ecx
  0297f	f3 0f 10 45 a8	 movss	 xmm0, DWORD PTR _reaction_force$[ebp]
  02984	f3 0f 11 04 24	 movss	 DWORD PTR [esp], xmm0
  02989	68 00 00 00 00	 push	 OFFSET ??_C@_0BO@BHAFBPMJ@Forward?5motion?5Yaw?5input?5drag@
  0298e	e8 00 00 00 00	 call	 ?add_dynamic_force@@YGXPBDMMPAUVEC3D@@1H@Z ; add_dynamic_force

; 2251 : 	}
; 2252 : 	////////////////////////////////////////////
; 2253 : 	// Resistance to forward movement
; 2254 : 	////////////////////////////////////////////
; 2255 : 	if (!model_landed)

  02993	83 7d fc 00	 cmp	 DWORD PTR _model_landed$[ebp], 0
  02997	0f 85 6e 01 00
	00		 jne	 $LN59@update_att

; 2256 : 	{
; 2257 : 
; 2258 : 		float
; 2259 : 			sign,
; 2260 : 			drag;
; 2261 : 
; 2262 : 		drag = 0.00034 + (0.034 * command_line_dynamics_main_rotor_drag * max (current_flight_dynamics->pitch.value, 0.0f));

  0299d	0f 57 c0	 xorps	 xmm0, xmm0
  029a0	f3 0f 11 85 38
	fd ff ff	 movss	 DWORD PTR $T7[ebp], xmm0
  029a8	f3 0f 5a 05 00
	00 00 00	 cvtss2sd xmm0, DWORD PTR ?command_line_dynamics_main_rotor_drag@@3MA
  029b0	f2 0f 59 05 00
	00 00 00	 mulsd	 xmm0, QWORD PTR __real@3fa16872b020c49c
  029b8	8d 85 38 fd ff
	ff		 lea	 eax, DWORD PTR $T7[ebp]
  029be	50		 push	 eax
  029bf	8b 0d 00 00 00
	00		 mov	 ecx, DWORD PTR ?current_flight_dynamics@@3PAUDYNAMICS_TYPE@@A ; current_flight_dynamics
  029c5	81 c1 5c 21 00
	00		 add	 ecx, 8540		; 0000215cH
  029cb	51		 push	 ecx
  029cc	f2 0f 11 85 18
	fd ff ff	 movsd	 QWORD PTR tv3760[ebp], xmm0
  029d4	e8 00 00 00 00	 call	 ??$max@M@std@@YGABMABM0@Z ; std::max<float>
  029d9	f3 0f 5a 00	 cvtss2sd xmm0, DWORD PTR [eax]
  029dd	f2 0f 10 8d 18
	fd ff ff	 movsd	 xmm1, QWORD PTR tv3760[ebp]
  029e5	f2 0f 59 c8	 mulsd	 xmm1, xmm0
  029e9	f2 0f 58 0d 00
	00 00 00	 addsd	 xmm1, QWORD PTR __real@3f364840e1719f80
  029f1	f2 0f 5a c1	 cvtsd2ss xmm0, xmm1
  029f5	f3 0f 11 85 80
	fe ff ff	 movss	 DWORD PTR _drag$35[ebp], xmm0

; 2263 : 
; 2264 : 		reaction_force = drag * motion_vector_magnitude * motion_vector_magnitude;

  029fd	f3 0f 10 85 80
	fe ff ff	 movss	 xmm0, DWORD PTR _drag$35[ebp]
  02a05	f3 0f 59 45 cc	 mulss	 xmm0, DWORD PTR _motion_vector_magnitude$[ebp]
  02a0a	f3 0f 59 45 cc	 mulss	 xmm0, DWORD PTR _motion_vector_magnitude$[ebp]
  02a0f	f3 0f 11 45 a8	 movss	 DWORD PTR _reaction_force$[ebp], xmm0

; 2265 : 
; 2266 : 		sign = 0.0;

  02a14	0f 57 c0	 xorps	 xmm0, xmm0
  02a17	f3 0f 11 85 84
	fe ff ff	 movss	 DWORD PTR _sign$36[ebp], xmm0

; 2267 : 
; 2268 : 		if (velocity_z_value != 0.0)

  02a1f	f3 0f 5a 85 70
	ff ff ff	 cvtss2sd xmm0, DWORD PTR _velocity_z_value$[ebp]
  02a27	66 0f 2e 05 00
	00 00 00	 ucomisd xmm0, QWORD PTR __real@0000000000000000
  02a2f	9f		 lahf
  02a30	f6 c4 44	 test	 ah, 68			; 00000044H
  02a33	7b 31		 jnp	 SHORT $LN60@update_att

; 2269 : 		{
; 2270 : 
; 2271 : 			sign = fabs (velocity_z_value) / velocity_z_value;

  02a35	51		 push	 ecx
  02a36	f3 0f 10 85 70
	ff ff ff	 movss	 xmm0, DWORD PTR _velocity_z_value$[ebp]
  02a3e	f3 0f 11 04 24	 movss	 DWORD PTR [esp], xmm0
  02a43	e8 00 00 00 00	 call	 ?fabs@@YGMM@Z		; fabs
  02a48	d9 9d 1c fd ff
	ff		 fstp	 DWORD PTR tv3207[ebp]
  02a4e	f3 0f 10 85 1c
	fd ff ff	 movss	 xmm0, DWORD PTR tv3207[ebp]
  02a56	f3 0f 5e 85 70
	ff ff ff	 divss	 xmm0, DWORD PTR _velocity_z_value$[ebp]
  02a5e	f3 0f 11 85 84
	fe ff ff	 movss	 DWORD PTR _sign$36[ebp], xmm0
$LN60@update_att:

; 2272 : 		}
; 2273 : 
; 2274 : 		position.x = 0.0;

  02a66	0f 57 c0	 xorps	 xmm0, xmm0
  02a69	f3 0f 11 85 44
	ff ff ff	 movss	 DWORD PTR _position$[ebp], xmm0

; 2275 : 		position.y = 0.0;

  02a71	0f 57 c0	 xorps	 xmm0, xmm0
  02a74	f3 0f 11 85 48
	ff ff ff	 movss	 DWORD PTR _position$[ebp+4], xmm0

; 2276 : 		position.z = 7.299;

  02a7c	f3 0f 10 05 00
	00 00 00	 movss	 xmm0, DWORD PTR __real@40e99168
  02a84	f3 0f 11 85 4c
	ff ff ff	 movss	 DWORD PTR _position$[ebp+8], xmm0

; 2277 : 
; 2278 : 		direction.x = 0.0;

  02a8c	0f 57 c0	 xorps	 xmm0, xmm0
  02a8f	f3 0f 11 85 38
	ff ff ff	 movss	 DWORD PTR _direction$[ebp], xmm0

; 2279 : 		direction.y = 0.0;

  02a97	0f 57 c0	 xorps	 xmm0, xmm0
  02a9a	f3 0f 11 85 3c
	ff ff ff	 movss	 DWORD PTR _direction$[ebp+4], xmm0

; 2280 : 		direction.z = -1.0 * sign;

  02aa2	f3 0f 5a 85 84
	fe ff ff	 cvtss2sd xmm0, DWORD PTR _sign$36[ebp]
  02aaa	f2 0f 59 05 00
	00 00 00	 mulsd	 xmm0, QWORD PTR __real@bff0000000000000
  02ab2	f2 0f 5a c0	 cvtsd2ss xmm0, xmm0
  02ab6	f3 0f 11 85 40
	ff ff ff	 movss	 DWORD PTR _direction$[ebp+8], xmm0

; 2281 : 
; 2282 : 		//Werewolf 3 Jan 04
; 2283 : 		if (command_line_dynamics_flight_model == 1)

  02abe	83 3d 00 00 00
	00 01		 cmp	 DWORD PTR ?command_line_dynamics_flight_model@@3HA, 1 ; command_line_dynamics_flight_model
  02ac5	75 16		 jne	 SHORT $LN61@update_att

; 2284 : 			reaction_force *= 0.9;

  02ac7	f3 0f 5a 45 a8	 cvtss2sd xmm0, DWORD PTR _reaction_force$[ebp]
  02acc	f2 0f 59 05 00
	00 00 00	 mulsd	 xmm0, QWORD PTR __real@3feccccccccccccd
  02ad4	f2 0f 5a c0	 cvtsd2ss xmm0, xmm0
  02ad8	f3 0f 11 45 a8	 movss	 DWORD PTR _reaction_force$[ebp], xmm0
$LN61@update_att:

; 2285 : 
; 2286 : 		add_dynamic_force ("Forward motion drag", reaction_force, 0.0, &position, &direction, FALSE);

  02add	6a 00		 push	 0
  02adf	8d 85 38 ff ff
	ff		 lea	 eax, DWORD PTR _direction$[ebp]
  02ae5	50		 push	 eax
  02ae6	8d 8d 44 ff ff
	ff		 lea	 ecx, DWORD PTR _position$[ebp]
  02aec	51		 push	 ecx
  02aed	51		 push	 ecx
  02aee	0f 57 c0	 xorps	 xmm0, xmm0
  02af1	f3 0f 11 04 24	 movss	 DWORD PTR [esp], xmm0
  02af6	51		 push	 ecx
  02af7	f3 0f 10 45 a8	 movss	 xmm0, DWORD PTR _reaction_force$[ebp]
  02afc	f3 0f 11 04 24	 movss	 DWORD PTR [esp], xmm0
  02b01	68 00 00 00 00	 push	 OFFSET ??_C@_0BE@JPPEFMCN@Forward?5motion?5drag@
  02b06	e8 00 00 00 00	 call	 ?add_dynamic_force@@YGXPBDMMPAUVEC3D@@1H@Z ; add_dynamic_force
$LN59@update_att:

; 2287 : 	}
; 2288 : 	////////////////////////////////////////////
; 2289 : 	// Resistance to lateral movement
; 2290 : 	////////////////////////////////////////////
; 2291 : 	if (!model_landed)

  02b0b	83 7d fc 00	 cmp	 DWORD PTR _model_landed$[ebp], 0
  02b0f	0f 85 3e 01 00
	00		 jne	 $LN62@update_att

; 2292 : 	{
; 2293 : 
; 2294 : 		float
; 2295 : 			Fmax;
; 2296 : 
; 2297 : 		Fmax = 0.5;

  02b15	f3 0f 10 05 00
	00 00 00	 movss	 xmm0, DWORD PTR __real@3f000000
  02b1d	f3 0f 11 85 7c
	fe ff ff	 movss	 DWORD PTR _Fmax$34[ebp], xmm0

; 2298 : 
; 2299 : 		if (current_flight_dynamics->velocity_x.max != 0.0)

  02b25	a1 00 00 00 00	 mov	 eax, DWORD PTR ?current_flight_dynamics@@3PAUDYNAMICS_TYPE@@A ; current_flight_dynamics
  02b2a	f3 0f 5a 80 78
	20 00 00	 cvtss2sd xmm0, DWORD PTR [eax+8312]
  02b32	66 0f 2e 05 00
	00 00 00	 ucomisd xmm0, QWORD PTR __real@0000000000000000
  02b3a	9f		 lahf
  02b3b	f6 c4 44	 test	 ah, 68			; 00000044H
  02b3e	7b 7a		 jnp	 SHORT $LN63@update_att

; 2300 : 		{
; 2301 : 
; 2302 : 			reaction_force = Fmax * (fabs (model_motion_vector.x) * model_motion_vector.x) / pow (current_flight_dynamics->velocity_x.max, 2.0f);

  02b40	51		 push	 ecx
  02b41	f3 0f 10 85 20
	ff ff ff	 movss	 xmm0, DWORD PTR _model_motion_vector$[ebp]
  02b49	f3 0f 11 04 24	 movss	 DWORD PTR [esp], xmm0
  02b4e	e8 00 00 00 00	 call	 ?fabs@@YGMM@Z		; fabs
  02b53	d9 9d 1c fd ff
	ff		 fstp	 DWORD PTR tv3229[ebp]
  02b59	f3 0f 10 85 1c
	fd ff ff	 movss	 xmm0, DWORD PTR tv3229[ebp]
  02b61	f3 0f 59 85 20
	ff ff ff	 mulss	 xmm0, DWORD PTR _model_motion_vector$[ebp]
  02b69	f3 0f 59 85 7c
	fe ff ff	 mulss	 xmm0, DWORD PTR _Fmax$34[ebp]
  02b71	51		 push	 ecx
  02b72	f3 0f 10 0d 00
	00 00 00	 movss	 xmm1, DWORD PTR __real@40000000
  02b7a	f3 0f 11 0c 24	 movss	 DWORD PTR [esp], xmm1
  02b7f	a1 00 00 00 00	 mov	 eax, DWORD PTR ?current_flight_dynamics@@3PAUDYNAMICS_TYPE@@A ; current_flight_dynamics
  02b84	51		 push	 ecx
  02b85	f3 0f 10 88 78
	20 00 00	 movss	 xmm1, DWORD PTR [eax+8312]
  02b8d	f3 0f 11 0c 24	 movss	 DWORD PTR [esp], xmm1
  02b92	f3 0f 11 85 18
	fd ff ff	 movss	 DWORD PTR tv3762[ebp], xmm0
  02b9a	e8 00 00 00 00	 call	 ?pow@@YGMMM@Z		; pow
  02b9f	d9 9d 14 fd ff
	ff		 fstp	 DWORD PTR tv3239[ebp]
  02ba5	f3 0f 10 85 18
	fd ff ff	 movss	 xmm0, DWORD PTR tv3762[ebp]
  02bad	f3 0f 5e 85 14
	fd ff ff	 divss	 xmm0, DWORD PTR tv3239[ebp]
  02bb5	f3 0f 11 45 a8	 movss	 DWORD PTR _reaction_force$[ebp], xmm0
$LN63@update_att:

; 2303 : 		}
; 2304 : 
; 2305 : 		position.x = 7.299;

  02bba	f3 0f 10 05 00
	00 00 00	 movss	 xmm0, DWORD PTR __real@40e99168
  02bc2	f3 0f 11 85 44
	ff ff ff	 movss	 DWORD PTR _position$[ebp], xmm0

; 2306 : 		position.y = 0.0;

  02bca	0f 57 c0	 xorps	 xmm0, xmm0
  02bcd	f3 0f 11 85 48
	ff ff ff	 movss	 DWORD PTR _position$[ebp+4], xmm0

; 2307 : 		position.z = 0.0;

  02bd5	0f 57 c0	 xorps	 xmm0, xmm0
  02bd8	f3 0f 11 85 4c
	ff ff ff	 movss	 DWORD PTR _position$[ebp+8], xmm0

; 2308 : 
; 2309 : 		direction.x = -1.0;

  02be0	f3 0f 10 05 00
	00 00 00	 movss	 xmm0, DWORD PTR __real@bf800000
  02be8	f3 0f 11 85 38
	ff ff ff	 movss	 DWORD PTR _direction$[ebp], xmm0

; 2310 : 		direction.y = 0.0;

  02bf0	0f 57 c0	 xorps	 xmm0, xmm0
  02bf3	f3 0f 11 85 3c
	ff ff ff	 movss	 DWORD PTR _direction$[ebp+4], xmm0

; 2311 : 		direction.z = 0.0;

  02bfb	0f 57 c0	 xorps	 xmm0, xmm0
  02bfe	f3 0f 11 85 40
	ff ff ff	 movss	 DWORD PTR _direction$[ebp+8], xmm0

; 2312 : 
; 2313 : 		//Werewolf 3 Jan 04
; 2314 : 		if (command_line_dynamics_flight_model == 1)

  02c06	83 3d 00 00 00
	00 01		 cmp	 DWORD PTR ?command_line_dynamics_flight_model@@3HA, 1 ; command_line_dynamics_flight_model
  02c0d	75 16		 jne	 SHORT $LN64@update_att

; 2315 : 			reaction_force *= 0.9;

  02c0f	f3 0f 5a 45 a8	 cvtss2sd xmm0, DWORD PTR _reaction_force$[ebp]
  02c14	f2 0f 59 05 00
	00 00 00	 mulsd	 xmm0, QWORD PTR __real@3feccccccccccccd
  02c1c	f2 0f 5a c0	 cvtsd2ss xmm0, xmm0
  02c20	f3 0f 11 45 a8	 movss	 DWORD PTR _reaction_force$[ebp], xmm0
$LN64@update_att:

; 2316 : 
; 2317 : 		add_dynamic_force ("Lateral motion drag", reaction_force, 0.0, &position, &direction, FALSE);

  02c25	6a 00		 push	 0
  02c27	8d 85 38 ff ff
	ff		 lea	 eax, DWORD PTR _direction$[ebp]
  02c2d	50		 push	 eax
  02c2e	8d 8d 44 ff ff
	ff		 lea	 ecx, DWORD PTR _position$[ebp]
  02c34	51		 push	 ecx
  02c35	51		 push	 ecx
  02c36	0f 57 c0	 xorps	 xmm0, xmm0
  02c39	f3 0f 11 04 24	 movss	 DWORD PTR [esp], xmm0
  02c3e	51		 push	 ecx
  02c3f	f3 0f 10 45 a8	 movss	 xmm0, DWORD PTR _reaction_force$[ebp]
  02c44	f3 0f 11 04 24	 movss	 DWORD PTR [esp], xmm0
  02c49	68 00 00 00 00	 push	 OFFSET ??_C@_0BE@DICEDONG@Lateral?5motion?5drag@
  02c4e	e8 00 00 00 00	 call	 ?add_dynamic_force@@YGXPBDMMPAUVEC3D@@1H@Z ; add_dynamic_force
$LN62@update_att:

; 2318 : 	}
; 2319 : 	////////////////////////////////////////////
; 2320 : 	// Resistance to vertical movement
; 2321 : 	////////////////////////////////////////////
; 2322 : 	{
; 2323 : 
; 2324 : 		float
; 2325 : 			drag,
; 2326 : 			sideways_drag,
; 2327 : 			Fmax;
; 2328 : 
; 2329 : 		// ball park figures
; 2330 : 		if (world_motion_vector.y < 0.0)

  02c53	f3 0f 5a 85 30
	ff ff ff	 cvtss2sd xmm0, DWORD PTR _world_motion_vector$[ebp+4]
  02c5b	0f 57 c9	 xorps	 xmm1, xmm1
  02c5e	66 0f 2f c8	 comisd	 xmm1, xmm0
  02c62	0f 86 b1 00 00
	00		 jbe	 $LN65@update_att

; 2331 : 		{
; 2332 : 
; 2333 : 			// y = mx + c, drag 0.4 at 0m/s ->0.0001 at -30m/s
; 2334 : 
; 2335 : 			drag = 0.4 - (((0.4 - 0.0001) / 30.0) * -world_motion_vector.y);

  02c68	f3 0f 10 85 30
	ff ff ff	 movss	 xmm0, DWORD PTR _world_motion_vector$[ebp+4]
  02c70	0f 57 05 00 00
	00 00		 xorps	 xmm0, DWORD PTR __xmm@80000000800000008000000080000000
  02c77	f3 0f 5a c0	 cvtss2sd xmm0, xmm0
  02c7b	f2 0f 59 05 00
	00 00 00	 mulsd	 xmm0, QWORD PTR __real@3f8b4cc25072085c
  02c83	f2 0f 10 0d 00
	00 00 00	 movsd	 xmm1, QWORD PTR __real@3fd999999999999a
  02c8b	f2 0f 5c c8	 subsd	 xmm1, xmm0
  02c8f	f2 0f 5a c1	 cvtsd2ss xmm0, xmm1
  02c93	f3 0f 11 85 78
	fe ff ff	 movss	 DWORD PTR _drag$33[ebp], xmm0

; 2336 : 
; 2337 : 			drag = bound (drag, 0.0001, 0.4);

  02c9b	f3 0f 5a 85 78
	fe ff ff	 cvtss2sd xmm0, DWORD PTR _drag$33[ebp]
  02ca3	f2 0f 10 0d 00
	00 00 00	 movsd	 xmm1, QWORD PTR __real@3f1a36e2eb1c432d
  02cab	66 0f 2f c8	 comisd	 xmm1, xmm0
  02caf	76 12		 jbe	 SHORT $LN136@update_att
  02cb1	f2 0f 10 05 00
	00 00 00	 movsd	 xmm0, QWORD PTR __real@3f1a36e2eb1c432d
  02cb9	f2 0f 11 85 18
	fd ff ff	 movsd	 QWORD PTR tv1409[ebp], xmm0
  02cc1	eb 44		 jmp	 SHORT $LN137@update_att
$LN136@update_att:
  02cc3	f3 0f 5a 85 78
	fe ff ff	 cvtss2sd xmm0, DWORD PTR _drag$33[ebp]
  02ccb	66 0f 2f 05 00
	00 00 00	 comisd	 xmm0, QWORD PTR __real@3fd999999999999a
  02cd3	76 12		 jbe	 SHORT $LN134@update_att
  02cd5	f2 0f 10 05 00
	00 00 00	 movsd	 xmm0, QWORD PTR __real@3fd999999999999a
  02cdd	f2 0f 11 85 10
	fd ff ff	 movsd	 QWORD PTR tv1408[ebp], xmm0
  02ce5	eb 10		 jmp	 SHORT $LN135@update_att
$LN134@update_att:
  02ce7	f3 0f 5a 85 78
	fe ff ff	 cvtss2sd xmm0, DWORD PTR _drag$33[ebp]
  02cef	f2 0f 11 85 10
	fd ff ff	 movsd	 QWORD PTR tv1408[ebp], xmm0
$LN135@update_att:
  02cf7	f2 0f 10 85 10
	fd ff ff	 movsd	 xmm0, QWORD PTR tv1408[ebp]
  02cff	f2 0f 11 85 18
	fd ff ff	 movsd	 QWORD PTR tv1409[ebp], xmm0
$LN137@update_att:
  02d07	f2 0f 5a 85 18
	fd ff ff	 cvtsd2ss xmm0, QWORD PTR tv1409[ebp]
  02d0f	f3 0f 11 85 78
	fe ff ff	 movss	 DWORD PTR _drag$33[ebp], xmm0

; 2338 : 		}
; 2339 : 		else

  02d17	eb 10		 jmp	 SHORT $LN66@update_att
$LN65@update_att:

; 2340 : 		{
; 2341 : 
; 2342 : 			drag = 0.4;

  02d19	f3 0f 10 05 00
	00 00 00	 movss	 xmm0, DWORD PTR __real@3ecccccd
  02d21	f3 0f 11 85 78
	fe ff ff	 movss	 DWORD PTR _drag$33[ebp], xmm0
$LN66@update_att:

; 2343 : 		}
; 2344 : 
; 2345 : 		Fmax = 0.0;

  02d29	0f 57 c0	 xorps	 xmm0, xmm0
  02d2c	f3 0f 11 85 70
	fe ff ff	 movss	 DWORD PTR _Fmax$31[ebp], xmm0

; 2346 : 		// arneh 20060813 - reduce drag in sideway flight - compensated by reduced lift.
; 2347 : 		// makes it impossible to keep flying sideways at insane bank angles without losing altitude
; 2348 : 		sideways_drag = 5.0 * (model_motion_vector.x * model_motion_vector.x) / pow (current_flight_dynamics->velocity_x.max, 2.0f);

  02d34	f3 0f 10 85 20
	ff ff ff	 movss	 xmm0, DWORD PTR _model_motion_vector$[ebp]
  02d3c	f3 0f 59 85 20
	ff ff ff	 mulss	 xmm0, DWORD PTR _model_motion_vector$[ebp]
  02d44	f3 0f 5a c0	 cvtss2sd xmm0, xmm0
  02d48	f2 0f 59 05 00
	00 00 00	 mulsd	 xmm0, QWORD PTR __real@4014000000000000
  02d50	51		 push	 ecx
  02d51	f3 0f 10 0d 00
	00 00 00	 movss	 xmm1, DWORD PTR __real@40000000
  02d59	f3 0f 11 0c 24	 movss	 DWORD PTR [esp], xmm1
  02d5e	a1 00 00 00 00	 mov	 eax, DWORD PTR ?current_flight_dynamics@@3PAUDYNAMICS_TYPE@@A ; current_flight_dynamics
  02d63	51		 push	 ecx
  02d64	f3 0f 10 88 78
	20 00 00	 movss	 xmm1, DWORD PTR [eax+8312]
  02d6c	f3 0f 11 0c 24	 movss	 DWORD PTR [esp], xmm1
  02d71	f2 0f 11 85 18
	fd ff ff	 movsd	 QWORD PTR tv3764[ebp], xmm0
  02d79	e8 00 00 00 00	 call	 ?pow@@YGMMM@Z		; pow
  02d7e	dd 9d 10 fd ff
	ff		 fstp	 QWORD PTR tv3273[ebp]
  02d84	f2 0f 10 85 18
	fd ff ff	 movsd	 xmm0, QWORD PTR tv3764[ebp]
  02d8c	f2 0f 5e 85 10
	fd ff ff	 divsd	 xmm0, QWORD PTR tv3273[ebp]
  02d94	f2 0f 5a c0	 cvtsd2ss xmm0, xmm0
  02d98	f3 0f 11 85 74
	fe ff ff	 movss	 DWORD PTR _sideways_drag$32[ebp], xmm0

; 2349 : 
; 2350 : 
; 2351 : 		if (current_flight_dynamics->main_rotor_rpm.max != 0.0)

  02da0	a1 00 00 00 00	 mov	 eax, DWORD PTR ?current_flight_dynamics@@3PAUDYNAMICS_TYPE@@A ; current_flight_dynamics
  02da5	f3 0f 5a 80 20
	1e 00 00	 cvtss2sd xmm0, DWORD PTR [eax+7712]
  02dad	66 0f 2e 05 00
	00 00 00	 ucomisd xmm0, QWORD PTR __real@0000000000000000
  02db5	9f		 lahf
  02db6	f6 c4 44	 test	 ah, 68			; 00000044H
  02db9	7b 42		 jnp	 SHORT $LN67@update_att

; 2352 : 		{
; 2353 : 
; 2354 : 			Fmax = drag + sideways_drag + 4.5 * (main_rotor_rpm_value / current_flight_dynamics->main_rotor_rpm.max);

  02dbb	f3 0f 10 85 78
	fe ff ff	 movss	 xmm0, DWORD PTR _drag$33[ebp]
  02dc3	f3 0f 58 85 74
	fe ff ff	 addss	 xmm0, DWORD PTR _sideways_drag$32[ebp]
  02dcb	f3 0f 5a c0	 cvtss2sd xmm0, xmm0
  02dcf	a1 00 00 00 00	 mov	 eax, DWORD PTR ?current_flight_dynamics@@3PAUDYNAMICS_TYPE@@A ; current_flight_dynamics
  02dd4	f3 0f 10 4d 94	 movss	 xmm1, DWORD PTR _main_rotor_rpm_value$[ebp]
  02dd9	f3 0f 5e 88 20
	1e 00 00	 divss	 xmm1, DWORD PTR [eax+7712]
  02de1	f3 0f 5a c9	 cvtss2sd xmm1, xmm1
  02de5	f2 0f 59 0d 00
	00 00 00	 mulsd	 xmm1, QWORD PTR __real@4012000000000000
  02ded	f2 0f 58 c1	 addsd	 xmm0, xmm1
  02df1	f2 0f 5a c0	 cvtsd2ss xmm0, xmm0
  02df5	f3 0f 11 85 70
	fe ff ff	 movss	 DWORD PTR _Fmax$31[ebp], xmm0
$LN67@update_att:

; 2355 : 		}
; 2356 : 
; 2357 : 		reaction_force = 0.0;

  02dfd	0f 57 c0	 xorps	 xmm0, xmm0
  02e00	f3 0f 11 45 a8	 movss	 DWORD PTR _reaction_force$[ebp], xmm0

; 2358 : 
; 2359 : 		if (current_flight_dynamics->velocity_y.max != 0.0)

  02e05	a1 00 00 00 00	 mov	 eax, DWORD PTR ?current_flight_dynamics@@3PAUDYNAMICS_TYPE@@A ; current_flight_dynamics
  02e0a	f3 0f 5a 80 90
	20 00 00	 cvtss2sd xmm0, DWORD PTR [eax+8336]
  02e12	66 0f 2e 05 00
	00 00 00	 ucomisd xmm0, QWORD PTR __real@0000000000000000
  02e1a	9f		 lahf
  02e1b	f6 c4 44	 test	 ah, 68			; 00000044H
  02e1e	7b 7a		 jnp	 SHORT $LN68@update_att

; 2360 : 		{
; 2361 : 
; 2362 : 			reaction_force = Fmax * (fabs (model_motion_vector.y) * model_motion_vector.y) / pow (current_flight_dynamics->velocity_y.max, 2.0f);

  02e20	51		 push	 ecx
  02e21	f3 0f 10 85 24
	ff ff ff	 movss	 xmm0, DWORD PTR _model_motion_vector$[ebp+4]
  02e29	f3 0f 11 04 24	 movss	 DWORD PTR [esp], xmm0
  02e2e	e8 00 00 00 00	 call	 ?fabs@@YGMM@Z		; fabs
  02e33	d9 9d 1c fd ff
	ff		 fstp	 DWORD PTR tv3290[ebp]
  02e39	f3 0f 10 85 1c
	fd ff ff	 movss	 xmm0, DWORD PTR tv3290[ebp]
  02e41	f3 0f 59 85 24
	ff ff ff	 mulss	 xmm0, DWORD PTR _model_motion_vector$[ebp+4]
  02e49	f3 0f 59 85 70
	fe ff ff	 mulss	 xmm0, DWORD PTR _Fmax$31[ebp]
  02e51	51		 push	 ecx
  02e52	f3 0f 10 0d 00
	00 00 00	 movss	 xmm1, DWORD PTR __real@40000000
  02e5a	f3 0f 11 0c 24	 movss	 DWORD PTR [esp], xmm1
  02e5f	a1 00 00 00 00	 mov	 eax, DWORD PTR ?current_flight_dynamics@@3PAUDYNAMICS_TYPE@@A ; current_flight_dynamics
  02e64	51		 push	 ecx
  02e65	f3 0f 10 88 90
	20 00 00	 movss	 xmm1, DWORD PTR [eax+8336]
  02e6d	f3 0f 11 0c 24	 movss	 DWORD PTR [esp], xmm1
  02e72	f3 0f 11 85 18
	fd ff ff	 movss	 DWORD PTR tv3766[ebp], xmm0
  02e7a	e8 00 00 00 00	 call	 ?pow@@YGMMM@Z		; pow
  02e7f	d9 9d 14 fd ff
	ff		 fstp	 DWORD PTR tv3300[ebp]
  02e85	f3 0f 10 85 18
	fd ff ff	 movss	 xmm0, DWORD PTR tv3766[ebp]
  02e8d	f3 0f 5e 85 14
	fd ff ff	 divss	 xmm0, DWORD PTR tv3300[ebp]
  02e95	f3 0f 11 45 a8	 movss	 DWORD PTR _reaction_force$[ebp], xmm0
$LN68@update_att:

; 2363 : 		}
; 2364 : 
; 2365 : 		//
; 2366 : 		// Only add resistane lift
; 2367 : 		//
; 2368 : 
; 2369 : 		if (reaction_force > 0.0)

  02e9a	f3 0f 5a 45 a8	 cvtss2sd xmm0, DWORD PTR _reaction_force$[ebp]
  02e9f	66 0f 2f 05 00
	00 00 00	 comisd	 xmm0, QWORD PTR __real@0000000000000000
  02ea7	76 7a		 jbe	 SHORT $LN69@update_att

; 2370 : 		{
; 2371 : 
; 2372 : 			position.x = 0.0;

  02ea9	0f 57 c0	 xorps	 xmm0, xmm0
  02eac	f3 0f 11 85 44
	ff ff ff	 movss	 DWORD PTR _position$[ebp], xmm0

; 2373 : 			position.y = 1.0;

  02eb4	f3 0f 10 05 00
	00 00 00	 movss	 xmm0, DWORD PTR __real@3f800000
  02ebc	f3 0f 11 85 48
	ff ff ff	 movss	 DWORD PTR _position$[ebp+4], xmm0

; 2374 : 			position.z = 0.0;

  02ec4	0f 57 c0	 xorps	 xmm0, xmm0
  02ec7	f3 0f 11 85 4c
	ff ff ff	 movss	 DWORD PTR _position$[ebp+8], xmm0

; 2375 : 
; 2376 : 			direction.x = 0.0;

  02ecf	0f 57 c0	 xorps	 xmm0, xmm0
  02ed2	f3 0f 11 85 38
	ff ff ff	 movss	 DWORD PTR _direction$[ebp], xmm0

; 2377 : 			direction.y = -1.0;

  02eda	f3 0f 10 05 00
	00 00 00	 movss	 xmm0, DWORD PTR __real@bf800000
  02ee2	f3 0f 11 85 3c
	ff ff ff	 movss	 DWORD PTR _direction$[ebp+4], xmm0

; 2378 : 			direction.z = 0.0;

  02eea	0f 57 c0	 xorps	 xmm0, xmm0
  02eed	f3 0f 11 85 40
	ff ff ff	 movss	 DWORD PTR _direction$[ebp+8], xmm0

; 2379 : 
; 2380 : 			add_dynamic_force ("Vertical motion drag", reaction_force, 0.0, &position, &direction, FALSE);

  02ef5	6a 00		 push	 0
  02ef7	8d 85 38 ff ff
	ff		 lea	 eax, DWORD PTR _direction$[ebp]
  02efd	50		 push	 eax
  02efe	8d 8d 44 ff ff
	ff		 lea	 ecx, DWORD PTR _position$[ebp]
  02f04	51		 push	 ecx
  02f05	51		 push	 ecx
  02f06	0f 57 c0	 xorps	 xmm0, xmm0
  02f09	f3 0f 11 04 24	 movss	 DWORD PTR [esp], xmm0
  02f0e	51		 push	 ecx
  02f0f	f3 0f 10 45 a8	 movss	 xmm0, DWORD PTR _reaction_force$[ebp]
  02f14	f3 0f 11 04 24	 movss	 DWORD PTR [esp], xmm0
  02f19	68 00 00 00 00	 push	 OFFSET ??_C@_0BF@LAMOPNAJ@Vertical?5motion?5drag@
  02f1e	e8 00 00 00 00	 call	 ?add_dynamic_force@@YGXPBDMMPAUVEC3D@@1H@Z ; add_dynamic_force
$LN69@update_att:

; 2381 : 		}
; 2382 : 	}
; 2383 : 
; 2384 : 	/////////////////////////////////////////////////////////////////////////////////////////////////////////////////////////////////
; 2385 : 	// External forces
; 2386 : 	/////////////////////////////////////////////////////////////////////////////////////////////////////////////////////////////////
; 2387 : 
; 2388 : 	////////////////////////////////////////////
; 2389 : 	// In Ground Effect
; 2390 : 	////////////////////////////////////////////
; 2391 : 	if ((get_current_dynamics_options (DYNAMICS_OPTIONS_GROUND_EFFECT)) &&

  02f23	6a 04		 push	 4
  02f25	e8 00 00 00 00	 call	 ?get_current_dynamics_options@@YGHW4DYNAMICS_OPTIONS_TYPES@@@Z ; get_current_dynamics_options
  02f2a	85 c0		 test	 eax, eax
  02f2c	0f 84 7f 0f 00
	00		 je	 $LN78@update_att
  02f32	a1 00 00 00 00	 mov	 eax, DWORD PTR ?current_flight_dynamics@@3PAUDYNAMICS_TYPE@@A ; current_flight_dynamics
  02f37	8b 88 24 25 00
	00		 mov	 ecx, DWORD PTR [eax+9508]
  02f3d	83 e1 02	 and	 ecx, 2
  02f40	0f 85 6b 0f 00
	00		 jne	 $LN78@update_att

; 2392 : 		(!(current_flight_dynamics->dynamics_damage & DYNAMICS_DAMAGE_MAIN_ROTOR)))
; 2393 : 	{
; 2394 : 
; 2395 : 		float
; 2396 : 			altitude;
; 2397 : 
; 2398 : 		terrain_3d_point_data
; 2399 : 			terrain_info;
; 2400 : 
; 2401 : 		vec3d
; 2402 : 			world_position;
; 2403 : 
; 2404 : 		memset (&terrain_info, 0, sizeof (terrain_3d_point_data));

  02f46	6a 2c		 push	 44			; 0000002cH
  02f48	6a 00		 push	 0
  02f4a	8d 85 40 fe ff
	ff		 lea	 eax, DWORD PTR _terrain_info$29[ebp]
  02f50	50		 push	 eax
  02f51	e8 00 00 00 00	 call	 _memset
  02f56	83 c4 0c	 add	 esp, 12			; 0000000cH

; 2405 : 
; 2406 : 		get_3d_terrain_point_data (current_flight_dynamics->position.x, current_flight_dynamics->position.z, &terrain_info);

  02f59	8d 85 40 fe ff
	ff		 lea	 eax, DWORD PTR _terrain_info$29[ebp]
  02f5f	50		 push	 eax
  02f60	8b 0d 00 00 00
	00		 mov	 ecx, DWORD PTR ?current_flight_dynamics@@3PAUDYNAMICS_TYPE@@A ; current_flight_dynamics
  02f66	f2 0f 5a 81 bc
	00 00 00	 cvtsd2ss xmm0, QWORD PTR [ecx+188]
  02f6e	51		 push	 ecx
  02f6f	f3 0f 11 04 24	 movss	 DWORD PTR [esp], xmm0
  02f74	8b 15 00 00 00
	00		 mov	 edx, DWORD PTR ?current_flight_dynamics@@3PAUDYNAMICS_TYPE@@A ; current_flight_dynamics
  02f7a	f2 0f 5a 82 ac
	00 00 00	 cvtsd2ss xmm0, QWORD PTR [edx+172]
  02f82	51		 push	 ecx
  02f83	f3 0f 11 04 24	 movss	 DWORD PTR [esp], xmm0
  02f88	e8 00 00 00 00	 call	 ?get_3d_terrain_point_data@@YGMMMPAUTERRAIN_3D_POINT_DATA@@@Z ; get_3d_terrain_point_data
  02f8d	dd d8		 fstp	 ST(0)

; 2407 : 
; 2408 : 		altitude = current_flight_dynamics->position.y - get_3d_terrain_point_data_elevation (&terrain_info);

  02f8f	8d 85 40 fe ff
	ff		 lea	 eax, DWORD PTR _terrain_info$29[ebp]
  02f95	50		 push	 eax
  02f96	e8 00 00 00 00	 call	 ?get_3d_terrain_point_data_elevation@@YGMPAUTERRAIN_3D_POINT_DATA@@@Z ; get_3d_terrain_point_data_elevation
  02f9b	dd 9d 18 fd ff
	ff		 fstp	 QWORD PTR tv3327[ebp]
  02fa1	8b 0d 00 00 00
	00		 mov	 ecx, DWORD PTR ?current_flight_dynamics@@3PAUDYNAMICS_TYPE@@A ; current_flight_dynamics
  02fa7	f2 0f 10 81 b4
	00 00 00	 movsd	 xmm0, QWORD PTR [ecx+180]
  02faf	f2 0f 5c 85 18
	fd ff ff	 subsd	 xmm0, QWORD PTR tv3327[ebp]
  02fb7	f2 0f 5a c0	 cvtsd2ss xmm0, xmm0
  02fbb	f3 0f 11 85 6c
	fe ff ff	 movss	 DWORD PTR _altitude$30[ebp], xmm0

; 2409 : 
; 2410 : 		////////////////////////////////////////////
; 2411 : 		// In Ground Effect on middle side of rotor disc
; 2412 : 		////////////////////////////////////////////
; 2413 : 		{
; 2414 : 
; 2415 : 			float
; 2416 : 				over_all_g_e_force;
; 2417 : 
; 2418 : 			over_all_g_e_force = (1.0 - ((altitude * altitude) / (current_flight_dynamics->main_rotor_diameter.value * current_flight_dynamics->main_rotor_diameter.value)));

  02fc3	f3 0f 10 85 6c
	fe ff ff	 movss	 xmm0, DWORD PTR _altitude$30[ebp]
  02fcb	f3 0f 59 85 6c
	fe ff ff	 mulss	 xmm0, DWORD PTR _altitude$30[ebp]
  02fd3	a1 00 00 00 00	 mov	 eax, DWORD PTR ?current_flight_dynamics@@3PAUDYNAMICS_TYPE@@A ; current_flight_dynamics
  02fd8	8b 0d 00 00 00
	00		 mov	 ecx, DWORD PTR ?current_flight_dynamics@@3PAUDYNAMICS_TYPE@@A ; current_flight_dynamics
  02fde	f3 0f 10 88 9c
	1d 00 00	 movss	 xmm1, DWORD PTR [eax+7580]
  02fe6	f3 0f 59 89 9c
	1d 00 00	 mulss	 xmm1, DWORD PTR [ecx+7580]
  02fee	f3 0f 5e c1	 divss	 xmm0, xmm1
  02ff2	f3 0f 5a c0	 cvtss2sd xmm0, xmm0
  02ff6	f2 0f 10 0d 00
	00 00 00	 movsd	 xmm1, QWORD PTR __real@3ff0000000000000
  02ffe	f2 0f 5c c8	 subsd	 xmm1, xmm0
  03002	f2 0f 5a c1	 cvtsd2ss xmm0, xmm1
  03006	f3 0f 11 85 30
	fe ff ff	 movss	 DWORD PTR _over_all_g_e_force$27[ebp], xmm0

; 2419 : 
; 2420 : 			over_all_g_e_force = bound (over_all_g_e_force, 0.0, 1.0);

  0300e	f3 0f 5a 85 30
	fe ff ff	 cvtss2sd xmm0, DWORD PTR _over_all_g_e_force$27[ebp]
  03016	0f 57 c9	 xorps	 xmm1, xmm1
  03019	66 0f 2f c8	 comisd	 xmm1, xmm0
  0301d	76 0d		 jbe	 SHORT $LN140@update_att
  0301f	0f 57 c0	 xorps	 xmm0, xmm0
  03022	f2 0f 11 85 18
	fd ff ff	 movsd	 QWORD PTR tv1530[ebp], xmm0
  0302a	eb 44		 jmp	 SHORT $LN141@update_att
$LN140@update_att:
  0302c	f3 0f 5a 85 30
	fe ff ff	 cvtss2sd xmm0, DWORD PTR _over_all_g_e_force$27[ebp]
  03034	66 0f 2f 05 00
	00 00 00	 comisd	 xmm0, QWORD PTR __real@3ff0000000000000
  0303c	76 12		 jbe	 SHORT $LN138@update_att
  0303e	f2 0f 10 05 00
	00 00 00	 movsd	 xmm0, QWORD PTR __real@3ff0000000000000
  03046	f2 0f 11 85 10
	fd ff ff	 movsd	 QWORD PTR tv1529[ebp], xmm0
  0304e	eb 10		 jmp	 SHORT $LN139@update_att
$LN138@update_att:
  03050	f3 0f 5a 85 30
	fe ff ff	 cvtss2sd xmm0, DWORD PTR _over_all_g_e_force$27[ebp]
  03058	f2 0f 11 85 10
	fd ff ff	 movsd	 QWORD PTR tv1529[ebp], xmm0
$LN139@update_att:
  03060	f2 0f 10 85 10
	fd ff ff	 movsd	 xmm0, QWORD PTR tv1529[ebp]
  03068	f2 0f 11 85 18
	fd ff ff	 movsd	 QWORD PTR tv1530[ebp], xmm0
$LN141@update_att:
  03070	f2 0f 5a 85 18
	fd ff ff	 cvtsd2ss xmm0, QWORD PTR tv1530[ebp]
  03078	f3 0f 11 85 30
	fe ff ff	 movss	 DWORD PTR _over_all_g_e_force$27[ebp], xmm0

; 2421 : 
; 2422 : 			over_all_g_e_force *= 0.1 * main_rotor_induced_air_value;

  03080	f3 0f 5a 45 9c	 cvtss2sd xmm0, DWORD PTR _main_rotor_induced_air_value$[ebp]
  03085	f2 0f 59 05 00
	00 00 00	 mulsd	 xmm0, QWORD PTR __real@3fb999999999999a
  0308d	f3 0f 5a 8d 30
	fe ff ff	 cvtss2sd xmm1, DWORD PTR _over_all_g_e_force$27[ebp]
  03095	f2 0f 59 c8	 mulsd	 xmm1, xmm0
  03099	f2 0f 5a c1	 cvtsd2ss xmm0, xmm1
  0309d	f3 0f 11 85 30
	fe ff ff	 movss	 DWORD PTR _over_all_g_e_force$27[ebp], xmm0

; 2423 : 
; 2424 : 			if (current_flight_dynamics->velocity_z.max != 0.0)

  030a5	a1 00 00 00 00	 mov	 eax, DWORD PTR ?current_flight_dynamics@@3PAUDYNAMICS_TYPE@@A ; current_flight_dynamics
  030aa	f3 0f 5a 80 a8
	20 00 00	 cvtss2sd xmm0, DWORD PTR [eax+8360]
  030b2	66 0f 2e 05 00
	00 00 00	 ucomisd xmm0, QWORD PTR __real@0000000000000000
  030ba	9f		 lahf
  030bb	f6 c4 44	 test	 ah, 68			; 00000044H
  030be	7b 4c		 jnp	 SHORT $LN71@update_att

; 2425 : 			{
; 2426 : 
; 2427 : 				over_all_g_e_force *= (current_flight_dynamics->velocity_z.max - fabs (velocity_z_value)) / current_flight_dynamics->velocity_z.max;

  030c0	51		 push	 ecx
  030c1	f3 0f 10 85 70
	ff ff ff	 movss	 xmm0, DWORD PTR _velocity_z_value$[ebp]
  030c9	f3 0f 11 04 24	 movss	 DWORD PTR [esp], xmm0
  030ce	e8 00 00 00 00	 call	 ?fabs@@YGMM@Z		; fabs
  030d3	d9 9d 1c fd ff
	ff		 fstp	 DWORD PTR tv3348[ebp]
  030d9	a1 00 00 00 00	 mov	 eax, DWORD PTR ?current_flight_dynamics@@3PAUDYNAMICS_TYPE@@A ; current_flight_dynamics
  030de	f3 0f 10 80 a8
	20 00 00	 movss	 xmm0, DWORD PTR [eax+8360]
  030e6	f3 0f 5c 85 1c
	fd ff ff	 subss	 xmm0, DWORD PTR tv3348[ebp]
  030ee	8b 0d 00 00 00
	00		 mov	 ecx, DWORD PTR ?current_flight_dynamics@@3PAUDYNAMICS_TYPE@@A ; current_flight_dynamics
  030f4	f3 0f 5e 81 a8
	20 00 00	 divss	 xmm0, DWORD PTR [ecx+8360]
  030fc	f3 0f 59 85 30
	fe ff ff	 mulss	 xmm0, DWORD PTR _over_all_g_e_force$27[ebp]
  03104	f3 0f 11 85 30
	fe ff ff	 movss	 DWORD PTR _over_all_g_e_force$27[ebp], xmm0
$LN71@update_att:

; 2428 : 			}
; 2429 : 
; 2430 : 			position.x = 0.0;

  0310c	0f 57 c0	 xorps	 xmm0, xmm0
  0310f	f3 0f 11 85 44
	ff ff ff	 movss	 DWORD PTR _position$[ebp], xmm0

; 2431 : 			position.y = 0.0;

  03117	0f 57 c0	 xorps	 xmm0, xmm0
  0311a	f3 0f 11 85 48
	ff ff ff	 movss	 DWORD PTR _position$[ebp+4], xmm0

; 2432 : 			position.z = 0.0;

  03122	0f 57 c0	 xorps	 xmm0, xmm0
  03125	f3 0f 11 85 4c
	ff ff ff	 movss	 DWORD PTR _position$[ebp+8], xmm0

; 2433 : 
; 2434 : 			direction.x = 0.0;

  0312d	0f 57 c0	 xorps	 xmm0, xmm0
  03130	f3 0f 11 85 38
	ff ff ff	 movss	 DWORD PTR _direction$[ebp], xmm0

; 2435 : 			direction.y = 1.0;

  03138	f3 0f 10 05 00
	00 00 00	 movss	 xmm0, DWORD PTR __real@3f800000
  03140	f3 0f 11 85 3c
	ff ff ff	 movss	 DWORD PTR _direction$[ebp+4], xmm0

; 2436 : 			direction.z = 0.0;

  03148	0f 57 c0	 xorps	 xmm0, xmm0
  0314b	f3 0f 11 85 40
	ff ff ff	 movss	 DWORD PTR _direction$[ebp+8], xmm0

; 2437 : 
; 2438 : 			over_all_g_e_force *= current_flight_dynamics->ground_effect.modifier;

  03153	a1 00 00 00 00	 mov	 eax, DWORD PTR ?current_flight_dynamics@@3PAUDYNAMICS_TYPE@@A ; current_flight_dynamics
  03158	f3 0f 10 85 30
	fe ff ff	 movss	 xmm0, DWORD PTR _over_all_g_e_force$27[ebp]
  03160	f3 0f 59 80 e0
	23 00 00	 mulss	 xmm0, DWORD PTR [eax+9184]
  03168	f3 0f 11 85 30
	fe ff ff	 movss	 DWORD PTR _over_all_g_e_force$27[ebp], xmm0

; 2439 : 
; 2440 : 			add_dynamic_force ("Middle rotor Ground effect", over_all_g_e_force, 0.0, &position, &direction, FALSE);

  03170	6a 00		 push	 0
  03172	8d 85 38 ff ff
	ff		 lea	 eax, DWORD PTR _direction$[ebp]
  03178	50		 push	 eax
  03179	8d 8d 44 ff ff
	ff		 lea	 ecx, DWORD PTR _position$[ebp]
  0317f	51		 push	 ecx
  03180	51		 push	 ecx
  03181	0f 57 c0	 xorps	 xmm0, xmm0
  03184	f3 0f 11 04 24	 movss	 DWORD PTR [esp], xmm0
  03189	51		 push	 ecx
  0318a	f3 0f 10 85 30
	fe ff ff	 movss	 xmm0, DWORD PTR _over_all_g_e_force$27[ebp]
  03192	f3 0f 11 04 24	 movss	 DWORD PTR [esp], xmm0
  03197	68 00 00 00 00	 push	 OFFSET ??_C@_0BL@CBNCBPEP@Middle?5rotor?5Ground?5effect@
  0319c	e8 00 00 00 00	 call	 ?add_dynamic_force@@YGXPBDMMPAUVEC3D@@1H@Z ; add_dynamic_force

; 2441 : 		}
; 2442 : 		////////////////////////////////////////////
; 2443 : 		// In Ground Effect on front side of rotor disc
; 2444 : 		////////////////////////////////////////////
; 2445 : 		{
; 2446 : 
; 2447 : 			float
; 2448 : 				tuning_value;
; 2449 : 
; 2450 : 			tuning_value = 0.1;

  031a1	f3 0f 10 05 00
	00 00 00	 movss	 xmm0, DWORD PTR __real@3dcccccd
  031a9	f3 0f 11 85 2c
	fe ff ff	 movss	 DWORD PTR _tuning_value$26[ebp], xmm0

; 2451 : 
; 2452 : 			position.x = 0.0;

  031b1	0f 57 c0	 xorps	 xmm0, xmm0
  031b4	f3 0f 11 85 44
	ff ff ff	 movss	 DWORD PTR _position$[ebp], xmm0

; 2453 : 			position.y = 0.0;

  031bc	0f 57 c0	 xorps	 xmm0, xmm0
  031bf	f3 0f 11 85 48
	ff ff ff	 movss	 DWORD PTR _position$[ebp+4], xmm0

; 2454 : 			position.z = 7.299;

  031c7	f3 0f 10 05 00
	00 00 00	 movss	 xmm0, DWORD PTR __real@40e99168
  031cf	f3 0f 11 85 4c
	ff ff ff	 movss	 DWORD PTR _position$[ebp+8], xmm0

; 2455 : 
; 2456 : 			direction.x = 0.0;

  031d7	0f 57 c0	 xorps	 xmm0, xmm0
  031da	f3 0f 11 85 38
	ff ff ff	 movss	 DWORD PTR _direction$[ebp], xmm0

; 2457 : 			direction.y = 1.0;

  031e2	f3 0f 10 05 00
	00 00 00	 movss	 xmm0, DWORD PTR __real@3f800000
  031ea	f3 0f 11 85 3c
	ff ff ff	 movss	 DWORD PTR _direction$[ebp+4], xmm0

; 2458 : 			direction.z = 0.0;

  031f2	0f 57 c0	 xorps	 xmm0, xmm0
  031f5	f3 0f 11 85 40
	ff ff ff	 movss	 DWORD PTR _direction$[ebp+8], xmm0

; 2459 : 
; 2460 : 			multiply_matrix3x3_vec3d (&world_position, current_flight_dynamics->attitude, &position);

  031fd	8d 85 44 ff ff
	ff		 lea	 eax, DWORD PTR _position$[ebp]
  03203	50		 push	 eax
  03204	8b 0d 00 00 00
	00		 mov	 ecx, DWORD PTR ?current_flight_dynamics@@3PAUDYNAMICS_TYPE@@A ; current_flight_dynamics
  0320a	81 c1 d0 00 00
	00		 add	 ecx, 208		; 000000d0H
  03210	51		 push	 ecx
  03211	8d 95 34 fe ff
	ff		 lea	 edx, DWORD PTR _world_position$28[ebp]
  03217	52		 push	 edx
  03218	e8 00 00 00 00	 call	 ?multiply_matrix3x3_vec3d@@YGXPAUVEC3D@@QAY02$$CBMPBU1@@Z ; multiply_matrix3x3_vec3d

; 2461 : 
; 2462 : 			world_position.x += current_flight_dynamics->position.x;

  0321d	f3 0f 5a 85 34
	fe ff ff	 cvtss2sd xmm0, DWORD PTR _world_position$28[ebp]
  03225	a1 00 00 00 00	 mov	 eax, DWORD PTR ?current_flight_dynamics@@3PAUDYNAMICS_TYPE@@A ; current_flight_dynamics
  0322a	f2 0f 58 80 ac
	00 00 00	 addsd	 xmm0, QWORD PTR [eax+172]
  03232	f2 0f 5a c0	 cvtsd2ss xmm0, xmm0
  03236	f3 0f 11 85 34
	fe ff ff	 movss	 DWORD PTR _world_position$28[ebp], xmm0

; 2463 : 			world_position.y += current_flight_dynamics->position.y;

  0323e	f3 0f 5a 85 38
	fe ff ff	 cvtss2sd xmm0, DWORD PTR _world_position$28[ebp+4]
  03246	a1 00 00 00 00	 mov	 eax, DWORD PTR ?current_flight_dynamics@@3PAUDYNAMICS_TYPE@@A ; current_flight_dynamics
  0324b	f2 0f 58 80 b4
	00 00 00	 addsd	 xmm0, QWORD PTR [eax+180]
  03253	f2 0f 5a c0	 cvtsd2ss xmm0, xmm0
  03257	f3 0f 11 85 38
	fe ff ff	 movss	 DWORD PTR _world_position$28[ebp+4], xmm0

; 2464 : 			world_position.z += current_flight_dynamics->position.z;

  0325f	f3 0f 5a 85 3c
	fe ff ff	 cvtss2sd xmm0, DWORD PTR _world_position$28[ebp+8]
  03267	a1 00 00 00 00	 mov	 eax, DWORD PTR ?current_flight_dynamics@@3PAUDYNAMICS_TYPE@@A ; current_flight_dynamics
  0326c	f2 0f 58 80 bc
	00 00 00	 addsd	 xmm0, QWORD PTR [eax+188]
  03274	f2 0f 5a c0	 cvtsd2ss xmm0, xmm0
  03278	f3 0f 11 85 3c
	fe ff ff	 movss	 DWORD PTR _world_position$28[ebp+8], xmm0

; 2465 : 
; 2466 : 			bound_position_to_adjusted_map_volume (&world_position);

  03280	8d 85 34 fe ff
	ff		 lea	 eax, DWORD PTR _world_position$28[ebp]
  03286	50		 push	 eax
  03287	e8 00 00 00 00	 call	 ?bound_position_to_adjusted_map_volume@@YGHPAUVEC3D@@@Z ; bound_position_to_adjusted_map_volume

; 2467 : 
; 2468 : 			get_3d_terrain_point_data (world_position.x, world_position.z, &terrain_info);

  0328c	8d 85 40 fe ff
	ff		 lea	 eax, DWORD PTR _terrain_info$29[ebp]
  03292	50		 push	 eax
  03293	51		 push	 ecx
  03294	f3 0f 10 85 3c
	fe ff ff	 movss	 xmm0, DWORD PTR _world_position$28[ebp+8]
  0329c	f3 0f 11 04 24	 movss	 DWORD PTR [esp], xmm0
  032a1	51		 push	 ecx
  032a2	f3 0f 10 85 34
	fe ff ff	 movss	 xmm0, DWORD PTR _world_position$28[ebp]
  032aa	f3 0f 11 04 24	 movss	 DWORD PTR [esp], xmm0
  032af	e8 00 00 00 00	 call	 ?get_3d_terrain_point_data@@YGMMMPAUTERRAIN_3D_POINT_DATA@@@Z ; get_3d_terrain_point_data
  032b4	dd d8		 fstp	 ST(0)

; 2469 : 
; 2470 : 			altitude = world_position.y - get_3d_terrain_point_data_elevation (&terrain_info);

  032b6	8d 85 40 fe ff
	ff		 lea	 eax, DWORD PTR _terrain_info$29[ebp]
  032bc	50		 push	 eax
  032bd	e8 00 00 00 00	 call	 ?get_3d_terrain_point_data_elevation@@YGMPAUTERRAIN_3D_POINT_DATA@@@Z ; get_3d_terrain_point_data_elevation
  032c2	d9 9d 1c fd ff
	ff		 fstp	 DWORD PTR tv3390[ebp]
  032c8	f3 0f 10 85 38
	fe ff ff	 movss	 xmm0, DWORD PTR _world_position$28[ebp+4]
  032d0	f3 0f 5c 85 1c
	fd ff ff	 subss	 xmm0, DWORD PTR tv3390[ebp]
  032d8	f3 0f 11 85 6c
	fe ff ff	 movss	 DWORD PTR _altitude$30[ebp], xmm0

; 2471 : 
; 2472 : 			altitude = max (altitude, 0.0f);

  032e0	0f 57 c0	 xorps	 xmm0, xmm0
  032e3	f3 0f 11 85 34
	fd ff ff	 movss	 DWORD PTR $T6[ebp], xmm0
  032eb	8d 85 34 fd ff
	ff		 lea	 eax, DWORD PTR $T6[ebp]
  032f1	50		 push	 eax
  032f2	8d 8d 6c fe ff
	ff		 lea	 ecx, DWORD PTR _altitude$30[ebp]
  032f8	51		 push	 ecx
  032f9	e8 00 00 00 00	 call	 ??$max@M@std@@YGABMABM0@Z ; std::max<float>
  032fe	f3 0f 10 00	 movss	 xmm0, DWORD PTR [eax]
  03302	f3 0f 11 85 6c
	fe ff ff	 movss	 DWORD PTR _altitude$30[ebp], xmm0

; 2473 : 
; 2474 : 			front_g_e_force += ((0.05 - ((altitude * altitude) / (20.0 * current_flight_dynamics->main_rotor_diameter.value * current_flight_dynamics->main_rotor_diameter.value))) - front_g_e_force) * get_model_delta_time ();

  0330a	f3 0f 10 85 6c
	fe ff ff	 movss	 xmm0, DWORD PTR _altitude$30[ebp]
  03312	f3 0f 59 85 6c
	fe ff ff	 mulss	 xmm0, DWORD PTR _altitude$30[ebp]
  0331a	f3 0f 5a c0	 cvtss2sd xmm0, xmm0
  0331e	a1 00 00 00 00	 mov	 eax, DWORD PTR ?current_flight_dynamics@@3PAUDYNAMICS_TYPE@@A ; current_flight_dynamics
  03323	f3 0f 5a 88 9c
	1d 00 00	 cvtss2sd xmm1, DWORD PTR [eax+7580]
  0332b	f2 0f 59 0d 00
	00 00 00	 mulsd	 xmm1, QWORD PTR __real@4034000000000000
  03333	8b 0d 00 00 00
	00		 mov	 ecx, DWORD PTR ?current_flight_dynamics@@3PAUDYNAMICS_TYPE@@A ; current_flight_dynamics
  03339	f3 0f 5a 91 9c
	1d 00 00	 cvtss2sd xmm2, DWORD PTR [ecx+7580]
  03341	f2 0f 59 ca	 mulsd	 xmm1, xmm2
  03345	f2 0f 5e c1	 divsd	 xmm0, xmm1
  03349	f2 0f 10 0d 00
	00 00 00	 movsd	 xmm1, QWORD PTR __real@3fa999999999999a
  03351	f2 0f 5c c8	 subsd	 xmm1, xmm0
  03355	f3 0f 5a 05 00
	00 00 00	 cvtss2sd xmm0, DWORD PTR ?front_g_e_force@@3MA
  0335d	f2 0f 5c c8	 subsd	 xmm1, xmm0
  03361	8b 15 00 00 00
	00		 mov	 edx, DWORD PTR ?current_flight_dynamics@@3PAUDYNAMICS_TYPE@@A ; current_flight_dynamics
  03367	f3 0f 5a 82 90
	00 00 00	 cvtss2sd xmm0, DWORD PTR [edx+144]
  0336f	f2 0f 59 c8	 mulsd	 xmm1, xmm0
  03373	f3 0f 5a 05 00
	00 00 00	 cvtss2sd xmm0, DWORD PTR ?front_g_e_force@@3MA
  0337b	f2 0f 58 c1	 addsd	 xmm0, xmm1
  0337f	f2 0f 5a c0	 cvtsd2ss xmm0, xmm0
  03383	f3 0f 11 05 00
	00 00 00	 movss	 DWORD PTR ?front_g_e_force@@3MA, xmm0

; 2475 : 
; 2476 : 			front_g_e_force = bound (front_g_e_force, 0.0, 0.05);

  0338b	f3 0f 5a 05 00
	00 00 00	 cvtss2sd xmm0, DWORD PTR ?front_g_e_force@@3MA
  03393	0f 57 c9	 xorps	 xmm1, xmm1
  03396	66 0f 2f c8	 comisd	 xmm1, xmm0
  0339a	76 0d		 jbe	 SHORT $LN144@update_att
  0339c	0f 57 c0	 xorps	 xmm0, xmm0
  0339f	f2 0f 11 85 18
	fd ff ff	 movsd	 QWORD PTR tv1614[ebp], xmm0
  033a7	eb 44		 jmp	 SHORT $LN145@update_att
$LN144@update_att:
  033a9	f3 0f 5a 05 00
	00 00 00	 cvtss2sd xmm0, DWORD PTR ?front_g_e_force@@3MA
  033b1	66 0f 2f 05 00
	00 00 00	 comisd	 xmm0, QWORD PTR __real@3fa999999999999a
  033b9	76 12		 jbe	 SHORT $LN142@update_att
  033bb	f2 0f 10 05 00
	00 00 00	 movsd	 xmm0, QWORD PTR __real@3fa999999999999a
  033c3	f2 0f 11 85 10
	fd ff ff	 movsd	 QWORD PTR tv1613[ebp], xmm0
  033cb	eb 10		 jmp	 SHORT $LN143@update_att
$LN142@update_att:
  033cd	f3 0f 5a 05 00
	00 00 00	 cvtss2sd xmm0, DWORD PTR ?front_g_e_force@@3MA
  033d5	f2 0f 11 85 10
	fd ff ff	 movsd	 QWORD PTR tv1613[ebp], xmm0
$LN143@update_att:
  033dd	f2 0f 10 85 10
	fd ff ff	 movsd	 xmm0, QWORD PTR tv1613[ebp]
  033e5	f2 0f 11 85 18
	fd ff ff	 movsd	 QWORD PTR tv1614[ebp], xmm0
$LN145@update_att:
  033ed	f2 0f 5a 85 18
	fd ff ff	 cvtsd2ss xmm0, QWORD PTR tv1614[ebp]
  033f5	f3 0f 11 05 00
	00 00 00	 movss	 DWORD PTR ?front_g_e_force@@3MA, xmm0

; 2477 : 
; 2478 : 			if (front_g_e_force > 0.0)

  033fd	f3 0f 5a 05 00
	00 00 00	 cvtss2sd xmm0, DWORD PTR ?front_g_e_force@@3MA
  03405	66 0f 2f 05 00
	00 00 00	 comisd	 xmm0, QWORD PTR __real@0000000000000000
  0340d	0f 86 d2 00 00
	00		 jbe	 $LN72@update_att

; 2479 : 			{
; 2480 : 
; 2481 : 				front_g_e_force *= tuning_value * main_rotor_induced_air_value;

  03413	f3 0f 10 85 2c
	fe ff ff	 movss	 xmm0, DWORD PTR _tuning_value$26[ebp]
  0341b	f3 0f 59 45 9c	 mulss	 xmm0, DWORD PTR _main_rotor_induced_air_value$[ebp]
  03420	f3 0f 59 05 00
	00 00 00	 mulss	 xmm0, DWORD PTR ?front_g_e_force@@3MA
  03428	f3 0f 11 05 00
	00 00 00	 movss	 DWORD PTR ?front_g_e_force@@3MA, xmm0

; 2482 : 
; 2483 : 				if (current_flight_dynamics->velocity_z.max != 0.0)

  03430	a1 00 00 00 00	 mov	 eax, DWORD PTR ?current_flight_dynamics@@3PAUDYNAMICS_TYPE@@A ; current_flight_dynamics
  03435	f3 0f 5a 80 a8
	20 00 00	 cvtss2sd xmm0, DWORD PTR [eax+8360]
  0343d	66 0f 2e 05 00
	00 00 00	 ucomisd xmm0, QWORD PTR __real@0000000000000000
  03445	9f		 lahf
  03446	f6 c4 44	 test	 ah, 68			; 00000044H
  03449	7b 4c		 jnp	 SHORT $LN73@update_att

; 2484 : 				{
; 2485 : 
; 2486 : 					front_g_e_force *= (current_flight_dynamics->velocity_z.max - fabs (velocity_z_value)) / current_flight_dynamics->velocity_z.max;

  0344b	51		 push	 ecx
  0344c	f3 0f 10 85 70
	ff ff ff	 movss	 xmm0, DWORD PTR _velocity_z_value$[ebp]
  03454	f3 0f 11 04 24	 movss	 DWORD PTR [esp], xmm0
  03459	e8 00 00 00 00	 call	 ?fabs@@YGMM@Z		; fabs
  0345e	d9 9d 1c fd ff
	ff		 fstp	 DWORD PTR tv3417[ebp]
  03464	a1 00 00 00 00	 mov	 eax, DWORD PTR ?current_flight_dynamics@@3PAUDYNAMICS_TYPE@@A ; current_flight_dynamics
  03469	f3 0f 10 80 a8
	20 00 00	 movss	 xmm0, DWORD PTR [eax+8360]
  03471	f3 0f 5c 85 1c
	fd ff ff	 subss	 xmm0, DWORD PTR tv3417[ebp]
  03479	8b 0d 00 00 00
	00		 mov	 ecx, DWORD PTR ?current_flight_dynamics@@3PAUDYNAMICS_TYPE@@A ; current_flight_dynamics
  0347f	f3 0f 5e 81 a8
	20 00 00	 divss	 xmm0, DWORD PTR [ecx+8360]
  03487	f3 0f 59 05 00
	00 00 00	 mulss	 xmm0, DWORD PTR ?front_g_e_force@@3MA
  0348f	f3 0f 11 05 00
	00 00 00	 movss	 DWORD PTR ?front_g_e_force@@3MA, xmm0
$LN73@update_att:

; 2487 : 				}
; 2488 : 
; 2489 : 				#if DEBUG_MODULE
; 2490 : 
; 2491 : 				debug_log ("DYNAMICS: IGE front force %f, alt %f, y %f, el %f, x %f, z %f, tuning %f induced %f",
; 2492 : 								front_g_e_force, altitude, current_flight_dynamics->position.y,
; 2493 : 								get_3d_terrain_point_data_elevation (&terrain_info), world_position.x, world_position.z,
; 2494 : 								tuning_value, main_rotor_induced_air_value);
; 2495 : 
; 2496 : 				create_vectored_debug_3d_object (&world_position, &direction, OBJECT_3D_ARROW_FORCES, 0, 20.0 * front_g_e_force);
; 2497 : 
; 2498 : 				#endif
; 2499 : 
; 2500 : 				front_g_e_force *= current_flight_dynamics->ground_effect.modifier;

  03497	a1 00 00 00 00	 mov	 eax, DWORD PTR ?current_flight_dynamics@@3PAUDYNAMICS_TYPE@@A ; current_flight_dynamics
  0349c	f3 0f 10 05 00
	00 00 00	 movss	 xmm0, DWORD PTR ?front_g_e_force@@3MA
  034a4	f3 0f 59 80 e0
	23 00 00	 mulss	 xmm0, DWORD PTR [eax+9184]
  034ac	f3 0f 11 05 00
	00 00 00	 movss	 DWORD PTR ?front_g_e_force@@3MA, xmm0

; 2501 : 
; 2502 : 				add_dynamic_force ("Front rotor Ground effect", front_g_e_force, 0.0, &position, &direction, FALSE);

  034b4	6a 00		 push	 0
  034b6	8d 85 38 ff ff
	ff		 lea	 eax, DWORD PTR _direction$[ebp]
  034bc	50		 push	 eax
  034bd	8d 8d 44 ff ff
	ff		 lea	 ecx, DWORD PTR _position$[ebp]
  034c3	51		 push	 ecx
  034c4	51		 push	 ecx
  034c5	0f 57 c0	 xorps	 xmm0, xmm0
  034c8	f3 0f 11 04 24	 movss	 DWORD PTR [esp], xmm0
  034cd	51		 push	 ecx
  034ce	f3 0f 10 05 00
	00 00 00	 movss	 xmm0, DWORD PTR ?front_g_e_force@@3MA
  034d6	f3 0f 11 04 24	 movss	 DWORD PTR [esp], xmm0
  034db	68 00 00 00 00	 push	 OFFSET ??_C@_0BK@BDABDLEI@Front?5rotor?5Ground?5effect@
  034e0	e8 00 00 00 00	 call	 ?add_dynamic_force@@YGXPBDMMPAUVEC3D@@1H@Z ; add_dynamic_force
$LN72@update_att:

; 2503 : 			}
; 2504 : 		}
; 2505 : 		////////////////////////////////////////////
; 2506 : 		// In Ground Effect on back side of rotor disc
; 2507 : 		////////////////////////////////////////////
; 2508 : 		{
; 2509 : 
; 2510 : 			float
; 2511 : 				tuning_value = 0.1;

  034e5	f3 0f 10 05 00
	00 00 00	 movss	 xmm0, DWORD PTR __real@3dcccccd
  034ed	f3 0f 11 85 28
	fe ff ff	 movss	 DWORD PTR _tuning_value$25[ebp], xmm0

; 2512 : 
; 2513 : 			position.x = 0.0;

  034f5	0f 57 c0	 xorps	 xmm0, xmm0
  034f8	f3 0f 11 85 44
	ff ff ff	 movss	 DWORD PTR _position$[ebp], xmm0

; 2514 : 			position.y = 0.0;

  03500	0f 57 c0	 xorps	 xmm0, xmm0
  03503	f3 0f 11 85 48
	ff ff ff	 movss	 DWORD PTR _position$[ebp+4], xmm0

; 2515 : 			position.z = -7.299;

  0350b	f3 0f 10 05 00
	00 00 00	 movss	 xmm0, DWORD PTR __real@c0e99168
  03513	f3 0f 11 85 4c
	ff ff ff	 movss	 DWORD PTR _position$[ebp+8], xmm0

; 2516 : 
; 2517 : 			direction.x = 0.0;

  0351b	0f 57 c0	 xorps	 xmm0, xmm0
  0351e	f3 0f 11 85 38
	ff ff ff	 movss	 DWORD PTR _direction$[ebp], xmm0

; 2518 : 			direction.y = 1.0;

  03526	f3 0f 10 05 00
	00 00 00	 movss	 xmm0, DWORD PTR __real@3f800000
  0352e	f3 0f 11 85 3c
	ff ff ff	 movss	 DWORD PTR _direction$[ebp+4], xmm0

; 2519 : 			direction.z = 0.0;

  03536	0f 57 c0	 xorps	 xmm0, xmm0
  03539	f3 0f 11 85 40
	ff ff ff	 movss	 DWORD PTR _direction$[ebp+8], xmm0

; 2520 : 
; 2521 : 			multiply_matrix3x3_vec3d (&world_position, current_flight_dynamics->attitude, &position);

  03541	8d 85 44 ff ff
	ff		 lea	 eax, DWORD PTR _position$[ebp]
  03547	50		 push	 eax
  03548	8b 0d 00 00 00
	00		 mov	 ecx, DWORD PTR ?current_flight_dynamics@@3PAUDYNAMICS_TYPE@@A ; current_flight_dynamics
  0354e	81 c1 d0 00 00
	00		 add	 ecx, 208		; 000000d0H
  03554	51		 push	 ecx
  03555	8d 95 34 fe ff
	ff		 lea	 edx, DWORD PTR _world_position$28[ebp]
  0355b	52		 push	 edx
  0355c	e8 00 00 00 00	 call	 ?multiply_matrix3x3_vec3d@@YGXPAUVEC3D@@QAY02$$CBMPBU1@@Z ; multiply_matrix3x3_vec3d

; 2522 : 
; 2523 : 			world_position.x += current_flight_dynamics->position.x;

  03561	f3 0f 5a 85 34
	fe ff ff	 cvtss2sd xmm0, DWORD PTR _world_position$28[ebp]
  03569	a1 00 00 00 00	 mov	 eax, DWORD PTR ?current_flight_dynamics@@3PAUDYNAMICS_TYPE@@A ; current_flight_dynamics
  0356e	f2 0f 58 80 ac
	00 00 00	 addsd	 xmm0, QWORD PTR [eax+172]
  03576	f2 0f 5a c0	 cvtsd2ss xmm0, xmm0
  0357a	f3 0f 11 85 34
	fe ff ff	 movss	 DWORD PTR _world_position$28[ebp], xmm0

; 2524 : 			world_position.y += current_flight_dynamics->position.y;

  03582	f3 0f 5a 85 38
	fe ff ff	 cvtss2sd xmm0, DWORD PTR _world_position$28[ebp+4]
  0358a	a1 00 00 00 00	 mov	 eax, DWORD PTR ?current_flight_dynamics@@3PAUDYNAMICS_TYPE@@A ; current_flight_dynamics
  0358f	f2 0f 58 80 b4
	00 00 00	 addsd	 xmm0, QWORD PTR [eax+180]
  03597	f2 0f 5a c0	 cvtsd2ss xmm0, xmm0
  0359b	f3 0f 11 85 38
	fe ff ff	 movss	 DWORD PTR _world_position$28[ebp+4], xmm0

; 2525 : 			world_position.z += current_flight_dynamics->position.z;

  035a3	f3 0f 5a 85 3c
	fe ff ff	 cvtss2sd xmm0, DWORD PTR _world_position$28[ebp+8]
  035ab	a1 00 00 00 00	 mov	 eax, DWORD PTR ?current_flight_dynamics@@3PAUDYNAMICS_TYPE@@A ; current_flight_dynamics
  035b0	f2 0f 58 80 bc
	00 00 00	 addsd	 xmm0, QWORD PTR [eax+188]
  035b8	f2 0f 5a c0	 cvtsd2ss xmm0, xmm0
  035bc	f3 0f 11 85 3c
	fe ff ff	 movss	 DWORD PTR _world_position$28[ebp+8], xmm0

; 2526 : 
; 2527 : 			bound_position_to_adjusted_map_volume (&world_position);

  035c4	8d 85 34 fe ff
	ff		 lea	 eax, DWORD PTR _world_position$28[ebp]
  035ca	50		 push	 eax
  035cb	e8 00 00 00 00	 call	 ?bound_position_to_adjusted_map_volume@@YGHPAUVEC3D@@@Z ; bound_position_to_adjusted_map_volume

; 2528 : 
; 2529 : 			get_3d_terrain_point_data (world_position.x, world_position.z, &terrain_info);

  035d0	8d 85 40 fe ff
	ff		 lea	 eax, DWORD PTR _terrain_info$29[ebp]
  035d6	50		 push	 eax
  035d7	51		 push	 ecx
  035d8	f3 0f 10 85 3c
	fe ff ff	 movss	 xmm0, DWORD PTR _world_position$28[ebp+8]
  035e0	f3 0f 11 04 24	 movss	 DWORD PTR [esp], xmm0
  035e5	51		 push	 ecx
  035e6	f3 0f 10 85 34
	fe ff ff	 movss	 xmm0, DWORD PTR _world_position$28[ebp]
  035ee	f3 0f 11 04 24	 movss	 DWORD PTR [esp], xmm0
  035f3	e8 00 00 00 00	 call	 ?get_3d_terrain_point_data@@YGMMMPAUTERRAIN_3D_POINT_DATA@@@Z ; get_3d_terrain_point_data
  035f8	dd d8		 fstp	 ST(0)

; 2530 : 
; 2531 : 			altitude = world_position.y - get_3d_terrain_point_data_elevation (&terrain_info);

  035fa	8d 85 40 fe ff
	ff		 lea	 eax, DWORD PTR _terrain_info$29[ebp]
  03600	50		 push	 eax
  03601	e8 00 00 00 00	 call	 ?get_3d_terrain_point_data_elevation@@YGMPAUTERRAIN_3D_POINT_DATA@@@Z ; get_3d_terrain_point_data_elevation
  03606	d9 9d 1c fd ff
	ff		 fstp	 DWORD PTR tv3453[ebp]
  0360c	f3 0f 10 85 38
	fe ff ff	 movss	 xmm0, DWORD PTR _world_position$28[ebp+4]
  03614	f3 0f 5c 85 1c
	fd ff ff	 subss	 xmm0, DWORD PTR tv3453[ebp]
  0361c	f3 0f 11 85 6c
	fe ff ff	 movss	 DWORD PTR _altitude$30[ebp], xmm0

; 2532 : 
; 2533 : 			altitude = max (altitude, 0.0f);

  03624	0f 57 c0	 xorps	 xmm0, xmm0
  03627	f3 0f 11 85 30
	fd ff ff	 movss	 DWORD PTR $T5[ebp], xmm0
  0362f	8d 85 30 fd ff
	ff		 lea	 eax, DWORD PTR $T5[ebp]
  03635	50		 push	 eax
  03636	8d 8d 6c fe ff
	ff		 lea	 ecx, DWORD PTR _altitude$30[ebp]
  0363c	51		 push	 ecx
  0363d	e8 00 00 00 00	 call	 ??$max@M@std@@YGABMABM0@Z ; std::max<float>
  03642	f3 0f 10 00	 movss	 xmm0, DWORD PTR [eax]
  03646	f3 0f 11 85 6c
	fe ff ff	 movss	 DWORD PTR _altitude$30[ebp], xmm0

; 2534 : 
; 2535 : 			back_g_e_force += ((0.05 - ((altitude * altitude) / (20.0 * current_flight_dynamics->main_rotor_diameter.value * current_flight_dynamics->main_rotor_diameter.value))) - back_g_e_force) * get_model_delta_time ();

  0364e	f3 0f 10 85 6c
	fe ff ff	 movss	 xmm0, DWORD PTR _altitude$30[ebp]
  03656	f3 0f 59 85 6c
	fe ff ff	 mulss	 xmm0, DWORD PTR _altitude$30[ebp]
  0365e	f3 0f 5a c0	 cvtss2sd xmm0, xmm0
  03662	a1 00 00 00 00	 mov	 eax, DWORD PTR ?current_flight_dynamics@@3PAUDYNAMICS_TYPE@@A ; current_flight_dynamics
  03667	f3 0f 5a 88 9c
	1d 00 00	 cvtss2sd xmm1, DWORD PTR [eax+7580]
  0366f	f2 0f 59 0d 00
	00 00 00	 mulsd	 xmm1, QWORD PTR __real@4034000000000000
  03677	8b 0d 00 00 00
	00		 mov	 ecx, DWORD PTR ?current_flight_dynamics@@3PAUDYNAMICS_TYPE@@A ; current_flight_dynamics
  0367d	f3 0f 5a 91 9c
	1d 00 00	 cvtss2sd xmm2, DWORD PTR [ecx+7580]
  03685	f2 0f 59 ca	 mulsd	 xmm1, xmm2
  03689	f2 0f 5e c1	 divsd	 xmm0, xmm1
  0368d	f2 0f 10 0d 00
	00 00 00	 movsd	 xmm1, QWORD PTR __real@3fa999999999999a
  03695	f2 0f 5c c8	 subsd	 xmm1, xmm0
  03699	f3 0f 5a 05 00
	00 00 00	 cvtss2sd xmm0, DWORD PTR ?back_g_e_force@@3MA
  036a1	f2 0f 5c c8	 subsd	 xmm1, xmm0
  036a5	8b 15 00 00 00
	00		 mov	 edx, DWORD PTR ?current_flight_dynamics@@3PAUDYNAMICS_TYPE@@A ; current_flight_dynamics
  036ab	f3 0f 5a 82 90
	00 00 00	 cvtss2sd xmm0, DWORD PTR [edx+144]
  036b3	f2 0f 59 c8	 mulsd	 xmm1, xmm0
  036b7	f3 0f 5a 05 00
	00 00 00	 cvtss2sd xmm0, DWORD PTR ?back_g_e_force@@3MA
  036bf	f2 0f 58 c1	 addsd	 xmm0, xmm1
  036c3	f2 0f 5a c0	 cvtsd2ss xmm0, xmm0
  036c7	f3 0f 11 05 00
	00 00 00	 movss	 DWORD PTR ?back_g_e_force@@3MA, xmm0

; 2536 : 
; 2537 : 			back_g_e_force = bound (back_g_e_force, 0.0, 0.05);

  036cf	f3 0f 5a 05 00
	00 00 00	 cvtss2sd xmm0, DWORD PTR ?back_g_e_force@@3MA
  036d7	0f 57 c9	 xorps	 xmm1, xmm1
  036da	66 0f 2f c8	 comisd	 xmm1, xmm0
  036de	76 0d		 jbe	 SHORT $LN148@update_att
  036e0	0f 57 c0	 xorps	 xmm0, xmm0
  036e3	f2 0f 11 85 18
	fd ff ff	 movsd	 QWORD PTR tv1697[ebp], xmm0
  036eb	eb 44		 jmp	 SHORT $LN149@update_att
$LN148@update_att:
  036ed	f3 0f 5a 05 00
	00 00 00	 cvtss2sd xmm0, DWORD PTR ?back_g_e_force@@3MA
  036f5	66 0f 2f 05 00
	00 00 00	 comisd	 xmm0, QWORD PTR __real@3fa999999999999a
  036fd	76 12		 jbe	 SHORT $LN146@update_att
  036ff	f2 0f 10 05 00
	00 00 00	 movsd	 xmm0, QWORD PTR __real@3fa999999999999a
  03707	f2 0f 11 85 10
	fd ff ff	 movsd	 QWORD PTR tv1696[ebp], xmm0
  0370f	eb 10		 jmp	 SHORT $LN147@update_att
$LN146@update_att:
  03711	f3 0f 5a 05 00
	00 00 00	 cvtss2sd xmm0, DWORD PTR ?back_g_e_force@@3MA
  03719	f2 0f 11 85 10
	fd ff ff	 movsd	 QWORD PTR tv1696[ebp], xmm0
$LN147@update_att:
  03721	f2 0f 10 85 10
	fd ff ff	 movsd	 xmm0, QWORD PTR tv1696[ebp]
  03729	f2 0f 11 85 18
	fd ff ff	 movsd	 QWORD PTR tv1697[ebp], xmm0
$LN149@update_att:
  03731	f2 0f 5a 85 18
	fd ff ff	 cvtsd2ss xmm0, QWORD PTR tv1697[ebp]
  03739	f3 0f 11 05 00
	00 00 00	 movss	 DWORD PTR ?back_g_e_force@@3MA, xmm0

; 2538 : 
; 2539 : 			if (back_g_e_force > 0.0)

  03741	f3 0f 5a 05 00
	00 00 00	 cvtss2sd xmm0, DWORD PTR ?back_g_e_force@@3MA
  03749	66 0f 2f 05 00
	00 00 00	 comisd	 xmm0, QWORD PTR __real@0000000000000000
  03751	0f 86 d2 00 00
	00		 jbe	 $LN74@update_att

; 2540 : 			{
; 2541 : 
; 2542 : 				back_g_e_force *= tuning_value * main_rotor_induced_air_value;

  03757	f3 0f 10 85 28
	fe ff ff	 movss	 xmm0, DWORD PTR _tuning_value$25[ebp]
  0375f	f3 0f 59 45 9c	 mulss	 xmm0, DWORD PTR _main_rotor_induced_air_value$[ebp]
  03764	f3 0f 59 05 00
	00 00 00	 mulss	 xmm0, DWORD PTR ?back_g_e_force@@3MA
  0376c	f3 0f 11 05 00
	00 00 00	 movss	 DWORD PTR ?back_g_e_force@@3MA, xmm0

; 2543 : 
; 2544 : 				if (current_flight_dynamics->velocity_z.max != 0.0)

  03774	a1 00 00 00 00	 mov	 eax, DWORD PTR ?current_flight_dynamics@@3PAUDYNAMICS_TYPE@@A ; current_flight_dynamics
  03779	f3 0f 5a 80 a8
	20 00 00	 cvtss2sd xmm0, DWORD PTR [eax+8360]
  03781	66 0f 2e 05 00
	00 00 00	 ucomisd xmm0, QWORD PTR __real@0000000000000000
  03789	9f		 lahf
  0378a	f6 c4 44	 test	 ah, 68			; 00000044H
  0378d	7b 4c		 jnp	 SHORT $LN75@update_att

; 2545 : 				{
; 2546 : 
; 2547 : 					back_g_e_force *= (current_flight_dynamics->velocity_z.max - fabs (velocity_z_value)) / current_flight_dynamics->velocity_z.max;

  0378f	51		 push	 ecx
  03790	f3 0f 10 85 70
	ff ff ff	 movss	 xmm0, DWORD PTR _velocity_z_value$[ebp]
  03798	f3 0f 11 04 24	 movss	 DWORD PTR [esp], xmm0
  0379d	e8 00 00 00 00	 call	 ?fabs@@YGMM@Z		; fabs
  037a2	d9 9d 1c fd ff
	ff		 fstp	 DWORD PTR tv3480[ebp]
  037a8	a1 00 00 00 00	 mov	 eax, DWORD PTR ?current_flight_dynamics@@3PAUDYNAMICS_TYPE@@A ; current_flight_dynamics
  037ad	f3 0f 10 80 a8
	20 00 00	 movss	 xmm0, DWORD PTR [eax+8360]
  037b5	f3 0f 5c 85 1c
	fd ff ff	 subss	 xmm0, DWORD PTR tv3480[ebp]
  037bd	8b 0d 00 00 00
	00		 mov	 ecx, DWORD PTR ?current_flight_dynamics@@3PAUDYNAMICS_TYPE@@A ; current_flight_dynamics
  037c3	f3 0f 5e 81 a8
	20 00 00	 divss	 xmm0, DWORD PTR [ecx+8360]
  037cb	f3 0f 59 05 00
	00 00 00	 mulss	 xmm0, DWORD PTR ?back_g_e_force@@3MA
  037d3	f3 0f 11 05 00
	00 00 00	 movss	 DWORD PTR ?back_g_e_force@@3MA, xmm0
$LN75@update_att:

; 2548 : 				}
; 2549 : 
; 2550 : 				#if DEBUG_MODULE
; 2551 : 
; 2552 : 				debug_log ("DYNAMICS: IGE back force %f, alt %f, y %f, el %f, x %f, z %f",
; 2553 : 								back_g_e_force, altitude, current_flight_dynamics->position.y,
; 2554 : 								get_3d_terrain_point_data_elevation (&terrain_info), world_position.x, world_position.z);
; 2555 : 
; 2556 : 				create_vectored_debug_3d_object (&world_position, &direction, OBJECT_3D_ARROW_FORCES, 0, 20.0 * back_g_e_force);
; 2557 : 
; 2558 : 				#endif
; 2559 : 
; 2560 : 				back_g_e_force *= current_flight_dynamics->ground_effect.modifier;

  037db	a1 00 00 00 00	 mov	 eax, DWORD PTR ?current_flight_dynamics@@3PAUDYNAMICS_TYPE@@A ; current_flight_dynamics
  037e0	f3 0f 10 05 00
	00 00 00	 movss	 xmm0, DWORD PTR ?back_g_e_force@@3MA
  037e8	f3 0f 59 80 e0
	23 00 00	 mulss	 xmm0, DWORD PTR [eax+9184]
  037f0	f3 0f 11 05 00
	00 00 00	 movss	 DWORD PTR ?back_g_e_force@@3MA, xmm0

; 2561 : 
; 2562 : 				add_dynamic_force ("Back rotor Ground effect", back_g_e_force, 0.0, &position, &direction, FALSE);

  037f8	6a 00		 push	 0
  037fa	8d 85 38 ff ff
	ff		 lea	 eax, DWORD PTR _direction$[ebp]
  03800	50		 push	 eax
  03801	8d 8d 44 ff ff
	ff		 lea	 ecx, DWORD PTR _position$[ebp]
  03807	51		 push	 ecx
  03808	51		 push	 ecx
  03809	0f 57 c0	 xorps	 xmm0, xmm0
  0380c	f3 0f 11 04 24	 movss	 DWORD PTR [esp], xmm0
  03811	51		 push	 ecx
  03812	f3 0f 10 05 00
	00 00 00	 movss	 xmm0, DWORD PTR ?back_g_e_force@@3MA
  0381a	f3 0f 11 04 24	 movss	 DWORD PTR [esp], xmm0
  0381f	68 00 00 00 00	 push	 OFFSET ??_C@_0BJ@MKNEGMFL@Back?5rotor?5Ground?5effect@
  03824	e8 00 00 00 00	 call	 ?add_dynamic_force@@YGXPBDMMPAUVEC3D@@1H@Z ; add_dynamic_force
$LN74@update_att:

; 2563 : 			}
; 2564 : 		}
; 2565 : 		////////////////////////////////////////////
; 2566 : 		// In Ground Effect on left side of rotor disc
; 2567 : 		////////////////////////////////////////////
; 2568 : 		{
; 2569 : 
; 2570 : 			float
; 2571 : 				tuning_value = 0.1;

  03829	f3 0f 10 05 00
	00 00 00	 movss	 xmm0, DWORD PTR __real@3dcccccd
  03831	f3 0f 11 85 24
	fe ff ff	 movss	 DWORD PTR _tuning_value$24[ebp], xmm0

; 2572 : 
; 2573 : 			position.x = 7.299;

  03839	f3 0f 10 05 00
	00 00 00	 movss	 xmm0, DWORD PTR __real@40e99168
  03841	f3 0f 11 85 44
	ff ff ff	 movss	 DWORD PTR _position$[ebp], xmm0

; 2574 : 			position.y = 0.0;

  03849	0f 57 c0	 xorps	 xmm0, xmm0
  0384c	f3 0f 11 85 48
	ff ff ff	 movss	 DWORD PTR _position$[ebp+4], xmm0

; 2575 : 			position.z = 0.0;

  03854	0f 57 c0	 xorps	 xmm0, xmm0
  03857	f3 0f 11 85 4c
	ff ff ff	 movss	 DWORD PTR _position$[ebp+8], xmm0

; 2576 : 
; 2577 : 			direction.x = 0.0;

  0385f	0f 57 c0	 xorps	 xmm0, xmm0
  03862	f3 0f 11 85 38
	ff ff ff	 movss	 DWORD PTR _direction$[ebp], xmm0

; 2578 : 			direction.y = 1.0;

  0386a	f3 0f 10 05 00
	00 00 00	 movss	 xmm0, DWORD PTR __real@3f800000
  03872	f3 0f 11 85 3c
	ff ff ff	 movss	 DWORD PTR _direction$[ebp+4], xmm0

; 2579 : 			direction.z = 0.0;

  0387a	0f 57 c0	 xorps	 xmm0, xmm0
  0387d	f3 0f 11 85 40
	ff ff ff	 movss	 DWORD PTR _direction$[ebp+8], xmm0

; 2580 : 
; 2581 : 			multiply_matrix3x3_vec3d (&world_position, current_flight_dynamics->attitude, &position);

  03885	8d 85 44 ff ff
	ff		 lea	 eax, DWORD PTR _position$[ebp]
  0388b	50		 push	 eax
  0388c	8b 0d 00 00 00
	00		 mov	 ecx, DWORD PTR ?current_flight_dynamics@@3PAUDYNAMICS_TYPE@@A ; current_flight_dynamics
  03892	81 c1 d0 00 00
	00		 add	 ecx, 208		; 000000d0H
  03898	51		 push	 ecx
  03899	8d 95 34 fe ff
	ff		 lea	 edx, DWORD PTR _world_position$28[ebp]
  0389f	52		 push	 edx
  038a0	e8 00 00 00 00	 call	 ?multiply_matrix3x3_vec3d@@YGXPAUVEC3D@@QAY02$$CBMPBU1@@Z ; multiply_matrix3x3_vec3d

; 2582 : 
; 2583 : 			world_position.x += current_flight_dynamics->position.x;

  038a5	f3 0f 5a 85 34
	fe ff ff	 cvtss2sd xmm0, DWORD PTR _world_position$28[ebp]
  038ad	a1 00 00 00 00	 mov	 eax, DWORD PTR ?current_flight_dynamics@@3PAUDYNAMICS_TYPE@@A ; current_flight_dynamics
  038b2	f2 0f 58 80 ac
	00 00 00	 addsd	 xmm0, QWORD PTR [eax+172]
  038ba	f2 0f 5a c0	 cvtsd2ss xmm0, xmm0
  038be	f3 0f 11 85 34
	fe ff ff	 movss	 DWORD PTR _world_position$28[ebp], xmm0

; 2584 : 			world_position.y += current_flight_dynamics->position.y;

  038c6	f3 0f 5a 85 38
	fe ff ff	 cvtss2sd xmm0, DWORD PTR _world_position$28[ebp+4]
  038ce	a1 00 00 00 00	 mov	 eax, DWORD PTR ?current_flight_dynamics@@3PAUDYNAMICS_TYPE@@A ; current_flight_dynamics
  038d3	f2 0f 58 80 b4
	00 00 00	 addsd	 xmm0, QWORD PTR [eax+180]
  038db	f2 0f 5a c0	 cvtsd2ss xmm0, xmm0
  038df	f3 0f 11 85 38
	fe ff ff	 movss	 DWORD PTR _world_position$28[ebp+4], xmm0

; 2585 : 			world_position.z += current_flight_dynamics->position.z;

  038e7	f3 0f 5a 85 3c
	fe ff ff	 cvtss2sd xmm0, DWORD PTR _world_position$28[ebp+8]
  038ef	a1 00 00 00 00	 mov	 eax, DWORD PTR ?current_flight_dynamics@@3PAUDYNAMICS_TYPE@@A ; current_flight_dynamics
  038f4	f2 0f 58 80 bc
	00 00 00	 addsd	 xmm0, QWORD PTR [eax+188]
  038fc	f2 0f 5a c0	 cvtsd2ss xmm0, xmm0
  03900	f3 0f 11 85 3c
	fe ff ff	 movss	 DWORD PTR _world_position$28[ebp+8], xmm0

; 2586 : 
; 2587 : 			bound_position_to_adjusted_map_volume (&world_position);

  03908	8d 85 34 fe ff
	ff		 lea	 eax, DWORD PTR _world_position$28[ebp]
  0390e	50		 push	 eax
  0390f	e8 00 00 00 00	 call	 ?bound_position_to_adjusted_map_volume@@YGHPAUVEC3D@@@Z ; bound_position_to_adjusted_map_volume

; 2588 : 
; 2589 : 			get_3d_terrain_point_data (world_position.x, world_position.z, &terrain_info);

  03914	8d 85 40 fe ff
	ff		 lea	 eax, DWORD PTR _terrain_info$29[ebp]
  0391a	50		 push	 eax
  0391b	51		 push	 ecx
  0391c	f3 0f 10 85 3c
	fe ff ff	 movss	 xmm0, DWORD PTR _world_position$28[ebp+8]
  03924	f3 0f 11 04 24	 movss	 DWORD PTR [esp], xmm0
  03929	51		 push	 ecx
  0392a	f3 0f 10 85 34
	fe ff ff	 movss	 xmm0, DWORD PTR _world_position$28[ebp]
  03932	f3 0f 11 04 24	 movss	 DWORD PTR [esp], xmm0
  03937	e8 00 00 00 00	 call	 ?get_3d_terrain_point_data@@YGMMMPAUTERRAIN_3D_POINT_DATA@@@Z ; get_3d_terrain_point_data
  0393c	dd d8		 fstp	 ST(0)

; 2590 : 
; 2591 : 			altitude = world_position.y - get_3d_terrain_point_data_elevation (&terrain_info);

  0393e	8d 85 40 fe ff
	ff		 lea	 eax, DWORD PTR _terrain_info$29[ebp]
  03944	50		 push	 eax
  03945	e8 00 00 00 00	 call	 ?get_3d_terrain_point_data_elevation@@YGMPAUTERRAIN_3D_POINT_DATA@@@Z ; get_3d_terrain_point_data_elevation
  0394a	d9 9d 1c fd ff
	ff		 fstp	 DWORD PTR tv3516[ebp]
  03950	f3 0f 10 85 38
	fe ff ff	 movss	 xmm0, DWORD PTR _world_position$28[ebp+4]
  03958	f3 0f 5c 85 1c
	fd ff ff	 subss	 xmm0, DWORD PTR tv3516[ebp]
  03960	f3 0f 11 85 6c
	fe ff ff	 movss	 DWORD PTR _altitude$30[ebp], xmm0

; 2592 : 
; 2593 : 			altitude = max (altitude, 0.0f);

  03968	0f 57 c0	 xorps	 xmm0, xmm0
  0396b	f3 0f 11 85 2c
	fd ff ff	 movss	 DWORD PTR $T4[ebp], xmm0
  03973	8d 85 2c fd ff
	ff		 lea	 eax, DWORD PTR $T4[ebp]
  03979	50		 push	 eax
  0397a	8d 8d 6c fe ff
	ff		 lea	 ecx, DWORD PTR _altitude$30[ebp]
  03980	51		 push	 ecx
  03981	e8 00 00 00 00	 call	 ??$max@M@std@@YGABMABM0@Z ; std::max<float>
  03986	f3 0f 10 00	 movss	 xmm0, DWORD PTR [eax]
  0398a	f3 0f 11 85 6c
	fe ff ff	 movss	 DWORD PTR _altitude$30[ebp], xmm0

; 2594 : 
; 2595 : 			left_g_e_force += ((0.05 - ((altitude * altitude) / (20.0 * current_flight_dynamics->main_rotor_diameter.value * current_flight_dynamics->main_rotor_diameter.value))) - left_g_e_force) * get_model_delta_time ();

  03992	f3 0f 10 85 6c
	fe ff ff	 movss	 xmm0, DWORD PTR _altitude$30[ebp]
  0399a	f3 0f 59 85 6c
	fe ff ff	 mulss	 xmm0, DWORD PTR _altitude$30[ebp]
  039a2	f3 0f 5a c0	 cvtss2sd xmm0, xmm0
  039a6	a1 00 00 00 00	 mov	 eax, DWORD PTR ?current_flight_dynamics@@3PAUDYNAMICS_TYPE@@A ; current_flight_dynamics
  039ab	f3 0f 5a 88 9c
	1d 00 00	 cvtss2sd xmm1, DWORD PTR [eax+7580]
  039b3	f2 0f 59 0d 00
	00 00 00	 mulsd	 xmm1, QWORD PTR __real@4034000000000000
  039bb	8b 0d 00 00 00
	00		 mov	 ecx, DWORD PTR ?current_flight_dynamics@@3PAUDYNAMICS_TYPE@@A ; current_flight_dynamics
  039c1	f3 0f 5a 91 9c
	1d 00 00	 cvtss2sd xmm2, DWORD PTR [ecx+7580]
  039c9	f2 0f 59 ca	 mulsd	 xmm1, xmm2
  039cd	f2 0f 5e c1	 divsd	 xmm0, xmm1
  039d1	f2 0f 10 0d 00
	00 00 00	 movsd	 xmm1, QWORD PTR __real@3fa999999999999a
  039d9	f2 0f 5c c8	 subsd	 xmm1, xmm0
  039dd	f3 0f 5a 05 00
	00 00 00	 cvtss2sd xmm0, DWORD PTR ?left_g_e_force@@3MA
  039e5	f2 0f 5c c8	 subsd	 xmm1, xmm0
  039e9	8b 15 00 00 00
	00		 mov	 edx, DWORD PTR ?current_flight_dynamics@@3PAUDYNAMICS_TYPE@@A ; current_flight_dynamics
  039ef	f3 0f 5a 82 90
	00 00 00	 cvtss2sd xmm0, DWORD PTR [edx+144]
  039f7	f2 0f 59 c8	 mulsd	 xmm1, xmm0
  039fb	f3 0f 5a 05 00
	00 00 00	 cvtss2sd xmm0, DWORD PTR ?left_g_e_force@@3MA
  03a03	f2 0f 58 c1	 addsd	 xmm0, xmm1
  03a07	f2 0f 5a c0	 cvtsd2ss xmm0, xmm0
  03a0b	f3 0f 11 05 00
	00 00 00	 movss	 DWORD PTR ?left_g_e_force@@3MA, xmm0

; 2596 : 
; 2597 : 			left_g_e_force = bound (left_g_e_force, 0.0, 0.05);

  03a13	f3 0f 5a 05 00
	00 00 00	 cvtss2sd xmm0, DWORD PTR ?left_g_e_force@@3MA
  03a1b	0f 57 c9	 xorps	 xmm1, xmm1
  03a1e	66 0f 2f c8	 comisd	 xmm1, xmm0
  03a22	76 0d		 jbe	 SHORT $LN152@update_att
  03a24	0f 57 c0	 xorps	 xmm0, xmm0
  03a27	f2 0f 11 85 18
	fd ff ff	 movsd	 QWORD PTR tv1780[ebp], xmm0
  03a2f	eb 44		 jmp	 SHORT $LN153@update_att
$LN152@update_att:
  03a31	f3 0f 5a 05 00
	00 00 00	 cvtss2sd xmm0, DWORD PTR ?left_g_e_force@@3MA
  03a39	66 0f 2f 05 00
	00 00 00	 comisd	 xmm0, QWORD PTR __real@3fa999999999999a
  03a41	76 12		 jbe	 SHORT $LN150@update_att
  03a43	f2 0f 10 05 00
	00 00 00	 movsd	 xmm0, QWORD PTR __real@3fa999999999999a
  03a4b	f2 0f 11 85 10
	fd ff ff	 movsd	 QWORD PTR tv1779[ebp], xmm0
  03a53	eb 10		 jmp	 SHORT $LN151@update_att
$LN150@update_att:
  03a55	f3 0f 5a 05 00
	00 00 00	 cvtss2sd xmm0, DWORD PTR ?left_g_e_force@@3MA
  03a5d	f2 0f 11 85 10
	fd ff ff	 movsd	 QWORD PTR tv1779[ebp], xmm0
$LN151@update_att:
  03a65	f2 0f 10 85 10
	fd ff ff	 movsd	 xmm0, QWORD PTR tv1779[ebp]
  03a6d	f2 0f 11 85 18
	fd ff ff	 movsd	 QWORD PTR tv1780[ebp], xmm0
$LN153@update_att:
  03a75	f2 0f 5a 85 18
	fd ff ff	 cvtsd2ss xmm0, QWORD PTR tv1780[ebp]
  03a7d	f3 0f 11 05 00
	00 00 00	 movss	 DWORD PTR ?left_g_e_force@@3MA, xmm0

; 2598 : 
; 2599 : 			if (left_g_e_force > 0.0)

  03a85	f3 0f 5a 05 00
	00 00 00	 cvtss2sd xmm0, DWORD PTR ?left_g_e_force@@3MA
  03a8d	66 0f 2f 05 00
	00 00 00	 comisd	 xmm0, QWORD PTR __real@0000000000000000
  03a95	0f 86 d2 00 00
	00		 jbe	 $LN76@update_att

; 2600 : 			{
; 2601 : 
; 2602 : 				left_g_e_force *= tuning_value * main_rotor_induced_air_value;

  03a9b	f3 0f 10 85 24
	fe ff ff	 movss	 xmm0, DWORD PTR _tuning_value$24[ebp]
  03aa3	f3 0f 59 45 9c	 mulss	 xmm0, DWORD PTR _main_rotor_induced_air_value$[ebp]
  03aa8	f3 0f 59 05 00
	00 00 00	 mulss	 xmm0, DWORD PTR ?left_g_e_force@@3MA
  03ab0	f3 0f 11 05 00
	00 00 00	 movss	 DWORD PTR ?left_g_e_force@@3MA, xmm0

; 2603 : 
; 2604 : 				if (current_flight_dynamics->velocity_z.max != 0.0)

  03ab8	a1 00 00 00 00	 mov	 eax, DWORD PTR ?current_flight_dynamics@@3PAUDYNAMICS_TYPE@@A ; current_flight_dynamics
  03abd	f3 0f 5a 80 a8
	20 00 00	 cvtss2sd xmm0, DWORD PTR [eax+8360]
  03ac5	66 0f 2e 05 00
	00 00 00	 ucomisd xmm0, QWORD PTR __real@0000000000000000
  03acd	9f		 lahf
  03ace	f6 c4 44	 test	 ah, 68			; 00000044H
  03ad1	7b 4c		 jnp	 SHORT $LN77@update_att

; 2605 : 				{
; 2606 : 
; 2607 : 					left_g_e_force *= (current_flight_dynamics->velocity_z.max - fabs (velocity_z_value)) / current_flight_dynamics->velocity_z.max;

  03ad3	51		 push	 ecx
  03ad4	f3 0f 10 85 70
	ff ff ff	 movss	 xmm0, DWORD PTR _velocity_z_value$[ebp]
  03adc	f3 0f 11 04 24	 movss	 DWORD PTR [esp], xmm0
  03ae1	e8 00 00 00 00	 call	 ?fabs@@YGMM@Z		; fabs
  03ae6	d9 9d 1c fd ff
	ff		 fstp	 DWORD PTR tv3543[ebp]
  03aec	a1 00 00 00 00	 mov	 eax, DWORD PTR ?current_flight_dynamics@@3PAUDYNAMICS_TYPE@@A ; current_flight_dynamics
  03af1	f3 0f 10 80 a8
	20 00 00	 movss	 xmm0, DWORD PTR [eax+8360]
  03af9	f3 0f 5c 85 1c
	fd ff ff	 subss	 xmm0, DWORD PTR tv3543[ebp]
  03b01	8b 0d 00 00 00
	00		 mov	 ecx, DWORD PTR ?current_flight_dynamics@@3PAUDYNAMICS_TYPE@@A ; current_flight_dynamics
  03b07	f3 0f 5e 81 a8
	20 00 00	 divss	 xmm0, DWORD PTR [ecx+8360]
  03b0f	f3 0f 59 05 00
	00 00 00	 mulss	 xmm0, DWORD PTR ?left_g_e_force@@3MA
  03b17	f3 0f 11 05 00
	00 00 00	 movss	 DWORD PTR ?left_g_e_force@@3MA, xmm0
$LN77@update_att:

; 2608 : 				}
; 2609 : 
; 2610 : 				#if DEBUG_MODULE
; 2611 : 
; 2612 : 				debug_log ("DYNAMICS: IGE left force %f, alt %f, y %f, el %f, x %f, z %f",
; 2613 : 								left_g_e_force, altitude, current_flight_dynamics->position.y,
; 2614 : 								get_3d_terrain_point_data_elevation (&terrain_info), world_position.x, world_position.z);
; 2615 : 
; 2616 : 				create_vectored_debug_3d_object (&world_position, &direction, OBJECT_3D_ARROW_FORCES, 0, 20.0 * left_g_e_force);
; 2617 : 
; 2618 : 				#endif
; 2619 : 
; 2620 : 				left_g_e_force *= current_flight_dynamics->ground_effect.modifier;

  03b1f	a1 00 00 00 00	 mov	 eax, DWORD PTR ?current_flight_dynamics@@3PAUDYNAMICS_TYPE@@A ; current_flight_dynamics
  03b24	f3 0f 10 05 00
	00 00 00	 movss	 xmm0, DWORD PTR ?left_g_e_force@@3MA
  03b2c	f3 0f 59 80 e0
	23 00 00	 mulss	 xmm0, DWORD PTR [eax+9184]
  03b34	f3 0f 11 05 00
	00 00 00	 movss	 DWORD PTR ?left_g_e_force@@3MA, xmm0

; 2621 : 
; 2622 : 				add_dynamic_force ("Left rotor Ground effect", left_g_e_force, 0.0, &position, &direction, FALSE);

  03b3c	6a 00		 push	 0
  03b3e	8d 85 38 ff ff
	ff		 lea	 eax, DWORD PTR _direction$[ebp]
  03b44	50		 push	 eax
  03b45	8d 8d 44 ff ff
	ff		 lea	 ecx, DWORD PTR _position$[ebp]
  03b4b	51		 push	 ecx
  03b4c	51		 push	 ecx
  03b4d	0f 57 c0	 xorps	 xmm0, xmm0
  03b50	f3 0f 11 04 24	 movss	 DWORD PTR [esp], xmm0
  03b55	51		 push	 ecx
  03b56	f3 0f 10 05 00
	00 00 00	 movss	 xmm0, DWORD PTR ?left_g_e_force@@3MA
  03b5e	f3 0f 11 04 24	 movss	 DWORD PTR [esp], xmm0
  03b63	68 00 00 00 00	 push	 OFFSET ??_C@_0BJ@KEABEFD@Left?5rotor?5Ground?5effect@
  03b68	e8 00 00 00 00	 call	 ?add_dynamic_force@@YGXPBDMMPAUVEC3D@@1H@Z ; add_dynamic_force
$LN76@update_att:

; 2623 : 			}
; 2624 : 		}
; 2625 : 		////////////////////////////////////////////
; 2626 : 		// In Ground Effect on right side of rotor disc
; 2627 : 		////////////////////////////////////////////
; 2628 : 		{
; 2629 : 
; 2630 : 			float
; 2631 : 				tuning_value = 0.1;

  03b6d	f3 0f 10 05 00
	00 00 00	 movss	 xmm0, DWORD PTR __real@3dcccccd
  03b75	f3 0f 11 85 20
	fe ff ff	 movss	 DWORD PTR _tuning_value$23[ebp], xmm0

; 2632 : 
; 2633 : 			position.x = -7.299;

  03b7d	f3 0f 10 05 00
	00 00 00	 movss	 xmm0, DWORD PTR __real@c0e99168
  03b85	f3 0f 11 85 44
	ff ff ff	 movss	 DWORD PTR _position$[ebp], xmm0

; 2634 : 			position.y = 0.0;

  03b8d	0f 57 c0	 xorps	 xmm0, xmm0
  03b90	f3 0f 11 85 48
	ff ff ff	 movss	 DWORD PTR _position$[ebp+4], xmm0

; 2635 : 			position.z = 0.0;

  03b98	0f 57 c0	 xorps	 xmm0, xmm0
  03b9b	f3 0f 11 85 4c
	ff ff ff	 movss	 DWORD PTR _position$[ebp+8], xmm0

; 2636 : 
; 2637 : 			direction.x = 0.0;

  03ba3	0f 57 c0	 xorps	 xmm0, xmm0
  03ba6	f3 0f 11 85 38
	ff ff ff	 movss	 DWORD PTR _direction$[ebp], xmm0

; 2638 : 			direction.y = 1.0;

  03bae	f3 0f 10 05 00
	00 00 00	 movss	 xmm0, DWORD PTR __real@3f800000
  03bb6	f3 0f 11 85 3c
	ff ff ff	 movss	 DWORD PTR _direction$[ebp+4], xmm0

; 2639 : 			direction.z = 0.0;

  03bbe	0f 57 c0	 xorps	 xmm0, xmm0
  03bc1	f3 0f 11 85 40
	ff ff ff	 movss	 DWORD PTR _direction$[ebp+8], xmm0

; 2640 : 
; 2641 : 			multiply_matrix3x3_vec3d (&world_position, current_flight_dynamics->attitude, &position);

  03bc9	8d 85 44 ff ff
	ff		 lea	 eax, DWORD PTR _position$[ebp]
  03bcf	50		 push	 eax
  03bd0	8b 0d 00 00 00
	00		 mov	 ecx, DWORD PTR ?current_flight_dynamics@@3PAUDYNAMICS_TYPE@@A ; current_flight_dynamics
  03bd6	81 c1 d0 00 00
	00		 add	 ecx, 208		; 000000d0H
  03bdc	51		 push	 ecx
  03bdd	8d 95 34 fe ff
	ff		 lea	 edx, DWORD PTR _world_position$28[ebp]
  03be3	52		 push	 edx
  03be4	e8 00 00 00 00	 call	 ?multiply_matrix3x3_vec3d@@YGXPAUVEC3D@@QAY02$$CBMPBU1@@Z ; multiply_matrix3x3_vec3d

; 2642 : 
; 2643 : 			world_position.x += current_flight_dynamics->position.x;

  03be9	f3 0f 5a 85 34
	fe ff ff	 cvtss2sd xmm0, DWORD PTR _world_position$28[ebp]
  03bf1	a1 00 00 00 00	 mov	 eax, DWORD PTR ?current_flight_dynamics@@3PAUDYNAMICS_TYPE@@A ; current_flight_dynamics
  03bf6	f2 0f 58 80 ac
	00 00 00	 addsd	 xmm0, QWORD PTR [eax+172]
  03bfe	f2 0f 5a c0	 cvtsd2ss xmm0, xmm0
  03c02	f3 0f 11 85 34
	fe ff ff	 movss	 DWORD PTR _world_position$28[ebp], xmm0

; 2644 : 			world_position.y += current_flight_dynamics->position.y;

  03c0a	f3 0f 5a 85 38
	fe ff ff	 cvtss2sd xmm0, DWORD PTR _world_position$28[ebp+4]
  03c12	a1 00 00 00 00	 mov	 eax, DWORD PTR ?current_flight_dynamics@@3PAUDYNAMICS_TYPE@@A ; current_flight_dynamics
  03c17	f2 0f 58 80 b4
	00 00 00	 addsd	 xmm0, QWORD PTR [eax+180]
  03c1f	f2 0f 5a c0	 cvtsd2ss xmm0, xmm0
  03c23	f3 0f 11 85 38
	fe ff ff	 movss	 DWORD PTR _world_position$28[ebp+4], xmm0

; 2645 : 			world_position.z += current_flight_dynamics->position.z;

  03c2b	f3 0f 5a 85 3c
	fe ff ff	 cvtss2sd xmm0, DWORD PTR _world_position$28[ebp+8]
  03c33	a1 00 00 00 00	 mov	 eax, DWORD PTR ?current_flight_dynamics@@3PAUDYNAMICS_TYPE@@A ; current_flight_dynamics
  03c38	f2 0f 58 80 bc
	00 00 00	 addsd	 xmm0, QWORD PTR [eax+188]
  03c40	f2 0f 5a c0	 cvtsd2ss xmm0, xmm0
  03c44	f3 0f 11 85 3c
	fe ff ff	 movss	 DWORD PTR _world_position$28[ebp+8], xmm0

; 2646 : 
; 2647 : 			bound_position_to_adjusted_map_volume (&world_position);

  03c4c	8d 85 34 fe ff
	ff		 lea	 eax, DWORD PTR _world_position$28[ebp]
  03c52	50		 push	 eax
  03c53	e8 00 00 00 00	 call	 ?bound_position_to_adjusted_map_volume@@YGHPAUVEC3D@@@Z ; bound_position_to_adjusted_map_volume

; 2648 : 
; 2649 : 			get_3d_terrain_point_data (world_position.x, world_position.z, &terrain_info);

  03c58	8d 85 40 fe ff
	ff		 lea	 eax, DWORD PTR _terrain_info$29[ebp]
  03c5e	50		 push	 eax
  03c5f	51		 push	 ecx
  03c60	f3 0f 10 85 3c
	fe ff ff	 movss	 xmm0, DWORD PTR _world_position$28[ebp+8]
  03c68	f3 0f 11 04 24	 movss	 DWORD PTR [esp], xmm0
  03c6d	51		 push	 ecx
  03c6e	f3 0f 10 85 34
	fe ff ff	 movss	 xmm0, DWORD PTR _world_position$28[ebp]
  03c76	f3 0f 11 04 24	 movss	 DWORD PTR [esp], xmm0
  03c7b	e8 00 00 00 00	 call	 ?get_3d_terrain_point_data@@YGMMMPAUTERRAIN_3D_POINT_DATA@@@Z ; get_3d_terrain_point_data
  03c80	dd d8		 fstp	 ST(0)

; 2650 : 
; 2651 : 			altitude = world_position.y - get_3d_terrain_point_data_elevation (&terrain_info);

  03c82	8d 85 40 fe ff
	ff		 lea	 eax, DWORD PTR _terrain_info$29[ebp]
  03c88	50		 push	 eax
  03c89	e8 00 00 00 00	 call	 ?get_3d_terrain_point_data_elevation@@YGMPAUTERRAIN_3D_POINT_DATA@@@Z ; get_3d_terrain_point_data_elevation
  03c8e	d9 9d 1c fd ff
	ff		 fstp	 DWORD PTR tv3579[ebp]
  03c94	f3 0f 10 85 38
	fe ff ff	 movss	 xmm0, DWORD PTR _world_position$28[ebp+4]
  03c9c	f3 0f 5c 85 1c
	fd ff ff	 subss	 xmm0, DWORD PTR tv3579[ebp]
  03ca4	f3 0f 11 85 6c
	fe ff ff	 movss	 DWORD PTR _altitude$30[ebp], xmm0

; 2652 : 
; 2653 : 			altitude = max (altitude, 0.0f);

  03cac	0f 57 c0	 xorps	 xmm0, xmm0
  03caf	f3 0f 11 85 28
	fd ff ff	 movss	 DWORD PTR $T3[ebp], xmm0
  03cb7	8d 85 28 fd ff
	ff		 lea	 eax, DWORD PTR $T3[ebp]
  03cbd	50		 push	 eax
  03cbe	8d 8d 6c fe ff
	ff		 lea	 ecx, DWORD PTR _altitude$30[ebp]
  03cc4	51		 push	 ecx
  03cc5	e8 00 00 00 00	 call	 ??$max@M@std@@YGABMABM0@Z ; std::max<float>
  03cca	f3 0f 10 00	 movss	 xmm0, DWORD PTR [eax]
  03cce	f3 0f 11 85 6c
	fe ff ff	 movss	 DWORD PTR _altitude$30[ebp], xmm0

; 2654 : 
; 2655 : 			right_g_e_force += ((0.05 - ((altitude * altitude) / (20.0 * current_flight_dynamics->main_rotor_diameter.value * current_flight_dynamics->main_rotor_diameter.value))) - right_g_e_force) * get_model_delta_time ();

  03cd6	f3 0f 10 85 6c
	fe ff ff	 movss	 xmm0, DWORD PTR _altitude$30[ebp]
  03cde	f3 0f 59 85 6c
	fe ff ff	 mulss	 xmm0, DWORD PTR _altitude$30[ebp]
  03ce6	f3 0f 5a c0	 cvtss2sd xmm0, xmm0
  03cea	a1 00 00 00 00	 mov	 eax, DWORD PTR ?current_flight_dynamics@@3PAUDYNAMICS_TYPE@@A ; current_flight_dynamics
  03cef	f3 0f 5a 88 9c
	1d 00 00	 cvtss2sd xmm1, DWORD PTR [eax+7580]
  03cf7	f2 0f 59 0d 00
	00 00 00	 mulsd	 xmm1, QWORD PTR __real@4034000000000000
  03cff	8b 0d 00 00 00
	00		 mov	 ecx, DWORD PTR ?current_flight_dynamics@@3PAUDYNAMICS_TYPE@@A ; current_flight_dynamics
  03d05	f3 0f 5a 91 9c
	1d 00 00	 cvtss2sd xmm2, DWORD PTR [ecx+7580]
  03d0d	f2 0f 59 ca	 mulsd	 xmm1, xmm2
  03d11	f2 0f 5e c1	 divsd	 xmm0, xmm1
  03d15	f2 0f 10 0d 00
	00 00 00	 movsd	 xmm1, QWORD PTR __real@3fa999999999999a
  03d1d	f2 0f 5c c8	 subsd	 xmm1, xmm0
  03d21	f3 0f 5a 05 00
	00 00 00	 cvtss2sd xmm0, DWORD PTR ?right_g_e_force@@3MA
  03d29	f2 0f 5c c8	 subsd	 xmm1, xmm0
  03d2d	8b 15 00 00 00
	00		 mov	 edx, DWORD PTR ?current_flight_dynamics@@3PAUDYNAMICS_TYPE@@A ; current_flight_dynamics
  03d33	f3 0f 5a 82 90
	00 00 00	 cvtss2sd xmm0, DWORD PTR [edx+144]
  03d3b	f2 0f 59 c8	 mulsd	 xmm1, xmm0
  03d3f	f3 0f 5a 05 00
	00 00 00	 cvtss2sd xmm0, DWORD PTR ?right_g_e_force@@3MA
  03d47	f2 0f 58 c1	 addsd	 xmm0, xmm1
  03d4b	f2 0f 5a c0	 cvtsd2ss xmm0, xmm0
  03d4f	f3 0f 11 05 00
	00 00 00	 movss	 DWORD PTR ?right_g_e_force@@3MA, xmm0

; 2656 : 
; 2657 : 			right_g_e_force = bound (right_g_e_force, 0.0, 0.05);

  03d57	f3 0f 5a 05 00
	00 00 00	 cvtss2sd xmm0, DWORD PTR ?right_g_e_force@@3MA
  03d5f	0f 57 c9	 xorps	 xmm1, xmm1
  03d62	66 0f 2f c8	 comisd	 xmm1, xmm0
  03d66	76 0d		 jbe	 SHORT $LN156@update_att
  03d68	0f 57 c0	 xorps	 xmm0, xmm0
  03d6b	f2 0f 11 85 18
	fd ff ff	 movsd	 QWORD PTR tv1863[ebp], xmm0
  03d73	eb 44		 jmp	 SHORT $LN157@update_att
$LN156@update_att:
  03d75	f3 0f 5a 05 00
	00 00 00	 cvtss2sd xmm0, DWORD PTR ?right_g_e_force@@3MA
  03d7d	66 0f 2f 05 00
	00 00 00	 comisd	 xmm0, QWORD PTR __real@3fa999999999999a
  03d85	76 12		 jbe	 SHORT $LN154@update_att
  03d87	f2 0f 10 05 00
	00 00 00	 movsd	 xmm0, QWORD PTR __real@3fa999999999999a
  03d8f	f2 0f 11 85 10
	fd ff ff	 movsd	 QWORD PTR tv1862[ebp], xmm0
  03d97	eb 10		 jmp	 SHORT $LN155@update_att
$LN154@update_att:
  03d99	f3 0f 5a 05 00
	00 00 00	 cvtss2sd xmm0, DWORD PTR ?right_g_e_force@@3MA
  03da1	f2 0f 11 85 10
	fd ff ff	 movsd	 QWORD PTR tv1862[ebp], xmm0
$LN155@update_att:
  03da9	f2 0f 10 85 10
	fd ff ff	 movsd	 xmm0, QWORD PTR tv1862[ebp]
  03db1	f2 0f 11 85 18
	fd ff ff	 movsd	 QWORD PTR tv1863[ebp], xmm0
$LN157@update_att:
  03db9	f2 0f 5a 85 18
	fd ff ff	 cvtsd2ss xmm0, QWORD PTR tv1863[ebp]
  03dc1	f3 0f 11 05 00
	00 00 00	 movss	 DWORD PTR ?right_g_e_force@@3MA, xmm0

; 2658 : 
; 2659 : 			if (right_g_e_force > 0.0)

  03dc9	f3 0f 5a 05 00
	00 00 00	 cvtss2sd xmm0, DWORD PTR ?right_g_e_force@@3MA
  03dd1	66 0f 2f 05 00
	00 00 00	 comisd	 xmm0, QWORD PTR __real@0000000000000000
  03dd9	0f 86 d2 00 00
	00		 jbe	 $LN78@update_att

; 2660 : 			{
; 2661 : 
; 2662 : 				right_g_e_force *= tuning_value * main_rotor_induced_air_value;

  03ddf	f3 0f 10 85 20
	fe ff ff	 movss	 xmm0, DWORD PTR _tuning_value$23[ebp]
  03de7	f3 0f 59 45 9c	 mulss	 xmm0, DWORD PTR _main_rotor_induced_air_value$[ebp]
  03dec	f3 0f 59 05 00
	00 00 00	 mulss	 xmm0, DWORD PTR ?right_g_e_force@@3MA
  03df4	f3 0f 11 05 00
	00 00 00	 movss	 DWORD PTR ?right_g_e_force@@3MA, xmm0

; 2663 : 
; 2664 : 				if (current_flight_dynamics->velocity_z.max != 0.0)

  03dfc	a1 00 00 00 00	 mov	 eax, DWORD PTR ?current_flight_dynamics@@3PAUDYNAMICS_TYPE@@A ; current_flight_dynamics
  03e01	f3 0f 5a 80 a8
	20 00 00	 cvtss2sd xmm0, DWORD PTR [eax+8360]
  03e09	66 0f 2e 05 00
	00 00 00	 ucomisd xmm0, QWORD PTR __real@0000000000000000
  03e11	9f		 lahf
  03e12	f6 c4 44	 test	 ah, 68			; 00000044H
  03e15	7b 4c		 jnp	 SHORT $LN79@update_att

; 2665 : 				{
; 2666 : 
; 2667 : 					right_g_e_force *= (current_flight_dynamics->velocity_z.max - fabs (velocity_z_value)) / current_flight_dynamics->velocity_z.max;

  03e17	51		 push	 ecx
  03e18	f3 0f 10 85 70
	ff ff ff	 movss	 xmm0, DWORD PTR _velocity_z_value$[ebp]
  03e20	f3 0f 11 04 24	 movss	 DWORD PTR [esp], xmm0
  03e25	e8 00 00 00 00	 call	 ?fabs@@YGMM@Z		; fabs
  03e2a	d9 9d 1c fd ff
	ff		 fstp	 DWORD PTR tv3606[ebp]
  03e30	a1 00 00 00 00	 mov	 eax, DWORD PTR ?current_flight_dynamics@@3PAUDYNAMICS_TYPE@@A ; current_flight_dynamics
  03e35	f3 0f 10 80 a8
	20 00 00	 movss	 xmm0, DWORD PTR [eax+8360]
  03e3d	f3 0f 5c 85 1c
	fd ff ff	 subss	 xmm0, DWORD PTR tv3606[ebp]
  03e45	8b 0d 00 00 00
	00		 mov	 ecx, DWORD PTR ?current_flight_dynamics@@3PAUDYNAMICS_TYPE@@A ; current_flight_dynamics
  03e4b	f3 0f 5e 81 a8
	20 00 00	 divss	 xmm0, DWORD PTR [ecx+8360]
  03e53	f3 0f 59 05 00
	00 00 00	 mulss	 xmm0, DWORD PTR ?right_g_e_force@@3MA
  03e5b	f3 0f 11 05 00
	00 00 00	 movss	 DWORD PTR ?right_g_e_force@@3MA, xmm0
$LN79@update_att:

; 2668 : 				}
; 2669 : 
; 2670 : 				#if DEBUG_MODULE
; 2671 : 
; 2672 : 				debug_log ("DYNAMICS: IGE right force %f, alt %f, y %f, el %f, x %f, z %f",
; 2673 : 								right_g_e_force, altitude, current_flight_dynamics->position.y,
; 2674 : 								get_3d_terrain_point_data_elevation (&terrain_info), world_position.x, world_position.z);
; 2675 : 
; 2676 : 				create_vectored_debug_3d_object (&world_position, &direction, OBJECT_3D_ARROW_FORCES, 0, 20.0 * right_g_e_force);
; 2677 : 
; 2678 : 				#endif
; 2679 : 
; 2680 : 				right_g_e_force *= current_flight_dynamics->ground_effect.modifier;

  03e63	a1 00 00 00 00	 mov	 eax, DWORD PTR ?current_flight_dynamics@@3PAUDYNAMICS_TYPE@@A ; current_flight_dynamics
  03e68	f3 0f 10 05 00
	00 00 00	 movss	 xmm0, DWORD PTR ?right_g_e_force@@3MA
  03e70	f3 0f 59 80 e0
	23 00 00	 mulss	 xmm0, DWORD PTR [eax+9184]
  03e78	f3 0f 11 05 00
	00 00 00	 movss	 DWORD PTR ?right_g_e_force@@3MA, xmm0

; 2681 : 
; 2682 : 				add_dynamic_force ("Right rotor Ground effect", right_g_e_force, 0.0, &position, &direction, FALSE);

  03e80	6a 00		 push	 0
  03e82	8d 85 38 ff ff
	ff		 lea	 eax, DWORD PTR _direction$[ebp]
  03e88	50		 push	 eax
  03e89	8d 8d 44 ff ff
	ff		 lea	 ecx, DWORD PTR _position$[ebp]
  03e8f	51		 push	 ecx
  03e90	51		 push	 ecx
  03e91	0f 57 c0	 xorps	 xmm0, xmm0
  03e94	f3 0f 11 04 24	 movss	 DWORD PTR [esp], xmm0
  03e99	51		 push	 ecx
  03e9a	f3 0f 10 05 00
	00 00 00	 movss	 xmm0, DWORD PTR ?right_g_e_force@@3MA
  03ea2	f3 0f 11 04 24	 movss	 DWORD PTR [esp], xmm0
  03ea7	68 00 00 00 00	 push	 OFFSET ??_C@_0BK@ONPBLKKA@Right?5rotor?5Ground?5effect@
  03eac	e8 00 00 00 00	 call	 ?add_dynamic_force@@YGXPBDMMPAUVEC3D@@1H@Z ; add_dynamic_force
$LN78@update_att:

; 2683 : 			}
; 2684 : 		}
; 2685 : 	}
; 2686 : 	////////////////////////////////////////////
; 2687 : 	// Vortex ring
; 2688 : 	////////////////////////////////////////////
; 2689 : 	if ((!model_landed) &&
; 2690 : 		(get_current_dynamics_options (DYNAMICS_OPTIONS_VORTEX_RING)) &&

  03eb1	83 7d fc 00	 cmp	 DWORD PTR _model_landed$[ebp], 0
  03eb5	0f 85 e5 02 00
	00		 jne	 $LN82@update_att
  03ebb	6a 0b		 push	 11			; 0000000bH
  03ebd	e8 00 00 00 00	 call	 ?get_current_dynamics_options@@YGHW4DYNAMICS_OPTIONS_TYPES@@@Z ; get_current_dynamics_options
  03ec2	85 c0		 test	 eax, eax
  03ec4	0f 84 d6 02 00
	00		 je	 $LN82@update_att
  03eca	a1 00 00 00 00	 mov	 eax, DWORD PTR ?current_flight_dynamics@@3PAUDYNAMICS_TYPE@@A ; current_flight_dynamics
  03ecf	8b 88 24 25 00
	00		 mov	 ecx, DWORD PTR [eax+9508]
  03ed5	83 e1 02	 and	 ecx, 2
  03ed8	0f 85 c2 02 00
	00		 jne	 $LN82@update_att

; 2691 : 		(!(current_flight_dynamics->dynamics_damage & DYNAMICS_DAMAGE_MAIN_ROTOR)))
; 2692 : 	{
; 2693 : 		float air_over_rotor = -fabs(main_rotor_induced_air_value) - model_motion_vector.y;

  03ede	51		 push	 ecx
  03edf	f3 0f 10 45 9c	 movss	 xmm0, DWORD PTR _main_rotor_induced_air_value$[ebp]
  03ee4	f3 0f 11 04 24	 movss	 DWORD PTR [esp], xmm0
  03ee9	e8 00 00 00 00	 call	 ?fabs@@YGMM@Z		; fabs
  03eee	d9 9d 1c fd ff
	ff		 fstp	 DWORD PTR tv3627[ebp]
  03ef4	f3 0f 10 85 1c
	fd ff ff	 movss	 xmm0, DWORD PTR tv3627[ebp]
  03efc	0f 57 05 00 00
	00 00		 xorps	 xmm0, DWORD PTR __xmm@80000000800000008000000080000000
  03f03	f3 0f 5c 85 24
	ff ff ff	 subss	 xmm0, DWORD PTR _model_motion_vector$[ebp+4]
  03f0b	f3 0f 11 85 1c
	fe ff ff	 movss	 DWORD PTR _air_over_rotor$22[ebp], xmm0

; 2694 : 		float vibration_limit = -fabs(main_rotor_induced_air_value) - model_motion_vector.y * 0.6;

  03f13	51		 push	 ecx
  03f14	f3 0f 10 45 9c	 movss	 xmm0, DWORD PTR _main_rotor_induced_air_value$[ebp]
  03f19	f3 0f 11 04 24	 movss	 DWORD PTR [esp], xmm0
  03f1e	e8 00 00 00 00	 call	 ?fabs@@YGMM@Z		; fabs
  03f23	d9 9d 1c fd ff
	ff		 fstp	 DWORD PTR tv3633[ebp]
  03f29	f3 0f 10 85 1c
	fd ff ff	 movss	 xmm0, DWORD PTR tv3633[ebp]
  03f31	0f 57 05 00 00
	00 00		 xorps	 xmm0, DWORD PTR __xmm@80000000800000008000000080000000
  03f38	f3 0f 5a c0	 cvtss2sd xmm0, xmm0
  03f3c	f3 0f 5a 8d 24
	ff ff ff	 cvtss2sd xmm1, DWORD PTR _model_motion_vector$[ebp+4]
  03f44	f2 0f 59 0d 00
	00 00 00	 mulsd	 xmm1, QWORD PTR __real@3fe3333333333333
  03f4c	f2 0f 5c c1	 subsd	 xmm0, xmm1
  03f50	f2 0f 5a c0	 cvtsd2ss xmm0, xmm0
  03f54	f3 0f 11 85 18
	fe ff ff	 movss	 DWORD PTR _vibration_limit$21[ebp], xmm0

; 2695 : 		float velocity_factor = max (((current_flight_dynamics->main_rotor_induced_vortex_air_flow.min -

  03f5c	0f 57 c0	 xorps	 xmm0, xmm0
  03f5f	f3 0f 11 85 24
	fd ff ff	 movss	 DWORD PTR $T2[ebp], xmm0
  03f67	51		 push	 ecx
  03f68	f3 0f 10 85 28
	ff ff ff	 movss	 xmm0, DWORD PTR _model_motion_vector$[ebp+8]
  03f70	f3 0f 11 04 24	 movss	 DWORD PTR [esp], xmm0
  03f75	e8 00 00 00 00	 call	 ?fabs@@YGMM@Z		; fabs
  03f7a	d9 9d 1c fd ff
	ff		 fstp	 DWORD PTR tv3640[ebp]
  03f80	a1 00 00 00 00	 mov	 eax, DWORD PTR ?current_flight_dynamics@@3PAUDYNAMICS_TYPE@@A ; current_flight_dynamics
  03f85	f3 0f 10 80 8c
	1d 00 00	 movss	 xmm0, DWORD PTR [eax+7564]
  03f8d	f3 0f 5c 85 1c
	fd ff ff	 subss	 xmm0, DWORD PTR tv3640[ebp]
  03f95	8b 0d 00 00 00
	00		 mov	 ecx, DWORD PTR ?current_flight_dynamics@@3PAUDYNAMICS_TYPE@@A ; current_flight_dynamics
  03f9b	f3 0f 5e 81 8c
	1d 00 00	 divss	 xmm0, DWORD PTR [ecx+7564]
  03fa3	f3 0f 11 85 20
	fd ff ff	 movss	 DWORD PTR $T1[ebp], xmm0
  03fab	8d 95 24 fd ff
	ff		 lea	 edx, DWORD PTR $T2[ebp]
  03fb1	52		 push	 edx
  03fb2	8d 85 20 fd ff
	ff		 lea	 eax, DWORD PTR $T1[ebp]
  03fb8	50		 push	 eax
  03fb9	e8 00 00 00 00	 call	 ??$max@M@std@@YGABMABM0@Z ; std::max<float>
  03fbe	f3 0f 10 00	 movss	 xmm0, DWORD PTR [eax]
  03fc2	f3 0f 11 85 14
	fe ff ff	 movss	 DWORD PTR _velocity_factor$20[ebp], xmm0

; 2696 : 					   fabs (model_motion_vector.z)) / current_flight_dynamics->main_rotor_induced_vortex_air_flow.min), 0.0f);
; 2697 : 
; 2698 : 		// arneh - create vibration when close to vortex ring state
; 2699 : 		if (vibration_limit > 0.0 && !(current_flight_dynamics->dynamics_damage & DYNAMICS_DAMAGE_MAIN_ROTOR_BLADE) && velocity_factor > 0.0)

  03fca	f3 0f 5a 85 18
	fe ff ff	 cvtss2sd xmm0, DWORD PTR _vibration_limit$21[ebp]
  03fd2	66 0f 2f 05 00
	00 00 00	 comisd	 xmm0, QWORD PTR __real@0000000000000000
  03fda	0f 86 de 00 00
	00		 jbe	 $LN81@update_att
  03fe0	a1 00 00 00 00	 mov	 eax, DWORD PTR ?current_flight_dynamics@@3PAUDYNAMICS_TYPE@@A ; current_flight_dynamics
  03fe5	8b 88 24 25 00
	00		 mov	 ecx, DWORD PTR [eax+9508]
  03feb	81 e1 00 00 01
	00		 and	 ecx, 65536		; 00010000H
  03ff1	0f 85 c7 00 00
	00		 jne	 $LN81@update_att
  03ff7	f3 0f 5a 85 14
	fe ff ff	 cvtss2sd xmm0, DWORD PTR _velocity_factor$20[ebp]
  03fff	66 0f 2f 05 00
	00 00 00	 comisd	 xmm0, QWORD PTR __real@0000000000000000
  04007	0f 86 b1 00 00
	00		 jbe	 $LN81@update_att

; 2700 : 			create_rotor_vibration(bound(vibration_limit * 0.3 * velocity_factor, 0.0, 1.0));

  0400d	f3 0f 5a 85 18
	fe ff ff	 cvtss2sd xmm0, DWORD PTR _vibration_limit$21[ebp]
  04015	f2 0f 59 05 00
	00 00 00	 mulsd	 xmm0, QWORD PTR __real@3fd3333333333333
  0401d	f3 0f 5a 8d 14
	fe ff ff	 cvtss2sd xmm1, DWORD PTR _velocity_factor$20[ebp]
  04025	f2 0f 59 c1	 mulsd	 xmm0, xmm1
  04029	0f 57 c9	 xorps	 xmm1, xmm1
  0402c	66 0f 2f c8	 comisd	 xmm1, xmm0
  04030	76 0d		 jbe	 SHORT $LN160@update_att
  04032	0f 57 c0	 xorps	 xmm0, xmm0
  04035	f2 0f 11 85 18
	fd ff ff	 movsd	 QWORD PTR tv1944[ebp], xmm0
  0403d	eb 6c		 jmp	 SHORT $LN161@update_att
$LN160@update_att:
  0403f	f3 0f 5a 85 18
	fe ff ff	 cvtss2sd xmm0, DWORD PTR _vibration_limit$21[ebp]
  04047	f2 0f 59 05 00
	00 00 00	 mulsd	 xmm0, QWORD PTR __real@3fd3333333333333
  0404f	f3 0f 5a 8d 14
	fe ff ff	 cvtss2sd xmm1, DWORD PTR _velocity_factor$20[ebp]
  04057	f2 0f 59 c1	 mulsd	 xmm0, xmm1
  0405b	66 0f 2f 05 00
	00 00 00	 comisd	 xmm0, QWORD PTR __real@3ff0000000000000
  04063	76 12		 jbe	 SHORT $LN158@update_att
  04065	f2 0f 10 05 00
	00 00 00	 movsd	 xmm0, QWORD PTR __real@3ff0000000000000
  0406d	f2 0f 11 85 10
	fd ff ff	 movsd	 QWORD PTR tv1943[ebp], xmm0
  04075	eb 24		 jmp	 SHORT $LN159@update_att
$LN158@update_att:
  04077	f3 0f 5a 85 18
	fe ff ff	 cvtss2sd xmm0, DWORD PTR _vibration_limit$21[ebp]
  0407f	f2 0f 59 05 00
	00 00 00	 mulsd	 xmm0, QWORD PTR __real@3fd3333333333333
  04087	f3 0f 5a 8d 14
	fe ff ff	 cvtss2sd xmm1, DWORD PTR _velocity_factor$20[ebp]
  0408f	f2 0f 59 c1	 mulsd	 xmm0, xmm1
  04093	f2 0f 11 85 10
	fd ff ff	 movsd	 QWORD PTR tv1943[ebp], xmm0
$LN159@update_att:
  0409b	f2 0f 10 85 10
	fd ff ff	 movsd	 xmm0, QWORD PTR tv1943[ebp]
  040a3	f2 0f 11 85 18
	fd ff ff	 movsd	 QWORD PTR tv1944[ebp], xmm0
$LN161@update_att:
  040ab	f2 0f 5a 85 18
	fd ff ff	 cvtsd2ss xmm0, QWORD PTR tv1944[ebp]
  040b3	51		 push	 ecx
  040b4	f3 0f 11 04 24	 movss	 DWORD PTR [esp], xmm0
  040b9	e8 00 00 00 00	 call	 ?create_rotor_vibration@@YGXM@Z ; create_rotor_vibration
$LN81@update_att:

; 2701 : 
; 2702 : 		if (air_over_rotor > 0.0)     //model_motion_vector.y < -fabs (main_rotor_induced_air_value))

  040be	f3 0f 5a 85 1c
	fe ff ff	 cvtss2sd xmm0, DWORD PTR _air_over_rotor$22[ebp]
  040c6	66 0f 2f 05 00
	00 00 00	 comisd	 xmm0, QWORD PTR __real@0000000000000000
  040ce	0f 86 cc 00 00
	00		 jbe	 $LN82@update_att

; 2703 : 		{
; 2704 : 
; 2705 : 			force = current_flight_dynamics->main_rotor_induced_vortex_air_flow.modifier * fabs (main_rotor_induced_air_value) * velocity_factor;

  040d4	51		 push	 ecx
  040d5	f3 0f 10 45 9c	 movss	 xmm0, DWORD PTR _main_rotor_induced_air_value$[ebp]
  040da	f3 0f 11 04 24	 movss	 DWORD PTR [esp], xmm0
  040df	e8 00 00 00 00	 call	 ?fabs@@YGMM@Z		; fabs
  040e4	d9 9d 1c fd ff
	ff		 fstp	 DWORD PTR tv3660[ebp]
  040ea	a1 00 00 00 00	 mov	 eax, DWORD PTR ?current_flight_dynamics@@3PAUDYNAMICS_TYPE@@A ; current_flight_dynamics
  040ef	f3 0f 10 85 1c
	fd ff ff	 movss	 xmm0, DWORD PTR tv3660[ebp]
  040f7	f3 0f 59 80 80
	1d 00 00	 mulss	 xmm0, DWORD PTR [eax+7552]
  040ff	f3 0f 59 85 14
	fe ff ff	 mulss	 xmm0, DWORD PTR _velocity_factor$20[ebp]
  04107	f3 0f 11 45 c0	 movss	 DWORD PTR _force$[ebp], xmm0

; 2706 : 
; 2707 : 			force *= deg (current_flight_dynamics->main_blade_pitch.value);

  0410c	a1 00 00 00 00	 mov	 eax, DWORD PTR ?current_flight_dynamics@@3PAUDYNAMICS_TYPE@@A ; current_flight_dynamics
  04111	f3 0f 10 80 8c
	1e 00 00	 movss	 xmm0, DWORD PTR [eax+7820]
  04119	f3 0f 59 05 00
	00 00 00	 mulss	 xmm0, DWORD PTR __real@42652ee0
  04121	f3 0f 59 45 c0	 mulss	 xmm0, DWORD PTR _force$[ebp]
  04126	f3 0f 11 45 c0	 movss	 DWORD PTR _force$[ebp], xmm0

; 2708 : 
; 2709 : 			position.x = 0.0;

  0412b	0f 57 c0	 xorps	 xmm0, xmm0
  0412e	f3 0f 11 85 44
	ff ff ff	 movss	 DWORD PTR _position$[ebp], xmm0

; 2710 : 			position.y = 0.0;

  04136	0f 57 c0	 xorps	 xmm0, xmm0
  04139	f3 0f 11 85 48
	ff ff ff	 movss	 DWORD PTR _position$[ebp+4], xmm0

; 2711 : 			position.z = 0.0;

  04141	0f 57 c0	 xorps	 xmm0, xmm0
  04144	f3 0f 11 85 4c
	ff ff ff	 movss	 DWORD PTR _position$[ebp+8], xmm0

; 2712 : 
; 2713 : 			direction.x = 0.0;

  0414c	0f 57 c0	 xorps	 xmm0, xmm0
  0414f	f3 0f 11 85 38
	ff ff ff	 movss	 DWORD PTR _direction$[ebp], xmm0

; 2714 : 			direction.y = -1.0;

  04157	f3 0f 10 05 00
	00 00 00	 movss	 xmm0, DWORD PTR __real@bf800000
  0415f	f3 0f 11 85 3c
	ff ff ff	 movss	 DWORD PTR _direction$[ebp+4], xmm0

; 2715 : 			direction.z = 0.0;

  04167	0f 57 c0	 xorps	 xmm0, xmm0
  0416a	f3 0f 11 85 40
	ff ff ff	 movss	 DWORD PTR _direction$[ebp+8], xmm0

; 2716 : 
; 2717 : 			add_dynamic_force ("Vortex ring force", force, 0.0, &position, &direction, FALSE);

  04172	6a 00		 push	 0
  04174	8d 85 38 ff ff
	ff		 lea	 eax, DWORD PTR _direction$[ebp]
  0417a	50		 push	 eax
  0417b	8d 8d 44 ff ff
	ff		 lea	 ecx, DWORD PTR _position$[ebp]
  04181	51		 push	 ecx
  04182	51		 push	 ecx
  04183	0f 57 c0	 xorps	 xmm0, xmm0
  04186	f3 0f 11 04 24	 movss	 DWORD PTR [esp], xmm0
  0418b	51		 push	 ecx
  0418c	f3 0f 10 45 c0	 movss	 xmm0, DWORD PTR _force$[ebp]
  04191	f3 0f 11 04 24	 movss	 DWORD PTR [esp], xmm0
  04196	68 00 00 00 00	 push	 OFFSET ??_C@_0BC@MPODPIKD@Vortex?5ring?5force@
  0419b	e8 00 00 00 00	 call	 ?add_dynamic_force@@YGXPBDMMPAUVEC3D@@1H@Z ; add_dynamic_force
$LN82@update_att:

; 2718 : 		}
; 2719 : 	}
; 2720 : 
; 2721 : 	////////////////////////////////////////////
; 2722 : 	// Wind
; 2723 : 	////////////////////////////////////////////
; 2724 : 	if ((!model_landed) &&
; 2725 : 		(get_current_dynamics_options (DYNAMICS_OPTIONS_WIND)) &&

  041a0	83 7d fc 00	 cmp	 DWORD PTR _model_landed$[ebp], 0
  041a4	0f 85 ab 01 00
	00		 jne	 $LN83@update_att
  041aa	6a 0c		 push	 12			; 0000000cH
  041ac	e8 00 00 00 00	 call	 ?get_current_dynamics_options@@YGHW4DYNAMICS_OPTIONS_TYPES@@@Z ; get_current_dynamics_options
  041b1	85 c0		 test	 eax, eax
  041b3	0f 84 9c 01 00
	00		 je	 $LN83@update_att
  041b9	a1 00 00 00 00	 mov	 eax, DWORD PTR ?current_flight_dynamics@@3PAUDYNAMICS_TYPE@@A ; current_flight_dynamics
  041be	8b 88 24 25 00
	00		 mov	 ecx, DWORD PTR [eax+9508]
  041c4	83 e1 02	 and	 ecx, 2
  041c7	0f 85 88 01 00
	00		 jne	 $LN83@update_att

; 2726 : 		(!(current_flight_dynamics->dynamics_damage & DYNAMICS_DAMAGE_MAIN_ROTOR)))
; 2727 : 	{
; 2728 : 
; 2729 : 		static float
; 2730 : 			force = 0.0,
; 2731 : 			desired_force = 0.0;
; 2732 : 
; 2733 : 		position.x = current_flight_dynamics->position.x;

  041cd	a1 00 00 00 00	 mov	 eax, DWORD PTR ?current_flight_dynamics@@3PAUDYNAMICS_TYPE@@A ; current_flight_dynamics
  041d2	f2 0f 5a 80 ac
	00 00 00	 cvtsd2ss xmm0, QWORD PTR [eax+172]
  041da	f3 0f 11 85 44
	ff ff ff	 movss	 DWORD PTR _position$[ebp], xmm0

; 2734 : 		position.y = current_flight_dynamics->position.y;

  041e2	a1 00 00 00 00	 mov	 eax, DWORD PTR ?current_flight_dynamics@@3PAUDYNAMICS_TYPE@@A ; current_flight_dynamics
  041e7	f2 0f 5a 80 b4
	00 00 00	 cvtsd2ss xmm0, QWORD PTR [eax+180]
  041ef	f3 0f 11 85 48
	ff ff ff	 movss	 DWORD PTR _position$[ebp+4], xmm0

; 2735 : 		position.z = current_flight_dynamics->position.z;

  041f7	a1 00 00 00 00	 mov	 eax, DWORD PTR ?current_flight_dynamics@@3PAUDYNAMICS_TYPE@@A ; current_flight_dynamics
  041fc	f2 0f 5a 80 bc
	00 00 00	 cvtsd2ss xmm0, QWORD PTR [eax+188]
  04204	f3 0f 11 85 4c
	ff ff ff	 movss	 DWORD PTR _position$[ebp+8], xmm0

; 2736 : 
; 2737 : 		get_session_wind_velocity_at_point (&position, &direction);

  0420c	8d 85 38 ff ff
	ff		 lea	 eax, DWORD PTR _direction$[ebp]
  04212	50		 push	 eax
  04213	8d 8d 44 ff ff
	ff		 lea	 ecx, DWORD PTR _position$[ebp]
  04219	51		 push	 ecx
  0421a	e8 00 00 00 00	 call	 ?get_session_wind_velocity_at_point@@YGMPAUVEC3D@@0@Z ; get_session_wind_velocity_at_point
  0421f	dd d8		 fstp	 ST(0)

; 2738 : 
; 2739 : 		position.x = current_flight_dynamics->rotation_origin.x;

  04221	a1 00 00 00 00	 mov	 eax, DWORD PTR ?current_flight_dynamics@@3PAUDYNAMICS_TYPE@@A ; current_flight_dynamics
  04226	f3 0f 10 80 c4
	00 00 00	 movss	 xmm0, DWORD PTR [eax+196]
  0422e	f3 0f 11 85 44
	ff ff ff	 movss	 DWORD PTR _position$[ebp], xmm0

; 2740 : 		position.y = current_flight_dynamics->rotation_origin.y;

  04236	a1 00 00 00 00	 mov	 eax, DWORD PTR ?current_flight_dynamics@@3PAUDYNAMICS_TYPE@@A ; current_flight_dynamics
  0423b	f3 0f 10 80 c8
	00 00 00	 movss	 xmm0, DWORD PTR [eax+200]
  04243	f3 0f 11 85 48
	ff ff ff	 movss	 DWORD PTR _position$[ebp+4], xmm0

; 2741 : 		position.z = current_flight_dynamics->rotation_origin.z;

  0424b	a1 00 00 00 00	 mov	 eax, DWORD PTR ?current_flight_dynamics@@3PAUDYNAMICS_TYPE@@A ; current_flight_dynamics
  04250	f3 0f 10 80 cc
	00 00 00	 movss	 xmm0, DWORD PTR [eax+204]
  04258	f3 0f 11 85 4c
	ff ff ff	 movss	 DWORD PTR _position$[ebp+8], xmm0

; 2742 : 
; 2743 : 		multiply_transpose_matrix3x3_vec3d (&direction, attitude, &direction);

  04260	8d 85 38 ff ff
	ff		 lea	 eax, DWORD PTR _direction$[ebp]
  04266	50		 push	 eax
  04267	8d 4d d8	 lea	 ecx, DWORD PTR _attitude$[ebp]
  0426a	51		 push	 ecx
  0426b	8d 95 38 ff ff
	ff		 lea	 edx, DWORD PTR _direction$[ebp]
  04271	52		 push	 edx
  04272	e8 00 00 00 00	 call	 ?multiply_transpose_matrix3x3_vec3d@@YGXPAUVEC3D@@QAY02$$CBMPBU1@@Z ; multiply_transpose_matrix3x3_vec3d

; 2744 : 
; 2745 : 		force += (desired_force - force) * get_model_delta_time ();

  04277	f3 0f 10 05 00
	00 00 00	 movss	 xmm0, DWORD PTR ?desired_force@?OP@??update_attitude_dynamics@@YGXXZ@4MA
  0427f	f3 0f 5c 05 00
	00 00 00	 subss	 xmm0, DWORD PTR ?force@?OP@??update_attitude_dynamics@@YGXXZ@4MA
  04287	a1 00 00 00 00	 mov	 eax, DWORD PTR ?current_flight_dynamics@@3PAUDYNAMICS_TYPE@@A ; current_flight_dynamics
  0428c	f3 0f 59 80 90
	00 00 00	 mulss	 xmm0, DWORD PTR [eax+144]
  04294	f3 0f 58 05 00
	00 00 00	 addss	 xmm0, DWORD PTR ?force@?OP@??update_attitude_dynamics@@YGXXZ@4MA
  0429c	f3 0f 11 05 00
	00 00 00	 movss	 DWORD PTR ?force@?OP@??update_attitude_dynamics@@YGXXZ@4MA, xmm0

; 2746 : 
; 2747 : 		if ((fabs (force - desired_force) < 0.001))

  042a4	f3 0f 10 05 00
	00 00 00	 movss	 xmm0, DWORD PTR ?force@?OP@??update_attitude_dynamics@@YGXXZ@4MA
  042ac	f3 0f 5c 05 00
	00 00 00	 subss	 xmm0, DWORD PTR ?desired_force@?OP@??update_attitude_dynamics@@YGXXZ@4MA
  042b4	51		 push	 ecx
  042b5	f3 0f 11 04 24	 movss	 DWORD PTR [esp], xmm0
  042ba	e8 00 00 00 00	 call	 ?fabs@@YGMM@Z		; fabs
  042bf	dd 9d 18 fd ff
	ff		 fstp	 QWORD PTR tv3704[ebp]
  042c5	f2 0f 10 05 00
	00 00 00	 movsd	 xmm0, QWORD PTR __real@3f50624dd2f1a9fc
  042cd	66 0f 2f 85 18
	fd ff ff	 comisd	 xmm0, QWORD PTR tv3704[ebp]
  042d5	76 4d		 jbe	 SHORT $LN84@update_att

; 2748 : 		{
; 2749 : 
; 2750 : 			desired_force = frand1 () * get_model_delta_time ();

  042d7	69 05 00 00 00
	00 6d 4e c6 41	 imul	 eax, DWORD PTR ?random_number_seed@@3HA, 1103515245 ; random_number_seed
  042e1	05 39 30 00 00	 add	 eax, 12345		; 00003039H
  042e6	a3 00 00 00 00	 mov	 DWORD PTR ?random_number_seed@@3HA, eax ; random_number_seed
  042eb	8b 0d 00 00 00
	00		 mov	 ecx, DWORD PTR ?random_number_seed@@3HA ; random_number_seed
  042f1	c1 f9 10	 sar	 ecx, 16			; 00000010H
  042f4	81 e1 ff 7f 00
	00		 and	 ecx, 32767		; 00007fffH
  042fa	f2 0f 2a c1	 cvtsi2sd xmm0, ecx
  042fe	f2 0f 59 05 00
	00 00 00	 mulsd	 xmm0, QWORD PTR __real@3f00002000400080
  04306	8b 15 00 00 00
	00		 mov	 edx, DWORD PTR ?current_flight_dynamics@@3PAUDYNAMICS_TYPE@@A ; current_flight_dynamics
  0430c	f3 0f 5a 8a 90
	00 00 00	 cvtss2sd xmm1, DWORD PTR [edx+144]
  04314	f2 0f 59 c1	 mulsd	 xmm0, xmm1
  04318	f2 0f 5a c0	 cvtsd2ss xmm0, xmm0
  0431c	f3 0f 11 05 00
	00 00 00	 movss	 DWORD PTR ?desired_force@?OP@??update_attitude_dynamics@@YGXXZ@4MA, xmm0
$LN84@update_att:

; 2751 : 		}
; 2752 : 
; 2753 : 		add_dynamic_force ("Wind", force, 0.0, &position, &direction, FALSE);

  04324	6a 00		 push	 0
  04326	8d 85 38 ff ff
	ff		 lea	 eax, DWORD PTR _direction$[ebp]
  0432c	50		 push	 eax
  0432d	8d 8d 44 ff ff
	ff		 lea	 ecx, DWORD PTR _position$[ebp]
  04333	51		 push	 ecx
  04334	51		 push	 ecx
  04335	0f 57 c0	 xorps	 xmm0, xmm0
  04338	f3 0f 11 04 24	 movss	 DWORD PTR [esp], xmm0
  0433d	51		 push	 ecx
  0433e	f3 0f 10 05 00
	00 00 00	 movss	 xmm0, DWORD PTR ?force@?OP@??update_attitude_dynamics@@YGXXZ@4MA
  04346	f3 0f 11 04 24	 movss	 DWORD PTR [esp], xmm0
  0434b	68 00 00 00 00	 push	 OFFSET ??_C@_04LGBIOLDJ@Wind@
  04350	e8 00 00 00 00	 call	 ?add_dynamic_force@@YGXPBDMMPAUVEC3D@@1H@Z ; add_dynamic_force
$LN83@update_att:

; 2754 : 	}
; 2755 : 	////////////////////////////////////////////
; 2756 : 
; 2757 : 	if (fixed_collision_count)

  04355	83 3d 00 00 00
	00 00		 cmp	 DWORD PTR ?fixed_collision_count@@3HA, 0 ; fixed_collision_count
  0435c	0f 84 23 01 00
	00		 je	 $LN85@update_att

; 2758 : 	{
; 2759 : 
; 2760 : 		float
; 2761 : 			force;
; 2762 : 
; 2763 : 		vec3d
; 2764 : 			direction,
; 2765 : 			position;
; 2766 : 
; 2767 : 		direction = current_flight_dynamics->model_motion_vector;

  04362	a1 00 00 00 00	 mov	 eax, DWORD PTR ?current_flight_dynamics@@3PAUDYNAMICS_TYPE@@A ; current_flight_dynamics
  04367	05 30 1c 00 00	 add	 eax, 7216		; 00001c30H
  0436c	8b 08		 mov	 ecx, DWORD PTR [eax]
  0436e	89 8d 04 fe ff
	ff		 mov	 DWORD PTR _direction$18[ebp], ecx
  04374	8b 50 04	 mov	 edx, DWORD PTR [eax+4]
  04377	89 95 08 fe ff
	ff		 mov	 DWORD PTR _direction$18[ebp+4], edx
  0437d	8b 40 08	 mov	 eax, DWORD PTR [eax+8]
  04380	89 85 0c fe ff
	ff		 mov	 DWORD PTR _direction$18[ebp+8], eax

; 2768 : 
; 2769 : 		direction.x += current_flight_dynamics->model_acceleration_vector.x * get_model_delta_time ();

  04386	a1 00 00 00 00	 mov	 eax, DWORD PTR ?current_flight_dynamics@@3PAUDYNAMICS_TYPE@@A ; current_flight_dynamics
  0438b	8b 0d 00 00 00
	00		 mov	 ecx, DWORD PTR ?current_flight_dynamics@@3PAUDYNAMICS_TYPE@@A ; current_flight_dynamics
  04391	f3 0f 10 80 48
	1c 00 00	 movss	 xmm0, DWORD PTR [eax+7240]
  04399	f3 0f 59 81 90
	00 00 00	 mulss	 xmm0, DWORD PTR [ecx+144]
  043a1	f3 0f 58 85 04
	fe ff ff	 addss	 xmm0, DWORD PTR _direction$18[ebp]
  043a9	f3 0f 11 85 04
	fe ff ff	 movss	 DWORD PTR _direction$18[ebp], xmm0

; 2770 : 		direction.y += current_flight_dynamics->model_acceleration_vector.y * get_model_delta_time ();

  043b1	a1 00 00 00 00	 mov	 eax, DWORD PTR ?current_flight_dynamics@@3PAUDYNAMICS_TYPE@@A ; current_flight_dynamics
  043b6	8b 0d 00 00 00
	00		 mov	 ecx, DWORD PTR ?current_flight_dynamics@@3PAUDYNAMICS_TYPE@@A ; current_flight_dynamics
  043bc	f3 0f 10 80 4c
	1c 00 00	 movss	 xmm0, DWORD PTR [eax+7244]
  043c4	f3 0f 59 81 90
	00 00 00	 mulss	 xmm0, DWORD PTR [ecx+144]
  043cc	f3 0f 58 85 08
	fe ff ff	 addss	 xmm0, DWORD PTR _direction$18[ebp+4]
  043d4	f3 0f 11 85 08
	fe ff ff	 movss	 DWORD PTR _direction$18[ebp+4], xmm0

; 2771 : 		direction.z += current_flight_dynamics->model_acceleration_vector.z * get_model_delta_time ();

  043dc	a1 00 00 00 00	 mov	 eax, DWORD PTR ?current_flight_dynamics@@3PAUDYNAMICS_TYPE@@A ; current_flight_dynamics
  043e1	8b 0d 00 00 00
	00		 mov	 ecx, DWORD PTR ?current_flight_dynamics@@3PAUDYNAMICS_TYPE@@A ; current_flight_dynamics
  043e7	f3 0f 10 80 50
	1c 00 00	 movss	 xmm0, DWORD PTR [eax+7248]
  043ef	f3 0f 59 81 90
	00 00 00	 mulss	 xmm0, DWORD PTR [ecx+144]
  043f7	f3 0f 58 85 0c
	fe ff ff	 addss	 xmm0, DWORD PTR _direction$18[ebp+8]
  043ff	f3 0f 11 85 0c
	fe ff ff	 movss	 DWORD PTR _direction$18[ebp+8], xmm0

; 2772 : 
; 2773 : 		force = get_3d_vector_magnitude (&direction);// / get_model_delta_time ();

  04407	8d 85 04 fe ff
	ff		 lea	 eax, DWORD PTR _direction$18[ebp]
  0440d	50		 push	 eax
  0440e	e8 00 00 00 00	 call	 ?get_3d_vector_magnitude@@YGMPBUVEC3D@@@Z ; get_3d_vector_magnitude
  04413	d9 9d 10 fe ff
	ff		 fstp	 DWORD PTR _force$19[ebp]

; 2774 : 
; 2775 : 		invert_3d_vector (&direction);

  04419	8d 85 04 fe ff
	ff		 lea	 eax, DWORD PTR _direction$18[ebp]
  0441f	50		 push	 eax
  04420	e8 00 00 00 00	 call	 ?invert_3d_vector@@YGXPAUVEC3D@@@Z ; invert_3d_vector

; 2776 : 
; 2777 : 		normalise_any_3d_vector (&direction);

  04425	8d 85 04 fe ff
	ff		 lea	 eax, DWORD PTR _direction$18[ebp]
  0442b	50		 push	 eax
  0442c	e8 00 00 00 00	 call	 ?normalise_any_3d_vector@@YGMPAUVEC3D@@@Z ; normalise_any_3d_vector
  04431	dd d8		 fstp	 ST(0)

; 2778 : 
; 2779 : 		position.x = 0.0; //direction.x * 5.0;

  04433	0f 57 c0	 xorps	 xmm0, xmm0
  04436	f3 0f 11 85 f8
	fd ff ff	 movss	 DWORD PTR _position$17[ebp], xmm0

; 2780 : 		position.y = 0.0; //direction.y * 5.0;

  0443e	0f 57 c0	 xorps	 xmm0, xmm0
  04441	f3 0f 11 85 fc
	fd ff ff	 movss	 DWORD PTR _position$17[ebp+4], xmm0

; 2781 : 		position.z = 0.0; //direction.z * 5.0;

  04449	0f 57 c0	 xorps	 xmm0, xmm0
  0444c	f3 0f 11 85 00
	fe ff ff	 movss	 DWORD PTR _position$17[ebp+8], xmm0

; 2782 : 
; 2783 : 		add_dynamic_force ("Ground Friction force", force, 0.0, &position, &direction, FALSE);

  04454	6a 00		 push	 0
  04456	8d 85 04 fe ff
	ff		 lea	 eax, DWORD PTR _direction$18[ebp]
  0445c	50		 push	 eax
  0445d	8d 8d f8 fd ff
	ff		 lea	 ecx, DWORD PTR _position$17[ebp]
  04463	51		 push	 ecx
  04464	51		 push	 ecx
  04465	0f 57 c0	 xorps	 xmm0, xmm0
  04468	f3 0f 11 04 24	 movss	 DWORD PTR [esp], xmm0
  0446d	51		 push	 ecx
  0446e	f3 0f 10 85 10
	fe ff ff	 movss	 xmm0, DWORD PTR _force$19[ebp]
  04476	f3 0f 11 04 24	 movss	 DWORD PTR [esp], xmm0
  0447b	68 00 00 00 00	 push	 OFFSET ??_C@_0BG@EBOEKGCA@Ground?5Friction?5force@
  04480	e8 00 00 00 00	 call	 ?add_dynamic_force@@YGXPBDMMPAUVEC3D@@1H@Z ; add_dynamic_force
$LN85@update_att:

; 2784 : 
; 2785 : 		#if DEBUG_MODULE
; 2786 : 
; 2787 : 		multiply_matrix3x3_vec3d (&direction, raw->ac.mob.attitude, &direction);
; 2788 : 
; 2789 : 		position.x += current_flight_dynamics->position.x;
; 2790 : 		position.y += current_flight_dynamics->position.y;
; 2791 : 		position.z += current_flight_dynamics->position.z;
; 2792 : 
; 2793 : 		create_vectored_debug_3d_object (&position, &direction, OBJECT_3D_ARROW_FORCES, 0, 5 * force);
; 2794 : 
; 2795 : 		#endif
; 2796 : 	}
; 2797 : 
; 2798 : 	// arneh - add vibration if rotor damaged
; 2799 : 	if (!model_landed && current_flight_dynamics->dynamics_damage & DYNAMICS_DAMAGE_MAIN_ROTOR_BLADE)

  04485	83 7d fc 00	 cmp	 DWORD PTR _model_landed$[ebp], 0
  04489	75 26		 jne	 SHORT $LN86@update_att
  0448b	a1 00 00 00 00	 mov	 eax, DWORD PTR ?current_flight_dynamics@@3PAUDYNAMICS_TYPE@@A ; current_flight_dynamics
  04490	8b 88 24 25 00
	00		 mov	 ecx, DWORD PTR [eax+9508]
  04496	81 e1 00 00 01
	00		 and	 ecx, 65536		; 00010000H
  0449c	74 13		 je	 SHORT $LN86@update_att

; 2800 : 		create_rotor_vibration(1.2);

  0449e	51		 push	 ecx
  0449f	f3 0f 10 05 00
	00 00 00	 movss	 xmm0, DWORD PTR __real@3f99999a
  044a7	f3 0f 11 04 24	 movss	 DWORD PTR [esp], xmm0
  044ac	e8 00 00 00 00	 call	 ?create_rotor_vibration@@YGXM@Z ; create_rotor_vibration
$LN86@update_att:
$LN1@update_att:

; 2801 : }

  044b1	5f		 pop	 edi
  044b2	5e		 pop	 esi
  044b3	5b		 pop	 ebx
  044b4	8b e5		 mov	 esp, ebp
  044b6	5d		 pop	 ebp
  044b7	c3		 ret	 0
?update_attitude_dynamics@@YGXXZ ENDP			; update_attitude_dynamics
_TEXT	ENDS
; Function compile flags: /Odtp /ZI
; File c:\users\nhv90\projects\eech\aphavoc\source\gunships\dynamics\hind\hi_dyn.c
;	COMDAT ?update_tail_rotor_thrust_dynamics@@YGXXZ
_TEXT	SEGMENT
_blade_pitch_induced_thrust_percentage$ = -24		; size = 4
_Tl$ = -20						; size = 4
_Pmax$ = -16						; size = 4
_Md$ = -12						; size = 4
_Mrpm$ = -8						; size = 4
_desired$ = -4						; size = 4
?update_tail_rotor_thrust_dynamics@@YGXXZ PROC		; update_tail_rotor_thrust_dynamics, COMDAT

; 1237 : {

  00000	55		 push	 ebp
  00001	8b ec		 mov	 ebp, esp
  00003	83 ec 58	 sub	 esp, 88			; 00000058H
  00006	53		 push	 ebx
  00007	56		 push	 esi
  00008	57		 push	 edi

; 1238 : 
; 1239 : 	// the thrust_at_0.. will cause a constant yaw input = correct.
; 1240 : 
; 1241 : 	float
; 1242 : 		desired,
; 1243 : 		Mrpm,
; 1244 : 		Md,
; 1245 : 		Pmax,
; 1246 : 		Tl,
; 1247 : 		blade_pitch_induced_thrust_percentage;
; 1248 : 
; 1249 : 	Mrpm = current_flight_dynamics->main_rotor_rpm.value;

  00009	a1 00 00 00 00	 mov	 eax, DWORD PTR ?current_flight_dynamics@@3PAUDYNAMICS_TYPE@@A ; current_flight_dynamics
  0000e	f3 0f 10 80 14
	1e 00 00	 movss	 xmm0, DWORD PTR [eax+7700]
  00016	f3 0f 11 45 f8	 movss	 DWORD PTR _Mrpm$[ebp], xmm0

; 1250 : 
; 1251 : 	Md = current_flight_dynamics->main_rotor_diameter.value;

  0001b	a1 00 00 00 00	 mov	 eax, DWORD PTR ?current_flight_dynamics@@3PAUDYNAMICS_TYPE@@A ; current_flight_dynamics
  00020	f3 0f 10 80 9c
	1d 00 00	 movss	 xmm0, DWORD PTR [eax+7580]
  00028	f3 0f 11 45 f4	 movss	 DWORD PTR _Md$[ebp], xmm0

; 1252 : 
; 1253 : 	Pmax = current_flight_dynamics->tail_blade_pitch.max;

  0002d	a1 00 00 00 00	 mov	 eax, DWORD PTR ?current_flight_dynamics@@3PAUDYNAMICS_TYPE@@A ; current_flight_dynamics
  00032	f3 0f 10 80 a0
	1f 00 00	 movss	 xmm0, DWORD PTR [eax+8096]
  0003a	f3 0f 11 45 f0	 movss	 DWORD PTR _Pmax$[ebp], xmm0

; 1254 : 
; 1255 : 	Tl = current_flight_dynamics->tail_boom_length.value;

  0003f	a1 00 00 00 00	 mov	 eax, DWORD PTR ?current_flight_dynamics@@3PAUDYNAMICS_TYPE@@A ; current_flight_dynamics
  00044	f3 0f 10 80 ac
	1f 00 00	 movss	 xmm0, DWORD PTR [eax+8108]
  0004c	f3 0f 11 45 ec	 movss	 DWORD PTR _Tl$[ebp], xmm0

; 1256 : 
; 1257 : 	// arneh - when rotor is disengaged it produces no torque, so 0 tail rotor adjustment is desired
; 1258 : 	if (current_flight_dynamics->rotor_brake ||

  00051	a1 00 00 00 00	 mov	 eax, DWORD PTR ?current_flight_dynamics@@3PAUDYNAMICS_TYPE@@A ; current_flight_dynamics
  00056	8b 88 28 25 00
	00		 mov	 ecx, DWORD PTR [eax+9512]
  0005c	c1 e9 05	 shr	 ecx, 5
  0005f	83 e1 01	 and	 ecx, 1
  00062	75 1b		 jne	 SHORT $LN4@update_tai
  00064	a1 00 00 00 00	 mov	 eax, DWORD PTR ?current_flight_dynamics@@3PAUDYNAMICS_TYPE@@A ; current_flight_dynamics
  00069	0f b7 88 d4 1f
	00 00		 movzx	 ecx, WORD PTR [eax+8148]
  00070	85 c9		 test	 ecx, ecx
  00072	75 15		 jne	 SHORT $LN2@update_tai
  00074	6a 00		 push	 0
  00076	e8 00 00 00 00	 call	 ?get_current_dynamics_options@@YGHW4DYNAMICS_OPTIONS_TYPES@@@Z ; get_current_dynamics_options
  0007b	85 c0		 test	 eax, eax
  0007d	74 0a		 je	 SHORT $LN2@update_tai
$LN4@update_tai:

; 1259 : 		(!current_flight_dynamics->cross_coupling_effect.damaged) &&
; 1260 : 		(get_current_dynamics_options (DYNAMICS_OPTIONS_CROSS_COUPLING)))
; 1261 : 		desired = 0.0;

  0007f	0f 57 c0	 xorps	 xmm0, xmm0
  00082	f3 0f 11 45 fc	 movss	 DWORD PTR _desired$[ebp], xmm0

; 1262 : 	else

  00087	eb 3e		 jmp	 SHORT $LN3@update_tai
$LN2@update_tai:

; 1263 : 		desired = (((10 * PI * Mrpm * Md * Pmax) / (1649.0 * Tl))) / (Pmax);

  00089	f3 0f 10 05 00
	00 00 00	 movss	 xmm0, DWORD PTR __real@41fb53d2
  00091	f3 0f 59 45 f8	 mulss	 xmm0, DWORD PTR _Mrpm$[ebp]
  00096	f3 0f 59 45 f4	 mulss	 xmm0, DWORD PTR _Md$[ebp]
  0009b	f3 0f 59 45 f0	 mulss	 xmm0, DWORD PTR _Pmax$[ebp]
  000a0	f3 0f 5a c0	 cvtss2sd xmm0, xmm0
  000a4	f3 0f 5a 4d ec	 cvtss2sd xmm1, DWORD PTR _Tl$[ebp]
  000a9	f2 0f 59 0d 00
	00 00 00	 mulsd	 xmm1, QWORD PTR __real@4099c40000000000
  000b1	f2 0f 5e c1	 divsd	 xmm0, xmm1
  000b5	f3 0f 5a 4d f0	 cvtss2sd xmm1, DWORD PTR _Pmax$[ebp]
  000ba	f2 0f 5e c1	 divsd	 xmm0, xmm1
  000be	f2 0f 5a c0	 cvtsd2ss xmm0, xmm0
  000c2	f3 0f 11 45 fc	 movss	 DWORD PTR _desired$[ebp], xmm0
$LN3@update_tai:

; 1264 : 
; 1265 : 	current_flight_dynamics->cross_coupling_effect.value += (desired - current_flight_dynamics->cross_coupling_effect.value) * get_model_delta_time ();

  000c7	a1 00 00 00 00	 mov	 eax, DWORD PTR ?current_flight_dynamics@@3PAUDYNAMICS_TYPE@@A ; current_flight_dynamics
  000cc	f3 0f 10 45 fc	 movss	 xmm0, DWORD PTR _desired$[ebp]
  000d1	f3 0f 5c 80 c4
	1f 00 00	 subss	 xmm0, DWORD PTR [eax+8132]
  000d9	8b 0d 00 00 00
	00		 mov	 ecx, DWORD PTR ?current_flight_dynamics@@3PAUDYNAMICS_TYPE@@A ; current_flight_dynamics
  000df	f3 0f 59 81 90
	00 00 00	 mulss	 xmm0, DWORD PTR [ecx+144]
  000e7	8b 15 00 00 00
	00		 mov	 edx, DWORD PTR ?current_flight_dynamics@@3PAUDYNAMICS_TYPE@@A ; current_flight_dynamics
  000ed	f3 0f 58 82 c4
	1f 00 00	 addss	 xmm0, DWORD PTR [edx+8132]
  000f5	a1 00 00 00 00	 mov	 eax, DWORD PTR ?current_flight_dynamics@@3PAUDYNAMICS_TYPE@@A ; current_flight_dynamics
  000fa	f3 0f 11 80 c4
	1f 00 00	 movss	 DWORD PTR [eax+8132], xmm0

; 1266 : 	blade_pitch_induced_thrust_percentage = (((100.0 - current_flight_dynamics->cross_coupling_effect.value) /

  00102	a1 00 00 00 00	 mov	 eax, DWORD PTR ?current_flight_dynamics@@3PAUDYNAMICS_TYPE@@A ; current_flight_dynamics
  00107	f3 0f 5a 80 c4
	1f 00 00	 cvtss2sd xmm0, DWORD PTR [eax+8132]
  0010f	f2 0f 10 0d 00
	00 00 00	 movsd	 xmm1, QWORD PTR __real@4059000000000000
  00117	f2 0f 5c c8	 subsd	 xmm1, xmm0
  0011b	8b 0d 00 00 00
	00		 mov	 ecx, DWORD PTR ?current_flight_dynamics@@3PAUDYNAMICS_TYPE@@A ; current_flight_dynamics
  00121	f3 0f 5a 81 a0
	1f 00 00	 cvtss2sd xmm0, DWORD PTR [ecx+8096]
  00129	f2 0f 5e c8	 divsd	 xmm1, xmm0
  0012d	8b 15 00 00 00
	00		 mov	 edx, DWORD PTR ?current_flight_dynamics@@3PAUDYNAMICS_TYPE@@A ; current_flight_dynamics
  00133	f3 0f 5a 82 94
	1f 00 00	 cvtss2sd xmm0, DWORD PTR [edx+8084]
  0013b	f2 0f 59 c8	 mulsd	 xmm1, xmm0
  0013f	a1 00 00 00 00	 mov	 eax, DWORD PTR ?current_flight_dynamics@@3PAUDYNAMICS_TYPE@@A ; current_flight_dynamics
  00144	f3 0f 5a 80 c4
	1f 00 00	 cvtss2sd xmm0, DWORD PTR [eax+8132]
  0014c	f2 0f 58 c8	 addsd	 xmm1, xmm0
  00150	f2 0f 5e 0d 00
	00 00 00	 divsd	 xmm1, QWORD PTR __real@4059000000000000
  00158	f2 0f 5a c1	 cvtsd2ss xmm0, xmm1
  0015c	f3 0f 11 45 e8	 movss	 DWORD PTR _blade_pitch_induced_thrust_percentage$[ebp], xmm0

; 1267 : 															current_flight_dynamics->tail_blade_pitch.max) *
; 1268 : 															current_flight_dynamics->tail_blade_pitch.value +
; 1269 : 															current_flight_dynamics->cross_coupling_effect.value) / 100.0;
; 1270 : 
; 1271 : 	current_flight_dynamics->tail_rotor_induced_air.value = 0.0;

  00161	a1 00 00 00 00	 mov	 eax, DWORD PTR ?current_flight_dynamics@@3PAUDYNAMICS_TYPE@@A ; current_flight_dynamics
  00166	0f 57 c0	 xorps	 xmm0, xmm0
  00169	f3 0f 11 80 04
	1f 00 00	 movss	 DWORD PTR [eax+7940], xmm0

; 1272 : 
; 1273 : 	if (current_flight_dynamics->tail_rotor_rpm.max != 0.0)

  00171	a1 00 00 00 00	 mov	 eax, DWORD PTR ?current_flight_dynamics@@3PAUDYNAMICS_TYPE@@A ; current_flight_dynamics
  00176	f3 0f 5a 80 58
	1f 00 00	 cvtss2sd xmm0, DWORD PTR [eax+8024]
  0017e	66 0f 2e 05 00
	00 00 00	 ucomisd xmm0, QWORD PTR __real@0000000000000000
  00186	9f		 lahf
  00187	f6 c4 44	 test	 ah, 68			; 00000044H
  0018a	7b 42		 jnp	 SHORT $LN5@update_tai

; 1274 : 	{
; 1275 : 
; 1276 : 		current_flight_dynamics->tail_rotor_induced_air.value = (current_flight_dynamics->tail_rotor_rpm.value / current_flight_dynamics->tail_rotor_rpm.max) *

  0018c	a1 00 00 00 00	 mov	 eax, DWORD PTR ?current_flight_dynamics@@3PAUDYNAMICS_TYPE@@A ; current_flight_dynamics
  00191	8b 0d 00 00 00
	00		 mov	 ecx, DWORD PTR ?current_flight_dynamics@@3PAUDYNAMICS_TYPE@@A ; current_flight_dynamics
  00197	f3 0f 10 80 4c
	1f 00 00	 movss	 xmm0, DWORD PTR [eax+8012]
  0019f	f3 0f 5e 81 58
	1f 00 00	 divss	 xmm0, DWORD PTR [ecx+8024]
  001a7	f3 0f 5a c0	 cvtss2sd xmm0, xmm0
  001ab	f3 0f 5a 4d e8	 cvtss2sd xmm1, DWORD PTR _blade_pitch_induced_thrust_percentage$[ebp]
  001b0	f2 0f 5e 0d 00
	00 00 00	 divsd	 xmm1, QWORD PTR __real@4000000000000000
  001b8	f2 0f 59 c1	 mulsd	 xmm0, xmm1
  001bc	f2 0f 5a c0	 cvtsd2ss xmm0, xmm0
  001c0	8b 15 00 00 00
	00		 mov	 edx, DWORD PTR ?current_flight_dynamics@@3PAUDYNAMICS_TYPE@@A ; current_flight_dynamics
  001c6	f3 0f 11 82 04
	1f 00 00	 movss	 DWORD PTR [edx+7940], xmm0
$LN5@update_tai:

; 1277 : 																					(blade_pitch_induced_thrust_percentage / 2.0);
; 1278 : 	}
; 1279 : 
; 1280 : 	// debug_log ("tail induced %.2f, cross %.2f, tail pitch value %.2f, blade pitch: %.2f", current_flight_dynamics->tail_rotor_induced_air.value, current_flight_dynamics->cross_coupling_effect.value, current_flight_dynamics->tail_blade_pitch.value, blade_pitch_induced_thrust_percentage);
; 1281 : }

  001ce	5f		 pop	 edi
  001cf	5e		 pop	 esi
  001d0	5b		 pop	 ebx
  001d1	8b e5		 mov	 esp, ebp
  001d3	5d		 pop	 ebp
  001d4	c3		 ret	 0
?update_tail_rotor_thrust_dynamics@@YGXXZ ENDP		; update_tail_rotor_thrust_dynamics
_TEXT	ENDS
; Function compile flags: /Odtp /ZI
; File c:\users\nhv90\projects\eech\aphavoc\source\gunships\dynamics\hind\hi_dyn.c
;	COMDAT ?update_main_rotor_thrust_dynamics@@YGXXZ
_TEXT	SEGMENT
tv207 = -88						; size = 8
_x$ = -16						; size = 4
_x_min$ = -12						; size = 4
_x_max$ = -8						; size = 4
_rpm_ratio$ = -4					; size = 4
?update_main_rotor_thrust_dynamics@@YGXXZ PROC		; update_main_rotor_thrust_dynamics, COMDAT

; 1173 : {

  00000	55		 push	 ebp
  00001	8b ec		 mov	 ebp, esp
  00003	83 ec 58	 sub	 esp, 88			; 00000058H
  00006	53		 push	 ebx
  00007	56		 push	 esi
  00008	57		 push	 edi

; 1174 : 
; 1175 : 	float
; 1176 : 		rpm_ratio,
; 1177 : 		x_max,
; 1178 : 		x_min,
; 1179 : 		x;
; 1180 : 
; 1181 : 	x_max = current_flight_dynamics->main_blade_pitch.max;

  00009	a1 00 00 00 00	 mov	 eax, DWORD PTR ?current_flight_dynamics@@3PAUDYNAMICS_TYPE@@A ; current_flight_dynamics
  0000e	f3 0f 10 80 98
	1e 00 00	 movss	 xmm0, DWORD PTR [eax+7832]
  00016	f3 0f 11 45 f8	 movss	 DWORD PTR _x_max$[ebp], xmm0

; 1182 : 
; 1183 : 	x_min = current_flight_dynamics->main_blade_pitch.min;

  0001b	a1 00 00 00 00	 mov	 eax, DWORD PTR ?current_flight_dynamics@@3PAUDYNAMICS_TYPE@@A ; current_flight_dynamics
  00020	f3 0f 10 80 94
	1e 00 00	 movss	 xmm0, DWORD PTR [eax+7828]
  00028	f3 0f 11 45 f4	 movss	 DWORD PTR _x_min$[ebp], xmm0

; 1184 : 
; 1185 : 	x = current_flight_dynamics->main_blade_pitch.value;

  0002d	a1 00 00 00 00	 mov	 eax, DWORD PTR ?current_flight_dynamics@@3PAUDYNAMICS_TYPE@@A ; current_flight_dynamics
  00032	f3 0f 10 80 8c
	1e 00 00	 movss	 xmm0, DWORD PTR [eax+7820]
  0003a	f3 0f 11 45 f0	 movss	 DWORD PTR _x$[ebp], xmm0

; 1186 : 
; 1187 : //  arneh - let rotor have thrust even when rotor is disengaged from engine
; 1188 : //	if (!current_flight_dynamics->rotor_brake)
; 1189 : 	{
; 1190 : 
; 1191 : 		rpm_ratio = 0.0;

  0003f	0f 57 c0	 xorps	 xmm0, xmm0
  00042	f3 0f 11 45 fc	 movss	 DWORD PTR _rpm_ratio$[ebp], xmm0

; 1192 : 
; 1193 : 		if (current_flight_dynamics->main_rotor_rpm.max)

  00047	a1 00 00 00 00	 mov	 eax, DWORD PTR ?current_flight_dynamics@@3PAUDYNAMICS_TYPE@@A ; current_flight_dynamics
  0004c	f3 0f 10 80 20
	1e 00 00	 movss	 xmm0, DWORD PTR [eax+7712]
  00054	0f 2e 05 00 00
	00 00		 ucomiss xmm0, DWORD PTR __real@00000000
  0005b	9f		 lahf
  0005c	f6 c4 44	 test	 ah, 68			; 00000044H
  0005f	7b 20		 jnp	 SHORT $LN2@update_mai

; 1194 : 		{
; 1195 : 
; 1196 : 			rpm_ratio = current_flight_dynamics->main_rotor_rpm.value / current_flight_dynamics->main_rotor_rpm.max;

  00061	a1 00 00 00 00	 mov	 eax, DWORD PTR ?current_flight_dynamics@@3PAUDYNAMICS_TYPE@@A ; current_flight_dynamics
  00066	8b 0d 00 00 00
	00		 mov	 ecx, DWORD PTR ?current_flight_dynamics@@3PAUDYNAMICS_TYPE@@A ; current_flight_dynamics
  0006c	f3 0f 10 80 14
	1e 00 00	 movss	 xmm0, DWORD PTR [eax+7700]
  00074	f3 0f 5e 81 20
	1e 00 00	 divss	 xmm0, DWORD PTR [ecx+7712]
  0007c	f3 0f 11 45 fc	 movss	 DWORD PTR _rpm_ratio$[ebp], xmm0
$LN2@update_mai:

; 1197 : 		}
; 1198 : 
; 1199 : 		// loss of lift due to rotating the helicopter about the y axis.
; 1200 : 
; 1201 : 		if (fabs (current_flight_dynamics->main_rotor_rps.value) > 1.0)

  00081	a1 00 00 00 00	 mov	 eax, DWORD PTR ?current_flight_dynamics@@3PAUDYNAMICS_TYPE@@A ; current_flight_dynamics
  00086	51		 push	 ecx
  00087	f3 0f 10 80 2c
	1e 00 00	 movss	 xmm0, DWORD PTR [eax+7724]
  0008f	f3 0f 11 04 24	 movss	 DWORD PTR [esp], xmm0
  00094	e8 00 00 00 00	 call	 ?fabs@@YGMM@Z		; fabs
  00099	dd 5d a8	 fstp	 QWORD PTR tv207[ebp]
  0009c	f2 0f 10 45 a8	 movsd	 xmm0, QWORD PTR tv207[ebp]
  000a1	66 0f 2f 05 00
	00 00 00	 comisd	 xmm0, QWORD PTR __real@3ff0000000000000
  000a9	76 66		 jbe	 SHORT $LN4@update_mai

; 1202 : 		{
; 1203 : 
; 1204 : 			if (current_flight_dynamics->main_rotor_rps.value != 0.0)

  000ab	a1 00 00 00 00	 mov	 eax, DWORD PTR ?current_flight_dynamics@@3PAUDYNAMICS_TYPE@@A ; current_flight_dynamics
  000b0	f3 0f 5a 80 2c
	1e 00 00	 cvtss2sd xmm0, DWORD PTR [eax+7724]
  000b8	66 0f 2e 05 00
	00 00 00	 ucomisd xmm0, QWORD PTR __real@0000000000000000
  000c0	9f		 lahf
  000c1	f6 c4 44	 test	 ah, 68			; 00000044H
  000c4	7b 4b		 jnp	 SHORT $LN4@update_mai

; 1205 : 			{
; 1206 : 
; 1207 : 				rpm_ratio -= command_line_dynamics_yaw_altitude_loss * (current_flight_dynamics->heading.delta / (2 * PI * current_flight_dynamics->main_rotor_rps.value * get_model_delta_time ()));

  000c6	a1 00 00 00 00	 mov	 eax, DWORD PTR ?current_flight_dynamics@@3PAUDYNAMICS_TYPE@@A ; current_flight_dynamics
  000cb	f3 0f 10 05 00
	00 00 00	 movss	 xmm0, DWORD PTR __real@40c90fdb
  000d3	f3 0f 59 80 2c
	1e 00 00	 mulss	 xmm0, DWORD PTR [eax+7724]
  000db	8b 0d 00 00 00
	00		 mov	 ecx, DWORD PTR ?current_flight_dynamics@@3PAUDYNAMICS_TYPE@@A ; current_flight_dynamics
  000e1	f3 0f 59 81 90
	00 00 00	 mulss	 xmm0, DWORD PTR [ecx+144]
  000e9	8b 15 00 00 00
	00		 mov	 edx, DWORD PTR ?current_flight_dynamics@@3PAUDYNAMICS_TYPE@@A ; current_flight_dynamics
  000ef	f3 0f 10 8a 90
	21 00 00	 movss	 xmm1, DWORD PTR [edx+8592]
  000f7	f3 0f 5e c8	 divss	 xmm1, xmm0
  000fb	f3 0f 59 0d 00
	00 00 00	 mulss	 xmm1, DWORD PTR ?command_line_dynamics_yaw_altitude_loss@@3MA
  00103	f3 0f 10 45 fc	 movss	 xmm0, DWORD PTR _rpm_ratio$[ebp]
  00108	f3 0f 5c c1	 subss	 xmm0, xmm1
  0010c	f3 0f 11 45 fc	 movss	 DWORD PTR _rpm_ratio$[ebp], xmm0
$LN4@update_mai:

; 1208 : 			}
; 1209 : 		}
; 1210 : 
; 1211 : 		current_flight_dynamics->main_rotor_induced_air.value =

  00111	a1 00 00 00 00	 mov	 eax, DWORD PTR ?current_flight_dynamics@@3PAUDYNAMICS_TYPE@@A ; current_flight_dynamics
  00116	8b 0d 00 00 00
	00		 mov	 ecx, DWORD PTR ?current_flight_dynamics@@3PAUDYNAMICS_TYPE@@A ; current_flight_dynamics
  0011c	f3 0f 10 80 78
	1d 00 00	 movss	 xmm0, DWORD PTR [eax+7544]
  00124	f3 0f 5c 81 74
	1d 00 00	 subss	 xmm0, DWORD PTR [ecx+7540]
  0012c	f3 0f 10 4d f0	 movss	 xmm1, DWORD PTR _x$[ebp]
  00131	f3 0f 5c 4d f4	 subss	 xmm1, DWORD PTR _x_min$[ebp]
  00136	f3 0f 59 c1	 mulss	 xmm0, xmm1
  0013a	f3 0f 10 4d f8	 movss	 xmm1, DWORD PTR _x_max$[ebp]
  0013f	f3 0f 5c 4d f4	 subss	 xmm1, DWORD PTR _x_min$[ebp]
  00144	f3 0f 5e c1	 divss	 xmm0, xmm1
  00148	8b 15 00 00 00
	00		 mov	 edx, DWORD PTR ?current_flight_dynamics@@3PAUDYNAMICS_TYPE@@A ; current_flight_dynamics
  0014e	f3 0f 58 82 74
	1d 00 00	 addss	 xmm0, DWORD PTR [edx+7540]
  00156	f3 0f 59 45 fc	 mulss	 xmm0, DWORD PTR _rpm_ratio$[ebp]
  0015b	a1 00 00 00 00	 mov	 eax, DWORD PTR ?current_flight_dynamics@@3PAUDYNAMICS_TYPE@@A ; current_flight_dynamics
  00160	f3 0f 11 80 6c
	1d 00 00	 movss	 DWORD PTR [eax+7532], xmm0

; 1212 : 			rpm_ratio * (current_flight_dynamics->main_rotor_induced_air.min +
; 1213 : 			(current_flight_dynamics->main_rotor_induced_air.max - current_flight_dynamics->main_rotor_induced_air.min) *
; 1214 : 			(x - x_min) / (x_max - x_min));
; 1215 : 
; 1216 : 		current_flight_dynamics->main_rotor_induced_air.value *=

  00168	a1 00 00 00 00	 mov	 eax, DWORD PTR ?current_flight_dynamics@@3PAUDYNAMICS_TYPE@@A ; current_flight_dynamics
  0016d	8b 0d 00 00 00
	00		 mov	 ecx, DWORD PTR ?current_flight_dynamics@@3PAUDYNAMICS_TYPE@@A ; current_flight_dynamics
  00173	f3 0f 10 80 44
	21 00 00	 movss	 xmm0, DWORD PTR [eax+8516]
  0017b	f3 0f 5e 81 50
	21 00 00	 divss	 xmm0, DWORD PTR [ecx+8528]
  00183	8b 15 00 00 00
	00		 mov	 edx, DWORD PTR ?current_flight_dynamics@@3PAUDYNAMICS_TYPE@@A ; current_flight_dynamics
  00189	f3 0f 59 82 6c
	1d 00 00	 mulss	 xmm0, DWORD PTR [edx+7532]
  00191	a1 00 00 00 00	 mov	 eax, DWORD PTR ?current_flight_dynamics@@3PAUDYNAMICS_TYPE@@A ; current_flight_dynamics
  00196	f3 0f 11 80 6c
	1d 00 00	 movss	 DWORD PTR [eax+7532], xmm0

; 1217 : 			(current_flight_dynamics->air_density.value / current_flight_dynamics->air_density.max);
; 1218 : 	}
; 1219 : 
; 1220 : 	current_flight_dynamics->main_rotor_thrust.value =

  0019e	a1 00 00 00 00	 mov	 eax, DWORD PTR ?current_flight_dynamics@@3PAUDYNAMICS_TYPE@@A ; current_flight_dynamics
  001a3	f3 0f 5a 80 44
	21 00 00	 cvtss2sd xmm0, DWORD PTR [eax+8516]
  001ab	f2 0f 59 05 00
	00 00 00	 mulsd	 xmm0, QWORD PTR __real@4000000000000000
  001b3	8b 0d 00 00 00
	00		 mov	 ecx, DWORD PTR ?current_flight_dynamics@@3PAUDYNAMICS_TYPE@@A ; current_flight_dynamics
  001b9	f3 0f 5a 89 b4
	1d 00 00	 cvtss2sd xmm1, DWORD PTR [ecx+7604]
  001c1	f2 0f 59 c1	 mulsd	 xmm0, xmm1
  001c5	8b 15 00 00 00
	00		 mov	 edx, DWORD PTR ?current_flight_dynamics@@3PAUDYNAMICS_TYPE@@A ; current_flight_dynamics
  001cb	f3 0f 5a 8a 6c
	1d 00 00	 cvtss2sd xmm1, DWORD PTR [edx+7532]
  001d3	a1 00 00 00 00	 mov	 eax, DWORD PTR ?current_flight_dynamics@@3PAUDYNAMICS_TYPE@@A ; current_flight_dynamics
  001d8	f3 0f 5a 90 84
	20 00 00	 cvtss2sd xmm2, DWORD PTR [eax+8324]
  001e0	f2 0f 5e 15 00
	00 00 00	 divsd	 xmm2, QWORD PTR __real@4024000000000000
  001e8	f2 0f 5c ca	 subsd	 xmm1, xmm2
  001ec	8b 0d 00 00 00
	00		 mov	 ecx, DWORD PTR ?current_flight_dynamics@@3PAUDYNAMICS_TYPE@@A ; current_flight_dynamics
  001f2	f3 0f 5a 91 6c
	1d 00 00	 cvtss2sd xmm2, DWORD PTR [ecx+7532]
  001fa	f2 0f 59 ca	 mulsd	 xmm1, xmm2
  001fe	f2 0f 59 c1	 mulsd	 xmm0, xmm1
  00202	f2 0f 5a c0	 cvtsd2ss xmm0, xmm0
  00206	8b 15 00 00 00
	00		 mov	 edx, DWORD PTR ?current_flight_dynamics@@3PAUDYNAMICS_TYPE@@A ; current_flight_dynamics
  0020c	f3 0f 11 82 cc
	1d 00 00	 movss	 DWORD PTR [edx+7628], xmm0

; 1221 : 		2.0 * current_flight_dynamics->air_density.value * current_flight_dynamics->main_rotor_area.value *
; 1222 : 		((current_flight_dynamics->main_rotor_induced_air.value - (current_flight_dynamics->velocity_y.value / 10.0)) *
; 1223 : 		current_flight_dynamics->main_rotor_induced_air.value);
; 1224 : 
; 1225 : 	// debug everything seems to powerful..
; 1226 : 	current_flight_dynamics->main_rotor_thrust.value /= 16.0;

  00214	a1 00 00 00 00	 mov	 eax, DWORD PTR ?current_flight_dynamics@@3PAUDYNAMICS_TYPE@@A ; current_flight_dynamics
  00219	f3 0f 5a 80 cc
	1d 00 00	 cvtss2sd xmm0, DWORD PTR [eax+7628]
  00221	f2 0f 5e 05 00
	00 00 00	 divsd	 xmm0, QWORD PTR __real@4030000000000000
  00229	f2 0f 5a c0	 cvtsd2ss xmm0, xmm0
  0022d	8b 0d 00 00 00
	00		 mov	 ecx, DWORD PTR ?current_flight_dynamics@@3PAUDYNAMICS_TYPE@@A ; current_flight_dynamics
  00233	f3 0f 11 81 cc
	1d 00 00	 movss	 DWORD PTR [ecx+7628], xmm0

; 1227 : 	// end debug
; 1228 : 
; 1229 : 	//debug_log ("main induced %f, cross %f, main pitch value %f", current_flight_dynamics->main_rotor_induced_air.value, current_flight_dynamics->cross_coupling_effect.value, current_flight_dynamics->main_blade_pitch.value);
; 1230 : }

  0023b	5f		 pop	 edi
  0023c	5e		 pop	 esi
  0023d	5b		 pop	 ebx
  0023e	8b e5		 mov	 esp, ebp
  00240	5d		 pop	 ebp
  00241	c3		 ret	 0
?update_main_rotor_thrust_dynamics@@YGXXZ ENDP		; update_main_rotor_thrust_dynamics
_TEXT	ENDS
; Function compile flags: /Odtp /ZI
; File c:\users\nhv90\projects\eech\aphavoc\source\gunships\dynamics\hind\hi_dyn.c
;	COMDAT ?update_main_rotor_coning_angle@@YGXXZ
_TEXT	SEGMENT
tv144 = -92						; size = 4
tv145 = -88						; size = 4
_cm$ = -20						; size = 4
_cx$ = -16						; size = 4
_rx$ = -12						; size = 4
_lift$ = -8						; size = 4
_coning_angle$ = -4					; size = 4
?update_main_rotor_coning_angle@@YGXXZ PROC		; update_main_rotor_coning_angle, COMDAT

; 1142 : {

  00000	55		 push	 ebp
  00001	8b ec		 mov	 ebp, esp
  00003	83 ec 5c	 sub	 esp, 92			; 0000005cH
  00006	53		 push	 ebx
  00007	56		 push	 esi
  00008	57		 push	 edi

; 1143 : 
; 1144 : 	float
; 1145 : 		coning_angle,
; 1146 : 		lift,
; 1147 : 		rx,
; 1148 : 		cx,
; 1149 : 		cm;
; 1150 : 
; 1151 : 	// simple, linear coning from Cmin to Cmax over Rx wrt lift.
; 1152 : 
; 1153 : 	rx = current_flight_dynamics->lift.max;

  00009	a1 00 00 00 00	 mov	 eax, DWORD PTR ?current_flight_dynamics@@3PAUDYNAMICS_TYPE@@A ; current_flight_dynamics
  0000e	f3 0f 10 80 b0
	21 00 00	 movss	 xmm0, DWORD PTR [eax+8624]
  00016	f3 0f 11 45 f4	 movss	 DWORD PTR _rx$[ebp], xmm0

; 1154 : 	cx = current_flight_dynamics->main_rotor_coning_angle.max;

  0001b	a1 00 00 00 00	 mov	 eax, DWORD PTR ?current_flight_dynamics@@3PAUDYNAMICS_TYPE@@A ; current_flight_dynamics
  00020	f3 0f 10 80 50
	1e 00 00	 movss	 xmm0, DWORD PTR [eax+7760]
  00028	f3 0f 11 45 f0	 movss	 DWORD PTR _cx$[ebp], xmm0

; 1155 : 	cm = current_flight_dynamics->main_rotor_coning_angle.min;

  0002d	a1 00 00 00 00	 mov	 eax, DWORD PTR ?current_flight_dynamics@@3PAUDYNAMICS_TYPE@@A ; current_flight_dynamics
  00032	f3 0f 10 80 4c
	1e 00 00	 movss	 xmm0, DWORD PTR [eax+7756]
  0003a	f3 0f 11 45 ec	 movss	 DWORD PTR _cm$[ebp], xmm0

; 1156 : 	lift = current_flight_dynamics->lift.value;

  0003f	a1 00 00 00 00	 mov	 eax, DWORD PTR ?current_flight_dynamics@@3PAUDYNAMICS_TYPE@@A ; current_flight_dynamics
  00044	f3 0f 10 80 a4
	21 00 00	 movss	 xmm0, DWORD PTR [eax+8612]
  0004c	f3 0f 11 45 f8	 movss	 DWORD PTR _lift$[ebp], xmm0

; 1157 : 
; 1158 : 	// arneh - multiply with inverse rotor rpm, as high rotor rpm creates centrifugal force to counteract the lift
; 1159 : 	coning_angle = ((cx - cm) / rx) * lift + cm  * 100.0 / current_flight_dynamics->main_rotor_rpm.value;

  00051	f3 0f 10 45 f0	 movss	 xmm0, DWORD PTR _cx$[ebp]
  00056	f3 0f 5c 45 ec	 subss	 xmm0, DWORD PTR _cm$[ebp]
  0005b	f3 0f 5e 45 f4	 divss	 xmm0, DWORD PTR _rx$[ebp]
  00060	f3 0f 59 45 f8	 mulss	 xmm0, DWORD PTR _lift$[ebp]
  00065	f3 0f 5a c0	 cvtss2sd xmm0, xmm0
  00069	f3 0f 5a 4d ec	 cvtss2sd xmm1, DWORD PTR _cm$[ebp]
  0006e	f2 0f 59 0d 00
	00 00 00	 mulsd	 xmm1, QWORD PTR __real@4059000000000000
  00076	a1 00 00 00 00	 mov	 eax, DWORD PTR ?current_flight_dynamics@@3PAUDYNAMICS_TYPE@@A ; current_flight_dynamics
  0007b	f3 0f 5a 90 14
	1e 00 00	 cvtss2sd xmm2, DWORD PTR [eax+7700]
  00083	f2 0f 5e ca	 divsd	 xmm1, xmm2
  00087	f2 0f 58 c1	 addsd	 xmm0, xmm1
  0008b	f2 0f 5a c0	 cvtsd2ss xmm0, xmm0
  0008f	f3 0f 11 45 fc	 movss	 DWORD PTR _coning_angle$[ebp], xmm0

; 1160 : 
; 1161 : 	current_flight_dynamics->main_rotor_coning_angle.value += (coning_angle - current_flight_dynamics->main_rotor_coning_angle.value) * get_model_delta_time ();

  00094	a1 00 00 00 00	 mov	 eax, DWORD PTR ?current_flight_dynamics@@3PAUDYNAMICS_TYPE@@A ; current_flight_dynamics
  00099	f3 0f 10 45 fc	 movss	 xmm0, DWORD PTR _coning_angle$[ebp]
  0009e	f3 0f 5c 80 44
	1e 00 00	 subss	 xmm0, DWORD PTR [eax+7748]
  000a6	8b 0d 00 00 00
	00		 mov	 ecx, DWORD PTR ?current_flight_dynamics@@3PAUDYNAMICS_TYPE@@A ; current_flight_dynamics
  000ac	f3 0f 59 81 90
	00 00 00	 mulss	 xmm0, DWORD PTR [ecx+144]
  000b4	8b 15 00 00 00
	00		 mov	 edx, DWORD PTR ?current_flight_dynamics@@3PAUDYNAMICS_TYPE@@A ; current_flight_dynamics
  000ba	f3 0f 58 82 44
	1e 00 00	 addss	 xmm0, DWORD PTR [edx+7748]
  000c2	a1 00 00 00 00	 mov	 eax, DWORD PTR ?current_flight_dynamics@@3PAUDYNAMICS_TYPE@@A ; current_flight_dynamics
  000c7	f3 0f 11 80 44
	1e 00 00	 movss	 DWORD PTR [eax+7748], xmm0

; 1162 : 
; 1163 : 	current_flight_dynamics->main_rotor_coning_angle.value = bound (current_flight_dynamics->main_rotor_coning_angle.value,

  000cf	a1 00 00 00 00	 mov	 eax, DWORD PTR ?current_flight_dynamics@@3PAUDYNAMICS_TYPE@@A ; current_flight_dynamics
  000d4	8b 0d 00 00 00
	00		 mov	 ecx, DWORD PTR ?current_flight_dynamics@@3PAUDYNAMICS_TYPE@@A ; current_flight_dynamics
  000da	f3 0f 10 80 4c
	1e 00 00	 movss	 xmm0, DWORD PTR [eax+7756]
  000e2	0f 2f 81 44 1e
	00 00		 comiss	 xmm0, DWORD PTR [ecx+7748]
  000e9	76 15		 jbe	 SHORT $LN5@update_mai
  000eb	8b 15 00 00 00
	00		 mov	 edx, DWORD PTR ?current_flight_dynamics@@3PAUDYNAMICS_TYPE@@A ; current_flight_dynamics
  000f1	f3 0f 10 82 4c
	1e 00 00	 movss	 xmm0, DWORD PTR [edx+7756]
  000f9	f3 0f 11 45 a8	 movss	 DWORD PTR tv145[ebp], xmm0
  000fe	eb 4d		 jmp	 SHORT $LN6@update_mai
$LN5@update_mai:
  00100	a1 00 00 00 00	 mov	 eax, DWORD PTR ?current_flight_dynamics@@3PAUDYNAMICS_TYPE@@A ; current_flight_dynamics
  00105	8b 0d 00 00 00
	00		 mov	 ecx, DWORD PTR ?current_flight_dynamics@@3PAUDYNAMICS_TYPE@@A ; current_flight_dynamics
  0010b	f3 0f 10 80 44
	1e 00 00	 movss	 xmm0, DWORD PTR [eax+7748]
  00113	0f 2f 81 50 1e
	00 00		 comiss	 xmm0, DWORD PTR [ecx+7760]
  0011a	76 15		 jbe	 SHORT $LN3@update_mai
  0011c	8b 15 00 00 00
	00		 mov	 edx, DWORD PTR ?current_flight_dynamics@@3PAUDYNAMICS_TYPE@@A ; current_flight_dynamics
  00122	f3 0f 10 82 50
	1e 00 00	 movss	 xmm0, DWORD PTR [edx+7760]
  0012a	f3 0f 11 45 a4	 movss	 DWORD PTR tv144[ebp], xmm0
  0012f	eb 12		 jmp	 SHORT $LN4@update_mai
$LN3@update_mai:
  00131	a1 00 00 00 00	 mov	 eax, DWORD PTR ?current_flight_dynamics@@3PAUDYNAMICS_TYPE@@A ; current_flight_dynamics
  00136	f3 0f 10 80 44
	1e 00 00	 movss	 xmm0, DWORD PTR [eax+7748]
  0013e	f3 0f 11 45 a4	 movss	 DWORD PTR tv144[ebp], xmm0
$LN4@update_mai:
  00143	f3 0f 10 45 a4	 movss	 xmm0, DWORD PTR tv144[ebp]
  00148	f3 0f 11 45 a8	 movss	 DWORD PTR tv145[ebp], xmm0
$LN6@update_mai:
  0014d	8b 0d 00 00 00
	00		 mov	 ecx, DWORD PTR ?current_flight_dynamics@@3PAUDYNAMICS_TYPE@@A ; current_flight_dynamics
  00153	f3 0f 10 45 a8	 movss	 xmm0, DWORD PTR tv145[ebp]
  00158	f3 0f 11 81 44
	1e 00 00	 movss	 DWORD PTR [ecx+7748], xmm0

; 1164 : 																current_flight_dynamics->main_rotor_coning_angle.min,
; 1165 : 																current_flight_dynamics->main_rotor_coning_angle.max);
; 1166 : }

  00160	5f		 pop	 edi
  00161	5e		 pop	 esi
  00162	5b		 pop	 ebx
  00163	8b e5		 mov	 esp, ebp
  00165	5d		 pop	 ebp
  00166	c3		 ret	 0
?update_main_rotor_coning_angle@@YGXXZ ENDP		; update_main_rotor_coning_angle
_TEXT	ENDS
; Function compile flags: /Odtp /ZI
; File c:\users\nhv90\projects\eech\aphavoc\source\gunships\dynamics\hind\hi_dyn.c
;	COMDAT ?update_tail_rotor_rpm_dynamics@@YGXXZ
_TEXT	SEGMENT
tv144 = -100						; size = 8
tv166 = -92						; size = 4
tv145 = -92						; size = 8
tv167 = -88						; size = 4
_rpm$ = -20						; size = 4
_rpm_max$ = -16						; size = 4
_rpm_min$ = -12						; size = 4
_engine_rpm$ = -8					; size = 4
_number_of_engines$ = -4				; size = 4
?update_tail_rotor_rpm_dynamics@@YGXXZ PROC		; update_tail_rotor_rpm_dynamics, COMDAT

; 1092 : {

  00000	55		 push	 ebp
  00001	8b ec		 mov	 ebp, esp
  00003	83 ec 64	 sub	 esp, 100		; 00000064H
  00006	53		 push	 ebx
  00007	56		 push	 esi
  00008	57		 push	 edi

; 1093 : 
; 1094 : 	int
; 1095 : 		number_of_engines;
; 1096 : 
; 1097 : 	float
; 1098 : 		engine_rpm,
; 1099 : 		rpm_min,
; 1100 : 		rpm_max,
; 1101 : 		rpm;
; 1102 : 
; 1103 : 	rpm_min = current_flight_dynamics->tail_rotor_rpm.min;

  00009	a1 00 00 00 00	 mov	 eax, DWORD PTR ?current_flight_dynamics@@3PAUDYNAMICS_TYPE@@A ; current_flight_dynamics
  0000e	f3 0f 10 80 54
	1f 00 00	 movss	 xmm0, DWORD PTR [eax+8020]
  00016	f3 0f 11 45 f4	 movss	 DWORD PTR _rpm_min$[ebp], xmm0

; 1104 : 
; 1105 : 	rpm_max = current_flight_dynamics->tail_rotor_rpm.max;

  0001b	a1 00 00 00 00	 mov	 eax, DWORD PTR ?current_flight_dynamics@@3PAUDYNAMICS_TYPE@@A ; current_flight_dynamics
  00020	f3 0f 10 80 58
	1f 00 00	 movss	 xmm0, DWORD PTR [eax+8024]
  00028	f3 0f 11 45 f0	 movss	 DWORD PTR _rpm_max$[ebp], xmm0

; 1106 : 
; 1107 : 	number_of_engines = 2 - current_flight_dynamics->left_engine_rpm.damaged - current_flight_dynamics->right_engine_rpm.damaged;

  0002d	a1 00 00 00 00	 mov	 eax, DWORD PTR ?current_flight_dynamics@@3PAUDYNAMICS_TYPE@@A ; current_flight_dynamics
  00032	0f b7 88 8c 1c
	00 00		 movzx	 ecx, WORD PTR [eax+7308]
  00039	ba 02 00 00 00	 mov	 edx, 2
  0003e	2b d1		 sub	 edx, ecx
  00040	a1 00 00 00 00	 mov	 eax, DWORD PTR ?current_flight_dynamics@@3PAUDYNAMICS_TYPE@@A ; current_flight_dynamics
  00045	0f b7 88 ec 1c
	00 00		 movzx	 ecx, WORD PTR [eax+7404]
  0004c	2b d1		 sub	 edx, ecx
  0004e	89 55 fc	 mov	 DWORD PTR _number_of_engines$[ebp], edx

; 1108 : 
; 1109 : 	engine_rpm = 0.0;

  00051	0f 57 c0	 xorps	 xmm0, xmm0
  00054	f3 0f 11 45 f8	 movss	 DWORD PTR _engine_rpm$[ebp], xmm0

; 1110 : 
; 1111 : 	if (number_of_engines)

  00059	83 7d fc 00	 cmp	 DWORD PTR _number_of_engines$[ebp], 0
  0005d	74 29		 je	 SHORT $LN2@update_tai

; 1112 : 	{
; 1113 : 
; 1114 : 		engine_rpm = (current_flight_dynamics->left_engine_rpm.value + current_flight_dynamics->right_engine_rpm.value) / number_of_engines;

  0005f	a1 00 00 00 00	 mov	 eax, DWORD PTR ?current_flight_dynamics@@3PAUDYNAMICS_TYPE@@A ; current_flight_dynamics
  00064	8b 0d 00 00 00
	00		 mov	 ecx, DWORD PTR ?current_flight_dynamics@@3PAUDYNAMICS_TYPE@@A ; current_flight_dynamics
  0006a	f3 0f 10 80 7c
	1c 00 00	 movss	 xmm0, DWORD PTR [eax+7292]
  00072	f3 0f 58 81 dc
	1c 00 00	 addss	 xmm0, DWORD PTR [ecx+7388]
  0007a	f3 0f 2a 4d fc	 cvtsi2ss xmm1, DWORD PTR _number_of_engines$[ebp]
  0007f	f3 0f 5e c1	 divss	 xmm0, xmm1
  00083	f3 0f 11 45 f8	 movss	 DWORD PTR _engine_rpm$[ebp], xmm0
$LN2@update_tai:

; 1115 : 	}
; 1116 : 
; 1117 : 	rpm = 0.0;

  00088	0f 57 c0	 xorps	 xmm0, xmm0
  0008b	f3 0f 11 45 ec	 movss	 DWORD PTR _rpm$[ebp], xmm0

; 1118 : 
; 1119 : 	if (!current_flight_dynamics->tail_rotor_rpm.damaged)

  00090	a1 00 00 00 00	 mov	 eax, DWORD PTR ?current_flight_dynamics@@3PAUDYNAMICS_TYPE@@A ; current_flight_dynamics
  00095	0f b7 88 5c 1f
	00 00		 movzx	 ecx, WORD PTR [eax+8028]
  0009c	85 c9		 test	 ecx, ecx
  0009e	75 31		 jne	 SHORT $LN5@update_tai

; 1120 : 	{
; 1121 : 		if (!current_flight_dynamics->rotor_brake)

  000a0	a1 00 00 00 00	 mov	 eax, DWORD PTR ?current_flight_dynamics@@3PAUDYNAMICS_TYPE@@A ; current_flight_dynamics
  000a5	8b 88 28 25 00
	00		 mov	 ecx, DWORD PTR [eax+9512]
  000ab	c1 e9 05	 shr	 ecx, 5
  000ae	83 e1 01	 and	 ecx, 1
  000b1	75 0c		 jne	 SHORT $LN4@update_tai

; 1122 : 			rpm = engine_rpm;

  000b3	f3 0f 10 45 f8	 movss	 xmm0, DWORD PTR _engine_rpm$[ebp]
  000b8	f3 0f 11 45 ec	 movss	 DWORD PTR _rpm$[ebp], xmm0

; 1123 : 		// arneh, june 2006 - when rotor is disengaged from engines, main rotor drives tail rotor
; 1124 : 		else

  000bd	eb 12		 jmp	 SHORT $LN5@update_tai
$LN4@update_tai:

; 1125 : 			rpm = current_flight_dynamics->main_rotor_rpm.value;

  000bf	a1 00 00 00 00	 mov	 eax, DWORD PTR ?current_flight_dynamics@@3PAUDYNAMICS_TYPE@@A ; current_flight_dynamics
  000c4	f3 0f 10 80 14
	1e 00 00	 movss	 xmm0, DWORD PTR [eax+7700]
  000cc	f3 0f 11 45 ec	 movss	 DWORD PTR _rpm$[ebp], xmm0
$LN5@update_tai:

; 1126 : 	}
; 1127 : 
; 1128 : 	current_flight_dynamics->tail_rotor_rpm.delta = rpm - current_flight_dynamics->tail_rotor_rpm.value;

  000d1	a1 00 00 00 00	 mov	 eax, DWORD PTR ?current_flight_dynamics@@3PAUDYNAMICS_TYPE@@A ; current_flight_dynamics
  000d6	f3 0f 10 45 ec	 movss	 xmm0, DWORD PTR _rpm$[ebp]
  000db	f3 0f 5c 80 4c
	1f 00 00	 subss	 xmm0, DWORD PTR [eax+8012]
  000e3	8b 0d 00 00 00
	00		 mov	 ecx, DWORD PTR ?current_flight_dynamics@@3PAUDYNAMICS_TYPE@@A ; current_flight_dynamics
  000e9	f3 0f 11 81 50
	1f 00 00	 movss	 DWORD PTR [ecx+8016], xmm0

; 1129 : 
; 1130 : 	current_flight_dynamics->tail_rotor_rpm.delta = bound (current_flight_dynamics->tail_rotor_rpm.delta, -10.0, 10.0);

  000f1	a1 00 00 00 00	 mov	 eax, DWORD PTR ?current_flight_dynamics@@3PAUDYNAMICS_TYPE@@A ; current_flight_dynamics
  000f6	f3 0f 5a 80 50
	1f 00 00	 cvtss2sd xmm0, DWORD PTR [eax+8016]
  000fe	f2 0f 10 0d 00
	00 00 00	 movsd	 xmm1, QWORD PTR __real@c024000000000000
  00106	66 0f 2f c8	 comisd	 xmm1, xmm0
  0010a	76 0f		 jbe	 SHORT $LN9@update_tai
  0010c	f2 0f 10 05 00
	00 00 00	 movsd	 xmm0, QWORD PTR __real@c024000000000000
  00114	f2 0f 11 45 a4	 movsd	 QWORD PTR tv145[ebp], xmm0
  00119	eb 44		 jmp	 SHORT $LN10@update_tai
$LN9@update_tai:
  0011b	8b 0d 00 00 00
	00		 mov	 ecx, DWORD PTR ?current_flight_dynamics@@3PAUDYNAMICS_TYPE@@A ; current_flight_dynamics
  00121	f3 0f 5a 81 50
	1f 00 00	 cvtss2sd xmm0, DWORD PTR [ecx+8016]
  00129	66 0f 2f 05 00
	00 00 00	 comisd	 xmm0, QWORD PTR __real@4024000000000000
  00131	76 0f		 jbe	 SHORT $LN7@update_tai
  00133	f2 0f 10 05 00
	00 00 00	 movsd	 xmm0, QWORD PTR __real@4024000000000000
  0013b	f2 0f 11 45 9c	 movsd	 QWORD PTR tv144[ebp], xmm0
  00140	eb 13		 jmp	 SHORT $LN8@update_tai
$LN7@update_tai:
  00142	8b 15 00 00 00
	00		 mov	 edx, DWORD PTR ?current_flight_dynamics@@3PAUDYNAMICS_TYPE@@A ; current_flight_dynamics
  00148	f3 0f 5a 82 50
	1f 00 00	 cvtss2sd xmm0, DWORD PTR [edx+8016]
  00150	f2 0f 11 45 9c	 movsd	 QWORD PTR tv144[ebp], xmm0
$LN8@update_tai:
  00155	f2 0f 10 45 9c	 movsd	 xmm0, QWORD PTR tv144[ebp]
  0015a	f2 0f 11 45 a4	 movsd	 QWORD PTR tv145[ebp], xmm0
$LN10@update_tai:
  0015f	f2 0f 5a 45 a4	 cvtsd2ss xmm0, QWORD PTR tv145[ebp]
  00164	a1 00 00 00 00	 mov	 eax, DWORD PTR ?current_flight_dynamics@@3PAUDYNAMICS_TYPE@@A ; current_flight_dynamics
  00169	f3 0f 11 80 50
	1f 00 00	 movss	 DWORD PTR [eax+8016], xmm0

; 1131 : 
; 1132 : 	current_flight_dynamics->tail_rotor_rpm.value += current_flight_dynamics->tail_rotor_rpm.delta * get_model_delta_time ();

  00171	a1 00 00 00 00	 mov	 eax, DWORD PTR ?current_flight_dynamics@@3PAUDYNAMICS_TYPE@@A ; current_flight_dynamics
  00176	8b 0d 00 00 00
	00		 mov	 ecx, DWORD PTR ?current_flight_dynamics@@3PAUDYNAMICS_TYPE@@A ; current_flight_dynamics
  0017c	f3 0f 10 80 50
	1f 00 00	 movss	 xmm0, DWORD PTR [eax+8016]
  00184	f3 0f 59 81 90
	00 00 00	 mulss	 xmm0, DWORD PTR [ecx+144]
  0018c	8b 15 00 00 00
	00		 mov	 edx, DWORD PTR ?current_flight_dynamics@@3PAUDYNAMICS_TYPE@@A ; current_flight_dynamics
  00192	f3 0f 58 82 4c
	1f 00 00	 addss	 xmm0, DWORD PTR [edx+8012]
  0019a	a1 00 00 00 00	 mov	 eax, DWORD PTR ?current_flight_dynamics@@3PAUDYNAMICS_TYPE@@A ; current_flight_dynamics
  0019f	f3 0f 11 80 4c
	1f 00 00	 movss	 DWORD PTR [eax+8012], xmm0

; 1133 : 
; 1134 : 	current_flight_dynamics->tail_rotor_rpm.value = bound (current_flight_dynamics->tail_rotor_rpm.value, rpm_min, rpm_max);

  001a7	a1 00 00 00 00	 mov	 eax, DWORD PTR ?current_flight_dynamics@@3PAUDYNAMICS_TYPE@@A ; current_flight_dynamics
  001ac	f3 0f 10 45 f4	 movss	 xmm0, DWORD PTR _rpm_min$[ebp]
  001b1	0f 2f 80 4c 1f
	00 00		 comiss	 xmm0, DWORD PTR [eax+8012]
  001b8	76 0c		 jbe	 SHORT $LN13@update_tai
  001ba	f3 0f 10 45 f4	 movss	 xmm0, DWORD PTR _rpm_min$[ebp]
  001bf	f3 0f 11 45 a8	 movss	 DWORD PTR tv167[ebp], xmm0
  001c4	eb 3d		 jmp	 SHORT $LN14@update_tai
$LN13@update_tai:
  001c6	8b 0d 00 00 00
	00		 mov	 ecx, DWORD PTR ?current_flight_dynamics@@3PAUDYNAMICS_TYPE@@A ; current_flight_dynamics
  001cc	f3 0f 10 81 4c
	1f 00 00	 movss	 xmm0, DWORD PTR [ecx+8012]
  001d4	0f 2f 45 f0	 comiss	 xmm0, DWORD PTR _rpm_max$[ebp]
  001d8	76 0c		 jbe	 SHORT $LN11@update_tai
  001da	f3 0f 10 45 f0	 movss	 xmm0, DWORD PTR _rpm_max$[ebp]
  001df	f3 0f 11 45 a4	 movss	 DWORD PTR tv166[ebp], xmm0
  001e4	eb 13		 jmp	 SHORT $LN12@update_tai
$LN11@update_tai:
  001e6	8b 15 00 00 00
	00		 mov	 edx, DWORD PTR ?current_flight_dynamics@@3PAUDYNAMICS_TYPE@@A ; current_flight_dynamics
  001ec	f3 0f 10 82 4c
	1f 00 00	 movss	 xmm0, DWORD PTR [edx+8012]
  001f4	f3 0f 11 45 a4	 movss	 DWORD PTR tv166[ebp], xmm0
$LN12@update_tai:
  001f9	f3 0f 10 45 a4	 movss	 xmm0, DWORD PTR tv166[ebp]
  001fe	f3 0f 11 45 a8	 movss	 DWORD PTR tv167[ebp], xmm0
$LN14@update_tai:
  00203	a1 00 00 00 00	 mov	 eax, DWORD PTR ?current_flight_dynamics@@3PAUDYNAMICS_TYPE@@A ; current_flight_dynamics
  00208	f3 0f 10 45 a8	 movss	 xmm0, DWORD PTR tv167[ebp]
  0020d	f3 0f 11 80 4c
	1f 00 00	 movss	 DWORD PTR [eax+8012], xmm0

; 1135 : }

  00215	5f		 pop	 edi
  00216	5e		 pop	 esi
  00217	5b		 pop	 ebx
  00218	8b e5		 mov	 esp, ebp
  0021a	5d		 pop	 ebp
  0021b	c3		 ret	 0
?update_tail_rotor_rpm_dynamics@@YGXXZ ENDP		; update_tail_rotor_rpm_dynamics
_TEXT	ENDS
; Function compile flags: /Odtp /ZI
; File c:\users\nhv90\projects\eech\aphavoc\source\gunships\dynamics\hind\hi_dyn.c
;	COMDAT ?update_main_rotor_rpm_dynamics@@YGXXZ
_TEXT	SEGMENT
tv503 = -176						; size = 8
tv565 = -168						; size = 8
tv492 = -160						; size = 8
tv145 = -160						; size = 8
tv428 = -156						; size = 4
tv563 = -152						; size = 8
tv561 = -152						; size = 8
tv559 = -152						; size = 4
tv339 = -152						; size = 4
tv311 = -152						; size = 4
tv288 = -152						; size = 4
tv195 = -152						; size = 4
tv175 = -152						; size = 4
tv146 = -152						; size = 8
tv421 = -148						; size = 4
tv332 = -148						; size = 4
tv312 = -148						; size = 4
tv289 = -148						; size = 4
tv188 = -148						; size = 4
tv176 = -148						; size = 4
$T1 = -144						; size = 8
$T2 = -136						; size = 8
_profile_drag_factor$3 = -64				; size = 4
_induced_drag_factor$4 = -60				; size = 4
_autorotation_factor$5 = -56				; size = 4
_air_flow$6 = -52					; size = 4
_rpm_ratio$7 = -48					; size = 4
_autorotational_acceleration$8 = -44			; size = 4
_profile_drag$9 = -40					; size = 4
_induced_drag$10 = -36					; size = 4
_rotor_workload$ = -32					; size = 4
_rpm_max$ = -28						; size = 4
_rpm_min$ = -24						; size = 4
_rotor_rpm$ = -20					; size = 4
_blade_pitch$ = -16					; size = 4
_auto_min_delta$ = -12					; size = 4
_max_delta$ = -8					; size = 4
_number_of_engines$ = -4				; size = 4
?update_main_rotor_rpm_dynamics@@YGXXZ PROC		; update_main_rotor_rpm_dynamics, COMDAT

; 947  : {

  00000	55		 push	 ebp
  00001	8b ec		 mov	 ebp, esp
  00003	81 ec b0 00 00
	00		 sub	 esp, 176		; 000000b0H
  00009	53		 push	 ebx
  0000a	56		 push	 esi
  0000b	57		 push	 edi

; 948  : 
; 949  : 	int
; 950  : 		number_of_engines;
; 951  : 
; 952  : 	float
; 953  : 		max_delta,
; 954  : 		auto_min_delta,
; 955  : 		blade_pitch,
; 956  : 		rotor_rpm,
; 957  : 		rpm_min,
; 958  : 		rpm_max,
; 959  : 		rotor_workload = 0.0;

  0000c	0f 57 c0	 xorps	 xmm0, xmm0
  0000f	f3 0f 11 45 e0	 movss	 DWORD PTR _rotor_workload$[ebp], xmm0

; 960  : 
; 961  : 	rpm_min = current_flight_dynamics->main_rotor_rpm.min;

  00014	a1 00 00 00 00	 mov	 eax, DWORD PTR ?current_flight_dynamics@@3PAUDYNAMICS_TYPE@@A ; current_flight_dynamics
  00019	f3 0f 10 80 1c
	1e 00 00	 movss	 xmm0, DWORD PTR [eax+7708]
  00021	f3 0f 11 45 e8	 movss	 DWORD PTR _rpm_min$[ebp], xmm0

; 962  : 
; 963  : 	rpm_max = current_flight_dynamics->main_rotor_rpm.max;

  00026	a1 00 00 00 00	 mov	 eax, DWORD PTR ?current_flight_dynamics@@3PAUDYNAMICS_TYPE@@A ; current_flight_dynamics
  0002b	f3 0f 10 80 20
	1e 00 00	 movss	 xmm0, DWORD PTR [eax+7712]
  00033	f3 0f 11 45 e4	 movss	 DWORD PTR _rpm_max$[ebp], xmm0

; 964  : 	max_delta = 100.0 / 20.0;

  00038	f3 0f 10 05 00
	00 00 00	 movss	 xmm0, DWORD PTR __real@40a00000
  00040	f3 0f 11 45 f8	 movss	 DWORD PTR _max_delta$[ebp], xmm0

; 965  : 	auto_min_delta = -100.0 / 6.0;

  00045	f3 0f 10 05 00
	00 00 00	 movss	 xmm0, DWORD PTR __real@c1855555
  0004d	f3 0f 11 45 f4	 movss	 DWORD PTR _auto_min_delta$[ebp], xmm0

; 966  : 
; 967  : 	blade_pitch = ((current_flight_dynamics->main_blade_pitch.value - current_flight_dynamics->main_blade_pitch.min) /

  00052	a1 00 00 00 00	 mov	 eax, DWORD PTR ?current_flight_dynamics@@3PAUDYNAMICS_TYPE@@A ; current_flight_dynamics
  00057	8b 0d 00 00 00
	00		 mov	 ecx, DWORD PTR ?current_flight_dynamics@@3PAUDYNAMICS_TYPE@@A ; current_flight_dynamics
  0005d	f3 0f 10 80 8c
	1e 00 00	 movss	 xmm0, DWORD PTR [eax+7820]
  00065	f3 0f 5c 81 94
	1e 00 00	 subss	 xmm0, DWORD PTR [ecx+7828]
  0006d	8b 15 00 00 00
	00		 mov	 edx, DWORD PTR ?current_flight_dynamics@@3PAUDYNAMICS_TYPE@@A ; current_flight_dynamics
  00073	a1 00 00 00 00	 mov	 eax, DWORD PTR ?current_flight_dynamics@@3PAUDYNAMICS_TYPE@@A ; current_flight_dynamics
  00078	f3 0f 10 8a 98
	1e 00 00	 movss	 xmm1, DWORD PTR [edx+7832]
  00080	f3 0f 5c 88 94
	1e 00 00	 subss	 xmm1, DWORD PTR [eax+7828]
  00088	f3 0f 5e c1	 divss	 xmm0, xmm1
  0008c	f3 0f 11 45 f0	 movss	 DWORD PTR _blade_pitch$[ebp], xmm0

; 968  : 						(current_flight_dynamics->main_blade_pitch.max - current_flight_dynamics->main_blade_pitch.min));
; 969  : 
; 970  : 	if ((!current_flight_dynamics->rotor_brake) && (!current_flight_dynamics->main_rotor_rpm.damaged))

  00091	a1 00 00 00 00	 mov	 eax, DWORD PTR ?current_flight_dynamics@@3PAUDYNAMICS_TYPE@@A ; current_flight_dynamics
  00096	8b 88 28 25 00
	00		 mov	 ecx, DWORD PTR [eax+9512]
  0009c	c1 e9 05	 shr	 ecx, 5
  0009f	83 e1 01	 and	 ecx, 1
  000a2	0f 85 1c 02 00
	00		 jne	 $LN2@update_mai
  000a8	a1 00 00 00 00	 mov	 eax, DWORD PTR ?current_flight_dynamics@@3PAUDYNAMICS_TYPE@@A ; current_flight_dynamics
  000ad	0f b7 88 24 1e
	00 00		 movzx	 ecx, WORD PTR [eax+7716]
  000b4	85 c9		 test	 ecx, ecx
  000b6	0f 85 08 02 00
	00		 jne	 $LN2@update_mai

; 971  : 	{
; 972  : 
; 973  : 		// brake off
; 974  : 
; 975  : 		rotor_rpm = 0.0;

  000bc	0f 57 c0	 xorps	 xmm0, xmm0
  000bf	f3 0f 11 45 ec	 movss	 DWORD PTR _rotor_rpm$[ebp], xmm0

; 976  : 
; 977  : 		number_of_engines = 2 - current_flight_dynamics->left_engine_rpm.damaged - current_flight_dynamics->right_engine_rpm.damaged;

  000c4	a1 00 00 00 00	 mov	 eax, DWORD PTR ?current_flight_dynamics@@3PAUDYNAMICS_TYPE@@A ; current_flight_dynamics
  000c9	0f b7 88 8c 1c
	00 00		 movzx	 ecx, WORD PTR [eax+7308]
  000d0	ba 02 00 00 00	 mov	 edx, 2
  000d5	2b d1		 sub	 edx, ecx
  000d7	a1 00 00 00 00	 mov	 eax, DWORD PTR ?current_flight_dynamics@@3PAUDYNAMICS_TYPE@@A ; current_flight_dynamics
  000dc	0f b7 88 ec 1c
	00 00		 movzx	 ecx, WORD PTR [eax+7404]
  000e3	2b d1		 sub	 edx, ecx
  000e5	89 55 fc	 mov	 DWORD PTR _number_of_engines$[ebp], edx

; 978  : 
; 979  : 		//Werewolf - Rotor RPM depending on workload
; 980  : 		if (command_line_dynamics_advanced_engine_model == TRUE)

  000e8	83 3d 00 00 00
	00 01		 cmp	 DWORD PTR ?command_line_dynamics_advanced_engine_model@@3HA, 1 ; command_line_dynamics_advanced_engine_model
  000ef	0f 85 d8 00 00
	00		 jne	 $LN4@update_mai

; 981  : 		{
; 982  : 		  rotor_workload = ((float) fabs (current_flight_dynamics->main_rotor_pitch_angle.value) + (float) fabs (current_flight_dynamics->main_rotor_roll_angle.value))

  000f5	a1 00 00 00 00	 mov	 eax, DWORD PTR ?current_flight_dynamics@@3PAUDYNAMICS_TYPE@@A ; current_flight_dynamics
  000fa	51		 push	 ecx
  000fb	f3 0f 10 80 fc
	1d 00 00	 movss	 xmm0, DWORD PTR [eax+7676]
  00103	f3 0f 11 04 24	 movss	 DWORD PTR [esp], xmm0
  00108	e8 00 00 00 00	 call	 ?fabs@@YGMM@Z		; fabs
  0010d	d9 9d 6c ff ff
	ff		 fstp	 DWORD PTR tv421[ebp]
  00113	f3 0f 10 85 6c
	ff ff ff	 movss	 xmm0, DWORD PTR tv421[ebp]
  0011b	8b 0d 00 00 00
	00		 mov	 ecx, DWORD PTR ?current_flight_dynamics@@3PAUDYNAMICS_TYPE@@A ; current_flight_dynamics
  00121	51		 push	 ecx
  00122	f3 0f 10 89 e4
	1d 00 00	 movss	 xmm1, DWORD PTR [ecx+7652]
  0012a	f3 0f 11 0c 24	 movss	 DWORD PTR [esp], xmm1
  0012f	f3 0f 11 85 68
	ff ff ff	 movss	 DWORD PTR tv559[ebp], xmm0
  00137	e8 00 00 00 00	 call	 ?fabs@@YGMM@Z		; fabs
  0013c	d9 9d 64 ff ff
	ff		 fstp	 DWORD PTR tv428[ebp]
  00142	f3 0f 10 85 68
	ff ff ff	 movss	 xmm0, DWORD PTR tv559[ebp]
  0014a	f3 0f 58 85 64
	ff ff ff	 addss	 xmm0, DWORD PTR tv428[ebp]
  00152	f3 0f 5a c0	 cvtss2sd xmm0, xmm0
  00156	f2 0f 59 05 00
	00 00 00	 mulsd	 xmm0, QWORD PTR __real@403e000000000000
  0015e	f2 0f 5a c0	 cvtsd2ss xmm0, xmm0
  00162	f3 0f 11 45 e0	 movss	 DWORD PTR _rotor_workload$[ebp], xmm0

; 983  : 				  * 30.0;
; 984  : 		  rotor_workload = bound (rotor_workload, 0.0, 100.0);

  00167	f3 0f 5a 45 e0	 cvtss2sd xmm0, DWORD PTR _rotor_workload$[ebp]
  0016c	0f 57 c9	 xorps	 xmm1, xmm1
  0016f	66 0f 2f c8	 comisd	 xmm1, xmm0
  00173	76 0d		 jbe	 SHORT $LN17@update_mai
  00175	0f 57 c0	 xorps	 xmm0, xmm0
  00178	f2 0f 11 85 68
	ff ff ff	 movsd	 QWORD PTR tv146[ebp], xmm0
  00180	eb 3e		 jmp	 SHORT $LN18@update_mai
$LN17@update_mai:
  00182	f3 0f 5a 45 e0	 cvtss2sd xmm0, DWORD PTR _rotor_workload$[ebp]
  00187	66 0f 2f 05 00
	00 00 00	 comisd	 xmm0, QWORD PTR __real@4059000000000000
  0018f	76 12		 jbe	 SHORT $LN15@update_mai
  00191	f2 0f 10 05 00
	00 00 00	 movsd	 xmm0, QWORD PTR __real@4059000000000000
  00199	f2 0f 11 85 60
	ff ff ff	 movsd	 QWORD PTR tv145[ebp], xmm0
  001a1	eb 0d		 jmp	 SHORT $LN16@update_mai
$LN15@update_mai:
  001a3	f3 0f 5a 45 e0	 cvtss2sd xmm0, DWORD PTR _rotor_workload$[ebp]
  001a8	f2 0f 11 85 60
	ff ff ff	 movsd	 QWORD PTR tv145[ebp], xmm0
$LN16@update_mai:
  001b0	f2 0f 10 85 60
	ff ff ff	 movsd	 xmm0, QWORD PTR tv145[ebp]
  001b8	f2 0f 11 85 68
	ff ff ff	 movsd	 QWORD PTR tv146[ebp], xmm0
$LN18@update_mai:
  001c0	f2 0f 5a 85 68
	ff ff ff	 cvtsd2ss xmm0, QWORD PTR tv146[ebp]
  001c8	f3 0f 11 45 e0	 movss	 DWORD PTR _rotor_workload$[ebp], xmm0
$LN4@update_mai:

; 985  : 		  //debug_log ( "Rotor Workload=%.2f ", rotor_workload);
; 986  : 		}
; 987  : 
; 988  : 		if (number_of_engines)

  001cd	83 7d fc 00	 cmp	 DWORD PTR _number_of_engines$[ebp], 0
  001d1	74 3e		 je	 SHORT $LN6@update_mai

; 989  : 		{
; 990  : 			// arneh - rotor spins at the speed of the fastest engine
; 991  : 			rotor_rpm = max(current_flight_dynamics->left_engine_rpm.value, current_flight_dynamics->right_engine_rpm.value);

  001d3	a1 00 00 00 00	 mov	 eax, DWORD PTR ?current_flight_dynamics@@3PAUDYNAMICS_TYPE@@A ; current_flight_dynamics
  001d8	05 dc 1c 00 00	 add	 eax, 7388		; 00001cdcH
  001dd	50		 push	 eax
  001de	8b 0d 00 00 00
	00		 mov	 ecx, DWORD PTR ?current_flight_dynamics@@3PAUDYNAMICS_TYPE@@A ; current_flight_dynamics
  001e4	81 c1 7c 1c 00
	00		 add	 ecx, 7292		; 00001c7cH
  001ea	51		 push	 ecx
  001eb	e8 00 00 00 00	 call	 ??$max@M@std@@YGABMABM0@Z ; std::max<float>
  001f0	f3 0f 10 00	 movss	 xmm0, DWORD PTR [eax]
  001f4	f3 0f 11 45 ec	 movss	 DWORD PTR _rotor_rpm$[ebp], xmm0

; 992  : 			if (command_line_dynamics_advanced_engine_model == TRUE)

  001f9	83 3d 00 00 00
	00 01		 cmp	 DWORD PTR ?command_line_dynamics_advanced_engine_model@@3HA, 1 ; command_line_dynamics_advanced_engine_model
  00200	75 0f		 jne	 SHORT $LN6@update_mai

; 993  : 			  rotor_rpm -= rotor_workload; //Werewolf

  00202	f3 0f 10 45 ec	 movss	 xmm0, DWORD PTR _rotor_rpm$[ebp]
  00207	f3 0f 5c 45 e0	 subss	 xmm0, DWORD PTR _rotor_workload$[ebp]
  0020c	f3 0f 11 45 ec	 movss	 DWORD PTR _rotor_rpm$[ebp], xmm0
$LN6@update_mai:

; 994  : 		}
; 995  : 
; 996  : 		current_flight_dynamics->main_rotor_rpm.delta = rotor_rpm - current_flight_dynamics->main_rotor_rpm.value;

  00211	a1 00 00 00 00	 mov	 eax, DWORD PTR ?current_flight_dynamics@@3PAUDYNAMICS_TYPE@@A ; current_flight_dynamics
  00216	f3 0f 10 45 ec	 movss	 xmm0, DWORD PTR _rotor_rpm$[ebp]
  0021b	f3 0f 5c 80 14
	1e 00 00	 subss	 xmm0, DWORD PTR [eax+7700]
  00223	8b 0d 00 00 00
	00		 mov	 ecx, DWORD PTR ?current_flight_dynamics@@3PAUDYNAMICS_TYPE@@A ; current_flight_dynamics
  00229	f3 0f 11 81 18
	1e 00 00	 movss	 DWORD PTR [ecx+7704], xmm0

; 997  : 		current_flight_dynamics->main_rotor_rpm.delta = bound (current_flight_dynamics->main_rotor_rpm.delta, -max_delta, max_delta);

  00231	f3 0f 10 45 f8	 movss	 xmm0, DWORD PTR _max_delta$[ebp]
  00236	0f 57 05 00 00
	00 00		 xorps	 xmm0, DWORD PTR __xmm@80000000800000008000000080000000
  0023d	a1 00 00 00 00	 mov	 eax, DWORD PTR ?current_flight_dynamics@@3PAUDYNAMICS_TYPE@@A ; current_flight_dynamics
  00242	0f 2f 80 18 1e
	00 00		 comiss	 xmm0, DWORD PTR [eax+7704]
  00249	76 16		 jbe	 SHORT $LN21@update_mai
  0024b	f3 0f 10 45 f8	 movss	 xmm0, DWORD PTR _max_delta$[ebp]
  00250	0f 57 05 00 00
	00 00		 xorps	 xmm0, DWORD PTR __xmm@80000000800000008000000080000000
  00257	f3 0f 11 85 6c
	ff ff ff	 movss	 DWORD PTR tv176[ebp], xmm0
  0025f	eb 49		 jmp	 SHORT $LN22@update_mai
$LN21@update_mai:
  00261	8b 0d 00 00 00
	00		 mov	 ecx, DWORD PTR ?current_flight_dynamics@@3PAUDYNAMICS_TYPE@@A ; current_flight_dynamics
  00267	f3 0f 10 81 18
	1e 00 00	 movss	 xmm0, DWORD PTR [ecx+7704]
  0026f	0f 2f 45 f8	 comiss	 xmm0, DWORD PTR _max_delta$[ebp]
  00273	76 0f		 jbe	 SHORT $LN19@update_mai
  00275	f3 0f 10 45 f8	 movss	 xmm0, DWORD PTR _max_delta$[ebp]
  0027a	f3 0f 11 85 68
	ff ff ff	 movss	 DWORD PTR tv175[ebp], xmm0
  00282	eb 16		 jmp	 SHORT $LN20@update_mai
$LN19@update_mai:
  00284	8b 15 00 00 00
	00		 mov	 edx, DWORD PTR ?current_flight_dynamics@@3PAUDYNAMICS_TYPE@@A ; current_flight_dynamics
  0028a	f3 0f 10 82 18
	1e 00 00	 movss	 xmm0, DWORD PTR [edx+7704]
  00292	f3 0f 11 85 68
	ff ff ff	 movss	 DWORD PTR tv175[ebp], xmm0
$LN20@update_mai:
  0029a	f3 0f 10 85 68
	ff ff ff	 movss	 xmm0, DWORD PTR tv175[ebp]
  002a2	f3 0f 11 85 6c
	ff ff ff	 movss	 DWORD PTR tv176[ebp], xmm0
$LN22@update_mai:
  002aa	a1 00 00 00 00	 mov	 eax, DWORD PTR ?current_flight_dynamics@@3PAUDYNAMICS_TYPE@@A ; current_flight_dynamics
  002af	f3 0f 10 85 6c
	ff ff ff	 movss	 xmm0, DWORD PTR tv176[ebp]
  002b7	f3 0f 11 80 18
	1e 00 00	 movss	 DWORD PTR [eax+7704], xmm0

; 998  : 	}
; 999  : 	else

  002bf	e9 be 03 00 00	 jmp	 $LN8@update_mai
$LN2@update_mai:

; 1000 : 	{
; 1001 : 		// arneh - rotor brake on (rotor disengaged)
; 1002 : 		// modelling of how autorotation affects rotor RPM
; 1003 : 
; 1004 : 		float
; 1005 : 			induced_drag, profile_drag,
; 1006 : 			autorotational_acceleration,
; 1007 : 			rpm_ratio, air_flow,
; 1008 : 			autorotation_factor = 1.5,

  002c4	f3 0f 10 05 00
	00 00 00	 movss	 xmm0, DWORD PTR __real@3fc00000
  002cc	f3 0f 11 45 c8	 movss	 DWORD PTR _autorotation_factor$5[ebp], xmm0

; 1009 : 			induced_drag_factor = 8.0,

  002d1	f3 0f 10 05 00
	00 00 00	 movss	 xmm0, DWORD PTR __real@41000000
  002d9	f3 0f 11 45 c4	 movss	 DWORD PTR _induced_drag_factor$4[ebp], xmm0

; 1010 : 			profile_drag_factor = 3.5;

  002de	f3 0f 10 05 00
	00 00 00	 movss	 xmm0, DWORD PTR __real@40600000
  002e6	f3 0f 11 45 c0	 movss	 DWORD PTR _profile_drag_factor$3[ebp], xmm0

; 1011 : 
; 1012 : 		// when not engaged to engine, rpm may exceed max
; 1013 : 		// (but rotor will fail before reaching the new limit)
; 1014 : 		rpm_max *= 1.5;

  002eb	f3 0f 5a 45 e4	 cvtss2sd xmm0, DWORD PTR _rpm_max$[ebp]
  002f0	f2 0f 59 05 00
	00 00 00	 mulsd	 xmm0, QWORD PTR __real@3ff8000000000000
  002f8	f2 0f 5a c0	 cvtsd2ss xmm0, xmm0
  002fc	f3 0f 11 45 e4	 movss	 DWORD PTR _rpm_max$[ebp], xmm0

; 1015 : 		rpm_ratio = current_flight_dynamics->main_rotor_rpm.value / rpm_max;

  00301	a1 00 00 00 00	 mov	 eax, DWORD PTR ?current_flight_dynamics@@3PAUDYNAMICS_TYPE@@A ; current_flight_dynamics
  00306	f3 0f 10 80 14
	1e 00 00	 movss	 xmm0, DWORD PTR [eax+7700]
  0030e	f3 0f 5e 45 e4	 divss	 xmm0, DWORD PTR _rpm_max$[ebp]
  00313	f3 0f 11 45 d0	 movss	 DWORD PTR _rpm_ratio$7[ebp], xmm0

; 1016 : 
; 1017 : 		if (get_local_entity_int_value (get_gunship_entity (), INT_TYPE_AIRBORNE_AIRCRAFT))

  00318	83 3d 00 00 00
	00 00		 cmp	 DWORD PTR ?gunship_entity@@3PAUENTITY@@A, 0 ; gunship_entity
  0031f	74 0f		 je	 SHORT $LN23@update_mai
  00321	a1 00 00 00 00	 mov	 eax, DWORD PTR ?gunship_entity@@3PAUENTITY@@A ; gunship_entity
  00326	8b 08		 mov	 ecx, DWORD PTR [eax]
  00328	89 8d 6c ff ff
	ff		 mov	 DWORD PTR tv188[ebp], ecx
  0032e	eb 20		 jmp	 SHORT $LN24@update_mai
$LN23@update_mai:
  00330	68 f9 03 00 00	 push	 1017			; 000003f9H
  00335	68 00 00 00 00	 push	 OFFSET ??_C@_0EM@BHCFJHIE@c?3?2users?2nhv90?2projects?2eech?2ap@
  0033a	8b 15 00 00 00
	00		 mov	 edx, DWORD PTR ?null_entity_pointer_message@@3PBDB ; null_entity_pointer_message
  00340	52		 push	 edx
  00341	e8 00 00 00 00	 call	 ?process_assert@@YGXPBD0H@Z ; process_assert
  00346	c7 85 6c ff ff
	ff 00 00 00 00	 mov	 DWORD PTR tv188[ebp], 0
$LN24@update_mai:
  00350	b8 01 00 00 00	 mov	 eax, 1
  00355	85 c0		 test	 eax, eax
  00357	74 0c		 je	 SHORT $LN25@update_mai
  00359	c7 85 68 ff ff
	ff 04 00 00 00	 mov	 DWORD PTR tv195[ebp], 4
  00363	eb 20		 jmp	 SHORT $LN26@update_mai
$LN25@update_mai:
  00365	68 f9 03 00 00	 push	 1017			; 000003f9H
  0036a	68 00 00 00 00	 push	 OFFSET ??_C@_0EM@BHCFJHIE@c?3?2users?2nhv90?2projects?2eech?2ap@
  0036f	8b 0d 00 00 00
	00		 mov	 ecx, DWORD PTR ?overload_invalid_int_type_message@@3PBDB ; overload_invalid_int_type_message
  00375	51		 push	 ecx
  00376	e8 00 00 00 00	 call	 ?process_assert@@YGXPBD0H@Z ; process_assert
  0037b	c7 85 68 ff ff
	ff 00 00 00 00	 mov	 DWORD PTR tv195[ebp], 0
$LN26@update_mai:
  00385	6a 04		 push	 4
  00387	8b 15 00 00 00
	00		 mov	 edx, DWORD PTR ?gunship_entity@@3PAUENTITY@@A ; gunship_entity
  0038d	52		 push	 edx
  0038e	69 85 6c ff ff
	ff 5c 04 00 00	 imul	 eax, DWORD PTR tv188[ebp], 1116
  00398	8b 8d 68 ff ff
	ff		 mov	 ecx, DWORD PTR tv195[ebp]
  0039e	8b 94 88 00 00
	00 00		 mov	 edx, DWORD PTR ?fn_get_local_entity_int_value@@3PAY0BBH@P6GHPAUENTITY@@W4INT_TYPES@@@ZA[eax+ecx*4]
  003a5	ff d2		 call	 edx
  003a7	85 c0		 test	 eax, eax
  003a9	0f 84 be 02 00
	00		 je	 $LN7@update_mai

; 1018 : 		{
; 1019 : 			air_flow = get_3d_vector_magnitude (&current_flight_dynamics->model_motion_vector);

  003af	a1 00 00 00 00	 mov	 eax, DWORD PTR ?current_flight_dynamics@@3PAUDYNAMICS_TYPE@@A ; current_flight_dynamics
  003b4	05 30 1c 00 00	 add	 eax, 7216		; 00001c30H
  003b9	50		 push	 eax
  003ba	e8 00 00 00 00	 call	 ?get_3d_vector_magnitude@@YGMPBUVEC3D@@@Z ; get_3d_vector_magnitude
  003bf	d9 5d cc	 fstp	 DWORD PTR _air_flow$6[ebp]

; 1020 : 
; 1021 : 			// function of vertical speed through air, but adjusted for blade pitch, which reduces the autorotational part of the rotor
; 1022 : 			// at about 10 m/s drag and autorotational acceleration should cancel each other out (all other things being ideal)
; 1023 : 			autorotational_acceleration = current_flight_dynamics->g_force.value *

  003c2	0f 57 c0	 xorps	 xmm0, xmm0
  003c5	f2 0f 11 85 78
	ff ff ff	 movsd	 QWORD PTR $T2[ebp], xmm0
  003cd	f3 0f 5a 45 f0	 cvtss2sd xmm0, DWORD PTR _blade_pitch$[ebp]
  003d2	f2 0f 10 0d 00
	00 00 00	 movsd	 xmm1, QWORD PTR __real@3fe3333333333333
  003da	f2 0f 5c c8	 subsd	 xmm1, xmm0
  003de	f2 0f 11 8d 70
	ff ff ff	 movsd	 QWORD PTR $T1[ebp], xmm1
  003e6	a1 00 00 00 00	 mov	 eax, DWORD PTR ?current_flight_dynamics@@3PAUDYNAMICS_TYPE@@A ; current_flight_dynamics
  003eb	f3 0f 5a 80 5c
	24 00 00	 cvtss2sd xmm0, DWORD PTR [eax+9308]
  003f3	8b 0d 00 00 00
	00		 mov	 ecx, DWORD PTR ?current_flight_dynamics@@3PAUDYNAMICS_TYPE@@A ; current_flight_dynamics
  003f9	f3 0f 5a 89 84
	20 00 00	 cvtss2sd xmm1, DWORD PTR [ecx+8324]
  00401	f2 0f 5e 0d 00
	00 00 00	 divsd	 xmm1, QWORD PTR __real@4024000000000000
  00409	0f 57 0d 00 00
	00 00		 xorps	 xmm1, QWORD PTR __xmm@80000000000000008000000000000000
  00410	f2 0f 59 c1	 mulsd	 xmm0, xmm1
  00414	8d 95 78 ff ff
	ff		 lea	 edx, DWORD PTR $T2[ebp]
  0041a	52		 push	 edx
  0041b	8d 85 70 ff ff
	ff		 lea	 eax, DWORD PTR $T1[ebp]
  00421	50		 push	 eax
  00422	f2 0f 11 85 68
	ff ff ff	 movsd	 QWORD PTR tv561[ebp], xmm0
  0042a	e8 00 00 00 00	 call	 ??$max@N@std@@YGABNABN0@Z ; std::max<double>
  0042f	f2 0f 10 85 68
	ff ff ff	 movsd	 xmm0, QWORD PTR tv561[ebp]
  00437	f2 0f 59 00	 mulsd	 xmm0, QWORD PTR [eax]
  0043b	f2 0f 5a c0	 cvtsd2ss xmm0, xmm0
  0043f	f3 0f 11 45 d4	 movss	 DWORD PTR _autorotational_acceleration$8[ebp], xmm0

; 1024 : 				-(current_flight_dynamics->velocity_y.value / 10.0) *
; 1025 : 				max(0.6 - blade_pitch, 0.0);
; 1026 : 
; 1027 : 			// induced drag on rotor.  drops sharpy up to 60kts, slowly after that
; 1028 : 			// clean air produces less drag, hence a hover (where lots of vortexes
; 1029 : 			// creates dirty air) has the most induced drag
; 1030 : 			induced_drag = blade_pitch * (1.0 - rpm_ratio);

  00444	f3 0f 5a 45 f0	 cvtss2sd xmm0, DWORD PTR _blade_pitch$[ebp]
  00449	f3 0f 5a 4d d0	 cvtss2sd xmm1, DWORD PTR _rpm_ratio$7[ebp]
  0044e	f2 0f 10 15 00
	00 00 00	 movsd	 xmm2, QWORD PTR __real@3ff0000000000000
  00456	f2 0f 5c d1	 subsd	 xmm2, xmm1
  0045a	f2 0f 59 c2	 mulsd	 xmm0, xmm2
  0045e	f2 0f 5a c0	 cvtsd2ss xmm0, xmm0
  00462	f3 0f 11 45 dc	 movss	 DWORD PTR _induced_drag$10[ebp], xmm0

; 1031 : 			if (air_flow < knots_to_metres_per_second(60))

  00467	f3 0f 10 05 00
	00 00 00	 movss	 xmm0, DWORD PTR __real@41f760a7
  0046f	0f 2f 45 cc	 comiss	 xmm0, DWORD PTR _air_flow$6[ebp]
  00473	76 39		 jbe	 SHORT $LN9@update_mai

; 1032 : 				induced_drag *= 1.0 - (air_flow / knots_to_metres_per_second(60) * 0.6);

  00475	f3 0f 10 45 cc	 movss	 xmm0, DWORD PTR _air_flow$6[ebp]
  0047a	f3 0f 5e 05 00
	00 00 00	 divss	 xmm0, DWORD PTR __real@41f760a7
  00482	f3 0f 5a c0	 cvtss2sd xmm0, xmm0
  00486	f2 0f 59 05 00
	00 00 00	 mulsd	 xmm0, QWORD PTR __real@3fe3333333333333
  0048e	f2 0f 10 0d 00
	00 00 00	 movsd	 xmm1, QWORD PTR __real@3ff0000000000000
  00496	f2 0f 5c c8	 subsd	 xmm1, xmm0
  0049a	f3 0f 5a 45 dc	 cvtss2sd xmm0, DWORD PTR _induced_drag$10[ebp]
  0049f	f2 0f 59 c1	 mulsd	 xmm0, xmm1
  004a3	f2 0f 5a c0	 cvtsd2ss xmm0, xmm0
  004a7	f3 0f 11 45 dc	 movss	 DWORD PTR _induced_drag$10[ebp], xmm0

; 1033 : 			else

  004ac	eb 37		 jmp	 SHORT $LN10@update_mai
$LN9@update_mai:

; 1034 : 				induced_drag *= 0.6 - (air_flow / knots_to_metres_per_second(200) * 0.3);

  004ae	f3 0f 10 45 cc	 movss	 xmm0, DWORD PTR _air_flow$6[ebp]
  004b3	f3 0f 5e 05 00
	00 00 00	 divss	 xmm0, DWORD PTR __real@42ce25e0
  004bb	f3 0f 5a c0	 cvtss2sd xmm0, xmm0
  004bf	f2 0f 59 05 00
	00 00 00	 mulsd	 xmm0, QWORD PTR __real@3fd3333333333333
  004c7	f2 0f 10 0d 00
	00 00 00	 movsd	 xmm1, QWORD PTR __real@3fe3333333333333
  004cf	f2 0f 5c c8	 subsd	 xmm1, xmm0
  004d3	f3 0f 5a 45 dc	 cvtss2sd xmm0, DWORD PTR _induced_drag$10[ebp]
  004d8	f2 0f 59 c1	 mulsd	 xmm0, xmm1
  004dc	f2 0f 5a c0	 cvtsd2ss xmm0, xmm0
  004e0	f3 0f 11 45 dc	 movss	 DWORD PTR _induced_drag$10[ebp], xmm0
$LN10@update_mai:

; 1035 : 
; 1036 : 			// profile drag increases with speed and rotor rpm
; 1037 : 			profile_drag = rpm_ratio * (0.5 + 0.5 * blade_pitch) *

  004e5	f3 0f 5a 45 d0	 cvtss2sd xmm0, DWORD PTR _rpm_ratio$7[ebp]
  004ea	f3 0f 5a 4d f0	 cvtss2sd xmm1, DWORD PTR _blade_pitch$[ebp]
  004ef	f2 0f 59 0d 00
	00 00 00	 mulsd	 xmm1, QWORD PTR __real@3fe0000000000000
  004f7	f2 0f 58 0d 00
	00 00 00	 addsd	 xmm1, QWORD PTR __real@3fe0000000000000
  004ff	f2 0f 59 c1	 mulsd	 xmm0, xmm1
  00503	a1 00 00 00 00	 mov	 eax, DWORD PTR ?current_flight_dynamics@@3PAUDYNAMICS_TYPE@@A ; current_flight_dynamics
  00508	8b 0d 00 00 00
	00		 mov	 ecx, DWORD PTR ?current_flight_dynamics@@3PAUDYNAMICS_TYPE@@A ; current_flight_dynamics
  0050e	f3 0f 10 88 9c
	20 00 00	 movss	 xmm1, DWORD PTR [eax+8348]
  00516	f3 0f 5e 89 a8
	20 00 00	 divss	 xmm1, DWORD PTR [ecx+8360]
  0051e	51		 push	 ecx
  0051f	f3 0f 11 0c 24	 movss	 DWORD PTR [esp], xmm1
  00524	f2 0f 11 85 68
	ff ff ff	 movsd	 QWORD PTR tv563[ebp], xmm0
  0052c	e8 00 00 00 00	 call	 ?fabs@@YGMM@Z		; fabs
  00531	dd 9d 60 ff ff
	ff		 fstp	 QWORD PTR tv492[ebp]
  00537	f2 0f 10 85 60
	ff ff ff	 movsd	 xmm0, QWORD PTR tv492[ebp]
  0053f	f2 0f 59 05 00
	00 00 00	 mulsd	 xmm0, QWORD PTR __real@3fd999999999999a
  00547	f2 0f 58 05 00
	00 00 00	 addsd	 xmm0, QWORD PTR __real@3fe0000000000000
  0054f	8b 15 00 00 00
	00		 mov	 edx, DWORD PTR ?current_flight_dynamics@@3PAUDYNAMICS_TYPE@@A ; current_flight_dynamics
  00555	a1 00 00 00 00	 mov	 eax, DWORD PTR ?current_flight_dynamics@@3PAUDYNAMICS_TYPE@@A ; current_flight_dynamics
  0055a	f3 0f 10 8a 6c
	20 00 00	 movss	 xmm1, DWORD PTR [edx+8300]
  00562	f3 0f 5e 88 a8
	20 00 00	 divss	 xmm1, DWORD PTR [eax+8360]
  0056a	51		 push	 ecx
  0056b	f3 0f 11 0c 24	 movss	 DWORD PTR [esp], xmm1
  00570	f2 0f 11 85 58
	ff ff ff	 movsd	 QWORD PTR tv565[ebp], xmm0
  00578	e8 00 00 00 00	 call	 ?fabs@@YGMM@Z		; fabs
  0057d	dd 9d 50 ff ff
	ff		 fstp	 QWORD PTR tv503[ebp]
  00583	f2 0f 10 85 58
	ff ff ff	 movsd	 xmm0, QWORD PTR tv565[ebp]
  0058b	f2 0f 58 85 50
	ff ff ff	 addsd	 xmm0, QWORD PTR tv503[ebp]
  00593	f2 0f 10 8d 68
	ff ff ff	 movsd	 xmm1, QWORD PTR tv563[ebp]
  0059b	f2 0f 59 c8	 mulsd	 xmm1, xmm0
  0059f	f2 0f 5a c1	 cvtsd2ss xmm0, xmm1
  005a3	f3 0f 11 45 d8	 movss	 DWORD PTR _profile_drag$9[ebp], xmm0

; 1038 : 				(0.5 + 0.4 * fabs(current_flight_dynamics->velocity_z.value / current_flight_dynamics->velocity_z.max) +
; 1039 : 				fabs(current_flight_dynamics->velocity_x.value / current_flight_dynamics->velocity_z.max));
; 1040 : 
; 1041 : 			// calulate change in rotor RPM.  The factors for autorotational_acceleration,
; 1042 : 			// profile_drag and induced_drag have been arrived at by experimentation.
; 1043 : 			// Feel free to change the factors if you feel they are wrong.
; 1044 : 			current_flight_dynamics->main_rotor_rpm.delta = 2.0 *

  005a8	f3 0f 10 45 c8	 movss	 xmm0, DWORD PTR _autorotation_factor$5[ebp]
  005ad	f3 0f 59 45 d4	 mulss	 xmm0, DWORD PTR _autorotational_acceleration$8[ebp]
  005b2	f3 0f 10 4d c0	 movss	 xmm1, DWORD PTR _profile_drag_factor$3[ebp]
  005b7	f3 0f 59 4d d8	 mulss	 xmm1, DWORD PTR _profile_drag$9[ebp]
  005bc	f3 0f 5c c1	 subss	 xmm0, xmm1
  005c0	f3 0f 10 4d c4	 movss	 xmm1, DWORD PTR _induced_drag_factor$4[ebp]
  005c5	f3 0f 59 4d dc	 mulss	 xmm1, DWORD PTR _induced_drag$10[ebp]
  005ca	f3 0f 5c c1	 subss	 xmm0, xmm1
  005ce	f3 0f 5a c0	 cvtss2sd xmm0, xmm0
  005d2	f2 0f 59 05 00
	00 00 00	 mulsd	 xmm0, QWORD PTR __real@4000000000000000
  005da	f2 0f 5a c0	 cvtsd2ss xmm0, xmm0
  005de	a1 00 00 00 00	 mov	 eax, DWORD PTR ?current_flight_dynamics@@3PAUDYNAMICS_TYPE@@A ; current_flight_dynamics
  005e3	f3 0f 11 80 18
	1e 00 00	 movss	 DWORD PTR [eax+7704], xmm0

; 1045 : 				(autorotation_factor * autorotational_acceleration -
; 1046 : 				 profile_drag_factor * profile_drag -
; 1047 : 				 induced_drag_factor * induced_drag);
; 1048 : 
; 1049 : 			current_flight_dynamics->main_rotor_rpm.delta = bound (current_flight_dynamics->main_rotor_rpm.delta, auto_min_delta, max_delta);

  005eb	a1 00 00 00 00	 mov	 eax, DWORD PTR ?current_flight_dynamics@@3PAUDYNAMICS_TYPE@@A ; current_flight_dynamics
  005f0	f3 0f 10 45 f4	 movss	 xmm0, DWORD PTR _auto_min_delta$[ebp]
  005f5	0f 2f 80 18 1e
	00 00		 comiss	 xmm0, DWORD PTR [eax+7704]
  005fc	76 0f		 jbe	 SHORT $LN29@update_mai
  005fe	f3 0f 10 45 f4	 movss	 xmm0, DWORD PTR _auto_min_delta$[ebp]
  00603	f3 0f 11 85 6c
	ff ff ff	 movss	 DWORD PTR tv289[ebp], xmm0
  0060b	eb 49		 jmp	 SHORT $LN30@update_mai
$LN29@update_mai:
  0060d	8b 0d 00 00 00
	00		 mov	 ecx, DWORD PTR ?current_flight_dynamics@@3PAUDYNAMICS_TYPE@@A ; current_flight_dynamics
  00613	f3 0f 10 81 18
	1e 00 00	 movss	 xmm0, DWORD PTR [ecx+7704]
  0061b	0f 2f 45 f8	 comiss	 xmm0, DWORD PTR _max_delta$[ebp]
  0061f	76 0f		 jbe	 SHORT $LN27@update_mai
  00621	f3 0f 10 45 f8	 movss	 xmm0, DWORD PTR _max_delta$[ebp]
  00626	f3 0f 11 85 68
	ff ff ff	 movss	 DWORD PTR tv288[ebp], xmm0
  0062e	eb 16		 jmp	 SHORT $LN28@update_mai
$LN27@update_mai:
  00630	8b 15 00 00 00
	00		 mov	 edx, DWORD PTR ?current_flight_dynamics@@3PAUDYNAMICS_TYPE@@A ; current_flight_dynamics
  00636	f3 0f 10 82 18
	1e 00 00	 movss	 xmm0, DWORD PTR [edx+7704]
  0063e	f3 0f 11 85 68
	ff ff ff	 movss	 DWORD PTR tv288[ebp], xmm0
$LN28@update_mai:
  00646	f3 0f 10 85 68
	ff ff ff	 movss	 xmm0, DWORD PTR tv288[ebp]
  0064e	f3 0f 11 85 6c
	ff ff ff	 movss	 DWORD PTR tv289[ebp], xmm0
$LN30@update_mai:
  00656	a1 00 00 00 00	 mov	 eax, DWORD PTR ?current_flight_dynamics@@3PAUDYNAMICS_TYPE@@A ; current_flight_dynamics
  0065b	f3 0f 10 85 6c
	ff ff ff	 movss	 xmm0, DWORD PTR tv289[ebp]
  00663	f3 0f 11 80 18
	1e 00 00	 movss	 DWORD PTR [eax+7704], xmm0

; 1050 : 		}
; 1051 : 		else

  0066b	eb 15		 jmp	 SHORT $LN8@update_mai
$LN7@update_mai:

; 1052 : 		{
; 1053 : 
; 1054 : 			current_flight_dynamics->main_rotor_rpm.delta = -5.0;

  0066d	a1 00 00 00 00	 mov	 eax, DWORD PTR ?current_flight_dynamics@@3PAUDYNAMICS_TYPE@@A ; current_flight_dynamics
  00672	f3 0f 10 05 00
	00 00 00	 movss	 xmm0, DWORD PTR __real@c0a00000
  0067a	f3 0f 11 80 18
	1e 00 00	 movss	 DWORD PTR [eax+7704], xmm0
$LN8@update_mai:

; 1055 : 		}
; 1056 : 
; 1057 : 		//debug_log ("DYNAMICS: rotor rpm %f delta %f, velocity y %f, accelaration y %f", current_flight_dynamics->main_rotor_rpm.value, current_flight_dynamics->main_rotor_rpm.delta, current_flight_dynamics->velocity_y.value, current_flight_dynamics->velocity_y.delta);
; 1058 : 	}
; 1059 : 
; 1060 : 	current_flight_dynamics->main_rotor_rpm.value += current_flight_dynamics->main_rotor_rpm.delta * get_model_delta_time ();

  00682	a1 00 00 00 00	 mov	 eax, DWORD PTR ?current_flight_dynamics@@3PAUDYNAMICS_TYPE@@A ; current_flight_dynamics
  00687	8b 0d 00 00 00
	00		 mov	 ecx, DWORD PTR ?current_flight_dynamics@@3PAUDYNAMICS_TYPE@@A ; current_flight_dynamics
  0068d	f3 0f 10 80 18
	1e 00 00	 movss	 xmm0, DWORD PTR [eax+7704]
  00695	f3 0f 59 81 90
	00 00 00	 mulss	 xmm0, DWORD PTR [ecx+144]
  0069d	8b 15 00 00 00
	00		 mov	 edx, DWORD PTR ?current_flight_dynamics@@3PAUDYNAMICS_TYPE@@A ; current_flight_dynamics
  006a3	f3 0f 58 82 14
	1e 00 00	 addss	 xmm0, DWORD PTR [edx+7700]
  006ab	a1 00 00 00 00	 mov	 eax, DWORD PTR ?current_flight_dynamics@@3PAUDYNAMICS_TYPE@@A ; current_flight_dynamics
  006b0	f3 0f 11 80 14
	1e 00 00	 movss	 DWORD PTR [eax+7700], xmm0

; 1061 : 
; 1062 : 	current_flight_dynamics->main_rotor_rpm.value = bound (current_flight_dynamics->main_rotor_rpm.value, rpm_min, rpm_max);

  006b8	a1 00 00 00 00	 mov	 eax, DWORD PTR ?current_flight_dynamics@@3PAUDYNAMICS_TYPE@@A ; current_flight_dynamics
  006bd	f3 0f 10 45 e8	 movss	 xmm0, DWORD PTR _rpm_min$[ebp]
  006c2	0f 2f 80 14 1e
	00 00		 comiss	 xmm0, DWORD PTR [eax+7700]
  006c9	76 0f		 jbe	 SHORT $LN33@update_mai
  006cb	f3 0f 10 45 e8	 movss	 xmm0, DWORD PTR _rpm_min$[ebp]
  006d0	f3 0f 11 85 6c
	ff ff ff	 movss	 DWORD PTR tv312[ebp], xmm0
  006d8	eb 49		 jmp	 SHORT $LN34@update_mai
$LN33@update_mai:
  006da	8b 0d 00 00 00
	00		 mov	 ecx, DWORD PTR ?current_flight_dynamics@@3PAUDYNAMICS_TYPE@@A ; current_flight_dynamics
  006e0	f3 0f 10 81 14
	1e 00 00	 movss	 xmm0, DWORD PTR [ecx+7700]
  006e8	0f 2f 45 e4	 comiss	 xmm0, DWORD PTR _rpm_max$[ebp]
  006ec	76 0f		 jbe	 SHORT $LN31@update_mai
  006ee	f3 0f 10 45 e4	 movss	 xmm0, DWORD PTR _rpm_max$[ebp]
  006f3	f3 0f 11 85 68
	ff ff ff	 movss	 DWORD PTR tv311[ebp], xmm0
  006fb	eb 16		 jmp	 SHORT $LN32@update_mai
$LN31@update_mai:
  006fd	8b 15 00 00 00
	00		 mov	 edx, DWORD PTR ?current_flight_dynamics@@3PAUDYNAMICS_TYPE@@A ; current_flight_dynamics
  00703	f3 0f 10 82 14
	1e 00 00	 movss	 xmm0, DWORD PTR [edx+7700]
  0070b	f3 0f 11 85 68
	ff ff ff	 movss	 DWORD PTR tv311[ebp], xmm0
$LN32@update_mai:
  00713	f3 0f 10 85 68
	ff ff ff	 movss	 xmm0, DWORD PTR tv311[ebp]
  0071b	f3 0f 11 85 6c
	ff ff ff	 movss	 DWORD PTR tv312[ebp], xmm0
$LN34@update_mai:
  00723	a1 00 00 00 00	 mov	 eax, DWORD PTR ?current_flight_dynamics@@3PAUDYNAMICS_TYPE@@A ; current_flight_dynamics
  00728	f3 0f 10 85 6c
	ff ff ff	 movss	 xmm0, DWORD PTR tv312[ebp]
  00730	f3 0f 11 80 14
	1e 00 00	 movss	 DWORD PTR [eax+7700], xmm0

; 1063 : 
; 1064 : 	// arneh - damage rotor if rpm too high (can only happen when rotor is disengaged)
; 1065 : 	if (current_flight_dynamics->main_rotor_rpm.value > 125.0)

  00738	a1 00 00 00 00	 mov	 eax, DWORD PTR ?current_flight_dynamics@@3PAUDYNAMICS_TYPE@@A ; current_flight_dynamics
  0073d	f3 0f 5a 80 14
	1e 00 00	 cvtss2sd xmm0, DWORD PTR [eax+7700]
  00745	66 0f 2f 05 00
	00 00 00	 comisd	 xmm0, QWORD PTR __real@405f400000000000
  0074d	76 09		 jbe	 SHORT $LN11@update_mai

; 1066 : 		dynamics_damage_model(DYNAMICS_DAMAGE_MAIN_ROTOR, FALSE);

  0074f	6a 00		 push	 0
  00751	6a 02		 push	 2
  00753	e8 00 00 00 00	 call	 ?dynamics_damage_model@@YGXIH@Z ; dynamics_damage_model
$LN11@update_mai:

; 1067 : 
; 1068 : 	// low rotor speech
; 1069 : 	if ((current_flight_dynamics->main_rotor_rpm.value < 60.0) && (current_flight_dynamics->main_rotor_rpm.delta < 0.0) && (get_local_entity_int_value (get_gunship_entity (), INT_TYPE_AIRBORNE_AIRCRAFT)))

  00758	a1 00 00 00 00	 mov	 eax, DWORD PTR ?current_flight_dynamics@@3PAUDYNAMICS_TYPE@@A ; current_flight_dynamics
  0075d	f3 0f 5a 80 14
	1e 00 00	 cvtss2sd xmm0, DWORD PTR [eax+7700]
  00765	f2 0f 10 0d 00
	00 00 00	 movsd	 xmm1, QWORD PTR __real@404e000000000000
  0076d	66 0f 2f c8	 comisd	 xmm1, xmm0
  00771	0f 86 f8 00 00
	00		 jbe	 $LN13@update_mai
  00777	a1 00 00 00 00	 mov	 eax, DWORD PTR ?current_flight_dynamics@@3PAUDYNAMICS_TYPE@@A ; current_flight_dynamics
  0077c	f3 0f 5a 80 18
	1e 00 00	 cvtss2sd xmm0, DWORD PTR [eax+7704]
  00784	0f 57 c9	 xorps	 xmm1, xmm1
  00787	66 0f 2f c8	 comisd	 xmm1, xmm0
  0078b	0f 86 de 00 00
	00		 jbe	 $LN13@update_mai
  00791	83 3d 00 00 00
	00 00		 cmp	 DWORD PTR ?gunship_entity@@3PAUENTITY@@A, 0 ; gunship_entity
  00798	74 0f		 je	 SHORT $LN35@update_mai
  0079a	a1 00 00 00 00	 mov	 eax, DWORD PTR ?gunship_entity@@3PAUENTITY@@A ; gunship_entity
  0079f	8b 08		 mov	 ecx, DWORD PTR [eax]
  007a1	89 8d 6c ff ff
	ff		 mov	 DWORD PTR tv332[ebp], ecx
  007a7	eb 20		 jmp	 SHORT $LN36@update_mai
$LN35@update_mai:
  007a9	68 2d 04 00 00	 push	 1069			; 0000042dH
  007ae	68 00 00 00 00	 push	 OFFSET ??_C@_0EM@BHCFJHIE@c?3?2users?2nhv90?2projects?2eech?2ap@
  007b3	8b 15 00 00 00
	00		 mov	 edx, DWORD PTR ?null_entity_pointer_message@@3PBDB ; null_entity_pointer_message
  007b9	52		 push	 edx
  007ba	e8 00 00 00 00	 call	 ?process_assert@@YGXPBD0H@Z ; process_assert
  007bf	c7 85 6c ff ff
	ff 00 00 00 00	 mov	 DWORD PTR tv332[ebp], 0
$LN36@update_mai:
  007c9	b8 01 00 00 00	 mov	 eax, 1
  007ce	85 c0		 test	 eax, eax
  007d0	74 0c		 je	 SHORT $LN37@update_mai
  007d2	c7 85 68 ff ff
	ff 04 00 00 00	 mov	 DWORD PTR tv339[ebp], 4
  007dc	eb 20		 jmp	 SHORT $LN38@update_mai
$LN37@update_mai:
  007de	68 2d 04 00 00	 push	 1069			; 0000042dH
  007e3	68 00 00 00 00	 push	 OFFSET ??_C@_0EM@BHCFJHIE@c?3?2users?2nhv90?2projects?2eech?2ap@
  007e8	8b 0d 00 00 00
	00		 mov	 ecx, DWORD PTR ?overload_invalid_int_type_message@@3PBDB ; overload_invalid_int_type_message
  007ee	51		 push	 ecx
  007ef	e8 00 00 00 00	 call	 ?process_assert@@YGXPBD0H@Z ; process_assert
  007f4	c7 85 68 ff ff
	ff 00 00 00 00	 mov	 DWORD PTR tv339[ebp], 0
$LN38@update_mai:
  007fe	6a 04		 push	 4
  00800	8b 15 00 00 00
	00		 mov	 edx, DWORD PTR ?gunship_entity@@3PAUENTITY@@A ; gunship_entity
  00806	52		 push	 edx
  00807	69 85 6c ff ff
	ff 5c 04 00 00	 imul	 eax, DWORD PTR tv332[ebp], 1116
  00811	8b 8d 68 ff ff
	ff		 mov	 ecx, DWORD PTR tv339[ebp]
  00817	8b 94 88 00 00
	00 00		 mov	 edx, DWORD PTR ?fn_get_local_entity_int_value@@3PAY0BBH@P6GHPAUENTITY@@W4INT_TYPES@@@ZA[eax+ecx*4]
  0081e	ff d2		 call	 edx
  00820	85 c0		 test	 eax, eax
  00822	74 4b		 je	 SHORT $LN13@update_mai

; 1070 : 	{
; 1071 : 
; 1072 : 		static float
; 1073 : 			time = 0.0;
; 1074 : 
; 1075 : 		time -= get_model_delta_time ();

  00824	a1 00 00 00 00	 mov	 eax, DWORD PTR ?current_flight_dynamics@@3PAUDYNAMICS_TYPE@@A ; current_flight_dynamics
  00829	f3 0f 10 05 00
	00 00 00	 movss	 xmm0, DWORD PTR ?time@?BM@??update_main_rotor_rpm_dynamics@@YGXXZ@4MA
  00831	f3 0f 5c 80 90
	00 00 00	 subss	 xmm0, DWORD PTR [eax+144]
  00839	f3 0f 11 05 00
	00 00 00	 movss	 DWORD PTR ?time@?BM@??update_main_rotor_rpm_dynamics@@YGXXZ@4MA, xmm0

; 1076 : 
; 1077 : 		if (time <= 0.0)

  00841	f3 0f 5a 05 00
	00 00 00	 cvtss2sd xmm0, DWORD PTR ?time@?BM@??update_main_rotor_rpm_dynamics@@YGXXZ@4MA
  00849	0f 57 c9	 xorps	 xmm1, xmm1
  0084c	66 0f 2f c8	 comisd	 xmm1, xmm0
  00850	72 1d		 jb	 SHORT $LN13@update_mai

; 1078 : 		{
; 1079 : 
; 1080 : 			play_client_server_warning_message (get_gunship_entity (), SPEECH_SYSTEM_LOW_ROTOR_RPM);

  00852	6a 29		 push	 41			; 00000029H
  00854	a1 00 00 00 00	 mov	 eax, DWORD PTR ?gunship_entity@@3PAUENTITY@@A ; gunship_entity
  00859	50		 push	 eax
  0085a	e8 00 00 00 00	 call	 ?play_client_server_warning_message@@YGHPAUENTITY@@H@Z ; play_client_server_warning_message

; 1081 : 
; 1082 : 			time = DYNAMICS_LOW_ROTOR_RPM_SPEECH_TIME;

  0085f	f3 0f 10 05 00
	00 00 00	 movss	 xmm0, DWORD PTR __real@41a00000
  00867	f3 0f 11 05 00
	00 00 00	 movss	 DWORD PTR ?time@?BM@??update_main_rotor_rpm_dynamics@@YGXXZ@4MA, xmm0
$LN13@update_mai:

; 1083 : 		}
; 1084 : 	}
; 1085 : }

  0086f	5f		 pop	 edi
  00870	5e		 pop	 esi
  00871	5b		 pop	 ebx
  00872	8b e5		 mov	 esp, ebp
  00874	5d		 pop	 ebp
  00875	c3		 ret	 0
?update_main_rotor_rpm_dynamics@@YGXXZ ENDP		; update_main_rotor_rpm_dynamics
_TEXT	ENDS
; Function compile flags: /Odtp /ZI
; File c:\users\nhv90\projects\eech\aphavoc\source\gunships\dynamics\hind\hi_dyn.c
;	COMDAT ?update_tail_rotor_dynamics@@YGXXZ
_TEXT	SEGMENT
tv175 = -80						; size = 4
tv176 = -76						; size = 4
_blade_pitch$ = -8					; size = 4
_pedal$ = -4						; size = 4
?update_tail_rotor_dynamics@@YGXXZ PROC			; update_tail_rotor_dynamics, COMDAT

; 896  : {

  00000	55		 push	 ebp
  00001	8b ec		 mov	 ebp, esp
  00003	83 ec 50	 sub	 esp, 80			; 00000050H
  00006	53		 push	 ebx
  00007	56		 push	 esi
  00008	57		 push	 edi

; 897  : 
; 898  : 	float
; 899  : 		pedal,
; 900  : 		blade_pitch;
; 901  : 
; 902  : 	// tail rotor angular position
; 903  : 
; 904  : 	current_flight_dynamics->tail_rotor_angular_position.value += current_flight_dynamics->tail_rotor_rps.value * PI2 * get_model_delta_time ();

  00009	a1 00 00 00 00	 mov	 eax, DWORD PTR ?current_flight_dynamics@@3PAUDYNAMICS_TYPE@@A ; current_flight_dynamics
  0000e	f3 0f 10 80 64
	1f 00 00	 movss	 xmm0, DWORD PTR [eax+8036]
  00016	f3 0f 59 05 00
	00 00 00	 mulss	 xmm0, DWORD PTR __real@40c90fdb
  0001e	8b 0d 00 00 00
	00		 mov	 ecx, DWORD PTR ?current_flight_dynamics@@3PAUDYNAMICS_TYPE@@A ; current_flight_dynamics
  00024	f3 0f 59 81 90
	00 00 00	 mulss	 xmm0, DWORD PTR [ecx+144]
  0002c	8b 15 00 00 00
	00		 mov	 edx, DWORD PTR ?current_flight_dynamics@@3PAUDYNAMICS_TYPE@@A ; current_flight_dynamics
  00032	f3 0f 58 82 7c
	1f 00 00	 addss	 xmm0, DWORD PTR [edx+8060]
  0003a	a1 00 00 00 00	 mov	 eax, DWORD PTR ?current_flight_dynamics@@3PAUDYNAMICS_TYPE@@A ; current_flight_dynamics
  0003f	f3 0f 11 80 7c
	1f 00 00	 movss	 DWORD PTR [eax+8060], xmm0

; 905  : 
; 906  : 	if (current_flight_dynamics->tail_rotor_angular_position.value >= PI2)

  00047	a1 00 00 00 00	 mov	 eax, DWORD PTR ?current_flight_dynamics@@3PAUDYNAMICS_TYPE@@A ; current_flight_dynamics
  0004c	f3 0f 10 80 7c
	1f 00 00	 movss	 xmm0, DWORD PTR [eax+8060]
  00054	0f 2f 05 00 00
	00 00		 comiss	 xmm0, DWORD PTR __real@40c90fdb
  0005b	72 25		 jb	 SHORT $LN2@update_tai

; 907  : 	{
; 908  : 
; 909  : 		current_flight_dynamics->tail_rotor_angular_position.value -= PI2;

  0005d	a1 00 00 00 00	 mov	 eax, DWORD PTR ?current_flight_dynamics@@3PAUDYNAMICS_TYPE@@A ; current_flight_dynamics
  00062	f3 0f 10 80 7c
	1f 00 00	 movss	 xmm0, DWORD PTR [eax+8060]
  0006a	f3 0f 5c 05 00
	00 00 00	 subss	 xmm0, DWORD PTR __real@40c90fdb
  00072	8b 0d 00 00 00
	00		 mov	 ecx, DWORD PTR ?current_flight_dynamics@@3PAUDYNAMICS_TYPE@@A ; current_flight_dynamics
  00078	f3 0f 11 81 7c
	1f 00 00	 movss	 DWORD PTR [ecx+8060], xmm0
  00080	eb 34		 jmp	 SHORT $LN4@update_tai
$LN2@update_tai:

; 910  : 	}
; 911  : 	else if (current_flight_dynamics->tail_rotor_angular_position.value < 0)

  00082	a1 00 00 00 00	 mov	 eax, DWORD PTR ?current_flight_dynamics@@3PAUDYNAMICS_TYPE@@A ; current_flight_dynamics
  00087	0f 57 c0	 xorps	 xmm0, xmm0
  0008a	0f 2f 80 7c 1f
	00 00		 comiss	 xmm0, DWORD PTR [eax+8060]
  00091	76 23		 jbe	 SHORT $LN4@update_tai

; 912  : 	{
; 913  : 
; 914  : 		current_flight_dynamics->tail_rotor_angular_position.value += PI2;

  00093	a1 00 00 00 00	 mov	 eax, DWORD PTR ?current_flight_dynamics@@3PAUDYNAMICS_TYPE@@A ; current_flight_dynamics
  00098	f3 0f 10 80 7c
	1f 00 00	 movss	 xmm0, DWORD PTR [eax+8060]
  000a0	f3 0f 58 05 00
	00 00 00	 addss	 xmm0, DWORD PTR __real@40c90fdb
  000a8	8b 0d 00 00 00
	00		 mov	 ecx, DWORD PTR ?current_flight_dynamics@@3PAUDYNAMICS_TYPE@@A ; current_flight_dynamics
  000ae	f3 0f 11 81 7c
	1f 00 00	 movss	 DWORD PTR [ecx+8060], xmm0
$LN4@update_tai:

; 915  : 	}
; 916  : 
; 917  : 	// calculate blade pitch 0->5 Degs, linearly
; 918  : 
; 919  : 	pedal = current_flight_dynamics->input_data.pedal.value;

  000b6	a1 00 00 00 00	 mov	 eax, DWORD PTR ?current_flight_dynamics@@3PAUDYNAMICS_TYPE@@A ; current_flight_dynamics
  000bb	f3 0f 10 80 dc
	1b 00 00	 movss	 xmm0, DWORD PTR [eax+7132]
  000c3	f3 0f 11 45 fc	 movss	 DWORD PTR _pedal$[ebp], xmm0

; 920  : 
; 921  : 	blade_pitch = rad (pedal / (current_flight_dynamics->input_data.pedal.max / deg (current_flight_dynamics->tail_blade_pitch.max)));

  000c8	a1 00 00 00 00	 mov	 eax, DWORD PTR ?current_flight_dynamics@@3PAUDYNAMICS_TYPE@@A ; current_flight_dynamics
  000cd	f3 0f 10 80 a0
	1f 00 00	 movss	 xmm0, DWORD PTR [eax+8096]
  000d5	f3 0f 59 05 00
	00 00 00	 mulss	 xmm0, DWORD PTR __real@42652ee0
  000dd	8b 0d 00 00 00
	00		 mov	 ecx, DWORD PTR ?current_flight_dynamics@@3PAUDYNAMICS_TYPE@@A ; current_flight_dynamics
  000e3	f3 0f 10 89 e8
	1b 00 00	 movss	 xmm1, DWORD PTR [ecx+7144]
  000eb	f3 0f 5e c8	 divss	 xmm1, xmm0
  000ef	f3 0f 10 45 fc	 movss	 xmm0, DWORD PTR _pedal$[ebp]
  000f4	f3 0f 5e c1	 divss	 xmm0, xmm1
  000f8	f3 0f 59 05 00
	00 00 00	 mulss	 xmm0, DWORD PTR __real@3c8efa35
  00100	f3 0f 11 45 f8	 movss	 DWORD PTR _blade_pitch$[ebp], xmm0

; 922  : 
; 923  : 	current_flight_dynamics->tail_blade_pitch.delta = 2.0 * (blade_pitch - current_flight_dynamics->tail_blade_pitch.value);

  00105	a1 00 00 00 00	 mov	 eax, DWORD PTR ?current_flight_dynamics@@3PAUDYNAMICS_TYPE@@A ; current_flight_dynamics
  0010a	f3 0f 10 45 f8	 movss	 xmm0, DWORD PTR _blade_pitch$[ebp]
  0010f	f3 0f 5c 80 94
	1f 00 00	 subss	 xmm0, DWORD PTR [eax+8084]
  00117	f3 0f 5a c0	 cvtss2sd xmm0, xmm0
  0011b	f2 0f 59 05 00
	00 00 00	 mulsd	 xmm0, QWORD PTR __real@4000000000000000
  00123	f2 0f 5a c0	 cvtsd2ss xmm0, xmm0
  00127	8b 0d 00 00 00
	00		 mov	 ecx, DWORD PTR ?current_flight_dynamics@@3PAUDYNAMICS_TYPE@@A ; current_flight_dynamics
  0012d	f3 0f 11 81 98
	1f 00 00	 movss	 DWORD PTR [ecx+8088], xmm0

; 924  : 
; 925  : 	if (!current_flight_dynamics->tail_blade_pitch.damaged)

  00135	a1 00 00 00 00	 mov	 eax, DWORD PTR ?current_flight_dynamics@@3PAUDYNAMICS_TYPE@@A ; current_flight_dynamics
  0013a	0f b7 88 a4 1f
	00 00		 movzx	 ecx, WORD PTR [eax+8100]
  00141	85 c9		 test	 ecx, ecx
  00143	75 38		 jne	 SHORT $LN5@update_tai

; 926  : 	{
; 927  : 
; 928  : 		current_flight_dynamics->tail_blade_pitch.value += current_flight_dynamics->tail_blade_pitch.delta * get_model_delta_time ();

  00145	a1 00 00 00 00	 mov	 eax, DWORD PTR ?current_flight_dynamics@@3PAUDYNAMICS_TYPE@@A ; current_flight_dynamics
  0014a	8b 0d 00 00 00
	00		 mov	 ecx, DWORD PTR ?current_flight_dynamics@@3PAUDYNAMICS_TYPE@@A ; current_flight_dynamics
  00150	f3 0f 10 80 98
	1f 00 00	 movss	 xmm0, DWORD PTR [eax+8088]
  00158	f3 0f 59 81 90
	00 00 00	 mulss	 xmm0, DWORD PTR [ecx+144]
  00160	8b 15 00 00 00
	00		 mov	 edx, DWORD PTR ?current_flight_dynamics@@3PAUDYNAMICS_TYPE@@A ; current_flight_dynamics
  00166	f3 0f 58 82 94
	1f 00 00	 addss	 xmm0, DWORD PTR [edx+8084]
  0016e	a1 00 00 00 00	 mov	 eax, DWORD PTR ?current_flight_dynamics@@3PAUDYNAMICS_TYPE@@A ; current_flight_dynamics
  00173	f3 0f 11 80 94
	1f 00 00	 movss	 DWORD PTR [eax+8084], xmm0

; 929  : 	}
; 930  : 	else

  0017b	eb 10		 jmp	 SHORT $LN6@update_tai
$LN5@update_tai:

; 931  : 	{
; 932  : 
; 933  : 		current_flight_dynamics->tail_blade_pitch.value = 0.0;

  0017d	a1 00 00 00 00	 mov	 eax, DWORD PTR ?current_flight_dynamics@@3PAUDYNAMICS_TYPE@@A ; current_flight_dynamics
  00182	0f 57 c0	 xorps	 xmm0, xmm0
  00185	f3 0f 11 80 94
	1f 00 00	 movss	 DWORD PTR [eax+8084], xmm0
$LN6@update_tai:

; 934  : 	}
; 935  : 
; 936  : 	current_flight_dynamics->tail_blade_pitch.value = bound (

  0018d	a1 00 00 00 00	 mov	 eax, DWORD PTR ?current_flight_dynamics@@3PAUDYNAMICS_TYPE@@A ; current_flight_dynamics
  00192	8b 0d 00 00 00
	00		 mov	 ecx, DWORD PTR ?current_flight_dynamics@@3PAUDYNAMICS_TYPE@@A ; current_flight_dynamics
  00198	f3 0f 10 80 9c
	1f 00 00	 movss	 xmm0, DWORD PTR [eax+8092]
  001a0	0f 2f 81 94 1f
	00 00		 comiss	 xmm0, DWORD PTR [ecx+8084]
  001a7	76 15		 jbe	 SHORT $LN10@update_tai
  001a9	8b 15 00 00 00
	00		 mov	 edx, DWORD PTR ?current_flight_dynamics@@3PAUDYNAMICS_TYPE@@A ; current_flight_dynamics
  001af	f3 0f 10 82 9c
	1f 00 00	 movss	 xmm0, DWORD PTR [edx+8092]
  001b7	f3 0f 11 45 b4	 movss	 DWORD PTR tv176[ebp], xmm0
  001bc	eb 4d		 jmp	 SHORT $LN11@update_tai
$LN10@update_tai:
  001be	a1 00 00 00 00	 mov	 eax, DWORD PTR ?current_flight_dynamics@@3PAUDYNAMICS_TYPE@@A ; current_flight_dynamics
  001c3	8b 0d 00 00 00
	00		 mov	 ecx, DWORD PTR ?current_flight_dynamics@@3PAUDYNAMICS_TYPE@@A ; current_flight_dynamics
  001c9	f3 0f 10 80 94
	1f 00 00	 movss	 xmm0, DWORD PTR [eax+8084]
  001d1	0f 2f 81 a0 1f
	00 00		 comiss	 xmm0, DWORD PTR [ecx+8096]
  001d8	76 15		 jbe	 SHORT $LN8@update_tai
  001da	8b 15 00 00 00
	00		 mov	 edx, DWORD PTR ?current_flight_dynamics@@3PAUDYNAMICS_TYPE@@A ; current_flight_dynamics
  001e0	f3 0f 10 82 a0
	1f 00 00	 movss	 xmm0, DWORD PTR [edx+8096]
  001e8	f3 0f 11 45 b0	 movss	 DWORD PTR tv175[ebp], xmm0
  001ed	eb 12		 jmp	 SHORT $LN9@update_tai
$LN8@update_tai:
  001ef	a1 00 00 00 00	 mov	 eax, DWORD PTR ?current_flight_dynamics@@3PAUDYNAMICS_TYPE@@A ; current_flight_dynamics
  001f4	f3 0f 10 80 94
	1f 00 00	 movss	 xmm0, DWORD PTR [eax+8084]
  001fc	f3 0f 11 45 b0	 movss	 DWORD PTR tv175[ebp], xmm0
$LN9@update_tai:
  00201	f3 0f 10 45 b0	 movss	 xmm0, DWORD PTR tv175[ebp]
  00206	f3 0f 11 45 b4	 movss	 DWORD PTR tv176[ebp], xmm0
$LN11@update_tai:
  0020b	8b 0d 00 00 00
	00		 mov	 ecx, DWORD PTR ?current_flight_dynamics@@3PAUDYNAMICS_TYPE@@A ; current_flight_dynamics
  00211	f3 0f 10 45 b4	 movss	 xmm0, DWORD PTR tv176[ebp]
  00216	f3 0f 11 81 94
	1f 00 00	 movss	 DWORD PTR [ecx+8084], xmm0

; 937  : 																current_flight_dynamics->tail_blade_pitch.value,
; 938  : 																current_flight_dynamics->tail_blade_pitch.min,
; 939  : 																current_flight_dynamics->tail_blade_pitch.max);
; 940  : }

  0021e	5f		 pop	 edi
  0021f	5e		 pop	 esi
  00220	5b		 pop	 ebx
  00221	8b e5		 mov	 esp, ebp
  00223	5d		 pop	 ebp
  00224	c3		 ret	 0
?update_tail_rotor_dynamics@@YGXXZ ENDP			; update_tail_rotor_dynamics
_TEXT	ENDS
; Function compile flags: /Odtp /ZI
; File c:\users\nhv90\projects\eech\aphavoc\source\gunships\dynamics\hind\hi_dyn.c
;	COMDAT ?update_main_rotor_dynamics@@YGXXZ
_TEXT	SEGMENT
tv186 = -100						; size = 8
tv316 = -92						; size = 4
tv269 = -92						; size = 4
tv224 = -92						; size = 4
tv187 = -92						; size = 8
tv317 = -88						; size = 4
tv270 = -88						; size = 4
tv225 = -88						; size = 4
_blade_pitch$ = -20					; size = 4
_rotor_pitch$ = -16					; size = 4
_rotor_roll$ = -12					; size = 4
_average_blade_input$ = -8				; size = 4
_coll$ = -4						; size = 4
?update_main_rotor_dynamics@@YGXXZ PROC			; update_main_rotor_dynamics, COMDAT

; 776  : {

  00000	55		 push	 ebp
  00001	8b ec		 mov	 ebp, esp
  00003	83 ec 64	 sub	 esp, 100		; 00000064H
  00006	53		 push	 ebx
  00007	56		 push	 esi
  00008	57		 push	 edi

; 777  : 
; 778  : 	float
; 779  : 		coll,
; 780  : 		average_blade_input,
; 781  : 		rotor_roll,
; 782  : 		rotor_pitch,
; 783  : 		blade_pitch;
; 784  : 
; 785  : 	// main rotor angular position
; 786  : 
; 787  : 	if (current_flight_dynamics->main_rotor_rpm.max != 0.0)

  00009	a1 00 00 00 00	 mov	 eax, DWORD PTR ?current_flight_dynamics@@3PAUDYNAMICS_TYPE@@A ; current_flight_dynamics
  0000e	f3 0f 5a 80 20
	1e 00 00	 cvtss2sd xmm0, DWORD PTR [eax+7712]
  00016	66 0f 2e 05 00
	00 00 00	 ucomisd xmm0, QWORD PTR __real@0000000000000000
  0001e	9f		 lahf
  0001f	f6 c4 44	 test	 ah, 68			; 00000044H
  00022	7b 77		 jnp	 SHORT $LN2@update_mai

; 788  : 	{
; 789  : 
; 790  : 		current_flight_dynamics->main_rotor_rps.value = 4.5 * (current_flight_dynamics->main_rotor_rpm.value / current_flight_dynamics->main_rotor_rpm.max);

  00024	a1 00 00 00 00	 mov	 eax, DWORD PTR ?current_flight_dynamics@@3PAUDYNAMICS_TYPE@@A ; current_flight_dynamics
  00029	8b 0d 00 00 00
	00		 mov	 ecx, DWORD PTR ?current_flight_dynamics@@3PAUDYNAMICS_TYPE@@A ; current_flight_dynamics
  0002f	f3 0f 10 80 14
	1e 00 00	 movss	 xmm0, DWORD PTR [eax+7700]
  00037	f3 0f 5e 81 20
	1e 00 00	 divss	 xmm0, DWORD PTR [ecx+7712]
  0003f	f3 0f 5a c0	 cvtss2sd xmm0, xmm0
  00043	f2 0f 59 05 00
	00 00 00	 mulsd	 xmm0, QWORD PTR __real@4012000000000000
  0004b	f2 0f 5a c0	 cvtsd2ss xmm0, xmm0
  0004f	8b 15 00 00 00
	00		 mov	 edx, DWORD PTR ?current_flight_dynamics@@3PAUDYNAMICS_TYPE@@A ; current_flight_dynamics
  00055	f3 0f 11 82 2c
	1e 00 00	 movss	 DWORD PTR [edx+7724], xmm0

; 791  : 
; 792  : 		current_flight_dynamics->main_rotor_angular_position.value += current_flight_dynamics->main_rotor_rps.value * PI2 * get_model_delta_time ();

  0005d	a1 00 00 00 00	 mov	 eax, DWORD PTR ?current_flight_dynamics@@3PAUDYNAMICS_TYPE@@A ; current_flight_dynamics
  00062	f3 0f 10 80 2c
	1e 00 00	 movss	 xmm0, DWORD PTR [eax+7724]
  0006a	f3 0f 59 05 00
	00 00 00	 mulss	 xmm0, DWORD PTR __real@40c90fdb
  00072	8b 0d 00 00 00
	00		 mov	 ecx, DWORD PTR ?current_flight_dynamics@@3PAUDYNAMICS_TYPE@@A ; current_flight_dynamics
  00078	f3 0f 59 81 90
	00 00 00	 mulss	 xmm0, DWORD PTR [ecx+144]
  00080	8b 15 00 00 00
	00		 mov	 edx, DWORD PTR ?current_flight_dynamics@@3PAUDYNAMICS_TYPE@@A ; current_flight_dynamics
  00086	f3 0f 58 82 5c
	1e 00 00	 addss	 xmm0, DWORD PTR [edx+7772]
  0008e	a1 00 00 00 00	 mov	 eax, DWORD PTR ?current_flight_dynamics@@3PAUDYNAMICS_TYPE@@A ; current_flight_dynamics
  00093	f3 0f 11 80 5c
	1e 00 00	 movss	 DWORD PTR [eax+7772], xmm0
$LN2@update_mai:

; 793  : 	}
; 794  : 
; 795  : 	if (current_flight_dynamics->main_rotor_angular_position.value >= PI2)

  0009b	a1 00 00 00 00	 mov	 eax, DWORD PTR ?current_flight_dynamics@@3PAUDYNAMICS_TYPE@@A ; current_flight_dynamics
  000a0	f3 0f 10 80 5c
	1e 00 00	 movss	 xmm0, DWORD PTR [eax+7772]
  000a8	0f 2f 05 00 00
	00 00		 comiss	 xmm0, DWORD PTR __real@40c90fdb
  000af	72 25		 jb	 SHORT $LN3@update_mai

; 796  : 	{
; 797  : 
; 798  : 		current_flight_dynamics->main_rotor_angular_position.value -= PI2;

  000b1	a1 00 00 00 00	 mov	 eax, DWORD PTR ?current_flight_dynamics@@3PAUDYNAMICS_TYPE@@A ; current_flight_dynamics
  000b6	f3 0f 10 80 5c
	1e 00 00	 movss	 xmm0, DWORD PTR [eax+7772]
  000be	f3 0f 5c 05 00
	00 00 00	 subss	 xmm0, DWORD PTR __real@40c90fdb
  000c6	8b 0d 00 00 00
	00		 mov	 ecx, DWORD PTR ?current_flight_dynamics@@3PAUDYNAMICS_TYPE@@A ; current_flight_dynamics
  000cc	f3 0f 11 81 5c
	1e 00 00	 movss	 DWORD PTR [ecx+7772], xmm0
  000d4	eb 34		 jmp	 SHORT $LN5@update_mai
$LN3@update_mai:

; 799  : 	}
; 800  : 	else if (current_flight_dynamics->main_rotor_angular_position.value < 0)

  000d6	a1 00 00 00 00	 mov	 eax, DWORD PTR ?current_flight_dynamics@@3PAUDYNAMICS_TYPE@@A ; current_flight_dynamics
  000db	0f 57 c0	 xorps	 xmm0, xmm0
  000de	0f 2f 80 5c 1e
	00 00		 comiss	 xmm0, DWORD PTR [eax+7772]
  000e5	76 23		 jbe	 SHORT $LN5@update_mai

; 801  : 	{
; 802  : 
; 803  : 		current_flight_dynamics->main_rotor_angular_position.value += PI2;

  000e7	a1 00 00 00 00	 mov	 eax, DWORD PTR ?current_flight_dynamics@@3PAUDYNAMICS_TYPE@@A ; current_flight_dynamics
  000ec	f3 0f 10 80 5c
	1e 00 00	 movss	 xmm0, DWORD PTR [eax+7772]
  000f4	f3 0f 58 05 00
	00 00 00	 addss	 xmm0, DWORD PTR __real@40c90fdb
  000fc	8b 0d 00 00 00
	00		 mov	 ecx, DWORD PTR ?current_flight_dynamics@@3PAUDYNAMICS_TYPE@@A ; current_flight_dynamics
  00102	f3 0f 11 81 5c
	1e 00 00	 movss	 DWORD PTR [ecx+7772], xmm0
$LN5@update_mai:

; 804  : 	}
; 805  : 
; 806  : 	// calculate blade pitch 0->5 Degs. collective = blade_pitch^3
; 807  : 
; 808  : 	current_flight_dynamics->main_blade_x_pitch.value = (current_flight_dynamics->main_blade_pitch.max - current_flight_dynamics->main_blade_pitch.min) *

  0010a	a1 00 00 00 00	 mov	 eax, DWORD PTR ?current_flight_dynamics@@3PAUDYNAMICS_TYPE@@A ; current_flight_dynamics
  0010f	8b 0d 00 00 00
	00		 mov	 ecx, DWORD PTR ?current_flight_dynamics@@3PAUDYNAMICS_TYPE@@A ; current_flight_dynamics
  00115	f3 0f 10 80 98
	1e 00 00	 movss	 xmm0, DWORD PTR [eax+7832]
  0011d	f3 0f 5c 81 94
	1e 00 00	 subss	 xmm0, DWORD PTR [ecx+7828]
  00125	f3 0f 5a c0	 cvtss2sd xmm0, xmm0
  00129	8b 15 00 00 00
	00		 mov	 edx, DWORD PTR ?current_flight_dynamics@@3PAUDYNAMICS_TYPE@@A ; current_flight_dynamics
  0012f	f3 0f 5a 8a f8
	00 00 00	 cvtss2sd xmm1, DWORD PTR [edx+248]
  00137	f2 0f 5e 0d 00
	00 00 00	 divsd	 xmm1, QWORD PTR __real@4059000000000000
  0013f	f2 0f 59 c1	 mulsd	 xmm0, xmm1
  00143	a1 00 00 00 00	 mov	 eax, DWORD PTR ?current_flight_dynamics@@3PAUDYNAMICS_TYPE@@A ; current_flight_dynamics
  00148	f3 0f 5a 88 94
	1e 00 00	 cvtss2sd xmm1, DWORD PTR [eax+7828]
  00150	f2 0f 58 c1	 addsd	 xmm0, xmm1
  00154	f2 0f 5a c0	 cvtsd2ss xmm0, xmm0
  00158	8b 0d 00 00 00
	00		 mov	 ecx, DWORD PTR ?current_flight_dynamics@@3PAUDYNAMICS_TYPE@@A ; current_flight_dynamics
  0015e	f3 0f 11 81 a4
	1e 00 00	 movss	 DWORD PTR [ecx+7844], xmm0

; 809  : 						(current_flight_dynamics->input_data.cyclic_x.value / 100.0) + current_flight_dynamics->main_blade_pitch.min;
; 810  : 
; 811  : 	current_flight_dynamics->main_blade_y_pitch.value = (current_flight_dynamics->main_blade_pitch.max - current_flight_dynamics->main_blade_pitch.min) *

  00166	a1 00 00 00 00	 mov	 eax, DWORD PTR ?current_flight_dynamics@@3PAUDYNAMICS_TYPE@@A ; current_flight_dynamics
  0016b	8b 0d 00 00 00
	00		 mov	 ecx, DWORD PTR ?current_flight_dynamics@@3PAUDYNAMICS_TYPE@@A ; current_flight_dynamics
  00171	f3 0f 10 80 98
	1e 00 00	 movss	 xmm0, DWORD PTR [eax+7832]
  00179	f3 0f 5c 81 94
	1e 00 00	 subss	 xmm0, DWORD PTR [ecx+7828]
  00181	f3 0f 5a c0	 cvtss2sd xmm0, xmm0
  00185	8b 15 00 00 00
	00		 mov	 edx, DWORD PTR ?current_flight_dynamics@@3PAUDYNAMICS_TYPE@@A ; current_flight_dynamics
  0018b	f3 0f 5a 8a 10
	01 00 00	 cvtss2sd xmm1, DWORD PTR [edx+272]
  00193	f2 0f 5e 0d 00
	00 00 00	 divsd	 xmm1, QWORD PTR __real@4059000000000000
  0019b	f2 0f 59 c1	 mulsd	 xmm0, xmm1
  0019f	a1 00 00 00 00	 mov	 eax, DWORD PTR ?current_flight_dynamics@@3PAUDYNAMICS_TYPE@@A ; current_flight_dynamics
  001a4	f3 0f 5a 88 94
	1e 00 00	 cvtss2sd xmm1, DWORD PTR [eax+7828]
  001ac	f2 0f 58 c1	 addsd	 xmm0, xmm1
  001b0	f2 0f 5a c0	 cvtsd2ss xmm0, xmm0
  001b4	8b 0d 00 00 00
	00		 mov	 ecx, DWORD PTR ?current_flight_dynamics@@3PAUDYNAMICS_TYPE@@A ; current_flight_dynamics
  001ba	f3 0f 11 81 bc
	1e 00 00	 movss	 DWORD PTR [ecx+7868], xmm0

; 812  : 						(current_flight_dynamics->input_data.cyclic_y.value / 100.0) + current_flight_dynamics->main_blade_pitch.min;
; 813  : 
; 814  : 	coll = current_flight_dynamics->input_data.collective.value / 120.0;

  001c2	a1 00 00 00 00	 mov	 eax, DWORD PTR ?current_flight_dynamics@@3PAUDYNAMICS_TYPE@@A ; current_flight_dynamics
  001c7	f3 0f 5a 80 a8
	1b 00 00	 cvtss2sd xmm0, DWORD PTR [eax+7080]
  001cf	f2 0f 5e 05 00
	00 00 00	 divsd	 xmm0, QWORD PTR __real@405e000000000000
  001d7	f2 0f 5a c0	 cvtsd2ss xmm0, xmm0
  001db	f3 0f 11 45 fc	 movss	 DWORD PTR _coll$[ebp], xmm0

; 815  : 	coll *= coll;

  001e0	f3 0f 10 45 fc	 movss	 xmm0, DWORD PTR _coll$[ebp]
  001e5	f3 0f 59 45 fc	 mulss	 xmm0, DWORD PTR _coll$[ebp]
  001ea	f3 0f 11 45 fc	 movss	 DWORD PTR _coll$[ebp], xmm0

; 816  : 
; 817  : 	average_blade_input = bound (coll, 0.0, 1.0);

  001ef	f3 0f 5a 45 fc	 cvtss2sd xmm0, DWORD PTR _coll$[ebp]
  001f4	0f 57 c9	 xorps	 xmm1, xmm1
  001f7	66 0f 2f c8	 comisd	 xmm1, xmm0
  001fb	76 0a		 jbe	 SHORT $LN15@update_mai
  001fd	0f 57 c0	 xorps	 xmm0, xmm0
  00200	f2 0f 11 45 a4	 movsd	 QWORD PTR tv187[ebp], xmm0
  00205	eb 32		 jmp	 SHORT $LN16@update_mai
$LN15@update_mai:
  00207	f3 0f 5a 45 fc	 cvtss2sd xmm0, DWORD PTR _coll$[ebp]
  0020c	66 0f 2f 05 00
	00 00 00	 comisd	 xmm0, QWORD PTR __real@3ff0000000000000
  00214	76 0f		 jbe	 SHORT $LN13@update_mai
  00216	f2 0f 10 05 00
	00 00 00	 movsd	 xmm0, QWORD PTR __real@3ff0000000000000
  0021e	f2 0f 11 45 9c	 movsd	 QWORD PTR tv186[ebp], xmm0
  00223	eb 0a		 jmp	 SHORT $LN14@update_mai
$LN13@update_mai:
  00225	f3 0f 5a 45 fc	 cvtss2sd xmm0, DWORD PTR _coll$[ebp]
  0022a	f2 0f 11 45 9c	 movsd	 QWORD PTR tv186[ebp], xmm0
$LN14@update_mai:
  0022f	f2 0f 10 45 9c	 movsd	 xmm0, QWORD PTR tv186[ebp]
  00234	f2 0f 11 45 a4	 movsd	 QWORD PTR tv187[ebp], xmm0
$LN16@update_mai:
  00239	f2 0f 5a 45 a4	 cvtsd2ss xmm0, QWORD PTR tv187[ebp]
  0023e	f3 0f 11 45 f8	 movss	 DWORD PTR _average_blade_input$[ebp], xmm0

; 818  : 
; 819  : 	blade_pitch = (current_flight_dynamics->main_blade_pitch.max - current_flight_dynamics->main_blade_pitch.min) *

  00243	a1 00 00 00 00	 mov	 eax, DWORD PTR ?current_flight_dynamics@@3PAUDYNAMICS_TYPE@@A ; current_flight_dynamics
  00248	8b 0d 00 00 00
	00		 mov	 ecx, DWORD PTR ?current_flight_dynamics@@3PAUDYNAMICS_TYPE@@A ; current_flight_dynamics
  0024e	f3 0f 10 80 98
	1e 00 00	 movss	 xmm0, DWORD PTR [eax+7832]
  00256	f3 0f 5c 81 94
	1e 00 00	 subss	 xmm0, DWORD PTR [ecx+7828]
  0025e	f3 0f 59 45 f8	 mulss	 xmm0, DWORD PTR _average_blade_input$[ebp]
  00263	8b 15 00 00 00
	00		 mov	 edx, DWORD PTR ?current_flight_dynamics@@3PAUDYNAMICS_TYPE@@A ; current_flight_dynamics
  00269	f3 0f 58 82 94
	1e 00 00	 addss	 xmm0, DWORD PTR [edx+7828]
  00271	f3 0f 11 45 ec	 movss	 DWORD PTR _blade_pitch$[ebp], xmm0

; 820  : 						average_blade_input + current_flight_dynamics->main_blade_pitch.min;
; 821  : 
; 822  : 	if (!current_flight_dynamics->main_blade_pitch.damaged)

  00276	a1 00 00 00 00	 mov	 eax, DWORD PTR ?current_flight_dynamics@@3PAUDYNAMICS_TYPE@@A ; current_flight_dynamics
  0027b	0f b7 88 9c 1e
	00 00		 movzx	 ecx, WORD PTR [eax+7836]
  00282	85 c9		 test	 ecx, ecx
  00284	75 14		 jne	 SHORT $LN6@update_mai

; 823  : 	{
; 824  : 
; 825  : 		current_flight_dynamics->main_blade_pitch.value = blade_pitch;

  00286	a1 00 00 00 00	 mov	 eax, DWORD PTR ?current_flight_dynamics@@3PAUDYNAMICS_TYPE@@A ; current_flight_dynamics
  0028b	f3 0f 10 45 ec	 movss	 xmm0, DWORD PTR _blade_pitch$[ebp]
  00290	f3 0f 11 80 8c
	1e 00 00	 movss	 DWORD PTR [eax+7820], xmm0

; 826  : 	}
; 827  : 	else

  00298	eb 10		 jmp	 SHORT $LN7@update_mai
$LN6@update_mai:

; 828  : 	{
; 829  : 
; 830  : 		current_flight_dynamics->main_blade_pitch.value = 0.0;

  0029a	a1 00 00 00 00	 mov	 eax, DWORD PTR ?current_flight_dynamics@@3PAUDYNAMICS_TYPE@@A ; current_flight_dynamics
  0029f	0f 57 c0	 xorps	 xmm0, xmm0
  002a2	f3 0f 11 80 8c
	1e 00 00	 movss	 DWORD PTR [eax+7820], xmm0
$LN7@update_mai:

; 831  : 	}
; 832  : 
; 833  : 	current_flight_dynamics->main_blade_pitch.value = bound (

  002aa	a1 00 00 00 00	 mov	 eax, DWORD PTR ?current_flight_dynamics@@3PAUDYNAMICS_TYPE@@A ; current_flight_dynamics
  002af	8b 0d 00 00 00
	00		 mov	 ecx, DWORD PTR ?current_flight_dynamics@@3PAUDYNAMICS_TYPE@@A ; current_flight_dynamics
  002b5	f3 0f 10 80 94
	1e 00 00	 movss	 xmm0, DWORD PTR [eax+7828]
  002bd	0f 2f 81 8c 1e
	00 00		 comiss	 xmm0, DWORD PTR [ecx+7820]
  002c4	76 15		 jbe	 SHORT $LN19@update_mai
  002c6	8b 15 00 00 00
	00		 mov	 edx, DWORD PTR ?current_flight_dynamics@@3PAUDYNAMICS_TYPE@@A ; current_flight_dynamics
  002cc	f3 0f 10 82 94
	1e 00 00	 movss	 xmm0, DWORD PTR [edx+7828]
  002d4	f3 0f 11 45 a8	 movss	 DWORD PTR tv225[ebp], xmm0
  002d9	eb 4d		 jmp	 SHORT $LN20@update_mai
$LN19@update_mai:
  002db	a1 00 00 00 00	 mov	 eax, DWORD PTR ?current_flight_dynamics@@3PAUDYNAMICS_TYPE@@A ; current_flight_dynamics
  002e0	8b 0d 00 00 00
	00		 mov	 ecx, DWORD PTR ?current_flight_dynamics@@3PAUDYNAMICS_TYPE@@A ; current_flight_dynamics
  002e6	f3 0f 10 80 8c
	1e 00 00	 movss	 xmm0, DWORD PTR [eax+7820]
  002ee	0f 2f 81 98 1e
	00 00		 comiss	 xmm0, DWORD PTR [ecx+7832]
  002f5	76 15		 jbe	 SHORT $LN17@update_mai
  002f7	8b 15 00 00 00
	00		 mov	 edx, DWORD PTR ?current_flight_dynamics@@3PAUDYNAMICS_TYPE@@A ; current_flight_dynamics
  002fd	f3 0f 10 82 98
	1e 00 00	 movss	 xmm0, DWORD PTR [edx+7832]
  00305	f3 0f 11 45 a4	 movss	 DWORD PTR tv224[ebp], xmm0
  0030a	eb 12		 jmp	 SHORT $LN18@update_mai
$LN17@update_mai:
  0030c	a1 00 00 00 00	 mov	 eax, DWORD PTR ?current_flight_dynamics@@3PAUDYNAMICS_TYPE@@A ; current_flight_dynamics
  00311	f3 0f 10 80 8c
	1e 00 00	 movss	 xmm0, DWORD PTR [eax+7820]
  00319	f3 0f 11 45 a4	 movss	 DWORD PTR tv224[ebp], xmm0
$LN18@update_mai:
  0031e	f3 0f 10 45 a4	 movss	 xmm0, DWORD PTR tv224[ebp]
  00323	f3 0f 11 45 a8	 movss	 DWORD PTR tv225[ebp], xmm0
$LN20@update_mai:
  00328	8b 0d 00 00 00
	00		 mov	 ecx, DWORD PTR ?current_flight_dynamics@@3PAUDYNAMICS_TYPE@@A ; current_flight_dynamics
  0032e	f3 0f 10 45 a8	 movss	 xmm0, DWORD PTR tv225[ebp]
  00333	f3 0f 11 81 8c
	1e 00 00	 movss	 DWORD PTR [ecx+7820], xmm0

; 834  : 																current_flight_dynamics->main_blade_pitch.value,
; 835  : 																current_flight_dynamics->main_blade_pitch.min,
; 836  : 																current_flight_dynamics->main_blade_pitch.max);
; 837  : 
; 838  : 	// calculate 'Tip Plane Path' roll and pitch
; 839  : 
; 840  : 	// roll
; 841  : 
; 842  : 	rotor_roll = (current_flight_dynamics->input_data.cyclic_x.value / (current_flight_dynamics->input_data.cyclic_x.max - current_flight_dynamics->input_data.cyclic_x.min)) *

  0033b	a1 00 00 00 00	 mov	 eax, DWORD PTR ?current_flight_dynamics@@3PAUDYNAMICS_TYPE@@A ; current_flight_dynamics
  00340	8b 0d 00 00 00
	00		 mov	 ecx, DWORD PTR ?current_flight_dynamics@@3PAUDYNAMICS_TYPE@@A ; current_flight_dynamics
  00346	f3 0f 10 80 04
	01 00 00	 movss	 xmm0, DWORD PTR [eax+260]
  0034e	f3 0f 5c 81 00
	01 00 00	 subss	 xmm0, DWORD PTR [ecx+256]
  00356	8b 15 00 00 00
	00		 mov	 edx, DWORD PTR ?current_flight_dynamics@@3PAUDYNAMICS_TYPE@@A ; current_flight_dynamics
  0035c	f3 0f 10 8a f8
	00 00 00	 movss	 xmm1, DWORD PTR [edx+248]
  00364	f3 0f 5e c8	 divss	 xmm1, xmm0
  00368	a1 00 00 00 00	 mov	 eax, DWORD PTR ?current_flight_dynamics@@3PAUDYNAMICS_TYPE@@A ; current_flight_dynamics
  0036d	8b 0d 00 00 00
	00		 mov	 ecx, DWORD PTR ?current_flight_dynamics@@3PAUDYNAMICS_TYPE@@A ; current_flight_dynamics
  00373	f3 0f 10 80 f0
	1d 00 00	 movss	 xmm0, DWORD PTR [eax+7664]
  0037b	f3 0f 5c 81 ec
	1d 00 00	 subss	 xmm0, DWORD PTR [ecx+7660]
  00383	f3 0f 59 c8	 mulss	 xmm1, xmm0
  00387	f3 0f 11 4d f4	 movss	 DWORD PTR _rotor_roll$[ebp], xmm1

; 843  : 					(current_flight_dynamics->main_rotor_roll_angle.max - current_flight_dynamics->main_rotor_roll_angle.min);
; 844  : 
; 845  : 	if (!current_flight_dynamics->main_rotor_roll_angle.damaged)

  0038c	a1 00 00 00 00	 mov	 eax, DWORD PTR ?current_flight_dynamics@@3PAUDYNAMICS_TYPE@@A ; current_flight_dynamics
  00391	0f b7 88 f4 1d
	00 00		 movzx	 ecx, WORD PTR [eax+7668]
  00398	85 c9		 test	 ecx, ecx
  0039a	75 14		 jne	 SHORT $LN8@update_mai

; 846  : 	{
; 847  : 
; 848  : 		current_flight_dynamics->main_rotor_roll_angle.value = rotor_roll;

  0039c	a1 00 00 00 00	 mov	 eax, DWORD PTR ?current_flight_dynamics@@3PAUDYNAMICS_TYPE@@A ; current_flight_dynamics
  003a1	f3 0f 10 45 f4	 movss	 xmm0, DWORD PTR _rotor_roll$[ebp]
  003a6	f3 0f 11 80 e4
	1d 00 00	 movss	 DWORD PTR [eax+7652], xmm0

; 849  : 	}
; 850  : 	else

  003ae	eb 10		 jmp	 SHORT $LN9@update_mai
$LN8@update_mai:

; 851  : 	{
; 852  : 
; 853  : 		current_flight_dynamics->main_rotor_roll_angle.value = 0.0;

  003b0	a1 00 00 00 00	 mov	 eax, DWORD PTR ?current_flight_dynamics@@3PAUDYNAMICS_TYPE@@A ; current_flight_dynamics
  003b5	0f 57 c0	 xorps	 xmm0, xmm0
  003b8	f3 0f 11 80 e4
	1d 00 00	 movss	 DWORD PTR [eax+7652], xmm0
$LN9@update_mai:

; 854  : 	}
; 855  : 
; 856  : 	current_flight_dynamics->main_rotor_roll_angle.value = bound (

  003c0	a1 00 00 00 00	 mov	 eax, DWORD PTR ?current_flight_dynamics@@3PAUDYNAMICS_TYPE@@A ; current_flight_dynamics
  003c5	8b 0d 00 00 00
	00		 mov	 ecx, DWORD PTR ?current_flight_dynamics@@3PAUDYNAMICS_TYPE@@A ; current_flight_dynamics
  003cb	f3 0f 10 80 ec
	1d 00 00	 movss	 xmm0, DWORD PTR [eax+7660]
  003d3	0f 2f 81 e4 1d
	00 00		 comiss	 xmm0, DWORD PTR [ecx+7652]
  003da	76 15		 jbe	 SHORT $LN23@update_mai
  003dc	8b 15 00 00 00
	00		 mov	 edx, DWORD PTR ?current_flight_dynamics@@3PAUDYNAMICS_TYPE@@A ; current_flight_dynamics
  003e2	f3 0f 10 82 ec
	1d 00 00	 movss	 xmm0, DWORD PTR [edx+7660]
  003ea	f3 0f 11 45 a8	 movss	 DWORD PTR tv270[ebp], xmm0
  003ef	eb 4d		 jmp	 SHORT $LN24@update_mai
$LN23@update_mai:
  003f1	a1 00 00 00 00	 mov	 eax, DWORD PTR ?current_flight_dynamics@@3PAUDYNAMICS_TYPE@@A ; current_flight_dynamics
  003f6	8b 0d 00 00 00
	00		 mov	 ecx, DWORD PTR ?current_flight_dynamics@@3PAUDYNAMICS_TYPE@@A ; current_flight_dynamics
  003fc	f3 0f 10 80 e4
	1d 00 00	 movss	 xmm0, DWORD PTR [eax+7652]
  00404	0f 2f 81 f0 1d
	00 00		 comiss	 xmm0, DWORD PTR [ecx+7664]
  0040b	76 15		 jbe	 SHORT $LN21@update_mai
  0040d	8b 15 00 00 00
	00		 mov	 edx, DWORD PTR ?current_flight_dynamics@@3PAUDYNAMICS_TYPE@@A ; current_flight_dynamics
  00413	f3 0f 10 82 f0
	1d 00 00	 movss	 xmm0, DWORD PTR [edx+7664]
  0041b	f3 0f 11 45 a4	 movss	 DWORD PTR tv269[ebp], xmm0
  00420	eb 12		 jmp	 SHORT $LN22@update_mai
$LN21@update_mai:
  00422	a1 00 00 00 00	 mov	 eax, DWORD PTR ?current_flight_dynamics@@3PAUDYNAMICS_TYPE@@A ; current_flight_dynamics
  00427	f3 0f 10 80 e4
	1d 00 00	 movss	 xmm0, DWORD PTR [eax+7652]
  0042f	f3 0f 11 45 a4	 movss	 DWORD PTR tv269[ebp], xmm0
$LN22@update_mai:
  00434	f3 0f 10 45 a4	 movss	 xmm0, DWORD PTR tv269[ebp]
  00439	f3 0f 11 45 a8	 movss	 DWORD PTR tv270[ebp], xmm0
$LN24@update_mai:
  0043e	8b 0d 00 00 00
	00		 mov	 ecx, DWORD PTR ?current_flight_dynamics@@3PAUDYNAMICS_TYPE@@A ; current_flight_dynamics
  00444	f3 0f 10 45 a8	 movss	 xmm0, DWORD PTR tv270[ebp]
  00449	f3 0f 11 81 e4
	1d 00 00	 movss	 DWORD PTR [ecx+7652], xmm0

; 857  : 																current_flight_dynamics->main_rotor_roll_angle.value,
; 858  : 																current_flight_dynamics->main_rotor_roll_angle.min,
; 859  : 																current_flight_dynamics->main_rotor_roll_angle.max);
; 860  : 
; 861  : 	// pitch
; 862  : 
; 863  : 	rotor_pitch = -(current_flight_dynamics->input_data.cyclic_y.value / (current_flight_dynamics->input_data.cyclic_y.max - current_flight_dynamics->input_data.cyclic_y.min)) *

  00451	a1 00 00 00 00	 mov	 eax, DWORD PTR ?current_flight_dynamics@@3PAUDYNAMICS_TYPE@@A ; current_flight_dynamics
  00456	8b 0d 00 00 00
	00		 mov	 ecx, DWORD PTR ?current_flight_dynamics@@3PAUDYNAMICS_TYPE@@A ; current_flight_dynamics
  0045c	f3 0f 10 80 1c
	01 00 00	 movss	 xmm0, DWORD PTR [eax+284]
  00464	f3 0f 5c 81 18
	01 00 00	 subss	 xmm0, DWORD PTR [ecx+280]
  0046c	8b 15 00 00 00
	00		 mov	 edx, DWORD PTR ?current_flight_dynamics@@3PAUDYNAMICS_TYPE@@A ; current_flight_dynamics
  00472	f3 0f 10 8a 10
	01 00 00	 movss	 xmm1, DWORD PTR [edx+272]
  0047a	f3 0f 5e c8	 divss	 xmm1, xmm0
  0047e	0f 57 0d 00 00
	00 00		 xorps	 xmm1, DWORD PTR __xmm@80000000800000008000000080000000
  00485	a1 00 00 00 00	 mov	 eax, DWORD PTR ?current_flight_dynamics@@3PAUDYNAMICS_TYPE@@A ; current_flight_dynamics
  0048a	8b 0d 00 00 00
	00		 mov	 ecx, DWORD PTR ?current_flight_dynamics@@3PAUDYNAMICS_TYPE@@A ; current_flight_dynamics
  00490	f3 0f 10 80 08
	1e 00 00	 movss	 xmm0, DWORD PTR [eax+7688]
  00498	f3 0f 5c 81 04
	1e 00 00	 subss	 xmm0, DWORD PTR [ecx+7684]
  004a0	f3 0f 59 c8	 mulss	 xmm1, xmm0
  004a4	f3 0f 11 4d f0	 movss	 DWORD PTR _rotor_pitch$[ebp], xmm1

; 864  : 					(current_flight_dynamics->main_rotor_pitch_angle.max - current_flight_dynamics->main_rotor_pitch_angle.min);
; 865  : 
; 866  : 	if (!current_flight_dynamics->main_rotor_pitch_angle.damaged)

  004a9	a1 00 00 00 00	 mov	 eax, DWORD PTR ?current_flight_dynamics@@3PAUDYNAMICS_TYPE@@A ; current_flight_dynamics
  004ae	0f b7 88 0c 1e
	00 00		 movzx	 ecx, WORD PTR [eax+7692]
  004b5	85 c9		 test	 ecx, ecx
  004b7	75 14		 jne	 SHORT $LN10@update_mai

; 867  : 	{
; 868  : 
; 869  : 		current_flight_dynamics->main_rotor_pitch_angle.value = rotor_pitch;

  004b9	a1 00 00 00 00	 mov	 eax, DWORD PTR ?current_flight_dynamics@@3PAUDYNAMICS_TYPE@@A ; current_flight_dynamics
  004be	f3 0f 10 45 f0	 movss	 xmm0, DWORD PTR _rotor_pitch$[ebp]
  004c3	f3 0f 11 80 fc
	1d 00 00	 movss	 DWORD PTR [eax+7676], xmm0

; 870  : 	}
; 871  : 	else

  004cb	eb 10		 jmp	 SHORT $LN11@update_mai
$LN10@update_mai:

; 872  : 	{
; 873  : 
; 874  : 		current_flight_dynamics->main_rotor_pitch_angle.value = 0.0;

  004cd	a1 00 00 00 00	 mov	 eax, DWORD PTR ?current_flight_dynamics@@3PAUDYNAMICS_TYPE@@A ; current_flight_dynamics
  004d2	0f 57 c0	 xorps	 xmm0, xmm0
  004d5	f3 0f 11 80 fc
	1d 00 00	 movss	 DWORD PTR [eax+7676], xmm0
$LN11@update_mai:

; 875  : 	}
; 876  : 
; 877  : 	current_flight_dynamics->main_rotor_pitch_angle.value = bound (

  004dd	a1 00 00 00 00	 mov	 eax, DWORD PTR ?current_flight_dynamics@@3PAUDYNAMICS_TYPE@@A ; current_flight_dynamics
  004e2	8b 0d 00 00 00
	00		 mov	 ecx, DWORD PTR ?current_flight_dynamics@@3PAUDYNAMICS_TYPE@@A ; current_flight_dynamics
  004e8	f3 0f 10 80 04
	1e 00 00	 movss	 xmm0, DWORD PTR [eax+7684]
  004f0	0f 2f 81 fc 1d
	00 00		 comiss	 xmm0, DWORD PTR [ecx+7676]
  004f7	76 15		 jbe	 SHORT $LN27@update_mai
  004f9	8b 15 00 00 00
	00		 mov	 edx, DWORD PTR ?current_flight_dynamics@@3PAUDYNAMICS_TYPE@@A ; current_flight_dynamics
  004ff	f3 0f 10 82 04
	1e 00 00	 movss	 xmm0, DWORD PTR [edx+7684]
  00507	f3 0f 11 45 a8	 movss	 DWORD PTR tv317[ebp], xmm0
  0050c	eb 4d		 jmp	 SHORT $LN28@update_mai
$LN27@update_mai:
  0050e	a1 00 00 00 00	 mov	 eax, DWORD PTR ?current_flight_dynamics@@3PAUDYNAMICS_TYPE@@A ; current_flight_dynamics
  00513	8b 0d 00 00 00
	00		 mov	 ecx, DWORD PTR ?current_flight_dynamics@@3PAUDYNAMICS_TYPE@@A ; current_flight_dynamics
  00519	f3 0f 10 80 fc
	1d 00 00	 movss	 xmm0, DWORD PTR [eax+7676]
  00521	0f 2f 81 08 1e
	00 00		 comiss	 xmm0, DWORD PTR [ecx+7688]
  00528	76 15		 jbe	 SHORT $LN25@update_mai
  0052a	8b 15 00 00 00
	00		 mov	 edx, DWORD PTR ?current_flight_dynamics@@3PAUDYNAMICS_TYPE@@A ; current_flight_dynamics
  00530	f3 0f 10 82 08
	1e 00 00	 movss	 xmm0, DWORD PTR [edx+7688]
  00538	f3 0f 11 45 a4	 movss	 DWORD PTR tv316[ebp], xmm0
  0053d	eb 12		 jmp	 SHORT $LN26@update_mai
$LN25@update_mai:
  0053f	a1 00 00 00 00	 mov	 eax, DWORD PTR ?current_flight_dynamics@@3PAUDYNAMICS_TYPE@@A ; current_flight_dynamics
  00544	f3 0f 10 80 fc
	1d 00 00	 movss	 xmm0, DWORD PTR [eax+7676]
  0054c	f3 0f 11 45 a4	 movss	 DWORD PTR tv316[ebp], xmm0
$LN26@update_mai:
  00551	f3 0f 10 45 a4	 movss	 xmm0, DWORD PTR tv316[ebp]
  00556	f3 0f 11 45 a8	 movss	 DWORD PTR tv317[ebp], xmm0
$LN28@update_mai:
  0055b	8b 0d 00 00 00
	00		 mov	 ecx, DWORD PTR ?current_flight_dynamics@@3PAUDYNAMICS_TYPE@@A ; current_flight_dynamics
  00561	f3 0f 10 45 a8	 movss	 xmm0, DWORD PTR tv317[ebp]
  00566	f3 0f 11 81 fc
	1d 00 00	 movss	 DWORD PTR [ecx+7676], xmm0

; 878  : 																current_flight_dynamics->main_rotor_pitch_angle.value,
; 879  : 																current_flight_dynamics->main_rotor_pitch_angle.min,
; 880  : 																current_flight_dynamics->main_rotor_pitch_angle.max);
; 881  : 
; 882  : 	// debug
; 883  : 
; 884  : 	current_flight_dynamics->main_rotor_swash_plate_pitch.value = current_flight_dynamics->main_rotor_pitch_angle.value;

  0056e	a1 00 00 00 00	 mov	 eax, DWORD PTR ?current_flight_dynamics@@3PAUDYNAMICS_TYPE@@A ; current_flight_dynamics
  00573	8b 0d 00 00 00
	00		 mov	 ecx, DWORD PTR ?current_flight_dynamics@@3PAUDYNAMICS_TYPE@@A ; current_flight_dynamics
  00579	8b 91 fc 1d 00
	00		 mov	 edx, DWORD PTR [ecx+7676]
  0057f	89 90 d4 1e 00
	00		 mov	 DWORD PTR [eax+7892], edx

; 885  : 
; 886  : 	current_flight_dynamics->main_rotor_swash_plate_roll.value = current_flight_dynamics->main_rotor_roll_angle.value;

  00585	a1 00 00 00 00	 mov	 eax, DWORD PTR ?current_flight_dynamics@@3PAUDYNAMICS_TYPE@@A ; current_flight_dynamics
  0058a	8b 0d 00 00 00
	00		 mov	 ecx, DWORD PTR ?current_flight_dynamics@@3PAUDYNAMICS_TYPE@@A ; current_flight_dynamics
  00590	8b 91 e4 1d 00
	00		 mov	 edx, DWORD PTR [ecx+7652]
  00596	89 90 ec 1e 00
	00		 mov	 DWORD PTR [eax+7916], edx

; 887  : 
; 888  : 	// end
; 889  : }

  0059c	5f		 pop	 edi
  0059d	5e		 pop	 esi
  0059e	5b		 pop	 ebx
  0059f	8b e5		 mov	 esp, ebp
  005a1	5d		 pop	 ebp
  005a2	c3		 ret	 0
?update_main_rotor_dynamics@@YGXXZ ENDP			; update_main_rotor_dynamics
_TEXT	ENDS
; Function compile flags: /Odtp /ZI
; File c:\users\nhv90\projects\eech\aphavoc\source\gunships\dynamics\hind\hi_dyn.c
;	COMDAT ?set_dynamics_defaults@@YGXPAUENTITY@@@Z
_TEXT	SEGMENT
tv1063 = -108						; size = 8
tv347 = -108						; size = 4
tv339 = -104						; size = 4
_Tl$1 = -36						; size = 4
_Pmax$2 = -32						; size = 4
_Md$3 = -28						; size = 4
_Mrpm$4 = -24						; size = 4
_option$5 = -20						; size = 4
_flag$6 = -16						; size = 4
_position$ = -12					; size = 12
_en$ = 8						; size = 4
?set_dynamics_defaults@@YGXPAUENTITY@@@Z PROC		; set_dynamics_defaults, COMDAT

; 148  : {

  00000	55		 push	 ebp
  00001	8b ec		 mov	 ebp, esp
  00003	83 ec 6c	 sub	 esp, 108		; 0000006cH
  00006	53		 push	 ebx
  00007	56		 push	 esi
  00008	57		 push	 edi

; 149  : 
; 150  : 	vec3d
; 151  : 		position;
; 152  : 
; 153  : 	memset (current_flight_dynamics, 0, sizeof (dynamics_type));

  00009	68 40 25 00 00	 push	 9536			; 00002540H
  0000e	6a 00		 push	 0
  00010	a1 00 00 00 00	 mov	 eax, DWORD PTR ?current_flight_dynamics@@3PAUDYNAMICS_TYPE@@A ; current_flight_dynamics
  00015	50		 push	 eax
  00016	e8 00 00 00 00	 call	 _memset
  0001b	83 c4 0c	 add	 esp, 12			; 0000000cH

; 154  : 
; 155  : 	if (parser_flight_dynamics_options == 0)

  0001e	83 3d 00 00 00
	00 00		 cmp	 DWORD PTR ?parser_flight_dynamics_options@@3HA, 0 ; parser_flight_dynamics_options
  00025	0f 85 f9 00 00
	00		 jne	 $LN4@set_dynami

; 156  : 	{
; 157  : 
; 158  : 		set_current_dynamics_options (DYNAMICS_OPTIONS_CROSS_COUPLING, get_global_dynamics_options_cross_coupling());

  0002b	a1 50 00 00 00	 mov	 eax, DWORD PTR ?global_options@@3UGLOBAL_OPTIONS_DATA@@A+80
  00030	c1 e8 09	 shr	 eax, 9
  00033	83 e0 01	 and	 eax, 1
  00036	50		 push	 eax
  00037	6a 00		 push	 0
  00039	e8 00 00 00 00	 call	 ?set_current_dynamics_options@@YGXW4DYNAMICS_OPTIONS_TYPES@@H@Z ; set_current_dynamics_options

; 159  : 		set_current_dynamics_options (DYNAMICS_OPTIONS_DAMAGE, get_global_dynamics_options_damage());

  0003e	a1 50 00 00 00	 mov	 eax, DWORD PTR ?global_options@@3UGLOBAL_OPTIONS_DATA@@A+80
  00043	c1 e8 0d	 shr	 eax, 13			; 0000000dH
  00046	83 e0 01	 and	 eax, 1
  00049	50		 push	 eax
  0004a	6a 01		 push	 1
  0004c	e8 00 00 00 00	 call	 ?set_current_dynamics_options@@YGXW4DYNAMICS_OPTIONS_TYPES@@H@Z ; set_current_dynamics_options

; 160  : 		set_current_dynamics_options (DYNAMICS_OPTIONS_DRAW_FLIGHT_PATH, get_global_dynamics_options_draw_flight_path());

  00051	a1 50 00 00 00	 mov	 eax, DWORD PTR ?global_options@@3UGLOBAL_OPTIONS_DATA@@A+80
  00056	c1 e8 0f	 shr	 eax, 15			; 0000000fH
  00059	83 e0 01	 and	 eax, 1
  0005c	50		 push	 eax
  0005d	6a 02		 push	 2
  0005f	e8 00 00 00 00	 call	 ?set_current_dynamics_options@@YGXW4DYNAMICS_OPTIONS_TYPES@@H@Z ; set_current_dynamics_options

; 161  : 		set_current_dynamics_options (DYNAMICS_OPTIONS_GROUND_COLLISIONS, get_global_dynamics_options_ground_collisions());

  00064	a1 50 00 00 00	 mov	 eax, DWORD PTR ?global_options@@3UGLOBAL_OPTIONS_DATA@@A+80
  00069	c1 e8 0c	 shr	 eax, 12			; 0000000cH
  0006c	83 e0 01	 and	 eax, 1
  0006f	50		 push	 eax
  00070	6a 03		 push	 3
  00072	e8 00 00 00 00	 call	 ?set_current_dynamics_options@@YGXW4DYNAMICS_OPTIONS_TYPES@@H@Z ; set_current_dynamics_options

; 162  : 		set_current_dynamics_options (DYNAMICS_OPTIONS_GROUND_EFFECT, get_global_dynamics_options_ground_effect());

  00077	a1 50 00 00 00	 mov	 eax, DWORD PTR ?global_options@@3UGLOBAL_OPTIONS_DATA@@A+80
  0007c	c1 e8 0a	 shr	 eax, 10			; 0000000aH
  0007f	83 e0 01	 and	 eax, 1
  00082	50		 push	 eax
  00083	6a 04		 push	 4
  00085	e8 00 00 00 00	 call	 ?set_current_dynamics_options@@YGXW4DYNAMICS_OPTIONS_TYPES@@H@Z ; set_current_dynamics_options

; 163  : 		set_current_dynamics_options (DYNAMICS_OPTIONS_KEYBOARD_ASSISTANCE, get_global_dynamics_options_keyboard_assistance());

  0008a	a1 50 00 00 00	 mov	 eax, DWORD PTR ?global_options@@3UGLOBAL_OPTIONS_DATA@@A+80
  0008f	c1 e8 08	 shr	 eax, 8
  00092	83 e0 01	 and	 eax, 1
  00095	50		 push	 eax
  00096	6a 05		 push	 5
  00098	e8 00 00 00 00	 call	 ?set_current_dynamics_options@@YGXW4DYNAMICS_OPTIONS_TYPES@@H@Z ; set_current_dynamics_options

; 164  : 		set_current_dynamics_options (DYNAMICS_OPTIONS_OBJECT_COLLISIONS, get_global_dynamics_options_object_collisions());

  0009d	a1 50 00 00 00	 mov	 eax, DWORD PTR ?global_options@@3UGLOBAL_OPTIONS_DATA@@A+80
  000a2	c1 e8 0b	 shr	 eax, 11			; 0000000bH
  000a5	83 e0 01	 and	 eax, 1
  000a8	50		 push	 eax
  000a9	6a 06		 push	 6
  000ab	e8 00 00 00 00	 call	 ?set_current_dynamics_options@@YGXW4DYNAMICS_OPTIONS_TYPES@@H@Z ; set_current_dynamics_options

; 165  : 		set_current_dynamics_options (DYNAMICS_OPTIONS_OVER_TORQUE, get_global_dynamics_options_over_torque());

  000b0	a1 50 00 00 00	 mov	 eax, DWORD PTR ?global_options@@3UGLOBAL_OPTIONS_DATA@@A+80
  000b5	c1 e8 0e	 shr	 eax, 14			; 0000000eH
  000b8	83 e0 01	 and	 eax, 1
  000bb	50		 push	 eax
  000bc	6a 07		 push	 7
  000be	e8 00 00 00 00	 call	 ?set_current_dynamics_options@@YGXW4DYNAMICS_OPTIONS_TYPES@@H@Z ; set_current_dynamics_options

; 166  : 		set_current_dynamics_options (DYNAMICS_OPTIONS_RETREATING_BLADE_STALL, get_global_dynamics_options_retreating_blade_stall());

  000c3	a1 50 00 00 00	 mov	 eax, DWORD PTR ?global_options@@3UGLOBAL_OPTIONS_DATA@@A+80
  000c8	c1 e8 06	 shr	 eax, 6
  000cb	83 e0 01	 and	 eax, 1
  000ce	50		 push	 eax
  000cf	6a 08		 push	 8
  000d1	e8 00 00 00 00	 call	 ?set_current_dynamics_options@@YGXW4DYNAMICS_OPTIONS_TYPES@@H@Z ; set_current_dynamics_options

; 167  : 		set_current_dynamics_options (DYNAMICS_OPTIONS_REVERSE_THROTTLE_INPUT, get_global_dynamics_options_reverse_throttle_input());

  000d6	a1 50 00 00 00	 mov	 eax, DWORD PTR ?global_options@@3UGLOBAL_OPTIONS_DATA@@A+80
  000db	c1 e8 07	 shr	 eax, 7
  000de	83 e0 01	 and	 eax, 1
  000e1	50		 push	 eax
  000e2	6a 09		 push	 9
  000e4	e8 00 00 00 00	 call	 ?set_current_dynamics_options@@YGXW4DYNAMICS_OPTIONS_TYPES@@H@Z ; set_current_dynamics_options

; 168  : 		set_current_dynamics_options (DYNAMICS_OPTIONS_TRANSITIONAL_LIFT, get_global_dynamics_options_transitional_lift());

  000e9	a1 50 00 00 00	 mov	 eax, DWORD PTR ?global_options@@3UGLOBAL_OPTIONS_DATA@@A+80
  000ee	c1 e8 04	 shr	 eax, 4
  000f1	83 e0 01	 and	 eax, 1
  000f4	50		 push	 eax
  000f5	6a 0a		 push	 10			; 0000000aH
  000f7	e8 00 00 00 00	 call	 ?set_current_dynamics_options@@YGXW4DYNAMICS_OPTIONS_TYPES@@H@Z ; set_current_dynamics_options

; 169  : 		set_current_dynamics_options (DYNAMICS_OPTIONS_VORTEX_RING, get_global_dynamics_options_vortex_ring());

  000fc	a1 50 00 00 00	 mov	 eax, DWORD PTR ?global_options@@3UGLOBAL_OPTIONS_DATA@@A+80
  00101	c1 e8 05	 shr	 eax, 5
  00104	83 e0 01	 and	 eax, 1
  00107	50		 push	 eax
  00108	6a 0b		 push	 11			; 0000000bH
  0010a	e8 00 00 00 00	 call	 ?set_current_dynamics_options@@YGXW4DYNAMICS_OPTIONS_TYPES@@H@Z ; set_current_dynamics_options

; 170  : 		set_current_dynamics_options (DYNAMICS_OPTIONS_WIND, get_global_dynamics_options_wind());

  0010f	a1 50 00 00 00	 mov	 eax, DWORD PTR ?global_options@@3UGLOBAL_OPTIONS_DATA@@A+80
  00114	c1 e8 03	 shr	 eax, 3
  00117	83 e0 01	 and	 eax, 1
  0011a	50		 push	 eax
  0011b	6a 0c		 push	 12			; 0000000cH
  0011d	e8 00 00 00 00	 call	 ?set_current_dynamics_options@@YGXW4DYNAMICS_OPTIONS_TYPES@@H@Z ; set_current_dynamics_options

; 171  : 	}
; 172  : 	else

  00122	eb 3a		 jmp	 SHORT $LN3@set_dynami
$LN4@set_dynami:

; 173  : 	{
; 174  : 
; 175  : 		unsigned int
; 176  : 			flag;
; 177  : 
; 178  : 		int
; 179  : 			option;
; 180  : 
; 181  : 		flag = parser_flight_dynamics_options;

  00124	a1 00 00 00 00	 mov	 eax, DWORD PTR ?parser_flight_dynamics_options@@3HA ; parser_flight_dynamics_options
  00129	89 45 f0	 mov	 DWORD PTR _flag$6[ebp], eax

; 182  : 
; 183  : 		option = DYNAMICS_OPTIONS_CROSS_COUPLING;

  0012c	c7 45 ec 00 00
	00 00		 mov	 DWORD PTR _option$5[ebp], 0
$LN2@set_dynami:

; 184  : 
; 185  : 		while (option < NUM_DYNAMICS_OPTIONS_TYPES)

  00133	83 7d ec 0d	 cmp	 DWORD PTR _option$5[ebp], 13 ; 0000000dH
  00137	7d 25		 jge	 SHORT $LN3@set_dynami

; 186  : 		{
; 187  : 
; 188  : 			if (flag & (1 << option))

  00139	b8 01 00 00 00	 mov	 eax, 1
  0013e	8b 4d ec	 mov	 ecx, DWORD PTR _option$5[ebp]
  00141	d3 e0		 shl	 eax, cl
  00143	23 45 f0	 and	 eax, DWORD PTR _flag$6[ebp]
  00146	74 0b		 je	 SHORT $LN6@set_dynami

; 189  : 			{
; 190  : 
; 191  : 				set_current_dynamics_options ((dynamics_options_types) option, TRUE);

  00148	6a 01		 push	 1
  0014a	8b 45 ec	 mov	 eax, DWORD PTR _option$5[ebp]
  0014d	50		 push	 eax
  0014e	e8 00 00 00 00	 call	 ?set_current_dynamics_options@@YGXW4DYNAMICS_OPTIONS_TYPES@@H@Z ; set_current_dynamics_options
$LN6@set_dynami:

; 192  : 
; 193  : 				#if DEBUG_MODULE
; 194  : 
; 195  : 				debug_log ("DYNAMICS: flight dynamics %s = %d", dynamics_options_type_names [option], TRUE);
; 196  : 
; 197  : 				#endif
; 198  : 			}
; 199  : 
; 200  : 			option ++;

  00153	8b 45 ec	 mov	 eax, DWORD PTR _option$5[ebp]
  00156	83 c0 01	 add	 eax, 1
  00159	89 45 ec	 mov	 DWORD PTR _option$5[ebp], eax

; 201  : 		}

  0015c	eb d5		 jmp	 SHORT $LN2@set_dynami
$LN3@set_dynami:

; 202  : 	}
; 203  : 
; 204  : 	// set default modifier values
; 205  : 
; 206  : 	current_flight_dynamics->undercarriage_state.modifier = 1.0;

  0015e	a1 00 00 00 00	 mov	 eax, DWORD PTR ?current_flight_dynamics@@3PAUDYNAMICS_TYPE@@A ; current_flight_dynamics
  00163	f3 0f 10 05 00
	00 00 00	 movss	 xmm0, DWORD PTR __real@3f800000
  0016b	f3 0f 11 80 60
	1c 00 00	 movss	 DWORD PTR [eax+7264], xmm0

; 207  : 	current_flight_dynamics->apu_rpm.modifier = 1.0;

  00173	a1 00 00 00 00	 mov	 eax, DWORD PTR ?current_flight_dynamics@@3PAUDYNAMICS_TYPE@@A ; current_flight_dynamics
  00178	f3 0f 10 05 00
	00 00 00	 movss	 xmm0, DWORD PTR __real@3f800000
  00180	f3 0f 11 80 38
	1d 00 00	 movss	 DWORD PTR [eax+7480], xmm0

; 208  : 	current_flight_dynamics->left_engine_rpm.modifier = 1.0;

  00188	a1 00 00 00 00	 mov	 eax, DWORD PTR ?current_flight_dynamics@@3PAUDYNAMICS_TYPE@@A ; current_flight_dynamics
  0018d	f3 0f 10 05 00
	00 00 00	 movss	 xmm0, DWORD PTR __real@3f800000
  00195	f3 0f 11 80 78
	1c 00 00	 movss	 DWORD PTR [eax+7288], xmm0

; 209  : 	current_flight_dynamics->left_engine_torque.modifier = 1.0;

  0019d	a1 00 00 00 00	 mov	 eax, DWORD PTR ?current_flight_dynamics@@3PAUDYNAMICS_TYPE@@A ; current_flight_dynamics
  001a2	f3 0f 10 05 00
	00 00 00	 movss	 xmm0, DWORD PTR __real@3f800000
  001aa	f3 0f 11 80 a8
	1c 00 00	 movss	 DWORD PTR [eax+7336], xmm0

; 210  : 	current_flight_dynamics->left_engine_temp.modifier = 1.0;

  001b2	a1 00 00 00 00	 mov	 eax, DWORD PTR ?current_flight_dynamics@@3PAUDYNAMICS_TYPE@@A ; current_flight_dynamics
  001b7	f3 0f 10 05 00
	00 00 00	 movss	 xmm0, DWORD PTR __real@3f800000
  001bf	f3 0f 11 80 c0
	1c 00 00	 movss	 DWORD PTR [eax+7360], xmm0

; 211  : 	current_flight_dynamics->right_engine_rpm.modifier = 1.0;

  001c7	a1 00 00 00 00	 mov	 eax, DWORD PTR ?current_flight_dynamics@@3PAUDYNAMICS_TYPE@@A ; current_flight_dynamics
  001cc	f3 0f 10 05 00
	00 00 00	 movss	 xmm0, DWORD PTR __real@3f800000
  001d4	f3 0f 11 80 d8
	1c 00 00	 movss	 DWORD PTR [eax+7384], xmm0

; 212  : 	current_flight_dynamics->right_engine_torque.modifier = 1.0;

  001dc	a1 00 00 00 00	 mov	 eax, DWORD PTR ?current_flight_dynamics@@3PAUDYNAMICS_TYPE@@A ; current_flight_dynamics
  001e1	f3 0f 10 05 00
	00 00 00	 movss	 xmm0, DWORD PTR __real@3f800000
  001e9	f3 0f 11 80 08
	1d 00 00	 movss	 DWORD PTR [eax+7432], xmm0

; 213  : 	current_flight_dynamics->right_engine_temp.modifier = 1.0;

  001f1	a1 00 00 00 00	 mov	 eax, DWORD PTR ?current_flight_dynamics@@3PAUDYNAMICS_TYPE@@A ; current_flight_dynamics
  001f6	f3 0f 10 05 00
	00 00 00	 movss	 xmm0, DWORD PTR __real@3f800000
  001fe	f3 0f 11 80 20
	1d 00 00	 movss	 DWORD PTR [eax+7456], xmm0

; 214  : 	current_flight_dynamics->main_rotor_number_of_blades.modifier = 1.0;

  00206	a1 00 00 00 00	 mov	 eax, DWORD PTR ?current_flight_dynamics@@3PAUDYNAMICS_TYPE@@A ; current_flight_dynamics
  0020b	f3 0f 10 05 00
	00 00 00	 movss	 xmm0, DWORD PTR __real@3f800000
  00213	f3 0f 11 80 50
	1d 00 00	 movss	 DWORD PTR [eax+7504], xmm0

; 215  : 	current_flight_dynamics->main_rotor_induced_air.modifier = 0.55;

  0021b	a1 00 00 00 00	 mov	 eax, DWORD PTR ?current_flight_dynamics@@3PAUDYNAMICS_TYPE@@A ; current_flight_dynamics
  00220	f3 0f 10 05 00
	00 00 00	 movss	 xmm0, DWORD PTR __real@3f0ccccd
  00228	f3 0f 11 80 68
	1d 00 00	 movss	 DWORD PTR [eax+7528], xmm0

; 216  : 	current_flight_dynamics->main_rotor_induced_vortex_air_flow.modifier = 0.3;

  00230	a1 00 00 00 00	 mov	 eax, DWORD PTR ?current_flight_dynamics@@3PAUDYNAMICS_TYPE@@A ; current_flight_dynamics
  00235	f3 0f 10 05 00
	00 00 00	 movss	 xmm0, DWORD PTR __real@3e99999a
  0023d	f3 0f 11 80 80
	1d 00 00	 movss	 DWORD PTR [eax+7552], xmm0

; 217  : 	current_flight_dynamics->main_rotor_diameter.modifier = 1.0;

  00245	a1 00 00 00 00	 mov	 eax, DWORD PTR ?current_flight_dynamics@@3PAUDYNAMICS_TYPE@@A ; current_flight_dynamics
  0024a	f3 0f 10 05 00
	00 00 00	 movss	 xmm0, DWORD PTR __real@3f800000
  00252	f3 0f 11 80 98
	1d 00 00	 movss	 DWORD PTR [eax+7576], xmm0

; 218  : 	current_flight_dynamics->main_rotor_area.modifier = 1.0;

  0025a	a1 00 00 00 00	 mov	 eax, DWORD PTR ?current_flight_dynamics@@3PAUDYNAMICS_TYPE@@A ; current_flight_dynamics
  0025f	f3 0f 10 05 00
	00 00 00	 movss	 xmm0, DWORD PTR __real@3f800000
  00267	f3 0f 11 80 b0
	1d 00 00	 movss	 DWORD PTR [eax+7600], xmm0

; 219  : 	current_flight_dynamics->main_rotor_thrust.modifier = 1.0;

  0026f	a1 00 00 00 00	 mov	 eax, DWORD PTR ?current_flight_dynamics@@3PAUDYNAMICS_TYPE@@A ; current_flight_dynamics
  00274	f3 0f 10 05 00
	00 00 00	 movss	 xmm0, DWORD PTR __real@3f800000
  0027c	f3 0f 11 80 c8
	1d 00 00	 movss	 DWORD PTR [eax+7624], xmm0

; 220  : 	current_flight_dynamics->main_rotor_roll_angle.modifier = 1.0;

  00284	a1 00 00 00 00	 mov	 eax, DWORD PTR ?current_flight_dynamics@@3PAUDYNAMICS_TYPE@@A ; current_flight_dynamics
  00289	f3 0f 10 05 00
	00 00 00	 movss	 xmm0, DWORD PTR __real@3f800000
  00291	f3 0f 11 80 e0
	1d 00 00	 movss	 DWORD PTR [eax+7648], xmm0

; 221  : 	current_flight_dynamics->main_rotor_pitch_angle.modifier = 1.0;

  00299	a1 00 00 00 00	 mov	 eax, DWORD PTR ?current_flight_dynamics@@3PAUDYNAMICS_TYPE@@A ; current_flight_dynamics
  0029e	f3 0f 10 05 00
	00 00 00	 movss	 xmm0, DWORD PTR __real@3f800000
  002a6	f3 0f 11 80 f8
	1d 00 00	 movss	 DWORD PTR [eax+7672], xmm0

; 222  : 	current_flight_dynamics->main_rotor_rpm.modifier = 1.0;

  002ae	a1 00 00 00 00	 mov	 eax, DWORD PTR ?current_flight_dynamics@@3PAUDYNAMICS_TYPE@@A ; current_flight_dynamics
  002b3	f3 0f 10 05 00
	00 00 00	 movss	 xmm0, DWORD PTR __real@3f800000
  002bb	f3 0f 11 80 10
	1e 00 00	 movss	 DWORD PTR [eax+7696], xmm0

; 223  : 	current_flight_dynamics->main_rotor_rps.modifier = 1.0;

  002c3	a1 00 00 00 00	 mov	 eax, DWORD PTR ?current_flight_dynamics@@3PAUDYNAMICS_TYPE@@A ; current_flight_dynamics
  002c8	f3 0f 10 05 00
	00 00 00	 movss	 xmm0, DWORD PTR __real@3f800000
  002d0	f3 0f 11 80 28
	1e 00 00	 movss	 DWORD PTR [eax+7720], xmm0

; 224  : 	current_flight_dynamics->main_rotor_coning_angle.modifier = 1.0;

  002d8	a1 00 00 00 00	 mov	 eax, DWORD PTR ?current_flight_dynamics@@3PAUDYNAMICS_TYPE@@A ; current_flight_dynamics
  002dd	f3 0f 10 05 00
	00 00 00	 movss	 xmm0, DWORD PTR __real@3f800000
  002e5	f3 0f 11 80 40
	1e 00 00	 movss	 DWORD PTR [eax+7744], xmm0

; 225  : 	current_flight_dynamics->main_rotor_angular_position.modifier = 1.0;

  002ed	a1 00 00 00 00	 mov	 eax, DWORD PTR ?current_flight_dynamics@@3PAUDYNAMICS_TYPE@@A ; current_flight_dynamics
  002f2	f3 0f 10 05 00
	00 00 00	 movss	 xmm0, DWORD PTR __real@3f800000
  002fa	f3 0f 11 80 58
	1e 00 00	 movss	 DWORD PTR [eax+7768], xmm0

; 226  : 	current_flight_dynamics->main_rotor_angular_increment.modifier = 1.0;

  00302	a1 00 00 00 00	 mov	 eax, DWORD PTR ?current_flight_dynamics@@3PAUDYNAMICS_TYPE@@A ; current_flight_dynamics
  00307	f3 0f 10 05 00
	00 00 00	 movss	 xmm0, DWORD PTR __real@3f800000
  0030f	f3 0f 11 80 70
	1e 00 00	 movss	 DWORD PTR [eax+7792], xmm0

; 227  : 	current_flight_dynamics->main_blade_pitch.modifier = 1.0;

  00317	a1 00 00 00 00	 mov	 eax, DWORD PTR ?current_flight_dynamics@@3PAUDYNAMICS_TYPE@@A ; current_flight_dynamics
  0031c	f3 0f 10 05 00
	00 00 00	 movss	 xmm0, DWORD PTR __real@3f800000
  00324	f3 0f 11 80 88
	1e 00 00	 movss	 DWORD PTR [eax+7816], xmm0

; 228  : 	current_flight_dynamics->main_blade_x_pitch.modifier = 1.0;

  0032c	a1 00 00 00 00	 mov	 eax, DWORD PTR ?current_flight_dynamics@@3PAUDYNAMICS_TYPE@@A ; current_flight_dynamics
  00331	f3 0f 10 05 00
	00 00 00	 movss	 xmm0, DWORD PTR __real@3f800000
  00339	f3 0f 11 80 a0
	1e 00 00	 movss	 DWORD PTR [eax+7840], xmm0

; 229  : 	current_flight_dynamics->main_blade_y_pitch.modifier = 1.0;

  00341	a1 00 00 00 00	 mov	 eax, DWORD PTR ?current_flight_dynamics@@3PAUDYNAMICS_TYPE@@A ; current_flight_dynamics
  00346	f3 0f 10 05 00
	00 00 00	 movss	 xmm0, DWORD PTR __real@3f800000
  0034e	f3 0f 11 80 b8
	1e 00 00	 movss	 DWORD PTR [eax+7864], xmm0

; 230  : 	current_flight_dynamics->main_rotor_swash_plate_pitch.modifier = 1.0;

  00356	a1 00 00 00 00	 mov	 eax, DWORD PTR ?current_flight_dynamics@@3PAUDYNAMICS_TYPE@@A ; current_flight_dynamics
  0035b	f3 0f 10 05 00
	00 00 00	 movss	 xmm0, DWORD PTR __real@3f800000
  00363	f3 0f 11 80 d0
	1e 00 00	 movss	 DWORD PTR [eax+7888], xmm0

; 231  : 	current_flight_dynamics->main_rotor_swash_plate_roll.modifier = 1.0;

  0036b	a1 00 00 00 00	 mov	 eax, DWORD PTR ?current_flight_dynamics@@3PAUDYNAMICS_TYPE@@A ; current_flight_dynamics
  00370	f3 0f 10 05 00
	00 00 00	 movss	 xmm0, DWORD PTR __real@3f800000
  00378	f3 0f 11 80 e8
	1e 00 00	 movss	 DWORD PTR [eax+7912], xmm0

; 232  : 	current_flight_dynamics->tail_rotor_induced_air.modifier = 1.0;

  00380	a1 00 00 00 00	 mov	 eax, DWORD PTR ?current_flight_dynamics@@3PAUDYNAMICS_TYPE@@A ; current_flight_dynamics
  00385	f3 0f 10 05 00
	00 00 00	 movss	 xmm0, DWORD PTR __real@3f800000
  0038d	f3 0f 11 80 00
	1f 00 00	 movss	 DWORD PTR [eax+7936], xmm0

; 233  : 	current_flight_dynamics->tail_rotor_diameter.modifier = 1.0;

  00395	a1 00 00 00 00	 mov	 eax, DWORD PTR ?current_flight_dynamics@@3PAUDYNAMICS_TYPE@@A ; current_flight_dynamics
  0039a	f3 0f 10 05 00
	00 00 00	 movss	 xmm0, DWORD PTR __real@3f800000
  003a2	f3 0f 11 80 18
	1f 00 00	 movss	 DWORD PTR [eax+7960], xmm0

; 234  : 	current_flight_dynamics->tail_rotor_thrust.modifier = 1.0;

  003aa	a1 00 00 00 00	 mov	 eax, DWORD PTR ?current_flight_dynamics@@3PAUDYNAMICS_TYPE@@A ; current_flight_dynamics
  003af	f3 0f 10 05 00
	00 00 00	 movss	 xmm0, DWORD PTR __real@3f800000
  003b7	f3 0f 11 80 30
	1f 00 00	 movss	 DWORD PTR [eax+7984], xmm0

; 235  : 	current_flight_dynamics->tail_rotor_rpm.modifier = 1.0;

  003bf	a1 00 00 00 00	 mov	 eax, DWORD PTR ?current_flight_dynamics@@3PAUDYNAMICS_TYPE@@A ; current_flight_dynamics
  003c4	f3 0f 10 05 00
	00 00 00	 movss	 xmm0, DWORD PTR __real@3f800000
  003cc	f3 0f 11 80 48
	1f 00 00	 movss	 DWORD PTR [eax+8008], xmm0

; 236  : 	current_flight_dynamics->tail_rotor_rps.modifier = 1.0;

  003d4	a1 00 00 00 00	 mov	 eax, DWORD PTR ?current_flight_dynamics@@3PAUDYNAMICS_TYPE@@A ; current_flight_dynamics
  003d9	f3 0f 10 05 00
	00 00 00	 movss	 xmm0, DWORD PTR __real@3f800000
  003e1	f3 0f 11 80 60
	1f 00 00	 movss	 DWORD PTR [eax+8032], xmm0

; 237  : 	current_flight_dynamics->tail_rotor_angular_position.modifier = 1.0;

  003e9	a1 00 00 00 00	 mov	 eax, DWORD PTR ?current_flight_dynamics@@3PAUDYNAMICS_TYPE@@A ; current_flight_dynamics
  003ee	f3 0f 10 05 00
	00 00 00	 movss	 xmm0, DWORD PTR __real@3f800000
  003f6	f3 0f 11 80 78
	1f 00 00	 movss	 DWORD PTR [eax+8056], xmm0

; 238  : 	current_flight_dynamics->tail_blade_pitch.modifier = 1.0;

  003fe	a1 00 00 00 00	 mov	 eax, DWORD PTR ?current_flight_dynamics@@3PAUDYNAMICS_TYPE@@A ; current_flight_dynamics
  00403	f3 0f 10 05 00
	00 00 00	 movss	 xmm0, DWORD PTR __real@3f800000
  0040b	f3 0f 11 80 90
	1f 00 00	 movss	 DWORD PTR [eax+8080], xmm0

; 239  : 	current_flight_dynamics->tail_boom_length.modifier = 1.0;

  00413	a1 00 00 00 00	 mov	 eax, DWORD PTR ?current_flight_dynamics@@3PAUDYNAMICS_TYPE@@A ; current_flight_dynamics
  00418	f3 0f 10 05 00
	00 00 00	 movss	 xmm0, DWORD PTR __real@3f800000
  00420	f3 0f 11 80 a8
	1f 00 00	 movss	 DWORD PTR [eax+8104], xmm0

; 240  : 	current_flight_dynamics->cross_coupling_effect.modifier = 1.0;

  00428	a1 00 00 00 00	 mov	 eax, DWORD PTR ?current_flight_dynamics@@3PAUDYNAMICS_TYPE@@A ; current_flight_dynamics
  0042d	f3 0f 10 05 00
	00 00 00	 movss	 xmm0, DWORD PTR __real@3f800000
  00435	f3 0f 11 80 c0
	1f 00 00	 movss	 DWORD PTR [eax+8128], xmm0

; 241  : 	current_flight_dynamics->power_avaliable.modifier = 1.0;

  0043d	a1 00 00 00 00	 mov	 eax, DWORD PTR ?current_flight_dynamics@@3PAUDYNAMICS_TYPE@@A ; current_flight_dynamics
  00442	f3 0f 10 05 00
	00 00 00	 movss	 xmm0, DWORD PTR __real@3f800000
  0044a	f3 0f 11 80 d8
	1f 00 00	 movss	 DWORD PTR [eax+8152], xmm0

; 242  : 	current_flight_dynamics->power_required.modifier = 1.0;

  00452	a1 00 00 00 00	 mov	 eax, DWORD PTR ?current_flight_dynamics@@3PAUDYNAMICS_TYPE@@A ; current_flight_dynamics
  00457	f3 0f 10 05 00
	00 00 00	 movss	 xmm0, DWORD PTR __real@3f800000
  0045f	f3 0f 11 80 f0
	1f 00 00	 movss	 DWORD PTR [eax+8176], xmm0

; 243  : 	current_flight_dynamics->power_induced.modifier = 1.0;

  00467	a1 00 00 00 00	 mov	 eax, DWORD PTR ?current_flight_dynamics@@3PAUDYNAMICS_TYPE@@A ; current_flight_dynamics
  0046c	f3 0f 10 05 00
	00 00 00	 movss	 xmm0, DWORD PTR __real@3f800000
  00474	f3 0f 11 80 08
	20 00 00	 movss	 DWORD PTR [eax+8200], xmm0

; 244  : 	current_flight_dynamics->power_profile.modifier = 1.0;

  0047c	a1 00 00 00 00	 mov	 eax, DWORD PTR ?current_flight_dynamics@@3PAUDYNAMICS_TYPE@@A ; current_flight_dynamics
  00481	f3 0f 10 05 00
	00 00 00	 movss	 xmm0, DWORD PTR __real@3f800000
  00489	f3 0f 11 80 20
	20 00 00	 movss	 DWORD PTR [eax+8224], xmm0

; 245  : 	current_flight_dynamics->power_parasite.modifier = 1.0;

  00491	a1 00 00 00 00	 mov	 eax, DWORD PTR ?current_flight_dynamics@@3PAUDYNAMICS_TYPE@@A ; current_flight_dynamics
  00496	f3 0f 10 05 00
	00 00 00	 movss	 xmm0, DWORD PTR __real@3f800000
  0049e	f3 0f 11 80 38
	20 00 00	 movss	 DWORD PTR [eax+8248], xmm0

; 246  : 	current_flight_dynamics->power_surplus.modifier = 1.0;

  004a6	a1 00 00 00 00	 mov	 eax, DWORD PTR ?current_flight_dynamics@@3PAUDYNAMICS_TYPE@@A ; current_flight_dynamics
  004ab	f3 0f 10 05 00
	00 00 00	 movss	 xmm0, DWORD PTR __real@3f800000
  004b3	f3 0f 11 80 50
	20 00 00	 movss	 DWORD PTR [eax+8272], xmm0

; 247  : 	current_flight_dynamics->velocity_x.modifier = 1.0;

  004bb	a1 00 00 00 00	 mov	 eax, DWORD PTR ?current_flight_dynamics@@3PAUDYNAMICS_TYPE@@A ; current_flight_dynamics
  004c0	f3 0f 10 05 00
	00 00 00	 movss	 xmm0, DWORD PTR __real@3f800000
  004c8	f3 0f 11 80 68
	20 00 00	 movss	 DWORD PTR [eax+8296], xmm0

; 248  : 	current_flight_dynamics->velocity_y.modifier = 1.0;

  004d0	a1 00 00 00 00	 mov	 eax, DWORD PTR ?current_flight_dynamics@@3PAUDYNAMICS_TYPE@@A ; current_flight_dynamics
  004d5	f3 0f 10 05 00
	00 00 00	 movss	 xmm0, DWORD PTR __real@3f800000
  004dd	f3 0f 11 80 80
	20 00 00	 movss	 DWORD PTR [eax+8320], xmm0

; 249  : 	current_flight_dynamics->velocity_z.modifier = 1.0;

  004e5	a1 00 00 00 00	 mov	 eax, DWORD PTR ?current_flight_dynamics@@3PAUDYNAMICS_TYPE@@A ; current_flight_dynamics
  004ea	f3 0f 10 05 00
	00 00 00	 movss	 xmm0, DWORD PTR __real@3f800000
  004f2	f3 0f 11 80 98
	20 00 00	 movss	 DWORD PTR [eax+8344], xmm0

; 250  : 	current_flight_dynamics->acceleration_x.modifier = 1.0;

  004fa	a1 00 00 00 00	 mov	 eax, DWORD PTR ?current_flight_dynamics@@3PAUDYNAMICS_TYPE@@A ; current_flight_dynamics
  004ff	f3 0f 10 05 00
	00 00 00	 movss	 xmm0, DWORD PTR __real@3f800000
  00507	f3 0f 11 80 b0
	20 00 00	 movss	 DWORD PTR [eax+8368], xmm0

; 251  : 	current_flight_dynamics->acceleration_y.modifier = 1.0;

  0050f	a1 00 00 00 00	 mov	 eax, DWORD PTR ?current_flight_dynamics@@3PAUDYNAMICS_TYPE@@A ; current_flight_dynamics
  00514	f3 0f 10 05 00
	00 00 00	 movss	 xmm0, DWORD PTR __real@3f800000
  0051c	f3 0f 11 80 c8
	20 00 00	 movss	 DWORD PTR [eax+8392], xmm0

; 252  : 	current_flight_dynamics->acceleration_z.modifier = 1.0;

  00524	a1 00 00 00 00	 mov	 eax, DWORD PTR ?current_flight_dynamics@@3PAUDYNAMICS_TYPE@@A ; current_flight_dynamics
  00529	f3 0f 10 05 00
	00 00 00	 movss	 xmm0, DWORD PTR __real@3f800000
  00531	f3 0f 11 80 e0
	20 00 00	 movss	 DWORD PTR [eax+8416], xmm0

; 253  : 	current_flight_dynamics->world_velocity_x.modifier = 1.0;

  00539	a1 00 00 00 00	 mov	 eax, DWORD PTR ?current_flight_dynamics@@3PAUDYNAMICS_TYPE@@A ; current_flight_dynamics
  0053e	f3 0f 10 05 00
	00 00 00	 movss	 xmm0, DWORD PTR __real@3f800000
  00546	f3 0f 11 80 f8
	20 00 00	 movss	 DWORD PTR [eax+8440], xmm0

; 254  : 	current_flight_dynamics->world_velocity_y.modifier = 1.0;

  0054e	a1 00 00 00 00	 mov	 eax, DWORD PTR ?current_flight_dynamics@@3PAUDYNAMICS_TYPE@@A ; current_flight_dynamics
  00553	f3 0f 10 05 00
	00 00 00	 movss	 xmm0, DWORD PTR __real@3f800000
  0055b	f3 0f 11 80 10
	21 00 00	 movss	 DWORD PTR [eax+8464], xmm0

; 255  : 	current_flight_dynamics->world_velocity_z.modifier = 1.0;

  00563	a1 00 00 00 00	 mov	 eax, DWORD PTR ?current_flight_dynamics@@3PAUDYNAMICS_TYPE@@A ; current_flight_dynamics
  00568	f3 0f 10 05 00
	00 00 00	 movss	 xmm0, DWORD PTR __real@3f800000
  00570	f3 0f 11 80 28
	21 00 00	 movss	 DWORD PTR [eax+8488], xmm0

; 256  : 	current_flight_dynamics->air_density.modifier = 1.0;

  00578	a1 00 00 00 00	 mov	 eax, DWORD PTR ?current_flight_dynamics@@3PAUDYNAMICS_TYPE@@A ; current_flight_dynamics
  0057d	f3 0f 10 05 00
	00 00 00	 movss	 xmm0, DWORD PTR __real@3f800000
  00585	f3 0f 11 80 40
	21 00 00	 movss	 DWORD PTR [eax+8512], xmm0

; 257  : 	current_flight_dynamics->pitch.modifier = 1.0;

  0058d	a1 00 00 00 00	 mov	 eax, DWORD PTR ?current_flight_dynamics@@3PAUDYNAMICS_TYPE@@A ; current_flight_dynamics
  00592	f3 0f 10 05 00
	00 00 00	 movss	 xmm0, DWORD PTR __real@3f800000
  0059a	f3 0f 11 80 58
	21 00 00	 movss	 DWORD PTR [eax+8536], xmm0

; 258  : 	current_flight_dynamics->roll.modifier = 1.0;

  005a2	a1 00 00 00 00	 mov	 eax, DWORD PTR ?current_flight_dynamics@@3PAUDYNAMICS_TYPE@@A ; current_flight_dynamics
  005a7	f3 0f 10 05 00
	00 00 00	 movss	 xmm0, DWORD PTR __real@3f800000
  005af	f3 0f 11 80 70
	21 00 00	 movss	 DWORD PTR [eax+8560], xmm0

; 259  : 	current_flight_dynamics->heading.modifier = 1.0;

  005b7	a1 00 00 00 00	 mov	 eax, DWORD PTR ?current_flight_dynamics@@3PAUDYNAMICS_TYPE@@A ; current_flight_dynamics
  005bc	f3 0f 10 05 00
	00 00 00	 movss	 xmm0, DWORD PTR __real@3f800000
  005c4	f3 0f 11 80 88
	21 00 00	 movss	 DWORD PTR [eax+8584], xmm0

; 260  : 	current_flight_dynamics->lift.modifier = 1.0;

  005cc	a1 00 00 00 00	 mov	 eax, DWORD PTR ?current_flight_dynamics@@3PAUDYNAMICS_TYPE@@A ; current_flight_dynamics
  005d1	f3 0f 10 05 00
	00 00 00	 movss	 xmm0, DWORD PTR __real@3f800000
  005d9	f3 0f 11 80 a0
	21 00 00	 movss	 DWORD PTR [eax+8608], xmm0

; 261  : 	current_flight_dynamics->translational_lift.modifier = 0.01;

  005e1	a1 00 00 00 00	 mov	 eax, DWORD PTR ?current_flight_dynamics@@3PAUDYNAMICS_TYPE@@A ; current_flight_dynamics
  005e6	f3 0f 10 05 00
	00 00 00	 movss	 xmm0, DWORD PTR __real@3c23d70a
  005ee	f3 0f 11 80 b8
	21 00 00	 movss	 DWORD PTR [eax+8632], xmm0

; 262  : 	current_flight_dynamics->altitude.modifier = 1.0;

  005f6	a1 00 00 00 00	 mov	 eax, DWORD PTR ?current_flight_dynamics@@3PAUDYNAMICS_TYPE@@A ; current_flight_dynamics
  005fb	f3 0f 10 05 00
	00 00 00	 movss	 xmm0, DWORD PTR __real@3f800000
  00603	f3 0f 11 80 d0
	21 00 00	 movss	 DWORD PTR [eax+8656], xmm0

; 263  : 	current_flight_dynamics->drag_x.modifier = 1.0;

  0060b	a1 00 00 00 00	 mov	 eax, DWORD PTR ?current_flight_dynamics@@3PAUDYNAMICS_TYPE@@A ; current_flight_dynamics
  00610	f3 0f 10 05 00
	00 00 00	 movss	 xmm0, DWORD PTR __real@3f800000
  00618	f3 0f 11 80 e8
	21 00 00	 movss	 DWORD PTR [eax+8680], xmm0

; 264  : 	current_flight_dynamics->drag_y.modifier = 1.0;

  00620	a1 00 00 00 00	 mov	 eax, DWORD PTR ?current_flight_dynamics@@3PAUDYNAMICS_TYPE@@A ; current_flight_dynamics
  00625	f3 0f 10 05 00
	00 00 00	 movss	 xmm0, DWORD PTR __real@3f800000
  0062d	f3 0f 11 80 00
	22 00 00	 movss	 DWORD PTR [eax+8704], xmm0

; 265  : 	current_flight_dynamics->drag_z.modifier = 1.0;

  00635	a1 00 00 00 00	 mov	 eax, DWORD PTR ?current_flight_dynamics@@3PAUDYNAMICS_TYPE@@A ; current_flight_dynamics
  0063a	f3 0f 10 05 00
	00 00 00	 movss	 xmm0, DWORD PTR __real@3f800000
  00642	f3 0f 11 80 18
	22 00 00	 movss	 DWORD PTR [eax+8728], xmm0

; 266  : 	current_flight_dynamics->heading_inertia.modifier = 1.0;

  0064a	a1 00 00 00 00	 mov	 eax, DWORD PTR ?current_flight_dynamics@@3PAUDYNAMICS_TYPE@@A ; current_flight_dynamics
  0064f	f3 0f 10 05 00
	00 00 00	 movss	 xmm0, DWORD PTR __real@3f800000
  00657	f3 0f 11 80 30
	22 00 00	 movss	 DWORD PTR [eax+8752], xmm0

; 267  : 	current_flight_dynamics->pitch_inertia.modifier = 1.0;

  0065f	a1 00 00 00 00	 mov	 eax, DWORD PTR ?current_flight_dynamics@@3PAUDYNAMICS_TYPE@@A ; current_flight_dynamics
  00664	f3 0f 10 05 00
	00 00 00	 movss	 xmm0, DWORD PTR __real@3f800000
  0066c	f3 0f 11 80 48
	22 00 00	 movss	 DWORD PTR [eax+8776], xmm0

; 268  : 	current_flight_dynamics->roll_inertia.modifier = 1.0;

  00674	a1 00 00 00 00	 mov	 eax, DWORD PTR ?current_flight_dynamics@@3PAUDYNAMICS_TYPE@@A ; current_flight_dynamics
  00679	f3 0f 10 05 00
	00 00 00	 movss	 xmm0, DWORD PTR __real@3f800000
  00681	f3 0f 11 80 60
	22 00 00	 movss	 DWORD PTR [eax+8800], xmm0

; 269  : 	current_flight_dynamics->heading_moment.modifier = 1.0;

  00689	a1 00 00 00 00	 mov	 eax, DWORD PTR ?current_flight_dynamics@@3PAUDYNAMICS_TYPE@@A ; current_flight_dynamics
  0068e	f3 0f 10 05 00
	00 00 00	 movss	 xmm0, DWORD PTR __real@3f800000
  00696	f3 0f 11 80 78
	22 00 00	 movss	 DWORD PTR [eax+8824], xmm0

; 270  : 	current_flight_dynamics->pitch_moment.modifier = 1.0;

  0069e	a1 00 00 00 00	 mov	 eax, DWORD PTR ?current_flight_dynamics@@3PAUDYNAMICS_TYPE@@A ; current_flight_dynamics
  006a3	f3 0f 10 05 00
	00 00 00	 movss	 xmm0, DWORD PTR __real@3f800000
  006ab	f3 0f 11 80 90
	22 00 00	 movss	 DWORD PTR [eax+8848], xmm0

; 271  : 	current_flight_dynamics->roll_moment.modifier = 1.0;

  006b3	a1 00 00 00 00	 mov	 eax, DWORD PTR ?current_flight_dynamics@@3PAUDYNAMICS_TYPE@@A ; current_flight_dynamics
  006b8	f3 0f 10 05 00
	00 00 00	 movss	 xmm0, DWORD PTR __real@3f800000
  006c0	f3 0f 11 80 a8
	22 00 00	 movss	 DWORD PTR [eax+8872], xmm0

; 272  : 	current_flight_dynamics->heading_moment_reaction.modifier = 1.0;

  006c8	a1 00 00 00 00	 mov	 eax, DWORD PTR ?current_flight_dynamics@@3PAUDYNAMICS_TYPE@@A ; current_flight_dynamics
  006cd	f3 0f 10 05 00
	00 00 00	 movss	 xmm0, DWORD PTR __real@3f800000
  006d5	f3 0f 11 80 c0
	22 00 00	 movss	 DWORD PTR [eax+8896], xmm0

; 273  : 	current_flight_dynamics->pitch_moment_reaction.modifier = 1.0;

  006dd	a1 00 00 00 00	 mov	 eax, DWORD PTR ?current_flight_dynamics@@3PAUDYNAMICS_TYPE@@A ; current_flight_dynamics
  006e2	f3 0f 10 05 00
	00 00 00	 movss	 xmm0, DWORD PTR __real@3f800000
  006ea	f3 0f 11 80 d8
	22 00 00	 movss	 DWORD PTR [eax+8920], xmm0

; 274  : 	current_flight_dynamics->roll_moment_reaction.modifier = 1.0;

  006f2	a1 00 00 00 00	 mov	 eax, DWORD PTR ?current_flight_dynamics@@3PAUDYNAMICS_TYPE@@A ; current_flight_dynamics
  006f7	f3 0f 10 05 00
	00 00 00	 movss	 xmm0, DWORD PTR __real@3f800000
  006ff	f3 0f 11 80 f0
	22 00 00	 movss	 DWORD PTR [eax+8944], xmm0

; 275  : 	current_flight_dynamics->angular_heading_acceleration.modifier = 1.0;

  00707	a1 00 00 00 00	 mov	 eax, DWORD PTR ?current_flight_dynamics@@3PAUDYNAMICS_TYPE@@A ; current_flight_dynamics
  0070c	f3 0f 10 05 00
	00 00 00	 movss	 xmm0, DWORD PTR __real@3f800000
  00714	f3 0f 11 80 08
	23 00 00	 movss	 DWORD PTR [eax+8968], xmm0

; 276  : 	current_flight_dynamics->angular_pitch_acceleration.modifier = 1.0;

  0071c	a1 00 00 00 00	 mov	 eax, DWORD PTR ?current_flight_dynamics@@3PAUDYNAMICS_TYPE@@A ; current_flight_dynamics
  00721	f3 0f 10 05 00
	00 00 00	 movss	 xmm0, DWORD PTR __real@3f800000
  00729	f3 0f 11 80 20
	23 00 00	 movss	 DWORD PTR [eax+8992], xmm0

; 277  : 	current_flight_dynamics->angular_roll_acceleration.modifier = 1.0;

  00731	a1 00 00 00 00	 mov	 eax, DWORD PTR ?current_flight_dynamics@@3PAUDYNAMICS_TYPE@@A ; current_flight_dynamics
  00736	f3 0f 10 05 00
	00 00 00	 movss	 xmm0, DWORD PTR __real@3f800000
  0073e	f3 0f 11 80 38
	23 00 00	 movss	 DWORD PTR [eax+9016], xmm0

; 278  : 	current_flight_dynamics->angular_heading_velocity.modifier = 1.0;

  00746	a1 00 00 00 00	 mov	 eax, DWORD PTR ?current_flight_dynamics@@3PAUDYNAMICS_TYPE@@A ; current_flight_dynamics
  0074b	f3 0f 10 05 00
	00 00 00	 movss	 xmm0, DWORD PTR __real@3f800000
  00753	f3 0f 11 80 50
	23 00 00	 movss	 DWORD PTR [eax+9040], xmm0

; 279  : 	current_flight_dynamics->angular_pitch_velocity.modifier = 1.0;

  0075b	a1 00 00 00 00	 mov	 eax, DWORD PTR ?current_flight_dynamics@@3PAUDYNAMICS_TYPE@@A ; current_flight_dynamics
  00760	f3 0f 10 05 00
	00 00 00	 movss	 xmm0, DWORD PTR __real@3f800000
  00768	f3 0f 11 80 68
	23 00 00	 movss	 DWORD PTR [eax+9064], xmm0

; 280  : 	current_flight_dynamics->angular_roll_velocity.modifier = 1.0;

  00770	a1 00 00 00 00	 mov	 eax, DWORD PTR ?current_flight_dynamics@@3PAUDYNAMICS_TYPE@@A ; current_flight_dynamics
  00775	f3 0f 10 05 00
	00 00 00	 movss	 xmm0, DWORD PTR __real@3f800000
  0077d	f3 0f 11 80 80
	23 00 00	 movss	 DWORD PTR [eax+9088], xmm0

; 281  : 	current_flight_dynamics->landing_quality.modifier = 1.0;

  00785	a1 00 00 00 00	 mov	 eax, DWORD PTR ?current_flight_dynamics@@3PAUDYNAMICS_TYPE@@A ; current_flight_dynamics
  0078a	f3 0f 10 05 00
	00 00 00	 movss	 xmm0, DWORD PTR __real@3f800000
  00792	f3 0f 11 80 98
	23 00 00	 movss	 DWORD PTR [eax+9112], xmm0

; 282  : 	current_flight_dynamics->mass.modifier = 1.0;

  0079a	a1 00 00 00 00	 mov	 eax, DWORD PTR ?current_flight_dynamics@@3PAUDYNAMICS_TYPE@@A ; current_flight_dynamics
  0079f	f3 0f 10 05 00
	00 00 00	 movss	 xmm0, DWORD PTR __real@3f800000
  007a7	f3 0f 11 80 b0
	23 00 00	 movss	 DWORD PTR [eax+9136], xmm0

; 283  : 	current_flight_dynamics->weapon_mass.modifier = 1.0;

  007af	a1 00 00 00 00	 mov	 eax, DWORD PTR ?current_flight_dynamics@@3PAUDYNAMICS_TYPE@@A ; current_flight_dynamics
  007b4	f3 0f 10 05 00
	00 00 00	 movss	 xmm0, DWORD PTR __real@3f800000
  007bc	f3 0f 11 80 c8
	23 00 00	 movss	 DWORD PTR [eax+9160], xmm0

; 284  : 	current_flight_dynamics->ground_effect.modifier = 1.5;

  007c4	a1 00 00 00 00	 mov	 eax, DWORD PTR ?current_flight_dynamics@@3PAUDYNAMICS_TYPE@@A ; current_flight_dynamics
  007c9	f3 0f 10 05 00
	00 00 00	 movss	 xmm0, DWORD PTR __real@3fc00000
  007d1	f3 0f 11 80 e0
	23 00 00	 movss	 DWORD PTR [eax+9184], xmm0

; 285  : 	current_flight_dynamics->indicated_airspeed.modifier = 1.0;

  007d9	a1 00 00 00 00	 mov	 eax, DWORD PTR ?current_flight_dynamics@@3PAUDYNAMICS_TYPE@@A ; current_flight_dynamics
  007de	f3 0f 10 05 00
	00 00 00	 movss	 xmm0, DWORD PTR __real@3f800000
  007e6	f3 0f 11 80 f8
	23 00 00	 movss	 DWORD PTR [eax+9208], xmm0

; 286  : 	current_flight_dynamics->indicated_slip.modifier = 1.0;

  007ee	a1 00 00 00 00	 mov	 eax, DWORD PTR ?current_flight_dynamics@@3PAUDYNAMICS_TYPE@@A ; current_flight_dynamics
  007f3	f3 0f 10 05 00
	00 00 00	 movss	 xmm0, DWORD PTR __real@3f800000
  007fb	f3 0f 11 80 10
	24 00 00	 movss	 DWORD PTR [eax+9232], xmm0

; 287  : 	current_flight_dynamics->barometric_altitude.modifier = 1.0;

  00803	a1 00 00 00 00	 mov	 eax, DWORD PTR ?current_flight_dynamics@@3PAUDYNAMICS_TYPE@@A ; current_flight_dynamics
  00808	f3 0f 10 05 00
	00 00 00	 movss	 xmm0, DWORD PTR __real@3f800000
  00810	f3 0f 11 80 28
	24 00 00	 movss	 DWORD PTR [eax+9256], xmm0

; 288  : 	current_flight_dynamics->radar_altitude.modifier = 1.0;

  00818	a1 00 00 00 00	 mov	 eax, DWORD PTR ?current_flight_dynamics@@3PAUDYNAMICS_TYPE@@A ; current_flight_dynamics
  0081d	f3 0f 10 05 00
	00 00 00	 movss	 xmm0, DWORD PTR __real@3f800000
  00825	f3 0f 11 80 40
	24 00 00	 movss	 DWORD PTR [eax+9280], xmm0

; 289  : 	current_flight_dynamics->g_force.modifier = 1.0;

  0082d	a1 00 00 00 00	 mov	 eax, DWORD PTR ?current_flight_dynamics@@3PAUDYNAMICS_TYPE@@A ; current_flight_dynamics
  00832	f3 0f 10 05 00
	00 00 00	 movss	 xmm0, DWORD PTR __real@3f800000
  0083a	f3 0f 11 80 58
	24 00 00	 movss	 DWORD PTR [eax+9304], xmm0

; 290  : 	current_flight_dynamics->combined_engine_rpm.modifier = 1.0;

  00842	a1 00 00 00 00	 mov	 eax, DWORD PTR ?current_flight_dynamics@@3PAUDYNAMICS_TYPE@@A ; current_flight_dynamics
  00847	f3 0f 10 05 00
	00 00 00	 movss	 xmm0, DWORD PTR __real@3f800000
  0084f	f3 0f 11 80 70
	24 00 00	 movss	 DWORD PTR [eax+9328], xmm0

; 291  : 	current_flight_dynamics->combined_engine_torque.modifier = 1.0;

  00857	a1 00 00 00 00	 mov	 eax, DWORD PTR ?current_flight_dynamics@@3PAUDYNAMICS_TYPE@@A ; current_flight_dynamics
  0085c	f3 0f 10 05 00
	00 00 00	 movss	 xmm0, DWORD PTR __real@3f800000
  00864	f3 0f 11 80 88
	24 00 00	 movss	 DWORD PTR [eax+9352], xmm0

; 292  : 	current_flight_dynamics->fuel_weight.modifier = 1.0;

  0086c	a1 00 00 00 00	 mov	 eax, DWORD PTR ?current_flight_dynamics@@3PAUDYNAMICS_TYPE@@A ; current_flight_dynamics
  00871	f3 0f 10 05 00
	00 00 00	 movss	 xmm0, DWORD PTR __real@3f800000
  00879	f3 0f 11 80 a0
	24 00 00	 movss	 DWORD PTR [eax+9376], xmm0

; 293  : 
; 294  : 	//
; 295  : 
; 296  : 	get_local_entity_vec3d (get_gunship_entity (), VEC3D_TYPE_POSITION, &position);

  00881	83 3d 00 00 00
	00 00		 cmp	 DWORD PTR ?gunship_entity@@3PAUENTITY@@A, 0 ; gunship_entity
  00888	74 0c		 je	 SHORT $LN10@set_dynami
  0088a	a1 00 00 00 00	 mov	 eax, DWORD PTR ?gunship_entity@@3PAUENTITY@@A ; gunship_entity
  0088f	8b 08		 mov	 ecx, DWORD PTR [eax]
  00891	89 4d 98	 mov	 DWORD PTR tv339[ebp], ecx
  00894	eb 24		 jmp	 SHORT $LN11@set_dynami
$LN10@set_dynami:
  00896	8b 15 00 00 00
	00		 mov	 edx, DWORD PTR ?__LINE__Var@?0??set_dynamics_defaults@@YGXPAUENTITY@@@Z@4JA
  0089c	81 c2 94 00 00
	00		 add	 edx, 148		; 00000094H
  008a2	52		 push	 edx
  008a3	68 00 00 00 00	 push	 OFFSET ??_C@_0EM@BHCFJHIE@c?3?2users?2nhv90?2projects?2eech?2ap@
  008a8	a1 00 00 00 00	 mov	 eax, DWORD PTR ?null_entity_pointer_message@@3PBDB ; null_entity_pointer_message
  008ad	50		 push	 eax
  008ae	e8 00 00 00 00	 call	 ?process_assert@@YGXPBD0H@Z ; process_assert
  008b3	c7 45 98 00 00
	00 00		 mov	 DWORD PTR tv339[ebp], 0
$LN11@set_dynami:
  008ba	b9 01 00 00 00	 mov	 ecx, 1
  008bf	85 c9		 test	 ecx, ecx
  008c1	74 09		 je	 SHORT $LN12@set_dynami
  008c3	c7 45 94 08 00
	00 00		 mov	 DWORD PTR tv347[ebp], 8
  008ca	eb 24		 jmp	 SHORT $LN13@set_dynami
$LN12@set_dynami:
  008cc	8b 15 00 00 00
	00		 mov	 edx, DWORD PTR ?__LINE__Var@?0??set_dynamics_defaults@@YGXPAUENTITY@@@Z@4JA
  008d2	81 c2 94 00 00
	00		 add	 edx, 148		; 00000094H
  008d8	52		 push	 edx
  008d9	68 00 00 00 00	 push	 OFFSET ??_C@_0EM@BHCFJHIE@c?3?2users?2nhv90?2projects?2eech?2ap@
  008de	a1 00 00 00 00	 mov	 eax, DWORD PTR ?overload_invalid_vec3d_type_message@@3PBDB ; overload_invalid_vec3d_type_message
  008e3	50		 push	 eax
  008e4	e8 00 00 00 00	 call	 ?process_assert@@YGXPBD0H@Z ; process_assert
  008e9	c7 45 94 00 00
	00 00		 mov	 DWORD PTR tv347[ebp], 0
$LN13@set_dynami:
  008f0	8d 4d f4	 lea	 ecx, DWORD PTR _position$[ebp]
  008f3	51		 push	 ecx
  008f4	6a 08		 push	 8
  008f6	8b 15 00 00 00
	00		 mov	 edx, DWORD PTR ?gunship_entity@@3PAUENTITY@@A ; gunship_entity
  008fc	52		 push	 edx
  008fd	6b 45 98 60	 imul	 eax, DWORD PTR tv339[ebp], 96
  00901	8b 4d 94	 mov	 ecx, DWORD PTR tv347[ebp]
  00904	8b 94 88 00 00
	00 00		 mov	 edx, DWORD PTR ?fn_get_local_entity_vec3d@@3PAY0BI@P6GXPAUENTITY@@W4VEC3D_TYPES@@PAUVEC3D@@@ZA[eax+ecx*4]
  0090b	ff d2		 call	 edx

; 297  : /*
; 298  : 	{
; 299  : 
; 300  : 		entity
; 301  : 			*keysite;
; 302  : 
; 303  : 		keysite = get_local_entity_parent (get_local_entity_parent (get_gunship_entity (), LIST_TYPE_MEMBER), LIST_TYPE_KEYSITE_GROUP);
; 304  : 
; 305  : 		if (keysite)
; 306  : 		{
; 307  : 
; 308  : 			if (get_local_entity_int_value (keysite, INT_TYPE_ENTITY_SUB_TYPE) == ENTITY_SUB_TYPE_KEYSITE_ANCHORAGE)
; 309  : 			{
; 310  : 
; 311  : 				debug_log ("HA_DYN: raising hind because landed on carrier");
; 312  : 
; 313  : 				position.y += 0.5;
; 314  : 
; 315  : 				set_local_entity_vec3d (get_gunship_entity (), VEC3D_TYPE_POSITION, &position);
; 316  : 			}
; 317  : 		}
; 318  : 	}
; 319  : 
; 320  : */
; 321  : 	current_flight_dynamics->dynamics_damage = DYNAMICS_DAMAGE_NONE;

  0090d	a1 00 00 00 00	 mov	 eax, DWORD PTR ?current_flight_dynamics@@3PAUDYNAMICS_TYPE@@A ; current_flight_dynamics
  00912	c7 80 24 25 00
	00 01 00 00 00	 mov	 DWORD PTR [eax+9508], 1

; 322  : 	current_flight_dynamics->repairing_damage = DYNAMICS_DAMAGE_NONE;

  0091c	a1 00 00 00 00	 mov	 eax, DWORD PTR ?current_flight_dynamics@@3PAUDYNAMICS_TYPE@@A ; current_flight_dynamics
  00921	c7 80 20 25 00
	00 01 00 00 00	 mov	 DWORD PTR [eax+9504], 1

; 323  : 
; 324  : 	// input values
; 325  : 
; 326  : 	current_flight_dynamics->input_data.collective.value = 0.0;

  0092b	a1 00 00 00 00	 mov	 eax, DWORD PTR ?current_flight_dynamics@@3PAUDYNAMICS_TYPE@@A ; current_flight_dynamics
  00930	0f 57 c0	 xorps	 xmm0, xmm0
  00933	f3 0f 11 80 a8
	1b 00 00	 movss	 DWORD PTR [eax+7080], xmm0

; 327  : 	current_flight_dynamics->input_data.collective.min = 0.0;

  0093b	a1 00 00 00 00	 mov	 eax, DWORD PTR ?current_flight_dynamics@@3PAUDYNAMICS_TYPE@@A ; current_flight_dynamics
  00940	0f 57 c0	 xorps	 xmm0, xmm0
  00943	f3 0f 11 80 b0
	1b 00 00	 movss	 DWORD PTR [eax+7088], xmm0

; 328  : 	current_flight_dynamics->input_data.collective.max = 120;

  0094b	a1 00 00 00 00	 mov	 eax, DWORD PTR ?current_flight_dynamics@@3PAUDYNAMICS_TYPE@@A ; current_flight_dynamics
  00950	f3 0f 10 05 00
	00 00 00	 movss	 xmm0, DWORD PTR __real@42f00000
  00958	f3 0f 11 80 b4
	1b 00 00	 movss	 DWORD PTR [eax+7092], xmm0

; 329  : 
; 330  : 	current_flight_dynamics->input_data.cyclic_x_trim.value = 0.0;

  00960	a1 00 00 00 00	 mov	 eax, DWORD PTR ?current_flight_dynamics@@3PAUDYNAMICS_TYPE@@A ; current_flight_dynamics
  00965	0f 57 c0	 xorps	 xmm0, xmm0
  00968	f3 0f 11 80 28
	01 00 00	 movss	 DWORD PTR [eax+296], xmm0

; 331  : 	current_flight_dynamics->input_data.cyclic_y_trim.value = 0.0;

  00970	a1 00 00 00 00	 mov	 eax, DWORD PTR ?current_flight_dynamics@@3PAUDYNAMICS_TYPE@@A ; current_flight_dynamics
  00975	0f 57 c0	 xorps	 xmm0, xmm0
  00978	f3 0f 11 80 40
	01 00 00	 movss	 DWORD PTR [eax+320], xmm0

; 332  : //	current_flight_dynamics->input_data.cyclic_y_trim.value = 6.0;
; 333  : 
; 334  : 	current_flight_dynamics->input_data.cyclic_x.min = -100.0;

  00980	a1 00 00 00 00	 mov	 eax, DWORD PTR ?current_flight_dynamics@@3PAUDYNAMICS_TYPE@@A ; current_flight_dynamics
  00985	f3 0f 10 05 00
	00 00 00	 movss	 xmm0, DWORD PTR __real@c2c80000
  0098d	f3 0f 11 80 00
	01 00 00	 movss	 DWORD PTR [eax+256], xmm0

; 335  : 	current_flight_dynamics->input_data.cyclic_x.max = 100.0;

  00995	a1 00 00 00 00	 mov	 eax, DWORD PTR ?current_flight_dynamics@@3PAUDYNAMICS_TYPE@@A ; current_flight_dynamics
  0099a	f3 0f 10 05 00
	00 00 00	 movss	 xmm0, DWORD PTR __real@42c80000
  009a2	f3 0f 11 80 04
	01 00 00	 movss	 DWORD PTR [eax+260], xmm0

; 336  : 
; 337  : 	current_flight_dynamics->input_data.cyclic_y.min = -100.0;

  009aa	a1 00 00 00 00	 mov	 eax, DWORD PTR ?current_flight_dynamics@@3PAUDYNAMICS_TYPE@@A ; current_flight_dynamics
  009af	f3 0f 10 05 00
	00 00 00	 movss	 xmm0, DWORD PTR __real@c2c80000
  009b7	f3 0f 11 80 18
	01 00 00	 movss	 DWORD PTR [eax+280], xmm0

; 338  : 	current_flight_dynamics->input_data.cyclic_y.max = 100.0;

  009bf	a1 00 00 00 00	 mov	 eax, DWORD PTR ?current_flight_dynamics@@3PAUDYNAMICS_TYPE@@A ; current_flight_dynamics
  009c4	f3 0f 10 05 00
	00 00 00	 movss	 xmm0, DWORD PTR __real@42c80000
  009cc	f3 0f 11 80 1c
	01 00 00	 movss	 DWORD PTR [eax+284], xmm0

; 339  : 
; 340  : 	current_flight_dynamics->input_data.cyclic_horizontal_pressure.min = -100.0;

  009d4	a1 00 00 00 00	 mov	 eax, DWORD PTR ?current_flight_dynamics@@3PAUDYNAMICS_TYPE@@A ; current_flight_dynamics
  009d9	f3 0f 10 05 00
	00 00 00	 movss	 xmm0, DWORD PTR __real@c2c80000
  009e1	f3 0f 11 80 78
	01 00 00	 movss	 DWORD PTR [eax+376], xmm0

; 341  : 	current_flight_dynamics->input_data.cyclic_horizontal_pressure.max = 100.0;

  009e9	a1 00 00 00 00	 mov	 eax, DWORD PTR ?current_flight_dynamics@@3PAUDYNAMICS_TYPE@@A ; current_flight_dynamics
  009ee	f3 0f 10 05 00
	00 00 00	 movss	 xmm0, DWORD PTR __real@42c80000
  009f6	f3 0f 11 80 7c
	01 00 00	 movss	 DWORD PTR [eax+380], xmm0

; 342  : 
; 343  : 	current_flight_dynamics->input_data.cyclic_vertical_pressure.min = -100.0;

  009fe	a1 00 00 00 00	 mov	 eax, DWORD PTR ?current_flight_dynamics@@3PAUDYNAMICS_TYPE@@A ; current_flight_dynamics
  00a03	f3 0f 10 05 00
	00 00 00	 movss	 xmm0, DWORD PTR __real@c2c80000
  00a0b	f3 0f 11 80 60
	01 00 00	 movss	 DWORD PTR [eax+352], xmm0

; 344  : 	current_flight_dynamics->input_data.cyclic_vertical_pressure.max = 100.0;

  00a13	a1 00 00 00 00	 mov	 eax, DWORD PTR ?current_flight_dynamics@@3PAUDYNAMICS_TYPE@@A ; current_flight_dynamics
  00a18	f3 0f 10 05 00
	00 00 00	 movss	 xmm0, DWORD PTR __real@42c80000
  00a20	f3 0f 11 80 64
	01 00 00	 movss	 DWORD PTR [eax+356], xmm0

; 345  : 
; 346  : 	current_flight_dynamics->input_data.collective_pressure.min = -5.0;

  00a28	a1 00 00 00 00	 mov	 eax, DWORD PTR ?current_flight_dynamics@@3PAUDYNAMICS_TYPE@@A ; current_flight_dynamics
  00a2d	f3 0f 10 05 00
	00 00 00	 movss	 xmm0, DWORD PTR __real@c0a00000
  00a35	f3 0f 11 80 c8
	1b 00 00	 movss	 DWORD PTR [eax+7112], xmm0

; 347  : 	current_flight_dynamics->input_data.collective_pressure.max = 5.0;

  00a3d	a1 00 00 00 00	 mov	 eax, DWORD PTR ?current_flight_dynamics@@3PAUDYNAMICS_TYPE@@A ; current_flight_dynamics
  00a42	f3 0f 10 05 00
	00 00 00	 movss	 xmm0, DWORD PTR __real@40a00000
  00a4a	f3 0f 11 80 cc
	1b 00 00	 movss	 DWORD PTR [eax+7116], xmm0

; 348  : 
; 349  : 	current_flight_dynamics->input_data.pedal.min = -100.0;

  00a52	a1 00 00 00 00	 mov	 eax, DWORD PTR ?current_flight_dynamics@@3PAUDYNAMICS_TYPE@@A ; current_flight_dynamics
  00a57	f3 0f 10 05 00
	00 00 00	 movss	 xmm0, DWORD PTR __real@c2c80000
  00a5f	f3 0f 11 80 e4
	1b 00 00	 movss	 DWORD PTR [eax+7140], xmm0

; 350  : 	current_flight_dynamics->input_data.pedal.max = 100.0;

  00a67	a1 00 00 00 00	 mov	 eax, DWORD PTR ?current_flight_dynamics@@3PAUDYNAMICS_TYPE@@A ; current_flight_dynamics
  00a6c	f3 0f 10 05 00
	00 00 00	 movss	 xmm0, DWORD PTR __real@42c80000
  00a74	f3 0f 11 80 e8
	1b 00 00	 movss	 DWORD PTR [eax+7144], xmm0

; 351  : 
; 352  : 	current_flight_dynamics->input_data.pedal_pressure.min = -10.0;

  00a7c	a1 00 00 00 00	 mov	 eax, DWORD PTR ?current_flight_dynamics@@3PAUDYNAMICS_TYPE@@A ; current_flight_dynamics
  00a81	f3 0f 10 05 00
	00 00 00	 movss	 xmm0, DWORD PTR __real@c1200000
  00a89	f3 0f 11 80 14
	1c 00 00	 movss	 DWORD PTR [eax+7188], xmm0

; 353  : 	current_flight_dynamics->input_data.pedal_pressure.max = 10.0;

  00a91	a1 00 00 00 00	 mov	 eax, DWORD PTR ?current_flight_dynamics@@3PAUDYNAMICS_TYPE@@A ; current_flight_dynamics
  00a96	f3 0f 10 05 00
	00 00 00	 movss	 xmm0, DWORD PTR __real@41200000
  00a9e	f3 0f 11 80 18
	1c 00 00	 movss	 DWORD PTR [eax+7192], xmm0

; 354  : 
; 355  : 	// general
; 356  : 
; 357  : 	current_flight_dynamics->undercarriage_state.damaged = FALSE;

  00aa6	33 c0		 xor	 eax, eax
  00aa8	8b 0d 00 00 00
	00		 mov	 ecx, DWORD PTR ?current_flight_dynamics@@3PAUDYNAMICS_TYPE@@A ; current_flight_dynamics
  00aae	66 89 81 74 1c
	00 00		 mov	 WORD PTR [ecx+7284], ax

; 358  : 	current_flight_dynamics->undercarriage_state.value = 1.0;

  00ab5	a1 00 00 00 00	 mov	 eax, DWORD PTR ?current_flight_dynamics@@3PAUDYNAMICS_TYPE@@A ; current_flight_dynamics
  00aba	f3 0f 10 05 00
	00 00 00	 movss	 xmm0, DWORD PTR __real@3f800000
  00ac2	f3 0f 11 80 64
	1c 00 00	 movss	 DWORD PTR [eax+7268], xmm0

; 359  : 	current_flight_dynamics->undercarriage_state.min = 1.0;

  00aca	a1 00 00 00 00	 mov	 eax, DWORD PTR ?current_flight_dynamics@@3PAUDYNAMICS_TYPE@@A ; current_flight_dynamics
  00acf	f3 0f 10 05 00
	00 00 00	 movss	 xmm0, DWORD PTR __real@3f800000
  00ad7	f3 0f 11 80 6c
	1c 00 00	 movss	 DWORD PTR [eax+7276], xmm0

; 360  : 	current_flight_dynamics->undercarriage_state.max = 1.0;

  00adf	a1 00 00 00 00	 mov	 eax, DWORD PTR ?current_flight_dynamics@@3PAUDYNAMICS_TYPE@@A ; current_flight_dynamics
  00ae4	f3 0f 10 05 00
	00 00 00	 movss	 xmm0, DWORD PTR __real@3f800000
  00aec	f3 0f 11 80 70
	1c 00 00	 movss	 DWORD PTR [eax+7280], xmm0

; 361  : 
; 362  : 	current_flight_dynamics->repairing = TRUE;

  00af4	a1 00 00 00 00	 mov	 eax, DWORD PTR ?current_flight_dynamics@@3PAUDYNAMICS_TYPE@@A ; current_flight_dynamics
  00af9	8b 88 28 25 00
	00		 mov	 ecx, DWORD PTR [eax+9512]
  00aff	83 c9 08	 or	 ecx, 8
  00b02	8b 15 00 00 00
	00		 mov	 edx, DWORD PTR ?current_flight_dynamics@@3PAUDYNAMICS_TYPE@@A ; current_flight_dynamics
  00b08	89 8a 28 25 00
	00		 mov	 DWORD PTR [edx+9512], ecx

; 363  : 	current_flight_dynamics->refuelling = TRUE;

  00b0e	a1 00 00 00 00	 mov	 eax, DWORD PTR ?current_flight_dynamics@@3PAUDYNAMICS_TYPE@@A ; current_flight_dynamics
  00b13	8b 88 28 25 00
	00		 mov	 ecx, DWORD PTR [eax+9512]
  00b19	83 c9 04	 or	 ecx, 4
  00b1c	8b 15 00 00 00
	00		 mov	 edx, DWORD PTR ?current_flight_dynamics@@3PAUDYNAMICS_TYPE@@A ; current_flight_dynamics
  00b22	89 8a 28 25 00
	00		 mov	 DWORD PTR [edx+9512], ecx

; 364  : 
; 365  : 	current_flight_dynamics->position.x = position.x;

  00b28	f3 0f 5a 45 f4	 cvtss2sd xmm0, DWORD PTR _position$[ebp]
  00b2d	a1 00 00 00 00	 mov	 eax, DWORD PTR ?current_flight_dynamics@@3PAUDYNAMICS_TYPE@@A ; current_flight_dynamics
  00b32	f2 0f 11 80 ac
	00 00 00	 movsd	 QWORD PTR [eax+172], xmm0

; 366  : 	current_flight_dynamics->position.y = position.y;

  00b3a	f3 0f 5a 45 f8	 cvtss2sd xmm0, DWORD PTR _position$[ebp+4]
  00b3f	a1 00 00 00 00	 mov	 eax, DWORD PTR ?current_flight_dynamics@@3PAUDYNAMICS_TYPE@@A ; current_flight_dynamics
  00b44	f2 0f 11 80 b4
	00 00 00	 movsd	 QWORD PTR [eax+180], xmm0

; 367  : 	current_flight_dynamics->position.z = position.z;

  00b4c	f3 0f 5a 45 fc	 cvtss2sd xmm0, DWORD PTR _position$[ebp+8]
  00b51	a1 00 00 00 00	 mov	 eax, DWORD PTR ?current_flight_dynamics@@3PAUDYNAMICS_TYPE@@A ; current_flight_dynamics
  00b56	f2 0f 11 80 bc
	00 00 00	 movsd	 QWORD PTR [eax+188], xmm0

; 368  : 
; 369  : 	// attitutde
; 370  : 
; 371  : 	get_identity_matrix3x3 (current_flight_dynamics->attitude);

  00b5e	a1 00 00 00 00	 mov	 eax, DWORD PTR ?current_flight_dynamics@@3PAUDYNAMICS_TYPE@@A ; current_flight_dynamics
  00b63	05 d0 00 00 00	 add	 eax, 208		; 000000d0H
  00b68	50		 push	 eax
  00b69	e8 00 00 00 00	 call	 ?get_identity_matrix3x3@@YGXQAY02M@Z ; get_identity_matrix3x3

; 372  : 
; 373  : 	current_flight_dynamics->roll.min = rad (-360.0);

  00b6e	a1 00 00 00 00	 mov	 eax, DWORD PTR ?current_flight_dynamics@@3PAUDYNAMICS_TYPE@@A ; current_flight_dynamics
  00b73	f3 0f 10 05 00
	00 00 00	 movss	 xmm0, DWORD PTR __real@c0c90fdb
  00b7b	f3 0f 11 80 7c
	21 00 00	 movss	 DWORD PTR [eax+8572], xmm0

; 374  : 	current_flight_dynamics->roll.max = rad (360.0);

  00b83	a1 00 00 00 00	 mov	 eax, DWORD PTR ?current_flight_dynamics@@3PAUDYNAMICS_TYPE@@A ; current_flight_dynamics
  00b88	f3 0f 10 05 00
	00 00 00	 movss	 xmm0, DWORD PTR __real@40c90fdb
  00b90	f3 0f 11 80 80
	21 00 00	 movss	 DWORD PTR [eax+8576], xmm0

; 375  : 
; 376  : 	current_flight_dynamics->pitch.min = rad (-360.0);

  00b98	a1 00 00 00 00	 mov	 eax, DWORD PTR ?current_flight_dynamics@@3PAUDYNAMICS_TYPE@@A ; current_flight_dynamics
  00b9d	f3 0f 10 05 00
	00 00 00	 movss	 xmm0, DWORD PTR __real@c0c90fdb
  00ba5	f3 0f 11 80 64
	21 00 00	 movss	 DWORD PTR [eax+8548], xmm0

; 377  : 	current_flight_dynamics->pitch.max = rad (360.0);

  00bad	a1 00 00 00 00	 mov	 eax, DWORD PTR ?current_flight_dynamics@@3PAUDYNAMICS_TYPE@@A ; current_flight_dynamics
  00bb2	f3 0f 10 05 00
	00 00 00	 movss	 xmm0, DWORD PTR __real@40c90fdb
  00bba	f3 0f 11 80 68
	21 00 00	 movss	 DWORD PTR [eax+8552], xmm0

; 378  : 
; 379  : 	current_flight_dynamics->air_density.value = 1.0;

  00bc2	a1 00 00 00 00	 mov	 eax, DWORD PTR ?current_flight_dynamics@@3PAUDYNAMICS_TYPE@@A ; current_flight_dynamics
  00bc7	f3 0f 10 05 00
	00 00 00	 movss	 xmm0, DWORD PTR __real@3f800000
  00bcf	f3 0f 11 80 44
	21 00 00	 movss	 DWORD PTR [eax+8516], xmm0

; 380  : 	current_flight_dynamics->air_density.max = 1.0;

  00bd7	a1 00 00 00 00	 mov	 eax, DWORD PTR ?current_flight_dynamics@@3PAUDYNAMICS_TYPE@@A ; current_flight_dynamics
  00bdc	f3 0f 10 05 00
	00 00 00	 movss	 xmm0, DWORD PTR __real@3f800000
  00be4	f3 0f 11 80 50
	21 00 00	 movss	 DWORD PTR [eax+8528], xmm0

; 381  : 	current_flight_dynamics->air_density.min = 0.0;

  00bec	a1 00 00 00 00	 mov	 eax, DWORD PTR ?current_flight_dynamics@@3PAUDYNAMICS_TYPE@@A ; current_flight_dynamics
  00bf1	0f 57 c0	 xorps	 xmm0, xmm0
  00bf4	f3 0f 11 80 4c
	21 00 00	 movss	 DWORD PTR [eax+8524], xmm0

; 382  : 
; 383  : 	current_flight_dynamics->altitude.min = 0.0;

  00bfc	a1 00 00 00 00	 mov	 eax, DWORD PTR ?current_flight_dynamics@@3PAUDYNAMICS_TYPE@@A ; current_flight_dynamics
  00c01	0f 57 c0	 xorps	 xmm0, xmm0
  00c04	f3 0f 11 80 dc
	21 00 00	 movss	 DWORD PTR [eax+8668], xmm0

; 384  : 	current_flight_dynamics->altitude.max = 20000.0;

  00c0c	a1 00 00 00 00	 mov	 eax, DWORD PTR ?current_flight_dynamics@@3PAUDYNAMICS_TYPE@@A ; current_flight_dynamics
  00c11	f3 0f 10 05 00
	00 00 00	 movss	 xmm0, DWORD PTR __real@469c4000
  00c19	f3 0f 11 80 e0
	21 00 00	 movss	 DWORD PTR [eax+8672], xmm0

; 385  : 
; 386  : 	// engine characteristics
; 387  : 	current_flight_dynamics->apu_rpm.value = 0.0;

  00c21	a1 00 00 00 00	 mov	 eax, DWORD PTR ?current_flight_dynamics@@3PAUDYNAMICS_TYPE@@A ; current_flight_dynamics
  00c26	0f 57 c0	 xorps	 xmm0, xmm0
  00c29	f3 0f 11 80 3c
	1d 00 00	 movss	 DWORD PTR [eax+7484], xmm0

; 388  : 	current_flight_dynamics->apu_rpm.min = 0.0;

  00c31	a1 00 00 00 00	 mov	 eax, DWORD PTR ?current_flight_dynamics@@3PAUDYNAMICS_TYPE@@A ; current_flight_dynamics
  00c36	0f 57 c0	 xorps	 xmm0, xmm0
  00c39	f3 0f 11 80 44
	1d 00 00	 movss	 DWORD PTR [eax+7492], xmm0

; 389  : 	current_flight_dynamics->apu_rpm.max = 0.0;

  00c41	a1 00 00 00 00	 mov	 eax, DWORD PTR ?current_flight_dynamics@@3PAUDYNAMICS_TYPE@@A ; current_flight_dynamics
  00c46	0f 57 c0	 xorps	 xmm0, xmm0
  00c49	f3 0f 11 80 48
	1d 00 00	 movss	 DWORD PTR [eax+7496], xmm0

; 390  : 	current_flight_dynamics->apu_rpm.damaged = FALSE;

  00c51	33 c0		 xor	 eax, eax
  00c53	8b 0d 00 00 00
	00		 mov	 ecx, DWORD PTR ?current_flight_dynamics@@3PAUDYNAMICS_TYPE@@A ; current_flight_dynamics
  00c59	66 89 81 4c 1d
	00 00		 mov	 WORD PTR [ecx+7500], ax

; 391  : 
; 392  : 	current_flight_dynamics->left_engine_rpm.value = 0.0;

  00c60	a1 00 00 00 00	 mov	 eax, DWORD PTR ?current_flight_dynamics@@3PAUDYNAMICS_TYPE@@A ; current_flight_dynamics
  00c65	0f 57 c0	 xorps	 xmm0, xmm0
  00c68	f3 0f 11 80 7c
	1c 00 00	 movss	 DWORD PTR [eax+7292], xmm0

; 393  : 	current_flight_dynamics->left_engine_rpm.max = 100.0;  // engine is always trying for 100% N2 RPM

  00c70	a1 00 00 00 00	 mov	 eax, DWORD PTR ?current_flight_dynamics@@3PAUDYNAMICS_TYPE@@A ; current_flight_dynamics
  00c75	f3 0f 10 05 00
	00 00 00	 movss	 xmm0, DWORD PTR __real@42c80000
  00c7d	f3 0f 11 80 88
	1c 00 00	 movss	 DWORD PTR [eax+7304], xmm0

; 394  : 	current_flight_dynamics->left_engine_n1_rpm.value = 0.0;

  00c85	a1 00 00 00 00	 mov	 eax, DWORD PTR ?current_flight_dynamics@@3PAUDYNAMICS_TYPE@@A ; current_flight_dynamics
  00c8a	0f 57 c0	 xorps	 xmm0, xmm0
  00c8d	f3 0f 11 80 94
	1c 00 00	 movss	 DWORD PTR [eax+7316], xmm0

; 395  : 	current_flight_dynamics->left_engine_n1_rpm.max = 100.0;

  00c95	a1 00 00 00 00	 mov	 eax, DWORD PTR ?current_flight_dynamics@@3PAUDYNAMICS_TYPE@@A ; current_flight_dynamics
  00c9a	f3 0f 10 05 00
	00 00 00	 movss	 xmm0, DWORD PTR __real@42c80000
  00ca2	f3 0f 11 80 a0
	1c 00 00	 movss	 DWORD PTR [eax+7328], xmm0

; 396  : 	current_flight_dynamics->left_engine_torque.value = 0.0;

  00caa	a1 00 00 00 00	 mov	 eax, DWORD PTR ?current_flight_dynamics@@3PAUDYNAMICS_TYPE@@A ; current_flight_dynamics
  00caf	0f 57 c0	 xorps	 xmm0, xmm0
  00cb2	f3 0f 11 80 ac
	1c 00 00	 movss	 DWORD PTR [eax+7340], xmm0

; 397  : 	current_flight_dynamics->left_engine_torque.max = 120.0;

  00cba	a1 00 00 00 00	 mov	 eax, DWORD PTR ?current_flight_dynamics@@3PAUDYNAMICS_TYPE@@A ; current_flight_dynamics
  00cbf	f3 0f 10 05 00
	00 00 00	 movss	 xmm0, DWORD PTR __real@42f00000
  00cc7	f3 0f 11 80 b8
	1c 00 00	 movss	 DWORD PTR [eax+7352], xmm0

; 398  : 
; 399  : 	current_flight_dynamics->left_engine_temp.value = 800.0;

  00ccf	a1 00 00 00 00	 mov	 eax, DWORD PTR ?current_flight_dynamics@@3PAUDYNAMICS_TYPE@@A ; current_flight_dynamics
  00cd4	f3 0f 10 05 00
	00 00 00	 movss	 xmm0, DWORD PTR __real@44480000
  00cdc	f3 0f 11 80 c4
	1c 00 00	 movss	 DWORD PTR [eax+7364], xmm0

; 400  : 	current_flight_dynamics->left_engine_temp.max = 1000.0;

  00ce4	a1 00 00 00 00	 mov	 eax, DWORD PTR ?current_flight_dynamics@@3PAUDYNAMICS_TYPE@@A ; current_flight_dynamics
  00ce9	f3 0f 10 05 00
	00 00 00	 movss	 xmm0, DWORD PTR __real@447a0000
  00cf1	f3 0f 11 80 d0
	1c 00 00	 movss	 DWORD PTR [eax+7376], xmm0

; 401  : 
; 402  : 	current_flight_dynamics->right_engine_rpm.value = 0.0;

  00cf9	a1 00 00 00 00	 mov	 eax, DWORD PTR ?current_flight_dynamics@@3PAUDYNAMICS_TYPE@@A ; current_flight_dynamics
  00cfe	0f 57 c0	 xorps	 xmm0, xmm0
  00d01	f3 0f 11 80 dc
	1c 00 00	 movss	 DWORD PTR [eax+7388], xmm0

; 403  : 	current_flight_dynamics->right_engine_rpm.max = 100.0;

  00d09	a1 00 00 00 00	 mov	 eax, DWORD PTR ?current_flight_dynamics@@3PAUDYNAMICS_TYPE@@A ; current_flight_dynamics
  00d0e	f3 0f 10 05 00
	00 00 00	 movss	 xmm0, DWORD PTR __real@42c80000
  00d16	f3 0f 11 80 e8
	1c 00 00	 movss	 DWORD PTR [eax+7400], xmm0

; 404  : 	current_flight_dynamics->right_engine_n1_rpm.value = 0.0;

  00d1e	a1 00 00 00 00	 mov	 eax, DWORD PTR ?current_flight_dynamics@@3PAUDYNAMICS_TYPE@@A ; current_flight_dynamics
  00d23	0f 57 c0	 xorps	 xmm0, xmm0
  00d26	f3 0f 11 80 f4
	1c 00 00	 movss	 DWORD PTR [eax+7412], xmm0

; 405  : 	current_flight_dynamics->right_engine_n1_rpm.max = 100.0;

  00d2e	a1 00 00 00 00	 mov	 eax, DWORD PTR ?current_flight_dynamics@@3PAUDYNAMICS_TYPE@@A ; current_flight_dynamics
  00d33	f3 0f 10 05 00
	00 00 00	 movss	 xmm0, DWORD PTR __real@42c80000
  00d3b	f3 0f 11 80 00
	1d 00 00	 movss	 DWORD PTR [eax+7424], xmm0

; 406  : 	current_flight_dynamics->right_engine_torque.value = 0.0;

  00d43	a1 00 00 00 00	 mov	 eax, DWORD PTR ?current_flight_dynamics@@3PAUDYNAMICS_TYPE@@A ; current_flight_dynamics
  00d48	0f 57 c0	 xorps	 xmm0, xmm0
  00d4b	f3 0f 11 80 0c
	1d 00 00	 movss	 DWORD PTR [eax+7436], xmm0

; 407  : 	current_flight_dynamics->right_engine_torque.max = 120.0;

  00d53	a1 00 00 00 00	 mov	 eax, DWORD PTR ?current_flight_dynamics@@3PAUDYNAMICS_TYPE@@A ; current_flight_dynamics
  00d58	f3 0f 10 05 00
	00 00 00	 movss	 xmm0, DWORD PTR __real@42f00000
  00d60	f3 0f 11 80 18
	1d 00 00	 movss	 DWORD PTR [eax+7448], xmm0

; 408  : 
; 409  : 	current_flight_dynamics->right_engine_temp.value = 800.0;

  00d68	a1 00 00 00 00	 mov	 eax, DWORD PTR ?current_flight_dynamics@@3PAUDYNAMICS_TYPE@@A ; current_flight_dynamics
  00d6d	f3 0f 10 05 00
	00 00 00	 movss	 xmm0, DWORD PTR __real@44480000
  00d75	f3 0f 11 80 24
	1d 00 00	 movss	 DWORD PTR [eax+7460], xmm0

; 410  : 	current_flight_dynamics->right_engine_temp.max = 1000.0;

  00d7d	a1 00 00 00 00	 mov	 eax, DWORD PTR ?current_flight_dynamics@@3PAUDYNAMICS_TYPE@@A ; current_flight_dynamics
  00d82	f3 0f 10 05 00
	00 00 00	 movss	 xmm0, DWORD PTR __real@447a0000
  00d8a	f3 0f 11 80 30
	1d 00 00	 movss	 DWORD PTR [eax+7472], xmm0

; 411  : 
; 412  : 	// main rotor characteristics
; 413  : 
; 414  : 	current_flight_dynamics->main_rotor_diameter.value = 17.3;

  00d92	a1 00 00 00 00	 mov	 eax, DWORD PTR ?current_flight_dynamics@@3PAUDYNAMICS_TYPE@@A ; current_flight_dynamics
  00d97	f3 0f 10 05 00
	00 00 00	 movss	 xmm0, DWORD PTR __real@418a6666
  00d9f	f3 0f 11 80 9c
	1d 00 00	 movss	 DWORD PTR [eax+7580], xmm0

; 415  : 	current_flight_dynamics->main_rotor_area.value = PI * pow ((current_flight_dynamics->main_rotor_diameter.value / 2.0), 2);

  00da7	6a 02		 push	 2
  00da9	a1 00 00 00 00	 mov	 eax, DWORD PTR ?current_flight_dynamics@@3PAUDYNAMICS_TYPE@@A ; current_flight_dynamics
  00dae	f3 0f 5a 80 9c
	1d 00 00	 cvtss2sd xmm0, DWORD PTR [eax+7580]
  00db6	f2 0f 5e 05 00
	00 00 00	 divsd	 xmm0, QWORD PTR __real@4000000000000000
  00dbe	83 ec 08	 sub	 esp, 8
  00dc1	f2 0f 11 04 24	 movsd	 QWORD PTR [esp], xmm0
  00dc6	e8 00 00 00 00	 call	 ?pow@@YGNNH@Z		; pow
  00dcb	dd 5d 94	 fstp	 QWORD PTR tv1063[ebp]
  00dce	f2 0f 10 45 94	 movsd	 xmm0, QWORD PTR tv1063[ebp]
  00dd3	f2 0f 59 05 00
	00 00 00	 mulsd	 xmm0, QWORD PTR __real@400921fb60000000
  00ddb	f2 0f 5a c0	 cvtsd2ss xmm0, xmm0
  00ddf	8b 0d 00 00 00
	00		 mov	 ecx, DWORD PTR ?current_flight_dynamics@@3PAUDYNAMICS_TYPE@@A ; current_flight_dynamics
  00de5	f3 0f 11 81 b4
	1d 00 00	 movss	 DWORD PTR [ecx+7604], xmm0

; 416  : 
; 417  : 	current_flight_dynamics->main_rotor_induced_air.value = 0.0;

  00ded	a1 00 00 00 00	 mov	 eax, DWORD PTR ?current_flight_dynamics@@3PAUDYNAMICS_TYPE@@A ; current_flight_dynamics
  00df2	0f 57 c0	 xorps	 xmm0, xmm0
  00df5	f3 0f 11 80 6c
	1d 00 00	 movss	 DWORD PTR [eax+7532], xmm0

; 418  : 	current_flight_dynamics->main_rotor_induced_air.min = 5.0;

  00dfd	a1 00 00 00 00	 mov	 eax, DWORD PTR ?current_flight_dynamics@@3PAUDYNAMICS_TYPE@@A ; current_flight_dynamics
  00e02	f3 0f 10 05 00
	00 00 00	 movss	 xmm0, DWORD PTR __real@40a00000
  00e0a	f3 0f 11 80 74
	1d 00 00	 movss	 DWORD PTR [eax+7540], xmm0

; 419  : 	current_flight_dynamics->main_rotor_induced_air.max = 26.0;

  00e12	a1 00 00 00 00	 mov	 eax, DWORD PTR ?current_flight_dynamics@@3PAUDYNAMICS_TYPE@@A ; current_flight_dynamics
  00e17	f3 0f 10 05 00
	00 00 00	 movss	 xmm0, DWORD PTR __real@41d00000
  00e1f	f3 0f 11 80 78
	1d 00 00	 movss	 DWORD PTR [eax+7544], xmm0

; 420  : 
; 421  : 	current_flight_dynamics->main_rotor_induced_vortex_air_flow.min = knots_to_metres_per_second (10.0); // actually used for the max velocity for vortex ring to occur

  00e27	a1 00 00 00 00	 mov	 eax, DWORD PTR ?current_flight_dynamics@@3PAUDYNAMICS_TYPE@@A ; current_flight_dynamics
  00e2c	f3 0f 10 05 00
	00 00 00	 movss	 xmm0, DWORD PTR __real@40a4eb1a
  00e34	f3 0f 11 80 8c
	1d 00 00	 movss	 DWORD PTR [eax+7564], xmm0

; 422  : 
; 423  : 	current_flight_dynamics->main_rotor_roll_angle.min = rad (-5.5);

  00e3c	a1 00 00 00 00	 mov	 eax, DWORD PTR ?current_flight_dynamics@@3PAUDYNAMICS_TYPE@@A ; current_flight_dynamics
  00e41	f3 0f 10 05 00
	00 00 00	 movss	 xmm0, DWORD PTR __real@bdc49809
  00e49	f3 0f 11 80 ec
	1d 00 00	 movss	 DWORD PTR [eax+7660], xmm0

; 424  : 	current_flight_dynamics->main_rotor_roll_angle.max = rad (5.5);

  00e51	a1 00 00 00 00	 mov	 eax, DWORD PTR ?current_flight_dynamics@@3PAUDYNAMICS_TYPE@@A ; current_flight_dynamics
  00e56	f3 0f 10 05 00
	00 00 00	 movss	 xmm0, DWORD PTR __real@3dc49809
  00e5e	f3 0f 11 80 f0
	1d 00 00	 movss	 DWORD PTR [eax+7664], xmm0

; 425  : 
; 426  : 	current_flight_dynamics->main_rotor_pitch_angle.min = rad (-5.5);

  00e66	a1 00 00 00 00	 mov	 eax, DWORD PTR ?current_flight_dynamics@@3PAUDYNAMICS_TYPE@@A ; current_flight_dynamics
  00e6b	f3 0f 10 05 00
	00 00 00	 movss	 xmm0, DWORD PTR __real@bdc49809
  00e73	f3 0f 11 80 04
	1e 00 00	 movss	 DWORD PTR [eax+7684], xmm0

; 427  : 	current_flight_dynamics->main_rotor_pitch_angle.max = rad (5.5);

  00e7b	a1 00 00 00 00	 mov	 eax, DWORD PTR ?current_flight_dynamics@@3PAUDYNAMICS_TYPE@@A ; current_flight_dynamics
  00e80	f3 0f 10 05 00
	00 00 00	 movss	 xmm0, DWORD PTR __real@3dc49809
  00e88	f3 0f 11 80 08
	1e 00 00	 movss	 DWORD PTR [eax+7688], xmm0

; 428  : 
; 429  : 	current_flight_dynamics->main_rotor_thrust.value = 0.0;

  00e90	a1 00 00 00 00	 mov	 eax, DWORD PTR ?current_flight_dynamics@@3PAUDYNAMICS_TYPE@@A ; current_flight_dynamics
  00e95	0f 57 c0	 xorps	 xmm0, xmm0
  00e98	f3 0f 11 80 cc
	1d 00 00	 movss	 DWORD PTR [eax+7628], xmm0

; 430  : 	current_flight_dynamics->main_rotor_thrust.min = 0.0;

  00ea0	a1 00 00 00 00	 mov	 eax, DWORD PTR ?current_flight_dynamics@@3PAUDYNAMICS_TYPE@@A ; current_flight_dynamics
  00ea5	0f 57 c0	 xorps	 xmm0, xmm0
  00ea8	f3 0f 11 80 d4
	1d 00 00	 movss	 DWORD PTR [eax+7636], xmm0

; 431  : 	current_flight_dynamics->main_rotor_thrust.max = 100.0;

  00eb0	a1 00 00 00 00	 mov	 eax, DWORD PTR ?current_flight_dynamics@@3PAUDYNAMICS_TYPE@@A ; current_flight_dynamics
  00eb5	f3 0f 10 05 00
	00 00 00	 movss	 xmm0, DWORD PTR __real@42c80000
  00ebd	f3 0f 11 80 d8
	1d 00 00	 movss	 DWORD PTR [eax+7640], xmm0

; 432  : 
; 433  : 	current_flight_dynamics->main_rotor_rpm.value = 0.0;

  00ec5	a1 00 00 00 00	 mov	 eax, DWORD PTR ?current_flight_dynamics@@3PAUDYNAMICS_TYPE@@A ; current_flight_dynamics
  00eca	0f 57 c0	 xorps	 xmm0, xmm0
  00ecd	f3 0f 11 80 14
	1e 00 00	 movss	 DWORD PTR [eax+7700], xmm0

; 434  : 	current_flight_dynamics->main_rotor_rpm.min = 0.0;

  00ed5	a1 00 00 00 00	 mov	 eax, DWORD PTR ?current_flight_dynamics@@3PAUDYNAMICS_TYPE@@A ; current_flight_dynamics
  00eda	0f 57 c0	 xorps	 xmm0, xmm0
  00edd	f3 0f 11 80 1c
	1e 00 00	 movss	 DWORD PTR [eax+7708], xmm0

; 435  : 	current_flight_dynamics->main_rotor_rpm.max = 100.0;

  00ee5	a1 00 00 00 00	 mov	 eax, DWORD PTR ?current_flight_dynamics@@3PAUDYNAMICS_TYPE@@A ; current_flight_dynamics
  00eea	f3 0f 10 05 00
	00 00 00	 movss	 xmm0, DWORD PTR __real@42c80000
  00ef2	f3 0f 11 80 20
	1e 00 00	 movss	 DWORD PTR [eax+7712], xmm0

; 436  : 
; 437  : 	current_flight_dynamics->main_rotor_rps.value = 0.0;

  00efa	a1 00 00 00 00	 mov	 eax, DWORD PTR ?current_flight_dynamics@@3PAUDYNAMICS_TYPE@@A ; current_flight_dynamics
  00eff	0f 57 c0	 xorps	 xmm0, xmm0
  00f02	f3 0f 11 80 2c
	1e 00 00	 movss	 DWORD PTR [eax+7724], xmm0

; 438  : 	current_flight_dynamics->main_rotor_rps.min = 0.0;

  00f0a	a1 00 00 00 00	 mov	 eax, DWORD PTR ?current_flight_dynamics@@3PAUDYNAMICS_TYPE@@A ; current_flight_dynamics
  00f0f	0f 57 c0	 xorps	 xmm0, xmm0
  00f12	f3 0f 11 80 34
	1e 00 00	 movss	 DWORD PTR [eax+7732], xmm0

; 439  : 	current_flight_dynamics->main_rotor_rps.max = 4.5;

  00f1a	a1 00 00 00 00	 mov	 eax, DWORD PTR ?current_flight_dynamics@@3PAUDYNAMICS_TYPE@@A ; current_flight_dynamics
  00f1f	f3 0f 10 05 00
	00 00 00	 movss	 xmm0, DWORD PTR __real@40900000
  00f27	f3 0f 11 80 38
	1e 00 00	 movss	 DWORD PTR [eax+7736], xmm0

; 440  : 
; 441  : 	current_flight_dynamics->main_rotor_angular_position.value = 0;

  00f2f	a1 00 00 00 00	 mov	 eax, DWORD PTR ?current_flight_dynamics@@3PAUDYNAMICS_TYPE@@A ; current_flight_dynamics
  00f34	0f 57 c0	 xorps	 xmm0, xmm0
  00f37	f3 0f 11 80 5c
	1e 00 00	 movss	 DWORD PTR [eax+7772], xmm0

; 442  : 	current_flight_dynamics->main_rotor_angular_position.min = 0;

  00f3f	a1 00 00 00 00	 mov	 eax, DWORD PTR ?current_flight_dynamics@@3PAUDYNAMICS_TYPE@@A ; current_flight_dynamics
  00f44	0f 57 c0	 xorps	 xmm0, xmm0
  00f47	f3 0f 11 80 64
	1e 00 00	 movss	 DWORD PTR [eax+7780], xmm0

; 443  : 	current_flight_dynamics->main_rotor_angular_position.max = PI2;

  00f4f	a1 00 00 00 00	 mov	 eax, DWORD PTR ?current_flight_dynamics@@3PAUDYNAMICS_TYPE@@A ; current_flight_dynamics
  00f54	f3 0f 10 05 00
	00 00 00	 movss	 xmm0, DWORD PTR __real@40c90fdb
  00f5c	f3 0f 11 80 68
	1e 00 00	 movss	 DWORD PTR [eax+7784], xmm0

; 444  : 
; 445  : 	current_flight_dynamics->main_rotor_coning_angle.min = rad (-3.0);

  00f64	a1 00 00 00 00	 mov	 eax, DWORD PTR ?current_flight_dynamics@@3PAUDYNAMICS_TYPE@@A ; current_flight_dynamics
  00f69	f3 0f 10 05 00
	00 00 00	 movss	 xmm0, DWORD PTR __real@bd567750
  00f71	f3 0f 11 80 4c
	1e 00 00	 movss	 DWORD PTR [eax+7756], xmm0

; 446  : 	current_flight_dynamics->main_rotor_coning_angle.max = rad (5.0);

  00f79	a1 00 00 00 00	 mov	 eax, DWORD PTR ?current_flight_dynamics@@3PAUDYNAMICS_TYPE@@A ; current_flight_dynamics
  00f7e	f3 0f 10 05 00
	00 00 00	 movss	 xmm0, DWORD PTR __real@3db2b8c2
  00f86	f3 0f 11 80 50
	1e 00 00	 movss	 DWORD PTR [eax+7760], xmm0

; 447  : 
; 448  : 	current_flight_dynamics->main_blade_pitch.value = 2.0;

  00f8e	a1 00 00 00 00	 mov	 eax, DWORD PTR ?current_flight_dynamics@@3PAUDYNAMICS_TYPE@@A ; current_flight_dynamics
  00f93	f3 0f 10 05 00
	00 00 00	 movss	 xmm0, DWORD PTR __real@40000000
  00f9b	f3 0f 11 80 8c
	1e 00 00	 movss	 DWORD PTR [eax+7820], xmm0

; 449  : 	current_flight_dynamics->main_blade_pitch.min = rad (1.0);

  00fa3	a1 00 00 00 00	 mov	 eax, DWORD PTR ?current_flight_dynamics@@3PAUDYNAMICS_TYPE@@A ; current_flight_dynamics
  00fa8	f3 0f 10 05 00
	00 00 00	 movss	 xmm0, DWORD PTR __real@3c8efa35
  00fb0	f3 0f 11 80 94
	1e 00 00	 movss	 DWORD PTR [eax+7828], xmm0

; 450  : 	current_flight_dynamics->main_blade_pitch.max = rad (7.5);

  00fb8	a1 00 00 00 00	 mov	 eax, DWORD PTR ?current_flight_dynamics@@3PAUDYNAMICS_TYPE@@A ; current_flight_dynamics
  00fbd	f3 0f 10 05 00
	00 00 00	 movss	 xmm0, DWORD PTR __real@3e060a92
  00fc5	f3 0f 11 80 98
	1e 00 00	 movss	 DWORD PTR [eax+7832], xmm0

; 451  : 
; 452  : 	// tail rotor characteristics
; 453  : 
; 454  : 	current_flight_dynamics->tail_rotor_diameter.value = 3.9;

  00fcd	a1 00 00 00 00	 mov	 eax, DWORD PTR ?current_flight_dynamics@@3PAUDYNAMICS_TYPE@@A ; current_flight_dynamics
  00fd2	f3 0f 10 05 00
	00 00 00	 movss	 xmm0, DWORD PTR __real@4079999a
  00fda	f3 0f 11 80 1c
	1f 00 00	 movss	 DWORD PTR [eax+7964], xmm0

; 455  : 
; 456  : 	current_flight_dynamics->tail_rotor_rpm.value = 0.0;

  00fe2	a1 00 00 00 00	 mov	 eax, DWORD PTR ?current_flight_dynamics@@3PAUDYNAMICS_TYPE@@A ; current_flight_dynamics
  00fe7	0f 57 c0	 xorps	 xmm0, xmm0
  00fea	f3 0f 11 80 4c
	1f 00 00	 movss	 DWORD PTR [eax+8012], xmm0

; 457  : 	current_flight_dynamics->tail_rotor_rpm.min = 0.0;

  00ff2	a1 00 00 00 00	 mov	 eax, DWORD PTR ?current_flight_dynamics@@3PAUDYNAMICS_TYPE@@A ; current_flight_dynamics
  00ff7	0f 57 c0	 xorps	 xmm0, xmm0
  00ffa	f3 0f 11 80 54
	1f 00 00	 movss	 DWORD PTR [eax+8020], xmm0

; 458  : 	current_flight_dynamics->tail_rotor_rpm.max = 100.0;

  01002	a1 00 00 00 00	 mov	 eax, DWORD PTR ?current_flight_dynamics@@3PAUDYNAMICS_TYPE@@A ; current_flight_dynamics
  01007	f3 0f 10 05 00
	00 00 00	 movss	 xmm0, DWORD PTR __real@42c80000
  0100f	f3 0f 11 80 58
	1f 00 00	 movss	 DWORD PTR [eax+8024], xmm0

; 459  : 
; 460  : 	current_flight_dynamics->tail_rotor_rps.value = 0.0;

  01017	a1 00 00 00 00	 mov	 eax, DWORD PTR ?current_flight_dynamics@@3PAUDYNAMICS_TYPE@@A ; current_flight_dynamics
  0101c	0f 57 c0	 xorps	 xmm0, xmm0
  0101f	f3 0f 11 80 64
	1f 00 00	 movss	 DWORD PTR [eax+8036], xmm0

; 461  : 	current_flight_dynamics->tail_rotor_rps.min = 0.0;

  01027	a1 00 00 00 00	 mov	 eax, DWORD PTR ?current_flight_dynamics@@3PAUDYNAMICS_TYPE@@A ; current_flight_dynamics
  0102c	0f 57 c0	 xorps	 xmm0, xmm0
  0102f	f3 0f 11 80 6c
	1f 00 00	 movss	 DWORD PTR [eax+8044], xmm0

; 462  : 	current_flight_dynamics->tail_rotor_rps.max = 10;

  01037	a1 00 00 00 00	 mov	 eax, DWORD PTR ?current_flight_dynamics@@3PAUDYNAMICS_TYPE@@A ; current_flight_dynamics
  0103c	f3 0f 10 05 00
	00 00 00	 movss	 xmm0, DWORD PTR __real@41200000
  01044	f3 0f 11 80 70
	1f 00 00	 movss	 DWORD PTR [eax+8048], xmm0

; 463  : 
; 464  : 	current_flight_dynamics->tail_rotor_angular_position.value = 0;

  0104c	a1 00 00 00 00	 mov	 eax, DWORD PTR ?current_flight_dynamics@@3PAUDYNAMICS_TYPE@@A ; current_flight_dynamics
  01051	0f 57 c0	 xorps	 xmm0, xmm0
  01054	f3 0f 11 80 7c
	1f 00 00	 movss	 DWORD PTR [eax+8060], xmm0

; 465  : 	current_flight_dynamics->tail_rotor_angular_position.min = 0;

  0105c	a1 00 00 00 00	 mov	 eax, DWORD PTR ?current_flight_dynamics@@3PAUDYNAMICS_TYPE@@A ; current_flight_dynamics
  01061	0f 57 c0	 xorps	 xmm0, xmm0
  01064	f3 0f 11 80 84
	1f 00 00	 movss	 DWORD PTR [eax+8068], xmm0

; 466  : 	current_flight_dynamics->tail_rotor_angular_position.max = PI2;

  0106c	a1 00 00 00 00	 mov	 eax, DWORD PTR ?current_flight_dynamics@@3PAUDYNAMICS_TYPE@@A ; current_flight_dynamics
  01071	f3 0f 10 05 00
	00 00 00	 movss	 xmm0, DWORD PTR __real@40c90fdb
  01079	f3 0f 11 80 88
	1f 00 00	 movss	 DWORD PTR [eax+8072], xmm0

; 467  : 
; 468  : 	current_flight_dynamics->tail_rotor_thrust.value = 0.0;

  01081	a1 00 00 00 00	 mov	 eax, DWORD PTR ?current_flight_dynamics@@3PAUDYNAMICS_TYPE@@A ; current_flight_dynamics
  01086	0f 57 c0	 xorps	 xmm0, xmm0
  01089	f3 0f 11 80 34
	1f 00 00	 movss	 DWORD PTR [eax+7988], xmm0

; 469  : 	current_flight_dynamics->tail_rotor_thrust.min = 0.0;

  01091	a1 00 00 00 00	 mov	 eax, DWORD PTR ?current_flight_dynamics@@3PAUDYNAMICS_TYPE@@A ; current_flight_dynamics
  01096	0f 57 c0	 xorps	 xmm0, xmm0
  01099	f3 0f 11 80 3c
	1f 00 00	 movss	 DWORD PTR [eax+7996], xmm0

; 470  : 	current_flight_dynamics->tail_rotor_thrust.max = 100.0;

  010a1	a1 00 00 00 00	 mov	 eax, DWORD PTR ?current_flight_dynamics@@3PAUDYNAMICS_TYPE@@A ; current_flight_dynamics
  010a6	f3 0f 10 05 00
	00 00 00	 movss	 xmm0, DWORD PTR __real@42c80000
  010ae	f3 0f 11 80 40
	1f 00 00	 movss	 DWORD PTR [eax+8000], xmm0

; 471  : 
; 472  : 	current_flight_dynamics->tail_blade_pitch.value = 0.0;

  010b6	a1 00 00 00 00	 mov	 eax, DWORD PTR ?current_flight_dynamics@@3PAUDYNAMICS_TYPE@@A ; current_flight_dynamics
  010bb	0f 57 c0	 xorps	 xmm0, xmm0
  010be	f3 0f 11 80 94
	1f 00 00	 movss	 DWORD PTR [eax+8084], xmm0

; 473  : 	current_flight_dynamics->tail_blade_pitch.min = rad (-2.0);

  010c6	a1 00 00 00 00	 mov	 eax, DWORD PTR ?current_flight_dynamics@@3PAUDYNAMICS_TYPE@@A ; current_flight_dynamics
  010cb	f3 0f 10 05 00
	00 00 00	 movss	 xmm0, DWORD PTR __real@bd0efa35
  010d3	f3 0f 11 80 9c
	1f 00 00	 movss	 DWORD PTR [eax+8092], xmm0

; 474  : 	current_flight_dynamics->tail_blade_pitch.max = rad (2.0);

  010db	a1 00 00 00 00	 mov	 eax, DWORD PTR ?current_flight_dynamics@@3PAUDYNAMICS_TYPE@@A ; current_flight_dynamics
  010e0	f3 0f 10 05 00
	00 00 00	 movss	 xmm0, DWORD PTR __real@3d0efa35
  010e8	f3 0f 11 80 a0
	1f 00 00	 movss	 DWORD PTR [eax+8096], xmm0

; 475  : 
; 476  : 	current_flight_dynamics->tail_rotor_induced_air.value = 0.0;

  010f0	a1 00 00 00 00	 mov	 eax, DWORD PTR ?current_flight_dynamics@@3PAUDYNAMICS_TYPE@@A ; current_flight_dynamics
  010f5	0f 57 c0	 xorps	 xmm0, xmm0
  010f8	f3 0f 11 80 04
	1f 00 00	 movss	 DWORD PTR [eax+7940], xmm0

; 477  : 	current_flight_dynamics->tail_rotor_induced_air.min = -1.0;

  01100	a1 00 00 00 00	 mov	 eax, DWORD PTR ?current_flight_dynamics@@3PAUDYNAMICS_TYPE@@A ; current_flight_dynamics
  01105	f3 0f 10 05 00
	00 00 00	 movss	 xmm0, DWORD PTR __real@bf800000
  0110d	f3 0f 11 80 0c
	1f 00 00	 movss	 DWORD PTR [eax+7948], xmm0

; 478  : 	current_flight_dynamics->tail_rotor_induced_air.max = 1.0;

  01115	a1 00 00 00 00	 mov	 eax, DWORD PTR ?current_flight_dynamics@@3PAUDYNAMICS_TYPE@@A ; current_flight_dynamics
  0111a	f3 0f 10 05 00
	00 00 00	 movss	 xmm0, DWORD PTR __real@3f800000
  01122	f3 0f 11 80 10
	1f 00 00	 movss	 DWORD PTR [eax+7952], xmm0

; 479  : 
; 480  : 	current_flight_dynamics->tail_boom_length.value = 10.59; // actually the wheelbase (but close enough)

  0112a	a1 00 00 00 00	 mov	 eax, DWORD PTR ?current_flight_dynamics@@3PAUDYNAMICS_TYPE@@A ; current_flight_dynamics
  0112f	f3 0f 10 05 00
	00 00 00	 movss	 xmm0, DWORD PTR __real@412970a4
  01137	f3 0f 11 80 ac
	1f 00 00	 movss	 DWORD PTR [eax+8108], xmm0

; 481  : 
; 482  : 	current_flight_dynamics->cross_coupling_effect.value = 0.0;

  0113f	a1 00 00 00 00	 mov	 eax, DWORD PTR ?current_flight_dynamics@@3PAUDYNAMICS_TYPE@@A ; current_flight_dynamics
  01144	0f 57 c0	 xorps	 xmm0, xmm0
  01147	f3 0f 11 80 c4
	1f 00 00	 movss	 DWORD PTR [eax+8132], xmm0

; 483  : 
; 484  : 	// other
; 485  : 
; 486  : 	current_flight_dynamics->velocity_x.min = -11.1;

  0114f	a1 00 00 00 00	 mov	 eax, DWORD PTR ?current_flight_dynamics@@3PAUDYNAMICS_TYPE@@A ; current_flight_dynamics
  01154	f3 0f 10 05 00
	00 00 00	 movss	 xmm0, DWORD PTR __real@c131999a
  0115c	f3 0f 11 80 74
	20 00 00	 movss	 DWORD PTR [eax+8308], xmm0

; 487  : 	current_flight_dynamics->velocity_x.max = 11.1;

  01164	a1 00 00 00 00	 mov	 eax, DWORD PTR ?current_flight_dynamics@@3PAUDYNAMICS_TYPE@@A ; current_flight_dynamics
  01169	f3 0f 10 05 00
	00 00 00	 movss	 xmm0, DWORD PTR __real@4131999a
  01171	f3 0f 11 80 78
	20 00 00	 movss	 DWORD PTR [eax+8312], xmm0

; 488  : 
; 489  : 	current_flight_dynamics->model_acceleration_vector.x = 0.0;

  01179	a1 00 00 00 00	 mov	 eax, DWORD PTR ?current_flight_dynamics@@3PAUDYNAMICS_TYPE@@A ; current_flight_dynamics
  0117e	0f 57 c0	 xorps	 xmm0, xmm0
  01181	f3 0f 11 80 48
	1c 00 00	 movss	 DWORD PTR [eax+7240], xmm0

; 490  : 	current_flight_dynamics->model_acceleration_vector.y = 0.0;

  01189	a1 00 00 00 00	 mov	 eax, DWORD PTR ?current_flight_dynamics@@3PAUDYNAMICS_TYPE@@A ; current_flight_dynamics
  0118e	0f 57 c0	 xorps	 xmm0, xmm0
  01191	f3 0f 11 80 4c
	1c 00 00	 movss	 DWORD PTR [eax+7244], xmm0

; 491  : 	current_flight_dynamics->model_acceleration_vector.z = 0.0;

  01199	a1 00 00 00 00	 mov	 eax, DWORD PTR ?current_flight_dynamics@@3PAUDYNAMICS_TYPE@@A ; current_flight_dynamics
  0119e	0f 57 c0	 xorps	 xmm0, xmm0
  011a1	f3 0f 11 80 50
	1c 00 00	 movss	 DWORD PTR [eax+7248], xmm0

; 492  : 
; 493  : 	current_flight_dynamics->world_acceleration_vector.x = 0.0;

  011a9	a1 00 00 00 00	 mov	 eax, DWORD PTR ?current_flight_dynamics@@3PAUDYNAMICS_TYPE@@A ; current_flight_dynamics
  011ae	0f 57 c0	 xorps	 xmm0, xmm0
  011b1	f3 0f 11 80 54
	1c 00 00	 movss	 DWORD PTR [eax+7252], xmm0

; 494  : 	current_flight_dynamics->world_acceleration_vector.y = 0.0;

  011b9	a1 00 00 00 00	 mov	 eax, DWORD PTR ?current_flight_dynamics@@3PAUDYNAMICS_TYPE@@A ; current_flight_dynamics
  011be	0f 57 c0	 xorps	 xmm0, xmm0
  011c1	f3 0f 11 80 58
	1c 00 00	 movss	 DWORD PTR [eax+7256], xmm0

; 495  : 	current_flight_dynamics->world_acceleration_vector.z = 0.0;

  011c9	a1 00 00 00 00	 mov	 eax, DWORD PTR ?current_flight_dynamics@@3PAUDYNAMICS_TYPE@@A ; current_flight_dynamics
  011ce	0f 57 c0	 xorps	 xmm0, xmm0
  011d1	f3 0f 11 80 5c
	1c 00 00	 movss	 DWORD PTR [eax+7260], xmm0

; 496  : 
; 497  : 	current_flight_dynamics->velocity_y.value = 0.0;

  011d9	a1 00 00 00 00	 mov	 eax, DWORD PTR ?current_flight_dynamics@@3PAUDYNAMICS_TYPE@@A ; current_flight_dynamics
  011de	0f 57 c0	 xorps	 xmm0, xmm0
  011e1	f3 0f 11 80 84
	20 00 00	 movss	 DWORD PTR [eax+8324], xmm0

; 498  : 	current_flight_dynamics->velocity_y.min = -1000.0;

  011e9	a1 00 00 00 00	 mov	 eax, DWORD PTR ?current_flight_dynamics@@3PAUDYNAMICS_TYPE@@A ; current_flight_dynamics
  011ee	f3 0f 10 05 00
	00 00 00	 movss	 xmm0, DWORD PTR __real@c47a0000
  011f6	f3 0f 11 80 8c
	20 00 00	 movss	 DWORD PTR [eax+8332], xmm0

; 499  : 	current_flight_dynamics->velocity_y.max = 15.7;

  011fe	a1 00 00 00 00	 mov	 eax, DWORD PTR ?current_flight_dynamics@@3PAUDYNAMICS_TYPE@@A ; current_flight_dynamics
  01203	f3 0f 10 05 00
	00 00 00	 movss	 xmm0, DWORD PTR __real@417b3333
  0120b	f3 0f 11 80 90
	20 00 00	 movss	 DWORD PTR [eax+8336], xmm0

; 500  : 
; 501  : 	current_flight_dynamics->velocity_z.min = -8.33;

  01213	a1 00 00 00 00	 mov	 eax, DWORD PTR ?current_flight_dynamics@@3PAUDYNAMICS_TYPE@@A ; current_flight_dynamics
  01218	f3 0f 10 05 00
	00 00 00	 movss	 xmm0, DWORD PTR __real@c10547ae
  01220	f3 0f 11 80 a4
	20 00 00	 movss	 DWORD PTR [eax+8356], xmm0

; 502  : 	current_flight_dynamics->velocity_z.max = knots_to_metres_per_second (197);

  01228	a1 00 00 00 00	 mov	 eax, DWORD PTR ?current_flight_dynamics@@3PAUDYNAMICS_TYPE@@A ; current_flight_dynamics
  0122d	f3 0f 10 05 00
	00 00 00	 movss	 xmm0, DWORD PTR __real@42cb0e45
  01235	f3 0f 11 80 a8
	20 00 00	 movss	 DWORD PTR [eax+8360], xmm0

; 503  : 
; 504  : 	current_flight_dynamics->power_avaliable.min = 0.0;

  0123d	a1 00 00 00 00	 mov	 eax, DWORD PTR ?current_flight_dynamics@@3PAUDYNAMICS_TYPE@@A ; current_flight_dynamics
  01242	0f 57 c0	 xorps	 xmm0, xmm0
  01245	f3 0f 11 80 e4
	1f 00 00	 movss	 DWORD PTR [eax+8164], xmm0

; 505  : 	current_flight_dynamics->power_avaliable.max = 2230.0;

  0124d	a1 00 00 00 00	 mov	 eax, DWORD PTR ?current_flight_dynamics@@3PAUDYNAMICS_TYPE@@A ; current_flight_dynamics
  01252	f3 0f 10 05 00
	00 00 00	 movss	 xmm0, DWORD PTR __real@450b6000
  0125a	f3 0f 11 80 e8
	1f 00 00	 movss	 DWORD PTR [eax+8168], xmm0

; 506  : 
; 507  : 	current_flight_dynamics->lift.min = -10.0;

  01262	a1 00 00 00 00	 mov	 eax, DWORD PTR ?current_flight_dynamics@@3PAUDYNAMICS_TYPE@@A ; current_flight_dynamics
  01267	f3 0f 10 05 00
	00 00 00	 movss	 xmm0, DWORD PTR __real@c1200000
  0126f	f3 0f 11 80 ac
	21 00 00	 movss	 DWORD PTR [eax+8620], xmm0

; 508  : 	current_flight_dynamics->lift.max = 20.0;

  01277	a1 00 00 00 00	 mov	 eax, DWORD PTR ?current_flight_dynamics@@3PAUDYNAMICS_TYPE@@A ; current_flight_dynamics
  0127c	f3 0f 10 05 00
	00 00 00	 movss	 xmm0, DWORD PTR __real@41a00000
  01284	f3 0f 11 80 b0
	21 00 00	 movss	 DWORD PTR [eax+8624], xmm0

; 509  : 
; 510  : 	current_flight_dynamics->translational_lift.value = 3;

  0128c	a1 00 00 00 00	 mov	 eax, DWORD PTR ?current_flight_dynamics@@3PAUDYNAMICS_TYPE@@A ; current_flight_dynamics
  01291	f3 0f 10 05 00
	00 00 00	 movss	 xmm0, DWORD PTR __real@40400000
  01299	f3 0f 11 80 bc
	21 00 00	 movss	 DWORD PTR [eax+8636], xmm0

; 511  : 	current_flight_dynamics->translational_lift.min = 8.0;

  012a1	a1 00 00 00 00	 mov	 eax, DWORD PTR ?current_flight_dynamics@@3PAUDYNAMICS_TYPE@@A ; current_flight_dynamics
  012a6	f3 0f 10 05 00
	00 00 00	 movss	 xmm0, DWORD PTR __real@41000000
  012ae	f3 0f 11 80 c4
	21 00 00	 movss	 DWORD PTR [eax+8644], xmm0

; 512  : 	current_flight_dynamics->translational_lift.max = 15.0;

  012b6	a1 00 00 00 00	 mov	 eax, DWORD PTR ?current_flight_dynamics@@3PAUDYNAMICS_TYPE@@A ; current_flight_dynamics
  012bb	f3 0f 10 05 00
	00 00 00	 movss	 xmm0, DWORD PTR __real@41700000
  012c3	f3 0f 11 80 c8
	21 00 00	 movss	 DWORD PTR [eax+8648], xmm0

; 513  : 
; 514  : 	current_flight_dynamics->heading_moment.value = 0.0;

  012cb	a1 00 00 00 00	 mov	 eax, DWORD PTR ?current_flight_dynamics@@3PAUDYNAMICS_TYPE@@A ; current_flight_dynamics
  012d0	0f 57 c0	 xorps	 xmm0, xmm0
  012d3	f3 0f 11 80 7c
	22 00 00	 movss	 DWORD PTR [eax+8828], xmm0

; 515  : 	current_flight_dynamics->heading_moment_reaction.value = 0.0;

  012db	a1 00 00 00 00	 mov	 eax, DWORD PTR ?current_flight_dynamics@@3PAUDYNAMICS_TYPE@@A ; current_flight_dynamics
  012e0	0f 57 c0	 xorps	 xmm0, xmm0
  012e3	f3 0f 11 80 c4
	22 00 00	 movss	 DWORD PTR [eax+8900], xmm0

; 516  : 
; 517  : 	current_flight_dynamics->pitch_moment.value = 0.0;

  012eb	a1 00 00 00 00	 mov	 eax, DWORD PTR ?current_flight_dynamics@@3PAUDYNAMICS_TYPE@@A ; current_flight_dynamics
  012f0	0f 57 c0	 xorps	 xmm0, xmm0
  012f3	f3 0f 11 80 94
	22 00 00	 movss	 DWORD PTR [eax+8852], xmm0

; 518  : 	current_flight_dynamics->pitch_moment_reaction.value = 0.0;

  012fb	a1 00 00 00 00	 mov	 eax, DWORD PTR ?current_flight_dynamics@@3PAUDYNAMICS_TYPE@@A ; current_flight_dynamics
  01300	0f 57 c0	 xorps	 xmm0, xmm0
  01303	f3 0f 11 80 dc
	22 00 00	 movss	 DWORD PTR [eax+8924], xmm0

; 519  : 
; 520  : 	current_flight_dynamics->roll_moment.value = 0.0;

  0130b	a1 00 00 00 00	 mov	 eax, DWORD PTR ?current_flight_dynamics@@3PAUDYNAMICS_TYPE@@A ; current_flight_dynamics
  01310	0f 57 c0	 xorps	 xmm0, xmm0
  01313	f3 0f 11 80 ac
	22 00 00	 movss	 DWORD PTR [eax+8876], xmm0

; 521  : 	current_flight_dynamics->roll_moment_reaction.value = 0.0;

  0131b	a1 00 00 00 00	 mov	 eax, DWORD PTR ?current_flight_dynamics@@3PAUDYNAMICS_TYPE@@A ; current_flight_dynamics
  01320	0f 57 c0	 xorps	 xmm0, xmm0
  01323	f3 0f 11 80 f4
	22 00 00	 movss	 DWORD PTR [eax+8948], xmm0

; 522  : 
; 523  : 	// drag
; 524  : 
; 525  : 	current_flight_dynamics->drag_x.min = 0.01;

  0132b	a1 00 00 00 00	 mov	 eax, DWORD PTR ?current_flight_dynamics@@3PAUDYNAMICS_TYPE@@A ; current_flight_dynamics
  01330	f3 0f 10 05 00
	00 00 00	 movss	 xmm0, DWORD PTR __real@3c23d70a
  01338	f3 0f 11 80 f4
	21 00 00	 movss	 DWORD PTR [eax+8692], xmm0

; 526  : 	current_flight_dynamics->drag_x.max = 0.1;

  01340	a1 00 00 00 00	 mov	 eax, DWORD PTR ?current_flight_dynamics@@3PAUDYNAMICS_TYPE@@A ; current_flight_dynamics
  01345	f3 0f 10 05 00
	00 00 00	 movss	 xmm0, DWORD PTR __real@3dcccccd
  0134d	f3 0f 11 80 f8
	21 00 00	 movss	 DWORD PTR [eax+8696], xmm0

; 527  : 
; 528  : 	current_flight_dynamics->drag_y.min = 0.01;

  01355	a1 00 00 00 00	 mov	 eax, DWORD PTR ?current_flight_dynamics@@3PAUDYNAMICS_TYPE@@A ; current_flight_dynamics
  0135a	f3 0f 10 05 00
	00 00 00	 movss	 xmm0, DWORD PTR __real@3c23d70a
  01362	f3 0f 11 80 0c
	22 00 00	 movss	 DWORD PTR [eax+8716], xmm0

; 529  : 	current_flight_dynamics->drag_y.max = 0.1;

  0136a	a1 00 00 00 00	 mov	 eax, DWORD PTR ?current_flight_dynamics@@3PAUDYNAMICS_TYPE@@A ; current_flight_dynamics
  0136f	f3 0f 10 05 00
	00 00 00	 movss	 xmm0, DWORD PTR __real@3dcccccd
  01377	f3 0f 11 80 10
	22 00 00	 movss	 DWORD PTR [eax+8720], xmm0

; 530  : 
; 531  : 	current_flight_dynamics->drag_z.min = 0.01;

  0137f	a1 00 00 00 00	 mov	 eax, DWORD PTR ?current_flight_dynamics@@3PAUDYNAMICS_TYPE@@A ; current_flight_dynamics
  01384	f3 0f 10 05 00
	00 00 00	 movss	 xmm0, DWORD PTR __real@3c23d70a
  0138c	f3 0f 11 80 24
	22 00 00	 movss	 DWORD PTR [eax+8740], xmm0

; 532  : 	current_flight_dynamics->drag_z.max = 0.1;

  01394	a1 00 00 00 00	 mov	 eax, DWORD PTR ?current_flight_dynamics@@3PAUDYNAMICS_TYPE@@A ; current_flight_dynamics
  01399	f3 0f 10 05 00
	00 00 00	 movss	 xmm0, DWORD PTR __real@3dcccccd
  013a1	f3 0f 11 80 28
	22 00 00	 movss	 DWORD PTR [eax+8744], xmm0

; 533  : 
; 534  : 	// inertia
; 535  : 
; 536  : 	current_flight_dynamics->heading_inertia.value = 5.0;

  013a9	a1 00 00 00 00	 mov	 eax, DWORD PTR ?current_flight_dynamics@@3PAUDYNAMICS_TYPE@@A ; current_flight_dynamics
  013ae	f3 0f 10 05 00
	00 00 00	 movss	 xmm0, DWORD PTR __real@40a00000
  013b6	f3 0f 11 80 34
	22 00 00	 movss	 DWORD PTR [eax+8756], xmm0

; 537  : 	current_flight_dynamics->pitch_inertia.value = 40.0;

  013be	a1 00 00 00 00	 mov	 eax, DWORD PTR ?current_flight_dynamics@@3PAUDYNAMICS_TYPE@@A ; current_flight_dynamics
  013c3	f3 0f 10 05 00
	00 00 00	 movss	 xmm0, DWORD PTR __real@42200000
  013cb	f3 0f 11 80 4c
	22 00 00	 movss	 DWORD PTR [eax+8780], xmm0

; 538  : 	current_flight_dynamics->roll_inertia.value = 30.0;

  013d3	a1 00 00 00 00	 mov	 eax, DWORD PTR ?current_flight_dynamics@@3PAUDYNAMICS_TYPE@@A ; current_flight_dynamics
  013d8	f3 0f 10 05 00
	00 00 00	 movss	 xmm0, DWORD PTR __real@41f00000
  013e0	f3 0f 11 80 64
	22 00 00	 movss	 DWORD PTR [eax+8804], xmm0

; 539  : 
; 540  : 	// mass
; 541  : 
; 542  : 	current_flight_dynamics->mass.value = 0.0;

  013e8	a1 00 00 00 00	 mov	 eax, DWORD PTR ?current_flight_dynamics@@3PAUDYNAMICS_TYPE@@A ; current_flight_dynamics
  013ed	0f 57 c0	 xorps	 xmm0, xmm0
  013f0	f3 0f 11 80 b4
	23 00 00	 movss	 DWORD PTR [eax+9140], xmm0

; 543  : 	current_flight_dynamics->mass.min = 8340.0;

  013f8	a1 00 00 00 00	 mov	 eax, DWORD PTR ?current_flight_dynamics@@3PAUDYNAMICS_TYPE@@A ; current_flight_dynamics
  013fd	f3 0f 10 05 00
	00 00 00	 movss	 xmm0, DWORD PTR __real@46025000
  01405	f3 0f 11 80 bc
	23 00 00	 movss	 DWORD PTR [eax+9148], xmm0

; 544  : 	current_flight_dynamics->mass.max = 0.0;

  0140d	a1 00 00 00 00	 mov	 eax, DWORD PTR ?current_flight_dynamics@@3PAUDYNAMICS_TYPE@@A ; current_flight_dynamics
  01412	0f 57 c0	 xorps	 xmm0, xmm0
  01415	f3 0f 11 80 c0
	23 00 00	 movss	 DWORD PTR [eax+9152], xmm0

; 545  : 
; 546  : 	current_flight_dynamics->fuel_weight.value = 1720.0;

  0141d	a1 00 00 00 00	 mov	 eax, DWORD PTR ?current_flight_dynamics@@3PAUDYNAMICS_TYPE@@A ; current_flight_dynamics
  01422	f3 0f 10 05 00
	00 00 00	 movss	 xmm0, DWORD PTR __real@44d70000
  0142a	f3 0f 11 80 a4
	24 00 00	 movss	 DWORD PTR [eax+9380], xmm0

; 547  : 	current_flight_dynamics->fuel_weight.min = 0.0;

  01432	a1 00 00 00 00	 mov	 eax, DWORD PTR ?current_flight_dynamics@@3PAUDYNAMICS_TYPE@@A ; current_flight_dynamics
  01437	0f 57 c0	 xorps	 xmm0, xmm0
  0143a	f3 0f 11 80 ac
	24 00 00	 movss	 DWORD PTR [eax+9388], xmm0

; 548  : 	current_flight_dynamics->fuel_weight.max = 1720.0;

  01442	a1 00 00 00 00	 mov	 eax, DWORD PTR ?current_flight_dynamics@@3PAUDYNAMICS_TYPE@@A ; current_flight_dynamics
  01447	f3 0f 10 05 00
	00 00 00	 movss	 xmm0, DWORD PTR __real@44d70000
  0144f	f3 0f 11 80 b0
	24 00 00	 movss	 DWORD PTR [eax+9392], xmm0

; 549  : 	current_flight_dynamics->fuel_weight.delta = 0.1720; // kg/s

  01457	a1 00 00 00 00	 mov	 eax, DWORD PTR ?current_flight_dynamics@@3PAUDYNAMICS_TYPE@@A ; current_flight_dynamics
  0145c	f3 0f 10 05 00
	00 00 00	 movss	 xmm0, DWORD PTR __real@3e3020c5
  01464	f3 0f 11 80 a8
	24 00 00	 movss	 DWORD PTR [eax+9384], xmm0

; 550  : 
; 551  : 	// cog
; 552  : 	// havoc at 	0.0, -0.2, -0.022
; 553  : 	// apache at 	0.0, -0.2, -0.012
; 554  : 
; 555  : 	centre_of_gravity.x = 0.00;

  0146c	0f 57 c0	 xorps	 xmm0, xmm0
  0146f	f3 0f 11 05 00
	00 00 00	 movss	 DWORD PTR ?centre_of_gravity@@3UVEC3D@@A, xmm0

; 556  : 	if (command_line_dynamics_flight_model == 2)

  01477	83 3d 00 00 00
	00 02		 cmp	 DWORD PTR ?command_line_dynamics_flight_model@@3HA, 2 ; command_line_dynamics_flight_model
  0147e	75 22		 jne	 SHORT $LN7@set_dynami

; 557  : 	{
; 558  : 		centre_of_gravity.y = -0.05;

  01480	f3 0f 10 05 00
	00 00 00	 movss	 xmm0, DWORD PTR __real@bd4ccccd
  01488	f3 0f 11 05 04
	00 00 00	 movss	 DWORD PTR ?centre_of_gravity@@3UVEC3D@@A+4, xmm0

; 559  : 		centre_of_gravity.z = -0.005;

  01490	f3 0f 10 05 00
	00 00 00	 movss	 xmm0, DWORD PTR __real@bba3d70a
  01498	f3 0f 11 05 08
	00 00 00	 movss	 DWORD PTR ?centre_of_gravity@@3UVEC3D@@A+8, xmm0

; 560  : 	}
; 561  : 	else

  014a0	eb 20		 jmp	 SHORT $LN8@set_dynami
$LN7@set_dynami:

; 562  : 	{
; 563  : 		centre_of_gravity.y = -0.2;

  014a2	f3 0f 10 05 00
	00 00 00	 movss	 xmm0, DWORD PTR __real@be4ccccd
  014aa	f3 0f 11 05 04
	00 00 00	 movss	 DWORD PTR ?centre_of_gravity@@3UVEC3D@@A+4, xmm0

; 564  : 		centre_of_gravity.z = -0.035;

  014b2	f3 0f 10 05 00
	00 00 00	 movss	 xmm0, DWORD PTR __real@bd0f5c29
  014ba	f3 0f 11 05 08
	00 00 00	 movss	 DWORD PTR ?centre_of_gravity@@3UVEC3D@@A+8, xmm0
$LN8@set_dynami:

; 565  : 	}
; 566  : 
; 567  : 	current_flight_dynamics->centre_of_gravity = centre_of_gravity;

  014c2	a1 00 00 00 00	 mov	 eax, DWORD PTR ?current_flight_dynamics@@3PAUDYNAMICS_TYPE@@A ; current_flight_dynamics
  014c7	05 24 1c 00 00	 add	 eax, 7204		; 00001c24H
  014cc	8b 0d 00 00 00
	00		 mov	 ecx, DWORD PTR ?centre_of_gravity@@3UVEC3D@@A
  014d2	89 08		 mov	 DWORD PTR [eax], ecx
  014d4	8b 15 04 00 00
	00		 mov	 edx, DWORD PTR ?centre_of_gravity@@3UVEC3D@@A+4
  014da	89 50 04	 mov	 DWORD PTR [eax+4], edx
  014dd	8b 0d 08 00 00
	00		 mov	 ecx, DWORD PTR ?centre_of_gravity@@3UVEC3D@@A+8
  014e3	89 48 08	 mov	 DWORD PTR [eax+8], ecx

; 568  : 
; 569  : 	// landing
; 570  : 	// havoc at 	1.0, 3.0, 7.0, 10.0
; 571  : 	// apache at 	0.75, 2.5, 6.0, 9.0
; 572  : 
; 573  : 	current_flight_dynamics->landing_quality.min = -1.0;

  014e6	a1 00 00 00 00	 mov	 eax, DWORD PTR ?current_flight_dynamics@@3PAUDYNAMICS_TYPE@@A ; current_flight_dynamics
  014eb	f3 0f 10 05 00
	00 00 00	 movss	 xmm0, DWORD PTR __real@bf800000
  014f3	f3 0f 11 80 a4
	23 00 00	 movss	 DWORD PTR [eax+9124], xmm0

; 574  : 	current_flight_dynamics->landing_quality.delta = -3.0;

  014fb	a1 00 00 00 00	 mov	 eax, DWORD PTR ?current_flight_dynamics@@3PAUDYNAMICS_TYPE@@A ; current_flight_dynamics
  01500	f3 0f 10 05 00
	00 00 00	 movss	 xmm0, DWORD PTR __real@c0400000
  01508	f3 0f 11 80 a0
	23 00 00	 movss	 DWORD PTR [eax+9120], xmm0

; 575  : 	current_flight_dynamics->landing_quality.value = -7.0;

  01510	a1 00 00 00 00	 mov	 eax, DWORD PTR ?current_flight_dynamics@@3PAUDYNAMICS_TYPE@@A ; current_flight_dynamics
  01515	f3 0f 10 05 00
	00 00 00	 movss	 xmm0, DWORD PTR __real@c0e00000
  0151d	f3 0f 11 80 9c
	23 00 00	 movss	 DWORD PTR [eax+9116], xmm0

; 576  : 	current_flight_dynamics->landing_quality.max = -10.0;

  01525	a1 00 00 00 00	 mov	 eax, DWORD PTR ?current_flight_dynamics@@3PAUDYNAMICS_TYPE@@A ; current_flight_dynamics
  0152a	f3 0f 10 05 00
	00 00 00	 movss	 xmm0, DWORD PTR __real@c1200000
  01532	f3 0f 11 80 a8
	23 00 00	 movss	 DWORD PTR [eax+9128], xmm0

; 577  : 
; 578  : 	// g force
; 579  : 
; 580  : 	current_flight_dynamics->g_force.value = 1.0;

  0153a	a1 00 00 00 00	 mov	 eax, DWORD PTR ?current_flight_dynamics@@3PAUDYNAMICS_TYPE@@A ; current_flight_dynamics
  0153f	f3 0f 10 05 00
	00 00 00	 movss	 xmm0, DWORD PTR __real@3f800000
  01547	f3 0f 11 80 5c
	24 00 00	 movss	 DWORD PTR [eax+9308], xmm0

; 581  : 
; 582  : 	//
; 583  : 	// debug to start with engine on.
; 584  : 	//
; 585  : 
; 586  : 	// havoc 1
; 587  : 	// apache -1
; 588  : 
; 589  : 	current_flight_dynamics->rotor_rotation_direction = 1.0;

  0154f	b8 01 00 00 00	 mov	 eax, 1
  01554	8b 0d 00 00 00
	00		 mov	 ecx, DWORD PTR ?current_flight_dynamics@@3PAUDYNAMICS_TYPE@@A ; current_flight_dynamics
  0155a	66 89 81 1c 25
	00 00		 mov	 WORD PTR [ecx+9500], ax

; 590  : 
; 591  : 	current_flight_dynamics->rotor_brake = TRUE;

  01561	a1 00 00 00 00	 mov	 eax, DWORD PTR ?current_flight_dynamics@@3PAUDYNAMICS_TYPE@@A ; current_flight_dynamics
  01566	8b 88 28 25 00
	00		 mov	 ecx, DWORD PTR [eax+9512]
  0156c	83 c9 20	 or	 ecx, 32			; 00000020H
  0156f	8b 15 00 00 00
	00		 mov	 edx, DWORD PTR ?current_flight_dynamics@@3PAUDYNAMICS_TYPE@@A ; current_flight_dynamics
  01575	89 8a 28 25 00
	00		 mov	 DWORD PTR [edx+9512], ecx

; 592  : 
; 593  : 	current_flight_dynamics->auto_hover = HOVER_HOLD_NONE;

  0157b	a1 00 00 00 00	 mov	 eax, DWORD PTR ?current_flight_dynamics@@3PAUDYNAMICS_TYPE@@A ; current_flight_dynamics
  01580	8b 88 28 25 00
	00		 mov	 ecx, DWORD PTR [eax+9512]
  01586	81 e1 7f fc ff
	ff		 and	 ecx, -897		; fffffc7fH
  0158c	8b 15 00 00 00
	00		 mov	 edx, DWORD PTR ?current_flight_dynamics@@3PAUDYNAMICS_TYPE@@A ; current_flight_dynamics
  01592	89 8a 28 25 00
	00		 mov	 DWORD PTR [edx+9512], ecx

; 594  : 
; 595  : 	current_flight_dynamics->wheel_brake = TRUE;

  01598	a1 00 00 00 00	 mov	 eax, DWORD PTR ?current_flight_dynamics@@3PAUDYNAMICS_TYPE@@A ; current_flight_dynamics
  0159d	8b 88 28 25 00
	00		 mov	 ecx, DWORD PTR [eax+9512]
  015a3	83 c9 40	 or	 ecx, 64			; 00000040H
  015a6	8b 15 00 00 00
	00		 mov	 edx, DWORD PTR ?current_flight_dynamics@@3PAUDYNAMICS_TYPE@@A ; current_flight_dynamics
  015ac	89 8a 28 25 00
	00		 mov	 DWORD PTR [edx+9512], ecx

; 596  : 
; 597  : 	//if (get_local_entity_int_value (en, INT_TYPE_OPERATIONAL_STATE) != OPERATIONAL_STATE_LANDED)
; 598  : 	{
; 599  : 
; 600  : 		float
; 601  : 			Mrpm,
; 602  : 			Md,
; 603  : 			Pmax,
; 604  : 			Tl;
; 605  : 
; 606  : 		current_flight_dynamics->rotor_brake = FALSE;

  015b2	a1 00 00 00 00	 mov	 eax, DWORD PTR ?current_flight_dynamics@@3PAUDYNAMICS_TYPE@@A ; current_flight_dynamics
  015b7	8b 88 28 25 00
	00		 mov	 ecx, DWORD PTR [eax+9512]
  015bd	83 e1 df	 and	 ecx, -33		; ffffffdfH
  015c0	8b 15 00 00 00
	00		 mov	 edx, DWORD PTR ?current_flight_dynamics@@3PAUDYNAMICS_TYPE@@A ; current_flight_dynamics
  015c6	89 8a 28 25 00
	00		 mov	 DWORD PTR [edx+9512], ecx

; 607  : 
; 608  : 		current_flight_dynamics->auto_hover = HOVER_HOLD_NONE;

  015cc	a1 00 00 00 00	 mov	 eax, DWORD PTR ?current_flight_dynamics@@3PAUDYNAMICS_TYPE@@A ; current_flight_dynamics
  015d1	8b 88 28 25 00
	00		 mov	 ecx, DWORD PTR [eax+9512]
  015d7	81 e1 7f fc ff
	ff		 and	 ecx, -897		; fffffc7fH
  015dd	8b 15 00 00 00
	00		 mov	 edx, DWORD PTR ?current_flight_dynamics@@3PAUDYNAMICS_TYPE@@A ; current_flight_dynamics
  015e3	89 8a 28 25 00
	00		 mov	 DWORD PTR [edx+9512], ecx

; 609  : 
; 610  : 		current_flight_dynamics->wheel_brake = FALSE;

  015e9	a1 00 00 00 00	 mov	 eax, DWORD PTR ?current_flight_dynamics@@3PAUDYNAMICS_TYPE@@A ; current_flight_dynamics
  015ee	8b 88 28 25 00
	00		 mov	 ecx, DWORD PTR [eax+9512]
  015f4	83 e1 bf	 and	 ecx, -65		; ffffffbfH
  015f7	8b 15 00 00 00
	00		 mov	 edx, DWORD PTR ?current_flight_dynamics@@3PAUDYNAMICS_TYPE@@A ; current_flight_dynamics
  015fd	89 8a 28 25 00
	00		 mov	 DWORD PTR [edx+9512], ecx

; 611  : 
; 612  : 		// cross coupling to match main rotor rpm
; 613  : 
; 614  : 		Mrpm = current_flight_dynamics->main_rotor_rpm.value;

  01603	a1 00 00 00 00	 mov	 eax, DWORD PTR ?current_flight_dynamics@@3PAUDYNAMICS_TYPE@@A ; current_flight_dynamics
  01608	f3 0f 10 80 14
	1e 00 00	 movss	 xmm0, DWORD PTR [eax+7700]
  01610	f3 0f 11 45 e8	 movss	 DWORD PTR _Mrpm$4[ebp], xmm0

; 615  : 
; 616  : 		Md = current_flight_dynamics->main_rotor_diameter.value;

  01615	a1 00 00 00 00	 mov	 eax, DWORD PTR ?current_flight_dynamics@@3PAUDYNAMICS_TYPE@@A ; current_flight_dynamics
  0161a	f3 0f 10 80 9c
	1d 00 00	 movss	 xmm0, DWORD PTR [eax+7580]
  01622	f3 0f 11 45 e4	 movss	 DWORD PTR _Md$3[ebp], xmm0

; 617  : 
; 618  : 		Pmax = current_flight_dynamics->tail_blade_pitch.max;

  01627	a1 00 00 00 00	 mov	 eax, DWORD PTR ?current_flight_dynamics@@3PAUDYNAMICS_TYPE@@A ; current_flight_dynamics
  0162c	f3 0f 10 80 a0
	1f 00 00	 movss	 xmm0, DWORD PTR [eax+8096]
  01634	f3 0f 11 45 e0	 movss	 DWORD PTR _Pmax$2[ebp], xmm0

; 619  : 
; 620  : 		Tl = current_flight_dynamics->tail_boom_length.value;

  01639	a1 00 00 00 00	 mov	 eax, DWORD PTR ?current_flight_dynamics@@3PAUDYNAMICS_TYPE@@A ; current_flight_dynamics
  0163e	f3 0f 10 80 ac
	1f 00 00	 movss	 xmm0, DWORD PTR [eax+8108]
  01646	f3 0f 11 45 dc	 movss	 DWORD PTR _Tl$1[ebp], xmm0

; 621  : 
; 622  : 		current_flight_dynamics->cross_coupling_effect.value = (((10 * PI * Mrpm * Md * Pmax) / (1649 * Tl))) / (Pmax);

  0164b	f3 0f 10 05 00
	00 00 00	 movss	 xmm0, DWORD PTR __real@41fb53d2
  01653	f3 0f 59 45 e8	 mulss	 xmm0, DWORD PTR _Mrpm$4[ebp]
  01658	f3 0f 59 45 e4	 mulss	 xmm0, DWORD PTR _Md$3[ebp]
  0165d	f3 0f 59 45 e0	 mulss	 xmm0, DWORD PTR _Pmax$2[ebp]
  01662	f3 0f 10 0d 00
	00 00 00	 movss	 xmm1, DWORD PTR __real@44ce2000
  0166a	f3 0f 59 4d dc	 mulss	 xmm1, DWORD PTR _Tl$1[ebp]
  0166f	f3 0f 5e c1	 divss	 xmm0, xmm1
  01673	f3 0f 5e 45 e0	 divss	 xmm0, DWORD PTR _Pmax$2[ebp]
  01678	a1 00 00 00 00	 mov	 eax, DWORD PTR ?current_flight_dynamics@@3PAUDYNAMICS_TYPE@@A ; current_flight_dynamics
  0167d	f3 0f 11 80 c4
	1f 00 00	 movss	 DWORD PTR [eax+8132], xmm0

; 623  : 	}
; 624  : 
; 625  : 	right_g_e_force = 0.0;

  01685	0f 57 c0	 xorps	 xmm0, xmm0
  01688	f3 0f 11 05 00
	00 00 00	 movss	 DWORD PTR ?right_g_e_force@@3MA, xmm0

; 626  : 	left_g_e_force = 0.0;

  01690	0f 57 c0	 xorps	 xmm0, xmm0
  01693	f3 0f 11 05 00
	00 00 00	 movss	 DWORD PTR ?left_g_e_force@@3MA, xmm0

; 627  : 	back_g_e_force = 0.0;

  0169b	0f 57 c0	 xorps	 xmm0, xmm0
  0169e	f3 0f 11 05 00
	00 00 00	 movss	 DWORD PTR ?back_g_e_force@@3MA, xmm0

; 628  : 	front_g_e_force = 0.0;

  016a6	0f 57 c0	 xorps	 xmm0, xmm0
  016a9	f3 0f 11 05 00
	00 00 00	 movss	 DWORD PTR ?front_g_e_force@@3MA, xmm0

; 629  : 	this_reaction_force = 0.0;

  016b1	0f 57 c0	 xorps	 xmm0, xmm0
  016b4	f3 0f 11 05 00
	00 00 00	 movss	 DWORD PTR ?this_reaction_force@@3MA, xmm0

; 630  : }

  016bc	5f		 pop	 edi
  016bd	5e		 pop	 esi
  016be	5b		 pop	 ebx
  016bf	8b e5		 mov	 esp, ebp
  016c1	5d		 pop	 ebp
  016c2	c2 04 00	 ret	 4
?set_dynamics_defaults@@YGXPAUENTITY@@@Z ENDP		; set_dynamics_defaults
_TEXT	ENDS
; Function compile flags: /Odtp /ZI
; File c:\program files (x86)\microsoft visual studio\2017\community\vc\tools\msvc\14.16.27023\include\cmath
;	COMDAT ?sin@@YGMM@Z
_TEXT	SEGMENT
__Xx$ = 8						; size = 4
?sin@@YGMM@Z PROC					; sin, COMDAT

; 284  : 	{

  00000	55		 push	 ebp
  00001	8b ec		 mov	 ebp, esp
  00003	83 ec 40	 sub	 esp, 64			; 00000040H
  00006	53		 push	 ebx
  00007	56		 push	 esi
  00008	57		 push	 edi

; 285  : 	return (_CSTD sinf(_Xx));

  00009	51		 push	 ecx
  0000a	f3 0f 10 45 08	 movss	 xmm0, DWORD PTR __Xx$[ebp]
  0000f	f3 0f 11 04 24	 movss	 DWORD PTR [esp], xmm0
  00014	e8 00 00 00 00	 call	 _sinf
  00019	83 c4 04	 add	 esp, 4

; 286  : 	}

  0001c	5f		 pop	 edi
  0001d	5e		 pop	 esi
  0001e	5b		 pop	 ebx
  0001f	8b e5		 mov	 esp, ebp
  00021	5d		 pop	 ebp
  00022	c2 04 00	 ret	 4
?sin@@YGMM@Z ENDP					; sin
_TEXT	ENDS
; Function compile flags: /Odtp /ZI
; File c:\program files (x86)\microsoft visual studio\2017\community\vc\tools\msvc\14.16.27023\include\cmath
;	COMDAT ?pow@@YGMMH@Z
_TEXT	SEGMENT
tv74 = -68						; size = 4
__Xx$ = 8						; size = 4
__Yx$ = 12						; size = 4
?pow@@YGMMH@Z PROC					; pow, COMDAT

; 245  : 	{

  00000	55		 push	 ebp
  00001	8b ec		 mov	 ebp, esp
  00003	83 ec 44	 sub	 esp, 68			; 00000044H
  00006	53		 push	 ebx
  00007	56		 push	 esi
  00008	57		 push	 edi

; 246  : 	if (_Yx == 2)

  00009	83 7d 0c 02	 cmp	 DWORD PTR __Yx$[ebp], 2
  0000d	75 14		 jne	 SHORT $LN2@pow

; 247  : 		return (_Xx * _Xx);

  0000f	f3 0f 10 45 08	 movss	 xmm0, DWORD PTR __Xx$[ebp]
  00014	f3 0f 59 45 08	 mulss	 xmm0, DWORD PTR __Xx$[ebp]
  00019	f3 0f 11 45 bc	 movss	 DWORD PTR tv74[ebp], xmm0
  0001e	d9 45 bc	 fld	 DWORD PTR tv74[ebp]
  00021	eb 1e		 jmp	 SHORT $LN1@pow
$LN2@pow:

; 248  : 
; 249  : 	return (_CSTD powf(_Xx, static_cast<float>(_Yx)));

  00023	f3 0f 2a 45 0c	 cvtsi2ss xmm0, DWORD PTR __Yx$[ebp]
  00028	51		 push	 ecx
  00029	f3 0f 11 04 24	 movss	 DWORD PTR [esp], xmm0
  0002e	51		 push	 ecx
  0002f	f3 0f 10 45 08	 movss	 xmm0, DWORD PTR __Xx$[ebp]
  00034	f3 0f 11 04 24	 movss	 DWORD PTR [esp], xmm0
  00039	e8 00 00 00 00	 call	 _powf
  0003e	83 c4 08	 add	 esp, 8
$LN1@pow:

; 250  : 	}

  00041	5f		 pop	 edi
  00042	5e		 pop	 esi
  00043	5b		 pop	 ebx
  00044	8b e5		 mov	 esp, ebp
  00046	5d		 pop	 ebp
  00047	c2 08 00	 ret	 8
?pow@@YGMMH@Z ENDP					; pow
_TEXT	ENDS
; Function compile flags: /Odtp /ZI
; File c:\program files (x86)\microsoft visual studio\2017\community\vc\tools\msvc\14.16.27023\include\cmath
;	COMDAT ?pow@@YGMMM@Z
_TEXT	SEGMENT
__Xx$ = 8						; size = 4
__Yx$ = 12						; size = 4
?pow@@YGMMM@Z PROC					; pow, COMDAT

; 240  : 	{

  00000	55		 push	 ebp
  00001	8b ec		 mov	 ebp, esp
  00003	83 ec 40	 sub	 esp, 64			; 00000040H
  00006	53		 push	 ebx
  00007	56		 push	 esi
  00008	57		 push	 edi

; 241  : 	return (_CSTD powf(_Xx, _Yx));

  00009	51		 push	 ecx
  0000a	f3 0f 10 45 0c	 movss	 xmm0, DWORD PTR __Yx$[ebp]
  0000f	f3 0f 11 04 24	 movss	 DWORD PTR [esp], xmm0
  00014	51		 push	 ecx
  00015	f3 0f 10 45 08	 movss	 xmm0, DWORD PTR __Xx$[ebp]
  0001a	f3 0f 11 04 24	 movss	 DWORD PTR [esp], xmm0
  0001f	e8 00 00 00 00	 call	 _powf
  00024	83 c4 08	 add	 esp, 8

; 242  : 	}

  00027	5f		 pop	 edi
  00028	5e		 pop	 esi
  00029	5b		 pop	 ebx
  0002a	8b e5		 mov	 esp, ebp
  0002c	5d		 pop	 ebp
  0002d	c2 08 00	 ret	 8
?pow@@YGMMM@Z ENDP					; pow
_TEXT	ENDS
; Function compile flags: /Odtp /ZI
; File c:\program files (x86)\microsoft visual studio\2017\community\vc\tools\msvc\14.16.27023\include\cmath
;	COMDAT ?fabs@@YGMM@Z
_TEXT	SEGMENT
__Xx$ = 8						; size = 4
?fabs@@YGMM@Z PROC					; fabs, COMDAT

; 112  : 	{

  00000	55		 push	 ebp
  00001	8b ec		 mov	 ebp, esp
  00003	83 ec 40	 sub	 esp, 64			; 00000040H
  00006	53		 push	 ebx
  00007	56		 push	 esi
  00008	57		 push	 edi

; 113  : 	return (_CSTD fabsf(_Xx));

  00009	51		 push	 ecx
  0000a	f3 0f 10 45 08	 movss	 xmm0, DWORD PTR __Xx$[ebp]
  0000f	f3 0f 11 04 24	 movss	 DWORD PTR [esp], xmm0
  00014	e8 00 00 00 00	 call	 _fabsf
  00019	83 c4 04	 add	 esp, 4

; 114  : 	}

  0001c	5f		 pop	 edi
  0001d	5e		 pop	 esi
  0001e	5b		 pop	 ebx
  0001f	8b e5		 mov	 esp, ebp
  00021	5d		 pop	 ebp
  00022	c2 04 00	 ret	 4
?fabs@@YGMM@Z ENDP					; fabs
_TEXT	ENDS
; Function compile flags: /Odtp /ZI
; File c:\program files (x86)\microsoft visual studio\2017\community\vc\tools\msvc\14.16.27023\include\cmath
;	COMDAT ?asin@@YGMM@Z
_TEXT	SEGMENT
__Xx$ = 8						; size = 4
?asin@@YGMM@Z PROC					; asin, COMDAT

; 36   : 	{

  00000	55		 push	 ebp
  00001	8b ec		 mov	 ebp, esp
  00003	83 ec 40	 sub	 esp, 64			; 00000040H
  00006	53		 push	 ebx
  00007	56		 push	 esi
  00008	57		 push	 edi

; 37   : 	return (_CSTD asinf(_Xx));

  00009	51		 push	 ecx
  0000a	f3 0f 10 45 08	 movss	 xmm0, DWORD PTR __Xx$[ebp]
  0000f	f3 0f 11 04 24	 movss	 DWORD PTR [esp], xmm0
  00014	e8 00 00 00 00	 call	 _asinf
  00019	83 c4 04	 add	 esp, 4

; 38   : 	}

  0001c	5f		 pop	 edi
  0001d	5e		 pop	 esi
  0001e	5b		 pop	 ebx
  0001f	8b e5		 mov	 esp, ebp
  00021	5d		 pop	 ebp
  00022	c2 04 00	 ret	 4
?asin@@YGMM@Z ENDP					; asin
_TEXT	ENDS
; Function compile flags: /Odtp /ZI
; File c:\program files (x86)\microsoft visual studio\2017\community\vc\tools\msvc\14.16.27023\include\cmath
;	COMDAT ?pow@@YGNNH@Z
_TEXT	SEGMENT
tv74 = -72						; size = 8
__Xx$ = 8						; size = 8
__Yx$ = 16						; size = 4
?pow@@YGNNH@Z PROC					; pow, COMDAT

; 18   : 	{

  00000	55		 push	 ebp
  00001	8b ec		 mov	 ebp, esp
  00003	83 ec 48	 sub	 esp, 72			; 00000048H
  00006	53		 push	 ebx
  00007	56		 push	 esi
  00008	57		 push	 edi

; 19   : 	if (_Yx == 2)

  00009	83 7d 10 02	 cmp	 DWORD PTR __Yx$[ebp], 2
  0000d	75 14		 jne	 SHORT $LN2@pow

; 20   : 		return (_Xx * _Xx);

  0000f	f2 0f 10 45 08	 movsd	 xmm0, QWORD PTR __Xx$[ebp]
  00014	f2 0f 59 45 08	 mulsd	 xmm0, QWORD PTR __Xx$[ebp]
  00019	f2 0f 11 45 b8	 movsd	 QWORD PTR tv74[ebp], xmm0
  0001e	dd 45 b8	 fld	 QWORD PTR tv74[ebp]
  00021	eb 22		 jmp	 SHORT $LN1@pow
$LN2@pow:

; 21   : 
; 22   : 	return (_CSTD pow(_Xx, static_cast<double>(_Yx)));

  00023	f2 0f 2a 45 10	 cvtsi2sd xmm0, DWORD PTR __Yx$[ebp]
  00028	83 ec 08	 sub	 esp, 8
  0002b	f2 0f 11 04 24	 movsd	 QWORD PTR [esp], xmm0
  00030	83 ec 08	 sub	 esp, 8
  00033	f2 0f 10 45 08	 movsd	 xmm0, QWORD PTR __Xx$[ebp]
  00038	f2 0f 11 04 24	 movsd	 QWORD PTR [esp], xmm0
  0003d	e8 00 00 00 00	 call	 _pow
  00042	83 c4 10	 add	 esp, 16			; 00000010H
$LN1@pow:

; 23   : 	}

  00045	5f		 pop	 edi
  00046	5e		 pop	 esi
  00047	5b		 pop	 ebx
  00048	8b e5		 mov	 esp, ebp
  0004a	5d		 pop	 ebp
  0004b	c2 0c 00	 ret	 12			; 0000000cH
?pow@@YGNNH@Z ENDP					; pow
_TEXT	ENDS
; Function compile flags: /Odtp /ZI
; File c:\program files (x86)\windows kits\10\include\10.0.18362.0\ucrt\corecrt_math.h
;	COMDAT _sinf
_TEXT	SEGMENT
tv71 = -68						; size = 4
__X$ = 8						; size = 4
_sinf	PROC						; COMDAT

; 749  :         {

  00000	55		 push	 ebp
  00001	8b ec		 mov	 ebp, esp
  00003	83 ec 44	 sub	 esp, 68			; 00000044H
  00006	53		 push	 ebx
  00007	56		 push	 esi
  00008	57		 push	 edi

; 750  :             return (float)sin(_X);

  00009	f3 0f 5a 45 08	 cvtss2sd xmm0, DWORD PTR __X$[ebp]
  0000e	83 ec 08	 sub	 esp, 8
  00011	f2 0f 11 04 24	 movsd	 QWORD PTR [esp], xmm0
  00016	e8 00 00 00 00	 call	 _sin
  0001b	83 c4 08	 add	 esp, 8
  0001e	d9 5d bc	 fstp	 DWORD PTR tv71[ebp]
  00021	d9 45 bc	 fld	 DWORD PTR tv71[ebp]

; 751  :         }

  00024	5f		 pop	 edi
  00025	5e		 pop	 esi
  00026	5b		 pop	 ebx
  00027	8b e5		 mov	 esp, ebp
  00029	5d		 pop	 ebp
  0002a	c3		 ret	 0
_sinf	ENDP
_TEXT	ENDS
; Function compile flags: /Odtp /ZI
; File c:\program files (x86)\windows kits\10\include\10.0.18362.0\ucrt\corecrt_math.h
;	COMDAT _powf
_TEXT	SEGMENT
tv74 = -68						; size = 4
__X$ = 8						; size = 4
__Y$ = 12						; size = 4
_powf	PROC						; COMDAT

; 744  :         {

  00000	55		 push	 ebp
  00001	8b ec		 mov	 ebp, esp
  00003	83 ec 44	 sub	 esp, 68			; 00000044H
  00006	53		 push	 ebx
  00007	56		 push	 esi
  00008	57		 push	 edi

; 745  :             return (float)pow(_X, _Y);

  00009	f3 0f 5a 45 0c	 cvtss2sd xmm0, DWORD PTR __Y$[ebp]
  0000e	83 ec 08	 sub	 esp, 8
  00011	f2 0f 11 04 24	 movsd	 QWORD PTR [esp], xmm0
  00016	f3 0f 5a 45 08	 cvtss2sd xmm0, DWORD PTR __X$[ebp]
  0001b	83 ec 08	 sub	 esp, 8
  0001e	f2 0f 11 04 24	 movsd	 QWORD PTR [esp], xmm0
  00023	e8 00 00 00 00	 call	 _pow
  00028	83 c4 10	 add	 esp, 16			; 00000010H
  0002b	d9 5d bc	 fstp	 DWORD PTR tv74[ebp]
  0002e	d9 45 bc	 fld	 DWORD PTR tv74[ebp]

; 746  :         }

  00031	5f		 pop	 edi
  00032	5e		 pop	 esi
  00033	5b		 pop	 ebx
  00034	8b e5		 mov	 esp, ebp
  00036	5d		 pop	 ebp
  00037	c3		 ret	 0
_powf	ENDP
_TEXT	ENDS
; Function compile flags: /Odtp /ZI
; File c:\program files (x86)\windows kits\10\include\10.0.18362.0\ucrt\corecrt_math.h
;	COMDAT _fabsf
_TEXT	SEGMENT
tv71 = -68						; size = 4
__X$ = 8						; size = 4
_fabsf	PROC						; COMDAT

; 671  :         {

  00000	55		 push	 ebp
  00001	8b ec		 mov	 ebp, esp
  00003	83 ec 44	 sub	 esp, 68			; 00000044H
  00006	53		 push	 ebx
  00007	56		 push	 esi
  00008	57		 push	 edi

; 672  :             return (float)fabs(_X);

  00009	f3 0f 5a 45 08	 cvtss2sd xmm0, DWORD PTR __X$[ebp]
  0000e	83 ec 08	 sub	 esp, 8
  00011	f2 0f 11 04 24	 movsd	 QWORD PTR [esp], xmm0
  00016	e8 00 00 00 00	 call	 _fabs
  0001b	83 c4 08	 add	 esp, 8
  0001e	d9 5d bc	 fstp	 DWORD PTR tv71[ebp]
  00021	d9 45 bc	 fld	 DWORD PTR tv71[ebp]

; 673  :         }

  00024	5f		 pop	 edi
  00025	5e		 pop	 esi
  00026	5b		 pop	 ebx
  00027	8b e5		 mov	 esp, ebp
  00029	5d		 pop	 ebp
  0002a	c3		 ret	 0
_fabsf	ENDP
_TEXT	ENDS
; Function compile flags: /Odtp /ZI
; File c:\program files (x86)\windows kits\10\include\10.0.18362.0\ucrt\corecrt_math.h
;	COMDAT _asinf
_TEXT	SEGMENT
tv71 = -68						; size = 4
__X$ = 8						; size = 4
_asinf	PROC						; COMDAT

; 628  :         {

  00000	55		 push	 ebp
  00001	8b ec		 mov	 ebp, esp
  00003	83 ec 44	 sub	 esp, 68			; 00000044H
  00006	53		 push	 ebx
  00007	56		 push	 esi
  00008	57		 push	 edi

; 629  :             return (float)asin(_X);

  00009	f3 0f 5a 45 08	 cvtss2sd xmm0, DWORD PTR __X$[ebp]
  0000e	83 ec 08	 sub	 esp, 8
  00011	f2 0f 11 04 24	 movsd	 QWORD PTR [esp], xmm0
  00016	e8 00 00 00 00	 call	 _asin
  0001b	83 c4 08	 add	 esp, 8
  0001e	d9 5d bc	 fstp	 DWORD PTR tv71[ebp]
  00021	d9 45 bc	 fld	 DWORD PTR tv71[ebp]

; 630  :         }

  00024	5f		 pop	 edi
  00025	5e		 pop	 esi
  00026	5b		 pop	 ebx
  00027	8b e5		 mov	 esp, ebp
  00029	5d		 pop	 ebp
  0002a	c3		 ret	 0
_asinf	ENDP
_TEXT	ENDS
; Function compile flags: /Odtp /ZI
; File c:\program files (x86)\windows kits\10\include\10.0.18362.0\ucrt\stdio.h
;	COMDAT _sprintf
_TEXT	SEGMENT
__ArgList$ = -8						; size = 4
__Result$ = -4						; size = 4
__Buffer$ = 8						; size = 4
__Format$ = 12						; size = 4
_sprintf PROC						; COMDAT

; 1781 :     {

  00000	55		 push	 ebp
  00001	8b ec		 mov	 ebp, esp
  00003	83 ec 4c	 sub	 esp, 76			; 0000004cH
  00006	53		 push	 ebx
  00007	56		 push	 esi
  00008	57		 push	 edi

; 1782 :         int _Result;
; 1783 :         va_list _ArgList;
; 1784 :         __crt_va_start(_ArgList, _Format);

  00009	8d 45 10	 lea	 eax, DWORD PTR __Format$[ebp+4]
  0000c	89 45 f8	 mov	 DWORD PTR __ArgList$[ebp], eax

; 1785 : 
; 1786 :         #pragma warning(push)
; 1787 :         #pragma warning(disable: 4996) // Deprecation
; 1788 :         _Result = _vsprintf_l(_Buffer, _Format, NULL, _ArgList);

  0000f	8b 45 f8	 mov	 eax, DWORD PTR __ArgList$[ebp]
  00012	50		 push	 eax
  00013	6a 00		 push	 0
  00015	8b 4d 0c	 mov	 ecx, DWORD PTR __Format$[ebp]
  00018	51		 push	 ecx
  00019	8b 55 08	 mov	 edx, DWORD PTR __Buffer$[ebp]
  0001c	52		 push	 edx
  0001d	e8 00 00 00 00	 call	 __vsprintf_l
  00022	83 c4 10	 add	 esp, 16			; 00000010H
  00025	89 45 fc	 mov	 DWORD PTR __Result$[ebp], eax

; 1789 :         #pragma warning(pop)
; 1790 : 
; 1791 :         __crt_va_end(_ArgList);

  00028	c7 45 f8 00 00
	00 00		 mov	 DWORD PTR __ArgList$[ebp], 0

; 1792 :         return _Result;

  0002f	8b 45 fc	 mov	 eax, DWORD PTR __Result$[ebp]

; 1793 :     }

  00032	5f		 pop	 edi
  00033	5e		 pop	 esi
  00034	5b		 pop	 ebx
  00035	8b e5		 mov	 esp, ebp
  00037	5d		 pop	 ebp
  00038	c3		 ret	 0
_sprintf ENDP
_TEXT	ENDS
; Function compile flags: /Odtp /ZI
; File c:\program files (x86)\windows kits\10\include\10.0.18362.0\ucrt\stdio.h
;	COMDAT __vsprintf_l
_TEXT	SEGMENT
__Buffer$ = 8						; size = 4
__Format$ = 12						; size = 4
__Locale$ = 16						; size = 4
__ArgList$ = 20						; size = 4
__vsprintf_l PROC					; COMDAT

; 1459 :     {

  00000	55		 push	 ebp
  00001	8b ec		 mov	 ebp, esp
  00003	83 ec 40	 sub	 esp, 64			; 00000040H
  00006	53		 push	 ebx
  00007	56		 push	 esi
  00008	57		 push	 edi

; 1460 :         #pragma warning(push)
; 1461 :         #pragma warning(disable: 4996) // Deprecation
; 1462 :         return _vsnprintf_l(_Buffer, (size_t)-1, _Format, _Locale, _ArgList);

  00009	8b 45 14	 mov	 eax, DWORD PTR __ArgList$[ebp]
  0000c	50		 push	 eax
  0000d	8b 4d 10	 mov	 ecx, DWORD PTR __Locale$[ebp]
  00010	51		 push	 ecx
  00011	8b 55 0c	 mov	 edx, DWORD PTR __Format$[ebp]
  00014	52		 push	 edx
  00015	6a ff		 push	 -1
  00017	8b 45 08	 mov	 eax, DWORD PTR __Buffer$[ebp]
  0001a	50		 push	 eax
  0001b	e8 00 00 00 00	 call	 __vsnprintf_l
  00020	83 c4 14	 add	 esp, 20			; 00000014H

; 1463 :         #pragma warning(pop)
; 1464 :     }

  00023	5f		 pop	 edi
  00024	5e		 pop	 esi
  00025	5b		 pop	 ebx
  00026	8b e5		 mov	 esp, ebp
  00028	5d		 pop	 ebp
  00029	c3		 ret	 0
__vsprintf_l ENDP
_TEXT	ENDS
; Function compile flags: /Odtp /ZI
; File c:\program files (x86)\windows kits\10\include\10.0.18362.0\ucrt\stdio.h
;	COMDAT __vsnprintf_l
_TEXT	SEGMENT
tv74 = -72						; size = 4
__Result$ = -4						; size = 4
__Buffer$ = 8						; size = 4
__BufferCount$ = 12					; size = 4
__Format$ = 16						; size = 4
__Locale$ = 20						; size = 4
__ArgList$ = 24						; size = 4
__vsnprintf_l PROC					; COMDAT

; 1389 :     {

  00000	55		 push	 ebp
  00001	8b ec		 mov	 ebp, esp
  00003	83 ec 48	 sub	 esp, 72			; 00000048H
  00006	53		 push	 ebx
  00007	56		 push	 esi
  00008	57		 push	 edi

; 1390 :         int const _Result = __stdio_common_vsprintf(

  00009	8b 45 18	 mov	 eax, DWORD PTR __ArgList$[ebp]
  0000c	50		 push	 eax
  0000d	8b 4d 14	 mov	 ecx, DWORD PTR __Locale$[ebp]
  00010	51		 push	 ecx
  00011	8b 55 10	 mov	 edx, DWORD PTR __Format$[ebp]
  00014	52		 push	 edx
  00015	8b 45 0c	 mov	 eax, DWORD PTR __BufferCount$[ebp]
  00018	50		 push	 eax
  00019	8b 4d 08	 mov	 ecx, DWORD PTR __Buffer$[ebp]
  0001c	51		 push	 ecx
  0001d	e8 00 00 00 00	 call	 ___local_stdio_printf_options
  00022	8b 10		 mov	 edx, DWORD PTR [eax]
  00024	83 ca 01	 or	 edx, 1
  00027	8b 40 04	 mov	 eax, DWORD PTR [eax+4]
  0002a	50		 push	 eax
  0002b	52		 push	 edx
  0002c	ff 15 00 00 00
	00		 call	 DWORD PTR __imp____stdio_common_vsprintf
  00032	83 c4 1c	 add	 esp, 28			; 0000001cH
  00035	89 45 fc	 mov	 DWORD PTR __Result$[ebp], eax

; 1391 :             _CRT_INTERNAL_LOCAL_PRINTF_OPTIONS | _CRT_INTERNAL_PRINTF_LEGACY_VSPRINTF_NULL_TERMINATION,
; 1392 :             _Buffer, _BufferCount, _Format, _Locale, _ArgList);
; 1393 : 
; 1394 :         return _Result < 0 ? -1 : _Result;

  00038	83 7d fc 00	 cmp	 DWORD PTR __Result$[ebp], 0
  0003c	7d 09		 jge	 SHORT $LN3@vsnprintf_
  0003e	c7 45 b8 ff ff
	ff ff		 mov	 DWORD PTR tv74[ebp], -1
  00045	eb 06		 jmp	 SHORT $LN4@vsnprintf_
$LN3@vsnprintf_:
  00047	8b 45 fc	 mov	 eax, DWORD PTR __Result$[ebp]
  0004a	89 45 b8	 mov	 DWORD PTR tv74[ebp], eax
$LN4@vsnprintf_:
  0004d	8b 45 b8	 mov	 eax, DWORD PTR tv74[ebp]

; 1395 :     }

  00050	5f		 pop	 edi
  00051	5e		 pop	 esi
  00052	5b		 pop	 ebx
  00053	8b e5		 mov	 esp, ebp
  00055	5d		 pop	 ebp
  00056	c3		 ret	 0
__vsnprintf_l ENDP
_TEXT	ENDS
; Function compile flags: /Odtp /ZI
; File c:\program files (x86)\windows kits\10\include\10.0.18362.0\ucrt\corecrt_stdio_config.h
;	COMDAT ___local_stdio_printf_options
_TEXT	SEGMENT
___local_stdio_printf_options PROC			; COMDAT

; 86   :     {

  00000	55		 push	 ebp
  00001	8b ec		 mov	 ebp, esp
  00003	83 ec 40	 sub	 esp, 64			; 00000040H
  00006	53		 push	 ebx
  00007	56		 push	 esi
  00008	57		 push	 edi

; 87   :         static unsigned __int64 _OptionsStorage;
; 88   :         return &_OptionsStorage;

  00009	b8 00 00 00 00	 mov	 eax, OFFSET ?_OptionsStorage@?1??__local_stdio_printf_options@@9@4_KA ; `__local_stdio_printf_options'::`2'::_OptionsStorage

; 89   :     }

  0000e	5f		 pop	 edi
  0000f	5e		 pop	 esi
  00010	5b		 pop	 ebx
  00011	8b e5		 mov	 esp, ebp
  00013	5d		 pop	 ebp
  00014	c3		 ret	 0
___local_stdio_printf_options ENDP
_TEXT	ENDS
END
