; Listing generated by Microsoft (R) Optimizing Compiler Version 19.16.27045.0 

	TITLE	C:\Users\nhv90\Projects\eech\aphavoc\source\gunships\avionics\hind\hi_tgt.c
	.686P
	.XMM
	include listing.inc
	.model	flat

INCLUDELIB MSVCRTD
INCLUDELIB OLDNAMES

PUBLIC	?initialise_hind_target_acquisition_systems@@YGXXZ ; initialise_hind_target_acquisition_systems
PUBLIC	?deinitialise_hind_target_acquisition_systems@@YGXXZ ; deinitialise_hind_target_acquisition_systems
PUBLIC	?select_hind_target_acquisition_system@@YGXW4TARGET_ACQUISITION_SYSTEMS@@@Z ; select_hind_target_acquisition_system
PUBLIC	?update_hind_target_acquisition_system@@YGXXZ	; update_hind_target_acquisition_system
PUBLIC	?centre_hind_target_acquisition_system@@YGXXZ	; centre_hind_target_acquisition_system
PUBLIC	?toggle_hind_show_allied_targets@@YGXXZ		; toggle_hind_show_allied_targets
PUBLIC	?toggle_hind_auto_target@@YGXXZ			; toggle_hind_auto_target
PUBLIC	?toggle_hind_lock_target@@YGXXZ			; toggle_hind_lock_target
PUBLIC	?set_hind_lock_target@@YGXH@Z			; set_hind_lock_target
PUBLIC	?hind_target_acquisition_system_misc_function1@@YGXXZ ; hind_target_acquisition_system_misc_function1
PUBLIC	?hind_target_acquisition_system_misc_function2@@YGXXZ ; hind_target_acquisition_system_misc_function2
PUBLIC	??_C@_0CH@DDKDNBNH@Invalid?5target?5acquisition?5syst@ ; `string'
PUBLIC	?__LINE__Var@?0??update_hind_target_acquisition_system@@YGXXZ@4JA ; `update_hind_target_acquisition_system'::`1'::__LINE__Var
PUBLIC	??_C@_0EM@GAHLBDJG@c?3?2users?2nhv90?2projects?2eech?2ap@ ; `string'
EXTRN	?process_assert@@YGXPBD0H@Z:PROC		; process_assert
EXTRN	?debug_fatal@@YAXPBDZZ:PROC			; debug_fatal
EXTRN	?query_TIR_active@@YAHXZ:PROC			; query_TIR_active
EXTRN	?set_view_mode@@YGHW4VIEW_MODES@@@Z:PROC	; set_view_mode
EXTRN	?select_padlock_view_event@@YGXW4PADLOCK_MODES@@@Z:PROC ; select_padlock_view_event
EXTRN	?reset_common_target_acquisition_system_keys@@YGXXZ:PROC ; reset_common_target_acquisition_system_keys
EXTRN	?set_gunship_target@@YGXPAUENTITY@@@Z:PROC	; set_gunship_target
EXTRN	?play_common_cpg_target_acquisition_system_speech@@YGXW4TARGET_ACQUISITION_SYSTEMS@@0H@Z:PROC ; play_common_cpg_target_acquisition_system_speech
EXTRN	?update_common_eo@@YGXXZ:PROC			; update_common_eo
EXTRN	?activate_common_eo@@YGXXZ:PROC			; activate_common_eo
EXTRN	?deactivate_common_eo@@YGXXZ:PROC		; deactivate_common_eo
EXTRN	?slave_common_eo_to_current_target@@YGXXZ:PROC	; slave_common_eo_to_current_target
EXTRN	?laser_is_active@@YGHXZ:PROC			; laser_is_active
EXTRN	?set_laser_is_active@@YGXH@Z:PROC		; set_laser_is_active
EXTRN	?toggle_eo_lock@@YGXXZ:PROC			; toggle_eo_lock
EXTRN	?set_eo_lock@@YGXH@Z:PROC			; set_eo_lock
EXTRN	?activate_common_hms@@YGXXZ:PROC		; activate_common_hms
EXTRN	?deactivate_common_hms@@YGXXZ:PROC		; deactivate_common_hms
EXTRN	?deactivate_common_ground_radar@@YGXXZ:PROC	; deactivate_common_ground_radar
EXTRN	?deactivate_common_air_radar@@YGXXZ:PROC	; deactivate_common_air_radar
EXTRN	?update_weapon_lock_type@@YGXW4TARGET_ACQUISITION_SYSTEMS@@@Z:PROC ; update_weapon_lock_type
EXTRN	?initialise_hind_eo@@YGXXZ:PROC			; initialise_hind_eo
EXTRN	?deinitialise_hind_eo@@YGXXZ:PROC		; deinitialise_hind_eo
EXTRN	?update_hind_eo@@YGXPAUEO_PARAMS@@@Z:PROC	; update_hind_eo
EXTRN	?centre_hind_eo@@YGXXZ:PROC			; centre_hind_eo
EXTRN	?initialise_hind_hms@@YGXXZ:PROC		; initialise_hind_hms
EXTRN	?deinitialise_hind_hms@@YGXXZ:PROC		; deinitialise_hind_hms
EXTRN	?initialise_hind_radar@@YGXXZ:PROC		; initialise_hind_radar
EXTRN	?deinitialise_hind_radar@@YGXXZ:PROC		; deinitialise_hind_radar
EXTRN	?centre_hind_ground_radar@@YGXXZ:PROC		; centre_hind_ground_radar
EXTRN	?centre_hind_air_radar@@YGXXZ:PROC		; centre_hind_air_radar
EXTRN	?command_line_manual_laser_radar@@3HA:DWORD	; command_line_manual_laser_radar
EXTRN	?null_entity_pointer_message@@3PBDB:DWORD	; null_entity_pointer_message
EXTRN	?system_comms_model@@3W4COMMS_MODEL_TYPES@@A:DWORD ; system_comms_model
EXTRN	?overload_invalid_list_type_message@@3PBDB:DWORD ; overload_invalid_list_type_message
EXTRN	?fn_get_local_entity_parent@@3PAY0CN@P6GPAUENTITY@@PAU1@W4LIST_TYPES@@@ZA:BYTE ; fn_get_local_entity_parent
EXTRN	?overload_invalid_int_type_message@@3PBDB:DWORD	; overload_invalid_int_type_message
EXTRN	?fn_set_client_server_entity_int_value@@3PAY1BBH@1P6GXPAUENTITY@@W4INT_TYPES@@H@ZA:BYTE ; fn_set_client_server_entity_int_value
EXTRN	?fn_get_local_entity_int_value@@3PAY0BBH@P6GHPAUENTITY@@W4INT_TYPES@@@ZA:BYTE ; fn_get_local_entity_int_value
EXTRN	?gunship_entity@@3PAUENTITY@@A:DWORD		; gunship_entity
EXTRN	?view_mode@@3W4VIEW_MODES@@A:DWORD		; view_mode
EXTRN	?in_cockpit@@3HA:DWORD				; in_cockpit
EXTRN	?target_acquisition_system@@3W4TARGET_ACQUISITION_SYSTEMS@@A:DWORD ; target_acquisition_system
EXTRN	?target_locked@@3HA:DWORD			; target_locked
EXTRN	?hms_target_locked@@3HA:DWORD			; hms_target_locked
EXTRN	?hud_mode@@3W4HUD_MODES@@A:DWORD		; hud_mode
EXTRN	?ground_radar@@3URADAR_PARAMS@@A:BYTE		; ground_radar
EXTRN	?air_radar@@3URADAR_PARAMS@@A:BYTE		; air_radar
EXTRN	?hind_damage@@3THIND_DAMAGE_FLAGS@@A:DWORD	; hind_damage
EXTRN	?hind_flir@@3UEO_PARAMS@@A:BYTE			; hind_flir
EXTRN	?hind_llltv@@3UEO_PARAMS@@A:BYTE		; hind_llltv
;	COMDAT ??_C@_0EM@GAHLBDJG@c?3?2users?2nhv90?2projects?2eech?2ap@
CONST	SEGMENT
??_C@_0EM@GAHLBDJG@c?3?2users?2nhv90?2projects?2eech?2ap@ DB 'c:\users\nh'
	DB	'v90\projects\eech\aphavoc\source\gunships\avionics\hind\hi_tg'
	DB	't.c', 00H					; `string'
CONST	ENDS
;	COMDAT ?__LINE__Var@?0??update_hind_target_acquisition_system@@YGXXZ@4JA
_DATA	SEGMENT
?__LINE__Var@?0??update_hind_target_acquisition_system@@YGXXZ@4JA DD 0127H ; `update_hind_target_acquisition_system'::`1'::__LINE__Var
_DATA	ENDS
;	COMDAT ??_C@_0CH@DDKDNBNH@Invalid?5target?5acquisition?5syst@
CONST	SEGMENT
??_C@_0CH@DDKDNBNH@Invalid?5target?5acquisition?5syst@ DB 'Invalid target'
	DB	' acquisition system = %d', 00H		; `string'
CONST	ENDS
; Function compile flags: /Odtp /ZI
; File c:\users\nhv90\projects\eech\aphavoc\source\gunships\avionics\hind\hi_tgt.c
;	COMDAT ?deselect_hind_target_acquisition_system@@YGXW4TARGET_ACQUISITION_SYSTEMS@@@Z
_TEXT	SEGMENT
tv64 = -68						; size = 4
_system$ = 8						; size = 4
?deselect_hind_target_acquisition_system@@YGXW4TARGET_ACQUISITION_SYSTEMS@@@Z PROC ; deselect_hind_target_acquisition_system, COMDAT

; 106  : {

  00000	55		 push	 ebp
  00001	8b ec		 mov	 ebp, esp
  00003	83 ec 44	 sub	 esp, 68			; 00000044H
  00006	53		 push	 ebx
  00007	56		 push	 esi
  00008	57		 push	 edi

; 107  : 	switch (system)

  00009	8b 45 08	 mov	 eax, DWORD PTR _system$[ebp]
  0000c	89 45 bc	 mov	 DWORD PTR tv64[ebp], eax
  0000f	83 7d bc 0a	 cmp	 DWORD PTR tv64[ebp], 10	; 0000000aH
  00013	77 3f		 ja	 SHORT $LN11@deselect_h
  00015	8b 4d bc	 mov	 ecx, DWORD PTR tv64[ebp]
  00018	ff 24 8d 00 00
	00 00		 jmp	 DWORD PTR $LN13@deselect_h[ecx*4]
$LN4@deselect_h:

; 108  : 	{
; 109  : 		////////////////////////////////////////
; 110  : 		case TARGET_ACQUISITION_SYSTEM_OFF:
; 111  : 		////////////////////////////////////////
; 112  : 		{
; 113  : 			// laser is on in all modes but OFF in automatic mode
; 114  : 			if (!command_line_manual_laser_radar)

  0001f	83 3d 00 00 00
	00 00		 cmp	 DWORD PTR ?command_line_manual_laser_radar@@3HA, 0 ; command_line_manual_laser_radar
  00026	75 07		 jne	 SHORT $LN5@deselect_h

; 115  : 				set_laser_is_active(TRUE);

  00028	6a 01		 push	 1
  0002a	e8 00 00 00 00	 call	 ?set_laser_is_active@@YGXH@Z ; set_laser_is_active
$LN5@deselect_h:

; 116  : 
; 117  : 			break;

  0002f	eb 34		 jmp	 SHORT $LN1@deselect_h
$LN6@deselect_h:

; 118  : 		}
; 119  : 		////////////////////////////////////////
; 120  : 		case TARGET_ACQUISITION_SYSTEM_GROUND_RADAR:
; 121  : 		////////////////////////////////////////
; 122  : 		{
; 123  : 			deactivate_common_ground_radar ();

  00031	e8 00 00 00 00	 call	 ?deactivate_common_ground_radar@@YGXXZ ; deactivate_common_ground_radar

; 124  : 
; 125  : 			break;

  00036	eb 2d		 jmp	 SHORT $LN1@deselect_h
$LN7@deselect_h:

; 126  : 		}
; 127  : 		////////////////////////////////////////
; 128  : 		case TARGET_ACQUISITION_SYSTEM_AIR_RADAR:
; 129  : 		////////////////////////////////////////
; 130  : 		{
; 131  : 			deactivate_common_air_radar ();

  00038	e8 00 00 00 00	 call	 ?deactivate_common_air_radar@@YGXXZ ; deactivate_common_air_radar

; 132  : 
; 133  : 			break;

  0003d	eb 26		 jmp	 SHORT $LN1@deselect_h
$LN8@deselect_h:

; 134  : 		}
; 135  : 		////////////////////////////////////////
; 136  : 		case TARGET_ACQUISITION_SYSTEM_FLIR:
; 137  : 		////////////////////////////////////////
; 138  : 		{
; 139  : 			deactivate_common_eo ();

  0003f	e8 00 00 00 00	 call	 ?deactivate_common_eo@@YGXXZ ; deactivate_common_eo

; 140  : 
; 141  : 			break;

  00044	eb 1f		 jmp	 SHORT $LN1@deselect_h
$LN9@deselect_h:

; 142  : 		}
; 143  : 		////////////////////////////////////////
; 144  : 		case TARGET_ACQUISITION_SYSTEM_LLLTV:
; 145  : 		////////////////////////////////////////
; 146  : 		{
; 147  : 			deactivate_common_eo ();

  00046	e8 00 00 00 00	 call	 ?deactivate_common_eo@@YGXXZ ; deactivate_common_eo

; 148  : 
; 149  : 			break;

  0004b	eb 18		 jmp	 SHORT $LN1@deselect_h
$LN10@deselect_h:

; 150  : 		}
; 151  : 		////////////////////////////////////////
; 152  : 		case TARGET_ACQUISITION_SYSTEM_HMS:
; 153  : 		////////////////////////////////////////
; 154  : 		{
; 155  : 			deactivate_common_hms ();

  0004d	e8 00 00 00 00	 call	 ?deactivate_common_hms@@YGXXZ ; deactivate_common_hms

; 156  : 
; 157  : 			break;

  00052	eb 11		 jmp	 SHORT $LN1@deselect_h
$LN11@deselect_h:

; 158  : 		}
; 159  : 		////////////////////////////////////////
; 160  : 		default:
; 161  : 		////////////////////////////////////////
; 162  : 		{
; 163  : 			debug_fatal ("Invalid target acquisition system = %d", system);

  00054	8b 45 08	 mov	 eax, DWORD PTR _system$[ebp]
  00057	50		 push	 eax
  00058	68 00 00 00 00	 push	 OFFSET ??_C@_0CH@DDKDNBNH@Invalid?5target?5acquisition?5syst@
  0005d	e8 00 00 00 00	 call	 ?debug_fatal@@YAXPBDZZ	; debug_fatal
  00062	83 c4 08	 add	 esp, 8
$LN1@deselect_h:

; 164  : 
; 165  : 			break;
; 166  : 		}
; 167  : 	}
; 168  : }

  00065	5f		 pop	 edi
  00066	5e		 pop	 esi
  00067	5b		 pop	 ebx
  00068	8b e5		 mov	 esp, ebp
  0006a	5d		 pop	 ebp
  0006b	c2 04 00	 ret	 4
  0006e	66 90		 npad	 2
$LN13@deselect_h:
  00070	00 00 00 00	 DD	 $LN4@deselect_h
  00074	00 00 00 00	 DD	 $LN6@deselect_h
  00078	00 00 00 00	 DD	 $LN7@deselect_h
  0007c	00 00 00 00	 DD	 $LN8@deselect_h
  00080	00 00 00 00	 DD	 $LN11@deselect_h
  00084	00 00 00 00	 DD	 $LN11@deselect_h
  00088	00 00 00 00	 DD	 $LN9@deselect_h
  0008c	00 00 00 00	 DD	 $LN11@deselect_h
  00090	00 00 00 00	 DD	 $LN11@deselect_h
  00094	00 00 00 00	 DD	 $LN11@deselect_h
  00098	00 00 00 00	 DD	 $LN10@deselect_h
?deselect_hind_target_acquisition_system@@YGXW4TARGET_ACQUISITION_SYSTEMS@@@Z ENDP ; deselect_hind_target_acquisition_system
_TEXT	ENDS
; Function compile flags: /Odtp /ZI
; File c:\users\nhv90\projects\eech\aphavoc\source\gunships\avionics\hind\hi_tgt.c
;	COMDAT ?hind_target_acquisition_system_misc_function2@@YGXXZ
_TEXT	SEGMENT
tv64 = -68						; size = 4
?hind_target_acquisition_system_misc_function2@@YGXXZ PROC ; hind_target_acquisition_system_misc_function2, COMDAT

; 825  : {

  00000	55		 push	 ebp
  00001	8b ec		 mov	 ebp, esp
  00003	83 ec 44	 sub	 esp, 68			; 00000044H
  00006	53		 push	 ebx
  00007	56		 push	 esi
  00008	57		 push	 edi

; 826  : 	switch (target_acquisition_system)

  00009	a1 00 00 00 00	 mov	 eax, DWORD PTR ?target_acquisition_system@@3W4TARGET_ACQUISITION_SYSTEMS@@A ; target_acquisition_system
  0000e	89 45 bc	 mov	 DWORD PTR tv64[ebp], eax
  00011	83 7d bc 01	 cmp	 DWORD PTR tv64[ebp], 1
  00015	74 0a		 je	 SHORT $LN5@hind_targe
  00017	83 7d bc 02	 cmp	 DWORD PTR tv64[ebp], 2
  0001b	74 19		 je	 SHORT $LN7@hind_targe
  0001d	eb 2a		 jmp	 SHORT $LN1@hind_targe

; 827  : 	{
; 828  : 		////////////////////////////////////////
; 829  : 		case TARGET_ACQUISITION_SYSTEM_OFF:
; 830  : 		////////////////////////////////////////
; 831  : 		{
; 832  : 			break;

  0001f	eb 28		 jmp	 SHORT $LN1@hind_targe
$LN5@hind_targe:

; 833  : 		}
; 834  : 		////////////////////////////////////////
; 835  : 		case TARGET_ACQUISITION_SYSTEM_GROUND_RADAR:
; 836  : 		////////////////////////////////////////
; 837  : 		{
; 838  : 			if (ground_radar.sweep_mode == RADAR_SWEEP_MODE_SINGLE_INACTIVE)

  00021	83 3d 28 00 00
	00 01		 cmp	 DWORD PTR ?ground_radar@@3URADAR_PARAMS@@A+40, 1
  00028	75 0a		 jne	 SHORT $LN6@hind_targe

; 839  : 			{
; 840  : 				ground_radar.sweep_mode = RADAR_SWEEP_MODE_SINGLE_ACTIVE;

  0002a	c7 05 28 00 00
	00 02 00 00 00	 mov	 DWORD PTR ?ground_radar@@3URADAR_PARAMS@@A+40, 2
$LN6@hind_targe:

; 841  : 			}
; 842  : 
; 843  : 			break;

  00034	eb 13		 jmp	 SHORT $LN1@hind_targe
$LN7@hind_targe:

; 844  : 		}
; 845  : 		////////////////////////////////////////
; 846  : 		case TARGET_ACQUISITION_SYSTEM_AIR_RADAR:
; 847  : 		////////////////////////////////////////
; 848  : 		{
; 849  : 			if (air_radar.sweep_mode == RADAR_SWEEP_MODE_SINGLE_INACTIVE)

  00036	83 3d 28 00 00
	00 01		 cmp	 DWORD PTR ?air_radar@@3URADAR_PARAMS@@A+40, 1
  0003d	75 0a		 jne	 SHORT $LN1@hind_targe

; 850  : 			{
; 851  : 				air_radar.sweep_mode = RADAR_SWEEP_MODE_SINGLE_ACTIVE;

  0003f	c7 05 28 00 00
	00 02 00 00 00	 mov	 DWORD PTR ?air_radar@@3URADAR_PARAMS@@A+40, 2
$LN1@hind_targe:

; 852  : 			}
; 853  : 
; 854  : 			break;
; 855  : 		}
; 856  : 		////////////////////////////////////////
; 857  : 		case TARGET_ACQUISITION_SYSTEM_FLIR:
; 858  : 		////////////////////////////////////////
; 859  : 		{
; 860  : 			break;
; 861  : 		}
; 862  : 		////////////////////////////////////////
; 863  : 		case TARGET_ACQUISITION_SYSTEM_LLLTV:
; 864  : 		////////////////////////////////////////
; 865  : 		{
; 866  : 			break;
; 867  : 		}
; 868  : 		////////////////////////////////////////
; 869  : 		case TARGET_ACQUISITION_SYSTEM_HMS:
; 870  : 		////////////////////////////////////////
; 871  : 		{
; 872  : 			break;
; 873  : 		}
; 874  : 	}
; 875  : }

  00049	5f		 pop	 edi
  0004a	5e		 pop	 esi
  0004b	5b		 pop	 ebx
  0004c	8b e5		 mov	 esp, ebp
  0004e	5d		 pop	 ebp
  0004f	c3		 ret	 0
?hind_target_acquisition_system_misc_function2@@YGXXZ ENDP ; hind_target_acquisition_system_misc_function2
_TEXT	ENDS
; Function compile flags: /Odtp /ZI
; File c:\users\nhv90\projects\eech\aphavoc\source\gunships\avionics\hind\hi_tgt.c
;	COMDAT ?hind_target_acquisition_system_misc_function1@@YGXXZ
_TEXT	SEGMENT
tv64 = -68						; size = 4
?hind_target_acquisition_system_misc_function1@@YGXXZ PROC ; hind_target_acquisition_system_misc_function1, COMDAT

; 760  : {

  00000	55		 push	 ebp
  00001	8b ec		 mov	 ebp, esp
  00003	83 ec 44	 sub	 esp, 68			; 00000044H
  00006	53		 push	 ebx
  00007	56		 push	 esi
  00008	57		 push	 edi

; 761  : 	switch (target_acquisition_system)

  00009	a1 00 00 00 00	 mov	 eax, DWORD PTR ?target_acquisition_system@@3W4TARGET_ACQUISITION_SYSTEMS@@A ; target_acquisition_system
  0000e	89 45 bc	 mov	 DWORD PTR tv64[ebp], eax
  00011	83 7d bc 01	 cmp	 DWORD PTR tv64[ebp], 1
  00015	74 0a		 je	 SHORT $LN5@hind_targe
  00017	83 7d bc 02	 cmp	 DWORD PTR tv64[ebp], 2
  0001b	74 25		 je	 SHORT $LN8@hind_targe
  0001d	eb 42		 jmp	 SHORT $LN1@hind_targe

; 762  : 	{
; 763  : 		////////////////////////////////////////
; 764  : 		case TARGET_ACQUISITION_SYSTEM_OFF:
; 765  : 		////////////////////////////////////////
; 766  : 		{
; 767  : 			break;

  0001f	eb 40		 jmp	 SHORT $LN1@hind_targe
$LN5@hind_targe:

; 768  : 		}
; 769  : 		////////////////////////////////////////
; 770  : 		case TARGET_ACQUISITION_SYSTEM_GROUND_RADAR:
; 771  : 		////////////////////////////////////////
; 772  : 		{
; 773  : 			if (ground_radar.sweep_mode == RADAR_SWEEP_MODE_CONTINUOUS)

  00021	83 3d 28 00 00
	00 00		 cmp	 DWORD PTR ?ground_radar@@3URADAR_PARAMS@@A+40, 0
  00028	75 0c		 jne	 SHORT $LN6@hind_targe

; 774  : 			{
; 775  : 				ground_radar.sweep_mode = RADAR_SWEEP_MODE_SINGLE_ACTIVE;

  0002a	c7 05 28 00 00
	00 02 00 00 00	 mov	 DWORD PTR ?ground_radar@@3URADAR_PARAMS@@A+40, 2

; 776  : 			}
; 777  : 			else

  00034	eb 0a		 jmp	 SHORT $LN7@hind_targe
$LN6@hind_targe:

; 778  : 			{
; 779  : 				ground_radar.sweep_mode = RADAR_SWEEP_MODE_CONTINUOUS;

  00036	c7 05 28 00 00
	00 00 00 00 00	 mov	 DWORD PTR ?ground_radar@@3URADAR_PARAMS@@A+40, 0
$LN7@hind_targe:

; 780  : 			}
; 781  : 
; 782  : 			break;

  00040	eb 1f		 jmp	 SHORT $LN1@hind_targe
$LN8@hind_targe:

; 783  : 		}
; 784  : 		////////////////////////////////////////
; 785  : 		case TARGET_ACQUISITION_SYSTEM_AIR_RADAR:
; 786  : 		////////////////////////////////////////
; 787  : 		{
; 788  : 			if (air_radar.sweep_mode == RADAR_SWEEP_MODE_CONTINUOUS)

  00042	83 3d 28 00 00
	00 00		 cmp	 DWORD PTR ?air_radar@@3URADAR_PARAMS@@A+40, 0
  00049	75 0c		 jne	 SHORT $LN9@hind_targe

; 789  : 			{
; 790  : 				air_radar.sweep_mode = RADAR_SWEEP_MODE_SINGLE_ACTIVE;

  0004b	c7 05 28 00 00
	00 02 00 00 00	 mov	 DWORD PTR ?air_radar@@3URADAR_PARAMS@@A+40, 2

; 791  : 			}
; 792  : 			else

  00055	eb 0a		 jmp	 SHORT $LN1@hind_targe
$LN9@hind_targe:

; 793  : 			{
; 794  : 				air_radar.sweep_mode = RADAR_SWEEP_MODE_CONTINUOUS;

  00057	c7 05 28 00 00
	00 00 00 00 00	 mov	 DWORD PTR ?air_radar@@3URADAR_PARAMS@@A+40, 0
$LN1@hind_targe:

; 795  : 			}
; 796  : 
; 797  : 			break;
; 798  : 		}
; 799  : 		////////////////////////////////////////
; 800  : 		case TARGET_ACQUISITION_SYSTEM_FLIR:
; 801  : 		////////////////////////////////////////
; 802  : 		{
; 803  : 			break;
; 804  : 		}
; 805  : 		////////////////////////////////////////
; 806  : 		case TARGET_ACQUISITION_SYSTEM_LLLTV:
; 807  : 		////////////////////////////////////////
; 808  : 		{
; 809  : 			break;
; 810  : 		}
; 811  : 		////////////////////////////////////////
; 812  : 		case TARGET_ACQUISITION_SYSTEM_HMS:
; 813  : 		////////////////////////////////////////
; 814  : 		{
; 815  : 			break;
; 816  : 		}
; 817  : 	}
; 818  : }

  00061	5f		 pop	 edi
  00062	5e		 pop	 esi
  00063	5b		 pop	 ebx
  00064	8b e5		 mov	 esp, ebp
  00066	5d		 pop	 ebp
  00067	c3		 ret	 0
?hind_target_acquisition_system_misc_function1@@YGXXZ ENDP ; hind_target_acquisition_system_misc_function1
_TEXT	ENDS
; Function compile flags: /Odtp /ZI
; File c:\users\nhv90\projects\eech\aphavoc\source\gunships\avionics\hind\hi_tgt.c
;	COMDAT ?set_hind_lock_target@@YGXH@Z
_TEXT	SEGMENT
tv64 = -68						; size = 4
_lock$ = 8						; size = 4
?set_hind_lock_target@@YGXH@Z PROC			; set_hind_lock_target, COMDAT

; 710  : {

  00000	55		 push	 ebp
  00001	8b ec		 mov	 ebp, esp
  00003	83 ec 44	 sub	 esp, 68			; 00000044H
  00006	53		 push	 ebx
  00007	56		 push	 esi
  00008	57		 push	 edi

; 711  : 	switch (target_acquisition_system)

  00009	a1 00 00 00 00	 mov	 eax, DWORD PTR ?target_acquisition_system@@3W4TARGET_ACQUISITION_SYSTEMS@@A ; target_acquisition_system
  0000e	89 45 bc	 mov	 DWORD PTR tv64[ebp], eax
  00011	8b 4d bc	 mov	 ecx, DWORD PTR tv64[ebp]
  00014	83 e9 01	 sub	 ecx, 1
  00017	89 4d bc	 mov	 DWORD PTR tv64[ebp], ecx
  0001a	83 7d bc 09	 cmp	 DWORD PTR tv64[ebp], 9
  0001e	77 3a		 ja	 SHORT $LN1@set_hind_l
  00020	8b 55 bc	 mov	 edx, DWORD PTR tv64[ebp]
  00023	0f b6 82 00 00
	00 00		 movzx	 eax, BYTE PTR $LN10@set_hind_l[edx]
  0002a	ff 24 85 00 00
	00 00		 jmp	 DWORD PTR $LN11@set_hind_l[eax*4]

; 712  : 	{
; 713  : 		////////////////////////////////////////
; 714  : 		case TARGET_ACQUISITION_SYSTEM_OFF:
; 715  : 		////////////////////////////////////////
; 716  : 		{
; 717  : 			break;

  00031	eb 27		 jmp	 SHORT $LN1@set_hind_l
$LN5@set_hind_l:

; 718  : 		}
; 719  : 		////////////////////////////////////////
; 720  : 		case TARGET_ACQUISITION_SYSTEM_GROUND_RADAR:
; 721  : 		////////////////////////////////////////
; 722  : 		{
; 723  : 			ground_radar.target_locked = lock;

  00033	8b 45 08	 mov	 eax, DWORD PTR _lock$[ebp]
  00036	a3 20 00 00 00	 mov	 DWORD PTR ?ground_radar@@3URADAR_PARAMS@@A+32, eax

; 724  : 
; 725  : 			break;

  0003b	eb 1d		 jmp	 SHORT $LN1@set_hind_l
$LN6@set_hind_l:

; 726  : 		}
; 727  : 		////////////////////////////////////////
; 728  : 		case TARGET_ACQUISITION_SYSTEM_AIR_RADAR:
; 729  : 		////////////////////////////////////////
; 730  : 		{
; 731  : 			air_radar.target_locked = lock;

  0003d	8b 45 08	 mov	 eax, DWORD PTR _lock$[ebp]
  00040	a3 20 00 00 00	 mov	 DWORD PTR ?air_radar@@3URADAR_PARAMS@@A+32, eax

; 732  : 
; 733  : 			break;

  00045	eb 13		 jmp	 SHORT $LN1@set_hind_l
$LN7@set_hind_l:

; 734  : 		}
; 735  : 		////////////////////////////////////////
; 736  : 		case TARGET_ACQUISITION_SYSTEM_FLIR:
; 737  : 		case TARGET_ACQUISITION_SYSTEM_LLLTV:
; 738  : 		////////////////////////////////////////
; 739  : 		{
; 740  : 			set_eo_lock(lock);

  00047	8b 45 08	 mov	 eax, DWORD PTR _lock$[ebp]
  0004a	50		 push	 eax
  0004b	e8 00 00 00 00	 call	 ?set_eo_lock@@YGXH@Z	; set_eo_lock

; 741  : 
; 742  : 			break;

  00050	eb 08		 jmp	 SHORT $LN1@set_hind_l
$LN8@set_hind_l:

; 743  : 		}
; 744  : 		////////////////////////////////////////
; 745  : 		case TARGET_ACQUISITION_SYSTEM_HMS:
; 746  : 		////////////////////////////////////////
; 747  : 		{
; 748  : 			hms_target_locked = lock;

  00052	8b 45 08	 mov	 eax, DWORD PTR _lock$[ebp]
  00055	a3 00 00 00 00	 mov	 DWORD PTR ?hms_target_locked@@3HA, eax ; hms_target_locked
$LN1@set_hind_l:

; 749  : 
; 750  : 			break;
; 751  : 		}
; 752  : 	}
; 753  : }

  0005a	5f		 pop	 edi
  0005b	5e		 pop	 esi
  0005c	5b		 pop	 ebx
  0005d	8b e5		 mov	 esp, ebp
  0005f	5d		 pop	 ebp
  00060	c2 04 00	 ret	 4
  00063	90		 npad	 1
$LN11@set_hind_l:
  00064	00 00 00 00	 DD	 $LN5@set_hind_l
  00068	00 00 00 00	 DD	 $LN6@set_hind_l
  0006c	00 00 00 00	 DD	 $LN7@set_hind_l
  00070	00 00 00 00	 DD	 $LN8@set_hind_l
  00074	00 00 00 00	 DD	 $LN1@set_hind_l
$LN10@set_hind_l:
  00078	00		 DB	 0
  00079	01		 DB	 1
  0007a	02		 DB	 2
  0007b	04		 DB	 4
  0007c	04		 DB	 4
  0007d	02		 DB	 2
  0007e	04		 DB	 4
  0007f	04		 DB	 4
  00080	04		 DB	 4
  00081	03		 DB	 3
?set_hind_lock_target@@YGXH@Z ENDP			; set_hind_lock_target
_TEXT	ENDS
; Function compile flags: /Odtp /ZI
; File c:\users\nhv90\projects\eech\aphavoc\source\gunships\avionics\hind\hi_tgt.c
;	COMDAT ?toggle_hind_lock_target@@YGXXZ
_TEXT	SEGMENT
tv64 = -68						; size = 4
?toggle_hind_lock_target@@YGXXZ PROC			; toggle_hind_lock_target, COMDAT

; 645  : {

  00000	55		 push	 ebp
  00001	8b ec		 mov	 ebp, esp
  00003	83 ec 44	 sub	 esp, 68			; 00000044H
  00006	53		 push	 ebx
  00007	56		 push	 esi
  00008	57		 push	 edi

; 646  : 	switch (target_acquisition_system)

  00009	a1 00 00 00 00	 mov	 eax, DWORD PTR ?target_acquisition_system@@3W4TARGET_ACQUISITION_SYSTEMS@@A ; target_acquisition_system
  0000e	89 45 bc	 mov	 DWORD PTR tv64[ebp], eax
  00011	8b 4d bc	 mov	 ecx, DWORD PTR tv64[ebp]
  00014	83 e9 01	 sub	 ecx, 1
  00017	89 4d bc	 mov	 DWORD PTR tv64[ebp], ecx
  0001a	83 7d bc 09	 cmp	 DWORD PTR tv64[ebp], 9
  0001e	77 72		 ja	 SHORT $LN1@toggle_hin
  00020	8b 55 bc	 mov	 edx, DWORD PTR tv64[ebp]
  00023	0f b6 82 00 00
	00 00		 movzx	 eax, BYTE PTR $LN14@toggle_hin[edx]
  0002a	ff 24 85 00 00
	00 00		 jmp	 DWORD PTR $LN15@toggle_hin[eax*4]

; 647  : 	{
; 648  : 		////////////////////////////////////////
; 649  : 		case TARGET_ACQUISITION_SYSTEM_OFF:
; 650  : 		////////////////////////////////////////
; 651  : 		{
; 652  : 			break;

  00031	eb 5f		 jmp	 SHORT $LN1@toggle_hin
$LN5@toggle_hin:

; 653  : 		}
; 654  : 		////////////////////////////////////////
; 655  : 		case TARGET_ACQUISITION_SYSTEM_GROUND_RADAR:
; 656  : 		////////////////////////////////////////
; 657  : 		{
; 658  : 			ground_radar.target_locked ^= 1;

  00033	a1 20 00 00 00	 mov	 eax, DWORD PTR ?ground_radar@@3URADAR_PARAMS@@A+32
  00038	83 f0 01	 xor	 eax, 1
  0003b	a3 20 00 00 00	 mov	 DWORD PTR ?ground_radar@@3URADAR_PARAMS@@A+32, eax

; 659  : 
; 660  : 			break;

  00040	eb 50		 jmp	 SHORT $LN1@toggle_hin
$LN6@toggle_hin:

; 661  : 		}
; 662  : 		////////////////////////////////////////
; 663  : 		case TARGET_ACQUISITION_SYSTEM_AIR_RADAR:
; 664  : 		////////////////////////////////////////
; 665  : 		{
; 666  : 			air_radar.target_locked ^= 1;

  00042	a1 20 00 00 00	 mov	 eax, DWORD PTR ?air_radar@@3URADAR_PARAMS@@A+32
  00047	83 f0 01	 xor	 eax, 1
  0004a	a3 20 00 00 00	 mov	 DWORD PTR ?air_radar@@3URADAR_PARAMS@@A+32, eax

; 667  : 
; 668  : 			break;

  0004f	eb 41		 jmp	 SHORT $LN1@toggle_hin
$LN7@toggle_hin:

; 669  : 		}
; 670  : 		////////////////////////////////////////
; 671  : 		case TARGET_ACQUISITION_SYSTEM_FLIR:
; 672  : 		case TARGET_ACQUISITION_SYSTEM_LLLTV:
; 673  : 		////////////////////////////////////////
; 674  : 		{
; 675  : 			toggle_eo_lock();

  00051	e8 00 00 00 00	 call	 ?toggle_eo_lock@@YGXXZ	; toggle_eo_lock

; 676  : 
; 677  : 			break;

  00056	eb 3a		 jmp	 SHORT $LN1@toggle_hin
$LN8@toggle_hin:

; 678  : 		}
; 679  : 		////////////////////////////////////////
; 680  : 		case TARGET_ACQUISITION_SYSTEM_HMS:
; 681  : 		////////////////////////////////////////
; 682  : 		{
; 683  : 			hms_target_locked ^= 1;

  00058	a1 00 00 00 00	 mov	 eax, DWORD PTR ?hms_target_locked@@3HA ; hms_target_locked
  0005d	83 f0 01	 xor	 eax, 1
  00060	a3 00 00 00 00	 mov	 DWORD PTR ?hms_target_locked@@3HA, eax ; hms_target_locked

; 684  : 
; 685  : 			if (hms_target_locked)

  00065	74 1b		 je	 SHORT $LN9@toggle_hin

; 686  : 			{
; 687  : 				if (in_cockpit && !query_TIR_active())

  00067	83 3d 00 00 00
	00 00		 cmp	 DWORD PTR ?in_cockpit@@3HA, 0 ; in_cockpit
  0006e	74 10		 je	 SHORT $LN11@toggle_hin
  00070	e8 00 00 00 00	 call	 ?query_TIR_active@@YAHXZ ; query_TIR_active
  00075	85 c0		 test	 eax, eax
  00077	75 07		 jne	 SHORT $LN11@toggle_hin

; 688  : 				{
; 689  : 					set_view_mode (VIEW_MODE_VIRTUAL_COCKPIT_TRACK_TARGET);

  00079	6a 22		 push	 34			; 00000022H
  0007b	e8 00 00 00 00	 call	 ?set_view_mode@@YGHW4VIEW_MODES@@@Z ; set_view_mode
$LN11@toggle_hin:

; 690  : 				}
; 691  : 			}
; 692  : 			else

  00080	eb 10		 jmp	 SHORT $LN1@toggle_hin
$LN9@toggle_hin:

; 693  : 			{
; 694  : 				if (get_view_mode () == VIEW_MODE_VIRTUAL_COCKPIT_TRACK_TARGET)

  00082	83 3d 00 00 00
	00 22		 cmp	 DWORD PTR ?view_mode@@3W4VIEW_MODES@@A, 34 ; view_mode, 00000022H
  00089	75 07		 jne	 SHORT $LN1@toggle_hin

; 695  : 				{
; 696  : 					select_padlock_view_event (PADLOCK_MODE_NONE);

  0008b	6a 00		 push	 0
  0008d	e8 00 00 00 00	 call	 ?select_padlock_view_event@@YGXW4PADLOCK_MODES@@@Z ; select_padlock_view_event
$LN1@toggle_hin:

; 697  : 				}
; 698  : 			}
; 699  : 
; 700  : 			break;
; 701  : 		}
; 702  : 	}
; 703  : }

  00092	5f		 pop	 edi
  00093	5e		 pop	 esi
  00094	5b		 pop	 ebx
  00095	8b e5		 mov	 esp, ebp
  00097	5d		 pop	 ebp
  00098	c3		 ret	 0
  00099	0f 1f 00	 npad	 3
$LN15@toggle_hin:
  0009c	00 00 00 00	 DD	 $LN5@toggle_hin
  000a0	00 00 00 00	 DD	 $LN6@toggle_hin
  000a4	00 00 00 00	 DD	 $LN7@toggle_hin
  000a8	00 00 00 00	 DD	 $LN8@toggle_hin
  000ac	00 00 00 00	 DD	 $LN1@toggle_hin
$LN14@toggle_hin:
  000b0	00		 DB	 0
  000b1	01		 DB	 1
  000b2	02		 DB	 2
  000b3	04		 DB	 4
  000b4	04		 DB	 4
  000b5	02		 DB	 2
  000b6	04		 DB	 4
  000b7	04		 DB	 4
  000b8	04		 DB	 4
  000b9	03		 DB	 3
?toggle_hind_lock_target@@YGXXZ ENDP			; toggle_hind_lock_target
_TEXT	ENDS
; Function compile flags: /Odtp /ZI
; File c:\users\nhv90\projects\eech\aphavoc\source\gunships\avionics\hind\hi_tgt.c
;	COMDAT ?toggle_hind_auto_target@@YGXXZ
_TEXT	SEGMENT
tv64 = -68						; size = 4
?toggle_hind_auto_target@@YGXXZ PROC			; toggle_hind_auto_target, COMDAT

; 594  : {

  00000	55		 push	 ebp
  00001	8b ec		 mov	 ebp, esp
  00003	83 ec 44	 sub	 esp, 68			; 00000044H
  00006	53		 push	 ebx
  00007	56		 push	 esi
  00008	57		 push	 edi

; 595  : 	switch (target_acquisition_system)

  00009	a1 00 00 00 00	 mov	 eax, DWORD PTR ?target_acquisition_system@@3W4TARGET_ACQUISITION_SYSTEMS@@A ; target_acquisition_system
  0000e	89 45 bc	 mov	 DWORD PTR tv64[ebp], eax
  00011	83 7d bc 01	 cmp	 DWORD PTR tv64[ebp], 1
  00015	74 0a		 je	 SHORT $LN5@toggle_hin
  00017	83 7d bc 02	 cmp	 DWORD PTR tv64[ebp], 2
  0001b	74 13		 je	 SHORT $LN6@toggle_hin
  0001d	eb 1e		 jmp	 SHORT $LN1@toggle_hin

; 596  : 	{
; 597  : 		////////////////////////////////////////
; 598  : 		case TARGET_ACQUISITION_SYSTEM_OFF:
; 599  : 		////////////////////////////////////////
; 600  : 		{
; 601  : 			break;

  0001f	eb 1c		 jmp	 SHORT $LN1@toggle_hin
$LN5@toggle_hin:

; 602  : 		}
; 603  : 		////////////////////////////////////////
; 604  : 		case TARGET_ACQUISITION_SYSTEM_GROUND_RADAR:
; 605  : 		////////////////////////////////////////
; 606  : 		{
; 607  : 			ground_radar.auto_target ^= 1;

  00021	a1 24 00 00 00	 mov	 eax, DWORD PTR ?ground_radar@@3URADAR_PARAMS@@A+36
  00026	83 f0 01	 xor	 eax, 1
  00029	a3 24 00 00 00	 mov	 DWORD PTR ?ground_radar@@3URADAR_PARAMS@@A+36, eax

; 608  : 
; 609  : 			break;

  0002e	eb 0d		 jmp	 SHORT $LN1@toggle_hin
$LN6@toggle_hin:

; 610  : 		}
; 611  : 		////////////////////////////////////////
; 612  : 		case TARGET_ACQUISITION_SYSTEM_AIR_RADAR:
; 613  : 		////////////////////////////////////////
; 614  : 		{
; 615  : 			air_radar.auto_target ^= 1;

  00030	a1 24 00 00 00	 mov	 eax, DWORD PTR ?air_radar@@3URADAR_PARAMS@@A+36
  00035	83 f0 01	 xor	 eax, 1
  00038	a3 24 00 00 00	 mov	 DWORD PTR ?air_radar@@3URADAR_PARAMS@@A+36, eax
$LN1@toggle_hin:

; 616  : 
; 617  : 			break;
; 618  : 		}
; 619  : 		////////////////////////////////////////
; 620  : 		case TARGET_ACQUISITION_SYSTEM_FLIR:
; 621  : 		////////////////////////////////////////
; 622  : 		{
; 623  : 			break;
; 624  : 		}
; 625  : 		////////////////////////////////////////
; 626  : 		case TARGET_ACQUISITION_SYSTEM_LLLTV:
; 627  : 		////////////////////////////////////////
; 628  : 		{
; 629  : 			break;
; 630  : 		}
; 631  : 		////////////////////////////////////////
; 632  : 		case TARGET_ACQUISITION_SYSTEM_HMS:
; 633  : 		////////////////////////////////////////
; 634  : 		{
; 635  : 			break;
; 636  : 		}
; 637  : 	}
; 638  : }

  0003d	5f		 pop	 edi
  0003e	5e		 pop	 esi
  0003f	5b		 pop	 ebx
  00040	8b e5		 mov	 esp, ebp
  00042	5d		 pop	 ebp
  00043	c3		 ret	 0
?toggle_hind_auto_target@@YGXXZ ENDP			; toggle_hind_auto_target
_TEXT	ENDS
; Function compile flags: /Odtp /ZI
; File c:\users\nhv90\projects\eech\aphavoc\source\gunships\avionics\hind\hi_tgt.c
;	COMDAT ?toggle_hind_show_allied_targets@@YGXXZ
_TEXT	SEGMENT
tv64 = -68						; size = 4
?toggle_hind_show_allied_targets@@YGXXZ PROC		; toggle_hind_show_allied_targets, COMDAT

; 545  : {

  00000	55		 push	 ebp
  00001	8b ec		 mov	 ebp, esp
  00003	83 ec 44	 sub	 esp, 68			; 00000044H
  00006	53		 push	 ebx
  00007	56		 push	 esi
  00008	57		 push	 edi

; 546  : 	switch (target_acquisition_system)

  00009	a1 00 00 00 00	 mov	 eax, DWORD PTR ?target_acquisition_system@@3W4TARGET_ACQUISITION_SYSTEMS@@A ; target_acquisition_system
  0000e	89 45 bc	 mov	 DWORD PTR tv64[ebp], eax
  00011	83 7d bc 02	 cmp	 DWORD PTR tv64[ebp], 2
  00015	74 06		 je	 SHORT $LN6@toggle_hin
  00017	eb 11		 jmp	 SHORT $LN1@toggle_hin

; 547  : 	{
; 548  : 		////////////////////////////////////////
; 549  : 		case TARGET_ACQUISITION_SYSTEM_OFF:
; 550  : 		////////////////////////////////////////
; 551  : 		{
; 552  : 			break;

  00019	eb 0f		 jmp	 SHORT $LN1@toggle_hin

; 553  : 		}
; 554  : 		////////////////////////////////////////
; 555  : 		case TARGET_ACQUISITION_SYSTEM_GROUND_RADAR:
; 556  : 		////////////////////////////////////////
; 557  : 		{
; 558  : 			break;

  0001b	eb 0d		 jmp	 SHORT $LN1@toggle_hin
$LN6@toggle_hin:

; 559  : 		}
; 560  : 		////////////////////////////////////////
; 561  : 		case TARGET_ACQUISITION_SYSTEM_AIR_RADAR:
; 562  : 		////////////////////////////////////////
; 563  : 		{
; 564  : 			air_radar.show_allied_targets ^= 1;

  0001d	a1 1c 00 00 00	 mov	 eax, DWORD PTR ?air_radar@@3URADAR_PARAMS@@A+28
  00022	83 f0 01	 xor	 eax, 1
  00025	a3 1c 00 00 00	 mov	 DWORD PTR ?air_radar@@3URADAR_PARAMS@@A+28, eax
$LN1@toggle_hin:

; 565  : 
; 566  : 			break;
; 567  : 		}
; 568  : 		////////////////////////////////////////
; 569  : 		case TARGET_ACQUISITION_SYSTEM_FLIR:
; 570  : 		////////////////////////////////////////
; 571  : 		{
; 572  : 			break;
; 573  : 		}
; 574  : 		////////////////////////////////////////
; 575  : 		case TARGET_ACQUISITION_SYSTEM_LLLTV:
; 576  : 		////////////////////////////////////////
; 577  : 		{
; 578  : 			break;
; 579  : 		}
; 580  : 		////////////////////////////////////////
; 581  : 		case TARGET_ACQUISITION_SYSTEM_HMS:
; 582  : 		////////////////////////////////////////
; 583  : 		{
; 584  : 			break;
; 585  : 		}
; 586  : 	}
; 587  : }

  0002a	5f		 pop	 edi
  0002b	5e		 pop	 esi
  0002c	5b		 pop	 ebx
  0002d	8b e5		 mov	 esp, ebp
  0002f	5d		 pop	 ebp
  00030	c3		 ret	 0
?toggle_hind_show_allied_targets@@YGXXZ ENDP		; toggle_hind_show_allied_targets
_TEXT	ENDS
; Function compile flags: /Odtp /ZI
; File c:\users\nhv90\projects\eech\aphavoc\source\gunships\avionics\hind\hi_tgt.c
;	COMDAT ?centre_hind_target_acquisition_system@@YGXXZ
_TEXT	SEGMENT
tv64 = -68						; size = 4
?centre_hind_target_acquisition_system@@YGXXZ PROC	; centre_hind_target_acquisition_system, COMDAT

; 490  : {

  00000	55		 push	 ebp
  00001	8b ec		 mov	 ebp, esp
  00003	83 ec 44	 sub	 esp, 68			; 00000044H
  00006	53		 push	 ebx
  00007	56		 push	 esi
  00008	57		 push	 edi

; 491  : 	switch (target_acquisition_system)

  00009	a1 00 00 00 00	 mov	 eax, DWORD PTR ?target_acquisition_system@@3W4TARGET_ACQUISITION_SYSTEMS@@A ; target_acquisition_system
  0000e	89 45 bc	 mov	 DWORD PTR tv64[ebp], eax
  00011	8b 4d bc	 mov	 ecx, DWORD PTR tv64[ebp]
  00014	83 e9 01	 sub	 ecx, 1
  00017	89 4d bc	 mov	 DWORD PTR tv64[ebp], ecx
  0001a	83 7d bc 05	 cmp	 DWORD PTR tv64[ebp], 5
  0001e	77 26		 ja	 SHORT $LN1@centre_hin
  00020	8b 55 bc	 mov	 edx, DWORD PTR tv64[ebp]
  00023	ff 24 95 00 00
	00 00		 jmp	 DWORD PTR $LN11@centre_hin[edx*4]

; 492  : 	{
; 493  : 		////////////////////////////////////////
; 494  : 		case TARGET_ACQUISITION_SYSTEM_OFF:
; 495  : 		////////////////////////////////////////
; 496  : 		{
; 497  : 			break;

  0002a	eb 1a		 jmp	 SHORT $LN1@centre_hin
$LN5@centre_hin:

; 498  : 		}
; 499  : 		////////////////////////////////////////
; 500  : 		case TARGET_ACQUISITION_SYSTEM_GROUND_RADAR:
; 501  : 		////////////////////////////////////////
; 502  : 		{
; 503  : 			centre_hind_ground_radar ();

  0002c	e8 00 00 00 00	 call	 ?centre_hind_ground_radar@@YGXXZ ; centre_hind_ground_radar

; 504  : 
; 505  : 			break;

  00031	eb 13		 jmp	 SHORT $LN1@centre_hin
$LN6@centre_hin:

; 506  : 		}
; 507  : 		////////////////////////////////////////
; 508  : 		case TARGET_ACQUISITION_SYSTEM_AIR_RADAR:
; 509  : 		////////////////////////////////////////
; 510  : 		{
; 511  : 			centre_hind_air_radar ();

  00033	e8 00 00 00 00	 call	 ?centre_hind_air_radar@@YGXXZ ; centre_hind_air_radar

; 512  : 
; 513  : 			break;

  00038	eb 0c		 jmp	 SHORT $LN1@centre_hin
$LN7@centre_hin:

; 514  : 		}
; 515  : 		////////////////////////////////////////
; 516  : 		case TARGET_ACQUISITION_SYSTEM_FLIR:
; 517  : 		////////////////////////////////////////
; 518  : 		{
; 519  : 			centre_hind_eo ();

  0003a	e8 00 00 00 00	 call	 ?centre_hind_eo@@YGXXZ	; centre_hind_eo

; 520  : 
; 521  : 			break;

  0003f	eb 05		 jmp	 SHORT $LN1@centre_hin
$LN8@centre_hin:

; 522  : 		}
; 523  : 		////////////////////////////////////////
; 524  : 		case TARGET_ACQUISITION_SYSTEM_LLLTV:
; 525  : 		////////////////////////////////////////
; 526  : 		{
; 527  : 			centre_hind_eo ();

  00041	e8 00 00 00 00	 call	 ?centre_hind_eo@@YGXXZ	; centre_hind_eo
$LN1@centre_hin:

; 528  : 
; 529  : 			break;
; 530  : 		}
; 531  : 		////////////////////////////////////////
; 532  : 		case TARGET_ACQUISITION_SYSTEM_HMS:
; 533  : 		////////////////////////////////////////
; 534  : 		{
; 535  : 			break;
; 536  : 		}
; 537  : 	}
; 538  : }

  00046	5f		 pop	 edi
  00047	5e		 pop	 esi
  00048	5b		 pop	 ebx
  00049	8b e5		 mov	 esp, ebp
  0004b	5d		 pop	 ebp
  0004c	c3		 ret	 0
  0004d	0f 1f 00	 npad	 3
$LN11@centre_hin:
  00050	00 00 00 00	 DD	 $LN5@centre_hin
  00054	00 00 00 00	 DD	 $LN6@centre_hin
  00058	00 00 00 00	 DD	 $LN7@centre_hin
  0005c	00 00 00 00	 DD	 $LN1@centre_hin
  00060	00 00 00 00	 DD	 $LN1@centre_hin
  00064	00 00 00 00	 DD	 $LN8@centre_hin
?centre_hind_target_acquisition_system@@YGXXZ ENDP	; centre_hind_target_acquisition_system
_TEXT	ENDS
; Function compile flags: /Odtp /ZI
; File c:\users\nhv90\projects\eech\aphavoc\source\gunships\avionics\hind\hi_tgt.c
;	COMDAT ?update_hind_target_acquisition_system@@YGXXZ
_TEXT	SEGMENT
tv276 = -92						; size = 4
tv255 = -92						; size = 4
tv236 = -92						; size = 4
tv212 = -92						; size = 4
tv191 = -92						; size = 4
tv165 = -92						; size = 4
tv144 = -92						; size = 4
tv90 = -92						; size = 4
tv268 = -88						; size = 4
tv248 = -88						; size = 4
tv228 = -88						; size = 4
tv221 = -88						; size = 4
tv204 = -88						; size = 4
tv184 = -88						; size = 4
tv178 = -88						; size = 4
tv157 = -88						; size = 4
tv137 = -88						; size = 4
tv82 = -88						; size = 4
tv68 = -88						; size = 4
_los_to_target$1 = -20					; size = 4
_laser_on$2 = -16					; size = 4
_radar_on$3 = -12					; size = 4
_target$4 = -8						; size = 4
_source$5 = -4						; size = 4
?update_hind_target_acquisition_system@@YGXXZ PROC	; update_hind_target_acquisition_system, COMDAT

; 295  : {

  00000	55		 push	 ebp
  00001	8b ec		 mov	 ebp, esp
  00003	83 ec 5c	 sub	 esp, 92			; 0000005cH
  00006	53		 push	 ebx
  00007	56		 push	 esi
  00008	57		 push	 edi

; 296  : 	if (hind_damage.helmet_mounted_sight)

  00009	a1 00 00 00 00	 mov	 eax, DWORD PTR ?hind_damage@@3THIND_DAMAGE_FLAGS@@A ; hind_damage
  0000e	c1 e8 11	 shr	 eax, 17			; 00000011H
  00011	83 e0 01	 and	 eax, 1
  00014	74 13		 je	 SHORT $LN6@update_hin

; 297  : 	{
; 298  : 		if (hud_mode == HUD_MODE_WEAPON)

  00016	83 3d 00 00 00
	00 02		 cmp	 DWORD PTR ?hud_mode@@3W4HUD_MODES@@A, 2 ; hud_mode
  0001d	75 0a		 jne	 SHORT $LN6@update_hin

; 299  : 		{
; 300  : 			hud_mode = HUD_MODE_NAVIGATION;

  0001f	c7 05 00 00 00
	00 00 00 00 00	 mov	 DWORD PTR ?hud_mode@@3W4HUD_MODES@@A, 0 ; hud_mode
$LN6@update_hin:

; 301  : 		}
; 302  : 	}
; 303  : 
; 304  : 	switch (target_acquisition_system)

  00029	a1 00 00 00 00	 mov	 eax, DWORD PTR ?target_acquisition_system@@3W4TARGET_ACQUISITION_SYSTEMS@@A ; target_acquisition_system
  0002e	89 45 a8	 mov	 DWORD PTR tv68[ebp], eax
  00031	83 7d a8 0a	 cmp	 DWORD PTR tv68[ebp], 10	; 0000000aH
  00035	77 64		 ja	 SHORT $LN2@update_hin
  00037	8b 4d a8	 mov	 ecx, DWORD PTR tv68[ebp]
  0003a	0f b6 91 00 00
	00 00		 movzx	 edx, BYTE PTR $LN63@update_hin[ecx]
  00041	ff 24 95 00 00
	00 00		 jmp	 DWORD PTR $LN65@update_hin[edx*4]
$LN8@update_hin:

; 305  : 	{
; 306  : 		////////////////////////////////////////
; 307  : 		case TARGET_ACQUISITION_SYSTEM_OFF:
; 308  : 		////////////////////////////////////////
; 309  : 		{
; 310  : 			target_locked = FALSE;

  00048	c7 05 00 00 00
	00 00 00 00 00	 mov	 DWORD PTR ?target_locked@@3HA, 0 ; target_locked

; 311  : 
; 312  : 			update_weapon_lock_type (TARGET_ACQUISITION_SYSTEM_OFF);

  00052	6a 00		 push	 0
  00054	e8 00 00 00 00	 call	 ?update_weapon_lock_type@@YGXW4TARGET_ACQUISITION_SYSTEMS@@@Z ; update_weapon_lock_type

; 313  : 
; 314  : 			slave_common_eo_to_current_target ();

  00059	e8 00 00 00 00	 call	 ?slave_common_eo_to_current_target@@YGXXZ ; slave_common_eo_to_current_target

; 315  : 
; 316  : 			break;

  0005e	eb 3b		 jmp	 SHORT $LN2@update_hin

; 317  : 		}
; 318  : 		////////////////////////////////////////
; 319  : 		case TARGET_ACQUISITION_SYSTEM_GROUND_RADAR:
; 320  : 		////////////////////////////////////////
; 321  : 		{
; 322  : 			break;

  00060	eb 39		 jmp	 SHORT $LN2@update_hin

; 323  : 		}
; 324  : 		////////////////////////////////////////
; 325  : 		case TARGET_ACQUISITION_SYSTEM_AIR_RADAR:
; 326  : 		////////////////////////////////////////
; 327  : 		{
; 328  : 			break;

  00062	eb 37		 jmp	 SHORT $LN2@update_hin
$LN11@update_hin:

; 329  : 		}
; 330  : 		////////////////////////////////////////
; 331  : 		case TARGET_ACQUISITION_SYSTEM_FLIR:
; 332  : 		////////////////////////////////////////
; 333  : 		{
; 334  : 			update_hind_eo (&hind_flir);

  00064	68 00 00 00 00	 push	 OFFSET ?hind_flir@@3UEO_PARAMS@@A ; hind_flir
  00069	e8 00 00 00 00	 call	 ?update_hind_eo@@YGXPAUEO_PARAMS@@@Z ; update_hind_eo

; 335  : 
; 336  : 			update_common_eo ();

  0006e	e8 00 00 00 00	 call	 ?update_common_eo@@YGXXZ ; update_common_eo

; 337  : 
; 338  : 			update_weapon_lock_type (TARGET_ACQUISITION_SYSTEM_FLIR);

  00073	6a 03		 push	 3
  00075	e8 00 00 00 00	 call	 ?update_weapon_lock_type@@YGXW4TARGET_ACQUISITION_SYSTEMS@@@Z ; update_weapon_lock_type

; 339  : 
; 340  : 			break;

  0007a	eb 1f		 jmp	 SHORT $LN2@update_hin
$LN12@update_hin:

; 341  : 		}
; 342  : 		////////////////////////////////////////
; 343  : 		case TARGET_ACQUISITION_SYSTEM_LLLTV:
; 344  : 		////////////////////////////////////////
; 345  : 		{
; 346  : 			update_hind_eo (&hind_llltv);

  0007c	68 00 00 00 00	 push	 OFFSET ?hind_llltv@@3UEO_PARAMS@@A ; hind_llltv
  00081	e8 00 00 00 00	 call	 ?update_hind_eo@@YGXPAUEO_PARAMS@@@Z ; update_hind_eo

; 347  : 
; 348  : 			update_common_eo ();

  00086	e8 00 00 00 00	 call	 ?update_common_eo@@YGXXZ ; update_common_eo

; 349  : 
; 350  : 			update_weapon_lock_type (TARGET_ACQUISITION_SYSTEM_LLLTV);

  0008b	6a 06		 push	 6
  0008d	e8 00 00 00 00	 call	 ?update_weapon_lock_type@@YGXW4TARGET_ACQUISITION_SYSTEMS@@@Z ; update_weapon_lock_type

; 351  : 
; 352  : 			break;

  00092	eb 07		 jmp	 SHORT $LN2@update_hin
$LN13@update_hin:

; 353  : 		}
; 354  : 		////////////////////////////////////////
; 355  : 		case TARGET_ACQUISITION_SYSTEM_HMS:
; 356  : 		////////////////////////////////////////
; 357  : 		{
; 358  : 			// Hind doesn't have a helmet sight, this is just used for aiming the gun
; 359  : //			update_hind_hms ();
; 360  : //			update_common_hms ();
; 361  : 
; 362  : 			update_weapon_lock_type (TARGET_ACQUISITION_SYSTEM_HMS);

  00094	6a 0a		 push	 10			; 0000000aH
  00096	e8 00 00 00 00	 call	 ?update_weapon_lock_type@@YGXW4TARGET_ACQUISITION_SYSTEMS@@@Z ; update_weapon_lock_type
$LN2@update_hin:

; 363  : 
; 364  : //			slave_common_eo_to_current_target ();
; 365  : 
; 366  : 			break;
; 367  : 		}
; 368  : 	}
; 369  : 
; 370  : 	////////////////////////////////////////
; 371  : 	//
; 372  : 	// radar / laser / los to target
; 373  : 	//
; 374  : 	////////////////////////////////////////
; 375  : 
; 376  : 	{
; 377  : 		entity
; 378  : 			*source,
; 379  : 			*target;
; 380  : 
; 381  : 		int
; 382  : 			radar_on,
; 383  : 			laser_on,
; 384  : 			los_to_target;
; 385  : 
; 386  : 		source = get_gunship_entity ();

  0009b	a1 00 00 00 00	 mov	 eax, DWORD PTR ?gunship_entity@@3PAUENTITY@@A ; gunship_entity
  000a0	89 45 fc	 mov	 DWORD PTR _source$5[ebp], eax

; 387  : 
; 388  : 		target = get_local_entity_parent (source, LIST_TYPE_TARGET);

  000a3	83 7d fc 00	 cmp	 DWORD PTR _source$5[ebp], 0
  000a7	74 0a		 je	 SHORT $LN29@update_hin
  000a9	8b 45 fc	 mov	 eax, DWORD PTR _source$5[ebp]
  000ac	8b 08		 mov	 ecx, DWORD PTR [eax]
  000ae	89 4d a8	 mov	 DWORD PTR tv82[ebp], ecx
  000b1	eb 21		 jmp	 SHORT $LN30@update_hin
$LN29@update_hin:
  000b3	8b 15 00 00 00
	00		 mov	 edx, DWORD PTR ?__LINE__Var@?0??update_hind_target_acquisition_system@@YGXXZ@4JA
  000b9	83 c2 5d	 add	 edx, 93			; 0000005dH
  000bc	52		 push	 edx
  000bd	68 00 00 00 00	 push	 OFFSET ??_C@_0EM@GAHLBDJG@c?3?2users?2nhv90?2projects?2eech?2ap@
  000c2	a1 00 00 00 00	 mov	 eax, DWORD PTR ?null_entity_pointer_message@@3PBDB ; null_entity_pointer_message
  000c7	50		 push	 eax
  000c8	e8 00 00 00 00	 call	 ?process_assert@@YGXPBD0H@Z ; process_assert
  000cd	c7 45 a8 00 00
	00 00		 mov	 DWORD PTR tv82[ebp], 0
$LN30@update_hin:
  000d4	b9 01 00 00 00	 mov	 ecx, 1
  000d9	85 c9		 test	 ecx, ecx
  000db	74 09		 je	 SHORT $LN31@update_hin
  000dd	c7 45 a4 26 00
	00 00		 mov	 DWORD PTR tv90[ebp], 38	; 00000026H
  000e4	eb 21		 jmp	 SHORT $LN32@update_hin
$LN31@update_hin:
  000e6	8b 15 00 00 00
	00		 mov	 edx, DWORD PTR ?__LINE__Var@?0??update_hind_target_acquisition_system@@YGXXZ@4JA
  000ec	83 c2 5d	 add	 edx, 93			; 0000005dH
  000ef	52		 push	 edx
  000f0	68 00 00 00 00	 push	 OFFSET ??_C@_0EM@GAHLBDJG@c?3?2users?2nhv90?2projects?2eech?2ap@
  000f5	a1 00 00 00 00	 mov	 eax, DWORD PTR ?overload_invalid_list_type_message@@3PBDB ; overload_invalid_list_type_message
  000fa	50		 push	 eax
  000fb	e8 00 00 00 00	 call	 ?process_assert@@YGXPBD0H@Z ; process_assert
  00100	c7 45 a4 00 00
	00 00		 mov	 DWORD PTR tv90[ebp], 0
$LN32@update_hin:
  00107	6a 26		 push	 38			; 00000026H
  00109	8b 4d fc	 mov	 ecx, DWORD PTR _source$5[ebp]
  0010c	51		 push	 ecx
  0010d	69 55 a8 b4 00
	00 00		 imul	 edx, DWORD PTR tv82[ebp], 180
  00114	8b 45 a4	 mov	 eax, DWORD PTR tv90[ebp]
  00117	8b 8c 82 00 00
	00 00		 mov	 ecx, DWORD PTR ?fn_get_local_entity_parent@@3PAY0CN@P6GPAUENTITY@@PAU1@W4LIST_TYPES@@@ZA[edx+eax*4]
  0011e	ff d1		 call	 ecx
  00120	89 45 f8	 mov	 DWORD PTR _target$4[ebp], eax

; 389  : 
; 390  : 		//
; 391  : 		// radar on/off
; 392  : 		//
; 393  : 
; 394  : 		radar_on = FALSE;

  00123	c7 45 f4 00 00
	00 00		 mov	 DWORD PTR _radar_on$3[ebp], 0

; 395  : 
; 396  : 		if (target_acquisition_system == TARGET_ACQUISITION_SYSTEM_GROUND_RADAR)

  0012a	83 3d 00 00 00
	00 01		 cmp	 DWORD PTR ?target_acquisition_system@@3W4TARGET_ACQUISITION_SYSTEMS@@A, 1 ; target_acquisition_system
  00131	75 12		 jne	 SHORT $LN14@update_hin

; 397  : 		{
; 398  : 			if (ground_radar.sweep_mode != RADAR_SWEEP_MODE_SINGLE_INACTIVE)

  00133	83 3d 28 00 00
	00 01		 cmp	 DWORD PTR ?ground_radar@@3URADAR_PARAMS@@A+40, 1
  0013a	74 07		 je	 SHORT $LN16@update_hin

; 399  : 			{
; 400  : 				radar_on = TRUE;

  0013c	c7 45 f4 01 00
	00 00		 mov	 DWORD PTR _radar_on$3[ebp], 1
$LN16@update_hin:

; 401  : 			}
; 402  : 		}

  00143	eb 19		 jmp	 SHORT $LN15@update_hin
$LN14@update_hin:

; 403  : 		else if (target_acquisition_system == TARGET_ACQUISITION_SYSTEM_AIR_RADAR)

  00145	83 3d 00 00 00
	00 02		 cmp	 DWORD PTR ?target_acquisition_system@@3W4TARGET_ACQUISITION_SYSTEMS@@A, 2 ; target_acquisition_system
  0014c	75 10		 jne	 SHORT $LN15@update_hin

; 404  : 		{
; 405  : 			if (air_radar.sweep_mode != RADAR_SWEEP_MODE_SINGLE_INACTIVE)

  0014e	83 3d 28 00 00
	00 01		 cmp	 DWORD PTR ?air_radar@@3URADAR_PARAMS@@A+40, 1
  00155	74 07		 je	 SHORT $LN15@update_hin

; 406  : 			{
; 407  : 				radar_on = TRUE;

  00157	c7 45 f4 01 00
	00 00		 mov	 DWORD PTR _radar_on$3[ebp], 1
$LN15@update_hin:

; 408  : 			}
; 409  : 		}
; 410  : 
; 411  : 		if (radar_on != get_local_entity_int_value (source, INT_TYPE_RADAR_ON))

  0015e	83 7d fc 00	 cmp	 DWORD PTR _source$5[ebp], 0
  00162	74 0a		 je	 SHORT $LN33@update_hin
  00164	8b 45 fc	 mov	 eax, DWORD PTR _source$5[ebp]
  00167	8b 08		 mov	 ecx, DWORD PTR [eax]
  00169	89 4d a8	 mov	 DWORD PTR tv137[ebp], ecx
  0016c	eb 1d		 jmp	 SHORT $LN34@update_hin
$LN33@update_hin:
  0016e	68 9b 01 00 00	 push	 411			; 0000019bH
  00173	68 00 00 00 00	 push	 OFFSET ??_C@_0EM@GAHLBDJG@c?3?2users?2nhv90?2projects?2eech?2ap@
  00178	8b 15 00 00 00
	00		 mov	 edx, DWORD PTR ?null_entity_pointer_message@@3PBDB ; null_entity_pointer_message
  0017e	52		 push	 edx
  0017f	e8 00 00 00 00	 call	 ?process_assert@@YGXPBD0H@Z ; process_assert
  00184	c7 45 a8 00 00
	00 00		 mov	 DWORD PTR tv137[ebp], 0
$LN34@update_hin:
  0018b	b8 01 00 00 00	 mov	 eax, 1
  00190	85 c0		 test	 eax, eax
  00192	74 09		 je	 SHORT $LN35@update_hin
  00194	c7 45 a4 a9 00
	00 00		 mov	 DWORD PTR tv144[ebp], 169 ; 000000a9H
  0019b	eb 1d		 jmp	 SHORT $LN36@update_hin
$LN35@update_hin:
  0019d	68 9b 01 00 00	 push	 411			; 0000019bH
  001a2	68 00 00 00 00	 push	 OFFSET ??_C@_0EM@GAHLBDJG@c?3?2users?2nhv90?2projects?2eech?2ap@
  001a7	8b 0d 00 00 00
	00		 mov	 ecx, DWORD PTR ?overload_invalid_int_type_message@@3PBDB ; overload_invalid_int_type_message
  001ad	51		 push	 ecx
  001ae	e8 00 00 00 00	 call	 ?process_assert@@YGXPBD0H@Z ; process_assert
  001b3	c7 45 a4 00 00
	00 00		 mov	 DWORD PTR tv144[ebp], 0
$LN36@update_hin:
  001ba	68 a9 00 00 00	 push	 169			; 000000a9H
  001bf	8b 55 fc	 mov	 edx, DWORD PTR _source$5[ebp]
  001c2	52		 push	 edx
  001c3	69 45 a8 5c 04
	00 00		 imul	 eax, DWORD PTR tv137[ebp], 1116
  001ca	8b 4d a4	 mov	 ecx, DWORD PTR tv144[ebp]
  001cd	8b 94 88 00 00
	00 00		 mov	 edx, DWORD PTR ?fn_get_local_entity_int_value@@3PAY0BBH@P6GHPAUENTITY@@W4INT_TYPES@@@ZA[eax+ecx*4]
  001d4	ff d2		 call	 edx
  001d6	39 45 f4	 cmp	 DWORD PTR _radar_on$3[ebp], eax
  001d9	0f 84 8c 00 00
	00		 je	 $LN19@update_hin

; 412  : 		{
; 413  : 			set_client_server_entity_int_value (source, INT_TYPE_RADAR_ON, radar_on);

  001df	83 7d fc 00	 cmp	 DWORD PTR _source$5[ebp], 0
  001e3	74 0a		 je	 SHORT $LN37@update_hin
  001e5	8b 45 fc	 mov	 eax, DWORD PTR _source$5[ebp]
  001e8	8b 08		 mov	 ecx, DWORD PTR [eax]
  001ea	89 4d a8	 mov	 DWORD PTR tv157[ebp], ecx
  001ed	eb 21		 jmp	 SHORT $LN38@update_hin
$LN37@update_hin:
  001ef	8b 15 00 00 00
	00		 mov	 edx, DWORD PTR ?__LINE__Var@?0??update_hind_target_acquisition_system@@YGXXZ@4JA
  001f5	83 c2 76	 add	 edx, 118		; 00000076H
  001f8	52		 push	 edx
  001f9	68 00 00 00 00	 push	 OFFSET ??_C@_0EM@GAHLBDJG@c?3?2users?2nhv90?2projects?2eech?2ap@
  001fe	a1 00 00 00 00	 mov	 eax, DWORD PTR ?null_entity_pointer_message@@3PBDB ; null_entity_pointer_message
  00203	50		 push	 eax
  00204	e8 00 00 00 00	 call	 ?process_assert@@YGXPBD0H@Z ; process_assert
  00209	c7 45 a8 00 00
	00 00		 mov	 DWORD PTR tv157[ebp], 0
$LN38@update_hin:
  00210	b9 01 00 00 00	 mov	 ecx, 1
  00215	85 c9		 test	 ecx, ecx
  00217	74 09		 je	 SHORT $LN39@update_hin
  00219	c7 45 a4 a9 00
	00 00		 mov	 DWORD PTR tv165[ebp], 169 ; 000000a9H
  00220	eb 21		 jmp	 SHORT $LN40@update_hin
$LN39@update_hin:
  00222	8b 15 00 00 00
	00		 mov	 edx, DWORD PTR ?__LINE__Var@?0??update_hind_target_acquisition_system@@YGXXZ@4JA
  00228	83 c2 76	 add	 edx, 118		; 00000076H
  0022b	52		 push	 edx
  0022c	68 00 00 00 00	 push	 OFFSET ??_C@_0EM@GAHLBDJG@c?3?2users?2nhv90?2projects?2eech?2ap@
  00231	a1 00 00 00 00	 mov	 eax, DWORD PTR ?overload_invalid_int_type_message@@3PBDB ; overload_invalid_int_type_message
  00236	50		 push	 eax
  00237	e8 00 00 00 00	 call	 ?process_assert@@YGXPBD0H@Z ; process_assert
  0023c	c7 45 a4 00 00
	00 00		 mov	 DWORD PTR tv165[ebp], 0
$LN40@update_hin:
  00243	8b 4d f4	 mov	 ecx, DWORD PTR _radar_on$3[ebp]
  00246	51		 push	 ecx
  00247	68 a9 00 00 00	 push	 169			; 000000a9H
  0024c	8b 55 fc	 mov	 edx, DWORD PTR _source$5[ebp]
  0024f	52		 push	 edx
  00250	69 45 a8 b8 08
	00 00		 imul	 eax, DWORD PTR tv157[ebp], 2232
  00257	8b 4d a4	 mov	 ecx, DWORD PTR tv165[ebp]
  0025a	8d 94 c8 00 00
	00 00		 lea	 edx, DWORD PTR ?fn_set_client_server_entity_int_value@@3PAY1BBH@1P6GXPAUENTITY@@W4INT_TYPES@@H@ZA[eax+ecx*8]
  00261	a1 00 00 00 00	 mov	 eax, DWORD PTR ?system_comms_model@@3W4COMMS_MODEL_TYPES@@A ; system_comms_model
  00266	8b 0c 82	 mov	 ecx, DWORD PTR [edx+eax*4]
  00269	ff d1		 call	 ecx
$LN19@update_hin:

; 414  : 		}
; 415  : 
; 416  : 		//
; 417  : 		// laser on/off
; 418  : 		//
; 419  : 
; 420  : 		laser_on = laser_is_active() && !hind_damage.laser_range_finder;

  0026b	e8 00 00 00 00	 call	 ?laser_is_active@@YGHXZ	; laser_is_active
  00270	85 c0		 test	 eax, eax
  00272	74 16		 je	 SHORT $LN41@update_hin
  00274	a1 00 00 00 00	 mov	 eax, DWORD PTR ?hind_damage@@3THIND_DAMAGE_FLAGS@@A ; hind_damage
  00279	c1 e8 04	 shr	 eax, 4
  0027c	83 e0 01	 and	 eax, 1
  0027f	75 09		 jne	 SHORT $LN41@update_hin
  00281	c7 45 a8 01 00
	00 00		 mov	 DWORD PTR tv178[ebp], 1
  00288	eb 07		 jmp	 SHORT $LN42@update_hin
$LN41@update_hin:
  0028a	c7 45 a8 00 00
	00 00		 mov	 DWORD PTR tv178[ebp], 0
$LN42@update_hin:
  00291	8b 4d a8	 mov	 ecx, DWORD PTR tv178[ebp]
  00294	89 4d f0	 mov	 DWORD PTR _laser_on$2[ebp], ecx

; 421  : /*
; 422  : 		laser_on = FALSE;
; 423  : 
; 424  : 		if (target_acquisition_system != TARGET_ACQUISITION_SYSTEM_OFF)
; 425  : 		{
; 426  : 			if (!hind_damage.laser_range_finder)
; 427  : 			{
; 428  : 				laser_on = TRUE;
; 429  : 			}
; 430  : 		}
; 431  : */
; 432  : 		if (laser_on != get_local_entity_int_value (source, INT_TYPE_LASER_ON))

  00297	83 7d fc 00	 cmp	 DWORD PTR _source$5[ebp], 0
  0029b	74 0a		 je	 SHORT $LN43@update_hin
  0029d	8b 45 fc	 mov	 eax, DWORD PTR _source$5[ebp]
  002a0	8b 08		 mov	 ecx, DWORD PTR [eax]
  002a2	89 4d a8	 mov	 DWORD PTR tv184[ebp], ecx
  002a5	eb 1d		 jmp	 SHORT $LN44@update_hin
$LN43@update_hin:
  002a7	68 b0 01 00 00	 push	 432			; 000001b0H
  002ac	68 00 00 00 00	 push	 OFFSET ??_C@_0EM@GAHLBDJG@c?3?2users?2nhv90?2projects?2eech?2ap@
  002b1	8b 15 00 00 00
	00		 mov	 edx, DWORD PTR ?null_entity_pointer_message@@3PBDB ; null_entity_pointer_message
  002b7	52		 push	 edx
  002b8	e8 00 00 00 00	 call	 ?process_assert@@YGXPBD0H@Z ; process_assert
  002bd	c7 45 a8 00 00
	00 00		 mov	 DWORD PTR tv184[ebp], 0
$LN44@update_hin:
  002c4	b8 01 00 00 00	 mov	 eax, 1
  002c9	85 c0		 test	 eax, eax
  002cb	74 09		 je	 SHORT $LN45@update_hin
  002cd	c7 45 a4 78 00
	00 00		 mov	 DWORD PTR tv191[ebp], 120 ; 00000078H
  002d4	eb 1d		 jmp	 SHORT $LN46@update_hin
$LN45@update_hin:
  002d6	68 b0 01 00 00	 push	 432			; 000001b0H
  002db	68 00 00 00 00	 push	 OFFSET ??_C@_0EM@GAHLBDJG@c?3?2users?2nhv90?2projects?2eech?2ap@
  002e0	8b 0d 00 00 00
	00		 mov	 ecx, DWORD PTR ?overload_invalid_int_type_message@@3PBDB ; overload_invalid_int_type_message
  002e6	51		 push	 ecx
  002e7	e8 00 00 00 00	 call	 ?process_assert@@YGXPBD0H@Z ; process_assert
  002ec	c7 45 a4 00 00
	00 00		 mov	 DWORD PTR tv191[ebp], 0
$LN46@update_hin:
  002f3	6a 78		 push	 120			; 00000078H
  002f5	8b 55 fc	 mov	 edx, DWORD PTR _source$5[ebp]
  002f8	52		 push	 edx
  002f9	69 45 a8 5c 04
	00 00		 imul	 eax, DWORD PTR tv184[ebp], 1116
  00300	8b 4d a4	 mov	 ecx, DWORD PTR tv191[ebp]
  00303	8b 94 88 00 00
	00 00		 mov	 edx, DWORD PTR ?fn_get_local_entity_int_value@@3PAY0BBH@P6GHPAUENTITY@@W4INT_TYPES@@@ZA[eax+ecx*4]
  0030a	ff d2		 call	 edx
  0030c	39 45 f0	 cmp	 DWORD PTR _laser_on$2[ebp], eax
  0030f	0f 84 8f 00 00
	00		 je	 $LN20@update_hin

; 433  : 		{
; 434  : 			set_client_server_entity_int_value (source, INT_TYPE_LASER_ON, laser_on);

  00315	83 7d fc 00	 cmp	 DWORD PTR _source$5[ebp], 0
  00319	74 0a		 je	 SHORT $LN47@update_hin
  0031b	8b 45 fc	 mov	 eax, DWORD PTR _source$5[ebp]
  0031e	8b 08		 mov	 ecx, DWORD PTR [eax]
  00320	89 4d a8	 mov	 DWORD PTR tv204[ebp], ecx
  00323	eb 24		 jmp	 SHORT $LN48@update_hin
$LN47@update_hin:
  00325	8b 15 00 00 00
	00		 mov	 edx, DWORD PTR ?__LINE__Var@?0??update_hind_target_acquisition_system@@YGXXZ@4JA
  0032b	81 c2 8b 00 00
	00		 add	 edx, 139		; 0000008bH
  00331	52		 push	 edx
  00332	68 00 00 00 00	 push	 OFFSET ??_C@_0EM@GAHLBDJG@c?3?2users?2nhv90?2projects?2eech?2ap@
  00337	a1 00 00 00 00	 mov	 eax, DWORD PTR ?null_entity_pointer_message@@3PBDB ; null_entity_pointer_message
  0033c	50		 push	 eax
  0033d	e8 00 00 00 00	 call	 ?process_assert@@YGXPBD0H@Z ; process_assert
  00342	c7 45 a8 00 00
	00 00		 mov	 DWORD PTR tv204[ebp], 0
$LN48@update_hin:
  00349	b9 01 00 00 00	 mov	 ecx, 1
  0034e	85 c9		 test	 ecx, ecx
  00350	74 09		 je	 SHORT $LN49@update_hin
  00352	c7 45 a4 78 00
	00 00		 mov	 DWORD PTR tv212[ebp], 120 ; 00000078H
  00359	eb 24		 jmp	 SHORT $LN50@update_hin
$LN49@update_hin:
  0035b	8b 15 00 00 00
	00		 mov	 edx, DWORD PTR ?__LINE__Var@?0??update_hind_target_acquisition_system@@YGXXZ@4JA
  00361	81 c2 8b 00 00
	00		 add	 edx, 139		; 0000008bH
  00367	52		 push	 edx
  00368	68 00 00 00 00	 push	 OFFSET ??_C@_0EM@GAHLBDJG@c?3?2users?2nhv90?2projects?2eech?2ap@
  0036d	a1 00 00 00 00	 mov	 eax, DWORD PTR ?overload_invalid_int_type_message@@3PBDB ; overload_invalid_int_type_message
  00372	50		 push	 eax
  00373	e8 00 00 00 00	 call	 ?process_assert@@YGXPBD0H@Z ; process_assert
  00378	c7 45 a4 00 00
	00 00		 mov	 DWORD PTR tv212[ebp], 0
$LN50@update_hin:
  0037f	8b 4d f0	 mov	 ecx, DWORD PTR _laser_on$2[ebp]
  00382	51		 push	 ecx
  00383	6a 78		 push	 120			; 00000078H
  00385	8b 55 fc	 mov	 edx, DWORD PTR _source$5[ebp]
  00388	52		 push	 edx
  00389	69 45 a8 b8 08
	00 00		 imul	 eax, DWORD PTR tv204[ebp], 2232
  00390	8b 4d a4	 mov	 ecx, DWORD PTR tv212[ebp]
  00393	8d 94 c8 00 00
	00 00		 lea	 edx, DWORD PTR ?fn_set_client_server_entity_int_value@@3PAY1BBH@1P6GXPAUENTITY@@W4INT_TYPES@@H@ZA[eax+ecx*8]
  0039a	a1 00 00 00 00	 mov	 eax, DWORD PTR ?system_comms_model@@3W4COMMS_MODEL_TYPES@@A ; system_comms_model
  0039f	8b 0c 82	 mov	 ecx, DWORD PTR [edx+eax*4]
  003a2	ff d1		 call	 ecx
$LN20@update_hin:

; 435  : 		}
; 436  : 
; 437  : 		//
; 438  : 		// line of sight to target
; 439  : 		//
; 440  : 
; 441  : 		if (target)

  003a4	83 7d f8 00	 cmp	 DWORD PTR _target$4[ebp], 0
  003a8	0f 84 c9 00 00
	00		 je	 $LN21@update_hin

; 442  : 		{
; 443  : 			switch (target_acquisition_system)

  003ae	a1 00 00 00 00	 mov	 eax, DWORD PTR ?target_acquisition_system@@3W4TARGET_ACQUISITION_SYSTEMS@@A ; target_acquisition_system
  003b3	89 45 a8	 mov	 DWORD PTR tv221[ebp], eax
  003b6	83 7d a8 0a	 cmp	 DWORD PTR tv221[ebp], 10 ; 0000000aH
  003ba	0f 87 b5 00 00
	00		 ja	 $LN4@update_hin
  003c0	8b 4d a8	 mov	 ecx, DWORD PTR tv221[ebp]
  003c3	0f b6 91 00 00
	00 00		 movzx	 edx, BYTE PTR $LN64@update_hin[ecx]
  003ca	ff 24 95 00 00
	00 00		 jmp	 DWORD PTR $LN66@update_hin[edx*4]
$LN23@update_hin:

; 444  : 			{
; 445  : 				case TARGET_ACQUISITION_SYSTEM_OFF:
; 446  : 				{
; 447  : 					los_to_target = FALSE;

  003d1	c7 45 ec 00 00
	00 00		 mov	 DWORD PTR _los_to_target$1[ebp], 0

; 448  : 
; 449  : 					break;

  003d8	e9 98 00 00 00	 jmp	 $LN4@update_hin
$LN24@update_hin:

; 450  : 				}
; 451  : 				case TARGET_ACQUISITION_SYSTEM_GROUND_RADAR:
; 452  : 				case TARGET_ACQUISITION_SYSTEM_AIR_RADAR:
; 453  : 				{
; 454  : 					los_to_target = get_local_entity_int_value (target, INT_TYPE_GUNSHIP_RADAR_LOS_CLEAR);

  003dd	83 7d f8 00	 cmp	 DWORD PTR _target$4[ebp], 0
  003e1	74 0a		 je	 SHORT $LN51@update_hin
  003e3	8b 45 f8	 mov	 eax, DWORD PTR _target$4[ebp]
  003e6	8b 08		 mov	 ecx, DWORD PTR [eax]
  003e8	89 4d a8	 mov	 DWORD PTR tv228[ebp], ecx
  003eb	eb 24		 jmp	 SHORT $LN52@update_hin
$LN51@update_hin:
  003ed	8b 15 00 00 00
	00		 mov	 edx, DWORD PTR ?__LINE__Var@?0??update_hind_target_acquisition_system@@YGXXZ@4JA
  003f3	81 c2 9f 00 00
	00		 add	 edx, 159		; 0000009fH
  003f9	52		 push	 edx
  003fa	68 00 00 00 00	 push	 OFFSET ??_C@_0EM@GAHLBDJG@c?3?2users?2nhv90?2projects?2eech?2ap@
  003ff	a1 00 00 00 00	 mov	 eax, DWORD PTR ?null_entity_pointer_message@@3PBDB ; null_entity_pointer_message
  00404	50		 push	 eax
  00405	e8 00 00 00 00	 call	 ?process_assert@@YGXPBD0H@Z ; process_assert
  0040a	c7 45 a8 00 00
	00 00		 mov	 DWORD PTR tv228[ebp], 0
$LN52@update_hin:
  00411	b9 01 00 00 00	 mov	 ecx, 1
  00416	85 c9		 test	 ecx, ecx
  00418	74 09		 je	 SHORT $LN53@update_hin
  0041a	c7 45 a4 50 00
	00 00		 mov	 DWORD PTR tv236[ebp], 80 ; 00000050H
  00421	eb 24		 jmp	 SHORT $LN54@update_hin
$LN53@update_hin:
  00423	8b 15 00 00 00
	00		 mov	 edx, DWORD PTR ?__LINE__Var@?0??update_hind_target_acquisition_system@@YGXXZ@4JA
  00429	81 c2 9f 00 00
	00		 add	 edx, 159		; 0000009fH
  0042f	52		 push	 edx
  00430	68 00 00 00 00	 push	 OFFSET ??_C@_0EM@GAHLBDJG@c?3?2users?2nhv90?2projects?2eech?2ap@
  00435	a1 00 00 00 00	 mov	 eax, DWORD PTR ?overload_invalid_int_type_message@@3PBDB ; overload_invalid_int_type_message
  0043a	50		 push	 eax
  0043b	e8 00 00 00 00	 call	 ?process_assert@@YGXPBD0H@Z ; process_assert
  00440	c7 45 a4 00 00
	00 00		 mov	 DWORD PTR tv236[ebp], 0
$LN54@update_hin:
  00447	6a 50		 push	 80			; 00000050H
  00449	8b 4d f8	 mov	 ecx, DWORD PTR _target$4[ebp]
  0044c	51		 push	 ecx
  0044d	69 55 a8 5c 04
	00 00		 imul	 edx, DWORD PTR tv228[ebp], 1116
  00454	8b 45 a4	 mov	 eax, DWORD PTR tv236[ebp]
  00457	8b 8c 82 00 00
	00 00		 mov	 ecx, DWORD PTR ?fn_get_local_entity_int_value@@3PAY0BBH@P6GHPAUENTITY@@W4INT_TYPES@@@ZA[edx+eax*4]
  0045e	ff d1		 call	 ecx
  00460	89 45 ec	 mov	 DWORD PTR _los_to_target$1[ebp], eax

; 455  : 
; 456  : 					break;

  00463	eb 10		 jmp	 SHORT $LN4@update_hin
$LN25@update_hin:

; 457  : 				}
; 458  : 				case TARGET_ACQUISITION_SYSTEM_FLIR:
; 459  : 				case TARGET_ACQUISITION_SYSTEM_LLLTV:
; 460  : 				{
; 461  : 					los_to_target = TRUE;

  00465	c7 45 ec 01 00
	00 00		 mov	 DWORD PTR _los_to_target$1[ebp], 1

; 462  : 
; 463  : 					break;

  0046c	eb 07		 jmp	 SHORT $LN4@update_hin
$LN26@update_hin:

; 464  : 				}
; 465  : 				case TARGET_ACQUISITION_SYSTEM_HMS:
; 466  : 				{
; 467  : 					los_to_target = TRUE;

  0046e	c7 45 ec 01 00
	00 00		 mov	 DWORD PTR _los_to_target$1[ebp], 1
$LN4@update_hin:

; 468  : 
; 469  : 					break;
; 470  : 				}
; 471  : 			}
; 472  : 		}
; 473  : 		else

  00475	eb 07		 jmp	 SHORT $LN22@update_hin
$LN21@update_hin:

; 474  : 		{
; 475  : 			los_to_target = FALSE;

  00477	c7 45 ec 00 00
	00 00		 mov	 DWORD PTR _los_to_target$1[ebp], 0
$LN22@update_hin:

; 476  : 		}
; 477  : 
; 478  : 		if (los_to_target != get_local_entity_int_value (source, INT_TYPE_LOS_TO_TARGET))

  0047e	83 7d fc 00	 cmp	 DWORD PTR _source$5[ebp], 0
  00482	74 0a		 je	 SHORT $LN55@update_hin
  00484	8b 45 fc	 mov	 eax, DWORD PTR _source$5[ebp]
  00487	8b 08		 mov	 ecx, DWORD PTR [eax]
  00489	89 4d a8	 mov	 DWORD PTR tv248[ebp], ecx
  0048c	eb 1d		 jmp	 SHORT $LN56@update_hin
$LN55@update_hin:
  0048e	68 de 01 00 00	 push	 478			; 000001deH
  00493	68 00 00 00 00	 push	 OFFSET ??_C@_0EM@GAHLBDJG@c?3?2users?2nhv90?2projects?2eech?2ap@
  00498	8b 15 00 00 00
	00		 mov	 edx, DWORD PTR ?null_entity_pointer_message@@3PBDB ; null_entity_pointer_message
  0049e	52		 push	 edx
  0049f	e8 00 00 00 00	 call	 ?process_assert@@YGXPBD0H@Z ; process_assert
  004a4	c7 45 a8 00 00
	00 00		 mov	 DWORD PTR tv248[ebp], 0
$LN56@update_hin:
  004ab	b8 01 00 00 00	 mov	 eax, 1
  004b0	85 c0		 test	 eax, eax
  004b2	74 09		 je	 SHORT $LN57@update_hin
  004b4	c7 45 a4 80 00
	00 00		 mov	 DWORD PTR tv255[ebp], 128 ; 00000080H
  004bb	eb 1d		 jmp	 SHORT $LN58@update_hin
$LN57@update_hin:
  004bd	68 de 01 00 00	 push	 478			; 000001deH
  004c2	68 00 00 00 00	 push	 OFFSET ??_C@_0EM@GAHLBDJG@c?3?2users?2nhv90?2projects?2eech?2ap@
  004c7	8b 0d 00 00 00
	00		 mov	 ecx, DWORD PTR ?overload_invalid_int_type_message@@3PBDB ; overload_invalid_int_type_message
  004cd	51		 push	 ecx
  004ce	e8 00 00 00 00	 call	 ?process_assert@@YGXPBD0H@Z ; process_assert
  004d3	c7 45 a4 00 00
	00 00		 mov	 DWORD PTR tv255[ebp], 0
$LN58@update_hin:
  004da	68 80 00 00 00	 push	 128			; 00000080H
  004df	8b 55 fc	 mov	 edx, DWORD PTR _source$5[ebp]
  004e2	52		 push	 edx
  004e3	69 45 a8 5c 04
	00 00		 imul	 eax, DWORD PTR tv248[ebp], 1116
  004ea	8b 4d a4	 mov	 ecx, DWORD PTR tv255[ebp]
  004ed	8b 94 88 00 00
	00 00		 mov	 edx, DWORD PTR ?fn_get_local_entity_int_value@@3PAY0BBH@P6GHPAUENTITY@@W4INT_TYPES@@@ZA[eax+ecx*4]
  004f4	ff d2		 call	 edx
  004f6	39 45 ec	 cmp	 DWORD PTR _los_to_target$1[ebp], eax
  004f9	0f 84 92 00 00
	00		 je	 $LN1@update_hin

; 479  : 		{
; 480  : 			set_client_server_entity_int_value (source, INT_TYPE_LOS_TO_TARGET, los_to_target);

  004ff	83 7d fc 00	 cmp	 DWORD PTR _source$5[ebp], 0
  00503	74 0a		 je	 SHORT $LN59@update_hin
  00505	8b 45 fc	 mov	 eax, DWORD PTR _source$5[ebp]
  00508	8b 08		 mov	 ecx, DWORD PTR [eax]
  0050a	89 4d a8	 mov	 DWORD PTR tv268[ebp], ecx
  0050d	eb 24		 jmp	 SHORT $LN60@update_hin
$LN59@update_hin:
  0050f	8b 15 00 00 00
	00		 mov	 edx, DWORD PTR ?__LINE__Var@?0??update_hind_target_acquisition_system@@YGXXZ@4JA
  00515	81 c2 b9 00 00
	00		 add	 edx, 185		; 000000b9H
  0051b	52		 push	 edx
  0051c	68 00 00 00 00	 push	 OFFSET ??_C@_0EM@GAHLBDJG@c?3?2users?2nhv90?2projects?2eech?2ap@
  00521	a1 00 00 00 00	 mov	 eax, DWORD PTR ?null_entity_pointer_message@@3PBDB ; null_entity_pointer_message
  00526	50		 push	 eax
  00527	e8 00 00 00 00	 call	 ?process_assert@@YGXPBD0H@Z ; process_assert
  0052c	c7 45 a8 00 00
	00 00		 mov	 DWORD PTR tv268[ebp], 0
$LN60@update_hin:
  00533	b9 01 00 00 00	 mov	 ecx, 1
  00538	85 c9		 test	 ecx, ecx
  0053a	74 09		 je	 SHORT $LN61@update_hin
  0053c	c7 45 a4 80 00
	00 00		 mov	 DWORD PTR tv276[ebp], 128 ; 00000080H
  00543	eb 24		 jmp	 SHORT $LN62@update_hin
$LN61@update_hin:
  00545	8b 15 00 00 00
	00		 mov	 edx, DWORD PTR ?__LINE__Var@?0??update_hind_target_acquisition_system@@YGXXZ@4JA
  0054b	81 c2 b9 00 00
	00		 add	 edx, 185		; 000000b9H
  00551	52		 push	 edx
  00552	68 00 00 00 00	 push	 OFFSET ??_C@_0EM@GAHLBDJG@c?3?2users?2nhv90?2projects?2eech?2ap@
  00557	a1 00 00 00 00	 mov	 eax, DWORD PTR ?overload_invalid_int_type_message@@3PBDB ; overload_invalid_int_type_message
  0055c	50		 push	 eax
  0055d	e8 00 00 00 00	 call	 ?process_assert@@YGXPBD0H@Z ; process_assert
  00562	c7 45 a4 00 00
	00 00		 mov	 DWORD PTR tv276[ebp], 0
$LN62@update_hin:
  00569	8b 4d ec	 mov	 ecx, DWORD PTR _los_to_target$1[ebp]
  0056c	51		 push	 ecx
  0056d	68 80 00 00 00	 push	 128			; 00000080H
  00572	8b 55 fc	 mov	 edx, DWORD PTR _source$5[ebp]
  00575	52		 push	 edx
  00576	69 45 a8 b8 08
	00 00		 imul	 eax, DWORD PTR tv268[ebp], 2232
  0057d	8b 4d a4	 mov	 ecx, DWORD PTR tv276[ebp]
  00580	8d 94 c8 00 00
	00 00		 lea	 edx, DWORD PTR ?fn_set_client_server_entity_int_value@@3PAY1BBH@1P6GXPAUENTITY@@W4INT_TYPES@@H@ZA[eax+ecx*8]
  00587	a1 00 00 00 00	 mov	 eax, DWORD PTR ?system_comms_model@@3W4COMMS_MODEL_TYPES@@A ; system_comms_model
  0058c	8b 0c 82	 mov	 ecx, DWORD PTR [edx+eax*4]
  0058f	ff d1		 call	 ecx
$LN1@update_hin:

; 481  : 		}
; 482  : 	}
; 483  : }

  00591	5f		 pop	 edi
  00592	5e		 pop	 esi
  00593	5b		 pop	 ebx
  00594	8b e5		 mov	 esp, ebp
  00596	5d		 pop	 ebp
  00597	c3		 ret	 0
$LN65@update_hin:
  00598	00 00 00 00	 DD	 $LN8@update_hin
  0059c	00 00 00 00	 DD	 $LN11@update_hin
  005a0	00 00 00 00	 DD	 $LN12@update_hin
  005a4	00 00 00 00	 DD	 $LN13@update_hin
  005a8	00 00 00 00	 DD	 $LN2@update_hin
$LN63@update_hin:
  005ac	00		 DB	 0
  005ad	04		 DB	 4
  005ae	04		 DB	 4
  005af	01		 DB	 1
  005b0	04		 DB	 4
  005b1	04		 DB	 4
  005b2	02		 DB	 2
  005b3	04		 DB	 4
  005b4	04		 DB	 4
  005b5	04		 DB	 4
  005b6	03		 DB	 3
  005b7	90		 npad	 1
$LN66@update_hin:
  005b8	00 00 00 00	 DD	 $LN23@update_hin
  005bc	00 00 00 00	 DD	 $LN24@update_hin
  005c0	00 00 00 00	 DD	 $LN25@update_hin
  005c4	00 00 00 00	 DD	 $LN26@update_hin
  005c8	00 00 00 00	 DD	 $LN4@update_hin
$LN64@update_hin:
  005cc	00		 DB	 0
  005cd	01		 DB	 1
  005ce	01		 DB	 1
  005cf	02		 DB	 2
  005d0	04		 DB	 4
  005d1	04		 DB	 4
  005d2	02		 DB	 2
  005d3	04		 DB	 4
  005d4	04		 DB	 4
  005d5	04		 DB	 4
  005d6	03		 DB	 3
?update_hind_target_acquisition_system@@YGXXZ ENDP	; update_hind_target_acquisition_system
_TEXT	ENDS
; Function compile flags: /Odtp /ZI
; File c:\users\nhv90\projects\eech\aphavoc\source\gunships\avionics\hind\hi_tgt.c
;	COMDAT ?select_hind_target_acquisition_system@@YGXW4TARGET_ACQUISITION_SYSTEMS@@@Z
_TEXT	SEGMENT
tv65 = -80						; size = 4
_damaged$ = -12						; size = 4
_old_system$ = -8					; size = 4
_new_system$ = -4					; size = 4
_system$ = 8						; size = 4
?select_hind_target_acquisition_system@@YGXW4TARGET_ACQUISITION_SYSTEMS@@@Z PROC ; select_hind_target_acquisition_system, COMDAT

; 175  : {

  00000	55		 push	 ebp
  00001	8b ec		 mov	 ebp, esp
  00003	83 ec 50	 sub	 esp, 80			; 00000050H
  00006	53		 push	 ebx
  00007	56		 push	 esi
  00008	57		 push	 edi

; 176  : 	target_acquisition_systems
; 177  : 		new_system,
; 178  : 		old_system;
; 179  : 
; 180  : 	int
; 181  : 		damaged;
; 182  : 
; 183  : 	new_system = system;

  00009	8b 45 08	 mov	 eax, DWORD PTR _system$[ebp]
  0000c	89 45 fc	 mov	 DWORD PTR _new_system$[ebp], eax

; 184  : 	old_system = target_acquisition_system;

  0000f	a1 00 00 00 00	 mov	 eax, DWORD PTR ?target_acquisition_system@@3W4TARGET_ACQUISITION_SYSTEMS@@A ; target_acquisition_system
  00014	89 45 f8	 mov	 DWORD PTR _old_system$[ebp], eax

; 185  : 
; 186  : 	damaged = FALSE;

  00017	c7 45 f4 00 00
	00 00		 mov	 DWORD PTR _damaged$[ebp], 0

; 187  : 
; 188  : 	reset_common_target_acquisition_system_keys ();

  0001e	e8 00 00 00 00	 call	 ?reset_common_target_acquisition_system_keys@@YGXXZ ; reset_common_target_acquisition_system_keys

; 189  : 
; 190  : 	deselect_hind_target_acquisition_system (target_acquisition_system);

  00023	a1 00 00 00 00	 mov	 eax, DWORD PTR ?target_acquisition_system@@3W4TARGET_ACQUISITION_SYSTEMS@@A ; target_acquisition_system
  00028	50		 push	 eax
  00029	e8 00 00 00 00	 call	 ?deselect_hind_target_acquisition_system@@YGXW4TARGET_ACQUISITION_SYSTEMS@@@Z ; deselect_hind_target_acquisition_system

; 191  : 
; 192  : 	switch (system)

  0002e	8b 45 08	 mov	 eax, DWORD PTR _system$[ebp]
  00031	89 45 b0	 mov	 DWORD PTR tv65[ebp], eax
  00034	83 7d b0 0a	 cmp	 DWORD PTR tv65[ebp], 10	; 0000000aH
  00038	0f 87 d8 00 00
	00		 ja	 $LN13@select_hin
  0003e	8b 4d b0	 mov	 ecx, DWORD PTR tv65[ebp]
  00041	ff 24 8d 00 00
	00 00		 jmp	 DWORD PTR $LN15@select_hin[ecx*4]
$LN4@select_hin:

; 193  : 	{
; 194  : 		////////////////////////////////////////
; 195  : 		case TARGET_ACQUISITION_SYSTEM_OFF:
; 196  : 		////////////////////////////////////////
; 197  : 		{
; 198  : 			target_acquisition_system = system;

  00048	8b 45 08	 mov	 eax, DWORD PTR _system$[ebp]
  0004b	a3 00 00 00 00	 mov	 DWORD PTR ?target_acquisition_system@@3W4TARGET_ACQUISITION_SYSTEMS@@A, eax ; target_acquisition_system

; 199  : 
; 200  : 			set_gunship_target (NULL);

  00050	6a 00		 push	 0
  00052	e8 00 00 00 00	 call	 ?set_gunship_target@@YGXPAUENTITY@@@Z ; set_gunship_target

; 201  : 
; 202  : 			#if 0
; 203  : 
; 204  : 			hud_mode = HUD_MODE_NAVIGATION;
; 205  : 
; 206  : 			#endif
; 207  : 
; 208  : 			break;

  00057	e9 cb 00 00 00	 jmp	 $LN2@select_hin
$LN5@select_hin:

; 209  : 		}
; 210  : 		////////////////////////////////////////
; 211  : 		case TARGET_ACQUISITION_SYSTEM_GROUND_RADAR:
; 212  : 		////////////////////////////////////////
; 213  : 		{
; 214  : 			damaged = hind_damage.radar;

  0005c	a1 00 00 00 00	 mov	 eax, DWORD PTR ?hind_damage@@3THIND_DAMAGE_FLAGS@@A ; hind_damage
  00061	83 e0 01	 and	 eax, 1
  00064	89 45 f4	 mov	 DWORD PTR _damaged$[ebp], eax

; 215  : 
; 216  : 			break;

  00067	e9 bb 00 00 00	 jmp	 $LN2@select_hin
$LN6@select_hin:

; 217  : 		}
; 218  : 		////////////////////////////////////////
; 219  : 		case TARGET_ACQUISITION_SYSTEM_AIR_RADAR:
; 220  : 		////////////////////////////////////////
; 221  : 		{
; 222  : 			damaged = hind_damage.radar;

  0006c	a1 00 00 00 00	 mov	 eax, DWORD PTR ?hind_damage@@3THIND_DAMAGE_FLAGS@@A ; hind_damage
  00071	83 e0 01	 and	 eax, 1
  00074	89 45 f4	 mov	 DWORD PTR _damaged$[ebp], eax

; 223  : 
; 224  : 			break;

  00077	e9 ab 00 00 00	 jmp	 $LN2@select_hin
$LN7@select_hin:

; 225  : 		}
; 226  : 		////////////////////////////////////////
; 227  : 		case TARGET_ACQUISITION_SYSTEM_FLIR:
; 228  : 		////////////////////////////////////////
; 229  : 		{
; 230  : 			if (!hind_damage.flir)

  0007c	a1 00 00 00 00	 mov	 eax, DWORD PTR ?hind_damage@@3THIND_DAMAGE_FLAGS@@A ; hind_damage
  00081	d1 e8		 shr	 eax, 1
  00083	83 e0 01	 and	 eax, 1
  00086	75 17		 jne	 SHORT $LN8@select_hin

; 231  : 			{
; 232  : 				target_acquisition_system = system;

  00088	8b 45 08	 mov	 eax, DWORD PTR _system$[ebp]
  0008b	a3 00 00 00 00	 mov	 DWORD PTR ?target_acquisition_system@@3W4TARGET_ACQUISITION_SYSTEMS@@A, eax ; target_acquisition_system

; 233  : 
; 234  : 				activate_common_eo ();

  00090	e8 00 00 00 00	 call	 ?activate_common_eo@@YGXXZ ; activate_common_eo

; 235  : 
; 236  : 				hud_mode = HUD_MODE_WEAPON;

  00095	c7 05 00 00 00
	00 02 00 00 00	 mov	 DWORD PTR ?hud_mode@@3W4HUD_MODES@@A, 2 ; hud_mode
$LN8@select_hin:

; 237  : 			}
; 238  : 
; 239  : 			damaged = hind_damage.flir;

  0009f	a1 00 00 00 00	 mov	 eax, DWORD PTR ?hind_damage@@3THIND_DAMAGE_FLAGS@@A ; hind_damage
  000a4	d1 e8		 shr	 eax, 1
  000a6	83 e0 01	 and	 eax, 1
  000a9	89 45 f4	 mov	 DWORD PTR _damaged$[ebp], eax

; 240  : 
; 241  : 			break;

  000ac	eb 79		 jmp	 SHORT $LN2@select_hin
$LN9@select_hin:

; 242  : 		}
; 243  : 		////////////////////////////////////////
; 244  : 		case TARGET_ACQUISITION_SYSTEM_LLLTV:
; 245  : 		////////////////////////////////////////
; 246  : 		{
; 247  : 			if (!hind_damage.llltv)

  000ae	a1 00 00 00 00	 mov	 eax, DWORD PTR ?hind_damage@@3THIND_DAMAGE_FLAGS@@A ; hind_damage
  000b3	c1 e8 03	 shr	 eax, 3
  000b6	83 e0 01	 and	 eax, 1
  000b9	75 17		 jne	 SHORT $LN10@select_hin

; 248  : 			{
; 249  : 				target_acquisition_system = system;

  000bb	8b 45 08	 mov	 eax, DWORD PTR _system$[ebp]
  000be	a3 00 00 00 00	 mov	 DWORD PTR ?target_acquisition_system@@3W4TARGET_ACQUISITION_SYSTEMS@@A, eax ; target_acquisition_system

; 250  : 
; 251  : 				activate_common_eo ();

  000c3	e8 00 00 00 00	 call	 ?activate_common_eo@@YGXXZ ; activate_common_eo

; 252  : 
; 253  : 				hud_mode = HUD_MODE_WEAPON;

  000c8	c7 05 00 00 00
	00 02 00 00 00	 mov	 DWORD PTR ?hud_mode@@3W4HUD_MODES@@A, 2 ; hud_mode
$LN10@select_hin:

; 254  : 			}
; 255  : 
; 256  : 			damaged = hind_damage.llltv;

  000d2	a1 00 00 00 00	 mov	 eax, DWORD PTR ?hind_damage@@3THIND_DAMAGE_FLAGS@@A ; hind_damage
  000d7	c1 e8 03	 shr	 eax, 3
  000da	83 e0 01	 and	 eax, 1
  000dd	89 45 f4	 mov	 DWORD PTR _damaged$[ebp], eax

; 257  : 
; 258  : 			break;

  000e0	eb 45		 jmp	 SHORT $LN2@select_hin
$LN11@select_hin:

; 259  : 		}
; 260  : 		////////////////////////////////////////
; 261  : 		case TARGET_ACQUISITION_SYSTEM_HMS:
; 262  : 		////////////////////////////////////////
; 263  : 		{
; 264  : 			if (!hind_damage.helmet_mounted_sight)

  000e2	a1 00 00 00 00	 mov	 eax, DWORD PTR ?hind_damage@@3THIND_DAMAGE_FLAGS@@A ; hind_damage
  000e7	c1 e8 11	 shr	 eax, 17			; 00000011H
  000ea	83 e0 01	 and	 eax, 1
  000ed	75 17		 jne	 SHORT $LN12@select_hin

; 265  : 			{
; 266  : 				target_acquisition_system = system;

  000ef	8b 45 08	 mov	 eax, DWORD PTR _system$[ebp]
  000f2	a3 00 00 00 00	 mov	 DWORD PTR ?target_acquisition_system@@3W4TARGET_ACQUISITION_SYSTEMS@@A, eax ; target_acquisition_system

; 267  : 
; 268  : 				activate_common_hms ();

  000f7	e8 00 00 00 00	 call	 ?activate_common_hms@@YGXXZ ; activate_common_hms

; 269  : 
; 270  : 				hud_mode = HUD_MODE_WEAPON;

  000fc	c7 05 00 00 00
	00 02 00 00 00	 mov	 DWORD PTR ?hud_mode@@3W4HUD_MODES@@A, 2 ; hud_mode
$LN12@select_hin:

; 271  : 			}
; 272  : 
; 273  : 			damaged = hind_damage.helmet_mounted_sight;

  00106	a1 00 00 00 00	 mov	 eax, DWORD PTR ?hind_damage@@3THIND_DAMAGE_FLAGS@@A ; hind_damage
  0010b	c1 e8 11	 shr	 eax, 17			; 00000011H
  0010e	83 e0 01	 and	 eax, 1
  00111	89 45 f4	 mov	 DWORD PTR _damaged$[ebp], eax

; 274  : 
; 275  : 			break;

  00114	eb 11		 jmp	 SHORT $LN2@select_hin
$LN13@select_hin:

; 276  : 		}
; 277  : 		////////////////////////////////////////
; 278  : 		default:
; 279  : 		////////////////////////////////////////
; 280  : 		{
; 281  : 			debug_fatal ("Invalid target acquisition system = %d", system);

  00116	8b 45 08	 mov	 eax, DWORD PTR _system$[ebp]
  00119	50		 push	 eax
  0011a	68 00 00 00 00	 push	 OFFSET ??_C@_0CH@DDKDNBNH@Invalid?5target?5acquisition?5syst@
  0011f	e8 00 00 00 00	 call	 ?debug_fatal@@YAXPBDZZ	; debug_fatal
  00124	83 c4 08	 add	 esp, 8
$LN2@select_hin:

; 282  : 
; 283  : 			break;
; 284  : 		}
; 285  : 	}
; 286  : 
; 287  : 	play_common_cpg_target_acquisition_system_speech (new_system, old_system, damaged);

  00127	8b 45 f4	 mov	 eax, DWORD PTR _damaged$[ebp]
  0012a	50		 push	 eax
  0012b	8b 4d f8	 mov	 ecx, DWORD PTR _old_system$[ebp]
  0012e	51		 push	 ecx
  0012f	8b 55 fc	 mov	 edx, DWORD PTR _new_system$[ebp]
  00132	52		 push	 edx
  00133	e8 00 00 00 00	 call	 ?play_common_cpg_target_acquisition_system_speech@@YGXW4TARGET_ACQUISITION_SYSTEMS@@0H@Z ; play_common_cpg_target_acquisition_system_speech

; 288  : }

  00138	5f		 pop	 edi
  00139	5e		 pop	 esi
  0013a	5b		 pop	 ebx
  0013b	8b e5		 mov	 esp, ebp
  0013d	5d		 pop	 ebp
  0013e	c2 04 00	 ret	 4
  00141	0f 1f 00	 npad	 3
$LN15@select_hin:
  00144	00 00 00 00	 DD	 $LN4@select_hin
  00148	00 00 00 00	 DD	 $LN5@select_hin
  0014c	00 00 00 00	 DD	 $LN6@select_hin
  00150	00 00 00 00	 DD	 $LN7@select_hin
  00154	00 00 00 00	 DD	 $LN13@select_hin
  00158	00 00 00 00	 DD	 $LN13@select_hin
  0015c	00 00 00 00	 DD	 $LN9@select_hin
  00160	00 00 00 00	 DD	 $LN13@select_hin
  00164	00 00 00 00	 DD	 $LN13@select_hin
  00168	00 00 00 00	 DD	 $LN13@select_hin
  0016c	00 00 00 00	 DD	 $LN11@select_hin
?select_hind_target_acquisition_system@@YGXW4TARGET_ACQUISITION_SYSTEMS@@@Z ENDP ; select_hind_target_acquisition_system
_TEXT	ENDS
; Function compile flags: /Odtp /ZI
; File c:\users\nhv90\projects\eech\aphavoc\source\gunships\avionics\hind\hi_tgt.c
;	COMDAT ?deinitialise_hind_target_acquisition_systems@@YGXXZ
_TEXT	SEGMENT
?deinitialise_hind_target_acquisition_systems@@YGXXZ PROC ; deinitialise_hind_target_acquisition_systems, COMDAT

; 93   : {

  00000	55		 push	 ebp
  00001	8b ec		 mov	 ebp, esp
  00003	83 ec 40	 sub	 esp, 64			; 00000040H
  00006	53		 push	 ebx
  00007	56		 push	 esi
  00008	57		 push	 edi

; 94   : 	deinitialise_hind_radar ();

  00009	e8 00 00 00 00	 call	 ?deinitialise_hind_radar@@YGXXZ ; deinitialise_hind_radar

; 95   : 
; 96   : 	deinitialise_hind_eo ();

  0000e	e8 00 00 00 00	 call	 ?deinitialise_hind_eo@@YGXXZ ; deinitialise_hind_eo

; 97   : 
; 98   : 	deinitialise_hind_hms ();

  00013	e8 00 00 00 00	 call	 ?deinitialise_hind_hms@@YGXXZ ; deinitialise_hind_hms

; 99   : }

  00018	5f		 pop	 edi
  00019	5e		 pop	 esi
  0001a	5b		 pop	 ebx
  0001b	8b e5		 mov	 esp, ebp
  0001d	5d		 pop	 ebp
  0001e	c3		 ret	 0
?deinitialise_hind_target_acquisition_systems@@YGXXZ ENDP ; deinitialise_hind_target_acquisition_systems
_TEXT	ENDS
; Function compile flags: /Odtp /ZI
; File c:\users\nhv90\projects\eech\aphavoc\source\gunships\avionics\hind\hi_tgt.c
;	COMDAT ?initialise_hind_target_acquisition_systems@@YGXXZ
_TEXT	SEGMENT
?initialise_hind_target_acquisition_systems@@YGXXZ PROC	; initialise_hind_target_acquisition_systems, COMDAT

; 80   : {

  00000	55		 push	 ebp
  00001	8b ec		 mov	 ebp, esp
  00003	83 ec 40	 sub	 esp, 64			; 00000040H
  00006	53		 push	 ebx
  00007	56		 push	 esi
  00008	57		 push	 edi

; 81   : 	initialise_hind_radar ();

  00009	e8 00 00 00 00	 call	 ?initialise_hind_radar@@YGXXZ ; initialise_hind_radar

; 82   : 
; 83   : 	initialise_hind_eo ();

  0000e	e8 00 00 00 00	 call	 ?initialise_hind_eo@@YGXXZ ; initialise_hind_eo

; 84   : 
; 85   : 	initialise_hind_hms ();

  00013	e8 00 00 00 00	 call	 ?initialise_hind_hms@@YGXXZ ; initialise_hind_hms

; 86   : }

  00018	5f		 pop	 edi
  00019	5e		 pop	 esi
  0001a	5b		 pop	 ebx
  0001b	8b e5		 mov	 esp, ebp
  0001d	5d		 pop	 ebp
  0001e	c3		 ret	 0
?initialise_hind_target_acquisition_systems@@YGXXZ ENDP	; initialise_hind_target_acquisition_systems
_TEXT	ENDS
END
