; Listing generated by Microsoft (R) Optimizing Compiler Version 19.16.27045.0 

	TITLE	C:\Users\nhv90\Projects\eech\aphavoc\source\gunships\cockpits\hind\hi_wiper.c
	.686P
	.XMM
	include listing.inc
	.model	flat

INCLUDELIB MSVCRTD
INCLUDELIB OLDNAMES

PUBLIC	?initialise_hind_virtual_cockpit_wiper_and_rain_effect@@YGXXZ ; initialise_hind_virtual_cockpit_wiper_and_rain_effect
PUBLIC	?deinitialise_hind_virtual_cockpit_wiper_and_rain_effect@@YGXXZ ; deinitialise_hind_virtual_cockpit_wiper_and_rain_effect
PUBLIC	?draw_hind_virtual_cockpit_wiper@@YGXPAUVIEWPOINT@@H@Z ; draw_hind_virtual_cockpit_wiper
PUBLIC	?draw_hind_virtual_cockpit_rain_effect@@YGXPAUVIEWPOINT@@H@Z ; draw_hind_virtual_cockpit_rain_effect
PUBLIC	?animate_hind_external_wipers@@YGXPAUOBJECT_3D_INSTANCE@@@Z ; animate_hind_external_wipers
PUBLIC	?__LINE__Var@?0??draw_hind_virtual_cockpit_wiper@@YGXPAUVIEWPOINT@@H@Z@4JA ; `draw_hind_virtual_cockpit_wiper'::`1'::__LINE__Var
PUBLIC	??_C@_0EO@JBPNJFJG@c?3?2users?2nhv90?2projects?2eech?2ap@ ; `string'
PUBLIC	??_C@_02HPPNELPJ@vp@				; `string'
PUBLIC	?__LINE__Var@?0??draw_hind_virtual_cockpit_rain_effect@@YGXPAUVIEWPOINT@@H@Z@4JA ; `draw_hind_virtual_cockpit_rain_effect'::`1'::__LINE__Var
PUBLIC	__real@3f8241fb1a44e09d
PUBLIC	__real@3f89227c018f6426
PUBLIC	__real@3fb4fff2fc000000
PUBLIC	__real@3fb6571848000000
PUBLIC	__real@bf84e206eaa53475
PUBLIC	__real@bf8bed6d571119f1
EXTRN	_memcpy:PROC
EXTRN	?process_assert@@YGXPBD0H@Z:PROC		; process_assert
EXTRN	?create_screen_for_system_texture@@YGPAUSCREEN@@H@Z:PROC ; create_screen_for_system_texture
EXTRN	?destroy_screen@@YGHPAUSCREEN@@@Z:PROC		; destroy_screen
EXTRN	?construct_3d_object@@YGPAUOBJECT_3D_INSTANCE@@H@Z:PROC ; construct_3d_object
EXTRN	?destruct_3d_object@@YGXPAUOBJECT_3D_INSTANCE@@@Z:PROC ; destruct_3d_object
EXTRN	?insert_zbiased_relative_object_into_3d_scene@@YGXW4OBJECT_3D_DRAWING_TYPES@@PAUVEC3D@@PAXM@Z:PROC ; insert_zbiased_relative_object_into_3d_scene
EXTRN	?find_object_3d_sub_object@@YG?AW4SUB_OBJECT_SEARCH_RESULT_TYPES@@PAUOBJECT_3D_SUB_OBJECT_SEARCH_DATA@@@Z:PROC ; find_object_3d_sub_object
EXTRN	?global_options@@3UGLOBAL_OPTIONS_DATA@@A:BYTE	; global_options
EXTRN	?pilot_wiped_rain_texture_screen@@3PAUSCREEN@@A:DWORD ; pilot_wiped_rain_texture_screen
EXTRN	?co_pilot_wiped_rain_texture_screen@@3PAUSCREEN@@A:DWORD ; co_pilot_wiped_rain_texture_screen
EXTRN	?pilot_wiper@@3HA:DWORD				; pilot_wiper
EXTRN	?co_pilot_wiper@@3HA:DWORD			; co_pilot_wiper
EXTRN	?pilot_wipe_type@@3W4WIPE_TYPES@@A:DWORD	; pilot_wipe_type
EXTRN	?co_pilot_wipe_type@@3W4WIPE_TYPES@@A:DWORD	; co_pilot_wipe_type
EXTRN	?wiper_position@@3MA:DWORD			; wiper_position
EXTRN	__fltused:DWORD
_BSS	SEGMENT
?virtual_cockpit_wiper_arm_inst3d@@3PAUOBJECT_3D_INSTANCE@@A DD 01H DUP (?) ; virtual_cockpit_wiper_arm_inst3d
?virtual_cockpit_wiper_rod_inst3d@@3PAUOBJECT_3D_INSTANCE@@A DD 01H DUP (?) ; virtual_cockpit_wiper_rod_inst3d
?virtual_cockpit_large_hud_wiper_arm_inst3d@@3PAUOBJECT_3D_INSTANCE@@A DD 01H DUP (?) ; virtual_cockpit_large_hud_wiper_arm_inst3d
?virtual_cockpit_large_hud_wiper_rod_inst3d@@3PAUOBJECT_3D_INSTANCE@@A DD 01H DUP (?) ; virtual_cockpit_large_hud_wiper_rod_inst3d
?virtual_cockpit_rain_effect_inst3d@@3PAUOBJECT_3D_INSTANCE@@A DD 01H DUP (?) ; virtual_cockpit_rain_effect_inst3d
?virtual_cockpit_large_hud_rain_effect_inst3d@@3PAUOBJECT_3D_INSTANCE@@A DD 01H DUP (?) ; virtual_cockpit_large_hud_rain_effect_inst3d
_BSS	ENDS
;	COMDAT __real@bf8bed6d571119f1
CONST	SEGMENT
__real@bf8bed6d571119f1 DQ 0bf8bed6d571119f1r	; -0.0136365
CONST	ENDS
;	COMDAT __real@bf84e206eaa53475
CONST	SEGMENT
__real@bf84e206eaa53475 DQ 0bf84e206eaa53475r	; -0.0101967
CONST	ENDS
;	COMDAT __real@3fb6571848000000
CONST	SEGMENT
__real@3fb6571848000000 DQ 03fb6571848000000r	; 0.0872665
CONST	ENDS
;	COMDAT __real@3fb4fff2fc000000
CONST	SEGMENT
__real@3fb4fff2fc000000 DQ 03fb4fff2fc000000r	; 0.0820305
CONST	ENDS
;	COMDAT __real@3f89227c018f6426
CONST	SEGMENT
__real@3f89227c018f6426 DQ 03f89227c018f6426r	; 0.0122728
CONST	ENDS
;	COMDAT __real@3f8241fb1a44e09d
CONST	SEGMENT
__real@3f8241fb1a44e09d DQ 03f8241fb1a44e09dr	; 0.00891491
CONST	ENDS
;	COMDAT ?__LINE__Var@?0??draw_hind_virtual_cockpit_rain_effect@@YGXPAUVIEWPOINT@@H@Z@4JA
_DATA	SEGMENT
?__LINE__Var@?0??draw_hind_virtual_cockpit_rain_effect@@YGXPAUVIEWPOINT@@H@Z@4JA DD 0e2H ; `draw_hind_virtual_cockpit_rain_effect'::`1'::__LINE__Var
_DATA	ENDS
;	COMDAT ??_C@_02HPPNELPJ@vp@
CONST	SEGMENT
??_C@_02HPPNELPJ@vp@ DB 'vp', 00H			; `string'
CONST	ENDS
;	COMDAT ??_C@_0EO@JBPNJFJG@c?3?2users?2nhv90?2projects?2eech?2ap@
CONST	SEGMENT
??_C@_0EO@JBPNJFJG@c?3?2users?2nhv90?2projects?2eech?2ap@ DB 'c:\users\nh'
	DB	'v90\projects\eech\aphavoc\source\gunships\cockpits\hind\hi_wi'
	DB	'per.c', 00H					; `string'
CONST	ENDS
;	COMDAT ?__LINE__Var@?0??draw_hind_virtual_cockpit_wiper@@YGXPAUVIEWPOINT@@H@Z@4JA
_DATA	SEGMENT
?__LINE__Var@?0??draw_hind_virtual_cockpit_wiper@@YGXPAUVIEWPOINT@@H@Z@4JA DD 090H ; `draw_hind_virtual_cockpit_wiper'::`1'::__LINE__Var
_DATA	ENDS
; Function compile flags: /Odtp /ZI
; File c:\users\nhv90\projects\eech\aphavoc\source\gunships\cockpits\hind\hi_wiper.c
;	COMDAT ?animate_hind_external_wipers@@YGXPAUOBJECT_3D_INSTANCE@@@Z
_TEXT	SEGMENT
_search$ = -56						; size = 56
_inst3d$ = 8						; size = 4
?animate_hind_external_wipers@@YGXPAUOBJECT_3D_INSTANCE@@@Z PROC ; animate_hind_external_wipers, COMDAT

; 251  : {

  00000	55		 push	 ebp
  00001	8b ec		 mov	 ebp, esp
  00003	83 ec 78	 sub	 esp, 120		; 00000078H
  00006	53		 push	 ebx
  00007	56		 push	 esi
  00008	57		 push	 edi

; 252  : 	object_3d_sub_object_search_data
; 253  : 		search;
; 254  : 
; 255  : 	////////////////////////////////////////
; 256  : 	//
; 257  : 	// pilot's wipers
; 258  : 	//
; 259  : 	////////////////////////////////////////
; 260  : 
; 261  : 	search.search_depth = 0;

  00009	c7 45 d0 00 00
	00 00		 mov	 DWORD PTR _search$[ebp+8], 0

; 262  : 	search.search_object = inst3d;

  00010	8b 45 08	 mov	 eax, DWORD PTR _inst3d$[ebp]
  00013	89 45 c8	 mov	 DWORD PTR _search$[ebp], eax

; 263  : 	search.sub_object_index = OBJECT_3D_SUB_OBJECT_WIPER_ARM_PILOT;

  00016	c7 45 d4 3a 00
	00 00		 mov	 DWORD PTR _search$[ebp+12], 58 ; 0000003aH

; 264  : 
; 265  : 	if (find_object_3d_sub_object (&search) == SUB_OBJECT_SEARCH_RESULT_OBJECT_FOUND)

  0001d	8d 45 c8	 lea	 eax, DWORD PTR _search$[ebp]
  00020	50		 push	 eax
  00021	e8 00 00 00 00	 call	 ?find_object_3d_sub_object@@YG?AW4SUB_OBJECT_SEARCH_RESULT_TYPES@@PAUOBJECT_3D_SUB_OBJECT_SEARCH_DATA@@@Z ; find_object_3d_sub_object
  00026	83 f8 01	 cmp	 eax, 1
  00029	75 1c		 jne	 SHORT $LN2@animate_hi

; 266  : 	{
; 267  : 		search.result_sub_object->relative_roll = wiper_position * (rad (65.3756) / MAX_WIPER_POSITION);

  0002b	f3 0f 5a 05 00
	00 00 00	 cvtss2sd xmm0, DWORD PTR ?wiper_position@@3MA
  00033	f2 0f 59 05 00
	00 00 00	 mulsd	 xmm0, QWORD PTR __real@3f8241fb1a44e09d
  0003b	f2 0f 5a c0	 cvtsd2ss xmm0, xmm0
  0003f	8b 45 cc	 mov	 eax, DWORD PTR _search$[ebp+4]
  00042	f3 0f 11 40 20	 movss	 DWORD PTR [eax+32], xmm0
$LN2@animate_hi:

; 268  : 	}
; 269  : 
; 270  : 	search.search_depth = 0;

  00047	c7 45 d0 00 00
	00 00		 mov	 DWORD PTR _search$[ebp+8], 0

; 271  : 	search.search_object = inst3d;

  0004e	8b 45 08	 mov	 eax, DWORD PTR _inst3d$[ebp]
  00051	89 45 c8	 mov	 DWORD PTR _search$[ebp], eax

; 272  : 	search.sub_object_index = OBJECT_3D_SUB_OBJECT_WIPER_BLADE_PILOT;

  00054	c7 45 d4 3d 00
	00 00		 mov	 DWORD PTR _search$[ebp+12], 61 ; 0000003dH

; 273  : 
; 274  : 	if (find_object_3d_sub_object (&search) == SUB_OBJECT_SEARCH_RESULT_OBJECT_FOUND)

  0005b	8d 45 c8	 lea	 eax, DWORD PTR _search$[ebp]
  0005e	50		 push	 eax
  0005f	e8 00 00 00 00	 call	 ?find_object_3d_sub_object@@YG?AW4SUB_OBJECT_SEARCH_RESULT_TYPES@@PAUOBJECT_3D_SUB_OBJECT_SEARCH_DATA@@@Z ; find_object_3d_sub_object
  00064	83 f8 01	 cmp	 eax, 1
  00067	75 24		 jne	 SHORT $LN3@animate_hi

; 275  : 	{
; 276  : 		search.result_sub_object->relative_roll = (wiper_position * (rad (-74.7756) / MAX_WIPER_POSITION)) + rad (4.7);

  00069	f3 0f 5a 05 00
	00 00 00	 cvtss2sd xmm0, DWORD PTR ?wiper_position@@3MA
  00071	f2 0f 59 05 00
	00 00 00	 mulsd	 xmm0, QWORD PTR __real@bf84e206eaa53475
  00079	f2 0f 58 05 00
	00 00 00	 addsd	 xmm0, QWORD PTR __real@3fb4fff2fc000000
  00081	f2 0f 5a c0	 cvtsd2ss xmm0, xmm0
  00085	8b 45 cc	 mov	 eax, DWORD PTR _search$[ebp+4]
  00088	f3 0f 11 40 20	 movss	 DWORD PTR [eax+32], xmm0
$LN3@animate_hi:

; 277  : 	}
; 278  : 
; 279  : 	////////////////////////////////////////
; 280  : 	//
; 281  : 	// co-pilot's wipers
; 282  : 	//
; 283  : 	////////////////////////////////////////
; 284  : 
; 285  : 	search.search_depth = 0;

  0008d	c7 45 d0 00 00
	00 00		 mov	 DWORD PTR _search$[ebp+8], 0

; 286  : 	search.search_object = inst3d;

  00094	8b 45 08	 mov	 eax, DWORD PTR _inst3d$[ebp]
  00097	89 45 c8	 mov	 DWORD PTR _search$[ebp], eax

; 287  : 	search.sub_object_index = OBJECT_3D_SUB_OBJECT_WIPER_ARM_COPILOT;

  0009a	c7 45 d4 3b 00
	00 00		 mov	 DWORD PTR _search$[ebp+12], 59 ; 0000003bH

; 288  : 
; 289  : 	if (find_object_3d_sub_object (&search) == SUB_OBJECT_SEARCH_RESULT_OBJECT_FOUND)

  000a1	8d 45 c8	 lea	 eax, DWORD PTR _search$[ebp]
  000a4	50		 push	 eax
  000a5	e8 00 00 00 00	 call	 ?find_object_3d_sub_object@@YG?AW4SUB_OBJECT_SEARCH_RESULT_TYPES@@PAUOBJECT_3D_SUB_OBJECT_SEARCH_DATA@@@Z ; find_object_3d_sub_object
  000aa	83 f8 01	 cmp	 eax, 1
  000ad	75 1c		 jne	 SHORT $LN4@animate_hi

; 290  : 	{
; 291  : 		search.result_sub_object->relative_roll = wiper_position * (rad (90.0) / MAX_WIPER_POSITION);

  000af	f3 0f 5a 05 00
	00 00 00	 cvtss2sd xmm0, DWORD PTR ?wiper_position@@3MA
  000b7	f2 0f 59 05 00
	00 00 00	 mulsd	 xmm0, QWORD PTR __real@3f89227c018f6426
  000bf	f2 0f 5a c0	 cvtsd2ss xmm0, xmm0
  000c3	8b 45 cc	 mov	 eax, DWORD PTR _search$[ebp+4]
  000c6	f3 0f 11 40 20	 movss	 DWORD PTR [eax+32], xmm0
$LN4@animate_hi:

; 292  : 	}
; 293  : 
; 294  : 	search.search_depth = 0;

  000cb	c7 45 d0 00 00
	00 00		 mov	 DWORD PTR _search$[ebp+8], 0

; 295  : 	search.search_object = inst3d;

  000d2	8b 45 08	 mov	 eax, DWORD PTR _inst3d$[ebp]
  000d5	89 45 c8	 mov	 DWORD PTR _search$[ebp], eax

; 296  : 	search.sub_object_index = OBJECT_3D_SUB_OBJECT_WIPER_BLADE_COPILOT;

  000d8	c7 45 d4 3e 00
	00 00		 mov	 DWORD PTR _search$[ebp+12], 62 ; 0000003eH

; 297  : 
; 298  : 	if (find_object_3d_sub_object (&search) == SUB_OBJECT_SEARCH_RESULT_OBJECT_FOUND)

  000df	8d 45 c8	 lea	 eax, DWORD PTR _search$[ebp]
  000e2	50		 push	 eax
  000e3	e8 00 00 00 00	 call	 ?find_object_3d_sub_object@@YG?AW4SUB_OBJECT_SEARCH_RESULT_TYPES@@PAUOBJECT_3D_SUB_OBJECT_SEARCH_DATA@@@Z ; find_object_3d_sub_object
  000e8	83 f8 01	 cmp	 eax, 1
  000eb	75 24		 jne	 SHORT $LN5@animate_hi

; 299  : 	{
; 300  : 		search.result_sub_object->relative_roll = (wiper_position * (rad (-100.0) / MAX_WIPER_POSITION)) + rad (5.0);

  000ed	f3 0f 5a 05 00
	00 00 00	 cvtss2sd xmm0, DWORD PTR ?wiper_position@@3MA
  000f5	f2 0f 59 05 00
	00 00 00	 mulsd	 xmm0, QWORD PTR __real@bf8bed6d571119f1
  000fd	f2 0f 58 05 00
	00 00 00	 addsd	 xmm0, QWORD PTR __real@3fb6571848000000
  00105	f2 0f 5a c0	 cvtsd2ss xmm0, xmm0
  00109	8b 45 cc	 mov	 eax, DWORD PTR _search$[ebp+4]
  0010c	f3 0f 11 40 20	 movss	 DWORD PTR [eax+32], xmm0
$LN5@animate_hi:

; 301  : 	}
; 302  : }

  00111	5f		 pop	 edi
  00112	5e		 pop	 esi
  00113	5b		 pop	 ebx
  00114	8b e5		 mov	 esp, ebp
  00116	5d		 pop	 ebp
  00117	c2 04 00	 ret	 4
?animate_hind_external_wipers@@YGXPAUOBJECT_3D_INSTANCE@@@Z ENDP ; animate_hind_external_wipers
_TEXT	ENDS
; Function compile flags: /Odtp /ZI
; File c:\users\nhv90\projects\eech\aphavoc\source\gunships\cockpits\hind\hi_wiper.c
;	COMDAT ?draw_hind_virtual_cockpit_rain_effect@@YGXPAUVIEWPOINT@@H@Z
_TEXT	SEGMENT
_vp$ = 8						; size = 4
_large_hud$ = 12					; size = 4
?draw_hind_virtual_cockpit_rain_effect@@YGXPAUVIEWPOINT@@H@Z PROC ; draw_hind_virtual_cockpit_rain_effect, COMDAT

; 226  : {

  00000	55		 push	 ebp
  00001	8b ec		 mov	 ebp, esp
  00003	83 ec 40	 sub	 esp, 64			; 00000040H
  00006	53		 push	 ebx
  00007	56		 push	 esi
  00008	57		 push	 edi

; 227  : 	ASSERT (vp);

  00009	83 7d 08 00	 cmp	 DWORD PTR _vp$[ebp], 0
  0000d	75 18		 jne	 SHORT $LN2@draw_hind_
  0000f	a1 00 00 00 00	 mov	 eax, DWORD PTR ?__LINE__Var@?0??draw_hind_virtual_cockpit_rain_effect@@YGXPAUVIEWPOINT@@H@Z@4JA
  00014	83 c0 01	 add	 eax, 1
  00017	50		 push	 eax
  00018	68 00 00 00 00	 push	 OFFSET ??_C@_0EO@JBPNJFJG@c?3?2users?2nhv90?2projects?2eech?2ap@
  0001d	68 00 00 00 00	 push	 OFFSET ??_C@_02HPPNELPJ@vp@
  00022	e8 00 00 00 00	 call	 ?process_assert@@YGXPBD0H@Z ; process_assert
$LN2@draw_hind_:

; 228  : 
; 229  : 	if (get_global_graphics_rain_textures_enabled ())

  00027	a1 50 00 00 00	 mov	 eax, DWORD PTR ?global_options@@3UGLOBAL_OPTIONS_DATA@@A+80
  0002c	c1 e8 02	 shr	 eax, 2
  0002f	83 e0 01	 and	 eax, 1
  00032	74 78		 je	 SHORT $LN5@draw_hind_

; 230  : 	{
; 231  : 		if (large_hud)

  00034	83 7d 0c 00	 cmp	 DWORD PTR _large_hud$[ebp], 0
  00038	74 3a		 je	 SHORT $LN4@draw_hind_

; 232  : 		{
; 233  : 			memcpy (&virtual_cockpit_large_hud_rain_effect_inst3d->vp, vp, sizeof (viewpoint));

  0003a	6a 30		 push	 48			; 00000030H
  0003c	8b 45 08	 mov	 eax, DWORD PTR _vp$[ebp]
  0003f	50		 push	 eax
  00040	8b 0d 00 00 00
	00		 mov	 ecx, DWORD PTR ?virtual_cockpit_large_hud_rain_effect_inst3d@@3PAUOBJECT_3D_INSTANCE@@A
  00046	83 c1 08	 add	 ecx, 8
  00049	51		 push	 ecx
  0004a	e8 00 00 00 00	 call	 _memcpy
  0004f	83 c4 0c	 add	 esp, 12			; 0000000cH

; 234  : 
; 235  : 			insert_relative_object_into_3d_scene (OBJECT_3D_DRAW_TYPE_ZBUFFERED_OBJECT, &virtual_cockpit_large_hud_rain_effect_inst3d->vp.position, virtual_cockpit_large_hud_rain_effect_inst3d);

  00052	51		 push	 ecx
  00053	0f 57 c0	 xorps	 xmm0, xmm0
  00056	f3 0f 11 04 24	 movss	 DWORD PTR [esp], xmm0
  0005b	a1 00 00 00 00	 mov	 eax, DWORD PTR ?virtual_cockpit_large_hud_rain_effect_inst3d@@3PAUOBJECT_3D_INSTANCE@@A
  00060	50		 push	 eax
  00061	8b 0d 00 00 00
	00		 mov	 ecx, DWORD PTR ?virtual_cockpit_large_hud_rain_effect_inst3d@@3PAUOBJECT_3D_INSTANCE@@A
  00067	83 c1 08	 add	 ecx, 8
  0006a	51		 push	 ecx
  0006b	6a 02		 push	 2
  0006d	e8 00 00 00 00	 call	 ?insert_zbiased_relative_object_into_3d_scene@@YGXW4OBJECT_3D_DRAWING_TYPES@@PAUVEC3D@@PAXM@Z ; insert_zbiased_relative_object_into_3d_scene

; 236  : 		}
; 237  : 		else

  00072	eb 38		 jmp	 SHORT $LN5@draw_hind_
$LN4@draw_hind_:

; 238  : 		{
; 239  : 			memcpy (&virtual_cockpit_rain_effect_inst3d->vp, vp, sizeof (viewpoint));

  00074	6a 30		 push	 48			; 00000030H
  00076	8b 45 08	 mov	 eax, DWORD PTR _vp$[ebp]
  00079	50		 push	 eax
  0007a	8b 0d 00 00 00
	00		 mov	 ecx, DWORD PTR ?virtual_cockpit_rain_effect_inst3d@@3PAUOBJECT_3D_INSTANCE@@A
  00080	83 c1 08	 add	 ecx, 8
  00083	51		 push	 ecx
  00084	e8 00 00 00 00	 call	 _memcpy
  00089	83 c4 0c	 add	 esp, 12			; 0000000cH

; 240  : 
; 241  : 			insert_relative_object_into_3d_scene (OBJECT_3D_DRAW_TYPE_ZBUFFERED_OBJECT, &virtual_cockpit_rain_effect_inst3d->vp.position, virtual_cockpit_rain_effect_inst3d);

  0008c	51		 push	 ecx
  0008d	0f 57 c0	 xorps	 xmm0, xmm0
  00090	f3 0f 11 04 24	 movss	 DWORD PTR [esp], xmm0
  00095	a1 00 00 00 00	 mov	 eax, DWORD PTR ?virtual_cockpit_rain_effect_inst3d@@3PAUOBJECT_3D_INSTANCE@@A
  0009a	50		 push	 eax
  0009b	8b 0d 00 00 00
	00		 mov	 ecx, DWORD PTR ?virtual_cockpit_rain_effect_inst3d@@3PAUOBJECT_3D_INSTANCE@@A
  000a1	83 c1 08	 add	 ecx, 8
  000a4	51		 push	 ecx
  000a5	6a 02		 push	 2
  000a7	e8 00 00 00 00	 call	 ?insert_zbiased_relative_object_into_3d_scene@@YGXW4OBJECT_3D_DRAWING_TYPES@@PAUVEC3D@@PAXM@Z ; insert_zbiased_relative_object_into_3d_scene
$LN5@draw_hind_:

; 242  : 		}
; 243  : 	}
; 244  : }

  000ac	5f		 pop	 edi
  000ad	5e		 pop	 esi
  000ae	5b		 pop	 ebx
  000af	8b e5		 mov	 esp, ebp
  000b1	5d		 pop	 ebp
  000b2	c2 08 00	 ret	 8
?draw_hind_virtual_cockpit_rain_effect@@YGXPAUVIEWPOINT@@H@Z ENDP ; draw_hind_virtual_cockpit_rain_effect
_TEXT	ENDS
; Function compile flags: /Odtp /ZI
; File c:\users\nhv90\projects\eech\aphavoc\source\gunships\cockpits\hind\hi_wiper.c
;	COMDAT ?draw_hind_virtual_cockpit_wiper@@YGXPAUVIEWPOINT@@H@Z
_TEXT	SEGMENT
_search$ = -64						; size = 56
_wiper_rod_inst3d$ = -8					; size = 4
_wiper_arm_inst3d$ = -4					; size = 4
_vp$ = 8						; size = 4
_large_hud$ = 12					; size = 4
?draw_hind_virtual_cockpit_wiper@@YGXPAUVIEWPOINT@@H@Z PROC ; draw_hind_virtual_cockpit_wiper, COMDAT

; 144  : {

  00000	55		 push	 ebp
  00001	8b ec		 mov	 ebp, esp
  00003	81 ec 80 00 00
	00		 sub	 esp, 128		; 00000080H
  00009	53		 push	 ebx
  0000a	56		 push	 esi
  0000b	57		 push	 edi

; 145  : 	object_3d_instance
; 146  : 		*wiper_arm_inst3d,
; 147  : 		*wiper_rod_inst3d;
; 148  : 
; 149  : 	object_3d_sub_object_search_data
; 150  : 		search;
; 151  : 
; 152  : 	ASSERT (vp);

  0000c	83 7d 08 00	 cmp	 DWORD PTR _vp$[ebp], 0
  00010	75 18		 jne	 SHORT $LN2@draw_hind_
  00012	a1 00 00 00 00	 mov	 eax, DWORD PTR ?__LINE__Var@?0??draw_hind_virtual_cockpit_wiper@@YGXPAUVIEWPOINT@@H@Z@4JA
  00017	83 c0 08	 add	 eax, 8
  0001a	50		 push	 eax
  0001b	68 00 00 00 00	 push	 OFFSET ??_C@_0EO@JBPNJFJG@c?3?2users?2nhv90?2projects?2eech?2ap@
  00020	68 00 00 00 00	 push	 OFFSET ??_C@_02HPPNELPJ@vp@
  00025	e8 00 00 00 00	 call	 ?process_assert@@YGXPBD0H@Z ; process_assert
$LN2@draw_hind_:

; 153  : 
; 154  : 	if (large_hud)

  0002a	83 7d 0c 00	 cmp	 DWORD PTR _large_hud$[ebp], 0
  0002e	74 12		 je	 SHORT $LN3@draw_hind_

; 155  : 	{
; 156  : 		wiper_arm_inst3d = virtual_cockpit_large_hud_wiper_arm_inst3d;

  00030	a1 00 00 00 00	 mov	 eax, DWORD PTR ?virtual_cockpit_large_hud_wiper_arm_inst3d@@3PAUOBJECT_3D_INSTANCE@@A
  00035	89 45 fc	 mov	 DWORD PTR _wiper_arm_inst3d$[ebp], eax

; 157  : 		wiper_rod_inst3d = virtual_cockpit_large_hud_wiper_rod_inst3d;

  00038	a1 00 00 00 00	 mov	 eax, DWORD PTR ?virtual_cockpit_large_hud_wiper_rod_inst3d@@3PAUOBJECT_3D_INSTANCE@@A
  0003d	89 45 f8	 mov	 DWORD PTR _wiper_rod_inst3d$[ebp], eax

; 158  : 	}
; 159  : 	else

  00040	eb 10		 jmp	 SHORT $LN4@draw_hind_
$LN3@draw_hind_:

; 160  : 	{
; 161  : 		wiper_arm_inst3d = virtual_cockpit_wiper_arm_inst3d;

  00042	a1 00 00 00 00	 mov	 eax, DWORD PTR ?virtual_cockpit_wiper_arm_inst3d@@3PAUOBJECT_3D_INSTANCE@@A
  00047	89 45 fc	 mov	 DWORD PTR _wiper_arm_inst3d$[ebp], eax

; 162  : 		wiper_rod_inst3d = virtual_cockpit_wiper_rod_inst3d;

  0004a	a1 00 00 00 00	 mov	 eax, DWORD PTR ?virtual_cockpit_wiper_rod_inst3d@@3PAUOBJECT_3D_INSTANCE@@A
  0004f	89 45 f8	 mov	 DWORD PTR _wiper_rod_inst3d$[ebp], eax
$LN4@draw_hind_:

; 163  : 	}
; 164  : 
; 165  : 	//
; 166  : 	// rotate wiper arm
; 167  : 	//
; 168  : 
; 169  : 	search.search_depth = 0;

  00052	c7 45 c8 00 00
	00 00		 mov	 DWORD PTR _search$[ebp+8], 0

; 170  : 	search.search_object = wiper_arm_inst3d;

  00059	8b 45 fc	 mov	 eax, DWORD PTR _wiper_arm_inst3d$[ebp]
  0005c	89 45 c0	 mov	 DWORD PTR _search$[ebp], eax

; 171  : 	search.sub_object_index = OBJECT_3D_SUB_OBJECT_HAVOC_VIRTUAL_COCKPIT_WIPER_ARM;

  0005f	c7 45 cc 85 00
	00 00		 mov	 DWORD PTR _search$[ebp+12], 133 ; 00000085H

; 172  : 
; 173  : 	if (find_object_3d_sub_object (&search) == SUB_OBJECT_SEARCH_RESULT_OBJECT_FOUND)

  00066	8d 45 c0	 lea	 eax, DWORD PTR _search$[ebp]
  00069	50		 push	 eax
  0006a	e8 00 00 00 00	 call	 ?find_object_3d_sub_object@@YG?AW4SUB_OBJECT_SEARCH_RESULT_TYPES@@PAUOBJECT_3D_SUB_OBJECT_SEARCH_DATA@@@Z ; find_object_3d_sub_object
  0006f	83 f8 01	 cmp	 eax, 1
  00072	75 1c		 jne	 SHORT $LN5@draw_hind_

; 174  : 	{
; 175  : 		search.result_sub_object->relative_roll = wiper_position * (rad (65.3756) / MAX_WIPER_POSITION);

  00074	f3 0f 5a 05 00
	00 00 00	 cvtss2sd xmm0, DWORD PTR ?wiper_position@@3MA
  0007c	f2 0f 59 05 00
	00 00 00	 mulsd	 xmm0, QWORD PTR __real@3f8241fb1a44e09d
  00084	f2 0f 5a c0	 cvtsd2ss xmm0, xmm0
  00088	8b 45 c4	 mov	 eax, DWORD PTR _search$[ebp+4]
  0008b	f3 0f 11 40 20	 movss	 DWORD PTR [eax+32], xmm0
$LN5@draw_hind_:

; 176  : 	}
; 177  : 
; 178  : 	//
; 179  : 	// rotate wiper blade
; 180  : 	//
; 181  : 
; 182  : 	search.search_depth = 0;

  00090	c7 45 c8 00 00
	00 00		 mov	 DWORD PTR _search$[ebp+8], 0

; 183  : 	search.search_object = wiper_arm_inst3d;

  00097	8b 45 fc	 mov	 eax, DWORD PTR _wiper_arm_inst3d$[ebp]
  0009a	89 45 c0	 mov	 DWORD PTR _search$[ebp], eax

; 184  : 	search.sub_object_index = OBJECT_3D_SUB_OBJECT_HAVOC_VIRTUAL_COCKPIT_WIPER_BLADE;

  0009d	c7 45 cc 86 00
	00 00		 mov	 DWORD PTR _search$[ebp+12], 134 ; 00000086H

; 185  : 
; 186  : 	if (find_object_3d_sub_object (&search) == SUB_OBJECT_SEARCH_RESULT_OBJECT_FOUND)

  000a4	8d 45 c0	 lea	 eax, DWORD PTR _search$[ebp]
  000a7	50		 push	 eax
  000a8	e8 00 00 00 00	 call	 ?find_object_3d_sub_object@@YG?AW4SUB_OBJECT_SEARCH_RESULT_TYPES@@PAUOBJECT_3D_SUB_OBJECT_SEARCH_DATA@@@Z ; find_object_3d_sub_object
  000ad	83 f8 01	 cmp	 eax, 1
  000b0	75 24		 jne	 SHORT $LN6@draw_hind_

; 187  : 	{
; 188  : 		search.result_sub_object->relative_roll = (wiper_position * (rad (-74.7756) / MAX_WIPER_POSITION)) + rad (4.7);

  000b2	f3 0f 5a 05 00
	00 00 00	 cvtss2sd xmm0, DWORD PTR ?wiper_position@@3MA
  000ba	f2 0f 59 05 00
	00 00 00	 mulsd	 xmm0, QWORD PTR __real@bf84e206eaa53475
  000c2	f2 0f 58 05 00
	00 00 00	 addsd	 xmm0, QWORD PTR __real@3fb4fff2fc000000
  000ca	f2 0f 5a c0	 cvtsd2ss xmm0, xmm0
  000ce	8b 45 c4	 mov	 eax, DWORD PTR _search$[ebp+4]
  000d1	f3 0f 11 40 20	 movss	 DWORD PTR [eax+32], xmm0
$LN6@draw_hind_:

; 189  : 	}
; 190  : 
; 191  : 	//
; 192  : 	// rotate wiper rod
; 193  : 	//
; 194  : 
; 195  : 	search.search_depth = 0;

  000d6	c7 45 c8 00 00
	00 00		 mov	 DWORD PTR _search$[ebp+8], 0

; 196  : 	search.search_object = wiper_rod_inst3d;

  000dd	8b 45 f8	 mov	 eax, DWORD PTR _wiper_rod_inst3d$[ebp]
  000e0	89 45 c0	 mov	 DWORD PTR _search$[ebp], eax

; 197  : 	search.sub_object_index = OBJECT_3D_SUB_OBJECT_HAVOC_VIRTUAL_COCKPIT_WIPER_ROD;

  000e3	c7 45 cc 87 00
	00 00		 mov	 DWORD PTR _search$[ebp+12], 135 ; 00000087H

; 198  : 
; 199  : 	if (find_object_3d_sub_object (&search) == SUB_OBJECT_SEARCH_RESULT_OBJECT_FOUND)

  000ea	8d 45 c0	 lea	 eax, DWORD PTR _search$[ebp]
  000ed	50		 push	 eax
  000ee	e8 00 00 00 00	 call	 ?find_object_3d_sub_object@@YG?AW4SUB_OBJECT_SEARCH_RESULT_TYPES@@PAUOBJECT_3D_SUB_OBJECT_SEARCH_DATA@@@Z ; find_object_3d_sub_object
  000f3	83 f8 01	 cmp	 eax, 1
  000f6	75 1c		 jne	 SHORT $LN7@draw_hind_

; 200  : 	{
; 201  : 		search.result_sub_object->relative_roll = wiper_position * (rad (65.3756) / MAX_WIPER_POSITION);

  000f8	f3 0f 5a 05 00
	00 00 00	 cvtss2sd xmm0, DWORD PTR ?wiper_position@@3MA
  00100	f2 0f 59 05 00
	00 00 00	 mulsd	 xmm0, QWORD PTR __real@3f8241fb1a44e09d
  00108	f2 0f 5a c0	 cvtsd2ss xmm0, xmm0
  0010c	8b 45 c4	 mov	 eax, DWORD PTR _search$[ebp+4]
  0010f	f3 0f 11 40 20	 movss	 DWORD PTR [eax+32], xmm0
$LN7@draw_hind_:

; 202  : 	}
; 203  : 
; 204  : 	//
; 205  : 	// draw wiper arm and blade
; 206  : 	//
; 207  : 
; 208  : 	memcpy (&wiper_arm_inst3d->vp, vp, sizeof (viewpoint));

  00114	6a 30		 push	 48			; 00000030H
  00116	8b 45 08	 mov	 eax, DWORD PTR _vp$[ebp]
  00119	50		 push	 eax
  0011a	8b 4d fc	 mov	 ecx, DWORD PTR _wiper_arm_inst3d$[ebp]
  0011d	83 c1 08	 add	 ecx, 8
  00120	51		 push	 ecx
  00121	e8 00 00 00 00	 call	 _memcpy
  00126	83 c4 0c	 add	 esp, 12			; 0000000cH

; 209  : 
; 210  : 	insert_relative_object_into_3d_scene (OBJECT_3D_DRAW_TYPE_ZBUFFERED_OBJECT, &wiper_arm_inst3d->vp.position, wiper_arm_inst3d);

  00129	51		 push	 ecx
  0012a	0f 57 c0	 xorps	 xmm0, xmm0
  0012d	f3 0f 11 04 24	 movss	 DWORD PTR [esp], xmm0
  00132	8b 45 fc	 mov	 eax, DWORD PTR _wiper_arm_inst3d$[ebp]
  00135	50		 push	 eax
  00136	8b 4d fc	 mov	 ecx, DWORD PTR _wiper_arm_inst3d$[ebp]
  00139	83 c1 08	 add	 ecx, 8
  0013c	51		 push	 ecx
  0013d	6a 02		 push	 2
  0013f	e8 00 00 00 00	 call	 ?insert_zbiased_relative_object_into_3d_scene@@YGXW4OBJECT_3D_DRAWING_TYPES@@PAUVEC3D@@PAXM@Z ; insert_zbiased_relative_object_into_3d_scene

; 211  : 
; 212  : 	//
; 213  : 	// draw wiper rod
; 214  : 	//
; 215  : 
; 216  : 	memcpy (&wiper_rod_inst3d->vp, vp, sizeof (viewpoint));

  00144	6a 30		 push	 48			; 00000030H
  00146	8b 45 08	 mov	 eax, DWORD PTR _vp$[ebp]
  00149	50		 push	 eax
  0014a	8b 4d f8	 mov	 ecx, DWORD PTR _wiper_rod_inst3d$[ebp]
  0014d	83 c1 08	 add	 ecx, 8
  00150	51		 push	 ecx
  00151	e8 00 00 00 00	 call	 _memcpy
  00156	83 c4 0c	 add	 esp, 12			; 0000000cH

; 217  : 
; 218  : 	insert_relative_object_into_3d_scene (OBJECT_3D_DRAW_TYPE_ZBUFFERED_OBJECT, &wiper_rod_inst3d->vp.position, wiper_rod_inst3d);

  00159	51		 push	 ecx
  0015a	0f 57 c0	 xorps	 xmm0, xmm0
  0015d	f3 0f 11 04 24	 movss	 DWORD PTR [esp], xmm0
  00162	8b 45 f8	 mov	 eax, DWORD PTR _wiper_rod_inst3d$[ebp]
  00165	50		 push	 eax
  00166	8b 4d f8	 mov	 ecx, DWORD PTR _wiper_rod_inst3d$[ebp]
  00169	83 c1 08	 add	 ecx, 8
  0016c	51		 push	 ecx
  0016d	6a 02		 push	 2
  0016f	e8 00 00 00 00	 call	 ?insert_zbiased_relative_object_into_3d_scene@@YGXW4OBJECT_3D_DRAWING_TYPES@@PAUVEC3D@@PAXM@Z ; insert_zbiased_relative_object_into_3d_scene

; 219  : }

  00174	5f		 pop	 edi
  00175	5e		 pop	 esi
  00176	5b		 pop	 ebx
  00177	8b e5		 mov	 esp, ebp
  00179	5d		 pop	 ebp
  0017a	c2 08 00	 ret	 8
?draw_hind_virtual_cockpit_wiper@@YGXPAUVIEWPOINT@@H@Z ENDP ; draw_hind_virtual_cockpit_wiper
_TEXT	ENDS
; Function compile flags: /Odtp /ZI
; File c:\users\nhv90\projects\eech\aphavoc\source\gunships\cockpits\hind\hi_wiper.c
;	COMDAT ?deinitialise_hind_virtual_cockpit_wiper_and_rain_effect@@YGXXZ
_TEXT	SEGMENT
?deinitialise_hind_virtual_cockpit_wiper_and_rain_effect@@YGXXZ PROC ; deinitialise_hind_virtual_cockpit_wiper_and_rain_effect, COMDAT

; 123  : {

  00000	55		 push	 ebp
  00001	8b ec		 mov	 ebp, esp
  00003	83 ec 40	 sub	 esp, 64			; 00000040H
  00006	53		 push	 ebx
  00007	56		 push	 esi
  00008	57		 push	 edi

; 124  : 	destruct_3d_object (virtual_cockpit_wiper_arm_inst3d);

  00009	a1 00 00 00 00	 mov	 eax, DWORD PTR ?virtual_cockpit_wiper_arm_inst3d@@3PAUOBJECT_3D_INSTANCE@@A
  0000e	50		 push	 eax
  0000f	e8 00 00 00 00	 call	 ?destruct_3d_object@@YGXPAUOBJECT_3D_INSTANCE@@@Z ; destruct_3d_object

; 125  : 
; 126  : 	destruct_3d_object (virtual_cockpit_wiper_rod_inst3d);

  00014	a1 00 00 00 00	 mov	 eax, DWORD PTR ?virtual_cockpit_wiper_rod_inst3d@@3PAUOBJECT_3D_INSTANCE@@A
  00019	50		 push	 eax
  0001a	e8 00 00 00 00	 call	 ?destruct_3d_object@@YGXPAUOBJECT_3D_INSTANCE@@@Z ; destruct_3d_object

; 127  : 
; 128  : 	destruct_3d_object (virtual_cockpit_large_hud_wiper_arm_inst3d);

  0001f	a1 00 00 00 00	 mov	 eax, DWORD PTR ?virtual_cockpit_large_hud_wiper_arm_inst3d@@3PAUOBJECT_3D_INSTANCE@@A
  00024	50		 push	 eax
  00025	e8 00 00 00 00	 call	 ?destruct_3d_object@@YGXPAUOBJECT_3D_INSTANCE@@@Z ; destruct_3d_object

; 129  : 
; 130  : 	destruct_3d_object (virtual_cockpit_large_hud_wiper_rod_inst3d);

  0002a	a1 00 00 00 00	 mov	 eax, DWORD PTR ?virtual_cockpit_large_hud_wiper_rod_inst3d@@3PAUOBJECT_3D_INSTANCE@@A
  0002f	50		 push	 eax
  00030	e8 00 00 00 00	 call	 ?destruct_3d_object@@YGXPAUOBJECT_3D_INSTANCE@@@Z ; destruct_3d_object

; 131  : 
; 132  : 	destruct_3d_object (virtual_cockpit_rain_effect_inst3d);

  00035	a1 00 00 00 00	 mov	 eax, DWORD PTR ?virtual_cockpit_rain_effect_inst3d@@3PAUOBJECT_3D_INSTANCE@@A
  0003a	50		 push	 eax
  0003b	e8 00 00 00 00	 call	 ?destruct_3d_object@@YGXPAUOBJECT_3D_INSTANCE@@@Z ; destruct_3d_object

; 133  : 
; 134  : 	destruct_3d_object (virtual_cockpit_large_hud_rain_effect_inst3d);

  00040	a1 00 00 00 00	 mov	 eax, DWORD PTR ?virtual_cockpit_large_hud_rain_effect_inst3d@@3PAUOBJECT_3D_INSTANCE@@A
  00045	50		 push	 eax
  00046	e8 00 00 00 00	 call	 ?destruct_3d_object@@YGXPAUOBJECT_3D_INSTANCE@@@Z ; destruct_3d_object

; 135  : 
; 136  : 	destroy_screen (pilot_wiped_rain_texture_screen);

  0004b	a1 00 00 00 00	 mov	 eax, DWORD PTR ?pilot_wiped_rain_texture_screen@@3PAUSCREEN@@A ; pilot_wiped_rain_texture_screen
  00050	50		 push	 eax
  00051	e8 00 00 00 00	 call	 ?destroy_screen@@YGHPAUSCREEN@@@Z ; destroy_screen

; 137  : }

  00056	5f		 pop	 edi
  00057	5e		 pop	 esi
  00058	5b		 pop	 ebx
  00059	8b e5		 mov	 esp, ebp
  0005b	5d		 pop	 ebp
  0005c	c3		 ret	 0
?deinitialise_hind_virtual_cockpit_wiper_and_rain_effect@@YGXXZ ENDP ; deinitialise_hind_virtual_cockpit_wiper_and_rain_effect
_TEXT	ENDS
; Function compile flags: /Odtp /ZI
; File c:\users\nhv90\projects\eech\aphavoc\source\gunships\cockpits\hind\hi_wiper.c
;	COMDAT ?initialise_hind_virtual_cockpit_wiper_and_rain_effect@@YGXXZ
_TEXT	SEGMENT
?initialise_hind_virtual_cockpit_wiper_and_rain_effect@@YGXXZ PROC ; initialise_hind_virtual_cockpit_wiper_and_rain_effect, COMDAT

; 92   : {

  00000	55		 push	 ebp
  00001	8b ec		 mov	 ebp, esp
  00003	83 ec 40	 sub	 esp, 64			; 00000040H
  00006	53		 push	 ebx
  00007	56		 push	 esi
  00008	57		 push	 edi

; 93   : 	virtual_cockpit_wiper_arm_inst3d = construct_3d_object (OBJECT_3D_HAVOC_VIRTUAL_COCKPIT_WIPER_ARM);

  00009	68 0a 05 00 00	 push	 1290			; 0000050aH
  0000e	e8 00 00 00 00	 call	 ?construct_3d_object@@YGPAUOBJECT_3D_INSTANCE@@H@Z ; construct_3d_object
  00013	a3 00 00 00 00	 mov	 DWORD PTR ?virtual_cockpit_wiper_arm_inst3d@@3PAUOBJECT_3D_INSTANCE@@A, eax

; 94   : 
; 95   : 	virtual_cockpit_wiper_rod_inst3d = construct_3d_object (OBJECT_3D_HAVOC_VIRTUAL_COCKPIT_WIPER_ROD);

  00018	68 0c 05 00 00	 push	 1292			; 0000050cH
  0001d	e8 00 00 00 00	 call	 ?construct_3d_object@@YGPAUOBJECT_3D_INSTANCE@@H@Z ; construct_3d_object
  00022	a3 00 00 00 00	 mov	 DWORD PTR ?virtual_cockpit_wiper_rod_inst3d@@3PAUOBJECT_3D_INSTANCE@@A, eax

; 96   : 
; 97   : 	virtual_cockpit_large_hud_wiper_arm_inst3d = construct_3d_object (OBJECT_3D_HAVOC_VIRTUAL_COCKPIT_WIPER_ARM_HUD);

  00027	68 0b 05 00 00	 push	 1291			; 0000050bH
  0002c	e8 00 00 00 00	 call	 ?construct_3d_object@@YGPAUOBJECT_3D_INSTANCE@@H@Z ; construct_3d_object
  00031	a3 00 00 00 00	 mov	 DWORD PTR ?virtual_cockpit_large_hud_wiper_arm_inst3d@@3PAUOBJECT_3D_INSTANCE@@A, eax

; 98   : 
; 99   : 	virtual_cockpit_large_hud_wiper_rod_inst3d = construct_3d_object (OBJECT_3D_HAVOC_VIRTUAL_COCKPIT_WIPER_ROD_HUD);

  00036	68 0d 05 00 00	 push	 1293			; 0000050dH
  0003b	e8 00 00 00 00	 call	 ?construct_3d_object@@YGPAUOBJECT_3D_INSTANCE@@H@Z ; construct_3d_object
  00040	a3 00 00 00 00	 mov	 DWORD PTR ?virtual_cockpit_large_hud_wiper_rod_inst3d@@3PAUOBJECT_3D_INSTANCE@@A, eax

; 100  : 
; 101  : 	virtual_cockpit_rain_effect_inst3d = construct_3d_object (OBJECT_3D_HAVOC_VIRTUAL_COCKPIT_GLASS);

  00045	68 ef 04 00 00	 push	 1263			; 000004efH
  0004a	e8 00 00 00 00	 call	 ?construct_3d_object@@YGPAUOBJECT_3D_INSTANCE@@H@Z ; construct_3d_object
  0004f	a3 00 00 00 00	 mov	 DWORD PTR ?virtual_cockpit_rain_effect_inst3d@@3PAUOBJECT_3D_INSTANCE@@A, eax

; 102  : 
; 103  : 	virtual_cockpit_large_hud_rain_effect_inst3d = construct_3d_object (OBJECT_3D_HAVOC_VIRTUAL_COCKPIT_GLASS_HUD);

  00054	68 f0 04 00 00	 push	 1264			; 000004f0H
  00059	e8 00 00 00 00	 call	 ?construct_3d_object@@YGPAUOBJECT_3D_INSTANCE@@H@Z ; construct_3d_object
  0005e	a3 00 00 00 00	 mov	 DWORD PTR ?virtual_cockpit_large_hud_rain_effect_inst3d@@3PAUOBJECT_3D_INSTANCE@@A, eax

; 104  : 
; 105  : 	pilot_wiper = TRUE;

  00063	c7 05 00 00 00
	00 01 00 00 00	 mov	 DWORD PTR ?pilot_wiper@@3HA, 1 ; pilot_wiper

; 106  : 
; 107  : 	pilot_wiped_rain_texture_screen = create_screen_for_system_texture (TEXTURE_INDEX_HAVOC_PILOT_RAIN_WIPE);

  0006d	68 0c 08 00 00	 push	 2060			; 0000080cH
  00072	e8 00 00 00 00	 call	 ?create_screen_for_system_texture@@YGPAUSCREEN@@H@Z ; create_screen_for_system_texture
  00077	a3 00 00 00 00	 mov	 DWORD PTR ?pilot_wiped_rain_texture_screen@@3PAUSCREEN@@A, eax ; pilot_wiped_rain_texture_screen

; 108  : 
; 109  : 	pilot_wipe_type = WIPE_TYPE_LEFT_THEN_RIGHT;

  0007c	c7 05 00 00 00
	00 01 00 00 00	 mov	 DWORD PTR ?pilot_wipe_type@@3W4WIPE_TYPES@@A, 1 ; pilot_wipe_type

; 110  : 
; 111  : 	co_pilot_wiper = FALSE;

  00086	c7 05 00 00 00
	00 00 00 00 00	 mov	 DWORD PTR ?co_pilot_wiper@@3HA, 0 ; co_pilot_wiper

; 112  : 
; 113  : 	co_pilot_wiped_rain_texture_screen = NULL;

  00090	c7 05 00 00 00
	00 00 00 00 00	 mov	 DWORD PTR ?co_pilot_wiped_rain_texture_screen@@3PAUSCREEN@@A, 0 ; co_pilot_wiped_rain_texture_screen

; 114  : 
; 115  : 	co_pilot_wipe_type = WIPE_TYPE_INVALID;

  0009a	c7 05 00 00 00
	00 00 00 00 00	 mov	 DWORD PTR ?co_pilot_wipe_type@@3W4WIPE_TYPES@@A, 0 ; co_pilot_wipe_type

; 116  : }

  000a4	5f		 pop	 edi
  000a5	5e		 pop	 esi
  000a6	5b		 pop	 ebx
  000a7	8b e5		 mov	 esp, ebp
  000a9	5d		 pop	 ebp
  000aa	c3		 ret	 0
?initialise_hind_virtual_cockpit_wiper_and_rain_effect@@YGXXZ ENDP ; initialise_hind_virtual_cockpit_wiper_and_rain_effect
_TEXT	ENDS
END
