; Listing generated by Microsoft (R) Optimizing Compiler Version 19.16.27045.0 

	TITLE	C:\Users\nhv90\Projects\eech\aphavoc\source\ai\highlevl\highlevl.c
	.686P
	.XMM
	include listing.inc
	.model	flat

INCLUDELIB MSVCRTD
INCLUDELIB OLDNAMES

PUBLIC	___local_stdio_printf_options
PUBLIC	__vfprintf_l
PUBLIC	_fprintf
PUBLIC	__vsnprintf_l
PUBLIC	__vsprintf_l
PUBLIC	_vsprintf
PUBLIC	_sprintf
PUBLIC	_fmodf
PUBLIC	?fmod@@YGMMM@Z					; fmod
PUBLIC	?initialise_high_level_ai@@YGXXZ		; initialise_high_level_ai
PUBLIC	?deinitialise_high_level_ai@@YGXXZ		; deinitialise_high_level_ai
PUBLIC	?start_high_level_ai@@YGXXZ			; start_high_level_ai
PUBLIC	?stop_high_level_ai@@YGXXZ			; stop_high_level_ai
PUBLIC	?create_sead_tasks_around_keysite@@YGHPAUENTITY@@0W4ENTITY_SIDES@@@Z ; create_sead_tasks_around_keysite
PUBLIC	?ai_log@@YAXPBDZZ				; ai_log
PUBLIC	??$min@H@std@@YGABHABH0@Z			; std::min<int>
PUBLIC	??$min@M@std@@YGABMABM0@Z			; std::min<float>
PUBLIC	??$fmod@MHX@@YGNMH@Z				; fmod<float,int,void>
PUBLIC	?_OptionsStorage@?1??__local_stdio_printf_options@@9@4_KA ; `__local_stdio_printf_options'::`2'::_OptionsStorage
PUBLIC	??_C@_02DKCKIIND@?$CFs@				; `string'
PUBLIC	??_C@_01NOFIACDB@w@				; `string'
PUBLIC	??_C@_06MDHFGADH@AI?4LOG@			; `string'
PUBLIC	?__LINE__Var@?0??add_high_level_ai_function@@YGHP6GXXZMM@Z@4JA ; `add_high_level_ai_function'::`1'::__LINE__Var
PUBLIC	??_C@_0ED@GMECMFKH@c?3?2users?2nhv90?2projects?2eech?2ap@ ; `string'
PUBLIC	??_C@_0DI@GLECGHEO@?$CIstart_time?5?$DO?$DN?50?40?$CJ?5?$CG?$CG?5?$CIstart_t@ ; `string'
PUBLIC	??_C@_0DG@BEFLEAOE@?$CIfrequency?5?$DO?50?40?$CJ?5?$CG?$CG?5?$CIfrequency@ ; `string'
PUBLIC	??_C@_0CM@CLOFEPLL@fmod?5?$CI?$CI24?40f?5?$CK?5ONE_HOUR?$CJ?0?5frequ@ ; `string'
PUBLIC	?__LINE__Var@?0??create_advance_and_retreat_tasks@@YGXXZ@4JA ; `create_advance_and_retreat_tasks'::`1'::__LINE__Var
PUBLIC	??_C@_0CB@HHHLKEEB@?$DN?$DN?$DN?$DN?$DN?$DN?$DN?$DN?$DN?$DN?$DN?$DN?$DN?$DN?$DN?$DN?$DN?$DN?$DN?$DN?$DN?$DN?$DN?$DN?$DN?$DN?$DN?$DN?$DN?$DN?$DN@ ; `string'
PUBLIC	??_C@_0CB@LJIJLMNN@CREATE?5ADVANCE?5AND?5RETREAT?5TASK@ ; `string'
PUBLIC	??_C@_0CB@GNHPAIID@?9?9?9?9?9?9?9?9?9?9?9?9?9?9?9?9?9?9?9?9?9?9?9?9?9?9?9?9?9?9?9@ ; `string'
PUBLIC	??_C@_0CE@FGAKBBGH@count?5?$DM?5MAX_HIGHLEVEL_TARGET_CH@ ; `string'
PUBLIC	??_C@_0CP@NMIFMLJD@HIGHLEVL?3?5?$CFs?5?$CFd?5candidates?5for?5@ ; `string'
PUBLIC	??_C@_0DK@PPPJLNAH@?$CITASK?$CJ?5Side?5?$CFs?5?3?5Created?5Advanc@ ; `string'
PUBLIC	?__LINE__Var@?0??create_bai_tasks@@YGXXZ@4JA	; `create_bai_tasks'::`1'::__LINE__Var
PUBLIC	??_C@_0CJ@DMBLBJBK@get_comms_model?5?$CI?$CJ?5?$DN?$DN?5COMMS_MOD@ ; `string'
PUBLIC	??_C@_0BB@NAOGIAIJ@?$DN?$DN?$DN?$DN?$DN?$DN?$DN?$DN?$DN?$DN?$DN?$DN?$DN?$DN?$DN?$DN@ ; `string'
PUBLIC	??_C@_0BB@NJDEMLPF@CREATE?5BAI?5TASKS@		; `string'
PUBLIC	??_C@_0BB@OAGJBGHP@?9?9?9?9?9?9?9?9?9?9?9?9?9?9?9?9@ ; `string'
PUBLIC	??_C@_0CD@HDCLOPCE@HIGHLEVL?3?5?$CFs?5?$CFd?5candidates?5for?5@ ; `string'
PUBLIC	??_C@_0BI@BNNJCIEB@target_rating?5?$FL0?$FN?5?$DO?50?40@ ; `string'
PUBLIC	??_C@_06IDGHNJOB@sector@			; `string'
PUBLIC	??_C@_0EN@DCEEGNCA@?$CITASK?$CJ?5?$CFs?5BAI?5?$CD?$CFd?5?$CI?$CFd?$CJ?5?9?5Target@ ; `string'
PUBLIC	??_C@_0FD@POECHJC@?$CITASK?$CJ?5?$CFs?5BAI?5RECON?5?$CD?$CFd?5?$CI?$CFd?$CJ?5?9?5@ ; `string'
PUBLIC	?__LINE__Var@?0??create_cas_tasks@@YGXXZ@4JA	; `create_cas_tasks'::`1'::__LINE__Var
PUBLIC	??_C@_0BB@NLININCI@CREATE?5CAS?5TASKS@		; `string'
PUBLIC	??_C@_0CD@HLLKHCJK@HIGHLEVL?3?5?$CFs?5?$CFd?5candidates?5for?5@ ; `string'
PUBLIC	??_C@_0EN@NKEMKLGO@?$CITASK?$CJ?5?$CFs?5CAS?5?$CD?$CFd?5?$CI?$CFd?$CJ?5?9?5Target@ ; `string'
PUBLIC	?__LINE__Var@?0??create_keysite_strike_tasks@@YGXXZ@4JA ; `create_keysite_strike_tasks'::`1'::__LINE__Var
PUBLIC	??_C@_0BL@EBIHNBEK@?$DN?$DN?$DN?$DN?$DN?$DN?$DN?$DN?$DN?$DN?$DN?$DN?$DN?$DN?$DN?$DN?$DN?$DN?$DN?$DN?$DN?$DN?$DN?$DN?$DN?$DN@ ; `string'
PUBLIC	??_C@_0BM@KDKLEBEP@CREATE?5KEYSITE?5STRIKE?5TASKS@ ; `string'
PUBLIC	??_C@_0BL@JMBEPNBE@?9?9?9?9?9?9?9?9?9?9?9?9?9?9?9?9?9?9?9?9?9?9?9?9?9?9@ ; `string'
PUBLIC	??_C@_0CG@NIEBJEDL@HIGHLEVL?3?5?$CFs?5?$CFd?5candidates?5for?5@ ; `string'
PUBLIC	??_C@_0DD@MFHODDPB@keysite_database?5?$FLkeysite_type?$FN@ ; `string'
PUBLIC	??_C@_0FB@PJNGGCMD@?$CITASK?$CJ?5?$CFs?5KEYSITE?5RECON?5?$CD?$CFd?5?$CI?$CFd@ ; `string'
PUBLIC	??_C@_0FJ@EAKBAFJI@?$CITASK?$CJ?5?$CFs?5KEYSITE?5GROUND?5STRIKE@ ; `string'
PUBLIC	??_C@_0FH@JBIGNNAG@?$CITASK?$CJ?5?$CFs?5KEYSITE?5SHIP?5STRIKE?5?$CD@ ; `string'
PUBLIC	?__LINE__Var@?0??create_oca_strike_tasks@@YGXXZ@4JA ; `create_oca_strike_tasks'::`1'::__LINE__Var
PUBLIC	??_C@_0BI@ELAFCIHN@CREATE?5OCA?5STRIKE?5TASKS@	; `string'
PUBLIC	??_C@_0CK@EOJIBDHN@HIGHLEVL?3?5?$CFs?5?$CFd?5candidates?5for?5@ ; `string'
PUBLIC	??_C@_0EO@MIICAGKN@?$CITASK?$CJ?5?$CFs?5OCA?5STRIKE?5?$CD?$CFd?5?$CI?$CFd?$CJ?5?9@ ; `string'
PUBLIC	?__LINE__Var@?0??create_oca_sweep_tasks@@YGXXZ@4JA ; `create_oca_sweep_tasks'::`1'::__LINE__Var
PUBLIC	??_C@_0BH@ODOINJHA@CREATE?5OCA?5SWEEP?5TASKS@	; `string'
PUBLIC	??_C@_0CJ@LAGELLPF@HIGHLEVL?3?5?$CFs?5?$CFd?5candidates?5for?5@ ; `string'
PUBLIC	??_C@_0EN@HANCKLDA@?$CITASK?$CJ?5?$CFs?5OCA?5SWEEP?5?$CD?$CFd?5?$CI?$CFd?$CJ?5?9?5@ ; `string'
PUBLIC	?__LINE__Var@?0??create_troop_insertion_tasks@@YGXXZ@4JA ; `create_troop_insertion_tasks'::`1'::__LINE__Var
PUBLIC	??_C@_0BN@LNBJDKDH@?$DN?$DN?$DN?$DN?$DN?$DN?$DN?$DN?$DN?$DN?$DN?$DN?$DN?$DN?$DN?$DN?$DN?$DN?$DN?$DN?$DN?$DN?$DN?$DN?$DN?$DN?$DN?$DN@ ; `string'
PUBLIC	??_C@_0BN@PAOIDBBL@CREATE?5TROOP?5INSERTION?5TASKS@ ; `string'
PUBLIC	??_C@_0BN@PNBNEKLM@?9?9?9?9?9?9?9?9?9?9?9?9?9?9?9?9?9?9?9?9?9?9?9?9?9?9?9?9@ ; `string'
PUBLIC	??_C@_0CD@EFNCGLHK@HIGHLEVL?3?5?$CFs?5?$CFd?5candidates?5for?5@ ; `string'
PUBLIC	??_C@_0FG@FBHDLGFE@?$CITASK?$CJ?5?$CFs?5KEYSITE?5T?4I?4?5RECON?5?$CD?$CF@ ; `string'
PUBLIC	??_C@_0FD@NLNDEGBN@?$CITASK?$CJ?5?$CFs?5TROOP?5INSERTION?5?$CD?$CFd?5?$CI@ ; `string'
PUBLIC	?__LINE__Var@?0??create_sead_tasks@@YGXXZ@4JA	; `create_sead_tasks'::`1'::__LINE__Var
PUBLIC	??_C@_0CE@HEJEDNOC@HIGHLEVL?3?5?$CFs?5?$CFd?5candidates?5for?5@ ; `string'
PUBLIC	??_C@_0FD@FFMCDIJF@?$CITASK?$CJ?5?$CFs?5SEAD?5?$CD?$CFd?5?$CI?$CFd?$CJ?5?9?5Targe@ ; `string'
PUBLIC	??_C@_0FJ@BPGJMGNM@?$CITASK?$CJ?5?$CFs?5SEAD?5RECON?5?$CD?$CFd?5?$CI?$CFd?$CJ?5?9@ ; `string'
PUBLIC	?__LINE__Var@?0??create_fixed_wing_transfer_tasks@@YGXXZ@4JA ; `create_fixed_wing_transfer_tasks'::`1'::__LINE__Var
PUBLIC	??_C@_0BL@MMKFLGNE@CREATE?5TRANSFER?5?$CIFW?$CJ?5TASKS@ ; `string'
PUBLIC	??_C@_0L@BBFNENIC@landing_en@			; `string'
PUBLIC	??_C@_0EJ@ELLEGADD@?$CITASK?$CJ?5?$CFs?5TRANSFER?5?9?5From?5?$CFs?5?$CI?$CF@ ; `string'
PUBLIC	?__LINE__Var@?0??create_helicopter_transfer_tasks@@YGXXZ@4JA ; `create_helicopter_transfer_tasks'::`1'::__LINE__Var
PUBLIC	??_C@_0BL@CDEAJFBK@CREATE?5TRANSFER?5?$CIHC?$CJ?5TASKS@ ; `string'
PUBLIC	?__LINE__Var@?0??create_sead_tasks_around_keysite@@YGHPAUENTITY@@0W4ENTITY_SIDES@@@Z@4JA ; `create_sead_tasks_around_keysite'::`1'::__LINE__Var
PUBLIC	??_C@_07FBNBNOMI@keysite@			; `string'
PUBLIC	??_C@_05BINPNAAL@force@				; `string'
PUBLIC	??_C@_0DP@PONNJEMN@?$CITASK?$CJ?5Side?5?$CFs?5?3?5Created?5SEAD?5?$CD@ ; `string'
PUBLIC	?__LINE__Var@?0??create_troop_patrol_tasks@@YGXXZ@4JA ; `create_troop_patrol_tasks'::`1'::__LINE__Var
PUBLIC	?__LINE__Var@?0??create_artillery_strike_tasks@@YGXXZ@4JA ; `create_artillery_strike_tasks'::`1'::__LINE__Var
PUBLIC	??_C@_0BO@NCOIPEIL@?$DN?$DN?$DN?$DN?$DN?$DN?$DN?$DN?$DN?$DN?$DN?$DN?$DN?$DN?$DN?$DN?$DN?$DN?$DN?$DN?$DN?$DN?$DN?$DN?$DN?$DN?$DN?$DN?$DN@ ; `string'
PUBLIC	??_C@_0BO@PKOHEKBI@CREATE?5ARTILLERY?5STRIKE?5TASKS@ ; `string'
PUBLIC	??_C@_0BO@OCAALIAC@?9?9?9?9?9?9?9?9?9?9?9?9?9?9?9?9?9?9?9?9?9?9?9?9?9?9?9?9?9@ ; `string'
PUBLIC	??_C@_0DG@MKPLALAD@get_local_entity_type?5?$CItarget?$CJ?5@ ; `string'
PUBLIC	??_C@_0DN@BNFHDBCO@?$CIARTILLERY?$CJ?5Group?5?$CFd?5Attacking?5@ ; `string'
PUBLIC	?__LINE__Var@?0??ai_log@@YAXPBDZZ@4JA		; `ai_log'::`1'::__LINE__Var
PUBLIC	??_C@_0BG@EFCJJKAA@get_session_entity?5?$CI?$CJ@ ; `string'
PUBLIC	??_C@_0BK@LNLKLEEP@Day?5?$CFd?5?$CF02d?3?$CF02d?3?$CF02d?5?3?9?5@ ; `string'
PUBLIC	??_C@_01MCMALHOG@a@				; `string'
PUBLIC	??_C@_01EEMJAFIK@?6@				; `string'
PUBLIC	??_C@_0BD@FEEMDEPI@invalid?5comparator@		; `string'
PUBLIC	??_C@_0GK@JMBMHIBC@c?3?2program?5files?5?$CIx86?$CJ?2microsof@ ; `string'
PUBLIC	??_C@_1NE@FKBPBJEB@?$AAc?$AA?3?$AA?2?$AAp?$AAr?$AAo?$AAg?$AAr?$AAa?$AAm?$AA?5?$AAf?$AAi?$AAl?$AAe@ ; `string'
PUBLIC	??_C@_1BC@BLAPCBGI@?$AAs?$AAt?$AAd?$AA?3?$AA?3?$AAm?$AAi?$AAn@ ; `string'
PUBLIC	??_C@_1CK@NDNHPKPI@?$AA?$CC?$AAi?$AAn?$AAv?$AAa?$AAl?$AAi?$AAd?$AA?5?$AAc?$AAo?$AAm?$AAp?$AAa?$AAr@ ; `string'
PUBLIC	__real@0000000000000000
PUBLIC	__real@3f800000
PUBLIC	__real@3fc999999999999a
PUBLIC	__real@3fd0000000000000
PUBLIC	__real@3fe0000000000000
PUBLIC	__real@3fe8000000000000
PUBLIC	__real@3ff0000000000000
PUBLIC	__real@40000000
PUBLIC	__real@4000000000000000
PUBLIC	__real@4008000000000000
PUBLIC	__real@4010000000000000
PUBLIC	__real@40800000
PUBLIC	__real@40b3880000000000
PUBLIC	__real@40c00000
PUBLIC	__real@40e00000
PUBLIC	__real@40f5180000000000
PUBLIC	__real@41000000
PUBLIC	__real@41100000
PUBLIC	__real@41200000
PUBLIC	__real@41400000
PUBLIC	__real@416e848000000000
PUBLIC	__real@41700000
PUBLIC	__real@41a00000
PUBLIC	__real@41f00000
PUBLIC	__real@42080000
PUBLIC	__real@42200000
PUBLIC	__real@42340000
PUBLIC	__real@42700000
PUBLIC	__real@42a00000
PUBLIC	__real@42b40000
PUBLIC	__real@42f00000
PUBLIC	__real@43160000
PUBLIC	__real@43340000
PUBLIC	__real@43700000
PUBLIC	__real@43960000
PUBLIC	__real@43b40000
PUBLIC	__real@43c30000
PUBLIC	__real@43e10000
PUBLIC	__real@44160000
PUBLIC	__real@44340000
PUBLIC	__real@44610000
PUBLIC	__real@447a0000
PUBLIC	__real@44960000
PUBLIC	__real@44e10000
PUBLIC	__real@47a8c000
EXTRN	__imp___invalid_parameter:PROC
EXTRN	__imp__fclose:PROC
EXTRN	__imp____stdio_common_vfprintf:PROC
EXTRN	__imp____stdio_common_vsprintf:PROC
EXTRN	_memset:PROC
EXTRN	__imp___CrtDbgReport:PROC
EXTRN	_fmod:PROC
EXTRN	?process_assert@@YGXPBD0H@Z:PROC		; process_assert
EXTRN	?convert_float_to_int@@YGXMPAH@Z:PROC		; convert_float_to_int
EXTRN	?debug_log@@YAXPBDZZ:PROC			; debug_log
EXTRN	?safe_fopen@@YGPAU_iobuf@@PBD0@Z:PROC		; safe_fopen
EXTRN	?malloc_fast_memory@@YGPAXI@Z:PROC		; malloc_fast_memory
EXTRN	?free_mem@@YGXPAX@Z:PROC			; free_mem
EXTRN	?get_sqr_2d_range@@YGMPBUVEC3D@@0@Z:PROC	; get_sqr_2d_range
EXTRN	?add_update_function@@YGHP6GXXZMM@Z:PROC	; add_update_function
EXTRN	?remove_update_function@@YGHP6GXXZ@Z:PROC	; remove_update_function
EXTRN	?notify_local_entity@@YAHW4ENTITY_MESSAGES@@PAUENTITY@@1ZZ:PROC ; notify_local_entity
EXTRN	?quicksort_entity_list@@YGXPAPAUENTITY@@HPAM@Z:PROC ; quicksort_entity_list
EXTRN	?get_local_group_max_weapon_range@@YGMPAUENTITY@@@Z:PROC ; get_local_group_max_weapon_range
EXTRN	?get_local_force_entity@@YGPAUENTITY@@W4ENTITY_SIDES@@@Z:PROC ; get_local_force_entity
EXTRN	?get_keysite_landing_sites_available@@YGHPAUENTITY@@H@Z:PROC ; get_keysite_landing_sites_available
EXTRN	?get_local_entity_landing_entity@@YGPAUENTITY@@PAU1@H@Z:PROC ; get_local_entity_landing_entity
EXTRN	?get_local_sector_entity@@YGPAUENTITY@@PAUVEC3D@@@Z:PROC ; get_local_sector_entity
EXTRN	?get_local_sector_side_ratio@@YGMHHW4ENTITY_SIDES@@@Z:PROC ; get_local_sector_side_ratio
EXTRN	?get_sector_fog_of_war_value@@YGMPAUENTITY@@W4ENTITY_SIDES@@@Z:PROC ; get_sector_fog_of_war_value
EXTRN	?update_client_server_sector_fog_of_war@@YGXXZ:PROC ; update_client_server_sector_fog_of_war
EXTRN	?update_client_server_sector_side_count@@YGXXZ:PROC ; update_client_server_sector_side_count
EXTRN	?get_sector_task_type_count@@YGHPAUENTITY@@HW4ENTITY_SIDES@@@Z:PROC ; get_sector_task_type_count
EXTRN	?entity_is_object_of_task@@YGHPAUENTITY@@HW4ENTITY_SIDES@@@Z:PROC ; entity_is_object_of_task
EXTRN	?get_digital_clock_int_values@@YGXMPAH00@Z:PROC	; get_digital_clock_int_values
EXTRN	?initialise_imaps@@YGXXZ:PROC			; initialise_imaps
EXTRN	?deinitialise_imaps@@YGXXZ:PROC			; deinitialise_imaps
EXTRN	?get_imap_value@@YGMW4IMAP_TYPES@@W4ENTITY_SIDES@@HH@Z:PROC ; get_imap_value
EXTRN	?normalise_importance_imaps@@YGXXZ:PROC		; normalise_importance_imaps
EXTRN	?normalise_base_distance_imaps@@YGXXZ:PROC	; normalise_base_distance_imaps
EXTRN	?normalise_air_defence_imaps@@YGXXZ:PROC	; normalise_air_defence_imaps
EXTRN	?normalise_surface_defence_imaps@@YGXXZ:PROC	; normalise_surface_defence_imaps
EXTRN	?create_reaction_to_artillery_fire@@YGXPAUENTITY@@0@Z:PROC ; create_reaction_to_artillery_fire
EXTRN	?initialise_group_task_array@@YGXXZ:PROC	; initialise_group_task_array
EXTRN	?deinitialise_group_task_array@@YGXXZ:PROC	; deinitialise_group_task_array
EXTRN	?get_road_link_breaks@@YGHHH@Z:PROC		; get_road_link_breaks
EXTRN	?update_campaign_triggers@@YGXXZ:PROC		; update_campaign_triggers
EXTRN	?assign_task_to_group@@YGHPAUENTITY@@0I@Z:PROC	; assign_task_to_group
EXTRN	?check_group_members_awake@@YGHPAUENTITY@@@Z:PROC ; check_group_members_awake
EXTRN	?engage_targets_in_area@@YGHPAUENTITY@@PAUVEC3D@@MIH@Z:PROC ; engage_targets_in_area
EXTRN	?engage_targets_in_group@@YGHPAUENTITY@@0H@Z:PROC ; engage_targets_in_group
EXTRN	?create_anti_ship_strike_task@@YGPAUENTITY@@W4ENTITY_SIDES@@PAU1@1HM11@Z:PROC ; create_anti_ship_strike_task
EXTRN	?create_bai_task@@YGPAUENTITY@@W4ENTITY_SIDES@@PAU1@1HM11@Z:PROC ; create_bai_task
EXTRN	?create_close_air_support_task@@YGPAUENTITY@@W4ENTITY_SIDES@@PAU1@1HM11@Z:PROC ; create_close_air_support_task
EXTRN	?create_ground_strike_task@@YGPAUENTITY@@W4ENTITY_SIDES@@PAU1@1HM11@Z:PROC ; create_ground_strike_task
EXTRN	?create_oca_strike_task@@YGPAUENTITY@@W4ENTITY_SIDES@@PAU1@1HM11@Z:PROC ; create_oca_strike_task
EXTRN	?create_oca_sweep_task@@YGPAUENTITY@@W4ENTITY_SIDES@@PAU1@1HM11@Z:PROC ; create_oca_sweep_task
EXTRN	?create_recon_task@@YGPAUENTITY@@W4ENTITY_SIDES@@PAU1@1HM11@Z:PROC ; create_recon_task
EXTRN	?create_sead_task@@YGPAUENTITY@@W4ENTITY_SIDES@@PAU1@1HM11@Z:PROC ; create_sead_task
EXTRN	?create_transfer_task@@YGPAUENTITY@@W4ENTITY_SIDES@@HMPAU1@1@Z:PROC ; create_transfer_task
EXTRN	?create_troop_insertion_task@@YGPAUENTITY@@W4ENTITY_SIDES@@PAU1@1HM11@Z:PROC ; create_troop_insertion_task
EXTRN	?create_troop_movement_patrol_task@@YGPAUENTITY@@W4ENTITY_SIDES@@PAU1@@Z:PROC ; create_troop_movement_patrol_task
EXTRN	?null_entity_pointer_message@@3PBDB:DWORD	; null_entity_pointer_message
EXTRN	?entity_side_short_names@@3PAPBDA:BYTE		; entity_side_short_names
EXTRN	?system_comms_model@@3W4COMMS_MODEL_TYPES@@A:DWORD ; system_comms_model
EXTRN	?world_map@@3UWORLD_MAP_DATA@@A:BYTE		; world_map
EXTRN	?overload_invalid_list_type_message@@3PBDB:DWORD ; overload_invalid_list_type_message
EXTRN	?fn_get_local_entity_first_child@@3PAY0CN@P6GPAUENTITY@@PAU1@W4LIST_TYPES@@@ZA:BYTE ; fn_get_local_entity_first_child
EXTRN	?fn_get_local_entity_parent@@3PAY0CN@P6GPAUENTITY@@PAU1@W4LIST_TYPES@@@ZA:BYTE ; fn_get_local_entity_parent
EXTRN	?fn_get_local_entity_child_succ@@3PAY0CN@P6GPAUENTITY@@PAU1@W4LIST_TYPES@@@ZA:BYTE ; fn_get_local_entity_child_succ
EXTRN	?fn_destroy_client_server_entity@@3PAY01P6GXPAUENTITY@@@ZA:BYTE ; fn_destroy_client_server_entity
EXTRN	?overload_invalid_float_type_message@@3PBDB:DWORD ; overload_invalid_float_type_message
EXTRN	?fn_get_local_entity_float_value@@3PAY0KP@P6GMPAUENTITY@@W4FLOAT_TYPES@@@ZA:BYTE ; fn_get_local_entity_float_value
EXTRN	?overload_invalid_int_type_message@@3PBDB:DWORD	; overload_invalid_int_type_message
EXTRN	?fn_get_local_entity_int_value@@3PAY0BBH@P6GHPAUENTITY@@W4INT_TYPES@@@ZA:BYTE ; fn_get_local_entity_int_value
EXTRN	?overload_invalid_string_type_message@@3PBDB:DWORD ; overload_invalid_string_type_message
EXTRN	?fn_get_local_entity_string@@3PAY0N@P6GPBDPAUENTITY@@W4STRING_TYPES@@@ZA:BYTE ; fn_get_local_entity_string
EXTRN	?overload_invalid_vec3d_type_message@@3PBDB:DWORD ; overload_invalid_vec3d_type_message
EXTRN	?fn_get_local_entity_vec3d_ptr@@3PAY0BI@P6GPAUVEC3D@@PAUENTITY@@W4VEC3D_TYPES@@@ZA:BYTE ; fn_get_local_entity_vec3d_ptr
EXTRN	?entities@@3PAUENTITY@@A:DWORD			; entities
EXTRN	?group_database@@3PAUGROUP_DATA@@A:BYTE		; group_database
EXTRN	?keysite_database@@3PAUKEYSITE_DATA@@A:BYTE	; keysite_database
EXTRN	?session_entity@@3PAUENTITY@@A:DWORD		; session_entity
EXTRN	?task_database@@3PAUTASK_DATA@@A:BYTE		; task_database
EXTRN	?game_type@@3W4GAME_TYPES@@A:DWORD		; game_type
EXTRN	?road_nodes@@3PAUNODE_DATA@@A:DWORD		; road_nodes
EXTRN	?road_node_positions@@3PAUVEC3D@@A:DWORD	; road_node_positions
EXTRN	__fltused:DWORD
;	COMDAT ?_OptionsStorage@?1??__local_stdio_printf_options@@9@4_KA
_BSS	SEGMENT
?_OptionsStorage@?1??__local_stdio_printf_options@@9@4_KA DQ 01H DUP (?) ; `__local_stdio_printf_options'::`2'::_OptionsStorage
_BSS	ENDS
_BSS	SEGMENT
?target_list@@3PAPAUENTITY@@A DD 0a0H DUP (?)		; target_list
?target_rating@@3PAMA DD 0a0H DUP (?)			; target_rating
?ai_log_file@@3PAU_iobuf@@A DD 01H DUP (?)		; ai_log_file
?importance_rating@@3MA DD 01H DUP (?)			; importance_rating
?air_defence_rating@@3MA DD 01H DUP (?)			; air_defence_rating
?surface_defence_rating@@3MA DD 01H DUP (?)		; surface_defence_rating
?base_distance_rating@@3MA DD 01H DUP (?)		; base_distance_rating
?buffer@?1??ai_log@@YAXPBDZZ@4PADA DB 03e8H DUP (?)	; `ai_log'::`2'::buffer
_BSS	ENDS
;	COMDAT __real@47a8c000
CONST	SEGMENT
__real@47a8c000 DD 047a8c000r			; 86400
CONST	ENDS
;	COMDAT __real@44e10000
CONST	SEGMENT
__real@44e10000 DD 044e10000r			; 1800
CONST	ENDS
;	COMDAT __real@44960000
CONST	SEGMENT
__real@44960000 DD 044960000r			; 1200
CONST	ENDS
;	COMDAT __real@447a0000
CONST	SEGMENT
__real@447a0000 DD 0447a0000r			; 1000
CONST	ENDS
;	COMDAT __real@44610000
CONST	SEGMENT
__real@44610000 DD 044610000r			; 900
CONST	ENDS
;	COMDAT __real@44340000
CONST	SEGMENT
__real@44340000 DD 044340000r			; 720
CONST	ENDS
;	COMDAT __real@44160000
CONST	SEGMENT
__real@44160000 DD 044160000r			; 600
CONST	ENDS
;	COMDAT __real@43e10000
CONST	SEGMENT
__real@43e10000 DD 043e10000r			; 450
CONST	ENDS
;	COMDAT __real@43c30000
CONST	SEGMENT
__real@43c30000 DD 043c30000r			; 390
CONST	ENDS
;	COMDAT __real@43b40000
CONST	SEGMENT
__real@43b40000 DD 043b40000r			; 360
CONST	ENDS
;	COMDAT __real@43960000
CONST	SEGMENT
__real@43960000 DD 043960000r			; 300
CONST	ENDS
;	COMDAT __real@43700000
CONST	SEGMENT
__real@43700000 DD 043700000r			; 240
CONST	ENDS
;	COMDAT __real@43340000
CONST	SEGMENT
__real@43340000 DD 043340000r			; 180
CONST	ENDS
;	COMDAT __real@43160000
CONST	SEGMENT
__real@43160000 DD 043160000r			; 150
CONST	ENDS
;	COMDAT __real@42f00000
CONST	SEGMENT
__real@42f00000 DD 042f00000r			; 120
CONST	ENDS
;	COMDAT __real@42b40000
CONST	SEGMENT
__real@42b40000 DD 042b40000r			; 90
CONST	ENDS
;	COMDAT __real@42a00000
CONST	SEGMENT
__real@42a00000 DD 042a00000r			; 80
CONST	ENDS
;	COMDAT __real@42700000
CONST	SEGMENT
__real@42700000 DD 042700000r			; 60
CONST	ENDS
;	COMDAT __real@42340000
CONST	SEGMENT
__real@42340000 DD 042340000r			; 45
CONST	ENDS
;	COMDAT __real@42200000
CONST	SEGMENT
__real@42200000 DD 042200000r			; 40
CONST	ENDS
;	COMDAT __real@42080000
CONST	SEGMENT
__real@42080000 DD 042080000r			; 34
CONST	ENDS
;	COMDAT __real@41f00000
CONST	SEGMENT
__real@41f00000 DD 041f00000r			; 30
CONST	ENDS
;	COMDAT __real@41a00000
CONST	SEGMENT
__real@41a00000 DD 041a00000r			; 20
CONST	ENDS
;	COMDAT __real@41700000
CONST	SEGMENT
__real@41700000 DD 041700000r			; 15
CONST	ENDS
;	COMDAT __real@416e848000000000
CONST	SEGMENT
__real@416e848000000000 DQ 0416e848000000000r	; 1.6e+07
CONST	ENDS
;	COMDAT __real@41400000
CONST	SEGMENT
__real@41400000 DD 041400000r			; 12
CONST	ENDS
;	COMDAT __real@41200000
CONST	SEGMENT
__real@41200000 DD 041200000r			; 10
CONST	ENDS
;	COMDAT __real@41100000
CONST	SEGMENT
__real@41100000 DD 041100000r			; 9
CONST	ENDS
;	COMDAT __real@41000000
CONST	SEGMENT
__real@41000000 DD 041000000r			; 8
CONST	ENDS
;	COMDAT __real@40f5180000000000
CONST	SEGMENT
__real@40f5180000000000 DQ 040f5180000000000r	; 86400
CONST	ENDS
;	COMDAT __real@40e00000
CONST	SEGMENT
__real@40e00000 DD 040e00000r			; 7
CONST	ENDS
;	COMDAT __real@40c00000
CONST	SEGMENT
__real@40c00000 DD 040c00000r			; 6
CONST	ENDS
;	COMDAT __real@40b3880000000000
CONST	SEGMENT
__real@40b3880000000000 DQ 040b3880000000000r	; 5000
CONST	ENDS
;	COMDAT __real@40800000
CONST	SEGMENT
__real@40800000 DD 040800000r			; 4
CONST	ENDS
;	COMDAT __real@4010000000000000
CONST	SEGMENT
__real@4010000000000000 DQ 04010000000000000r	; 4
CONST	ENDS
;	COMDAT __real@4008000000000000
CONST	SEGMENT
__real@4008000000000000 DQ 04008000000000000r	; 3
CONST	ENDS
;	COMDAT __real@4000000000000000
CONST	SEGMENT
__real@4000000000000000 DQ 04000000000000000r	; 2
CONST	ENDS
;	COMDAT __real@40000000
CONST	SEGMENT
__real@40000000 DD 040000000r			; 2
CONST	ENDS
;	COMDAT __real@3ff0000000000000
CONST	SEGMENT
__real@3ff0000000000000 DQ 03ff0000000000000r	; 1
CONST	ENDS
;	COMDAT __real@3fe8000000000000
CONST	SEGMENT
__real@3fe8000000000000 DQ 03fe8000000000000r	; 0.75
CONST	ENDS
;	COMDAT __real@3fe0000000000000
CONST	SEGMENT
__real@3fe0000000000000 DQ 03fe0000000000000r	; 0.5
CONST	ENDS
;	COMDAT __real@3fd0000000000000
CONST	SEGMENT
__real@3fd0000000000000 DQ 03fd0000000000000r	; 0.25
CONST	ENDS
;	COMDAT __real@3fc999999999999a
CONST	SEGMENT
__real@3fc999999999999a DQ 03fc999999999999ar	; 0.2
CONST	ENDS
;	COMDAT __real@3f800000
CONST	SEGMENT
__real@3f800000 DD 03f800000r			; 1
CONST	ENDS
;	COMDAT __real@0000000000000000
CONST	SEGMENT
__real@0000000000000000 DQ 00000000000000000r	; 0
CONST	ENDS
;	COMDAT ??_C@_1CK@NDNHPKPI@?$AA?$CC?$AAi?$AAn?$AAv?$AAa?$AAl?$AAi?$AAd?$AA?5?$AAc?$AAo?$AAm?$AAp?$AAa?$AAr@
CONST	SEGMENT
??_C@_1CK@NDNHPKPI@?$AA?$CC?$AAi?$AAn?$AAv?$AAa?$AAl?$AAi?$AAd?$AA?5?$AAc?$AAo?$AAm?$AAp?$AAa?$AAr@ DB '"'
	DB	00H, 'i', 00H, 'n', 00H, 'v', 00H, 'a', 00H, 'l', 00H, 'i', 00H
	DB	'd', 00H, ' ', 00H, 'c', 00H, 'o', 00H, 'm', 00H, 'p', 00H, 'a'
	DB	00H, 'r', 00H, 'a', 00H, 't', 00H, 'o', 00H, 'r', 00H, '"', 00H
	DB	00H, 00H					; `string'
CONST	ENDS
;	COMDAT ??_C@_1BC@BLAPCBGI@?$AAs?$AAt?$AAd?$AA?3?$AA?3?$AAm?$AAi?$AAn@
CONST	SEGMENT
??_C@_1BC@BLAPCBGI@?$AAs?$AAt?$AAd?$AA?3?$AA?3?$AAm?$AAi?$AAn@ DB 's', 00H
	DB	't', 00H, 'd', 00H, ':', 00H, ':', 00H, 'm', 00H, 'i', 00H, 'n'
	DB	00H, 00H, 00H				; `string'
CONST	ENDS
;	COMDAT ??_C@_1NE@FKBPBJEB@?$AAc?$AA?3?$AA?2?$AAp?$AAr?$AAo?$AAg?$AAr?$AAa?$AAm?$AA?5?$AAf?$AAi?$AAl?$AAe@
CONST	SEGMENT
??_C@_1NE@FKBPBJEB@?$AAc?$AA?3?$AA?2?$AAp?$AAr?$AAo?$AAg?$AAr?$AAa?$AAm?$AA?5?$AAf?$AAi?$AAl?$AAe@ DB 'c'
	DB	00H, ':', 00H, '\', 00H, 'p', 00H, 'r', 00H, 'o', 00H, 'g', 00H
	DB	'r', 00H, 'a', 00H, 'm', 00H, ' ', 00H, 'f', 00H, 'i', 00H, 'l'
	DB	00H, 'e', 00H, 's', 00H, ' ', 00H, '(', 00H, 'x', 00H, '8', 00H
	DB	'6', 00H, ')', 00H, '\', 00H, 'm', 00H, 'i', 00H, 'c', 00H, 'r'
	DB	00H, 'o', 00H, 's', 00H, 'o', 00H, 'f', 00H, 't', 00H, ' ', 00H
	DB	'v', 00H, 'i', 00H, 's', 00H, 'u', 00H, 'a', 00H, 'l', 00H, ' '
	DB	00H, 's', 00H, 't', 00H, 'u', 00H, 'd', 00H, 'i', 00H, 'o', 00H
	DB	'\', 00H, '2', 00H, '0', 00H, '1', 00H, '7', 00H, '\', 00H, 'c'
	DB	00H, 'o', 00H, 'm', 00H, 'm', 00H, 'u', 00H, 'n', 00H, 'i', 00H
	DB	't', 00H, 'y', 00H, '\', 00H, 'v', 00H, 'c', 00H, '\', 00H, 't'
	DB	00H, 'o', 00H, 'o', 00H, 'l', 00H, 's', 00H, '\', 00H, 'm', 00H
	DB	's', 00H, 'v', 00H, 'c', 00H, '\', 00H, '1', 00H, '4', 00H, '.'
	DB	00H, '1', 00H, '6', 00H, '.', 00H, '2', 00H, '7', 00H, '0', 00H
	DB	'2', 00H, '3', 00H, '\', 00H, 'i', 00H, 'n', 00H, 'c', 00H, 'l'
	DB	00H, 'u', 00H, 'd', 00H, 'e', 00H, '\', 00H, 'a', 00H, 'l', 00H
	DB	'g', 00H, 'o', 00H, 'r', 00H, 'i', 00H, 't', 00H, 'h', 00H, 'm'
	DB	00H, 00H, 00H				; `string'
CONST	ENDS
;	COMDAT ??_C@_0GK@JMBMHIBC@c?3?2program?5files?5?$CIx86?$CJ?2microsof@
CONST	SEGMENT
??_C@_0GK@JMBMHIBC@c?3?2program?5files?5?$CIx86?$CJ?2microsof@ DB 'c:\pro'
	DB	'gram files (x86)\microsoft visual studio\2017\community\vc\to'
	DB	'ols\msvc\14.16.27023\include\algorithm', 00H ; `string'
CONST	ENDS
;	COMDAT ??_C@_0BD@FEEMDEPI@invalid?5comparator@
CONST	SEGMENT
??_C@_0BD@FEEMDEPI@invalid?5comparator@ DB 'invalid comparator', 00H ; `string'
CONST	ENDS
;	COMDAT ??_C@_01EEMJAFIK@?6@
CONST	SEGMENT
??_C@_01EEMJAFIK@?6@ DB 0aH, 00H			; `string'
CONST	ENDS
;	COMDAT ??_C@_01MCMALHOG@a@
CONST	SEGMENT
??_C@_01MCMALHOG@a@ DB 'a', 00H				; `string'
CONST	ENDS
;	COMDAT ??_C@_0BK@LNLKLEEP@Day?5?$CFd?5?$CF02d?3?$CF02d?3?$CF02d?5?3?9?5@
CONST	SEGMENT
??_C@_0BK@LNLKLEEP@Day?5?$CFd?5?$CF02d?3?$CF02d?3?$CF02d?5?3?9?5@ DB 'Day'
	DB	' %d %02d:%02d:%02d :- ', 00H		; `string'
CONST	ENDS
;	COMDAT ??_C@_0BG@EFCJJKAA@get_session_entity?5?$CI?$CJ@
CONST	SEGMENT
??_C@_0BG@EFCJJKAA@get_session_entity?5?$CI?$CJ@ DB 'get_session_entity ('
	DB	')', 00H					; `string'
CONST	ENDS
;	COMDAT ?__LINE__Var@?0??ai_log@@YAXPBDZZ@4JA
_DATA	SEGMENT
?__LINE__Var@?0??ai_log@@YAXPBDZZ@4JA DD 0bd3H		; `ai_log'::`1'::__LINE__Var
_DATA	ENDS
;	COMDAT ??_C@_0DN@BNFHDBCO@?$CIARTILLERY?$CJ?5Group?5?$CFd?5Attacking?5@
CONST	SEGMENT
??_C@_0DN@BNFHDBCO@?$CIARTILLERY?$CJ?5Group?5?$CFd?5Attacking?5@ DB '(ART'
	DB	'ILLERY) Group %d Attacking Target %d (%s) - sqr range %f', 00H ; `string'
CONST	ENDS
;	COMDAT ??_C@_0DG@MKPLALAD@get_local_entity_type?5?$CItarget?$CJ?5@
CONST	SEGMENT
??_C@_0DG@MKPLALAD@get_local_entity_type?5?$CItarget?$CJ?5@ DB 'get_local'
	DB	'_entity_type (target) == ENTITY_TYPE_KEYSITE', 00H ; `string'
CONST	ENDS
;	COMDAT ??_C@_0BO@OCAALIAC@?9?9?9?9?9?9?9?9?9?9?9?9?9?9?9?9?9?9?9?9?9?9?9?9?9?9?9?9?9@
CONST	SEGMENT
??_C@_0BO@OCAALIAC@?9?9?9?9?9?9?9?9?9?9?9?9?9?9?9?9?9?9?9?9?9?9?9?9?9?9?9?9?9@ DB '-'
	DB	'----------------------------', 00H		; `string'
CONST	ENDS
;	COMDAT ??_C@_0BO@PKOHEKBI@CREATE?5ARTILLERY?5STRIKE?5TASKS@
CONST	SEGMENT
??_C@_0BO@PKOHEKBI@CREATE?5ARTILLERY?5STRIKE?5TASKS@ DB 'CREATE ARTILLERY'
	DB	' STRIKE TASKS', 00H				; `string'
CONST	ENDS
;	COMDAT ??_C@_0BO@NCOIPEIL@?$DN?$DN?$DN?$DN?$DN?$DN?$DN?$DN?$DN?$DN?$DN?$DN?$DN?$DN?$DN?$DN?$DN?$DN?$DN?$DN?$DN?$DN?$DN?$DN?$DN?$DN?$DN?$DN?$DN@
CONST	SEGMENT
??_C@_0BO@NCOIPEIL@?$DN?$DN?$DN?$DN?$DN?$DN?$DN?$DN?$DN?$DN?$DN?$DN?$DN?$DN?$DN?$DN?$DN?$DN?$DN?$DN?$DN?$DN?$DN?$DN?$DN?$DN?$DN?$DN?$DN@ DB '='
	DB	'============================', 00H		; `string'
CONST	ENDS
;	COMDAT ?__LINE__Var@?0??create_artillery_strike_tasks@@YGXXZ@4JA
_DATA	SEGMENT
?__LINE__Var@?0??create_artillery_strike_tasks@@YGXXZ@4JA DD 0ab3H ; `create_artillery_strike_tasks'::`1'::__LINE__Var
_DATA	ENDS
;	COMDAT ?__LINE__Var@?0??create_troop_patrol_tasks@@YGXXZ@4JA
_DATA	SEGMENT
?__LINE__Var@?0??create_troop_patrol_tasks@@YGXXZ@4JA DD 0a64H ; `create_troop_patrol_tasks'::`1'::__LINE__Var
_DATA	ENDS
;	COMDAT ??_C@_0DP@PONNJEMN@?$CITASK?$CJ?5Side?5?$CFs?5?3?5Created?5SEAD?5?$CD@
CONST	SEGMENT
??_C@_0DP@PONNJEMN@?$CITASK?$CJ?5Side?5?$CFs?5?3?5Created?5SEAD?5?$CD@ DB '('
	DB	'TASK) Side %s : Created SEAD #%d (%d) at %s in reaction to %s'
	DB	00H						; `string'
CONST	ENDS
;	COMDAT ??_C@_05BINPNAAL@force@
CONST	SEGMENT
??_C@_05BINPNAAL@force@ DB 'force', 00H			; `string'
CONST	ENDS
;	COMDAT ??_C@_07FBNBNOMI@keysite@
CONST	SEGMENT
??_C@_07FBNBNOMI@keysite@ DB 'keysite', 00H		; `string'
CONST	ENDS
;	COMDAT ?__LINE__Var@?0??create_sead_tasks_around_keysite@@YGHPAUENTITY@@0W4ENTITY_SIDES@@@Z@4JA
_DATA	SEGMENT
?__LINE__Var@?0??create_sead_tasks_around_keysite@@YGHPAUENTITY@@0W4ENTITY_SIDES@@@Z@4JA DD 09efH ; `create_sead_tasks_around_keysite'::`1'::__LINE__Var
_DATA	ENDS
;	COMDAT ??_C@_0BL@CDEAJFBK@CREATE?5TRANSFER?5?$CIHC?$CJ?5TASKS@
CONST	SEGMENT
??_C@_0BL@CDEAJFBK@CREATE?5TRANSFER?5?$CIHC?$CJ?5TASKS@ DB 'CREATE TRANSF'
	DB	'ER (HC) TASKS', 00H				; `string'
CONST	ENDS
;	COMDAT ?__LINE__Var@?0??create_helicopter_transfer_tasks@@YGXXZ@4JA
_DATA	SEGMENT
?__LINE__Var@?0??create_helicopter_transfer_tasks@@YGXXZ@4JA DD 090fH ; `create_helicopter_transfer_tasks'::`1'::__LINE__Var
_DATA	ENDS
;	COMDAT ??_C@_0EJ@ELLEGADD@?$CITASK?$CJ?5?$CFs?5TRANSFER?5?9?5From?5?$CFs?5?$CI?$CF@
CONST	SEGMENT
??_C@_0EJ@ELLEGADD@?$CITASK?$CJ?5?$CFs?5TRANSFER?5?9?5From?5?$CFs?5?$CI?$CF@ DB '('
	DB	'TASK) %s TRANSFER - From %s (%.3f) To %s (%.3f) - CREATED (Pr'
	DB	'iority %f)', 00H				; `string'
CONST	ENDS
;	COMDAT ??_C@_0L@BBFNENIC@landing_en@
CONST	SEGMENT
??_C@_0L@BBFNENIC@landing_en@ DB 'landing_en', 00H	; `string'
CONST	ENDS
;	COMDAT ??_C@_0BL@MMKFLGNE@CREATE?5TRANSFER?5?$CIFW?$CJ?5TASKS@
CONST	SEGMENT
??_C@_0BL@MMKFLGNE@CREATE?5TRANSFER?5?$CIFW?$CJ?5TASKS@ DB 'CREATE TRANSF'
	DB	'ER (FW) TASKS', 00H				; `string'
CONST	ENDS
;	COMDAT ?__LINE__Var@?0??create_fixed_wing_transfer_tasks@@YGXXZ@4JA
_DATA	SEGMENT
?__LINE__Var@?0??create_fixed_wing_transfer_tasks@@YGXXZ@4JA DD 0833H ; `create_fixed_wing_transfer_tasks'::`1'::__LINE__Var
_DATA	ENDS
;	COMDAT ??_C@_0FJ@BPGJMGNM@?$CITASK?$CJ?5?$CFs?5SEAD?5RECON?5?$CD?$CFd?5?$CI?$CFd?$CJ?5?9@
CONST	SEGMENT
??_C@_0FJ@BPGJMGNM@?$CITASK?$CJ?5?$CFs?5SEAD?5RECON?5?$CD?$CFd?5?$CI?$CFd?$CJ?5?9@ DB '('
	DB	'TASK) %s SEAD RECON #%d (%d) - Target Sector %d, %d : Rating '
	DB	'%f - CREATED (Priority %f)', 00H		; `string'
CONST	ENDS
;	COMDAT ??_C@_0FD@FFMCDIJF@?$CITASK?$CJ?5?$CFs?5SEAD?5?$CD?$CFd?5?$CI?$CFd?$CJ?5?9?5Targe@
CONST	SEGMENT
??_C@_0FD@FFMCDIJF@?$CITASK?$CJ?5?$CFs?5SEAD?5?$CD?$CFd?5?$CI?$CFd?$CJ?5?9?5Targe@ DB '('
	DB	'TASK) %s SEAD #%d (%d) - Target Sector %d, %d : Rating %f - C'
	DB	'REATED (Priority %f)', 00H			; `string'
CONST	ENDS
;	COMDAT ??_C@_0CE@HEJEDNOC@HIGHLEVL?3?5?$CFs?5?$CFd?5candidates?5for?5@
CONST	SEGMENT
??_C@_0CE@HEJEDNOC@HIGHLEVL?3?5?$CFs?5?$CFd?5candidates?5for?5@ DB 'HIGHL'
	DB	'EVL: %s %d candidates for SEAD', 00H	; `string'
CONST	ENDS
;	COMDAT ?__LINE__Var@?0??create_sead_tasks@@YGXXZ@4JA
_DATA	SEGMENT
?__LINE__Var@?0??create_sead_tasks@@YGXXZ@4JA DD 075dH	; `create_sead_tasks'::`1'::__LINE__Var
_DATA	ENDS
;	COMDAT ??_C@_0FD@NLNDEGBN@?$CITASK?$CJ?5?$CFs?5TROOP?5INSERTION?5?$CD?$CFd?5?$CI@
CONST	SEGMENT
??_C@_0FD@NLNDEGBN@?$CITASK?$CJ?5?$CFs?5TROOP?5INSERTION?5?$CD?$CFd?5?$CI@ DB '('
	DB	'TASK) %s TROOP INSERTION #%d (%d) - Target %s : Rating %f - C'
	DB	'REATED (Priority %f)', 00H			; `string'
CONST	ENDS
;	COMDAT ??_C@_0FG@FBHDLGFE@?$CITASK?$CJ?5?$CFs?5KEYSITE?5T?4I?4?5RECON?5?$CD?$CF@
CONST	SEGMENT
??_C@_0FG@FBHDLGFE@?$CITASK?$CJ?5?$CFs?5KEYSITE?5T?4I?4?5RECON?5?$CD?$CF@ DB '('
	DB	'TASK) %s KEYSITE T.I. RECON #%d (%d) - Target %s : Rating %f '
	DB	'- CREATED (Priority %f)', 00H		; `string'
CONST	ENDS
;	COMDAT ??_C@_0CD@EFNCGLHK@HIGHLEVL?3?5?$CFs?5?$CFd?5candidates?5for?5@
CONST	SEGMENT
??_C@_0CD@EFNCGLHK@HIGHLEVL?3?5?$CFs?5?$CFd?5candidates?5for?5@ DB 'HIGHL'
	DB	'EVL: %s %d candidates for T.I', 00H		; `string'
CONST	ENDS
;	COMDAT ??_C@_0BN@PNBNEKLM@?9?9?9?9?9?9?9?9?9?9?9?9?9?9?9?9?9?9?9?9?9?9?9?9?9?9?9?9@
CONST	SEGMENT
??_C@_0BN@PNBNEKLM@?9?9?9?9?9?9?9?9?9?9?9?9?9?9?9?9?9?9?9?9?9?9?9?9?9?9?9?9@ DB '-'
	DB	'---------------------------', 00H		; `string'
CONST	ENDS
;	COMDAT ??_C@_0BN@PAOIDBBL@CREATE?5TROOP?5INSERTION?5TASKS@
CONST	SEGMENT
??_C@_0BN@PAOIDBBL@CREATE?5TROOP?5INSERTION?5TASKS@ DB 'CREATE TROOP INSE'
	DB	'RTION TASKS', 00H				; `string'
CONST	ENDS
;	COMDAT ??_C@_0BN@LNBJDKDH@?$DN?$DN?$DN?$DN?$DN?$DN?$DN?$DN?$DN?$DN?$DN?$DN?$DN?$DN?$DN?$DN?$DN?$DN?$DN?$DN?$DN?$DN?$DN?$DN?$DN?$DN?$DN?$DN@
CONST	SEGMENT
??_C@_0BN@LNBJDKDH@?$DN?$DN?$DN?$DN?$DN?$DN?$DN?$DN?$DN?$DN?$DN?$DN?$DN?$DN?$DN?$DN?$DN?$DN?$DN?$DN?$DN?$DN?$DN?$DN?$DN?$DN?$DN?$DN@ DB '='
	DB	'===========================', 00H		; `string'
CONST	ENDS
;	COMDAT ?__LINE__Var@?0??create_troop_insertion_tasks@@YGXXZ@4JA
_DATA	SEGMENT
?__LINE__Var@?0??create_troop_insertion_tasks@@YGXXZ@4JA DD 0677H ; `create_troop_insertion_tasks'::`1'::__LINE__Var
_DATA	ENDS
;	COMDAT ??_C@_0EN@HANCKLDA@?$CITASK?$CJ?5?$CFs?5OCA?5SWEEP?5?$CD?$CFd?5?$CI?$CFd?$CJ?5?9?5@
CONST	SEGMENT
??_C@_0EN@HANCKLDA@?$CITASK?$CJ?5?$CFs?5OCA?5SWEEP?5?$CD?$CFd?5?$CI?$CFd?$CJ?5?9?5@ DB '('
	DB	'TASK) %s OCA SWEEP #%d (%d) - Target %s : Rating %f - CREATED'
	DB	' (Priority %f)', 00H			; `string'
CONST	ENDS
;	COMDAT ??_C@_0CJ@LAGELLPF@HIGHLEVL?3?5?$CFs?5?$CFd?5candidates?5for?5@
CONST	SEGMENT
??_C@_0CJ@LAGELLPF@HIGHLEVL?3?5?$CFs?5?$CFd?5candidates?5for?5@ DB 'HIGHL'
	DB	'EVL: %s %d candidates for OCA SWEEP', 00H	; `string'
CONST	ENDS
;	COMDAT ??_C@_0BH@ODOINJHA@CREATE?5OCA?5SWEEP?5TASKS@
CONST	SEGMENT
??_C@_0BH@ODOINJHA@CREATE?5OCA?5SWEEP?5TASKS@ DB 'CREATE OCA SWEEP TASKS', 00H ; `string'
CONST	ENDS
;	COMDAT ?__LINE__Var@?0??create_oca_sweep_tasks@@YGXXZ@4JA
_DATA	SEGMENT
?__LINE__Var@?0??create_oca_sweep_tasks@@YGXXZ@4JA DD 05bdH ; `create_oca_sweep_tasks'::`1'::__LINE__Var
_DATA	ENDS
;	COMDAT ??_C@_0EO@MIICAGKN@?$CITASK?$CJ?5?$CFs?5OCA?5STRIKE?5?$CD?$CFd?5?$CI?$CFd?$CJ?5?9@
CONST	SEGMENT
??_C@_0EO@MIICAGKN@?$CITASK?$CJ?5?$CFs?5OCA?5STRIKE?5?$CD?$CFd?5?$CI?$CFd?$CJ?5?9@ DB '('
	DB	'TASK) %s OCA STRIKE #%d (%d) - Target %s : Rating %f - CREATE'
	DB	'D (Priority %f)', 00H			; `string'
CONST	ENDS
;	COMDAT ??_C@_0CK@EOJIBDHN@HIGHLEVL?3?5?$CFs?5?$CFd?5candidates?5for?5@
CONST	SEGMENT
??_C@_0CK@EOJIBDHN@HIGHLEVL?3?5?$CFs?5?$CFd?5candidates?5for?5@ DB 'HIGHL'
	DB	'EVL: %s %d candidates for OCA STRIKE', 00H	; `string'
CONST	ENDS
;	COMDAT ??_C@_0BI@ELAFCIHN@CREATE?5OCA?5STRIKE?5TASKS@
CONST	SEGMENT
??_C@_0BI@ELAFCIHN@CREATE?5OCA?5STRIKE?5TASKS@ DB 'CREATE OCA STRIKE TASK'
	DB	'S', 00H					; `string'
CONST	ENDS
;	COMDAT ?__LINE__Var@?0??create_oca_strike_tasks@@YGXXZ@4JA
_DATA	SEGMENT
?__LINE__Var@?0??create_oca_strike_tasks@@YGXXZ@4JA DD 0503H ; `create_oca_strike_tasks'::`1'::__LINE__Var
_DATA	ENDS
;	COMDAT ??_C@_0FH@JBIGNNAG@?$CITASK?$CJ?5?$CFs?5KEYSITE?5SHIP?5STRIKE?5?$CD@
CONST	SEGMENT
??_C@_0FH@JBIGNNAG@?$CITASK?$CJ?5?$CFs?5KEYSITE?5SHIP?5STRIKE?5?$CD@ DB '('
	DB	'TASK) %s KEYSITE SHIP STRIKE #%d (%d) - Target %s : Rating %f'
	DB	' - CREATED (Priority %f)', 00H		; `string'
CONST	ENDS
;	COMDAT ??_C@_0FJ@EAKBAFJI@?$CITASK?$CJ?5?$CFs?5KEYSITE?5GROUND?5STRIKE@
CONST	SEGMENT
??_C@_0FJ@EAKBAFJI@?$CITASK?$CJ?5?$CFs?5KEYSITE?5GROUND?5STRIKE@ DB '(TAS'
	DB	'K) %s KEYSITE GROUND STRIKE #%d (%d) - Target %s : Rating %f '
	DB	'- CREATED (Priority %f)', 00H		; `string'
CONST	ENDS
;	COMDAT ??_C@_0FB@PJNGGCMD@?$CITASK?$CJ?5?$CFs?5KEYSITE?5RECON?5?$CD?$CFd?5?$CI?$CFd@
CONST	SEGMENT
??_C@_0FB@PJNGGCMD@?$CITASK?$CJ?5?$CFs?5KEYSITE?5RECON?5?$CD?$CFd?5?$CI?$CFd@ DB '('
	DB	'TASK) %s KEYSITE RECON #%d (%d) - Target %s : Rating %f - CRE'
	DB	'ATED (Priority %f)', 00H			; `string'
CONST	ENDS
;	COMDAT ??_C@_0DD@MFHODDPB@keysite_database?5?$FLkeysite_type?$FN@
CONST	SEGMENT
??_C@_0DD@MFHODDPB@keysite_database?5?$FLkeysite_type?$FN@ DB 'keysite_da'
	DB	'tabase [keysite_type].ship_strike_target', 00H ; `string'
CONST	ENDS
;	COMDAT ??_C@_0CG@NIEBJEDL@HIGHLEVL?3?5?$CFs?5?$CFd?5candidates?5for?5@
CONST	SEGMENT
??_C@_0CG@NIEBJEDL@HIGHLEVL?3?5?$CFs?5?$CFd?5candidates?5for?5@ DB 'HIGHL'
	DB	'EVL: %s %d candidates for STRIKE', 00H	; `string'
CONST	ENDS
;	COMDAT ??_C@_0BL@JMBEPNBE@?9?9?9?9?9?9?9?9?9?9?9?9?9?9?9?9?9?9?9?9?9?9?9?9?9?9@
CONST	SEGMENT
??_C@_0BL@JMBEPNBE@?9?9?9?9?9?9?9?9?9?9?9?9?9?9?9?9?9?9?9?9?9?9?9?9?9?9@ DB '-'
	DB	'-------------------------', 00H		; `string'
CONST	ENDS
;	COMDAT ??_C@_0BM@KDKLEBEP@CREATE?5KEYSITE?5STRIKE?5TASKS@
CONST	SEGMENT
??_C@_0BM@KDKLEBEP@CREATE?5KEYSITE?5STRIKE?5TASKS@ DB 'CREATE KEYSITE STR'
	DB	'IKE TASKS', 00H				; `string'
CONST	ENDS
;	COMDAT ??_C@_0BL@EBIHNBEK@?$DN?$DN?$DN?$DN?$DN?$DN?$DN?$DN?$DN?$DN?$DN?$DN?$DN?$DN?$DN?$DN?$DN?$DN?$DN?$DN?$DN?$DN?$DN?$DN?$DN?$DN@
CONST	SEGMENT
??_C@_0BL@EBIHNBEK@?$DN?$DN?$DN?$DN?$DN?$DN?$DN?$DN?$DN?$DN?$DN?$DN?$DN?$DN?$DN?$DN?$DN?$DN?$DN?$DN?$DN?$DN?$DN?$DN?$DN?$DN@ DB '='
	DB	'=========================', 00H		; `string'
CONST	ENDS
;	COMDAT ?__LINE__Var@?0??create_keysite_strike_tasks@@YGXXZ@4JA
_DATA	SEGMENT
?__LINE__Var@?0??create_keysite_strike_tasks@@YGXXZ@4JA DD 0401H ; `create_keysite_strike_tasks'::`1'::__LINE__Var
_DATA	ENDS
;	COMDAT ??_C@_0EN@NKEMKLGO@?$CITASK?$CJ?5?$CFs?5CAS?5?$CD?$CFd?5?$CI?$CFd?$CJ?5?9?5Target@
CONST	SEGMENT
??_C@_0EN@NKEMKLGO@?$CITASK?$CJ?5?$CFs?5CAS?5?$CD?$CFd?5?$CI?$CFd?$CJ?5?9?5Target@ DB '('
	DB	'TASK) %s CAS #%d (%d) - Target Group %s : Rating %f - CREATED'
	DB	' (Priority %f)', 00H			; `string'
CONST	ENDS
;	COMDAT ??_C@_0CD@HLLKHCJK@HIGHLEVL?3?5?$CFs?5?$CFd?5candidates?5for?5@
CONST	SEGMENT
??_C@_0CD@HLLKHCJK@HIGHLEVL?3?5?$CFs?5?$CFd?5candidates?5for?5@ DB 'HIGHL'
	DB	'EVL: %s %d candidates for CAS', 00H		; `string'
CONST	ENDS
;	COMDAT ??_C@_0BB@NLININCI@CREATE?5CAS?5TASKS@
CONST	SEGMENT
??_C@_0BB@NLININCI@CREATE?5CAS?5TASKS@ DB 'CREATE CAS TASKS', 00H ; `string'
CONST	ENDS
;	COMDAT ?__LINE__Var@?0??create_cas_tasks@@YGXXZ@4JA
_DATA	SEGMENT
?__LINE__Var@?0??create_cas_tasks@@YGXXZ@4JA DD 032eH	; `create_cas_tasks'::`1'::__LINE__Var
_DATA	ENDS
;	COMDAT ??_C@_0FD@POECHJC@?$CITASK?$CJ?5?$CFs?5BAI?5RECON?5?$CD?$CFd?5?$CI?$CFd?$CJ?5?9?5@
CONST	SEGMENT
??_C@_0FD@POECHJC@?$CITASK?$CJ?5?$CFs?5BAI?5RECON?5?$CD?$CFd?5?$CI?$CFd?$CJ?5?9?5@ DB '('
	DB	'TASK) %s BAI RECON #%d (%d) - Target Group %s : Rating %f - C'
	DB	'REATED (Priority %f)', 00H			; `string'
CONST	ENDS
;	COMDAT ??_C@_0EN@DCEEGNCA@?$CITASK?$CJ?5?$CFs?5BAI?5?$CD?$CFd?5?$CI?$CFd?$CJ?5?9?5Target@
CONST	SEGMENT
??_C@_0EN@DCEEGNCA@?$CITASK?$CJ?5?$CFs?5BAI?5?$CD?$CFd?5?$CI?$CFd?$CJ?5?9?5Target@ DB '('
	DB	'TASK) %s BAI #%d (%d) - Target Group %s : Rating %f - CREATED'
	DB	' (Priority %f)', 00H			; `string'
CONST	ENDS
;	COMDAT ??_C@_06IDGHNJOB@sector@
CONST	SEGMENT
??_C@_06IDGHNJOB@sector@ DB 'sector', 00H		; `string'
CONST	ENDS
;	COMDAT ??_C@_0BI@BNNJCIEB@target_rating?5?$FL0?$FN?5?$DO?50?40@
CONST	SEGMENT
??_C@_0BI@BNNJCIEB@target_rating?5?$FL0?$FN?5?$DO?50?40@ DB 'target_ratin'
	DB	'g [0] > 0.0', 00H				; `string'
CONST	ENDS
;	COMDAT ??_C@_0CD@HDCLOPCE@HIGHLEVL?3?5?$CFs?5?$CFd?5candidates?5for?5@
CONST	SEGMENT
??_C@_0CD@HDCLOPCE@HIGHLEVL?3?5?$CFs?5?$CFd?5candidates?5for?5@ DB 'HIGHL'
	DB	'EVL: %s %d candidates for BAI', 00H		; `string'
CONST	ENDS
;	COMDAT ??_C@_0BB@OAGJBGHP@?9?9?9?9?9?9?9?9?9?9?9?9?9?9?9?9@
CONST	SEGMENT
??_C@_0BB@OAGJBGHP@?9?9?9?9?9?9?9?9?9?9?9?9?9?9?9?9@ DB '----------------'
	DB	00H						; `string'
CONST	ENDS
;	COMDAT ??_C@_0BB@NJDEMLPF@CREATE?5BAI?5TASKS@
CONST	SEGMENT
??_C@_0BB@NJDEMLPF@CREATE?5BAI?5TASKS@ DB 'CREATE BAI TASKS', 00H ; `string'
CONST	ENDS
;	COMDAT ??_C@_0BB@NAOGIAIJ@?$DN?$DN?$DN?$DN?$DN?$DN?$DN?$DN?$DN?$DN?$DN?$DN?$DN?$DN?$DN?$DN@
CONST	SEGMENT
??_C@_0BB@NAOGIAIJ@?$DN?$DN?$DN?$DN?$DN?$DN?$DN?$DN?$DN?$DN?$DN?$DN?$DN?$DN?$DN?$DN@ DB '='
	DB	'===============', 00H			; `string'
CONST	ENDS
;	COMDAT ??_C@_0CJ@DMBLBJBK@get_comms_model?5?$CI?$CJ?5?$DN?$DN?5COMMS_MOD@
CONST	SEGMENT
??_C@_0CJ@DMBLBJBK@get_comms_model?5?$CI?$CJ?5?$DN?$DN?5COMMS_MOD@ DB 'ge'
	DB	't_comms_model () == COMMS_MODEL_SERVER', 00H ; `string'
CONST	ENDS
;	COMDAT ?__LINE__Var@?0??create_bai_tasks@@YGXXZ@4JA
_DATA	SEGMENT
?__LINE__Var@?0??create_bai_tasks@@YGXXZ@4JA DD 023eH	; `create_bai_tasks'::`1'::__LINE__Var
_DATA	ENDS
;	COMDAT ??_C@_0DK@PPPJLNAH@?$CITASK?$CJ?5Side?5?$CFs?5?3?5Created?5Advanc@
CONST	SEGMENT
??_C@_0DK@PPPJLNAH@?$CITASK?$CJ?5Side?5?$CFs?5?3?5Created?5Advanc@ DB '(T'
	DB	'ASK) Side %s : Created Advance for %s (Rating %f -> %f)', 00H ; `string'
CONST	ENDS
;	COMDAT ??_C@_0CP@NMIFMLJD@HIGHLEVL?3?5?$CFs?5?$CFd?5candidates?5for?5@
CONST	SEGMENT
??_C@_0CP@NMIFMLJD@HIGHLEVL?3?5?$CFs?5?$CFd?5candidates?5for?5@ DB 'HIGHL'
	DB	'EVL: %s %d candidates for Advance/Retreat', 00H ; `string'
CONST	ENDS
;	COMDAT ??_C@_0CE@FGAKBBGH@count?5?$DM?5MAX_HIGHLEVEL_TARGET_CH@
CONST	SEGMENT
??_C@_0CE@FGAKBBGH@count?5?$DM?5MAX_HIGHLEVEL_TARGET_CH@ DB 'count < MAX_'
	DB	'HIGHLEVEL_TARGET_CHECKS', 00H		; `string'
CONST	ENDS
;	COMDAT ??_C@_0CB@GNHPAIID@?9?9?9?9?9?9?9?9?9?9?9?9?9?9?9?9?9?9?9?9?9?9?9?9?9?9?9?9?9?9?9@
CONST	SEGMENT
??_C@_0CB@GNHPAIID@?9?9?9?9?9?9?9?9?9?9?9?9?9?9?9?9?9?9?9?9?9?9?9?9?9?9?9?9?9?9?9@ DB '-'
	DB	'-------------------------------', 00H	; `string'
CONST	ENDS
;	COMDAT ??_C@_0CB@LJIJLMNN@CREATE?5ADVANCE?5AND?5RETREAT?5TASK@
CONST	SEGMENT
??_C@_0CB@LJIJLMNN@CREATE?5ADVANCE?5AND?5RETREAT?5TASK@ DB 'CREATE ADVANC'
	DB	'E AND RETREAT TASKS', 00H			; `string'
CONST	ENDS
;	COMDAT ??_C@_0CB@HHHLKEEB@?$DN?$DN?$DN?$DN?$DN?$DN?$DN?$DN?$DN?$DN?$DN?$DN?$DN?$DN?$DN?$DN?$DN?$DN?$DN?$DN?$DN?$DN?$DN?$DN?$DN?$DN?$DN?$DN?$DN?$DN?$DN@
CONST	SEGMENT
??_C@_0CB@HHHLKEEB@?$DN?$DN?$DN?$DN?$DN?$DN?$DN?$DN?$DN?$DN?$DN?$DN?$DN?$DN?$DN?$DN?$DN?$DN?$DN?$DN?$DN?$DN?$DN?$DN?$DN?$DN?$DN?$DN?$DN?$DN?$DN@ DB '='
	DB	'===============================', 00H	; `string'
CONST	ENDS
;	COMDAT ?__LINE__Var@?0??create_advance_and_retreat_tasks@@YGXXZ@4JA
_DATA	SEGMENT
?__LINE__Var@?0??create_advance_and_retreat_tasks@@YGXXZ@4JA DD 0176H ; `create_advance_and_retreat_tasks'::`1'::__LINE__Var
_DATA	ENDS
;	COMDAT ??_C@_0CM@CLOFEPLL@fmod?5?$CI?$CI24?40f?5?$CK?5ONE_HOUR?$CJ?0?5frequ@
CONST	SEGMENT
??_C@_0CM@CLOFEPLL@fmod?5?$CI?$CI24?40f?5?$CK?5ONE_HOUR?$CJ?0?5frequ@ DB 'f'
	DB	'mod ((24.0f * ONE_HOUR), frequency) == 0.0', 00H ; `string'
CONST	ENDS
;	COMDAT ??_C@_0DG@BEFLEAOE@?$CIfrequency?5?$DO?50?40?$CJ?5?$CG?$CG?5?$CIfrequency@
CONST	SEGMENT
??_C@_0DG@BEFLEAOE@?$CIfrequency?5?$DO?50?40?$CJ?5?$CG?$CG?5?$CIfrequency@ DB '('
	DB	'frequency > 0.0) && (frequency <= (24.0 * ONE_HOUR))', 00H ; `string'
CONST	ENDS
;	COMDAT ??_C@_0DI@GLECGHEO@?$CIstart_time?5?$DO?$DN?50?40?$CJ?5?$CG?$CG?5?$CIstart_t@
CONST	SEGMENT
??_C@_0DI@GLECGHEO@?$CIstart_time?5?$DO?$DN?50?40?$CJ?5?$CG?$CG?5?$CIstart_t@ DB '('
	DB	'start_time >= 0.0) && (start_time < (24.0 * ONE_HOUR))', 00H ; `string'
CONST	ENDS
;	COMDAT ??_C@_0ED@GMECMFKH@c?3?2users?2nhv90?2projects?2eech?2ap@
CONST	SEGMENT
??_C@_0ED@GMECMFKH@c?3?2users?2nhv90?2projects?2eech?2ap@ DB 'c:\users\nh'
	DB	'v90\projects\eech\aphavoc\source\ai\highlevl\highlevl.c', 00H ; `string'
CONST	ENDS
;	COMDAT ?__LINE__Var@?0??add_high_level_ai_function@@YGHP6GXXZMM@Z@4JA
_DATA	SEGMENT
?__LINE__Var@?0??add_high_level_ai_function@@YGHP6GXXZMM@Z@4JA DD 0159H ; `add_high_level_ai_function'::`1'::__LINE__Var
_DATA	ENDS
;	COMDAT ??_C@_06MDHFGADH@AI?4LOG@
CONST	SEGMENT
??_C@_06MDHFGADH@AI?4LOG@ DB 'AI.LOG', 00H		; `string'
CONST	ENDS
;	COMDAT ??_C@_01NOFIACDB@w@
CONST	SEGMENT
??_C@_01NOFIACDB@w@ DB 'w', 00H				; `string'
CONST	ENDS
;	COMDAT ??_C@_02DKCKIIND@?$CFs@
CONST	SEGMENT
??_C@_02DKCKIIND@?$CFs@ DB '%s', 00H			; `string'
CONST	ENDS
; Function compile flags: /Odtp /ZI
; File c:\program files (x86)\microsoft visual studio\2017\community\vc\tools\msvc\14.16.27023\include\xtgmath.h
;	COMDAT ??$fmod@MHX@@YGNMH@Z
_TEXT	SEGMENT
__Left$ = 8						; size = 4
__Right$ = 12						; size = 4
??$fmod@MHX@@YGNMH@Z PROC				; fmod<float,int,void>, COMDAT

; 88   : _GENERIC_MATH2(fmod, _CRTDEFAULT)

  00000	55		 push	 ebp
  00001	8b ec		 mov	 ebp, esp
  00003	83 ec 40	 sub	 esp, 64			; 00000040H
  00006	53		 push	 ebx
  00007	56		 push	 esi
  00008	57		 push	 edi
  00009	f2 0f 2a 45 0c	 cvtsi2sd xmm0, DWORD PTR __Right$[ebp]
  0000e	83 ec 08	 sub	 esp, 8
  00011	f2 0f 11 04 24	 movsd	 QWORD PTR [esp], xmm0
  00016	f3 0f 5a 45 08	 cvtss2sd xmm0, DWORD PTR __Left$[ebp]
  0001b	83 ec 08	 sub	 esp, 8
  0001e	f2 0f 11 04 24	 movsd	 QWORD PTR [esp], xmm0
  00023	e8 00 00 00 00	 call	 _fmod
  00028	83 c4 10	 add	 esp, 16			; 00000010H
  0002b	5f		 pop	 edi
  0002c	5e		 pop	 esi
  0002d	5b		 pop	 ebx
  0002e	8b e5		 mov	 esp, ebp
  00030	5d		 pop	 ebp
  00031	c2 08 00	 ret	 8
??$fmod@MHX@@YGNMH@Z ENDP				; fmod<float,int,void>
_TEXT	ENDS
; Function compile flags: /Odtp /ZI
; File c:\program files (x86)\microsoft visual studio\2017\community\vc\tools\msvc\14.16.27023\include\algorithm
;	COMDAT ??$min@M@std@@YGABMABM0@Z
_TEXT	SEGMENT
__Left$ = 8						; size = 4
__Right$ = 12						; size = 4
??$min@M@std@@YGABMABM0@Z PROC				; std::min<float>, COMDAT

; 5427 : 	{	// return smaller of _Left and _Right

  00000	55		 push	 ebp
  00001	8b ec		 mov	 ebp, esp
  00003	83 ec 40	 sub	 esp, 64			; 00000040H
  00006	53		 push	 ebx
  00007	56		 push	 esi
  00008	57		 push	 edi

; 5428 : 	if (_Right < _Left)

  00009	8b 45 08	 mov	 eax, DWORD PTR __Left$[ebp]
  0000c	8b 4d 0c	 mov	 ecx, DWORD PTR __Right$[ebp]
  0000f	f3 0f 10 00	 movss	 xmm0, DWORD PTR [eax]
  00013	0f 2f 01	 comiss	 xmm0, DWORD PTR [ecx]
  00016	76 64		 jbe	 SHORT $LN8@min
$LN4@min:

; 5429 : 		{
; 5430 : 		_STL_ASSERT(!(_Left < _Right), "invalid comparator");

  00018	8b 45 0c	 mov	 eax, DWORD PTR __Right$[ebp]
  0001b	8b 4d 08	 mov	 ecx, DWORD PTR __Left$[ebp]
  0001e	f3 0f 10 00	 movss	 xmm0, DWORD PTR [eax]
  00022	0f 2f 01	 comiss	 xmm0, DWORD PTR [ecx]
  00025	77 02		 ja	 SHORT $LN9@min
  00027	eb 4a		 jmp	 SHORT $LN6@min
$LN9@min:
  00029	68 00 00 00 00	 push	 OFFSET ??_C@_0BD@FEEMDEPI@invalid?5comparator@
  0002e	68 00 00 00 00	 push	 OFFSET ??_C@_02DKCKIIND@?$CFs@
  00033	6a 00		 push	 0
  00035	68 36 15 00 00	 push	 5430			; 00001536H
  0003a	68 00 00 00 00	 push	 OFFSET ??_C@_0GK@JMBMHIBC@c?3?2program?5files?5?$CIx86?$CJ?2microsof@
  0003f	6a 02		 push	 2
  00041	ff 15 00 00 00
	00		 call	 DWORD PTR __imp___CrtDbgReport
  00047	83 c4 18	 add	 esp, 24			; 00000018H
  0004a	83 f8 01	 cmp	 eax, 1
  0004d	75 01		 jne	 SHORT $LN12@min
  0004f	cc		 int	 3
$LN12@min:
  00050	6a 00		 push	 0
  00052	68 36 15 00 00	 push	 5430			; 00001536H
  00057	68 00 00 00 00	 push	 OFFSET ??_C@_1NE@FKBPBJEB@?$AAc?$AA?3?$AA?2?$AAp?$AAr?$AAo?$AAg?$AAr?$AAa?$AAm?$AA?5?$AAf?$AAi?$AAl?$AAe@
  0005c	68 00 00 00 00	 push	 OFFSET ??_C@_1BC@BLAPCBGI@?$AAs?$AAt?$AAd?$AA?3?$AA?3?$AAm?$AAi?$AAn@
  00061	68 00 00 00 00	 push	 OFFSET ??_C@_1CK@NDNHPKPI@?$AA?$CC?$AAi?$AAn?$AAv?$AAa?$AAl?$AAi?$AAd?$AA?5?$AAc?$AAo?$AAm?$AAp?$AAa?$AAr@
  00066	ff 15 00 00 00
	00		 call	 DWORD PTR __imp___invalid_parameter
  0006c	83 c4 14	 add	 esp, 20			; 00000014H
  0006f	33 c0		 xor	 eax, eax
  00071	75 b6		 jne	 SHORT $LN9@min
$LN6@min:
  00073	33 c0		 xor	 eax, eax
  00075	75 a1		 jne	 SHORT $LN4@min

; 5431 : 		return (_Right);

  00077	8b 45 0c	 mov	 eax, DWORD PTR __Right$[ebp]
  0007a	eb 03		 jmp	 SHORT $LN1@min
$LN8@min:

; 5432 : 		}
; 5433 : 
; 5434 : 	return (_Left);

  0007c	8b 45 08	 mov	 eax, DWORD PTR __Left$[ebp]
$LN1@min:

; 5435 : 	}

  0007f	5f		 pop	 edi
  00080	5e		 pop	 esi
  00081	5b		 pop	 ebx
  00082	8b e5		 mov	 esp, ebp
  00084	5d		 pop	 ebp
  00085	c2 08 00	 ret	 8
??$min@M@std@@YGABMABM0@Z ENDP				; std::min<float>
_TEXT	ENDS
; Function compile flags: /Odtp /ZI
; File c:\program files (x86)\microsoft visual studio\2017\community\vc\tools\msvc\14.16.27023\include\algorithm
;	COMDAT ??$min@H@std@@YGABHABH0@Z
_TEXT	SEGMENT
__Left$ = 8						; size = 4
__Right$ = 12						; size = 4
??$min@H@std@@YGABHABH0@Z PROC				; std::min<int>, COMDAT

; 5427 : 	{	// return smaller of _Left and _Right

  00000	55		 push	 ebp
  00001	8b ec		 mov	 ebp, esp
  00003	83 ec 40	 sub	 esp, 64			; 00000040H
  00006	53		 push	 ebx
  00007	56		 push	 esi
  00008	57		 push	 edi

; 5428 : 	if (_Right < _Left)

  00009	8b 45 0c	 mov	 eax, DWORD PTR __Right$[ebp]
  0000c	8b 4d 08	 mov	 ecx, DWORD PTR __Left$[ebp]
  0000f	8b 10		 mov	 edx, DWORD PTR [eax]
  00011	3b 11		 cmp	 edx, DWORD PTR [ecx]
  00013	7d 61		 jge	 SHORT $LN8@min
$LN4@min:

; 5429 : 		{
; 5430 : 		_STL_ASSERT(!(_Left < _Right), "invalid comparator");

  00015	8b 45 08	 mov	 eax, DWORD PTR __Left$[ebp]
  00018	8b 4d 0c	 mov	 ecx, DWORD PTR __Right$[ebp]
  0001b	8b 10		 mov	 edx, DWORD PTR [eax]
  0001d	3b 11		 cmp	 edx, DWORD PTR [ecx]
  0001f	7c 02		 jl	 SHORT $LN7@min
  00021	eb 4a		 jmp	 SHORT $LN2@min
$LN7@min:
  00023	68 00 00 00 00	 push	 OFFSET ??_C@_0BD@FEEMDEPI@invalid?5comparator@
  00028	68 00 00 00 00	 push	 OFFSET ??_C@_02DKCKIIND@?$CFs@
  0002d	6a 00		 push	 0
  0002f	68 36 15 00 00	 push	 5430			; 00001536H
  00034	68 00 00 00 00	 push	 OFFSET ??_C@_0GK@JMBMHIBC@c?3?2program?5files?5?$CIx86?$CJ?2microsof@
  00039	6a 02		 push	 2
  0003b	ff 15 00 00 00
	00		 call	 DWORD PTR __imp___CrtDbgReport
  00041	83 c4 18	 add	 esp, 24			; 00000018H
  00044	83 f8 01	 cmp	 eax, 1
  00047	75 01		 jne	 SHORT $LN12@min
  00049	cc		 int	 3
$LN12@min:
  0004a	6a 00		 push	 0
  0004c	68 36 15 00 00	 push	 5430			; 00001536H
  00051	68 00 00 00 00	 push	 OFFSET ??_C@_1NE@FKBPBJEB@?$AAc?$AA?3?$AA?2?$AAp?$AAr?$AAo?$AAg?$AAr?$AAa?$AAm?$AA?5?$AAf?$AAi?$AAl?$AAe@
  00056	68 00 00 00 00	 push	 OFFSET ??_C@_1BC@BLAPCBGI@?$AAs?$AAt?$AAd?$AA?3?$AA?3?$AAm?$AAi?$AAn@
  0005b	68 00 00 00 00	 push	 OFFSET ??_C@_1CK@NDNHPKPI@?$AA?$CC?$AAi?$AAn?$AAv?$AAa?$AAl?$AAi?$AAd?$AA?5?$AAc?$AAo?$AAm?$AAp?$AAa?$AAr@
  00060	ff 15 00 00 00
	00		 call	 DWORD PTR __imp___invalid_parameter
  00066	83 c4 14	 add	 esp, 20			; 00000014H
  00069	33 c0		 xor	 eax, eax
  0006b	75 b6		 jne	 SHORT $LN7@min
$LN2@min:
  0006d	33 c0		 xor	 eax, eax
  0006f	75 a4		 jne	 SHORT $LN4@min

; 5431 : 		return (_Right);

  00071	8b 45 0c	 mov	 eax, DWORD PTR __Right$[ebp]
  00074	eb 03		 jmp	 SHORT $LN11@min
$LN8@min:

; 5432 : 		}
; 5433 : 
; 5434 : 	return (_Left);

  00076	8b 45 08	 mov	 eax, DWORD PTR __Left$[ebp]
$LN11@min:

; 5435 : 	}

  00079	5f		 pop	 edi
  0007a	5e		 pop	 esi
  0007b	5b		 pop	 ebx
  0007c	8b e5		 mov	 esp, ebp
  0007e	5d		 pop	 ebp
  0007f	c2 08 00	 ret	 8
??$min@H@std@@YGABHABH0@Z ENDP				; std::min<int>
_TEXT	ENDS
; Function compile flags: /Odtp /ZI
; File c:\users\nhv90\projects\eech\aphavoc\source\ai\highlevl\highlevl.c
;	COMDAT ?create_artillery_strike_tasks@@YGXXZ
_TEXT	SEGMENT
tv1214 = -184						; size = 8
tv1130 = -180						; size = 4
tv1268 = -176						; size = 8
tv1266 = -176						; size = 4
tv1123 = -172						; size = 4
tv1206 = -168						; size = 8
tv630 = -168						; size = 4
tv623 = -164						; size = 4
tv838 = -160						; size = 4
tv804 = -160						; size = 4
tv746 = -160						; size = 4
tv718 = -160						; size = 4
tv693 = -160						; size = 4
tv664 = -160						; size = 4
tv612 = -160						; size = 4
tv593 = -160						; size = 4
tv574 = -160						; size = 4
tv550 = -160						; size = 4
tv529 = -160						; size = 4
tv508 = -160						; size = 4
tv484 = -160						; size = 4
tv465 = -160						; size = 4
tv440 = -160						; size = 4
tv417 = -160						; size = 4
tv398 = -160						; size = 4
tv374 = -160						; size = 4
tv353 = -160						; size = 4
tv333 = -160						; size = 4
tv310 = -160						; size = 4
tv291 = -160						; size = 4
tv271 = -160						; size = 4
tv247 = -160						; size = 4
tv228 = -160						; size = 4
tv204 = -160						; size = 4
tv182 = -160						; size = 4
tv163 = -160						; size = 4
tv139 = -160						; size = 4
tv86 = -160						; size = 4
tv830 = -156						; size = 4
tv796 = -156						; size = 4
tv772 = -156						; size = 4
tv760 = -156						; size = 4
tv739 = -156						; size = 4
tv710 = -156						; size = 4
tv685 = -156						; size = 4
tv656 = -156						; size = 4
tv605 = -156						; size = 4
tv586 = -156						; size = 4
tv567 = -156						; size = 4
tv542 = -156						; size = 4
tv521 = -156						; size = 4
tv500 = -156						; size = 4
tv477 = -156						; size = 4
tv457 = -156						; size = 4
tv432 = -156						; size = 4
tv410 = -156						; size = 4
tv391 = -156						; size = 4
tv366 = -156						; size = 4
tv345 = -156						; size = 4
tv325 = -156						; size = 4
tv303 = -156						; size = 4
tv283 = -156						; size = 4
tv263 = -156						; size = 4
tv240 = -156						; size = 4
tv220 = -156						; size = 4
tv196 = -156						; size = 4
tv175 = -156						; size = 4
tv155 = -156						; size = 4
tv146 = -156						; size = 4
tv131 = -156						; size = 4
tv78 = -156						; size = 4
_max_range$ = -88					; size = 4
_range$ = -84						; size = 4
_target_index$ = -80					; size = 4
_group_index$ = -76					; size = 4
_target_keysite_count$ = -72				; size = 4
_target_group_count$ = -68				; size = 4
_target_count$ = -64					; size = 4
_target_sub_type$ = -60					; size = 4
_group_count$ = -56					; size = 4
_assigned_count$ = -52					; size = 4
_result$ = -48						; size = 4
_target_pos$ = -44					; size = 4
_pos$ = -40						; size = 4
_target_force$ = -36					; size = 4
_force$ = -32						; size = 4
_sector$ = -28						; size = 4
_target_list$ = -24					; size = 4
_group_list$ = -20					; size = 4
_target$ = -16						; size = 4
_group$ = -12						; size = 4
_enemy_side$ = -8					; size = 4
_side$ = -4						; size = 4
?create_artillery_strike_tasks@@YGXXZ PROC		; create_artillery_strike_tasks, COMDAT

; 2739 : {

  00000	55		 push	 ebp
  00001	8b ec		 mov	 ebp, esp
  00003	81 ec b8 00 00
	00		 sub	 esp, 184		; 000000b8H
  00009	53		 push	 ebx
  0000a	56		 push	 esi
  0000b	57		 push	 edi

; 2740 : 	entity_sides
; 2741 : 		side,
; 2742 : 		enemy_side;
; 2743 : 
; 2744 : 	entity
; 2745 : 		*group,
; 2746 : 		*target,
; 2747 : 		**group_list,
; 2748 : 		**target_list,
; 2749 : 		*sector,
; 2750 : 		*force,
; 2751 : 		*target_force;
; 2752 : 
; 2753 : 	vec3d
; 2754 : 		*pos,
; 2755 : 		*target_pos;
; 2756 : 
; 2757 : 	int
; 2758 : 		result,
; 2759 : 		assigned_count,
; 2760 : 		group_count,
; 2761 : 		target_sub_type,
; 2762 : 		target_count,
; 2763 : 		target_group_count,
; 2764 : 		target_keysite_count,
; 2765 : 		group_index,
; 2766 : 		target_index;
; 2767 : 
; 2768 : 	float
; 2769 : 		range,
; 2770 : 		max_range;
; 2771 : 
; 2772 : 	ASSERT (get_comms_model () == COMMS_MODEL_SERVER);

  0000c	83 3d 00 00 00
	00 00		 cmp	 DWORD PTR ?system_comms_model@@3W4COMMS_MODEL_TYPES@@A, 0 ; system_comms_model
  00013	74 18		 je	 SHORT $LN22@create_art
  00015	a1 00 00 00 00	 mov	 eax, DWORD PTR ?__LINE__Var@?0??create_artillery_strike_tasks@@YGXXZ@4JA
  0001a	83 c0 21	 add	 eax, 33			; 00000021H
  0001d	50		 push	 eax
  0001e	68 00 00 00 00	 push	 OFFSET ??_C@_0ED@GMECMFKH@c?3?2users?2nhv90?2projects?2eech?2ap@
  00023	68 00 00 00 00	 push	 OFFSET ??_C@_0CJ@DMBLBJBK@get_comms_model?5?$CI?$CJ?5?$DN?$DN?5COMMS_MOD@
  00028	e8 00 00 00 00	 call	 ?process_assert@@YGXPBD0H@Z ; process_assert
$LN22@create_art:

; 2773 : 
; 2774 : 	ai_log ("=============================");

  0002d	68 00 00 00 00	 push	 OFFSET ??_C@_0BO@NCOIPEIL@?$DN?$DN?$DN?$DN?$DN?$DN?$DN?$DN?$DN?$DN?$DN?$DN?$DN?$DN?$DN?$DN?$DN?$DN?$DN?$DN?$DN?$DN?$DN?$DN?$DN?$DN?$DN?$DN?$DN@
  00032	e8 00 00 00 00	 call	 ?ai_log@@YAXPBDZZ	; ai_log
  00037	83 c4 04	 add	 esp, 4

; 2775 : 	ai_log ("CREATE ARTILLERY STRIKE TASKS");

  0003a	68 00 00 00 00	 push	 OFFSET ??_C@_0BO@PKOHEKBI@CREATE?5ARTILLERY?5STRIKE?5TASKS@
  0003f	e8 00 00 00 00	 call	 ?ai_log@@YAXPBDZZ	; ai_log
  00044	83 c4 04	 add	 esp, 4

; 2776 : 	ai_log ("-----------------------------");

  00047	68 00 00 00 00	 push	 OFFSET ??_C@_0BO@OCAALIAC@?9?9?9?9?9?9?9?9?9?9?9?9?9?9?9?9?9?9?9?9?9?9?9?9?9?9?9?9?9@
  0004c	e8 00 00 00 00	 call	 ?ai_log@@YAXPBDZZ	; ai_log
  00051	83 c4 04	 add	 esp, 4

; 2777 : 
; 2778 : 	force = get_local_entity_first_child (get_session_entity (), LIST_TYPE_FORCE);

  00054	83 3d 00 00 00
	00 00		 cmp	 DWORD PTR ?session_entity@@3PAUENTITY@@A, 0 ; session_entity
  0005b	74 0f		 je	 SHORT $LN48@create_art
  0005d	a1 00 00 00 00	 mov	 eax, DWORD PTR ?session_entity@@3PAUENTITY@@A ; session_entity
  00062	8b 08		 mov	 ecx, DWORD PTR [eax]
  00064	89 8d 64 ff ff
	ff		 mov	 DWORD PTR tv78[ebp], ecx
  0006a	eb 24		 jmp	 SHORT $LN49@create_art
$LN48@create_art:
  0006c	8b 15 00 00 00
	00		 mov	 edx, DWORD PTR ?__LINE__Var@?0??create_artillery_strike_tasks@@YGXXZ@4JA
  00072	83 c2 27	 add	 edx, 39			; 00000027H
  00075	52		 push	 edx
  00076	68 00 00 00 00	 push	 OFFSET ??_C@_0ED@GMECMFKH@c?3?2users?2nhv90?2projects?2eech?2ap@
  0007b	a1 00 00 00 00	 mov	 eax, DWORD PTR ?null_entity_pointer_message@@3PBDB ; null_entity_pointer_message
  00080	50		 push	 eax
  00081	e8 00 00 00 00	 call	 ?process_assert@@YGXPBD0H@Z ; process_assert
  00086	c7 85 64 ff ff
	ff 00 00 00 00	 mov	 DWORD PTR tv78[ebp], 0
$LN49@create_art:
  00090	b9 01 00 00 00	 mov	 ecx, 1
  00095	85 c9		 test	 ecx, ecx
  00097	74 0c		 je	 SHORT $LN50@create_art
  00099	c7 85 60 ff ff
	ff 0e 00 00 00	 mov	 DWORD PTR tv86[ebp], 14	; 0000000eH
  000a3	eb 24		 jmp	 SHORT $LN51@create_art
$LN50@create_art:
  000a5	8b 15 00 00 00
	00		 mov	 edx, DWORD PTR ?__LINE__Var@?0??create_artillery_strike_tasks@@YGXXZ@4JA
  000ab	83 c2 27	 add	 edx, 39			; 00000027H
  000ae	52		 push	 edx
  000af	68 00 00 00 00	 push	 OFFSET ??_C@_0ED@GMECMFKH@c?3?2users?2nhv90?2projects?2eech?2ap@
  000b4	a1 00 00 00 00	 mov	 eax, DWORD PTR ?overload_invalid_list_type_message@@3PBDB ; overload_invalid_list_type_message
  000b9	50		 push	 eax
  000ba	e8 00 00 00 00	 call	 ?process_assert@@YGXPBD0H@Z ; process_assert
  000bf	c7 85 60 ff ff
	ff 00 00 00 00	 mov	 DWORD PTR tv86[ebp], 0
$LN51@create_art:
  000c9	6a 0e		 push	 14			; 0000000eH
  000cb	8b 0d 00 00 00
	00		 mov	 ecx, DWORD PTR ?session_entity@@3PAUENTITY@@A ; session_entity
  000d1	51		 push	 ecx
  000d2	69 95 64 ff ff
	ff b4 00 00 00	 imul	 edx, DWORD PTR tv78[ebp], 180
  000dc	8b 85 60 ff ff
	ff		 mov	 eax, DWORD PTR tv86[ebp]
  000e2	8b 8c 82 00 00
	00 00		 mov	 ecx, DWORD PTR ?fn_get_local_entity_first_child@@3PAY0CN@P6GPAUENTITY@@PAU1@W4LIST_TYPES@@@ZA[edx+eax*4]
  000e9	ff d1		 call	 ecx
  000eb	89 45 e0	 mov	 DWORD PTR _force$[ebp], eax
$LN2@create_art:

; 2779 : 
; 2780 : 	while (force)

  000ee	83 7d e0 00	 cmp	 DWORD PTR _force$[ebp], 0
  000f2	0f 84 5e 15 00
	00		 je	 $LN3@create_art

; 2781 : 	{
; 2782 : 		side = (entity_sides) get_local_entity_int_value (force, INT_TYPE_SIDE);

  000f8	83 7d e0 00	 cmp	 DWORD PTR _force$[ebp], 0
  000fc	74 0d		 je	 SHORT $LN52@create_art
  000fe	8b 45 e0	 mov	 eax, DWORD PTR _force$[ebp]
  00101	8b 08		 mov	 ecx, DWORD PTR [eax]
  00103	89 8d 64 ff ff
	ff		 mov	 DWORD PTR tv131[ebp], ecx
  00109	eb 24		 jmp	 SHORT $LN53@create_art
$LN52@create_art:
  0010b	8b 15 00 00 00
	00		 mov	 edx, DWORD PTR ?__LINE__Var@?0??create_artillery_strike_tasks@@YGXXZ@4JA
  00111	83 c2 2b	 add	 edx, 43			; 0000002bH
  00114	52		 push	 edx
  00115	68 00 00 00 00	 push	 OFFSET ??_C@_0ED@GMECMFKH@c?3?2users?2nhv90?2projects?2eech?2ap@
  0011a	a1 00 00 00 00	 mov	 eax, DWORD PTR ?null_entity_pointer_message@@3PBDB ; null_entity_pointer_message
  0011f	50		 push	 eax
  00120	e8 00 00 00 00	 call	 ?process_assert@@YGXPBD0H@Z ; process_assert
  00125	c7 85 64 ff ff
	ff 00 00 00 00	 mov	 DWORD PTR tv131[ebp], 0
$LN53@create_art:
  0012f	b9 01 00 00 00	 mov	 ecx, 1
  00134	85 c9		 test	 ecx, ecx
  00136	74 0c		 je	 SHORT $LN54@create_art
  00138	c7 85 60 ff ff
	ff bb 00 00 00	 mov	 DWORD PTR tv139[ebp], 187 ; 000000bbH
  00142	eb 24		 jmp	 SHORT $LN55@create_art
$LN54@create_art:
  00144	8b 15 00 00 00
	00		 mov	 edx, DWORD PTR ?__LINE__Var@?0??create_artillery_strike_tasks@@YGXXZ@4JA
  0014a	83 c2 2b	 add	 edx, 43			; 0000002bH
  0014d	52		 push	 edx
  0014e	68 00 00 00 00	 push	 OFFSET ??_C@_0ED@GMECMFKH@c?3?2users?2nhv90?2projects?2eech?2ap@
  00153	a1 00 00 00 00	 mov	 eax, DWORD PTR ?overload_invalid_int_type_message@@3PBDB ; overload_invalid_int_type_message
  00158	50		 push	 eax
  00159	e8 00 00 00 00	 call	 ?process_assert@@YGXPBD0H@Z ; process_assert
  0015e	c7 85 60 ff ff
	ff 00 00 00 00	 mov	 DWORD PTR tv139[ebp], 0
$LN55@create_art:
  00168	68 bb 00 00 00	 push	 187			; 000000bbH
  0016d	8b 4d e0	 mov	 ecx, DWORD PTR _force$[ebp]
  00170	51		 push	 ecx
  00171	69 95 64 ff ff
	ff 5c 04 00 00	 imul	 edx, DWORD PTR tv131[ebp], 1116
  0017b	8b 85 60 ff ff
	ff		 mov	 eax, DWORD PTR tv139[ebp]
  00181	8b 8c 82 00 00
	00 00		 mov	 ecx, DWORD PTR ?fn_get_local_entity_int_value@@3PAY0BBH@P6GHPAUENTITY@@W4INT_TYPES@@@ZA[edx+eax*4]
  00188	ff d1		 call	 ecx
  0018a	89 45 fc	 mov	 DWORD PTR _side$[ebp], eax

; 2783 : 
; 2784 : 		enemy_side = get_enemy_side (side);

  0018d	83 7d fc 01	 cmp	 DWORD PTR _side$[ebp], 1
  00191	75 0c		 jne	 SHORT $LN56@create_art
  00193	c7 85 64 ff ff
	ff 02 00 00 00	 mov	 DWORD PTR tv146[ebp], 2
  0019d	eb 0a		 jmp	 SHORT $LN57@create_art
$LN56@create_art:
  0019f	c7 85 64 ff ff
	ff 01 00 00 00	 mov	 DWORD PTR tv146[ebp], 1
$LN57@create_art:
  001a9	8b 85 64 ff ff
	ff		 mov	 eax, DWORD PTR tv146[ebp]
  001af	89 45 f8	 mov	 DWORD PTR _enemy_side$[ebp], eax

; 2785 : 
; 2786 : 		target_force = get_local_force_entity (enemy_side);

  001b2	8b 45 f8	 mov	 eax, DWORD PTR _enemy_side$[ebp]
  001b5	50		 push	 eax
  001b6	e8 00 00 00 00	 call	 ?get_local_force_entity@@YGPAUENTITY@@W4ENTITY_SIDES@@@Z ; get_local_force_entity
  001bb	89 45 dc	 mov	 DWORD PTR _target_force$[ebp], eax

; 2787 : 
; 2788 : 		//
; 2789 : 		// Store list of artillery groups
; 2790 : 		//
; 2791 : 
; 2792 : 		group_count = 0;

  001be	c7 45 c8 00 00
	00 00		 mov	 DWORD PTR _group_count$[ebp], 0

; 2793 : 
; 2794 : 		group = get_local_entity_first_child (force, LIST_TYPE_GROUND_REGISTRY);

  001c5	83 7d e0 00	 cmp	 DWORD PTR _force$[ebp], 0
  001c9	74 0d		 je	 SHORT $LN58@create_art
  001cb	8b 45 e0	 mov	 eax, DWORD PTR _force$[ebp]
  001ce	8b 08		 mov	 ecx, DWORD PTR [eax]
  001d0	89 8d 64 ff ff
	ff		 mov	 DWORD PTR tv155[ebp], ecx
  001d6	eb 24		 jmp	 SHORT $LN59@create_art
$LN58@create_art:
  001d8	8b 15 00 00 00
	00		 mov	 edx, DWORD PTR ?__LINE__Var@?0??create_artillery_strike_tasks@@YGXXZ@4JA
  001de	83 c2 37	 add	 edx, 55			; 00000037H
  001e1	52		 push	 edx
  001e2	68 00 00 00 00	 push	 OFFSET ??_C@_0ED@GMECMFKH@c?3?2users?2nhv90?2projects?2eech?2ap@
  001e7	a1 00 00 00 00	 mov	 eax, DWORD PTR ?null_entity_pointer_message@@3PBDB ; null_entity_pointer_message
  001ec	50		 push	 eax
  001ed	e8 00 00 00 00	 call	 ?process_assert@@YGXPBD0H@Z ; process_assert
  001f2	c7 85 64 ff ff
	ff 00 00 00 00	 mov	 DWORD PTR tv155[ebp], 0
$LN59@create_art:
  001fc	b9 01 00 00 00	 mov	 ecx, 1
  00201	85 c9		 test	 ecx, ecx
  00203	74 0c		 je	 SHORT $LN60@create_art
  00205	c7 85 60 ff ff
	ff 0f 00 00 00	 mov	 DWORD PTR tv163[ebp], 15 ; 0000000fH
  0020f	eb 24		 jmp	 SHORT $LN61@create_art
$LN60@create_art:
  00211	8b 15 00 00 00
	00		 mov	 edx, DWORD PTR ?__LINE__Var@?0??create_artillery_strike_tasks@@YGXXZ@4JA
  00217	83 c2 37	 add	 edx, 55			; 00000037H
  0021a	52		 push	 edx
  0021b	68 00 00 00 00	 push	 OFFSET ??_C@_0ED@GMECMFKH@c?3?2users?2nhv90?2projects?2eech?2ap@
  00220	a1 00 00 00 00	 mov	 eax, DWORD PTR ?overload_invalid_list_type_message@@3PBDB ; overload_invalid_list_type_message
  00225	50		 push	 eax
  00226	e8 00 00 00 00	 call	 ?process_assert@@YGXPBD0H@Z ; process_assert
  0022b	c7 85 60 ff ff
	ff 00 00 00 00	 mov	 DWORD PTR tv163[ebp], 0
$LN61@create_art:
  00235	6a 0f		 push	 15			; 0000000fH
  00237	8b 4d e0	 mov	 ecx, DWORD PTR _force$[ebp]
  0023a	51		 push	 ecx
  0023b	69 95 64 ff ff
	ff b4 00 00 00	 imul	 edx, DWORD PTR tv155[ebp], 180
  00245	8b 85 60 ff ff
	ff		 mov	 eax, DWORD PTR tv163[ebp]
  0024b	8b 8c 82 00 00
	00 00		 mov	 ecx, DWORD PTR ?fn_get_local_entity_first_child@@3PAY0CN@P6GPAUENTITY@@PAU1@W4LIST_TYPES@@@ZA[edx+eax*4]
  00252	ff d1		 call	 ecx
  00254	89 45 f4	 mov	 DWORD PTR _group$[ebp], eax
$LN4@create_art:

; 2795 : 
; 2796 : 		while (group)

  00257	83 7d f4 00	 cmp	 DWORD PTR _group$[ebp], 0
  0025b	0f 84 2c 01 00
	00		 je	 $LN5@create_art

; 2797 : 		{
; 2798 : 			if (get_local_entity_int_value (group, INT_TYPE_FRONTLINE) == GROUP_FRONTLINE_FLAG_ARTILLERY)

  00261	83 7d f4 00	 cmp	 DWORD PTR _group$[ebp], 0
  00265	74 0d		 je	 SHORT $LN62@create_art
  00267	8b 45 f4	 mov	 eax, DWORD PTR _group$[ebp]
  0026a	8b 08		 mov	 ecx, DWORD PTR [eax]
  0026c	89 8d 64 ff ff
	ff		 mov	 DWORD PTR tv175[ebp], ecx
  00272	eb 20		 jmp	 SHORT $LN63@create_art
$LN62@create_art:
  00274	68 ee 0a 00 00	 push	 2798			; 00000aeeH
  00279	68 00 00 00 00	 push	 OFFSET ??_C@_0ED@GMECMFKH@c?3?2users?2nhv90?2projects?2eech?2ap@
  0027e	8b 15 00 00 00
	00		 mov	 edx, DWORD PTR ?null_entity_pointer_message@@3PBDB ; null_entity_pointer_message
  00284	52		 push	 edx
  00285	e8 00 00 00 00	 call	 ?process_assert@@YGXPBD0H@Z ; process_assert
  0028a	c7 85 64 ff ff
	ff 00 00 00 00	 mov	 DWORD PTR tv175[ebp], 0
$LN63@create_art:
  00294	b8 01 00 00 00	 mov	 eax, 1
  00299	85 c0		 test	 eax, eax
  0029b	74 0c		 je	 SHORT $LN64@create_art
  0029d	c7 85 60 ff ff
	ff 41 00 00 00	 mov	 DWORD PTR tv182[ebp], 65 ; 00000041H
  002a7	eb 20		 jmp	 SHORT $LN65@create_art
$LN64@create_art:
  002a9	68 ee 0a 00 00	 push	 2798			; 00000aeeH
  002ae	68 00 00 00 00	 push	 OFFSET ??_C@_0ED@GMECMFKH@c?3?2users?2nhv90?2projects?2eech?2ap@
  002b3	8b 0d 00 00 00
	00		 mov	 ecx, DWORD PTR ?overload_invalid_int_type_message@@3PBDB ; overload_invalid_int_type_message
  002b9	51		 push	 ecx
  002ba	e8 00 00 00 00	 call	 ?process_assert@@YGXPBD0H@Z ; process_assert
  002bf	c7 85 60 ff ff
	ff 00 00 00 00	 mov	 DWORD PTR tv182[ebp], 0
$LN65@create_art:
  002c9	6a 41		 push	 65			; 00000041H
  002cb	8b 55 f4	 mov	 edx, DWORD PTR _group$[ebp]
  002ce	52		 push	 edx
  002cf	69 85 64 ff ff
	ff 5c 04 00 00	 imul	 eax, DWORD PTR tv175[ebp], 1116
  002d9	8b 8d 60 ff ff
	ff		 mov	 ecx, DWORD PTR tv182[ebp]
  002df	8b 94 88 00 00
	00 00		 mov	 edx, DWORD PTR ?fn_get_local_entity_int_value@@3PAY0BBH@P6GHPAUENTITY@@W4INT_TYPES@@@ZA[eax+ecx*4]
  002e6	ff d2		 call	 edx
  002e8	83 f8 03	 cmp	 eax, 3
  002eb	75 09		 jne	 SHORT $LN23@create_art

; 2799 : 			{
; 2800 : 				group_count ++;

  002ed	8b 45 c8	 mov	 eax, DWORD PTR _group_count$[ebp]
  002f0	83 c0 01	 add	 eax, 1
  002f3	89 45 c8	 mov	 DWORD PTR _group_count$[ebp], eax
$LN23@create_art:

; 2801 : 			}
; 2802 : 
; 2803 : 			group = get_local_entity_child_succ (group, LIST_TYPE_GROUND_REGISTRY);

  002f6	83 7d f4 00	 cmp	 DWORD PTR _group$[ebp], 0
  002fa	74 0d		 je	 SHORT $LN66@create_art
  002fc	8b 45 f4	 mov	 eax, DWORD PTR _group$[ebp]
  002ff	8b 08		 mov	 ecx, DWORD PTR [eax]
  00301	89 8d 64 ff ff
	ff		 mov	 DWORD PTR tv196[ebp], ecx
  00307	eb 24		 jmp	 SHORT $LN67@create_art
$LN66@create_art:
  00309	8b 15 00 00 00
	00		 mov	 edx, DWORD PTR ?__LINE__Var@?0??create_artillery_strike_tasks@@YGXXZ@4JA
  0030f	83 c2 40	 add	 edx, 64			; 00000040H
  00312	52		 push	 edx
  00313	68 00 00 00 00	 push	 OFFSET ??_C@_0ED@GMECMFKH@c?3?2users?2nhv90?2projects?2eech?2ap@
  00318	a1 00 00 00 00	 mov	 eax, DWORD PTR ?null_entity_pointer_message@@3PBDB ; null_entity_pointer_message
  0031d	50		 push	 eax
  0031e	e8 00 00 00 00	 call	 ?process_assert@@YGXPBD0H@Z ; process_assert
  00323	c7 85 64 ff ff
	ff 00 00 00 00	 mov	 DWORD PTR tv196[ebp], 0
$LN67@create_art:
  0032d	b9 01 00 00 00	 mov	 ecx, 1
  00332	85 c9		 test	 ecx, ecx
  00334	74 0c		 je	 SHORT $LN68@create_art
  00336	c7 85 60 ff ff
	ff 0f 00 00 00	 mov	 DWORD PTR tv204[ebp], 15 ; 0000000fH
  00340	eb 24		 jmp	 SHORT $LN69@create_art
$LN68@create_art:
  00342	8b 15 00 00 00
	00		 mov	 edx, DWORD PTR ?__LINE__Var@?0??create_artillery_strike_tasks@@YGXXZ@4JA
  00348	83 c2 40	 add	 edx, 64			; 00000040H
  0034b	52		 push	 edx
  0034c	68 00 00 00 00	 push	 OFFSET ??_C@_0ED@GMECMFKH@c?3?2users?2nhv90?2projects?2eech?2ap@
  00351	a1 00 00 00 00	 mov	 eax, DWORD PTR ?overload_invalid_list_type_message@@3PBDB ; overload_invalid_list_type_message
  00356	50		 push	 eax
  00357	e8 00 00 00 00	 call	 ?process_assert@@YGXPBD0H@Z ; process_assert
  0035c	c7 85 60 ff ff
	ff 00 00 00 00	 mov	 DWORD PTR tv204[ebp], 0
$LN69@create_art:
  00366	6a 0f		 push	 15			; 0000000fH
  00368	8b 4d f4	 mov	 ecx, DWORD PTR _group$[ebp]
  0036b	51		 push	 ecx
  0036c	69 95 64 ff ff
	ff b4 00 00 00	 imul	 edx, DWORD PTR tv196[ebp], 180
  00376	8b 85 60 ff ff
	ff		 mov	 eax, DWORD PTR tv204[ebp]
  0037c	8b 8c 82 00 00
	00 00		 mov	 ecx, DWORD PTR ?fn_get_local_entity_child_succ@@3PAY0CN@P6GPAUENTITY@@PAU1@W4LIST_TYPES@@@ZA[edx+eax*4]
  00383	ff d1		 call	 ecx
  00385	89 45 f4	 mov	 DWORD PTR _group$[ebp], eax

; 2804 : 		}

  00388	e9 ca fe ff ff	 jmp	 $LN4@create_art
$LN5@create_art:

; 2805 : 
; 2806 : 		if (group_count > 0)

  0038d	83 7d c8 00	 cmp	 DWORD PTR _group_count$[ebp], 0
  00391	0f 8e 22 12 00
	00		 jle	 $LN24@create_art

; 2807 : 		{
; 2808 : 			group_list = (entity**)malloc_fast_mem (sizeof (entity *) * group_count);

  00397	8b 45 c8	 mov	 eax, DWORD PTR _group_count$[ebp]
  0039a	c1 e0 02	 shl	 eax, 2
  0039d	50		 push	 eax
  0039e	e8 00 00 00 00	 call	 ?malloc_fast_memory@@YGPAXI@Z ; malloc_fast_memory
  003a3	89 45 ec	 mov	 DWORD PTR _group_list$[ebp], eax

; 2809 : 
; 2810 : 			group_count = 0;

  003a6	c7 45 c8 00 00
	00 00		 mov	 DWORD PTR _group_count$[ebp], 0

; 2811 : 	
; 2812 : 			group = get_local_entity_first_child (force, LIST_TYPE_GROUND_REGISTRY);

  003ad	83 7d e0 00	 cmp	 DWORD PTR _force$[ebp], 0
  003b1	74 0d		 je	 SHORT $LN70@create_art
  003b3	8b 45 e0	 mov	 eax, DWORD PTR _force$[ebp]
  003b6	8b 08		 mov	 ecx, DWORD PTR [eax]
  003b8	89 8d 64 ff ff
	ff		 mov	 DWORD PTR tv220[ebp], ecx
  003be	eb 24		 jmp	 SHORT $LN71@create_art
$LN70@create_art:
  003c0	8b 15 00 00 00
	00		 mov	 edx, DWORD PTR ?__LINE__Var@?0??create_artillery_strike_tasks@@YGXXZ@4JA
  003c6	83 c2 49	 add	 edx, 73			; 00000049H
  003c9	52		 push	 edx
  003ca	68 00 00 00 00	 push	 OFFSET ??_C@_0ED@GMECMFKH@c?3?2users?2nhv90?2projects?2eech?2ap@
  003cf	a1 00 00 00 00	 mov	 eax, DWORD PTR ?null_entity_pointer_message@@3PBDB ; null_entity_pointer_message
  003d4	50		 push	 eax
  003d5	e8 00 00 00 00	 call	 ?process_assert@@YGXPBD0H@Z ; process_assert
  003da	c7 85 64 ff ff
	ff 00 00 00 00	 mov	 DWORD PTR tv220[ebp], 0
$LN71@create_art:
  003e4	b9 01 00 00 00	 mov	 ecx, 1
  003e9	85 c9		 test	 ecx, ecx
  003eb	74 0c		 je	 SHORT $LN72@create_art
  003ed	c7 85 60 ff ff
	ff 0f 00 00 00	 mov	 DWORD PTR tv228[ebp], 15 ; 0000000fH
  003f7	eb 24		 jmp	 SHORT $LN73@create_art
$LN72@create_art:
  003f9	8b 15 00 00 00
	00		 mov	 edx, DWORD PTR ?__LINE__Var@?0??create_artillery_strike_tasks@@YGXXZ@4JA
  003ff	83 c2 49	 add	 edx, 73			; 00000049H
  00402	52		 push	 edx
  00403	68 00 00 00 00	 push	 OFFSET ??_C@_0ED@GMECMFKH@c?3?2users?2nhv90?2projects?2eech?2ap@
  00408	a1 00 00 00 00	 mov	 eax, DWORD PTR ?overload_invalid_list_type_message@@3PBDB ; overload_invalid_list_type_message
  0040d	50		 push	 eax
  0040e	e8 00 00 00 00	 call	 ?process_assert@@YGXPBD0H@Z ; process_assert
  00413	c7 85 60 ff ff
	ff 00 00 00 00	 mov	 DWORD PTR tv228[ebp], 0
$LN73@create_art:
  0041d	6a 0f		 push	 15			; 0000000fH
  0041f	8b 4d e0	 mov	 ecx, DWORD PTR _force$[ebp]
  00422	51		 push	 ecx
  00423	69 95 64 ff ff
	ff b4 00 00 00	 imul	 edx, DWORD PTR tv220[ebp], 180
  0042d	8b 85 60 ff ff
	ff		 mov	 eax, DWORD PTR tv228[ebp]
  00433	8b 8c 82 00 00
	00 00		 mov	 ecx, DWORD PTR ?fn_get_local_entity_first_child@@3PAY0CN@P6GPAUENTITY@@PAU1@W4LIST_TYPES@@@ZA[edx+eax*4]
  0043a	ff d1		 call	 ecx
  0043c	89 45 f4	 mov	 DWORD PTR _group$[ebp], eax
$LN6@create_art:

; 2813 : 	
; 2814 : 			while (group)

  0043f	83 7d f4 00	 cmp	 DWORD PTR _group$[ebp], 0
  00443	0f 84 38 01 00
	00		 je	 $LN7@create_art

; 2815 : 			{
; 2816 : 				if (get_local_entity_int_value (group, INT_TYPE_FRONTLINE) == GROUP_FRONTLINE_FLAG_ARTILLERY)

  00449	83 7d f4 00	 cmp	 DWORD PTR _group$[ebp], 0
  0044d	74 0d		 je	 SHORT $LN74@create_art
  0044f	8b 45 f4	 mov	 eax, DWORD PTR _group$[ebp]
  00452	8b 08		 mov	 ecx, DWORD PTR [eax]
  00454	89 8d 64 ff ff
	ff		 mov	 DWORD PTR tv240[ebp], ecx
  0045a	eb 20		 jmp	 SHORT $LN75@create_art
$LN74@create_art:
  0045c	68 00 0b 00 00	 push	 2816			; 00000b00H
  00461	68 00 00 00 00	 push	 OFFSET ??_C@_0ED@GMECMFKH@c?3?2users?2nhv90?2projects?2eech?2ap@
  00466	8b 15 00 00 00
	00		 mov	 edx, DWORD PTR ?null_entity_pointer_message@@3PBDB ; null_entity_pointer_message
  0046c	52		 push	 edx
  0046d	e8 00 00 00 00	 call	 ?process_assert@@YGXPBD0H@Z ; process_assert
  00472	c7 85 64 ff ff
	ff 00 00 00 00	 mov	 DWORD PTR tv240[ebp], 0
$LN75@create_art:
  0047c	b8 01 00 00 00	 mov	 eax, 1
  00481	85 c0		 test	 eax, eax
  00483	74 0c		 je	 SHORT $LN76@create_art
  00485	c7 85 60 ff ff
	ff 41 00 00 00	 mov	 DWORD PTR tv247[ebp], 65 ; 00000041H
  0048f	eb 20		 jmp	 SHORT $LN77@create_art
$LN76@create_art:
  00491	68 00 0b 00 00	 push	 2816			; 00000b00H
  00496	68 00 00 00 00	 push	 OFFSET ??_C@_0ED@GMECMFKH@c?3?2users?2nhv90?2projects?2eech?2ap@
  0049b	8b 0d 00 00 00
	00		 mov	 ecx, DWORD PTR ?overload_invalid_int_type_message@@3PBDB ; overload_invalid_int_type_message
  004a1	51		 push	 ecx
  004a2	e8 00 00 00 00	 call	 ?process_assert@@YGXPBD0H@Z ; process_assert
  004a7	c7 85 60 ff ff
	ff 00 00 00 00	 mov	 DWORD PTR tv247[ebp], 0
$LN77@create_art:
  004b1	6a 41		 push	 65			; 00000041H
  004b3	8b 55 f4	 mov	 edx, DWORD PTR _group$[ebp]
  004b6	52		 push	 edx
  004b7	69 85 64 ff ff
	ff 5c 04 00 00	 imul	 eax, DWORD PTR tv240[ebp], 1116
  004c1	8b 8d 60 ff ff
	ff		 mov	 ecx, DWORD PTR tv247[ebp]
  004c7	8b 94 88 00 00
	00 00		 mov	 edx, DWORD PTR ?fn_get_local_entity_int_value@@3PAY0BBH@P6GHPAUENTITY@@W4INT_TYPES@@@ZA[eax+ecx*4]
  004ce	ff d2		 call	 edx
  004d0	83 f8 03	 cmp	 eax, 3
  004d3	75 15		 jne	 SHORT $LN25@create_art

; 2817 : 				{
; 2818 : 					group_list [group_count] = group;

  004d5	8b 45 c8	 mov	 eax, DWORD PTR _group_count$[ebp]
  004d8	8b 4d ec	 mov	 ecx, DWORD PTR _group_list$[ebp]
  004db	8b 55 f4	 mov	 edx, DWORD PTR _group$[ebp]
  004de	89 14 81	 mov	 DWORD PTR [ecx+eax*4], edx

; 2819 : 
; 2820 : 					group_count ++;

  004e1	8b 45 c8	 mov	 eax, DWORD PTR _group_count$[ebp]
  004e4	83 c0 01	 add	 eax, 1
  004e7	89 45 c8	 mov	 DWORD PTR _group_count$[ebp], eax
$LN25@create_art:

; 2821 : 				}
; 2822 : 	
; 2823 : 				group = get_local_entity_child_succ (group, LIST_TYPE_GROUND_REGISTRY);

  004ea	83 7d f4 00	 cmp	 DWORD PTR _group$[ebp], 0
  004ee	74 0d		 je	 SHORT $LN78@create_art
  004f0	8b 45 f4	 mov	 eax, DWORD PTR _group$[ebp]
  004f3	8b 08		 mov	 ecx, DWORD PTR [eax]
  004f5	89 8d 64 ff ff
	ff		 mov	 DWORD PTR tv263[ebp], ecx
  004fb	eb 24		 jmp	 SHORT $LN79@create_art
$LN78@create_art:
  004fd	8b 15 00 00 00
	00		 mov	 edx, DWORD PTR ?__LINE__Var@?0??create_artillery_strike_tasks@@YGXXZ@4JA
  00503	83 c2 54	 add	 edx, 84			; 00000054H
  00506	52		 push	 edx
  00507	68 00 00 00 00	 push	 OFFSET ??_C@_0ED@GMECMFKH@c?3?2users?2nhv90?2projects?2eech?2ap@
  0050c	a1 00 00 00 00	 mov	 eax, DWORD PTR ?null_entity_pointer_message@@3PBDB ; null_entity_pointer_message
  00511	50		 push	 eax
  00512	e8 00 00 00 00	 call	 ?process_assert@@YGXPBD0H@Z ; process_assert
  00517	c7 85 64 ff ff
	ff 00 00 00 00	 mov	 DWORD PTR tv263[ebp], 0
$LN79@create_art:
  00521	b9 01 00 00 00	 mov	 ecx, 1
  00526	85 c9		 test	 ecx, ecx
  00528	74 0c		 je	 SHORT $LN80@create_art
  0052a	c7 85 60 ff ff
	ff 0f 00 00 00	 mov	 DWORD PTR tv271[ebp], 15 ; 0000000fH
  00534	eb 24		 jmp	 SHORT $LN81@create_art
$LN80@create_art:
  00536	8b 15 00 00 00
	00		 mov	 edx, DWORD PTR ?__LINE__Var@?0??create_artillery_strike_tasks@@YGXXZ@4JA
  0053c	83 c2 54	 add	 edx, 84			; 00000054H
  0053f	52		 push	 edx
  00540	68 00 00 00 00	 push	 OFFSET ??_C@_0ED@GMECMFKH@c?3?2users?2nhv90?2projects?2eech?2ap@
  00545	a1 00 00 00 00	 mov	 eax, DWORD PTR ?overload_invalid_list_type_message@@3PBDB ; overload_invalid_list_type_message
  0054a	50		 push	 eax
  0054b	e8 00 00 00 00	 call	 ?process_assert@@YGXPBD0H@Z ; process_assert
  00550	c7 85 60 ff ff
	ff 00 00 00 00	 mov	 DWORD PTR tv271[ebp], 0
$LN81@create_art:
  0055a	6a 0f		 push	 15			; 0000000fH
  0055c	8b 4d f4	 mov	 ecx, DWORD PTR _group$[ebp]
  0055f	51		 push	 ecx
  00560	69 95 64 ff ff
	ff b4 00 00 00	 imul	 edx, DWORD PTR tv263[ebp], 180
  0056a	8b 85 60 ff ff
	ff		 mov	 eax, DWORD PTR tv271[ebp]
  00570	8b 8c 82 00 00
	00 00		 mov	 ecx, DWORD PTR ?fn_get_local_entity_child_succ@@3PAY0CN@P6GPAUENTITY@@PAU1@W4LIST_TYPES@@@ZA[edx+eax*4]
  00577	ff d1		 call	 ecx
  00579	89 45 f4	 mov	 DWORD PTR _group$[ebp], eax

; 2824 : 			}

  0057c	e9 be fe ff ff	 jmp	 $LN6@create_art
$LN7@create_art:

; 2825 : 
; 2826 : 			//
; 2827 : 			// Count up possible targets (enemy frontline forces, keysites)
; 2828 : 			//
; 2829 : 
; 2830 : 			target_count = 0;

  00581	c7 45 c0 00 00
	00 00		 mov	 DWORD PTR _target_count$[ebp], 0

; 2831 : 
; 2832 : 			// groups...
; 2833 : 			target_group_count = 0;

  00588	c7 45 bc 00 00
	00 00		 mov	 DWORD PTR _target_group_count$[ebp], 0

; 2834 : 
; 2835 : 			target = get_local_entity_first_child (target_force, LIST_TYPE_GROUND_REGISTRY);

  0058f	83 7d dc 00	 cmp	 DWORD PTR _target_force$[ebp], 0
  00593	74 0d		 je	 SHORT $LN82@create_art
  00595	8b 45 dc	 mov	 eax, DWORD PTR _target_force$[ebp]
  00598	8b 08		 mov	 ecx, DWORD PTR [eax]
  0059a	89 8d 64 ff ff
	ff		 mov	 DWORD PTR tv283[ebp], ecx
  005a0	eb 24		 jmp	 SHORT $LN83@create_art
$LN82@create_art:
  005a2	8b 15 00 00 00
	00		 mov	 edx, DWORD PTR ?__LINE__Var@?0??create_artillery_strike_tasks@@YGXXZ@4JA
  005a8	83 c2 60	 add	 edx, 96			; 00000060H
  005ab	52		 push	 edx
  005ac	68 00 00 00 00	 push	 OFFSET ??_C@_0ED@GMECMFKH@c?3?2users?2nhv90?2projects?2eech?2ap@
  005b1	a1 00 00 00 00	 mov	 eax, DWORD PTR ?null_entity_pointer_message@@3PBDB ; null_entity_pointer_message
  005b6	50		 push	 eax
  005b7	e8 00 00 00 00	 call	 ?process_assert@@YGXPBD0H@Z ; process_assert
  005bc	c7 85 64 ff ff
	ff 00 00 00 00	 mov	 DWORD PTR tv283[ebp], 0
$LN83@create_art:
  005c6	b9 01 00 00 00	 mov	 ecx, 1
  005cb	85 c9		 test	 ecx, ecx
  005cd	74 0c		 je	 SHORT $LN84@create_art
  005cf	c7 85 60 ff ff
	ff 0f 00 00 00	 mov	 DWORD PTR tv291[ebp], 15 ; 0000000fH
  005d9	eb 24		 jmp	 SHORT $LN85@create_art
$LN84@create_art:
  005db	8b 15 00 00 00
	00		 mov	 edx, DWORD PTR ?__LINE__Var@?0??create_artillery_strike_tasks@@YGXXZ@4JA
  005e1	83 c2 60	 add	 edx, 96			; 00000060H
  005e4	52		 push	 edx
  005e5	68 00 00 00 00	 push	 OFFSET ??_C@_0ED@GMECMFKH@c?3?2users?2nhv90?2projects?2eech?2ap@
  005ea	a1 00 00 00 00	 mov	 eax, DWORD PTR ?overload_invalid_list_type_message@@3PBDB ; overload_invalid_list_type_message
  005ef	50		 push	 eax
  005f0	e8 00 00 00 00	 call	 ?process_assert@@YGXPBD0H@Z ; process_assert
  005f5	c7 85 60 ff ff
	ff 00 00 00 00	 mov	 DWORD PTR tv291[ebp], 0
$LN85@create_art:
  005ff	6a 0f		 push	 15			; 0000000fH
  00601	8b 4d dc	 mov	 ecx, DWORD PTR _target_force$[ebp]
  00604	51		 push	 ecx
  00605	69 95 64 ff ff
	ff b4 00 00 00	 imul	 edx, DWORD PTR tv283[ebp], 180
  0060f	8b 85 60 ff ff
	ff		 mov	 eax, DWORD PTR tv291[ebp]
  00615	8b 8c 82 00 00
	00 00		 mov	 ecx, DWORD PTR ?fn_get_local_entity_first_child@@3PAY0CN@P6GPAUENTITY@@PAU1@W4LIST_TYPES@@@ZA[edx+eax*4]
  0061c	ff d1		 call	 ecx
  0061e	89 45 f0	 mov	 DWORD PTR _target$[ebp], eax
$LN8@create_art:

; 2836 : 	
; 2837 : 			while (target)

  00621	83 7d f0 00	 cmp	 DWORD PTR _target$[ebp], 0
  00625	0f 84 34 01 00
	00		 je	 $LN9@create_art

; 2838 : 			{
; 2839 : 				if (get_local_entity_int_value (target, INT_TYPE_FRONTLINE) != GROUP_FRONTLINE_FLAG_NONE)

  0062b	83 7d f0 00	 cmp	 DWORD PTR _target$[ebp], 0
  0062f	74 0d		 je	 SHORT $LN86@create_art
  00631	8b 45 f0	 mov	 eax, DWORD PTR _target$[ebp]
  00634	8b 08		 mov	 ecx, DWORD PTR [eax]
  00636	89 8d 64 ff ff
	ff		 mov	 DWORD PTR tv303[ebp], ecx
  0063c	eb 20		 jmp	 SHORT $LN87@create_art
$LN86@create_art:
  0063e	68 17 0b 00 00	 push	 2839			; 00000b17H
  00643	68 00 00 00 00	 push	 OFFSET ??_C@_0ED@GMECMFKH@c?3?2users?2nhv90?2projects?2eech?2ap@
  00648	8b 15 00 00 00
	00		 mov	 edx, DWORD PTR ?null_entity_pointer_message@@3PBDB ; null_entity_pointer_message
  0064e	52		 push	 edx
  0064f	e8 00 00 00 00	 call	 ?process_assert@@YGXPBD0H@Z ; process_assert
  00654	c7 85 64 ff ff
	ff 00 00 00 00	 mov	 DWORD PTR tv303[ebp], 0
$LN87@create_art:
  0065e	b8 01 00 00 00	 mov	 eax, 1
  00663	85 c0		 test	 eax, eax
  00665	74 0c		 je	 SHORT $LN88@create_art
  00667	c7 85 60 ff ff
	ff 41 00 00 00	 mov	 DWORD PTR tv310[ebp], 65 ; 00000041H
  00671	eb 20		 jmp	 SHORT $LN89@create_art
$LN88@create_art:
  00673	68 17 0b 00 00	 push	 2839			; 00000b17H
  00678	68 00 00 00 00	 push	 OFFSET ??_C@_0ED@GMECMFKH@c?3?2users?2nhv90?2projects?2eech?2ap@
  0067d	8b 0d 00 00 00
	00		 mov	 ecx, DWORD PTR ?overload_invalid_int_type_message@@3PBDB ; overload_invalid_int_type_message
  00683	51		 push	 ecx
  00684	e8 00 00 00 00	 call	 ?process_assert@@YGXPBD0H@Z ; process_assert
  00689	c7 85 60 ff ff
	ff 00 00 00 00	 mov	 DWORD PTR tv310[ebp], 0
$LN89@create_art:
  00693	6a 41		 push	 65			; 00000041H
  00695	8b 55 f0	 mov	 edx, DWORD PTR _target$[ebp]
  00698	52		 push	 edx
  00699	69 85 64 ff ff
	ff 5c 04 00 00	 imul	 eax, DWORD PTR tv303[ebp], 1116
  006a3	8b 8d 60 ff ff
	ff		 mov	 ecx, DWORD PTR tv310[ebp]
  006a9	8b 94 88 00 00
	00 00		 mov	 edx, DWORD PTR ?fn_get_local_entity_int_value@@3PAY0BBH@P6GHPAUENTITY@@W4INT_TYPES@@@ZA[eax+ecx*4]
  006b0	ff d2		 call	 edx
  006b2	85 c0		 test	 eax, eax
  006b4	74 12		 je	 SHORT $LN26@create_art

; 2840 : 				{
; 2841 : 					target_count ++;

  006b6	8b 45 c0	 mov	 eax, DWORD PTR _target_count$[ebp]
  006b9	83 c0 01	 add	 eax, 1
  006bc	89 45 c0	 mov	 DWORD PTR _target_count$[ebp], eax

; 2842 : 
; 2843 : 					target_group_count ++;

  006bf	8b 45 bc	 mov	 eax, DWORD PTR _target_group_count$[ebp]
  006c2	83 c0 01	 add	 eax, 1
  006c5	89 45 bc	 mov	 DWORD PTR _target_group_count$[ebp], eax
$LN26@create_art:

; 2844 : 				}
; 2845 : 	
; 2846 : 				target = get_local_entity_child_succ (target, LIST_TYPE_GROUND_REGISTRY);

  006c8	83 7d f0 00	 cmp	 DWORD PTR _target$[ebp], 0
  006cc	74 0d		 je	 SHORT $LN90@create_art
  006ce	8b 45 f0	 mov	 eax, DWORD PTR _target$[ebp]
  006d1	8b 08		 mov	 ecx, DWORD PTR [eax]
  006d3	89 8d 64 ff ff
	ff		 mov	 DWORD PTR tv325[ebp], ecx
  006d9	eb 24		 jmp	 SHORT $LN91@create_art
$LN90@create_art:
  006db	8b 15 00 00 00
	00		 mov	 edx, DWORD PTR ?__LINE__Var@?0??create_artillery_strike_tasks@@YGXXZ@4JA
  006e1	83 c2 6b	 add	 edx, 107		; 0000006bH
  006e4	52		 push	 edx
  006e5	68 00 00 00 00	 push	 OFFSET ??_C@_0ED@GMECMFKH@c?3?2users?2nhv90?2projects?2eech?2ap@
  006ea	a1 00 00 00 00	 mov	 eax, DWORD PTR ?null_entity_pointer_message@@3PBDB ; null_entity_pointer_message
  006ef	50		 push	 eax
  006f0	e8 00 00 00 00	 call	 ?process_assert@@YGXPBD0H@Z ; process_assert
  006f5	c7 85 64 ff ff
	ff 00 00 00 00	 mov	 DWORD PTR tv325[ebp], 0
$LN91@create_art:
  006ff	b9 01 00 00 00	 mov	 ecx, 1
  00704	85 c9		 test	 ecx, ecx
  00706	74 0c		 je	 SHORT $LN92@create_art
  00708	c7 85 60 ff ff
	ff 0f 00 00 00	 mov	 DWORD PTR tv333[ebp], 15 ; 0000000fH
  00712	eb 24		 jmp	 SHORT $LN93@create_art
$LN92@create_art:
  00714	8b 15 00 00 00
	00		 mov	 edx, DWORD PTR ?__LINE__Var@?0??create_artillery_strike_tasks@@YGXXZ@4JA
  0071a	83 c2 6b	 add	 edx, 107		; 0000006bH
  0071d	52		 push	 edx
  0071e	68 00 00 00 00	 push	 OFFSET ??_C@_0ED@GMECMFKH@c?3?2users?2nhv90?2projects?2eech?2ap@
  00723	a1 00 00 00 00	 mov	 eax, DWORD PTR ?overload_invalid_list_type_message@@3PBDB ; overload_invalid_list_type_message
  00728	50		 push	 eax
  00729	e8 00 00 00 00	 call	 ?process_assert@@YGXPBD0H@Z ; process_assert
  0072e	c7 85 60 ff ff
	ff 00 00 00 00	 mov	 DWORD PTR tv333[ebp], 0
$LN93@create_art:
  00738	6a 0f		 push	 15			; 0000000fH
  0073a	8b 4d f0	 mov	 ecx, DWORD PTR _target$[ebp]
  0073d	51		 push	 ecx
  0073e	69 95 64 ff ff
	ff b4 00 00 00	 imul	 edx, DWORD PTR tv325[ebp], 180
  00748	8b 85 60 ff ff
	ff		 mov	 eax, DWORD PTR tv333[ebp]
  0074e	8b 8c 82 00 00
	00 00		 mov	 ecx, DWORD PTR ?fn_get_local_entity_child_succ@@3PAY0CN@P6GPAUENTITY@@PAU1@W4LIST_TYPES@@@ZA[edx+eax*4]
  00755	ff d1		 call	 ecx
  00757	89 45 f0	 mov	 DWORD PTR _target$[ebp], eax

; 2847 : 			}

  0075a	e9 c2 fe ff ff	 jmp	 $LN8@create_art
$LN9@create_art:

; 2848 : 
; 2849 : 			// keysites...
; 2850 : 			target_keysite_count = 0;

  0075f	c7 45 b8 00 00
	00 00		 mov	 DWORD PTR _target_keysite_count$[ebp], 0

; 2851 : 
; 2852 : 			target = get_local_entity_first_child (target_force, LIST_TYPE_KEYSITE_FORCE);

  00766	83 7d dc 00	 cmp	 DWORD PTR _target_force$[ebp], 0
  0076a	74 0d		 je	 SHORT $LN94@create_art
  0076c	8b 45 dc	 mov	 eax, DWORD PTR _target_force$[ebp]
  0076f	8b 08		 mov	 ecx, DWORD PTR [eax]
  00771	89 8d 64 ff ff
	ff		 mov	 DWORD PTR tv345[ebp], ecx
  00777	eb 24		 jmp	 SHORT $LN95@create_art
$LN94@create_art:
  00779	8b 15 00 00 00
	00		 mov	 edx, DWORD PTR ?__LINE__Var@?0??create_artillery_strike_tasks@@YGXXZ@4JA
  0077f	83 c2 71	 add	 edx, 113		; 00000071H
  00782	52		 push	 edx
  00783	68 00 00 00 00	 push	 OFFSET ??_C@_0ED@GMECMFKH@c?3?2users?2nhv90?2projects?2eech?2ap@
  00788	a1 00 00 00 00	 mov	 eax, DWORD PTR ?null_entity_pointer_message@@3PBDB ; null_entity_pointer_message
  0078d	50		 push	 eax
  0078e	e8 00 00 00 00	 call	 ?process_assert@@YGXPBD0H@Z ; process_assert
  00793	c7 85 64 ff ff
	ff 00 00 00 00	 mov	 DWORD PTR tv345[ebp], 0
$LN95@create_art:
  0079d	b9 01 00 00 00	 mov	 ecx, 1
  007a2	85 c9		 test	 ecx, ecx
  007a4	74 0c		 je	 SHORT $LN96@create_art
  007a6	c7 85 60 ff ff
	ff 15 00 00 00	 mov	 DWORD PTR tv353[ebp], 21 ; 00000015H
  007b0	eb 24		 jmp	 SHORT $LN97@create_art
$LN96@create_art:
  007b2	8b 15 00 00 00
	00		 mov	 edx, DWORD PTR ?__LINE__Var@?0??create_artillery_strike_tasks@@YGXXZ@4JA
  007b8	83 c2 71	 add	 edx, 113		; 00000071H
  007bb	52		 push	 edx
  007bc	68 00 00 00 00	 push	 OFFSET ??_C@_0ED@GMECMFKH@c?3?2users?2nhv90?2projects?2eech?2ap@
  007c1	a1 00 00 00 00	 mov	 eax, DWORD PTR ?overload_invalid_list_type_message@@3PBDB ; overload_invalid_list_type_message
  007c6	50		 push	 eax
  007c7	e8 00 00 00 00	 call	 ?process_assert@@YGXPBD0H@Z ; process_assert
  007cc	c7 85 60 ff ff
	ff 00 00 00 00	 mov	 DWORD PTR tv353[ebp], 0
$LN97@create_art:
  007d6	6a 15		 push	 21			; 00000015H
  007d8	8b 4d dc	 mov	 ecx, DWORD PTR _target_force$[ebp]
  007db	51		 push	 ecx
  007dc	69 95 64 ff ff
	ff b4 00 00 00	 imul	 edx, DWORD PTR tv345[ebp], 180
  007e6	8b 85 60 ff ff
	ff		 mov	 eax, DWORD PTR tv353[ebp]
  007ec	8b 8c 82 00 00
	00 00		 mov	 ecx, DWORD PTR ?fn_get_local_entity_first_child@@3PAY0CN@P6GPAUENTITY@@PAU1@W4LIST_TYPES@@@ZA[edx+eax*4]
  007f3	ff d1		 call	 ecx
  007f5	89 45 f0	 mov	 DWORD PTR _target$[ebp], eax
$LN10@create_art:

; 2853 : 	
; 2854 : 			while (target)

  007f8	83 7d f0 00	 cmp	 DWORD PTR _target$[ebp], 0
  007fc	0f 84 71 02 00
	00		 je	 $LN11@create_art

; 2855 : 			{
; 2856 : 				target_sub_type = get_local_entity_int_value (target, INT_TYPE_ENTITY_SUB_TYPE);

  00802	83 7d f0 00	 cmp	 DWORD PTR _target$[ebp], 0
  00806	74 0d		 je	 SHORT $LN98@create_art
  00808	8b 45 f0	 mov	 eax, DWORD PTR _target$[ebp]
  0080b	8b 08		 mov	 ecx, DWORD PTR [eax]
  0080d	89 8d 64 ff ff
	ff		 mov	 DWORD PTR tv366[ebp], ecx
  00813	eb 24		 jmp	 SHORT $LN99@create_art
$LN98@create_art:
  00815	8b 15 00 00 00
	00		 mov	 edx, DWORD PTR ?__LINE__Var@?0??create_artillery_strike_tasks@@YGXXZ@4JA
  0081b	83 c2 75	 add	 edx, 117		; 00000075H
  0081e	52		 push	 edx
  0081f	68 00 00 00 00	 push	 OFFSET ??_C@_0ED@GMECMFKH@c?3?2users?2nhv90?2projects?2eech?2ap@
  00824	a1 00 00 00 00	 mov	 eax, DWORD PTR ?null_entity_pointer_message@@3PBDB ; null_entity_pointer_message
  00829	50		 push	 eax
  0082a	e8 00 00 00 00	 call	 ?process_assert@@YGXPBD0H@Z ; process_assert
  0082f	c7 85 64 ff ff
	ff 00 00 00 00	 mov	 DWORD PTR tv366[ebp], 0
$LN99@create_art:
  00839	b9 01 00 00 00	 mov	 ecx, 1
  0083e	85 c9		 test	 ecx, ecx
  00840	74 0c		 je	 SHORT $LN100@create_art
  00842	c7 85 60 ff ff
	ff 34 00 00 00	 mov	 DWORD PTR tv374[ebp], 52 ; 00000034H
  0084c	eb 24		 jmp	 SHORT $LN101@create_art
$LN100@create_art:
  0084e	8b 15 00 00 00
	00		 mov	 edx, DWORD PTR ?__LINE__Var@?0??create_artillery_strike_tasks@@YGXXZ@4JA
  00854	83 c2 75	 add	 edx, 117		; 00000075H
  00857	52		 push	 edx
  00858	68 00 00 00 00	 push	 OFFSET ??_C@_0ED@GMECMFKH@c?3?2users?2nhv90?2projects?2eech?2ap@
  0085d	a1 00 00 00 00	 mov	 eax, DWORD PTR ?overload_invalid_int_type_message@@3PBDB ; overload_invalid_int_type_message
  00862	50		 push	 eax
  00863	e8 00 00 00 00	 call	 ?process_assert@@YGXPBD0H@Z ; process_assert
  00868	c7 85 60 ff ff
	ff 00 00 00 00	 mov	 DWORD PTR tv374[ebp], 0
$LN101@create_art:
  00872	6a 34		 push	 52			; 00000034H
  00874	8b 4d f0	 mov	 ecx, DWORD PTR _target$[ebp]
  00877	51		 push	 ecx
  00878	69 95 64 ff ff
	ff 5c 04 00 00	 imul	 edx, DWORD PTR tv366[ebp], 1116
  00882	8b 85 60 ff ff
	ff		 mov	 eax, DWORD PTR tv374[ebp]
  00888	8b 8c 82 00 00
	00 00		 mov	 ecx, DWORD PTR ?fn_get_local_entity_int_value@@3PAY0BBH@P6GHPAUENTITY@@W4INT_TYPES@@@ZA[edx+eax*4]
  0088f	ff d1		 call	 ecx
  00891	89 45 c4	 mov	 DWORD PTR _target_sub_type$[ebp], eax

; 2857 : 
; 2858 : 				if (keysite_database [target_sub_type].ground_strike_target)

  00894	6b 45 c4 44	 imul	 eax, DWORD PTR _target_sub_type$[ebp], 68
  00898	8b 88 40 00 00
	00		 mov	 ecx, DWORD PTR ?keysite_database@@3PAUKEYSITE_DATA@@A[eax+64]
  0089e	c1 e9 0a	 shr	 ecx, 10			; 0000000aH
  008a1	83 e1 01	 and	 ecx, 1
  008a4	0f 84 2c 01 00
	00		 je	 $LN28@create_art

; 2859 : 				{
; 2860 : 					if ((get_local_entity_int_value (target, INT_TYPE_IN_USE)) && (get_local_entity_int_value (target, INT_TYPE_ALIVE)))

  008aa	83 7d f0 00	 cmp	 DWORD PTR _target$[ebp], 0
  008ae	74 0d		 je	 SHORT $LN102@create_art
  008b0	8b 45 f0	 mov	 eax, DWORD PTR _target$[ebp]
  008b3	8b 08		 mov	 ecx, DWORD PTR [eax]
  008b5	89 8d 64 ff ff
	ff		 mov	 DWORD PTR tv391[ebp], ecx
  008bb	eb 20		 jmp	 SHORT $LN103@create_art
$LN102@create_art:
  008bd	68 2c 0b 00 00	 push	 2860			; 00000b2cH
  008c2	68 00 00 00 00	 push	 OFFSET ??_C@_0ED@GMECMFKH@c?3?2users?2nhv90?2projects?2eech?2ap@
  008c7	8b 15 00 00 00
	00		 mov	 edx, DWORD PTR ?null_entity_pointer_message@@3PBDB ; null_entity_pointer_message
  008cd	52		 push	 edx
  008ce	e8 00 00 00 00	 call	 ?process_assert@@YGXPBD0H@Z ; process_assert
  008d3	c7 85 64 ff ff
	ff 00 00 00 00	 mov	 DWORD PTR tv391[ebp], 0
$LN103@create_art:
  008dd	b8 01 00 00 00	 mov	 eax, 1
  008e2	85 c0		 test	 eax, eax
  008e4	74 0c		 je	 SHORT $LN104@create_art
  008e6	c7 85 60 ff ff
	ff 6d 00 00 00	 mov	 DWORD PTR tv398[ebp], 109 ; 0000006dH
  008f0	eb 20		 jmp	 SHORT $LN105@create_art
$LN104@create_art:
  008f2	68 2c 0b 00 00	 push	 2860			; 00000b2cH
  008f7	68 00 00 00 00	 push	 OFFSET ??_C@_0ED@GMECMFKH@c?3?2users?2nhv90?2projects?2eech?2ap@
  008fc	8b 0d 00 00 00
	00		 mov	 ecx, DWORD PTR ?overload_invalid_int_type_message@@3PBDB ; overload_invalid_int_type_message
  00902	51		 push	 ecx
  00903	e8 00 00 00 00	 call	 ?process_assert@@YGXPBD0H@Z ; process_assert
  00908	c7 85 60 ff ff
	ff 00 00 00 00	 mov	 DWORD PTR tv398[ebp], 0
$LN105@create_art:
  00912	6a 6d		 push	 109			; 0000006dH
  00914	8b 55 f0	 mov	 edx, DWORD PTR _target$[ebp]
  00917	52		 push	 edx
  00918	69 85 64 ff ff
	ff 5c 04 00 00	 imul	 eax, DWORD PTR tv391[ebp], 1116
  00922	8b 8d 60 ff ff
	ff		 mov	 ecx, DWORD PTR tv398[ebp]
  00928	8b 94 88 00 00
	00 00		 mov	 edx, DWORD PTR ?fn_get_local_entity_int_value@@3PAY0BBH@P6GHPAUENTITY@@W4INT_TYPES@@@ZA[eax+ecx*4]
  0092f	ff d2		 call	 edx
  00931	85 c0		 test	 eax, eax
  00933	0f 84 9d 00 00
	00		 je	 $LN28@create_art
  00939	83 7d f0 00	 cmp	 DWORD PTR _target$[ebp], 0
  0093d	74 0d		 je	 SHORT $LN106@create_art
  0093f	8b 45 f0	 mov	 eax, DWORD PTR _target$[ebp]
  00942	8b 08		 mov	 ecx, DWORD PTR [eax]
  00944	89 8d 64 ff ff
	ff		 mov	 DWORD PTR tv410[ebp], ecx
  0094a	eb 20		 jmp	 SHORT $LN107@create_art
$LN106@create_art:
  0094c	68 2c 0b 00 00	 push	 2860			; 00000b2cH
  00951	68 00 00 00 00	 push	 OFFSET ??_C@_0ED@GMECMFKH@c?3?2users?2nhv90?2projects?2eech?2ap@
  00956	8b 15 00 00 00
	00		 mov	 edx, DWORD PTR ?null_entity_pointer_message@@3PBDB ; null_entity_pointer_message
  0095c	52		 push	 edx
  0095d	e8 00 00 00 00	 call	 ?process_assert@@YGXPBD0H@Z ; process_assert
  00962	c7 85 64 ff ff
	ff 00 00 00 00	 mov	 DWORD PTR tv410[ebp], 0
$LN107@create_art:
  0096c	b8 01 00 00 00	 mov	 eax, 1
  00971	85 c0		 test	 eax, eax
  00973	74 0c		 je	 SHORT $LN108@create_art
  00975	c7 85 60 ff ff
	ff 07 00 00 00	 mov	 DWORD PTR tv417[ebp], 7
  0097f	eb 20		 jmp	 SHORT $LN109@create_art
$LN108@create_art:
  00981	68 2c 0b 00 00	 push	 2860			; 00000b2cH
  00986	68 00 00 00 00	 push	 OFFSET ??_C@_0ED@GMECMFKH@c?3?2users?2nhv90?2projects?2eech?2ap@
  0098b	8b 0d 00 00 00
	00		 mov	 ecx, DWORD PTR ?overload_invalid_int_type_message@@3PBDB ; overload_invalid_int_type_message
  00991	51		 push	 ecx
  00992	e8 00 00 00 00	 call	 ?process_assert@@YGXPBD0H@Z ; process_assert
  00997	c7 85 60 ff ff
	ff 00 00 00 00	 mov	 DWORD PTR tv417[ebp], 0
$LN109@create_art:
  009a1	6a 07		 push	 7
  009a3	8b 55 f0	 mov	 edx, DWORD PTR _target$[ebp]
  009a6	52		 push	 edx
  009a7	69 85 64 ff ff
	ff 5c 04 00 00	 imul	 eax, DWORD PTR tv410[ebp], 1116
  009b1	8b 8d 60 ff ff
	ff		 mov	 ecx, DWORD PTR tv417[ebp]
  009b7	8b 94 88 00 00
	00 00		 mov	 edx, DWORD PTR ?fn_get_local_entity_int_value@@3PAY0BBH@P6GHPAUENTITY@@W4INT_TYPES@@@ZA[eax+ecx*4]
  009be	ff d2		 call	 edx
  009c0	85 c0		 test	 eax, eax
  009c2	74 12		 je	 SHORT $LN28@create_art

; 2861 : 					{
; 2862 : 						target_count ++;

  009c4	8b 45 c0	 mov	 eax, DWORD PTR _target_count$[ebp]
  009c7	83 c0 01	 add	 eax, 1
  009ca	89 45 c0	 mov	 DWORD PTR _target_count$[ebp], eax

; 2863 : 	
; 2864 : 						target_keysite_count ++;

  009cd	8b 45 b8	 mov	 eax, DWORD PTR _target_keysite_count$[ebp]
  009d0	83 c0 01	 add	 eax, 1
  009d3	89 45 b8	 mov	 DWORD PTR _target_keysite_count$[ebp], eax
$LN28@create_art:

; 2865 : 					}
; 2866 : 				}
; 2867 : 
; 2868 : 				target = get_local_entity_child_succ (target, LIST_TYPE_KEYSITE_FORCE);

  009d6	83 7d f0 00	 cmp	 DWORD PTR _target$[ebp], 0
  009da	74 0d		 je	 SHORT $LN110@create_art
  009dc	8b 45 f0	 mov	 eax, DWORD PTR _target$[ebp]
  009df	8b 08		 mov	 ecx, DWORD PTR [eax]
  009e1	89 8d 64 ff ff
	ff		 mov	 DWORD PTR tv432[ebp], ecx
  009e7	eb 27		 jmp	 SHORT $LN111@create_art
$LN110@create_art:
  009e9	8b 15 00 00 00
	00		 mov	 edx, DWORD PTR ?__LINE__Var@?0??create_artillery_strike_tasks@@YGXXZ@4JA
  009ef	81 c2 81 00 00
	00		 add	 edx, 129		; 00000081H
  009f5	52		 push	 edx
  009f6	68 00 00 00 00	 push	 OFFSET ??_C@_0ED@GMECMFKH@c?3?2users?2nhv90?2projects?2eech?2ap@
  009fb	a1 00 00 00 00	 mov	 eax, DWORD PTR ?null_entity_pointer_message@@3PBDB ; null_entity_pointer_message
  00a00	50		 push	 eax
  00a01	e8 00 00 00 00	 call	 ?process_assert@@YGXPBD0H@Z ; process_assert
  00a06	c7 85 64 ff ff
	ff 00 00 00 00	 mov	 DWORD PTR tv432[ebp], 0
$LN111@create_art:
  00a10	b9 01 00 00 00	 mov	 ecx, 1
  00a15	85 c9		 test	 ecx, ecx
  00a17	74 0c		 je	 SHORT $LN112@create_art
  00a19	c7 85 60 ff ff
	ff 15 00 00 00	 mov	 DWORD PTR tv440[ebp], 21 ; 00000015H
  00a23	eb 27		 jmp	 SHORT $LN113@create_art
$LN112@create_art:
  00a25	8b 15 00 00 00
	00		 mov	 edx, DWORD PTR ?__LINE__Var@?0??create_artillery_strike_tasks@@YGXXZ@4JA
  00a2b	81 c2 81 00 00
	00		 add	 edx, 129		; 00000081H
  00a31	52		 push	 edx
  00a32	68 00 00 00 00	 push	 OFFSET ??_C@_0ED@GMECMFKH@c?3?2users?2nhv90?2projects?2eech?2ap@
  00a37	a1 00 00 00 00	 mov	 eax, DWORD PTR ?overload_invalid_list_type_message@@3PBDB ; overload_invalid_list_type_message
  00a3c	50		 push	 eax
  00a3d	e8 00 00 00 00	 call	 ?process_assert@@YGXPBD0H@Z ; process_assert
  00a42	c7 85 60 ff ff
	ff 00 00 00 00	 mov	 DWORD PTR tv440[ebp], 0
$LN113@create_art:
  00a4c	6a 15		 push	 21			; 00000015H
  00a4e	8b 4d f0	 mov	 ecx, DWORD PTR _target$[ebp]
  00a51	51		 push	 ecx
  00a52	69 95 64 ff ff
	ff b4 00 00 00	 imul	 edx, DWORD PTR tv432[ebp], 180
  00a5c	8b 85 60 ff ff
	ff		 mov	 eax, DWORD PTR tv440[ebp]
  00a62	8b 8c 82 00 00
	00 00		 mov	 ecx, DWORD PTR ?fn_get_local_entity_child_succ@@3PAY0CN@P6GPAUENTITY@@PAU1@W4LIST_TYPES@@@ZA[edx+eax*4]
  00a69	ff d1		 call	 ecx
  00a6b	89 45 f0	 mov	 DWORD PTR _target$[ebp], eax

; 2869 : 			}

  00a6e	e9 85 fd ff ff	 jmp	 $LN10@create_art
$LN11@create_art:

; 2870 : 
; 2871 : 			//
; 2872 : 			// Store targets in list
; 2873 : 			//
; 2874 : 	
; 2875 : 			if (target_count > 0)

  00a73	83 7d c0 00	 cmp	 DWORD PTR _target_count$[ebp], 0
  00a77	0f 8e 33 0b 00
	00		 jle	 $LN29@create_art

; 2876 : 			{
; 2877 : 				target_list = (entity**)malloc_fast_mem (sizeof (entity *) * target_count);

  00a7d	8b 45 c0	 mov	 eax, DWORD PTR _target_count$[ebp]
  00a80	c1 e0 02	 shl	 eax, 2
  00a83	50		 push	 eax
  00a84	e8 00 00 00 00	 call	 ?malloc_fast_memory@@YGPAXI@Z ; malloc_fast_memory
  00a89	89 45 e8	 mov	 DWORD PTR _target_list$[ebp], eax

; 2878 : 	
; 2879 : 				target_count = 0;

  00a8c	c7 45 c0 00 00
	00 00		 mov	 DWORD PTR _target_count$[ebp], 0

; 2880 : 		
; 2881 : 				if (target_group_count > 0)

  00a93	83 7d bc 00	 cmp	 DWORD PTR _target_group_count$[ebp], 0
  00a97	0f 8e df 01 00
	00		 jle	 $LN13@create_art

; 2882 : 				{
; 2883 : 					target = get_local_entity_first_child (target_force, LIST_TYPE_GROUND_REGISTRY);

  00a9d	83 7d dc 00	 cmp	 DWORD PTR _target_force$[ebp], 0
  00aa1	74 0d		 je	 SHORT $LN114@create_art
  00aa3	8b 45 dc	 mov	 eax, DWORD PTR _target_force$[ebp]
  00aa6	8b 08		 mov	 ecx, DWORD PTR [eax]
  00aa8	89 8d 64 ff ff
	ff		 mov	 DWORD PTR tv457[ebp], ecx
  00aae	eb 27		 jmp	 SHORT $LN115@create_art
$LN114@create_art:
  00ab0	8b 15 00 00 00
	00		 mov	 edx, DWORD PTR ?__LINE__Var@?0??create_artillery_strike_tasks@@YGXXZ@4JA
  00ab6	81 c2 90 00 00
	00		 add	 edx, 144		; 00000090H
  00abc	52		 push	 edx
  00abd	68 00 00 00 00	 push	 OFFSET ??_C@_0ED@GMECMFKH@c?3?2users?2nhv90?2projects?2eech?2ap@
  00ac2	a1 00 00 00 00	 mov	 eax, DWORD PTR ?null_entity_pointer_message@@3PBDB ; null_entity_pointer_message
  00ac7	50		 push	 eax
  00ac8	e8 00 00 00 00	 call	 ?process_assert@@YGXPBD0H@Z ; process_assert
  00acd	c7 85 64 ff ff
	ff 00 00 00 00	 mov	 DWORD PTR tv457[ebp], 0
$LN115@create_art:
  00ad7	b9 01 00 00 00	 mov	 ecx, 1
  00adc	85 c9		 test	 ecx, ecx
  00ade	74 0c		 je	 SHORT $LN116@create_art
  00ae0	c7 85 60 ff ff
	ff 0f 00 00 00	 mov	 DWORD PTR tv465[ebp], 15 ; 0000000fH
  00aea	eb 27		 jmp	 SHORT $LN117@create_art
$LN116@create_art:
  00aec	8b 15 00 00 00
	00		 mov	 edx, DWORD PTR ?__LINE__Var@?0??create_artillery_strike_tasks@@YGXXZ@4JA
  00af2	81 c2 90 00 00
	00		 add	 edx, 144		; 00000090H
  00af8	52		 push	 edx
  00af9	68 00 00 00 00	 push	 OFFSET ??_C@_0ED@GMECMFKH@c?3?2users?2nhv90?2projects?2eech?2ap@
  00afe	a1 00 00 00 00	 mov	 eax, DWORD PTR ?overload_invalid_list_type_message@@3PBDB ; overload_invalid_list_type_message
  00b03	50		 push	 eax
  00b04	e8 00 00 00 00	 call	 ?process_assert@@YGXPBD0H@Z ; process_assert
  00b09	c7 85 60 ff ff
	ff 00 00 00 00	 mov	 DWORD PTR tv465[ebp], 0
$LN117@create_art:
  00b13	6a 0f		 push	 15			; 0000000fH
  00b15	8b 4d dc	 mov	 ecx, DWORD PTR _target_force$[ebp]
  00b18	51		 push	 ecx
  00b19	69 95 64 ff ff
	ff b4 00 00 00	 imul	 edx, DWORD PTR tv457[ebp], 180
  00b23	8b 85 60 ff ff
	ff		 mov	 eax, DWORD PTR tv465[ebp]
  00b29	8b 8c 82 00 00
	00 00		 mov	 ecx, DWORD PTR ?fn_get_local_entity_first_child@@3PAY0CN@P6GPAUENTITY@@PAU1@W4LIST_TYPES@@@ZA[edx+eax*4]
  00b30	ff d1		 call	 ecx
  00b32	89 45 f0	 mov	 DWORD PTR _target$[ebp], eax
$LN12@create_art:

; 2884 : 		
; 2885 : 					while (target)

  00b35	83 7d f0 00	 cmp	 DWORD PTR _target$[ebp], 0
  00b39	0f 84 3d 01 00
	00		 je	 $LN13@create_art

; 2886 : 					{
; 2887 : 						if (get_local_entity_int_value (target, INT_TYPE_FRONTLINE) != GROUP_FRONTLINE_FLAG_NONE)

  00b3f	83 7d f0 00	 cmp	 DWORD PTR _target$[ebp], 0
  00b43	74 0d		 je	 SHORT $LN118@create_art
  00b45	8b 45 f0	 mov	 eax, DWORD PTR _target$[ebp]
  00b48	8b 08		 mov	 ecx, DWORD PTR [eax]
  00b4a	89 8d 64 ff ff
	ff		 mov	 DWORD PTR tv477[ebp], ecx
  00b50	eb 20		 jmp	 SHORT $LN119@create_art
$LN118@create_art:
  00b52	68 47 0b 00 00	 push	 2887			; 00000b47H
  00b57	68 00 00 00 00	 push	 OFFSET ??_C@_0ED@GMECMFKH@c?3?2users?2nhv90?2projects?2eech?2ap@
  00b5c	8b 15 00 00 00
	00		 mov	 edx, DWORD PTR ?null_entity_pointer_message@@3PBDB ; null_entity_pointer_message
  00b62	52		 push	 edx
  00b63	e8 00 00 00 00	 call	 ?process_assert@@YGXPBD0H@Z ; process_assert
  00b68	c7 85 64 ff ff
	ff 00 00 00 00	 mov	 DWORD PTR tv477[ebp], 0
$LN119@create_art:
  00b72	b8 01 00 00 00	 mov	 eax, 1
  00b77	85 c0		 test	 eax, eax
  00b79	74 0c		 je	 SHORT $LN120@create_art
  00b7b	c7 85 60 ff ff
	ff 41 00 00 00	 mov	 DWORD PTR tv484[ebp], 65 ; 00000041H
  00b85	eb 20		 jmp	 SHORT $LN121@create_art
$LN120@create_art:
  00b87	68 47 0b 00 00	 push	 2887			; 00000b47H
  00b8c	68 00 00 00 00	 push	 OFFSET ??_C@_0ED@GMECMFKH@c?3?2users?2nhv90?2projects?2eech?2ap@
  00b91	8b 0d 00 00 00
	00		 mov	 ecx, DWORD PTR ?overload_invalid_int_type_message@@3PBDB ; overload_invalid_int_type_message
  00b97	51		 push	 ecx
  00b98	e8 00 00 00 00	 call	 ?process_assert@@YGXPBD0H@Z ; process_assert
  00b9d	c7 85 60 ff ff
	ff 00 00 00 00	 mov	 DWORD PTR tv484[ebp], 0
$LN121@create_art:
  00ba7	6a 41		 push	 65			; 00000041H
  00ba9	8b 55 f0	 mov	 edx, DWORD PTR _target$[ebp]
  00bac	52		 push	 edx
  00bad	69 85 64 ff ff
	ff 5c 04 00 00	 imul	 eax, DWORD PTR tv477[ebp], 1116
  00bb7	8b 8d 60 ff ff
	ff		 mov	 ecx, DWORD PTR tv484[ebp]
  00bbd	8b 94 88 00 00
	00 00		 mov	 edx, DWORD PTR ?fn_get_local_entity_int_value@@3PAY0BBH@P6GHPAUENTITY@@W4INT_TYPES@@@ZA[eax+ecx*4]
  00bc4	ff d2		 call	 edx
  00bc6	85 c0		 test	 eax, eax
  00bc8	74 15		 je	 SHORT $LN31@create_art

; 2888 : 						{
; 2889 : 							target_list [target_count] = target;

  00bca	8b 45 c0	 mov	 eax, DWORD PTR _target_count$[ebp]
  00bcd	8b 4d e8	 mov	 ecx, DWORD PTR _target_list$[ebp]
  00bd0	8b 55 f0	 mov	 edx, DWORD PTR _target$[ebp]
  00bd3	89 14 81	 mov	 DWORD PTR [ecx+eax*4], edx

; 2890 : 	
; 2891 : 							target_count ++;

  00bd6	8b 45 c0	 mov	 eax, DWORD PTR _target_count$[ebp]
  00bd9	83 c0 01	 add	 eax, 1
  00bdc	89 45 c0	 mov	 DWORD PTR _target_count$[ebp], eax
$LN31@create_art:

; 2892 : 						}
; 2893 : 		
; 2894 : 						target = get_local_entity_child_succ (target, LIST_TYPE_GROUND_REGISTRY);

  00bdf	83 7d f0 00	 cmp	 DWORD PTR _target$[ebp], 0
  00be3	74 0d		 je	 SHORT $LN122@create_art
  00be5	8b 45 f0	 mov	 eax, DWORD PTR _target$[ebp]
  00be8	8b 08		 mov	 ecx, DWORD PTR [eax]
  00bea	89 8d 64 ff ff
	ff		 mov	 DWORD PTR tv500[ebp], ecx
  00bf0	eb 27		 jmp	 SHORT $LN123@create_art
$LN122@create_art:
  00bf2	8b 15 00 00 00
	00		 mov	 edx, DWORD PTR ?__LINE__Var@?0??create_artillery_strike_tasks@@YGXXZ@4JA
  00bf8	81 c2 9b 00 00
	00		 add	 edx, 155		; 0000009bH
  00bfe	52		 push	 edx
  00bff	68 00 00 00 00	 push	 OFFSET ??_C@_0ED@GMECMFKH@c?3?2users?2nhv90?2projects?2eech?2ap@
  00c04	a1 00 00 00 00	 mov	 eax, DWORD PTR ?null_entity_pointer_message@@3PBDB ; null_entity_pointer_message
  00c09	50		 push	 eax
  00c0a	e8 00 00 00 00	 call	 ?process_assert@@YGXPBD0H@Z ; process_assert
  00c0f	c7 85 64 ff ff
	ff 00 00 00 00	 mov	 DWORD PTR tv500[ebp], 0
$LN123@create_art:
  00c19	b9 01 00 00 00	 mov	 ecx, 1
  00c1e	85 c9		 test	 ecx, ecx
  00c20	74 0c		 je	 SHORT $LN124@create_art
  00c22	c7 85 60 ff ff
	ff 0f 00 00 00	 mov	 DWORD PTR tv508[ebp], 15 ; 0000000fH
  00c2c	eb 27		 jmp	 SHORT $LN125@create_art
$LN124@create_art:
  00c2e	8b 15 00 00 00
	00		 mov	 edx, DWORD PTR ?__LINE__Var@?0??create_artillery_strike_tasks@@YGXXZ@4JA
  00c34	81 c2 9b 00 00
	00		 add	 edx, 155		; 0000009bH
  00c3a	52		 push	 edx
  00c3b	68 00 00 00 00	 push	 OFFSET ??_C@_0ED@GMECMFKH@c?3?2users?2nhv90?2projects?2eech?2ap@
  00c40	a1 00 00 00 00	 mov	 eax, DWORD PTR ?overload_invalid_list_type_message@@3PBDB ; overload_invalid_list_type_message
  00c45	50		 push	 eax
  00c46	e8 00 00 00 00	 call	 ?process_assert@@YGXPBD0H@Z ; process_assert
  00c4b	c7 85 60 ff ff
	ff 00 00 00 00	 mov	 DWORD PTR tv508[ebp], 0
$LN125@create_art:
  00c55	6a 0f		 push	 15			; 0000000fH
  00c57	8b 4d f0	 mov	 ecx, DWORD PTR _target$[ebp]
  00c5a	51		 push	 ecx
  00c5b	69 95 64 ff ff
	ff b4 00 00 00	 imul	 edx, DWORD PTR tv500[ebp], 180
  00c65	8b 85 60 ff ff
	ff		 mov	 eax, DWORD PTR tv508[ebp]
  00c6b	8b 8c 82 00 00
	00 00		 mov	 ecx, DWORD PTR ?fn_get_local_entity_child_succ@@3PAY0CN@P6GPAUENTITY@@PAU1@W4LIST_TYPES@@@ZA[edx+eax*4]
  00c72	ff d1		 call	 ecx
  00c74	89 45 f0	 mov	 DWORD PTR _target$[ebp], eax

; 2895 : 					}

  00c77	e9 b9 fe ff ff	 jmp	 $LN12@create_art
$LN13@create_art:

; 2896 : 				}
; 2897 : 
; 2898 : 				if (target_keysite_count > 0)

  00c7c	83 7d b8 00	 cmp	 DWORD PTR _target_keysite_count$[ebp], 0
  00c80	0f 8e 80 04 00
	00		 jle	 $LN15@create_art

; 2899 : 				{
; 2900 : 					target = get_local_entity_first_child (target_force, LIST_TYPE_KEYSITE_FORCE);

  00c86	83 7d dc 00	 cmp	 DWORD PTR _target_force$[ebp], 0
  00c8a	74 0d		 je	 SHORT $LN126@create_art
  00c8c	8b 45 dc	 mov	 eax, DWORD PTR _target_force$[ebp]
  00c8f	8b 08		 mov	 ecx, DWORD PTR [eax]
  00c91	89 8d 64 ff ff
	ff		 mov	 DWORD PTR tv521[ebp], ecx
  00c97	eb 27		 jmp	 SHORT $LN127@create_art
$LN126@create_art:
  00c99	8b 15 00 00 00
	00		 mov	 edx, DWORD PTR ?__LINE__Var@?0??create_artillery_strike_tasks@@YGXXZ@4JA
  00c9f	81 c2 a1 00 00
	00		 add	 edx, 161		; 000000a1H
  00ca5	52		 push	 edx
  00ca6	68 00 00 00 00	 push	 OFFSET ??_C@_0ED@GMECMFKH@c?3?2users?2nhv90?2projects?2eech?2ap@
  00cab	a1 00 00 00 00	 mov	 eax, DWORD PTR ?null_entity_pointer_message@@3PBDB ; null_entity_pointer_message
  00cb0	50		 push	 eax
  00cb1	e8 00 00 00 00	 call	 ?process_assert@@YGXPBD0H@Z ; process_assert
  00cb6	c7 85 64 ff ff
	ff 00 00 00 00	 mov	 DWORD PTR tv521[ebp], 0
$LN127@create_art:
  00cc0	b9 01 00 00 00	 mov	 ecx, 1
  00cc5	85 c9		 test	 ecx, ecx
  00cc7	74 0c		 je	 SHORT $LN128@create_art
  00cc9	c7 85 60 ff ff
	ff 15 00 00 00	 mov	 DWORD PTR tv529[ebp], 21 ; 00000015H
  00cd3	eb 27		 jmp	 SHORT $LN129@create_art
$LN128@create_art:
  00cd5	8b 15 00 00 00
	00		 mov	 edx, DWORD PTR ?__LINE__Var@?0??create_artillery_strike_tasks@@YGXXZ@4JA
  00cdb	81 c2 a1 00 00
	00		 add	 edx, 161		; 000000a1H
  00ce1	52		 push	 edx
  00ce2	68 00 00 00 00	 push	 OFFSET ??_C@_0ED@GMECMFKH@c?3?2users?2nhv90?2projects?2eech?2ap@
  00ce7	a1 00 00 00 00	 mov	 eax, DWORD PTR ?overload_invalid_list_type_message@@3PBDB ; overload_invalid_list_type_message
  00cec	50		 push	 eax
  00ced	e8 00 00 00 00	 call	 ?process_assert@@YGXPBD0H@Z ; process_assert
  00cf2	c7 85 60 ff ff
	ff 00 00 00 00	 mov	 DWORD PTR tv529[ebp], 0
$LN129@create_art:
  00cfc	6a 15		 push	 21			; 00000015H
  00cfe	8b 4d dc	 mov	 ecx, DWORD PTR _target_force$[ebp]
  00d01	51		 push	 ecx
  00d02	69 95 64 ff ff
	ff b4 00 00 00	 imul	 edx, DWORD PTR tv521[ebp], 180
  00d0c	8b 85 60 ff ff
	ff		 mov	 eax, DWORD PTR tv529[ebp]
  00d12	8b 8c 82 00 00
	00 00		 mov	 ecx, DWORD PTR ?fn_get_local_entity_first_child@@3PAY0CN@P6GPAUENTITY@@PAU1@W4LIST_TYPES@@@ZA[edx+eax*4]
  00d19	ff d1		 call	 ecx
  00d1b	89 45 f0	 mov	 DWORD PTR _target$[ebp], eax
$LN14@create_art:

; 2901 : 			
; 2902 : 					while (target)

  00d1e	83 7d f0 00	 cmp	 DWORD PTR _target$[ebp], 0
  00d22	0f 84 de 03 00
	00		 je	 $LN15@create_art

; 2903 : 					{
; 2904 : 						target_sub_type = get_local_entity_int_value (target, INT_TYPE_ENTITY_SUB_TYPE);

  00d28	83 7d f0 00	 cmp	 DWORD PTR _target$[ebp], 0
  00d2c	74 0d		 je	 SHORT $LN130@create_art
  00d2e	8b 45 f0	 mov	 eax, DWORD PTR _target$[ebp]
  00d31	8b 08		 mov	 ecx, DWORD PTR [eax]
  00d33	89 8d 64 ff ff
	ff		 mov	 DWORD PTR tv542[ebp], ecx
  00d39	eb 27		 jmp	 SHORT $LN131@create_art
$LN130@create_art:
  00d3b	8b 15 00 00 00
	00		 mov	 edx, DWORD PTR ?__LINE__Var@?0??create_artillery_strike_tasks@@YGXXZ@4JA
  00d41	81 c2 a5 00 00
	00		 add	 edx, 165		; 000000a5H
  00d47	52		 push	 edx
  00d48	68 00 00 00 00	 push	 OFFSET ??_C@_0ED@GMECMFKH@c?3?2users?2nhv90?2projects?2eech?2ap@
  00d4d	a1 00 00 00 00	 mov	 eax, DWORD PTR ?null_entity_pointer_message@@3PBDB ; null_entity_pointer_message
  00d52	50		 push	 eax
  00d53	e8 00 00 00 00	 call	 ?process_assert@@YGXPBD0H@Z ; process_assert
  00d58	c7 85 64 ff ff
	ff 00 00 00 00	 mov	 DWORD PTR tv542[ebp], 0
$LN131@create_art:
  00d62	b9 01 00 00 00	 mov	 ecx, 1
  00d67	85 c9		 test	 ecx, ecx
  00d69	74 0c		 je	 SHORT $LN132@create_art
  00d6b	c7 85 60 ff ff
	ff 34 00 00 00	 mov	 DWORD PTR tv550[ebp], 52 ; 00000034H
  00d75	eb 27		 jmp	 SHORT $LN133@create_art
$LN132@create_art:
  00d77	8b 15 00 00 00
	00		 mov	 edx, DWORD PTR ?__LINE__Var@?0??create_artillery_strike_tasks@@YGXXZ@4JA
  00d7d	81 c2 a5 00 00
	00		 add	 edx, 165		; 000000a5H
  00d83	52		 push	 edx
  00d84	68 00 00 00 00	 push	 OFFSET ??_C@_0ED@GMECMFKH@c?3?2users?2nhv90?2projects?2eech?2ap@
  00d89	a1 00 00 00 00	 mov	 eax, DWORD PTR ?overload_invalid_int_type_message@@3PBDB ; overload_invalid_int_type_message
  00d8e	50		 push	 eax
  00d8f	e8 00 00 00 00	 call	 ?process_assert@@YGXPBD0H@Z ; process_assert
  00d94	c7 85 60 ff ff
	ff 00 00 00 00	 mov	 DWORD PTR tv550[ebp], 0
$LN133@create_art:
  00d9e	6a 34		 push	 52			; 00000034H
  00da0	8b 4d f0	 mov	 ecx, DWORD PTR _target$[ebp]
  00da3	51		 push	 ecx
  00da4	69 95 64 ff ff
	ff 5c 04 00 00	 imul	 edx, DWORD PTR tv542[ebp], 1116
  00dae	8b 85 60 ff ff
	ff		 mov	 eax, DWORD PTR tv550[ebp]
  00db4	8b 8c 82 00 00
	00 00		 mov	 ecx, DWORD PTR ?fn_get_local_entity_int_value@@3PAY0BBH@P6GHPAUENTITY@@W4INT_TYPES@@@ZA[edx+eax*4]
  00dbb	ff d1		 call	 ecx
  00dbd	89 45 c4	 mov	 DWORD PTR _target_sub_type$[ebp], eax

; 2905 : 		
; 2906 : 						if (keysite_database [target_sub_type].ground_strike_target)

  00dc0	6b 45 c4 44	 imul	 eax, DWORD PTR _target_sub_type$[ebp], 68
  00dc4	8b 88 40 00 00
	00		 mov	 ecx, DWORD PTR ?keysite_database@@3PAUKEYSITE_DATA@@A[eax+64]
  00dca	c1 e9 0a	 shr	 ecx, 10			; 0000000aH
  00dcd	83 e1 01	 and	 ecx, 1
  00dd0	0f 84 93 02 00
	00		 je	 $LN36@create_art

; 2907 : 						{
; 2908 : 							if ((get_local_entity_int_value (target, INT_TYPE_IN_USE)) && (get_local_entity_int_value (target, INT_TYPE_ALIVE)))

  00dd6	83 7d f0 00	 cmp	 DWORD PTR _target$[ebp], 0
  00dda	74 0d		 je	 SHORT $LN134@create_art
  00ddc	8b 45 f0	 mov	 eax, DWORD PTR _target$[ebp]
  00ddf	8b 08		 mov	 ecx, DWORD PTR [eax]
  00de1	89 8d 64 ff ff
	ff		 mov	 DWORD PTR tv567[ebp], ecx
  00de7	eb 20		 jmp	 SHORT $LN135@create_art
$LN134@create_art:
  00de9	68 5c 0b 00 00	 push	 2908			; 00000b5cH
  00dee	68 00 00 00 00	 push	 OFFSET ??_C@_0ED@GMECMFKH@c?3?2users?2nhv90?2projects?2eech?2ap@
  00df3	8b 15 00 00 00
	00		 mov	 edx, DWORD PTR ?null_entity_pointer_message@@3PBDB ; null_entity_pointer_message
  00df9	52		 push	 edx
  00dfa	e8 00 00 00 00	 call	 ?process_assert@@YGXPBD0H@Z ; process_assert
  00dff	c7 85 64 ff ff
	ff 00 00 00 00	 mov	 DWORD PTR tv567[ebp], 0
$LN135@create_art:
  00e09	b8 01 00 00 00	 mov	 eax, 1
  00e0e	85 c0		 test	 eax, eax
  00e10	74 0c		 je	 SHORT $LN136@create_art
  00e12	c7 85 60 ff ff
	ff 6d 00 00 00	 mov	 DWORD PTR tv574[ebp], 109 ; 0000006dH
  00e1c	eb 20		 jmp	 SHORT $LN137@create_art
$LN136@create_art:
  00e1e	68 5c 0b 00 00	 push	 2908			; 00000b5cH
  00e23	68 00 00 00 00	 push	 OFFSET ??_C@_0ED@GMECMFKH@c?3?2users?2nhv90?2projects?2eech?2ap@
  00e28	8b 0d 00 00 00
	00		 mov	 ecx, DWORD PTR ?overload_invalid_int_type_message@@3PBDB ; overload_invalid_int_type_message
  00e2e	51		 push	 ecx
  00e2f	e8 00 00 00 00	 call	 ?process_assert@@YGXPBD0H@Z ; process_assert
  00e34	c7 85 60 ff ff
	ff 00 00 00 00	 mov	 DWORD PTR tv574[ebp], 0
$LN137@create_art:
  00e3e	6a 6d		 push	 109			; 0000006dH
  00e40	8b 55 f0	 mov	 edx, DWORD PTR _target$[ebp]
  00e43	52		 push	 edx
  00e44	69 85 64 ff ff
	ff 5c 04 00 00	 imul	 eax, DWORD PTR tv567[ebp], 1116
  00e4e	8b 8d 60 ff ff
	ff		 mov	 ecx, DWORD PTR tv574[ebp]
  00e54	8b 94 88 00 00
	00 00		 mov	 edx, DWORD PTR ?fn_get_local_entity_int_value@@3PAY0BBH@P6GHPAUENTITY@@W4INT_TYPES@@@ZA[eax+ecx*4]
  00e5b	ff d2		 call	 edx
  00e5d	85 c0		 test	 eax, eax
  00e5f	0f 84 04 02 00
	00		 je	 $LN36@create_art
  00e65	83 7d f0 00	 cmp	 DWORD PTR _target$[ebp], 0
  00e69	74 0d		 je	 SHORT $LN138@create_art
  00e6b	8b 45 f0	 mov	 eax, DWORD PTR _target$[ebp]
  00e6e	8b 08		 mov	 ecx, DWORD PTR [eax]
  00e70	89 8d 64 ff ff
	ff		 mov	 DWORD PTR tv586[ebp], ecx
  00e76	eb 20		 jmp	 SHORT $LN139@create_art
$LN138@create_art:
  00e78	68 5c 0b 00 00	 push	 2908			; 00000b5cH
  00e7d	68 00 00 00 00	 push	 OFFSET ??_C@_0ED@GMECMFKH@c?3?2users?2nhv90?2projects?2eech?2ap@
  00e82	8b 15 00 00 00
	00		 mov	 edx, DWORD PTR ?null_entity_pointer_message@@3PBDB ; null_entity_pointer_message
  00e88	52		 push	 edx
  00e89	e8 00 00 00 00	 call	 ?process_assert@@YGXPBD0H@Z ; process_assert
  00e8e	c7 85 64 ff ff
	ff 00 00 00 00	 mov	 DWORD PTR tv586[ebp], 0
$LN139@create_art:
  00e98	b8 01 00 00 00	 mov	 eax, 1
  00e9d	85 c0		 test	 eax, eax
  00e9f	74 0c		 je	 SHORT $LN140@create_art
  00ea1	c7 85 60 ff ff
	ff 07 00 00 00	 mov	 DWORD PTR tv593[ebp], 7
  00eab	eb 20		 jmp	 SHORT $LN141@create_art
$LN140@create_art:
  00ead	68 5c 0b 00 00	 push	 2908			; 00000b5cH
  00eb2	68 00 00 00 00	 push	 OFFSET ??_C@_0ED@GMECMFKH@c?3?2users?2nhv90?2projects?2eech?2ap@
  00eb7	8b 0d 00 00 00
	00		 mov	 ecx, DWORD PTR ?overload_invalid_int_type_message@@3PBDB ; overload_invalid_int_type_message
  00ebd	51		 push	 ecx
  00ebe	e8 00 00 00 00	 call	 ?process_assert@@YGXPBD0H@Z ; process_assert
  00ec3	c7 85 60 ff ff
	ff 00 00 00 00	 mov	 DWORD PTR tv593[ebp], 0
$LN141@create_art:
  00ecd	6a 07		 push	 7
  00ecf	8b 55 f0	 mov	 edx, DWORD PTR _target$[ebp]
  00ed2	52		 push	 edx
  00ed3	69 85 64 ff ff
	ff 5c 04 00 00	 imul	 eax, DWORD PTR tv586[ebp], 1116
  00edd	8b 8d 60 ff ff
	ff		 mov	 ecx, DWORD PTR tv593[ebp]
  00ee3	8b 94 88 00 00
	00 00		 mov	 edx, DWORD PTR ?fn_get_local_entity_int_value@@3PAY0BBH@P6GHPAUENTITY@@W4INT_TYPES@@@ZA[eax+ecx*4]
  00eea	ff d2		 call	 edx
  00eec	85 c0		 test	 eax, eax
  00eee	0f 84 75 01 00
	00		 je	 $LN36@create_art

; 2909 : 							{
; 2910 : 								if (get_local_entity_float_value (target, FLOAT_TYPE_EFFICIENCY) >= get_local_entity_float_value (target, FLOAT_TYPE_MINIMUM_EFFICIENCY))

  00ef4	83 7d f0 00	 cmp	 DWORD PTR _target$[ebp], 0
  00ef8	74 0d		 je	 SHORT $LN142@create_art
  00efa	8b 45 f0	 mov	 eax, DWORD PTR _target$[ebp]
  00efd	8b 08		 mov	 ecx, DWORD PTR [eax]
  00eff	89 8d 64 ff ff
	ff		 mov	 DWORD PTR tv605[ebp], ecx
  00f05	eb 20		 jmp	 SHORT $LN143@create_art
$LN142@create_art:
  00f07	68 5e 0b 00 00	 push	 2910			; 00000b5eH
  00f0c	68 00 00 00 00	 push	 OFFSET ??_C@_0ED@GMECMFKH@c?3?2users?2nhv90?2projects?2eech?2ap@
  00f11	8b 15 00 00 00
	00		 mov	 edx, DWORD PTR ?null_entity_pointer_message@@3PBDB ; null_entity_pointer_message
  00f17	52		 push	 edx
  00f18	e8 00 00 00 00	 call	 ?process_assert@@YGXPBD0H@Z ; process_assert
  00f1d	c7 85 64 ff ff
	ff 00 00 00 00	 mov	 DWORD PTR tv605[ebp], 0
$LN143@create_art:
  00f27	b8 01 00 00 00	 mov	 eax, 1
  00f2c	85 c0		 test	 eax, eax
  00f2e	74 0c		 je	 SHORT $LN144@create_art
  00f30	c7 85 60 ff ff
	ff 21 00 00 00	 mov	 DWORD PTR tv612[ebp], 33 ; 00000021H
  00f3a	eb 20		 jmp	 SHORT $LN145@create_art
$LN144@create_art:
  00f3c	68 5e 0b 00 00	 push	 2910			; 00000b5eH
  00f41	68 00 00 00 00	 push	 OFFSET ??_C@_0ED@GMECMFKH@c?3?2users?2nhv90?2projects?2eech?2ap@
  00f46	8b 0d 00 00 00
	00		 mov	 ecx, DWORD PTR ?overload_invalid_float_type_message@@3PBDB ; overload_invalid_float_type_message
  00f4c	51		 push	 ecx
  00f4d	e8 00 00 00 00	 call	 ?process_assert@@YGXPBD0H@Z ; process_assert
  00f52	c7 85 60 ff ff
	ff 00 00 00 00	 mov	 DWORD PTR tv612[ebp], 0
$LN145@create_art:
  00f5c	83 7d f0 00	 cmp	 DWORD PTR _target$[ebp], 0
  00f60	74 0d		 je	 SHORT $LN146@create_art
  00f62	8b 55 f0	 mov	 edx, DWORD PTR _target$[ebp]
  00f65	8b 02		 mov	 eax, DWORD PTR [edx]
  00f67	89 85 5c ff ff
	ff		 mov	 DWORD PTR tv623[ebp], eax
  00f6d	eb 20		 jmp	 SHORT $LN147@create_art
$LN146@create_art:
  00f6f	68 5e 0b 00 00	 push	 2910			; 00000b5eH
  00f74	68 00 00 00 00	 push	 OFFSET ??_C@_0ED@GMECMFKH@c?3?2users?2nhv90?2projects?2eech?2ap@
  00f79	8b 0d 00 00 00
	00		 mov	 ecx, DWORD PTR ?null_entity_pointer_message@@3PBDB ; null_entity_pointer_message
  00f7f	51		 push	 ecx
  00f80	e8 00 00 00 00	 call	 ?process_assert@@YGXPBD0H@Z ; process_assert
  00f85	c7 85 5c ff ff
	ff 00 00 00 00	 mov	 DWORD PTR tv623[ebp], 0
$LN147@create_art:
  00f8f	ba 01 00 00 00	 mov	 edx, 1
  00f94	85 d2		 test	 edx, edx
  00f96	74 0c		 je	 SHORT $LN148@create_art
  00f98	c7 85 58 ff ff
	ff 51 00 00 00	 mov	 DWORD PTR tv630[ebp], 81 ; 00000051H
  00fa2	eb 1f		 jmp	 SHORT $LN149@create_art
$LN148@create_art:
  00fa4	68 5e 0b 00 00	 push	 2910			; 00000b5eH
  00fa9	68 00 00 00 00	 push	 OFFSET ??_C@_0ED@GMECMFKH@c?3?2users?2nhv90?2projects?2eech?2ap@
  00fae	a1 00 00 00 00	 mov	 eax, DWORD PTR ?overload_invalid_float_type_message@@3PBDB ; overload_invalid_float_type_message
  00fb3	50		 push	 eax
  00fb4	e8 00 00 00 00	 call	 ?process_assert@@YGXPBD0H@Z ; process_assert
  00fb9	c7 85 58 ff ff
	ff 00 00 00 00	 mov	 DWORD PTR tv630[ebp], 0
$LN149@create_art:
  00fc3	6a 21		 push	 33			; 00000021H
  00fc5	8b 4d f0	 mov	 ecx, DWORD PTR _target$[ebp]
  00fc8	51		 push	 ecx
  00fc9	69 95 64 ff ff
	ff bc 02 00 00	 imul	 edx, DWORD PTR tv605[ebp], 700
  00fd3	8b 85 60 ff ff
	ff		 mov	 eax, DWORD PTR tv612[ebp]
  00fd9	8b 8c 82 00 00
	00 00		 mov	 ecx, DWORD PTR ?fn_get_local_entity_float_value@@3PAY0KP@P6GMPAUENTITY@@W4FLOAT_TYPES@@@ZA[edx+eax*4]
  00fe0	ff d1		 call	 ecx
  00fe2	d9 9d 54 ff ff
	ff		 fstp	 DWORD PTR tv1123[ebp]
  00fe8	f3 0f 10 85 54
	ff ff ff	 movss	 xmm0, DWORD PTR tv1123[ebp]
  00ff0	6a 51		 push	 81			; 00000051H
  00ff2	8b 55 f0	 mov	 edx, DWORD PTR _target$[ebp]
  00ff5	52		 push	 edx
  00ff6	69 85 5c ff ff
	ff bc 02 00 00	 imul	 eax, DWORD PTR tv623[ebp], 700
  01000	8b 8d 58 ff ff
	ff		 mov	 ecx, DWORD PTR tv630[ebp]
  01006	8b 94 88 00 00
	00 00		 mov	 edx, DWORD PTR ?fn_get_local_entity_float_value@@3PAY0KP@P6GMPAUENTITY@@W4FLOAT_TYPES@@@ZA[eax+ecx*4]
  0100d	f3 0f 11 85 50
	ff ff ff	 movss	 DWORD PTR tv1266[ebp], xmm0
  01015	ff d2		 call	 edx
  01017	d9 9d 4c ff ff
	ff		 fstp	 DWORD PTR tv1130[ebp]
  0101d	f3 0f 10 85 50
	ff ff ff	 movss	 xmm0, DWORD PTR tv1266[ebp]
  01025	0f 2f 85 4c ff
	ff ff		 comiss	 xmm0, DWORD PTR tv1130[ebp]
  0102c	72 3b		 jb	 SHORT $LN36@create_art

; 2911 : 								{
; 2912 : 									if (
; 2913 : 											(!entity_is_object_of_task (target, ENTITY_SUB_TYPE_TASK_GROUND_STRIKE, side)) &&

  0102e	8b 45 fc	 mov	 eax, DWORD PTR _side$[ebp]
  01031	50		 push	 eax
  01032	6a 0c		 push	 12			; 0000000cH
  01034	8b 4d f0	 mov	 ecx, DWORD PTR _target$[ebp]
  01037	51		 push	 ecx
  01038	e8 00 00 00 00	 call	 ?entity_is_object_of_task@@YGHPAUENTITY@@HW4ENTITY_SIDES@@@Z ; entity_is_object_of_task
  0103d	85 c0		 test	 eax, eax
  0103f	75 28		 jne	 SHORT $LN36@create_art
  01041	8b 45 fc	 mov	 eax, DWORD PTR _side$[ebp]
  01044	50		 push	 eax
  01045	6a 1a		 push	 26			; 0000001aH
  01047	8b 4d f0	 mov	 ecx, DWORD PTR _target$[ebp]
  0104a	51		 push	 ecx
  0104b	e8 00 00 00 00	 call	 ?entity_is_object_of_task@@YGHPAUENTITY@@HW4ENTITY_SIDES@@@Z ; entity_is_object_of_task
  01050	85 c0		 test	 eax, eax
  01052	75 15		 jne	 SHORT $LN36@create_art

; 2914 : 											(!entity_is_object_of_task (target, ENTITY_SUB_TYPE_TASK_TROOP_INSERTION, side))
; 2915 : 										)
; 2916 : 									{
; 2917 : 										target_list [target_count] = target;

  01054	8b 45 c0	 mov	 eax, DWORD PTR _target_count$[ebp]
  01057	8b 4d e8	 mov	 ecx, DWORD PTR _target_list$[ebp]
  0105a	8b 55 f0	 mov	 edx, DWORD PTR _target$[ebp]
  0105d	89 14 81	 mov	 DWORD PTR [ecx+eax*4], edx

; 2918 : 	
; 2919 : 										target_count ++;

  01060	8b 45 c0	 mov	 eax, DWORD PTR _target_count$[ebp]
  01063	83 c0 01	 add	 eax, 1
  01066	89 45 c0	 mov	 DWORD PTR _target_count$[ebp], eax
$LN36@create_art:

; 2920 : 									}
; 2921 : 								}
; 2922 : 							}
; 2923 : 						}
; 2924 : 		
; 2925 : 						target = get_local_entity_child_succ (target, LIST_TYPE_KEYSITE_FORCE);

  01069	83 7d f0 00	 cmp	 DWORD PTR _target$[ebp], 0
  0106d	74 0d		 je	 SHORT $LN150@create_art
  0106f	8b 45 f0	 mov	 eax, DWORD PTR _target$[ebp]
  01072	8b 08		 mov	 ecx, DWORD PTR [eax]
  01074	89 8d 64 ff ff
	ff		 mov	 DWORD PTR tv656[ebp], ecx
  0107a	eb 27		 jmp	 SHORT $LN151@create_art
$LN150@create_art:
  0107c	8b 15 00 00 00
	00		 mov	 edx, DWORD PTR ?__LINE__Var@?0??create_artillery_strike_tasks@@YGXXZ@4JA
  01082	81 c2 ba 00 00
	00		 add	 edx, 186		; 000000baH
  01088	52		 push	 edx
  01089	68 00 00 00 00	 push	 OFFSET ??_C@_0ED@GMECMFKH@c?3?2users?2nhv90?2projects?2eech?2ap@
  0108e	a1 00 00 00 00	 mov	 eax, DWORD PTR ?null_entity_pointer_message@@3PBDB ; null_entity_pointer_message
  01093	50		 push	 eax
  01094	e8 00 00 00 00	 call	 ?process_assert@@YGXPBD0H@Z ; process_assert
  01099	c7 85 64 ff ff
	ff 00 00 00 00	 mov	 DWORD PTR tv656[ebp], 0
$LN151@create_art:
  010a3	b9 01 00 00 00	 mov	 ecx, 1
  010a8	85 c9		 test	 ecx, ecx
  010aa	74 0c		 je	 SHORT $LN152@create_art
  010ac	c7 85 60 ff ff
	ff 15 00 00 00	 mov	 DWORD PTR tv664[ebp], 21 ; 00000015H
  010b6	eb 27		 jmp	 SHORT $LN153@create_art
$LN152@create_art:
  010b8	8b 15 00 00 00
	00		 mov	 edx, DWORD PTR ?__LINE__Var@?0??create_artillery_strike_tasks@@YGXXZ@4JA
  010be	81 c2 ba 00 00
	00		 add	 edx, 186		; 000000baH
  010c4	52		 push	 edx
  010c5	68 00 00 00 00	 push	 OFFSET ??_C@_0ED@GMECMFKH@c?3?2users?2nhv90?2projects?2eech?2ap@
  010ca	a1 00 00 00 00	 mov	 eax, DWORD PTR ?overload_invalid_list_type_message@@3PBDB ; overload_invalid_list_type_message
  010cf	50		 push	 eax
  010d0	e8 00 00 00 00	 call	 ?process_assert@@YGXPBD0H@Z ; process_assert
  010d5	c7 85 60 ff ff
	ff 00 00 00 00	 mov	 DWORD PTR tv664[ebp], 0
$LN153@create_art:
  010df	6a 15		 push	 21			; 00000015H
  010e1	8b 4d f0	 mov	 ecx, DWORD PTR _target$[ebp]
  010e4	51		 push	 ecx
  010e5	69 95 64 ff ff
	ff b4 00 00 00	 imul	 edx, DWORD PTR tv656[ebp], 180
  010ef	8b 85 60 ff ff
	ff		 mov	 eax, DWORD PTR tv664[ebp]
  010f5	8b 8c 82 00 00
	00 00		 mov	 ecx, DWORD PTR ?fn_get_local_entity_child_succ@@3PAY0CN@P6GPAUENTITY@@PAU1@W4LIST_TYPES@@@ZA[edx+eax*4]
  010fc	ff d1		 call	 ecx
  010fe	89 45 f0	 mov	 DWORD PTR _target$[ebp], eax

; 2926 : 					}

  01101	e9 18 fc ff ff	 jmp	 $LN14@create_art
$LN15@create_art:

; 2927 : 				}
; 2928 : 
; 2929 : 				//
; 2930 : 				// Assign targets to groups
; 2931 : 				// 
; 2932 : 
; 2933 : 				assigned_count = 0;

  01106	c7 45 cc 00 00
	00 00		 mov	 DWORD PTR _assigned_count$[ebp], 0

; 2934 : 				
; 2935 : 				for (group_index = 0; group_index < group_count; group_index ++)

  0110d	c7 45 b4 00 00
	00 00		 mov	 DWORD PTR _group_index$[ebp], 0
  01114	eb 09		 jmp	 SHORT $LN18@create_art
$LN16@create_art:
  01116	8b 45 b4	 mov	 eax, DWORD PTR _group_index$[ebp]
  01119	83 c0 01	 add	 eax, 1
  0111c	89 45 b4	 mov	 DWORD PTR _group_index$[ebp], eax
$LN18@create_art:
  0111f	8b 45 b4	 mov	 eax, DWORD PTR _group_index$[ebp]
  01122	3b 45 c8	 cmp	 eax, DWORD PTR _group_count$[ebp]
  01125	0f 8d 7c 04 00
	00		 jge	 $LN17@create_art

; 2936 : 				{
; 2937 : 					group = group_list [group_index];

  0112b	8b 45 b4	 mov	 eax, DWORD PTR _group_index$[ebp]
  0112e	8b 4d ec	 mov	 ecx, DWORD PTR _group_list$[ebp]
  01131	8b 14 81	 mov	 edx, DWORD PTR [ecx+eax*4]
  01134	89 55 f4	 mov	 DWORD PTR _group$[ebp], edx

; 2938 : 					
; 2939 : 					max_range = get_local_group_max_weapon_range (group);

  01137	8b 45 f4	 mov	 eax, DWORD PTR _group$[ebp]
  0113a	50		 push	 eax
  0113b	e8 00 00 00 00	 call	 ?get_local_group_max_weapon_range@@YGMPAUENTITY@@@Z ; get_local_group_max_weapon_range
  01140	d9 5d a8	 fstp	 DWORD PTR _max_range$[ebp]

; 2940 : 	
; 2941 : 					if (max_range > 0.0)

  01143	f3 0f 5a 45 a8	 cvtss2sd xmm0, DWORD PTR _max_range$[ebp]
  01148	66 0f 2f 05 00
	00 00 00	 comisd	 xmm0, QWORD PTR __real@0000000000000000
  01150	0f 86 3c 04 00
	00		 jbe	 $LN20@create_art

; 2942 : 					{
; 2943 : 						max_range *= max_range;

  01156	f3 0f 10 45 a8	 movss	 xmm0, DWORD PTR _max_range$[ebp]
  0115b	f3 0f 59 45 a8	 mulss	 xmm0, DWORD PTR _max_range$[ebp]
  01160	f3 0f 11 45 a8	 movss	 DWORD PTR _max_range$[ebp], xmm0

; 2944 : 
; 2945 : 						pos = get_local_entity_vec3d_ptr (group, VEC3D_TYPE_POSITION);

  01165	83 7d f4 00	 cmp	 DWORD PTR _group$[ebp], 0
  01169	74 0d		 je	 SHORT $LN154@create_art
  0116b	8b 45 f4	 mov	 eax, DWORD PTR _group$[ebp]
  0116e	8b 08		 mov	 ecx, DWORD PTR [eax]
  01170	89 8d 64 ff ff
	ff		 mov	 DWORD PTR tv685[ebp], ecx
  01176	eb 27		 jmp	 SHORT $LN155@create_art
$LN154@create_art:
  01178	8b 15 00 00 00
	00		 mov	 edx, DWORD PTR ?__LINE__Var@?0??create_artillery_strike_tasks@@YGXXZ@4JA
  0117e	81 c2 ce 00 00
	00		 add	 edx, 206		; 000000ceH
  01184	52		 push	 edx
  01185	68 00 00 00 00	 push	 OFFSET ??_C@_0ED@GMECMFKH@c?3?2users?2nhv90?2projects?2eech?2ap@
  0118a	a1 00 00 00 00	 mov	 eax, DWORD PTR ?null_entity_pointer_message@@3PBDB ; null_entity_pointer_message
  0118f	50		 push	 eax
  01190	e8 00 00 00 00	 call	 ?process_assert@@YGXPBD0H@Z ; process_assert
  01195	c7 85 64 ff ff
	ff 00 00 00 00	 mov	 DWORD PTR tv685[ebp], 0
$LN155@create_art:
  0119f	b9 01 00 00 00	 mov	 ecx, 1
  011a4	85 c9		 test	 ecx, ecx
  011a6	74 0c		 je	 SHORT $LN156@create_art
  011a8	c7 85 60 ff ff
	ff 08 00 00 00	 mov	 DWORD PTR tv693[ebp], 8
  011b2	eb 27		 jmp	 SHORT $LN157@create_art
$LN156@create_art:
  011b4	8b 15 00 00 00
	00		 mov	 edx, DWORD PTR ?__LINE__Var@?0??create_artillery_strike_tasks@@YGXXZ@4JA
  011ba	81 c2 ce 00 00
	00		 add	 edx, 206		; 000000ceH
  011c0	52		 push	 edx
  011c1	68 00 00 00 00	 push	 OFFSET ??_C@_0ED@GMECMFKH@c?3?2users?2nhv90?2projects?2eech?2ap@
  011c6	a1 00 00 00 00	 mov	 eax, DWORD PTR ?overload_invalid_vec3d_type_message@@3PBDB ; overload_invalid_vec3d_type_message
  011cb	50		 push	 eax
  011cc	e8 00 00 00 00	 call	 ?process_assert@@YGXPBD0H@Z ; process_assert
  011d1	c7 85 60 ff ff
	ff 00 00 00 00	 mov	 DWORD PTR tv693[ebp], 0
$LN157@create_art:
  011db	6a 08		 push	 8
  011dd	8b 4d f4	 mov	 ecx, DWORD PTR _group$[ebp]
  011e0	51		 push	 ecx
  011e1	6b 95 64 ff ff
	ff 60		 imul	 edx, DWORD PTR tv685[ebp], 96
  011e8	8b 85 60 ff ff
	ff		 mov	 eax, DWORD PTR tv693[ebp]
  011ee	8b 8c 82 00 00
	00 00		 mov	 ecx, DWORD PTR ?fn_get_local_entity_vec3d_ptr@@3PAY0BI@P6GPAUVEC3D@@PAUENTITY@@W4VEC3D_TYPES@@@ZA[edx+eax*4]
  011f5	ff d1		 call	 ecx
  011f7	89 45 d8	 mov	 DWORD PTR _pos$[ebp], eax

; 2946 : 
; 2947 : 						for (target_index = 0; target_index < target_count; target_index ++)

  011fa	c7 45 b0 00 00
	00 00		 mov	 DWORD PTR _target_index$[ebp], 0
  01201	eb 09		 jmp	 SHORT $LN21@create_art
$LN19@create_art:
  01203	8b 45 b0	 mov	 eax, DWORD PTR _target_index$[ebp]
  01206	83 c0 01	 add	 eax, 1
  01209	89 45 b0	 mov	 DWORD PTR _target_index$[ebp], eax
$LN21@create_art:
  0120c	8b 45 b0	 mov	 eax, DWORD PTR _target_index$[ebp]
  0120f	3b 45 c0	 cmp	 eax, DWORD PTR _target_count$[ebp]
  01212	0f 8d 7a 03 00
	00		 jge	 $LN20@create_art

; 2948 : 						{
; 2949 : 							target = target_list [target_index];

  01218	8b 45 b0	 mov	 eax, DWORD PTR _target_index$[ebp]
  0121b	8b 4d e8	 mov	 ecx, DWORD PTR _target_list$[ebp]
  0121e	8b 14 81	 mov	 edx, DWORD PTR [ecx+eax*4]
  01221	89 55 f0	 mov	 DWORD PTR _target$[ebp], edx

; 2950 : 
; 2951 : 							if (target)

  01224	83 7d f0 00	 cmp	 DWORD PTR _target$[ebp], 0
  01228	0f 84 5f 03 00
	00		 je	 $LN44@create_art

; 2952 : 							{
; 2953 : 								target_pos = get_local_entity_vec3d_ptr (target, VEC3D_TYPE_POSITION);

  0122e	83 7d f0 00	 cmp	 DWORD PTR _target$[ebp], 0
  01232	74 0d		 je	 SHORT $LN158@create_art
  01234	8b 45 f0	 mov	 eax, DWORD PTR _target$[ebp]
  01237	8b 08		 mov	 ecx, DWORD PTR [eax]
  01239	89 8d 64 ff ff
	ff		 mov	 DWORD PTR tv710[ebp], ecx
  0123f	eb 27		 jmp	 SHORT $LN159@create_art
$LN158@create_art:
  01241	8b 15 00 00 00
	00		 mov	 edx, DWORD PTR ?__LINE__Var@?0??create_artillery_strike_tasks@@YGXXZ@4JA
  01247	81 c2 d6 00 00
	00		 add	 edx, 214		; 000000d6H
  0124d	52		 push	 edx
  0124e	68 00 00 00 00	 push	 OFFSET ??_C@_0ED@GMECMFKH@c?3?2users?2nhv90?2projects?2eech?2ap@
  01253	a1 00 00 00 00	 mov	 eax, DWORD PTR ?null_entity_pointer_message@@3PBDB ; null_entity_pointer_message
  01258	50		 push	 eax
  01259	e8 00 00 00 00	 call	 ?process_assert@@YGXPBD0H@Z ; process_assert
  0125e	c7 85 64 ff ff
	ff 00 00 00 00	 mov	 DWORD PTR tv710[ebp], 0
$LN159@create_art:
  01268	b9 01 00 00 00	 mov	 ecx, 1
  0126d	85 c9		 test	 ecx, ecx
  0126f	74 0c		 je	 SHORT $LN160@create_art
  01271	c7 85 60 ff ff
	ff 08 00 00 00	 mov	 DWORD PTR tv718[ebp], 8
  0127b	eb 27		 jmp	 SHORT $LN161@create_art
$LN160@create_art:
  0127d	8b 15 00 00 00
	00		 mov	 edx, DWORD PTR ?__LINE__Var@?0??create_artillery_strike_tasks@@YGXXZ@4JA
  01283	81 c2 d6 00 00
	00		 add	 edx, 214		; 000000d6H
  01289	52		 push	 edx
  0128a	68 00 00 00 00	 push	 OFFSET ??_C@_0ED@GMECMFKH@c?3?2users?2nhv90?2projects?2eech?2ap@
  0128f	a1 00 00 00 00	 mov	 eax, DWORD PTR ?overload_invalid_vec3d_type_message@@3PBDB ; overload_invalid_vec3d_type_message
  01294	50		 push	 eax
  01295	e8 00 00 00 00	 call	 ?process_assert@@YGXPBD0H@Z ; process_assert
  0129a	c7 85 60 ff ff
	ff 00 00 00 00	 mov	 DWORD PTR tv718[ebp], 0
$LN161@create_art:
  012a4	6a 08		 push	 8
  012a6	8b 4d f0	 mov	 ecx, DWORD PTR _target$[ebp]
  012a9	51		 push	 ecx
  012aa	6b 95 64 ff ff
	ff 60		 imul	 edx, DWORD PTR tv710[ebp], 96
  012b1	8b 85 60 ff ff
	ff		 mov	 eax, DWORD PTR tv718[ebp]
  012b7	8b 8c 82 00 00
	00 00		 mov	 ecx, DWORD PTR ?fn_get_local_entity_vec3d_ptr@@3PAY0BI@P6GPAUVEC3D@@PAUENTITY@@W4VEC3D_TYPES@@@ZA[edx+eax*4]
  012be	ff d1		 call	 ecx
  012c0	89 45 d4	 mov	 DWORD PTR _target_pos$[ebp], eax

; 2954 : 			
; 2955 : 								range = get_sqr_2d_range (pos, target_pos);

  012c3	8b 45 d4	 mov	 eax, DWORD PTR _target_pos$[ebp]
  012c6	50		 push	 eax
  012c7	8b 4d d8	 mov	 ecx, DWORD PTR _pos$[ebp]
  012ca	51		 push	 ecx
  012cb	e8 00 00 00 00	 call	 ?get_sqr_2d_range@@YGMPBUVEC3D@@0@Z ; get_sqr_2d_range
  012d0	d9 5d ac	 fstp	 DWORD PTR _range$[ebp]

; 2956 : 
; 2957 : 								if (range < max_range)

  012d3	f3 0f 10 45 a8	 movss	 xmm0, DWORD PTR _max_range$[ebp]
  012d8	0f 2f 45 ac	 comiss	 xmm0, DWORD PTR _range$[ebp]
  012dc	0f 86 ab 02 00
	00		 jbe	 $LN44@create_art

; 2958 : 								{
; 2959 : 									sector = get_local_sector_entity (target_pos);

  012e2	8b 45 d4	 mov	 eax, DWORD PTR _target_pos$[ebp]
  012e5	50		 push	 eax
  012e6	e8 00 00 00 00	 call	 ?get_local_sector_entity@@YGPAUENTITY@@PAUVEC3D@@@Z ; get_local_sector_entity
  012eb	89 45 e4	 mov	 DWORD PTR _sector$[ebp], eax

; 2960 : 
; 2961 : 									if (get_sector_fog_of_war_value (sector, side) > (0.25 * get_local_entity_float_value (get_session_entity (), FLOAT_TYPE_FOG_OF_WAR_MAXIMUM_VALUE)))

  012ee	83 3d 00 00 00
	00 00		 cmp	 DWORD PTR ?session_entity@@3PAUENTITY@@A, 0 ; session_entity
  012f5	74 0f		 je	 SHORT $LN162@create_art
  012f7	a1 00 00 00 00	 mov	 eax, DWORD PTR ?session_entity@@3PAUENTITY@@A ; session_entity
  012fc	8b 08		 mov	 ecx, DWORD PTR [eax]
  012fe	89 8d 64 ff ff
	ff		 mov	 DWORD PTR tv739[ebp], ecx
  01304	eb 20		 jmp	 SHORT $LN163@create_art
$LN162@create_art:
  01306	68 91 0b 00 00	 push	 2961			; 00000b91H
  0130b	68 00 00 00 00	 push	 OFFSET ??_C@_0ED@GMECMFKH@c?3?2users?2nhv90?2projects?2eech?2ap@
  01310	8b 15 00 00 00
	00		 mov	 edx, DWORD PTR ?null_entity_pointer_message@@3PBDB ; null_entity_pointer_message
  01316	52		 push	 edx
  01317	e8 00 00 00 00	 call	 ?process_assert@@YGXPBD0H@Z ; process_assert
  0131c	c7 85 64 ff ff
	ff 00 00 00 00	 mov	 DWORD PTR tv739[ebp], 0
$LN163@create_art:
  01326	b8 01 00 00 00	 mov	 eax, 1
  0132b	85 c0		 test	 eax, eax
  0132d	74 0c		 je	 SHORT $LN164@create_art
  0132f	c7 85 60 ff ff
	ff 2c 00 00 00	 mov	 DWORD PTR tv746[ebp], 44 ; 0000002cH
  01339	eb 20		 jmp	 SHORT $LN165@create_art
$LN164@create_art:
  0133b	68 91 0b 00 00	 push	 2961			; 00000b91H
  01340	68 00 00 00 00	 push	 OFFSET ??_C@_0ED@GMECMFKH@c?3?2users?2nhv90?2projects?2eech?2ap@
  01345	8b 0d 00 00 00
	00		 mov	 ecx, DWORD PTR ?overload_invalid_float_type_message@@3PBDB ; overload_invalid_float_type_message
  0134b	51		 push	 ecx
  0134c	e8 00 00 00 00	 call	 ?process_assert@@YGXPBD0H@Z ; process_assert
  01351	c7 85 60 ff ff
	ff 00 00 00 00	 mov	 DWORD PTR tv746[ebp], 0
$LN165@create_art:
  0135b	8b 55 fc	 mov	 edx, DWORD PTR _side$[ebp]
  0135e	52		 push	 edx
  0135f	8b 45 e4	 mov	 eax, DWORD PTR _sector$[ebp]
  01362	50		 push	 eax
  01363	e8 00 00 00 00	 call	 ?get_sector_fog_of_war_value@@YGMPAUENTITY@@W4ENTITY_SIDES@@@Z ; get_sector_fog_of_war_value
  01368	dd 9d 58 ff ff
	ff		 fstp	 QWORD PTR tv1206[ebp]
  0136e	f2 0f 10 85 58
	ff ff ff	 movsd	 xmm0, QWORD PTR tv1206[ebp]
  01376	6a 2c		 push	 44			; 0000002cH
  01378	8b 0d 00 00 00
	00		 mov	 ecx, DWORD PTR ?session_entity@@3PAUENTITY@@A ; session_entity
  0137e	51		 push	 ecx
  0137f	69 95 64 ff ff
	ff bc 02 00 00	 imul	 edx, DWORD PTR tv739[ebp], 700
  01389	8b 85 60 ff ff
	ff		 mov	 eax, DWORD PTR tv746[ebp]
  0138f	8b 8c 82 00 00
	00 00		 mov	 ecx, DWORD PTR ?fn_get_local_entity_float_value@@3PAY0KP@P6GMPAUENTITY@@W4FLOAT_TYPES@@@ZA[edx+eax*4]
  01396	f2 0f 11 85 50
	ff ff ff	 movsd	 QWORD PTR tv1268[ebp], xmm0
  0139e	ff d1		 call	 ecx
  013a0	dd 9d 48 ff ff
	ff		 fstp	 QWORD PTR tv1214[ebp]
  013a6	f2 0f 10 85 48
	ff ff ff	 movsd	 xmm0, QWORD PTR tv1214[ebp]
  013ae	f2 0f 59 05 00
	00 00 00	 mulsd	 xmm0, QWORD PTR __real@3fd0000000000000
  013b6	f2 0f 10 8d 50
	ff ff ff	 movsd	 xmm1, QWORD PTR tv1268[ebp]
  013be	66 0f 2f c8	 comisd	 xmm1, xmm0
  013c2	0f 86 c5 01 00
	00		 jbe	 $LN44@create_art

; 2962 : 									{
; 2963 : 										if (get_local_entity_type (target) == ENTITY_TYPE_GROUP)

  013c8	83 7d f0 00	 cmp	 DWORD PTR _target$[ebp], 0
  013cc	74 0d		 je	 SHORT $LN166@create_art
  013ce	8b 45 f0	 mov	 eax, DWORD PTR _target$[ebp]
  013d1	8b 08		 mov	 ecx, DWORD PTR [eax]
  013d3	89 8d 64 ff ff
	ff		 mov	 DWORD PTR tv760[ebp], ecx
  013d9	eb 20		 jmp	 SHORT $LN167@create_art
$LN166@create_art:
  013db	68 93 0b 00 00	 push	 2963			; 00000b93H
  013e0	68 00 00 00 00	 push	 OFFSET ??_C@_0ED@GMECMFKH@c?3?2users?2nhv90?2projects?2eech?2ap@
  013e5	8b 15 00 00 00
	00		 mov	 edx, DWORD PTR ?null_entity_pointer_message@@3PBDB ; null_entity_pointer_message
  013eb	52		 push	 edx
  013ec	e8 00 00 00 00	 call	 ?process_assert@@YGXPBD0H@Z ; process_assert
  013f1	c7 85 64 ff ff
	ff 00 00 00 00	 mov	 DWORD PTR tv760[ebp], 0
$LN167@create_art:
  013fb	83 bd 64 ff ff
	ff 0c		 cmp	 DWORD PTR tv760[ebp], 12 ; 0000000cH
  01402	75 14		 jne	 SHORT $LN41@create_art

; 2964 : 										{
; 2965 : 											result = engage_targets_in_group (group, target, TRUE);

  01404	6a 01		 push	 1
  01406	8b 45 f0	 mov	 eax, DWORD PTR _target$[ebp]
  01409	50		 push	 eax
  0140a	8b 4d f4	 mov	 ecx, DWORD PTR _group$[ebp]
  0140d	51		 push	 ecx
  0140e	e8 00 00 00 00	 call	 ?engage_targets_in_group@@YGHPAUENTITY@@0H@Z ; engage_targets_in_group
  01413	89 45 d0	 mov	 DWORD PTR _result$[ebp], eax

; 2966 : 										}
; 2967 : 										else

  01416	eb 7f		 jmp	 SHORT $LN42@create_art
$LN41@create_art:

; 2968 : 										{
; 2969 : 											ASSERT (get_local_entity_type (target) == ENTITY_TYPE_KEYSITE);

  01418	83 7d f0 00	 cmp	 DWORD PTR _target$[ebp], 0
  0141c	74 0d		 je	 SHORT $LN168@create_art
  0141e	8b 45 f0	 mov	 eax, DWORD PTR _target$[ebp]
  01421	8b 08		 mov	 ecx, DWORD PTR [eax]
  01423	89 8d 64 ff ff
	ff		 mov	 DWORD PTR tv772[ebp], ecx
  01429	eb 27		 jmp	 SHORT $LN169@create_art
$LN168@create_art:
  0142b	8b 15 00 00 00
	00		 mov	 edx, DWORD PTR ?__LINE__Var@?0??create_artillery_strike_tasks@@YGXXZ@4JA
  01431	81 c2 e6 00 00
	00		 add	 edx, 230		; 000000e6H
  01437	52		 push	 edx
  01438	68 00 00 00 00	 push	 OFFSET ??_C@_0ED@GMECMFKH@c?3?2users?2nhv90?2projects?2eech?2ap@
  0143d	a1 00 00 00 00	 mov	 eax, DWORD PTR ?null_entity_pointer_message@@3PBDB ; null_entity_pointer_message
  01442	50		 push	 eax
  01443	e8 00 00 00 00	 call	 ?process_assert@@YGXPBD0H@Z ; process_assert
  01448	c7 85 64 ff ff
	ff 00 00 00 00	 mov	 DWORD PTR tv772[ebp], 0
$LN169@create_art:
  01452	83 bd 64 ff ff
	ff 0f		 cmp	 DWORD PTR tv772[ebp], 15 ; 0000000fH
  01459	74 1a		 je	 SHORT $LN43@create_art
  0145b	a1 00 00 00 00	 mov	 eax, DWORD PTR ?__LINE__Var@?0??create_artillery_strike_tasks@@YGXXZ@4JA
  01460	05 e6 00 00 00	 add	 eax, 230		; 000000e6H
  01465	50		 push	 eax
  01466	68 00 00 00 00	 push	 OFFSET ??_C@_0ED@GMECMFKH@c?3?2users?2nhv90?2projects?2eech?2ap@
  0146b	68 00 00 00 00	 push	 OFFSET ??_C@_0DG@MKPLALAD@get_local_entity_type?5?$CItarget?$CJ?5@
  01470	e8 00 00 00 00	 call	 ?process_assert@@YGXPBD0H@Z ; process_assert
$LN43@create_art:

; 2970 : 											
; 2971 : 											result = engage_targets_in_area (group, target_pos, 1.0 * KILOMETRE, TASK_TARGET_TYPE_BUILDING, TRUE);

  01475	6a 01		 push	 1
  01477	6a 08		 push	 8
  01479	51		 push	 ecx
  0147a	f3 0f 10 05 00
	00 00 00	 movss	 xmm0, DWORD PTR __real@447a0000
  01482	f3 0f 11 04 24	 movss	 DWORD PTR [esp], xmm0
  01487	8b 45 d4	 mov	 eax, DWORD PTR _target_pos$[ebp]
  0148a	50		 push	 eax
  0148b	8b 4d f4	 mov	 ecx, DWORD PTR _group$[ebp]
  0148e	51		 push	 ecx
  0148f	e8 00 00 00 00	 call	 ?engage_targets_in_area@@YGHPAUENTITY@@PAUVEC3D@@MIH@Z ; engage_targets_in_area
  01494	89 45 d0	 mov	 DWORD PTR _result$[ebp], eax
$LN42@create_art:

; 2972 : 										}
; 2973 : 
; 2974 : 										if (result)

  01497	83 7d d0 00	 cmp	 DWORD PTR _result$[ebp], 0
  0149b	0f 84 ec 00 00
	00		 je	 $LN44@create_art

; 2975 : 										{
; 2976 : 											assigned_count ++;

  014a1	8b 45 cc	 mov	 eax, DWORD PTR _assigned_count$[ebp]
  014a4	83 c0 01	 add	 eax, 1
  014a7	89 45 cc	 mov	 DWORD PTR _assigned_count$[ebp], eax

; 2977 : 	
; 2978 : 											target_list [target_index] = NULL;

  014aa	8b 45 b0	 mov	 eax, DWORD PTR _target_index$[ebp]
  014ad	8b 4d e8	 mov	 ecx, DWORD PTR _target_list$[ebp]
  014b0	c7 04 81 00 00
	00 00		 mov	 DWORD PTR [ecx+eax*4], 0

; 2979 : 	
; 2980 : 											ai_log ("(ARTILLERY) Group %d Attacking Target %d (%s) - sqr range %f",

  014b7	83 7d f0 00	 cmp	 DWORD PTR _target$[ebp], 0
  014bb	74 0d		 je	 SHORT $LN170@create_art
  014bd	8b 45 f0	 mov	 eax, DWORD PTR _target$[ebp]
  014c0	8b 08		 mov	 ecx, DWORD PTR [eax]
  014c2	89 8d 64 ff ff
	ff		 mov	 DWORD PTR tv796[ebp], ecx
  014c8	eb 27		 jmp	 SHORT $LN171@create_art
$LN170@create_art:
  014ca	8b 15 00 00 00
	00		 mov	 edx, DWORD PTR ?__LINE__Var@?0??create_artillery_strike_tasks@@YGXXZ@4JA
  014d0	81 c2 f4 00 00
	00		 add	 edx, 244		; 000000f4H
  014d6	52		 push	 edx
  014d7	68 00 00 00 00	 push	 OFFSET ??_C@_0ED@GMECMFKH@c?3?2users?2nhv90?2projects?2eech?2ap@
  014dc	a1 00 00 00 00	 mov	 eax, DWORD PTR ?null_entity_pointer_message@@3PBDB ; null_entity_pointer_message
  014e1	50		 push	 eax
  014e2	e8 00 00 00 00	 call	 ?process_assert@@YGXPBD0H@Z ; process_assert
  014e7	c7 85 64 ff ff
	ff 00 00 00 00	 mov	 DWORD PTR tv796[ebp], 0
$LN171@create_art:
  014f1	b9 01 00 00 00	 mov	 ecx, 1
  014f6	85 c9		 test	 ecx, ecx
  014f8	74 0c		 je	 SHORT $LN172@create_art
  014fa	c7 85 60 ff ff
	ff 03 00 00 00	 mov	 DWORD PTR tv804[ebp], 3
  01504	eb 27		 jmp	 SHORT $LN173@create_art
$LN172@create_art:
  01506	8b 15 00 00 00
	00		 mov	 edx, DWORD PTR ?__LINE__Var@?0??create_artillery_strike_tasks@@YGXXZ@4JA
  0150c	81 c2 f4 00 00
	00		 add	 edx, 244		; 000000f4H
  01512	52		 push	 edx
  01513	68 00 00 00 00	 push	 OFFSET ??_C@_0ED@GMECMFKH@c?3?2users?2nhv90?2projects?2eech?2ap@
  01518	a1 00 00 00 00	 mov	 eax, DWORD PTR ?overload_invalid_string_type_message@@3PBDB ; overload_invalid_string_type_message
  0151d	50		 push	 eax
  0151e	e8 00 00 00 00	 call	 ?process_assert@@YGXPBD0H@Z ; process_assert
  01523	c7 85 60 ff ff
	ff 00 00 00 00	 mov	 DWORD PTR tv804[ebp], 0
$LN173@create_art:
  0152d	f3 0f 5a 45 ac	 cvtss2sd xmm0, DWORD PTR _range$[ebp]
  01532	83 ec 08	 sub	 esp, 8
  01535	f2 0f 11 04 24	 movsd	 QWORD PTR [esp], xmm0
  0153a	6a 03		 push	 3
  0153c	8b 4d f0	 mov	 ecx, DWORD PTR _target$[ebp]
  0153f	51		 push	 ecx
  01540	6b 95 64 ff ff
	ff 34		 imul	 edx, DWORD PTR tv796[ebp], 52
  01547	8b 85 60 ff ff
	ff		 mov	 eax, DWORD PTR tv804[ebp]
  0154d	8b 8c 82 00 00
	00 00		 mov	 ecx, DWORD PTR ?fn_get_local_entity_string@@3PAY0N@P6GPBDPAUENTITY@@W4STRING_TYPES@@@ZA[edx+eax*4]
  01554	ff d1		 call	 ecx
  01556	50		 push	 eax
  01557	8b 55 f0	 mov	 edx, DWORD PTR _target$[ebp]
  0155a	2b 15 00 00 00
	00		 sub	 edx, DWORD PTR ?entities@@3PAUENTITY@@A ; entities
  01560	c1 fa 04	 sar	 edx, 4
  01563	52		 push	 edx
  01564	8b 45 f4	 mov	 eax, DWORD PTR _group$[ebp]
  01567	2b 05 00 00 00
	00		 sub	 eax, DWORD PTR ?entities@@3PAUENTITY@@A ; entities
  0156d	c1 f8 04	 sar	 eax, 4
  01570	50		 push	 eax
  01571	68 00 00 00 00	 push	 OFFSET ??_C@_0DN@BNFHDBCO@?$CIARTILLERY?$CJ?5Group?5?$CFd?5Attacking?5@
  01576	e8 00 00 00 00	 call	 ?ai_log@@YAXPBDZZ	; ai_log
  0157b	83 c4 18	 add	 esp, 24			; 00000018H

; 2981 : 															get_local_entity_index (group),
; 2982 : 															get_local_entity_index (target),
; 2983 : 															get_local_entity_string (target, STRING_TYPE_FULL_NAME),
; 2984 : 															range);
; 2985 : 
; 2986 : 											//
; 2987 : 											// Create Reaction
; 2988 : 											//
; 2989 : 	
; 2990 : 											create_reaction_to_artillery_fire (group, target);

  0157e	8b 45 f0	 mov	 eax, DWORD PTR _target$[ebp]
  01581	50		 push	 eax
  01582	8b 4d f4	 mov	 ecx, DWORD PTR _group$[ebp]
  01585	51		 push	 ecx
  01586	e8 00 00 00 00	 call	 ?create_reaction_to_artillery_fire@@YGXPAUENTITY@@0@Z ; create_reaction_to_artillery_fire

; 2991 : 
; 2992 : 											break;

  0158b	eb 05		 jmp	 SHORT $LN20@create_art
$LN44@create_art:

; 2993 : 										}
; 2994 : 									}
; 2995 : 								}
; 2996 : 							}
; 2997 : 						}

  0158d	e9 71 fc ff ff	 jmp	 $LN19@create_art
$LN20@create_art:

; 2998 : 					}
; 2999 : 
; 3000 : 					if ((assigned_count >= MAX_ARTILLERY_STRIKE_COUNT) || (assigned_count >= target_count))

  01592	83 7d cc 05	 cmp	 DWORD PTR _assigned_count$[ebp], 5
  01596	7d 08		 jge	 SHORT $LN46@create_art
  01598	8b 45 cc	 mov	 eax, DWORD PTR _assigned_count$[ebp]
  0159b	3b 45 c0	 cmp	 eax, DWORD PTR _target_count$[ebp]
  0159e	7c 02		 jl	 SHORT $LN45@create_art
$LN46@create_art:

; 3001 : 					{
; 3002 : 						break;

  015a0	eb 05		 jmp	 SHORT $LN17@create_art
$LN45@create_art:

; 3003 : 					}
; 3004 : 				}

  015a2	e9 6f fb ff ff	 jmp	 $LN16@create_art
$LN17@create_art:

; 3005 : 			
; 3006 : 				free_mem (target_list);

  015a7	8b 45 e8	 mov	 eax, DWORD PTR _target_list$[ebp]
  015aa	50		 push	 eax
  015ab	e8 00 00 00 00	 call	 ?free_mem@@YGXPAX@Z	; free_mem
$LN29@create_art:

; 3007 : 			}
; 3008 : 
; 3009 : 			free_mem (group_list);

  015b0	8b 45 ec	 mov	 eax, DWORD PTR _group_list$[ebp]
  015b3	50		 push	 eax
  015b4	e8 00 00 00 00	 call	 ?free_mem@@YGXPAX@Z	; free_mem
$LN24@create_art:

; 3010 : 		}
; 3011 : 
; 3012 : 		//
; 3013 : 		// Next force
; 3014 : 		//
; 3015 : 	
; 3016 : 		force = get_local_entity_child_succ (force, LIST_TYPE_FORCE);

  015b9	83 7d e0 00	 cmp	 DWORD PTR _force$[ebp], 0
  015bd	74 0d		 je	 SHORT $LN174@create_art
  015bf	8b 45 e0	 mov	 eax, DWORD PTR _force$[ebp]
  015c2	8b 08		 mov	 ecx, DWORD PTR [eax]
  015c4	89 8d 64 ff ff
	ff		 mov	 DWORD PTR tv830[ebp], ecx
  015ca	eb 27		 jmp	 SHORT $LN175@create_art
$LN174@create_art:
  015cc	8b 15 00 00 00
	00		 mov	 edx, DWORD PTR ?__LINE__Var@?0??create_artillery_strike_tasks@@YGXXZ@4JA
  015d2	81 c2 15 01 00
	00		 add	 edx, 277		; 00000115H
  015d8	52		 push	 edx
  015d9	68 00 00 00 00	 push	 OFFSET ??_C@_0ED@GMECMFKH@c?3?2users?2nhv90?2projects?2eech?2ap@
  015de	a1 00 00 00 00	 mov	 eax, DWORD PTR ?null_entity_pointer_message@@3PBDB ; null_entity_pointer_message
  015e3	50		 push	 eax
  015e4	e8 00 00 00 00	 call	 ?process_assert@@YGXPBD0H@Z ; process_assert
  015e9	c7 85 64 ff ff
	ff 00 00 00 00	 mov	 DWORD PTR tv830[ebp], 0
$LN175@create_art:
  015f3	b9 01 00 00 00	 mov	 ecx, 1
  015f8	85 c9		 test	 ecx, ecx
  015fa	74 0c		 je	 SHORT $LN176@create_art
  015fc	c7 85 60 ff ff
	ff 0e 00 00 00	 mov	 DWORD PTR tv838[ebp], 14 ; 0000000eH
  01606	eb 27		 jmp	 SHORT $LN177@create_art
$LN176@create_art:
  01608	8b 15 00 00 00
	00		 mov	 edx, DWORD PTR ?__LINE__Var@?0??create_artillery_strike_tasks@@YGXXZ@4JA
  0160e	81 c2 15 01 00
	00		 add	 edx, 277		; 00000115H
  01614	52		 push	 edx
  01615	68 00 00 00 00	 push	 OFFSET ??_C@_0ED@GMECMFKH@c?3?2users?2nhv90?2projects?2eech?2ap@
  0161a	a1 00 00 00 00	 mov	 eax, DWORD PTR ?overload_invalid_list_type_message@@3PBDB ; overload_invalid_list_type_message
  0161f	50		 push	 eax
  01620	e8 00 00 00 00	 call	 ?process_assert@@YGXPBD0H@Z ; process_assert
  01625	c7 85 60 ff ff
	ff 00 00 00 00	 mov	 DWORD PTR tv838[ebp], 0
$LN177@create_art:
  0162f	6a 0e		 push	 14			; 0000000eH
  01631	8b 4d e0	 mov	 ecx, DWORD PTR _force$[ebp]
  01634	51		 push	 ecx
  01635	69 95 64 ff ff
	ff b4 00 00 00	 imul	 edx, DWORD PTR tv830[ebp], 180
  0163f	8b 85 60 ff ff
	ff		 mov	 eax, DWORD PTR tv838[ebp]
  01645	8b 8c 82 00 00
	00 00		 mov	 ecx, DWORD PTR ?fn_get_local_entity_child_succ@@3PAY0CN@P6GPAUENTITY@@PAU1@W4LIST_TYPES@@@ZA[edx+eax*4]
  0164c	ff d1		 call	 ecx
  0164e	89 45 e0	 mov	 DWORD PTR _force$[ebp], eax

; 3017 : 	}

  01651	e9 98 ea ff ff	 jmp	 $LN2@create_art
$LN3@create_art:

; 3018 : }

  01656	5f		 pop	 edi
  01657	5e		 pop	 esi
  01658	5b		 pop	 ebx
  01659	8b e5		 mov	 esp, ebp
  0165b	5d		 pop	 ebp
  0165c	c3		 ret	 0
?create_artillery_strike_tasks@@YGXXZ ENDP		; create_artillery_strike_tasks
_TEXT	ENDS
; Function compile flags: /Odtp /ZI
; File c:\users\nhv90\projects\eech\aphavoc\source\ai\highlevl\highlevl.c
;	COMDAT ?create_troop_patrol_tasks@@YGXXZ
_TEXT	SEGMENT
tv334 = -92						; size = 4
tv314 = -92						; size = 4
tv294 = -92						; size = 4
tv253 = -92						; size = 4
tv234 = -92						; size = 4
tv215 = -92						; size = 4
tv196 = -92						; size = 4
tv170 = -92						; size = 4
tv151 = -92						; size = 4
tv131 = -92						; size = 4
tv78 = -92						; size = 4
tv326 = -88						; size = 4
tv306 = -88						; size = 4
tv286 = -88						; size = 4
tv274 = -88						; size = 4
tv246 = -88						; size = 4
tv227 = -88						; size = 4
tv208 = -88						; size = 4
tv188 = -88						; size = 4
tv163 = -88						; size = 4
tv143 = -88						; size = 4
tv91 = -88						; size = 4
tv70 = -88						; size = 4
_side$ = -20						; size = 4
_force$ = -16						; size = 4
_keysite$ = -12						; size = 4
_group$ = -8						; size = 4
_task$ = -4						; size = 4
?create_troop_patrol_tasks@@YGXXZ PROC			; create_troop_patrol_tasks, COMDAT

; 2660 : {

  00000	55		 push	 ebp
  00001	8b ec		 mov	 ebp, esp
  00003	83 ec 5c	 sub	 esp, 92			; 0000005cH
  00006	53		 push	 ebx
  00007	56		 push	 esi
  00008	57		 push	 edi

; 2661 : 	entity
; 2662 : 		*task,
; 2663 : 		*group,
; 2664 : 		*keysite,
; 2665 : 		*force;
; 2666 : 
; 2667 : 	entity_sides
; 2668 : 		side;
; 2669 : 		
; 2670 : 	force = get_local_entity_first_child (get_session_entity (), LIST_TYPE_FORCE);

  00009	83 3d 00 00 00
	00 00		 cmp	 DWORD PTR ?session_entity@@3PAUENTITY@@A, 0 ; session_entity
  00010	74 0c		 je	 SHORT $LN16@create_tro
  00012	a1 00 00 00 00	 mov	 eax, DWORD PTR ?session_entity@@3PAUENTITY@@A ; session_entity
  00017	8b 08		 mov	 ecx, DWORD PTR [eax]
  00019	89 4d a8	 mov	 DWORD PTR tv70[ebp], ecx
  0001c	eb 21		 jmp	 SHORT $LN17@create_tro
$LN16@create_tro:
  0001e	8b 15 00 00 00
	00		 mov	 edx, DWORD PTR ?__LINE__Var@?0??create_troop_patrol_tasks@@YGXXZ@4JA
  00024	83 c2 0a	 add	 edx, 10			; 0000000aH
  00027	52		 push	 edx
  00028	68 00 00 00 00	 push	 OFFSET ??_C@_0ED@GMECMFKH@c?3?2users?2nhv90?2projects?2eech?2ap@
  0002d	a1 00 00 00 00	 mov	 eax, DWORD PTR ?null_entity_pointer_message@@3PBDB ; null_entity_pointer_message
  00032	50		 push	 eax
  00033	e8 00 00 00 00	 call	 ?process_assert@@YGXPBD0H@Z ; process_assert
  00038	c7 45 a8 00 00
	00 00		 mov	 DWORD PTR tv70[ebp], 0
$LN17@create_tro:
  0003f	b9 01 00 00 00	 mov	 ecx, 1
  00044	85 c9		 test	 ecx, ecx
  00046	74 09		 je	 SHORT $LN18@create_tro
  00048	c7 45 a4 0e 00
	00 00		 mov	 DWORD PTR tv78[ebp], 14	; 0000000eH
  0004f	eb 21		 jmp	 SHORT $LN19@create_tro
$LN18@create_tro:
  00051	8b 15 00 00 00
	00		 mov	 edx, DWORD PTR ?__LINE__Var@?0??create_troop_patrol_tasks@@YGXXZ@4JA
  00057	83 c2 0a	 add	 edx, 10			; 0000000aH
  0005a	52		 push	 edx
  0005b	68 00 00 00 00	 push	 OFFSET ??_C@_0ED@GMECMFKH@c?3?2users?2nhv90?2projects?2eech?2ap@
  00060	a1 00 00 00 00	 mov	 eax, DWORD PTR ?overload_invalid_list_type_message@@3PBDB ; overload_invalid_list_type_message
  00065	50		 push	 eax
  00066	e8 00 00 00 00	 call	 ?process_assert@@YGXPBD0H@Z ; process_assert
  0006b	c7 45 a4 00 00
	00 00		 mov	 DWORD PTR tv78[ebp], 0
$LN19@create_tro:
  00072	6a 0e		 push	 14			; 0000000eH
  00074	8b 0d 00 00 00
	00		 mov	 ecx, DWORD PTR ?session_entity@@3PAUENTITY@@A ; session_entity
  0007a	51		 push	 ecx
  0007b	69 55 a8 b4 00
	00 00		 imul	 edx, DWORD PTR tv70[ebp], 180
  00082	8b 45 a4	 mov	 eax, DWORD PTR tv78[ebp]
  00085	8b 8c 82 00 00
	00 00		 mov	 ecx, DWORD PTR ?fn_get_local_entity_first_child@@3PAY0CN@P6GPAUENTITY@@PAU1@W4LIST_TYPES@@@ZA[edx+eax*4]
  0008c	ff d1		 call	 ecx
  0008e	89 45 f0	 mov	 DWORD PTR _force$[ebp], eax
$LN2@create_tro:

; 2671 : 
; 2672 : 	while (force)

  00091	83 7d f0 00	 cmp	 DWORD PTR _force$[ebp], 0
  00095	0f 84 a2 05 00
	00		 je	 $LN1@create_tro

; 2673 : 	{
; 2674 : 		side = (entity_sides) get_local_entity_int_value (force, INT_TYPE_SIDE);

  0009b	83 7d f0 00	 cmp	 DWORD PTR _force$[ebp], 0
  0009f	74 0a		 je	 SHORT $LN20@create_tro
  000a1	8b 45 f0	 mov	 eax, DWORD PTR _force$[ebp]
  000a4	8b 08		 mov	 ecx, DWORD PTR [eax]
  000a6	89 4d a8	 mov	 DWORD PTR tv91[ebp], ecx
  000a9	eb 21		 jmp	 SHORT $LN21@create_tro
$LN20@create_tro:
  000ab	8b 15 00 00 00
	00		 mov	 edx, DWORD PTR ?__LINE__Var@?0??create_troop_patrol_tasks@@YGXXZ@4JA
  000b1	83 c2 0e	 add	 edx, 14			; 0000000eH
  000b4	52		 push	 edx
  000b5	68 00 00 00 00	 push	 OFFSET ??_C@_0ED@GMECMFKH@c?3?2users?2nhv90?2projects?2eech?2ap@
  000ba	a1 00 00 00 00	 mov	 eax, DWORD PTR ?null_entity_pointer_message@@3PBDB ; null_entity_pointer_message
  000bf	50		 push	 eax
  000c0	e8 00 00 00 00	 call	 ?process_assert@@YGXPBD0H@Z ; process_assert
  000c5	c7 45 a8 00 00
	00 00		 mov	 DWORD PTR tv91[ebp], 0
$LN21@create_tro:
  000cc	b9 01 00 00 00	 mov	 ecx, 1
  000d1	85 c9		 test	 ecx, ecx
  000d3	74 09		 je	 SHORT $LN22@create_tro
  000d5	c7 45 a4 bb 00
	00 00		 mov	 DWORD PTR tv131[ebp], 187 ; 000000bbH
  000dc	eb 21		 jmp	 SHORT $LN23@create_tro
$LN22@create_tro:
  000de	8b 15 00 00 00
	00		 mov	 edx, DWORD PTR ?__LINE__Var@?0??create_troop_patrol_tasks@@YGXXZ@4JA
  000e4	83 c2 0e	 add	 edx, 14			; 0000000eH
  000e7	52		 push	 edx
  000e8	68 00 00 00 00	 push	 OFFSET ??_C@_0ED@GMECMFKH@c?3?2users?2nhv90?2projects?2eech?2ap@
  000ed	a1 00 00 00 00	 mov	 eax, DWORD PTR ?overload_invalid_int_type_message@@3PBDB ; overload_invalid_int_type_message
  000f2	50		 push	 eax
  000f3	e8 00 00 00 00	 call	 ?process_assert@@YGXPBD0H@Z ; process_assert
  000f8	c7 45 a4 00 00
	00 00		 mov	 DWORD PTR tv131[ebp], 0
$LN23@create_tro:
  000ff	68 bb 00 00 00	 push	 187			; 000000bbH
  00104	8b 4d f0	 mov	 ecx, DWORD PTR _force$[ebp]
  00107	51		 push	 ecx
  00108	69 55 a8 5c 04
	00 00		 imul	 edx, DWORD PTR tv91[ebp], 1116
  0010f	8b 45 a4	 mov	 eax, DWORD PTR tv131[ebp]
  00112	8b 8c 82 00 00
	00 00		 mov	 ecx, DWORD PTR ?fn_get_local_entity_int_value@@3PAY0BBH@P6GHPAUENTITY@@W4INT_TYPES@@@ZA[edx+eax*4]
  00119	ff d1		 call	 ecx
  0011b	89 45 ec	 mov	 DWORD PTR _side$[ebp], eax

; 2675 : 			
; 2676 : 		keysite = get_local_entity_first_child (force, LIST_TYPE_KEYSITE_FORCE);

  0011e	83 7d f0 00	 cmp	 DWORD PTR _force$[ebp], 0
  00122	74 0a		 je	 SHORT $LN24@create_tro
  00124	8b 45 f0	 mov	 eax, DWORD PTR _force$[ebp]
  00127	8b 08		 mov	 ecx, DWORD PTR [eax]
  00129	89 4d a8	 mov	 DWORD PTR tv143[ebp], ecx
  0012c	eb 21		 jmp	 SHORT $LN25@create_tro
$LN24@create_tro:
  0012e	8b 15 00 00 00
	00		 mov	 edx, DWORD PTR ?__LINE__Var@?0??create_troop_patrol_tasks@@YGXXZ@4JA
  00134	83 c2 10	 add	 edx, 16			; 00000010H
  00137	52		 push	 edx
  00138	68 00 00 00 00	 push	 OFFSET ??_C@_0ED@GMECMFKH@c?3?2users?2nhv90?2projects?2eech?2ap@
  0013d	a1 00 00 00 00	 mov	 eax, DWORD PTR ?null_entity_pointer_message@@3PBDB ; null_entity_pointer_message
  00142	50		 push	 eax
  00143	e8 00 00 00 00	 call	 ?process_assert@@YGXPBD0H@Z ; process_assert
  00148	c7 45 a8 00 00
	00 00		 mov	 DWORD PTR tv143[ebp], 0
$LN25@create_tro:
  0014f	b9 01 00 00 00	 mov	 ecx, 1
  00154	85 c9		 test	 ecx, ecx
  00156	74 09		 je	 SHORT $LN26@create_tro
  00158	c7 45 a4 15 00
	00 00		 mov	 DWORD PTR tv151[ebp], 21 ; 00000015H
  0015f	eb 21		 jmp	 SHORT $LN27@create_tro
$LN26@create_tro:
  00161	8b 15 00 00 00
	00		 mov	 edx, DWORD PTR ?__LINE__Var@?0??create_troop_patrol_tasks@@YGXXZ@4JA
  00167	83 c2 10	 add	 edx, 16			; 00000010H
  0016a	52		 push	 edx
  0016b	68 00 00 00 00	 push	 OFFSET ??_C@_0ED@GMECMFKH@c?3?2users?2nhv90?2projects?2eech?2ap@
  00170	a1 00 00 00 00	 mov	 eax, DWORD PTR ?overload_invalid_list_type_message@@3PBDB ; overload_invalid_list_type_message
  00175	50		 push	 eax
  00176	e8 00 00 00 00	 call	 ?process_assert@@YGXPBD0H@Z ; process_assert
  0017b	c7 45 a4 00 00
	00 00		 mov	 DWORD PTR tv151[ebp], 0
$LN27@create_tro:
  00182	6a 15		 push	 21			; 00000015H
  00184	8b 4d f0	 mov	 ecx, DWORD PTR _force$[ebp]
  00187	51		 push	 ecx
  00188	69 55 a8 b4 00
	00 00		 imul	 edx, DWORD PTR tv143[ebp], 180
  0018f	8b 45 a4	 mov	 eax, DWORD PTR tv151[ebp]
  00192	8b 8c 82 00 00
	00 00		 mov	 ecx, DWORD PTR ?fn_get_local_entity_first_child@@3PAY0CN@P6GPAUENTITY@@PAU1@W4LIST_TYPES@@@ZA[edx+eax*4]
  00199	ff d1		 call	 ecx
  0019b	89 45 f4	 mov	 DWORD PTR _keysite$[ebp], eax
$LN4@create_tro:

; 2677 : 	
; 2678 : 		while (keysite)

  0019e	83 7d f4 00	 cmp	 DWORD PTR _keysite$[ebp], 0
  001a2	0f 84 10 04 00
	00		 je	 $LN5@create_tro

; 2679 : 		{
; 2680 : 			#if DEBUG_MODULE
; 2681 : 
; 2682 : 			debug_log ("HIGHLEVL: Trying to create patrol task");
; 2683 : 
; 2684 : 			#endif
; 2685 : 			
; 2686 : 			if (get_local_entity_int_value (keysite, INT_TYPE_ENTITY_SUB_TYPE) == ENTITY_SUB_TYPE_KEYSITE_AIRBASE)

  001a8	83 7d f4 00	 cmp	 DWORD PTR _keysite$[ebp], 0
  001ac	74 0a		 je	 SHORT $LN28@create_tro
  001ae	8b 45 f4	 mov	 eax, DWORD PTR _keysite$[ebp]
  001b1	8b 08		 mov	 ecx, DWORD PTR [eax]
  001b3	89 4d a8	 mov	 DWORD PTR tv163[ebp], ecx
  001b6	eb 1d		 jmp	 SHORT $LN29@create_tro
$LN28@create_tro:
  001b8	68 7e 0a 00 00	 push	 2686			; 00000a7eH
  001bd	68 00 00 00 00	 push	 OFFSET ??_C@_0ED@GMECMFKH@c?3?2users?2nhv90?2projects?2eech?2ap@
  001c2	8b 15 00 00 00
	00		 mov	 edx, DWORD PTR ?null_entity_pointer_message@@3PBDB ; null_entity_pointer_message
  001c8	52		 push	 edx
  001c9	e8 00 00 00 00	 call	 ?process_assert@@YGXPBD0H@Z ; process_assert
  001ce	c7 45 a8 00 00
	00 00		 mov	 DWORD PTR tv163[ebp], 0
$LN29@create_tro:
  001d5	b8 01 00 00 00	 mov	 eax, 1
  001da	85 c0		 test	 eax, eax
  001dc	74 09		 je	 SHORT $LN30@create_tro
  001de	c7 45 a4 34 00
	00 00		 mov	 DWORD PTR tv170[ebp], 52 ; 00000034H
  001e5	eb 1d		 jmp	 SHORT $LN31@create_tro
$LN30@create_tro:
  001e7	68 7e 0a 00 00	 push	 2686			; 00000a7eH
  001ec	68 00 00 00 00	 push	 OFFSET ??_C@_0ED@GMECMFKH@c?3?2users?2nhv90?2projects?2eech?2ap@
  001f1	8b 0d 00 00 00
	00		 mov	 ecx, DWORD PTR ?overload_invalid_int_type_message@@3PBDB ; overload_invalid_int_type_message
  001f7	51		 push	 ecx
  001f8	e8 00 00 00 00	 call	 ?process_assert@@YGXPBD0H@Z ; process_assert
  001fd	c7 45 a4 00 00
	00 00		 mov	 DWORD PTR tv170[ebp], 0
$LN31@create_tro:
  00204	6a 34		 push	 52			; 00000034H
  00206	8b 55 f4	 mov	 edx, DWORD PTR _keysite$[ebp]
  00209	52		 push	 edx
  0020a	69 45 a8 5c 04
	00 00		 imul	 eax, DWORD PTR tv163[ebp], 1116
  00211	8b 4d a4	 mov	 ecx, DWORD PTR tv170[ebp]
  00214	8b 94 88 00 00
	00 00		 mov	 edx, DWORD PTR ?fn_get_local_entity_int_value@@3PAY0BBH@P6GHPAUENTITY@@W4INT_TYPES@@@ZA[eax+ecx*4]
  0021b	ff d2		 call	 edx
  0021d	85 c0		 test	 eax, eax
  0021f	0f 85 0e 03 00
	00		 jne	 $LN8@create_tro

; 2687 : 			{
; 2688 : 				if (!entity_is_object_of_task (keysite, ENTITY_SUB_TYPE_TASK_TROOP_MOVEMENT_PATROL, side))

  00225	8b 45 ec	 mov	 eax, DWORD PTR _side$[ebp]
  00228	50		 push	 eax
  00229	6a 1d		 push	 29			; 0000001dH
  0022b	8b 4d f4	 mov	 ecx, DWORD PTR _keysite$[ebp]
  0022e	51		 push	 ecx
  0022f	e8 00 00 00 00	 call	 ?entity_is_object_of_task@@YGHPAUENTITY@@HW4ENTITY_SIDES@@@Z ; entity_is_object_of_task
  00234	85 c0		 test	 eax, eax
  00236	0f 85 f7 02 00
	00		 jne	 $LN8@create_tro

; 2689 : 				{
; 2690 : 					group = get_local_entity_first_child (keysite, LIST_TYPE_KEYSITE_GROUP);

  0023c	83 7d f4 00	 cmp	 DWORD PTR _keysite$[ebp], 0
  00240	74 0a		 je	 SHORT $LN32@create_tro
  00242	8b 45 f4	 mov	 eax, DWORD PTR _keysite$[ebp]
  00245	8b 08		 mov	 ecx, DWORD PTR [eax]
  00247	89 4d a8	 mov	 DWORD PTR tv188[ebp], ecx
  0024a	eb 21		 jmp	 SHORT $LN33@create_tro
$LN32@create_tro:
  0024c	8b 15 00 00 00
	00		 mov	 edx, DWORD PTR ?__LINE__Var@?0??create_troop_patrol_tasks@@YGXXZ@4JA
  00252	83 c2 1e	 add	 edx, 30			; 0000001eH
  00255	52		 push	 edx
  00256	68 00 00 00 00	 push	 OFFSET ??_C@_0ED@GMECMFKH@c?3?2users?2nhv90?2projects?2eech?2ap@
  0025b	a1 00 00 00 00	 mov	 eax, DWORD PTR ?null_entity_pointer_message@@3PBDB ; null_entity_pointer_message
  00260	50		 push	 eax
  00261	e8 00 00 00 00	 call	 ?process_assert@@YGXPBD0H@Z ; process_assert
  00266	c7 45 a8 00 00
	00 00		 mov	 DWORD PTR tv188[ebp], 0
$LN33@create_tro:
  0026d	b9 01 00 00 00	 mov	 ecx, 1
  00272	85 c9		 test	 ecx, ecx
  00274	74 09		 je	 SHORT $LN34@create_tro
  00276	c7 45 a4 16 00
	00 00		 mov	 DWORD PTR tv196[ebp], 22 ; 00000016H
  0027d	eb 21		 jmp	 SHORT $LN35@create_tro
$LN34@create_tro:
  0027f	8b 15 00 00 00
	00		 mov	 edx, DWORD PTR ?__LINE__Var@?0??create_troop_patrol_tasks@@YGXXZ@4JA
  00285	83 c2 1e	 add	 edx, 30			; 0000001eH
  00288	52		 push	 edx
  00289	68 00 00 00 00	 push	 OFFSET ??_C@_0ED@GMECMFKH@c?3?2users?2nhv90?2projects?2eech?2ap@
  0028e	a1 00 00 00 00	 mov	 eax, DWORD PTR ?overload_invalid_list_type_message@@3PBDB ; overload_invalid_list_type_message
  00293	50		 push	 eax
  00294	e8 00 00 00 00	 call	 ?process_assert@@YGXPBD0H@Z ; process_assert
  00299	c7 45 a4 00 00
	00 00		 mov	 DWORD PTR tv196[ebp], 0
$LN35@create_tro:
  002a0	6a 16		 push	 22			; 00000016H
  002a2	8b 4d f4	 mov	 ecx, DWORD PTR _keysite$[ebp]
  002a5	51		 push	 ecx
  002a6	69 55 a8 b4 00
	00 00		 imul	 edx, DWORD PTR tv188[ebp], 180
  002ad	8b 45 a4	 mov	 eax, DWORD PTR tv196[ebp]
  002b0	8b 8c 82 00 00
	00 00		 mov	 ecx, DWORD PTR ?fn_get_local_entity_first_child@@3PAY0CN@P6GPAUENTITY@@PAU1@W4LIST_TYPES@@@ZA[edx+eax*4]
  002b7	ff d1		 call	 ecx
  002b9	89 45 f8	 mov	 DWORD PTR _group$[ebp], eax
$LN6@create_tro:

; 2691 : 					
; 2692 : 					while (group)

  002bc	83 7d f8 00	 cmp	 DWORD PTR _group$[ebp], 0
  002c0	0f 84 6d 02 00
	00		 je	 $LN8@create_tro

; 2693 : 					{
; 2694 : 						if (get_local_entity_int_value (group, INT_TYPE_ENTITY_SUB_TYPE) == ENTITY_SUB_TYPE_GROUP_INFANTRY_PATROL)

  002c6	83 7d f8 00	 cmp	 DWORD PTR _group$[ebp], 0
  002ca	74 0a		 je	 SHORT $LN36@create_tro
  002cc	8b 45 f8	 mov	 eax, DWORD PTR _group$[ebp]
  002cf	8b 08		 mov	 ecx, DWORD PTR [eax]
  002d1	89 4d a8	 mov	 DWORD PTR tv208[ebp], ecx
  002d4	eb 1d		 jmp	 SHORT $LN37@create_tro
$LN36@create_tro:
  002d6	68 86 0a 00 00	 push	 2694			; 00000a86H
  002db	68 00 00 00 00	 push	 OFFSET ??_C@_0ED@GMECMFKH@c?3?2users?2nhv90?2projects?2eech?2ap@
  002e0	8b 15 00 00 00
	00		 mov	 edx, DWORD PTR ?null_entity_pointer_message@@3PBDB ; null_entity_pointer_message
  002e6	52		 push	 edx
  002e7	e8 00 00 00 00	 call	 ?process_assert@@YGXPBD0H@Z ; process_assert
  002ec	c7 45 a8 00 00
	00 00		 mov	 DWORD PTR tv208[ebp], 0
$LN37@create_tro:
  002f3	b8 01 00 00 00	 mov	 eax, 1
  002f8	85 c0		 test	 eax, eax
  002fa	74 09		 je	 SHORT $LN38@create_tro
  002fc	c7 45 a4 34 00
	00 00		 mov	 DWORD PTR tv215[ebp], 52 ; 00000034H
  00303	eb 1d		 jmp	 SHORT $LN39@create_tro
$LN38@create_tro:
  00305	68 86 0a 00 00	 push	 2694			; 00000a86H
  0030a	68 00 00 00 00	 push	 OFFSET ??_C@_0ED@GMECMFKH@c?3?2users?2nhv90?2projects?2eech?2ap@
  0030f	8b 0d 00 00 00
	00		 mov	 ecx, DWORD PTR ?overload_invalid_int_type_message@@3PBDB ; overload_invalid_int_type_message
  00315	51		 push	 ecx
  00316	e8 00 00 00 00	 call	 ?process_assert@@YGXPBD0H@Z ; process_assert
  0031b	c7 45 a4 00 00
	00 00		 mov	 DWORD PTR tv215[ebp], 0
$LN39@create_tro:
  00322	6a 34		 push	 52			; 00000034H
  00324	8b 55 f8	 mov	 edx, DWORD PTR _group$[ebp]
  00327	52		 push	 edx
  00328	69 45 a8 5c 04
	00 00		 imul	 eax, DWORD PTR tv208[ebp], 1116
  0032f	8b 4d a4	 mov	 ecx, DWORD PTR tv215[ebp]
  00332	8b 94 88 00 00
	00 00		 mov	 edx, DWORD PTR ?fn_get_local_entity_int_value@@3PAY0BBH@P6GHPAUENTITY@@W4INT_TYPES@@@ZA[eax+ecx*4]
  00339	ff d2		 call	 edx
  0033b	83 f8 15	 cmp	 eax, 21			; 00000015H
  0033e	0f 85 6a 01 00
	00		 jne	 $LN10@create_tro

; 2695 : 						{
; 2696 : 							if (get_local_entity_int_value (group, INT_TYPE_GROUP_MODE) == GROUP_MODE_IDLE)

  00344	83 7d f8 00	 cmp	 DWORD PTR _group$[ebp], 0
  00348	74 0a		 je	 SHORT $LN40@create_tro
  0034a	8b 45 f8	 mov	 eax, DWORD PTR _group$[ebp]
  0034d	8b 08		 mov	 ecx, DWORD PTR [eax]
  0034f	89 4d a8	 mov	 DWORD PTR tv227[ebp], ecx
  00352	eb 1d		 jmp	 SHORT $LN41@create_tro
$LN40@create_tro:
  00354	68 88 0a 00 00	 push	 2696			; 00000a88H
  00359	68 00 00 00 00	 push	 OFFSET ??_C@_0ED@GMECMFKH@c?3?2users?2nhv90?2projects?2eech?2ap@
  0035e	8b 15 00 00 00
	00		 mov	 edx, DWORD PTR ?null_entity_pointer_message@@3PBDB ; null_entity_pointer_message
  00364	52		 push	 edx
  00365	e8 00 00 00 00	 call	 ?process_assert@@YGXPBD0H@Z ; process_assert
  0036a	c7 45 a8 00 00
	00 00		 mov	 DWORD PTR tv227[ebp], 0
$LN41@create_tro:
  00371	b8 01 00 00 00	 mov	 eax, 1
  00376	85 c0		 test	 eax, eax
  00378	74 09		 je	 SHORT $LN42@create_tro
  0037a	c7 45 a4 4d 00
	00 00		 mov	 DWORD PTR tv234[ebp], 77 ; 0000004dH
  00381	eb 1d		 jmp	 SHORT $LN43@create_tro
$LN42@create_tro:
  00383	68 88 0a 00 00	 push	 2696			; 00000a88H
  00388	68 00 00 00 00	 push	 OFFSET ??_C@_0ED@GMECMFKH@c?3?2users?2nhv90?2projects?2eech?2ap@
  0038d	8b 0d 00 00 00
	00		 mov	 ecx, DWORD PTR ?overload_invalid_int_type_message@@3PBDB ; overload_invalid_int_type_message
  00393	51		 push	 ecx
  00394	e8 00 00 00 00	 call	 ?process_assert@@YGXPBD0H@Z ; process_assert
  00399	c7 45 a4 00 00
	00 00		 mov	 DWORD PTR tv234[ebp], 0
$LN43@create_tro:
  003a0	6a 4d		 push	 77			; 0000004dH
  003a2	8b 55 f8	 mov	 edx, DWORD PTR _group$[ebp]
  003a5	52		 push	 edx
  003a6	69 45 a8 5c 04
	00 00		 imul	 eax, DWORD PTR tv227[ebp], 1116
  003ad	8b 4d a4	 mov	 ecx, DWORD PTR tv234[ebp]
  003b0	8b 94 88 00 00
	00 00		 mov	 edx, DWORD PTR ?fn_get_local_entity_int_value@@3PAY0BBH@P6GHPAUENTITY@@W4INT_TYPES@@@ZA[eax+ecx*4]
  003b7	ff d2		 call	 edx
  003b9	85 c0		 test	 eax, eax
  003bb	0f 85 ed 00 00
	00		 jne	 $LN10@create_tro

; 2697 : 							{
; 2698 : 								if (get_local_entity_int_value (group, INT_TYPE_ALIVE))

  003c1	83 7d f8 00	 cmp	 DWORD PTR _group$[ebp], 0
  003c5	74 0a		 je	 SHORT $LN44@create_tro
  003c7	8b 45 f8	 mov	 eax, DWORD PTR _group$[ebp]
  003ca	8b 08		 mov	 ecx, DWORD PTR [eax]
  003cc	89 4d a8	 mov	 DWORD PTR tv246[ebp], ecx
  003cf	eb 1d		 jmp	 SHORT $LN45@create_tro
$LN44@create_tro:
  003d1	68 8a 0a 00 00	 push	 2698			; 00000a8aH
  003d6	68 00 00 00 00	 push	 OFFSET ??_C@_0ED@GMECMFKH@c?3?2users?2nhv90?2projects?2eech?2ap@
  003db	8b 15 00 00 00
	00		 mov	 edx, DWORD PTR ?null_entity_pointer_message@@3PBDB ; null_entity_pointer_message
  003e1	52		 push	 edx
  003e2	e8 00 00 00 00	 call	 ?process_assert@@YGXPBD0H@Z ; process_assert
  003e7	c7 45 a8 00 00
	00 00		 mov	 DWORD PTR tv246[ebp], 0
$LN45@create_tro:
  003ee	b8 01 00 00 00	 mov	 eax, 1
  003f3	85 c0		 test	 eax, eax
  003f5	74 09		 je	 SHORT $LN46@create_tro
  003f7	c7 45 a4 07 00
	00 00		 mov	 DWORD PTR tv253[ebp], 7
  003fe	eb 1d		 jmp	 SHORT $LN47@create_tro
$LN46@create_tro:
  00400	68 8a 0a 00 00	 push	 2698			; 00000a8aH
  00405	68 00 00 00 00	 push	 OFFSET ??_C@_0ED@GMECMFKH@c?3?2users?2nhv90?2projects?2eech?2ap@
  0040a	8b 0d 00 00 00
	00		 mov	 ecx, DWORD PTR ?overload_invalid_int_type_message@@3PBDB ; overload_invalid_int_type_message
  00410	51		 push	 ecx
  00411	e8 00 00 00 00	 call	 ?process_assert@@YGXPBD0H@Z ; process_assert
  00416	c7 45 a4 00 00
	00 00		 mov	 DWORD PTR tv253[ebp], 0
$LN47@create_tro:
  0041d	6a 07		 push	 7
  0041f	8b 55 f8	 mov	 edx, DWORD PTR _group$[ebp]
  00422	52		 push	 edx
  00423	69 45 a8 5c 04
	00 00		 imul	 eax, DWORD PTR tv246[ebp], 1116
  0042a	8b 4d a4	 mov	 ecx, DWORD PTR tv253[ebp]
  0042d	8b 94 88 00 00
	00 00		 mov	 edx, DWORD PTR ?fn_get_local_entity_int_value@@3PAY0BBH@P6GHPAUENTITY@@W4INT_TYPES@@@ZA[eax+ecx*4]
  00434	ff d2		 call	 edx
  00436	85 c0		 test	 eax, eax
  00438	74 74		 je	 SHORT $LN10@create_tro

; 2699 : 								{
; 2700 : 									task = create_troop_movement_patrol_task (side, keysite);

  0043a	8b 45 f4	 mov	 eax, DWORD PTR _keysite$[ebp]
  0043d	50		 push	 eax
  0043e	8b 4d ec	 mov	 ecx, DWORD PTR _side$[ebp]
  00441	51		 push	 ecx
  00442	e8 00 00 00 00	 call	 ?create_troop_movement_patrol_task@@YGPAUENTITY@@W4ENTITY_SIDES@@PAU1@@Z ; create_troop_movement_patrol_task
  00447	89 45 fc	 mov	 DWORD PTR _task$[ebp], eax

; 2701 : 
; 2702 : 									#if DEBUG_MODULE
; 2703 : 
; 2704 : 									debug_log ("HIGHLEVL: created patrol task");
; 2705 : 
; 2706 : 									#endif
; 2707 : 									
; 2708 : 									if (!assign_task_to_group (group, task, TASK_ASSIGN_ALL_MEMBERS))

  0044a	6a ff		 push	 -1
  0044c	8b 45 fc	 mov	 eax, DWORD PTR _task$[ebp]
  0044f	50		 push	 eax
  00450	8b 4d f8	 mov	 ecx, DWORD PTR _group$[ebp]
  00453	51		 push	 ecx
  00454	e8 00 00 00 00	 call	 ?assign_task_to_group@@YGHPAUENTITY@@0I@Z ; assign_task_to_group
  00459	85 c0		 test	 eax, eax
  0045b	75 4c		 jne	 SHORT $LN13@create_tro

; 2709 : 									{
; 2710 : 										destroy_client_server_entity (task);

  0045d	83 7d fc 00	 cmp	 DWORD PTR _task$[ebp], 0
  00461	74 0a		 je	 SHORT $LN48@create_tro
  00463	8b 45 fc	 mov	 eax, DWORD PTR _task$[ebp]
  00466	8b 08		 mov	 ecx, DWORD PTR [eax]
  00468	89 4d a8	 mov	 DWORD PTR tv274[ebp], ecx
  0046b	eb 21		 jmp	 SHORT $LN49@create_tro
$LN48@create_tro:
  0046d	8b 15 00 00 00
	00		 mov	 edx, DWORD PTR ?__LINE__Var@?0??create_troop_patrol_tasks@@YGXXZ@4JA
  00473	83 c2 32	 add	 edx, 50			; 00000032H
  00476	52		 push	 edx
  00477	68 00 00 00 00	 push	 OFFSET ??_C@_0ED@GMECMFKH@c?3?2users?2nhv90?2projects?2eech?2ap@
  0047c	a1 00 00 00 00	 mov	 eax, DWORD PTR ?null_entity_pointer_message@@3PBDB ; null_entity_pointer_message
  00481	50		 push	 eax
  00482	e8 00 00 00 00	 call	 ?process_assert@@YGXPBD0H@Z ; process_assert
  00487	c7 45 a8 00 00
	00 00		 mov	 DWORD PTR tv274[ebp], 0
$LN49@create_tro:
  0048e	8b 4d fc	 mov	 ecx, DWORD PTR _task$[ebp]
  00491	51		 push	 ecx
  00492	8b 15 00 00 00
	00		 mov	 edx, DWORD PTR ?system_comms_model@@3W4COMMS_MODEL_TYPES@@A ; system_comms_model
  00498	c1 e2 02	 shl	 edx, 2
  0049b	8b 45 a8	 mov	 eax, DWORD PTR tv274[ebp]
  0049e	8b 8c c2 00 00
	00 00		 mov	 ecx, DWORD PTR ?fn_destroy_client_server_entity@@3PAY01P6GXPAUENTITY@@@ZA[edx+eax*8]
  004a5	ff d1		 call	 ecx

; 2711 : 									}
; 2712 : 									else

  004a7	eb 05		 jmp	 SHORT $LN10@create_tro
$LN13@create_tro:

; 2713 : 									{
; 2714 : 										break;

  004a9	e9 85 00 00 00	 jmp	 $LN8@create_tro
$LN10@create_tro:

; 2715 : 									}
; 2716 : 								}
; 2717 : 							}
; 2718 : 						}
; 2719 : 	
; 2720 : 						group = get_local_entity_child_succ (group, LIST_TYPE_KEYSITE_GROUP);

  004ae	83 7d f8 00	 cmp	 DWORD PTR _group$[ebp], 0
  004b2	74 0a		 je	 SHORT $LN50@create_tro
  004b4	8b 45 f8	 mov	 eax, DWORD PTR _group$[ebp]
  004b7	8b 08		 mov	 ecx, DWORD PTR [eax]
  004b9	89 4d a8	 mov	 DWORD PTR tv286[ebp], ecx
  004bc	eb 21		 jmp	 SHORT $LN51@create_tro
$LN50@create_tro:
  004be	8b 15 00 00 00
	00		 mov	 edx, DWORD PTR ?__LINE__Var@?0??create_troop_patrol_tasks@@YGXXZ@4JA
  004c4	83 c2 3c	 add	 edx, 60			; 0000003cH
  004c7	52		 push	 edx
  004c8	68 00 00 00 00	 push	 OFFSET ??_C@_0ED@GMECMFKH@c?3?2users?2nhv90?2projects?2eech?2ap@
  004cd	a1 00 00 00 00	 mov	 eax, DWORD PTR ?null_entity_pointer_message@@3PBDB ; null_entity_pointer_message
  004d2	50		 push	 eax
  004d3	e8 00 00 00 00	 call	 ?process_assert@@YGXPBD0H@Z ; process_assert
  004d8	c7 45 a8 00 00
	00 00		 mov	 DWORD PTR tv286[ebp], 0
$LN51@create_tro:
  004df	b9 01 00 00 00	 mov	 ecx, 1
  004e4	85 c9		 test	 ecx, ecx
  004e6	74 09		 je	 SHORT $LN52@create_tro
  004e8	c7 45 a4 16 00
	00 00		 mov	 DWORD PTR tv294[ebp], 22 ; 00000016H
  004ef	eb 21		 jmp	 SHORT $LN53@create_tro
$LN52@create_tro:
  004f1	8b 15 00 00 00
	00		 mov	 edx, DWORD PTR ?__LINE__Var@?0??create_troop_patrol_tasks@@YGXXZ@4JA
  004f7	83 c2 3c	 add	 edx, 60			; 0000003cH
  004fa	52		 push	 edx
  004fb	68 00 00 00 00	 push	 OFFSET ??_C@_0ED@GMECMFKH@c?3?2users?2nhv90?2projects?2eech?2ap@
  00500	a1 00 00 00 00	 mov	 eax, DWORD PTR ?overload_invalid_list_type_message@@3PBDB ; overload_invalid_list_type_message
  00505	50		 push	 eax
  00506	e8 00 00 00 00	 call	 ?process_assert@@YGXPBD0H@Z ; process_assert
  0050b	c7 45 a4 00 00
	00 00		 mov	 DWORD PTR tv294[ebp], 0
$LN53@create_tro:
  00512	6a 16		 push	 22			; 00000016H
  00514	8b 4d f8	 mov	 ecx, DWORD PTR _group$[ebp]
  00517	51		 push	 ecx
  00518	69 55 a8 b4 00
	00 00		 imul	 edx, DWORD PTR tv286[ebp], 180
  0051f	8b 45 a4	 mov	 eax, DWORD PTR tv294[ebp]
  00522	8b 8c 82 00 00
	00 00		 mov	 ecx, DWORD PTR ?fn_get_local_entity_child_succ@@3PAY0CN@P6GPAUENTITY@@PAU1@W4LIST_TYPES@@@ZA[edx+eax*4]
  00529	ff d1		 call	 ecx
  0052b	89 45 f8	 mov	 DWORD PTR _group$[ebp], eax

; 2721 : 					}

  0052e	e9 89 fd ff ff	 jmp	 $LN6@create_tro
$LN8@create_tro:

; 2722 : 				}
; 2723 : 			}
; 2724 : 
; 2725 : 			keysite = get_local_entity_child_succ (keysite, LIST_TYPE_KEYSITE_FORCE);

  00533	83 7d f4 00	 cmp	 DWORD PTR _keysite$[ebp], 0
  00537	74 0a		 je	 SHORT $LN54@create_tro
  00539	8b 45 f4	 mov	 eax, DWORD PTR _keysite$[ebp]
  0053c	8b 08		 mov	 ecx, DWORD PTR [eax]
  0053e	89 4d a8	 mov	 DWORD PTR tv306[ebp], ecx
  00541	eb 21		 jmp	 SHORT $LN55@create_tro
$LN54@create_tro:
  00543	8b 15 00 00 00
	00		 mov	 edx, DWORD PTR ?__LINE__Var@?0??create_troop_patrol_tasks@@YGXXZ@4JA
  00549	83 c2 41	 add	 edx, 65			; 00000041H
  0054c	52		 push	 edx
  0054d	68 00 00 00 00	 push	 OFFSET ??_C@_0ED@GMECMFKH@c?3?2users?2nhv90?2projects?2eech?2ap@
  00552	a1 00 00 00 00	 mov	 eax, DWORD PTR ?null_entity_pointer_message@@3PBDB ; null_entity_pointer_message
  00557	50		 push	 eax
  00558	e8 00 00 00 00	 call	 ?process_assert@@YGXPBD0H@Z ; process_assert
  0055d	c7 45 a8 00 00
	00 00		 mov	 DWORD PTR tv306[ebp], 0
$LN55@create_tro:
  00564	b9 01 00 00 00	 mov	 ecx, 1
  00569	85 c9		 test	 ecx, ecx
  0056b	74 09		 je	 SHORT $LN56@create_tro
  0056d	c7 45 a4 15 00
	00 00		 mov	 DWORD PTR tv314[ebp], 21 ; 00000015H
  00574	eb 21		 jmp	 SHORT $LN57@create_tro
$LN56@create_tro:
  00576	8b 15 00 00 00
	00		 mov	 edx, DWORD PTR ?__LINE__Var@?0??create_troop_patrol_tasks@@YGXXZ@4JA
  0057c	83 c2 41	 add	 edx, 65			; 00000041H
  0057f	52		 push	 edx
  00580	68 00 00 00 00	 push	 OFFSET ??_C@_0ED@GMECMFKH@c?3?2users?2nhv90?2projects?2eech?2ap@
  00585	a1 00 00 00 00	 mov	 eax, DWORD PTR ?overload_invalid_list_type_message@@3PBDB ; overload_invalid_list_type_message
  0058a	50		 push	 eax
  0058b	e8 00 00 00 00	 call	 ?process_assert@@YGXPBD0H@Z ; process_assert
  00590	c7 45 a4 00 00
	00 00		 mov	 DWORD PTR tv314[ebp], 0
$LN57@create_tro:
  00597	6a 15		 push	 21			; 00000015H
  00599	8b 4d f4	 mov	 ecx, DWORD PTR _keysite$[ebp]
  0059c	51		 push	 ecx
  0059d	69 55 a8 b4 00
	00 00		 imul	 edx, DWORD PTR tv306[ebp], 180
  005a4	8b 45 a4	 mov	 eax, DWORD PTR tv314[ebp]
  005a7	8b 8c 82 00 00
	00 00		 mov	 ecx, DWORD PTR ?fn_get_local_entity_child_succ@@3PAY0CN@P6GPAUENTITY@@PAU1@W4LIST_TYPES@@@ZA[edx+eax*4]
  005ae	ff d1		 call	 ecx
  005b0	89 45 f4	 mov	 DWORD PTR _keysite$[ebp], eax

; 2726 : 		}

  005b3	e9 e6 fb ff ff	 jmp	 $LN4@create_tro
$LN5@create_tro:

; 2727 : 	
; 2728 : 		force = get_local_entity_child_succ (force, LIST_TYPE_FORCE);

  005b8	83 7d f0 00	 cmp	 DWORD PTR _force$[ebp], 0
  005bc	74 0a		 je	 SHORT $LN58@create_tro
  005be	8b 45 f0	 mov	 eax, DWORD PTR _force$[ebp]
  005c1	8b 08		 mov	 ecx, DWORD PTR [eax]
  005c3	89 4d a8	 mov	 DWORD PTR tv326[ebp], ecx
  005c6	eb 21		 jmp	 SHORT $LN59@create_tro
$LN58@create_tro:
  005c8	8b 15 00 00 00
	00		 mov	 edx, DWORD PTR ?__LINE__Var@?0??create_troop_patrol_tasks@@YGXXZ@4JA
  005ce	83 c2 44	 add	 edx, 68			; 00000044H
  005d1	52		 push	 edx
  005d2	68 00 00 00 00	 push	 OFFSET ??_C@_0ED@GMECMFKH@c?3?2users?2nhv90?2projects?2eech?2ap@
  005d7	a1 00 00 00 00	 mov	 eax, DWORD PTR ?null_entity_pointer_message@@3PBDB ; null_entity_pointer_message
  005dc	50		 push	 eax
  005dd	e8 00 00 00 00	 call	 ?process_assert@@YGXPBD0H@Z ; process_assert
  005e2	c7 45 a8 00 00
	00 00		 mov	 DWORD PTR tv326[ebp], 0
$LN59@create_tro:
  005e9	b9 01 00 00 00	 mov	 ecx, 1
  005ee	85 c9		 test	 ecx, ecx
  005f0	74 09		 je	 SHORT $LN60@create_tro
  005f2	c7 45 a4 0e 00
	00 00		 mov	 DWORD PTR tv334[ebp], 14 ; 0000000eH
  005f9	eb 21		 jmp	 SHORT $LN61@create_tro
$LN60@create_tro:
  005fb	8b 15 00 00 00
	00		 mov	 edx, DWORD PTR ?__LINE__Var@?0??create_troop_patrol_tasks@@YGXXZ@4JA
  00601	83 c2 44	 add	 edx, 68			; 00000044H
  00604	52		 push	 edx
  00605	68 00 00 00 00	 push	 OFFSET ??_C@_0ED@GMECMFKH@c?3?2users?2nhv90?2projects?2eech?2ap@
  0060a	a1 00 00 00 00	 mov	 eax, DWORD PTR ?overload_invalid_list_type_message@@3PBDB ; overload_invalid_list_type_message
  0060f	50		 push	 eax
  00610	e8 00 00 00 00	 call	 ?process_assert@@YGXPBD0H@Z ; process_assert
  00615	c7 45 a4 00 00
	00 00		 mov	 DWORD PTR tv334[ebp], 0
$LN61@create_tro:
  0061c	6a 0e		 push	 14			; 0000000eH
  0061e	8b 4d f0	 mov	 ecx, DWORD PTR _force$[ebp]
  00621	51		 push	 ecx
  00622	69 55 a8 b4 00
	00 00		 imul	 edx, DWORD PTR tv326[ebp], 180
  00629	8b 45 a4	 mov	 eax, DWORD PTR tv334[ebp]
  0062c	8b 8c 82 00 00
	00 00		 mov	 ecx, DWORD PTR ?fn_get_local_entity_child_succ@@3PAY0CN@P6GPAUENTITY@@PAU1@W4LIST_TYPES@@@ZA[edx+eax*4]
  00633	ff d1		 call	 ecx
  00635	89 45 f0	 mov	 DWORD PTR _force$[ebp], eax

; 2729 : 	}

  00638	e9 54 fa ff ff	 jmp	 $LN2@create_tro
$LN1@create_tro:

; 2730 : }

  0063d	5f		 pop	 edi
  0063e	5e		 pop	 esi
  0063f	5b		 pop	 ebx
  00640	8b e5		 mov	 esp, ebp
  00642	5d		 pop	 ebp
  00643	c3		 ret	 0
?create_troop_patrol_tasks@@YGXXZ ENDP			; create_troop_patrol_tasks
_TEXT	ENDS
; Function compile flags: /Odtp /ZI
; File c:\users\nhv90\projects\eech\aphavoc\source\ai\highlevl\highlevl.c
;	COMDAT ?create_helicopter_transfer_tasks@@YGXXZ
_TEXT	SEGMENT
tv496 = -172						; size = 4
tv488 = -168						; size = 4
tv522 = -164						; size = 4
tv471 = -164						; size = 4
tv397 = -164						; size = 4
tv323 = -164						; size = 4
tv303 = -164						; size = 4
tv279 = -164						; size = 4
tv257 = -164						; size = 4
tv236 = -164						; size = 4
tv206 = -164						; size = 4
tv187 = -164						; size = 4
tv167 = -164						; size = 4
tv145 = -164						; size = 4
tv86 = -164						; size = 4
tv514 = -160						; size = 4
tv463 = -160						; size = 4
tv389 = -160						; size = 4
tv315 = -160						; size = 4
tv295 = -160						; size = 4
tv272 = -160						; size = 4
tv249 = -160						; size = 4
tv228 = -160						; size = 4
tv199 = -160						; size = 4
tv180 = -160						; size = 4
tv159 = -160						; size = 4
tv152 = -160						; size = 4
tv137 = -160						; size = 4
tv78 = -160						; size = 4
$T1 = -156						; size = 4
$T2 = -152						; size = 4
$T3 = -148						; size = 4
_max_rating$ = -80					; size = 4
_idle_group_count$ = -76				; size = 4
_rating$ = -72						; size = 4
_priority$ = -68					; size = 4
_keysite_count$ = -64					; size = 4
_group_type$ = -60					; size = 4
_count$ = -56						; size = 4
_loop2$ = -52						; size = 4
_loop$ = -48						; size = 4
_z$ = -44						; size = 4
_x$ = -40						; size = 4
_pos$ = -36						; size = 4
_landing_raw$ = -32					; size = 4
_landing_en$ = -28					; size = 4
_donar$ = -24						; size = 4
_keysite$ = -20						; size = 4
_group$ = -16						; size = 4
_force$ = -12						; size = 4
_this_side$ = -8					; size = 4
_side$ = -4						; size = 4
?create_helicopter_transfer_tasks@@YGXXZ PROC		; create_helicopter_transfer_tasks, COMDAT

; 2319 : {

  00000	55		 push	 ebp
  00001	8b ec		 mov	 ebp, esp
  00003	81 ec ac 00 00
	00		 sub	 esp, 172		; 000000acH
  00009	53		 push	 ebx
  0000a	56		 push	 esi
  0000b	57		 push	 edi

; 2320 : 	entity_sides
; 2321 : 		side,
; 2322 : 		this_side;
; 2323 : 
; 2324 : 	entity
; 2325 : 		*force,
; 2326 : 		*group,
; 2327 : 		*keysite,
; 2328 : 		*donar,
; 2329 : 		*landing_en;
; 2330 : 
; 2331 : 	landing
; 2332 : 		*landing_raw;
; 2333 : 
; 2334 : 	vec3d
; 2335 : 		*pos;
; 2336 : 
; 2337 : 	int
; 2338 : 		x,
; 2339 : 		z,
; 2340 : 		loop,
; 2341 : 		loop2,
; 2342 : 		count,
; 2343 : 		group_type,
; 2344 : 		keysite_count;
; 2345 : 
; 2346 : 	float
; 2347 : 		priority,
; 2348 : 		rating,
; 2349 : 		idle_group_count,
; 2350 : 		max_rating;
; 2351 : 
; 2352 : 	ASSERT (get_comms_model () == COMMS_MODEL_SERVER);

  0000c	83 3d 00 00 00
	00 00		 cmp	 DWORD PTR ?system_comms_model@@3W4COMMS_MODEL_TYPES@@A, 0 ; system_comms_model
  00013	74 18		 je	 SHORT $LN11@create_hel
  00015	a1 00 00 00 00	 mov	 eax, DWORD PTR ?__LINE__Var@?0??create_helicopter_transfer_tasks@@YGXXZ@4JA
  0001a	83 c0 21	 add	 eax, 33			; 00000021H
  0001d	50		 push	 eax
  0001e	68 00 00 00 00	 push	 OFFSET ??_C@_0ED@GMECMFKH@c?3?2users?2nhv90?2projects?2eech?2ap@
  00023	68 00 00 00 00	 push	 OFFSET ??_C@_0CJ@DMBLBJBK@get_comms_model?5?$CI?$CJ?5?$DN?$DN?5COMMS_MOD@
  00028	e8 00 00 00 00	 call	 ?process_assert@@YGXPBD0H@Z ; process_assert
$LN11@create_hel:

; 2353 : 
; 2354 : 	ai_log ("==========================");

  0002d	68 00 00 00 00	 push	 OFFSET ??_C@_0BL@EBIHNBEK@?$DN?$DN?$DN?$DN?$DN?$DN?$DN?$DN?$DN?$DN?$DN?$DN?$DN?$DN?$DN?$DN?$DN?$DN?$DN?$DN?$DN?$DN?$DN?$DN?$DN?$DN@
  00032	e8 00 00 00 00	 call	 ?ai_log@@YAXPBDZZ	; ai_log
  00037	83 c4 04	 add	 esp, 4

; 2355 : 	ai_log ("CREATE TRANSFER (HC) TASKS");

  0003a	68 00 00 00 00	 push	 OFFSET ??_C@_0BL@CDEAJFBK@CREATE?5TRANSFER?5?$CIHC?$CJ?5TASKS@
  0003f	e8 00 00 00 00	 call	 ?ai_log@@YAXPBDZZ	; ai_log
  00044	83 c4 04	 add	 esp, 4

; 2356 : 	ai_log ("--------------------------");

  00047	68 00 00 00 00	 push	 OFFSET ??_C@_0BL@JMBEPNBE@?9?9?9?9?9?9?9?9?9?9?9?9?9?9?9?9?9?9?9?9?9?9?9?9?9?9@
  0004c	e8 00 00 00 00	 call	 ?ai_log@@YAXPBDZZ	; ai_log
  00051	83 c4 04	 add	 esp, 4

; 2357 : 
; 2358 : 	force = get_local_entity_first_child (get_session_entity (), LIST_TYPE_FORCE);

  00054	83 3d 00 00 00
	00 00		 cmp	 DWORD PTR ?session_entity@@3PAUENTITY@@A, 0 ; session_entity
  0005b	74 0f		 je	 SHORT $LN24@create_hel
  0005d	a1 00 00 00 00	 mov	 eax, DWORD PTR ?session_entity@@3PAUENTITY@@A ; session_entity
  00062	8b 08		 mov	 ecx, DWORD PTR [eax]
  00064	89 8d 60 ff ff
	ff		 mov	 DWORD PTR tv78[ebp], ecx
  0006a	eb 24		 jmp	 SHORT $LN25@create_hel
$LN24@create_hel:
  0006c	8b 15 00 00 00
	00		 mov	 edx, DWORD PTR ?__LINE__Var@?0??create_helicopter_transfer_tasks@@YGXXZ@4JA
  00072	83 c2 27	 add	 edx, 39			; 00000027H
  00075	52		 push	 edx
  00076	68 00 00 00 00	 push	 OFFSET ??_C@_0ED@GMECMFKH@c?3?2users?2nhv90?2projects?2eech?2ap@
  0007b	a1 00 00 00 00	 mov	 eax, DWORD PTR ?null_entity_pointer_message@@3PBDB ; null_entity_pointer_message
  00080	50		 push	 eax
  00081	e8 00 00 00 00	 call	 ?process_assert@@YGXPBD0H@Z ; process_assert
  00086	c7 85 60 ff ff
	ff 00 00 00 00	 mov	 DWORD PTR tv78[ebp], 0
$LN25@create_hel:
  00090	b9 01 00 00 00	 mov	 ecx, 1
  00095	85 c9		 test	 ecx, ecx
  00097	74 0c		 je	 SHORT $LN26@create_hel
  00099	c7 85 5c ff ff
	ff 0e 00 00 00	 mov	 DWORD PTR tv86[ebp], 14	; 0000000eH
  000a3	eb 24		 jmp	 SHORT $LN27@create_hel
$LN26@create_hel:
  000a5	8b 15 00 00 00
	00		 mov	 edx, DWORD PTR ?__LINE__Var@?0??create_helicopter_transfer_tasks@@YGXXZ@4JA
  000ab	83 c2 27	 add	 edx, 39			; 00000027H
  000ae	52		 push	 edx
  000af	68 00 00 00 00	 push	 OFFSET ??_C@_0ED@GMECMFKH@c?3?2users?2nhv90?2projects?2eech?2ap@
  000b4	a1 00 00 00 00	 mov	 eax, DWORD PTR ?overload_invalid_list_type_message@@3PBDB ; overload_invalid_list_type_message
  000b9	50		 push	 eax
  000ba	e8 00 00 00 00	 call	 ?process_assert@@YGXPBD0H@Z ; process_assert
  000bf	c7 85 5c ff ff
	ff 00 00 00 00	 mov	 DWORD PTR tv86[ebp], 0
$LN27@create_hel:
  000c9	6a 0e		 push	 14			; 0000000eH
  000cb	8b 0d 00 00 00
	00		 mov	 ecx, DWORD PTR ?session_entity@@3PAUENTITY@@A ; session_entity
  000d1	51		 push	 ecx
  000d2	69 95 60 ff ff
	ff b4 00 00 00	 imul	 edx, DWORD PTR tv78[ebp], 180
  000dc	8b 85 5c ff ff
	ff		 mov	 eax, DWORD PTR tv86[ebp]
  000e2	8b 8c 82 00 00
	00 00		 mov	 ecx, DWORD PTR ?fn_get_local_entity_first_child@@3PAY0CN@P6GPAUENTITY@@PAU1@W4LIST_TYPES@@@ZA[edx+eax*4]
  000e9	ff d1		 call	 ecx
  000eb	89 45 f4	 mov	 DWORD PTR _force$[ebp], eax
$LN2@create_hel:

; 2359 : 
; 2360 : 	while (force)

  000ee	83 7d f4 00	 cmp	 DWORD PTR _force$[ebp], 0
  000f2	0f 84 62 0b 00
	00		 je	 $LN3@create_hel

; 2361 : 	{
; 2362 : 		//
; 2363 : 		// for each force spin through the list of keysites and select ones in most need of transfer
; 2364 : 		//
; 2365 : 	
; 2366 : 		memset (target_list, 0, sizeof (entity *) * MAX_HIGHLEVEL_TARGET_CHECKS);

  000f8	68 80 02 00 00	 push	 640			; 00000280H
  000fd	6a 00		 push	 0
  000ff	68 00 00 00 00	 push	 OFFSET ?target_list@@3PAPAUENTITY@@A
  00104	e8 00 00 00 00	 call	 _memset
  00109	83 c4 0c	 add	 esp, 12			; 0000000cH

; 2367 : 
; 2368 : 		memset (target_rating, 0, sizeof (float) * MAX_HIGHLEVEL_TARGET_CHECKS);

  0010c	68 80 02 00 00	 push	 640			; 00000280H
  00111	6a 00		 push	 0
  00113	68 00 00 00 00	 push	 OFFSET ?target_rating@@3PAMA
  00118	e8 00 00 00 00	 call	 _memset
  0011d	83 c4 0c	 add	 esp, 12			; 0000000cH

; 2369 : 
; 2370 : 		count = 0;

  00120	c7 45 c8 00 00
	00 00		 mov	 DWORD PTR _count$[ebp], 0

; 2371 : 
; 2372 : 		this_side = (entity_sides) get_local_entity_int_value (force, INT_TYPE_SIDE);

  00127	83 7d f4 00	 cmp	 DWORD PTR _force$[ebp], 0
  0012b	74 0d		 je	 SHORT $LN28@create_hel
  0012d	8b 45 f4	 mov	 eax, DWORD PTR _force$[ebp]
  00130	8b 08		 mov	 ecx, DWORD PTR [eax]
  00132	89 8d 60 ff ff
	ff		 mov	 DWORD PTR tv137[ebp], ecx
  00138	eb 24		 jmp	 SHORT $LN29@create_hel
$LN28@create_hel:
  0013a	8b 15 00 00 00
	00		 mov	 edx, DWORD PTR ?__LINE__Var@?0??create_helicopter_transfer_tasks@@YGXXZ@4JA
  00140	83 c2 35	 add	 edx, 53			; 00000035H
  00143	52		 push	 edx
  00144	68 00 00 00 00	 push	 OFFSET ??_C@_0ED@GMECMFKH@c?3?2users?2nhv90?2projects?2eech?2ap@
  00149	a1 00 00 00 00	 mov	 eax, DWORD PTR ?null_entity_pointer_message@@3PBDB ; null_entity_pointer_message
  0014e	50		 push	 eax
  0014f	e8 00 00 00 00	 call	 ?process_assert@@YGXPBD0H@Z ; process_assert
  00154	c7 85 60 ff ff
	ff 00 00 00 00	 mov	 DWORD PTR tv137[ebp], 0
$LN29@create_hel:
  0015e	b9 01 00 00 00	 mov	 ecx, 1
  00163	85 c9		 test	 ecx, ecx
  00165	74 0c		 je	 SHORT $LN30@create_hel
  00167	c7 85 5c ff ff
	ff bb 00 00 00	 mov	 DWORD PTR tv145[ebp], 187 ; 000000bbH
  00171	eb 24		 jmp	 SHORT $LN31@create_hel
$LN30@create_hel:
  00173	8b 15 00 00 00
	00		 mov	 edx, DWORD PTR ?__LINE__Var@?0??create_helicopter_transfer_tasks@@YGXXZ@4JA
  00179	83 c2 35	 add	 edx, 53			; 00000035H
  0017c	52		 push	 edx
  0017d	68 00 00 00 00	 push	 OFFSET ??_C@_0ED@GMECMFKH@c?3?2users?2nhv90?2projects?2eech?2ap@
  00182	a1 00 00 00 00	 mov	 eax, DWORD PTR ?overload_invalid_int_type_message@@3PBDB ; overload_invalid_int_type_message
  00187	50		 push	 eax
  00188	e8 00 00 00 00	 call	 ?process_assert@@YGXPBD0H@Z ; process_assert
  0018d	c7 85 5c ff ff
	ff 00 00 00 00	 mov	 DWORD PTR tv145[ebp], 0
$LN31@create_hel:
  00197	68 bb 00 00 00	 push	 187			; 000000bbH
  0019c	8b 4d f4	 mov	 ecx, DWORD PTR _force$[ebp]
  0019f	51		 push	 ecx
  001a0	69 95 60 ff ff
	ff 5c 04 00 00	 imul	 edx, DWORD PTR tv137[ebp], 1116
  001aa	8b 85 5c ff ff
	ff		 mov	 eax, DWORD PTR tv145[ebp]
  001b0	8b 8c 82 00 00
	00 00		 mov	 ecx, DWORD PTR ?fn_get_local_entity_int_value@@3PAY0BBH@P6GHPAUENTITY@@W4INT_TYPES@@@ZA[edx+eax*4]
  001b7	ff d1		 call	 ecx
  001b9	89 45 f8	 mov	 DWORD PTR _this_side$[ebp], eax

; 2373 : 
; 2374 : 		side = get_enemy_side (this_side);

  001bc	83 7d f8 01	 cmp	 DWORD PTR _this_side$[ebp], 1
  001c0	75 0c		 jne	 SHORT $LN32@create_hel
  001c2	c7 85 60 ff ff
	ff 02 00 00 00	 mov	 DWORD PTR tv152[ebp], 2
  001cc	eb 0a		 jmp	 SHORT $LN33@create_hel
$LN32@create_hel:
  001ce	c7 85 60 ff ff
	ff 01 00 00 00	 mov	 DWORD PTR tv152[ebp], 1
$LN33@create_hel:
  001d8	8b 85 60 ff ff
	ff		 mov	 eax, DWORD PTR tv152[ebp]
  001de	89 45 fc	 mov	 DWORD PTR _side$[ebp], eax

; 2375 : 	
; 2376 : 		keysite = get_local_entity_first_child (force, LIST_TYPE_KEYSITE_FORCE);

  001e1	83 7d f4 00	 cmp	 DWORD PTR _force$[ebp], 0
  001e5	74 0d		 je	 SHORT $LN34@create_hel
  001e7	8b 45 f4	 mov	 eax, DWORD PTR _force$[ebp]
  001ea	8b 08		 mov	 ecx, DWORD PTR [eax]
  001ec	89 8d 60 ff ff
	ff		 mov	 DWORD PTR tv159[ebp], ecx
  001f2	eb 24		 jmp	 SHORT $LN35@create_hel
$LN34@create_hel:
  001f4	8b 15 00 00 00
	00		 mov	 edx, DWORD PTR ?__LINE__Var@?0??create_helicopter_transfer_tasks@@YGXXZ@4JA
  001fa	83 c2 39	 add	 edx, 57			; 00000039H
  001fd	52		 push	 edx
  001fe	68 00 00 00 00	 push	 OFFSET ??_C@_0ED@GMECMFKH@c?3?2users?2nhv90?2projects?2eech?2ap@
  00203	a1 00 00 00 00	 mov	 eax, DWORD PTR ?null_entity_pointer_message@@3PBDB ; null_entity_pointer_message
  00208	50		 push	 eax
  00209	e8 00 00 00 00	 call	 ?process_assert@@YGXPBD0H@Z ; process_assert
  0020e	c7 85 60 ff ff
	ff 00 00 00 00	 mov	 DWORD PTR tv159[ebp], 0
$LN35@create_hel:
  00218	b9 01 00 00 00	 mov	 ecx, 1
  0021d	85 c9		 test	 ecx, ecx
  0021f	74 0c		 je	 SHORT $LN36@create_hel
  00221	c7 85 5c ff ff
	ff 15 00 00 00	 mov	 DWORD PTR tv167[ebp], 21 ; 00000015H
  0022b	eb 24		 jmp	 SHORT $LN37@create_hel
$LN36@create_hel:
  0022d	8b 15 00 00 00
	00		 mov	 edx, DWORD PTR ?__LINE__Var@?0??create_helicopter_transfer_tasks@@YGXXZ@4JA
  00233	83 c2 39	 add	 edx, 57			; 00000039H
  00236	52		 push	 edx
  00237	68 00 00 00 00	 push	 OFFSET ??_C@_0ED@GMECMFKH@c?3?2users?2nhv90?2projects?2eech?2ap@
  0023c	a1 00 00 00 00	 mov	 eax, DWORD PTR ?overload_invalid_list_type_message@@3PBDB ; overload_invalid_list_type_message
  00241	50		 push	 eax
  00242	e8 00 00 00 00	 call	 ?process_assert@@YGXPBD0H@Z ; process_assert
  00247	c7 85 5c ff ff
	ff 00 00 00 00	 mov	 DWORD PTR tv167[ebp], 0
$LN37@create_hel:
  00251	6a 15		 push	 21			; 00000015H
  00253	8b 4d f4	 mov	 ecx, DWORD PTR _force$[ebp]
  00256	51		 push	 ecx
  00257	69 95 60 ff ff
	ff b4 00 00 00	 imul	 edx, DWORD PTR tv159[ebp], 180
  00261	8b 85 5c ff ff
	ff		 mov	 eax, DWORD PTR tv167[ebp]
  00267	8b 8c 82 00 00
	00 00		 mov	 ecx, DWORD PTR ?fn_get_local_entity_first_child@@3PAY0CN@P6GPAUENTITY@@PAU1@W4LIST_TYPES@@@ZA[edx+eax*4]
  0026e	ff d1		 call	 ecx
  00270	89 45 ec	 mov	 DWORD PTR _keysite$[ebp], eax
$LN4@create_hel:

; 2377 : 	
; 2378 : 		while ((keysite) && (count < MAX_HIGHLEVEL_TARGET_CHECKS))

  00273	83 7d ec 00	 cmp	 DWORD PTR _keysite$[ebp], 0
  00277	0f 84 82 06 00
	00		 je	 $LN5@create_hel
  0027d	81 7d c8 a0 00
	00 00		 cmp	 DWORD PTR _count$[ebp], 160 ; 000000a0H
  00284	0f 8d 75 06 00
	00		 jge	 $LN5@create_hel

; 2379 : 		{
; 2380 : 			if (get_local_entity_int_value (keysite, INT_TYPE_IN_USE))

  0028a	83 7d ec 00	 cmp	 DWORD PTR _keysite$[ebp], 0
  0028e	74 0d		 je	 SHORT $LN38@create_hel
  00290	8b 45 ec	 mov	 eax, DWORD PTR _keysite$[ebp]
  00293	8b 08		 mov	 ecx, DWORD PTR [eax]
  00295	89 8d 60 ff ff
	ff		 mov	 DWORD PTR tv180[ebp], ecx
  0029b	eb 20		 jmp	 SHORT $LN39@create_hel
$LN38@create_hel:
  0029d	68 4c 09 00 00	 push	 2380			; 0000094cH
  002a2	68 00 00 00 00	 push	 OFFSET ??_C@_0ED@GMECMFKH@c?3?2users?2nhv90?2projects?2eech?2ap@
  002a7	8b 15 00 00 00
	00		 mov	 edx, DWORD PTR ?null_entity_pointer_message@@3PBDB ; null_entity_pointer_message
  002ad	52		 push	 edx
  002ae	e8 00 00 00 00	 call	 ?process_assert@@YGXPBD0H@Z ; process_assert
  002b3	c7 85 60 ff ff
	ff 00 00 00 00	 mov	 DWORD PTR tv180[ebp], 0
$LN39@create_hel:
  002bd	b8 01 00 00 00	 mov	 eax, 1
  002c2	85 c0		 test	 eax, eax
  002c4	74 0c		 je	 SHORT $LN40@create_hel
  002c6	c7 85 5c ff ff
	ff 6d 00 00 00	 mov	 DWORD PTR tv187[ebp], 109 ; 0000006dH
  002d0	eb 20		 jmp	 SHORT $LN41@create_hel
$LN40@create_hel:
  002d2	68 4c 09 00 00	 push	 2380			; 0000094cH
  002d7	68 00 00 00 00	 push	 OFFSET ??_C@_0ED@GMECMFKH@c?3?2users?2nhv90?2projects?2eech?2ap@
  002dc	8b 0d 00 00 00
	00		 mov	 ecx, DWORD PTR ?overload_invalid_int_type_message@@3PBDB ; overload_invalid_int_type_message
  002e2	51		 push	 ecx
  002e3	e8 00 00 00 00	 call	 ?process_assert@@YGXPBD0H@Z ; process_assert
  002e8	c7 85 5c ff ff
	ff 00 00 00 00	 mov	 DWORD PTR tv187[ebp], 0
$LN41@create_hel:
  002f2	6a 6d		 push	 109			; 0000006dH
  002f4	8b 55 ec	 mov	 edx, DWORD PTR _keysite$[ebp]
  002f7	52		 push	 edx
  002f8	69 85 60 ff ff
	ff 5c 04 00 00	 imul	 eax, DWORD PTR tv180[ebp], 1116
  00302	8b 8d 5c ff ff
	ff		 mov	 ecx, DWORD PTR tv187[ebp]
  00308	8b 94 88 00 00
	00 00		 mov	 edx, DWORD PTR ?fn_get_local_entity_int_value@@3PAY0BBH@P6GHPAUENTITY@@W4INT_TYPES@@@ZA[eax+ecx*4]
  0030f	ff d2		 call	 edx
  00311	85 c0		 test	 eax, eax
  00313	0f 84 49 05 00
	00		 je	 $LN18@create_hel

; 2381 : 			{
; 2382 : 				if (get_local_entity_int_value (keysite, INT_TYPE_KEYSITE_USABLE_STATE) == KEYSITE_STATE_USABLE)

  00319	83 7d ec 00	 cmp	 DWORD PTR _keysite$[ebp], 0
  0031d	74 0d		 je	 SHORT $LN42@create_hel
  0031f	8b 45 ec	 mov	 eax, DWORD PTR _keysite$[ebp]
  00322	8b 08		 mov	 ecx, DWORD PTR [eax]
  00324	89 8d 60 ff ff
	ff		 mov	 DWORD PTR tv199[ebp], ecx
  0032a	eb 20		 jmp	 SHORT $LN43@create_hel
$LN42@create_hel:
  0032c	68 4e 09 00 00	 push	 2382			; 0000094eH
  00331	68 00 00 00 00	 push	 OFFSET ??_C@_0ED@GMECMFKH@c?3?2users?2nhv90?2projects?2eech?2ap@
  00336	8b 15 00 00 00
	00		 mov	 edx, DWORD PTR ?null_entity_pointer_message@@3PBDB ; null_entity_pointer_message
  0033c	52		 push	 edx
  0033d	e8 00 00 00 00	 call	 ?process_assert@@YGXPBD0H@Z ; process_assert
  00342	c7 85 60 ff ff
	ff 00 00 00 00	 mov	 DWORD PTR tv199[ebp], 0
$LN43@create_hel:
  0034c	b8 01 00 00 00	 mov	 eax, 1
  00351	85 c0		 test	 eax, eax
  00353	74 0c		 je	 SHORT $LN44@create_hel
  00355	c7 85 5c ff ff
	ff 70 00 00 00	 mov	 DWORD PTR tv206[ebp], 112 ; 00000070H
  0035f	eb 20		 jmp	 SHORT $LN45@create_hel
$LN44@create_hel:
  00361	68 4e 09 00 00	 push	 2382			; 0000094eH
  00366	68 00 00 00 00	 push	 OFFSET ??_C@_0ED@GMECMFKH@c?3?2users?2nhv90?2projects?2eech?2ap@
  0036b	8b 0d 00 00 00
	00		 mov	 ecx, DWORD PTR ?overload_invalid_int_type_message@@3PBDB ; overload_invalid_int_type_message
  00371	51		 push	 ecx
  00372	e8 00 00 00 00	 call	 ?process_assert@@YGXPBD0H@Z ; process_assert
  00377	c7 85 5c ff ff
	ff 00 00 00 00	 mov	 DWORD PTR tv206[ebp], 0
$LN45@create_hel:
  00381	6a 70		 push	 112			; 00000070H
  00383	8b 55 ec	 mov	 edx, DWORD PTR _keysite$[ebp]
  00386	52		 push	 edx
  00387	69 85 60 ff ff
	ff 5c 04 00 00	 imul	 eax, DWORD PTR tv199[ebp], 1116
  00391	8b 8d 5c ff ff
	ff		 mov	 ecx, DWORD PTR tv206[ebp]
  00397	8b 94 88 00 00
	00 00		 mov	 edx, DWORD PTR ?fn_get_local_entity_int_value@@3PAY0BBH@P6GHPAUENTITY@@W4INT_TYPES@@@ZA[eax+ecx*4]
  0039e	ff d2		 call	 edx
  003a0	85 c0		 test	 eax, eax
  003a2	0f 85 ba 04 00
	00		 jne	 $LN18@create_hel

; 2383 : 				{
; 2384 : 					if (get_local_entity_landing_entity (keysite, ENTITY_SUB_TYPE_LANDING_HELICOPTER))

  003a8	6a 02		 push	 2
  003aa	8b 45 ec	 mov	 eax, DWORD PTR _keysite$[ebp]
  003ad	50		 push	 eax
  003ae	e8 00 00 00 00	 call	 ?get_local_entity_landing_entity@@YGPAUENTITY@@PAU1@H@Z ; get_local_entity_landing_entity
  003b3	85 c0		 test	 eax, eax
  003b5	0f 84 a7 04 00
	00		 je	 $LN18@create_hel

; 2385 : 					{
; 2386 : 						ASSERT (count < MAX_HIGHLEVEL_TARGET_CHECKS);

  003bb	81 7d c8 a0 00
	00 00		 cmp	 DWORD PTR _count$[ebp], 160 ; 000000a0H
  003c2	7c 18		 jl	 SHORT $LN15@create_hel
  003c4	a1 00 00 00 00	 mov	 eax, DWORD PTR ?__LINE__Var@?0??create_helicopter_transfer_tasks@@YGXXZ@4JA
  003c9	83 c0 43	 add	 eax, 67			; 00000043H
  003cc	50		 push	 eax
  003cd	68 00 00 00 00	 push	 OFFSET ??_C@_0ED@GMECMFKH@c?3?2users?2nhv90?2projects?2eech?2ap@
  003d2	68 00 00 00 00	 push	 OFFSET ??_C@_0CE@FGAKBBGH@count?5?$DM?5MAX_HIGHLEVEL_TARGET_CH@
  003d7	e8 00 00 00 00	 call	 ?process_assert@@YGXPBD0H@Z ; process_assert
$LN15@create_hel:

; 2387 : 	
; 2388 : 						//
; 2389 : 						// Check group count
; 2390 : 						//
; 2391 : 	
; 2392 : 						idle_group_count = 0.0;

  003dc	0f 57 c0	 xorps	 xmm0, xmm0
  003df	f3 0f 11 45 b4	 movss	 DWORD PTR _idle_group_count$[ebp], xmm0

; 2393 : 	
; 2394 : 						group = get_local_entity_first_child (keysite, LIST_TYPE_KEYSITE_GROUP);

  003e4	83 7d ec 00	 cmp	 DWORD PTR _keysite$[ebp], 0
  003e8	74 0d		 je	 SHORT $LN46@create_hel
  003ea	8b 45 ec	 mov	 eax, DWORD PTR _keysite$[ebp]
  003ed	8b 08		 mov	 ecx, DWORD PTR [eax]
  003ef	89 8d 60 ff ff
	ff		 mov	 DWORD PTR tv228[ebp], ecx
  003f5	eb 24		 jmp	 SHORT $LN47@create_hel
$LN46@create_hel:
  003f7	8b 15 00 00 00
	00		 mov	 edx, DWORD PTR ?__LINE__Var@?0??create_helicopter_transfer_tasks@@YGXXZ@4JA
  003fd	83 c2 4b	 add	 edx, 75			; 0000004bH
  00400	52		 push	 edx
  00401	68 00 00 00 00	 push	 OFFSET ??_C@_0ED@GMECMFKH@c?3?2users?2nhv90?2projects?2eech?2ap@
  00406	a1 00 00 00 00	 mov	 eax, DWORD PTR ?null_entity_pointer_message@@3PBDB ; null_entity_pointer_message
  0040b	50		 push	 eax
  0040c	e8 00 00 00 00	 call	 ?process_assert@@YGXPBD0H@Z ; process_assert
  00411	c7 85 60 ff ff
	ff 00 00 00 00	 mov	 DWORD PTR tv228[ebp], 0
$LN47@create_hel:
  0041b	b9 01 00 00 00	 mov	 ecx, 1
  00420	85 c9		 test	 ecx, ecx
  00422	74 0c		 je	 SHORT $LN48@create_hel
  00424	c7 85 5c ff ff
	ff 16 00 00 00	 mov	 DWORD PTR tv236[ebp], 22 ; 00000016H
  0042e	eb 24		 jmp	 SHORT $LN49@create_hel
$LN48@create_hel:
  00430	8b 15 00 00 00
	00		 mov	 edx, DWORD PTR ?__LINE__Var@?0??create_helicopter_transfer_tasks@@YGXXZ@4JA
  00436	83 c2 4b	 add	 edx, 75			; 0000004bH
  00439	52		 push	 edx
  0043a	68 00 00 00 00	 push	 OFFSET ??_C@_0ED@GMECMFKH@c?3?2users?2nhv90?2projects?2eech?2ap@
  0043f	a1 00 00 00 00	 mov	 eax, DWORD PTR ?overload_invalid_list_type_message@@3PBDB ; overload_invalid_list_type_message
  00444	50		 push	 eax
  00445	e8 00 00 00 00	 call	 ?process_assert@@YGXPBD0H@Z ; process_assert
  0044a	c7 85 5c ff ff
	ff 00 00 00 00	 mov	 DWORD PTR tv236[ebp], 0
$LN49@create_hel:
  00454	6a 16		 push	 22			; 00000016H
  00456	8b 4d ec	 mov	 ecx, DWORD PTR _keysite$[ebp]
  00459	51		 push	 ecx
  0045a	69 95 60 ff ff
	ff b4 00 00 00	 imul	 edx, DWORD PTR tv228[ebp], 180
  00464	8b 85 5c ff ff
	ff		 mov	 eax, DWORD PTR tv236[ebp]
  0046a	8b 8c 82 00 00
	00 00		 mov	 ecx, DWORD PTR ?fn_get_local_entity_first_child@@3PAY0CN@P6GPAUENTITY@@PAU1@W4LIST_TYPES@@@ZA[edx+eax*4]
  00471	ff d1		 call	 ecx
  00473	89 45 f0	 mov	 DWORD PTR _group$[ebp], eax
$LN6@create_hel:

; 2395 : 	
; 2396 : 						while (group)

  00476	83 7d f0 00	 cmp	 DWORD PTR _group$[ebp], 0
  0047a	0f 84 db 01 00
	00		 je	 $LN7@create_hel

; 2397 : 						{
; 2398 : 							group_type = get_local_entity_int_value (group, INT_TYPE_ENTITY_SUB_TYPE);

  00480	83 7d f0 00	 cmp	 DWORD PTR _group$[ebp], 0
  00484	74 0d		 je	 SHORT $LN50@create_hel
  00486	8b 45 f0	 mov	 eax, DWORD PTR _group$[ebp]
  00489	8b 08		 mov	 ecx, DWORD PTR [eax]
  0048b	89 8d 60 ff ff
	ff		 mov	 DWORD PTR tv249[ebp], ecx
  00491	eb 24		 jmp	 SHORT $LN51@create_hel
$LN50@create_hel:
  00493	8b 15 00 00 00
	00		 mov	 edx, DWORD PTR ?__LINE__Var@?0??create_helicopter_transfer_tasks@@YGXXZ@4JA
  00499	83 c2 4f	 add	 edx, 79			; 0000004fH
  0049c	52		 push	 edx
  0049d	68 00 00 00 00	 push	 OFFSET ??_C@_0ED@GMECMFKH@c?3?2users?2nhv90?2projects?2eech?2ap@
  004a2	a1 00 00 00 00	 mov	 eax, DWORD PTR ?null_entity_pointer_message@@3PBDB ; null_entity_pointer_message
  004a7	50		 push	 eax
  004a8	e8 00 00 00 00	 call	 ?process_assert@@YGXPBD0H@Z ; process_assert
  004ad	c7 85 60 ff ff
	ff 00 00 00 00	 mov	 DWORD PTR tv249[ebp], 0
$LN51@create_hel:
  004b7	b9 01 00 00 00	 mov	 ecx, 1
  004bc	85 c9		 test	 ecx, ecx
  004be	74 0c		 je	 SHORT $LN52@create_hel
  004c0	c7 85 5c ff ff
	ff 34 00 00 00	 mov	 DWORD PTR tv257[ebp], 52 ; 00000034H
  004ca	eb 24		 jmp	 SHORT $LN53@create_hel
$LN52@create_hel:
  004cc	8b 15 00 00 00
	00		 mov	 edx, DWORD PTR ?__LINE__Var@?0??create_helicopter_transfer_tasks@@YGXXZ@4JA
  004d2	83 c2 4f	 add	 edx, 79			; 0000004fH
  004d5	52		 push	 edx
  004d6	68 00 00 00 00	 push	 OFFSET ??_C@_0ED@GMECMFKH@c?3?2users?2nhv90?2projects?2eech?2ap@
  004db	a1 00 00 00 00	 mov	 eax, DWORD PTR ?overload_invalid_int_type_message@@3PBDB ; overload_invalid_int_type_message
  004e0	50		 push	 eax
  004e1	e8 00 00 00 00	 call	 ?process_assert@@YGXPBD0H@Z ; process_assert
  004e6	c7 85 5c ff ff
	ff 00 00 00 00	 mov	 DWORD PTR tv257[ebp], 0
$LN53@create_hel:
  004f0	6a 34		 push	 52			; 00000034H
  004f2	8b 4d f0	 mov	 ecx, DWORD PTR _group$[ebp]
  004f5	51		 push	 ecx
  004f6	69 95 60 ff ff
	ff 5c 04 00 00	 imul	 edx, DWORD PTR tv249[ebp], 1116
  00500	8b 85 5c ff ff
	ff		 mov	 eax, DWORD PTR tv257[ebp]
  00506	8b 8c 82 00 00
	00 00		 mov	 ecx, DWORD PTR ?fn_get_local_entity_int_value@@3PAY0BBH@P6GHPAUENTITY@@W4INT_TYPES@@@ZA[edx+eax*4]
  0050d	ff d1		 call	 ecx
  0050f	89 45 c4	 mov	 DWORD PTR _group_type$[ebp], eax

; 2399 : 	
; 2400 : 							if (group_database [group_type].default_landing_type == ENTITY_SUB_TYPE_LANDING_HELICOPTER)

  00512	6b 45 c4 64	 imul	 eax, DWORD PTR _group_type$[ebp], 100
  00516	83 b8 18 00 00
	00 02		 cmp	 DWORD PTR ?group_database@@3PAUGROUP_DATA@@A[eax+24], 2
  0051d	0f 85 a1 00 00
	00		 jne	 $LN17@create_hel

; 2401 : 							{
; 2402 : 								if (get_local_entity_int_value (group, INT_TYPE_GROUP_MODE) == GROUP_MODE_IDLE)

  00523	83 7d f0 00	 cmp	 DWORD PTR _group$[ebp], 0
  00527	74 0d		 je	 SHORT $LN54@create_hel
  00529	8b 45 f0	 mov	 eax, DWORD PTR _group$[ebp]
  0052c	8b 08		 mov	 ecx, DWORD PTR [eax]
  0052e	89 8d 60 ff ff
	ff		 mov	 DWORD PTR tv272[ebp], ecx
  00534	eb 20		 jmp	 SHORT $LN55@create_hel
$LN54@create_hel:
  00536	68 62 09 00 00	 push	 2402			; 00000962H
  0053b	68 00 00 00 00	 push	 OFFSET ??_C@_0ED@GMECMFKH@c?3?2users?2nhv90?2projects?2eech?2ap@
  00540	8b 15 00 00 00
	00		 mov	 edx, DWORD PTR ?null_entity_pointer_message@@3PBDB ; null_entity_pointer_message
  00546	52		 push	 edx
  00547	e8 00 00 00 00	 call	 ?process_assert@@YGXPBD0H@Z ; process_assert
  0054c	c7 85 60 ff ff
	ff 00 00 00 00	 mov	 DWORD PTR tv272[ebp], 0
$LN55@create_hel:
  00556	b8 01 00 00 00	 mov	 eax, 1
  0055b	85 c0		 test	 eax, eax
  0055d	74 0c		 je	 SHORT $LN56@create_hel
  0055f	c7 85 5c ff ff
	ff 4d 00 00 00	 mov	 DWORD PTR tv279[ebp], 77 ; 0000004dH
  00569	eb 20		 jmp	 SHORT $LN57@create_hel
$LN56@create_hel:
  0056b	68 62 09 00 00	 push	 2402			; 00000962H
  00570	68 00 00 00 00	 push	 OFFSET ??_C@_0ED@GMECMFKH@c?3?2users?2nhv90?2projects?2eech?2ap@
  00575	8b 0d 00 00 00
	00		 mov	 ecx, DWORD PTR ?overload_invalid_int_type_message@@3PBDB ; overload_invalid_int_type_message
  0057b	51		 push	 ecx
  0057c	e8 00 00 00 00	 call	 ?process_assert@@YGXPBD0H@Z ; process_assert
  00581	c7 85 5c ff ff
	ff 00 00 00 00	 mov	 DWORD PTR tv279[ebp], 0
$LN57@create_hel:
  0058b	6a 4d		 push	 77			; 0000004dH
  0058d	8b 55 f0	 mov	 edx, DWORD PTR _group$[ebp]
  00590	52		 push	 edx
  00591	69 85 60 ff ff
	ff 5c 04 00 00	 imul	 eax, DWORD PTR tv272[ebp], 1116
  0059b	8b 8d 5c ff ff
	ff		 mov	 ecx, DWORD PTR tv279[ebp]
  005a1	8b 94 88 00 00
	00 00		 mov	 edx, DWORD PTR ?fn_get_local_entity_int_value@@3PAY0BBH@P6GHPAUENTITY@@W4INT_TYPES@@@ZA[eax+ecx*4]
  005a8	ff d2		 call	 edx
  005aa	85 c0		 test	 eax, eax
  005ac	75 16		 jne	 SHORT $LN17@create_hel

; 2403 : 								{
; 2404 : 									idle_group_count += 1.0;

  005ae	f3 0f 5a 45 b4	 cvtss2sd xmm0, DWORD PTR _idle_group_count$[ebp]
  005b3	f2 0f 58 05 00
	00 00 00	 addsd	 xmm0, QWORD PTR __real@3ff0000000000000
  005bb	f2 0f 5a c0	 cvtsd2ss xmm0, xmm0
  005bf	f3 0f 11 45 b4	 movss	 DWORD PTR _idle_group_count$[ebp], xmm0
$LN17@create_hel:

; 2405 : 								}
; 2406 : 							}
; 2407 : 	
; 2408 : 							group = get_local_entity_child_succ (group, LIST_TYPE_KEYSITE_GROUP);

  005c4	83 7d f0 00	 cmp	 DWORD PTR _group$[ebp], 0
  005c8	74 0d		 je	 SHORT $LN58@create_hel
  005ca	8b 45 f0	 mov	 eax, DWORD PTR _group$[ebp]
  005cd	8b 08		 mov	 ecx, DWORD PTR [eax]
  005cf	89 8d 60 ff ff
	ff		 mov	 DWORD PTR tv295[ebp], ecx
  005d5	eb 24		 jmp	 SHORT $LN59@create_hel
$LN58@create_hel:
  005d7	8b 15 00 00 00
	00		 mov	 edx, DWORD PTR ?__LINE__Var@?0??create_helicopter_transfer_tasks@@YGXXZ@4JA
  005dd	83 c2 59	 add	 edx, 89			; 00000059H
  005e0	52		 push	 edx
  005e1	68 00 00 00 00	 push	 OFFSET ??_C@_0ED@GMECMFKH@c?3?2users?2nhv90?2projects?2eech?2ap@
  005e6	a1 00 00 00 00	 mov	 eax, DWORD PTR ?null_entity_pointer_message@@3PBDB ; null_entity_pointer_message
  005eb	50		 push	 eax
  005ec	e8 00 00 00 00	 call	 ?process_assert@@YGXPBD0H@Z ; process_assert
  005f1	c7 85 60 ff ff
	ff 00 00 00 00	 mov	 DWORD PTR tv295[ebp], 0
$LN59@create_hel:
  005fb	b9 01 00 00 00	 mov	 ecx, 1
  00600	85 c9		 test	 ecx, ecx
  00602	74 0c		 je	 SHORT $LN60@create_hel
  00604	c7 85 5c ff ff
	ff 16 00 00 00	 mov	 DWORD PTR tv303[ebp], 22 ; 00000016H
  0060e	eb 24		 jmp	 SHORT $LN61@create_hel
$LN60@create_hel:
  00610	8b 15 00 00 00
	00		 mov	 edx, DWORD PTR ?__LINE__Var@?0??create_helicopter_transfer_tasks@@YGXXZ@4JA
  00616	83 c2 59	 add	 edx, 89			; 00000059H
  00619	52		 push	 edx
  0061a	68 00 00 00 00	 push	 OFFSET ??_C@_0ED@GMECMFKH@c?3?2users?2nhv90?2projects?2eech?2ap@
  0061f	a1 00 00 00 00	 mov	 eax, DWORD PTR ?overload_invalid_list_type_message@@3PBDB ; overload_invalid_list_type_message
  00624	50		 push	 eax
  00625	e8 00 00 00 00	 call	 ?process_assert@@YGXPBD0H@Z ; process_assert
  0062a	c7 85 5c ff ff
	ff 00 00 00 00	 mov	 DWORD PTR tv303[ebp], 0
$LN61@create_hel:
  00634	6a 16		 push	 22			; 00000016H
  00636	8b 4d f0	 mov	 ecx, DWORD PTR _group$[ebp]
  00639	51		 push	 ecx
  0063a	69 95 60 ff ff
	ff b4 00 00 00	 imul	 edx, DWORD PTR tv295[ebp], 180
  00644	8b 85 5c ff ff
	ff		 mov	 eax, DWORD PTR tv303[ebp]
  0064a	8b 8c 82 00 00
	00 00		 mov	 ecx, DWORD PTR ?fn_get_local_entity_child_succ@@3PAY0CN@P6GPAUENTITY@@PAU1@W4LIST_TYPES@@@ZA[edx+eax*4]
  00651	ff d1		 call	 ecx
  00653	89 45 f0	 mov	 DWORD PTR _group$[ebp], eax

; 2409 : 						}	

  00656	e9 1b fe ff ff	 jmp	 $LN6@create_hel
$LN7@create_hel:

; 2410 : 		
; 2411 : 						//
; 2412 : 						// get sector
; 2413 : 						//
; 2414 : 		
; 2415 : 						pos = get_local_entity_vec3d_ptr (keysite, VEC3D_TYPE_POSITION);

  0065b	83 7d ec 00	 cmp	 DWORD PTR _keysite$[ebp], 0
  0065f	74 0d		 je	 SHORT $LN62@create_hel
  00661	8b 45 ec	 mov	 eax, DWORD PTR _keysite$[ebp]
  00664	8b 08		 mov	 ecx, DWORD PTR [eax]
  00666	89 8d 60 ff ff
	ff		 mov	 DWORD PTR tv315[ebp], ecx
  0066c	eb 24		 jmp	 SHORT $LN63@create_hel
$LN62@create_hel:
  0066e	8b 15 00 00 00
	00		 mov	 edx, DWORD PTR ?__LINE__Var@?0??create_helicopter_transfer_tasks@@YGXXZ@4JA
  00674	83 c2 60	 add	 edx, 96			; 00000060H
  00677	52		 push	 edx
  00678	68 00 00 00 00	 push	 OFFSET ??_C@_0ED@GMECMFKH@c?3?2users?2nhv90?2projects?2eech?2ap@
  0067d	a1 00 00 00 00	 mov	 eax, DWORD PTR ?null_entity_pointer_message@@3PBDB ; null_entity_pointer_message
  00682	50		 push	 eax
  00683	e8 00 00 00 00	 call	 ?process_assert@@YGXPBD0H@Z ; process_assert
  00688	c7 85 60 ff ff
	ff 00 00 00 00	 mov	 DWORD PTR tv315[ebp], 0
$LN63@create_hel:
  00692	b9 01 00 00 00	 mov	 ecx, 1
  00697	85 c9		 test	 ecx, ecx
  00699	74 0c		 je	 SHORT $LN64@create_hel
  0069b	c7 85 5c ff ff
	ff 08 00 00 00	 mov	 DWORD PTR tv323[ebp], 8
  006a5	eb 24		 jmp	 SHORT $LN65@create_hel
$LN64@create_hel:
  006a7	8b 15 00 00 00
	00		 mov	 edx, DWORD PTR ?__LINE__Var@?0??create_helicopter_transfer_tasks@@YGXXZ@4JA
  006ad	83 c2 60	 add	 edx, 96			; 00000060H
  006b0	52		 push	 edx
  006b1	68 00 00 00 00	 push	 OFFSET ??_C@_0ED@GMECMFKH@c?3?2users?2nhv90?2projects?2eech?2ap@
  006b6	a1 00 00 00 00	 mov	 eax, DWORD PTR ?overload_invalid_vec3d_type_message@@3PBDB ; overload_invalid_vec3d_type_message
  006bb	50		 push	 eax
  006bc	e8 00 00 00 00	 call	 ?process_assert@@YGXPBD0H@Z ; process_assert
  006c1	c7 85 5c ff ff
	ff 00 00 00 00	 mov	 DWORD PTR tv323[ebp], 0
$LN65@create_hel:
  006cb	6a 08		 push	 8
  006cd	8b 4d ec	 mov	 ecx, DWORD PTR _keysite$[ebp]
  006d0	51		 push	 ecx
  006d1	6b 95 60 ff ff
	ff 60		 imul	 edx, DWORD PTR tv315[ebp], 96
  006d8	8b 85 5c ff ff
	ff		 mov	 eax, DWORD PTR tv323[ebp]
  006de	8b 8c 82 00 00
	00 00		 mov	 ecx, DWORD PTR ?fn_get_local_entity_vec3d_ptr@@3PAY0BI@P6GPAUVEC3D@@PAUENTITY@@W4VEC3D_TYPES@@@ZA[edx+eax*4]
  006e5	ff d1		 call	 ecx
  006e7	89 45 dc	 mov	 DWORD PTR _pos$[ebp], eax

; 2416 : 									
; 2417 : 						get_x_sector (x, pos->x);

  006ea	8d 45 d8	 lea	 eax, DWORD PTR _x$[ebp]
  006ed	50		 push	 eax
  006ee	8b 4d dc	 mov	 ecx, DWORD PTR _pos$[ebp]
  006f1	f3 0f 10 01	 movss	 xmm0, DWORD PTR [ecx]
  006f5	51		 push	 ecx
  006f6	f3 0f 11 04 24	 movss	 DWORD PTR [esp], xmm0
  006fb	e8 00 00 00 00	 call	 ?convert_float_to_int@@YGXMPAH@Z ; convert_float_to_int
  00700	8b 45 d8	 mov	 eax, DWORD PTR _x$[ebp]
  00703	99		 cdq
  00704	f7 3d 00 00 00
	00		 idiv	 DWORD PTR ?world_map@@3UWORLD_MAP_DATA@@A
  0070a	89 45 d8	 mov	 DWORD PTR _x$[ebp], eax

; 2418 : 						get_z_sector (z, pos->z);

  0070d	8d 45 d4	 lea	 eax, DWORD PTR _z$[ebp]
  00710	50		 push	 eax
  00711	8b 4d dc	 mov	 ecx, DWORD PTR _pos$[ebp]
  00714	f3 0f 10 41 08	 movss	 xmm0, DWORD PTR [ecx+8]
  00719	51		 push	 ecx
  0071a	f3 0f 11 04 24	 movss	 DWORD PTR [esp], xmm0
  0071f	e8 00 00 00 00	 call	 ?convert_float_to_int@@YGXMPAH@Z ; convert_float_to_int
  00724	8b 45 d4	 mov	 eax, DWORD PTR _z$[ebp]
  00727	99		 cdq
  00728	f7 3d 00 00 00
	00		 idiv	 DWORD PTR ?world_map@@3UWORLD_MAP_DATA@@A
  0072e	89 45 d4	 mov	 DWORD PTR _z$[ebp], eax

; 2419 : 		
; 2420 : 						//
; 2421 : 						// Calculate keysite rating
; 2422 : 						//
; 2423 : 	
; 2424 : 						importance_rating = get_imap_value (IMAP_IMPORTANCE, side, x, z);

  00731	8b 45 d4	 mov	 eax, DWORD PTR _z$[ebp]
  00734	50		 push	 eax
  00735	8b 4d d8	 mov	 ecx, DWORD PTR _x$[ebp]
  00738	51		 push	 ecx
  00739	8b 55 fc	 mov	 edx, DWORD PTR _side$[ebp]
  0073c	52		 push	 edx
  0073d	6a 00		 push	 0
  0073f	e8 00 00 00 00	 call	 ?get_imap_value@@YGMW4IMAP_TYPES@@W4ENTITY_SIDES@@HH@Z ; get_imap_value
  00744	d9 1d 00 00 00
	00		 fstp	 DWORD PTR ?importance_rating@@3MA

; 2425 : 	
; 2426 : 						air_defence_rating = get_imap_value (IMAP_AIR_DEFENCE, side, x, z);

  0074a	8b 45 d4	 mov	 eax, DWORD PTR _z$[ebp]
  0074d	50		 push	 eax
  0074e	8b 4d d8	 mov	 ecx, DWORD PTR _x$[ebp]
  00751	51		 push	 ecx
  00752	8b 55 fc	 mov	 edx, DWORD PTR _side$[ebp]
  00755	52		 push	 edx
  00756	6a 02		 push	 2
  00758	e8 00 00 00 00	 call	 ?get_imap_value@@YGMW4IMAP_TYPES@@W4ENTITY_SIDES@@HH@Z ; get_imap_value
  0075d	d9 1d 00 00 00
	00		 fstp	 DWORD PTR ?air_defence_rating@@3MA

; 2427 : 	
; 2428 : 						surface_defence_rating = get_imap_value (IMAP_SURFACE_DEFENCE, side, x, z);

  00763	8b 45 d4	 mov	 eax, DWORD PTR _z$[ebp]
  00766	50		 push	 eax
  00767	8b 4d d8	 mov	 ecx, DWORD PTR _x$[ebp]
  0076a	51		 push	 ecx
  0076b	8b 55 fc	 mov	 edx, DWORD PTR _side$[ebp]
  0076e	52		 push	 edx
  0076f	6a 03		 push	 3
  00771	e8 00 00 00 00	 call	 ?get_imap_value@@YGMW4IMAP_TYPES@@W4ENTITY_SIDES@@HH@Z ; get_imap_value
  00776	d9 1d 00 00 00
	00		 fstp	 DWORD PTR ?surface_defence_rating@@3MA

; 2429 : 	
; 2430 : 						base_distance_rating = get_imap_value (IMAP_BASE_DISTANCE, side, x, z);

  0077c	8b 45 d4	 mov	 eax, DWORD PTR _z$[ebp]
  0077f	50		 push	 eax
  00780	8b 4d d8	 mov	 ecx, DWORD PTR _x$[ebp]
  00783	51		 push	 ecx
  00784	8b 55 fc	 mov	 edx, DWORD PTR _side$[ebp]
  00787	52		 push	 edx
  00788	6a 01		 push	 1
  0078a	e8 00 00 00 00	 call	 ?get_imap_value@@YGMW4IMAP_TYPES@@W4ENTITY_SIDES@@HH@Z ; get_imap_value
  0078f	d9 1d 00 00 00
	00		 fstp	 DWORD PTR ?base_distance_rating@@3MA

; 2431 : 	
; 2432 : 						rating = 0.0;

  00795	0f 57 c0	 xorps	 xmm0, xmm0
  00798	f3 0f 11 45 b8	 movss	 DWORD PTR _rating$[ebp], xmm0

; 2433 : 		
; 2434 : 						// high enemy importance
; 2435 : //						rating += (importance_rating);
; 2436 : 	
; 2437 : 						// high enemy S-A threat 
; 2438 : //						rating += (air_defence_rating);
; 2439 : 	
; 2440 : 						// high enemy S-S threat
; 2441 : //						rating += (surface_defence_rating);
; 2442 : 	
; 2443 : 						// close to enemy base
; 2444 : 						rating += 4.0 * base_distance_rating;

  0079d	f3 0f 5a 05 00
	00 00 00	 cvtss2sd xmm0, DWORD PTR ?base_distance_rating@@3MA
  007a5	f2 0f 59 05 00
	00 00 00	 mulsd	 xmm0, QWORD PTR __real@4010000000000000
  007ad	f3 0f 5a 4d b8	 cvtss2sd xmm1, DWORD PTR _rating$[ebp]
  007b2	f2 0f 58 c8	 addsd	 xmm1, xmm0
  007b6	f2 0f 5a c1	 cvtsd2ss xmm0, xmm1
  007ba	f3 0f 11 45 b8	 movss	 DWORD PTR _rating$[ebp], xmm0

; 2445 : 	
; 2446 : 						// low idle group count
; 2447 : 						idle_group_count = min (idle_group_count, 4.0f) * 0.25;

  007bf	f3 0f 10 05 00
	00 00 00	 movss	 xmm0, DWORD PTR __real@40800000
  007c7	f3 0f 11 85 6c
	ff ff ff	 movss	 DWORD PTR $T3[ebp], xmm0
  007cf	8d 85 6c ff ff
	ff		 lea	 eax, DWORD PTR $T3[ebp]
  007d5	50		 push	 eax
  007d6	8d 4d b4	 lea	 ecx, DWORD PTR _idle_group_count$[ebp]
  007d9	51		 push	 ecx
  007da	e8 00 00 00 00	 call	 ??$min@M@std@@YGABMABM0@Z ; std::min<float>
  007df	f3 0f 5a 00	 cvtss2sd xmm0, DWORD PTR [eax]
  007e3	f2 0f 59 05 00
	00 00 00	 mulsd	 xmm0, QWORD PTR __real@3fd0000000000000
  007eb	f2 0f 5a c0	 cvtsd2ss xmm0, xmm0
  007ef	f3 0f 11 45 b4	 movss	 DWORD PTR _idle_group_count$[ebp], xmm0

; 2448 : 	
; 2449 : 						rating += 4.0 * (1.0 - idle_group_count);

  007f4	f3 0f 5a 45 b4	 cvtss2sd xmm0, DWORD PTR _idle_group_count$[ebp]
  007f9	f2 0f 10 0d 00
	00 00 00	 movsd	 xmm1, QWORD PTR __real@3ff0000000000000
  00801	f2 0f 5c c8	 subsd	 xmm1, xmm0
  00805	f2 0f 59 0d 00
	00 00 00	 mulsd	 xmm1, QWORD PTR __real@4010000000000000
  0080d	f3 0f 5a 45 b8	 cvtss2sd xmm0, DWORD PTR _rating$[ebp]
  00812	f2 0f 58 c1	 addsd	 xmm0, xmm1
  00816	f2 0f 5a c0	 cvtsd2ss xmm0, xmm0
  0081a	f3 0f 11 45 b8	 movss	 DWORD PTR _rating$[ebp], xmm0

; 2450 : 	
; 2451 : 						max_rating = 8.0;

  0081f	f3 0f 10 05 00
	00 00 00	 movss	 xmm0, DWORD PTR __real@41000000
  00827	f3 0f 11 45 b0	 movss	 DWORD PTR _max_rating$[ebp], xmm0

; 2452 : 	
; 2453 : 						//
; 2454 : 						// Store
; 2455 : 						//
; 2456 : 		
; 2457 : 						if (rating > 0.0)

  0082c	f3 0f 5a 45 b8	 cvtss2sd xmm0, DWORD PTR _rating$[ebp]
  00831	66 0f 2f 05 00
	00 00 00	 comisd	 xmm0, QWORD PTR __real@0000000000000000
  00839	76 27		 jbe	 SHORT $LN18@create_hel

; 2458 : 						{
; 2459 : 							target_list [count] = keysite;

  0083b	8b 45 c8	 mov	 eax, DWORD PTR _count$[ebp]
  0083e	8b 4d ec	 mov	 ecx, DWORD PTR _keysite$[ebp]
  00841	89 0c 85 00 00
	00 00		 mov	 DWORD PTR ?target_list@@3PAPAUENTITY@@A[eax*4], ecx

; 2460 : 		
; 2461 : 							target_rating [count] = rating;

  00848	8b 45 c8	 mov	 eax, DWORD PTR _count$[ebp]
  0084b	f3 0f 10 45 b8	 movss	 xmm0, DWORD PTR _rating$[ebp]
  00850	f3 0f 11 04 85
	00 00 00 00	 movss	 DWORD PTR ?target_rating@@3PAMA[eax*4], xmm0

; 2462 : 		
; 2463 : 							count ++;

  00859	8b 45 c8	 mov	 eax, DWORD PTR _count$[ebp]
  0085c	83 c0 01	 add	 eax, 1
  0085f	89 45 c8	 mov	 DWORD PTR _count$[ebp], eax
$LN18@create_hel:

; 2464 : 						}
; 2465 : 					}
; 2466 : 				}
; 2467 : 			}	
; 2468 : 
; 2469 : 			keysite = get_local_entity_child_succ (keysite, LIST_TYPE_KEYSITE_FORCE);

  00862	83 7d ec 00	 cmp	 DWORD PTR _keysite$[ebp], 0
  00866	74 0d		 je	 SHORT $LN66@create_hel
  00868	8b 45 ec	 mov	 eax, DWORD PTR _keysite$[ebp]
  0086b	8b 08		 mov	 ecx, DWORD PTR [eax]
  0086d	89 8d 60 ff ff
	ff		 mov	 DWORD PTR tv389[ebp], ecx
  00873	eb 27		 jmp	 SHORT $LN67@create_hel
$LN66@create_hel:
  00875	8b 15 00 00 00
	00		 mov	 edx, DWORD PTR ?__LINE__Var@?0??create_helicopter_transfer_tasks@@YGXXZ@4JA
  0087b	81 c2 96 00 00
	00		 add	 edx, 150		; 00000096H
  00881	52		 push	 edx
  00882	68 00 00 00 00	 push	 OFFSET ??_C@_0ED@GMECMFKH@c?3?2users?2nhv90?2projects?2eech?2ap@
  00887	a1 00 00 00 00	 mov	 eax, DWORD PTR ?null_entity_pointer_message@@3PBDB ; null_entity_pointer_message
  0088c	50		 push	 eax
  0088d	e8 00 00 00 00	 call	 ?process_assert@@YGXPBD0H@Z ; process_assert
  00892	c7 85 60 ff ff
	ff 00 00 00 00	 mov	 DWORD PTR tv389[ebp], 0
$LN67@create_hel:
  0089c	b9 01 00 00 00	 mov	 ecx, 1
  008a1	85 c9		 test	 ecx, ecx
  008a3	74 0c		 je	 SHORT $LN68@create_hel
  008a5	c7 85 5c ff ff
	ff 15 00 00 00	 mov	 DWORD PTR tv397[ebp], 21 ; 00000015H
  008af	eb 27		 jmp	 SHORT $LN69@create_hel
$LN68@create_hel:
  008b1	8b 15 00 00 00
	00		 mov	 edx, DWORD PTR ?__LINE__Var@?0??create_helicopter_transfer_tasks@@YGXXZ@4JA
  008b7	81 c2 96 00 00
	00		 add	 edx, 150		; 00000096H
  008bd	52		 push	 edx
  008be	68 00 00 00 00	 push	 OFFSET ??_C@_0ED@GMECMFKH@c?3?2users?2nhv90?2projects?2eech?2ap@
  008c3	a1 00 00 00 00	 mov	 eax, DWORD PTR ?overload_invalid_list_type_message@@3PBDB ; overload_invalid_list_type_message
  008c8	50		 push	 eax
  008c9	e8 00 00 00 00	 call	 ?process_assert@@YGXPBD0H@Z ; process_assert
  008ce	c7 85 5c ff ff
	ff 00 00 00 00	 mov	 DWORD PTR tv397[ebp], 0
$LN69@create_hel:
  008d8	6a 15		 push	 21			; 00000015H
  008da	8b 4d ec	 mov	 ecx, DWORD PTR _keysite$[ebp]
  008dd	51		 push	 ecx
  008de	69 95 60 ff ff
	ff b4 00 00 00	 imul	 edx, DWORD PTR tv389[ebp], 180
  008e8	8b 85 5c ff ff
	ff		 mov	 eax, DWORD PTR tv397[ebp]
  008ee	8b 8c 82 00 00
	00 00		 mov	 ecx, DWORD PTR ?fn_get_local_entity_child_succ@@3PAY0CN@P6GPAUENTITY@@PAU1@W4LIST_TYPES@@@ZA[edx+eax*4]
  008f5	ff d1		 call	 ecx
  008f7	89 45 ec	 mov	 DWORD PTR _keysite$[ebp], eax

; 2470 : 		}

  008fa	e9 74 f9 ff ff	 jmp	 $LN4@create_hel
$LN5@create_hel:

; 2471 : 
; 2472 : 		//
; 2473 : 		// Create TRANSFER tasks
; 2474 : 		//
; 2475 : 
; 2476 : 		if (count > 0)

  008ff	83 7d c8 00	 cmp	 DWORD PTR _count$[ebp], 0
  00903	0f 8e b4 02 00
	00		 jle	 $LN9@create_hel

; 2477 : 		{
; 2478 : 			quicksort_entity_list (target_list, count, target_rating);

  00909	68 00 00 00 00	 push	 OFFSET ?target_rating@@3PAMA
  0090e	8b 45 c8	 mov	 eax, DWORD PTR _count$[ebp]
  00911	50		 push	 eax
  00912	68 00 00 00 00	 push	 OFFSET ?target_list@@3PAPAUENTITY@@A
  00917	e8 00 00 00 00	 call	 ?quicksort_entity_list@@YGXPAPAUENTITY@@HPAM@Z ; quicksort_entity_list

; 2479 : 
; 2480 : 			keysite_count = min (count / 2, CREATE_TRANSFER_TASK_COUNT);

  0091c	c7 85 68 ff ff
	ff 03 00 00 00	 mov	 DWORD PTR $T2[ebp], 3
  00926	8b 45 c8	 mov	 eax, DWORD PTR _count$[ebp]
  00929	99		 cdq
  0092a	2b c2		 sub	 eax, edx
  0092c	d1 f8		 sar	 eax, 1
  0092e	89 85 64 ff ff
	ff		 mov	 DWORD PTR $T1[ebp], eax
  00934	8d 85 68 ff ff
	ff		 lea	 eax, DWORD PTR $T2[ebp]
  0093a	50		 push	 eax
  0093b	8d 8d 64 ff ff
	ff		 lea	 ecx, DWORD PTR $T1[ebp]
  00941	51		 push	 ecx
  00942	e8 00 00 00 00	 call	 ??$min@H@std@@YGABHABH0@Z ; std::min<int>
  00947	8b 10		 mov	 edx, DWORD PTR [eax]
  00949	89 55 c0	 mov	 DWORD PTR _keysite_count$[ebp], edx

; 2481 : 
; 2482 : 			loop2 = count - 1;

  0094c	8b 45 c8	 mov	 eax, DWORD PTR _count$[ebp]
  0094f	83 e8 01	 sub	 eax, 1
  00952	89 45 cc	 mov	 DWORD PTR _loop2$[ebp], eax

; 2483 : 
; 2484 : 			for (loop = 0; loop < keysite_count; loop ++)

  00955	c7 45 d0 00 00
	00 00		 mov	 DWORD PTR _loop$[ebp], 0
  0095c	eb 09		 jmp	 SHORT $LN10@create_hel
$LN8@create_hel:
  0095e	8b 45 d0	 mov	 eax, DWORD PTR _loop$[ebp]
  00961	83 c0 01	 add	 eax, 1
  00964	89 45 d0	 mov	 DWORD PTR _loop$[ebp], eax
$LN10@create_hel:
  00967	8b 45 d0	 mov	 eax, DWORD PTR _loop$[ebp]
  0096a	3b 45 c0	 cmp	 eax, DWORD PTR _keysite_count$[ebp]
  0096d	0f 8d 4a 02 00
	00		 jge	 $LN9@create_hel

; 2485 : 			{
; 2486 : //				if ((target_rating [loop] > (max_rating * 0.5)) && (target_rating [loop2] < (max_rating * 0.5)))
; 2487 : 				{
; 2488 : 					keysite = target_list [loop];

  00973	8b 45 d0	 mov	 eax, DWORD PTR _loop$[ebp]
  00976	8b 0c 85 00 00
	00 00		 mov	 ecx, DWORD PTR ?target_list@@3PAPAUENTITY@@A[eax*4]
  0097d	89 4d ec	 mov	 DWORD PTR _keysite$[ebp], ecx

; 2489 : 	
; 2490 : 					if (!entity_is_object_of_task (keysite, ENTITY_SUB_TYPE_TASK_TRANSFER_HELICOPTER, this_side))

  00980	8b 45 f8	 mov	 eax, DWORD PTR _this_side$[ebp]
  00983	50		 push	 eax
  00984	6a 19		 push	 25			; 00000019H
  00986	8b 4d ec	 mov	 ecx, DWORD PTR _keysite$[ebp]
  00989	51		 push	 ecx
  0098a	e8 00 00 00 00	 call	 ?entity_is_object_of_task@@YGHPAUENTITY@@HW4ENTITY_SIDES@@@Z ; entity_is_object_of_task
  0098f	85 c0		 test	 eax, eax
  00991	0f 85 21 02 00
	00		 jne	 $LN22@create_hel

; 2491 : 					{
; 2492 : 						//
; 2493 : 						// Check landing sites free
; 2494 : 						//
; 2495 : 	
; 2496 : 						landing_en = get_local_entity_landing_entity (keysite, ENTITY_SUB_TYPE_LANDING_HELICOPTER);

  00997	6a 02		 push	 2
  00999	8b 45 ec	 mov	 eax, DWORD PTR _keysite$[ebp]
  0099c	50		 push	 eax
  0099d	e8 00 00 00 00	 call	 ?get_local_entity_landing_entity@@YGPAUENTITY@@PAU1@H@Z ; get_local_entity_landing_entity
  009a2	89 45 e4	 mov	 DWORD PTR _landing_en$[ebp], eax

; 2497 : 	
; 2498 : 						ASSERT (landing_en);

  009a5	83 7d e4 00	 cmp	 DWORD PTR _landing_en$[ebp], 0
  009a9	75 1a		 jne	 SHORT $LN21@create_hel
  009ab	a1 00 00 00 00	 mov	 eax, DWORD PTR ?__LINE__Var@?0??create_helicopter_transfer_tasks@@YGXXZ@4JA
  009b0	05 b3 00 00 00	 add	 eax, 179		; 000000b3H
  009b5	50		 push	 eax
  009b6	68 00 00 00 00	 push	 OFFSET ??_C@_0ED@GMECMFKH@c?3?2users?2nhv90?2projects?2eech?2ap@
  009bb	68 00 00 00 00	 push	 OFFSET ??_C@_0L@BBFNENIC@landing_en@
  009c0	e8 00 00 00 00	 call	 ?process_assert@@YGXPBD0H@Z ; process_assert
$LN21@create_hel:

; 2499 : 						
; 2500 : 						landing_raw = (landing*) get_local_entity_data (landing_en);

  009c5	8b 45 e4	 mov	 eax, DWORD PTR _landing_en$[ebp]
  009c8	8b 48 04	 mov	 ecx, DWORD PTR [eax+4]
  009cb	89 4d e0	 mov	 DWORD PTR _landing_raw$[ebp], ecx

; 2501 : 	
; 2502 : 						//if (landing_raw->free_landing_sites >= 4)
; 2503 : 						if (get_keysite_landing_sites_available (keysite, ENTITY_SUB_TYPE_LANDING_HELICOPTER))

  009ce	6a 02		 push	 2
  009d0	8b 45 ec	 mov	 eax, DWORD PTR _keysite$[ebp]
  009d3	50		 push	 eax
  009d4	e8 00 00 00 00	 call	 ?get_keysite_landing_sites_available@@YGHPAUENTITY@@H@Z ; get_keysite_landing_sites_available
  009d9	85 c0		 test	 eax, eax
  009db	0f 84 d7 01 00
	00		 je	 $LN22@create_hel

; 2504 : 						{
; 2505 : 							donar = target_list [loop2];	

  009e1	8b 45 cc	 mov	 eax, DWORD PTR _loop2$[ebp]
  009e4	8b 0c 85 00 00
	00 00		 mov	 ecx, DWORD PTR ?target_list@@3PAPAUENTITY@@A[eax*4]
  009eb	89 4d e8	 mov	 DWORD PTR _donar$[ebp], ecx

; 2506 : 						
; 2507 : 							priority = ((target_rating [loop] - target_rating [loop2]) / max_rating) * task_database [ENTITY_SUB_TYPE_TASK_TRANSFER_HELICOPTER].task_priority;

  009ee	8b 45 d0	 mov	 eax, DWORD PTR _loop$[ebp]
  009f1	8b 4d cc	 mov	 ecx, DWORD PTR _loop2$[ebp]
  009f4	f3 0f 10 04 85
	00 00 00 00	 movss	 xmm0, DWORD PTR ?target_rating@@3PAMA[eax*4]
  009fd	f3 0f 5c 04 8d
	00 00 00 00	 subss	 xmm0, DWORD PTR ?target_rating@@3PAMA[ecx*4]
  00a06	f3 0f 5e 45 b0	 divss	 xmm0, DWORD PTR _max_rating$[ebp]
  00a0b	ba 50 00 00 00	 mov	 edx, 80			; 00000050H
  00a10	6b c2 19	 imul	 eax, edx, 25
  00a13	f3 0f 59 80 10
	00 00 00	 mulss	 xmm0, DWORD PTR ?task_database@@3PAUTASK_DATA@@A[eax+16]
  00a1b	f3 0f 11 45 bc	 movss	 DWORD PTR _priority$[ebp], xmm0

; 2508 : 	
; 2509 : 							create_transfer_task (this_side, ENTITY_SUB_TYPE_TASK_TRANSFER_HELICOPTER, priority, donar, keysite);

  00a20	8b 45 ec	 mov	 eax, DWORD PTR _keysite$[ebp]
  00a23	50		 push	 eax
  00a24	8b 4d e8	 mov	 ecx, DWORD PTR _donar$[ebp]
  00a27	51		 push	 ecx
  00a28	51		 push	 ecx
  00a29	f3 0f 10 45 bc	 movss	 xmm0, DWORD PTR _priority$[ebp]
  00a2e	f3 0f 11 04 24	 movss	 DWORD PTR [esp], xmm0
  00a33	6a 19		 push	 25			; 00000019H
  00a35	8b 55 f8	 mov	 edx, DWORD PTR _this_side$[ebp]
  00a38	52		 push	 edx
  00a39	e8 00 00 00 00	 call	 ?create_transfer_task@@YGPAUENTITY@@W4ENTITY_SIDES@@HMPAU1@1@Z ; create_transfer_task

; 2510 : 	
; 2511 : 							ai_log ("(TASK) %s TRANSFER - From %s (%.3f) To %s (%.3f) - CREATED (Priority %f)",

  00a3e	83 7d ec 00	 cmp	 DWORD PTR _keysite$[ebp], 0
  00a42	74 0d		 je	 SHORT $LN70@create_hel
  00a44	8b 45 ec	 mov	 eax, DWORD PTR _keysite$[ebp]
  00a47	8b 08		 mov	 ecx, DWORD PTR [eax]
  00a49	89 8d 60 ff ff
	ff		 mov	 DWORD PTR tv463[ebp], ecx
  00a4f	eb 27		 jmp	 SHORT $LN71@create_hel
$LN70@create_hel:
  00a51	8b 15 00 00 00
	00		 mov	 edx, DWORD PTR ?__LINE__Var@?0??create_helicopter_transfer_tasks@@YGXXZ@4JA
  00a57	81 c2 c4 00 00
	00		 add	 edx, 196		; 000000c4H
  00a5d	52		 push	 edx
  00a5e	68 00 00 00 00	 push	 OFFSET ??_C@_0ED@GMECMFKH@c?3?2users?2nhv90?2projects?2eech?2ap@
  00a63	a1 00 00 00 00	 mov	 eax, DWORD PTR ?null_entity_pointer_message@@3PBDB ; null_entity_pointer_message
  00a68	50		 push	 eax
  00a69	e8 00 00 00 00	 call	 ?process_assert@@YGXPBD0H@Z ; process_assert
  00a6e	c7 85 60 ff ff
	ff 00 00 00 00	 mov	 DWORD PTR tv463[ebp], 0
$LN71@create_hel:
  00a78	b9 01 00 00 00	 mov	 ecx, 1
  00a7d	85 c9		 test	 ecx, ecx
  00a7f	74 0c		 je	 SHORT $LN72@create_hel
  00a81	c7 85 5c ff ff
	ff 07 00 00 00	 mov	 DWORD PTR tv471[ebp], 7
  00a8b	eb 27		 jmp	 SHORT $LN73@create_hel
$LN72@create_hel:
  00a8d	8b 15 00 00 00
	00		 mov	 edx, DWORD PTR ?__LINE__Var@?0??create_helicopter_transfer_tasks@@YGXXZ@4JA
  00a93	81 c2 c4 00 00
	00		 add	 edx, 196		; 000000c4H
  00a99	52		 push	 edx
  00a9a	68 00 00 00 00	 push	 OFFSET ??_C@_0ED@GMECMFKH@c?3?2users?2nhv90?2projects?2eech?2ap@
  00a9f	a1 00 00 00 00	 mov	 eax, DWORD PTR ?overload_invalid_string_type_message@@3PBDB ; overload_invalid_string_type_message
  00aa4	50		 push	 eax
  00aa5	e8 00 00 00 00	 call	 ?process_assert@@YGXPBD0H@Z ; process_assert
  00aaa	c7 85 5c ff ff
	ff 00 00 00 00	 mov	 DWORD PTR tv471[ebp], 0
$LN73@create_hel:
  00ab4	83 7d e8 00	 cmp	 DWORD PTR _donar$[ebp], 0
  00ab8	74 0d		 je	 SHORT $LN74@create_hel
  00aba	8b 4d e8	 mov	 ecx, DWORD PTR _donar$[ebp]
  00abd	8b 11		 mov	 edx, DWORD PTR [ecx]
  00abf	89 95 58 ff ff
	ff		 mov	 DWORD PTR tv488[ebp], edx
  00ac5	eb 26		 jmp	 SHORT $LN75@create_hel
$LN74@create_hel:
  00ac7	a1 00 00 00 00	 mov	 eax, DWORD PTR ?__LINE__Var@?0??create_helicopter_transfer_tasks@@YGXXZ@4JA
  00acc	05 c2 00 00 00	 add	 eax, 194		; 000000c2H
  00ad1	50		 push	 eax
  00ad2	68 00 00 00 00	 push	 OFFSET ??_C@_0ED@GMECMFKH@c?3?2users?2nhv90?2projects?2eech?2ap@
  00ad7	8b 0d 00 00 00
	00		 mov	 ecx, DWORD PTR ?null_entity_pointer_message@@3PBDB ; null_entity_pointer_message
  00add	51		 push	 ecx
  00ade	e8 00 00 00 00	 call	 ?process_assert@@YGXPBD0H@Z ; process_assert
  00ae3	c7 85 58 ff ff
	ff 00 00 00 00	 mov	 DWORD PTR tv488[ebp], 0
$LN75@create_hel:
  00aed	ba 01 00 00 00	 mov	 edx, 1
  00af2	85 d2		 test	 edx, edx
  00af4	74 0c		 je	 SHORT $LN76@create_hel
  00af6	c7 85 54 ff ff
	ff 07 00 00 00	 mov	 DWORD PTR tv496[ebp], 7
  00b00	eb 26		 jmp	 SHORT $LN77@create_hel
$LN76@create_hel:
  00b02	a1 00 00 00 00	 mov	 eax, DWORD PTR ?__LINE__Var@?0??create_helicopter_transfer_tasks@@YGXXZ@4JA
  00b07	05 c2 00 00 00	 add	 eax, 194		; 000000c2H
  00b0c	50		 push	 eax
  00b0d	68 00 00 00 00	 push	 OFFSET ??_C@_0ED@GMECMFKH@c?3?2users?2nhv90?2projects?2eech?2ap@
  00b12	8b 0d 00 00 00
	00		 mov	 ecx, DWORD PTR ?overload_invalid_string_type_message@@3PBDB ; overload_invalid_string_type_message
  00b18	51		 push	 ecx
  00b19	e8 00 00 00 00	 call	 ?process_assert@@YGXPBD0H@Z ; process_assert
  00b1e	c7 85 54 ff ff
	ff 00 00 00 00	 mov	 DWORD PTR tv496[ebp], 0
$LN77@create_hel:
  00b28	f3 0f 5a 45 bc	 cvtss2sd xmm0, DWORD PTR _priority$[ebp]
  00b2d	83 ec 08	 sub	 esp, 8
  00b30	f2 0f 11 04 24	 movsd	 QWORD PTR [esp], xmm0
  00b35	8b 55 d0	 mov	 edx, DWORD PTR _loop$[ebp]
  00b38	f3 0f 5a 04 95
	00 00 00 00	 cvtss2sd xmm0, DWORD PTR ?target_rating@@3PAMA[edx*4]
  00b41	83 ec 08	 sub	 esp, 8
  00b44	f2 0f 11 04 24	 movsd	 QWORD PTR [esp], xmm0
  00b49	6a 07		 push	 7
  00b4b	8b 45 ec	 mov	 eax, DWORD PTR _keysite$[ebp]
  00b4e	50		 push	 eax
  00b4f	6b 8d 60 ff ff
	ff 34		 imul	 ecx, DWORD PTR tv463[ebp], 52
  00b56	8b 95 5c ff ff
	ff		 mov	 edx, DWORD PTR tv471[ebp]
  00b5c	8b 84 91 00 00
	00 00		 mov	 eax, DWORD PTR ?fn_get_local_entity_string@@3PAY0N@P6GPBDPAUENTITY@@W4STRING_TYPES@@@ZA[ecx+edx*4]
  00b63	ff d0		 call	 eax
  00b65	50		 push	 eax
  00b66	8b 4d cc	 mov	 ecx, DWORD PTR _loop2$[ebp]
  00b69	f3 0f 5a 04 8d
	00 00 00 00	 cvtss2sd xmm0, DWORD PTR ?target_rating@@3PAMA[ecx*4]
  00b72	83 ec 08	 sub	 esp, 8
  00b75	f2 0f 11 04 24	 movsd	 QWORD PTR [esp], xmm0
  00b7a	6a 07		 push	 7
  00b7c	8b 55 e8	 mov	 edx, DWORD PTR _donar$[ebp]
  00b7f	52		 push	 edx
  00b80	6b 85 58 ff ff
	ff 34		 imul	 eax, DWORD PTR tv488[ebp], 52
  00b87	8b 8d 54 ff ff
	ff		 mov	 ecx, DWORD PTR tv496[ebp]
  00b8d	8b 94 88 00 00
	00 00		 mov	 edx, DWORD PTR ?fn_get_local_entity_string@@3PAY0N@P6GPBDPAUENTITY@@W4STRING_TYPES@@@ZA[eax+ecx*4]
  00b94	ff d2		 call	 edx
  00b96	50		 push	 eax
  00b97	8b 45 f8	 mov	 eax, DWORD PTR _this_side$[ebp]
  00b9a	8b 0c 85 00 00
	00 00		 mov	 ecx, DWORD PTR ?entity_side_short_names@@3PAPBDA[eax*4]
  00ba1	51		 push	 ecx
  00ba2	68 00 00 00 00	 push	 OFFSET ??_C@_0EJ@ELLEGADD@?$CITASK?$CJ?5?$CFs?5TRANSFER?5?9?5From?5?$CFs?5?$CI?$CF@
  00ba7	e8 00 00 00 00	 call	 ?ai_log@@YAXPBDZZ	; ai_log
  00bac	83 c4 28	 add	 esp, 40			; 00000028H

; 2512 : 										entity_side_short_names [this_side],
; 2513 : 										get_local_entity_string (donar, STRING_TYPE_KEYSITE_NAME),
; 2514 : 										target_rating [loop2],
; 2515 : 										get_local_entity_string (keysite, STRING_TYPE_KEYSITE_NAME),
; 2516 : 										target_rating [loop],
; 2517 : 										priority);
; 2518 : 
; 2519 : 							loop2 --;

  00baf	8b 45 cc	 mov	 eax, DWORD PTR _loop2$[ebp]
  00bb2	83 e8 01	 sub	 eax, 1
  00bb5	89 45 cc	 mov	 DWORD PTR _loop2$[ebp], eax
$LN22@create_hel:

; 2520 : 						}
; 2521 : 					}
; 2522 : 				}
; 2523 : 			}

  00bb8	e9 a1 fd ff ff	 jmp	 $LN8@create_hel
$LN9@create_hel:

; 2524 : 		}
; 2525 : 
; 2526 : 		//
; 2527 : 		// Next force
; 2528 : 		//
; 2529 : 	
; 2530 : 		force = get_local_entity_child_succ (force, LIST_TYPE_FORCE);

  00bbd	83 7d f4 00	 cmp	 DWORD PTR _force$[ebp], 0
  00bc1	74 0d		 je	 SHORT $LN78@create_hel
  00bc3	8b 45 f4	 mov	 eax, DWORD PTR _force$[ebp]
  00bc6	8b 08		 mov	 ecx, DWORD PTR [eax]
  00bc8	89 8d 60 ff ff
	ff		 mov	 DWORD PTR tv514[ebp], ecx
  00bce	eb 27		 jmp	 SHORT $LN79@create_hel
$LN78@create_hel:
  00bd0	8b 15 00 00 00
	00		 mov	 edx, DWORD PTR ?__LINE__Var@?0??create_helicopter_transfer_tasks@@YGXXZ@4JA
  00bd6	81 c2 d3 00 00
	00		 add	 edx, 211		; 000000d3H
  00bdc	52		 push	 edx
  00bdd	68 00 00 00 00	 push	 OFFSET ??_C@_0ED@GMECMFKH@c?3?2users?2nhv90?2projects?2eech?2ap@
  00be2	a1 00 00 00 00	 mov	 eax, DWORD PTR ?null_entity_pointer_message@@3PBDB ; null_entity_pointer_message
  00be7	50		 push	 eax
  00be8	e8 00 00 00 00	 call	 ?process_assert@@YGXPBD0H@Z ; process_assert
  00bed	c7 85 60 ff ff
	ff 00 00 00 00	 mov	 DWORD PTR tv514[ebp], 0
$LN79@create_hel:
  00bf7	b9 01 00 00 00	 mov	 ecx, 1
  00bfc	85 c9		 test	 ecx, ecx
  00bfe	74 0c		 je	 SHORT $LN80@create_hel
  00c00	c7 85 5c ff ff
	ff 0e 00 00 00	 mov	 DWORD PTR tv522[ebp], 14 ; 0000000eH
  00c0a	eb 27		 jmp	 SHORT $LN81@create_hel
$LN80@create_hel:
  00c0c	8b 15 00 00 00
	00		 mov	 edx, DWORD PTR ?__LINE__Var@?0??create_helicopter_transfer_tasks@@YGXXZ@4JA
  00c12	81 c2 d3 00 00
	00		 add	 edx, 211		; 000000d3H
  00c18	52		 push	 edx
  00c19	68 00 00 00 00	 push	 OFFSET ??_C@_0ED@GMECMFKH@c?3?2users?2nhv90?2projects?2eech?2ap@
  00c1e	a1 00 00 00 00	 mov	 eax, DWORD PTR ?overload_invalid_list_type_message@@3PBDB ; overload_invalid_list_type_message
  00c23	50		 push	 eax
  00c24	e8 00 00 00 00	 call	 ?process_assert@@YGXPBD0H@Z ; process_assert
  00c29	c7 85 5c ff ff
	ff 00 00 00 00	 mov	 DWORD PTR tv522[ebp], 0
$LN81@create_hel:
  00c33	6a 0e		 push	 14			; 0000000eH
  00c35	8b 4d f4	 mov	 ecx, DWORD PTR _force$[ebp]
  00c38	51		 push	 ecx
  00c39	69 95 60 ff ff
	ff b4 00 00 00	 imul	 edx, DWORD PTR tv514[ebp], 180
  00c43	8b 85 5c ff ff
	ff		 mov	 eax, DWORD PTR tv522[ebp]
  00c49	8b 8c 82 00 00
	00 00		 mov	 ecx, DWORD PTR ?fn_get_local_entity_child_succ@@3PAY0CN@P6GPAUENTITY@@PAU1@W4LIST_TYPES@@@ZA[edx+eax*4]
  00c50	ff d1		 call	 ecx
  00c52	89 45 f4	 mov	 DWORD PTR _force$[ebp], eax

; 2531 : 	}

  00c55	e9 94 f4 ff ff	 jmp	 $LN2@create_hel
$LN3@create_hel:

; 2532 : }

  00c5a	5f		 pop	 edi
  00c5b	5e		 pop	 esi
  00c5c	5b		 pop	 ebx
  00c5d	8b e5		 mov	 esp, ebp
  00c5f	5d		 pop	 ebp
  00c60	c3		 ret	 0
?create_helicopter_transfer_tasks@@YGXXZ ENDP		; create_helicopter_transfer_tasks
_TEXT	ENDS
; Function compile flags: /Odtp /ZI
; File c:\users\nhv90\projects\eech\aphavoc\source\ai\highlevl\highlevl.c
;	COMDAT ?create_fixed_wing_transfer_tasks@@YGXXZ
_TEXT	SEGMENT
tv496 = -172						; size = 4
tv488 = -168						; size = 4
tv522 = -164						; size = 4
tv471 = -164						; size = 4
tv397 = -164						; size = 4
tv323 = -164						; size = 4
tv303 = -164						; size = 4
tv279 = -164						; size = 4
tv257 = -164						; size = 4
tv236 = -164						; size = 4
tv206 = -164						; size = 4
tv187 = -164						; size = 4
tv167 = -164						; size = 4
tv145 = -164						; size = 4
tv86 = -164						; size = 4
tv514 = -160						; size = 4
tv463 = -160						; size = 4
tv389 = -160						; size = 4
tv315 = -160						; size = 4
tv295 = -160						; size = 4
tv272 = -160						; size = 4
tv249 = -160						; size = 4
tv228 = -160						; size = 4
tv199 = -160						; size = 4
tv180 = -160						; size = 4
tv159 = -160						; size = 4
tv152 = -160						; size = 4
tv137 = -160						; size = 4
tv78 = -160						; size = 4
$T1 = -156						; size = 4
$T2 = -152						; size = 4
$T3 = -148						; size = 4
_max_rating$ = -80					; size = 4
_idle_group_count$ = -76				; size = 4
_rating$ = -72						; size = 4
_priority$ = -68					; size = 4
_keysite_count$ = -64					; size = 4
_group_type$ = -60					; size = 4
_count$ = -56						; size = 4
_loop2$ = -52						; size = 4
_loop$ = -48						; size = 4
_z$ = -44						; size = 4
_x$ = -40						; size = 4
_pos$ = -36						; size = 4
_landing_raw$ = -32					; size = 4
_landing_en$ = -28					; size = 4
_donar$ = -24						; size = 4
_keysite$ = -20						; size = 4
_group$ = -16						; size = 4
_force$ = -12						; size = 4
_this_side$ = -8					; size = 4
_side$ = -4						; size = 4
?create_fixed_wing_transfer_tasks@@YGXXZ PROC		; create_fixed_wing_transfer_tasks, COMDAT

; 2099 : {

  00000	55		 push	 ebp
  00001	8b ec		 mov	 ebp, esp
  00003	81 ec ac 00 00
	00		 sub	 esp, 172		; 000000acH
  00009	53		 push	 ebx
  0000a	56		 push	 esi
  0000b	57		 push	 edi

; 2100 : 	entity_sides
; 2101 : 		side,
; 2102 : 		this_side;
; 2103 : 
; 2104 : 	entity
; 2105 : 		*force,
; 2106 : 		*group,
; 2107 : 		*keysite,
; 2108 : 		*donar,
; 2109 : 		*landing_en;
; 2110 : 
; 2111 : 	landing
; 2112 : 		*landing_raw;
; 2113 : 
; 2114 : 	vec3d
; 2115 : 		*pos;
; 2116 : 
; 2117 : 	int
; 2118 : 		x,
; 2119 : 		z,
; 2120 : 		loop,
; 2121 : 		loop2,
; 2122 : 		count,
; 2123 : 		group_type,
; 2124 : 		keysite_count;
; 2125 : 
; 2126 : 	float
; 2127 : 		priority,
; 2128 : 		rating,
; 2129 : 		idle_group_count,
; 2130 : 		max_rating;
; 2131 : 
; 2132 : 	ASSERT (get_comms_model () == COMMS_MODEL_SERVER);

  0000c	83 3d 00 00 00
	00 00		 cmp	 DWORD PTR ?system_comms_model@@3W4COMMS_MODEL_TYPES@@A, 0 ; system_comms_model
  00013	74 18		 je	 SHORT $LN11@create_fix
  00015	a1 00 00 00 00	 mov	 eax, DWORD PTR ?__LINE__Var@?0??create_fixed_wing_transfer_tasks@@YGXXZ@4JA
  0001a	83 c0 21	 add	 eax, 33			; 00000021H
  0001d	50		 push	 eax
  0001e	68 00 00 00 00	 push	 OFFSET ??_C@_0ED@GMECMFKH@c?3?2users?2nhv90?2projects?2eech?2ap@
  00023	68 00 00 00 00	 push	 OFFSET ??_C@_0CJ@DMBLBJBK@get_comms_model?5?$CI?$CJ?5?$DN?$DN?5COMMS_MOD@
  00028	e8 00 00 00 00	 call	 ?process_assert@@YGXPBD0H@Z ; process_assert
$LN11@create_fix:

; 2133 : 
; 2134 : 	ai_log ("==========================");

  0002d	68 00 00 00 00	 push	 OFFSET ??_C@_0BL@EBIHNBEK@?$DN?$DN?$DN?$DN?$DN?$DN?$DN?$DN?$DN?$DN?$DN?$DN?$DN?$DN?$DN?$DN?$DN?$DN?$DN?$DN?$DN?$DN?$DN?$DN?$DN?$DN@
  00032	e8 00 00 00 00	 call	 ?ai_log@@YAXPBDZZ	; ai_log
  00037	83 c4 04	 add	 esp, 4

; 2135 : 	ai_log ("CREATE TRANSFER (FW) TASKS");

  0003a	68 00 00 00 00	 push	 OFFSET ??_C@_0BL@MMKFLGNE@CREATE?5TRANSFER?5?$CIFW?$CJ?5TASKS@
  0003f	e8 00 00 00 00	 call	 ?ai_log@@YAXPBDZZ	; ai_log
  00044	83 c4 04	 add	 esp, 4

; 2136 : 	ai_log ("--------------------------");

  00047	68 00 00 00 00	 push	 OFFSET ??_C@_0BL@JMBEPNBE@?9?9?9?9?9?9?9?9?9?9?9?9?9?9?9?9?9?9?9?9?9?9?9?9?9?9@
  0004c	e8 00 00 00 00	 call	 ?ai_log@@YAXPBDZZ	; ai_log
  00051	83 c4 04	 add	 esp, 4

; 2137 : 
; 2138 : 	force = get_local_entity_first_child (get_session_entity (), LIST_TYPE_FORCE);

  00054	83 3d 00 00 00
	00 00		 cmp	 DWORD PTR ?session_entity@@3PAUENTITY@@A, 0 ; session_entity
  0005b	74 0f		 je	 SHORT $LN24@create_fix
  0005d	a1 00 00 00 00	 mov	 eax, DWORD PTR ?session_entity@@3PAUENTITY@@A ; session_entity
  00062	8b 08		 mov	 ecx, DWORD PTR [eax]
  00064	89 8d 60 ff ff
	ff		 mov	 DWORD PTR tv78[ebp], ecx
  0006a	eb 24		 jmp	 SHORT $LN25@create_fix
$LN24@create_fix:
  0006c	8b 15 00 00 00
	00		 mov	 edx, DWORD PTR ?__LINE__Var@?0??create_fixed_wing_transfer_tasks@@YGXXZ@4JA
  00072	83 c2 27	 add	 edx, 39			; 00000027H
  00075	52		 push	 edx
  00076	68 00 00 00 00	 push	 OFFSET ??_C@_0ED@GMECMFKH@c?3?2users?2nhv90?2projects?2eech?2ap@
  0007b	a1 00 00 00 00	 mov	 eax, DWORD PTR ?null_entity_pointer_message@@3PBDB ; null_entity_pointer_message
  00080	50		 push	 eax
  00081	e8 00 00 00 00	 call	 ?process_assert@@YGXPBD0H@Z ; process_assert
  00086	c7 85 60 ff ff
	ff 00 00 00 00	 mov	 DWORD PTR tv78[ebp], 0
$LN25@create_fix:
  00090	b9 01 00 00 00	 mov	 ecx, 1
  00095	85 c9		 test	 ecx, ecx
  00097	74 0c		 je	 SHORT $LN26@create_fix
  00099	c7 85 5c ff ff
	ff 0e 00 00 00	 mov	 DWORD PTR tv86[ebp], 14	; 0000000eH
  000a3	eb 24		 jmp	 SHORT $LN27@create_fix
$LN26@create_fix:
  000a5	8b 15 00 00 00
	00		 mov	 edx, DWORD PTR ?__LINE__Var@?0??create_fixed_wing_transfer_tasks@@YGXXZ@4JA
  000ab	83 c2 27	 add	 edx, 39			; 00000027H
  000ae	52		 push	 edx
  000af	68 00 00 00 00	 push	 OFFSET ??_C@_0ED@GMECMFKH@c?3?2users?2nhv90?2projects?2eech?2ap@
  000b4	a1 00 00 00 00	 mov	 eax, DWORD PTR ?overload_invalid_list_type_message@@3PBDB ; overload_invalid_list_type_message
  000b9	50		 push	 eax
  000ba	e8 00 00 00 00	 call	 ?process_assert@@YGXPBD0H@Z ; process_assert
  000bf	c7 85 5c ff ff
	ff 00 00 00 00	 mov	 DWORD PTR tv86[ebp], 0
$LN27@create_fix:
  000c9	6a 0e		 push	 14			; 0000000eH
  000cb	8b 0d 00 00 00
	00		 mov	 ecx, DWORD PTR ?session_entity@@3PAUENTITY@@A ; session_entity
  000d1	51		 push	 ecx
  000d2	69 95 60 ff ff
	ff b4 00 00 00	 imul	 edx, DWORD PTR tv78[ebp], 180
  000dc	8b 85 5c ff ff
	ff		 mov	 eax, DWORD PTR tv86[ebp]
  000e2	8b 8c 82 00 00
	00 00		 mov	 ecx, DWORD PTR ?fn_get_local_entity_first_child@@3PAY0CN@P6GPAUENTITY@@PAU1@W4LIST_TYPES@@@ZA[edx+eax*4]
  000e9	ff d1		 call	 ecx
  000eb	89 45 f4	 mov	 DWORD PTR _force$[ebp], eax
$LN2@create_fix:

; 2139 : 
; 2140 : 	while (force)

  000ee	83 7d f4 00	 cmp	 DWORD PTR _force$[ebp], 0
  000f2	0f 84 62 0b 00
	00		 je	 $LN3@create_fix

; 2141 : 	{
; 2142 : 		//
; 2143 : 		// for each force spin through the list of keysites and select ones in most need of transfer
; 2144 : 		//
; 2145 : 	
; 2146 : 		memset (target_list, 0, sizeof (entity *) * MAX_HIGHLEVEL_TARGET_CHECKS);

  000f8	68 80 02 00 00	 push	 640			; 00000280H
  000fd	6a 00		 push	 0
  000ff	68 00 00 00 00	 push	 OFFSET ?target_list@@3PAPAUENTITY@@A
  00104	e8 00 00 00 00	 call	 _memset
  00109	83 c4 0c	 add	 esp, 12			; 0000000cH

; 2147 : 
; 2148 : 		memset (target_rating, 0, sizeof (float) * MAX_HIGHLEVEL_TARGET_CHECKS);

  0010c	68 80 02 00 00	 push	 640			; 00000280H
  00111	6a 00		 push	 0
  00113	68 00 00 00 00	 push	 OFFSET ?target_rating@@3PAMA
  00118	e8 00 00 00 00	 call	 _memset
  0011d	83 c4 0c	 add	 esp, 12			; 0000000cH

; 2149 : 
; 2150 : 		count = 0;

  00120	c7 45 c8 00 00
	00 00		 mov	 DWORD PTR _count$[ebp], 0

; 2151 : 
; 2152 : 		this_side = (entity_sides) get_local_entity_int_value (force, INT_TYPE_SIDE);

  00127	83 7d f4 00	 cmp	 DWORD PTR _force$[ebp], 0
  0012b	74 0d		 je	 SHORT $LN28@create_fix
  0012d	8b 45 f4	 mov	 eax, DWORD PTR _force$[ebp]
  00130	8b 08		 mov	 ecx, DWORD PTR [eax]
  00132	89 8d 60 ff ff
	ff		 mov	 DWORD PTR tv137[ebp], ecx
  00138	eb 24		 jmp	 SHORT $LN29@create_fix
$LN28@create_fix:
  0013a	8b 15 00 00 00
	00		 mov	 edx, DWORD PTR ?__LINE__Var@?0??create_fixed_wing_transfer_tasks@@YGXXZ@4JA
  00140	83 c2 35	 add	 edx, 53			; 00000035H
  00143	52		 push	 edx
  00144	68 00 00 00 00	 push	 OFFSET ??_C@_0ED@GMECMFKH@c?3?2users?2nhv90?2projects?2eech?2ap@
  00149	a1 00 00 00 00	 mov	 eax, DWORD PTR ?null_entity_pointer_message@@3PBDB ; null_entity_pointer_message
  0014e	50		 push	 eax
  0014f	e8 00 00 00 00	 call	 ?process_assert@@YGXPBD0H@Z ; process_assert
  00154	c7 85 60 ff ff
	ff 00 00 00 00	 mov	 DWORD PTR tv137[ebp], 0
$LN29@create_fix:
  0015e	b9 01 00 00 00	 mov	 ecx, 1
  00163	85 c9		 test	 ecx, ecx
  00165	74 0c		 je	 SHORT $LN30@create_fix
  00167	c7 85 5c ff ff
	ff bb 00 00 00	 mov	 DWORD PTR tv145[ebp], 187 ; 000000bbH
  00171	eb 24		 jmp	 SHORT $LN31@create_fix
$LN30@create_fix:
  00173	8b 15 00 00 00
	00		 mov	 edx, DWORD PTR ?__LINE__Var@?0??create_fixed_wing_transfer_tasks@@YGXXZ@4JA
  00179	83 c2 35	 add	 edx, 53			; 00000035H
  0017c	52		 push	 edx
  0017d	68 00 00 00 00	 push	 OFFSET ??_C@_0ED@GMECMFKH@c?3?2users?2nhv90?2projects?2eech?2ap@
  00182	a1 00 00 00 00	 mov	 eax, DWORD PTR ?overload_invalid_int_type_message@@3PBDB ; overload_invalid_int_type_message
  00187	50		 push	 eax
  00188	e8 00 00 00 00	 call	 ?process_assert@@YGXPBD0H@Z ; process_assert
  0018d	c7 85 5c ff ff
	ff 00 00 00 00	 mov	 DWORD PTR tv145[ebp], 0
$LN31@create_fix:
  00197	68 bb 00 00 00	 push	 187			; 000000bbH
  0019c	8b 4d f4	 mov	 ecx, DWORD PTR _force$[ebp]
  0019f	51		 push	 ecx
  001a0	69 95 60 ff ff
	ff 5c 04 00 00	 imul	 edx, DWORD PTR tv137[ebp], 1116
  001aa	8b 85 5c ff ff
	ff		 mov	 eax, DWORD PTR tv145[ebp]
  001b0	8b 8c 82 00 00
	00 00		 mov	 ecx, DWORD PTR ?fn_get_local_entity_int_value@@3PAY0BBH@P6GHPAUENTITY@@W4INT_TYPES@@@ZA[edx+eax*4]
  001b7	ff d1		 call	 ecx
  001b9	89 45 f8	 mov	 DWORD PTR _this_side$[ebp], eax

; 2153 : 
; 2154 : 		side = get_enemy_side (this_side);

  001bc	83 7d f8 01	 cmp	 DWORD PTR _this_side$[ebp], 1
  001c0	75 0c		 jne	 SHORT $LN32@create_fix
  001c2	c7 85 60 ff ff
	ff 02 00 00 00	 mov	 DWORD PTR tv152[ebp], 2
  001cc	eb 0a		 jmp	 SHORT $LN33@create_fix
$LN32@create_fix:
  001ce	c7 85 60 ff ff
	ff 01 00 00 00	 mov	 DWORD PTR tv152[ebp], 1
$LN33@create_fix:
  001d8	8b 85 60 ff ff
	ff		 mov	 eax, DWORD PTR tv152[ebp]
  001de	89 45 fc	 mov	 DWORD PTR _side$[ebp], eax

; 2155 : 	
; 2156 : 		keysite = get_local_entity_first_child (force, LIST_TYPE_KEYSITE_FORCE);

  001e1	83 7d f4 00	 cmp	 DWORD PTR _force$[ebp], 0
  001e5	74 0d		 je	 SHORT $LN34@create_fix
  001e7	8b 45 f4	 mov	 eax, DWORD PTR _force$[ebp]
  001ea	8b 08		 mov	 ecx, DWORD PTR [eax]
  001ec	89 8d 60 ff ff
	ff		 mov	 DWORD PTR tv159[ebp], ecx
  001f2	eb 24		 jmp	 SHORT $LN35@create_fix
$LN34@create_fix:
  001f4	8b 15 00 00 00
	00		 mov	 edx, DWORD PTR ?__LINE__Var@?0??create_fixed_wing_transfer_tasks@@YGXXZ@4JA
  001fa	83 c2 39	 add	 edx, 57			; 00000039H
  001fd	52		 push	 edx
  001fe	68 00 00 00 00	 push	 OFFSET ??_C@_0ED@GMECMFKH@c?3?2users?2nhv90?2projects?2eech?2ap@
  00203	a1 00 00 00 00	 mov	 eax, DWORD PTR ?null_entity_pointer_message@@3PBDB ; null_entity_pointer_message
  00208	50		 push	 eax
  00209	e8 00 00 00 00	 call	 ?process_assert@@YGXPBD0H@Z ; process_assert
  0020e	c7 85 60 ff ff
	ff 00 00 00 00	 mov	 DWORD PTR tv159[ebp], 0
$LN35@create_fix:
  00218	b9 01 00 00 00	 mov	 ecx, 1
  0021d	85 c9		 test	 ecx, ecx
  0021f	74 0c		 je	 SHORT $LN36@create_fix
  00221	c7 85 5c ff ff
	ff 15 00 00 00	 mov	 DWORD PTR tv167[ebp], 21 ; 00000015H
  0022b	eb 24		 jmp	 SHORT $LN37@create_fix
$LN36@create_fix:
  0022d	8b 15 00 00 00
	00		 mov	 edx, DWORD PTR ?__LINE__Var@?0??create_fixed_wing_transfer_tasks@@YGXXZ@4JA
  00233	83 c2 39	 add	 edx, 57			; 00000039H
  00236	52		 push	 edx
  00237	68 00 00 00 00	 push	 OFFSET ??_C@_0ED@GMECMFKH@c?3?2users?2nhv90?2projects?2eech?2ap@
  0023c	a1 00 00 00 00	 mov	 eax, DWORD PTR ?overload_invalid_list_type_message@@3PBDB ; overload_invalid_list_type_message
  00241	50		 push	 eax
  00242	e8 00 00 00 00	 call	 ?process_assert@@YGXPBD0H@Z ; process_assert
  00247	c7 85 5c ff ff
	ff 00 00 00 00	 mov	 DWORD PTR tv167[ebp], 0
$LN37@create_fix:
  00251	6a 15		 push	 21			; 00000015H
  00253	8b 4d f4	 mov	 ecx, DWORD PTR _force$[ebp]
  00256	51		 push	 ecx
  00257	69 95 60 ff ff
	ff b4 00 00 00	 imul	 edx, DWORD PTR tv159[ebp], 180
  00261	8b 85 5c ff ff
	ff		 mov	 eax, DWORD PTR tv167[ebp]
  00267	8b 8c 82 00 00
	00 00		 mov	 ecx, DWORD PTR ?fn_get_local_entity_first_child@@3PAY0CN@P6GPAUENTITY@@PAU1@W4LIST_TYPES@@@ZA[edx+eax*4]
  0026e	ff d1		 call	 ecx
  00270	89 45 ec	 mov	 DWORD PTR _keysite$[ebp], eax
$LN4@create_fix:

; 2157 : 	
; 2158 : 		while ((keysite) && (count < MAX_HIGHLEVEL_TARGET_CHECKS))

  00273	83 7d ec 00	 cmp	 DWORD PTR _keysite$[ebp], 0
  00277	0f 84 82 06 00
	00		 je	 $LN5@create_fix
  0027d	81 7d c8 a0 00
	00 00		 cmp	 DWORD PTR _count$[ebp], 160 ; 000000a0H
  00284	0f 8d 75 06 00
	00		 jge	 $LN5@create_fix

; 2159 : 		{
; 2160 : 			if (get_local_entity_int_value (keysite, INT_TYPE_IN_USE))

  0028a	83 7d ec 00	 cmp	 DWORD PTR _keysite$[ebp], 0
  0028e	74 0d		 je	 SHORT $LN38@create_fix
  00290	8b 45 ec	 mov	 eax, DWORD PTR _keysite$[ebp]
  00293	8b 08		 mov	 ecx, DWORD PTR [eax]
  00295	89 8d 60 ff ff
	ff		 mov	 DWORD PTR tv180[ebp], ecx
  0029b	eb 20		 jmp	 SHORT $LN39@create_fix
$LN38@create_fix:
  0029d	68 70 08 00 00	 push	 2160			; 00000870H
  002a2	68 00 00 00 00	 push	 OFFSET ??_C@_0ED@GMECMFKH@c?3?2users?2nhv90?2projects?2eech?2ap@
  002a7	8b 15 00 00 00
	00		 mov	 edx, DWORD PTR ?null_entity_pointer_message@@3PBDB ; null_entity_pointer_message
  002ad	52		 push	 edx
  002ae	e8 00 00 00 00	 call	 ?process_assert@@YGXPBD0H@Z ; process_assert
  002b3	c7 85 60 ff ff
	ff 00 00 00 00	 mov	 DWORD PTR tv180[ebp], 0
$LN39@create_fix:
  002bd	b8 01 00 00 00	 mov	 eax, 1
  002c2	85 c0		 test	 eax, eax
  002c4	74 0c		 je	 SHORT $LN40@create_fix
  002c6	c7 85 5c ff ff
	ff 6d 00 00 00	 mov	 DWORD PTR tv187[ebp], 109 ; 0000006dH
  002d0	eb 20		 jmp	 SHORT $LN41@create_fix
$LN40@create_fix:
  002d2	68 70 08 00 00	 push	 2160			; 00000870H
  002d7	68 00 00 00 00	 push	 OFFSET ??_C@_0ED@GMECMFKH@c?3?2users?2nhv90?2projects?2eech?2ap@
  002dc	8b 0d 00 00 00
	00		 mov	 ecx, DWORD PTR ?overload_invalid_int_type_message@@3PBDB ; overload_invalid_int_type_message
  002e2	51		 push	 ecx
  002e3	e8 00 00 00 00	 call	 ?process_assert@@YGXPBD0H@Z ; process_assert
  002e8	c7 85 5c ff ff
	ff 00 00 00 00	 mov	 DWORD PTR tv187[ebp], 0
$LN41@create_fix:
  002f2	6a 6d		 push	 109			; 0000006dH
  002f4	8b 55 ec	 mov	 edx, DWORD PTR _keysite$[ebp]
  002f7	52		 push	 edx
  002f8	69 85 60 ff ff
	ff 5c 04 00 00	 imul	 eax, DWORD PTR tv180[ebp], 1116
  00302	8b 8d 5c ff ff
	ff		 mov	 ecx, DWORD PTR tv187[ebp]
  00308	8b 94 88 00 00
	00 00		 mov	 edx, DWORD PTR ?fn_get_local_entity_int_value@@3PAY0BBH@P6GHPAUENTITY@@W4INT_TYPES@@@ZA[eax+ecx*4]
  0030f	ff d2		 call	 edx
  00311	85 c0		 test	 eax, eax
  00313	0f 84 49 05 00
	00		 je	 $LN18@create_fix

; 2161 : 			{
; 2162 : 				if (get_local_entity_int_value (keysite, INT_TYPE_KEYSITE_USABLE_STATE) == KEYSITE_STATE_USABLE)

  00319	83 7d ec 00	 cmp	 DWORD PTR _keysite$[ebp], 0
  0031d	74 0d		 je	 SHORT $LN42@create_fix
  0031f	8b 45 ec	 mov	 eax, DWORD PTR _keysite$[ebp]
  00322	8b 08		 mov	 ecx, DWORD PTR [eax]
  00324	89 8d 60 ff ff
	ff		 mov	 DWORD PTR tv199[ebp], ecx
  0032a	eb 20		 jmp	 SHORT $LN43@create_fix
$LN42@create_fix:
  0032c	68 72 08 00 00	 push	 2162			; 00000872H
  00331	68 00 00 00 00	 push	 OFFSET ??_C@_0ED@GMECMFKH@c?3?2users?2nhv90?2projects?2eech?2ap@
  00336	8b 15 00 00 00
	00		 mov	 edx, DWORD PTR ?null_entity_pointer_message@@3PBDB ; null_entity_pointer_message
  0033c	52		 push	 edx
  0033d	e8 00 00 00 00	 call	 ?process_assert@@YGXPBD0H@Z ; process_assert
  00342	c7 85 60 ff ff
	ff 00 00 00 00	 mov	 DWORD PTR tv199[ebp], 0
$LN43@create_fix:
  0034c	b8 01 00 00 00	 mov	 eax, 1
  00351	85 c0		 test	 eax, eax
  00353	74 0c		 je	 SHORT $LN44@create_fix
  00355	c7 85 5c ff ff
	ff 70 00 00 00	 mov	 DWORD PTR tv206[ebp], 112 ; 00000070H
  0035f	eb 20		 jmp	 SHORT $LN45@create_fix
$LN44@create_fix:
  00361	68 72 08 00 00	 push	 2162			; 00000872H
  00366	68 00 00 00 00	 push	 OFFSET ??_C@_0ED@GMECMFKH@c?3?2users?2nhv90?2projects?2eech?2ap@
  0036b	8b 0d 00 00 00
	00		 mov	 ecx, DWORD PTR ?overload_invalid_int_type_message@@3PBDB ; overload_invalid_int_type_message
  00371	51		 push	 ecx
  00372	e8 00 00 00 00	 call	 ?process_assert@@YGXPBD0H@Z ; process_assert
  00377	c7 85 5c ff ff
	ff 00 00 00 00	 mov	 DWORD PTR tv206[ebp], 0
$LN45@create_fix:
  00381	6a 70		 push	 112			; 00000070H
  00383	8b 55 ec	 mov	 edx, DWORD PTR _keysite$[ebp]
  00386	52		 push	 edx
  00387	69 85 60 ff ff
	ff 5c 04 00 00	 imul	 eax, DWORD PTR tv199[ebp], 1116
  00391	8b 8d 5c ff ff
	ff		 mov	 ecx, DWORD PTR tv206[ebp]
  00397	8b 94 88 00 00
	00 00		 mov	 edx, DWORD PTR ?fn_get_local_entity_int_value@@3PAY0BBH@P6GHPAUENTITY@@W4INT_TYPES@@@ZA[eax+ecx*4]
  0039e	ff d2		 call	 edx
  003a0	85 c0		 test	 eax, eax
  003a2	0f 85 ba 04 00
	00		 jne	 $LN18@create_fix

; 2163 : 				{
; 2164 : 					if (get_local_entity_landing_entity (keysite, ENTITY_SUB_TYPE_LANDING_FIXED_WING))

  003a8	6a 00		 push	 0
  003aa	8b 45 ec	 mov	 eax, DWORD PTR _keysite$[ebp]
  003ad	50		 push	 eax
  003ae	e8 00 00 00 00	 call	 ?get_local_entity_landing_entity@@YGPAUENTITY@@PAU1@H@Z ; get_local_entity_landing_entity
  003b3	85 c0		 test	 eax, eax
  003b5	0f 84 a7 04 00
	00		 je	 $LN18@create_fix

; 2165 : 					{
; 2166 : 						ASSERT (count < MAX_HIGHLEVEL_TARGET_CHECKS);

  003bb	81 7d c8 a0 00
	00 00		 cmp	 DWORD PTR _count$[ebp], 160 ; 000000a0H
  003c2	7c 18		 jl	 SHORT $LN15@create_fix
  003c4	a1 00 00 00 00	 mov	 eax, DWORD PTR ?__LINE__Var@?0??create_fixed_wing_transfer_tasks@@YGXXZ@4JA
  003c9	83 c0 43	 add	 eax, 67			; 00000043H
  003cc	50		 push	 eax
  003cd	68 00 00 00 00	 push	 OFFSET ??_C@_0ED@GMECMFKH@c?3?2users?2nhv90?2projects?2eech?2ap@
  003d2	68 00 00 00 00	 push	 OFFSET ??_C@_0CE@FGAKBBGH@count?5?$DM?5MAX_HIGHLEVEL_TARGET_CH@
  003d7	e8 00 00 00 00	 call	 ?process_assert@@YGXPBD0H@Z ; process_assert
$LN15@create_fix:

; 2167 : 	
; 2168 : 						//
; 2169 : 						// Check group count
; 2170 : 						//
; 2171 : 	
; 2172 : 						idle_group_count = 0.0;

  003dc	0f 57 c0	 xorps	 xmm0, xmm0
  003df	f3 0f 11 45 b4	 movss	 DWORD PTR _idle_group_count$[ebp], xmm0

; 2173 : 	
; 2174 : 						group = get_local_entity_first_child (keysite, LIST_TYPE_KEYSITE_GROUP);

  003e4	83 7d ec 00	 cmp	 DWORD PTR _keysite$[ebp], 0
  003e8	74 0d		 je	 SHORT $LN46@create_fix
  003ea	8b 45 ec	 mov	 eax, DWORD PTR _keysite$[ebp]
  003ed	8b 08		 mov	 ecx, DWORD PTR [eax]
  003ef	89 8d 60 ff ff
	ff		 mov	 DWORD PTR tv228[ebp], ecx
  003f5	eb 24		 jmp	 SHORT $LN47@create_fix
$LN46@create_fix:
  003f7	8b 15 00 00 00
	00		 mov	 edx, DWORD PTR ?__LINE__Var@?0??create_fixed_wing_transfer_tasks@@YGXXZ@4JA
  003fd	83 c2 4b	 add	 edx, 75			; 0000004bH
  00400	52		 push	 edx
  00401	68 00 00 00 00	 push	 OFFSET ??_C@_0ED@GMECMFKH@c?3?2users?2nhv90?2projects?2eech?2ap@
  00406	a1 00 00 00 00	 mov	 eax, DWORD PTR ?null_entity_pointer_message@@3PBDB ; null_entity_pointer_message
  0040b	50		 push	 eax
  0040c	e8 00 00 00 00	 call	 ?process_assert@@YGXPBD0H@Z ; process_assert
  00411	c7 85 60 ff ff
	ff 00 00 00 00	 mov	 DWORD PTR tv228[ebp], 0
$LN47@create_fix:
  0041b	b9 01 00 00 00	 mov	 ecx, 1
  00420	85 c9		 test	 ecx, ecx
  00422	74 0c		 je	 SHORT $LN48@create_fix
  00424	c7 85 5c ff ff
	ff 16 00 00 00	 mov	 DWORD PTR tv236[ebp], 22 ; 00000016H
  0042e	eb 24		 jmp	 SHORT $LN49@create_fix
$LN48@create_fix:
  00430	8b 15 00 00 00
	00		 mov	 edx, DWORD PTR ?__LINE__Var@?0??create_fixed_wing_transfer_tasks@@YGXXZ@4JA
  00436	83 c2 4b	 add	 edx, 75			; 0000004bH
  00439	52		 push	 edx
  0043a	68 00 00 00 00	 push	 OFFSET ??_C@_0ED@GMECMFKH@c?3?2users?2nhv90?2projects?2eech?2ap@
  0043f	a1 00 00 00 00	 mov	 eax, DWORD PTR ?overload_invalid_list_type_message@@3PBDB ; overload_invalid_list_type_message
  00444	50		 push	 eax
  00445	e8 00 00 00 00	 call	 ?process_assert@@YGXPBD0H@Z ; process_assert
  0044a	c7 85 5c ff ff
	ff 00 00 00 00	 mov	 DWORD PTR tv236[ebp], 0
$LN49@create_fix:
  00454	6a 16		 push	 22			; 00000016H
  00456	8b 4d ec	 mov	 ecx, DWORD PTR _keysite$[ebp]
  00459	51		 push	 ecx
  0045a	69 95 60 ff ff
	ff b4 00 00 00	 imul	 edx, DWORD PTR tv228[ebp], 180
  00464	8b 85 5c ff ff
	ff		 mov	 eax, DWORD PTR tv236[ebp]
  0046a	8b 8c 82 00 00
	00 00		 mov	 ecx, DWORD PTR ?fn_get_local_entity_first_child@@3PAY0CN@P6GPAUENTITY@@PAU1@W4LIST_TYPES@@@ZA[edx+eax*4]
  00471	ff d1		 call	 ecx
  00473	89 45 f0	 mov	 DWORD PTR _group$[ebp], eax
$LN6@create_fix:

; 2175 : 	
; 2176 : 						while (group)

  00476	83 7d f0 00	 cmp	 DWORD PTR _group$[ebp], 0
  0047a	0f 84 db 01 00
	00		 je	 $LN7@create_fix

; 2177 : 						{
; 2178 : 							group_type = get_local_entity_int_value (group, INT_TYPE_ENTITY_SUB_TYPE);

  00480	83 7d f0 00	 cmp	 DWORD PTR _group$[ebp], 0
  00484	74 0d		 je	 SHORT $LN50@create_fix
  00486	8b 45 f0	 mov	 eax, DWORD PTR _group$[ebp]
  00489	8b 08		 mov	 ecx, DWORD PTR [eax]
  0048b	89 8d 60 ff ff
	ff		 mov	 DWORD PTR tv249[ebp], ecx
  00491	eb 24		 jmp	 SHORT $LN51@create_fix
$LN50@create_fix:
  00493	8b 15 00 00 00
	00		 mov	 edx, DWORD PTR ?__LINE__Var@?0??create_fixed_wing_transfer_tasks@@YGXXZ@4JA
  00499	83 c2 4f	 add	 edx, 79			; 0000004fH
  0049c	52		 push	 edx
  0049d	68 00 00 00 00	 push	 OFFSET ??_C@_0ED@GMECMFKH@c?3?2users?2nhv90?2projects?2eech?2ap@
  004a2	a1 00 00 00 00	 mov	 eax, DWORD PTR ?null_entity_pointer_message@@3PBDB ; null_entity_pointer_message
  004a7	50		 push	 eax
  004a8	e8 00 00 00 00	 call	 ?process_assert@@YGXPBD0H@Z ; process_assert
  004ad	c7 85 60 ff ff
	ff 00 00 00 00	 mov	 DWORD PTR tv249[ebp], 0
$LN51@create_fix:
  004b7	b9 01 00 00 00	 mov	 ecx, 1
  004bc	85 c9		 test	 ecx, ecx
  004be	74 0c		 je	 SHORT $LN52@create_fix
  004c0	c7 85 5c ff ff
	ff 34 00 00 00	 mov	 DWORD PTR tv257[ebp], 52 ; 00000034H
  004ca	eb 24		 jmp	 SHORT $LN53@create_fix
$LN52@create_fix:
  004cc	8b 15 00 00 00
	00		 mov	 edx, DWORD PTR ?__LINE__Var@?0??create_fixed_wing_transfer_tasks@@YGXXZ@4JA
  004d2	83 c2 4f	 add	 edx, 79			; 0000004fH
  004d5	52		 push	 edx
  004d6	68 00 00 00 00	 push	 OFFSET ??_C@_0ED@GMECMFKH@c?3?2users?2nhv90?2projects?2eech?2ap@
  004db	a1 00 00 00 00	 mov	 eax, DWORD PTR ?overload_invalid_int_type_message@@3PBDB ; overload_invalid_int_type_message
  004e0	50		 push	 eax
  004e1	e8 00 00 00 00	 call	 ?process_assert@@YGXPBD0H@Z ; process_assert
  004e6	c7 85 5c ff ff
	ff 00 00 00 00	 mov	 DWORD PTR tv257[ebp], 0
$LN53@create_fix:
  004f0	6a 34		 push	 52			; 00000034H
  004f2	8b 4d f0	 mov	 ecx, DWORD PTR _group$[ebp]
  004f5	51		 push	 ecx
  004f6	69 95 60 ff ff
	ff 5c 04 00 00	 imul	 edx, DWORD PTR tv249[ebp], 1116
  00500	8b 85 5c ff ff
	ff		 mov	 eax, DWORD PTR tv257[ebp]
  00506	8b 8c 82 00 00
	00 00		 mov	 ecx, DWORD PTR ?fn_get_local_entity_int_value@@3PAY0BBH@P6GHPAUENTITY@@W4INT_TYPES@@@ZA[edx+eax*4]
  0050d	ff d1		 call	 ecx
  0050f	89 45 c4	 mov	 DWORD PTR _group_type$[ebp], eax

; 2179 : 	
; 2180 : 							if (group_database [group_type].default_landing_type == ENTITY_SUB_TYPE_LANDING_FIXED_WING)

  00512	6b 45 c4 64	 imul	 eax, DWORD PTR _group_type$[ebp], 100
  00516	83 b8 18 00 00
	00 00		 cmp	 DWORD PTR ?group_database@@3PAUGROUP_DATA@@A[eax+24], 0
  0051d	0f 85 a1 00 00
	00		 jne	 $LN17@create_fix

; 2181 : 							{
; 2182 : 								if (get_local_entity_int_value (group, INT_TYPE_GROUP_MODE) == GROUP_MODE_IDLE)

  00523	83 7d f0 00	 cmp	 DWORD PTR _group$[ebp], 0
  00527	74 0d		 je	 SHORT $LN54@create_fix
  00529	8b 45 f0	 mov	 eax, DWORD PTR _group$[ebp]
  0052c	8b 08		 mov	 ecx, DWORD PTR [eax]
  0052e	89 8d 60 ff ff
	ff		 mov	 DWORD PTR tv272[ebp], ecx
  00534	eb 20		 jmp	 SHORT $LN55@create_fix
$LN54@create_fix:
  00536	68 86 08 00 00	 push	 2182			; 00000886H
  0053b	68 00 00 00 00	 push	 OFFSET ??_C@_0ED@GMECMFKH@c?3?2users?2nhv90?2projects?2eech?2ap@
  00540	8b 15 00 00 00
	00		 mov	 edx, DWORD PTR ?null_entity_pointer_message@@3PBDB ; null_entity_pointer_message
  00546	52		 push	 edx
  00547	e8 00 00 00 00	 call	 ?process_assert@@YGXPBD0H@Z ; process_assert
  0054c	c7 85 60 ff ff
	ff 00 00 00 00	 mov	 DWORD PTR tv272[ebp], 0
$LN55@create_fix:
  00556	b8 01 00 00 00	 mov	 eax, 1
  0055b	85 c0		 test	 eax, eax
  0055d	74 0c		 je	 SHORT $LN56@create_fix
  0055f	c7 85 5c ff ff
	ff 4d 00 00 00	 mov	 DWORD PTR tv279[ebp], 77 ; 0000004dH
  00569	eb 20		 jmp	 SHORT $LN57@create_fix
$LN56@create_fix:
  0056b	68 86 08 00 00	 push	 2182			; 00000886H
  00570	68 00 00 00 00	 push	 OFFSET ??_C@_0ED@GMECMFKH@c?3?2users?2nhv90?2projects?2eech?2ap@
  00575	8b 0d 00 00 00
	00		 mov	 ecx, DWORD PTR ?overload_invalid_int_type_message@@3PBDB ; overload_invalid_int_type_message
  0057b	51		 push	 ecx
  0057c	e8 00 00 00 00	 call	 ?process_assert@@YGXPBD0H@Z ; process_assert
  00581	c7 85 5c ff ff
	ff 00 00 00 00	 mov	 DWORD PTR tv279[ebp], 0
$LN57@create_fix:
  0058b	6a 4d		 push	 77			; 0000004dH
  0058d	8b 55 f0	 mov	 edx, DWORD PTR _group$[ebp]
  00590	52		 push	 edx
  00591	69 85 60 ff ff
	ff 5c 04 00 00	 imul	 eax, DWORD PTR tv272[ebp], 1116
  0059b	8b 8d 5c ff ff
	ff		 mov	 ecx, DWORD PTR tv279[ebp]
  005a1	8b 94 88 00 00
	00 00		 mov	 edx, DWORD PTR ?fn_get_local_entity_int_value@@3PAY0BBH@P6GHPAUENTITY@@W4INT_TYPES@@@ZA[eax+ecx*4]
  005a8	ff d2		 call	 edx
  005aa	85 c0		 test	 eax, eax
  005ac	75 16		 jne	 SHORT $LN17@create_fix

; 2183 : 								{
; 2184 : 									idle_group_count += 1.0;

  005ae	f3 0f 5a 45 b4	 cvtss2sd xmm0, DWORD PTR _idle_group_count$[ebp]
  005b3	f2 0f 58 05 00
	00 00 00	 addsd	 xmm0, QWORD PTR __real@3ff0000000000000
  005bb	f2 0f 5a c0	 cvtsd2ss xmm0, xmm0
  005bf	f3 0f 11 45 b4	 movss	 DWORD PTR _idle_group_count$[ebp], xmm0
$LN17@create_fix:

; 2185 : 								}
; 2186 : 							}
; 2187 : 	
; 2188 : 							group = get_local_entity_child_succ (group, LIST_TYPE_KEYSITE_GROUP);

  005c4	83 7d f0 00	 cmp	 DWORD PTR _group$[ebp], 0
  005c8	74 0d		 je	 SHORT $LN58@create_fix
  005ca	8b 45 f0	 mov	 eax, DWORD PTR _group$[ebp]
  005cd	8b 08		 mov	 ecx, DWORD PTR [eax]
  005cf	89 8d 60 ff ff
	ff		 mov	 DWORD PTR tv295[ebp], ecx
  005d5	eb 24		 jmp	 SHORT $LN59@create_fix
$LN58@create_fix:
  005d7	8b 15 00 00 00
	00		 mov	 edx, DWORD PTR ?__LINE__Var@?0??create_fixed_wing_transfer_tasks@@YGXXZ@4JA
  005dd	83 c2 59	 add	 edx, 89			; 00000059H
  005e0	52		 push	 edx
  005e1	68 00 00 00 00	 push	 OFFSET ??_C@_0ED@GMECMFKH@c?3?2users?2nhv90?2projects?2eech?2ap@
  005e6	a1 00 00 00 00	 mov	 eax, DWORD PTR ?null_entity_pointer_message@@3PBDB ; null_entity_pointer_message
  005eb	50		 push	 eax
  005ec	e8 00 00 00 00	 call	 ?process_assert@@YGXPBD0H@Z ; process_assert
  005f1	c7 85 60 ff ff
	ff 00 00 00 00	 mov	 DWORD PTR tv295[ebp], 0
$LN59@create_fix:
  005fb	b9 01 00 00 00	 mov	 ecx, 1
  00600	85 c9		 test	 ecx, ecx
  00602	74 0c		 je	 SHORT $LN60@create_fix
  00604	c7 85 5c ff ff
	ff 16 00 00 00	 mov	 DWORD PTR tv303[ebp], 22 ; 00000016H
  0060e	eb 24		 jmp	 SHORT $LN61@create_fix
$LN60@create_fix:
  00610	8b 15 00 00 00
	00		 mov	 edx, DWORD PTR ?__LINE__Var@?0??create_fixed_wing_transfer_tasks@@YGXXZ@4JA
  00616	83 c2 59	 add	 edx, 89			; 00000059H
  00619	52		 push	 edx
  0061a	68 00 00 00 00	 push	 OFFSET ??_C@_0ED@GMECMFKH@c?3?2users?2nhv90?2projects?2eech?2ap@
  0061f	a1 00 00 00 00	 mov	 eax, DWORD PTR ?overload_invalid_list_type_message@@3PBDB ; overload_invalid_list_type_message
  00624	50		 push	 eax
  00625	e8 00 00 00 00	 call	 ?process_assert@@YGXPBD0H@Z ; process_assert
  0062a	c7 85 5c ff ff
	ff 00 00 00 00	 mov	 DWORD PTR tv303[ebp], 0
$LN61@create_fix:
  00634	6a 16		 push	 22			; 00000016H
  00636	8b 4d f0	 mov	 ecx, DWORD PTR _group$[ebp]
  00639	51		 push	 ecx
  0063a	69 95 60 ff ff
	ff b4 00 00 00	 imul	 edx, DWORD PTR tv295[ebp], 180
  00644	8b 85 5c ff ff
	ff		 mov	 eax, DWORD PTR tv303[ebp]
  0064a	8b 8c 82 00 00
	00 00		 mov	 ecx, DWORD PTR ?fn_get_local_entity_child_succ@@3PAY0CN@P6GPAUENTITY@@PAU1@W4LIST_TYPES@@@ZA[edx+eax*4]
  00651	ff d1		 call	 ecx
  00653	89 45 f0	 mov	 DWORD PTR _group$[ebp], eax

; 2189 : 						}	

  00656	e9 1b fe ff ff	 jmp	 $LN6@create_fix
$LN7@create_fix:

; 2190 : 		
; 2191 : 						//
; 2192 : 						// get sector
; 2193 : 						//
; 2194 : 		
; 2195 : 						pos = get_local_entity_vec3d_ptr (keysite, VEC3D_TYPE_POSITION);

  0065b	83 7d ec 00	 cmp	 DWORD PTR _keysite$[ebp], 0
  0065f	74 0d		 je	 SHORT $LN62@create_fix
  00661	8b 45 ec	 mov	 eax, DWORD PTR _keysite$[ebp]
  00664	8b 08		 mov	 ecx, DWORD PTR [eax]
  00666	89 8d 60 ff ff
	ff		 mov	 DWORD PTR tv315[ebp], ecx
  0066c	eb 24		 jmp	 SHORT $LN63@create_fix
$LN62@create_fix:
  0066e	8b 15 00 00 00
	00		 mov	 edx, DWORD PTR ?__LINE__Var@?0??create_fixed_wing_transfer_tasks@@YGXXZ@4JA
  00674	83 c2 60	 add	 edx, 96			; 00000060H
  00677	52		 push	 edx
  00678	68 00 00 00 00	 push	 OFFSET ??_C@_0ED@GMECMFKH@c?3?2users?2nhv90?2projects?2eech?2ap@
  0067d	a1 00 00 00 00	 mov	 eax, DWORD PTR ?null_entity_pointer_message@@3PBDB ; null_entity_pointer_message
  00682	50		 push	 eax
  00683	e8 00 00 00 00	 call	 ?process_assert@@YGXPBD0H@Z ; process_assert
  00688	c7 85 60 ff ff
	ff 00 00 00 00	 mov	 DWORD PTR tv315[ebp], 0
$LN63@create_fix:
  00692	b9 01 00 00 00	 mov	 ecx, 1
  00697	85 c9		 test	 ecx, ecx
  00699	74 0c		 je	 SHORT $LN64@create_fix
  0069b	c7 85 5c ff ff
	ff 08 00 00 00	 mov	 DWORD PTR tv323[ebp], 8
  006a5	eb 24		 jmp	 SHORT $LN65@create_fix
$LN64@create_fix:
  006a7	8b 15 00 00 00
	00		 mov	 edx, DWORD PTR ?__LINE__Var@?0??create_fixed_wing_transfer_tasks@@YGXXZ@4JA
  006ad	83 c2 60	 add	 edx, 96			; 00000060H
  006b0	52		 push	 edx
  006b1	68 00 00 00 00	 push	 OFFSET ??_C@_0ED@GMECMFKH@c?3?2users?2nhv90?2projects?2eech?2ap@
  006b6	a1 00 00 00 00	 mov	 eax, DWORD PTR ?overload_invalid_vec3d_type_message@@3PBDB ; overload_invalid_vec3d_type_message
  006bb	50		 push	 eax
  006bc	e8 00 00 00 00	 call	 ?process_assert@@YGXPBD0H@Z ; process_assert
  006c1	c7 85 5c ff ff
	ff 00 00 00 00	 mov	 DWORD PTR tv323[ebp], 0
$LN65@create_fix:
  006cb	6a 08		 push	 8
  006cd	8b 4d ec	 mov	 ecx, DWORD PTR _keysite$[ebp]
  006d0	51		 push	 ecx
  006d1	6b 95 60 ff ff
	ff 60		 imul	 edx, DWORD PTR tv315[ebp], 96
  006d8	8b 85 5c ff ff
	ff		 mov	 eax, DWORD PTR tv323[ebp]
  006de	8b 8c 82 00 00
	00 00		 mov	 ecx, DWORD PTR ?fn_get_local_entity_vec3d_ptr@@3PAY0BI@P6GPAUVEC3D@@PAUENTITY@@W4VEC3D_TYPES@@@ZA[edx+eax*4]
  006e5	ff d1		 call	 ecx
  006e7	89 45 dc	 mov	 DWORD PTR _pos$[ebp], eax

; 2196 : 									
; 2197 : 						get_x_sector (x, pos->x);

  006ea	8d 45 d8	 lea	 eax, DWORD PTR _x$[ebp]
  006ed	50		 push	 eax
  006ee	8b 4d dc	 mov	 ecx, DWORD PTR _pos$[ebp]
  006f1	f3 0f 10 01	 movss	 xmm0, DWORD PTR [ecx]
  006f5	51		 push	 ecx
  006f6	f3 0f 11 04 24	 movss	 DWORD PTR [esp], xmm0
  006fb	e8 00 00 00 00	 call	 ?convert_float_to_int@@YGXMPAH@Z ; convert_float_to_int
  00700	8b 45 d8	 mov	 eax, DWORD PTR _x$[ebp]
  00703	99		 cdq
  00704	f7 3d 00 00 00
	00		 idiv	 DWORD PTR ?world_map@@3UWORLD_MAP_DATA@@A
  0070a	89 45 d8	 mov	 DWORD PTR _x$[ebp], eax

; 2198 : 						get_z_sector (z, pos->z);

  0070d	8d 45 d4	 lea	 eax, DWORD PTR _z$[ebp]
  00710	50		 push	 eax
  00711	8b 4d dc	 mov	 ecx, DWORD PTR _pos$[ebp]
  00714	f3 0f 10 41 08	 movss	 xmm0, DWORD PTR [ecx+8]
  00719	51		 push	 ecx
  0071a	f3 0f 11 04 24	 movss	 DWORD PTR [esp], xmm0
  0071f	e8 00 00 00 00	 call	 ?convert_float_to_int@@YGXMPAH@Z ; convert_float_to_int
  00724	8b 45 d4	 mov	 eax, DWORD PTR _z$[ebp]
  00727	99		 cdq
  00728	f7 3d 00 00 00
	00		 idiv	 DWORD PTR ?world_map@@3UWORLD_MAP_DATA@@A
  0072e	89 45 d4	 mov	 DWORD PTR _z$[ebp], eax

; 2199 : 		
; 2200 : 						//
; 2201 : 						// Calculate keysite rating
; 2202 : 						//
; 2203 : 	
; 2204 : 						importance_rating = get_imap_value (IMAP_IMPORTANCE, side, x, z);

  00731	8b 45 d4	 mov	 eax, DWORD PTR _z$[ebp]
  00734	50		 push	 eax
  00735	8b 4d d8	 mov	 ecx, DWORD PTR _x$[ebp]
  00738	51		 push	 ecx
  00739	8b 55 fc	 mov	 edx, DWORD PTR _side$[ebp]
  0073c	52		 push	 edx
  0073d	6a 00		 push	 0
  0073f	e8 00 00 00 00	 call	 ?get_imap_value@@YGMW4IMAP_TYPES@@W4ENTITY_SIDES@@HH@Z ; get_imap_value
  00744	d9 1d 00 00 00
	00		 fstp	 DWORD PTR ?importance_rating@@3MA

; 2205 : 	
; 2206 : 						air_defence_rating = get_imap_value (IMAP_AIR_DEFENCE, side, x, z);

  0074a	8b 45 d4	 mov	 eax, DWORD PTR _z$[ebp]
  0074d	50		 push	 eax
  0074e	8b 4d d8	 mov	 ecx, DWORD PTR _x$[ebp]
  00751	51		 push	 ecx
  00752	8b 55 fc	 mov	 edx, DWORD PTR _side$[ebp]
  00755	52		 push	 edx
  00756	6a 02		 push	 2
  00758	e8 00 00 00 00	 call	 ?get_imap_value@@YGMW4IMAP_TYPES@@W4ENTITY_SIDES@@HH@Z ; get_imap_value
  0075d	d9 1d 00 00 00
	00		 fstp	 DWORD PTR ?air_defence_rating@@3MA

; 2207 : 	
; 2208 : 						surface_defence_rating = get_imap_value (IMAP_SURFACE_DEFENCE, side, x, z);

  00763	8b 45 d4	 mov	 eax, DWORD PTR _z$[ebp]
  00766	50		 push	 eax
  00767	8b 4d d8	 mov	 ecx, DWORD PTR _x$[ebp]
  0076a	51		 push	 ecx
  0076b	8b 55 fc	 mov	 edx, DWORD PTR _side$[ebp]
  0076e	52		 push	 edx
  0076f	6a 03		 push	 3
  00771	e8 00 00 00 00	 call	 ?get_imap_value@@YGMW4IMAP_TYPES@@W4ENTITY_SIDES@@HH@Z ; get_imap_value
  00776	d9 1d 00 00 00
	00		 fstp	 DWORD PTR ?surface_defence_rating@@3MA

; 2209 : 	
; 2210 : 						base_distance_rating = get_imap_value (IMAP_BASE_DISTANCE, side, x, z);

  0077c	8b 45 d4	 mov	 eax, DWORD PTR _z$[ebp]
  0077f	50		 push	 eax
  00780	8b 4d d8	 mov	 ecx, DWORD PTR _x$[ebp]
  00783	51		 push	 ecx
  00784	8b 55 fc	 mov	 edx, DWORD PTR _side$[ebp]
  00787	52		 push	 edx
  00788	6a 01		 push	 1
  0078a	e8 00 00 00 00	 call	 ?get_imap_value@@YGMW4IMAP_TYPES@@W4ENTITY_SIDES@@HH@Z ; get_imap_value
  0078f	d9 1d 00 00 00
	00		 fstp	 DWORD PTR ?base_distance_rating@@3MA

; 2211 : 	
; 2212 : 						rating = 0.0;

  00795	0f 57 c0	 xorps	 xmm0, xmm0
  00798	f3 0f 11 45 b8	 movss	 DWORD PTR _rating$[ebp], xmm0

; 2213 : 		
; 2214 : 						// high enemy importance
; 2215 : //						rating += (importance_rating);
; 2216 : 	
; 2217 : 						// high enemy S-A threat 
; 2218 : //						rating += (air_defence_rating);
; 2219 : 	
; 2220 : 						// high enemy S-S threat
; 2221 : //						rating += (surface_defence_rating);
; 2222 : 	
; 2223 : 						// close to enemy base
; 2224 : 						rating += 4.0 * base_distance_rating;

  0079d	f3 0f 5a 05 00
	00 00 00	 cvtss2sd xmm0, DWORD PTR ?base_distance_rating@@3MA
  007a5	f2 0f 59 05 00
	00 00 00	 mulsd	 xmm0, QWORD PTR __real@4010000000000000
  007ad	f3 0f 5a 4d b8	 cvtss2sd xmm1, DWORD PTR _rating$[ebp]
  007b2	f2 0f 58 c8	 addsd	 xmm1, xmm0
  007b6	f2 0f 5a c1	 cvtsd2ss xmm0, xmm1
  007ba	f3 0f 11 45 b8	 movss	 DWORD PTR _rating$[ebp], xmm0

; 2225 : 	
; 2226 : 						// low idle group count
; 2227 : 						idle_group_count = min (idle_group_count, 4.0f) * 0.25;

  007bf	f3 0f 10 05 00
	00 00 00	 movss	 xmm0, DWORD PTR __real@40800000
  007c7	f3 0f 11 85 6c
	ff ff ff	 movss	 DWORD PTR $T3[ebp], xmm0
  007cf	8d 85 6c ff ff
	ff		 lea	 eax, DWORD PTR $T3[ebp]
  007d5	50		 push	 eax
  007d6	8d 4d b4	 lea	 ecx, DWORD PTR _idle_group_count$[ebp]
  007d9	51		 push	 ecx
  007da	e8 00 00 00 00	 call	 ??$min@M@std@@YGABMABM0@Z ; std::min<float>
  007df	f3 0f 5a 00	 cvtss2sd xmm0, DWORD PTR [eax]
  007e3	f2 0f 59 05 00
	00 00 00	 mulsd	 xmm0, QWORD PTR __real@3fd0000000000000
  007eb	f2 0f 5a c0	 cvtsd2ss xmm0, xmm0
  007ef	f3 0f 11 45 b4	 movss	 DWORD PTR _idle_group_count$[ebp], xmm0

; 2228 : 	
; 2229 : 						rating += 4.0 * (1.0 - idle_group_count);

  007f4	f3 0f 5a 45 b4	 cvtss2sd xmm0, DWORD PTR _idle_group_count$[ebp]
  007f9	f2 0f 10 0d 00
	00 00 00	 movsd	 xmm1, QWORD PTR __real@3ff0000000000000
  00801	f2 0f 5c c8	 subsd	 xmm1, xmm0
  00805	f2 0f 59 0d 00
	00 00 00	 mulsd	 xmm1, QWORD PTR __real@4010000000000000
  0080d	f3 0f 5a 45 b8	 cvtss2sd xmm0, DWORD PTR _rating$[ebp]
  00812	f2 0f 58 c1	 addsd	 xmm0, xmm1
  00816	f2 0f 5a c0	 cvtsd2ss xmm0, xmm0
  0081a	f3 0f 11 45 b8	 movss	 DWORD PTR _rating$[ebp], xmm0

; 2230 : 	
; 2231 : 						max_rating = 8.0;

  0081f	f3 0f 10 05 00
	00 00 00	 movss	 xmm0, DWORD PTR __real@41000000
  00827	f3 0f 11 45 b0	 movss	 DWORD PTR _max_rating$[ebp], xmm0

; 2232 : 	
; 2233 : 						//
; 2234 : 						// Store
; 2235 : 						//
; 2236 : 		
; 2237 : 						if (rating > 0.0)

  0082c	f3 0f 5a 45 b8	 cvtss2sd xmm0, DWORD PTR _rating$[ebp]
  00831	66 0f 2f 05 00
	00 00 00	 comisd	 xmm0, QWORD PTR __real@0000000000000000
  00839	76 27		 jbe	 SHORT $LN18@create_fix

; 2238 : 						{
; 2239 : 							target_list [count] = keysite;

  0083b	8b 45 c8	 mov	 eax, DWORD PTR _count$[ebp]
  0083e	8b 4d ec	 mov	 ecx, DWORD PTR _keysite$[ebp]
  00841	89 0c 85 00 00
	00 00		 mov	 DWORD PTR ?target_list@@3PAPAUENTITY@@A[eax*4], ecx

; 2240 : 		
; 2241 : 							target_rating [count] = rating;

  00848	8b 45 c8	 mov	 eax, DWORD PTR _count$[ebp]
  0084b	f3 0f 10 45 b8	 movss	 xmm0, DWORD PTR _rating$[ebp]
  00850	f3 0f 11 04 85
	00 00 00 00	 movss	 DWORD PTR ?target_rating@@3PAMA[eax*4], xmm0

; 2242 : 		
; 2243 : 							count ++;

  00859	8b 45 c8	 mov	 eax, DWORD PTR _count$[ebp]
  0085c	83 c0 01	 add	 eax, 1
  0085f	89 45 c8	 mov	 DWORD PTR _count$[ebp], eax
$LN18@create_fix:

; 2244 : 						}
; 2245 : 					}
; 2246 : 				}
; 2247 : 			}	
; 2248 : 
; 2249 : 			keysite = get_local_entity_child_succ (keysite, LIST_TYPE_KEYSITE_FORCE);

  00862	83 7d ec 00	 cmp	 DWORD PTR _keysite$[ebp], 0
  00866	74 0d		 je	 SHORT $LN66@create_fix
  00868	8b 45 ec	 mov	 eax, DWORD PTR _keysite$[ebp]
  0086b	8b 08		 mov	 ecx, DWORD PTR [eax]
  0086d	89 8d 60 ff ff
	ff		 mov	 DWORD PTR tv389[ebp], ecx
  00873	eb 27		 jmp	 SHORT $LN67@create_fix
$LN66@create_fix:
  00875	8b 15 00 00 00
	00		 mov	 edx, DWORD PTR ?__LINE__Var@?0??create_fixed_wing_transfer_tasks@@YGXXZ@4JA
  0087b	81 c2 96 00 00
	00		 add	 edx, 150		; 00000096H
  00881	52		 push	 edx
  00882	68 00 00 00 00	 push	 OFFSET ??_C@_0ED@GMECMFKH@c?3?2users?2nhv90?2projects?2eech?2ap@
  00887	a1 00 00 00 00	 mov	 eax, DWORD PTR ?null_entity_pointer_message@@3PBDB ; null_entity_pointer_message
  0088c	50		 push	 eax
  0088d	e8 00 00 00 00	 call	 ?process_assert@@YGXPBD0H@Z ; process_assert
  00892	c7 85 60 ff ff
	ff 00 00 00 00	 mov	 DWORD PTR tv389[ebp], 0
$LN67@create_fix:
  0089c	b9 01 00 00 00	 mov	 ecx, 1
  008a1	85 c9		 test	 ecx, ecx
  008a3	74 0c		 je	 SHORT $LN68@create_fix
  008a5	c7 85 5c ff ff
	ff 15 00 00 00	 mov	 DWORD PTR tv397[ebp], 21 ; 00000015H
  008af	eb 27		 jmp	 SHORT $LN69@create_fix
$LN68@create_fix:
  008b1	8b 15 00 00 00
	00		 mov	 edx, DWORD PTR ?__LINE__Var@?0??create_fixed_wing_transfer_tasks@@YGXXZ@4JA
  008b7	81 c2 96 00 00
	00		 add	 edx, 150		; 00000096H
  008bd	52		 push	 edx
  008be	68 00 00 00 00	 push	 OFFSET ??_C@_0ED@GMECMFKH@c?3?2users?2nhv90?2projects?2eech?2ap@
  008c3	a1 00 00 00 00	 mov	 eax, DWORD PTR ?overload_invalid_list_type_message@@3PBDB ; overload_invalid_list_type_message
  008c8	50		 push	 eax
  008c9	e8 00 00 00 00	 call	 ?process_assert@@YGXPBD0H@Z ; process_assert
  008ce	c7 85 5c ff ff
	ff 00 00 00 00	 mov	 DWORD PTR tv397[ebp], 0
$LN69@create_fix:
  008d8	6a 15		 push	 21			; 00000015H
  008da	8b 4d ec	 mov	 ecx, DWORD PTR _keysite$[ebp]
  008dd	51		 push	 ecx
  008de	69 95 60 ff ff
	ff b4 00 00 00	 imul	 edx, DWORD PTR tv389[ebp], 180
  008e8	8b 85 5c ff ff
	ff		 mov	 eax, DWORD PTR tv397[ebp]
  008ee	8b 8c 82 00 00
	00 00		 mov	 ecx, DWORD PTR ?fn_get_local_entity_child_succ@@3PAY0CN@P6GPAUENTITY@@PAU1@W4LIST_TYPES@@@ZA[edx+eax*4]
  008f5	ff d1		 call	 ecx
  008f7	89 45 ec	 mov	 DWORD PTR _keysite$[ebp], eax

; 2250 : 		}

  008fa	e9 74 f9 ff ff	 jmp	 $LN4@create_fix
$LN5@create_fix:

; 2251 : 
; 2252 : 		//
; 2253 : 		// Create TRANSFER tasks
; 2254 : 		//
; 2255 : 
; 2256 : 		if (count > 0)

  008ff	83 7d c8 00	 cmp	 DWORD PTR _count$[ebp], 0
  00903	0f 8e b4 02 00
	00		 jle	 $LN9@create_fix

; 2257 : 		{
; 2258 : 			quicksort_entity_list (target_list, count, target_rating);

  00909	68 00 00 00 00	 push	 OFFSET ?target_rating@@3PAMA
  0090e	8b 45 c8	 mov	 eax, DWORD PTR _count$[ebp]
  00911	50		 push	 eax
  00912	68 00 00 00 00	 push	 OFFSET ?target_list@@3PAPAUENTITY@@A
  00917	e8 00 00 00 00	 call	 ?quicksort_entity_list@@YGXPAPAUENTITY@@HPAM@Z ; quicksort_entity_list

; 2259 : 
; 2260 : 			keysite_count = min (count / 2, CREATE_TRANSFER_TASK_COUNT);

  0091c	c7 85 68 ff ff
	ff 03 00 00 00	 mov	 DWORD PTR $T2[ebp], 3
  00926	8b 45 c8	 mov	 eax, DWORD PTR _count$[ebp]
  00929	99		 cdq
  0092a	2b c2		 sub	 eax, edx
  0092c	d1 f8		 sar	 eax, 1
  0092e	89 85 64 ff ff
	ff		 mov	 DWORD PTR $T1[ebp], eax
  00934	8d 85 68 ff ff
	ff		 lea	 eax, DWORD PTR $T2[ebp]
  0093a	50		 push	 eax
  0093b	8d 8d 64 ff ff
	ff		 lea	 ecx, DWORD PTR $T1[ebp]
  00941	51		 push	 ecx
  00942	e8 00 00 00 00	 call	 ??$min@H@std@@YGABHABH0@Z ; std::min<int>
  00947	8b 10		 mov	 edx, DWORD PTR [eax]
  00949	89 55 c0	 mov	 DWORD PTR _keysite_count$[ebp], edx

; 2261 : 
; 2262 : 			loop2 = count - 1;

  0094c	8b 45 c8	 mov	 eax, DWORD PTR _count$[ebp]
  0094f	83 e8 01	 sub	 eax, 1
  00952	89 45 cc	 mov	 DWORD PTR _loop2$[ebp], eax

; 2263 : 
; 2264 : 			for (loop = 0; loop < keysite_count; loop ++)

  00955	c7 45 d0 00 00
	00 00		 mov	 DWORD PTR _loop$[ebp], 0
  0095c	eb 09		 jmp	 SHORT $LN10@create_fix
$LN8@create_fix:
  0095e	8b 45 d0	 mov	 eax, DWORD PTR _loop$[ebp]
  00961	83 c0 01	 add	 eax, 1
  00964	89 45 d0	 mov	 DWORD PTR _loop$[ebp], eax
$LN10@create_fix:
  00967	8b 45 d0	 mov	 eax, DWORD PTR _loop$[ebp]
  0096a	3b 45 c0	 cmp	 eax, DWORD PTR _keysite_count$[ebp]
  0096d	0f 8d 4a 02 00
	00		 jge	 $LN9@create_fix

; 2265 : 			{
; 2266 : //				if ((target_rating [loop] > (max_rating * 0.5)) && (target_rating [loop2] < (max_rating * 0.5)))
; 2267 : 				{
; 2268 : 					keysite = target_list [loop];

  00973	8b 45 d0	 mov	 eax, DWORD PTR _loop$[ebp]
  00976	8b 0c 85 00 00
	00 00		 mov	 ecx, DWORD PTR ?target_list@@3PAPAUENTITY@@A[eax*4]
  0097d	89 4d ec	 mov	 DWORD PTR _keysite$[ebp], ecx

; 2269 : 	
; 2270 : 					if (!entity_is_object_of_task (keysite, ENTITY_SUB_TYPE_TASK_TRANSFER_FIXED_WING, this_side))

  00980	8b 45 f8	 mov	 eax, DWORD PTR _this_side$[ebp]
  00983	50		 push	 eax
  00984	6a 18		 push	 24			; 00000018H
  00986	8b 4d ec	 mov	 ecx, DWORD PTR _keysite$[ebp]
  00989	51		 push	 ecx
  0098a	e8 00 00 00 00	 call	 ?entity_is_object_of_task@@YGHPAUENTITY@@HW4ENTITY_SIDES@@@Z ; entity_is_object_of_task
  0098f	85 c0		 test	 eax, eax
  00991	0f 85 21 02 00
	00		 jne	 $LN22@create_fix

; 2271 : 					{
; 2272 : 						//
; 2273 : 						// Check landing sites free
; 2274 : 						//
; 2275 : 	
; 2276 : 						landing_en = get_local_entity_landing_entity (keysite, ENTITY_SUB_TYPE_LANDING_FIXED_WING);

  00997	6a 00		 push	 0
  00999	8b 45 ec	 mov	 eax, DWORD PTR _keysite$[ebp]
  0099c	50		 push	 eax
  0099d	e8 00 00 00 00	 call	 ?get_local_entity_landing_entity@@YGPAUENTITY@@PAU1@H@Z ; get_local_entity_landing_entity
  009a2	89 45 e4	 mov	 DWORD PTR _landing_en$[ebp], eax

; 2277 : 	
; 2278 : 						ASSERT (landing_en);

  009a5	83 7d e4 00	 cmp	 DWORD PTR _landing_en$[ebp], 0
  009a9	75 1a		 jne	 SHORT $LN21@create_fix
  009ab	a1 00 00 00 00	 mov	 eax, DWORD PTR ?__LINE__Var@?0??create_fixed_wing_transfer_tasks@@YGXXZ@4JA
  009b0	05 b3 00 00 00	 add	 eax, 179		; 000000b3H
  009b5	50		 push	 eax
  009b6	68 00 00 00 00	 push	 OFFSET ??_C@_0ED@GMECMFKH@c?3?2users?2nhv90?2projects?2eech?2ap@
  009bb	68 00 00 00 00	 push	 OFFSET ??_C@_0L@BBFNENIC@landing_en@
  009c0	e8 00 00 00 00	 call	 ?process_assert@@YGXPBD0H@Z ; process_assert
$LN21@create_fix:

; 2279 : 						
; 2280 : 						landing_raw = (landing*) get_local_entity_data (landing_en);

  009c5	8b 45 e4	 mov	 eax, DWORD PTR _landing_en$[ebp]
  009c8	8b 48 04	 mov	 ecx, DWORD PTR [eax+4]
  009cb	89 4d e0	 mov	 DWORD PTR _landing_raw$[ebp], ecx

; 2281 : 	
; 2282 : 						//if (landing_raw->free_landing_sites >= 4)
; 2283 : 						if (get_keysite_landing_sites_available (keysite, ENTITY_SUB_TYPE_LANDING_FIXED_WING))

  009ce	6a 00		 push	 0
  009d0	8b 45 ec	 mov	 eax, DWORD PTR _keysite$[ebp]
  009d3	50		 push	 eax
  009d4	e8 00 00 00 00	 call	 ?get_keysite_landing_sites_available@@YGHPAUENTITY@@H@Z ; get_keysite_landing_sites_available
  009d9	85 c0		 test	 eax, eax
  009db	0f 84 d7 01 00
	00		 je	 $LN22@create_fix

; 2284 : 						{
; 2285 : 							donar = target_list [loop2];	

  009e1	8b 45 cc	 mov	 eax, DWORD PTR _loop2$[ebp]
  009e4	8b 0c 85 00 00
	00 00		 mov	 ecx, DWORD PTR ?target_list@@3PAPAUENTITY@@A[eax*4]
  009eb	89 4d e8	 mov	 DWORD PTR _donar$[ebp], ecx

; 2286 : 						
; 2287 : 							priority = ((target_rating [loop] - target_rating [loop2]) / max_rating) * task_database [ENTITY_SUB_TYPE_TASK_TRANSFER_FIXED_WING].task_priority;

  009ee	8b 45 d0	 mov	 eax, DWORD PTR _loop$[ebp]
  009f1	8b 4d cc	 mov	 ecx, DWORD PTR _loop2$[ebp]
  009f4	f3 0f 10 04 85
	00 00 00 00	 movss	 xmm0, DWORD PTR ?target_rating@@3PAMA[eax*4]
  009fd	f3 0f 5c 04 8d
	00 00 00 00	 subss	 xmm0, DWORD PTR ?target_rating@@3PAMA[ecx*4]
  00a06	f3 0f 5e 45 b0	 divss	 xmm0, DWORD PTR _max_rating$[ebp]
  00a0b	ba 50 00 00 00	 mov	 edx, 80			; 00000050H
  00a10	6b c2 18	 imul	 eax, edx, 24
  00a13	f3 0f 59 80 10
	00 00 00	 mulss	 xmm0, DWORD PTR ?task_database@@3PAUTASK_DATA@@A[eax+16]
  00a1b	f3 0f 11 45 bc	 movss	 DWORD PTR _priority$[ebp], xmm0

; 2288 : 	
; 2289 : 							create_transfer_task (this_side, ENTITY_SUB_TYPE_TASK_TRANSFER_FIXED_WING, priority, donar, keysite);

  00a20	8b 45 ec	 mov	 eax, DWORD PTR _keysite$[ebp]
  00a23	50		 push	 eax
  00a24	8b 4d e8	 mov	 ecx, DWORD PTR _donar$[ebp]
  00a27	51		 push	 ecx
  00a28	51		 push	 ecx
  00a29	f3 0f 10 45 bc	 movss	 xmm0, DWORD PTR _priority$[ebp]
  00a2e	f3 0f 11 04 24	 movss	 DWORD PTR [esp], xmm0
  00a33	6a 18		 push	 24			; 00000018H
  00a35	8b 55 f8	 mov	 edx, DWORD PTR _this_side$[ebp]
  00a38	52		 push	 edx
  00a39	e8 00 00 00 00	 call	 ?create_transfer_task@@YGPAUENTITY@@W4ENTITY_SIDES@@HMPAU1@1@Z ; create_transfer_task

; 2290 : 	
; 2291 : 							ai_log ("(TASK) %s TRANSFER - From %s (%.3f) To %s (%.3f) - CREATED (Priority %f)",

  00a3e	83 7d ec 00	 cmp	 DWORD PTR _keysite$[ebp], 0
  00a42	74 0d		 je	 SHORT $LN70@create_fix
  00a44	8b 45 ec	 mov	 eax, DWORD PTR _keysite$[ebp]
  00a47	8b 08		 mov	 ecx, DWORD PTR [eax]
  00a49	89 8d 60 ff ff
	ff		 mov	 DWORD PTR tv463[ebp], ecx
  00a4f	eb 27		 jmp	 SHORT $LN71@create_fix
$LN70@create_fix:
  00a51	8b 15 00 00 00
	00		 mov	 edx, DWORD PTR ?__LINE__Var@?0??create_fixed_wing_transfer_tasks@@YGXXZ@4JA
  00a57	81 c2 c4 00 00
	00		 add	 edx, 196		; 000000c4H
  00a5d	52		 push	 edx
  00a5e	68 00 00 00 00	 push	 OFFSET ??_C@_0ED@GMECMFKH@c?3?2users?2nhv90?2projects?2eech?2ap@
  00a63	a1 00 00 00 00	 mov	 eax, DWORD PTR ?null_entity_pointer_message@@3PBDB ; null_entity_pointer_message
  00a68	50		 push	 eax
  00a69	e8 00 00 00 00	 call	 ?process_assert@@YGXPBD0H@Z ; process_assert
  00a6e	c7 85 60 ff ff
	ff 00 00 00 00	 mov	 DWORD PTR tv463[ebp], 0
$LN71@create_fix:
  00a78	b9 01 00 00 00	 mov	 ecx, 1
  00a7d	85 c9		 test	 ecx, ecx
  00a7f	74 0c		 je	 SHORT $LN72@create_fix
  00a81	c7 85 5c ff ff
	ff 07 00 00 00	 mov	 DWORD PTR tv471[ebp], 7
  00a8b	eb 27		 jmp	 SHORT $LN73@create_fix
$LN72@create_fix:
  00a8d	8b 15 00 00 00
	00		 mov	 edx, DWORD PTR ?__LINE__Var@?0??create_fixed_wing_transfer_tasks@@YGXXZ@4JA
  00a93	81 c2 c4 00 00
	00		 add	 edx, 196		; 000000c4H
  00a99	52		 push	 edx
  00a9a	68 00 00 00 00	 push	 OFFSET ??_C@_0ED@GMECMFKH@c?3?2users?2nhv90?2projects?2eech?2ap@
  00a9f	a1 00 00 00 00	 mov	 eax, DWORD PTR ?overload_invalid_string_type_message@@3PBDB ; overload_invalid_string_type_message
  00aa4	50		 push	 eax
  00aa5	e8 00 00 00 00	 call	 ?process_assert@@YGXPBD0H@Z ; process_assert
  00aaa	c7 85 5c ff ff
	ff 00 00 00 00	 mov	 DWORD PTR tv471[ebp], 0
$LN73@create_fix:
  00ab4	83 7d e8 00	 cmp	 DWORD PTR _donar$[ebp], 0
  00ab8	74 0d		 je	 SHORT $LN74@create_fix
  00aba	8b 4d e8	 mov	 ecx, DWORD PTR _donar$[ebp]
  00abd	8b 11		 mov	 edx, DWORD PTR [ecx]
  00abf	89 95 58 ff ff
	ff		 mov	 DWORD PTR tv488[ebp], edx
  00ac5	eb 26		 jmp	 SHORT $LN75@create_fix
$LN74@create_fix:
  00ac7	a1 00 00 00 00	 mov	 eax, DWORD PTR ?__LINE__Var@?0??create_fixed_wing_transfer_tasks@@YGXXZ@4JA
  00acc	05 c2 00 00 00	 add	 eax, 194		; 000000c2H
  00ad1	50		 push	 eax
  00ad2	68 00 00 00 00	 push	 OFFSET ??_C@_0ED@GMECMFKH@c?3?2users?2nhv90?2projects?2eech?2ap@
  00ad7	8b 0d 00 00 00
	00		 mov	 ecx, DWORD PTR ?null_entity_pointer_message@@3PBDB ; null_entity_pointer_message
  00add	51		 push	 ecx
  00ade	e8 00 00 00 00	 call	 ?process_assert@@YGXPBD0H@Z ; process_assert
  00ae3	c7 85 58 ff ff
	ff 00 00 00 00	 mov	 DWORD PTR tv488[ebp], 0
$LN75@create_fix:
  00aed	ba 01 00 00 00	 mov	 edx, 1
  00af2	85 d2		 test	 edx, edx
  00af4	74 0c		 je	 SHORT $LN76@create_fix
  00af6	c7 85 54 ff ff
	ff 07 00 00 00	 mov	 DWORD PTR tv496[ebp], 7
  00b00	eb 26		 jmp	 SHORT $LN77@create_fix
$LN76@create_fix:
  00b02	a1 00 00 00 00	 mov	 eax, DWORD PTR ?__LINE__Var@?0??create_fixed_wing_transfer_tasks@@YGXXZ@4JA
  00b07	05 c2 00 00 00	 add	 eax, 194		; 000000c2H
  00b0c	50		 push	 eax
  00b0d	68 00 00 00 00	 push	 OFFSET ??_C@_0ED@GMECMFKH@c?3?2users?2nhv90?2projects?2eech?2ap@
  00b12	8b 0d 00 00 00
	00		 mov	 ecx, DWORD PTR ?overload_invalid_string_type_message@@3PBDB ; overload_invalid_string_type_message
  00b18	51		 push	 ecx
  00b19	e8 00 00 00 00	 call	 ?process_assert@@YGXPBD0H@Z ; process_assert
  00b1e	c7 85 54 ff ff
	ff 00 00 00 00	 mov	 DWORD PTR tv496[ebp], 0
$LN77@create_fix:
  00b28	f3 0f 5a 45 bc	 cvtss2sd xmm0, DWORD PTR _priority$[ebp]
  00b2d	83 ec 08	 sub	 esp, 8
  00b30	f2 0f 11 04 24	 movsd	 QWORD PTR [esp], xmm0
  00b35	8b 55 d0	 mov	 edx, DWORD PTR _loop$[ebp]
  00b38	f3 0f 5a 04 95
	00 00 00 00	 cvtss2sd xmm0, DWORD PTR ?target_rating@@3PAMA[edx*4]
  00b41	83 ec 08	 sub	 esp, 8
  00b44	f2 0f 11 04 24	 movsd	 QWORD PTR [esp], xmm0
  00b49	6a 07		 push	 7
  00b4b	8b 45 ec	 mov	 eax, DWORD PTR _keysite$[ebp]
  00b4e	50		 push	 eax
  00b4f	6b 8d 60 ff ff
	ff 34		 imul	 ecx, DWORD PTR tv463[ebp], 52
  00b56	8b 95 5c ff ff
	ff		 mov	 edx, DWORD PTR tv471[ebp]
  00b5c	8b 84 91 00 00
	00 00		 mov	 eax, DWORD PTR ?fn_get_local_entity_string@@3PAY0N@P6GPBDPAUENTITY@@W4STRING_TYPES@@@ZA[ecx+edx*4]
  00b63	ff d0		 call	 eax
  00b65	50		 push	 eax
  00b66	8b 4d cc	 mov	 ecx, DWORD PTR _loop2$[ebp]
  00b69	f3 0f 5a 04 8d
	00 00 00 00	 cvtss2sd xmm0, DWORD PTR ?target_rating@@3PAMA[ecx*4]
  00b72	83 ec 08	 sub	 esp, 8
  00b75	f2 0f 11 04 24	 movsd	 QWORD PTR [esp], xmm0
  00b7a	6a 07		 push	 7
  00b7c	8b 55 e8	 mov	 edx, DWORD PTR _donar$[ebp]
  00b7f	52		 push	 edx
  00b80	6b 85 58 ff ff
	ff 34		 imul	 eax, DWORD PTR tv488[ebp], 52
  00b87	8b 8d 54 ff ff
	ff		 mov	 ecx, DWORD PTR tv496[ebp]
  00b8d	8b 94 88 00 00
	00 00		 mov	 edx, DWORD PTR ?fn_get_local_entity_string@@3PAY0N@P6GPBDPAUENTITY@@W4STRING_TYPES@@@ZA[eax+ecx*4]
  00b94	ff d2		 call	 edx
  00b96	50		 push	 eax
  00b97	8b 45 f8	 mov	 eax, DWORD PTR _this_side$[ebp]
  00b9a	8b 0c 85 00 00
	00 00		 mov	 ecx, DWORD PTR ?entity_side_short_names@@3PAPBDA[eax*4]
  00ba1	51		 push	 ecx
  00ba2	68 00 00 00 00	 push	 OFFSET ??_C@_0EJ@ELLEGADD@?$CITASK?$CJ?5?$CFs?5TRANSFER?5?9?5From?5?$CFs?5?$CI?$CF@
  00ba7	e8 00 00 00 00	 call	 ?ai_log@@YAXPBDZZ	; ai_log
  00bac	83 c4 28	 add	 esp, 40			; 00000028H

; 2292 : 										entity_side_short_names [this_side],
; 2293 : 										get_local_entity_string (donar, STRING_TYPE_KEYSITE_NAME),
; 2294 : 										target_rating [loop2],
; 2295 : 										get_local_entity_string (keysite, STRING_TYPE_KEYSITE_NAME),
; 2296 : 										target_rating [loop],
; 2297 : 										priority);
; 2298 : 
; 2299 : 							loop2 --;

  00baf	8b 45 cc	 mov	 eax, DWORD PTR _loop2$[ebp]
  00bb2	83 e8 01	 sub	 eax, 1
  00bb5	89 45 cc	 mov	 DWORD PTR _loop2$[ebp], eax
$LN22@create_fix:

; 2300 : 						}
; 2301 : 					}
; 2302 : 				}
; 2303 : 			}

  00bb8	e9 a1 fd ff ff	 jmp	 $LN8@create_fix
$LN9@create_fix:

; 2304 : 		}
; 2305 : 
; 2306 : 		//
; 2307 : 		// Next force
; 2308 : 		//
; 2309 : 	
; 2310 : 		force = get_local_entity_child_succ (force, LIST_TYPE_FORCE);

  00bbd	83 7d f4 00	 cmp	 DWORD PTR _force$[ebp], 0
  00bc1	74 0d		 je	 SHORT $LN78@create_fix
  00bc3	8b 45 f4	 mov	 eax, DWORD PTR _force$[ebp]
  00bc6	8b 08		 mov	 ecx, DWORD PTR [eax]
  00bc8	89 8d 60 ff ff
	ff		 mov	 DWORD PTR tv514[ebp], ecx
  00bce	eb 27		 jmp	 SHORT $LN79@create_fix
$LN78@create_fix:
  00bd0	8b 15 00 00 00
	00		 mov	 edx, DWORD PTR ?__LINE__Var@?0??create_fixed_wing_transfer_tasks@@YGXXZ@4JA
  00bd6	81 c2 d3 00 00
	00		 add	 edx, 211		; 000000d3H
  00bdc	52		 push	 edx
  00bdd	68 00 00 00 00	 push	 OFFSET ??_C@_0ED@GMECMFKH@c?3?2users?2nhv90?2projects?2eech?2ap@
  00be2	a1 00 00 00 00	 mov	 eax, DWORD PTR ?null_entity_pointer_message@@3PBDB ; null_entity_pointer_message
  00be7	50		 push	 eax
  00be8	e8 00 00 00 00	 call	 ?process_assert@@YGXPBD0H@Z ; process_assert
  00bed	c7 85 60 ff ff
	ff 00 00 00 00	 mov	 DWORD PTR tv514[ebp], 0
$LN79@create_fix:
  00bf7	b9 01 00 00 00	 mov	 ecx, 1
  00bfc	85 c9		 test	 ecx, ecx
  00bfe	74 0c		 je	 SHORT $LN80@create_fix
  00c00	c7 85 5c ff ff
	ff 0e 00 00 00	 mov	 DWORD PTR tv522[ebp], 14 ; 0000000eH
  00c0a	eb 27		 jmp	 SHORT $LN81@create_fix
$LN80@create_fix:
  00c0c	8b 15 00 00 00
	00		 mov	 edx, DWORD PTR ?__LINE__Var@?0??create_fixed_wing_transfer_tasks@@YGXXZ@4JA
  00c12	81 c2 d3 00 00
	00		 add	 edx, 211		; 000000d3H
  00c18	52		 push	 edx
  00c19	68 00 00 00 00	 push	 OFFSET ??_C@_0ED@GMECMFKH@c?3?2users?2nhv90?2projects?2eech?2ap@
  00c1e	a1 00 00 00 00	 mov	 eax, DWORD PTR ?overload_invalid_list_type_message@@3PBDB ; overload_invalid_list_type_message
  00c23	50		 push	 eax
  00c24	e8 00 00 00 00	 call	 ?process_assert@@YGXPBD0H@Z ; process_assert
  00c29	c7 85 5c ff ff
	ff 00 00 00 00	 mov	 DWORD PTR tv522[ebp], 0
$LN81@create_fix:
  00c33	6a 0e		 push	 14			; 0000000eH
  00c35	8b 4d f4	 mov	 ecx, DWORD PTR _force$[ebp]
  00c38	51		 push	 ecx
  00c39	69 95 60 ff ff
	ff b4 00 00 00	 imul	 edx, DWORD PTR tv514[ebp], 180
  00c43	8b 85 5c ff ff
	ff		 mov	 eax, DWORD PTR tv522[ebp]
  00c49	8b 8c 82 00 00
	00 00		 mov	 ecx, DWORD PTR ?fn_get_local_entity_child_succ@@3PAY0CN@P6GPAUENTITY@@PAU1@W4LIST_TYPES@@@ZA[edx+eax*4]
  00c50	ff d1		 call	 ecx
  00c52	89 45 f4	 mov	 DWORD PTR _force$[ebp], eax

; 2311 : 	}

  00c55	e9 94 f4 ff ff	 jmp	 $LN2@create_fix
$LN3@create_fix:

; 2312 : }

  00c5a	5f		 pop	 edi
  00c5b	5e		 pop	 esi
  00c5c	5b		 pop	 ebx
  00c5d	8b e5		 mov	 esp, ebp
  00c5f	5d		 pop	 ebp
  00c60	c3		 ret	 0
?create_fixed_wing_transfer_tasks@@YGXXZ ENDP		; create_fixed_wing_transfer_tasks
_TEXT	ENDS
; Function compile flags: /Odtp /ZI
; File c:\users\nhv90\projects\eech\aphavoc\source\ai\highlevl\highlevl.c
;	COMDAT ?create_sead_tasks@@YGXXZ
_TEXT	SEGMENT
tv882 = -168						; size = 8
tv638 = -164						; size = 4
tv544 = -164						; size = 4
tv1024 = -160						; size = 8
tv630 = -160						; size = 4
tv536 = -160						; size = 4
tv622 = -156						; size = 4
tv528 = -156						; size = 4
tv874 = -152						; size = 8
tv612 = -152						; size = 4
tv518 = -152						; size = 4
tv604 = -148						; size = 4
tv510 = -148						; size = 4
tv793 = -144						; size = 8
tv784 = -144						; size = 8
tv663 = -144						; size = 4
tv591 = -144						; size = 4
tv497 = -144						; size = 4
tv452 = -144						; size = 4
tv418 = -144						; size = 4
tv357 = -144						; size = 4
tv337 = -144						; size = 4
tv281 = -144						; size = 4
tv246 = -144						; size = 4
tv225 = -144						; size = 4
tv205 = -144						; size = 4
tv184 = -144						; size = 4
tv162 = -144						; size = 4
tv142 = -144						; size = 4
tv83 = -144						; size = 4
tv655 = -140						; size = 4
tv583 = -140						; size = 4
tv489 = -140						; size = 4
tv445 = -140						; size = 4
tv410 = -140						; size = 4
tv349 = -140						; size = 4
tv329 = -140						; size = 4
tv273 = -140						; size = 4
tv238 = -140						; size = 4
tv218 = -140						; size = 4
tv197 = -140						; size = 4
tv176 = -140						; size = 4
tv154 = -140						; size = 4
tv134 = -140						; size = 4
tv75 = -140						; size = 4
$T1 = -136						; size = 4
_max_rating$ = -68					; size = 4
_ratio$ = -64						; size = 4
_rating$ = -60						; size = 4
_priority$ = -56					; size = 4
_group_type$ = -52					; size = 4
_count$ = -48						; size = 4
_loop$ = -44						; size = 4
_z$ = -40						; size = 4
_x$ = -36						; size = 4
_pos$ = -32						; size = 4
_target_force$ = -28					; size = 4
_new_task$ = -24					; size = 4
_sector$ = -20						; size = 4
_force$ = -16						; size = 4
_group$ = -12						; size = 4
_this_side$ = -8					; size = 4
_side$ = -4						; size = 4
?create_sead_tasks@@YGXXZ PROC				; create_sead_tasks, COMDAT

; 1885 : {

  00000	55		 push	 ebp
  00001	8b ec		 mov	 ebp, esp
  00003	81 ec a8 00 00
	00		 sub	 esp, 168		; 000000a8H
  00009	53		 push	 ebx
  0000a	56		 push	 esi
  0000b	57		 push	 edi

; 1886 : 	entity_sides
; 1887 : 		side,
; 1888 : 		this_side;
; 1889 : 
; 1890 : 	entity
; 1891 : 		*group,
; 1892 : 		*force,
; 1893 : 		*sector,
; 1894 : 		*new_task,
; 1895 : 		*target_force;
; 1896 : 
; 1897 : 	vec3d
; 1898 : 		*pos;
; 1899 : 
; 1900 : 	int
; 1901 : 		x,
; 1902 : 		z,
; 1903 : 		loop,
; 1904 : 		count,
; 1905 : 		group_type;
; 1906 : 
; 1907 : 	float
; 1908 : 		priority,
; 1909 : 		rating,
; 1910 : 		ratio,
; 1911 : 		max_rating;
; 1912 : 
; 1913 : 	ASSERT (get_comms_model () == COMMS_MODEL_SERVER);

  0000c	83 3d 00 00 00
	00 00		 cmp	 DWORD PTR ?system_comms_model@@3W4COMMS_MODEL_TYPES@@A, 0 ; system_comms_model
  00013	74 18		 je	 SHORT $LN11@create_sea
  00015	a1 00 00 00 00	 mov	 eax, DWORD PTR ?__LINE__Var@?0??create_sead_tasks@@YGXXZ@4JA
  0001a	83 c0 1c	 add	 eax, 28			; 0000001cH
  0001d	50		 push	 eax
  0001e	68 00 00 00 00	 push	 OFFSET ??_C@_0ED@GMECMFKH@c?3?2users?2nhv90?2projects?2eech?2ap@
  00023	68 00 00 00 00	 push	 OFFSET ??_C@_0CJ@DMBLBJBK@get_comms_model?5?$CI?$CJ?5?$DN?$DN?5COMMS_MOD@
  00028	e8 00 00 00 00	 call	 ?process_assert@@YGXPBD0H@Z ; process_assert
$LN11@create_sea:

; 1914 : 
; 1915 : 	force = get_local_entity_first_child (get_session_entity (), LIST_TYPE_FORCE);

  0002d	83 3d 00 00 00
	00 00		 cmp	 DWORD PTR ?session_entity@@3PAUENTITY@@A, 0 ; session_entity
  00034	74 0f		 je	 SHORT $LN28@create_sea
  00036	a1 00 00 00 00	 mov	 eax, DWORD PTR ?session_entity@@3PAUENTITY@@A ; session_entity
  0003b	8b 08		 mov	 ecx, DWORD PTR [eax]
  0003d	89 8d 74 ff ff
	ff		 mov	 DWORD PTR tv75[ebp], ecx
  00043	eb 24		 jmp	 SHORT $LN29@create_sea
$LN28@create_sea:
  00045	8b 15 00 00 00
	00		 mov	 edx, DWORD PTR ?__LINE__Var@?0??create_sead_tasks@@YGXXZ@4JA
  0004b	83 c2 1e	 add	 edx, 30			; 0000001eH
  0004e	52		 push	 edx
  0004f	68 00 00 00 00	 push	 OFFSET ??_C@_0ED@GMECMFKH@c?3?2users?2nhv90?2projects?2eech?2ap@
  00054	a1 00 00 00 00	 mov	 eax, DWORD PTR ?null_entity_pointer_message@@3PBDB ; null_entity_pointer_message
  00059	50		 push	 eax
  0005a	e8 00 00 00 00	 call	 ?process_assert@@YGXPBD0H@Z ; process_assert
  0005f	c7 85 74 ff ff
	ff 00 00 00 00	 mov	 DWORD PTR tv75[ebp], 0
$LN29@create_sea:
  00069	b9 01 00 00 00	 mov	 ecx, 1
  0006e	85 c9		 test	 ecx, ecx
  00070	74 0c		 je	 SHORT $LN30@create_sea
  00072	c7 85 70 ff ff
	ff 0e 00 00 00	 mov	 DWORD PTR tv83[ebp], 14	; 0000000eH
  0007c	eb 24		 jmp	 SHORT $LN31@create_sea
$LN30@create_sea:
  0007e	8b 15 00 00 00
	00		 mov	 edx, DWORD PTR ?__LINE__Var@?0??create_sead_tasks@@YGXXZ@4JA
  00084	83 c2 1e	 add	 edx, 30			; 0000001eH
  00087	52		 push	 edx
  00088	68 00 00 00 00	 push	 OFFSET ??_C@_0ED@GMECMFKH@c?3?2users?2nhv90?2projects?2eech?2ap@
  0008d	a1 00 00 00 00	 mov	 eax, DWORD PTR ?overload_invalid_list_type_message@@3PBDB ; overload_invalid_list_type_message
  00092	50		 push	 eax
  00093	e8 00 00 00 00	 call	 ?process_assert@@YGXPBD0H@Z ; process_assert
  00098	c7 85 70 ff ff
	ff 00 00 00 00	 mov	 DWORD PTR tv83[ebp], 0
$LN31@create_sea:
  000a2	6a 0e		 push	 14			; 0000000eH
  000a4	8b 0d 00 00 00
	00		 mov	 ecx, DWORD PTR ?session_entity@@3PAUENTITY@@A ; session_entity
  000aa	51		 push	 ecx
  000ab	69 95 74 ff ff
	ff b4 00 00 00	 imul	 edx, DWORD PTR tv75[ebp], 180
  000b5	8b 85 70 ff ff
	ff		 mov	 eax, DWORD PTR tv83[ebp]
  000bb	8b 8c 82 00 00
	00 00		 mov	 ecx, DWORD PTR ?fn_get_local_entity_first_child@@3PAY0CN@P6GPAUENTITY@@PAU1@W4LIST_TYPES@@@ZA[edx+eax*4]
  000c2	ff d1		 call	 ecx
  000c4	89 45 f0	 mov	 DWORD PTR _force$[ebp], eax
$LN2@create_sea:

; 1916 : 
; 1917 : 	while (force)

  000c7	83 7d f0 00	 cmp	 DWORD PTR _force$[ebp], 0
  000cb	0f 84 5b 0f 00
	00		 je	 $LN3@create_sea

; 1918 : 	{
; 1919 : 		//
; 1920 : 		// for each force ( excluding our own ) spin through the list of air defences and select viable targets
; 1921 : 		//
; 1922 : 	
; 1923 : 		memset (target_list, 0, sizeof (entity *) * MAX_HIGHLEVEL_TARGET_CHECKS);

  000d1	68 80 02 00 00	 push	 640			; 00000280H
  000d6	6a 00		 push	 0
  000d8	68 00 00 00 00	 push	 OFFSET ?target_list@@3PAPAUENTITY@@A
  000dd	e8 00 00 00 00	 call	 _memset
  000e2	83 c4 0c	 add	 esp, 12			; 0000000cH

; 1924 : 
; 1925 : 		memset (target_rating, 0, sizeof (float) * MAX_HIGHLEVEL_TARGET_CHECKS);

  000e5	68 80 02 00 00	 push	 640			; 00000280H
  000ea	6a 00		 push	 0
  000ec	68 00 00 00 00	 push	 OFFSET ?target_rating@@3PAMA
  000f1	e8 00 00 00 00	 call	 _memset
  000f6	83 c4 0c	 add	 esp, 12			; 0000000cH

; 1926 : 
; 1927 : 		count = 0;

  000f9	c7 45 d0 00 00
	00 00		 mov	 DWORD PTR _count$[ebp], 0

; 1928 : 
; 1929 : 		this_side = (entity_sides) get_local_entity_int_value (force, INT_TYPE_SIDE);

  00100	83 7d f0 00	 cmp	 DWORD PTR _force$[ebp], 0
  00104	74 0d		 je	 SHORT $LN32@create_sea
  00106	8b 45 f0	 mov	 eax, DWORD PTR _force$[ebp]
  00109	8b 08		 mov	 ecx, DWORD PTR [eax]
  0010b	89 8d 74 ff ff
	ff		 mov	 DWORD PTR tv134[ebp], ecx
  00111	eb 24		 jmp	 SHORT $LN33@create_sea
$LN32@create_sea:
  00113	8b 15 00 00 00
	00		 mov	 edx, DWORD PTR ?__LINE__Var@?0??create_sead_tasks@@YGXXZ@4JA
  00119	83 c2 2c	 add	 edx, 44			; 0000002cH
  0011c	52		 push	 edx
  0011d	68 00 00 00 00	 push	 OFFSET ??_C@_0ED@GMECMFKH@c?3?2users?2nhv90?2projects?2eech?2ap@
  00122	a1 00 00 00 00	 mov	 eax, DWORD PTR ?null_entity_pointer_message@@3PBDB ; null_entity_pointer_message
  00127	50		 push	 eax
  00128	e8 00 00 00 00	 call	 ?process_assert@@YGXPBD0H@Z ; process_assert
  0012d	c7 85 74 ff ff
	ff 00 00 00 00	 mov	 DWORD PTR tv134[ebp], 0
$LN33@create_sea:
  00137	b9 01 00 00 00	 mov	 ecx, 1
  0013c	85 c9		 test	 ecx, ecx
  0013e	74 0c		 je	 SHORT $LN34@create_sea
  00140	c7 85 70 ff ff
	ff bb 00 00 00	 mov	 DWORD PTR tv142[ebp], 187 ; 000000bbH
  0014a	eb 24		 jmp	 SHORT $LN35@create_sea
$LN34@create_sea:
  0014c	8b 15 00 00 00
	00		 mov	 edx, DWORD PTR ?__LINE__Var@?0??create_sead_tasks@@YGXXZ@4JA
  00152	83 c2 2c	 add	 edx, 44			; 0000002cH
  00155	52		 push	 edx
  00156	68 00 00 00 00	 push	 OFFSET ??_C@_0ED@GMECMFKH@c?3?2users?2nhv90?2projects?2eech?2ap@
  0015b	a1 00 00 00 00	 mov	 eax, DWORD PTR ?overload_invalid_int_type_message@@3PBDB ; overload_invalid_int_type_message
  00160	50		 push	 eax
  00161	e8 00 00 00 00	 call	 ?process_assert@@YGXPBD0H@Z ; process_assert
  00166	c7 85 70 ff ff
	ff 00 00 00 00	 mov	 DWORD PTR tv142[ebp], 0
$LN35@create_sea:
  00170	68 bb 00 00 00	 push	 187			; 000000bbH
  00175	8b 4d f0	 mov	 ecx, DWORD PTR _force$[ebp]
  00178	51		 push	 ecx
  00179	69 95 74 ff ff
	ff 5c 04 00 00	 imul	 edx, DWORD PTR tv134[ebp], 1116
  00183	8b 85 70 ff ff
	ff		 mov	 eax, DWORD PTR tv142[ebp]
  00189	8b 8c 82 00 00
	00 00		 mov	 ecx, DWORD PTR ?fn_get_local_entity_int_value@@3PAY0BBH@P6GHPAUENTITY@@W4INT_TYPES@@@ZA[edx+eax*4]
  00190	ff d1		 call	 ecx
  00192	89 45 f8	 mov	 DWORD PTR _this_side$[ebp], eax

; 1930 : 	
; 1931 : 		target_force = get_local_entity_first_child (get_session_entity(), LIST_TYPE_FORCE);

  00195	83 3d 00 00 00
	00 00		 cmp	 DWORD PTR ?session_entity@@3PAUENTITY@@A, 0 ; session_entity
  0019c	74 0f		 je	 SHORT $LN36@create_sea
  0019e	a1 00 00 00 00	 mov	 eax, DWORD PTR ?session_entity@@3PAUENTITY@@A ; session_entity
  001a3	8b 08		 mov	 ecx, DWORD PTR [eax]
  001a5	89 8d 74 ff ff
	ff		 mov	 DWORD PTR tv154[ebp], ecx
  001ab	eb 24		 jmp	 SHORT $LN37@create_sea
$LN36@create_sea:
  001ad	8b 15 00 00 00
	00		 mov	 edx, DWORD PTR ?__LINE__Var@?0??create_sead_tasks@@YGXXZ@4JA
  001b3	83 c2 2e	 add	 edx, 46			; 0000002eH
  001b6	52		 push	 edx
  001b7	68 00 00 00 00	 push	 OFFSET ??_C@_0ED@GMECMFKH@c?3?2users?2nhv90?2projects?2eech?2ap@
  001bc	a1 00 00 00 00	 mov	 eax, DWORD PTR ?null_entity_pointer_message@@3PBDB ; null_entity_pointer_message
  001c1	50		 push	 eax
  001c2	e8 00 00 00 00	 call	 ?process_assert@@YGXPBD0H@Z ; process_assert
  001c7	c7 85 74 ff ff
	ff 00 00 00 00	 mov	 DWORD PTR tv154[ebp], 0
$LN37@create_sea:
  001d1	b9 01 00 00 00	 mov	 ecx, 1
  001d6	85 c9		 test	 ecx, ecx
  001d8	74 0c		 je	 SHORT $LN38@create_sea
  001da	c7 85 70 ff ff
	ff 0e 00 00 00	 mov	 DWORD PTR tv162[ebp], 14 ; 0000000eH
  001e4	eb 24		 jmp	 SHORT $LN39@create_sea
$LN38@create_sea:
  001e6	8b 15 00 00 00
	00		 mov	 edx, DWORD PTR ?__LINE__Var@?0??create_sead_tasks@@YGXXZ@4JA
  001ec	83 c2 2e	 add	 edx, 46			; 0000002eH
  001ef	52		 push	 edx
  001f0	68 00 00 00 00	 push	 OFFSET ??_C@_0ED@GMECMFKH@c?3?2users?2nhv90?2projects?2eech?2ap@
  001f5	a1 00 00 00 00	 mov	 eax, DWORD PTR ?overload_invalid_list_type_message@@3PBDB ; overload_invalid_list_type_message
  001fa	50		 push	 eax
  001fb	e8 00 00 00 00	 call	 ?process_assert@@YGXPBD0H@Z ; process_assert
  00200	c7 85 70 ff ff
	ff 00 00 00 00	 mov	 DWORD PTR tv162[ebp], 0
$LN39@create_sea:
  0020a	6a 0e		 push	 14			; 0000000eH
  0020c	8b 0d 00 00 00
	00		 mov	 ecx, DWORD PTR ?session_entity@@3PAUENTITY@@A ; session_entity
  00212	51		 push	 ecx
  00213	69 95 74 ff ff
	ff b4 00 00 00	 imul	 edx, DWORD PTR tv154[ebp], 180
  0021d	8b 85 70 ff ff
	ff		 mov	 eax, DWORD PTR tv162[ebp]
  00223	8b 8c 82 00 00
	00 00		 mov	 ecx, DWORD PTR ?fn_get_local_entity_first_child@@3PAY0CN@P6GPAUENTITY@@PAU1@W4LIST_TYPES@@@ZA[edx+eax*4]
  0022a	ff d1		 call	 ecx
  0022c	89 45 e4	 mov	 DWORD PTR _target_force$[ebp], eax
$LN4@create_sea:

; 1932 : 	
; 1933 : 		while ((target_force) && (count < MAX_HIGHLEVEL_TARGET_CHECKS))

  0022f	83 7d e4 00	 cmp	 DWORD PTR _target_force$[ebp], 0
  00233	0f 84 80 05 00
	00		 je	 $LN5@create_sea
  00239	81 7d d0 a0 00
	00 00		 cmp	 DWORD PTR _count$[ebp], 160 ; 000000a0H
  00240	0f 8d 73 05 00
	00		 jge	 $LN5@create_sea

; 1934 : 		{
; 1935 : 			side = (entity_sides) get_local_entity_int_value (target_force, INT_TYPE_SIDE);

  00246	83 7d e4 00	 cmp	 DWORD PTR _target_force$[ebp], 0
  0024a	74 0d		 je	 SHORT $LN40@create_sea
  0024c	8b 45 e4	 mov	 eax, DWORD PTR _target_force$[ebp]
  0024f	8b 08		 mov	 ecx, DWORD PTR [eax]
  00251	89 8d 74 ff ff
	ff		 mov	 DWORD PTR tv176[ebp], ecx
  00257	eb 24		 jmp	 SHORT $LN41@create_sea
$LN40@create_sea:
  00259	8b 15 00 00 00
	00		 mov	 edx, DWORD PTR ?__LINE__Var@?0??create_sead_tasks@@YGXXZ@4JA
  0025f	83 c2 32	 add	 edx, 50			; 00000032H
  00262	52		 push	 edx
  00263	68 00 00 00 00	 push	 OFFSET ??_C@_0ED@GMECMFKH@c?3?2users?2nhv90?2projects?2eech?2ap@
  00268	a1 00 00 00 00	 mov	 eax, DWORD PTR ?null_entity_pointer_message@@3PBDB ; null_entity_pointer_message
  0026d	50		 push	 eax
  0026e	e8 00 00 00 00	 call	 ?process_assert@@YGXPBD0H@Z ; process_assert
  00273	c7 85 74 ff ff
	ff 00 00 00 00	 mov	 DWORD PTR tv176[ebp], 0
$LN41@create_sea:
  0027d	b9 01 00 00 00	 mov	 ecx, 1
  00282	85 c9		 test	 ecx, ecx
  00284	74 0c		 je	 SHORT $LN42@create_sea
  00286	c7 85 70 ff ff
	ff bb 00 00 00	 mov	 DWORD PTR tv184[ebp], 187 ; 000000bbH
  00290	eb 24		 jmp	 SHORT $LN43@create_sea
$LN42@create_sea:
  00292	8b 15 00 00 00
	00		 mov	 edx, DWORD PTR ?__LINE__Var@?0??create_sead_tasks@@YGXXZ@4JA
  00298	83 c2 32	 add	 edx, 50			; 00000032H
  0029b	52		 push	 edx
  0029c	68 00 00 00 00	 push	 OFFSET ??_C@_0ED@GMECMFKH@c?3?2users?2nhv90?2projects?2eech?2ap@
  002a1	a1 00 00 00 00	 mov	 eax, DWORD PTR ?overload_invalid_int_type_message@@3PBDB ; overload_invalid_int_type_message
  002a6	50		 push	 eax
  002a7	e8 00 00 00 00	 call	 ?process_assert@@YGXPBD0H@Z ; process_assert
  002ac	c7 85 70 ff ff
	ff 00 00 00 00	 mov	 DWORD PTR tv184[ebp], 0
$LN43@create_sea:
  002b6	68 bb 00 00 00	 push	 187			; 000000bbH
  002bb	8b 4d e4	 mov	 ecx, DWORD PTR _target_force$[ebp]
  002be	51		 push	 ecx
  002bf	69 95 74 ff ff
	ff 5c 04 00 00	 imul	 edx, DWORD PTR tv176[ebp], 1116
  002c9	8b 85 70 ff ff
	ff		 mov	 eax, DWORD PTR tv184[ebp]
  002cf	8b 8c 82 00 00
	00 00		 mov	 ecx, DWORD PTR ?fn_get_local_entity_int_value@@3PAY0BBH@P6GHPAUENTITY@@W4INT_TYPES@@@ZA[edx+eax*4]
  002d6	ff d1		 call	 ecx
  002d8	89 45 fc	 mov	 DWORD PTR _side$[ebp], eax

; 1936 : 	
; 1937 : 			if (side != this_side)

  002db	8b 45 fc	 mov	 eax, DWORD PTR _side$[ebp]
  002de	3b 45 f8	 cmp	 eax, DWORD PTR _this_side$[ebp]
  002e1	0f 84 3b 04 00
	00		 je	 $LN7@create_sea

; 1938 : 			{
; 1939 : 				group = get_local_entity_first_child (target_force, LIST_TYPE_GROUND_REGISTRY);

  002e7	83 7d e4 00	 cmp	 DWORD PTR _target_force$[ebp], 0
  002eb	74 0d		 je	 SHORT $LN44@create_sea
  002ed	8b 45 e4	 mov	 eax, DWORD PTR _target_force$[ebp]
  002f0	8b 08		 mov	 ecx, DWORD PTR [eax]
  002f2	89 8d 74 ff ff
	ff		 mov	 DWORD PTR tv197[ebp], ecx
  002f8	eb 24		 jmp	 SHORT $LN45@create_sea
$LN44@create_sea:
  002fa	8b 15 00 00 00
	00		 mov	 edx, DWORD PTR ?__LINE__Var@?0??create_sead_tasks@@YGXXZ@4JA
  00300	83 c2 36	 add	 edx, 54			; 00000036H
  00303	52		 push	 edx
  00304	68 00 00 00 00	 push	 OFFSET ??_C@_0ED@GMECMFKH@c?3?2users?2nhv90?2projects?2eech?2ap@
  00309	a1 00 00 00 00	 mov	 eax, DWORD PTR ?null_entity_pointer_message@@3PBDB ; null_entity_pointer_message
  0030e	50		 push	 eax
  0030f	e8 00 00 00 00	 call	 ?process_assert@@YGXPBD0H@Z ; process_assert
  00314	c7 85 74 ff ff
	ff 00 00 00 00	 mov	 DWORD PTR tv197[ebp], 0
$LN45@create_sea:
  0031e	b9 01 00 00 00	 mov	 ecx, 1
  00323	85 c9		 test	 ecx, ecx
  00325	74 0c		 je	 SHORT $LN46@create_sea
  00327	c7 85 70 ff ff
	ff 0f 00 00 00	 mov	 DWORD PTR tv205[ebp], 15 ; 0000000fH
  00331	eb 24		 jmp	 SHORT $LN47@create_sea
$LN46@create_sea:
  00333	8b 15 00 00 00
	00		 mov	 edx, DWORD PTR ?__LINE__Var@?0??create_sead_tasks@@YGXXZ@4JA
  00339	83 c2 36	 add	 edx, 54			; 00000036H
  0033c	52		 push	 edx
  0033d	68 00 00 00 00	 push	 OFFSET ??_C@_0ED@GMECMFKH@c?3?2users?2nhv90?2projects?2eech?2ap@
  00342	a1 00 00 00 00	 mov	 eax, DWORD PTR ?overload_invalid_list_type_message@@3PBDB ; overload_invalid_list_type_message
  00347	50		 push	 eax
  00348	e8 00 00 00 00	 call	 ?process_assert@@YGXPBD0H@Z ; process_assert
  0034d	c7 85 70 ff ff
	ff 00 00 00 00	 mov	 DWORD PTR tv205[ebp], 0
$LN47@create_sea:
  00357	6a 0f		 push	 15			; 0000000fH
  00359	8b 4d e4	 mov	 ecx, DWORD PTR _target_force$[ebp]
  0035c	51		 push	 ecx
  0035d	69 95 74 ff ff
	ff b4 00 00 00	 imul	 edx, DWORD PTR tv197[ebp], 180
  00367	8b 85 70 ff ff
	ff		 mov	 eax, DWORD PTR tv205[ebp]
  0036d	8b 8c 82 00 00
	00 00		 mov	 ecx, DWORD PTR ?fn_get_local_entity_first_child@@3PAY0CN@P6GPAUENTITY@@PAU1@W4LIST_TYPES@@@ZA[edx+eax*4]
  00374	ff d1		 call	 ecx
  00376	89 45 f4	 mov	 DWORD PTR _group$[ebp], eax
$LN6@create_sea:

; 1940 : 
; 1941 : 				while ((group) && (count < MAX_HIGHLEVEL_TARGET_CHECKS))

  00379	83 7d f4 00	 cmp	 DWORD PTR _group$[ebp], 0
  0037d	0f 84 9f 03 00
	00		 je	 $LN7@create_sea
  00383	81 7d d0 a0 00
	00 00		 cmp	 DWORD PTR _count$[ebp], 160 ; 000000a0H
  0038a	0f 8d 92 03 00
	00		 jge	 $LN7@create_sea

; 1942 : 				{
; 1943 : 					if (get_local_entity_int_value (group, INT_TYPE_ALIVE))

  00390	83 7d f4 00	 cmp	 DWORD PTR _group$[ebp], 0
  00394	74 0d		 je	 SHORT $LN48@create_sea
  00396	8b 45 f4	 mov	 eax, DWORD PTR _group$[ebp]
  00399	8b 08		 mov	 ecx, DWORD PTR [eax]
  0039b	89 8d 74 ff ff
	ff		 mov	 DWORD PTR tv218[ebp], ecx
  003a1	eb 20		 jmp	 SHORT $LN49@create_sea
$LN48@create_sea:
  003a3	68 97 07 00 00	 push	 1943			; 00000797H
  003a8	68 00 00 00 00	 push	 OFFSET ??_C@_0ED@GMECMFKH@c?3?2users?2nhv90?2projects?2eech?2ap@
  003ad	8b 15 00 00 00
	00		 mov	 edx, DWORD PTR ?null_entity_pointer_message@@3PBDB ; null_entity_pointer_message
  003b3	52		 push	 edx
  003b4	e8 00 00 00 00	 call	 ?process_assert@@YGXPBD0H@Z ; process_assert
  003b9	c7 85 74 ff ff
	ff 00 00 00 00	 mov	 DWORD PTR tv218[ebp], 0
$LN49@create_sea:
  003c3	b8 01 00 00 00	 mov	 eax, 1
  003c8	85 c0		 test	 eax, eax
  003ca	74 0c		 je	 SHORT $LN50@create_sea
  003cc	c7 85 70 ff ff
	ff 07 00 00 00	 mov	 DWORD PTR tv225[ebp], 7
  003d6	eb 20		 jmp	 SHORT $LN51@create_sea
$LN50@create_sea:
  003d8	68 97 07 00 00	 push	 1943			; 00000797H
  003dd	68 00 00 00 00	 push	 OFFSET ??_C@_0ED@GMECMFKH@c?3?2users?2nhv90?2projects?2eech?2ap@
  003e2	8b 0d 00 00 00
	00		 mov	 ecx, DWORD PTR ?overload_invalid_int_type_message@@3PBDB ; overload_invalid_int_type_message
  003e8	51		 push	 ecx
  003e9	e8 00 00 00 00	 call	 ?process_assert@@YGXPBD0H@Z ; process_assert
  003ee	c7 85 70 ff ff
	ff 00 00 00 00	 mov	 DWORD PTR tv225[ebp], 0
$LN51@create_sea:
  003f8	6a 07		 push	 7
  003fa	8b 55 f4	 mov	 edx, DWORD PTR _group$[ebp]
  003fd	52		 push	 edx
  003fe	69 85 74 ff ff
	ff 5c 04 00 00	 imul	 eax, DWORD PTR tv218[ebp], 1116
  00408	8b 8d 70 ff ff
	ff		 mov	 ecx, DWORD PTR tv225[ebp]
  0040e	8b 94 88 00 00
	00 00		 mov	 edx, DWORD PTR ?fn_get_local_entity_int_value@@3PAY0BBH@P6GHPAUENTITY@@W4INT_TYPES@@@ZA[eax+ecx*4]
  00415	ff d2		 call	 edx
  00417	85 c0		 test	 eax, eax
  00419	0f 84 6c 02 00
	00		 je	 $LN16@create_sea

; 1944 : 					{
; 1945 : 						group_type = get_local_entity_int_value (group, INT_TYPE_ENTITY_SUB_TYPE); 

  0041f	83 7d f4 00	 cmp	 DWORD PTR _group$[ebp], 0
  00423	74 0d		 je	 SHORT $LN52@create_sea
  00425	8b 45 f4	 mov	 eax, DWORD PTR _group$[ebp]
  00428	8b 08		 mov	 ecx, DWORD PTR [eax]
  0042a	89 8d 74 ff ff
	ff		 mov	 DWORD PTR tv238[ebp], ecx
  00430	eb 24		 jmp	 SHORT $LN53@create_sea
$LN52@create_sea:
  00432	8b 15 00 00 00
	00		 mov	 edx, DWORD PTR ?__LINE__Var@?0??create_sead_tasks@@YGXXZ@4JA
  00438	83 c2 3c	 add	 edx, 60			; 0000003cH
  0043b	52		 push	 edx
  0043c	68 00 00 00 00	 push	 OFFSET ??_C@_0ED@GMECMFKH@c?3?2users?2nhv90?2projects?2eech?2ap@
  00441	a1 00 00 00 00	 mov	 eax, DWORD PTR ?null_entity_pointer_message@@3PBDB ; null_entity_pointer_message
  00446	50		 push	 eax
  00447	e8 00 00 00 00	 call	 ?process_assert@@YGXPBD0H@Z ; process_assert
  0044c	c7 85 74 ff ff
	ff 00 00 00 00	 mov	 DWORD PTR tv238[ebp], 0
$LN53@create_sea:
  00456	b9 01 00 00 00	 mov	 ecx, 1
  0045b	85 c9		 test	 ecx, ecx
  0045d	74 0c		 je	 SHORT $LN54@create_sea
  0045f	c7 85 70 ff ff
	ff 34 00 00 00	 mov	 DWORD PTR tv246[ebp], 52 ; 00000034H
  00469	eb 24		 jmp	 SHORT $LN55@create_sea
$LN54@create_sea:
  0046b	8b 15 00 00 00
	00		 mov	 edx, DWORD PTR ?__LINE__Var@?0??create_sead_tasks@@YGXXZ@4JA
  00471	83 c2 3c	 add	 edx, 60			; 0000003cH
  00474	52		 push	 edx
  00475	68 00 00 00 00	 push	 OFFSET ??_C@_0ED@GMECMFKH@c?3?2users?2nhv90?2projects?2eech?2ap@
  0047a	a1 00 00 00 00	 mov	 eax, DWORD PTR ?overload_invalid_int_type_message@@3PBDB ; overload_invalid_int_type_message
  0047f	50		 push	 eax
  00480	e8 00 00 00 00	 call	 ?process_assert@@YGXPBD0H@Z ; process_assert
  00485	c7 85 70 ff ff
	ff 00 00 00 00	 mov	 DWORD PTR tv246[ebp], 0
$LN55@create_sea:
  0048f	6a 34		 push	 52			; 00000034H
  00491	8b 4d f4	 mov	 ecx, DWORD PTR _group$[ebp]
  00494	51		 push	 ecx
  00495	69 95 74 ff ff
	ff 5c 04 00 00	 imul	 edx, DWORD PTR tv238[ebp], 1116
  0049f	8b 85 70 ff ff
	ff		 mov	 eax, DWORD PTR tv246[ebp]
  004a5	8b 8c 82 00 00
	00 00		 mov	 ecx, DWORD PTR ?fn_get_local_entity_int_value@@3PAY0BBH@P6GHPAUENTITY@@W4INT_TYPES@@@ZA[edx+eax*4]
  004ac	ff d1		 call	 ecx
  004ae	89 45 cc	 mov	 DWORD PTR _group_type$[ebp], eax

; 1946 : 
; 1947 : 						if ((!group_database [group_type].frontline_flag) && (group_database [group_type].ai_stats.air_attack_strength == 10))

  004b1	6b 45 cc 64	 imul	 eax, DWORD PTR _group_type$[ebp], 100
  004b5	8b 88 48 00 00
	00		 mov	 ecx, DWORD PTR ?group_database@@3PAUGROUP_DATA@@A[eax+72]
  004bb	83 e1 03	 and	 ecx, 3
  004be	0f 85 c7 01 00
	00		 jne	 $LN16@create_sea
  004c4	6b 45 cc 64	 imul	 eax, DWORD PTR _group_type$[ebp], 100
  004c8	83 b8 4c 00 00
	00 0a		 cmp	 DWORD PTR ?group_database@@3PAUGROUP_DATA@@A[eax+76], 10 ; 0000000aH
  004cf	0f 85 b6 01 00
	00		 jne	 $LN16@create_sea

; 1948 : 						{
; 1949 : 							ASSERT (count < MAX_HIGHLEVEL_TARGET_CHECKS);

  004d5	81 7d d0 a0 00
	00 00		 cmp	 DWORD PTR _count$[ebp], 160 ; 000000a0H
  004dc	7c 18		 jl	 SHORT $LN15@create_sea
  004de	a1 00 00 00 00	 mov	 eax, DWORD PTR ?__LINE__Var@?0??create_sead_tasks@@YGXXZ@4JA
  004e3	83 c0 40	 add	 eax, 64			; 00000040H
  004e6	50		 push	 eax
  004e7	68 00 00 00 00	 push	 OFFSET ??_C@_0ED@GMECMFKH@c?3?2users?2nhv90?2projects?2eech?2ap@
  004ec	68 00 00 00 00	 push	 OFFSET ??_C@_0CE@FGAKBBGH@count?5?$DM?5MAX_HIGHLEVEL_TARGET_CH@
  004f1	e8 00 00 00 00	 call	 ?process_assert@@YGXPBD0H@Z ; process_assert
$LN15@create_sea:

; 1950 : 
; 1951 : 							//
; 1952 : 							// get sector
; 1953 : 							//
; 1954 : 
; 1955 : 							pos = get_local_entity_vec3d_ptr (group, VEC3D_TYPE_POSITION);

  004f6	83 7d f4 00	 cmp	 DWORD PTR _group$[ebp], 0
  004fa	74 0d		 je	 SHORT $LN56@create_sea
  004fc	8b 45 f4	 mov	 eax, DWORD PTR _group$[ebp]
  004ff	8b 08		 mov	 ecx, DWORD PTR [eax]
  00501	89 8d 74 ff ff
	ff		 mov	 DWORD PTR tv273[ebp], ecx
  00507	eb 24		 jmp	 SHORT $LN57@create_sea
$LN56@create_sea:
  00509	8b 15 00 00 00
	00		 mov	 edx, DWORD PTR ?__LINE__Var@?0??create_sead_tasks@@YGXXZ@4JA
  0050f	83 c2 46	 add	 edx, 70			; 00000046H
  00512	52		 push	 edx
  00513	68 00 00 00 00	 push	 OFFSET ??_C@_0ED@GMECMFKH@c?3?2users?2nhv90?2projects?2eech?2ap@
  00518	a1 00 00 00 00	 mov	 eax, DWORD PTR ?null_entity_pointer_message@@3PBDB ; null_entity_pointer_message
  0051d	50		 push	 eax
  0051e	e8 00 00 00 00	 call	 ?process_assert@@YGXPBD0H@Z ; process_assert
  00523	c7 85 74 ff ff
	ff 00 00 00 00	 mov	 DWORD PTR tv273[ebp], 0
$LN57@create_sea:
  0052d	b9 01 00 00 00	 mov	 ecx, 1
  00532	85 c9		 test	 ecx, ecx
  00534	74 0c		 je	 SHORT $LN58@create_sea
  00536	c7 85 70 ff ff
	ff 08 00 00 00	 mov	 DWORD PTR tv281[ebp], 8
  00540	eb 24		 jmp	 SHORT $LN59@create_sea
$LN58@create_sea:
  00542	8b 15 00 00 00
	00		 mov	 edx, DWORD PTR ?__LINE__Var@?0??create_sead_tasks@@YGXXZ@4JA
  00548	83 c2 46	 add	 edx, 70			; 00000046H
  0054b	52		 push	 edx
  0054c	68 00 00 00 00	 push	 OFFSET ??_C@_0ED@GMECMFKH@c?3?2users?2nhv90?2projects?2eech?2ap@
  00551	a1 00 00 00 00	 mov	 eax, DWORD PTR ?overload_invalid_vec3d_type_message@@3PBDB ; overload_invalid_vec3d_type_message
  00556	50		 push	 eax
  00557	e8 00 00 00 00	 call	 ?process_assert@@YGXPBD0H@Z ; process_assert
  0055c	c7 85 70 ff ff
	ff 00 00 00 00	 mov	 DWORD PTR tv281[ebp], 0
$LN59@create_sea:
  00566	6a 08		 push	 8
  00568	8b 4d f4	 mov	 ecx, DWORD PTR _group$[ebp]
  0056b	51		 push	 ecx
  0056c	6b 95 74 ff ff
	ff 60		 imul	 edx, DWORD PTR tv273[ebp], 96
  00573	8b 85 70 ff ff
	ff		 mov	 eax, DWORD PTR tv281[ebp]
  00579	8b 8c 82 00 00
	00 00		 mov	 ecx, DWORD PTR ?fn_get_local_entity_vec3d_ptr@@3PAY0BI@P6GPAUVEC3D@@PAUENTITY@@W4VEC3D_TYPES@@@ZA[edx+eax*4]
  00580	ff d1		 call	 ecx
  00582	89 45 e0	 mov	 DWORD PTR _pos$[ebp], eax

; 1956 : 								
; 1957 : 							get_x_sector (x, pos->x);

  00585	8d 45 dc	 lea	 eax, DWORD PTR _x$[ebp]
  00588	50		 push	 eax
  00589	8b 4d e0	 mov	 ecx, DWORD PTR _pos$[ebp]
  0058c	f3 0f 10 01	 movss	 xmm0, DWORD PTR [ecx]
  00590	51		 push	 ecx
  00591	f3 0f 11 04 24	 movss	 DWORD PTR [esp], xmm0
  00596	e8 00 00 00 00	 call	 ?convert_float_to_int@@YGXMPAH@Z ; convert_float_to_int
  0059b	8b 45 dc	 mov	 eax, DWORD PTR _x$[ebp]
  0059e	99		 cdq
  0059f	f7 3d 00 00 00
	00		 idiv	 DWORD PTR ?world_map@@3UWORLD_MAP_DATA@@A
  005a5	89 45 dc	 mov	 DWORD PTR _x$[ebp], eax

; 1958 : 							get_z_sector (z, pos->z);

  005a8	8d 45 d8	 lea	 eax, DWORD PTR _z$[ebp]
  005ab	50		 push	 eax
  005ac	8b 4d e0	 mov	 ecx, DWORD PTR _pos$[ebp]
  005af	f3 0f 10 41 08	 movss	 xmm0, DWORD PTR [ecx+8]
  005b4	51		 push	 ecx
  005b5	f3 0f 11 04 24	 movss	 DWORD PTR [esp], xmm0
  005ba	e8 00 00 00 00	 call	 ?convert_float_to_int@@YGXMPAH@Z ; convert_float_to_int
  005bf	8b 45 d8	 mov	 eax, DWORD PTR _z$[ebp]
  005c2	99		 cdq
  005c3	f7 3d 00 00 00
	00		 idiv	 DWORD PTR ?world_map@@3UWORLD_MAP_DATA@@A
  005c9	89 45 d8	 mov	 DWORD PTR _z$[ebp], eax

; 1959 : 
; 1960 : 							//
; 1961 : 							// Calculate group rating
; 1962 : 							//
; 1963 : 
; 1964 : 							rating = 0.0;

  005cc	0f 57 c0	 xorps	 xmm0, xmm0
  005cf	f3 0f 11 45 c4	 movss	 DWORD PTR _rating$[ebp], xmm0

; 1965 : 
; 1966 : 							// low enemy importance
; 1967 : //							rating += (2.0 * (1.0 - get_imap_value (IMAP_IMPORTANCE, side, x, z)));
; 1968 : 
; 1969 : 							// low enemy S-A threat
; 1970 : //							rating += (1.0 * (1.0 - get_imap_value (IMAP_AIR_DEFENCE, side, x, z)));
; 1971 : 
; 1972 : 							// close to friendly base
; 1973 : 							rating += (4.0 * get_imap_value (IMAP_BASE_DISTANCE, this_side, x, z));

  005d4	8b 45 d8	 mov	 eax, DWORD PTR _z$[ebp]
  005d7	50		 push	 eax
  005d8	8b 4d dc	 mov	 ecx, DWORD PTR _x$[ebp]
  005db	51		 push	 ecx
  005dc	8b 55 f8	 mov	 edx, DWORD PTR _this_side$[ebp]
  005df	52		 push	 edx
  005e0	6a 01		 push	 1
  005e2	e8 00 00 00 00	 call	 ?get_imap_value@@YGMW4IMAP_TYPES@@W4ENTITY_SIDES@@HH@Z ; get_imap_value
  005e7	dd 9d 70 ff ff
	ff		 fstp	 QWORD PTR tv784[ebp]
  005ed	f2 0f 10 85 70
	ff ff ff	 movsd	 xmm0, QWORD PTR tv784[ebp]
  005f5	f2 0f 59 05 00
	00 00 00	 mulsd	 xmm0, QWORD PTR __real@4010000000000000
  005fd	f3 0f 5a 4d c4	 cvtss2sd xmm1, DWORD PTR _rating$[ebp]
  00602	f2 0f 58 c8	 addsd	 xmm1, xmm0
  00606	f2 0f 5a c1	 cvtsd2ss xmm0, xmm1
  0060a	f3 0f 11 45 c4	 movss	 DWORD PTR _rating$[ebp], xmm0

; 1974 : 
; 1975 : 							// friendly territory
; 1976 : 							rating += (3.0 * get_local_sector_side_ratio (x, z, this_side));

  0060f	8b 45 f8	 mov	 eax, DWORD PTR _this_side$[ebp]
  00612	50		 push	 eax
  00613	8b 4d d8	 mov	 ecx, DWORD PTR _z$[ebp]
  00616	51		 push	 ecx
  00617	8b 55 dc	 mov	 edx, DWORD PTR _x$[ebp]
  0061a	52		 push	 edx
  0061b	e8 00 00 00 00	 call	 ?get_local_sector_side_ratio@@YGMHHW4ENTITY_SIDES@@@Z ; get_local_sector_side_ratio
  00620	dd 9d 70 ff ff
	ff		 fstp	 QWORD PTR tv793[ebp]
  00626	f2 0f 10 85 70
	ff ff ff	 movsd	 xmm0, QWORD PTR tv793[ebp]
  0062e	f2 0f 59 05 00
	00 00 00	 mulsd	 xmm0, QWORD PTR __real@4008000000000000
  00636	f3 0f 5a 4d c4	 cvtss2sd xmm1, DWORD PTR _rating$[ebp]
  0063b	f2 0f 58 c8	 addsd	 xmm1, xmm0
  0063f	f2 0f 5a c1	 cvtsd2ss xmm0, xmm1
  00643	f3 0f 11 45 c4	 movss	 DWORD PTR _rating$[ebp], xmm0

; 1977 : 
; 1978 : //							max_rating = 10.0;
; 1979 : 							max_rating = 7.0;

  00648	f3 0f 10 05 00
	00 00 00	 movss	 xmm0, DWORD PTR __real@40e00000
  00650	f3 0f 11 45 bc	 movss	 DWORD PTR _max_rating$[ebp], xmm0

; 1980 : 
; 1981 : 							//
; 1982 : 							// Store
; 1983 : 							//
; 1984 : 
; 1985 : 							if (rating > 0.0)

  00655	f3 0f 5a 45 c4	 cvtss2sd xmm0, DWORD PTR _rating$[ebp]
  0065a	66 0f 2f 05 00
	00 00 00	 comisd	 xmm0, QWORD PTR __real@0000000000000000
  00662	76 27		 jbe	 SHORT $LN16@create_sea

; 1986 : 							{
; 1987 : 								target_list [count] = group;

  00664	8b 45 d0	 mov	 eax, DWORD PTR _count$[ebp]
  00667	8b 4d f4	 mov	 ecx, DWORD PTR _group$[ebp]
  0066a	89 0c 85 00 00
	00 00		 mov	 DWORD PTR ?target_list@@3PAPAUENTITY@@A[eax*4], ecx

; 1988 : 	
; 1989 : 								target_rating [count] = rating;

  00671	8b 45 d0	 mov	 eax, DWORD PTR _count$[ebp]
  00674	f3 0f 10 45 c4	 movss	 xmm0, DWORD PTR _rating$[ebp]
  00679	f3 0f 11 04 85
	00 00 00 00	 movss	 DWORD PTR ?target_rating@@3PAMA[eax*4], xmm0

; 1990 : 								
; 1991 : 								count ++;

  00682	8b 45 d0	 mov	 eax, DWORD PTR _count$[ebp]
  00685	83 c0 01	 add	 eax, 1
  00688	89 45 d0	 mov	 DWORD PTR _count$[ebp], eax
$LN16@create_sea:

; 1992 : 							}
; 1993 : 						}
; 1994 : 					}
; 1995 : 
; 1996 : 					group = get_local_entity_child_succ (group, LIST_TYPE_GROUND_REGISTRY);

  0068b	83 7d f4 00	 cmp	 DWORD PTR _group$[ebp], 0
  0068f	74 0d		 je	 SHORT $LN60@create_sea
  00691	8b 45 f4	 mov	 eax, DWORD PTR _group$[ebp]
  00694	8b 08		 mov	 ecx, DWORD PTR [eax]
  00696	89 8d 74 ff ff
	ff		 mov	 DWORD PTR tv329[ebp], ecx
  0069c	eb 24		 jmp	 SHORT $LN61@create_sea
$LN60@create_sea:
  0069e	8b 15 00 00 00
	00		 mov	 edx, DWORD PTR ?__LINE__Var@?0??create_sead_tasks@@YGXXZ@4JA
  006a4	83 c2 6f	 add	 edx, 111		; 0000006fH
  006a7	52		 push	 edx
  006a8	68 00 00 00 00	 push	 OFFSET ??_C@_0ED@GMECMFKH@c?3?2users?2nhv90?2projects?2eech?2ap@
  006ad	a1 00 00 00 00	 mov	 eax, DWORD PTR ?null_entity_pointer_message@@3PBDB ; null_entity_pointer_message
  006b2	50		 push	 eax
  006b3	e8 00 00 00 00	 call	 ?process_assert@@YGXPBD0H@Z ; process_assert
  006b8	c7 85 74 ff ff
	ff 00 00 00 00	 mov	 DWORD PTR tv329[ebp], 0
$LN61@create_sea:
  006c2	b9 01 00 00 00	 mov	 ecx, 1
  006c7	85 c9		 test	 ecx, ecx
  006c9	74 0c		 je	 SHORT $LN62@create_sea
  006cb	c7 85 70 ff ff
	ff 0f 00 00 00	 mov	 DWORD PTR tv337[ebp], 15 ; 0000000fH
  006d5	eb 24		 jmp	 SHORT $LN63@create_sea
$LN62@create_sea:
  006d7	8b 15 00 00 00
	00		 mov	 edx, DWORD PTR ?__LINE__Var@?0??create_sead_tasks@@YGXXZ@4JA
  006dd	83 c2 6f	 add	 edx, 111		; 0000006fH
  006e0	52		 push	 edx
  006e1	68 00 00 00 00	 push	 OFFSET ??_C@_0ED@GMECMFKH@c?3?2users?2nhv90?2projects?2eech?2ap@
  006e6	a1 00 00 00 00	 mov	 eax, DWORD PTR ?overload_invalid_list_type_message@@3PBDB ; overload_invalid_list_type_message
  006eb	50		 push	 eax
  006ec	e8 00 00 00 00	 call	 ?process_assert@@YGXPBD0H@Z ; process_assert
  006f1	c7 85 70 ff ff
	ff 00 00 00 00	 mov	 DWORD PTR tv337[ebp], 0
$LN63@create_sea:
  006fb	6a 0f		 push	 15			; 0000000fH
  006fd	8b 4d f4	 mov	 ecx, DWORD PTR _group$[ebp]
  00700	51		 push	 ecx
  00701	69 95 74 ff ff
	ff b4 00 00 00	 imul	 edx, DWORD PTR tv329[ebp], 180
  0070b	8b 85 70 ff ff
	ff		 mov	 eax, DWORD PTR tv337[ebp]
  00711	8b 8c 82 00 00
	00 00		 mov	 ecx, DWORD PTR ?fn_get_local_entity_child_succ@@3PAY0CN@P6GPAUENTITY@@PAU1@W4LIST_TYPES@@@ZA[edx+eax*4]
  00718	ff d1		 call	 ecx
  0071a	89 45 f4	 mov	 DWORD PTR _group$[ebp], eax

; 1997 : 				}

  0071d	e9 57 fc ff ff	 jmp	 $LN6@create_sea
$LN7@create_sea:

; 1998 : 			}
; 1999 : 
; 2000 : 			target_force = get_local_entity_child_succ (target_force, LIST_TYPE_FORCE);

  00722	83 7d e4 00	 cmp	 DWORD PTR _target_force$[ebp], 0
  00726	74 0d		 je	 SHORT $LN64@create_sea
  00728	8b 45 e4	 mov	 eax, DWORD PTR _target_force$[ebp]
  0072b	8b 08		 mov	 ecx, DWORD PTR [eax]
  0072d	89 8d 74 ff ff
	ff		 mov	 DWORD PTR tv349[ebp], ecx
  00733	eb 24		 jmp	 SHORT $LN65@create_sea
$LN64@create_sea:
  00735	8b 15 00 00 00
	00		 mov	 edx, DWORD PTR ?__LINE__Var@?0??create_sead_tasks@@YGXXZ@4JA
  0073b	83 c2 73	 add	 edx, 115		; 00000073H
  0073e	52		 push	 edx
  0073f	68 00 00 00 00	 push	 OFFSET ??_C@_0ED@GMECMFKH@c?3?2users?2nhv90?2projects?2eech?2ap@
  00744	a1 00 00 00 00	 mov	 eax, DWORD PTR ?null_entity_pointer_message@@3PBDB ; null_entity_pointer_message
  00749	50		 push	 eax
  0074a	e8 00 00 00 00	 call	 ?process_assert@@YGXPBD0H@Z ; process_assert
  0074f	c7 85 74 ff ff
	ff 00 00 00 00	 mov	 DWORD PTR tv349[ebp], 0
$LN65@create_sea:
  00759	b9 01 00 00 00	 mov	 ecx, 1
  0075e	85 c9		 test	 ecx, ecx
  00760	74 0c		 je	 SHORT $LN66@create_sea
  00762	c7 85 70 ff ff
	ff 0e 00 00 00	 mov	 DWORD PTR tv357[ebp], 14 ; 0000000eH
  0076c	eb 24		 jmp	 SHORT $LN67@create_sea
$LN66@create_sea:
  0076e	8b 15 00 00 00
	00		 mov	 edx, DWORD PTR ?__LINE__Var@?0??create_sead_tasks@@YGXXZ@4JA
  00774	83 c2 73	 add	 edx, 115		; 00000073H
  00777	52		 push	 edx
  00778	68 00 00 00 00	 push	 OFFSET ??_C@_0ED@GMECMFKH@c?3?2users?2nhv90?2projects?2eech?2ap@
  0077d	a1 00 00 00 00	 mov	 eax, DWORD PTR ?overload_invalid_list_type_message@@3PBDB ; overload_invalid_list_type_message
  00782	50		 push	 eax
  00783	e8 00 00 00 00	 call	 ?process_assert@@YGXPBD0H@Z ; process_assert
  00788	c7 85 70 ff ff
	ff 00 00 00 00	 mov	 DWORD PTR tv357[ebp], 0
$LN67@create_sea:
  00792	6a 0e		 push	 14			; 0000000eH
  00794	8b 4d e4	 mov	 ecx, DWORD PTR _target_force$[ebp]
  00797	51		 push	 ecx
  00798	69 95 74 ff ff
	ff b4 00 00 00	 imul	 edx, DWORD PTR tv349[ebp], 180
  007a2	8b 85 70 ff ff
	ff		 mov	 eax, DWORD PTR tv357[ebp]
  007a8	8b 8c 82 00 00
	00 00		 mov	 ecx, DWORD PTR ?fn_get_local_entity_child_succ@@3PAY0CN@P6GPAUENTITY@@PAU1@W4LIST_TYPES@@@ZA[edx+eax*4]
  007af	ff d1		 call	 ecx
  007b1	89 45 e4	 mov	 DWORD PTR _target_force$[ebp], eax

; 2001 : 		}

  007b4	e9 76 fa ff ff	 jmp	 $LN4@create_sea
$LN5@create_sea:

; 2002 : 
; 2003 : 		//
; 2004 : 		// Create SEAD tasks
; 2005 : 		//
; 2006 : 
; 2007 : 		if (count > 0)

  007b9	83 7d d0 00	 cmp	 DWORD PTR _count$[ebp], 0
  007bd	0f 8e cc 07 00
	00		 jle	 $LN9@create_sea

; 2008 : 		{
; 2009 : 			debug_log ("HIGHLEVL: %s %d candidates for SEAD", entity_side_short_names [this_side], count);

  007c3	8b 45 d0	 mov	 eax, DWORD PTR _count$[ebp]
  007c6	50		 push	 eax
  007c7	8b 4d f8	 mov	 ecx, DWORD PTR _this_side$[ebp]
  007ca	8b 14 8d 00 00
	00 00		 mov	 edx, DWORD PTR ?entity_side_short_names@@3PAPBDA[ecx*4]
  007d1	52		 push	 edx
  007d2	68 00 00 00 00	 push	 OFFSET ??_C@_0CE@HEJEDNOC@HIGHLEVL?3?5?$CFs?5?$CFd?5candidates?5for?5@
  007d7	e8 00 00 00 00	 call	 ?debug_log@@YAXPBDZZ	; debug_log
  007dc	83 c4 0c	 add	 esp, 12			; 0000000cH

; 2010 : 
; 2011 : 			quicksort_entity_list (target_list, count, target_rating);

  007df	68 00 00 00 00	 push	 OFFSET ?target_rating@@3PAMA
  007e4	8b 45 d0	 mov	 eax, DWORD PTR _count$[ebp]
  007e7	50		 push	 eax
  007e8	68 00 00 00 00	 push	 OFFSET ?target_list@@3PAPAUENTITY@@A
  007ed	e8 00 00 00 00	 call	 ?quicksort_entity_list@@YGXPAPAUENTITY@@HPAM@Z ; quicksort_entity_list

; 2012 : 
; 2013 : 			count = min (count, CREATE_SEAD_TASK_COUNT);

  007f2	c7 85 78 ff ff
	ff 02 00 00 00	 mov	 DWORD PTR $T1[ebp], 2
  007fc	8d 85 78 ff ff
	ff		 lea	 eax, DWORD PTR $T1[ebp]
  00802	50		 push	 eax
  00803	8d 4d d0	 lea	 ecx, DWORD PTR _count$[ebp]
  00806	51		 push	 ecx
  00807	e8 00 00 00 00	 call	 ??$min@H@std@@YGABHABH0@Z ; std::min<int>
  0080c	8b 10		 mov	 edx, DWORD PTR [eax]
  0080e	89 55 d0	 mov	 DWORD PTR _count$[ebp], edx

; 2014 : 
; 2015 : 			ASSERT (target_rating [0] > 0.0);

  00811	b8 04 00 00 00	 mov	 eax, 4
  00816	6b c8 00	 imul	 ecx, eax, 0
  00819	f3 0f 5a 81 00
	00 00 00	 cvtss2sd xmm0, DWORD PTR ?target_rating@@3PAMA[ecx]
  00821	66 0f 2f 05 00
	00 00 00	 comisd	 xmm0, QWORD PTR __real@0000000000000000
  00829	77 1a		 ja	 SHORT $LN18@create_sea
  0082b	a1 00 00 00 00	 mov	 eax, DWORD PTR ?__LINE__Var@?0??create_sead_tasks@@YGXXZ@4JA
  00830	05 82 00 00 00	 add	 eax, 130		; 00000082H
  00835	50		 push	 eax
  00836	68 00 00 00 00	 push	 OFFSET ??_C@_0ED@GMECMFKH@c?3?2users?2nhv90?2projects?2eech?2ap@
  0083b	68 00 00 00 00	 push	 OFFSET ??_C@_0BI@BNNJCIEB@target_rating?5?$FL0?$FN?5?$DO?50?40@
  00840	e8 00 00 00 00	 call	 ?process_assert@@YGXPBD0H@Z ; process_assert
$LN18@create_sea:

; 2016 : 
; 2017 : 			for (loop = 0; loop < count; loop ++)

  00845	c7 45 d4 00 00
	00 00		 mov	 DWORD PTR _loop$[ebp], 0
  0084c	eb 09		 jmp	 SHORT $LN10@create_sea
$LN8@create_sea:
  0084e	8b 45 d4	 mov	 eax, DWORD PTR _loop$[ebp]
  00851	83 c0 01	 add	 eax, 1
  00854	89 45 d4	 mov	 DWORD PTR _loop$[ebp], eax
$LN10@create_sea:
  00857	8b 45 d4	 mov	 eax, DWORD PTR _loop$[ebp]
  0085a	3b 45 d0	 cmp	 eax, DWORD PTR _count$[ebp]
  0085d	0f 8d 2c 07 00
	00		 jge	 $LN9@create_sea

; 2018 : 			{
; 2019 : 				ratio = target_rating [loop] / target_rating [0];

  00863	b8 04 00 00 00	 mov	 eax, 4
  00868	6b c8 00	 imul	 ecx, eax, 0
  0086b	8b 55 d4	 mov	 edx, DWORD PTR _loop$[ebp]
  0086e	f3 0f 10 04 95
	00 00 00 00	 movss	 xmm0, DWORD PTR ?target_rating@@3PAMA[edx*4]
  00877	f3 0f 5e 81 00
	00 00 00	 divss	 xmm0, DWORD PTR ?target_rating@@3PAMA[ecx]
  0087f	f3 0f 11 45 c0	 movss	 DWORD PTR _ratio$[ebp], xmm0

; 2020 : 
; 2021 : 				if (ratio >= MIN_TASK_CREATION_RATIO)

  00884	f3 0f 5a 45 c0	 cvtss2sd xmm0, DWORD PTR _ratio$[ebp]
  00889	66 0f 2f 05 00
	00 00 00	 comisd	 xmm0, QWORD PTR __real@3fe8000000000000
  00891	0f 82 f3 06 00
	00		 jb	 $LN26@create_sea

; 2022 : 				{
; 2023 : 					group = target_list [loop];

  00897	8b 45 d4	 mov	 eax, DWORD PTR _loop$[ebp]
  0089a	8b 0c 85 00 00
	00 00		 mov	 ecx, DWORD PTR ?target_list@@3PAPAUENTITY@@A[eax*4]
  008a1	89 4d f4	 mov	 DWORD PTR _group$[ebp], ecx

; 2024 : 					
; 2025 : 					if (
; 2026 : 							(!entity_is_object_of_task (group, ENTITY_SUB_TYPE_TASK_RECON, this_side)) &&

  008a4	8b 45 f8	 mov	 eax, DWORD PTR _this_side$[ebp]
  008a7	50		 push	 eax
  008a8	6a 11		 push	 17			; 00000011H
  008aa	8b 4d f4	 mov	 ecx, DWORD PTR _group$[ebp]
  008ad	51		 push	 ecx
  008ae	e8 00 00 00 00	 call	 ?entity_is_object_of_task@@YGHPAUENTITY@@HW4ENTITY_SIDES@@@Z ; entity_is_object_of_task
  008b3	85 c0		 test	 eax, eax
  008b5	0f 85 cf 06 00
	00		 jne	 $LN26@create_sea
  008bb	8b 45 f8	 mov	 eax, DWORD PTR _this_side$[ebp]
  008be	50		 push	 eax
  008bf	6a 14		 push	 20			; 00000014H
  008c1	8b 4d f4	 mov	 ecx, DWORD PTR _group$[ebp]
  008c4	51		 push	 ecx
  008c5	e8 00 00 00 00	 call	 ?entity_is_object_of_task@@YGHPAUENTITY@@HW4ENTITY_SIDES@@@Z ; entity_is_object_of_task
  008ca	85 c0		 test	 eax, eax
  008cc	0f 85 b8 06 00
	00		 jne	 $LN26@create_sea

; 2027 : 							(!entity_is_object_of_task (group, ENTITY_SUB_TYPE_TASK_SEAD, this_side))
; 2028 : 						)
; 2029 : 					{
; 2030 : 						pos = get_local_entity_vec3d_ptr (group, VEC3D_TYPE_POSITION);

  008d2	83 7d f4 00	 cmp	 DWORD PTR _group$[ebp], 0
  008d6	74 0d		 je	 SHORT $LN68@create_sea
  008d8	8b 45 f4	 mov	 eax, DWORD PTR _group$[ebp]
  008db	8b 08		 mov	 ecx, DWORD PTR [eax]
  008dd	89 8d 74 ff ff
	ff		 mov	 DWORD PTR tv410[ebp], ecx
  008e3	eb 27		 jmp	 SHORT $LN69@create_sea
$LN68@create_sea:
  008e5	8b 15 00 00 00
	00		 mov	 edx, DWORD PTR ?__LINE__Var@?0??create_sead_tasks@@YGXXZ@4JA
  008eb	81 c2 91 00 00
	00		 add	 edx, 145		; 00000091H
  008f1	52		 push	 edx
  008f2	68 00 00 00 00	 push	 OFFSET ??_C@_0ED@GMECMFKH@c?3?2users?2nhv90?2projects?2eech?2ap@
  008f7	a1 00 00 00 00	 mov	 eax, DWORD PTR ?null_entity_pointer_message@@3PBDB ; null_entity_pointer_message
  008fc	50		 push	 eax
  008fd	e8 00 00 00 00	 call	 ?process_assert@@YGXPBD0H@Z ; process_assert
  00902	c7 85 74 ff ff
	ff 00 00 00 00	 mov	 DWORD PTR tv410[ebp], 0
$LN69@create_sea:
  0090c	b9 01 00 00 00	 mov	 ecx, 1
  00911	85 c9		 test	 ecx, ecx
  00913	74 0c		 je	 SHORT $LN70@create_sea
  00915	c7 85 70 ff ff
	ff 08 00 00 00	 mov	 DWORD PTR tv418[ebp], 8
  0091f	eb 27		 jmp	 SHORT $LN71@create_sea
$LN70@create_sea:
  00921	8b 15 00 00 00
	00		 mov	 edx, DWORD PTR ?__LINE__Var@?0??create_sead_tasks@@YGXXZ@4JA
  00927	81 c2 91 00 00
	00		 add	 edx, 145		; 00000091H
  0092d	52		 push	 edx
  0092e	68 00 00 00 00	 push	 OFFSET ??_C@_0ED@GMECMFKH@c?3?2users?2nhv90?2projects?2eech?2ap@
  00933	a1 00 00 00 00	 mov	 eax, DWORD PTR ?overload_invalid_vec3d_type_message@@3PBDB ; overload_invalid_vec3d_type_message
  00938	50		 push	 eax
  00939	e8 00 00 00 00	 call	 ?process_assert@@YGXPBD0H@Z ; process_assert
  0093e	c7 85 70 ff ff
	ff 00 00 00 00	 mov	 DWORD PTR tv418[ebp], 0
$LN71@create_sea:
  00948	6a 08		 push	 8
  0094a	8b 4d f4	 mov	 ecx, DWORD PTR _group$[ebp]
  0094d	51		 push	 ecx
  0094e	6b 95 74 ff ff
	ff 60		 imul	 edx, DWORD PTR tv410[ebp], 96
  00955	8b 85 70 ff ff
	ff		 mov	 eax, DWORD PTR tv418[ebp]
  0095b	8b 8c 82 00 00
	00 00		 mov	 ecx, DWORD PTR ?fn_get_local_entity_vec3d_ptr@@3PAY0BI@P6GPAUVEC3D@@PAUENTITY@@W4VEC3D_TYPES@@@ZA[edx+eax*4]
  00962	ff d1		 call	 ecx
  00964	89 45 e0	 mov	 DWORD PTR _pos$[ebp], eax

; 2031 : 									
; 2032 : 						sector = get_local_sector_entity (pos);

  00967	8b 45 e0	 mov	 eax, DWORD PTR _pos$[ebp]
  0096a	50		 push	 eax
  0096b	e8 00 00 00 00	 call	 ?get_local_sector_entity@@YGPAUENTITY@@PAUVEC3D@@@Z ; get_local_sector_entity
  00970	89 45 ec	 mov	 DWORD PTR _sector$[ebp], eax

; 2033 : 	
; 2034 : 						ASSERT (sector);

  00973	83 7d ec 00	 cmp	 DWORD PTR _sector$[ebp], 0
  00977	75 1a		 jne	 SHORT $LN21@create_sea
  00979	a1 00 00 00 00	 mov	 eax, DWORD PTR ?__LINE__Var@?0??create_sead_tasks@@YGXXZ@4JA
  0097e	05 95 00 00 00	 add	 eax, 149		; 00000095H
  00983	50		 push	 eax
  00984	68 00 00 00 00	 push	 OFFSET ??_C@_0ED@GMECMFKH@c?3?2users?2nhv90?2projects?2eech?2ap@
  00989	68 00 00 00 00	 push	 OFFSET ??_C@_06IDGHNJOB@sector@
  0098e	e8 00 00 00 00	 call	 ?process_assert@@YGXPBD0H@Z ; process_assert
$LN21@create_sea:

; 2035 : 					
; 2036 : 						if (get_sector_task_type_count (sector, ENTITY_SUB_TYPE_TASK_SEAD, this_side) < MAX_SECTOR_SEAD_TASK_COUNT)

  00993	8b 45 f8	 mov	 eax, DWORD PTR _this_side$[ebp]
  00996	50		 push	 eax
  00997	6a 14		 push	 20			; 00000014H
  00999	8b 4d ec	 mov	 ecx, DWORD PTR _sector$[ebp]
  0099c	51		 push	 ecx
  0099d	e8 00 00 00 00	 call	 ?get_sector_task_type_count@@YGHPAUENTITY@@HW4ENTITY_SIDES@@@Z ; get_sector_task_type_count
  009a2	83 f8 01	 cmp	 eax, 1
  009a5	0f 8d df 05 00
	00		 jge	 $LN26@create_sea

; 2037 : 						{
; 2038 : 							if (get_sector_fog_of_war_value (sector, this_side) >= (0.25 * get_local_entity_float_value (get_session_entity (), FLOAT_TYPE_FOG_OF_WAR_MAXIMUM_VALUE)))

  009ab	83 3d 00 00 00
	00 00		 cmp	 DWORD PTR ?session_entity@@3PAUENTITY@@A, 0 ; session_entity
  009b2	74 0f		 je	 SHORT $LN72@create_sea
  009b4	a1 00 00 00 00	 mov	 eax, DWORD PTR ?session_entity@@3PAUENTITY@@A ; session_entity
  009b9	8b 08		 mov	 ecx, DWORD PTR [eax]
  009bb	89 8d 74 ff ff
	ff		 mov	 DWORD PTR tv445[ebp], ecx
  009c1	eb 20		 jmp	 SHORT $LN73@create_sea
$LN72@create_sea:
  009c3	68 f6 07 00 00	 push	 2038			; 000007f6H
  009c8	68 00 00 00 00	 push	 OFFSET ??_C@_0ED@GMECMFKH@c?3?2users?2nhv90?2projects?2eech?2ap@
  009cd	8b 15 00 00 00
	00		 mov	 edx, DWORD PTR ?null_entity_pointer_message@@3PBDB ; null_entity_pointer_message
  009d3	52		 push	 edx
  009d4	e8 00 00 00 00	 call	 ?process_assert@@YGXPBD0H@Z ; process_assert
  009d9	c7 85 74 ff ff
	ff 00 00 00 00	 mov	 DWORD PTR tv445[ebp], 0
$LN73@create_sea:
  009e3	b8 01 00 00 00	 mov	 eax, 1
  009e8	85 c0		 test	 eax, eax
  009ea	74 0c		 je	 SHORT $LN74@create_sea
  009ec	c7 85 70 ff ff
	ff 2c 00 00 00	 mov	 DWORD PTR tv452[ebp], 44 ; 0000002cH
  009f6	eb 20		 jmp	 SHORT $LN75@create_sea
$LN74@create_sea:
  009f8	68 f6 07 00 00	 push	 2038			; 000007f6H
  009fd	68 00 00 00 00	 push	 OFFSET ??_C@_0ED@GMECMFKH@c?3?2users?2nhv90?2projects?2eech?2ap@
  00a02	8b 0d 00 00 00
	00		 mov	 ecx, DWORD PTR ?overload_invalid_float_type_message@@3PBDB ; overload_invalid_float_type_message
  00a08	51		 push	 ecx
  00a09	e8 00 00 00 00	 call	 ?process_assert@@YGXPBD0H@Z ; process_assert
  00a0e	c7 85 70 ff ff
	ff 00 00 00 00	 mov	 DWORD PTR tv452[ebp], 0
$LN75@create_sea:
  00a18	8b 55 f8	 mov	 edx, DWORD PTR _this_side$[ebp]
  00a1b	52		 push	 edx
  00a1c	8b 45 ec	 mov	 eax, DWORD PTR _sector$[ebp]
  00a1f	50		 push	 eax
  00a20	e8 00 00 00 00	 call	 ?get_sector_fog_of_war_value@@YGMPAUENTITY@@W4ENTITY_SIDES@@@Z ; get_sector_fog_of_war_value
  00a25	dd 9d 68 ff ff
	ff		 fstp	 QWORD PTR tv874[ebp]
  00a2b	f2 0f 10 85 68
	ff ff ff	 movsd	 xmm0, QWORD PTR tv874[ebp]
  00a33	6a 2c		 push	 44			; 0000002cH
  00a35	8b 0d 00 00 00
	00		 mov	 ecx, DWORD PTR ?session_entity@@3PAUENTITY@@A ; session_entity
  00a3b	51		 push	 ecx
  00a3c	69 95 74 ff ff
	ff bc 02 00 00	 imul	 edx, DWORD PTR tv445[ebp], 700
  00a46	8b 85 70 ff ff
	ff		 mov	 eax, DWORD PTR tv452[ebp]
  00a4c	8b 8c 82 00 00
	00 00		 mov	 ecx, DWORD PTR ?fn_get_local_entity_float_value@@3PAY0KP@P6GMPAUENTITY@@W4FLOAT_TYPES@@@ZA[edx+eax*4]
  00a53	f2 0f 11 85 60
	ff ff ff	 movsd	 QWORD PTR tv1024[ebp], xmm0
  00a5b	ff d1		 call	 ecx
  00a5d	dd 9d 58 ff ff
	ff		 fstp	 QWORD PTR tv882[ebp]
  00a63	f2 0f 10 85 58
	ff ff ff	 movsd	 xmm0, QWORD PTR tv882[ebp]
  00a6b	f2 0f 59 05 00
	00 00 00	 mulsd	 xmm0, QWORD PTR __real@3fd0000000000000
  00a73	f2 0f 10 8d 60
	ff ff ff	 movsd	 xmm1, QWORD PTR tv1024[ebp]
  00a7b	66 0f 2f c8	 comisd	 xmm1, xmm0
  00a7f	0f 82 85 02 00
	00		 jb	 $LN23@create_sea

; 2039 : 							{
; 2040 : 								//
; 2041 : 								// Create SEAD
; 2042 : 								//
; 2043 : 								
; 2044 : 								priority = (target_rating [loop] / max_rating) * task_database [ENTITY_SUB_TYPE_TASK_SEAD].task_priority;

  00a85	8b 45 d4	 mov	 eax, DWORD PTR _loop$[ebp]
  00a88	f3 0f 10 04 85
	00 00 00 00	 movss	 xmm0, DWORD PTR ?target_rating@@3PAMA[eax*4]
  00a91	f3 0f 5e 45 bc	 divss	 xmm0, DWORD PTR _max_rating$[ebp]
  00a96	b9 50 00 00 00	 mov	 ecx, 80			; 00000050H
  00a9b	6b d1 14	 imul	 edx, ecx, 20
  00a9e	f3 0f 59 82 10
	00 00 00	 mulss	 xmm0, DWORD PTR ?task_database@@3PAUTASK_DATA@@A[edx+16]
  00aa6	f3 0f 11 45 c8	 movss	 DWORD PTR _priority$[ebp], xmm0

; 2045 : 		
; 2046 : 								new_task = create_sead_task (this_side, group, NULL, FALSE, priority, NULL, NULL);

  00aab	6a 00		 push	 0
  00aad	6a 00		 push	 0
  00aaf	51		 push	 ecx
  00ab0	f3 0f 10 45 c8	 movss	 xmm0, DWORD PTR _priority$[ebp]
  00ab5	f3 0f 11 04 24	 movss	 DWORD PTR [esp], xmm0
  00aba	6a 00		 push	 0
  00abc	6a 00		 push	 0
  00abe	8b 45 f4	 mov	 eax, DWORD PTR _group$[ebp]
  00ac1	50		 push	 eax
  00ac2	8b 4d f8	 mov	 ecx, DWORD PTR _this_side$[ebp]
  00ac5	51		 push	 ecx
  00ac6	e8 00 00 00 00	 call	 ?create_sead_task@@YGPAUENTITY@@W4ENTITY_SIDES@@PAU1@1HM11@Z ; create_sead_task
  00acb	89 45 e8	 mov	 DWORD PTR _new_task$[ebp], eax

; 2047 : 	
; 2048 : 								if (new_task)

  00ace	83 7d e8 00	 cmp	 DWORD PTR _new_task$[ebp], 0
  00ad2	0f 84 2d 02 00
	00		 je	 $LN25@create_sea

; 2049 : 								{
; 2050 : 									ai_log ("(TASK) %s SEAD #%d (%d) - Target Sector %d, %d : Rating %f - CREATED (Priority %f)",

  00ad8	83 7d ec 00	 cmp	 DWORD PTR _sector$[ebp], 0
  00adc	74 0d		 je	 SHORT $LN76@create_sea
  00ade	8b 45 ec	 mov	 eax, DWORD PTR _sector$[ebp]
  00ae1	8b 08		 mov	 ecx, DWORD PTR [eax]
  00ae3	89 8d 74 ff ff
	ff		 mov	 DWORD PTR tv489[ebp], ecx
  00ae9	eb 27		 jmp	 SHORT $LN77@create_sea
$LN76@create_sea:
  00aeb	8b 15 00 00 00
	00		 mov	 edx, DWORD PTR ?__LINE__Var@?0??create_sead_tasks@@YGXXZ@4JA
  00af1	81 c2 aa 00 00
	00		 add	 edx, 170		; 000000aaH
  00af7	52		 push	 edx
  00af8	68 00 00 00 00	 push	 OFFSET ??_C@_0ED@GMECMFKH@c?3?2users?2nhv90?2projects?2eech?2ap@
  00afd	a1 00 00 00 00	 mov	 eax, DWORD PTR ?null_entity_pointer_message@@3PBDB ; null_entity_pointer_message
  00b02	50		 push	 eax
  00b03	e8 00 00 00 00	 call	 ?process_assert@@YGXPBD0H@Z ; process_assert
  00b08	c7 85 74 ff ff
	ff 00 00 00 00	 mov	 DWORD PTR tv489[ebp], 0
$LN77@create_sea:
  00b12	b9 01 00 00 00	 mov	 ecx, 1
  00b17	85 c9		 test	 ecx, ecx
  00b19	74 0c		 je	 SHORT $LN78@create_sea
  00b1b	c7 85 70 ff ff
	ff 16 01 00 00	 mov	 DWORD PTR tv497[ebp], 278 ; 00000116H
  00b25	eb 27		 jmp	 SHORT $LN79@create_sea
$LN78@create_sea:
  00b27	8b 15 00 00 00
	00		 mov	 edx, DWORD PTR ?__LINE__Var@?0??create_sead_tasks@@YGXXZ@4JA
  00b2d	81 c2 aa 00 00
	00		 add	 edx, 170		; 000000aaH
  00b33	52		 push	 edx
  00b34	68 00 00 00 00	 push	 OFFSET ??_C@_0ED@GMECMFKH@c?3?2users?2nhv90?2projects?2eech?2ap@
  00b39	a1 00 00 00 00	 mov	 eax, DWORD PTR ?overload_invalid_int_type_message@@3PBDB ; overload_invalid_int_type_message
  00b3e	50		 push	 eax
  00b3f	e8 00 00 00 00	 call	 ?process_assert@@YGXPBD0H@Z ; process_assert
  00b44	c7 85 70 ff ff
	ff 00 00 00 00	 mov	 DWORD PTR tv497[ebp], 0
$LN79@create_sea:
  00b4e	83 7d ec 00	 cmp	 DWORD PTR _sector$[ebp], 0
  00b52	74 0d		 je	 SHORT $LN80@create_sea
  00b54	8b 4d ec	 mov	 ecx, DWORD PTR _sector$[ebp]
  00b57	8b 11		 mov	 edx, DWORD PTR [ecx]
  00b59	89 95 6c ff ff
	ff		 mov	 DWORD PTR tv510[ebp], edx
  00b5f	eb 26		 jmp	 SHORT $LN81@create_sea
$LN80@create_sea:
  00b61	a1 00 00 00 00	 mov	 eax, DWORD PTR ?__LINE__Var@?0??create_sead_tasks@@YGXXZ@4JA
  00b66	05 a9 00 00 00	 add	 eax, 169		; 000000a9H
  00b6b	50		 push	 eax
  00b6c	68 00 00 00 00	 push	 OFFSET ??_C@_0ED@GMECMFKH@c?3?2users?2nhv90?2projects?2eech?2ap@
  00b71	8b 0d 00 00 00
	00		 mov	 ecx, DWORD PTR ?null_entity_pointer_message@@3PBDB ; null_entity_pointer_message
  00b77	51		 push	 ecx
  00b78	e8 00 00 00 00	 call	 ?process_assert@@YGXPBD0H@Z ; process_assert
  00b7d	c7 85 6c ff ff
	ff 00 00 00 00	 mov	 DWORD PTR tv510[ebp], 0
$LN81@create_sea:
  00b87	ba 01 00 00 00	 mov	 edx, 1
  00b8c	85 d2		 test	 edx, edx
  00b8e	74 0c		 je	 SHORT $LN82@create_sea
  00b90	c7 85 68 ff ff
	ff 15 01 00 00	 mov	 DWORD PTR tv518[ebp], 277 ; 00000115H
  00b9a	eb 26		 jmp	 SHORT $LN83@create_sea
$LN82@create_sea:
  00b9c	a1 00 00 00 00	 mov	 eax, DWORD PTR ?__LINE__Var@?0??create_sead_tasks@@YGXXZ@4JA
  00ba1	05 a9 00 00 00	 add	 eax, 169		; 000000a9H
  00ba6	50		 push	 eax
  00ba7	68 00 00 00 00	 push	 OFFSET ??_C@_0ED@GMECMFKH@c?3?2users?2nhv90?2projects?2eech?2ap@
  00bac	8b 0d 00 00 00
	00		 mov	 ecx, DWORD PTR ?overload_invalid_int_type_message@@3PBDB ; overload_invalid_int_type_message
  00bb2	51		 push	 ecx
  00bb3	e8 00 00 00 00	 call	 ?process_assert@@YGXPBD0H@Z ; process_assert
  00bb8	c7 85 68 ff ff
	ff 00 00 00 00	 mov	 DWORD PTR tv518[ebp], 0
$LN83@create_sea:
  00bc2	83 7d e8 00	 cmp	 DWORD PTR _new_task$[ebp], 0
  00bc6	74 14		 je	 SHORT $LN84@create_sea
  00bc8	8b 55 e8	 mov	 edx, DWORD PTR _new_task$[ebp]
  00bcb	2b 15 00 00 00
	00		 sub	 edx, DWORD PTR ?entities@@3PAUENTITY@@A ; entities
  00bd1	c1 fa 04	 sar	 edx, 4
  00bd4	89 95 64 ff ff
	ff		 mov	 DWORD PTR tv528[ebp], edx
  00bda	eb 0a		 jmp	 SHORT $LN85@create_sea
$LN84@create_sea:
  00bdc	c7 85 64 ff ff
	ff ff ff ff ff	 mov	 DWORD PTR tv528[ebp], -1
$LN85@create_sea:
  00be6	83 7d e8 00	 cmp	 DWORD PTR _new_task$[ebp], 0
  00bea	74 0d		 je	 SHORT $LN86@create_sea
  00bec	8b 45 e8	 mov	 eax, DWORD PTR _new_task$[ebp]
  00bef	8b 08		 mov	 ecx, DWORD PTR [eax]
  00bf1	89 8d 60 ff ff
	ff		 mov	 DWORD PTR tv536[ebp], ecx
  00bf7	eb 27		 jmp	 SHORT $LN87@create_sea
$LN86@create_sea:
  00bf9	8b 15 00 00 00
	00		 mov	 edx, DWORD PTR ?__LINE__Var@?0??create_sead_tasks@@YGXXZ@4JA
  00bff	81 c2 a7 00 00
	00		 add	 edx, 167		; 000000a7H
  00c05	52		 push	 edx
  00c06	68 00 00 00 00	 push	 OFFSET ??_C@_0ED@GMECMFKH@c?3?2users?2nhv90?2projects?2eech?2ap@
  00c0b	a1 00 00 00 00	 mov	 eax, DWORD PTR ?null_entity_pointer_message@@3PBDB ; null_entity_pointer_message
  00c10	50		 push	 eax
  00c11	e8 00 00 00 00	 call	 ?process_assert@@YGXPBD0H@Z ; process_assert
  00c16	c7 85 60 ff ff
	ff 00 00 00 00	 mov	 DWORD PTR tv536[ebp], 0
$LN87@create_sea:
  00c20	b9 01 00 00 00	 mov	 ecx, 1
  00c25	85 c9		 test	 ecx, ecx
  00c27	74 0c		 je	 SHORT $LN88@create_sea
  00c29	c7 85 5c ff ff
	ff dc 00 00 00	 mov	 DWORD PTR tv544[ebp], 220 ; 000000dcH
  00c33	eb 27		 jmp	 SHORT $LN89@create_sea
$LN88@create_sea:
  00c35	8b 15 00 00 00
	00		 mov	 edx, DWORD PTR ?__LINE__Var@?0??create_sead_tasks@@YGXXZ@4JA
  00c3b	81 c2 a7 00 00
	00		 add	 edx, 167		; 000000a7H
  00c41	52		 push	 edx
  00c42	68 00 00 00 00	 push	 OFFSET ??_C@_0ED@GMECMFKH@c?3?2users?2nhv90?2projects?2eech?2ap@
  00c47	a1 00 00 00 00	 mov	 eax, DWORD PTR ?overload_invalid_int_type_message@@3PBDB ; overload_invalid_int_type_message
  00c4c	50		 push	 eax
  00c4d	e8 00 00 00 00	 call	 ?process_assert@@YGXPBD0H@Z ; process_assert
  00c52	c7 85 5c ff ff
	ff 00 00 00 00	 mov	 DWORD PTR tv544[ebp], 0
$LN89@create_sea:
  00c5c	f3 0f 5a 45 c8	 cvtss2sd xmm0, DWORD PTR _priority$[ebp]
  00c61	83 ec 08	 sub	 esp, 8
  00c64	f2 0f 11 04 24	 movsd	 QWORD PTR [esp], xmm0
  00c69	8b 4d d4	 mov	 ecx, DWORD PTR _loop$[ebp]
  00c6c	f3 0f 5a 04 8d
	00 00 00 00	 cvtss2sd xmm0, DWORD PTR ?target_rating@@3PAMA[ecx*4]
  00c75	83 ec 08	 sub	 esp, 8
  00c78	f2 0f 11 04 24	 movsd	 QWORD PTR [esp], xmm0
  00c7d	68 16 01 00 00	 push	 278			; 00000116H
  00c82	8b 55 ec	 mov	 edx, DWORD PTR _sector$[ebp]
  00c85	52		 push	 edx
  00c86	69 85 74 ff ff
	ff 5c 04 00 00	 imul	 eax, DWORD PTR tv489[ebp], 1116
  00c90	8b 8d 70 ff ff
	ff		 mov	 ecx, DWORD PTR tv497[ebp]
  00c96	8b 94 88 00 00
	00 00		 mov	 edx, DWORD PTR ?fn_get_local_entity_int_value@@3PAY0BBH@P6GHPAUENTITY@@W4INT_TYPES@@@ZA[eax+ecx*4]
  00c9d	ff d2		 call	 edx
  00c9f	50		 push	 eax
  00ca0	68 15 01 00 00	 push	 277			; 00000115H
  00ca5	8b 45 ec	 mov	 eax, DWORD PTR _sector$[ebp]
  00ca8	50		 push	 eax
  00ca9	69 8d 6c ff ff
	ff 5c 04 00 00	 imul	 ecx, DWORD PTR tv510[ebp], 1116
  00cb3	8b 95 68 ff ff
	ff		 mov	 edx, DWORD PTR tv518[ebp]
  00cb9	8b 84 91 00 00
	00 00		 mov	 eax, DWORD PTR ?fn_get_local_entity_int_value@@3PAY0BBH@P6GHPAUENTITY@@W4INT_TYPES@@@ZA[ecx+edx*4]
  00cc0	ff d0		 call	 eax
  00cc2	50		 push	 eax
  00cc3	8b 8d 64 ff ff
	ff		 mov	 ecx, DWORD PTR tv528[ebp]
  00cc9	51		 push	 ecx
  00cca	68 dc 00 00 00	 push	 220			; 000000dcH
  00ccf	8b 55 e8	 mov	 edx, DWORD PTR _new_task$[ebp]
  00cd2	52		 push	 edx
  00cd3	69 85 60 ff ff
	ff 5c 04 00 00	 imul	 eax, DWORD PTR tv536[ebp], 1116
  00cdd	8b 8d 5c ff ff
	ff		 mov	 ecx, DWORD PTR tv544[ebp]
  00ce3	8b 94 88 00 00
	00 00		 mov	 edx, DWORD PTR ?fn_get_local_entity_int_value@@3PAY0BBH@P6GHPAUENTITY@@W4INT_TYPES@@@ZA[eax+ecx*4]
  00cea	ff d2		 call	 edx
  00cec	50		 push	 eax
  00ced	8b 45 f8	 mov	 eax, DWORD PTR _this_side$[ebp]
  00cf0	8b 0c 85 00 00
	00 00		 mov	 ecx, DWORD PTR ?entity_side_short_names@@3PAPBDA[eax*4]
  00cf7	51		 push	 ecx
  00cf8	68 00 00 00 00	 push	 OFFSET ??_C@_0FD@FFMCDIJF@?$CITASK?$CJ?5?$CFs?5SEAD?5?$CD?$CFd?5?$CI?$CFd?$CJ?5?9?5Targe@
  00cfd	e8 00 00 00 00	 call	 ?ai_log@@YAXPBDZZ	; ai_log
  00d02	83 c4 28	 add	 esp, 40			; 00000028H
$LN25@create_sea:

; 2051 : 											entity_side_short_names [this_side],
; 2052 : 											get_local_entity_int_value (new_task, INT_TYPE_TASK_ID),
; 2053 : 											get_local_entity_safe_index (new_task),
; 2054 : 											get_local_entity_int_value (sector, INT_TYPE_X_SECTOR),
; 2055 : 											get_local_entity_int_value (sector, INT_TYPE_Z_SECTOR),
; 2056 : 											target_rating [loop], priority);
; 2057 : 								}
; 2058 : 							}
; 2059 : 							else

  00d05	e9 80 02 00 00	 jmp	 $LN26@create_sea
$LN23@create_sea:

; 2060 : 							{
; 2061 : 								//
; 2062 : 								// Create RECON
; 2063 : 								//
; 2064 : 								
; 2065 : 								priority = (target_rating [loop] / max_rating) * task_database [ENTITY_SUB_TYPE_TASK_SEAD].task_priority;

  00d0a	8b 45 d4	 mov	 eax, DWORD PTR _loop$[ebp]
  00d0d	f3 0f 10 04 85
	00 00 00 00	 movss	 xmm0, DWORD PTR ?target_rating@@3PAMA[eax*4]
  00d16	f3 0f 5e 45 bc	 divss	 xmm0, DWORD PTR _max_rating$[ebp]
  00d1b	b9 50 00 00 00	 mov	 ecx, 80			; 00000050H
  00d20	6b d1 14	 imul	 edx, ecx, 20
  00d23	f3 0f 59 82 10
	00 00 00	 mulss	 xmm0, DWORD PTR ?task_database@@3PAUTASK_DATA@@A[edx+16]
  00d2b	f3 0f 11 45 c8	 movss	 DWORD PTR _priority$[ebp], xmm0

; 2066 : 	
; 2067 : 								new_task = create_recon_task (this_side, group, NULL, TRUE, priority, NULL, NULL);

  00d30	6a 00		 push	 0
  00d32	6a 00		 push	 0
  00d34	51		 push	 ecx
  00d35	f3 0f 10 45 c8	 movss	 xmm0, DWORD PTR _priority$[ebp]
  00d3a	f3 0f 11 04 24	 movss	 DWORD PTR [esp], xmm0
  00d3f	6a 01		 push	 1
  00d41	6a 00		 push	 0
  00d43	8b 45 f4	 mov	 eax, DWORD PTR _group$[ebp]
  00d46	50		 push	 eax
  00d47	8b 4d f8	 mov	 ecx, DWORD PTR _this_side$[ebp]
  00d4a	51		 push	 ecx
  00d4b	e8 00 00 00 00	 call	 ?create_recon_task@@YGPAUENTITY@@W4ENTITY_SIDES@@PAU1@1HM11@Z ; create_recon_task
  00d50	89 45 e8	 mov	 DWORD PTR _new_task$[ebp], eax

; 2068 : 	
; 2069 : 								if (new_task)

  00d53	83 7d e8 00	 cmp	 DWORD PTR _new_task$[ebp], 0
  00d57	0f 84 2d 02 00
	00		 je	 $LN26@create_sea

; 2070 : 								{
; 2071 : 									ai_log ("(TASK) %s SEAD RECON #%d (%d) - Target Sector %d, %d : Rating %f - CREATED (Priority %f)",

  00d5d	83 7d ec 00	 cmp	 DWORD PTR _sector$[ebp], 0
  00d61	74 0d		 je	 SHORT $LN90@create_sea
  00d63	8b 45 ec	 mov	 eax, DWORD PTR _sector$[ebp]
  00d66	8b 08		 mov	 ecx, DWORD PTR [eax]
  00d68	89 8d 74 ff ff
	ff		 mov	 DWORD PTR tv583[ebp], ecx
  00d6e	eb 27		 jmp	 SHORT $LN91@create_sea
$LN90@create_sea:
  00d70	8b 15 00 00 00
	00		 mov	 edx, DWORD PTR ?__LINE__Var@?0??create_sead_tasks@@YGXXZ@4JA
  00d76	81 c2 bf 00 00
	00		 add	 edx, 191		; 000000bfH
  00d7c	52		 push	 edx
  00d7d	68 00 00 00 00	 push	 OFFSET ??_C@_0ED@GMECMFKH@c?3?2users?2nhv90?2projects?2eech?2ap@
  00d82	a1 00 00 00 00	 mov	 eax, DWORD PTR ?null_entity_pointer_message@@3PBDB ; null_entity_pointer_message
  00d87	50		 push	 eax
  00d88	e8 00 00 00 00	 call	 ?process_assert@@YGXPBD0H@Z ; process_assert
  00d8d	c7 85 74 ff ff
	ff 00 00 00 00	 mov	 DWORD PTR tv583[ebp], 0
$LN91@create_sea:
  00d97	b9 01 00 00 00	 mov	 ecx, 1
  00d9c	85 c9		 test	 ecx, ecx
  00d9e	74 0c		 je	 SHORT $LN92@create_sea
  00da0	c7 85 70 ff ff
	ff 16 01 00 00	 mov	 DWORD PTR tv591[ebp], 278 ; 00000116H
  00daa	eb 27		 jmp	 SHORT $LN93@create_sea
$LN92@create_sea:
  00dac	8b 15 00 00 00
	00		 mov	 edx, DWORD PTR ?__LINE__Var@?0??create_sead_tasks@@YGXXZ@4JA
  00db2	81 c2 bf 00 00
	00		 add	 edx, 191		; 000000bfH
  00db8	52		 push	 edx
  00db9	68 00 00 00 00	 push	 OFFSET ??_C@_0ED@GMECMFKH@c?3?2users?2nhv90?2projects?2eech?2ap@
  00dbe	a1 00 00 00 00	 mov	 eax, DWORD PTR ?overload_invalid_int_type_message@@3PBDB ; overload_invalid_int_type_message
  00dc3	50		 push	 eax
  00dc4	e8 00 00 00 00	 call	 ?process_assert@@YGXPBD0H@Z ; process_assert
  00dc9	c7 85 70 ff ff
	ff 00 00 00 00	 mov	 DWORD PTR tv591[ebp], 0
$LN93@create_sea:
  00dd3	83 7d ec 00	 cmp	 DWORD PTR _sector$[ebp], 0
  00dd7	74 0d		 je	 SHORT $LN94@create_sea
  00dd9	8b 4d ec	 mov	 ecx, DWORD PTR _sector$[ebp]
  00ddc	8b 11		 mov	 edx, DWORD PTR [ecx]
  00dde	89 95 6c ff ff
	ff		 mov	 DWORD PTR tv604[ebp], edx
  00de4	eb 26		 jmp	 SHORT $LN95@create_sea
$LN94@create_sea:
  00de6	a1 00 00 00 00	 mov	 eax, DWORD PTR ?__LINE__Var@?0??create_sead_tasks@@YGXXZ@4JA
  00deb	05 be 00 00 00	 add	 eax, 190		; 000000beH
  00df0	50		 push	 eax
  00df1	68 00 00 00 00	 push	 OFFSET ??_C@_0ED@GMECMFKH@c?3?2users?2nhv90?2projects?2eech?2ap@
  00df6	8b 0d 00 00 00
	00		 mov	 ecx, DWORD PTR ?null_entity_pointer_message@@3PBDB ; null_entity_pointer_message
  00dfc	51		 push	 ecx
  00dfd	e8 00 00 00 00	 call	 ?process_assert@@YGXPBD0H@Z ; process_assert
  00e02	c7 85 6c ff ff
	ff 00 00 00 00	 mov	 DWORD PTR tv604[ebp], 0
$LN95@create_sea:
  00e0c	ba 01 00 00 00	 mov	 edx, 1
  00e11	85 d2		 test	 edx, edx
  00e13	74 0c		 je	 SHORT $LN96@create_sea
  00e15	c7 85 68 ff ff
	ff 15 01 00 00	 mov	 DWORD PTR tv612[ebp], 277 ; 00000115H
  00e1f	eb 26		 jmp	 SHORT $LN97@create_sea
$LN96@create_sea:
  00e21	a1 00 00 00 00	 mov	 eax, DWORD PTR ?__LINE__Var@?0??create_sead_tasks@@YGXXZ@4JA
  00e26	05 be 00 00 00	 add	 eax, 190		; 000000beH
  00e2b	50		 push	 eax
  00e2c	68 00 00 00 00	 push	 OFFSET ??_C@_0ED@GMECMFKH@c?3?2users?2nhv90?2projects?2eech?2ap@
  00e31	8b 0d 00 00 00
	00		 mov	 ecx, DWORD PTR ?overload_invalid_int_type_message@@3PBDB ; overload_invalid_int_type_message
  00e37	51		 push	 ecx
  00e38	e8 00 00 00 00	 call	 ?process_assert@@YGXPBD0H@Z ; process_assert
  00e3d	c7 85 68 ff ff
	ff 00 00 00 00	 mov	 DWORD PTR tv612[ebp], 0
$LN97@create_sea:
  00e47	83 7d e8 00	 cmp	 DWORD PTR _new_task$[ebp], 0
  00e4b	74 14		 je	 SHORT $LN98@create_sea
  00e4d	8b 55 e8	 mov	 edx, DWORD PTR _new_task$[ebp]
  00e50	2b 15 00 00 00
	00		 sub	 edx, DWORD PTR ?entities@@3PAUENTITY@@A ; entities
  00e56	c1 fa 04	 sar	 edx, 4
  00e59	89 95 64 ff ff
	ff		 mov	 DWORD PTR tv622[ebp], edx
  00e5f	eb 0a		 jmp	 SHORT $LN99@create_sea
$LN98@create_sea:
  00e61	c7 85 64 ff ff
	ff ff ff ff ff	 mov	 DWORD PTR tv622[ebp], -1
$LN99@create_sea:
  00e6b	83 7d e8 00	 cmp	 DWORD PTR _new_task$[ebp], 0
  00e6f	74 0d		 je	 SHORT $LN100@create_sea
  00e71	8b 45 e8	 mov	 eax, DWORD PTR _new_task$[ebp]
  00e74	8b 08		 mov	 ecx, DWORD PTR [eax]
  00e76	89 8d 60 ff ff
	ff		 mov	 DWORD PTR tv630[ebp], ecx
  00e7c	eb 27		 jmp	 SHORT $LN101@create_sea
$LN100@create_sea:
  00e7e	8b 15 00 00 00
	00		 mov	 edx, DWORD PTR ?__LINE__Var@?0??create_sead_tasks@@YGXXZ@4JA
  00e84	81 c2 bc 00 00
	00		 add	 edx, 188		; 000000bcH
  00e8a	52		 push	 edx
  00e8b	68 00 00 00 00	 push	 OFFSET ??_C@_0ED@GMECMFKH@c?3?2users?2nhv90?2projects?2eech?2ap@
  00e90	a1 00 00 00 00	 mov	 eax, DWORD PTR ?null_entity_pointer_message@@3PBDB ; null_entity_pointer_message
  00e95	50		 push	 eax
  00e96	e8 00 00 00 00	 call	 ?process_assert@@YGXPBD0H@Z ; process_assert
  00e9b	c7 85 60 ff ff
	ff 00 00 00 00	 mov	 DWORD PTR tv630[ebp], 0
$LN101@create_sea:
  00ea5	b9 01 00 00 00	 mov	 ecx, 1
  00eaa	85 c9		 test	 ecx, ecx
  00eac	74 0c		 je	 SHORT $LN102@create_sea
  00eae	c7 85 5c ff ff
	ff dc 00 00 00	 mov	 DWORD PTR tv638[ebp], 220 ; 000000dcH
  00eb8	eb 27		 jmp	 SHORT $LN103@create_sea
$LN102@create_sea:
  00eba	8b 15 00 00 00
	00		 mov	 edx, DWORD PTR ?__LINE__Var@?0??create_sead_tasks@@YGXXZ@4JA
  00ec0	81 c2 bc 00 00
	00		 add	 edx, 188		; 000000bcH
  00ec6	52		 push	 edx
  00ec7	68 00 00 00 00	 push	 OFFSET ??_C@_0ED@GMECMFKH@c?3?2users?2nhv90?2projects?2eech?2ap@
  00ecc	a1 00 00 00 00	 mov	 eax, DWORD PTR ?overload_invalid_int_type_message@@3PBDB ; overload_invalid_int_type_message
  00ed1	50		 push	 eax
  00ed2	e8 00 00 00 00	 call	 ?process_assert@@YGXPBD0H@Z ; process_assert
  00ed7	c7 85 5c ff ff
	ff 00 00 00 00	 mov	 DWORD PTR tv638[ebp], 0
$LN103@create_sea:
  00ee1	f3 0f 5a 45 c8	 cvtss2sd xmm0, DWORD PTR _priority$[ebp]
  00ee6	83 ec 08	 sub	 esp, 8
  00ee9	f2 0f 11 04 24	 movsd	 QWORD PTR [esp], xmm0
  00eee	8b 4d d4	 mov	 ecx, DWORD PTR _loop$[ebp]
  00ef1	f3 0f 5a 04 8d
	00 00 00 00	 cvtss2sd xmm0, DWORD PTR ?target_rating@@3PAMA[ecx*4]
  00efa	83 ec 08	 sub	 esp, 8
  00efd	f2 0f 11 04 24	 movsd	 QWORD PTR [esp], xmm0
  00f02	68 16 01 00 00	 push	 278			; 00000116H
  00f07	8b 55 ec	 mov	 edx, DWORD PTR _sector$[ebp]
  00f0a	52		 push	 edx
  00f0b	69 85 74 ff ff
	ff 5c 04 00 00	 imul	 eax, DWORD PTR tv583[ebp], 1116
  00f15	8b 8d 70 ff ff
	ff		 mov	 ecx, DWORD PTR tv591[ebp]
  00f1b	8b 94 88 00 00
	00 00		 mov	 edx, DWORD PTR ?fn_get_local_entity_int_value@@3PAY0BBH@P6GHPAUENTITY@@W4INT_TYPES@@@ZA[eax+ecx*4]
  00f22	ff d2		 call	 edx
  00f24	50		 push	 eax
  00f25	68 15 01 00 00	 push	 277			; 00000115H
  00f2a	8b 45 ec	 mov	 eax, DWORD PTR _sector$[ebp]
  00f2d	50		 push	 eax
  00f2e	69 8d 6c ff ff
	ff 5c 04 00 00	 imul	 ecx, DWORD PTR tv604[ebp], 1116
  00f38	8b 95 68 ff ff
	ff		 mov	 edx, DWORD PTR tv612[ebp]
  00f3e	8b 84 91 00 00
	00 00		 mov	 eax, DWORD PTR ?fn_get_local_entity_int_value@@3PAY0BBH@P6GHPAUENTITY@@W4INT_TYPES@@@ZA[ecx+edx*4]
  00f45	ff d0		 call	 eax
  00f47	50		 push	 eax
  00f48	8b 8d 64 ff ff
	ff		 mov	 ecx, DWORD PTR tv622[ebp]
  00f4e	51		 push	 ecx
  00f4f	68 dc 00 00 00	 push	 220			; 000000dcH
  00f54	8b 55 e8	 mov	 edx, DWORD PTR _new_task$[ebp]
  00f57	52		 push	 edx
  00f58	69 85 60 ff ff
	ff 5c 04 00 00	 imul	 eax, DWORD PTR tv630[ebp], 1116
  00f62	8b 8d 5c ff ff
	ff		 mov	 ecx, DWORD PTR tv638[ebp]
  00f68	8b 94 88 00 00
	00 00		 mov	 edx, DWORD PTR ?fn_get_local_entity_int_value@@3PAY0BBH@P6GHPAUENTITY@@W4INT_TYPES@@@ZA[eax+ecx*4]
  00f6f	ff d2		 call	 edx
  00f71	50		 push	 eax
  00f72	8b 45 f8	 mov	 eax, DWORD PTR _this_side$[ebp]
  00f75	8b 0c 85 00 00
	00 00		 mov	 ecx, DWORD PTR ?entity_side_short_names@@3PAPBDA[eax*4]
  00f7c	51		 push	 ecx
  00f7d	68 00 00 00 00	 push	 OFFSET ??_C@_0FJ@BPGJMGNM@?$CITASK?$CJ?5?$CFs?5SEAD?5RECON?5?$CD?$CFd?5?$CI?$CFd?$CJ?5?9@
  00f82	e8 00 00 00 00	 call	 ?ai_log@@YAXPBDZZ	; ai_log
  00f87	83 c4 28	 add	 esp, 40			; 00000028H
$LN26@create_sea:

; 2072 : 											entity_side_short_names [this_side],
; 2073 : 											get_local_entity_int_value (new_task, INT_TYPE_TASK_ID),
; 2074 : 											get_local_entity_safe_index (new_task),
; 2075 : 											get_local_entity_int_value (sector, INT_TYPE_X_SECTOR),
; 2076 : 											get_local_entity_int_value (sector, INT_TYPE_Z_SECTOR),
; 2077 : 											target_rating [loop], priority);
; 2078 : 								}
; 2079 : 							}
; 2080 : 						}
; 2081 : 					}
; 2082 : 				}
; 2083 : 			}

  00f8a	e9 bf f8 ff ff	 jmp	 $LN8@create_sea
$LN9@create_sea:

; 2084 : 		}
; 2085 : 
; 2086 : 		//
; 2087 : 		// Next force
; 2088 : 		//
; 2089 : 	
; 2090 : 		force = get_local_entity_child_succ (force, LIST_TYPE_FORCE);

  00f8f	83 7d f0 00	 cmp	 DWORD PTR _force$[ebp], 0
  00f93	74 0d		 je	 SHORT $LN104@create_sea
  00f95	8b 45 f0	 mov	 eax, DWORD PTR _force$[ebp]
  00f98	8b 08		 mov	 ecx, DWORD PTR [eax]
  00f9a	89 8d 74 ff ff
	ff		 mov	 DWORD PTR tv655[ebp], ecx
  00fa0	eb 27		 jmp	 SHORT $LN105@create_sea
$LN104@create_sea:
  00fa2	8b 15 00 00 00
	00		 mov	 edx, DWORD PTR ?__LINE__Var@?0??create_sead_tasks@@YGXXZ@4JA
  00fa8	81 c2 cd 00 00
	00		 add	 edx, 205		; 000000cdH
  00fae	52		 push	 edx
  00faf	68 00 00 00 00	 push	 OFFSET ??_C@_0ED@GMECMFKH@c?3?2users?2nhv90?2projects?2eech?2ap@
  00fb4	a1 00 00 00 00	 mov	 eax, DWORD PTR ?null_entity_pointer_message@@3PBDB ; null_entity_pointer_message
  00fb9	50		 push	 eax
  00fba	e8 00 00 00 00	 call	 ?process_assert@@YGXPBD0H@Z ; process_assert
  00fbf	c7 85 74 ff ff
	ff 00 00 00 00	 mov	 DWORD PTR tv655[ebp], 0
$LN105@create_sea:
  00fc9	b9 01 00 00 00	 mov	 ecx, 1
  00fce	85 c9		 test	 ecx, ecx
  00fd0	74 0c		 je	 SHORT $LN106@create_sea
  00fd2	c7 85 70 ff ff
	ff 0e 00 00 00	 mov	 DWORD PTR tv663[ebp], 14 ; 0000000eH
  00fdc	eb 27		 jmp	 SHORT $LN107@create_sea
$LN106@create_sea:
  00fde	8b 15 00 00 00
	00		 mov	 edx, DWORD PTR ?__LINE__Var@?0??create_sead_tasks@@YGXXZ@4JA
  00fe4	81 c2 cd 00 00
	00		 add	 edx, 205		; 000000cdH
  00fea	52		 push	 edx
  00feb	68 00 00 00 00	 push	 OFFSET ??_C@_0ED@GMECMFKH@c?3?2users?2nhv90?2projects?2eech?2ap@
  00ff0	a1 00 00 00 00	 mov	 eax, DWORD PTR ?overload_invalid_list_type_message@@3PBDB ; overload_invalid_list_type_message
  00ff5	50		 push	 eax
  00ff6	e8 00 00 00 00	 call	 ?process_assert@@YGXPBD0H@Z ; process_assert
  00ffb	c7 85 70 ff ff
	ff 00 00 00 00	 mov	 DWORD PTR tv663[ebp], 0
$LN107@create_sea:
  01005	6a 0e		 push	 14			; 0000000eH
  01007	8b 4d f0	 mov	 ecx, DWORD PTR _force$[ebp]
  0100a	51		 push	 ecx
  0100b	69 95 74 ff ff
	ff b4 00 00 00	 imul	 edx, DWORD PTR tv655[ebp], 180
  01015	8b 85 70 ff ff
	ff		 mov	 eax, DWORD PTR tv663[ebp]
  0101b	8b 8c 82 00 00
	00 00		 mov	 ecx, DWORD PTR ?fn_get_local_entity_child_succ@@3PAY0CN@P6GPAUENTITY@@PAU1@W4LIST_TYPES@@@ZA[edx+eax*4]
  01022	ff d1		 call	 ecx
  01024	89 45 f0	 mov	 DWORD PTR _force$[ebp], eax

; 2091 : 	}

  01027	e9 9b f0 ff ff	 jmp	 $LN2@create_sea
$LN3@create_sea:

; 2092 : }

  0102c	5f		 pop	 edi
  0102d	5e		 pop	 esi
  0102e	5b		 pop	 ebx
  0102f	8b e5		 mov	 esp, ebp
  01031	5d		 pop	 ebp
  01032	c3		 ret	 0
?create_sead_tasks@@YGXXZ ENDP				; create_sead_tasks
_TEXT	ENDS
; Function compile flags: /Odtp /ZI
; File c:\users\nhv90\projects\eech\aphavoc\source\ai\highlevl\highlevl.c
;	COMDAT ?create_troop_insertion_tasks@@YGXXZ
_TEXT	SEGMENT
tv1051 = -172						; size = 8
tv1160 = -164						; size = 8
tv755 = -160						; size = 4
tv658 = -160						; size = 4
tv1043 = -156						; size = 8
tv951 = -156						; size = 8
tv747 = -156						; size = 4
tv650 = -156						; size = 4
tv739 = -152						; size = 4
tv642 = -152						; size = 4
tv961 = -148						; size = 8
tv935 = -148						; size = 8
tv925 = -148						; size = 8
tv780 = -148						; size = 4
tv729 = -148						; size = 4
tv681 = -148						; size = 4
tv600 = -148						; size = 4
tv540 = -148						; size = 4
tv512 = -148						; size = 4
tv487 = -148						; size = 4
tv436 = -148						; size = 4
tv416 = -148						; size = 4
tv374 = -148						; size = 4
tv323 = -148						; size = 4
tv294 = -148						; size = 4
tv268 = -148						; size = 4
tv247 = -148						; size = 4
tv228 = -148						; size = 4
tv208 = -148						; size = 4
tv187 = -148						; size = 4
tv165 = -148						; size = 4
tv145 = -148						; size = 4
tv86 = -148						; size = 4
tv772 = -144						; size = 4
tv721 = -144						; size = 4
tv674 = -144						; size = 4
tv592 = -144						; size = 4
tv533 = -144						; size = 4
tv504 = -144						; size = 4
tv479 = -144						; size = 4
tv428 = -144						; size = 4
tv408 = -144						; size = 4
tv366 = -144						; size = 4
tv315 = -144						; size = 4
tv286 = -144						; size = 4
tv260 = -144						; size = 4
tv240 = -144						; size = 4
tv221 = -144						; size = 4
tv200 = -144						; size = 4
tv179 = -144						; size = 4
tv157 = -144						; size = 4
tv137 = -144						; size = 4
tv78 = -144						; size = 4
$T1 = -140						; size = 4
_max_rating$ = -72					; size = 4
_ratio$ = -68						; size = 4
_rating$ = -64						; size = 4
_priority$ = -60					; size = 4
_efficiency$ = -56					; size = 4
_keysite_type$ = -52					; size = 4
_count$ = -48						; size = 4
_loop$ = -44						; size = 4
_z$ = -40						; size = 4
_x$ = -36						; size = 4
_pos$ = -32						; size = 4
_keysite$ = -28						; size = 4
_new_task$ = -24					; size = 4
_target_force$ = -20					; size = 4
_sector$ = -16						; size = 4
_force$ = -12						; size = 4
_this_side$ = -8					; size = 4
_side$ = -4						; size = 4
?create_troop_insertion_tasks@@YGXXZ PROC		; create_troop_insertion_tasks, COMDAT

; 1655 : {

  00000	55		 push	 ebp
  00001	8b ec		 mov	 ebp, esp
  00003	81 ec ac 00 00
	00		 sub	 esp, 172		; 000000acH
  00009	53		 push	 ebx
  0000a	56		 push	 esi
  0000b	57		 push	 edi

; 1656 : 	entity_sides
; 1657 : 		side,
; 1658 : 		this_side;
; 1659 : 
; 1660 : 	entity
; 1661 : 		*force,
; 1662 : 		*sector,
; 1663 : 		*target_force,
; 1664 : 		*new_task,
; 1665 : 		*keysite;
; 1666 : 
; 1667 : 	vec3d
; 1668 : 		*pos;
; 1669 : 
; 1670 : 	int
; 1671 : 		x,
; 1672 : 		z,
; 1673 : 		loop,
; 1674 : 		count,
; 1675 : 		keysite_type;
; 1676 : 
; 1677 : 	float
; 1678 : 		efficiency,
; 1679 : 		priority,
; 1680 : 		rating,
; 1681 : 		ratio,
; 1682 : 		max_rating;
; 1683 : 
; 1684 : 	ASSERT (get_comms_model () == COMMS_MODEL_SERVER);

  0000c	83 3d 00 00 00
	00 00		 cmp	 DWORD PTR ?system_comms_model@@3W4COMMS_MODEL_TYPES@@A, 0 ; system_comms_model
  00013	74 18		 je	 SHORT $LN11@create_tro
  00015	a1 00 00 00 00	 mov	 eax, DWORD PTR ?__LINE__Var@?0??create_troop_insertion_tasks@@YGXXZ@4JA
  0001a	83 c0 1d	 add	 eax, 29			; 0000001dH
  0001d	50		 push	 eax
  0001e	68 00 00 00 00	 push	 OFFSET ??_C@_0ED@GMECMFKH@c?3?2users?2nhv90?2projects?2eech?2ap@
  00023	68 00 00 00 00	 push	 OFFSET ??_C@_0CJ@DMBLBJBK@get_comms_model?5?$CI?$CJ?5?$DN?$DN?5COMMS_MOD@
  00028	e8 00 00 00 00	 call	 ?process_assert@@YGXPBD0H@Z ; process_assert
$LN11@create_tro:

; 1685 : 
; 1686 : 	ai_log ("============================");

  0002d	68 00 00 00 00	 push	 OFFSET ??_C@_0BN@LNBJDKDH@?$DN?$DN?$DN?$DN?$DN?$DN?$DN?$DN?$DN?$DN?$DN?$DN?$DN?$DN?$DN?$DN?$DN?$DN?$DN?$DN?$DN?$DN?$DN?$DN?$DN?$DN?$DN?$DN@
  00032	e8 00 00 00 00	 call	 ?ai_log@@YAXPBDZZ	; ai_log
  00037	83 c4 04	 add	 esp, 4

; 1687 : 	ai_log ("CREATE TROOP INSERTION TASKS");

  0003a	68 00 00 00 00	 push	 OFFSET ??_C@_0BN@PAOIDBBL@CREATE?5TROOP?5INSERTION?5TASKS@
  0003f	e8 00 00 00 00	 call	 ?ai_log@@YAXPBDZZ	; ai_log
  00044	83 c4 04	 add	 esp, 4

; 1688 : 	ai_log ("----------------------------");

  00047	68 00 00 00 00	 push	 OFFSET ??_C@_0BN@PNBNEKLM@?9?9?9?9?9?9?9?9?9?9?9?9?9?9?9?9?9?9?9?9?9?9?9?9?9?9?9?9@
  0004c	e8 00 00 00 00	 call	 ?ai_log@@YAXPBDZZ	; ai_log
  00051	83 c4 04	 add	 esp, 4

; 1689 : 
; 1690 : 	force = get_local_entity_first_child (get_session_entity (), LIST_TYPE_FORCE);

  00054	83 3d 00 00 00
	00 00		 cmp	 DWORD PTR ?session_entity@@3PAUENTITY@@A, 0 ; session_entity
  0005b	74 0f		 je	 SHORT $LN31@create_tro
  0005d	a1 00 00 00 00	 mov	 eax, DWORD PTR ?session_entity@@3PAUENTITY@@A ; session_entity
  00062	8b 08		 mov	 ecx, DWORD PTR [eax]
  00064	89 8d 70 ff ff
	ff		 mov	 DWORD PTR tv78[ebp], ecx
  0006a	eb 24		 jmp	 SHORT $LN32@create_tro
$LN31@create_tro:
  0006c	8b 15 00 00 00
	00		 mov	 edx, DWORD PTR ?__LINE__Var@?0??create_troop_insertion_tasks@@YGXXZ@4JA
  00072	83 c2 23	 add	 edx, 35			; 00000023H
  00075	52		 push	 edx
  00076	68 00 00 00 00	 push	 OFFSET ??_C@_0ED@GMECMFKH@c?3?2users?2nhv90?2projects?2eech?2ap@
  0007b	a1 00 00 00 00	 mov	 eax, DWORD PTR ?null_entity_pointer_message@@3PBDB ; null_entity_pointer_message
  00080	50		 push	 eax
  00081	e8 00 00 00 00	 call	 ?process_assert@@YGXPBD0H@Z ; process_assert
  00086	c7 85 70 ff ff
	ff 00 00 00 00	 mov	 DWORD PTR tv78[ebp], 0
$LN32@create_tro:
  00090	b9 01 00 00 00	 mov	 ecx, 1
  00095	85 c9		 test	 ecx, ecx
  00097	74 0c		 je	 SHORT $LN33@create_tro
  00099	c7 85 6c ff ff
	ff 0e 00 00 00	 mov	 DWORD PTR tv86[ebp], 14	; 0000000eH
  000a3	eb 24		 jmp	 SHORT $LN34@create_tro
$LN33@create_tro:
  000a5	8b 15 00 00 00
	00		 mov	 edx, DWORD PTR ?__LINE__Var@?0??create_troop_insertion_tasks@@YGXXZ@4JA
  000ab	83 c2 23	 add	 edx, 35			; 00000023H
  000ae	52		 push	 edx
  000af	68 00 00 00 00	 push	 OFFSET ??_C@_0ED@GMECMFKH@c?3?2users?2nhv90?2projects?2eech?2ap@
  000b4	a1 00 00 00 00	 mov	 eax, DWORD PTR ?overload_invalid_list_type_message@@3PBDB ; overload_invalid_list_type_message
  000b9	50		 push	 eax
  000ba	e8 00 00 00 00	 call	 ?process_assert@@YGXPBD0H@Z ; process_assert
  000bf	c7 85 6c ff ff
	ff 00 00 00 00	 mov	 DWORD PTR tv86[ebp], 0
$LN34@create_tro:
  000c9	6a 0e		 push	 14			; 0000000eH
  000cb	8b 0d 00 00 00
	00		 mov	 ecx, DWORD PTR ?session_entity@@3PAUENTITY@@A ; session_entity
  000d1	51		 push	 ecx
  000d2	69 95 70 ff ff
	ff b4 00 00 00	 imul	 edx, DWORD PTR tv78[ebp], 180
  000dc	8b 85 6c ff ff
	ff		 mov	 eax, DWORD PTR tv86[ebp]
  000e2	8b 8c 82 00 00
	00 00		 mov	 ecx, DWORD PTR ?fn_get_local_entity_first_child@@3PAY0CN@P6GPAUENTITY@@PAU1@W4LIST_TYPES@@@ZA[edx+eax*4]
  000e9	ff d1		 call	 ecx
  000eb	89 45 f4	 mov	 DWORD PTR _force$[ebp], eax
$LN2@create_tro:

; 1691 : 
; 1692 : 	while (force)

  000ee	83 7d f4 00	 cmp	 DWORD PTR _force$[ebp], 0
  000f2	0f 84 9a 11 00
	00		 je	 $LN3@create_tro

; 1693 : 	{
; 1694 : 		//
; 1695 : 		// for each force ( excluding our own ) spin through the list of keysites and select viable targets
; 1696 : 		//
; 1697 : 	
; 1698 : 		memset (target_list, 0, sizeof (entity *) * MAX_HIGHLEVEL_TARGET_CHECKS);

  000f8	68 80 02 00 00	 push	 640			; 00000280H
  000fd	6a 00		 push	 0
  000ff	68 00 00 00 00	 push	 OFFSET ?target_list@@3PAPAUENTITY@@A
  00104	e8 00 00 00 00	 call	 _memset
  00109	83 c4 0c	 add	 esp, 12			; 0000000cH

; 1699 : 
; 1700 : 		memset (target_rating, 0, sizeof (float) * MAX_HIGHLEVEL_TARGET_CHECKS);

  0010c	68 80 02 00 00	 push	 640			; 00000280H
  00111	6a 00		 push	 0
  00113	68 00 00 00 00	 push	 OFFSET ?target_rating@@3PAMA
  00118	e8 00 00 00 00	 call	 _memset
  0011d	83 c4 0c	 add	 esp, 12			; 0000000cH

; 1701 : 
; 1702 : 		count = 0;

  00120	c7 45 d0 00 00
	00 00		 mov	 DWORD PTR _count$[ebp], 0

; 1703 : 
; 1704 : 		this_side = (entity_sides) get_local_entity_int_value (force, INT_TYPE_SIDE);

  00127	83 7d f4 00	 cmp	 DWORD PTR _force$[ebp], 0
  0012b	74 0d		 je	 SHORT $LN35@create_tro
  0012d	8b 45 f4	 mov	 eax, DWORD PTR _force$[ebp]
  00130	8b 08		 mov	 ecx, DWORD PTR [eax]
  00132	89 8d 70 ff ff
	ff		 mov	 DWORD PTR tv137[ebp], ecx
  00138	eb 24		 jmp	 SHORT $LN36@create_tro
$LN35@create_tro:
  0013a	8b 15 00 00 00
	00		 mov	 edx, DWORD PTR ?__LINE__Var@?0??create_troop_insertion_tasks@@YGXXZ@4JA
  00140	83 c2 31	 add	 edx, 49			; 00000031H
  00143	52		 push	 edx
  00144	68 00 00 00 00	 push	 OFFSET ??_C@_0ED@GMECMFKH@c?3?2users?2nhv90?2projects?2eech?2ap@
  00149	a1 00 00 00 00	 mov	 eax, DWORD PTR ?null_entity_pointer_message@@3PBDB ; null_entity_pointer_message
  0014e	50		 push	 eax
  0014f	e8 00 00 00 00	 call	 ?process_assert@@YGXPBD0H@Z ; process_assert
  00154	c7 85 70 ff ff
	ff 00 00 00 00	 mov	 DWORD PTR tv137[ebp], 0
$LN36@create_tro:
  0015e	b9 01 00 00 00	 mov	 ecx, 1
  00163	85 c9		 test	 ecx, ecx
  00165	74 0c		 je	 SHORT $LN37@create_tro
  00167	c7 85 6c ff ff
	ff bb 00 00 00	 mov	 DWORD PTR tv145[ebp], 187 ; 000000bbH
  00171	eb 24		 jmp	 SHORT $LN38@create_tro
$LN37@create_tro:
  00173	8b 15 00 00 00
	00		 mov	 edx, DWORD PTR ?__LINE__Var@?0??create_troop_insertion_tasks@@YGXXZ@4JA
  00179	83 c2 31	 add	 edx, 49			; 00000031H
  0017c	52		 push	 edx
  0017d	68 00 00 00 00	 push	 OFFSET ??_C@_0ED@GMECMFKH@c?3?2users?2nhv90?2projects?2eech?2ap@
  00182	a1 00 00 00 00	 mov	 eax, DWORD PTR ?overload_invalid_int_type_message@@3PBDB ; overload_invalid_int_type_message
  00187	50		 push	 eax
  00188	e8 00 00 00 00	 call	 ?process_assert@@YGXPBD0H@Z ; process_assert
  0018d	c7 85 6c ff ff
	ff 00 00 00 00	 mov	 DWORD PTR tv145[ebp], 0
$LN38@create_tro:
  00197	68 bb 00 00 00	 push	 187			; 000000bbH
  0019c	8b 4d f4	 mov	 ecx, DWORD PTR _force$[ebp]
  0019f	51		 push	 ecx
  001a0	69 95 70 ff ff
	ff 5c 04 00 00	 imul	 edx, DWORD PTR tv137[ebp], 1116
  001aa	8b 85 6c ff ff
	ff		 mov	 eax, DWORD PTR tv145[ebp]
  001b0	8b 8c 82 00 00
	00 00		 mov	 ecx, DWORD PTR ?fn_get_local_entity_int_value@@3PAY0BBH@P6GHPAUENTITY@@W4INT_TYPES@@@ZA[edx+eax*4]
  001b7	ff d1		 call	 ecx
  001b9	89 45 f8	 mov	 DWORD PTR _this_side$[ebp], eax

; 1705 : 	
; 1706 : 		target_force = get_local_entity_first_child (get_session_entity(), LIST_TYPE_FORCE);

  001bc	83 3d 00 00 00
	00 00		 cmp	 DWORD PTR ?session_entity@@3PAUENTITY@@A, 0 ; session_entity
  001c3	74 0f		 je	 SHORT $LN39@create_tro
  001c5	a1 00 00 00 00	 mov	 eax, DWORD PTR ?session_entity@@3PAUENTITY@@A ; session_entity
  001ca	8b 08		 mov	 ecx, DWORD PTR [eax]
  001cc	89 8d 70 ff ff
	ff		 mov	 DWORD PTR tv157[ebp], ecx
  001d2	eb 24		 jmp	 SHORT $LN40@create_tro
$LN39@create_tro:
  001d4	8b 15 00 00 00
	00		 mov	 edx, DWORD PTR ?__LINE__Var@?0??create_troop_insertion_tasks@@YGXXZ@4JA
  001da	83 c2 33	 add	 edx, 51			; 00000033H
  001dd	52		 push	 edx
  001de	68 00 00 00 00	 push	 OFFSET ??_C@_0ED@GMECMFKH@c?3?2users?2nhv90?2projects?2eech?2ap@
  001e3	a1 00 00 00 00	 mov	 eax, DWORD PTR ?null_entity_pointer_message@@3PBDB ; null_entity_pointer_message
  001e8	50		 push	 eax
  001e9	e8 00 00 00 00	 call	 ?process_assert@@YGXPBD0H@Z ; process_assert
  001ee	c7 85 70 ff ff
	ff 00 00 00 00	 mov	 DWORD PTR tv157[ebp], 0
$LN40@create_tro:
  001f8	b9 01 00 00 00	 mov	 ecx, 1
  001fd	85 c9		 test	 ecx, ecx
  001ff	74 0c		 je	 SHORT $LN41@create_tro
  00201	c7 85 6c ff ff
	ff 0e 00 00 00	 mov	 DWORD PTR tv165[ebp], 14 ; 0000000eH
  0020b	eb 24		 jmp	 SHORT $LN42@create_tro
$LN41@create_tro:
  0020d	8b 15 00 00 00
	00		 mov	 edx, DWORD PTR ?__LINE__Var@?0??create_troop_insertion_tasks@@YGXXZ@4JA
  00213	83 c2 33	 add	 edx, 51			; 00000033H
  00216	52		 push	 edx
  00217	68 00 00 00 00	 push	 OFFSET ??_C@_0ED@GMECMFKH@c?3?2users?2nhv90?2projects?2eech?2ap@
  0021c	a1 00 00 00 00	 mov	 eax, DWORD PTR ?overload_invalid_list_type_message@@3PBDB ; overload_invalid_list_type_message
  00221	50		 push	 eax
  00222	e8 00 00 00 00	 call	 ?process_assert@@YGXPBD0H@Z ; process_assert
  00227	c7 85 6c ff ff
	ff 00 00 00 00	 mov	 DWORD PTR tv165[ebp], 0
$LN42@create_tro:
  00231	6a 0e		 push	 14			; 0000000eH
  00233	8b 0d 00 00 00
	00		 mov	 ecx, DWORD PTR ?session_entity@@3PAUENTITY@@A ; session_entity
  00239	51		 push	 ecx
  0023a	69 95 70 ff ff
	ff b4 00 00 00	 imul	 edx, DWORD PTR tv157[ebp], 180
  00244	8b 85 6c ff ff
	ff		 mov	 eax, DWORD PTR tv165[ebp]
  0024a	8b 8c 82 00 00
	00 00		 mov	 ecx, DWORD PTR ?fn_get_local_entity_first_child@@3PAY0CN@P6GPAUENTITY@@PAU1@W4LIST_TYPES@@@ZA[edx+eax*4]
  00251	ff d1		 call	 ecx
  00253	89 45 ec	 mov	 DWORD PTR _target_force$[ebp], eax
$LN4@create_tro:

; 1707 : 	
; 1708 : 		while ((target_force) && (count < MAX_HIGHLEVEL_TARGET_CHECKS))

  00256	83 7d ec 00	 cmp	 DWORD PTR _target_force$[ebp], 0
  0025a	0f 84 ab 07 00
	00		 je	 $LN5@create_tro
  00260	81 7d d0 a0 00
	00 00		 cmp	 DWORD PTR _count$[ebp], 160 ; 000000a0H
  00267	0f 8d 9e 07 00
	00		 jge	 $LN5@create_tro

; 1709 : 		{
; 1710 : 			side = (entity_sides) get_local_entity_int_value (target_force, INT_TYPE_SIDE);

  0026d	83 7d ec 00	 cmp	 DWORD PTR _target_force$[ebp], 0
  00271	74 0d		 je	 SHORT $LN43@create_tro
  00273	8b 45 ec	 mov	 eax, DWORD PTR _target_force$[ebp]
  00276	8b 08		 mov	 ecx, DWORD PTR [eax]
  00278	89 8d 70 ff ff
	ff		 mov	 DWORD PTR tv179[ebp], ecx
  0027e	eb 24		 jmp	 SHORT $LN44@create_tro
$LN43@create_tro:
  00280	8b 15 00 00 00
	00		 mov	 edx, DWORD PTR ?__LINE__Var@?0??create_troop_insertion_tasks@@YGXXZ@4JA
  00286	83 c2 37	 add	 edx, 55			; 00000037H
  00289	52		 push	 edx
  0028a	68 00 00 00 00	 push	 OFFSET ??_C@_0ED@GMECMFKH@c?3?2users?2nhv90?2projects?2eech?2ap@
  0028f	a1 00 00 00 00	 mov	 eax, DWORD PTR ?null_entity_pointer_message@@3PBDB ; null_entity_pointer_message
  00294	50		 push	 eax
  00295	e8 00 00 00 00	 call	 ?process_assert@@YGXPBD0H@Z ; process_assert
  0029a	c7 85 70 ff ff
	ff 00 00 00 00	 mov	 DWORD PTR tv179[ebp], 0
$LN44@create_tro:
  002a4	b9 01 00 00 00	 mov	 ecx, 1
  002a9	85 c9		 test	 ecx, ecx
  002ab	74 0c		 je	 SHORT $LN45@create_tro
  002ad	c7 85 6c ff ff
	ff bb 00 00 00	 mov	 DWORD PTR tv187[ebp], 187 ; 000000bbH
  002b7	eb 24		 jmp	 SHORT $LN46@create_tro
$LN45@create_tro:
  002b9	8b 15 00 00 00
	00		 mov	 edx, DWORD PTR ?__LINE__Var@?0??create_troop_insertion_tasks@@YGXXZ@4JA
  002bf	83 c2 37	 add	 edx, 55			; 00000037H
  002c2	52		 push	 edx
  002c3	68 00 00 00 00	 push	 OFFSET ??_C@_0ED@GMECMFKH@c?3?2users?2nhv90?2projects?2eech?2ap@
  002c8	a1 00 00 00 00	 mov	 eax, DWORD PTR ?overload_invalid_int_type_message@@3PBDB ; overload_invalid_int_type_message
  002cd	50		 push	 eax
  002ce	e8 00 00 00 00	 call	 ?process_assert@@YGXPBD0H@Z ; process_assert
  002d3	c7 85 6c ff ff
	ff 00 00 00 00	 mov	 DWORD PTR tv187[ebp], 0
$LN46@create_tro:
  002dd	68 bb 00 00 00	 push	 187			; 000000bbH
  002e2	8b 4d ec	 mov	 ecx, DWORD PTR _target_force$[ebp]
  002e5	51		 push	 ecx
  002e6	69 95 70 ff ff
	ff 5c 04 00 00	 imul	 edx, DWORD PTR tv179[ebp], 1116
  002f0	8b 85 6c ff ff
	ff		 mov	 eax, DWORD PTR tv187[ebp]
  002f6	8b 8c 82 00 00
	00 00		 mov	 ecx, DWORD PTR ?fn_get_local_entity_int_value@@3PAY0BBH@P6GHPAUENTITY@@W4INT_TYPES@@@ZA[edx+eax*4]
  002fd	ff d1		 call	 ecx
  002ff	89 45 fc	 mov	 DWORD PTR _side$[ebp], eax

; 1711 : 	
; 1712 : 			if (side != this_side)

  00302	8b 45 fc	 mov	 eax, DWORD PTR _side$[ebp]
  00305	3b 45 f8	 cmp	 eax, DWORD PTR _this_side$[ebp]
  00308	0f 84 66 06 00
	00		 je	 $LN7@create_tro

; 1713 : 			{
; 1714 : 				keysite = get_local_entity_first_child (target_force, LIST_TYPE_KEYSITE_FORCE);

  0030e	83 7d ec 00	 cmp	 DWORD PTR _target_force$[ebp], 0
  00312	74 0d		 je	 SHORT $LN47@create_tro
  00314	8b 45 ec	 mov	 eax, DWORD PTR _target_force$[ebp]
  00317	8b 08		 mov	 ecx, DWORD PTR [eax]
  00319	89 8d 70 ff ff
	ff		 mov	 DWORD PTR tv200[ebp], ecx
  0031f	eb 24		 jmp	 SHORT $LN48@create_tro
$LN47@create_tro:
  00321	8b 15 00 00 00
	00		 mov	 edx, DWORD PTR ?__LINE__Var@?0??create_troop_insertion_tasks@@YGXXZ@4JA
  00327	83 c2 3b	 add	 edx, 59			; 0000003bH
  0032a	52		 push	 edx
  0032b	68 00 00 00 00	 push	 OFFSET ??_C@_0ED@GMECMFKH@c?3?2users?2nhv90?2projects?2eech?2ap@
  00330	a1 00 00 00 00	 mov	 eax, DWORD PTR ?null_entity_pointer_message@@3PBDB ; null_entity_pointer_message
  00335	50		 push	 eax
  00336	e8 00 00 00 00	 call	 ?process_assert@@YGXPBD0H@Z ; process_assert
  0033b	c7 85 70 ff ff
	ff 00 00 00 00	 mov	 DWORD PTR tv200[ebp], 0
$LN48@create_tro:
  00345	b9 01 00 00 00	 mov	 ecx, 1
  0034a	85 c9		 test	 ecx, ecx
  0034c	74 0c		 je	 SHORT $LN49@create_tro
  0034e	c7 85 6c ff ff
	ff 15 00 00 00	 mov	 DWORD PTR tv208[ebp], 21 ; 00000015H
  00358	eb 24		 jmp	 SHORT $LN50@create_tro
$LN49@create_tro:
  0035a	8b 15 00 00 00
	00		 mov	 edx, DWORD PTR ?__LINE__Var@?0??create_troop_insertion_tasks@@YGXXZ@4JA
  00360	83 c2 3b	 add	 edx, 59			; 0000003bH
  00363	52		 push	 edx
  00364	68 00 00 00 00	 push	 OFFSET ??_C@_0ED@GMECMFKH@c?3?2users?2nhv90?2projects?2eech?2ap@
  00369	a1 00 00 00 00	 mov	 eax, DWORD PTR ?overload_invalid_list_type_message@@3PBDB ; overload_invalid_list_type_message
  0036e	50		 push	 eax
  0036f	e8 00 00 00 00	 call	 ?process_assert@@YGXPBD0H@Z ; process_assert
  00374	c7 85 6c ff ff
	ff 00 00 00 00	 mov	 DWORD PTR tv208[ebp], 0
$LN50@create_tro:
  0037e	6a 15		 push	 21			; 00000015H
  00380	8b 4d ec	 mov	 ecx, DWORD PTR _target_force$[ebp]
  00383	51		 push	 ecx
  00384	69 95 70 ff ff
	ff b4 00 00 00	 imul	 edx, DWORD PTR tv200[ebp], 180
  0038e	8b 85 6c ff ff
	ff		 mov	 eax, DWORD PTR tv208[ebp]
  00394	8b 8c 82 00 00
	00 00		 mov	 ecx, DWORD PTR ?fn_get_local_entity_first_child@@3PAY0CN@P6GPAUENTITY@@PAU1@W4LIST_TYPES@@@ZA[edx+eax*4]
  0039b	ff d1		 call	 ecx
  0039d	89 45 e4	 mov	 DWORD PTR _keysite$[ebp], eax
$LN6@create_tro:

; 1715 : 	
; 1716 : 				while ((keysite) && (count < MAX_HIGHLEVEL_TARGET_CHECKS))

  003a0	83 7d e4 00	 cmp	 DWORD PTR _keysite$[ebp], 0
  003a4	0f 84 ca 05 00
	00		 je	 $LN7@create_tro
  003aa	81 7d d0 a0 00
	00 00		 cmp	 DWORD PTR _count$[ebp], 160 ; 000000a0H
  003b1	0f 8d bd 05 00
	00		 jge	 $LN7@create_tro

; 1717 : 				{
; 1718 : 					if ((get_local_entity_int_value (keysite, INT_TYPE_IN_USE)) && (get_local_entity_int_value (keysite, INT_TYPE_ALIVE)))

  003b7	83 7d e4 00	 cmp	 DWORD PTR _keysite$[ebp], 0
  003bb	74 0d		 je	 SHORT $LN51@create_tro
  003bd	8b 45 e4	 mov	 eax, DWORD PTR _keysite$[ebp]
  003c0	8b 08		 mov	 ecx, DWORD PTR [eax]
  003c2	89 8d 70 ff ff
	ff		 mov	 DWORD PTR tv221[ebp], ecx
  003c8	eb 20		 jmp	 SHORT $LN52@create_tro
$LN51@create_tro:
  003ca	68 b6 06 00 00	 push	 1718			; 000006b6H
  003cf	68 00 00 00 00	 push	 OFFSET ??_C@_0ED@GMECMFKH@c?3?2users?2nhv90?2projects?2eech?2ap@
  003d4	8b 15 00 00 00
	00		 mov	 edx, DWORD PTR ?null_entity_pointer_message@@3PBDB ; null_entity_pointer_message
  003da	52		 push	 edx
  003db	e8 00 00 00 00	 call	 ?process_assert@@YGXPBD0H@Z ; process_assert
  003e0	c7 85 70 ff ff
	ff 00 00 00 00	 mov	 DWORD PTR tv221[ebp], 0
$LN52@create_tro:
  003ea	b8 01 00 00 00	 mov	 eax, 1
  003ef	85 c0		 test	 eax, eax
  003f1	74 0c		 je	 SHORT $LN53@create_tro
  003f3	c7 85 6c ff ff
	ff 6d 00 00 00	 mov	 DWORD PTR tv228[ebp], 109 ; 0000006dH
  003fd	eb 20		 jmp	 SHORT $LN54@create_tro
$LN53@create_tro:
  003ff	68 b6 06 00 00	 push	 1718			; 000006b6H
  00404	68 00 00 00 00	 push	 OFFSET ??_C@_0ED@GMECMFKH@c?3?2users?2nhv90?2projects?2eech?2ap@
  00409	8b 0d 00 00 00
	00		 mov	 ecx, DWORD PTR ?overload_invalid_int_type_message@@3PBDB ; overload_invalid_int_type_message
  0040f	51		 push	 ecx
  00410	e8 00 00 00 00	 call	 ?process_assert@@YGXPBD0H@Z ; process_assert
  00415	c7 85 6c ff ff
	ff 00 00 00 00	 mov	 DWORD PTR tv228[ebp], 0
$LN54@create_tro:
  0041f	6a 6d		 push	 109			; 0000006dH
  00421	8b 55 e4	 mov	 edx, DWORD PTR _keysite$[ebp]
  00424	52		 push	 edx
  00425	69 85 70 ff ff
	ff 5c 04 00 00	 imul	 eax, DWORD PTR tv221[ebp], 1116
  0042f	8b 8d 6c ff ff
	ff		 mov	 ecx, DWORD PTR tv228[ebp]
  00435	8b 94 88 00 00
	00 00		 mov	 edx, DWORD PTR ?fn_get_local_entity_int_value@@3PAY0BBH@P6GHPAUENTITY@@W4INT_TYPES@@@ZA[eax+ecx*4]
  0043c	ff d2		 call	 edx
  0043e	85 c0		 test	 eax, eax
  00440	0f 84 97 04 00
	00		 je	 $LN17@create_tro
  00446	83 7d e4 00	 cmp	 DWORD PTR _keysite$[ebp], 0
  0044a	74 0d		 je	 SHORT $LN55@create_tro
  0044c	8b 45 e4	 mov	 eax, DWORD PTR _keysite$[ebp]
  0044f	8b 08		 mov	 ecx, DWORD PTR [eax]
  00451	89 8d 70 ff ff
	ff		 mov	 DWORD PTR tv240[ebp], ecx
  00457	eb 20		 jmp	 SHORT $LN56@create_tro
$LN55@create_tro:
  00459	68 b6 06 00 00	 push	 1718			; 000006b6H
  0045e	68 00 00 00 00	 push	 OFFSET ??_C@_0ED@GMECMFKH@c?3?2users?2nhv90?2projects?2eech?2ap@
  00463	8b 15 00 00 00
	00		 mov	 edx, DWORD PTR ?null_entity_pointer_message@@3PBDB ; null_entity_pointer_message
  00469	52		 push	 edx
  0046a	e8 00 00 00 00	 call	 ?process_assert@@YGXPBD0H@Z ; process_assert
  0046f	c7 85 70 ff ff
	ff 00 00 00 00	 mov	 DWORD PTR tv240[ebp], 0
$LN56@create_tro:
  00479	b8 01 00 00 00	 mov	 eax, 1
  0047e	85 c0		 test	 eax, eax
  00480	74 0c		 je	 SHORT $LN57@create_tro
  00482	c7 85 6c ff ff
	ff 07 00 00 00	 mov	 DWORD PTR tv247[ebp], 7
  0048c	eb 20		 jmp	 SHORT $LN58@create_tro
$LN57@create_tro:
  0048e	68 b6 06 00 00	 push	 1718			; 000006b6H
  00493	68 00 00 00 00	 push	 OFFSET ??_C@_0ED@GMECMFKH@c?3?2users?2nhv90?2projects?2eech?2ap@
  00498	8b 0d 00 00 00
	00		 mov	 ecx, DWORD PTR ?overload_invalid_int_type_message@@3PBDB ; overload_invalid_int_type_message
  0049e	51		 push	 ecx
  0049f	e8 00 00 00 00	 call	 ?process_assert@@YGXPBD0H@Z ; process_assert
  004a4	c7 85 6c ff ff
	ff 00 00 00 00	 mov	 DWORD PTR tv247[ebp], 0
$LN58@create_tro:
  004ae	6a 07		 push	 7
  004b0	8b 55 e4	 mov	 edx, DWORD PTR _keysite$[ebp]
  004b3	52		 push	 edx
  004b4	69 85 70 ff ff
	ff 5c 04 00 00	 imul	 eax, DWORD PTR tv240[ebp], 1116
  004be	8b 8d 6c ff ff
	ff		 mov	 ecx, DWORD PTR tv247[ebp]
  004c4	8b 94 88 00 00
	00 00		 mov	 edx, DWORD PTR ?fn_get_local_entity_int_value@@3PAY0BBH@P6GHPAUENTITY@@W4INT_TYPES@@@ZA[eax+ecx*4]
  004cb	ff d2		 call	 edx
  004cd	85 c0		 test	 eax, eax
  004cf	0f 84 08 04 00
	00		 je	 $LN17@create_tro

; 1719 : 					{
; 1720 : 						keysite_type = get_local_entity_int_value (keysite, INT_TYPE_ENTITY_SUB_TYPE);

  004d5	83 7d e4 00	 cmp	 DWORD PTR _keysite$[ebp], 0
  004d9	74 0d		 je	 SHORT $LN59@create_tro
  004db	8b 45 e4	 mov	 eax, DWORD PTR _keysite$[ebp]
  004de	8b 08		 mov	 ecx, DWORD PTR [eax]
  004e0	89 8d 70 ff ff
	ff		 mov	 DWORD PTR tv260[ebp], ecx
  004e6	eb 24		 jmp	 SHORT $LN60@create_tro
$LN59@create_tro:
  004e8	8b 15 00 00 00
	00		 mov	 edx, DWORD PTR ?__LINE__Var@?0??create_troop_insertion_tasks@@YGXXZ@4JA
  004ee	83 c2 41	 add	 edx, 65			; 00000041H
  004f1	52		 push	 edx
  004f2	68 00 00 00 00	 push	 OFFSET ??_C@_0ED@GMECMFKH@c?3?2users?2nhv90?2projects?2eech?2ap@
  004f7	a1 00 00 00 00	 mov	 eax, DWORD PTR ?null_entity_pointer_message@@3PBDB ; null_entity_pointer_message
  004fc	50		 push	 eax
  004fd	e8 00 00 00 00	 call	 ?process_assert@@YGXPBD0H@Z ; process_assert
  00502	c7 85 70 ff ff
	ff 00 00 00 00	 mov	 DWORD PTR tv260[ebp], 0
$LN60@create_tro:
  0050c	b9 01 00 00 00	 mov	 ecx, 1
  00511	85 c9		 test	 ecx, ecx
  00513	74 0c		 je	 SHORT $LN61@create_tro
  00515	c7 85 6c ff ff
	ff 34 00 00 00	 mov	 DWORD PTR tv268[ebp], 52 ; 00000034H
  0051f	eb 24		 jmp	 SHORT $LN62@create_tro
$LN61@create_tro:
  00521	8b 15 00 00 00
	00		 mov	 edx, DWORD PTR ?__LINE__Var@?0??create_troop_insertion_tasks@@YGXXZ@4JA
  00527	83 c2 41	 add	 edx, 65			; 00000041H
  0052a	52		 push	 edx
  0052b	68 00 00 00 00	 push	 OFFSET ??_C@_0ED@GMECMFKH@c?3?2users?2nhv90?2projects?2eech?2ap@
  00530	a1 00 00 00 00	 mov	 eax, DWORD PTR ?overload_invalid_int_type_message@@3PBDB ; overload_invalid_int_type_message
  00535	50		 push	 eax
  00536	e8 00 00 00 00	 call	 ?process_assert@@YGXPBD0H@Z ; process_assert
  0053b	c7 85 6c ff ff
	ff 00 00 00 00	 mov	 DWORD PTR tv268[ebp], 0
$LN62@create_tro:
  00545	6a 34		 push	 52			; 00000034H
  00547	8b 4d e4	 mov	 ecx, DWORD PTR _keysite$[ebp]
  0054a	51		 push	 ecx
  0054b	69 95 70 ff ff
	ff 5c 04 00 00	 imul	 edx, DWORD PTR tv260[ebp], 1116
  00555	8b 85 6c ff ff
	ff		 mov	 eax, DWORD PTR tv268[ebp]
  0055b	8b 8c 82 00 00
	00 00		 mov	 ecx, DWORD PTR ?fn_get_local_entity_int_value@@3PAY0BBH@P6GHPAUENTITY@@W4INT_TYPES@@@ZA[edx+eax*4]
  00562	ff d1		 call	 ecx
  00564	89 45 cc	 mov	 DWORD PTR _keysite_type$[ebp], eax

; 1721 : 
; 1722 : 						if (keysite_database [keysite_type].troop_insertion_target)

  00567	6b 45 cc 44	 imul	 eax, DWORD PTR _keysite_type$[ebp], 68
  0056b	8b 88 40 00 00
	00		 mov	 ecx, DWORD PTR ?keysite_database@@3PAUKEYSITE_DATA@@A[eax+64]
  00571	c1 e9 0c	 shr	 ecx, 12			; 0000000cH
  00574	83 e1 01	 and	 ecx, 1
  00577	0f 84 60 03 00
	00		 je	 $LN17@create_tro

; 1723 : 						{
; 1724 : 							efficiency = get_local_entity_float_value (keysite, FLOAT_TYPE_EFFICIENCY);

  0057d	83 7d e4 00	 cmp	 DWORD PTR _keysite$[ebp], 0
  00581	74 0d		 je	 SHORT $LN63@create_tro
  00583	8b 45 e4	 mov	 eax, DWORD PTR _keysite$[ebp]
  00586	8b 08		 mov	 ecx, DWORD PTR [eax]
  00588	89 8d 70 ff ff
	ff		 mov	 DWORD PTR tv286[ebp], ecx
  0058e	eb 24		 jmp	 SHORT $LN64@create_tro
$LN63@create_tro:
  00590	8b 15 00 00 00
	00		 mov	 edx, DWORD PTR ?__LINE__Var@?0??create_troop_insertion_tasks@@YGXXZ@4JA
  00596	83 c2 45	 add	 edx, 69			; 00000045H
  00599	52		 push	 edx
  0059a	68 00 00 00 00	 push	 OFFSET ??_C@_0ED@GMECMFKH@c?3?2users?2nhv90?2projects?2eech?2ap@
  0059f	a1 00 00 00 00	 mov	 eax, DWORD PTR ?null_entity_pointer_message@@3PBDB ; null_entity_pointer_message
  005a4	50		 push	 eax
  005a5	e8 00 00 00 00	 call	 ?process_assert@@YGXPBD0H@Z ; process_assert
  005aa	c7 85 70 ff ff
	ff 00 00 00 00	 mov	 DWORD PTR tv286[ebp], 0
$LN64@create_tro:
  005b4	b9 01 00 00 00	 mov	 ecx, 1
  005b9	85 c9		 test	 ecx, ecx
  005bb	74 0c		 je	 SHORT $LN65@create_tro
  005bd	c7 85 6c ff ff
	ff 21 00 00 00	 mov	 DWORD PTR tv294[ebp], 33 ; 00000021H
  005c7	eb 24		 jmp	 SHORT $LN66@create_tro
$LN65@create_tro:
  005c9	8b 15 00 00 00
	00		 mov	 edx, DWORD PTR ?__LINE__Var@?0??create_troop_insertion_tasks@@YGXXZ@4JA
  005cf	83 c2 45	 add	 edx, 69			; 00000045H
  005d2	52		 push	 edx
  005d3	68 00 00 00 00	 push	 OFFSET ??_C@_0ED@GMECMFKH@c?3?2users?2nhv90?2projects?2eech?2ap@
  005d8	a1 00 00 00 00	 mov	 eax, DWORD PTR ?overload_invalid_float_type_message@@3PBDB ; overload_invalid_float_type_message
  005dd	50		 push	 eax
  005de	e8 00 00 00 00	 call	 ?process_assert@@YGXPBD0H@Z ; process_assert
  005e3	c7 85 6c ff ff
	ff 00 00 00 00	 mov	 DWORD PTR tv294[ebp], 0
$LN66@create_tro:
  005ed	6a 21		 push	 33			; 00000021H
  005ef	8b 4d e4	 mov	 ecx, DWORD PTR _keysite$[ebp]
  005f2	51		 push	 ecx
  005f3	69 95 70 ff ff
	ff bc 02 00 00	 imul	 edx, DWORD PTR tv286[ebp], 700
  005fd	8b 85 6c ff ff
	ff		 mov	 eax, DWORD PTR tv294[ebp]
  00603	8b 8c 82 00 00
	00 00		 mov	 ecx, DWORD PTR ?fn_get_local_entity_float_value@@3PAY0KP@P6GMPAUENTITY@@W4FLOAT_TYPES@@@ZA[edx+eax*4]
  0060a	ff d1		 call	 ecx
  0060c	d9 5d c8	 fstp	 DWORD PTR _efficiency$[ebp]

; 1725 : 
; 1726 : 							if (efficiency < keysite_database [keysite_type].minimum_efficiency)

  0060f	6b 45 cc 44	 imul	 eax, DWORD PTR _keysite_type$[ebp], 68
  00613	f3 0f 10 80 1c
	00 00 00	 movss	 xmm0, DWORD PTR ?keysite_database@@3PAUKEYSITE_DATA@@A[eax+28]
  0061b	0f 2f 45 c8	 comiss	 xmm0, DWORD PTR _efficiency$[ebp]
  0061f	0f 86 b8 02 00
	00		 jbe	 $LN17@create_tro

; 1727 : 							{
; 1728 : 								ASSERT (count < MAX_HIGHLEVEL_TARGET_CHECKS);

  00625	81 7d d0 a0 00
	00 00		 cmp	 DWORD PTR _count$[ebp], 160 ; 000000a0H
  0062c	7c 18		 jl	 SHORT $LN16@create_tro
  0062e	a1 00 00 00 00	 mov	 eax, DWORD PTR ?__LINE__Var@?0??create_troop_insertion_tasks@@YGXXZ@4JA
  00633	83 c0 49	 add	 eax, 73			; 00000049H
  00636	50		 push	 eax
  00637	68 00 00 00 00	 push	 OFFSET ??_C@_0ED@GMECMFKH@c?3?2users?2nhv90?2projects?2eech?2ap@
  0063c	68 00 00 00 00	 push	 OFFSET ??_C@_0CE@FGAKBBGH@count?5?$DM?5MAX_HIGHLEVEL_TARGET_CH@
  00641	e8 00 00 00 00	 call	 ?process_assert@@YGXPBD0H@Z ; process_assert
$LN16@create_tro:

; 1729 : 		
; 1730 : 								//
; 1731 : 								// get sector
; 1732 : 								//
; 1733 : 		
; 1734 : 								pos = get_local_entity_vec3d_ptr (keysite, VEC3D_TYPE_POSITION);

  00646	83 7d e4 00	 cmp	 DWORD PTR _keysite$[ebp], 0
  0064a	74 0d		 je	 SHORT $LN67@create_tro
  0064c	8b 45 e4	 mov	 eax, DWORD PTR _keysite$[ebp]
  0064f	8b 08		 mov	 ecx, DWORD PTR [eax]
  00651	89 8d 70 ff ff
	ff		 mov	 DWORD PTR tv315[ebp], ecx
  00657	eb 24		 jmp	 SHORT $LN68@create_tro
$LN67@create_tro:
  00659	8b 15 00 00 00
	00		 mov	 edx, DWORD PTR ?__LINE__Var@?0??create_troop_insertion_tasks@@YGXXZ@4JA
  0065f	83 c2 4f	 add	 edx, 79			; 0000004fH
  00662	52		 push	 edx
  00663	68 00 00 00 00	 push	 OFFSET ??_C@_0ED@GMECMFKH@c?3?2users?2nhv90?2projects?2eech?2ap@
  00668	a1 00 00 00 00	 mov	 eax, DWORD PTR ?null_entity_pointer_message@@3PBDB ; null_entity_pointer_message
  0066d	50		 push	 eax
  0066e	e8 00 00 00 00	 call	 ?process_assert@@YGXPBD0H@Z ; process_assert
  00673	c7 85 70 ff ff
	ff 00 00 00 00	 mov	 DWORD PTR tv315[ebp], 0
$LN68@create_tro:
  0067d	b9 01 00 00 00	 mov	 ecx, 1
  00682	85 c9		 test	 ecx, ecx
  00684	74 0c		 je	 SHORT $LN69@create_tro
  00686	c7 85 6c ff ff
	ff 08 00 00 00	 mov	 DWORD PTR tv323[ebp], 8
  00690	eb 24		 jmp	 SHORT $LN70@create_tro
$LN69@create_tro:
  00692	8b 15 00 00 00
	00		 mov	 edx, DWORD PTR ?__LINE__Var@?0??create_troop_insertion_tasks@@YGXXZ@4JA
  00698	83 c2 4f	 add	 edx, 79			; 0000004fH
  0069b	52		 push	 edx
  0069c	68 00 00 00 00	 push	 OFFSET ??_C@_0ED@GMECMFKH@c?3?2users?2nhv90?2projects?2eech?2ap@
  006a1	a1 00 00 00 00	 mov	 eax, DWORD PTR ?overload_invalid_vec3d_type_message@@3PBDB ; overload_invalid_vec3d_type_message
  006a6	50		 push	 eax
  006a7	e8 00 00 00 00	 call	 ?process_assert@@YGXPBD0H@Z ; process_assert
  006ac	c7 85 6c ff ff
	ff 00 00 00 00	 mov	 DWORD PTR tv323[ebp], 0
$LN70@create_tro:
  006b6	6a 08		 push	 8
  006b8	8b 4d e4	 mov	 ecx, DWORD PTR _keysite$[ebp]
  006bb	51		 push	 ecx
  006bc	6b 95 70 ff ff
	ff 60		 imul	 edx, DWORD PTR tv315[ebp], 96
  006c3	8b 85 6c ff ff
	ff		 mov	 eax, DWORD PTR tv323[ebp]
  006c9	8b 8c 82 00 00
	00 00		 mov	 ecx, DWORD PTR ?fn_get_local_entity_vec3d_ptr@@3PAY0BI@P6GPAUVEC3D@@PAUENTITY@@W4VEC3D_TYPES@@@ZA[edx+eax*4]
  006d0	ff d1		 call	 ecx
  006d2	89 45 e0	 mov	 DWORD PTR _pos$[ebp], eax

; 1735 : 									
; 1736 : 								get_x_sector (x, pos->x);

  006d5	8d 45 dc	 lea	 eax, DWORD PTR _x$[ebp]
  006d8	50		 push	 eax
  006d9	8b 4d e0	 mov	 ecx, DWORD PTR _pos$[ebp]
  006dc	f3 0f 10 01	 movss	 xmm0, DWORD PTR [ecx]
  006e0	51		 push	 ecx
  006e1	f3 0f 11 04 24	 movss	 DWORD PTR [esp], xmm0
  006e6	e8 00 00 00 00	 call	 ?convert_float_to_int@@YGXMPAH@Z ; convert_float_to_int
  006eb	8b 45 dc	 mov	 eax, DWORD PTR _x$[ebp]
  006ee	99		 cdq
  006ef	f7 3d 00 00 00
	00		 idiv	 DWORD PTR ?world_map@@3UWORLD_MAP_DATA@@A
  006f5	89 45 dc	 mov	 DWORD PTR _x$[ebp], eax

; 1737 : 								get_z_sector (z, pos->z);

  006f8	8d 45 d8	 lea	 eax, DWORD PTR _z$[ebp]
  006fb	50		 push	 eax
  006fc	8b 4d e0	 mov	 ecx, DWORD PTR _pos$[ebp]
  006ff	f3 0f 10 41 08	 movss	 xmm0, DWORD PTR [ecx+8]
  00704	51		 push	 ecx
  00705	f3 0f 11 04 24	 movss	 DWORD PTR [esp], xmm0
  0070a	e8 00 00 00 00	 call	 ?convert_float_to_int@@YGXMPAH@Z ; convert_float_to_int
  0070f	8b 45 d8	 mov	 eax, DWORD PTR _z$[ebp]
  00712	99		 cdq
  00713	f7 3d 00 00 00
	00		 idiv	 DWORD PTR ?world_map@@3UWORLD_MAP_DATA@@A
  00719	89 45 d8	 mov	 DWORD PTR _z$[ebp], eax

; 1738 : 		
; 1739 : 								//
; 1740 : 								// Calculate keysite rating
; 1741 : 								//
; 1742 : 		
; 1743 : 								rating = 0.0;

  0071c	0f 57 c0	 xorps	 xmm0, xmm0
  0071f	f3 0f 11 45 c0	 movss	 DWORD PTR _rating$[ebp], xmm0

; 1744 : 		
; 1745 : 								// low enemy importance
; 1746 : //								rating += (1.0 * (1.0 - get_imap_value (IMAP_IMPORTANCE, side, x, z)));
; 1747 : 		
; 1748 : 								// low enemy S-A threat 
; 1749 : 								rating += (1.0 * (1.0 - get_imap_value (IMAP_AIR_DEFENCE, side, x, z)));

  00724	8b 45 d8	 mov	 eax, DWORD PTR _z$[ebp]
  00727	50		 push	 eax
  00728	8b 4d dc	 mov	 ecx, DWORD PTR _x$[ebp]
  0072b	51		 push	 ecx
  0072c	8b 55 fc	 mov	 edx, DWORD PTR _side$[ebp]
  0072f	52		 push	 edx
  00730	6a 02		 push	 2
  00732	e8 00 00 00 00	 call	 ?get_imap_value@@YGMW4IMAP_TYPES@@W4ENTITY_SIDES@@HH@Z ; get_imap_value
  00737	dd 9d 6c ff ff
	ff		 fstp	 QWORD PTR tv925[ebp]
  0073d	f2 0f 10 05 00
	00 00 00	 movsd	 xmm0, QWORD PTR __real@3ff0000000000000
  00745	f2 0f 5c 85 6c
	ff ff ff	 subsd	 xmm0, QWORD PTR tv925[ebp]
  0074d	f2 0f 59 05 00
	00 00 00	 mulsd	 xmm0, QWORD PTR __real@3ff0000000000000
  00755	f3 0f 5a 4d c0	 cvtss2sd xmm1, DWORD PTR _rating$[ebp]
  0075a	f2 0f 58 c8	 addsd	 xmm1, xmm0
  0075e	f2 0f 5a c1	 cvtsd2ss xmm0, xmm1
  00762	f3 0f 11 45 c0	 movss	 DWORD PTR _rating$[ebp], xmm0

; 1750 : 		
; 1751 : 								// close to friendly base
; 1752 : 								rating += (3.0 * get_imap_value (IMAP_BASE_DISTANCE, this_side, x, z));

  00767	8b 45 d8	 mov	 eax, DWORD PTR _z$[ebp]
  0076a	50		 push	 eax
  0076b	8b 4d dc	 mov	 ecx, DWORD PTR _x$[ebp]
  0076e	51		 push	 ecx
  0076f	8b 55 f8	 mov	 edx, DWORD PTR _this_side$[ebp]
  00772	52		 push	 edx
  00773	6a 01		 push	 1
  00775	e8 00 00 00 00	 call	 ?get_imap_value@@YGMW4IMAP_TYPES@@W4ENTITY_SIDES@@HH@Z ; get_imap_value
  0077a	dd 9d 6c ff ff
	ff		 fstp	 QWORD PTR tv935[ebp]
  00780	f2 0f 10 85 6c
	ff ff ff	 movsd	 xmm0, QWORD PTR tv935[ebp]
  00788	f2 0f 59 05 00
	00 00 00	 mulsd	 xmm0, QWORD PTR __real@4008000000000000
  00790	f3 0f 5a 4d c0	 cvtss2sd xmm1, DWORD PTR _rating$[ebp]
  00795	f2 0f 58 c8	 addsd	 xmm1, xmm0
  00799	f2 0f 5a c1	 cvtsd2ss xmm0, xmm1
  0079d	f3 0f 11 45 c0	 movss	 DWORD PTR _rating$[ebp], xmm0

; 1753 : 		
; 1754 : 								// low efficiency 
; 1755 : 								rating += (3.0 * (1.0 - get_local_entity_float_value (keysite, FLOAT_TYPE_EFFICIENCY)));

  007a2	83 7d e4 00	 cmp	 DWORD PTR _keysite$[ebp], 0
  007a6	74 0d		 je	 SHORT $LN71@create_tro
  007a8	8b 45 e4	 mov	 eax, DWORD PTR _keysite$[ebp]
  007ab	8b 08		 mov	 ecx, DWORD PTR [eax]
  007ad	89 8d 70 ff ff
	ff		 mov	 DWORD PTR tv366[ebp], ecx
  007b3	eb 24		 jmp	 SHORT $LN72@create_tro
$LN71@create_tro:
  007b5	8b 15 00 00 00
	00		 mov	 edx, DWORD PTR ?__LINE__Var@?0??create_troop_insertion_tasks@@YGXXZ@4JA
  007bb	83 c2 64	 add	 edx, 100		; 00000064H
  007be	52		 push	 edx
  007bf	68 00 00 00 00	 push	 OFFSET ??_C@_0ED@GMECMFKH@c?3?2users?2nhv90?2projects?2eech?2ap@
  007c4	a1 00 00 00 00	 mov	 eax, DWORD PTR ?null_entity_pointer_message@@3PBDB ; null_entity_pointer_message
  007c9	50		 push	 eax
  007ca	e8 00 00 00 00	 call	 ?process_assert@@YGXPBD0H@Z ; process_assert
  007cf	c7 85 70 ff ff
	ff 00 00 00 00	 mov	 DWORD PTR tv366[ebp], 0
$LN72@create_tro:
  007d9	b9 01 00 00 00	 mov	 ecx, 1
  007de	85 c9		 test	 ecx, ecx
  007e0	74 0c		 je	 SHORT $LN73@create_tro
  007e2	c7 85 6c ff ff
	ff 21 00 00 00	 mov	 DWORD PTR tv374[ebp], 33 ; 00000021H
  007ec	eb 24		 jmp	 SHORT $LN74@create_tro
$LN73@create_tro:
  007ee	8b 15 00 00 00
	00		 mov	 edx, DWORD PTR ?__LINE__Var@?0??create_troop_insertion_tasks@@YGXXZ@4JA
  007f4	83 c2 64	 add	 edx, 100		; 00000064H
  007f7	52		 push	 edx
  007f8	68 00 00 00 00	 push	 OFFSET ??_C@_0ED@GMECMFKH@c?3?2users?2nhv90?2projects?2eech?2ap@
  007fd	a1 00 00 00 00	 mov	 eax, DWORD PTR ?overload_invalid_float_type_message@@3PBDB ; overload_invalid_float_type_message
  00802	50		 push	 eax
  00803	e8 00 00 00 00	 call	 ?process_assert@@YGXPBD0H@Z ; process_assert
  00808	c7 85 6c ff ff
	ff 00 00 00 00	 mov	 DWORD PTR tv374[ebp], 0
$LN74@create_tro:
  00812	6a 21		 push	 33			; 00000021H
  00814	8b 4d e4	 mov	 ecx, DWORD PTR _keysite$[ebp]
  00817	51		 push	 ecx
  00818	69 95 70 ff ff
	ff bc 02 00 00	 imul	 edx, DWORD PTR tv366[ebp], 700
  00822	8b 85 6c ff ff
	ff		 mov	 eax, DWORD PTR tv374[ebp]
  00828	8b 8c 82 00 00
	00 00		 mov	 ecx, DWORD PTR ?fn_get_local_entity_float_value@@3PAY0KP@P6GMPAUENTITY@@W4FLOAT_TYPES@@@ZA[edx+eax*4]
  0082f	ff d1		 call	 ecx
  00831	dd 9d 64 ff ff
	ff		 fstp	 QWORD PTR tv951[ebp]
  00837	f2 0f 10 05 00
	00 00 00	 movsd	 xmm0, QWORD PTR __real@3ff0000000000000
  0083f	f2 0f 5c 85 64
	ff ff ff	 subsd	 xmm0, QWORD PTR tv951[ebp]
  00847	f2 0f 59 05 00
	00 00 00	 mulsd	 xmm0, QWORD PTR __real@4008000000000000
  0084f	f3 0f 5a 4d c0	 cvtss2sd xmm1, DWORD PTR _rating$[ebp]
  00854	f2 0f 58 c8	 addsd	 xmm1, xmm0
  00858	f2 0f 5a c1	 cvtsd2ss xmm0, xmm1
  0085c	f3 0f 11 45 c0	 movss	 DWORD PTR _rating$[ebp], xmm0

; 1756 : 
; 1757 : 								// friendly territory
; 1758 : 								rating += 2.0 * get_local_sector_side_ratio (x, z, this_side);

  00861	8b 45 f8	 mov	 eax, DWORD PTR _this_side$[ebp]
  00864	50		 push	 eax
  00865	8b 4d d8	 mov	 ecx, DWORD PTR _z$[ebp]
  00868	51		 push	 ecx
  00869	8b 55 dc	 mov	 edx, DWORD PTR _x$[ebp]
  0086c	52		 push	 edx
  0086d	e8 00 00 00 00	 call	 ?get_local_sector_side_ratio@@YGMHHW4ENTITY_SIDES@@@Z ; get_local_sector_side_ratio
  00872	dd 9d 6c ff ff
	ff		 fstp	 QWORD PTR tv961[ebp]
  00878	f2 0f 10 85 6c
	ff ff ff	 movsd	 xmm0, QWORD PTR tv961[ebp]
  00880	f2 0f 59 05 00
	00 00 00	 mulsd	 xmm0, QWORD PTR __real@4000000000000000
  00888	f3 0f 5a 4d c0	 cvtss2sd xmm1, DWORD PTR _rating$[ebp]
  0088d	f2 0f 58 c8	 addsd	 xmm1, xmm0
  00891	f2 0f 5a c1	 cvtsd2ss xmm0, xmm1
  00895	f3 0f 11 45 c0	 movss	 DWORD PTR _rating$[ebp], xmm0

; 1759 : 
; 1760 : 								max_rating = 9.0;

  0089a	f3 0f 10 05 00
	00 00 00	 movss	 xmm0, DWORD PTR __real@41100000
  008a2	f3 0f 11 45 b8	 movss	 DWORD PTR _max_rating$[ebp], xmm0

; 1761 : 	
; 1762 : 								//
; 1763 : 								// Store
; 1764 : 								//
; 1765 : 		
; 1766 : 								if (rating > 0.0)

  008a7	f3 0f 5a 45 c0	 cvtss2sd xmm0, DWORD PTR _rating$[ebp]
  008ac	66 0f 2f 05 00
	00 00 00	 comisd	 xmm0, QWORD PTR __real@0000000000000000
  008b4	76 27		 jbe	 SHORT $LN17@create_tro

; 1767 : 								{
; 1768 : 									target_list [count] = keysite;

  008b6	8b 45 d0	 mov	 eax, DWORD PTR _count$[ebp]
  008b9	8b 4d e4	 mov	 ecx, DWORD PTR _keysite$[ebp]
  008bc	89 0c 85 00 00
	00 00		 mov	 DWORD PTR ?target_list@@3PAPAUENTITY@@A[eax*4], ecx

; 1769 : 			
; 1770 : 									target_rating [count] = rating;

  008c3	8b 45 d0	 mov	 eax, DWORD PTR _count$[ebp]
  008c6	f3 0f 10 45 c0	 movss	 xmm0, DWORD PTR _rating$[ebp]
  008cb	f3 0f 11 04 85
	00 00 00 00	 movss	 DWORD PTR ?target_rating@@3PAMA[eax*4], xmm0

; 1771 : 			
; 1772 : 									count ++;

  008d4	8b 45 d0	 mov	 eax, DWORD PTR _count$[ebp]
  008d7	83 c0 01	 add	 eax, 1
  008da	89 45 d0	 mov	 DWORD PTR _count$[ebp], eax
$LN17@create_tro:

; 1773 : 								}
; 1774 : 							}
; 1775 : 						}
; 1776 : 					}
; 1777 : 	
; 1778 : 					keysite = get_local_entity_child_succ (keysite, LIST_TYPE_KEYSITE_FORCE);

  008dd	83 7d e4 00	 cmp	 DWORD PTR _keysite$[ebp], 0
  008e1	74 0d		 je	 SHORT $LN75@create_tro
  008e3	8b 45 e4	 mov	 eax, DWORD PTR _keysite$[ebp]
  008e6	8b 08		 mov	 ecx, DWORD PTR [eax]
  008e8	89 8d 70 ff ff
	ff		 mov	 DWORD PTR tv408[ebp], ecx
  008ee	eb 24		 jmp	 SHORT $LN76@create_tro
$LN75@create_tro:
  008f0	8b 15 00 00 00
	00		 mov	 edx, DWORD PTR ?__LINE__Var@?0??create_troop_insertion_tasks@@YGXXZ@4JA
  008f6	83 c2 7b	 add	 edx, 123		; 0000007bH
  008f9	52		 push	 edx
  008fa	68 00 00 00 00	 push	 OFFSET ??_C@_0ED@GMECMFKH@c?3?2users?2nhv90?2projects?2eech?2ap@
  008ff	a1 00 00 00 00	 mov	 eax, DWORD PTR ?null_entity_pointer_message@@3PBDB ; null_entity_pointer_message
  00904	50		 push	 eax
  00905	e8 00 00 00 00	 call	 ?process_assert@@YGXPBD0H@Z ; process_assert
  0090a	c7 85 70 ff ff
	ff 00 00 00 00	 mov	 DWORD PTR tv408[ebp], 0
$LN76@create_tro:
  00914	b9 01 00 00 00	 mov	 ecx, 1
  00919	85 c9		 test	 ecx, ecx
  0091b	74 0c		 je	 SHORT $LN77@create_tro
  0091d	c7 85 6c ff ff
	ff 15 00 00 00	 mov	 DWORD PTR tv416[ebp], 21 ; 00000015H
  00927	eb 24		 jmp	 SHORT $LN78@create_tro
$LN77@create_tro:
  00929	8b 15 00 00 00
	00		 mov	 edx, DWORD PTR ?__LINE__Var@?0??create_troop_insertion_tasks@@YGXXZ@4JA
  0092f	83 c2 7b	 add	 edx, 123		; 0000007bH
  00932	52		 push	 edx
  00933	68 00 00 00 00	 push	 OFFSET ??_C@_0ED@GMECMFKH@c?3?2users?2nhv90?2projects?2eech?2ap@
  00938	a1 00 00 00 00	 mov	 eax, DWORD PTR ?overload_invalid_list_type_message@@3PBDB ; overload_invalid_list_type_message
  0093d	50		 push	 eax
  0093e	e8 00 00 00 00	 call	 ?process_assert@@YGXPBD0H@Z ; process_assert
  00943	c7 85 6c ff ff
	ff 00 00 00 00	 mov	 DWORD PTR tv416[ebp], 0
$LN78@create_tro:
  0094d	6a 15		 push	 21			; 00000015H
  0094f	8b 4d e4	 mov	 ecx, DWORD PTR _keysite$[ebp]
  00952	51		 push	 ecx
  00953	69 95 70 ff ff
	ff b4 00 00 00	 imul	 edx, DWORD PTR tv408[ebp], 180
  0095d	8b 85 6c ff ff
	ff		 mov	 eax, DWORD PTR tv416[ebp]
  00963	8b 8c 82 00 00
	00 00		 mov	 ecx, DWORD PTR ?fn_get_local_entity_child_succ@@3PAY0CN@P6GPAUENTITY@@PAU1@W4LIST_TYPES@@@ZA[edx+eax*4]
  0096a	ff d1		 call	 ecx
  0096c	89 45 e4	 mov	 DWORD PTR _keysite$[ebp], eax

; 1779 : 				}

  0096f	e9 2c fa ff ff	 jmp	 $LN6@create_tro
$LN7@create_tro:

; 1780 : 			}
; 1781 : 
; 1782 : 			target_force = get_local_entity_child_succ (target_force, LIST_TYPE_FORCE);

  00974	83 7d ec 00	 cmp	 DWORD PTR _target_force$[ebp], 0
  00978	74 0d		 je	 SHORT $LN79@create_tro
  0097a	8b 45 ec	 mov	 eax, DWORD PTR _target_force$[ebp]
  0097d	8b 08		 mov	 ecx, DWORD PTR [eax]
  0097f	89 8d 70 ff ff
	ff		 mov	 DWORD PTR tv428[ebp], ecx
  00985	eb 24		 jmp	 SHORT $LN80@create_tro
$LN79@create_tro:
  00987	8b 15 00 00 00
	00		 mov	 edx, DWORD PTR ?__LINE__Var@?0??create_troop_insertion_tasks@@YGXXZ@4JA
  0098d	83 c2 7f	 add	 edx, 127		; 0000007fH
  00990	52		 push	 edx
  00991	68 00 00 00 00	 push	 OFFSET ??_C@_0ED@GMECMFKH@c?3?2users?2nhv90?2projects?2eech?2ap@
  00996	a1 00 00 00 00	 mov	 eax, DWORD PTR ?null_entity_pointer_message@@3PBDB ; null_entity_pointer_message
  0099b	50		 push	 eax
  0099c	e8 00 00 00 00	 call	 ?process_assert@@YGXPBD0H@Z ; process_assert
  009a1	c7 85 70 ff ff
	ff 00 00 00 00	 mov	 DWORD PTR tv428[ebp], 0
$LN80@create_tro:
  009ab	b9 01 00 00 00	 mov	 ecx, 1
  009b0	85 c9		 test	 ecx, ecx
  009b2	74 0c		 je	 SHORT $LN81@create_tro
  009b4	c7 85 6c ff ff
	ff 0e 00 00 00	 mov	 DWORD PTR tv436[ebp], 14 ; 0000000eH
  009be	eb 24		 jmp	 SHORT $LN82@create_tro
$LN81@create_tro:
  009c0	8b 15 00 00 00
	00		 mov	 edx, DWORD PTR ?__LINE__Var@?0??create_troop_insertion_tasks@@YGXXZ@4JA
  009c6	83 c2 7f	 add	 edx, 127		; 0000007fH
  009c9	52		 push	 edx
  009ca	68 00 00 00 00	 push	 OFFSET ??_C@_0ED@GMECMFKH@c?3?2users?2nhv90?2projects?2eech?2ap@
  009cf	a1 00 00 00 00	 mov	 eax, DWORD PTR ?overload_invalid_list_type_message@@3PBDB ; overload_invalid_list_type_message
  009d4	50		 push	 eax
  009d5	e8 00 00 00 00	 call	 ?process_assert@@YGXPBD0H@Z ; process_assert
  009da	c7 85 6c ff ff
	ff 00 00 00 00	 mov	 DWORD PTR tv436[ebp], 0
$LN82@create_tro:
  009e4	6a 0e		 push	 14			; 0000000eH
  009e6	8b 4d ec	 mov	 ecx, DWORD PTR _target_force$[ebp]
  009e9	51		 push	 ecx
  009ea	69 95 70 ff ff
	ff b4 00 00 00	 imul	 edx, DWORD PTR tv428[ebp], 180
  009f4	8b 85 6c ff ff
	ff		 mov	 eax, DWORD PTR tv436[ebp]
  009fa	8b 8c 82 00 00
	00 00		 mov	 ecx, DWORD PTR ?fn_get_local_entity_child_succ@@3PAY0CN@P6GPAUENTITY@@PAU1@W4LIST_TYPES@@@ZA[edx+eax*4]
  00a01	ff d1		 call	 ecx
  00a03	89 45 ec	 mov	 DWORD PTR _target_force$[ebp], eax

; 1783 : 		}

  00a06	e9 4b f8 ff ff	 jmp	 $LN4@create_tro
$LN5@create_tro:

; 1784 : 
; 1785 : 		//
; 1786 : 		// Create tasks
; 1787 : 		//
; 1788 : 
; 1789 : 		if (count > 0)

  00a0b	83 7d d0 00	 cmp	 DWORD PTR _count$[ebp], 0
  00a0f	0f 8e e0 07 00
	00		 jle	 $LN9@create_tro

; 1790 : 		{
; 1791 : 			debug_log ("HIGHLEVL: %s %d candidates for T.I", entity_side_short_names [this_side], count);

  00a15	8b 45 d0	 mov	 eax, DWORD PTR _count$[ebp]
  00a18	50		 push	 eax
  00a19	8b 4d f8	 mov	 ecx, DWORD PTR _this_side$[ebp]
  00a1c	8b 14 8d 00 00
	00 00		 mov	 edx, DWORD PTR ?entity_side_short_names@@3PAPBDA[ecx*4]
  00a23	52		 push	 edx
  00a24	68 00 00 00 00	 push	 OFFSET ??_C@_0CD@EFNCGLHK@HIGHLEVL?3?5?$CFs?5?$CFd?5candidates?5for?5@
  00a29	e8 00 00 00 00	 call	 ?debug_log@@YAXPBDZZ	; debug_log
  00a2e	83 c4 0c	 add	 esp, 12			; 0000000cH

; 1792 : 
; 1793 : 			quicksort_entity_list (target_list, count, target_rating);

  00a31	68 00 00 00 00	 push	 OFFSET ?target_rating@@3PAMA
  00a36	8b 45 d0	 mov	 eax, DWORD PTR _count$[ebp]
  00a39	50		 push	 eax
  00a3a	68 00 00 00 00	 push	 OFFSET ?target_list@@3PAPAUENTITY@@A
  00a3f	e8 00 00 00 00	 call	 ?quicksort_entity_list@@YGXPAPAUENTITY@@HPAM@Z ; quicksort_entity_list

; 1794 : 
; 1795 : 			count = min (count, CREATE_TROOP_INSERTION_TASK_COUNT);

  00a44	c7 85 74 ff ff
	ff 02 00 00 00	 mov	 DWORD PTR $T1[ebp], 2
  00a4e	8d 85 74 ff ff
	ff		 lea	 eax, DWORD PTR $T1[ebp]
  00a54	50		 push	 eax
  00a55	8d 4d d0	 lea	 ecx, DWORD PTR _count$[ebp]
  00a58	51		 push	 ecx
  00a59	e8 00 00 00 00	 call	 ??$min@H@std@@YGABHABH0@Z ; std::min<int>
  00a5e	8b 10		 mov	 edx, DWORD PTR [eax]
  00a60	89 55 d0	 mov	 DWORD PTR _count$[ebp], edx

; 1796 : 
; 1797 : 			ASSERT (target_rating [0] > 0.0);

  00a63	b8 04 00 00 00	 mov	 eax, 4
  00a68	6b c8 00	 imul	 ecx, eax, 0
  00a6b	f3 0f 5a 81 00
	00 00 00	 cvtss2sd xmm0, DWORD PTR ?target_rating@@3PAMA[ecx]
  00a73	66 0f 2f 05 00
	00 00 00	 comisd	 xmm0, QWORD PTR __real@0000000000000000
  00a7b	77 1a		 ja	 SHORT $LN19@create_tro
  00a7d	a1 00 00 00 00	 mov	 eax, DWORD PTR ?__LINE__Var@?0??create_troop_insertion_tasks@@YGXXZ@4JA
  00a82	05 8e 00 00 00	 add	 eax, 142		; 0000008eH
  00a87	50		 push	 eax
  00a88	68 00 00 00 00	 push	 OFFSET ??_C@_0ED@GMECMFKH@c?3?2users?2nhv90?2projects?2eech?2ap@
  00a8d	68 00 00 00 00	 push	 OFFSET ??_C@_0BI@BNNJCIEB@target_rating?5?$FL0?$FN?5?$DO?50?40@
  00a92	e8 00 00 00 00	 call	 ?process_assert@@YGXPBD0H@Z ; process_assert
$LN19@create_tro:

; 1798 : 
; 1799 : 			for (loop = 0; loop < count; loop ++)

  00a97	c7 45 d4 00 00
	00 00		 mov	 DWORD PTR _loop$[ebp], 0
  00a9e	eb 09		 jmp	 SHORT $LN10@create_tro
$LN8@create_tro:
  00aa0	8b 45 d4	 mov	 eax, DWORD PTR _loop$[ebp]
  00aa3	83 c0 01	 add	 eax, 1
  00aa6	89 45 d4	 mov	 DWORD PTR _loop$[ebp], eax
$LN10@create_tro:
  00aa9	8b 45 d4	 mov	 eax, DWORD PTR _loop$[ebp]
  00aac	3b 45 d0	 cmp	 eax, DWORD PTR _count$[ebp]
  00aaf	0f 8d 40 07 00
	00		 jge	 $LN9@create_tro

; 1800 : 			{
; 1801 : 				ratio = target_rating [loop] / target_rating [0];

  00ab5	b8 04 00 00 00	 mov	 eax, 4
  00aba	6b c8 00	 imul	 ecx, eax, 0
  00abd	8b 55 d4	 mov	 edx, DWORD PTR _loop$[ebp]
  00ac0	f3 0f 10 04 95
	00 00 00 00	 movss	 xmm0, DWORD PTR ?target_rating@@3PAMA[edx*4]
  00ac9	f3 0f 5e 81 00
	00 00 00	 divss	 xmm0, DWORD PTR ?target_rating@@3PAMA[ecx]
  00ad1	f3 0f 11 45 bc	 movss	 DWORD PTR _ratio$[ebp], xmm0

; 1802 : 
; 1803 : 				if (ratio >= MIN_TASK_CREATION_RATIO)

  00ad6	f3 0f 5a 45 bc	 cvtss2sd xmm0, DWORD PTR _ratio$[ebp]
  00adb	66 0f 2f 05 00
	00 00 00	 comisd	 xmm0, QWORD PTR __real@3fe8000000000000
  00ae3	0f 82 07 07 00
	00		 jb	 $LN29@create_tro

; 1804 : 				{
; 1805 : 					keysite = target_list [loop];

  00ae9	8b 45 d4	 mov	 eax, DWORD PTR _loop$[ebp]
  00aec	8b 0c 85 00 00
	00 00		 mov	 ecx, DWORD PTR ?target_list@@3PAPAUENTITY@@A[eax*4]
  00af3	89 4d e4	 mov	 DWORD PTR _keysite$[ebp], ecx

; 1806 : 	
; 1807 : 					sector = get_local_entity_parent (keysite, LIST_TYPE_SECTOR);

  00af6	83 7d e4 00	 cmp	 DWORD PTR _keysite$[ebp], 0
  00afa	74 0d		 je	 SHORT $LN83@create_tro
  00afc	8b 45 e4	 mov	 eax, DWORD PTR _keysite$[ebp]
  00aff	8b 08		 mov	 ecx, DWORD PTR [eax]
  00b01	89 8d 70 ff ff
	ff		 mov	 DWORD PTR tv479[ebp], ecx
  00b07	eb 27		 jmp	 SHORT $LN84@create_tro
$LN83@create_tro:
  00b09	8b 15 00 00 00
	00		 mov	 edx, DWORD PTR ?__LINE__Var@?0??create_troop_insertion_tasks@@YGXXZ@4JA
  00b0f	81 c2 98 00 00
	00		 add	 edx, 152		; 00000098H
  00b15	52		 push	 edx
  00b16	68 00 00 00 00	 push	 OFFSET ??_C@_0ED@GMECMFKH@c?3?2users?2nhv90?2projects?2eech?2ap@
  00b1b	a1 00 00 00 00	 mov	 eax, DWORD PTR ?null_entity_pointer_message@@3PBDB ; null_entity_pointer_message
  00b20	50		 push	 eax
  00b21	e8 00 00 00 00	 call	 ?process_assert@@YGXPBD0H@Z ; process_assert
  00b26	c7 85 70 ff ff
	ff 00 00 00 00	 mov	 DWORD PTR tv479[ebp], 0
$LN84@create_tro:
  00b30	b9 01 00 00 00	 mov	 ecx, 1
  00b35	85 c9		 test	 ecx, ecx
  00b37	74 0c		 je	 SHORT $LN85@create_tro
  00b39	c7 85 6c ff ff
	ff 21 00 00 00	 mov	 DWORD PTR tv487[ebp], 33 ; 00000021H
  00b43	eb 27		 jmp	 SHORT $LN86@create_tro
$LN85@create_tro:
  00b45	8b 15 00 00 00
	00		 mov	 edx, DWORD PTR ?__LINE__Var@?0??create_troop_insertion_tasks@@YGXXZ@4JA
  00b4b	81 c2 98 00 00
	00		 add	 edx, 152		; 00000098H
  00b51	52		 push	 edx
  00b52	68 00 00 00 00	 push	 OFFSET ??_C@_0ED@GMECMFKH@c?3?2users?2nhv90?2projects?2eech?2ap@
  00b57	a1 00 00 00 00	 mov	 eax, DWORD PTR ?overload_invalid_list_type_message@@3PBDB ; overload_invalid_list_type_message
  00b5c	50		 push	 eax
  00b5d	e8 00 00 00 00	 call	 ?process_assert@@YGXPBD0H@Z ; process_assert
  00b62	c7 85 6c ff ff
	ff 00 00 00 00	 mov	 DWORD PTR tv487[ebp], 0
$LN86@create_tro:
  00b6c	6a 21		 push	 33			; 00000021H
  00b6e	8b 4d e4	 mov	 ecx, DWORD PTR _keysite$[ebp]
  00b71	51		 push	 ecx
  00b72	69 95 70 ff ff
	ff b4 00 00 00	 imul	 edx, DWORD PTR tv479[ebp], 180
  00b7c	8b 85 6c ff ff
	ff		 mov	 eax, DWORD PTR tv487[ebp]
  00b82	8b 8c 82 00 00
	00 00		 mov	 ecx, DWORD PTR ?fn_get_local_entity_parent@@3PAY0CN@P6GPAUENTITY@@PAU1@W4LIST_TYPES@@@ZA[edx+eax*4]
  00b89	ff d1		 call	 ecx
  00b8b	89 45 f0	 mov	 DWORD PTR _sector$[ebp], eax

; 1808 : 	
; 1809 : 					ASSERT (sector);

  00b8e	83 7d f0 00	 cmp	 DWORD PTR _sector$[ebp], 0
  00b92	75 1a		 jne	 SHORT $LN21@create_tro
  00b94	a1 00 00 00 00	 mov	 eax, DWORD PTR ?__LINE__Var@?0??create_troop_insertion_tasks@@YGXXZ@4JA
  00b99	05 9a 00 00 00	 add	 eax, 154		; 0000009aH
  00b9e	50		 push	 eax
  00b9f	68 00 00 00 00	 push	 OFFSET ??_C@_0ED@GMECMFKH@c?3?2users?2nhv90?2projects?2eech?2ap@
  00ba4	68 00 00 00 00	 push	 OFFSET ??_C@_06IDGHNJOB@sector@
  00ba9	e8 00 00 00 00	 call	 ?process_assert@@YGXPBD0H@Z ; process_assert
$LN21@create_tro:

; 1810 : 					
; 1811 : 					keysite_type = get_local_entity_int_value (keysite, INT_TYPE_ENTITY_SUB_TYPE);

  00bae	83 7d e4 00	 cmp	 DWORD PTR _keysite$[ebp], 0
  00bb2	74 0d		 je	 SHORT $LN87@create_tro
  00bb4	8b 45 e4	 mov	 eax, DWORD PTR _keysite$[ebp]
  00bb7	8b 08		 mov	 ecx, DWORD PTR [eax]
  00bb9	89 8d 70 ff ff
	ff		 mov	 DWORD PTR tv504[ebp], ecx
  00bbf	eb 27		 jmp	 SHORT $LN88@create_tro
$LN87@create_tro:
  00bc1	8b 15 00 00 00
	00		 mov	 edx, DWORD PTR ?__LINE__Var@?0??create_troop_insertion_tasks@@YGXXZ@4JA
  00bc7	81 c2 9c 00 00
	00		 add	 edx, 156		; 0000009cH
  00bcd	52		 push	 edx
  00bce	68 00 00 00 00	 push	 OFFSET ??_C@_0ED@GMECMFKH@c?3?2users?2nhv90?2projects?2eech?2ap@
  00bd3	a1 00 00 00 00	 mov	 eax, DWORD PTR ?null_entity_pointer_message@@3PBDB ; null_entity_pointer_message
  00bd8	50		 push	 eax
  00bd9	e8 00 00 00 00	 call	 ?process_assert@@YGXPBD0H@Z ; process_assert
  00bde	c7 85 70 ff ff
	ff 00 00 00 00	 mov	 DWORD PTR tv504[ebp], 0
$LN88@create_tro:
  00be8	b9 01 00 00 00	 mov	 ecx, 1
  00bed	85 c9		 test	 ecx, ecx
  00bef	74 0c		 je	 SHORT $LN89@create_tro
  00bf1	c7 85 6c ff ff
	ff 34 00 00 00	 mov	 DWORD PTR tv512[ebp], 52 ; 00000034H
  00bfb	eb 27		 jmp	 SHORT $LN90@create_tro
$LN89@create_tro:
  00bfd	8b 15 00 00 00
	00		 mov	 edx, DWORD PTR ?__LINE__Var@?0??create_troop_insertion_tasks@@YGXXZ@4JA
  00c03	81 c2 9c 00 00
	00		 add	 edx, 156		; 0000009cH
  00c09	52		 push	 edx
  00c0a	68 00 00 00 00	 push	 OFFSET ??_C@_0ED@GMECMFKH@c?3?2users?2nhv90?2projects?2eech?2ap@
  00c0f	a1 00 00 00 00	 mov	 eax, DWORD PTR ?overload_invalid_int_type_message@@3PBDB ; overload_invalid_int_type_message
  00c14	50		 push	 eax
  00c15	e8 00 00 00 00	 call	 ?process_assert@@YGXPBD0H@Z ; process_assert
  00c1a	c7 85 6c ff ff
	ff 00 00 00 00	 mov	 DWORD PTR tv512[ebp], 0
$LN90@create_tro:
  00c24	6a 34		 push	 52			; 00000034H
  00c26	8b 4d e4	 mov	 ecx, DWORD PTR _keysite$[ebp]
  00c29	51		 push	 ecx
  00c2a	69 95 70 ff ff
	ff 5c 04 00 00	 imul	 edx, DWORD PTR tv504[ebp], 1116
  00c34	8b 85 6c ff ff
	ff		 mov	 eax, DWORD PTR tv512[ebp]
  00c3a	8b 8c 82 00 00
	00 00		 mov	 ecx, DWORD PTR ?fn_get_local_entity_int_value@@3PAY0BBH@P6GHPAUENTITY@@W4INT_TYPES@@@ZA[edx+eax*4]
  00c41	ff d1		 call	 ecx
  00c43	89 45 cc	 mov	 DWORD PTR _keysite_type$[ebp], eax

; 1812 : 	
; 1813 : 					if ((keysite_database [keysite_type].recon_target) || (get_sector_fog_of_war_value (sector, this_side) < (0.2 * get_local_entity_float_value (get_session_entity (), FLOAT_TYPE_FOG_OF_WAR_MAXIMUM_VALUE))))

  00c46	6b 45 cc 44	 imul	 eax, DWORD PTR _keysite_type$[ebp], 68
  00c4a	8b 88 40 00 00
	00		 mov	 ecx, DWORD PTR ?keysite_database@@3PAUKEYSITE_DATA@@A[eax+64]
  00c50	c1 e9 09	 shr	 ecx, 9
  00c53	83 e1 01	 and	 ecx, 1
  00c56	0f 85 da 00 00
	00		 jne	 $LN24@create_tro
  00c5c	83 3d 00 00 00
	00 00		 cmp	 DWORD PTR ?session_entity@@3PAUENTITY@@A, 0 ; session_entity
  00c63	74 0f		 je	 SHORT $LN91@create_tro
  00c65	a1 00 00 00 00	 mov	 eax, DWORD PTR ?session_entity@@3PAUENTITY@@A ; session_entity
  00c6a	8b 08		 mov	 ecx, DWORD PTR [eax]
  00c6c	89 8d 70 ff ff
	ff		 mov	 DWORD PTR tv533[ebp], ecx
  00c72	eb 20		 jmp	 SHORT $LN92@create_tro
$LN91@create_tro:
  00c74	68 15 07 00 00	 push	 1813			; 00000715H
  00c79	68 00 00 00 00	 push	 OFFSET ??_C@_0ED@GMECMFKH@c?3?2users?2nhv90?2projects?2eech?2ap@
  00c7e	8b 15 00 00 00
	00		 mov	 edx, DWORD PTR ?null_entity_pointer_message@@3PBDB ; null_entity_pointer_message
  00c84	52		 push	 edx
  00c85	e8 00 00 00 00	 call	 ?process_assert@@YGXPBD0H@Z ; process_assert
  00c8a	c7 85 70 ff ff
	ff 00 00 00 00	 mov	 DWORD PTR tv533[ebp], 0
$LN92@create_tro:
  00c94	b8 01 00 00 00	 mov	 eax, 1
  00c99	85 c0		 test	 eax, eax
  00c9b	74 0c		 je	 SHORT $LN93@create_tro
  00c9d	c7 85 6c ff ff
	ff 2c 00 00 00	 mov	 DWORD PTR tv540[ebp], 44 ; 0000002cH
  00ca7	eb 20		 jmp	 SHORT $LN94@create_tro
$LN93@create_tro:
  00ca9	68 15 07 00 00	 push	 1813			; 00000715H
  00cae	68 00 00 00 00	 push	 OFFSET ??_C@_0ED@GMECMFKH@c?3?2users?2nhv90?2projects?2eech?2ap@
  00cb3	8b 0d 00 00 00
	00		 mov	 ecx, DWORD PTR ?overload_invalid_float_type_message@@3PBDB ; overload_invalid_float_type_message
  00cb9	51		 push	 ecx
  00cba	e8 00 00 00 00	 call	 ?process_assert@@YGXPBD0H@Z ; process_assert
  00cbf	c7 85 6c ff ff
	ff 00 00 00 00	 mov	 DWORD PTR tv540[ebp], 0
$LN94@create_tro:
  00cc9	8b 55 f8	 mov	 edx, DWORD PTR _this_side$[ebp]
  00ccc	52		 push	 edx
  00ccd	8b 45 f0	 mov	 eax, DWORD PTR _sector$[ebp]
  00cd0	50		 push	 eax
  00cd1	e8 00 00 00 00	 call	 ?get_sector_fog_of_war_value@@YGMPAUENTITY@@W4ENTITY_SIDES@@@Z ; get_sector_fog_of_war_value
  00cd6	dd 9d 64 ff ff
	ff		 fstp	 QWORD PTR tv1043[ebp]
  00cdc	f2 0f 10 85 64
	ff ff ff	 movsd	 xmm0, QWORD PTR tv1043[ebp]
  00ce4	6a 2c		 push	 44			; 0000002cH
  00ce6	8b 0d 00 00 00
	00		 mov	 ecx, DWORD PTR ?session_entity@@3PAUENTITY@@A ; session_entity
  00cec	51		 push	 ecx
  00ced	69 95 70 ff ff
	ff bc 02 00 00	 imul	 edx, DWORD PTR tv533[ebp], 700
  00cf7	8b 85 6c ff ff
	ff		 mov	 eax, DWORD PTR tv540[ebp]
  00cfd	8b 8c 82 00 00
	00 00		 mov	 ecx, DWORD PTR ?fn_get_local_entity_float_value@@3PAY0KP@P6GMPAUENTITY@@W4FLOAT_TYPES@@@ZA[edx+eax*4]
  00d04	f2 0f 11 85 5c
	ff ff ff	 movsd	 QWORD PTR tv1160[ebp], xmm0
  00d0c	ff d1		 call	 ecx
  00d0e	dd 9d 54 ff ff
	ff		 fstp	 QWORD PTR tv1051[ebp]
  00d14	f2 0f 10 85 54
	ff ff ff	 movsd	 xmm0, QWORD PTR tv1051[ebp]
  00d1c	f2 0f 59 05 00
	00 00 00	 mulsd	 xmm0, QWORD PTR __real@3fc999999999999a
  00d24	f2 0f 10 8d 5c
	ff ff ff	 movsd	 xmm1, QWORD PTR tv1160[ebp]
  00d2c	66 0f 2f c1	 comisd	 xmm0, xmm1
  00d30	0f 86 2f 02 00
	00		 jbe	 $LN22@create_tro
$LN24@create_tro:

; 1814 : 					{
; 1815 : 						//
; 1816 : 						// KEYSITE REQUIRES RECON (T.I. Created Upon Reaction)
; 1817 : 						//
; 1818 : 	
; 1819 : 						if (
; 1820 : 								(!entity_is_object_of_task (keysite, ENTITY_SUB_TYPE_TASK_RECON, this_side)) &&
; 1821 : 								(!entity_is_object_of_task (keysite, ENTITY_SUB_TYPE_TASK_BDA, this_side)) &&

  00d36	8b 45 f8	 mov	 eax, DWORD PTR _this_side$[ebp]
  00d39	50		 push	 eax
  00d3a	6a 11		 push	 17			; 00000011H
  00d3c	8b 4d e4	 mov	 ecx, DWORD PTR _keysite$[ebp]
  00d3f	51		 push	 ecx
  00d40	e8 00 00 00 00	 call	 ?entity_is_object_of_task@@YGHPAUENTITY@@HW4ENTITY_SIDES@@@Z ; entity_is_object_of_task
  00d45	85 c0		 test	 eax, eax
  00d47	0f 85 13 02 00
	00		 jne	 $LN26@create_tro
  00d4d	8b 45 f8	 mov	 eax, DWORD PTR _this_side$[ebp]
  00d50	50		 push	 eax
  00d51	6a 05		 push	 5
  00d53	8b 4d e4	 mov	 ecx, DWORD PTR _keysite$[ebp]
  00d56	51		 push	 ecx
  00d57	e8 00 00 00 00	 call	 ?entity_is_object_of_task@@YGHPAUENTITY@@HW4ENTITY_SIDES@@@Z ; entity_is_object_of_task
  00d5c	85 c0		 test	 eax, eax
  00d5e	0f 85 fc 01 00
	00		 jne	 $LN26@create_tro
  00d64	8b 45 f8	 mov	 eax, DWORD PTR _this_side$[ebp]
  00d67	50		 push	 eax
  00d68	6a 1a		 push	 26			; 0000001aH
  00d6a	8b 4d e4	 mov	 ecx, DWORD PTR _keysite$[ebp]
  00d6d	51		 push	 ecx
  00d6e	e8 00 00 00 00	 call	 ?entity_is_object_of_task@@YGHPAUENTITY@@HW4ENTITY_SIDES@@@Z ; entity_is_object_of_task
  00d73	85 c0		 test	 eax, eax
  00d75	0f 85 e5 01 00
	00		 jne	 $LN26@create_tro

; 1822 : 								(!entity_is_object_of_task (keysite, ENTITY_SUB_TYPE_TASK_TROOP_INSERTION, this_side))
; 1823 : 							)
; 1824 : 						{
; 1825 : 							priority = (target_rating [loop] / max_rating) * task_database [ENTITY_SUB_TYPE_TASK_TROOP_INSERTION].task_priority;

  00d7b	8b 45 d4	 mov	 eax, DWORD PTR _loop$[ebp]
  00d7e	f3 0f 10 04 85
	00 00 00 00	 movss	 xmm0, DWORD PTR ?target_rating@@3PAMA[eax*4]
  00d87	f3 0f 5e 45 b8	 divss	 xmm0, DWORD PTR _max_rating$[ebp]
  00d8c	b9 50 00 00 00	 mov	 ecx, 80			; 00000050H
  00d91	6b d1 1a	 imul	 edx, ecx, 26
  00d94	f3 0f 59 82 10
	00 00 00	 mulss	 xmm0, DWORD PTR ?task_database@@3PAUTASK_DATA@@A[edx+16]
  00d9c	f3 0f 11 45 c4	 movss	 DWORD PTR _priority$[ebp], xmm0

; 1826 : 	
; 1827 : 							new_task = create_recon_task (this_side, keysite, NULL, FALSE, priority, NULL, NULL);

  00da1	6a 00		 push	 0
  00da3	6a 00		 push	 0
  00da5	51		 push	 ecx
  00da6	f3 0f 10 45 c4	 movss	 xmm0, DWORD PTR _priority$[ebp]
  00dab	f3 0f 11 04 24	 movss	 DWORD PTR [esp], xmm0
  00db0	6a 00		 push	 0
  00db2	6a 00		 push	 0
  00db4	8b 45 e4	 mov	 eax, DWORD PTR _keysite$[ebp]
  00db7	50		 push	 eax
  00db8	8b 4d f8	 mov	 ecx, DWORD PTR _this_side$[ebp]
  00dbb	51		 push	 ecx
  00dbc	e8 00 00 00 00	 call	 ?create_recon_task@@YGPAUENTITY@@W4ENTITY_SIDES@@PAU1@1HM11@Z ; create_recon_task
  00dc1	89 45 e8	 mov	 DWORD PTR _new_task$[ebp], eax

; 1828 : 	
; 1829 : 							if (new_task)

  00dc4	83 7d e8 00	 cmp	 DWORD PTR _new_task$[ebp], 0
  00dc8	0f 84 92 01 00
	00		 je	 $LN26@create_tro

; 1830 : 							{
; 1831 : 								ai_log ("(TASK) %s KEYSITE T.I. RECON #%d (%d) - Target %s : Rating %f - CREATED (Priority %f)",

  00dce	83 7d e4 00	 cmp	 DWORD PTR _keysite$[ebp], 0
  00dd2	74 0d		 je	 SHORT $LN95@create_tro
  00dd4	8b 45 e4	 mov	 eax, DWORD PTR _keysite$[ebp]
  00dd7	8b 08		 mov	 ecx, DWORD PTR [eax]
  00dd9	89 8d 70 ff ff
	ff		 mov	 DWORD PTR tv592[ebp], ecx
  00ddf	eb 27		 jmp	 SHORT $LN96@create_tro
$LN95@create_tro:
  00de1	8b 15 00 00 00
	00		 mov	 edx, DWORD PTR ?__LINE__Var@?0??create_troop_insertion_tasks@@YGXXZ@4JA
  00de7	81 c2 b4 00 00
	00		 add	 edx, 180		; 000000b4H
  00ded	52		 push	 edx
  00dee	68 00 00 00 00	 push	 OFFSET ??_C@_0ED@GMECMFKH@c?3?2users?2nhv90?2projects?2eech?2ap@
  00df3	a1 00 00 00 00	 mov	 eax, DWORD PTR ?null_entity_pointer_message@@3PBDB ; null_entity_pointer_message
  00df8	50		 push	 eax
  00df9	e8 00 00 00 00	 call	 ?process_assert@@YGXPBD0H@Z ; process_assert
  00dfe	c7 85 70 ff ff
	ff 00 00 00 00	 mov	 DWORD PTR tv592[ebp], 0
$LN96@create_tro:
  00e08	b9 01 00 00 00	 mov	 ecx, 1
  00e0d	85 c9		 test	 ecx, ecx
  00e0f	74 0c		 je	 SHORT $LN97@create_tro
  00e11	c7 85 6c ff ff
	ff 07 00 00 00	 mov	 DWORD PTR tv600[ebp], 7
  00e1b	eb 27		 jmp	 SHORT $LN98@create_tro
$LN97@create_tro:
  00e1d	8b 15 00 00 00
	00		 mov	 edx, DWORD PTR ?__LINE__Var@?0??create_troop_insertion_tasks@@YGXXZ@4JA
  00e23	81 c2 b4 00 00
	00		 add	 edx, 180		; 000000b4H
  00e29	52		 push	 edx
  00e2a	68 00 00 00 00	 push	 OFFSET ??_C@_0ED@GMECMFKH@c?3?2users?2nhv90?2projects?2eech?2ap@
  00e2f	a1 00 00 00 00	 mov	 eax, DWORD PTR ?overload_invalid_string_type_message@@3PBDB ; overload_invalid_string_type_message
  00e34	50		 push	 eax
  00e35	e8 00 00 00 00	 call	 ?process_assert@@YGXPBD0H@Z ; process_assert
  00e3a	c7 85 6c ff ff
	ff 00 00 00 00	 mov	 DWORD PTR tv600[ebp], 0
$LN98@create_tro:
  00e44	83 7d e8 00	 cmp	 DWORD PTR _new_task$[ebp], 0
  00e48	74 14		 je	 SHORT $LN99@create_tro
  00e4a	8b 4d e8	 mov	 ecx, DWORD PTR _new_task$[ebp]
  00e4d	2b 0d 00 00 00
	00		 sub	 ecx, DWORD PTR ?entities@@3PAUENTITY@@A ; entities
  00e53	c1 f9 04	 sar	 ecx, 4
  00e56	89 8d 68 ff ff
	ff		 mov	 DWORD PTR tv642[ebp], ecx
  00e5c	eb 0a		 jmp	 SHORT $LN100@create_tro
$LN99@create_tro:
  00e5e	c7 85 68 ff ff
	ff ff ff ff ff	 mov	 DWORD PTR tv642[ebp], -1
$LN100@create_tro:
  00e68	83 7d e8 00	 cmp	 DWORD PTR _new_task$[ebp], 0
  00e6c	74 0d		 je	 SHORT $LN101@create_tro
  00e6e	8b 55 e8	 mov	 edx, DWORD PTR _new_task$[ebp]
  00e71	8b 02		 mov	 eax, DWORD PTR [edx]
  00e73	89 85 64 ff ff
	ff		 mov	 DWORD PTR tv650[ebp], eax
  00e79	eb 28		 jmp	 SHORT $LN102@create_tro
$LN101@create_tro:
  00e7b	8b 0d 00 00 00
	00		 mov	 ecx, DWORD PTR ?__LINE__Var@?0??create_troop_insertion_tasks@@YGXXZ@4JA
  00e81	81 c1 b2 00 00
	00		 add	 ecx, 178		; 000000b2H
  00e87	51		 push	 ecx
  00e88	68 00 00 00 00	 push	 OFFSET ??_C@_0ED@GMECMFKH@c?3?2users?2nhv90?2projects?2eech?2ap@
  00e8d	8b 15 00 00 00
	00		 mov	 edx, DWORD PTR ?null_entity_pointer_message@@3PBDB ; null_entity_pointer_message
  00e93	52		 push	 edx
  00e94	e8 00 00 00 00	 call	 ?process_assert@@YGXPBD0H@Z ; process_assert
  00e99	c7 85 64 ff ff
	ff 00 00 00 00	 mov	 DWORD PTR tv650[ebp], 0
$LN102@create_tro:
  00ea3	b8 01 00 00 00	 mov	 eax, 1
  00ea8	85 c0		 test	 eax, eax
  00eaa	74 0c		 je	 SHORT $LN103@create_tro
  00eac	c7 85 60 ff ff
	ff dc 00 00 00	 mov	 DWORD PTR tv658[ebp], 220 ; 000000dcH
  00eb6	eb 28		 jmp	 SHORT $LN104@create_tro
$LN103@create_tro:
  00eb8	8b 0d 00 00 00
	00		 mov	 ecx, DWORD PTR ?__LINE__Var@?0??create_troop_insertion_tasks@@YGXXZ@4JA
  00ebe	81 c1 b2 00 00
	00		 add	 ecx, 178		; 000000b2H
  00ec4	51		 push	 ecx
  00ec5	68 00 00 00 00	 push	 OFFSET ??_C@_0ED@GMECMFKH@c?3?2users?2nhv90?2projects?2eech?2ap@
  00eca	8b 15 00 00 00
	00		 mov	 edx, DWORD PTR ?overload_invalid_int_type_message@@3PBDB ; overload_invalid_int_type_message
  00ed0	52		 push	 edx
  00ed1	e8 00 00 00 00	 call	 ?process_assert@@YGXPBD0H@Z ; process_assert
  00ed6	c7 85 60 ff ff
	ff 00 00 00 00	 mov	 DWORD PTR tv658[ebp], 0
$LN104@create_tro:
  00ee0	f3 0f 5a 45 c4	 cvtss2sd xmm0, DWORD PTR _priority$[ebp]
  00ee5	83 ec 08	 sub	 esp, 8
  00ee8	f2 0f 11 04 24	 movsd	 QWORD PTR [esp], xmm0
  00eed	8b 45 d4	 mov	 eax, DWORD PTR _loop$[ebp]
  00ef0	f3 0f 5a 04 85
	00 00 00 00	 cvtss2sd xmm0, DWORD PTR ?target_rating@@3PAMA[eax*4]
  00ef9	83 ec 08	 sub	 esp, 8
  00efc	f2 0f 11 04 24	 movsd	 QWORD PTR [esp], xmm0
  00f01	6a 07		 push	 7
  00f03	8b 4d e4	 mov	 ecx, DWORD PTR _keysite$[ebp]
  00f06	51		 push	 ecx
  00f07	6b 95 70 ff ff
	ff 34		 imul	 edx, DWORD PTR tv592[ebp], 52
  00f0e	8b 85 6c ff ff
	ff		 mov	 eax, DWORD PTR tv600[ebp]
  00f14	8b 8c 82 00 00
	00 00		 mov	 ecx, DWORD PTR ?fn_get_local_entity_string@@3PAY0N@P6GPBDPAUENTITY@@W4STRING_TYPES@@@ZA[edx+eax*4]
  00f1b	ff d1		 call	 ecx
  00f1d	50		 push	 eax
  00f1e	8b 95 68 ff ff
	ff		 mov	 edx, DWORD PTR tv642[ebp]
  00f24	52		 push	 edx
  00f25	68 dc 00 00 00	 push	 220			; 000000dcH
  00f2a	8b 45 e8	 mov	 eax, DWORD PTR _new_task$[ebp]
  00f2d	50		 push	 eax
  00f2e	69 8d 64 ff ff
	ff 5c 04 00 00	 imul	 ecx, DWORD PTR tv650[ebp], 1116
  00f38	8b 95 60 ff ff
	ff		 mov	 edx, DWORD PTR tv658[ebp]
  00f3e	8b 84 91 00 00
	00 00		 mov	 eax, DWORD PTR ?fn_get_local_entity_int_value@@3PAY0BBH@P6GHPAUENTITY@@W4INT_TYPES@@@ZA[ecx+edx*4]
  00f45	ff d0		 call	 eax
  00f47	50		 push	 eax
  00f48	8b 4d f8	 mov	 ecx, DWORD PTR _this_side$[ebp]
  00f4b	8b 14 8d 00 00
	00 00		 mov	 edx, DWORD PTR ?entity_side_short_names@@3PAPBDA[ecx*4]
  00f52	52		 push	 edx
  00f53	68 00 00 00 00	 push	 OFFSET ??_C@_0FG@FBHDLGFE@?$CITASK?$CJ?5?$CFs?5KEYSITE?5T?4I?4?5RECON?5?$CD?$CF@
  00f58	e8 00 00 00 00	 call	 ?ai_log@@YAXPBDZZ	; ai_log
  00f5d	83 c4 24	 add	 esp, 36			; 00000024H
$LN26@create_tro:

; 1832 : 											entity_side_short_names [this_side],
; 1833 : 											get_local_entity_int_value (new_task, INT_TYPE_TASK_ID),
; 1834 : 											get_local_entity_safe_index (new_task),
; 1835 : 											get_local_entity_string (keysite, STRING_TYPE_KEYSITE_NAME),
; 1836 : 											target_rating [loop], priority);
; 1837 : 							}
; 1838 : 						}
; 1839 : 					}
; 1840 : 					else

  00f60	e9 8b 02 00 00	 jmp	 $LN29@create_tro
$LN22@create_tro:

; 1841 : 					{
; 1842 : 						//
; 1843 : 						// KEYSITE REQUIRES NO RECON - Create T.I.
; 1844 : 						//
; 1845 : 	
; 1846 : 						if (get_local_entity_int_value (keysite, INT_TYPE_KEYSITE_USABLE_STATE) != KEYSITE_STATE_USABLE)

  00f65	83 7d e4 00	 cmp	 DWORD PTR _keysite$[ebp], 0
  00f69	74 0d		 je	 SHORT $LN105@create_tro
  00f6b	8b 45 e4	 mov	 eax, DWORD PTR _keysite$[ebp]
  00f6e	8b 08		 mov	 ecx, DWORD PTR [eax]
  00f70	89 8d 70 ff ff
	ff		 mov	 DWORD PTR tv674[ebp], ecx
  00f76	eb 20		 jmp	 SHORT $LN106@create_tro
$LN105@create_tro:
  00f78	68 36 07 00 00	 push	 1846			; 00000736H
  00f7d	68 00 00 00 00	 push	 OFFSET ??_C@_0ED@GMECMFKH@c?3?2users?2nhv90?2projects?2eech?2ap@
  00f82	8b 15 00 00 00
	00		 mov	 edx, DWORD PTR ?null_entity_pointer_message@@3PBDB ; null_entity_pointer_message
  00f88	52		 push	 edx
  00f89	e8 00 00 00 00	 call	 ?process_assert@@YGXPBD0H@Z ; process_assert
  00f8e	c7 85 70 ff ff
	ff 00 00 00 00	 mov	 DWORD PTR tv674[ebp], 0
$LN106@create_tro:
  00f98	b8 01 00 00 00	 mov	 eax, 1
  00f9d	85 c0		 test	 eax, eax
  00f9f	74 0c		 je	 SHORT $LN107@create_tro
  00fa1	c7 85 6c ff ff
	ff 70 00 00 00	 mov	 DWORD PTR tv681[ebp], 112 ; 00000070H
  00fab	eb 20		 jmp	 SHORT $LN108@create_tro
$LN107@create_tro:
  00fad	68 36 07 00 00	 push	 1846			; 00000736H
  00fb2	68 00 00 00 00	 push	 OFFSET ??_C@_0ED@GMECMFKH@c?3?2users?2nhv90?2projects?2eech?2ap@
  00fb7	8b 0d 00 00 00
	00		 mov	 ecx, DWORD PTR ?overload_invalid_int_type_message@@3PBDB ; overload_invalid_int_type_message
  00fbd	51		 push	 ecx
  00fbe	e8 00 00 00 00	 call	 ?process_assert@@YGXPBD0H@Z ; process_assert
  00fc3	c7 85 6c ff ff
	ff 00 00 00 00	 mov	 DWORD PTR tv681[ebp], 0
$LN108@create_tro:
  00fcd	6a 70		 push	 112			; 00000070H
  00fcf	8b 55 e4	 mov	 edx, DWORD PTR _keysite$[ebp]
  00fd2	52		 push	 edx
  00fd3	69 85 70 ff ff
	ff 5c 04 00 00	 imul	 eax, DWORD PTR tv674[ebp], 1116
  00fdd	8b 8d 6c ff ff
	ff		 mov	 ecx, DWORD PTR tv681[ebp]
  00fe3	8b 94 88 00 00
	00 00		 mov	 edx, DWORD PTR ?fn_get_local_entity_int_value@@3PAY0BBH@P6GHPAUENTITY@@W4INT_TYPES@@@ZA[eax+ecx*4]
  00fea	ff d2		 call	 edx
  00fec	85 c0		 test	 eax, eax
  00fee	0f 84 fc 01 00
	00		 je	 $LN29@create_tro

; 1847 : 						{
; 1848 : 							if (
; 1849 : 									(!entity_is_object_of_task (keysite, ENTITY_SUB_TYPE_TASK_TROOP_INSERTION, this_side))

  00ff4	8b 45 f8	 mov	 eax, DWORD PTR _this_side$[ebp]
  00ff7	50		 push	 eax
  00ff8	6a 1a		 push	 26			; 0000001aH
  00ffa	8b 4d e4	 mov	 ecx, DWORD PTR _keysite$[ebp]
  00ffd	51		 push	 ecx
  00ffe	e8 00 00 00 00	 call	 ?entity_is_object_of_task@@YGHPAUENTITY@@HW4ENTITY_SIDES@@@Z ; entity_is_object_of_task
  01003	85 c0		 test	 eax, eax
  01005	0f 85 e5 01 00
	00		 jne	 $LN29@create_tro

; 1850 : 								)
; 1851 : 							{
; 1852 : 								priority = (target_rating [loop] / max_rating) * task_database [ENTITY_SUB_TYPE_TASK_TROOP_INSERTION].task_priority;

  0100b	8b 45 d4	 mov	 eax, DWORD PTR _loop$[ebp]
  0100e	f3 0f 10 04 85
	00 00 00 00	 movss	 xmm0, DWORD PTR ?target_rating@@3PAMA[eax*4]
  01017	f3 0f 5e 45 b8	 divss	 xmm0, DWORD PTR _max_rating$[ebp]
  0101c	b9 50 00 00 00	 mov	 ecx, 80			; 00000050H
  01021	6b d1 1a	 imul	 edx, ecx, 26
  01024	f3 0f 59 82 10
	00 00 00	 mulss	 xmm0, DWORD PTR ?task_database@@3PAUTASK_DATA@@A[edx+16]
  0102c	f3 0f 11 45 c4	 movss	 DWORD PTR _priority$[ebp], xmm0

; 1853 : 		
; 1854 : 								new_task = create_troop_insertion_task (this_side, keysite, NULL, TRUE, priority, NULL, NULL);

  01031	6a 00		 push	 0
  01033	6a 00		 push	 0
  01035	51		 push	 ecx
  01036	f3 0f 10 45 c4	 movss	 xmm0, DWORD PTR _priority$[ebp]
  0103b	f3 0f 11 04 24	 movss	 DWORD PTR [esp], xmm0
  01040	6a 01		 push	 1
  01042	6a 00		 push	 0
  01044	8b 45 e4	 mov	 eax, DWORD PTR _keysite$[ebp]
  01047	50		 push	 eax
  01048	8b 4d f8	 mov	 ecx, DWORD PTR _this_side$[ebp]
  0104b	51		 push	 ecx
  0104c	e8 00 00 00 00	 call	 ?create_troop_insertion_task@@YGPAUENTITY@@W4ENTITY_SIDES@@PAU1@1HM11@Z ; create_troop_insertion_task
  01051	89 45 e8	 mov	 DWORD PTR _new_task$[ebp], eax

; 1855 : 		
; 1856 : 								if (new_task)

  01054	83 7d e8 00	 cmp	 DWORD PTR _new_task$[ebp], 0
  01058	0f 84 92 01 00
	00		 je	 $LN29@create_tro

; 1857 : 								{
; 1858 : 									ai_log ("(TASK) %s TROOP INSERTION #%d (%d) - Target %s : Rating %f - CREATED (Priority %f)",

  0105e	83 7d e4 00	 cmp	 DWORD PTR _keysite$[ebp], 0
  01062	74 0d		 je	 SHORT $LN109@create_tro
  01064	8b 45 e4	 mov	 eax, DWORD PTR _keysite$[ebp]
  01067	8b 08		 mov	 ecx, DWORD PTR [eax]
  01069	89 8d 70 ff ff
	ff		 mov	 DWORD PTR tv721[ebp], ecx
  0106f	eb 27		 jmp	 SHORT $LN110@create_tro
$LN109@create_tro:
  01071	8b 15 00 00 00
	00		 mov	 edx, DWORD PTR ?__LINE__Var@?0??create_troop_insertion_tasks@@YGXXZ@4JA
  01077	81 c2 cf 00 00
	00		 add	 edx, 207		; 000000cfH
  0107d	52		 push	 edx
  0107e	68 00 00 00 00	 push	 OFFSET ??_C@_0ED@GMECMFKH@c?3?2users?2nhv90?2projects?2eech?2ap@
  01083	a1 00 00 00 00	 mov	 eax, DWORD PTR ?null_entity_pointer_message@@3PBDB ; null_entity_pointer_message
  01088	50		 push	 eax
  01089	e8 00 00 00 00	 call	 ?process_assert@@YGXPBD0H@Z ; process_assert
  0108e	c7 85 70 ff ff
	ff 00 00 00 00	 mov	 DWORD PTR tv721[ebp], 0
$LN110@create_tro:
  01098	b9 01 00 00 00	 mov	 ecx, 1
  0109d	85 c9		 test	 ecx, ecx
  0109f	74 0c		 je	 SHORT $LN111@create_tro
  010a1	c7 85 6c ff ff
	ff 07 00 00 00	 mov	 DWORD PTR tv729[ebp], 7
  010ab	eb 27		 jmp	 SHORT $LN112@create_tro
$LN111@create_tro:
  010ad	8b 15 00 00 00
	00		 mov	 edx, DWORD PTR ?__LINE__Var@?0??create_troop_insertion_tasks@@YGXXZ@4JA
  010b3	81 c2 cf 00 00
	00		 add	 edx, 207		; 000000cfH
  010b9	52		 push	 edx
  010ba	68 00 00 00 00	 push	 OFFSET ??_C@_0ED@GMECMFKH@c?3?2users?2nhv90?2projects?2eech?2ap@
  010bf	a1 00 00 00 00	 mov	 eax, DWORD PTR ?overload_invalid_string_type_message@@3PBDB ; overload_invalid_string_type_message
  010c4	50		 push	 eax
  010c5	e8 00 00 00 00	 call	 ?process_assert@@YGXPBD0H@Z ; process_assert
  010ca	c7 85 6c ff ff
	ff 00 00 00 00	 mov	 DWORD PTR tv729[ebp], 0
$LN112@create_tro:
  010d4	83 7d e8 00	 cmp	 DWORD PTR _new_task$[ebp], 0
  010d8	74 14		 je	 SHORT $LN113@create_tro
  010da	8b 4d e8	 mov	 ecx, DWORD PTR _new_task$[ebp]
  010dd	2b 0d 00 00 00
	00		 sub	 ecx, DWORD PTR ?entities@@3PAUENTITY@@A ; entities
  010e3	c1 f9 04	 sar	 ecx, 4
  010e6	89 8d 68 ff ff
	ff		 mov	 DWORD PTR tv739[ebp], ecx
  010ec	eb 0a		 jmp	 SHORT $LN114@create_tro
$LN113@create_tro:
  010ee	c7 85 68 ff ff
	ff ff ff ff ff	 mov	 DWORD PTR tv739[ebp], -1
$LN114@create_tro:
  010f8	83 7d e8 00	 cmp	 DWORD PTR _new_task$[ebp], 0
  010fc	74 0d		 je	 SHORT $LN115@create_tro
  010fe	8b 55 e8	 mov	 edx, DWORD PTR _new_task$[ebp]
  01101	8b 02		 mov	 eax, DWORD PTR [edx]
  01103	89 85 64 ff ff
	ff		 mov	 DWORD PTR tv747[ebp], eax
  01109	eb 28		 jmp	 SHORT $LN116@create_tro
$LN115@create_tro:
  0110b	8b 0d 00 00 00
	00		 mov	 ecx, DWORD PTR ?__LINE__Var@?0??create_troop_insertion_tasks@@YGXXZ@4JA
  01111	81 c1 cd 00 00
	00		 add	 ecx, 205		; 000000cdH
  01117	51		 push	 ecx
  01118	68 00 00 00 00	 push	 OFFSET ??_C@_0ED@GMECMFKH@c?3?2users?2nhv90?2projects?2eech?2ap@
  0111d	8b 15 00 00 00
	00		 mov	 edx, DWORD PTR ?null_entity_pointer_message@@3PBDB ; null_entity_pointer_message
  01123	52		 push	 edx
  01124	e8 00 00 00 00	 call	 ?process_assert@@YGXPBD0H@Z ; process_assert
  01129	c7 85 64 ff ff
	ff 00 00 00 00	 mov	 DWORD PTR tv747[ebp], 0
$LN116@create_tro:
  01133	b8 01 00 00 00	 mov	 eax, 1
  01138	85 c0		 test	 eax, eax
  0113a	74 0c		 je	 SHORT $LN117@create_tro
  0113c	c7 85 60 ff ff
	ff dc 00 00 00	 mov	 DWORD PTR tv755[ebp], 220 ; 000000dcH
  01146	eb 28		 jmp	 SHORT $LN118@create_tro
$LN117@create_tro:
  01148	8b 0d 00 00 00
	00		 mov	 ecx, DWORD PTR ?__LINE__Var@?0??create_troop_insertion_tasks@@YGXXZ@4JA
  0114e	81 c1 cd 00 00
	00		 add	 ecx, 205		; 000000cdH
  01154	51		 push	 ecx
  01155	68 00 00 00 00	 push	 OFFSET ??_C@_0ED@GMECMFKH@c?3?2users?2nhv90?2projects?2eech?2ap@
  0115a	8b 15 00 00 00
	00		 mov	 edx, DWORD PTR ?overload_invalid_int_type_message@@3PBDB ; overload_invalid_int_type_message
  01160	52		 push	 edx
  01161	e8 00 00 00 00	 call	 ?process_assert@@YGXPBD0H@Z ; process_assert
  01166	c7 85 60 ff ff
	ff 00 00 00 00	 mov	 DWORD PTR tv755[ebp], 0
$LN118@create_tro:
  01170	f3 0f 5a 45 c4	 cvtss2sd xmm0, DWORD PTR _priority$[ebp]
  01175	83 ec 08	 sub	 esp, 8
  01178	f2 0f 11 04 24	 movsd	 QWORD PTR [esp], xmm0
  0117d	8b 45 d4	 mov	 eax, DWORD PTR _loop$[ebp]
  01180	f3 0f 5a 04 85
	00 00 00 00	 cvtss2sd xmm0, DWORD PTR ?target_rating@@3PAMA[eax*4]
  01189	83 ec 08	 sub	 esp, 8
  0118c	f2 0f 11 04 24	 movsd	 QWORD PTR [esp], xmm0
  01191	6a 07		 push	 7
  01193	8b 4d e4	 mov	 ecx, DWORD PTR _keysite$[ebp]
  01196	51		 push	 ecx
  01197	6b 95 70 ff ff
	ff 34		 imul	 edx, DWORD PTR tv721[ebp], 52
  0119e	8b 85 6c ff ff
	ff		 mov	 eax, DWORD PTR tv729[ebp]
  011a4	8b 8c 82 00 00
	00 00		 mov	 ecx, DWORD PTR ?fn_get_local_entity_string@@3PAY0N@P6GPBDPAUENTITY@@W4STRING_TYPES@@@ZA[edx+eax*4]
  011ab	ff d1		 call	 ecx
  011ad	50		 push	 eax
  011ae	8b 95 68 ff ff
	ff		 mov	 edx, DWORD PTR tv739[ebp]
  011b4	52		 push	 edx
  011b5	68 dc 00 00 00	 push	 220			; 000000dcH
  011ba	8b 45 e8	 mov	 eax, DWORD PTR _new_task$[ebp]
  011bd	50		 push	 eax
  011be	69 8d 64 ff ff
	ff 5c 04 00 00	 imul	 ecx, DWORD PTR tv747[ebp], 1116
  011c8	8b 95 60 ff ff
	ff		 mov	 edx, DWORD PTR tv755[ebp]
  011ce	8b 84 91 00 00
	00 00		 mov	 eax, DWORD PTR ?fn_get_local_entity_int_value@@3PAY0BBH@P6GHPAUENTITY@@W4INT_TYPES@@@ZA[ecx+edx*4]
  011d5	ff d0		 call	 eax
  011d7	50		 push	 eax
  011d8	8b 4d f8	 mov	 ecx, DWORD PTR _this_side$[ebp]
  011db	8b 14 8d 00 00
	00 00		 mov	 edx, DWORD PTR ?entity_side_short_names@@3PAPBDA[ecx*4]
  011e2	52		 push	 edx
  011e3	68 00 00 00 00	 push	 OFFSET ??_C@_0FD@NLNDEGBN@?$CITASK?$CJ?5?$CFs?5TROOP?5INSERTION?5?$CD?$CFd?5?$CI@
  011e8	e8 00 00 00 00	 call	 ?ai_log@@YAXPBDZZ	; ai_log
  011ed	83 c4 24	 add	 esp, 36			; 00000024H
$LN29@create_tro:

; 1859 : 												entity_side_short_names [this_side],
; 1860 : 												get_local_entity_int_value (new_task, INT_TYPE_TASK_ID),
; 1861 : 												get_local_entity_safe_index (new_task),
; 1862 : 												get_local_entity_string (keysite, STRING_TYPE_KEYSITE_NAME),
; 1863 : 												target_rating [loop], priority);
; 1864 : 								}
; 1865 : 							}
; 1866 : 						}
; 1867 : 					}
; 1868 : 				}
; 1869 : 			}

  011f0	e9 ab f8 ff ff	 jmp	 $LN8@create_tro
$LN9@create_tro:

; 1870 : 		}
; 1871 : 
; 1872 : 		//
; 1873 : 		// Next force
; 1874 : 		//
; 1875 : 	
; 1876 : 		force = get_local_entity_child_succ (force, LIST_TYPE_FORCE);

  011f5	83 7d f4 00	 cmp	 DWORD PTR _force$[ebp], 0
  011f9	74 0d		 je	 SHORT $LN119@create_tro
  011fb	8b 45 f4	 mov	 eax, DWORD PTR _force$[ebp]
  011fe	8b 08		 mov	 ecx, DWORD PTR [eax]
  01200	89 8d 70 ff ff
	ff		 mov	 DWORD PTR tv772[ebp], ecx
  01206	eb 27		 jmp	 SHORT $LN120@create_tro
$LN119@create_tro:
  01208	8b 15 00 00 00
	00		 mov	 edx, DWORD PTR ?__LINE__Var@?0??create_troop_insertion_tasks@@YGXXZ@4JA
  0120e	81 c2 dd 00 00
	00		 add	 edx, 221		; 000000ddH
  01214	52		 push	 edx
  01215	68 00 00 00 00	 push	 OFFSET ??_C@_0ED@GMECMFKH@c?3?2users?2nhv90?2projects?2eech?2ap@
  0121a	a1 00 00 00 00	 mov	 eax, DWORD PTR ?null_entity_pointer_message@@3PBDB ; null_entity_pointer_message
  0121f	50		 push	 eax
  01220	e8 00 00 00 00	 call	 ?process_assert@@YGXPBD0H@Z ; process_assert
  01225	c7 85 70 ff ff
	ff 00 00 00 00	 mov	 DWORD PTR tv772[ebp], 0
$LN120@create_tro:
  0122f	b9 01 00 00 00	 mov	 ecx, 1
  01234	85 c9		 test	 ecx, ecx
  01236	74 0c		 je	 SHORT $LN121@create_tro
  01238	c7 85 6c ff ff
	ff 0e 00 00 00	 mov	 DWORD PTR tv780[ebp], 14 ; 0000000eH
  01242	eb 27		 jmp	 SHORT $LN122@create_tro
$LN121@create_tro:
  01244	8b 15 00 00 00
	00		 mov	 edx, DWORD PTR ?__LINE__Var@?0??create_troop_insertion_tasks@@YGXXZ@4JA
  0124a	81 c2 dd 00 00
	00		 add	 edx, 221		; 000000ddH
  01250	52		 push	 edx
  01251	68 00 00 00 00	 push	 OFFSET ??_C@_0ED@GMECMFKH@c?3?2users?2nhv90?2projects?2eech?2ap@
  01256	a1 00 00 00 00	 mov	 eax, DWORD PTR ?overload_invalid_list_type_message@@3PBDB ; overload_invalid_list_type_message
  0125b	50		 push	 eax
  0125c	e8 00 00 00 00	 call	 ?process_assert@@YGXPBD0H@Z ; process_assert
  01261	c7 85 6c ff ff
	ff 00 00 00 00	 mov	 DWORD PTR tv780[ebp], 0
$LN122@create_tro:
  0126b	6a 0e		 push	 14			; 0000000eH
  0126d	8b 4d f4	 mov	 ecx, DWORD PTR _force$[ebp]
  01270	51		 push	 ecx
  01271	69 95 70 ff ff
	ff b4 00 00 00	 imul	 edx, DWORD PTR tv772[ebp], 180
  0127b	8b 85 6c ff ff
	ff		 mov	 eax, DWORD PTR tv780[ebp]
  01281	8b 8c 82 00 00
	00 00		 mov	 ecx, DWORD PTR ?fn_get_local_entity_child_succ@@3PAY0CN@P6GPAUENTITY@@PAU1@W4LIST_TYPES@@@ZA[edx+eax*4]
  01288	ff d1		 call	 ecx
  0128a	89 45 f4	 mov	 DWORD PTR _force$[ebp], eax

; 1877 : 	}

  0128d	e9 5c ee ff ff	 jmp	 $LN2@create_tro
$LN3@create_tro:

; 1878 : }

  01292	5f		 pop	 edi
  01293	5e		 pop	 esi
  01294	5b		 pop	 ebx
  01295	8b e5		 mov	 esp, ebp
  01297	5d		 pop	 ebp
  01298	c3		 ret	 0
?create_troop_insertion_tasks@@YGXXZ ENDP		; create_troop_insertion_tasks
_TEXT	ENDS
; Function compile flags: /Odtp /ZI
; File c:\users\nhv90\projects\eech\aphavoc\source\ai\highlevl\highlevl.c
;	COMDAT ?create_oca_sweep_tasks@@YGXXZ
_TEXT	SEGMENT
tv866 = -168						; size = 8
tv926 = -160						; size = 8
tv570 = -156						; size = 4
tv858 = -152						; size = 8
tv562 = -152						; size = 4
tv554 = -148						; size = 4
tv777 = -144						; size = 8
tv768 = -144						; size = 8
tv758 = -144						; size = 8
tv627 = -144						; size = 4
tv544 = -144						; size = 4
tv484 = -144						; size = 4
tv462 = -144						; size = 4
tv437 = -144						; size = 4
tv386 = -144						; size = 4
tv366 = -144						; size = 4
tv299 = -144						; size = 4
tv268 = -144						; size = 4
tv247 = -144						; size = 4
tv228 = -144						; size = 4
tv208 = -144						; size = 4
tv187 = -144						; size = 4
tv165 = -144						; size = 4
tv145 = -144						; size = 4
tv86 = -144						; size = 4
tv619 = -140						; size = 4
tv536 = -140						; size = 4
tv477 = -140						; size = 4
tv454 = -140						; size = 4
tv429 = -140						; size = 4
tv378 = -140						; size = 4
tv358 = -140						; size = 4
tv291 = -140						; size = 4
tv260 = -140						; size = 4
tv240 = -140						; size = 4
tv221 = -140						; size = 4
tv200 = -140						; size = 4
tv179 = -140						; size = 4
tv157 = -140						; size = 4
tv137 = -140						; size = 4
tv78 = -140						; size = 4
$T1 = -136						; size = 4
_max_rating$ = -68					; size = 4
_ratio$ = -64						; size = 4
_rating$ = -60						; size = 4
_priority$ = -56					; size = 4
_keysite_type$ = -52					; size = 4
_count$ = -48						; size = 4
_loop$ = -44						; size = 4
_z$ = -40						; size = 4
_x$ = -36						; size = 4
_pos$ = -32						; size = 4
_keysite$ = -28						; size = 4
_new_task$ = -24					; size = 4
_target_force$ = -20					; size = 4
_sector$ = -16						; size = 4
_force$ = -12						; size = 4
_this_side$ = -8					; size = 4
_side$ = -4						; size = 4
?create_oca_sweep_tasks@@YGXXZ PROC			; create_oca_sweep_tasks, COMDAT

; 1469 : {

  00000	55		 push	 ebp
  00001	8b ec		 mov	 ebp, esp
  00003	81 ec a8 00 00
	00		 sub	 esp, 168		; 000000a8H
  00009	53		 push	 ebx
  0000a	56		 push	 esi
  0000b	57		 push	 edi

; 1470 : 	entity_sides
; 1471 : 		side,
; 1472 : 		this_side;
; 1473 : 
; 1474 : 	entity
; 1475 : 		*force,
; 1476 : 		*sector,
; 1477 : 		*target_force,
; 1478 : 		*new_task,
; 1479 : 		*keysite;
; 1480 : 
; 1481 : 	vec3d
; 1482 : 		*pos;
; 1483 : 
; 1484 : 	int
; 1485 : 		x,
; 1486 : 		z,
; 1487 : 		loop,
; 1488 : 		count,
; 1489 : 		keysite_type;
; 1490 : 
; 1491 : 	float
; 1492 : 		priority,
; 1493 : 		rating,
; 1494 : 		ratio,
; 1495 : 		max_rating;
; 1496 : 
; 1497 : 	ASSERT (get_comms_model () == COMMS_MODEL_SERVER);

  0000c	83 3d 00 00 00
	00 00		 cmp	 DWORD PTR ?system_comms_model@@3W4COMMS_MODEL_TYPES@@A, 0 ; system_comms_model
  00013	74 18		 je	 SHORT $LN11@create_oca
  00015	a1 00 00 00 00	 mov	 eax, DWORD PTR ?__LINE__Var@?0??create_oca_sweep_tasks@@YGXXZ@4JA
  0001a	83 c0 1c	 add	 eax, 28			; 0000001cH
  0001d	50		 push	 eax
  0001e	68 00 00 00 00	 push	 OFFSET ??_C@_0ED@GMECMFKH@c?3?2users?2nhv90?2projects?2eech?2ap@
  00023	68 00 00 00 00	 push	 OFFSET ??_C@_0CJ@DMBLBJBK@get_comms_model?5?$CI?$CJ?5?$DN?$DN?5COMMS_MOD@
  00028	e8 00 00 00 00	 call	 ?process_assert@@YGXPBD0H@Z ; process_assert
$LN11@create_oca:

; 1498 : 
; 1499 : 	ai_log ("==========================");

  0002d	68 00 00 00 00	 push	 OFFSET ??_C@_0BL@EBIHNBEK@?$DN?$DN?$DN?$DN?$DN?$DN?$DN?$DN?$DN?$DN?$DN?$DN?$DN?$DN?$DN?$DN?$DN?$DN?$DN?$DN?$DN?$DN?$DN?$DN?$DN?$DN@
  00032	e8 00 00 00 00	 call	 ?ai_log@@YAXPBDZZ	; ai_log
  00037	83 c4 04	 add	 esp, 4

; 1500 : 	ai_log ("CREATE OCA SWEEP TASKS");

  0003a	68 00 00 00 00	 push	 OFFSET ??_C@_0BH@ODOINJHA@CREATE?5OCA?5SWEEP?5TASKS@
  0003f	e8 00 00 00 00	 call	 ?ai_log@@YAXPBDZZ	; ai_log
  00044	83 c4 04	 add	 esp, 4

; 1501 : 	ai_log ("--------------------------");

  00047	68 00 00 00 00	 push	 OFFSET ??_C@_0BL@JMBEPNBE@?9?9?9?9?9?9?9?9?9?9?9?9?9?9?9?9?9?9?9?9?9?9?9?9?9?9@
  0004c	e8 00 00 00 00	 call	 ?ai_log@@YAXPBDZZ	; ai_log
  00051	83 c4 04	 add	 esp, 4

; 1502 : 
; 1503 : 	force = get_local_entity_first_child (get_session_entity (), LIST_TYPE_FORCE);

  00054	83 3d 00 00 00
	00 00		 cmp	 DWORD PTR ?session_entity@@3PAUENTITY@@A, 0 ; session_entity
  0005b	74 0f		 je	 SHORT $LN25@create_oca
  0005d	a1 00 00 00 00	 mov	 eax, DWORD PTR ?session_entity@@3PAUENTITY@@A ; session_entity
  00062	8b 08		 mov	 ecx, DWORD PTR [eax]
  00064	89 8d 74 ff ff
	ff		 mov	 DWORD PTR tv78[ebp], ecx
  0006a	eb 24		 jmp	 SHORT $LN26@create_oca
$LN25@create_oca:
  0006c	8b 15 00 00 00
	00		 mov	 edx, DWORD PTR ?__LINE__Var@?0??create_oca_sweep_tasks@@YGXXZ@4JA
  00072	83 c2 22	 add	 edx, 34			; 00000022H
  00075	52		 push	 edx
  00076	68 00 00 00 00	 push	 OFFSET ??_C@_0ED@GMECMFKH@c?3?2users?2nhv90?2projects?2eech?2ap@
  0007b	a1 00 00 00 00	 mov	 eax, DWORD PTR ?null_entity_pointer_message@@3PBDB ; null_entity_pointer_message
  00080	50		 push	 eax
  00081	e8 00 00 00 00	 call	 ?process_assert@@YGXPBD0H@Z ; process_assert
  00086	c7 85 74 ff ff
	ff 00 00 00 00	 mov	 DWORD PTR tv78[ebp], 0
$LN26@create_oca:
  00090	b9 01 00 00 00	 mov	 ecx, 1
  00095	85 c9		 test	 ecx, ecx
  00097	74 0c		 je	 SHORT $LN27@create_oca
  00099	c7 85 70 ff ff
	ff 0e 00 00 00	 mov	 DWORD PTR tv86[ebp], 14	; 0000000eH
  000a3	eb 24		 jmp	 SHORT $LN28@create_oca
$LN27@create_oca:
  000a5	8b 15 00 00 00
	00		 mov	 edx, DWORD PTR ?__LINE__Var@?0??create_oca_sweep_tasks@@YGXXZ@4JA
  000ab	83 c2 22	 add	 edx, 34			; 00000022H
  000ae	52		 push	 edx
  000af	68 00 00 00 00	 push	 OFFSET ??_C@_0ED@GMECMFKH@c?3?2users?2nhv90?2projects?2eech?2ap@
  000b4	a1 00 00 00 00	 mov	 eax, DWORD PTR ?overload_invalid_list_type_message@@3PBDB ; overload_invalid_list_type_message
  000b9	50		 push	 eax
  000ba	e8 00 00 00 00	 call	 ?process_assert@@YGXPBD0H@Z ; process_assert
  000bf	c7 85 70 ff ff
	ff 00 00 00 00	 mov	 DWORD PTR tv86[ebp], 0
$LN28@create_oca:
  000c9	6a 0e		 push	 14			; 0000000eH
  000cb	8b 0d 00 00 00
	00		 mov	 ecx, DWORD PTR ?session_entity@@3PAUENTITY@@A ; session_entity
  000d1	51		 push	 ecx
  000d2	69 95 74 ff ff
	ff b4 00 00 00	 imul	 edx, DWORD PTR tv78[ebp], 180
  000dc	8b 85 70 ff ff
	ff		 mov	 eax, DWORD PTR tv86[ebp]
  000e2	8b 8c 82 00 00
	00 00		 mov	 ecx, DWORD PTR ?fn_get_local_entity_first_child@@3PAY0CN@P6GPAUENTITY@@PAU1@W4LIST_TYPES@@@ZA[edx+eax*4]
  000e9	ff d1		 call	 ecx
  000eb	89 45 f4	 mov	 DWORD PTR _force$[ebp], eax
$LN2@create_oca:

; 1504 : 
; 1505 : 	while (force)

  000ee	83 7d f4 00	 cmp	 DWORD PTR _force$[ebp], 0
  000f2	0f 84 8d 0d 00
	00		 je	 $LN3@create_oca

; 1506 : 	{
; 1507 : 		//
; 1508 : 		// for each force ( excluding our own ) spin through the list of keysites and select viable targets
; 1509 : 		//
; 1510 : 	
; 1511 : 		memset (target_list, 0, sizeof (entity *) * MAX_HIGHLEVEL_TARGET_CHECKS);

  000f8	68 80 02 00 00	 push	 640			; 00000280H
  000fd	6a 00		 push	 0
  000ff	68 00 00 00 00	 push	 OFFSET ?target_list@@3PAPAUENTITY@@A
  00104	e8 00 00 00 00	 call	 _memset
  00109	83 c4 0c	 add	 esp, 12			; 0000000cH

; 1512 : 
; 1513 : 		memset (target_rating, 0, sizeof (float) * MAX_HIGHLEVEL_TARGET_CHECKS);

  0010c	68 80 02 00 00	 push	 640			; 00000280H
  00111	6a 00		 push	 0
  00113	68 00 00 00 00	 push	 OFFSET ?target_rating@@3PAMA
  00118	e8 00 00 00 00	 call	 _memset
  0011d	83 c4 0c	 add	 esp, 12			; 0000000cH

; 1514 : 
; 1515 : 		count = 0;

  00120	c7 45 d0 00 00
	00 00		 mov	 DWORD PTR _count$[ebp], 0

; 1516 : 
; 1517 : 		this_side = (entity_sides) get_local_entity_int_value (force, INT_TYPE_SIDE);

  00127	83 7d f4 00	 cmp	 DWORD PTR _force$[ebp], 0
  0012b	74 0d		 je	 SHORT $LN29@create_oca
  0012d	8b 45 f4	 mov	 eax, DWORD PTR _force$[ebp]
  00130	8b 08		 mov	 ecx, DWORD PTR [eax]
  00132	89 8d 74 ff ff
	ff		 mov	 DWORD PTR tv137[ebp], ecx
  00138	eb 24		 jmp	 SHORT $LN30@create_oca
$LN29@create_oca:
  0013a	8b 15 00 00 00
	00		 mov	 edx, DWORD PTR ?__LINE__Var@?0??create_oca_sweep_tasks@@YGXXZ@4JA
  00140	83 c2 30	 add	 edx, 48			; 00000030H
  00143	52		 push	 edx
  00144	68 00 00 00 00	 push	 OFFSET ??_C@_0ED@GMECMFKH@c?3?2users?2nhv90?2projects?2eech?2ap@
  00149	a1 00 00 00 00	 mov	 eax, DWORD PTR ?null_entity_pointer_message@@3PBDB ; null_entity_pointer_message
  0014e	50		 push	 eax
  0014f	e8 00 00 00 00	 call	 ?process_assert@@YGXPBD0H@Z ; process_assert
  00154	c7 85 74 ff ff
	ff 00 00 00 00	 mov	 DWORD PTR tv137[ebp], 0
$LN30@create_oca:
  0015e	b9 01 00 00 00	 mov	 ecx, 1
  00163	85 c9		 test	 ecx, ecx
  00165	74 0c		 je	 SHORT $LN31@create_oca
  00167	c7 85 70 ff ff
	ff bb 00 00 00	 mov	 DWORD PTR tv145[ebp], 187 ; 000000bbH
  00171	eb 24		 jmp	 SHORT $LN32@create_oca
$LN31@create_oca:
  00173	8b 15 00 00 00
	00		 mov	 edx, DWORD PTR ?__LINE__Var@?0??create_oca_sweep_tasks@@YGXXZ@4JA
  00179	83 c2 30	 add	 edx, 48			; 00000030H
  0017c	52		 push	 edx
  0017d	68 00 00 00 00	 push	 OFFSET ??_C@_0ED@GMECMFKH@c?3?2users?2nhv90?2projects?2eech?2ap@
  00182	a1 00 00 00 00	 mov	 eax, DWORD PTR ?overload_invalid_int_type_message@@3PBDB ; overload_invalid_int_type_message
  00187	50		 push	 eax
  00188	e8 00 00 00 00	 call	 ?process_assert@@YGXPBD0H@Z ; process_assert
  0018d	c7 85 70 ff ff
	ff 00 00 00 00	 mov	 DWORD PTR tv145[ebp], 0
$LN32@create_oca:
  00197	68 bb 00 00 00	 push	 187			; 000000bbH
  0019c	8b 4d f4	 mov	 ecx, DWORD PTR _force$[ebp]
  0019f	51		 push	 ecx
  001a0	69 95 74 ff ff
	ff 5c 04 00 00	 imul	 edx, DWORD PTR tv137[ebp], 1116
  001aa	8b 85 70 ff ff
	ff		 mov	 eax, DWORD PTR tv145[ebp]
  001b0	8b 8c 82 00 00
	00 00		 mov	 ecx, DWORD PTR ?fn_get_local_entity_int_value@@3PAY0BBH@P6GHPAUENTITY@@W4INT_TYPES@@@ZA[edx+eax*4]
  001b7	ff d1		 call	 ecx
  001b9	89 45 f8	 mov	 DWORD PTR _this_side$[ebp], eax

; 1518 : 	
; 1519 : 		target_force = get_local_entity_first_child (get_session_entity(), LIST_TYPE_FORCE);

  001bc	83 3d 00 00 00
	00 00		 cmp	 DWORD PTR ?session_entity@@3PAUENTITY@@A, 0 ; session_entity
  001c3	74 0f		 je	 SHORT $LN33@create_oca
  001c5	a1 00 00 00 00	 mov	 eax, DWORD PTR ?session_entity@@3PAUENTITY@@A ; session_entity
  001ca	8b 08		 mov	 ecx, DWORD PTR [eax]
  001cc	89 8d 74 ff ff
	ff		 mov	 DWORD PTR tv157[ebp], ecx
  001d2	eb 24		 jmp	 SHORT $LN34@create_oca
$LN33@create_oca:
  001d4	8b 15 00 00 00
	00		 mov	 edx, DWORD PTR ?__LINE__Var@?0??create_oca_sweep_tasks@@YGXXZ@4JA
  001da	83 c2 32	 add	 edx, 50			; 00000032H
  001dd	52		 push	 edx
  001de	68 00 00 00 00	 push	 OFFSET ??_C@_0ED@GMECMFKH@c?3?2users?2nhv90?2projects?2eech?2ap@
  001e3	a1 00 00 00 00	 mov	 eax, DWORD PTR ?null_entity_pointer_message@@3PBDB ; null_entity_pointer_message
  001e8	50		 push	 eax
  001e9	e8 00 00 00 00	 call	 ?process_assert@@YGXPBD0H@Z ; process_assert
  001ee	c7 85 74 ff ff
	ff 00 00 00 00	 mov	 DWORD PTR tv157[ebp], 0
$LN34@create_oca:
  001f8	b9 01 00 00 00	 mov	 ecx, 1
  001fd	85 c9		 test	 ecx, ecx
  001ff	74 0c		 je	 SHORT $LN35@create_oca
  00201	c7 85 70 ff ff
	ff 0e 00 00 00	 mov	 DWORD PTR tv165[ebp], 14 ; 0000000eH
  0020b	eb 24		 jmp	 SHORT $LN36@create_oca
$LN35@create_oca:
  0020d	8b 15 00 00 00
	00		 mov	 edx, DWORD PTR ?__LINE__Var@?0??create_oca_sweep_tasks@@YGXXZ@4JA
  00213	83 c2 32	 add	 edx, 50			; 00000032H
  00216	52		 push	 edx
  00217	68 00 00 00 00	 push	 OFFSET ??_C@_0ED@GMECMFKH@c?3?2users?2nhv90?2projects?2eech?2ap@
  0021c	a1 00 00 00 00	 mov	 eax, DWORD PTR ?overload_invalid_list_type_message@@3PBDB ; overload_invalid_list_type_message
  00221	50		 push	 eax
  00222	e8 00 00 00 00	 call	 ?process_assert@@YGXPBD0H@Z ; process_assert
  00227	c7 85 70 ff ff
	ff 00 00 00 00	 mov	 DWORD PTR tv165[ebp], 0
$LN36@create_oca:
  00231	6a 0e		 push	 14			; 0000000eH
  00233	8b 0d 00 00 00
	00		 mov	 ecx, DWORD PTR ?session_entity@@3PAUENTITY@@A ; session_entity
  00239	51		 push	 ecx
  0023a	69 95 74 ff ff
	ff b4 00 00 00	 imul	 edx, DWORD PTR tv157[ebp], 180
  00244	8b 85 70 ff ff
	ff		 mov	 eax, DWORD PTR tv165[ebp]
  0024a	8b 8c 82 00 00
	00 00		 mov	 ecx, DWORD PTR ?fn_get_local_entity_first_child@@3PAY0CN@P6GPAUENTITY@@PAU1@W4LIST_TYPES@@@ZA[edx+eax*4]
  00251	ff d1		 call	 ecx
  00253	89 45 ec	 mov	 DWORD PTR _target_force$[ebp], eax
$LN4@create_oca:

; 1520 : 	
; 1521 : 		while ((target_force) && (count < MAX_HIGHLEVEL_TARGET_CHECKS))

  00256	83 7d ec 00	 cmp	 DWORD PTR _target_force$[ebp], 0
  0025a	0f 84 44 06 00
	00		 je	 $LN5@create_oca
  00260	81 7d d0 a0 00
	00 00		 cmp	 DWORD PTR _count$[ebp], 160 ; 000000a0H
  00267	0f 8d 37 06 00
	00		 jge	 $LN5@create_oca

; 1522 : 		{
; 1523 : 			side = (entity_sides) get_local_entity_int_value (target_force, INT_TYPE_SIDE);

  0026d	83 7d ec 00	 cmp	 DWORD PTR _target_force$[ebp], 0
  00271	74 0d		 je	 SHORT $LN37@create_oca
  00273	8b 45 ec	 mov	 eax, DWORD PTR _target_force$[ebp]
  00276	8b 08		 mov	 ecx, DWORD PTR [eax]
  00278	89 8d 74 ff ff
	ff		 mov	 DWORD PTR tv179[ebp], ecx
  0027e	eb 24		 jmp	 SHORT $LN38@create_oca
$LN37@create_oca:
  00280	8b 15 00 00 00
	00		 mov	 edx, DWORD PTR ?__LINE__Var@?0??create_oca_sweep_tasks@@YGXXZ@4JA
  00286	83 c2 36	 add	 edx, 54			; 00000036H
  00289	52		 push	 edx
  0028a	68 00 00 00 00	 push	 OFFSET ??_C@_0ED@GMECMFKH@c?3?2users?2nhv90?2projects?2eech?2ap@
  0028f	a1 00 00 00 00	 mov	 eax, DWORD PTR ?null_entity_pointer_message@@3PBDB ; null_entity_pointer_message
  00294	50		 push	 eax
  00295	e8 00 00 00 00	 call	 ?process_assert@@YGXPBD0H@Z ; process_assert
  0029a	c7 85 74 ff ff
	ff 00 00 00 00	 mov	 DWORD PTR tv179[ebp], 0
$LN38@create_oca:
  002a4	b9 01 00 00 00	 mov	 ecx, 1
  002a9	85 c9		 test	 ecx, ecx
  002ab	74 0c		 je	 SHORT $LN39@create_oca
  002ad	c7 85 70 ff ff
	ff bb 00 00 00	 mov	 DWORD PTR tv187[ebp], 187 ; 000000bbH
  002b7	eb 24		 jmp	 SHORT $LN40@create_oca
$LN39@create_oca:
  002b9	8b 15 00 00 00
	00		 mov	 edx, DWORD PTR ?__LINE__Var@?0??create_oca_sweep_tasks@@YGXXZ@4JA
  002bf	83 c2 36	 add	 edx, 54			; 00000036H
  002c2	52		 push	 edx
  002c3	68 00 00 00 00	 push	 OFFSET ??_C@_0ED@GMECMFKH@c?3?2users?2nhv90?2projects?2eech?2ap@
  002c8	a1 00 00 00 00	 mov	 eax, DWORD PTR ?overload_invalid_int_type_message@@3PBDB ; overload_invalid_int_type_message
  002cd	50		 push	 eax
  002ce	e8 00 00 00 00	 call	 ?process_assert@@YGXPBD0H@Z ; process_assert
  002d3	c7 85 70 ff ff
	ff 00 00 00 00	 mov	 DWORD PTR tv187[ebp], 0
$LN40@create_oca:
  002dd	68 bb 00 00 00	 push	 187			; 000000bbH
  002e2	8b 4d ec	 mov	 ecx, DWORD PTR _target_force$[ebp]
  002e5	51		 push	 ecx
  002e6	69 95 74 ff ff
	ff 5c 04 00 00	 imul	 edx, DWORD PTR tv179[ebp], 1116
  002f0	8b 85 70 ff ff
	ff		 mov	 eax, DWORD PTR tv187[ebp]
  002f6	8b 8c 82 00 00
	00 00		 mov	 ecx, DWORD PTR ?fn_get_local_entity_int_value@@3PAY0BBH@P6GHPAUENTITY@@W4INT_TYPES@@@ZA[edx+eax*4]
  002fd	ff d1		 call	 ecx
  002ff	89 45 fc	 mov	 DWORD PTR _side$[ebp], eax

; 1524 : 	
; 1525 : 			if (side != this_side)

  00302	8b 45 fc	 mov	 eax, DWORD PTR _side$[ebp]
  00305	3b 45 f8	 cmp	 eax, DWORD PTR _this_side$[ebp]
  00308	0f 84 ff 04 00
	00		 je	 $LN7@create_oca

; 1526 : 			{
; 1527 : 				keysite = get_local_entity_first_child (target_force, LIST_TYPE_KEYSITE_FORCE);

  0030e	83 7d ec 00	 cmp	 DWORD PTR _target_force$[ebp], 0
  00312	74 0d		 je	 SHORT $LN41@create_oca
  00314	8b 45 ec	 mov	 eax, DWORD PTR _target_force$[ebp]
  00317	8b 08		 mov	 ecx, DWORD PTR [eax]
  00319	89 8d 74 ff ff
	ff		 mov	 DWORD PTR tv200[ebp], ecx
  0031f	eb 24		 jmp	 SHORT $LN42@create_oca
$LN41@create_oca:
  00321	8b 15 00 00 00
	00		 mov	 edx, DWORD PTR ?__LINE__Var@?0??create_oca_sweep_tasks@@YGXXZ@4JA
  00327	83 c2 3a	 add	 edx, 58			; 0000003aH
  0032a	52		 push	 edx
  0032b	68 00 00 00 00	 push	 OFFSET ??_C@_0ED@GMECMFKH@c?3?2users?2nhv90?2projects?2eech?2ap@
  00330	a1 00 00 00 00	 mov	 eax, DWORD PTR ?null_entity_pointer_message@@3PBDB ; null_entity_pointer_message
  00335	50		 push	 eax
  00336	e8 00 00 00 00	 call	 ?process_assert@@YGXPBD0H@Z ; process_assert
  0033b	c7 85 74 ff ff
	ff 00 00 00 00	 mov	 DWORD PTR tv200[ebp], 0
$LN42@create_oca:
  00345	b9 01 00 00 00	 mov	 ecx, 1
  0034a	85 c9		 test	 ecx, ecx
  0034c	74 0c		 je	 SHORT $LN43@create_oca
  0034e	c7 85 70 ff ff
	ff 15 00 00 00	 mov	 DWORD PTR tv208[ebp], 21 ; 00000015H
  00358	eb 24		 jmp	 SHORT $LN44@create_oca
$LN43@create_oca:
  0035a	8b 15 00 00 00
	00		 mov	 edx, DWORD PTR ?__LINE__Var@?0??create_oca_sweep_tasks@@YGXXZ@4JA
  00360	83 c2 3a	 add	 edx, 58			; 0000003aH
  00363	52		 push	 edx
  00364	68 00 00 00 00	 push	 OFFSET ??_C@_0ED@GMECMFKH@c?3?2users?2nhv90?2projects?2eech?2ap@
  00369	a1 00 00 00 00	 mov	 eax, DWORD PTR ?overload_invalid_list_type_message@@3PBDB ; overload_invalid_list_type_message
  0036e	50		 push	 eax
  0036f	e8 00 00 00 00	 call	 ?process_assert@@YGXPBD0H@Z ; process_assert
  00374	c7 85 70 ff ff
	ff 00 00 00 00	 mov	 DWORD PTR tv208[ebp], 0
$LN44@create_oca:
  0037e	6a 15		 push	 21			; 00000015H
  00380	8b 4d ec	 mov	 ecx, DWORD PTR _target_force$[ebp]
  00383	51		 push	 ecx
  00384	69 95 74 ff ff
	ff b4 00 00 00	 imul	 edx, DWORD PTR tv200[ebp], 180
  0038e	8b 85 70 ff ff
	ff		 mov	 eax, DWORD PTR tv208[ebp]
  00394	8b 8c 82 00 00
	00 00		 mov	 ecx, DWORD PTR ?fn_get_local_entity_first_child@@3PAY0CN@P6GPAUENTITY@@PAU1@W4LIST_TYPES@@@ZA[edx+eax*4]
  0039b	ff d1		 call	 ecx
  0039d	89 45 e4	 mov	 DWORD PTR _keysite$[ebp], eax
$LN6@create_oca:

; 1528 : 	
; 1529 : 				while ((keysite) && (count < MAX_HIGHLEVEL_TARGET_CHECKS))

  003a0	83 7d e4 00	 cmp	 DWORD PTR _keysite$[ebp], 0
  003a4	0f 84 63 04 00
	00		 je	 $LN7@create_oca
  003aa	81 7d d0 a0 00
	00 00		 cmp	 DWORD PTR _count$[ebp], 160 ; 000000a0H
  003b1	0f 8d 56 04 00
	00		 jge	 $LN7@create_oca

; 1530 : 				{
; 1531 : 					if ((get_local_entity_int_value (keysite, INT_TYPE_IN_USE)) && (get_local_entity_int_value (keysite, INT_TYPE_ALIVE)))

  003b7	83 7d e4 00	 cmp	 DWORD PTR _keysite$[ebp], 0
  003bb	74 0d		 je	 SHORT $LN45@create_oca
  003bd	8b 45 e4	 mov	 eax, DWORD PTR _keysite$[ebp]
  003c0	8b 08		 mov	 ecx, DWORD PTR [eax]
  003c2	89 8d 74 ff ff
	ff		 mov	 DWORD PTR tv221[ebp], ecx
  003c8	eb 20		 jmp	 SHORT $LN46@create_oca
$LN45@create_oca:
  003ca	68 fb 05 00 00	 push	 1531			; 000005fbH
  003cf	68 00 00 00 00	 push	 OFFSET ??_C@_0ED@GMECMFKH@c?3?2users?2nhv90?2projects?2eech?2ap@
  003d4	8b 15 00 00 00
	00		 mov	 edx, DWORD PTR ?null_entity_pointer_message@@3PBDB ; null_entity_pointer_message
  003da	52		 push	 edx
  003db	e8 00 00 00 00	 call	 ?process_assert@@YGXPBD0H@Z ; process_assert
  003e0	c7 85 74 ff ff
	ff 00 00 00 00	 mov	 DWORD PTR tv221[ebp], 0
$LN46@create_oca:
  003ea	b8 01 00 00 00	 mov	 eax, 1
  003ef	85 c0		 test	 eax, eax
  003f1	74 0c		 je	 SHORT $LN47@create_oca
  003f3	c7 85 70 ff ff
	ff 6d 00 00 00	 mov	 DWORD PTR tv228[ebp], 109 ; 0000006dH
  003fd	eb 20		 jmp	 SHORT $LN48@create_oca
$LN47@create_oca:
  003ff	68 fb 05 00 00	 push	 1531			; 000005fbH
  00404	68 00 00 00 00	 push	 OFFSET ??_C@_0ED@GMECMFKH@c?3?2users?2nhv90?2projects?2eech?2ap@
  00409	8b 0d 00 00 00
	00		 mov	 ecx, DWORD PTR ?overload_invalid_int_type_message@@3PBDB ; overload_invalid_int_type_message
  0040f	51		 push	 ecx
  00410	e8 00 00 00 00	 call	 ?process_assert@@YGXPBD0H@Z ; process_assert
  00415	c7 85 70 ff ff
	ff 00 00 00 00	 mov	 DWORD PTR tv228[ebp], 0
$LN48@create_oca:
  0041f	6a 6d		 push	 109			; 0000006dH
  00421	8b 55 e4	 mov	 edx, DWORD PTR _keysite$[ebp]
  00424	52		 push	 edx
  00425	69 85 74 ff ff
	ff 5c 04 00 00	 imul	 eax, DWORD PTR tv221[ebp], 1116
  0042f	8b 8d 70 ff ff
	ff		 mov	 ecx, DWORD PTR tv228[ebp]
  00435	8b 94 88 00 00
	00 00		 mov	 edx, DWORD PTR ?fn_get_local_entity_int_value@@3PAY0BBH@P6GHPAUENTITY@@W4INT_TYPES@@@ZA[eax+ecx*4]
  0043c	ff d2		 call	 edx
  0043e	85 c0		 test	 eax, eax
  00440	0f 84 30 03 00
	00		 je	 $LN16@create_oca
  00446	83 7d e4 00	 cmp	 DWORD PTR _keysite$[ebp], 0
  0044a	74 0d		 je	 SHORT $LN49@create_oca
  0044c	8b 45 e4	 mov	 eax, DWORD PTR _keysite$[ebp]
  0044f	8b 08		 mov	 ecx, DWORD PTR [eax]
  00451	89 8d 74 ff ff
	ff		 mov	 DWORD PTR tv240[ebp], ecx
  00457	eb 20		 jmp	 SHORT $LN50@create_oca
$LN49@create_oca:
  00459	68 fb 05 00 00	 push	 1531			; 000005fbH
  0045e	68 00 00 00 00	 push	 OFFSET ??_C@_0ED@GMECMFKH@c?3?2users?2nhv90?2projects?2eech?2ap@
  00463	8b 15 00 00 00
	00		 mov	 edx, DWORD PTR ?null_entity_pointer_message@@3PBDB ; null_entity_pointer_message
  00469	52		 push	 edx
  0046a	e8 00 00 00 00	 call	 ?process_assert@@YGXPBD0H@Z ; process_assert
  0046f	c7 85 74 ff ff
	ff 00 00 00 00	 mov	 DWORD PTR tv240[ebp], 0
$LN50@create_oca:
  00479	b8 01 00 00 00	 mov	 eax, 1
  0047e	85 c0		 test	 eax, eax
  00480	74 0c		 je	 SHORT $LN51@create_oca
  00482	c7 85 70 ff ff
	ff 07 00 00 00	 mov	 DWORD PTR tv247[ebp], 7
  0048c	eb 20		 jmp	 SHORT $LN52@create_oca
$LN51@create_oca:
  0048e	68 fb 05 00 00	 push	 1531			; 000005fbH
  00493	68 00 00 00 00	 push	 OFFSET ??_C@_0ED@GMECMFKH@c?3?2users?2nhv90?2projects?2eech?2ap@
  00498	8b 0d 00 00 00
	00		 mov	 ecx, DWORD PTR ?overload_invalid_int_type_message@@3PBDB ; overload_invalid_int_type_message
  0049e	51		 push	 ecx
  0049f	e8 00 00 00 00	 call	 ?process_assert@@YGXPBD0H@Z ; process_assert
  004a4	c7 85 70 ff ff
	ff 00 00 00 00	 mov	 DWORD PTR tv247[ebp], 0
$LN52@create_oca:
  004ae	6a 07		 push	 7
  004b0	8b 55 e4	 mov	 edx, DWORD PTR _keysite$[ebp]
  004b3	52		 push	 edx
  004b4	69 85 74 ff ff
	ff 5c 04 00 00	 imul	 eax, DWORD PTR tv240[ebp], 1116
  004be	8b 8d 70 ff ff
	ff		 mov	 ecx, DWORD PTR tv247[ebp]
  004c4	8b 94 88 00 00
	00 00		 mov	 edx, DWORD PTR ?fn_get_local_entity_int_value@@3PAY0BBH@P6GHPAUENTITY@@W4INT_TYPES@@@ZA[eax+ecx*4]
  004cb	ff d2		 call	 edx
  004cd	85 c0		 test	 eax, eax
  004cf	0f 84 a1 02 00
	00		 je	 $LN16@create_oca

; 1532 : 					{
; 1533 : 						keysite_type = get_local_entity_int_value (keysite, INT_TYPE_ENTITY_SUB_TYPE);

  004d5	83 7d e4 00	 cmp	 DWORD PTR _keysite$[ebp], 0
  004d9	74 0d		 je	 SHORT $LN53@create_oca
  004db	8b 45 e4	 mov	 eax, DWORD PTR _keysite$[ebp]
  004de	8b 08		 mov	 ecx, DWORD PTR [eax]
  004e0	89 8d 74 ff ff
	ff		 mov	 DWORD PTR tv260[ebp], ecx
  004e6	eb 24		 jmp	 SHORT $LN54@create_oca
$LN53@create_oca:
  004e8	8b 15 00 00 00
	00		 mov	 edx, DWORD PTR ?__LINE__Var@?0??create_oca_sweep_tasks@@YGXXZ@4JA
  004ee	83 c2 40	 add	 edx, 64			; 00000040H
  004f1	52		 push	 edx
  004f2	68 00 00 00 00	 push	 OFFSET ??_C@_0ED@GMECMFKH@c?3?2users?2nhv90?2projects?2eech?2ap@
  004f7	a1 00 00 00 00	 mov	 eax, DWORD PTR ?null_entity_pointer_message@@3PBDB ; null_entity_pointer_message
  004fc	50		 push	 eax
  004fd	e8 00 00 00 00	 call	 ?process_assert@@YGXPBD0H@Z ; process_assert
  00502	c7 85 74 ff ff
	ff 00 00 00 00	 mov	 DWORD PTR tv260[ebp], 0
$LN54@create_oca:
  0050c	b9 01 00 00 00	 mov	 ecx, 1
  00511	85 c9		 test	 ecx, ecx
  00513	74 0c		 je	 SHORT $LN55@create_oca
  00515	c7 85 70 ff ff
	ff 34 00 00 00	 mov	 DWORD PTR tv268[ebp], 52 ; 00000034H
  0051f	eb 24		 jmp	 SHORT $LN56@create_oca
$LN55@create_oca:
  00521	8b 15 00 00 00
	00		 mov	 edx, DWORD PTR ?__LINE__Var@?0??create_oca_sweep_tasks@@YGXXZ@4JA
  00527	83 c2 40	 add	 edx, 64			; 00000040H
  0052a	52		 push	 edx
  0052b	68 00 00 00 00	 push	 OFFSET ??_C@_0ED@GMECMFKH@c?3?2users?2nhv90?2projects?2eech?2ap@
  00530	a1 00 00 00 00	 mov	 eax, DWORD PTR ?overload_invalid_int_type_message@@3PBDB ; overload_invalid_int_type_message
  00535	50		 push	 eax
  00536	e8 00 00 00 00	 call	 ?process_assert@@YGXPBD0H@Z ; process_assert
  0053b	c7 85 70 ff ff
	ff 00 00 00 00	 mov	 DWORD PTR tv268[ebp], 0
$LN56@create_oca:
  00545	6a 34		 push	 52			; 00000034H
  00547	8b 4d e4	 mov	 ecx, DWORD PTR _keysite$[ebp]
  0054a	51		 push	 ecx
  0054b	69 95 74 ff ff
	ff 5c 04 00 00	 imul	 edx, DWORD PTR tv260[ebp], 1116
  00555	8b 85 70 ff ff
	ff		 mov	 eax, DWORD PTR tv268[ebp]
  0055b	8b 8c 82 00 00
	00 00		 mov	 ecx, DWORD PTR ?fn_get_local_entity_int_value@@3PAY0BBH@P6GHPAUENTITY@@W4INT_TYPES@@@ZA[edx+eax*4]
  00562	ff d1		 call	 ecx
  00564	89 45 cc	 mov	 DWORD PTR _keysite_type$[ebp], eax

; 1534 : 
; 1535 : 						if (keysite_database [keysite_type].oca_target) 

  00567	6b 45 cc 44	 imul	 eax, DWORD PTR _keysite_type$[ebp], 68
  0056b	8b 88 40 00 00
	00		 mov	 ecx, DWORD PTR ?keysite_database@@3PAUKEYSITE_DATA@@A[eax+64]
  00571	c1 e9 08	 shr	 ecx, 8
  00574	83 e1 01	 and	 ecx, 1
  00577	0f 84 f9 01 00
	00		 je	 $LN16@create_oca

; 1536 : 						{
; 1537 : 							ASSERT (count < MAX_HIGHLEVEL_TARGET_CHECKS);

  0057d	81 7d d0 a0 00
	00 00		 cmp	 DWORD PTR _count$[ebp], 160 ; 000000a0H
  00584	7c 18		 jl	 SHORT $LN15@create_oca
  00586	a1 00 00 00 00	 mov	 eax, DWORD PTR ?__LINE__Var@?0??create_oca_sweep_tasks@@YGXXZ@4JA
  0058b	83 c0 44	 add	 eax, 68			; 00000044H
  0058e	50		 push	 eax
  0058f	68 00 00 00 00	 push	 OFFSET ??_C@_0ED@GMECMFKH@c?3?2users?2nhv90?2projects?2eech?2ap@
  00594	68 00 00 00 00	 push	 OFFSET ??_C@_0CE@FGAKBBGH@count?5?$DM?5MAX_HIGHLEVEL_TARGET_CH@
  00599	e8 00 00 00 00	 call	 ?process_assert@@YGXPBD0H@Z ; process_assert
$LN15@create_oca:

; 1538 : 	
; 1539 : 							//
; 1540 : 							// get sector
; 1541 : 							//
; 1542 : 	
; 1543 : 							pos = get_local_entity_vec3d_ptr (keysite, VEC3D_TYPE_POSITION);

  0059e	83 7d e4 00	 cmp	 DWORD PTR _keysite$[ebp], 0
  005a2	74 0d		 je	 SHORT $LN57@create_oca
  005a4	8b 45 e4	 mov	 eax, DWORD PTR _keysite$[ebp]
  005a7	8b 08		 mov	 ecx, DWORD PTR [eax]
  005a9	89 8d 74 ff ff
	ff		 mov	 DWORD PTR tv291[ebp], ecx
  005af	eb 24		 jmp	 SHORT $LN58@create_oca
$LN57@create_oca:
  005b1	8b 15 00 00 00
	00		 mov	 edx, DWORD PTR ?__LINE__Var@?0??create_oca_sweep_tasks@@YGXXZ@4JA
  005b7	83 c2 4a	 add	 edx, 74			; 0000004aH
  005ba	52		 push	 edx
  005bb	68 00 00 00 00	 push	 OFFSET ??_C@_0ED@GMECMFKH@c?3?2users?2nhv90?2projects?2eech?2ap@
  005c0	a1 00 00 00 00	 mov	 eax, DWORD PTR ?null_entity_pointer_message@@3PBDB ; null_entity_pointer_message
  005c5	50		 push	 eax
  005c6	e8 00 00 00 00	 call	 ?process_assert@@YGXPBD0H@Z ; process_assert
  005cb	c7 85 74 ff ff
	ff 00 00 00 00	 mov	 DWORD PTR tv291[ebp], 0
$LN58@create_oca:
  005d5	b9 01 00 00 00	 mov	 ecx, 1
  005da	85 c9		 test	 ecx, ecx
  005dc	74 0c		 je	 SHORT $LN59@create_oca
  005de	c7 85 70 ff ff
	ff 08 00 00 00	 mov	 DWORD PTR tv299[ebp], 8
  005e8	eb 24		 jmp	 SHORT $LN60@create_oca
$LN59@create_oca:
  005ea	8b 15 00 00 00
	00		 mov	 edx, DWORD PTR ?__LINE__Var@?0??create_oca_sweep_tasks@@YGXXZ@4JA
  005f0	83 c2 4a	 add	 edx, 74			; 0000004aH
  005f3	52		 push	 edx
  005f4	68 00 00 00 00	 push	 OFFSET ??_C@_0ED@GMECMFKH@c?3?2users?2nhv90?2projects?2eech?2ap@
  005f9	a1 00 00 00 00	 mov	 eax, DWORD PTR ?overload_invalid_vec3d_type_message@@3PBDB ; overload_invalid_vec3d_type_message
  005fe	50		 push	 eax
  005ff	e8 00 00 00 00	 call	 ?process_assert@@YGXPBD0H@Z ; process_assert
  00604	c7 85 70 ff ff
	ff 00 00 00 00	 mov	 DWORD PTR tv299[ebp], 0
$LN60@create_oca:
  0060e	6a 08		 push	 8
  00610	8b 4d e4	 mov	 ecx, DWORD PTR _keysite$[ebp]
  00613	51		 push	 ecx
  00614	6b 95 74 ff ff
	ff 60		 imul	 edx, DWORD PTR tv291[ebp], 96
  0061b	8b 85 70 ff ff
	ff		 mov	 eax, DWORD PTR tv299[ebp]
  00621	8b 8c 82 00 00
	00 00		 mov	 ecx, DWORD PTR ?fn_get_local_entity_vec3d_ptr@@3PAY0BI@P6GPAUVEC3D@@PAUENTITY@@W4VEC3D_TYPES@@@ZA[edx+eax*4]
  00628	ff d1		 call	 ecx
  0062a	89 45 e0	 mov	 DWORD PTR _pos$[ebp], eax

; 1544 : 								
; 1545 : 							get_x_sector (x, pos->x);

  0062d	8d 45 dc	 lea	 eax, DWORD PTR _x$[ebp]
  00630	50		 push	 eax
  00631	8b 4d e0	 mov	 ecx, DWORD PTR _pos$[ebp]
  00634	f3 0f 10 01	 movss	 xmm0, DWORD PTR [ecx]
  00638	51		 push	 ecx
  00639	f3 0f 11 04 24	 movss	 DWORD PTR [esp], xmm0
  0063e	e8 00 00 00 00	 call	 ?convert_float_to_int@@YGXMPAH@Z ; convert_float_to_int
  00643	8b 45 dc	 mov	 eax, DWORD PTR _x$[ebp]
  00646	99		 cdq
  00647	f7 3d 00 00 00
	00		 idiv	 DWORD PTR ?world_map@@3UWORLD_MAP_DATA@@A
  0064d	89 45 dc	 mov	 DWORD PTR _x$[ebp], eax

; 1546 : 							get_z_sector (z, pos->z);

  00650	8d 45 d8	 lea	 eax, DWORD PTR _z$[ebp]
  00653	50		 push	 eax
  00654	8b 4d e0	 mov	 ecx, DWORD PTR _pos$[ebp]
  00657	f3 0f 10 41 08	 movss	 xmm0, DWORD PTR [ecx+8]
  0065c	51		 push	 ecx
  0065d	f3 0f 11 04 24	 movss	 DWORD PTR [esp], xmm0
  00662	e8 00 00 00 00	 call	 ?convert_float_to_int@@YGXMPAH@Z ; convert_float_to_int
  00667	8b 45 d8	 mov	 eax, DWORD PTR _z$[ebp]
  0066a	99		 cdq
  0066b	f7 3d 00 00 00
	00		 idiv	 DWORD PTR ?world_map@@3UWORLD_MAP_DATA@@A
  00671	89 45 d8	 mov	 DWORD PTR _z$[ebp], eax

; 1547 : 	
; 1548 : 							//
; 1549 : 							// Calculate keysite rating
; 1550 : 							//
; 1551 : 	
; 1552 : 							rating = 0.0;

  00674	0f 57 c0	 xorps	 xmm0, xmm0
  00677	f3 0f 11 45 c4	 movss	 DWORD PTR _rating$[ebp], xmm0

; 1553 : 	
; 1554 : 							// low enemy S-A threat 
; 1555 : 							rating += (1.0 * (1.0 - get_imap_value (IMAP_AIR_DEFENCE, side, x, z)));

  0067c	8b 45 d8	 mov	 eax, DWORD PTR _z$[ebp]
  0067f	50		 push	 eax
  00680	8b 4d dc	 mov	 ecx, DWORD PTR _x$[ebp]
  00683	51		 push	 ecx
  00684	8b 55 fc	 mov	 edx, DWORD PTR _side$[ebp]
  00687	52		 push	 edx
  00688	6a 02		 push	 2
  0068a	e8 00 00 00 00	 call	 ?get_imap_value@@YGMW4IMAP_TYPES@@W4ENTITY_SIDES@@HH@Z ; get_imap_value
  0068f	dd 9d 70 ff ff
	ff		 fstp	 QWORD PTR tv758[ebp]
  00695	f2 0f 10 05 00
	00 00 00	 movsd	 xmm0, QWORD PTR __real@3ff0000000000000
  0069d	f2 0f 5c 85 70
	ff ff ff	 subsd	 xmm0, QWORD PTR tv758[ebp]
  006a5	f2 0f 59 05 00
	00 00 00	 mulsd	 xmm0, QWORD PTR __real@3ff0000000000000
  006ad	f3 0f 5a 4d c4	 cvtss2sd xmm1, DWORD PTR _rating$[ebp]
  006b2	f2 0f 58 c8	 addsd	 xmm1, xmm0
  006b6	f2 0f 5a c1	 cvtsd2ss xmm0, xmm1
  006ba	f3 0f 11 45 c4	 movss	 DWORD PTR _rating$[ebp], xmm0

; 1556 : 	
; 1557 : 							// close to friendly base
; 1558 : 							rating += (4.0 * get_imap_value (IMAP_BASE_DISTANCE, this_side, x, z));

  006bf	8b 45 d8	 mov	 eax, DWORD PTR _z$[ebp]
  006c2	50		 push	 eax
  006c3	8b 4d dc	 mov	 ecx, DWORD PTR _x$[ebp]
  006c6	51		 push	 ecx
  006c7	8b 55 f8	 mov	 edx, DWORD PTR _this_side$[ebp]
  006ca	52		 push	 edx
  006cb	6a 01		 push	 1
  006cd	e8 00 00 00 00	 call	 ?get_imap_value@@YGMW4IMAP_TYPES@@W4ENTITY_SIDES@@HH@Z ; get_imap_value
  006d2	dd 9d 70 ff ff
	ff		 fstp	 QWORD PTR tv768[ebp]
  006d8	f2 0f 10 85 70
	ff ff ff	 movsd	 xmm0, QWORD PTR tv768[ebp]
  006e0	f2 0f 59 05 00
	00 00 00	 mulsd	 xmm0, QWORD PTR __real@4010000000000000
  006e8	f3 0f 5a 4d c4	 cvtss2sd xmm1, DWORD PTR _rating$[ebp]
  006ed	f2 0f 58 c8	 addsd	 xmm1, xmm0
  006f1	f2 0f 5a c1	 cvtsd2ss xmm0, xmm1
  006f5	f3 0f 11 45 c4	 movss	 DWORD PTR _rating$[ebp], xmm0

; 1559 : 
; 1560 : 							// friendly territory
; 1561 : 							rating += (2.0 * get_local_sector_side_ratio (x, z, this_side));

  006fa	8b 45 f8	 mov	 eax, DWORD PTR _this_side$[ebp]
  006fd	50		 push	 eax
  006fe	8b 4d d8	 mov	 ecx, DWORD PTR _z$[ebp]
  00701	51		 push	 ecx
  00702	8b 55 dc	 mov	 edx, DWORD PTR _x$[ebp]
  00705	52		 push	 edx
  00706	e8 00 00 00 00	 call	 ?get_local_sector_side_ratio@@YGMHHW4ENTITY_SIDES@@@Z ; get_local_sector_side_ratio
  0070b	dd 9d 70 ff ff
	ff		 fstp	 QWORD PTR tv777[ebp]
  00711	f2 0f 10 85 70
	ff ff ff	 movsd	 xmm0, QWORD PTR tv777[ebp]
  00719	f2 0f 59 05 00
	00 00 00	 mulsd	 xmm0, QWORD PTR __real@4000000000000000
  00721	f3 0f 5a 4d c4	 cvtss2sd xmm1, DWORD PTR _rating$[ebp]
  00726	f2 0f 58 c8	 addsd	 xmm1, xmm0
  0072a	f2 0f 5a c1	 cvtsd2ss xmm0, xmm1
  0072e	f3 0f 11 45 c4	 movss	 DWORD PTR _rating$[ebp], xmm0

; 1562 : 
; 1563 : 							max_rating = 7.0;

  00733	f3 0f 10 05 00
	00 00 00	 movss	 xmm0, DWORD PTR __real@40e00000
  0073b	f3 0f 11 45 bc	 movss	 DWORD PTR _max_rating$[ebp], xmm0

; 1564 : 
; 1565 : 							//
; 1566 : 							// Store
; 1567 : 							//
; 1568 : 	
; 1569 : 							if (rating > 0.0)

  00740	f3 0f 5a 45 c4	 cvtss2sd xmm0, DWORD PTR _rating$[ebp]
  00745	66 0f 2f 05 00
	00 00 00	 comisd	 xmm0, QWORD PTR __real@0000000000000000
  0074d	76 27		 jbe	 SHORT $LN16@create_oca

; 1570 : 							{
; 1571 : 								target_list [count] = keysite;

  0074f	8b 45 d0	 mov	 eax, DWORD PTR _count$[ebp]
  00752	8b 4d e4	 mov	 ecx, DWORD PTR _keysite$[ebp]
  00755	89 0c 85 00 00
	00 00		 mov	 DWORD PTR ?target_list@@3PAPAUENTITY@@A[eax*4], ecx

; 1572 : 		
; 1573 : 								target_rating [count] = rating;

  0075c	8b 45 d0	 mov	 eax, DWORD PTR _count$[ebp]
  0075f	f3 0f 10 45 c4	 movss	 xmm0, DWORD PTR _rating$[ebp]
  00764	f3 0f 11 04 85
	00 00 00 00	 movss	 DWORD PTR ?target_rating@@3PAMA[eax*4], xmm0

; 1574 : 		
; 1575 : 								count ++;

  0076d	8b 45 d0	 mov	 eax, DWORD PTR _count$[ebp]
  00770	83 c0 01	 add	 eax, 1
  00773	89 45 d0	 mov	 DWORD PTR _count$[ebp], eax
$LN16@create_oca:

; 1576 : 							}
; 1577 : 						}
; 1578 : 					}
; 1579 : 	
; 1580 : 					keysite = get_local_entity_child_succ (keysite, LIST_TYPE_KEYSITE_FORCE);

  00776	83 7d e4 00	 cmp	 DWORD PTR _keysite$[ebp], 0
  0077a	74 0d		 je	 SHORT $LN61@create_oca
  0077c	8b 45 e4	 mov	 eax, DWORD PTR _keysite$[ebp]
  0077f	8b 08		 mov	 ecx, DWORD PTR [eax]
  00781	89 8d 74 ff ff
	ff		 mov	 DWORD PTR tv358[ebp], ecx
  00787	eb 24		 jmp	 SHORT $LN62@create_oca
$LN61@create_oca:
  00789	8b 15 00 00 00
	00		 mov	 edx, DWORD PTR ?__LINE__Var@?0??create_oca_sweep_tasks@@YGXXZ@4JA
  0078f	83 c2 6f	 add	 edx, 111		; 0000006fH
  00792	52		 push	 edx
  00793	68 00 00 00 00	 push	 OFFSET ??_C@_0ED@GMECMFKH@c?3?2users?2nhv90?2projects?2eech?2ap@
  00798	a1 00 00 00 00	 mov	 eax, DWORD PTR ?null_entity_pointer_message@@3PBDB ; null_entity_pointer_message
  0079d	50		 push	 eax
  0079e	e8 00 00 00 00	 call	 ?process_assert@@YGXPBD0H@Z ; process_assert
  007a3	c7 85 74 ff ff
	ff 00 00 00 00	 mov	 DWORD PTR tv358[ebp], 0
$LN62@create_oca:
  007ad	b9 01 00 00 00	 mov	 ecx, 1
  007b2	85 c9		 test	 ecx, ecx
  007b4	74 0c		 je	 SHORT $LN63@create_oca
  007b6	c7 85 70 ff ff
	ff 15 00 00 00	 mov	 DWORD PTR tv366[ebp], 21 ; 00000015H
  007c0	eb 24		 jmp	 SHORT $LN64@create_oca
$LN63@create_oca:
  007c2	8b 15 00 00 00
	00		 mov	 edx, DWORD PTR ?__LINE__Var@?0??create_oca_sweep_tasks@@YGXXZ@4JA
  007c8	83 c2 6f	 add	 edx, 111		; 0000006fH
  007cb	52		 push	 edx
  007cc	68 00 00 00 00	 push	 OFFSET ??_C@_0ED@GMECMFKH@c?3?2users?2nhv90?2projects?2eech?2ap@
  007d1	a1 00 00 00 00	 mov	 eax, DWORD PTR ?overload_invalid_list_type_message@@3PBDB ; overload_invalid_list_type_message
  007d6	50		 push	 eax
  007d7	e8 00 00 00 00	 call	 ?process_assert@@YGXPBD0H@Z ; process_assert
  007dc	c7 85 70 ff ff
	ff 00 00 00 00	 mov	 DWORD PTR tv366[ebp], 0
$LN64@create_oca:
  007e6	6a 15		 push	 21			; 00000015H
  007e8	8b 4d e4	 mov	 ecx, DWORD PTR _keysite$[ebp]
  007eb	51		 push	 ecx
  007ec	69 95 74 ff ff
	ff b4 00 00 00	 imul	 edx, DWORD PTR tv358[ebp], 180
  007f6	8b 85 70 ff ff
	ff		 mov	 eax, DWORD PTR tv366[ebp]
  007fc	8b 8c 82 00 00
	00 00		 mov	 ecx, DWORD PTR ?fn_get_local_entity_child_succ@@3PAY0CN@P6GPAUENTITY@@PAU1@W4LIST_TYPES@@@ZA[edx+eax*4]
  00803	ff d1		 call	 ecx
  00805	89 45 e4	 mov	 DWORD PTR _keysite$[ebp], eax

; 1581 : 				}

  00808	e9 93 fb ff ff	 jmp	 $LN6@create_oca
$LN7@create_oca:

; 1582 : 			}
; 1583 : 
; 1584 : 			target_force = get_local_entity_child_succ (target_force, LIST_TYPE_FORCE);

  0080d	83 7d ec 00	 cmp	 DWORD PTR _target_force$[ebp], 0
  00811	74 0d		 je	 SHORT $LN65@create_oca
  00813	8b 45 ec	 mov	 eax, DWORD PTR _target_force$[ebp]
  00816	8b 08		 mov	 ecx, DWORD PTR [eax]
  00818	89 8d 74 ff ff
	ff		 mov	 DWORD PTR tv378[ebp], ecx
  0081e	eb 24		 jmp	 SHORT $LN66@create_oca
$LN65@create_oca:
  00820	8b 15 00 00 00
	00		 mov	 edx, DWORD PTR ?__LINE__Var@?0??create_oca_sweep_tasks@@YGXXZ@4JA
  00826	83 c2 73	 add	 edx, 115		; 00000073H
  00829	52		 push	 edx
  0082a	68 00 00 00 00	 push	 OFFSET ??_C@_0ED@GMECMFKH@c?3?2users?2nhv90?2projects?2eech?2ap@
  0082f	a1 00 00 00 00	 mov	 eax, DWORD PTR ?null_entity_pointer_message@@3PBDB ; null_entity_pointer_message
  00834	50		 push	 eax
  00835	e8 00 00 00 00	 call	 ?process_assert@@YGXPBD0H@Z ; process_assert
  0083a	c7 85 74 ff ff
	ff 00 00 00 00	 mov	 DWORD PTR tv378[ebp], 0
$LN66@create_oca:
  00844	b9 01 00 00 00	 mov	 ecx, 1
  00849	85 c9		 test	 ecx, ecx
  0084b	74 0c		 je	 SHORT $LN67@create_oca
  0084d	c7 85 70 ff ff
	ff 0e 00 00 00	 mov	 DWORD PTR tv386[ebp], 14 ; 0000000eH
  00857	eb 24		 jmp	 SHORT $LN68@create_oca
$LN67@create_oca:
  00859	8b 15 00 00 00
	00		 mov	 edx, DWORD PTR ?__LINE__Var@?0??create_oca_sweep_tasks@@YGXXZ@4JA
  0085f	83 c2 73	 add	 edx, 115		; 00000073H
  00862	52		 push	 edx
  00863	68 00 00 00 00	 push	 OFFSET ??_C@_0ED@GMECMFKH@c?3?2users?2nhv90?2projects?2eech?2ap@
  00868	a1 00 00 00 00	 mov	 eax, DWORD PTR ?overload_invalid_list_type_message@@3PBDB ; overload_invalid_list_type_message
  0086d	50		 push	 eax
  0086e	e8 00 00 00 00	 call	 ?process_assert@@YGXPBD0H@Z ; process_assert
  00873	c7 85 70 ff ff
	ff 00 00 00 00	 mov	 DWORD PTR tv386[ebp], 0
$LN68@create_oca:
  0087d	6a 0e		 push	 14			; 0000000eH
  0087f	8b 4d ec	 mov	 ecx, DWORD PTR _target_force$[ebp]
  00882	51		 push	 ecx
  00883	69 95 74 ff ff
	ff b4 00 00 00	 imul	 edx, DWORD PTR tv378[ebp], 180
  0088d	8b 85 70 ff ff
	ff		 mov	 eax, DWORD PTR tv386[ebp]
  00893	8b 8c 82 00 00
	00 00		 mov	 ecx, DWORD PTR ?fn_get_local_entity_child_succ@@3PAY0CN@P6GPAUENTITY@@PAU1@W4LIST_TYPES@@@ZA[edx+eax*4]
  0089a	ff d1		 call	 ecx
  0089c	89 45 ec	 mov	 DWORD PTR _target_force$[ebp], eax

; 1585 : 		}

  0089f	e9 b2 f9 ff ff	 jmp	 $LN4@create_oca
$LN5@create_oca:

; 1586 : 
; 1587 : 		//
; 1588 : 		// Create tasks
; 1589 : 		//
; 1590 : 
; 1591 : 		if (count > 0)

  008a4	83 7d d0 00	 cmp	 DWORD PTR _count$[ebp], 0
  008a8	0f 8e 3a 05 00
	00		 jle	 $LN9@create_oca

; 1592 : 		{
; 1593 : 			debug_log ("HIGHLEVL: %s %d candidates for OCA SWEEP", entity_side_short_names [this_side], count);

  008ae	8b 45 d0	 mov	 eax, DWORD PTR _count$[ebp]
  008b1	50		 push	 eax
  008b2	8b 4d f8	 mov	 ecx, DWORD PTR _this_side$[ebp]
  008b5	8b 14 8d 00 00
	00 00		 mov	 edx, DWORD PTR ?entity_side_short_names@@3PAPBDA[ecx*4]
  008bc	52		 push	 edx
  008bd	68 00 00 00 00	 push	 OFFSET ??_C@_0CJ@LAGELLPF@HIGHLEVL?3?5?$CFs?5?$CFd?5candidates?5for?5@
  008c2	e8 00 00 00 00	 call	 ?debug_log@@YAXPBDZZ	; debug_log
  008c7	83 c4 0c	 add	 esp, 12			; 0000000cH

; 1594 : 
; 1595 : 			quicksort_entity_list (target_list, count, target_rating);

  008ca	68 00 00 00 00	 push	 OFFSET ?target_rating@@3PAMA
  008cf	8b 45 d0	 mov	 eax, DWORD PTR _count$[ebp]
  008d2	50		 push	 eax
  008d3	68 00 00 00 00	 push	 OFFSET ?target_list@@3PAPAUENTITY@@A
  008d8	e8 00 00 00 00	 call	 ?quicksort_entity_list@@YGXPAPAUENTITY@@HPAM@Z ; quicksort_entity_list

; 1596 : 
; 1597 : 			count = min (count, CREATE_OCA_SWEEP_TASK_COUNT);

  008dd	c7 85 78 ff ff
	ff 02 00 00 00	 mov	 DWORD PTR $T1[ebp], 2
  008e7	8d 85 78 ff ff
	ff		 lea	 eax, DWORD PTR $T1[ebp]
  008ed	50		 push	 eax
  008ee	8d 4d d0	 lea	 ecx, DWORD PTR _count$[ebp]
  008f1	51		 push	 ecx
  008f2	e8 00 00 00 00	 call	 ??$min@H@std@@YGABHABH0@Z ; std::min<int>
  008f7	8b 10		 mov	 edx, DWORD PTR [eax]
  008f9	89 55 d0	 mov	 DWORD PTR _count$[ebp], edx

; 1598 : 
; 1599 : 			ASSERT (target_rating [0] > 0.0);

  008fc	b8 04 00 00 00	 mov	 eax, 4
  00901	6b c8 00	 imul	 ecx, eax, 0
  00904	f3 0f 5a 81 00
	00 00 00	 cvtss2sd xmm0, DWORD PTR ?target_rating@@3PAMA[ecx]
  0090c	66 0f 2f 05 00
	00 00 00	 comisd	 xmm0, QWORD PTR __real@0000000000000000
  00914	77 1a		 ja	 SHORT $LN18@create_oca
  00916	a1 00 00 00 00	 mov	 eax, DWORD PTR ?__LINE__Var@?0??create_oca_sweep_tasks@@YGXXZ@4JA
  0091b	05 82 00 00 00	 add	 eax, 130		; 00000082H
  00920	50		 push	 eax
  00921	68 00 00 00 00	 push	 OFFSET ??_C@_0ED@GMECMFKH@c?3?2users?2nhv90?2projects?2eech?2ap@
  00926	68 00 00 00 00	 push	 OFFSET ??_C@_0BI@BNNJCIEB@target_rating?5?$FL0?$FN?5?$DO?50?40@
  0092b	e8 00 00 00 00	 call	 ?process_assert@@YGXPBD0H@Z ; process_assert
$LN18@create_oca:

; 1600 : 
; 1601 : 			for (loop = 0; loop < count; loop ++)

  00930	c7 45 d4 00 00
	00 00		 mov	 DWORD PTR _loop$[ebp], 0
  00937	eb 09		 jmp	 SHORT $LN10@create_oca
$LN8@create_oca:
  00939	8b 45 d4	 mov	 eax, DWORD PTR _loop$[ebp]
  0093c	83 c0 01	 add	 eax, 1
  0093f	89 45 d4	 mov	 DWORD PTR _loop$[ebp], eax
$LN10@create_oca:
  00942	8b 45 d4	 mov	 eax, DWORD PTR _loop$[ebp]
  00945	3b 45 d0	 cmp	 eax, DWORD PTR _count$[ebp]
  00948	0f 8d 9a 04 00
	00		 jge	 $LN9@create_oca

; 1602 : 			{
; 1603 : 				ratio = target_rating [loop] / target_rating [0];

  0094e	b8 04 00 00 00	 mov	 eax, 4
  00953	6b c8 00	 imul	 ecx, eax, 0
  00956	8b 55 d4	 mov	 edx, DWORD PTR _loop$[ebp]
  00959	f3 0f 10 04 95
	00 00 00 00	 movss	 xmm0, DWORD PTR ?target_rating@@3PAMA[edx*4]
  00962	f3 0f 5e 81 00
	00 00 00	 divss	 xmm0, DWORD PTR ?target_rating@@3PAMA[ecx]
  0096a	f3 0f 11 45 c0	 movss	 DWORD PTR _ratio$[ebp], xmm0

; 1604 : 
; 1605 : 				if (ratio >= MIN_TASK_CREATION_RATIO)

  0096f	f3 0f 5a 45 c0	 cvtss2sd xmm0, DWORD PTR _ratio$[ebp]
  00974	66 0f 2f 05 00
	00 00 00	 comisd	 xmm0, QWORD PTR __real@3fe8000000000000
  0097c	0f 82 61 04 00
	00		 jb	 $LN23@create_oca

; 1606 : 				{
; 1607 : 					keysite = target_list [loop];

  00982	8b 45 d4	 mov	 eax, DWORD PTR _loop$[ebp]
  00985	8b 0c 85 00 00
	00 00		 mov	 ecx, DWORD PTR ?target_list@@3PAPAUENTITY@@A[eax*4]
  0098c	89 4d e4	 mov	 DWORD PTR _keysite$[ebp], ecx

; 1608 : 	
; 1609 : 					sector = get_local_entity_parent (keysite, LIST_TYPE_SECTOR);

  0098f	83 7d e4 00	 cmp	 DWORD PTR _keysite$[ebp], 0
  00993	74 0d		 je	 SHORT $LN69@create_oca
  00995	8b 45 e4	 mov	 eax, DWORD PTR _keysite$[ebp]
  00998	8b 08		 mov	 ecx, DWORD PTR [eax]
  0099a	89 8d 74 ff ff
	ff		 mov	 DWORD PTR tv429[ebp], ecx
  009a0	eb 27		 jmp	 SHORT $LN70@create_oca
$LN69@create_oca:
  009a2	8b 15 00 00 00
	00		 mov	 edx, DWORD PTR ?__LINE__Var@?0??create_oca_sweep_tasks@@YGXXZ@4JA
  009a8	81 c2 8c 00 00
	00		 add	 edx, 140		; 0000008cH
  009ae	52		 push	 edx
  009af	68 00 00 00 00	 push	 OFFSET ??_C@_0ED@GMECMFKH@c?3?2users?2nhv90?2projects?2eech?2ap@
  009b4	a1 00 00 00 00	 mov	 eax, DWORD PTR ?null_entity_pointer_message@@3PBDB ; null_entity_pointer_message
  009b9	50		 push	 eax
  009ba	e8 00 00 00 00	 call	 ?process_assert@@YGXPBD0H@Z ; process_assert
  009bf	c7 85 74 ff ff
	ff 00 00 00 00	 mov	 DWORD PTR tv429[ebp], 0
$LN70@create_oca:
  009c9	b9 01 00 00 00	 mov	 ecx, 1
  009ce	85 c9		 test	 ecx, ecx
  009d0	74 0c		 je	 SHORT $LN71@create_oca
  009d2	c7 85 70 ff ff
	ff 21 00 00 00	 mov	 DWORD PTR tv437[ebp], 33 ; 00000021H
  009dc	eb 27		 jmp	 SHORT $LN72@create_oca
$LN71@create_oca:
  009de	8b 15 00 00 00
	00		 mov	 edx, DWORD PTR ?__LINE__Var@?0??create_oca_sweep_tasks@@YGXXZ@4JA
  009e4	81 c2 8c 00 00
	00		 add	 edx, 140		; 0000008cH
  009ea	52		 push	 edx
  009eb	68 00 00 00 00	 push	 OFFSET ??_C@_0ED@GMECMFKH@c?3?2users?2nhv90?2projects?2eech?2ap@
  009f0	a1 00 00 00 00	 mov	 eax, DWORD PTR ?overload_invalid_list_type_message@@3PBDB ; overload_invalid_list_type_message
  009f5	50		 push	 eax
  009f6	e8 00 00 00 00	 call	 ?process_assert@@YGXPBD0H@Z ; process_assert
  009fb	c7 85 70 ff ff
	ff 00 00 00 00	 mov	 DWORD PTR tv437[ebp], 0
$LN72@create_oca:
  00a05	6a 21		 push	 33			; 00000021H
  00a07	8b 4d e4	 mov	 ecx, DWORD PTR _keysite$[ebp]
  00a0a	51		 push	 ecx
  00a0b	69 95 74 ff ff
	ff b4 00 00 00	 imul	 edx, DWORD PTR tv429[ebp], 180
  00a15	8b 85 70 ff ff
	ff		 mov	 eax, DWORD PTR tv437[ebp]
  00a1b	8b 8c 82 00 00
	00 00		 mov	 ecx, DWORD PTR ?fn_get_local_entity_parent@@3PAY0CN@P6GPAUENTITY@@PAU1@W4LIST_TYPES@@@ZA[edx+eax*4]
  00a22	ff d1		 call	 ecx
  00a24	89 45 f0	 mov	 DWORD PTR _sector$[ebp], eax

; 1610 : 	
; 1611 : 					ASSERT (sector);

  00a27	83 7d f0 00	 cmp	 DWORD PTR _sector$[ebp], 0
  00a2b	75 1a		 jne	 SHORT $LN20@create_oca
  00a2d	a1 00 00 00 00	 mov	 eax, DWORD PTR ?__LINE__Var@?0??create_oca_sweep_tasks@@YGXXZ@4JA
  00a32	05 8e 00 00 00	 add	 eax, 142		; 0000008eH
  00a37	50		 push	 eax
  00a38	68 00 00 00 00	 push	 OFFSET ??_C@_0ED@GMECMFKH@c?3?2users?2nhv90?2projects?2eech?2ap@
  00a3d	68 00 00 00 00	 push	 OFFSET ??_C@_06IDGHNJOB@sector@
  00a42	e8 00 00 00 00	 call	 ?process_assert@@YGXPBD0H@Z ; process_assert
$LN20@create_oca:

; 1612 : 					
; 1613 : 					keysite_type = get_local_entity_int_value (keysite, INT_TYPE_ENTITY_SUB_TYPE);

  00a47	83 7d e4 00	 cmp	 DWORD PTR _keysite$[ebp], 0
  00a4b	74 0d		 je	 SHORT $LN73@create_oca
  00a4d	8b 45 e4	 mov	 eax, DWORD PTR _keysite$[ebp]
  00a50	8b 08		 mov	 ecx, DWORD PTR [eax]
  00a52	89 8d 74 ff ff
	ff		 mov	 DWORD PTR tv454[ebp], ecx
  00a58	eb 27		 jmp	 SHORT $LN74@create_oca
$LN73@create_oca:
  00a5a	8b 15 00 00 00
	00		 mov	 edx, DWORD PTR ?__LINE__Var@?0??create_oca_sweep_tasks@@YGXXZ@4JA
  00a60	81 c2 90 00 00
	00		 add	 edx, 144		; 00000090H
  00a66	52		 push	 edx
  00a67	68 00 00 00 00	 push	 OFFSET ??_C@_0ED@GMECMFKH@c?3?2users?2nhv90?2projects?2eech?2ap@
  00a6c	a1 00 00 00 00	 mov	 eax, DWORD PTR ?null_entity_pointer_message@@3PBDB ; null_entity_pointer_message
  00a71	50		 push	 eax
  00a72	e8 00 00 00 00	 call	 ?process_assert@@YGXPBD0H@Z ; process_assert
  00a77	c7 85 74 ff ff
	ff 00 00 00 00	 mov	 DWORD PTR tv454[ebp], 0
$LN74@create_oca:
  00a81	b9 01 00 00 00	 mov	 ecx, 1
  00a86	85 c9		 test	 ecx, ecx
  00a88	74 0c		 je	 SHORT $LN75@create_oca
  00a8a	c7 85 70 ff ff
	ff 34 00 00 00	 mov	 DWORD PTR tv462[ebp], 52 ; 00000034H
  00a94	eb 27		 jmp	 SHORT $LN76@create_oca
$LN75@create_oca:
  00a96	8b 15 00 00 00
	00		 mov	 edx, DWORD PTR ?__LINE__Var@?0??create_oca_sweep_tasks@@YGXXZ@4JA
  00a9c	81 c2 90 00 00
	00		 add	 edx, 144		; 00000090H
  00aa2	52		 push	 edx
  00aa3	68 00 00 00 00	 push	 OFFSET ??_C@_0ED@GMECMFKH@c?3?2users?2nhv90?2projects?2eech?2ap@
  00aa8	a1 00 00 00 00	 mov	 eax, DWORD PTR ?overload_invalid_int_type_message@@3PBDB ; overload_invalid_int_type_message
  00aad	50		 push	 eax
  00aae	e8 00 00 00 00	 call	 ?process_assert@@YGXPBD0H@Z ; process_assert
  00ab3	c7 85 70 ff ff
	ff 00 00 00 00	 mov	 DWORD PTR tv462[ebp], 0
$LN76@create_oca:
  00abd	6a 34		 push	 52			; 00000034H
  00abf	8b 4d e4	 mov	 ecx, DWORD PTR _keysite$[ebp]
  00ac2	51		 push	 ecx
  00ac3	69 95 74 ff ff
	ff 5c 04 00 00	 imul	 edx, DWORD PTR tv454[ebp], 1116
  00acd	8b 85 70 ff ff
	ff		 mov	 eax, DWORD PTR tv462[ebp]
  00ad3	8b 8c 82 00 00
	00 00		 mov	 ecx, DWORD PTR ?fn_get_local_entity_int_value@@3PAY0BBH@P6GHPAUENTITY@@W4INT_TYPES@@@ZA[edx+eax*4]
  00ada	ff d1		 call	 ecx
  00adc	89 45 cc	 mov	 DWORD PTR _keysite_type$[ebp], eax

; 1614 : 	
; 1615 : 					if (get_sector_fog_of_war_value (sector, this_side) >= (0.25 * get_local_entity_float_value (get_session_entity (), FLOAT_TYPE_FOG_OF_WAR_MAXIMUM_VALUE)))

  00adf	83 3d 00 00 00
	00 00		 cmp	 DWORD PTR ?session_entity@@3PAUENTITY@@A, 0 ; session_entity
  00ae6	74 0f		 je	 SHORT $LN77@create_oca
  00ae8	a1 00 00 00 00	 mov	 eax, DWORD PTR ?session_entity@@3PAUENTITY@@A ; session_entity
  00aed	8b 08		 mov	 ecx, DWORD PTR [eax]
  00aef	89 8d 74 ff ff
	ff		 mov	 DWORD PTR tv477[ebp], ecx
  00af5	eb 20		 jmp	 SHORT $LN78@create_oca
$LN77@create_oca:
  00af7	68 4f 06 00 00	 push	 1615			; 0000064fH
  00afc	68 00 00 00 00	 push	 OFFSET ??_C@_0ED@GMECMFKH@c?3?2users?2nhv90?2projects?2eech?2ap@
  00b01	8b 15 00 00 00
	00		 mov	 edx, DWORD PTR ?null_entity_pointer_message@@3PBDB ; null_entity_pointer_message
  00b07	52		 push	 edx
  00b08	e8 00 00 00 00	 call	 ?process_assert@@YGXPBD0H@Z ; process_assert
  00b0d	c7 85 74 ff ff
	ff 00 00 00 00	 mov	 DWORD PTR tv477[ebp], 0
$LN78@create_oca:
  00b17	b8 01 00 00 00	 mov	 eax, 1
  00b1c	85 c0		 test	 eax, eax
  00b1e	74 0c		 je	 SHORT $LN79@create_oca
  00b20	c7 85 70 ff ff
	ff 2c 00 00 00	 mov	 DWORD PTR tv484[ebp], 44 ; 0000002cH
  00b2a	eb 20		 jmp	 SHORT $LN80@create_oca
$LN79@create_oca:
  00b2c	68 4f 06 00 00	 push	 1615			; 0000064fH
  00b31	68 00 00 00 00	 push	 OFFSET ??_C@_0ED@GMECMFKH@c?3?2users?2nhv90?2projects?2eech?2ap@
  00b36	8b 0d 00 00 00
	00		 mov	 ecx, DWORD PTR ?overload_invalid_float_type_message@@3PBDB ; overload_invalid_float_type_message
  00b3c	51		 push	 ecx
  00b3d	e8 00 00 00 00	 call	 ?process_assert@@YGXPBD0H@Z ; process_assert
  00b42	c7 85 70 ff ff
	ff 00 00 00 00	 mov	 DWORD PTR tv484[ebp], 0
$LN80@create_oca:
  00b4c	8b 55 f8	 mov	 edx, DWORD PTR _this_side$[ebp]
  00b4f	52		 push	 edx
  00b50	8b 45 f0	 mov	 eax, DWORD PTR _sector$[ebp]
  00b53	50		 push	 eax
  00b54	e8 00 00 00 00	 call	 ?get_sector_fog_of_war_value@@YGMPAUENTITY@@W4ENTITY_SIDES@@@Z ; get_sector_fog_of_war_value
  00b59	dd 9d 68 ff ff
	ff		 fstp	 QWORD PTR tv858[ebp]
  00b5f	f2 0f 10 85 68
	ff ff ff	 movsd	 xmm0, QWORD PTR tv858[ebp]
  00b67	6a 2c		 push	 44			; 0000002cH
  00b69	8b 0d 00 00 00
	00		 mov	 ecx, DWORD PTR ?session_entity@@3PAUENTITY@@A ; session_entity
  00b6f	51		 push	 ecx
  00b70	69 95 74 ff ff
	ff bc 02 00 00	 imul	 edx, DWORD PTR tv477[ebp], 700
  00b7a	8b 85 70 ff ff
	ff		 mov	 eax, DWORD PTR tv484[ebp]
  00b80	8b 8c 82 00 00
	00 00		 mov	 ecx, DWORD PTR ?fn_get_local_entity_float_value@@3PAY0KP@P6GMPAUENTITY@@W4FLOAT_TYPES@@@ZA[edx+eax*4]
  00b87	f2 0f 11 85 60
	ff ff ff	 movsd	 QWORD PTR tv926[ebp], xmm0
  00b8f	ff d1		 call	 ecx
  00b91	dd 9d 58 ff ff
	ff		 fstp	 QWORD PTR tv866[ebp]
  00b97	f2 0f 10 85 58
	ff ff ff	 movsd	 xmm0, QWORD PTR tv866[ebp]
  00b9f	f2 0f 59 05 00
	00 00 00	 mulsd	 xmm0, QWORD PTR __real@3fd0000000000000
  00ba7	f2 0f 10 8d 60
	ff ff ff	 movsd	 xmm1, QWORD PTR tv926[ebp]
  00baf	66 0f 2f c8	 comisd	 xmm1, xmm0
  00bb3	0f 82 2a 02 00
	00		 jb	 $LN23@create_oca

; 1616 : 					{
; 1617 :                   if (
; 1618 :                         (!entity_is_object_of_task (keysite, ENTITY_SUB_TYPE_TASK_OCA_SWEEP, this_side)) &&
; 1619 :                         (!entity_is_object_of_task (keysite, ENTITY_SUB_TYPE_TASK_BDA, this_side)) &&

  00bb9	8b 45 f8	 mov	 eax, DWORD PTR _this_side$[ebp]
  00bbc	50		 push	 eax
  00bbd	6a 10		 push	 16			; 00000010H
  00bbf	8b 4d e4	 mov	 ecx, DWORD PTR _keysite$[ebp]
  00bc2	51		 push	 ecx
  00bc3	e8 00 00 00 00	 call	 ?entity_is_object_of_task@@YGHPAUENTITY@@HW4ENTITY_SIDES@@@Z ; entity_is_object_of_task
  00bc8	85 c0		 test	 eax, eax
  00bca	0f 85 13 02 00
	00		 jne	 $LN23@create_oca
  00bd0	8b 45 f8	 mov	 eax, DWORD PTR _this_side$[ebp]
  00bd3	50		 push	 eax
  00bd4	6a 05		 push	 5
  00bd6	8b 4d e4	 mov	 ecx, DWORD PTR _keysite$[ebp]
  00bd9	51		 push	 ecx
  00bda	e8 00 00 00 00	 call	 ?entity_is_object_of_task@@YGHPAUENTITY@@HW4ENTITY_SIDES@@@Z ; entity_is_object_of_task
  00bdf	85 c0		 test	 eax, eax
  00be1	0f 85 fc 01 00
	00		 jne	 $LN23@create_oca
  00be7	8b 45 f8	 mov	 eax, DWORD PTR _this_side$[ebp]
  00bea	50		 push	 eax
  00beb	6a 1a		 push	 26			; 0000001aH
  00bed	8b 4d e4	 mov	 ecx, DWORD PTR _keysite$[ebp]
  00bf0	51		 push	 ecx
  00bf1	e8 00 00 00 00	 call	 ?entity_is_object_of_task@@YGHPAUENTITY@@HW4ENTITY_SIDES@@@Z ; entity_is_object_of_task
  00bf6	85 c0		 test	 eax, eax
  00bf8	0f 85 e5 01 00
	00		 jne	 $LN23@create_oca

; 1620 :                         (!entity_is_object_of_task (keysite, ENTITY_SUB_TYPE_TASK_TROOP_INSERTION, this_side))
; 1621 :                      )
; 1622 :                   {
; 1623 : 							priority = (target_rating [loop] / max_rating) * task_database [ENTITY_SUB_TYPE_TASK_OCA_SWEEP].task_priority;

  00bfe	8b 45 d4	 mov	 eax, DWORD PTR _loop$[ebp]
  00c01	f3 0f 10 04 85
	00 00 00 00	 movss	 xmm0, DWORD PTR ?target_rating@@3PAMA[eax*4]
  00c0a	f3 0f 5e 45 bc	 divss	 xmm0, DWORD PTR _max_rating$[ebp]
  00c0f	b9 50 00 00 00	 mov	 ecx, 80			; 00000050H
  00c14	c1 e1 04	 shl	 ecx, 4
  00c17	f3 0f 59 81 10
	00 00 00	 mulss	 xmm0, DWORD PTR ?task_database@@3PAUTASK_DATA@@A[ecx+16]
  00c1f	f3 0f 11 45 c8	 movss	 DWORD PTR _priority$[ebp], xmm0

; 1624 : 		
; 1625 : 							new_task = create_oca_sweep_task (this_side, keysite, NULL, TRUE, priority, NULL, NULL);

  00c24	6a 00		 push	 0
  00c26	6a 00		 push	 0
  00c28	51		 push	 ecx
  00c29	f3 0f 10 45 c8	 movss	 xmm0, DWORD PTR _priority$[ebp]
  00c2e	f3 0f 11 04 24	 movss	 DWORD PTR [esp], xmm0
  00c33	6a 01		 push	 1
  00c35	6a 00		 push	 0
  00c37	8b 45 e4	 mov	 eax, DWORD PTR _keysite$[ebp]
  00c3a	50		 push	 eax
  00c3b	8b 4d f8	 mov	 ecx, DWORD PTR _this_side$[ebp]
  00c3e	51		 push	 ecx
  00c3f	e8 00 00 00 00	 call	 ?create_oca_sweep_task@@YGPAUENTITY@@W4ENTITY_SIDES@@PAU1@1HM11@Z ; create_oca_sweep_task
  00c44	89 45 e8	 mov	 DWORD PTR _new_task$[ebp], eax

; 1626 : 		
; 1627 : 							if (new_task)

  00c47	83 7d e8 00	 cmp	 DWORD PTR _new_task$[ebp], 0
  00c4b	0f 84 92 01 00
	00		 je	 $LN23@create_oca

; 1628 : 							{
; 1629 : 								ai_log ("(TASK) %s OCA SWEEP #%d (%d) - Target %s : Rating %f - CREATED (Priority %f)",

  00c51	83 7d e4 00	 cmp	 DWORD PTR _keysite$[ebp], 0
  00c55	74 0d		 je	 SHORT $LN81@create_oca
  00c57	8b 45 e4	 mov	 eax, DWORD PTR _keysite$[ebp]
  00c5a	8b 08		 mov	 ecx, DWORD PTR [eax]
  00c5c	89 8d 74 ff ff
	ff		 mov	 DWORD PTR tv536[ebp], ecx
  00c62	eb 27		 jmp	 SHORT $LN82@create_oca
$LN81@create_oca:
  00c64	8b 15 00 00 00
	00		 mov	 edx, DWORD PTR ?__LINE__Var@?0??create_oca_sweep_tasks@@YGXXZ@4JA
  00c6a	81 c2 a4 00 00
	00		 add	 edx, 164		; 000000a4H
  00c70	52		 push	 edx
  00c71	68 00 00 00 00	 push	 OFFSET ??_C@_0ED@GMECMFKH@c?3?2users?2nhv90?2projects?2eech?2ap@
  00c76	a1 00 00 00 00	 mov	 eax, DWORD PTR ?null_entity_pointer_message@@3PBDB ; null_entity_pointer_message
  00c7b	50		 push	 eax
  00c7c	e8 00 00 00 00	 call	 ?process_assert@@YGXPBD0H@Z ; process_assert
  00c81	c7 85 74 ff ff
	ff 00 00 00 00	 mov	 DWORD PTR tv536[ebp], 0
$LN82@create_oca:
  00c8b	b9 01 00 00 00	 mov	 ecx, 1
  00c90	85 c9		 test	 ecx, ecx
  00c92	74 0c		 je	 SHORT $LN83@create_oca
  00c94	c7 85 70 ff ff
	ff 07 00 00 00	 mov	 DWORD PTR tv544[ebp], 7
  00c9e	eb 27		 jmp	 SHORT $LN84@create_oca
$LN83@create_oca:
  00ca0	8b 15 00 00 00
	00		 mov	 edx, DWORD PTR ?__LINE__Var@?0??create_oca_sweep_tasks@@YGXXZ@4JA
  00ca6	81 c2 a4 00 00
	00		 add	 edx, 164		; 000000a4H
  00cac	52		 push	 edx
  00cad	68 00 00 00 00	 push	 OFFSET ??_C@_0ED@GMECMFKH@c?3?2users?2nhv90?2projects?2eech?2ap@
  00cb2	a1 00 00 00 00	 mov	 eax, DWORD PTR ?overload_invalid_string_type_message@@3PBDB ; overload_invalid_string_type_message
  00cb7	50		 push	 eax
  00cb8	e8 00 00 00 00	 call	 ?process_assert@@YGXPBD0H@Z ; process_assert
  00cbd	c7 85 70 ff ff
	ff 00 00 00 00	 mov	 DWORD PTR tv544[ebp], 0
$LN84@create_oca:
  00cc7	83 7d e8 00	 cmp	 DWORD PTR _new_task$[ebp], 0
  00ccb	74 14		 je	 SHORT $LN85@create_oca
  00ccd	8b 4d e8	 mov	 ecx, DWORD PTR _new_task$[ebp]
  00cd0	2b 0d 00 00 00
	00		 sub	 ecx, DWORD PTR ?entities@@3PAUENTITY@@A ; entities
  00cd6	c1 f9 04	 sar	 ecx, 4
  00cd9	89 8d 6c ff ff
	ff		 mov	 DWORD PTR tv554[ebp], ecx
  00cdf	eb 0a		 jmp	 SHORT $LN86@create_oca
$LN85@create_oca:
  00ce1	c7 85 6c ff ff
	ff ff ff ff ff	 mov	 DWORD PTR tv554[ebp], -1
$LN86@create_oca:
  00ceb	83 7d e8 00	 cmp	 DWORD PTR _new_task$[ebp], 0
  00cef	74 0d		 je	 SHORT $LN87@create_oca
  00cf1	8b 55 e8	 mov	 edx, DWORD PTR _new_task$[ebp]
  00cf4	8b 02		 mov	 eax, DWORD PTR [edx]
  00cf6	89 85 68 ff ff
	ff		 mov	 DWORD PTR tv562[ebp], eax
  00cfc	eb 28		 jmp	 SHORT $LN88@create_oca
$LN87@create_oca:
  00cfe	8b 0d 00 00 00
	00		 mov	 ecx, DWORD PTR ?__LINE__Var@?0??create_oca_sweep_tasks@@YGXXZ@4JA
  00d04	81 c1 a2 00 00
	00		 add	 ecx, 162		; 000000a2H
  00d0a	51		 push	 ecx
  00d0b	68 00 00 00 00	 push	 OFFSET ??_C@_0ED@GMECMFKH@c?3?2users?2nhv90?2projects?2eech?2ap@
  00d10	8b 15 00 00 00
	00		 mov	 edx, DWORD PTR ?null_entity_pointer_message@@3PBDB ; null_entity_pointer_message
  00d16	52		 push	 edx
  00d17	e8 00 00 00 00	 call	 ?process_assert@@YGXPBD0H@Z ; process_assert
  00d1c	c7 85 68 ff ff
	ff 00 00 00 00	 mov	 DWORD PTR tv562[ebp], 0
$LN88@create_oca:
  00d26	b8 01 00 00 00	 mov	 eax, 1
  00d2b	85 c0		 test	 eax, eax
  00d2d	74 0c		 je	 SHORT $LN89@create_oca
  00d2f	c7 85 64 ff ff
	ff dc 00 00 00	 mov	 DWORD PTR tv570[ebp], 220 ; 000000dcH
  00d39	eb 28		 jmp	 SHORT $LN90@create_oca
$LN89@create_oca:
  00d3b	8b 0d 00 00 00
	00		 mov	 ecx, DWORD PTR ?__LINE__Var@?0??create_oca_sweep_tasks@@YGXXZ@4JA
  00d41	81 c1 a2 00 00
	00		 add	 ecx, 162		; 000000a2H
  00d47	51		 push	 ecx
  00d48	68 00 00 00 00	 push	 OFFSET ??_C@_0ED@GMECMFKH@c?3?2users?2nhv90?2projects?2eech?2ap@
  00d4d	8b 15 00 00 00
	00		 mov	 edx, DWORD PTR ?overload_invalid_int_type_message@@3PBDB ; overload_invalid_int_type_message
  00d53	52		 push	 edx
  00d54	e8 00 00 00 00	 call	 ?process_assert@@YGXPBD0H@Z ; process_assert
  00d59	c7 85 64 ff ff
	ff 00 00 00 00	 mov	 DWORD PTR tv570[ebp], 0
$LN90@create_oca:
  00d63	f3 0f 5a 45 c8	 cvtss2sd xmm0, DWORD PTR _priority$[ebp]
  00d68	83 ec 08	 sub	 esp, 8
  00d6b	f2 0f 11 04 24	 movsd	 QWORD PTR [esp], xmm0
  00d70	8b 45 d4	 mov	 eax, DWORD PTR _loop$[ebp]
  00d73	f3 0f 5a 04 85
	00 00 00 00	 cvtss2sd xmm0, DWORD PTR ?target_rating@@3PAMA[eax*4]
  00d7c	83 ec 08	 sub	 esp, 8
  00d7f	f2 0f 11 04 24	 movsd	 QWORD PTR [esp], xmm0
  00d84	6a 07		 push	 7
  00d86	8b 4d e4	 mov	 ecx, DWORD PTR _keysite$[ebp]
  00d89	51		 push	 ecx
  00d8a	6b 95 74 ff ff
	ff 34		 imul	 edx, DWORD PTR tv536[ebp], 52
  00d91	8b 85 70 ff ff
	ff		 mov	 eax, DWORD PTR tv544[ebp]
  00d97	8b 8c 82 00 00
	00 00		 mov	 ecx, DWORD PTR ?fn_get_local_entity_string@@3PAY0N@P6GPBDPAUENTITY@@W4STRING_TYPES@@@ZA[edx+eax*4]
  00d9e	ff d1		 call	 ecx
  00da0	50		 push	 eax
  00da1	8b 95 6c ff ff
	ff		 mov	 edx, DWORD PTR tv554[ebp]
  00da7	52		 push	 edx
  00da8	68 dc 00 00 00	 push	 220			; 000000dcH
  00dad	8b 45 e8	 mov	 eax, DWORD PTR _new_task$[ebp]
  00db0	50		 push	 eax
  00db1	69 8d 68 ff ff
	ff 5c 04 00 00	 imul	 ecx, DWORD PTR tv562[ebp], 1116
  00dbb	8b 95 64 ff ff
	ff		 mov	 edx, DWORD PTR tv570[ebp]
  00dc1	8b 84 91 00 00
	00 00		 mov	 eax, DWORD PTR ?fn_get_local_entity_int_value@@3PAY0BBH@P6GHPAUENTITY@@W4INT_TYPES@@@ZA[ecx+edx*4]
  00dc8	ff d0		 call	 eax
  00dca	50		 push	 eax
  00dcb	8b 4d f8	 mov	 ecx, DWORD PTR _this_side$[ebp]
  00dce	8b 14 8d 00 00
	00 00		 mov	 edx, DWORD PTR ?entity_side_short_names@@3PAPBDA[ecx*4]
  00dd5	52		 push	 edx
  00dd6	68 00 00 00 00	 push	 OFFSET ??_C@_0EN@HANCKLDA@?$CITASK?$CJ?5?$CFs?5OCA?5SWEEP?5?$CD?$CFd?5?$CI?$CFd?$CJ?5?9?5@
  00ddb	e8 00 00 00 00	 call	 ?ai_log@@YAXPBDZZ	; ai_log
  00de0	83 c4 24	 add	 esp, 36			; 00000024H
$LN23@create_oca:

; 1630 : 													entity_side_short_names [this_side],
; 1631 : 													get_local_entity_int_value (new_task, INT_TYPE_TASK_ID),
; 1632 : 													get_local_entity_safe_index (new_task),
; 1633 : 													get_local_entity_string (keysite, STRING_TYPE_KEYSITE_NAME),
; 1634 : 													target_rating [loop], priority);
; 1635 : 							}
; 1636 : 						}
; 1637 : 					}
; 1638 : 				}
; 1639 : 			}

  00de3	e9 51 fb ff ff	 jmp	 $LN8@create_oca
$LN9@create_oca:

; 1640 : 		}
; 1641 : 
; 1642 : 		//
; 1643 : 		// Next force
; 1644 : 		//
; 1645 : 	
; 1646 : 		force = get_local_entity_child_succ (force, LIST_TYPE_FORCE);

  00de8	83 7d f4 00	 cmp	 DWORD PTR _force$[ebp], 0
  00dec	74 0d		 je	 SHORT $LN91@create_oca
  00dee	8b 45 f4	 mov	 eax, DWORD PTR _force$[ebp]
  00df1	8b 08		 mov	 ecx, DWORD PTR [eax]
  00df3	89 8d 74 ff ff
	ff		 mov	 DWORD PTR tv619[ebp], ecx
  00df9	eb 27		 jmp	 SHORT $LN92@create_oca
$LN91@create_oca:
  00dfb	8b 15 00 00 00
	00		 mov	 edx, DWORD PTR ?__LINE__Var@?0??create_oca_sweep_tasks@@YGXXZ@4JA
  00e01	81 c2 b1 00 00
	00		 add	 edx, 177		; 000000b1H
  00e07	52		 push	 edx
  00e08	68 00 00 00 00	 push	 OFFSET ??_C@_0ED@GMECMFKH@c?3?2users?2nhv90?2projects?2eech?2ap@
  00e0d	a1 00 00 00 00	 mov	 eax, DWORD PTR ?null_entity_pointer_message@@3PBDB ; null_entity_pointer_message
  00e12	50		 push	 eax
  00e13	e8 00 00 00 00	 call	 ?process_assert@@YGXPBD0H@Z ; process_assert
  00e18	c7 85 74 ff ff
	ff 00 00 00 00	 mov	 DWORD PTR tv619[ebp], 0
$LN92@create_oca:
  00e22	b9 01 00 00 00	 mov	 ecx, 1
  00e27	85 c9		 test	 ecx, ecx
  00e29	74 0c		 je	 SHORT $LN93@create_oca
  00e2b	c7 85 70 ff ff
	ff 0e 00 00 00	 mov	 DWORD PTR tv627[ebp], 14 ; 0000000eH
  00e35	eb 27		 jmp	 SHORT $LN94@create_oca
$LN93@create_oca:
  00e37	8b 15 00 00 00
	00		 mov	 edx, DWORD PTR ?__LINE__Var@?0??create_oca_sweep_tasks@@YGXXZ@4JA
  00e3d	81 c2 b1 00 00
	00		 add	 edx, 177		; 000000b1H
  00e43	52		 push	 edx
  00e44	68 00 00 00 00	 push	 OFFSET ??_C@_0ED@GMECMFKH@c?3?2users?2nhv90?2projects?2eech?2ap@
  00e49	a1 00 00 00 00	 mov	 eax, DWORD PTR ?overload_invalid_list_type_message@@3PBDB ; overload_invalid_list_type_message
  00e4e	50		 push	 eax
  00e4f	e8 00 00 00 00	 call	 ?process_assert@@YGXPBD0H@Z ; process_assert
  00e54	c7 85 70 ff ff
	ff 00 00 00 00	 mov	 DWORD PTR tv627[ebp], 0
$LN94@create_oca:
  00e5e	6a 0e		 push	 14			; 0000000eH
  00e60	8b 4d f4	 mov	 ecx, DWORD PTR _force$[ebp]
  00e63	51		 push	 ecx
  00e64	69 95 74 ff ff
	ff b4 00 00 00	 imul	 edx, DWORD PTR tv619[ebp], 180
  00e6e	8b 85 70 ff ff
	ff		 mov	 eax, DWORD PTR tv627[ebp]
  00e74	8b 8c 82 00 00
	00 00		 mov	 ecx, DWORD PTR ?fn_get_local_entity_child_succ@@3PAY0CN@P6GPAUENTITY@@PAU1@W4LIST_TYPES@@@ZA[edx+eax*4]
  00e7b	ff d1		 call	 ecx
  00e7d	89 45 f4	 mov	 DWORD PTR _force$[ebp], eax

; 1647 : 	}

  00e80	e9 69 f2 ff ff	 jmp	 $LN2@create_oca
$LN3@create_oca:

; 1648 : }

  00e85	5f		 pop	 edi
  00e86	5e		 pop	 esi
  00e87	5b		 pop	 ebx
  00e88	8b e5		 mov	 esp, ebp
  00e8a	5d		 pop	 ebp
  00e8b	c3		 ret	 0
?create_oca_sweep_tasks@@YGXXZ ENDP			; create_oca_sweep_tasks
_TEXT	ENDS
; Function compile flags: /Odtp /ZI
; File c:\users\nhv90\projects\eech\aphavoc\source\ai\highlevl\highlevl.c
;	COMDAT ?create_oca_strike_tasks@@YGXXZ
_TEXT	SEGMENT
tv866 = -168						; size = 8
tv926 = -160						; size = 8
tv570 = -156						; size = 4
tv858 = -152						; size = 8
tv562 = -152						; size = 4
tv554 = -148						; size = 4
tv777 = -144						; size = 8
tv768 = -144						; size = 8
tv758 = -144						; size = 8
tv627 = -144						; size = 4
tv544 = -144						; size = 4
tv484 = -144						; size = 4
tv462 = -144						; size = 4
tv437 = -144						; size = 4
tv386 = -144						; size = 4
tv366 = -144						; size = 4
tv299 = -144						; size = 4
tv268 = -144						; size = 4
tv247 = -144						; size = 4
tv228 = -144						; size = 4
tv208 = -144						; size = 4
tv187 = -144						; size = 4
tv165 = -144						; size = 4
tv145 = -144						; size = 4
tv86 = -144						; size = 4
tv619 = -140						; size = 4
tv536 = -140						; size = 4
tv477 = -140						; size = 4
tv454 = -140						; size = 4
tv429 = -140						; size = 4
tv378 = -140						; size = 4
tv358 = -140						; size = 4
tv291 = -140						; size = 4
tv260 = -140						; size = 4
tv240 = -140						; size = 4
tv221 = -140						; size = 4
tv200 = -140						; size = 4
tv179 = -140						; size = 4
tv157 = -140						; size = 4
tv137 = -140						; size = 4
tv78 = -140						; size = 4
$T1 = -136						; size = 4
_max_rating$ = -68					; size = 4
_ratio$ = -64						; size = 4
_rating$ = -60						; size = 4
_priority$ = -56					; size = 4
_keysite_type$ = -52					; size = 4
_count$ = -48						; size = 4
_loop$ = -44						; size = 4
_z$ = -40						; size = 4
_x$ = -36						; size = 4
_pos$ = -32						; size = 4
_keysite$ = -28						; size = 4
_new_task$ = -24					; size = 4
_target_force$ = -20					; size = 4
_sector$ = -16						; size = 4
_force$ = -12						; size = 4
_this_side$ = -8					; size = 4
_side$ = -4						; size = 4
?create_oca_strike_tasks@@YGXXZ PROC			; create_oca_strike_tasks, COMDAT

; 1283 : {

  00000	55		 push	 ebp
  00001	8b ec		 mov	 ebp, esp
  00003	81 ec a8 00 00
	00		 sub	 esp, 168		; 000000a8H
  00009	53		 push	 ebx
  0000a	56		 push	 esi
  0000b	57		 push	 edi

; 1284 : 	entity_sides
; 1285 : 		side,
; 1286 : 		this_side;
; 1287 : 
; 1288 : 	entity
; 1289 : 		*force,
; 1290 : 		*sector,
; 1291 : 		*target_force,
; 1292 : 		*new_task,
; 1293 : 		*keysite;
; 1294 : 
; 1295 : 	vec3d
; 1296 : 		*pos;
; 1297 : 
; 1298 : 	int
; 1299 : 		x,
; 1300 : 		z,
; 1301 : 		loop,
; 1302 : 		count,
; 1303 : 		keysite_type;
; 1304 : 
; 1305 : 	float
; 1306 : 		priority,
; 1307 : 		rating,
; 1308 : 		ratio,
; 1309 : 		max_rating;
; 1310 : 
; 1311 : 	ASSERT (get_comms_model () == COMMS_MODEL_SERVER);

  0000c	83 3d 00 00 00
	00 00		 cmp	 DWORD PTR ?system_comms_model@@3W4COMMS_MODEL_TYPES@@A, 0 ; system_comms_model
  00013	74 18		 je	 SHORT $LN11@create_oca
  00015	a1 00 00 00 00	 mov	 eax, DWORD PTR ?__LINE__Var@?0??create_oca_strike_tasks@@YGXXZ@4JA
  0001a	83 c0 1c	 add	 eax, 28			; 0000001cH
  0001d	50		 push	 eax
  0001e	68 00 00 00 00	 push	 OFFSET ??_C@_0ED@GMECMFKH@c?3?2users?2nhv90?2projects?2eech?2ap@
  00023	68 00 00 00 00	 push	 OFFSET ??_C@_0CJ@DMBLBJBK@get_comms_model?5?$CI?$CJ?5?$DN?$DN?5COMMS_MOD@
  00028	e8 00 00 00 00	 call	 ?process_assert@@YGXPBD0H@Z ; process_assert
$LN11@create_oca:

; 1312 : 
; 1313 : 	ai_log ("==========================");

  0002d	68 00 00 00 00	 push	 OFFSET ??_C@_0BL@EBIHNBEK@?$DN?$DN?$DN?$DN?$DN?$DN?$DN?$DN?$DN?$DN?$DN?$DN?$DN?$DN?$DN?$DN?$DN?$DN?$DN?$DN?$DN?$DN?$DN?$DN?$DN?$DN@
  00032	e8 00 00 00 00	 call	 ?ai_log@@YAXPBDZZ	; ai_log
  00037	83 c4 04	 add	 esp, 4

; 1314 : 	ai_log ("CREATE OCA STRIKE TASKS");

  0003a	68 00 00 00 00	 push	 OFFSET ??_C@_0BI@ELAFCIHN@CREATE?5OCA?5STRIKE?5TASKS@
  0003f	e8 00 00 00 00	 call	 ?ai_log@@YAXPBDZZ	; ai_log
  00044	83 c4 04	 add	 esp, 4

; 1315 : 	ai_log ("--------------------------");

  00047	68 00 00 00 00	 push	 OFFSET ??_C@_0BL@JMBEPNBE@?9?9?9?9?9?9?9?9?9?9?9?9?9?9?9?9?9?9?9?9?9?9?9?9?9?9@
  0004c	e8 00 00 00 00	 call	 ?ai_log@@YAXPBDZZ	; ai_log
  00051	83 c4 04	 add	 esp, 4

; 1316 : 
; 1317 : 	force = get_local_entity_first_child (get_session_entity (), LIST_TYPE_FORCE);

  00054	83 3d 00 00 00
	00 00		 cmp	 DWORD PTR ?session_entity@@3PAUENTITY@@A, 0 ; session_entity
  0005b	74 0f		 je	 SHORT $LN25@create_oca
  0005d	a1 00 00 00 00	 mov	 eax, DWORD PTR ?session_entity@@3PAUENTITY@@A ; session_entity
  00062	8b 08		 mov	 ecx, DWORD PTR [eax]
  00064	89 8d 74 ff ff
	ff		 mov	 DWORD PTR tv78[ebp], ecx
  0006a	eb 24		 jmp	 SHORT $LN26@create_oca
$LN25@create_oca:
  0006c	8b 15 00 00 00
	00		 mov	 edx, DWORD PTR ?__LINE__Var@?0??create_oca_strike_tasks@@YGXXZ@4JA
  00072	83 c2 22	 add	 edx, 34			; 00000022H
  00075	52		 push	 edx
  00076	68 00 00 00 00	 push	 OFFSET ??_C@_0ED@GMECMFKH@c?3?2users?2nhv90?2projects?2eech?2ap@
  0007b	a1 00 00 00 00	 mov	 eax, DWORD PTR ?null_entity_pointer_message@@3PBDB ; null_entity_pointer_message
  00080	50		 push	 eax
  00081	e8 00 00 00 00	 call	 ?process_assert@@YGXPBD0H@Z ; process_assert
  00086	c7 85 74 ff ff
	ff 00 00 00 00	 mov	 DWORD PTR tv78[ebp], 0
$LN26@create_oca:
  00090	b9 01 00 00 00	 mov	 ecx, 1
  00095	85 c9		 test	 ecx, ecx
  00097	74 0c		 je	 SHORT $LN27@create_oca
  00099	c7 85 70 ff ff
	ff 0e 00 00 00	 mov	 DWORD PTR tv86[ebp], 14	; 0000000eH
  000a3	eb 24		 jmp	 SHORT $LN28@create_oca
$LN27@create_oca:
  000a5	8b 15 00 00 00
	00		 mov	 edx, DWORD PTR ?__LINE__Var@?0??create_oca_strike_tasks@@YGXXZ@4JA
  000ab	83 c2 22	 add	 edx, 34			; 00000022H
  000ae	52		 push	 edx
  000af	68 00 00 00 00	 push	 OFFSET ??_C@_0ED@GMECMFKH@c?3?2users?2nhv90?2projects?2eech?2ap@
  000b4	a1 00 00 00 00	 mov	 eax, DWORD PTR ?overload_invalid_list_type_message@@3PBDB ; overload_invalid_list_type_message
  000b9	50		 push	 eax
  000ba	e8 00 00 00 00	 call	 ?process_assert@@YGXPBD0H@Z ; process_assert
  000bf	c7 85 70 ff ff
	ff 00 00 00 00	 mov	 DWORD PTR tv86[ebp], 0
$LN28@create_oca:
  000c9	6a 0e		 push	 14			; 0000000eH
  000cb	8b 0d 00 00 00
	00		 mov	 ecx, DWORD PTR ?session_entity@@3PAUENTITY@@A ; session_entity
  000d1	51		 push	 ecx
  000d2	69 95 74 ff ff
	ff b4 00 00 00	 imul	 edx, DWORD PTR tv78[ebp], 180
  000dc	8b 85 70 ff ff
	ff		 mov	 eax, DWORD PTR tv86[ebp]
  000e2	8b 8c 82 00 00
	00 00		 mov	 ecx, DWORD PTR ?fn_get_local_entity_first_child@@3PAY0CN@P6GPAUENTITY@@PAU1@W4LIST_TYPES@@@ZA[edx+eax*4]
  000e9	ff d1		 call	 ecx
  000eb	89 45 f4	 mov	 DWORD PTR _force$[ebp], eax
$LN2@create_oca:

; 1318 : 
; 1319 : 	while (force)

  000ee	83 7d f4 00	 cmp	 DWORD PTR _force$[ebp], 0
  000f2	0f 84 8d 0d 00
	00		 je	 $LN3@create_oca

; 1320 : 	{
; 1321 : 		//
; 1322 : 		// for each force ( excluding our own ) spin through the list of keysites and select viable targets
; 1323 : 		//
; 1324 : 	
; 1325 : 		memset (target_list, 0, sizeof (entity *) * MAX_HIGHLEVEL_TARGET_CHECKS);

  000f8	68 80 02 00 00	 push	 640			; 00000280H
  000fd	6a 00		 push	 0
  000ff	68 00 00 00 00	 push	 OFFSET ?target_list@@3PAPAUENTITY@@A
  00104	e8 00 00 00 00	 call	 _memset
  00109	83 c4 0c	 add	 esp, 12			; 0000000cH

; 1326 : 
; 1327 : 		memset (target_rating, 0, sizeof (float) * MAX_HIGHLEVEL_TARGET_CHECKS);

  0010c	68 80 02 00 00	 push	 640			; 00000280H
  00111	6a 00		 push	 0
  00113	68 00 00 00 00	 push	 OFFSET ?target_rating@@3PAMA
  00118	e8 00 00 00 00	 call	 _memset
  0011d	83 c4 0c	 add	 esp, 12			; 0000000cH

; 1328 : 
; 1329 : 		count = 0;

  00120	c7 45 d0 00 00
	00 00		 mov	 DWORD PTR _count$[ebp], 0

; 1330 : 
; 1331 : 		this_side = (entity_sides) get_local_entity_int_value (force, INT_TYPE_SIDE);

  00127	83 7d f4 00	 cmp	 DWORD PTR _force$[ebp], 0
  0012b	74 0d		 je	 SHORT $LN29@create_oca
  0012d	8b 45 f4	 mov	 eax, DWORD PTR _force$[ebp]
  00130	8b 08		 mov	 ecx, DWORD PTR [eax]
  00132	89 8d 74 ff ff
	ff		 mov	 DWORD PTR tv137[ebp], ecx
  00138	eb 24		 jmp	 SHORT $LN30@create_oca
$LN29@create_oca:
  0013a	8b 15 00 00 00
	00		 mov	 edx, DWORD PTR ?__LINE__Var@?0??create_oca_strike_tasks@@YGXXZ@4JA
  00140	83 c2 30	 add	 edx, 48			; 00000030H
  00143	52		 push	 edx
  00144	68 00 00 00 00	 push	 OFFSET ??_C@_0ED@GMECMFKH@c?3?2users?2nhv90?2projects?2eech?2ap@
  00149	a1 00 00 00 00	 mov	 eax, DWORD PTR ?null_entity_pointer_message@@3PBDB ; null_entity_pointer_message
  0014e	50		 push	 eax
  0014f	e8 00 00 00 00	 call	 ?process_assert@@YGXPBD0H@Z ; process_assert
  00154	c7 85 74 ff ff
	ff 00 00 00 00	 mov	 DWORD PTR tv137[ebp], 0
$LN30@create_oca:
  0015e	b9 01 00 00 00	 mov	 ecx, 1
  00163	85 c9		 test	 ecx, ecx
  00165	74 0c		 je	 SHORT $LN31@create_oca
  00167	c7 85 70 ff ff
	ff bb 00 00 00	 mov	 DWORD PTR tv145[ebp], 187 ; 000000bbH
  00171	eb 24		 jmp	 SHORT $LN32@create_oca
$LN31@create_oca:
  00173	8b 15 00 00 00
	00		 mov	 edx, DWORD PTR ?__LINE__Var@?0??create_oca_strike_tasks@@YGXXZ@4JA
  00179	83 c2 30	 add	 edx, 48			; 00000030H
  0017c	52		 push	 edx
  0017d	68 00 00 00 00	 push	 OFFSET ??_C@_0ED@GMECMFKH@c?3?2users?2nhv90?2projects?2eech?2ap@
  00182	a1 00 00 00 00	 mov	 eax, DWORD PTR ?overload_invalid_int_type_message@@3PBDB ; overload_invalid_int_type_message
  00187	50		 push	 eax
  00188	e8 00 00 00 00	 call	 ?process_assert@@YGXPBD0H@Z ; process_assert
  0018d	c7 85 70 ff ff
	ff 00 00 00 00	 mov	 DWORD PTR tv145[ebp], 0
$LN32@create_oca:
  00197	68 bb 00 00 00	 push	 187			; 000000bbH
  0019c	8b 4d f4	 mov	 ecx, DWORD PTR _force$[ebp]
  0019f	51		 push	 ecx
  001a0	69 95 74 ff ff
	ff 5c 04 00 00	 imul	 edx, DWORD PTR tv137[ebp], 1116
  001aa	8b 85 70 ff ff
	ff		 mov	 eax, DWORD PTR tv145[ebp]
  001b0	8b 8c 82 00 00
	00 00		 mov	 ecx, DWORD PTR ?fn_get_local_entity_int_value@@3PAY0BBH@P6GHPAUENTITY@@W4INT_TYPES@@@ZA[edx+eax*4]
  001b7	ff d1		 call	 ecx
  001b9	89 45 f8	 mov	 DWORD PTR _this_side$[ebp], eax

; 1332 : 	
; 1333 : 		target_force = get_local_entity_first_child (get_session_entity(), LIST_TYPE_FORCE);

  001bc	83 3d 00 00 00
	00 00		 cmp	 DWORD PTR ?session_entity@@3PAUENTITY@@A, 0 ; session_entity
  001c3	74 0f		 je	 SHORT $LN33@create_oca
  001c5	a1 00 00 00 00	 mov	 eax, DWORD PTR ?session_entity@@3PAUENTITY@@A ; session_entity
  001ca	8b 08		 mov	 ecx, DWORD PTR [eax]
  001cc	89 8d 74 ff ff
	ff		 mov	 DWORD PTR tv157[ebp], ecx
  001d2	eb 24		 jmp	 SHORT $LN34@create_oca
$LN33@create_oca:
  001d4	8b 15 00 00 00
	00		 mov	 edx, DWORD PTR ?__LINE__Var@?0??create_oca_strike_tasks@@YGXXZ@4JA
  001da	83 c2 32	 add	 edx, 50			; 00000032H
  001dd	52		 push	 edx
  001de	68 00 00 00 00	 push	 OFFSET ??_C@_0ED@GMECMFKH@c?3?2users?2nhv90?2projects?2eech?2ap@
  001e3	a1 00 00 00 00	 mov	 eax, DWORD PTR ?null_entity_pointer_message@@3PBDB ; null_entity_pointer_message
  001e8	50		 push	 eax
  001e9	e8 00 00 00 00	 call	 ?process_assert@@YGXPBD0H@Z ; process_assert
  001ee	c7 85 74 ff ff
	ff 00 00 00 00	 mov	 DWORD PTR tv157[ebp], 0
$LN34@create_oca:
  001f8	b9 01 00 00 00	 mov	 ecx, 1
  001fd	85 c9		 test	 ecx, ecx
  001ff	74 0c		 je	 SHORT $LN35@create_oca
  00201	c7 85 70 ff ff
	ff 0e 00 00 00	 mov	 DWORD PTR tv165[ebp], 14 ; 0000000eH
  0020b	eb 24		 jmp	 SHORT $LN36@create_oca
$LN35@create_oca:
  0020d	8b 15 00 00 00
	00		 mov	 edx, DWORD PTR ?__LINE__Var@?0??create_oca_strike_tasks@@YGXXZ@4JA
  00213	83 c2 32	 add	 edx, 50			; 00000032H
  00216	52		 push	 edx
  00217	68 00 00 00 00	 push	 OFFSET ??_C@_0ED@GMECMFKH@c?3?2users?2nhv90?2projects?2eech?2ap@
  0021c	a1 00 00 00 00	 mov	 eax, DWORD PTR ?overload_invalid_list_type_message@@3PBDB ; overload_invalid_list_type_message
  00221	50		 push	 eax
  00222	e8 00 00 00 00	 call	 ?process_assert@@YGXPBD0H@Z ; process_assert
  00227	c7 85 70 ff ff
	ff 00 00 00 00	 mov	 DWORD PTR tv165[ebp], 0
$LN36@create_oca:
  00231	6a 0e		 push	 14			; 0000000eH
  00233	8b 0d 00 00 00
	00		 mov	 ecx, DWORD PTR ?session_entity@@3PAUENTITY@@A ; session_entity
  00239	51		 push	 ecx
  0023a	69 95 74 ff ff
	ff b4 00 00 00	 imul	 edx, DWORD PTR tv157[ebp], 180
  00244	8b 85 70 ff ff
	ff		 mov	 eax, DWORD PTR tv165[ebp]
  0024a	8b 8c 82 00 00
	00 00		 mov	 ecx, DWORD PTR ?fn_get_local_entity_first_child@@3PAY0CN@P6GPAUENTITY@@PAU1@W4LIST_TYPES@@@ZA[edx+eax*4]
  00251	ff d1		 call	 ecx
  00253	89 45 ec	 mov	 DWORD PTR _target_force$[ebp], eax
$LN4@create_oca:

; 1334 : 	
; 1335 : 		while ((target_force) && (count < MAX_HIGHLEVEL_TARGET_CHECKS))

  00256	83 7d ec 00	 cmp	 DWORD PTR _target_force$[ebp], 0
  0025a	0f 84 44 06 00
	00		 je	 $LN5@create_oca
  00260	81 7d d0 a0 00
	00 00		 cmp	 DWORD PTR _count$[ebp], 160 ; 000000a0H
  00267	0f 8d 37 06 00
	00		 jge	 $LN5@create_oca

; 1336 : 		{
; 1337 : 			side = (entity_sides) get_local_entity_int_value (target_force, INT_TYPE_SIDE);

  0026d	83 7d ec 00	 cmp	 DWORD PTR _target_force$[ebp], 0
  00271	74 0d		 je	 SHORT $LN37@create_oca
  00273	8b 45 ec	 mov	 eax, DWORD PTR _target_force$[ebp]
  00276	8b 08		 mov	 ecx, DWORD PTR [eax]
  00278	89 8d 74 ff ff
	ff		 mov	 DWORD PTR tv179[ebp], ecx
  0027e	eb 24		 jmp	 SHORT $LN38@create_oca
$LN37@create_oca:
  00280	8b 15 00 00 00
	00		 mov	 edx, DWORD PTR ?__LINE__Var@?0??create_oca_strike_tasks@@YGXXZ@4JA
  00286	83 c2 36	 add	 edx, 54			; 00000036H
  00289	52		 push	 edx
  0028a	68 00 00 00 00	 push	 OFFSET ??_C@_0ED@GMECMFKH@c?3?2users?2nhv90?2projects?2eech?2ap@
  0028f	a1 00 00 00 00	 mov	 eax, DWORD PTR ?null_entity_pointer_message@@3PBDB ; null_entity_pointer_message
  00294	50		 push	 eax
  00295	e8 00 00 00 00	 call	 ?process_assert@@YGXPBD0H@Z ; process_assert
  0029a	c7 85 74 ff ff
	ff 00 00 00 00	 mov	 DWORD PTR tv179[ebp], 0
$LN38@create_oca:
  002a4	b9 01 00 00 00	 mov	 ecx, 1
  002a9	85 c9		 test	 ecx, ecx
  002ab	74 0c		 je	 SHORT $LN39@create_oca
  002ad	c7 85 70 ff ff
	ff bb 00 00 00	 mov	 DWORD PTR tv187[ebp], 187 ; 000000bbH
  002b7	eb 24		 jmp	 SHORT $LN40@create_oca
$LN39@create_oca:
  002b9	8b 15 00 00 00
	00		 mov	 edx, DWORD PTR ?__LINE__Var@?0??create_oca_strike_tasks@@YGXXZ@4JA
  002bf	83 c2 36	 add	 edx, 54			; 00000036H
  002c2	52		 push	 edx
  002c3	68 00 00 00 00	 push	 OFFSET ??_C@_0ED@GMECMFKH@c?3?2users?2nhv90?2projects?2eech?2ap@
  002c8	a1 00 00 00 00	 mov	 eax, DWORD PTR ?overload_invalid_int_type_message@@3PBDB ; overload_invalid_int_type_message
  002cd	50		 push	 eax
  002ce	e8 00 00 00 00	 call	 ?process_assert@@YGXPBD0H@Z ; process_assert
  002d3	c7 85 70 ff ff
	ff 00 00 00 00	 mov	 DWORD PTR tv187[ebp], 0
$LN40@create_oca:
  002dd	68 bb 00 00 00	 push	 187			; 000000bbH
  002e2	8b 4d ec	 mov	 ecx, DWORD PTR _target_force$[ebp]
  002e5	51		 push	 ecx
  002e6	69 95 74 ff ff
	ff 5c 04 00 00	 imul	 edx, DWORD PTR tv179[ebp], 1116
  002f0	8b 85 70 ff ff
	ff		 mov	 eax, DWORD PTR tv187[ebp]
  002f6	8b 8c 82 00 00
	00 00		 mov	 ecx, DWORD PTR ?fn_get_local_entity_int_value@@3PAY0BBH@P6GHPAUENTITY@@W4INT_TYPES@@@ZA[edx+eax*4]
  002fd	ff d1		 call	 ecx
  002ff	89 45 fc	 mov	 DWORD PTR _side$[ebp], eax

; 1338 : 	
; 1339 : 			if (side != this_side)

  00302	8b 45 fc	 mov	 eax, DWORD PTR _side$[ebp]
  00305	3b 45 f8	 cmp	 eax, DWORD PTR _this_side$[ebp]
  00308	0f 84 ff 04 00
	00		 je	 $LN7@create_oca

; 1340 : 			{
; 1341 : 				keysite = get_local_entity_first_child (target_force, LIST_TYPE_KEYSITE_FORCE);

  0030e	83 7d ec 00	 cmp	 DWORD PTR _target_force$[ebp], 0
  00312	74 0d		 je	 SHORT $LN41@create_oca
  00314	8b 45 ec	 mov	 eax, DWORD PTR _target_force$[ebp]
  00317	8b 08		 mov	 ecx, DWORD PTR [eax]
  00319	89 8d 74 ff ff
	ff		 mov	 DWORD PTR tv200[ebp], ecx
  0031f	eb 24		 jmp	 SHORT $LN42@create_oca
$LN41@create_oca:
  00321	8b 15 00 00 00
	00		 mov	 edx, DWORD PTR ?__LINE__Var@?0??create_oca_strike_tasks@@YGXXZ@4JA
  00327	83 c2 3a	 add	 edx, 58			; 0000003aH
  0032a	52		 push	 edx
  0032b	68 00 00 00 00	 push	 OFFSET ??_C@_0ED@GMECMFKH@c?3?2users?2nhv90?2projects?2eech?2ap@
  00330	a1 00 00 00 00	 mov	 eax, DWORD PTR ?null_entity_pointer_message@@3PBDB ; null_entity_pointer_message
  00335	50		 push	 eax
  00336	e8 00 00 00 00	 call	 ?process_assert@@YGXPBD0H@Z ; process_assert
  0033b	c7 85 74 ff ff
	ff 00 00 00 00	 mov	 DWORD PTR tv200[ebp], 0
$LN42@create_oca:
  00345	b9 01 00 00 00	 mov	 ecx, 1
  0034a	85 c9		 test	 ecx, ecx
  0034c	74 0c		 je	 SHORT $LN43@create_oca
  0034e	c7 85 70 ff ff
	ff 15 00 00 00	 mov	 DWORD PTR tv208[ebp], 21 ; 00000015H
  00358	eb 24		 jmp	 SHORT $LN44@create_oca
$LN43@create_oca:
  0035a	8b 15 00 00 00
	00		 mov	 edx, DWORD PTR ?__LINE__Var@?0??create_oca_strike_tasks@@YGXXZ@4JA
  00360	83 c2 3a	 add	 edx, 58			; 0000003aH
  00363	52		 push	 edx
  00364	68 00 00 00 00	 push	 OFFSET ??_C@_0ED@GMECMFKH@c?3?2users?2nhv90?2projects?2eech?2ap@
  00369	a1 00 00 00 00	 mov	 eax, DWORD PTR ?overload_invalid_list_type_message@@3PBDB ; overload_invalid_list_type_message
  0036e	50		 push	 eax
  0036f	e8 00 00 00 00	 call	 ?process_assert@@YGXPBD0H@Z ; process_assert
  00374	c7 85 70 ff ff
	ff 00 00 00 00	 mov	 DWORD PTR tv208[ebp], 0
$LN44@create_oca:
  0037e	6a 15		 push	 21			; 00000015H
  00380	8b 4d ec	 mov	 ecx, DWORD PTR _target_force$[ebp]
  00383	51		 push	 ecx
  00384	69 95 74 ff ff
	ff b4 00 00 00	 imul	 edx, DWORD PTR tv200[ebp], 180
  0038e	8b 85 70 ff ff
	ff		 mov	 eax, DWORD PTR tv208[ebp]
  00394	8b 8c 82 00 00
	00 00		 mov	 ecx, DWORD PTR ?fn_get_local_entity_first_child@@3PAY0CN@P6GPAUENTITY@@PAU1@W4LIST_TYPES@@@ZA[edx+eax*4]
  0039b	ff d1		 call	 ecx
  0039d	89 45 e4	 mov	 DWORD PTR _keysite$[ebp], eax
$LN6@create_oca:

; 1342 : 	
; 1343 : 				while ((keysite) && (count < MAX_HIGHLEVEL_TARGET_CHECKS))

  003a0	83 7d e4 00	 cmp	 DWORD PTR _keysite$[ebp], 0
  003a4	0f 84 63 04 00
	00		 je	 $LN7@create_oca
  003aa	81 7d d0 a0 00
	00 00		 cmp	 DWORD PTR _count$[ebp], 160 ; 000000a0H
  003b1	0f 8d 56 04 00
	00		 jge	 $LN7@create_oca

; 1344 : 				{
; 1345 : 					if ((get_local_entity_int_value (keysite, INT_TYPE_IN_USE)) && (get_local_entity_int_value (keysite, INT_TYPE_ALIVE)))

  003b7	83 7d e4 00	 cmp	 DWORD PTR _keysite$[ebp], 0
  003bb	74 0d		 je	 SHORT $LN45@create_oca
  003bd	8b 45 e4	 mov	 eax, DWORD PTR _keysite$[ebp]
  003c0	8b 08		 mov	 ecx, DWORD PTR [eax]
  003c2	89 8d 74 ff ff
	ff		 mov	 DWORD PTR tv221[ebp], ecx
  003c8	eb 20		 jmp	 SHORT $LN46@create_oca
$LN45@create_oca:
  003ca	68 41 05 00 00	 push	 1345			; 00000541H
  003cf	68 00 00 00 00	 push	 OFFSET ??_C@_0ED@GMECMFKH@c?3?2users?2nhv90?2projects?2eech?2ap@
  003d4	8b 15 00 00 00
	00		 mov	 edx, DWORD PTR ?null_entity_pointer_message@@3PBDB ; null_entity_pointer_message
  003da	52		 push	 edx
  003db	e8 00 00 00 00	 call	 ?process_assert@@YGXPBD0H@Z ; process_assert
  003e0	c7 85 74 ff ff
	ff 00 00 00 00	 mov	 DWORD PTR tv221[ebp], 0
$LN46@create_oca:
  003ea	b8 01 00 00 00	 mov	 eax, 1
  003ef	85 c0		 test	 eax, eax
  003f1	74 0c		 je	 SHORT $LN47@create_oca
  003f3	c7 85 70 ff ff
	ff 6d 00 00 00	 mov	 DWORD PTR tv228[ebp], 109 ; 0000006dH
  003fd	eb 20		 jmp	 SHORT $LN48@create_oca
$LN47@create_oca:
  003ff	68 41 05 00 00	 push	 1345			; 00000541H
  00404	68 00 00 00 00	 push	 OFFSET ??_C@_0ED@GMECMFKH@c?3?2users?2nhv90?2projects?2eech?2ap@
  00409	8b 0d 00 00 00
	00		 mov	 ecx, DWORD PTR ?overload_invalid_int_type_message@@3PBDB ; overload_invalid_int_type_message
  0040f	51		 push	 ecx
  00410	e8 00 00 00 00	 call	 ?process_assert@@YGXPBD0H@Z ; process_assert
  00415	c7 85 70 ff ff
	ff 00 00 00 00	 mov	 DWORD PTR tv228[ebp], 0
$LN48@create_oca:
  0041f	6a 6d		 push	 109			; 0000006dH
  00421	8b 55 e4	 mov	 edx, DWORD PTR _keysite$[ebp]
  00424	52		 push	 edx
  00425	69 85 74 ff ff
	ff 5c 04 00 00	 imul	 eax, DWORD PTR tv221[ebp], 1116
  0042f	8b 8d 70 ff ff
	ff		 mov	 ecx, DWORD PTR tv228[ebp]
  00435	8b 94 88 00 00
	00 00		 mov	 edx, DWORD PTR ?fn_get_local_entity_int_value@@3PAY0BBH@P6GHPAUENTITY@@W4INT_TYPES@@@ZA[eax+ecx*4]
  0043c	ff d2		 call	 edx
  0043e	85 c0		 test	 eax, eax
  00440	0f 84 30 03 00
	00		 je	 $LN16@create_oca
  00446	83 7d e4 00	 cmp	 DWORD PTR _keysite$[ebp], 0
  0044a	74 0d		 je	 SHORT $LN49@create_oca
  0044c	8b 45 e4	 mov	 eax, DWORD PTR _keysite$[ebp]
  0044f	8b 08		 mov	 ecx, DWORD PTR [eax]
  00451	89 8d 74 ff ff
	ff		 mov	 DWORD PTR tv240[ebp], ecx
  00457	eb 20		 jmp	 SHORT $LN50@create_oca
$LN49@create_oca:
  00459	68 41 05 00 00	 push	 1345			; 00000541H
  0045e	68 00 00 00 00	 push	 OFFSET ??_C@_0ED@GMECMFKH@c?3?2users?2nhv90?2projects?2eech?2ap@
  00463	8b 15 00 00 00
	00		 mov	 edx, DWORD PTR ?null_entity_pointer_message@@3PBDB ; null_entity_pointer_message
  00469	52		 push	 edx
  0046a	e8 00 00 00 00	 call	 ?process_assert@@YGXPBD0H@Z ; process_assert
  0046f	c7 85 74 ff ff
	ff 00 00 00 00	 mov	 DWORD PTR tv240[ebp], 0
$LN50@create_oca:
  00479	b8 01 00 00 00	 mov	 eax, 1
  0047e	85 c0		 test	 eax, eax
  00480	74 0c		 je	 SHORT $LN51@create_oca
  00482	c7 85 70 ff ff
	ff 07 00 00 00	 mov	 DWORD PTR tv247[ebp], 7
  0048c	eb 20		 jmp	 SHORT $LN52@create_oca
$LN51@create_oca:
  0048e	68 41 05 00 00	 push	 1345			; 00000541H
  00493	68 00 00 00 00	 push	 OFFSET ??_C@_0ED@GMECMFKH@c?3?2users?2nhv90?2projects?2eech?2ap@
  00498	8b 0d 00 00 00
	00		 mov	 ecx, DWORD PTR ?overload_invalid_int_type_message@@3PBDB ; overload_invalid_int_type_message
  0049e	51		 push	 ecx
  0049f	e8 00 00 00 00	 call	 ?process_assert@@YGXPBD0H@Z ; process_assert
  004a4	c7 85 70 ff ff
	ff 00 00 00 00	 mov	 DWORD PTR tv247[ebp], 0
$LN52@create_oca:
  004ae	6a 07		 push	 7
  004b0	8b 55 e4	 mov	 edx, DWORD PTR _keysite$[ebp]
  004b3	52		 push	 edx
  004b4	69 85 74 ff ff
	ff 5c 04 00 00	 imul	 eax, DWORD PTR tv240[ebp], 1116
  004be	8b 8d 70 ff ff
	ff		 mov	 ecx, DWORD PTR tv247[ebp]
  004c4	8b 94 88 00 00
	00 00		 mov	 edx, DWORD PTR ?fn_get_local_entity_int_value@@3PAY0BBH@P6GHPAUENTITY@@W4INT_TYPES@@@ZA[eax+ecx*4]
  004cb	ff d2		 call	 edx
  004cd	85 c0		 test	 eax, eax
  004cf	0f 84 a1 02 00
	00		 je	 $LN16@create_oca

; 1346 : 					{
; 1347 : 						keysite_type = get_local_entity_int_value (keysite, INT_TYPE_ENTITY_SUB_TYPE);

  004d5	83 7d e4 00	 cmp	 DWORD PTR _keysite$[ebp], 0
  004d9	74 0d		 je	 SHORT $LN53@create_oca
  004db	8b 45 e4	 mov	 eax, DWORD PTR _keysite$[ebp]
  004de	8b 08		 mov	 ecx, DWORD PTR [eax]
  004e0	89 8d 74 ff ff
	ff		 mov	 DWORD PTR tv260[ebp], ecx
  004e6	eb 24		 jmp	 SHORT $LN54@create_oca
$LN53@create_oca:
  004e8	8b 15 00 00 00
	00		 mov	 edx, DWORD PTR ?__LINE__Var@?0??create_oca_strike_tasks@@YGXXZ@4JA
  004ee	83 c2 40	 add	 edx, 64			; 00000040H
  004f1	52		 push	 edx
  004f2	68 00 00 00 00	 push	 OFFSET ??_C@_0ED@GMECMFKH@c?3?2users?2nhv90?2projects?2eech?2ap@
  004f7	a1 00 00 00 00	 mov	 eax, DWORD PTR ?null_entity_pointer_message@@3PBDB ; null_entity_pointer_message
  004fc	50		 push	 eax
  004fd	e8 00 00 00 00	 call	 ?process_assert@@YGXPBD0H@Z ; process_assert
  00502	c7 85 74 ff ff
	ff 00 00 00 00	 mov	 DWORD PTR tv260[ebp], 0
$LN54@create_oca:
  0050c	b9 01 00 00 00	 mov	 ecx, 1
  00511	85 c9		 test	 ecx, ecx
  00513	74 0c		 je	 SHORT $LN55@create_oca
  00515	c7 85 70 ff ff
	ff 34 00 00 00	 mov	 DWORD PTR tv268[ebp], 52 ; 00000034H
  0051f	eb 24		 jmp	 SHORT $LN56@create_oca
$LN55@create_oca:
  00521	8b 15 00 00 00
	00		 mov	 edx, DWORD PTR ?__LINE__Var@?0??create_oca_strike_tasks@@YGXXZ@4JA
  00527	83 c2 40	 add	 edx, 64			; 00000040H
  0052a	52		 push	 edx
  0052b	68 00 00 00 00	 push	 OFFSET ??_C@_0ED@GMECMFKH@c?3?2users?2nhv90?2projects?2eech?2ap@
  00530	a1 00 00 00 00	 mov	 eax, DWORD PTR ?overload_invalid_int_type_message@@3PBDB ; overload_invalid_int_type_message
  00535	50		 push	 eax
  00536	e8 00 00 00 00	 call	 ?process_assert@@YGXPBD0H@Z ; process_assert
  0053b	c7 85 70 ff ff
	ff 00 00 00 00	 mov	 DWORD PTR tv268[ebp], 0
$LN56@create_oca:
  00545	6a 34		 push	 52			; 00000034H
  00547	8b 4d e4	 mov	 ecx, DWORD PTR _keysite$[ebp]
  0054a	51		 push	 ecx
  0054b	69 95 74 ff ff
	ff 5c 04 00 00	 imul	 edx, DWORD PTR tv260[ebp], 1116
  00555	8b 85 70 ff ff
	ff		 mov	 eax, DWORD PTR tv268[ebp]
  0055b	8b 8c 82 00 00
	00 00		 mov	 ecx, DWORD PTR ?fn_get_local_entity_int_value@@3PAY0BBH@P6GHPAUENTITY@@W4INT_TYPES@@@ZA[edx+eax*4]
  00562	ff d1		 call	 ecx
  00564	89 45 cc	 mov	 DWORD PTR _keysite_type$[ebp], eax

; 1348 : 
; 1349 : 						if (keysite_database [keysite_type].oca_target) 

  00567	6b 45 cc 44	 imul	 eax, DWORD PTR _keysite_type$[ebp], 68
  0056b	8b 88 40 00 00
	00		 mov	 ecx, DWORD PTR ?keysite_database@@3PAUKEYSITE_DATA@@A[eax+64]
  00571	c1 e9 08	 shr	 ecx, 8
  00574	83 e1 01	 and	 ecx, 1
  00577	0f 84 f9 01 00
	00		 je	 $LN16@create_oca

; 1350 : 						{
; 1351 : 							ASSERT (count < MAX_HIGHLEVEL_TARGET_CHECKS);

  0057d	81 7d d0 a0 00
	00 00		 cmp	 DWORD PTR _count$[ebp], 160 ; 000000a0H
  00584	7c 18		 jl	 SHORT $LN15@create_oca
  00586	a1 00 00 00 00	 mov	 eax, DWORD PTR ?__LINE__Var@?0??create_oca_strike_tasks@@YGXXZ@4JA
  0058b	83 c0 44	 add	 eax, 68			; 00000044H
  0058e	50		 push	 eax
  0058f	68 00 00 00 00	 push	 OFFSET ??_C@_0ED@GMECMFKH@c?3?2users?2nhv90?2projects?2eech?2ap@
  00594	68 00 00 00 00	 push	 OFFSET ??_C@_0CE@FGAKBBGH@count?5?$DM?5MAX_HIGHLEVEL_TARGET_CH@
  00599	e8 00 00 00 00	 call	 ?process_assert@@YGXPBD0H@Z ; process_assert
$LN15@create_oca:

; 1352 : 	
; 1353 : 							//
; 1354 : 							// get sector
; 1355 : 							//
; 1356 : 	
; 1357 : 							pos = get_local_entity_vec3d_ptr (keysite, VEC3D_TYPE_POSITION);

  0059e	83 7d e4 00	 cmp	 DWORD PTR _keysite$[ebp], 0
  005a2	74 0d		 je	 SHORT $LN57@create_oca
  005a4	8b 45 e4	 mov	 eax, DWORD PTR _keysite$[ebp]
  005a7	8b 08		 mov	 ecx, DWORD PTR [eax]
  005a9	89 8d 74 ff ff
	ff		 mov	 DWORD PTR tv291[ebp], ecx
  005af	eb 24		 jmp	 SHORT $LN58@create_oca
$LN57@create_oca:
  005b1	8b 15 00 00 00
	00		 mov	 edx, DWORD PTR ?__LINE__Var@?0??create_oca_strike_tasks@@YGXXZ@4JA
  005b7	83 c2 4a	 add	 edx, 74			; 0000004aH
  005ba	52		 push	 edx
  005bb	68 00 00 00 00	 push	 OFFSET ??_C@_0ED@GMECMFKH@c?3?2users?2nhv90?2projects?2eech?2ap@
  005c0	a1 00 00 00 00	 mov	 eax, DWORD PTR ?null_entity_pointer_message@@3PBDB ; null_entity_pointer_message
  005c5	50		 push	 eax
  005c6	e8 00 00 00 00	 call	 ?process_assert@@YGXPBD0H@Z ; process_assert
  005cb	c7 85 74 ff ff
	ff 00 00 00 00	 mov	 DWORD PTR tv291[ebp], 0
$LN58@create_oca:
  005d5	b9 01 00 00 00	 mov	 ecx, 1
  005da	85 c9		 test	 ecx, ecx
  005dc	74 0c		 je	 SHORT $LN59@create_oca
  005de	c7 85 70 ff ff
	ff 08 00 00 00	 mov	 DWORD PTR tv299[ebp], 8
  005e8	eb 24		 jmp	 SHORT $LN60@create_oca
$LN59@create_oca:
  005ea	8b 15 00 00 00
	00		 mov	 edx, DWORD PTR ?__LINE__Var@?0??create_oca_strike_tasks@@YGXXZ@4JA
  005f0	83 c2 4a	 add	 edx, 74			; 0000004aH
  005f3	52		 push	 edx
  005f4	68 00 00 00 00	 push	 OFFSET ??_C@_0ED@GMECMFKH@c?3?2users?2nhv90?2projects?2eech?2ap@
  005f9	a1 00 00 00 00	 mov	 eax, DWORD PTR ?overload_invalid_vec3d_type_message@@3PBDB ; overload_invalid_vec3d_type_message
  005fe	50		 push	 eax
  005ff	e8 00 00 00 00	 call	 ?process_assert@@YGXPBD0H@Z ; process_assert
  00604	c7 85 70 ff ff
	ff 00 00 00 00	 mov	 DWORD PTR tv299[ebp], 0
$LN60@create_oca:
  0060e	6a 08		 push	 8
  00610	8b 4d e4	 mov	 ecx, DWORD PTR _keysite$[ebp]
  00613	51		 push	 ecx
  00614	6b 95 74 ff ff
	ff 60		 imul	 edx, DWORD PTR tv291[ebp], 96
  0061b	8b 85 70 ff ff
	ff		 mov	 eax, DWORD PTR tv299[ebp]
  00621	8b 8c 82 00 00
	00 00		 mov	 ecx, DWORD PTR ?fn_get_local_entity_vec3d_ptr@@3PAY0BI@P6GPAUVEC3D@@PAUENTITY@@W4VEC3D_TYPES@@@ZA[edx+eax*4]
  00628	ff d1		 call	 ecx
  0062a	89 45 e0	 mov	 DWORD PTR _pos$[ebp], eax

; 1358 : 								
; 1359 : 							get_x_sector (x, pos->x);

  0062d	8d 45 dc	 lea	 eax, DWORD PTR _x$[ebp]
  00630	50		 push	 eax
  00631	8b 4d e0	 mov	 ecx, DWORD PTR _pos$[ebp]
  00634	f3 0f 10 01	 movss	 xmm0, DWORD PTR [ecx]
  00638	51		 push	 ecx
  00639	f3 0f 11 04 24	 movss	 DWORD PTR [esp], xmm0
  0063e	e8 00 00 00 00	 call	 ?convert_float_to_int@@YGXMPAH@Z ; convert_float_to_int
  00643	8b 45 dc	 mov	 eax, DWORD PTR _x$[ebp]
  00646	99		 cdq
  00647	f7 3d 00 00 00
	00		 idiv	 DWORD PTR ?world_map@@3UWORLD_MAP_DATA@@A
  0064d	89 45 dc	 mov	 DWORD PTR _x$[ebp], eax

; 1360 : 							get_z_sector (z, pos->z);

  00650	8d 45 d8	 lea	 eax, DWORD PTR _z$[ebp]
  00653	50		 push	 eax
  00654	8b 4d e0	 mov	 ecx, DWORD PTR _pos$[ebp]
  00657	f3 0f 10 41 08	 movss	 xmm0, DWORD PTR [ecx+8]
  0065c	51		 push	 ecx
  0065d	f3 0f 11 04 24	 movss	 DWORD PTR [esp], xmm0
  00662	e8 00 00 00 00	 call	 ?convert_float_to_int@@YGXMPAH@Z ; convert_float_to_int
  00667	8b 45 d8	 mov	 eax, DWORD PTR _z$[ebp]
  0066a	99		 cdq
  0066b	f7 3d 00 00 00
	00		 idiv	 DWORD PTR ?world_map@@3UWORLD_MAP_DATA@@A
  00671	89 45 d8	 mov	 DWORD PTR _z$[ebp], eax

; 1361 : 	
; 1362 : 							//
; 1363 : 							// Calculate keysite rating
; 1364 : 							//
; 1365 : 	
; 1366 : 							rating = 0.0;

  00674	0f 57 c0	 xorps	 xmm0, xmm0
  00677	f3 0f 11 45 c4	 movss	 DWORD PTR _rating$[ebp], xmm0

; 1367 : 	
; 1368 : 							// low enemy S-A threat 
; 1369 : 							rating += (1.0 * (1.0 - get_imap_value (IMAP_AIR_DEFENCE, side, x, z)));

  0067c	8b 45 d8	 mov	 eax, DWORD PTR _z$[ebp]
  0067f	50		 push	 eax
  00680	8b 4d dc	 mov	 ecx, DWORD PTR _x$[ebp]
  00683	51		 push	 ecx
  00684	8b 55 fc	 mov	 edx, DWORD PTR _side$[ebp]
  00687	52		 push	 edx
  00688	6a 02		 push	 2
  0068a	e8 00 00 00 00	 call	 ?get_imap_value@@YGMW4IMAP_TYPES@@W4ENTITY_SIDES@@HH@Z ; get_imap_value
  0068f	dd 9d 70 ff ff
	ff		 fstp	 QWORD PTR tv758[ebp]
  00695	f2 0f 10 05 00
	00 00 00	 movsd	 xmm0, QWORD PTR __real@3ff0000000000000
  0069d	f2 0f 5c 85 70
	ff ff ff	 subsd	 xmm0, QWORD PTR tv758[ebp]
  006a5	f2 0f 59 05 00
	00 00 00	 mulsd	 xmm0, QWORD PTR __real@3ff0000000000000
  006ad	f3 0f 5a 4d c4	 cvtss2sd xmm1, DWORD PTR _rating$[ebp]
  006b2	f2 0f 58 c8	 addsd	 xmm1, xmm0
  006b6	f2 0f 5a c1	 cvtsd2ss xmm0, xmm1
  006ba	f3 0f 11 45 c4	 movss	 DWORD PTR _rating$[ebp], xmm0

; 1370 : 	
; 1371 : 							// close to friendly base
; 1372 : 							rating += (4.0 * get_imap_value (IMAP_BASE_DISTANCE, this_side, x, z));

  006bf	8b 45 d8	 mov	 eax, DWORD PTR _z$[ebp]
  006c2	50		 push	 eax
  006c3	8b 4d dc	 mov	 ecx, DWORD PTR _x$[ebp]
  006c6	51		 push	 ecx
  006c7	8b 55 f8	 mov	 edx, DWORD PTR _this_side$[ebp]
  006ca	52		 push	 edx
  006cb	6a 01		 push	 1
  006cd	e8 00 00 00 00	 call	 ?get_imap_value@@YGMW4IMAP_TYPES@@W4ENTITY_SIDES@@HH@Z ; get_imap_value
  006d2	dd 9d 70 ff ff
	ff		 fstp	 QWORD PTR tv768[ebp]
  006d8	f2 0f 10 85 70
	ff ff ff	 movsd	 xmm0, QWORD PTR tv768[ebp]
  006e0	f2 0f 59 05 00
	00 00 00	 mulsd	 xmm0, QWORD PTR __real@4010000000000000
  006e8	f3 0f 5a 4d c4	 cvtss2sd xmm1, DWORD PTR _rating$[ebp]
  006ed	f2 0f 58 c8	 addsd	 xmm1, xmm0
  006f1	f2 0f 5a c1	 cvtsd2ss xmm0, xmm1
  006f5	f3 0f 11 45 c4	 movss	 DWORD PTR _rating$[ebp], xmm0

; 1373 : 
; 1374 : 							// friendly territory
; 1375 : 							rating += (2.0 * get_local_sector_side_ratio (x, z, this_side));

  006fa	8b 45 f8	 mov	 eax, DWORD PTR _this_side$[ebp]
  006fd	50		 push	 eax
  006fe	8b 4d d8	 mov	 ecx, DWORD PTR _z$[ebp]
  00701	51		 push	 ecx
  00702	8b 55 dc	 mov	 edx, DWORD PTR _x$[ebp]
  00705	52		 push	 edx
  00706	e8 00 00 00 00	 call	 ?get_local_sector_side_ratio@@YGMHHW4ENTITY_SIDES@@@Z ; get_local_sector_side_ratio
  0070b	dd 9d 70 ff ff
	ff		 fstp	 QWORD PTR tv777[ebp]
  00711	f2 0f 10 85 70
	ff ff ff	 movsd	 xmm0, QWORD PTR tv777[ebp]
  00719	f2 0f 59 05 00
	00 00 00	 mulsd	 xmm0, QWORD PTR __real@4000000000000000
  00721	f3 0f 5a 4d c4	 cvtss2sd xmm1, DWORD PTR _rating$[ebp]
  00726	f2 0f 58 c8	 addsd	 xmm1, xmm0
  0072a	f2 0f 5a c1	 cvtsd2ss xmm0, xmm1
  0072e	f3 0f 11 45 c4	 movss	 DWORD PTR _rating$[ebp], xmm0

; 1376 : 
; 1377 : 							max_rating = 7.0;

  00733	f3 0f 10 05 00
	00 00 00	 movss	 xmm0, DWORD PTR __real@40e00000
  0073b	f3 0f 11 45 bc	 movss	 DWORD PTR _max_rating$[ebp], xmm0

; 1378 : 
; 1379 : 							//
; 1380 : 							// Store
; 1381 : 							//
; 1382 : 	
; 1383 : 							if (rating > 0.0)

  00740	f3 0f 5a 45 c4	 cvtss2sd xmm0, DWORD PTR _rating$[ebp]
  00745	66 0f 2f 05 00
	00 00 00	 comisd	 xmm0, QWORD PTR __real@0000000000000000
  0074d	76 27		 jbe	 SHORT $LN16@create_oca

; 1384 : 							{
; 1385 : 								target_list [count] = keysite;

  0074f	8b 45 d0	 mov	 eax, DWORD PTR _count$[ebp]
  00752	8b 4d e4	 mov	 ecx, DWORD PTR _keysite$[ebp]
  00755	89 0c 85 00 00
	00 00		 mov	 DWORD PTR ?target_list@@3PAPAUENTITY@@A[eax*4], ecx

; 1386 : 		
; 1387 : 								target_rating [count] = rating;

  0075c	8b 45 d0	 mov	 eax, DWORD PTR _count$[ebp]
  0075f	f3 0f 10 45 c4	 movss	 xmm0, DWORD PTR _rating$[ebp]
  00764	f3 0f 11 04 85
	00 00 00 00	 movss	 DWORD PTR ?target_rating@@3PAMA[eax*4], xmm0

; 1388 : 		
; 1389 : 								count ++;

  0076d	8b 45 d0	 mov	 eax, DWORD PTR _count$[ebp]
  00770	83 c0 01	 add	 eax, 1
  00773	89 45 d0	 mov	 DWORD PTR _count$[ebp], eax
$LN16@create_oca:

; 1390 : 							}
; 1391 : 						}
; 1392 : 					}
; 1393 : 	
; 1394 : 					keysite = get_local_entity_child_succ (keysite, LIST_TYPE_KEYSITE_FORCE);

  00776	83 7d e4 00	 cmp	 DWORD PTR _keysite$[ebp], 0
  0077a	74 0d		 je	 SHORT $LN61@create_oca
  0077c	8b 45 e4	 mov	 eax, DWORD PTR _keysite$[ebp]
  0077f	8b 08		 mov	 ecx, DWORD PTR [eax]
  00781	89 8d 74 ff ff
	ff		 mov	 DWORD PTR tv358[ebp], ecx
  00787	eb 24		 jmp	 SHORT $LN62@create_oca
$LN61@create_oca:
  00789	8b 15 00 00 00
	00		 mov	 edx, DWORD PTR ?__LINE__Var@?0??create_oca_strike_tasks@@YGXXZ@4JA
  0078f	83 c2 6f	 add	 edx, 111		; 0000006fH
  00792	52		 push	 edx
  00793	68 00 00 00 00	 push	 OFFSET ??_C@_0ED@GMECMFKH@c?3?2users?2nhv90?2projects?2eech?2ap@
  00798	a1 00 00 00 00	 mov	 eax, DWORD PTR ?null_entity_pointer_message@@3PBDB ; null_entity_pointer_message
  0079d	50		 push	 eax
  0079e	e8 00 00 00 00	 call	 ?process_assert@@YGXPBD0H@Z ; process_assert
  007a3	c7 85 74 ff ff
	ff 00 00 00 00	 mov	 DWORD PTR tv358[ebp], 0
$LN62@create_oca:
  007ad	b9 01 00 00 00	 mov	 ecx, 1
  007b2	85 c9		 test	 ecx, ecx
  007b4	74 0c		 je	 SHORT $LN63@create_oca
  007b6	c7 85 70 ff ff
	ff 15 00 00 00	 mov	 DWORD PTR tv366[ebp], 21 ; 00000015H
  007c0	eb 24		 jmp	 SHORT $LN64@create_oca
$LN63@create_oca:
  007c2	8b 15 00 00 00
	00		 mov	 edx, DWORD PTR ?__LINE__Var@?0??create_oca_strike_tasks@@YGXXZ@4JA
  007c8	83 c2 6f	 add	 edx, 111		; 0000006fH
  007cb	52		 push	 edx
  007cc	68 00 00 00 00	 push	 OFFSET ??_C@_0ED@GMECMFKH@c?3?2users?2nhv90?2projects?2eech?2ap@
  007d1	a1 00 00 00 00	 mov	 eax, DWORD PTR ?overload_invalid_list_type_message@@3PBDB ; overload_invalid_list_type_message
  007d6	50		 push	 eax
  007d7	e8 00 00 00 00	 call	 ?process_assert@@YGXPBD0H@Z ; process_assert
  007dc	c7 85 70 ff ff
	ff 00 00 00 00	 mov	 DWORD PTR tv366[ebp], 0
$LN64@create_oca:
  007e6	6a 15		 push	 21			; 00000015H
  007e8	8b 4d e4	 mov	 ecx, DWORD PTR _keysite$[ebp]
  007eb	51		 push	 ecx
  007ec	69 95 74 ff ff
	ff b4 00 00 00	 imul	 edx, DWORD PTR tv358[ebp], 180
  007f6	8b 85 70 ff ff
	ff		 mov	 eax, DWORD PTR tv366[ebp]
  007fc	8b 8c 82 00 00
	00 00		 mov	 ecx, DWORD PTR ?fn_get_local_entity_child_succ@@3PAY0CN@P6GPAUENTITY@@PAU1@W4LIST_TYPES@@@ZA[edx+eax*4]
  00803	ff d1		 call	 ecx
  00805	89 45 e4	 mov	 DWORD PTR _keysite$[ebp], eax

; 1395 : 				}

  00808	e9 93 fb ff ff	 jmp	 $LN6@create_oca
$LN7@create_oca:

; 1396 : 			}
; 1397 : 
; 1398 : 			target_force = get_local_entity_child_succ (target_force, LIST_TYPE_FORCE);

  0080d	83 7d ec 00	 cmp	 DWORD PTR _target_force$[ebp], 0
  00811	74 0d		 je	 SHORT $LN65@create_oca
  00813	8b 45 ec	 mov	 eax, DWORD PTR _target_force$[ebp]
  00816	8b 08		 mov	 ecx, DWORD PTR [eax]
  00818	89 8d 74 ff ff
	ff		 mov	 DWORD PTR tv378[ebp], ecx
  0081e	eb 24		 jmp	 SHORT $LN66@create_oca
$LN65@create_oca:
  00820	8b 15 00 00 00
	00		 mov	 edx, DWORD PTR ?__LINE__Var@?0??create_oca_strike_tasks@@YGXXZ@4JA
  00826	83 c2 73	 add	 edx, 115		; 00000073H
  00829	52		 push	 edx
  0082a	68 00 00 00 00	 push	 OFFSET ??_C@_0ED@GMECMFKH@c?3?2users?2nhv90?2projects?2eech?2ap@
  0082f	a1 00 00 00 00	 mov	 eax, DWORD PTR ?null_entity_pointer_message@@3PBDB ; null_entity_pointer_message
  00834	50		 push	 eax
  00835	e8 00 00 00 00	 call	 ?process_assert@@YGXPBD0H@Z ; process_assert
  0083a	c7 85 74 ff ff
	ff 00 00 00 00	 mov	 DWORD PTR tv378[ebp], 0
$LN66@create_oca:
  00844	b9 01 00 00 00	 mov	 ecx, 1
  00849	85 c9		 test	 ecx, ecx
  0084b	74 0c		 je	 SHORT $LN67@create_oca
  0084d	c7 85 70 ff ff
	ff 0e 00 00 00	 mov	 DWORD PTR tv386[ebp], 14 ; 0000000eH
  00857	eb 24		 jmp	 SHORT $LN68@create_oca
$LN67@create_oca:
  00859	8b 15 00 00 00
	00		 mov	 edx, DWORD PTR ?__LINE__Var@?0??create_oca_strike_tasks@@YGXXZ@4JA
  0085f	83 c2 73	 add	 edx, 115		; 00000073H
  00862	52		 push	 edx
  00863	68 00 00 00 00	 push	 OFFSET ??_C@_0ED@GMECMFKH@c?3?2users?2nhv90?2projects?2eech?2ap@
  00868	a1 00 00 00 00	 mov	 eax, DWORD PTR ?overload_invalid_list_type_message@@3PBDB ; overload_invalid_list_type_message
  0086d	50		 push	 eax
  0086e	e8 00 00 00 00	 call	 ?process_assert@@YGXPBD0H@Z ; process_assert
  00873	c7 85 70 ff ff
	ff 00 00 00 00	 mov	 DWORD PTR tv386[ebp], 0
$LN68@create_oca:
  0087d	6a 0e		 push	 14			; 0000000eH
  0087f	8b 4d ec	 mov	 ecx, DWORD PTR _target_force$[ebp]
  00882	51		 push	 ecx
  00883	69 95 74 ff ff
	ff b4 00 00 00	 imul	 edx, DWORD PTR tv378[ebp], 180
  0088d	8b 85 70 ff ff
	ff		 mov	 eax, DWORD PTR tv386[ebp]
  00893	8b 8c 82 00 00
	00 00		 mov	 ecx, DWORD PTR ?fn_get_local_entity_child_succ@@3PAY0CN@P6GPAUENTITY@@PAU1@W4LIST_TYPES@@@ZA[edx+eax*4]
  0089a	ff d1		 call	 ecx
  0089c	89 45 ec	 mov	 DWORD PTR _target_force$[ebp], eax

; 1399 : 		}

  0089f	e9 b2 f9 ff ff	 jmp	 $LN4@create_oca
$LN5@create_oca:

; 1400 : 
; 1401 : 		//
; 1402 : 		// Create tasks
; 1403 : 		//
; 1404 : 
; 1405 : 		if (count > 0)

  008a4	83 7d d0 00	 cmp	 DWORD PTR _count$[ebp], 0
  008a8	0f 8e 3a 05 00
	00		 jle	 $LN9@create_oca

; 1406 : 		{
; 1407 : 			debug_log ("HIGHLEVL: %s %d candidates for OCA STRIKE", entity_side_short_names [this_side], count);

  008ae	8b 45 d0	 mov	 eax, DWORD PTR _count$[ebp]
  008b1	50		 push	 eax
  008b2	8b 4d f8	 mov	 ecx, DWORD PTR _this_side$[ebp]
  008b5	8b 14 8d 00 00
	00 00		 mov	 edx, DWORD PTR ?entity_side_short_names@@3PAPBDA[ecx*4]
  008bc	52		 push	 edx
  008bd	68 00 00 00 00	 push	 OFFSET ??_C@_0CK@EOJIBDHN@HIGHLEVL?3?5?$CFs?5?$CFd?5candidates?5for?5@
  008c2	e8 00 00 00 00	 call	 ?debug_log@@YAXPBDZZ	; debug_log
  008c7	83 c4 0c	 add	 esp, 12			; 0000000cH

; 1408 : 
; 1409 : 			quicksort_entity_list (target_list, count, target_rating);

  008ca	68 00 00 00 00	 push	 OFFSET ?target_rating@@3PAMA
  008cf	8b 45 d0	 mov	 eax, DWORD PTR _count$[ebp]
  008d2	50		 push	 eax
  008d3	68 00 00 00 00	 push	 OFFSET ?target_list@@3PAPAUENTITY@@A
  008d8	e8 00 00 00 00	 call	 ?quicksort_entity_list@@YGXPAPAUENTITY@@HPAM@Z ; quicksort_entity_list

; 1410 : 
; 1411 : 			count = min (count, CREATE_OCA_STRIKE_TASK_COUNT);

  008dd	c7 85 78 ff ff
	ff 01 00 00 00	 mov	 DWORD PTR $T1[ebp], 1
  008e7	8d 85 78 ff ff
	ff		 lea	 eax, DWORD PTR $T1[ebp]
  008ed	50		 push	 eax
  008ee	8d 4d d0	 lea	 ecx, DWORD PTR _count$[ebp]
  008f1	51		 push	 ecx
  008f2	e8 00 00 00 00	 call	 ??$min@H@std@@YGABHABH0@Z ; std::min<int>
  008f7	8b 10		 mov	 edx, DWORD PTR [eax]
  008f9	89 55 d0	 mov	 DWORD PTR _count$[ebp], edx

; 1412 : 
; 1413 : 			ASSERT (target_rating [0] > 0.0);

  008fc	b8 04 00 00 00	 mov	 eax, 4
  00901	6b c8 00	 imul	 ecx, eax, 0
  00904	f3 0f 5a 81 00
	00 00 00	 cvtss2sd xmm0, DWORD PTR ?target_rating@@3PAMA[ecx]
  0090c	66 0f 2f 05 00
	00 00 00	 comisd	 xmm0, QWORD PTR __real@0000000000000000
  00914	77 1a		 ja	 SHORT $LN18@create_oca
  00916	a1 00 00 00 00	 mov	 eax, DWORD PTR ?__LINE__Var@?0??create_oca_strike_tasks@@YGXXZ@4JA
  0091b	05 82 00 00 00	 add	 eax, 130		; 00000082H
  00920	50		 push	 eax
  00921	68 00 00 00 00	 push	 OFFSET ??_C@_0ED@GMECMFKH@c?3?2users?2nhv90?2projects?2eech?2ap@
  00926	68 00 00 00 00	 push	 OFFSET ??_C@_0BI@BNNJCIEB@target_rating?5?$FL0?$FN?5?$DO?50?40@
  0092b	e8 00 00 00 00	 call	 ?process_assert@@YGXPBD0H@Z ; process_assert
$LN18@create_oca:

; 1414 : 
; 1415 : 			for (loop = 0; loop < count; loop ++)

  00930	c7 45 d4 00 00
	00 00		 mov	 DWORD PTR _loop$[ebp], 0
  00937	eb 09		 jmp	 SHORT $LN10@create_oca
$LN8@create_oca:
  00939	8b 45 d4	 mov	 eax, DWORD PTR _loop$[ebp]
  0093c	83 c0 01	 add	 eax, 1
  0093f	89 45 d4	 mov	 DWORD PTR _loop$[ebp], eax
$LN10@create_oca:
  00942	8b 45 d4	 mov	 eax, DWORD PTR _loop$[ebp]
  00945	3b 45 d0	 cmp	 eax, DWORD PTR _count$[ebp]
  00948	0f 8d 9a 04 00
	00		 jge	 $LN9@create_oca

; 1416 : 			{
; 1417 : 				ratio = target_rating [loop] / target_rating [0];

  0094e	b8 04 00 00 00	 mov	 eax, 4
  00953	6b c8 00	 imul	 ecx, eax, 0
  00956	8b 55 d4	 mov	 edx, DWORD PTR _loop$[ebp]
  00959	f3 0f 10 04 95
	00 00 00 00	 movss	 xmm0, DWORD PTR ?target_rating@@3PAMA[edx*4]
  00962	f3 0f 5e 81 00
	00 00 00	 divss	 xmm0, DWORD PTR ?target_rating@@3PAMA[ecx]
  0096a	f3 0f 11 45 c0	 movss	 DWORD PTR _ratio$[ebp], xmm0

; 1418 : 
; 1419 : 				if (ratio >= MIN_TASK_CREATION_RATIO)

  0096f	f3 0f 5a 45 c0	 cvtss2sd xmm0, DWORD PTR _ratio$[ebp]
  00974	66 0f 2f 05 00
	00 00 00	 comisd	 xmm0, QWORD PTR __real@3fe8000000000000
  0097c	0f 82 61 04 00
	00		 jb	 $LN23@create_oca

; 1420 : 				{
; 1421 : 					keysite = target_list [loop];

  00982	8b 45 d4	 mov	 eax, DWORD PTR _loop$[ebp]
  00985	8b 0c 85 00 00
	00 00		 mov	 ecx, DWORD PTR ?target_list@@3PAPAUENTITY@@A[eax*4]
  0098c	89 4d e4	 mov	 DWORD PTR _keysite$[ebp], ecx

; 1422 : 	
; 1423 : 					sector = get_local_entity_parent (keysite, LIST_TYPE_SECTOR);

  0098f	83 7d e4 00	 cmp	 DWORD PTR _keysite$[ebp], 0
  00993	74 0d		 je	 SHORT $LN69@create_oca
  00995	8b 45 e4	 mov	 eax, DWORD PTR _keysite$[ebp]
  00998	8b 08		 mov	 ecx, DWORD PTR [eax]
  0099a	89 8d 74 ff ff
	ff		 mov	 DWORD PTR tv429[ebp], ecx
  009a0	eb 27		 jmp	 SHORT $LN70@create_oca
$LN69@create_oca:
  009a2	8b 15 00 00 00
	00		 mov	 edx, DWORD PTR ?__LINE__Var@?0??create_oca_strike_tasks@@YGXXZ@4JA
  009a8	81 c2 8c 00 00
	00		 add	 edx, 140		; 0000008cH
  009ae	52		 push	 edx
  009af	68 00 00 00 00	 push	 OFFSET ??_C@_0ED@GMECMFKH@c?3?2users?2nhv90?2projects?2eech?2ap@
  009b4	a1 00 00 00 00	 mov	 eax, DWORD PTR ?null_entity_pointer_message@@3PBDB ; null_entity_pointer_message
  009b9	50		 push	 eax
  009ba	e8 00 00 00 00	 call	 ?process_assert@@YGXPBD0H@Z ; process_assert
  009bf	c7 85 74 ff ff
	ff 00 00 00 00	 mov	 DWORD PTR tv429[ebp], 0
$LN70@create_oca:
  009c9	b9 01 00 00 00	 mov	 ecx, 1
  009ce	85 c9		 test	 ecx, ecx
  009d0	74 0c		 je	 SHORT $LN71@create_oca
  009d2	c7 85 70 ff ff
	ff 21 00 00 00	 mov	 DWORD PTR tv437[ebp], 33 ; 00000021H
  009dc	eb 27		 jmp	 SHORT $LN72@create_oca
$LN71@create_oca:
  009de	8b 15 00 00 00
	00		 mov	 edx, DWORD PTR ?__LINE__Var@?0??create_oca_strike_tasks@@YGXXZ@4JA
  009e4	81 c2 8c 00 00
	00		 add	 edx, 140		; 0000008cH
  009ea	52		 push	 edx
  009eb	68 00 00 00 00	 push	 OFFSET ??_C@_0ED@GMECMFKH@c?3?2users?2nhv90?2projects?2eech?2ap@
  009f0	a1 00 00 00 00	 mov	 eax, DWORD PTR ?overload_invalid_list_type_message@@3PBDB ; overload_invalid_list_type_message
  009f5	50		 push	 eax
  009f6	e8 00 00 00 00	 call	 ?process_assert@@YGXPBD0H@Z ; process_assert
  009fb	c7 85 70 ff ff
	ff 00 00 00 00	 mov	 DWORD PTR tv437[ebp], 0
$LN72@create_oca:
  00a05	6a 21		 push	 33			; 00000021H
  00a07	8b 4d e4	 mov	 ecx, DWORD PTR _keysite$[ebp]
  00a0a	51		 push	 ecx
  00a0b	69 95 74 ff ff
	ff b4 00 00 00	 imul	 edx, DWORD PTR tv429[ebp], 180
  00a15	8b 85 70 ff ff
	ff		 mov	 eax, DWORD PTR tv437[ebp]
  00a1b	8b 8c 82 00 00
	00 00		 mov	 ecx, DWORD PTR ?fn_get_local_entity_parent@@3PAY0CN@P6GPAUENTITY@@PAU1@W4LIST_TYPES@@@ZA[edx+eax*4]
  00a22	ff d1		 call	 ecx
  00a24	89 45 f0	 mov	 DWORD PTR _sector$[ebp], eax

; 1424 : 	
; 1425 : 					ASSERT (sector);

  00a27	83 7d f0 00	 cmp	 DWORD PTR _sector$[ebp], 0
  00a2b	75 1a		 jne	 SHORT $LN20@create_oca
  00a2d	a1 00 00 00 00	 mov	 eax, DWORD PTR ?__LINE__Var@?0??create_oca_strike_tasks@@YGXXZ@4JA
  00a32	05 8e 00 00 00	 add	 eax, 142		; 0000008eH
  00a37	50		 push	 eax
  00a38	68 00 00 00 00	 push	 OFFSET ??_C@_0ED@GMECMFKH@c?3?2users?2nhv90?2projects?2eech?2ap@
  00a3d	68 00 00 00 00	 push	 OFFSET ??_C@_06IDGHNJOB@sector@
  00a42	e8 00 00 00 00	 call	 ?process_assert@@YGXPBD0H@Z ; process_assert
$LN20@create_oca:

; 1426 : 					
; 1427 : 					keysite_type = get_local_entity_int_value (keysite, INT_TYPE_ENTITY_SUB_TYPE);

  00a47	83 7d e4 00	 cmp	 DWORD PTR _keysite$[ebp], 0
  00a4b	74 0d		 je	 SHORT $LN73@create_oca
  00a4d	8b 45 e4	 mov	 eax, DWORD PTR _keysite$[ebp]
  00a50	8b 08		 mov	 ecx, DWORD PTR [eax]
  00a52	89 8d 74 ff ff
	ff		 mov	 DWORD PTR tv454[ebp], ecx
  00a58	eb 27		 jmp	 SHORT $LN74@create_oca
$LN73@create_oca:
  00a5a	8b 15 00 00 00
	00		 mov	 edx, DWORD PTR ?__LINE__Var@?0??create_oca_strike_tasks@@YGXXZ@4JA
  00a60	81 c2 90 00 00
	00		 add	 edx, 144		; 00000090H
  00a66	52		 push	 edx
  00a67	68 00 00 00 00	 push	 OFFSET ??_C@_0ED@GMECMFKH@c?3?2users?2nhv90?2projects?2eech?2ap@
  00a6c	a1 00 00 00 00	 mov	 eax, DWORD PTR ?null_entity_pointer_message@@3PBDB ; null_entity_pointer_message
  00a71	50		 push	 eax
  00a72	e8 00 00 00 00	 call	 ?process_assert@@YGXPBD0H@Z ; process_assert
  00a77	c7 85 74 ff ff
	ff 00 00 00 00	 mov	 DWORD PTR tv454[ebp], 0
$LN74@create_oca:
  00a81	b9 01 00 00 00	 mov	 ecx, 1
  00a86	85 c9		 test	 ecx, ecx
  00a88	74 0c		 je	 SHORT $LN75@create_oca
  00a8a	c7 85 70 ff ff
	ff 34 00 00 00	 mov	 DWORD PTR tv462[ebp], 52 ; 00000034H
  00a94	eb 27		 jmp	 SHORT $LN76@create_oca
$LN75@create_oca:
  00a96	8b 15 00 00 00
	00		 mov	 edx, DWORD PTR ?__LINE__Var@?0??create_oca_strike_tasks@@YGXXZ@4JA
  00a9c	81 c2 90 00 00
	00		 add	 edx, 144		; 00000090H
  00aa2	52		 push	 edx
  00aa3	68 00 00 00 00	 push	 OFFSET ??_C@_0ED@GMECMFKH@c?3?2users?2nhv90?2projects?2eech?2ap@
  00aa8	a1 00 00 00 00	 mov	 eax, DWORD PTR ?overload_invalid_int_type_message@@3PBDB ; overload_invalid_int_type_message
  00aad	50		 push	 eax
  00aae	e8 00 00 00 00	 call	 ?process_assert@@YGXPBD0H@Z ; process_assert
  00ab3	c7 85 70 ff ff
	ff 00 00 00 00	 mov	 DWORD PTR tv462[ebp], 0
$LN76@create_oca:
  00abd	6a 34		 push	 52			; 00000034H
  00abf	8b 4d e4	 mov	 ecx, DWORD PTR _keysite$[ebp]
  00ac2	51		 push	 ecx
  00ac3	69 95 74 ff ff
	ff 5c 04 00 00	 imul	 edx, DWORD PTR tv454[ebp], 1116
  00acd	8b 85 70 ff ff
	ff		 mov	 eax, DWORD PTR tv462[ebp]
  00ad3	8b 8c 82 00 00
	00 00		 mov	 ecx, DWORD PTR ?fn_get_local_entity_int_value@@3PAY0BBH@P6GHPAUENTITY@@W4INT_TYPES@@@ZA[edx+eax*4]
  00ada	ff d1		 call	 ecx
  00adc	89 45 cc	 mov	 DWORD PTR _keysite_type$[ebp], eax

; 1428 : 	
; 1429 : 					if (get_sector_fog_of_war_value (sector, this_side) >= (0.25 * get_local_entity_float_value (get_session_entity (), FLOAT_TYPE_FOG_OF_WAR_MAXIMUM_VALUE)))

  00adf	83 3d 00 00 00
	00 00		 cmp	 DWORD PTR ?session_entity@@3PAUENTITY@@A, 0 ; session_entity
  00ae6	74 0f		 je	 SHORT $LN77@create_oca
  00ae8	a1 00 00 00 00	 mov	 eax, DWORD PTR ?session_entity@@3PAUENTITY@@A ; session_entity
  00aed	8b 08		 mov	 ecx, DWORD PTR [eax]
  00aef	89 8d 74 ff ff
	ff		 mov	 DWORD PTR tv477[ebp], ecx
  00af5	eb 20		 jmp	 SHORT $LN78@create_oca
$LN77@create_oca:
  00af7	68 95 05 00 00	 push	 1429			; 00000595H
  00afc	68 00 00 00 00	 push	 OFFSET ??_C@_0ED@GMECMFKH@c?3?2users?2nhv90?2projects?2eech?2ap@
  00b01	8b 15 00 00 00
	00		 mov	 edx, DWORD PTR ?null_entity_pointer_message@@3PBDB ; null_entity_pointer_message
  00b07	52		 push	 edx
  00b08	e8 00 00 00 00	 call	 ?process_assert@@YGXPBD0H@Z ; process_assert
  00b0d	c7 85 74 ff ff
	ff 00 00 00 00	 mov	 DWORD PTR tv477[ebp], 0
$LN78@create_oca:
  00b17	b8 01 00 00 00	 mov	 eax, 1
  00b1c	85 c0		 test	 eax, eax
  00b1e	74 0c		 je	 SHORT $LN79@create_oca
  00b20	c7 85 70 ff ff
	ff 2c 00 00 00	 mov	 DWORD PTR tv484[ebp], 44 ; 0000002cH
  00b2a	eb 20		 jmp	 SHORT $LN80@create_oca
$LN79@create_oca:
  00b2c	68 95 05 00 00	 push	 1429			; 00000595H
  00b31	68 00 00 00 00	 push	 OFFSET ??_C@_0ED@GMECMFKH@c?3?2users?2nhv90?2projects?2eech?2ap@
  00b36	8b 0d 00 00 00
	00		 mov	 ecx, DWORD PTR ?overload_invalid_float_type_message@@3PBDB ; overload_invalid_float_type_message
  00b3c	51		 push	 ecx
  00b3d	e8 00 00 00 00	 call	 ?process_assert@@YGXPBD0H@Z ; process_assert
  00b42	c7 85 70 ff ff
	ff 00 00 00 00	 mov	 DWORD PTR tv484[ebp], 0
$LN80@create_oca:
  00b4c	8b 55 f8	 mov	 edx, DWORD PTR _this_side$[ebp]
  00b4f	52		 push	 edx
  00b50	8b 45 f0	 mov	 eax, DWORD PTR _sector$[ebp]
  00b53	50		 push	 eax
  00b54	e8 00 00 00 00	 call	 ?get_sector_fog_of_war_value@@YGMPAUENTITY@@W4ENTITY_SIDES@@@Z ; get_sector_fog_of_war_value
  00b59	dd 9d 68 ff ff
	ff		 fstp	 QWORD PTR tv858[ebp]
  00b5f	f2 0f 10 85 68
	ff ff ff	 movsd	 xmm0, QWORD PTR tv858[ebp]
  00b67	6a 2c		 push	 44			; 0000002cH
  00b69	8b 0d 00 00 00
	00		 mov	 ecx, DWORD PTR ?session_entity@@3PAUENTITY@@A ; session_entity
  00b6f	51		 push	 ecx
  00b70	69 95 74 ff ff
	ff bc 02 00 00	 imul	 edx, DWORD PTR tv477[ebp], 700
  00b7a	8b 85 70 ff ff
	ff		 mov	 eax, DWORD PTR tv484[ebp]
  00b80	8b 8c 82 00 00
	00 00		 mov	 ecx, DWORD PTR ?fn_get_local_entity_float_value@@3PAY0KP@P6GMPAUENTITY@@W4FLOAT_TYPES@@@ZA[edx+eax*4]
  00b87	f2 0f 11 85 60
	ff ff ff	 movsd	 QWORD PTR tv926[ebp], xmm0
  00b8f	ff d1		 call	 ecx
  00b91	dd 9d 58 ff ff
	ff		 fstp	 QWORD PTR tv866[ebp]
  00b97	f2 0f 10 85 58
	ff ff ff	 movsd	 xmm0, QWORD PTR tv866[ebp]
  00b9f	f2 0f 59 05 00
	00 00 00	 mulsd	 xmm0, QWORD PTR __real@3fd0000000000000
  00ba7	f2 0f 10 8d 60
	ff ff ff	 movsd	 xmm1, QWORD PTR tv926[ebp]
  00baf	66 0f 2f c8	 comisd	 xmm1, xmm0
  00bb3	0f 82 2a 02 00
	00		 jb	 $LN23@create_oca

; 1430 : 					{
; 1431 :                   if (
; 1432 :                         (!entity_is_object_of_task (keysite, ENTITY_SUB_TYPE_TASK_OCA_STRIKE, this_side)) &&
; 1433 :                         (!entity_is_object_of_task (keysite, ENTITY_SUB_TYPE_TASK_BDA, this_side)) &&

  00bb9	8b 45 f8	 mov	 eax, DWORD PTR _this_side$[ebp]
  00bbc	50		 push	 eax
  00bbd	6a 0f		 push	 15			; 0000000fH
  00bbf	8b 4d e4	 mov	 ecx, DWORD PTR _keysite$[ebp]
  00bc2	51		 push	 ecx
  00bc3	e8 00 00 00 00	 call	 ?entity_is_object_of_task@@YGHPAUENTITY@@HW4ENTITY_SIDES@@@Z ; entity_is_object_of_task
  00bc8	85 c0		 test	 eax, eax
  00bca	0f 85 13 02 00
	00		 jne	 $LN23@create_oca
  00bd0	8b 45 f8	 mov	 eax, DWORD PTR _this_side$[ebp]
  00bd3	50		 push	 eax
  00bd4	6a 05		 push	 5
  00bd6	8b 4d e4	 mov	 ecx, DWORD PTR _keysite$[ebp]
  00bd9	51		 push	 ecx
  00bda	e8 00 00 00 00	 call	 ?entity_is_object_of_task@@YGHPAUENTITY@@HW4ENTITY_SIDES@@@Z ; entity_is_object_of_task
  00bdf	85 c0		 test	 eax, eax
  00be1	0f 85 fc 01 00
	00		 jne	 $LN23@create_oca
  00be7	8b 45 f8	 mov	 eax, DWORD PTR _this_side$[ebp]
  00bea	50		 push	 eax
  00beb	6a 1a		 push	 26			; 0000001aH
  00bed	8b 4d e4	 mov	 ecx, DWORD PTR _keysite$[ebp]
  00bf0	51		 push	 ecx
  00bf1	e8 00 00 00 00	 call	 ?entity_is_object_of_task@@YGHPAUENTITY@@HW4ENTITY_SIDES@@@Z ; entity_is_object_of_task
  00bf6	85 c0		 test	 eax, eax
  00bf8	0f 85 e5 01 00
	00		 jne	 $LN23@create_oca

; 1434 :                         (!entity_is_object_of_task (keysite, ENTITY_SUB_TYPE_TASK_TROOP_INSERTION, this_side))
; 1435 :                      )
; 1436 : 						{
; 1437 : 							priority = (target_rating [loop] / max_rating) * task_database [ENTITY_SUB_TYPE_TASK_OCA_STRIKE].task_priority;

  00bfe	8b 45 d4	 mov	 eax, DWORD PTR _loop$[ebp]
  00c01	f3 0f 10 04 85
	00 00 00 00	 movss	 xmm0, DWORD PTR ?target_rating@@3PAMA[eax*4]
  00c0a	f3 0f 5e 45 bc	 divss	 xmm0, DWORD PTR _max_rating$[ebp]
  00c0f	b9 50 00 00 00	 mov	 ecx, 80			; 00000050H
  00c14	6b d1 0f	 imul	 edx, ecx, 15
  00c17	f3 0f 59 82 10
	00 00 00	 mulss	 xmm0, DWORD PTR ?task_database@@3PAUTASK_DATA@@A[edx+16]
  00c1f	f3 0f 11 45 c8	 movss	 DWORD PTR _priority$[ebp], xmm0

; 1438 : 		
; 1439 : 							new_task = create_oca_strike_task (this_side, keysite, NULL, TRUE, priority, NULL, NULL);

  00c24	6a 00		 push	 0
  00c26	6a 00		 push	 0
  00c28	51		 push	 ecx
  00c29	f3 0f 10 45 c8	 movss	 xmm0, DWORD PTR _priority$[ebp]
  00c2e	f3 0f 11 04 24	 movss	 DWORD PTR [esp], xmm0
  00c33	6a 01		 push	 1
  00c35	6a 00		 push	 0
  00c37	8b 45 e4	 mov	 eax, DWORD PTR _keysite$[ebp]
  00c3a	50		 push	 eax
  00c3b	8b 4d f8	 mov	 ecx, DWORD PTR _this_side$[ebp]
  00c3e	51		 push	 ecx
  00c3f	e8 00 00 00 00	 call	 ?create_oca_strike_task@@YGPAUENTITY@@W4ENTITY_SIDES@@PAU1@1HM11@Z ; create_oca_strike_task
  00c44	89 45 e8	 mov	 DWORD PTR _new_task$[ebp], eax

; 1440 : 		
; 1441 : 							if (new_task)

  00c47	83 7d e8 00	 cmp	 DWORD PTR _new_task$[ebp], 0
  00c4b	0f 84 92 01 00
	00		 je	 $LN23@create_oca

; 1442 : 							{
; 1443 : 								ai_log ("(TASK) %s OCA STRIKE #%d (%d) - Target %s : Rating %f - CREATED (Priority %f)",

  00c51	83 7d e4 00	 cmp	 DWORD PTR _keysite$[ebp], 0
  00c55	74 0d		 je	 SHORT $LN81@create_oca
  00c57	8b 45 e4	 mov	 eax, DWORD PTR _keysite$[ebp]
  00c5a	8b 08		 mov	 ecx, DWORD PTR [eax]
  00c5c	89 8d 74 ff ff
	ff		 mov	 DWORD PTR tv536[ebp], ecx
  00c62	eb 27		 jmp	 SHORT $LN82@create_oca
$LN81@create_oca:
  00c64	8b 15 00 00 00
	00		 mov	 edx, DWORD PTR ?__LINE__Var@?0??create_oca_strike_tasks@@YGXXZ@4JA
  00c6a	81 c2 a4 00 00
	00		 add	 edx, 164		; 000000a4H
  00c70	52		 push	 edx
  00c71	68 00 00 00 00	 push	 OFFSET ??_C@_0ED@GMECMFKH@c?3?2users?2nhv90?2projects?2eech?2ap@
  00c76	a1 00 00 00 00	 mov	 eax, DWORD PTR ?null_entity_pointer_message@@3PBDB ; null_entity_pointer_message
  00c7b	50		 push	 eax
  00c7c	e8 00 00 00 00	 call	 ?process_assert@@YGXPBD0H@Z ; process_assert
  00c81	c7 85 74 ff ff
	ff 00 00 00 00	 mov	 DWORD PTR tv536[ebp], 0
$LN82@create_oca:
  00c8b	b9 01 00 00 00	 mov	 ecx, 1
  00c90	85 c9		 test	 ecx, ecx
  00c92	74 0c		 je	 SHORT $LN83@create_oca
  00c94	c7 85 70 ff ff
	ff 07 00 00 00	 mov	 DWORD PTR tv544[ebp], 7
  00c9e	eb 27		 jmp	 SHORT $LN84@create_oca
$LN83@create_oca:
  00ca0	8b 15 00 00 00
	00		 mov	 edx, DWORD PTR ?__LINE__Var@?0??create_oca_strike_tasks@@YGXXZ@4JA
  00ca6	81 c2 a4 00 00
	00		 add	 edx, 164		; 000000a4H
  00cac	52		 push	 edx
  00cad	68 00 00 00 00	 push	 OFFSET ??_C@_0ED@GMECMFKH@c?3?2users?2nhv90?2projects?2eech?2ap@
  00cb2	a1 00 00 00 00	 mov	 eax, DWORD PTR ?overload_invalid_string_type_message@@3PBDB ; overload_invalid_string_type_message
  00cb7	50		 push	 eax
  00cb8	e8 00 00 00 00	 call	 ?process_assert@@YGXPBD0H@Z ; process_assert
  00cbd	c7 85 70 ff ff
	ff 00 00 00 00	 mov	 DWORD PTR tv544[ebp], 0
$LN84@create_oca:
  00cc7	83 7d e8 00	 cmp	 DWORD PTR _new_task$[ebp], 0
  00ccb	74 14		 je	 SHORT $LN85@create_oca
  00ccd	8b 4d e8	 mov	 ecx, DWORD PTR _new_task$[ebp]
  00cd0	2b 0d 00 00 00
	00		 sub	 ecx, DWORD PTR ?entities@@3PAUENTITY@@A ; entities
  00cd6	c1 f9 04	 sar	 ecx, 4
  00cd9	89 8d 6c ff ff
	ff		 mov	 DWORD PTR tv554[ebp], ecx
  00cdf	eb 0a		 jmp	 SHORT $LN86@create_oca
$LN85@create_oca:
  00ce1	c7 85 6c ff ff
	ff ff ff ff ff	 mov	 DWORD PTR tv554[ebp], -1
$LN86@create_oca:
  00ceb	83 7d e8 00	 cmp	 DWORD PTR _new_task$[ebp], 0
  00cef	74 0d		 je	 SHORT $LN87@create_oca
  00cf1	8b 55 e8	 mov	 edx, DWORD PTR _new_task$[ebp]
  00cf4	8b 02		 mov	 eax, DWORD PTR [edx]
  00cf6	89 85 68 ff ff
	ff		 mov	 DWORD PTR tv562[ebp], eax
  00cfc	eb 28		 jmp	 SHORT $LN88@create_oca
$LN87@create_oca:
  00cfe	8b 0d 00 00 00
	00		 mov	 ecx, DWORD PTR ?__LINE__Var@?0??create_oca_strike_tasks@@YGXXZ@4JA
  00d04	81 c1 a2 00 00
	00		 add	 ecx, 162		; 000000a2H
  00d0a	51		 push	 ecx
  00d0b	68 00 00 00 00	 push	 OFFSET ??_C@_0ED@GMECMFKH@c?3?2users?2nhv90?2projects?2eech?2ap@
  00d10	8b 15 00 00 00
	00		 mov	 edx, DWORD PTR ?null_entity_pointer_message@@3PBDB ; null_entity_pointer_message
  00d16	52		 push	 edx
  00d17	e8 00 00 00 00	 call	 ?process_assert@@YGXPBD0H@Z ; process_assert
  00d1c	c7 85 68 ff ff
	ff 00 00 00 00	 mov	 DWORD PTR tv562[ebp], 0
$LN88@create_oca:
  00d26	b8 01 00 00 00	 mov	 eax, 1
  00d2b	85 c0		 test	 eax, eax
  00d2d	74 0c		 je	 SHORT $LN89@create_oca
  00d2f	c7 85 64 ff ff
	ff dc 00 00 00	 mov	 DWORD PTR tv570[ebp], 220 ; 000000dcH
  00d39	eb 28		 jmp	 SHORT $LN90@create_oca
$LN89@create_oca:
  00d3b	8b 0d 00 00 00
	00		 mov	 ecx, DWORD PTR ?__LINE__Var@?0??create_oca_strike_tasks@@YGXXZ@4JA
  00d41	81 c1 a2 00 00
	00		 add	 ecx, 162		; 000000a2H
  00d47	51		 push	 ecx
  00d48	68 00 00 00 00	 push	 OFFSET ??_C@_0ED@GMECMFKH@c?3?2users?2nhv90?2projects?2eech?2ap@
  00d4d	8b 15 00 00 00
	00		 mov	 edx, DWORD PTR ?overload_invalid_int_type_message@@3PBDB ; overload_invalid_int_type_message
  00d53	52		 push	 edx
  00d54	e8 00 00 00 00	 call	 ?process_assert@@YGXPBD0H@Z ; process_assert
  00d59	c7 85 64 ff ff
	ff 00 00 00 00	 mov	 DWORD PTR tv570[ebp], 0
$LN90@create_oca:
  00d63	f3 0f 5a 45 c8	 cvtss2sd xmm0, DWORD PTR _priority$[ebp]
  00d68	83 ec 08	 sub	 esp, 8
  00d6b	f2 0f 11 04 24	 movsd	 QWORD PTR [esp], xmm0
  00d70	8b 45 d4	 mov	 eax, DWORD PTR _loop$[ebp]
  00d73	f3 0f 5a 04 85
	00 00 00 00	 cvtss2sd xmm0, DWORD PTR ?target_rating@@3PAMA[eax*4]
  00d7c	83 ec 08	 sub	 esp, 8
  00d7f	f2 0f 11 04 24	 movsd	 QWORD PTR [esp], xmm0
  00d84	6a 07		 push	 7
  00d86	8b 4d e4	 mov	 ecx, DWORD PTR _keysite$[ebp]
  00d89	51		 push	 ecx
  00d8a	6b 95 74 ff ff
	ff 34		 imul	 edx, DWORD PTR tv536[ebp], 52
  00d91	8b 85 70 ff ff
	ff		 mov	 eax, DWORD PTR tv544[ebp]
  00d97	8b 8c 82 00 00
	00 00		 mov	 ecx, DWORD PTR ?fn_get_local_entity_string@@3PAY0N@P6GPBDPAUENTITY@@W4STRING_TYPES@@@ZA[edx+eax*4]
  00d9e	ff d1		 call	 ecx
  00da0	50		 push	 eax
  00da1	8b 95 6c ff ff
	ff		 mov	 edx, DWORD PTR tv554[ebp]
  00da7	52		 push	 edx
  00da8	68 dc 00 00 00	 push	 220			; 000000dcH
  00dad	8b 45 e8	 mov	 eax, DWORD PTR _new_task$[ebp]
  00db0	50		 push	 eax
  00db1	69 8d 68 ff ff
	ff 5c 04 00 00	 imul	 ecx, DWORD PTR tv562[ebp], 1116
  00dbb	8b 95 64 ff ff
	ff		 mov	 edx, DWORD PTR tv570[ebp]
  00dc1	8b 84 91 00 00
	00 00		 mov	 eax, DWORD PTR ?fn_get_local_entity_int_value@@3PAY0BBH@P6GHPAUENTITY@@W4INT_TYPES@@@ZA[ecx+edx*4]
  00dc8	ff d0		 call	 eax
  00dca	50		 push	 eax
  00dcb	8b 4d f8	 mov	 ecx, DWORD PTR _this_side$[ebp]
  00dce	8b 14 8d 00 00
	00 00		 mov	 edx, DWORD PTR ?entity_side_short_names@@3PAPBDA[ecx*4]
  00dd5	52		 push	 edx
  00dd6	68 00 00 00 00	 push	 OFFSET ??_C@_0EO@MIICAGKN@?$CITASK?$CJ?5?$CFs?5OCA?5STRIKE?5?$CD?$CFd?5?$CI?$CFd?$CJ?5?9@
  00ddb	e8 00 00 00 00	 call	 ?ai_log@@YAXPBDZZ	; ai_log
  00de0	83 c4 24	 add	 esp, 36			; 00000024H
$LN23@create_oca:

; 1444 : 													entity_side_short_names [this_side],
; 1445 : 													get_local_entity_int_value (new_task, INT_TYPE_TASK_ID),
; 1446 : 													get_local_entity_safe_index (new_task),
; 1447 : 													get_local_entity_string (keysite, STRING_TYPE_KEYSITE_NAME),
; 1448 : 													target_rating [loop], priority);
; 1449 : 							}
; 1450 : 						}
; 1451 : 					}
; 1452 : 				}
; 1453 : 			}

  00de3	e9 51 fb ff ff	 jmp	 $LN8@create_oca
$LN9@create_oca:

; 1454 : 		}
; 1455 : 
; 1456 : 		//
; 1457 : 		// Next force
; 1458 : 		//
; 1459 : 	
; 1460 : 		force = get_local_entity_child_succ (force, LIST_TYPE_FORCE);

  00de8	83 7d f4 00	 cmp	 DWORD PTR _force$[ebp], 0
  00dec	74 0d		 je	 SHORT $LN91@create_oca
  00dee	8b 45 f4	 mov	 eax, DWORD PTR _force$[ebp]
  00df1	8b 08		 mov	 ecx, DWORD PTR [eax]
  00df3	89 8d 74 ff ff
	ff		 mov	 DWORD PTR tv619[ebp], ecx
  00df9	eb 27		 jmp	 SHORT $LN92@create_oca
$LN91@create_oca:
  00dfb	8b 15 00 00 00
	00		 mov	 edx, DWORD PTR ?__LINE__Var@?0??create_oca_strike_tasks@@YGXXZ@4JA
  00e01	81 c2 b1 00 00
	00		 add	 edx, 177		; 000000b1H
  00e07	52		 push	 edx
  00e08	68 00 00 00 00	 push	 OFFSET ??_C@_0ED@GMECMFKH@c?3?2users?2nhv90?2projects?2eech?2ap@
  00e0d	a1 00 00 00 00	 mov	 eax, DWORD PTR ?null_entity_pointer_message@@3PBDB ; null_entity_pointer_message
  00e12	50		 push	 eax
  00e13	e8 00 00 00 00	 call	 ?process_assert@@YGXPBD0H@Z ; process_assert
  00e18	c7 85 74 ff ff
	ff 00 00 00 00	 mov	 DWORD PTR tv619[ebp], 0
$LN92@create_oca:
  00e22	b9 01 00 00 00	 mov	 ecx, 1
  00e27	85 c9		 test	 ecx, ecx
  00e29	74 0c		 je	 SHORT $LN93@create_oca
  00e2b	c7 85 70 ff ff
	ff 0e 00 00 00	 mov	 DWORD PTR tv627[ebp], 14 ; 0000000eH
  00e35	eb 27		 jmp	 SHORT $LN94@create_oca
$LN93@create_oca:
  00e37	8b 15 00 00 00
	00		 mov	 edx, DWORD PTR ?__LINE__Var@?0??create_oca_strike_tasks@@YGXXZ@4JA
  00e3d	81 c2 b1 00 00
	00		 add	 edx, 177		; 000000b1H
  00e43	52		 push	 edx
  00e44	68 00 00 00 00	 push	 OFFSET ??_C@_0ED@GMECMFKH@c?3?2users?2nhv90?2projects?2eech?2ap@
  00e49	a1 00 00 00 00	 mov	 eax, DWORD PTR ?overload_invalid_list_type_message@@3PBDB ; overload_invalid_list_type_message
  00e4e	50		 push	 eax
  00e4f	e8 00 00 00 00	 call	 ?process_assert@@YGXPBD0H@Z ; process_assert
  00e54	c7 85 70 ff ff
	ff 00 00 00 00	 mov	 DWORD PTR tv627[ebp], 0
$LN94@create_oca:
  00e5e	6a 0e		 push	 14			; 0000000eH
  00e60	8b 4d f4	 mov	 ecx, DWORD PTR _force$[ebp]
  00e63	51		 push	 ecx
  00e64	69 95 74 ff ff
	ff b4 00 00 00	 imul	 edx, DWORD PTR tv619[ebp], 180
  00e6e	8b 85 70 ff ff
	ff		 mov	 eax, DWORD PTR tv627[ebp]
  00e74	8b 8c 82 00 00
	00 00		 mov	 ecx, DWORD PTR ?fn_get_local_entity_child_succ@@3PAY0CN@P6GPAUENTITY@@PAU1@W4LIST_TYPES@@@ZA[edx+eax*4]
  00e7b	ff d1		 call	 ecx
  00e7d	89 45 f4	 mov	 DWORD PTR _force$[ebp], eax

; 1461 : 	}

  00e80	e9 69 f2 ff ff	 jmp	 $LN2@create_oca
$LN3@create_oca:

; 1462 : }

  00e85	5f		 pop	 edi
  00e86	5e		 pop	 esi
  00e87	5b		 pop	 ebx
  00e88	8b e5		 mov	 esp, ebp
  00e8a	5d		 pop	 ebp
  00e8b	c3		 ret	 0
?create_oca_strike_tasks@@YGXXZ ENDP			; create_oca_strike_tasks
_TEXT	ENDS
; Function compile flags: /Odtp /ZI
; File c:\users\nhv90\projects\eech\aphavoc\source\ai\highlevl\highlevl.c
;	COMDAT ?create_keysite_strike_tasks@@YGXXZ
_TEXT	SEGMENT
tv1157 = -168						; size = 8
tv1327 = -160						; size = 8
tv872 = -156						; size = 4
tv789 = -156						; size = 4
tv673 = -156						; size = 4
tv1149 = -152						; size = 8
tv1057 = -152						; size = 8
tv864 = -152						; size = 4
tv781 = -152						; size = 4
tv633 = -152						; size = 4
tv1228 = -148						; size = 4
tv856 = -148						; size = 4
tv773 = -148						; size = 4
tv625 = -148						; size = 4
tv1067 = -144						; size = 8
tv1041 = -144						; size = 8
tv1031 = -144						; size = 8
tv897 = -144						; size = 4
tv846 = -144						; size = 4
tv763 = -144						; size = 4
tv696 = -144						; size = 4
tv615 = -144						; size = 4
tv522 = -144						; size = 4
tv494 = -144						; size = 4
tv469 = -144						; size = 4
tv418 = -144						; size = 4
tv398 = -144						; size = 4
tv356 = -144						; size = 4
tv305 = -144						; size = 4
tv268 = -144						; size = 4
tv247 = -144						; size = 4
tv228 = -144						; size = 4
tv208 = -144						; size = 4
tv187 = -144						; size = 4
tv165 = -144						; size = 4
tv145 = -144						; size = 4
tv86 = -144						; size = 4
tv889 = -140						; size = 4
tv838 = -140						; size = 4
tv755 = -140						; size = 4
tv689 = -140						; size = 4
tv607 = -140						; size = 4
tv515 = -140						; size = 4
tv486 = -140						; size = 4
tv461 = -140						; size = 4
tv410 = -140						; size = 4
tv390 = -140						; size = 4
tv348 = -140						; size = 4
tv297 = -140						; size = 4
tv260 = -140						; size = 4
tv240 = -140						; size = 4
tv221 = -140						; size = 4
tv200 = -140						; size = 4
tv179 = -140						; size = 4
tv157 = -140						; size = 4
tv137 = -140						; size = 4
tv78 = -140						; size = 4
$T1 = -136						; size = 4
_max_rating$ = -68					; size = 4
_ratio$ = -64						; size = 4
_rating$ = -60						; size = 4
_priority$ = -56					; size = 4
_keysite_type$ = -52					; size = 4
_count$ = -48						; size = 4
_loop$ = -44						; size = 4
_z$ = -40						; size = 4
_x$ = -36						; size = 4
_pos$ = -32						; size = 4
_keysite$ = -28						; size = 4
_new_task$ = -24					; size = 4
_target_force$ = -20					; size = 4
_sector$ = -16						; size = 4
_force$ = -12						; size = 4
_this_side$ = -8					; size = 4
_side$ = -4						; size = 4
?create_keysite_strike_tasks@@YGXXZ PROC		; create_keysite_strike_tasks, COMDAT

; 1025 : {

  00000	55		 push	 ebp
  00001	8b ec		 mov	 ebp, esp
  00003	81 ec a8 00 00
	00		 sub	 esp, 168		; 000000a8H
  00009	53		 push	 ebx
  0000a	56		 push	 esi
  0000b	57		 push	 edi

; 1026 : 	entity_sides
; 1027 : 		side,
; 1028 : 		this_side;
; 1029 : 
; 1030 : 	entity
; 1031 : 		*force,
; 1032 : 		*sector,
; 1033 : 		*target_force,
; 1034 : 		*new_task,
; 1035 : 		*keysite;
; 1036 : 
; 1037 : 	vec3d
; 1038 : 		*pos;
; 1039 : 
; 1040 : 	int
; 1041 : 		x,
; 1042 : 		z,
; 1043 : 		loop,
; 1044 : 		count,
; 1045 : 		keysite_type;
; 1046 : 
; 1047 : 	float
; 1048 : 		priority,
; 1049 : 		rating,
; 1050 : 		ratio,
; 1051 : 		max_rating;
; 1052 : 
; 1053 : 	ASSERT (get_comms_model () == COMMS_MODEL_SERVER);

  0000c	83 3d 00 00 00
	00 00		 cmp	 DWORD PTR ?system_comms_model@@3W4COMMS_MODEL_TYPES@@A, 0 ; system_comms_model
  00013	74 18		 je	 SHORT $LN11@create_key
  00015	a1 00 00 00 00	 mov	 eax, DWORD PTR ?__LINE__Var@?0??create_keysite_strike_tasks@@YGXXZ@4JA
  0001a	83 c0 1c	 add	 eax, 28			; 0000001cH
  0001d	50		 push	 eax
  0001e	68 00 00 00 00	 push	 OFFSET ??_C@_0ED@GMECMFKH@c?3?2users?2nhv90?2projects?2eech?2ap@
  00023	68 00 00 00 00	 push	 OFFSET ??_C@_0CJ@DMBLBJBK@get_comms_model?5?$CI?$CJ?5?$DN?$DN?5COMMS_MOD@
  00028	e8 00 00 00 00	 call	 ?process_assert@@YGXPBD0H@Z ; process_assert
$LN11@create_key:

; 1054 : 
; 1055 : 	ai_log ("==========================");

  0002d	68 00 00 00 00	 push	 OFFSET ??_C@_0BL@EBIHNBEK@?$DN?$DN?$DN?$DN?$DN?$DN?$DN?$DN?$DN?$DN?$DN?$DN?$DN?$DN?$DN?$DN?$DN?$DN?$DN?$DN?$DN?$DN?$DN?$DN?$DN?$DN@
  00032	e8 00 00 00 00	 call	 ?ai_log@@YAXPBDZZ	; ai_log
  00037	83 c4 04	 add	 esp, 4

; 1056 : 	ai_log ("CREATE KEYSITE STRIKE TASKS");

  0003a	68 00 00 00 00	 push	 OFFSET ??_C@_0BM@KDKLEBEP@CREATE?5KEYSITE?5STRIKE?5TASKS@
  0003f	e8 00 00 00 00	 call	 ?ai_log@@YAXPBDZZ	; ai_log
  00044	83 c4 04	 add	 esp, 4

; 1057 : 	ai_log ("--------------------------");

  00047	68 00 00 00 00	 push	 OFFSET ??_C@_0BL@JMBEPNBE@?9?9?9?9?9?9?9?9?9?9?9?9?9?9?9?9?9?9?9?9?9?9?9?9?9?9@
  0004c	e8 00 00 00 00	 call	 ?ai_log@@YAXPBDZZ	; ai_log
  00051	83 c4 04	 add	 esp, 4

; 1058 : 
; 1059 : 	force = get_local_entity_first_child (get_session_entity (), LIST_TYPE_FORCE);

  00054	83 3d 00 00 00
	00 00		 cmp	 DWORD PTR ?session_entity@@3PAUENTITY@@A, 0 ; session_entity
  0005b	74 0f		 je	 SHORT $LN38@create_key
  0005d	a1 00 00 00 00	 mov	 eax, DWORD PTR ?session_entity@@3PAUENTITY@@A ; session_entity
  00062	8b 08		 mov	 ecx, DWORD PTR [eax]
  00064	89 8d 74 ff ff
	ff		 mov	 DWORD PTR tv78[ebp], ecx
  0006a	eb 24		 jmp	 SHORT $LN39@create_key
$LN38@create_key:
  0006c	8b 15 00 00 00
	00		 mov	 edx, DWORD PTR ?__LINE__Var@?0??create_keysite_strike_tasks@@YGXXZ@4JA
  00072	83 c2 22	 add	 edx, 34			; 00000022H
  00075	52		 push	 edx
  00076	68 00 00 00 00	 push	 OFFSET ??_C@_0ED@GMECMFKH@c?3?2users?2nhv90?2projects?2eech?2ap@
  0007b	a1 00 00 00 00	 mov	 eax, DWORD PTR ?null_entity_pointer_message@@3PBDB ; null_entity_pointer_message
  00080	50		 push	 eax
  00081	e8 00 00 00 00	 call	 ?process_assert@@YGXPBD0H@Z ; process_assert
  00086	c7 85 74 ff ff
	ff 00 00 00 00	 mov	 DWORD PTR tv78[ebp], 0
$LN39@create_key:
  00090	b9 01 00 00 00	 mov	 ecx, 1
  00095	85 c9		 test	 ecx, ecx
  00097	74 0c		 je	 SHORT $LN40@create_key
  00099	c7 85 70 ff ff
	ff 0e 00 00 00	 mov	 DWORD PTR tv86[ebp], 14	; 0000000eH
  000a3	eb 24		 jmp	 SHORT $LN41@create_key
$LN40@create_key:
  000a5	8b 15 00 00 00
	00		 mov	 edx, DWORD PTR ?__LINE__Var@?0??create_keysite_strike_tasks@@YGXXZ@4JA
  000ab	83 c2 22	 add	 edx, 34			; 00000022H
  000ae	52		 push	 edx
  000af	68 00 00 00 00	 push	 OFFSET ??_C@_0ED@GMECMFKH@c?3?2users?2nhv90?2projects?2eech?2ap@
  000b4	a1 00 00 00 00	 mov	 eax, DWORD PTR ?overload_invalid_list_type_message@@3PBDB ; overload_invalid_list_type_message
  000b9	50		 push	 eax
  000ba	e8 00 00 00 00	 call	 ?process_assert@@YGXPBD0H@Z ; process_assert
  000bf	c7 85 70 ff ff
	ff 00 00 00 00	 mov	 DWORD PTR tv86[ebp], 0
$LN41@create_key:
  000c9	6a 0e		 push	 14			; 0000000eH
  000cb	8b 0d 00 00 00
	00		 mov	 ecx, DWORD PTR ?session_entity@@3PAUENTITY@@A ; session_entity
  000d1	51		 push	 ecx
  000d2	69 95 74 ff ff
	ff b4 00 00 00	 imul	 edx, DWORD PTR tv78[ebp], 180
  000dc	8b 85 70 ff ff
	ff		 mov	 eax, DWORD PTR tv86[ebp]
  000e2	8b 8c 82 00 00
	00 00		 mov	 ecx, DWORD PTR ?fn_get_local_entity_first_child@@3PAY0CN@P6GPAUENTITY@@PAU1@W4LIST_TYPES@@@ZA[edx+eax*4]
  000e9	ff d1		 call	 ecx
  000eb	89 45 f4	 mov	 DWORD PTR _force$[ebp], eax
$LN2@create_key:

; 1060 : 
; 1061 : 	while (force)

  000ee	83 7d f4 00	 cmp	 DWORD PTR _force$[ebp], 0
  000f2	0f 84 07 14 00
	00		 je	 $LN3@create_key

; 1062 : 	{
; 1063 : 		//
; 1064 : 		// for each force ( excluding our own ) spin through the list of keysites and select viable targets
; 1065 : 		//
; 1066 : 	
; 1067 : 		memset (target_list, 0, sizeof (entity *) * MAX_HIGHLEVEL_TARGET_CHECKS);

  000f8	68 80 02 00 00	 push	 640			; 00000280H
  000fd	6a 00		 push	 0
  000ff	68 00 00 00 00	 push	 OFFSET ?target_list@@3PAPAUENTITY@@A
  00104	e8 00 00 00 00	 call	 _memset
  00109	83 c4 0c	 add	 esp, 12			; 0000000cH

; 1068 : 
; 1069 : 		memset (target_rating, 0, sizeof (float) * MAX_HIGHLEVEL_TARGET_CHECKS);

  0010c	68 80 02 00 00	 push	 640			; 00000280H
  00111	6a 00		 push	 0
  00113	68 00 00 00 00	 push	 OFFSET ?target_rating@@3PAMA
  00118	e8 00 00 00 00	 call	 _memset
  0011d	83 c4 0c	 add	 esp, 12			; 0000000cH

; 1070 : 
; 1071 : 		count = 0;

  00120	c7 45 d0 00 00
	00 00		 mov	 DWORD PTR _count$[ebp], 0

; 1072 : 
; 1073 : 		this_side = (entity_sides) get_local_entity_int_value (force, INT_TYPE_SIDE);

  00127	83 7d f4 00	 cmp	 DWORD PTR _force$[ebp], 0
  0012b	74 0d		 je	 SHORT $LN42@create_key
  0012d	8b 45 f4	 mov	 eax, DWORD PTR _force$[ebp]
  00130	8b 08		 mov	 ecx, DWORD PTR [eax]
  00132	89 8d 74 ff ff
	ff		 mov	 DWORD PTR tv137[ebp], ecx
  00138	eb 24		 jmp	 SHORT $LN43@create_key
$LN42@create_key:
  0013a	8b 15 00 00 00
	00		 mov	 edx, DWORD PTR ?__LINE__Var@?0??create_keysite_strike_tasks@@YGXXZ@4JA
  00140	83 c2 30	 add	 edx, 48			; 00000030H
  00143	52		 push	 edx
  00144	68 00 00 00 00	 push	 OFFSET ??_C@_0ED@GMECMFKH@c?3?2users?2nhv90?2projects?2eech?2ap@
  00149	a1 00 00 00 00	 mov	 eax, DWORD PTR ?null_entity_pointer_message@@3PBDB ; null_entity_pointer_message
  0014e	50		 push	 eax
  0014f	e8 00 00 00 00	 call	 ?process_assert@@YGXPBD0H@Z ; process_assert
  00154	c7 85 74 ff ff
	ff 00 00 00 00	 mov	 DWORD PTR tv137[ebp], 0
$LN43@create_key:
  0015e	b9 01 00 00 00	 mov	 ecx, 1
  00163	85 c9		 test	 ecx, ecx
  00165	74 0c		 je	 SHORT $LN44@create_key
  00167	c7 85 70 ff ff
	ff bb 00 00 00	 mov	 DWORD PTR tv145[ebp], 187 ; 000000bbH
  00171	eb 24		 jmp	 SHORT $LN45@create_key
$LN44@create_key:
  00173	8b 15 00 00 00
	00		 mov	 edx, DWORD PTR ?__LINE__Var@?0??create_keysite_strike_tasks@@YGXXZ@4JA
  00179	83 c2 30	 add	 edx, 48			; 00000030H
  0017c	52		 push	 edx
  0017d	68 00 00 00 00	 push	 OFFSET ??_C@_0ED@GMECMFKH@c?3?2users?2nhv90?2projects?2eech?2ap@
  00182	a1 00 00 00 00	 mov	 eax, DWORD PTR ?overload_invalid_int_type_message@@3PBDB ; overload_invalid_int_type_message
  00187	50		 push	 eax
  00188	e8 00 00 00 00	 call	 ?process_assert@@YGXPBD0H@Z ; process_assert
  0018d	c7 85 70 ff ff
	ff 00 00 00 00	 mov	 DWORD PTR tv145[ebp], 0
$LN45@create_key:
  00197	68 bb 00 00 00	 push	 187			; 000000bbH
  0019c	8b 4d f4	 mov	 ecx, DWORD PTR _force$[ebp]
  0019f	51		 push	 ecx
  001a0	69 95 74 ff ff
	ff 5c 04 00 00	 imul	 edx, DWORD PTR tv137[ebp], 1116
  001aa	8b 85 70 ff ff
	ff		 mov	 eax, DWORD PTR tv145[ebp]
  001b0	8b 8c 82 00 00
	00 00		 mov	 ecx, DWORD PTR ?fn_get_local_entity_int_value@@3PAY0BBH@P6GHPAUENTITY@@W4INT_TYPES@@@ZA[edx+eax*4]
  001b7	ff d1		 call	 ecx
  001b9	89 45 f8	 mov	 DWORD PTR _this_side$[ebp], eax

; 1074 : 	
; 1075 : 		target_force = get_local_entity_first_child (get_session_entity(), LIST_TYPE_FORCE);

  001bc	83 3d 00 00 00
	00 00		 cmp	 DWORD PTR ?session_entity@@3PAUENTITY@@A, 0 ; session_entity
  001c3	74 0f		 je	 SHORT $LN46@create_key
  001c5	a1 00 00 00 00	 mov	 eax, DWORD PTR ?session_entity@@3PAUENTITY@@A ; session_entity
  001ca	8b 08		 mov	 ecx, DWORD PTR [eax]
  001cc	89 8d 74 ff ff
	ff		 mov	 DWORD PTR tv157[ebp], ecx
  001d2	eb 24		 jmp	 SHORT $LN47@create_key
$LN46@create_key:
  001d4	8b 15 00 00 00
	00		 mov	 edx, DWORD PTR ?__LINE__Var@?0??create_keysite_strike_tasks@@YGXXZ@4JA
  001da	83 c2 32	 add	 edx, 50			; 00000032H
  001dd	52		 push	 edx
  001de	68 00 00 00 00	 push	 OFFSET ??_C@_0ED@GMECMFKH@c?3?2users?2nhv90?2projects?2eech?2ap@
  001e3	a1 00 00 00 00	 mov	 eax, DWORD PTR ?null_entity_pointer_message@@3PBDB ; null_entity_pointer_message
  001e8	50		 push	 eax
  001e9	e8 00 00 00 00	 call	 ?process_assert@@YGXPBD0H@Z ; process_assert
  001ee	c7 85 74 ff ff
	ff 00 00 00 00	 mov	 DWORD PTR tv157[ebp], 0
$LN47@create_key:
  001f8	b9 01 00 00 00	 mov	 ecx, 1
  001fd	85 c9		 test	 ecx, ecx
  001ff	74 0c		 je	 SHORT $LN48@create_key
  00201	c7 85 70 ff ff
	ff 0e 00 00 00	 mov	 DWORD PTR tv165[ebp], 14 ; 0000000eH
  0020b	eb 24		 jmp	 SHORT $LN49@create_key
$LN48@create_key:
  0020d	8b 15 00 00 00
	00		 mov	 edx, DWORD PTR ?__LINE__Var@?0??create_keysite_strike_tasks@@YGXXZ@4JA
  00213	83 c2 32	 add	 edx, 50			; 00000032H
  00216	52		 push	 edx
  00217	68 00 00 00 00	 push	 OFFSET ??_C@_0ED@GMECMFKH@c?3?2users?2nhv90?2projects?2eech?2ap@
  0021c	a1 00 00 00 00	 mov	 eax, DWORD PTR ?overload_invalid_list_type_message@@3PBDB ; overload_invalid_list_type_message
  00221	50		 push	 eax
  00222	e8 00 00 00 00	 call	 ?process_assert@@YGXPBD0H@Z ; process_assert
  00227	c7 85 70 ff ff
	ff 00 00 00 00	 mov	 DWORD PTR tv165[ebp], 0
$LN49@create_key:
  00231	6a 0e		 push	 14			; 0000000eH
  00233	8b 0d 00 00 00
	00		 mov	 ecx, DWORD PTR ?session_entity@@3PAUENTITY@@A ; session_entity
  00239	51		 push	 ecx
  0023a	69 95 74 ff ff
	ff b4 00 00 00	 imul	 edx, DWORD PTR tv157[ebp], 180
  00244	8b 85 70 ff ff
	ff		 mov	 eax, DWORD PTR tv165[ebp]
  0024a	8b 8c 82 00 00
	00 00		 mov	 ecx, DWORD PTR ?fn_get_local_entity_first_child@@3PAY0CN@P6GPAUENTITY@@PAU1@W4LIST_TYPES@@@ZA[edx+eax*4]
  00251	ff d1		 call	 ecx
  00253	89 45 ec	 mov	 DWORD PTR _target_force$[ebp], eax
$LN4@create_key:

; 1076 : 	
; 1077 : 		while ((target_force) && (count < MAX_HIGHLEVEL_TARGET_CHECKS))

  00256	83 7d ec 00	 cmp	 DWORD PTR _target_force$[ebp], 0
  0025a	0f 84 15 07 00
	00		 je	 $LN5@create_key
  00260	81 7d d0 a0 00
	00 00		 cmp	 DWORD PTR _count$[ebp], 160 ; 000000a0H
  00267	0f 8d 08 07 00
	00		 jge	 $LN5@create_key

; 1078 : 		{
; 1079 : 			side = (entity_sides) get_local_entity_int_value (target_force, INT_TYPE_SIDE);

  0026d	83 7d ec 00	 cmp	 DWORD PTR _target_force$[ebp], 0
  00271	74 0d		 je	 SHORT $LN50@create_key
  00273	8b 45 ec	 mov	 eax, DWORD PTR _target_force$[ebp]
  00276	8b 08		 mov	 ecx, DWORD PTR [eax]
  00278	89 8d 74 ff ff
	ff		 mov	 DWORD PTR tv179[ebp], ecx
  0027e	eb 24		 jmp	 SHORT $LN51@create_key
$LN50@create_key:
  00280	8b 15 00 00 00
	00		 mov	 edx, DWORD PTR ?__LINE__Var@?0??create_keysite_strike_tasks@@YGXXZ@4JA
  00286	83 c2 36	 add	 edx, 54			; 00000036H
  00289	52		 push	 edx
  0028a	68 00 00 00 00	 push	 OFFSET ??_C@_0ED@GMECMFKH@c?3?2users?2nhv90?2projects?2eech?2ap@
  0028f	a1 00 00 00 00	 mov	 eax, DWORD PTR ?null_entity_pointer_message@@3PBDB ; null_entity_pointer_message
  00294	50		 push	 eax
  00295	e8 00 00 00 00	 call	 ?process_assert@@YGXPBD0H@Z ; process_assert
  0029a	c7 85 74 ff ff
	ff 00 00 00 00	 mov	 DWORD PTR tv179[ebp], 0
$LN51@create_key:
  002a4	b9 01 00 00 00	 mov	 ecx, 1
  002a9	85 c9		 test	 ecx, ecx
  002ab	74 0c		 je	 SHORT $LN52@create_key
  002ad	c7 85 70 ff ff
	ff bb 00 00 00	 mov	 DWORD PTR tv187[ebp], 187 ; 000000bbH
  002b7	eb 24		 jmp	 SHORT $LN53@create_key
$LN52@create_key:
  002b9	8b 15 00 00 00
	00		 mov	 edx, DWORD PTR ?__LINE__Var@?0??create_keysite_strike_tasks@@YGXXZ@4JA
  002bf	83 c2 36	 add	 edx, 54			; 00000036H
  002c2	52		 push	 edx
  002c3	68 00 00 00 00	 push	 OFFSET ??_C@_0ED@GMECMFKH@c?3?2users?2nhv90?2projects?2eech?2ap@
  002c8	a1 00 00 00 00	 mov	 eax, DWORD PTR ?overload_invalid_int_type_message@@3PBDB ; overload_invalid_int_type_message
  002cd	50		 push	 eax
  002ce	e8 00 00 00 00	 call	 ?process_assert@@YGXPBD0H@Z ; process_assert
  002d3	c7 85 70 ff ff
	ff 00 00 00 00	 mov	 DWORD PTR tv187[ebp], 0
$LN53@create_key:
  002dd	68 bb 00 00 00	 push	 187			; 000000bbH
  002e2	8b 4d ec	 mov	 ecx, DWORD PTR _target_force$[ebp]
  002e5	51		 push	 ecx
  002e6	69 95 74 ff ff
	ff 5c 04 00 00	 imul	 edx, DWORD PTR tv179[ebp], 1116
  002f0	8b 85 70 ff ff
	ff		 mov	 eax, DWORD PTR tv187[ebp]
  002f6	8b 8c 82 00 00
	00 00		 mov	 ecx, DWORD PTR ?fn_get_local_entity_int_value@@3PAY0BBH@P6GHPAUENTITY@@W4INT_TYPES@@@ZA[edx+eax*4]
  002fd	ff d1		 call	 ecx
  002ff	89 45 fc	 mov	 DWORD PTR _side$[ebp], eax

; 1080 : 	
; 1081 : 			if (side != this_side)

  00302	8b 45 fc	 mov	 eax, DWORD PTR _side$[ebp]
  00305	3b 45 f8	 cmp	 eax, DWORD PTR _this_side$[ebp]
  00308	0f 84 d0 05 00
	00		 je	 $LN7@create_key

; 1082 : 			{
; 1083 : 				keysite = get_local_entity_first_child (target_force, LIST_TYPE_KEYSITE_FORCE);

  0030e	83 7d ec 00	 cmp	 DWORD PTR _target_force$[ebp], 0
  00312	74 0d		 je	 SHORT $LN54@create_key
  00314	8b 45 ec	 mov	 eax, DWORD PTR _target_force$[ebp]
  00317	8b 08		 mov	 ecx, DWORD PTR [eax]
  00319	89 8d 74 ff ff
	ff		 mov	 DWORD PTR tv200[ebp], ecx
  0031f	eb 24		 jmp	 SHORT $LN55@create_key
$LN54@create_key:
  00321	8b 15 00 00 00
	00		 mov	 edx, DWORD PTR ?__LINE__Var@?0??create_keysite_strike_tasks@@YGXXZ@4JA
  00327	83 c2 3a	 add	 edx, 58			; 0000003aH
  0032a	52		 push	 edx
  0032b	68 00 00 00 00	 push	 OFFSET ??_C@_0ED@GMECMFKH@c?3?2users?2nhv90?2projects?2eech?2ap@
  00330	a1 00 00 00 00	 mov	 eax, DWORD PTR ?null_entity_pointer_message@@3PBDB ; null_entity_pointer_message
  00335	50		 push	 eax
  00336	e8 00 00 00 00	 call	 ?process_assert@@YGXPBD0H@Z ; process_assert
  0033b	c7 85 74 ff ff
	ff 00 00 00 00	 mov	 DWORD PTR tv200[ebp], 0
$LN55@create_key:
  00345	b9 01 00 00 00	 mov	 ecx, 1
  0034a	85 c9		 test	 ecx, ecx
  0034c	74 0c		 je	 SHORT $LN56@create_key
  0034e	c7 85 70 ff ff
	ff 15 00 00 00	 mov	 DWORD PTR tv208[ebp], 21 ; 00000015H
  00358	eb 24		 jmp	 SHORT $LN57@create_key
$LN56@create_key:
  0035a	8b 15 00 00 00
	00		 mov	 edx, DWORD PTR ?__LINE__Var@?0??create_keysite_strike_tasks@@YGXXZ@4JA
  00360	83 c2 3a	 add	 edx, 58			; 0000003aH
  00363	52		 push	 edx
  00364	68 00 00 00 00	 push	 OFFSET ??_C@_0ED@GMECMFKH@c?3?2users?2nhv90?2projects?2eech?2ap@
  00369	a1 00 00 00 00	 mov	 eax, DWORD PTR ?overload_invalid_list_type_message@@3PBDB ; overload_invalid_list_type_message
  0036e	50		 push	 eax
  0036f	e8 00 00 00 00	 call	 ?process_assert@@YGXPBD0H@Z ; process_assert
  00374	c7 85 70 ff ff
	ff 00 00 00 00	 mov	 DWORD PTR tv208[ebp], 0
$LN57@create_key:
  0037e	6a 15		 push	 21			; 00000015H
  00380	8b 4d ec	 mov	 ecx, DWORD PTR _target_force$[ebp]
  00383	51		 push	 ecx
  00384	69 95 74 ff ff
	ff b4 00 00 00	 imul	 edx, DWORD PTR tv200[ebp], 180
  0038e	8b 85 70 ff ff
	ff		 mov	 eax, DWORD PTR tv208[ebp]
  00394	8b 8c 82 00 00
	00 00		 mov	 ecx, DWORD PTR ?fn_get_local_entity_first_child@@3PAY0CN@P6GPAUENTITY@@PAU1@W4LIST_TYPES@@@ZA[edx+eax*4]
  0039b	ff d1		 call	 ecx
  0039d	89 45 e4	 mov	 DWORD PTR _keysite$[ebp], eax
$LN6@create_key:

; 1084 : 	
; 1085 : 				while ((keysite) && (count < MAX_HIGHLEVEL_TARGET_CHECKS))

  003a0	83 7d e4 00	 cmp	 DWORD PTR _keysite$[ebp], 0
  003a4	0f 84 34 05 00
	00		 je	 $LN7@create_key
  003aa	81 7d d0 a0 00
	00 00		 cmp	 DWORD PTR _count$[ebp], 160 ; 000000a0H
  003b1	0f 8d 27 05 00
	00		 jge	 $LN7@create_key

; 1086 : 				{
; 1087 : 					if ((get_local_entity_int_value (keysite, INT_TYPE_IN_USE)) && (get_local_entity_int_value (keysite, INT_TYPE_ALIVE)))

  003b7	83 7d e4 00	 cmp	 DWORD PTR _keysite$[ebp], 0
  003bb	74 0d		 je	 SHORT $LN58@create_key
  003bd	8b 45 e4	 mov	 eax, DWORD PTR _keysite$[ebp]
  003c0	8b 08		 mov	 ecx, DWORD PTR [eax]
  003c2	89 8d 74 ff ff
	ff		 mov	 DWORD PTR tv221[ebp], ecx
  003c8	eb 20		 jmp	 SHORT $LN59@create_key
$LN58@create_key:
  003ca	68 3f 04 00 00	 push	 1087			; 0000043fH
  003cf	68 00 00 00 00	 push	 OFFSET ??_C@_0ED@GMECMFKH@c?3?2users?2nhv90?2projects?2eech?2ap@
  003d4	8b 15 00 00 00
	00		 mov	 edx, DWORD PTR ?null_entity_pointer_message@@3PBDB ; null_entity_pointer_message
  003da	52		 push	 edx
  003db	e8 00 00 00 00	 call	 ?process_assert@@YGXPBD0H@Z ; process_assert
  003e0	c7 85 74 ff ff
	ff 00 00 00 00	 mov	 DWORD PTR tv221[ebp], 0
$LN59@create_key:
  003ea	b8 01 00 00 00	 mov	 eax, 1
  003ef	85 c0		 test	 eax, eax
  003f1	74 0c		 je	 SHORT $LN60@create_key
  003f3	c7 85 70 ff ff
	ff 6d 00 00 00	 mov	 DWORD PTR tv228[ebp], 109 ; 0000006dH
  003fd	eb 20		 jmp	 SHORT $LN61@create_key
$LN60@create_key:
  003ff	68 3f 04 00 00	 push	 1087			; 0000043fH
  00404	68 00 00 00 00	 push	 OFFSET ??_C@_0ED@GMECMFKH@c?3?2users?2nhv90?2projects?2eech?2ap@
  00409	8b 0d 00 00 00
	00		 mov	 ecx, DWORD PTR ?overload_invalid_int_type_message@@3PBDB ; overload_invalid_int_type_message
  0040f	51		 push	 ecx
  00410	e8 00 00 00 00	 call	 ?process_assert@@YGXPBD0H@Z ; process_assert
  00415	c7 85 70 ff ff
	ff 00 00 00 00	 mov	 DWORD PTR tv228[ebp], 0
$LN61@create_key:
  0041f	6a 6d		 push	 109			; 0000006dH
  00421	8b 55 e4	 mov	 edx, DWORD PTR _keysite$[ebp]
  00424	52		 push	 edx
  00425	69 85 74 ff ff
	ff 5c 04 00 00	 imul	 eax, DWORD PTR tv221[ebp], 1116
  0042f	8b 8d 70 ff ff
	ff		 mov	 ecx, DWORD PTR tv228[ebp]
  00435	8b 94 88 00 00
	00 00		 mov	 edx, DWORD PTR ?fn_get_local_entity_int_value@@3PAY0BBH@P6GHPAUENTITY@@W4INT_TYPES@@@ZA[eax+ecx*4]
  0043c	ff d2		 call	 edx
  0043e	85 c0		 test	 eax, eax
  00440	0f 84 01 04 00
	00		 je	 $LN17@create_key
  00446	83 7d e4 00	 cmp	 DWORD PTR _keysite$[ebp], 0
  0044a	74 0d		 je	 SHORT $LN62@create_key
  0044c	8b 45 e4	 mov	 eax, DWORD PTR _keysite$[ebp]
  0044f	8b 08		 mov	 ecx, DWORD PTR [eax]
  00451	89 8d 74 ff ff
	ff		 mov	 DWORD PTR tv240[ebp], ecx
  00457	eb 20		 jmp	 SHORT $LN63@create_key
$LN62@create_key:
  00459	68 3f 04 00 00	 push	 1087			; 0000043fH
  0045e	68 00 00 00 00	 push	 OFFSET ??_C@_0ED@GMECMFKH@c?3?2users?2nhv90?2projects?2eech?2ap@
  00463	8b 15 00 00 00
	00		 mov	 edx, DWORD PTR ?null_entity_pointer_message@@3PBDB ; null_entity_pointer_message
  00469	52		 push	 edx
  0046a	e8 00 00 00 00	 call	 ?process_assert@@YGXPBD0H@Z ; process_assert
  0046f	c7 85 74 ff ff
	ff 00 00 00 00	 mov	 DWORD PTR tv240[ebp], 0
$LN63@create_key:
  00479	b8 01 00 00 00	 mov	 eax, 1
  0047e	85 c0		 test	 eax, eax
  00480	74 0c		 je	 SHORT $LN64@create_key
  00482	c7 85 70 ff ff
	ff 07 00 00 00	 mov	 DWORD PTR tv247[ebp], 7
  0048c	eb 20		 jmp	 SHORT $LN65@create_key
$LN64@create_key:
  0048e	68 3f 04 00 00	 push	 1087			; 0000043fH
  00493	68 00 00 00 00	 push	 OFFSET ??_C@_0ED@GMECMFKH@c?3?2users?2nhv90?2projects?2eech?2ap@
  00498	8b 0d 00 00 00
	00		 mov	 ecx, DWORD PTR ?overload_invalid_int_type_message@@3PBDB ; overload_invalid_int_type_message
  0049e	51		 push	 ecx
  0049f	e8 00 00 00 00	 call	 ?process_assert@@YGXPBD0H@Z ; process_assert
  004a4	c7 85 70 ff ff
	ff 00 00 00 00	 mov	 DWORD PTR tv247[ebp], 0
$LN65@create_key:
  004ae	6a 07		 push	 7
  004b0	8b 55 e4	 mov	 edx, DWORD PTR _keysite$[ebp]
  004b3	52		 push	 edx
  004b4	69 85 74 ff ff
	ff 5c 04 00 00	 imul	 eax, DWORD PTR tv240[ebp], 1116
  004be	8b 8d 70 ff ff
	ff		 mov	 ecx, DWORD PTR tv247[ebp]
  004c4	8b 94 88 00 00
	00 00		 mov	 edx, DWORD PTR ?fn_get_local_entity_int_value@@3PAY0BBH@P6GHPAUENTITY@@W4INT_TYPES@@@ZA[eax+ecx*4]
  004cb	ff d2		 call	 edx
  004cd	85 c0		 test	 eax, eax
  004cf	0f 84 72 03 00
	00		 je	 $LN17@create_key

; 1088 : 					{
; 1089 : 						keysite_type = get_local_entity_int_value (keysite, INT_TYPE_ENTITY_SUB_TYPE);

  004d5	83 7d e4 00	 cmp	 DWORD PTR _keysite$[ebp], 0
  004d9	74 0d		 je	 SHORT $LN66@create_key
  004db	8b 45 e4	 mov	 eax, DWORD PTR _keysite$[ebp]
  004de	8b 08		 mov	 ecx, DWORD PTR [eax]
  004e0	89 8d 74 ff ff
	ff		 mov	 DWORD PTR tv260[ebp], ecx
  004e6	eb 24		 jmp	 SHORT $LN67@create_key
$LN66@create_key:
  004e8	8b 15 00 00 00
	00		 mov	 edx, DWORD PTR ?__LINE__Var@?0??create_keysite_strike_tasks@@YGXXZ@4JA
  004ee	83 c2 40	 add	 edx, 64			; 00000040H
  004f1	52		 push	 edx
  004f2	68 00 00 00 00	 push	 OFFSET ??_C@_0ED@GMECMFKH@c?3?2users?2nhv90?2projects?2eech?2ap@
  004f7	a1 00 00 00 00	 mov	 eax, DWORD PTR ?null_entity_pointer_message@@3PBDB ; null_entity_pointer_message
  004fc	50		 push	 eax
  004fd	e8 00 00 00 00	 call	 ?process_assert@@YGXPBD0H@Z ; process_assert
  00502	c7 85 74 ff ff
	ff 00 00 00 00	 mov	 DWORD PTR tv260[ebp], 0
$LN67@create_key:
  0050c	b9 01 00 00 00	 mov	 ecx, 1
  00511	85 c9		 test	 ecx, ecx
  00513	74 0c		 je	 SHORT $LN68@create_key
  00515	c7 85 70 ff ff
	ff 34 00 00 00	 mov	 DWORD PTR tv268[ebp], 52 ; 00000034H
  0051f	eb 24		 jmp	 SHORT $LN69@create_key
$LN68@create_key:
  00521	8b 15 00 00 00
	00		 mov	 edx, DWORD PTR ?__LINE__Var@?0??create_keysite_strike_tasks@@YGXXZ@4JA
  00527	83 c2 40	 add	 edx, 64			; 00000040H
  0052a	52		 push	 edx
  0052b	68 00 00 00 00	 push	 OFFSET ??_C@_0ED@GMECMFKH@c?3?2users?2nhv90?2projects?2eech?2ap@
  00530	a1 00 00 00 00	 mov	 eax, DWORD PTR ?overload_invalid_int_type_message@@3PBDB ; overload_invalid_int_type_message
  00535	50		 push	 eax
  00536	e8 00 00 00 00	 call	 ?process_assert@@YGXPBD0H@Z ; process_assert
  0053b	c7 85 70 ff ff
	ff 00 00 00 00	 mov	 DWORD PTR tv268[ebp], 0
$LN69@create_key:
  00545	6a 34		 push	 52			; 00000034H
  00547	8b 4d e4	 mov	 ecx, DWORD PTR _keysite$[ebp]
  0054a	51		 push	 ecx
  0054b	69 95 74 ff ff
	ff 5c 04 00 00	 imul	 edx, DWORD PTR tv260[ebp], 1116
  00555	8b 85 70 ff ff
	ff		 mov	 eax, DWORD PTR tv268[ebp]
  0055b	8b 8c 82 00 00
	00 00		 mov	 ecx, DWORD PTR ?fn_get_local_entity_int_value@@3PAY0BBH@P6GHPAUENTITY@@W4INT_TYPES@@@ZA[edx+eax*4]
  00562	ff d1		 call	 ecx
  00564	89 45 cc	 mov	 DWORD PTR _keysite_type$[ebp], eax

; 1090 : 
; 1091 : 						if ((keysite_database [keysite_type].ground_strike_target) || (keysite_database [keysite_type].ship_strike_target))

  00567	6b 45 cc 44	 imul	 eax, DWORD PTR _keysite_type$[ebp], 68
  0056b	8b 88 40 00 00
	00		 mov	 ecx, DWORD PTR ?keysite_database@@3PAUKEYSITE_DATA@@A[eax+64]
  00571	c1 e9 0a	 shr	 ecx, 10			; 0000000aH
  00574	83 e1 01	 and	 ecx, 1
  00577	75 16		 jne	 SHORT $LN15@create_key
  00579	6b 45 cc 44	 imul	 eax, DWORD PTR _keysite_type$[ebp], 68
  0057d	8b 88 40 00 00
	00		 mov	 ecx, DWORD PTR ?keysite_database@@3PAUKEYSITE_DATA@@A[eax+64]
  00583	c1 e9 0b	 shr	 ecx, 11			; 0000000bH
  00586	83 e1 01	 and	 ecx, 1
  00589	0f 84 b8 02 00
	00		 je	 $LN17@create_key
$LN15@create_key:

; 1092 : 						{
; 1093 : 							ASSERT (count < MAX_HIGHLEVEL_TARGET_CHECKS);

  0058f	81 7d d0 a0 00
	00 00		 cmp	 DWORD PTR _count$[ebp], 160 ; 000000a0H
  00596	7c 18		 jl	 SHORT $LN16@create_key
  00598	a1 00 00 00 00	 mov	 eax, DWORD PTR ?__LINE__Var@?0??create_keysite_strike_tasks@@YGXXZ@4JA
  0059d	83 c0 44	 add	 eax, 68			; 00000044H
  005a0	50		 push	 eax
  005a1	68 00 00 00 00	 push	 OFFSET ??_C@_0ED@GMECMFKH@c?3?2users?2nhv90?2projects?2eech?2ap@
  005a6	68 00 00 00 00	 push	 OFFSET ??_C@_0CE@FGAKBBGH@count?5?$DM?5MAX_HIGHLEVEL_TARGET_CH@
  005ab	e8 00 00 00 00	 call	 ?process_assert@@YGXPBD0H@Z ; process_assert
$LN16@create_key:

; 1094 : 	
; 1095 : 							//
; 1096 : 							// get sector
; 1097 : 							//
; 1098 : 	
; 1099 : 							pos = get_local_entity_vec3d_ptr (keysite, VEC3D_TYPE_POSITION);

  005b0	83 7d e4 00	 cmp	 DWORD PTR _keysite$[ebp], 0
  005b4	74 0d		 je	 SHORT $LN70@create_key
  005b6	8b 45 e4	 mov	 eax, DWORD PTR _keysite$[ebp]
  005b9	8b 08		 mov	 ecx, DWORD PTR [eax]
  005bb	89 8d 74 ff ff
	ff		 mov	 DWORD PTR tv297[ebp], ecx
  005c1	eb 24		 jmp	 SHORT $LN71@create_key
$LN70@create_key:
  005c3	8b 15 00 00 00
	00		 mov	 edx, DWORD PTR ?__LINE__Var@?0??create_keysite_strike_tasks@@YGXXZ@4JA
  005c9	83 c2 4a	 add	 edx, 74			; 0000004aH
  005cc	52		 push	 edx
  005cd	68 00 00 00 00	 push	 OFFSET ??_C@_0ED@GMECMFKH@c?3?2users?2nhv90?2projects?2eech?2ap@
  005d2	a1 00 00 00 00	 mov	 eax, DWORD PTR ?null_entity_pointer_message@@3PBDB ; null_entity_pointer_message
  005d7	50		 push	 eax
  005d8	e8 00 00 00 00	 call	 ?process_assert@@YGXPBD0H@Z ; process_assert
  005dd	c7 85 74 ff ff
	ff 00 00 00 00	 mov	 DWORD PTR tv297[ebp], 0
$LN71@create_key:
  005e7	b9 01 00 00 00	 mov	 ecx, 1
  005ec	85 c9		 test	 ecx, ecx
  005ee	74 0c		 je	 SHORT $LN72@create_key
  005f0	c7 85 70 ff ff
	ff 08 00 00 00	 mov	 DWORD PTR tv305[ebp], 8
  005fa	eb 24		 jmp	 SHORT $LN73@create_key
$LN72@create_key:
  005fc	8b 15 00 00 00
	00		 mov	 edx, DWORD PTR ?__LINE__Var@?0??create_keysite_strike_tasks@@YGXXZ@4JA
  00602	83 c2 4a	 add	 edx, 74			; 0000004aH
  00605	52		 push	 edx
  00606	68 00 00 00 00	 push	 OFFSET ??_C@_0ED@GMECMFKH@c?3?2users?2nhv90?2projects?2eech?2ap@
  0060b	a1 00 00 00 00	 mov	 eax, DWORD PTR ?overload_invalid_vec3d_type_message@@3PBDB ; overload_invalid_vec3d_type_message
  00610	50		 push	 eax
  00611	e8 00 00 00 00	 call	 ?process_assert@@YGXPBD0H@Z ; process_assert
  00616	c7 85 70 ff ff
	ff 00 00 00 00	 mov	 DWORD PTR tv305[ebp], 0
$LN73@create_key:
  00620	6a 08		 push	 8
  00622	8b 4d e4	 mov	 ecx, DWORD PTR _keysite$[ebp]
  00625	51		 push	 ecx
  00626	6b 95 74 ff ff
	ff 60		 imul	 edx, DWORD PTR tv297[ebp], 96
  0062d	8b 85 70 ff ff
	ff		 mov	 eax, DWORD PTR tv305[ebp]
  00633	8b 8c 82 00 00
	00 00		 mov	 ecx, DWORD PTR ?fn_get_local_entity_vec3d_ptr@@3PAY0BI@P6GPAUVEC3D@@PAUENTITY@@W4VEC3D_TYPES@@@ZA[edx+eax*4]
  0063a	ff d1		 call	 ecx
  0063c	89 45 e0	 mov	 DWORD PTR _pos$[ebp], eax

; 1100 : 								
; 1101 : 							get_x_sector (x, pos->x);

  0063f	8d 45 dc	 lea	 eax, DWORD PTR _x$[ebp]
  00642	50		 push	 eax
  00643	8b 4d e0	 mov	 ecx, DWORD PTR _pos$[ebp]
  00646	f3 0f 10 01	 movss	 xmm0, DWORD PTR [ecx]
  0064a	51		 push	 ecx
  0064b	f3 0f 11 04 24	 movss	 DWORD PTR [esp], xmm0
  00650	e8 00 00 00 00	 call	 ?convert_float_to_int@@YGXMPAH@Z ; convert_float_to_int
  00655	8b 45 dc	 mov	 eax, DWORD PTR _x$[ebp]
  00658	99		 cdq
  00659	f7 3d 00 00 00
	00		 idiv	 DWORD PTR ?world_map@@3UWORLD_MAP_DATA@@A
  0065f	89 45 dc	 mov	 DWORD PTR _x$[ebp], eax

; 1102 : 							get_z_sector (z, pos->z);

  00662	8d 45 d8	 lea	 eax, DWORD PTR _z$[ebp]
  00665	50		 push	 eax
  00666	8b 4d e0	 mov	 ecx, DWORD PTR _pos$[ebp]
  00669	f3 0f 10 41 08	 movss	 xmm0, DWORD PTR [ecx+8]
  0066e	51		 push	 ecx
  0066f	f3 0f 11 04 24	 movss	 DWORD PTR [esp], xmm0
  00674	e8 00 00 00 00	 call	 ?convert_float_to_int@@YGXMPAH@Z ; convert_float_to_int
  00679	8b 45 d8	 mov	 eax, DWORD PTR _z$[ebp]
  0067c	99		 cdq
  0067d	f7 3d 00 00 00
	00		 idiv	 DWORD PTR ?world_map@@3UWORLD_MAP_DATA@@A
  00683	89 45 d8	 mov	 DWORD PTR _z$[ebp], eax

; 1103 : 	
; 1104 : 							//
; 1105 : 							// Calculate keysite rating
; 1106 : 							//
; 1107 : 	
; 1108 : 							rating = 0.0;

  00686	0f 57 c0	 xorps	 xmm0, xmm0
  00689	f3 0f 11 45 c4	 movss	 DWORD PTR _rating$[ebp], xmm0

; 1109 : 	
; 1110 : 							// low enemy importance
; 1111 : //							rating += (1.0 * (1.0 - get_imap_value (IMAP_IMPORTANCE, side, x, z)));
; 1112 : 	
; 1113 : 							// low enemy S-A threat 
; 1114 : 							rating += (1.0 * (1.0 - get_imap_value (IMAP_AIR_DEFENCE, side, x, z)));

  0068e	8b 45 d8	 mov	 eax, DWORD PTR _z$[ebp]
  00691	50		 push	 eax
  00692	8b 4d dc	 mov	 ecx, DWORD PTR _x$[ebp]
  00695	51		 push	 ecx
  00696	8b 55 fc	 mov	 edx, DWORD PTR _side$[ebp]
  00699	52		 push	 edx
  0069a	6a 02		 push	 2
  0069c	e8 00 00 00 00	 call	 ?get_imap_value@@YGMW4IMAP_TYPES@@W4ENTITY_SIDES@@HH@Z ; get_imap_value
  006a1	dd 9d 70 ff ff
	ff		 fstp	 QWORD PTR tv1031[ebp]
  006a7	f2 0f 10 05 00
	00 00 00	 movsd	 xmm0, QWORD PTR __real@3ff0000000000000
  006af	f2 0f 5c 85 70
	ff ff ff	 subsd	 xmm0, QWORD PTR tv1031[ebp]
  006b7	f2 0f 59 05 00
	00 00 00	 mulsd	 xmm0, QWORD PTR __real@3ff0000000000000
  006bf	f3 0f 5a 4d c4	 cvtss2sd xmm1, DWORD PTR _rating$[ebp]
  006c4	f2 0f 58 c8	 addsd	 xmm1, xmm0
  006c8	f2 0f 5a c1	 cvtsd2ss xmm0, xmm1
  006cc	f3 0f 11 45 c4	 movss	 DWORD PTR _rating$[ebp], xmm0

; 1115 : 	
; 1116 : 							// close to friendly base
; 1117 : 							rating += (4.0 * get_imap_value (IMAP_BASE_DISTANCE, this_side, x, z));

  006d1	8b 45 d8	 mov	 eax, DWORD PTR _z$[ebp]
  006d4	50		 push	 eax
  006d5	8b 4d dc	 mov	 ecx, DWORD PTR _x$[ebp]
  006d8	51		 push	 ecx
  006d9	8b 55 f8	 mov	 edx, DWORD PTR _this_side$[ebp]
  006dc	52		 push	 edx
  006dd	6a 01		 push	 1
  006df	e8 00 00 00 00	 call	 ?get_imap_value@@YGMW4IMAP_TYPES@@W4ENTITY_SIDES@@HH@Z ; get_imap_value
  006e4	dd 9d 70 ff ff
	ff		 fstp	 QWORD PTR tv1041[ebp]
  006ea	f2 0f 10 85 70
	ff ff ff	 movsd	 xmm0, QWORD PTR tv1041[ebp]
  006f2	f2 0f 59 05 00
	00 00 00	 mulsd	 xmm0, QWORD PTR __real@4010000000000000
  006fa	f3 0f 5a 4d c4	 cvtss2sd xmm1, DWORD PTR _rating$[ebp]
  006ff	f2 0f 58 c8	 addsd	 xmm1, xmm0
  00703	f2 0f 5a c1	 cvtsd2ss xmm0, xmm1
  00707	f3 0f 11 45 c4	 movss	 DWORD PTR _rating$[ebp], xmm0

; 1118 : 
; 1119 : 							// low efficiency 
; 1120 : 							rating += (2.0 * (1.0 - get_local_entity_float_value (keysite, FLOAT_TYPE_EFFICIENCY)));

  0070c	83 7d e4 00	 cmp	 DWORD PTR _keysite$[ebp], 0
  00710	74 0d		 je	 SHORT $LN74@create_key
  00712	8b 45 e4	 mov	 eax, DWORD PTR _keysite$[ebp]
  00715	8b 08		 mov	 ecx, DWORD PTR [eax]
  00717	89 8d 74 ff ff
	ff		 mov	 DWORD PTR tv348[ebp], ecx
  0071d	eb 24		 jmp	 SHORT $LN75@create_key
$LN74@create_key:
  0071f	8b 15 00 00 00
	00		 mov	 edx, DWORD PTR ?__LINE__Var@?0??create_keysite_strike_tasks@@YGXXZ@4JA
  00725	83 c2 5f	 add	 edx, 95			; 0000005fH
  00728	52		 push	 edx
  00729	68 00 00 00 00	 push	 OFFSET ??_C@_0ED@GMECMFKH@c?3?2users?2nhv90?2projects?2eech?2ap@
  0072e	a1 00 00 00 00	 mov	 eax, DWORD PTR ?null_entity_pointer_message@@3PBDB ; null_entity_pointer_message
  00733	50		 push	 eax
  00734	e8 00 00 00 00	 call	 ?process_assert@@YGXPBD0H@Z ; process_assert
  00739	c7 85 74 ff ff
	ff 00 00 00 00	 mov	 DWORD PTR tv348[ebp], 0
$LN75@create_key:
  00743	b9 01 00 00 00	 mov	 ecx, 1
  00748	85 c9		 test	 ecx, ecx
  0074a	74 0c		 je	 SHORT $LN76@create_key
  0074c	c7 85 70 ff ff
	ff 21 00 00 00	 mov	 DWORD PTR tv356[ebp], 33 ; 00000021H
  00756	eb 24		 jmp	 SHORT $LN77@create_key
$LN76@create_key:
  00758	8b 15 00 00 00
	00		 mov	 edx, DWORD PTR ?__LINE__Var@?0??create_keysite_strike_tasks@@YGXXZ@4JA
  0075e	83 c2 5f	 add	 edx, 95			; 0000005fH
  00761	52		 push	 edx
  00762	68 00 00 00 00	 push	 OFFSET ??_C@_0ED@GMECMFKH@c?3?2users?2nhv90?2projects?2eech?2ap@
  00767	a1 00 00 00 00	 mov	 eax, DWORD PTR ?overload_invalid_float_type_message@@3PBDB ; overload_invalid_float_type_message
  0076c	50		 push	 eax
  0076d	e8 00 00 00 00	 call	 ?process_assert@@YGXPBD0H@Z ; process_assert
  00772	c7 85 70 ff ff
	ff 00 00 00 00	 mov	 DWORD PTR tv356[ebp], 0
$LN77@create_key:
  0077c	6a 21		 push	 33			; 00000021H
  0077e	8b 4d e4	 mov	 ecx, DWORD PTR _keysite$[ebp]
  00781	51		 push	 ecx
  00782	69 95 74 ff ff
	ff bc 02 00 00	 imul	 edx, DWORD PTR tv348[ebp], 700
  0078c	8b 85 70 ff ff
	ff		 mov	 eax, DWORD PTR tv356[ebp]
  00792	8b 8c 82 00 00
	00 00		 mov	 ecx, DWORD PTR ?fn_get_local_entity_float_value@@3PAY0KP@P6GMPAUENTITY@@W4FLOAT_TYPES@@@ZA[edx+eax*4]
  00799	ff d1		 call	 ecx
  0079b	dd 9d 68 ff ff
	ff		 fstp	 QWORD PTR tv1057[ebp]
  007a1	f2 0f 10 05 00
	00 00 00	 movsd	 xmm0, QWORD PTR __real@3ff0000000000000
  007a9	f2 0f 5c 85 68
	ff ff ff	 subsd	 xmm0, QWORD PTR tv1057[ebp]
  007b1	f2 0f 59 05 00
	00 00 00	 mulsd	 xmm0, QWORD PTR __real@4000000000000000
  007b9	f3 0f 5a 4d c4	 cvtss2sd xmm1, DWORD PTR _rating$[ebp]
  007be	f2 0f 58 c8	 addsd	 xmm1, xmm0
  007c2	f2 0f 5a c1	 cvtsd2ss xmm0, xmm1
  007c6	f3 0f 11 45 c4	 movss	 DWORD PTR _rating$[ebp], xmm0

; 1121 : 
; 1122 : 							// friendly territory
; 1123 : 							rating += 2.0 * get_local_sector_side_ratio (x, z, this_side);

  007cb	8b 45 f8	 mov	 eax, DWORD PTR _this_side$[ebp]
  007ce	50		 push	 eax
  007cf	8b 4d d8	 mov	 ecx, DWORD PTR _z$[ebp]
  007d2	51		 push	 ecx
  007d3	8b 55 dc	 mov	 edx, DWORD PTR _x$[ebp]
  007d6	52		 push	 edx
  007d7	e8 00 00 00 00	 call	 ?get_local_sector_side_ratio@@YGMHHW4ENTITY_SIDES@@@Z ; get_local_sector_side_ratio
  007dc	dd 9d 70 ff ff
	ff		 fstp	 QWORD PTR tv1067[ebp]
  007e2	f2 0f 10 85 70
	ff ff ff	 movsd	 xmm0, QWORD PTR tv1067[ebp]
  007ea	f2 0f 59 05 00
	00 00 00	 mulsd	 xmm0, QWORD PTR __real@4000000000000000
  007f2	f3 0f 5a 4d c4	 cvtss2sd xmm1, DWORD PTR _rating$[ebp]
  007f7	f2 0f 58 c8	 addsd	 xmm1, xmm0
  007fb	f2 0f 5a c1	 cvtsd2ss xmm0, xmm1
  007ff	f3 0f 11 45 c4	 movss	 DWORD PTR _rating$[ebp], xmm0

; 1124 : 
; 1125 : 							max_rating = 9.0;

  00804	f3 0f 10 05 00
	00 00 00	 movss	 xmm0, DWORD PTR __real@41100000
  0080c	f3 0f 11 45 bc	 movss	 DWORD PTR _max_rating$[ebp], xmm0

; 1126 : 
; 1127 : 							//
; 1128 : 							// Store
; 1129 : 							//
; 1130 : 	
; 1131 : 							if (rating > 0.0)

  00811	f3 0f 5a 45 c4	 cvtss2sd xmm0, DWORD PTR _rating$[ebp]
  00816	66 0f 2f 05 00
	00 00 00	 comisd	 xmm0, QWORD PTR __real@0000000000000000
  0081e	76 27		 jbe	 SHORT $LN17@create_key

; 1132 : 							{
; 1133 : 								target_list [count] = keysite;

  00820	8b 45 d0	 mov	 eax, DWORD PTR _count$[ebp]
  00823	8b 4d e4	 mov	 ecx, DWORD PTR _keysite$[ebp]
  00826	89 0c 85 00 00
	00 00		 mov	 DWORD PTR ?target_list@@3PAPAUENTITY@@A[eax*4], ecx

; 1134 : 		
; 1135 : 								target_rating [count] = rating;

  0082d	8b 45 d0	 mov	 eax, DWORD PTR _count$[ebp]
  00830	f3 0f 10 45 c4	 movss	 xmm0, DWORD PTR _rating$[ebp]
  00835	f3 0f 11 04 85
	00 00 00 00	 movss	 DWORD PTR ?target_rating@@3PAMA[eax*4], xmm0

; 1136 : 		
; 1137 : 								count ++;

  0083e	8b 45 d0	 mov	 eax, DWORD PTR _count$[ebp]
  00841	83 c0 01	 add	 eax, 1
  00844	89 45 d0	 mov	 DWORD PTR _count$[ebp], eax
$LN17@create_key:

; 1138 : 							}
; 1139 : 						}
; 1140 : 					}
; 1141 : 	
; 1142 : 					keysite = get_local_entity_child_succ (keysite, LIST_TYPE_KEYSITE_FORCE);

  00847	83 7d e4 00	 cmp	 DWORD PTR _keysite$[ebp], 0
  0084b	74 0d		 je	 SHORT $LN78@create_key
  0084d	8b 45 e4	 mov	 eax, DWORD PTR _keysite$[ebp]
  00850	8b 08		 mov	 ecx, DWORD PTR [eax]
  00852	89 8d 74 ff ff
	ff		 mov	 DWORD PTR tv390[ebp], ecx
  00858	eb 24		 jmp	 SHORT $LN79@create_key
$LN78@create_key:
  0085a	8b 15 00 00 00
	00		 mov	 edx, DWORD PTR ?__LINE__Var@?0??create_keysite_strike_tasks@@YGXXZ@4JA
  00860	83 c2 75	 add	 edx, 117		; 00000075H
  00863	52		 push	 edx
  00864	68 00 00 00 00	 push	 OFFSET ??_C@_0ED@GMECMFKH@c?3?2users?2nhv90?2projects?2eech?2ap@
  00869	a1 00 00 00 00	 mov	 eax, DWORD PTR ?null_entity_pointer_message@@3PBDB ; null_entity_pointer_message
  0086e	50		 push	 eax
  0086f	e8 00 00 00 00	 call	 ?process_assert@@YGXPBD0H@Z ; process_assert
  00874	c7 85 74 ff ff
	ff 00 00 00 00	 mov	 DWORD PTR tv390[ebp], 0
$LN79@create_key:
  0087e	b9 01 00 00 00	 mov	 ecx, 1
  00883	85 c9		 test	 ecx, ecx
  00885	74 0c		 je	 SHORT $LN80@create_key
  00887	c7 85 70 ff ff
	ff 15 00 00 00	 mov	 DWORD PTR tv398[ebp], 21 ; 00000015H
  00891	eb 24		 jmp	 SHORT $LN81@create_key
$LN80@create_key:
  00893	8b 15 00 00 00
	00		 mov	 edx, DWORD PTR ?__LINE__Var@?0??create_keysite_strike_tasks@@YGXXZ@4JA
  00899	83 c2 75	 add	 edx, 117		; 00000075H
  0089c	52		 push	 edx
  0089d	68 00 00 00 00	 push	 OFFSET ??_C@_0ED@GMECMFKH@c?3?2users?2nhv90?2projects?2eech?2ap@
  008a2	a1 00 00 00 00	 mov	 eax, DWORD PTR ?overload_invalid_list_type_message@@3PBDB ; overload_invalid_list_type_message
  008a7	50		 push	 eax
  008a8	e8 00 00 00 00	 call	 ?process_assert@@YGXPBD0H@Z ; process_assert
  008ad	c7 85 70 ff ff
	ff 00 00 00 00	 mov	 DWORD PTR tv398[ebp], 0
$LN81@create_key:
  008b7	6a 15		 push	 21			; 00000015H
  008b9	8b 4d e4	 mov	 ecx, DWORD PTR _keysite$[ebp]
  008bc	51		 push	 ecx
  008bd	69 95 74 ff ff
	ff b4 00 00 00	 imul	 edx, DWORD PTR tv390[ebp], 180
  008c7	8b 85 70 ff ff
	ff		 mov	 eax, DWORD PTR tv398[ebp]
  008cd	8b 8c 82 00 00
	00 00		 mov	 ecx, DWORD PTR ?fn_get_local_entity_child_succ@@3PAY0CN@P6GPAUENTITY@@PAU1@W4LIST_TYPES@@@ZA[edx+eax*4]
  008d4	ff d1		 call	 ecx
  008d6	89 45 e4	 mov	 DWORD PTR _keysite$[ebp], eax

; 1143 : 				}

  008d9	e9 c2 fa ff ff	 jmp	 $LN6@create_key
$LN7@create_key:

; 1144 : 			}
; 1145 : 
; 1146 : 			target_force = get_local_entity_child_succ (target_force, LIST_TYPE_FORCE);

  008de	83 7d ec 00	 cmp	 DWORD PTR _target_force$[ebp], 0
  008e2	74 0d		 je	 SHORT $LN82@create_key
  008e4	8b 45 ec	 mov	 eax, DWORD PTR _target_force$[ebp]
  008e7	8b 08		 mov	 ecx, DWORD PTR [eax]
  008e9	89 8d 74 ff ff
	ff		 mov	 DWORD PTR tv410[ebp], ecx
  008ef	eb 24		 jmp	 SHORT $LN83@create_key
$LN82@create_key:
  008f1	8b 15 00 00 00
	00		 mov	 edx, DWORD PTR ?__LINE__Var@?0??create_keysite_strike_tasks@@YGXXZ@4JA
  008f7	83 c2 79	 add	 edx, 121		; 00000079H
  008fa	52		 push	 edx
  008fb	68 00 00 00 00	 push	 OFFSET ??_C@_0ED@GMECMFKH@c?3?2users?2nhv90?2projects?2eech?2ap@
  00900	a1 00 00 00 00	 mov	 eax, DWORD PTR ?null_entity_pointer_message@@3PBDB ; null_entity_pointer_message
  00905	50		 push	 eax
  00906	e8 00 00 00 00	 call	 ?process_assert@@YGXPBD0H@Z ; process_assert
  0090b	c7 85 74 ff ff
	ff 00 00 00 00	 mov	 DWORD PTR tv410[ebp], 0
$LN83@create_key:
  00915	b9 01 00 00 00	 mov	 ecx, 1
  0091a	85 c9		 test	 ecx, ecx
  0091c	74 0c		 je	 SHORT $LN84@create_key
  0091e	c7 85 70 ff ff
	ff 0e 00 00 00	 mov	 DWORD PTR tv418[ebp], 14 ; 0000000eH
  00928	eb 24		 jmp	 SHORT $LN85@create_key
$LN84@create_key:
  0092a	8b 15 00 00 00
	00		 mov	 edx, DWORD PTR ?__LINE__Var@?0??create_keysite_strike_tasks@@YGXXZ@4JA
  00930	83 c2 79	 add	 edx, 121		; 00000079H
  00933	52		 push	 edx
  00934	68 00 00 00 00	 push	 OFFSET ??_C@_0ED@GMECMFKH@c?3?2users?2nhv90?2projects?2eech?2ap@
  00939	a1 00 00 00 00	 mov	 eax, DWORD PTR ?overload_invalid_list_type_message@@3PBDB ; overload_invalid_list_type_message
  0093e	50		 push	 eax
  0093f	e8 00 00 00 00	 call	 ?process_assert@@YGXPBD0H@Z ; process_assert
  00944	c7 85 70 ff ff
	ff 00 00 00 00	 mov	 DWORD PTR tv418[ebp], 0
$LN85@create_key:
  0094e	6a 0e		 push	 14			; 0000000eH
  00950	8b 4d ec	 mov	 ecx, DWORD PTR _target_force$[ebp]
  00953	51		 push	 ecx
  00954	69 95 74 ff ff
	ff b4 00 00 00	 imul	 edx, DWORD PTR tv410[ebp], 180
  0095e	8b 85 70 ff ff
	ff		 mov	 eax, DWORD PTR tv418[ebp]
  00964	8b 8c 82 00 00
	00 00		 mov	 ecx, DWORD PTR ?fn_get_local_entity_child_succ@@3PAY0CN@P6GPAUENTITY@@PAU1@W4LIST_TYPES@@@ZA[edx+eax*4]
  0096b	ff d1		 call	 ecx
  0096d	89 45 ec	 mov	 DWORD PTR _target_force$[ebp], eax

; 1147 : 		}

  00970	e9 e1 f8 ff ff	 jmp	 $LN4@create_key
$LN5@create_key:

; 1148 : 
; 1149 : 		//
; 1150 : 		// Create tasks
; 1151 : 		//
; 1152 : 
; 1153 : 		if (count > 0)

  00975	83 7d d0 00	 cmp	 DWORD PTR _count$[ebp], 0
  00979	0f 8e e3 0a 00
	00		 jle	 $LN9@create_key

; 1154 : 		{
; 1155 : 			debug_log ("HIGHLEVL: %s %d candidates for STRIKE", entity_side_short_names [this_side], count);

  0097f	8b 45 d0	 mov	 eax, DWORD PTR _count$[ebp]
  00982	50		 push	 eax
  00983	8b 4d f8	 mov	 ecx, DWORD PTR _this_side$[ebp]
  00986	8b 14 8d 00 00
	00 00		 mov	 edx, DWORD PTR ?entity_side_short_names@@3PAPBDA[ecx*4]
  0098d	52		 push	 edx
  0098e	68 00 00 00 00	 push	 OFFSET ??_C@_0CG@NIEBJEDL@HIGHLEVL?3?5?$CFs?5?$CFd?5candidates?5for?5@
  00993	e8 00 00 00 00	 call	 ?debug_log@@YAXPBDZZ	; debug_log
  00998	83 c4 0c	 add	 esp, 12			; 0000000cH

; 1156 : 
; 1157 : 			quicksort_entity_list (target_list, count, target_rating);

  0099b	68 00 00 00 00	 push	 OFFSET ?target_rating@@3PAMA
  009a0	8b 45 d0	 mov	 eax, DWORD PTR _count$[ebp]
  009a3	50		 push	 eax
  009a4	68 00 00 00 00	 push	 OFFSET ?target_list@@3PAPAUENTITY@@A
  009a9	e8 00 00 00 00	 call	 ?quicksort_entity_list@@YGXPAPAUENTITY@@HPAM@Z ; quicksort_entity_list

; 1158 : 
; 1159 : 			count = min (count, CREATE_KEYSITE_STRIKE_TASK_COUNT);

  009ae	c7 85 78 ff ff
	ff 03 00 00 00	 mov	 DWORD PTR $T1[ebp], 3
  009b8	8d 85 78 ff ff
	ff		 lea	 eax, DWORD PTR $T1[ebp]
  009be	50		 push	 eax
  009bf	8d 4d d0	 lea	 ecx, DWORD PTR _count$[ebp]
  009c2	51		 push	 ecx
  009c3	e8 00 00 00 00	 call	 ??$min@H@std@@YGABHABH0@Z ; std::min<int>
  009c8	8b 10		 mov	 edx, DWORD PTR [eax]
  009ca	89 55 d0	 mov	 DWORD PTR _count$[ebp], edx

; 1160 : 
; 1161 : 			ASSERT (target_rating [0] > 0.0);

  009cd	b8 04 00 00 00	 mov	 eax, 4
  009d2	6b c8 00	 imul	 ecx, eax, 0
  009d5	f3 0f 5a 81 00
	00 00 00	 cvtss2sd xmm0, DWORD PTR ?target_rating@@3PAMA[ecx]
  009dd	66 0f 2f 05 00
	00 00 00	 comisd	 xmm0, QWORD PTR __real@0000000000000000
  009e5	77 1a		 ja	 SHORT $LN19@create_key
  009e7	a1 00 00 00 00	 mov	 eax, DWORD PTR ?__LINE__Var@?0??create_keysite_strike_tasks@@YGXXZ@4JA
  009ec	05 88 00 00 00	 add	 eax, 136		; 00000088H
  009f1	50		 push	 eax
  009f2	68 00 00 00 00	 push	 OFFSET ??_C@_0ED@GMECMFKH@c?3?2users?2nhv90?2projects?2eech?2ap@
  009f7	68 00 00 00 00	 push	 OFFSET ??_C@_0BI@BNNJCIEB@target_rating?5?$FL0?$FN?5?$DO?50?40@
  009fc	e8 00 00 00 00	 call	 ?process_assert@@YGXPBD0H@Z ; process_assert
$LN19@create_key:

; 1162 : 
; 1163 : 			for (loop = 0; loop < count; loop ++)

  00a01	c7 45 d4 00 00
	00 00		 mov	 DWORD PTR _loop$[ebp], 0
  00a08	eb 09		 jmp	 SHORT $LN10@create_key
$LN8@create_key:
  00a0a	8b 45 d4	 mov	 eax, DWORD PTR _loop$[ebp]
  00a0d	83 c0 01	 add	 eax, 1
  00a10	89 45 d4	 mov	 DWORD PTR _loop$[ebp], eax
$LN10@create_key:
  00a13	8b 45 d4	 mov	 eax, DWORD PTR _loop$[ebp]
  00a16	3b 45 d0	 cmp	 eax, DWORD PTR _count$[ebp]
  00a19	0f 8d 43 0a 00
	00		 jge	 $LN9@create_key

; 1164 : 			{
; 1165 : 				ratio = target_rating [loop] / target_rating [0];

  00a1f	b8 04 00 00 00	 mov	 eax, 4
  00a24	6b c8 00	 imul	 ecx, eax, 0
  00a27	8b 55 d4	 mov	 edx, DWORD PTR _loop$[ebp]
  00a2a	f3 0f 10 04 95
	00 00 00 00	 movss	 xmm0, DWORD PTR ?target_rating@@3PAMA[edx*4]
  00a33	f3 0f 5e 81 00
	00 00 00	 divss	 xmm0, DWORD PTR ?target_rating@@3PAMA[ecx]
  00a3b	f3 0f 11 45 c0	 movss	 DWORD PTR _ratio$[ebp], xmm0

; 1166 : 
; 1167 : 				if (ratio >= MIN_TASK_CREATION_RATIO)

  00a40	f3 0f 5a 45 c0	 cvtss2sd xmm0, DWORD PTR _ratio$[ebp]
  00a45	66 0f 2f 05 00
	00 00 00	 comisd	 xmm0, QWORD PTR __real@3fe8000000000000
  00a4d	0f 82 0a 0a 00
	00		 jb	 $LN36@create_key

; 1168 : 				{
; 1169 : 					keysite = target_list [loop];

  00a53	8b 45 d4	 mov	 eax, DWORD PTR _loop$[ebp]
  00a56	8b 0c 85 00 00
	00 00		 mov	 ecx, DWORD PTR ?target_list@@3PAPAUENTITY@@A[eax*4]
  00a5d	89 4d e4	 mov	 DWORD PTR _keysite$[ebp], ecx

; 1170 : 	
; 1171 : 					sector = get_local_entity_parent (keysite, LIST_TYPE_SECTOR);

  00a60	83 7d e4 00	 cmp	 DWORD PTR _keysite$[ebp], 0
  00a64	74 0d		 je	 SHORT $LN86@create_key
  00a66	8b 45 e4	 mov	 eax, DWORD PTR _keysite$[ebp]
  00a69	8b 08		 mov	 ecx, DWORD PTR [eax]
  00a6b	89 8d 74 ff ff
	ff		 mov	 DWORD PTR tv461[ebp], ecx
  00a71	eb 27		 jmp	 SHORT $LN87@create_key
$LN86@create_key:
  00a73	8b 15 00 00 00
	00		 mov	 edx, DWORD PTR ?__LINE__Var@?0??create_keysite_strike_tasks@@YGXXZ@4JA
  00a79	81 c2 92 00 00
	00		 add	 edx, 146		; 00000092H
  00a7f	52		 push	 edx
  00a80	68 00 00 00 00	 push	 OFFSET ??_C@_0ED@GMECMFKH@c?3?2users?2nhv90?2projects?2eech?2ap@
  00a85	a1 00 00 00 00	 mov	 eax, DWORD PTR ?null_entity_pointer_message@@3PBDB ; null_entity_pointer_message
  00a8a	50		 push	 eax
  00a8b	e8 00 00 00 00	 call	 ?process_assert@@YGXPBD0H@Z ; process_assert
  00a90	c7 85 74 ff ff
	ff 00 00 00 00	 mov	 DWORD PTR tv461[ebp], 0
$LN87@create_key:
  00a9a	b9 01 00 00 00	 mov	 ecx, 1
  00a9f	85 c9		 test	 ecx, ecx
  00aa1	74 0c		 je	 SHORT $LN88@create_key
  00aa3	c7 85 70 ff ff
	ff 21 00 00 00	 mov	 DWORD PTR tv469[ebp], 33 ; 00000021H
  00aad	eb 27		 jmp	 SHORT $LN89@create_key
$LN88@create_key:
  00aaf	8b 15 00 00 00
	00		 mov	 edx, DWORD PTR ?__LINE__Var@?0??create_keysite_strike_tasks@@YGXXZ@4JA
  00ab5	81 c2 92 00 00
	00		 add	 edx, 146		; 00000092H
  00abb	52		 push	 edx
  00abc	68 00 00 00 00	 push	 OFFSET ??_C@_0ED@GMECMFKH@c?3?2users?2nhv90?2projects?2eech?2ap@
  00ac1	a1 00 00 00 00	 mov	 eax, DWORD PTR ?overload_invalid_list_type_message@@3PBDB ; overload_invalid_list_type_message
  00ac6	50		 push	 eax
  00ac7	e8 00 00 00 00	 call	 ?process_assert@@YGXPBD0H@Z ; process_assert
  00acc	c7 85 70 ff ff
	ff 00 00 00 00	 mov	 DWORD PTR tv469[ebp], 0
$LN89@create_key:
  00ad6	6a 21		 push	 33			; 00000021H
  00ad8	8b 4d e4	 mov	 ecx, DWORD PTR _keysite$[ebp]
  00adb	51		 push	 ecx
  00adc	69 95 74 ff ff
	ff b4 00 00 00	 imul	 edx, DWORD PTR tv461[ebp], 180
  00ae6	8b 85 70 ff ff
	ff		 mov	 eax, DWORD PTR tv469[ebp]
  00aec	8b 8c 82 00 00
	00 00		 mov	 ecx, DWORD PTR ?fn_get_local_entity_parent@@3PAY0CN@P6GPAUENTITY@@PAU1@W4LIST_TYPES@@@ZA[edx+eax*4]
  00af3	ff d1		 call	 ecx
  00af5	89 45 f0	 mov	 DWORD PTR _sector$[ebp], eax

; 1172 : 	
; 1173 : 					ASSERT (sector);

  00af8	83 7d f0 00	 cmp	 DWORD PTR _sector$[ebp], 0
  00afc	75 1a		 jne	 SHORT $LN21@create_key
  00afe	a1 00 00 00 00	 mov	 eax, DWORD PTR ?__LINE__Var@?0??create_keysite_strike_tasks@@YGXXZ@4JA
  00b03	05 94 00 00 00	 add	 eax, 148		; 00000094H
  00b08	50		 push	 eax
  00b09	68 00 00 00 00	 push	 OFFSET ??_C@_0ED@GMECMFKH@c?3?2users?2nhv90?2projects?2eech?2ap@
  00b0e	68 00 00 00 00	 push	 OFFSET ??_C@_06IDGHNJOB@sector@
  00b13	e8 00 00 00 00	 call	 ?process_assert@@YGXPBD0H@Z ; process_assert
$LN21@create_key:

; 1174 : 					
; 1175 : 					keysite_type = get_local_entity_int_value (keysite, INT_TYPE_ENTITY_SUB_TYPE);

  00b18	83 7d e4 00	 cmp	 DWORD PTR _keysite$[ebp], 0
  00b1c	74 0d		 je	 SHORT $LN90@create_key
  00b1e	8b 45 e4	 mov	 eax, DWORD PTR _keysite$[ebp]
  00b21	8b 08		 mov	 ecx, DWORD PTR [eax]
  00b23	89 8d 74 ff ff
	ff		 mov	 DWORD PTR tv486[ebp], ecx
  00b29	eb 27		 jmp	 SHORT $LN91@create_key
$LN90@create_key:
  00b2b	8b 15 00 00 00
	00		 mov	 edx, DWORD PTR ?__LINE__Var@?0??create_keysite_strike_tasks@@YGXXZ@4JA
  00b31	81 c2 96 00 00
	00		 add	 edx, 150		; 00000096H
  00b37	52		 push	 edx
  00b38	68 00 00 00 00	 push	 OFFSET ??_C@_0ED@GMECMFKH@c?3?2users?2nhv90?2projects?2eech?2ap@
  00b3d	a1 00 00 00 00	 mov	 eax, DWORD PTR ?null_entity_pointer_message@@3PBDB ; null_entity_pointer_message
  00b42	50		 push	 eax
  00b43	e8 00 00 00 00	 call	 ?process_assert@@YGXPBD0H@Z ; process_assert
  00b48	c7 85 74 ff ff
	ff 00 00 00 00	 mov	 DWORD PTR tv486[ebp], 0
$LN91@create_key:
  00b52	b9 01 00 00 00	 mov	 ecx, 1
  00b57	85 c9		 test	 ecx, ecx
  00b59	74 0c		 je	 SHORT $LN92@create_key
  00b5b	c7 85 70 ff ff
	ff 34 00 00 00	 mov	 DWORD PTR tv494[ebp], 52 ; 00000034H
  00b65	eb 27		 jmp	 SHORT $LN93@create_key
$LN92@create_key:
  00b67	8b 15 00 00 00
	00		 mov	 edx, DWORD PTR ?__LINE__Var@?0??create_keysite_strike_tasks@@YGXXZ@4JA
  00b6d	81 c2 96 00 00
	00		 add	 edx, 150		; 00000096H
  00b73	52		 push	 edx
  00b74	68 00 00 00 00	 push	 OFFSET ??_C@_0ED@GMECMFKH@c?3?2users?2nhv90?2projects?2eech?2ap@
  00b79	a1 00 00 00 00	 mov	 eax, DWORD PTR ?overload_invalid_int_type_message@@3PBDB ; overload_invalid_int_type_message
  00b7e	50		 push	 eax
  00b7f	e8 00 00 00 00	 call	 ?process_assert@@YGXPBD0H@Z ; process_assert
  00b84	c7 85 70 ff ff
	ff 00 00 00 00	 mov	 DWORD PTR tv494[ebp], 0
$LN93@create_key:
  00b8e	6a 34		 push	 52			; 00000034H
  00b90	8b 4d e4	 mov	 ecx, DWORD PTR _keysite$[ebp]
  00b93	51		 push	 ecx
  00b94	69 95 74 ff ff
	ff 5c 04 00 00	 imul	 edx, DWORD PTR tv486[ebp], 1116
  00b9e	8b 85 70 ff ff
	ff		 mov	 eax, DWORD PTR tv494[ebp]
  00ba4	8b 8c 82 00 00
	00 00		 mov	 ecx, DWORD PTR ?fn_get_local_entity_int_value@@3PAY0BBH@P6GHPAUENTITY@@W4INT_TYPES@@@ZA[edx+eax*4]
  00bab	ff d1		 call	 ecx
  00bad	89 45 cc	 mov	 DWORD PTR _keysite_type$[ebp], eax

; 1176 : 	
; 1177 : 					if ((keysite_database [keysite_type].recon_target) || (get_sector_fog_of_war_value (sector, this_side) < (0.25 * get_local_entity_float_value (get_session_entity (), FLOAT_TYPE_FOG_OF_WAR_MAXIMUM_VALUE))))

  00bb0	6b 45 cc 44	 imul	 eax, DWORD PTR _keysite_type$[ebp], 68
  00bb4	8b 88 40 00 00
	00		 mov	 ecx, DWORD PTR ?keysite_database@@3PAUKEYSITE_DATA@@A[eax+64]
  00bba	c1 e9 09	 shr	 ecx, 9
  00bbd	83 e1 01	 and	 ecx, 1
  00bc0	0f 85 da 00 00
	00		 jne	 $LN24@create_key
  00bc6	83 3d 00 00 00
	00 00		 cmp	 DWORD PTR ?session_entity@@3PAUENTITY@@A, 0 ; session_entity
  00bcd	74 0f		 je	 SHORT $LN94@create_key
  00bcf	a1 00 00 00 00	 mov	 eax, DWORD PTR ?session_entity@@3PAUENTITY@@A ; session_entity
  00bd4	8b 08		 mov	 ecx, DWORD PTR [eax]
  00bd6	89 8d 74 ff ff
	ff		 mov	 DWORD PTR tv515[ebp], ecx
  00bdc	eb 20		 jmp	 SHORT $LN95@create_key
$LN94@create_key:
  00bde	68 99 04 00 00	 push	 1177			; 00000499H
  00be3	68 00 00 00 00	 push	 OFFSET ??_C@_0ED@GMECMFKH@c?3?2users?2nhv90?2projects?2eech?2ap@
  00be8	8b 15 00 00 00
	00		 mov	 edx, DWORD PTR ?null_entity_pointer_message@@3PBDB ; null_entity_pointer_message
  00bee	52		 push	 edx
  00bef	e8 00 00 00 00	 call	 ?process_assert@@YGXPBD0H@Z ; process_assert
  00bf4	c7 85 74 ff ff
	ff 00 00 00 00	 mov	 DWORD PTR tv515[ebp], 0
$LN95@create_key:
  00bfe	b8 01 00 00 00	 mov	 eax, 1
  00c03	85 c0		 test	 eax, eax
  00c05	74 0c		 je	 SHORT $LN96@create_key
  00c07	c7 85 70 ff ff
	ff 2c 00 00 00	 mov	 DWORD PTR tv522[ebp], 44 ; 0000002cH
  00c11	eb 20		 jmp	 SHORT $LN97@create_key
$LN96@create_key:
  00c13	68 99 04 00 00	 push	 1177			; 00000499H
  00c18	68 00 00 00 00	 push	 OFFSET ??_C@_0ED@GMECMFKH@c?3?2users?2nhv90?2projects?2eech?2ap@
  00c1d	8b 0d 00 00 00
	00		 mov	 ecx, DWORD PTR ?overload_invalid_float_type_message@@3PBDB ; overload_invalid_float_type_message
  00c23	51		 push	 ecx
  00c24	e8 00 00 00 00	 call	 ?process_assert@@YGXPBD0H@Z ; process_assert
  00c29	c7 85 70 ff ff
	ff 00 00 00 00	 mov	 DWORD PTR tv522[ebp], 0
$LN97@create_key:
  00c33	8b 55 f8	 mov	 edx, DWORD PTR _this_side$[ebp]
  00c36	52		 push	 edx
  00c37	8b 45 f0	 mov	 eax, DWORD PTR _sector$[ebp]
  00c3a	50		 push	 eax
  00c3b	e8 00 00 00 00	 call	 ?get_sector_fog_of_war_value@@YGMPAUENTITY@@W4ENTITY_SIDES@@@Z ; get_sector_fog_of_war_value
  00c40	dd 9d 68 ff ff
	ff		 fstp	 QWORD PTR tv1149[ebp]
  00c46	f2 0f 10 85 68
	ff ff ff	 movsd	 xmm0, QWORD PTR tv1149[ebp]
  00c4e	6a 2c		 push	 44			; 0000002cH
  00c50	8b 0d 00 00 00
	00		 mov	 ecx, DWORD PTR ?session_entity@@3PAUENTITY@@A ; session_entity
  00c56	51		 push	 ecx
  00c57	69 95 74 ff ff
	ff bc 02 00 00	 imul	 edx, DWORD PTR tv515[ebp], 700
  00c61	8b 85 70 ff ff
	ff		 mov	 eax, DWORD PTR tv522[ebp]
  00c67	8b 8c 82 00 00
	00 00		 mov	 ecx, DWORD PTR ?fn_get_local_entity_float_value@@3PAY0KP@P6GMPAUENTITY@@W4FLOAT_TYPES@@@ZA[edx+eax*4]
  00c6e	f2 0f 11 85 60
	ff ff ff	 movsd	 QWORD PTR tv1327[ebp], xmm0
  00c76	ff d1		 call	 ecx
  00c78	dd 9d 58 ff ff
	ff		 fstp	 QWORD PTR tv1157[ebp]
  00c7e	f2 0f 10 85 58
	ff ff ff	 movsd	 xmm0, QWORD PTR tv1157[ebp]
  00c86	f2 0f 59 05 00
	00 00 00	 mulsd	 xmm0, QWORD PTR __real@3fd0000000000000
  00c8e	f2 0f 10 8d 60
	ff ff ff	 movsd	 xmm1, QWORD PTR tv1327[ebp]
  00c96	66 0f 2f c1	 comisd	 xmm0, xmm1
  00c9a	0f 86 c2 02 00
	00		 jbe	 $LN22@create_key
$LN24@create_key:

; 1178 : 					{
; 1179 : 						//
; 1180 : 						// KEYSITE REQUIRES RECON (Strike Created Upon Reaction
; 1181 : 						//
; 1182 : 	
; 1183 : 						if (
; 1184 : 								(!entity_is_object_of_task (keysite, ENTITY_SUB_TYPE_TASK_RECON, this_side)) &&
; 1185 : 								(!entity_is_object_of_task (keysite, ENTITY_SUB_TYPE_TASK_BDA, this_side)) &&
; 1186 : 								(!entity_is_object_of_task (keysite, ENTITY_SUB_TYPE_TASK_GROUND_STRIKE, this_side)) &&
; 1187 : 								(!entity_is_object_of_task (keysite, ENTITY_SUB_TYPE_TASK_ANTI_SHIP_STRIKE, this_side)) &&

  00ca0	8b 45 f8	 mov	 eax, DWORD PTR _this_side$[ebp]
  00ca3	50		 push	 eax
  00ca4	6a 11		 push	 17			; 00000011H
  00ca6	8b 4d e4	 mov	 ecx, DWORD PTR _keysite$[ebp]
  00ca9	51		 push	 ecx
  00caa	e8 00 00 00 00	 call	 ?entity_is_object_of_task@@YGHPAUENTITY@@HW4ENTITY_SIDES@@@Z ; entity_is_object_of_task
  00caf	85 c0		 test	 eax, eax
  00cb1	0f 85 a6 02 00
	00		 jne	 $LN29@create_key
  00cb7	8b 45 f8	 mov	 eax, DWORD PTR _this_side$[ebp]
  00cba	50		 push	 eax
  00cbb	6a 05		 push	 5
  00cbd	8b 4d e4	 mov	 ecx, DWORD PTR _keysite$[ebp]
  00cc0	51		 push	 ecx
  00cc1	e8 00 00 00 00	 call	 ?entity_is_object_of_task@@YGHPAUENTITY@@HW4ENTITY_SIDES@@@Z ; entity_is_object_of_task
  00cc6	85 c0		 test	 eax, eax
  00cc8	0f 85 8f 02 00
	00		 jne	 $LN29@create_key
  00cce	8b 45 f8	 mov	 eax, DWORD PTR _this_side$[ebp]
  00cd1	50		 push	 eax
  00cd2	6a 0c		 push	 12			; 0000000cH
  00cd4	8b 4d e4	 mov	 ecx, DWORD PTR _keysite$[ebp]
  00cd7	51		 push	 ecx
  00cd8	e8 00 00 00 00	 call	 ?entity_is_object_of_task@@YGHPAUENTITY@@HW4ENTITY_SIDES@@@Z ; entity_is_object_of_task
  00cdd	85 c0		 test	 eax, eax
  00cdf	0f 85 78 02 00
	00		 jne	 $LN29@create_key
  00ce5	8b 45 f8	 mov	 eax, DWORD PTR _this_side$[ebp]
  00ce8	50		 push	 eax
  00ce9	6a 02		 push	 2
  00ceb	8b 4d e4	 mov	 ecx, DWORD PTR _keysite$[ebp]
  00cee	51		 push	 ecx
  00cef	e8 00 00 00 00	 call	 ?entity_is_object_of_task@@YGHPAUENTITY@@HW4ENTITY_SIDES@@@Z ; entity_is_object_of_task
  00cf4	85 c0		 test	 eax, eax
  00cf6	0f 85 61 02 00
	00		 jne	 $LN29@create_key
  00cfc	8b 45 f8	 mov	 eax, DWORD PTR _this_side$[ebp]
  00cff	50		 push	 eax
  00d00	6a 1a		 push	 26			; 0000001aH
  00d02	8b 4d e4	 mov	 ecx, DWORD PTR _keysite$[ebp]
  00d05	51		 push	 ecx
  00d06	e8 00 00 00 00	 call	 ?entity_is_object_of_task@@YGHPAUENTITY@@HW4ENTITY_SIDES@@@Z ; entity_is_object_of_task
  00d0b	85 c0		 test	 eax, eax
  00d0d	0f 85 4a 02 00
	00		 jne	 $LN29@create_key

; 1188 : 								(!entity_is_object_of_task (keysite, ENTITY_SUB_TYPE_TASK_TROOP_INSERTION, this_side))
; 1189 : 							)
; 1190 : 						{
; 1191 : 							if (keysite_database [keysite_type].ground_strike_target)

  00d13	6b 45 cc 44	 imul	 eax, DWORD PTR _keysite_type$[ebp], 68
  00d17	8b 88 40 00 00
	00		 mov	 ecx, DWORD PTR ?keysite_database@@3PAUKEYSITE_DATA@@A[eax+64]
  00d1d	c1 e9 0a	 shr	 ecx, 10			; 0000000aH
  00d20	83 e1 01	 and	 ecx, 1
  00d23	74 28		 je	 SHORT $LN26@create_key

; 1192 : 							{
; 1193 : 								priority = (target_rating [loop] / max_rating) * task_database [ENTITY_SUB_TYPE_TASK_GROUND_STRIKE].task_priority;

  00d25	8b 45 d4	 mov	 eax, DWORD PTR _loop$[ebp]
  00d28	f3 0f 10 04 85
	00 00 00 00	 movss	 xmm0, DWORD PTR ?target_rating@@3PAMA[eax*4]
  00d31	f3 0f 5e 45 bc	 divss	 xmm0, DWORD PTR _max_rating$[ebp]
  00d36	b9 50 00 00 00	 mov	 ecx, 80			; 00000050H
  00d3b	6b d1 0c	 imul	 edx, ecx, 12
  00d3e	f3 0f 59 82 10
	00 00 00	 mulss	 xmm0, DWORD PTR ?task_database@@3PAUTASK_DATA@@A[edx+16]
  00d46	f3 0f 11 45 c8	 movss	 DWORD PTR _priority$[ebp], xmm0

; 1194 : 							}
; 1195 : 							else

  00d4b	eb 51		 jmp	 SHORT $LN27@create_key
$LN26@create_key:

; 1196 : 							{
; 1197 : 								ASSERT (keysite_database [keysite_type].ship_strike_target);

  00d4d	6b 45 cc 44	 imul	 eax, DWORD PTR _keysite_type$[ebp], 68
  00d51	8b 88 40 00 00
	00		 mov	 ecx, DWORD PTR ?keysite_database@@3PAUKEYSITE_DATA@@A[eax+64]
  00d57	c1 e9 0b	 shr	 ecx, 11			; 0000000bH
  00d5a	83 e1 01	 and	 ecx, 1
  00d5d	75 1a		 jne	 SHORT $LN28@create_key
  00d5f	a1 00 00 00 00	 mov	 eax, DWORD PTR ?__LINE__Var@?0??create_keysite_strike_tasks@@YGXXZ@4JA
  00d64	05 ac 00 00 00	 add	 eax, 172		; 000000acH
  00d69	50		 push	 eax
  00d6a	68 00 00 00 00	 push	 OFFSET ??_C@_0ED@GMECMFKH@c?3?2users?2nhv90?2projects?2eech?2ap@
  00d6f	68 00 00 00 00	 push	 OFFSET ??_C@_0DD@MFHODDPB@keysite_database?5?$FLkeysite_type?$FN@
  00d74	e8 00 00 00 00	 call	 ?process_assert@@YGXPBD0H@Z ; process_assert
$LN28@create_key:

; 1198 : 									
; 1199 : 								priority = (target_rating [loop] / max_rating) * task_database [ENTITY_SUB_TYPE_TASK_ANTI_SHIP_STRIKE].task_priority;

  00d79	8b 45 d4	 mov	 eax, DWORD PTR _loop$[ebp]
  00d7c	f3 0f 10 04 85
	00 00 00 00	 movss	 xmm0, DWORD PTR ?target_rating@@3PAMA[eax*4]
  00d85	f3 0f 5e 45 bc	 divss	 xmm0, DWORD PTR _max_rating$[ebp]
  00d8a	b9 50 00 00 00	 mov	 ecx, 80			; 00000050H
  00d8f	d1 e1		 shl	 ecx, 1
  00d91	f3 0f 59 81 10
	00 00 00	 mulss	 xmm0, DWORD PTR ?task_database@@3PAUTASK_DATA@@A[ecx+16]
  00d99	f3 0f 11 45 c8	 movss	 DWORD PTR _priority$[ebp], xmm0
$LN27@create_key:

; 1200 : 							}
; 1201 : 
; 1202 : 							new_task = create_recon_task (this_side, keysite, NULL, FALSE, priority, NULL, NULL);

  00d9e	6a 00		 push	 0
  00da0	6a 00		 push	 0
  00da2	51		 push	 ecx
  00da3	f3 0f 10 45 c8	 movss	 xmm0, DWORD PTR _priority$[ebp]
  00da8	f3 0f 11 04 24	 movss	 DWORD PTR [esp], xmm0
  00dad	6a 00		 push	 0
  00daf	6a 00		 push	 0
  00db1	8b 45 e4	 mov	 eax, DWORD PTR _keysite$[ebp]
  00db4	50		 push	 eax
  00db5	8b 4d f8	 mov	 ecx, DWORD PTR _this_side$[ebp]
  00db8	51		 push	 ecx
  00db9	e8 00 00 00 00	 call	 ?create_recon_task@@YGPAUENTITY@@W4ENTITY_SIDES@@PAU1@1HM11@Z ; create_recon_task
  00dbe	89 45 e8	 mov	 DWORD PTR _new_task$[ebp], eax

; 1203 : 	
; 1204 : 							if (new_task)

  00dc1	83 7d e8 00	 cmp	 DWORD PTR _new_task$[ebp], 0
  00dc5	0f 84 92 01 00
	00		 je	 $LN29@create_key

; 1205 : 							{
; 1206 : 								ai_log ("(TASK) %s KEYSITE RECON #%d (%d) - Target %s : Rating %f - CREATED (Priority %f)",

  00dcb	83 7d e4 00	 cmp	 DWORD PTR _keysite$[ebp], 0
  00dcf	74 0d		 je	 SHORT $LN98@create_key
  00dd1	8b 45 e4	 mov	 eax, DWORD PTR _keysite$[ebp]
  00dd4	8b 08		 mov	 ecx, DWORD PTR [eax]
  00dd6	89 8d 74 ff ff
	ff		 mov	 DWORD PTR tv607[ebp], ecx
  00ddc	eb 27		 jmp	 SHORT $LN99@create_key
$LN98@create_key:
  00dde	8b 15 00 00 00
	00		 mov	 edx, DWORD PTR ?__LINE__Var@?0??create_keysite_strike_tasks@@YGXXZ@4JA
  00de4	81 c2 b9 00 00
	00		 add	 edx, 185		; 000000b9H
  00dea	52		 push	 edx
  00deb	68 00 00 00 00	 push	 OFFSET ??_C@_0ED@GMECMFKH@c?3?2users?2nhv90?2projects?2eech?2ap@
  00df0	a1 00 00 00 00	 mov	 eax, DWORD PTR ?null_entity_pointer_message@@3PBDB ; null_entity_pointer_message
  00df5	50		 push	 eax
  00df6	e8 00 00 00 00	 call	 ?process_assert@@YGXPBD0H@Z ; process_assert
  00dfb	c7 85 74 ff ff
	ff 00 00 00 00	 mov	 DWORD PTR tv607[ebp], 0
$LN99@create_key:
  00e05	b9 01 00 00 00	 mov	 ecx, 1
  00e0a	85 c9		 test	 ecx, ecx
  00e0c	74 0c		 je	 SHORT $LN100@create_key
  00e0e	c7 85 70 ff ff
	ff 07 00 00 00	 mov	 DWORD PTR tv615[ebp], 7
  00e18	eb 27		 jmp	 SHORT $LN101@create_key
$LN100@create_key:
  00e1a	8b 15 00 00 00
	00		 mov	 edx, DWORD PTR ?__LINE__Var@?0??create_keysite_strike_tasks@@YGXXZ@4JA
  00e20	81 c2 b9 00 00
	00		 add	 edx, 185		; 000000b9H
  00e26	52		 push	 edx
  00e27	68 00 00 00 00	 push	 OFFSET ??_C@_0ED@GMECMFKH@c?3?2users?2nhv90?2projects?2eech?2ap@
  00e2c	a1 00 00 00 00	 mov	 eax, DWORD PTR ?overload_invalid_string_type_message@@3PBDB ; overload_invalid_string_type_message
  00e31	50		 push	 eax
  00e32	e8 00 00 00 00	 call	 ?process_assert@@YGXPBD0H@Z ; process_assert
  00e37	c7 85 70 ff ff
	ff 00 00 00 00	 mov	 DWORD PTR tv615[ebp], 0
$LN101@create_key:
  00e41	83 7d e8 00	 cmp	 DWORD PTR _new_task$[ebp], 0
  00e45	74 14		 je	 SHORT $LN102@create_key
  00e47	8b 4d e8	 mov	 ecx, DWORD PTR _new_task$[ebp]
  00e4a	2b 0d 00 00 00
	00		 sub	 ecx, DWORD PTR ?entities@@3PAUENTITY@@A ; entities
  00e50	c1 f9 04	 sar	 ecx, 4
  00e53	89 8d 6c ff ff
	ff		 mov	 DWORD PTR tv625[ebp], ecx
  00e59	eb 0a		 jmp	 SHORT $LN103@create_key
$LN102@create_key:
  00e5b	c7 85 6c ff ff
	ff ff ff ff ff	 mov	 DWORD PTR tv625[ebp], -1
$LN103@create_key:
  00e65	83 7d e8 00	 cmp	 DWORD PTR _new_task$[ebp], 0
  00e69	74 0d		 je	 SHORT $LN104@create_key
  00e6b	8b 55 e8	 mov	 edx, DWORD PTR _new_task$[ebp]
  00e6e	8b 02		 mov	 eax, DWORD PTR [edx]
  00e70	89 85 68 ff ff
	ff		 mov	 DWORD PTR tv633[ebp], eax
  00e76	eb 28		 jmp	 SHORT $LN105@create_key
$LN104@create_key:
  00e78	8b 0d 00 00 00
	00		 mov	 ecx, DWORD PTR ?__LINE__Var@?0??create_keysite_strike_tasks@@YGXXZ@4JA
  00e7e	81 c1 b7 00 00
	00		 add	 ecx, 183		; 000000b7H
  00e84	51		 push	 ecx
  00e85	68 00 00 00 00	 push	 OFFSET ??_C@_0ED@GMECMFKH@c?3?2users?2nhv90?2projects?2eech?2ap@
  00e8a	8b 15 00 00 00
	00		 mov	 edx, DWORD PTR ?null_entity_pointer_message@@3PBDB ; null_entity_pointer_message
  00e90	52		 push	 edx
  00e91	e8 00 00 00 00	 call	 ?process_assert@@YGXPBD0H@Z ; process_assert
  00e96	c7 85 68 ff ff
	ff 00 00 00 00	 mov	 DWORD PTR tv633[ebp], 0
$LN105@create_key:
  00ea0	b8 01 00 00 00	 mov	 eax, 1
  00ea5	85 c0		 test	 eax, eax
  00ea7	74 0c		 je	 SHORT $LN106@create_key
  00ea9	c7 85 64 ff ff
	ff dc 00 00 00	 mov	 DWORD PTR tv673[ebp], 220 ; 000000dcH
  00eb3	eb 28		 jmp	 SHORT $LN107@create_key
$LN106@create_key:
  00eb5	8b 0d 00 00 00
	00		 mov	 ecx, DWORD PTR ?__LINE__Var@?0??create_keysite_strike_tasks@@YGXXZ@4JA
  00ebb	81 c1 b7 00 00
	00		 add	 ecx, 183		; 000000b7H
  00ec1	51		 push	 ecx
  00ec2	68 00 00 00 00	 push	 OFFSET ??_C@_0ED@GMECMFKH@c?3?2users?2nhv90?2projects?2eech?2ap@
  00ec7	8b 15 00 00 00
	00		 mov	 edx, DWORD PTR ?overload_invalid_int_type_message@@3PBDB ; overload_invalid_int_type_message
  00ecd	52		 push	 edx
  00ece	e8 00 00 00 00	 call	 ?process_assert@@YGXPBD0H@Z ; process_assert
  00ed3	c7 85 64 ff ff
	ff 00 00 00 00	 mov	 DWORD PTR tv673[ebp], 0
$LN107@create_key:
  00edd	f3 0f 5a 45 c8	 cvtss2sd xmm0, DWORD PTR _priority$[ebp]
  00ee2	83 ec 08	 sub	 esp, 8
  00ee5	f2 0f 11 04 24	 movsd	 QWORD PTR [esp], xmm0
  00eea	8b 45 d4	 mov	 eax, DWORD PTR _loop$[ebp]
  00eed	f3 0f 5a 04 85
	00 00 00 00	 cvtss2sd xmm0, DWORD PTR ?target_rating@@3PAMA[eax*4]
  00ef6	83 ec 08	 sub	 esp, 8
  00ef9	f2 0f 11 04 24	 movsd	 QWORD PTR [esp], xmm0
  00efe	6a 07		 push	 7
  00f00	8b 4d e4	 mov	 ecx, DWORD PTR _keysite$[ebp]
  00f03	51		 push	 ecx
  00f04	6b 95 74 ff ff
	ff 34		 imul	 edx, DWORD PTR tv607[ebp], 52
  00f0b	8b 85 70 ff ff
	ff		 mov	 eax, DWORD PTR tv615[ebp]
  00f11	8b 8c 82 00 00
	00 00		 mov	 ecx, DWORD PTR ?fn_get_local_entity_string@@3PAY0N@P6GPBDPAUENTITY@@W4STRING_TYPES@@@ZA[edx+eax*4]
  00f18	ff d1		 call	 ecx
  00f1a	50		 push	 eax
  00f1b	8b 95 6c ff ff
	ff		 mov	 edx, DWORD PTR tv625[ebp]
  00f21	52		 push	 edx
  00f22	68 dc 00 00 00	 push	 220			; 000000dcH
  00f27	8b 45 e8	 mov	 eax, DWORD PTR _new_task$[ebp]
  00f2a	50		 push	 eax
  00f2b	69 8d 68 ff ff
	ff 5c 04 00 00	 imul	 ecx, DWORD PTR tv633[ebp], 1116
  00f35	8b 95 64 ff ff
	ff		 mov	 edx, DWORD PTR tv673[ebp]
  00f3b	8b 84 91 00 00
	00 00		 mov	 eax, DWORD PTR ?fn_get_local_entity_int_value@@3PAY0BBH@P6GHPAUENTITY@@W4INT_TYPES@@@ZA[ecx+edx*4]
  00f42	ff d0		 call	 eax
  00f44	50		 push	 eax
  00f45	8b 4d f8	 mov	 ecx, DWORD PTR _this_side$[ebp]
  00f48	8b 14 8d 00 00
	00 00		 mov	 edx, DWORD PTR ?entity_side_short_names@@3PAPBDA[ecx*4]
  00f4f	52		 push	 edx
  00f50	68 00 00 00 00	 push	 OFFSET ??_C@_0FB@PJNGGCMD@?$CITASK?$CJ?5?$CFs?5KEYSITE?5RECON?5?$CD?$CFd?5?$CI?$CFd@
  00f55	e8 00 00 00 00	 call	 ?ai_log@@YAXPBDZZ	; ai_log
  00f5a	83 c4 24	 add	 esp, 36			; 00000024H
$LN29@create_key:

; 1207 : 											entity_side_short_names [this_side],
; 1208 : 											get_local_entity_int_value (new_task, INT_TYPE_TASK_ID),
; 1209 : 											get_local_entity_safe_index (new_task),
; 1210 : 											get_local_entity_string (keysite, STRING_TYPE_KEYSITE_NAME),
; 1211 : 											target_rating [loop], priority);
; 1212 : 							}
; 1213 : 						}
; 1214 : 					}
; 1215 : 					else

  00f5d	e9 fb 04 00 00	 jmp	 $LN36@create_key
$LN22@create_key:

; 1216 : 					{
; 1217 : 						//
; 1218 : 						// KEYSITE REQUIRES NO RECON - Create Strike 
; 1219 : 						//
; 1220 : 	
; 1221 : 						if (get_local_entity_float_value (keysite, FLOAT_TYPE_EFFICIENCY) >= keysite_database [keysite_type].minimum_efficiency)

  00f62	83 7d e4 00	 cmp	 DWORD PTR _keysite$[ebp], 0
  00f66	74 0d		 je	 SHORT $LN108@create_key
  00f68	8b 45 e4	 mov	 eax, DWORD PTR _keysite$[ebp]
  00f6b	8b 08		 mov	 ecx, DWORD PTR [eax]
  00f6d	89 8d 74 ff ff
	ff		 mov	 DWORD PTR tv689[ebp], ecx
  00f73	eb 20		 jmp	 SHORT $LN109@create_key
$LN108@create_key:
  00f75	68 c5 04 00 00	 push	 1221			; 000004c5H
  00f7a	68 00 00 00 00	 push	 OFFSET ??_C@_0ED@GMECMFKH@c?3?2users?2nhv90?2projects?2eech?2ap@
  00f7f	8b 15 00 00 00
	00		 mov	 edx, DWORD PTR ?null_entity_pointer_message@@3PBDB ; null_entity_pointer_message
  00f85	52		 push	 edx
  00f86	e8 00 00 00 00	 call	 ?process_assert@@YGXPBD0H@Z ; process_assert
  00f8b	c7 85 74 ff ff
	ff 00 00 00 00	 mov	 DWORD PTR tv689[ebp], 0
$LN109@create_key:
  00f95	b8 01 00 00 00	 mov	 eax, 1
  00f9a	85 c0		 test	 eax, eax
  00f9c	74 0c		 je	 SHORT $LN110@create_key
  00f9e	c7 85 70 ff ff
	ff 21 00 00 00	 mov	 DWORD PTR tv696[ebp], 33 ; 00000021H
  00fa8	eb 20		 jmp	 SHORT $LN111@create_key
$LN110@create_key:
  00faa	68 c5 04 00 00	 push	 1221			; 000004c5H
  00faf	68 00 00 00 00	 push	 OFFSET ??_C@_0ED@GMECMFKH@c?3?2users?2nhv90?2projects?2eech?2ap@
  00fb4	8b 0d 00 00 00
	00		 mov	 ecx, DWORD PTR ?overload_invalid_float_type_message@@3PBDB ; overload_invalid_float_type_message
  00fba	51		 push	 ecx
  00fbb	e8 00 00 00 00	 call	 ?process_assert@@YGXPBD0H@Z ; process_assert
  00fc0	c7 85 70 ff ff
	ff 00 00 00 00	 mov	 DWORD PTR tv696[ebp], 0
$LN111@create_key:
  00fca	6a 21		 push	 33			; 00000021H
  00fcc	8b 55 e4	 mov	 edx, DWORD PTR _keysite$[ebp]
  00fcf	52		 push	 edx
  00fd0	69 85 74 ff ff
	ff bc 02 00 00	 imul	 eax, DWORD PTR tv689[ebp], 700
  00fda	8b 8d 70 ff ff
	ff		 mov	 ecx, DWORD PTR tv696[ebp]
  00fe0	8b 94 88 00 00
	00 00		 mov	 edx, DWORD PTR ?fn_get_local_entity_float_value@@3PAY0KP@P6GMPAUENTITY@@W4FLOAT_TYPES@@@ZA[eax+ecx*4]
  00fe7	ff d2		 call	 edx
  00fe9	d9 9d 6c ff ff
	ff		 fstp	 DWORD PTR tv1228[ebp]
  00fef	f3 0f 10 85 6c
	ff ff ff	 movss	 xmm0, DWORD PTR tv1228[ebp]
  00ff7	6b 45 cc 44	 imul	 eax, DWORD PTR _keysite_type$[ebp], 68
  00ffb	0f 2f 80 1c 00
	00 00		 comiss	 xmm0, DWORD PTR ?keysite_database@@3PAUKEYSITE_DATA@@A[eax+28]
  01002	0f 82 55 04 00
	00		 jb	 $LN36@create_key

; 1222 : 						{
; 1223 : 							if (
; 1224 : 									(!entity_is_object_of_task (keysite, ENTITY_SUB_TYPE_TASK_GROUND_STRIKE, this_side)) &&
; 1225 : 									(!entity_is_object_of_task (keysite, ENTITY_SUB_TYPE_TASK_ANTI_SHIP_STRIKE, this_side)) &&

  01008	8b 45 f8	 mov	 eax, DWORD PTR _this_side$[ebp]
  0100b	50		 push	 eax
  0100c	6a 0c		 push	 12			; 0000000cH
  0100e	8b 4d e4	 mov	 ecx, DWORD PTR _keysite$[ebp]
  01011	51		 push	 ecx
  01012	e8 00 00 00 00	 call	 ?entity_is_object_of_task@@YGHPAUENTITY@@HW4ENTITY_SIDES@@@Z ; entity_is_object_of_task
  01017	85 c0		 test	 eax, eax
  01019	0f 85 3e 04 00
	00		 jne	 $LN36@create_key
  0101f	8b 45 f8	 mov	 eax, DWORD PTR _this_side$[ebp]
  01022	50		 push	 eax
  01023	6a 02		 push	 2
  01025	8b 4d e4	 mov	 ecx, DWORD PTR _keysite$[ebp]
  01028	51		 push	 ecx
  01029	e8 00 00 00 00	 call	 ?entity_is_object_of_task@@YGHPAUENTITY@@HW4ENTITY_SIDES@@@Z ; entity_is_object_of_task
  0102e	85 c0		 test	 eax, eax
  01030	0f 85 27 04 00
	00		 jne	 $LN36@create_key
  01036	8b 45 f8	 mov	 eax, DWORD PTR _this_side$[ebp]
  01039	50		 push	 eax
  0103a	6a 1a		 push	 26			; 0000001aH
  0103c	8b 4d e4	 mov	 ecx, DWORD PTR _keysite$[ebp]
  0103f	51		 push	 ecx
  01040	e8 00 00 00 00	 call	 ?entity_is_object_of_task@@YGHPAUENTITY@@HW4ENTITY_SIDES@@@Z ; entity_is_object_of_task
  01045	85 c0		 test	 eax, eax
  01047	0f 85 10 04 00
	00		 jne	 $LN36@create_key

; 1226 : 									(!entity_is_object_of_task (keysite, ENTITY_SUB_TYPE_TASK_TROOP_INSERTION, this_side))
; 1227 : 								)
; 1228 : 							{
; 1229 : 								if (keysite_database [keysite_type].ground_strike_target)

  0104d	6b 45 cc 44	 imul	 eax, DWORD PTR _keysite_type$[ebp], 68
  01051	8b 88 40 00 00
	00		 mov	 ecx, DWORD PTR ?keysite_database@@3PAUKEYSITE_DATA@@A[eax+64]
  01057	c1 e9 0a	 shr	 ecx, 10			; 0000000aH
  0105a	83 e1 01	 and	 ecx, 1
  0105d	0f 84 ea 01 00
	00		 je	 $LN32@create_key

; 1230 : 								{
; 1231 : 									priority = (target_rating [loop] / max_rating) * task_database [ENTITY_SUB_TYPE_TASK_GROUND_STRIKE].task_priority;

  01063	8b 45 d4	 mov	 eax, DWORD PTR _loop$[ebp]
  01066	f3 0f 10 04 85
	00 00 00 00	 movss	 xmm0, DWORD PTR ?target_rating@@3PAMA[eax*4]
  0106f	f3 0f 5e 45 bc	 divss	 xmm0, DWORD PTR _max_rating$[ebp]
  01074	b9 50 00 00 00	 mov	 ecx, 80			; 00000050H
  01079	6b d1 0c	 imul	 edx, ecx, 12
  0107c	f3 0f 59 82 10
	00 00 00	 mulss	 xmm0, DWORD PTR ?task_database@@3PAUTASK_DATA@@A[edx+16]
  01084	f3 0f 11 45 c8	 movss	 DWORD PTR _priority$[ebp], xmm0

; 1232 : 		
; 1233 : 									new_task = create_ground_strike_task (this_side, keysite, NULL, FALSE, priority, NULL, NULL);

  01089	6a 00		 push	 0
  0108b	6a 00		 push	 0
  0108d	51		 push	 ecx
  0108e	f3 0f 10 45 c8	 movss	 xmm0, DWORD PTR _priority$[ebp]
  01093	f3 0f 11 04 24	 movss	 DWORD PTR [esp], xmm0
  01098	6a 00		 push	 0
  0109a	6a 00		 push	 0
  0109c	8b 45 e4	 mov	 eax, DWORD PTR _keysite$[ebp]
  0109f	50		 push	 eax
  010a0	8b 4d f8	 mov	 ecx, DWORD PTR _this_side$[ebp]
  010a3	51		 push	 ecx
  010a4	e8 00 00 00 00	 call	 ?create_ground_strike_task@@YGPAUENTITY@@W4ENTITY_SIDES@@PAU1@1HM11@Z ; create_ground_strike_task
  010a9	89 45 e8	 mov	 DWORD PTR _new_task$[ebp], eax

; 1234 : 		
; 1235 : 									if (new_task)

  010ac	83 7d e8 00	 cmp	 DWORD PTR _new_task$[ebp], 0
  010b0	0f 84 92 01 00
	00		 je	 $LN34@create_key

; 1236 : 									{
; 1237 : 										ai_log ("(TASK) %s KEYSITE GROUND STRIKE #%d (%d) - Target %s : Rating %f - CREATED (Priority %f)",

  010b6	83 7d e4 00	 cmp	 DWORD PTR _keysite$[ebp], 0
  010ba	74 0d		 je	 SHORT $LN112@create_key
  010bc	8b 45 e4	 mov	 eax, DWORD PTR _keysite$[ebp]
  010bf	8b 08		 mov	 ecx, DWORD PTR [eax]
  010c1	89 8d 74 ff ff
	ff		 mov	 DWORD PTR tv755[ebp], ecx
  010c7	eb 27		 jmp	 SHORT $LN113@create_key
$LN112@create_key:
  010c9	8b 15 00 00 00
	00		 mov	 edx, DWORD PTR ?__LINE__Var@?0??create_keysite_strike_tasks@@YGXXZ@4JA
  010cf	81 c2 d8 00 00
	00		 add	 edx, 216		; 000000d8H
  010d5	52		 push	 edx
  010d6	68 00 00 00 00	 push	 OFFSET ??_C@_0ED@GMECMFKH@c?3?2users?2nhv90?2projects?2eech?2ap@
  010db	a1 00 00 00 00	 mov	 eax, DWORD PTR ?null_entity_pointer_message@@3PBDB ; null_entity_pointer_message
  010e0	50		 push	 eax
  010e1	e8 00 00 00 00	 call	 ?process_assert@@YGXPBD0H@Z ; process_assert
  010e6	c7 85 74 ff ff
	ff 00 00 00 00	 mov	 DWORD PTR tv755[ebp], 0
$LN113@create_key:
  010f0	b9 01 00 00 00	 mov	 ecx, 1
  010f5	85 c9		 test	 ecx, ecx
  010f7	74 0c		 je	 SHORT $LN114@create_key
  010f9	c7 85 70 ff ff
	ff 07 00 00 00	 mov	 DWORD PTR tv763[ebp], 7
  01103	eb 27		 jmp	 SHORT $LN115@create_key
$LN114@create_key:
  01105	8b 15 00 00 00
	00		 mov	 edx, DWORD PTR ?__LINE__Var@?0??create_keysite_strike_tasks@@YGXXZ@4JA
  0110b	81 c2 d8 00 00
	00		 add	 edx, 216		; 000000d8H
  01111	52		 push	 edx
  01112	68 00 00 00 00	 push	 OFFSET ??_C@_0ED@GMECMFKH@c?3?2users?2nhv90?2projects?2eech?2ap@
  01117	a1 00 00 00 00	 mov	 eax, DWORD PTR ?overload_invalid_string_type_message@@3PBDB ; overload_invalid_string_type_message
  0111c	50		 push	 eax
  0111d	e8 00 00 00 00	 call	 ?process_assert@@YGXPBD0H@Z ; process_assert
  01122	c7 85 70 ff ff
	ff 00 00 00 00	 mov	 DWORD PTR tv763[ebp], 0
$LN115@create_key:
  0112c	83 7d e8 00	 cmp	 DWORD PTR _new_task$[ebp], 0
  01130	74 14		 je	 SHORT $LN116@create_key
  01132	8b 4d e8	 mov	 ecx, DWORD PTR _new_task$[ebp]
  01135	2b 0d 00 00 00
	00		 sub	 ecx, DWORD PTR ?entities@@3PAUENTITY@@A ; entities
  0113b	c1 f9 04	 sar	 ecx, 4
  0113e	89 8d 6c ff ff
	ff		 mov	 DWORD PTR tv773[ebp], ecx
  01144	eb 0a		 jmp	 SHORT $LN117@create_key
$LN116@create_key:
  01146	c7 85 6c ff ff
	ff ff ff ff ff	 mov	 DWORD PTR tv773[ebp], -1
$LN117@create_key:
  01150	83 7d e8 00	 cmp	 DWORD PTR _new_task$[ebp], 0
  01154	74 0d		 je	 SHORT $LN118@create_key
  01156	8b 55 e8	 mov	 edx, DWORD PTR _new_task$[ebp]
  01159	8b 02		 mov	 eax, DWORD PTR [edx]
  0115b	89 85 68 ff ff
	ff		 mov	 DWORD PTR tv781[ebp], eax
  01161	eb 28		 jmp	 SHORT $LN119@create_key
$LN118@create_key:
  01163	8b 0d 00 00 00
	00		 mov	 ecx, DWORD PTR ?__LINE__Var@?0??create_keysite_strike_tasks@@YGXXZ@4JA
  01169	81 c1 d6 00 00
	00		 add	 ecx, 214		; 000000d6H
  0116f	51		 push	 ecx
  01170	68 00 00 00 00	 push	 OFFSET ??_C@_0ED@GMECMFKH@c?3?2users?2nhv90?2projects?2eech?2ap@
  01175	8b 15 00 00 00
	00		 mov	 edx, DWORD PTR ?null_entity_pointer_message@@3PBDB ; null_entity_pointer_message
  0117b	52		 push	 edx
  0117c	e8 00 00 00 00	 call	 ?process_assert@@YGXPBD0H@Z ; process_assert
  01181	c7 85 68 ff ff
	ff 00 00 00 00	 mov	 DWORD PTR tv781[ebp], 0
$LN119@create_key:
  0118b	b8 01 00 00 00	 mov	 eax, 1
  01190	85 c0		 test	 eax, eax
  01192	74 0c		 je	 SHORT $LN120@create_key
  01194	c7 85 64 ff ff
	ff dc 00 00 00	 mov	 DWORD PTR tv789[ebp], 220 ; 000000dcH
  0119e	eb 28		 jmp	 SHORT $LN121@create_key
$LN120@create_key:
  011a0	8b 0d 00 00 00
	00		 mov	 ecx, DWORD PTR ?__LINE__Var@?0??create_keysite_strike_tasks@@YGXXZ@4JA
  011a6	81 c1 d6 00 00
	00		 add	 ecx, 214		; 000000d6H
  011ac	51		 push	 ecx
  011ad	68 00 00 00 00	 push	 OFFSET ??_C@_0ED@GMECMFKH@c?3?2users?2nhv90?2projects?2eech?2ap@
  011b2	8b 15 00 00 00
	00		 mov	 edx, DWORD PTR ?overload_invalid_int_type_message@@3PBDB ; overload_invalid_int_type_message
  011b8	52		 push	 edx
  011b9	e8 00 00 00 00	 call	 ?process_assert@@YGXPBD0H@Z ; process_assert
  011be	c7 85 64 ff ff
	ff 00 00 00 00	 mov	 DWORD PTR tv789[ebp], 0
$LN121@create_key:
  011c8	f3 0f 5a 45 c8	 cvtss2sd xmm0, DWORD PTR _priority$[ebp]
  011cd	83 ec 08	 sub	 esp, 8
  011d0	f2 0f 11 04 24	 movsd	 QWORD PTR [esp], xmm0
  011d5	8b 45 d4	 mov	 eax, DWORD PTR _loop$[ebp]
  011d8	f3 0f 5a 04 85
	00 00 00 00	 cvtss2sd xmm0, DWORD PTR ?target_rating@@3PAMA[eax*4]
  011e1	83 ec 08	 sub	 esp, 8
  011e4	f2 0f 11 04 24	 movsd	 QWORD PTR [esp], xmm0
  011e9	6a 07		 push	 7
  011eb	8b 4d e4	 mov	 ecx, DWORD PTR _keysite$[ebp]
  011ee	51		 push	 ecx
  011ef	6b 95 74 ff ff
	ff 34		 imul	 edx, DWORD PTR tv755[ebp], 52
  011f6	8b 85 70 ff ff
	ff		 mov	 eax, DWORD PTR tv763[ebp]
  011fc	8b 8c 82 00 00
	00 00		 mov	 ecx, DWORD PTR ?fn_get_local_entity_string@@3PAY0N@P6GPBDPAUENTITY@@W4STRING_TYPES@@@ZA[edx+eax*4]
  01203	ff d1		 call	 ecx
  01205	50		 push	 eax
  01206	8b 95 6c ff ff
	ff		 mov	 edx, DWORD PTR tv773[ebp]
  0120c	52		 push	 edx
  0120d	68 dc 00 00 00	 push	 220			; 000000dcH
  01212	8b 45 e8	 mov	 eax, DWORD PTR _new_task$[ebp]
  01215	50		 push	 eax
  01216	69 8d 68 ff ff
	ff 5c 04 00 00	 imul	 ecx, DWORD PTR tv781[ebp], 1116
  01220	8b 95 64 ff ff
	ff		 mov	 edx, DWORD PTR tv789[ebp]
  01226	8b 84 91 00 00
	00 00		 mov	 eax, DWORD PTR ?fn_get_local_entity_int_value@@3PAY0BBH@P6GHPAUENTITY@@W4INT_TYPES@@@ZA[ecx+edx*4]
  0122d	ff d0		 call	 eax
  0122f	50		 push	 eax
  01230	8b 4d f8	 mov	 ecx, DWORD PTR _this_side$[ebp]
  01233	8b 14 8d 00 00
	00 00		 mov	 edx, DWORD PTR ?entity_side_short_names@@3PAPBDA[ecx*4]
  0123a	52		 push	 edx
  0123b	68 00 00 00 00	 push	 OFFSET ??_C@_0FJ@EAKBAFJI@?$CITASK?$CJ?5?$CFs?5KEYSITE?5GROUND?5STRIKE@
  01240	e8 00 00 00 00	 call	 ?ai_log@@YAXPBDZZ	; ai_log
  01245	83 c4 24	 add	 esp, 36			; 00000024H
$LN34@create_key:

; 1238 : 													entity_side_short_names [this_side],
; 1239 : 													get_local_entity_int_value (new_task, INT_TYPE_TASK_ID),
; 1240 : 													get_local_entity_safe_index (new_task),
; 1241 : 													get_local_entity_string (keysite, STRING_TYPE_KEYSITE_NAME),
; 1242 : 													target_rating [loop], priority);
; 1243 : 									}
; 1244 : 								}
; 1245 : 								else

  01248	e9 10 02 00 00	 jmp	 $LN36@create_key
$LN32@create_key:

; 1246 : 								{
; 1247 : 									ASSERT (keysite_database [keysite_type].ship_strike_target);

  0124d	6b 45 cc 44	 imul	 eax, DWORD PTR _keysite_type$[ebp], 68
  01251	8b 88 40 00 00
	00		 mov	 ecx, DWORD PTR ?keysite_database@@3PAUKEYSITE_DATA@@A[eax+64]
  01257	c1 e9 0b	 shr	 ecx, 11			; 0000000bH
  0125a	83 e1 01	 and	 ecx, 1
  0125d	75 1a		 jne	 SHORT $LN35@create_key
  0125f	a1 00 00 00 00	 mov	 eax, DWORD PTR ?__LINE__Var@?0??create_keysite_strike_tasks@@YGXXZ@4JA
  01264	05 de 00 00 00	 add	 eax, 222		; 000000deH
  01269	50		 push	 eax
  0126a	68 00 00 00 00	 push	 OFFSET ??_C@_0ED@GMECMFKH@c?3?2users?2nhv90?2projects?2eech?2ap@
  0126f	68 00 00 00 00	 push	 OFFSET ??_C@_0DD@MFHODDPB@keysite_database?5?$FLkeysite_type?$FN@
  01274	e8 00 00 00 00	 call	 ?process_assert@@YGXPBD0H@Z ; process_assert
$LN35@create_key:

; 1248 : 									
; 1249 : 									priority = (target_rating [loop] / max_rating) * task_database [ENTITY_SUB_TYPE_TASK_ANTI_SHIP_STRIKE].task_priority;

  01279	8b 45 d4	 mov	 eax, DWORD PTR _loop$[ebp]
  0127c	f3 0f 10 04 85
	00 00 00 00	 movss	 xmm0, DWORD PTR ?target_rating@@3PAMA[eax*4]
  01285	f3 0f 5e 45 bc	 divss	 xmm0, DWORD PTR _max_rating$[ebp]
  0128a	b9 50 00 00 00	 mov	 ecx, 80			; 00000050H
  0128f	d1 e1		 shl	 ecx, 1
  01291	f3 0f 59 81 10
	00 00 00	 mulss	 xmm0, DWORD PTR ?task_database@@3PAUTASK_DATA@@A[ecx+16]
  01299	f3 0f 11 45 c8	 movss	 DWORD PTR _priority$[ebp], xmm0

; 1250 : 		
; 1251 : 									new_task = create_anti_ship_strike_task (this_side, keysite, NULL, FALSE, priority, NULL, NULL);

  0129e	6a 00		 push	 0
  012a0	6a 00		 push	 0
  012a2	51		 push	 ecx
  012a3	f3 0f 10 45 c8	 movss	 xmm0, DWORD PTR _priority$[ebp]
  012a8	f3 0f 11 04 24	 movss	 DWORD PTR [esp], xmm0
  012ad	6a 00		 push	 0
  012af	6a 00		 push	 0
  012b1	8b 45 e4	 mov	 eax, DWORD PTR _keysite$[ebp]
  012b4	50		 push	 eax
  012b5	8b 4d f8	 mov	 ecx, DWORD PTR _this_side$[ebp]
  012b8	51		 push	 ecx
  012b9	e8 00 00 00 00	 call	 ?create_anti_ship_strike_task@@YGPAUENTITY@@W4ENTITY_SIDES@@PAU1@1HM11@Z ; create_anti_ship_strike_task
  012be	89 45 e8	 mov	 DWORD PTR _new_task$[ebp], eax

; 1252 : 		
; 1253 : 									if (new_task)

  012c1	83 7d e8 00	 cmp	 DWORD PTR _new_task$[ebp], 0
  012c5	0f 84 92 01 00
	00		 je	 $LN36@create_key

; 1254 : 									{
; 1255 : 										ai_log ("(TASK) %s KEYSITE SHIP STRIKE #%d (%d) - Target %s : Rating %f - CREATED (Priority %f)",

  012cb	83 7d e4 00	 cmp	 DWORD PTR _keysite$[ebp], 0
  012cf	74 0d		 je	 SHORT $LN122@create_key
  012d1	8b 45 e4	 mov	 eax, DWORD PTR _keysite$[ebp]
  012d4	8b 08		 mov	 ecx, DWORD PTR [eax]
  012d6	89 8d 74 ff ff
	ff		 mov	 DWORD PTR tv838[ebp], ecx
  012dc	eb 27		 jmp	 SHORT $LN123@create_key
$LN122@create_key:
  012de	8b 15 00 00 00
	00		 mov	 edx, DWORD PTR ?__LINE__Var@?0??create_keysite_strike_tasks@@YGXXZ@4JA
  012e4	81 c2 ea 00 00
	00		 add	 edx, 234		; 000000eaH
  012ea	52		 push	 edx
  012eb	68 00 00 00 00	 push	 OFFSET ??_C@_0ED@GMECMFKH@c?3?2users?2nhv90?2projects?2eech?2ap@
  012f0	a1 00 00 00 00	 mov	 eax, DWORD PTR ?null_entity_pointer_message@@3PBDB ; null_entity_pointer_message
  012f5	50		 push	 eax
  012f6	e8 00 00 00 00	 call	 ?process_assert@@YGXPBD0H@Z ; process_assert
  012fb	c7 85 74 ff ff
	ff 00 00 00 00	 mov	 DWORD PTR tv838[ebp], 0
$LN123@create_key:
  01305	b9 01 00 00 00	 mov	 ecx, 1
  0130a	85 c9		 test	 ecx, ecx
  0130c	74 0c		 je	 SHORT $LN124@create_key
  0130e	c7 85 70 ff ff
	ff 07 00 00 00	 mov	 DWORD PTR tv846[ebp], 7
  01318	eb 27		 jmp	 SHORT $LN125@create_key
$LN124@create_key:
  0131a	8b 15 00 00 00
	00		 mov	 edx, DWORD PTR ?__LINE__Var@?0??create_keysite_strike_tasks@@YGXXZ@4JA
  01320	81 c2 ea 00 00
	00		 add	 edx, 234		; 000000eaH
  01326	52		 push	 edx
  01327	68 00 00 00 00	 push	 OFFSET ??_C@_0ED@GMECMFKH@c?3?2users?2nhv90?2projects?2eech?2ap@
  0132c	a1 00 00 00 00	 mov	 eax, DWORD PTR ?overload_invalid_string_type_message@@3PBDB ; overload_invalid_string_type_message
  01331	50		 push	 eax
  01332	e8 00 00 00 00	 call	 ?process_assert@@YGXPBD0H@Z ; process_assert
  01337	c7 85 70 ff ff
	ff 00 00 00 00	 mov	 DWORD PTR tv846[ebp], 0
$LN125@create_key:
  01341	83 7d e8 00	 cmp	 DWORD PTR _new_task$[ebp], 0
  01345	74 14		 je	 SHORT $LN126@create_key
  01347	8b 4d e8	 mov	 ecx, DWORD PTR _new_task$[ebp]
  0134a	2b 0d 00 00 00
	00		 sub	 ecx, DWORD PTR ?entities@@3PAUENTITY@@A ; entities
  01350	c1 f9 04	 sar	 ecx, 4
  01353	89 8d 6c ff ff
	ff		 mov	 DWORD PTR tv856[ebp], ecx
  01359	eb 0a		 jmp	 SHORT $LN127@create_key
$LN126@create_key:
  0135b	c7 85 6c ff ff
	ff ff ff ff ff	 mov	 DWORD PTR tv856[ebp], -1
$LN127@create_key:
  01365	83 7d e8 00	 cmp	 DWORD PTR _new_task$[ebp], 0
  01369	74 0d		 je	 SHORT $LN128@create_key
  0136b	8b 55 e8	 mov	 edx, DWORD PTR _new_task$[ebp]
  0136e	8b 02		 mov	 eax, DWORD PTR [edx]
  01370	89 85 68 ff ff
	ff		 mov	 DWORD PTR tv864[ebp], eax
  01376	eb 28		 jmp	 SHORT $LN129@create_key
$LN128@create_key:
  01378	8b 0d 00 00 00
	00		 mov	 ecx, DWORD PTR ?__LINE__Var@?0??create_keysite_strike_tasks@@YGXXZ@4JA
  0137e	81 c1 e8 00 00
	00		 add	 ecx, 232		; 000000e8H
  01384	51		 push	 ecx
  01385	68 00 00 00 00	 push	 OFFSET ??_C@_0ED@GMECMFKH@c?3?2users?2nhv90?2projects?2eech?2ap@
  0138a	8b 15 00 00 00
	00		 mov	 edx, DWORD PTR ?null_entity_pointer_message@@3PBDB ; null_entity_pointer_message
  01390	52		 push	 edx
  01391	e8 00 00 00 00	 call	 ?process_assert@@YGXPBD0H@Z ; process_assert
  01396	c7 85 68 ff ff
	ff 00 00 00 00	 mov	 DWORD PTR tv864[ebp], 0
$LN129@create_key:
  013a0	b8 01 00 00 00	 mov	 eax, 1
  013a5	85 c0		 test	 eax, eax
  013a7	74 0c		 je	 SHORT $LN130@create_key
  013a9	c7 85 64 ff ff
	ff dc 00 00 00	 mov	 DWORD PTR tv872[ebp], 220 ; 000000dcH
  013b3	eb 28		 jmp	 SHORT $LN131@create_key
$LN130@create_key:
  013b5	8b 0d 00 00 00
	00		 mov	 ecx, DWORD PTR ?__LINE__Var@?0??create_keysite_strike_tasks@@YGXXZ@4JA
  013bb	81 c1 e8 00 00
	00		 add	 ecx, 232		; 000000e8H
  013c1	51		 push	 ecx
  013c2	68 00 00 00 00	 push	 OFFSET ??_C@_0ED@GMECMFKH@c?3?2users?2nhv90?2projects?2eech?2ap@
  013c7	8b 15 00 00 00
	00		 mov	 edx, DWORD PTR ?overload_invalid_int_type_message@@3PBDB ; overload_invalid_int_type_message
  013cd	52		 push	 edx
  013ce	e8 00 00 00 00	 call	 ?process_assert@@YGXPBD0H@Z ; process_assert
  013d3	c7 85 64 ff ff
	ff 00 00 00 00	 mov	 DWORD PTR tv872[ebp], 0
$LN131@create_key:
  013dd	f3 0f 5a 45 c8	 cvtss2sd xmm0, DWORD PTR _priority$[ebp]
  013e2	83 ec 08	 sub	 esp, 8
  013e5	f2 0f 11 04 24	 movsd	 QWORD PTR [esp], xmm0
  013ea	8b 45 d4	 mov	 eax, DWORD PTR _loop$[ebp]
  013ed	f3 0f 5a 04 85
	00 00 00 00	 cvtss2sd xmm0, DWORD PTR ?target_rating@@3PAMA[eax*4]
  013f6	83 ec 08	 sub	 esp, 8
  013f9	f2 0f 11 04 24	 movsd	 QWORD PTR [esp], xmm0
  013fe	6a 07		 push	 7
  01400	8b 4d e4	 mov	 ecx, DWORD PTR _keysite$[ebp]
  01403	51		 push	 ecx
  01404	6b 95 74 ff ff
	ff 34		 imul	 edx, DWORD PTR tv838[ebp], 52
  0140b	8b 85 70 ff ff
	ff		 mov	 eax, DWORD PTR tv846[ebp]
  01411	8b 8c 82 00 00
	00 00		 mov	 ecx, DWORD PTR ?fn_get_local_entity_string@@3PAY0N@P6GPBDPAUENTITY@@W4STRING_TYPES@@@ZA[edx+eax*4]
  01418	ff d1		 call	 ecx
  0141a	50		 push	 eax
  0141b	8b 95 6c ff ff
	ff		 mov	 edx, DWORD PTR tv856[ebp]
  01421	52		 push	 edx
  01422	68 dc 00 00 00	 push	 220			; 000000dcH
  01427	8b 45 e8	 mov	 eax, DWORD PTR _new_task$[ebp]
  0142a	50		 push	 eax
  0142b	69 8d 68 ff ff
	ff 5c 04 00 00	 imul	 ecx, DWORD PTR tv864[ebp], 1116
  01435	8b 95 64 ff ff
	ff		 mov	 edx, DWORD PTR tv872[ebp]
  0143b	8b 84 91 00 00
	00 00		 mov	 eax, DWORD PTR ?fn_get_local_entity_int_value@@3PAY0BBH@P6GHPAUENTITY@@W4INT_TYPES@@@ZA[ecx+edx*4]
  01442	ff d0		 call	 eax
  01444	50		 push	 eax
  01445	8b 4d f8	 mov	 ecx, DWORD PTR _this_side$[ebp]
  01448	8b 14 8d 00 00
	00 00		 mov	 edx, DWORD PTR ?entity_side_short_names@@3PAPBDA[ecx*4]
  0144f	52		 push	 edx
  01450	68 00 00 00 00	 push	 OFFSET ??_C@_0FH@JBIGNNAG@?$CITASK?$CJ?5?$CFs?5KEYSITE?5SHIP?5STRIKE?5?$CD@
  01455	e8 00 00 00 00	 call	 ?ai_log@@YAXPBDZZ	; ai_log
  0145a	83 c4 24	 add	 esp, 36			; 00000024H
$LN36@create_key:

; 1256 : 													entity_side_short_names [this_side],
; 1257 : 													get_local_entity_int_value (new_task, INT_TYPE_TASK_ID),
; 1258 : 													get_local_entity_safe_index (new_task),
; 1259 : 													get_local_entity_string (keysite, STRING_TYPE_KEYSITE_NAME),
; 1260 : 													target_rating [loop], priority);
; 1261 : 									}
; 1262 : 								}
; 1263 : 							}
; 1264 : 						}
; 1265 : 					}
; 1266 : 				}
; 1267 : 			}

  0145d	e9 a8 f5 ff ff	 jmp	 $LN8@create_key
$LN9@create_key:

; 1268 : 		}
; 1269 : 
; 1270 : 		//
; 1271 : 		// Next force
; 1272 : 		//
; 1273 : 	
; 1274 : 		force = get_local_entity_child_succ (force, LIST_TYPE_FORCE);

  01462	83 7d f4 00	 cmp	 DWORD PTR _force$[ebp], 0
  01466	74 0d		 je	 SHORT $LN132@create_key
  01468	8b 45 f4	 mov	 eax, DWORD PTR _force$[ebp]
  0146b	8b 08		 mov	 ecx, DWORD PTR [eax]
  0146d	89 8d 74 ff ff
	ff		 mov	 DWORD PTR tv889[ebp], ecx
  01473	eb 27		 jmp	 SHORT $LN133@create_key
$LN132@create_key:
  01475	8b 15 00 00 00
	00		 mov	 edx, DWORD PTR ?__LINE__Var@?0??create_keysite_strike_tasks@@YGXXZ@4JA
  0147b	81 c2 f9 00 00
	00		 add	 edx, 249		; 000000f9H
  01481	52		 push	 edx
  01482	68 00 00 00 00	 push	 OFFSET ??_C@_0ED@GMECMFKH@c?3?2users?2nhv90?2projects?2eech?2ap@
  01487	a1 00 00 00 00	 mov	 eax, DWORD PTR ?null_entity_pointer_message@@3PBDB ; null_entity_pointer_message
  0148c	50		 push	 eax
  0148d	e8 00 00 00 00	 call	 ?process_assert@@YGXPBD0H@Z ; process_assert
  01492	c7 85 74 ff ff
	ff 00 00 00 00	 mov	 DWORD PTR tv889[ebp], 0
$LN133@create_key:
  0149c	b9 01 00 00 00	 mov	 ecx, 1
  014a1	85 c9		 test	 ecx, ecx
  014a3	74 0c		 je	 SHORT $LN134@create_key
  014a5	c7 85 70 ff ff
	ff 0e 00 00 00	 mov	 DWORD PTR tv897[ebp], 14 ; 0000000eH
  014af	eb 27		 jmp	 SHORT $LN135@create_key
$LN134@create_key:
  014b1	8b 15 00 00 00
	00		 mov	 edx, DWORD PTR ?__LINE__Var@?0??create_keysite_strike_tasks@@YGXXZ@4JA
  014b7	81 c2 f9 00 00
	00		 add	 edx, 249		; 000000f9H
  014bd	52		 push	 edx
  014be	68 00 00 00 00	 push	 OFFSET ??_C@_0ED@GMECMFKH@c?3?2users?2nhv90?2projects?2eech?2ap@
  014c3	a1 00 00 00 00	 mov	 eax, DWORD PTR ?overload_invalid_list_type_message@@3PBDB ; overload_invalid_list_type_message
  014c8	50		 push	 eax
  014c9	e8 00 00 00 00	 call	 ?process_assert@@YGXPBD0H@Z ; process_assert
  014ce	c7 85 70 ff ff
	ff 00 00 00 00	 mov	 DWORD PTR tv897[ebp], 0
$LN135@create_key:
  014d8	6a 0e		 push	 14			; 0000000eH
  014da	8b 4d f4	 mov	 ecx, DWORD PTR _force$[ebp]
  014dd	51		 push	 ecx
  014de	69 95 74 ff ff
	ff b4 00 00 00	 imul	 edx, DWORD PTR tv889[ebp], 180
  014e8	8b 85 70 ff ff
	ff		 mov	 eax, DWORD PTR tv897[ebp]
  014ee	8b 8c 82 00 00
	00 00		 mov	 ecx, DWORD PTR ?fn_get_local_entity_child_succ@@3PAY0CN@P6GPAUENTITY@@PAU1@W4LIST_TYPES@@@ZA[edx+eax*4]
  014f5	ff d1		 call	 ecx
  014f7	89 45 f4	 mov	 DWORD PTR _force$[ebp], eax

; 1275 : 	}

  014fa	e9 ef eb ff ff	 jmp	 $LN2@create_key
$LN3@create_key:

; 1276 : }

  014ff	5f		 pop	 edi
  01500	5e		 pop	 esi
  01501	5b		 pop	 ebx
  01502	8b e5		 mov	 esp, ebp
  01504	5d		 pop	 ebp
  01505	c3		 ret	 0
?create_keysite_strike_tasks@@YGXXZ ENDP		; create_keysite_strike_tasks
_TEXT	ENDS
; Function compile flags: /Odtp /ZI
; File c:\users\nhv90\projects\eech\aphavoc\source\ai\highlevl\highlevl.c
;	COMDAT ?create_cas_tasks@@YGXXZ
_TEXT	SEGMENT
tv556 = -152						; size = 4
tv548 = -148						; size = 4
tv508 = -144						; size = 4
tv727 = -140						; size = 8
tv581 = -140						; size = 4
tv498 = -140						; size = 4
tv444 = -140						; size = 4
tv388 = -140						; size = 4
tv368 = -140						; size = 4
tv292 = -140						; size = 4
tv266 = -140						; size = 4
tv247 = -140						; size = 4
tv228 = -140						; size = 4
tv208 = -140						; size = 4
tv187 = -140						; size = 4
tv165 = -140						; size = 4
tv145 = -140						; size = 4
tv86 = -140						; size = 4
tv573 = -136						; size = 4
tv490 = -136						; size = 4
tv436 = -136						; size = 4
tv380 = -136						; size = 4
tv360 = -136						; size = 4
tv284 = -136						; size = 4
tv259 = -136						; size = 4
tv240 = -136						; size = 4
tv221 = -136						; size = 4
tv200 = -136						; size = 4
tv179 = -136						; size = 4
tv157 = -136						; size = 4
tv137 = -136						; size = 4
tv78 = -136						; size = 4
$T1 = -132						; size = 4
_max_rating$ = -64					; size = 4
_ratio$ = -60						; size = 4
_rating$ = -56						; size = 4
_priority$ = -52					; size = 4
_count$ = -48						; size = 4
_loop$ = -44						; size = 4
_z$ = -40						; size = 4
_x$ = -36						; size = 4
_pos$ = -32						; size = 4
_target_force$ = -28					; size = 4
_new_task$ = -24					; size = 4
_sector$ = -20						; size = 4
_force$ = -16						; size = 4
_group$ = -12						; size = 4
_this_side$ = -8					; size = 4
_side$ = -4						; size = 4
?create_cas_tasks@@YGXXZ PROC				; create_cas_tasks, COMDAT

; 814  : {

  00000	55		 push	 ebp
  00001	8b ec		 mov	 ebp, esp
  00003	81 ec 98 00 00
	00		 sub	 esp, 152		; 00000098H
  00009	53		 push	 ebx
  0000a	56		 push	 esi
  0000b	57		 push	 edi

; 815  : 	entity_sides
; 816  : 		side,
; 817  : 		this_side;
; 818  : 
; 819  : 	entity
; 820  : 		*group,
; 821  : 		*force,
; 822  : 		*sector,
; 823  : 		*new_task,
; 824  : 		*target_force;
; 825  : 
; 826  : 	vec3d
; 827  : 		*pos;
; 828  : 
; 829  : 	int
; 830  : 		x,
; 831  : 		z,
; 832  : 		loop,
; 833  : 		count;
; 834  : 
; 835  : 	float
; 836  : 		priority,
; 837  : 		rating,
; 838  : 		ratio,
; 839  : 		max_rating;
; 840  : 
; 841  : 	ASSERT (get_comms_model () == COMMS_MODEL_SERVER);

  0000c	83 3d 00 00 00
	00 00		 cmp	 DWORD PTR ?system_comms_model@@3W4COMMS_MODEL_TYPES@@A, 0 ; system_comms_model
  00013	74 18		 je	 SHORT $LN11@create_cas
  00015	a1 00 00 00 00	 mov	 eax, DWORD PTR ?__LINE__Var@?0??create_cas_tasks@@YGXXZ@4JA
  0001a	83 c0 1b	 add	 eax, 27			; 0000001bH
  0001d	50		 push	 eax
  0001e	68 00 00 00 00	 push	 OFFSET ??_C@_0ED@GMECMFKH@c?3?2users?2nhv90?2projects?2eech?2ap@
  00023	68 00 00 00 00	 push	 OFFSET ??_C@_0CJ@DMBLBJBK@get_comms_model?5?$CI?$CJ?5?$DN?$DN?5COMMS_MOD@
  00028	e8 00 00 00 00	 call	 ?process_assert@@YGXPBD0H@Z ; process_assert
$LN11@create_cas:

; 842  : 
; 843  : 	ai_log ("================");

  0002d	68 00 00 00 00	 push	 OFFSET ??_C@_0BB@NAOGIAIJ@?$DN?$DN?$DN?$DN?$DN?$DN?$DN?$DN?$DN?$DN?$DN?$DN?$DN?$DN?$DN?$DN@
  00032	e8 00 00 00 00	 call	 ?ai_log@@YAXPBDZZ	; ai_log
  00037	83 c4 04	 add	 esp, 4

; 844  : 	ai_log ("CREATE CAS TASKS");

  0003a	68 00 00 00 00	 push	 OFFSET ??_C@_0BB@NLININCI@CREATE?5CAS?5TASKS@
  0003f	e8 00 00 00 00	 call	 ?ai_log@@YAXPBDZZ	; ai_log
  00044	83 c4 04	 add	 esp, 4

; 845  : 	ai_log ("----------------");

  00047	68 00 00 00 00	 push	 OFFSET ??_C@_0BB@OAGJBGHP@?9?9?9?9?9?9?9?9?9?9?9?9?9?9?9?9@
  0004c	e8 00 00 00 00	 call	 ?ai_log@@YAXPBDZZ	; ai_log
  00051	83 c4 04	 add	 esp, 4

; 846  : 
; 847  : 	force = get_local_entity_first_child (get_session_entity (), LIST_TYPE_FORCE);

  00054	83 3d 00 00 00
	00 00		 cmp	 DWORD PTR ?session_entity@@3PAUENTITY@@A, 0 ; session_entity
  0005b	74 0f		 je	 SHORT $LN26@create_cas
  0005d	a1 00 00 00 00	 mov	 eax, DWORD PTR ?session_entity@@3PAUENTITY@@A ; session_entity
  00062	8b 08		 mov	 ecx, DWORD PTR [eax]
  00064	89 8d 78 ff ff
	ff		 mov	 DWORD PTR tv78[ebp], ecx
  0006a	eb 24		 jmp	 SHORT $LN27@create_cas
$LN26@create_cas:
  0006c	8b 15 00 00 00
	00		 mov	 edx, DWORD PTR ?__LINE__Var@?0??create_cas_tasks@@YGXXZ@4JA
  00072	83 c2 21	 add	 edx, 33			; 00000021H
  00075	52		 push	 edx
  00076	68 00 00 00 00	 push	 OFFSET ??_C@_0ED@GMECMFKH@c?3?2users?2nhv90?2projects?2eech?2ap@
  0007b	a1 00 00 00 00	 mov	 eax, DWORD PTR ?null_entity_pointer_message@@3PBDB ; null_entity_pointer_message
  00080	50		 push	 eax
  00081	e8 00 00 00 00	 call	 ?process_assert@@YGXPBD0H@Z ; process_assert
  00086	c7 85 78 ff ff
	ff 00 00 00 00	 mov	 DWORD PTR tv78[ebp], 0
$LN27@create_cas:
  00090	b9 01 00 00 00	 mov	 ecx, 1
  00095	85 c9		 test	 ecx, ecx
  00097	74 0c		 je	 SHORT $LN28@create_cas
  00099	c7 85 74 ff ff
	ff 0e 00 00 00	 mov	 DWORD PTR tv86[ebp], 14	; 0000000eH
  000a3	eb 24		 jmp	 SHORT $LN29@create_cas
$LN28@create_cas:
  000a5	8b 15 00 00 00
	00		 mov	 edx, DWORD PTR ?__LINE__Var@?0??create_cas_tasks@@YGXXZ@4JA
  000ab	83 c2 21	 add	 edx, 33			; 00000021H
  000ae	52		 push	 edx
  000af	68 00 00 00 00	 push	 OFFSET ??_C@_0ED@GMECMFKH@c?3?2users?2nhv90?2projects?2eech?2ap@
  000b4	a1 00 00 00 00	 mov	 eax, DWORD PTR ?overload_invalid_list_type_message@@3PBDB ; overload_invalid_list_type_message
  000b9	50		 push	 eax
  000ba	e8 00 00 00 00	 call	 ?process_assert@@YGXPBD0H@Z ; process_assert
  000bf	c7 85 74 ff ff
	ff 00 00 00 00	 mov	 DWORD PTR tv86[ebp], 0
$LN29@create_cas:
  000c9	6a 0e		 push	 14			; 0000000eH
  000cb	8b 0d 00 00 00
	00		 mov	 ecx, DWORD PTR ?session_entity@@3PAUENTITY@@A ; session_entity
  000d1	51		 push	 ecx
  000d2	69 95 78 ff ff
	ff b4 00 00 00	 imul	 edx, DWORD PTR tv78[ebp], 180
  000dc	8b 85 74 ff ff
	ff		 mov	 eax, DWORD PTR tv86[ebp]
  000e2	8b 8c 82 00 00
	00 00		 mov	 ecx, DWORD PTR ?fn_get_local_entity_first_child@@3PAY0CN@P6GPAUENTITY@@PAU1@W4LIST_TYPES@@@ZA[edx+eax*4]
  000e9	ff d1		 call	 ecx
  000eb	89 45 f0	 mov	 DWORD PTR _force$[ebp], eax
$LN2@create_cas:

; 848  : 
; 849  : 	while (force)

  000ee	83 7d f0 00	 cmp	 DWORD PTR _force$[ebp], 0
  000f2	0f 84 31 0c 00
	00		 je	 $LN3@create_cas

; 850  : 	{
; 851  : 		//
; 852  : 		// for each force ( excluding our own ) spin through the list of frontline groups and select viable targets
; 853  : 		//
; 854  : 	
; 855  : 		memset (target_list, 0, sizeof (entity *) * MAX_HIGHLEVEL_TARGET_CHECKS);

  000f8	68 80 02 00 00	 push	 640			; 00000280H
  000fd	6a 00		 push	 0
  000ff	68 00 00 00 00	 push	 OFFSET ?target_list@@3PAPAUENTITY@@A
  00104	e8 00 00 00 00	 call	 _memset
  00109	83 c4 0c	 add	 esp, 12			; 0000000cH

; 856  : 
; 857  : 		memset (target_rating, 0, sizeof (float) * MAX_HIGHLEVEL_TARGET_CHECKS);

  0010c	68 80 02 00 00	 push	 640			; 00000280H
  00111	6a 00		 push	 0
  00113	68 00 00 00 00	 push	 OFFSET ?target_rating@@3PAMA
  00118	e8 00 00 00 00	 call	 _memset
  0011d	83 c4 0c	 add	 esp, 12			; 0000000cH

; 858  : 
; 859  : 		count = 0;

  00120	c7 45 d0 00 00
	00 00		 mov	 DWORD PTR _count$[ebp], 0

; 860  : 
; 861  : 		this_side = (entity_sides) get_local_entity_int_value (force, INT_TYPE_SIDE);

  00127	83 7d f0 00	 cmp	 DWORD PTR _force$[ebp], 0
  0012b	74 0d		 je	 SHORT $LN30@create_cas
  0012d	8b 45 f0	 mov	 eax, DWORD PTR _force$[ebp]
  00130	8b 08		 mov	 ecx, DWORD PTR [eax]
  00132	89 8d 78 ff ff
	ff		 mov	 DWORD PTR tv137[ebp], ecx
  00138	eb 24		 jmp	 SHORT $LN31@create_cas
$LN30@create_cas:
  0013a	8b 15 00 00 00
	00		 mov	 edx, DWORD PTR ?__LINE__Var@?0??create_cas_tasks@@YGXXZ@4JA
  00140	83 c2 2f	 add	 edx, 47			; 0000002fH
  00143	52		 push	 edx
  00144	68 00 00 00 00	 push	 OFFSET ??_C@_0ED@GMECMFKH@c?3?2users?2nhv90?2projects?2eech?2ap@
  00149	a1 00 00 00 00	 mov	 eax, DWORD PTR ?null_entity_pointer_message@@3PBDB ; null_entity_pointer_message
  0014e	50		 push	 eax
  0014f	e8 00 00 00 00	 call	 ?process_assert@@YGXPBD0H@Z ; process_assert
  00154	c7 85 78 ff ff
	ff 00 00 00 00	 mov	 DWORD PTR tv137[ebp], 0
$LN31@create_cas:
  0015e	b9 01 00 00 00	 mov	 ecx, 1
  00163	85 c9		 test	 ecx, ecx
  00165	74 0c		 je	 SHORT $LN32@create_cas
  00167	c7 85 74 ff ff
	ff bb 00 00 00	 mov	 DWORD PTR tv145[ebp], 187 ; 000000bbH
  00171	eb 24		 jmp	 SHORT $LN33@create_cas
$LN32@create_cas:
  00173	8b 15 00 00 00
	00		 mov	 edx, DWORD PTR ?__LINE__Var@?0??create_cas_tasks@@YGXXZ@4JA
  00179	83 c2 2f	 add	 edx, 47			; 0000002fH
  0017c	52		 push	 edx
  0017d	68 00 00 00 00	 push	 OFFSET ??_C@_0ED@GMECMFKH@c?3?2users?2nhv90?2projects?2eech?2ap@
  00182	a1 00 00 00 00	 mov	 eax, DWORD PTR ?overload_invalid_int_type_message@@3PBDB ; overload_invalid_int_type_message
  00187	50		 push	 eax
  00188	e8 00 00 00 00	 call	 ?process_assert@@YGXPBD0H@Z ; process_assert
  0018d	c7 85 74 ff ff
	ff 00 00 00 00	 mov	 DWORD PTR tv145[ebp], 0
$LN33@create_cas:
  00197	68 bb 00 00 00	 push	 187			; 000000bbH
  0019c	8b 4d f0	 mov	 ecx, DWORD PTR _force$[ebp]
  0019f	51		 push	 ecx
  001a0	69 95 78 ff ff
	ff 5c 04 00 00	 imul	 edx, DWORD PTR tv137[ebp], 1116
  001aa	8b 85 74 ff ff
	ff		 mov	 eax, DWORD PTR tv145[ebp]
  001b0	8b 8c 82 00 00
	00 00		 mov	 ecx, DWORD PTR ?fn_get_local_entity_int_value@@3PAY0BBH@P6GHPAUENTITY@@W4INT_TYPES@@@ZA[edx+eax*4]
  001b7	ff d1		 call	 ecx
  001b9	89 45 f8	 mov	 DWORD PTR _this_side$[ebp], eax

; 862  : 	
; 863  : 		target_force = get_local_entity_first_child (get_session_entity(), LIST_TYPE_FORCE);

  001bc	83 3d 00 00 00
	00 00		 cmp	 DWORD PTR ?session_entity@@3PAUENTITY@@A, 0 ; session_entity
  001c3	74 0f		 je	 SHORT $LN34@create_cas
  001c5	a1 00 00 00 00	 mov	 eax, DWORD PTR ?session_entity@@3PAUENTITY@@A ; session_entity
  001ca	8b 08		 mov	 ecx, DWORD PTR [eax]
  001cc	89 8d 78 ff ff
	ff		 mov	 DWORD PTR tv157[ebp], ecx
  001d2	eb 24		 jmp	 SHORT $LN35@create_cas
$LN34@create_cas:
  001d4	8b 15 00 00 00
	00		 mov	 edx, DWORD PTR ?__LINE__Var@?0??create_cas_tasks@@YGXXZ@4JA
  001da	83 c2 31	 add	 edx, 49			; 00000031H
  001dd	52		 push	 edx
  001de	68 00 00 00 00	 push	 OFFSET ??_C@_0ED@GMECMFKH@c?3?2users?2nhv90?2projects?2eech?2ap@
  001e3	a1 00 00 00 00	 mov	 eax, DWORD PTR ?null_entity_pointer_message@@3PBDB ; null_entity_pointer_message
  001e8	50		 push	 eax
  001e9	e8 00 00 00 00	 call	 ?process_assert@@YGXPBD0H@Z ; process_assert
  001ee	c7 85 78 ff ff
	ff 00 00 00 00	 mov	 DWORD PTR tv157[ebp], 0
$LN35@create_cas:
  001f8	b9 01 00 00 00	 mov	 ecx, 1
  001fd	85 c9		 test	 ecx, ecx
  001ff	74 0c		 je	 SHORT $LN36@create_cas
  00201	c7 85 74 ff ff
	ff 0e 00 00 00	 mov	 DWORD PTR tv165[ebp], 14 ; 0000000eH
  0020b	eb 24		 jmp	 SHORT $LN37@create_cas
$LN36@create_cas:
  0020d	8b 15 00 00 00
	00		 mov	 edx, DWORD PTR ?__LINE__Var@?0??create_cas_tasks@@YGXXZ@4JA
  00213	83 c2 31	 add	 edx, 49			; 00000031H
  00216	52		 push	 edx
  00217	68 00 00 00 00	 push	 OFFSET ??_C@_0ED@GMECMFKH@c?3?2users?2nhv90?2projects?2eech?2ap@
  0021c	a1 00 00 00 00	 mov	 eax, DWORD PTR ?overload_invalid_list_type_message@@3PBDB ; overload_invalid_list_type_message
  00221	50		 push	 eax
  00222	e8 00 00 00 00	 call	 ?process_assert@@YGXPBD0H@Z ; process_assert
  00227	c7 85 74 ff ff
	ff 00 00 00 00	 mov	 DWORD PTR tv165[ebp], 0
$LN37@create_cas:
  00231	6a 0e		 push	 14			; 0000000eH
  00233	8b 0d 00 00 00
	00		 mov	 ecx, DWORD PTR ?session_entity@@3PAUENTITY@@A ; session_entity
  00239	51		 push	 ecx
  0023a	69 95 78 ff ff
	ff b4 00 00 00	 imul	 edx, DWORD PTR tv157[ebp], 180
  00244	8b 85 74 ff ff
	ff		 mov	 eax, DWORD PTR tv165[ebp]
  0024a	8b 8c 82 00 00
	00 00		 mov	 ecx, DWORD PTR ?fn_get_local_entity_first_child@@3PAY0CN@P6GPAUENTITY@@PAU1@W4LIST_TYPES@@@ZA[edx+eax*4]
  00251	ff d1		 call	 ecx
  00253	89 45 e4	 mov	 DWORD PTR _target_force$[ebp], eax
$LN4@create_cas:

; 864  : 	
; 865  : 		while ((target_force) && (count < MAX_HIGHLEVEL_TARGET_CHECKS))

  00256	83 7d e4 00	 cmp	 DWORD PTR _target_force$[ebp], 0
  0025a	0f 84 67 06 00
	00		 je	 $LN5@create_cas
  00260	81 7d d0 a0 00
	00 00		 cmp	 DWORD PTR _count$[ebp], 160 ; 000000a0H
  00267	0f 8d 5a 06 00
	00		 jge	 $LN5@create_cas

; 866  : 		{
; 867  : 			side = (entity_sides) get_local_entity_int_value (target_force, INT_TYPE_SIDE);

  0026d	83 7d e4 00	 cmp	 DWORD PTR _target_force$[ebp], 0
  00271	74 0d		 je	 SHORT $LN38@create_cas
  00273	8b 45 e4	 mov	 eax, DWORD PTR _target_force$[ebp]
  00276	8b 08		 mov	 ecx, DWORD PTR [eax]
  00278	89 8d 78 ff ff
	ff		 mov	 DWORD PTR tv179[ebp], ecx
  0027e	eb 24		 jmp	 SHORT $LN39@create_cas
$LN38@create_cas:
  00280	8b 15 00 00 00
	00		 mov	 edx, DWORD PTR ?__LINE__Var@?0??create_cas_tasks@@YGXXZ@4JA
  00286	83 c2 35	 add	 edx, 53			; 00000035H
  00289	52		 push	 edx
  0028a	68 00 00 00 00	 push	 OFFSET ??_C@_0ED@GMECMFKH@c?3?2users?2nhv90?2projects?2eech?2ap@
  0028f	a1 00 00 00 00	 mov	 eax, DWORD PTR ?null_entity_pointer_message@@3PBDB ; null_entity_pointer_message
  00294	50		 push	 eax
  00295	e8 00 00 00 00	 call	 ?process_assert@@YGXPBD0H@Z ; process_assert
  0029a	c7 85 78 ff ff
	ff 00 00 00 00	 mov	 DWORD PTR tv179[ebp], 0
$LN39@create_cas:
  002a4	b9 01 00 00 00	 mov	 ecx, 1
  002a9	85 c9		 test	 ecx, ecx
  002ab	74 0c		 je	 SHORT $LN40@create_cas
  002ad	c7 85 74 ff ff
	ff bb 00 00 00	 mov	 DWORD PTR tv187[ebp], 187 ; 000000bbH
  002b7	eb 24		 jmp	 SHORT $LN41@create_cas
$LN40@create_cas:
  002b9	8b 15 00 00 00
	00		 mov	 edx, DWORD PTR ?__LINE__Var@?0??create_cas_tasks@@YGXXZ@4JA
  002bf	83 c2 35	 add	 edx, 53			; 00000035H
  002c2	52		 push	 edx
  002c3	68 00 00 00 00	 push	 OFFSET ??_C@_0ED@GMECMFKH@c?3?2users?2nhv90?2projects?2eech?2ap@
  002c8	a1 00 00 00 00	 mov	 eax, DWORD PTR ?overload_invalid_int_type_message@@3PBDB ; overload_invalid_int_type_message
  002cd	50		 push	 eax
  002ce	e8 00 00 00 00	 call	 ?process_assert@@YGXPBD0H@Z ; process_assert
  002d3	c7 85 74 ff ff
	ff 00 00 00 00	 mov	 DWORD PTR tv187[ebp], 0
$LN41@create_cas:
  002dd	68 bb 00 00 00	 push	 187			; 000000bbH
  002e2	8b 4d e4	 mov	 ecx, DWORD PTR _target_force$[ebp]
  002e5	51		 push	 ecx
  002e6	69 95 78 ff ff
	ff 5c 04 00 00	 imul	 edx, DWORD PTR tv179[ebp], 1116
  002f0	8b 85 74 ff ff
	ff		 mov	 eax, DWORD PTR tv187[ebp]
  002f6	8b 8c 82 00 00
	00 00		 mov	 ecx, DWORD PTR ?fn_get_local_entity_int_value@@3PAY0BBH@P6GHPAUENTITY@@W4INT_TYPES@@@ZA[edx+eax*4]
  002fd	ff d1		 call	 ecx
  002ff	89 45 fc	 mov	 DWORD PTR _side$[ebp], eax

; 868  : 	
; 869  : 			if (side != this_side)

  00302	8b 45 fc	 mov	 eax, DWORD PTR _side$[ebp]
  00305	3b 45 f8	 cmp	 eax, DWORD PTR _this_side$[ebp]
  00308	0f 84 1c 05 00
	00		 je	 $LN7@create_cas

; 870  : 			{
; 871  : 				group = get_local_entity_first_child (target_force, LIST_TYPE_GROUND_REGISTRY);

  0030e	83 7d e4 00	 cmp	 DWORD PTR _target_force$[ebp], 0
  00312	74 0d		 je	 SHORT $LN42@create_cas
  00314	8b 45 e4	 mov	 eax, DWORD PTR _target_force$[ebp]
  00317	8b 08		 mov	 ecx, DWORD PTR [eax]
  00319	89 8d 78 ff ff
	ff		 mov	 DWORD PTR tv200[ebp], ecx
  0031f	eb 24		 jmp	 SHORT $LN43@create_cas
$LN42@create_cas:
  00321	8b 15 00 00 00
	00		 mov	 edx, DWORD PTR ?__LINE__Var@?0??create_cas_tasks@@YGXXZ@4JA
  00327	83 c2 39	 add	 edx, 57			; 00000039H
  0032a	52		 push	 edx
  0032b	68 00 00 00 00	 push	 OFFSET ??_C@_0ED@GMECMFKH@c?3?2users?2nhv90?2projects?2eech?2ap@
  00330	a1 00 00 00 00	 mov	 eax, DWORD PTR ?null_entity_pointer_message@@3PBDB ; null_entity_pointer_message
  00335	50		 push	 eax
  00336	e8 00 00 00 00	 call	 ?process_assert@@YGXPBD0H@Z ; process_assert
  0033b	c7 85 78 ff ff
	ff 00 00 00 00	 mov	 DWORD PTR tv200[ebp], 0
$LN43@create_cas:
  00345	b9 01 00 00 00	 mov	 ecx, 1
  0034a	85 c9		 test	 ecx, ecx
  0034c	74 0c		 je	 SHORT $LN44@create_cas
  0034e	c7 85 74 ff ff
	ff 0f 00 00 00	 mov	 DWORD PTR tv208[ebp], 15 ; 0000000fH
  00358	eb 24		 jmp	 SHORT $LN45@create_cas
$LN44@create_cas:
  0035a	8b 15 00 00 00
	00		 mov	 edx, DWORD PTR ?__LINE__Var@?0??create_cas_tasks@@YGXXZ@4JA
  00360	83 c2 39	 add	 edx, 57			; 00000039H
  00363	52		 push	 edx
  00364	68 00 00 00 00	 push	 OFFSET ??_C@_0ED@GMECMFKH@c?3?2users?2nhv90?2projects?2eech?2ap@
  00369	a1 00 00 00 00	 mov	 eax, DWORD PTR ?overload_invalid_list_type_message@@3PBDB ; overload_invalid_list_type_message
  0036e	50		 push	 eax
  0036f	e8 00 00 00 00	 call	 ?process_assert@@YGXPBD0H@Z ; process_assert
  00374	c7 85 74 ff ff
	ff 00 00 00 00	 mov	 DWORD PTR tv208[ebp], 0
$LN45@create_cas:
  0037e	6a 0f		 push	 15			; 0000000fH
  00380	8b 4d e4	 mov	 ecx, DWORD PTR _target_force$[ebp]
  00383	51		 push	 ecx
  00384	69 95 78 ff ff
	ff b4 00 00 00	 imul	 edx, DWORD PTR tv200[ebp], 180
  0038e	8b 85 74 ff ff
	ff		 mov	 eax, DWORD PTR tv208[ebp]
  00394	8b 8c 82 00 00
	00 00		 mov	 ecx, DWORD PTR ?fn_get_local_entity_first_child@@3PAY0CN@P6GPAUENTITY@@PAU1@W4LIST_TYPES@@@ZA[edx+eax*4]
  0039b	ff d1		 call	 ecx
  0039d	89 45 f4	 mov	 DWORD PTR _group$[ebp], eax
$LN6@create_cas:

; 872  : 
; 873  : 				while ((group) && (count < MAX_HIGHLEVEL_TARGET_CHECKS))

  003a0	83 7d f4 00	 cmp	 DWORD PTR _group$[ebp], 0
  003a4	0f 84 80 04 00
	00		 je	 $LN7@create_cas
  003aa	81 7d d0 a0 00
	00 00		 cmp	 DWORD PTR _count$[ebp], 160 ; 000000a0H
  003b1	0f 8d 73 04 00
	00		 jge	 $LN7@create_cas

; 874  : 				{
; 875  : 					if (get_local_entity_int_value (group, INT_TYPE_FRONTLINE) == 1)

  003b7	83 7d f4 00	 cmp	 DWORD PTR _group$[ebp], 0
  003bb	74 0d		 je	 SHORT $LN46@create_cas
  003bd	8b 45 f4	 mov	 eax, DWORD PTR _group$[ebp]
  003c0	8b 08		 mov	 ecx, DWORD PTR [eax]
  003c2	89 8d 78 ff ff
	ff		 mov	 DWORD PTR tv221[ebp], ecx
  003c8	eb 20		 jmp	 SHORT $LN47@create_cas
$LN46@create_cas:
  003ca	68 6b 03 00 00	 push	 875			; 0000036bH
  003cf	68 00 00 00 00	 push	 OFFSET ??_C@_0ED@GMECMFKH@c?3?2users?2nhv90?2projects?2eech?2ap@
  003d4	8b 15 00 00 00
	00		 mov	 edx, DWORD PTR ?null_entity_pointer_message@@3PBDB ; null_entity_pointer_message
  003da	52		 push	 edx
  003db	e8 00 00 00 00	 call	 ?process_assert@@YGXPBD0H@Z ; process_assert
  003e0	c7 85 78 ff ff
	ff 00 00 00 00	 mov	 DWORD PTR tv221[ebp], 0
$LN47@create_cas:
  003ea	b8 01 00 00 00	 mov	 eax, 1
  003ef	85 c0		 test	 eax, eax
  003f1	74 0c		 je	 SHORT $LN48@create_cas
  003f3	c7 85 74 ff ff
	ff 41 00 00 00	 mov	 DWORD PTR tv228[ebp], 65 ; 00000041H
  003fd	eb 20		 jmp	 SHORT $LN49@create_cas
$LN48@create_cas:
  003ff	68 6b 03 00 00	 push	 875			; 0000036bH
  00404	68 00 00 00 00	 push	 OFFSET ??_C@_0ED@GMECMFKH@c?3?2users?2nhv90?2projects?2eech?2ap@
  00409	8b 0d 00 00 00
	00		 mov	 ecx, DWORD PTR ?overload_invalid_int_type_message@@3PBDB ; overload_invalid_int_type_message
  0040f	51		 push	 ecx
  00410	e8 00 00 00 00	 call	 ?process_assert@@YGXPBD0H@Z ; process_assert
  00415	c7 85 74 ff ff
	ff 00 00 00 00	 mov	 DWORD PTR tv228[ebp], 0
$LN49@create_cas:
  0041f	6a 41		 push	 65			; 00000041H
  00421	8b 55 f4	 mov	 edx, DWORD PTR _group$[ebp]
  00424	52		 push	 edx
  00425	69 85 78 ff ff
	ff 5c 04 00 00	 imul	 eax, DWORD PTR tv221[ebp], 1116
  0042f	8b 8d 74 ff ff
	ff		 mov	 ecx, DWORD PTR tv228[ebp]
  00435	8b 94 88 00 00
	00 00		 mov	 edx, DWORD PTR ?fn_get_local_entity_int_value@@3PAY0BBH@P6GHPAUENTITY@@W4INT_TYPES@@@ZA[eax+ecx*4]
  0043c	ff d2		 call	 edx
  0043e	83 f8 01	 cmp	 eax, 1
  00441	0f 85 46 03 00
	00		 jne	 $LN17@create_cas

; 876  : 					{
; 877  : 						if (get_local_entity_int_value (group, INT_TYPE_ALIVE))

  00447	83 7d f4 00	 cmp	 DWORD PTR _group$[ebp], 0
  0044b	74 0d		 je	 SHORT $LN50@create_cas
  0044d	8b 45 f4	 mov	 eax, DWORD PTR _group$[ebp]
  00450	8b 08		 mov	 ecx, DWORD PTR [eax]
  00452	89 8d 78 ff ff
	ff		 mov	 DWORD PTR tv240[ebp], ecx
  00458	eb 20		 jmp	 SHORT $LN51@create_cas
$LN50@create_cas:
  0045a	68 6d 03 00 00	 push	 877			; 0000036dH
  0045f	68 00 00 00 00	 push	 OFFSET ??_C@_0ED@GMECMFKH@c?3?2users?2nhv90?2projects?2eech?2ap@
  00464	8b 15 00 00 00
	00		 mov	 edx, DWORD PTR ?null_entity_pointer_message@@3PBDB ; null_entity_pointer_message
  0046a	52		 push	 edx
  0046b	e8 00 00 00 00	 call	 ?process_assert@@YGXPBD0H@Z ; process_assert
  00470	c7 85 78 ff ff
	ff 00 00 00 00	 mov	 DWORD PTR tv240[ebp], 0
$LN51@create_cas:
  0047a	b8 01 00 00 00	 mov	 eax, 1
  0047f	85 c0		 test	 eax, eax
  00481	74 0c		 je	 SHORT $LN52@create_cas
  00483	c7 85 74 ff ff
	ff 07 00 00 00	 mov	 DWORD PTR tv247[ebp], 7
  0048d	eb 20		 jmp	 SHORT $LN53@create_cas
$LN52@create_cas:
  0048f	68 6d 03 00 00	 push	 877			; 0000036dH
  00494	68 00 00 00 00	 push	 OFFSET ??_C@_0ED@GMECMFKH@c?3?2users?2nhv90?2projects?2eech?2ap@
  00499	8b 0d 00 00 00
	00		 mov	 ecx, DWORD PTR ?overload_invalid_int_type_message@@3PBDB ; overload_invalid_int_type_message
  0049f	51		 push	 ecx
  004a0	e8 00 00 00 00	 call	 ?process_assert@@YGXPBD0H@Z ; process_assert
  004a5	c7 85 74 ff ff
	ff 00 00 00 00	 mov	 DWORD PTR tv247[ebp], 0
$LN53@create_cas:
  004af	6a 07		 push	 7
  004b1	8b 55 f4	 mov	 edx, DWORD PTR _group$[ebp]
  004b4	52		 push	 edx
  004b5	69 85 78 ff ff
	ff 5c 04 00 00	 imul	 eax, DWORD PTR tv240[ebp], 1116
  004bf	8b 8d 74 ff ff
	ff		 mov	 ecx, DWORD PTR tv247[ebp]
  004c5	8b 94 88 00 00
	00 00		 mov	 edx, DWORD PTR ?fn_get_local_entity_int_value@@3PAY0BBH@P6GHPAUENTITY@@W4INT_TYPES@@@ZA[eax+ecx*4]
  004cc	ff d2		 call	 edx
  004ce	85 c0		 test	 eax, eax
  004d0	0f 84 b7 02 00
	00		 je	 $LN17@create_cas

; 878  : 						{
; 879  : 							if (get_local_entity_int_value (group, INT_TYPE_GROUP_LIST_TYPE) != LIST_TYPE_KEYSITE_GROUP)

  004d6	83 7d f4 00	 cmp	 DWORD PTR _group$[ebp], 0
  004da	74 0d		 je	 SHORT $LN54@create_cas
  004dc	8b 45 f4	 mov	 eax, DWORD PTR _group$[ebp]
  004df	8b 08		 mov	 ecx, DWORD PTR [eax]
  004e1	89 8d 78 ff ff
	ff		 mov	 DWORD PTR tv259[ebp], ecx
  004e7	eb 20		 jmp	 SHORT $LN55@create_cas
$LN54@create_cas:
  004e9	68 6f 03 00 00	 push	 879			; 0000036fH
  004ee	68 00 00 00 00	 push	 OFFSET ??_C@_0ED@GMECMFKH@c?3?2users?2nhv90?2projects?2eech?2ap@
  004f3	8b 15 00 00 00
	00		 mov	 edx, DWORD PTR ?null_entity_pointer_message@@3PBDB ; null_entity_pointer_message
  004f9	52		 push	 edx
  004fa	e8 00 00 00 00	 call	 ?process_assert@@YGXPBD0H@Z ; process_assert
  004ff	c7 85 78 ff ff
	ff 00 00 00 00	 mov	 DWORD PTR tv259[ebp], 0
$LN55@create_cas:
  00509	b8 01 00 00 00	 mov	 eax, 1
  0050e	85 c0		 test	 eax, eax
  00510	74 0c		 je	 SHORT $LN56@create_cas
  00512	c7 85 74 ff ff
	ff 49 00 00 00	 mov	 DWORD PTR tv266[ebp], 73 ; 00000049H
  0051c	eb 20		 jmp	 SHORT $LN57@create_cas
$LN56@create_cas:
  0051e	68 6f 03 00 00	 push	 879			; 0000036fH
  00523	68 00 00 00 00	 push	 OFFSET ??_C@_0ED@GMECMFKH@c?3?2users?2nhv90?2projects?2eech?2ap@
  00528	8b 0d 00 00 00
	00		 mov	 ecx, DWORD PTR ?overload_invalid_int_type_message@@3PBDB ; overload_invalid_int_type_message
  0052e	51		 push	 ecx
  0052f	e8 00 00 00 00	 call	 ?process_assert@@YGXPBD0H@Z ; process_assert
  00534	c7 85 74 ff ff
	ff 00 00 00 00	 mov	 DWORD PTR tv266[ebp], 0
$LN57@create_cas:
  0053e	6a 49		 push	 73			; 00000049H
  00540	8b 55 f4	 mov	 edx, DWORD PTR _group$[ebp]
  00543	52		 push	 edx
  00544	69 85 78 ff ff
	ff 5c 04 00 00	 imul	 eax, DWORD PTR tv259[ebp], 1116
  0054e	8b 8d 74 ff ff
	ff		 mov	 ecx, DWORD PTR tv266[ebp]
  00554	8b 94 88 00 00
	00 00		 mov	 edx, DWORD PTR ?fn_get_local_entity_int_value@@3PAY0BBH@P6GHPAUENTITY@@W4INT_TYPES@@@ZA[eax+ecx*4]
  0055b	ff d2		 call	 edx
  0055d	83 f8 16	 cmp	 eax, 22			; 00000016H
  00560	0f 84 27 02 00
	00		 je	 $LN17@create_cas

; 880  : 							{
; 881  : 								ASSERT (count < MAX_HIGHLEVEL_TARGET_CHECKS);

  00566	81 7d d0 a0 00
	00 00		 cmp	 DWORD PTR _count$[ebp], 160 ; 000000a0H
  0056d	7c 18		 jl	 SHORT $LN16@create_cas
  0056f	a1 00 00 00 00	 mov	 eax, DWORD PTR ?__LINE__Var@?0??create_cas_tasks@@YGXXZ@4JA
  00574	83 c0 43	 add	 eax, 67			; 00000043H
  00577	50		 push	 eax
  00578	68 00 00 00 00	 push	 OFFSET ??_C@_0ED@GMECMFKH@c?3?2users?2nhv90?2projects?2eech?2ap@
  0057d	68 00 00 00 00	 push	 OFFSET ??_C@_0CE@FGAKBBGH@count?5?$DM?5MAX_HIGHLEVEL_TARGET_CH@
  00582	e8 00 00 00 00	 call	 ?process_assert@@YGXPBD0H@Z ; process_assert
$LN16@create_cas:

; 882  : 	
; 883  : 								//
; 884  : 								// get sector
; 885  : 								//
; 886  : 	
; 887  : 								pos = get_local_entity_vec3d_ptr (group, VEC3D_TYPE_POSITION);

  00587	83 7d f4 00	 cmp	 DWORD PTR _group$[ebp], 0
  0058b	74 0d		 je	 SHORT $LN58@create_cas
  0058d	8b 45 f4	 mov	 eax, DWORD PTR _group$[ebp]
  00590	8b 08		 mov	 ecx, DWORD PTR [eax]
  00592	89 8d 78 ff ff
	ff		 mov	 DWORD PTR tv284[ebp], ecx
  00598	eb 24		 jmp	 SHORT $LN59@create_cas
$LN58@create_cas:
  0059a	8b 15 00 00 00
	00		 mov	 edx, DWORD PTR ?__LINE__Var@?0??create_cas_tasks@@YGXXZ@4JA
  005a0	83 c2 49	 add	 edx, 73			; 00000049H
  005a3	52		 push	 edx
  005a4	68 00 00 00 00	 push	 OFFSET ??_C@_0ED@GMECMFKH@c?3?2users?2nhv90?2projects?2eech?2ap@
  005a9	a1 00 00 00 00	 mov	 eax, DWORD PTR ?null_entity_pointer_message@@3PBDB ; null_entity_pointer_message
  005ae	50		 push	 eax
  005af	e8 00 00 00 00	 call	 ?process_assert@@YGXPBD0H@Z ; process_assert
  005b4	c7 85 78 ff ff
	ff 00 00 00 00	 mov	 DWORD PTR tv284[ebp], 0
$LN59@create_cas:
  005be	b9 01 00 00 00	 mov	 ecx, 1
  005c3	85 c9		 test	 ecx, ecx
  005c5	74 0c		 je	 SHORT $LN60@create_cas
  005c7	c7 85 74 ff ff
	ff 08 00 00 00	 mov	 DWORD PTR tv292[ebp], 8
  005d1	eb 24		 jmp	 SHORT $LN61@create_cas
$LN60@create_cas:
  005d3	8b 15 00 00 00
	00		 mov	 edx, DWORD PTR ?__LINE__Var@?0??create_cas_tasks@@YGXXZ@4JA
  005d9	83 c2 49	 add	 edx, 73			; 00000049H
  005dc	52		 push	 edx
  005dd	68 00 00 00 00	 push	 OFFSET ??_C@_0ED@GMECMFKH@c?3?2users?2nhv90?2projects?2eech?2ap@
  005e2	a1 00 00 00 00	 mov	 eax, DWORD PTR ?overload_invalid_vec3d_type_message@@3PBDB ; overload_invalid_vec3d_type_message
  005e7	50		 push	 eax
  005e8	e8 00 00 00 00	 call	 ?process_assert@@YGXPBD0H@Z ; process_assert
  005ed	c7 85 74 ff ff
	ff 00 00 00 00	 mov	 DWORD PTR tv292[ebp], 0
$LN61@create_cas:
  005f7	6a 08		 push	 8
  005f9	8b 4d f4	 mov	 ecx, DWORD PTR _group$[ebp]
  005fc	51		 push	 ecx
  005fd	6b 95 78 ff ff
	ff 60		 imul	 edx, DWORD PTR tv284[ebp], 96
  00604	8b 85 74 ff ff
	ff		 mov	 eax, DWORD PTR tv292[ebp]
  0060a	8b 8c 82 00 00
	00 00		 mov	 ecx, DWORD PTR ?fn_get_local_entity_vec3d_ptr@@3PAY0BI@P6GPAUVEC3D@@PAUENTITY@@W4VEC3D_TYPES@@@ZA[edx+eax*4]
  00611	ff d1		 call	 ecx
  00613	89 45 e0	 mov	 DWORD PTR _pos$[ebp], eax

; 888  : 									
; 889  : 								get_x_sector (x, pos->x);

  00616	8d 45 dc	 lea	 eax, DWORD PTR _x$[ebp]
  00619	50		 push	 eax
  0061a	8b 4d e0	 mov	 ecx, DWORD PTR _pos$[ebp]
  0061d	f3 0f 10 01	 movss	 xmm0, DWORD PTR [ecx]
  00621	51		 push	 ecx
  00622	f3 0f 11 04 24	 movss	 DWORD PTR [esp], xmm0
  00627	e8 00 00 00 00	 call	 ?convert_float_to_int@@YGXMPAH@Z ; convert_float_to_int
  0062c	8b 45 dc	 mov	 eax, DWORD PTR _x$[ebp]
  0062f	99		 cdq
  00630	f7 3d 00 00 00
	00		 idiv	 DWORD PTR ?world_map@@3UWORLD_MAP_DATA@@A
  00636	89 45 dc	 mov	 DWORD PTR _x$[ebp], eax

; 890  : 								get_z_sector (z, pos->z);

  00639	8d 45 d8	 lea	 eax, DWORD PTR _z$[ebp]
  0063c	50		 push	 eax
  0063d	8b 4d e0	 mov	 ecx, DWORD PTR _pos$[ebp]
  00640	f3 0f 10 41 08	 movss	 xmm0, DWORD PTR [ecx+8]
  00645	51		 push	 ecx
  00646	f3 0f 11 04 24	 movss	 DWORD PTR [esp], xmm0
  0064b	e8 00 00 00 00	 call	 ?convert_float_to_int@@YGXMPAH@Z ; convert_float_to_int
  00650	8b 45 d8	 mov	 eax, DWORD PTR _z$[ebp]
  00653	99		 cdq
  00654	f7 3d 00 00 00
	00		 idiv	 DWORD PTR ?world_map@@3UWORLD_MAP_DATA@@A
  0065a	89 45 d8	 mov	 DWORD PTR _z$[ebp], eax

; 891  : 	
; 892  : 								//
; 893  : 								// Calculate group rating
; 894  : 								//
; 895  : 	
; 896  : 								importance_rating = get_imap_value (IMAP_IMPORTANCE, side, x, z);

  0065d	8b 45 d8	 mov	 eax, DWORD PTR _z$[ebp]
  00660	50		 push	 eax
  00661	8b 4d dc	 mov	 ecx, DWORD PTR _x$[ebp]
  00664	51		 push	 ecx
  00665	8b 55 fc	 mov	 edx, DWORD PTR _side$[ebp]
  00668	52		 push	 edx
  00669	6a 00		 push	 0
  0066b	e8 00 00 00 00	 call	 ?get_imap_value@@YGMW4IMAP_TYPES@@W4ENTITY_SIDES@@HH@Z ; get_imap_value
  00670	d9 1d 00 00 00
	00		 fstp	 DWORD PTR ?importance_rating@@3MA

; 897  : 	
; 898  : 								air_defence_rating = get_imap_value (IMAP_AIR_DEFENCE, side, x, z);

  00676	8b 45 d8	 mov	 eax, DWORD PTR _z$[ebp]
  00679	50		 push	 eax
  0067a	8b 4d dc	 mov	 ecx, DWORD PTR _x$[ebp]
  0067d	51		 push	 ecx
  0067e	8b 55 fc	 mov	 edx, DWORD PTR _side$[ebp]
  00681	52		 push	 edx
  00682	6a 02		 push	 2
  00684	e8 00 00 00 00	 call	 ?get_imap_value@@YGMW4IMAP_TYPES@@W4ENTITY_SIDES@@HH@Z ; get_imap_value
  00689	d9 1d 00 00 00
	00		 fstp	 DWORD PTR ?air_defence_rating@@3MA

; 899  : 	
; 900  : 								surface_defence_rating = get_imap_value (IMAP_SURFACE_DEFENCE, side, x, z);

  0068f	8b 45 d8	 mov	 eax, DWORD PTR _z$[ebp]
  00692	50		 push	 eax
  00693	8b 4d dc	 mov	 ecx, DWORD PTR _x$[ebp]
  00696	51		 push	 ecx
  00697	8b 55 fc	 mov	 edx, DWORD PTR _side$[ebp]
  0069a	52		 push	 edx
  0069b	6a 03		 push	 3
  0069d	e8 00 00 00 00	 call	 ?get_imap_value@@YGMW4IMAP_TYPES@@W4ENTITY_SIDES@@HH@Z ; get_imap_value
  006a2	d9 1d 00 00 00
	00		 fstp	 DWORD PTR ?surface_defence_rating@@3MA

; 901  : 	
; 902  : 								base_distance_rating = get_imap_value (IMAP_BASE_DISTANCE, this_side, x, z);

  006a8	8b 45 d8	 mov	 eax, DWORD PTR _z$[ebp]
  006ab	50		 push	 eax
  006ac	8b 4d dc	 mov	 ecx, DWORD PTR _x$[ebp]
  006af	51		 push	 ecx
  006b0	8b 55 f8	 mov	 edx, DWORD PTR _this_side$[ebp]
  006b3	52		 push	 edx
  006b4	6a 01		 push	 1
  006b6	e8 00 00 00 00	 call	 ?get_imap_value@@YGMW4IMAP_TYPES@@W4ENTITY_SIDES@@HH@Z ; get_imap_value
  006bb	d9 1d 00 00 00
	00		 fstp	 DWORD PTR ?base_distance_rating@@3MA

; 903  : 	
; 904  : 								rating = 0.0;

  006c1	0f 57 c0	 xorps	 xmm0, xmm0
  006c4	f3 0f 11 45 c8	 movss	 DWORD PTR _rating$[ebp], xmm0

; 905  : 	
; 906  : 								// low enemy importance
; 907  : 	//							rating += (2.0 - importance_rating);
; 908  : 	
; 909  : 								// low enemy S-A threat 
; 910  : 								rating += (1.0 - air_defence_rating);

  006c9	f3 0f 5a 05 00
	00 00 00	 cvtss2sd xmm0, DWORD PTR ?air_defence_rating@@3MA
  006d1	f2 0f 10 0d 00
	00 00 00	 movsd	 xmm1, QWORD PTR __real@3ff0000000000000
  006d9	f2 0f 5c c8	 subsd	 xmm1, xmm0
  006dd	f3 0f 5a 45 c8	 cvtss2sd xmm0, DWORD PTR _rating$[ebp]
  006e2	f2 0f 58 c1	 addsd	 xmm0, xmm1
  006e6	f2 0f 5a c0	 cvtsd2ss xmm0, xmm0
  006ea	f3 0f 11 45 c8	 movss	 DWORD PTR _rating$[ebp], xmm0

; 911  : 	
; 912  : 								// low enemy S-S threat
; 913  : 	//							rating += 2.0 * (1.0 - surface_defence_rating);
; 914  : 	
; 915  : 								// close to friendly base
; 916  : 								rating += 3.0 * (base_distance_rating);

  006ef	f3 0f 5a 05 00
	00 00 00	 cvtss2sd xmm0, DWORD PTR ?base_distance_rating@@3MA
  006f7	f2 0f 59 05 00
	00 00 00	 mulsd	 xmm0, QWORD PTR __real@4008000000000000
  006ff	f3 0f 5a 4d c8	 cvtss2sd xmm1, DWORD PTR _rating$[ebp]
  00704	f2 0f 58 c8	 addsd	 xmm1, xmm0
  00708	f2 0f 5a c1	 cvtsd2ss xmm0, xmm1
  0070c	f3 0f 11 45 c8	 movss	 DWORD PTR _rating$[ebp], xmm0

; 917  : 	
; 918  : 								// friendly territory
; 919  : 								rating += 2.0 * get_local_sector_side_ratio (x, z, this_side);

  00711	8b 45 f8	 mov	 eax, DWORD PTR _this_side$[ebp]
  00714	50		 push	 eax
  00715	8b 4d d8	 mov	 ecx, DWORD PTR _z$[ebp]
  00718	51		 push	 ecx
  00719	8b 55 dc	 mov	 edx, DWORD PTR _x$[ebp]
  0071c	52		 push	 edx
  0071d	e8 00 00 00 00	 call	 ?get_local_sector_side_ratio@@YGMHHW4ENTITY_SIDES@@@Z ; get_local_sector_side_ratio
  00722	dd 9d 74 ff ff
	ff		 fstp	 QWORD PTR tv727[ebp]
  00728	f2 0f 10 85 74
	ff ff ff	 movsd	 xmm0, QWORD PTR tv727[ebp]
  00730	f2 0f 59 05 00
	00 00 00	 mulsd	 xmm0, QWORD PTR __real@4000000000000000
  00738	f3 0f 5a 4d c8	 cvtss2sd xmm1, DWORD PTR _rating$[ebp]
  0073d	f2 0f 58 c8	 addsd	 xmm1, xmm0
  00741	f2 0f 5a c1	 cvtsd2ss xmm0, xmm1
  00745	f3 0f 11 45 c8	 movss	 DWORD PTR _rating$[ebp], xmm0

; 920  : 	
; 921  : 								max_rating = 6.0;

  0074a	f3 0f 10 05 00
	00 00 00	 movss	 xmm0, DWORD PTR __real@40c00000
  00752	f3 0f 11 45 c0	 movss	 DWORD PTR _max_rating$[ebp], xmm0

; 922  : 	
; 923  : 								#if DEBUG_MODULE
; 924  : 	
; 925  : 								ai_log ("(TASK) %s CAS (%d) Group %s : IMP %.4f - AIR %.4f - SUR %.4f - DIST %.4f (Total %.3f / %.3f)",
; 926  : 												entity_side_short_names [this_side],
; 927  : 												count,
; 928  : 												get_local_entity_string (group, STRING_TYPE_FULL_NAME),
; 929  : 												importance_rating,
; 930  : 												air_defence_rating,
; 931  : 												surface_defence_rating,
; 932  : 												base_distance_rating,
; 933  : 												rating,
; 934  : 												max_rating);
; 935  : 	
; 936  : 								#endif
; 937  : 	
; 938  : 								//
; 939  : 								// Store
; 940  : 								//
; 941  : 	
; 942  : 								if (rating > 0.0)

  00757	f3 0f 5a 45 c8	 cvtss2sd xmm0, DWORD PTR _rating$[ebp]
  0075c	66 0f 2f 05 00
	00 00 00	 comisd	 xmm0, QWORD PTR __real@0000000000000000
  00764	76 27		 jbe	 SHORT $LN17@create_cas

; 943  : 								{
; 944  : 									target_list [count] = group;

  00766	8b 45 d0	 mov	 eax, DWORD PTR _count$[ebp]
  00769	8b 4d f4	 mov	 ecx, DWORD PTR _group$[ebp]
  0076c	89 0c 85 00 00
	00 00		 mov	 DWORD PTR ?target_list@@3PAPAUENTITY@@A[eax*4], ecx

; 945  : 		
; 946  : 									target_rating [count] = rating;

  00773	8b 45 d0	 mov	 eax, DWORD PTR _count$[ebp]
  00776	f3 0f 10 45 c8	 movss	 xmm0, DWORD PTR _rating$[ebp]
  0077b	f3 0f 11 04 85
	00 00 00 00	 movss	 DWORD PTR ?target_rating@@3PAMA[eax*4], xmm0

; 947  : 		
; 948  : 									count ++;

  00784	8b 45 d0	 mov	 eax, DWORD PTR _count$[ebp]
  00787	83 c0 01	 add	 eax, 1
  0078a	89 45 d0	 mov	 DWORD PTR _count$[ebp], eax
$LN17@create_cas:

; 949  : 								}
; 950  : 							}
; 951  : 						}
; 952  : 					}
; 953  : 
; 954  : 					group = get_local_entity_child_succ (group, LIST_TYPE_GROUND_REGISTRY);

  0078d	83 7d f4 00	 cmp	 DWORD PTR _group$[ebp], 0
  00791	74 0d		 je	 SHORT $LN62@create_cas
  00793	8b 45 f4	 mov	 eax, DWORD PTR _group$[ebp]
  00796	8b 08		 mov	 ecx, DWORD PTR [eax]
  00798	89 8d 78 ff ff
	ff		 mov	 DWORD PTR tv360[ebp], ecx
  0079e	eb 27		 jmp	 SHORT $LN63@create_cas
$LN62@create_cas:
  007a0	8b 15 00 00 00
	00		 mov	 edx, DWORD PTR ?__LINE__Var@?0??create_cas_tasks@@YGXXZ@4JA
  007a6	81 c2 8c 00 00
	00		 add	 edx, 140		; 0000008cH
  007ac	52		 push	 edx
  007ad	68 00 00 00 00	 push	 OFFSET ??_C@_0ED@GMECMFKH@c?3?2users?2nhv90?2projects?2eech?2ap@
  007b2	a1 00 00 00 00	 mov	 eax, DWORD PTR ?null_entity_pointer_message@@3PBDB ; null_entity_pointer_message
  007b7	50		 push	 eax
  007b8	e8 00 00 00 00	 call	 ?process_assert@@YGXPBD0H@Z ; process_assert
  007bd	c7 85 78 ff ff
	ff 00 00 00 00	 mov	 DWORD PTR tv360[ebp], 0
$LN63@create_cas:
  007c7	b9 01 00 00 00	 mov	 ecx, 1
  007cc	85 c9		 test	 ecx, ecx
  007ce	74 0c		 je	 SHORT $LN64@create_cas
  007d0	c7 85 74 ff ff
	ff 0f 00 00 00	 mov	 DWORD PTR tv368[ebp], 15 ; 0000000fH
  007da	eb 27		 jmp	 SHORT $LN65@create_cas
$LN64@create_cas:
  007dc	8b 15 00 00 00
	00		 mov	 edx, DWORD PTR ?__LINE__Var@?0??create_cas_tasks@@YGXXZ@4JA
  007e2	81 c2 8c 00 00
	00		 add	 edx, 140		; 0000008cH
  007e8	52		 push	 edx
  007e9	68 00 00 00 00	 push	 OFFSET ??_C@_0ED@GMECMFKH@c?3?2users?2nhv90?2projects?2eech?2ap@
  007ee	a1 00 00 00 00	 mov	 eax, DWORD PTR ?overload_invalid_list_type_message@@3PBDB ; overload_invalid_list_type_message
  007f3	50		 push	 eax
  007f4	e8 00 00 00 00	 call	 ?process_assert@@YGXPBD0H@Z ; process_assert
  007f9	c7 85 74 ff ff
	ff 00 00 00 00	 mov	 DWORD PTR tv368[ebp], 0
$LN65@create_cas:
  00803	6a 0f		 push	 15			; 0000000fH
  00805	8b 4d f4	 mov	 ecx, DWORD PTR _group$[ebp]
  00808	51		 push	 ecx
  00809	69 95 78 ff ff
	ff b4 00 00 00	 imul	 edx, DWORD PTR tv360[ebp], 180
  00813	8b 85 74 ff ff
	ff		 mov	 eax, DWORD PTR tv368[ebp]
  00819	8b 8c 82 00 00
	00 00		 mov	 ecx, DWORD PTR ?fn_get_local_entity_child_succ@@3PAY0CN@P6GPAUENTITY@@PAU1@W4LIST_TYPES@@@ZA[edx+eax*4]
  00820	ff d1		 call	 ecx
  00822	89 45 f4	 mov	 DWORD PTR _group$[ebp], eax

; 955  : 				}

  00825	e9 76 fb ff ff	 jmp	 $LN6@create_cas
$LN7@create_cas:

; 956  : 			}
; 957  : 
; 958  : 			target_force = get_local_entity_child_succ (target_force, LIST_TYPE_FORCE);

  0082a	83 7d e4 00	 cmp	 DWORD PTR _target_force$[ebp], 0
  0082e	74 0d		 je	 SHORT $LN66@create_cas
  00830	8b 45 e4	 mov	 eax, DWORD PTR _target_force$[ebp]
  00833	8b 08		 mov	 ecx, DWORD PTR [eax]
  00835	89 8d 78 ff ff
	ff		 mov	 DWORD PTR tv380[ebp], ecx
  0083b	eb 27		 jmp	 SHORT $LN67@create_cas
$LN66@create_cas:
  0083d	8b 15 00 00 00
	00		 mov	 edx, DWORD PTR ?__LINE__Var@?0??create_cas_tasks@@YGXXZ@4JA
  00843	81 c2 90 00 00
	00		 add	 edx, 144		; 00000090H
  00849	52		 push	 edx
  0084a	68 00 00 00 00	 push	 OFFSET ??_C@_0ED@GMECMFKH@c?3?2users?2nhv90?2projects?2eech?2ap@
  0084f	a1 00 00 00 00	 mov	 eax, DWORD PTR ?null_entity_pointer_message@@3PBDB ; null_entity_pointer_message
  00854	50		 push	 eax
  00855	e8 00 00 00 00	 call	 ?process_assert@@YGXPBD0H@Z ; process_assert
  0085a	c7 85 78 ff ff
	ff 00 00 00 00	 mov	 DWORD PTR tv380[ebp], 0
$LN67@create_cas:
  00864	b9 01 00 00 00	 mov	 ecx, 1
  00869	85 c9		 test	 ecx, ecx
  0086b	74 0c		 je	 SHORT $LN68@create_cas
  0086d	c7 85 74 ff ff
	ff 0e 00 00 00	 mov	 DWORD PTR tv388[ebp], 14 ; 0000000eH
  00877	eb 27		 jmp	 SHORT $LN69@create_cas
$LN68@create_cas:
  00879	8b 15 00 00 00
	00		 mov	 edx, DWORD PTR ?__LINE__Var@?0??create_cas_tasks@@YGXXZ@4JA
  0087f	81 c2 90 00 00
	00		 add	 edx, 144		; 00000090H
  00885	52		 push	 edx
  00886	68 00 00 00 00	 push	 OFFSET ??_C@_0ED@GMECMFKH@c?3?2users?2nhv90?2projects?2eech?2ap@
  0088b	a1 00 00 00 00	 mov	 eax, DWORD PTR ?overload_invalid_list_type_message@@3PBDB ; overload_invalid_list_type_message
  00890	50		 push	 eax
  00891	e8 00 00 00 00	 call	 ?process_assert@@YGXPBD0H@Z ; process_assert
  00896	c7 85 74 ff ff
	ff 00 00 00 00	 mov	 DWORD PTR tv388[ebp], 0
$LN69@create_cas:
  008a0	6a 0e		 push	 14			; 0000000eH
  008a2	8b 4d e4	 mov	 ecx, DWORD PTR _target_force$[ebp]
  008a5	51		 push	 ecx
  008a6	69 95 78 ff ff
	ff b4 00 00 00	 imul	 edx, DWORD PTR tv380[ebp], 180
  008b0	8b 85 74 ff ff
	ff		 mov	 eax, DWORD PTR tv388[ebp]
  008b6	8b 8c 82 00 00
	00 00		 mov	 ecx, DWORD PTR ?fn_get_local_entity_child_succ@@3PAY0CN@P6GPAUENTITY@@PAU1@W4LIST_TYPES@@@ZA[edx+eax*4]
  008bd	ff d1		 call	 ecx
  008bf	89 45 e4	 mov	 DWORD PTR _target_force$[ebp], eax

; 959  : 		}

  008c2	e9 8f f9 ff ff	 jmp	 $LN4@create_cas
$LN5@create_cas:

; 960  : 
; 961  : 		//
; 962  : 		// Create CAS tasks
; 963  : 		//
; 964  : 
; 965  : 		if (count > 0)

  008c7	83 7d d0 00	 cmp	 DWORD PTR _count$[ebp], 0
  008cb	0f 8e bb 03 00
	00		 jle	 $LN9@create_cas

; 966  : 		{
; 967  : 			debug_log ("HIGHLEVL: %s %d candidates for CAS", entity_side_short_names [this_side], count);

  008d1	8b 45 d0	 mov	 eax, DWORD PTR _count$[ebp]
  008d4	50		 push	 eax
  008d5	8b 4d f8	 mov	 ecx, DWORD PTR _this_side$[ebp]
  008d8	8b 14 8d 00 00
	00 00		 mov	 edx, DWORD PTR ?entity_side_short_names@@3PAPBDA[ecx*4]
  008df	52		 push	 edx
  008e0	68 00 00 00 00	 push	 OFFSET ??_C@_0CD@HLLKHCJK@HIGHLEVL?3?5?$CFs?5?$CFd?5candidates?5for?5@
  008e5	e8 00 00 00 00	 call	 ?debug_log@@YAXPBDZZ	; debug_log
  008ea	83 c4 0c	 add	 esp, 12			; 0000000cH

; 968  : 
; 969  : 			quicksort_entity_list (target_list, count, target_rating);

  008ed	68 00 00 00 00	 push	 OFFSET ?target_rating@@3PAMA
  008f2	8b 45 d0	 mov	 eax, DWORD PTR _count$[ebp]
  008f5	50		 push	 eax
  008f6	68 00 00 00 00	 push	 OFFSET ?target_list@@3PAPAUENTITY@@A
  008fb	e8 00 00 00 00	 call	 ?quicksort_entity_list@@YGXPAPAUENTITY@@HPAM@Z ; quicksort_entity_list

; 970  : 
; 971  : 			count = min (count, CREATE_CAS_TASK_COUNT);

  00900	c7 85 7c ff ff
	ff 02 00 00 00	 mov	 DWORD PTR $T1[ebp], 2
  0090a	8d 85 7c ff ff
	ff		 lea	 eax, DWORD PTR $T1[ebp]
  00910	50		 push	 eax
  00911	8d 4d d0	 lea	 ecx, DWORD PTR _count$[ebp]
  00914	51		 push	 ecx
  00915	e8 00 00 00 00	 call	 ??$min@H@std@@YGABHABH0@Z ; std::min<int>
  0091a	8b 10		 mov	 edx, DWORD PTR [eax]
  0091c	89 55 d0	 mov	 DWORD PTR _count$[ebp], edx

; 972  : 
; 973  : 			ASSERT (target_rating [0] > 0.0);

  0091f	b8 04 00 00 00	 mov	 eax, 4
  00924	6b c8 00	 imul	 ecx, eax, 0
  00927	f3 0f 5a 81 00
	00 00 00	 cvtss2sd xmm0, DWORD PTR ?target_rating@@3PAMA[ecx]
  0092f	66 0f 2f 05 00
	00 00 00	 comisd	 xmm0, QWORD PTR __real@0000000000000000
  00937	77 1a		 ja	 SHORT $LN19@create_cas
  00939	a1 00 00 00 00	 mov	 eax, DWORD PTR ?__LINE__Var@?0??create_cas_tasks@@YGXXZ@4JA
  0093e	05 9f 00 00 00	 add	 eax, 159		; 0000009fH
  00943	50		 push	 eax
  00944	68 00 00 00 00	 push	 OFFSET ??_C@_0ED@GMECMFKH@c?3?2users?2nhv90?2projects?2eech?2ap@
  00949	68 00 00 00 00	 push	 OFFSET ??_C@_0BI@BNNJCIEB@target_rating?5?$FL0?$FN?5?$DO?50?40@
  0094e	e8 00 00 00 00	 call	 ?process_assert@@YGXPBD0H@Z ; process_assert
$LN19@create_cas:

; 974  : 
; 975  : 			for (loop = 0; loop < count; loop ++)

  00953	c7 45 d4 00 00
	00 00		 mov	 DWORD PTR _loop$[ebp], 0
  0095a	eb 09		 jmp	 SHORT $LN10@create_cas
$LN8@create_cas:
  0095c	8b 45 d4	 mov	 eax, DWORD PTR _loop$[ebp]
  0095f	83 c0 01	 add	 eax, 1
  00962	89 45 d4	 mov	 DWORD PTR _loop$[ebp], eax
$LN10@create_cas:
  00965	8b 45 d4	 mov	 eax, DWORD PTR _loop$[ebp]
  00968	3b 45 d0	 cmp	 eax, DWORD PTR _count$[ebp]
  0096b	0f 8d 1b 03 00
	00		 jge	 $LN9@create_cas

; 976  : 			{
; 977  : 				ratio = target_rating [loop] / target_rating [0];

  00971	b8 04 00 00 00	 mov	 eax, 4
  00976	6b c8 00	 imul	 ecx, eax, 0
  00979	8b 55 d4	 mov	 edx, DWORD PTR _loop$[ebp]
  0097c	f3 0f 10 04 95
	00 00 00 00	 movss	 xmm0, DWORD PTR ?target_rating@@3PAMA[edx*4]
  00985	f3 0f 5e 81 00
	00 00 00	 divss	 xmm0, DWORD PTR ?target_rating@@3PAMA[ecx]
  0098d	f3 0f 11 45 c4	 movss	 DWORD PTR _ratio$[ebp], xmm0

; 978  : 
; 979  : 				if (ratio >= MIN_TASK_CREATION_RATIO)

  00992	f3 0f 5a 45 c4	 cvtss2sd xmm0, DWORD PTR _ratio$[ebp]
  00997	66 0f 2f 05 00
	00 00 00	 comisd	 xmm0, QWORD PTR __real@3fe8000000000000
  0099f	0f 82 e2 02 00
	00		 jb	 $LN24@create_cas

; 980  : 				{
; 981  : 					group = target_list [loop];

  009a5	8b 45 d4	 mov	 eax, DWORD PTR _loop$[ebp]
  009a8	8b 0c 85 00 00
	00 00		 mov	 ecx, DWORD PTR ?target_list@@3PAPAUENTITY@@A[eax*4]
  009af	89 4d f4	 mov	 DWORD PTR _group$[ebp], ecx

; 982  : 					
; 983  : 					if (!entity_is_object_of_task (group, ENTITY_SUB_TYPE_TASK_CLOSE_AIR_SUPPORT, this_side))

  009b2	8b 45 f8	 mov	 eax, DWORD PTR _this_side$[ebp]
  009b5	50		 push	 eax
  009b6	6a 06		 push	 6
  009b8	8b 4d f4	 mov	 ecx, DWORD PTR _group$[ebp]
  009bb	51		 push	 ecx
  009bc	e8 00 00 00 00	 call	 ?entity_is_object_of_task@@YGHPAUENTITY@@HW4ENTITY_SIDES@@@Z ; entity_is_object_of_task
  009c1	85 c0		 test	 eax, eax
  009c3	0f 85 be 02 00
	00		 jne	 $LN24@create_cas

; 984  : 					{
; 985  : 						pos = get_local_entity_vec3d_ptr (group, VEC3D_TYPE_POSITION);

  009c9	83 7d f4 00	 cmp	 DWORD PTR _group$[ebp], 0
  009cd	74 0d		 je	 SHORT $LN70@create_cas
  009cf	8b 45 f4	 mov	 eax, DWORD PTR _group$[ebp]
  009d2	8b 08		 mov	 ecx, DWORD PTR [eax]
  009d4	89 8d 78 ff ff
	ff		 mov	 DWORD PTR tv436[ebp], ecx
  009da	eb 27		 jmp	 SHORT $LN71@create_cas
$LN70@create_cas:
  009dc	8b 15 00 00 00
	00		 mov	 edx, DWORD PTR ?__LINE__Var@?0??create_cas_tasks@@YGXXZ@4JA
  009e2	81 c2 ab 00 00
	00		 add	 edx, 171		; 000000abH
  009e8	52		 push	 edx
  009e9	68 00 00 00 00	 push	 OFFSET ??_C@_0ED@GMECMFKH@c?3?2users?2nhv90?2projects?2eech?2ap@
  009ee	a1 00 00 00 00	 mov	 eax, DWORD PTR ?null_entity_pointer_message@@3PBDB ; null_entity_pointer_message
  009f3	50		 push	 eax
  009f4	e8 00 00 00 00	 call	 ?process_assert@@YGXPBD0H@Z ; process_assert
  009f9	c7 85 78 ff ff
	ff 00 00 00 00	 mov	 DWORD PTR tv436[ebp], 0
$LN71@create_cas:
  00a03	b9 01 00 00 00	 mov	 ecx, 1
  00a08	85 c9		 test	 ecx, ecx
  00a0a	74 0c		 je	 SHORT $LN72@create_cas
  00a0c	c7 85 74 ff ff
	ff 08 00 00 00	 mov	 DWORD PTR tv444[ebp], 8
  00a16	eb 27		 jmp	 SHORT $LN73@create_cas
$LN72@create_cas:
  00a18	8b 15 00 00 00
	00		 mov	 edx, DWORD PTR ?__LINE__Var@?0??create_cas_tasks@@YGXXZ@4JA
  00a1e	81 c2 ab 00 00
	00		 add	 edx, 171		; 000000abH
  00a24	52		 push	 edx
  00a25	68 00 00 00 00	 push	 OFFSET ??_C@_0ED@GMECMFKH@c?3?2users?2nhv90?2projects?2eech?2ap@
  00a2a	a1 00 00 00 00	 mov	 eax, DWORD PTR ?overload_invalid_vec3d_type_message@@3PBDB ; overload_invalid_vec3d_type_message
  00a2f	50		 push	 eax
  00a30	e8 00 00 00 00	 call	 ?process_assert@@YGXPBD0H@Z ; process_assert
  00a35	c7 85 74 ff ff
	ff 00 00 00 00	 mov	 DWORD PTR tv444[ebp], 0
$LN73@create_cas:
  00a3f	6a 08		 push	 8
  00a41	8b 4d f4	 mov	 ecx, DWORD PTR _group$[ebp]
  00a44	51		 push	 ecx
  00a45	6b 95 78 ff ff
	ff 60		 imul	 edx, DWORD PTR tv436[ebp], 96
  00a4c	8b 85 74 ff ff
	ff		 mov	 eax, DWORD PTR tv444[ebp]
  00a52	8b 8c 82 00 00
	00 00		 mov	 ecx, DWORD PTR ?fn_get_local_entity_vec3d_ptr@@3PAY0BI@P6GPAUVEC3D@@PAUENTITY@@W4VEC3D_TYPES@@@ZA[edx+eax*4]
  00a59	ff d1		 call	 ecx
  00a5b	89 45 e0	 mov	 DWORD PTR _pos$[ebp], eax

; 986  : 									
; 987  : 						sector = get_local_sector_entity (pos);

  00a5e	8b 45 e0	 mov	 eax, DWORD PTR _pos$[ebp]
  00a61	50		 push	 eax
  00a62	e8 00 00 00 00	 call	 ?get_local_sector_entity@@YGPAUENTITY@@PAUVEC3D@@@Z ; get_local_sector_entity
  00a67	89 45 ec	 mov	 DWORD PTR _sector$[ebp], eax

; 988  : 	
; 989  : 						ASSERT (sector);

  00a6a	83 7d ec 00	 cmp	 DWORD PTR _sector$[ebp], 0
  00a6e	75 1a		 jne	 SHORT $LN22@create_cas
  00a70	a1 00 00 00 00	 mov	 eax, DWORD PTR ?__LINE__Var@?0??create_cas_tasks@@YGXXZ@4JA
  00a75	05 af 00 00 00	 add	 eax, 175		; 000000afH
  00a7a	50		 push	 eax
  00a7b	68 00 00 00 00	 push	 OFFSET ??_C@_0ED@GMECMFKH@c?3?2users?2nhv90?2projects?2eech?2ap@
  00a80	68 00 00 00 00	 push	 OFFSET ??_C@_06IDGHNJOB@sector@
  00a85	e8 00 00 00 00	 call	 ?process_assert@@YGXPBD0H@Z ; process_assert
$LN22@create_cas:

; 990  : 					
; 991  : 						if (get_sector_task_type_count (sector, ENTITY_SUB_TYPE_TASK_CLOSE_AIR_SUPPORT, this_side) < MAX_SECTOR_CAS_TASK_COUNT)

  00a8a	8b 45 f8	 mov	 eax, DWORD PTR _this_side$[ebp]
  00a8d	50		 push	 eax
  00a8e	6a 06		 push	 6
  00a90	8b 4d ec	 mov	 ecx, DWORD PTR _sector$[ebp]
  00a93	51		 push	 ecx
  00a94	e8 00 00 00 00	 call	 ?get_sector_task_type_count@@YGHPAUENTITY@@HW4ENTITY_SIDES@@@Z ; get_sector_task_type_count
  00a99	83 f8 01	 cmp	 eax, 1
  00a9c	0f 8d e5 01 00
	00		 jge	 $LN24@create_cas

; 992  : 						{
; 993  : 							priority = (target_rating [loop] / max_rating) * task_database [ENTITY_SUB_TYPE_TASK_CLOSE_AIR_SUPPORT].task_priority;

  00aa2	8b 45 d4	 mov	 eax, DWORD PTR _loop$[ebp]
  00aa5	f3 0f 10 04 85
	00 00 00 00	 movss	 xmm0, DWORD PTR ?target_rating@@3PAMA[eax*4]
  00aae	f3 0f 5e 45 c0	 divss	 xmm0, DWORD PTR _max_rating$[ebp]
  00ab3	b9 50 00 00 00	 mov	 ecx, 80			; 00000050H
  00ab8	6b d1 06	 imul	 edx, ecx, 6
  00abb	f3 0f 59 82 10
	00 00 00	 mulss	 xmm0, DWORD PTR ?task_database@@3PAUTASK_DATA@@A[edx+16]
  00ac3	f3 0f 11 45 cc	 movss	 DWORD PTR _priority$[ebp], xmm0

; 994  : 	
; 995  : 							new_task = create_close_air_support_task (this_side, group, NULL, FALSE, priority, NULL, NULL);

  00ac8	6a 00		 push	 0
  00aca	6a 00		 push	 0
  00acc	51		 push	 ecx
  00acd	f3 0f 10 45 cc	 movss	 xmm0, DWORD PTR _priority$[ebp]
  00ad2	f3 0f 11 04 24	 movss	 DWORD PTR [esp], xmm0
  00ad7	6a 00		 push	 0
  00ad9	6a 00		 push	 0
  00adb	8b 45 f4	 mov	 eax, DWORD PTR _group$[ebp]
  00ade	50		 push	 eax
  00adf	8b 4d f8	 mov	 ecx, DWORD PTR _this_side$[ebp]
  00ae2	51		 push	 ecx
  00ae3	e8 00 00 00 00	 call	 ?create_close_air_support_task@@YGPAUENTITY@@W4ENTITY_SIDES@@PAU1@1HM11@Z ; create_close_air_support_task
  00ae8	89 45 e8	 mov	 DWORD PTR _new_task$[ebp], eax

; 996  : 	
; 997  : 							if (new_task)

  00aeb	83 7d e8 00	 cmp	 DWORD PTR _new_task$[ebp], 0
  00aef	0f 84 92 01 00
	00		 je	 $LN24@create_cas

; 998  : 							{
; 999  : 								ai_log ("(TASK) %s CAS #%d (%d) - Target Group %s : Rating %f - CREATED (Priority %f)",

  00af5	83 7d f4 00	 cmp	 DWORD PTR _group$[ebp], 0
  00af9	74 0d		 je	 SHORT $LN74@create_cas
  00afb	8b 45 f4	 mov	 eax, DWORD PTR _group$[ebp]
  00afe	8b 08		 mov	 ecx, DWORD PTR [eax]
  00b00	89 8d 78 ff ff
	ff		 mov	 DWORD PTR tv490[ebp], ecx
  00b06	eb 27		 jmp	 SHORT $LN75@create_cas
$LN74@create_cas:
  00b08	8b 15 00 00 00
	00		 mov	 edx, DWORD PTR ?__LINE__Var@?0??create_cas_tasks@@YGXXZ@4JA
  00b0e	81 c2 bd 00 00
	00		 add	 edx, 189		; 000000bdH
  00b14	52		 push	 edx
  00b15	68 00 00 00 00	 push	 OFFSET ??_C@_0ED@GMECMFKH@c?3?2users?2nhv90?2projects?2eech?2ap@
  00b1a	a1 00 00 00 00	 mov	 eax, DWORD PTR ?null_entity_pointer_message@@3PBDB ; null_entity_pointer_message
  00b1f	50		 push	 eax
  00b20	e8 00 00 00 00	 call	 ?process_assert@@YGXPBD0H@Z ; process_assert
  00b25	c7 85 78 ff ff
	ff 00 00 00 00	 mov	 DWORD PTR tv490[ebp], 0
$LN75@create_cas:
  00b2f	b9 01 00 00 00	 mov	 ecx, 1
  00b34	85 c9		 test	 ecx, ecx
  00b36	74 0c		 je	 SHORT $LN76@create_cas
  00b38	c7 85 74 ff ff
	ff 03 00 00 00	 mov	 DWORD PTR tv498[ebp], 3
  00b42	eb 27		 jmp	 SHORT $LN77@create_cas
$LN76@create_cas:
  00b44	8b 15 00 00 00
	00		 mov	 edx, DWORD PTR ?__LINE__Var@?0??create_cas_tasks@@YGXXZ@4JA
  00b4a	81 c2 bd 00 00
	00		 add	 edx, 189		; 000000bdH
  00b50	52		 push	 edx
  00b51	68 00 00 00 00	 push	 OFFSET ??_C@_0ED@GMECMFKH@c?3?2users?2nhv90?2projects?2eech?2ap@
  00b56	a1 00 00 00 00	 mov	 eax, DWORD PTR ?overload_invalid_string_type_message@@3PBDB ; overload_invalid_string_type_message
  00b5b	50		 push	 eax
  00b5c	e8 00 00 00 00	 call	 ?process_assert@@YGXPBD0H@Z ; process_assert
  00b61	c7 85 74 ff ff
	ff 00 00 00 00	 mov	 DWORD PTR tv498[ebp], 0
$LN77@create_cas:
  00b6b	83 7d e8 00	 cmp	 DWORD PTR _new_task$[ebp], 0
  00b6f	74 14		 je	 SHORT $LN78@create_cas
  00b71	8b 4d e8	 mov	 ecx, DWORD PTR _new_task$[ebp]
  00b74	2b 0d 00 00 00
	00		 sub	 ecx, DWORD PTR ?entities@@3PAUENTITY@@A ; entities
  00b7a	c1 f9 04	 sar	 ecx, 4
  00b7d	89 8d 70 ff ff
	ff		 mov	 DWORD PTR tv508[ebp], ecx
  00b83	eb 0a		 jmp	 SHORT $LN79@create_cas
$LN78@create_cas:
  00b85	c7 85 70 ff ff
	ff ff ff ff ff	 mov	 DWORD PTR tv508[ebp], -1
$LN79@create_cas:
  00b8f	83 7d e8 00	 cmp	 DWORD PTR _new_task$[ebp], 0
  00b93	74 0d		 je	 SHORT $LN80@create_cas
  00b95	8b 55 e8	 mov	 edx, DWORD PTR _new_task$[ebp]
  00b98	8b 02		 mov	 eax, DWORD PTR [edx]
  00b9a	89 85 6c ff ff
	ff		 mov	 DWORD PTR tv548[ebp], eax
  00ba0	eb 28		 jmp	 SHORT $LN81@create_cas
$LN80@create_cas:
  00ba2	8b 0d 00 00 00
	00		 mov	 ecx, DWORD PTR ?__LINE__Var@?0??create_cas_tasks@@YGXXZ@4JA
  00ba8	81 c1 bb 00 00
	00		 add	 ecx, 187		; 000000bbH
  00bae	51		 push	 ecx
  00baf	68 00 00 00 00	 push	 OFFSET ??_C@_0ED@GMECMFKH@c?3?2users?2nhv90?2projects?2eech?2ap@
  00bb4	8b 15 00 00 00
	00		 mov	 edx, DWORD PTR ?null_entity_pointer_message@@3PBDB ; null_entity_pointer_message
  00bba	52		 push	 edx
  00bbb	e8 00 00 00 00	 call	 ?process_assert@@YGXPBD0H@Z ; process_assert
  00bc0	c7 85 6c ff ff
	ff 00 00 00 00	 mov	 DWORD PTR tv548[ebp], 0
$LN81@create_cas:
  00bca	b8 01 00 00 00	 mov	 eax, 1
  00bcf	85 c0		 test	 eax, eax
  00bd1	74 0c		 je	 SHORT $LN82@create_cas
  00bd3	c7 85 68 ff ff
	ff dc 00 00 00	 mov	 DWORD PTR tv556[ebp], 220 ; 000000dcH
  00bdd	eb 28		 jmp	 SHORT $LN83@create_cas
$LN82@create_cas:
  00bdf	8b 0d 00 00 00
	00		 mov	 ecx, DWORD PTR ?__LINE__Var@?0??create_cas_tasks@@YGXXZ@4JA
  00be5	81 c1 bb 00 00
	00		 add	 ecx, 187		; 000000bbH
  00beb	51		 push	 ecx
  00bec	68 00 00 00 00	 push	 OFFSET ??_C@_0ED@GMECMFKH@c?3?2users?2nhv90?2projects?2eech?2ap@
  00bf1	8b 15 00 00 00
	00		 mov	 edx, DWORD PTR ?overload_invalid_int_type_message@@3PBDB ; overload_invalid_int_type_message
  00bf7	52		 push	 edx
  00bf8	e8 00 00 00 00	 call	 ?process_assert@@YGXPBD0H@Z ; process_assert
  00bfd	c7 85 68 ff ff
	ff 00 00 00 00	 mov	 DWORD PTR tv556[ebp], 0
$LN83@create_cas:
  00c07	f3 0f 5a 45 cc	 cvtss2sd xmm0, DWORD PTR _priority$[ebp]
  00c0c	83 ec 08	 sub	 esp, 8
  00c0f	f2 0f 11 04 24	 movsd	 QWORD PTR [esp], xmm0
  00c14	8b 45 d4	 mov	 eax, DWORD PTR _loop$[ebp]
  00c17	f3 0f 5a 04 85
	00 00 00 00	 cvtss2sd xmm0, DWORD PTR ?target_rating@@3PAMA[eax*4]
  00c20	83 ec 08	 sub	 esp, 8
  00c23	f2 0f 11 04 24	 movsd	 QWORD PTR [esp], xmm0
  00c28	6a 03		 push	 3
  00c2a	8b 4d f4	 mov	 ecx, DWORD PTR _group$[ebp]
  00c2d	51		 push	 ecx
  00c2e	6b 95 78 ff ff
	ff 34		 imul	 edx, DWORD PTR tv490[ebp], 52
  00c35	8b 85 74 ff ff
	ff		 mov	 eax, DWORD PTR tv498[ebp]
  00c3b	8b 8c 82 00 00
	00 00		 mov	 ecx, DWORD PTR ?fn_get_local_entity_string@@3PAY0N@P6GPBDPAUENTITY@@W4STRING_TYPES@@@ZA[edx+eax*4]
  00c42	ff d1		 call	 ecx
  00c44	50		 push	 eax
  00c45	8b 95 70 ff ff
	ff		 mov	 edx, DWORD PTR tv508[ebp]
  00c4b	52		 push	 edx
  00c4c	68 dc 00 00 00	 push	 220			; 000000dcH
  00c51	8b 45 e8	 mov	 eax, DWORD PTR _new_task$[ebp]
  00c54	50		 push	 eax
  00c55	69 8d 6c ff ff
	ff 5c 04 00 00	 imul	 ecx, DWORD PTR tv548[ebp], 1116
  00c5f	8b 95 68 ff ff
	ff		 mov	 edx, DWORD PTR tv556[ebp]
  00c65	8b 84 91 00 00
	00 00		 mov	 eax, DWORD PTR ?fn_get_local_entity_int_value@@3PAY0BBH@P6GHPAUENTITY@@W4INT_TYPES@@@ZA[ecx+edx*4]
  00c6c	ff d0		 call	 eax
  00c6e	50		 push	 eax
  00c6f	8b 4d f8	 mov	 ecx, DWORD PTR _this_side$[ebp]
  00c72	8b 14 8d 00 00
	00 00		 mov	 edx, DWORD PTR ?entity_side_short_names@@3PAPBDA[ecx*4]
  00c79	52		 push	 edx
  00c7a	68 00 00 00 00	 push	 OFFSET ??_C@_0EN@NKEMKLGO@?$CITASK?$CJ?5?$CFs?5CAS?5?$CD?$CFd?5?$CI?$CFd?$CJ?5?9?5Target@
  00c7f	e8 00 00 00 00	 call	 ?ai_log@@YAXPBDZZ	; ai_log
  00c84	83 c4 24	 add	 esp, 36			; 00000024H
$LN24@create_cas:

; 1000 : 										entity_side_short_names [this_side],
; 1001 : 										get_local_entity_int_value (new_task, INT_TYPE_TASK_ID),
; 1002 : 										get_local_entity_safe_index (new_task),
; 1003 : 										get_local_entity_string (group, STRING_TYPE_FULL_NAME),
; 1004 : 										target_rating [loop], priority);
; 1005 : 							}
; 1006 : 						}
; 1007 : 					}
; 1008 : 				}
; 1009 : 			}

  00c87	e9 d0 fc ff ff	 jmp	 $LN8@create_cas
$LN9@create_cas:

; 1010 : 		}
; 1011 : 
; 1012 : 		//
; 1013 : 		// Next force
; 1014 : 		//
; 1015 : 	
; 1016 : 		force = get_local_entity_child_succ (force, LIST_TYPE_FORCE);

  00c8c	83 7d f0 00	 cmp	 DWORD PTR _force$[ebp], 0
  00c90	74 0d		 je	 SHORT $LN84@create_cas
  00c92	8b 45 f0	 mov	 eax, DWORD PTR _force$[ebp]
  00c95	8b 08		 mov	 ecx, DWORD PTR [eax]
  00c97	89 8d 78 ff ff
	ff		 mov	 DWORD PTR tv573[ebp], ecx
  00c9d	eb 27		 jmp	 SHORT $LN85@create_cas
$LN84@create_cas:
  00c9f	8b 15 00 00 00
	00		 mov	 edx, DWORD PTR ?__LINE__Var@?0??create_cas_tasks@@YGXXZ@4JA
  00ca5	81 c2 ca 00 00
	00		 add	 edx, 202		; 000000caH
  00cab	52		 push	 edx
  00cac	68 00 00 00 00	 push	 OFFSET ??_C@_0ED@GMECMFKH@c?3?2users?2nhv90?2projects?2eech?2ap@
  00cb1	a1 00 00 00 00	 mov	 eax, DWORD PTR ?null_entity_pointer_message@@3PBDB ; null_entity_pointer_message
  00cb6	50		 push	 eax
  00cb7	e8 00 00 00 00	 call	 ?process_assert@@YGXPBD0H@Z ; process_assert
  00cbc	c7 85 78 ff ff
	ff 00 00 00 00	 mov	 DWORD PTR tv573[ebp], 0
$LN85@create_cas:
  00cc6	b9 01 00 00 00	 mov	 ecx, 1
  00ccb	85 c9		 test	 ecx, ecx
  00ccd	74 0c		 je	 SHORT $LN86@create_cas
  00ccf	c7 85 74 ff ff
	ff 0e 00 00 00	 mov	 DWORD PTR tv581[ebp], 14 ; 0000000eH
  00cd9	eb 27		 jmp	 SHORT $LN87@create_cas
$LN86@create_cas:
  00cdb	8b 15 00 00 00
	00		 mov	 edx, DWORD PTR ?__LINE__Var@?0??create_cas_tasks@@YGXXZ@4JA
  00ce1	81 c2 ca 00 00
	00		 add	 edx, 202		; 000000caH
  00ce7	52		 push	 edx
  00ce8	68 00 00 00 00	 push	 OFFSET ??_C@_0ED@GMECMFKH@c?3?2users?2nhv90?2projects?2eech?2ap@
  00ced	a1 00 00 00 00	 mov	 eax, DWORD PTR ?overload_invalid_list_type_message@@3PBDB ; overload_invalid_list_type_message
  00cf2	50		 push	 eax
  00cf3	e8 00 00 00 00	 call	 ?process_assert@@YGXPBD0H@Z ; process_assert
  00cf8	c7 85 74 ff ff
	ff 00 00 00 00	 mov	 DWORD PTR tv581[ebp], 0
$LN87@create_cas:
  00d02	6a 0e		 push	 14			; 0000000eH
  00d04	8b 4d f0	 mov	 ecx, DWORD PTR _force$[ebp]
  00d07	51		 push	 ecx
  00d08	69 95 78 ff ff
	ff b4 00 00 00	 imul	 edx, DWORD PTR tv573[ebp], 180
  00d12	8b 85 74 ff ff
	ff		 mov	 eax, DWORD PTR tv581[ebp]
  00d18	8b 8c 82 00 00
	00 00		 mov	 ecx, DWORD PTR ?fn_get_local_entity_child_succ@@3PAY0CN@P6GPAUENTITY@@PAU1@W4LIST_TYPES@@@ZA[edx+eax*4]
  00d1f	ff d1		 call	 ecx
  00d21	89 45 f0	 mov	 DWORD PTR _force$[ebp], eax

; 1017 : 	}

  00d24	e9 c5 f3 ff ff	 jmp	 $LN2@create_cas
$LN3@create_cas:

; 1018 : }

  00d29	5f		 pop	 edi
  00d2a	5e		 pop	 esi
  00d2b	5b		 pop	 ebx
  00d2c	8b e5		 mov	 esp, ebp
  00d2e	5d		 pop	 ebp
  00d2f	c3		 ret	 0
?create_cas_tasks@@YGXXZ ENDP				; create_cas_tasks
_TEXT	ENDS
; Function compile flags: /Odtp /ZI
; File c:\users\nhv90\projects\eech\aphavoc\source\ai\highlevl\highlevl.c
;	COMDAT ?create_bai_tasks@@YGXXZ
_TEXT	SEGMENT
tv915 = -164						; size = 8
tv1003 = -156						; size = 8
tv655 = -152						; size = 4
tv582 = -152						; size = 4
tv907 = -148						; size = 8
tv647 = -148						; size = 4
tv574 = -148						; size = 4
tv639 = -144						; size = 4
tv566 = -144						; size = 4
tv829 = -140						; size = 8
tv680 = -140						; size = 4
tv629 = -140						; size = 4
tv556 = -140						; size = 4
tv479 = -140						; size = 4
tv445 = -140						; size = 4
tv389 = -140						; size = 4
tv369 = -140						; size = 4
tv292 = -140						; size = 4
tv266 = -140						; size = 4
tv247 = -140						; size = 4
tv228 = -140						; size = 4
tv208 = -140						; size = 4
tv187 = -140						; size = 4
tv165 = -140						; size = 4
tv145 = -140						; size = 4
tv86 = -140						; size = 4
tv672 = -136						; size = 4
tv621 = -136						; size = 4
tv548 = -136						; size = 4
tv472 = -136						; size = 4
tv437 = -136						; size = 4
tv381 = -136						; size = 4
tv361 = -136						; size = 4
tv284 = -136						; size = 4
tv259 = -136						; size = 4
tv240 = -136						; size = 4
tv221 = -136						; size = 4
tv200 = -136						; size = 4
tv179 = -136						; size = 4
tv157 = -136						; size = 4
tv137 = -136						; size = 4
tv78 = -136						; size = 4
$T1 = -132						; size = 4
_max_rating$ = -64					; size = 4
_ratio$ = -60						; size = 4
_rating$ = -56						; size = 4
_priority$ = -52					; size = 4
_count$ = -48						; size = 4
_loop$ = -44						; size = 4
_z$ = -40						; size = 4
_x$ = -36						; size = 4
_pos$ = -32						; size = 4
_target_force$ = -28					; size = 4
_new_task$ = -24					; size = 4
_sector$ = -20						; size = 4
_force$ = -16						; size = 4
_group$ = -12						; size = 4
_this_side$ = -8					; size = 4
_side$ = -4						; size = 4
?create_bai_tasks@@YGXXZ PROC				; create_bai_tasks, COMDAT

; 574  : {

  00000	55		 push	 ebp
  00001	8b ec		 mov	 ebp, esp
  00003	81 ec a4 00 00
	00		 sub	 esp, 164		; 000000a4H
  00009	53		 push	 ebx
  0000a	56		 push	 esi
  0000b	57		 push	 edi

; 575  : 	entity_sides
; 576  : 		side,
; 577  : 		this_side;
; 578  : 
; 579  : 	entity
; 580  : 		*group,
; 581  : 		*force,
; 582  : 		*sector,
; 583  : 		*new_task,
; 584  : 		*target_force;
; 585  : 
; 586  : 	vec3d
; 587  : 		*pos;
; 588  : 
; 589  : 	int
; 590  : 		x,
; 591  : 		z,
; 592  : 		loop,
; 593  : 		count;
; 594  : 
; 595  : 	float
; 596  : 		priority,
; 597  : 		rating,
; 598  : 		ratio,
; 599  : 		max_rating;
; 600  : 
; 601  : 	ASSERT (get_comms_model () == COMMS_MODEL_SERVER);

  0000c	83 3d 00 00 00
	00 00		 cmp	 DWORD PTR ?system_comms_model@@3W4COMMS_MODEL_TYPES@@A, 0 ; system_comms_model
  00013	74 18		 je	 SHORT $LN11@create_bai
  00015	a1 00 00 00 00	 mov	 eax, DWORD PTR ?__LINE__Var@?0??create_bai_tasks@@YGXXZ@4JA
  0001a	83 c0 1b	 add	 eax, 27			; 0000001bH
  0001d	50		 push	 eax
  0001e	68 00 00 00 00	 push	 OFFSET ??_C@_0ED@GMECMFKH@c?3?2users?2nhv90?2projects?2eech?2ap@
  00023	68 00 00 00 00	 push	 OFFSET ??_C@_0CJ@DMBLBJBK@get_comms_model?5?$CI?$CJ?5?$DN?$DN?5COMMS_MOD@
  00028	e8 00 00 00 00	 call	 ?process_assert@@YGXPBD0H@Z ; process_assert
$LN11@create_bai:

; 602  : 
; 603  : 	ai_log ("================");

  0002d	68 00 00 00 00	 push	 OFFSET ??_C@_0BB@NAOGIAIJ@?$DN?$DN?$DN?$DN?$DN?$DN?$DN?$DN?$DN?$DN?$DN?$DN?$DN?$DN?$DN?$DN@
  00032	e8 00 00 00 00	 call	 ?ai_log@@YAXPBDZZ	; ai_log
  00037	83 c4 04	 add	 esp, 4

; 604  : 	ai_log ("CREATE BAI TASKS");

  0003a	68 00 00 00 00	 push	 OFFSET ??_C@_0BB@NJDEMLPF@CREATE?5BAI?5TASKS@
  0003f	e8 00 00 00 00	 call	 ?ai_log@@YAXPBDZZ	; ai_log
  00044	83 c4 04	 add	 esp, 4

; 605  : 	ai_log ("----------------");

  00047	68 00 00 00 00	 push	 OFFSET ??_C@_0BB@OAGJBGHP@?9?9?9?9?9?9?9?9?9?9?9?9?9?9?9?9@
  0004c	e8 00 00 00 00	 call	 ?ai_log@@YAXPBDZZ	; ai_log
  00051	83 c4 04	 add	 esp, 4

; 606  : 
; 607  : 	force = get_local_entity_first_child (get_session_entity (), LIST_TYPE_FORCE);

  00054	83 3d 00 00 00
	00 00		 cmp	 DWORD PTR ?session_entity@@3PAUENTITY@@A, 0 ; session_entity
  0005b	74 0f		 je	 SHORT $LN29@create_bai
  0005d	a1 00 00 00 00	 mov	 eax, DWORD PTR ?session_entity@@3PAUENTITY@@A ; session_entity
  00062	8b 08		 mov	 ecx, DWORD PTR [eax]
  00064	89 8d 78 ff ff
	ff		 mov	 DWORD PTR tv78[ebp], ecx
  0006a	eb 24		 jmp	 SHORT $LN30@create_bai
$LN29@create_bai:
  0006c	8b 15 00 00 00
	00		 mov	 edx, DWORD PTR ?__LINE__Var@?0??create_bai_tasks@@YGXXZ@4JA
  00072	83 c2 21	 add	 edx, 33			; 00000021H
  00075	52		 push	 edx
  00076	68 00 00 00 00	 push	 OFFSET ??_C@_0ED@GMECMFKH@c?3?2users?2nhv90?2projects?2eech?2ap@
  0007b	a1 00 00 00 00	 mov	 eax, DWORD PTR ?null_entity_pointer_message@@3PBDB ; null_entity_pointer_message
  00080	50		 push	 eax
  00081	e8 00 00 00 00	 call	 ?process_assert@@YGXPBD0H@Z ; process_assert
  00086	c7 85 78 ff ff
	ff 00 00 00 00	 mov	 DWORD PTR tv78[ebp], 0
$LN30@create_bai:
  00090	b9 01 00 00 00	 mov	 ecx, 1
  00095	85 c9		 test	 ecx, ecx
  00097	74 0c		 je	 SHORT $LN31@create_bai
  00099	c7 85 74 ff ff
	ff 0e 00 00 00	 mov	 DWORD PTR tv86[ebp], 14	; 0000000eH
  000a3	eb 24		 jmp	 SHORT $LN32@create_bai
$LN31@create_bai:
  000a5	8b 15 00 00 00
	00		 mov	 edx, DWORD PTR ?__LINE__Var@?0??create_bai_tasks@@YGXXZ@4JA
  000ab	83 c2 21	 add	 edx, 33			; 00000021H
  000ae	52		 push	 edx
  000af	68 00 00 00 00	 push	 OFFSET ??_C@_0ED@GMECMFKH@c?3?2users?2nhv90?2projects?2eech?2ap@
  000b4	a1 00 00 00 00	 mov	 eax, DWORD PTR ?overload_invalid_list_type_message@@3PBDB ; overload_invalid_list_type_message
  000b9	50		 push	 eax
  000ba	e8 00 00 00 00	 call	 ?process_assert@@YGXPBD0H@Z ; process_assert
  000bf	c7 85 74 ff ff
	ff 00 00 00 00	 mov	 DWORD PTR tv86[ebp], 0
$LN32@create_bai:
  000c9	6a 0e		 push	 14			; 0000000eH
  000cb	8b 0d 00 00 00
	00		 mov	 ecx, DWORD PTR ?session_entity@@3PAUENTITY@@A ; session_entity
  000d1	51		 push	 ecx
  000d2	69 95 78 ff ff
	ff b4 00 00 00	 imul	 edx, DWORD PTR tv78[ebp], 180
  000dc	8b 85 74 ff ff
	ff		 mov	 eax, DWORD PTR tv86[ebp]
  000e2	8b 8c 82 00 00
	00 00		 mov	 ecx, DWORD PTR ?fn_get_local_entity_first_child@@3PAY0CN@P6GPAUENTITY@@PAU1@W4LIST_TYPES@@@ZA[edx+eax*4]
  000e9	ff d1		 call	 ecx
  000eb	89 45 f0	 mov	 DWORD PTR _force$[ebp], eax
$LN2@create_bai:

; 608  : 
; 609  : 	while (force)

  000ee	83 7d f0 00	 cmp	 DWORD PTR _force$[ebp], 0
  000f2	0f 84 fd 0e 00
	00		 je	 $LN3@create_bai

; 610  : 	{
; 611  : 		//
; 612  : 		// for each force ( excluding our own ) spin through the list of frontline groups and select viable targets
; 613  : 		//
; 614  : 	
; 615  : 		memset (target_list, 0, sizeof (entity *) * MAX_HIGHLEVEL_TARGET_CHECKS);

  000f8	68 80 02 00 00	 push	 640			; 00000280H
  000fd	6a 00		 push	 0
  000ff	68 00 00 00 00	 push	 OFFSET ?target_list@@3PAPAUENTITY@@A
  00104	e8 00 00 00 00	 call	 _memset
  00109	83 c4 0c	 add	 esp, 12			; 0000000cH

; 616  : 
; 617  : 		memset (target_rating, 0, sizeof (float) * MAX_HIGHLEVEL_TARGET_CHECKS);

  0010c	68 80 02 00 00	 push	 640			; 00000280H
  00111	6a 00		 push	 0
  00113	68 00 00 00 00	 push	 OFFSET ?target_rating@@3PAMA
  00118	e8 00 00 00 00	 call	 _memset
  0011d	83 c4 0c	 add	 esp, 12			; 0000000cH

; 618  : 
; 619  : 		count = 0;

  00120	c7 45 d0 00 00
	00 00		 mov	 DWORD PTR _count$[ebp], 0

; 620  : 
; 621  : 		this_side = (entity_sides) get_local_entity_int_value (force, INT_TYPE_SIDE);

  00127	83 7d f0 00	 cmp	 DWORD PTR _force$[ebp], 0
  0012b	74 0d		 je	 SHORT $LN33@create_bai
  0012d	8b 45 f0	 mov	 eax, DWORD PTR _force$[ebp]
  00130	8b 08		 mov	 ecx, DWORD PTR [eax]
  00132	89 8d 78 ff ff
	ff		 mov	 DWORD PTR tv137[ebp], ecx
  00138	eb 24		 jmp	 SHORT $LN34@create_bai
$LN33@create_bai:
  0013a	8b 15 00 00 00
	00		 mov	 edx, DWORD PTR ?__LINE__Var@?0??create_bai_tasks@@YGXXZ@4JA
  00140	83 c2 2f	 add	 edx, 47			; 0000002fH
  00143	52		 push	 edx
  00144	68 00 00 00 00	 push	 OFFSET ??_C@_0ED@GMECMFKH@c?3?2users?2nhv90?2projects?2eech?2ap@
  00149	a1 00 00 00 00	 mov	 eax, DWORD PTR ?null_entity_pointer_message@@3PBDB ; null_entity_pointer_message
  0014e	50		 push	 eax
  0014f	e8 00 00 00 00	 call	 ?process_assert@@YGXPBD0H@Z ; process_assert
  00154	c7 85 78 ff ff
	ff 00 00 00 00	 mov	 DWORD PTR tv137[ebp], 0
$LN34@create_bai:
  0015e	b9 01 00 00 00	 mov	 ecx, 1
  00163	85 c9		 test	 ecx, ecx
  00165	74 0c		 je	 SHORT $LN35@create_bai
  00167	c7 85 74 ff ff
	ff bb 00 00 00	 mov	 DWORD PTR tv145[ebp], 187 ; 000000bbH
  00171	eb 24		 jmp	 SHORT $LN36@create_bai
$LN35@create_bai:
  00173	8b 15 00 00 00
	00		 mov	 edx, DWORD PTR ?__LINE__Var@?0??create_bai_tasks@@YGXXZ@4JA
  00179	83 c2 2f	 add	 edx, 47			; 0000002fH
  0017c	52		 push	 edx
  0017d	68 00 00 00 00	 push	 OFFSET ??_C@_0ED@GMECMFKH@c?3?2users?2nhv90?2projects?2eech?2ap@
  00182	a1 00 00 00 00	 mov	 eax, DWORD PTR ?overload_invalid_int_type_message@@3PBDB ; overload_invalid_int_type_message
  00187	50		 push	 eax
  00188	e8 00 00 00 00	 call	 ?process_assert@@YGXPBD0H@Z ; process_assert
  0018d	c7 85 74 ff ff
	ff 00 00 00 00	 mov	 DWORD PTR tv145[ebp], 0
$LN36@create_bai:
  00197	68 bb 00 00 00	 push	 187			; 000000bbH
  0019c	8b 4d f0	 mov	 ecx, DWORD PTR _force$[ebp]
  0019f	51		 push	 ecx
  001a0	69 95 78 ff ff
	ff 5c 04 00 00	 imul	 edx, DWORD PTR tv137[ebp], 1116
  001aa	8b 85 74 ff ff
	ff		 mov	 eax, DWORD PTR tv145[ebp]
  001b0	8b 8c 82 00 00
	00 00		 mov	 ecx, DWORD PTR ?fn_get_local_entity_int_value@@3PAY0BBH@P6GHPAUENTITY@@W4INT_TYPES@@@ZA[edx+eax*4]
  001b7	ff d1		 call	 ecx
  001b9	89 45 f8	 mov	 DWORD PTR _this_side$[ebp], eax

; 622  : 	
; 623  : 		target_force = get_local_entity_first_child (get_session_entity(), LIST_TYPE_FORCE);

  001bc	83 3d 00 00 00
	00 00		 cmp	 DWORD PTR ?session_entity@@3PAUENTITY@@A, 0 ; session_entity
  001c3	74 0f		 je	 SHORT $LN37@create_bai
  001c5	a1 00 00 00 00	 mov	 eax, DWORD PTR ?session_entity@@3PAUENTITY@@A ; session_entity
  001ca	8b 08		 mov	 ecx, DWORD PTR [eax]
  001cc	89 8d 78 ff ff
	ff		 mov	 DWORD PTR tv157[ebp], ecx
  001d2	eb 24		 jmp	 SHORT $LN38@create_bai
$LN37@create_bai:
  001d4	8b 15 00 00 00
	00		 mov	 edx, DWORD PTR ?__LINE__Var@?0??create_bai_tasks@@YGXXZ@4JA
  001da	83 c2 31	 add	 edx, 49			; 00000031H
  001dd	52		 push	 edx
  001de	68 00 00 00 00	 push	 OFFSET ??_C@_0ED@GMECMFKH@c?3?2users?2nhv90?2projects?2eech?2ap@
  001e3	a1 00 00 00 00	 mov	 eax, DWORD PTR ?null_entity_pointer_message@@3PBDB ; null_entity_pointer_message
  001e8	50		 push	 eax
  001e9	e8 00 00 00 00	 call	 ?process_assert@@YGXPBD0H@Z ; process_assert
  001ee	c7 85 78 ff ff
	ff 00 00 00 00	 mov	 DWORD PTR tv157[ebp], 0
$LN38@create_bai:
  001f8	b9 01 00 00 00	 mov	 ecx, 1
  001fd	85 c9		 test	 ecx, ecx
  001ff	74 0c		 je	 SHORT $LN39@create_bai
  00201	c7 85 74 ff ff
	ff 0e 00 00 00	 mov	 DWORD PTR tv165[ebp], 14 ; 0000000eH
  0020b	eb 24		 jmp	 SHORT $LN40@create_bai
$LN39@create_bai:
  0020d	8b 15 00 00 00
	00		 mov	 edx, DWORD PTR ?__LINE__Var@?0??create_bai_tasks@@YGXXZ@4JA
  00213	83 c2 31	 add	 edx, 49			; 00000031H
  00216	52		 push	 edx
  00217	68 00 00 00 00	 push	 OFFSET ??_C@_0ED@GMECMFKH@c?3?2users?2nhv90?2projects?2eech?2ap@
  0021c	a1 00 00 00 00	 mov	 eax, DWORD PTR ?overload_invalid_list_type_message@@3PBDB ; overload_invalid_list_type_message
  00221	50		 push	 eax
  00222	e8 00 00 00 00	 call	 ?process_assert@@YGXPBD0H@Z ; process_assert
  00227	c7 85 74 ff ff
	ff 00 00 00 00	 mov	 DWORD PTR tv165[ebp], 0
$LN40@create_bai:
  00231	6a 0e		 push	 14			; 0000000eH
  00233	8b 0d 00 00 00
	00		 mov	 ecx, DWORD PTR ?session_entity@@3PAUENTITY@@A ; session_entity
  00239	51		 push	 ecx
  0023a	69 95 78 ff ff
	ff b4 00 00 00	 imul	 edx, DWORD PTR tv157[ebp], 180
  00244	8b 85 74 ff ff
	ff		 mov	 eax, DWORD PTR tv165[ebp]
  0024a	8b 8c 82 00 00
	00 00		 mov	 ecx, DWORD PTR ?fn_get_local_entity_first_child@@3PAY0CN@P6GPAUENTITY@@PAU1@W4LIST_TYPES@@@ZA[edx+eax*4]
  00251	ff d1		 call	 ecx
  00253	89 45 e4	 mov	 DWORD PTR _target_force$[ebp], eax
$LN4@create_bai:

; 624  : 	
; 625  : 		while ((target_force) && (count < MAX_HIGHLEVEL_TARGET_CHECKS))

  00256	83 7d e4 00	 cmp	 DWORD PTR _target_force$[ebp], 0
  0025a	0f 84 6f 06 00
	00		 je	 $LN5@create_bai
  00260	81 7d d0 a0 00
	00 00		 cmp	 DWORD PTR _count$[ebp], 160 ; 000000a0H
  00267	0f 8d 62 06 00
	00		 jge	 $LN5@create_bai

; 626  : 		{
; 627  : 			side = (entity_sides) get_local_entity_int_value (target_force, INT_TYPE_SIDE);

  0026d	83 7d e4 00	 cmp	 DWORD PTR _target_force$[ebp], 0
  00271	74 0d		 je	 SHORT $LN41@create_bai
  00273	8b 45 e4	 mov	 eax, DWORD PTR _target_force$[ebp]
  00276	8b 08		 mov	 ecx, DWORD PTR [eax]
  00278	89 8d 78 ff ff
	ff		 mov	 DWORD PTR tv179[ebp], ecx
  0027e	eb 24		 jmp	 SHORT $LN42@create_bai
$LN41@create_bai:
  00280	8b 15 00 00 00
	00		 mov	 edx, DWORD PTR ?__LINE__Var@?0??create_bai_tasks@@YGXXZ@4JA
  00286	83 c2 35	 add	 edx, 53			; 00000035H
  00289	52		 push	 edx
  0028a	68 00 00 00 00	 push	 OFFSET ??_C@_0ED@GMECMFKH@c?3?2users?2nhv90?2projects?2eech?2ap@
  0028f	a1 00 00 00 00	 mov	 eax, DWORD PTR ?null_entity_pointer_message@@3PBDB ; null_entity_pointer_message
  00294	50		 push	 eax
  00295	e8 00 00 00 00	 call	 ?process_assert@@YGXPBD0H@Z ; process_assert
  0029a	c7 85 78 ff ff
	ff 00 00 00 00	 mov	 DWORD PTR tv179[ebp], 0
$LN42@create_bai:
  002a4	b9 01 00 00 00	 mov	 ecx, 1
  002a9	85 c9		 test	 ecx, ecx
  002ab	74 0c		 je	 SHORT $LN43@create_bai
  002ad	c7 85 74 ff ff
	ff bb 00 00 00	 mov	 DWORD PTR tv187[ebp], 187 ; 000000bbH
  002b7	eb 24		 jmp	 SHORT $LN44@create_bai
$LN43@create_bai:
  002b9	8b 15 00 00 00
	00		 mov	 edx, DWORD PTR ?__LINE__Var@?0??create_bai_tasks@@YGXXZ@4JA
  002bf	83 c2 35	 add	 edx, 53			; 00000035H
  002c2	52		 push	 edx
  002c3	68 00 00 00 00	 push	 OFFSET ??_C@_0ED@GMECMFKH@c?3?2users?2nhv90?2projects?2eech?2ap@
  002c8	a1 00 00 00 00	 mov	 eax, DWORD PTR ?overload_invalid_int_type_message@@3PBDB ; overload_invalid_int_type_message
  002cd	50		 push	 eax
  002ce	e8 00 00 00 00	 call	 ?process_assert@@YGXPBD0H@Z ; process_assert
  002d3	c7 85 74 ff ff
	ff 00 00 00 00	 mov	 DWORD PTR tv187[ebp], 0
$LN44@create_bai:
  002dd	68 bb 00 00 00	 push	 187			; 000000bbH
  002e2	8b 4d e4	 mov	 ecx, DWORD PTR _target_force$[ebp]
  002e5	51		 push	 ecx
  002e6	69 95 78 ff ff
	ff 5c 04 00 00	 imul	 edx, DWORD PTR tv179[ebp], 1116
  002f0	8b 85 74 ff ff
	ff		 mov	 eax, DWORD PTR tv187[ebp]
  002f6	8b 8c 82 00 00
	00 00		 mov	 ecx, DWORD PTR ?fn_get_local_entity_int_value@@3PAY0BBH@P6GHPAUENTITY@@W4INT_TYPES@@@ZA[edx+eax*4]
  002fd	ff d1		 call	 ecx
  002ff	89 45 fc	 mov	 DWORD PTR _side$[ebp], eax

; 628  : 	
; 629  : 			if (side != this_side)

  00302	8b 45 fc	 mov	 eax, DWORD PTR _side$[ebp]
  00305	3b 45 f8	 cmp	 eax, DWORD PTR _this_side$[ebp]
  00308	0f 84 24 05 00
	00		 je	 $LN7@create_bai

; 630  : 			{
; 631  : 				group = get_local_entity_first_child (target_force, LIST_TYPE_GROUND_REGISTRY);

  0030e	83 7d e4 00	 cmp	 DWORD PTR _target_force$[ebp], 0
  00312	74 0d		 je	 SHORT $LN45@create_bai
  00314	8b 45 e4	 mov	 eax, DWORD PTR _target_force$[ebp]
  00317	8b 08		 mov	 ecx, DWORD PTR [eax]
  00319	89 8d 78 ff ff
	ff		 mov	 DWORD PTR tv200[ebp], ecx
  0031f	eb 24		 jmp	 SHORT $LN46@create_bai
$LN45@create_bai:
  00321	8b 15 00 00 00
	00		 mov	 edx, DWORD PTR ?__LINE__Var@?0??create_bai_tasks@@YGXXZ@4JA
  00327	83 c2 39	 add	 edx, 57			; 00000039H
  0032a	52		 push	 edx
  0032b	68 00 00 00 00	 push	 OFFSET ??_C@_0ED@GMECMFKH@c?3?2users?2nhv90?2projects?2eech?2ap@
  00330	a1 00 00 00 00	 mov	 eax, DWORD PTR ?null_entity_pointer_message@@3PBDB ; null_entity_pointer_message
  00335	50		 push	 eax
  00336	e8 00 00 00 00	 call	 ?process_assert@@YGXPBD0H@Z ; process_assert
  0033b	c7 85 78 ff ff
	ff 00 00 00 00	 mov	 DWORD PTR tv200[ebp], 0
$LN46@create_bai:
  00345	b9 01 00 00 00	 mov	 ecx, 1
  0034a	85 c9		 test	 ecx, ecx
  0034c	74 0c		 je	 SHORT $LN47@create_bai
  0034e	c7 85 74 ff ff
	ff 0f 00 00 00	 mov	 DWORD PTR tv208[ebp], 15 ; 0000000fH
  00358	eb 24		 jmp	 SHORT $LN48@create_bai
$LN47@create_bai:
  0035a	8b 15 00 00 00
	00		 mov	 edx, DWORD PTR ?__LINE__Var@?0??create_bai_tasks@@YGXXZ@4JA
  00360	83 c2 39	 add	 edx, 57			; 00000039H
  00363	52		 push	 edx
  00364	68 00 00 00 00	 push	 OFFSET ??_C@_0ED@GMECMFKH@c?3?2users?2nhv90?2projects?2eech?2ap@
  00369	a1 00 00 00 00	 mov	 eax, DWORD PTR ?overload_invalid_list_type_message@@3PBDB ; overload_invalid_list_type_message
  0036e	50		 push	 eax
  0036f	e8 00 00 00 00	 call	 ?process_assert@@YGXPBD0H@Z ; process_assert
  00374	c7 85 74 ff ff
	ff 00 00 00 00	 mov	 DWORD PTR tv208[ebp], 0
$LN48@create_bai:
  0037e	6a 0f		 push	 15			; 0000000fH
  00380	8b 4d e4	 mov	 ecx, DWORD PTR _target_force$[ebp]
  00383	51		 push	 ecx
  00384	69 95 78 ff ff
	ff b4 00 00 00	 imul	 edx, DWORD PTR tv200[ebp], 180
  0038e	8b 85 74 ff ff
	ff		 mov	 eax, DWORD PTR tv208[ebp]
  00394	8b 8c 82 00 00
	00 00		 mov	 ecx, DWORD PTR ?fn_get_local_entity_first_child@@3PAY0CN@P6GPAUENTITY@@PAU1@W4LIST_TYPES@@@ZA[edx+eax*4]
  0039b	ff d1		 call	 ecx
  0039d	89 45 f4	 mov	 DWORD PTR _group$[ebp], eax
$LN6@create_bai:

; 632  : 
; 633  : 				while ((group) && (count < MAX_HIGHLEVEL_TARGET_CHECKS))

  003a0	83 7d f4 00	 cmp	 DWORD PTR _group$[ebp], 0
  003a4	0f 84 88 04 00
	00		 je	 $LN7@create_bai
  003aa	81 7d d0 a0 00
	00 00		 cmp	 DWORD PTR _count$[ebp], 160 ; 000000a0H
  003b1	0f 8d 7b 04 00
	00		 jge	 $LN7@create_bai

; 634  : 				{
; 635  : 					if (get_local_entity_int_value (group, INT_TYPE_FRONTLINE) > 1)

  003b7	83 7d f4 00	 cmp	 DWORD PTR _group$[ebp], 0
  003bb	74 0d		 je	 SHORT $LN49@create_bai
  003bd	8b 45 f4	 mov	 eax, DWORD PTR _group$[ebp]
  003c0	8b 08		 mov	 ecx, DWORD PTR [eax]
  003c2	89 8d 78 ff ff
	ff		 mov	 DWORD PTR tv221[ebp], ecx
  003c8	eb 20		 jmp	 SHORT $LN50@create_bai
$LN49@create_bai:
  003ca	68 7b 02 00 00	 push	 635			; 0000027bH
  003cf	68 00 00 00 00	 push	 OFFSET ??_C@_0ED@GMECMFKH@c?3?2users?2nhv90?2projects?2eech?2ap@
  003d4	8b 15 00 00 00
	00		 mov	 edx, DWORD PTR ?null_entity_pointer_message@@3PBDB ; null_entity_pointer_message
  003da	52		 push	 edx
  003db	e8 00 00 00 00	 call	 ?process_assert@@YGXPBD0H@Z ; process_assert
  003e0	c7 85 78 ff ff
	ff 00 00 00 00	 mov	 DWORD PTR tv221[ebp], 0
$LN50@create_bai:
  003ea	b8 01 00 00 00	 mov	 eax, 1
  003ef	85 c0		 test	 eax, eax
  003f1	74 0c		 je	 SHORT $LN51@create_bai
  003f3	c7 85 74 ff ff
	ff 41 00 00 00	 mov	 DWORD PTR tv228[ebp], 65 ; 00000041H
  003fd	eb 20		 jmp	 SHORT $LN52@create_bai
$LN51@create_bai:
  003ff	68 7b 02 00 00	 push	 635			; 0000027bH
  00404	68 00 00 00 00	 push	 OFFSET ??_C@_0ED@GMECMFKH@c?3?2users?2nhv90?2projects?2eech?2ap@
  00409	8b 0d 00 00 00
	00		 mov	 ecx, DWORD PTR ?overload_invalid_int_type_message@@3PBDB ; overload_invalid_int_type_message
  0040f	51		 push	 ecx
  00410	e8 00 00 00 00	 call	 ?process_assert@@YGXPBD0H@Z ; process_assert
  00415	c7 85 74 ff ff
	ff 00 00 00 00	 mov	 DWORD PTR tv228[ebp], 0
$LN52@create_bai:
  0041f	6a 41		 push	 65			; 00000041H
  00421	8b 55 f4	 mov	 edx, DWORD PTR _group$[ebp]
  00424	52		 push	 edx
  00425	69 85 78 ff ff
	ff 5c 04 00 00	 imul	 eax, DWORD PTR tv221[ebp], 1116
  0042f	8b 8d 74 ff ff
	ff		 mov	 ecx, DWORD PTR tv228[ebp]
  00435	8b 94 88 00 00
	00 00		 mov	 edx, DWORD PTR ?fn_get_local_entity_int_value@@3PAY0BBH@P6GHPAUENTITY@@W4INT_TYPES@@@ZA[eax+ecx*4]
  0043c	ff d2		 call	 edx
  0043e	83 f8 01	 cmp	 eax, 1
  00441	0f 8e 4e 03 00
	00		 jle	 $LN17@create_bai

; 636  : 					{
; 637  : 						if (get_local_entity_int_value (group, INT_TYPE_ALIVE))

  00447	83 7d f4 00	 cmp	 DWORD PTR _group$[ebp], 0
  0044b	74 0d		 je	 SHORT $LN53@create_bai
  0044d	8b 45 f4	 mov	 eax, DWORD PTR _group$[ebp]
  00450	8b 08		 mov	 ecx, DWORD PTR [eax]
  00452	89 8d 78 ff ff
	ff		 mov	 DWORD PTR tv240[ebp], ecx
  00458	eb 20		 jmp	 SHORT $LN54@create_bai
$LN53@create_bai:
  0045a	68 7d 02 00 00	 push	 637			; 0000027dH
  0045f	68 00 00 00 00	 push	 OFFSET ??_C@_0ED@GMECMFKH@c?3?2users?2nhv90?2projects?2eech?2ap@
  00464	8b 15 00 00 00
	00		 mov	 edx, DWORD PTR ?null_entity_pointer_message@@3PBDB ; null_entity_pointer_message
  0046a	52		 push	 edx
  0046b	e8 00 00 00 00	 call	 ?process_assert@@YGXPBD0H@Z ; process_assert
  00470	c7 85 78 ff ff
	ff 00 00 00 00	 mov	 DWORD PTR tv240[ebp], 0
$LN54@create_bai:
  0047a	b8 01 00 00 00	 mov	 eax, 1
  0047f	85 c0		 test	 eax, eax
  00481	74 0c		 je	 SHORT $LN55@create_bai
  00483	c7 85 74 ff ff
	ff 07 00 00 00	 mov	 DWORD PTR tv247[ebp], 7
  0048d	eb 20		 jmp	 SHORT $LN56@create_bai
$LN55@create_bai:
  0048f	68 7d 02 00 00	 push	 637			; 0000027dH
  00494	68 00 00 00 00	 push	 OFFSET ??_C@_0ED@GMECMFKH@c?3?2users?2nhv90?2projects?2eech?2ap@
  00499	8b 0d 00 00 00
	00		 mov	 ecx, DWORD PTR ?overload_invalid_int_type_message@@3PBDB ; overload_invalid_int_type_message
  0049f	51		 push	 ecx
  004a0	e8 00 00 00 00	 call	 ?process_assert@@YGXPBD0H@Z ; process_assert
  004a5	c7 85 74 ff ff
	ff 00 00 00 00	 mov	 DWORD PTR tv247[ebp], 0
$LN56@create_bai:
  004af	6a 07		 push	 7
  004b1	8b 55 f4	 mov	 edx, DWORD PTR _group$[ebp]
  004b4	52		 push	 edx
  004b5	69 85 78 ff ff
	ff 5c 04 00 00	 imul	 eax, DWORD PTR tv240[ebp], 1116
  004bf	8b 8d 74 ff ff
	ff		 mov	 ecx, DWORD PTR tv247[ebp]
  004c5	8b 94 88 00 00
	00 00		 mov	 edx, DWORD PTR ?fn_get_local_entity_int_value@@3PAY0BBH@P6GHPAUENTITY@@W4INT_TYPES@@@ZA[eax+ecx*4]
  004cc	ff d2		 call	 edx
  004ce	85 c0		 test	 eax, eax
  004d0	0f 84 bf 02 00
	00		 je	 $LN17@create_bai

; 638  : 						{
; 639  : 							if (get_local_entity_int_value (group, INT_TYPE_GROUP_LIST_TYPE) != LIST_TYPE_KEYSITE_GROUP)

  004d6	83 7d f4 00	 cmp	 DWORD PTR _group$[ebp], 0
  004da	74 0d		 je	 SHORT $LN57@create_bai
  004dc	8b 45 f4	 mov	 eax, DWORD PTR _group$[ebp]
  004df	8b 08		 mov	 ecx, DWORD PTR [eax]
  004e1	89 8d 78 ff ff
	ff		 mov	 DWORD PTR tv259[ebp], ecx
  004e7	eb 20		 jmp	 SHORT $LN58@create_bai
$LN57@create_bai:
  004e9	68 7f 02 00 00	 push	 639			; 0000027fH
  004ee	68 00 00 00 00	 push	 OFFSET ??_C@_0ED@GMECMFKH@c?3?2users?2nhv90?2projects?2eech?2ap@
  004f3	8b 15 00 00 00
	00		 mov	 edx, DWORD PTR ?null_entity_pointer_message@@3PBDB ; null_entity_pointer_message
  004f9	52		 push	 edx
  004fa	e8 00 00 00 00	 call	 ?process_assert@@YGXPBD0H@Z ; process_assert
  004ff	c7 85 78 ff ff
	ff 00 00 00 00	 mov	 DWORD PTR tv259[ebp], 0
$LN58@create_bai:
  00509	b8 01 00 00 00	 mov	 eax, 1
  0050e	85 c0		 test	 eax, eax
  00510	74 0c		 je	 SHORT $LN59@create_bai
  00512	c7 85 74 ff ff
	ff 49 00 00 00	 mov	 DWORD PTR tv266[ebp], 73 ; 00000049H
  0051c	eb 20		 jmp	 SHORT $LN60@create_bai
$LN59@create_bai:
  0051e	68 7f 02 00 00	 push	 639			; 0000027fH
  00523	68 00 00 00 00	 push	 OFFSET ??_C@_0ED@GMECMFKH@c?3?2users?2nhv90?2projects?2eech?2ap@
  00528	8b 0d 00 00 00
	00		 mov	 ecx, DWORD PTR ?overload_invalid_int_type_message@@3PBDB ; overload_invalid_int_type_message
  0052e	51		 push	 ecx
  0052f	e8 00 00 00 00	 call	 ?process_assert@@YGXPBD0H@Z ; process_assert
  00534	c7 85 74 ff ff
	ff 00 00 00 00	 mov	 DWORD PTR tv266[ebp], 0
$LN60@create_bai:
  0053e	6a 49		 push	 73			; 00000049H
  00540	8b 55 f4	 mov	 edx, DWORD PTR _group$[ebp]
  00543	52		 push	 edx
  00544	69 85 78 ff ff
	ff 5c 04 00 00	 imul	 eax, DWORD PTR tv259[ebp], 1116
  0054e	8b 8d 74 ff ff
	ff		 mov	 ecx, DWORD PTR tv266[ebp]
  00554	8b 94 88 00 00
	00 00		 mov	 edx, DWORD PTR ?fn_get_local_entity_int_value@@3PAY0BBH@P6GHPAUENTITY@@W4INT_TYPES@@@ZA[eax+ecx*4]
  0055b	ff d2		 call	 edx
  0055d	83 f8 16	 cmp	 eax, 22			; 00000016H
  00560	0f 84 2f 02 00
	00		 je	 $LN17@create_bai

; 640  : 							{
; 641  : 								ASSERT (count < MAX_HIGHLEVEL_TARGET_CHECKS);

  00566	81 7d d0 a0 00
	00 00		 cmp	 DWORD PTR _count$[ebp], 160 ; 000000a0H
  0056d	7c 18		 jl	 SHORT $LN16@create_bai
  0056f	a1 00 00 00 00	 mov	 eax, DWORD PTR ?__LINE__Var@?0??create_bai_tasks@@YGXXZ@4JA
  00574	83 c0 43	 add	 eax, 67			; 00000043H
  00577	50		 push	 eax
  00578	68 00 00 00 00	 push	 OFFSET ??_C@_0ED@GMECMFKH@c?3?2users?2nhv90?2projects?2eech?2ap@
  0057d	68 00 00 00 00	 push	 OFFSET ??_C@_0CE@FGAKBBGH@count?5?$DM?5MAX_HIGHLEVEL_TARGET_CH@
  00582	e8 00 00 00 00	 call	 ?process_assert@@YGXPBD0H@Z ; process_assert
$LN16@create_bai:

; 642  : 	
; 643  : 								//
; 644  : 								// get sector
; 645  : 								//
; 646  : 	
; 647  : 								pos = get_local_entity_vec3d_ptr (group, VEC3D_TYPE_POSITION);

  00587	83 7d f4 00	 cmp	 DWORD PTR _group$[ebp], 0
  0058b	74 0d		 je	 SHORT $LN61@create_bai
  0058d	8b 45 f4	 mov	 eax, DWORD PTR _group$[ebp]
  00590	8b 08		 mov	 ecx, DWORD PTR [eax]
  00592	89 8d 78 ff ff
	ff		 mov	 DWORD PTR tv284[ebp], ecx
  00598	eb 24		 jmp	 SHORT $LN62@create_bai
$LN61@create_bai:
  0059a	8b 15 00 00 00
	00		 mov	 edx, DWORD PTR ?__LINE__Var@?0??create_bai_tasks@@YGXXZ@4JA
  005a0	83 c2 49	 add	 edx, 73			; 00000049H
  005a3	52		 push	 edx
  005a4	68 00 00 00 00	 push	 OFFSET ??_C@_0ED@GMECMFKH@c?3?2users?2nhv90?2projects?2eech?2ap@
  005a9	a1 00 00 00 00	 mov	 eax, DWORD PTR ?null_entity_pointer_message@@3PBDB ; null_entity_pointer_message
  005ae	50		 push	 eax
  005af	e8 00 00 00 00	 call	 ?process_assert@@YGXPBD0H@Z ; process_assert
  005b4	c7 85 78 ff ff
	ff 00 00 00 00	 mov	 DWORD PTR tv284[ebp], 0
$LN62@create_bai:
  005be	b9 01 00 00 00	 mov	 ecx, 1
  005c3	85 c9		 test	 ecx, ecx
  005c5	74 0c		 je	 SHORT $LN63@create_bai
  005c7	c7 85 74 ff ff
	ff 08 00 00 00	 mov	 DWORD PTR tv292[ebp], 8
  005d1	eb 24		 jmp	 SHORT $LN64@create_bai
$LN63@create_bai:
  005d3	8b 15 00 00 00
	00		 mov	 edx, DWORD PTR ?__LINE__Var@?0??create_bai_tasks@@YGXXZ@4JA
  005d9	83 c2 49	 add	 edx, 73			; 00000049H
  005dc	52		 push	 edx
  005dd	68 00 00 00 00	 push	 OFFSET ??_C@_0ED@GMECMFKH@c?3?2users?2nhv90?2projects?2eech?2ap@
  005e2	a1 00 00 00 00	 mov	 eax, DWORD PTR ?overload_invalid_vec3d_type_message@@3PBDB ; overload_invalid_vec3d_type_message
  005e7	50		 push	 eax
  005e8	e8 00 00 00 00	 call	 ?process_assert@@YGXPBD0H@Z ; process_assert
  005ed	c7 85 74 ff ff
	ff 00 00 00 00	 mov	 DWORD PTR tv292[ebp], 0
$LN64@create_bai:
  005f7	6a 08		 push	 8
  005f9	8b 4d f4	 mov	 ecx, DWORD PTR _group$[ebp]
  005fc	51		 push	 ecx
  005fd	6b 95 78 ff ff
	ff 60		 imul	 edx, DWORD PTR tv284[ebp], 96
  00604	8b 85 74 ff ff
	ff		 mov	 eax, DWORD PTR tv292[ebp]
  0060a	8b 8c 82 00 00
	00 00		 mov	 ecx, DWORD PTR ?fn_get_local_entity_vec3d_ptr@@3PAY0BI@P6GPAUVEC3D@@PAUENTITY@@W4VEC3D_TYPES@@@ZA[edx+eax*4]
  00611	ff d1		 call	 ecx
  00613	89 45 e0	 mov	 DWORD PTR _pos$[ebp], eax

; 648  : 									
; 649  : 								get_x_sector (x, pos->x);

  00616	8d 45 dc	 lea	 eax, DWORD PTR _x$[ebp]
  00619	50		 push	 eax
  0061a	8b 4d e0	 mov	 ecx, DWORD PTR _pos$[ebp]
  0061d	f3 0f 10 01	 movss	 xmm0, DWORD PTR [ecx]
  00621	51		 push	 ecx
  00622	f3 0f 11 04 24	 movss	 DWORD PTR [esp], xmm0
  00627	e8 00 00 00 00	 call	 ?convert_float_to_int@@YGXMPAH@Z ; convert_float_to_int
  0062c	8b 45 dc	 mov	 eax, DWORD PTR _x$[ebp]
  0062f	99		 cdq
  00630	f7 3d 00 00 00
	00		 idiv	 DWORD PTR ?world_map@@3UWORLD_MAP_DATA@@A
  00636	89 45 dc	 mov	 DWORD PTR _x$[ebp], eax

; 650  : 								get_z_sector (z, pos->z);

  00639	8d 45 d8	 lea	 eax, DWORD PTR _z$[ebp]
  0063c	50		 push	 eax
  0063d	8b 4d e0	 mov	 ecx, DWORD PTR _pos$[ebp]
  00640	f3 0f 10 41 08	 movss	 xmm0, DWORD PTR [ecx+8]
  00645	51		 push	 ecx
  00646	f3 0f 11 04 24	 movss	 DWORD PTR [esp], xmm0
  0064b	e8 00 00 00 00	 call	 ?convert_float_to_int@@YGXMPAH@Z ; convert_float_to_int
  00650	8b 45 d8	 mov	 eax, DWORD PTR _z$[ebp]
  00653	99		 cdq
  00654	f7 3d 00 00 00
	00		 idiv	 DWORD PTR ?world_map@@3UWORLD_MAP_DATA@@A
  0065a	89 45 d8	 mov	 DWORD PTR _z$[ebp], eax

; 651  : 	
; 652  : 								//
; 653  : 								// Calculate group rating
; 654  : 								//
; 655  : 	
; 656  : 								importance_rating = get_imap_value (IMAP_IMPORTANCE, side, x, z);

  0065d	8b 45 d8	 mov	 eax, DWORD PTR _z$[ebp]
  00660	50		 push	 eax
  00661	8b 4d dc	 mov	 ecx, DWORD PTR _x$[ebp]
  00664	51		 push	 ecx
  00665	8b 55 fc	 mov	 edx, DWORD PTR _side$[ebp]
  00668	52		 push	 edx
  00669	6a 00		 push	 0
  0066b	e8 00 00 00 00	 call	 ?get_imap_value@@YGMW4IMAP_TYPES@@W4ENTITY_SIDES@@HH@Z ; get_imap_value
  00670	d9 1d 00 00 00
	00		 fstp	 DWORD PTR ?importance_rating@@3MA

; 657  : 	
; 658  : 								air_defence_rating = get_imap_value (IMAP_AIR_DEFENCE, side, x, z);

  00676	8b 45 d8	 mov	 eax, DWORD PTR _z$[ebp]
  00679	50		 push	 eax
  0067a	8b 4d dc	 mov	 ecx, DWORD PTR _x$[ebp]
  0067d	51		 push	 ecx
  0067e	8b 55 fc	 mov	 edx, DWORD PTR _side$[ebp]
  00681	52		 push	 edx
  00682	6a 02		 push	 2
  00684	e8 00 00 00 00	 call	 ?get_imap_value@@YGMW4IMAP_TYPES@@W4ENTITY_SIDES@@HH@Z ; get_imap_value
  00689	d9 1d 00 00 00
	00		 fstp	 DWORD PTR ?air_defence_rating@@3MA

; 659  : 	
; 660  : 								surface_defence_rating = get_imap_value (IMAP_SURFACE_DEFENCE, side, x, z);

  0068f	8b 45 d8	 mov	 eax, DWORD PTR _z$[ebp]
  00692	50		 push	 eax
  00693	8b 4d dc	 mov	 ecx, DWORD PTR _x$[ebp]
  00696	51		 push	 ecx
  00697	8b 55 fc	 mov	 edx, DWORD PTR _side$[ebp]
  0069a	52		 push	 edx
  0069b	6a 03		 push	 3
  0069d	e8 00 00 00 00	 call	 ?get_imap_value@@YGMW4IMAP_TYPES@@W4ENTITY_SIDES@@HH@Z ; get_imap_value
  006a2	d9 1d 00 00 00
	00		 fstp	 DWORD PTR ?surface_defence_rating@@3MA

; 661  : 	
; 662  : 								base_distance_rating = get_imap_value (IMAP_BASE_DISTANCE, this_side, x, z);

  006a8	8b 45 d8	 mov	 eax, DWORD PTR _z$[ebp]
  006ab	50		 push	 eax
  006ac	8b 4d dc	 mov	 ecx, DWORD PTR _x$[ebp]
  006af	51		 push	 ecx
  006b0	8b 55 f8	 mov	 edx, DWORD PTR _this_side$[ebp]
  006b3	52		 push	 edx
  006b4	6a 01		 push	 1
  006b6	e8 00 00 00 00	 call	 ?get_imap_value@@YGMW4IMAP_TYPES@@W4ENTITY_SIDES@@HH@Z ; get_imap_value
  006bb	d9 1d 00 00 00
	00		 fstp	 DWORD PTR ?base_distance_rating@@3MA

; 663  : 	
; 664  : 								rating = 0.0;

  006c1	0f 57 c0	 xorps	 xmm0, xmm0
  006c4	f3 0f 11 45 c8	 movss	 DWORD PTR _rating$[ebp], xmm0

; 665  : 	
; 666  : 								// low enemy importance
; 667  : 	//							rating += (2.0 - importance_rating);
; 668  : 								
; 669  : 								// low enemy S-A threat 
; 670  : 								rating += 2.0 * (1.0 - air_defence_rating);

  006c9	f3 0f 5a 05 00
	00 00 00	 cvtss2sd xmm0, DWORD PTR ?air_defence_rating@@3MA
  006d1	f2 0f 10 0d 00
	00 00 00	 movsd	 xmm1, QWORD PTR __real@3ff0000000000000
  006d9	f2 0f 5c c8	 subsd	 xmm1, xmm0
  006dd	f2 0f 59 0d 00
	00 00 00	 mulsd	 xmm1, QWORD PTR __real@4000000000000000
  006e5	f3 0f 5a 45 c8	 cvtss2sd xmm0, DWORD PTR _rating$[ebp]
  006ea	f2 0f 58 c1	 addsd	 xmm0, xmm1
  006ee	f2 0f 5a c0	 cvtsd2ss xmm0, xmm0
  006f2	f3 0f 11 45 c8	 movss	 DWORD PTR _rating$[ebp], xmm0

; 671  : 	
; 672  : 								// high enemy S-S threat
; 673  : 	//							rating += (surface_defence_rating);
; 674  : 	
; 675  : 								// close to friendly base
; 676  : 								rating += 3.0 * (base_distance_rating);

  006f7	f3 0f 5a 05 00
	00 00 00	 cvtss2sd xmm0, DWORD PTR ?base_distance_rating@@3MA
  006ff	f2 0f 59 05 00
	00 00 00	 mulsd	 xmm0, QWORD PTR __real@4008000000000000
  00707	f3 0f 5a 4d c8	 cvtss2sd xmm1, DWORD PTR _rating$[ebp]
  0070c	f2 0f 58 c8	 addsd	 xmm1, xmm0
  00710	f2 0f 5a c1	 cvtsd2ss xmm0, xmm1
  00714	f3 0f 11 45 c8	 movss	 DWORD PTR _rating$[ebp], xmm0

; 677  : 	
; 678  : 								// friendly territory
; 679  : 								rating += 2.0 * get_local_sector_side_ratio (x, z, this_side);

  00719	8b 45 f8	 mov	 eax, DWORD PTR _this_side$[ebp]
  0071c	50		 push	 eax
  0071d	8b 4d d8	 mov	 ecx, DWORD PTR _z$[ebp]
  00720	51		 push	 ecx
  00721	8b 55 dc	 mov	 edx, DWORD PTR _x$[ebp]
  00724	52		 push	 edx
  00725	e8 00 00 00 00	 call	 ?get_local_sector_side_ratio@@YGMHHW4ENTITY_SIDES@@@Z ; get_local_sector_side_ratio
  0072a	dd 9d 74 ff ff
	ff		 fstp	 QWORD PTR tv829[ebp]
  00730	f2 0f 10 85 74
	ff ff ff	 movsd	 xmm0, QWORD PTR tv829[ebp]
  00738	f2 0f 59 05 00
	00 00 00	 mulsd	 xmm0, QWORD PTR __real@4000000000000000
  00740	f3 0f 5a 4d c8	 cvtss2sd xmm1, DWORD PTR _rating$[ebp]
  00745	f2 0f 58 c8	 addsd	 xmm1, xmm0
  00749	f2 0f 5a c1	 cvtsd2ss xmm0, xmm1
  0074d	f3 0f 11 45 c8	 movss	 DWORD PTR _rating$[ebp], xmm0

; 680  : 	
; 681  : 								max_rating = 7.0;

  00752	f3 0f 10 05 00
	00 00 00	 movss	 xmm0, DWORD PTR __real@40e00000
  0075a	f3 0f 11 45 c0	 movss	 DWORD PTR _max_rating$[ebp], xmm0

; 682  : 	
; 683  : 								#if DEBUG_MODULE
; 684  : 	
; 685  : 								ai_log ("(TASK) %s BAI (%d) Group %s : IMP %.4f - AIR %.4f - SUR %.4f - DIST %.4f (Total %.3f / %.3f)",
; 686  : 												entity_side_short_names [this_side],
; 687  : 												count,
; 688  : 												get_local_entity_string (group, STRING_TYPE_FULL_NAME),
; 689  : 												importance_rating,
; 690  : 												air_defence_rating,
; 691  : 												surface_defence_rating,
; 692  : 												base_distance_rating,
; 693  : 												rating,
; 694  : 												max_rating);
; 695  : 	
; 696  : 								#endif
; 697  : 	
; 698  : 								//
; 699  : 								// Store
; 700  : 								//
; 701  : 	
; 702  : 								if (rating > 0.0)

  0075f	f3 0f 5a 45 c8	 cvtss2sd xmm0, DWORD PTR _rating$[ebp]
  00764	66 0f 2f 05 00
	00 00 00	 comisd	 xmm0, QWORD PTR __real@0000000000000000
  0076c	76 27		 jbe	 SHORT $LN17@create_bai

; 703  : 								{
; 704  : 									target_list [count] = group;

  0076e	8b 45 d0	 mov	 eax, DWORD PTR _count$[ebp]
  00771	8b 4d f4	 mov	 ecx, DWORD PTR _group$[ebp]
  00774	89 0c 85 00 00
	00 00		 mov	 DWORD PTR ?target_list@@3PAPAUENTITY@@A[eax*4], ecx

; 705  : 		
; 706  : 									target_rating [count] = rating;

  0077b	8b 45 d0	 mov	 eax, DWORD PTR _count$[ebp]
  0077e	f3 0f 10 45 c8	 movss	 xmm0, DWORD PTR _rating$[ebp]
  00783	f3 0f 11 04 85
	00 00 00 00	 movss	 DWORD PTR ?target_rating@@3PAMA[eax*4], xmm0

; 707  : 		
; 708  : 									count ++;

  0078c	8b 45 d0	 mov	 eax, DWORD PTR _count$[ebp]
  0078f	83 c0 01	 add	 eax, 1
  00792	89 45 d0	 mov	 DWORD PTR _count$[ebp], eax
$LN17@create_bai:

; 709  : 								}
; 710  : 							}
; 711  : 						}
; 712  : 					}
; 713  : 
; 714  : 					group = get_local_entity_child_succ (group, LIST_TYPE_GROUND_REGISTRY);

  00795	83 7d f4 00	 cmp	 DWORD PTR _group$[ebp], 0
  00799	74 0d		 je	 SHORT $LN65@create_bai
  0079b	8b 45 f4	 mov	 eax, DWORD PTR _group$[ebp]
  0079e	8b 08		 mov	 ecx, DWORD PTR [eax]
  007a0	89 8d 78 ff ff
	ff		 mov	 DWORD PTR tv361[ebp], ecx
  007a6	eb 27		 jmp	 SHORT $LN66@create_bai
$LN65@create_bai:
  007a8	8b 15 00 00 00
	00		 mov	 edx, DWORD PTR ?__LINE__Var@?0??create_bai_tasks@@YGXXZ@4JA
  007ae	81 c2 8c 00 00
	00		 add	 edx, 140		; 0000008cH
  007b4	52		 push	 edx
  007b5	68 00 00 00 00	 push	 OFFSET ??_C@_0ED@GMECMFKH@c?3?2users?2nhv90?2projects?2eech?2ap@
  007ba	a1 00 00 00 00	 mov	 eax, DWORD PTR ?null_entity_pointer_message@@3PBDB ; null_entity_pointer_message
  007bf	50		 push	 eax
  007c0	e8 00 00 00 00	 call	 ?process_assert@@YGXPBD0H@Z ; process_assert
  007c5	c7 85 78 ff ff
	ff 00 00 00 00	 mov	 DWORD PTR tv361[ebp], 0
$LN66@create_bai:
  007cf	b9 01 00 00 00	 mov	 ecx, 1
  007d4	85 c9		 test	 ecx, ecx
  007d6	74 0c		 je	 SHORT $LN67@create_bai
  007d8	c7 85 74 ff ff
	ff 0f 00 00 00	 mov	 DWORD PTR tv369[ebp], 15 ; 0000000fH
  007e2	eb 27		 jmp	 SHORT $LN68@create_bai
$LN67@create_bai:
  007e4	8b 15 00 00 00
	00		 mov	 edx, DWORD PTR ?__LINE__Var@?0??create_bai_tasks@@YGXXZ@4JA
  007ea	81 c2 8c 00 00
	00		 add	 edx, 140		; 0000008cH
  007f0	52		 push	 edx
  007f1	68 00 00 00 00	 push	 OFFSET ??_C@_0ED@GMECMFKH@c?3?2users?2nhv90?2projects?2eech?2ap@
  007f6	a1 00 00 00 00	 mov	 eax, DWORD PTR ?overload_invalid_list_type_message@@3PBDB ; overload_invalid_list_type_message
  007fb	50		 push	 eax
  007fc	e8 00 00 00 00	 call	 ?process_assert@@YGXPBD0H@Z ; process_assert
  00801	c7 85 74 ff ff
	ff 00 00 00 00	 mov	 DWORD PTR tv369[ebp], 0
$LN68@create_bai:
  0080b	6a 0f		 push	 15			; 0000000fH
  0080d	8b 4d f4	 mov	 ecx, DWORD PTR _group$[ebp]
  00810	51		 push	 ecx
  00811	69 95 78 ff ff
	ff b4 00 00 00	 imul	 edx, DWORD PTR tv361[ebp], 180
  0081b	8b 85 74 ff ff
	ff		 mov	 eax, DWORD PTR tv369[ebp]
  00821	8b 8c 82 00 00
	00 00		 mov	 ecx, DWORD PTR ?fn_get_local_entity_child_succ@@3PAY0CN@P6GPAUENTITY@@PAU1@W4LIST_TYPES@@@ZA[edx+eax*4]
  00828	ff d1		 call	 ecx
  0082a	89 45 f4	 mov	 DWORD PTR _group$[ebp], eax

; 715  : 				}

  0082d	e9 6e fb ff ff	 jmp	 $LN6@create_bai
$LN7@create_bai:

; 716  : 			}
; 717  : 
; 718  : 			target_force = get_local_entity_child_succ (target_force, LIST_TYPE_FORCE);

  00832	83 7d e4 00	 cmp	 DWORD PTR _target_force$[ebp], 0
  00836	74 0d		 je	 SHORT $LN69@create_bai
  00838	8b 45 e4	 mov	 eax, DWORD PTR _target_force$[ebp]
  0083b	8b 08		 mov	 ecx, DWORD PTR [eax]
  0083d	89 8d 78 ff ff
	ff		 mov	 DWORD PTR tv381[ebp], ecx
  00843	eb 27		 jmp	 SHORT $LN70@create_bai
$LN69@create_bai:
  00845	8b 15 00 00 00
	00		 mov	 edx, DWORD PTR ?__LINE__Var@?0??create_bai_tasks@@YGXXZ@4JA
  0084b	81 c2 90 00 00
	00		 add	 edx, 144		; 00000090H
  00851	52		 push	 edx
  00852	68 00 00 00 00	 push	 OFFSET ??_C@_0ED@GMECMFKH@c?3?2users?2nhv90?2projects?2eech?2ap@
  00857	a1 00 00 00 00	 mov	 eax, DWORD PTR ?null_entity_pointer_message@@3PBDB ; null_entity_pointer_message
  0085c	50		 push	 eax
  0085d	e8 00 00 00 00	 call	 ?process_assert@@YGXPBD0H@Z ; process_assert
  00862	c7 85 78 ff ff
	ff 00 00 00 00	 mov	 DWORD PTR tv381[ebp], 0
$LN70@create_bai:
  0086c	b9 01 00 00 00	 mov	 ecx, 1
  00871	85 c9		 test	 ecx, ecx
  00873	74 0c		 je	 SHORT $LN71@create_bai
  00875	c7 85 74 ff ff
	ff 0e 00 00 00	 mov	 DWORD PTR tv389[ebp], 14 ; 0000000eH
  0087f	eb 27		 jmp	 SHORT $LN72@create_bai
$LN71@create_bai:
  00881	8b 15 00 00 00
	00		 mov	 edx, DWORD PTR ?__LINE__Var@?0??create_bai_tasks@@YGXXZ@4JA
  00887	81 c2 90 00 00
	00		 add	 edx, 144		; 00000090H
  0088d	52		 push	 edx
  0088e	68 00 00 00 00	 push	 OFFSET ??_C@_0ED@GMECMFKH@c?3?2users?2nhv90?2projects?2eech?2ap@
  00893	a1 00 00 00 00	 mov	 eax, DWORD PTR ?overload_invalid_list_type_message@@3PBDB ; overload_invalid_list_type_message
  00898	50		 push	 eax
  00899	e8 00 00 00 00	 call	 ?process_assert@@YGXPBD0H@Z ; process_assert
  0089e	c7 85 74 ff ff
	ff 00 00 00 00	 mov	 DWORD PTR tv389[ebp], 0
$LN72@create_bai:
  008a8	6a 0e		 push	 14			; 0000000eH
  008aa	8b 4d e4	 mov	 ecx, DWORD PTR _target_force$[ebp]
  008ad	51		 push	 ecx
  008ae	69 95 78 ff ff
	ff b4 00 00 00	 imul	 edx, DWORD PTR tv381[ebp], 180
  008b8	8b 85 74 ff ff
	ff		 mov	 eax, DWORD PTR tv389[ebp]
  008be	8b 8c 82 00 00
	00 00		 mov	 ecx, DWORD PTR ?fn_get_local_entity_child_succ@@3PAY0CN@P6GPAUENTITY@@PAU1@W4LIST_TYPES@@@ZA[edx+eax*4]
  008c5	ff d1		 call	 ecx
  008c7	89 45 e4	 mov	 DWORD PTR _target_force$[ebp], eax

; 719  : 		}

  008ca	e9 87 f9 ff ff	 jmp	 $LN4@create_bai
$LN5@create_bai:

; 720  : 
; 721  : 		//
; 722  : 		// Create BAI tasks
; 723  : 		//
; 724  : 
; 725  : 		if (count > 0)

  008cf	83 7d d0 00	 cmp	 DWORD PTR _count$[ebp], 0
  008d3	0f 8e 7f 06 00
	00		 jle	 $LN9@create_bai

; 726  : 		{
; 727  : 			debug_log ("HIGHLEVL: %s %d candidates for BAI", entity_side_short_names [this_side], count);

  008d9	8b 45 d0	 mov	 eax, DWORD PTR _count$[ebp]
  008dc	50		 push	 eax
  008dd	8b 4d f8	 mov	 ecx, DWORD PTR _this_side$[ebp]
  008e0	8b 14 8d 00 00
	00 00		 mov	 edx, DWORD PTR ?entity_side_short_names@@3PAPBDA[ecx*4]
  008e7	52		 push	 edx
  008e8	68 00 00 00 00	 push	 OFFSET ??_C@_0CD@HDCLOPCE@HIGHLEVL?3?5?$CFs?5?$CFd?5candidates?5for?5@
  008ed	e8 00 00 00 00	 call	 ?debug_log@@YAXPBDZZ	; debug_log
  008f2	83 c4 0c	 add	 esp, 12			; 0000000cH

; 728  : 
; 729  : 			quicksort_entity_list (target_list, count, target_rating);

  008f5	68 00 00 00 00	 push	 OFFSET ?target_rating@@3PAMA
  008fa	8b 45 d0	 mov	 eax, DWORD PTR _count$[ebp]
  008fd	50		 push	 eax
  008fe	68 00 00 00 00	 push	 OFFSET ?target_list@@3PAPAUENTITY@@A
  00903	e8 00 00 00 00	 call	 ?quicksort_entity_list@@YGXPAPAUENTITY@@HPAM@Z ; quicksort_entity_list

; 730  : 
; 731  : 			count = min (count, CREATE_BAI_TASK_COUNT);

  00908	c7 85 7c ff ff
	ff 02 00 00 00	 mov	 DWORD PTR $T1[ebp], 2
  00912	8d 85 7c ff ff
	ff		 lea	 eax, DWORD PTR $T1[ebp]
  00918	50		 push	 eax
  00919	8d 4d d0	 lea	 ecx, DWORD PTR _count$[ebp]
  0091c	51		 push	 ecx
  0091d	e8 00 00 00 00	 call	 ??$min@H@std@@YGABHABH0@Z ; std::min<int>
  00922	8b 10		 mov	 edx, DWORD PTR [eax]
  00924	89 55 d0	 mov	 DWORD PTR _count$[ebp], edx

; 732  : 
; 733  : 			ASSERT (target_rating [0] > 0.0);

  00927	b8 04 00 00 00	 mov	 eax, 4
  0092c	6b c8 00	 imul	 ecx, eax, 0
  0092f	f3 0f 5a 81 00
	00 00 00	 cvtss2sd xmm0, DWORD PTR ?target_rating@@3PAMA[ecx]
  00937	66 0f 2f 05 00
	00 00 00	 comisd	 xmm0, QWORD PTR __real@0000000000000000
  0093f	77 1a		 ja	 SHORT $LN19@create_bai
  00941	a1 00 00 00 00	 mov	 eax, DWORD PTR ?__LINE__Var@?0??create_bai_tasks@@YGXXZ@4JA
  00946	05 9f 00 00 00	 add	 eax, 159		; 0000009fH
  0094b	50		 push	 eax
  0094c	68 00 00 00 00	 push	 OFFSET ??_C@_0ED@GMECMFKH@c?3?2users?2nhv90?2projects?2eech?2ap@
  00951	68 00 00 00 00	 push	 OFFSET ??_C@_0BI@BNNJCIEB@target_rating?5?$FL0?$FN?5?$DO?50?40@
  00956	e8 00 00 00 00	 call	 ?process_assert@@YGXPBD0H@Z ; process_assert
$LN19@create_bai:

; 734  : 
; 735  : 			for (loop = 0; loop < count; loop ++)

  0095b	c7 45 d4 00 00
	00 00		 mov	 DWORD PTR _loop$[ebp], 0
  00962	eb 09		 jmp	 SHORT $LN10@create_bai
$LN8@create_bai:
  00964	8b 45 d4	 mov	 eax, DWORD PTR _loop$[ebp]
  00967	83 c0 01	 add	 eax, 1
  0096a	89 45 d4	 mov	 DWORD PTR _loop$[ebp], eax
$LN10@create_bai:
  0096d	8b 45 d4	 mov	 eax, DWORD PTR _loop$[ebp]
  00970	3b 45 d0	 cmp	 eax, DWORD PTR _count$[ebp]
  00973	0f 8d df 05 00
	00		 jge	 $LN9@create_bai

; 736  : 			{
; 737  : 				ratio = target_rating [loop] / target_rating [0];

  00979	b8 04 00 00 00	 mov	 eax, 4
  0097e	6b c8 00	 imul	 ecx, eax, 0
  00981	8b 55 d4	 mov	 edx, DWORD PTR _loop$[ebp]
  00984	f3 0f 10 04 95
	00 00 00 00	 movss	 xmm0, DWORD PTR ?target_rating@@3PAMA[edx*4]
  0098d	f3 0f 5e 81 00
	00 00 00	 divss	 xmm0, DWORD PTR ?target_rating@@3PAMA[ecx]
  00995	f3 0f 11 45 c4	 movss	 DWORD PTR _ratio$[ebp], xmm0

; 738  : 
; 739  : 				if (ratio >= MIN_TASK_CREATION_RATIO)

  0099a	f3 0f 5a 45 c4	 cvtss2sd xmm0, DWORD PTR _ratio$[ebp]
  0099f	66 0f 2f 05 00
	00 00 00	 comisd	 xmm0, QWORD PTR __real@3fe8000000000000
  009a7	0f 82 a6 05 00
	00		 jb	 $LN27@create_bai

; 740  : 				{
; 741  : 					group = target_list [loop];

  009ad	8b 45 d4	 mov	 eax, DWORD PTR _loop$[ebp]
  009b0	8b 0c 85 00 00
	00 00		 mov	 ecx, DWORD PTR ?target_list@@3PAPAUENTITY@@A[eax*4]
  009b7	89 4d f4	 mov	 DWORD PTR _group$[ebp], ecx

; 742  : 					
; 743  : 					if (!entity_is_object_of_task (group, ENTITY_SUB_TYPE_TASK_BAI, this_side))

  009ba	8b 45 f8	 mov	 eax, DWORD PTR _this_side$[ebp]
  009bd	50		 push	 eax
  009be	6a 03		 push	 3
  009c0	8b 4d f4	 mov	 ecx, DWORD PTR _group$[ebp]
  009c3	51		 push	 ecx
  009c4	e8 00 00 00 00	 call	 ?entity_is_object_of_task@@YGHPAUENTITY@@HW4ENTITY_SIDES@@@Z ; entity_is_object_of_task
  009c9	85 c0		 test	 eax, eax
  009cb	0f 85 82 05 00
	00		 jne	 $LN27@create_bai

; 744  : 					{
; 745  : 						pos = get_local_entity_vec3d_ptr (group, VEC3D_TYPE_POSITION);

  009d1	83 7d f4 00	 cmp	 DWORD PTR _group$[ebp], 0
  009d5	74 0d		 je	 SHORT $LN73@create_bai
  009d7	8b 45 f4	 mov	 eax, DWORD PTR _group$[ebp]
  009da	8b 08		 mov	 ecx, DWORD PTR [eax]
  009dc	89 8d 78 ff ff
	ff		 mov	 DWORD PTR tv437[ebp], ecx
  009e2	eb 27		 jmp	 SHORT $LN74@create_bai
$LN73@create_bai:
  009e4	8b 15 00 00 00
	00		 mov	 edx, DWORD PTR ?__LINE__Var@?0??create_bai_tasks@@YGXXZ@4JA
  009ea	81 c2 ab 00 00
	00		 add	 edx, 171		; 000000abH
  009f0	52		 push	 edx
  009f1	68 00 00 00 00	 push	 OFFSET ??_C@_0ED@GMECMFKH@c?3?2users?2nhv90?2projects?2eech?2ap@
  009f6	a1 00 00 00 00	 mov	 eax, DWORD PTR ?null_entity_pointer_message@@3PBDB ; null_entity_pointer_message
  009fb	50		 push	 eax
  009fc	e8 00 00 00 00	 call	 ?process_assert@@YGXPBD0H@Z ; process_assert
  00a01	c7 85 78 ff ff
	ff 00 00 00 00	 mov	 DWORD PTR tv437[ebp], 0
$LN74@create_bai:
  00a0b	b9 01 00 00 00	 mov	 ecx, 1
  00a10	85 c9		 test	 ecx, ecx
  00a12	74 0c		 je	 SHORT $LN75@create_bai
  00a14	c7 85 74 ff ff
	ff 08 00 00 00	 mov	 DWORD PTR tv445[ebp], 8
  00a1e	eb 27		 jmp	 SHORT $LN76@create_bai
$LN75@create_bai:
  00a20	8b 15 00 00 00
	00		 mov	 edx, DWORD PTR ?__LINE__Var@?0??create_bai_tasks@@YGXXZ@4JA
  00a26	81 c2 ab 00 00
	00		 add	 edx, 171		; 000000abH
  00a2c	52		 push	 edx
  00a2d	68 00 00 00 00	 push	 OFFSET ??_C@_0ED@GMECMFKH@c?3?2users?2nhv90?2projects?2eech?2ap@
  00a32	a1 00 00 00 00	 mov	 eax, DWORD PTR ?overload_invalid_vec3d_type_message@@3PBDB ; overload_invalid_vec3d_type_message
  00a37	50		 push	 eax
  00a38	e8 00 00 00 00	 call	 ?process_assert@@YGXPBD0H@Z ; process_assert
  00a3d	c7 85 74 ff ff
	ff 00 00 00 00	 mov	 DWORD PTR tv445[ebp], 0
$LN76@create_bai:
  00a47	6a 08		 push	 8
  00a49	8b 4d f4	 mov	 ecx, DWORD PTR _group$[ebp]
  00a4c	51		 push	 ecx
  00a4d	6b 95 78 ff ff
	ff 60		 imul	 edx, DWORD PTR tv437[ebp], 96
  00a54	8b 85 74 ff ff
	ff		 mov	 eax, DWORD PTR tv445[ebp]
  00a5a	8b 8c 82 00 00
	00 00		 mov	 ecx, DWORD PTR ?fn_get_local_entity_vec3d_ptr@@3PAY0BI@P6GPAUVEC3D@@PAUENTITY@@W4VEC3D_TYPES@@@ZA[edx+eax*4]
  00a61	ff d1		 call	 ecx
  00a63	89 45 e0	 mov	 DWORD PTR _pos$[ebp], eax

; 746  : 									
; 747  : 						sector = get_local_sector_entity (pos);

  00a66	8b 45 e0	 mov	 eax, DWORD PTR _pos$[ebp]
  00a69	50		 push	 eax
  00a6a	e8 00 00 00 00	 call	 ?get_local_sector_entity@@YGPAUENTITY@@PAUVEC3D@@@Z ; get_local_sector_entity
  00a6f	89 45 ec	 mov	 DWORD PTR _sector$[ebp], eax

; 748  : 	
; 749  : 						ASSERT (sector);

  00a72	83 7d ec 00	 cmp	 DWORD PTR _sector$[ebp], 0
  00a76	75 1a		 jne	 SHORT $LN22@create_bai
  00a78	a1 00 00 00 00	 mov	 eax, DWORD PTR ?__LINE__Var@?0??create_bai_tasks@@YGXXZ@4JA
  00a7d	05 af 00 00 00	 add	 eax, 175		; 000000afH
  00a82	50		 push	 eax
  00a83	68 00 00 00 00	 push	 OFFSET ??_C@_0ED@GMECMFKH@c?3?2users?2nhv90?2projects?2eech?2ap@
  00a88	68 00 00 00 00	 push	 OFFSET ??_C@_06IDGHNJOB@sector@
  00a8d	e8 00 00 00 00	 call	 ?process_assert@@YGXPBD0H@Z ; process_assert
$LN22@create_bai:

; 750  : 					
; 751  : 						// sector task count
; 752  : 						if (get_sector_task_type_count (sector, ENTITY_SUB_TYPE_TASK_BAI, this_side) < MAX_SECTOR_BAI_TASK_COUNT)

  00a92	8b 45 f8	 mov	 eax, DWORD PTR _this_side$[ebp]
  00a95	50		 push	 eax
  00a96	6a 03		 push	 3
  00a98	8b 4d ec	 mov	 ecx, DWORD PTR _sector$[ebp]
  00a9b	51		 push	 ecx
  00a9c	e8 00 00 00 00	 call	 ?get_sector_task_type_count@@YGHPAUENTITY@@HW4ENTITY_SIDES@@@Z ; get_sector_task_type_count
  00aa1	83 f8 01	 cmp	 eax, 1
  00aa4	0f 8d a9 04 00
	00		 jge	 $LN27@create_bai

; 753  : 						{
; 754  : 							// fog of war 
; 755  : 							if (get_sector_fog_of_war_value (sector, this_side) > (0.5 * get_local_entity_float_value (get_session_entity (), FLOAT_TYPE_FOG_OF_WAR_MAXIMUM_VALUE)))

  00aaa	83 3d 00 00 00
	00 00		 cmp	 DWORD PTR ?session_entity@@3PAUENTITY@@A, 0 ; session_entity
  00ab1	74 0f		 je	 SHORT $LN77@create_bai
  00ab3	a1 00 00 00 00	 mov	 eax, DWORD PTR ?session_entity@@3PAUENTITY@@A ; session_entity
  00ab8	8b 08		 mov	 ecx, DWORD PTR [eax]
  00aba	89 8d 78 ff ff
	ff		 mov	 DWORD PTR tv472[ebp], ecx
  00ac0	eb 20		 jmp	 SHORT $LN78@create_bai
$LN77@create_bai:
  00ac2	68 f3 02 00 00	 push	 755			; 000002f3H
  00ac7	68 00 00 00 00	 push	 OFFSET ??_C@_0ED@GMECMFKH@c?3?2users?2nhv90?2projects?2eech?2ap@
  00acc	8b 15 00 00 00
	00		 mov	 edx, DWORD PTR ?null_entity_pointer_message@@3PBDB ; null_entity_pointer_message
  00ad2	52		 push	 edx
  00ad3	e8 00 00 00 00	 call	 ?process_assert@@YGXPBD0H@Z ; process_assert
  00ad8	c7 85 78 ff ff
	ff 00 00 00 00	 mov	 DWORD PTR tv472[ebp], 0
$LN78@create_bai:
  00ae2	b8 01 00 00 00	 mov	 eax, 1
  00ae7	85 c0		 test	 eax, eax
  00ae9	74 0c		 je	 SHORT $LN79@create_bai
  00aeb	c7 85 74 ff ff
	ff 2c 00 00 00	 mov	 DWORD PTR tv479[ebp], 44 ; 0000002cH
  00af5	eb 20		 jmp	 SHORT $LN80@create_bai
$LN79@create_bai:
  00af7	68 f3 02 00 00	 push	 755			; 000002f3H
  00afc	68 00 00 00 00	 push	 OFFSET ??_C@_0ED@GMECMFKH@c?3?2users?2nhv90?2projects?2eech?2ap@
  00b01	8b 0d 00 00 00
	00		 mov	 ecx, DWORD PTR ?overload_invalid_float_type_message@@3PBDB ; overload_invalid_float_type_message
  00b07	51		 push	 ecx
  00b08	e8 00 00 00 00	 call	 ?process_assert@@YGXPBD0H@Z ; process_assert
  00b0d	c7 85 74 ff ff
	ff 00 00 00 00	 mov	 DWORD PTR tv479[ebp], 0
$LN80@create_bai:
  00b17	8b 55 f8	 mov	 edx, DWORD PTR _this_side$[ebp]
  00b1a	52		 push	 edx
  00b1b	8b 45 ec	 mov	 eax, DWORD PTR _sector$[ebp]
  00b1e	50		 push	 eax
  00b1f	e8 00 00 00 00	 call	 ?get_sector_fog_of_war_value@@YGMPAUENTITY@@W4ENTITY_SIDES@@@Z ; get_sector_fog_of_war_value
  00b24	dd 9d 6c ff ff
	ff		 fstp	 QWORD PTR tv907[ebp]
  00b2a	f2 0f 10 85 6c
	ff ff ff	 movsd	 xmm0, QWORD PTR tv907[ebp]
  00b32	6a 2c		 push	 44			; 0000002cH
  00b34	8b 0d 00 00 00
	00		 mov	 ecx, DWORD PTR ?session_entity@@3PAUENTITY@@A ; session_entity
  00b3a	51		 push	 ecx
  00b3b	69 95 78 ff ff
	ff bc 02 00 00	 imul	 edx, DWORD PTR tv472[ebp], 700
  00b45	8b 85 74 ff ff
	ff		 mov	 eax, DWORD PTR tv479[ebp]
  00b4b	8b 8c 82 00 00
	00 00		 mov	 ecx, DWORD PTR ?fn_get_local_entity_float_value@@3PAY0KP@P6GMPAUENTITY@@W4FLOAT_TYPES@@@ZA[edx+eax*4]
  00b52	f2 0f 11 85 64
	ff ff ff	 movsd	 QWORD PTR tv1003[ebp], xmm0
  00b5a	ff d1		 call	 ecx
  00b5c	dd 9d 5c ff ff
	ff		 fstp	 QWORD PTR tv915[ebp]
  00b62	f2 0f 10 85 5c
	ff ff ff	 movsd	 xmm0, QWORD PTR tv915[ebp]
  00b6a	f2 0f 59 05 00
	00 00 00	 mulsd	 xmm0, QWORD PTR __real@3fe0000000000000
  00b72	f2 0f 10 8d 64
	ff ff ff	 movsd	 xmm1, QWORD PTR tv1003[ebp]
  00b7a	66 0f 2f c8	 comisd	 xmm1, xmm0
  00b7e	0f 86 ea 01 00
	00		 jbe	 $LN24@create_bai

; 756  : 							{
; 757  : 								//
; 758  : 								// Create BAI
; 759  : 								//
; 760  : 								
; 761  : 								priority = (target_rating [loop] / max_rating) * task_database [ENTITY_SUB_TYPE_TASK_BAI].task_priority;

  00b84	8b 45 d4	 mov	 eax, DWORD PTR _loop$[ebp]
  00b87	f3 0f 10 04 85
	00 00 00 00	 movss	 xmm0, DWORD PTR ?target_rating@@3PAMA[eax*4]
  00b90	f3 0f 5e 45 c0	 divss	 xmm0, DWORD PTR _max_rating$[ebp]
  00b95	b9 50 00 00 00	 mov	 ecx, 80			; 00000050H
  00b9a	6b d1 03	 imul	 edx, ecx, 3
  00b9d	f3 0f 59 82 10
	00 00 00	 mulss	 xmm0, DWORD PTR ?task_database@@3PAUTASK_DATA@@A[edx+16]
  00ba5	f3 0f 11 45 cc	 movss	 DWORD PTR _priority$[ebp], xmm0

; 762  : 		
; 763  : 								new_task = create_bai_task (this_side, group, NULL, FALSE, priority, NULL, NULL);

  00baa	6a 00		 push	 0
  00bac	6a 00		 push	 0
  00bae	51		 push	 ecx
  00baf	f3 0f 10 45 cc	 movss	 xmm0, DWORD PTR _priority$[ebp]
  00bb4	f3 0f 11 04 24	 movss	 DWORD PTR [esp], xmm0
  00bb9	6a 00		 push	 0
  00bbb	6a 00		 push	 0
  00bbd	8b 45 f4	 mov	 eax, DWORD PTR _group$[ebp]
  00bc0	50		 push	 eax
  00bc1	8b 4d f8	 mov	 ecx, DWORD PTR _this_side$[ebp]
  00bc4	51		 push	 ecx
  00bc5	e8 00 00 00 00	 call	 ?create_bai_task@@YGPAUENTITY@@W4ENTITY_SIDES@@PAU1@1HM11@Z ; create_bai_task
  00bca	89 45 e8	 mov	 DWORD PTR _new_task$[ebp], eax

; 764  : 	
; 765  : 								if (new_task)

  00bcd	83 7d e8 00	 cmp	 DWORD PTR _new_task$[ebp], 0
  00bd1	0f 84 92 01 00
	00		 je	 $LN26@create_bai

; 766  : 								{
; 767  : 									ai_log ("(TASK) %s BAI #%d (%d) - Target Group %s : Rating %f - CREATED (Priority %f)",

  00bd7	83 7d f4 00	 cmp	 DWORD PTR _group$[ebp], 0
  00bdb	74 0d		 je	 SHORT $LN81@create_bai
  00bdd	8b 45 f4	 mov	 eax, DWORD PTR _group$[ebp]
  00be0	8b 08		 mov	 ecx, DWORD PTR [eax]
  00be2	89 8d 78 ff ff
	ff		 mov	 DWORD PTR tv548[ebp], ecx
  00be8	eb 27		 jmp	 SHORT $LN82@create_bai
$LN81@create_bai:
  00bea	8b 15 00 00 00
	00		 mov	 edx, DWORD PTR ?__LINE__Var@?0??create_bai_tasks@@YGXXZ@4JA
  00bf0	81 c2 c5 00 00
	00		 add	 edx, 197		; 000000c5H
  00bf6	52		 push	 edx
  00bf7	68 00 00 00 00	 push	 OFFSET ??_C@_0ED@GMECMFKH@c?3?2users?2nhv90?2projects?2eech?2ap@
  00bfc	a1 00 00 00 00	 mov	 eax, DWORD PTR ?null_entity_pointer_message@@3PBDB ; null_entity_pointer_message
  00c01	50		 push	 eax
  00c02	e8 00 00 00 00	 call	 ?process_assert@@YGXPBD0H@Z ; process_assert
  00c07	c7 85 78 ff ff
	ff 00 00 00 00	 mov	 DWORD PTR tv548[ebp], 0
$LN82@create_bai:
  00c11	b9 01 00 00 00	 mov	 ecx, 1
  00c16	85 c9		 test	 ecx, ecx
  00c18	74 0c		 je	 SHORT $LN83@create_bai
  00c1a	c7 85 74 ff ff
	ff 03 00 00 00	 mov	 DWORD PTR tv556[ebp], 3
  00c24	eb 27		 jmp	 SHORT $LN84@create_bai
$LN83@create_bai:
  00c26	8b 15 00 00 00
	00		 mov	 edx, DWORD PTR ?__LINE__Var@?0??create_bai_tasks@@YGXXZ@4JA
  00c2c	81 c2 c5 00 00
	00		 add	 edx, 197		; 000000c5H
  00c32	52		 push	 edx
  00c33	68 00 00 00 00	 push	 OFFSET ??_C@_0ED@GMECMFKH@c?3?2users?2nhv90?2projects?2eech?2ap@
  00c38	a1 00 00 00 00	 mov	 eax, DWORD PTR ?overload_invalid_string_type_message@@3PBDB ; overload_invalid_string_type_message
  00c3d	50		 push	 eax
  00c3e	e8 00 00 00 00	 call	 ?process_assert@@YGXPBD0H@Z ; process_assert
  00c43	c7 85 74 ff ff
	ff 00 00 00 00	 mov	 DWORD PTR tv556[ebp], 0
$LN84@create_bai:
  00c4d	83 7d e8 00	 cmp	 DWORD PTR _new_task$[ebp], 0
  00c51	74 14		 je	 SHORT $LN85@create_bai
  00c53	8b 4d e8	 mov	 ecx, DWORD PTR _new_task$[ebp]
  00c56	2b 0d 00 00 00
	00		 sub	 ecx, DWORD PTR ?entities@@3PAUENTITY@@A ; entities
  00c5c	c1 f9 04	 sar	 ecx, 4
  00c5f	89 8d 70 ff ff
	ff		 mov	 DWORD PTR tv566[ebp], ecx
  00c65	eb 0a		 jmp	 SHORT $LN86@create_bai
$LN85@create_bai:
  00c67	c7 85 70 ff ff
	ff ff ff ff ff	 mov	 DWORD PTR tv566[ebp], -1
$LN86@create_bai:
  00c71	83 7d e8 00	 cmp	 DWORD PTR _new_task$[ebp], 0
  00c75	74 0d		 je	 SHORT $LN87@create_bai
  00c77	8b 55 e8	 mov	 edx, DWORD PTR _new_task$[ebp]
  00c7a	8b 02		 mov	 eax, DWORD PTR [edx]
  00c7c	89 85 6c ff ff
	ff		 mov	 DWORD PTR tv574[ebp], eax
  00c82	eb 28		 jmp	 SHORT $LN88@create_bai
$LN87@create_bai:
  00c84	8b 0d 00 00 00
	00		 mov	 ecx, DWORD PTR ?__LINE__Var@?0??create_bai_tasks@@YGXXZ@4JA
  00c8a	81 c1 c3 00 00
	00		 add	 ecx, 195		; 000000c3H
  00c90	51		 push	 ecx
  00c91	68 00 00 00 00	 push	 OFFSET ??_C@_0ED@GMECMFKH@c?3?2users?2nhv90?2projects?2eech?2ap@
  00c96	8b 15 00 00 00
	00		 mov	 edx, DWORD PTR ?null_entity_pointer_message@@3PBDB ; null_entity_pointer_message
  00c9c	52		 push	 edx
  00c9d	e8 00 00 00 00	 call	 ?process_assert@@YGXPBD0H@Z ; process_assert
  00ca2	c7 85 6c ff ff
	ff 00 00 00 00	 mov	 DWORD PTR tv574[ebp], 0
$LN88@create_bai:
  00cac	b8 01 00 00 00	 mov	 eax, 1
  00cb1	85 c0		 test	 eax, eax
  00cb3	74 0c		 je	 SHORT $LN89@create_bai
  00cb5	c7 85 68 ff ff
	ff dc 00 00 00	 mov	 DWORD PTR tv582[ebp], 220 ; 000000dcH
  00cbf	eb 28		 jmp	 SHORT $LN90@create_bai
$LN89@create_bai:
  00cc1	8b 0d 00 00 00
	00		 mov	 ecx, DWORD PTR ?__LINE__Var@?0??create_bai_tasks@@YGXXZ@4JA
  00cc7	81 c1 c3 00 00
	00		 add	 ecx, 195		; 000000c3H
  00ccd	51		 push	 ecx
  00cce	68 00 00 00 00	 push	 OFFSET ??_C@_0ED@GMECMFKH@c?3?2users?2nhv90?2projects?2eech?2ap@
  00cd3	8b 15 00 00 00
	00		 mov	 edx, DWORD PTR ?overload_invalid_int_type_message@@3PBDB ; overload_invalid_int_type_message
  00cd9	52		 push	 edx
  00cda	e8 00 00 00 00	 call	 ?process_assert@@YGXPBD0H@Z ; process_assert
  00cdf	c7 85 68 ff ff
	ff 00 00 00 00	 mov	 DWORD PTR tv582[ebp], 0
$LN90@create_bai:
  00ce9	f3 0f 5a 45 cc	 cvtss2sd xmm0, DWORD PTR _priority$[ebp]
  00cee	83 ec 08	 sub	 esp, 8
  00cf1	f2 0f 11 04 24	 movsd	 QWORD PTR [esp], xmm0
  00cf6	8b 45 d4	 mov	 eax, DWORD PTR _loop$[ebp]
  00cf9	f3 0f 5a 04 85
	00 00 00 00	 cvtss2sd xmm0, DWORD PTR ?target_rating@@3PAMA[eax*4]
  00d02	83 ec 08	 sub	 esp, 8
  00d05	f2 0f 11 04 24	 movsd	 QWORD PTR [esp], xmm0
  00d0a	6a 03		 push	 3
  00d0c	8b 4d f4	 mov	 ecx, DWORD PTR _group$[ebp]
  00d0f	51		 push	 ecx
  00d10	6b 95 78 ff ff
	ff 34		 imul	 edx, DWORD PTR tv548[ebp], 52
  00d17	8b 85 74 ff ff
	ff		 mov	 eax, DWORD PTR tv556[ebp]
  00d1d	8b 8c 82 00 00
	00 00		 mov	 ecx, DWORD PTR ?fn_get_local_entity_string@@3PAY0N@P6GPBDPAUENTITY@@W4STRING_TYPES@@@ZA[edx+eax*4]
  00d24	ff d1		 call	 ecx
  00d26	50		 push	 eax
  00d27	8b 95 70 ff ff
	ff		 mov	 edx, DWORD PTR tv566[ebp]
  00d2d	52		 push	 edx
  00d2e	68 dc 00 00 00	 push	 220			; 000000dcH
  00d33	8b 45 e8	 mov	 eax, DWORD PTR _new_task$[ebp]
  00d36	50		 push	 eax
  00d37	69 8d 6c ff ff
	ff 5c 04 00 00	 imul	 ecx, DWORD PTR tv574[ebp], 1116
  00d41	8b 95 68 ff ff
	ff		 mov	 edx, DWORD PTR tv582[ebp]
  00d47	8b 84 91 00 00
	00 00		 mov	 eax, DWORD PTR ?fn_get_local_entity_int_value@@3PAY0BBH@P6GHPAUENTITY@@W4INT_TYPES@@@ZA[ecx+edx*4]
  00d4e	ff d0		 call	 eax
  00d50	50		 push	 eax
  00d51	8b 4d f8	 mov	 ecx, DWORD PTR _this_side$[ebp]
  00d54	8b 14 8d 00 00
	00 00		 mov	 edx, DWORD PTR ?entity_side_short_names@@3PAPBDA[ecx*4]
  00d5b	52		 push	 edx
  00d5c	68 00 00 00 00	 push	 OFFSET ??_C@_0EN@DCEEGNCA@?$CITASK?$CJ?5?$CFs?5BAI?5?$CD?$CFd?5?$CI?$CFd?$CJ?5?9?5Target@
  00d61	e8 00 00 00 00	 call	 ?ai_log@@YAXPBDZZ	; ai_log
  00d66	83 c4 24	 add	 esp, 36			; 00000024H
$LN26@create_bai:

; 768  : 											entity_side_short_names [this_side],
; 769  : 											get_local_entity_int_value (new_task, INT_TYPE_TASK_ID),
; 770  : 											get_local_entity_safe_index (new_task),
; 771  : 											get_local_entity_string (group, STRING_TYPE_FULL_NAME),
; 772  : 											target_rating [loop], priority);
; 773  : 								}
; 774  : 							}
; 775  : 							else

  00d69	e9 e5 01 00 00	 jmp	 $LN27@create_bai
$LN24@create_bai:

; 776  : 							{
; 777  : 								//
; 778  : 								// Create RECON
; 779  : 								//
; 780  : 								
; 781  : 								priority = (target_rating [loop] / max_rating) * task_database [ENTITY_SUB_TYPE_TASK_BAI].task_priority;

  00d6e	8b 45 d4	 mov	 eax, DWORD PTR _loop$[ebp]
  00d71	f3 0f 10 04 85
	00 00 00 00	 movss	 xmm0, DWORD PTR ?target_rating@@3PAMA[eax*4]
  00d7a	f3 0f 5e 45 c0	 divss	 xmm0, DWORD PTR _max_rating$[ebp]
  00d7f	b9 50 00 00 00	 mov	 ecx, 80			; 00000050H
  00d84	6b d1 03	 imul	 edx, ecx, 3
  00d87	f3 0f 59 82 10
	00 00 00	 mulss	 xmm0, DWORD PTR ?task_database@@3PAUTASK_DATA@@A[edx+16]
  00d8f	f3 0f 11 45 cc	 movss	 DWORD PTR _priority$[ebp], xmm0

; 782  : 		
; 783  : 								new_task = create_recon_task (this_side, group, NULL, TRUE, priority, NULL, NULL);

  00d94	6a 00		 push	 0
  00d96	6a 00		 push	 0
  00d98	51		 push	 ecx
  00d99	f3 0f 10 45 cc	 movss	 xmm0, DWORD PTR _priority$[ebp]
  00d9e	f3 0f 11 04 24	 movss	 DWORD PTR [esp], xmm0
  00da3	6a 01		 push	 1
  00da5	6a 00		 push	 0
  00da7	8b 45 f4	 mov	 eax, DWORD PTR _group$[ebp]
  00daa	50		 push	 eax
  00dab	8b 4d f8	 mov	 ecx, DWORD PTR _this_side$[ebp]
  00dae	51		 push	 ecx
  00daf	e8 00 00 00 00	 call	 ?create_recon_task@@YGPAUENTITY@@W4ENTITY_SIDES@@PAU1@1HM11@Z ; create_recon_task
  00db4	89 45 e8	 mov	 DWORD PTR _new_task$[ebp], eax

; 784  : 	
; 785  : 								if (new_task)

  00db7	83 7d e8 00	 cmp	 DWORD PTR _new_task$[ebp], 0
  00dbb	0f 84 92 01 00
	00		 je	 $LN27@create_bai

; 786  : 								{
; 787  : 									ai_log ("(TASK) %s BAI RECON #%d (%d) - Target Group %s : Rating %f - CREATED (Priority %f)",

  00dc1	83 7d f4 00	 cmp	 DWORD PTR _group$[ebp], 0
  00dc5	74 0d		 je	 SHORT $LN91@create_bai
  00dc7	8b 45 f4	 mov	 eax, DWORD PTR _group$[ebp]
  00dca	8b 08		 mov	 ecx, DWORD PTR [eax]
  00dcc	89 8d 78 ff ff
	ff		 mov	 DWORD PTR tv621[ebp], ecx
  00dd2	eb 27		 jmp	 SHORT $LN92@create_bai
$LN91@create_bai:
  00dd4	8b 15 00 00 00
	00		 mov	 edx, DWORD PTR ?__LINE__Var@?0??create_bai_tasks@@YGXXZ@4JA
  00dda	81 c2 d9 00 00
	00		 add	 edx, 217		; 000000d9H
  00de0	52		 push	 edx
  00de1	68 00 00 00 00	 push	 OFFSET ??_C@_0ED@GMECMFKH@c?3?2users?2nhv90?2projects?2eech?2ap@
  00de6	a1 00 00 00 00	 mov	 eax, DWORD PTR ?null_entity_pointer_message@@3PBDB ; null_entity_pointer_message
  00deb	50		 push	 eax
  00dec	e8 00 00 00 00	 call	 ?process_assert@@YGXPBD0H@Z ; process_assert
  00df1	c7 85 78 ff ff
	ff 00 00 00 00	 mov	 DWORD PTR tv621[ebp], 0
$LN92@create_bai:
  00dfb	b9 01 00 00 00	 mov	 ecx, 1
  00e00	85 c9		 test	 ecx, ecx
  00e02	74 0c		 je	 SHORT $LN93@create_bai
  00e04	c7 85 74 ff ff
	ff 03 00 00 00	 mov	 DWORD PTR tv629[ebp], 3
  00e0e	eb 27		 jmp	 SHORT $LN94@create_bai
$LN93@create_bai:
  00e10	8b 15 00 00 00
	00		 mov	 edx, DWORD PTR ?__LINE__Var@?0??create_bai_tasks@@YGXXZ@4JA
  00e16	81 c2 d9 00 00
	00		 add	 edx, 217		; 000000d9H
  00e1c	52		 push	 edx
  00e1d	68 00 00 00 00	 push	 OFFSET ??_C@_0ED@GMECMFKH@c?3?2users?2nhv90?2projects?2eech?2ap@
  00e22	a1 00 00 00 00	 mov	 eax, DWORD PTR ?overload_invalid_string_type_message@@3PBDB ; overload_invalid_string_type_message
  00e27	50		 push	 eax
  00e28	e8 00 00 00 00	 call	 ?process_assert@@YGXPBD0H@Z ; process_assert
  00e2d	c7 85 74 ff ff
	ff 00 00 00 00	 mov	 DWORD PTR tv629[ebp], 0
$LN94@create_bai:
  00e37	83 7d e8 00	 cmp	 DWORD PTR _new_task$[ebp], 0
  00e3b	74 14		 je	 SHORT $LN95@create_bai
  00e3d	8b 4d e8	 mov	 ecx, DWORD PTR _new_task$[ebp]
  00e40	2b 0d 00 00 00
	00		 sub	 ecx, DWORD PTR ?entities@@3PAUENTITY@@A ; entities
  00e46	c1 f9 04	 sar	 ecx, 4
  00e49	89 8d 70 ff ff
	ff		 mov	 DWORD PTR tv639[ebp], ecx
  00e4f	eb 0a		 jmp	 SHORT $LN96@create_bai
$LN95@create_bai:
  00e51	c7 85 70 ff ff
	ff ff ff ff ff	 mov	 DWORD PTR tv639[ebp], -1
$LN96@create_bai:
  00e5b	83 7d e8 00	 cmp	 DWORD PTR _new_task$[ebp], 0
  00e5f	74 0d		 je	 SHORT $LN97@create_bai
  00e61	8b 55 e8	 mov	 edx, DWORD PTR _new_task$[ebp]
  00e64	8b 02		 mov	 eax, DWORD PTR [edx]
  00e66	89 85 6c ff ff
	ff		 mov	 DWORD PTR tv647[ebp], eax
  00e6c	eb 28		 jmp	 SHORT $LN98@create_bai
$LN97@create_bai:
  00e6e	8b 0d 00 00 00
	00		 mov	 ecx, DWORD PTR ?__LINE__Var@?0??create_bai_tasks@@YGXXZ@4JA
  00e74	81 c1 d7 00 00
	00		 add	 ecx, 215		; 000000d7H
  00e7a	51		 push	 ecx
  00e7b	68 00 00 00 00	 push	 OFFSET ??_C@_0ED@GMECMFKH@c?3?2users?2nhv90?2projects?2eech?2ap@
  00e80	8b 15 00 00 00
	00		 mov	 edx, DWORD PTR ?null_entity_pointer_message@@3PBDB ; null_entity_pointer_message
  00e86	52		 push	 edx
  00e87	e8 00 00 00 00	 call	 ?process_assert@@YGXPBD0H@Z ; process_assert
  00e8c	c7 85 6c ff ff
	ff 00 00 00 00	 mov	 DWORD PTR tv647[ebp], 0
$LN98@create_bai:
  00e96	b8 01 00 00 00	 mov	 eax, 1
  00e9b	85 c0		 test	 eax, eax
  00e9d	74 0c		 je	 SHORT $LN99@create_bai
  00e9f	c7 85 68 ff ff
	ff dc 00 00 00	 mov	 DWORD PTR tv655[ebp], 220 ; 000000dcH
  00ea9	eb 28		 jmp	 SHORT $LN100@create_bai
$LN99@create_bai:
  00eab	8b 0d 00 00 00
	00		 mov	 ecx, DWORD PTR ?__LINE__Var@?0??create_bai_tasks@@YGXXZ@4JA
  00eb1	81 c1 d7 00 00
	00		 add	 ecx, 215		; 000000d7H
  00eb7	51		 push	 ecx
  00eb8	68 00 00 00 00	 push	 OFFSET ??_C@_0ED@GMECMFKH@c?3?2users?2nhv90?2projects?2eech?2ap@
  00ebd	8b 15 00 00 00
	00		 mov	 edx, DWORD PTR ?overload_invalid_int_type_message@@3PBDB ; overload_invalid_int_type_message
  00ec3	52		 push	 edx
  00ec4	e8 00 00 00 00	 call	 ?process_assert@@YGXPBD0H@Z ; process_assert
  00ec9	c7 85 68 ff ff
	ff 00 00 00 00	 mov	 DWORD PTR tv655[ebp], 0
$LN100@create_bai:
  00ed3	f3 0f 5a 45 cc	 cvtss2sd xmm0, DWORD PTR _priority$[ebp]
  00ed8	83 ec 08	 sub	 esp, 8
  00edb	f2 0f 11 04 24	 movsd	 QWORD PTR [esp], xmm0
  00ee0	8b 45 d4	 mov	 eax, DWORD PTR _loop$[ebp]
  00ee3	f3 0f 5a 04 85
	00 00 00 00	 cvtss2sd xmm0, DWORD PTR ?target_rating@@3PAMA[eax*4]
  00eec	83 ec 08	 sub	 esp, 8
  00eef	f2 0f 11 04 24	 movsd	 QWORD PTR [esp], xmm0
  00ef4	6a 03		 push	 3
  00ef6	8b 4d f4	 mov	 ecx, DWORD PTR _group$[ebp]
  00ef9	51		 push	 ecx
  00efa	6b 95 78 ff ff
	ff 34		 imul	 edx, DWORD PTR tv621[ebp], 52
  00f01	8b 85 74 ff ff
	ff		 mov	 eax, DWORD PTR tv629[ebp]
  00f07	8b 8c 82 00 00
	00 00		 mov	 ecx, DWORD PTR ?fn_get_local_entity_string@@3PAY0N@P6GPBDPAUENTITY@@W4STRING_TYPES@@@ZA[edx+eax*4]
  00f0e	ff d1		 call	 ecx
  00f10	50		 push	 eax
  00f11	8b 95 70 ff ff
	ff		 mov	 edx, DWORD PTR tv639[ebp]
  00f17	52		 push	 edx
  00f18	68 dc 00 00 00	 push	 220			; 000000dcH
  00f1d	8b 45 e8	 mov	 eax, DWORD PTR _new_task$[ebp]
  00f20	50		 push	 eax
  00f21	69 8d 6c ff ff
	ff 5c 04 00 00	 imul	 ecx, DWORD PTR tv647[ebp], 1116
  00f2b	8b 95 68 ff ff
	ff		 mov	 edx, DWORD PTR tv655[ebp]
  00f31	8b 84 91 00 00
	00 00		 mov	 eax, DWORD PTR ?fn_get_local_entity_int_value@@3PAY0BBH@P6GHPAUENTITY@@W4INT_TYPES@@@ZA[ecx+edx*4]
  00f38	ff d0		 call	 eax
  00f3a	50		 push	 eax
  00f3b	8b 4d f8	 mov	 ecx, DWORD PTR _this_side$[ebp]
  00f3e	8b 14 8d 00 00
	00 00		 mov	 edx, DWORD PTR ?entity_side_short_names@@3PAPBDA[ecx*4]
  00f45	52		 push	 edx
  00f46	68 00 00 00 00	 push	 OFFSET ??_C@_0FD@POECHJC@?$CITASK?$CJ?5?$CFs?5BAI?5RECON?5?$CD?$CFd?5?$CI?$CFd?$CJ?5?9?5@
  00f4b	e8 00 00 00 00	 call	 ?ai_log@@YAXPBDZZ	; ai_log
  00f50	83 c4 24	 add	 esp, 36			; 00000024H
$LN27@create_bai:

; 788  : 											entity_side_short_names [this_side],
; 789  : 											get_local_entity_int_value (new_task, INT_TYPE_TASK_ID),
; 790  : 											get_local_entity_safe_index (new_task),
; 791  : 											get_local_entity_string (group, STRING_TYPE_FULL_NAME),
; 792  : 											target_rating [loop], priority);
; 793  : 								}
; 794  : 							}
; 795  : 						}
; 796  : 					}
; 797  : 				}
; 798  : 			}

  00f53	e9 0c fa ff ff	 jmp	 $LN8@create_bai
$LN9@create_bai:

; 799  : 		}
; 800  : 
; 801  : 		//
; 802  : 		// Next force
; 803  : 		//
; 804  : 	
; 805  : 		force = get_local_entity_child_succ (force, LIST_TYPE_FORCE);

  00f58	83 7d f0 00	 cmp	 DWORD PTR _force$[ebp], 0
  00f5c	74 0d		 je	 SHORT $LN101@create_bai
  00f5e	8b 45 f0	 mov	 eax, DWORD PTR _force$[ebp]
  00f61	8b 08		 mov	 ecx, DWORD PTR [eax]
  00f63	89 8d 78 ff ff
	ff		 mov	 DWORD PTR tv672[ebp], ecx
  00f69	eb 27		 jmp	 SHORT $LN102@create_bai
$LN101@create_bai:
  00f6b	8b 15 00 00 00
	00		 mov	 edx, DWORD PTR ?__LINE__Var@?0??create_bai_tasks@@YGXXZ@4JA
  00f71	81 c2 e7 00 00
	00		 add	 edx, 231		; 000000e7H
  00f77	52		 push	 edx
  00f78	68 00 00 00 00	 push	 OFFSET ??_C@_0ED@GMECMFKH@c?3?2users?2nhv90?2projects?2eech?2ap@
  00f7d	a1 00 00 00 00	 mov	 eax, DWORD PTR ?null_entity_pointer_message@@3PBDB ; null_entity_pointer_message
  00f82	50		 push	 eax
  00f83	e8 00 00 00 00	 call	 ?process_assert@@YGXPBD0H@Z ; process_assert
  00f88	c7 85 78 ff ff
	ff 00 00 00 00	 mov	 DWORD PTR tv672[ebp], 0
$LN102@create_bai:
  00f92	b9 01 00 00 00	 mov	 ecx, 1
  00f97	85 c9		 test	 ecx, ecx
  00f99	74 0c		 je	 SHORT $LN103@create_bai
  00f9b	c7 85 74 ff ff
	ff 0e 00 00 00	 mov	 DWORD PTR tv680[ebp], 14 ; 0000000eH
  00fa5	eb 27		 jmp	 SHORT $LN104@create_bai
$LN103@create_bai:
  00fa7	8b 15 00 00 00
	00		 mov	 edx, DWORD PTR ?__LINE__Var@?0??create_bai_tasks@@YGXXZ@4JA
  00fad	81 c2 e7 00 00
	00		 add	 edx, 231		; 000000e7H
  00fb3	52		 push	 edx
  00fb4	68 00 00 00 00	 push	 OFFSET ??_C@_0ED@GMECMFKH@c?3?2users?2nhv90?2projects?2eech?2ap@
  00fb9	a1 00 00 00 00	 mov	 eax, DWORD PTR ?overload_invalid_list_type_message@@3PBDB ; overload_invalid_list_type_message
  00fbe	50		 push	 eax
  00fbf	e8 00 00 00 00	 call	 ?process_assert@@YGXPBD0H@Z ; process_assert
  00fc4	c7 85 74 ff ff
	ff 00 00 00 00	 mov	 DWORD PTR tv680[ebp], 0
$LN104@create_bai:
  00fce	6a 0e		 push	 14			; 0000000eH
  00fd0	8b 4d f0	 mov	 ecx, DWORD PTR _force$[ebp]
  00fd3	51		 push	 ecx
  00fd4	69 95 78 ff ff
	ff b4 00 00 00	 imul	 edx, DWORD PTR tv672[ebp], 180
  00fde	8b 85 74 ff ff
	ff		 mov	 eax, DWORD PTR tv680[ebp]
  00fe4	8b 8c 82 00 00
	00 00		 mov	 ecx, DWORD PTR ?fn_get_local_entity_child_succ@@3PAY0CN@P6GPAUENTITY@@PAU1@W4LIST_TYPES@@@ZA[edx+eax*4]
  00feb	ff d1		 call	 ecx
  00fed	89 45 f0	 mov	 DWORD PTR _force$[ebp], eax

; 806  : 	}

  00ff0	e9 f9 f0 ff ff	 jmp	 $LN2@create_bai
$LN3@create_bai:

; 807  : }

  00ff5	5f		 pop	 edi
  00ff6	5e		 pop	 esi
  00ff7	5b		 pop	 ebx
  00ff8	8b e5		 mov	 esp, ebp
  00ffa	5d		 pop	 ebp
  00ffb	c3		 ret	 0
?create_bai_tasks@@YGXXZ ENDP				; create_bai_tasks
_TEXT	ENDS
; Function compile flags: /Odtp /ZI
; File c:\users\nhv90\projects\eech\aphavoc\source\ai\highlevl\highlevl.c
;	COMDAT ?create_advance_and_retreat_tasks@@YGXXZ
_TEXT	SEGMENT
tv669 = -144						; size = 8
tv579 = -144						; size = 8
tv589 = -140						; size = 8
tv479 = -140						; size = 4
tv454 = -140						; size = 4
tv293 = -140						; size = 4
tv235 = -140						; size = 4
tv206 = -140						; size = 4
tv187 = -140						; size = 4
tv160 = -140						; size = 4
tv140 = -140						; size = 4
tv81 = -140						; size = 4
tv471 = -136						; size = 4
tv414 = -136						; size = 4
tv386 = -136						; size = 4
tv285 = -136						; size = 4
tv255 = -136						; size = 4
tv227 = -136						; size = 4
tv199 = -136						; size = 4
tv180 = -136						; size = 4
tv152 = -136						; size = 4
tv132 = -136						; size = 4
tv73 = -136						; size = 4
_group$ = -68						; size = 4
_force$ = -64						; size = 4
_group_raw$ = -60					; size = 4
_node_pos$ = -56					; size = 4
_pos$ = -52						; size = 4
_rating$ = -48						; size = 4
_best_rating$ = -44					; size = 4
_best_node$ = -40					; size = 4
_from_node$ = -36					; size = 4
_to_node$ = -32						; size = 4
_z$ = -28						; size = 4
_x$ = -24						; size = 4
_loop$ = -20						; size = 4
_side$ = -16						; size = 4
_count$ = -12						; size = 4
_original_node$ = -8					; size = 4
_node$ = -4						; size = 4
?create_advance_and_retreat_tasks@@YGXXZ PROC		; create_advance_and_retreat_tasks, COMDAT

; 374  : {

  00000	55		 push	 ebp
  00001	8b ec		 mov	 ebp, esp
  00003	81 ec 90 00 00
	00		 sub	 esp, 144		; 00000090H
  00009	53		 push	 ebx
  0000a	56		 push	 esi
  0000b	57		 push	 edi

; 375  : 
; 376  : 	unsigned int
; 377  : 		node;
; 378  : 
; 379  : 	int
; 380  : 		original_node,
; 381  : 		count,
; 382  : 		side,
; 383  : 		loop,
; 384  : 		x,
; 385  : 		z,
; 386  : 		to_node,
; 387  : 		from_node,
; 388  : 		best_node;
; 389  : 
; 390  : 	float
; 391  : 		best_rating,
; 392  : 		rating;
; 393  : 
; 394  : 	vec3d
; 395  : 		*pos,
; 396  : 		*node_pos;
; 397  : 
; 398  : 	group
; 399  : 		*group_raw;
; 400  : 
; 401  : 	entity
; 402  : 		*force,
; 403  : 		*group;
; 404  : 
; 405  : 	ai_log ("================================");

  0000c	68 00 00 00 00	 push	 OFFSET ??_C@_0CB@HHHLKEEB@?$DN?$DN?$DN?$DN?$DN?$DN?$DN?$DN?$DN?$DN?$DN?$DN?$DN?$DN?$DN?$DN?$DN?$DN?$DN?$DN?$DN?$DN?$DN?$DN?$DN?$DN?$DN?$DN?$DN?$DN?$DN@
  00011	e8 00 00 00 00	 call	 ?ai_log@@YAXPBDZZ	; ai_log
  00016	83 c4 04	 add	 esp, 4

; 406  : 	ai_log ("CREATE ADVANCE AND RETREAT TASKS");

  00019	68 00 00 00 00	 push	 OFFSET ??_C@_0CB@LJIJLMNN@CREATE?5ADVANCE?5AND?5RETREAT?5TASK@
  0001e	e8 00 00 00 00	 call	 ?ai_log@@YAXPBDZZ	; ai_log
  00023	83 c4 04	 add	 esp, 4

; 407  : 	ai_log ("--------------------------------");

  00026	68 00 00 00 00	 push	 OFFSET ??_C@_0CB@GNHPAIID@?9?9?9?9?9?9?9?9?9?9?9?9?9?9?9?9?9?9?9?9?9?9?9?9?9?9?9?9?9?9?9@
  0002b	e8 00 00 00 00	 call	 ?ai_log@@YAXPBDZZ	; ai_log
  00030	83 c4 04	 add	 esp, 4

; 408  : 
; 409  : 	force = get_local_entity_first_child (get_session_entity (), LIST_TYPE_FORCE);

  00033	83 3d 00 00 00
	00 00		 cmp	 DWORD PTR ?session_entity@@3PAUENTITY@@A, 0 ; session_entity
  0003a	74 0f		 je	 SHORT $LN24@create_adv
  0003c	a1 00 00 00 00	 mov	 eax, DWORD PTR ?session_entity@@3PAUENTITY@@A ; session_entity
  00041	8b 08		 mov	 ecx, DWORD PTR [eax]
  00043	89 8d 78 ff ff
	ff		 mov	 DWORD PTR tv73[ebp], ecx
  00049	eb 24		 jmp	 SHORT $LN25@create_adv
$LN24@create_adv:
  0004b	8b 15 00 00 00
	00		 mov	 edx, DWORD PTR ?__LINE__Var@?0??create_advance_and_retreat_tasks@@YGXXZ@4JA
  00051	83 c2 23	 add	 edx, 35			; 00000023H
  00054	52		 push	 edx
  00055	68 00 00 00 00	 push	 OFFSET ??_C@_0ED@GMECMFKH@c?3?2users?2nhv90?2projects?2eech?2ap@
  0005a	a1 00 00 00 00	 mov	 eax, DWORD PTR ?null_entity_pointer_message@@3PBDB ; null_entity_pointer_message
  0005f	50		 push	 eax
  00060	e8 00 00 00 00	 call	 ?process_assert@@YGXPBD0H@Z ; process_assert
  00065	c7 85 78 ff ff
	ff 00 00 00 00	 mov	 DWORD PTR tv73[ebp], 0
$LN25@create_adv:
  0006f	b9 01 00 00 00	 mov	 ecx, 1
  00074	85 c9		 test	 ecx, ecx
  00076	74 0c		 je	 SHORT $LN26@create_adv
  00078	c7 85 74 ff ff
	ff 0e 00 00 00	 mov	 DWORD PTR tv81[ebp], 14	; 0000000eH
  00082	eb 24		 jmp	 SHORT $LN27@create_adv
$LN26@create_adv:
  00084	8b 15 00 00 00
	00		 mov	 edx, DWORD PTR ?__LINE__Var@?0??create_advance_and_retreat_tasks@@YGXXZ@4JA
  0008a	83 c2 23	 add	 edx, 35			; 00000023H
  0008d	52		 push	 edx
  0008e	68 00 00 00 00	 push	 OFFSET ??_C@_0ED@GMECMFKH@c?3?2users?2nhv90?2projects?2eech?2ap@
  00093	a1 00 00 00 00	 mov	 eax, DWORD PTR ?overload_invalid_list_type_message@@3PBDB ; overload_invalid_list_type_message
  00098	50		 push	 eax
  00099	e8 00 00 00 00	 call	 ?process_assert@@YGXPBD0H@Z ; process_assert
  0009e	c7 85 74 ff ff
	ff 00 00 00 00	 mov	 DWORD PTR tv81[ebp], 0
$LN27@create_adv:
  000a8	6a 0e		 push	 14			; 0000000eH
  000aa	8b 0d 00 00 00
	00		 mov	 ecx, DWORD PTR ?session_entity@@3PAUENTITY@@A ; session_entity
  000b0	51		 push	 ecx
  000b1	69 95 78 ff ff
	ff b4 00 00 00	 imul	 edx, DWORD PTR tv73[ebp], 180
  000bb	8b 85 74 ff ff
	ff		 mov	 eax, DWORD PTR tv81[ebp]
  000c1	8b 8c 82 00 00
	00 00		 mov	 ecx, DWORD PTR ?fn_get_local_entity_first_child@@3PAY0CN@P6GPAUENTITY@@PAU1@W4LIST_TYPES@@@ZA[edx+eax*4]
  000c8	ff d1		 call	 ecx
  000ca	89 45 c0	 mov	 DWORD PTR _force$[ebp], eax
$LN2@create_adv:

; 410  : 
; 411  : 	while (force)

  000cd	83 7d c0 00	 cmp	 DWORD PTR _force$[ebp], 0
  000d1	0f 84 58 09 00
	00		 je	 $LN3@create_adv

; 412  : 	{
; 413  : 		//
; 414  : 		// for each force spin through the list of frontline groups and select best group
; 415  : 		//
; 416  : 	
; 417  : 		memset (target_list, 0, sizeof (entity *) * MAX_HIGHLEVEL_TARGET_CHECKS);

  000d7	68 80 02 00 00	 push	 640			; 00000280H
  000dc	6a 00		 push	 0
  000de	68 00 00 00 00	 push	 OFFSET ?target_list@@3PAPAUENTITY@@A
  000e3	e8 00 00 00 00	 call	 _memset
  000e8	83 c4 0c	 add	 esp, 12			; 0000000cH

; 418  : 
; 419  : 		memset (target_rating, 0, sizeof (float) * MAX_HIGHLEVEL_TARGET_CHECKS);

  000eb	68 80 02 00 00	 push	 640			; 00000280H
  000f0	6a 00		 push	 0
  000f2	68 00 00 00 00	 push	 OFFSET ?target_rating@@3PAMA
  000f7	e8 00 00 00 00	 call	 _memset
  000fc	83 c4 0c	 add	 esp, 12			; 0000000cH

; 420  : 
; 421  : 		count = 0;

  000ff	c7 45 f4 00 00
	00 00		 mov	 DWORD PTR _count$[ebp], 0

; 422  : 
; 423  : 		side = (entity_sides) get_local_entity_int_value (force, INT_TYPE_SIDE);

  00106	83 7d c0 00	 cmp	 DWORD PTR _force$[ebp], 0
  0010a	74 0d		 je	 SHORT $LN28@create_adv
  0010c	8b 45 c0	 mov	 eax, DWORD PTR _force$[ebp]
  0010f	8b 08		 mov	 ecx, DWORD PTR [eax]
  00111	89 8d 78 ff ff
	ff		 mov	 DWORD PTR tv132[ebp], ecx
  00117	eb 24		 jmp	 SHORT $LN29@create_adv
$LN28@create_adv:
  00119	8b 15 00 00 00
	00		 mov	 edx, DWORD PTR ?__LINE__Var@?0??create_advance_and_retreat_tasks@@YGXXZ@4JA
  0011f	83 c2 31	 add	 edx, 49			; 00000031H
  00122	52		 push	 edx
  00123	68 00 00 00 00	 push	 OFFSET ??_C@_0ED@GMECMFKH@c?3?2users?2nhv90?2projects?2eech?2ap@
  00128	a1 00 00 00 00	 mov	 eax, DWORD PTR ?null_entity_pointer_message@@3PBDB ; null_entity_pointer_message
  0012d	50		 push	 eax
  0012e	e8 00 00 00 00	 call	 ?process_assert@@YGXPBD0H@Z ; process_assert
  00133	c7 85 78 ff ff
	ff 00 00 00 00	 mov	 DWORD PTR tv132[ebp], 0
$LN29@create_adv:
  0013d	b9 01 00 00 00	 mov	 ecx, 1
  00142	85 c9		 test	 ecx, ecx
  00144	74 0c		 je	 SHORT $LN30@create_adv
  00146	c7 85 74 ff ff
	ff bb 00 00 00	 mov	 DWORD PTR tv140[ebp], 187 ; 000000bbH
  00150	eb 24		 jmp	 SHORT $LN31@create_adv
$LN30@create_adv:
  00152	8b 15 00 00 00
	00		 mov	 edx, DWORD PTR ?__LINE__Var@?0??create_advance_and_retreat_tasks@@YGXXZ@4JA
  00158	83 c2 31	 add	 edx, 49			; 00000031H
  0015b	52		 push	 edx
  0015c	68 00 00 00 00	 push	 OFFSET ??_C@_0ED@GMECMFKH@c?3?2users?2nhv90?2projects?2eech?2ap@
  00161	a1 00 00 00 00	 mov	 eax, DWORD PTR ?overload_invalid_int_type_message@@3PBDB ; overload_invalid_int_type_message
  00166	50		 push	 eax
  00167	e8 00 00 00 00	 call	 ?process_assert@@YGXPBD0H@Z ; process_assert
  0016c	c7 85 74 ff ff
	ff 00 00 00 00	 mov	 DWORD PTR tv140[ebp], 0
$LN31@create_adv:
  00176	68 bb 00 00 00	 push	 187			; 000000bbH
  0017b	8b 4d c0	 mov	 ecx, DWORD PTR _force$[ebp]
  0017e	51		 push	 ecx
  0017f	69 95 78 ff ff
	ff 5c 04 00 00	 imul	 edx, DWORD PTR tv132[ebp], 1116
  00189	8b 85 74 ff ff
	ff		 mov	 eax, DWORD PTR tv140[ebp]
  0018f	8b 8c 82 00 00
	00 00		 mov	 ecx, DWORD PTR ?fn_get_local_entity_int_value@@3PAY0BBH@P6GHPAUENTITY@@W4INT_TYPES@@@ZA[edx+eax*4]
  00196	ff d1		 call	 ecx
  00198	89 45 f0	 mov	 DWORD PTR _side$[ebp], eax

; 424  : 	
; 425  : 		group = get_local_entity_first_child (force, LIST_TYPE_GROUND_REGISTRY);

  0019b	83 7d c0 00	 cmp	 DWORD PTR _force$[ebp], 0
  0019f	74 0d		 je	 SHORT $LN32@create_adv
  001a1	8b 45 c0	 mov	 eax, DWORD PTR _force$[ebp]
  001a4	8b 08		 mov	 ecx, DWORD PTR [eax]
  001a6	89 8d 78 ff ff
	ff		 mov	 DWORD PTR tv152[ebp], ecx
  001ac	eb 24		 jmp	 SHORT $LN33@create_adv
$LN32@create_adv:
  001ae	8b 15 00 00 00
	00		 mov	 edx, DWORD PTR ?__LINE__Var@?0??create_advance_and_retreat_tasks@@YGXXZ@4JA
  001b4	83 c2 33	 add	 edx, 51			; 00000033H
  001b7	52		 push	 edx
  001b8	68 00 00 00 00	 push	 OFFSET ??_C@_0ED@GMECMFKH@c?3?2users?2nhv90?2projects?2eech?2ap@
  001bd	a1 00 00 00 00	 mov	 eax, DWORD PTR ?null_entity_pointer_message@@3PBDB ; null_entity_pointer_message
  001c2	50		 push	 eax
  001c3	e8 00 00 00 00	 call	 ?process_assert@@YGXPBD0H@Z ; process_assert
  001c8	c7 85 78 ff ff
	ff 00 00 00 00	 mov	 DWORD PTR tv152[ebp], 0
$LN33@create_adv:
  001d2	b9 01 00 00 00	 mov	 ecx, 1
  001d7	85 c9		 test	 ecx, ecx
  001d9	74 0c		 je	 SHORT $LN34@create_adv
  001db	c7 85 74 ff ff
	ff 0f 00 00 00	 mov	 DWORD PTR tv160[ebp], 15 ; 0000000fH
  001e5	eb 24		 jmp	 SHORT $LN35@create_adv
$LN34@create_adv:
  001e7	8b 15 00 00 00
	00		 mov	 edx, DWORD PTR ?__LINE__Var@?0??create_advance_and_retreat_tasks@@YGXXZ@4JA
  001ed	83 c2 33	 add	 edx, 51			; 00000033H
  001f0	52		 push	 edx
  001f1	68 00 00 00 00	 push	 OFFSET ??_C@_0ED@GMECMFKH@c?3?2users?2nhv90?2projects?2eech?2ap@
  001f6	a1 00 00 00 00	 mov	 eax, DWORD PTR ?overload_invalid_list_type_message@@3PBDB ; overload_invalid_list_type_message
  001fb	50		 push	 eax
  001fc	e8 00 00 00 00	 call	 ?process_assert@@YGXPBD0H@Z ; process_assert
  00201	c7 85 74 ff ff
	ff 00 00 00 00	 mov	 DWORD PTR tv160[ebp], 0
$LN35@create_adv:
  0020b	6a 0f		 push	 15			; 0000000fH
  0020d	8b 4d c0	 mov	 ecx, DWORD PTR _force$[ebp]
  00210	51		 push	 ecx
  00211	69 95 78 ff ff
	ff b4 00 00 00	 imul	 edx, DWORD PTR tv152[ebp], 180
  0021b	8b 85 74 ff ff
	ff		 mov	 eax, DWORD PTR tv160[ebp]
  00221	8b 8c 82 00 00
	00 00		 mov	 ecx, DWORD PTR ?fn_get_local_entity_first_child@@3PAY0CN@P6GPAUENTITY@@PAU1@W4LIST_TYPES@@@ZA[edx+eax*4]
  00228	ff d1		 call	 ecx
  0022a	89 45 bc	 mov	 DWORD PTR _group$[ebp], eax
$LN4@create_adv:

; 426  : 
; 427  : 		while ((group) && (count < MAX_HIGHLEVEL_TARGET_CHECKS))

  0022d	83 7d bc 00	 cmp	 DWORD PTR _group$[ebp], 0
  00231	0f 84 b5 03 00
	00		 je	 $LN5@create_adv
  00237	81 7d f4 a0 00
	00 00		 cmp	 DWORD PTR _count$[ebp], 160 ; 000000a0H
  0023e	0f 8d a8 03 00
	00		 jge	 $LN5@create_adv

; 428  : 		{
; 429  : 			group_raw = (struct GROUP *)get_local_entity_data (group);

  00244	8b 45 bc	 mov	 eax, DWORD PTR _group$[ebp]
  00247	8b 48 04	 mov	 ecx, DWORD PTR [eax+4]
  0024a	89 4d c4	 mov	 DWORD PTR _group_raw$[ebp], ecx

; 430  : 	
; 431  : 			if (group_database [group_raw->sub_type].frontline_flag)

  0024d	8b 45 c4	 mov	 eax, DWORD PTR _group_raw$[ebp]
  00250	6b 08 64	 imul	 ecx, DWORD PTR [eax], 100
  00253	8b 91 48 00 00
	00		 mov	 edx, DWORD PTR ?group_database@@3PAUGROUP_DATA@@A[ecx+72]
  00259	83 e2 03	 and	 edx, 3
  0025c	0f 84 f3 02 00
	00		 je	 $LN14@create_adv

; 432  : 			{
; 433  : 				if (get_local_entity_int_value (group, INT_TYPE_ALIVE))

  00262	83 7d bc 00	 cmp	 DWORD PTR _group$[ebp], 0
  00266	74 0d		 je	 SHORT $LN36@create_adv
  00268	8b 45 bc	 mov	 eax, DWORD PTR _group$[ebp]
  0026b	8b 08		 mov	 ecx, DWORD PTR [eax]
  0026d	89 8d 78 ff ff
	ff		 mov	 DWORD PTR tv180[ebp], ecx
  00273	eb 20		 jmp	 SHORT $LN37@create_adv
$LN36@create_adv:
  00275	68 b1 01 00 00	 push	 433			; 000001b1H
  0027a	68 00 00 00 00	 push	 OFFSET ??_C@_0ED@GMECMFKH@c?3?2users?2nhv90?2projects?2eech?2ap@
  0027f	8b 15 00 00 00
	00		 mov	 edx, DWORD PTR ?null_entity_pointer_message@@3PBDB ; null_entity_pointer_message
  00285	52		 push	 edx
  00286	e8 00 00 00 00	 call	 ?process_assert@@YGXPBD0H@Z ; process_assert
  0028b	c7 85 78 ff ff
	ff 00 00 00 00	 mov	 DWORD PTR tv180[ebp], 0
$LN37@create_adv:
  00295	b8 01 00 00 00	 mov	 eax, 1
  0029a	85 c0		 test	 eax, eax
  0029c	74 0c		 je	 SHORT $LN38@create_adv
  0029e	c7 85 74 ff ff
	ff 07 00 00 00	 mov	 DWORD PTR tv187[ebp], 7
  002a8	eb 20		 jmp	 SHORT $LN39@create_adv
$LN38@create_adv:
  002aa	68 b1 01 00 00	 push	 433			; 000001b1H
  002af	68 00 00 00 00	 push	 OFFSET ??_C@_0ED@GMECMFKH@c?3?2users?2nhv90?2projects?2eech?2ap@
  002b4	8b 0d 00 00 00
	00		 mov	 ecx, DWORD PTR ?overload_invalid_int_type_message@@3PBDB ; overload_invalid_int_type_message
  002ba	51		 push	 ecx
  002bb	e8 00 00 00 00	 call	 ?process_assert@@YGXPBD0H@Z ; process_assert
  002c0	c7 85 74 ff ff
	ff 00 00 00 00	 mov	 DWORD PTR tv187[ebp], 0
$LN39@create_adv:
  002ca	6a 07		 push	 7
  002cc	8b 55 bc	 mov	 edx, DWORD PTR _group$[ebp]
  002cf	52		 push	 edx
  002d0	69 85 78 ff ff
	ff 5c 04 00 00	 imul	 eax, DWORD PTR tv180[ebp], 1116
  002da	8b 8d 74 ff ff
	ff		 mov	 ecx, DWORD PTR tv187[ebp]
  002e0	8b 94 88 00 00
	00 00		 mov	 edx, DWORD PTR ?fn_get_local_entity_int_value@@3PAY0BBH@P6GHPAUENTITY@@W4INT_TYPES@@@ZA[eax+ecx*4]
  002e7	ff d2		 call	 edx
  002e9	85 c0		 test	 eax, eax
  002eb	0f 84 64 02 00
	00		 je	 $LN14@create_adv

; 434  : 				{
; 435  : 					if ((get_local_entity_int_value (group, INT_TYPE_GROUP_MODE) != GROUP_MODE_BUSY) && (check_group_members_awake (group)))

  002f1	83 7d bc 00	 cmp	 DWORD PTR _group$[ebp], 0
  002f5	74 0d		 je	 SHORT $LN40@create_adv
  002f7	8b 45 bc	 mov	 eax, DWORD PTR _group$[ebp]
  002fa	8b 08		 mov	 ecx, DWORD PTR [eax]
  002fc	89 8d 78 ff ff
	ff		 mov	 DWORD PTR tv199[ebp], ecx
  00302	eb 20		 jmp	 SHORT $LN41@create_adv
$LN40@create_adv:
  00304	68 b3 01 00 00	 push	 435			; 000001b3H
  00309	68 00 00 00 00	 push	 OFFSET ??_C@_0ED@GMECMFKH@c?3?2users?2nhv90?2projects?2eech?2ap@
  0030e	8b 15 00 00 00
	00		 mov	 edx, DWORD PTR ?null_entity_pointer_message@@3PBDB ; null_entity_pointer_message
  00314	52		 push	 edx
  00315	e8 00 00 00 00	 call	 ?process_assert@@YGXPBD0H@Z ; process_assert
  0031a	c7 85 78 ff ff
	ff 00 00 00 00	 mov	 DWORD PTR tv199[ebp], 0
$LN41@create_adv:
  00324	b8 01 00 00 00	 mov	 eax, 1
  00329	85 c0		 test	 eax, eax
  0032b	74 0c		 je	 SHORT $LN42@create_adv
  0032d	c7 85 74 ff ff
	ff 4d 00 00 00	 mov	 DWORD PTR tv206[ebp], 77 ; 0000004dH
  00337	eb 20		 jmp	 SHORT $LN43@create_adv
$LN42@create_adv:
  00339	68 b3 01 00 00	 push	 435			; 000001b3H
  0033e	68 00 00 00 00	 push	 OFFSET ??_C@_0ED@GMECMFKH@c?3?2users?2nhv90?2projects?2eech?2ap@
  00343	8b 0d 00 00 00
	00		 mov	 ecx, DWORD PTR ?overload_invalid_int_type_message@@3PBDB ; overload_invalid_int_type_message
  00349	51		 push	 ecx
  0034a	e8 00 00 00 00	 call	 ?process_assert@@YGXPBD0H@Z ; process_assert
  0034f	c7 85 74 ff ff
	ff 00 00 00 00	 mov	 DWORD PTR tv206[ebp], 0
$LN43@create_adv:
  00359	6a 4d		 push	 77			; 0000004dH
  0035b	8b 55 bc	 mov	 edx, DWORD PTR _group$[ebp]
  0035e	52		 push	 edx
  0035f	69 85 78 ff ff
	ff 5c 04 00 00	 imul	 eax, DWORD PTR tv199[ebp], 1116
  00369	8b 8d 74 ff ff
	ff		 mov	 ecx, DWORD PTR tv206[ebp]
  0036f	8b 94 88 00 00
	00 00		 mov	 edx, DWORD PTR ?fn_get_local_entity_int_value@@3PAY0BBH@P6GHPAUENTITY@@W4INT_TYPES@@@ZA[eax+ecx*4]
  00376	ff d2		 call	 edx
  00378	83 f8 01	 cmp	 eax, 1
  0037b	0f 84 d4 01 00
	00		 je	 $LN14@create_adv
  00381	8b 45 bc	 mov	 eax, DWORD PTR _group$[ebp]
  00384	50		 push	 eax
  00385	e8 00 00 00 00	 call	 ?check_group_members_awake@@YGHPAUENTITY@@@Z ; check_group_members_awake
  0038a	85 c0		 test	 eax, eax
  0038c	0f 84 c3 01 00
	00		 je	 $LN14@create_adv

; 436  : 					{
; 437  : 						ASSERT (count < MAX_HIGHLEVEL_TARGET_CHECKS);

  00392	81 7d f4 a0 00
	00 00		 cmp	 DWORD PTR _count$[ebp], 160 ; 000000a0H
  00399	7c 18		 jl	 SHORT $LN15@create_adv
  0039b	a1 00 00 00 00	 mov	 eax, DWORD PTR ?__LINE__Var@?0??create_advance_and_retreat_tasks@@YGXXZ@4JA
  003a0	83 c0 3f	 add	 eax, 63			; 0000003fH
  003a3	50		 push	 eax
  003a4	68 00 00 00 00	 push	 OFFSET ??_C@_0ED@GMECMFKH@c?3?2users?2nhv90?2projects?2eech?2ap@
  003a9	68 00 00 00 00	 push	 OFFSET ??_C@_0CE@FGAKBBGH@count?5?$DM?5MAX_HIGHLEVEL_TARGET_CH@
  003ae	e8 00 00 00 00	 call	 ?process_assert@@YGXPBD0H@Z ; process_assert
$LN15@create_adv:

; 438  : 
; 439  : 						//
; 440  : 						// get sector
; 441  : 						//
; 442  : 
; 443  : 						pos = get_local_entity_vec3d_ptr (group, VEC3D_TYPE_POSITION);

  003b3	83 7d bc 00	 cmp	 DWORD PTR _group$[ebp], 0
  003b7	74 0d		 je	 SHORT $LN44@create_adv
  003b9	8b 45 bc	 mov	 eax, DWORD PTR _group$[ebp]
  003bc	8b 08		 mov	 ecx, DWORD PTR [eax]
  003be	89 8d 78 ff ff
	ff		 mov	 DWORD PTR tv227[ebp], ecx
  003c4	eb 24		 jmp	 SHORT $LN45@create_adv
$LN44@create_adv:
  003c6	8b 15 00 00 00
	00		 mov	 edx, DWORD PTR ?__LINE__Var@?0??create_advance_and_retreat_tasks@@YGXXZ@4JA
  003cc	83 c2 45	 add	 edx, 69			; 00000045H
  003cf	52		 push	 edx
  003d0	68 00 00 00 00	 push	 OFFSET ??_C@_0ED@GMECMFKH@c?3?2users?2nhv90?2projects?2eech?2ap@
  003d5	a1 00 00 00 00	 mov	 eax, DWORD PTR ?null_entity_pointer_message@@3PBDB ; null_entity_pointer_message
  003da	50		 push	 eax
  003db	e8 00 00 00 00	 call	 ?process_assert@@YGXPBD0H@Z ; process_assert
  003e0	c7 85 78 ff ff
	ff 00 00 00 00	 mov	 DWORD PTR tv227[ebp], 0
$LN45@create_adv:
  003ea	b9 01 00 00 00	 mov	 ecx, 1
  003ef	85 c9		 test	 ecx, ecx
  003f1	74 0c		 je	 SHORT $LN46@create_adv
  003f3	c7 85 74 ff ff
	ff 08 00 00 00	 mov	 DWORD PTR tv235[ebp], 8
  003fd	eb 24		 jmp	 SHORT $LN47@create_adv
$LN46@create_adv:
  003ff	8b 15 00 00 00
	00		 mov	 edx, DWORD PTR ?__LINE__Var@?0??create_advance_and_retreat_tasks@@YGXXZ@4JA
  00405	83 c2 45	 add	 edx, 69			; 00000045H
  00408	52		 push	 edx
  00409	68 00 00 00 00	 push	 OFFSET ??_C@_0ED@GMECMFKH@c?3?2users?2nhv90?2projects?2eech?2ap@
  0040e	a1 00 00 00 00	 mov	 eax, DWORD PTR ?overload_invalid_vec3d_type_message@@3PBDB ; overload_invalid_vec3d_type_message
  00413	50		 push	 eax
  00414	e8 00 00 00 00	 call	 ?process_assert@@YGXPBD0H@Z ; process_assert
  00419	c7 85 74 ff ff
	ff 00 00 00 00	 mov	 DWORD PTR tv235[ebp], 0
$LN47@create_adv:
  00423	6a 08		 push	 8
  00425	8b 4d bc	 mov	 ecx, DWORD PTR _group$[ebp]
  00428	51		 push	 ecx
  00429	6b 95 78 ff ff
	ff 60		 imul	 edx, DWORD PTR tv227[ebp], 96
  00430	8b 85 74 ff ff
	ff		 mov	 eax, DWORD PTR tv235[ebp]
  00436	8b 8c 82 00 00
	00 00		 mov	 ecx, DWORD PTR ?fn_get_local_entity_vec3d_ptr@@3PAY0BI@P6GPAUVEC3D@@PAUENTITY@@W4VEC3D_TYPES@@@ZA[edx+eax*4]
  0043d	ff d1		 call	 ecx
  0043f	89 45 cc	 mov	 DWORD PTR _pos$[ebp], eax

; 444  : 								
; 445  : 						get_x_sector (x, pos->x);

  00442	8d 45 e8	 lea	 eax, DWORD PTR _x$[ebp]
  00445	50		 push	 eax
  00446	8b 4d cc	 mov	 ecx, DWORD PTR _pos$[ebp]
  00449	f3 0f 10 01	 movss	 xmm0, DWORD PTR [ecx]
  0044d	51		 push	 ecx
  0044e	f3 0f 11 04 24	 movss	 DWORD PTR [esp], xmm0
  00453	e8 00 00 00 00	 call	 ?convert_float_to_int@@YGXMPAH@Z ; convert_float_to_int
  00458	8b 45 e8	 mov	 eax, DWORD PTR _x$[ebp]
  0045b	99		 cdq
  0045c	f7 3d 00 00 00
	00		 idiv	 DWORD PTR ?world_map@@3UWORLD_MAP_DATA@@A
  00462	89 45 e8	 mov	 DWORD PTR _x$[ebp], eax

; 446  : 						get_z_sector (z, pos->z);

  00465	8d 45 e4	 lea	 eax, DWORD PTR _z$[ebp]
  00468	50		 push	 eax
  00469	8b 4d cc	 mov	 ecx, DWORD PTR _pos$[ebp]
  0046c	f3 0f 10 41 08	 movss	 xmm0, DWORD PTR [ecx+8]
  00471	51		 push	 ecx
  00472	f3 0f 11 04 24	 movss	 DWORD PTR [esp], xmm0
  00477	e8 00 00 00 00	 call	 ?convert_float_to_int@@YGXMPAH@Z ; convert_float_to_int
  0047c	8b 45 e4	 mov	 eax, DWORD PTR _z$[ebp]
  0047f	99		 cdq
  00480	f7 3d 00 00 00
	00		 idiv	 DWORD PTR ?world_map@@3UWORLD_MAP_DATA@@A
  00486	89 45 e4	 mov	 DWORD PTR _z$[ebp], eax

; 447  : 
; 448  : 						//
; 449  : 						// Calculate group rating
; 450  : 						//
; 451  : 
; 452  : 						rating = 0.0;

  00489	0f 57 c0	 xorps	 xmm0, xmm0
  0048c	f3 0f 11 45 d0	 movss	 DWORD PTR _rating$[ebp], xmm0

; 453  : 	
; 454  : 						// far from enemy base
; 455  : 						rating += (1.0 * (1.0 - get_imap_value (IMAP_BASE_DISTANCE, get_enemy_side (side), x, z)));

  00491	83 7d f0 01	 cmp	 DWORD PTR _side$[ebp], 1
  00495	75 0c		 jne	 SHORT $LN48@create_adv
  00497	c7 85 78 ff ff
	ff 02 00 00 00	 mov	 DWORD PTR tv255[ebp], 2
  004a1	eb 0a		 jmp	 SHORT $LN49@create_adv
$LN48@create_adv:
  004a3	c7 85 78 ff ff
	ff 01 00 00 00	 mov	 DWORD PTR tv255[ebp], 1
$LN49@create_adv:
  004ad	8b 45 e4	 mov	 eax, DWORD PTR _z$[ebp]
  004b0	50		 push	 eax
  004b1	8b 4d e8	 mov	 ecx, DWORD PTR _x$[ebp]
  004b4	51		 push	 ecx
  004b5	8b 95 78 ff ff
	ff		 mov	 edx, DWORD PTR tv255[ebp]
  004bb	52		 push	 edx
  004bc	6a 01		 push	 1
  004be	e8 00 00 00 00	 call	 ?get_imap_value@@YGMW4IMAP_TYPES@@W4ENTITY_SIDES@@HH@Z ; get_imap_value
  004c3	dd 9d 70 ff ff
	ff		 fstp	 QWORD PTR tv579[ebp]
  004c9	f2 0f 10 05 00
	00 00 00	 movsd	 xmm0, QWORD PTR __real@3ff0000000000000
  004d1	f2 0f 5c 85 70
	ff ff ff	 subsd	 xmm0, QWORD PTR tv579[ebp]
  004d9	f2 0f 59 05 00
	00 00 00	 mulsd	 xmm0, QWORD PTR __real@3ff0000000000000
  004e1	f3 0f 5a 4d d0	 cvtss2sd xmm1, DWORD PTR _rating$[ebp]
  004e6	f2 0f 58 c8	 addsd	 xmm1, xmm0
  004ea	f2 0f 5a c1	 cvtsd2ss xmm0, xmm1
  004ee	f3 0f 11 45 d0	 movss	 DWORD PTR _rating$[ebp], xmm0

; 456  : 
; 457  : 						// near to friendly base
; 458  : 						rating += (1.0 * (get_imap_value (IMAP_BASE_DISTANCE, (entity_sides)side, x, z)));

  004f3	8b 45 e4	 mov	 eax, DWORD PTR _z$[ebp]
  004f6	50		 push	 eax
  004f7	8b 4d e8	 mov	 ecx, DWORD PTR _x$[ebp]
  004fa	51		 push	 ecx
  004fb	8b 55 f0	 mov	 edx, DWORD PTR _side$[ebp]
  004fe	52		 push	 edx
  004ff	6a 01		 push	 1
  00501	e8 00 00 00 00	 call	 ?get_imap_value@@YGMW4IMAP_TYPES@@W4ENTITY_SIDES@@HH@Z ; get_imap_value
  00506	dd 9d 74 ff ff
	ff		 fstp	 QWORD PTR tv589[ebp]
  0050c	f2 0f 10 85 74
	ff ff ff	 movsd	 xmm0, QWORD PTR tv589[ebp]
  00514	f2 0f 59 05 00
	00 00 00	 mulsd	 xmm0, QWORD PTR __real@3ff0000000000000
  0051c	f3 0f 5a 4d d0	 cvtss2sd xmm1, DWORD PTR _rating$[ebp]
  00521	f2 0f 58 c8	 addsd	 xmm1, xmm0
  00525	f2 0f 5a c1	 cvtsd2ss xmm0, xmm1
  00529	f3 0f 11 45 d0	 movss	 DWORD PTR _rating$[ebp], xmm0

; 459  : 
; 460  : 						//
; 461  : 						// Store
; 462  : 						//
; 463  : 	
; 464  : 						target_list [count] = group;

  0052e	8b 45 f4	 mov	 eax, DWORD PTR _count$[ebp]
  00531	8b 4d bc	 mov	 ecx, DWORD PTR _group$[ebp]
  00534	89 0c 85 00 00
	00 00		 mov	 DWORD PTR ?target_list@@3PAPAUENTITY@@A[eax*4], ecx

; 465  : 
; 466  : 						target_rating [count] = rating;

  0053b	8b 45 f4	 mov	 eax, DWORD PTR _count$[ebp]
  0053e	f3 0f 10 45 d0	 movss	 xmm0, DWORD PTR _rating$[ebp]
  00543	f3 0f 11 04 85
	00 00 00 00	 movss	 DWORD PTR ?target_rating@@3PAMA[eax*4], xmm0

; 467  : 
; 468  : 						count ++;

  0054c	8b 45 f4	 mov	 eax, DWORD PTR _count$[ebp]
  0054f	83 c0 01	 add	 eax, 1
  00552	89 45 f4	 mov	 DWORD PTR _count$[ebp], eax
$LN14@create_adv:

; 469  : 					}
; 470  : 				}
; 471  : 			}
; 472  : 
; 473  : 			group = get_local_entity_child_succ (group, LIST_TYPE_GROUND_REGISTRY);

  00555	83 7d bc 00	 cmp	 DWORD PTR _group$[ebp], 0
  00559	74 0d		 je	 SHORT $LN50@create_adv
  0055b	8b 45 bc	 mov	 eax, DWORD PTR _group$[ebp]
  0055e	8b 08		 mov	 ecx, DWORD PTR [eax]
  00560	89 8d 78 ff ff
	ff		 mov	 DWORD PTR tv285[ebp], ecx
  00566	eb 24		 jmp	 SHORT $LN51@create_adv
$LN50@create_adv:
  00568	8b 15 00 00 00
	00		 mov	 edx, DWORD PTR ?__LINE__Var@?0??create_advance_and_retreat_tasks@@YGXXZ@4JA
  0056e	83 c2 63	 add	 edx, 99			; 00000063H
  00571	52		 push	 edx
  00572	68 00 00 00 00	 push	 OFFSET ??_C@_0ED@GMECMFKH@c?3?2users?2nhv90?2projects?2eech?2ap@
  00577	a1 00 00 00 00	 mov	 eax, DWORD PTR ?null_entity_pointer_message@@3PBDB ; null_entity_pointer_message
  0057c	50		 push	 eax
  0057d	e8 00 00 00 00	 call	 ?process_assert@@YGXPBD0H@Z ; process_assert
  00582	c7 85 78 ff ff
	ff 00 00 00 00	 mov	 DWORD PTR tv285[ebp], 0
$LN51@create_adv:
  0058c	b9 01 00 00 00	 mov	 ecx, 1
  00591	85 c9		 test	 ecx, ecx
  00593	74 0c		 je	 SHORT $LN52@create_adv
  00595	c7 85 74 ff ff
	ff 0f 00 00 00	 mov	 DWORD PTR tv293[ebp], 15 ; 0000000fH
  0059f	eb 24		 jmp	 SHORT $LN53@create_adv
$LN52@create_adv:
  005a1	8b 15 00 00 00
	00		 mov	 edx, DWORD PTR ?__LINE__Var@?0??create_advance_and_retreat_tasks@@YGXXZ@4JA
  005a7	83 c2 63	 add	 edx, 99			; 00000063H
  005aa	52		 push	 edx
  005ab	68 00 00 00 00	 push	 OFFSET ??_C@_0ED@GMECMFKH@c?3?2users?2nhv90?2projects?2eech?2ap@
  005b0	a1 00 00 00 00	 mov	 eax, DWORD PTR ?overload_invalid_list_type_message@@3PBDB ; overload_invalid_list_type_message
  005b5	50		 push	 eax
  005b6	e8 00 00 00 00	 call	 ?process_assert@@YGXPBD0H@Z ; process_assert
  005bb	c7 85 74 ff ff
	ff 00 00 00 00	 mov	 DWORD PTR tv293[ebp], 0
$LN53@create_adv:
  005c5	6a 0f		 push	 15			; 0000000fH
  005c7	8b 4d bc	 mov	 ecx, DWORD PTR _group$[ebp]
  005ca	51		 push	 ecx
  005cb	69 95 78 ff ff
	ff b4 00 00 00	 imul	 edx, DWORD PTR tv285[ebp], 180
  005d5	8b 85 74 ff ff
	ff		 mov	 eax, DWORD PTR tv293[ebp]
  005db	8b 8c 82 00 00
	00 00		 mov	 ecx, DWORD PTR ?fn_get_local_entity_child_succ@@3PAY0CN@P6GPAUENTITY@@PAU1@W4LIST_TYPES@@@ZA[edx+eax*4]
  005e2	ff d1		 call	 ecx
  005e4	89 45 bc	 mov	 DWORD PTR _group$[ebp], eax

; 474  : 		}

  005e7	e9 41 fc ff ff	 jmp	 $LN4@create_adv
$LN5@create_adv:

; 475  : 	
; 476  : 		//
; 477  : 		// Advance best group
; 478  : 		//
; 479  : 
; 480  : 		if (count > 0)

  005ec	83 7d f4 00	 cmp	 DWORD PTR _count$[ebp], 0
  005f0	0f 8e 9c 03 00
	00		 jle	 $LN7@create_adv

; 481  : 		{
; 482  : 			debug_log ("HIGHLEVL: %s %d candidates for Advance/Retreat", entity_side_short_names [side], count);

  005f6	8b 45 f4	 mov	 eax, DWORD PTR _count$[ebp]
  005f9	50		 push	 eax
  005fa	8b 4d f0	 mov	 ecx, DWORD PTR _side$[ebp]
  005fd	8b 14 8d 00 00
	00 00		 mov	 edx, DWORD PTR ?entity_side_short_names@@3PAPBDA[ecx*4]
  00604	52		 push	 edx
  00605	68 00 00 00 00	 push	 OFFSET ??_C@_0CP@NMIFMLJD@HIGHLEVL?3?5?$CFs?5?$CFd?5candidates?5for?5@
  0060a	e8 00 00 00 00	 call	 ?debug_log@@YAXPBDZZ	; debug_log
  0060f	83 c4 0c	 add	 esp, 12			; 0000000cH

; 483  : 
; 484  : 			quicksort_entity_list (target_list, count, target_rating);

  00612	68 00 00 00 00	 push	 OFFSET ?target_rating@@3PAMA
  00617	8b 45 f4	 mov	 eax, DWORD PTR _count$[ebp]
  0061a	50		 push	 eax
  0061b	68 00 00 00 00	 push	 OFFSET ?target_list@@3PAPAUENTITY@@A
  00620	e8 00 00 00 00	 call	 ?quicksort_entity_list@@YGXPAPAUENTITY@@HPAM@Z ; quicksort_entity_list

; 485  : 
; 486  : 			for (loop = 0; loop < count; loop ++)

  00625	c7 45 ec 00 00
	00 00		 mov	 DWORD PTR _loop$[ebp], 0
  0062c	eb 09		 jmp	 SHORT $LN8@create_adv
$LN6@create_adv:
  0062e	8b 45 ec	 mov	 eax, DWORD PTR _loop$[ebp]
  00631	83 c0 01	 add	 eax, 1
  00634	89 45 ec	 mov	 DWORD PTR _loop$[ebp], eax
$LN8@create_adv:
  00637	8b 45 ec	 mov	 eax, DWORD PTR _loop$[ebp]
  0063a	3b 45 f4	 cmp	 eax, DWORD PTR _count$[ebp]
  0063d	0f 8d 4f 03 00
	00		 jge	 $LN7@create_adv

; 487  : 			{
; 488  : 				group = target_list [loop];

  00643	8b 45 ec	 mov	 eax, DWORD PTR _loop$[ebp]
  00646	8b 0c 85 00 00
	00 00		 mov	 ecx, DWORD PTR ?target_list@@3PAPAUENTITY@@A[eax*4]
  0064d	89 4d bc	 mov	 DWORD PTR _group$[ebp], ecx

; 489  : 				
; 490  : 				group_raw = (struct GROUP *)get_local_entity_data (group);

  00650	8b 45 bc	 mov	 eax, DWORD PTR _group$[ebp]
  00653	8b 48 04	 mov	 ecx, DWORD PTR [eax+4]
  00656	89 4d c4	 mov	 DWORD PTR _group_raw$[ebp], ecx

; 491  : 
; 492  : 				best_node = group_raw->route_node;

  00659	8b 45 c4	 mov	 eax, DWORD PTR _group_raw$[ebp]
  0065c	8b 88 8c 00 00
	00		 mov	 ecx, DWORD PTR [eax+140]
  00662	81 e1 ff 03 00
	00		 and	 ecx, 1023		; 000003ffH
  00668	89 4d d8	 mov	 DWORD PTR _best_node$[ebp], ecx

; 493  : 				from_node = group_raw->route_node;

  0066b	8b 45 c4	 mov	 eax, DWORD PTR _group_raw$[ebp]
  0066e	8b 88 8c 00 00
	00		 mov	 ecx, DWORD PTR [eax+140]
  00674	81 e1 ff 03 00
	00		 and	 ecx, 1023		; 000003ffH
  0067a	89 4d dc	 mov	 DWORD PTR _from_node$[ebp], ecx

; 494  : 	
; 495  : 				original_node = best_node;

  0067d	8b 45 d8	 mov	 eax, DWORD PTR _best_node$[ebp]
  00680	89 45 f8	 mov	 DWORD PTR _original_node$[ebp], eax

; 496  : 		
; 497  : 				//
; 498  : 				// find warmest node to move to
; 499  : 				//
; 500  : 	
; 501  : 				best_rating = target_rating [loop];

  00683	8b 45 ec	 mov	 eax, DWORD PTR _loop$[ebp]
  00686	f3 0f 10 04 85
	00 00 00 00	 movss	 xmm0, DWORD PTR ?target_rating@@3PAMA[eax*4]
  0068f	f3 0f 11 45 d4	 movss	 DWORD PTR _best_rating$[ebp], xmm0

; 502  : 		
; 503  : 				for (node = 0; node < road_nodes [group_raw->route_node].number_of_links; node ++)

  00694	c7 45 fc 00 00
	00 00		 mov	 DWORD PTR _node$[ebp], 0
  0069b	eb 09		 jmp	 SHORT $LN11@create_adv
$LN9@create_adv:
  0069d	8b 45 fc	 mov	 eax, DWORD PTR _node$[ebp]
  006a0	83 c0 01	 add	 eax, 1
  006a3	89 45 fc	 mov	 DWORD PTR _node$[ebp], eax
$LN11@create_adv:
  006a6	8b 45 c4	 mov	 eax, DWORD PTR _group_raw$[ebp]
  006a9	8b 88 8c 00 00
	00		 mov	 ecx, DWORD PTR [eax+140]
  006af	81 e1 ff 03 00
	00		 and	 ecx, 1023		; 000003ffH
  006b5	6b d1 0c	 imul	 edx, ecx, 12
  006b8	a1 00 00 00 00	 mov	 eax, DWORD PTR ?road_nodes@@3PAUNODE_DATA@@A ; road_nodes
  006bd	8b 4c 10 04	 mov	 ecx, DWORD PTR [eax+edx+4]
  006c1	83 e1 7f	 and	 ecx, 127		; 0000007fH
  006c4	39 4d fc	 cmp	 DWORD PTR _node$[ebp], ecx
  006c7	0f 83 ca 01 00
	00		 jae	 $LN10@create_adv

; 504  : 				{
; 505  : 		
; 506  : 					to_node = road_nodes [group_raw->route_node].links [node].node;

  006cd	8b 45 c4	 mov	 eax, DWORD PTR _group_raw$[ebp]
  006d0	8b 88 8c 00 00
	00		 mov	 ecx, DWORD PTR [eax+140]
  006d6	81 e1 ff 03 00
	00		 and	 ecx, 1023		; 000003ffH
  006dc	6b d1 0c	 imul	 edx, ecx, 12
  006df	a1 00 00 00 00	 mov	 eax, DWORD PTR ?road_nodes@@3PAUNODE_DATA@@A ; road_nodes
  006e4	8b 4c 10 08	 mov	 ecx, DWORD PTR [eax+edx+8]
  006e8	ba ff 3f 00 00	 mov	 edx, 16383		; 00003fffH
  006ed	8b 45 fc	 mov	 eax, DWORD PTR _node$[ebp]
  006f0	66 23 54 c1 04	 and	 dx, WORD PTR [ecx+eax*8+4]
  006f5	0f b7 ca	 movzx	 ecx, dx
  006f8	89 4d e0	 mov	 DWORD PTR _to_node$[ebp], ecx

; 507  : 	
; 508  : 					//
; 509  : 					// not occupied by allied group
; 510  : 					//
; 511  : 	
; 512  : 					if (road_nodes [to_node].side_occupying != group_raw->side)

  006fb	6b 45 e0 0c	 imul	 eax, DWORD PTR _to_node$[ebp], 12
  006ff	8b 0d 00 00 00
	00		 mov	 ecx, DWORD PTR ?road_nodes@@3PAUNODE_DATA@@A ; road_nodes
  00705	8b 54 01 04	 mov	 edx, DWORD PTR [ecx+eax+4]
  00709	c1 ea 0e	 shr	 edx, 14			; 0000000eH
  0070c	83 e2 03	 and	 edx, 3
  0070f	8b 45 c4	 mov	 eax, DWORD PTR _group_raw$[ebp]
  00712	8b 88 8c 00 00
	00		 mov	 ecx, DWORD PTR [eax+140]
  00718	c1 e9 0a	 shr	 ecx, 10			; 0000000aH
  0071b	83 e1 03	 and	 ecx, 3
  0071e	3b d1		 cmp	 edx, ecx
  00720	0f 84 6c 01 00
	00		 je	 $LN20@create_adv

; 513  : 					{
; 514  : 						if (get_road_link_breaks (from_node, to_node) == 0)

  00726	8b 45 e0	 mov	 eax, DWORD PTR _to_node$[ebp]
  00729	50		 push	 eax
  0072a	8b 4d dc	 mov	 ecx, DWORD PTR _from_node$[ebp]
  0072d	51		 push	 ecx
  0072e	e8 00 00 00 00	 call	 ?get_road_link_breaks@@YGHHH@Z ; get_road_link_breaks
  00733	85 c0		 test	 eax, eax
  00735	0f 85 57 01 00
	00		 jne	 $LN20@create_adv

; 515  : 						{
; 516  : 							node_pos = &road_node_positions [to_node];

  0073b	6b 45 e0 0c	 imul	 eax, DWORD PTR _to_node$[ebp], 12
  0073f	03 05 00 00 00
	00		 add	 eax, DWORD PTR ?road_node_positions@@3PAUVEC3D@@A ; road_node_positions
  00745	89 45 c8	 mov	 DWORD PTR _node_pos$[ebp], eax

; 517  : 
; 518  : 							if (point_inside_adjusted_map_area (node_pos))

  00748	8b 45 c8	 mov	 eax, DWORD PTR _node_pos$[ebp]
  0074b	f3 0f 5a 00	 cvtss2sd xmm0, DWORD PTR [eax]
  0074f	f3 0f 5a 0d 24
	00 00 00	 cvtss2sd xmm1, DWORD PTR ?world_map@@3UWORLD_MAP_DATA@@A+36
  00757	f2 0f 58 0d 00
	00 00 00	 addsd	 xmm1, QWORD PTR __real@40b3880000000000
  0075f	66 0f 2f c1	 comisd	 xmm0, xmm1
  00763	0f 82 29 01 00
	00		 jb	 $LN20@create_adv
  00769	8b 45 c8	 mov	 eax, DWORD PTR _node_pos$[ebp]
  0076c	f3 0f 5a 00	 cvtss2sd xmm0, DWORD PTR [eax]
  00770	f3 0f 5a 0d 3c
	00 00 00	 cvtss2sd xmm1, DWORD PTR ?world_map@@3UWORLD_MAP_DATA@@A+60
  00778	f2 0f 5c 0d 00
	00 00 00	 subsd	 xmm1, QWORD PTR __real@40b3880000000000
  00780	66 0f 2f c8	 comisd	 xmm1, xmm0
  00784	0f 82 08 01 00
	00		 jb	 $LN20@create_adv
  0078a	8b 45 c8	 mov	 eax, DWORD PTR _node_pos$[ebp]
  0078d	f3 0f 5a 40 08	 cvtss2sd xmm0, DWORD PTR [eax+8]
  00792	f3 0f 5a 0d 2c
	00 00 00	 cvtss2sd xmm1, DWORD PTR ?world_map@@3UWORLD_MAP_DATA@@A+44
  0079a	f2 0f 58 0d 00
	00 00 00	 addsd	 xmm1, QWORD PTR __real@40b3880000000000
  007a2	66 0f 2f c1	 comisd	 xmm0, xmm1
  007a6	0f 82 e6 00 00
	00		 jb	 $LN20@create_adv
  007ac	8b 45 c8	 mov	 eax, DWORD PTR _node_pos$[ebp]
  007af	f3 0f 5a 40 08	 cvtss2sd xmm0, DWORD PTR [eax+8]
  007b4	f3 0f 5a 0d 44
	00 00 00	 cvtss2sd xmm1, DWORD PTR ?world_map@@3UWORLD_MAP_DATA@@A+68
  007bc	f2 0f 5c 0d 00
	00 00 00	 subsd	 xmm1, QWORD PTR __real@40b3880000000000
  007c4	66 0f 2f c8	 comisd	 xmm1, xmm0
  007c8	0f 82 c4 00 00
	00		 jb	 $LN20@create_adv

; 519  : 							{
; 520  : 								get_x_sector (x, node_pos->x);

  007ce	8d 45 e8	 lea	 eax, DWORD PTR _x$[ebp]
  007d1	50		 push	 eax
  007d2	8b 4d c8	 mov	 ecx, DWORD PTR _node_pos$[ebp]
  007d5	f3 0f 10 01	 movss	 xmm0, DWORD PTR [ecx]
  007d9	51		 push	 ecx
  007da	f3 0f 11 04 24	 movss	 DWORD PTR [esp], xmm0
  007df	e8 00 00 00 00	 call	 ?convert_float_to_int@@YGXMPAH@Z ; convert_float_to_int
  007e4	8b 45 e8	 mov	 eax, DWORD PTR _x$[ebp]
  007e7	99		 cdq
  007e8	f7 3d 00 00 00
	00		 idiv	 DWORD PTR ?world_map@@3UWORLD_MAP_DATA@@A
  007ee	89 45 e8	 mov	 DWORD PTR _x$[ebp], eax

; 521  : 								get_z_sector (z, node_pos->z);

  007f1	8d 45 e4	 lea	 eax, DWORD PTR _z$[ebp]
  007f4	50		 push	 eax
  007f5	8b 4d c8	 mov	 ecx, DWORD PTR _node_pos$[ebp]
  007f8	f3 0f 10 41 08	 movss	 xmm0, DWORD PTR [ecx+8]
  007fd	51		 push	 ecx
  007fe	f3 0f 11 04 24	 movss	 DWORD PTR [esp], xmm0
  00803	e8 00 00 00 00	 call	 ?convert_float_to_int@@YGXMPAH@Z ; convert_float_to_int
  00808	8b 45 e4	 mov	 eax, DWORD PTR _z$[ebp]
  0080b	99		 cdq
  0080c	f7 3d 00 00 00
	00		 idiv	 DWORD PTR ?world_map@@3UWORLD_MAP_DATA@@A
  00812	89 45 e4	 mov	 DWORD PTR _z$[ebp], eax

; 522  : 		
; 523  : 								//
; 524  : 								// Calculate group rating
; 525  : 								//
; 526  : 		
; 527  : 								rating = 0.0;

  00815	0f 57 c0	 xorps	 xmm0, xmm0
  00818	f3 0f 11 45 d0	 movss	 DWORD PTR _rating$[ebp], xmm0

; 528  : 			
; 529  : 								// close to enemy base
; 530  : 								rating += (2.0 * get_imap_value (IMAP_BASE_DISTANCE, get_enemy_side (side), x, z));

  0081d	83 7d f0 01	 cmp	 DWORD PTR _side$[ebp], 1
  00821	75 0c		 jne	 SHORT $LN54@create_adv
  00823	c7 85 78 ff ff
	ff 02 00 00 00	 mov	 DWORD PTR tv386[ebp], 2
  0082d	eb 0a		 jmp	 SHORT $LN55@create_adv
$LN54@create_adv:
  0082f	c7 85 78 ff ff
	ff 01 00 00 00	 mov	 DWORD PTR tv386[ebp], 1
$LN55@create_adv:
  00839	8b 45 e4	 mov	 eax, DWORD PTR _z$[ebp]
  0083c	50		 push	 eax
  0083d	8b 4d e8	 mov	 ecx, DWORD PTR _x$[ebp]
  00840	51		 push	 ecx
  00841	8b 95 78 ff ff
	ff		 mov	 edx, DWORD PTR tv386[ebp]
  00847	52		 push	 edx
  00848	6a 01		 push	 1
  0084a	e8 00 00 00 00	 call	 ?get_imap_value@@YGMW4IMAP_TYPES@@W4ENTITY_SIDES@@HH@Z ; get_imap_value
  0084f	dd 9d 70 ff ff
	ff		 fstp	 QWORD PTR tv669[ebp]
  00855	f2 0f 10 85 70
	ff ff ff	 movsd	 xmm0, QWORD PTR tv669[ebp]
  0085d	f2 0f 59 05 00
	00 00 00	 mulsd	 xmm0, QWORD PTR __real@4000000000000000
  00865	f3 0f 5a 4d d0	 cvtss2sd xmm1, DWORD PTR _rating$[ebp]
  0086a	f2 0f 58 c8	 addsd	 xmm1, xmm0
  0086e	f2 0f 5a c1	 cvtsd2ss xmm0, xmm1
  00872	f3 0f 11 45 d0	 movss	 DWORD PTR _rating$[ebp], xmm0

; 531  : 		
; 532  : 								if (rating > best_rating)

  00877	f3 0f 10 45 d0	 movss	 xmm0, DWORD PTR _rating$[ebp]
  0087c	0f 2f 45 d4	 comiss	 xmm0, DWORD PTR _best_rating$[ebp]
  00880	76 10		 jbe	 SHORT $LN20@create_adv

; 533  : 								{
; 534  : 									best_rating = rating;

  00882	f3 0f 10 45 d0	 movss	 xmm0, DWORD PTR _rating$[ebp]
  00887	f3 0f 11 45 d4	 movss	 DWORD PTR _best_rating$[ebp], xmm0

; 535  : 				
; 536  : 									best_node = to_node;

  0088c	8b 45 e0	 mov	 eax, DWORD PTR _to_node$[ebp]
  0088f	89 45 d8	 mov	 DWORD PTR _best_node$[ebp], eax
$LN20@create_adv:

; 537  : 								}
; 538  : 							}
; 539  : 						}
; 540  : 					}
; 541  : 				}

  00892	e9 06 fe ff ff	 jmp	 $LN9@create_adv
$LN10@create_adv:

; 542  : 	
; 543  : 				if (best_node != original_node)

  00897	8b 45 d8	 mov	 eax, DWORD PTR _best_node$[ebp]
  0089a	3b 45 f8	 cmp	 eax, DWORD PTR _original_node$[ebp]
  0089d	0f 84 ea 00 00
	00		 je	 $LN22@create_adv

; 544  : 				{
; 545  : 					if (notify_local_entity (ENTITY_MESSAGE_GROUND_FORCE_ADVANCE, group, NULL, best_node))

  008a3	8b 45 d8	 mov	 eax, DWORD PTR _best_node$[ebp]
  008a6	50		 push	 eax
  008a7	6a 00		 push	 0
  008a9	8b 4d bc	 mov	 ecx, DWORD PTR _group$[ebp]
  008ac	51		 push	 ecx
  008ad	6a 1d		 push	 29			; 0000001dH
  008af	e8 00 00 00 00	 call	 ?notify_local_entity@@YAHW4ENTITY_MESSAGES@@PAUENTITY@@1ZZ ; notify_local_entity
  008b4	83 c4 10	 add	 esp, 16			; 00000010H
  008b7	85 c0		 test	 eax, eax
  008b9	0f 84 ce 00 00
	00		 je	 $LN22@create_adv

; 546  : 					{
; 547  : 						#if DEBUG_MODULE
; 548  : 	
; 549  : 						debug_filtered_log ("HIGHLEVL: Created Advance for %s (Rating %f -> %f)", get_local_entity_string (group, STRING_TYPE_FULL_NAME), target_rating [loop], best_rating);
; 550  : 
; 551  : 						#endif
; 552  : 
; 553  : 						ai_log ("(TASK) Side %s : Created Advance for %s (Rating %f -> %f)", entity_side_short_names [side], get_local_entity_string (group, STRING_TYPE_FULL_NAME), target_rating [loop], best_rating);

  008bf	83 7d bc 00	 cmp	 DWORD PTR _group$[ebp], 0
  008c3	74 0d		 je	 SHORT $LN56@create_adv
  008c5	8b 45 bc	 mov	 eax, DWORD PTR _group$[ebp]
  008c8	8b 08		 mov	 ecx, DWORD PTR [eax]
  008ca	89 8d 78 ff ff
	ff		 mov	 DWORD PTR tv414[ebp], ecx
  008d0	eb 27		 jmp	 SHORT $LN57@create_adv
$LN56@create_adv:
  008d2	8b 15 00 00 00
	00		 mov	 edx, DWORD PTR ?__LINE__Var@?0??create_advance_and_retreat_tasks@@YGXXZ@4JA
  008d8	81 c2 b3 00 00
	00		 add	 edx, 179		; 000000b3H
  008de	52		 push	 edx
  008df	68 00 00 00 00	 push	 OFFSET ??_C@_0ED@GMECMFKH@c?3?2users?2nhv90?2projects?2eech?2ap@
  008e4	a1 00 00 00 00	 mov	 eax, DWORD PTR ?null_entity_pointer_message@@3PBDB ; null_entity_pointer_message
  008e9	50		 push	 eax
  008ea	e8 00 00 00 00	 call	 ?process_assert@@YGXPBD0H@Z ; process_assert
  008ef	c7 85 78 ff ff
	ff 00 00 00 00	 mov	 DWORD PTR tv414[ebp], 0
$LN57@create_adv:
  008f9	b9 01 00 00 00	 mov	 ecx, 1
  008fe	85 c9		 test	 ecx, ecx
  00900	74 0c		 je	 SHORT $LN58@create_adv
  00902	c7 85 74 ff ff
	ff 03 00 00 00	 mov	 DWORD PTR tv454[ebp], 3
  0090c	eb 27		 jmp	 SHORT $LN59@create_adv
$LN58@create_adv:
  0090e	8b 15 00 00 00
	00		 mov	 edx, DWORD PTR ?__LINE__Var@?0??create_advance_and_retreat_tasks@@YGXXZ@4JA
  00914	81 c2 b3 00 00
	00		 add	 edx, 179		; 000000b3H
  0091a	52		 push	 edx
  0091b	68 00 00 00 00	 push	 OFFSET ??_C@_0ED@GMECMFKH@c?3?2users?2nhv90?2projects?2eech?2ap@
  00920	a1 00 00 00 00	 mov	 eax, DWORD PTR ?overload_invalid_string_type_message@@3PBDB ; overload_invalid_string_type_message
  00925	50		 push	 eax
  00926	e8 00 00 00 00	 call	 ?process_assert@@YGXPBD0H@Z ; process_assert
  0092b	c7 85 74 ff ff
	ff 00 00 00 00	 mov	 DWORD PTR tv454[ebp], 0
$LN59@create_adv:
  00935	f3 0f 5a 45 d4	 cvtss2sd xmm0, DWORD PTR _best_rating$[ebp]
  0093a	83 ec 08	 sub	 esp, 8
  0093d	f2 0f 11 04 24	 movsd	 QWORD PTR [esp], xmm0
  00942	8b 4d ec	 mov	 ecx, DWORD PTR _loop$[ebp]
  00945	f3 0f 5a 04 8d
	00 00 00 00	 cvtss2sd xmm0, DWORD PTR ?target_rating@@3PAMA[ecx*4]
  0094e	83 ec 08	 sub	 esp, 8
  00951	f2 0f 11 04 24	 movsd	 QWORD PTR [esp], xmm0
  00956	6a 03		 push	 3
  00958	8b 55 bc	 mov	 edx, DWORD PTR _group$[ebp]
  0095b	52		 push	 edx
  0095c	6b 85 78 ff ff
	ff 34		 imul	 eax, DWORD PTR tv414[ebp], 52
  00963	8b 8d 74 ff ff
	ff		 mov	 ecx, DWORD PTR tv454[ebp]
  00969	8b 94 88 00 00
	00 00		 mov	 edx, DWORD PTR ?fn_get_local_entity_string@@3PAY0N@P6GPBDPAUENTITY@@W4STRING_TYPES@@@ZA[eax+ecx*4]
  00970	ff d2		 call	 edx
  00972	50		 push	 eax
  00973	8b 45 f0	 mov	 eax, DWORD PTR _side$[ebp]
  00976	8b 0c 85 00 00
	00 00		 mov	 ecx, DWORD PTR ?entity_side_short_names@@3PAPBDA[eax*4]
  0097d	51		 push	 ecx
  0097e	68 00 00 00 00	 push	 OFFSET ??_C@_0DK@PPPJLNAH@?$CITASK?$CJ?5Side?5?$CFs?5?3?5Created?5Advanc@
  00983	e8 00 00 00 00	 call	 ?ai_log@@YAXPBDZZ	; ai_log
  00988	83 c4 1c	 add	 esp, 28			; 0000001cH

; 554  : 
; 555  : 						//
; 556  : 						// Move one group at a time
; 557  : 						//
; 558  : 
; 559  : 						break;

  0098b	eb 05		 jmp	 SHORT $LN7@create_adv
$LN22@create_adv:

; 560  : 					}
; 561  : 				}
; 562  : 			}

  0098d	e9 9c fc ff ff	 jmp	 $LN6@create_adv
$LN7@create_adv:

; 563  : 		}
; 564  : 
; 565  : 		force = get_local_entity_child_succ (force, LIST_TYPE_FORCE);

  00992	83 7d c0 00	 cmp	 DWORD PTR _force$[ebp], 0
  00996	74 0d		 je	 SHORT $LN60@create_adv
  00998	8b 45 c0	 mov	 eax, DWORD PTR _force$[ebp]
  0099b	8b 08		 mov	 ecx, DWORD PTR [eax]
  0099d	89 8d 78 ff ff
	ff		 mov	 DWORD PTR tv471[ebp], ecx
  009a3	eb 27		 jmp	 SHORT $LN61@create_adv
$LN60@create_adv:
  009a5	8b 15 00 00 00
	00		 mov	 edx, DWORD PTR ?__LINE__Var@?0??create_advance_and_retreat_tasks@@YGXXZ@4JA
  009ab	81 c2 bf 00 00
	00		 add	 edx, 191		; 000000bfH
  009b1	52		 push	 edx
  009b2	68 00 00 00 00	 push	 OFFSET ??_C@_0ED@GMECMFKH@c?3?2users?2nhv90?2projects?2eech?2ap@
  009b7	a1 00 00 00 00	 mov	 eax, DWORD PTR ?null_entity_pointer_message@@3PBDB ; null_entity_pointer_message
  009bc	50		 push	 eax
  009bd	e8 00 00 00 00	 call	 ?process_assert@@YGXPBD0H@Z ; process_assert
  009c2	c7 85 78 ff ff
	ff 00 00 00 00	 mov	 DWORD PTR tv471[ebp], 0
$LN61@create_adv:
  009cc	b9 01 00 00 00	 mov	 ecx, 1
  009d1	85 c9		 test	 ecx, ecx
  009d3	74 0c		 je	 SHORT $LN62@create_adv
  009d5	c7 85 74 ff ff
	ff 0e 00 00 00	 mov	 DWORD PTR tv479[ebp], 14 ; 0000000eH
  009df	eb 27		 jmp	 SHORT $LN63@create_adv
$LN62@create_adv:
  009e1	8b 15 00 00 00
	00		 mov	 edx, DWORD PTR ?__LINE__Var@?0??create_advance_and_retreat_tasks@@YGXXZ@4JA
  009e7	81 c2 bf 00 00
	00		 add	 edx, 191		; 000000bfH
  009ed	52		 push	 edx
  009ee	68 00 00 00 00	 push	 OFFSET ??_C@_0ED@GMECMFKH@c?3?2users?2nhv90?2projects?2eech?2ap@
  009f3	a1 00 00 00 00	 mov	 eax, DWORD PTR ?overload_invalid_list_type_message@@3PBDB ; overload_invalid_list_type_message
  009f8	50		 push	 eax
  009f9	e8 00 00 00 00	 call	 ?process_assert@@YGXPBD0H@Z ; process_assert
  009fe	c7 85 74 ff ff
	ff 00 00 00 00	 mov	 DWORD PTR tv479[ebp], 0
$LN63@create_adv:
  00a08	6a 0e		 push	 14			; 0000000eH
  00a0a	8b 4d c0	 mov	 ecx, DWORD PTR _force$[ebp]
  00a0d	51		 push	 ecx
  00a0e	69 95 78 ff ff
	ff b4 00 00 00	 imul	 edx, DWORD PTR tv471[ebp], 180
  00a18	8b 85 74 ff ff
	ff		 mov	 eax, DWORD PTR tv479[ebp]
  00a1e	8b 8c 82 00 00
	00 00		 mov	 ecx, DWORD PTR ?fn_get_local_entity_child_succ@@3PAY0CN@P6GPAUENTITY@@PAU1@W4LIST_TYPES@@@ZA[edx+eax*4]
  00a25	ff d1		 call	 ecx
  00a27	89 45 c0	 mov	 DWORD PTR _force$[ebp], eax

; 566  : 	}

  00a2a	e9 9e f6 ff ff	 jmp	 $LN2@create_adv
$LN3@create_adv:

; 567  : }

  00a2f	5f		 pop	 edi
  00a30	5e		 pop	 esi
  00a31	5b		 pop	 ebx
  00a32	8b e5		 mov	 esp, ebp
  00a34	5d		 pop	 ebp
  00a35	c3		 ret	 0
?create_advance_and_retreat_tasks@@YGXXZ ENDP		; create_advance_and_retreat_tasks
_TEXT	ENDS
; Function compile flags: /Odtp /ZI
; File c:\users\nhv90\projects\eech\aphavoc\source\ai\highlevl\highlevl.c
;	COMDAT ?add_high_level_ai_function@@YGHP6GXXZMM@Z
_TEXT	SEGMENT
tv183 = -80						; size = 4
tv166 = -76						; size = 8
tv137 = -76						; size = 4
tv129 = -72						; size = 4
_offset$ = -4						; size = 4
_function$ = 8						; size = 4
_frequency$ = 12					; size = 4
_start_time$ = 16					; size = 4
?add_high_level_ai_function@@YGHP6GXXZMM@Z PROC		; add_high_level_ai_function, COMDAT

; 345  : {

  00000	55		 push	 ebp
  00001	8b ec		 mov	 ebp, esp
  00003	83 ec 50	 sub	 esp, 80			; 00000050H
  00006	53		 push	 ebx
  00007	56		 push	 esi
  00008	57		 push	 edi

; 346  : 	float
; 347  : 		offset;
; 348  : 
; 349  : 	//
; 350  : 	// expects frequency in seconds, and start time in elapsed seconds
; 351  : 	//
; 352  : 
; 353  : 	ASSERT ((start_time >= 0.0) && (start_time < (24.0 * ONE_HOUR)));

  00009	f3 0f 5a 45 10	 cvtss2sd xmm0, DWORD PTR _start_time$[ebp]
  0000e	66 0f 2f 05 00
	00 00 00	 comisd	 xmm0, QWORD PTR __real@0000000000000000
  00016	72 13		 jb	 SHORT $LN5@add_high_l
  00018	f3 0f 5a 45 10	 cvtss2sd xmm0, DWORD PTR _start_time$[ebp]
  0001d	f2 0f 10 0d 00
	00 00 00	 movsd	 xmm1, QWORD PTR __real@40f5180000000000
  00025	66 0f 2f c8	 comisd	 xmm1, xmm0
  00029	77 18		 ja	 SHORT $LN4@add_high_l
$LN5@add_high_l:
  0002b	a1 00 00 00 00	 mov	 eax, DWORD PTR ?__LINE__Var@?0??add_high_level_ai_function@@YGHP6GXXZMM@Z@4JA
  00030	83 c0 08	 add	 eax, 8
  00033	50		 push	 eax
  00034	68 00 00 00 00	 push	 OFFSET ??_C@_0ED@GMECMFKH@c?3?2users?2nhv90?2projects?2eech?2ap@
  00039	68 00 00 00 00	 push	 OFFSET ??_C@_0DI@GLECGHEO@?$CIstart_time?5?$DO?$DN?50?40?$CJ?5?$CG?$CG?5?$CIstart_t@
  0003e	e8 00 00 00 00	 call	 ?process_assert@@YGXPBD0H@Z ; process_assert
$LN4@add_high_l:

; 354  : 
; 355  : 	ASSERT ((frequency > 0.0) && (frequency <= (24.0 * ONE_HOUR)));

  00043	f3 0f 5a 45 0c	 cvtss2sd xmm0, DWORD PTR _frequency$[ebp]
  00048	66 0f 2f 05 00
	00 00 00	 comisd	 xmm0, QWORD PTR __real@0000000000000000
  00050	76 13		 jbe	 SHORT $LN7@add_high_l
  00052	f3 0f 5a 45 0c	 cvtss2sd xmm0, DWORD PTR _frequency$[ebp]
  00057	f2 0f 10 0d 00
	00 00 00	 movsd	 xmm1, QWORD PTR __real@40f5180000000000
  0005f	66 0f 2f c8	 comisd	 xmm1, xmm0
  00063	73 18		 jae	 SHORT $LN6@add_high_l
$LN7@add_high_l:
  00065	a1 00 00 00 00	 mov	 eax, DWORD PTR ?__LINE__Var@?0??add_high_level_ai_function@@YGHP6GXXZMM@Z@4JA
  0006a	83 c0 0a	 add	 eax, 10			; 0000000aH
  0006d	50		 push	 eax
  0006e	68 00 00 00 00	 push	 OFFSET ??_C@_0ED@GMECMFKH@c?3?2users?2nhv90?2projects?2eech?2ap@
  00073	68 00 00 00 00	 push	 OFFSET ??_C@_0DG@BEFLEAOE@?$CIfrequency?5?$DO?50?40?$CJ?5?$CG?$CG?5?$CIfrequency@
  00078	e8 00 00 00 00	 call	 ?process_assert@@YGXPBD0H@Z ; process_assert
$LN6@add_high_l:

; 356  : 
; 357  : 	ASSERT (fmod ((24.0f * ONE_HOUR), frequency) == 0.0);

  0007d	51		 push	 ecx
  0007e	f3 0f 10 45 0c	 movss	 xmm0, DWORD PTR _frequency$[ebp]
  00083	f3 0f 11 04 24	 movss	 DWORD PTR [esp], xmm0
  00088	51		 push	 ecx
  00089	f3 0f 10 05 00
	00 00 00	 movss	 xmm0, DWORD PTR __real@47a8c000
  00091	f3 0f 11 04 24	 movss	 DWORD PTR [esp], xmm0
  00096	e8 00 00 00 00	 call	 ?fmod@@YGMMM@Z		; fmod
  0009b	dd 5d b4	 fstp	 QWORD PTR tv166[ebp]
  0009e	f2 0f 10 45 b4	 movsd	 xmm0, QWORD PTR tv166[ebp]
  000a3	66 0f 2e 05 00
	00 00 00	 ucomisd xmm0, QWORD PTR __real@0000000000000000
  000ab	9f		 lahf
  000ac	f6 c4 44	 test	 ah, 68			; 00000044H
  000af	7b 18		 jnp	 SHORT $LN8@add_high_l
  000b1	a1 00 00 00 00	 mov	 eax, DWORD PTR ?__LINE__Var@?0??add_high_level_ai_function@@YGHP6GXXZMM@Z@4JA
  000b6	83 c0 0c	 add	 eax, 12			; 0000000cH
  000b9	50		 push	 eax
  000ba	68 00 00 00 00	 push	 OFFSET ??_C@_0ED@GMECMFKH@c?3?2users?2nhv90?2projects?2eech?2ap@
  000bf	68 00 00 00 00	 push	 OFFSET ??_C@_0CM@CLOFEPLL@fmod?5?$CI?$CI24?40f?5?$CK?5ONE_HOUR?$CJ?0?5frequ@
  000c4	e8 00 00 00 00	 call	 ?process_assert@@YGXPBD0H@Z ; process_assert
$LN8@add_high_l:

; 358  : 
; 359  : 	offset = fmod ((start_time - get_local_entity_float_value (get_session_entity (), FLOAT_TYPE_ELAPSED_TIME)), frequency);

  000c9	83 3d 00 00 00
	00 00		 cmp	 DWORD PTR ?session_entity@@3PAUENTITY@@A, 0 ; session_entity
  000d0	74 0c		 je	 SHORT $LN10@add_high_l
  000d2	a1 00 00 00 00	 mov	 eax, DWORD PTR ?session_entity@@3PAUENTITY@@A ; session_entity
  000d7	8b 08		 mov	 ecx, DWORD PTR [eax]
  000d9	89 4d b8	 mov	 DWORD PTR tv129[ebp], ecx
  000dc	eb 21		 jmp	 SHORT $LN11@add_high_l
$LN10@add_high_l:
  000de	8b 15 00 00 00
	00		 mov	 edx, DWORD PTR ?__LINE__Var@?0??add_high_level_ai_function@@YGHP6GXXZMM@Z@4JA
  000e4	83 c2 0e	 add	 edx, 14			; 0000000eH
  000e7	52		 push	 edx
  000e8	68 00 00 00 00	 push	 OFFSET ??_C@_0ED@GMECMFKH@c?3?2users?2nhv90?2projects?2eech?2ap@
  000ed	a1 00 00 00 00	 mov	 eax, DWORD PTR ?null_entity_pointer_message@@3PBDB ; null_entity_pointer_message
  000f2	50		 push	 eax
  000f3	e8 00 00 00 00	 call	 ?process_assert@@YGXPBD0H@Z ; process_assert
  000f8	c7 45 b8 00 00
	00 00		 mov	 DWORD PTR tv129[ebp], 0
$LN11@add_high_l:
  000ff	b9 01 00 00 00	 mov	 ecx, 1
  00104	85 c9		 test	 ecx, ecx
  00106	74 09		 je	 SHORT $LN12@add_high_l
  00108	c7 45 b4 23 00
	00 00		 mov	 DWORD PTR tv137[ebp], 35 ; 00000023H
  0010f	eb 21		 jmp	 SHORT $LN13@add_high_l
$LN12@add_high_l:
  00111	8b 15 00 00 00
	00		 mov	 edx, DWORD PTR ?__LINE__Var@?0??add_high_level_ai_function@@YGHP6GXXZMM@Z@4JA
  00117	83 c2 0e	 add	 edx, 14			; 0000000eH
  0011a	52		 push	 edx
  0011b	68 00 00 00 00	 push	 OFFSET ??_C@_0ED@GMECMFKH@c?3?2users?2nhv90?2projects?2eech?2ap@
  00120	a1 00 00 00 00	 mov	 eax, DWORD PTR ?overload_invalid_float_type_message@@3PBDB ; overload_invalid_float_type_message
  00125	50		 push	 eax
  00126	e8 00 00 00 00	 call	 ?process_assert@@YGXPBD0H@Z ; process_assert
  0012b	c7 45 b4 00 00
	00 00		 mov	 DWORD PTR tv137[ebp], 0
$LN13@add_high_l:
  00132	51		 push	 ecx
  00133	f3 0f 10 45 0c	 movss	 xmm0, DWORD PTR _frequency$[ebp]
  00138	f3 0f 11 04 24	 movss	 DWORD PTR [esp], xmm0
  0013d	6a 23		 push	 35			; 00000023H
  0013f	8b 0d 00 00 00
	00		 mov	 ecx, DWORD PTR ?session_entity@@3PAUENTITY@@A ; session_entity
  00145	51		 push	 ecx
  00146	69 55 b8 bc 02
	00 00		 imul	 edx, DWORD PTR tv129[ebp], 700
  0014d	8b 45 b4	 mov	 eax, DWORD PTR tv137[ebp]
  00150	8b 8c 82 00 00
	00 00		 mov	 ecx, DWORD PTR ?fn_get_local_entity_float_value@@3PAY0KP@P6GMPAUENTITY@@W4FLOAT_TYPES@@@ZA[edx+eax*4]
  00157	ff d1		 call	 ecx
  00159	d9 5d b0	 fstp	 DWORD PTR tv183[ebp]
  0015c	f3 0f 10 45 10	 movss	 xmm0, DWORD PTR _start_time$[ebp]
  00161	f3 0f 5c 45 b0	 subss	 xmm0, DWORD PTR tv183[ebp]
  00166	51		 push	 ecx
  00167	f3 0f 11 04 24	 movss	 DWORD PTR [esp], xmm0
  0016c	e8 00 00 00 00	 call	 ?fmod@@YGMMM@Z		; fmod
  00171	d9 5d fc	 fstp	 DWORD PTR _offset$[ebp]
$LN2@add_high_l:

; 360  : 
; 361  : 	while (offset < 0.0)

  00174	f3 0f 5a 45 fc	 cvtss2sd xmm0, DWORD PTR _offset$[ebp]
  00179	0f 57 c9	 xorps	 xmm1, xmm1
  0017c	66 0f 2f c8	 comisd	 xmm1, xmm0
  00180	76 11		 jbe	 SHORT $LN3@add_high_l

; 362  : 	{
; 363  : 		offset += frequency;

  00182	f3 0f 10 45 fc	 movss	 xmm0, DWORD PTR _offset$[ebp]
  00187	f3 0f 58 45 0c	 addss	 xmm0, DWORD PTR _frequency$[ebp]
  0018c	f3 0f 11 45 fc	 movss	 DWORD PTR _offset$[ebp], xmm0

; 364  : 	}

  00191	eb e1		 jmp	 SHORT $LN2@add_high_l
$LN3@add_high_l:

; 365  : 
; 366  : 	return add_update_function (function, frequency, offset);

  00193	51		 push	 ecx
  00194	f3 0f 10 45 fc	 movss	 xmm0, DWORD PTR _offset$[ebp]
  00199	f3 0f 11 04 24	 movss	 DWORD PTR [esp], xmm0
  0019e	51		 push	 ecx
  0019f	f3 0f 10 45 0c	 movss	 xmm0, DWORD PTR _frequency$[ebp]
  001a4	f3 0f 11 04 24	 movss	 DWORD PTR [esp], xmm0
  001a9	8b 45 08	 mov	 eax, DWORD PTR _function$[ebp]
  001ac	50		 push	 eax
  001ad	e8 00 00 00 00	 call	 ?add_update_function@@YGHP6GXXZMM@Z ; add_update_function

; 367  : }

  001b2	5f		 pop	 edi
  001b3	5e		 pop	 esi
  001b4	5b		 pop	 ebx
  001b5	8b e5		 mov	 esp, ebp
  001b7	5d		 pop	 ebp
  001b8	c2 0c 00	 ret	 12			; 0000000cH
?add_high_level_ai_function@@YGHP6GXXZMM@Z ENDP		; add_high_level_ai_function
_TEXT	ENDS
; Function compile flags: /Odtp /ZI
; File c:\users\nhv90\projects\eech\aphavoc\source\ai\highlevl\highlevl.c
;	COMDAT ?ai_log@@YAXPBDZZ
_TEXT	SEGMENT
tv88 = -200						; size = 4
tv80 = -196						; size = 4
_args$ = -124						; size = 4
_seconds$ = -120					; size = 4
_minutes$ = -116					; size = 4
_hours$ = -112						; size = 4
_elapsed_days$ = -108					; size = 4
_elapsed_time$ = -104					; size = 4
_time_info$ = -100					; size = 100
_string$ = 8						; size = 4
?ai_log@@YAXPBDZZ PROC					; ai_log, COMDAT

; 3027 : {

  00000	55		 push	 ebp
  00001	8b ec		 mov	 ebp, esp
  00003	81 ec c8 00 00
	00		 sub	 esp, 200		; 000000c8H
  00009	53		 push	 ebx
  0000a	56		 push	 esi
  0000b	57		 push	 edi

; 3028 : 	static char
; 3029 : 		buffer[1000];
; 3030 : 
; 3031 : 	char
; 3032 : 		time_info[100];
; 3033 : 
; 3034 : 	float
; 3035 : 		elapsed_time;
; 3036 : 
; 3037 : 	int
; 3038 : 		elapsed_days,
; 3039 : 		hours,
; 3040 : 		minutes,
; 3041 : 		seconds;
; 3042 : 
; 3043 : 	va_list
; 3044 : 		args;
; 3045 : 
; 3046 : 	if (!ai_log_file)

  0000c	83 3d 00 00 00
	00 00		 cmp	 DWORD PTR ?ai_log_file@@3PAU_iobuf@@A, 0
  00013	75 05		 jne	 SHORT $LN2@ai_log

; 3047 : 	{
; 3048 : 		return;

  00015	e9 b3 01 00 00	 jmp	 $LN1@ai_log
$LN2@ai_log:

; 3049 : 	}
; 3050 : 
; 3051 : 	ASSERT (get_session_entity ());

  0001a	83 3d 00 00 00
	00 00		 cmp	 DWORD PTR ?session_entity@@3PAUENTITY@@A, 0 ; session_entity
  00021	75 18		 jne	 SHORT $LN3@ai_log
  00023	a1 00 00 00 00	 mov	 eax, DWORD PTR ?__LINE__Var@?0??ai_log@@YAXPBDZZ@4JA
  00028	83 c0 18	 add	 eax, 24			; 00000018H
  0002b	50		 push	 eax
  0002c	68 00 00 00 00	 push	 OFFSET ??_C@_0ED@GMECMFKH@c?3?2users?2nhv90?2projects?2eech?2ap@
  00031	68 00 00 00 00	 push	 OFFSET ??_C@_0BG@EFCJJKAA@get_session_entity?5?$CI?$CJ@
  00036	e8 00 00 00 00	 call	 ?process_assert@@YGXPBD0H@Z ; process_assert
$LN3@ai_log:

; 3052 : 
; 3053 : 	va_start (args, string);

  0003b	8d 45 0c	 lea	 eax, DWORD PTR _string$[ebp+4]
  0003e	89 45 84	 mov	 DWORD PTR _args$[ebp], eax

; 3054 : 
; 3055 : 	vsprintf (buffer, string, args);

  00041	8b 45 84	 mov	 eax, DWORD PTR _args$[ebp]
  00044	50		 push	 eax
  00045	8b 4d 08	 mov	 ecx, DWORD PTR _string$[ebp]
  00048	51		 push	 ecx
  00049	68 00 00 00 00	 push	 OFFSET ?buffer@?1??ai_log@@YAXPBDZZ@4PADA
  0004e	e8 00 00 00 00	 call	 _vsprintf
  00053	83 c4 0c	 add	 esp, 12			; 0000000cH

; 3056 : 
; 3057 : 	va_end (args);

  00056	c7 45 84 00 00
	00 00		 mov	 DWORD PTR _args$[ebp], 0

; 3058 : 
; 3059 : 	elapsed_time = get_local_entity_float_value (get_session_entity (), FLOAT_TYPE_ELAPSED_TIME);

  0005d	83 3d 00 00 00
	00 00		 cmp	 DWORD PTR ?session_entity@@3PAUENTITY@@A, 0 ; session_entity
  00064	74 0f		 je	 SHORT $LN6@ai_log
  00066	a1 00 00 00 00	 mov	 eax, DWORD PTR ?session_entity@@3PAUENTITY@@A ; session_entity
  0006b	8b 08		 mov	 ecx, DWORD PTR [eax]
  0006d	89 8d 3c ff ff
	ff		 mov	 DWORD PTR tv80[ebp], ecx
  00073	eb 24		 jmp	 SHORT $LN7@ai_log
$LN6@ai_log:
  00075	8b 15 00 00 00
	00		 mov	 edx, DWORD PTR ?__LINE__Var@?0??ai_log@@YAXPBDZZ@4JA
  0007b	83 c2 20	 add	 edx, 32			; 00000020H
  0007e	52		 push	 edx
  0007f	68 00 00 00 00	 push	 OFFSET ??_C@_0ED@GMECMFKH@c?3?2users?2nhv90?2projects?2eech?2ap@
  00084	a1 00 00 00 00	 mov	 eax, DWORD PTR ?null_entity_pointer_message@@3PBDB ; null_entity_pointer_message
  00089	50		 push	 eax
  0008a	e8 00 00 00 00	 call	 ?process_assert@@YGXPBD0H@Z ; process_assert
  0008f	c7 85 3c ff ff
	ff 00 00 00 00	 mov	 DWORD PTR tv80[ebp], 0
$LN7@ai_log:
  00099	b9 01 00 00 00	 mov	 ecx, 1
  0009e	85 c9		 test	 ecx, ecx
  000a0	74 0c		 je	 SHORT $LN8@ai_log
  000a2	c7 85 38 ff ff
	ff 23 00 00 00	 mov	 DWORD PTR tv88[ebp], 35	; 00000023H
  000ac	eb 24		 jmp	 SHORT $LN9@ai_log
$LN8@ai_log:
  000ae	8b 15 00 00 00
	00		 mov	 edx, DWORD PTR ?__LINE__Var@?0??ai_log@@YAXPBDZZ@4JA
  000b4	83 c2 20	 add	 edx, 32			; 00000020H
  000b7	52		 push	 edx
  000b8	68 00 00 00 00	 push	 OFFSET ??_C@_0ED@GMECMFKH@c?3?2users?2nhv90?2projects?2eech?2ap@
  000bd	a1 00 00 00 00	 mov	 eax, DWORD PTR ?overload_invalid_float_type_message@@3PBDB ; overload_invalid_float_type_message
  000c2	50		 push	 eax
  000c3	e8 00 00 00 00	 call	 ?process_assert@@YGXPBD0H@Z ; process_assert
  000c8	c7 85 38 ff ff
	ff 00 00 00 00	 mov	 DWORD PTR tv88[ebp], 0
$LN9@ai_log:
  000d2	6a 23		 push	 35			; 00000023H
  000d4	8b 0d 00 00 00
	00		 mov	 ecx, DWORD PTR ?session_entity@@3PAUENTITY@@A ; session_entity
  000da	51		 push	 ecx
  000db	69 95 3c ff ff
	ff bc 02 00 00	 imul	 edx, DWORD PTR tv80[ebp], 700
  000e5	8b 85 38 ff ff
	ff		 mov	 eax, DWORD PTR tv88[ebp]
  000eb	8b 8c 82 00 00
	00 00		 mov	 ecx, DWORD PTR ?fn_get_local_entity_float_value@@3PAY0KP@P6GMPAUENTITY@@W4FLOAT_TYPES@@@ZA[edx+eax*4]
  000f2	ff d1		 call	 ecx
  000f4	d9 5d 98	 fstp	 DWORD PTR _elapsed_time$[ebp]

; 3060 : 
; 3061 : 	convert_float_to_int (elapsed_time / ONE_DAY, &elapsed_days);

  000f7	8d 45 94	 lea	 eax, DWORD PTR _elapsed_days$[ebp]
  000fa	50		 push	 eax
  000fb	f3 0f 10 45 98	 movss	 xmm0, DWORD PTR _elapsed_time$[ebp]
  00100	f3 0f 5e 05 00
	00 00 00	 divss	 xmm0, DWORD PTR __real@47a8c000
  00108	51		 push	 ecx
  00109	f3 0f 11 04 24	 movss	 DWORD PTR [esp], xmm0
  0010e	e8 00 00 00 00	 call	 ?convert_float_to_int@@YGXMPAH@Z ; convert_float_to_int

; 3062 : 
; 3063 : 	elapsed_time = fmod (elapsed_time, ONE_DAY);

  00113	68 80 51 01 00	 push	 86400			; 00015180H
  00118	51		 push	 ecx
  00119	f3 0f 10 45 98	 movss	 xmm0, DWORD PTR _elapsed_time$[ebp]
  0011e	f3 0f 11 04 24	 movss	 DWORD PTR [esp], xmm0
  00123	e8 00 00 00 00	 call	 ??$fmod@MHX@@YGNMH@Z	; fmod<float,int,void>
  00128	d9 5d 98	 fstp	 DWORD PTR _elapsed_time$[ebp]

; 3064 : 
; 3065 : 	get_digital_clock_int_values (elapsed_time, &hours, &minutes, &seconds);

  0012b	8d 45 88	 lea	 eax, DWORD PTR _seconds$[ebp]
  0012e	50		 push	 eax
  0012f	8d 4d 8c	 lea	 ecx, DWORD PTR _minutes$[ebp]
  00132	51		 push	 ecx
  00133	8d 55 90	 lea	 edx, DWORD PTR _hours$[ebp]
  00136	52		 push	 edx
  00137	51		 push	 ecx
  00138	f3 0f 10 45 98	 movss	 xmm0, DWORD PTR _elapsed_time$[ebp]
  0013d	f3 0f 11 04 24	 movss	 DWORD PTR [esp], xmm0
  00142	e8 00 00 00 00	 call	 ?get_digital_clock_int_values@@YGXMPAH00@Z ; get_digital_clock_int_values

; 3066 : 
; 3067 : 	sprintf (time_info, "Day %d %02d:%02d:%02d :- ", elapsed_days, hours, minutes, seconds);

  00147	8b 45 88	 mov	 eax, DWORD PTR _seconds$[ebp]
  0014a	50		 push	 eax
  0014b	8b 4d 8c	 mov	 ecx, DWORD PTR _minutes$[ebp]
  0014e	51		 push	 ecx
  0014f	8b 55 90	 mov	 edx, DWORD PTR _hours$[ebp]
  00152	52		 push	 edx
  00153	8b 45 94	 mov	 eax, DWORD PTR _elapsed_days$[ebp]
  00156	50		 push	 eax
  00157	68 00 00 00 00	 push	 OFFSET ??_C@_0BK@LNLKLEEP@Day?5?$CFd?5?$CF02d?3?$CF02d?3?$CF02d?5?3?9?5@
  0015c	8d 4d 9c	 lea	 ecx, DWORD PTR _time_info$[ebp]
  0015f	51		 push	 ecx
  00160	e8 00 00 00 00	 call	 _sprintf
  00165	83 c4 18	 add	 esp, 24			; 00000018H

; 3068 : 
; 3069 : 	// JB 030311 Enable running out of separate directories
; 3070 : 	ai_log_file = safe_fopen (AI_LOG_FILENAME, "a");

  00168	68 00 00 00 00	 push	 OFFSET ??_C@_01MCMALHOG@a@
  0016d	68 00 00 00 00	 push	 OFFSET ??_C@_06MDHFGADH@AI?4LOG@
  00172	e8 00 00 00 00	 call	 ?safe_fopen@@YGPAU_iobuf@@PBD0@Z ; safe_fopen
  00177	a3 00 00 00 00	 mov	 DWORD PTR ?ai_log_file@@3PAU_iobuf@@A, eax

; 3071 : 
; 3072 : 	if (ai_log_file)

  0017c	83 3d 00 00 00
	00 00		 cmp	 DWORD PTR ?ai_log_file@@3PAU_iobuf@@A, 0
  00183	74 48		 je	 SHORT $LN4@ai_log

; 3073 : 	{
; 3074 : 		fprintf (ai_log_file, time_info);

  00185	8d 45 9c	 lea	 eax, DWORD PTR _time_info$[ebp]
  00188	50		 push	 eax
  00189	8b 0d 00 00 00
	00		 mov	 ecx, DWORD PTR ?ai_log_file@@3PAU_iobuf@@A
  0018f	51		 push	 ecx
  00190	e8 00 00 00 00	 call	 _fprintf
  00195	83 c4 08	 add	 esp, 8

; 3075 : 		fprintf (ai_log_file, buffer);

  00198	68 00 00 00 00	 push	 OFFSET ?buffer@?1??ai_log@@YAXPBDZZ@4PADA
  0019d	a1 00 00 00 00	 mov	 eax, DWORD PTR ?ai_log_file@@3PAU_iobuf@@A
  001a2	50		 push	 eax
  001a3	e8 00 00 00 00	 call	 _fprintf
  001a8	83 c4 08	 add	 esp, 8

; 3076 : 		fprintf (ai_log_file, "\n");

  001ab	68 00 00 00 00	 push	 OFFSET ??_C@_01EEMJAFIK@?6@
  001b0	a1 00 00 00 00	 mov	 eax, DWORD PTR ?ai_log_file@@3PAU_iobuf@@A
  001b5	50		 push	 eax
  001b6	e8 00 00 00 00	 call	 _fprintf
  001bb	83 c4 08	 add	 esp, 8

; 3077 : 	
; 3078 : 		fclose (ai_log_file);

  001be	a1 00 00 00 00	 mov	 eax, DWORD PTR ?ai_log_file@@3PAU_iobuf@@A
  001c3	50		 push	 eax
  001c4	ff 15 00 00 00
	00		 call	 DWORD PTR __imp__fclose
  001ca	83 c4 04	 add	 esp, 4
$LN4@ai_log:
$LN1@ai_log:

; 3079 : 	}
; 3080 : }

  001cd	5f		 pop	 edi
  001ce	5e		 pop	 esi
  001cf	5b		 pop	 ebx
  001d0	8b e5		 mov	 esp, ebp
  001d2	5d		 pop	 ebp
  001d3	c3		 ret	 0
?ai_log@@YAXPBDZZ ENDP					; ai_log
_TEXT	ENDS
; Function compile flags: /Odtp /ZI
; File c:\users\nhv90\projects\eech\aphavoc\source\ai\highlevl\highlevl.c
;	COMDAT ?create_sead_tasks_around_keysite@@YGHPAUENTITY@@0W4ENTITY_SIDES@@@Z
_TEXT	SEGMENT
tv520 = -136						; size = 8
tv369 = -132						; size = 4
tv580 = -128						; size = 8
tv361 = -128						; size = 4
tv353 = -124						; size = 4
tv512 = -120						; size = 8
tv343 = -120						; size = 4
tv335 = -116						; size = 4
tv496 = -112						; size = 8
tv396 = -112						; size = 4
tv322 = -112						; size = 4
tv290 = -112						; size = 4
tv256 = -112						; size = 4
tv225 = -112						; size = 4
tv203 = -112						; size = 4
tv182 = -112						; size = 4
tv162 = -112						; size = 4
tv142 = -112						; size = 4
tv83 = -112						; size = 4
tv388 = -108						; size = 4
tv314 = -108						; size = 4
tv283 = -108						; size = 4
tv248 = -108						; size = 4
tv218 = -108						; size = 4
tv195 = -108						; size = 4
tv174 = -108						; size = 4
tv154 = -108						; size = 4
tv134 = -108						; size = 4
tv75 = -108						; size = 4
_priority$ = -40					; size = 4
_keysite_pos$ = -36					; size = 4
_group_pos$ = -32					; size = 4
_group_type$ = -28					; size = 4
_count$ = -24						; size = 4
_enemy_side$ = -20					; size = 4
_sector$ = -16						; size = 4
_new_task$ = -12					; size = 4
_group$ = -8						; size = 4
_force$ = -4						; size = 4
_original_task$ = 8					; size = 4
_keysite$ = 12						; size = 4
_this_side$ = 16					; size = 4
?create_sead_tasks_around_keysite@@YGHPAUENTITY@@0W4ENTITY_SIDES@@@Z PROC ; create_sead_tasks_around_keysite, COMDAT

; 2543 : {

  00000	55		 push	 ebp
  00001	8b ec		 mov	 ebp, esp
  00003	81 ec 88 00 00
	00		 sub	 esp, 136		; 00000088H
  00009	53		 push	 ebx
  0000a	56		 push	 esi
  0000b	57		 push	 edi

; 2544 : 	entity
; 2545 : 		*force,
; 2546 : 		*group,
; 2547 : 		*new_task,
; 2548 : 		*sector;
; 2549 : 		
; 2550 : 	entity_sides
; 2551 : 		enemy_side;
; 2552 : 
; 2553 : 	int
; 2554 : 		count,
; 2555 : 		group_type;
; 2556 : 
; 2557 : 	vec3d
; 2558 : 		*group_pos,
; 2559 : 		*keysite_pos;
; 2560 : 
; 2561 : 	float
; 2562 : 		priority;
; 2563 : 
; 2564 : 	ASSERT (keysite);

  0000c	83 7d 0c 00	 cmp	 DWORD PTR _keysite$[ebp], 0
  00010	75 18		 jne	 SHORT $LN4@create_sea
  00012	a1 00 00 00 00	 mov	 eax, DWORD PTR ?__LINE__Var@?0??create_sead_tasks_around_keysite@@YGHPAUENTITY@@0W4ENTITY_SIDES@@@Z@4JA
  00017	83 c0 15	 add	 eax, 21			; 00000015H
  0001a	50		 push	 eax
  0001b	68 00 00 00 00	 push	 OFFSET ??_C@_0ED@GMECMFKH@c?3?2users?2nhv90?2projects?2eech?2ap@
  00020	68 00 00 00 00	 push	 OFFSET ??_C@_07FBNBNOMI@keysite@
  00025	e8 00 00 00 00	 call	 ?process_assert@@YGXPBD0H@Z ; process_assert
$LN4@create_sea:

; 2565 : 
; 2566 : 	enemy_side = (entity_sides) get_local_entity_int_value (keysite, INT_TYPE_SIDE);

  0002a	83 7d 0c 00	 cmp	 DWORD PTR _keysite$[ebp], 0
  0002e	74 0a		 je	 SHORT $LN15@create_sea
  00030	8b 45 0c	 mov	 eax, DWORD PTR _keysite$[ebp]
  00033	8b 08		 mov	 ecx, DWORD PTR [eax]
  00035	89 4d 94	 mov	 DWORD PTR tv75[ebp], ecx
  00038	eb 21		 jmp	 SHORT $LN16@create_sea
$LN15@create_sea:
  0003a	8b 15 00 00 00
	00		 mov	 edx, DWORD PTR ?__LINE__Var@?0??create_sead_tasks_around_keysite@@YGHPAUENTITY@@0W4ENTITY_SIDES@@@Z@4JA
  00040	83 c2 17	 add	 edx, 23			; 00000017H
  00043	52		 push	 edx
  00044	68 00 00 00 00	 push	 OFFSET ??_C@_0ED@GMECMFKH@c?3?2users?2nhv90?2projects?2eech?2ap@
  00049	a1 00 00 00 00	 mov	 eax, DWORD PTR ?null_entity_pointer_message@@3PBDB ; null_entity_pointer_message
  0004e	50		 push	 eax
  0004f	e8 00 00 00 00	 call	 ?process_assert@@YGXPBD0H@Z ; process_assert
  00054	c7 45 94 00 00
	00 00		 mov	 DWORD PTR tv75[ebp], 0
$LN16@create_sea:
  0005b	b9 01 00 00 00	 mov	 ecx, 1
  00060	85 c9		 test	 ecx, ecx
  00062	74 09		 je	 SHORT $LN17@create_sea
  00064	c7 45 90 bb 00
	00 00		 mov	 DWORD PTR tv83[ebp], 187 ; 000000bbH
  0006b	eb 21		 jmp	 SHORT $LN18@create_sea
$LN17@create_sea:
  0006d	8b 15 00 00 00
	00		 mov	 edx, DWORD PTR ?__LINE__Var@?0??create_sead_tasks_around_keysite@@YGHPAUENTITY@@0W4ENTITY_SIDES@@@Z@4JA
  00073	83 c2 17	 add	 edx, 23			; 00000017H
  00076	52		 push	 edx
  00077	68 00 00 00 00	 push	 OFFSET ??_C@_0ED@GMECMFKH@c?3?2users?2nhv90?2projects?2eech?2ap@
  0007c	a1 00 00 00 00	 mov	 eax, DWORD PTR ?overload_invalid_int_type_message@@3PBDB ; overload_invalid_int_type_message
  00081	50		 push	 eax
  00082	e8 00 00 00 00	 call	 ?process_assert@@YGXPBD0H@Z ; process_assert
  00087	c7 45 90 00 00
	00 00		 mov	 DWORD PTR tv83[ebp], 0
$LN18@create_sea:
  0008e	68 bb 00 00 00	 push	 187			; 000000bbH
  00093	8b 4d 0c	 mov	 ecx, DWORD PTR _keysite$[ebp]
  00096	51		 push	 ecx
  00097	69 55 94 5c 04
	00 00		 imul	 edx, DWORD PTR tv75[ebp], 1116
  0009e	8b 45 90	 mov	 eax, DWORD PTR tv83[ebp]
  000a1	8b 8c 82 00 00
	00 00		 mov	 ecx, DWORD PTR ?fn_get_local_entity_int_value@@3PAY0BBH@P6GHPAUENTITY@@W4INT_TYPES@@@ZA[edx+eax*4]
  000a8	ff d1		 call	 ecx
  000aa	89 45 ec	 mov	 DWORD PTR _enemy_side$[ebp], eax

; 2567 : 
; 2568 : 	force = get_local_force_entity (enemy_side);

  000ad	8b 45 ec	 mov	 eax, DWORD PTR _enemy_side$[ebp]
  000b0	50		 push	 eax
  000b1	e8 00 00 00 00	 call	 ?get_local_force_entity@@YGPAUENTITY@@W4ENTITY_SIDES@@@Z ; get_local_force_entity
  000b6	89 45 fc	 mov	 DWORD PTR _force$[ebp], eax

; 2569 : 
; 2570 : 	ASSERT (force);

  000b9	83 7d fc 00	 cmp	 DWORD PTR _force$[ebp], 0
  000bd	75 18		 jne	 SHORT $LN5@create_sea
  000bf	a1 00 00 00 00	 mov	 eax, DWORD PTR ?__LINE__Var@?0??create_sead_tasks_around_keysite@@YGHPAUENTITY@@0W4ENTITY_SIDES@@@Z@4JA
  000c4	83 c0 1b	 add	 eax, 27			; 0000001bH
  000c7	50		 push	 eax
  000c8	68 00 00 00 00	 push	 OFFSET ??_C@_0ED@GMECMFKH@c?3?2users?2nhv90?2projects?2eech?2ap@
  000cd	68 00 00 00 00	 push	 OFFSET ??_C@_05BINPNAAL@force@
  000d2	e8 00 00 00 00	 call	 ?process_assert@@YGXPBD0H@Z ; process_assert
$LN5@create_sea:

; 2571 : 
; 2572 : 	count = 0;

  000d7	c7 45 e8 00 00
	00 00		 mov	 DWORD PTR _count$[ebp], 0

; 2573 : 
; 2574 : 	keysite_pos = get_local_entity_vec3d_ptr (keysite, VEC3D_TYPE_POSITION);

  000de	83 7d 0c 00	 cmp	 DWORD PTR _keysite$[ebp], 0
  000e2	74 0a		 je	 SHORT $LN19@create_sea
  000e4	8b 45 0c	 mov	 eax, DWORD PTR _keysite$[ebp]
  000e7	8b 08		 mov	 ecx, DWORD PTR [eax]
  000e9	89 4d 94	 mov	 DWORD PTR tv134[ebp], ecx
  000ec	eb 21		 jmp	 SHORT $LN20@create_sea
$LN19@create_sea:
  000ee	8b 15 00 00 00
	00		 mov	 edx, DWORD PTR ?__LINE__Var@?0??create_sead_tasks_around_keysite@@YGHPAUENTITY@@0W4ENTITY_SIDES@@@Z@4JA
  000f4	83 c2 1f	 add	 edx, 31			; 0000001fH
  000f7	52		 push	 edx
  000f8	68 00 00 00 00	 push	 OFFSET ??_C@_0ED@GMECMFKH@c?3?2users?2nhv90?2projects?2eech?2ap@
  000fd	a1 00 00 00 00	 mov	 eax, DWORD PTR ?null_entity_pointer_message@@3PBDB ; null_entity_pointer_message
  00102	50		 push	 eax
  00103	e8 00 00 00 00	 call	 ?process_assert@@YGXPBD0H@Z ; process_assert
  00108	c7 45 94 00 00
	00 00		 mov	 DWORD PTR tv134[ebp], 0
$LN20@create_sea:
  0010f	b9 01 00 00 00	 mov	 ecx, 1
  00114	85 c9		 test	 ecx, ecx
  00116	74 09		 je	 SHORT $LN21@create_sea
  00118	c7 45 90 08 00
	00 00		 mov	 DWORD PTR tv142[ebp], 8
  0011f	eb 21		 jmp	 SHORT $LN22@create_sea
$LN21@create_sea:
  00121	8b 15 00 00 00
	00		 mov	 edx, DWORD PTR ?__LINE__Var@?0??create_sead_tasks_around_keysite@@YGHPAUENTITY@@0W4ENTITY_SIDES@@@Z@4JA
  00127	83 c2 1f	 add	 edx, 31			; 0000001fH
  0012a	52		 push	 edx
  0012b	68 00 00 00 00	 push	 OFFSET ??_C@_0ED@GMECMFKH@c?3?2users?2nhv90?2projects?2eech?2ap@
  00130	a1 00 00 00 00	 mov	 eax, DWORD PTR ?overload_invalid_vec3d_type_message@@3PBDB ; overload_invalid_vec3d_type_message
  00135	50		 push	 eax
  00136	e8 00 00 00 00	 call	 ?process_assert@@YGXPBD0H@Z ; process_assert
  0013b	c7 45 90 00 00
	00 00		 mov	 DWORD PTR tv142[ebp], 0
$LN22@create_sea:
  00142	6a 08		 push	 8
  00144	8b 4d 0c	 mov	 ecx, DWORD PTR _keysite$[ebp]
  00147	51		 push	 ecx
  00148	6b 55 94 60	 imul	 edx, DWORD PTR tv134[ebp], 96
  0014c	8b 45 90	 mov	 eax, DWORD PTR tv142[ebp]
  0014f	8b 8c 82 00 00
	00 00		 mov	 ecx, DWORD PTR ?fn_get_local_entity_vec3d_ptr@@3PAY0BI@P6GPAUVEC3D@@PAUENTITY@@W4VEC3D_TYPES@@@ZA[edx+eax*4]
  00156	ff d1		 call	 ecx
  00158	89 45 dc	 mov	 DWORD PTR _keysite_pos$[ebp], eax

; 2575 : 
; 2576 : 	priority = get_local_entity_float_value (original_task, FLOAT_TYPE_TASK_PRIORITY);

  0015b	83 7d 08 00	 cmp	 DWORD PTR _original_task$[ebp], 0
  0015f	74 0a		 je	 SHORT $LN23@create_sea
  00161	8b 45 08	 mov	 eax, DWORD PTR _original_task$[ebp]
  00164	8b 08		 mov	 ecx, DWORD PTR [eax]
  00166	89 4d 94	 mov	 DWORD PTR tv154[ebp], ecx
  00169	eb 21		 jmp	 SHORT $LN24@create_sea
$LN23@create_sea:
  0016b	8b 15 00 00 00
	00		 mov	 edx, DWORD PTR ?__LINE__Var@?0??create_sead_tasks_around_keysite@@YGHPAUENTITY@@0W4ENTITY_SIDES@@@Z@4JA
  00171	83 c2 21	 add	 edx, 33			; 00000021H
  00174	52		 push	 edx
  00175	68 00 00 00 00	 push	 OFFSET ??_C@_0ED@GMECMFKH@c?3?2users?2nhv90?2projects?2eech?2ap@
  0017a	a1 00 00 00 00	 mov	 eax, DWORD PTR ?null_entity_pointer_message@@3PBDB ; null_entity_pointer_message
  0017f	50		 push	 eax
  00180	e8 00 00 00 00	 call	 ?process_assert@@YGXPBD0H@Z ; process_assert
  00185	c7 45 94 00 00
	00 00		 mov	 DWORD PTR tv154[ebp], 0
$LN24@create_sea:
  0018c	b9 01 00 00 00	 mov	 ecx, 1
  00191	85 c9		 test	 ecx, ecx
  00193	74 09		 je	 SHORT $LN25@create_sea
  00195	c7 45 90 8a 00
	00 00		 mov	 DWORD PTR tv162[ebp], 138 ; 0000008aH
  0019c	eb 21		 jmp	 SHORT $LN26@create_sea
$LN25@create_sea:
  0019e	8b 15 00 00 00
	00		 mov	 edx, DWORD PTR ?__LINE__Var@?0??create_sead_tasks_around_keysite@@YGHPAUENTITY@@0W4ENTITY_SIDES@@@Z@4JA
  001a4	83 c2 21	 add	 edx, 33			; 00000021H
  001a7	52		 push	 edx
  001a8	68 00 00 00 00	 push	 OFFSET ??_C@_0ED@GMECMFKH@c?3?2users?2nhv90?2projects?2eech?2ap@
  001ad	a1 00 00 00 00	 mov	 eax, DWORD PTR ?overload_invalid_float_type_message@@3PBDB ; overload_invalid_float_type_message
  001b2	50		 push	 eax
  001b3	e8 00 00 00 00	 call	 ?process_assert@@YGXPBD0H@Z ; process_assert
  001b8	c7 45 90 00 00
	00 00		 mov	 DWORD PTR tv162[ebp], 0
$LN26@create_sea:
  001bf	68 8a 00 00 00	 push	 138			; 0000008aH
  001c4	8b 4d 08	 mov	 ecx, DWORD PTR _original_task$[ebp]
  001c7	51		 push	 ecx
  001c8	69 55 94 bc 02
	00 00		 imul	 edx, DWORD PTR tv154[ebp], 700
  001cf	8b 45 90	 mov	 eax, DWORD PTR tv162[ebp]
  001d2	8b 8c 82 00 00
	00 00		 mov	 ecx, DWORD PTR ?fn_get_local_entity_float_value@@3PAY0KP@P6GMPAUENTITY@@W4FLOAT_TYPES@@@ZA[edx+eax*4]
  001d9	ff d1		 call	 ecx
  001db	d9 5d d8	 fstp	 DWORD PTR _priority$[ebp]

; 2577 : 	
; 2578 : 	group = get_local_entity_first_child (force, LIST_TYPE_INDEPENDENT_GROUP);

  001de	83 7d fc 00	 cmp	 DWORD PTR _force$[ebp], 0
  001e2	74 0a		 je	 SHORT $LN27@create_sea
  001e4	8b 45 fc	 mov	 eax, DWORD PTR _force$[ebp]
  001e7	8b 08		 mov	 ecx, DWORD PTR [eax]
  001e9	89 4d 94	 mov	 DWORD PTR tv174[ebp], ecx
  001ec	eb 21		 jmp	 SHORT $LN28@create_sea
$LN27@create_sea:
  001ee	8b 15 00 00 00
	00		 mov	 edx, DWORD PTR ?__LINE__Var@?0??create_sead_tasks_around_keysite@@YGHPAUENTITY@@0W4ENTITY_SIDES@@@Z@4JA
  001f4	83 c2 23	 add	 edx, 35			; 00000023H
  001f7	52		 push	 edx
  001f8	68 00 00 00 00	 push	 OFFSET ??_C@_0ED@GMECMFKH@c?3?2users?2nhv90?2projects?2eech?2ap@
  001fd	a1 00 00 00 00	 mov	 eax, DWORD PTR ?null_entity_pointer_message@@3PBDB ; null_entity_pointer_message
  00202	50		 push	 eax
  00203	e8 00 00 00 00	 call	 ?process_assert@@YGXPBD0H@Z ; process_assert
  00208	c7 45 94 00 00
	00 00		 mov	 DWORD PTR tv174[ebp], 0
$LN28@create_sea:
  0020f	b9 01 00 00 00	 mov	 ecx, 1
  00214	85 c9		 test	 ecx, ecx
  00216	74 09		 je	 SHORT $LN29@create_sea
  00218	c7 45 90 14 00
	00 00		 mov	 DWORD PTR tv182[ebp], 20 ; 00000014H
  0021f	eb 21		 jmp	 SHORT $LN30@create_sea
$LN29@create_sea:
  00221	8b 15 00 00 00
	00		 mov	 edx, DWORD PTR ?__LINE__Var@?0??create_sead_tasks_around_keysite@@YGHPAUENTITY@@0W4ENTITY_SIDES@@@Z@4JA
  00227	83 c2 23	 add	 edx, 35			; 00000023H
  0022a	52		 push	 edx
  0022b	68 00 00 00 00	 push	 OFFSET ??_C@_0ED@GMECMFKH@c?3?2users?2nhv90?2projects?2eech?2ap@
  00230	a1 00 00 00 00	 mov	 eax, DWORD PTR ?overload_invalid_list_type_message@@3PBDB ; overload_invalid_list_type_message
  00235	50		 push	 eax
  00236	e8 00 00 00 00	 call	 ?process_assert@@YGXPBD0H@Z ; process_assert
  0023b	c7 45 90 00 00
	00 00		 mov	 DWORD PTR tv182[ebp], 0
$LN30@create_sea:
  00242	6a 14		 push	 20			; 00000014H
  00244	8b 4d fc	 mov	 ecx, DWORD PTR _force$[ebp]
  00247	51		 push	 ecx
  00248	69 55 94 b4 00
	00 00		 imul	 edx, DWORD PTR tv174[ebp], 180
  0024f	8b 45 90	 mov	 eax, DWORD PTR tv182[ebp]
  00252	8b 8c 82 00 00
	00 00		 mov	 ecx, DWORD PTR ?fn_get_local_entity_first_child@@3PAY0CN@P6GPAUENTITY@@PAU1@W4LIST_TYPES@@@ZA[edx+eax*4]
  00259	ff d1		 call	 ecx
  0025b	89 45 f8	 mov	 DWORD PTR _group$[ebp], eax
$LN2@create_sea:

; 2579 : 
; 2580 : 	while (group)

  0025e	83 7d f8 00	 cmp	 DWORD PTR _group$[ebp], 0
  00262	0f 84 47 05 00
	00		 je	 $LN3@create_sea

; 2581 : 	{
; 2582 : 		group_type = get_local_entity_int_value (group, INT_TYPE_ENTITY_SUB_TYPE);

  00268	83 7d f8 00	 cmp	 DWORD PTR _group$[ebp], 0
  0026c	74 0a		 je	 SHORT $LN31@create_sea
  0026e	8b 45 f8	 mov	 eax, DWORD PTR _group$[ebp]
  00271	8b 08		 mov	 ecx, DWORD PTR [eax]
  00273	89 4d 94	 mov	 DWORD PTR tv195[ebp], ecx
  00276	eb 21		 jmp	 SHORT $LN32@create_sea
$LN31@create_sea:
  00278	8b 15 00 00 00
	00		 mov	 edx, DWORD PTR ?__LINE__Var@?0??create_sead_tasks_around_keysite@@YGHPAUENTITY@@0W4ENTITY_SIDES@@@Z@4JA
  0027e	83 c2 27	 add	 edx, 39			; 00000027H
  00281	52		 push	 edx
  00282	68 00 00 00 00	 push	 OFFSET ??_C@_0ED@GMECMFKH@c?3?2users?2nhv90?2projects?2eech?2ap@
  00287	a1 00 00 00 00	 mov	 eax, DWORD PTR ?null_entity_pointer_message@@3PBDB ; null_entity_pointer_message
  0028c	50		 push	 eax
  0028d	e8 00 00 00 00	 call	 ?process_assert@@YGXPBD0H@Z ; process_assert
  00292	c7 45 94 00 00
	00 00		 mov	 DWORD PTR tv195[ebp], 0
$LN32@create_sea:
  00299	b9 01 00 00 00	 mov	 ecx, 1
  0029e	85 c9		 test	 ecx, ecx
  002a0	74 09		 je	 SHORT $LN33@create_sea
  002a2	c7 45 90 34 00
	00 00		 mov	 DWORD PTR tv203[ebp], 52 ; 00000034H
  002a9	eb 21		 jmp	 SHORT $LN34@create_sea
$LN33@create_sea:
  002ab	8b 15 00 00 00
	00		 mov	 edx, DWORD PTR ?__LINE__Var@?0??create_sead_tasks_around_keysite@@YGHPAUENTITY@@0W4ENTITY_SIDES@@@Z@4JA
  002b1	83 c2 27	 add	 edx, 39			; 00000027H
  002b4	52		 push	 edx
  002b5	68 00 00 00 00	 push	 OFFSET ??_C@_0ED@GMECMFKH@c?3?2users?2nhv90?2projects?2eech?2ap@
  002ba	a1 00 00 00 00	 mov	 eax, DWORD PTR ?overload_invalid_int_type_message@@3PBDB ; overload_invalid_int_type_message
  002bf	50		 push	 eax
  002c0	e8 00 00 00 00	 call	 ?process_assert@@YGXPBD0H@Z ; process_assert
  002c5	c7 45 90 00 00
	00 00		 mov	 DWORD PTR tv203[ebp], 0
$LN34@create_sea:
  002cc	6a 34		 push	 52			; 00000034H
  002ce	8b 4d f8	 mov	 ecx, DWORD PTR _group$[ebp]
  002d1	51		 push	 ecx
  002d2	69 55 94 5c 04
	00 00		 imul	 edx, DWORD PTR tv195[ebp], 1116
  002d9	8b 45 90	 mov	 eax, DWORD PTR tv203[ebp]
  002dc	8b 8c 82 00 00
	00 00		 mov	 ecx, DWORD PTR ?fn_get_local_entity_int_value@@3PAY0BBH@P6GHPAUENTITY@@W4INT_TYPES@@@ZA[edx+eax*4]
  002e3	ff d1		 call	 ecx
  002e5	89 45 e4	 mov	 DWORD PTR _group_type$[ebp], eax

; 2583 : 		
; 2584 : 		//
; 2585 : 		// check group is AA
; 2586 : 		//
; 2587 : 
; 2588 : 		if (group_database [group_type].default_entity_type == ENTITY_TYPE_ANTI_AIRCRAFT)

  002e8	6b 45 e4 64	 imul	 eax, DWORD PTR _group_type$[ebp], 100
  002ec	83 b8 1c 00 00
	00 01		 cmp	 DWORD PTR ?group_database@@3PAUGROUP_DATA@@A[eax+28], 1
  002f3	0f 85 31 04 00
	00		 jne	 $LN13@create_sea

; 2589 : 		{
; 2590 : 			//
; 2591 : 			// check group is alive
; 2592 : 			//
; 2593 : 
; 2594 : 			if (get_local_entity_int_value (group, INT_TYPE_ALIVE))

  002f9	83 7d f8 00	 cmp	 DWORD PTR _group$[ebp], 0
  002fd	74 0a		 je	 SHORT $LN35@create_sea
  002ff	8b 45 f8	 mov	 eax, DWORD PTR _group$[ebp]
  00302	8b 08		 mov	 ecx, DWORD PTR [eax]
  00304	89 4d 94	 mov	 DWORD PTR tv218[ebp], ecx
  00307	eb 1d		 jmp	 SHORT $LN36@create_sea
$LN35@create_sea:
  00309	68 22 0a 00 00	 push	 2594			; 00000a22H
  0030e	68 00 00 00 00	 push	 OFFSET ??_C@_0ED@GMECMFKH@c?3?2users?2nhv90?2projects?2eech?2ap@
  00313	8b 15 00 00 00
	00		 mov	 edx, DWORD PTR ?null_entity_pointer_message@@3PBDB ; null_entity_pointer_message
  00319	52		 push	 edx
  0031a	e8 00 00 00 00	 call	 ?process_assert@@YGXPBD0H@Z ; process_assert
  0031f	c7 45 94 00 00
	00 00		 mov	 DWORD PTR tv218[ebp], 0
$LN36@create_sea:
  00326	b8 01 00 00 00	 mov	 eax, 1
  0032b	85 c0		 test	 eax, eax
  0032d	74 09		 je	 SHORT $LN37@create_sea
  0032f	c7 45 90 07 00
	00 00		 mov	 DWORD PTR tv225[ebp], 7
  00336	eb 1d		 jmp	 SHORT $LN38@create_sea
$LN37@create_sea:
  00338	68 22 0a 00 00	 push	 2594			; 00000a22H
  0033d	68 00 00 00 00	 push	 OFFSET ??_C@_0ED@GMECMFKH@c?3?2users?2nhv90?2projects?2eech?2ap@
  00342	8b 0d 00 00 00
	00		 mov	 ecx, DWORD PTR ?overload_invalid_int_type_message@@3PBDB ; overload_invalid_int_type_message
  00348	51		 push	 ecx
  00349	e8 00 00 00 00	 call	 ?process_assert@@YGXPBD0H@Z ; process_assert
  0034e	c7 45 90 00 00
	00 00		 mov	 DWORD PTR tv225[ebp], 0
$LN38@create_sea:
  00355	6a 07		 push	 7
  00357	8b 55 f8	 mov	 edx, DWORD PTR _group$[ebp]
  0035a	52		 push	 edx
  0035b	69 45 94 5c 04
	00 00		 imul	 eax, DWORD PTR tv218[ebp], 1116
  00362	8b 4d 90	 mov	 ecx, DWORD PTR tv225[ebp]
  00365	8b 94 88 00 00
	00 00		 mov	 edx, DWORD PTR ?fn_get_local_entity_int_value@@3PAY0BBH@P6GHPAUENTITY@@W4INT_TYPES@@@ZA[eax+ecx*4]
  0036c	ff d2		 call	 edx
  0036e	85 c0		 test	 eax, eax
  00370	0f 84 b4 03 00
	00		 je	 $LN13@create_sea

; 2595 : 			{
; 2596 : 				//
; 2597 : 				// check group is not already subject of task
; 2598 : 				//
; 2599 : 
; 2600 : 				if ((!entity_is_object_of_task (group, ENTITY_SUB_TYPE_TASK_SEAD, this_side)) &&

  00376	8b 45 10	 mov	 eax, DWORD PTR _this_side$[ebp]
  00379	50		 push	 eax
  0037a	6a 14		 push	 20			; 00000014H
  0037c	8b 4d f8	 mov	 ecx, DWORD PTR _group$[ebp]
  0037f	51		 push	 ecx
  00380	e8 00 00 00 00	 call	 ?entity_is_object_of_task@@YGHPAUENTITY@@HW4ENTITY_SIDES@@@Z ; entity_is_object_of_task
  00385	85 c0		 test	 eax, eax
  00387	0f 85 9d 03 00
	00		 jne	 $LN13@create_sea
  0038d	8b 45 10	 mov	 eax, DWORD PTR _this_side$[ebp]
  00390	50		 push	 eax
  00391	6a 11		 push	 17			; 00000011H
  00393	8b 4d f8	 mov	 ecx, DWORD PTR _group$[ebp]
  00396	51		 push	 ecx
  00397	e8 00 00 00 00	 call	 ?entity_is_object_of_task@@YGHPAUENTITY@@HW4ENTITY_SIDES@@@Z ; entity_is_object_of_task
  0039c	85 c0		 test	 eax, eax
  0039e	0f 85 86 03 00
	00		 jne	 $LN13@create_sea

; 2601 : 						(!entity_is_object_of_task (group, ENTITY_SUB_TYPE_TASK_RECON, this_side)))
; 2602 : 				{
; 2603 : 					//
; 2604 : 					// check range from keysite
; 2605 : 					//
; 2606 : 
; 2607 : 					group_pos = get_local_entity_vec3d_ptr (group, VEC3D_TYPE_POSITION);

  003a4	83 7d f8 00	 cmp	 DWORD PTR _group$[ebp], 0
  003a8	74 0a		 je	 SHORT $LN39@create_sea
  003aa	8b 45 f8	 mov	 eax, DWORD PTR _group$[ebp]
  003ad	8b 08		 mov	 ecx, DWORD PTR [eax]
  003af	89 4d 94	 mov	 DWORD PTR tv248[ebp], ecx
  003b2	eb 21		 jmp	 SHORT $LN40@create_sea
$LN39@create_sea:
  003b4	8b 15 00 00 00
	00		 mov	 edx, DWORD PTR ?__LINE__Var@?0??create_sead_tasks_around_keysite@@YGHPAUENTITY@@0W4ENTITY_SIDES@@@Z@4JA
  003ba	83 c2 40	 add	 edx, 64			; 00000040H
  003bd	52		 push	 edx
  003be	68 00 00 00 00	 push	 OFFSET ??_C@_0ED@GMECMFKH@c?3?2users?2nhv90?2projects?2eech?2ap@
  003c3	a1 00 00 00 00	 mov	 eax, DWORD PTR ?null_entity_pointer_message@@3PBDB ; null_entity_pointer_message
  003c8	50		 push	 eax
  003c9	e8 00 00 00 00	 call	 ?process_assert@@YGXPBD0H@Z ; process_assert
  003ce	c7 45 94 00 00
	00 00		 mov	 DWORD PTR tv248[ebp], 0
$LN40@create_sea:
  003d5	b9 01 00 00 00	 mov	 ecx, 1
  003da	85 c9		 test	 ecx, ecx
  003dc	74 09		 je	 SHORT $LN41@create_sea
  003de	c7 45 90 08 00
	00 00		 mov	 DWORD PTR tv256[ebp], 8
  003e5	eb 21		 jmp	 SHORT $LN42@create_sea
$LN41@create_sea:
  003e7	8b 15 00 00 00
	00		 mov	 edx, DWORD PTR ?__LINE__Var@?0??create_sead_tasks_around_keysite@@YGHPAUENTITY@@0W4ENTITY_SIDES@@@Z@4JA
  003ed	83 c2 40	 add	 edx, 64			; 00000040H
  003f0	52		 push	 edx
  003f1	68 00 00 00 00	 push	 OFFSET ??_C@_0ED@GMECMFKH@c?3?2users?2nhv90?2projects?2eech?2ap@
  003f6	a1 00 00 00 00	 mov	 eax, DWORD PTR ?overload_invalid_vec3d_type_message@@3PBDB ; overload_invalid_vec3d_type_message
  003fb	50		 push	 eax
  003fc	e8 00 00 00 00	 call	 ?process_assert@@YGXPBD0H@Z ; process_assert
  00401	c7 45 90 00 00
	00 00		 mov	 DWORD PTR tv256[ebp], 0
$LN42@create_sea:
  00408	6a 08		 push	 8
  0040a	8b 4d f8	 mov	 ecx, DWORD PTR _group$[ebp]
  0040d	51		 push	 ecx
  0040e	6b 55 94 60	 imul	 edx, DWORD PTR tv248[ebp], 96
  00412	8b 45 90	 mov	 eax, DWORD PTR tv256[ebp]
  00415	8b 8c 82 00 00
	00 00		 mov	 ecx, DWORD PTR ?fn_get_local_entity_vec3d_ptr@@3PAY0BI@P6GPAUVEC3D@@PAUENTITY@@W4VEC3D_TYPES@@@ZA[edx+eax*4]
  0041c	ff d1		 call	 ecx
  0041e	89 45 e0	 mov	 DWORD PTR _group_pos$[ebp], eax

; 2608 : 
; 2609 : 					if (get_sqr_2d_range (group_pos, keysite_pos) < (MAX_KEYSITE_SEAD_RANGE * MAX_KEYSITE_SEAD_RANGE))

  00421	8b 45 dc	 mov	 eax, DWORD PTR _keysite_pos$[ebp]
  00424	50		 push	 eax
  00425	8b 4d e0	 mov	 ecx, DWORD PTR _group_pos$[ebp]
  00428	51		 push	 ecx
  00429	e8 00 00 00 00	 call	 ?get_sqr_2d_range@@YGMPBUVEC3D@@0@Z ; get_sqr_2d_range
  0042e	dd 5d 90	 fstp	 QWORD PTR tv496[ebp]
  00431	f2 0f 10 05 00
	00 00 00	 movsd	 xmm0, QWORD PTR __real@416e848000000000
  00439	66 0f 2f 45 90	 comisd	 xmm0, QWORD PTR tv496[ebp]
  0043e	0f 86 e6 02 00
	00		 jbe	 $LN13@create_sea

; 2610 : 					{
; 2611 : 						//
; 2612 : 						// check fog of war
; 2613 : 						//		
; 2614 : 
; 2615 : 						sector = get_local_sector_entity (group_pos);

  00444	8b 45 e0	 mov	 eax, DWORD PTR _group_pos$[ebp]
  00447	50		 push	 eax
  00448	e8 00 00 00 00	 call	 ?get_local_sector_entity@@YGPAUENTITY@@PAUVEC3D@@@Z ; get_local_sector_entity
  0044d	89 45 f0	 mov	 DWORD PTR _sector$[ebp], eax

; 2616 : 
; 2617 : 						ASSERT (sector);

  00450	83 7d f0 00	 cmp	 DWORD PTR _sector$[ebp], 0
  00454	75 18		 jne	 SHORT $LN10@create_sea
  00456	a1 00 00 00 00	 mov	 eax, DWORD PTR ?__LINE__Var@?0??create_sead_tasks_around_keysite@@YGHPAUENTITY@@0W4ENTITY_SIDES@@@Z@4JA
  0045b	83 c0 4a	 add	 eax, 74			; 0000004aH
  0045e	50		 push	 eax
  0045f	68 00 00 00 00	 push	 OFFSET ??_C@_0ED@GMECMFKH@c?3?2users?2nhv90?2projects?2eech?2ap@
  00464	68 00 00 00 00	 push	 OFFSET ??_C@_06IDGHNJOB@sector@
  00469	e8 00 00 00 00	 call	 ?process_assert@@YGXPBD0H@Z ; process_assert
$LN10@create_sea:

; 2618 : 			
; 2619 : 						if (get_sector_fog_of_war_value (sector, this_side) > (0.25 * get_local_entity_float_value (get_session_entity (), FLOAT_TYPE_FOG_OF_WAR_MAXIMUM_VALUE)))

  0046e	83 3d 00 00 00
	00 00		 cmp	 DWORD PTR ?session_entity@@3PAUENTITY@@A, 0 ; session_entity
  00475	74 0c		 je	 SHORT $LN43@create_sea
  00477	a1 00 00 00 00	 mov	 eax, DWORD PTR ?session_entity@@3PAUENTITY@@A ; session_entity
  0047c	8b 08		 mov	 ecx, DWORD PTR [eax]
  0047e	89 4d 94	 mov	 DWORD PTR tv283[ebp], ecx
  00481	eb 1d		 jmp	 SHORT $LN44@create_sea
$LN43@create_sea:
  00483	68 3b 0a 00 00	 push	 2619			; 00000a3bH
  00488	68 00 00 00 00	 push	 OFFSET ??_C@_0ED@GMECMFKH@c?3?2users?2nhv90?2projects?2eech?2ap@
  0048d	8b 15 00 00 00
	00		 mov	 edx, DWORD PTR ?null_entity_pointer_message@@3PBDB ; null_entity_pointer_message
  00493	52		 push	 edx
  00494	e8 00 00 00 00	 call	 ?process_assert@@YGXPBD0H@Z ; process_assert
  00499	c7 45 94 00 00
	00 00		 mov	 DWORD PTR tv283[ebp], 0
$LN44@create_sea:
  004a0	b8 01 00 00 00	 mov	 eax, 1
  004a5	85 c0		 test	 eax, eax
  004a7	74 09		 je	 SHORT $LN45@create_sea
  004a9	c7 45 90 2c 00
	00 00		 mov	 DWORD PTR tv290[ebp], 44 ; 0000002cH
  004b0	eb 1d		 jmp	 SHORT $LN46@create_sea
$LN45@create_sea:
  004b2	68 3b 0a 00 00	 push	 2619			; 00000a3bH
  004b7	68 00 00 00 00	 push	 OFFSET ??_C@_0ED@GMECMFKH@c?3?2users?2nhv90?2projects?2eech?2ap@
  004bc	8b 0d 00 00 00
	00		 mov	 ecx, DWORD PTR ?overload_invalid_float_type_message@@3PBDB ; overload_invalid_float_type_message
  004c2	51		 push	 ecx
  004c3	e8 00 00 00 00	 call	 ?process_assert@@YGXPBD0H@Z ; process_assert
  004c8	c7 45 90 00 00
	00 00		 mov	 DWORD PTR tv290[ebp], 0
$LN46@create_sea:
  004cf	8b 55 10	 mov	 edx, DWORD PTR _this_side$[ebp]
  004d2	52		 push	 edx
  004d3	8b 45 f0	 mov	 eax, DWORD PTR _sector$[ebp]
  004d6	50		 push	 eax
  004d7	e8 00 00 00 00	 call	 ?get_sector_fog_of_war_value@@YGMPAUENTITY@@W4ENTITY_SIDES@@@Z ; get_sector_fog_of_war_value
  004dc	dd 5d 88	 fstp	 QWORD PTR tv512[ebp]
  004df	f2 0f 10 45 88	 movsd	 xmm0, QWORD PTR tv512[ebp]
  004e4	6a 2c		 push	 44			; 0000002cH
  004e6	8b 0d 00 00 00
	00		 mov	 ecx, DWORD PTR ?session_entity@@3PAUENTITY@@A ; session_entity
  004ec	51		 push	 ecx
  004ed	69 55 94 bc 02
	00 00		 imul	 edx, DWORD PTR tv283[ebp], 700
  004f4	8b 45 90	 mov	 eax, DWORD PTR tv290[ebp]
  004f7	8b 8c 82 00 00
	00 00		 mov	 ecx, DWORD PTR ?fn_get_local_entity_float_value@@3PAY0KP@P6GMPAUENTITY@@W4FLOAT_TYPES@@@ZA[edx+eax*4]
  004fe	f2 0f 11 45 80	 movsd	 QWORD PTR tv580[ebp], xmm0
  00503	ff d1		 call	 ecx
  00505	dd 9d 78 ff ff
	ff		 fstp	 QWORD PTR tv520[ebp]
  0050b	f2 0f 10 85 78
	ff ff ff	 movsd	 xmm0, QWORD PTR tv520[ebp]
  00513	f2 0f 59 05 00
	00 00 00	 mulsd	 xmm0, QWORD PTR __real@3fd0000000000000
  0051b	f2 0f 10 4d 80	 movsd	 xmm1, QWORD PTR tv580[ebp]
  00520	66 0f 2f c8	 comisd	 xmm1, xmm0
  00524	0f 86 00 02 00
	00		 jbe	 $LN13@create_sea

; 2620 : 						{
; 2621 : 							//
; 2622 : 							// create task
; 2623 : 							//
; 2624 : 
; 2625 : 							new_task = create_sead_task (this_side, group, original_task, TRUE, priority, NULL, NULL);

  0052a	6a 00		 push	 0
  0052c	6a 00		 push	 0
  0052e	51		 push	 ecx
  0052f	f3 0f 10 45 d8	 movss	 xmm0, DWORD PTR _priority$[ebp]
  00534	f3 0f 11 04 24	 movss	 DWORD PTR [esp], xmm0
  00539	6a 01		 push	 1
  0053b	8b 45 08	 mov	 eax, DWORD PTR _original_task$[ebp]
  0053e	50		 push	 eax
  0053f	8b 4d f8	 mov	 ecx, DWORD PTR _group$[ebp]
  00542	51		 push	 ecx
  00543	8b 55 10	 mov	 edx, DWORD PTR _this_side$[ebp]
  00546	52		 push	 edx
  00547	e8 00 00 00 00	 call	 ?create_sead_task@@YGPAUENTITY@@W4ENTITY_SIDES@@PAU1@1HM11@Z ; create_sead_task
  0054c	89 45 f4	 mov	 DWORD PTR _new_task$[ebp], eax

; 2626 : 
; 2627 : 							if (new_task)

  0054f	83 7d f4 00	 cmp	 DWORD PTR _new_task$[ebp], 0
  00553	0f 84 ba 01 00
	00		 je	 $LN12@create_sea

; 2628 : 							{
; 2629 : 								ai_log ("(TASK) Side %s : Created SEAD #%d (%d) at %s in reaction to %s",

  00559	83 7d 08 00	 cmp	 DWORD PTR _original_task$[ebp], 0
  0055d	74 0a		 je	 SHORT $LN47@create_sea
  0055f	8b 45 08	 mov	 eax, DWORD PTR _original_task$[ebp]
  00562	8b 08		 mov	 ecx, DWORD PTR [eax]
  00564	89 4d 94	 mov	 DWORD PTR tv314[ebp], ecx
  00567	eb 21		 jmp	 SHORT $LN48@create_sea
$LN47@create_sea:
  00569	8b 15 00 00 00
	00		 mov	 edx, DWORD PTR ?__LINE__Var@?0??create_sead_tasks_around_keysite@@YGHPAUENTITY@@0W4ENTITY_SIDES@@@Z@4JA
  0056f	83 c2 5b	 add	 edx, 91			; 0000005bH
  00572	52		 push	 edx
  00573	68 00 00 00 00	 push	 OFFSET ??_C@_0ED@GMECMFKH@c?3?2users?2nhv90?2projects?2eech?2ap@
  00578	a1 00 00 00 00	 mov	 eax, DWORD PTR ?null_entity_pointer_message@@3PBDB ; null_entity_pointer_message
  0057d	50		 push	 eax
  0057e	e8 00 00 00 00	 call	 ?process_assert@@YGXPBD0H@Z ; process_assert
  00583	c7 45 94 00 00
	00 00		 mov	 DWORD PTR tv314[ebp], 0
$LN48@create_sea:
  0058a	b9 01 00 00 00	 mov	 ecx, 1
  0058f	85 c9		 test	 ecx, ecx
  00591	74 09		 je	 SHORT $LN49@create_sea
  00593	c7 45 90 03 00
	00 00		 mov	 DWORD PTR tv322[ebp], 3
  0059a	eb 21		 jmp	 SHORT $LN50@create_sea
$LN49@create_sea:
  0059c	8b 15 00 00 00
	00		 mov	 edx, DWORD PTR ?__LINE__Var@?0??create_sead_tasks_around_keysite@@YGHPAUENTITY@@0W4ENTITY_SIDES@@@Z@4JA
  005a2	83 c2 5b	 add	 edx, 91			; 0000005bH
  005a5	52		 push	 edx
  005a6	68 00 00 00 00	 push	 OFFSET ??_C@_0ED@GMECMFKH@c?3?2users?2nhv90?2projects?2eech?2ap@
  005ab	a1 00 00 00 00	 mov	 eax, DWORD PTR ?overload_invalid_string_type_message@@3PBDB ; overload_invalid_string_type_message
  005b0	50		 push	 eax
  005b1	e8 00 00 00 00	 call	 ?process_assert@@YGXPBD0H@Z ; process_assert
  005b6	c7 45 90 00 00
	00 00		 mov	 DWORD PTR tv322[ebp], 0
$LN50@create_sea:
  005bd	83 7d 0c 00	 cmp	 DWORD PTR _keysite$[ebp], 0
  005c1	74 0a		 je	 SHORT $LN51@create_sea
  005c3	8b 4d 0c	 mov	 ecx, DWORD PTR _keysite$[ebp]
  005c6	8b 11		 mov	 edx, DWORD PTR [ecx]
  005c8	89 55 8c	 mov	 DWORD PTR tv335[ebp], edx
  005cb	eb 21		 jmp	 SHORT $LN52@create_sea
$LN51@create_sea:
  005cd	a1 00 00 00 00	 mov	 eax, DWORD PTR ?__LINE__Var@?0??create_sead_tasks_around_keysite@@YGHPAUENTITY@@0W4ENTITY_SIDES@@@Z@4JA
  005d2	83 c0 5a	 add	 eax, 90			; 0000005aH
  005d5	50		 push	 eax
  005d6	68 00 00 00 00	 push	 OFFSET ??_C@_0ED@GMECMFKH@c?3?2users?2nhv90?2projects?2eech?2ap@
  005db	8b 0d 00 00 00
	00		 mov	 ecx, DWORD PTR ?null_entity_pointer_message@@3PBDB ; null_entity_pointer_message
  005e1	51		 push	 ecx
  005e2	e8 00 00 00 00	 call	 ?process_assert@@YGXPBD0H@Z ; process_assert
  005e7	c7 45 8c 00 00
	00 00		 mov	 DWORD PTR tv335[ebp], 0
$LN52@create_sea:
  005ee	ba 01 00 00 00	 mov	 edx, 1
  005f3	85 d2		 test	 edx, edx
  005f5	74 09		 je	 SHORT $LN53@create_sea
  005f7	c7 45 88 07 00
	00 00		 mov	 DWORD PTR tv343[ebp], 7
  005fe	eb 21		 jmp	 SHORT $LN54@create_sea
$LN53@create_sea:
  00600	a1 00 00 00 00	 mov	 eax, DWORD PTR ?__LINE__Var@?0??create_sead_tasks_around_keysite@@YGHPAUENTITY@@0W4ENTITY_SIDES@@@Z@4JA
  00605	83 c0 5a	 add	 eax, 90			; 0000005aH
  00608	50		 push	 eax
  00609	68 00 00 00 00	 push	 OFFSET ??_C@_0ED@GMECMFKH@c?3?2users?2nhv90?2projects?2eech?2ap@
  0060e	8b 0d 00 00 00
	00		 mov	 ecx, DWORD PTR ?overload_invalid_string_type_message@@3PBDB ; overload_invalid_string_type_message
  00614	51		 push	 ecx
  00615	e8 00 00 00 00	 call	 ?process_assert@@YGXPBD0H@Z ; process_assert
  0061a	c7 45 88 00 00
	00 00		 mov	 DWORD PTR tv343[ebp], 0
$LN54@create_sea:
  00621	83 7d f4 00	 cmp	 DWORD PTR _new_task$[ebp], 0
  00625	74 11		 je	 SHORT $LN55@create_sea
  00627	8b 55 f4	 mov	 edx, DWORD PTR _new_task$[ebp]
  0062a	2b 15 00 00 00
	00		 sub	 edx, DWORD PTR ?entities@@3PAUENTITY@@A ; entities
  00630	c1 fa 04	 sar	 edx, 4
  00633	89 55 84	 mov	 DWORD PTR tv353[ebp], edx
  00636	eb 07		 jmp	 SHORT $LN56@create_sea
$LN55@create_sea:
  00638	c7 45 84 ff ff
	ff ff		 mov	 DWORD PTR tv353[ebp], -1
$LN56@create_sea:
  0063f	83 7d f4 00	 cmp	 DWORD PTR _new_task$[ebp], 0
  00643	74 0a		 je	 SHORT $LN57@create_sea
  00645	8b 45 f4	 mov	 eax, DWORD PTR _new_task$[ebp]
  00648	8b 08		 mov	 ecx, DWORD PTR [eax]
  0064a	89 4d 80	 mov	 DWORD PTR tv361[ebp], ecx
  0064d	eb 21		 jmp	 SHORT $LN58@create_sea
$LN57@create_sea:
  0064f	8b 15 00 00 00
	00		 mov	 edx, DWORD PTR ?__LINE__Var@?0??create_sead_tasks_around_keysite@@YGHPAUENTITY@@0W4ENTITY_SIDES@@@Z@4JA
  00655	83 c2 58	 add	 edx, 88			; 00000058H
  00658	52		 push	 edx
  00659	68 00 00 00 00	 push	 OFFSET ??_C@_0ED@GMECMFKH@c?3?2users?2nhv90?2projects?2eech?2ap@
  0065e	a1 00 00 00 00	 mov	 eax, DWORD PTR ?null_entity_pointer_message@@3PBDB ; null_entity_pointer_message
  00663	50		 push	 eax
  00664	e8 00 00 00 00	 call	 ?process_assert@@YGXPBD0H@Z ; process_assert
  00669	c7 45 80 00 00
	00 00		 mov	 DWORD PTR tv361[ebp], 0
$LN58@create_sea:
  00670	b9 01 00 00 00	 mov	 ecx, 1
  00675	85 c9		 test	 ecx, ecx
  00677	74 0c		 je	 SHORT $LN59@create_sea
  00679	c7 85 7c ff ff
	ff dc 00 00 00	 mov	 DWORD PTR tv369[ebp], 220 ; 000000dcH
  00683	eb 24		 jmp	 SHORT $LN60@create_sea
$LN59@create_sea:
  00685	8b 15 00 00 00
	00		 mov	 edx, DWORD PTR ?__LINE__Var@?0??create_sead_tasks_around_keysite@@YGHPAUENTITY@@0W4ENTITY_SIDES@@@Z@4JA
  0068b	83 c2 58	 add	 edx, 88			; 00000058H
  0068e	52		 push	 edx
  0068f	68 00 00 00 00	 push	 OFFSET ??_C@_0ED@GMECMFKH@c?3?2users?2nhv90?2projects?2eech?2ap@
  00694	a1 00 00 00 00	 mov	 eax, DWORD PTR ?overload_invalid_int_type_message@@3PBDB ; overload_invalid_int_type_message
  00699	50		 push	 eax
  0069a	e8 00 00 00 00	 call	 ?process_assert@@YGXPBD0H@Z ; process_assert
  0069f	c7 85 7c ff ff
	ff 00 00 00 00	 mov	 DWORD PTR tv369[ebp], 0
$LN60@create_sea:
  006a9	6a 03		 push	 3
  006ab	8b 4d 08	 mov	 ecx, DWORD PTR _original_task$[ebp]
  006ae	51		 push	 ecx
  006af	6b 55 94 34	 imul	 edx, DWORD PTR tv314[ebp], 52
  006b3	8b 45 90	 mov	 eax, DWORD PTR tv322[ebp]
  006b6	8b 8c 82 00 00
	00 00		 mov	 ecx, DWORD PTR ?fn_get_local_entity_string@@3PAY0N@P6GPBDPAUENTITY@@W4STRING_TYPES@@@ZA[edx+eax*4]
  006bd	ff d1		 call	 ecx
  006bf	50		 push	 eax
  006c0	6a 07		 push	 7
  006c2	8b 55 0c	 mov	 edx, DWORD PTR _keysite$[ebp]
  006c5	52		 push	 edx
  006c6	6b 45 8c 34	 imul	 eax, DWORD PTR tv335[ebp], 52
  006ca	8b 4d 88	 mov	 ecx, DWORD PTR tv343[ebp]
  006cd	8b 94 88 00 00
	00 00		 mov	 edx, DWORD PTR ?fn_get_local_entity_string@@3PAY0N@P6GPBDPAUENTITY@@W4STRING_TYPES@@@ZA[eax+ecx*4]
  006d4	ff d2		 call	 edx
  006d6	50		 push	 eax
  006d7	8b 45 84	 mov	 eax, DWORD PTR tv353[ebp]
  006da	50		 push	 eax
  006db	68 dc 00 00 00	 push	 220			; 000000dcH
  006e0	8b 4d f4	 mov	 ecx, DWORD PTR _new_task$[ebp]
  006e3	51		 push	 ecx
  006e4	69 55 80 5c 04
	00 00		 imul	 edx, DWORD PTR tv361[ebp], 1116
  006eb	8b 85 7c ff ff
	ff		 mov	 eax, DWORD PTR tv369[ebp]
  006f1	8b 8c 82 00 00
	00 00		 mov	 ecx, DWORD PTR ?fn_get_local_entity_int_value@@3PAY0BBH@P6GHPAUENTITY@@W4INT_TYPES@@@ZA[edx+eax*4]
  006f8	ff d1		 call	 ecx
  006fa	50		 push	 eax
  006fb	8b 55 10	 mov	 edx, DWORD PTR _this_side$[ebp]
  006fe	8b 04 95 00 00
	00 00		 mov	 eax, DWORD PTR ?entity_side_short_names@@3PAPBDA[edx*4]
  00705	50		 push	 eax
  00706	68 00 00 00 00	 push	 OFFSET ??_C@_0DP@PONNJEMN@?$CITASK?$CJ?5Side?5?$CFs?5?3?5Created?5SEAD?5?$CD@
  0070b	e8 00 00 00 00	 call	 ?ai_log@@YAXPBDZZ	; ai_log
  00710	83 c4 18	 add	 esp, 24			; 00000018H
$LN12@create_sea:

; 2630 : 												entity_side_short_names [this_side],
; 2631 : 												get_local_entity_int_value (new_task, INT_TYPE_TASK_ID),
; 2632 : 												get_local_entity_safe_index (new_task),
; 2633 : 												get_local_entity_string (keysite, STRING_TYPE_KEYSITE_NAME),
; 2634 : 												get_local_entity_string (original_task, STRING_TYPE_FULL_NAME));
; 2635 : 							}
; 2636 : 
; 2637 : 							count ++;

  00713	8b 45 e8	 mov	 eax, DWORD PTR _count$[ebp]
  00716	83 c0 01	 add	 eax, 1
  00719	89 45 e8	 mov	 DWORD PTR _count$[ebp], eax

; 2638 : 
; 2639 : 							if (count == MAX_KEYSITE_SEAD_COUNT)

  0071c	83 7d e8 03	 cmp	 DWORD PTR _count$[ebp], 3
  00720	75 08		 jne	 SHORT $LN13@create_sea

; 2640 : 							{
; 2641 : 								return count;

  00722	8b 45 e8	 mov	 eax, DWORD PTR _count$[ebp]
  00725	e9 88 00 00 00	 jmp	 $LN1@create_sea
$LN13@create_sea:

; 2642 : 							}
; 2643 : 						}
; 2644 : 					}
; 2645 : 				}
; 2646 : 			}
; 2647 : 		}
; 2648 : 
; 2649 : 		group = get_local_entity_child_succ (group, LIST_TYPE_INDEPENDENT_GROUP);

  0072a	83 7d f8 00	 cmp	 DWORD PTR _group$[ebp], 0
  0072e	74 0a		 je	 SHORT $LN61@create_sea
  00730	8b 45 f8	 mov	 eax, DWORD PTR _group$[ebp]
  00733	8b 08		 mov	 ecx, DWORD PTR [eax]
  00735	89 4d 94	 mov	 DWORD PTR tv388[ebp], ecx
  00738	eb 21		 jmp	 SHORT $LN62@create_sea
$LN61@create_sea:
  0073a	8b 15 00 00 00
	00		 mov	 edx, DWORD PTR ?__LINE__Var@?0??create_sead_tasks_around_keysite@@YGHPAUENTITY@@0W4ENTITY_SIDES@@@Z@4JA
  00740	83 c2 6a	 add	 edx, 106		; 0000006aH
  00743	52		 push	 edx
  00744	68 00 00 00 00	 push	 OFFSET ??_C@_0ED@GMECMFKH@c?3?2users?2nhv90?2projects?2eech?2ap@
  00749	a1 00 00 00 00	 mov	 eax, DWORD PTR ?null_entity_pointer_message@@3PBDB ; null_entity_pointer_message
  0074e	50		 push	 eax
  0074f	e8 00 00 00 00	 call	 ?process_assert@@YGXPBD0H@Z ; process_assert
  00754	c7 45 94 00 00
	00 00		 mov	 DWORD PTR tv388[ebp], 0
$LN62@create_sea:
  0075b	b9 01 00 00 00	 mov	 ecx, 1
  00760	85 c9		 test	 ecx, ecx
  00762	74 09		 je	 SHORT $LN63@create_sea
  00764	c7 45 90 14 00
	00 00		 mov	 DWORD PTR tv396[ebp], 20 ; 00000014H
  0076b	eb 21		 jmp	 SHORT $LN64@create_sea
$LN63@create_sea:
  0076d	8b 15 00 00 00
	00		 mov	 edx, DWORD PTR ?__LINE__Var@?0??create_sead_tasks_around_keysite@@YGHPAUENTITY@@0W4ENTITY_SIDES@@@Z@4JA
  00773	83 c2 6a	 add	 edx, 106		; 0000006aH
  00776	52		 push	 edx
  00777	68 00 00 00 00	 push	 OFFSET ??_C@_0ED@GMECMFKH@c?3?2users?2nhv90?2projects?2eech?2ap@
  0077c	a1 00 00 00 00	 mov	 eax, DWORD PTR ?overload_invalid_list_type_message@@3PBDB ; overload_invalid_list_type_message
  00781	50		 push	 eax
  00782	e8 00 00 00 00	 call	 ?process_assert@@YGXPBD0H@Z ; process_assert
  00787	c7 45 90 00 00
	00 00		 mov	 DWORD PTR tv396[ebp], 0
$LN64@create_sea:
  0078e	6a 14		 push	 20			; 00000014H
  00790	8b 4d f8	 mov	 ecx, DWORD PTR _group$[ebp]
  00793	51		 push	 ecx
  00794	69 55 94 b4 00
	00 00		 imul	 edx, DWORD PTR tv388[ebp], 180
  0079b	8b 45 90	 mov	 eax, DWORD PTR tv396[ebp]
  0079e	8b 8c 82 00 00
	00 00		 mov	 ecx, DWORD PTR ?fn_get_local_entity_child_succ@@3PAY0CN@P6GPAUENTITY@@PAU1@W4LIST_TYPES@@@ZA[edx+eax*4]
  007a5	ff d1		 call	 ecx
  007a7	89 45 f8	 mov	 DWORD PTR _group$[ebp], eax

; 2650 : 	}

  007aa	e9 af fa ff ff	 jmp	 $LN2@create_sea
$LN3@create_sea:

; 2651 : 
; 2652 : 	return count;

  007af	8b 45 e8	 mov	 eax, DWORD PTR _count$[ebp]
$LN1@create_sea:

; 2653 : }

  007b2	5f		 pop	 edi
  007b3	5e		 pop	 esi
  007b4	5b		 pop	 ebx
  007b5	8b e5		 mov	 esp, ebp
  007b7	5d		 pop	 ebp
  007b8	c2 0c 00	 ret	 12			; 0000000cH
?create_sead_tasks_around_keysite@@YGHPAUENTITY@@0W4ENTITY_SIDES@@@Z ENDP ; create_sead_tasks_around_keysite
_TEXT	ENDS
; Function compile flags: /Odtp /ZI
; File c:\users\nhv90\projects\eech\aphavoc\source\ai\highlevl\highlevl.c
;	COMDAT ?stop_high_level_ai@@YGXXZ
_TEXT	SEGMENT
?stop_high_level_ai@@YGXXZ PROC				; stop_high_level_ai, COMDAT

; 292  : {

  00000	55		 push	 ebp
  00001	8b ec		 mov	 ebp, esp
  00003	83 ec 40	 sub	 esp, 64			; 00000040H
  00006	53		 push	 ebx
  00007	56		 push	 esi
  00008	57		 push	 edi

; 293  : 	if (get_comms_model () == COMMS_MODEL_SERVER)

  00009	83 3d 00 00 00
	00 00		 cmp	 DWORD PTR ?system_comms_model@@3W4COMMS_MODEL_TYPES@@A, 0 ; system_comms_model
  00010	0f 85 c3 00 00
	00		 jne	 $LN1@stop_high_

; 294  : 	{
; 295  : 		// Task creation
; 296  : 		remove_update_function (create_cas_tasks);

  00016	68 00 00 00 00	 push	 OFFSET ?create_cas_tasks@@YGXXZ ; create_cas_tasks
  0001b	e8 00 00 00 00	 call	 ?remove_update_function@@YGHP6GXXZ@Z ; remove_update_function

; 297  : 
; 298  : 		remove_update_function (create_advance_and_retreat_tasks);

  00020	68 00 00 00 00	 push	 OFFSET ?create_advance_and_retreat_tasks@@YGXXZ ; create_advance_and_retreat_tasks
  00025	e8 00 00 00 00	 call	 ?remove_update_function@@YGHP6GXXZ@Z ; remove_update_function

; 299  : 
; 300  : 		remove_update_function (create_sead_tasks);

  0002a	68 00 00 00 00	 push	 OFFSET ?create_sead_tasks@@YGXXZ ; create_sead_tasks
  0002f	e8 00 00 00 00	 call	 ?remove_update_function@@YGHP6GXXZ@Z ; remove_update_function

; 301  : 
; 302  : 		remove_update_function (create_keysite_strike_tasks);

  00034	68 00 00 00 00	 push	 OFFSET ?create_keysite_strike_tasks@@YGXXZ ; create_keysite_strike_tasks
  00039	e8 00 00 00 00	 call	 ?remove_update_function@@YGHP6GXXZ@Z ; remove_update_function

; 303  : 
; 304  : 		remove_update_function (create_troop_patrol_tasks);

  0003e	68 00 00 00 00	 push	 OFFSET ?create_troop_patrol_tasks@@YGXXZ ; create_troop_patrol_tasks
  00043	e8 00 00 00 00	 call	 ?remove_update_function@@YGHP6GXXZ@Z ; remove_update_function

; 305  : 
; 306  : 		remove_update_function (create_helicopter_transfer_tasks);

  00048	68 00 00 00 00	 push	 OFFSET ?create_helicopter_transfer_tasks@@YGXXZ ; create_helicopter_transfer_tasks
  0004d	e8 00 00 00 00	 call	 ?remove_update_function@@YGHP6GXXZ@Z ; remove_update_function

; 307  : 
; 308  : 		remove_update_function (create_fixed_wing_transfer_tasks);

  00052	68 00 00 00 00	 push	 OFFSET ?create_fixed_wing_transfer_tasks@@YGXXZ ; create_fixed_wing_transfer_tasks
  00057	e8 00 00 00 00	 call	 ?remove_update_function@@YGHP6GXXZ@Z ; remove_update_function

; 309  : 
; 310  : 		remove_update_function (create_artillery_strike_tasks);

  0005c	68 00 00 00 00	 push	 OFFSET ?create_artillery_strike_tasks@@YGXXZ ; create_artillery_strike_tasks
  00061	e8 00 00 00 00	 call	 ?remove_update_function@@YGHP6GXXZ@Z ; remove_update_function

; 311  : 
; 312  : 		remove_update_function (create_troop_insertion_tasks);

  00066	68 00 00 00 00	 push	 OFFSET ?create_troop_insertion_tasks@@YGXXZ ; create_troop_insertion_tasks
  0006b	e8 00 00 00 00	 call	 ?remove_update_function@@YGHP6GXXZ@Z ; remove_update_function

; 313  : 
; 314  : 		remove_update_function (create_bai_tasks);

  00070	68 00 00 00 00	 push	 OFFSET ?create_bai_tasks@@YGXXZ ; create_bai_tasks
  00075	e8 00 00 00 00	 call	 ?remove_update_function@@YGHP6GXXZ@Z ; remove_update_function

; 315  : 
; 316  : 		remove_update_function (create_oca_strike_tasks);

  0007a	68 00 00 00 00	 push	 OFFSET ?create_oca_strike_tasks@@YGXXZ ; create_oca_strike_tasks
  0007f	e8 00 00 00 00	 call	 ?remove_update_function@@YGHP6GXXZ@Z ; remove_update_function

; 317  : 
; 318  : 		remove_update_function (create_oca_sweep_tasks);

  00084	68 00 00 00 00	 push	 OFFSET ?create_oca_sweep_tasks@@YGXXZ ; create_oca_sweep_tasks
  00089	e8 00 00 00 00	 call	 ?remove_update_function@@YGHP6GXXZ@Z ; remove_update_function

; 319  : 
; 320  : 		// Normalise influence maps (takes values from sector entities and creates "bitmap" overview)
; 321  : 		remove_update_function (normalise_importance_imaps);

  0008e	68 00 00 00 00	 push	 OFFSET ?normalise_importance_imaps@@YGXXZ ; normalise_importance_imaps
  00093	e8 00 00 00 00	 call	 ?remove_update_function@@YGHP6GXXZ@Z ; remove_update_function

; 322  : 
; 323  : 		remove_update_function (normalise_base_distance_imaps);

  00098	68 00 00 00 00	 push	 OFFSET ?normalise_base_distance_imaps@@YGXXZ ; normalise_base_distance_imaps
  0009d	e8 00 00 00 00	 call	 ?remove_update_function@@YGHP6GXXZ@Z ; remove_update_function

; 324  : 
; 325  : 		remove_update_function (normalise_air_defence_imaps);

  000a2	68 00 00 00 00	 push	 OFFSET ?normalise_air_defence_imaps@@YGXXZ ; normalise_air_defence_imaps
  000a7	e8 00 00 00 00	 call	 ?remove_update_function@@YGHP6GXXZ@Z ; remove_update_function

; 326  : 
; 327  : 		remove_update_function (normalise_surface_defence_imaps);

  000ac	68 00 00 00 00	 push	 OFFSET ?normalise_surface_defence_imaps@@YGXXZ ; normalise_surface_defence_imaps
  000b1	e8 00 00 00 00	 call	 ?remove_update_function@@YGHP6GXXZ@Z ; remove_update_function

; 328  : 
; 329  : 		remove_update_function (update_client_server_sector_fog_of_war);

  000b6	68 00 00 00 00	 push	 OFFSET ?update_client_server_sector_fog_of_war@@YGXXZ ; update_client_server_sector_fog_of_war
  000bb	e8 00 00 00 00	 call	 ?remove_update_function@@YGHP6GXXZ@Z ; remove_update_function

; 330  : 
; 331  : 		remove_update_function (update_client_server_sector_side_count);

  000c0	68 00 00 00 00	 push	 OFFSET ?update_client_server_sector_side_count@@YGXXZ ; update_client_server_sector_side_count
  000c5	e8 00 00 00 00	 call	 ?remove_update_function@@YGHP6GXXZ@Z ; remove_update_function

; 332  : 
; 333  : 		deinitialise_imaps ();

  000ca	e8 00 00 00 00	 call	 ?deinitialise_imaps@@YGXXZ ; deinitialise_imaps

; 334  : 
; 335  : 		// Campaign triggers
; 336  : 		remove_update_function (update_campaign_triggers);

  000cf	68 00 00 00 00	 push	 OFFSET ?update_campaign_triggers@@YGXXZ ; update_campaign_triggers
  000d4	e8 00 00 00 00	 call	 ?remove_update_function@@YGHP6GXXZ@Z ; remove_update_function
$LN1@stop_high_:

; 337  : 	}
; 338  : }

  000d9	5f		 pop	 edi
  000da	5e		 pop	 esi
  000db	5b		 pop	 ebx
  000dc	8b e5		 mov	 esp, ebp
  000de	5d		 pop	 ebp
  000df	c3		 ret	 0
?stop_high_level_ai@@YGXXZ ENDP				; stop_high_level_ai
_TEXT	ENDS
; Function compile flags: /Odtp /ZI
; File c:\users\nhv90\projects\eech\aphavoc\source\ai\highlevl\highlevl.c
;	COMDAT ?start_high_level_ai@@YGXXZ
_TEXT	SEGMENT
?start_high_level_ai@@YGXXZ PROC			; start_high_level_ai, COMDAT

; 180  : {

  00000	55		 push	 ebp
  00001	8b ec		 mov	 ebp, esp
  00003	83 ec 40	 sub	 esp, 64			; 00000040H
  00006	53		 push	 ebx
  00007	56		 push	 esi
  00008	57		 push	 edi

; 181  : 	//
; 182  : 	// SERVER ONLY
; 183  : 	//
; 184  : 	
; 185  : 	if (get_comms_model () == COMMS_MODEL_SERVER)

  00009	83 3d 00 00 00
	00 00		 cmp	 DWORD PTR ?system_comms_model@@3W4COMMS_MODEL_TYPES@@A, 0 ; system_comms_model
  00010	0f 85 de 04 00
	00		 jne	 $LN2@start_high

; 186  : 	{
; 187  : 		#ifdef DEBUG
; 188  : 
; 189  : 		ai_log_file = safe_fopen (AI_LOG_FILENAME, "w");

  00016	68 00 00 00 00	 push	 OFFSET ??_C@_01NOFIACDB@w@
  0001b	68 00 00 00 00	 push	 OFFSET ??_C@_06MDHFGADH@AI?4LOG@
  00020	e8 00 00 00 00	 call	 ?safe_fopen@@YGPAU_iobuf@@PBD0@Z ; safe_fopen
  00025	a3 00 00 00 00	 mov	 DWORD PTR ?ai_log_file@@3PAU_iobuf@@A, eax

; 190  : 
; 191  : 		fclose (ai_log_file);

  0002a	a1 00 00 00 00	 mov	 eax, DWORD PTR ?ai_log_file@@3PAU_iobuf@@A
  0002f	50		 push	 eax
  00030	ff 15 00 00 00
	00		 call	 DWORD PTR __imp__fclose
  00036	83 c4 04	 add	 esp, 4

; 192  : 
; 193  : 		#endif
; 194  : 
; 195  : 		//
; 196  : 		// initialise influence maps
; 197  : 		//
; 198  : 
; 199  : 		initialise_imaps ();

  00039	e8 00 00 00 00	 call	 ?initialise_imaps@@YGXXZ ; initialise_imaps

; 200  : 
; 201  : 		normalise_importance_imaps ();

  0003e	e8 00 00 00 00	 call	 ?normalise_importance_imaps@@YGXXZ ; normalise_importance_imaps

; 202  : 		
; 203  : 		normalise_base_distance_imaps ();

  00043	e8 00 00 00 00	 call	 ?normalise_base_distance_imaps@@YGXXZ ; normalise_base_distance_imaps

; 204  : 		
; 205  : 		normalise_air_defence_imaps ();

  00048	e8 00 00 00 00	 call	 ?normalise_air_defence_imaps@@YGXXZ ; normalise_air_defence_imaps

; 206  : 		
; 207  : 		normalise_surface_defence_imaps ();

  0004d	e8 00 00 00 00	 call	 ?normalise_surface_defence_imaps@@YGXXZ ; normalise_surface_defence_imaps

; 208  : 		
; 209  : 		update_client_server_sector_side_count ();

  00052	e8 00 00 00 00	 call	 ?update_client_server_sector_side_count@@YGXXZ ; update_client_server_sector_side_count

; 210  : 
; 211  : 		//
; 212  : 		// add update functions
; 213  : 		//
; 214  : 
; 215  : 		// Task creation
; 216  : 		if (get_game_type () == GAME_TYPE_SKIRMISH)

  00057	83 3d 00 00 00
	00 03		 cmp	 DWORD PTR ?game_type@@3W4GAME_TYPES@@A, 3 ; game_type
  0005e	0f 85 c8 01 00
	00		 jne	 $LN3@start_high

; 217  : 		{
; 218  : 			add_high_level_ai_function (create_cas_tasks, 6.0 * ONE_MINUTE, 0.0);

  00064	51		 push	 ecx
  00065	0f 57 c0	 xorps	 xmm0, xmm0
  00068	f3 0f 11 04 24	 movss	 DWORD PTR [esp], xmm0
  0006d	51		 push	 ecx
  0006e	f3 0f 10 05 00
	00 00 00	 movss	 xmm0, DWORD PTR __real@43b40000
  00076	f3 0f 11 04 24	 movss	 DWORD PTR [esp], xmm0
  0007b	68 00 00 00 00	 push	 OFFSET ?create_cas_tasks@@YGXXZ ; create_cas_tasks
  00080	e8 00 00 00 00	 call	 ?add_high_level_ai_function@@YGHP6GXXZMM@Z ; add_high_level_ai_function

; 219  : 	
; 220  : 			add_high_level_ai_function (create_sead_tasks, 10.0 * ONE_MINUTE, 2.0);

  00085	51		 push	 ecx
  00086	f3 0f 10 05 00
	00 00 00	 movss	 xmm0, DWORD PTR __real@40000000
  0008e	f3 0f 11 04 24	 movss	 DWORD PTR [esp], xmm0
  00093	51		 push	 ecx
  00094	f3 0f 10 05 00
	00 00 00	 movss	 xmm0, DWORD PTR __real@44160000
  0009c	f3 0f 11 04 24	 movss	 DWORD PTR [esp], xmm0
  000a1	68 00 00 00 00	 push	 OFFSET ?create_sead_tasks@@YGXXZ ; create_sead_tasks
  000a6	e8 00 00 00 00	 call	 ?add_high_level_ai_function@@YGHP6GXXZMM@Z ; add_high_level_ai_function

; 221  : 	
; 222  : 			add_high_level_ai_function (create_advance_and_retreat_tasks, 15.0 * ONE_MINUTE, 12.0);

  000ab	51		 push	 ecx
  000ac	f3 0f 10 05 00
	00 00 00	 movss	 xmm0, DWORD PTR __real@41400000
  000b4	f3 0f 11 04 24	 movss	 DWORD PTR [esp], xmm0
  000b9	51		 push	 ecx
  000ba	f3 0f 10 05 00
	00 00 00	 movss	 xmm0, DWORD PTR __real@44610000
  000c2	f3 0f 11 04 24	 movss	 DWORD PTR [esp], xmm0
  000c7	68 00 00 00 00	 push	 OFFSET ?create_advance_and_retreat_tasks@@YGXXZ ; create_advance_and_retreat_tasks
  000cc	e8 00 00 00 00	 call	 ?add_high_level_ai_function@@YGHP6GXXZMM@Z ; add_high_level_ai_function

; 223  : 	
; 224  : 			add_high_level_ai_function (create_artillery_strike_tasks, 12.0 * ONE_MINUTE, 8.0);

  000d1	51		 push	 ecx
  000d2	f3 0f 10 05 00
	00 00 00	 movss	 xmm0, DWORD PTR __real@41000000
  000da	f3 0f 11 04 24	 movss	 DWORD PTR [esp], xmm0
  000df	51		 push	 ecx
  000e0	f3 0f 10 05 00
	00 00 00	 movss	 xmm0, DWORD PTR __real@44340000
  000e8	f3 0f 11 04 24	 movss	 DWORD PTR [esp], xmm0
  000ed	68 00 00 00 00	 push	 OFFSET ?create_artillery_strike_tasks@@YGXXZ ; create_artillery_strike_tasks
  000f2	e8 00 00 00 00	 call	 ?add_high_level_ai_function@@YGHP6GXXZMM@Z ; add_high_level_ai_function

; 225  : 	
; 226  : 			add_high_level_ai_function (create_keysite_strike_tasks, 10.0 * ONE_MINUTE, 15.0);

  000f7	51		 push	 ecx
  000f8	f3 0f 10 05 00
	00 00 00	 movss	 xmm0, DWORD PTR __real@41700000
  00100	f3 0f 11 04 24	 movss	 DWORD PTR [esp], xmm0
  00105	51		 push	 ecx
  00106	f3 0f 10 05 00
	00 00 00	 movss	 xmm0, DWORD PTR __real@44160000
  0010e	f3 0f 11 04 24	 movss	 DWORD PTR [esp], xmm0
  00113	68 00 00 00 00	 push	 OFFSET ?create_keysite_strike_tasks@@YGXXZ ; create_keysite_strike_tasks
  00118	e8 00 00 00 00	 call	 ?add_high_level_ai_function@@YGHP6GXXZMM@Z ; add_high_level_ai_function

; 227  : 	
; 228  : 			add_high_level_ai_function (create_troop_patrol_tasks, 5.0 * ONE_MINUTE, 30.0);

  0011d	51		 push	 ecx
  0011e	f3 0f 10 05 00
	00 00 00	 movss	 xmm0, DWORD PTR __real@41f00000
  00126	f3 0f 11 04 24	 movss	 DWORD PTR [esp], xmm0
  0012b	51		 push	 ecx
  0012c	f3 0f 10 05 00
	00 00 00	 movss	 xmm0, DWORD PTR __real@43960000
  00134	f3 0f 11 04 24	 movss	 DWORD PTR [esp], xmm0
  00139	68 00 00 00 00	 push	 OFFSET ?create_troop_patrol_tasks@@YGXXZ ; create_troop_patrol_tasks
  0013e	e8 00 00 00 00	 call	 ?add_high_level_ai_function@@YGHP6GXXZMM@Z ; add_high_level_ai_function

; 229  : 	
; 230  : 			add_high_level_ai_function (create_fixed_wing_transfer_tasks, 15.0 * ONE_MINUTE, 34.0);

  00143	51		 push	 ecx
  00144	f3 0f 10 05 00
	00 00 00	 movss	 xmm0, DWORD PTR __real@42080000
  0014c	f3 0f 11 04 24	 movss	 DWORD PTR [esp], xmm0
  00151	51		 push	 ecx
  00152	f3 0f 10 05 00
	00 00 00	 movss	 xmm0, DWORD PTR __real@44610000
  0015a	f3 0f 11 04 24	 movss	 DWORD PTR [esp], xmm0
  0015f	68 00 00 00 00	 push	 OFFSET ?create_fixed_wing_transfer_tasks@@YGXXZ ; create_fixed_wing_transfer_tasks
  00164	e8 00 00 00 00	 call	 ?add_high_level_ai_function@@YGHP6GXXZMM@Z ; add_high_level_ai_function

; 231  : 	
; 232  : 			add_high_level_ai_function (create_troop_insertion_tasks, 6.0 * ONE_MINUTE, 60.0);

  00169	51		 push	 ecx
  0016a	f3 0f 10 05 00
	00 00 00	 movss	 xmm0, DWORD PTR __real@42700000
  00172	f3 0f 11 04 24	 movss	 DWORD PTR [esp], xmm0
  00177	51		 push	 ecx
  00178	f3 0f 10 05 00
	00 00 00	 movss	 xmm0, DWORD PTR __real@43b40000
  00180	f3 0f 11 04 24	 movss	 DWORD PTR [esp], xmm0
  00185	68 00 00 00 00	 push	 OFFSET ?create_troop_insertion_tasks@@YGXXZ ; create_troop_insertion_tasks
  0018a	e8 00 00 00 00	 call	 ?add_high_level_ai_function@@YGHP6GXXZMM@Z ; add_high_level_ai_function

; 233  : 	
; 234  : 			add_high_level_ai_function (create_bai_tasks, 10.0 * ONE_MINUTE, 90.0);

  0018f	51		 push	 ecx
  00190	f3 0f 10 05 00
	00 00 00	 movss	 xmm0, DWORD PTR __real@42b40000
  00198	f3 0f 11 04 24	 movss	 DWORD PTR [esp], xmm0
  0019d	51		 push	 ecx
  0019e	f3 0f 10 05 00
	00 00 00	 movss	 xmm0, DWORD PTR __real@44160000
  001a6	f3 0f 11 04 24	 movss	 DWORD PTR [esp], xmm0
  001ab	68 00 00 00 00	 push	 OFFSET ?create_bai_tasks@@YGXXZ ; create_bai_tasks
  001b0	e8 00 00 00 00	 call	 ?add_high_level_ai_function@@YGHP6GXXZMM@Z ; add_high_level_ai_function

; 235  : 
; 236  : 			add_high_level_ai_function (create_helicopter_transfer_tasks, 10.0 * ONE_MINUTE, 3.0 * ONE_MINUTE);

  001b5	51		 push	 ecx
  001b6	f3 0f 10 05 00
	00 00 00	 movss	 xmm0, DWORD PTR __real@43340000
  001be	f3 0f 11 04 24	 movss	 DWORD PTR [esp], xmm0
  001c3	51		 push	 ecx
  001c4	f3 0f 10 05 00
	00 00 00	 movss	 xmm0, DWORD PTR __real@44160000
  001cc	f3 0f 11 04 24	 movss	 DWORD PTR [esp], xmm0
  001d1	68 00 00 00 00	 push	 OFFSET ?create_helicopter_transfer_tasks@@YGXXZ ; create_helicopter_transfer_tasks
  001d6	e8 00 00 00 00	 call	 ?add_high_level_ai_function@@YGHP6GXXZMM@Z ; add_high_level_ai_function

; 237  : 
; 238  : 			add_high_level_ai_function (create_oca_sweep_tasks, 20.0 * ONE_MINUTE, 4.0 * ONE_MINUTE);

  001db	51		 push	 ecx
  001dc	f3 0f 10 05 00
	00 00 00	 movss	 xmm0, DWORD PTR __real@43700000
  001e4	f3 0f 11 04 24	 movss	 DWORD PTR [esp], xmm0
  001e9	51		 push	 ecx
  001ea	f3 0f 10 05 00
	00 00 00	 movss	 xmm0, DWORD PTR __real@44960000
  001f2	f3 0f 11 04 24	 movss	 DWORD PTR [esp], xmm0
  001f7	68 00 00 00 00	 push	 OFFSET ?create_oca_sweep_tasks@@YGXXZ ; create_oca_sweep_tasks
  001fc	e8 00 00 00 00	 call	 ?add_high_level_ai_function@@YGHP6GXXZMM@Z ; add_high_level_ai_function

; 239  : 	
; 240  : 			add_high_level_ai_function (create_oca_strike_tasks, 30.0 * ONE_MINUTE, 5.0 * ONE_MINUTE);

  00201	51		 push	 ecx
  00202	f3 0f 10 05 00
	00 00 00	 movss	 xmm0, DWORD PTR __real@43960000
  0020a	f3 0f 11 04 24	 movss	 DWORD PTR [esp], xmm0
  0020f	51		 push	 ecx
  00210	f3 0f 10 05 00
	00 00 00	 movss	 xmm0, DWORD PTR __real@44e10000
  00218	f3 0f 11 04 24	 movss	 DWORD PTR [esp], xmm0
  0021d	68 00 00 00 00	 push	 OFFSET ?create_oca_strike_tasks@@YGXXZ ; create_oca_strike_tasks
  00222	e8 00 00 00 00	 call	 ?add_high_level_ai_function@@YGHP6GXXZMM@Z ; add_high_level_ai_function

; 241  : 		}
; 242  : 		else

  00227	e9 c3 01 00 00	 jmp	 $LN4@start_high
$LN3@start_high:

; 243  : 		{
; 244  : 			add_high_level_ai_function (create_cas_tasks, 15.0 * ONE_MINUTE, 0.0);

  0022c	51		 push	 ecx
  0022d	0f 57 c0	 xorps	 xmm0, xmm0
  00230	f3 0f 11 04 24	 movss	 DWORD PTR [esp], xmm0
  00235	51		 push	 ecx
  00236	f3 0f 10 05 00
	00 00 00	 movss	 xmm0, DWORD PTR __real@44610000
  0023e	f3 0f 11 04 24	 movss	 DWORD PTR [esp], xmm0
  00243	68 00 00 00 00	 push	 OFFSET ?create_cas_tasks@@YGXXZ ; create_cas_tasks
  00248	e8 00 00 00 00	 call	 ?add_high_level_ai_function@@YGHP6GXXZMM@Z ; add_high_level_ai_function

; 245  : 	
; 246  : 			add_high_level_ai_function (create_troop_patrol_tasks, 5.0 * ONE_MINUTE, 10.0);

  0024d	51		 push	 ecx
  0024e	f3 0f 10 05 00
	00 00 00	 movss	 xmm0, DWORD PTR __real@41200000
  00256	f3 0f 11 04 24	 movss	 DWORD PTR [esp], xmm0
  0025b	51		 push	 ecx
  0025c	f3 0f 10 05 00
	00 00 00	 movss	 xmm0, DWORD PTR __real@43960000
  00264	f3 0f 11 04 24	 movss	 DWORD PTR [esp], xmm0
  00269	68 00 00 00 00	 push	 OFFSET ?create_troop_patrol_tasks@@YGXXZ ; create_troop_patrol_tasks
  0026e	e8 00 00 00 00	 call	 ?add_high_level_ai_function@@YGHP6GXXZMM@Z ; add_high_level_ai_function

; 247  : 	
; 248  : 			add_high_level_ai_function (create_advance_and_retreat_tasks, 12.0 * ONE_MINUTE, 12.0);

  00273	51		 push	 ecx
  00274	f3 0f 10 05 00
	00 00 00	 movss	 xmm0, DWORD PTR __real@41400000
  0027c	f3 0f 11 04 24	 movss	 DWORD PTR [esp], xmm0
  00281	51		 push	 ecx
  00282	f3 0f 10 05 00
	00 00 00	 movss	 xmm0, DWORD PTR __real@44340000
  0028a	f3 0f 11 04 24	 movss	 DWORD PTR [esp], xmm0
  0028f	68 00 00 00 00	 push	 OFFSET ?create_advance_and_retreat_tasks@@YGXXZ ; create_advance_and_retreat_tasks
  00294	e8 00 00 00 00	 call	 ?add_high_level_ai_function@@YGHP6GXXZMM@Z ; add_high_level_ai_function

; 249  : 	
; 250  : 			add_high_level_ai_function (create_keysite_strike_tasks, 7.5 * ONE_MINUTE, 15.0);

  00299	51		 push	 ecx
  0029a	f3 0f 10 05 00
	00 00 00	 movss	 xmm0, DWORD PTR __real@41700000
  002a2	f3 0f 11 04 24	 movss	 DWORD PTR [esp], xmm0
  002a7	51		 push	 ecx
  002a8	f3 0f 10 05 00
	00 00 00	 movss	 xmm0, DWORD PTR __real@43e10000
  002b0	f3 0f 11 04 24	 movss	 DWORD PTR [esp], xmm0
  002b5	68 00 00 00 00	 push	 OFFSET ?create_keysite_strike_tasks@@YGXXZ ; create_keysite_strike_tasks
  002ba	e8 00 00 00 00	 call	 ?add_high_level_ai_function@@YGHP6GXXZMM@Z ; add_high_level_ai_function

; 251  : 	
; 252  : 			add_high_level_ai_function (create_artillery_strike_tasks, 15.0 * ONE_MINUTE, 45.0);

  002bf	51		 push	 ecx
  002c0	f3 0f 10 05 00
	00 00 00	 movss	 xmm0, DWORD PTR __real@42340000
  002c8	f3 0f 11 04 24	 movss	 DWORD PTR [esp], xmm0
  002cd	51		 push	 ecx
  002ce	f3 0f 10 05 00
	00 00 00	 movss	 xmm0, DWORD PTR __real@44610000
  002d6	f3 0f 11 04 24	 movss	 DWORD PTR [esp], xmm0
  002db	68 00 00 00 00	 push	 OFFSET ?create_artillery_strike_tasks@@YGXXZ ; create_artillery_strike_tasks
  002e0	e8 00 00 00 00	 call	 ?add_high_level_ai_function@@YGHP6GXXZMM@Z ; add_high_level_ai_function

; 253  : 	
; 254  : 			add_high_level_ai_function (create_troop_insertion_tasks, 20.0 * ONE_MINUTE, 1.0 * ONE_MINUTE);

  002e5	51		 push	 ecx
  002e6	f3 0f 10 05 00
	00 00 00	 movss	 xmm0, DWORD PTR __real@42700000
  002ee	f3 0f 11 04 24	 movss	 DWORD PTR [esp], xmm0
  002f3	51		 push	 ecx
  002f4	f3 0f 10 05 00
	00 00 00	 movss	 xmm0, DWORD PTR __real@44960000
  002fc	f3 0f 11 04 24	 movss	 DWORD PTR [esp], xmm0
  00301	68 00 00 00 00	 push	 OFFSET ?create_troop_insertion_tasks@@YGXXZ ; create_troop_insertion_tasks
  00306	e8 00 00 00 00	 call	 ?add_high_level_ai_function@@YGHP6GXXZMM@Z ; add_high_level_ai_function

; 255  : 
; 256  : 			add_high_level_ai_function (create_oca_sweep_tasks, 30.0 * ONE_MINUTE, 1.5 * ONE_MINUTE);

  0030b	51		 push	 ecx
  0030c	f3 0f 10 05 00
	00 00 00	 movss	 xmm0, DWORD PTR __real@42b40000
  00314	f3 0f 11 04 24	 movss	 DWORD PTR [esp], xmm0
  00319	51		 push	 ecx
  0031a	f3 0f 10 05 00
	00 00 00	 movss	 xmm0, DWORD PTR __real@44e10000
  00322	f3 0f 11 04 24	 movss	 DWORD PTR [esp], xmm0
  00327	68 00 00 00 00	 push	 OFFSET ?create_oca_sweep_tasks@@YGXXZ ; create_oca_sweep_tasks
  0032c	e8 00 00 00 00	 call	 ?add_high_level_ai_function@@YGHP6GXXZMM@Z ; add_high_level_ai_function

; 257  : 	
; 258  : 			add_high_level_ai_function (create_helicopter_transfer_tasks, 7.5 * ONE_MINUTE, 2.0 * ONE_MINUTE);

  00331	51		 push	 ecx
  00332	f3 0f 10 05 00
	00 00 00	 movss	 xmm0, DWORD PTR __real@42f00000
  0033a	f3 0f 11 04 24	 movss	 DWORD PTR [esp], xmm0
  0033f	51		 push	 ecx
  00340	f3 0f 10 05 00
	00 00 00	 movss	 xmm0, DWORD PTR __real@43e10000
  00348	f3 0f 11 04 24	 movss	 DWORD PTR [esp], xmm0
  0034d	68 00 00 00 00	 push	 OFFSET ?create_helicopter_transfer_tasks@@YGXXZ ; create_helicopter_transfer_tasks
  00352	e8 00 00 00 00	 call	 ?add_high_level_ai_function@@YGHP6GXXZMM@Z ; add_high_level_ai_function

; 259  : 	
; 260  : 			add_high_level_ai_function (create_fixed_wing_transfer_tasks, 15.0 * ONE_MINUTE, 2.5 * ONE_MINUTE);

  00357	51		 push	 ecx
  00358	f3 0f 10 05 00
	00 00 00	 movss	 xmm0, DWORD PTR __real@43160000
  00360	f3 0f 11 04 24	 movss	 DWORD PTR [esp], xmm0
  00365	51		 push	 ecx
  00366	f3 0f 10 05 00
	00 00 00	 movss	 xmm0, DWORD PTR __real@44610000
  0036e	f3 0f 11 04 24	 movss	 DWORD PTR [esp], xmm0
  00373	68 00 00 00 00	 push	 OFFSET ?create_fixed_wing_transfer_tasks@@YGXXZ ; create_fixed_wing_transfer_tasks
  00378	e8 00 00 00 00	 call	 ?add_high_level_ai_function@@YGHP6GXXZMM@Z ; add_high_level_ai_function

; 261  : 	
; 262  : 			add_high_level_ai_function (create_sead_tasks, 12.0 * ONE_MINUTE, 3.0 * ONE_MINUTE);

  0037d	51		 push	 ecx
  0037e	f3 0f 10 05 00
	00 00 00	 movss	 xmm0, DWORD PTR __real@43340000
  00386	f3 0f 11 04 24	 movss	 DWORD PTR [esp], xmm0
  0038b	51		 push	 ecx
  0038c	f3 0f 10 05 00
	00 00 00	 movss	 xmm0, DWORD PTR __real@44340000
  00394	f3 0f 11 04 24	 movss	 DWORD PTR [esp], xmm0
  00399	68 00 00 00 00	 push	 OFFSET ?create_sead_tasks@@YGXXZ ; create_sead_tasks
  0039e	e8 00 00 00 00	 call	 ?add_high_level_ai_function@@YGHP6GXXZMM@Z ; add_high_level_ai_function

; 263  : 	
; 264  : 			add_high_level_ai_function (create_bai_tasks, 20.0 * ONE_MINUTE, 5.0 * ONE_MINUTE);

  003a3	51		 push	 ecx
  003a4	f3 0f 10 05 00
	00 00 00	 movss	 xmm0, DWORD PTR __real@43960000
  003ac	f3 0f 11 04 24	 movss	 DWORD PTR [esp], xmm0
  003b1	51		 push	 ecx
  003b2	f3 0f 10 05 00
	00 00 00	 movss	 xmm0, DWORD PTR __real@44960000
  003ba	f3 0f 11 04 24	 movss	 DWORD PTR [esp], xmm0
  003bf	68 00 00 00 00	 push	 OFFSET ?create_bai_tasks@@YGXXZ ; create_bai_tasks
  003c4	e8 00 00 00 00	 call	 ?add_high_level_ai_function@@YGHP6GXXZMM@Z ; add_high_level_ai_function

; 265  : 
; 266  : 			add_high_level_ai_function (create_oca_strike_tasks, 30.0 * ONE_MINUTE, 6.5 * ONE_MINUTE);

  003c9	51		 push	 ecx
  003ca	f3 0f 10 05 00
	00 00 00	 movss	 xmm0, DWORD PTR __real@43c30000
  003d2	f3 0f 11 04 24	 movss	 DWORD PTR [esp], xmm0
  003d7	51		 push	 ecx
  003d8	f3 0f 10 05 00
	00 00 00	 movss	 xmm0, DWORD PTR __real@44e10000
  003e0	f3 0f 11 04 24	 movss	 DWORD PTR [esp], xmm0
  003e5	68 00 00 00 00	 push	 OFFSET ?create_oca_strike_tasks@@YGXXZ ; create_oca_strike_tasks
  003ea	e8 00 00 00 00	 call	 ?add_high_level_ai_function@@YGHP6GXXZMM@Z ; add_high_level_ai_function
$LN4@start_high:

; 267  : 		}
; 268  : 		
; 269  : 		// Normalise influence maps (takes values from sector entities and creates "bitmap" overview)
; 270  : 		add_high_level_ai_function (normalise_importance_imaps, 2.0 * ONE_MINUTE, 20.0);

  003ef	51		 push	 ecx
  003f0	f3 0f 10 05 00
	00 00 00	 movss	 xmm0, DWORD PTR __real@41a00000
  003f8	f3 0f 11 04 24	 movss	 DWORD PTR [esp], xmm0
  003fd	51		 push	 ecx
  003fe	f3 0f 10 05 00
	00 00 00	 movss	 xmm0, DWORD PTR __real@42f00000
  00406	f3 0f 11 04 24	 movss	 DWORD PTR [esp], xmm0
  0040b	68 00 00 00 00	 push	 OFFSET ?normalise_importance_imaps@@YGXXZ ; normalise_importance_imaps
  00410	e8 00 00 00 00	 call	 ?add_high_level_ai_function@@YGHP6GXXZMM@Z ; add_high_level_ai_function

; 271  : 
; 272  : 		add_high_level_ai_function (normalise_base_distance_imaps, 2.0 * ONE_MINUTE, 40.0);

  00415	51		 push	 ecx
  00416	f3 0f 10 05 00
	00 00 00	 movss	 xmm0, DWORD PTR __real@42200000
  0041e	f3 0f 11 04 24	 movss	 DWORD PTR [esp], xmm0
  00423	51		 push	 ecx
  00424	f3 0f 10 05 00
	00 00 00	 movss	 xmm0, DWORD PTR __real@42f00000
  0042c	f3 0f 11 04 24	 movss	 DWORD PTR [esp], xmm0
  00431	68 00 00 00 00	 push	 OFFSET ?normalise_base_distance_imaps@@YGXXZ ; normalise_base_distance_imaps
  00436	e8 00 00 00 00	 call	 ?add_high_level_ai_function@@YGHP6GXXZMM@Z ; add_high_level_ai_function

; 273  : 
; 274  : 		add_high_level_ai_function (normalise_air_defence_imaps, 2.0 * ONE_MINUTE, 60.0);

  0043b	51		 push	 ecx
  0043c	f3 0f 10 05 00
	00 00 00	 movss	 xmm0, DWORD PTR __real@42700000
  00444	f3 0f 11 04 24	 movss	 DWORD PTR [esp], xmm0
  00449	51		 push	 ecx
  0044a	f3 0f 10 05 00
	00 00 00	 movss	 xmm0, DWORD PTR __real@42f00000
  00452	f3 0f 11 04 24	 movss	 DWORD PTR [esp], xmm0
  00457	68 00 00 00 00	 push	 OFFSET ?normalise_air_defence_imaps@@YGXXZ ; normalise_air_defence_imaps
  0045c	e8 00 00 00 00	 call	 ?add_high_level_ai_function@@YGHP6GXXZMM@Z ; add_high_level_ai_function

; 275  : 
; 276  : 		add_high_level_ai_function (normalise_surface_defence_imaps, 2.0 * ONE_MINUTE, 80.0);

  00461	51		 push	 ecx
  00462	f3 0f 10 05 00
	00 00 00	 movss	 xmm0, DWORD PTR __real@42a00000
  0046a	f3 0f 11 04 24	 movss	 DWORD PTR [esp], xmm0
  0046f	51		 push	 ecx
  00470	f3 0f 10 05 00
	00 00 00	 movss	 xmm0, DWORD PTR __real@42f00000
  00478	f3 0f 11 04 24	 movss	 DWORD PTR [esp], xmm0
  0047d	68 00 00 00 00	 push	 OFFSET ?normalise_surface_defence_imaps@@YGXXZ ; normalise_surface_defence_imaps
  00482	e8 00 00 00 00	 call	 ?add_high_level_ai_function@@YGHP6GXXZMM@Z ; add_high_level_ai_function

; 277  : 
; 278  : 		add_high_level_ai_function (update_client_server_sector_fog_of_war, FOG_OF_WAR_DECAY_RATE, 8.0);

  00487	51		 push	 ecx
  00488	f3 0f 10 05 00
	00 00 00	 movss	 xmm0, DWORD PTR __real@41000000
  00490	f3 0f 11 04 24	 movss	 DWORD PTR [esp], xmm0
  00495	51		 push	 ecx
  00496	f3 0f 10 05 00
	00 00 00	 movss	 xmm0, DWORD PTR __real@41f00000
  0049e	f3 0f 11 04 24	 movss	 DWORD PTR [esp], xmm0
  004a3	68 00 00 00 00	 push	 OFFSET ?update_client_server_sector_fog_of_war@@YGXXZ ; update_client_server_sector_fog_of_war
  004a8	e8 00 00 00 00	 call	 ?add_high_level_ai_function@@YGHP6GXXZMM@Z ; add_high_level_ai_function

; 279  : 
; 280  : 		add_high_level_ai_function (update_client_server_sector_side_count, 1.0 * ONE_MINUTE, 15.0);

  004ad	51		 push	 ecx
  004ae	f3 0f 10 05 00
	00 00 00	 movss	 xmm0, DWORD PTR __real@41700000
  004b6	f3 0f 11 04 24	 movss	 DWORD PTR [esp], xmm0
  004bb	51		 push	 ecx
  004bc	f3 0f 10 05 00
	00 00 00	 movss	 xmm0, DWORD PTR __real@42700000
  004c4	f3 0f 11 04 24	 movss	 DWORD PTR [esp], xmm0
  004c9	68 00 00 00 00	 push	 OFFSET ?update_client_server_sector_side_count@@YGXXZ ; update_client_server_sector_side_count
  004ce	e8 00 00 00 00	 call	 ?add_high_level_ai_function@@YGHP6GXXZMM@Z ; add_high_level_ai_function

; 281  : 
; 282  : 		// Campaign triggers
; 283  : 		add_high_level_ai_function (update_campaign_triggers, 1.0 * ONE_SECOND, 0.0);

  004d3	51		 push	 ecx
  004d4	0f 57 c0	 xorps	 xmm0, xmm0
  004d7	f3 0f 11 04 24	 movss	 DWORD PTR [esp], xmm0
  004dc	51		 push	 ecx
  004dd	f3 0f 10 05 00
	00 00 00	 movss	 xmm0, DWORD PTR __real@3f800000
  004e5	f3 0f 11 04 24	 movss	 DWORD PTR [esp], xmm0
  004ea	68 00 00 00 00	 push	 OFFSET ?update_campaign_triggers@@YGXXZ ; update_campaign_triggers
  004ef	e8 00 00 00 00	 call	 ?add_high_level_ai_function@@YGHP6GXXZMM@Z ; add_high_level_ai_function
$LN2@start_high:

; 284  : 	}
; 285  : }

  004f4	5f		 pop	 edi
  004f5	5e		 pop	 esi
  004f6	5b		 pop	 ebx
  004f7	8b e5		 mov	 esp, ebp
  004f9	5d		 pop	 ebp
  004fa	c3		 ret	 0
?start_high_level_ai@@YGXXZ ENDP			; start_high_level_ai
_TEXT	ENDS
; Function compile flags: /Odtp /ZI
; File c:\users\nhv90\projects\eech\aphavoc\source\ai\highlevl\highlevl.c
;	COMDAT ?deinitialise_high_level_ai@@YGXXZ
_TEXT	SEGMENT
?deinitialise_high_level_ai@@YGXXZ PROC			; deinitialise_high_level_ai, COMDAT

; 171  : {

  00000	55		 push	 ebp
  00001	8b ec		 mov	 ebp, esp
  00003	83 ec 40	 sub	 esp, 64			; 00000040H
  00006	53		 push	 ebx
  00007	56		 push	 esi
  00008	57		 push	 edi

; 172  : 	deinitialise_group_task_array ();

  00009	e8 00 00 00 00	 call	 ?deinitialise_group_task_array@@YGXXZ ; deinitialise_group_task_array

; 173  : }

  0000e	5f		 pop	 edi
  0000f	5e		 pop	 esi
  00010	5b		 pop	 ebx
  00011	8b e5		 mov	 esp, ebp
  00013	5d		 pop	 ebp
  00014	c3		 ret	 0
?deinitialise_high_level_ai@@YGXXZ ENDP			; deinitialise_high_level_ai
_TEXT	ENDS
; Function compile flags: /Odtp /ZI
; File c:\users\nhv90\projects\eech\aphavoc\source\ai\highlevl\highlevl.c
;	COMDAT ?initialise_high_level_ai@@YGXXZ
_TEXT	SEGMENT
?initialise_high_level_ai@@YGXXZ PROC			; initialise_high_level_ai, COMDAT

; 162  : {

  00000	55		 push	 ebp
  00001	8b ec		 mov	 ebp, esp
  00003	83 ec 40	 sub	 esp, 64			; 00000040H
  00006	53		 push	 ebx
  00007	56		 push	 esi
  00008	57		 push	 edi

; 163  : 	initialise_group_task_array ();

  00009	e8 00 00 00 00	 call	 ?initialise_group_task_array@@YGXXZ ; initialise_group_task_array

; 164  : }

  0000e	5f		 pop	 edi
  0000f	5e		 pop	 esi
  00010	5b		 pop	 ebx
  00011	8b e5		 mov	 esp, ebp
  00013	5d		 pop	 ebp
  00014	c3		 ret	 0
?initialise_high_level_ai@@YGXXZ ENDP			; initialise_high_level_ai
_TEXT	ENDS
; Function compile flags: /Odtp /ZI
; File c:\program files (x86)\microsoft visual studio\2017\community\vc\tools\msvc\14.16.27023\include\cmath
;	COMDAT ?fmod@@YGMMM@Z
_TEXT	SEGMENT
__Xx$ = 8						; size = 4
__Yx$ = 12						; size = 4
?fmod@@YGMMM@Z PROC					; fmod, COMDAT

; 143  : 	{

  00000	55		 push	 ebp
  00001	8b ec		 mov	 ebp, esp
  00003	83 ec 40	 sub	 esp, 64			; 00000040H
  00006	53		 push	 ebx
  00007	56		 push	 esi
  00008	57		 push	 edi

; 144  : 	return (_CSTD fmodf(_Xx, _Yx));

  00009	51		 push	 ecx
  0000a	f3 0f 10 45 0c	 movss	 xmm0, DWORD PTR __Yx$[ebp]
  0000f	f3 0f 11 04 24	 movss	 DWORD PTR [esp], xmm0
  00014	51		 push	 ecx
  00015	f3 0f 10 45 08	 movss	 xmm0, DWORD PTR __Xx$[ebp]
  0001a	f3 0f 11 04 24	 movss	 DWORD PTR [esp], xmm0
  0001f	e8 00 00 00 00	 call	 _fmodf
  00024	83 c4 08	 add	 esp, 8

; 145  : 	}

  00027	5f		 pop	 edi
  00028	5e		 pop	 esi
  00029	5b		 pop	 ebx
  0002a	8b e5		 mov	 esp, ebp
  0002c	5d		 pop	 ebp
  0002d	c2 08 00	 ret	 8
?fmod@@YGMMM@Z ENDP					; fmod
_TEXT	ENDS
; Function compile flags: /Odtp /ZI
; File c:\program files (x86)\windows kits\10\include\10.0.18362.0\ucrt\corecrt_math.h
;	COMDAT _fmodf
_TEXT	SEGMENT
tv74 = -68						; size = 4
__X$ = 8						; size = 4
__Y$ = 12						; size = 4
_fmodf	PROC						; COMDAT

; 690  :         {

  00000	55		 push	 ebp
  00001	8b ec		 mov	 ebp, esp
  00003	83 ec 44	 sub	 esp, 68			; 00000044H
  00006	53		 push	 ebx
  00007	56		 push	 esi
  00008	57		 push	 edi

; 691  :             return (float)fmod(_X, _Y);

  00009	f3 0f 5a 45 0c	 cvtss2sd xmm0, DWORD PTR __Y$[ebp]
  0000e	83 ec 08	 sub	 esp, 8
  00011	f2 0f 11 04 24	 movsd	 QWORD PTR [esp], xmm0
  00016	f3 0f 5a 45 08	 cvtss2sd xmm0, DWORD PTR __X$[ebp]
  0001b	83 ec 08	 sub	 esp, 8
  0001e	f2 0f 11 04 24	 movsd	 QWORD PTR [esp], xmm0
  00023	e8 00 00 00 00	 call	 _fmod
  00028	83 c4 10	 add	 esp, 16			; 00000010H
  0002b	d9 5d bc	 fstp	 DWORD PTR tv74[ebp]
  0002e	d9 45 bc	 fld	 DWORD PTR tv74[ebp]

; 692  :         }

  00031	5f		 pop	 edi
  00032	5e		 pop	 esi
  00033	5b		 pop	 ebx
  00034	8b e5		 mov	 esp, ebp
  00036	5d		 pop	 ebp
  00037	c3		 ret	 0
_fmodf	ENDP
_TEXT	ENDS
; Function compile flags: /Odtp /ZI
; File c:\program files (x86)\windows kits\10\include\10.0.18362.0\ucrt\stdio.h
;	COMDAT _sprintf
_TEXT	SEGMENT
__ArgList$ = -8						; size = 4
__Result$ = -4						; size = 4
__Buffer$ = 8						; size = 4
__Format$ = 12						; size = 4
_sprintf PROC						; COMDAT

; 1781 :     {

  00000	55		 push	 ebp
  00001	8b ec		 mov	 ebp, esp
  00003	83 ec 4c	 sub	 esp, 76			; 0000004cH
  00006	53		 push	 ebx
  00007	56		 push	 esi
  00008	57		 push	 edi

; 1782 :         int _Result;
; 1783 :         va_list _ArgList;
; 1784 :         __crt_va_start(_ArgList, _Format);

  00009	8d 45 10	 lea	 eax, DWORD PTR __Format$[ebp+4]
  0000c	89 45 f8	 mov	 DWORD PTR __ArgList$[ebp], eax

; 1785 : 
; 1786 :         #pragma warning(push)
; 1787 :         #pragma warning(disable: 4996) // Deprecation
; 1788 :         _Result = _vsprintf_l(_Buffer, _Format, NULL, _ArgList);

  0000f	8b 45 f8	 mov	 eax, DWORD PTR __ArgList$[ebp]
  00012	50		 push	 eax
  00013	6a 00		 push	 0
  00015	8b 4d 0c	 mov	 ecx, DWORD PTR __Format$[ebp]
  00018	51		 push	 ecx
  00019	8b 55 08	 mov	 edx, DWORD PTR __Buffer$[ebp]
  0001c	52		 push	 edx
  0001d	e8 00 00 00 00	 call	 __vsprintf_l
  00022	83 c4 10	 add	 esp, 16			; 00000010H
  00025	89 45 fc	 mov	 DWORD PTR __Result$[ebp], eax

; 1789 :         #pragma warning(pop)
; 1790 : 
; 1791 :         __crt_va_end(_ArgList);

  00028	c7 45 f8 00 00
	00 00		 mov	 DWORD PTR __ArgList$[ebp], 0

; 1792 :         return _Result;

  0002f	8b 45 fc	 mov	 eax, DWORD PTR __Result$[ebp]

; 1793 :     }

  00032	5f		 pop	 edi
  00033	5e		 pop	 esi
  00034	5b		 pop	 ebx
  00035	8b e5		 mov	 esp, ebp
  00037	5d		 pop	 ebp
  00038	c3		 ret	 0
_sprintf ENDP
_TEXT	ENDS
; Function compile flags: /Odtp /ZI
; File c:\program files (x86)\windows kits\10\include\10.0.18362.0\ucrt\stdio.h
;	COMDAT _vsprintf
_TEXT	SEGMENT
__Buffer$ = 8						; size = 4
__Format$ = 12						; size = 4
__ArgList$ = 16						; size = 4
_vsprintf PROC						; COMDAT

; 1477 :     {

  00000	55		 push	 ebp
  00001	8b ec		 mov	 ebp, esp
  00003	83 ec 40	 sub	 esp, 64			; 00000040H
  00006	53		 push	 ebx
  00007	56		 push	 esi
  00008	57		 push	 edi

; 1478 :         #pragma warning(push)
; 1479 :         #pragma warning(disable: 4996) // Deprecation
; 1480 :         return _vsnprintf_l(_Buffer, (size_t)-1, _Format, NULL, _ArgList);

  00009	8b 45 10	 mov	 eax, DWORD PTR __ArgList$[ebp]
  0000c	50		 push	 eax
  0000d	6a 00		 push	 0
  0000f	8b 4d 0c	 mov	 ecx, DWORD PTR __Format$[ebp]
  00012	51		 push	 ecx
  00013	6a ff		 push	 -1
  00015	8b 55 08	 mov	 edx, DWORD PTR __Buffer$[ebp]
  00018	52		 push	 edx
  00019	e8 00 00 00 00	 call	 __vsnprintf_l
  0001e	83 c4 14	 add	 esp, 20			; 00000014H

; 1481 :         #pragma warning(pop)
; 1482 :     }

  00021	5f		 pop	 edi
  00022	5e		 pop	 esi
  00023	5b		 pop	 ebx
  00024	8b e5		 mov	 esp, ebp
  00026	5d		 pop	 ebp
  00027	c3		 ret	 0
_vsprintf ENDP
_TEXT	ENDS
; Function compile flags: /Odtp /ZI
; File c:\program files (x86)\windows kits\10\include\10.0.18362.0\ucrt\stdio.h
;	COMDAT __vsprintf_l
_TEXT	SEGMENT
__Buffer$ = 8						; size = 4
__Format$ = 12						; size = 4
__Locale$ = 16						; size = 4
__ArgList$ = 20						; size = 4
__vsprintf_l PROC					; COMDAT

; 1459 :     {

  00000	55		 push	 ebp
  00001	8b ec		 mov	 ebp, esp
  00003	83 ec 40	 sub	 esp, 64			; 00000040H
  00006	53		 push	 ebx
  00007	56		 push	 esi
  00008	57		 push	 edi

; 1460 :         #pragma warning(push)
; 1461 :         #pragma warning(disable: 4996) // Deprecation
; 1462 :         return _vsnprintf_l(_Buffer, (size_t)-1, _Format, _Locale, _ArgList);

  00009	8b 45 14	 mov	 eax, DWORD PTR __ArgList$[ebp]
  0000c	50		 push	 eax
  0000d	8b 4d 10	 mov	 ecx, DWORD PTR __Locale$[ebp]
  00010	51		 push	 ecx
  00011	8b 55 0c	 mov	 edx, DWORD PTR __Format$[ebp]
  00014	52		 push	 edx
  00015	6a ff		 push	 -1
  00017	8b 45 08	 mov	 eax, DWORD PTR __Buffer$[ebp]
  0001a	50		 push	 eax
  0001b	e8 00 00 00 00	 call	 __vsnprintf_l
  00020	83 c4 14	 add	 esp, 20			; 00000014H

; 1463 :         #pragma warning(pop)
; 1464 :     }

  00023	5f		 pop	 edi
  00024	5e		 pop	 esi
  00025	5b		 pop	 ebx
  00026	8b e5		 mov	 esp, ebp
  00028	5d		 pop	 ebp
  00029	c3		 ret	 0
__vsprintf_l ENDP
_TEXT	ENDS
; Function compile flags: /Odtp /ZI
; File c:\program files (x86)\windows kits\10\include\10.0.18362.0\ucrt\stdio.h
;	COMDAT __vsnprintf_l
_TEXT	SEGMENT
tv74 = -72						; size = 4
__Result$ = -4						; size = 4
__Buffer$ = 8						; size = 4
__BufferCount$ = 12					; size = 4
__Format$ = 16						; size = 4
__Locale$ = 20						; size = 4
__ArgList$ = 24						; size = 4
__vsnprintf_l PROC					; COMDAT

; 1389 :     {

  00000	55		 push	 ebp
  00001	8b ec		 mov	 ebp, esp
  00003	83 ec 48	 sub	 esp, 72			; 00000048H
  00006	53		 push	 ebx
  00007	56		 push	 esi
  00008	57		 push	 edi

; 1390 :         int const _Result = __stdio_common_vsprintf(

  00009	8b 45 18	 mov	 eax, DWORD PTR __ArgList$[ebp]
  0000c	50		 push	 eax
  0000d	8b 4d 14	 mov	 ecx, DWORD PTR __Locale$[ebp]
  00010	51		 push	 ecx
  00011	8b 55 10	 mov	 edx, DWORD PTR __Format$[ebp]
  00014	52		 push	 edx
  00015	8b 45 0c	 mov	 eax, DWORD PTR __BufferCount$[ebp]
  00018	50		 push	 eax
  00019	8b 4d 08	 mov	 ecx, DWORD PTR __Buffer$[ebp]
  0001c	51		 push	 ecx
  0001d	e8 00 00 00 00	 call	 ___local_stdio_printf_options
  00022	8b 10		 mov	 edx, DWORD PTR [eax]
  00024	83 ca 01	 or	 edx, 1
  00027	8b 40 04	 mov	 eax, DWORD PTR [eax+4]
  0002a	50		 push	 eax
  0002b	52		 push	 edx
  0002c	ff 15 00 00 00
	00		 call	 DWORD PTR __imp____stdio_common_vsprintf
  00032	83 c4 1c	 add	 esp, 28			; 0000001cH
  00035	89 45 fc	 mov	 DWORD PTR __Result$[ebp], eax

; 1391 :             _CRT_INTERNAL_LOCAL_PRINTF_OPTIONS | _CRT_INTERNAL_PRINTF_LEGACY_VSPRINTF_NULL_TERMINATION,
; 1392 :             _Buffer, _BufferCount, _Format, _Locale, _ArgList);
; 1393 : 
; 1394 :         return _Result < 0 ? -1 : _Result;

  00038	83 7d fc 00	 cmp	 DWORD PTR __Result$[ebp], 0
  0003c	7d 09		 jge	 SHORT $LN3@vsnprintf_
  0003e	c7 45 b8 ff ff
	ff ff		 mov	 DWORD PTR tv74[ebp], -1
  00045	eb 06		 jmp	 SHORT $LN4@vsnprintf_
$LN3@vsnprintf_:
  00047	8b 45 fc	 mov	 eax, DWORD PTR __Result$[ebp]
  0004a	89 45 b8	 mov	 DWORD PTR tv74[ebp], eax
$LN4@vsnprintf_:
  0004d	8b 45 b8	 mov	 eax, DWORD PTR tv74[ebp]

; 1395 :     }

  00050	5f		 pop	 edi
  00051	5e		 pop	 esi
  00052	5b		 pop	 ebx
  00053	8b e5		 mov	 esp, ebp
  00055	5d		 pop	 ebp
  00056	c3		 ret	 0
__vsnprintf_l ENDP
_TEXT	ENDS
; Function compile flags: /Odtp /ZI
; File c:\program files (x86)\windows kits\10\include\10.0.18362.0\ucrt\stdio.h
;	COMDAT _fprintf
_TEXT	SEGMENT
__ArgList$ = -8						; size = 4
__Result$ = -4						; size = 4
__Stream$ = 8						; size = 4
__Format$ = 12						; size = 4
_fprintf PROC						; COMDAT

; 835  :     {

  00000	55		 push	 ebp
  00001	8b ec		 mov	 ebp, esp
  00003	83 ec 4c	 sub	 esp, 76			; 0000004cH
  00006	53		 push	 ebx
  00007	56		 push	 esi
  00008	57		 push	 edi

; 836  :         int _Result;
; 837  :         va_list _ArgList;
; 838  :         __crt_va_start(_ArgList, _Format);

  00009	8d 45 10	 lea	 eax, DWORD PTR __Format$[ebp+4]
  0000c	89 45 f8	 mov	 DWORD PTR __ArgList$[ebp], eax

; 839  :         _Result = _vfprintf_l(_Stream, _Format, NULL, _ArgList);

  0000f	8b 45 f8	 mov	 eax, DWORD PTR __ArgList$[ebp]
  00012	50		 push	 eax
  00013	6a 00		 push	 0
  00015	8b 4d 0c	 mov	 ecx, DWORD PTR __Format$[ebp]
  00018	51		 push	 ecx
  00019	8b 55 08	 mov	 edx, DWORD PTR __Stream$[ebp]
  0001c	52		 push	 edx
  0001d	e8 00 00 00 00	 call	 __vfprintf_l
  00022	83 c4 10	 add	 esp, 16			; 00000010H
  00025	89 45 fc	 mov	 DWORD PTR __Result$[ebp], eax

; 840  :         __crt_va_end(_ArgList);

  00028	c7 45 f8 00 00
	00 00		 mov	 DWORD PTR __ArgList$[ebp], 0

; 841  :         return _Result;

  0002f	8b 45 fc	 mov	 eax, DWORD PTR __Result$[ebp]

; 842  :     }

  00032	5f		 pop	 edi
  00033	5e		 pop	 esi
  00034	5b		 pop	 ebx
  00035	8b e5		 mov	 esp, ebp
  00037	5d		 pop	 ebp
  00038	c3		 ret	 0
_fprintf ENDP
_TEXT	ENDS
; Function compile flags: /Odtp /ZI
; File c:\program files (x86)\windows kits\10\include\10.0.18362.0\ucrt\stdio.h
;	COMDAT __vfprintf_l
_TEXT	SEGMENT
__Stream$ = 8						; size = 4
__Format$ = 12						; size = 4
__Locale$ = 16						; size = 4
__ArgList$ = 20						; size = 4
__vfprintf_l PROC					; COMDAT

; 642  :     {

  00000	55		 push	 ebp
  00001	8b ec		 mov	 ebp, esp
  00003	83 ec 40	 sub	 esp, 64			; 00000040H
  00006	53		 push	 ebx
  00007	56		 push	 esi
  00008	57		 push	 edi

; 643  :         return __stdio_common_vfprintf(_CRT_INTERNAL_LOCAL_PRINTF_OPTIONS, _Stream, _Format, _Locale, _ArgList);

  00009	8b 45 14	 mov	 eax, DWORD PTR __ArgList$[ebp]
  0000c	50		 push	 eax
  0000d	8b 4d 10	 mov	 ecx, DWORD PTR __Locale$[ebp]
  00010	51		 push	 ecx
  00011	8b 55 0c	 mov	 edx, DWORD PTR __Format$[ebp]
  00014	52		 push	 edx
  00015	8b 45 08	 mov	 eax, DWORD PTR __Stream$[ebp]
  00018	50		 push	 eax
  00019	e8 00 00 00 00	 call	 ___local_stdio_printf_options
  0001e	8b 48 04	 mov	 ecx, DWORD PTR [eax+4]
  00021	51		 push	 ecx
  00022	8b 10		 mov	 edx, DWORD PTR [eax]
  00024	52		 push	 edx
  00025	ff 15 00 00 00
	00		 call	 DWORD PTR __imp____stdio_common_vfprintf
  0002b	83 c4 18	 add	 esp, 24			; 00000018H

; 644  :     }

  0002e	5f		 pop	 edi
  0002f	5e		 pop	 esi
  00030	5b		 pop	 ebx
  00031	8b e5		 mov	 esp, ebp
  00033	5d		 pop	 ebp
  00034	c3		 ret	 0
__vfprintf_l ENDP
_TEXT	ENDS
; Function compile flags: /Odtp /ZI
; File c:\program files (x86)\windows kits\10\include\10.0.18362.0\ucrt\corecrt_stdio_config.h
;	COMDAT ___local_stdio_printf_options
_TEXT	SEGMENT
___local_stdio_printf_options PROC			; COMDAT

; 86   :     {

  00000	55		 push	 ebp
  00001	8b ec		 mov	 ebp, esp
  00003	83 ec 40	 sub	 esp, 64			; 00000040H
  00006	53		 push	 ebx
  00007	56		 push	 esi
  00008	57		 push	 edi

; 87   :         static unsigned __int64 _OptionsStorage;
; 88   :         return &_OptionsStorage;

  00009	b8 00 00 00 00	 mov	 eax, OFFSET ?_OptionsStorage@?1??__local_stdio_printf_options@@9@4_KA ; `__local_stdio_printf_options'::`2'::_OptionsStorage

; 89   :     }

  0000e	5f		 pop	 edi
  0000f	5e		 pop	 esi
  00010	5b		 pop	 ebx
  00011	8b e5		 mov	 esp, ebp
  00013	5d		 pop	 ebp
  00014	c3		 ret	 0
___local_stdio_printf_options ENDP
_TEXT	ENDS
END
