; Listing generated by Microsoft (R) Optimizing Compiler Version 19.16.27045.0 

	TITLE	C:\Users\nhv90\Projects\eech\aphavoc\source\ai\highlevl\highlevl.c
	.686P
	.XMM
	include listing.inc
	.model	flat

INCLUDELIB MSVCRTD
INCLUDELIB OLDNAMES

PUBLIC	___local_stdio_printf_options
PUBLIC	__vfprintf_l
PUBLIC	_fprintf
PUBLIC	__vsnprintf_l
PUBLIC	__vsprintf_l
PUBLIC	_vsprintf
PUBLIC	_sprintf
PUBLIC	_fmodf
PUBLIC	?fmod@@YGMMM@Z					; fmod
PUBLIC	?initialise_high_level_ai@@YGXXZ		; initialise_high_level_ai
PUBLIC	?deinitialise_high_level_ai@@YGXXZ		; deinitialise_high_level_ai
PUBLIC	?start_high_level_ai@@YGXXZ			; start_high_level_ai
PUBLIC	?stop_high_level_ai@@YGXXZ			; stop_high_level_ai
PUBLIC	?create_sead_tasks_around_keysite@@YGHPAUENTITY@@0W4ENTITY_SIDES@@@Z ; create_sead_tasks_around_keysite
PUBLIC	?ai_log@@YAXPBDZZ				; ai_log
PUBLIC	??$min@H@std@@YGABHABH0@Z			; std::min<int>
PUBLIC	??$min@M@std@@YGABMABM0@Z			; std::min<float>
PUBLIC	??$fmod@MHX@@YGNMH@Z				; fmod<float,int,void>
PUBLIC	?_OptionsStorage@?1??__local_stdio_printf_options@@9@4_KA ; `__local_stdio_printf_options'::`2'::_OptionsStorage
PUBLIC	??_C@_02DKCKIIND@?$CFs@				; `string'
PUBLIC	??_C@_01NOFIACDB@w@				; `string'
PUBLIC	??_C@_06MDHFGADH@AI?4LOG@			; `string'
PUBLIC	?__LINE__Var@?0??add_high_level_ai_function@@YGHP6GXXZMM@Z@4JA ; `add_high_level_ai_function'::`1'::__LINE__Var
PUBLIC	??_C@_0ED@GMECMFKH@c?3?2users?2nhv90?2projects?2eech?2ap@ ; `string'
PUBLIC	??_C@_0DI@GLECGHEO@?$CIstart_time?5?$DO?$DN?50?40?$CJ?5?$CG?$CG?5?$CIstart_t@ ; `string'
PUBLIC	??_C@_0DG@BEFLEAOE@?$CIfrequency?5?$DO?50?40?$CJ?5?$CG?$CG?5?$CIfrequency@ ; `string'
PUBLIC	??_C@_0CM@CLOFEPLL@fmod?5?$CI?$CI24?40f?5?$CK?5ONE_HOUR?$CJ?0?5frequ@ ; `string'
PUBLIC	?__LINE__Var@?0??create_advance_and_retreat_tasks@@YGXXZ@4JA ; `create_advance_and_retreat_tasks'::`1'::__LINE__Var
PUBLIC	??_C@_0CB@HHHLKEEB@?$DN?$DN?$DN?$DN?$DN?$DN?$DN?$DN?$DN?$DN?$DN?$DN?$DN?$DN?$DN?$DN?$DN?$DN?$DN?$DN?$DN?$DN?$DN?$DN?$DN?$DN?$DN?$DN?$DN?$DN?$DN@ ; `string'
PUBLIC	??_C@_0CB@LJIJLMNN@CREATE?5ADVANCE?5AND?5RETREAT?5TASK@ ; `string'
PUBLIC	??_C@_0CB@GNHPAIID@?9?9?9?9?9?9?9?9?9?9?9?9?9?9?9?9?9?9?9?9?9?9?9?9?9?9?9?9?9?9?9@ ; `string'
PUBLIC	??_C@_0CE@FGAKBBGH@count?5?$DM?5MAX_HIGHLEVEL_TARGET_CH@ ; `string'
PUBLIC	??_C@_0CP@NMIFMLJD@HIGHLEVL?3?5?$CFs?5?$CFd?5candidates?5for?5@ ; `string'
PUBLIC	??_C@_0DK@PPPJLNAH@?$CITASK?$CJ?5Side?5?$CFs?5?3?5Created?5Advanc@ ; `string'
PUBLIC	?__LINE__Var@?0??create_bai_tasks@@YGXXZ@4JA	; `create_bai_tasks'::`1'::__LINE__Var
PUBLIC	??_C@_0CJ@DMBLBJBK@get_comms_model?5?$CI?$CJ?5?$DN?$DN?5COMMS_MOD@ ; `string'
PUBLIC	??_C@_0BB@NAOGIAIJ@?$DN?$DN?$DN?$DN?$DN?$DN?$DN?$DN?$DN?$DN?$DN?$DN?$DN?$DN?$DN?$DN@ ; `string'
PUBLIC	??_C@_0BB@NJDEMLPF@CREATE?5BAI?5TASKS@		; `string'
PUBLIC	??_C@_0BB@OAGJBGHP@?9?9?9?9?9?9?9?9?9?9?9?9?9?9?9?9@ ; `string'
PUBLIC	??_C@_0CD@HDCLOPCE@HIGHLEVL?3?5?$CFs?5?$CFd?5candidates?5for?5@ ; `string'
PUBLIC	??_C@_0BI@BNNJCIEB@target_rating?5?$FL0?$FN?5?$DO?50?40@ ; `string'
PUBLIC	??_C@_06IDGHNJOB@sector@			; `string'
PUBLIC	??_C@_0EN@DCEEGNCA@?$CITASK?$CJ?5?$CFs?5BAI?5?$CD?$CFd?5?$CI?$CFd?$CJ?5?9?5Target@ ; `string'
PUBLIC	??_C@_0FD@POECHJC@?$CITASK?$CJ?5?$CFs?5BAI?5RECON?5?$CD?$CFd?5?$CI?$CFd?$CJ?5?9?5@ ; `string'
PUBLIC	?__LINE__Var@?0??create_cas_tasks@@YGXXZ@4JA	; `create_cas_tasks'::`1'::__LINE__Var
PUBLIC	??_C@_0BB@NLININCI@CREATE?5CAS?5TASKS@		; `string'
PUBLIC	??_C@_0CD@HLLKHCJK@HIGHLEVL?3?5?$CFs?5?$CFd?5candidates?5for?5@ ; `string'
PUBLIC	??_C@_0EN@NKEMKLGO@?$CITASK?$CJ?5?$CFs?5CAS?5?$CD?$CFd?5?$CI?$CFd?$CJ?5?9?5Target@ ; `string'
PUBLIC	?__LINE__Var@?0??create_keysite_strike_tasks@@YGXXZ@4JA ; `create_keysite_strike_tasks'::`1'::__LINE__Var
PUBLIC	??_C@_0BL@EBIHNBEK@?$DN?$DN?$DN?$DN?$DN?$DN?$DN?$DN?$DN?$DN?$DN?$DN?$DN?$DN?$DN?$DN?$DN?$DN?$DN?$DN?$DN?$DN?$DN?$DN?$DN?$DN@ ; `string'
PUBLIC	??_C@_0BM@KDKLEBEP@CREATE?5KEYSITE?5STRIKE?5TASKS@ ; `string'
PUBLIC	??_C@_0BL@JMBEPNBE@?9?9?9?9?9?9?9?9?9?9?9?9?9?9?9?9?9?9?9?9?9?9?9?9?9?9@ ; `string'
PUBLIC	??_C@_0CG@NIEBJEDL@HIGHLEVL?3?5?$CFs?5?$CFd?5candidates?5for?5@ ; `string'
PUBLIC	??_C@_0DD@MFHODDPB@keysite_database?5?$FLkeysite_type?$FN@ ; `string'
PUBLIC	??_C@_0FB@PJNGGCMD@?$CITASK?$CJ?5?$CFs?5KEYSITE?5RECON?5?$CD?$CFd?5?$CI?$CFd@ ; `string'
PUBLIC	??_C@_0FJ@EAKBAFJI@?$CITASK?$CJ?5?$CFs?5KEYSITE?5GROUND?5STRIKE@ ; `string'
PUBLIC	??_C@_0FH@JBIGNNAG@?$CITASK?$CJ?5?$CFs?5KEYSITE?5SHIP?5STRIKE?5?$CD@ ; `string'
PUBLIC	?__LINE__Var@?0??create_oca_strike_tasks@@YGXXZ@4JA ; `create_oca_strike_tasks'::`1'::__LINE__Var
PUBLIC	??_C@_0BI@ELAFCIHN@CREATE?5OCA?5STRIKE?5TASKS@	; `string'
PUBLIC	??_C@_0CK@EOJIBDHN@HIGHLEVL?3?5?$CFs?5?$CFd?5candidates?5for?5@ ; `string'
PUBLIC	??_C@_0EO@MIICAGKN@?$CITASK?$CJ?5?$CFs?5OCA?5STRIKE?5?$CD?$CFd?5?$CI?$CFd?$CJ?5?9@ ; `string'
PUBLIC	?__LINE__Var@?0??create_oca_sweep_tasks@@YGXXZ@4JA ; `create_oca_sweep_tasks'::`1'::__LINE__Var
PUBLIC	??_C@_0BH@ODOINJHA@CREATE?5OCA?5SWEEP?5TASKS@	; `string'
PUBLIC	??_C@_0CJ@LAGELLPF@HIGHLEVL?3?5?$CFs?5?$CFd?5candidates?5for?5@ ; `string'
PUBLIC	??_C@_0EN@HANCKLDA@?$CITASK?$CJ?5?$CFs?5OCA?5SWEEP?5?$CD?$CFd?5?$CI?$CFd?$CJ?5?9?5@ ; `string'
PUBLIC	?__LINE__Var@?0??create_troop_insertion_tasks@@YGXXZ@4JA ; `create_troop_insertion_tasks'::`1'::__LINE__Var
PUBLIC	??_C@_0BN@LNBJDKDH@?$DN?$DN?$DN?$DN?$DN?$DN?$DN?$DN?$DN?$DN?$DN?$DN?$DN?$DN?$DN?$DN?$DN?$DN?$DN?$DN?$DN?$DN?$DN?$DN?$DN?$DN?$DN?$DN@ ; `string'
PUBLIC	??_C@_0BN@PAOIDBBL@CREATE?5TROOP?5INSERTION?5TASKS@ ; `string'
PUBLIC	??_C@_0BN@PNBNEKLM@?9?9?9?9?9?9?9?9?9?9?9?9?9?9?9?9?9?9?9?9?9?9?9?9?9?9?9?9@ ; `string'
PUBLIC	??_C@_0CD@EFNCGLHK@HIGHLEVL?3?5?$CFs?5?$CFd?5candidates?5for?5@ ; `string'
PUBLIC	??_C@_0FG@FBHDLGFE@?$CITASK?$CJ?5?$CFs?5KEYSITE?5T?4I?4?5RECON?5?$CD?$CF@ ; `string'
PUBLIC	??_C@_0FD@NLNDEGBN@?$CITASK?$CJ?5?$CFs?5TROOP?5INSERTION?5?$CD?$CFd?5?$CI@ ; `string'
PUBLIC	?__LINE__Var@?0??create_sead_tasks@@YGXXZ@4JA	; `create_sead_tasks'::`1'::__LINE__Var
PUBLIC	??_C@_0CE@HEJEDNOC@HIGHLEVL?3?5?$CFs?5?$CFd?5candidates?5for?5@ ; `string'
PUBLIC	??_C@_0FD@FFMCDIJF@?$CITASK?$CJ?5?$CFs?5SEAD?5?$CD?$CFd?5?$CI?$CFd?$CJ?5?9?5Targe@ ; `string'
PUBLIC	??_C@_0FJ@BPGJMGNM@?$CITASK?$CJ?5?$CFs?5SEAD?5RECON?5?$CD?$CFd?5?$CI?$CFd?$CJ?5?9@ ; `string'
PUBLIC	?__LINE__Var@?0??create_fixed_wing_transfer_tasks@@YGXXZ@4JA ; `create_fixed_wing_transfer_tasks'::`1'::__LINE__Var
PUBLIC	??_C@_0BL@MMKFLGNE@CREATE?5TRANSFER?5?$CIFW?$CJ?5TASKS@ ; `string'
PUBLIC	??_C@_0L@BBFNENIC@landing_en@			; `string'
PUBLIC	??_C@_0EJ@ELLEGADD@?$CITASK?$CJ?5?$CFs?5TRANSFER?5?9?5From?5?$CFs?5?$CI?$CF@ ; `string'
PUBLIC	?__LINE__Var@?0??create_helicopter_transfer_tasks@@YGXXZ@4JA ; `create_helicopter_transfer_tasks'::`1'::__LINE__Var
PUBLIC	??_C@_0BL@CDEAJFBK@CREATE?5TRANSFER?5?$CIHC?$CJ?5TASKS@ ; `string'
PUBLIC	?__LINE__Var@?0??create_sead_tasks_around_keysite@@YGHPAUENTITY@@0W4ENTITY_SIDES@@@Z@4JA ; `create_sead_tasks_around_keysite'::`1'::__LINE__Var
PUBLIC	??_C@_07FBNBNOMI@keysite@			; `string'
PUBLIC	??_C@_05BINPNAAL@force@				; `string'
PUBLIC	??_C@_0DP@PONNJEMN@?$CITASK?$CJ?5Side?5?$CFs?5?3?5Created?5SEAD?5?$CD@ ; `string'
PUBLIC	?__LINE__Var@?0??create_troop_patrol_tasks@@YGXXZ@4JA ; `create_troop_patrol_tasks'::`1'::__LINE__Var
PUBLIC	?__LINE__Var@?0??create_artillery_strike_tasks@@YGXXZ@4JA ; `create_artillery_strike_tasks'::`1'::__LINE__Var
PUBLIC	??_C@_0BO@NCOIPEIL@?$DN?$DN?$DN?$DN?$DN?$DN?$DN?$DN?$DN?$DN?$DN?$DN?$DN?$DN?$DN?$DN?$DN?$DN?$DN?$DN?$DN?$DN?$DN?$DN?$DN?$DN?$DN?$DN?$DN@ ; `string'
PUBLIC	??_C@_0BO@PKOHEKBI@CREATE?5ARTILLERY?5STRIKE?5TASKS@ ; `string'
PUBLIC	??_C@_0BO@OCAALIAC@?9?9?9?9?9?9?9?9?9?9?9?9?9?9?9?9?9?9?9?9?9?9?9?9?9?9?9?9?9@ ; `string'
PUBLIC	??_C@_0DG@MKPLALAD@get_local_entity_type?5?$CItarget?$CJ?5@ ; `string'
PUBLIC	??_C@_0DN@BNFHDBCO@?$CIARTILLERY?$CJ?5Group?5?$CFd?5Attacking?5@ ; `string'
PUBLIC	?__LINE__Var@?0??ai_log@@YAXPBDZZ@4JA		; `ai_log'::`1'::__LINE__Var
PUBLIC	??_C@_0BG@EFCJJKAA@get_session_entity?5?$CI?$CJ@ ; `string'
PUBLIC	??_C@_0BK@LNLKLEEP@Day?5?$CFd?5?$CF02d?3?$CF02d?3?$CF02d?5?3?9?5@ ; `string'
PUBLIC	??_C@_01MCMALHOG@a@				; `string'
PUBLIC	??_C@_01EEMJAFIK@?6@				; `string'
PUBLIC	??_C@_0BD@FEEMDEPI@invalid?5comparator@		; `string'
PUBLIC	??_C@_0GK@JMBMHIBC@c?3?2program?5files?5?$CIx86?$CJ?2microsof@ ; `string'
PUBLIC	??_C@_1NE@FKBPBJEB@?$AAc?$AA?3?$AA?2?$AAp?$AAr?$AAo?$AAg?$AAr?$AAa?$AAm?$AA?5?$AAf?$AAi?$AAl?$AAe@ ; `string'
PUBLIC	??_C@_1BC@BLAPCBGI@?$AAs?$AAt?$AAd?$AA?3?$AA?3?$AAm?$AAi?$AAn@ ; `string'
PUBLIC	??_C@_1CK@NDNHPKPI@?$AA?$CC?$AAi?$AAn?$AAv?$AAa?$AAl?$AAi?$AAd?$AA?5?$AAc?$AAo?$AAm?$AAp?$AAa?$AAr@ ; `string'
PUBLIC	__real@0000000000000000
PUBLIC	__real@3f800000
PUBLIC	__real@3fc999999999999a
PUBLIC	__real@3fd0000000000000
PUBLIC	__real@3fe0000000000000
PUBLIC	__real@3fe8000000000000
PUBLIC	__real@3ff0000000000000
PUBLIC	__real@40000000
PUBLIC	__real@4000000000000000
PUBLIC	__real@4008000000000000
PUBLIC	__real@4010000000000000
PUBLIC	__real@40800000
PUBLIC	__real@40b3880000000000
PUBLIC	__real@40c00000
PUBLIC	__real@40e00000
PUBLIC	__real@40f5180000000000
PUBLIC	__real@41000000
PUBLIC	__real@41100000
PUBLIC	__real@41200000
PUBLIC	__real@41400000
PUBLIC	__real@416e848000000000
PUBLIC	__real@41700000
PUBLIC	__real@41a00000
PUBLIC	__real@41f00000
PUBLIC	__real@42080000
PUBLIC	__real@42200000
PUBLIC	__real@42340000
PUBLIC	__real@42700000
PUBLIC	__real@42a00000
PUBLIC	__real@42b40000
PUBLIC	__real@42f00000
PUBLIC	__real@43160000
PUBLIC	__real@43340000
PUBLIC	__real@43700000
PUBLIC	__real@43960000
PUBLIC	__real@43b40000
PUBLIC	__real@43c30000
PUBLIC	__real@43e10000
PUBLIC	__real@44160000
PUBLIC	__real@44340000
PUBLIC	__real@44610000
PUBLIC	__real@447a0000
PUBLIC	__real@44960000
PUBLIC	__real@44e10000
PUBLIC	__real@47a8c000
EXTRN	__imp___invalid_parameter:PROC
EXTRN	__imp__fclose:PROC
EXTRN	__imp____stdio_common_vfprintf:PROC
EXTRN	__imp____stdio_common_vsprintf:PROC
EXTRN	_memset:PROC
EXTRN	__imp___CrtDbgReport:PROC
EXTRN	_fmod:PROC
EXTRN	?process_assert@@YGXPBD0H@Z:PROC		; process_assert
EXTRN	?convert_float_to_int@@YGXMPAH@Z:PROC		; convert_float_to_int
EXTRN	?debug_log@@YAXPBDZZ:PROC			; debug_log
EXTRN	?safe_fopen@@YGPAU_iobuf@@PBD0@Z:PROC		; safe_fopen
EXTRN	?malloc_fast_memory@@YGPAXI@Z:PROC		; malloc_fast_memory
EXTRN	?free_mem@@YGXPAX@Z:PROC			; free_mem
EXTRN	?get_sqr_2d_range@@YGMPBUVEC3D@@0@Z:PROC	; get_sqr_2d_range
EXTRN	?add_update_function@@YGHP6GXXZMM@Z:PROC	; add_update_function
EXTRN	?remove_update_function@@YGHP6GXXZ@Z:PROC	; remove_update_function
EXTRN	?notify_local_entity@@YAHW4ENTITY_MESSAGES@@PAUENTITY@@1ZZ:PROC ; notify_local_entity
EXTRN	?quicksort_entity_list@@YGXPAPAUENTITY@@HPAM@Z:PROC ; quicksort_entity_list
EXTRN	?get_local_group_max_weapon_range@@YGMPAUENTITY@@@Z:PROC ; get_local_group_max_weapon_range
EXTRN	?get_local_force_entity@@YGPAUENTITY@@W4ENTITY_SIDES@@@Z:PROC ; get_local_force_entity
EXTRN	?get_keysite_landing_sites_available@@YGHPAUENTITY@@H@Z:PROC ; get_keysite_landing_sites_available
EXTRN	?get_local_entity_landing_entity@@YGPAUENTITY@@PAU1@H@Z:PROC ; get_local_entity_landing_entity
EXTRN	?get_local_sector_entity@@YGPAUENTITY@@PAUVEC3D@@@Z:PROC ; get_local_sector_entity
EXTRN	?get_local_sector_side_ratio@@YGMHHW4ENTITY_SIDES@@@Z:PROC ; get_local_sector_side_ratio
EXTRN	?get_sector_fog_of_war_value@@YGMPAUENTITY@@W4ENTITY_SIDES@@@Z:PROC ; get_sector_fog_of_war_value
EXTRN	?update_client_server_sector_fog_of_war@@YGXXZ:PROC ; update_client_server_sector_fog_of_war
EXTRN	?update_client_server_sector_side_count@@YGXXZ:PROC ; update_client_server_sector_side_count
EXTRN	?get_sector_task_type_count@@YGHPAUENTITY@@HW4ENTITY_SIDES@@@Z:PROC ; get_sector_task_type_count
EXTRN	?entity_is_object_of_task@@YGHPAUENTITY@@HW4ENTITY_SIDES@@@Z:PROC ; entity_is_object_of_task
EXTRN	?get_digital_clock_int_values@@YGXMPAH00@Z:PROC	; get_digital_clock_int_values
EXTRN	?initialise_imaps@@YGXXZ:PROC			; initialise_imaps
EXTRN	?deinitialise_imaps@@YGXXZ:PROC			; deinitialise_imaps
EXTRN	?get_imap_value@@YGMW4IMAP_TYPES@@W4ENTITY_SIDES@@HH@Z:PROC ; get_imap_value
EXTRN	?normalise_importance_imaps@@YGXXZ:PROC		; normalise_importance_imaps
EXTRN	?normalise_base_distance_imaps@@YGXXZ:PROC	; normalise_base_distance_imaps
EXTRN	?normalise_air_defence_imaps@@YGXXZ:PROC	; normalise_air_defence_imaps
EXTRN	?normalise_surface_defence_imaps@@YGXXZ:PROC	; normalise_surface_defence_imaps
EXTRN	?create_reaction_to_artillery_fire@@YGXPAUENTITY@@0@Z:PROC ; create_reaction_to_artillery_fire
EXTRN	?initialise_group_task_array@@YGXXZ:PROC	; initialise_group_task_array
EXTRN	?deinitialise_group_task_array@@YGXXZ:PROC	; deinitialise_group_task_array
EXTRN	?get_road_link_breaks@@YGHHH@Z:PROC		; get_road_link_breaks
EXTRN	?update_campaign_triggers@@YGXXZ:PROC		; update_campaign_triggers
EXTRN	?assign_task_to_group@@YGHPAUENTITY@@0I@Z:PROC	; assign_task_to_group
EXTRN	?check_group_members_awake@@YGHPAUENTITY@@@Z:PROC ; check_group_members_awake
EXTRN	?engage_targets_in_area@@YGHPAUENTITY@@PAUVEC3D@@MIH@Z:PROC ; engage_targets_in_area
EXTRN	?engage_targets_in_group@@YGHPAUENTITY@@0H@Z:PROC ; engage_targets_in_group
EXTRN	?create_anti_ship_strike_task@@YGPAUENTITY@@W4ENTITY_SIDES@@PAU1@1HM11@Z:PROC ; create_anti_ship_strike_task
EXTRN	?create_bai_task@@YGPAUENTITY@@W4ENTITY_SIDES@@PAU1@1HM11@Z:PROC ; create_bai_task
EXTRN	?create_close_air_support_task@@YGPAUENTITY@@W4ENTITY_SIDES@@PAU1@1HM11@Z:PROC ; create_close_air_support_task
EXTRN	?create_ground_strike_task@@YGPAUENTITY@@W4ENTITY_SIDES@@PAU1@1HM11@Z:PROC ; create_ground_strike_task
EXTRN	?create_oca_strike_task@@YGPAUENTITY@@W4ENTITY_SIDES@@PAU1@1HM11@Z:PROC ; create_oca_strike_task
EXTRN	?create_oca_sweep_task@@YGPAUENTITY@@W4ENTITY_SIDES@@PAU1@1HM11@Z:PROC ; create_oca_sweep_task
EXTRN	?create_recon_task@@YGPAUENTITY@@W4ENTITY_SIDES@@PAU1@1HM11@Z:PROC ; create_recon_task
EXTRN	?create_sead_task@@YGPAUENTITY@@W4ENTITY_SIDES@@PAU1@1HM11@Z:PROC ; create_sead_task
EXTRN	?create_transfer_task@@YGPAUENTITY@@W4ENTITY_SIDES@@HMPAU1@1@Z:PROC ; create_transfer_task
EXTRN	?create_troop_insertion_task@@YGPAUENTITY@@W4ENTITY_SIDES@@PAU1@1HM11@Z:PROC ; create_troop_insertion_task
EXTRN	?create_troop_movement_patrol_task@@YGPAUENTITY@@W4ENTITY_SIDES@@PAU1@@Z:PROC ; create_troop_movement_patrol_task
EXTRN	?null_entity_pointer_message@@3PBDB:DWORD	; null_entity_pointer_message
EXTRN	?entity_side_short_names@@3PAPBDA:BYTE		; entity_side_short_names
EXTRN	?system_comms_model@@3W4COMMS_MODEL_TYPES@@A:DWORD ; system_comms_model
EXTRN	?world_map@@3UWORLD_MAP_DATA@@A:BYTE		; world_map
EXTRN	?overload_invalid_list_type_message@@3PBDB:DWORD ; overload_invalid_list_type_message
EXTRN	?fn_get_local_entity_first_child@@3PAY0CN@P6GPAUENTITY@@PAU1@W4LIST_TYPES@@@ZA:BYTE ; fn_get_local_entity_first_child
EXTRN	?fn_get_local_entity_parent@@3PAY0CN@P6GPAUENTITY@@PAU1@W4LIST_TYPES@@@ZA:BYTE ; fn_get_local_entity_parent
EXTRN	?fn_get_local_entity_child_succ@@3PAY0CN@P6GPAUENTITY@@PAU1@W4LIST_TYPES@@@ZA:BYTE ; fn_get_local_entity_child_succ
EXTRN	?fn_destroy_client_server_entity@@3PAY01P6GXPAUENTITY@@@ZA:BYTE ; fn_destroy_client_server_entity
EXTRN	?overload_invalid_float_type_message@@3PBDB:DWORD ; overload_invalid_float_type_message
EXTRN	?fn_get_local_entity_float_value@@3PAY0KP@P6GMPAUENTITY@@W4FLOAT_TYPES@@@ZA:BYTE ; fn_get_local_entity_float_value
EXTRN	?overload_invalid_int_type_message@@3PBDB:DWORD	; overload_invalid_int_type_message
EXTRN	?fn_get_local_entity_int_value@@3PAY0BBH@P6GHPAUENTITY@@W4INT_TYPES@@@ZA:BYTE ; fn_get_local_entity_int_value
EXTRN	?overload_invalid_string_type_message@@3PBDB:DWORD ; overload_invalid_string_type_message
EXTRN	?fn_get_local_entity_string@@3PAY0N@P6GPBDPAUENTITY@@W4STRING_TYPES@@@ZA:BYTE ; fn_get_local_entity_string
EXTRN	?overload_invalid_vec3d_type_message@@3PBDB:DWORD ; overload_invalid_vec3d_type_message
EXTRN	?fn_get_local_entity_vec3d_ptr@@3PAY0BI@P6GPAUVEC3D@@PAUENTITY@@W4VEC3D_TYPES@@@ZA:BYTE ; fn_get_local_entity_vec3d_ptr
EXTRN	?entities@@3PAUENTITY@@A:DWORD			; entities
EXTRN	?group_database@@3PAUGROUP_DATA@@A:BYTE		; group_database
EXTRN	?keysite_database@@3PAUKEYSITE_DATA@@A:BYTE	; keysite_database
EXTRN	?session_entity@@3PAUENTITY@@A:DWORD		; session_entity
EXTRN	?task_database@@3PAUTASK_DATA@@A:BYTE		; task_database
EXTRN	?game_type@@3W4GAME_TYPES@@A:DWORD		; game_type
EXTRN	?road_nodes@@3PAUNODE_DATA@@A:DWORD		; road_nodes
EXTRN	?road_node_positions@@3PAUVEC3D@@A:DWORD	; road_node_positions
EXTRN	__fltused:DWORD
;	COMDAT ?_OptionsStorage@?1??__local_stdio_printf_options@@9@4_KA
_BSS	SEGMENT
?_OptionsStorage@?1??__local_stdio_printf_options@@9@4_KA DQ 01H DUP (?) ; `__local_stdio_printf_options'::`2'::_OptionsStorage
_BSS	ENDS
_BSS	SEGMENT
?target_list@@3PAPAUENTITY@@A DD 0a0H DUP (?)		; target_list
?target_rating@@3PAMA DD 0a0H DUP (?)			; target_rating
?ai_log_file@@3PAU_iobuf@@A DD 01H DUP (?)		; ai_log_file
?importance_rating@@3MA DD 01H DUP (?)			; importance_rating
?air_defence_rating@@3MA DD 01H DUP (?)			; air_defence_rating
?surface_defence_rating@@3MA DD 01H DUP (?)		; surface_defence_rating
?base_distance_rating@@3MA DD 01H DUP (?)		; base_distance_rating
?buffer@?1??ai_log@@YAXPBDZZ@4PADA DB 03e8H DUP (?)	; `ai_log'::`2'::buffer
_BSS	ENDS
;	COMDAT __real@47a8c000
CONST	SEGMENT
__real@47a8c000 DD 047a8c000r			; 86400
CONST	ENDS
;	COMDAT __real@44e10000
CONST	SEGMENT
__real@44e10000 DD 044e10000r			; 1800
CONST	ENDS
;	COMDAT __real@44960000
CONST	SEGMENT
__real@44960000 DD 044960000r			; 1200
CONST	ENDS
;	COMDAT __real@447a0000
CONST	SEGMENT
__real@447a0000 DD 0447a0000r			; 1000
CONST	ENDS
;	COMDAT __real@44610000
CONST	SEGMENT
__real@44610000 DD 044610000r			; 900
CONST	ENDS
;	COMDAT __real@44340000
CONST	SEGMENT
__real@44340000 DD 044340000r			; 720
CONST	ENDS
;	COMDAT __real@44160000
CONST	SEGMENT
__real@44160000 DD 044160000r			; 600
CONST	ENDS
;	COMDAT __real@43e10000
CONST	SEGMENT
__real@43e10000 DD 043e10000r			; 450
CONST	ENDS
;	COMDAT __real@43c30000
CONST	SEGMENT
__real@43c30000 DD 043c30000r			; 390
CONST	ENDS
;	COMDAT __real@43b40000
CONST	SEGMENT
__real@43b40000 DD 043b40000r			; 360
CONST	ENDS
;	COMDAT __real@43960000
CONST	SEGMENT
__real@43960000 DD 043960000r			; 300
CONST	ENDS
;	COMDAT __real@43700000
CONST	SEGMENT
__real@43700000 DD 043700000r			; 240
CONST	ENDS
;	COMDAT __real@43340000
CONST	SEGMENT
__real@43340000 DD 043340000r			; 180
CONST	ENDS
;	COMDAT __real@43160000
CONST	SEGMENT
__real@43160000 DD 043160000r			; 150
CONST	ENDS
;	COMDAT __real@42f00000
CONST	SEGMENT
__real@42f00000 DD 042f00000r			; 120
CONST	ENDS
;	COMDAT __real@42b40000
CONST	SEGMENT
__real@42b40000 DD 042b40000r			; 90
CONST	ENDS
;	COMDAT __real@42a00000
CONST	SEGMENT
__real@42a00000 DD 042a00000r			; 80
CONST	ENDS
;	COMDAT __real@42700000
CONST	SEGMENT
__real@42700000 DD 042700000r			; 60
CONST	ENDS
;	COMDAT __real@42340000
CONST	SEGMENT
__real@42340000 DD 042340000r			; 45
CONST	ENDS
;	COMDAT __real@42200000
CONST	SEGMENT
__real@42200000 DD 042200000r			; 40
CONST	ENDS
;	COMDAT __real@42080000
CONST	SEGMENT
__real@42080000 DD 042080000r			; 34
CONST	ENDS
;	COMDAT __real@41f00000
CONST	SEGMENT
__real@41f00000 DD 041f00000r			; 30
CONST	ENDS
;	COMDAT __real@41a00000
CONST	SEGMENT
__real@41a00000 DD 041a00000r			; 20
CONST	ENDS
;	COMDAT __real@41700000
CONST	SEGMENT
__real@41700000 DD 041700000r			; 15
CONST	ENDS
;	COMDAT __real@416e848000000000
CONST	SEGMENT
__real@416e848000000000 DQ 0416e848000000000r	; 1.6e+07
CONST	ENDS
;	COMDAT __real@41400000
CONST	SEGMENT
__real@41400000 DD 041400000r			; 12
CONST	ENDS
;	COMDAT __real@41200000
CONST	SEGMENT
__real@41200000 DD 041200000r			; 10
CONST	ENDS
;	COMDAT __real@41100000
CONST	SEGMENT
__real@41100000 DD 041100000r			; 9
CONST	ENDS
;	COMDAT __real@41000000
CONST	SEGMENT
__real@41000000 DD 041000000r			; 8
CONST	ENDS
;	COMDAT __real@40f5180000000000
CONST	SEGMENT
__real@40f5180000000000 DQ 040f5180000000000r	; 86400
CONST	ENDS
;	COMDAT __real@40e00000
CONST	SEGMENT
__real@40e00000 DD 040e00000r			; 7
CONST	ENDS
;	COMDAT __real@40c00000
CONST	SEGMENT
__real@40c00000 DD 040c00000r			; 6
CONST	ENDS
;	COMDAT __real@40b3880000000000
CONST	SEGMENT
__real@40b3880000000000 DQ 040b3880000000000r	; 5000
CONST	ENDS
;	COMDAT __real@40800000
CONST	SEGMENT
__real@40800000 DD 040800000r			; 4
CONST	ENDS
;	COMDAT __real@4010000000000000
CONST	SEGMENT
__real@4010000000000000 DQ 04010000000000000r	; 4
CONST	ENDS
;	COMDAT __real@4008000000000000
CONST	SEGMENT
__real@4008000000000000 DQ 04008000000000000r	; 3
CONST	ENDS
;	COMDAT __real@4000000000000000
CONST	SEGMENT
__real@4000000000000000 DQ 04000000000000000r	; 2
CONST	ENDS
;	COMDAT __real@40000000
CONST	SEGMENT
__real@40000000 DD 040000000r			; 2
CONST	ENDS
;	COMDAT __real@3ff0000000000000
CONST	SEGMENT
__real@3ff0000000000000 DQ 03ff0000000000000r	; 1
CONST	ENDS
;	COMDAT __real@3fe8000000000000
CONST	SEGMENT
__real@3fe8000000000000 DQ 03fe8000000000000r	; 0.75
CONST	ENDS
;	COMDAT __real@3fe0000000000000
CONST	SEGMENT
__real@3fe0000000000000 DQ 03fe0000000000000r	; 0.5
CONST	ENDS
;	COMDAT __real@3fd0000000000000
CONST	SEGMENT
__real@3fd0000000000000 DQ 03fd0000000000000r	; 0.25
CONST	ENDS
;	COMDAT __real@3fc999999999999a
CONST	SEGMENT
__real@3fc999999999999a DQ 03fc999999999999ar	; 0.2
CONST	ENDS
;	COMDAT __real@3f800000
CONST	SEGMENT
__real@3f800000 DD 03f800000r			; 1
CONST	ENDS
;	COMDAT __real@0000000000000000
CONST	SEGMENT
__real@0000000000000000 DQ 00000000000000000r	; 0
CONST	ENDS
;	COMDAT ??_C@_1CK@NDNHPKPI@?$AA?$CC?$AAi?$AAn?$AAv?$AAa?$AAl?$AAi?$AAd?$AA?5?$AAc?$AAo?$AAm?$AAp?$AAa?$AAr@
CONST	SEGMENT
??_C@_1CK@NDNHPKPI@?$AA?$CC?$AAi?$AAn?$AAv?$AAa?$AAl?$AAi?$AAd?$AA?5?$AAc?$AAo?$AAm?$AAp?$AAa?$AAr@ DB '"'
	DB	00H, 'i', 00H, 'n', 00H, 'v', 00H, 'a', 00H, 'l', 00H, 'i', 00H
	DB	'd', 00H, ' ', 00H, 'c', 00H, 'o', 00H, 'm', 00H, 'p', 00H, 'a'
	DB	00H, 'r', 00H, 'a', 00H, 't', 00H, 'o', 00H, 'r', 00H, '"', 00H
	DB	00H, 00H					; `string'
CONST	ENDS
;	COMDAT ??_C@_1BC@BLAPCBGI@?$AAs?$AAt?$AAd?$AA?3?$AA?3?$AAm?$AAi?$AAn@
CONST	SEGMENT
??_C@_1BC@BLAPCBGI@?$AAs?$AAt?$AAd?$AA?3?$AA?3?$AAm?$AAi?$AAn@ DB 's', 00H
	DB	't', 00H, 'd', 00H, ':', 00H, ':', 00H, 'm', 00H, 'i', 00H, 'n'
	DB	00H, 00H, 00H				; `string'
CONST	ENDS
;	COMDAT ??_C@_1NE@FKBPBJEB@?$AAc?$AA?3?$AA?2?$AAp?$AAr?$AAo?$AAg?$AAr?$AAa?$AAm?$AA?5?$AAf?$AAi?$AAl?$AAe@
CONST	SEGMENT
??_C@_1NE@FKBPBJEB@?$AAc?$AA?3?$AA?2?$AAp?$AAr?$AAo?$AAg?$AAr?$AAa?$AAm?$AA?5?$AAf?$AAi?$AAl?$AAe@ DB 'c'
	DB	00H, ':', 00H, '\', 00H, 'p', 00H, 'r', 00H, 'o', 00H, 'g', 00H
	DB	'r', 00H, 'a', 00H, 'm', 00H, ' ', 00H, 'f', 00H, 'i', 00H, 'l'
	DB	00H, 'e', 00H, 's', 00H, ' ', 00H, '(', 00H, 'x', 00H, '8', 00H
	DB	'6', 00H, ')', 00H, '\', 00H, 'm', 00H, 'i', 00H, 'c', 00H, 'r'
	DB	00H, 'o', 00H, 's', 00H, 'o', 00H, 'f', 00H, 't', 00H, ' ', 00H
	DB	'v', 00H, 'i', 00H, 's', 00H, 'u', 00H, 'a', 00H, 'l', 00H, ' '
	DB	00H, 's', 00H, 't', 00H, 'u', 00H, 'd', 00H, 'i', 00H, 'o', 00H
	DB	'\', 00H, '2', 00H, '0', 00H, '1', 00H, '7', 00H, '\', 00H, 'c'
	DB	00H, 'o', 00H, 'm', 00H, 'm', 00H, 'u', 00H, 'n', 00H, 'i', 00H
	DB	't', 00H, 'y', 00H, '\', 00H, 'v', 00H, 'c', 00H, '\', 00H, 't'
	DB	00H, 'o', 00H, 'o', 00H, 'l', 00H, 's', 00H, '\', 00H, 'm', 00H
	DB	's', 00H, 'v', 00H, 'c', 00H, '\', 00H, '1', 00H, '4', 00H, '.'
	DB	00H, '1', 00H, '6', 00H, '.', 00H, '2', 00H, '7', 00H, '0', 00H
	DB	'2', 00H, '3', 00H, '\', 00H, 'i', 00H, 'n', 00H, 'c', 00H, 'l'
	DB	00H, 'u', 00H, 'd', 00H, 'e', 00H, '\', 00H, 'a', 00H, 'l', 00H
	DB	'g', 00H, 'o', 00H, 'r', 00H, 'i', 00H, 't', 00H, 'h', 00H, 'm'
	DB	00H, 00H, 00H				; `string'
CONST	ENDS
;	COMDAT ??_C@_0GK@JMBMHIBC@c?3?2program?5files?5?$CIx86?$CJ?2microsof@
CONST	SEGMENT
??_C@_0GK@JMBMHIBC@c?3?2program?5files?5?$CIx86?$CJ?2microsof@ DB 'c:\pro'
	DB	'gram files (x86)\microsoft visual studio\2017\community\vc\to'
	DB	'ols\msvc\14.16.27023\include\algorithm', 00H ; `string'
CONST	ENDS
;	COMDAT ??_C@_0BD@FEEMDEPI@invalid?5comparator@
CONST	SEGMENT
??_C@_0BD@FEEMDEPI@invalid?5comparator@ DB 'invalid comparator', 00H ; `string'
CONST	ENDS
;	COMDAT ??_C@_01EEMJAFIK@?6@
CONST	SEGMENT
??_C@_01EEMJAFIK@?6@ DB 0aH, 00H			; `string'
CONST	ENDS
;	COMDAT ??_C@_01MCMALHOG@a@
CONST	SEGMENT
??_C@_01MCMALHOG@a@ DB 'a', 00H				; `string'
CONST	ENDS
;	COMDAT ??_C@_0BK@LNLKLEEP@Day?5?$CFd?5?$CF02d?3?$CF02d?3?$CF02d?5?3?9?5@
CONST	SEGMENT
??_C@_0BK@LNLKLEEP@Day?5?$CFd?5?$CF02d?3?$CF02d?3?$CF02d?5?3?9?5@ DB 'Day'
	DB	' %d %02d:%02d:%02d :- ', 00H		; `string'
CONST	ENDS
;	COMDAT ??_C@_0BG@EFCJJKAA@get_session_entity?5?$CI?$CJ@
CONST	SEGMENT
??_C@_0BG@EFCJJKAA@get_session_entity?5?$CI?$CJ@ DB 'get_session_entity ('
	DB	')', 00H					; `string'
CONST	ENDS
;	COMDAT ?__LINE__Var@?0??ai_log@@YAXPBDZZ@4JA
_DATA	SEGMENT
?__LINE__Var@?0??ai_log@@YAXPBDZZ@4JA DD 0bd3H		; `ai_log'::`1'::__LINE__Var
_DATA	ENDS
;	COMDAT ??_C@_0DN@BNFHDBCO@?$CIARTILLERY?$CJ?5Group?5?$CFd?5Attacking?5@
CONST	SEGMENT
??_C@_0DN@BNFHDBCO@?$CIARTILLERY?$CJ?5Group?5?$CFd?5Attacking?5@ DB '(ART'
	DB	'ILLERY) Group %d Attacking Target %d (%s) - sqr range %f', 00H ; `string'
CONST	ENDS
;	COMDAT ??_C@_0DG@MKPLALAD@get_local_entity_type?5?$CItarget?$CJ?5@
CONST	SEGMENT
??_C@_0DG@MKPLALAD@get_local_entity_type?5?$CItarget?$CJ?5@ DB 'get_local'
	DB	'_entity_type (target) == ENTITY_TYPE_KEYSITE', 00H ; `string'
CONST	ENDS
;	COMDAT ??_C@_0BO@OCAALIAC@?9?9?9?9?9?9?9?9?9?9?9?9?9?9?9?9?9?9?9?9?9?9?9?9?9?9?9?9?9@
CONST	SEGMENT
??_C@_0BO@OCAALIAC@?9?9?9?9?9?9?9?9?9?9?9?9?9?9?9?9?9?9?9?9?9?9?9?9?9?9?9?9?9@ DB '-'
	DB	'----------------------------', 00H		; `string'
CONST	ENDS
;	COMDAT ??_C@_0BO@PKOHEKBI@CREATE?5ARTILLERY?5STRIKE?5TASKS@
CONST	SEGMENT
??_C@_0BO@PKOHEKBI@CREATE?5ARTILLERY?5STRIKE?5TASKS@ DB 'CREATE ARTILLERY'
	DB	' STRIKE TASKS', 00H				; `string'
CONST	ENDS
;	COMDAT ??_C@_0BO@NCOIPEIL@?$DN?$DN?$DN?$DN?$DN?$DN?$DN?$DN?$DN?$DN?$DN?$DN?$DN?$DN?$DN?$DN?$DN?$DN?$DN?$DN?$DN?$DN?$DN?$DN?$DN?$DN?$DN?$DN?$DN@
CONST	SEGMENT
??_C@_0BO@NCOIPEIL@?$DN?$DN?$DN?$DN?$DN?$DN?$DN?$DN?$DN?$DN?$DN?$DN?$DN?$DN?$DN?$DN?$DN?$DN?$DN?$DN?$DN?$DN?$DN?$DN?$DN?$DN?$DN?$DN?$DN@ DB '='
	DB	'============================', 00H		; `string'
CONST	ENDS
;	COMDAT ?__LINE__Var@?0??create_artillery_strike_tasks@@YGXXZ@4JA
_DATA	SEGMENT
?__LINE__Var@?0??create_artillery_strike_tasks@@YGXXZ@4JA DD 0ab3H ; `create_artillery_strike_tasks'::`1'::__LINE__Var
_DATA	ENDS
;	COMDAT ?__LINE__Var@?0??create_troop_patrol_tasks@@YGXXZ@4JA
_DATA	SEGMENT
?__LINE__Var@?0??create_troop_patrol_tasks@@YGXXZ@4JA DD 0a64H ; `create_troop_patrol_tasks'::`1'::__LINE__Var
_DATA	ENDS
;	COMDAT ??_C@_0DP@PONNJEMN@?$CITASK?$CJ?5Side?5?$CFs?5?3?5Created?5SEAD?5?$CD@
CONST	SEGMENT
??_C@_0DP@PONNJEMN@?$CITASK?$CJ?5Side?5?$CFs?5?3?5Created?5SEAD?5?$CD@ DB '('
	DB	'TASK) Side %s : Created SEAD #%d (%d) at %s in reaction to %s'
	DB	00H						; `string'
CONST	ENDS
;	COMDAT ??_C@_05BINPNAAL@force@
CONST	SEGMENT
??_C@_05BINPNAAL@force@ DB 'force', 00H			; `string'
CONST	ENDS
;	COMDAT ??_C@_07FBNBNOMI@keysite@
CONST	SEGMENT
??_C@_07FBNBNOMI@keysite@ DB 'keysite', 00H		; `string'
CONST	ENDS
;	COMDAT ?__LINE__Var@?0??create_sead_tasks_around_keysite@@YGHPAUENTITY@@0W4ENTITY_SIDES@@@Z@4JA
_DATA	SEGMENT
?__LINE__Var@?0??create_sead_tasks_around_keysite@@YGHPAUENTITY@@0W4ENTITY_SIDES@@@Z@4JA DD 09efH ; `create_sead_tasks_around_keysite'::`1'::__LINE__Var
_DATA	ENDS
;	COMDAT ??_C@_0BL@CDEAJFBK@CREATE?5TRANSFER?5?$CIHC?$CJ?5TASKS@
CONST	SEGMENT
??_C@_0BL@CDEAJFBK@CREATE?5TRANSFER?5?$CIHC?$CJ?5TASKS@ DB 'CREATE TRANSF'
	DB	'ER (HC) TASKS', 00H				; `string'
CONST	ENDS
;	COMDAT ?__LINE__Var@?0??create_helicopter_transfer_tasks@@YGXXZ@4JA
_DATA	SEGMENT
?__LINE__Var@?0??create_helicopter_transfer_tasks@@YGXXZ@4JA DD 090fH ; `create_helicopter_transfer_tasks'::`1'::__LINE__Var
_DATA	ENDS
;	COMDAT ??_C@_0EJ@ELLEGADD@?$CITASK?$CJ?5?$CFs?5TRANSFER?5?9?5From?5?$CFs?5?$CI?$CF@
CONST	SEGMENT
??_C@_0EJ@ELLEGADD@?$CITASK?$CJ?5?$CFs?5TRANSFER?5?9?5From?5?$CFs?5?$CI?$CF@ DB '('
	DB	'TASK) %s TRANSFER - From %s (%.3f) To %s (%.3f) - CREATED (Pr'
	DB	'iority %f)', 00H				; `string'
CONST	ENDS
;	COMDAT ??_C@_0L@BBFNENIC@landing_en@
CONST	SEGMENT
??_C@_0L@BBFNENIC@landing_en@ DB 'landing_en', 00H	; `string'
CONST	ENDS
;	COMDAT ??_C@_0BL@MMKFLGNE@CREATE?5TRANSFER?5?$CIFW?$CJ?5TASKS@
CONST	SEGMENT
??_C@_0BL@MMKFLGNE@CREATE?5TRANSFER?5?$CIFW?$CJ?5TASKS@ DB 'CREATE TRANSF'
	DB	'ER (FW) TASKS', 00H				; `string'
CONST	ENDS
;	COMDAT ?__LINE__Var@?0??create_fixed_wing_transfer_tasks@@YGXXZ@4JA
_DATA	SEGMENT
?__LINE__Var@?0??create_fixed_wing_transfer_tasks@@YGXXZ@4JA DD 0833H ; `create_fixed_wing_transfer_tasks'::`1'::__LINE__Var
_DATA	ENDS
;	COMDAT ??_C@_0FJ@BPGJMGNM@?$CITASK?$CJ?5?$CFs?5SEAD?5RECON?5?$CD?$CFd?5?$CI?$CFd?$CJ?5?9@
CONST	SEGMENT
??_C@_0FJ@BPGJMGNM@?$CITASK?$CJ?5?$CFs?5SEAD?5RECON?5?$CD?$CFd?5?$CI?$CFd?$CJ?5?9@ DB '('
	DB	'TASK) %s SEAD RECON #%d (%d) - Target Sector %d, %d : Rating '
	DB	'%f - CREATED (Priority %f)', 00H		; `string'
CONST	ENDS
;	COMDAT ??_C@_0FD@FFMCDIJF@?$CITASK?$CJ?5?$CFs?5SEAD?5?$CD?$CFd?5?$CI?$CFd?$CJ?5?9?5Targe@
CONST	SEGMENT
??_C@_0FD@FFMCDIJF@?$CITASK?$CJ?5?$CFs?5SEAD?5?$CD?$CFd?5?$CI?$CFd?$CJ?5?9?5Targe@ DB '('
	DB	'TASK) %s SEAD #%d (%d) - Target Sector %d, %d : Rating %f - C'
	DB	'REATED (Priority %f)', 00H			; `string'
CONST	ENDS
;	COMDAT ??_C@_0CE@HEJEDNOC@HIGHLEVL?3?5?$CFs?5?$CFd?5candidates?5for?5@
CONST	SEGMENT
??_C@_0CE@HEJEDNOC@HIGHLEVL?3?5?$CFs?5?$CFd?5candidates?5for?5@ DB 'HIGHL'
	DB	'EVL: %s %d candidates for SEAD', 00H	; `string'
CONST	ENDS
;	COMDAT ?__LINE__Var@?0??create_sead_tasks@@YGXXZ@4JA
_DATA	SEGMENT
?__LINE__Var@?0??create_sead_tasks@@YGXXZ@4JA DD 075dH	; `create_sead_tasks'::`1'::__LINE__Var
_DATA	ENDS
;	COMDAT ??_C@_0FD@NLNDEGBN@?$CITASK?$CJ?5?$CFs?5TROOP?5INSERTION?5?$CD?$CFd?5?$CI@
CONST	SEGMENT
??_C@_0FD@NLNDEGBN@?$CITASK?$CJ?5?$CFs?5TROOP?5INSERTION?5?$CD?$CFd?5?$CI@ DB '('
	DB	'TASK) %s TROOP INSERTION #%d (%d) - Target %s : Rating %f - C'
	DB	'REATED (Priority %f)', 00H			; `string'
CONST	ENDS
;	COMDAT ??_C@_0FG@FBHDLGFE@?$CITASK?$CJ?5?$CFs?5KEYSITE?5T?4I?4?5RECON?5?$CD?$CF@
CONST	SEGMENT
??_C@_0FG@FBHDLGFE@?$CITASK?$CJ?5?$CFs?5KEYSITE?5T?4I?4?5RECON?5?$CD?$CF@ DB '('
	DB	'TASK) %s KEYSITE T.I. RECON #%d (%d) - Target %s : Rating %f '
	DB	'- CREATED (Priority %f)', 00H		; `string'
CONST	ENDS
;	COMDAT ??_C@_0CD@EFNCGLHK@HIGHLEVL?3?5?$CFs?5?$CFd?5candidates?5for?5@
CONST	SEGMENT
??_C@_0CD@EFNCGLHK@HIGHLEVL?3?5?$CFs?5?$CFd?5candidates?5for?5@ DB 'HIGHL'
	DB	'EVL: %s %d candidates for T.I', 00H		; `string'
CONST	ENDS
;	COMDAT ??_C@_0BN@PNBNEKLM@?9?9?9?9?9?9?9?9?9?9?9?9?9?9?9?9?9?9?9?9?9?9?9?9?9?9?9?9@
CONST	SEGMENT
??_C@_0BN@PNBNEKLM@?9?9?9?9?9?9?9?9?9?9?9?9?9?9?9?9?9?9?9?9?9?9?9?9?9?9?9?9@ DB '-'
	DB	'---------------------------', 00H		; `string'
CONST	ENDS
;	COMDAT ??_C@_0BN@PAOIDBBL@CREATE?5TROOP?5INSERTION?5TASKS@
CONST	SEGMENT
??_C@_0BN@PAOIDBBL@CREATE?5TROOP?5INSERTION?5TASKS@ DB 'CREATE TROOP INSE'
	DB	'RTION TASKS', 00H				; `string'
CONST	ENDS
;	COMDAT ??_C@_0BN@LNBJDKDH@?$DN?$DN?$DN?$DN?$DN?$DN?$DN?$DN?$DN?$DN?$DN?$DN?$DN?$DN?$DN?$DN?$DN?$DN?$DN?$DN?$DN?$DN?$DN?$DN?$DN?$DN?$DN?$DN@
CONST	SEGMENT
??_C@_0BN@LNBJDKDH@?$DN?$DN?$DN?$DN?$DN?$DN?$DN?$DN?$DN?$DN?$DN?$DN?$DN?$DN?$DN?$DN?$DN?$DN?$DN?$DN?$DN?$DN?$DN?$DN?$DN?$DN?$DN?$DN@ DB '='
	DB	'===========================', 00H		; `string'
CONST	ENDS
;	COMDAT ?__LINE__Var@?0??create_troop_insertion_tasks@@YGXXZ@4JA
_DATA	SEGMENT
?__LINE__Var@?0??create_troop_insertion_tasks@@YGXXZ@4JA DD 0677H ; `create_troop_insertion_tasks'::`1'::__LINE__Var
_DATA	ENDS
;	COMDAT ??_C@_0EN@HANCKLDA@?$CITASK?$CJ?5?$CFs?5OCA?5SWEEP?5?$CD?$CFd?5?$CI?$CFd?$CJ?5?9?5@
CONST	SEGMENT
??_C@_0EN@HANCKLDA@?$CITASK?$CJ?5?$CFs?5OCA?5SWEEP?5?$CD?$CFd?5?$CI?$CFd?$CJ?5?9?5@ DB '('
	DB	'TASK) %s OCA SWEEP #%d (%d) - Target %s : Rating %f - CREATED'
	DB	' (Priority %f)', 00H			; `string'
CONST	ENDS
;	COMDAT ??_C@_0CJ@LAGELLPF@HIGHLEVL?3?5?$CFs?5?$CFd?5candidates?5for?5@
CONST	SEGMENT
??_C@_0CJ@LAGELLPF@HIGHLEVL?3?5?$CFs?5?$CFd?5candidates?5for?5@ DB 'HIGHL'
	DB	'EVL: %s %d candidates for OCA SWEEP', 00H	; `string'
CONST	ENDS
;	COMDAT ??_C@_0BH@ODOINJHA@CREATE?5OCA?5SWEEP?5TASKS@
CONST	SEGMENT
??_C@_0BH@ODOINJHA@CREATE?5OCA?5SWEEP?5TASKS@ DB 'CREATE OCA SWEEP TASKS', 00H ; `string'
CONST	ENDS
;	COMDAT ?__LINE__Var@?0??create_oca_sweep_tasks@@YGXXZ@4JA
_DATA	SEGMENT
?__LINE__Var@?0??create_oca_sweep_tasks@@YGXXZ@4JA DD 05bdH ; `create_oca_sweep_tasks'::`1'::__LINE__Var
_DATA	ENDS
;	COMDAT ??_C@_0EO@MIICAGKN@?$CITASK?$CJ?5?$CFs?5OCA?5STRIKE?5?$CD?$CFd?5?$CI?$CFd?$CJ?5?9@
CONST	SEGMENT
??_C@_0EO@MIICAGKN@?$CITASK?$CJ?5?$CFs?5OCA?5STRIKE?5?$CD?$CFd?5?$CI?$CFd?$CJ?5?9@ DB '('
	DB	'TASK) %s OCA STRIKE #%d (%d) - Target %s : Rating %f - CREATE'
	DB	'D (Priority %f)', 00H			; `string'
CONST	ENDS
;	COMDAT ??_C@_0CK@EOJIBDHN@HIGHLEVL?3?5?$CFs?5?$CFd?5candidates?5for?5@
CONST	SEGMENT
??_C@_0CK@EOJIBDHN@HIGHLEVL?3?5?$CFs?5?$CFd?5candidates?5for?5@ DB 'HIGHL'
	DB	'EVL: %s %d candidates for OCA STRIKE', 00H	; `string'
CONST	ENDS
;	COMDAT ??_C@_0BI@ELAFCIHN@CREATE?5OCA?5STRIKE?5TASKS@
CONST	SEGMENT
??_C@_0BI@ELAFCIHN@CREATE?5OCA?5STRIKE?5TASKS@ DB 'CREATE OCA STRIKE TASK'
	DB	'S', 00H					; `string'
CONST	ENDS
;	COMDAT ?__LINE__Var@?0??create_oca_strike_tasks@@YGXXZ@4JA
_DATA	SEGMENT
?__LINE__Var@?0??create_oca_strike_tasks@@YGXXZ@4JA DD 0503H ; `create_oca_strike_tasks'::`1'::__LINE__Var
_DATA	ENDS
;	COMDAT ??_C@_0FH@JBIGNNAG@?$CITASK?$CJ?5?$CFs?5KEYSITE?5SHIP?5STRIKE?5?$CD@
CONST	SEGMENT
??_C@_0FH@JBIGNNAG@?$CITASK?$CJ?5?$CFs?5KEYSITE?5SHIP?5STRIKE?5?$CD@ DB '('
	DB	'TASK) %s KEYSITE SHIP STRIKE #%d (%d) - Target %s : Rating %f'
	DB	' - CREATED (Priority %f)', 00H		; `string'
CONST	ENDS
;	COMDAT ??_C@_0FJ@EAKBAFJI@?$CITASK?$CJ?5?$CFs?5KEYSITE?5GROUND?5STRIKE@
CONST	SEGMENT
??_C@_0FJ@EAKBAFJI@?$CITASK?$CJ?5?$CFs?5KEYSITE?5GROUND?5STRIKE@ DB '(TAS'
	DB	'K) %s KEYSITE GROUND STRIKE #%d (%d) - Target %s : Rating %f '
	DB	'- CREATED (Priority %f)', 00H		; `string'
CONST	ENDS
;	COMDAT ??_C@_0FB@PJNGGCMD@?$CITASK?$CJ?5?$CFs?5KEYSITE?5RECON?5?$CD?$CFd?5?$CI?$CFd@
CONST	SEGMENT
??_C@_0FB@PJNGGCMD@?$CITASK?$CJ?5?$CFs?5KEYSITE?5RECON?5?$CD?$CFd?5?$CI?$CFd@ DB '('
	DB	'TASK) %s KEYSITE RECON #%d (%d) - Target %s : Rating %f - CRE'
	DB	'ATED (Priority %f)', 00H			; `string'
CONST	ENDS
;	COMDAT ??_C@_0DD@MFHODDPB@keysite_database?5?$FLkeysite_type?$FN@
CONST	SEGMENT
??_C@_0DD@MFHODDPB@keysite_database?5?$FLkeysite_type?$FN@ DB 'keysite_da'
	DB	'tabase [keysite_type].ship_strike_target', 00H ; `string'
CONST	ENDS
;	COMDAT ??_C@_0CG@NIEBJEDL@HIGHLEVL?3?5?$CFs?5?$CFd?5candidates?5for?5@
CONST	SEGMENT
??_C@_0CG@NIEBJEDL@HIGHLEVL?3?5?$CFs?5?$CFd?5candidates?5for?5@ DB 'HIGHL'
	DB	'EVL: %s %d candidates for STRIKE', 00H	; `string'
CONST	ENDS
;	COMDAT ??_C@_0BL@JMBEPNBE@?9?9?9?9?9?9?9?9?9?9?9?9?9?9?9?9?9?9?9?9?9?9?9?9?9?9@
CONST	SEGMENT
??_C@_0BL@JMBEPNBE@?9?9?9?9?9?9?9?9?9?9?9?9?9?9?9?9?9?9?9?9?9?9?9?9?9?9@ DB '-'
	DB	'-------------------------', 00H		; `string'
CONST	ENDS
;	COMDAT ??_C@_0BM@KDKLEBEP@CREATE?5KEYSITE?5STRIKE?5TASKS@
CONST	SEGMENT
??_C@_0BM@KDKLEBEP@CREATE?5KEYSITE?5STRIKE?5TASKS@ DB 'CREATE KEYSITE STR'
	DB	'IKE TASKS', 00H				; `string'
CONST	ENDS
;	COMDAT ??_C@_0BL@EBIHNBEK@?$DN?$DN?$DN?$DN?$DN?$DN?$DN?$DN?$DN?$DN?$DN?$DN?$DN?$DN?$DN?$DN?$DN?$DN?$DN?$DN?$DN?$DN?$DN?$DN?$DN?$DN@
CONST	SEGMENT
??_C@_0BL@EBIHNBEK@?$DN?$DN?$DN?$DN?$DN?$DN?$DN?$DN?$DN?$DN?$DN?$DN?$DN?$DN?$DN?$DN?$DN?$DN?$DN?$DN?$DN?$DN?$DN?$DN?$DN?$DN@ DB '='
	DB	'=========================', 00H		; `string'
CONST	ENDS
;	COMDAT ?__LINE__Var@?0??create_keysite_strike_tasks@@YGXXZ@4JA
_DATA	SEGMENT
?__LINE__Var@?0??create_keysite_strike_tasks@@YGXXZ@4JA DD 0401H ; `create_keysite_strike_tasks'::`1'::__LINE__Var
_DATA	ENDS
;	COMDAT ??_C@_0EN@NKEMKLGO@?$CITASK?$CJ?5?$CFs?5CAS?5?$CD?$CFd?5?$CI?$CFd?$CJ?5?9?5Target@
CONST	SEGMENT
??_C@_0EN@NKEMKLGO@?$CITASK?$CJ?5?$CFs?5CAS?5?$CD?$CFd?5?$CI?$CFd?$CJ?5?9?5Target@ DB '('
	DB	'TASK) %s CAS #%d (%d) - Target Group %s : Rating %f - CREATED'
	DB	' (Priority %f)', 00H			; `string'
CONST	ENDS
;	COMDAT ??_C@_0CD@HLLKHCJK@HIGHLEVL?3?5?$CFs?5?$CFd?5candidates?5for?5@
CONST	SEGMENT
??_C@_0CD@HLLKHCJK@HIGHLEVL?3?5?$CFs?5?$CFd?5candidates?5for?5@ DB 'HIGHL'
	DB	'EVL: %s %d candidates for CAS', 00H		; `string'
CONST	ENDS
;	COMDAT ??_C@_0BB@NLININCI@CREATE?5CAS?5TASKS@
CONST	SEGMENT
??_C@_0BB@NLININCI@CREATE?5CAS?5TASKS@ DB 'CREATE CAS TASKS', 00H ; `string'
CONST	ENDS
;	COMDAT ?__LINE__Var@?0??create_cas_tasks@@YGXXZ@4JA
_DATA	SEGMENT
?__LINE__Var@?0??create_cas_tasks@@YGXXZ@4JA DD 032eH	; `create_cas_tasks'::`1'::__LINE__Var
_DATA	ENDS
;	COMDAT ??_C@_0FD@POECHJC@?$CITASK?$CJ?5?$CFs?5BAI?5RECON?5?$CD?$CFd?5?$CI?$CFd?$CJ?5?9?5@
CONST	SEGMENT
??_C@_0FD@POECHJC@?$CITASK?$CJ?5?$CFs?5BAI?5RECON?5?$CD?$CFd?5?$CI?$CFd?$CJ?5?9?5@ DB '('
	DB	'TASK) %s BAI RECON #%d (%d) - Target Group %s : Rating %f - C'
	DB	'REATED (Priority %f)', 00H			; `string'
CONST	ENDS
;	COMDAT ??_C@_0EN@DCEEGNCA@?$CITASK?$CJ?5?$CFs?5BAI?5?$CD?$CFd?5?$CI?$CFd?$CJ?5?9?5Target@
CONST	SEGMENT
??_C@_0EN@DCEEGNCA@?$CITASK?$CJ?5?$CFs?5BAI?5?$CD?$CFd?5?$CI?$CFd?$CJ?5?9?5Target@ DB '('
	DB	'TASK) %s BAI #%d (%d) - Target Group %s : Rating %f - CREATED'
	DB	' (Priority %f)', 00H			; `string'
CONST	ENDS
;	COMDAT ??_C@_06IDGHNJOB@sector@
CONST	SEGMENT
??_C@_06IDGHNJOB@sector@ DB 'sector', 00H		; `string'
CONST	ENDS
;	COMDAT ??_C@_0BI@BNNJCIEB@target_rating?5?$FL0?$FN?5?$DO?50?40@
CONST	SEGMENT
??_C@_0BI@BNNJCIEB@target_rating?5?$FL0?$FN?5?$DO?50?40@ DB 'target_ratin'
	DB	'g [0] > 0.0', 00H				; `string'
CONST	ENDS
;	COMDAT ??_C@_0CD@HDCLOPCE@HIGHLEVL?3?5?$CFs?5?$CFd?5candidates?5for?5@
CONST	SEGMENT
??_C@_0CD@HDCLOPCE@HIGHLEVL?3?5?$CFs?5?$CFd?5candidates?5for?5@ DB 'HIGHL'
	DB	'EVL: %s %d candidates for BAI', 00H		; `string'
CONST	ENDS
;	COMDAT ??_C@_0BB@OAGJBGHP@?9?9?9?9?9?9?9?9?9?9?9?9?9?9?9?9@
CONST	SEGMENT
??_C@_0BB@OAGJBGHP@?9?9?9?9?9?9?9?9?9?9?9?9?9?9?9?9@ DB '----------------'
	DB	00H						; `string'
CONST	ENDS
;	COMDAT ??_C@_0BB@NJDEMLPF@CREATE?5BAI?5TASKS@
CONST	SEGMENT
??_C@_0BB@NJDEMLPF@CREATE?5BAI?5TASKS@ DB 'CREATE BAI TASKS', 00H ; `string'
CONST	ENDS
;	COMDAT ??_C@_0BB@NAOGIAIJ@?$DN?$DN?$DN?$DN?$DN?$DN?$DN?$DN?$DN?$DN?$DN?$DN?$DN?$DN?$DN?$DN@
CONST	SEGMENT
??_C@_0BB@NAOGIAIJ@?$DN?$DN?$DN?$DN?$DN?$DN?$DN?$DN?$DN?$DN?$DN?$DN?$DN?$DN?$DN?$DN@ DB '='
	DB	'===============', 00H			; `string'
CONST	ENDS
;	COMDAT ??_C@_0CJ@DMBLBJBK@get_comms_model?5?$CI?$CJ?5?$DN?$DN?5COMMS_MOD@
CONST	SEGMENT
??_C@_0CJ@DMBLBJBK@get_comms_model?5?$CI?$CJ?5?$DN?$DN?5COMMS_MOD@ DB 'ge'
	DB	't_comms_model () == COMMS_MODEL_SERVER', 00H ; `string'
CONST	ENDS
;	COMDAT ?__LINE__Var@?0??create_bai_tasks@@YGXXZ@4JA
_DATA	SEGMENT
?__LINE__Var@?0??create_bai_tasks@@YGXXZ@4JA DD 023eH	; `create_bai_tasks'::`1'::__LINE__Var
_DATA	ENDS
;	COMDAT ??_C@_0DK@PPPJLNAH@?$CITASK?$CJ?5Side?5?$CFs?5?3?5Created?5Advanc@
CONST	SEGMENT
??_C@_0DK@PPPJLNAH@?$CITASK?$CJ?5Side?5?$CFs?5?3?5Created?5Advanc@ DB '(T'
	DB	'ASK) Side %s : Created Advance for %s (Rating %f -> %f)', 00H ; `string'
CONST	ENDS
;	COMDAT ??_C@_0CP@NMIFMLJD@HIGHLEVL?3?5?$CFs?5?$CFd?5candidates?5for?5@
CONST	SEGMENT
??_C@_0CP@NMIFMLJD@HIGHLEVL?3?5?$CFs?5?$CFd?5candidates?5for?5@ DB 'HIGHL'
	DB	'EVL: %s %d candidates for Advance/Retreat', 00H ; `string'
CONST	ENDS
;	COMDAT ??_C@_0CE@FGAKBBGH@count?5?$DM?5MAX_HIGHLEVEL_TARGET_CH@
CONST	SEGMENT
??_C@_0CE@FGAKBBGH@count?5?$DM?5MAX_HIGHLEVEL_TARGET_CH@ DB 'count < MAX_'
	DB	'HIGHLEVEL_TARGET_CHECKS', 00H		; `string'
CONST	ENDS
;	COMDAT ??_C@_0CB@GNHPAIID@?9?9?9?9?9?9?9?9?9?9?9?9?9?9?9?9?9?9?9?9?9?9?9?9?9?9?9?9?9?9?9@
CONST	SEGMENT
??_C@_0CB@GNHPAIID@?9?9?9?9?9?9?9?9?9?9?9?9?9?9?9?9?9?9?9?9?9?9?9?9?9?9?9?9?9?9?9@ DB '-'
	DB	'-------------------------------', 00H	; `string'
CONST	ENDS
;	COMDAT ??_C@_0CB@LJIJLMNN@CREATE?5ADVANCE?5AND?5RETREAT?5TASK@
CONST	SEGMENT
??_C@_0CB@LJIJLMNN@CREATE?5ADVANCE?5AND?5RETREAT?5TASK@ DB 'CREATE ADVANC'
	DB	'E AND RETREAT TASKS', 00H			; `string'
CONST	ENDS
;	COMDAT ??_C@_0CB@HHHLKEEB@?$DN?$DN?$DN?$DN?$DN?$DN?$DN?$DN?$DN?$DN?$DN?$DN?$DN?$DN?$DN?$DN?$DN?$DN?$DN?$DN?$DN?$DN?$DN?$DN?$DN?$DN?$DN?$DN?$DN?$DN?$DN@
CONST	SEGMENT
??_C@_0CB@HHHLKEEB@?$DN?$DN?$DN?$DN?$DN?$DN?$DN?$DN?$DN?$DN?$DN?$DN?$DN?$DN?$DN?$DN?$DN?$DN?$DN?$DN?$DN?$DN?$DN?$DN?$DN?$DN?$DN?$DN?$DN?$DN?$DN@ DB '='
	DB	'===============================', 00H	; `string'
CONST	ENDS
;	COMDAT ?__LINE__Var@?0??create_advance_and_retreat_tasks@@YGXXZ@4JA
_DATA	SEGMENT
?__LINE__Var@?0??create_advance_and_retreat_tasks@@YGXXZ@4JA DD 0176H ; `create_advance_and_retreat_tasks'::`1'::__LINE__Var
_DATA	ENDS
;	COMDAT ??_C@_0CM@CLOFEPLL@fmod?5?$CI?$CI24?40f?5?$CK?5ONE_HOUR?$CJ?0?5frequ@
CONST	SEGMENT
??_C@_0CM@CLOFEPLL@fmod?5?$CI?$CI24?40f?5?$CK?5ONE_HOUR?$CJ?0?5frequ@ DB 'f'
	DB	'mod ((24.0f * ONE_HOUR), frequency) == 0.0', 00H ; `string'
CONST	ENDS
;	COMDAT ??_C@_0DG@BEFLEAOE@?$CIfrequency?5?$DO?50?40?$CJ?5?$CG?$CG?5?$CIfrequency@
CONST	SEGMENT
??_C@_0DG@BEFLEAOE@?$CIfrequency?5?$DO?50?40?$CJ?5?$CG?$CG?5?$CIfrequency@ DB '('
	DB	'frequency > 0.0) && (frequency <= (24.0 * ONE_HOUR))', 00H ; `string'
CONST	ENDS
;	COMDAT ??_C@_0DI@GLECGHEO@?$CIstart_time?5?$DO?$DN?50?40?$CJ?5?$CG?$CG?5?$CIstart_t@
CONST	SEGMENT
??_C@_0DI@GLECGHEO@?$CIstart_time?5?$DO?$DN?50?40?$CJ?5?$CG?$CG?5?$CIstart_t@ DB '('
	DB	'start_time >= 0.0) && (start_time < (24.0 * ONE_HOUR))', 00H ; `string'
CONST	ENDS
;	COMDAT ??_C@_0ED@GMECMFKH@c?3?2users?2nhv90?2projects?2eech?2ap@
CONST	SEGMENT
??_C@_0ED@GMECMFKH@c?3?2users?2nhv90?2projects?2eech?2ap@ DB 'c:\users\nh'
	DB	'v90\projects\eech\aphavoc\source\ai\highlevl\highlevl.c', 00H ; `string'
CONST	ENDS
;	COMDAT ?__LINE__Var@?0??add_high_level_ai_function@@YGHP6GXXZMM@Z@4JA
_DATA	SEGMENT
?__LINE__Var@?0??add_high_level_ai_function@@YGHP6GXXZMM@Z@4JA DD 0159H ; `add_high_level_ai_function'::`1'::__LINE__Var
_DATA	ENDS
;	COMDAT ??_C@_06MDHFGADH@AI?4LOG@
CONST	SEGMENT
??_C@_06MDHFGADH@AI?4LOG@ DB 'AI.LOG', 00H		; `string'
CONST	ENDS
;	COMDAT ??_C@_01NOFIACDB@w@
CONST	SEGMENT
??_C@_01NOFIACDB@w@ DB 'w', 00H				; `string'
CONST	ENDS
;	COMDAT ??_C@_02DKCKIIND@?$CFs@
CONST	SEGMENT
??_C@_02DKCKIIND@?$CFs@ DB '%s', 00H			; `string'
CONST	ENDS
; Function compile flags: /Odtp /ZI
; File c:\program files (x86)\microsoft visual studio\2017\community\vc\tools\msvc\14.16.27023\include\xtgmath.h
;	COMDAT ??$fmod@MHX@@YGNMH@Z
_TEXT	SEGMENT
__Left$ = 8						; size = 4
__Right$ = 12						; size = 4
??$fmod@MHX@@YGNMH@Z PROC				; fmod<float,int,void>, COMDAT

; 88   : _GENERIC_MATH2(fmod, _CRTDEFAULT)

  00000	55		 push	 ebp
  00001	8b ec		 mov	 ebp, esp
  00003	83 ec 40	 sub	 esp, 64			; 00000040H
  00006	53		 push	 ebx
  00007	56		 push	 esi
  00008	57		 push	 edi
  00009	f2 0f 2a 45 0c	 cvtsi2sd xmm0, DWORD PTR __Right$[ebp]
  0000e	83 ec 08	 sub	 esp, 8
  00011	f2 0f 11 04 24	 movsd	 QWORD PTR [esp], xmm0
  00016	f3 0f 5a 45 08	 cvtss2sd xmm0, DWORD PTR __Left$[ebp]
  0001b	83 ec 08	 sub	 esp, 8
  0001e	f2 0f 11 04 24	 movsd	 QWORD PTR [esp], xmm0
  00023	e8 00 00 00 00	 call	 _fmod
  00028	83 c4 10	 add	 esp, 16			; 00000010H
  0002b	5f		 pop	 edi
  0002c	5e		 pop	 esi
  0002d	5b		 pop	 ebx
  0002e	8b e5		 mov	 esp, ebp
  00030	5d		 pop	 ebp
  00031	c2 08 00	 ret	 8
??$fmod@MHX@@YGNMH@Z ENDP				; fmod<float,int,void>
_TEXT	ENDS
; Function compile flags: /Odtp /ZI
; File c:\program files (x86)\microsoft visual studio\2017\community\vc\tools\msvc\14.16.27023\include\algorithm
;	COMDAT ??$min@M@std@@YGABMABM0@Z
_TEXT	SEGMENT
__Left$ = 8						; size = 4
__Right$ = 12						; size = 4
??$min@M@std@@YGABMABM0@Z PROC				; std::min<float>, COMDAT

; 5427 : 	{	// return smaller of _Left and _Right

  00000	55		 push	 ebp
  00001	8b ec		 mov	 ebp, esp
  00003	83 ec 40	 sub	 esp, 64			; 00000040H
  00006	53		 push	 ebx
  00007	56		 push	 esi
  00008	57		 push	 edi

; 5428 : 	if (_Right < _Left)

  00009	8b 45 08	 mov	 eax, DWORD PTR __Left$[ebp]
  0000c	8b 4d 0c	 mov	 ecx, DWORD PTR __Right$[ebp]
  0000f	f3 0f 10 00	 movss	 xmm0, DWORD PTR [eax]
  00013	0f 2f 01	 comiss	 xmm0, DWORD PTR [ecx]
  00016	76 64		 jbe	 SHORT $LN8@min
$LN4@min:

; 5429 : 		{
; 5430 : 		_STL_ASSERT(!(_Left < _Right), "invalid comparator");

  00018	8b 45 0c	 mov	 eax, DWORD PTR __Right$[ebp]
  0001b	8b 4d 08	 mov	 ecx, DWORD PTR __Left$[ebp]
  0001e	f3 0f 10 00	 movss	 xmm0, DWORD PTR [eax]
  00022	0f 2f 01	 comiss	 xmm0, DWORD PTR [ecx]
  00025	77 02		 ja	 SHORT $LN9@min
  00027	eb 4a		 jmp	 SHORT $LN6@min
$LN9@min:
  00029	68 00 00 00 00	 push	 OFFSET ??_C@_0BD@FEEMDEPI@invalid?5comparator@
  0002e	68 00 00 00 00	 push	 OFFSET ??_C@_02DKCKIIND@?$CFs@
  00033	6a 00		 push	 0
  00035	68 36 15 00 00	 push	 5430			; 00001536H
  0003a	68 00 00 00 00	 push	 OFFSET ??_C@_0GK@JMBMHIBC@c?3?2program?5files?5?$CIx86?$CJ?2microsof@
  0003f	6a 02		 push	 2
  00041	ff 15 00 00 00
	00		 call	 DWORD PTR __imp___CrtDbgReport
  00047	83 c4 18	 add	 esp, 24			; 00000018H
  0004a	83 f8 01	 cmp	 eax, 1
  0004d	75 01		 jne	 SHORT $LN12@min
  0004f	cc		 int	 3
$LN12@min:
  00050	6a 00		 push	 0
  00052	68 36 15 00 00	 push	 5430			; 00001536H
  00057	68 00 00 00 00	 push	 OFFSET ??_C@_1NE@FKBPBJEB@?$AAc?$AA?3?$AA?2?$AAp?$AAr?$AAo?$AAg?$AAr?$AAa?$AAm?$AA?5?$AAf?$AAi?$AAl?$AAe@
  0005c	68 00 00 00 00	 push	 OFFSET ??_C@_1BC@BLAPCBGI@?$AAs?$AAt?$AAd?$AA?3?$AA?3?$AAm?$AAi?$AAn@
  00061	68 00 00 00 00	 push	 OFFSET ??_C@_1CK@NDNHPKPI@?$AA?$CC?$AAi?$AAn?$AAv?$AAa?$AAl?$AAi?$AAd?$AA?5?$AAc?$AAo?$AAm?$AAp?$AAa?$AAr@
  00066	ff 15 00 00 00
	00		 call	 DWORD PTR __imp___invalid_parameter
  0006c	83 c4 14	 add	 esp, 20			; 00000014H
  0006f	33 c0		 xor	 eax, eax
  00071	75 b6		 jne	 SHORT $LN9@min
$LN6@min:
  00073	33 c0		 xor	 eax, eax
  00075	75 a1		 jne	 SHORT $LN4@min

; 5431 : 		return (_Right);

  00077	8b 45 0c	 mov	 eax, DWORD PTR __Right$[ebp]
  0007a	eb 03		 jmp	 SHORT $LN1@min
$LN8@min:

; 5432 : 		}
; 5433 : 
; 5434 : 	return (_Left);

  0007c	8b 45 08	 mov	 eax, DWORD PTR __Left$[ebp]
$LN1@min:

; 5435 : 	}

  0007f	5f		 pop	 edi
  00080	5e		 pop	 esi
  00081	5b		 pop	 ebx
  00082	8b e5		 mov	 esp, ebp
  00084	5d		 pop	 ebp
  00085	c2 08 00	 ret	 8
??$min@M@std@@YGABMABM0@Z ENDP				; std::min<float>
_TEXT	ENDS
; Function compile flags: /Odtp /ZI
; File c:\program files (x86)\microsoft visual studio\2017\community\vc\tools\msvc\14.16.27023\include\algorithm
;	COMDAT ??$min@H@std@@YGABHABH0@Z
_TEXT	SEGMENT
__Left$ = 8						; size = 4
__Right$ = 12						; size = 4
??$min@H@std@@YGABHABH0@Z PROC				; std::min<int>, COMDAT

; 5427 : 	{	// return smaller of _Left and _Right

  00000	55		 push	 ebp
  00001	8b ec		 mov	 ebp, esp
  00003	83 ec 40	 sub	 esp, 64			; 00000040H
  00006	53		 push	 ebx
  00007	56		 push	 esi
  00008	57		 push	 edi

; 5428 : 	if (_Right < _Left)

  00009	8b 45 0c	 mov	 eax, DWORD PTR __Right$[ebp]
  0000c	8b 4d 08	 mov	 ecx, DWORD PTR __Left$[ebp]
  0000f	8b 10		 mov	 edx, DWORD PTR [eax]
  00011	3b 11		 cmp	 edx, DWORD PTR [ecx]
  00013	7d 61		 jge	 SHORT $LN8@min
$LN4@min:

; 5429 : 		{
; 5430 : 		_STL_ASSERT(!(_Left < _Right), "invalid comparator");

  00015	8b 45 08	 mov	 eax, DWORD PTR __Left$[ebp]
  00018	8b 4d 0c	 mov	 ecx, DWORD PTR __Right$[ebp]
  0001b	8b 10		 mov	 edx, DWORD PTR [eax]
  0001d	3b 11		 cmp	 edx, DWORD PTR [ecx]
  0001f	7c 02		 jl	 SHORT $LN7@min
  00021	eb 4a		 jmp	 SHORT $LN2@min
$LN7@min:
  00023	68 00 00 00 00	 push	 OFFSET ??_C@_0BD@FEEMDEPI@invalid?5comparator@
  00028	68 00 00 00 00	 push	 OFFSET ??_C@_02DKCKIIND@?$CFs@
  0002d	6a 00		 push	 0
  0002f	68 36 15 00 00	 push	 5430			; 00001536H
  00034	68 00 00 00 00	 push	 OFFSET ??_C@_0GK@JMBMHIBC@c?3?2program?5files?5?$CIx86?$CJ?2microsof@
  00039	6a 02		 push	 2
  0003b	ff 15 00 00 00
	00		 call	 DWORD PTR __imp___CrtDbgReport
  00041	83 c4 18	 add	 esp, 24			; 00000018H
  00044	83 f8 01	 cmp	 eax, 1
  00047	75 01		 jne	 SHORT $LN12@min
  00049	cc		 int	 3
$LN12@min:
  0004a	6a 00		 push	 0
  0004c	68 36 15 00 00	 push	 5430			; 00001536H
  00051	68 00 00 00 00	 push	 OFFSET ??_C@_1NE@FKBPBJEB@?$AAc?$AA?3?$AA?2?$AAp?$AAr?$AAo?$AAg?$AAr?$AAa?$AAm?$AA?5?$AAf?$AAi?$AAl?$AAe@
  00056	68 00 00 00 00	 push	 OFFSET ??_C@_1BC@BLAPCBGI@?$AAs?$AAt?$AAd?$AA?3?$AA?3?$AAm?$AAi?$AAn@
  0005b	68 00 00 00 00	 push	 OFFSET ??_C@_1CK@NDNHPKPI@?$AA?$CC?$AAi?$AAn?$AAv?$AAa?$AAl?$AAi?$AAd?$AA?5?$AAc?$AAo?$AAm?$AAp?$AAa?$AAr@
  00060	ff 15 00 00 00
	00		 call	 DWORD PTR __imp___invalid_parameter
  00066	83 c4 14	 add	 esp, 20			; 00000014H
  00069	33 c0		 xor	 eax, eax
  0006b	75 b6		 jne	 SHORT $LN7@min
$LN2@min:
  0006d	33 c0		 xor	 eax, eax
  0006f	75 a4		 jne	 SHORT $LN4@min

; 5431 : 		return (_Right);

  00071	8b 45 0c	 mov	 eax, DWORD PTR __Right$[ebp]
  00074	eb 03		 jmp	 SHORT $LN11@min
$LN8@min:

; 5432 : 		}
; 5433 : 
; 5434 : 	return (_Left);

  00076	8b 45 08	 mov	 eax, DWORD PTR __Left$[ebp]
$LN11@min:

; 5435 : 	}

  00079	5f		 pop	 edi
  0007a	5e		 pop	 esi
  0007b	5b		 pop	 ebx
  0007c	8b e5		 mov	 esp, ebp
  0007e	5d		 pop	 ebp
  0007f	c2 08 00	 ret	 8
??$min@H@std@@YGABHABH0@Z ENDP				; std::min<int>
_TEXT	ENDS
; Function compile flags: /Odtp /ZI
; File c:\users\nhv90\projects\eech\aphavoc\source\ai\highlevl\highlevl.c
;	COMDAT ?create_artillery_strike_tasks@@YGXXZ
_TEXT	SEGMENT
tv1214 = -184						; size = 8
tv1130 = -180						; size = 4
tv1268 = -176						; size = 8
tv1266 = -176						; size = 4
tv1123 = -172						; size = 4
tv1206 = -168						; size = 8
tv630 = -168						; size = 4
tv623 = -164						; size = 4
tv838 = -160						; size = 4
tv804 = -160						; size = 4
tv746 = -160						; size = 4
tv718 = -160						; size = 4
tv693 = -160						; size = 4
tv664 = -160						; size = 4
tv612 = -160						; size = 4
tv593 = -160						; size = 4
tv574 = -160						; size = 4
tv550 = -160						; size = 4
tv529 = -160						; size = 4
tv508 = -160						; size = 4
tv484 = -160						; size = 4
tv465 = -160						; size = 4
tv440 = -160						; size = 4
tv417 = -160						; size = 4
tv398 = -160						; size = 4
tv374 = -160						; size = 4
tv353 = -160						; size = 4
tv333 = -160						; size = 4
tv310 = -160						; size = 4
tv291 = -160						; size = 4
tv271 = -160						; size = 4
tv247 = -160						; size = 4
tv228 = -160						; size = 4
tv204 = -160						; size = 4
tv182 = -160						; size = 4
tv163 = -160						; size = 4
tv139 = -160						; size = 4
tv86 = -160						; size = 4
tv830 = -156						; size = 4
tv796 = -156						; size = 4
tv772 = -156						; size = 4
tv760 = -156						; size = 4
tv739 = -156						; size = 4
tv710 = -156						; size = 4
tv685 = -156						; size = 4
tv656 = -156						; size = 4
tv605 = -156						; size = 4
tv586 = -156						; size = 4
tv567 = -156						; size = 4
tv542 = -156						; size = 4
tv521 = -156						; size = 4
tv500 = -156						; size = 4
tv477 = -156						; size = 4
tv457 = -156						; size = 4
tv432 = -156						; size = 4
tv410 = -156						; size = 4
tv391 = -156						; size = 4
tv366 = -156						; size = 4
tv345 = -156						; size = 4
tv325 = -156						; size = 4
tv303 = -156						; size = 4
tv283 = -156						; size = 4
tv263 = -156						; size = 4
tv240 = -156						; size = 4
tv220 = -156						; size = 4
tv196 = -156						; size = 4
tv175 = -156						; size = 4
tv155 = -156						; size = 4
tv146 = -156						; size = 4
tv131 = -156						; size = 4
tv78 = -156						; size = 4
_max_range$ = -88					; size = 4
_range$ = -84						; size = 4
_target_index$ = -80					; size = 4
_group_index$ = -76					; size = 4
_target_keysite_count$ = -72				; size = 4
_target_group_count$ = -68				; size = 4
_target_count$ = -64					; size = 4
_target_sub_type$ = -60					; size = 4
_group_count$ = -56					; size = 4
_assigned_count$ = -52					; size = 4
_result$ = -48						; size = 4
_target_pos$ = -44					; size = 4
_pos$ = -40						; size = 4
_target_force$ = -36					; size = 4
_force$ = -32						; size = 4
_sector$ = -28						; size = 4
_target_list$ = -24					; size = 4
_group_list$ = -20					; size = 4
_target$ = -16						; size = 4
_group$ = -12						; size = 4
_enemy_side$ = -8					; size = 4
_side$ = -4						; size = 4
?create_artillery_strike_tasks@@YGXXZ PROC		; create_artillery_strike_tasks, COMDAT

; 2739 : {

  00000	55		 push	 ebp
  00001	8b ec		 mov	 ebp, esp
  00003	81 ec b8 00 00
	00		 sub	 esp, 184		; 000000b8H
  00009	53		 push	 ebx
  0000a	56		 push	 esi
  0000b	57		 push	 edi

; 2740 : 	entity_sides
; 2741 : 		side,
; 2742 : 		enemy_side;
; 2743 : 
; 2744 : 	entity
; 2745 : 		*group,
; 2746 : 		*target,
; 2747 : 		**group_list,
; 2748 : 		**target_list,
; 2749 : 		*sector,
; 2750 : 		*force,
; 2751 : 		*target_force;
; 2752 : 
; 2753 : 	vec3d
; 2754 : 		*pos,
; 2755 : 		*target_pos;
; 2756 : 
; 2757 : 	int
; 2758 : 		result,
; 2759 : 		assigned_count,
; 2760 : 		group_count,
; 2761 : 		target_sub_type,
; 2762 : 		target_count,
; 2763 : 		target_group_count,
; 2764 : 		target_keysite_count,
; 2765 : 		group_index,
; 2766 : 		target_index;
; 2767 : 
; 2768 : 	float
; 2769 : 		range,
; 2770 : 		max_range;
; 2771 : 
; 2772 : 	ASSERT (get_comms_model () == COMMS_MODEL_SERVER);

  0000c	83 3d 00 00 00
	00 00		 cmp	 DWORD PTR ?system_comms_model@@3W4COMMS_MODEL_TYPES@@A, 0 ; system_comms_model
  00013	74 18		 je	 SHORT $LN22@create_art
  00015	a1 00 00 00 00	 mov	 eax, DWORD PTR ?__LINE__Var@?0??create_artillery_strike_tasks@@YGXXZ@4JA
  0001a	83 c0 21	 add	 eax, 33			; 00000021H
  0001d	50		 push	 eax
  0001e	68 00 00 00 00	 push	 OFFSET ??_C@_0ED@GMECMFKH@c?3?2users?2nhv90?2projects?2eech?2ap@
  00023	68 00 00 00 00	 push	 OFFSET ??_C@_0CJ@DMBLBJBK@get_comms_model?5?$CI?$CJ?5?$DN?$DN?5COMMS_MOD@
  00028	e8 00 00 00 00	 call	 ?process_assert@@YGXPBD0H@Z ; process_assert
$LN22@create_art:

; 2773 : 
; 2774 : 	ai_log ("=============================");

  0002d	68 00 00 00 00	 push	 OFFSET ??_C@_0BO@NCOIPEIL@?$DN?$DN?$DN?$DN?$DN?$DN?$DN?$DN?$DN?$DN?$DN?$DN?$DN?$DN?$DN?$DN?$DN?$DN?$DN?$DN?$DN?$DN?$DN?$DN?$DN?$DN?$DN?$DN?$DN@
  00032	e8 00 00 00 00	 call	 ?ai_log@@YAXPBDZZ	; ai_log
  00037	83 c4 04	 add	 esp, 4

; 2775 : 	ai_log ("CREATE ARTILLERY STRIKE TASKS");

  0003a	68 00 00 00 00	 push	 OFFSET ??_C@_0BO@PKOHEKBI@CREATE?5ARTILLERY?5STRIKE?5TASKS@
  0003f	e8 00 00 00 00	 call	 ?ai_log@@YAXPBDZZ	; ai_log
  00044	83 c4 04	 add	 esp, 4

; 2776 : 	ai_log ("-----------------------------");

  00047	68 00 00 00 00	 push	 OFFSET ??_C@_0BO@OCAALIAC@?9?9?9?9?9?9?9?9?9?9?9?9?9?9?9?9?9?9?9?9?9?9?9?9?9?9?9?9?9@
  0004c	e8 00 00 00 00	 call	 ?ai_log@@YAXPBDZZ	; ai_log
  00051	83 c4 04	 add	 esp, 4

; 2777 : 
; 2778 : 	force = get_local_entity_first_child (get_session_entity (), LIST_TYPE_FORCE);

  00054	83 3d 00 00 00
	00 00		 cmp	 DWORD PTR ?session_entity@@3PAUENTITY@@A, 0 ; session_entity
  0005b	74 0f		 je	 SHORT $LN48@create_art
  0005d	a1 00 00 00 00	 mov	 eax, DWORD PTR ?session_entity@@3PAUENTITY@@A ; session_entity
  00062	8b 08		 mov	 ecx, DWORD PTR [eax]
  00064	89 8d 64 ff ff
	ff		 mov	 DWORD PTR tv78[ebp], ecx
  0006a	eb 24		 jmp	 SHORT $LN49@create_art
$LN48@create_art:
  0006c	8b 15 00 00 00
	00		 mov	 edx, DWORD PTR ?__LINE__Var@?0??create_artillery_strike_tasks@@YGXXZ@4JA
  00072	83 c2 27	 add	 edx, 39			; 00000027H
  00075	52		 push	 edx
  00076	68 00 00 00 00	 push	 OFFSET ??_C@_0ED@GMECMFKH@c?3?2users?2nhv90?2projects?2eech?2ap@
  0007b	a1 00 00 00 00	 mov	 eax, DWORD PTR ?null_entity_pointer_message@@3PBDB ; null_entity_pointer_message
  00080	50		 push	 eax
  00081	e8 00 00 00 00	 call	 ?process_assert@@YGXPBD0H@Z ; process_assert
  00086	c7 85 64 ff ff
	ff 00 00 00 00	 mov	 DWORD PTR tv78[ebp], 0
$LN49@create_art:
  00090	b9 01 00 00 00	 mov	 ecx, 1
  00095	85 c9		 test	 ecx, ecx
  00097	74 0c		 je	 SHORT $LN50@create_art
  00099	c7 85 60 ff ff
	ff 0e 00 00 00	 mov	 DWORD PTR tv86[ebp], 14	; 0000000eH
  000a3	eb 24		 jmp	 SHORT $LN51@create_art
$LN50@create_art:
  000a5	8b 15 00 00 00
	00		 mov	 edx, DWORD PTR ?__LINE__Var@?0??create_artillery_strike_tasks@@YGXXZ@4JA
  000ab	83 c2 27	 add	 edx, 39			; 00000027H
  000ae	52		 push	 edx
  000af	68 00 00 00 00	 push	 OFFSET ??_C@_0ED@GMECMFKH@c?3?2users?2nhv90?2projects?2eech?2ap@
  000b4	a1 00 00 00 00	 mov	 eax, DWORD PTR ?overload_invalid_list_type_message@@3PBDB ; overload_invalid_list_type_message
  000b9	50		 push	 eax
  000ba	e8 00 00 00 00	 call	 ?process_assert@@YGXPBD0H@Z ; process_assert
  000bf	c7 85 60 ff ff
	ff 00 00 00 00	 mov	 DWORD PTR tv86[ebp], 0
$LN51@create_art:
  000c9	6a 0e		 push	 14			; 0000000eH
  000cb	8b 0d 00 00 00
	00		 mov	 ecx, DWORD PTR ?session_entity@@3PAUENTITY@@A ; session_entity
  000d1	51		 push	 ecx
  000d2	69 95 64 ff ff
	ff b4 00 00 00	 imul	 edx, DWORD PTR tv78[ebp], 180
  000dc	8b 85 60 ff ff
	ff		 mov	 eax, DWORD PTR tv86[ebp]
  000e2	8b 8c 82 00 00
	00 00		 mov	 ecx, DWORD PTR ?fn_get_local_entity_first_child@@3PAY0CN@P6GPAUENTITY@@PAU1@W4LIST_TYPES@@@ZA[edx+eax*4]
  000e9	ff d1		 call	 ecx
  000eb	89 45 e0	 mov	 DWORD PTR _force$[ebp], eax
$LN2@create_art:

; 2779 : 
; 2780 : 	while (force)

  000ee	83 7d e0 00	 cmp	 DWORD PTR _force$[ebp], 0
  000f2	0f 84 5e 15 00
	00		 je	 $LN3@create_art

; 2781 : 	{
; 2782 : 		side = (entity_sides) get_local_entity_int_value (force, INT_TYPE_SIDE);

  000f8	83 7d e0 00	 cmp	 DWORD PTR _force$[ebp], 0
  000fc	74 0d		 je	 SHORT $LN52@create_art
  000fe	8b 45 e0	 mov	 eax, DWORD PTR _force$[ebp]
  00101	8b 08		 mov	 ecx, DWORD PTR [eax]
  00103	89 8d 64 ff ff
	ff		 mov	 DWORD PTR tv131[ebp], ecx
  00109	eb 24		 jmp	 SHORT $LN53@create_art
$LN52@create_art:
  0010b	8b 15 00 00 00
	00		 mov	 edx, DWORD PTR ?__LINE__Var@?0??create_artillery_strike_tasks@@YGXXZ@4JA
  00111	83 c2 2b	 add	 edx, 43			; 0000002bH
  00114	52		 push	 edx
  00115	68 00 00 00 00	 push	 OFFSET ??_C@_0ED@GMECMFKH@c?3?2users?2nhv90?2projects?2eech?2ap@
  0011a	a1 00 00 00 00	 mov	 eax, DWORD PTR ?null_entity_pointer_message@@3PBDB ; null_entity_pointer_message
  0011f	50		 push	 eax
  00120	e8 00 00 00 00	 call	 ?process_assert@@YGXPBD0H@Z ; process_assert
  00125	c7 85 64 ff ff
	ff 00 00 00 00	 mov	 DWORD PTR tv131[ebp], 0
$LN53@create_art:
  0012f	b9 01 00 00 00	 mov	 ecx, 1
  00134	85 c9		 test	 ecx, ecx
  00136	74 0c		 je	 SHORT $LN54@create_art
  00138	c7 85 60 ff ff
	ff bb 00 00 00	 mov	 DWORD PTR tv139[ebp], 187 ; 000000bbH
  00142	eb 24		 jmp	 SHORT $LN55@create_art
$LN54@create_art:
  00144	8b 15 00 00 00
	00		 mov	 edx, DWORD PTR ?__LINE__Var@?0??create_artillery_strike_tasks@@YGXXZ@4JA
  0014a	83 c2 2b	 add	 edx, 43			; 0000002bH
  0014d	52		 push	 edx
  0014e	68 00 00 00 00	 push	 OFFSET ??_C@_0ED@GMECMFKH@c?3?2users?2nhv90?2projects?2eech?2ap@
  00153	a1 00 00 00 00	 mov	 eax, DWORD PTR ?overload_invalid_int_type_message@@3PBDB ; overload_invalid_int_type_message
  00158	50		 push	 eax
  00159	e8 00 00 00 00	 call	 ?process_assert@@YGXPBD0H@Z ; process_assert
  0015e	c7 85 60 ff ff
	ff 00 00 00 00	 mov	 DWORD PTR tv139[ebp], 0
$LN55@create_art:
  00168	68 bb 00 00 00	 push	 187			; 000000bbH
  0016d	8b 4d e0	 mov	 ecx, DWORD PTR _force$[ebp]
  00170	51		 push	 ecx
  00171	69 95 64 ff ff
	ff 5c 04 00 00	 imul	 edx, DWORD PTR tv131[ebp], 1116
  0017b	8b 85 60 ff ff
	ff		 mov	 eax, DWORD PTR tv139[ebp]
  00181	8b 8c 82 00 00
	00 00		 mov	 ecx, DWORD PTR ?fn_get_local_entity_int_value@@3PAY0BBH@P6GHPAUENTITY@@W4INT_TYPES@@@ZA[edx+eax*4]
  00188	ff d1		 call	 ecx
  0018a	89 45 fc	 mov	 DWORD PTR _side$[ebp], eax

; 2783 : 
; 2784 : 		enemy_side = get_enemy_side (side);

  0018d	83 7d fc 01	 cmp	 DWORD PTR _side$[ebp], 1
  00191	75 0c		 jne	 SHORT $LN56@create_art
  00193	c7 85 64 ff ff
	ff 02 00 00 00	 mov	 DWORD PTR tv146[ebp], 2
  0019d	eb 0a		 jmp	 SHORT $LN57@create_art
$LN56@create_art:
  0019f	c7 85 64 ff ff
	ff 01 00 00 00	 mov	 DWORD PTR tv146[ebp], 1
$LN57@create_art:
  001a9	8b 85 64 ff ff
	ff		 mov	 eax, DWORD PTR tv146[ebp]
  001af	89 45 f8	 mov	 DWORD PTR _enemy_side$[ebp], eax

; 2785 : 
; 2786 : 		target_force = get_local_force_entity (enemy_side);

  001b2	8b 45 f8	 mov	 eax, DWORD PTR _enemy_side$[ebp]
  001b5	50		 push	 eax
  001b6	e8 00 00 00 00	 call	 ?get_local_force_entity@@YGPAUENTITY@@W4ENTITY_SIDES@@@Z ; get_local_force_entity
  001bb	89 45 dc	 mov	 DWORD PTR _target_force$[ebp], eax

; 2787 : 
; 2788 : 		//
; 2789 : 		// Store list of artillery groups
; 2790 : 		//
; 2791 : 
; 2792 : 		group_count = 0;

  001be	c7 45 c8 00 00
	00 00		 mov	 DWORD PTR _group_count$[ebp], 0

; 2793 : 
; 2794 : 		group = get_local_entity_first_child (force, LIST_TYPE_GROUND_REGISTRY);

  001c5	83 7d e0 00	 cmp	 DWORD PTR _force$[ebp], 0
  001c9	74 0d		 je	 SHORT $LN58@create_art
  001cb	8b 45 e0	 mov	 eax, DWORD PTR _force$[ebp]
  001ce	8b 08		 mov	 ecx, DWORD PTR [eax]
  001d0	89 8d 64 ff ff
	ff		 mov	 DWORD PTR tv155[ebp], ecx
  001d6	eb 24		 jmp	 SHORT $LN59@create_art
$LN58@create_art:
  001d8	8b 15 00 00 00
	00		 mov	 edx, DWORD PTR ?__LINE__Var@?0??create_artillery_strike_tasks@@YGXXZ@4JA
  001de	83 c2 37	 add	 edx, 55			; 00000037H
  001e1	52		 push	 edx
  001e2	68 00 00 00 00	 push	 OFFSET ??_C@_0ED@GMECMFKH@c?3?2users?2nhv90?2projects?2eech?2ap@
  001e7	a1 00 00 00 00	 mov	 eax, DWORD PTR ?null_entity_pointer_message@@3PBDB ; null_entity_pointer_message
  001ec	50		 push	 eax
  001ed	e8 00 00 00 00	 call	 ?process_assert@@YGXPBD0H@Z ; process_assert
  001f2	c7 85 64 ff ff
	ff 00 00 00 00	 mov	 DWORD PTR tv155[ebp], 0
$LN59@create_art:
  001fc	b9 01 00 00 00	 mov	 ecx, 1
  00201	85 c9		 test	 ecx, ecx
  00203	74 0c		 je	 SHORT $LN60@create_art
  00205	c7 85 60 ff ff
	ff 0f 00 00 00	 mov	 DWORD PTR tv163[ebp], 15 ; 0000000fH
  0020f	eb 24		 jmp	 SHORT $LN61@create_art
$LN60@create_art:
  00211	8b 15 00 00 00
	00		 mov	 edx, DWORD PTR ?__LINE__Var@?0??create_artillery_strike_tasks@@YGXXZ@4JA
  00217	83 c2 37	 add	 edx, 55			; 00000037H
  0021a	52		 push	 edx
  0021b	68 00 00 00 00	 push	 OFFSET ??_C@_0ED@GMECMFKH@c?3?2users?2nhv90?2projects?2eech?2ap@
  00220	a1 00 00 00 00	 mov	 eax, DWORD PTR ?overload_invalid_list_type_message@@3PBDB ; overload_invalid_list_type_message
  00225	50		 push	 eax
  00226	e8 00 00 00 00	 call	 ?process_assert@@YGXPBD0H@Z ; process_assert
  0022b	c7 85 60 ff ff
	ff 00 00 00 00	 mov	 DWORD PTR tv163[ebp], 0
$LN61@create_art:
  00235	6a 0f		 push	 15			; 0000000fH
  00237	8b 4d e0	 mov	 ecx, DWORD PTR _force$[ebp]
  0023a	51		 push	 ecx
  0023b	69 95 64 ff ff
	ff b4 00 00 00	 imul	 edx, DWORD PTR tv155[ebp], 180
  00245	8b 85 60 ff ff
	ff		 mov	 eax, DWORD PTR tv163[ebp]
  0024b	8b 8c 82 00 00
	00 00		 mov	 ecx, DWORD PTR ?fn_get_local_entity_first_child@@3PAY0CN@P6GPAUENTITY@@PAU1@W4LIST_TYPES@@@ZA[edx+eax*4]
  00252	ff d1		 call	 ecx
  00254	89 45 f4	 mov	 DWORD PTR _group$[ebp], eax
$LN4@create_art:

; 2795 : 
; 2796 : 		while (group)

  00257	83 7d f4 00	 cmp	 DWORD PTR _group$[ebp], 0
  0025b	0f 84 2c 01 00
	00		 je	 $LN5@create_art

; 2797 : 		{
; 2798 : 			if (get_local_entity_int_value (group, INT_TYPE_FRONTLINE) == GROUP_FRONTLINE_FLAG_ARTILLERY)

  00261	83 7d f4 00	 cmp	 DWORD PTR _group$[ebp], 0
  00265	74 0d		 je	 SHORT $LN62@create_art
  00267	8b 45 f4	 mov	 eax, DWORD PTR _group$[ebp]
  0026a	8b 08		 mov	 ecx, DWORD PTR [eax]
  0026c	89 8d 64 ff ff
	ff		 mov	 DWORD PTR tv175[ebp], ecx
  00272	eb 20		 jmp	 SHORT $LN63@create_art
$LN62@create_art:
  00274	68 ee 0a 00 00	 push	 2798			; 00000aeeH
  00279	68 00 00 00 00	 push	 OFFSET ??_C@_0ED@GMECMFKH@c?3?2users?2nhv90?2projects?2eech?2ap@
  0027e	8b 15 00 00 00
	00		 mov	 edx, DWORD PTR ?null_entity_pointer_message@@3PBDB ; null_entity_pointer_message
  00284	52		 push	 edx
  00285	e8 00 00 00 00	 call	 ?process_assert@@YGXPBD0H@Z ; process_assert
  0028a	c7 85 64 ff ff
	ff 00 00 00 00	 mov	 DWORD PTR tv175[ebp], 0
$LN63@create_art:
  00294	b8 01 00 00 00	 mov	 eax, 1
  00299	85 c0		 test	 eax, eax
  0029b	74 0c		 je	 SHORT $LN64@create_art
  0029d	c7 85 60 ff ff
	ff 41 00 00 00	 mov	 DWORD PTR tv182[ebp], 65 ; 00000041H
  002a7	eb 20		 jmp	 SHORT $LN65@create_art
$LN64@create_art:
  002a9	68 ee 0a 00 00	 push	 2798			; 00000aeeH
  002ae	68 00 00 00 00	 push	 OFFSET ??_C@_0ED@GMECMFKH@c?3?2users?2nhv90?2projects?2eech?2ap@
  002b3	8b 0d 00 00 00
	00		 mov	 ecx, DWORD PTR ?overload_invalid_int_type_message@@3PBDB ; overload_invalid_int_type_message
  002b9	51		 push	 ecx
  002ba	e8 00 00 00 00	 call	 ?process_assert@@YGXPBD0H@Z ; process_assert
  002bf	c7 85 60 ff ff
	ff 00 00 00 00	 mov	 DWORD PTR tv182[ebp], 0
$LN65@create_art:
  002c9	6a 41		 push	 65			; 00000041H
  002cb	8b 55 f4	 mov	 edx, DWORD PTR _group$[ebp]
  002ce	52		 push	 edx
  002cf	69 85 64 ff ff
	ff 5c 04 00 00	 imul	 eax, DWORD PTR tv175[ebp], 1116
  002d9	8b 8d 60 ff ff
	ff		 mov	 ecx, DWORD PTR tv182[ebp]
  002df	8b 94 88 00 00
	00 00		 mov	 edx, DWORD PTR ?fn_get_local_entity_int_value@@3PAY0BBH@P6GHPAUENTITY@@W4INT_TYPES@@@ZA[eax+ecx*4]
  002e6	ff d2		 call	 edx
  002e8	83 f8 03	 cmp	 eax, 3
  002eb	75 09		 jne	 SHORT $LN23@create_art

; 2799 : 			{
; 2800 : 				group_count ++;

  002ed	8b 45 c8	 mov	 eax, DWORD PTR _group_count$[ebp]
  002f0	83 c0 01	 add	 eax, 1
  002f3	89 45 c8	 mov	 DWORD PTR _group_count$[ebp], eax
$LN23@create_art:

; 2801 : 			}
; 2802 : 
; 2803 : 			group = get_local_entity_child_succ (group, LIST_TYPE_GROUND_REGISTRY);

  002f6	83 7d f4 00	 cmp	 DWORD PTR _group$[ebp], 0
  002fa	74 0d		 je	 SHORT $LN66@create_art
  002fc	8b 45 f4	 mov	 eax, DWORD PTR _group$[ebp]
  002ff	8b 08		 mov	 ecx, DWORD PTR [eax]
  00301	89 8d 64 ff ff
	ff		 mov	 DWORD PTR tv196[ebp], ecx
  00307	eb 24		 jmp	 SHORT $LN67@create_art
$LN66@create_art:
  00309	8b 15 00 00 00
	00		 mov	 edx, DWORD PTR ?__LINE__Var@?0??create_artillery_strike_tasks@@YGXXZ@4JA
  0030f	83 c2 40	 add	 edx, 64			; 00000040H
  00312	52		 push	 edx
  00313	68 00 00 00 00	 push	 OFFSET ??_C@_0ED@GMECMFKH@c?3?2users?2nhv90?2projects?2eech?2ap@
  00318	a1 00 00 00 00	 mov	 eax, DWORD PTR ?null_entity_pointer_message@@3PBDB ; null_entity_pointer_message
  0031d	50		 push	 eax
  0031e	e8 00 00 00 00	 call	 ?process_assert@@YGXPBD0H@Z ; process_assert
  00323	c7 85 64 ff ff
	ff 00 00 00 00	 mov	 DWORD PTR tv196[ebp], 0
$LN67@create_art:
  0032d	b9 01 00 00 00	 mov	 ecx, 1
  00332	85 c9		 test	 ecx, ecx
  00334	74 0c		 je	 SHORT $LN68@create_art
  00336	c7 85 60 ff ff
	ff 0f 00 00 00	 mov	 DWORD PTR tv204[ebp], 15 ; 0000000fH
  00340	eb 24		 jmp	 SHORT $LN69@create_art
$LN68@create_art:
  00342	8b 15 00 00 00
	00		 mov	 edx, DWORD PTR ?__LINE__Var@?0??create_artillery_strike_tasks@@YGXXZ@4JA
  00348	83 c2 40	 add	 edx, 64			; 00000040H
  0034b	52		 push	 edx
  0034c	68 00 00 00 00	 push	 OFFSET ??_C@_0ED@GMECMFKH@c?3?2users?2nhv90?2projects?2eech?2ap@
  00351	a1 00 00 00 00	 mov	 eax, DWORD PTR ?overload_invalid_list_type_message@@3PBDB ; overload_invalid_list_type_message
  00356	50		 push	 eax
  00357	e8 00 00 00 00	 call	 ?process_assert@@YGXPBD0H@Z ; process_assert
  0035c	c7 85 60 ff ff
	ff 00 00 00 00	 mov	 DWORD PTR tv204[ebp], 0
$LN69@create_art:
  00366	6a 0f		 push	 15			; 0000000fH
  00368	8b 4d f4	 mov	 ecx, DWORD PTR _group$[ebp]
  0036b	51		 push	 ecx
  0036c	69 95 64 ff ff
	ff b4 00 00 00	 imul	 edx, DWORD PTR tv196[ebp], 180
  00376	8b 85 60 ff ff
	ff		 mov	 eax, DWORD PTR tv204[ebp]
  0037c	8b 8c 82 00 00
	00 00		 mov	 ecx, DWORD PTR ?fn_get_local_entity_child_succ@@3PAY0CN@P6GPAUENTITY@@PAU1@W4LIST_TYPES@@@ZA[edx+eax*4]
  00383	ff d1		 call	 ecx
  00385	89 45 f4	 mov	 DWORD PTR _group$[ebp], eax

; 2804 : 		}

  00388	e9 ca fe ff ff	 jmp	 $LN4@create_art
$LN5@create_art:

; 2805 : 
; 2806 : 		if (group_count > 0)

  0038d	83 7d c8 00	 cmp	 DWORD PTR _group_count$[ebp], 0
  00391	0f 8e 22 12 00
	00		 jle	 $LN24@create_art

; 2807 : 		{
; 2808 : 			group_list = (entity**)malloc_fast_mem (sizeof (entity *) * group_count);

  00397	8b 45 c8	 mov	 eax, DWORD PTR _group_count$[ebp]
  0039a	c1 e0 02	 shl	 eax, 2
  0039d	50		 push	 eax
  0039e	e8 00 00 00 00	 call	 ?malloc_fast_memory@@YGPAXI@Z ; malloc_fast_memory
  003a3	89 45 ec	 mov	 DWORD PTR _group_list$[ebp], eax

; 2809 : 
; 2810 : 			group_count = 0;

  003a6	c7 45 c8 00 00
	00 00		 mov	 DWORD PTR _group_count$[ebp], 0

; 2811 : 	
; 2812 : 			group = get_local_entity_first_child (force, LIST_TYPE_GROUND_REGISTRY);

  003ad	83 7d e0 00	 cmp	 DWORD PTR _force$[ebp], 0
  003b1	74 0d		 je	 SHORT $LN70@create_art
  003b3	8b 45 e0	 mov	 eax, DWORD PTR _force$[ebp]
  003b6	8b 08		 mov	 ecx, DWORD PTR [eax]
  003b8	89 8d 64 ff ff
	ff		 mov	 DWORD PTR tv220[ebp], ecx
  003be	eb 24		 jmp	 SHORT $LN71@create_art
$LN70@create_art:
  003c0	8b 15 00 00 00
	00		 mov	 edx, DWORD PTR ?__LINE__Var@?0??create_artillery_strike_tasks@@YGXXZ@4JA
  003c6	83 c2 49	 add	 edx, 73			; 00000049H
  003c9	52		 push	 edx
  003ca	68 00 00 00 00	 push	 OFFSET ??_C@_0ED@GMECMFKH@c?3?2users?2nhv90?2projects?2eech?2ap@
  003cf	a1 00 00 00 00	 mov	 eax, DWORD PTR ?null_entity_pointer_message@@3PBDB ; null_entity_pointer_message
  003d4	50		 push	 eax
  003d5	e8 00 00 00 00	 call	 ?process_assert@@YGXPBD0H@Z ; process_assert
  003da	c7 85 64 ff ff
	ff 00 00 00 00	 mov	 DWORD PTR tv220[ebp], 0
$LN71@create_art:
  003e4	b9 01 00 00 00	 mov	 ecx, 1
  003e9	85 c9		 test	 ecx, ecx
  003eb	74 0c		 je	 SHORT $LN72@create_art
  003ed	c7 85 60 ff ff
	ff 0f 00 00 00	 mov	 DWORD PTR tv228[ebp], 15 ; 0000000fH
  003f7	eb 24		 jmp	 SHORT $LN73@create_art
$LN72@create_art:
  003f9	8b 15 00 00 00
	00		 mov	 edx, DWORD PTR ?__LINE__Var@?0??create_artillery_strike_tasks@@YGXXZ@4JA
  003ff	83 c2 49	 add	 edx, 73			; 00000049H
  00402	52		 push	 edx
  00403	68 00 00 00 00	 push	 OFFSET ??_C@_0ED@GMECMFKH@c?3?2users?2nhv90?2projects?2eech?2ap@
  00408	a1 00 00 00 00	 mov	 eax, DWORD PTR ?overload_invalid_list_type_message@@3PBDB ; overload_invalid_list_type_message
  0040d	50		 push	 eax
  0040e	e8 00 00 00 00	 call	 ?process_assert@@YGXPBD0H@Z ; process_assert
  00413	c7 85 60 ff ff
	ff 00 00 00 00	 mov	 DWORD PTR tv228[ebp], 0
$LN73@create_art:
  0041d	6a 0f		 push	 15			; 0000000fH
  0041f	8b 4d e0	 mov	 ecx, DWORD PTR _force$[ebp]
  00422	51		 push	 ecx
  00423	69 95 64 ff ff
	ff b4 00 00 00	 imul	 edx, DWORD PTR tv220[ebp], 180
  0042d	8b 85 60 ff ff
	ff		 mov	 eax, DWORD PTR tv228[ebp]
  00433	8b 8c 82 00 00
	00 00		 mov	 ecx, DWORD PTR ?fn_get_local_entity_first_child@@3PAY0CN@P6GPAUENTITY@@PAU1@W4LIST_TYPES@@@ZA[edx+eax*4]
  0043a	ff d1		 call	 ecx
  0043c	89 45 f4	 mov	 DWORD PTR _group$[ebp], eax
$LN6@create_art:

; 2813 : 	
; 2814 : 			while (group)

  0043f	83 7d f4 00	 cmp	 DWORD PTR _group$[ebp], 0
  00443	0f 84 38 01 00
	00		 je	 $LN7@create_art

; 2815 : 			{
; 2816 : 				if (get_local_entity_int_value (group, INT_TYPE_FRONTLINE) == GROUP_FRONTLINE_FLAG_ARTILLERY)

  00449	83 7d f4 00	 cmp	 DWORD PTR _group$[ebp], 0
  0044d	74 0d		 je	 SHORT $LN74@create_art
  0044f	8b 45 f4	 mov	 eax, DWORD PTR _group$[ebp]
  00452	8b 08		 mov	 ecx, DWORD PTR [eax]
  00454	89 8d 64 ff ff
	ff		 mov	 DWORD PTR tv240[ebp], ecx
  0045a	eb 20		 jmp	 SHORT $LN75@create_art
$LN74@create_art:
  0045c	68 00 0b 00 00	 push	 2816			; 00000b00H
  00461	68 00 00 00 00	 push	 OFFSET ??_C@_0ED@GMECMFKH@c?3?2users?2nhv90?2projects?2eech?2ap@
  00466	8b 15 00 00 00
	00		 mov	 edx, DWORD PTR ?null_entity_pointer_message@@3PBDB ; null_entity_pointer_message
  0046c	52		 push	 edx
  0046d	e8 00 00 00 00	 call	 ?process_assert@@YGXPBD0H@Z ; process_assert
  00472	c7 85 64 ff ff
	ff 00 00 00 00	 mov	 DWORD PTR tv240[ebp], 0
$LN75@create_art:
  0047c	b8 01 00 00 00	 mov	 eax, 1
  00481	85 c0		 test	 eax, eax
  00483	74 0c		 je	 SHORT $LN76@create_art
  00485	c7 85 60 ff ff
	ff 41 00 00 00	 mov	 DWORD PTR tv247[ebp], 65 ; 00000041H
  0048f	eb 20		 jmp	 SHORT $LN77@create_art
$LN76@create_art:
  00491	68 00 0b 00 00	 push	 2816			; 00000b00H
  00496	68 00 00 00 00	 push	 OFFSET ??_C@_0ED@GMECMFKH@c?3?2users?2nhv90?2projects?2eech?2ap@
  0049b	8b 0d 00 00 00
	00		 mov	 ecx, DWORD PTR ?overload_invalid_int_type_message@@3PBDB ; overload_invalid_int_type_message
  004a1	51		 push	 ecx
  004a2	e8 00 00 00 00	 call	 ?process_assert@@YGXPBD0H@Z ; process_assert
  004a7	c7 85 60 ff ff
	ff 00 00 00 00	 mov	 DWORD PTR tv247[ebp], 0
$LN77@create_art:
  004b1	6a 41		 push	 65			; 00000041H
  004b3	8b 55 f4	 mov	 edx, DWORD PTR _group$[ebp]
  004b6	52		 push	 edx
  004b7	69 85 64 ff ff
	ff 5c 04 00 00	 imul	 eax, DWORD PTR tv240[ebp], 1116
  004c1	8b 8d 60 ff ff
	ff		 mov	 ecx, DWORD PTR tv247[ebp]
  004c7	8b 94 88 00 00
	00 00		 mov	 edx, DWORD PTR ?fn_get_local_entity_int_value@@3PAY0BBH@P6GHPAUENTITY@@W4INT_TYPES@@@ZA[eax+ecx*4]
  004ce	ff d2		 call	 edx
  004d0	83 f8 03	 cmp	 eax, 3
  004d3	75 15		 jne	 SHORT $LN25@create_art

; 2817 : 				{
; 2818 : 					group_list [group_count] = group;

  004d5	8b 45 c8	 mov	 eax, DWORD PTR _group_count$[ebp]
  004d8	8b 4d ec	 mov	 ecx, DWORD PTR _group_list$[ebp]
  004db	8b 55 f4	 mov	 edx, DWORD PTR _group$[ebp]
  004de	89 14 81	 mov	 DWORD PTR [ecx+eax*4], edx

; 2819 : 
; 2820 : 					group_count ++;

  004e1	8b 45 c8	 mov	 eax, DWORD PTR _group_count$[ebp]
  004e4	83 c0 01	 add	 eax, 1
  004e7	89 45 c8	 mov	 DWORD PTR _group_count$[ebp], eax
$LN25@create_art:

; 2821 : 				}
; 2822 : 	
; 2823 : 				group = get_local_entity_child_succ (group, LIST_TYPE_GROUND_REGISTRY);

  004ea	83 7d f4 00	 cmp	 DWORD PTR _group$[ebp], 0
  004ee	74 0d		 je	 SHORT $LN78@create_art
  004f0	8b 45 f4	 mov	 eax, DWORD PTR _group$[ebp]
  004f3	8b 08		 mov	 ecx, DWORD PTR [eax]
  004f5	89 8d 64 ff ff
	ff		 mov	 DWORD PTR tv263[ebp], ecx
  004fb	eb 24		 jmp	 SHORT $LN79@create_art
$LN78@create_art:
  004fd	8b 15 00 00 00
	00		 mov	 edx, DWORD PTR ?__LINE__Var@?0??create_artillery_strike_tasks@@YGXXZ@4JA
  00503	83 c2 54	 add	 edx, 84			; 00000054H
  00506	52		 push	 edx
  00507	68 00 00 00 00	 push	 OFFSET ??_C@_0ED@GMECMFKH@c?3?2users?2nhv90?2projects?2eech?2ap@
  0050c	a1 00 00 00 00	 mov	 eax, DWORD PTR ?null_entity_pointer_message@@3PBDB ; null_entity_pointer_message
  00511	50		 push	 eax
  00512	e8 00 00 00 00	 call	 ?process_assert@@YGXPBD0H@Z ; process_assert
  00517	c7 85 64 ff ff
	ff 00 00 00 00	 mov	 DWORD PTR tv263[ebp], 0
$LN79@create_art:
  00521	b9 01 00 00 00	 mov	 ecx, 1
  00526	85 c9		 test	 ecx, ecx
  00528	74 0c		 je	 SHORT $LN80@create_art
  0052a	c7 85 60 ff ff
	ff 0f 00 00 00	 mov	 DWORD PTR tv271[ebp], 15 ; 0000000fH
  00534	eb 24		 jmp	 SHORT $LN81@create_art
$LN80@create_art:
  00536	8b 15 00 00 00
	00		 mov	 edx, DWORD PTR ?__LINE__Var@?0??create_artillery_strike_tasks@@YGXXZ@4JA
  0053c	83 c2 54	 add	 edx, 84			; 00000054H
  0053f	52		 push	 edx
  00540	68 00 00 00 00	 push	 OFFSET ??_C@_0ED@GMECMFKH@c?3?2users?2nhv90?2projects?2eech?2ap@
  00545	a1 00 00 00 00	 mov	 eax, DWORD PTR ?overload_invalid_list_type_message@@3PBDB ; overload_invalid_list_type_message
  0054a	50		 push	 eax
  0054b	e8 00 00 00 00	 call	 ?process_assert@@YGXPBD0H@Z ; process_assert
  00550	c7 85 60 ff ff
	ff 00 00 00 00	 mov	 DWORD PTR tv271[ebp], 0
$LN81@create_art:
  0055a	6a 0f		 push	 15			; 0000000fH
  0055c	8b 4d f4	 mov	 ecx, DWORD PTR _group$[ebp]
  0055f	51		 push	 ecx
  00560	69 95 64 ff ff
	ff b4 00 00 00	 imul	 edx, DWORD PTR tv263[ebp], 180
  0056a	8b 85 60 ff ff
	ff		 mov	 eax, DWORD PTR tv271[ebp]
  00570	8b 8c 82 00 00
	00 00		 mov	 ecx, DWORD PTR ?fn_get_local_entity_child_succ@@3PAY0CN@P6GPAUENTITY@@PAU1@W4LIST_TYPES@@@ZA[edx+eax*4]
  00577	ff d1		 call	 ecx
  00579	89 45 f4	 mov	 DWORD PTR _group$[ebp], eax

; 2824 : 			}

  0057c	e9 be fe ff ff	 jmp	 $LN6@create_art
$LN7@create_art:

; 2825 : 
; 2826 : 			//
; 2827 : 			// Count up possible targets (enemy frontline forces, keysites)
; 2828 : 			//
; 2829 : 
; 2830 : 			target_count = 0;

  00581	c7 45 c0 00 00
	00 00		 mov	 DWORD PTR _target_count$[ebp], 0

; 2831 : 
; 2832 : 			// groups...
; 2833 : 			target_group_count = 0;

  00588	c7 45 bc 00 00
	00 00		 mov	 DWORD PTR _target_group_count$[ebp], 0

; 2834 : 
; 2835 : 			target = get_local_entity_first_child (target_force, LIST_TYPE_GROUND_REGISTRY);

  0058f	83 7d dc 00	 cmp	 DWORD PTR _target_force$[ebp], 0
  00593	74 0d		 je	 SHORT $LN82@create_art
  00595	8b 45 dc	 mov	 eax, DWORD PTR _target_force$[ebp]
  00598	8b 08		 mov	 ecx, DWORD PTR [eax]
  0059a	89 8d 64 ff ff
	ff		 mov	 DWORD PTR tv283[ebp], ecx
  005a0	eb 24		 jmp	 SHORT $LN83@create_art
$LN82@create_art:
  005a2	8b 15 00 00 00
	00		 mov	 edx, DWORD PTR ?__LINE__Var@?0??create_artillery_strike_tasks@@YGXXZ@4JA
  005a8	83 c2 60	 add	 edx, 96			; 00000060H
  005ab	52		 push	 edx
  005ac	68 00 00 00 00	 push	 OFFSET ??_C@_0ED@GMECMFKH@c?3?2users?2nhv90?2projects?2eech?2ap@
  005b1	a1 00 00 00 00	 mov	 eax, DWORD PTR ?null_entity_pointer_message@@3PBDB ; null_entity_pointer_message
  005b6	50		 push	 eax
  005b7	e8 00 00 00 00	 call	 ?process_assert@@YGXPBD0H@Z ; process_assert
  005bc	c7 85 64 ff ff
	ff 00 00 00 00	 mov	 DWORD PTR tv283[ebp], 0
$LN83@create_art:
  005c6	b9 01 00 00 00	 mov	 ecx, 1
  005cb	85 c9		 test	 ecx, ecx
  005cd	74 0c		 je	 SHORT $LN84@create_art
  005cf	c7 85 60 ff ff
	ff 0f 00 00 00	 mov	 DWORD PTR tv291[ebp], 15 ; 0000000fH
  005d9	eb 24		 jmp	 SHORT $LN85@create_art
$LN84@create_art:
  005db	8b 15 00 00 00
	00		 mov	 edx, DWORD PTR ?__LINE__Var@?0??create_artillery_strike_tasks@@YGXXZ@4JA
  005e1	83 c2 60	 add	 edx, 96			; 00000060H
  005e4	52		 push	 edx
  005e5	68 00 00 00 00	 push	 OFFSET ??_C@_0ED@GMECMFKH@c?3?2users?2nhv90?2projects?2eech?2ap@
  005ea	a1 00 00 00 00	 mov	 eax, DWORD PTR ?overload_invalid_list_type_message@@3PBDB ; overload_invalid_list_type_message
  005ef	50		 push	 eax
  005f0	e8 00 00 00 00	 call	 ?process_assert@@YGXPBD0H@Z ; process_assert
  005f5	c7 85 60 ff ff
	ff 00 00 00 00	 mov	 DWORD PTR tv291[ebp], 0
$LN85@create_art:
  005ff	6a 0f		 push	 15			; 0000000fH
  00601	8b 4d dc	 mov	 ecx, DWORD PTR _target_force$[ebp]
  00604	51		 push	 ecx
  00605	69 95 64 ff ff
	ff b4 00 00 00	 imul	 edx, DWORD PTR tv283[ebp], 180
  0060f	8b 85 60 ff ff
	ff		 mov	 eax, DWORD PTR tv291[ebp]
  00615	8b 8c 82 00 00
	00 00		 mov	 ecx, DWORD PTR ?fn_get_local_entity_first_child@@3PAY0CN@P6GPAUENTITY@@PAU1@W4LIST_TYPES@@@ZA[edx+eax*4]
  0061c	ff d1		 call	 ecx
  0061e	89 45 f0	 mov	 DWORD PTR _target$[ebp], eax
$LN8@create_art:

; 2836 : 	
; 2837 : 			while (target)

  00621	83 7d f0 00	 cmp	 DWORD PTR _target$[ebp], 0
  00625	0f 84 34 01 00
	00		 je	 $LN9@create_art

; 2838 : 			{
; 2839 : 				if (get_local_entity_int_value (target, INT_TYPE_FRONTLINE) != GROUP_FRONTLINE_FLAG_NONE)

  0062b	83 7d f0 00	 cmp	 DWORD PTR _target$[ebp], 0
  0062f	74 0d		 je	 SHORT $LN86@create_art
  00631	8b 45 f0	 mov	 eax, DWORD PTR _target$[ebp]
  00634	8b 08		 mov	 ecx, DWORD PTR [eax]
  00636	89 8d 64 ff ff
	ff		 mov	 DWORD PTR tv303[ebp], ecx
  0063c	eb 20		 jmp	 SHORT $LN87@create_art
$LN86@create_art:
  0063e	68 17 0b 00 00	 push	 2839			; 00000b17H
  00643	68 00 00 00 00	 push	 OFFSET ??_C@_0ED@GMECMFKH@c?3?2users?2nhv90?2projects?2eech?2ap@
  00648	8b 15 00 00 00
	00		 mov	 edx, DWORD PTR ?null_entity_pointer_message@@3PBDB ; null_entity_pointer_message
  0064e	52		 push	 edx
  0064f	e8 00 00 00 00	 call	 ?process_assert@@YGXPBD0H@Z ; process_assert
  00654	c7 85 64 ff ff
	ff 00 00 00 00	 mov	 DWORD PTR tv303[ebp], 0
$LN87@create_art:
  0065e	b8 01 00 00 00	 mov	 eax, 1
  00663	85 c0		 test	 eax, eax
  00665	74 0c		 je	 SHORT $LN88@create_art
  00667	c7 85 60 ff ff
	ff 41 00 00 00	 mov	 DWORD PTR tv310[ebp], 65 ; 00000041H
  00671	eb 20		 jmp	 SHORT $LN89@create_art
$LN88@create_art:
  00673	68 17 0b 00 00	 push	 2839			; 00000b17H
  00678	68 00 00 00 00	 push	 OFFSET ??_C@_0ED@GMECMFKH@c?3?2users?2nhv90?2projects?2eech?2ap@
  0067d	8b 0d 00 00 00
	00		 mov	 ecx, DWORD PTR ?overload_invalid_int_type_message@@3PBDB ; overload_invalid_int_type_message
  00683	51		 push	 ecx
  00684	e8 00 00 00 00	 call	 ?process_assert@@YGXPBD0H@Z ; process_assert
  00689	c7 85 60 ff ff
	ff 00 00 00 00	 mov	 DWORD PTR tv310[ebp], 0
$LN89@create_art:
  00693	6a 41		 push	 65			; 00000041H
  00695	8b 55 f0	 mov	 edx, DWORD PTR _target$[ebp]
  00698	52		 push	 edx
  00699	69 85 64 ff ff
	ff 5c 04 00 00	 imul	 eax, DWORD PTR tv303[ebp], 1116
  006a3	8b 8d 60 ff ff
	ff		 mov	 ecx, DWORD PTR tv310[ebp]
  006a9	8b 94 88 00 00
	00 00		 mov	 edx, DWORD PTR ?fn_get_local_entity_int_value@@3PAY0BBH@P6GHPAUENTITY@@W4INT_TYPES@@@ZA[eax+ecx*4]
  006b0	ff d2		 call	 edx
  006b2	85 c0		 test	 eax, eax
  006b4	74 12		 je	 SHORT $LN26@create_art

; 2840 : 				{
; 2841 : 					target_count ++;

  006b6	8b 45 c0	 mov	 eax, DWORD PTR _target_count$[ebp]
  006b9	83 c0 01	 add	 eax, 1
  006bc	89 45 c0	 mov	 DWORD PTR _target_count$[ebp], eax

; 2842 : 
; 2843 : 					target_group_count ++;

  006bf	8b 45 bc	 mov	 eax, DWORD PTR _target_group_count$[ebp]
  006c2	83 c0 01	 add	 eax, 1
  006c5	89 45 bc	 mov	 DWORD PTR _target_group_count$[ebp], eax
$LN26@create_art:

; 2844 : 				}
; 2845 : 	
; 2846 : 				target = get_local_entity_child_succ (target, LIST_TYPE_GROUND_REGISTRY);

  006c8	83 7d f0 00	 cmp	 DWORD PTR _target$[ebp], 0
  006cc	74 0d		 je	 SHORT $LN90@create_art
  006ce	8b 45 f0	 mov	 eax, DWORD PTR _target$[ebp]
  006d1	8b 08		 mov	 ecx, DWORD PTR [eax]
  006d3	89 8d 64 ff ff
	ff		 mov	 DWORD PTR tv325[ebp], ecx
  006d9	eb 24		 jmp	 SHORT $LN91@create_art
$LN90@create_art:
  006db	8b 15 00 00 00
	00		 mov	 edx, DWORD PTR ?__LINE__Var@?0??create_artillery_strike_tasks@@YGXXZ@4JA
  006e1	83 c2 6b	 add	 edx, 107		; 0000006bH
  006e4	52		 push	 edx
  006e5	68 00 00 00 00	 push	 OFFSET ??_C@_0ED@GMECMFKH@c?3?2users?2nhv90?2projects?2eech?2ap@
  006ea	a1 00 00 00 00	 mov	 eax, DWORD PTR ?null_entity_pointer_message@@3PBDB ; null_entity_pointer_message
  006ef	50		 push	 eax
  006f0	e8 00 00 00 00	 call	 ?process_assert@@YGXPBD0H@Z ; process_assert
  006f5	c7 85 64 ff ff
	ff 00 00 00 00	 mov	 DWORD PTR tv325[ebp], 0
$LN91@create_art:
  006ff	b9 01 00 00 00	 mov	 ecx, 1
  00704	85 c9		 test	 ecx, ecx
  00706	74 0c		 je	 SHORT $LN92@create_art
  00708	c7 85 60 ff ff
	ff 0f 00 00 00	 mov	 DWORD PTR tv333[ebp], 15 ; 0000000fH
  00712	eb 24		 jmp	 SHORT $LN93@create_art
$LN92@create_art:
  00714	8b 15 00 00 00
	00		 mov	 edx, DWORD PTR ?__LINE__Var@?0??create_artillery_strike_tasks@@YGXXZ@4JA
  0071a	83 c2 6b	 add	 edx, 107		; 0000006bH
  0071d	52		 push	 edx
  0071e	68 00 00 00 00	 push	 OFFSET ??_C@_0ED@GMECMFKH@c?3?2users?2nhv90?2projects?2eech?2ap@
  00723	a1 00 00 00 00	 mov	 eax, DWORD PTR ?overload_invalid_list_type_message@@3PBDB ; overload_invalid_list_type_message
  00728	50		 push	 eax
  00729	e8 00 00 00 00	 call	 ?process_assert@@YGXPBD0H@Z ; process_assert
  0072e	c7 85 60 ff ff
	ff 00 00 00 00	 mov	 DWORD PTR tv333[ebp], 0
$LN93@create_art:
  00738	6a 0f		 push	 15			; 0000000fH
  0073a	8b 4d f0	 mov	 ecx, DWORD PTR _target$[ebp]
  0073d	51		 push	 ecx
  0073e	69 95 64 ff ff
	ff b4 00 00 00	 imul	 edx, DWORD PTR tv325[ebp], 180
  00748	8b 85 60 ff ff
	ff		 mov	 eax, DWORD PTR tv333[ebp]
  0074e	8b 8c 82 00 00
	00 00		 mov	 ecx, DWORD PTR ?fn_get_local_entity_child_succ@@3PAY0CN@P6GPAUENTITY@@PAU1@W4LIST_TYPES@@@ZA[edx+eax*4]
  00755	ff d1		 call	 ecx
  00757	89 45 f0	 mov	 DWORD PTR _target$[ebp], eax

; 2847 : 			}

  0075a	e9 c2 fe ff ff	 jmp	 $LN8@create_art
$LN9@create_art:

; 2848 : 
; 2849 : 			// keysites...
; 2850 : 			target_keysite_count = 0;

  0075f	c7 45 b8 00 00
	00 00		 mov	 DWORD PTR _target_keysite_count$[ebp], 0

; 2851 : 
; 2852 : 			target = get_local_entity_first_child (target_force, LIST_TYPE_KEYSITE_FORCE);

  00766	83 7d dc 00	 cmp	 DWORD PTR _target_force$[ebp], 0
  0076a	74 0d		 je	 SHORT $LN94@create_art
  0076c	8b 45 dc	 mov	 eax, DWORD PTR _target_force$[ebp]
  0076f	8b 08		 mov	 ecx, DWORD PTR [eax]
  00771	89 8d 64 ff ff
	ff		 mov	 DWORD PTR tv345[ebp], ecx
  00777	eb 24		 jmp	 SHORT $LN95@create_art
$LN94@create_art:
  00779	8b 15 00 00 00
	00		 mov	 edx, DWORD PTR ?__LINE__Var@?0??create_artillery_strike_tasks@@YGXXZ@4JA
  0077f	83 c2 71	 add	 edx, 113		; 00000071H
  00782	52		 push	 edx
  00783	68 00 00 00 00	 push	 OFFSET ??_C@_0ED@GMECMFKH@c?3?2users?2nhv90?2projects?2eech?2ap@
  00788	a1 00 00 00 00	 mov	 eax, DWORD PTR ?null_entity_pointer_message@@3PBDB ; null_entity_pointer_message
  0078d	50		 push	 eax
  0078e	e8 00 00 00 00	 call	 ?process_assert@@YGXPBD0H@Z ; process_assert
  00793	c7 85 64 ff ff
	ff 00 00 00 00	 mov	 DWORD PTR tv345[ebp], 0
$LN95@create_art:
  0079d	b9 01 00 00 00	 mov	 ecx, 1
  007a2	85 c9		 test	 ecx, ecx
  007a4	74 0c		 je	 SHORT $LN96@create_art
  007a6	c7 85 60 ff ff
	ff 15 00 00 00	 mov	 DWORD PTR tv353[ebp], 21 ; 00000015H
  007b0	eb 24		 jmp	 SHORT $LN97@create_art
$LN96@create_art:
  007b2	8b 15 00 00 00
	00		 mov	 edx, DWORD PTR ?__LINE__Var@?0??create_artillery_strike_tasks@@YGXXZ@4JA
  007b8	83 c2 71	 add	 edx, 113		; 00000071H
  007bb	52		 push	 edx
  007bc	68 00 00 00 00	 push	 OFFSET ??_C@_0ED@GMECMFKH@c?3?2users?2nhv90?2projects?2eech?2ap@
  007c1	a1 00 00 00 00	 mov	 eax, DWORD PTR ?overload_invalid_list_type_message@@3PBDB ; overload_invalid_list_type_message
  007c6	50		 push	 eax
  007c7	e8 00 00 00 00	 call	 ?process_assert@@YGXPBD0H@Z ; process_assert
  007cc	c7 85 60 ff ff
	ff 00 00 00 00	 mov	 DWORD PTR tv353[ebp], 0
$LN97@create_art:
  007d6	6a 15		 push	 21			; 00000015H
  007d8	8b 4d dc	 mov	 ecx, DWORD PTR _target_force$[ebp]
  007db	51		 push	 ecx
  007dc	69 95 64 ff ff
	ff b4 00 00 00	 imul	 edx, DWORD PTR tv345[ebp], 180
  007e6	8b 85 60 ff ff
	ff		 mov	 eax, DWORD PTR tv353[ebp]
  007ec	8b 8c 82 00 00
	00 00		 mov	 ecx, DWORD PTR ?fn_get_local_entity_first_child@@3PAY0CN@P6GPAUENTITY@@PAU1@W4LIST_TYPES@@@ZA[edx+eax*4]
  007f3	ff d1		 call	 ecx
  007f5	89 45 f0	 mov	 DWORD PTR _target$[ebp], eax
$LN10@create_art:

; 2853 : 	
; 2854 : 			while (target)

  007f8	83 7d f0 00	 cmp	 DWORD PTR _target$[ebp], 0
  007fc	0f 84 71 02 00
	00		 je	 $LN11@create_art

; 2855 : 			{
; 2856 : 				target_sub_type = get_local_entity_int_value (target, INT_TYPE_ENTITY_SUB_TYPE);

  00802	83 7d f0 00	 cmp	 DWORD PTR _target$[ebp], 0
  00806	74 0d		 je	 SHORT $LN98@create_art
  00808	8b 45 f0	 mov	 eax, DWORD PTR _target$[ebp]
  0080b	8b 08		 mov	 ecx, DWORD PTR [eax]
  0080d	89 8d 64 ff ff
	ff		 mov	 DWORD PTR tv366[ebp], ecx
  00813	eb 24		 jmp	 SHORT $LN99@create_art
$LN98@create_art:
  00815	8b 15 00 00 00
	00		 mov	 edx, DWORD PTR ?__LINE__Var@?0??create_artillery_strike_tasks@@YGXXZ@4JA
  0081b	83 c2 75	 add	 edx, 117		; 00000075H
  0081e	52		 push	 edx
  0081f	68 00 00 00 00	 push	 OFFSET ??_C@_0ED@GMECMFKH@c?3?2users?2nhv90?2projects?2eech?2ap@
  00824	a1 00 00 00 00	 mov	 eax, DWORD PTR ?null_entity_pointer_message@@3PBDB ; null_entity_pointer_message
  00829	50		 push	 eax
  0082a	e8 00 00 00 00	 call	 ?process_assert@@YGXPBD0H@Z ; process_assert
  0082f	c7 85 64 ff ff
	ff 00 00 00 00	 mov	 DWORD PTR tv366[ebp], 0
$LN99@create_art:
  00839	b9 01 00 00 00	 mov	 ecx, 1
  0083e	85 c9		 test	 ecx, ecx
  00840	74 0c		 je	 SHORT $LN100@create_art
  00842	c7 85 60 ff ff
	ff 34 00 00 00	 mov	 DWORD PTR tv374[ebp], 52 ; 00000034H
  0084c	eb 24		 jmp	 SHORT $LN101@create_art
$LN100@create_art:
  0084e	8b 15 00 00 00
	00		 mov	 edx, DWORD PTR ?__LINE__Var@?0??create_artillery_strike_tasks@@YGXXZ@4JA
  00854	83 c2 75	 add	 edx, 117		; 00000075H
  00857	52		 push	 edx
  00858	68 00 00 00 00	 push	 OFFSET ??_C@_0ED@GMECMFKH@c?3?2users?2nhv90?2projects?2eech?2ap@
  0085d	a1 00 00 00 00	 mov	 eax, DWORD PTR ?overload_invalid_int_type_message@@3PBDB ; overload_invalid_int_type_message
  00862	50		 push	 eax
  00863	e8 00 00 00 00	 call	 ?process_assert@@YGXPBD0H@Z ; process_assert
  00868	c7 85 60 ff ff
	ff 00 00 00 00	 mov	 DWORD PTR tv374[ebp], 0
$LN101@create_art:
  00872	6a 34		 push	 52			; 00000034H
  00874	8b 4d f0	 mov	 ecx, DWORD PTR _target$[ebp]
  00877	51		 push	 ecx
  00878	69 95 64 ff ff
	ff 5c 04 00 00	 imul	 edx, DWORD PTR tv366[ebp], 1116
  00882	8b 85 60 ff ff
	ff		 mov	 eax, DWORD PTR tv374[ebp]
  00888	8b 8c 82 00 00
	00 00		 mov	 ecx, DWORD PTR ?fn_get_local_entity_int_value@@3PAY0BBH@P6GHPAUENTITY@@W4INT_TYPES@@@ZA[edx+eax*4]
  0088f	ff d1		 call	 ecx
  00891	89 45 c4	 mov	 DWORD PTR _target_sub_type$[ebp], eax

; 2857 : 
; 2858 : 				if (keysite_database [target_sub_type].ground_strike_target)

  00894	6b 45 c4 44	 imul	 eax, DWORD PTR _target_sub_type$[ebp], 68
  00898	8b 88 40 00 00
	00		 mov	 ecx, DWORD PTR ?keysite_database@@3PAUKEYSITE_DATA@@A[eax+64]
  0089e	c1 e9 0a	 shr	 ecx, 10			; 0000000aH
  008a1	83 e1 01	 and	 ecx, 1
  008a4	0f 84 2c 01 00
	00		 je	 $LN28@create_art

; 2859 : 				{
; 2860 : 					if ((get_local_entity_int_value (target, INT_TYPE_IN_USE)) && (get_local_entity_int_value (target, INT_TYPE_ALIVE)))

  008aa	83 7d f0 00	 cmp	 DWORD PTR _target$[ebp], 0
  008ae	74 0d		 je	 SHORT $LN102@create_art
  008b0	8b 45 f0	 mov	 eax, DWORD PTR _target$[ebp]
  008b3	8b 08		 mov	 ecx, DWORD PTR [eax]
  008b5	89 8d 64 ff ff
	ff		 mov	 DWORD PTR tv391[ebp], ecx
  008bb	eb 20		 jmp	 SHORT $LN103@create_art
$LN102@create_art:
  008bd	68 2c 0b 00 00	 push	 2860			; 00000b2cH
  008c2	68 00 00 00 00	 push	 OFFSET ??_C@_0ED@GMECMFKH@c?3?2users?2nhv90?2projects?2eech?2ap@
  008c7	8b 15 00 00 00
	00		 mov	 edx, DWORD PTR ?null_entity_pointer_message@@3PBDB ; null_entity_pointer_message
  008cd	52		 push	 edx
  008ce	e8 00 00 00 00	 call	 ?process_assert@@YGXPBD0H@Z ; process_assert
  008d3	c7 85 64 ff ff
	ff 00 00 00 00	 mov	 DWORD PTR tv391[ebp], 0
$LN103@create_art:
  008dd	b8 01 00 00 00	 mov	 eax, 1
  008e2	85 c0		 test	 eax, eax
  008e4	74 0c		 je	 SHORT $LN104@create_art
  008e6	c7 85 60 ff ff
	ff 6d 00 00 00	 mov	 DWORD PTR tv398[ebp], 109 ; 0000006dH
  008f0	eb 20		 jmp	 SHORT $LN105@create_art
$LN104@create_art:
  008f2	68 2c 0b 00 00	 push	 2860			; 00000b2cH
  008f7	68 00 00 00 00	 push	 OFFSET ??_C@_0ED@GMECMFKH@c?3?2users?2nhv90?2projects?2eech?2ap@
  008fc	8b 0d 00 00 00
	00		 mov	 ecx, DWORD PTR ?overload_invalid_int_type_message@@3PBDB ; overload_invalid_int_type_message
  00902	51		 push	 ecx
  00903	e8 00 00 00 00	 call	 ?process_assert@@YGXPBD0H@Z ; process_assert
  00908	c7 85 60 ff ff
	ff 00 00 00 00	 mov	 DWORD PTR tv398[ebp], 0
$LN105@create_art:
  00912	6a 6d		 push	 109			; 0000006dH
  00914	8b 55 f0	 mov	 edx, DWORD PTR _target$[ebp]
  00917	52		 push	 edx
  00918	69 85 64 ff ff
	ff 5c 04 00 00	 imul	 eax, DWORD PTR tv391[ebp], 1116
  00922	8b 8d 60 ff ff
	ff		 mov	 ecx, DWORD PTR tv398[ebp]
  00928	8b 94 88 00 00
	00 00		 mov	 edx, DWORD PTR ?fn_get_local_entity_int_value@@3PAY0BBH@P6GHPAUENTITY@@W4INT_TYPES@@@ZA[eax+ecx*4]
  0092f	ff d2		 call	 edx
  00931	85 c0		 test	 eax, eax
  00933	0f 84 9d 00 00
	00		 je	 $LN28@create_art
  00939	83 7d f0 00	 cmp	 DWORD PTR _target$[ebp], 0
  0093d	74 0d		 je	 SHORT $LN106@create_art
  0093f	8b 45 f0	 mov	 eax, DWORD PTR _target$[ebp]
  00942	8b 08		 mov	 ecx, DWORD PTR [eax]
  00944	89 8d 64 ff ff
	ff		 mov	 DWORD PTR tv410[ebp], ecx
  0094a	eb 20		 jmp	 SHORT $LN107@create_art
$LN106@create_art:
  0094c	68 2c 0b 00 00	 push	 2860			; 00000b2cH
  00951	68 00 00 00 00	 push	 OFFSET ??_C@_0ED@GMECMFKH@c?3?2users?2nhv90?2projects?2eech?2ap@
  00956	8b 15 00 00 00
	00		 mov	 edx, DWORD PTR ?null_entity_pointer_message@@3PBDB ; null_entity_pointer_message
  0095c	52		 push	 edx
  0095d	e8 00 00 00 00	 call	 ?process_assert@@YGXPBD0H@Z ; process_assert
  00962	c7 85 64 ff ff
	ff 00 00 00 00	 mov	 DWORD PTR tv410[ebp], 0
$LN107@create_art:
  0096c	b8 01 00 00 00	 mov	 eax, 1
  00971	85 c0		 test	 eax, eax
  00973	74 0c		 je	 SHORT $LN108@create_art
  00975	c7 85 60 ff ff
	ff 07 00 00 00	 mov	 DWORD PTR tv417[ebp], 7
  0097f	eb 20		 jmp	 SHORT $LN109@create_art
$LN108@create_art:
  00981	68 2c 0b 00 00	 push	 2860			; 00000b2cH
  00986	68 00 00 00 00	 push	 OFFSET ??_C@_0ED@GMECMFKH@c?3?2users?2nhv90?2projects?2eech?2ap@
  0098b	8b 0d 00 00 00
	00		 mov	 ecx, DWORD PTR ?overload_invalid_int_type_message@@3PBDB ; overload_invalid_int_type_message
  00991	51		 push	 ecx
  00992	e8 00 00 00 00	 call	 ?process_assert@@YGXPBD0H@Z ; process_assert
  00997	c7 85 60 ff ff
	ff 00 00 00 00	 mov	 DWORD PTR tv417[ebp], 0
$LN109@create_art:
  009a1	6a 07		 push	 7
  009a3	8b 55 f0	 mov	 edx, DWORD PTR _target$[ebp]
  009a6	52		 push	 edx
  009a7	69 85 64 ff ff
	ff 5c 04 00 00	 imul	 eax, DWORD PTR tv410[ebp], 1116
  009b1	8b 8d 60 ff ff
	ff		 mov	 ecx, DWORD PTR tv417[ebp]
  009b7	8b 94 88 00 00
	00 00		 mov	 edx, DWORD PTR ?fn_get_local_entity_int_value@@3PAY0BBH@P6GHPAUENTITY@@W4INT_TYPES@@@ZA[eax+ecx*4]
  009be	ff d2		 call	 edx
  009c0	85 c0		 test	 eax, eax
  009c2	74 12		 je	 SHORT $LN28@create_art

; 2861 : 					{
; 2862 : 						target_count ++;

  009c4	8b 45 c0	 mov	 eax, DWORD PTR _target_count$[ebp]
  009c7	83 c0 01	 add	 eax, 1
  009ca	89 45 c0	 mov	 DWORD PTR _target_count$[ebp], eax

; 2863 : 	
; 2864 : 						target_keysite_count ++;

  009cd	8b 45 b8	 mov	 eax, DWORD PTR _target_keysite_count$[ebp]
  009d0	83 c0 01	 add	 eax, 1
  009d3	89 45 b8	 mov	 DWORD PTR _target_keysite_count$[ebp], eax
$LN28@create_art:

; 2865 : 					}
; 2866 : 				}
; 2867 : 
; 2868 : 				target = get_local_entity_child_succ (target, LIST_TYPE_KEYSITE_FORCE);

  009d6	83 7d f0 00	 cmp	 DWORD PTR _target$[ebp], 0
  009da	74 0d		 je	 SHORT $LN110@create_art
  009dc	8b 45 f0	 mov	 eax, DWORD PTR _target$[ebp]
  009df	8b 08		 mov	 ecx, DWORD PTR [eax]
  009e1	89 8d 64 ff ff
	ff		 mov	 DWORD PTR tv432[ebp], ecx
  009e7	eb 27		 jmp	 SHORT $LN111@create_art
$LN110@create_art:
  009e9	8b 15 00 00 00
	00		 mov	 edx, DWORD PTR ?__LINE__Var@?0??create_artillery_strike_tasks@@YGXXZ@4JA
  009ef	81 c2 81 00 00
	00		 add	 edx, 129		; 00000081H
  009f5	52		 push	 edx
  009f6	68 00 00 00 00	 push	 OFFSET ??_C@_0ED@GMECMFKH@c?3?2users?2nhv90?2projects?2eech?2ap@
  009fb	a1 00 00 00 00	 mov	 eax, DWORD PTR ?null_entity_pointer_message@@3PBDB ; null_entity_pointer_message
  00a00	50		 push	 eax
  00a01	e8 00 00 00 00	 call	 ?process_assert@@YGXPBD0H@Z ; process_assert
  00a06	c7 85 64 ff ff
	ff 00 00 00 00	 mov	 DWORD PTR tv432[ebp], 0
$LN111@create_art:
  00a10	b9 01 00 00 00	 mov	 ecx, 1
  00a15	85 c9		 test	 ecx, ecx
  00a17	74 0c		 je	 SHORT $LN112@create_art
  00a19	c7 85 60 ff ff
	ff 15 00 00 00	 mov	 DWORD PTR tv440[ebp], 21 ; 00000015H
  00a23	eb 27		 jmp	 SHORT $LN113@create_art
$LN112@create_art:
  00a25	8b 15 00 00 00
	00		 mov	 edx, DWORD PTR ?__LINE__Var@?0??create_artillery_strike_tasks@@YGXXZ@4JA
  00a2b	81 c2 81 00 00
	00		 add	 edx, 129		; 00000081H
  00a31	52		 push	 edx
  00a32	68 00 00 00 00	 push	 OFFSET ??_C@_0ED@GMECMFKH@c?3?2users?2nhv90?2projects?2eech?2ap@
  00a37	a1 00 00 00 00	 mov	 eax, DWORD PTR ?overload_invalid_list_type_message@@3PBDB ; overload_invalid_list_type_message
  00a3c	50		 push	 eax
  00a3d	e8 00 00 00 00	 call	 ?process_assert@@YGXPBD0H@Z ; process_assert
  00a42	c7 85 60 ff ff
	ff 00 00 00 00	 mov	 DWORD PTR tv440[ebp], 0
$LN113@create_art:
  00a4c	6a 15		 push	 21			; 00000015H
  00a4e	8b 4d f0	 mov	 ecx, DWORD PTR _target$[ebp]
  00a51	51		 push	 ecx
  00a52	69 95 64 ff ff
	ff b4 00 00 00	 imul	 edx, DWORD PTR tv432[ebp], 180
  00a5c	8b 85 60 ff ff
	ff		 mov	 eax, DWORD PTR tv440[ebp]
  00a62	8b 8c 82 00 00
	00 00		 mov	 ecx, DWORD PTR ?fn_get_local_entity_child_succ@@3PAY0CN@P6GPAUENTITY@@PAU1@W4LIST_TYPES@@@ZA[edx+eax*4]
  00a69	ff d1		 call	 ecx
  00a6b	89 45 f0	 mov	 DWORD PTR _target$[ebp], eax

; 2869 : 			}

  00a6e	e9 85 fd ff ff	 jmp	 $LN10@create_art
$LN11@create_art:

; 2870 : 
; 2871 : 			//
; 2872 : 			// Store targets in list
; 2873 : 			//
; 2874 : 	
; 2875 : 			if (target_count > 0)

  00a73	83 7d c0 00	 cmp	 DWORD PTR _target_count$[ebp], 0
  00a77	0f 8e 33 0b 00
	00		 jle	 $LN29@create_art

; 2876 : 			{
; 2877 : 				target_list = (entity**)malloc_fast_mem (sizeof (entity *) * target_count);

  00a7d	8b 45 c0	 mov	 eax, DWORD PTR _target_count$[ebp]
  00a80	c1 e0 02	 shl	 eax, 2
  00a83	50		 push	 eax
  00a84	e8 00 00 00 00	 call	 ?malloc_fast_memory@@YGPAXI@Z ; malloc_fast_memory
  00a89	89 45 e8	 mov	 DWORD PTR _target_list$[ebp], eax

; 2878 : 	
; 2879 : 				target_count = 0;

  00a8c	c7 45 c0 00 00
	00 00		 mov	 DWORD PTR _target_count$[ebp], 0

; 2880 : 		
; 2881 : 				if (target_group_count > 0)

  00a93	83 7d bc 00	 cmp	 DWORD PTR _target_group_count$[ebp], 0
  00a97	0f 8e df 01 00
	00		 jle	 $LN13@create_art

; 2882 : 				{
; 2883 : 					target = get_local_entity_first_child (target_force, LIST_TYPE_GROUND_REGISTRY);

  00a9d	83 7d dc 00	 cmp	 DWORD PTR _target_force$[ebp], 0
  00aa1	74 0d		 je	 SHORT $LN114@create_art
  00aa3	8b 45 dc	 mov	 eax, DWORD PTR _target_force$[ebp]
  00aa6	8b 08		 mov	 ecx, DWORD PTR [eax]
  00aa8	89 8d 64 ff ff
	ff		 mov	 DWORD PTR tv457[ebp], ecx
  00aae	eb 27		 jmp	 SHORT $LN115@create_art
$LN114@create_art:
  00ab0	8b 15 00 00 00
	00		 mov	 edx, DWORD PTR ?__LINE__Var@?0??create_artillery_strike_tasks@@YGXXZ@4JA
  00ab6	81 c2 90 00 00
	00		 add	 edx, 144		; 00000090H
  00abc	52		 push	 edx
  00abd	68 00 00 00 00	 push	 OFFSET ??_C@_0ED@GMECMFKH@c?3?2users?2nhv90?2projects?2eech?2ap@
  00ac2	a1 00 00 00 00	 mov	 eax, DWORD PTR ?null_entity_pointer_message@@3PBDB ; null_entity_pointer_message
  00ac7	50		 push	 eax
  00ac8	e8 00 00 00 00	 call	 ?process_assert@@YGXPBD0H@Z ; process_assert
  00acd	c7 85 64 ff ff
	ff 00 00 00 00	 mov	 DWORD PTR tv457[ebp], 0
$LN115@create_art:
  00ad7	b9 01 00 00 00	 mov	 ecx, 1
  00adc	85 c9		 test	 ecx, ecx
  00ade	74 0c		 je	 SHORT $LN116@create_art
  00ae0	c7 85 60 ff ff
	ff 0f 00 00 00	 mov	 DWORD PTR tv465[ebp], 15 ; 0000000fH
  00aea	eb 27		 jmp	 SHORT $LN117@create_art
$LN116@create_art:
  00aec	8b 15 00 00 00
	00		 mov	 edx, DWORD PTR ?__LINE__Var@?0??create_artillery_strike_tasks@@YGXXZ@4JA
  00af2	81 c2 90 00 00
	00		 add	 edx, 144		; 00000090H
  00af8	52		 push	 edx
  00af9	68 00 00 00 00	 push	 OFFSET ??_C@_0ED@GMECMFKH@c?3?2users?2nhv90?2projects?2eech?2ap@
  00afe	a1 00 00 00 00	 mov	 eax, DWORD PTR ?overload_invalid_list_type_message@@3PBDB ; overload_invalid_list_type_message
  00b03	50		 push	 eax
  00b04	e8 00 00 00 00	 call	 ?process_assert@@YGXPBD0H@Z ; process_assert
  00b09	c7 85 60 ff ff
	ff 00 00 00 00	 mov	 DWORD PTR tv465[ebp], 0
$LN117@create_art:
  00b13	6a 0f		 push	 15			; 0000000fH
  00b15	8b 4d dc	 mov	 ecx, DWORD PTR _target_force$[ebp]
  00b18	51		 push	 ecx
  00b19	69 95 64 ff ff
	ff b4 00 00 00	 imul	 edx, DWORD PTR tv457[ebp], 180
  00b23	8b 85 60 ff ff
	ff		 mov	 eax, DWORD PTR tv465[ebp]
  00b29	8b 8c 82 00 00
	00 00		 mov	 ecx, DWORD PTR ?fn_get_local_entity_first_child@@3PAY0CN@P6GPAUENTITY@@PAU1@W4LIST_TYPES@@@ZA[edx+eax*4]
  00b30	ff d1		 call	 ecx
  00b32	89 45 f0	 mov	 DWORD PTR _target$[ebp], eax
$LN12@create_art:

; 2884 : 		
; 2885 : 					while (target)

  00b35	83 7d f0 00	 cmp	 DWORD PTR _target$[ebp], 0
  00b39	0f 84 3d 01 00
	00		 je	 $LN13@create_art

; 2886 : 					{
; 2887 : 						if (get_local_entity_int_value (target, INT_TYPE_FRONTLINE) != GROUP_FRONTLINE_FLAG_NONE)

  00b3f	83 7d f0 00	 cmp	 DWORD PTR _target$[ebp], 0
  00b43	74 0d		 je	 SHORT $LN118@create_art
  00b45	8b 45 f0	 mov	 eax, DWORD PTR _target$[ebp]
  00b48	8b 08		 mov	 ecx, DWORD PTR [eax]
  00b4a	89 8d 64 ff ff
	ff		 mov	 DWORD PTR tv477[ebp], ecx
  00b50	eb 20		 jmp	 SHORT $LN119@create_art
$LN118@create_art:
  00b52	68 47 0b 00 00	 push	 2887			; 00000b47H
  00b57	68 00 00 00 00	 push	 OFFSET ??_C@_0ED@GMECMFKH@c?3?2users?2nhv90?2projects?2eech?2ap@
  00b5c	8b 15 00 00 00
	00		 mov	 edx, DWORD PTR ?null_entity_pointer_message@@3PBDB ; null_entity_pointer_message
  00b62	52		 push	 edx
  00b63	e8 00 00 00 00	 call	 ?process_assert@@YGXPBD0H@Z ; process_assert
  00b68	c7 85 64 ff ff
	ff 00 00 00 00	 mov	 DWORD PTR tv477[ebp], 0
$LN119@create_art:
  00b72	b8 01 00 00 00	 mov	 eax, 1
  00b77	85 c0		 test	 eax, eax
  00b79	74 0c		 je	 SHORT $LN120@create_art
  00b7b	c7 85 60 ff ff
	ff 41 00 00 00	 mov	 DWORD PTR tv484[ebp], 65 ; 00000041H
  00b85	eb 20		 jmp	 SHORT $LN121@create_art
$LN120@create_art:
  00b87	68 47 0b 00 00	 push	 2887			; 00000b47H
  00b8c	68 00 00 00 00	 push	 OFFSET ??_C@_0ED@GMECMFKH@c?3?2users?2nhv90?2projects?2eech?2ap@
  00b91	8b 0d 00 00 00
	00		 mov	 ecx, DWORD PTR ?overload_invalid_int_type_message@@3PBDB ; overload_invalid_int_type_message
  00b97	51		 push	 ecx
  00b98	e8 00 00 00 00	 call	 ?process_assert@@YGXPBD0H@Z ; process_assert
  00b9d	c7 85 60 ff ff
	ff 00 00 00 00	 mov	 DWORD PTR tv484[ebp], 0
$LN121@create_art:
  00ba7	6a 41		 push	 65			; 00000041H
  00ba9	8b 55 f0	 mov	 edx, DWORD PTR _target$[ebp]
  00bac	52		 push	 edx
  00bad	69 85 64 ff ff
	ff 5c 04 00 00	 imul	 eax, DWORD PTR tv477[ebp], 1116
  00bb7	8b 8d 60 ff ff
	ff		 mov	 ecx, DWORD PTR tv484[ebp]
  00bbd	8b 94 88 00 00
	00 00		 mov	 edx, DWORD PTR ?fn_get_local_entity_int_value@@3PAY0BBH@P6GHPAUENTITY@@W4INT_TYPES@@@ZA[eax+ecx*4]
  00bc4	ff d2		 call	 edx
  00bc6	85 c0		 test	 eax, eax
  00bc8	74 15		 je	 SHORT $LN31@create_art

; 2888 : 						{
; 2889 : 							target_list [target_count] = target;

  00bca	8b 45 c0	 mov	 eax, DWORD PTR _target_count$[ebp]
  00bcd	8b 4d e8	 mov	 ecx, DWORD PTR _target_list$[ebp]
  00bd0	8b 55 f0	 mov	 edx, DWORD PTR _target$[ebp]
  00bd3	89 14 81	 mov	 DWORD PTR [ecx+eax*4], edx

; 2890 : 	
; 2891 : 							target_count ++;

  00bd6	8b 45 c0	 mov	 eax, DWORD PTR _target_count$[ebp]
  00bd9	83 c0 01	 add	 eax, 1
  00bdc	89 45 c0	 mov	 DWORD PTR _target_count$[ebp], eax
$LN31@create_art:

; 2892 : 						}
; 2893 : 		
; 2894 : 						target = get_local_entity_child_succ (target, LIST_TYPE_GROUND_REGISTRY);

  00bdf	83 7d f0 00	 cmp	 DWORD PTR _target$[ebp], 0
  00be3	74 0d		 je	 SHORT $LN122@create_art
  00be5	8b 45 f0	 mov	 eax, DWORD PTR _target$[ebp]
  00be8	8b 08		 mov	 ecx, DWORD PTR [eax]
  00bea	89 8d 64 ff ff
	ff		 mov	 DWORD PTR tv500[ebp], ecx
  00bf0	eb 27		 jmp	 SHORT $LN123@create_art
$LN122@create_art:
  00bf2	8b 15 00 00 00
	00		 mov	 edx, DWORD PTR ?__LINE__Var@?0??create_artillery_strike_tasks@@YGXXZ@4JA
  00bf8	81 c2 9b 00 00
	00		 add	 edx, 155		; 0000009bH
  00bfe	52		 push	 edx
  00bff	68 00 00 00 00	 push	 OFFSET ??_C@_0ED@GMECMFKH@c?3?2users?2nhv90?2projects?2eech?2ap@
  00c04	a1 00 00 00 00	 mov	 eax, DWORD PTR ?null_entity_pointer_message@@3PBDB ; null_entity_pointer_message
  00c09	50		 push	 eax
  00c0a	e8 00 00 00 00	 call	 ?process_assert@@YGXPBD0H@Z ; process_assert
  00c0f	c7 85 64 ff ff
	ff 00 00 00 00	 mov	 DWORD PTR tv500[ebp], 0
$LN123@create_art:
  00c19	b9 01 00 00 00	 mov	 ecx, 1
  00c1e	85 c9		 test	 ecx, ecx
  00c20	74 0c		 je	 SHORT $LN124@create_art
  00c22	c7 85 60 ff ff
	ff 0f 00 00 00	 mov	 DWORD PTR tv508[ebp], 15 ; 0000000fH
  00c2c	eb 27		 jmp	 SHORT $LN125@create_art
$LN124@create_art:
  00c2e	8b 15 00 00 00
	00		 mov	 edx, DWORD PTR ?__LINE__Var@?0??create_artillery_strike_tasks@@YGXXZ@4JA
  00c34	81 c2 9b 00 00
	00		 add	 edx, 155		; 0000009bH
  00c3a	52		 push	 edx
  00c3b	68 00 00 00 00	 push	 OFFSET ??_C@_0ED@GMECMFKH@c?3?2users?2nhv90?2projects?2eech?2ap@
  00c40	a1 00 00 00 00	 mov	 eax, DWORD PTR ?overload_invalid_list_type_message@@3PBDB ; overload_invalid_list_type_message
  00c45	50		 push	 eax
  00c46	e8 00 00 00 00	 call	 ?process_assert@@YGXPBD0H@Z ; process_assert
  00c4b	c7 85 60 ff ff
	ff 00 00 00 00	 mov	 DWORD PTR tv508[ebp], 0
$LN125@create_art:
  00c55	6a 0f		 push	 15			; 0000000fH
  00c57	8b 4d f0	 mov	 ecx, DWORD PTR _target$[ebp]
  00c5a	51		 push	 ecx
  00c5b	69 95 64 ff ff
	ff b4 00 00 00	 imul	 edx, DWORD PTR tv500[ebp], 180
  00c65	8b 85 60 ff ff
	ff		 mov	 eax, DWORD PTR tv508[ebp]
  00c6b	8b 8c 82 00 00
	00 00		 mov	 ecx, DWORD PTR ?fn_get_local_entity_child_succ@@3PAY0CN@P6GPAUENTITY@@PAU1@W4LIST_TYPES@@@ZA[edx+eax*4]
  00c72	ff d1		 call	 ecx
  00c74	89 45 f0	 mov	 DWORD PTR _target$[ebp], eax

; 2895 : 					}

  00c77	e9 b9 fe ff ff	 jmp	 $LN12@create_art
$LN13@create_art:

; 2896 : 				}
; 2897 : 
; 2898 : 				if (target_keysite_count > 0)

  00c7c	83 7d b8 00	 cmp	 DWORD PTR _target_keysite_count$[ebp], 0
  00c80	0f 8e 80 04 00
	00		 jle	 $LN15@create_art

; 2899 : 				{
; 2900 : 					target = get_local_entity_first_child (target_force, LIST_TYPE_KEYSITE_FORCE);

  00c86	83 7d dc 00	 cmp	 DWORD PTR _target_force$[ebp], 0
  00c8a	74 0d		 je	 SHORT $LN126@create_art
  00c8c	8b 45 dc	 mov	 eax, DWORD PTR _target_force$[ebp]
  00c8f	8b 08		 mov	 ecx, DWORD PTR [eax]
  00c91	89 8d 64 ff ff
	ff		 mov	 DWORD PTR tv521[ebp], ecx
  00c97	eb 27		 jmp	 SHORT $LN127@create_art
$LN126@create_art:
  00c99	8b 15 00 00 00
	00		 mov	 edx, DWORD PTR ?__LINE__Var@?0??create_artillery_strike_tasks@@YGXXZ@4JA
  00c9f	81 c2 a1 00 00
	00		 add	 edx, 161		; 000000a1H
  00ca5	52		 push	 edx
  00ca6	68 00 00 00 00	 push	 OFFSET ??_C@_0ED@GMECMFKH@c?3?2users?2nhv90?2projects?2eech?2ap@
  00cab	a1 00 00 00 00	 mov	 eax, DWORD PTR ?null_entity_pointer_message@@3PBDB ; null_entity_pointer_message
  00cb0	50		 push	 eax
  00cb1	e8 00 00 00 00	 call	 ?process_assert@@YGXPBD0H@Z ; process_assert
  00cb6	c7 85 64 ff ff
	ff 00 00 00 00	 mov	 DWORD PTR tv521[ebp], 0
$LN127@create_art:
  00cc0	b9 01 00 00 00	 mov	 ecx, 1
  00cc5	85 c9		 test	 ecx, ecx
  00cc7	74 0c		 je	 SHORT $LN128@create_art
  00cc9	c7 85 60 ff ff
	ff 15 00 00 00	 mov	 DWORD PTR tv529[ebp], 21 ; 00000015H
  00cd3	eb 27		 jmp	 SHORT $LN129@create_art
$LN128@create_art:
  00cd5	8b 15 00 00 00
	00		 mov	 edx, DWORD PTR ?__LINE__Var@?0??create_artillery_strike_tasks@@YGXXZ@4JA
  00cdb	81 c2 a1 00 00
	00		 add	 edx, 161		; 000000a1H
  00ce1	52		 push	 edx
  00ce2	68 00 00 00 00	 push	 OFFSET ??_C@_0ED@GMECMFKH@c?3?2users?2nhv90?2projects?2eech?2ap@
  00ce7	a1 00 00 00 00	 mov	 eax, DWORD PTR ?overload_invalid_list_type_message@@3PBDB ; overload_invalid_list_type_message
  00cec	50		 push	 eax
  00ced	e8 00 00 00 00	 call	 ?process_assert@@YGXPBD0H@Z ; process_assert
  00cf2	c7 85 60 ff ff
	ff 00 00 00 00	 mov	 DWORD PTR tv529[ebp], 0
$LN129@create_art:
  00cfc	6a 15		 push	 21			; 00000015H
  00cfe	8b 4d dc	 mov	 ecx, DWORD PTR _target_force$[ebp]
  00d01	51		 push	 ecx
  00d02	69 95 64 ff ff
	ff b4 00 00 00	 imul	 edx, DWORD PTR tv521[ebp], 180
  00d0c	8b 85 60 ff ff
	ff		 mov	 eax, DWORD PTR tv529[ebp]
  00d12	8b 8c 82 00 00
	00 00		 mov	 ecx, DWORD PTR ?fn_get_local_entity_first_child@@3PAY0CN@P6GPAUENTITY@@PAU1@W4LIST_TYPES@@@ZA[edx+eax*4]
  00d19	ff d1		 call	 ecx
  00d1b	89 45 f0	 mov	 DWORD PTR _target$[ebp], eax
$LN14@create_art:

; 2901 : 			
; 2902 : 					while (target)

  00d1e	83 7d f0 00	 cmp	 DWORD PTR _target$[ebp], 0
  00d22	0f 84 de 03 00
	00		 je	 $LN15@create_art

; 2903 : 					{
; 2904 : 						target_sub_type = get_local_entity_int_value (target, INT_TYPE_ENTITY_SUB_TYPE);

  00d28	83 7d f0 00	 cmp	 DWORD PTR _target$[ebp], 0
  00d2c	74 0d		 je	 SHORT $LN130@create_art
  00d2e	8b 45 f0	 mov	 eax, DWORD PTR _target$[ebp]
  00d31	8b 08		 mov	 ecx, DWORD PTR [eax]
  00d33	89 8d 64 ff ff
	ff		 mov	 DWORD PTR tv542[ebp], ecx
  00d39	eb 27		 jmp	 SHORT $LN131@create_art
$LN130@create_art:
  00d3b	8b 15 00 00 00
	00		 mov	 edx, DWORD PTR ?__LINE__Var@?0??create_artillery_strike_tasks@@YGXXZ@4JA
  00d41	81 c2 a5 00 00
	00		 add	 edx, 165		; 000000a5H
  00d47	52		 push	 edx
  00d48	68 00 00 00 00	 push	 OFFSET ??_C@_0ED@GMECMFKH@c?3?2users?2nhv90?2projects?2eech?2ap@
  00d4d	a1 00 00 00 00	 mov	 eax, DWORD PTR ?null_entity_pointer_message@@3PBDB ; null_entity_pointer_message
  00d52	50		 push	 eax
  00d53	e8 00 00 00 00	 call	 ?process_assert@@YGXPBD0H@Z ; process_assert
  00d58	c7 85 64 ff ff
	ff 00 00 00 00	 mov	 DWORD PTR tv542[ebp], 0
$LN131@create_art:
  00d62	b9 01 00 00 00	 mov	 ecx, 1
  00d67	85 c9		 test	 ecx, ecx
  00d69	74 0c		 je	 SHORT $LN132@create_art
  00d6b	c7 85 60 ff ff
	ff 34 00 00 00	 mov	 DWORD PTR tv550[ebp], 52 ; 00000034H
  00d75	eb 27		 jmp	 SHORT $LN133@create_art
$LN132@create_art:
  00d77	8b 15 00 00 00
	00		 mov	 edx, DWORD PTR ?__LINE__Var@?0??create_artillery_strike_tasks@@YGXXZ@4JA
  00d7d	81 c2 a5 00 00
	00		 add	 edx, 165		; 000000a5H
  00d83	52		 push	 edx
  00d84	68 00 00 00 00	 push	 OFFSET ??_C@_0ED@GMECMFKH@c?3?2users?2nhv90?2projects?2eech?2ap@
  00d89	a1 00 00 00 00	 mov	 eax, DWORD PTR ?overload_invalid_int_type_message@@3PBDB ; overload_invalid_int_type_message
  00d8e	50		 push	 eax
  00d8f	e8 00 00 00 00	 call	 ?process_assert@@YGXPBD0H@Z ; process_assert
  00d94	c7 85 60 ff ff
	ff 00 00 00 00	 mov	 DWORD PTR tv550[ebp], 0
$LN133@create_art:
  00d9e	6a 34		 push	 52			; 00000034H
  00da0	8b 4d f0	 mov	 ecx, DWORD PTR _target$[ebp]
  00da3	51		 push	 ecx
  00da4	69 95 64 ff ff
	ff 5c 04 00 00	 imul	 edx, DWORD PTR tv542[ebp], 1116
  00dae	8b 85 60 ff ff
	ff		 mov	 eax, DWORD PTR tv550[ebp]
  00db4	8b 8c 82 00 00
	00 00		 mov	 ecx, DWORD PTR ?fn_get_local_entity_int_value@@3PAY0BBH@P6GHPAUENTITY@@W4INT_TYPES@@@ZA[edx+eax*4]
  00dbb	ff d1		 call	 ecx
  00dbd	89 45 c4	 mov	 DWORD PTR _target_sub_type$[ebp], eax

; 2905 : 		
; 2906 : 						if (keysite_database [target_sub_type].ground_strike_target)

  00dc0	6b 45 c4 44	 imul	 eax, DWORD PTR _target_sub_type$[ebp], 68
  00dc4	8b 88 40 00 00
	00		 mov	 ecx, DWORD PTR ?keysite_database@@3PAUKEYSITE_DATA@@A[eax+64]
  00dca	c1 e9 0a	 shr	 ecx, 10			; 0000000aH
  00dcd	83 e1 01	 and	 ecx, 1
  00dd0	0f 84 93 02 00
	00		 je	 $LN36@create_art

; 2907 : 						{
; 2908 : 							if ((get_local_entity_int_value (target, INT_TYPE_IN_USE)) && (get_local_entity_int_value (target, INT_TYPE_ALIVE)))

  00dd6	83 7d f0 00	 cmp	 DWORD PTR _target$[ebp], 0
  00dda	74 0d		 je	 SHORT $LN134@create_art
  00ddc	8b 45 f0	 mov	 eax, DWORD PTR _target$[ebp]
  00ddf	8b 08		 mov	 ecx, DWORD PTR [eax]
  00de1	89 8d 64 ff ff
	ff		 mov	 DWORD PTR tv567[ebp], ecx
  00de7	eb 20		 jmp	 SHORT $LN135@create_art
$LN134@create_art:
  00de9	68 5c 0b 00 00	 push	 2908			; 00000b5cH
  00dee	68 00 00 00 00	 push	 OFFSET ??_C@_0ED@GMECMFKH@c?3?2users?2nhv90?2projects?2eech?2ap@
  00df3	8b 15 00 00 00
	00		 mov	 edx, DWORD PTR ?null_entity_pointer_message@@3PBDB ; null_entity_pointer_message
  00df9	52		 push	 edx
  00dfa	e8 00 00 00 00	 call	 ?process_assert@@YGXPBD0H@Z ; process_assert
  00dff	c7 85 64 ff ff
	ff 00 00 00 00	 mov	 DWORD PTR tv567[ebp], 0
$LN135@create_art:
  00e09	b8 01 00 00 00	 mov	 eax, 1
  00e0e	85 c0		 test	 eax, eax
  00e10	74 0c		 je	 SHORT $LN136@create_art
  00e12	c7 85 60 ff ff
	ff 6d 00 00 00	 mov	 DWORD PTR tv574[ebp], 109 ; 0000006dH
  00e1c	eb 20		 jmp	 SHORT $LN137@create_art
$LN136@create_art:
  00e1e	68 5c 0b 00 00	 push	 2908			; 00000b5cH
  00e23	68 00 00 00 00	 push	 OFFSET ??_C@_0ED@GMECMFKH@c?3?2users?2nhv90?2projects?2eech?2ap@
  00e28	8b 0d 00 00 00
	00		 mov	 ecx, DWORD PTR ?overload_invalid_int_type_message@@3PBDB ; overload_invalid_int_type_message
  00e2e	51		 push	 ecx
  00e2f	e8 00 00 00 00	 call	 ?process_assert@@YGXPBD0H@Z ; process_assert
  00e34	c7 85 60 ff ff
	ff 00 00 00 00	 mov	 DWORD PTR tv574[ebp], 0
$LN137@create_art:
  00e3e	6a 6d		 push	 109			; 0000006dH
  00e40	8b 55 f0	 mov	 edx, DWORD PTR _target$[ebp]
  00e43	52		 push	 edx
  00e44	69 85 64 ff ff
	ff 5c 04 00 00	 imul	 eax, DWORD PTR tv567[ebp], 1116
  00e4e	8b 8d 60 ff ff
	ff		 mov	 ecx, DWORD PTR tv574[ebp]
  00e54	8b 94 88 00 00
	00 00		 mov	 edx, DWORD PTR ?fn_get_local_entity_int_value@@3PAY0BBH@P6GHPAUENTITY@@W4INT_TYPES@@@ZA[eax+ecx*4]
  00e5b	ff d2		 call	 edx
  00e5d	85 c0		 test	 eax, eax
  00e5f	0f 84 04 02 00
	00		 je	 $LN36@create_art
  00e65	83 7d f0 00	 cmp	 DWORD PTR _target$[ebp], 0
  00e69	74 0d		 je	 SHORT $LN138@create_art
  00e6b	8b 45 f0	 mov	 eax, DWORD PTR _target$[ebp]
  00e6e	8b 08		 mov	 ecx, DWORD PTR [eax]
  00e70	89 8d 64 ff ff
	ff		 mov	 DWORD PTR tv586[ebp], ecx
  00e76	eb 20		 jmp	 SHORT $LN139@create_art
$LN138@create_art:
  00e78	68 5c 0b 00 00	 push	 2908			; 00000b5cH
  00e7d	68 00 00 00 00	 push	 OFFSET ??_C@_0ED@GMECMFKH@c?3?2users?2nhv90?2projects?2eech?2ap@
  00e82	8b 15 00 00 00
	00		 mov	 edx, DWORD PTR ?null_entity_pointer_message@@3PBDB ; null_entity_pointer_message
  00e88	52		 push	 edx
  00e89	e8 00 00 00 00	 call	 ?process_assert@@YGXPBD0H@Z ; process_assert
  00e8e	c7 85 64 ff ff
	ff 00 00 00 00	 mov	 DWORD PTR tv586[ebp], 0
$LN139@create_art:
  00e98	b8 01 00 00 00	 mov	 eax, 1
  00e9d	85 c0		 test	 eax, eax
  00e9f	74 0c		 je	 SHORT $LN140@create_art
  00ea1	c7 85 60 ff ff
	ff 07 00 00 00	 mov	 DWORD PTR tv593[ebp], 7
  00eab	eb 20		 jmp	 SHORT $LN141@create_art
$LN140@create_art:
  00ead	68 5c 0b 00 00	 push	 2908			; 00000b5cH
  00eb2	68 00 00 00 00	 push	 OFFSET ??_C@_0ED@GMECMFKH@c?3?2users?2nhv90?2projects?2eech?2ap@
  00eb7	8b 0d 00 00 00
	00		 mov	 ecx, DWORD PTR ?overload_invalid_int_type_message@@3PBDB ; overload_invalid_int_type_message
  00ebd	51		 push	 ecx
  00ebe	e8 00 00 00 00	 call	 ?process_assert@@YGXPBD0H@Z ; process_assert
  00ec3	c7 85 60 ff ff
	ff 00 00 00 00	 mov	 DWORD PTR tv593[ebp], 0
$LN141@create_art:
  00ecd	6a 07		 push	 7
  00ecf	8b 55 f0	 mov	 edx, DWORD PTR _target$[ebp]
  00ed2	52		 push	 edx
  00ed3	69 85 64 ff ff
	ff 5c 04 00 00	 imul	 eax, DWORD PTR tv586[ebp], 1116
  00edd	8b 8d 60 ff ff
	ff		 mov	 ecx, DWORD PTR tv593[ebp]
  00ee3	8b 94 88 00 00
	00 00		 mov	 edx, DWORD PTR ?fn_get_local_entity_int_value@@3PAY0BBH@P6GHPAUENTITY@@W4INT_TYPES@@@ZA[eax+ecx*4]
  00eea	ff d2		 call	 edx
  00eec	85 c0		 test	 eax, eax
  00eee	0f 84 75 01 00
	00		 je	 $LN36@create_art

; 2909 : 							{
; 2910 : 								if (get_local_entity_float_value (target, FLOAT_TYPE_EFFICIENCY) >= get_local_entity_float_value (target, FLOAT_TYPE_MINIMUM_EFFICIENCY))

  00ef4	83 7d f0 00	 cmp	 DWORD PTR _target$[ebp], 0
  00ef8	74 0d		 je	 SHORT $LN142@create_art
  00efa	8b 45 f0	 mov	 eax, DWORD PTR _target$[ebp]
  00efd	8b 08		 mov	 ecx, DWORD PTR [eax]
  00eff	89 8d 64 ff ff
	ff		 mov	 DWORD PTR tv605[ebp], ecx
  00f05	eb 20		 jmp	 SHORT $LN143@create_art
$LN142@create_art:
  00f07	68 5e 0b 00 00	 push	 2910			; 00000b5eH
  00f0c	68 00 00 00 00	 push	 OFFSET ??_C@_0ED@GMECMFKH@c?3?2users?2nhv90?2projects?2eech?2ap@
  00f11	8b 15 00 00 00
	00		 mov	 edx, DWORD PTR ?null_entity_pointer_message@@3PBDB ; null_entity_pointer_message
  00f17	52		 push	 edx
  00f18	e8 00 00 00 00	 call	 ?process_assert@@YGXPBD0H@Z ; process_assert
  00f1d	c7 85 64 ff ff
	ff 00 00 00 00	 mov	 DWORD PTR tv605[ebp], 0
$LN143@create_art:
  00f27	b8 01 00 00 00	 mov	 eax, 1
  00f2c	85 c0		 test	 eax, eax
  00f2e	74 0c		 je	 SHORT $LN144@create_art
  00f30	c7 85 60 ff ff
	ff 21 00 00 00	 mov	 DWORD PTR tv612[ebp], 33 ; 00000021H
  00f3a	eb 20		 jmp	 SHORT $LN145@create_art
$LN144@create_art:
  00f3c	68 5e 0b 00 00	 push	 2910			; 00000b5eH
  00f41	68 00 00 00 00	 push	 OFFSET ??_C@_0ED@GMECMFKH@c?3?2users?2nhv90?2projects?2eech?2ap@
  00f46	8b 0d 00 00 00
	00		 mov	 ecx, DWORD PTR ?overload_invalid_float_type_message@@3PBDB ; overload_invalid_float_type_message
  00f4c	51		 push	 ecx
  00f4d	e8 00 00 00 00	 call	 ?process_assert@@YGXPBD0H@Z ; process_assert
  00f52	c7 85 60 ff ff
	ff 00 00 00 00	 mov	 DWORD PTR tv612[ebp], 0
$LN145@create_art:
  00f5c	83 7d f0 00	 cmp	 DWORD PTR _target$[ebp], 0
  00f60	74 0d		 je	 SHORT $LN146@create_art
  00f62	8b 55 f0	 mov	 edx, DWORD PTR _target$[ebp]
  00f65	8b 02		 mov	 eax, DWORD PTR [edx]
  00f67	89 85 5c ff ff
	ff		 mov	 DWORD PTR tv623[ebp], eax
  00f6d	eb 20		 jmp	 SHORT $LN147@create_art
$LN146@create_art:
  00f6f	68 5e 0b 00 00	 push	 2910			; 00000b5eH
  00f74	68 00 00 00 00	 push	 OFFSET ??_C@_0ED@GMECMFKH@c?3?2users?2nhv90?2projects?2eech?2ap@
  00f79	8b 0d 00 00 00
	00		 mov	 ecx, DWORD PTR ?null_entity_pointer_message@@3PBDB ; null_entity_pointer_message
  00f7f	51		 push	 ecx
  00f80	e8 00 00 00 00	 call	 ?process_assert@@YGXPBD0H@Z ; process_assert
  00f85	c7 85 5c ff ff
	ff 00 00 00 00	 mov	 DWORD PTR tv623[ebp], 0
$LN147@create_art:
  00f8f	ba 01 00 00 00	 mov	 edx, 1
  00f94	85 d2		 test	 edx, edx
  00f96	74 0c		 je	 SHORT $LN148@create_art
  00f98	c7 85 58 ff ff
	ff 51 00 00 00	 mov	 DWORD PTR tv630[ebp], 81 ; 00000051H
  00fa2	eb 1f		 jmp	 SHORT $LN149@create_art
$LN148@create_art:
  00fa4	68 5e 0b 00 00	 push	 2910			; 00000b5eH
  00fa9	68 00 00 00 00	 push	 OFFSET ??_C@_0ED@GMECMFKH@c?3?2users?2nhv90?2projects?2eech?2ap@
  00fae	a1 00 00 00 00	 mov	 eax, DWORD PTR ?overload_invalid_float_type_message@@3PBDB ; overload_invalid_float_type_message
  00fb3	50		 push	 eax
  00fb4	e8 00 00 00 00	 call	 ?process_assert@@YGXPBD0H@Z ; process_assert
  00fb9	c7 85 58 ff ff
	ff 00 00 00 00	 mov	 DWORD PTR tv630[ebp], 0
$LN149@create_art:
  00fc3	6a 21		 push	 33			; 00000021H
  00fc5	8b 4d f0	 mov	 ecx, DWORD PTR _target$[ebp]
  00fc8	51		 push	 ecx
  00fc9	69 95 64 ff ff
	ff bc 02 00 00	 imul	 edx, DWORD PTR tv605[ebp], 700
  00fd3	8b 85 60 ff ff
	ff		 mov	 eax, DWORD PTR tv612[ebp]
  00fd9	8b 8c 82 00 00
	00 00		 mov	 ecx, DWORD PTR ?fn_get_local_entity_float_value@@3PAY0KP@P6GMPAUENTITY@@W4FLOAT_TYPES@@@ZA[edx+eax*4]
  00fe0	ff d1		 call	 ecx
  00fe2	d9 9d 54 ff ff
	ff		 fstp	 DWORD PTR tv1123[ebp]
  00fe8	f3 0f 10 85 54
	ff ff ff	 movss	 xmm0, DWORD PTR tv1123[ebp]
  00ff0	6a 51		 push	 81			; 00000051H
  00ff2	8b 55 f0	 mov	 edx, DWORD PTR _target$[ebp]
  00ff5	52		 push	 edx
  00ff6	69 85 5c ff ff
	ff bc 02 00 00	 imul	 eax, DWORD PTR tv623[ebp], 700
  01000	8b 8d 58 ff ff
	ff		 mov	 ecx, DWORD PTR tv630[ebp]
  01006	8b 94 88 00 00
	00 00		 mov	 edx, DWORD PTR ?fn_get_local_entity_float_value@@3PAY0KP@P6GMPAUENTITY@@W4FLOAT_TYPES@@@ZA[eax+ecx*4]
  0100d	f3 0f 11 85 50
	ff ff ff	 movss	 DWORD PTR tv1266[ebp], xmm0
  01015	ff d2		 call	 edx
  01017	d9 9d 4c ff ff
	ff		 fstp	 DWORD PTR tv1130[ebp]
  0101d	f3 0f 10 85 50
	ff ff ff	 movss	 xmm0, DWORD PTR tv1266[ebp]
  01025	0f 2f 85 4c ff
	ff ff		 comiss	 xmm0, DWORD PTR tv1130[ebp]
  0102c	72 3b		 jb	 SHORT $LN36@create_art

; 2911 : 								{
; 2912 : 									if (
; 2913 : 											(!entity_is_object_of_task (target, ENTITY_SUB_TYPE_TASK_GROUND_STRIKE, side)) &&

  0102e	8b 45 fc	 mov	 eax, DWORD PTR _side$[ebp]
  01031	50		 push	 eax
  01032	6a 0c		 push	 12			; 0000000cH
  01034	8b 4d f0	 mov	 ecx, DWORD PTR _target$[ebp]
  01037	51		 push	 ecx
  01038	e8 00 00 00 00	 call	 ?entity_is_object_of_task@@YGHPAUENTITY@@HW4ENTITY_SIDES@@@Z ; entity_is_object_of_task
  0103d	85 c0		 test	 eax, eax
  0103f	75 28		 jne	 SHORT $LN36@create_art
  01041	8b 45 fc	 mov	 eax, DWORD PTR _side$[ebp]
  01044	50		 push	 eax
  01045	6a 1a		 push	 26			; 0000001aH
  01047	8b 4d f0	 mov	 ecx, DWORD PTR _target$[ebp]
  0104a	51		 push	 ecx
  0104b	e8 00 00 00 00	 call	 ?entity_is_object_of_task@@YGHPAUENTITY@@HW4ENTITY_SIDES@@@Z ; entity_is_object_of_task
  01050	85 c0		 test	 eax, eax
  01052	75 15		 jne	 SHORT $LN36@create_art

; 2914 : 											(!entity_is_object_of_task (target, ENTITY_SUB_TYPE_TASK_TROOP_INSERTION, side))
; 2915 : 										)
; 2916 : 									{
; 2917 : 										target_list [target_count] = target;

  01054	8b 45 c0	 mov	 eax, DWORD PTR _target_count$[ebp]
  01057	8b 4d e8	 mov	 ecx, DWORD PTR _target_list$[ebp]
  0105a	8b 55 f0	 mov	 edx, DWORD PTR _target$[ebp]
  0105d	89 14 81	 mov	 DWORD PTR [ecx+eax*4], edx

; 2918 : 	
; 2919 : 										target_count ++;

  01060	8b 45 c0	 mov	 eax, DWORD PTR _target_count$[ebp]
  01063	83 c0 01	 add	 eax, 1
  01066	89 45 c0	 mov	 DWORD PTR _target_count$[ebp], eax
$LN36@create_art:

; 2920 : 									}
; 2921 : 								}
; 2922 : 							}
; 2923 : 						}
; 2924 : 		
; 2925 : 						target = get_local_entity_child_succ (target, LIST_TYPE_KEYSITE_FORCE);

  01069	83 7d f0 00	 cmp	 DWORD PTR _target$[ebp], 0
  0106d	74 0d		 je	 SHORT $LN150@create_art
  0106f	8b 45 f0	 mov	 eax, DWORD PTR _target$[ebp]
  01072	8b 08		 mov	 ecx, DWORD PTR [eax]
  01074	89 8d 64 ff ff
	ff		 mov	 DWORD PTR tv656[ebp], ecx
  0107a	eb 27		 jmp	 SHORT $LN151@create_art
$LN150@create_art:
  0107c	8b 15 00 00 00
	00		 mov	 edx, DWORD PTR ?__LINE__Var@?0??create_artillery_strike_tasks@@YGXXZ@4JA
  01082	81 c2 ba 00 00
	00		 add	 edx, 186		; 000000baH
  01088	52		 push	 edx
  01089	68 00 00 00 00	 push	 OFFSET ??_C@_0ED@GMECMFKH@c?3?2users?2nhv90?2projects?2eech?2ap@
  0108e	a1 00 00 00 00	 mov	 eax, DWORD PTR ?null_entity_pointer_message@@3PBDB ; null_entity_pointer_message
  01093	50		 push	 eax
  01094	e8 00 00 00 00	 call	 ?process_assert@@YGXPBD0H@Z ; process_assert
  01099	c7 85 64 ff ff
	ff 00 00 00 00	 mov	 DWORD PTR tv656[ebp], 0
$LN151@create_art:
  010a3	b9 01 00 00 00	 mov	 ecx, 1
  010a8	85 c9		 test	 ecx, ecx
  010aa	74 0c		 je	 SHORT $LN152@create_art
  010ac	c7 85 60 ff ff
	ff 15 00 00 00	 mov	 DWORD PTR tv664[ebp], 21 ; 00000015H
  010b6	eb 27		 jmp	 SHORT $LN153@create_art
$LN152@create_art:
  010b8	8b 15 00 00 00
	00		 mov	 edx, DWORD PTR ?__LINE__Var@?0??create_artillery_strike_tasks@@YGXXZ@4JA
  010be	81 c2 ba 00 00
	00		 add	 edx, 186		; 000000baH
  010c4	52		 push	 edx
  010c5	68 00 00 00 00	 push	 OFFSET ??_C@_0ED@GMECMFKH@c?3?2users?2nhv90?2projects?2eech?2ap@
  010ca	a1 00 00 00 00	 mov	 eax, DWORD PTR ?overload_invalid_list_type_message@@3PBDB ; overload_invalid_list_type_message
  010cf	50		 push	 eax
  010d0	e8 00 00 00 00	 call	 ?process_assert@@YGXPBD0H@Z ; process_assert
  010d5	c7 85 60 ff ff
	ff 00 00 00 00	 mov	 DWORD PTR tv664[ebp], 0
$LN153@create_art:
  010df	6a 15		 push	 21			; 00000015H
  010e1	8b 4d f0	 mov	 ecx, DWORD PTR _target$[ebp]
  010e4	51		 push	 ecx
  010e5	69 95 64 ff ff
	ff b4 00 00 00	 imul	 edx, DWORD PTR tv656[ebp], 180
  010ef	8b 85 60 ff ff
	ff		 mov	 eax, DWORD PTR tv664[ebp]
  010f5	8b 8c 82 00 00
	00 00		 mov	 ecx, DWORD PTR ?fn_get_local_entity_child_succ@@3PAY0CN@P6GPAUENTITY@@PAU1@W4LIST_TYPES@@@ZA[edx+eax*4]
  010fc	ff d1		 call	 ecx
  010fe	89 45 f0	 mov	 DWORD PTR _target$[ebp], eax

; 2926 : 					}

  01101	e9 18 fc ff ff	 jmp	 $LN14@create_art
$LN15@create_art:

; 2927 : 				}
; 2928 : 
; 2929 : 				//
; 2930 : 				// Assign targets to groups
; 2931 : 				// 
; 2932 : 
; 2933 : 				assigned_count = 0;

  01106	c7 45 cc 00 00
	00 00		 mov	 DWORD PTR _assigned_count$[ebp], 0

; 2934 : 				
; 2935 : 				for (group_index = 0; group_index < group_count; group_index ++)

  0110d	c7 45 b4 00 00
	00 00		 mov	 DWORD PTR _group_index$[ebp], 0
  01114	eb 09		 jmp	 SHORT $LN18@create_art
$LN16@create_art:
  01116	8b 45 b4	 mov	 eax, DWORD PTR _group_index$[ebp]
  01119	83 c0 01	 add	 eax, 1
  0111c	89 45 b4	 mov	 DWORD PTR _group_index$[ebp], eax
$LN18@create_art:
  0111f	8b 45 b4	 mov	 eax, DWORD PTR _group_index$[ebp]
  01122	3b 45 c8	 cmp	 eax, DWORD PTR _group_count$[ebp]
  01125	0f 8d 7c 04 00
	00		 jge	 $LN17@create_art

; 2936 : 				{
; 2937 : 					group = group_list [group_index];

  0112b	8b 45 b4	 mov	 eax, DWORD PTR _group_index$[ebp]
  0112e	8b 4d ec	 mov	 ecx, DWORD PTR _group_list$[ebp]
  01131	8b 14 81	 mov	 edx, DWORD PTR [ecx+eax*4]
  01134	89 55 f4	 mov	 DWORD PTR _group$[ebp], edx

; 2938 : 					
; 2939 : 					max_range = get_local_group_max_weapon_range (group);

  01137	8b 45 f4	 mov	 eax, DWORD PTR _group$[ebp]
  0113a	50		 push	 eax
  0113b	e8 00 00 00 00	 call	 ?get_local_group_max_weapon_range@@YGMPAUENTITY@@@Z ; get_local_group_max_weapon_range
  01140	d9 5d a8	 fstp	 DWORD PTR _max_range$[ebp]

; 2940 : 	
; 2941 : 					if (max_range > 0.0)

  01143	f3 0f 5a 45 a8	 cvtss2sd xmm0, DWORD PTR _max_range$[ebp]
  01148	66 0f 2f 05 00
	00 00 00	 comisd	 xmm0, QWORD PTR __real@0000000000000000
  01150	0f 86 3c 04 00
	00		 jbe	 $LN20@create_art

; 2942 : 					{
; 2943 : 						max_range *= max_range;

  01156	f3 0f 10 45 a8	 movss	 xmm0, DWORD PTR _max_range$[ebp]
  0115b	f3 0f 59 45 a8	 mulss	 xmm0, DWORD PTR _max_range$[ebp]
  01160	f3 0f 11 45 a8	 movss	 DWORD PTR _max_range$[ebp], xmm0

; 2944 : 
; 2945 : 						pos = get_local_entity_vec3d_ptr (group, VEC3D_TYPE_POSITION);

  01165	83 7d f4 00	 cmp	 DWORD PTR _group$[ebp], 0
  01169	74 0d		 je	 SHORT $LN154@create_art
  0116b	8b 45 f4	 mov	 eax, DWORD PTR _group$[ebp]
  0116e	8b 08		 mov	 ecx, DWORD PTR [eax]
  01170	89 8d 64 ff ff
	ff		 mov	 DWORD PTR tv685[ebp], ecx
  01176	eb 27		 jmp	 SHORT $LN155@create_art
$LN154@create_art:
  01178	8b 15 00 00 00
	00		 mov	 edx, DWORD PTR ?__LINE__Var@?0??create_artillery_strike_tasks@@YGXXZ@4JA
  0117e	81 c2 ce 00 00
	00		 add	 edx, 206		; 000000ceH
  01184	52		 push	 edx
  01185	68 00 00 00 00	 push	 OFFSET ??_C@_0ED@GMECMFKH@c?3?2users?2nhv90?2projects?2eech?2ap@
  0118a	a1 00 00 00 00	 mov	 eax, DWORD PTR ?null_entity_pointer_message@@3PBDB ; null_entity_pointer_message
  0118f	50		 push	 eax
  01190	e8 00 00 00 00	 call	 ?process_assert@@YGXPBD0H@Z ; process_assert
  01195	c7 85 64 ff ff
	ff 00 00 00 00	 mov	 DWORD PTR tv685[ebp], 0
$LN155@create_art:
  0119f	b9 01 00 00 00	 mov	 ecx, 1
  011a4	85 c9		 test	 ecx, ecx
  011a6	74 0c		 je	 SHORT $LN156@create_art
  011a8	c7 85 60 ff ff
	ff 08 00 00 00	 mov	 DWORD PTR tv693[ebp], 8
  011b2	eb 27		 jmp	 SHORT $LN157@create_art
$LN156@create_art:
  011b4	8b 15 00 00 00
	00		 mov	 edx, DWORD PTR ?__LINE__Var@?0??create_artillery_strike_tasks@@YGXXZ@4JA
  011ba	81 c2 ce 00 00
	00		 add	 edx, 206		; 000000ceH
  011c0	52		 push	 edx
  011c1	68 00 00 00 00	 push	 OFFSET ??_C@_0ED@GMECMFKH@c?3?2users?2nhv90?2projects?2eech?2ap@
  011c6	a1 00 00 00 00	 mov	 eax, DWORD PTR ?overload_invalid_vec3d_type_message@@3PBDB ; overload_invalid_vec3d_type_message
  011cb	50		 push	 eax
  011cc	e8 00 00 00 00	 call	 ?process_assert@@YGXPBD0H@Z ; process_assert
  011d1	c7 85 60 ff ff
	ff 00 00 00 00	 mov	 DWORD PTR tv693[ebp], 0
$LN157@create_art:
  011db	6a 08		 push	 8
  011dd	8b 4d f4	 mov	 ecx, DWORD PTR _group$[ebp]
  011e0	51		 push	 ecx
  011e1	6b 95 64 ff ff
	ff 60		 imul	 edx, DWORD PTR tv685[ebp], 96
  011e8	8b 85 60 ff ff
	ff		 mov	 eax, DWORD PTR tv693[ebp]
  011ee	8b 8c 82 00 00
	00 00		 mov	 ecx, DWORD PTR ?fn_get_local_entity_vec3d_ptr@@3PAY0BI@P6GPAUVEC3D@@PAUENTITY@@W4VEC3D_TYPES@@@ZA[edx+eax*4]
  011f5	ff d1		 call	 ecx
  011f7	89 45 d8	 mov	 DWORD PTR _pos$[ebp], eax

; 2946 : 
; 2947 : 						for (target_index = 0; target_index < target_count; target_index ++)

  011fa	c7 45 b0 00 00
	00 00		 mov	 DWORD PTR _target_index$[ebp], 0
  01201	eb 09		 jmp	 SHORT $LN21@create_art
$LN19@create_art:
  01203	8b 45 b0	 mov	 eax, DWORD PTR _target_index$[ebp]
  01206	83 c0 01	 add	 eax, 1
  01209	89 45 b0	 mov	 DWORD PTR _target_index$[ebp], eax
$LN21@create_art:
  0120c	8b 45 b0	 mov	 eax, DWORD PTR _target_index$[ebp]
  0120f	3b 45 c0	 cmp	 eax, DWORD PTR _target_count$[ebp]
  01212	0f 8d 7a 03 00
	00		 jge	 $LN20@create_art

; 2948 : 						{
; 2949 : 							target = target_list [target_index];

  01218	8b 45 b0	 mov	 eax, DWORD PTR _target_index$[ebp]
  0121b	8b 4d e8	 mov	 ecx, DWORD PTR _target_list$[ebp]
  0121e	8b 14 81	 mov	 edx, DWORD PTR [ecx+eax*4]
  01221	89 55 f0	 mov	 DWORD PTR _target$[ebp], edx

; 2950 : 
; 2951 : 							if (target)

  01224	83 7d f0 00	 cmp	 DWORD PTR _target$[ebp], 0
  01228	0f 84 5f 03 00
	00		 je	 $LN44@create_art

; 2952 : 							{
; 2953 : 								target_pos = get_local_entity_vec3d_ptr (target, VEC3D_TYPE_POSITION);

  0122e	83 7d f0 00	 cmp	 DWORD PTR _target$[ebp], 0
  01232	74 0d		 je	 SHORT $LN158@create_art
  01234	8b 45 f0	 mov	 eax, DWORD PTR _target$[ebp]
  01237	8b 08		 mov	 ecx, DWORD PTR [eax]
  01239	89 8d 64 ff ff
	ff		 mov	 DWORD PTR tv710[ebp], ecx
  0123f	eb 27		 jmp	 SHORT $LN159@create_art
$LN158@create_art:
  01241	8b 15 00 00 00
	00		 mov	 edx, DWORD PTR ?__LINE__Var@?0??create_artillery_strike_tasks@@YGXXZ@4JA
  01247	81 c2 d6 00 00
	00		 add	 edx, 214		; 000000d6H
  0124d	52		 push	 edx
  0124e	68 00 00 00 00	 push	 OFFSET ??_C@_0ED@GMECMFKH@c?3?2users?2nhv90?2projects?2eech?2ap@
  01253	a1 00 00 00 00	 mov	 eax, DWORD PTR ?null_entity_pointer_message@@3PBDB ; null_entity_pointer_message
  01258	50		 push	 eax
  01259	e8 00 00 00 00	 call	 ?process_assert@@YGXPBD0H@Z ; process_assert
  0125e	c7 85 64 ff ff
	ff 00 00 00 00	 mov	 DWORD PTR tv710[ebp], 0
$LN159@create_art:
  01268	b9 01 00 00 00	 mov	 ecx, 1
  0126d	85 c9		 test	 ecx, ecx
  0126f	74 0c		 je	 SHORT $LN160@create_art
  01271	c7 85 60 ff ff
	ff 08 00 00 00	 mov	 DWORD PTR tv718[ebp], 8
  0127b	eb 27		 jmp	 SHORT $LN161@create_art
$LN160@create_art:
  0127d	8b 15 00 00 00
	00		 mov	 edx, DWORD PTR ?__LINE__Var@?0??create_artillery_strike_tasks@@YGXXZ@4JA
  01283	81 c2 d6 00 00
	00		 add	 edx, 214		; 000000d6H
  01289	52		 push	 edx
  0128a	68 00 00 00 00	 push	 OFFSET ??_C@_0ED@GMECMFKH@c?3?2users?2nhv90?2projects?2eech?2ap@
  0128f	a1 00 00 00 00	 mov	 eax, DWORD PTR ?overload_invalid_vec3d_type_message@@3PBDB ; overload_invalid_vec3d_type_message
  01294	50		 push	 eax
  01295	e8 00 00 00 00	 call	 ?process_assert@@YGXPBD0H@Z ; process_assert
  0129a	c7 85 60 ff ff
	ff 00 00 00 00	 mov	 DWORD PTR tv718[ebp], 0
$LN161@create_art:
  012a4	6a 08		 push	 8
  012a6	8b 4d f0	 mov	 ecx, DWORD PTR _target$[ebp]
  012a9	51		 push	 ecx
  012aa	6b 95 64 ff ff
	ff 60		 imul	 edx, DWORD PTR tv710[ebp], 96
  012b1	8b 85 60 ff ff
	ff		 mov	 eax, DWORD PTR tv718[ebp]
  012b7	8b 8c 82 00 00
	00 00		 mov	 ecx, DWORD PTR ?fn_get_local_entity_vec3d_ptr@@3PAY0BI@P6GPAUVEC3D@@PAUENTITY@@W4VEC3D_TYPES@@@ZA[edx+eax*4]
  012be	ff d1		 call	 ecx
  012c0	89 45 d4	 mov	 DWORD PTR _target_pos$[ebp], eax

; 2954 : 			
; 2955 : 								range = get_sqr_2d_range (pos, target_pos);

  012c3	8b 45 d4	 mov	 eax, DWORD PTR _target_pos$[ebp]
  012c6	50		 push	 eax
  012c7	8b 4d d8	 mov	 ecx, DWORD PTR _pos$[ebp]
  012ca	51		 push	 ecx
  012cb	e8 00 00 00 00	 call	 ?get_sqr_2d_range@@YGMPBUVEC3D@@0@Z ; get_sqr_2d_range
  012d0	d9 5d ac	 fstp	 DWORD PTR _range$[ebp]

; 2956 : 
; 2957 : 								if (range < max_range)

  012d3	f3 0f 10 45 a8	 movss	 xmm0, DWORD PTR _max_range$[ebp]
  012d8	0f 2f 45 ac	 comiss	 xmm0, DWORD PTR _range$[ebp]
  012dc	0f 86 ab 02 00
	00		 jbe	 $LN44@create_art

; 2958 : 								{
; 2959 : 									sector = get_local_sector_entity (target_pos);

  012e2	8b 45 d4	 mov	 eax, DWORD PTR _target_pos$[ebp]
  012e5	50		 push	 eax
  012e6	e8 00 00 00 00	 call	 ?get_local_sector_entity@@YGPAUENTITY@@PAUVEC3D@@@Z ; get_local_sector_entity
  012eb	89 45 e4	 mov	 DWORD PTR _sector$[ebp], eax

; 2960 : 
; 2961 : 									if (get_sector_fog_of_war_value (sector, side) > (0.25 * get_local_entity_float_value (get_session_entity (), FLOAT_TYPE_FOG_OF_WAR_MAXIMUM_VALUE)))

  012ee	83 3d 00 00 00
	00 00		 cmp	 DWORD PTR ?session_entity@@3PAUENTITY@@A, 0 ; session_entity
  012f5	74 0f		 je	 SHORT $LN162@create_art
  012f7	a1 00 00 00 00	 mov	 eax, DWORD PTR ?session_entity@@3PAUENTITY@@A ; session_entity
  012fc	8b 08		 mov	 ecx, DWORD PTR [eax]
  012fe	89 8d 64 ff ff
	ff		 mov	 DWORD PTR tv739[ebp], ecx
  01304	eb 20		 jmp	 SHORT $LN163@create_art
$LN162@create_art:
  01306	68 91 0b 00 00	 push	 2961			; 00000b91H
  0130b	68 00 00 00 00	 push	 OFFSET ??_C@_0ED@GMECMFKH@c?3?2users?2nhv90?2projects?2eech?2ap@
  01310	8b 15 00 00 00
	00		 mov	 edx, DWORD PTR ?null_entity_pointer_message@@3PBDB ; null_entity_pointer_message
  01316	52		 push	 edx
  01317	e8 00 00 00 00	 call	 ?process_assert@@YGXPBD0H@Z ; process_assert
  0131c	c7 85 64 ff ff
	ff 00 00 00 00	 mov	 DWORD PTR tv739[ebp], 0
$LN163@create_art:
  01326	b8 01 00 00 00	 mov	 eax, 1
  0132b	85 c0		 test	 eax, eax
  0132d	74 0c		 je	 SHORT $LN164@create_art
  0132f	c7 85 60 ff ff
	ff 2c 00 00 00	 mov	 DWORD PTR tv746[ebp], 44 ; 0000002cH
  01339	eb 20		 jmp	 SHORT $LN165@create_art
$LN164@create_art:
  0133b	68 91 0b 00 00	 push	 2961			; 00000b91H
  01340	68 00 00 00 00	 push	 OFFSET ??_C@_0ED@GMECMFKH@c?3?2users?2nhv90?2projects?2eech?2ap@
  01345	8b 0d 00 00 00
	00		 mov	 ecx, DWORD PTR ?overload_invalid_float_type_message@@3PBDB ; overload_invalid_float_type_message
  0134b	51		 push	 ecx
  0134c	e8 00 00 00 00	 call	 ?process_assert@@YGXPBD0H@Z ; process_assert
  01351	c7 85 60 ff ff
	ff 00 00 00 00	 mov	 DWORD PTR tv746[ebp], 0
$LN165@create_art:
  0135b	8b 55 fc	 mov	 edx, DWORD PTR _side$[ebp]
  0135e	52		 push	 edx
  0135f	8b 45 e4	 mov	 eax, DWORD PTR _sector$[ebp]
  01362	50		 push	 eax
  01363	e8 00 00 00 00	 call	 ?get_sector_fog_of_war_value@@YGMPAUENTITY@@W4ENTITY_SIDES@@@Z ; get_sector_fog_of_war_value
  01368	dd 9d 58 ff ff
	ff		 fstp	 QWORD PTR tv1206[ebp]
  0136e	f2 0f 10 85 58
	ff ff ff	 movsd	 xmm0, QWORD PTR tv1206[ebp]
  01376	6a 2c		 push	 44			; 0000002cH
  01378	8b 0d 00 00 00
	00		 mov	 ecx, DWORD PTR ?session_entity@@3PAUENTITY@@A ; session_entity
  0137e	51		 push	 ecx
  0137f	69 95 64 ff ff
	ff bc 02 00 00	 imul	 edx, DWORD PTR tv739[ebp], 700
  01389	8b 85 60 ff ff
	ff		 mov	 eax, DWORD PTR tv746[ebp]
  0138f	8b 8c 82 00 00
	00 00		 mov	 ecx, DWORD PTR ?fn_get_local_entity_float_value@@3PAY0KP@P6GMPAUENTITY@@W4FLOAT_TYPES@@@ZA[edx+eax*4]
  01396	f2 0f 11 85 50
	ff ff ff	 movsd	 QWORD PTR tv1268[ebp], xmm0
  0139e	ff d1		 call	 ecx
  013a0	dd 9d 48 ff ff
	ff		 fstp	 QWORD PTR tv1214[ebp]
  013a6	f2 0f 10 85 48
	ff ff ff	 movsd	 xmm0, QWORD PTR tv1214[ebp]
  013ae	f2 0f 59 05 00
	00 00 00	 mulsd	 xmm0, QWORD PTR __real@3fd0000000000000
  013b6	f2 0f 10 8d 50
	ff ff ff	 movsd	 xmm1, QWORD PTR tv1268[ebp]
  013be	66 0f 2f c8	 comisd	 xmm1, xmm0
  013c2	0f 86 c5 01 00
	00		 jbe	 $LN44@create_art

; 2962 : 									{
; 2963 : 										if (get_local_entity_type (target) == ENTITY_TYPE_GROUP)

  013c8	83 7d f0 00	 cmp	 DWORD PTR _target$[ebp], 0
  013cc	74 0d		 je	 SHORT $LN166@create_art
  013ce	8b 45 f0	 mov	 eax, DWORD PTR _target$[ebp]
  013d1	8b 08		 mov	 ecx, DWORD PTR [eax]
  013d3	89 8d 64 ff ff
	ff		 mov	 DWORD PTR tv760[ebp], ecx
  013d9	eb 20		 jmp	 SHORT $LN167@create_art
$LN166@create_art:
  013db	68 93 0b 00 00	 push	 2963			; 00000b93H
  013e0	68 00 00 00 00	 push	 OFFSET ??_C@_0ED@GMECMFKH@c?3?2users?2nhv90?2projects?2eech?2ap@
  013e5	8b 15 00 00 00
	00		 mov	 edx, DWORD PTR ?null_entity_pointer_message@@3PBDB ; null_entity_pointer_message
  013eb	52		 push	 edx
  013ec	e8 00 00 00 00	 call	 ?process_assert@@YGXPBD0H@Z ; process_assert
  013f1	c7 85 64 ff ff
	ff 00 00 00 00	 mov	 DWORD PTR tv760[ebp], 0
$LN167@create_art:
  013fb	83 bd 64 ff ff
	ff 0c		 cmp	 DWORD PTR tv760[ebp], 12 ; 0000000cH
  01402	75 14		 jne	 SHORT $LN41@create_art

; 2964 : 										{
; 2965 : 											result = engage_targets_in_group (group, target, TRUE);

  01404	6a 01		 push	 1
  01406	8b 45 f0	 mov	 eax, DWORD PTR _target$[ebp]
  01409	50		 push	 eax
  0140a	8b 4d f4	 mov	 ecx, DWORD PTR _group$[ebp]
  0140d	51		 push	 ecx
  0140e	e8 00 00 00 00	 call	 ?engage_targets_in_group@@YGHPAUENTITY@@0H@Z ; engage_targets_in_group
  01413	89 45 d0	 mov	 DWORD PTR _result$[ebp], eax

; 2966 : 										}
; 2967 : 										else

  01416	eb 7f		 jmp	 SHORT $LN42@create_art
$LN41@create_art:

; 2968 : 										{
; 2969 : 											ASSERT (get_local_entity_type (target) == ENTITY_TYPE_KEYSITE);

  01418	83 7d f0 00	 cmp	 DWORD PTR _target$[ebp], 0
  0141c	74 0d		 je	 SHORT $LN168@create_art
  0141e	8b 45 f0	 mov	 eax, DWORD PTR _target$[ebp]
  01421	8b 08		 mov	 ecx, DWORD PTR [eax]
  01423	89 8d 64 ff ff
	ff		 mov	 DWORD PTR tv772[ebp], ecx
  01429	eb 27		 jmp	 SHORT $LN169@create_art
$LN168@create_art:
  0142b	8b 15 00 00 00
	00		 mov	 edx, DWORD PTR ?__LINE__Var@?0??create_artillery_strike_tasks@@YGXXZ@4JA
  01431	81 c2 e6 00 00
	00		 add	 edx, 230		; 000000e6H
  01437	52		 push	 edx
  01438	68 00 00 00 00	 push	 OFFSET ??_C@_0ED@GMECMFKH@c?3?2users?2nhv90?2projects?2eech?2ap@
  0143d	a1 00 00 00 00	 mov	 eax, DWORD PTR ?null_entity_pointer_message@@3PBDB ; null_entity_pointer_message
  01442	50		 push	 eax
  01443	e8 00 00 00 00	 call	 ?process_assert@@YGXPBD0H@Z ; process_assert
  01448	c7 85 64 ff ff
	ff 00 00 00 00	 mov	 DWORD PTR tv772[ebp], 0
$LN169@create_art:
  01452	83 bd 64 ff ff
	ff 0f		 cmp	 DWORD PTR tv772[ebp], 15 ; 0000000fH
  01459	74 1a		 je	 SHORT $LN43@create_art
  0145b	a1 00 00 00 00	 mov	 eax, DWORD PTR ?__LINE__Var@?0??create_artillery_strike_tasks@@YGXXZ@4JA
  01460	05 e6 00 00 00	 add	 eax, 230		; 000000e6H
  01465	50		 push	 eax
  01466	68 00 00 00 00	 push	 OFFSET ??_C@_0ED@GMECMFKH@c?3?2users?2nhv90?2projects?2eech?2ap@
  0146b	68 00 00 00 00	 push	 OFFSET ??_C@_0DG@MKPLALAD@get_local_entity_type?5?$CItarget?$CJ?5@
  01470	e8 00 00 00 00	 call	 ?process_assert@@YGXPBD0H@Z ; process_assert
$LN43@create_art:

; 2970 : 											
; 2971 : 											result = engage_targets_in_area (group, target_pos, 1.0 * KILOMETRE, TASK_TARGET_TYPE_BUILDING, TRUE);

  01475	6a 01		 push	 1
  01477	6a 08		 push	 8
  01479	51		 push	 ecx
  0147a	f3 0f 10 05 00
	00 00 00	 movss	 xmm0, DWORD PTR __real@447a0000
  01482	f3 0f 11 04 24	 movss	 DWORD PTR [esp], xmm0
  01487	8b 45 d4	 mov	 eax, DWORD PTR _target_pos$[ebp]
  0148a	50		 push	 eax
  0148b	8b 4d f4	 mov	 ecx, DWORD PTR _group$[ebp]
  0148e	51		 push	 ecx
  0148f	e8 00 00 00 00	 call	 ?engage_targets_in_area@@YGHPAUENTITY@@PAUVEC3D@@MIH@Z ; engage_targets_in_area
  01494	89 45 d0	 mov	 DWORD PTR _result$[ebp], eax
$LN42@create_art:

; 2972 : 										}
; 2973 : 
; 2974 : 										if (result)

  01497	83 7d d0 00	 cmp	 DWORD PTR _result$[ebp], 0
  0149b	0f 84 ec 00 00
	00		 je	 $LN44@create_art

; 2975 : 										{
; 2976 : 											assigned_count ++;

  014a1	8b 45 cc	 mov	 eax, DWORD PTR _assigned_count$[ebp]
  014a4	83 c0 01	 add	 eax, 1
  014a7	89 45 cc	 mov	 DWORD PTR _assigned_count$[ebp], eax

; 2977 : 	
; 2978 : 											target_list [target_index] = NULL;

  014aa	8b 45 b0	 mov	 eax, DWORD PTR _target_index$[ebp]
  014ad	8b 4d e8	 mov	 ecx, DWORD PTR _target_list$[ebp]
  014b0	c7 04 81 00 00
	00 00		 mov	 DWORD PTR [ecx+eax*4], 0

; 2979 : 	
; 2980 : 											ai_log ("(ARTILLERY) Group %d Attacking Target %d (%s) - sqr range %f",

  014b7	83 7d f0 00	 cmp	 DWORD PTR _target$[ebp], 0
  014bb	74 0d		 je	 SHORT $LN170@create_art
  014bd	8b 45 f0	 mov	 eax, DWORD PTR _target$[ebp]
  014c0	8b 08		 mov	 ecx, DWORD PTR [eax]
  014c2	89 8d 64 ff ff
	ff		 mov	 DWORD PTR tv796[ebp], ecx
  014c8	eb 27		 jmp	 SHORT $LN171@create_art
$LN170@create_art:
  014ca	8b 15 00 00 00
	00		 mov	 edx, DWORD PTR ?__LINE__Var@?0??create_artillery_strike_tasks@@YGXXZ@4JA
  014d0	81 c2 f4 00 00
	00		 add	 edx, 244		; 000000f4H
  014d6	52		 push	 edx
  014d7	68 00 00 00 00	 push	 OFFSET ??_C@_0ED@GMECMFKH@c?3?2users?2nhv90?2projects?2eech?2ap@
  014dc	a1 00 00 00 00	 mov	 eax, DWORD PTR ?null_entity_pointer_message@@3PBDB ; null_entity_pointer_message
  014e1	50		 push	 eax
  014e2	e8 00 00 00 00	 call	 ?process_assert@@YGXPBD0H@Z ; process_assert
  014e7	c7 85 64 ff ff
	ff 00 00 00 00	 mov	 DWORD PTR tv796[ebp], 0
$LN171@create_art:
  014f1	b9 01 00 00 00	 mov	 ecx, 1
  014f6	85 c9		 test	 ecx, ecx
  014f8	74 0c		 je	 SHORT $LN172@create_art
  014fa	c7 85 60 ff ff
	ff 03 00 00 00	 mov	 DWORD PTR tv804[ebp], 3
  01504	eb 27		 jmp	 SHORT $LN173@create_art
$LN172@create_art:
  01506	8b 15 00 00 00
	00		 mov	 edx, DWORD PTR ?__LINE__Var@?0??create_artillery_strike_tasks@@YGXXZ@4JA
  0150c	81 c2 f4 00 00
	00		 add	 edx, 244		; 000000f4H
  01512	52		 push	 edx
  01513	68 00 00 00 00	 push	 OFFSET ??_C@_0ED@GMECMFKH@c?3?2users?2nhv90?2projects?2eech?2ap@
  01518	a1 00 00 00 00	 mov	 eax, DWORD PTR ?overload_invalid_string_type_message@@3PBDB ; overload_invalid_string_type_message
  0151d	50		 push	 eax
  0151e	e8 00 00 00 00	 call	 ?process_assert@@YGXPBD0H@Z ; process_assert
  01523	c7 85 60 ff ff
	ff 00 00 00 00	 mov	 DWORD PTR tv804[ebp], 0
$LN173@create_art:
  0152d	f3 0f 5a 45 ac	 cvtss2sd xmm0, DWORD PTR _range$[ebp]
  01532	83 ec 08	 sub	 esp, 8
  01535	f2 0f 11 04 24	 movsd	 QWORD PTR [esp], xmm0
  0153a	6a 03		 push	 3
  0153c	8b 4d f0	 mov	 ecx, DWORD PTR _target$[ebp]
  0153f	51		 push	 ecx
  01540	6b 95 64 ff ff
	ff 34		 imul	 edx, DWORD PTR tv796[ebp], 52
  01547	8b 85 60 ff ff
	ff		 mov	 eax, DWORD PTR tv804[ebp]
  0154d	8b 8c 82 00 00
	00 00		 mov	 ecx, DWORD PTR ?fn_get_local_entity_string@@3PAY0N@P6GPBDPAUENTITY@@W4STRING_TYPES@@@ZA[edx+eax*4]
  01554	ff d1		 call	 ecx
  01556	50		 push	 eax
  01557	8b 55 f0	 mov	 edx, DWORD PTR _target$[ebp]
  0155a	2b 15 00 00 00
	00		 sub	 edx, DWORD PTR ?entities@@3PAUENTITY@@A ; entities
  01560	c1 fa 04	 sar	 edx, 4
  01563	52		 push	 edx
  01564	8b 45 f4	 mov	 eax, DWORD PTR _group$[ebp]
  01567	2b 05 00 00 00
	00		 sub	 eax, DWORD PTR ?entities@@3PAUENTITY@@A ; entities
  0156d	c1 f8 04	 sar	 eax, 4
  01570	50		 push	 eax
  01571	68 00 00 00 00	 push	 OFFSET ??_C@_0DN@BNFHDBCO@?$CIARTILLERY?$CJ?5Group?5?$CFd?5Attacking?5@
  01576	e8 00 00 00 00	 call	 ?ai_log@@YAXPBDZZ	; ai_log
  0157b	83 c4 18	 add	 esp, 24			; 00000018H

; 2981 : 															get_local_entity_index (group),
; 2982 : 															get_local_entity_index (target),
; 2983 : 															get_local_entity_string (target, STRING_TYPE_FULL_NAME),
; 2984 : 															range);
; 2985 : 
; 2986 : 											//
; 2987 : 											// Create Reaction
; 2988 : 											//
; 2989 : 	
; 2990 : 											create_reaction_to_artillery_fire (group, target);

  0157e	8b 45 f0	 mov	 eax, DWORD PTR _target$[ebp]
  01581	50		 push	 eax
  01582	8b 4d f4	 mov	 ecx, DWORD PTR _group$[ebp]
  01585	51		 push	 ecx
  01586	e8 00 00 00 00	 call	 ?create_reaction_to_artillery_fire@@YGXPAUENTITY@@0@Z ; create_reaction_to_artillery_fire

; 2991 : 
; 2992 : 											break;

  0158b	eb 05		 jmp	 SHORT $LN20@create_art
$LN44@create_art:

; 2993 : 										}
; 2994 : 									}
; 2995 : 								}
; 2996 : 							}
; 2997 : 						}

  0158d	e9 71 fc ff ff	 jmp	 $LN19@create_art
$LN20@create_art:

; 2998 : 					}
; 2999 : 
; 3000 : 					if ((assigned_count >= MAX_ARTILLERY_STRIKE_COUNT) || (assigned_count >= target_count))

  01592	83 7d cc 05	 cmp	 DWORD PTR _assigned_count$[ebp], 5
  01596	7d 08		 jge	 SHORT $LN46@create_art
  01598	8b 45 cc	 mov	 eax, DWORD PTR _assigned_count$[ebp]
  0159b	3b 45 c0	 cmp	 eax, DWORD PTR _target_count$[ebp]
  0159e	7c 02		 jl	 SHORT $LN45@create_art
$LN46@create_art:

; 3001 : 					{
; 3002 : 						break;

  015a0	eb 05		 jmp	 SHORT $LN17@create_art
$LN45@create_art:

; 3003 : 					}
; 3004 : 				}

  015a2	e9 6f fb ff ff	 jmp	 $LN16@create_art
$LN17@create_art:

; 3005 : 			
; 3006 : 				free_mem (target_list);

  015a7	8b 45 e8	 mov	 eax, DWORD PTR _target_list$[ebp]
  015aa	50		 push	 eax
  015ab	e8 00 00 00 00	 call	 ?free_mem@@YGXPAX@Z	; free_mem
$LN29@create_art:

; 3007 : 			}
; 3008 : 
; 3009 : 			free_mem (group_list);

  015b0	8b 45 ec	 mov	 eax, DWORD PTR _group_list$[ebp]
  015b3	50		 push	 eax
  015b4	e8 00 00 00 00	 call	 ?free_mem@@YGXPAX@Z	; free_mem
$LN24@create_art:

; 3010 : 		}
; 3011 : 
; 3012 : 		//
; 3013 : 		// Next force
; 3014 : 		//
; 3015 : 	
; 3016 : 		force = get_local_entity_child_succ (force, LIST_TYPE_FORCE);

  015b9	83 7d e0 00	 cmp	 DWORD PTR _force$[ebp], 0
  015bd	74 0d		 je	 SHORT $LN174@create_art
  015bf	8b 45 e0	 mov	 eax, DWORD PTR _force$[ebp]
  015c2	8b 08		 mov	 ecx, DWORD PTR [eax]
  015c4	89 8d 64 ff ff
	ff		 mov	 DWORD PTR tv830[ebp], ecx
  015ca	eb 27		 jmp	 SHORT $LN175@create_art
$LN174@create_art:
  015cc	8b 15 00 00 00
	00		 mov	 edx, DWORD PTR ?__LINE__Var@?0??create_artillery_strike_tasks@@YGXXZ@4JA
  015d2	81 c2 15 01 00
	00		 add	 edx, 277		; 00000115H
  015d8	52		 push	 edx
  015d9	68 00 00 00 00	 push	 OFFSET ??_C@_0ED@GMECMFKH@c?3?2users?2nhv90?2projects?2eech?2ap@
  015de	a1 00 00 00 00	 mov	 eax, DWORD PTR ?null_entity_pointer_message@@3PBDB ; null_entity_pointer_message
  015e3	50		 push	 eax
  015e4	e8 00 00 00 00	 call	 ?process_assert@@YGXPBD0H@Z ; process_assert
  015e9	c7 85 64 ff ff
	ff 00 00 00 00	 mov	 DWORD PTR tv830[ebp], 0
$LN175@create_art:
  015f3	b9 01 00 00 00	 mov	 ecx, 1
  015f8	85 c9		 test	 ecx, ecx
  015fa	74 0c		 je	 SHORT $LN176@create_art
  015fc	c7 85 60 ff ff
	ff 0e 00 00 00	 mov	 DWORD PTR tv838[ebp], 14 ; 0000000eH
  01606	eb 27		 jmp	 SHORT $LN177@create_art
$LN176@create_art:
  01608	8b 15 00 00 00
	00		 mov	 edx, DWORD PTR ?__LINE__Var@?0??create_artillery_strike_tasks@@YGXXZ@4JA
  0160e	81 c2 15 01 00
	00		 add	 edx, 277		; 00000115H
  01614	52		 push	 edx
  01615	68 00 00 00 00	 push	 OFFSET ??_C@_0ED@GMECMFKH@c?3?2users?2nhv90?2projects?2eech?2ap@
  0161a	a1 00 00 00 00	 mov	 eax, DWORD PTR ?overload_invalid_list_type_message@@3PBDB ; overload_invalid_list_type_message
  0161f	50		 push	 eax
  01620	e8 00 00 00 00	 call	 ?process_assert@@YGXPBD0H@Z ; process_assert
  01625	c7 85 60 ff ff
	ff 00 00 00 00	 mov	 DWORD PTR tv838[ebp], 0
$LN177@create_art:
  0162f	6a 0e		 push	 14			; 0000000eH
  01631	8b 4d e0	 mov	 ecx, DWORD PTR _force$[ebp]
  01634	51		 push	 ecx
  01635	69 95 64 ff ff
	ff b4 00 00 00	 imul	 edx, DWORD PTR tv830[ebp], 180
  0163f	8b 85 60 ff ff
	ff		 mov	 eax, DWORD PTR tv838[ebp]
  01645	8b 8c 82 00 00
	00 00		 mov	 ecx, DWORD PTR ?fn_get_local_entity_child_succ@@3PAY0CN@P6GPAUENTITY@@PAU1@W4LIST_TYPES@@@ZA[edx+eax*4]
  0164c	ff d1		 call	 ecx
  0164e	89 45 e0	 mov	 DWORD PTR _force$[ebp], eax

; 3017 : 	}

  01651	e9 98 ea ff ff	 jmp	 $LN2@create_art
$LN3@create_art:

; 3018 : }

  01656	5f		 pop	 edi
  01657	5e		 pop	 esi
  01658	5b		 pop	 ebx
  01659	8b e5		 mov	 esp, ebp
  0165b	5d		 pop	 ebp
  0165c	c3		 ret	 0
?create_artillery_strike_tasks@@YGXXZ ENDP		; create_artillery_strike_tasks
_TEXT	ENDS
; Function compile flags: /Odtp /ZI
; File c:\users\nhv90\projects\eech\aphavoc\source\ai\highlevl\highlevl.c
;	COMDAT ?create_troop_patrol_tasks@@YGXXZ
_TEXT	SEGMENT
tv334 = -92						; size = 4
tv314 = -92						; size = 4
tv294 = -92						; size = 4
tv253 = -92						; size = 4
tv234 = -92						; size = 4
tv215 = -92						; size = 4
tv196 = -92						; size = 4
tv170 = -92						; size = 4
tv151 = -92						; size = 4
tv131 = -92						; size = 4
tv78 = -92						; size = 4
tv326 = -88						; size = 4
tv306 = -88						; size = 4
tv286 = -88						; size = 4
tv274 = -88						; size = 4
tv246 = -88						; size = 4
tv227 = -88						; size = 4
tv208 = -88						; size = 4
tv188 = -88						; size = 4
tv163 = -88						; size = 4
tv143 = -88						; size = 4
tv91 = -88						; size = 4
tv70 = -88						; size = 4
_side$ = -20						; size = 4
_force$ = -16						; size = 4
_keysite$ = -12						; size = 4
_group$ = -8						; size = 4
_task$ = -4						; size = 4
?create_troop_patrol_tasks@@YGXXZ PROC			; create_troop_patrol_tasks, COMDAT

; 2660 : {

  00000	55		 push	 ebp
  00001	8b ec		 mov	 ebp, esp
  00003	83 ec 5c	 sub	 esp, 92			; 0000005cH
  00006	53		 push	 ebx
  00007	56		 push	 esi
  00008	57		 push	 edi

; 2661 : 	entity
; 2662 : 		*task,
; 2663 : 		*group,
; 2664 : 		*keysite,
; 2665 : 		*force;
; 2666 : 
; 2667 : 	entity_sides
; 2668 : 		side;
; 2669 : 		
; 2670 : 	force = get_local_entity_first_child (get_session_entity (), LIST_TYPE_FORCE);

  00009	83 3d 00 00 00
	00 00		 cmp	 DWORD PTR ?session_entity@@3PAUENTITY@@A, 0 ; session_entity
  00010	74 0c		 je	 SHORT $LN16@create_tro
  00012	a1 00 00 00 00	 mov	 eax, DWORD PTR ?session_entity@@3PAUENTITY@@A ; session_entity
  00017	8b 08		 mov	 ecx, DWORD PTR [eax]
  00019	89 4d a8	 mov	 DWORD PTR tv70[ebp], ecx
  0001c	eb 21		 jmp	 SHORT $LN17@create_tro
$LN16@create_tro:
  0001e	8b 15 00 00 00
	00		 mov	 edx, DWORD PTR ?__LINE__Var@?0??create_troop_patrol_tasks@@YGXXZ@4JA
  00024	83 c2 0a	 add	 edx, 10			; 0000000aH
  00027	52		 push	 edx
  00028	68 00 00 00 00	 push	 OFFSET ??_C@_0ED@GMECMFKH@c?3?2users?2nhv90?2projects?2eech?2ap@
  0002d	a1 00 00 00 00	 mov	 eax, DWORD PTR ?null_entity_pointer_message@@3PBDB ; null_entity_pointer_message
  00032	50		 push	 eax
  00033	e8 00 00 00 00	 call	 ?process_assert@@YGXPBD0H@Z ; process_assert
  00038	c7 45 a8 00 00
	00 00		 mov	 DWORD PTR tv70[ebp], 0
$LN17@create_tro:
  0003f	b9 01 00 00 00	 mov	 ecx, 1
  00044	85 c9		 test	 ecx, ecx
  00046	74 09		 je	 SHORT $LN18@create_tro
  00048	c7 45 a4 0e 00
	00 00		 mov	 DWORD PTR tv78[ebp], 14	; 0000000eH
  0004f	eb 21		 jmp	 SHORT $LN19@create_tro
$LN18@create_tro:
  00051	8b 15 00 00 00
	00		 mov	 edx, DWORD PTR ?__LINE__Var@?0??create_troop_patrol_tasks@@YGXXZ@4JA
  00057	83 c2 0a	 add	 edx, 10			; 0000000aH
  0005a	52		 push	 edx
  0005b	68 00 00 00 00	 push	 OFFSET ??_C@_0ED@GMECMFKH@c?3?2users?2nhv90?2projects?2eech?2ap@
  00060	a1 00 00 00 00	 mov	 eax, DWORD PTR ?overload_invalid_list_type_message@@3PBDB ; overload_invalid_list_type_message
  00065	50		 push	 eax
  00066	e8 00 00 00 00	 call	 ?process_assert@@YGXPBD0H@Z ; process_assert
  0006b	c7 45 a4 00 00
	00 00		 mov	 DWORD PTR tv78[ebp], 0
$LN19@create_tro:
  00072	6a 0e		 push	 14			; 0000000eH
  00074	8b 0d 00 00 00
	00		 mov	 ecx, DWORD PTR ?session_entity@@3PAUENTITY@@A ; session_entity
  0007a	51		 push	 ecx
  0007b	69 55 a8 b4 00
	00 00		 imul	 edx, DWORD PTR tv70[ebp], 180
  00082	8b 45 a4	 mov	 eax, DWORD PTR tv78[ebp]
  00085	8b 8c 82 00 00
	00 00		 mov	 ecx, DWORD PTR ?fn_get_local_entity_first_child@@3PAY0CN@P6GPAUENTITY@@PAU1@W4LIST_TYPES@@@ZA[edx+eax*4]
  0008c	ff d1		 call	 ecx
  0008e	89 45 f0	 mov	 DWORD PTR _force$[ebp], eax
$LN2@create_tro:

; 2671 : 
; 2672 : 	while (force)

  00091	83 7d f0 00	 cmp	 DWORD PTR _force$[ebp], 0
  00095	0f 84 a2 05 00
	00		 je	 $LN1@create_tro

; 2673 : 	{
; 2674 : 		side = (entity_sides) get_local_entity_int_value (force, INT_TYPE_SIDE);

  0009b	83 7d f0 00	 cmp	 DWORD PTR _force$[ebp], 0
  0009f	74 0a		 je	 SHORT $LN20@create_tro
  000a1	8b 45 f0	 mov	 eax, DWORD PTR _force$[ebp]
  000a4	8b 08		 mov	 ecx, DWORD PTR [eax]
  000a6	89 4d a8	 mov	 DWORD PTR tv91[ebp], ecx
  000a9	eb 21		 jmp	 SHORT $LN21@create_tro
$LN20@create_tro:
  000ab	8b 15 00 00 00
	00		 mov	 edx, DWORD PTR ?__LINE__Var@?0??create_troop_patrol_tasks@@YGXXZ@4JA
  000b1	83 c2 0e	 add	 edx, 14			; 0000000eH
  000b4	52		 push	 edx
  000b5	68 00 00 00 00	 push	 OFFSET ??_C@_0ED@GMECMFKH@c?3?2users?2nhv90?2projects?2eech?2ap@
  000ba	a1 00 00 00 00	 mov	 eax, DWORD PTR ?null_entity_pointer_message@@3PBDB ; null_entity_pointer_message
  000bf	50		 push	 eax
  000c0	e8 00 00 00 00	 call	 ?process_assert@@YGXPBD0H@Z ; process_assert
  000c5	c7 45 a8 00 00
	00 00		 mov	 DWORD PTR tv91[ebp], 0
$LN21@create_tro:
  000cc	b9 01 00 00 00	 mov	 ecx, 1
  000d1	85 c9		 test	 ecx, ecx
  000d3	74 09		 je	 SHORT $LN22@create_tro
  000d5	c7 45 a4 bb 00
	00 00		 mov	 DWORD PTR tv131[ebp], 187 ; 000000bbH
  000dc	eb 21		 jmp	 SHORT $LN23@create_tro
$LN22@create_tro:
  000de	8b 15 00 00 00
	00		 mov	 edx, DWORD PTR ?__LINE__Var@?0??create_troop_patrol_tasks@@YGXXZ@4JA
  000e4	83 c2 0e	 add	 edx, 14			; 0000000eH
  000e7	52		 push	 edx
  000e8	68 00 00 00 00	 push	 OFFSET ??_C@_0ED@GMECMFKH@c?3?2users?2nhv90?2projects?2eech?2ap@
  000ed	a1 00 00 00 00	 mov	 eax, DWORD PTR ?overload_invalid_int_type_message@@3PBDB ; overload_invalid_int_type_message
  000f2	50		 push	 eax
  000f3	e8 00 00 00 00	 call	 ?process_assert@@YGXPBD0H@Z ; process_assert
  000f8	c7 45 a4 00 00
	00 00		 mov	 DWORD PTR tv131[ebp], 0
$LN23@create_tro:
  000ff	68 bb 00 00 00	 push	 187			; 000000bbH
  00104	8b 4d f0	 mov	 ecx, DWORD PTR _force$[ebp]
  00107	51		 push	 ecx
  00108	69 55 a8 5c 04
	00 00		 imul	 edx, DWORD PTR tv91[ebp], 1116
  0010f	8b 45 a4	 mov	 eax, DWORD PTR tv131[ebp]
  00112	8b 8c 82 00 00
	00 00		 mov	 ecx, DWORD PTR ?fn_get_local_entity_int_value@@3PAY0BBH@P6GHPAUENTITY@@W4INT_TYPES@@@ZA[edx+eax*4]
  00119	ff d1		 call	 ecx
  0011b	89 45 ec	 mov	 DWORD PTR _side$[ebp], eax

; 2675 : 			
; 2676 : 		keysite = get_local_entity_first_child (force, LIST_TYPE_KEYSITE_FORCE);

  0011e	83 7d f0 00	 cmp	 DWORD PTR _force$[ebp], 0
  00122	74 0a		 je	 SHORT $LN24@create_tro
  00124	8b 45 f0	 mov	 eax, DWORD PTR _force$[ebp]
  00127	8b 08		 mov	 ecx, DWORD PTR [eax]
  00129	89 4d a8	 mov	 DWORD PTR tv143[ebp], ecx
  0012c	eb 21		 jmp	 SHORT $LN25@create_tro
$LN24@create_tro:
  0012e	8b 15 00 00 00
	00		 mov	 edx, DWORD PTR ?__LINE__Var@?0??create_troop_patrol_tasks@@YGXXZ@4JA
  00134	83 c2 10	 add	 edx, 16			; 00000010H
  00137	52		 push	 edx
  00138	68 00 00 00 00	 push	 OFFSET ??_C@_0ED@GMECMFKH@c?3?2users?2nhv90?2projects?2eech?2ap@
  0013d	a1 00 00 00 00	 mov	 eax, DWORD PTR ?null_entity_pointer_message@@3PBDB ; null_entity_pointer_message
  00142	50		 push	 eax
  00143	e8 00 00 00 00	 call	 ?process_assert@@YGXPBD0H@Z ; process_assert
  00148	c7 45 a8 00 00
	00 00		 mov	 DWORD PTR tv143[ebp], 0
$LN25@create_tro:
  0014f	b9 01 00 00 00	 mov	 ecx, 1
  00154	85 c9		 test	 ecx, ecx
  00156	74 09		 je	 SHORT $LN26@create_tro
  00158	c7 45 a4 15 00
	00 00		 mov	 DWORD PTR tv151[ebp], 21 ; 00000015H
  0015f	eb 21		 jmp	 SHORT $LN27@create_tro
$LN26@create_tro:
  00161	8b 15 00 00 00
	00		 mov	 edx, DWORD PTR ?__LINE__Var@?0??create_troop_patrol_tasks@@YGXXZ@4JA
  00167	83 c2 10	 add	 edx, 16			; 00000010H
  0016a	52		 push	 edx
  0016b	68 00 00 00 00	 push	 OFFSET ??_C@_0ED@GMECMFKH@c?3?2users?2nhv90?2projects?2eech?2ap@
  00170	a1 00 00 00 00	 mov	 eax, DWORD PTR ?overload_invalid_list_type_message@@3PBDB ; overload_invalid_list_type_message
  00175	50		 push	 eax
  00176	e8 00 00 00 00	 call	 ?process_assert@@YGXPBD0H@Z ; process_assert
  0017b	c7 45 a4 00 00
	00 00		 mov	 DWORD PTR tv151[ebp], 0
$LN27@create_tro:
  00182	6a 15		 push	 21			; 00000015H
  00184	8b 4d f0	 mov	 ecx, DWORD PTR _force$[ebp]
  00187	51		 push	 ecx
  00188	69 55 a8 b4 00
	00 00		 imul	 edx, DWORD PTR tv143[ebp], 180
  0018f	8b 45 a4	 mov	 eax, DWORD PTR tv151[ebp]
  00192	8b 8c 82 00 00
	00 00		 mov	 ecx, DWORD PTR ?fn_get_local_entity_first_child@@3PAY0CN@P6GPAUENTITY@@PAU1@W4LIST_TYPES@@@ZA[edx+eax*4]
  00199	ff d1		 call	 ecx
  0019b	89 45 f4	 mov	 DWORD PTR _keysite$[ebp], eax
$LN4@create_tro:

; 2677 : 	
; 2678 : 		while (keysite)

  0019e	83 7d f4 00	 cmp	 DWORD PTR _keysite$[ebp], 0
  001a2	0f 84 10 04 00
	00		 je	 $LN5@create_tro

; 2679 : 		{
; 2680 : 			#if DEBUG_MODULE
; 2681 : 
; 2682 : 			debug_log ("HIGHLEVL: Trying to create patrol task");
; 2683 : 
; 2684 : 			#endif
; 2685 : 			
; 2686 : 			if (get_local_entity_int_value (keysite, INT_TYPE_ENTITY_SUB_TYPE) == ENTITY_SUB_TYPE_KEYSITE_AIRBASE)

  001a8	83 7d f4 00	 cmp	 DWORD PTR _keysite$[ebp], 0
  001ac	74 0a		 je	 SHORT $LN28@create_tro
  001ae	8b 45 f4	 mov	 eax, DWORD PTR _keysite$[ebp]
  001b1	8b 08		 mov	 ecx, DWORD PTR [eax]
  001b3	89 4d a8	 mov	 DWORD PTR tv163[ebp], ecx
  001b6	eb 1d		 jmp	 SHORT $LN29@create_tro
$LN28@create_tro:
  001b8	68 7e 0a 00 00	 push	 2686			; 00000a7eH
  001bd	68 00 00 00 00	 push	 OFFSET ??_C@_0ED@GMECMFKH@c?3?2users?2nhv90?2projects?2eech?2ap@
  001c2	8b 15 00 00 00
	00		 mov	 edx, DWORD PTR ?null_entity_pointer_message@@3PBDB ; null_entity_pointer_message
  001c8	52		 push	 edx
  001c9	e8 00 00 00 00	 call	 ?process_assert@@YGXPBD0H@Z ; process_assert
  001ce	c7 45 a8 00 00
	00 00		 mov	 DWORD PTR tv163[ebp], 0
$LN29@create_tro:
  001d5	b8 01 00 00 00	 mov	 eax, 1
  001da	85 c0		 test	 eax, eax
  001dc	74 09		 je	 SHORT $LN30@create_tro
  001de	c7 45 a4 34 00
	00 00		 mov	 DWORD PTR tv170[ebp], 52 ; 00000034H
  001e5	eb 1d		 jmp	 SHORT $LN31@create_tro
$LN30@create_tro:
  001e7	68 7e 0a 00 00	 push	 2686			; 00000a7eH
  001ec	68 00 00 00 00	 push	 OFFSET ??_C@_0ED@GMECMFKH@c?3?2users?2nhv90?2projects?2eech?2ap@
  001f1	8b 0d 00 00 00
	00		 mov	 ecx, DWORD PTR ?overload_invalid_int_type_message@@3PBDB ; overload_invalid_int_type_message
  001f7	51		 push	 ecx
  001f8	e8 00 00 00 00	 call	 ?process_assert@@YGXPBD0H@Z ; process_assert
  001fd	c7 45 a4 00 00
	00 00		 mov	 DWORD PTR tv170[ebp], 0
$LN31@create_tro:
  00204	6a 34		 push	 52			; 00000034H
  00206	8b 55 f4	 mov	 edx, DWORD PTR _keysite$[ebp]
  00209	52		 push	 edx
  0020a	69 45 a8 5c 04
	00 00		 imul	 eax, DWORD PTR tv163[ebp], 1116
  00211	8b 4d a4	 mov	 ecx, DWORD PTR tv170[ebp]
  00214	8b 94 88 00 00
	00 00		 mov	 edx, DWORD PTR ?fn_get_local_entity_int_value@@3PAY0BBH@P6GHPAUENTITY@@W4INT_TYPES@@@ZA[eax+ecx*4]
  0021b	ff d2		 call	 edx
  0021d	85 c0		 test	 eax, eax
  0021f	0f 85 0e 03 00
	00		 jne	 $LN8@create_tro

; 2687 : 			{
; 2688 : 				if (!entity_is_object_of_task (keysite, ENTITY_SUB_TYPE_TASK_TROOP_MOVEMENT_PATROL, side))

  00225	8b 45 ec	 mov	 eax, DWORD PTR _side$[ebp]
  00228	50		 push	 eax
  00229	6a 1d		 push	 29			; 0000001dH
  0022b	8b 4d f4	 mov	 ecx, DWORD PTR _keysite$[ebp]
  0022e	51		 push	 ecx
  0022f	e8 00 00 00 00	 call	 ?entity_is_object_of_task@@YGHPAUENTITY@@HW4ENTITY_SIDES@@@Z ; entity_is_object_of_task
  00234	85 c0		 test	 eax, eax
  00236	0f 85 f7 02 00
	00		 jne	 $LN8@create_tro

; 2689 : 				{
; 2690 : 					group = get_local_entity_first_child (keysite, LIST_TYPE_KEYSITE_GROUP);

  0023c	83 7d f4 00	 cmp	 DWORD PTR _keysite$[ebp], 0
  00240	74 0a		 je	 SHORT $LN32@create_tro
  00242	8b 45 f4	 mov	 eax, DWORD PTR _keysite$[ebp]
  00245	8b 08		 mov	 ecx, DWORD PTR [eax]
  00247	89 4d a8	 mov	 DWORD PTR tv188[ebp], ecx
  0024a	eb 21		 jmp	 SHORT $LN33@create_tro
$LN32@create_tro:
  0024c	8b 15 00 00 00
	00		 mov	 edx, DWORD PTR ?__LINE__Var@?0??create_troop_patrol_tasks@@YGXXZ@4JA
  00252	83 c2 1e	 add	 edx, 30			; 0000001eH
  00255	52		 push	 edx
  00256	68 00 00 00 00	 push	 OFFSET ??_C@_0ED@GMECMFKH@c?3?2users?2nhv90?2projects?2eech?2ap@
  0025b	a1 00 00 00 00	 mov	 eax, DWORD PTR ?null_entity_pointer_message@@3PBDB ; null_entity_pointer_message
  00260	50		 push	 eax
  00261	e8 00 00 00 00	 call	 ?process_assert@@YGXPBD0H@Z ; process_assert
  00266	c7 45 a8 00 00
	00 00		 mov	 DWORD PTR tv188[ebp], 0
$LN33@create_tro:
  0026d	b9 01 00 00 00	 mov	 ecx, 1
  00272	85 c9		 test	 ecx, ecx
  00274	74 09		 je	 SHORT $LN34@create_tro
  00276	c7 45 a4 16 00
	00 00		 mov	 DWORD PTR tv196[ebp], 22 ; 00000016H
  0027d	eb 21		 jmp	 SHORT $LN35@create_tro
$LN34@create_tro:
  0027f	8b 15 00 00 00
	00		 mov	 edx, DWORD PTR ?__LINE__Var@?0??create_troop_patrol_tasks@@YGXXZ@4JA
  00285	83 c2 1e	 add	 edx, 30			; 0000001eH
  00288	52		 push	 edx
  00289	68 00 00 00 00	 push	 OFFSET ??_C@_0ED@GMECMFKH@c?3?2users?2nhv90?2projects?2eech?2ap@
  0028e	a1 00 00 00 00	 mov	 eax, DWORD PTR ?overload_invalid_list_type_message@@3PBDB ; overload_invalid_list_type_message
  00293	50		 push	 eax
  00294	e8 00 00 00 00	 call	 ?process_assert@@YGXPBD0H@Z ; process_assert
  00299	c7 45 a4 00 00
	00 00		 mov	 DWORD PTR tv196[ebp], 0
$LN35@create_tro:
  002a0	6a 16		 push	 22			; 00000016H
  002a2	8b 4d f4	 mov	 ecx, DWORD PTR _keysite$[ebp]
  002a5	51		 push	 ecx
  002a6	69 55 a8 b4 00
	00 00		 imul	 edx, DWORD PTR tv188[ebp], 180
  002ad	8b 45 a4	 mov	 eax, DWORD PTR tv196[ebp]
  002b0	8b 8c 82 00 00
	00 00		 mov	 ecx, DWORD PTR ?fn_get_local_entity_first_child@@3PAY0CN@P6GPAUENTITY@@PAU1@W4LIST_TYPES@@@ZA[edx+eax*4]
  002b7	ff d1		 call	 ecx
  002b9	89 45 f8	 mov	 DWORD PTR _group$[ebp], eax
$LN6@create_tro:

; 2691 : 					
; 2692 : 					while (group)

  002bc	83 7d f8 00	 cmp	 DWORD PTR _group$[ebp], 0
  002c0	0f 84 6d 02 00
	00		 je	 $LN8@create_tro

; 2693 : 					{
; 2694 : 						if (get_local_entity_int_value (group, INT_TYPE_ENTITY_SUB_TYPE) == ENTITY_SUB_TYPE_GROUP_INFANTRY_PATROL)

  002c6	83 7d f8 00	 cmp	 DWORD PTR _group$[ebp], 0
  002ca	74 0a		 je	 SHORT $LN36@create_tro
  002cc	8b 45 f8	 mov	 eax, DWORD PTR _group$[ebp]
  002cf	8b 08		 mov	 ecx, DWORD PTR [eax]
  002d1	89 4d a8	 mov	 DWORD PTR tv208[ebp], ecx
  002d4	eb 1d		 jmp	 SHORT $LN37@create_tro
$LN36@create_tro:
  002d6	68 86 0a 00 00	 push	 2694			; 00000a86H
  002db	68 00 00 00 00	 push	 OFFSET ??_C@_0ED@GMECMFKH@c?3?2users?2nhv90?2projects?2eech?2ap@
  002e0	8b 15 00 00 00
	00		 mov	 edx, DWORD PTR ?null_entity_pointer_message@@3PBDB ; null_entity_pointer_message
  002e6	52		 push	 edx
  002e7	e8 00 00 00 00	 call	 ?process_assert@@YGXPBD0H@Z ; process_assert
  002ec	c7 45 a8 00 00
	00 00		 mov	 DWORD PTR tv208[ebp], 0
$LN37@create_tro:
  002f3	b8 01 00 00 00	 mov	 eax, 1
  002f8	85 c0		 test	 eax, eax
  002fa	74 09		 je	 SHORT $LN38@create_tro
  002fc	c7 45 a4 34 00
	00 00		 mov	 DWORD PTR tv215[ebp], 52 ; 00000034H
  00303	eb 1d		 jmp	 SHORT $LN39@create_tro
$LN38@create_tro:
  00305	68 86 0a 00 00	 push	 2694			; 00000a86H
  0030a	68 00 00 00 00	 push	 OFFSET ??_C@_0ED@GMECMFKH@c?3?2users?2nhv90?2projects?2eech?2ap@
  0030f	8b 0d 00 00 00
	00		 mov	 ecx, DWORD PTR ?overload_invalid_int_type_message@@3PBDB ; overload_invalid_int_type_message
  00315	51		 push	 ecx
  00316	e8 00 00 00 00	 call	 ?process_assert@@YGXPBD0H@Z ; process_assert
  0031b	c7 45 a4 00 00
	00 00		 mov	 DWORD PTR tv215[ebp], 0
$LN39@create_tro:
  00322	6a 34		 push	 52			; 00000034H
  00324	8b 55 f8	 mov	 edx, DWORD PTR _group$[ebp]
  00327	52		 push	 edx
  00328	69 45 a8 5c 04
	00 00		 imul	 eax, DWORD PTR tv208[ebp], 1116
  0032f	8b 4d a4	 mov	 ecx, DWORD PTR tv215[ebp]
  00332	8b 94 88 00 00
	00 00		 mov	 edx, DWORD PTR ?fn_get_local_entity_int_value@@3PAY0BBH@P6GHPAUENTITY@@W4INT_TYPES@@@ZA[eax+ecx*4]
  00339	ff d2		 call	 edx
  0033b	83 f8 15	 cmp	 eax, 21			; 00000015H
  0033e	0f 85 6a 01 00
	00		 jne	 $LN10@create_tro

; 2695 : 						{
; 2696 : 							if (get_local_entity_int_value (group, INT_TYPE_GROUP_MODE) == GROUP_MODE_IDLE)

  00344	83 7d f8 00	 cmp	 DWORD PTR _group$[ebp], 0
  00348	74 0a		 je	 SHORT $LN40@create_tro
  0034a	8b 45 f8	 mov	 eax, DWORD PTR _group$[ebp]
  0034d	8b 08		 mov	 ecx, DWORD PTR [eax]
  0034f	89 4d a8	 mov	 DWORD PTR tv227[ebp], ecx
  00352	eb 1d		 jmp	 SHORT $LN41@create_tro
$LN40@create_tro:
  00354	68 88 0a 00 00	 push	 2696			; 00000a88H
  00359	68 00 00 00 00	 push	 OFFSET ??_C@_0ED@GMECMFKH@c?3?2users?2nhv90?2projects?2eech?2ap@
  0035e	8b 15 00 00 00
	00		 mov	 edx, DWORD PTR ?null_entity_pointer_message@@3PBDB ; null_entity_pointer_message
  00364	52		 push	 edx
  00365	e8 00 00 00 00	 call	 ?process_assert@@YGXPBD0H@Z ; process_assert
  0036a	c7 45 a8 00 00
	00 00		 mov	 DWORD PTR tv227[ebp], 0
$LN41@create_tro:
  00371	b8 01 00 00 00	 mov	 eax, 1
  00376	85 c0		 test	 eax, eax
  00378	74 09		 je	 SHORT $LN42@create_tro
  0037a	c7 45 a4 4d 00
	00 00		 mov	 DWORD PTR tv234[ebp], 77 ; 0000004dH
  00381	eb 1d		 jmp	 SHORT $LN43@create_tro
$LN42@create_tro:
  00383	68 88 0a 00 00	 push	 2696			; 00000a88H
  00388	68 00 00 00 00	 push	 OFFSET ??_C@_0ED@GMECMFKH@c?3?2users?2nhv90?2projects?2eech?2ap@
  0038d	8b 0d 00 00 00
	00		 mov	 ecx, DWORD PTR ?overload_invalid_int_type_message@@3PBDB ; overload_invalid_int_type_message
  00393	51		 push	 ecx
  00394	e8 00 00 00 00	 call	 ?process_assert@@YGXPBD0H@Z ; process_assert
  00399	c7 45 a4 00 00
	00 00		 mov	 DWORD PTR tv234[ebp], 0
$LN43@create_tro:
  003a0	6a 4d		 push	 77			; 0000004dH
  003a2	8b 55 f8	 mov	 edx, DWORD PTR _group$[ebp]
  003a5	52		 push	 edx
  003a6	69 45 a8 5c 04
	00 00		 imul	 eax, DWORD PTR tv227[ebp], 1116
  003ad	8b 4d a4	 mov	 ecx, DWORD PTR tv234[ebp]
  003b0	8b 94 88 00 00
	00 00		 mov	 edx, DWORD PTR ?fn_get_local_entity_int_value@@3PAY0BBH@P6GHPAUENTITY@@W4INT_TYPES@@@ZA[eax+ecx*4]
  003b7	ff d2		 call	 edx
  003b9	85 c0		 test	 eax, eax
  003bb	0f 85 ed 00 00
	00		 jne	 $LN10@create_tro

; 2697 : 							{
; 2698 : 								if (get_local_entity_int_value (group, INT_TYPE_ALIVE))

  003c1	83 7d f8 00	 cmp	 DWORD PTR _group$[ebp], 0
  003c5	74 0a		 je	 SHORT $LN44@create_tro
  003c7	8b 45 f8	 mov	 eax, DWORD PTR _group$[ebp]
  003ca	8b 08		 mov	 ecx, DWORD PTR [eax]
  003cc	89 4d a8	 mov	 DWORD PTR tv246[ebp], ecx
  003cf	eb 1d		 jmp	 SHORT $LN45@create_tro
$LN44@create_tro:
  003d1	68 8a 0a 00 00	 push	 2698			; 00000a8aH
  003d6	68 00 00 00 00	 push	 OFFSET ??_C@_0ED@GMECMFKH@c?3?2users?2nhv90?2projects?2eech?2ap@
  003db	8b 15 00 00 00
	00		 mov	 edx, DWORD PTR ?null_entity_pointer_message@@3PBDB ; null_entity_pointer_message
  003e1	52		 push	 edx
  003e2	e8 00 00 00 00	 call	 ?process_assert@@YGXPBD0H@Z ; process_assert
  003e7	c7 45 a8 00 00
	00 00		 mov	 DWORD PTR tv246[ebp], 0
$LN45@create_tro:
  003ee	b8 01 00 00 00	 mov	 eax, 1
  003f3	85 c0		 test	 eax, eax
  003f5	74 09		 je	 SHORT $LN46@create_tro
  003f7	c7 45 a4 07 00
	00 00		 mov	 DWORD PTR tv253[ebp], 7
  003fe	eb 1d		 jmp	 SHORT $LN47@create_tro
$LN46@create_tro:
  00400	68 8a 0a 00 00	 push	 2698			; 00000a8aH
  00405	68 00 00 00 00	 push	 OFFSET ??_C@_0ED@GMECMFKH@c?3?2users?2nhv90?2projects?2eech?2ap@
  0040a	8b 0d 00 00 00
	00		 mov	 ecx, DWORD PTR ?overload_invalid_int_type_message@@3PBDB ; overload_invalid_int_type_message
  00410	51		 push	 ecx
  00411	e8 00 00 00 00	 call	 ?process_assert@@YGXPBD0H@Z ; process_assert
  00416	c7 45 a4 00 00
	00 00		 mov	 DWORD PTR tv253[ebp], 0
$LN47@create_tro:
  0041d	6a 07		 push	 7
  0041f	8b 55 f8	 mov	 edx, DWORD PTR _group$[ebp]
  00422	52		 push	 edx
  00423	69 45 a8 5c 04
	00 00		 imul	 eax, DWORD PTR tv246[ebp], 1116
  0042a	8b 4d a4	 mov	 ecx, DWORD PTR tv253[ebp]
  0042d	8b 94 88 00 00
	00 00		 mov	 edx, DWORD PTR ?fn_get_local_entity_int_value@@3PAY0BBH@P6GHPAUENTITY@@W4INT_TYPES@@@ZA[eax+ecx*4]
  00434	ff d2		 call	 edx
  00436	85 c0		 test	 eax, eax
  00438	74 74		 je	 SHORT $LN10@create_tro

; 2699 : 								{
; 2700 : 									task = create_troop_movement_patrol_task (side, keysite);

  0043a	8b 45 f4	 mov	 eax, DWORD PTR _keysite$[ebp]
  0043d	50		 push	 eax
  0043e	8b 4d ec	 mov	 ecx, DWORD PTR _side$[ebp]
  00441	51		 push	 ecx
  00442	e8 00 00 00 00	 call	 ?create_troop_movement_patrol_task@@YGPAUENTITY@@W4ENTITY_SIDES@@PAU1@@Z ; create_troop_movement_patrol_task
  00447	89 45 fc	 mov	 DWORD PTR _task$[ebp], eax

; 2701 : 
; 2702 : 									#if DEBUG_MODULE
; 2703 : 
; 2704 : 									debug_log ("HIGHLEVL: created patrol task");
; 2705 : 
; 2706 : 									#endif
; 2707 : 									
; 2708 : 									if (!assign_task_to_group (group, task, TASK_ASSIGN_ALL_MEMBERS))

  0044a	6a ff		 push	 -1
  0044c	8b 45 fc	 mov	 eax, DWORD PTR _task$[ebp]
  0044f	50		 push	 eax
  00450	8b 4d f8	 mov	 ecx, DWORD PTR _group$[ebp]
  00453	51		 push	 ecx
  00454	e8 00 00 00 00	 call	 ?assign_task_to_group@@YGHPAUENTITY@@0I@Z ; assign_task_to_group
  00459	85 c0		 test	 eax, eax
  0045b	75 4c		 jne	 SHORT $LN13@create_tro

; 2709 : 									{
; 2710 : 										destroy_client_server_entity (task);

  0045d	83 7d fc 00	 cmp	 DWORD PTR _task$[ebp], 0
  00461	74 0a		 je	 SHORT $LN48@create_tro
  00463	8b 45 fc	 mov	 eax, DWORD PTR _task$[ebp]
  00466	8b 08		 mov	 ecx, DWORD PTR [eax]
  00468	89 4d a8	 mov	 DWORD PTR tv274[ebp], ecx
  0046b	eb 21		 jmp	 SHORT $LN49@create_tro
$LN48@create_tro:
  0046d	8b 15 00 00 00
	00		 mov	 edx, DWORD PTR ?__LINE__Var@?0??create_troop_patrol_tasks@@YGXXZ@4JA
  00473	83 c2 32	 add	 edx, 50			; 00000032H
  00476	52		 push	 edx
  00477	68 00 00 00 00	 push	 OFFSET ??_C@_0ED@GMECMFKH@c?3?2users?2nhv90?2projects?2eech?2ap@
  0047c	a1 00 00 00 00	 mov	 eax, DWORD PTR ?null_entity_pointer_message@@3PBDB ; null_entity_pointer_message
  00481	50		 push	 eax
  00482	e8 00 00 00 00	 call	 ?process_assert@@YGXPBD0H@Z ; process_assert
  00487	c7 45 a8 00 00
	00 00		 mov	 DWORD PTR tv274[ebp], 0
$LN49@create_tro:
  0048e	8b 4d fc	 mov	 ecx, DWORD PTR _task$[ebp]
  00491	51		 push	 ecx
  00492	8b 15 00 00 00
	00		 mov	 edx, DWORD PTR ?system_comms_model@@3W4COMMS_MODEL_TYPES@@A ; system_comms_model
  00498	c1 e2 02	 shl	 edx, 2
  0049b	8b 45 a8	 mov	 eax, DWORD PTR tv274[ebp]
  0049e	8b 8c c2 00 00
	00 00		 mov	 ecx, DWORD PTR ?fn_destroy_client_server_entity@@3PAY01P6GXPAUENTITY@@@ZA[edx+eax*8]
  004a5	ff d1		 call	 ecx

; 2711 : 									}
; 2712 : 									else

  004a7	eb 05		 jmp	 SHORT $LN10@create_tro
$LN13@create_tro:

; 2713 : 									{
; 2714 : 										break;

  004a9	e9 85 00 00 00	 jmp	 $LN8@create_tro
$LN10@create_tro:

; 2715 : 									}
; 2716 : 								}
; 2717 : 							}
; 2718 : 						}
; 2719 : 	
; 2720 : 						group = get_local_entity_child_succ (group, LIST_TYPE_KEYSITE_GROUP);

  004ae	83 7d f8 00	 cmp	 DWORD PTR _group$[ebp], 0
  004b2	74 0a		 je	 SHORT $LN50@create_tro
  004b4	8b 45 f8	 mov	 eax, DWORD PTR _group$[ebp]
  004b7	8b 08		 mov	 ecx, DWORD PTR [eax]
  004b9	89 4d a8	 mov	 DWORD PTR tv286[ebp], ecx
  004bc	eb 21		 jmp	 SHORT $LN51@create_tro
$LN50@create_tro:
  004be	8b 15 00 00 00
	00		 mov	 edx, DWORD PTR ?__LINE__Var@?0??create_troop_patrol_tasks@@YGXXZ@4JA
  004c4	83 c2 3c	 add	 edx, 60			; 0000003cH
  004c7	52		 push	 edx
  004c8	68 00 00 00 00	 push	 OFFSET ??_C@_0ED@GMECMFKH@c?3?2users?2nhv90?2projects?2eech?2ap@
  004cd	a1 00 00 00 00	 mov	 eax, DWORD PTR ?null_entity_pointer_message@@3PBDB ; null_entity_pointer_message
  004d2	50		 push	 eax
  004d3	e8 00 00 00 00	 call	 ?process_assert@@YGXPBD0H@Z ; process_assert
  004d8	c7 45 a8 00 00
	00 00		 mov	 DWORD PTR tv286[ebp], 0
$LN51@create_tro:
  004df	b9 01 00 00 00	 mov	 ecx, 1
  004e4	85 c9		 test	 ecx, ecx
  004e6	74 09		 je	 SHORT $LN52@create_tro
  004e8	c7 45 a4 16 00
	00 00		 mov	 DWORD PTR tv294[ebp], 22 ; 00000016H
  004ef	eb 21		 jmp	 SHORT $LN53@create_tro
$LN52@create_tro:
  004f1	8b 15 00 00 00
	00		 mov	 edx, DWORD PTR ?__LINE__Var@?0??create_troop_patrol_tasks@@YGXXZ@4JA
  004f7	83 c2 3c	 add	 edx, 60			; 0000003cH
  004fa	52		 push	 edx
  004fb	68 00 00 00 00	 push	 OFFSET ??_C@_0ED@GMECMFKH@c?3?2users?2nhv90?2projects?2eech?2ap@
  00500	a1 00 00 00 00	 mov	 eax, DWORD PTR ?overload_invalid_list_type_message@@3PBDB ; overload_invalid_list_type_message
  00505	50		 push	 eax
  00506	e8 00 00 00 00	 call	 ?process_assert@@YGXPBD0H@Z ; process_assert
  0050b	c7 45 a4 00 00
	00 00		 mov	 DWORD PTR tv294[ebp], 0
$LN53@create_tro:
  00512	6a 16		 push	 22			; 00000016H
  00514	8b 4d f8	 mov	 ecx, DWORD PTR _group$[ebp]
  00517	51		 push	 ecx
  00518	69 55 a8 b4 00
	00 00		 imul	 edx, DWORD PTR tv286[ebp], 180
  0051f	8b 45 a4	 mov	 eax, DWORD PTR tv294[ebp]
  00522	8b 8c 82 00 00
	00 00		 mov	 ecx, DWORD PTR ?fn_get_local_entity_child_succ@@3PAY0CN@P6GPAUENTITY@@PAU1@W4LIST_TYPES@@@ZA[edx+eax*4]
  00529	ff d1		 call	 ecx
  0052b	89 45 f8	 mov	 DWORD PTR _group$[ebp], eax

; 2721 : 					}

  0052e	e9 89 fd ff ff	 jmp	 $LN6@create_tro
$LN8@create_tro:

; 2722 : 				}
; 2723 : 			}
; 2724 : 
; 2725 : 			keysite = get_local_entity_child_succ (keysite, LIST_TYPE_KEYSITE_FORCE);

  00533	83 7d f4 00	 cmp	 DWORD PTR _keysite$[ebp], 0
  00537	74 0a		 je	 SHORT $LN54@create_tro
  00539	8b 45 f4	 mov	 eax, DWORD PTR _keysite$[ebp]
  0053c	8b 08		 mov	 ecx, DWORD PTR [eax]
  0053e	89 4d a8	 mov	 DWORD PTR tv306[ebp], ecx
  00541	eb 21		 jmp	 SHORT $LN55@create_tro
$LN54@create_tro:
  00543	8b 15 00 00 00
	00		 mov	 edx, DWORD PTR ?__LINE__Var@?0??create_troop_patrol_tasks@@YGXXZ@4JA
  00549	83 c2 41	 add	 edx, 65			; 00000041H
  0054c	52		 push	 edx
  0054d	68 00 00 00 00	 push	 OFFSET ??_C@_0ED@GMECMFKH@c?3?2users?2nhv90?2projects?2eech?2ap@
  00552	a1 00 00 00 00	 mov	 eax, DWORD PTR ?null_entity_pointer_message@@3PBDB ; null_entity_pointer_message
  00557	50		 push	 eax
  00558	e8 00 00 00 00	 call	 ?process_assert@@YGXPBD0H@Z ; process_assert
  0055d	c7 45 a8 00 00
	00 00		 mov	 DWORD PTR tv306[ebp], 0
$LN55@create_tro:
  00564	b9 01 00 00 00	 mov	 ecx, 1
  00569	85 c9		 test	 ecx, ecx
  0056b	74 09		 je	 SHORT $LN56@create_tro
  0056d	c7 45 a4 15 00
	00 00		 mov	 DWORD PTR tv314[ebp], 21 ; 00000015H
  00574	eb 21		 jmp	 SHORT $LN57@create_tro
$LN56@create_tro:
  00576	8b 15 00 00 00
	00		 mov	 edx, DWORD PTR ?__LINE__Var@?0??create_troop_patrol_tasks@@YGXXZ@4JA
  0057c	83 c2 41	 add	 edx, 65			; 00000041H
  0057f	52		 push	 edx
  00580	68 00 00 00 00	 push	 OFFSET ??_C@_0ED@GMECMFKH@c?3?2users?2nhv90?2projects?2eech?2ap@
  00585	a1 00 00 00 00	 mov	 eax, DWORD PTR ?overload_invalid_list_type_message@@3PBDB ; overload_invalid_list_type_message
  0058a	50		 push	 eax
  0058b	e8 00 00 00 00	 call	 ?process_assert@@YGXPBD0H@Z ; process_assert
  00590	c7 45 a4 00 00
	00 00		 mov	 DWORD PTR tv314[ebp], 0
$LN57@create_tro:
  00597	6a 15		 push	 21			; 00000015H
  00599	8b 4d f4	 mov	 ecx, DWORD PTR _keysite$[ebp]
  0059c	51		 push	 ecx
  0059d	69 55 a8 b4 00
	00 00		 imul	 edx, DWORD PTR tv306[ebp], 180
  005a4	8b 45 a4	 mov	 eax, DWORD PTR tv314[ebp]
  005a7	8b 8c 82 00 00
	00 00		 mov	 ecx, DWORD PTR ?fn_get_local_entity_child_succ@@3PAY0CN@P6GPAUENTITY@@PAU1@W4LIST_TYPES@@@ZA[edx+eax*4]
  005ae	ff d1		 call	 ecx
  005b0	89 45 f4	 mov	 DWORD PTR _keysite$[ebp], eax

; 2726 : 		}

  005b3	e9 e6 fb ff ff	 jmp	 $LN4@create_tro
$LN5@create_tro:

; 2727 : 	
; 2728 : 		force = get_local_entity_child_succ (force, LIST_TYPE_FORCE);

  005b8	83 7d f0 00	 cmp	 DWORD PTR _force$[ebp], 0
  005bc	74 0a		 je	 SHORT $LN58@create_tro
  005be	8b 45 f0	 mov	 eax, DWORD PTR _force$[ebp]
  005c1	8b 08		 mov	 ecx, DWORD PTR [eax]
  005c3	89 4d a8	 mov	 DWORD PTR tv326[ebp], ecx
  005c6	eb 21		 jmp	 SHORT $LN59@create_tro
$LN58@create_tro:
  005c8	8b 15 00 00 00
	00		 mov	 edx, DWORD PTR ?__LINE__Var@?0??create_troop_patrol_tasks@@YGXXZ@4JA
  005ce	83 c2 44	 add	 edx, 68			; 00000044H
  005d1	52		 push	 edx
  005d2	68 00 00 00 00	 push	 OFFSET ??_C@_0ED@GMECMFKH@c?3?2users?2nhv90?2projects?2eech?2ap@
  005d7	a1 00 00 00 00	 mov	 eax, DWORD PTR ?null_entity_pointer_message@@3PBDB ; null_entity_pointer_message
  005dc	50		 push	 eax
  005dd	e8 00 00 00 00	 call	 ?process_assert@@YGXPBD0H@Z ; process_assert
  005e2	c7 45 a8 00 00
	00 00		 mov	 DWORD PTR tv326[ebp], 0
$LN59@create_tro:
  005e9	b9 01 00 00 00	 mov	 ecx, 1
  005ee	85 c9		 test	 ecx, ecx
  005f0	74 09		 je	 SHORT $LN60@create_tro
  005f2	c7 45 a4 0e 00
	00 00		 mov	 DWORD PTR tv334[ebp], 14 ; 0000000eH
  005f9	eb 21		 jmp	 SHORT $LN61@create_tro
$LN60@create_tro:
  005fb	8b 15 00 00 00
	00		 mov	 edx, DWORD PTR ?__LINE__Var@?0??create_troop_patrol_tasks@@YGXXZ@4JA
  00601	83 c2 44	 add	 edx, 68			; 00000044H
  00604	52		 push	 edx
  00605	68 00 00 00 00	 push	 OFFSET ??_C@_0ED@GMECMFKH@c?3?2users?2nhv90?2projects?2eech?2ap@
  0060a	a1 00 00 00 00	 mov	 eax, DWORD PTR ?overload_invalid_list_type_message@@3PBDB ; overload_invalid_list_type_message
  0060f	50		 push	 eax
  00610	e8 00 00 00 00	 call	 ?process_assert@@YGXPBD0H@Z ; process_assert
  00615	c7 45 a4 00 00
	00 00		 mov	 DWORD PTR tv334[ebp], 0
$LN61@create_tro:
  0061c	6a 0e		 push	 14			; 0000000eH
  0061e	8b 4d f0	 mov	 ecx, DWORD PTR _force$[ebp]
  00621	51		 push	 ecx
  00622	69 55 a8 b4 00
	00 00		 imul	 edx, DWORD PTR tv326[ebp], 180
  00629	8b 45 a4	 mov	 eax, DWORD PTR tv334[ebp]
  0062c	8b 8c 82 00 00
	00 00		 mov	 ecx, DWORD PTR ?fn_get_local_entity_child_succ@@3PAY0CN@P6GPAUENTITY@@PAU1@W4LIST_TYPES@@@ZA[edx+eax*4]
  00633	ff d1		 call	 ecx
  00635	89 45 f0	 mov	 DWORD PTR _force$[ebp], eax

; 2729 : 	}

  00638	e9 54 fa ff ff	 jmp	 $LN2@create_tro
$LN1@create_tro:

; 2730 : }

  0063d	5f		 pop	 edi
  0063e	5e		 pop	 esi
  0063f	5b		 pop	 ebx
  00640	8b e5		 mov	 esp, ebp
  00642	5d		 pop	 ebp
  00643	c3		 ret	 0
?create_troop_patrol_tasks@@YGXXZ ENDP			; create_troop_patrol_tasks
_TEXT	ENDS
; Function compile flags: /Odtp /ZI
; File c:\users\nhv90\projects\eech\aphavoc\source\ai\highlevl\highlevl.c
;	COMDAT ?create_helicopter_transfer_tasks@@YGXXZ
_TEXT	SEGMENT
tv496 = -172						; size = 4
tv488 = -168						; size = 4
tv522 = -164						; size = 4
tv471 = -164						; size = 4
tv397 = -164						; size = 4
tv323 = -164						; size = 4
tv303 = -164						; size = 4
tv279 = -164						; size = 4
tv257 = -164						; size = 4
tv236 = -164						; size = 4
tv206 = -164						; size = 4
tv187 = -164						; size = 4
tv167 = -164						; size = 4
tv145 = -164						; size = 4
tv86 = -164						; size = 4
tv514 = -160						; size = 4
tv463 = -160						; size = 4
tv389 = -160						; size = 4
tv315 = -160						; size = 4
tv295 = -160						; size = 4
tv272 = -160						; size = 4
tv249 = -160						; size = 4
tv228 = -160						; size = 4
tv199 = -160						; size = 4
tv180 = -160						; size = 4
tv159 = -160						; size = 4
tv152 = -160						; size = 4
tv137 = -160						; size = 4
tv78 = -160						; size = 4
$T1 = -156						; size = 4
$T2 = -152						; size = 4
$T3 = -148						; size = 4
_max_rating$ = -80					; size = 4
_idle_group_count$ = -76				; size = 4
_rating$ = -72						; size = 4
_priority$ = -68					; size = 4
_keysite_count$ = -64					; size = 4
_group_type$ = -60					; size = 4
_count$ = -56						; size = 4
_loop2$ = -52						; size = 4
_loop$ = -48						; size = 4
_z$ = -44						; size = 4
_x$ = -40						; size = 4
_pos$ = -36						; size = 4
_landing_raw$ = -32					; size = 4
_landing_en$ = -28					; size = 4
_donar$ = -24						; size = 4
_keysite$ = -20						; size = 4
_group$ = -16						; size = 4
_force$ = -12						; size = 4
_this_side$ = -8					; size = 4
_side$ = -4						; size = 4
?create_helicopter_transfer_tasks@@YGXXZ PROC		; create_helicopter_transfer_tasks, COMDAT

; 2319 : {

  00000	55		 push	 ebp
  00001	8b ec		 mov	 ebp, esp
  00003	81 ec ac 00 00
	00		 sub	 esp, 172		; 000000acH
  00009	53		 push	 ebx
  0000a	56		 push	 esi
  0000b	57		 push	 edi

; 2320 : 	entity_sides
; 2321 : 		side,
; 2322 : 		this_side;
; 2323 : 
; 2324 : 	entity
; 2325 : 		*force,
; 2326 : 		*group,
; 2327 : 		*keysite,
; 2328 : 		*donar,
; 2329 : 		*landing_en;
; 2330 : 
; 2331 : 	landing
; 2332 : 		*landing_raw;
; 2333 : 
; 2334 : 	vec3d
; 2335 : 		*pos;
; 2336 : 
; 2337 : 	int
; 2338 : 		x,
; 2339 : 		z,
; 2340 : 		loop,
; 2341 : 		loop2,
; 2342 : 		count,
; 2343 : 		group_type,
; 2344 : 		keysite_count;
; 2345 : 
; 2346 : 	float
; 2347 : 		priority,
; 2348 : 		rating,
; 2349 : 		idle_group_count,
; 2350 : 		max_rating;
; 2351 : 
; 2352 : 	ASSERT (get_comms_model () == COMMS_MODEL_SERVER);

  0000c	83 3d 00 00 00
	00 00		 cmp	 DWORD PTR ?system_comms_model@@3W4COMMS_MODEL_TYPES@@A, 0 ; system_comms_model
  00013	74 18		 je	 SHORT $LN11@create_hel
  00015	a1 00 00 00 00	 mov	 eax, DWORD PTR ?__LINE__Var@?0??create_helicopter_transfer_tasks@@YGXXZ@4JA
  0001a	83 c0 21	 add	 eax, 33			; 00000021H
  0001d	50		 push	 eax
  0001e	68 00 00 00 00	 push	 OFFSET ??_C@_0ED@GMECMFKH@c?3?2users?2nhv90?2projects?2eech?2ap@
  00023	68 00 00 00 00	 push	 OFFSET ??_C@_0CJ@DMBLBJBK@get_comms_model?5?$CI?$CJ?5?$DN?$DN?5COMMS_MOD@
  00028	e8 00 00 00 00	 call	 ?process_assert@@YGXPBD0H@Z ; process_assert
$LN11@create_hel:

; 2353 : 
; 2354 : 	ai_log ("==========================");

  0002d	68 00 00 00 00	 push	 OFFSET ??_C@_0BL@EBIHNBEK@?$DN?$DN?$DN?$DN?$DN?$DN?$DN?$DN?$DN?$DN?$DN?$DN?$DN?$DN?$DN?$DN?$DN?$DN?$DN?$DN?$DN?$DN?$DN?$DN?$DN?$DN@
  00032	e8 00 00 00 00	 call	 ?ai_log@@YAXPBDZZ	; ai_log
  00037	83 c4 04	 add	 esp, 4

; 2355 : 	ai_log ("CREATE TRANSFER (HC) TASKS");

  0003a	68 00 00 00 00	 push	 OFFSET ??_C@_0BL@CDEAJFBK@CREATE?5TRANSFER?5?$CIHC?$CJ?5TASKS@
  0003f	e8 00 00 00 00	 call	 ?ai_log@@YAXPBDZZ	; ai_log
  00044	83 c4 04	 add	 esp, 4

; 2356 : 	ai_log ("--------------------------");

  00047	68 00 00 00 00	 push	 OFFSET ??_C@_0BL@JMBEPNBE@?9?9?9?9?9?9?9?9?9?9?9?9?9?9?9?9?9?9?9?9?9?9?9?9?9?9@
  0004c	e8 00 00 00 00	 call	 ?ai_log@@YAXPBDZZ	; ai_log
  00051	83 c4 04	 add	 esp, 4

; 2357 : 
; 2358 : 	force = get_local_entity_first_child (get_session_entity (), LIST_TYPE_FORCE);

  00054	83 3d 00 00 00
	00 00		 cmp	 DWORD PTR ?session_entity@@3PAUENTITY@@A, 0 ; session_entity
  0005b	74 0f		 je	 SHORT $LN24@create_hel
  0005d	a1 00 00 00 00	 mov	 eax, DWORD PTR ?session_entity@@3PAUENTITY@@A ; session_entity
  00062	8b 08		 mov	 ecx, DWORD PTR [eax]
  00064	89 8d 60 ff ff
	ff		 mov	 DWORD PTR tv78[ebp], ecx
  0006a	eb 24		 jmp	 SHORT $LN25@create_hel
$LN24@create_hel:
  0006c	8b 15 00 00 00
	00		 mov	 edx, DWORD PTR ?__LINE__Var@?0??create_helicopter_transfer_tasks@@YGXXZ@4JA
  00072	83 c2 27	 add	 edx, 39			; 00000027H
  00075	52		 push	 edx
  00076	68 00 00 00 00	 push	 OFFSET ??_C@_0ED@GMECMFKH@c?3?2users?2nhv90?2projects?2eech?2ap@
  0007b	a1 00 00 00 00	 mov	 eax, DWORD PTR ?null_entity_pointer_message@@3PBDB ; null_entity_pointer_message
  00080	50		 push	 eax
  00081	e8 00 00 00 00	 call	 ?process_assert@@YGXPBD0H@Z ; process_assert
  00086	c7 85 60 ff ff
	ff 00 00 00 00	 mov	 DWORD PTR tv78[ebp], 0
$LN25@create_hel:
  00090	b9 01 00 00 00	 mov	 ecx, 1
  00095	85 c9		 test	 ecx, ecx
  00097	74 0c		 je	 SHORT $LN26@create_hel
  00099	c7 85 5c ff ff
	ff 0e 00 00 00	 mov	 DWORD PTR tv86[ebp], 14	; 0000000eH
  000a3	eb 24		 jmp	 SHORT $LN27@create_hel
$LN26@create_hel:
  000a5	8b 15 00 00 00
	00		 mov	 edx, DWORD PTR ?__LINE__Var@?0??create_helicopter_transfer_tasks@@YGXXZ@4JA
  000ab	83 c2 27	 add	 edx, 39			; 00000027H
  000ae	52		 push	 edx
  000af	68 00 00 00 00	 push	 OFFSET ??_C@_0ED@GMECMFKH@c?3?2users?2nhv90?2projects?2eech?2ap@
  000b4	a1 00 00 00 00	 mov	 eax, DWORD PTR ?overload_invalid_list_type_message@@3PBDB ; overload_invalid_list_type_message
  000b9	50		 push	 eax
  000ba	e8 00 00 00 00	 call	 ?process_assert@@YGXPBD0H@Z ; process_assert
  000bf	c7 85 5c ff ff
	ff 00 00 00 00	 mov	 DWORD PTR tv86[ebp], 0
$LN27@create_hel:
  000c9	6a 0e		 push	 14			; 0000000eH
  000cb	8b 0d 00 00 00
	00		 mov	 ecx, DWORD PTR ?session_entity@@3PAUENTITY@@A ; session_entity
  000d1	51		 push	 ecx
  000d2	69 95 60 ff ff
	ff b4 00 00 00	 imul	 edx, DWORD PTR tv78[ebp], 180
  000dc	8b 85 5c ff ff
	ff		 mov	 eax, DWORD PTR tv86[ebp]
  000e2	8b 8c 82 00 00
	00 00		 mov	 ecx, DWORD PTR ?fn_get_local_entity_first_child@@3PAY0CN@P6GPAUENTITY@@PAU1@W4LIST_TYPES@@@ZA[edx+eax*4]
  000e9	ff d1		 call	 ecx
  000eb	89 45 f4	 mov	 DWORD PTR _force$[ebp], eax
$LN2@create_hel:

; 2359 : 
; 2360 : 	while (force)

  000ee	83 7d f4 00	 cmp	 DWORD PTR _force$[ebp], 0
  000f2	0f 84 62 0b 00
	00		 je	 $LN3@create_hel

; 2361 : 	{
; 2362 : 		//
; 2363 : 		// for each force spin through the list of keysites and select ones in most need of transfer
; 2364 : 		//
; 2365 : 	
; 2366 : 		memset (target_list, 0, sizeof (entity *) * MAX_HIGHLEVEL_TARGET_CHECKS);

  000f8	68 80 02 00 00	 push	 640			; 00000280H
  000fd	6a 00		 push	 0
  000ff	68 00 00 00 00	 push	 OFFSET ?target_list@@3PAPAUENTITY@@A
  00104	e8 00 00 00 00	 call	 _memset
  00109	83 c4 0c	 add	 esp, 12			; 0000000cH

; 2367 : 
; 2368 : 		memset (target_rating, 0, sizeof (float) * MAX_HIGHLEVEL_TARGET_CHECKS);

  0010c	68 80 02 00 00	 push	 640			; 00000280H
  00111	6a 00		 push	 0
  00113	68 00 00 00 00	 push	 OFFSET ?target_rating@@3PAMA
  00118	e8 00 00 00 00	 call	 _memset
  0011d	83 c4 0c	 add	 esp, 12			; 0000000cH

; 2369 : 
; 2370 : 		count = 0;

  00120	c7 45 c8 00 00
	00 00		 mov	 DWORD PTR _count$[ebp], 0

; 2371 : 
; 2372 : 		this_side = (entity_sides) get_local_entity_int_value (force, INT_TYPE_SIDE);

  00127	83 7d f4 00	 cmp	 DWORD PTR _force$[ebp], 0
  0012b	74 0d		 je	 SHORT $LN28@create_hel
  0012d	8b 45 f4	 mov	 eax, DWORD PTR _force$[ebp]
  00130	8b 08		 mov	 ecx, DWORD PTR [eax]
  00132	89 8d 60 ff ff
	ff		 mov	 DWORD PTR tv137[ebp], ecx
  00138	eb 24		 jmp	 SHORT $LN29@create_hel
$LN28@create_hel:
  0013a	8b 15 00 00 00
	00		 mov	 edx, DWORD PTR ?__LINE__Var@?0??create_helicopter_transfer_tasks@@YGXXZ@4JA
  00140	83 c2 35	 add	 edx, 53			; 00000035H
  00143	52		 push	 edx
  00144	68 00 00 00 00	 push	 OFFSET ??_C@_0ED@GMECMFKH@c?3?2users?2nhv90?2projects?2eech?2ap@
  00149	a1 00 00 00 00	 mov	 eax, DWORD PTR ?null_entity_pointer_message@@3PBDB ; null_entity_pointer_message
  0014e	50		 push	 eax
  0014f	e8 00 00 00 00	 call	 ?process_assert@@YGXPBD0H@Z ; process_assert
  00154	c7 85 60 ff ff
	ff 00 00 00 00	 mov	 DWORD PTR tv137[ebp], 0
$LN29@create_hel:
  0015e	b9 01 00 00 00	 mov	 ecx, 1
  00163	85 c9		 test	 ecx, ecx
  00165	74 0c		 je	 SHORT $LN30@create_hel
  00167	c7 85 5c ff ff
	ff bb 00 00 00	 mov	 DWORD PTR tv145[ebp], 187 ; 000000bbH
  00171	eb 24		 jmp	 SHORT $LN31@create_hel
$LN30@create_hel:
  00173	8b 15 00 00 00
	00		 mov	 edx, DWORD PTR ?__LINE__Var@?0??create_helicopter_transfer_tasks@@YGXXZ@4JA
  00179	83 c2 35	 add	 edx, 53			; 00000035H
  0017c	52		 push	 edx
  0017d	68 00 00 00 00	 push	 OFFSET ??_C@_0ED@GMECMFKH@c?3?2users?2nhv90?2projects?2eech?2ap@
  00182	a1 00 00 00 00	 mov	 eax, DWORD PTR ?overload_invalid_int_type_message@@3PBDB ; overload_invalid_int_type_message
  00187	50		 push	 eax
  00188	e8 00 00 00 00	 call	 ?process_assert@@YGXPBD0H@Z ; process_assert
  0018d	c7 85 5c ff ff
	ff 00 00 00 00	 mov	 DWORD PTR tv145[ebp], 0
$LN31@create_hel:
  00197	68 bb 00 00 00	 push	 187			; 000000bbH
  0019c	8b 4d f4	 mov	 ecx, DWORD PTR _force$[ebp]
  0019f	51		 push	 ecx
  001a0	69 95 60 ff ff
	ff 5c 04 00 00	 imul	 edx, DWORD PTR tv137[ebp], 1116
  001aa	8b 85 5c ff ff
	ff		 mov	 eax, DWORD PTR tv145[ebp]
  001b0	8b 8c 82 00 00
	00 00		 mov	 ecx, DWORD PTR ?fn_get_local_entity_int_value@@3PAY0BBH@P6GHPAUENTITY@@W4INT_TYPES@@@ZA[edx+eax*4]
  001b7	ff d1		 call	 ecx
  001b9	89 45 f8	 mov	 DWORD PTR _this_side$[ebp], eax

; 2373 : 
; 2374 : 		side = get_enemy_side (this_side);

  001bc	83 7d f8 01	 cmp	 DWORD PTR _this_side$[ebp], 1
  001c0	75 0c		 jne	 SHORT $LN32@create_hel
  001c2	c7 85 60 ff ff
	ff 02 00 00 00	 mov	 DWORD PTR tv152[ebp], 2
  001cc	eb 0a		 jmp	 SHORT $LN33@create_hel
$LN32@create_hel:
  001ce	c7 85 60 ff ff
	ff 01 00 00 00	 mov	 DWORD PTR tv152[ebp], 1
$LN33@create_hel:
  001d8	8b 85 60 ff ff
	ff		 mov	 eax, DWORD PTR tv152[ebp]
  001de	89 45 fc	 mov	 DWORD PTR _side$[ebp], eax

; 2375 : 	
; 2376 : 		keysite = get_local_entity_first_child (force, LIST_TYPE_KEYSITE_FORCE);

  001e1	83 7d f4 00	 cmp	 DWORD PTR _force$[ebp], 0
  001e5	74 0d		 je	 SHORT $LN34@create_hel
  001e7	8b 45 f4	 mov	 eax, DWORD PTR _force$[ebp]
  001ea	8b 08		 mov	 ecx, DWORD PTR [eax]
  001ec	89 8d 60 ff ff
	ff		 mov	 DWORD PTR tv159[ebp], ecx
  001f2	eb 24		 jmp	 SHORT $LN35@create_hel
$LN34@create_hel:
  001f4	8b 15 00 00 00
	00		 mov	 edx, DWORD PTR ?__LINE__Var@?0??create_helicopter_transfer_tasks@@YGXXZ@4JA
  001fa	83 c2 39	 add	 edx, 57			; 00000039H
  001fd	52		 push	 edx
  001fe	68 00 00 00 00	 push	 OFFSET ??_C@_0ED@GMECMFKH@c?3?2users?2nhv90?2projects?2eech?2ap@
  00203	a1 00 00 00 00	 mov	 eax, DWORD PTR ?null_entity_pointer_message@@3PBDB ; null_entity_pointer_message
  00208	50		 push	 eax
  00209	e8 00 00 00 00	 call	 ?process_assert@@YGXPBD0H@Z ; process_assert
  0020e	c7 85 60 ff ff
	ff 00 00 00 00	 mov	 DWORD PTR tv159[ebp], 0
$LN35@create_hel:
  00218	b9 01 00 00 00	 mov	 ecx, 1
  0021d	85 c9		 test	 ecx, ecx
  0021f	74 0c		 je	 SHORT $LN36@create_hel
  00221	c7 85 5c ff ff
	ff 15 00 00 00	 mov	 DWORD PTR tv167[ebp], 21 ; 00000015H
  0022b	eb 24		 jmp	 SHORT $LN37@create_hel
$LN36@create_hel:
  0022d	8b 15 00 00 00
	00		 mov	 edx, DWORD PTR ?__LINE__Var@?0??create_helicopter_transfer_tasks@@YGXXZ@4JA
  00233	83 c2 39	 add	 edx, 57			; 00000039H
  00236	52		 push	 edx
  00237	68 00 00 00 00	 push	 OFFSET ??_C@_0ED@GMECMFKH@c?3?2users?2nhv90?2projects?2eech?2ap@
  0023c	a1 00 00 00 00	 mov	 eax, DWORD PTR ?overload_invalid_list_type_message@@3PBDB ; overload_invalid_list_type_message
  00241	50		 push	 eax
  00242	e8 00 00 00 00	 call	 ?process_assert@@YGXPBD0H@Z ; process_assert
  00247	c7 85 5c ff ff
	ff 00 00 00 00	 mov	 DWORD PTR tv167[ebp], 0
$LN37@create_hel:
  00251	6a 15		 push	 21			; 00000015H
  00253	8b 4d f4	 mov	 ecx, DWORD PTR _force$[ebp]
  00256	51		 push	 ecx
  00257	69 95 60 ff ff
	ff b4 00 00 00	 imul	 edx, DWORD PTR tv159[ebp], 180
  00261	8b 85 5c ff ff
	ff		 mov	 eax, DWORD PTR tv167[ebp]
  00267	8b 8c 82 00 00
	00 00		 mov	 ecx, DWORD PTR ?fn_get_local_entity_first_child@@3PAY0CN@P6GPAUENTITY@@PAU1@W4LIST_TYPES@@@ZA[edx+eax*4]
  0026e	ff d1		 call	 ecx
  00270	89 45 ec	 mov	 DWORD PTR _keysite$[ebp], eax
$LN4@create_hel:

; 2377 : 	
; 2378 : 		while ((keysite) && (count < MAX_HIGHLEVEL_TARGET_CHECKS))

  00273	83 7d ec 00	 cmp	 DWORD PTR _keysite$[ebp], 0
  00277	0f 84 82 06 00
	00		 je	 $LN5@create_hel
  0027d	81 7d c8 a0 00
	00 00		 cmp	 DWORD PTR _count$[ebp], 160 ; 000000a0H
  00284	0f 8d 75 06 00
	00		 jge	 $LN5@create_hel

; 2379 : 		{
; 2380 : 			if (get_local_entity_int_value (keysite, INT_TYPE_IN_USE))

  0028a	83 7d ec 00	 cmp	 DWORD PTR _keysite$[ebp], 0
  0028e	74 0d		 je	 SHORT $LN38@create_hel
  00290	8b 45 ec	 mov	 eax, DWORD PTR _keysite$[ebp]
  00293	8b 08		 mov	 ecx, DWORD PTR [eax]
  00295	89 8d 60 ff ff
	ff		 mov	 DWORD PTR tv180[ebp], ecx
  0029b	eb 20		 jmp	 SHORT $LN39@create_hel
$LN38@create_hel:
  0029d	68 4c 09 00 00	 push	 2380			; 0000094cH
  002a2	68 00 00 00 00	 push	 OFFSET ??_C@_0ED@GMECMFKH@c?3?2users?2nhv90?2projects?2eech?2ap@
  002a7	8b 15 00 00 00
	00		 mov	 edx, DWORD PTR ?null_entity_pointer_message@@3PBDB ; null_entity_pointer_message
  002ad	52		 push	 edx
  002ae	e8 00 00 00 00	 call	 ?process_assert@@YGXPBD0H@Z ; process_assert
  002b3	c7 85 60 ff ff
	ff 00 00 00 00	 mov	 DWORD PTR tv180[ebp], 0
$LN39@create_hel:
  002bd	b8 01 00 00 00	 mov	 eax, 1
  002c2	85 c0		 test	 eax, eax
  002c4	74 0c		 je	 SHORT $LN40@create_hel
  002c6	c7 85 5c ff ff
	ff 6d 00 00 00	 mov	 DWORD PTR tv187[ebp], 109 ; 0000006dH
  002d0	eb 20		 jmp	 SHORT $LN41@create_hel
$LN40@create_hel:
  002d2	68 4c 09 00 00	 push	 2380			; 0000094cH
  002d7	68 00 00 00 00	 push	 OFFSET ??_C@_0ED@GMECMFKH@c?3?2users?2nhv90?2projects?2eech?2ap@
  002dc	8b 0d 00 00 00
	00		 mov	 ecx, DWORD PTR ?overload_invalid_int_type_message@@3PBDB ; overload_invalid_int_type_message
  002e2	51		 push	 ecx
  002e3	e8 00 00 00 00	 call	 ?process_assert@@YGXPBD0H@Z ; process_assert
  002e8	c7 85 5c ff ff
	ff 00 00 00 00	 mov	 DWORD PTR tv187[ebp], 0
$LN41@create_hel:
  002f2	6a 6d		 push	 109			; 0000006dH
  002f4	8b 55 ec	 mov	 edx, DWORD PTR _keysite$[ebp]
  002f7	52		 push	 edx
  002f8	69 85 60 ff ff
	ff 5c 04 00 00	 imul	 eax, DWORD PTR tv180[ebp], 1116
  00302	8b 8d 5c ff ff
	ff		 mov	 ecx, DWORD PTR tv187[ebp]
  00308	8b 94 88 00 00
	00 00		 mov	 edx, DWORD PTR ?fn_get_local_entity_int_value@@3PAY0BBH@P6GHPAUENTITY@@W4INT_TYPES@@@ZA[eax+ecx*4]
  0030f	ff d2		 call	 edx
  00311	85 c0		 test	 eax, eax
  00313	0f 84 49 05 00
	00		 je	 $LN18@create_hel

; 2381 : 			{
; 2382 : 				if (get_local_entity_int_value (keysite, INT_TYPE_KEYSITE_USABLE_STATE) == KEYSITE_STATE_USABLE)

  00319	83 7d ec 00	 cmp	 DWORD PTR _keysite$[ebp], 0
  0031d	74 0d		 je	 SHORT $LN42@create_hel
  0031f	8b 45 ec	 mov	 eax, DWORD PTR _keysite$[ebp]
  00322	8b 08		 mov	 ecx, DWORD PTR [eax]
  00324	89 8d 60 ff ff
	ff		 mov	 DWORD PTR tv199[ebp], ecx
  0032a	eb 20		 jmp	 SHORT $LN43@create_hel
$LN42@create_hel:
  0032c	68 4e 09 00 00	 push	 2382			; 0000094eH
  00331	68 00 00 00 00	 push	 OFFSET ??_C@_0ED@GMECMFKH@c?3?2users?2nhv90?2projects?2eech?2ap@
  00336	8b 15 00 00 00
	00		 mov	 edx, DWORD PTR ?null_entity_pointer_message@@3PBDB ; null_entity_pointer_message
  0033c	52		 push	 edx
  0033d	e8 00 00 00 00	 call	 ?process_assert@@YGXPBD0H@Z ; process_assert
  00342	c7 85 60 ff ff
	ff 00 00 00 00	 mov	 DWORD PTR tv199[ebp], 0
$LN43@create_hel:
  0034c	b8 01 00 00 00	 mov	 eax, 1
  00351	85 c0		 test	 eax, eax
  00353	74 0c		 je	 SHORT $LN44@create_hel
  00355	c7 85 5c ff ff
	ff 70 00 00 00	 mov	 DWORD PTR tv206[ebp], 112 ; 00000070H
  0035f	eb 20		 jmp	 SHORT $LN45@create_hel
$LN44@create_hel:
  00361	68 4e 09 00 00	 push	 2382			; 0000094eH
  00366	68 00 00 00 00	 push	 OFFSET ??_C@_0ED@GMECMFKH@c?3?2users?2nhv90?2projects?2eech?2ap@
  0036b	8b 0d 00 00 00
	00		 mov	 ecx, DWORD PTR ?overload_invalid_int_type_message@@3PBDB ; overload_invalid_int_type_message
  00371	51		 push	 ecx
  00372	e8 00 00 00 00	 call	 ?process_assert@@YGXPBD0H@Z ; process_assert
  00377	c7 85 5c ff ff
	ff 00 00 00 00	 mov	 DWORD PTR tv206[ebp], 0
$LN45@create_hel:
  00381	6a 70		 push	 112			; 00000070H
  00383	8b 55 ec	 mov	 edx, DWORD PTR _keysite$[ebp]
  00386	52		 push	 edx
  00387	69 85 60 ff ff
	ff 5c 04 00 00	 imul	 eax, DWORD PTR tv199[ebp], 1116
  00391	8b 8d 5c ff ff
	ff		 mov	 ecx, DWORD PTR tv206[ebp]
  00397	8b 94 88 00 00
	00 00		 mov	 edx, DWORD PTR ?fn_get_local_entity_int_value@@3PAY0BBH@P6GHPAUENTITY@@W4INT_TYPES@@@ZA[eax+ecx*4]
  0039e	ff d2		 call	 edx
  003a0	85 c0		 test	 eax, eax
  003a2	0f 85 ba 04 00
	00		 jne	 $LN18@create_hel

; 2383 : 				{
; 2384 : 					if (get_local_entity_landing_entity (keysite, ENTITY_SUB_TYPE_LANDING_HELICOPTER))

  003a8	6a 02		 push	 2
  003aa	8b 45 ec	 mov	 eax, DWORD PTR _keysite$[ebp]
  003ad	50		 push	 eax
  003ae	e8 00 00 00 00	 call	 ?get_local_entity_landing_entity@@YGPAUENTITY@@PAU1@H@Z ; get_local_entity_landing_entity
  003b3	85 c0		 test	 eax, eax
  003b5	0f 84 a7 04 00
	00		 je	 $LN18@create_hel

; 2385 : 					{
; 2386 : 						ASSERT (count < MAX_HIGHLEVEL_TARGET_CHECKS);

  003bb	81 7d c8 a0 00
	00 00		 cmp	 DWORD PTR _count$[ebp], 160 ; 000000a0H
  003c2	7c 18		 jl	 SHORT $LN15@create_hel
  003c4	a1 00 00 00 00	 mov	 eax, DWORD PTR ?__LINE__Var@?0??create_helicopter_transfer_tasks@@YGXXZ@4JA
  003c9	83 c0 43	 add	 eax, 67			; 00000043H
  003cc	50		 push	 eax
  003cd	68 00 00 00 00	 push	 OFFSET ??_C@_0ED@GMECMFKH@c?3?2users?2nhv90?2projects?2eech?2ap@
  003d2	68 00 00 00 00	 push	 OFFSET ??_C@_0CE@FGAKBBGH@count?5?$DM?5MAX_HIGHLEVEL_TARGET_CH@
  003d7	e8 00 00 00 00	 call	 ?process_assert@@YGXPBD0H@Z ; process_assert
$LN15@create_hel:

; 2387 : 	
; 2388 : 						//
; 2389 : 						// Check group count
; 2390 : 						//
; 2391 : 	
; 2392 : 						idle_group_count = 0.0;

  003dc	0f 57 c0	 xorps	 xmm0, xmm0
  003df	f3 0f 11 45 b4	 movss	 DWORD PTR _idle_group_count$[ebp], xmm0

; 2393 : 	
; 2394 : 						group = get_local_entity_first_child (keysite, LIST_TYPE_KEYSITE_GROUP);

  003e4	83 7d ec 00	 cmp	 DWORD PTR _keysite$[ebp], 0
  003e8	74 0d		 je	 SHORT $LN46@create_hel
  003ea	8b 45 ec	 mov	 eax, DWORD PTR _keysite$[ebp]
  003ed	8b 08		 mov	 ecx, DWORD PTR [eax]
  003ef	89 8d 60 ff ff
	ff		 mov	 DWORD PTR tv228[ebp], ecx
  003f5	eb 24		 jmp	 SHORT $LN47@create_hel
$LN46@create_hel:
  003f7	8b 15 00 00 00
	00		 mov	 edx, DWORD PTR ?__LINE__Var@?0??create_helicopter_transfer_tasks@@YGXXZ@4JA
  003fd	83 c2 4b	 add	 edx, 75			; 0000004bH
  00400	52		 push	 edx
  00401	68 00 00 00 00	 push	 OFFSET ??_C@_0ED@GMECMFKH@c?3?2users?2nhv90?2projects?2eech?2ap@
  00406	a1 00 00 00 00	 mov	 eax, DWORD PTR ?null_entity_pointer_message@@3PBDB ; null_entity_pointer_message
  0040b	50		 push	 eax
  0040c	e8 00 00 00 00	 call	 ?process_assert@@YGXPBD0H@Z ; process_assert
  00411	c7 85 60 ff ff
	ff 00 00 00 00	 mov	 DWORD PTR tv228[ebp], 0
$LN47@create_hel:
  0041b	b9 01 00 00 00	 mov	 ecx, 1
  00420	85 c9		 test	 ecx, ecx
  00422	74 0c		 je	 SHORT $LN48@create_hel
  00424	c7 85 5c ff ff
	ff 16 00 00 00	 mov	 DWORD PTR tv236[ebp], 22 ; 00000016H
  0042e	eb 24		 jmp	 SHORT $LN49@create_hel
$LN48@create_hel:
  00430	8b 15 00 00 00
	00		 mov	 edx, DWORD PTR ?__LINE__Var@?0??create_helicopter_transfer_tasks@@YGXXZ@4JA
  00436	83 c2 4b	 add	 edx, 75			; 0000004bH
  00439	52		 push	 edx
  0043a	68 00 00 00 00	 push	 OFFSET ??_C@_0ED@GMECMFKH@c?3?2users?2nhv90?2projects?2eech?2ap@
  0043f	a1 00 00 00 00	 mov	 eax, DWORD PTR ?overload_invalid_list_type_message@@3PBDB ; overload_invalid_list_type_message
  00444	50		 push	 eax
  00445	e8 00 00 00 00	 call	 ?process_assert@@YGXPBD0H@Z ; process_assert
  0044a	c7 85 5c ff ff
	ff 00 00 00 00	 mov	 DWORD PTR tv236[ebp], 0
$LN49@create_hel:
  00454	6a 16		 push	 22			; 00000016H
  00456	8b 4d ec	 mov	 ecx, DWORD PTR _keysite$[ebp]
  00459	51		 push	 ecx
  0045a	69 95 60 ff ff
	ff b4 00 00 00	 imul	 edx, DWORD PTR tv228[ebp], 180
  00464	8b 85 5c ff ff
	ff		 mov	 eax, DWORD PTR tv236[ebp]
  0046a	8b 8c 82 00 00
	00 00		 mov	 ecx, DWORD PTR ?fn_get_local_entity_first_child@@3PAY0CN@P6GPAUENTITY@@PAU1@W4LIST_TYPES@@@ZA[edx+eax*4]
  00471	ff d1		 call	 ecx
  00473	89 45 f0	 mov	 DWORD PTR _group$[ebp], eax
$LN6@create_hel:

; 2395 : 	
; 2396 : 						while (group)

  00476	83 7d f0 00	 cmp	 DWORD PTR _group$[ebp], 0
  0047a	0f 84 db 01 00
	00		 je	 $LN7@create_hel

; 2397 : 						{
; 2398 : 							group_type = get_local_entity_int_value (group, INT_TYPE_ENTITY_SUB_TYPE);

  00480	83 7d f0 00	 cmp	 DWORD PTR _group$[ebp], 0
  00484	74 0d		 je	 SHORT $LN50@create_hel
  00486	8b 45 f0	 mov	 eax, DWORD PTR _group$[ebp]
  00489	8b 08		 mov	 ecx, DWORD PTR [eax]
  0048b	89 8d 60 ff ff
	ff		 mov	 DWORD PTR tv249[ebp], ecx
  00491	eb 24		 jmp	 SHORT $LN51@create_hel
$LN50@create_hel:
  00493	8b 15 00 00 00
	00		 mov	 edx, DWORD PTR ?__LINE__Var@?0??create_helicopter_transfer_tasks@@YGXXZ@4JA
  00499	83 c2 4f	 add	 edx, 79			; 0000004fH
  0049c	52		 push	 edx
  0049d	68 00 00 00 00	 push	 OFFSET ??_C@_0ED@GMECMFKH@c?3?2users?2nhv90?2projects?2eech?2ap@
  004a2	a1 00 00 00 00	 mov	 eax, DWORD PTR ?null_entity_pointer_message@@3PBDB ; null_entity_pointer_message
  004a7	50		 push	 eax
  004a8	e8 00 00 00 00	 call	 ?process_assert@@YGXPBD0H@Z ; process_assert
  004ad	c7 85 60 ff ff
	ff 00 00 00 00	 mov	 DWORD PTR tv249[ebp], 0
$LN51@create_hel:
  004b7	b9 01 00 00 00	 mov	 ecx, 1
  004bc	85 c9		 test	 ecx, ecx
  004be	74 0c		 je	 SHORT $LN52@create_hel
  004c0	c7 85 5c ff ff
	ff 34 00 00 00	 mov	 DWORD PTR tv257[ebp], 52 ; 00000034H
  004ca	eb 24		 jmp	 SHORT $LN53@create_hel
$LN52@create_hel:
  004cc	8b 15 00 00 00
	00		 mov	 edx, DWORD PTR ?__LINE__Var@?0??create_helicopter_transfer_tasks@@YGXXZ@4JA
  004d2	83 c2 4f	 add	 edx, 79			; 0000004fH
  004d5	52		 push	 edx
  004d6	68 00 00 00 00	 push	 OFFSET ??_C@_0ED@GMECMFKH@c?3?2users?2nhv90?2projects?2eech?2ap@
  004db	a1 00 00 00 00	 mov	 eax, DWORD PTR ?overload_invalid_int_type_message@@3PBDB ; overload_invalid_int_type_message
  004e0	50		 push	 eax
  004e1	e8 00 00 00 00	 call	 ?process_assert@@YGXPBD0H@Z ; process_assert
  004e6	c7 85 5c ff ff
	ff 00 00 00 00	 mov	 DWORD PTR tv257[ebp], 0
$LN53@create_hel:
  004f0	6a 34		 push	 52			; 00000034H
  004f2	8b 4d f0	 mov	 ecx, DWORD PTR _group$[ebp]
  004f5	51		 push	 ecx
  004f6	69 95 60 ff ff
	ff 5c 04 00 00	 imul	 edx, DWORD PTR tv249[ebp], 1116
  00500	8b 85 5c ff ff
	ff		 mov	 eax, DWORD PTR tv257[ebp]
  00506	8b 8c 82 00 00
	00 00		 mov	 ecx, DWORD PTR ?fn_get_local_entity_int_value@@3PAY0BBH@P6GHPAUENTITY@@W4INT_TYPES@@@ZA[edx+eax*4]
  0050d	ff d1		 call	 ecx
  0050f	89 45 c4	 mov	 DWORD PTR _group_type$[ebp], eax

; 2399 : 	
; 2400 : 							if (group_database [group_type].default_landing_type == ENTITY_SUB_TYPE_LANDING_HELICOPTER)

  00512	6b 45 c4 64	 imul	 eax, DWORD PTR _group_type$[ebp], 100
  00516	83 b8 18 00 00
	00 02		 cmp	 DWORD PTR ?group_database@@3PAUGROUP_DATA@@A[eax+24], 2
  0051d	0f 85 a1 00 00
	00		 jne	 $LN17@create_hel

; 2401 : 							{
; 2402 : 								if (get_local_entity_int_value (group, INT_TYPE_GROUP_MODE) == GROUP_MODE_IDLE)

  00523	83 7d f0 00	 cmp	 DWORD PTR _group$[ebp], 0
  00527	74 0d		 je	 SHORT $LN54@create_hel
  00529	8b 45 f0	 mov	 eax, DWORD PTR _group$[ebp]
  0052c	8b 08		 mov	 ecx, DWORD PTR [eax]
  0052e	89 8d 60 ff ff
	ff		 mov	 DWORD PTR tv272[ebp], ecx
  00534	eb 20		 jmp	 SHORT $LN55@create_hel
$LN54@create_hel:
  00536	68 62 09 00 00	 push	 2402			; 00000962H
  0053b	68 00 00 00 00	 push	 OFFSET ??_C@_0ED@GMECMFKH@c?3?2users?2nhv90?2projects?2eech?2ap@
  00540	8b 15 00 00 00
	00		 mov	 edx, DWORD PTR ?null_entity_pointer_message@@3PBDB ; null_entity_pointer_message
  00546	52		 push	 edx
  00547	e8 00 00 00 00	 call	 ?process_assert@@YGXPBD0H@Z ; process_assert
  0054c	c7 85 60 ff ff
	ff 00 00 00 00	 mov	 DWORD PTR tv272[ebp], 0
$LN55@create_hel:
  00556	b8 01 00 00 00	 mov	 eax, 1
  0055b	85 c0		 test	 eax, eax
  0055d	74 0c		 je	 SHORT $LN56@create_hel
  0055f	c7 85 5c ff ff
	ff 4d 00 00 00	 mov	 DWORD PTR tv279[ebp], 77 ; 0000004dH
  00569	eb 20		 jmp	 SHORT $LN57@create_hel
$LN56@create_hel:
  0056b	68 62 09 00 00	 push	 2402			; 00000962H
  00570	68 00 00 00 00	 push	 OFFSET ??_C@_0ED@GMECMFKH@c?3?2users?2nhv90?2projects?2eech?2ap@
  00575	8b 0d 00 00 00
	00		 mov	 ecx, DWORD PTR ?overload_invalid_int_type_message@@3PBDB ; overload_invalid_int_type_message
  0057b	51		 push	 ecx
  0057c	e8 00 00 00 00	 call	 ?process_assert@@YGXPBD0H@Z ; process_assert
  00581	c7 85 5c ff ff
	ff 00 00 00 00	 mov	 DWORD PTR tv279[ebp], 0
$LN57@create_hel:
  0058b	6a 4d		 push	 77			; 0000004dH
  0058d	8b 55 f0	 mov	 edx, DWORD PTR _group$[ebp]
  00590	52		 push	 edx
  00591	69 85 60 ff ff
	ff 5c 04 00 00	 imul	 eax, DWORD PTR tv272[ebp], 1116
  0059b	8b 8d 5c ff ff
	ff		 mov	 ecx, DWORD PTR tv279[ebp]
  005a1	8b 94 88 00 00
	00 00		 mov	 edx, DWORD PTR ?fn_get_local_entity_int_value@@3PAY0BBH@P6GHPAUENTITY@@W4INT_TYPES@@@ZA[eax+ecx*4]
  005a8	ff d2		 call	 edx
  005aa	85 c0		 test	 eax, eax
  005ac	75 16		 jne	 SHORT $LN17@create_hel

; 2403 : 								{
; 2404 : 									idle_group_count += 1.0;

  005ae	f3 0f 5a 45 b4	 cvtss2sd xmm0, DWORD PTR _idle_group_count$[ebp]
  005b3	f2 0f 58 05 00
	00 00 00	 addsd	 xmm0, QWORD PTR __real@3ff0000000000000
  005bb	f2 0f 5a c0	 cvtsd2ss xmm0, xmm0
  005bf	f3 0f 11 45 b4	 movss	 DWORD PTR _idle_group_count$[ebp], xmm0
$LN17@create_hel:

; 2405 : 								}
; 2406 : 							}
; 2407 : 	
; 2408 : 							group = get_local_entity_child_succ (group, LIST_TYPE_KEYSITE_GROUP);

  005c4	83 7d f0 00	 cmp	 DWORD PTR _group$[ebp], 0
  005c8	74 0d		 je	 SHORT $LN58@create_hel
  005ca	8b 45 f0	 mov	 eax, DWORD PTR _group$[ebp]
  005cd	8b 08		 mov	 ecx, DWORD PTR [eax]
  005cf	89 8d 60 ff ff
	ff		 mov	 DWORD PTR tv295[ebp], ecx
  005d5	eb 24		 jmp	 SHORT $LN59@create_hel
$LN58@create_hel:
  005d7	8b 15 00 00 00
	00		 mov	 edx, DWORD PTR ?__LINE__Var@?0??create_helicopter_transfer_tasks@@YGXXZ@4JA
  005dd	83 c2 59	 add	 edx, 89			; 00000059H
  005e0	52		 push	 edx
  005e1	68 00 00 00 00	 push	 OFFSET ??_C@_0ED@GMECMFKH@c?3?2users?2nhv90?2projects?2eech?2ap@
  005e6	a1 00 00 00 00	 mov	 eax, DWORD PTR ?null_entity_pointer_message@@3PBDB ; null_entity_pointer_message
  005eb	50		 push	 eax
  005ec	e8 00 00 00 00	 call	 ?process_assert@@YGXPBD0H@Z ; process_assert
  005f1	c7 85 60 ff ff
	ff 00 00 00 00	 mov	 DWORD PTR tv295[ebp], 0
$LN59@create_hel:
  005fb	b9 01 00 00 00	 mov	 ecx, 1
  00600	85 c9		 test	 ecx, ecx
  00602	74 0c		 je	 SHORT $LN60@create_hel
  00604	c7 85 5c ff ff
	ff 16 00 00 00	 mov	 DWORD PTR tv303[ebp], 22 ; 00000016H
  0060e	eb 24		 jmp	 SHORT $LN61@create_hel
$LN60@create_hel:
  00610	8b 15 00 00 00
	00		 mov	 edx, DWORD PTR ?__LINE__Var@?0??create_helicopter_transfer_tasks@@YGXXZ@4JA
  00616	83 c2 59	 add	 edx, 89			; 00000059H
  00619	52		 push	 edx
  0061a	68 00 00 00 00	 push	 OFFSET ??_C@_0ED@GMECMFKH@c?3?2users?2nhv90?2projects?2eech?2ap@
  0061f	a1 00 00 00 00	 mov	 eax, DWORD PTR ?overload_invalid_list_type_message@@3PBDB ; overload_invalid_list_type_message
  00624	50		 push	 eax
  00625	e8 00 00 00 00	 call	 ?process_assert@@YGXPBD0H@Z ; process_assert
  0062a	c7 85 5c ff ff
	ff 00 00 00 00	 mov	 DWORD PTR tv303[ebp], 0
$LN61@create_hel:
  00634	6a 16		 push	 22			; 00000016H
  00636	8b 4d f0	 mov	 ecx, DWORD PTR _group$[ebp]
  00639	51		 push	 ecx
  0063a	69 95 60 ff ff
	ff b4 00 00 00	 imul	 edx, DWORD PTR tv295[ebp], 180
  00644	8b 85 5c ff ff
	ff		 mov	 eax, DWORD PTR tv303[ebp]
  0064a	8b 8c 82 00 00
	00 00		 mov	 ecx, DWORD PTR ?fn_get_local_entity_child_succ@@3PAY0CN@P6GPAUENTITY@@PAU1@W4LIST_TYPES@@@ZA[edx+eax*4]
  00651	ff d1		 call	 ecx
  00653	89 45 f0	 mov	 DWORD PTR _group$[ebp], eax

; 2409 : 						}	

  00656	e9 1b fe ff ff	 jmp	 $LN6@create_hel
$LN7@create_hel:

; 2410 : 		
; 2411 : 						//
; 2412 : 						// get sector
; 2413 : 						//
; 2414 : 		
; 2415 : 						pos = get_local_entity_vec3d_ptr (keysite, VEC3D_TYPE_POSITION);

  0065b	83 7d ec 00	 cmp	 DWORD PTR _keysite$[ebp], 0
  0065f	74 0d		 je	 SHORT $LN62@create_hel
  00661	8b 45 ec	 mov	 eax, DWORD PTR _keysite$[ebp]
  00664	8b 08		 mov	 ecx, DWORD PTR [eax]
  00666	89 8d 60 ff ff
	ff		 mov	 DWORD PTR tv315[ebp], ecx
  0066c	eb 24		 jmp	 SHORT $LN63@create_hel
$LN62@create_hel:
  0066e	8b 15 00 00 00
	00		 mov	 edx, DWORD PTR ?__LINE__Var@?0??create_helicopter_transfer_tasks@@YGXXZ@4JA
  00674	83 c2 60	 add	 edx, 96			; 00000060H
  00677	52		 push	 edx
  00678	68 00 00 00 00	 push	 OFFSET ??_C@_0ED@GMECMFKH@c?3?2users?2nhv90?2projects?2eech?2ap@
  0067d	a1 00 00 00 00	 mov	 eax, DWORD PTR ?null_entity_pointer_message@@3PBDB ; null_entity_pointer_message
  00682	50		 push	 eax
  00683	e8 00 00 00 00	 call	 ?process_assert@@YGXPBD0H@Z ; process_assert
  00688	c7 85 60 ff ff
	ff 00 00 00 00	 mov	 DWORD PTR tv315[ebp], 0
$LN63@create_hel:
  00692	b9 01 00 00 00	 mov	 ecx, 1
  00697	85 c9		 test	 ecx, ecx
  00699	74 0c		 je	 SHORT $LN64@create_hel
  0069b	c7 85 5c ff ff
	ff 08 00 00 00	 mov	 DWORD PTR tv323[ebp], 8
  006a5	eb 24		 jmp	 SHORT $LN65@create_hel
$LN64@create_hel:
  006a7	8b 15 00 00 00
	00		 mov	 edx, DWORD PTR ?__LINE__Var@?0??create_helicopter_transfer_tasks@@YGXXZ@4JA
  006ad	83 c2 60	 add	 edx, 96			; 00000060H
  006b0	52		 push	 edx
  006b1	68 00 00 00 00	 push	 OFFSET ??_C@_0ED@GMECMFKH@c?3?2users?2nhv90?2projects?2eech?2ap@
  006b6	a1 00 00 00 00	 mov	 eax, DWORD PTR ?overload_invalid_vec3d_type_message@@3PBDB ; overload_invalid_vec3d_type_message
  006bb	50		 push	 eax
  006bc	e8 00 00 00 00	 call	 ?process_assert@@YGXPBD0H@Z ; process_assert
  006c1	c7 85 5c ff ff
	ff 00 00 00 00	 mov	 DWORD PTR tv323[ebp], 0
$LN65@create_hel:
  006cb	6a 08		 push	 8
  006cd	8b 4d ec	 mov	 ecx, DWORD PTR _keysite$[ebp]
  006d0	51		 push	 ecx
  006d1	6b 95 60 ff ff
	ff 60		 imul	 edx, DWORD PTR tv315[ebp], 96
  006d8	8b 85 5c ff ff
	ff		 mov	 eax, DWORD PTR tv323[ebp]
  006de	8b 8c 82 00 00
	00 00		 mov	 ecx, DWORD PTR ?fn_get_local_entity_vec3d_ptr@@3PAY0BI@P6GPAUVEC3D@@PAUENTITY@@W4VEC3D_TYPES@@@ZA[edx+eax*4]
  006e5	ff d1		 call	 ecx
  006e7	89 45 dc	 mov	 DWORD PTR _pos$[ebp], eax

; 2416 : 									
; 2417 : 						get_x_sector (x, pos->x);

  006ea	8d 45 d8	 lea	 eax, DWORD PTR _x$[ebp]
  006ed	50		 push	 eax
  006ee	8b 4d dc	 mov	 ecx, DWORD PTR _pos$[ebp]
  006f1	f3 0f 10 01	 movss	 xmm0, DWORD PTR [ecx]
  006f5	51		 push	 ecx
  006f6	f3 0f 11 04 24	 movss	 DWORD PTR [esp], xmm0
  006fb	e8 00 00 00 00	 call	 ?convert_float_to_int@@YGXMPAH@Z ; convert_float_to_int
  00700	8b 45 d8	 mov	 eax, DWORD PTR _x$[ebp]
  00703	99		 cdq
  00704	f7 3d 00 00 00
	00		 idiv	 DWORD PTR ?world_map@@3UWORLD_MAP_DATA@@A
  0070a	89 45 d8	 mov	 DWORD PTR _x$[ebp], eax

; 2418 : 						get_z_sector (z, pos->z);

  0070d	8d 45 d4	 lea	 eax, DWORD PTR _z$[ebp]
  00710	50		 push	 eax
  00711	8b 4d dc	 mov	 ecx, DWORD PTR _pos$[ebp]
  00714	f3 0f 10 41 08	 movss	 xmm0, DWORD PTR [ecx+8]
  00719	51		 push	 ecx
  0071a	f3 0f 11 04 24	 movss	 DWORD PTR [esp], xmm0
  0071f	e8 00 00 00 00	 call	 ?convert_float_to_int@@YGXMPAH@Z ; convert_float_to_int
  00724	8b 45 d4	 mov	 eax, DWORD PTR _z$[ebp]
  00727	99		 cdq
  00728	f7 3d 00 00 00
	00		 idiv	 DWORD PTR ?world_map@@3UWORLD_MAP_DATA@@A
  0072e	89 45 d4	 mov	 DWORD PTR _z$[ebp], eax

; 2419 : 		
; 2420 : 						//
; 2421 : 						// Calculate keysite rating
; 2422 : 						//
; 2423 : 	
; 2424 : 						importance_rating = get_imap_value (IMAP_IMPORTANCE, side, x, z);

  00731	8b 45 d4	 mov	 eax, DWORD PTR _z$[ebp]
  00734	50		 push	 eax
  00735	8b 4d d8	 mov	 ecx, DWORD PTR _x$[ebp]
  00738	51		 push	 ecx
  00739	8b 55 fc	 mov	 edx, DWORD PTR _side$[ebp]
  0073c	52		 push	 edx
  0073d	6a 00		 push	 0
  0073f	e8 00 00 00 00	 call	 ?get_imap_value@@YGMW4IMAP_TYPES@@W4ENTITY_SIDES@@HH@Z ; get_imap_value
  00744	d9 1d 00 00 00
	00		 fstp	 DWORD PTR ?importance_rating@@3MA

; 2425 : 	
; 2426 : 						air_defence_rating = get_imap_value (IMAP_AIR_DEFENCE, side, x, z);

  0074a	8b 45 d4	 mov	 eax, DWORD PTR _z$[ebp]
  0074d	50		 push	 eax
  0074e	8b 4d d8	 mov	 ecx, DWORD PTR _x$[ebp]
  00751	51		 push	 ecx
  00752	8b 55 fc	 mov	 edx, DWORD PTR _side$[ebp]
  00755	52		 push	 edx
  00756	6a 02		 push	 2
  00758	e8 00 00 00 00	 call	 ?get_imap_value@@YGMW4IMAP_TYPES@@W4ENTITY_SIDES@@HH@Z ; get_imap_value
  0075d	d9 1d 00 00 00
	00		 fstp	 DWORD PTR ?air_defence_rating@@3MA

; 2427 : 	
; 2428 : 						surface_defence_rating = get_imap_value (IMAP_SURFACE_DEFENCE, side, x, z);

  00763	8b 45 d4	 mov	 eax, DWORD PTR _z$[ebp]
  00766	50		 push	 eax
  00767	8b 4d d8	 mov	 ecx, DWORD PTR _x$[ebp]
  0076a	51		 push	 ecx
  0076b	8b 55 fc	 mov	 edx, DWORD PTR _side$[ebp]
  0076e	52		 push	 edx
  0076f	6a 03		 push	 3
  00771	e8 00 00 00 00	 call	 ?get_imap_value@@YGMW4IMAP_TYPES@@W4ENTITY_SIDES@@HH@Z ; get_imap_value
  00776	d9 1d 00 00 00
	00		 fstp	 DWORD PTR ?surface_defence_rating@@3MA

; 2429 : 	
; 2430 : 						base_distance_rating = get_imap_value (IMAP_BASE_DISTANCE, side, x, z);

  0077c	8b 45 d4	 mov	 eax, DWORD PTR _z$[ebp]
  0077f	50		 push	 eax
  00780	8b 4d d8	 mov	 ecx, DWORD PTR _x$[ebp]
  00783	51		 push	 ecx
  00784	8b 55 fc	 mov	 edx, DWORD PTR _side$[ebp]
  00787	52		 push	 edx
  00788	6a 01		 push	 1
  0078a	e8 00 00 00 00	 call	 ?get_imap_value@@YGMW4IMAP_TYPES@@W4ENTITY_SIDES@@HH@Z ; get_imap_value
  0078f	d9 1d 00 00 00
	00		 fstp	 DWORD PTR ?base_distance_rating@@3MA

; 2431 : 	
; 2432 : 						rating = 0.0;

  00795	0f 57 c0	 xorps	 xmm0, xmm0
  00798	f3 0f 11 45 b8	 movss	 DWORD PTR _rating$[ebp], xmm0

; 2433 : 		
; 2434 : 						// high enemy importance
; 2435 : //						rating += (importance_rating);
; 2436 : 	
; 2437 : 						// high enemy S-A threat 
; 2438 : //						rating += (air_defence_rating);
; 2439 : 	
; 2440 : 						// high enemy S-S threat
; 2441 : //						rating += (surface_defence_rating);
; 2442 : 	
; 2443 : 						// close to enemy base
; 2444 : 						rating += 4.0 * base_distance_rating;

  0079d	f3 0f 5a 05 00
	00 00 00	 cvtss2sd xmm0, DWORD PTR ?base_distance_rating@@3MA
  007a5	f2 0f 59 05 00
	00 00 00	 mulsd	 xmm0, QWORD PTR __real@4010000000000000
  007ad	f3 0f 5a 4d b8	 cvtss2sd xmm1, DWORD PTR _rating$[ebp]
  007b2	f2 0f 58 c8	 addsd	 xmm1, xmm0
  007b6	f2 0f 5a c1	 cvtsd2ss xmm0, xmm1
  007ba	f3 0f 11 45 b8	 movss	 DWORD PTR _rating$[ebp], xmm0

; 2445 : 	
; 2446 : 						// low idle group count
; 2447 : 						idle_group_count = min (idle_group_count, 4.0f) * 0.25;

  007bf	f3 0f 10 05 00
	00 00 00	 movss	 xmm0, DWORD PTR __real@40800000
  007c7	f3 0f 11 85 6c
	ff ff ff	 movss	 DWORD PTR $T3[ebp], xmm0
  007cf	8d 85 6c ff ff
	ff		 lea	 eax, DWORD PTR $T3[ebp]
  007d5	50		 push	 eax
  007d6	8d 4d b4	 lea	 ecx, DWORD PTR _idle_group_count$[ebp]
  007d9	51		 push	 ecx
  007da	e8 00 00 00 00	 call	 ??$min@M@std@@YGABMABM0@Z ; std::min<float>
  007df	f3 0f 5a 00	 cvtss2sd xmm0, DWORD PTR [eax]
  007e3	f2 0f 59 05 00
	00 00 00	 mulsd	 xmm0, QWORD PTR __real@3fd0000000000000
  007eb	f2 0f 5a c0	 cvtsd2ss xmm0, xmm0
  007ef	f3 0f 11 45 b4	 movss	 DWORD PTR _idle_group_count$[ebp], xmm0

; 2448 : 	
; 2449 : 						rating += 4.0 * (1.0 - idle_group_count);

  007f4	f3 0f 5a 45 b4	 cvtss2sd xmm0, DWORD PTR _idle_group_count$[ebp]
  007f9	f2 0f 10 0d 00
	00 00 00	 movsd	 xmm1, QWORD PTR __real@3ff0000000000000
  00801	f2 0f 5c c8	 subsd	 xmm1, xmm0
  00805	f2 0f 59 0d 00
	00 00 00	 mulsd	 xmm1, QWORD PTR __real@4010000000000000
  0080d	f3 0f 5a 45 b8	 cvtss2sd xmm0, DWORD PTR _rating$[ebp]
  00812	f2 0f 58 c1	 addsd	 xmm0, xmm1
  00816	f2 0f 5a c0	 cvtsd2ss xmm0, xmm0
  0081a	f3 0f 11 45 b8	 movss	 DWORD PTR _rating$[ebp], xmm0

; 2450 : 	
; 2451 : 						max_rating = 8.0;

  0081f	f3 0f 10 05 00
	00 00 00	 movss	 xmm0, DWORD PTR __real@41000000
  00827	f3 0f 11 45 b0	 movss	 DWORD PTR _max_rating$[ebp], xmm0

; 2452 : 	
; 2453 : 						//
; 2454 : 						// Store
; 2455 : 						//
; 2456 : 		
; 2457 : 						if (rating > 0.0)

  0082c	f3 0f 5a 45 b8	 cvtss2sd xmm0, DWORD PTR _rating$[ebp]
  00831	66 0f 2f 05 00
	00 00 00	 comisd	 xmm0, QWORD PTR __real@0000000000000000
  00839	76 27		 jbe	 SHORT $LN18@create_hel

; 2458 : 						{
; 2459 : 							target_list [count] = keysite;

  0083b	8b 45 c8	 mov	 eax, DWORD PTR _count$[ebp]
  0083e	8b 4d ec	 mov	 ecx, DWORD PTR _keysite$[ebp]
  00841	89 0c 85 00 00
	00 00		 mov	 DWORD PTR ?target_list@@3PAPAUENTITY@@A[eax*4], ecx

; 2460 : 		
; 2461 : 							target_rating [count] = rating;

  00848	8b 45 c8	 mov	 eax, DWORD PTR _count$[ebp]
  0084b	f3 0f 10 45 b8	 movss	 xmm0, DWORD PTR _rating$[ebp]
  00850	f3 0f 11 04 85
	00 00 00 00	 movss	 DWORD PTR ?target_rating@@3PAMA[eax*4], xmm0

; 2462 : 		
; 2463 : 							count ++;

  00859	8b 45 c8	 mov	 eax, DWORD PTR _count$[ebp]
  0085c	83 c0 01	 add	 eax, 1
  0085f	89 45 c8	 mov	 DWORD PTR _count$[ebp], eax
$LN18@create_hel:

; 2464 : 						}
; 2465 : 					}
; 2466 : 				}
; 2467 : 			}	
; 2468 : 
; 2469 : 			keysite = get_local_entity_child_succ (keysite, LIST_TYPE_KEYSITE_FORCE);

  00862	83 7d ec 00	 cmp	 DWORD PTR _keysite$[ebp], 0
  00866	74 0d		 je	 SHORT $LN66@create_hel
  00868	8b 45 ec	 mov	 eax, DWORD PTR _keysite$[ebp]
  0086b	8b 08		 mov	 ecx, DWORD PTR [eax]
  0086d	89 8d 60 ff ff
	ff		 mov	 DWORD PTR tv389[ebp], ecx
  00873	eb 27		 jmp	 SHORT $LN67@create_hel
$LN66@create_hel:
  00875	8b 15 00 00 00
	00		 mov	 edx, DWORD PTR ?__LINE__Var@?0??create_helicopter_transfer_tasks@@YGXXZ@4JA
  0087b	81 c2 96 00 00
	00		 add	 edx, 150		; 00000096H
  00881	52		 push	 edx
  00882	68 00 00 00 00	 push	 OFFSET ??_C@_0ED@GMECMFKH@c?3?2users?2nhv90?2projects?2eech?2ap@
  00887	a1 00 00 00 00	 mov	 eax, DWORD PTR ?null_entity_pointer_message@@3PBDB ; null_entity_pointer_message
  0088c	50		 push	 eax
  0088d	e8 00 00 00 00	 call	 ?process_assert@@YGXPBD0H@Z ; process_assert
  00892	c7 85 60 ff ff
	ff 00 00 00 00	 mov	 DWORD PTR tv389[ebp], 0
$LN67@create_hel:
  0089c	b9 01 00 00 00	 mov	 ecx, 1
  008a1	85 c9		 test	 ecx, ecx
  008a3	74 0c		 je	 SHORT $LN68@create_hel
  008a5	c7 85 5c ff ff
	ff 15 00 00 00	 mov	 DWORD PTR tv397[ebp], 21 ; 00000015H
  008af	eb 27		 jmp	 SHORT $LN69@create_hel
$LN68@create_hel:
  008b1	8b 15 00 00 00
	00		 mov	 edx, DWORD PTR ?__LINE__Var@?0??create_helicopter_transfer_tasks@@YGXXZ@4JA
  008b7	81 c2 96 00 00
	00		 add	 edx, 150		; 00000096H
  008bd	52		 push	 edx
  008be	68 00 00 00 00	 push	 OFFSET ??_C@_0ED@GMECMFKH@c?3?2users?2nhv90?2projects?2eech?2ap@
  008c3	a1 00 00 00 00	 mov	 eax, DWORD PTR ?overload_invalid_list_type_message@@3PBDB ; overload_invalid_list_type_message
  008c8	50		 push	 eax
  008c9	e8 00 00 00 00	 call	 ?process_assert@@YGXPBD0H@Z ; process_assert
  008ce	c7 85 5c ff ff
	ff 00 00 00 00	 mov	 DWORD PTR tv397[ebp], 0
$LN69@create_hel:
  008d8	6a 15		 push	 21			; 00000015H
  008da	8b 4d ec	 mov	 ecx, DWORD PTR _keysite$[ebp]
  008dd	51		 push	 ecx
  008de	69 95 60 ff ff
	ff b4 00 00 00	 imul	 edx, DWORD PTR tv389[ebp], 180
  008e8	8b 85 5c ff ff
	ff		 mov	 eax, DWORD PTR tv397[ebp]
  008ee	8b 8c 82 00 00
	00 00		 mov	 ecx, DWORD PTR ?fn_get_local_entity_child_succ@@3PAY0CN@P6GPAUENTITY@@PAU1@W4LIST_TYPES@@@ZA[edx+eax*4]
  008f5	ff d1		 call	 ecx
  008f7	89 45 ec	 mov	 DWORD PTR _keysite$[ebp], eax

; 2470 : 		}

  008fa	e9 74 f9 ff ff	 jmp	 $LN4@create_hel
$LN5@create_hel:

; 2471 : 
; 2472 : 		//
; 2473 : 		// Create TRANSFER tasks
; 2474 : 		//
; 2475 : 
; 2476 : 		if (count > 0)

  008ff	83 7d c8 00	 cmp	 DWORD PTR _count$[ebp], 0
  00903	0f 8e b4 02 00
	00		 jle	 $LN9@create_hel

; 2477 : 		{
; 2478 : 			quicksort_entity_list (target_list, count, target_rating);

  00909	68 00 00 00 00	 push	 OFFSET ?target_rating@@3PAMA
  0090e	8b 45 c8	 mov	 eax, DWORD PTR _count$[ebp]
  00911	50		 push	 eax
  00912	68 00 00 00 00	 push	 OFFSET ?target_list@@3PAPAUENTITY@@A
  00917	e8 00 00 00 00	 call	 ?quicksort_entity_list@@YGXPAPAUENTITY@@HPAM@Z ; quicksort_entity_list

; 2479 : 
; 2480 : 			keysite_count = min (count / 2, CREATE_TRANSFER_TASK_COUNT);

  0091c	c7 85 68 ff ff
	ff 03 00 00 00	 mov	 DWORD PTR $T2[ebp], 3
  00926	8b 45 c8	 mov	 eax, DWORD PTR _count$[ebp]
  00929	99		 cdq
  0092a	2b c2		 sub	 eax, edx
  0092c	d1 f8		 sar	 eax, 1
  0092e	89 85 64 ff ff
	ff		 mov	 DWORD PTR $T1[ebp], eax
  00934	8d 85 68 ff ff
	ff		 lea	 eax, DWORD PTR $T2[ebp]
  0093a	50		 push	 eax
  0093b	8d 8d 64 ff ff
	ff		 lea	 ecx, DWORD PTR $T1[ebp]
  00941	51		 push	 ecx
  00942	e8 00 00 00 00	 call	 ??$min@H@std@@YGABHABH0@Z ; std::min<int>
  00947	8b 10		 mov	 edx, DWORD PTR [eax]
  00949	89 55 c0	 mov	 DWORD PTR _keysite_count$[ebp], edx

; 2481 : 
; 2482 : 			loop2 = count - 1;

  0094c	8b 45 c8	 mov	 eax, DWORD PTR _count$[ebp]
  0094f	83 e8 01	 sub	 eax, 1
  00952	89 45 cc	 mov	 DWORD PTR _loop2$[ebp], eax

; 2483 : 
; 2484 : 			for (loop = 0; loop < keysite_count; loop ++)

  00955	c7 45 d0 00 00
	00 00		 mov	 DWORD PTR _loop$[ebp], 0
  0095c	eb 09		 jmp	 SHORT $LN10@create_hel
$LN8@create_hel:
  0095e	8b 45 d0	 mov	 eax, DWORD PTR _loop$[ebp]
  00961	83 c0 01	 add	 eax, 1
  00964	89 45 d0	 mov	 DWORD PTR _loop$[ebp], eax
$LN10@create_hel:
  00967	8b 45 d0	 mov	 eax, DWORD PTR _loop$[ebp]
  0096a	3b 45 c0	 cmp	 eax, DWORD PTR _keysite_count$[ebp]
  0096d	0f 8d 4a 02 00
	00		 jge	 $LN9@create_hel

; 2485 : 			{
; 2486 : //				if ((target_rating [loop] > (max_rating * 0.5)) && (target_rating [loop2] < (max_rating * 0.5)))
; 2487 : 				{
; 2488 : 					keysite = target_list [loop];

  00973	8b 45 d0	 mov	 eax, DWORD PTR _loop$[ebp]
  00976	8b 0c 85 00 00
	00 00		 mov	 ecx, DWORD PTR ?target_list@@3PAPAUENTITY@@A[eax*4]
  0097d	89 4d ec	 mov	 DWORD PTR _keysite$[ebp], ecx

; 2489 : 	
; 2490 : 					if (!entity_is_object_of_task (keysite, ENTITY_SUB_TYPE_TASK_TRANSFER_HELICOPTER, this_side))

  00980	8b 45 f8	 mov	 eax, DWORD PTR _this_side$[ebp]
  00983	50		 push	 eax
  00984	6a 19		 push	 25			; 00000019H
  00986	8b 4d ec	 mov	 ecx, DWORD PTR _keysite$[ebp]
  00989	51		 push	 ecx
  0098a	e8 00 00 00 00	 call	 ?entity_is_object_of_task@@YGHPAUENTITY@@HW4ENTITY_SIDES@@@Z ; entity_is_object_of_task
  0098f	85 c0		 test	 eax, eax
  00991	0f 85 21 02 00
	00		 jne	 $LN22@create_hel

; 2491 : 					{
; 2492 : 						//
; 2493 : 						// Check landing sites free
; 2494 : 						//
; 2495 : 	
; 2496 : 						landing_en = get_local_entity_landing_entity (keysite, ENTITY_SUB_TYPE_LANDING_HELICOPTER);

  00997	6a 02		 push	 2
  00999	8b 45 ec	 mov	 eax, DWORD PTR _keysite$[ebp]
  0099c	50		 push	 eax
  0099d	e8 00 00 00 00	 call	 ?get_local_entity_landing_entity@@YGPAUENTITY@@PAU1@H@Z ; get_local_entity_landing_entity
  009a2	89 45 e4	 mov	 DWORD PTR _landing_en$[ebp], eax

; 2497 : 	
; 2498 : 						ASSERT (landing_en);

  009a5	83 7d e4 00	 cmp	 DWORD PTR _landing_en$[ebp], 0
  009a9	75 1a		 jne	 SHORT $LN21@create_hel
  009ab	a1 00 00 00 00	 mov	 eax, DWORD PTR ?__LINE__Var@?0??create_helicopter_transfer_tasks@@YGXXZ@4JA
  009b0	05 b3 00 00 00	 add	 eax, 179		; 000000b3H
  009b5	50		 push	 eax
  009b6	68 00 00 00 00	 push	 OFFSET ??_C@_0ED@GMECMFKH@c?3?2users?2nhv90?2projects?2eech?2ap@
  009bb	68 00 00 00 00	 push	 OFFSET ??_C@_0L@BBFNENIC@landing_en@
  009c0	e8 00 00 00 00	 call	 ?process_assert@@YGXPBD0H@Z ; process_assert
$LN21@create_hel:

; 2499 : 						
; 2500 : 						landing_raw = (landing*) get_local_entity_data (landing_en);

  009c5	8b 45 e4	 mov	 eax, DWORD PTR _landing_en$[ebp]
  009c8	8b 48 04	 mov	 ecx, DWORD PTR [eax+4]
  009cb	89 4d e0	 mov	 DWORD PTR _landing_raw$[ebp], ecx

; 2501 : 	
; 2502 : 						//if (landing_raw->free_landing_sites >= 4)
; 2503 : 						if (get_keysite_landing_sites_available (keysite, ENTITY_SUB_TYPE_LANDING_HELICOPTER))

  009ce	6a 02		 push	 2
  009d0	8b 45 ec	 mov	 eax, DWORD PTR _keysite$[ebp]
  009d3	50		 push	 eax
  009d4	e8 00 00 00 00	 call	 ?get_keysite_landing_sites_available@@YGHPAUENTITY@@H@Z ; get_keysite_landing_sites_available
  009d9	85 c0		 test	 eax, eax
  009db	0f 84 d7 01 00
	00		 je	 $LN22@create_hel

; 2504 : 						{
; 2505 : 							donar = target_list [loop2];	

  009e1	8b 45 cc	 mov	 eax, DWORD PTR _loop2$[ebp]
  009e4	8b 0c 85 00 00
	00 00		 mov	 ecx, DWORD PTR ?target_list@@3PAPAUENTITY@@A[eax*4]
  009eb	89 4d e8	 mov	 DWORD PTR _donar$[ebp], ecx

; 2506 : 						
; 2507 : 							priority = ((target_rating [loop] - target_rating [loop2]) / max_rating) * task_database [ENTITY_SUB_TYPE_TASK_TRANSFER_HELICOPTER].task_priority;

  009ee	8b 45 d0	 mov	 eax, DWORD PTR _loop$[ebp]
  009f1	8b 4d cc	 mov	 ecx, DWORD PTR _loop2$[ebp]
  009f4	f3 0f 10 04 85
	00 00 00 00	 movss	 xmm0, DWORD PTR ?target_rating@@3PAMA[eax*4]
  009fd	f3 0f 5c 04 8d
	00 00 00 00	 subss	 xmm0, DWORD PTR ?target_rating@@3PAMA[ecx*4]
  00a06	f3 0f 5e 45 b0	 divss	 xmm0, DWORD PTR _max_rating$[ebp]
  00a0b	ba 50 00 00 00	 mov	 edx, 80			; 00000050H
  00a10	6b c2 19	 imul	 eax, edx, 25
  00a13	f3 0f 59 80 10
	00 00 00	 mulss	 xmm0, DWORD PTR ?task_database@@3PAUTASK_DATA@@A[eax+16]
  00a1b	f3 0f 11 45 bc	 movss	 DWORD PTR _priority$[ebp], xmm0

; 2508 : 	
; 2509 : 							create_transfer_task (this_side, ENTITY_SUB_TYPE_TASK_TRANSFER_HELICOPTER, priority, donar, keysite);

  00a20	8b 45 ec	 mov	 eax, DWORD PTR _keysite$[ebp]
  00a23	50		 push	 eax
  00a24	8b 4d e8	 mov	 ecx, DWORD PTR _donar$[ebp]
  00a27	51		 push	 ecx
  00a28	51		 push	 ecx
  00a29	f3 0f 10 45 bc	 movss	 xmm0, DWORD PTR _priority$[ebp]
  00a2e	f3 0f 11 04 24	 movss	 DWORD PTR [esp], xmm0
  00a33	6a 19		 push	 25			; 00000019H
  00a35	8b 55 f8	 mov	 edx, DWORD PTR _this_side$[ebp]
  00a38	52		 push	 edx
  00a39	e8 00 00 00 00	 call	 ?create_transfer_task@@YGPAUENTITY@@W4ENTITY_SIDES@@HMPAU1@1@Z ; create_transfer_task

; 2510 : 	
; 2511 : 							ai_log ("(TASK) %s TRANSFER - From %s (%.3f) To %s (%.3f) - CREATED (Priority %f)",

  00a3e	83 7d ec 00	 cmp	 DWORD PTR _keysite$[ebp], 0
  00a42	74 0d		 je	 SHORT $LN70@create_hel
  00a44	8b 45 ec	 mov	 eax, DWORD PTR _keysite$[ebp]
  00a47	8b 08		 mov	 ecx, DWORD PTR [eax]
  00a49	89 8d 60 ff ff
	ff		 mov	 DWORD PTR tv463[ebp], ecx
  00a4f	eb 27		 jmp	 SHORT $LN71@create_hel
$LN70@create_hel:
  00a51	8b 15 00 00 00
	00		 mov	 edx, DWORD PTR ?__LINE__Var@?0??create_helicopter_transfer_tasks@@YGXXZ@4JA
  00a57	81 c2 c4 00 00
	00		 add	 edx, 196		; 000000c4H
  00a5d	52		 push	 edx
  00a5e	68 00 00 00 00	 push	 OFFSET ??_C@_0ED@GMECMFKH@c?3?2users?2nhv90?2projects?2eech?2ap@
  00a63	a1 00 00 00 00	 mov	 eax, DWORD PTR ?null_entity_pointer_message@@3PBDB ; null_entity_pointer_message
  00a68	50		 push	 eax
  00a69	e8 00 00 00 00	 call	 ?process_assert@@YGXPBD0H@Z ; process_assert
  00a6e	c7 85 60 ff ff
	ff 00 00 00 00	 mov	 DWORD PTR tv463[ebp], 0
$LN71@create_hel:
  00a78	b9 01 00 00 00	 mov	 ecx, 1
  00a7d	85 c9		 test	 ecx, ecx
  00a7f	74 0c		 je	 SHORT $LN72@create_hel
  00a81	c7 85 5c ff ff
	ff 07 00 00 00	 mov	 DWORD PTR tv471[ebp], 7
  00a8b	eb 27		 jmp	 SHORT $LN73@create_hel
$LN72@create_hel:
  00a8d	8b 15 00 00 00
	00		 mov	 edx, DWORD PTR ?__LINE__Var@?0??create_helicopter_transfer_tasks@@YGXXZ@4JA
  00a93	81 c2 c4 00 00
	00		 add	 edx, 196		; 000000c4H
  00a99	52		 push	 edx
  00a9a	68 00 00 00 00	 push	 OFFSET ??_C@_0ED@GMECMFKH@c?3?2users?2nhv90?2projects?2eech?2ap@
  00a9f	a1 00 00 00 00	 mov	 eax, DWORD PTR ?overload_invalid_string_type_message@@3PBDB ; overload_invalid_string_type_message
  00aa4	50		 push	 eax
  00aa5	e8 00 00 00 00	 call	 ?process_assert@@YGXPBD0H@Z ; process_assert
  00aaa	c7 85 5c ff ff
	ff 00 00 00 00	 mov	 DWORD PTR tv471[ebp], 0
$LN73@create_hel:
  00ab4	83 7d e8 00	 cmp	 DWORD PTR _donar$[ebp], 0
  00ab8	74 0d		 je	 SHORT $LN74@create_hel
  00aba	8b 4d e8	 mov	 ecx, DWORD PTR _donar$[ebp]
  00abd	8b 11		 mov	 edx, DWORD PTR [ecx]
  00abf	89 95 58 ff ff
	ff		 mov	 DWORD PTR tv488[ebp], edx
  00ac5	eb 26		 jmp	 SHORT $LN75@create_hel
$LN74@create_hel:
  00ac7	a1 00 00 00 00	 mov	 eax, DWORD PTR ?__LINE__Var@?0??create_helicopter_transfer_tasks@@YGXXZ@4JA
  00acc	05 c2 00 00 00	 add	 eax, 194		; 000000c2H
  00ad1	50		 push	 eax
  00ad2	68 00 00 00 00	 push	 OFFSET ??_C@_0ED@GMECMFKH@c?3?2users?2nhv90?2projects?2eech?2ap@
  00ad7	8b 0d 00 00 00
	00		 mov	 ecx, DWORD PTR ?null_entity_pointer_message@@3PBDB ; null_entity_pointer_message
  00add	51		 push	 ecx
  00ade	e8 00 00 00 00	 call	 ?process_assert@@YGXPBD0H@Z ; process_assert
  00ae3	c7 85 58 ff ff
	ff 00 00 00 00	 mov	 DWORD PTR tv488[ebp], 0
$LN75@create_hel:
  00aed	ba 01 00 00 00	 mov	 edx, 1
  00af2	85 d2		 test	 edx, edx
  00af4	74 0c		 je	 SHORT $LN76@create_hel
  00af6	c7 85 54 ff ff
	ff 07 00 00 00	 mov	 DWORD PTR tv496[ebp], 7
  00b00	eb 26		 jmp	 SHORT $LN77@create_hel
$LN76@create_hel:
  00b02	a1 00 00 00 00	 mov	 eax, DWORD PTR ?__LINE__Var@?0??create_helicopter_transfer_tasks@@YGXXZ@4JA
  00b07	05 c2 00 00 00	 add	 eax, 194		; 000000c2H
  00b0c	50		 push	 eax
  00b0d	68 00 00 00 00	 push	 OFFSET ??_C@_0ED@GMECMFKH@c?3?2users?2nhv90?2projects?2eech?2ap@
  00b12	8b 0d 00 00 00
	00		 mov	 ecx, DWORD PTR ?overload_invalid_string_type_message@@3PBDB ; overload_invalid_string_type_message
  00b18	51		 push	 ecx
  00b19	e8 00 00 00 00	 call	 ?process_assert@@YGXPBD0H@Z ; process_assert
  00b1e	c7 85 54 ff ff
	ff 00 00 00 00	 mov	 DWORD PTR tv496[ebp], 0
$LN77@create_hel:
  00b28	f3 0f 5a 45 bc	 cvtss2sd xmm0, DWORD PTR _priority$[ebp]
  00b2d	83 ec 08	 sub	 esp, 8
  00b30	f2 0f 11 04 24	 movsd	 QWORD PTR [esp], xmm0
  00b35	8b 55 d0	 mov	 edx, DWORD PTR _loop$[ebp]
  00b38	f3 0f 5a 04 95
	00 00 00 00	 cvtss2sd xmm0, DWORD PTR ?target_rating@@3PAMA[edx*4]
  00b41	83 ec 08	 sub	 esp, 8
  00b44	f2 0f 11 04 24	 movsd	 QWORD PTR [esp], xmm0
  00b49	6a 07		 push	 7
  00b4b	8b 45 ec	 mov	 eax, DWORD PTR _keysite$[ebp]
  00b4e	50		 push	 eax
  00b4f	6b 8d 60 ff ff
	ff 34		 imul	 ecx, DWORD PTR tv463[ebp], 52
  00b56	8b 95 5c ff ff
	ff		 mov	 edx, DWORD PTR tv471[ebp]
  00b5c	8b 84 91 00 00
	00 00		 mov	 eax, DWORD PTR ?fn_get_local_entity_string@@3PAY0N@P6GPBDPAUENTITY@@W4STRING_TYPES@@@ZA[ecx+edx*4]
  00b63	ff d0		 call	 eax
  00b65	50		 push	 eax
  00b66	8b 4d cc	 mov	 ecx, DWORD PTR _loop2$[ebp]
  00b69	f3 0f 5a 04 8d
	00 00 00 00	 cvtss2sd xmm0, DWORD PTR ?target_rating@@3PAMA[ecx*4]
  00b72	83 ec 08	 sub	 esp, 8
  00b75	f2 0f 11 04 24	 movsd	 QWORD PTR [esp], xmm0
  00b7a	6a 07		 push	 7
  00b7c	8b 55 e8	 mov	 edx, DWORD PTR _donar$[ebp]
  00b7f	52		 push	 edx
  00b80	6b 85 58 ff ff
	ff 34		 imul	 eax, DWORD PTR tv488[ebp], 52
  00b87	8b 8d 54 ff ff
	ff		 mov	 ecx, DWORD PTR tv496[ebp]
  00b8d	8b 94 88 00 00
	00 00		 mov	 edx, DWORD PTR ?fn_get_local_entity_string@@3PAY0N@P6GPBDPAUENTITY@@W4STRING_TYPES@@@ZA[eax+ecx*4]
  00b94	ff d2		 call	 edx
  00b96	50		 push	 eax
  00b97	8b 45 f8	 mov	 eax, DWORD PTR _this_side$[ebp]
  00b9a	8b 0c 85 00 00
	00 00		 mov	 ecx, DWORD PTR ?entity_side_short_names@@3PAPBDA[eax*4]
  00ba1	51		 push	 ecx
  00ba2	68 00 00 00 00	 push	 OFFSET ??_C@_0EJ@ELLEGADD@?$CITASK?$CJ?5?$CFs?5TRANSFER?5?9?5From?5?$CFs?5?$CI?$CF@
  00ba7	e8 00 00 00 00	 call	 ?ai_log@@YAXPBDZZ	; ai_log
  00bac	83 c4 28	 add	 esp, 40			; 00000028H

; 2512 : 										entity_side_short_names [this_side],
; 2513 : 										get_local_entity_string (donar, STRING_TYPE_KEYSITE_NAME),
; 2514 : 										target_rating [loop2],
; 2515 : 										get_local_entity_string (keysite, STRING_TYPE_KEYSITE_NAME),
; 2516 : 										target_rating [loop],
; 2517 : 										priority);
; 2518 : 
; 2519 : 							loop2 --;

  00baf	8b 45 cc	 mov	 eax, DWORD PTR _loop2$[ebp]
  00bb2	83 e8 01	 sub	 eax, 1
  00bb5	89 45 cc	 mov	 DWORD PTR _loop2$[ebp], eax
$LN22@create_hel:

; 2520 : 						}
; 2521 : 					}
; 2522 : 				}
; 2523 : 			}

  00bb8	e9 a1 fd ff ff	 jmp	 $LN8@create_hel
$LN9@create_hel:

; 2524 : 		}
; 2525 : 
; 2526 : 		//
; 2527 : 		// Next force
; 2528 : 		//
; 2529 : 	
; 2530 : 		force = get_local_entity_child_succ (force, LIST_TYPE_FORCE);

  00bbd	83 7d f4 00	 cmp	 DWORD PTR _force$[ebp], 0
  00bc1	74 0d		 je	 SHORT $LN78@create_hel
  00bc3	8b 45 f4	 mov	 eax, DWORD PTR _force$[ebp]
  00bc6	8b 08		 mov	 ecx, DWORD PTR [eax]
  00bc8	89 8d 60 ff ff
	ff		 mov	 DWORD PTR tv514[ebp], ecx
  00bce	eb 27		 jmp	 SHORT $LN79@create_hel
$LN78@create_hel:
  00bd0	8b 15 00 00 00
	00		 mov	 edx, DWORD PTR ?__LINE__Var@?0??create_helicopter_transfer_tasks@@YGXXZ@4JA
  00bd6	81 c2 d3 00 00
	00		 add	 edx, 211		; 000000d3H
  00bdc	52		 push	 edx
  00bdd	68 00 00 00 00	 push	 OFFSET ??_C@_0ED@GMECMFKH@c?3?2users?2nhv90?2projects?2eech?2ap@
  00be2	a1 00 00 00 00	 mov	 eax, DWORD PTR ?null_entity_pointer_message@@3PBDB ; null_entity_pointer_message
  00be7	50		 push	 eax
  00be8	e8 00 00 00 00	 call	 ?process_assert@@YGXPBD0H@Z ; process_assert
  00bed	c7 85 60 ff ff
	ff 00 00 00 00	 mov	 DWORD PTR tv514[ebp], 0
$LN79@create_hel:
  00bf7	b9 01 00 00 00	 mov	 ecx, 1
  00bfc	85 c9		 test	 ecx, ecx
  00bfe	74 0c		 je	 SHORT $LN80@create_hel
  00c00	c7 85 5c ff ff
	ff 0e 00 00 00	 mov	 DWORD PTR tv522[ebp], 14 ; 0000000eH
  00c0a	eb 27		 jmp	 SHORT $LN81@create_hel
$LN80@create_hel:
  00c0c	8b 15 00 00 00
	00		 mov	 edx, DWORD PTR ?__LINE__Var@?0??create_helicopter_transfer_tasks@@YGXXZ@4JA
  00c12	81 c2 d3 00 00
	00		 add	 edx, 211		; 000000d3H
  00c18	52		 push	 edx
  00c19	68 00 00 00 00	 push	 OFFSET ??_C@_0ED@GMECMFKH@c?3?2users?2nhv90?2projects?2eech?2ap@
  00c1e	a1 00 00 00 00	 mov	 eax, DWORD PTR ?overload_invalid_list_type_message@@3PBDB ; overload_invalid_list_type_message
  00c23	50		 push	 eax
  00c24	e8 00 00 00 00	 call	 ?process_assert@@YGXPBD0H@Z ; process_assert
  00c29	c7 85 5c ff ff
	ff 00 00 00 00	 mov	 DWORD PTR tv522[ebp], 0
$LN81@create_hel:
  00c33	6a 0e		 push	 14			; 0000000eH
  00c35	8b 4d f4	 mov	 ecx, DWORD PTR _force$[ebp]
  00c38	51		 push	 ecx
  00c39	69 95 60 ff ff
	ff b4 00 00 00	 imul	 edx, DWORD PTR tv514[ebp], 180
  00c43	8b 85 5c ff ff
	ff		 mov	 eax, DWORD PTR tv522[ebp]
  00c49	8b 8c 82 00 00
	00 00		 mov	 ecx, DWORD PTR ?fn_get_local_entity_child_succ@@3PAY0CN@P6GPAUENTITY@@PAU1@W4LIST_TYPES@@@ZA[edx+eax*4]
  00c50	ff d1		 call	 ecx
  00c52	89 45 f4	 mov	 DWORD PTR _force$[ebp], eax

; 2531 : 	}

  00c55	e9 94 f4 ff ff	 jmp	 $LN2@create_hel
$LN3@create_hel:

; 2532 : }

  00c5a	5f		 pop	 edi
  00c5b	5e		 pop	 esi
  00c5c	5b		 pop	 ebx
  00c5d	8b e5		 mov	 esp, ebp
  00c5f	5d		 pop	 ebp
  00c60	c3		 ret	 0
?create_helicopter_transfer_tasks@@YGXXZ ENDP		; create_helicopter_transfer_tasks
_TEXT	ENDS
; Function compile flags: /Odtp /ZI
; File c:\users\nhv90\projects\eech\aphavoc\source\ai\highlevl\highlevl.c
;	COMDAT ?create_fixed_wing_transfer_tasks@@YGXXZ
_TEXT	SEGMENT
tv496 = -172						; size = 4
tv488 = -168						; size = 4
tv522 = -164						; size = 4
tv471 = -164						; size = 4
tv397 = -164						; size = 4
tv323 = -164						; size = 4
tv303 = -164						; size = 4
tv279 = -164						; size = 4
tv257 = -164						; size = 4
tv236 = -164						; size = 4
tv206 = -164						; size = 4
tv187 = -164						; size = 4
tv167 = -164						; size = 4
tv145 = -164						; size = 4
tv86 = -164						; size = 4
tv514 = -160						; size = 4
tv463 = -160						; size = 4
tv389 = -160						; size = 4
tv315 = -160						; size = 4
tv295 = -160						; size = 4
tv272 = -160						; size = 4
tv249 = -160						; size = 4
tv228 = -160						; size = 4
tv199 = -160						; size = 4
tv180 = -160						; size = 4
tv159 = -160						; size = 4
tv152 = -160						; size = 4
tv137 = -160						; size = 4
tv78 = -160						; size = 4
$T1 = -156						; size = 4
$T2 = -152						; size = 4
$T3 = -148						; size = 4
_max_rating$ = -80					; size = 4
_idle_group_count$ = -76				; size = 4
_rating$ = -72						; size = 4
_priority$ = -68					; size = 4
_keysite_count$ = -64					; size = 4
_group_type$ = -60					; size = 4
_count$ = -56						; size = 4
_loop2$ = -52						; size = 4
_loop$ = -48						; size = 4
_z$ = -44						; size = 4
_x$ = -40						; size = 4
_pos$ = -36						; size = 4
_landing_raw$ = -32					; size = 4
_landing_en$ = -28					; size = 4
_donar$ = -24						; size = 4
_keysite$ = -20						; size = 4
_group$ = -16						; size = 4
_force$ = -12						; size = 4
_this_side$ = -8					; size = 4
_side$ = -4						; size = 4
?create_fixed_wing_transfer_tasks@@YGXXZ PROC		; create_fixed_wing_transfer_tasks, COMDAT

; 2099 : {

  00000	55		 push	 ebp
  00001	8b ec		 mov	 ebp, esp
  00003	81 ec ac 00 00
	00		 sub	 esp, 172		; 000000acH
  00009	53		 push	 ebx
  0000a	56		 push	 esi
  0000b	57		 push	 edi

; 2100 : 	entity_sides
; 2101 : 		side,
; 2102 : 		this_side;
; 2103 : 
; 2104 : 	entity
; 2105 : 		*force,
; 2106 : 		*group,
; 2107 : 		*keysite,
; 2108 : 		*donar,
; 2109 : 		*landing_en;
; 2110 : 
; 2111 : 	landing
; 2112 : 		*landing_raw;
; 2113 : 
; 2114 : 	vec3d
; 2115 : 		*pos;
; 2116 : 
; 2117 : 	int
; 2118 : 		x,
; 2119 : 		z,
; 2120 : 		loop,
; 2121 : 		loop2,
; 2122 : 		count,
; 2123 : 		group_type,
; 2124 : 		keysite_count;
; 2125 : 
; 2126 : 	float
; 2127 : 		priority,
; 2128 : 		rating,
; 2129 : 		idle_group_count,
; 2130 : 		max_rating;
; 2131 : 
; 2132 : 	ASSERT (get_comms_model () == COMMS_MODEL_SERVER);

  0000c	83 3d 00 00 00
	00 00		 cmp	 DWORD PTR ?system_comms_model@@3W4COMMS_MODEL_TYPES@@A, 0 ; system_comms_model
  00013	74 18		 je	 SHORT $LN11@create_fix
  00015	a1 00 00 00 00	 mov	 eax, DWORD PTR ?__LINE__Var@?0??create_fixed_wing_transfer_tasks@@YGXXZ@4JA
  0001a	83 c0 21	 add	 eax, 33			; 00000021H
  0001d	50		 push	 eax
  0001e	68 00 00 00 00	 push	 OFFSET ??_C@_0ED@GMECMFKH@c?3?2users?2nhv90?2projects?2eech?2ap@
  00023	68 00 00 00 00	 push	 OFFSET ??_C@_0CJ@DMBLBJBK@get_comms_model?5?$CI?$CJ?5?$DN?$DN?5COMMS_MOD@
  00028	e8 00 00 00 00	 call	 ?process_assert@@YGXPBD0H@Z ; process_assert
$LN11@create_fix:

; 2133 : 
; 2134 : 	ai_log ("==========================");

  0002d	68 00 00 00 00	 push	 OFFSET ??_C@_0BL@EBIHNBEK@?$DN?$DN?$DN?$DN?$DN?$DN?$DN?$DN?$DN?$DN?$DN?$DN?$DN?$DN?$DN?$DN?$DN?$DN?$DN?$DN?$DN?$DN?$DN?$DN?$DN?$DN@
  00032	e8 00 00 00 00	 call	 ?ai_log@@YAXPBDZZ	; ai_log
  00037	83 c4 04	 add	 esp, 4

; 2135 : 	ai_log ("CREATE TRANSFER (FW) TASKS");

  0003a	68 00 00 00 00	 push	 OFFSET ??_C@_0BL@MMKFLGNE@CREATE?5TRANSFER?5?$CIFW?$CJ?5TASKS@
  0003f	e8 00 00 00 00	 call	 ?ai_log@@YAXPBDZZ	; ai_log
  00044	83 c4 04	 add	 esp, 4

; 2136 : 	ai_log ("--------------------------");

  00047	68 00 00 00 00	 push	 OFFSET ??_C@_0BL@JMBEPNBE@?9?9?9?9?9?9?9?9?9?9?9?9?9?9?9?9?9?9?9?9?9?9?9?9?9?9@
  0004c	e8 00 00 00 00	 call	 ?ai_log@@YAXPBDZZ	; ai_log
  00051	83 c4 04	 add	 esp, 4

; 2137 : 
; 2138 : 	force = get_local_entity_first_child (get_session_entity (), LIST_TYPE_FORCE);

  00054	83 3d 00 00 00
	00 00		 cmp	 DWORD PTR ?session_entity@@3PAUENTITY@@A, 0 ; session_entity
  0005b	74 0f		 je	 SHORT $LN24@create_fix
  0005d	a1 00 00 00 00	 mov	 eax, DWORD PTR ?session_entity@@3PAUENTITY@@A ; session_entity
  00062	8b 08		 mov	 ecx, DWORD PTR [eax]
  00064	89 8d 60 ff ff
	ff		 mov	 DWORD PTR tv78[ebp], ecx
  0006a	eb 24		 jmp	 SHORT $LN25@create_fix
$LN24@create_fix:
  0006c	8b 15 00 00 00
	00		 mov	 edx, DWORD PTR ?__LINE__Var@?0??create_fixed_wing_transfer_tasks@@YGXXZ@4JA
  00072	83 c2 27	 add	 edx, 39			; 00000027H
  00075	52		 push	 edx
  00076	68 00 00 00 00	 push	 OFFSET ??_C@_0ED@GMECMFKH@c?3?2users?2nhv90?2projects?2eech?2ap@
  0007b	a1 00 00 00 00	 mov	 eax, DWORD PTR ?null_entity_pointer_message@@3PBDB ; null_entity_pointer_message
  00080	50		 push	 eax
  00081	e8 00 00 00 00	 call	 ?process_assert@@YGXPBD0H@Z ; process_assert
  00086	c7 85 60 ff ff
	ff 00 00 00 00	 mov	 DWORD PTR tv78[ebp], 0
$LN25@create_fix:
  00090	b9 01 00 00 00	 mov	 ecx, 1
  00095	85 c9		 test	 ecx, ecx
  00097	74 0c		 je	 SHORT $LN26@create_fix
  00099	c7 85 5c ff ff
	ff 0e 00 00 00	 mov	 DWORD PTR tv86[ebp], 14	; 0000000eH
  000a3	eb 24		 jmp	 SHORT $LN27@create_fix
$LN26@create_fix:
  000a5	8b 15 00 00 00
	00		 mov	 edx, DWORD PTR ?__LINE__Var@?0??create_fixed_wing_transfer_tasks@@YGXXZ@4JA
  000ab	83 c2 27	 add	 edx, 39			; 00000027H
  000ae	52		 push	 edx
  000af	68 00 00 00 00	 push	 OFFSET ??_C@_0ED@GMECMFKH@c?3?2users?2nhv90?2projects?2eech?2ap@
  000b4	a1 00 00 00 00	 mov	 eax, DWORD PTR ?overload_invalid_list_type_message@@3PBDB ; overload_invalid_list_type_message
  000b9	50		 push	 eax
  000ba	e8 00 00 00 00	 call	 ?process_assert@@YGXPBD0H@Z ; process_assert
  000bf	c7 85 5c ff ff
	ff 00 00 00 00	 mov	 DWORD PTR tv86[ebp], 0
$LN27@create_fix:
  000c9	6a 0e		 push	 14			; 0000000eH
  000cb	8b 0d 00 00 00
	00		 mov	 ecx, DWORD PTR ?session_entity@@3PAUENTITY@@A ; session_entity
  000d1	51		 push	 ecx
  000d2	69 95 60 ff ff
	ff b4 00 00 00	 imul	 edx, DWORD PTR tv78[ebp], 180
  000dc	8b 85 5c ff ff
	ff		 mov	 eax, DWORD PTR tv86[ebp]
  000e2	8b 8c 82 00 00
	00 00		 mov	 ecx, DWORD PTR ?fn_get_local_entity_first_child@@3PAY0CN@P6GPAUENTITY@@PAU1@W4LIST_TYPES@@@ZA[edx+eax*4]
  000e9	ff d1		 call	 ecx
  000eb	89 45 f4	 mov	 DWORD PTR _force$[ebp], eax
$LN2@create_fix:

; 2139 : 
; 2140 : 	while (force)

  000ee	83 7d f4 00	 cmp	 DWORD PTR _force$[ebp], 0
  000f2	0f 84 62 0b 00
	00		 je	 $LN3@create_fix

; 2141 : 	{
; 2142 : 		//
; 2143 : 		// for each force spin through the list of keysites and select ones in most need of transfer
; 2144 : 		//
; 2145 : 	
; 2146 : 		memset (target_list, 0, sizeof (entity *) * MAX_HIGHLEVEL_TARGET_CHECKS);

  000f8	68 80 02 00 00	 push	 640			; 00000280H
  000fd	6a 00		 push	 0
  000ff	68 00 00 00 00	 push	 OFFSET ?target_list@@3PAPAUENTITY@@A
  00104	e8 00 00 00 00	 call	 _memset
  00109	83 c4 0c	 add	 esp, 12			; 0000000cH

; 2147 : 
; 2148 : 		memset (target_rating, 0, sizeof (float) * MAX_HIGHLEVEL_TARGET_CHECKS);

  0010c	68 80 02 00 00	 push	 640			; 00000280H
  00111	6a 00		 push	 0
  00113	68 00 00 00 00	 push	 OFFSET ?target_rating@@3PAMA
  00118	e8 00 00 00 00	 call	 _memset
  0011d	83 c4 0c	 add	 esp, 12			; 0000000cH

; 2149 : 
; 2150 : 		count = 0;

  00120	c7 45 c8 00 00
	00 00		 mov	 DWORD PTR _count$[ebp], 0

; 2151 : 
; 2152 : 		this_side = (entity_sides) get_local_entity_int_value (force, INT_TYPE_SIDE);

  00127	83 7d f4 00	 cmp	 DWORD PTR _force$[ebp], 0
  0012b	74 0d		 je	 SHORT $LN28@create_fix
  0012d	8b 45 f4	 mov	 eax, DWORD PTR _force$[ebp]
  00130	8b 08		 mov	 ecx, DWORD PTR [eax]
  00132	89 8d 60 ff ff
	ff		 mov	 DWORD PTR tv137[ebp], ecx
  00138	eb 24		 jmp	 SHORT $LN29@create_fix
$LN28@create_fix:
  0013a	8b 15 00 00 00
	00		 mov	 edx, DWORD PTR ?__LINE__Var@?0??create_fixed_wing_transfer_tasks@@YGXXZ@4JA
  00140	83 c2 35	 add	 edx, 53			; 00000035H
  00143	52		 push	 edx
  00144	68 00 00 00 00	 push	 OFFSET ??_C@_0ED@GMECMFKH@c?3?2users?2nhv90?2projects?2eech?2ap@
  00149	a1 00 00 00 00	 mov	 eax, DWORD PTR ?null_entity_pointer_message@@3PBDB ; null_entity_pointer_message
  0014e	50		 push	 eax
  0014f	e8 00 00 00 00	 call	 ?process_assert@@YGXPBD0H@Z ; process_assert
  00154	c7 85 60 ff ff
	ff 00 00 00 00	 mov	 DWORD PTR tv137[ebp], 0
$LN29@create_fix:
  0015e	b9 01 00 00 00	 mov	 ecx, 1
  00163	85 c9		 test	 ecx, ecx
  00165	74 0c		 je	 SHORT $LN30@create_fix
  00167	c7 85 5c ff ff
	ff bb 00 00 00	 mov	 DWORD PTR tv145[ebp], 187 ; 000000bbH
  00171	eb 24		 jmp	 SHORT $LN31@create_fix
$LN30@create_fix:
  00173	8b 15 00 00 00
	00		 mov	 edx, DWORD PTR ?__LINE__Var@?0??create_fixed_wing_transfer_tasks@@YGXXZ@4JA
  00179	83 c2 35	 add	 edx, 53			; 00000035H
  0017c	52		 push	 edx
  0017d	68 00 00 00 00	 push	 OFFSET ??_C@_0ED@GMECMFKH@c?3?2users?2nhv90?2projects?2eech?2ap@
  00182	a1 00 00 00 00	 mov	 eax, DWORD PTR ?overload_invalid_int_type_message@@3PBDB ; overload_invalid_int_type_message
  00187	50		 push	 eax
  00188	e8 00 00 00 00	 call	 ?process_assert@@YGXPBD0H@Z ; process_assert
  0018d	c7 85 5c ff ff
	ff 00 00 00 00	 mov	 DWORD PTR tv145[ebp], 0
$LN31@create_fix:
  00197	68 bb 00 00 00	 push	 187			; 000000bbH
  0019c	8b 4d f4	 mov	 ecx, DWORD PTR _force$[ebp]
  0019f	51		 push	 ecx
  001a0	69 95 60 ff ff
	ff 5c 04 00 00	 imul	 edx, DWORD PTR tv137[ebp], 1116
  001aa	8b 85 5c ff ff
	ff		 mov	 eax, DWORD PTR tv145[ebp]
  001b0	8b 8c 82 00 00
	00 00		 mov	 ecx, DWORD PTR ?fn_get_local_entity_int_value@@3PAY0BBH@P6GHPAUENTITY@@W4INT_TYPES@@@ZA[edx+eax*4]
  001b7	ff d1		 call	 ecx
  001b9	89 45 f8	 mov	 DWORD PTR _this_side$[ebp], eax

; 2153 : 
; 2154 : 		side = get_enemy_side (this_side);

  001bc	83 7d f8 01	 cmp	 DWORD PTR _this_side$[ebp], 1
  001c0	75 0c		 jne	 SHORT $LN32@create_fix
  001c2	c7 85 60 ff ff
	ff 02 00 00 00	 mov	 DWORD PTR tv152[ebp], 2
  001cc	eb 0a		 jmp	 SHORT $LN33@create_fix
$LN32@create_fix:
  001ce	c7 85 60 ff ff
	ff 01 00 00 00	 mov	 DWORD PTR tv152[ebp], 1
$LN33@create_fix:
  001d8	8b 85 60 ff ff
	ff		 mov	 eax, DWORD PTR tv152[ebp]
  001de	89 45 fc	 mov	 DWORD PTR _side$[ebp], eax

; 2155 : 	
; 2156 : 		keysite = get_local_entity_first_child (force, LIST_TYPE_KEYSITE_FORCE);

  001e1	83 7d f4 00	 cmp	 DWORD PTR _force$[ebp], 0
  001e5	74 0d		 je	 SHORT $LN34@create_fix
  001e7	8b 45 f4	 mov	 eax, DWORD PTR _force$[ebp]
  001ea	8b 08		 mov	 ecx, DWORD PTR [eax]
  001ec	89 8d 60 ff ff
	ff		 mov	 DWORD PTR tv159[ebp], ecx
  001f2	eb 24		 jmp	 SHORT $LN35@create_fix
$LN34@create_fix:
  001f4	8b 15 00 00 00
	00		 mov	 edx, DWORD PTR ?__LINE__Var@?0??create_fixed_wing_transfer_tasks@@YGXXZ@4JA
  001fa	83 c2 39	 add	 edx, 57			; 00000039H
  001fd	52		 push	 edx
  001fe	68 00 00 00 00	 push	 OFFSET ??_C@_0ED@GMECMFKH@c?3?2users?2nhv90?2projects?2eech?2ap@
  00203	a1 00 00 00 00	 mov	 eax, DWORD PTR ?null_entity_pointer_message@@3PBDB ; null_entity_pointer_message
  00208	50		 push	 eax
  00209	e8 00 00 00 00	 call	 ?process_assert@@YGXPBD0H@Z ; process_assert
  0020e	c7 85 60 ff ff
	ff 00 00 00 00	 mov	 DWORD PTR tv159[ebp], 0
$LN35@create_fix:
  00218	b9 01 00 00 00	 mov	 ecx, 1
  0021d	85 c9		 test	 ecx, ecx
  0021f	74 0c		 je	 SHORT $LN36@create_fix
  00221	c7 85 5c ff ff
	ff 15 00 00 00	 mov	 DWORD PTR tv167[ebp], 21 ; 00000015H
  0022b	eb 24		 jmp	 SHORT $LN37@create_fix
$LN36@create_fix:
  0022d	8b 15 00 00 00
	00		 mov	 edx, DWORD PTR ?__LINE__Var@?0??create_fixed_wing_transfer_tasks@@YGXXZ@4JA
  00233	83 c2 39	 add	 edx, 57			; 00000039H
  00236	52		 push	 edx
  00237	68 00 00 00 00	 push	 OFFSET ??_C@_0ED@GMECMFKH@c?3?2users?2nhv90?2projects?2eech?2ap@
  0023c	a1 00 00 00 00	 mov	 eax, DWORD PTR ?overload_invalid_list_type_message@@3PBDB ; overload_invalid_list_type_message
  00241	50		 push	 eax
  00242	e8 00 00 00 00	 call	 ?process_assert@@YGXPBD0H@Z ; process_assert
  00247	c7 85 5c ff ff
	ff 00 00 00 00	 mov	 DWORD PTR tv167[ebp], 0
$LN37@create_fix:
  00251	6a 15		 push	 21			; 00000015H
  00253	8b 4d f4	 mov	 ecx, DWORD PTR _force$[ebp]
  00256	51		 push	 ecx
  00257	69 95 60 ff ff
	ff b4 00 00 00	 imul	 edx, DWORD PTR tv159[ebp], 180
  00261	8b 85 5c ff ff
	ff		 mov	 eax, DWORD PTR tv167[ebp]
  00267	8b 8c 82 00 00
	00 00		 mov	 ecx, DWORD PTR ?fn_get_local_entity_first_child@@3PAY0CN@P6GPAUENTITY@@PAU1@W4LIST_TYPES@@@ZA[edx+eax*4]
  0026e	ff d1		 call	 ecx
  00270	89 45 ec	 mov	 DWORD PTR _keysite$[ebp], eax
$LN4@create_fix:

; 2157 : 	
; 2158 : 		while ((keysite) && (count < MAX_HIGHLEVEL_TARGET_CHECKS))

  00273	83 7d ec 00	 cmp	 DWORD PTR _keysite$[ebp], 0
  00277	0f 84 82 06 00
	00		 je	 $LN5@create_fix
  0027d	81 7d c8 a0 00
	00 00		 cmp	 DWORD PTR _count$[ebp], 160 ; 000000a0H
  00284	0f 8d 75 06 00
	00		 jge	 $LN5@create_fix

; 2159 : 		{
; 2160 : 			if (get_local_entity_int_value (keysite, INT_TYPE_IN_USE))

  0028a	83 7d ec 00	 cmp	 DWORD PTR _keysite$[ebp], 0
  0028e	74 0d		 je	 SHORT $LN38@create_fix
  00290	8b 45 ec	 mov	 eax, DWORD PTR _keysite$[ebp]
  00293	8b 08		 mov	 ecx, DWORD PTR [eax]
  00295	89 8d 60 ff ff
	ff		 mov	 DWORD PTR tv180[ebp], ecx
  0029b	eb 20		 jmp	 SHORT $LN39@create_fix
$LN38@create_fix:
  0029d	68 70 08 00 00	 push	 2160			; 00000870H
  002a2	68 00 00 00 00	 push	 OFFSET ??_C@_0ED@GMECMFKH@c?3?2users?2nhv90?2projects?2eech?2ap@
  002a7	8b 15 00 00 00
	00		 mov	 edx, DWORD PTR ?null_entity_pointer_message@@3PBDB ; null_entity_pointer_message
  002ad	52		 push	 edx
  002ae	e8 00 00 00 00	 call	 ?process_assert@@YGXPBD0H@Z ; process_assert
  002b3	c7 85 60 ff ff
	ff 00 00 00 00	 mov	 DWORD PTR tv180[ebp], 0
$LN39@create_fix:
  002bd	b8 01 00 00 00	 mov	 eax, 1
  002c2	85 c0		 test	 eax, eax
  002c4	74 0c		 je	 SHORT $LN40@create_fix
  002c6	c7 85 5c ff ff
	ff 6d 00 00 00	 mov	 DWORD PTR tv187[ebp], 109 ; 0000006dH
  002d0	eb 20		 jmp	 SHORT $LN41@create_fix
$LN40@create_fix:
  002d2	68 70 08 00 00	 push	 2160			; 00000870H
  002d7	68 00 00 00 00	 push	 OFFSET ??_C@_0ED@GMECMFKH@c?3?2users?2nhv90?2projects?2eech?2ap@
  002dc	8b 0d 00 00 00
	00		 mov	 ecx, DWORD PTR ?overload_invalid_int_type_message@@3PBDB ; overload_invalid_int_type_message
  002e2	51		 push	 ecx
  002e3	e8 00 00 00 00	 call	 ?process_assert@@YGXPBD0H@Z ; process_assert
  002e8	c7 85 5c ff ff
	ff 00 00 00 00	 mov	 DWORD PTR tv187[ebp], 0
$LN41@create_fix:
  002f2	6a 6d		 push	 109			; 0000006dH
  002f4	8b 55 ec	 mov	 edx, DWORD PTR _keysite$[ebp]
  002f7	52		 push	 edx
  002f8	69 85 60 ff ff
	ff 5c 04 00 00	 imul	 eax, DWORD PTR tv180[ebp], 1116
  00302	8b 8d 5c ff ff
	ff		 mov	 ecx, DWORD PTR tv187[ebp]
  00308	8b 94 88 00 00
	00 00		 mov	 edx, DWORD PTR ?fn_get_local_entity_int_value@@3PAY0BBH@P6GHPAUENTITY@@W4INT_TYPES@@@ZA[eax+ecx*4]
  0030f	ff d2		 call	 edx
  00311	85 c0		 test	 eax, eax
  00313	0f 84 49 05 00
	00		 je	 $LN18@create_fix

; 2161 : 			{
; 2162 : 				if (get_local_entity_int_value (keysite, INT_TYPE_KEYSITE_USABLE_STATE) == KEYSITE_STATE_USABLE)

  00319	83 7d ec 00	 cmp	 DWORD PTR _keysite$[ebp], 0
  0031d	74 0d		 je	 SHORT $LN42@create_fix
  0031f	8b 45 ec	 mov	 eax, DWORD PTR _keysite$[ebp]
  00322	8b 08		 mov	 ecx, DWORD PTR [eax]
  00324	89 8d 60 ff ff
	ff		 mov	 DWORD PTR tv199[ebp], ecx
  0032a	eb 20		 jmp	 SHORT $LN43@create_fix
$LN42@create_fix:
  0032c	68 72 08 00 00	 push	 2162			; 00000872H
  00331	68 00 00 00 00	 push	 OFFSET ??_C@_0ED@GMECMFKH@c?3?2users?2nhv90?2projects?2eech?2ap@
  00336	8b 15 00 00 00
	00		 mov	 edx, DWORD PTR ?null_entity_pointer_message@@3PBDB ; null_entity_pointer_message
  0033c	52		 push	 edx
  0033d	e8 00 00 00 00	 call	 ?process_assert@@YGXPBD0H@Z ; process_assert
  00342	c7 85 60 ff ff
	ff 00 00 00 00	 mov	 DWORD PTR tv199[ebp], 0
$LN43@create_fix:
  0034c	b8 01 00 00 00	 mov	 eax, 1
  00351	85 c0		 test	 eax, eax
  00353	74 0c		 je	 SHORT $LN44@create_fix
  00355	c7 85 5c ff ff
	ff 70 00 00 00	 mov	 DWORD PTR tv206[ebp], 112 ; 00000070H
  0035f	eb 20		 jmp	 SHORT $LN45@create_fix
$LN44@create_fix:
  00361	68 72 08 00 00	 push	 2162			; 00000872H
  00366	68 00 00 00 00	 push	 OFFSET ??_C@_0ED@GMECMFKH@c?3?2users?2nhv90?2projects?2eech?2ap@
  0036b	8b 0d 00 00 00
	00		 mov	 ecx, DWORD PTR ?overload_invalid_int_type_message@@3PBDB ; overload_invalid_int_type_message
  00371	51		 push	 ecx
  00372	e8 00 00 00 00	 call	 ?process_assert@@YGXPBD0H@Z ; process_assert
  00377	c7 85 5c ff ff
	ff 00 00 00 00	 mov	 DWORD PTR tv206[ebp], 0
$LN45@create_fix:
  00381	6a 70		 push	 112			; 00000070H
  00383	8b 55 ec	 mov	 edx, DWORD PTR _keysite$[ebp]
  00386	52		 push	 edx
  00387	69 85 60 ff ff
	ff 5c 04 00 00	 imul	 eax, DWORD PTR tv199[ebp], 1116
  00391	8b 8d 5c ff ff
	ff		 mov	 ecx, DWORD PTR tv206[ebp]
  00397	8b 94 88 00 00
	00 00		 mov	 edx, DWORD PTR ?fn_get_local_entity_int_value@@3PAY0BBH@P6GHPAUENTITY@@W4INT_TYPES@@@ZA[eax+ecx*4]
  0039e	ff d2		 call	 edx
  003a0	85 c0		 test	 eax, eax
  003a2	0f 85 ba 04 00
	00		 jne	 $LN18@create_fix

; 2163 : 				{
; 2164 : 					if (get_local_entity_landing_entity (keysite, ENTITY_SUB_TYPE_LANDING_FIXED_WING))

  003a8	6a 00		 push	 0
  003aa	8b 45 ec	 mov	 eax, DWORD PTR _keysite$[ebp]
  003ad	50		 push	 eax
  003ae	e8 00 00 00 00	 call	 ?get_local_entity_landing_entity@@YGPAUENTITY@@PAU1@H@Z ; get_local_entity_landing_entity
  003b3	85 c0		 test	 eax, eax
  003b5	0f 84 a7 04 00
	00		 je	 $LN18@create_fix

; 2165 : 					{
; 2166 : 						ASSERT (count < MAX_HIGHLEVEL_TARGET_CHECKS);

  003bb	81 7d c8 a0 00
	00 00		 cmp	 DWORD PTR _count$[ebp], 160 ; 000000a0H
  003c2	7c 18		 jl	 SHORT $LN15@create_fix
  003c4	a1 00 00 00 00	 mov	 eax, DWORD PTR ?__LINE__Var@?0??create_fixed_wing_transfer_tasks@@YGXXZ@4JA
  003c9	83 c0 43	 add	 eax, 67			; 00000043H
  003cc	50		 push	 eax
  003cd	68 00 00 00 00	 push	 OFFSET ??_C@_0ED@GMECMFKH@c?3?2users?2nhv90?2projects?2eech?2ap@
  003d2	68 00 00 00 00	 push	 OFFSET ??_C@_0CE@FGAKBBGH@count?5?$DM?5MAX_HIGHLEVEL_TARGET_CH@
  003d7	e8 00 00 00 00	 call	 ?process_assert@@YGXPBD0H@Z ; process_assert
$LN15@create_fix:

; 2167 : 	
; 2168 : 						//
; 2169 : 						// Check group count
; 2170 : 						//
; 2171 : 	
; 2172 : 						idle_group_count = 0.0;

  003dc	0f 57 c0	 xorps	 xmm0, xmm0
  003df	f3 0f 11 45 b4	 movss	 DWORD PTR _idle_group_count$[ebp], xmm0

; 2173 : 	
; 2174 : 						group = get_local_entity_first_child (keysite, LIST_TYPE_KEYSITE_GROUP);

  003e4	83 7d ec 00	 cmp	 DWORD PTR _keysite$[ebp], 0
  003e8	74 0d		 je	 SHORT $LN46@create_fix
  003ea	8b 45 ec	 mov	 eax, DWORD PTR _keysite$[ebp]
  003ed	8b 08		 mov	 ecx, DWORD PTR [eax]
  003ef	89 8d 60 ff ff
	ff		 mov	 DWORD PTR tv228[ebp], ecx
  003f5	eb 24		 jmp	 SHORT $LN47@create_fix
$LN46@create_fix:
  003f7	8b 15 00 00 00
	00		 mov	 edx, DWORD PTR ?__LINE__Var@?0??create_fixed_wing_transfer_tasks@@YGXXZ@4JA
  003fd	83 c2 4b	 add	 edx, 75			; 0000004bH
  00400	52		 push	 edx
  00401	68 00 00 00 00	 push	 OFFSET ??_C@_0ED@GMECMFKH@c?3?2users?2nhv90?2projects?2eech?2ap@
  00406	a1 00 00 00 00	 mov	 eax, DWORD PTR ?null_entity_pointer_message@@3PBDB ; null_entity_pointer_message
  0040b	50		 push	 eax
  0040c	e8 00 00 00 00	 call	 ?process_assert@@YGXPBD0H@Z ; process_assert
  00411	c7 85 60 ff ff
	ff 00 00 00 00	 mov	 DWORD PTR tv228[ebp], 0
$LN47@create_fix:
  0041b	b9 01 00 00 00	 mov	 ecx, 1
  00420	85 c9		 test	 ecx, ecx
  00422	74 0c		 je	 SHORT $LN48@create_fix
  00424	c7 85 5c ff ff
	ff 16 00 00 00	 mov	 DWORD PTR tv236[ebp], 22 ; 00000016H
  0042e	eb 24		 jmp	 SHORT $LN49@create_fix
$LN48@create_fix:
  00430	8b 15 00 00 00
	00		 mov	 edx, DWORD PTR ?__LINE__Var@?0??create_fixed_wing_transfer_tasks@@YGXXZ@4JA
  00436	83 c2 4b	 add	 edx, 75			; 0000004bH
  00439	52		 push	 edx
  0043a	68 00 00 00 00	 push	 OFFSET ??_C@_0ED@GMECMFKH@c?3?2users?2nhv90?2projects?2eech?2ap@
  0043f	a1 00 00 00 00	 mov	 eax, DWORD PTR ?overload_invalid_list_type_message@@3PBDB ; overload_invalid_list_type_message
  00444	50		 push	 eax
  00445	e8 00 00 00 00	 call	 ?process_assert@@YGXPBD0H@Z ; process_assert
  0044a	c7 85 5c ff ff
	ff 00 00 00 00	 mov	 DWORD PTR tv236[ebp], 0
$LN49@create_fix:
  00454	6a 16		 push	 22			; 00000016H
  00456	8b 4d ec	 mov	 ecx, DWORD PTR _keysite$[ebp]
  00459	51		 push	 ecx
  0045a	69 95 60 ff ff
	ff b4 00 00 00	 imul	 edx, DWORD PTR tv228[ebp], 180
  00464	8b 85 5c ff ff
	ff		 mov	 eax, DWORD PTR tv236[ebp]
  0046a	8b 8c 82 00 00
	00 00		 mov	 ecx, DWORD PTR ?fn_get_local_entity_first_child@@3PAY0CN@P6GPAUENTITY@@PAU1@W4LIST_TYPES@@@ZA[edx+eax*4]
  00471	ff d1		 call	 ecx
  00473	89 45 f0	 mov	 DWORD PTR _group$[ebp], eax
$LN6@create_fix:

; 2175 : 	
; 2176 : 						while (group)

  00476	83 7d f0 00	 cmp	 DWORD PTR _group$[ebp], 0
  0047a	0f 84 db 01 00
	00		 je	 $LN7@create_fix

; 2177 : 						{
; 2178 : 							group_type = get_local_entity_int_value (group, INT_TYPE_ENTITY_SUB_TYPE);

  00480	83 7d f0 00	 cmp	 DWORD PTR _group$[ebp], 0
  00484	74 0d		 je	 SHORT $LN50@create_fix
  00486	8b 45 f0	 mov	 eax, DWORD PTR _group$[ebp]
  00489	8b 08		 mov	 ecx, DWORD PTR [eax]
  0048b	89 8d 60 ff ff
	ff		 mov	 DWORD PTR tv249[ebp], ecx
  00491	eb 24		 jmp	 SHORT $LN51@create_fix
$LN50@create_fix:
  00493	8b 15 00 00 00
	00		 mov	 edx, DWORD PTR ?__LINE__Var@?0??create_fixed_wing_transfer_tasks@@YGXXZ@4JA
  00499	83 c2 4f	 add	 edx, 79			; 0000004fH
  0049c	52		 push	 edx
