; Listing generated by Microsoft (R) Optimizing Compiler Version 19.16.27045.0 

	TITLE	C:\Users\nhv90\Projects\eech\aphavoc\source\gunships\cockpits\hokum\hk_crew.c
	.686P
	.XMM
	include listing.inc
	.model	flat

INCLUDELIB MSVCRTD
INCLUDELIB OLDNAMES

PUBLIC	?initialise_hokum_crew_animation@@YGXXZ		; initialise_hokum_crew_animation
PUBLIC	?deinitialise_hokum_crew_animation@@YGXXZ	; deinitialise_hokum_crew_animation
PUBLIC	?update_hokum_crew_animation@@YGXXZ		; update_hokum_crew_animation
PUBLIC	?set_hokum_crew_head_positions@@YGXXZ		; set_hokum_crew_head_positions
PUBLIC	?reset_hokum_crew_eject_sequence@@YGXXZ		; reset_hokum_crew_eject_sequence
EXTRN	?initialise_hokum_co_pilot_animation@@YGXXZ:PROC ; initialise_hokum_co_pilot_animation
EXTRN	?deinitialise_hokum_co_pilot_animation@@YGXXZ:PROC ; deinitialise_hokum_co_pilot_animation
EXTRN	?update_hokum_co_pilot_animation@@YGXXZ:PROC	; update_hokum_co_pilot_animation
EXTRN	?set_hokum_co_pilot_head_position@@YGXXZ:PROC	; set_hokum_co_pilot_head_position
EXTRN	?reset_hokum_co_pilot_eject_sequence@@YGXXZ:PROC ; reset_hokum_co_pilot_eject_sequence
EXTRN	?initialise_hokum_pilot_animation@@YGXXZ:PROC	; initialise_hokum_pilot_animation
EXTRN	?deinitialise_hokum_pilot_animation@@YGXXZ:PROC	; deinitialise_hokum_pilot_animation
EXTRN	?update_hokum_pilot_animation@@YGXXZ:PROC	; update_hokum_pilot_animation
EXTRN	?set_hokum_pilot_head_position@@YGXXZ:PROC	; set_hokum_pilot_head_position
EXTRN	?reset_hokum_pilot_eject_sequence@@YGXXZ:PROC	; reset_hokum_pilot_eject_sequence
; Function compile flags: /Odtp /ZI
; File c:\users\nhv90\projects\eech\aphavoc\source\gunships\cockpits\hokum\hk_crew.c
;	COMDAT ?reset_hokum_crew_eject_sequence@@YGXXZ
_TEXT	SEGMENT
?reset_hokum_crew_eject_sequence@@YGXXZ PROC		; reset_hokum_crew_eject_sequence, COMDAT

; 132  : {

  00000	55		 push	 ebp
  00001	8b ec		 mov	 ebp, esp
  00003	83 ec 40	 sub	 esp, 64			; 00000040H
  00006	53		 push	 ebx
  00007	56		 push	 esi
  00008	57		 push	 edi

; 133  : 	reset_hokum_pilot_eject_sequence ();

  00009	e8 00 00 00 00	 call	 ?reset_hokum_pilot_eject_sequence@@YGXXZ ; reset_hokum_pilot_eject_sequence

; 134  : 
; 135  : 	reset_hokum_co_pilot_eject_sequence ();

  0000e	e8 00 00 00 00	 call	 ?reset_hokum_co_pilot_eject_sequence@@YGXXZ ; reset_hokum_co_pilot_eject_sequence

; 136  : }

  00013	5f		 pop	 edi
  00014	5e		 pop	 esi
  00015	5b		 pop	 ebx
  00016	8b e5		 mov	 esp, ebp
  00018	5d		 pop	 ebp
  00019	c3		 ret	 0
?reset_hokum_crew_eject_sequence@@YGXXZ ENDP		; reset_hokum_crew_eject_sequence
_TEXT	ENDS
; Function compile flags: /Odtp /ZI
; File c:\users\nhv90\projects\eech\aphavoc\source\gunships\cockpits\hokum\hk_crew.c
;	COMDAT ?set_hokum_crew_head_positions@@YGXXZ
_TEXT	SEGMENT
?set_hokum_crew_head_positions@@YGXXZ PROC		; set_hokum_crew_head_positions, COMDAT

; 121  : {

  00000	55		 push	 ebp
  00001	8b ec		 mov	 ebp, esp
  00003	83 ec 40	 sub	 esp, 64			; 00000040H
  00006	53		 push	 ebx
  00007	56		 push	 esi
  00008	57		 push	 edi

; 122  : 	set_hokum_pilot_head_position ();

  00009	e8 00 00 00 00	 call	 ?set_hokum_pilot_head_position@@YGXXZ ; set_hokum_pilot_head_position

; 123  : 
; 124  : 	set_hokum_co_pilot_head_position ();

  0000e	e8 00 00 00 00	 call	 ?set_hokum_co_pilot_head_position@@YGXXZ ; set_hokum_co_pilot_head_position

; 125  : }

  00013	5f		 pop	 edi
  00014	5e		 pop	 esi
  00015	5b		 pop	 ebx
  00016	8b e5		 mov	 esp, ebp
  00018	5d		 pop	 ebp
  00019	c3		 ret	 0
?set_hokum_crew_head_positions@@YGXXZ ENDP		; set_hokum_crew_head_positions
_TEXT	ENDS
; Function compile flags: /Odtp /ZI
; File c:\users\nhv90\projects\eech\aphavoc\source\gunships\cockpits\hokum\hk_crew.c
;	COMDAT ?update_hokum_crew_animation@@YGXXZ
_TEXT	SEGMENT
?update_hokum_crew_animation@@YGXXZ PROC		; update_hokum_crew_animation, COMDAT

; 102  : {

  00000	55		 push	 ebp
  00001	8b ec		 mov	 ebp, esp
  00003	83 ec 40	 sub	 esp, 64			; 00000040H
  00006	53		 push	 ebx
  00007	56		 push	 esi
  00008	57		 push	 edi

; 103  : 	update_hokum_pilot_animation ();

  00009	e8 00 00 00 00	 call	 ?update_hokum_pilot_animation@@YGXXZ ; update_hokum_pilot_animation

; 104  : 
; 105  : 	update_hokum_co_pilot_animation ();

  0000e	e8 00 00 00 00	 call	 ?update_hokum_co_pilot_animation@@YGXXZ ; update_hokum_co_pilot_animation

; 106  : }

  00013	5f		 pop	 edi
  00014	5e		 pop	 esi
  00015	5b		 pop	 ebx
  00016	8b e5		 mov	 esp, ebp
  00018	5d		 pop	 ebp
  00019	c3		 ret	 0
?update_hokum_crew_animation@@YGXXZ ENDP		; update_hokum_crew_animation
_TEXT	ENDS
; Function compile flags: /Odtp /ZI
; File c:\users\nhv90\projects\eech\aphavoc\source\gunships\cockpits\hokum\hk_crew.c
;	COMDAT ?deinitialise_hokum_crew_animation@@YGXXZ
_TEXT	SEGMENT
?deinitialise_hokum_crew_animation@@YGXXZ PROC		; deinitialise_hokum_crew_animation, COMDAT

; 91   : {

  00000	55		 push	 ebp
  00001	8b ec		 mov	 ebp, esp
  00003	83 ec 40	 sub	 esp, 64			; 00000040H
  00006	53		 push	 ebx
  00007	56		 push	 esi
  00008	57		 push	 edi

; 92   : 	deinitialise_hokum_pilot_animation ();

  00009	e8 00 00 00 00	 call	 ?deinitialise_hokum_pilot_animation@@YGXXZ ; deinitialise_hokum_pilot_animation

; 93   : 
; 94   : 	deinitialise_hokum_co_pilot_animation ();

  0000e	e8 00 00 00 00	 call	 ?deinitialise_hokum_co_pilot_animation@@YGXXZ ; deinitialise_hokum_co_pilot_animation

; 95   : }

  00013	5f		 pop	 edi
  00014	5e		 pop	 esi
  00015	5b		 pop	 ebx
  00016	8b e5		 mov	 esp, ebp
  00018	5d		 pop	 ebp
  00019	c3		 ret	 0
?deinitialise_hokum_crew_animation@@YGXXZ ENDP		; deinitialise_hokum_crew_animation
_TEXT	ENDS
; Function compile flags: /Odtp /ZI
; File c:\users\nhv90\projects\eech\aphavoc\source\gunships\cockpits\hokum\hk_crew.c
;	COMDAT ?initialise_hokum_crew_animation@@YGXXZ
_TEXT	SEGMENT
?initialise_hokum_crew_animation@@YGXXZ PROC		; initialise_hokum_crew_animation, COMDAT

; 80   : {

  00000	55		 push	 ebp
  00001	8b ec		 mov	 ebp, esp
  00003	83 ec 40	 sub	 esp, 64			; 00000040H
  00006	53		 push	 ebx
  00007	56		 push	 esi
  00008	57		 push	 edi

; 81   : 	initialise_hokum_pilot_animation ();

  00009	e8 00 00 00 00	 call	 ?initialise_hokum_pilot_animation@@YGXXZ ; initialise_hokum_pilot_animation

; 82   : 
; 83   : 	initialise_hokum_co_pilot_animation ();

  0000e	e8 00 00 00 00	 call	 ?initialise_hokum_co_pilot_animation@@YGXXZ ; initialise_hokum_co_pilot_animation

; 84   : }

  00013	5f		 pop	 edi
  00014	5e		 pop	 esi
  00015	5b		 pop	 ebx
  00016	8b e5		 mov	 esp, ebp
  00018	5d		 pop	 ebp
  00019	c3		 ret	 0
?initialise_hokum_crew_animation@@YGXXZ ENDP		; initialise_hokum_crew_animation
_TEXT	ENDS
END
