; Listing generated by Microsoft (R) Optimizing Compiler Version 19.16.27045.0 

	TITLE	C:\Users\nhv90\Projects\eech\aphavoc\source\gunships\cockpits\hokum\hk_cpg.c
	.686P
	.XMM
	include listing.inc
	.model	flat

INCLUDELIB MSVCRTD
INCLUDELIB OLDNAMES

PUBLIC	?initialise_hokum_co_pilot_animation@@YGXXZ	; initialise_hokum_co_pilot_animation
PUBLIC	?deinitialise_hokum_co_pilot_animation@@YGXXZ	; deinitialise_hokum_co_pilot_animation
PUBLIC	?update_hokum_co_pilot_animation@@YGXXZ		; update_hokum_co_pilot_animation
PUBLIC	?set_hokum_co_pilot_head_position@@YGXXZ	; set_hokum_co_pilot_head_position
PUBLIC	?get_hokum_co_pilot_head_pitch_datum@@YGMXZ	; get_hokum_co_pilot_head_pitch_datum
PUBLIC	?reset_hokum_co_pilot_eject_sequence@@YGXXZ	; reset_hokum_co_pilot_eject_sequence
PUBLIC	?__LINE__Var@?0??set_co_pilot_animation@@YGXPAUCO_PILOT_ANIM_DATA@@M@Z@4JA ; `set_co_pilot_animation'::`1'::__LINE__Var
PUBLIC	??_C@_0EN@HGKDONEK@c?3?2users?2nhv90?2projects?2eech?2ap@ ; `string'
PUBLIC	??_C@_04NBCDDDGK@anim@				; `string'
PUBLIC	??_C@_0BM@PAHNKOC@Invalid?5animation?5mode?5?$DN?5?$CFd@ ; `string'
PUBLIC	??_C@_0BJ@MENDMCHB@Invalid?5eject?5stage?5?$DN?5?$CFd@ ; `string'
PUBLIC	?__LINE__Var@?0??update_co_pilot_head_tilt_animation@@YGXXZ@4JA ; `update_co_pilot_head_tilt_animation'::`1'::__LINE__Var
PUBLIC	??_C@_0DH@KLNAKDEI@co_pilot_anim_mode?5?$DN?$DN?5CO_PILOT_@ ; `string'
PUBLIC	?__LINE__Var@?0??update_hokum_co_pilot_animation@@YGXXZ@4JA ; `update_hokum_co_pilot_animation'::`1'::__LINE__Var
PUBLIC	??_C@_0BG@EANNPEON@get_gunship_entity?5?$CI?$CJ@ ; `string'
PUBLIC	??_C@_0BI@CKBJIOHI@current_flight_dynamics@	; `string'
PUBLIC	??_C@_0BH@OJOOJLIP@virtual_cockpit_inst3d@	; `string'
PUBLIC	?__LINE__Var@?0??set_hokum_co_pilot_head_position@@YGXXZ@4JA ; `set_hokum_co_pilot_head_position'::`1'::__LINE__Var
PUBLIC	??_C@_0DE@MOLAKHGN@Failed?5to?5locate?5co?9pilot?8s?5hea@ ; `string'
PUBLIC	?__LINE__Var@?0??get_hokum_co_pilot_head_pitch_datum@@YGMXZ@4JA ; `get_hokum_co_pilot_head_pitch_datum'::`1'::__LINE__Var
PUBLIC	__real@00000000
PUBLIC	__real@0000000000000000
PUBLIC	__real@3ba3d70a
PUBLIC	__real@3c23d70a
PUBLIC	__real@3c75c28f
PUBLIC	__real@3d23d708
PUBLIC	__real@3d23d70a
PUBLIC	__real@3d75c28f
PUBLIC	__real@3d75c290
PUBLIC	__real@3e32b8c2
PUBLIC	__real@3e3851ec
PUBLIC	__real@3e6147ae
PUBLIC	__real@3ee147ae
PUBLIC	__real@3f000000
PUBLIC	__real@3f00002000400080
PUBLIC	__real@3f051eb8
PUBLIC	__real@3f800000
PUBLIC	__real@3fc3333333333333
PUBLIC	__real@3fc999999999999a
PUBLIC	__real@3fd0000000000000
PUBLIC	__real@3fe0000000000000
PUBLIC	__real@3ff0000000000000
PUBLIC	__real@3ff8000000000000
PUBLIC	__real@4000000000000000
PUBLIC	__real@4008000000000000
PUBLIC	__real@4016eb1686b280e6
PUBLIC	__real@be32b8c2
PUBLIC	__real@bf800000
PUBLIC	__xmm@80000000800000008000000080000000
EXTRN	?process_assert@@YGXPBD0H@Z:PROC		; process_assert
EXTRN	?debug_fatal@@YAXPBDZZ:PROC			; debug_fatal
EXTRN	?find_object_3d_sub_object@@YG?AW4SUB_OBJECT_SEARCH_RESULT_TYPES@@PAUOBJECT_3D_SUB_OBJECT_SEARCH_DATA@@@Z:PROC ; find_object_3d_sub_object
EXTRN	?notify_local_entity@@YAHW4ENTITY_MESSAGES@@PAUENTITY@@1ZZ:PROC ; notify_local_entity
EXTRN	?animate_entity_simple_keyframed_sub_objects@@YGXPAUOBJECT_3D_INSTANCE@@HM@Z:PROC ; animate_entity_simple_keyframed_sub_objects
EXTRN	?launch_client_server_weapon@@YGXPAUENTITY@@H@Z:PROC ; launch_client_server_weapon
EXTRN	?get_crew_role@@YG?AW4CREW_ROLES@@XZ:PROC	; get_crew_role
EXTRN	?system_delta_time@@3MA:DWORD			; system_delta_time
EXTRN	?random_number_seed@@3HA:DWORD			; random_number_seed
EXTRN	?null_entity_pointer_message@@3PBDB:DWORD	; null_entity_pointer_message
EXTRN	?overload_invalid_float_type_message@@3PBDB:DWORD ; overload_invalid_float_type_message
EXTRN	?fn_get_local_entity_float_value@@3PAY0KP@P6GMPAUENTITY@@W4FLOAT_TYPES@@@ZA:BYTE ; fn_get_local_entity_float_value
EXTRN	?overload_invalid_int_type_message@@3PBDB:DWORD	; overload_invalid_int_type_message
EXTRN	?fn_get_local_entity_int_value@@3PAY0BBH@P6GHPAUENTITY@@W4INT_TYPES@@@ZA:BYTE ; fn_get_local_entity_int_value
EXTRN	?gunship_entity@@3PAUENTITY@@A:DWORD		; gunship_entity
EXTRN	?camera_entity@@3PAUENTITY@@A:DWORD		; camera_entity
EXTRN	?view_mode@@3W4VIEW_MODES@@A:DWORD		; view_mode
EXTRN	?night_vision_system_active@@3HA:DWORD		; night_vision_system_active
EXTRN	?virtual_cockpit_inst3d@@3PAUOBJECT_3D_INSTANCE@@A:DWORD ; virtual_cockpit_inst3d
EXTRN	?co_pilot_head_pitch_datum@@3MA:DWORD		; co_pilot_head_pitch_datum
EXTRN	?current_flight_dynamics@@3PAUDYNAMICS_TYPE@@A:DWORD ; current_flight_dynamics
EXTRN	__fltused:DWORD
_BSS	SEGMENT
?co_pilot_head_anim_frame@@3MA DD 01H DUP (?)		; co_pilot_head_anim_frame
?co_pilot_head_anim_pause@@3MA DD 01H DUP (?)		; co_pilot_head_anim_pause
?previous_co_pilot_head_tilt_angle@@3MA DD 01H DUP (?)	; previous_co_pilot_head_tilt_angle
?co_pilot_nvg_anim_frame@@3MA DD 01H DUP (?)		; co_pilot_nvg_anim_frame
?eject_timer@@3MA DD 01H DUP (?)			; eject_timer
?eject_stage@@3HA DD 01H DUP (?)			; eject_stage
?co_pilot_anim_mode@@3W4CO_PILOT_ANIM_MODES@@A DD 01H DUP (?) ; co_pilot_anim_mode
?co_pilot_anim_frame@@3MA DD 01H DUP (?)		; co_pilot_anim_frame
?co_pilot_anim_delay@@3MA DD 01H DUP (?)		; co_pilot_anim_delay
_BSS	ENDS
;	COMDAT __xmm@80000000800000008000000080000000
CONST	SEGMENT
__xmm@80000000800000008000000080000000 DB 00H, 00H, 00H, 080H, 00H, 00H, 00H
	DB	080H, 00H, 00H, 00H, 080H, 00H, 00H, 00H, 080H
CONST	ENDS
;	COMDAT __real@bf800000
CONST	SEGMENT
__real@bf800000 DD 0bf800000r			; -1
CONST	ENDS
;	COMDAT __real@be32b8c2
CONST	SEGMENT
__real@be32b8c2 DD 0be32b8c2r			; -0.174533
CONST	ENDS
;	COMDAT __real@4016eb1686b280e6
CONST	SEGMENT
__real@4016eb1686b280e6 DQ 04016eb1686b280e6r	; 5.72958
CONST	ENDS
;	COMDAT __real@4008000000000000
CONST	SEGMENT
__real@4008000000000000 DQ 04008000000000000r	; 3
CONST	ENDS
;	COMDAT __real@4000000000000000
CONST	SEGMENT
__real@4000000000000000 DQ 04000000000000000r	; 2
CONST	ENDS
;	COMDAT __real@3ff8000000000000
CONST	SEGMENT
__real@3ff8000000000000 DQ 03ff8000000000000r	; 1.5
CONST	ENDS
;	COMDAT __real@3ff0000000000000
CONST	SEGMENT
__real@3ff0000000000000 DQ 03ff0000000000000r	; 1
CONST	ENDS
;	COMDAT __real@3fe0000000000000
CONST	SEGMENT
__real@3fe0000000000000 DQ 03fe0000000000000r	; 0.5
CONST	ENDS
;	COMDAT __real@3fd0000000000000
CONST	SEGMENT
__real@3fd0000000000000 DQ 03fd0000000000000r	; 0.25
CONST	ENDS
;	COMDAT __real@3fc999999999999a
CONST	SEGMENT
__real@3fc999999999999a DQ 03fc999999999999ar	; 0.2
CONST	ENDS
;	COMDAT __real@3fc3333333333333
CONST	SEGMENT
__real@3fc3333333333333 DQ 03fc3333333333333r	; 0.15
CONST	ENDS
;	COMDAT __real@3f800000
CONST	SEGMENT
__real@3f800000 DD 03f800000r			; 1
CONST	ENDS
;	COMDAT __real@3f051eb8
CONST	SEGMENT
__real@3f051eb8 DD 03f051eb8r			; 0.52
CONST	ENDS
;	COMDAT __real@3f00002000400080
CONST	SEGMENT
__real@3f00002000400080 DQ 03f00002000400080r	; 3.05185e-05
CONST	ENDS
;	COMDAT __real@3f000000
CONST	SEGMENT
__real@3f000000 DD 03f000000r			; 0.5
CONST	ENDS
;	COMDAT __real@3ee147ae
CONST	SEGMENT
__real@3ee147ae DD 03ee147aer			; 0.44
CONST	ENDS
;	COMDAT __real@3e6147ae
CONST	SEGMENT
__real@3e6147ae DD 03e6147aer			; 0.22
CONST	ENDS
;	COMDAT __real@3e3851ec
CONST	SEGMENT
__real@3e3851ec DD 03e3851ecr			; 0.18
CONST	ENDS
;	COMDAT __real@3e32b8c2
CONST	SEGMENT
__real@3e32b8c2 DD 03e32b8c2r			; 0.174533
CONST	ENDS
;	COMDAT __real@3d75c290
CONST	SEGMENT
__real@3d75c290 DD 03d75c290r			; 0.06
CONST	ENDS
;	COMDAT __real@3d75c28f
CONST	SEGMENT
__real@3d75c28f DD 03d75c28fr			; 0.06
CONST	ENDS
;	COMDAT __real@3d23d70a
CONST	SEGMENT
__real@3d23d70a DD 03d23d70ar			; 0.04
CONST	ENDS
;	COMDAT __real@3d23d708
CONST	SEGMENT
__real@3d23d708 DD 03d23d708r			; 0.04
CONST	ENDS
;	COMDAT __real@3c75c28f
CONST	SEGMENT
__real@3c75c28f DD 03c75c28fr			; 0.015
CONST	ENDS
;	COMDAT __real@3c23d70a
CONST	SEGMENT
__real@3c23d70a DD 03c23d70ar			; 0.01
CONST	ENDS
;	COMDAT __real@3ba3d70a
CONST	SEGMENT
__real@3ba3d70a DD 03ba3d70ar			; 0.005
CONST	ENDS
;	COMDAT __real@0000000000000000
CONST	SEGMENT
__real@0000000000000000 DQ 00000000000000000r	; 0
CONST	ENDS
;	COMDAT __real@00000000
CONST	SEGMENT
__real@00000000 DD 000000000r			; 0
CONST	ENDS
;	COMDAT ?__LINE__Var@?0??get_hokum_co_pilot_head_pitch_datum@@YGMXZ@4JA
_DATA	SEGMENT
?__LINE__Var@?0??get_hokum_co_pilot_head_pitch_datum@@YGMXZ@4JA DD 0834H ; `get_hokum_co_pilot_head_pitch_datum'::`1'::__LINE__Var
_DATA	ENDS
;	COMDAT ??_C@_0DE@MOLAKHGN@Failed?5to?5locate?5co?9pilot?8s?5hea@
CONST	SEGMENT
??_C@_0DE@MOLAKHGN@Failed?5to?5locate?5co?9pilot?8s?5hea@ DB 'Failed to l'
	DB	'ocate co-pilot''s head in virtual cockpit', 00H ; `string'
CONST	ENDS
;	COMDAT ?__LINE__Var@?0??set_hokum_co_pilot_head_position@@YGXXZ@4JA
_DATA	SEGMENT
?__LINE__Var@?0??set_hokum_co_pilot_head_position@@YGXXZ@4JA DD 07fdH ; `set_hokum_co_pilot_head_position'::`1'::__LINE__Var
_DATA	ENDS
;	COMDAT ??_C@_0BH@OJOOJLIP@virtual_cockpit_inst3d@
CONST	SEGMENT
??_C@_0BH@OJOOJLIP@virtual_cockpit_inst3d@ DB 'virtual_cockpit_inst3d', 00H ; `string'
CONST	ENDS
;	COMDAT ??_C@_0BI@CKBJIOHI@current_flight_dynamics@
CONST	SEGMENT
??_C@_0BI@CKBJIOHI@current_flight_dynamics@ DB 'current_flight_dynamics', 00H ; `string'
CONST	ENDS
;	COMDAT ??_C@_0BG@EANNPEON@get_gunship_entity?5?$CI?$CJ@
CONST	SEGMENT
??_C@_0BG@EANNPEON@get_gunship_entity?5?$CI?$CJ@ DB 'get_gunship_entity ('
	DB	')', 00H					; `string'
CONST	ENDS
;	COMDAT ?__LINE__Var@?0??update_hokum_co_pilot_animation@@YGXXZ@4JA
_DATA	SEGMENT
?__LINE__Var@?0??update_hokum_co_pilot_animation@@YGXXZ@4JA DD 07eeH ; `update_hokum_co_pilot_animation'::`1'::__LINE__Var
_DATA	ENDS
;	COMDAT ??_C@_0DH@KLNAKDEI@co_pilot_anim_mode?5?$DN?$DN?5CO_PILOT_@
CONST	SEGMENT
??_C@_0DH@KLNAKDEI@co_pilot_anim_mode?5?$DN?$DN?5CO_PILOT_@ DB 'co_pilot_'
	DB	'anim_mode == CO_PILOT_ANIM_MODE_DATUM_AT_REST', 00H ; `string'
CONST	ENDS
;	COMDAT ?__LINE__Var@?0??update_co_pilot_head_tilt_animation@@YGXXZ@4JA
_DATA	SEGMENT
?__LINE__Var@?0??update_co_pilot_head_tilt_animation@@YGXXZ@4JA DD 078dH ; `update_co_pilot_head_tilt_animation'::`1'::__LINE__Var
_DATA	ENDS
;	COMDAT ??_C@_0BJ@MENDMCHB@Invalid?5eject?5stage?5?$DN?5?$CFd@
CONST	SEGMENT
??_C@_0BJ@MENDMCHB@Invalid?5eject?5stage?5?$DN?5?$CFd@ DB 'Invalid eject '
	DB	'stage = %d', 00H				; `string'
CONST	ENDS
;	COMDAT ??_C@_0BM@PAHNKOC@Invalid?5animation?5mode?5?$DN?5?$CFd@
CONST	SEGMENT
??_C@_0BM@PAHNKOC@Invalid?5animation?5mode?5?$DN?5?$CFd@ DB 'Invalid anim'
	DB	'ation mode = %d', 00H			; `string'
CONST	ENDS
;	COMDAT ??_C@_04NBCDDDGK@anim@
CONST	SEGMENT
??_C@_04NBCDDDGK@anim@ DB 'anim', 00H			; `string'
CONST	ENDS
;	COMDAT ??_C@_0EN@HGKDONEK@c?3?2users?2nhv90?2projects?2eech?2ap@
CONST	SEGMENT
??_C@_0EN@HGKDONEK@c?3?2users?2nhv90?2projects?2eech?2ap@ DB 'c:\users\nh'
	DB	'v90\projects\eech\aphavoc\source\gunships\cockpits\hokum\hk_c'
	DB	'pg.c', 00H					; `string'
CONST	ENDS
;	COMDAT ?__LINE__Var@?0??set_co_pilot_animation@@YGXPAUCO_PILOT_ANIM_DATA@@M@Z@4JA
_DATA	SEGMENT
?__LINE__Var@?0??set_co_pilot_animation@@YGXPAUCO_PILOT_ANIM_DATA@@M@Z@4JA DD 0370H ; `set_co_pilot_animation'::`1'::__LINE__Var
_DATA	ENDS
_DATA	SEGMENT
?co_pilot_anim_mode_datum_at_rest_anim_data@@3UCO_PILOT_ANIM_DATA@@A DD 000000000r ; 0 ; co_pilot_anim_mode_datum_at_rest_anim_data
	DD	000000000r			; 0
	DD	01H
?co_pilot_anim_mode_datum_at_scope_anim_data@@3UCO_PILOT_ANIM_DATA@@A DD 000000000r ; 0 ; co_pilot_anim_mode_datum_at_scope_anim_data
	DD	000000000r			; 0
	DD	02H
?co_pilot_anim_mode_lean_forward_to_scope_anim_data@@3UCO_PILOT_ANIM_DATA@@A DD 03f000000r ; 0.5 ; co_pilot_anim_mode_lean_forward_to_scope_anim_data
	DD	03f051eb8r			; 0.52
	DD	03dH
?co_pilot_anim_mode_lean_back_from_scope_anim_data@@3UCO_PILOT_ANIM_DATA@@A DD 03f4ccccdr ; 0.8 ; co_pilot_anim_mode_lean_back_from_scope_anim_data
	DD	03f51eb85r			; 0.82
	DD	03eH
?co_pilot_anim_mode_left_hand_from_rest_to_upper_switch_anim_data@@3UCO_PILOT_ANIM_DATA@@A DD 03d75c28fr ; 0.06 ; co_pilot_anim_mode_left_hand_from_rest_to_upper_switch_anim_data
	DD	03dcccccdr			; 0.1
	DD	015H
?co_pilot_anim_mode_left_hand_from_rest_to_calculator_anim_data@@3UCO_PILOT_ANIM_DATA@@A DD 03dcccccdr ; 0.1 ; co_pilot_anim_mode_left_hand_from_rest_to_calculator_anim_data
	DD	03e0f5c29r			; 0.14
	DD	03dH
?co_pilot_anim_mode_left_hand_from_rest_to_master_arm_switch_anim_data@@3UCO_PILOT_ANIM_DATA@@A DD 03e0f5c29r ; 0.14 ; co_pilot_anim_mode_left_hand_from_rest_to_master_arm_switch_anim_data
	DD	03e3851ecr			; 0.18
	DD	013dH
?co_pilot_anim_mode_left_hand_from_rest_to_nvg_anim_data@@3UCO_PILOT_ANIM_DATA@@A DD 03e3851ecr ; 0.18 ; co_pilot_anim_mode_left_hand_from_rest_to_nvg_anim_data
	DD	03e6147aer			; 0.22
	DD	011H
?co_pilot_anim_mode_both_hands_pull_eject_anim_data@@3UCO_PILOT_ANIM_DATA@@A DD 03e6147aer ; 0.22 ; co_pilot_anim_mode_both_hands_pull_eject_anim_data
	DD	03e800000r			; 0.25
	DD	0f5H
?co_pilot_anim_mode_left_hand_from_scope_to_master_arm_switch_anim_data@@3UCO_PILOT_ANIM_DATA@@A DD 03f051eb8r ; 0.52 ; co_pilot_anim_mode_left_hand_from_scope_to_master_arm_switch_anim_data
	DD	03f0f5c29r			; 0.56
	DD	0112H
?co_pilot_anim_mode_left_hand_from_scope_to_thumbs_up_anim_data@@3UCO_PILOT_ANIM_DATA@@A DD 03f1eb852r ; 0.62 ; co_pilot_anim_mode_left_hand_from_scope_to_thumbs_up_anim_data
	DD	03f28f5c3r			; 0.66
	DD	012H
?co_pilot_anim_mode_right_hand_from_scope_to_cyclic_anim_data@@3UCO_PILOT_ANIM_DATA@@A DD 03f0f5c29r ; 0.56 ; co_pilot_anim_mode_right_hand_from_scope_to_cyclic_anim_data
	DD	03f147ae1r			; 0.58
	DD	022H
?co_pilot_anim_mode_right_hand_thumb_button1_anim_data@@3UCO_PILOT_ANIM_DATA@@A DD 03f147ae1r ; 0.58 ; co_pilot_anim_mode_right_hand_thumb_button1_anim_data
	DD	03f170a3dr			; 0.59
	DD	022H
?co_pilot_anim_mode_right_hand_thumb_button2_anim_data@@3UCO_PILOT_ANIM_DATA@@A DD 03f170a3dr ; 0.59 ; co_pilot_anim_mode_right_hand_thumb_button2_anim_data
	DD	03f19999ar			; 0.6
	DD	022H
?co_pilot_anim_mode_right_hand_from_cyclic_to_scope_anim_data@@3UCO_PILOT_ANIM_DATA@@A DD 03f19999ar ; 0.6 ; co_pilot_anim_mode_right_hand_from_cyclic_to_scope_anim_data
	DD	03f1eb852r			; 0.62
	DD	022H
?co_pilot_anim_mode_head_look_down_anim_data@@3UCO_PILOT_ANIM_DATA@@A DD 03ec28f5cr ; 0.38 ; co_pilot_anim_mode_head_look_down_anim_data
	DD	03ecccccdr			; 0.4
	DD	05H
?co_pilot_anim_mode_head_look_down_left_anim_data@@3UCO_PILOT_ANIM_DATA@@A DD 03eae147br ; 0.34 ; co_pilot_anim_mode_head_look_down_left_anim_data
	DD	03eb851ecr			; 0.36
	DD	05H
?co_pilot_anim_mode_head_look_down_right_anim_data@@3UCO_PILOT_ANIM_DATA@@A DD 03eb851ecr ; 0.36 ; co_pilot_anim_mode_head_look_down_right_anim_data
	DD	03ec28f5cr			; 0.38
	DD	05H
?co_pilot_anim_mode_head_look_up_anim_data@@3UCO_PILOT_ANIM_DATA@@A DD 03ecccccdr ; 0.4 ; co_pilot_anim_mode_head_look_up_anim_data
	DD	03ed70a3dr			; 0.42
	DD	05H
?co_pilot_anim_mode_head_look_up_left_anim_data@@3UCO_PILOT_ANIM_DATA@@A DD 03eeb851fr ; 0.46 ; co_pilot_anim_mode_head_look_up_left_anim_data
	DD	03ef5c28fr			; 0.48
	DD	05H
?co_pilot_anim_mode_head_look_up_right_anim_data@@3UCO_PILOT_ANIM_DATA@@A DD 03ef5c28fr ; 0.48 ; co_pilot_anim_mode_head_look_up_right_anim_data
	DD	03f000000r			; 0.5
	DD	05H
?co_pilot_anim_mode_head_look_left_anim_data@@3UCO_PILOT_ANIM_DATA@@A DD 03ed70a3dr ; 0.42 ; co_pilot_anim_mode_head_look_left_anim_data
	DD	03ee147aer			; 0.44
	DD	05H
?co_pilot_anim_mode_head_look_right_anim_data@@3UCO_PILOT_ANIM_DATA@@A DD 03ee147aer ; 0.44 ; co_pilot_anim_mode_head_look_right_anim_data
	DD	03eeb851fr			; 0.46
	DD	05H
?previous_n@?1??get_random_co_pilot_datum_at_rest_anim_mode@@YG?AW4CO_PILOT_ANIM_MODES@@XZ@4HA DD 0ffffffffH ; `get_random_co_pilot_datum_at_rest_anim_mode'::`2'::previous_n
?previous_n@?1??get_random_co_pilot_datum_at_scope_anim_mode@@YG?AW4CO_PILOT_ANIM_MODES@@XZ@4HA DD 0ffffffffH ; `get_random_co_pilot_datum_at_scope_anim_mode'::`2'::previous_n
_DATA	ENDS
; Function compile flags: /Odtp /ZI
; File c:\users\nhv90\projects\eech\aphavoc\source\gunships\cockpits\hokum\hk_cpg.c
;	COMDAT ?update_co_pilot_head_tilt_animation@@YGXXZ
_TEXT	SEGMENT
tv150 = -84						; size = 4
tv140 = -84						; size = 4
tv93 = -84						; size = 4
tv85 = -84						; size = 4
tv151 = -80						; size = 4
tv141 = -80						; size = 4
tv94 = -80						; size = 4
tv77 = -80						; size = 4
_anim_frame$ = -12					; size = 4
_frame$ = -8						; size = 4
_co_pilot_head_tilt_angle$ = -4				; size = 4
?update_co_pilot_head_tilt_animation@@YGXXZ PROC	; update_co_pilot_head_tilt_animation, COMDAT

; 1933 : {

  00000	55		 push	 ebp
  00001	8b ec		 mov	 ebp, esp
  00003	83 ec 54	 sub	 esp, 84			; 00000054H
  00006	53		 push	 ebx
  00007	56		 push	 esi
  00008	57		 push	 edi

; 1934 : 	float
; 1935 : 		co_pilot_head_tilt_angle,
; 1936 : 		frame,
; 1937 : 		anim_frame;
; 1938 : 
; 1939 : 	ASSERT (co_pilot_anim_mode == CO_PILOT_ANIM_MODE_DATUM_AT_REST);

  00009	83 3d 00 00 00
	00 00		 cmp	 DWORD PTR ?co_pilot_anim_mode@@3W4CO_PILOT_ANIM_MODES@@A, 0
  00010	74 18		 je	 SHORT $LN2@update_co_
  00012	a1 00 00 00 00	 mov	 eax, DWORD PTR ?__LINE__Var@?0??update_co_pilot_head_tilt_animation@@YGXXZ@4JA
  00017	83 c0 06	 add	 eax, 6
  0001a	50		 push	 eax
  0001b	68 00 00 00 00	 push	 OFFSET ??_C@_0EN@HGKDONEK@c?3?2users?2nhv90?2projects?2eech?2ap@
  00020	68 00 00 00 00	 push	 OFFSET ??_C@_0DH@KLNAKDEI@co_pilot_anim_mode?5?$DN?$DN?5CO_PILOT_@
  00025	e8 00 00 00 00	 call	 ?process_assert@@YGXPBD0H@Z ; process_assert
$LN2@update_co_:

; 1940 : 
; 1941 : 	if (co_pilot_anim_delay < 1.0)

  0002a	f3 0f 5a 05 00
	00 00 00	 cvtss2sd xmm0, DWORD PTR ?co_pilot_anim_delay@@3MA
  00032	f2 0f 10 0d 00
	00 00 00	 movsd	 xmm1, QWORD PTR __real@3ff0000000000000
  0003a	66 0f 2f c8	 comisd	 xmm1, xmm0
  0003e	76 0d		 jbe	 SHORT $LN3@update_co_

; 1942 : 	{
; 1943 : 		co_pilot_head_tilt_angle = 0.0;

  00040	0f 57 c0	 xorps	 xmm0, xmm0
  00043	f3 0f 11 45 fc	 movss	 DWORD PTR _co_pilot_head_tilt_angle$[ebp], xmm0

; 1944 : 	}
; 1945 : 	else

  00048	e9 88 00 00 00	 jmp	 $LN4@update_co_
$LN3@update_co_:

; 1946 : 	{
; 1947 : 		co_pilot_head_tilt_angle = get_local_entity_float_value (get_gunship_entity (), FLOAT_TYPE_ROLL);

  0004d	83 3d 00 00 00
	00 00		 cmp	 DWORD PTR ?gunship_entity@@3PAUENTITY@@A, 0 ; gunship_entity
  00054	74 0c		 je	 SHORT $LN8@update_co_
  00056	a1 00 00 00 00	 mov	 eax, DWORD PTR ?gunship_entity@@3PAUENTITY@@A ; gunship_entity
  0005b	8b 08		 mov	 ecx, DWORD PTR [eax]
  0005d	89 4d b0	 mov	 DWORD PTR tv77[ebp], ecx
  00060	eb 21		 jmp	 SHORT $LN9@update_co_
$LN8@update_co_:
  00062	8b 15 00 00 00
	00		 mov	 edx, DWORD PTR ?__LINE__Var@?0??update_co_pilot_head_tilt_animation@@YGXXZ@4JA
  00068	83 c2 0e	 add	 edx, 14			; 0000000eH
  0006b	52		 push	 edx
  0006c	68 00 00 00 00	 push	 OFFSET ??_C@_0EN@HGKDONEK@c?3?2users?2nhv90?2projects?2eech?2ap@
  00071	a1 00 00 00 00	 mov	 eax, DWORD PTR ?null_entity_pointer_message@@3PBDB ; null_entity_pointer_message
  00076	50		 push	 eax
  00077	e8 00 00 00 00	 call	 ?process_assert@@YGXPBD0H@Z ; process_assert
  0007c	c7 45 b0 00 00
	00 00		 mov	 DWORD PTR tv77[ebp], 0
$LN9@update_co_:
  00083	b9 01 00 00 00	 mov	 ecx, 1
  00088	85 c9		 test	 ecx, ecx
  0008a	74 09		 je	 SHORT $LN10@update_co_
  0008c	c7 45 ac 71 00
	00 00		 mov	 DWORD PTR tv85[ebp], 113 ; 00000071H
  00093	eb 21		 jmp	 SHORT $LN11@update_co_
$LN10@update_co_:
  00095	8b 15 00 00 00
	00		 mov	 edx, DWORD PTR ?__LINE__Var@?0??update_co_pilot_head_tilt_animation@@YGXXZ@4JA
  0009b	83 c2 0e	 add	 edx, 14			; 0000000eH
  0009e	52		 push	 edx
  0009f	68 00 00 00 00	 push	 OFFSET ??_C@_0EN@HGKDONEK@c?3?2users?2nhv90?2projects?2eech?2ap@
  000a4	a1 00 00 00 00	 mov	 eax, DWORD PTR ?overload_invalid_float_type_message@@3PBDB ; overload_invalid_float_type_message
  000a9	50		 push	 eax
  000aa	e8 00 00 00 00	 call	 ?process_assert@@YGXPBD0H@Z ; process_assert
  000af	c7 45 ac 00 00
	00 00		 mov	 DWORD PTR tv85[ebp], 0
$LN11@update_co_:
  000b6	6a 71		 push	 113			; 00000071H
  000b8	8b 0d 00 00 00
	00		 mov	 ecx, DWORD PTR ?gunship_entity@@3PAUENTITY@@A ; gunship_entity
  000be	51		 push	 ecx
  000bf	69 55 b0 bc 02
	00 00		 imul	 edx, DWORD PTR tv77[ebp], 700
  000c6	8b 45 ac	 mov	 eax, DWORD PTR tv85[ebp]
  000c9	8b 8c 82 00 00
	00 00		 mov	 ecx, DWORD PTR ?fn_get_local_entity_float_value@@3PAY0KP@P6GMPAUENTITY@@W4FLOAT_TYPES@@@ZA[edx+eax*4]
  000d0	ff d1		 call	 ecx
  000d2	d9 5d fc	 fstp	 DWORD PTR _co_pilot_head_tilt_angle$[ebp]
$LN4@update_co_:

; 1948 : 	}
; 1949 : 
; 1950 : 	co_pilot_head_tilt_angle = bound (co_pilot_head_tilt_angle, -MAX_ROLL, MAX_ROLL);

  000d5	f3 0f 10 05 00
	00 00 00	 movss	 xmm0, DWORD PTR __real@be32b8c2
  000dd	0f 2f 45 fc	 comiss	 xmm0, DWORD PTR _co_pilot_head_tilt_angle$[ebp]
  000e1	76 0f		 jbe	 SHORT $LN14@update_co_
  000e3	f3 0f 10 05 00
	00 00 00	 movss	 xmm0, DWORD PTR __real@be32b8c2
  000eb	f3 0f 11 45 b0	 movss	 DWORD PTR tv94[ebp], xmm0
  000f0	eb 31		 jmp	 SHORT $LN15@update_co_
$LN14@update_co_:
  000f2	f3 0f 10 45 fc	 movss	 xmm0, DWORD PTR _co_pilot_head_tilt_angle$[ebp]
  000f7	0f 2f 05 00 00
	00 00		 comiss	 xmm0, DWORD PTR __real@3e32b8c2
  000fe	76 0f		 jbe	 SHORT $LN12@update_co_
  00100	f3 0f 10 05 00
	00 00 00	 movss	 xmm0, DWORD PTR __real@3e32b8c2
  00108	f3 0f 11 45 ac	 movss	 DWORD PTR tv93[ebp], xmm0
  0010d	eb 0a		 jmp	 SHORT $LN13@update_co_
$LN12@update_co_:
  0010f	f3 0f 10 45 fc	 movss	 xmm0, DWORD PTR _co_pilot_head_tilt_angle$[ebp]
  00114	f3 0f 11 45 ac	 movss	 DWORD PTR tv93[ebp], xmm0
$LN13@update_co_:
  00119	f3 0f 10 45 ac	 movss	 xmm0, DWORD PTR tv93[ebp]
  0011e	f3 0f 11 45 b0	 movss	 DWORD PTR tv94[ebp], xmm0
$LN15@update_co_:
  00123	f3 0f 10 45 b0	 movss	 xmm0, DWORD PTR tv94[ebp]
  00128	f3 0f 11 45 fc	 movss	 DWORD PTR _co_pilot_head_tilt_angle$[ebp], xmm0

; 1951 : 
; 1952 : 	co_pilot_head_tilt_angle = (co_pilot_head_tilt_angle + previous_co_pilot_head_tilt_angle) * 0.5;

  0012d	f3 0f 10 45 fc	 movss	 xmm0, DWORD PTR _co_pilot_head_tilt_angle$[ebp]
  00132	f3 0f 58 05 00
	00 00 00	 addss	 xmm0, DWORD PTR ?previous_co_pilot_head_tilt_angle@@3MA
  0013a	f3 0f 5a c0	 cvtss2sd xmm0, xmm0
  0013e	f2 0f 59 05 00
	00 00 00	 mulsd	 xmm0, QWORD PTR __real@3fe0000000000000
  00146	f2 0f 5a c0	 cvtsd2ss xmm0, xmm0
  0014a	f3 0f 11 45 fc	 movss	 DWORD PTR _co_pilot_head_tilt_angle$[ebp], xmm0

; 1953 : 
; 1954 : 	if (co_pilot_head_tilt_angle >= 0.0)

  0014f	f3 0f 5a 45 fc	 cvtss2sd xmm0, DWORD PTR _co_pilot_head_tilt_angle$[ebp]
  00154	66 0f 2f 05 00
	00 00 00	 comisd	 xmm0, QWORD PTR __real@0000000000000000
  0015c	0f 82 83 00 00
	00		 jb	 $LN5@update_co_

; 1955 : 	{
; 1956 : 		frame = co_pilot_head_tilt_angle * (1.0 / MAX_ROLL);

  00162	f3 0f 5a 45 fc	 cvtss2sd xmm0, DWORD PTR _co_pilot_head_tilt_angle$[ebp]
  00167	f2 0f 59 05 00
	00 00 00	 mulsd	 xmm0, QWORD PTR __real@4016eb1686b280e6
  0016f	f2 0f 5a c0	 cvtsd2ss xmm0, xmm0
  00173	f3 0f 11 45 f8	 movss	 DWORD PTR _frame$[ebp], xmm0

; 1957 : 
; 1958 : 		anim_frame = ((CO_PILOT_HEAD_TILT_RIGHT_ANIM_END - CO_PILOT_HEAD_TILT_RIGHT_ANIM_START) * frame) + CO_PILOT_HEAD_TILT_RIGHT_ANIM_START;

  00178	f3 0f 10 05 00
	00 00 00	 movss	 xmm0, DWORD PTR __real@3ba3d70a
  00180	f3 0f 59 45 f8	 mulss	 xmm0, DWORD PTR _frame$[ebp]
  00185	f3 0f 58 05 00
	00 00 00	 addss	 xmm0, DWORD PTR __real@00000000
  0018d	f3 0f 11 45 f4	 movss	 DWORD PTR _anim_frame$[ebp], xmm0

; 1959 : 
; 1960 : 		anim_frame = bound (anim_frame, CO_PILOT_HEAD_TILT_RIGHT_ANIM_START, CO_PILOT_HEAD_TILT_RIGHT_ANIM_END);

  00192	0f 57 c0	 xorps	 xmm0, xmm0
  00195	0f 2f 45 f4	 comiss	 xmm0, DWORD PTR _anim_frame$[ebp]
  00199	76 0a		 jbe	 SHORT $LN18@update_co_
  0019b	0f 57 c0	 xorps	 xmm0, xmm0
  0019e	f3 0f 11 45 b0	 movss	 DWORD PTR tv141[ebp], xmm0
  001a3	eb 31		 jmp	 SHORT $LN19@update_co_
$LN18@update_co_:
  001a5	f3 0f 10 45 f4	 movss	 xmm0, DWORD PTR _anim_frame$[ebp]
  001aa	0f 2f 05 00 00
	00 00		 comiss	 xmm0, DWORD PTR __real@3ba3d70a
  001b1	76 0f		 jbe	 SHORT $LN16@update_co_
  001b3	f3 0f 10 05 00
	00 00 00	 movss	 xmm0, DWORD PTR __real@3ba3d70a
  001bb	f3 0f 11 45 ac	 movss	 DWORD PTR tv140[ebp], xmm0
  001c0	eb 0a		 jmp	 SHORT $LN17@update_co_
$LN16@update_co_:
  001c2	f3 0f 10 45 f4	 movss	 xmm0, DWORD PTR _anim_frame$[ebp]
  001c7	f3 0f 11 45 ac	 movss	 DWORD PTR tv140[ebp], xmm0
$LN17@update_co_:
  001cc	f3 0f 10 45 ac	 movss	 xmm0, DWORD PTR tv140[ebp]
  001d1	f3 0f 11 45 b0	 movss	 DWORD PTR tv141[ebp], xmm0
$LN19@update_co_:
  001d6	f3 0f 10 45 b0	 movss	 xmm0, DWORD PTR tv141[ebp]
  001db	f3 0f 11 45 f4	 movss	 DWORD PTR _anim_frame$[ebp], xmm0

; 1961 : 	}
; 1962 : 	else

  001e0	e9 93 00 00 00	 jmp	 $LN6@update_co_
$LN5@update_co_:

; 1963 : 	{
; 1964 : 		frame = -co_pilot_head_tilt_angle * (1.0 / MAX_ROLL);

  001e5	f3 0f 10 45 fc	 movss	 xmm0, DWORD PTR _co_pilot_head_tilt_angle$[ebp]
  001ea	0f 57 05 00 00
	00 00		 xorps	 xmm0, DWORD PTR __xmm@80000000800000008000000080000000
  001f1	f3 0f 5a c0	 cvtss2sd xmm0, xmm0
  001f5	f2 0f 59 05 00
	00 00 00	 mulsd	 xmm0, QWORD PTR __real@4016eb1686b280e6
  001fd	f2 0f 5a c0	 cvtsd2ss xmm0, xmm0
  00201	f3 0f 11 45 f8	 movss	 DWORD PTR _frame$[ebp], xmm0

; 1965 : 
; 1966 : 		anim_frame = ((CO_PILOT_HEAD_TILT_LEFT_ANIM_END - CO_PILOT_HEAD_TILT_LEFT_ANIM_START) * frame) + CO_PILOT_HEAD_TILT_LEFT_ANIM_START;

  00206	f3 0f 10 05 00
	00 00 00	 movss	 xmm0, DWORD PTR __real@3ba3d70a
  0020e	f3 0f 59 45 f8	 mulss	 xmm0, DWORD PTR _frame$[ebp]
  00213	f3 0f 58 05 00
	00 00 00	 addss	 xmm0, DWORD PTR __real@3c23d70a
  0021b	f3 0f 11 45 f4	 movss	 DWORD PTR _anim_frame$[ebp], xmm0

; 1967 : 
; 1968 : 		anim_frame = bound (anim_frame, CO_PILOT_HEAD_TILT_LEFT_ANIM_START, CO_PILOT_HEAD_TILT_LEFT_ANIM_END);

  00220	f3 0f 10 05 00
	00 00 00	 movss	 xmm0, DWORD PTR __real@3c23d70a
  00228	0f 2f 45 f4	 comiss	 xmm0, DWORD PTR _anim_frame$[ebp]
  0022c	76 0f		 jbe	 SHORT $LN22@update_co_
  0022e	f3 0f 10 05 00
	00 00 00	 movss	 xmm0, DWORD PTR __real@3c23d70a
  00236	f3 0f 11 45 b0	 movss	 DWORD PTR tv151[ebp], xmm0
  0023b	eb 31		 jmp	 SHORT $LN23@update_co_
$LN22@update_co_:
  0023d	f3 0f 10 45 f4	 movss	 xmm0, DWORD PTR _anim_frame$[ebp]
  00242	0f 2f 05 00 00
	00 00		 comiss	 xmm0, DWORD PTR __real@3c75c28f
  00249	76 0f		 jbe	 SHORT $LN20@update_co_
  0024b	f3 0f 10 05 00
	00 00 00	 movss	 xmm0, DWORD PTR __real@3c75c28f
  00253	f3 0f 11 45 ac	 movss	 DWORD PTR tv150[ebp], xmm0
  00258	eb 0a		 jmp	 SHORT $LN21@update_co_
$LN20@update_co_:
  0025a	f3 0f 10 45 f4	 movss	 xmm0, DWORD PTR _anim_frame$[ebp]
  0025f	f3 0f 11 45 ac	 movss	 DWORD PTR tv150[ebp], xmm0
$LN21@update_co_:
  00264	f3 0f 10 45 ac	 movss	 xmm0, DWORD PTR tv150[ebp]
  00269	f3 0f 11 45 b0	 movss	 DWORD PTR tv151[ebp], xmm0
$LN23@update_co_:
  0026e	f3 0f 10 45 b0	 movss	 xmm0, DWORD PTR tv151[ebp]
  00273	f3 0f 11 45 f4	 movss	 DWORD PTR _anim_frame$[ebp], xmm0
$LN6@update_co_:

; 1969 : 	}
; 1970 : 
; 1971 : 	animate_entity_simple_keyframed_sub_objects (virtual_cockpit_inst3d, OBJECT_3D_SUB_OBJECT_WSO_HEAD, anim_frame);

  00278	51		 push	 ecx
  00279	f3 0f 10 45 f4	 movss	 xmm0, DWORD PTR _anim_frame$[ebp]
  0027e	f3 0f 11 04 24	 movss	 DWORD PTR [esp], xmm0
  00283	68 ad 00 00 00	 push	 173			; 000000adH
  00288	a1 00 00 00 00	 mov	 eax, DWORD PTR ?virtual_cockpit_inst3d@@3PAUOBJECT_3D_INSTANCE@@A ; virtual_cockpit_inst3d
  0028d	50		 push	 eax
  0028e	e8 00 00 00 00	 call	 ?animate_entity_simple_keyframed_sub_objects@@YGXPAUOBJECT_3D_INSTANCE@@HM@Z ; animate_entity_simple_keyframed_sub_objects

; 1972 : 
; 1973 : 	previous_co_pilot_head_tilt_angle = co_pilot_head_tilt_angle;

  00293	f3 0f 10 45 fc	 movss	 xmm0, DWORD PTR _co_pilot_head_tilt_angle$[ebp]
  00298	f3 0f 11 05 00
	00 00 00	 movss	 DWORD PTR ?previous_co_pilot_head_tilt_angle@@3MA, xmm0

; 1974 : }

  002a0	5f		 pop	 edi
  002a1	5e		 pop	 esi
  002a2	5b		 pop	 ebx
  002a3	8b e5		 mov	 esp, ebp
  002a5	5d		 pop	 ebp
  002a6	c3		 ret	 0
?update_co_pilot_head_tilt_animation@@YGXXZ ENDP	; update_co_pilot_head_tilt_animation
_TEXT	ENDS
; Function compile flags: /Odtp /ZI
; File c:\users\nhv90\projects\eech\aphavoc\source\gunships\cockpits\hokum\hk_cpg.c
;	COMDAT ?update_co_pilot_animation@@YGXXZ
_TEXT	SEGMENT
tv137 = -76						; size = 4
tv76 = -76						; size = 4
tv214 = -72						; size = 4
tv151 = -72						; size = 4
tv130 = -72						; size = 4
tv69 = -72						; size = 4
_anim_data$ = -4					; size = 4
?update_co_pilot_animation@@YGXXZ PROC			; update_co_pilot_animation, COMDAT

; 1330 : {

  00000	55		 push	 ebp
  00001	8b ec		 mov	 ebp, esp
  00003	83 ec 4c	 sub	 esp, 76			; 0000004cH
  00006	53		 push	 ebx
  00007	56		 push	 esi
  00008	57		 push	 edi

; 1331 : 	co_pilot_anim_data
; 1332 : 		*anim_data;
; 1333 : 
; 1334 : 	////////////////////////////////////////
; 1335 : 	//
; 1336 : 	// eject
; 1337 : 	//
; 1338 : 	////////////////////////////////////////
; 1339 : 
; 1340 : 	if (get_local_entity_int_value (get_gunship_entity (), INT_TYPE_EJECTED))

  00009	83 3d 00 00 00
	00 00		 cmp	 DWORD PTR ?gunship_entity@@3PAUENTITY@@A, 0 ; gunship_entity
  00010	74 0c		 je	 SHORT $LN81@update_co_
  00012	a1 00 00 00 00	 mov	 eax, DWORD PTR ?gunship_entity@@3PAUENTITY@@A ; gunship_entity
  00017	8b 08		 mov	 ecx, DWORD PTR [eax]
  00019	89 4d b8	 mov	 DWORD PTR tv69[ebp], ecx
  0001c	eb 1d		 jmp	 SHORT $LN82@update_co_
$LN81@update_co_:
  0001e	68 3c 05 00 00	 push	 1340			; 0000053cH
  00023	68 00 00 00 00	 push	 OFFSET ??_C@_0EN@HGKDONEK@c?3?2users?2nhv90?2projects?2eech?2ap@
  00028	8b 15 00 00 00
	00		 mov	 edx, DWORD PTR ?null_entity_pointer_message@@3PBDB ; null_entity_pointer_message
  0002e	52		 push	 edx
  0002f	e8 00 00 00 00	 call	 ?process_assert@@YGXPBD0H@Z ; process_assert
  00034	c7 45 b8 00 00
	00 00		 mov	 DWORD PTR tv69[ebp], 0
$LN82@update_co_:
  0003b	b8 01 00 00 00	 mov	 eax, 1
  00040	85 c0		 test	 eax, eax
  00042	74 09		 je	 SHORT $LN83@update_co_
  00044	c7 45 b4 31 00
	00 00		 mov	 DWORD PTR tv76[ebp], 49	; 00000031H
  0004b	eb 1d		 jmp	 SHORT $LN84@update_co_
$LN83@update_co_:
  0004d	68 3c 05 00 00	 push	 1340			; 0000053cH
  00052	68 00 00 00 00	 push	 OFFSET ??_C@_0EN@HGKDONEK@c?3?2users?2nhv90?2projects?2eech?2ap@
  00057	8b 0d 00 00 00
	00		 mov	 ecx, DWORD PTR ?overload_invalid_int_type_message@@3PBDB ; overload_invalid_int_type_message
  0005d	51		 push	 ecx
  0005e	e8 00 00 00 00	 call	 ?process_assert@@YGXPBD0H@Z ; process_assert
  00063	c7 45 b4 00 00
	00 00		 mov	 DWORD PTR tv76[ebp], 0
$LN84@update_co_:
  0006a	6a 31		 push	 49			; 00000031H
  0006c	8b 15 00 00 00
	00		 mov	 edx, DWORD PTR ?gunship_entity@@3PAUENTITY@@A ; gunship_entity
  00072	52		 push	 edx
  00073	69 45 b8 5c 04
	00 00		 imul	 eax, DWORD PTR tv69[ebp], 1116
  0007a	8b 4d b4	 mov	 ecx, DWORD PTR tv76[ebp]
  0007d	8b 94 88 00 00
	00 00		 mov	 edx, DWORD PTR ?fn_get_local_entity_int_value@@3PAY0BBH@P6GHPAUENTITY@@W4INT_TYPES@@@ZA[eax+ecx*4]
  00084	ff d2		 call	 edx
  00086	85 c0		 test	 eax, eax
  00088	74 7d		 je	 SHORT $LN10@update_co_

; 1341 : 	{
; 1342 : 		if (get_crew_role () == CREW_ROLE_CO_PILOT)

  0008a	e8 00 00 00 00	 call	 ?get_crew_role@@YG?AW4CREW_ROLES@@XZ ; get_crew_role
  0008f	83 f8 01	 cmp	 eax, 1
  00092	75 73		 jne	 SHORT $LN10@update_co_

; 1343 : 		{
; 1344 : 			if ((co_pilot_anim_mode != CO_PILOT_ANIM_MODE_BOTH_HANDS_PULL_EJECT) && (eject_stage == 0))

  00094	83 3d 00 00 00
	00 08		 cmp	 DWORD PTR ?co_pilot_anim_mode@@3W4CO_PILOT_ANIM_MODES@@A, 8
  0009b	74 6a		 je	 SHORT $LN10@update_co_
  0009d	83 3d 00 00 00
	00 00		 cmp	 DWORD PTR ?eject_stage@@3HA, 0
  000a4	75 61		 jne	 SHORT $LN10@update_co_

; 1345 : 			{
; 1346 : 				co_pilot_anim_mode = CO_PILOT_ANIM_MODE_BOTH_HANDS_PULL_EJECT;

  000a6	c7 05 00 00 00
	00 08 00 00 00	 mov	 DWORD PTR ?co_pilot_anim_mode@@3W4CO_PILOT_ANIM_MODES@@A, 8

; 1347 : 
; 1348 : 				co_pilot_anim_frame = 0.0;

  000b0	0f 57 c0	 xorps	 xmm0, xmm0
  000b3	f3 0f 11 05 00
	00 00 00	 movss	 DWORD PTR ?co_pilot_anim_frame@@3MA, xmm0

; 1349 : 
; 1350 : 				co_pilot_anim_delay = get_reset_co_pilot_anim_delay ();

  000bb	e8 00 00 00 00	 call	 ?get_reset_co_pilot_anim_delay@@YGMXZ ; get_reset_co_pilot_anim_delay
  000c0	d9 1d 00 00 00
	00		 fstp	 DWORD PTR ?co_pilot_anim_delay@@3MA

; 1351 : 
; 1352 : 				co_pilot_head_anim_frame = NO_CO_PILOT_HEAD_ANIMATION;

  000c6	f3 0f 10 05 00
	00 00 00	 movss	 xmm0, DWORD PTR __real@bf800000
  000ce	f3 0f 11 05 00
	00 00 00	 movss	 DWORD PTR ?co_pilot_head_anim_frame@@3MA, xmm0

; 1353 : 
; 1354 : 				co_pilot_head_anim_pause = 0.0;

  000d6	0f 57 c0	 xorps	 xmm0, xmm0
  000d9	f3 0f 11 05 00
	00 00 00	 movss	 DWORD PTR ?co_pilot_head_anim_pause@@3MA, xmm0

; 1355 : 
; 1356 : 				if (night_vision_system_active)

  000e1	83 3d 00 00 00
	00 00		 cmp	 DWORD PTR ?night_vision_system_active@@3HA, 0 ; night_vision_system_active
  000e8	74 12		 je	 SHORT $LN9@update_co_

; 1357 : 				{
; 1358 : 					co_pilot_nvg_anim_frame = NVG_ON;

  000ea	f3 0f 10 05 00
	00 00 00	 movss	 xmm0, DWORD PTR __real@3f800000
  000f2	f3 0f 11 05 00
	00 00 00	 movss	 DWORD PTR ?co_pilot_nvg_anim_frame@@3MA, xmm0

; 1359 : 				}
; 1360 : 				else

  000fa	eb 0b		 jmp	 SHORT $LN10@update_co_
$LN9@update_co_:

; 1361 : 				{
; 1362 : 					co_pilot_nvg_anim_frame = NVG_OFF;

  000fc	0f 57 c0	 xorps	 xmm0, xmm0
  000ff	f3 0f 11 05 00
	00 00 00	 movss	 DWORD PTR ?co_pilot_nvg_anim_frame@@3MA, xmm0
$LN10@update_co_:

; 1363 : 				}
; 1364 : 			}
; 1365 : 		}
; 1366 : 	}
; 1367 : 
; 1368 : 	//
; 1369 : 	// cancel any animation while the player is the co-pilot (to stop the head moving around)
; 1370 : 	//
; 1371 : 
; 1372 : 	if (get_co_pilot_viewpoint_virtual_cockpit ())

  00107	e8 00 00 00 00	 call	 ?get_co_pilot_viewpoint_virtual_cockpit@@YGHXZ ; get_co_pilot_viewpoint_virtual_cockpit
  0010c	85 c0		 test	 eax, eax
  0010e	74 66		 je	 SHORT $LN11@update_co_

; 1373 : 	{
; 1374 : 		co_pilot_anim_mode = CO_PILOT_ANIM_MODE_DATUM_AT_REST;

  00110	c7 05 00 00 00
	00 00 00 00 00	 mov	 DWORD PTR ?co_pilot_anim_mode@@3W4CO_PILOT_ANIM_MODES@@A, 0

; 1375 : 
; 1376 : 		co_pilot_anim_frame = 0.0;

  0011a	0f 57 c0	 xorps	 xmm0, xmm0
  0011d	f3 0f 11 05 00
	00 00 00	 movss	 DWORD PTR ?co_pilot_anim_frame@@3MA, xmm0

; 1377 : 
; 1378 : 		co_pilot_anim_delay = get_reset_co_pilot_anim_delay ();

  00125	e8 00 00 00 00	 call	 ?get_reset_co_pilot_anim_delay@@YGMXZ ; get_reset_co_pilot_anim_delay
  0012a	d9 1d 00 00 00
	00		 fstp	 DWORD PTR ?co_pilot_anim_delay@@3MA

; 1379 : 
; 1380 : 		co_pilot_head_anim_frame = NO_CO_PILOT_HEAD_ANIMATION;

  00130	f3 0f 10 05 00
	00 00 00	 movss	 xmm0, DWORD PTR __real@bf800000
  00138	f3 0f 11 05 00
	00 00 00	 movss	 DWORD PTR ?co_pilot_head_anim_frame@@3MA, xmm0

; 1381 : 
; 1382 : 		co_pilot_head_anim_pause = 0.0;

  00140	0f 57 c0	 xorps	 xmm0, xmm0
  00143	f3 0f 11 05 00
	00 00 00	 movss	 DWORD PTR ?co_pilot_head_anim_pause@@3MA, xmm0

; 1383 : 
; 1384 : 		if (night_vision_system_active)

  0014b	83 3d 00 00 00
	00 00		 cmp	 DWORD PTR ?night_vision_system_active@@3HA, 0 ; night_vision_system_active
  00152	74 12		 je	 SHORT $LN13@update_co_

; 1385 : 		{
; 1386 : 			co_pilot_nvg_anim_frame = NVG_ON;

  00154	f3 0f 10 05 00
	00 00 00	 movss	 xmm0, DWORD PTR __real@3f800000
  0015c	f3 0f 11 05 00
	00 00 00	 movss	 DWORD PTR ?co_pilot_nvg_anim_frame@@3MA, xmm0

; 1387 : 		}
; 1388 : 		else

  00164	eb 0b		 jmp	 SHORT $LN14@update_co_
$LN13@update_co_:

; 1389 : 		{
; 1390 : 			co_pilot_nvg_anim_frame = NVG_OFF;

  00166	0f 57 c0	 xorps	 xmm0, xmm0
  00169	f3 0f 11 05 00
	00 00 00	 movss	 DWORD PTR ?co_pilot_nvg_anim_frame@@3MA, xmm0
$LN14@update_co_:

; 1391 : 		}
; 1392 : 	}
; 1393 : 	else

  00171	e9 1f 01 00 00	 jmp	 $LN21@update_co_
$LN11@update_co_:

; 1394 : 	{
; 1395 : 		//
; 1396 : 		// check for change NVG state
; 1397 : 		//
; 1398 : 
; 1399 : 		if (!get_local_entity_int_value (get_gunship_entity (), INT_TYPE_EJECTED))

  00176	83 3d 00 00 00
	00 00		 cmp	 DWORD PTR ?gunship_entity@@3PAUENTITY@@A, 0 ; gunship_entity
  0017d	74 0c		 je	 SHORT $LN85@update_co_
  0017f	a1 00 00 00 00	 mov	 eax, DWORD PTR ?gunship_entity@@3PAUENTITY@@A ; gunship_entity
  00184	8b 08		 mov	 ecx, DWORD PTR [eax]
  00186	89 4d b8	 mov	 DWORD PTR tv130[ebp], ecx
  00189	eb 1d		 jmp	 SHORT $LN86@update_co_
$LN85@update_co_:
  0018b	68 77 05 00 00	 push	 1399			; 00000577H
  00190	68 00 00 00 00	 push	 OFFSET ??_C@_0EN@HGKDONEK@c?3?2users?2nhv90?2projects?2eech?2ap@
  00195	8b 15 00 00 00
	00		 mov	 edx, DWORD PTR ?null_entity_pointer_message@@3PBDB ; null_entity_pointer_message
  0019b	52		 push	 edx
  0019c	e8 00 00 00 00	 call	 ?process_assert@@YGXPBD0H@Z ; process_assert
  001a1	c7 45 b8 00 00
	00 00		 mov	 DWORD PTR tv130[ebp], 0
$LN86@update_co_:
  001a8	b8 01 00 00 00	 mov	 eax, 1
  001ad	85 c0		 test	 eax, eax
  001af	74 09		 je	 SHORT $LN87@update_co_
  001b1	c7 45 b4 31 00
	00 00		 mov	 DWORD PTR tv137[ebp], 49 ; 00000031H
  001b8	eb 1d		 jmp	 SHORT $LN88@update_co_
$LN87@update_co_:
  001ba	68 77 05 00 00	 push	 1399			; 00000577H
  001bf	68 00 00 00 00	 push	 OFFSET ??_C@_0EN@HGKDONEK@c?3?2users?2nhv90?2projects?2eech?2ap@
  001c4	8b 0d 00 00 00
	00		 mov	 ecx, DWORD PTR ?overload_invalid_int_type_message@@3PBDB ; overload_invalid_int_type_message
  001ca	51		 push	 ecx
  001cb	e8 00 00 00 00	 call	 ?process_assert@@YGXPBD0H@Z ; process_assert
  001d0	c7 45 b4 00 00
	00 00		 mov	 DWORD PTR tv137[ebp], 0
$LN88@update_co_:
  001d7	6a 31		 push	 49			; 00000031H
  001d9	8b 15 00 00 00
	00		 mov	 edx, DWORD PTR ?gunship_entity@@3PAUENTITY@@A ; gunship_entity
  001df	52		 push	 edx
  001e0	69 45 b8 5c 04
	00 00		 imul	 eax, DWORD PTR tv130[ebp], 1116
  001e7	8b 4d b4	 mov	 ecx, DWORD PTR tv137[ebp]
  001ea	8b 94 88 00 00
	00 00		 mov	 edx, DWORD PTR ?fn_get_local_entity_int_value@@3PAY0BBH@P6GHPAUENTITY@@W4INT_TYPES@@@ZA[eax+ecx*4]
  001f1	ff d2		 call	 edx
  001f3	85 c0		 test	 eax, eax
  001f5	0f 85 9a 00 00
	00		 jne	 $LN21@update_co_

; 1400 : 		{
; 1401 : 			if (co_pilot_anim_mode != CO_PILOT_ANIM_MODE_LEFT_HAND_FROM_REST_TO_NVG)

  001fb	83 3d 00 00 00
	00 07		 cmp	 DWORD PTR ?co_pilot_anim_mode@@3W4CO_PILOT_ANIM_MODES@@A, 7
  00202	0f 84 8d 00 00
	00		 je	 $LN21@update_co_

; 1402 : 			{
; 1403 : 				if
; 1404 : 				(
; 1405 : 					(night_vision_system_active && (co_pilot_nvg_anim_frame == NVG_OFF)) ||

  00208	83 3d 00 00 00
	00 00		 cmp	 DWORD PTR ?night_vision_system_active@@3HA, 0 ; night_vision_system_active
  0020f	74 15		 je	 SHORT $LN19@update_co_
  00211	f3 0f 10 05 00
	00 00 00	 movss	 xmm0, DWORD PTR ?co_pilot_nvg_anim_frame@@3MA
  00219	0f 2e 05 00 00
	00 00		 ucomiss xmm0, DWORD PTR __real@00000000
  00220	9f		 lahf
  00221	f6 c4 44	 test	 ah, 68			; 00000044H
  00224	7b 1e		 jnp	 SHORT $LN18@update_co_
$LN19@update_co_:
  00226	83 3d 00 00 00
	00 00		 cmp	 DWORD PTR ?night_vision_system_active@@3HA, 0 ; night_vision_system_active
  0022d	75 66		 jne	 SHORT $LN21@update_co_
  0022f	f3 0f 10 05 00
	00 00 00	 movss	 xmm0, DWORD PTR ?co_pilot_nvg_anim_frame@@3MA
  00237	0f 2e 05 00 00
	00 00		 ucomiss xmm0, DWORD PTR __real@3f800000
  0023e	9f		 lahf
  0023f	f6 c4 44	 test	 ah, 68			; 00000044H
  00242	7a 51		 jp	 SHORT $LN21@update_co_
$LN18@update_co_:

; 1406 : 					(!night_vision_system_active && (co_pilot_nvg_anim_frame == NVG_ON))
; 1407 : 				)
; 1408 : 				{
; 1409 : 					if (co_pilot_anim_mode != CO_PILOT_ANIM_MODE_DATUM_AT_REST)

  00244	83 3d 00 00 00
	00 00		 cmp	 DWORD PTR ?co_pilot_anim_mode@@3W4CO_PILOT_ANIM_MODES@@A, 0
  0024b	74 0d		 je	 SHORT $LN20@update_co_

; 1410 : 					{
; 1411 : 						co_pilot_head_anim_pause = 0.0;

  0024d	0f 57 c0	 xorps	 xmm0, xmm0
  00250	f3 0f 11 05 00
	00 00 00	 movss	 DWORD PTR ?co_pilot_head_anim_pause@@3MA, xmm0

; 1412 : 					}
; 1413 : 					else

  00258	eb 3b		 jmp	 SHORT $LN21@update_co_
$LN20@update_co_:

; 1414 : 					{
; 1415 : 						co_pilot_anim_mode = CO_PILOT_ANIM_MODE_LEFT_HAND_FROM_REST_TO_NVG;

  0025a	c7 05 00 00 00
	00 07 00 00 00	 mov	 DWORD PTR ?co_pilot_anim_mode@@3W4CO_PILOT_ANIM_MODES@@A, 7

; 1416 : 
; 1417 : 						co_pilot_anim_frame = 0.0;

  00264	0f 57 c0	 xorps	 xmm0, xmm0
  00267	f3 0f 11 05 00
	00 00 00	 movss	 DWORD PTR ?co_pilot_anim_frame@@3MA, xmm0

; 1418 : 
; 1419 : 						co_pilot_anim_delay = get_reset_co_pilot_anim_delay ();

  0026f	e8 00 00 00 00	 call	 ?get_reset_co_pilot_anim_delay@@YGMXZ ; get_reset_co_pilot_anim_delay
  00274	d9 1d 00 00 00
	00		 fstp	 DWORD PTR ?co_pilot_anim_delay@@3MA

; 1420 : 
; 1421 : 						co_pilot_head_anim_frame = NO_CO_PILOT_HEAD_ANIMATION;

  0027a	f3 0f 10 05 00
	00 00 00	 movss	 xmm0, DWORD PTR __real@bf800000
  00282	f3 0f 11 05 00
	00 00 00	 movss	 DWORD PTR ?co_pilot_head_anim_frame@@3MA, xmm0

; 1422 : 
; 1423 : 						co_pilot_head_anim_pause = 0.0;

  0028a	0f 57 c0	 xorps	 xmm0, xmm0
  0028d	f3 0f 11 05 00
	00 00 00	 movss	 DWORD PTR ?co_pilot_head_anim_pause@@3MA, xmm0
$LN21@update_co_:

; 1424 : 					}
; 1425 : 				}
; 1426 : 			}
; 1427 : 		}
; 1428 : 	}
; 1429 : 
; 1430 : 	switch (co_pilot_anim_mode)

  00295	a1 00 00 00 00	 mov	 eax, DWORD PTR ?co_pilot_anim_mode@@3W4CO_PILOT_ANIM_MODES@@A
  0029a	89 45 b8	 mov	 DWORD PTR tv151[ebp], eax
  0029d	83 7d b8 16	 cmp	 DWORD PTR tv151[ebp], 22 ; 00000016H
  002a1	0f 87 6a 08 00
	00		 ja	 $LN2@update_co_
  002a7	8b 4d b8	 mov	 ecx, DWORD PTR tv151[ebp]
  002aa	ff 24 8d 00 00
	00 00		 jmp	 DWORD PTR $LN89@update_co_[ecx*4]
$LN22@update_co_:

; 1431 : 	{
; 1432 : 		////////////////////////////////////////
; 1433 : 		case CO_PILOT_ANIM_MODE_DATUM_AT_REST:
; 1434 : 		////////////////////////////////////////
; 1435 : 		{
; 1436 : 			anim_data = &co_pilot_anim_mode_datum_at_rest_anim_data;

  002b1	c7 45 fc 00 00
	00 00		 mov	 DWORD PTR _anim_data$[ebp], OFFSET ?co_pilot_anim_mode_datum_at_rest_anim_data@@3UCO_PILOT_ANIM_DATA@@A

; 1437 : 
; 1438 : 			co_pilot_anim_delay -= get_delta_time ();

  002b8	f3 0f 10 05 00
	00 00 00	 movss	 xmm0, DWORD PTR ?co_pilot_anim_delay@@3MA
  002c0	f3 0f 5c 05 00
	00 00 00	 subss	 xmm0, DWORD PTR ?system_delta_time@@3MA
  002c8	f3 0f 11 05 00
	00 00 00	 movss	 DWORD PTR ?co_pilot_anim_delay@@3MA, xmm0

; 1439 : 
; 1440 : 			if (co_pilot_anim_delay <= 0.0)

  002d0	f3 0f 5a 05 00
	00 00 00	 cvtss2sd xmm0, DWORD PTR ?co_pilot_anim_delay@@3MA
  002d8	0f 57 c9	 xorps	 xmm1, xmm1
  002db	66 0f 2f c8	 comisd	 xmm1, xmm0
  002df	72 3d		 jb	 SHORT $LN23@update_co_

; 1441 : 			{
; 1442 : 				co_pilot_anim_mode = get_random_co_pilot_datum_at_rest_anim_mode ();

  002e1	e8 00 00 00 00	 call	 ?get_random_co_pilot_datum_at_rest_anim_mode@@YG?AW4CO_PILOT_ANIM_MODES@@XZ ; get_random_co_pilot_datum_at_rest_anim_mode
  002e6	a3 00 00 00 00	 mov	 DWORD PTR ?co_pilot_anim_mode@@3W4CO_PILOT_ANIM_MODES@@A, eax

; 1443 : 
; 1444 : 				co_pilot_anim_frame = 0.0;

  002eb	0f 57 c0	 xorps	 xmm0, xmm0
  002ee	f3 0f 11 05 00
	00 00 00	 movss	 DWORD PTR ?co_pilot_anim_frame@@3MA, xmm0

; 1445 : 
; 1446 : 				co_pilot_anim_delay = get_reset_co_pilot_anim_delay ();

  002f6	e8 00 00 00 00	 call	 ?get_reset_co_pilot_anim_delay@@YGMXZ ; get_reset_co_pilot_anim_delay
  002fb	d9 1d 00 00 00
	00		 fstp	 DWORD PTR ?co_pilot_anim_delay@@3MA

; 1447 : 
; 1448 : 				co_pilot_head_anim_frame = NO_CO_PILOT_HEAD_ANIMATION;

  00301	f3 0f 10 05 00
	00 00 00	 movss	 xmm0, DWORD PTR __real@bf800000
  00309	f3 0f 11 05 00
	00 00 00	 movss	 DWORD PTR ?co_pilot_head_anim_frame@@3MA, xmm0

; 1449 : 
; 1450 : 				co_pilot_head_anim_pause = get_reset_co_pilot_head_anim_pause ();

  00311	e8 00 00 00 00	 call	 ?get_reset_co_pilot_head_anim_pause@@YGMXZ ; get_reset_co_pilot_head_anim_pause
  00316	d9 1d 00 00 00
	00		 fstp	 DWORD PTR ?co_pilot_head_anim_pause@@3MA

; 1451 : 			}
; 1452 : 			else

  0031c	eb 0b		 jmp	 SHORT $LN24@update_co_
$LN23@update_co_:

; 1453 : 			{
; 1454 : 				co_pilot_anim_frame = 0.0;

  0031e	0f 57 c0	 xorps	 xmm0, xmm0
  00321	f3 0f 11 05 00
	00 00 00	 movss	 DWORD PTR ?co_pilot_anim_frame@@3MA, xmm0
$LN24@update_co_:

; 1455 : 			}
; 1456 : 
; 1457 : 			break;

  00329	e9 e3 07 00 00	 jmp	 $LN2@update_co_
$LN25@update_co_:

; 1458 : 		}
; 1459 : 		////////////////////////////////////////
; 1460 : 		case CO_PILOT_ANIM_MODE_DATUM_AT_SCOPE:
; 1461 : 		////////////////////////////////////////
; 1462 : 		{
; 1463 : 			anim_data = &co_pilot_anim_mode_datum_at_scope_anim_data;

  0032e	c7 45 fc 00 00
	00 00		 mov	 DWORD PTR _anim_data$[ebp], OFFSET ?co_pilot_anim_mode_datum_at_scope_anim_data@@3UCO_PILOT_ANIM_DATA@@A

; 1464 : 
; 1465 : 			co_pilot_anim_delay -= get_delta_time ();

  00335	f3 0f 10 05 00
	00 00 00	 movss	 xmm0, DWORD PTR ?co_pilot_anim_delay@@3MA
  0033d	f3 0f 5c 05 00
	00 00 00	 subss	 xmm0, DWORD PTR ?system_delta_time@@3MA
  00345	f3 0f 11 05 00
	00 00 00	 movss	 DWORD PTR ?co_pilot_anim_delay@@3MA, xmm0

; 1466 : 
; 1467 : 			if (co_pilot_anim_delay <= 0.0)

  0034d	f3 0f 5a 05 00
	00 00 00	 cvtss2sd xmm0, DWORD PTR ?co_pilot_anim_delay@@3MA
  00355	0f 57 c9	 xorps	 xmm1, xmm1
  00358	66 0f 2f c8	 comisd	 xmm1, xmm0
  0035c	72 22		 jb	 SHORT $LN26@update_co_

; 1468 : 			{
; 1469 : 				co_pilot_anim_mode = get_random_co_pilot_datum_at_scope_anim_mode ();

  0035e	e8 00 00 00 00	 call	 ?get_random_co_pilot_datum_at_scope_anim_mode@@YG?AW4CO_PILOT_ANIM_MODES@@XZ ; get_random_co_pilot_datum_at_scope_anim_mode
  00363	a3 00 00 00 00	 mov	 DWORD PTR ?co_pilot_anim_mode@@3W4CO_PILOT_ANIM_MODES@@A, eax

; 1470 : 
; 1471 : 				co_pilot_anim_frame = 0.0;

  00368	0f 57 c0	 xorps	 xmm0, xmm0
  0036b	f3 0f 11 05 00
	00 00 00	 movss	 DWORD PTR ?co_pilot_anim_frame@@3MA, xmm0

; 1472 : 
; 1473 : 				co_pilot_anim_delay = get_reset_co_pilot_anim_delay ();

  00373	e8 00 00 00 00	 call	 ?get_reset_co_pilot_anim_delay@@YGMXZ ; get_reset_co_pilot_anim_delay
  00378	d9 1d 00 00 00
	00		 fstp	 DWORD PTR ?co_pilot_anim_delay@@3MA

; 1474 : 			}
; 1475 : 			else

  0037e	eb 0b		 jmp	 SHORT $LN27@update_co_
$LN26@update_co_:

; 1476 : 			{
; 1477 : 				co_pilot_anim_frame = 0.0;

  00380	0f 57 c0	 xorps	 xmm0, xmm0
  00383	f3 0f 11 05 00
	00 00 00	 movss	 DWORD PTR ?co_pilot_anim_frame@@3MA, xmm0
$LN27@update_co_:

; 1478 : 			}
; 1479 : 
; 1480 : 			break;

  0038b	e9 81 07 00 00	 jmp	 $LN2@update_co_
$LN28@update_co_:

; 1481 : 		}
; 1482 : 		////////////////////////////////////////
; 1483 : 		case CO_PILOT_ANIM_MODE_LEAN_FORWARD_TO_SCOPE:
; 1484 : 		////////////////////////////////////////
; 1485 : 		{
; 1486 : 			if (co_pilot_nvg_anim_frame > NVG_OFF)

  00390	f3 0f 10 05 00
	00 00 00	 movss	 xmm0, DWORD PTR ?co_pilot_nvg_anim_frame@@3MA
  00398	0f 2f 05 00 00
	00 00		 comiss	 xmm0, DWORD PTR __real@00000000
  0039f	76 58		 jbe	 SHORT $LN29@update_co_

; 1487 : 			{
; 1488 : 				anim_data = &co_pilot_anim_mode_left_hand_from_rest_to_nvg_anim_data;

  003a1	c7 45 fc 00 00
	00 00		 mov	 DWORD PTR _anim_data$[ebp], OFFSET ?co_pilot_anim_mode_left_hand_from_rest_to_nvg_anim_data@@3UCO_PILOT_ANIM_DATA@@A

; 1489 : 
; 1490 : 				co_pilot_nvg_anim_frame -= get_delta_time () * 0.5;

  003a8	f3 0f 5a 05 00
	00 00 00	 cvtss2sd xmm0, DWORD PTR ?system_delta_time@@3MA
  003b0	f2 0f 59 05 00
	00 00 00	 mulsd	 xmm0, QWORD PTR __real@3fe0000000000000
  003b8	f3 0f 5a 0d 00
	00 00 00	 cvtss2sd xmm1, DWORD PTR ?co_pilot_nvg_anim_frame@@3MA
  003c0	f2 0f 5c c8	 subsd	 xmm1, xmm0
  003c4	f2 0f 5a c1	 cvtsd2ss xmm0, xmm1
  003c8	f3 0f 11 05 00
	00 00 00	 movss	 DWORD PTR ?co_pilot_nvg_anim_frame@@3MA, xmm0

; 1491 : 
; 1492 : 				if (co_pilot_nvg_anim_frame < NVG_OFF)

  003d0	0f 57 c0	 xorps	 xmm0, xmm0
  003d3	0f 2f 05 00 00
	00 00		 comiss	 xmm0, DWORD PTR ?co_pilot_nvg_anim_frame@@3MA
  003da	76 0b		 jbe	 SHORT $LN31@update_co_

; 1493 : 				{
; 1494 : 					co_pilot_nvg_anim_frame = NVG_OFF;

  003dc	0f 57 c0	 xorps	 xmm0, xmm0
  003df	f3 0f 11 05 00
	00 00 00	 movss	 DWORD PTR ?co_pilot_nvg_anim_frame@@3MA, xmm0
$LN31@update_co_:

; 1495 : 				}
; 1496 : 
; 1497 : 				co_pilot_anim_frame = co_pilot_nvg_anim_frame;

  003e7	f3 0f 10 05 00
	00 00 00	 movss	 xmm0, DWORD PTR ?co_pilot_nvg_anim_frame@@3MA
  003ef	f3 0f 11 05 00
	00 00 00	 movss	 DWORD PTR ?co_pilot_anim_frame@@3MA, xmm0

; 1498 : 			}
; 1499 : 			else

  003f7	eb 4b		 jmp	 SHORT $LN32@update_co_
$LN29@update_co_:

; 1500 : 			{
; 1501 : 				anim_data = &co_pilot_anim_mode_lean_forward_to_scope_anim_data;

  003f9	c7 45 fc 00 00
	00 00		 mov	 DWORD PTR _anim_data$[ebp], OFFSET ?co_pilot_anim_mode_lean_forward_to_scope_anim_data@@3UCO_PILOT_ANIM_DATA@@A

; 1502 : 
; 1503 : 				co_pilot_anim_frame += get_delta_time ();

  00400	f3 0f 10 05 00
	00 00 00	 movss	 xmm0, DWORD PTR ?co_pilot_anim_frame@@3MA
  00408	f3 0f 58 05 00
	00 00 00	 addss	 xmm0, DWORD PTR ?system_delta_time@@3MA
  00410	f3 0f 11 05 00
	00 00 00	 movss	 DWORD PTR ?co_pilot_anim_frame@@3MA, xmm0

; 1504 : 
; 1505 : 				if (co_pilot_anim_frame >= 1.0)

  00418	f3 0f 5a 05 00
	00 00 00	 cvtss2sd xmm0, DWORD PTR ?co_pilot_anim_frame@@3MA
  00420	66 0f 2f 05 00
	00 00 00	 comisd	 xmm0, QWORD PTR __real@3ff0000000000000
  00428	72 1a		 jb	 SHORT $LN32@update_co_

; 1506 : 				{
; 1507 : 					co_pilot_anim_frame = 1.0;

  0042a	f3 0f 10 05 00
	00 00 00	 movss	 xmm0, DWORD PTR __real@3f800000
  00432	f3 0f 11 05 00
	00 00 00	 movss	 DWORD PTR ?co_pilot_anim_frame@@3MA, xmm0

; 1508 : 
; 1509 : 					co_pilot_anim_mode = CO_PILOT_ANIM_MODE_DATUM_AT_SCOPE;

  0043a	c7 05 00 00 00
	00 01 00 00 00	 mov	 DWORD PTR ?co_pilot_anim_mode@@3W4CO_PILOT_ANIM_MODES@@A, 1
$LN32@update_co_:

; 1510 : 				}
; 1511 : 			}
; 1512 : 
; 1513 : 			break;

  00444	e9 c8 06 00 00	 jmp	 $LN2@update_co_
$LN33@update_co_:

; 1514 : 		}
; 1515 : 		////////////////////////////////////////
; 1516 : 		case CO_PILOT_ANIM_MODE_LEAN_BACK_FROM_SCOPE:
; 1517 : 		////////////////////////////////////////
; 1518 : 		{
; 1519 : 			anim_data = &co_pilot_anim_mode_lean_back_from_scope_anim_data;

  00449	c7 45 fc 00 00
	00 00		 mov	 DWORD PTR _anim_data$[ebp], OFFSET ?co_pilot_anim_mode_lean_back_from_scope_anim_data@@3UCO_PILOT_ANIM_DATA@@A

; 1520 : 
; 1521 : 			co_pilot_anim_frame += get_delta_time ();

  00450	f3 0f 10 05 00
	00 00 00	 movss	 xmm0, DWORD PTR ?co_pilot_anim_frame@@3MA
  00458	f3 0f 58 05 00
	00 00 00	 addss	 xmm0, DWORD PTR ?system_delta_time@@3MA
  00460	f3 0f 11 05 00
	00 00 00	 movss	 DWORD PTR ?co_pilot_anim_frame@@3MA, xmm0

; 1522 : 
; 1523 : 			if (co_pilot_anim_frame >= 1.0)

  00468	f3 0f 5a 05 00
	00 00 00	 cvtss2sd xmm0, DWORD PTR ?co_pilot_anim_frame@@3MA
  00470	66 0f 2f 05 00
	00 00 00	 comisd	 xmm0, QWORD PTR __real@3ff0000000000000
  00478	72 1a		 jb	 SHORT $LN34@update_co_

; 1524 : 			{
; 1525 : 				co_pilot_anim_frame = 1.0;

  0047a	f3 0f 10 05 00
	00 00 00	 movss	 xmm0, DWORD PTR __real@3f800000
  00482	f3 0f 11 05 00
	00 00 00	 movss	 DWORD PTR ?co_pilot_anim_frame@@3MA, xmm0

; 1526 : 
; 1527 : 				co_pilot_anim_mode = CO_PILOT_ANIM_MODE_DATUM_AT_REST;

  0048a	c7 05 00 00 00
	00 00 00 00 00	 mov	 DWORD PTR ?co_pilot_anim_mode@@3W4CO_PILOT_ANIM_MODES@@A, 0
$LN34@update_co_:

; 1528 : 			}
; 1529 : 
; 1530 : 			break;

  00494	e9 78 06 00 00	 jmp	 $LN2@update_co_
$LN35@update_co_:

; 1531 : 		}
; 1532 : 		////////////////////////////////////////
; 1533 : 		case CO_PILOT_ANIM_MODE_LEFT_HAND_FROM_REST_TO_UPPER_SWITCH:
; 1534 : 		////////////////////////////////////////
; 1535 : 		{
; 1536 : 			anim_data = &co_pilot_anim_mode_left_hand_from_rest_to_upper_switch_anim_data;

  00499	c7 45 fc 00 00
	00 00		 mov	 DWORD PTR _anim_data$[ebp], OFFSET ?co_pilot_anim_mode_left_hand_from_rest_to_upper_switch_anim_data@@3UCO_PILOT_ANIM_DATA@@A

; 1537 : 
; 1538 : 			co_pilot_anim_frame += get_delta_time () * 0.5;

  004a0	f3 0f 5a 05 00
	00 00 00	 cvtss2sd xmm0, DWORD PTR ?system_delta_time@@3MA
  004a8	f2 0f 59 05 00
	00 00 00	 mulsd	 xmm0, QWORD PTR __real@3fe0000000000000
  004b0	f3 0f 5a 0d 00
	00 00 00	 cvtss2sd xmm1, DWORD PTR ?co_pilot_anim_frame@@3MA
  004b8	f2 0f 58 c8	 addsd	 xmm1, xmm0
  004bc	f2 0f 5a c1	 cvtsd2ss xmm0, xmm1
  004c0	f3 0f 11 05 00
	00 00 00	 movss	 DWORD PTR ?co_pilot_anim_frame@@3MA, xmm0

; 1539 : 
; 1540 : 			if (co_pilot_anim_frame >= 1.0)

  004c8	f3 0f 5a 05 00
	00 00 00	 cvtss2sd xmm0, DWORD PTR ?co_pilot_anim_frame@@3MA
  004d0	66 0f 2f 05 00
	00 00 00	 comisd	 xmm0, QWORD PTR __real@3ff0000000000000
  004d8	72 1a		 jb	 SHORT $LN36@update_co_

; 1541 : 			{
; 1542 : 				co_pilot_anim_frame = 1.0;

  004da	f3 0f 10 05 00
	00 00 00	 movss	 xmm0, DWORD PTR __real@3f800000
  004e2	f3 0f 11 05 00
	00 00 00	 movss	 DWORD PTR ?co_pilot_anim_frame@@3MA, xmm0

; 1543 : 
; 1544 : 				co_pilot_anim_mode = CO_PILOT_ANIM_MODE_DATUM_AT_REST;

  004ea	c7 05 00 00 00
	00 00 00 00 00	 mov	 DWORD PTR ?co_pilot_anim_mode@@3W4CO_PILOT_ANIM_MODES@@A, 0
$LN36@update_co_:

; 1545 : 			}
; 1546 : 
; 1547 : 			break;

  004f4	e9 18 06 00 00	 jmp	 $LN2@update_co_
$LN37@update_co_:

; 1548 : 		}
; 1549 : 		////////////////////////////////////////
; 1550 : 		case CO_PILOT_ANIM_MODE_LEFT_HAND_FROM_REST_TO_CALCULATOR:
; 1551 : 		////////////////////////////////////////
; 1552 : 		{
; 1553 : 			anim_data = &co_pilot_anim_mode_left_hand_from_rest_to_calculator_anim_data;

  004f9	c7 45 fc 00 00
	00 00		 mov	 DWORD PTR _anim_data$[ebp], OFFSET ?co_pilot_anim_mode_left_hand_from_rest_to_calculator_anim_data@@3UCO_PILOT_ANIM_DATA@@A

; 1554 : 
; 1555 : 			co_pilot_anim_frame += get_delta_time () * 0.5;

  00500	f3 0f 5a 05 00
	00 00 00	 cvtss2sd xmm0, DWORD PTR ?system_delta_time@@3MA
  00508	f2 0f 59 05 00
	00 00 00	 mulsd	 xmm0, QWORD PTR __real@3fe0000000000000
  00510	f3 0f 5a 0d 00
	00 00 00	 cvtss2sd xmm1, DWORD PTR ?co_pilot_anim_frame@@3MA
  00518	f2 0f 58 c8	 addsd	 xmm1, xmm0
  0051c	f2 0f 5a c1	 cvtsd2ss xmm0, xmm1
  00520	f3 0f 11 05 00
	00 00 00	 movss	 DWORD PTR ?co_pilot_anim_frame@@3MA, xmm0

; 1556 : 
; 1557 : 			if (co_pilot_anim_frame >= 1.0)

  00528	f3 0f 5a 05 00
	00 00 00	 cvtss2sd xmm0, DWORD PTR ?co_pilot_anim_frame@@3MA
  00530	66 0f 2f 05 00
	00 00 00	 comisd	 xmm0, QWORD PTR __real@3ff0000000000000
  00538	72 1a		 jb	 SHORT $LN38@update_co_

; 1558 : 			{
; 1559 : 				co_pilot_anim_frame = 1.0;

  0053a	f3 0f 10 05 00
	00 00 00	 movss	 xmm0, DWORD PTR __real@3f800000
  00542	f3 0f 11 05 00
	00 00 00	 movss	 DWORD PTR ?co_pilot_anim_frame@@3MA, xmm0

; 1560 : 
; 1561 : 				co_pilot_anim_mode = CO_PILOT_ANIM_MODE_DATUM_AT_REST;

  0054a	c7 05 00 00 00
	00 00 00 00 00	 mov	 DWORD PTR ?co_pilot_anim_mode@@3W4CO_PILOT_ANIM_MODES@@A, 0
$LN38@update_co_:

; 1562 : 			}
; 1563 : 
; 1564 : 			break;

  00554	e9 b8 05 00 00	 jmp	 $LN2@update_co_
$LN39@update_co_:

; 1565 : 		}
; 1566 : 		////////////////////////////////////////
; 1567 : 		case CO_PILOT_ANIM_MODE_LEFT_HAND_FROM_REST_TO_MASTER_ARM_SWITCH:
; 1568 : 		////////////////////////////////////////
; 1569 : 		{
; 1570 : 			anim_data = &co_pilot_anim_mode_left_hand_from_rest_to_master_arm_switch_anim_data;

  00559	c7 45 fc 00 00
	00 00		 mov	 DWORD PTR _anim_data$[ebp], OFFSET ?co_pilot_anim_mode_left_hand_from_rest_to_master_arm_switch_anim_data@@3UCO_PILOT_ANIM_DATA@@A

; 1571 : 
; 1572 : 			co_pilot_anim_frame += get_delta_time () * 0.5;

  00560	f3 0f 5a 05 00
	00 00 00	 cvtss2sd xmm0, DWORD PTR ?system_delta_time@@3MA
  00568	f2 0f 59 05 00
	00 00 00	 mulsd	 xmm0, QWORD PTR __real@3fe0000000000000
  00570	f3 0f 5a 0d 00
	00 00 00	 cvtss2sd xmm1, DWORD PTR ?co_pilot_anim_frame@@3MA
  00578	f2 0f 58 c8	 addsd	 xmm1, xmm0
  0057c	f2 0f 5a c1	 cvtsd2ss xmm0, xmm1
  00580	f3 0f 11 05 00
	00 00 00	 movss	 DWORD PTR ?co_pilot_anim_frame@@3MA, xmm0

; 1573 : 
; 1574 : 			if (co_pilot_anim_frame >= 1.0)

  00588	f3 0f 5a 05 00
	00 00 00	 cvtss2sd xmm0, DWORD PTR ?co_pilot_anim_frame@@3MA
  00590	66 0f 2f 05 00
	00 00 00	 comisd	 xmm0, QWORD PTR __real@3ff0000000000000
  00598	72 1a		 jb	 SHORT $LN40@update_co_

; 1575 : 			{
; 1576 : 				co_pilot_anim_frame = 1.0;

  0059a	f3 0f 10 05 00
	00 00 00	 movss	 xmm0, DWORD PTR __real@3f800000
  005a2	f3 0f 11 05 00
	00 00 00	 movss	 DWORD PTR ?co_pilot_anim_frame@@3MA, xmm0

; 1577 : 
; 1578 : 				co_pilot_anim_mode = CO_PILOT_ANIM_MODE_DATUM_AT_REST;

  005aa	c7 05 00 00 00
	00 00 00 00 00	 mov	 DWORD PTR ?co_pilot_anim_mode@@3W4CO_PILOT_ANIM_MODES@@A, 0
$LN40@update_co_:

; 1579 : 			}
; 1580 : 
; 1581 : 			break;

  005b4	e9 58 05 00 00	 jmp	 $LN2@update_co_
$LN41@update_co_:

; 1582 : 		}
; 1583 : 		////////////////////////////////////////
; 1584 : 		case CO_PILOT_ANIM_MODE_LEFT_HAND_FROM_REST_TO_NVG:
; 1585 : 		////////////////////////////////////////
; 1586 : 		{
; 1587 : 			anim_data = &co_pilot_anim_mode_left_hand_from_rest_to_nvg_anim_data;

  005b9	c7 45 fc 00 00
	00 00		 mov	 DWORD PTR _anim_data$[ebp], OFFSET ?co_pilot_anim_mode_left_hand_from_rest_to_nvg_anim_data@@3UCO_PILOT_ANIM_DATA@@A

; 1588 : 
; 1589 : 			if (night_vision_system_active)

  005c0	83 3d 00 00 00
	00 00		 cmp	 DWORD PTR ?night_vision_system_active@@3HA, 0 ; night_vision_system_active
  005c7	74 55		 je	 SHORT $LN42@update_co_

; 1590 : 			{
; 1591 : 				co_pilot_nvg_anim_frame += get_delta_time () * 0.5;

  005c9	f3 0f 5a 05 00
	00 00 00	 cvtss2sd xmm0, DWORD PTR ?system_delta_time@@3MA
  005d1	f2 0f 59 05 00
	00 00 00	 mulsd	 xmm0, QWORD PTR __real@3fe0000000000000
  005d9	f3 0f 5a 0d 00
	00 00 00	 cvtss2sd xmm1, DWORD PTR ?co_pilot_nvg_anim_frame@@3MA
  005e1	f2 0f 58 c8	 addsd	 xmm1, xmm0
  005e5	f2 0f 5a c1	 cvtsd2ss xmm0, xmm1
  005e9	f3 0f 11 05 00
	00 00 00	 movss	 DWORD PTR ?co_pilot_nvg_anim_frame@@3MA, xmm0

; 1592 : 
; 1593 : 				if (co_pilot_nvg_anim_frame >= NVG_ON)

  005f1	f3 0f 10 05 00
	00 00 00	 movss	 xmm0, DWORD PTR ?co_pilot_nvg_anim_frame@@3MA
  005f9	0f 2f 05 00 00
	00 00		 comiss	 xmm0, DWORD PTR __real@3f800000
  00600	72 1a		 jb	 SHORT $LN44@update_co_

; 1594 : 				{
; 1595 : 					co_pilot_nvg_anim_frame = NVG_ON;

  00602	f3 0f 10 05 00
	00 00 00	 movss	 xmm0, DWORD PTR __real@3f800000
  0060a	f3 0f 11 05 00
	00 00 00	 movss	 DWORD PTR ?co_pilot_nvg_anim_frame@@3MA, xmm0

; 1596 : 
; 1597 : 					co_pilot_anim_mode = CO_PILOT_ANIM_MODE_DATUM_AT_REST;

  00612	c7 05 00 00 00
	00 00 00 00 00	 mov	 DWORD PTR ?co_pilot_anim_mode@@3W4CO_PILOT_ANIM_MODES@@A, 0
$LN44@update_co_:

; 1598 : 				}
; 1599 : 			}
; 1600 : 			else

  0061c	eb 49		 jmp	 SHORT $LN45@update_co_
$LN42@update_co_:

; 1601 : 			{
; 1602 : 				co_pilot_nvg_anim_frame -= get_delta_time () * 0.5;

  0061e	f3 0f 5a 05 00
	00 00 00	 cvtss2sd xmm0, DWORD PTR ?system_delta_time@@3MA
  00626	f2 0f 59 05 00
	00 00 00	 mulsd	 xmm0, QWORD PTR __real@3fe0000000000000
  0062e	f3 0f 5a 0d 00
	00 00 00	 cvtss2sd xmm1, DWORD PTR ?co_pilot_nvg_anim_frame@@3MA
  00636	f2 0f 5c c8	 subsd	 xmm1, xmm0
  0063a	f2 0f 5a c1	 cvtsd2ss xmm0, xmm1
  0063e	f3 0f 11 05 00
	00 00 00	 movss	 DWORD PTR ?co_pilot_nvg_anim_frame@@3MA, xmm0

; 1603 : 
; 1604 : 				if (co_pilot_nvg_anim_frame <= NVG_OFF)

  00646	0f 57 c0	 xorps	 xmm0, xmm0
  00649	0f 2f 05 00 00
	00 00		 comiss	 xmm0, DWORD PTR ?co_pilot_nvg_anim_frame@@3MA
  00650	72 15		 jb	 SHORT $LN45@update_co_

; 1605 : 				{
; 1606 : 					co_pilot_nvg_anim_frame = NVG_OFF;

  00652	0f 57 c0	 xorps	 xmm0, xmm0
  00655	f3 0f 11 05 00
	00 00 00	 movss	 DWORD PTR ?co_pilot_nvg_anim_frame@@3MA, xmm0

; 1607 : 
; 1608 : 					co_pilot_anim_mode = CO_PILOT_ANIM_MODE_DATUM_AT_REST;

  0065d	c7 05 00 00 00
	00 00 00 00 00	 mov	 DWORD PTR ?co_pilot_anim_mode@@3W4CO_PILOT_ANIM_MODES@@A, 0
$LN45@update_co_:

; 1609 : 				}
; 1610 : 			}
; 1611 : 
; 1612 : 			co_pilot_anim_frame = co_pilot_nvg_anim_frame;

  00667	f3 0f 10 05 00
	00 00 00	 movss	 xmm0, DWORD PTR ?co_pilot_nvg_anim_frame@@3MA
  0066f	f3 0f 11 05 00
	00 00 00	 movss	 DWORD PTR ?co_pilot_anim_frame@@3MA, xmm0

; 1613 : 
; 1614 : 			break;

  00677	e9 95 04 00 00	 jmp	 $LN2@update_co_
$LN46@update_co_:

; 1615 : 		}
; 1616 : 		////////////////////////////////////////
; 1617 : 		case CO_PILOT_ANIM_MODE_BOTH_HANDS_PULL_EJECT:
; 1618 : 		////////////////////////////////////////
; 1619 : 		{
; 1620 : 			anim_data = &co_pilot_anim_mode_both_hands_pull_eject_anim_data;

  0067c	c7 45 fc 00 00
	00 00		 mov	 DWORD PTR _anim_data$[ebp], OFFSET ?co_pilot_anim_mode_both_hands_pull_eject_anim_data@@3UCO_PILOT_ANIM_DATA@@A

; 1621 : 
; 1622 : 			co_pilot_anim_frame += get_delta_time ();

  00683	f3 0f 10 05 00
	00 00 00	 movss	 xmm0, DWORD PTR ?co_pilot_anim_frame@@3MA
  0068b	f3 0f 58 05 00
	00 00 00	 addss	 xmm0, DWORD PTR ?system_delta_time@@3MA
  00693	f3 0f 11 05 00
	00 00 00	 movss	 DWORD PTR ?co_pilot_anim_frame@@3MA, xmm0

; 1623 : 
; 1624 : 			if (co_pilot_anim_frame >= 1.0)

  0069b	f3 0f 5a 05 00
	00 00 00	 cvtss2sd xmm0, DWORD PTR ?co_pilot_anim_frame@@3MA
  006a3	66 0f 2f 05 00
	00 00 00	 comisd	 xmm0, QWORD PTR __real@3ff0000000000000
  006ab	72 10		 jb	 SHORT $LN47@update_co_

; 1625 : 			{
; 1626 : 				//
; 1627 : 				// (hold co-pilot anim at last frame until camera is outside)
; 1628 : 				//
; 1629 : 
; 1630 : 				co_pilot_anim_frame = 1.0;

  006ad	f3 0f 10 05 00
	00 00 00	 movss	 xmm0, DWORD PTR __real@3f800000
  006b5	f3 0f 11 05 00
	00 00 00	 movss	 DWORD PTR ?co_pilot_anim_frame@@3MA, xmm0
$LN47@update_co_:

; 1631 : 			}
; 1632 : 
; 1633 : 			//
; 1634 : 			// eject sequence
; 1635 : 			//
; 1636 : 
; 1637 : 			eject_timer += get_delta_time ();

  006bd	f3 0f 10 05 00
	00 00 00	 movss	 xmm0, DWORD PTR ?eject_timer@@3MA
  006c5	f3 0f 58 05 00
	00 00 00	 addss	 xmm0, DWORD PTR ?system_delta_time@@3MA
  006cd	f3 0f 11 05 00
	00 00 00	 movss	 DWORD PTR ?eject_timer@@3MA, xmm0

; 1638 : 
; 1639 : 			switch (eject_stage)

  006d5	a1 00 00 00 00	 mov	 eax, DWORD PTR ?eject_stage@@3HA
  006da	89 45 b8	 mov	 DWORD PTR tv214[ebp], eax
  006dd	83 7d b8 00	 cmp	 DWORD PTR tv214[ebp], 0
  006e1	74 11		 je	 SHORT $LN48@update_co_
  006e3	83 7d b8 01	 cmp	 DWORD PTR tv214[ebp], 1
  006e7	74 53		 je	 SHORT $LN50@update_co_
  006e9	83 7d b8 02	 cmp	 DWORD PTR tv214[ebp], 2
  006ed	74 7f		 je	 SHORT $LN52@update_co_
  006ef	e9 bc 00 00 00	 jmp	 $LN54@update_co_
$LN48@update_co_:

; 1640 : 			{
; 1641 : 				////////////////////////////////////////
; 1642 : 				case 0:
; 1643 : 				////////////////////////////////////////
; 1644 : 				{
; 1645 : 					//
; 1646 : 					// fire blades and doors after handle pulled
; 1647 : 					//
; 1648 : 
; 1649 : 					if (eject_timer > 1.0)

  006f4	f3 0f 5a 05 00
	00 00 00	 cvtss2sd xmm0, DWORD PTR ?eject_timer@@3MA
  006fc	66 0f 2f 05 00
	00 00 00	 comisd	 xmm0, QWORD PTR __real@3ff0000000000000
  00704	76 31		 jbe	 SHORT $LN49@update_co_

; 1650 : 					{
; 1651 : 						launch_client_server_weapon (get_gunship_entity (), ENTITY_SUB_TYPE_WEAPON_HOKUM_BLADE);

  00706	6a 47		 push	 71			; 00000047H
  00708	a1 00 00 00 00	 mov	 eax, DWORD PTR ?gunship_entity@@3PAUENTITY@@A ; gunship_entity
  0070d	50		 push	 eax
  0070e	e8 00 00 00 00	 call	 ?launch_client_server_weapon@@YGXPAUENTITY@@H@Z ; launch_client_server_weapon

; 1652 : 						launch_client_server_weapon (get_gunship_entity (), ENTITY_SUB_TYPE_WEAPON_HOKUM_LH_DOOR);

  00713	6a 4a		 push	 74			; 0000004aH
  00715	a1 00 00 00 00	 mov	 eax, DWORD PTR ?gunship_entity@@3PAUENTITY@@A ; gunship_entity
  0071a	50		 push	 eax
  0071b	e8 00 00 00 00	 call	 ?launch_client_server_weapon@@YGXPAUENTITY@@H@Z ; launch_client_server_weapon

; 1653 : 						launch_client_server_weapon (get_gunship_entity (), ENTITY_SUB_TYPE_WEAPON_HOKUM_RH_DOOR);

  00720	6a 4b		 push	 75			; 0000004bH
  00722	a1 00 00 00 00	 mov	 eax, DWORD PTR ?gunship_entity@@3PAUENTITY@@A ; gunship_entity
  00727	50		 push	 eax
  00728	e8 00 00 00 00	 call	 ?launch_client_server_weapon@@YGXPAUENTITY@@H@Z ; launch_client_server_weapon

; 1654 : 
; 1655 : 						eject_stage = 1;

  0072d	c7 05 00 00 00
	00 01 00 00 00	 mov	 DWORD PTR ?eject_stage@@3HA, 1
$LN49@update_co_:

; 1656 : 					}
; 1657 : 
; 1658 : 					break;

  00737	e9 87 00 00 00	 jmp	 $LN4@update_co_
$LN50@update_co_:

; 1659 : 				}
; 1660 : 				////////////////////////////////////////
; 1661 : 				case 1:
; 1662 : 				////////////////////////////////////////
; 1663 : 				{
; 1664 : 					//
; 1665 : 					// delay then switch to external view
; 1666 : 					//
; 1667 : 
; 1668 : 					if (eject_timer > 1.5)

  0073c	f3 0f 5a 05 00
	00 00 00	 cvtss2sd xmm0, DWORD PTR ?eject_timer@@3MA
  00744	66 0f 2f 05 00
	00 00 00	 comisd	 xmm0, QWORD PTR __real@3ff8000000000000
  0074c	76 1e		 jbe	 SHORT $LN51@update_co_

; 1669 : 					{
; 1670 : 						notify_local_entity (ENTITY_MESSAGE_SET_CAMERA_ACTION, get_camera_entity (), NULL, CAMERA_ACTION_EJECT);

  0074e	6a 07		 push	 7
  00750	6a 00		 push	 0
  00752	a1 00 00 00 00	 mov	 eax, DWORD PTR ?camera_entity@@3PAUENTITY@@A ; camera_entity
  00757	50		 push	 eax
  00758	6a 2f		 push	 47			; 0000002fH
  0075a	e8 00 00 00 00	 call	 ?notify_local_entity@@YAHW4ENTITY_MESSAGES@@PAUENTITY@@1ZZ ; notify_local_entity
  0075f	83 c4 10	 add	 esp, 16			; 00000010H

; 1671 : 
; 1672 : 						eject_stage = 2;

  00762	c7 05 00 00 00
	00 02 00 00 00	 mov	 DWORD PTR ?eject_stage@@3HA, 2
$LN51@update_co_:

; 1673 : 					}
; 1674 : 
; 1675 : 					break;

  0076c	eb 55		 jmp	 SHORT $LN4@update_co_
$LN52@update_co_:

; 1676 : 				}
; 1677 : 				////////////////////////////////////////
; 1678 : 				case 2:
; 1679 : 				////////////////////////////////////////
; 1680 : 				{
; 1681 : 					//
; 1682 : 					// delay then eject crew
; 1683 : 					//
; 1684 : 
; 1685 : 					if (eject_timer > 2.0)

  0076e	f3 0f 5a 05 00
	00 00 00	 cvtss2sd xmm0, DWORD PTR ?eject_timer@@3MA
  00776	66 0f 2f 05 00
	00 00 00	 comisd	 xmm0, QWORD PTR __real@4000000000000000
  0077e	76 2e		 jbe	 SHORT $LN53@update_co_

; 1686 : 					{
; 1687 : 						launch_client_server_weapon (get_gunship_entity (), ENTITY_SUB_TYPE_WEAPON_HOKUM_PILOT);

  00780	6a 48		 push	 72			; 00000048H
  00782	a1 00 00 00 00	 mov	 eax, DWORD PTR ?gunship_entity@@3PAUENTITY@@A ; gunship_entity
  00787	50		 push	 eax
  00788	e8 00 00 00 00	 call	 ?launch_client_server_weapon@@YGXPAUENTITY@@H@Z ; launch_client_server_weapon

; 1688 : 						launch_client_server_weapon (get_gunship_entity (), ENTITY_SUB_TYPE_WEAPON_HOKUM_CO_PILOT);

  0078d	6a 49		 push	 73			; 00000049H
  0078f	a1 00 00 00 00	 mov	 eax, DWORD PTR ?gunship_entity@@3PAUENTITY@@A ; gunship_entity
  00794	50		 push	 eax
  00795	e8 00 00 00 00	 call	 ?launch_client_server_weapon@@YGXPAUENTITY@@H@Z ; launch_client_server_weapon

; 1689 : 
; 1690 : 						co_pilot_anim_mode = CO_PILOT_ANIM_MODE_DATUM_AT_REST;

  0079a	c7 05 00 00 00
	00 00 00 00 00	 mov	 DWORD PTR ?co_pilot_anim_mode@@3W4CO_PILOT_ANIM_MODES@@A, 0

; 1691 : 
; 1692 : 						eject_stage = 3;

  007a4	c7 05 00 00 00
	00 03 00 00 00	 mov	 DWORD PTR ?eject_stage@@3HA, 3
$LN53@update_co_:

; 1693 : 					}
; 1694 : 
; 1695 : 					break;

  007ae	eb 13		 jmp	 SHORT $LN4@update_co_
$LN54@update_co_:

; 1696 : 				}
; 1697 : 				////////////////////////////////////////
; 1698 : 				default:
; 1699 : 				////////////////////////////////////////
; 1700 : 				{
; 1701 : 					debug_fatal ("Invalid eject stage = %d", eject_stage);

  007b0	a1 00 00 00 00	 mov	 eax, DWORD PTR ?eject_stage@@3HA
  007b5	50		 push	 eax
  007b6	68 00 00 00 00	 push	 OFFSET ??_C@_0BJ@MENDMCHB@Invalid?5eject?5stage?5?$DN?5?$CFd@
  007bb	e8 00 00 00 00	 call	 ?debug_fatal@@YAXPBDZZ	; debug_fatal
  007c0	83 c4 08	 add	 esp, 8
$LN4@update_co_:

; 1702 : 
; 1703 : 					break;
; 1704 : 				}
; 1705 : 			}
; 1706 : 
; 1707 : 			break;

  007c3	e9 49 03 00 00	 jmp	 $LN2@update_co_
$LN55@update_co_:

; 1708 : 		}
; 1709 : 		////////////////////////////////////////
; 1710 : 		case CO_PILOT_ANIM_MODE_LEFT_HAND_FROM_SCOPE_TO_MASTER_ARM_SWITCH:
; 1711 : 		////////////////////////////////////////
; 1712 : 		{
; 1713 : 			anim_data = &co_pilot_anim_mode_left_hand_from_scope_to_master_arm_switch_anim_data;

  007c8	c7 45 fc 00 00
	00 00		 mov	 DWORD PTR _anim_data$[ebp], OFFSET ?co_pilot_anim_mode_left_hand_from_scope_to_master_arm_switch_anim_data@@3UCO_PILOT_ANIM_DATA@@A

; 1714 : 
; 1715 : 			co_pilot_anim_frame += get_delta_time () * 0.5;

  007cf	f3 0f 5a 05 00
	00 00 00	 cvtss2sd xmm0, DWORD PTR ?system_delta_time@@3MA
  007d7	f2 0f 59 05 00
	00 00 00	 mulsd	 xmm0, QWORD PTR __real@3fe0000000000000
  007df	f3 0f 5a 0d 00
	00 00 00	 cvtss2sd xmm1, DWORD PTR ?co_pilot_anim_frame@@3MA
  007e7	f2 0f 58 c8	 addsd	 xmm1, xmm0
  007eb	f2 0f 5a c1	 cvtsd2ss xmm0, xmm1
  007ef	f3 0f 11 05 00
	00 00 00	 movss	 DWORD PTR ?co_pilot_anim_frame@@3MA, xmm0

; 1716 : 
; 1717 : 			if (co_pilot_anim_frame >= 1.0)

  007f7	f3 0f 5a 05 00
	00 00 00	 cvtss2sd xmm0, DWORD PTR ?co_pilot_anim_frame@@3MA
  007ff	66 0f 2f 05 00
	00 00 00	 comisd	 xmm0, QWORD PTR __real@3ff0000000000000
  00807	72 1a		 jb	 SHORT $LN56@update_co_

; 1718 : 			{
; 1719 : 				co_pilot_anim_frame = 1.0;

  00809	f3 0f 10 05 00
	00 00 00	 movss	 xmm0, DWORD PTR __real@3f800000
  00811	f3 0f 11 05 00
	00 00 00	 movss	 DWORD PTR ?co_pilot_anim_frame@@3MA, xmm0

; 1720 : 
; 1721 : 				co_pilot_anim_mode = CO_PILOT_ANIM_MODE_DATUM_AT_SCOPE;

  00819	c7 05 00 00 00
	00 01 00 00 00	 mov	 DWORD PTR ?co_pilot_anim_mode@@3W4CO_PILOT_ANIM_MODES@@A, 1
$LN56@update_co_:

; 1722 : 			}
; 1723 : 
; 1724 : 			break;

  00823	e9 e9 02 00 00	 jmp	 $LN2@update_co_
$LN57@update_co_:

; 1725 : 		}
; 1726 : 		////////////////////////////////////////
; 1727 : 		case CO_PILOT_ANIM_MODE_LEFT_HAND_FROM_SCOPE_TO_THUMBS_UP:
; 1728 : 		////////////////////////////////////////
; 1729 : 		{
; 1730 : 			anim_data = &co_pilot_anim_mode_left_hand_from_scope_to_thumbs_up_anim_data;

  00828	c7 45 fc 00 00
	00 00		 mov	 DWORD PTR _anim_data$[ebp], OFFSET ?co_pilot_anim_mode_left_hand_from_scope_to_thumbs_up_anim_data@@3UCO_PILOT_ANIM_DATA@@A

; 1731 : 
; 1732 : 			co_pilot_anim_frame += get_delta_time () * 0.5;

  0082f	f3 0f 5a 05 00
	00 00 00	 cvtss2sd xmm0, DWORD PTR ?system_delta_time@@3MA
  00837	f2 0f 59 05 00
	00 00 00	 mulsd	 xmm0, QWORD PTR __real@3fe0000000000000
  0083f	f3 0f 5a 0d 00
	00 00 00	 cvtss2sd xmm1, DWORD PTR ?co_pilot_anim_frame@@3MA
  00847	f2 0f 58 c8	 addsd	 xmm1, xmm0
  0084b	f2 0f 5a c1	 cvtsd2ss xmm0, xmm1
  0084f	f3 0f 11 05 00
	00 00 00	 movss	 DWORD PTR ?co_pilot_anim_frame@@3MA, xmm0

; 1733 : 
; 1734 : 			if (co_pilot_anim_frame >= 1.0)

  00857	f3 0f 5a 05 00
	00 00 00	 cvtss2sd xmm0, DWORD PTR ?co_pilot_anim_frame@@3MA
  0085f	66 0f 2f 05 00
	00 00 00	 comisd	 xmm0, QWORD PTR __real@3ff0000000000000
  00867	72 1a		 jb	 SHORT $LN58@update_co_

; 1735 : 			{
; 1736 : 				co_pilot_anim_frame = 1.0;

  00869	f3 0f 10 05 00
	00 00 00	 movss	 xmm0, DWORD PTR __real@3f800000
  00871	f3 0f 11 05 00
	00 00 00	 movss	 DWORD PTR ?co_pilot_anim_frame@@3MA, xmm0

; 1737 : 
; 1738 : 				co_pilot_anim_mode = CO_PILOT_ANIM_MODE_DATUM_AT_SCOPE;

  00879	c7 05 00 00 00
	00 01 00 00 00	 mov	 DWORD PTR ?co_pilot_anim_mode@@3W4CO_PILOT_ANIM_MODES@@A, 1
$LN58@update_co_:

; 1739 : 			}
; 1740 : 
; 1741 : 			break;

  00883	e9 89 02 00 00	 jmp	 $LN2@update_co_
$LN59@update_co_:

; 1742 : 		}
; 1743 : 		////////////////////////////////////////
; 1744 : 		case CO_PILOT_ANIM_MODE_RIGHT_HAND_FROM_SCOPE_TO_CYCLIC:
; 1745 : 		////////////////////////////////////////
; 1746 : 		{
; 1747 : 			anim_data = &co_pilot_anim_mode_right_hand_from_scope_to_cyclic_anim_data;

  00888	c7 45 fc 00 00
	00 00		 mov	 DWORD PTR _anim_data$[ebp], OFFSET ?co_pilot_anim_mode_right_hand_from_scope_to_cyclic_anim_data@@3UCO_PILOT_ANIM_DATA@@A

; 1748 : 
; 1749 : 			co_pilot_anim_frame += get_delta_time ();

  0088f	f3 0f 10 05 00
	00 00 00	 movss	 xmm0, DWORD PTR ?co_pilot_anim_frame@@3MA
  00897	f3 0f 58 05 00
	00 00 00	 addss	 xmm0, DWORD PTR ?system_delta_time@@3MA
  0089f	f3 0f 11 05 00
	00 00 00	 movss	 DWORD PTR ?co_pilot_anim_frame@@3MA, xmm0

; 1750 : 
; 1751 : 			if (co_pilot_anim_frame >= 1.0)

  008a7	f3 0f 5a 05 00
	00 00 00	 cvtss2sd xmm0, DWORD PTR ?co_pilot_anim_frame@@3MA
  008af	66 0f 2f 05 00
	00 00 00	 comisd	 xmm0, QWORD PTR __real@3ff0000000000000
  008b7	0f 82 8a 00 00
	00		 jb	 $LN63@update_co_

; 1752 : 			{
; 1753 : 				co_pilot_anim_frame -= 1.0;

  008bd	f3 0f 5a 05 00
	00 00 00	 cvtss2sd xmm0, DWORD PTR ?co_pilot_anim_frame@@3MA
  008c5	f2 0f 5c 05 00
	00 00 00	 subsd	 xmm0, QWORD PTR __real@3ff0000000000000
  008cd	f2 0f 5a c0	 cvtsd2ss xmm0, xmm0
  008d1	f3 0f 11 05 00
	00 00 00	 movss	 DWORD PTR ?co_pilot_anim_frame@@3MA, xmm0

; 1754 : 
; 1755 : 				if (co_pilot_anim_frame > 1.0)

  008d9	f3 0f 5a 05 00
	00 00 00	 cvtss2sd xmm0, DWORD PTR ?co_pilot_anim_frame@@3MA
  008e1	66 0f 2f 05 00
	00 00 00	 comisd	 xmm0, QWORD PTR __real@3ff0000000000000
  008e9	76 10		 jbe	 SHORT $LN61@update_co_

; 1756 : 				{
; 1757 : 					co_pilot_anim_frame = 1.0;

  008eb	f3 0f 10 05 00
	00 00 00	 movss	 xmm0, DWORD PTR __real@3f800000
  008f3	f3 0f 11 05 00
	00 00 00	 movss	 DWORD PTR ?co_pilot_anim_frame@@3MA, xmm0
$LN61@update_co_:

; 1758 : 				}
; 1759 : 
; 1760 : 				if (rand16 () & 1)

  008fb	69 05 00 00 00
	00 6d 4e c6 41	 imul	 eax, DWORD PTR ?random_number_seed@@3HA, 1103515245 ; random_number_seed
  00905	05 39 30 00 00	 add	 eax, 12345		; 00003039H
  0090a	a3 00 00 00 00	 mov	 DWORD PTR ?random_number_seed@@3HA, eax ; random_number_seed
  0090f	8b 0d 00 00 00
	00		 mov	 ecx, DWORD PTR ?random_number_seed@@3HA ; random_number_seed
  00915	c1 f9 10	 sar	 ecx, 16			; 00000010H
  00918	81 e1 ff 7f 00
	00		 and	 ecx, 32767		; 00007fffH
  0091e	83 e1 01	 and	 ecx, 1
  00921	74 13		 je	 SHORT $LN62@update_co_

; 1761 : 				{
; 1762 : 					anim_data = &co_pilot_anim_mode_right_hand_thumb_button1_anim_data;

  00923	c7 45 fc 00 00
	00 00		 mov	 DWORD PTR _anim_data$[ebp], OFFSET ?co_pilot_anim_mode_right_hand_thumb_button1_anim_data@@3UCO_PILOT_ANIM_DATA@@A

; 1763 : 
; 1764 : 					co_pilot_anim_mode = CO_PILOT_ANIM_MODE_RIGHT_HAND_THUMB_BUTTON1;

  0092a	c7 05 00 00 00
	00 0c 00 00 00	 mov	 DWORD PTR ?co_pilot_anim_mode@@3W4CO_PILOT_ANIM_MODES@@A, 12 ; 0000000cH

; 1765 : 				}
; 1766 : 				else

  00934	eb 11		 jmp	 SHORT $LN63@update_co_
$LN62@update_co_:

; 1767 : 				{
; 1768 : 					anim_data = &co_pilot_anim_mode_right_hand_thumb_button2_anim_data;

  00936	c7 45 fc 00 00
	00 00		 mov	 DWORD PTR _anim_data$[ebp], OFFSET ?co_pilot_anim_mode_right_hand_thumb_button2_anim_data@@3UCO_PILOT_ANIM_DATA@@A

; 1769 : 
; 1770 : 					co_pilot_anim_mode = CO_PILOT_ANIM_MODE_RIGHT_HAND_THUMB_BUTTON2;

  0093d	c7 05 00 00 00
	00 0d 00 00 00	 mov	 DWORD PTR ?co_pilot_anim_mode@@3W4CO_PILOT_ANIM_MODES@@A, 13 ; 0000000dH
$LN63@update_co_:

; 1771 : 				}
; 1772 : 			}
; 1773 : 
; 1774 : 			break;

  00947	e9 c5 01 00 00	 jmp	 $LN2@update_co_
$LN64@update_co_:

; 1775 : 		}
; 1776 : 		////////////////////////////////////////
; 1777 : 		case CO_PILOT_ANIM_MODE_RIGHT_HAND_THUMB_BUTTON1:
; 1778 : 		////////////////////////////////////////
; 1779 : 		{
; 1780 : 			anim_data = &co_pilot_anim_mode_right_hand_thumb_button1_anim_data;

  0094c	c7 45 fc 00 00
	00 00		 mov	 DWORD PTR _anim_data$[ebp], OFFSET ?co_pilot_anim_mode_right_hand_thumb_button1_anim_data@@3UCO_PILOT_ANIM_DATA@@A

; 1781 : 
; 1782 : 			co_pilot_anim_frame += get_delta_time ();

  00953	f3 0f 10 05 00
	00 00 00	 movss	 xmm0, DWORD PTR ?co_pilot_anim_frame@@3MA
  0095b	f3 0f 58 05 00
	00 00 00	 addss	 xmm0, DWORD PTR ?system_delta_time@@3MA
  00963	f3 0f 11 05 00
	00 00 00	 movss	 DWORD PTR ?co_pilot_anim_frame@@3MA, xmm0

; 1783 : 
; 1784 : 			if (co_pilot_anim_frame >= 1.0)

  0096b	f3 0f 5a 05 00
	00 00 00	 cvtss2sd xmm0, DWORD PTR ?co_pilot_anim_frame@@3MA
  00973	66 0f 2f 05 00
	00 00 00	 comisd	 xmm0, QWORD PTR __real@3ff0000000000000
  0097b	72 4f		 jb	 SHORT $LN65@update_co_

; 1785 : 			{
; 1786 : 				co_pilot_anim_frame -= 1.0;

  0097d	f3 0f 5a 05 00
	00 00 00	 cvtss2sd xmm0, DWORD PTR ?co_pilot_anim_frame@@3MA
  00985	f2 0f 5c 05 00
	00 00 00	 subsd	 xmm0, QWORD PTR __real@3ff0000000000000
  0098d	f2 0f 5a c0	 cvtsd2ss xmm0, xmm0
  00991	f3 0f 11 05 00
	00 00 00	 movss	 DWORD PTR ?co_pilot_anim_frame@@3MA, xmm0

; 1787 : 
; 1788 : 				if (co_pilot_anim_frame > 1.0)

  00999	f3 0f 5a 05 00
	00 00 00	 cvtss2sd xmm0, DWORD PTR ?co_pilot_anim_frame@@3MA
  009a1	66 0f 2f 05 00
	00 00 00	 comisd	 xmm0, QWORD PTR __real@3ff0000000000000
  009a9	76 10		 jbe	 SHORT $LN66@update_co_

; 1789 : 				{
; 1790 : 					co_pilot_anim_frame = 1.0;

  009ab	f3 0f 10 05 00
	00 00 00	 movss	 xmm0, DWORD PTR __real@3f800000
  009b3	f3 0f 11 05 00
	00 00 00	 movss	 DWORD PTR ?co_pilot_anim_frame@@3MA, xmm0
$LN66@update_co_:

; 1791 : 				}
; 1792 : 
; 1793 : 				anim_data = &co_pilot_anim_mode_right_hand_from_cyclic_to_scope_anim_data;

  009bb	c7 45 fc 00 00
	00 00		 mov	 DWORD PTR _anim_data$[ebp], OFFSET ?co_pilot_anim_mode_right_hand_from_cyclic_to_scope_anim_data@@3UCO_PILOT_ANIM_DATA@@A

; 1794 : 
; 1795 : 				co_pilot_anim_mode = CO_PILOT_ANIM_MODE_RIGHT_HAND_FROM_CYCLIC_TO_SCOPE;

  009c2	c7 05 00 00 00
	00 0e 00 00 00	 mov	 DWORD PTR ?co_pilot_anim_mode@@3W4CO_PILOT_ANIM_MODES@@A, 14 ; 0000000eH
$LN65@update_co_:

; 1796 : 			}
; 1797 : 
; 1798 : 			break;

  009cc	e9 40 01 00 00	 jmp	 $LN2@update_co_
$LN67@update_co_:

; 1799 : 		}
; 1800 : 		////////////////////////////////////////
; 1801 : 		case CO_PILOT_ANIM_MODE_RIGHT_HAND_THUMB_BUTTON2:
; 1802 : 		////////////////////////////////////////
; 1803 : 		{
; 1804 : 			anim_data = &co_pilot_anim_mode_right_hand_thumb_button2_anim_data;

  009d1	c7 45 fc 00 00
	00 00		 mov	 DWORD PTR _anim_data$[ebp], OFFSET ?co_pilot_anim_mode_right_hand_thumb_button2_anim_data@@3UCO_PILOT_ANIM_DATA@@A

; 1805 : 
; 1806 : 			co_pilot_anim_frame += get_delta_time ();

  009d8	f3 0f 10 05 00
	00 00 00	 movss	 xmm0, DWORD PTR ?co_pilot_anim_frame@@3MA
  009e0	f3 0f 58 05 00
	00 00 00	 addss	 xmm0, DWORD PTR ?system_delta_time@@3MA
  009e8	f3 0f 11 05 00
	00 00 00	 movss	 DWORD PTR ?co_pilot_anim_frame@@3MA, xmm0

; 1807 : 
; 1808 : 			if (co_pilot_anim_frame >= 1.0)

  009f0	f3 0f 5a 05 00
	00 00 00	 cvtss2sd xmm0, DWORD PTR ?co_pilot_anim_frame@@3MA
  009f8	66 0f 2f 05 00
	00 00 00	 comisd	 xmm0, QWORD PTR __real@3ff0000000000000
  00a00	72 4f		 jb	 SHORT $LN68@update_co_

; 1809 : 			{
; 1810 : 				co_pilot_anim_frame -= 1.0;

  00a02	f3 0f 5a 05 00
	00 00 00	 cvtss2sd xmm0, DWORD PTR ?co_pilot_anim_frame@@3MA
  00a0a	f2 0f 5c 05 00
	00 00 00	 subsd	 xmm0, QWORD PTR __real@3ff0000000000000
  00a12	f2 0f 5a c0	 cvtsd2ss xmm0, xmm0
  00a16	f3 0f 11 05 00
	00 00 00	 movss	 DWORD PTR ?co_pilot_anim_frame@@3MA, xmm0

; 1811 : 
; 1812 : 				if (co_pilot_anim_frame > 1.0)

  00a1e	f3 0f 5a 05 00
	00 00 00	 cvtss2sd xmm0, DWORD PTR ?co_pilot_anim_frame@@3MA
  00a26	66 0f 2f 05 00
	00 00 00	 comisd	 xmm0, QWORD PTR __real@3ff0000000000000
  00a2e	76 10		 jbe	 SHORT $LN69@update_co_

; 1813 : 				{
; 1814 : 					co_pilot_anim_frame = 1.0;

  00a30	f3 0f 10 05 00
	00 00 00	 movss	 xmm0, DWORD PTR __real@3f800000
  00a38	f3 0f 11 05 00
	00 00 00	 movss	 DWORD PTR ?co_pilot_anim_frame@@3MA, xmm0
$LN69@update_co_:

; 1815 : 				}
; 1816 : 
; 1817 : 				anim_data = &co_pilot_anim_mode_right_hand_from_cyclic_to_scope_anim_data;

  00a40	c7 45 fc 00 00
	00 00		 mov	 DWORD PTR _anim_data$[ebp], OFFSET ?co_pilot_anim_mode_right_hand_from_cyclic_to_scope_anim_data@@3UCO_PILOT_ANIM_DATA@@A

; 1818 : 
; 1819 : 				co_pilot_anim_mode = CO_PILOT_ANIM_MODE_RIGHT_HAND_FROM_CYCLIC_TO_SCOPE;

  00a47	c7 05 00 00 00
	00 0e 00 00 00	 mov	 DWORD PTR ?co_pilot_anim_mode@@3W4CO_PILOT_ANIM_MODES@@A, 14 ; 0000000eH
$LN68@update_co_:

; 1820 : 			}
; 1821 : 
; 1822 : 			break;

  00a51	e9 bb 00 00 00	 jmp	 $LN2@update_co_
$LN70@update_co_:

; 1823 : 		}
; 1824 : 		////////////////////////////////////////
; 1825 : 		case CO_PILOT_ANIM_MODE_RIGHT_HAND_FROM_CYCLIC_TO_SCOPE:
; 1826 : 		////////////////////////////////////////
; 1827 : 		{
; 1828 : 			anim_data = &co_pilot_anim_mode_right_hand_from_cyclic_to_scope_anim_data;

  00a56	c7 45 fc 00 00
	00 00		 mov	 DWORD PTR _anim_data$[ebp], OFFSET ?co_pilot_anim_mode_right_hand_from_cyclic_to_scope_anim_data@@3UCO_PILOT_ANIM_DATA@@A

; 1829 : 
; 1830 : 			co_pilot_anim_frame += get_delta_time ();

  00a5d	f3 0f 10 05 00
	00 00 00	 movss	 xmm0, DWORD PTR ?co_pilot_anim_frame@@3MA
  00a65	f3 0f 58 05 00
	00 00 00	 addss	 xmm0, DWORD PTR ?system_delta_time@@3MA
  00a6d	f3 0f 11 05 00
	00 00 00	 movss	 DWORD PTR ?co_pilot_anim_frame@@3MA, xmm0

; 1831 : 
; 1832 : 			if (co_pilot_anim_frame >= 1.0)

  00a75	f3 0f 5a 05 00
	00 00 00	 cvtss2sd xmm0, DWORD PTR ?co_pilot_anim_frame@@3MA
  00a7d	66 0f 2f 05 00
	00 00 00	 comisd	 xmm0, QWORD PTR __real@3ff0000000000000
  00a85	72 1a		 jb	 SHORT $LN71@update_co_

; 1833 : 			{
; 1834 : 				co_pilot_anim_frame = 1.0;

  00a87	f3 0f 10 05 00
	00 00 00	 movss	 xmm0, DWORD PTR __real@3f800000
  00a8f	f3 0f 11 05 00
	00 00 00	 movss	 DWORD PTR ?co_pilot_anim_frame@@3MA, xmm0

; 1835 : 
; 1836 : 				co_pilot_anim_mode = CO_PILOT_ANIM_MODE_DATUM_AT_SCOPE;

  00a97	c7 05 00 00 00
	00 01 00 00 00	 mov	 DWORD PTR ?co_pilot_anim_mode@@3W4CO_PILOT_ANIM_MODES@@A, 1
$LN71@update_co_:

; 1837 : 			}
; 1838 : 
; 1839 : 			break;

  00aa1	eb 6e		 jmp	 SHORT $LN2@update_co_
$LN72@update_co_:

; 1840 : 		}
; 1841 : 		////////////////////////////////////////
; 1842 : 		case CO_PILOT_ANIM_MODE_HEAD_LOOK_DOWN:
; 1843 : 		////////////////////////////////////////
; 1844 : 		{
; 1845 : 			anim_data = &co_pilot_anim_mode_head_look_down_anim_data;

  00aa3	c7 45 fc 00 00
	00 00		 mov	 DWORD PTR _anim_data$[ebp], OFFSET ?co_pilot_anim_mode_head_look_down_anim_data@@3UCO_PILOT_ANIM_DATA@@A

; 1846 : 
; 1847 : 			update_co_pilot_head_animation ();

  00aaa	e8 00 00 00 00	 call	 ?update_co_pilot_head_animation@@YGXXZ ; update_co_pilot_head_animation

; 1848 : 
; 1849 : 			break;

  00aaf	eb 60		 jmp	 SHORT $LN2@update_co_
$LN73@update_co_:

; 1850 : 		}
; 1851 : 		////////////////////////////////////////
; 1852 : 		case CO_PILOT_ANIM_MODE_HEAD_LOOK_DOWN_LEFT:
; 1853 : 		////////////////////////////////////////
; 1854 : 		{
; 1855 : 			anim_data = &co_pilot_anim_mode_head_look_down_left_anim_data;

  00ab1	c7 45 fc 00 00
	00 00		 mov	 DWORD PTR _anim_data$[ebp], OFFSET ?co_pilot_anim_mode_head_look_down_left_anim_data@@3UCO_PILOT_ANIM_DATA@@A

; 1856 : 
; 1857 : 			update_co_pilot_head_animation ();

  00ab8	e8 00 00 00 00	 call	 ?update_co_pilot_head_animation@@YGXXZ ; update_co_pilot_head_animation

; 1858 : 
; 1859 : 			break;

  00abd	eb 52		 jmp	 SHORT $LN2@update_co_
$LN74@update_co_:

; 1860 : 		}
; 1861 : 		////////////////////////////////////////
; 1862 : 		case CO_PILOT_ANIM_MODE_HEAD_LOOK_DOWN_RIGHT:
; 1863 : 		////////////////////////////////////////
; 1864 : 		{
; 1865 : 			anim_data = &co_pilot_anim_mode_head_look_down_right_anim_data;

  00abf	c7 45 fc 00 00
	00 00		 mov	 DWORD PTR _anim_data$[ebp], OFFSET ?co_pilot_anim_mode_head_look_down_right_anim_data@@3UCO_PILOT_ANIM_DATA@@A

; 1866 : 
; 1867 : 			update_co_pilot_head_animation ();

  00ac6	e8 00 00 00 00	 call	 ?update_co_pilot_head_animation@@YGXXZ ; update_co_pilot_head_animation

; 1868 : 
; 1869 : 			break;

  00acb	eb 44		 jmp	 SHORT $LN2@update_co_
$LN75@update_co_:

; 1870 : 		}
; 1871 : 		////////////////////////////////////////
; 1872 : 		case CO_PILOT_ANIM_MODE_HEAD_LOOK_UP:
; 1873 : 		////////////////////////////////////////
; 1874 : 		{
; 1875 : 			anim_data = &co_pilot_anim_mode_head_look_up_anim_data;

  00acd	c7 45 fc 00 00
	00 00		 mov	 DWORD PTR _anim_data$[ebp], OFFSET ?co_pilot_anim_mode_head_look_up_anim_data@@3UCO_PILOT_ANIM_DATA@@A

; 1876 : 
; 1877 : 			update_co_pilot_head_animation ();

  00ad4	e8 00 00 00 00	 call	 ?update_co_pilot_head_animation@@YGXXZ ; update_co_pilot_head_animation

; 1878 : 
; 1879 : 			break;

  00ad9	eb 36		 jmp	 SHORT $LN2@update_co_
$LN76@update_co_:

; 1880 : 		}
; 1881 : 		////////////////////////////////////////
; 1882 : 		case CO_PILOT_ANIM_MODE_HEAD_LOOK_UP_LEFT:
; 1883 : 		////////////////////////////////////////
; 1884 : 		{
; 1885 : 			anim_data = &co_pilot_anim_mode_head_look_up_left_anim_data;

  00adb	c7 45 fc 00 00
	00 00		 mov	 DWORD PTR _anim_data$[ebp], OFFSET ?co_pilot_anim_mode_head_look_up_left_anim_data@@3UCO_PILOT_ANIM_DATA@@A

; 1886 : 
; 1887 : 			update_co_pilot_head_animation ();

  00ae2	e8 00 00 00 00	 call	 ?update_co_pilot_head_animation@@YGXXZ ; update_co_pilot_head_animation

; 1888 : 
; 1889 : 			break;

  00ae7	eb 28		 jmp	 SHORT $LN2@update_co_
$LN77@update_co_:

; 1890 : 		}
; 1891 : 		////////////////////////////////////////
; 1892 : 		case CO_PILOT_ANIM_MODE_HEAD_LOOK_UP_RIGHT:
; 1893 : 		////////////////////////////////////////
; 1894 : 		{
; 1895 : 			anim_data = &co_pilot_anim_mode_head_look_up_right_anim_data;

  00ae9	c7 45 fc 00 00
	00 00		 mov	 DWORD PTR _anim_data$[ebp], OFFSET ?co_pilot_anim_mode_head_look_up_right_anim_data@@3UCO_PILOT_ANIM_DATA@@A

; 1896 : 
; 1897 : 			update_co_pilot_head_animation ();

  00af0	e8 00 00 00 00	 call	 ?update_co_pilot_head_animation@@YGXXZ ; update_co_pilot_head_animation

; 1898 : 
; 1899 : 			break;

  00af5	eb 1a		 jmp	 SHORT $LN2@update_co_
$LN78@update_co_:

; 1900 : 		}
; 1901 : 		////////////////////////////////////////
; 1902 : 		case CO_PILOT_ANIM_MODE_HEAD_LOOK_LEFT:
; 1903 : 		////////////////////////////////////////
; 1904 : 		{
; 1905 : 			anim_data = &co_pilot_anim_mode_head_look_left_anim_data;

  00af7	c7 45 fc 00 00
	00 00		 mov	 DWORD PTR _anim_data$[ebp], OFFSET ?co_pilot_anim_mode_head_look_left_anim_data@@3UCO_PILOT_ANIM_DATA@@A

; 1906 : 
; 1907 : 			update_co_pilot_head_animation ();

  00afe	e8 00 00 00 00	 call	 ?update_co_pilot_head_animation@@YGXXZ ; update_co_pilot_head_animation

; 1908 : 
; 1909 : 			break;

  00b03	eb 0c		 jmp	 SHORT $LN2@update_co_
$LN79@update_co_:

; 1910 : 		}
; 1911 : 		////////////////////////////////////////
; 1912 : 		case CO_PILOT_ANIM_MODE_HEAD_LOOK_RIGHT:
; 1913 : 		////////////////////////////////////////
; 1914 : 		{
; 1915 : 			anim_data = &co_pilot_anim_mode_head_look_right_anim_data;

  00b05	c7 45 fc 00 00
	00 00		 mov	 DWORD PTR _anim_data$[ebp], OFFSET ?co_pilot_anim_mode_head_look_right_anim_data@@3UCO_PILOT_ANIM_DATA@@A

; 1916 : 
; 1917 : 			update_co_pilot_head_animation ();

  00b0c	e8 00 00 00 00	 call	 ?update_co_pilot_head_animation@@YGXXZ ; update_co_pilot_head_animation
$LN2@update_co_:

; 1918 : 
; 1919 : 			break;
; 1920 : 		}
; 1921 : 	}
; 1922 : 
; 1923 : 	set_co_pilot_animation (anim_data, co_pilot_anim_frame);

  00b11	51		 push	 ecx
  00b12	f3 0f 10 05 00
	00 00 00	 movss	 xmm0, DWORD PTR ?co_pilot_anim_frame@@3MA
  00b1a	f3 0f 11 04 24	 movss	 DWORD PTR [esp], xmm0
  00b1f	8b 45 fc	 mov	 eax, DWORD PTR _anim_data$[ebp]
  00b22	50		 push	 eax
  00b23	e8 00 00 00 00	 call	 ?set_co_pilot_animation@@YGXPAUCO_PILOT_ANIM_DATA@@M@Z ; set_co_pilot_animation

; 1924 : }

  00b28	5f		 pop	 edi
  00b29	5e		 pop	 esi
  00b2a	5b		 pop	 ebx
  00b2b	8b e5		 mov	 esp, ebp
  00b2d	5d		 pop	 ebp
  00b2e	c3		 ret	 0
  00b2f	90		 npad	 1
$LN89@update_co_:
  00b30	00 00 00 00	 DD	 $LN22@update_co_
  00b34	00 00 00 00	 DD	 $LN25@update_co_
  00b38	00 00 00 00	 DD	 $LN28@update_co_
  00b3c	00 00 00 00	 DD	 $LN33@update_co_
  00b40	00 00 00 00	 DD	 $LN35@update_co_
  00b44	00 00 00 00	 DD	 $LN37@update_co_
  00b48	00 00 00 00	 DD	 $LN39@update_co_
  00b4c	00 00 00 00	 DD	 $LN41@update_co_
  00b50	00 00 00 00	 DD	 $LN46@update_co_
  00b54	00 00 00 00	 DD	 $LN55@update_co_
  00b58	00 00 00 00	 DD	 $LN57@update_co_
  00b5c	00 00 00 00	 DD	 $LN59@update_co_
  00b60	00 00 00 00	 DD	 $LN64@update_co_
  00b64	00 00 00 00	 DD	 $LN67@update_co_
  00b68	00 00 00 00	 DD	 $LN70@update_co_
  00b6c	00 00 00 00	 DD	 $LN72@update_co_
  00b70	00 00 00 00	 DD	 $LN73@update_co_
  00b74	00 00 00 00	 DD	 $LN74@update_co_
  00b78	00 00 00 00	 DD	 $LN75@update_co_
  00b7c	00 00 00 00	 DD	 $LN76@update_co_
  00b80	00 00 00 00	 DD	 $LN77@update_co_
  00b84	00 00 00 00	 DD	 $LN78@update_co_
  00b88	00 00 00 00	 DD	 $LN79@update_co_
?update_co_pilot_animation@@YGXXZ ENDP			; update_co_pilot_animation
_TEXT	ENDS
; Function compile flags: /Odtp /ZI
; File c:\users\nhv90\projects\eech\aphavoc\source\gunships\cockpits\hokum\hk_cpg.c
;	COMDAT ?update_co_pilot_head_animation@@YGXXZ
_TEXT	SEGMENT
?update_co_pilot_head_animation@@YGXXZ PROC		; update_co_pilot_head_animation, COMDAT

; 1300 : {

  00000	55		 push	 ebp
  00001	8b ec		 mov	 ebp, esp
  00003	83 ec 40	 sub	 esp, 64			; 00000040H
  00006	53		 push	 ebx
  00007	56		 push	 esi
  00008	57		 push	 edi

; 1301 : 	co_pilot_anim_frame += get_delta_time () * 0.5;

  00009	f3 0f 5a 05 00
	00 00 00	 cvtss2sd xmm0, DWORD PTR ?system_delta_time@@3MA
  00011	f2 0f 59 05 00
	00 00 00	 mulsd	 xmm0, QWORD PTR __real@3fe0000000000000
  00019	f3 0f 5a 0d 00
	00 00 00	 cvtss2sd xmm1, DWORD PTR ?co_pilot_anim_frame@@3MA
  00021	f2 0f 58 c8	 addsd	 xmm1, xmm0
  00025	f2 0f 5a c1	 cvtsd2ss xmm0, xmm1
  00029	f3 0f 11 05 00
	00 00 00	 movss	 DWORD PTR ?co_pilot_anim_frame@@3MA, xmm0

; 1302 : 
; 1303 : 	if ((co_pilot_anim_frame >= 0.5) && (co_pilot_head_anim_pause > 0.0))

  00031	f3 0f 5a 05 00
	00 00 00	 cvtss2sd xmm0, DWORD PTR ?co_pilot_anim_frame@@3MA
  00039	66 0f 2f 05 00
	00 00 00	 comisd	 xmm0, QWORD PTR __real@3fe0000000000000
  00041	72 58		 jb	 SHORT $LN2@update_co_
  00043	f3 0f 5a 05 00
	00 00 00	 cvtss2sd xmm0, DWORD PTR ?co_pilot_head_anim_pause@@3MA
  0004b	66 0f 2f 05 00
	00 00 00	 comisd	 xmm0, QWORD PTR __real@0000000000000000
  00053	76 46		 jbe	 SHORT $LN2@update_co_

; 1304 : 	{
; 1305 : 		co_pilot_anim_frame = 0.5;

  00055	f3 0f 10 05 00
	00 00 00	 movss	 xmm0, DWORD PTR __real@3f000000
  0005d	f3 0f 11 05 00
	00 00 00	 movss	 DWORD PTR ?co_pilot_anim_frame@@3MA, xmm0

; 1306 : 
; 1307 : 		co_pilot_head_anim_pause -= get_delta_time ();

  00065	f3 0f 10 05 00
	00 00 00	 movss	 xmm0, DWORD PTR ?co_pilot_head_anim_pause@@3MA
  0006d	f3 0f 5c 05 00
	00 00 00	 subss	 xmm0, DWORD PTR ?system_delta_time@@3MA
  00075	f3 0f 11 05 00
	00 00 00	 movss	 DWORD PTR ?co_pilot_head_anim_pause@@3MA, xmm0

; 1308 : 
; 1309 : 		if (co_pilot_head_anim_pause < 0.0)

  0007d	f3 0f 5a 05 00
	00 00 00	 cvtss2sd xmm0, DWORD PTR ?co_pilot_head_anim_pause@@3MA
  00085	0f 57 c9	 xorps	 xmm1, xmm1
  00088	66 0f 2f c8	 comisd	 xmm1, xmm0
  0008c	76 0b		 jbe	 SHORT $LN4@update_co_

; 1310 : 		{
; 1311 : 			co_pilot_head_anim_pause = 0.0;

  0008e	0f 57 c0	 xorps	 xmm0, xmm0
  00091	f3 0f 11 05 00
	00 00 00	 movss	 DWORD PTR ?co_pilot_head_anim_pause@@3MA, xmm0
$LN4@update_co_:

; 1312 : 		}
; 1313 : 	}
; 1314 : 	else

  00099	eb 2c		 jmp	 SHORT $LN5@update_co_
$LN2@update_co_:

; 1315 : 	{
; 1316 : 		if (co_pilot_anim_frame >= 1.0)

  0009b	f3 0f 5a 05 00
	00 00 00	 cvtss2sd xmm0, DWORD PTR ?co_pilot_anim_frame@@3MA
  000a3	66 0f 2f 05 00
	00 00 00	 comisd	 xmm0, QWORD PTR __real@3ff0000000000000
  000ab	72 1a		 jb	 SHORT $LN5@update_co_

; 1317 : 		{
; 1318 : 			co_pilot_anim_frame = 1.0;

  000ad	f3 0f 10 05 00
	00 00 00	 movss	 xmm0, DWORD PTR __real@3f800000
  000b5	f3 0f 11 05 00
	00 00 00	 movss	 DWORD PTR ?co_pilot_anim_frame@@3MA, xmm0

; 1319 : 
; 1320 : 			co_pilot_anim_mode = CO_PILOT_ANIM_MODE_DATUM_AT_REST;

  000bd	c7 05 00 00 00
	00 00 00 00 00	 mov	 DWORD PTR ?co_pilot_anim_mode@@3W4CO_PILOT_ANIM_MODES@@A, 0
$LN5@update_co_:

; 1321 : 		}
; 1322 : 	}
; 1323 : }

  000c7	5f		 pop	 edi
  000c8	5e		 pop	 esi
  000c9	5b		 pop	 ebx
  000ca	8b e5		 mov	 esp, ebp
  000cc	5d		 pop	 ebp
  000cd	c3		 ret	 0
?update_co_pilot_head_animation@@YGXXZ ENDP		; update_co_pilot_head_animation
_TEXT	ENDS
; Function compile flags: /Odtp /ZI
; File c:\users\nhv90\projects\eech\aphavoc\source\gunships\cockpits\hokum\hk_cpg.c
;	COMDAT ?get_random_co_pilot_datum_at_scope_anim_mode@@YG?AW4CO_PILOT_ANIM_MODES@@XZ
_TEXT	SEGMENT
tv88 = -76						; size = 4
_mode$ = -8						; size = 4
_n$ = -4						; size = 4
?get_random_co_pilot_datum_at_scope_anim_mode@@YG?AW4CO_PILOT_ANIM_MODES@@XZ PROC ; get_random_co_pilot_datum_at_scope_anim_mode, COMDAT

; 1233 : {

  00000	55		 push	 ebp
  00001	8b ec		 mov	 ebp, esp
  00003	83 ec 4c	 sub	 esp, 76			; 0000004cH
  00006	53		 push	 ebx
  00007	56		 push	 esi
  00008	57		 push	 edi

; 1234 : 	static int
; 1235 : 		previous_n = -1;
; 1236 : 
; 1237 : 	int
; 1238 : 		n;
; 1239 : 
; 1240 : 	co_pilot_anim_modes
; 1241 : 		mode;
; 1242 : 
; 1243 : 	if (frand1 () < 0.25)

  00009	69 05 00 00 00
	00 6d 4e c6 41	 imul	 eax, DWORD PTR ?random_number_seed@@3HA, 1103515245 ; random_number_seed
  00013	05 39 30 00 00	 add	 eax, 12345		; 00003039H
  00018	a3 00 00 00 00	 mov	 DWORD PTR ?random_number_seed@@3HA, eax ; random_number_seed
  0001d	8b 0d 00 00 00
	00		 mov	 ecx, DWORD PTR ?random_number_seed@@3HA ; random_number_seed
  00023	c1 f9 10	 sar	 ecx, 16			; 00000010H
  00026	81 e1 ff 7f 00
	00		 and	 ecx, 32767		; 00007fffH
  0002c	f2 0f 2a c1	 cvtsi2sd xmm0, ecx
  00030	f2 0f 59 05 00
	00 00 00	 mulsd	 xmm0, QWORD PTR __real@3f00002000400080
  00038	f2 0f 10 0d 00
	00 00 00	 movsd	 xmm1, QWORD PTR __real@3fd0000000000000
  00040	66 0f 2f c8	 comisd	 xmm1, xmm0
  00044	76 0c		 jbe	 SHORT $LN4@get_random

; 1244 : 	{
; 1245 : 		mode = CO_PILOT_ANIM_MODE_LEAN_BACK_FROM_SCOPE;

  00046	c7 45 f8 03 00
	00 00		 mov	 DWORD PTR _mode$[ebp], 3

; 1246 : 	}
; 1247 : 	else

  0004d	e9 e8 00 00 00	 jmp	 $LN2@get_random
$LN4@get_random:

; 1248 : 	{
; 1249 : 		n = rand16 () % 3;

  00052	69 05 00 00 00
	00 6d 4e c6 41	 imul	 eax, DWORD PTR ?random_number_seed@@3HA, 1103515245 ; random_number_seed
  0005c	05 39 30 00 00	 add	 eax, 12345		; 00003039H
  00061	a3 00 00 00 00	 mov	 DWORD PTR ?random_number_seed@@3HA, eax ; random_number_seed
  00066	a1 00 00 00 00	 mov	 eax, DWORD PTR ?random_number_seed@@3HA ; random_number_seed
  0006b	c1 f8 10	 sar	 eax, 16			; 00000010H
  0006e	25 ff 7f 00 00	 and	 eax, 32767		; 00007fffH
  00073	99		 cdq
  00074	b9 03 00 00 00	 mov	 ecx, 3
  00079	f7 f9		 idiv	 ecx
  0007b	89 55 fc	 mov	 DWORD PTR _n$[ebp], edx

; 1250 : 
; 1251 : 		if (n == previous_n)

  0007e	8b 45 fc	 mov	 eax, DWORD PTR _n$[ebp]
  00081	3b 05 00 00 00
	00		 cmp	 eax, DWORD PTR ?previous_n@?1??get_random_co_pilot_datum_at_scope_anim_mode@@YG?AW4CO_PILOT_ANIM_MODES@@XZ@4HA
  00087	75 63		 jne	 SHORT $LN7@get_random

; 1252 : 		{
; 1253 : 			n = rand16 () % 3;

  00089	69 05 00 00 00
	00 6d 4e c6 41	 imul	 eax, DWORD PTR ?random_number_seed@@3HA, 1103515245 ; random_number_seed
  00093	05 39 30 00 00	 add	 eax, 12345		; 00003039H
  00098	a3 00 00 00 00	 mov	 DWORD PTR ?random_number_seed@@3HA, eax ; random_number_seed
  0009d	a1 00 00 00 00	 mov	 eax, DWORD PTR ?random_number_seed@@3HA ; random_number_seed
  000a2	c1 f8 10	 sar	 eax, 16			; 00000010H
  000a5	25 ff 7f 00 00	 and	 eax, 32767		; 00007fffH
  000aa	99		 cdq
  000ab	b9 03 00 00 00	 mov	 ecx, 3
  000b0	f7 f9		 idiv	 ecx
  000b2	89 55 fc	 mov	 DWORD PTR _n$[ebp], edx

; 1254 : 
; 1255 : 			if (n == previous_n)

  000b5	8b 45 fc	 mov	 eax, DWORD PTR _n$[ebp]
  000b8	3b 05 00 00 00
	00		 cmp	 eax, DWORD PTR ?previous_n@?1??get_random_co_pilot_datum_at_scope_anim_mode@@YG?AW4CO_PILOT_ANIM_MODES@@XZ@4HA
  000be	75 2c		 jne	 SHORT $LN7@get_random

; 1256 : 			{
; 1257 : 				n = rand16 () % 3;

  000c0	69 05 00 00 00
	00 6d 4e c6 41	 imul	 eax, DWORD PTR ?random_number_seed@@3HA, 1103515245 ; random_number_seed
  000ca	05 39 30 00 00	 add	 eax, 12345		; 00003039H
  000cf	a3 00 00 00 00	 mov	 DWORD PTR ?random_number_seed@@3HA, eax ; random_number_seed
  000d4	a1 00 00 00 00	 mov	 eax, DWORD PTR ?random_number_seed@@3HA ; random_number_seed
  000d9	c1 f8 10	 sar	 eax, 16			; 00000010H
  000dc	25 ff 7f 00 00	 and	 eax, 32767		; 00007fffH
  000e1	99		 cdq
  000e2	b9 03 00 00 00	 mov	 ecx, 3
  000e7	f7 f9		 idiv	 ecx
  000e9	89 55 fc	 mov	 DWORD PTR _n$[ebp], edx
$LN7@get_random:

; 1258 : 			}
; 1259 : 		}
; 1260 : 
; 1261 : 		previous_n = n;

  000ec	8b 45 fc	 mov	 eax, DWORD PTR _n$[ebp]
  000ef	a3 00 00 00 00	 mov	 DWORD PTR ?previous_n@?1??get_random_co_pilot_datum_at_scope_anim_mode@@YG?AW4CO_PILOT_ANIM_MODES@@XZ@4HA, eax

; 1262 : 
; 1263 : 		switch (n)

  000f4	8b 45 fc	 mov	 eax, DWORD PTR _n$[ebp]
  000f7	89 45 b4	 mov	 DWORD PTR tv88[ebp], eax
  000fa	83 7d b4 00	 cmp	 DWORD PTR tv88[ebp], 0
  000fe	74 0e		 je	 SHORT $LN8@get_random
  00100	83 7d b4 01	 cmp	 DWORD PTR tv88[ebp], 1
  00104	74 11		 je	 SHORT $LN9@get_random
  00106	83 7d b4 02	 cmp	 DWORD PTR tv88[ebp], 2
  0010a	74 14		 je	 SHORT $LN10@get_random
  0010c	eb 1b		 jmp	 SHORT $LN11@get_random
$LN8@get_random:

; 1264 : 		{
; 1265 : 			case 0:
; 1266 : 			{
; 1267 : 				mode = CO_PILOT_ANIM_MODE_LEFT_HAND_FROM_SCOPE_TO_MASTER_ARM_SWITCH;

  0010e	c7 45 f8 09 00
	00 00		 mov	 DWORD PTR _mode$[ebp], 9

; 1268 : 
; 1269 : 				break;

  00115	eb 23		 jmp	 SHORT $LN2@get_random
$LN9@get_random:

; 1270 : 			}
; 1271 : 			case 1:
; 1272 : 			{
; 1273 : 				mode = CO_PILOT_ANIM_MODE_LEFT_HAND_FROM_SCOPE_TO_THUMBS_UP;

  00117	c7 45 f8 0a 00
	00 00		 mov	 DWORD PTR _mode$[ebp], 10 ; 0000000aH

; 1274 : 
; 1275 : 				break;

  0011e	eb 1a		 jmp	 SHORT $LN2@get_random
$LN10@get_random:

; 1276 : 			}
; 1277 : 			case 2:
; 1278 : 			{
; 1279 : 				mode = CO_PILOT_ANIM_MODE_RIGHT_HAND_FROM_SCOPE_TO_CYCLIC;

  00120	c7 45 f8 0b 00
	00 00		 mov	 DWORD PTR _mode$[ebp], 11 ; 0000000bH

; 1280 : 
; 1281 : 				break;

  00127	eb 11		 jmp	 SHORT $LN2@get_random
$LN11@get_random:

; 1282 : 			}
; 1283 : 			default:
; 1284 : 			{
; 1285 : 				debug_fatal ("Invalid animation mode = %d", n);

  00129	8b 45 fc	 mov	 eax, DWORD PTR _n$[ebp]
  0012c	50		 push	 eax
  0012d	68 00 00 00 00	 push	 OFFSET ??_C@_0BM@PAHNKOC@Invalid?5animation?5mode?5?$DN?5?$CFd@
  00132	e8 00 00 00 00	 call	 ?debug_fatal@@YAXPBDZZ	; debug_fatal
  00137	83 c4 08	 add	 esp, 8
$LN2@get_random:

; 1286 : 
; 1287 : 				break;
; 1288 : 			}
; 1289 : 		}
; 1290 : 	}
; 1291 : 
; 1292 : 	return (mode);

  0013a	8b 45 f8	 mov	 eax, DWORD PTR _mode$[ebp]

; 1293 : }

  0013d	5f		 pop	 edi
  0013e	5e		 pop	 esi
  0013f	5b		 pop	 ebx
  00140	8b e5		 mov	 esp, ebp
  00142	5d		 pop	 ebp
  00143	c3		 ret	 0
?get_random_co_pilot_datum_at_scope_anim_mode@@YG?AW4CO_PILOT_ANIM_MODES@@XZ ENDP ; get_random_co_pilot_datum_at_scope_anim_mode
_TEXT	ENDS
; Function compile flags: /Odtp /ZI
; File c:\users\nhv90\projects\eech\aphavoc\source\gunships\cockpits\hokum\hk_cpg.c
;	COMDAT ?get_random_co_pilot_datum_at_rest_anim_mode@@YG?AW4CO_PILOT_ANIM_MODES@@XZ
_TEXT	SEGMENT
tv88 = -76						; size = 4
_mode$ = -8						; size = 4
_n$ = -4						; size = 4
?get_random_co_pilot_datum_at_rest_anim_mode@@YG?AW4CO_PILOT_ANIM_MODES@@XZ PROC ; get_random_co_pilot_datum_at_rest_anim_mode, COMDAT

; 1118 : {

  00000	55		 push	 ebp
  00001	8b ec		 mov	 ebp, esp
  00003	83 ec 4c	 sub	 esp, 76			; 0000004cH
  00006	53		 push	 ebx
  00007	56		 push	 esi
  00008	57		 push	 edi

; 1119 : 	static int
; 1120 : 		previous_n = -1;
; 1121 : 
; 1122 : 	int
; 1123 : 		n;
; 1124 : 
; 1125 : 	co_pilot_anim_modes
; 1126 : 		mode;
; 1127 : 
; 1128 : 	if (frand1 () < 0.2)

  00009	69 05 00 00 00
	00 6d 4e c6 41	 imul	 eax, DWORD PTR ?random_number_seed@@3HA, 1103515245 ; random_number_seed
  00013	05 39 30 00 00	 add	 eax, 12345		; 00003039H
  00018	a3 00 00 00 00	 mov	 DWORD PTR ?random_number_seed@@3HA, eax ; random_number_seed
  0001d	8b 0d 00 00 00
	00		 mov	 ecx, DWORD PTR ?random_number_seed@@3HA ; random_number_seed
  00023	c1 f9 10	 sar	 ecx, 16			; 00000010H
  00026	81 e1 ff 7f 00
	00		 and	 ecx, 32767		; 00007fffH
  0002c	f2 0f 2a c1	 cvtsi2sd xmm0, ecx
  00030	f2 0f 59 05 00
	00 00 00	 mulsd	 xmm0, QWORD PTR __real@3f00002000400080
  00038	f2 0f 10 0d 00
	00 00 00	 movsd	 xmm1, QWORD PTR __real@3fc999999999999a
  00040	66 0f 2f c8	 comisd	 xmm1, xmm0
  00044	76 0c		 jbe	 SHORT $LN4@get_random

; 1129 : 	{
; 1130 : 		mode = CO_PILOT_ANIM_MODE_LEAN_FORWARD_TO_SCOPE;

  00046	c7 45 f8 02 00
	00 00		 mov	 DWORD PTR _mode$[ebp], 2

; 1131 : 	}
; 1132 : 	else

  0004d	e9 2c 01 00 00	 jmp	 $LN2@get_random
$LN4@get_random:

; 1133 : 	{
; 1134 : 		n = rand16 () % 11;

  00052	69 05 00 00 00
	00 6d 4e c6 41	 imul	 eax, DWORD PTR ?random_number_seed@@3HA, 1103515245 ; random_number_seed
  0005c	05 39 30 00 00	 add	 eax, 12345		; 00003039H
  00061	a3 00 00 00 00	 mov	 DWORD PTR ?random_number_seed@@3HA, eax ; random_number_seed
  00066	a1 00 00 00 00	 mov	 eax, DWORD PTR ?random_number_seed@@3HA ; random_number_seed
  0006b	c1 f8 10	 sar	 eax, 16			; 00000010H
  0006e	25 ff 7f 00 00	 and	 eax, 32767		; 00007fffH
  00073	99		 cdq
  00074	b9 0b 00 00 00	 mov	 ecx, 11			; 0000000bH
  00079	f7 f9		 idiv	 ecx
  0007b	89 55 fc	 mov	 DWORD PTR _n$[ebp], edx

; 1135 : 
; 1136 : 		if (n == previous_n)

  0007e	8b 45 fc	 mov	 eax, DWORD PTR _n$[ebp]
  00081	3b 05 00 00 00
	00		 cmp	 eax, DWORD PTR ?previous_n@?1??get_random_co_pilot_datum_at_rest_anim_mode@@YG?AW4CO_PILOT_ANIM_MODES@@XZ@4HA
  00087	75 63		 jne	 SHORT $LN7@get_random

; 1137 : 		{
; 1138 : 			n = rand16 () % 11;

  00089	69 05 00 00 00
	00 6d 4e c6 41	 imul	 eax, DWORD PTR ?random_number_seed@@3HA, 1103515245 ; random_number_seed
  00093	05 39 30 00 00	 add	 eax, 12345		; 00003039H
  00098	a3 00 00 00 00	 mov	 DWORD PTR ?random_number_seed@@3HA, eax ; random_number_seed
  0009d	a1 00 00 00 00	 mov	 eax, DWORD PTR ?random_number_seed@@3HA ; random_number_seed
  000a2	c1 f8 10	 sar	 eax, 16			; 00000010H
  000a5	25 ff 7f 00 00	 and	 eax, 32767		; 00007fffH
  000aa	99		 cdq
  000ab	b9 0b 00 00 00	 mov	 ecx, 11			; 0000000bH
  000b0	f7 f9		 idiv	 ecx
  000b2	89 55 fc	 mov	 DWORD PTR _n$[ebp], edx

; 1139 : 
; 1140 : 			if (n == previous_n)

  000b5	8b 45 fc	 mov	 eax, DWORD PTR _n$[ebp]
  000b8	3b 05 00 00 00
	00		 cmp	 eax, DWORD PTR ?previous_n@?1??get_random_co_pilot_datum_at_rest_anim_mode@@YG?AW4CO_PILOT_ANIM_MODES@@XZ@4HA
  000be	75 2c		 jne	 SHORT $LN7@get_random

; 1141 : 			{
; 1142 : 				n = rand16 () % 11;

  000c0	69 05 00 00 00
	00 6d 4e c6 41	 imul	 eax, DWORD PTR ?random_number_seed@@3HA, 1103515245 ; random_number_seed
  000ca	05 39 30 00 00	 add	 eax, 12345		; 00003039H
  000cf	a3 00 00 00 00	 mov	 DWORD PTR ?random_number_seed@@3HA, eax ; random_number_seed
  000d4	a1 00 00 00 00	 mov	 eax, DWORD PTR ?random_number_seed@@3HA ; random_number_seed
  000d9	c1 f8 10	 sar	 eax, 16			; 00000010H
  000dc	25 ff 7f 00 00	 and	 eax, 32767		; 00007fffH
  000e1	99		 cdq
  000e2	b9 0b 00 00 00	 mov	 ecx, 11			; 0000000bH
  000e7	f7 f9		 idiv	 ecx
  000e9	89 55 fc	 mov	 DWORD PTR _n$[ebp], edx
$LN7@get_random:

; 1143 : 			}
; 1144 : 		}
; 1145 : 
; 1146 : 		previous_n = n;

  000ec	8b 45 fc	 mov	 eax, DWORD PTR _n$[ebp]
  000ef	a3 00 00 00 00	 mov	 DWORD PTR ?previous_n@?1??get_random_co_pilot_datum_at_rest_anim_mode@@YG?AW4CO_PILOT_ANIM_MODES@@XZ@4HA, eax

; 1147 : 
; 1148 : 		switch (n)

  000f4	8b 45 fc	 mov	 eax, DWORD PTR _n$[ebp]
  000f7	89 45 b4	 mov	 DWORD PTR tv88[ebp], eax
  000fa	83 7d b4 0a	 cmp	 DWORD PTR tv88[ebp], 10	; 0000000aH
  000fe	77 6d		 ja	 SHORT $LN19@get_random
  00100	8b 4d b4	 mov	 ecx, DWORD PTR tv88[ebp]
  00103	ff 24 8d 00 00
	00 00		 jmp	 DWORD PTR $LN21@get_random[ecx*4]
$LN8@get_random:

; 1149 : 		{
; 1150 : 			case 0:
; 1151 : 			{
; 1152 : 				mode = CO_PILOT_ANIM_MODE_LEFT_HAND_FROM_REST_TO_UPPER_SWITCH;

  0010a	c7 45 f8 04 00
	00 00		 mov	 DWORD PTR _mode$[ebp], 4

; 1153 : 
; 1154 : 				break;

  00111	eb 6b		 jmp	 SHORT $LN2@get_random
$LN9@get_random:

; 1155 : 			}
; 1156 : 			case 1:
; 1157 : 			{
; 1158 : 				mode = CO_PILOT_ANIM_MODE_LEFT_HAND_FROM_REST_TO_CALCULATOR;

  00113	c7 45 f8 05 00
	00 00		 mov	 DWORD PTR _mode$[ebp], 5

; 1159 : 
; 1160 : 				break;

  0011a	eb 62		 jmp	 SHORT $LN2@get_random
$LN10@get_random:

; 1161 : 			}
; 1162 : 			case 2:
; 1163 : 			{
; 1164 : 				mode = CO_PILOT_ANIM_MODE_LEFT_HAND_FROM_REST_TO_MASTER_ARM_SWITCH;

  0011c	c7 45 f8 06 00
	00 00		 mov	 DWORD PTR _mode$[ebp], 6

; 1165 : 
; 1166 : 				break;

  00123	eb 59		 jmp	 SHORT $LN2@get_random
$LN11@get_random:

; 1167 : 			}
; 1168 : 			case 3:
; 1169 : 			{
; 1170 : 				mode = CO_PILOT_ANIM_MODE_HEAD_LOOK_DOWN;

  00125	c7 45 f8 0f 00
	00 00		 mov	 DWORD PTR _mode$[ebp], 15 ; 0000000fH

; 1171 : 
; 1172 : 				break;

  0012c	eb 50		 jmp	 SHORT $LN2@get_random
$LN12@get_random:

; 1173 : 			}
; 1174 : 			case 4:
; 1175 : 			{
; 1176 : 				mode = CO_PILOT_ANIM_MODE_HEAD_LOOK_DOWN_LEFT;

  0012e	c7 45 f8 10 00
	00 00		 mov	 DWORD PTR _mode$[ebp], 16 ; 00000010H

; 1177 : 
; 1178 : 				break;

  00135	eb 47		 jmp	 SHORT $LN2@get_random
$LN13@get_random:

; 1179 : 			}
; 1180 : 			case 5:
; 1181 : 			{
; 1182 : 				mode = CO_PILOT_ANIM_MODE_HEAD_LOOK_DOWN_RIGHT;

  00137	c7 45 f8 11 00
	00 00		 mov	 DWORD PTR _mode$[ebp], 17 ; 00000011H

; 1183 : 
; 1184 : 				break;

  0013e	eb 3e		 jmp	 SHORT $LN2@get_random
$LN14@get_random:

; 1185 : 			}
; 1186 : 			case 6:
; 1187 : 			{
; 1188 : 				mode = CO_PILOT_ANIM_MODE_HEAD_LOOK_UP;

  00140	c7 45 f8 12 00
	00 00		 mov	 DWORD PTR _mode$[ebp], 18 ; 00000012H

; 1189 : 
; 1190 : 				break;

  00147	eb 35		 jmp	 SHORT $LN2@get_random
$LN15@get_random:

; 1191 : 			}
; 1192 : 			case 7:
; 1193 : 			{
; 1194 : 				mode = CO_PILOT_ANIM_MODE_HEAD_LOOK_UP_LEFT;

  00149	c7 45 f8 13 00
	00 00		 mov	 DWORD PTR _mode$[ebp], 19 ; 00000013H

; 1195 : 
; 1196 : 				break;

  00150	eb 2c		 jmp	 SHORT $LN2@get_random
$LN16@get_random:

; 1197 : 			}
; 1198 : 			case 8:
; 1199 : 			{
; 1200 : 				mode = CO_PILOT_ANIM_MODE_HEAD_LOOK_UP_RIGHT;

  00152	c7 45 f8 14 00
	00 00		 mov	 DWORD PTR _mode$[ebp], 20 ; 00000014H

; 1201 : 
; 1202 : 				break;

  00159	eb 23		 jmp	 SHORT $LN2@get_random
$LN17@get_random:

; 1203 : 			}
; 1204 : 			case 9:
; 1205 : 			{
; 1206 : 				mode = CO_PILOT_ANIM_MODE_HEAD_LOOK_LEFT;

  0015b	c7 45 f8 15 00
	00 00		 mov	 DWORD PTR _mode$[ebp], 21 ; 00000015H

; 1207 : 
; 1208 : 				break;

  00162	eb 1a		 jmp	 SHORT $LN2@get_random
$LN18@get_random:

; 1209 : 			}
; 1210 : 			case 10:
; 1211 : 			{
; 1212 : 				mode = CO_PILOT_ANIM_MODE_HEAD_LOOK_RIGHT;

  00164	c7 45 f8 16 00
	00 00		 mov	 DWORD PTR _mode$[ebp], 22 ; 00000016H

; 1213 : 
; 1214 : 				break;

  0016b	eb 11		 jmp	 SHORT $LN2@get_random
$LN19@get_random:

; 1215 : 			}
; 1216 : 			default:
; 1217 : 			{
; 1218 : 				debug_fatal ("Invalid animation mode = %d", n);

  0016d	8b 45 fc	 mov	 eax, DWORD PTR _n$[ebp]
  00170	50		 push	 eax
  00171	68 00 00 00 00	 push	 OFFSET ??_C@_0BM@PAHNKOC@Invalid?5animation?5mode?5?$DN?5?$CFd@
  00176	e8 00 00 00 00	 call	 ?debug_fatal@@YAXPBDZZ	; debug_fatal
  0017b	83 c4 08	 add	 esp, 8
$LN2@get_random:

; 1219 : 
; 1220 : 				break;
; 1221 : 			}
; 1222 : 		}
; 1223 : 	}
; 1224 : 
; 1225 : 	return (mode);

  0017e	8b 45 f8	 mov	 eax, DWORD PTR _mode$[ebp]

; 1226 : }

  00181	5f		 pop	 edi
  00182	5e		 pop	 esi
  00183	5b		 pop	 ebx
  00184	8b e5		 mov	 esp, ebp
  00186	5d		 pop	 ebp
  00187	c3		 ret	 0
$LN21@get_random:
  00188	00 00 00 00	 DD	 $LN8@get_random
  0018c	00 00 00 00	 DD	 $LN9@get_random
  00190	00 00 00 00	 DD	 $LN10@get_random
  00194	00 00 00 00	 DD	 $LN11@get_random
  00198	00 00 00 00	 DD	 $LN12@get_random
  0019c	00 00 00 00	 DD	 $LN13@get_random
  001a0	00 00 00 00	 DD	 $LN14@get_random
  001a4	00 00 00 00	 DD	 $LN15@get_random
  001a8	00 00 00 00	 DD	 $LN16@get_random
  001ac	00 00 00 00	 DD	 $LN17@get_random
  001b0	00 00 00 00	 DD	 $LN18@get_random
?get_random_co_pilot_datum_at_rest_anim_mode@@YG?AW4CO_PILOT_ANIM_MODES@@XZ ENDP ; get_random_co_pilot_datum_at_rest_anim_mode
_TEXT	ENDS
; Function compile flags: /Odtp /ZI
; File c:\users\nhv90\projects\eech\aphavoc\source\gunships\cockpits\hokum\hk_cpg.c
;	COMDAT ?get_reset_co_pilot_head_anim_pause@@YGMXZ
_TEXT	SEGMENT
_pause$ = -4						; size = 4
?get_reset_co_pilot_head_anim_pause@@YGMXZ PROC		; get_reset_co_pilot_head_anim_pause, COMDAT

; 1093 : {

  00000	55		 push	 ebp
  00001	8b ec		 mov	 ebp, esp
  00003	83 ec 44	 sub	 esp, 68			; 00000044H
  00006	53		 push	 ebx
  00007	56		 push	 esi
  00008	57		 push	 edi

; 1094 : 	float
; 1095 : 		pause;
; 1096 : 
; 1097 : 	//
; 1098 : 	// chance of no pause (glance)
; 1099 : 	//
; 1100 : 
; 1101 : 	if (frand1 () < 0.15)

  00009	69 05 00 00 00
	00 6d 4e c6 41	 imul	 eax, DWORD PTR ?random_number_seed@@3HA, 1103515245 ; random_number_seed
  00013	05 39 30 00 00	 add	 eax, 12345		; 00003039H
  00018	a3 00 00 00 00	 mov	 DWORD PTR ?random_number_seed@@3HA, eax ; random_number_seed
  0001d	8b 0d 00 00 00
	00		 mov	 ecx, DWORD PTR ?random_number_seed@@3HA ; random_number_seed
  00023	c1 f9 10	 sar	 ecx, 16			; 00000010H
  00026	81 e1 ff 7f 00
	00		 and	 ecx, 32767		; 00007fffH
  0002c	f2 0f 2a c1	 cvtsi2sd xmm0, ecx
  00030	f2 0f 59 05 00
	00 00 00	 mulsd	 xmm0, QWORD PTR __real@3f00002000400080
  00038	f2 0f 10 0d 00
	00 00 00	 movsd	 xmm1, QWORD PTR __real@3fc3333333333333
  00040	66 0f 2f c8	 comisd	 xmm1, xmm0
  00044	76 0a		 jbe	 SHORT $LN2@get_reset_

; 1102 : 	{
; 1103 : 		pause = 0.0;

  00046	0f 57 c0	 xorps	 xmm0, xmm0
  00049	f3 0f 11 45 fc	 movss	 DWORD PTR _pause$[ebp], xmm0

; 1104 : 	}
; 1105 : 	else

  0004e	eb 48		 jmp	 SHORT $LN3@get_reset_
$LN2@get_reset_:

; 1106 : 	{
; 1107 : 		pause = (frand1 () * 3.0) + 0.5;

  00050	69 05 00 00 00
	00 6d 4e c6 41	 imul	 eax, DWORD PTR ?random_number_seed@@3HA, 1103515245 ; random_number_seed
  0005a	05 39 30 00 00	 add	 eax, 12345		; 00003039H
  0005f	a3 00 00 00 00	 mov	 DWORD PTR ?random_number_seed@@3HA, eax ; random_number_seed
  00064	8b 0d 00 00 00
	00		 mov	 ecx, DWORD PTR ?random_number_seed@@3HA ; random_number_seed
  0006a	c1 f9 10	 sar	 ecx, 16			; 00000010H
  0006d	81 e1 ff 7f 00
	00		 and	 ecx, 32767		; 00007fffH
  00073	f2 0f 2a c1	 cvtsi2sd xmm0, ecx
  00077	f2 0f 59 05 00
	00 00 00	 mulsd	 xmm0, QWORD PTR __real@3f00002000400080
  0007f	f2 0f 59 05 00
	00 00 00	 mulsd	 xmm0, QWORD PTR __real@4008000000000000
  00087	f2 0f 58 05 00
	00 00 00	 addsd	 xmm0, QWORD PTR __real@3fe0000000000000
  0008f	f2 0f 5a c0	 cvtsd2ss xmm0, xmm0
  00093	f3 0f 11 45 fc	 movss	 DWORD PTR _pause$[ebp], xmm0
$LN3@get_reset_:

; 1108 : 	}
; 1109 : 
; 1110 : 	return (pause);

  00098	d9 45 fc	 fld	 DWORD PTR _pause$[ebp]

; 1111 : }

  0009b	5f		 pop	 edi
  0009c	5e		 pop	 esi
  0009d	5b		 pop	 ebx
  0009e	8b e5		 mov	 esp, ebp
  000a0	5d		 pop	 ebp
  000a1	c3		 ret	 0
?get_reset_co_pilot_head_anim_pause@@YGMXZ ENDP		; get_reset_co_pilot_head_anim_pause
_TEXT	ENDS
; Function compile flags: /Odtp /ZI
; File c:\users\nhv90\projects\eech\aphavoc\source\gunships\cockpits\hokum\hk_cpg.c
;	COMDAT ?get_reset_co_pilot_anim_delay@@YGMXZ
_TEXT	SEGMENT
tv86 = -68						; size = 4
?get_reset_co_pilot_anim_delay@@YGMXZ PROC		; get_reset_co_pilot_anim_delay, COMDAT

; 1079 : {

  00000	55		 push	 ebp
  00001	8b ec		 mov	 ebp, esp
  00003	83 ec 44	 sub	 esp, 68			; 00000044H
  00006	53		 push	 ebx
  00007	56		 push	 esi
  00008	57		 push	 edi

; 1080 : 	if (frand1 () < 0.2)

  00009	69 05 00 00 00
	00 6d 4e c6 41	 imul	 eax, DWORD PTR ?random_number_seed@@3HA, 1103515245 ; random_number_seed
  00013	05 39 30 00 00	 add	 eax, 12345		; 00003039H
  00018	a3 00 00 00 00	 mov	 DWORD PTR ?random_number_seed@@3HA, eax ; random_number_seed
  0001d	8b 0d 00 00 00
	00		 mov	 ecx, DWORD PTR ?random_number_seed@@3HA ; random_number_seed
  00023	c1 f9 10	 sar	 ecx, 16			; 00000010H
  00026	81 e1 ff 7f 00
	00		 and	 ecx, 32767		; 00007fffH
  0002c	f2 0f 2a c1	 cvtsi2sd xmm0, ecx
  00030	f2 0f 59 05 00
	00 00 00	 mulsd	 xmm0, QWORD PTR __real@3f00002000400080
  00038	f2 0f 10 0d 00
	00 00 00	 movsd	 xmm1, QWORD PTR __real@3fc999999999999a
  00040	66 0f 2f c8	 comisd	 xmm1, xmm0
  00044	76 04		 jbe	 SHORT $LN2@get_reset_

; 1081 : 	{
; 1082 : 		return (0.0);

  00046	d9 ee		 fldz
  00048	eb 4b		 jmp	 SHORT $LN1@get_reset_
$LN2@get_reset_:

; 1083 : 	}
; 1084 : 
; 1085 : 	return ((frand1 () * 3.0) + 2.0);

  0004a	69 05 00 00 00
	00 6d 4e c6 41	 imul	 eax, DWORD PTR ?random_number_seed@@3HA, 1103515245 ; random_number_seed
  00054	05 39 30 00 00	 add	 eax, 12345		; 00003039H
  00059	a3 00 00 00 00	 mov	 DWORD PTR ?random_number_seed@@3HA, eax ; random_number_seed
  0005e	8b 0d 00 00 00
	00		 mov	 ecx, DWORD PTR ?random_number_seed@@3HA ; random_number_seed
  00064	c1 f9 10	 sar	 ecx, 16			; 00000010H
  00067	81 e1 ff 7f 00
	00		 and	 ecx, 32767		; 00007fffH
  0006d	f2 0f 2a c1	 cvtsi2sd xmm0, ecx
  00071	f2 0f 59 05 00
	00 00 00	 mulsd	 xmm0, QWORD PTR __real@3f00002000400080
  00079	f2 0f 59 05 00
	00 00 00	 mulsd	 xmm0, QWORD PTR __real@4008000000000000
  00081	f2 0f 58 05 00
	00 00 00	 addsd	 xmm0, QWORD PTR __real@4000000000000000
  00089	f2 0f 5a c0	 cvtsd2ss xmm0, xmm0
  0008d	f3 0f 11 45 bc	 movss	 DWORD PTR tv86[ebp], xmm0
  00092	d9 45 bc	 fld	 DWORD PTR tv86[ebp]
$LN1@get_reset_:

; 1086 : }

  00095	5f		 pop	 edi
  00096	5e		 pop	 esi
  00097	5b		 pop	 ebx
  00098	8b e5		 mov	 esp, ebp
  0009a	5d		 pop	 ebp
  0009b	c3		 ret	 0
?get_reset_co_pilot_anim_delay@@YGMXZ ENDP		; get_reset_co_pilot_anim_delay
_TEXT	ENDS
; Function compile flags: /Odtp /ZI
; File c:\users\nhv90\projects\eech\aphavoc\source\gunships\cockpits\hokum\hk_cpg.c
;	COMDAT ?get_co_pilot_viewpoint_virtual_cockpit@@YGHXZ
_TEXT	SEGMENT
?get_co_pilot_viewpoint_virtual_cockpit@@YGHXZ PROC	; get_co_pilot_viewpoint_virtual_cockpit, COMDAT

; 1057 : {

  00000	55		 push	 ebp
  00001	8b ec		 mov	 ebp, esp
  00003	83 ec 40	 sub	 esp, 64			; 00000040H
  00006	53		 push	 ebx
  00007	56		 push	 esi
  00008	57		 push	 edi

; 1058 : 	if (get_crew_role () == CREW_ROLE_CO_PILOT)

  00009	e8 00 00 00 00	 call	 ?get_crew_role@@YG?AW4CREW_ROLES@@XZ ; get_crew_role
  0000e	83 f8 01	 cmp	 eax, 1
  00011	75 22		 jne	 SHORT $LN2@get_co_pil

; 1059 : 	{
; 1060 : 		if
; 1061 : 		(
; 1062 : 			(get_view_mode () == VIEW_MODE_VIRTUAL_COCKPIT) ||
; 1063 : 			(get_view_mode () == VIEW_MODE_VIRTUAL_COCKPIT_PADLOCK) ||

  00013	83 3d 00 00 00
	00 20		 cmp	 DWORD PTR ?view_mode@@3W4VIEW_MODES@@A, 32 ; view_mode, 00000020H
  0001a	74 12		 je	 SHORT $LN4@get_co_pil
  0001c	83 3d 00 00 00
	00 21		 cmp	 DWORD PTR ?view_mode@@3W4VIEW_MODES@@A, 33 ; view_mode, 00000021H
  00023	74 09		 je	 SHORT $LN4@get_co_pil
  00025	83 3d 00 00 00
	00 22		 cmp	 DWORD PTR ?view_mode@@3W4VIEW_MODES@@A, 34 ; view_mode, 00000022H
  0002c	75 07		 jne	 SHORT $LN2@get_co_pil
$LN4@get_co_pil:

; 1064 : 			(get_view_mode () == VIEW_MODE_VIRTUAL_COCKPIT_TRACK_TARGET)
; 1065 : 		)
; 1066 : 		{
; 1067 : 			return (TRUE);

  0002e	b8 01 00 00 00	 mov	 eax, 1
  00033	eb 02		 jmp	 SHORT $LN1@get_co_pil
$LN2@get_co_pil:

; 1068 : 		}
; 1069 : 	}
; 1070 : 
; 1071 : 	return (FALSE);

  00035	33 c0		 xor	 eax, eax
$LN1@get_co_pil:

; 1072 : }

  00037	5f		 pop	 edi
  00038	5e		 pop	 esi
  00039	5b		 pop	 ebx
  0003a	8b e5		 mov	 esp, ebp
  0003c	5d		 pop	 ebp
  0003d	c3		 ret	 0
?get_co_pilot_viewpoint_virtual_cockpit@@YGHXZ ENDP	; get_co_pilot_viewpoint_virtual_cockpit
_TEXT	ENDS
; Function compile flags: /Odtp /ZI
; File c:\users\nhv90\projects\eech\aphavoc\source\gunships\cockpits\hokum\hk_cpg.c
;	COMDAT ?set_co_pilot_animation@@YGXPAUCO_PILOT_ANIM_DATA@@M@Z
_TEXT	SEGMENT
tv216 = -80						; size = 4
tv194 = -80						; size = 4
tv84 = -80						; size = 4
tv217 = -76						; size = 4
tv195 = -76						; size = 4
tv85 = -76						; size = 4
_n$ = -8						; size = 4
_anim_frame$ = -4					; size = 4
_anim$ = 8						; size = 4
_frame$ = 12						; size = 4
?set_co_pilot_animation@@YGXPAUCO_PILOT_ANIM_DATA@@M@Z PROC ; set_co_pilot_animation, COMDAT

; 880  : {

  00000	55		 push	 ebp
  00001	8b ec		 mov	 ebp, esp
  00003	83 ec 50	 sub	 esp, 80			; 00000050H
  00006	53		 push	 ebx
  00007	56		 push	 esi
  00008	57		 push	 edi

; 881  : 	float
; 882  : 		anim_frame,
; 883  : 		n;
; 884  : 
; 885  : 	ASSERT (anim);

  00009	83 7d 08 00	 cmp	 DWORD PTR _anim$[ebp], 0
  0000d	75 18		 jne	 SHORT $LN2@set_co_pil
  0000f	a1 00 00 00 00	 mov	 eax, DWORD PTR ?__LINE__Var@?0??set_co_pilot_animation@@YGXPAUCO_PILOT_ANIM_DATA@@M@Z@4JA
  00014	83 c0 05	 add	 eax, 5
  00017	50		 push	 eax
  00018	68 00 00 00 00	 push	 OFFSET ??_C@_0EN@HGKDONEK@c?3?2users?2nhv90?2projects?2eech?2ap@
  0001d	68 00 00 00 00	 push	 OFFSET ??_C@_04NBCDDDGK@anim@
  00022	e8 00 00 00 00	 call	 ?process_assert@@YGXPBD0H@Z ; process_assert
$LN2@set_co_pil:

; 886  : 
; 887  : 	set_co_pilot_static_right_hand_on_cyclic_visibility (FALSE);

  00027	6a 00		 push	 0
  00029	e8 00 00 00 00	 call	 ?set_co_pilot_static_right_hand_on_cyclic_visibility@@YGXH@Z ; set_co_pilot_static_right_hand_on_cyclic_visibility

; 888  : 
; 889  : 	set_co_pilot_collective_position (0.5);

  0002e	51		 push	 ecx
  0002f	f3 0f 10 05 00
	00 00 00	 movss	 xmm0, DWORD PTR __real@3f000000
  00037	f3 0f 11 04 24	 movss	 DWORD PTR [esp], xmm0
  0003c	e8 00 00 00 00	 call	 ?set_co_pilot_collective_position@@YGXM@Z ; set_co_pilot_collective_position

; 890  : 
; 891  : 	set_co_pilot_pedal_position (0.5);

  00041	51		 push	 ecx
  00042	f3 0f 10 05 00
	00 00 00	 movss	 xmm0, DWORD PTR __real@3f000000
  0004a	f3 0f 11 04 24	 movss	 DWORD PTR [esp], xmm0
  0004f	e8 00 00 00 00	 call	 ?set_co_pilot_pedal_position@@YGXM@Z ; set_co_pilot_pedal_position

; 892  : 
; 893  : 	////////////////////////////////////////
; 894  : 
; 895  : 	anim_frame = ((anim->end_frame - anim->start_frame) * frame) + anim->start_frame;

  00054	8b 45 08	 mov	 eax, DWORD PTR _anim$[ebp]
  00057	8b 4d 08	 mov	 ecx, DWORD PTR _anim$[ebp]
  0005a	f3 0f 10 40 04	 movss	 xmm0, DWORD PTR [eax+4]
  0005f	f3 0f 5c 01	 subss	 xmm0, DWORD PTR [ecx]
  00063	f3 0f 59 45 0c	 mulss	 xmm0, DWORD PTR _frame$[ebp]
  00068	8b 55 08	 mov	 edx, DWORD PTR _anim$[ebp]
  0006b	f3 0f 58 02	 addss	 xmm0, DWORD PTR [edx]
  0006f	f3 0f 11 45 fc	 movss	 DWORD PTR _anim_frame$[ebp], xmm0

; 896  : 
; 897  : 	anim_frame = bound (anim_frame, anim->start_frame, anim->end_frame);

  00074	8b 45 08	 mov	 eax, DWORD PTR _anim$[ebp]
  00077	f3 0f 10 00	 movss	 xmm0, DWORD PTR [eax]
  0007b	0f 2f 45 fc	 comiss	 xmm0, DWORD PTR _anim_frame$[ebp]
  0007f	76 0e		 jbe	 SHORT $LN32@set_co_pil
  00081	8b 4d 08	 mov	 ecx, DWORD PTR _anim$[ebp]
  00084	f3 0f 10 01	 movss	 xmm0, DWORD PTR [ecx]
  00088	f3 0f 11 45 b4	 movss	 DWORD PTR tv85[ebp], xmm0
  0008d	eb 31		 jmp	 SHORT $LN33@set_co_pil
$LN32@set_co_pil:
  0008f	8b 55 08	 mov	 edx, DWORD PTR _anim$[ebp]
  00092	f3 0f 10 45 fc	 movss	 xmm0, DWORD PTR _anim_frame$[ebp]
  00097	0f 2f 42 04	 comiss	 xmm0, DWORD PTR [edx+4]
  0009b	76 0f		 jbe	 SHORT $LN30@set_co_pil
  0009d	8b 45 08	 mov	 eax, DWORD PTR _anim$[ebp]
  000a0	f3 0f 10 40 04	 movss	 xmm0, DWORD PTR [eax+4]
  000a5	f3 0f 11 45 b0	 movss	 DWORD PTR tv84[ebp], xmm0
  000aa	eb 0a		 jmp	 SHORT $LN31@set_co_pil
$LN30@set_co_pil:
  000ac	f3 0f 10 45 fc	 movss	 xmm0, DWORD PTR _anim_frame$[ebp]
  000b1	f3 0f 11 45 b0	 movss	 DWORD PTR tv84[ebp], xmm0
$LN31@set_co_pil:
  000b6	f3 0f 10 45 b0	 movss	 xmm0, DWORD PTR tv84[ebp]
  000bb	f3 0f 11 45 b4	 movss	 DWORD PTR tv85[ebp], xmm0
$LN33@set_co_pil:
  000c0	f3 0f 10 45 b4	 movss	 xmm0, DWORD PTR tv85[ebp]
  000c5	f3 0f 11 45 fc	 movss	 DWORD PTR _anim_frame$[ebp], xmm0

; 898  : 
; 899  : 	////////////////////////////////////////
; 900  : 
; 901  : 	if (anim->animate_head)

  000ca	8b 45 08	 mov	 eax, DWORD PTR _anim$[ebp]
  000cd	8b 48 08	 mov	 ecx, DWORD PTR [eax+8]
  000d0	c1 e9 02	 shr	 ecx, 2
  000d3	83 e1 01	 and	 ecx, 1
  000d6	74 0f		 je	 SHORT $LN3@set_co_pil

; 902  : 	{
; 903  : 		co_pilot_head_anim_frame = anim_frame;

  000d8	f3 0f 10 45 fc	 movss	 xmm0, DWORD PTR _anim_frame$[ebp]
  000dd	f3 0f 11 05 00
	00 00 00	 movss	 DWORD PTR ?co_pilot_head_anim_frame@@3MA, xmm0

; 904  : 	}
; 905  : 	else

  000e5	eb 10		 jmp	 SHORT $LN4@set_co_pil
$LN3@set_co_pil:

; 906  : 	{
; 907  : 		co_pilot_head_anim_frame = NO_CO_PILOT_HEAD_ANIMATION;

  000e7	f3 0f 10 05 00
	00 00 00	 movss	 xmm0, DWORD PTR __real@bf800000
  000ef	f3 0f 11 05 00
	00 00 00	 movss	 DWORD PTR ?co_pilot_head_anim_frame@@3MA, xmm0
$LN4@set_co_pil:

; 908  : 	}
; 909  : 
; 910  : 	////////////////////////////////////////
; 911  : 
; 912  : 	if (anim->animate_chest)

  000f7	8b 45 08	 mov	 eax, DWORD PTR _anim$[ebp]
  000fa	8b 48 08	 mov	 ecx, DWORD PTR [eax+8]
  000fd	c1 e9 03	 shr	 ecx, 3
  00100	83 e1 01	 and	 ecx, 1
  00103	74 0c		 je	 SHORT $LN5@set_co_pil

; 913  : 	{
; 914  : 		n = anim_frame;

  00105	f3 0f 10 45 fc	 movss	 xmm0, DWORD PTR _anim_frame$[ebp]
  0010a	f3 0f 11 45 f8	 movss	 DWORD PTR _n$[ebp], xmm0
  0010f	eb 27		 jmp	 SHORT $LN8@set_co_pil
$LN5@set_co_pil:

; 915  : 	}
; 916  : 	else if (anim->datum_at_rest)

  00111	8b 45 08	 mov	 eax, DWORD PTR _anim$[ebp]
  00114	8b 48 08	 mov	 ecx, DWORD PTR [eax+8]
  00117	83 e1 01	 and	 ecx, 1
  0011a	74 0f		 je	 SHORT $LN7@set_co_pil

; 917  : 	{
; 918  : 		n = CO_PILOT_DATUM_AT_REST;

  0011c	f3 0f 10 05 00
	00 00 00	 movss	 xmm0, DWORD PTR __real@3d75c28f
  00124	f3 0f 11 45 f8	 movss	 DWORD PTR _n$[ebp], xmm0

; 919  : 	}
; 920  : 	else

  00129	eb 0d		 jmp	 SHORT $LN8@set_co_pil
$LN7@set_co_pil:

; 921  : 	{
; 922  : 		n = CO_PILOT_DATUM_AT_SCOPE;

  0012b	f3 0f 10 05 00
	00 00 00	 movss	 xmm0, DWORD PTR __real@3f051eb8
  00133	f3 0f 11 45 f8	 movss	 DWORD PTR _n$[ebp], xmm0
$LN8@set_co_pil:

; 923  : 	}
; 924  : 
; 925  : 	animate_entity_simple_keyframed_sub_objects (virtual_cockpit_inst3d, OBJECT_3D_SUB_OBJECT_WSO_CHEST, n);

  00138	51		 push	 ecx
  00139	f3 0f 10 45 f8	 movss	 xmm0, DWORD PTR _n$[ebp]
  0013e	f3 0f 11 04 24	 movss	 DWORD PTR [esp], xmm0
  00143	68 a1 00 00 00	 push	 161			; 000000a1H
  00148	a1 00 00 00 00	 mov	 eax, DWORD PTR ?virtual_cockpit_inst3d@@3PAUOBJECT_3D_INSTANCE@@A ; virtual_cockpit_inst3d
  0014d	50		 push	 eax
  0014e	e8 00 00 00 00	 call	 ?animate_entity_simple_keyframed_sub_objects@@YGXPAUOBJECT_3D_INSTANCE@@HM@Z ; animate_entity_simple_keyframed_sub_objects

; 926  : 
; 927  : 	////////////////////////////////////////
; 928  : 
; 929  : 	if (anim->animate_left_arm)

  00153	8b 45 08	 mov	 eax, DWORD PTR _anim$[ebp]
  00156	8b 48 08	 mov	 ecx, DWORD PTR [eax+8]
  00159	c1 e9 04	 shr	 ecx, 4
  0015c	83 e1 01	 and	 ecx, 1
  0015f	74 0c		 je	 SHORT $LN9@set_co_pil

; 930  : 	{
; 931  : 		n = anim_frame;

  00161	f3 0f 10 45 fc	 movss	 xmm0, DWORD PTR _anim_frame$[ebp]
  00166	f3 0f 11 45 f8	 movss	 DWORD PTR _n$[ebp], xmm0
  0016b	eb 27		 jmp	 SHORT $LN12@set_co_pil
$LN9@set_co_pil:

; 932  : 	}
; 933  : 	else if (anim->datum_at_rest)

  0016d	8b 45 08	 mov	 eax, DWORD PTR _anim$[ebp]
  00170	8b 48 08	 mov	 ecx, DWORD PTR [eax+8]
  00173	83 e1 01	 and	 ecx, 1
  00176	74 0f		 je	 SHORT $LN11@set_co_pil

; 934  : 	{
; 935  : 		n = CO_PILOT_DATUM_AT_REST;

  00178	f3 0f 10 05 00
	00 00 00	 movss	 xmm0, DWORD PTR __real@3d75c28f
  00180	f3 0f 11 45 f8	 movss	 DWORD PTR _n$[ebp], xmm0

; 936  : 	}
; 937  : 	else

  00185	eb 0d		 jmp	 SHORT $LN12@set_co_pil
$LN11@set_co_pil:

; 938  : 	{
; 939  : 		n = CO_PILOT_DATUM_AT_SCOPE;

  00187	f3 0f 10 05 00
	00 00 00	 movss	 xmm0, DWORD PTR __real@3f051eb8
  0018f	f3 0f 11 45 f8	 movss	 DWORD PTR _n$[ebp], xmm0
$LN12@set_co_pil:

; 940  : 	}
; 941  : 
; 942  : 	animate_entity_simple_keyframed_sub_objects (virtual_cockpit_inst3d, OBJECT_3D_SUB_OBJECT_WSO_L_SHOULDER, n);

  00194	51		 push	 ecx
  00195	f3 0f 10 45 f8	 movss	 xmm0, DWORD PTR _n$[ebp]
  0019a	f3 0f 11 04 24	 movss	 DWORD PTR [esp], xmm0
  0019f	68 a3 00 00 00	 push	 163			; 000000a3H
  001a4	a1 00 00 00 00	 mov	 eax, DWORD PTR ?virtual_cockpit_inst3d@@3PAUOBJECT_3D_INSTANCE@@A ; virtual_cockpit_inst3d
  001a9	50		 push	 eax
  001aa	e8 00 00 00 00	 call	 ?animate_entity_simple_keyframed_sub_objects@@YGXPAUOBJECT_3D_INSTANCE@@HM@Z ; animate_entity_simple_keyframed_sub_objects

; 943  : 
; 944  : 	animate_entity_simple_keyframed_sub_objects (virtual_cockpit_inst3d, OBJECT_3D_SUB_OBJECT_WSO_L_FOREARM, n);

  001af	51		 push	 ecx
  001b0	f3 0f 10 45 f8	 movss	 xmm0, DWORD PTR _n$[ebp]
  001b5	f3 0f 11 04 24	 movss	 DWORD PTR [esp], xmm0
  001ba	68 a5 00 00 00	 push	 165			; 000000a5H
  001bf	a1 00 00 00 00	 mov	 eax, DWORD PTR ?virtual_cockpit_inst3d@@3PAUOBJECT_3D_INSTANCE@@A ; virtual_cockpit_inst3d
  001c4	50		 push	 eax
  001c5	e8 00 00 00 00	 call	 ?animate_entity_simple_keyframed_sub_objects@@YGXPAUOBJECT_3D_INSTANCE@@HM@Z ; animate_entity_simple_keyframed_sub_objects

; 945  : 
; 946  : 	animate_entity_simple_keyframed_sub_objects (virtual_cockpit_inst3d, OBJECT_3D_SUB_OBJECT_WSO_L_HAND, n);

  001ca	51		 push	 ecx
  001cb	f3 0f 10 45 f8	 movss	 xmm0, DWORD PTR _n$[ebp]
  001d0	f3 0f 11 04 24	 movss	 DWORD PTR [esp], xmm0
  001d5	68 a6 00 00 00	 push	 166			; 000000a6H
  001da	a1 00 00 00 00	 mov	 eax, DWORD PTR ?virtual_cockpit_inst3d@@3PAUOBJECT_3D_INSTANCE@@A ; virtual_cockpit_inst3d
  001df	50		 push	 eax
  001e0	e8 00 00 00 00	 call	 ?animate_entity_simple_keyframed_sub_objects@@YGXPAUOBJECT_3D_INSTANCE@@HM@Z ; animate_entity_simple_keyframed_sub_objects

; 947  : 
; 948  : 	animate_entity_simple_keyframed_sub_objects (virtual_cockpit_inst3d, OBJECT_3D_SUB_OBJECT_WSO_L_FINGER, n);

  001e5	51		 push	 ecx
  001e6	f3 0f 10 45 f8	 movss	 xmm0, DWORD PTR _n$[ebp]
  001eb	f3 0f 11 04 24	 movss	 DWORD PTR [esp], xmm0
  001f0	68 a7 00 00 00	 push	 167			; 000000a7H
  001f5	a1 00 00 00 00	 mov	 eax, DWORD PTR ?virtual_cockpit_inst3d@@3PAUOBJECT_3D_INSTANCE@@A ; virtual_cockpit_inst3d
  001fa	50		 push	 eax
  001fb	e8 00 00 00 00	 call	 ?animate_entity_simple_keyframed_sub_objects@@YGXPAUOBJECT_3D_INSTANCE@@HM@Z ; animate_entity_simple_keyframed_sub_objects

; 949  : 
; 950  : 	animate_entity_simple_keyframed_sub_objects (virtual_cockpit_inst3d, OBJECT_3D_SUB_OBJECT_WSO_L_THUMB, n);

  00200	51		 push	 ecx
  00201	f3 0f 10 45 f8	 movss	 xmm0, DWORD PTR _n$[ebp]
  00206	f3 0f 11 04 24	 movss	 DWORD PTR [esp], xmm0
  0020b	68 a8 00 00 00	 push	 168			; 000000a8H
  00210	a1 00 00 00 00	 mov	 eax, DWORD PTR ?virtual_cockpit_inst3d@@3PAUOBJECT_3D_INSTANCE@@A ; virtual_cockpit_inst3d
  00215	50		 push	 eax
  00216	e8 00 00 00 00	 call	 ?animate_entity_simple_keyframed_sub_objects@@YGXPAUOBJECT_3D_INSTANCE@@HM@Z ; animate_entity_simple_keyframed_sub_objects

; 951  : 
; 952  : 	////////////////////////////////////////
; 953  : 
; 954  : 	if (anim->animate_right_arm)

  0021b	8b 45 08	 mov	 eax, DWORD PTR _anim$[ebp]
  0021e	8b 48 08	 mov	 ecx, DWORD PTR [eax+8]
  00221	c1 e9 05	 shr	 ecx, 5
  00224	83 e1 01	 and	 ecx, 1
  00227	74 0c		 je	 SHORT $LN13@set_co_pil

; 955  : 	{
; 956  : 		n = anim_frame;

  00229	f3 0f 10 45 fc	 movss	 xmm0, DWORD PTR _anim_frame$[ebp]
  0022e	f3 0f 11 45 f8	 movss	 DWORD PTR _n$[ebp], xmm0
  00233	eb 27		 jmp	 SHORT $LN16@set_co_pil
$LN13@set_co_pil:

; 957  : 	}
; 958  : 	else if (anim->datum_at_rest)

  00235	8b 45 08	 mov	 eax, DWORD PTR _anim$[ebp]
  00238	8b 48 08	 mov	 ecx, DWORD PTR [eax+8]
  0023b	83 e1 01	 and	 ecx, 1
  0023e	74 0f		 je	 SHORT $LN15@set_co_pil

; 959  : 	{
; 960  : 		n = CO_PILOT_DATUM_AT_REST;

  00240	f3 0f 10 05 00
	00 00 00	 movss	 xmm0, DWORD PTR __real@3d75c28f
  00248	f3 0f 11 45 f8	 movss	 DWORD PTR _n$[ebp], xmm0

; 961  : 	}
; 962  : 	else

  0024d	eb 0d		 jmp	 SHORT $LN16@set_co_pil
$LN15@set_co_pil:

; 963  : 	{
; 964  : 		n = CO_PILOT_DATUM_AT_SCOPE;

  0024f	f3 0f 10 05 00
	00 00 00	 movss	 xmm0, DWORD PTR __real@3f051eb8
  00257	f3 0f 11 45 f8	 movss	 DWORD PTR _n$[ebp], xmm0
$LN16@set_co_pil:

; 965  : 	}
; 966  : 
; 967  : 	animate_entity_simple_keyframed_sub_objects (virtual_cockpit_inst3d, OBJECT_3D_SUB_OBJECT_WSO_R_SHOULDER, n);

  0025c	51		 push	 ecx
  0025d	f3 0f 10 45 f8	 movss	 xmm0, DWORD PTR _n$[ebp]
  00262	f3 0f 11 04 24	 movss	 DWORD PTR [esp], xmm0
  00267	68 a4 00 00 00	 push	 164			; 000000a4H
  0026c	a1 00 00 00 00	 mov	 eax, DWORD PTR ?virtual_cockpit_inst3d@@3PAUOBJECT_3D_INSTANCE@@A ; virtual_cockpit_inst3d
  00271	50		 push	 eax
  00272	e8 00 00 00 00	 call	 ?animate_entity_simple_keyframed_sub_objects@@YGXPAUOBJECT_3D_INSTANCE@@HM@Z ; animate_entity_simple_keyframed_sub_objects

; 968  : 
; 969  : 	animate_entity_simple_keyframed_sub_objects (virtual_cockpit_inst3d, OBJECT_3D_SUB_OBJECT_WSO_R_FOREARM, n);

  00277	51		 push	 ecx
  00278	f3 0f 10 45 f8	 movss	 xmm0, DWORD PTR _n$[ebp]
  0027d	f3 0f 11 04 24	 movss	 DWORD PTR [esp], xmm0
  00282	68 a9 00 00 00	 push	 169			; 000000a9H
  00287	a1 00 00 00 00	 mov	 eax, DWORD PTR ?virtual_cockpit_inst3d@@3PAUOBJECT_3D_INSTANCE@@A ; virtual_cockpit_inst3d
  0028c	50		 push	 eax
  0028d	e8 00 00 00 00	 call	 ?animate_entity_simple_keyframed_sub_objects@@YGXPAUOBJECT_3D_INSTANCE@@HM@Z ; animate_entity_simple_keyframed_sub_objects

; 970  : 
; 971  : 	animate_entity_simple_keyframed_sub_objects (virtual_cockpit_inst3d, OBJECT_3D_SUB_OBJECT_WSO_R_HAND, n);

  00292	51		 push	 ecx
  00293	f3 0f 10 45 f8	 movss	 xmm0, DWORD PTR _n$[ebp]
  00298	f3 0f 11 04 24	 movss	 DWORD PTR [esp], xmm0
  0029d	68 aa 00 00 00	 push	 170			; 000000aaH
  002a2	a1 00 00 00 00	 mov	 eax, DWORD PTR ?virtual_cockpit_inst3d@@3PAUOBJECT_3D_INSTANCE@@A ; virtual_cockpit_inst3d
  002a7	50		 push	 eax
  002a8	e8 00 00 00 00	 call	 ?animate_entity_simple_keyframed_sub_objects@@YGXPAUOBJECT_3D_INSTANCE@@HM@Z ; animate_entity_simple_keyframed_sub_objects

; 972  : 
; 973  : 	animate_entity_simple_keyframed_sub_objects (virtual_cockpit_inst3d, OBJECT_3D_SUB_OBJECT_WSO_R_FINGER, n);

  002ad	51		 push	 ecx
  002ae	f3 0f 10 45 f8	 movss	 xmm0, DWORD PTR _n$[ebp]
  002b3	f3 0f 11 04 24	 movss	 DWORD PTR [esp], xmm0
  002b8	68 ab 00 00 00	 push	 171			; 000000abH
  002bd	a1 00 00 00 00	 mov	 eax, DWORD PTR ?virtual_cockpit_inst3d@@3PAUOBJECT_3D_INSTANCE@@A ; virtual_cockpit_inst3d
  002c2	50		 push	 eax
  002c3	e8 00 00 00 00	 call	 ?animate_entity_simple_keyframed_sub_objects@@YGXPAUOBJECT_3D_INSTANCE@@HM@Z ; animate_entity_simple_keyframed_sub_objects

; 974  : 
; 975  : 	animate_entity_simple_keyframed_sub_objects (virtual_cockpit_inst3d, OBJECT_3D_SUB_OBJECT_WSO_R_THUMB, n);

  002c8	51		 push	 ecx
  002c9	f3 0f 10 45 f8	 movss	 xmm0, DWORD PTR _n$[ebp]
  002ce	f3 0f 11 04 24	 movss	 DWORD PTR [esp], xmm0
  002d3	68 ac 00 00 00	 push	 172			; 000000acH
  002d8	a1 00 00 00 00	 mov	 eax, DWORD PTR ?virtual_cockpit_inst3d@@3PAUOBJECT_3D_INSTANCE@@A ; virtual_cockpit_inst3d
  002dd	50		 push	 eax
  002de	e8 00 00 00 00	 call	 ?animate_entity_simple_keyframed_sub_objects@@YGXPAUOBJECT_3D_INSTANCE@@HM@Z ; animate_entity_simple_keyframed_sub_objects

; 976  : 
; 977  : 	////////////////////////////////////////
; 978  : 
; 979  : 	if (anim->animate_legs)

  002e3	8b 45 08	 mov	 eax, DWORD PTR _anim$[ebp]
  002e6	8b 48 08	 mov	 ecx, DWORD PTR [eax+8]
  002e9	c1 e9 06	 shr	 ecx, 6
  002ec	83 e1 01	 and	 ecx, 1
  002ef	74 0c		 je	 SHORT $LN17@set_co_pil

; 980  : 	{
; 981  : 		n = anim_frame;

  002f1	f3 0f 10 45 fc	 movss	 xmm0, DWORD PTR _anim_frame$[ebp]
  002f6	f3 0f 11 45 f8	 movss	 DWORD PTR _n$[ebp], xmm0
  002fb	eb 27		 jmp	 SHORT $LN20@set_co_pil
$LN17@set_co_pil:

; 982  : 	}
; 983  : 	else if (anim->datum_at_rest)

  002fd	8b 45 08	 mov	 eax, DWORD PTR _anim$[ebp]
  00300	8b 48 08	 mov	 ecx, DWORD PTR [eax+8]
  00303	83 e1 01	 and	 ecx, 1
  00306	74 0f		 je	 SHORT $LN19@set_co_pil

; 984  : 	{
; 985  : 		n = CO_PILOT_DATUM_AT_REST;

  00308	f3 0f 10 05 00
	00 00 00	 movss	 xmm0, DWORD PTR __real@3d75c28f
  00310	f3 0f 11 45 f8	 movss	 DWORD PTR _n$[ebp], xmm0

; 986  : 	}
; 987  : 	else

  00315	eb 0d		 jmp	 SHORT $LN20@set_co_pil
$LN19@set_co_pil:

; 988  : 	{
; 989  : 		n = CO_PILOT_DATUM_AT_SCOPE;

  00317	f3 0f 10 05 00
	00 00 00	 movss	 xmm0, DWORD PTR __real@3f051eb8
  0031f	f3 0f 11 45 f8	 movss	 DWORD PTR _n$[ebp], xmm0
$LN20@set_co_pil:

; 990  : 	}
; 991  : 
; 992  : 	animate_entity_simple_keyframed_sub_objects (virtual_cockpit_inst3d, OBJECT_3D_SUB_OBJECT_WSO_LEG, n);

  00324	51		 push	 ecx
  00325	f3 0f 10 45 f8	 movss	 xmm0, DWORD PTR _n$[ebp]
  0032a	f3 0f 11 04 24	 movss	 DWORD PTR [esp], xmm0
  0032f	68 b1 00 00 00	 push	 177			; 000000b1H
  00334	a1 00 00 00 00	 mov	 eax, DWORD PTR ?virtual_cockpit_inst3d@@3PAUOBJECT_3D_INSTANCE@@A ; virtual_cockpit_inst3d
  00339	50		 push	 eax
  0033a	e8 00 00 00 00	 call	 ?animate_entity_simple_keyframed_sub_objects@@YGXPAUOBJECT_3D_INSTANCE@@HM@Z ; animate_entity_simple_keyframed_sub_objects

; 993  : 
; 994  : 	////////////////////////////////////////
; 995  : 
; 996  : 	if (anim->animate_eject_handle)

  0033f	8b 45 08	 mov	 eax, DWORD PTR _anim$[ebp]
  00342	8b 48 08	 mov	 ecx, DWORD PTR [eax+8]
  00345	c1 e9 07	 shr	 ecx, 7
  00348	83 e1 01	 and	 ecx, 1
  0034b	74 74		 je	 SHORT $LN21@set_co_pil

; 997  : 	{
; 998  : 		//
; 999  : 		// hardwired for eject handle ...
; 1000 : 		//
; 1001 : 
; 1002 : 		#define EJECT_HANDLE_START_FRAME ((float) (660.0 / 1500.0))
; 1003 : 		#define EJECT_HANDLE_END_FRAME ((float) (750.0 / 1500.0))
; 1004 : 
; 1005 : 		n = ((EJECT_HANDLE_END_FRAME - EJECT_HANDLE_START_FRAME) * frame) + EJECT_HANDLE_START_FRAME;

  0034d	f3 0f 10 05 00
	00 00 00	 movss	 xmm0, DWORD PTR __real@3d75c290
  00355	f3 0f 59 45 0c	 mulss	 xmm0, DWORD PTR _frame$[ebp]
  0035a	f3 0f 58 05 00
	00 00 00	 addss	 xmm0, DWORD PTR __real@3ee147ae
  00362	f3 0f 11 45 f8	 movss	 DWORD PTR _n$[ebp], xmm0

; 1006 : 
; 1007 : 		n = bound (n, EJECT_HANDLE_START_FRAME, EJECT_HANDLE_END_FRAME);

  00367	f3 0f 10 05 00
	00 00 00	 movss	 xmm0, DWORD PTR __real@3ee147ae
  0036f	0f 2f 45 f8	 comiss	 xmm0, DWORD PTR _n$[ebp]
  00373	76 0f		 jbe	 SHORT $LN36@set_co_pil
  00375	f3 0f 10 05 00
	00 00 00	 movss	 xmm0, DWORD PTR __real@3ee147ae
  0037d	f3 0f 11 45 b4	 movss	 DWORD PTR tv195[ebp], xmm0
  00382	eb 31		 jmp	 SHORT $LN37@set_co_pil
$LN36@set_co_pil:
  00384	f3 0f 10 45 f8	 movss	 xmm0, DWORD PTR _n$[ebp]
  00389	0f 2f 05 00 00
	00 00		 comiss	 xmm0, DWORD PTR __real@3f000000
  00390	76 0f		 jbe	 SHORT $LN34@set_co_pil
  00392	f3 0f 10 05 00
	00 00 00	 movss	 xmm0, DWORD PTR __real@3f000000
  0039a	f3 0f 11 45 b0	 movss	 DWORD PTR tv194[ebp], xmm0
  0039f	eb 0a		 jmp	 SHORT $LN35@set_co_pil
$LN34@set_co_pil:
  003a1	f3 0f 10 45 f8	 movss	 xmm0, DWORD PTR _n$[ebp]
  003a6	f3 0f 11 45 b0	 movss	 DWORD PTR tv194[ebp], xmm0
$LN35@set_co_pil:
  003ab	f3 0f 10 45 b0	 movss	 xmm0, DWORD PTR tv194[ebp]
  003b0	f3 0f 11 45 b4	 movss	 DWORD PTR tv195[ebp], xmm0
$LN37@set_co_pil:
  003b5	f3 0f 10 45 b4	 movss	 xmm0, DWORD PTR tv195[ebp]
  003ba	f3 0f 11 45 f8	 movss	 DWORD PTR _n$[ebp], xmm0
  003bf	eb 27		 jmp	 SHORT $LN24@set_co_pil
$LN21@set_co_pil:

; 1008 : 	}
; 1009 : 	else if (anim->datum_at_rest)

  003c1	8b 45 08	 mov	 eax, DWORD PTR _anim$[ebp]
  003c4	8b 48 08	 mov	 ecx, DWORD PTR [eax+8]
  003c7	83 e1 01	 and	 ecx, 1
  003ca	74 0f		 je	 SHORT $LN23@set_co_pil

; 1010 : 	{
; 1011 : 		n = CO_PILOT_DATUM_AT_REST;

  003cc	f3 0f 10 05 00
	00 00 00	 movss	 xmm0, DWORD PTR __real@3d75c28f
  003d4	f3 0f 11 45 f8	 movss	 DWORD PTR _n$[ebp], xmm0

; 1012 : 	}
; 1013 : 	else

  003d9	eb 0d		 jmp	 SHORT $LN24@set_co_pil
$LN23@set_co_pil:

; 1014 : 	{
; 1015 : 		n = CO_PILOT_DATUM_AT_SCOPE;

  003db	f3 0f 10 05 00
	00 00 00	 movss	 xmm0, DWORD PTR __real@3f051eb8
  003e3	f3 0f 11 45 f8	 movss	 DWORD PTR _n$[ebp], xmm0
$LN24@set_co_pil:

; 1016 : 	}
; 1017 : 
; 1018 : 	animate_entity_simple_keyframed_sub_objects (virtual_cockpit_inst3d, OBJECT_3D_SUB_OBJECT_COCKPIT_WSO_EJECT_HANDLE, n);

  003e8	51		 push	 ecx
  003e9	f3 0f 10 45 f8	 movss	 xmm0, DWORD PTR _n$[ebp]
  003ee	f3 0f 11 04 24	 movss	 DWORD PTR [esp], xmm0
  003f3	68 e1 00 00 00	 push	 225			; 000000e1H
  003f8	a1 00 00 00 00	 mov	 eax, DWORD PTR ?virtual_cockpit_inst3d@@3PAUOBJECT_3D_INSTANCE@@A ; virtual_cockpit_inst3d
  003fd	50		 push	 eax
  003fe	e8 00 00 00 00	 call	 ?animate_entity_simple_keyframed_sub_objects@@YGXPAUOBJECT_3D_INSTANCE@@HM@Z ; animate_entity_simple_keyframed_sub_objects

; 1019 : 
; 1020 : 	////////////////////////////////////////
; 1021 : 
; 1022 : 	if (anim->animate_master_arm_switch)

  00403	8b 45 08	 mov	 eax, DWORD PTR _anim$[ebp]
  00406	8b 48 08	 mov	 ecx, DWORD PTR [eax+8]
  00409	c1 e9 08	 shr	 ecx, 8
  0040c	83 e1 01	 and	 ecx, 1
  0040f	74 0c		 je	 SHORT $LN25@set_co_pil

; 1023 : 	{
; 1024 : 		n = anim_frame;

  00411	f3 0f 10 45 fc	 movss	 xmm0, DWORD PTR _anim_frame$[ebp]
  00416	f3 0f 11 45 f8	 movss	 DWORD PTR _n$[ebp], xmm0
  0041b	eb 27		 jmp	 SHORT $LN28@set_co_pil
$LN25@set_co_pil:

; 1025 : 	}
; 1026 : 	else if (anim->datum_at_rest)

  0041d	8b 45 08	 mov	 eax, DWORD PTR _anim$[ebp]
  00420	8b 48 08	 mov	 ecx, DWORD PTR [eax+8]
  00423	83 e1 01	 and	 ecx, 1
  00426	74 0f		 je	 SHORT $LN27@set_co_pil

; 1027 : 	{
; 1028 : 		n = CO_PILOT_DATUM_AT_REST;

  00428	f3 0f 10 05 00
	00 00 00	 movss	 xmm0, DWORD PTR __real@3d75c28f
  00430	f3 0f 11 45 f8	 movss	 DWORD PTR _n$[ebp], xmm0

; 1029 : 	}
; 1030 : 	else

  00435	eb 0d		 jmp	 SHORT $LN28@set_co_pil
$LN27@set_co_pil:

; 1031 : 	{
; 1032 : 		n = CO_PILOT_DATUM_AT_SCOPE;

  00437	f3 0f 10 05 00
	00 00 00	 movss	 xmm0, DWORD PTR __real@3f051eb8
  0043f	f3 0f 11 45 f8	 movss	 DWORD PTR _n$[ebp], xmm0
$LN28@set_co_pil:

; 1033 : 	}
; 1034 : 
; 1035 : 	animate_entity_simple_keyframed_sub_objects (virtual_cockpit_inst3d, OBJECT_3D_SUB_OBJECT_COCKPIT_MASTER_ARM_SWITCH, n);

  00444	51		 push	 ecx
  00445	f3 0f 10 45 f8	 movss	 xmm0, DWORD PTR _n$[ebp]
  0044a	f3 0f 11 04 24	 movss	 DWORD PTR [esp], xmm0
  0044f	68 cd 00 00 00	 push	 205			; 000000cdH
  00454	a1 00 00 00 00	 mov	 eax, DWORD PTR ?virtual_cockpit_inst3d@@3PAUOBJECT_3D_INSTANCE@@A ; virtual_cockpit_inst3d
  00459	50		 push	 eax
  0045a	e8 00 00 00 00	 call	 ?animate_entity_simple_keyframed_sub_objects@@YGXPAUOBJECT_3D_INSTANCE@@HM@Z ; animate_entity_simple_keyframed_sub_objects

; 1036 : 
; 1037 : 	////////////////////////////////////////
; 1038 : 
; 1039 : 	n = ((CO_PILOT_LEFT_HAND_FROM_REST_TO_NVG_ANIM_END - CO_PILOT_LEFT_HAND_FROM_REST_TO_NVG_ANIM_START) * co_pilot_nvg_anim_frame) + CO_PILOT_LEFT_HAND_FROM_REST_TO_NVG_ANIM_START;

  0045f	f3 0f 10 05 00
	00 00 00	 movss	 xmm0, DWORD PTR __real@3d23d708
  00467	f3 0f 59 05 00
	00 00 00	 mulss	 xmm0, DWORD PTR ?co_pilot_nvg_anim_frame@@3MA
  0046f	f3 0f 58 05 00
	00 00 00	 addss	 xmm0, DWORD PTR __real@3e3851ec
  00477	f3 0f 11 45 f8	 movss	 DWORD PTR _n$[ebp], xmm0

; 1040 : 
; 1041 : 	n = bound (n, CO_PILOT_LEFT_HAND_FROM_REST_TO_NVG_ANIM_START, CO_PILOT_LEFT_HAND_FROM_REST_TO_NVG_ANIM_END);

  0047c	f3 0f 10 05 00
	00 00 00	 movss	 xmm0, DWORD PTR __real@3e3851ec
  00484	0f 2f 45 f8	 comiss	 xmm0, DWORD PTR _n$[ebp]
  00488	76 0f		 jbe	 SHORT $LN40@set_co_pil
  0048a	f3 0f 10 05 00
	00 00 00	 movss	 xmm0, DWORD PTR __real@3e3851ec
  00492	f3 0f 11 45 b4	 movss	 DWORD PTR tv217[ebp], xmm0
  00497	eb 31		 jmp	 SHORT $LN41@set_co_pil
$LN40@set_co_pil:
  00499	f3 0f 10 45 f8	 movss	 xmm0, DWORD PTR _n$[ebp]
  0049e	0f 2f 05 00 00
	00 00		 comiss	 xmm0, DWORD PTR __real@3e6147ae
  004a5	76 0f		 jbe	 SHORT $LN38@set_co_pil
  004a7	f3 0f 10 05 00
	00 00 00	 movss	 xmm0, DWORD PTR __real@3e6147ae
  004af	f3 0f 11 45 b0	 movss	 DWORD PTR tv216[ebp], xmm0
  004b4	eb 0a		 jmp	 SHORT $LN39@set_co_pil
$LN38@set_co_pil:
  004b6	f3 0f 10 45 f8	 movss	 xmm0, DWORD PTR _n$[ebp]
  004bb	f3 0f 11 45 b0	 movss	 DWORD PTR tv216[ebp], xmm0
$LN39@set_co_pil:
  004c0	f3 0f 10 45 b0	 movss	 xmm0, DWORD PTR tv216[ebp]
  004c5	f3 0f 11 45 b4	 movss	 DWORD PTR tv217[ebp], xmm0
$LN41@set_co_pil:
  004ca	f3 0f 10 45 b4	 movss	 xmm0, DWORD PTR tv217[ebp]
  004cf	f3 0f 11 45 f8	 movss	 DWORD PTR _n$[ebp], xmm0

; 1042 : 
; 1043 : 	animate_entity_simple_keyframed_sub_objects (virtual_cockpit_inst3d, OBJECT_3D_SUB_OBJECT_WSO_NVG, n);

  004d4	51		 push	 ecx
  004d5	f3 0f 10 45 f8	 movss	 xmm0, DWORD PTR _n$[ebp]
  004da	f3 0f 11 04 24	 movss	 DWORD PTR [esp], xmm0
  004df	68 de 00 00 00	 push	 222			; 000000deH
  004e4	a1 00 00 00 00	 mov	 eax, DWORD PTR ?virtual_cockpit_inst3d@@3PAUOBJECT_3D_INSTANCE@@A ; virtual_cockpit_inst3d
  004e9	50		 push	 eax
  004ea	e8 00 00 00 00	 call	 ?animate_entity_simple_keyframed_sub_objects@@YGXPAUOBJECT_3D_INSTANCE@@HM@Z ; animate_entity_simple_keyframed_sub_objects

; 1044 : }

  004ef	5f		 pop	 edi
  004f0	5e		 pop	 esi
  004f1	5b		 pop	 ebx
  004f2	8b e5		 mov	 esp, ebp
  004f4	5d		 pop	 ebp
  004f5	c2 08 00	 ret	 8
?set_co_pilot_animation@@YGXPAUCO_PILOT_ANIM_DATA@@M@Z ENDP ; set_co_pilot_animation
_TEXT	ENDS
; Function compile flags: /Odtp /ZI
; File c:\users\nhv90\projects\eech\aphavoc\source\gunships\cockpits\hokum\hk_cpg.c
;	COMDAT ?set_co_pilot_pedal_position@@YGXM@Z
_TEXT	SEGMENT
tv68 = -76						; size = 4
tv69 = -72						; size = 4
_anim_frame$ = -4					; size = 4
_pedal$ = 8						; size = 4
?set_co_pilot_pedal_position@@YGXM@Z PROC		; set_co_pilot_pedal_position, COMDAT

; 854  : {

  00000	55		 push	 ebp
  00001	8b ec		 mov	 ebp, esp
  00003	83 ec 4c	 sub	 esp, 76			; 0000004cH
  00006	53		 push	 ebx
  00007	56		 push	 esi
  00008	57		 push	 edi

; 855  : 	float
; 856  : 		anim_frame;
; 857  : 
; 858  : 	anim_frame = pedal;

  00009	f3 0f 10 45 08	 movss	 xmm0, DWORD PTR _pedal$[ebp]
  0000e	f3 0f 11 45 fc	 movss	 DWORD PTR _anim_frame$[ebp], xmm0

; 859  : 
; 860  : 	anim_frame *= CO_PILOT_PEDAL_ANIM_END - CO_PILOT_PEDAL_ANIM_START;

  00013	f3 0f 10 45 fc	 movss	 xmm0, DWORD PTR _anim_frame$[ebp]
  00018	f3 0f 59 05 00
	00 00 00	 mulss	 xmm0, DWORD PTR __real@3d23d70a
  00020	f3 0f 11 45 fc	 movss	 DWORD PTR _anim_frame$[ebp], xmm0

; 861  : 
; 862  : 	anim_frame += CO_PILOT_PEDAL_ANIM_START;

  00025	f3 0f 10 45 fc	 movss	 xmm0, DWORD PTR _anim_frame$[ebp]
  0002a	f3 0f 58 05 00
	00 00 00	 addss	 xmm0, DWORD PTR __real@00000000
  00032	f3 0f 11 45 fc	 movss	 DWORD PTR _anim_frame$[ebp], xmm0

; 863  : 
; 864  : 	anim_frame = bound (anim_frame, CO_PILOT_PEDAL_ANIM_START, CO_PILOT_PEDAL_ANIM_END);

  00037	0f 57 c0	 xorps	 xmm0, xmm0
  0003a	0f 2f 45 fc	 comiss	 xmm0, DWORD PTR _anim_frame$[ebp]
  0003e	76 0a		 jbe	 SHORT $LN5@set_co_pil
  00040	0f 57 c0	 xorps	 xmm0, xmm0
  00043	f3 0f 11 45 b8	 movss	 DWORD PTR tv69[ebp], xmm0
  00048	eb 31		 jmp	 SHORT $LN6@set_co_pil
$LN5@set_co_pil:
  0004a	f3 0f 10 45 fc	 movss	 xmm0, DWORD PTR _anim_frame$[ebp]
  0004f	0f 2f 05 00 00
	00 00		 comiss	 xmm0, DWORD PTR __real@3d23d70a
  00056	76 0f		 jbe	 SHORT $LN3@set_co_pil
  00058	f3 0f 10 05 00
	00 00 00	 movss	 xmm0, DWORD PTR __real@3d23d70a
  00060	f3 0f 11 45 b4	 movss	 DWORD PTR tv68[ebp], xmm0
  00065	eb 0a		 jmp	 SHORT $LN4@set_co_pil
$LN3@set_co_pil:
  00067	f3 0f 10 45 fc	 movss	 xmm0, DWORD PTR _anim_frame$[ebp]
  0006c	f3 0f 11 45 b4	 movss	 DWORD PTR tv68[ebp], xmm0
$LN4@set_co_pil:
  00071	f3 0f 10 45 b4	 movss	 xmm0, DWORD PTR tv68[ebp]
  00076	f3 0f 11 45 b8	 movss	 DWORD PTR tv69[ebp], xmm0
$LN6@set_co_pil:
  0007b	f3 0f 10 45 b8	 movss	 xmm0, DWORD PTR tv69[ebp]
  00080	f3 0f 11 45 fc	 movss	 DWORD PTR _anim_frame$[ebp], xmm0

; 865  : 
; 866  : 	animate_entity_simple_keyframed_sub_objects (virtual_cockpit_inst3d, OBJECT_3D_SUB_OBJECT_COCKPIT_WSO_PEDAL, anim_frame);

  00085	51		 push	 ecx
  00086	f3 0f 10 45 fc	 movss	 xmm0, DWORD PTR _anim_frame$[ebp]
  0008b	f3 0f 11 04 24	 movss	 DWORD PTR [esp], xmm0
  00090	68 c8 00 00 00	 push	 200			; 000000c8H
  00095	a1 00 00 00 00	 mov	 eax, DWORD PTR ?virtual_cockpit_inst3d@@3PAUOBJECT_3D_INSTANCE@@A ; virtual_cockpit_inst3d
  0009a	50		 push	 eax
  0009b	e8 00 00 00 00	 call	 ?animate_entity_simple_keyframed_sub_objects@@YGXPAUOBJECT_3D_INSTANCE@@HM@Z ; animate_entity_simple_keyframed_sub_objects

; 867  : }

  000a0	5f		 pop	 edi
  000a1	5e		 pop	 esi
  000a2	5b		 pop	 ebx
  000a3	8b e5		 mov	 esp, ebp
  000a5	5d		 pop	 ebp
  000a6	c2 04 00	 ret	 4
?set_co_pilot_pedal_position@@YGXM@Z ENDP		; set_co_pilot_pedal_position
_TEXT	ENDS
; Function compile flags: /Odtp /ZI
; File c:\users\nhv90\projects\eech\aphavoc\source\gunships\cockpits\hokum\hk_cpg.c
;	COMDAT ?set_co_pilot_collective_position@@YGXM@Z
_TEXT	SEGMENT
tv71 = -76						; size = 4
tv72 = -72						; size = 4
_anim_frame$ = -4					; size = 4
_collective$ = 8					; size = 4
?set_co_pilot_collective_position@@YGXM@Z PROC		; set_co_pilot_collective_position, COMDAT

; 834  : {

  00000	55		 push	 ebp
  00001	8b ec		 mov	 ebp, esp
  00003	83 ec 4c	 sub	 esp, 76			; 0000004cH
  00006	53		 push	 ebx
  00007	56		 push	 esi
  00008	57		 push	 edi

; 835  : 	float
; 836  : 		anim_frame;
; 837  : 
; 838  : 	anim_frame = 1.0 - collective;

  00009	f3 0f 5a 45 08	 cvtss2sd xmm0, DWORD PTR _collective$[ebp]
  0000e	f2 0f 10 0d 00
	00 00 00	 movsd	 xmm1, QWORD PTR __real@3ff0000000000000
  00016	f2 0f 5c c8	 subsd	 xmm1, xmm0
  0001a	f2 0f 5a c1	 cvtsd2ss xmm0, xmm1
  0001e	f3 0f 11 45 fc	 movss	 DWORD PTR _anim_frame$[ebp], xmm0

; 839  : 
; 840  : 	anim_frame *= CO_PILOT_COLLECTIVE_ANIM_END - CO_PILOT_COLLECTIVE_ANIM_START;

  00023	f3 0f 10 45 fc	 movss	 xmm0, DWORD PTR _anim_frame$[ebp]
  00028	f3 0f 59 05 00
	00 00 00	 mulss	 xmm0, DWORD PTR __real@3d23d70a
  00030	f3 0f 11 45 fc	 movss	 DWORD PTR _anim_frame$[ebp], xmm0

; 841  : 
; 842  : 	anim_frame += CO_PILOT_COLLECTIVE_ANIM_START;

  00035	f3 0f 10 45 fc	 movss	 xmm0, DWORD PTR _anim_frame$[ebp]
  0003a	f3 0f 58 05 00
	00 00 00	 addss	 xmm0, DWORD PTR __real@00000000
  00042	f3 0f 11 45 fc	 movss	 DWORD PTR _anim_frame$[ebp], xmm0

; 843  : 
; 844  : 	anim_frame = bound (anim_frame, CO_PILOT_COLLECTIVE_ANIM_START, CO_PILOT_COLLECTIVE_ANIM_END);

  00047	0f 57 c0	 xorps	 xmm0, xmm0
  0004a	0f 2f 45 fc	 comiss	 xmm0, DWORD PTR _anim_frame$[ebp]
  0004e	76 0a		 jbe	 SHORT $LN5@set_co_pil
  00050	0f 57 c0	 xorps	 xmm0, xmm0
  00053	f3 0f 11 45 b8	 movss	 DWORD PTR tv72[ebp], xmm0
  00058	eb 31		 jmp	 SHORT $LN6@set_co_pil
$LN5@set_co_pil:
  0005a	f3 0f 10 45 fc	 movss	 xmm0, DWORD PTR _anim_frame$[ebp]
  0005f	0f 2f 05 00 00
	00 00		 comiss	 xmm0, DWORD PTR __real@3d23d70a
  00066	76 0f		 jbe	 SHORT $LN3@set_co_pil
  00068	f3 0f 10 05 00
	00 00 00	 movss	 xmm0, DWORD PTR __real@3d23d70a
  00070	f3 0f 11 45 b4	 movss	 DWORD PTR tv71[ebp], xmm0
  00075	eb 0a		 jmp	 SHORT $LN4@set_co_pil
$LN3@set_co_pil:
  00077	f3 0f 10 45 fc	 movss	 xmm0, DWORD PTR _anim_frame$[ebp]
  0007c	f3 0f 11 45 b4	 movss	 DWORD PTR tv71[ebp], xmm0
$LN4@set_co_pil:
  00081	f3 0f 10 45 b4	 movss	 xmm0, DWORD PTR tv71[ebp]
  00086	f3 0f 11 45 b8	 movss	 DWORD PTR tv72[ebp], xmm0
$LN6@set_co_pil:
  0008b	f3 0f 10 45 b8	 movss	 xmm0, DWORD PTR tv72[ebp]
  00090	f3 0f 11 45 fc	 movss	 DWORD PTR _anim_frame$[ebp], xmm0

; 845  : 
; 846  : 	animate_entity_simple_keyframed_sub_objects (virtual_cockpit_inst3d, OBJECT_3D_SUB_OBJECT_COCKPIT_WSO_COLLECTIVE, anim_frame);

  00095	51		 push	 ecx
  00096	f3 0f 10 45 fc	 movss	 xmm0, DWORD PTR _anim_frame$[ebp]
  0009b	f3 0f 11 04 24	 movss	 DWORD PTR [esp], xmm0
  000a0	68 9a 00 00 00	 push	 154			; 0000009aH
  000a5	a1 00 00 00 00	 mov	 eax, DWORD PTR ?virtual_cockpit_inst3d@@3PAUOBJECT_3D_INSTANCE@@A ; virtual_cockpit_inst3d
  000aa	50		 push	 eax
  000ab	e8 00 00 00 00	 call	 ?animate_entity_simple_keyframed_sub_objects@@YGXPAUOBJECT_3D_INSTANCE@@HM@Z ; animate_entity_simple_keyframed_sub_objects

; 847  : }

  000b0	5f		 pop	 edi
  000b1	5e		 pop	 esi
  000b2	5b		 pop	 ebx
  000b3	8b e5		 mov	 esp, ebp
  000b5	5d		 pop	 ebp
  000b6	c2 04 00	 ret	 4
?set_co_pilot_collective_position@@YGXM@Z ENDP		; set_co_pilot_collective_position
_TEXT	ENDS
; Function compile flags: /Odtp /ZI
; File c:\users\nhv90\projects\eech\aphavoc\source\gunships\cockpits\hokum\hk_cpg.c
;	COMDAT ?set_co_pilot_static_right_hand_on_cyclic_visibility@@YGXH@Z
_TEXT	SEGMENT
tv69 = -124						; size = 4
_search_data$ = -56					; size = 56
_visible$ = 8						; size = 4
?set_co_pilot_static_right_hand_on_cyclic_visibility@@YGXH@Z PROC ; set_co_pilot_static_right_hand_on_cyclic_visibility, COMDAT

; 806  : {

  00000	55		 push	 ebp
  00001	8b ec		 mov	 ebp, esp
  00003	83 ec 7c	 sub	 esp, 124		; 0000007cH
  00006	53		 push	 ebx
  00007	56		 push	 esi
  00008	57		 push	 edi

; 807  : 	object_3d_sub_object_search_data
; 808  : 		search_data;
; 809  : 
; 810  : 	search_data.search_depth = 0;

  00009	c7 45 d0 00 00
	00 00		 mov	 DWORD PTR _search_data$[ebp+8], 0

; 811  : 	search_data.search_object = virtual_cockpit_inst3d;

  00010	a1 00 00 00 00	 mov	 eax, DWORD PTR ?virtual_cockpit_inst3d@@3PAUOBJECT_3D_INSTANCE@@A ; virtual_cockpit_inst3d
  00015	89 45 c8	 mov	 DWORD PTR _search_data$[ebp], eax

; 812  : 	search_data.sub_object_index = OBJECT_3D_SUB_OBJECT_WSO_R_HAND;

  00018	c7 45 d4 aa 00
	00 00		 mov	 DWORD PTR _search_data$[ebp+12], 170 ; 000000aaH

; 813  : 
; 814  : 	if (find_object_3d_sub_object (&search_data) == SUB_OBJECT_SEARCH_RESULT_OBJECT_FOUND)

  0001f	8d 45 c8	 lea	 eax, DWORD PTR _search_data$[ebp]
  00022	50		 push	 eax
  00023	e8 00 00 00 00	 call	 ?find_object_3d_sub_object@@YG?AW4SUB_OBJECT_SEARCH_RESULT_TYPES@@PAUOBJECT_3D_SUB_OBJECT_SEARCH_DATA@@@Z ; find_object_3d_sub_object
  00028	83 f8 01	 cmp	 eax, 1
  0002b	75 2d		 jne	 SHORT $LN2@set_co_pil

; 815  : 	{
; 816  : 		search_data.result_sub_object->visible_object = !visible;

  0002d	83 7d 08 00	 cmp	 DWORD PTR _visible$[ebp], 0
  00031	75 09		 jne	 SHORT $LN5@set_co_pil
  00033	c7 45 84 01 00
	00 00		 mov	 DWORD PTR tv69[ebp], 1
  0003a	eb 07		 jmp	 SHORT $LN6@set_co_pil
$LN5@set_co_pil:
  0003c	c7 45 84 00 00
	00 00		 mov	 DWORD PTR tv69[ebp], 0
$LN6@set_co_pil:
  00043	8b 45 84	 mov	 eax, DWORD PTR tv69[ebp]
  00046	83 e0 01	 and	 eax, 1
  00049	8b 4d cc	 mov	 ecx, DWORD PTR _search_data$[ebp+4]
  0004c	8b 51 08	 mov	 edx, DWORD PTR [ecx+8]
  0004f	83 e2 fe	 and	 edx, -2			; fffffffeH
  00052	0b d0		 or	 edx, eax
  00054	8b 45 cc	 mov	 eax, DWORD PTR _search_data$[ebp+4]
  00057	89 50 08	 mov	 DWORD PTR [eax+8], edx
$LN2@set_co_pil:

; 817  : 	}
; 818  : 
; 819  : 	search_data.search_depth = 0;

  0005a	c7 45 d0 00 00
	00 00		 mov	 DWORD PTR _search_data$[ebp+8], 0

; 820  : 	search_data.search_object = virtual_cockpit_inst3d;

  00061	a1 00 00 00 00	 mov	 eax, DWORD PTR ?virtual_cockpit_inst3d@@3PAUOBJECT_3D_INSTANCE@@A ; virtual_cockpit_inst3d
  00066	89 45 c8	 mov	 DWORD PTR _search_data$[ebp], eax

; 821  : 	search_data.sub_object_index = OBJECT_3D_SUB_OBJECT_COCKPIT_WSO_HAND_STATIC;

  00069	c7 45 d4 d0 00
	00 00		 mov	 DWORD PTR _search_data$[ebp+12], 208 ; 000000d0H

; 822  : 
; 823  : 	if (find_object_3d_sub_object (&search_data) == SUB_OBJECT_SEARCH_RESULT_OBJECT_FOUND)

  00070	8d 45 c8	 lea	 eax, DWORD PTR _search_data$[ebp]
  00073	50		 push	 eax
  00074	e8 00 00 00 00	 call	 ?find_object_3d_sub_object@@YG?AW4SUB_OBJECT_SEARCH_RESULT_TYPES@@PAUOBJECT_3D_SUB_OBJECT_SEARCH_DATA@@@Z ; find_object_3d_sub_object
  00079	83 f8 01	 cmp	 eax, 1
  0007c	75 17		 jne	 SHORT $LN1@set_co_pil

; 824  : 	{
; 825  : 		search_data.result_sub_object->visible_object = visible;

  0007e	8b 45 08	 mov	 eax, DWORD PTR _visible$[ebp]
  00081	83 e0 01	 and	 eax, 1
  00084	8b 4d cc	 mov	 ecx, DWORD PTR _search_data$[ebp+4]
  00087	8b 51 08	 mov	 edx, DWORD PTR [ecx+8]
  0008a	83 e2 fe	 and	 edx, -2			; fffffffeH
  0008d	0b d0		 or	 edx, eax
  0008f	8b 45 cc	 mov	 eax, DWORD PTR _search_data$[ebp+4]
  00092	89 50 08	 mov	 DWORD PTR [eax+8], edx
$LN1@set_co_pil:

; 826  : 	}
; 827  : }

  00095	5f		 pop	 edi
  00096	5e		 pop	 esi
  00097	5b		 pop	 ebx
  00098	8b e5		 mov	 esp, ebp
  0009a	5d		 pop	 ebp
  0009b	c2 04 00	 ret	 4
?set_co_pilot_static_right_hand_on_cyclic_visibility@@YGXH@Z ENDP ; set_co_pilot_static_right_hand_on_cyclic_visibility
_TEXT	ENDS
; Function compile flags: /Odtp /ZI
; File c:\users\nhv90\projects\eech\aphavoc\source\gunships\cockpits\hokum\hk_cpg.c
;	COMDAT ?reset_hokum_co_pilot_eject_sequence@@YGXXZ
_TEXT	SEGMENT
?reset_hokum_co_pilot_eject_sequence@@YGXXZ PROC	; reset_hokum_co_pilot_eject_sequence, COMDAT

; 2132 : {

  00000	55		 push	 ebp
  00001	8b ec		 mov	 ebp, esp
  00003	83 ec 40	 sub	 esp, 64			; 00000040H
  00006	53		 push	 ebx
  00007	56		 push	 esi
  00008	57		 push	 edi

; 2133 : 	eject_timer = 0.0;

  00009	0f 57 c0	 xorps	 xmm0, xmm0
  0000c	f3 0f 11 05 00
	00 00 00	 movss	 DWORD PTR ?eject_timer@@3MA, xmm0

; 2134 : 
; 2135 : 	eject_stage = 0;

  00014	c7 05 00 00 00
	00 00 00 00 00	 mov	 DWORD PTR ?eject_stage@@3HA, 0

; 2136 : 
; 2137 : 	//
; 2138 : 	// set anim
; 2139 : 	//
; 2140 : 
; 2141 : 	co_pilot_anim_mode = CO_PILOT_ANIM_MODE_DATUM_AT_REST;

  0001e	c7 05 00 00 00
	00 00 00 00 00	 mov	 DWORD PTR ?co_pilot_anim_mode@@3W4CO_PILOT_ANIM_MODES@@A, 0

; 2142 : 
; 2143 : 	co_pilot_anim_frame = 0.0;

  00028	0f 57 c0	 xorps	 xmm0, xmm0
  0002b	f3 0f 11 05 00
	00 00 00	 movss	 DWORD PTR ?co_pilot_anim_frame@@3MA, xmm0

; 2144 : 
; 2145 : 	co_pilot_anim_delay = get_reset_co_pilot_anim_delay ();

  00033	e8 00 00 00 00	 call	 ?get_reset_co_pilot_anim_delay@@YGMXZ ; get_reset_co_pilot_anim_delay
  00038	d9 1d 00 00 00
	00		 fstp	 DWORD PTR ?co_pilot_anim_delay@@3MA

; 2146 : 
; 2147 : 	co_pilot_head_anim_frame = NO_CO_PILOT_HEAD_ANIMATION;

  0003e	f3 0f 10 05 00
	00 00 00	 movss	 xmm0, DWORD PTR __real@bf800000
  00046	f3 0f 11 05 00
	00 00 00	 movss	 DWORD PTR ?co_pilot_head_anim_frame@@3MA, xmm0

; 2148 : 
; 2149 : 	co_pilot_head_anim_pause = 0.0;

  0004e	0f 57 c0	 xorps	 xmm0, xmm0
  00051	f3 0f 11 05 00
	00 00 00	 movss	 DWORD PTR ?co_pilot_head_anim_pause@@3MA, xmm0

; 2150 : 
; 2151 : 	if (night_vision_system_active)

  00059	83 3d 00 00 00
	00 00		 cmp	 DWORD PTR ?night_vision_system_active@@3HA, 0 ; night_vision_system_active
  00060	74 12		 je	 SHORT $LN2@reset_hoku

; 2152 : 	{
; 2153 : 		co_pilot_nvg_anim_frame = NVG_ON;

  00062	f3 0f 10 05 00
	00 00 00	 movss	 xmm0, DWORD PTR __real@3f800000
  0006a	f3 0f 11 05 00
	00 00 00	 movss	 DWORD PTR ?co_pilot_nvg_anim_frame@@3MA, xmm0

; 2154 : 	}
; 2155 : 	else

  00072	eb 0b		 jmp	 SHORT $LN3@reset_hoku
$LN2@reset_hoku:

; 2156 : 	{
; 2157 : 		co_pilot_nvg_anim_frame = NVG_OFF;

  00074	0f 57 c0	 xorps	 xmm0, xmm0
  00077	f3 0f 11 05 00
	00 00 00	 movss	 DWORD PTR ?co_pilot_nvg_anim_frame@@3MA, xmm0
$LN3@reset_hoku:

; 2158 : 	}
; 2159 : }

  0007f	5f		 pop	 edi
  00080	5e		 pop	 esi
  00081	5b		 pop	 ebx
  00082	8b e5		 mov	 esp, ebp
  00084	5d		 pop	 ebp
  00085	c3		 ret	 0
?reset_hokum_co_pilot_eject_sequence@@YGXXZ ENDP	; reset_hokum_co_pilot_eject_sequence
_TEXT	ENDS
; Function compile flags: /Odtp /ZI
; File c:\users\nhv90\projects\eech\aphavoc\source\gunships\cockpits\hokum\hk_cpg.c
;	COMDAT ?get_hokum_co_pilot_head_pitch_datum@@YGMXZ
_TEXT	SEGMENT
_search$ = -60						; size = 56
_relative_pitch$ = -4					; size = 4
?get_hokum_co_pilot_head_pitch_datum@@YGMXZ PROC	; get_hokum_co_pilot_head_pitch_datum, COMDAT

; 2100 : {

  00000	55		 push	 ebp
  00001	8b ec		 mov	 ebp, esp
  00003	83 ec 7c	 sub	 esp, 124		; 0000007cH
  00006	53		 push	 ebx
  00007	56		 push	 esi
  00008	57		 push	 edi

; 2101 : 	float
; 2102 : 		relative_pitch;
; 2103 : 
; 2104 : 	object_3d_sub_object_search_data
; 2105 : 		search;
; 2106 : 
; 2107 : 	ASSERT (get_gunship_entity ());

  00009	83 3d 00 00 00
	00 00		 cmp	 DWORD PTR ?gunship_entity@@3PAUENTITY@@A, 0 ; gunship_entity
  00010	75 18		 jne	 SHORT $LN2@get_hokum_
  00012	a1 00 00 00 00	 mov	 eax, DWORD PTR ?__LINE__Var@?0??get_hokum_co_pilot_head_pitch_datum@@YGMXZ@4JA
  00017	83 c0 07	 add	 eax, 7
  0001a	50		 push	 eax
  0001b	68 00 00 00 00	 push	 OFFSET ??_C@_0EN@HGKDONEK@c?3?2users?2nhv90?2projects?2eech?2ap@
  00020	68 00 00 00 00	 push	 OFFSET ??_C@_0BG@EANNPEON@get_gunship_entity?5?$CI?$CJ@
  00025	e8 00 00 00 00	 call	 ?process_assert@@YGXPBD0H@Z ; process_assert
$LN2@get_hokum_:

; 2108 : 
; 2109 : 	ASSERT (virtual_cockpit_inst3d);

  0002a	83 3d 00 00 00
	00 00		 cmp	 DWORD PTR ?virtual_cockpit_inst3d@@3PAUOBJECT_3D_INSTANCE@@A, 0 ; virtual_cockpit_inst3d
  00031	75 18		 jne	 SHORT $LN3@get_hokum_
  00033	a1 00 00 00 00	 mov	 eax, DWORD PTR ?__LINE__Var@?0??get_hokum_co_pilot_head_pitch_datum@@YGMXZ@4JA
  00038	83 c0 09	 add	 eax, 9
  0003b	50		 push	 eax
  0003c	68 00 00 00 00	 push	 OFFSET ??_C@_0EN@HGKDONEK@c?3?2users?2nhv90?2projects?2eech?2ap@
  00041	68 00 00 00 00	 push	 OFFSET ??_C@_0BH@OJOOJLIP@virtual_cockpit_inst3d@
  00046	e8 00 00 00 00	 call	 ?process_assert@@YGXPBD0H@Z ; process_assert
$LN3@get_hokum_:

; 2110 : 
; 2111 : 	search.search_depth = 0;

  0004b	c7 45 cc 00 00
	00 00		 mov	 DWORD PTR _search$[ebp+8], 0

; 2112 : 	search.search_object = virtual_cockpit_inst3d;

  00052	a1 00 00 00 00	 mov	 eax, DWORD PTR ?virtual_cockpit_inst3d@@3PAUOBJECT_3D_INSTANCE@@A ; virtual_cockpit_inst3d
  00057	89 45 c4	 mov	 DWORD PTR _search$[ebp], eax

; 2113 : 	search.sub_object_index = OBJECT_3D_SUB_OBJECT_WSO_HEAD;

  0005a	c7 45 d0 ad 00
	00 00		 mov	 DWORD PTR _search$[ebp+12], 173 ; 000000adH

; 2114 : 
; 2115 : 	if (find_object_3d_sub_object (&search) == SUB_OBJECT_SEARCH_RESULT_OBJECT_FOUND)

  00061	8d 45 c4	 lea	 eax, DWORD PTR _search$[ebp]
  00064	50		 push	 eax
  00065	e8 00 00 00 00	 call	 ?find_object_3d_sub_object@@YG?AW4SUB_OBJECT_SEARCH_RESULT_TYPES@@PAUOBJECT_3D_SUB_OBJECT_SEARCH_DATA@@@Z ; find_object_3d_sub_object
  0006a	83 f8 01	 cmp	 eax, 1
  0006d	75 0f		 jne	 SHORT $LN4@get_hokum_

; 2116 : 	{
; 2117 : 		relative_pitch = search.result_sub_object->relative_pitch;

  0006f	8b 45 c8	 mov	 eax, DWORD PTR _search$[ebp+4]
  00072	f3 0f 10 40 1c	 movss	 xmm0, DWORD PTR [eax+28]
  00077	f3 0f 11 45 fc	 movss	 DWORD PTR _relative_pitch$[ebp], xmm0

; 2118 : 	}
; 2119 : 	else

  0007c	eb 0d		 jmp	 SHORT $LN5@get_hokum_
$LN4@get_hokum_:

; 2120 : 	{
; 2121 : 		debug_fatal ("Failed to locate co-pilot's head in virtual cockpit");

  0007e	68 00 00 00 00	 push	 OFFSET ??_C@_0DE@MOLAKHGN@Failed?5to?5locate?5co?9pilot?8s?5hea@
  00083	e8 00 00 00 00	 call	 ?debug_fatal@@YAXPBDZZ	; debug_fatal
  00088	83 c4 04	 add	 esp, 4
$LN5@get_hokum_:

; 2122 : 	}
; 2123 : 
; 2124 : 	return (relative_pitch);

  0008b	d9 45 fc	 fld	 DWORD PTR _relative_pitch$[ebp]

; 2125 : }

  0008e	5f		 pop	 edi
  0008f	5e		 pop	 esi
  00090	5b		 pop	 ebx
  00091	8b e5		 mov	 esp, ebp
  00093	5d		 pop	 ebp
  00094	c3		 ret	 0
?get_hokum_co_pilot_head_pitch_datum@@YGMXZ ENDP	; get_hokum_co_pilot_head_pitch_datum
_TEXT	ENDS
; Function compile flags: /Odtp /ZI
; File c:\users\nhv90\projects\eech\aphavoc\source\gunships\cockpits\hokum\hk_cpg.c
;	COMDAT ?set_hokum_co_pilot_head_position@@YGXXZ
_TEXT	SEGMENT
tv76 = -128						; size = 4
_search$ = -60						; size = 56
_show_co_pilot_head$ = -4				; size = 4
?set_hokum_co_pilot_head_position@@YGXXZ PROC		; set_hokum_co_pilot_head_position, COMDAT

; 2045 : {

  00000	55		 push	 ebp
  00001	8b ec		 mov	 ebp, esp
  00003	81 ec 80 00 00
	00		 sub	 esp, 128		; 00000080H
  00009	53		 push	 ebx
  0000a	56		 push	 esi
  0000b	57		 push	 edi

; 2046 : 	int
; 2047 : 		show_co_pilot_head;
; 2048 : 
; 2049 : 	object_3d_sub_object_search_data
; 2050 : 		search;
; 2051 : 
; 2052 : 	ASSERT (get_gunship_entity ());

  0000c	83 3d 00 00 00
	00 00		 cmp	 DWORD PTR ?gunship_entity@@3PAUENTITY@@A, 0 ; gunship_entity
  00013	75 18		 jne	 SHORT $LN2@set_hokum_
  00015	a1 00 00 00 00	 mov	 eax, DWORD PTR ?__LINE__Var@?0??set_hokum_co_pilot_head_position@@YGXXZ@4JA
  0001a	83 c0 07	 add	 eax, 7
  0001d	50		 push	 eax
  0001e	68 00 00 00 00	 push	 OFFSET ??_C@_0EN@HGKDONEK@c?3?2users?2nhv90?2projects?2eech?2ap@
  00023	68 00 00 00 00	 push	 OFFSET ??_C@_0BG@EANNPEON@get_gunship_entity?5?$CI?$CJ@
  00028	e8 00 00 00 00	 call	 ?process_assert@@YGXPBD0H@Z ; process_assert
$LN2@set_hokum_:

; 2053 : 
; 2054 : 	ASSERT (virtual_cockpit_inst3d);

  0002d	83 3d 00 00 00
	00 00		 cmp	 DWORD PTR ?virtual_cockpit_inst3d@@3PAUOBJECT_3D_INSTANCE@@A, 0 ; virtual_cockpit_inst3d
  00034	75 18		 jne	 SHORT $LN3@set_hokum_
  00036	a1 00 00 00 00	 mov	 eax, DWORD PTR ?__LINE__Var@?0??set_hokum_co_pilot_head_position@@YGXXZ@4JA
  0003b	83 c0 09	 add	 eax, 9
  0003e	50		 push	 eax
  0003f	68 00 00 00 00	 push	 OFFSET ??_C@_0EN@HGKDONEK@c?3?2users?2nhv90?2projects?2eech?2ap@
  00044	68 00 00 00 00	 push	 OFFSET ??_C@_0BH@OJOOJLIP@virtual_cockpit_inst3d@
  00049	e8 00 00 00 00	 call	 ?process_assert@@YGXPBD0H@Z ; process_assert
$LN3@set_hokum_:

; 2055 : 
; 2056 : 	show_co_pilot_head = !get_co_pilot_viewpoint_virtual_cockpit ();

  0004e	e8 00 00 00 00	 call	 ?get_co_pilot_viewpoint_virtual_cockpit@@YGHXZ ; get_co_pilot_viewpoint_virtual_cockpit
  00053	85 c0		 test	 eax, eax
  00055	75 09		 jne	 SHORT $LN12@set_hokum_
  00057	c7 45 80 01 00
	00 00		 mov	 DWORD PTR tv76[ebp], 1
  0005e	eb 07		 jmp	 SHORT $LN13@set_hokum_
$LN12@set_hokum_:
  00060	c7 45 80 00 00
	00 00		 mov	 DWORD PTR tv76[ebp], 0
$LN13@set_hokum_:
  00067	8b 45 80	 mov	 eax, DWORD PTR tv76[ebp]
  0006a	89 45 fc	 mov	 DWORD PTR _show_co_pilot_head$[ebp], eax

; 2057 : 
; 2058 : 	search.search_depth = 0;

  0006d	c7 45 cc 00 00
	00 00		 mov	 DWORD PTR _search$[ebp+8], 0

; 2059 : 	search.search_object = virtual_cockpit_inst3d;

  00074	a1 00 00 00 00	 mov	 eax, DWORD PTR ?virtual_cockpit_inst3d@@3PAUOBJECT_3D_INSTANCE@@A ; virtual_cockpit_inst3d
  00079	89 45 c4	 mov	 DWORD PTR _search$[ebp], eax

; 2060 : 	search.sub_object_index = OBJECT_3D_SUB_OBJECT_WSO_HEAD;

  0007c	c7 45 d0 ad 00
	00 00		 mov	 DWORD PTR _search$[ebp+12], 173 ; 000000adH

; 2061 : 
; 2062 : 	if (find_object_3d_sub_object (&search) == SUB_OBJECT_SEARCH_RESULT_OBJECT_FOUND)

  00083	8d 45 c4	 lea	 eax, DWORD PTR _search$[ebp]
  00086	50		 push	 eax
  00087	e8 00 00 00 00	 call	 ?find_object_3d_sub_object@@YG?AW4SUB_OBJECT_SEARCH_RESULT_TYPES@@PAUOBJECT_3D_SUB_OBJECT_SEARCH_DATA@@@Z ; find_object_3d_sub_object
  0008c	83 f8 01	 cmp	 eax, 1
  0008f	0f 85 95 00 00
	00		 jne	 $LN4@set_hokum_

; 2063 : 	{
; 2064 : 		search.result_sub_object->visible_object = show_co_pilot_head;

  00095	8b 45 fc	 mov	 eax, DWORD PTR _show_co_pilot_head$[ebp]
  00098	83 e0 01	 and	 eax, 1
  0009b	8b 4d c8	 mov	 ecx, DWORD PTR _search$[ebp+4]
  0009e	8b 51 08	 mov	 edx, DWORD PTR [ecx+8]
  000a1	83 e2 fe	 and	 edx, -2			; fffffffeH
  000a4	0b d0		 or	 edx, eax
  000a6	8b 45 c8	 mov	 eax, DWORD PTR _search$[ebp+4]
  000a9	89 50 08	 mov	 DWORD PTR [eax+8], edx

; 2065 : 
; 2066 : 		if (show_co_pilot_head)

  000ac	83 7d fc 00	 cmp	 DWORD PTR _show_co_pilot_head$[ebp], 0
  000b0	74 76		 je	 SHORT $LN10@set_hokum_

; 2067 : 		{
; 2068 : 			if (co_pilot_head_anim_frame != NO_CO_PILOT_HEAD_ANIMATION)

  000b2	f3 0f 10 05 00
	00 00 00	 movss	 xmm0, DWORD PTR ?co_pilot_head_anim_frame@@3MA
  000ba	0f 2e 05 00 00
	00 00		 ucomiss xmm0, DWORD PTR __real@bf800000
  000c1	9f		 lahf
  000c2	f6 c4 44	 test	 ah, 68			; 00000044H
  000c5	7b 20		 jnp	 SHORT $LN7@set_hokum_

; 2069 : 			{
; 2070 : 				animate_entity_simple_keyframed_sub_objects (virtual_cockpit_inst3d, OBJECT_3D_SUB_OBJECT_WSO_HEAD, co_pilot_head_anim_frame);

  000c7	51		 push	 ecx
  000c8	f3 0f 10 05 00
	00 00 00	 movss	 xmm0, DWORD PTR ?co_pilot_head_anim_frame@@3MA
  000d0	f3 0f 11 04 24	 movss	 DWORD PTR [esp], xmm0
  000d5	68 ad 00 00 00	 push	 173			; 000000adH
  000da	a1 00 00 00 00	 mov	 eax, DWORD PTR ?virtual_cockpit_inst3d@@3PAUOBJECT_3D_INSTANCE@@A ; virtual_cockpit_inst3d
  000df	50		 push	 eax
  000e0	e8 00 00 00 00	 call	 ?animate_entity_simple_keyframed_sub_objects@@YGXPAUOBJECT_3D_INSTANCE@@HM@Z ; animate_entity_simple_keyframed_sub_objects

; 2071 : 			}
; 2072 : 			else

  000e5	eb 41		 jmp	 SHORT $LN10@set_hokum_
$LN7@set_hokum_:

; 2073 : 			{
; 2074 : 				if (co_pilot_anim_mode == CO_PILOT_ANIM_MODE_DATUM_AT_REST)

  000e7	83 3d 00 00 00
	00 00		 cmp	 DWORD PTR ?co_pilot_anim_mode@@3W4CO_PILOT_ANIM_MODES@@A, 0
  000ee	75 07		 jne	 SHORT $LN9@set_hokum_

; 2075 : 				{
; 2076 : 					update_co_pilot_head_tilt_animation ();

  000f0	e8 00 00 00 00	 call	 ?update_co_pilot_head_tilt_animation@@YGXXZ ; update_co_pilot_head_tilt_animation

; 2077 : 				}
; 2078 : 				else

  000f5	eb 31		 jmp	 SHORT $LN10@set_hokum_
$LN9@set_hokum_:

; 2079 : 				{
; 2080 : 					search.result_sub_object->relative_heading = 0.0;

  000f7	8b 45 c8	 mov	 eax, DWORD PTR _search$[ebp+4]
  000fa	0f 57 c0	 xorps	 xmm0, xmm0
  000fd	f3 0f 11 40 18	 movss	 DWORD PTR [eax+24], xmm0

; 2081 : 					search.result_sub_object->relative_pitch = co_pilot_head_pitch_datum;

  00102	8b 45 c8	 mov	 eax, DWORD PTR _search$[ebp+4]
  00105	f3 0f 10 05 00
	00 00 00	 movss	 xmm0, DWORD PTR ?co_pilot_head_pitch_datum@@3MA
  0010d	f3 0f 11 40 1c	 movss	 DWORD PTR [eax+28], xmm0

; 2082 : 					search.result_sub_object->relative_roll = 0.0;

  00112	8b 45 c8	 mov	 eax, DWORD PTR _search$[ebp+4]
  00115	0f 57 c0	 xorps	 xmm0, xmm0
  00118	f3 0f 11 40 20	 movss	 DWORD PTR [eax+32], xmm0

; 2083 : 
; 2084 : 					previous_co_pilot_head_tilt_angle = 0.0;

  0011d	0f 57 c0	 xorps	 xmm0, xmm0
  00120	f3 0f 11 05 00
	00 00 00	 movss	 DWORD PTR ?previous_co_pilot_head_tilt_angle@@3MA, xmm0
$LN10@set_hokum_:

; 2085 : 				}
; 2086 : 			}
; 2087 : 		}
; 2088 : 	}
; 2089 : 	else

  00128	eb 0d		 jmp	 SHORT $LN5@set_hokum_
$LN4@set_hokum_:

; 2090 : 	{
; 2091 : 		debug_fatal ("Failed to locate co-pilot's head in virtual cockpit");

  0012a	68 00 00 00 00	 push	 OFFSET ??_C@_0DE@MOLAKHGN@Failed?5to?5locate?5co?9pilot?8s?5hea@
  0012f	e8 00 00 00 00	 call	 ?debug_fatal@@YAXPBDZZ	; debug_fatal
  00134	83 c4 04	 add	 esp, 4
$LN5@set_hokum_:

; 2092 : 	}
; 2093 : }

  00137	5f		 pop	 edi
  00138	5e		 pop	 esi
  00139	5b		 pop	 ebx
  0013a	8b e5		 mov	 esp, ebp
  0013c	5d		 pop	 ebp
  0013d	c3		 ret	 0
?set_hokum_co_pilot_head_position@@YGXXZ ENDP		; set_hokum_co_pilot_head_position
_TEXT	ENDS
; Function compile flags: /Odtp /ZI
; File c:\users\nhv90\projects\eech\aphavoc\source\gunships\cockpits\hokum\hk_cpg.c
;	COMDAT ?update_hokum_co_pilot_animation@@YGXXZ
_TEXT	SEGMENT
?update_hokum_co_pilot_animation@@YGXXZ PROC		; update_hokum_co_pilot_animation, COMDAT

; 2030 : {

  00000	55		 push	 ebp
  00001	8b ec		 mov	 ebp, esp
  00003	83 ec 40	 sub	 esp, 64			; 00000040H
  00006	53		 push	 ebx
  00007	56		 push	 esi
  00008	57		 push	 edi

; 2031 : 	ASSERT (get_gunship_entity ());

  00009	83 3d 00 00 00
	00 00		 cmp	 DWORD PTR ?gunship_entity@@3PAUENTITY@@A, 0 ; gunship_entity
  00010	75 18		 jne	 SHORT $LN2@update_hok
  00012	a1 00 00 00 00	 mov	 eax, DWORD PTR ?__LINE__Var@?0??update_hokum_co_pilot_animation@@YGXXZ@4JA
  00017	83 c0 01	 add	 eax, 1
  0001a	50		 push	 eax
  0001b	68 00 00 00 00	 push	 OFFSET ??_C@_0EN@HGKDONEK@c?3?2users?2nhv90?2projects?2eech?2ap@
  00020	68 00 00 00 00	 push	 OFFSET ??_C@_0BG@EANNPEON@get_gunship_entity?5?$CI?$CJ@
  00025	e8 00 00 00 00	 call	 ?process_assert@@YGXPBD0H@Z ; process_assert
$LN2@update_hok:

; 2032 : 
; 2033 : 	ASSERT (current_flight_dynamics);

  0002a	83 3d 00 00 00
	00 00		 cmp	 DWORD PTR ?current_flight_dynamics@@3PAUDYNAMICS_TYPE@@A, 0 ; current_flight_dynamics
  00031	75 18		 jne	 SHORT $LN3@update_hok
  00033	a1 00 00 00 00	 mov	 eax, DWORD PTR ?__LINE__Var@?0??update_hokum_co_pilot_animation@@YGXXZ@4JA
  00038	83 c0 03	 add	 eax, 3
  0003b	50		 push	 eax
  0003c	68 00 00 00 00	 push	 OFFSET ??_C@_0EN@HGKDONEK@c?3?2users?2nhv90?2projects?2eech?2ap@
  00041	68 00 00 00 00	 push	 OFFSET ??_C@_0BI@CKBJIOHI@current_flight_dynamics@
  00046	e8 00 00 00 00	 call	 ?process_assert@@YGXPBD0H@Z ; process_assert
$LN3@update_hok:

; 2034 : 
; 2035 : 	ASSERT (virtual_cockpit_inst3d);

  0004b	83 3d 00 00 00
	00 00		 cmp	 DWORD PTR ?virtual_cockpit_inst3d@@3PAUOBJECT_3D_INSTANCE@@A, 0 ; virtual_cockpit_inst3d
  00052	75 18		 jne	 SHORT $LN4@update_hok
  00054	a1 00 00 00 00	 mov	 eax, DWORD PTR ?__LINE__Var@?0??update_hokum_co_pilot_animation@@YGXXZ@4JA
  00059	83 c0 05	 add	 eax, 5
  0005c	50		 push	 eax
  0005d	68 00 00 00 00	 push	 OFFSET ??_C@_0EN@HGKDONEK@c?3?2users?2nhv90?2projects?2eech?2ap@
  00062	68 00 00 00 00	 push	 OFFSET ??_C@_0BH@OJOOJLIP@virtual_cockpit_inst3d@
  00067	e8 00 00 00 00	 call	 ?process_assert@@YGXPBD0H@Z ; process_assert
$LN4@update_hok:

; 2036 : 
; 2037 : 	update_co_pilot_animation ();

  0006c	e8 00 00 00 00	 call	 ?update_co_pilot_animation@@YGXXZ ; update_co_pilot_animation

; 2038 : }

  00071	5f		 pop	 edi
  00072	5e		 pop	 esi
  00073	5b		 pop	 ebx
  00074	8b e5		 mov	 esp, ebp
  00076	5d		 pop	 ebp
  00077	c3		 ret	 0
?update_hokum_co_pilot_animation@@YGXXZ ENDP		; update_hokum_co_pilot_animation
_TEXT	ENDS
; Function compile flags: /Odtp /ZI
; File c:\users\nhv90\projects\eech\aphavoc\source\gunships\cockpits\hokum\hk_cpg.c
;	COMDAT ?deinitialise_hokum_co_pilot_animation@@YGXXZ
_TEXT	SEGMENT
?deinitialise_hokum_co_pilot_animation@@YGXXZ PROC	; deinitialise_hokum_co_pilot_animation, COMDAT

; 2022 : {

  00000	55		 push	 ebp
  00001	8b ec		 mov	 ebp, esp
  00003	83 ec 40	 sub	 esp, 64			; 00000040H
  00006	53		 push	 ebx
  00007	56		 push	 esi
  00008	57		 push	 edi

; 2023 : }

  00009	5f		 pop	 edi
  0000a	5e		 pop	 esi
  0000b	5b		 pop	 ebx
  0000c	8b e5		 mov	 esp, ebp
  0000e	5d		 pop	 ebp
  0000f	c3		 ret	 0
?deinitialise_hokum_co_pilot_animation@@YGXXZ ENDP	; deinitialise_hokum_co_pilot_animation
_TEXT	ENDS
; Function compile flags: /Odtp /ZI
; File c:\users\nhv90\projects\eech\aphavoc\source\gunships\cockpits\hokum\hk_cpg.c
;	COMDAT ?initialise_hokum_co_pilot_animation@@YGXXZ
_TEXT	SEGMENT
?initialise_hokum_co_pilot_animation@@YGXXZ PROC	; initialise_hokum_co_pilot_animation, COMDAT

; 1987 : {

  00000	55		 push	 ebp
  00001	8b ec		 mov	 ebp, esp
  00003	83 ec 40	 sub	 esp, 64			; 00000040H
  00006	53		 push	 ebx
  00007	56		 push	 esi
  00008	57		 push	 edi

; 1988 : 	#if DEBUG_MODULE
; 1989 : 
; 1990 : 	debug_colour_watch (COLOUR_AMBER, "co_pilot_anim_mode = %d", MT_INT, &co_pilot_anim_mode);
; 1991 : 	debug_colour_watch (COLOUR_AMBER, "co_pilot_anim_frame = %.2f", MT_FLOAT, &co_pilot_anim_frame);
; 1992 : 	debug_colour_watch (COLOUR_AMBER, "co_pilot_anim_delay = %.2f", MT_FLOAT, &co_pilot_anim_delay);
; 1993 : 
; 1994 : 	debug_colour_watch (COLOUR_AMBER, "co_pilot_head_anim_frame = %.2f", MT_FLOAT, &co_pilot_head_anim_frame);
; 1995 : 	debug_colour_watch (COLOUR_AMBER, "co_pilot_head_anim_pause = %.2f", MT_FLOAT, &co_pilot_head_anim_pause);
; 1996 : 
; 1997 : 	debug_colour_watch (COLOUR_AMBER, "night_vision_system_active = %d", MT_INT, &night_vision_system_active);
; 1998 : 	debug_colour_watch (COLOUR_AMBER, "co_pilot_nvg_anim_frame = %.2f", MT_FLOAT, &co_pilot_nvg_anim_frame);
; 1999 : 
; 2000 : 	#endif
; 2001 : 
; 2002 : 	co_pilot_anim_mode						= CO_PILOT_ANIM_MODE_DATUM_AT_REST;

  00009	c7 05 00 00 00
	00 00 00 00 00	 mov	 DWORD PTR ?co_pilot_anim_mode@@3W4CO_PILOT_ANIM_MODES@@A, 0

; 2003 : 	co_pilot_anim_frame						= 0.0;

  00013	0f 57 c0	 xorps	 xmm0, xmm0
  00016	f3 0f 11 05 00
	00 00 00	 movss	 DWORD PTR ?co_pilot_anim_frame@@3MA, xmm0

; 2004 : 	co_pilot_anim_delay						= get_reset_co_pilot_anim_delay ();

  0001e	e8 00 00 00 00	 call	 ?get_reset_co_pilot_anim_delay@@YGMXZ ; get_reset_co_pilot_anim_delay
  00023	d9 1d 00 00 00
	00		 fstp	 DWORD PTR ?co_pilot_anim_delay@@3MA

; 2005 : 
; 2006 : 	co_pilot_head_anim_frame				= NO_CO_PILOT_HEAD_ANIMATION;

  00029	f3 0f 10 05 00
	00 00 00	 movss	 xmm0, DWORD PTR __real@bf800000
  00031	f3 0f 11 05 00
	00 00 00	 movss	 DWORD PTR ?co_pilot_head_anim_frame@@3MA, xmm0

; 2007 : 	co_pilot_head_anim_pause				= 0.0;

  00039	0f 57 c0	 xorps	 xmm0, xmm0
  0003c	f3 0f 11 05 00
	00 00 00	 movss	 DWORD PTR ?co_pilot_head_anim_pause@@3MA, xmm0

; 2008 : 
; 2009 : 	previous_co_pilot_head_tilt_angle	= 0.0;

  00044	0f 57 c0	 xorps	 xmm0, xmm0
  00047	f3 0f 11 05 00
	00 00 00	 movss	 DWORD PTR ?previous_co_pilot_head_tilt_angle@@3MA, xmm0

; 2010 : 
; 2011 : 	co_pilot_nvg_anim_frame					= NVG_OFF;

  0004f	0f 57 c0	 xorps	 xmm0, xmm0
  00052	f3 0f 11 05 00
	00 00 00	 movss	 DWORD PTR ?co_pilot_nvg_anim_frame@@3MA, xmm0

; 2012 : 
; 2013 : 	eject_timer									= 0.0;

  0005a	0f 57 c0	 xorps	 xmm0, xmm0
  0005d	f3 0f 11 05 00
	00 00 00	 movss	 DWORD PTR ?eject_timer@@3MA, xmm0

; 2014 : 	eject_stage									= 0;

  00065	c7 05 00 00 00
	00 00 00 00 00	 mov	 DWORD PTR ?eject_stage@@3HA, 0

; 2015 : }

  0006f	5f		 pop	 edi
  00070	5e		 pop	 esi
  00071	5b		 pop	 ebx
  00072	8b e5		 mov	 esp, ebp
  00074	5d		 pop	 ebp
  00075	c3		 ret	 0
?initialise_hokum_co_pilot_animation@@YGXXZ ENDP	; initialise_hokum_co_pilot_animation
_TEXT	ENDS
END
