; Listing generated by Microsoft (R) Optimizing Compiler Version 19.16.27045.0 

	TITLE	C:\Users\nhv90\Projects\eech\aphavoc\source\gunships\avionics\hokum\hk_dam.c
	.686P
	.XMM
	include listing.inc
	.model	flat

INCLUDELIB MSVCRTD
INCLUDELIB OLDNAMES

PUBLIC	?hokum_damage@@3THOKUM_DAMAGE_FLAGS@@A		; hokum_damage
_BSS	SEGMENT
?hokum_damage@@3THOKUM_DAMAGE_FLAGS@@A DD 01H DUP (?)	; hokum_damage
_BSS	ENDS
PUBLIC	?set_hokum_weapon_damage_status@@YGXXZ		; set_hokum_weapon_damage_status
PUBLIC	?fully_repair_hokum_damage@@YGXXZ		; fully_repair_hokum_damage
PUBLIC	?partially_repair_hokum_damage@@YGXXZ		; partially_repair_hokum_damage
PUBLIC	?repair_hokum_weapon_damage@@YGXXZ		; repair_hokum_weapon_damage
PUBLIC	?damage_hokum@@YGXW4GUNSHIP_DAMAGE_LEVELS@@@Z	; damage_hokum
PUBLIC	?notify_hokum_avionics_of_dynamics_fault@@YGXI@Z ; notify_hokum_avionics_of_dynamics_fault
PUBLIC	?__LINE__Var@?0??set_hokum_weapon_damage_status@@YGXXZ@4JA ; `set_hokum_weapon_damage_status'::`1'::__LINE__Var
PUBLIC	??_C@_0EN@KJEBDNBA@c?3?2users?2nhv90?2projects?2eech?2ap@ ; `string'
PUBLIC	??_C@_00CNPNBAHC@@				; `string'
PUBLIC	?__LINE__Var@?0??damage_systems@@YGXTHOKUM_DAMAGE_FLAGS@@@Z@4JA ; `damage_systems'::`1'::__LINE__Var
PUBLIC	??_C@_07DMOCMFND@FAILURE@			; `string'
PUBLIC	??_C@_05IHELJBBC@RADAR@				; `string'
PUBLIC	??_C@_04MIGKMLBH@FLIR@				; `string'
PUBLIC	??_C@_05PNDCLKDI@LLLTV@				; `string'
PUBLIC	??_C@_07OHKEFPKJ@DAMAGED@			; `string'
PUBLIC	??_C@_09EAHIBGMD@PERISCOPE@			; `string'
PUBLIC	??_C@_0L@JBDOHACD@DESIGNATOR@			; `string'
PUBLIC	??_C@_05HEFADFAD@LASER@				; `string'
PUBLIC	??_C@_06HBCNLPJK@JAMMER@			; `string'
PUBLIC	??_C@_09MILGCPFO@IR?5JAMMER@			; `string'
PUBLIC	??_C@_08GNEGLACP@COMPUTER@			; `string'
PUBLIC	??_C@_0L@CNLPLFKK@NAVIGATION@			; `string'
PUBLIC	??_C@_05JNPIHJOC@COMMS@				; `string'
PUBLIC	??_C@_07KCOHIFOP@WARNING@			; `string'
PUBLIC	??_C@_03HOHJDGGL@HUD@				; `string'
PUBLIC	??_C@_03GJMPEADF@HMS@				; `string'
PUBLIC	??_C@_03FHMHNLHA@MFD@				; `string'
PUBLIC	??_C@_03HCHJIECN@NVG@				; `string'
PUBLIC	??_C@_06GNLFAKEN@JAMMED@			; `string'
PUBLIC	??_C@_03NMPFMOLH@GUN@				; `string'
PUBLIC	??_C@_09GLFEIKAK@HARDPOINT@			; `string'
PUBLIC	??_C@_09JOFLDFNL@DISPENSER@			; `string'
PUBLIC	??_C@_05FOOOBDLP@CHAFF@				; `string'
PUBLIC	??_C@_05MLKBHMKD@FLARE@				; `string'
PUBLIC	??_C@_0BK@EECAIEOA@Invalid?5damage_level?5?$DN?5?$CFd@ ; `string'
PUBLIC	??_C@_0L@FFIGCBMA@MAIN?5ROTOR@			; `string'
PUBLIC	??_C@_0L@MCBINMPD@TAIL?5ROTOR@			; `string'
PUBLIC	??_C@_06LKDHJJCH@ENGINE@			; `string'
PUBLIC	??_C@_04KCNEHMIH@LEFT@				; `string'
PUBLIC	??_C@_05PMAFOJDE@RIGHT@				; `string'
PUBLIC	??_C@_04OKEEPDCC@FIRE@				; `string'
PUBLIC	??_C@_03IBEFMGAI@LOW@				; `string'
PUBLIC	??_C@_08IBNIHFAO@PRESSURE@			; `string'
PUBLIC	??_C@_0L@POFMFPD@HYDRAULICS@			; `string'
PUBLIC	??_C@_09HAMKJKBK@SECONDARY@			; `string'
PUBLIC	??_C@_0L@LMAEBBOE@STABILISER@			; `string'
PUBLIC	??_C@_09BHCFOJL@FUEL?5LEAK@			; `string'
PUBLIC	??_C@_07GGBGBLMC@LOW?5OIL@			; `string'
PUBLIC	??_C@_08JPIIBFH@HIGH?5OIL@			; `string'
PUBLIC	??_C@_04IGBBPMJF@GEAR@				; `string'
PUBLIC	__real@3f00002000400080
PUBLIC	__real@3feccccccccccccd
EXTRN	?process_assert@@YGXPBD0H@Z:PROC		; process_assert
EXTRN	?debug_fatal@@YAXPBDZZ:PROC			; debug_fatal
EXTRN	?set_client_server_entity_weapon_damage@@YGXPAUENTITY@@HHH@Z:PROC ; set_client_server_entity_weapon_damage
EXTRN	?get_next_available_weapon_sub_type@@YGHPAUENTITY@@@Z:PROC ; get_next_available_weapon_sub_type
EXTRN	?get_local_entity_weapon_available@@YGHPAUENTITY@@H@Z:PROC ; get_local_entity_weapon_available
EXTRN	?play_client_server_warning_message@@YGHPAUENTITY@@H@Z:PROC ; play_client_server_warning_message
EXTRN	?set_laser_is_active@@YGXH@Z:PROC		; set_laser_is_active
EXTRN	?set_ground_radar_is_active@@YGXH@Z:PROC	; set_ground_radar_is_active
EXTRN	?set_air_radar_is_active@@YGXH@Z:PROC		; set_air_radar_is_active
EXTRN	?set_gunship_weapon@@YGXH@Z:PROC		; set_gunship_weapon
EXTRN	?activate_hokum_master_caution@@YGXXZ:PROC	; activate_hokum_master_caution
EXTRN	?set_hokum_text_display_text@@YGXPAD00@Z:PROC	; set_hokum_text_display_text
EXTRN	?select_hokum_mfd_mode@@YGXW4HOKUM_MFD_MODES@@W4HOKUM_MFD_LOCATIONS@@@Z:PROC ; select_hokum_mfd_mode
EXTRN	?select_hokum_target_acquisition_system@@YGXW4TARGET_ACQUISITION_SYSTEMS@@@Z:PROC ; select_hokum_target_acquisition_system
EXTRN	?dynamics_damage_model@@YGXIH@Z:PROC		; dynamics_damage_model
EXTRN	?random_number_seed@@3HA:DWORD			; random_number_seed
EXTRN	?null_entity_pointer_message@@3PBDB:DWORD	; null_entity_pointer_message
EXTRN	?global_options@@3UGLOBAL_OPTIONS_DATA@@A:BYTE	; global_options
EXTRN	?system_comms_model@@3W4COMMS_MODEL_TYPES@@A:DWORD ; system_comms_model
EXTRN	?overload_invalid_int_type_message@@3PBDB:DWORD	; overload_invalid_int_type_message
EXTRN	?fn_set_client_server_entity_int_value@@3PAY1BBH@1P6GXPAUENTITY@@W4INT_TYPES@@H@ZA:BYTE ; fn_set_client_server_entity_int_value
EXTRN	?fn_get_local_entity_int_value@@3PAY0BBH@P6GHPAUENTITY@@W4INT_TYPES@@@ZA:BYTE ; fn_get_local_entity_int_value
EXTRN	?gunship_entity@@3PAUENTITY@@A:DWORD		; gunship_entity
EXTRN	?target_acquisition_system@@3W4TARGET_ACQUISITION_SYSTEMS@@A:DWORD ; target_acquisition_system
EXTRN	?fire_extinguisher_used@@3HA:DWORD		; fire_extinguisher_used
EXTRN	?night_vision_system_active@@3HA:DWORD		; night_vision_system_active
EXTRN	__fltused:DWORD
;	COMDAT __real@3feccccccccccccd
CONST	SEGMENT
__real@3feccccccccccccd DQ 03feccccccccccccdr	; 0.9
CONST	ENDS
;	COMDAT __real@3f00002000400080
CONST	SEGMENT
__real@3f00002000400080 DQ 03f00002000400080r	; 3.05185e-05
CONST	ENDS
;	COMDAT ??_C@_04IGBBPMJF@GEAR@
CONST	SEGMENT
??_C@_04IGBBPMJF@GEAR@ DB 'GEAR', 00H			; `string'
CONST	ENDS
;	COMDAT ??_C@_08JPIIBFH@HIGH?5OIL@
CONST	SEGMENT
??_C@_08JPIIBFH@HIGH?5OIL@ DB 'HIGH OIL', 00H		; `string'
CONST	ENDS
;	COMDAT ??_C@_07GGBGBLMC@LOW?5OIL@
CONST	SEGMENT
??_C@_07GGBGBLMC@LOW?5OIL@ DB 'LOW OIL', 00H		; `string'
CONST	ENDS
;	COMDAT ??_C@_09BHCFOJL@FUEL?5LEAK@
CONST	SEGMENT
??_C@_09BHCFOJL@FUEL?5LEAK@ DB 'FUEL LEAK', 00H		; `string'
CONST	ENDS
;	COMDAT ??_C@_0L@LMAEBBOE@STABILISER@
CONST	SEGMENT
??_C@_0L@LMAEBBOE@STABILISER@ DB 'STABILISER', 00H	; `string'
CONST	ENDS
;	COMDAT ??_C@_09HAMKJKBK@SECONDARY@
CONST	SEGMENT
??_C@_09HAMKJKBK@SECONDARY@ DB 'SECONDARY', 00H		; `string'
CONST	ENDS
;	COMDAT ??_C@_0L@POFMFPD@HYDRAULICS@
CONST	SEGMENT
??_C@_0L@POFMFPD@HYDRAULICS@ DB 'HYDRAULICS', 00H	; `string'
CONST	ENDS
;	COMDAT ??_C@_08IBNIHFAO@PRESSURE@
CONST	SEGMENT
??_C@_08IBNIHFAO@PRESSURE@ DB 'PRESSURE', 00H		; `string'
CONST	ENDS
;	COMDAT ??_C@_03IBEFMGAI@LOW@
CONST	SEGMENT
??_C@_03IBEFMGAI@LOW@ DB 'LOW', 00H			; `string'
CONST	ENDS
;	COMDAT ??_C@_04OKEEPDCC@FIRE@
CONST	SEGMENT
??_C@_04OKEEPDCC@FIRE@ DB 'FIRE', 00H			; `string'
CONST	ENDS
;	COMDAT ??_C@_05PMAFOJDE@RIGHT@
CONST	SEGMENT
??_C@_05PMAFOJDE@RIGHT@ DB 'RIGHT', 00H			; `string'
CONST	ENDS
;	COMDAT ??_C@_04KCNEHMIH@LEFT@
CONST	SEGMENT
??_C@_04KCNEHMIH@LEFT@ DB 'LEFT', 00H			; `string'
CONST	ENDS
;	COMDAT ??_C@_06LKDHJJCH@ENGINE@
CONST	SEGMENT
??_C@_06LKDHJJCH@ENGINE@ DB 'ENGINE', 00H		; `string'
CONST	ENDS
;	COMDAT ??_C@_0L@MCBINMPD@TAIL?5ROTOR@
CONST	SEGMENT
??_C@_0L@MCBINMPD@TAIL?5ROTOR@ DB 'TAIL ROTOR', 00H	; `string'
CONST	ENDS
;	COMDAT ??_C@_0L@FFIGCBMA@MAIN?5ROTOR@
CONST	SEGMENT
??_C@_0L@FFIGCBMA@MAIN?5ROTOR@ DB 'MAIN ROTOR', 00H	; `string'
CONST	ENDS
;	COMDAT ??_C@_0BK@EECAIEOA@Invalid?5damage_level?5?$DN?5?$CFd@
CONST	SEGMENT
??_C@_0BK@EECAIEOA@Invalid?5damage_level?5?$DN?5?$CFd@ DB 'Invalid damage'
	DB	'_level = %d', 00H				; `string'
CONST	ENDS
;	COMDAT ??_C@_05MLKBHMKD@FLARE@
CONST	SEGMENT
??_C@_05MLKBHMKD@FLARE@ DB 'FLARE', 00H			; `string'
CONST	ENDS
;	COMDAT ??_C@_05FOOOBDLP@CHAFF@
CONST	SEGMENT
??_C@_05FOOOBDLP@CHAFF@ DB 'CHAFF', 00H			; `string'
CONST	ENDS
;	COMDAT ??_C@_09JOFLDFNL@DISPENSER@
CONST	SEGMENT
??_C@_09JOFLDFNL@DISPENSER@ DB 'DISPENSER', 00H		; `string'
CONST	ENDS
;	COMDAT ??_C@_09GLFEIKAK@HARDPOINT@
CONST	SEGMENT
??_C@_09GLFEIKAK@HARDPOINT@ DB 'HARDPOINT', 00H		; `string'
CONST	ENDS
;	COMDAT ??_C@_03NMPFMOLH@GUN@
CONST	SEGMENT
??_C@_03NMPFMOLH@GUN@ DB 'GUN', 00H			; `string'
CONST	ENDS
;	COMDAT ??_C@_06GNLFAKEN@JAMMED@
CONST	SEGMENT
??_C@_06GNLFAKEN@JAMMED@ DB 'JAMMED', 00H		; `string'
CONST	ENDS
;	COMDAT ??_C@_03HCHJIECN@NVG@
CONST	SEGMENT
??_C@_03HCHJIECN@NVG@ DB 'NVG', 00H			; `string'
CONST	ENDS
;	COMDAT ??_C@_03FHMHNLHA@MFD@
CONST	SEGMENT
??_C@_03FHMHNLHA@MFD@ DB 'MFD', 00H			; `string'
CONST	ENDS
;	COMDAT ??_C@_03GJMPEADF@HMS@
CONST	SEGMENT
??_C@_03GJMPEADF@HMS@ DB 'HMS', 00H			; `string'
CONST	ENDS
;	COMDAT ??_C@_03HOHJDGGL@HUD@
CONST	SEGMENT
??_C@_03HOHJDGGL@HUD@ DB 'HUD', 00H			; `string'
CONST	ENDS
;	COMDAT ??_C@_07KCOHIFOP@WARNING@
CONST	SEGMENT
??_C@_07KCOHIFOP@WARNING@ DB 'WARNING', 00H		; `string'
CONST	ENDS
;	COMDAT ??_C@_05JNPIHJOC@COMMS@
CONST	SEGMENT
??_C@_05JNPIHJOC@COMMS@ DB 'COMMS', 00H			; `string'
CONST	ENDS
;	COMDAT ??_C@_0L@CNLPLFKK@NAVIGATION@
CONST	SEGMENT
??_C@_0L@CNLPLFKK@NAVIGATION@ DB 'NAVIGATION', 00H	; `string'
CONST	ENDS
;	COMDAT ??_C@_08GNEGLACP@COMPUTER@
CONST	SEGMENT
??_C@_08GNEGLACP@COMPUTER@ DB 'COMPUTER', 00H		; `string'
CONST	ENDS
;	COMDAT ??_C@_09MILGCPFO@IR?5JAMMER@
CONST	SEGMENT
??_C@_09MILGCPFO@IR?5JAMMER@ DB 'IR JAMMER', 00H	; `string'
CONST	ENDS
;	COMDAT ??_C@_06HBCNLPJK@JAMMER@
CONST	SEGMENT
??_C@_06HBCNLPJK@JAMMER@ DB 'JAMMER', 00H		; `string'
CONST	ENDS
;	COMDAT ??_C@_05HEFADFAD@LASER@
CONST	SEGMENT
??_C@_05HEFADFAD@LASER@ DB 'LASER', 00H			; `string'
CONST	ENDS
;	COMDAT ??_C@_0L@JBDOHACD@DESIGNATOR@
CONST	SEGMENT
??_C@_0L@JBDOHACD@DESIGNATOR@ DB 'DESIGNATOR', 00H	; `string'
CONST	ENDS
;	COMDAT ??_C@_09EAHIBGMD@PERISCOPE@
CONST	SEGMENT
??_C@_09EAHIBGMD@PERISCOPE@ DB 'PERISCOPE', 00H		; `string'
CONST	ENDS
;	COMDAT ??_C@_07OHKEFPKJ@DAMAGED@
CONST	SEGMENT
??_C@_07OHKEFPKJ@DAMAGED@ DB 'DAMAGED', 00H		; `string'
CONST	ENDS
;	COMDAT ??_C@_05PNDCLKDI@LLLTV@
CONST	SEGMENT
??_C@_05PNDCLKDI@LLLTV@ DB 'LLLTV', 00H			; `string'
CONST	ENDS
;	COMDAT ??_C@_04MIGKMLBH@FLIR@
CONST	SEGMENT
??_C@_04MIGKMLBH@FLIR@ DB 'FLIR', 00H			; `string'
CONST	ENDS
;	COMDAT ??_C@_05IHELJBBC@RADAR@
CONST	SEGMENT
??_C@_05IHELJBBC@RADAR@ DB 'RADAR', 00H			; `string'
CONST	ENDS
;	COMDAT ??_C@_07DMOCMFND@FAILURE@
CONST	SEGMENT
??_C@_07DMOCMFND@FAILURE@ DB 'FAILURE', 00H		; `string'
CONST	ENDS
;	COMDAT ?__LINE__Var@?0??damage_systems@@YGXTHOKUM_DAMAGE_FLAGS@@@Z@4JA
_DATA	SEGMENT
?__LINE__Var@?0??damage_systems@@YGXTHOKUM_DAMAGE_FLAGS@@@Z@4JA DD 01feH ; `damage_systems'::`1'::__LINE__Var
_DATA	ENDS
;	COMDAT ??_C@_00CNPNBAHC@@
CONST	SEGMENT
??_C@_00CNPNBAHC@@ DB 00H				; `string'
CONST	ENDS
;	COMDAT ??_C@_0EN@KJEBDNBA@c?3?2users?2nhv90?2projects?2eech?2ap@
CONST	SEGMENT
??_C@_0EN@KJEBDNBA@c?3?2users?2nhv90?2projects?2eech?2ap@ DB 'c:\users\nh'
	DB	'v90\projects\eech\aphavoc\source\gunships\avionics\hokum\hk_d'
	DB	'am.c', 00H					; `string'
CONST	ENDS
;	COMDAT ?__LINE__Var@?0??set_hokum_weapon_damage_status@@YGXXZ@4JA
_DATA	SEGMENT
?__LINE__Var@?0??set_hokum_weapon_damage_status@@YGXXZ@4JA DD 057H ; `set_hokum_weapon_damage_status'::`1'::__LINE__Var
_DATA	ENDS
; Function compile flags: /Odtp /ZI
; File c:\users\nhv90\projects\eech\aphavoc\source\gunships\avionics\hokum\hk_dam.c
;	COMDAT ?damage_systems@@YGXTHOKUM_DAMAGE_FLAGS@@@Z
_TEXT	SEGMENT
tv278 = -76						; size = 4
tv257 = -76						; size = 4
tv223 = -76						; size = 4
tv202 = -76						; size = 4
tv270 = -72						; size = 4
tv250 = -72						; size = 4
tv215 = -72						; size = 4
tv195 = -72						; size = 4
_en$ = -4						; size = 4
_damage$ = 8						; size = 4
?damage_systems@@YGXTHOKUM_DAMAGE_FLAGS@@@Z PROC	; damage_systems, COMDAT

; 510  : {

  00000	55		 push	 ebp
  00001	8b ec		 mov	 ebp, esp
  00003	83 ec 4c	 sub	 esp, 76			; 0000004cH
  00006	53		 push	 ebx
  00007	56		 push	 esi
  00008	57		 push	 edi

; 511  : 	entity
; 512  : 		*en;
; 513  : 
; 514  : 	en = get_gunship_entity ();

  00009	a1 00 00 00 00	 mov	 eax, DWORD PTR ?gunship_entity@@3PAUENTITY@@A ; gunship_entity
  0000e	89 45 fc	 mov	 DWORD PTR _en$[ebp], eax

; 515  : 
; 516  : 	////////////////////////////////////////
; 517  : 
; 518  : 	if (damage.radar)

  00011	8b 45 08	 mov	 eax, DWORD PTR _damage$[ebp]
  00014	83 e0 01	 and	 eax, 1
  00017	74 6e		 je	 SHORT $LN2@damage_sys

; 519  : 	{
; 520  : 		if (!hokum_damage.radar)

  00019	a1 00 00 00 00	 mov	 eax, DWORD PTR ?hokum_damage@@3THOKUM_DAMAGE_FLAGS@@A ; hokum_damage
  0001e	83 e0 01	 and	 eax, 1
  00021	75 64		 jne	 SHORT $LN2@damage_sys

; 521  : 		{
; 522  : 			activate_hokum_master_caution ();

  00023	e8 00 00 00 00	 call	 ?activate_hokum_master_caution@@YGXXZ ; activate_hokum_master_caution

; 523  : 
; 524  : 			hokum_damage.radar = TRUE;

  00028	a1 00 00 00 00	 mov	 eax, DWORD PTR ?hokum_damage@@3THOKUM_DAMAGE_FLAGS@@A ; hokum_damage
  0002d	83 c8 01	 or	 eax, 1
  00030	a3 00 00 00 00	 mov	 DWORD PTR ?hokum_damage@@3THOKUM_DAMAGE_FLAGS@@A, eax ; hokum_damage

; 525  : 
; 526  : 			dynamics_damage_model (DYNAMICS_DAMAGE_AVIONICS, FALSE);

  00035	6a 00		 push	 0
  00037	68 00 10 00 00	 push	 4096			; 00001000H
  0003c	e8 00 00 00 00	 call	 ?dynamics_damage_model@@YGXIH@Z ; dynamics_damage_model

; 527  : 
; 528  : 			set_ground_radar_is_active(FALSE);

  00041	6a 00		 push	 0
  00043	e8 00 00 00 00	 call	 ?set_ground_radar_is_active@@YGXH@Z ; set_ground_radar_is_active

; 529  : 			set_air_radar_is_active(FALSE);

  00048	6a 00		 push	 0
  0004a	e8 00 00 00 00	 call	 ?set_air_radar_is_active@@YGXH@Z ; set_air_radar_is_active

; 530  : 
; 531  : 			set_hokum_text_display_text ("RADAR", "FAILURE", "");

  0004f	68 00 00 00 00	 push	 OFFSET ??_C@_00CNPNBAHC@@
  00054	68 00 00 00 00	 push	 OFFSET ??_C@_07DMOCMFND@FAILURE@
  00059	68 00 00 00 00	 push	 OFFSET ??_C@_05IHELJBBC@RADAR@
  0005e	e8 00 00 00 00	 call	 ?set_hokum_text_display_text@@YGXPAD00@Z ; set_hokum_text_display_text

; 532  : 
; 533  : 			play_client_server_warning_message (en, SPEECH_SYSTEM_RADAR_FAILURE);

  00063	6a 00		 push	 0
  00065	8b 45 fc	 mov	 eax, DWORD PTR _en$[ebp]
  00068	50		 push	 eax
  00069	e8 00 00 00 00	 call	 ?play_client_server_warning_message@@YGHPAUENTITY@@H@Z ; play_client_server_warning_message

; 534  : 
; 535  : 			if
; 536  : 			(
; 537  : 				(target_acquisition_system == TARGET_ACQUISITION_SYSTEM_GROUND_RADAR) ||

  0006e	83 3d 00 00 00
	00 01		 cmp	 DWORD PTR ?target_acquisition_system@@3W4TARGET_ACQUISITION_SYSTEMS@@A, 1 ; target_acquisition_system
  00075	74 09		 je	 SHORT $LN5@damage_sys
  00077	83 3d 00 00 00
	00 02		 cmp	 DWORD PTR ?target_acquisition_system@@3W4TARGET_ACQUISITION_SYSTEMS@@A, 2 ; target_acquisition_system
  0007e	75 07		 jne	 SHORT $LN2@damage_sys
$LN5@damage_sys:

; 538  : 				(target_acquisition_system == TARGET_ACQUISITION_SYSTEM_AIR_RADAR)
; 539  : 			)
; 540  : 			{
; 541  : 				select_hokum_target_acquisition_system (TARGET_ACQUISITION_SYSTEM_OFF);

  00080	6a 00		 push	 0
  00082	e8 00 00 00 00	 call	 ?select_hokum_target_acquisition_system@@YGXW4TARGET_ACQUISITION_SYSTEMS@@@Z ; select_hokum_target_acquisition_system
$LN2@damage_sys:

; 542  : 			}
; 543  : 		}
; 544  : 	}
; 545  : 
; 546  : 	////////////////////////////////////////
; 547  : 
; 548  : 	if (damage.flir)

  00087	8b 45 08	 mov	 eax, DWORD PTR _damage$[ebp]
  0008a	d1 e8		 shr	 eax, 1
  0008c	83 e0 01	 and	 eax, 1
  0008f	74 59		 je	 SHORT $LN6@damage_sys

; 549  : 	{
; 550  : 		if (!hokum_damage.flir)

  00091	a1 00 00 00 00	 mov	 eax, DWORD PTR ?hokum_damage@@3THOKUM_DAMAGE_FLAGS@@A ; hokum_damage
  00096	d1 e8		 shr	 eax, 1
  00098	83 e0 01	 and	 eax, 1
  0009b	75 4d		 jne	 SHORT $LN6@damage_sys

; 551  : 		{
; 552  : 			activate_hokum_master_caution ();

  0009d	e8 00 00 00 00	 call	 ?activate_hokum_master_caution@@YGXXZ ; activate_hokum_master_caution

; 553  : 
; 554  : 			hokum_damage.flir = TRUE;

  000a2	a1 00 00 00 00	 mov	 eax, DWORD PTR ?hokum_damage@@3THOKUM_DAMAGE_FLAGS@@A ; hokum_damage
  000a7	83 c8 02	 or	 eax, 2
  000aa	a3 00 00 00 00	 mov	 DWORD PTR ?hokum_damage@@3THOKUM_DAMAGE_FLAGS@@A, eax ; hokum_damage

; 555  : 
; 556  : 			dynamics_damage_model (DYNAMICS_DAMAGE_AVIONICS, FALSE);

  000af	6a 00		 push	 0
  000b1	68 00 10 00 00	 push	 4096			; 00001000H
  000b6	e8 00 00 00 00	 call	 ?dynamics_damage_model@@YGXIH@Z ; dynamics_damage_model

; 557  : 
; 558  : 			set_hokum_text_display_text ("FLIR", "FAILURE", "");

  000bb	68 00 00 00 00	 push	 OFFSET ??_C@_00CNPNBAHC@@
  000c0	68 00 00 00 00	 push	 OFFSET ??_C@_07DMOCMFND@FAILURE@
  000c5	68 00 00 00 00	 push	 OFFSET ??_C@_04MIGKMLBH@FLIR@
  000ca	e8 00 00 00 00	 call	 ?set_hokum_text_display_text@@YGXPAD00@Z ; set_hokum_text_display_text

; 559  : 
; 560  : 			play_client_server_warning_message (en, SPEECH_SYSTEM_FLIR_FAILURE);

  000cf	6a 01		 push	 1
  000d1	8b 45 fc	 mov	 eax, DWORD PTR _en$[ebp]
  000d4	50		 push	 eax
  000d5	e8 00 00 00 00	 call	 ?play_client_server_warning_message@@YGHPAUENTITY@@H@Z ; play_client_server_warning_message

; 561  : 
; 562  : 			if (target_acquisition_system == TARGET_ACQUISITION_SYSTEM_FLIR)

  000da	83 3d 00 00 00
	00 03		 cmp	 DWORD PTR ?target_acquisition_system@@3W4TARGET_ACQUISITION_SYSTEMS@@A, 3 ; target_acquisition_system
  000e1	75 07		 jne	 SHORT $LN6@damage_sys

; 563  : 			{
; 564  : 				select_hokum_target_acquisition_system (TARGET_ACQUISITION_SYSTEM_OFF);

  000e3	6a 00		 push	 0
  000e5	e8 00 00 00 00	 call	 ?select_hokum_target_acquisition_system@@YGXW4TARGET_ACQUISITION_SYSTEMS@@@Z ; select_hokum_target_acquisition_system
$LN6@damage_sys:

; 565  : 			}
; 566  : 		}
; 567  : 	}
; 568  : 
; 569  : 	////////////////////////////////////////
; 570  : 
; 571  : 	if (damage.llltv)

  000ea	8b 45 08	 mov	 eax, DWORD PTR _damage$[ebp]
  000ed	c1 e8 03	 shr	 eax, 3
  000f0	83 e0 01	 and	 eax, 1
  000f3	74 5a		 je	 SHORT $LN9@damage_sys

; 572  : 	{
; 573  : 		if (!hokum_damage.llltv)

  000f5	a1 00 00 00 00	 mov	 eax, DWORD PTR ?hokum_damage@@3THOKUM_DAMAGE_FLAGS@@A ; hokum_damage
  000fa	c1 e8 03	 shr	 eax, 3
  000fd	83 e0 01	 and	 eax, 1
  00100	75 4d		 jne	 SHORT $LN9@damage_sys

; 574  : 		{
; 575  : 			activate_hokum_master_caution ();

  00102	e8 00 00 00 00	 call	 ?activate_hokum_master_caution@@YGXXZ ; activate_hokum_master_caution

; 576  : 
; 577  : 			hokum_damage.llltv = TRUE;

  00107	a1 00 00 00 00	 mov	 eax, DWORD PTR ?hokum_damage@@3THOKUM_DAMAGE_FLAGS@@A ; hokum_damage
  0010c	83 c8 08	 or	 eax, 8
  0010f	a3 00 00 00 00	 mov	 DWORD PTR ?hokum_damage@@3THOKUM_DAMAGE_FLAGS@@A, eax ; hokum_damage

; 578  : 
; 579  : 			dynamics_damage_model (DYNAMICS_DAMAGE_AVIONICS, FALSE);

  00114	6a 00		 push	 0
  00116	68 00 10 00 00	 push	 4096			; 00001000H
  0011b	e8 00 00 00 00	 call	 ?dynamics_damage_model@@YGXIH@Z ; dynamics_damage_model

; 580  : 
; 581  : 			set_hokum_text_display_text ("LLLTV", "FAILURE", "");

  00120	68 00 00 00 00	 push	 OFFSET ??_C@_00CNPNBAHC@@
  00125	68 00 00 00 00	 push	 OFFSET ??_C@_07DMOCMFND@FAILURE@
  0012a	68 00 00 00 00	 push	 OFFSET ??_C@_05PNDCLKDI@LLLTV@
  0012f	e8 00 00 00 00	 call	 ?set_hokum_text_display_text@@YGXPAD00@Z ; set_hokum_text_display_text

; 582  : 
; 583  : 			play_client_server_warning_message (en, SPEECH_SYSTEM_LLLTV_FAILURE);

  00134	6a 03		 push	 3
  00136	8b 45 fc	 mov	 eax, DWORD PTR _en$[ebp]
  00139	50		 push	 eax
  0013a	e8 00 00 00 00	 call	 ?play_client_server_warning_message@@YGHPAUENTITY@@H@Z ; play_client_server_warning_message

; 584  : 
; 585  : 			if (target_acquisition_system == TARGET_ACQUISITION_SYSTEM_LLLTV)

  0013f	83 3d 00 00 00
	00 06		 cmp	 DWORD PTR ?target_acquisition_system@@3W4TARGET_ACQUISITION_SYSTEMS@@A, 6 ; target_acquisition_system
  00146	75 07		 jne	 SHORT $LN9@damage_sys

; 586  : 			{
; 587  : 				select_hokum_target_acquisition_system (TARGET_ACQUISITION_SYSTEM_OFF);

  00148	6a 00		 push	 0
  0014a	e8 00 00 00 00	 call	 ?select_hokum_target_acquisition_system@@YGXW4TARGET_ACQUISITION_SYSTEMS@@@Z ; select_hokum_target_acquisition_system
$LN9@damage_sys:

; 588  : 			}
; 589  : 		}
; 590  : 	}
; 591  : 
; 592  : 	////////////////////////////////////////
; 593  : 
; 594  : 	if (damage.periscope)

  0014f	8b 45 08	 mov	 eax, DWORD PTR _damage$[ebp]
  00152	c1 e8 04	 shr	 eax, 4
  00155	83 e0 01	 and	 eax, 1
  00158	74 5a		 je	 SHORT $LN12@damage_sys

; 595  : 	{
; 596  : 		if (!hokum_damage.periscope)

  0015a	a1 00 00 00 00	 mov	 eax, DWORD PTR ?hokum_damage@@3THOKUM_DAMAGE_FLAGS@@A ; hokum_damage
  0015f	c1 e8 04	 shr	 eax, 4
  00162	83 e0 01	 and	 eax, 1
  00165	75 4d		 jne	 SHORT $LN12@damage_sys

; 597  : 		{
; 598  : 			activate_hokum_master_caution ();

  00167	e8 00 00 00 00	 call	 ?activate_hokum_master_caution@@YGXXZ ; activate_hokum_master_caution

; 599  : 
; 600  : 			hokum_damage.periscope = TRUE;

  0016c	a1 00 00 00 00	 mov	 eax, DWORD PTR ?hokum_damage@@3THOKUM_DAMAGE_FLAGS@@A ; hokum_damage
  00171	83 c8 10	 or	 eax, 16			; 00000010H
  00174	a3 00 00 00 00	 mov	 DWORD PTR ?hokum_damage@@3THOKUM_DAMAGE_FLAGS@@A, eax ; hokum_damage

; 601  : 
; 602  : 			dynamics_damage_model (DYNAMICS_DAMAGE_AVIONICS, FALSE);

  00179	6a 00		 push	 0
  0017b	68 00 10 00 00	 push	 4096			; 00001000H
  00180	e8 00 00 00 00	 call	 ?dynamics_damage_model@@YGXIH@Z ; dynamics_damage_model

; 603  : 
; 604  : 			set_hokum_text_display_text ("PERISCOPE", "DAMAGED", "");

  00185	68 00 00 00 00	 push	 OFFSET ??_C@_00CNPNBAHC@@
  0018a	68 00 00 00 00	 push	 OFFSET ??_C@_07OHKEFPKJ@DAMAGED@
  0018f	68 00 00 00 00	 push	 OFFSET ??_C@_09EAHIBGMD@PERISCOPE@
  00194	e8 00 00 00 00	 call	 ?set_hokum_text_display_text@@YGXPAD00@Z ; set_hokum_text_display_text

; 605  : 
; 606  : 			play_client_server_warning_message (en, SPEECH_SYSTEM_PERISCOPE_DAMAGED);

  00199	6a 05		 push	 5
  0019b	8b 45 fc	 mov	 eax, DWORD PTR _en$[ebp]
  0019e	50		 push	 eax
  0019f	e8 00 00 00 00	 call	 ?play_client_server_warning_message@@YGHPAUENTITY@@H@Z ; play_client_server_warning_message

; 607  : 
; 608  : 			if (target_acquisition_system == TARGET_ACQUISITION_SYSTEM_PERISCOPE)

  001a4	83 3d 00 00 00
	00 07		 cmp	 DWORD PTR ?target_acquisition_system@@3W4TARGET_ACQUISITION_SYSTEMS@@A, 7 ; target_acquisition_system
  001ab	75 07		 jne	 SHORT $LN12@damage_sys

; 609  : 			{
; 610  : 				select_hokum_target_acquisition_system (TARGET_ACQUISITION_SYSTEM_OFF);

  001ad	6a 00		 push	 0
  001af	e8 00 00 00 00	 call	 ?select_hokum_target_acquisition_system@@YGXW4TARGET_ACQUISITION_SYSTEMS@@@Z ; select_hokum_target_acquisition_system
$LN12@damage_sys:

; 611  : 			}
; 612  : 		}
; 613  : 	}
; 614  : 
; 615  : 	////////////////////////////////////////
; 616  : 
; 617  : 	if (damage.laser_designator)

  001b4	8b 45 08	 mov	 eax, DWORD PTR _damage$[ebp]
  001b7	c1 e8 06	 shr	 eax, 6
  001ba	83 e0 01	 and	 eax, 1
  001bd	74 51		 je	 SHORT $LN15@damage_sys

; 618  : 	{
; 619  : 		if (!hokum_damage.laser_designator)

  001bf	a1 00 00 00 00	 mov	 eax, DWORD PTR ?hokum_damage@@3THOKUM_DAMAGE_FLAGS@@A ; hokum_damage
  001c4	c1 e8 06	 shr	 eax, 6
  001c7	83 e0 01	 and	 eax, 1
  001ca	75 44		 jne	 SHORT $LN15@damage_sys

; 620  : 		{
; 621  : 			activate_hokum_master_caution ();

  001cc	e8 00 00 00 00	 call	 ?activate_hokum_master_caution@@YGXXZ ; activate_hokum_master_caution

; 622  : 
; 623  : 			hokum_damage.laser_designator = TRUE;

  001d1	a1 00 00 00 00	 mov	 eax, DWORD PTR ?hokum_damage@@3THOKUM_DAMAGE_FLAGS@@A ; hokum_damage
  001d6	83 c8 40	 or	 eax, 64			; 00000040H
  001d9	a3 00 00 00 00	 mov	 DWORD PTR ?hokum_damage@@3THOKUM_DAMAGE_FLAGS@@A, eax ; hokum_damage

; 624  : 
; 625  : 			dynamics_damage_model (DYNAMICS_DAMAGE_AVIONICS, FALSE);

  001de	6a 00		 push	 0
  001e0	68 00 10 00 00	 push	 4096			; 00001000H
  001e5	e8 00 00 00 00	 call	 ?dynamics_damage_model@@YGXIH@Z ; dynamics_damage_model

; 626  : 
; 627  : 			set_laser_is_active(FALSE);

  001ea	6a 00		 push	 0
  001ec	e8 00 00 00 00	 call	 ?set_laser_is_active@@YGXH@Z ; set_laser_is_active

; 628  : 
; 629  : 			set_hokum_text_display_text ("LASER", "DESIGNATOR", "FAILURE");

  001f1	68 00 00 00 00	 push	 OFFSET ??_C@_07DMOCMFND@FAILURE@
  001f6	68 00 00 00 00	 push	 OFFSET ??_C@_0L@JBDOHACD@DESIGNATOR@
  001fb	68 00 00 00 00	 push	 OFFSET ??_C@_05HEFADFAD@LASER@
  00200	e8 00 00 00 00	 call	 ?set_hokum_text_display_text@@YGXPAD00@Z ; set_hokum_text_display_text

; 630  : 
; 631  : 			play_client_server_warning_message (en, SPEECH_SYSTEM_LASER_DESIGNATOR_FAILURE);

  00205	6a 06		 push	 6
  00207	8b 45 fc	 mov	 eax, DWORD PTR _en$[ebp]
  0020a	50		 push	 eax
  0020b	e8 00 00 00 00	 call	 ?play_client_server_warning_message@@YGHPAUENTITY@@H@Z ; play_client_server_warning_message
$LN15@damage_sys:

; 632  : 		}
; 633  : 	}
; 634  : 
; 635  : 	////////////////////////////////////////
; 636  : 
; 637  : 	if (damage.radar_jammer)

  00210	8b 45 08	 mov	 eax, DWORD PTR _damage$[ebp]
  00213	c1 e8 07	 shr	 eax, 7
  00216	83 e0 01	 and	 eax, 1
  00219	0f 84 71 01 00
	00		 je	 $LN17@damage_sys

; 638  : 	{
; 639  : 		if (!hokum_damage.radar_jammer)

  0021f	a1 00 00 00 00	 mov	 eax, DWORD PTR ?hokum_damage@@3THOKUM_DAMAGE_FLAGS@@A ; hokum_damage
  00224	c1 e8 07	 shr	 eax, 7
  00227	83 e0 01	 and	 eax, 1
  0022a	0f 85 60 01 00
	00		 jne	 $LN17@damage_sys

; 640  : 		{
; 641  : 			activate_hokum_master_caution ();

  00230	e8 00 00 00 00	 call	 ?activate_hokum_master_caution@@YGXXZ ; activate_hokum_master_caution

; 642  : 
; 643  : 			hokum_damage.radar_jammer = TRUE;

  00235	a1 00 00 00 00	 mov	 eax, DWORD PTR ?hokum_damage@@3THOKUM_DAMAGE_FLAGS@@A ; hokum_damage
  0023a	0d 80 00 00 00	 or	 eax, 128		; 00000080H
  0023f	a3 00 00 00 00	 mov	 DWORD PTR ?hokum_damage@@3THOKUM_DAMAGE_FLAGS@@A, eax ; hokum_damage

; 644  : 
; 645  : 			dynamics_damage_model (DYNAMICS_DAMAGE_AVIONICS, FALSE);

  00244	6a 00		 push	 0
  00246	68 00 10 00 00	 push	 4096			; 00001000H
  0024b	e8 00 00 00 00	 call	 ?dynamics_damage_model@@YGXIH@Z ; dynamics_damage_model

; 646  : 
; 647  : 			set_hokum_text_display_text ("RADAR", "JAMMER", "FAILURE");

  00250	68 00 00 00 00	 push	 OFFSET ??_C@_07DMOCMFND@FAILURE@
  00255	68 00 00 00 00	 push	 OFFSET ??_C@_06HBCNLPJK@JAMMER@
  0025a	68 00 00 00 00	 push	 OFFSET ??_C@_05IHELJBBC@RADAR@
  0025f	e8 00 00 00 00	 call	 ?set_hokum_text_display_text@@YGXPAD00@Z ; set_hokum_text_display_text

; 648  : 
; 649  : 			play_client_server_warning_message (en, SPEECH_SYSTEM_RADAR_JAMMER_FAILURE);

  00264	6a 08		 push	 8
  00266	8b 45 fc	 mov	 eax, DWORD PTR _en$[ebp]
  00269	50		 push	 eax
  0026a	e8 00 00 00 00	 call	 ?play_client_server_warning_message@@YGHPAUENTITY@@H@Z ; play_client_server_warning_message

; 650  : 
; 651  : 			if (get_local_entity_int_value (get_gunship_entity (), INT_TYPE_RADAR_JAMMER_ON))

  0026f	83 3d 00 00 00
	00 00		 cmp	 DWORD PTR ?gunship_entity@@3PAUENTITY@@A, 0 ; gunship_entity
  00276	74 0c		 je	 SHORT $LN65@damage_sys
  00278	a1 00 00 00 00	 mov	 eax, DWORD PTR ?gunship_entity@@3PAUENTITY@@A ; gunship_entity
  0027d	8b 08		 mov	 ecx, DWORD PTR [eax]
  0027f	89 4d b8	 mov	 DWORD PTR tv195[ebp], ecx
  00282	eb 1d		 jmp	 SHORT $LN66@damage_sys
$LN65@damage_sys:
  00284	68 8b 02 00 00	 push	 651			; 0000028bH
  00289	68 00 00 00 00	 push	 OFFSET ??_C@_0EN@KJEBDNBA@c?3?2users?2nhv90?2projects?2eech?2ap@
  0028e	8b 15 00 00 00
	00		 mov	 edx, DWORD PTR ?null_entity_pointer_message@@3PBDB ; null_entity_pointer_message
  00294	52		 push	 edx
  00295	e8 00 00 00 00	 call	 ?process_assert@@YGXPBD0H@Z ; process_assert
  0029a	c7 45 b8 00 00
	00 00		 mov	 DWORD PTR tv195[ebp], 0
$LN66@damage_sys:
  002a1	b8 01 00 00 00	 mov	 eax, 1
  002a6	85 c0		 test	 eax, eax
  002a8	74 09		 je	 SHORT $LN67@damage_sys
  002aa	c7 45 b4 a8 00
	00 00		 mov	 DWORD PTR tv202[ebp], 168 ; 000000a8H
  002b1	eb 1d		 jmp	 SHORT $LN68@damage_sys
$LN67@damage_sys:
  002b3	68 8b 02 00 00	 push	 651			; 0000028bH
  002b8	68 00 00 00 00	 push	 OFFSET ??_C@_0EN@KJEBDNBA@c?3?2users?2nhv90?2projects?2eech?2ap@
  002bd	8b 0d 00 00 00
	00		 mov	 ecx, DWORD PTR ?overload_invalid_int_type_message@@3PBDB ; overload_invalid_int_type_message
  002c3	51		 push	 ecx
  002c4	e8 00 00 00 00	 call	 ?process_assert@@YGXPBD0H@Z ; process_assert
  002c9	c7 45 b4 00 00
	00 00		 mov	 DWORD PTR tv202[ebp], 0
$LN68@damage_sys:
  002d0	68 a8 00 00 00	 push	 168			; 000000a8H
  002d5	8b 15 00 00 00
	00		 mov	 edx, DWORD PTR ?gunship_entity@@3PAUENTITY@@A ; gunship_entity
  002db	52		 push	 edx
  002dc	69 45 b8 5c 04
	00 00		 imul	 eax, DWORD PTR tv195[ebp], 1116
  002e3	8b 4d b4	 mov	 ecx, DWORD PTR tv202[ebp]
  002e6	8b 94 88 00 00
	00 00		 mov	 edx, DWORD PTR ?fn_get_local_entity_int_value@@3PAY0BBH@P6GHPAUENTITY@@W4INT_TYPES@@@ZA[eax+ecx*4]
  002ed	ff d2		 call	 edx
  002ef	85 c0		 test	 eax, eax
  002f1	0f 84 99 00 00
	00		 je	 $LN17@damage_sys

; 652  : 			{
; 653  : 				set_client_server_entity_int_value (get_gunship_entity (), INT_TYPE_RADAR_JAMMER_ON, FALSE);

  002f7	83 3d 00 00 00
	00 00		 cmp	 DWORD PTR ?gunship_entity@@3PAUENTITY@@A, 0 ; gunship_entity
  002fe	74 0c		 je	 SHORT $LN69@damage_sys
  00300	a1 00 00 00 00	 mov	 eax, DWORD PTR ?gunship_entity@@3PAUENTITY@@A ; gunship_entity
  00305	8b 08		 mov	 ecx, DWORD PTR [eax]
  00307	89 4d b8	 mov	 DWORD PTR tv215[ebp], ecx
  0030a	eb 24		 jmp	 SHORT $LN70@damage_sys
$LN69@damage_sys:
  0030c	8b 15 00 00 00
	00		 mov	 edx, DWORD PTR ?__LINE__Var@?0??damage_systems@@YGXTHOKUM_DAMAGE_FLAGS@@@Z@4JA
  00312	81 c2 8f 00 00
	00		 add	 edx, 143		; 0000008fH
  00318	52		 push	 edx
  00319	68 00 00 00 00	 push	 OFFSET ??_C@_0EN@KJEBDNBA@c?3?2users?2nhv90?2projects?2eech?2ap@
  0031e	a1 00 00 00 00	 mov	 eax, DWORD PTR ?null_entity_pointer_message@@3PBDB ; null_entity_pointer_message
  00323	50		 push	 eax
  00324	e8 00 00 00 00	 call	 ?process_assert@@YGXPBD0H@Z ; process_assert
  00329	c7 45 b8 00 00
	00 00		 mov	 DWORD PTR tv215[ebp], 0
$LN70@damage_sys:
  00330	b9 01 00 00 00	 mov	 ecx, 1
  00335	85 c9		 test	 ecx, ecx
  00337	74 09		 je	 SHORT $LN71@damage_sys
  00339	c7 45 b4 a8 00
	00 00		 mov	 DWORD PTR tv223[ebp], 168 ; 000000a8H
  00340	eb 24		 jmp	 SHORT $LN72@damage_sys
$LN71@damage_sys:
  00342	8b 15 00 00 00
	00		 mov	 edx, DWORD PTR ?__LINE__Var@?0??damage_systems@@YGXTHOKUM_DAMAGE_FLAGS@@@Z@4JA
  00348	81 c2 8f 00 00
	00		 add	 edx, 143		; 0000008fH
  0034e	52		 push	 edx
  0034f	68 00 00 00 00	 push	 OFFSET ??_C@_0EN@KJEBDNBA@c?3?2users?2nhv90?2projects?2eech?2ap@
  00354	a1 00 00 00 00	 mov	 eax, DWORD PTR ?overload_invalid_int_type_message@@3PBDB ; overload_invalid_int_type_message
  00359	50		 push	 eax
  0035a	e8 00 00 00 00	 call	 ?process_assert@@YGXPBD0H@Z ; process_assert
  0035f	c7 45 b4 00 00
	00 00		 mov	 DWORD PTR tv223[ebp], 0
$LN72@damage_sys:
  00366	6a 00		 push	 0
  00368	68 a8 00 00 00	 push	 168			; 000000a8H
  0036d	8b 0d 00 00 00
	00		 mov	 ecx, DWORD PTR ?gunship_entity@@3PAUENTITY@@A ; gunship_entity
  00373	51		 push	 ecx
  00374	69 55 b8 b8 08
	00 00		 imul	 edx, DWORD PTR tv215[ebp], 2232
  0037b	8b 45 b4	 mov	 eax, DWORD PTR tv223[ebp]
  0037e	8d 8c c2 00 00
	00 00		 lea	 ecx, DWORD PTR ?fn_set_client_server_entity_int_value@@3PAY1BBH@1P6GXPAUENTITY@@W4INT_TYPES@@H@ZA[edx+eax*8]
  00385	8b 15 00 00 00
	00		 mov	 edx, DWORD PTR ?system_comms_model@@3W4COMMS_MODEL_TYPES@@A ; system_comms_model
  0038b	8b 04 91	 mov	 eax, DWORD PTR [ecx+edx*4]
  0038e	ff d0		 call	 eax
$LN17@damage_sys:

; 654  : 			}
; 655  : 		}
; 656  : 	}
; 657  : 
; 658  : 	////////////////////////////////////////
; 659  : 
; 660  : 	if (damage.infra_red_jammer)

  00390	8b 45 08	 mov	 eax, DWORD PTR _damage$[ebp]
  00393	c1 e8 08	 shr	 eax, 8
  00396	83 e0 01	 and	 eax, 1
  00399	0f 84 6b 01 00
	00		 je	 $LN20@damage_sys

; 661  : 	{
; 662  : 		if (!hokum_damage.infra_red_jammer)

  0039f	a1 00 00 00 00	 mov	 eax, DWORD PTR ?hokum_damage@@3THOKUM_DAMAGE_FLAGS@@A ; hokum_damage
  003a4	c1 e8 08	 shr	 eax, 8
  003a7	83 e0 01	 and	 eax, 1
  003aa	0f 85 5a 01 00
	00		 jne	 $LN20@damage_sys

; 663  : 		{
; 664  : 			activate_hokum_master_caution ();

  003b0	e8 00 00 00 00	 call	 ?activate_hokum_master_caution@@YGXXZ ; activate_hokum_master_caution

; 665  : 
; 666  : 			hokum_damage.infra_red_jammer = TRUE;

  003b5	a1 00 00 00 00	 mov	 eax, DWORD PTR ?hokum_damage@@3THOKUM_DAMAGE_FLAGS@@A ; hokum_damage
  003ba	0d 00 01 00 00	 or	 eax, 256		; 00000100H
  003bf	a3 00 00 00 00	 mov	 DWORD PTR ?hokum_damage@@3THOKUM_DAMAGE_FLAGS@@A, eax ; hokum_damage

; 667  : 
; 668  : 			dynamics_damage_model (DYNAMICS_DAMAGE_AVIONICS, FALSE);

  003c4	6a 00		 push	 0
  003c6	68 00 10 00 00	 push	 4096			; 00001000H
  003cb	e8 00 00 00 00	 call	 ?dynamics_damage_model@@YGXIH@Z ; dynamics_damage_model

; 669  : 
; 670  : 			set_hokum_text_display_text ("IR JAMMER", "FAILURE", "");

  003d0	68 00 00 00 00	 push	 OFFSET ??_C@_00CNPNBAHC@@
  003d5	68 00 00 00 00	 push	 OFFSET ??_C@_07DMOCMFND@FAILURE@
  003da	68 00 00 00 00	 push	 OFFSET ??_C@_09MILGCPFO@IR?5JAMMER@
  003df	e8 00 00 00 00	 call	 ?set_hokum_text_display_text@@YGXPAD00@Z ; set_hokum_text_display_text

; 671  : 
; 672  : 			play_client_server_warning_message (en, SPEECH_SYSTEM_IR_JAMMER_FAILURE);

  003e4	6a 09		 push	 9
  003e6	8b 45 fc	 mov	 eax, DWORD PTR _en$[ebp]
  003e9	50		 push	 eax
  003ea	e8 00 00 00 00	 call	 ?play_client_server_warning_message@@YGHPAUENTITY@@H@Z ; play_client_server_warning_message

; 673  : 
; 674  : 			if (get_local_entity_int_value (get_gunship_entity (), INT_TYPE_INFRA_RED_JAMMER_ON))

  003ef	83 3d 00 00 00
	00 00		 cmp	 DWORD PTR ?gunship_entity@@3PAUENTITY@@A, 0 ; gunship_entity
  003f6	74 0c		 je	 SHORT $LN73@damage_sys
  003f8	a1 00 00 00 00	 mov	 eax, DWORD PTR ?gunship_entity@@3PAUENTITY@@A ; gunship_entity
  003fd	8b 08		 mov	 ecx, DWORD PTR [eax]
  003ff	89 4d b8	 mov	 DWORD PTR tv250[ebp], ecx
  00402	eb 1d		 jmp	 SHORT $LN74@damage_sys
$LN73@damage_sys:
  00404	68 a2 02 00 00	 push	 674			; 000002a2H
  00409	68 00 00 00 00	 push	 OFFSET ??_C@_0EN@KJEBDNBA@c?3?2users?2nhv90?2projects?2eech?2ap@
  0040e	8b 15 00 00 00
	00		 mov	 edx, DWORD PTR ?null_entity_pointer_message@@3PBDB ; null_entity_pointer_message
  00414	52		 push	 edx
  00415	e8 00 00 00 00	 call	 ?process_assert@@YGXPBD0H@Z ; process_assert
  0041a	c7 45 b8 00 00
	00 00		 mov	 DWORD PTR tv250[ebp], 0
$LN74@damage_sys:
  00421	b8 01 00 00 00	 mov	 eax, 1
  00426	85 c0		 test	 eax, eax
  00428	74 09		 je	 SHORT $LN75@damage_sys
  0042a	c7 45 b4 68 00
	00 00		 mov	 DWORD PTR tv257[ebp], 104 ; 00000068H
  00431	eb 1d		 jmp	 SHORT $LN76@damage_sys
$LN75@damage_sys:
  00433	68 a2 02 00 00	 push	 674			; 000002a2H
  00438	68 00 00 00 00	 push	 OFFSET ??_C@_0EN@KJEBDNBA@c?3?2users?2nhv90?2projects?2eech?2ap@
  0043d	8b 0d 00 00 00
	00		 mov	 ecx, DWORD PTR ?overload_invalid_int_type_message@@3PBDB ; overload_invalid_int_type_message
  00443	51		 push	 ecx
  00444	e8 00 00 00 00	 call	 ?process_assert@@YGXPBD0H@Z ; process_assert
  00449	c7 45 b4 00 00
	00 00		 mov	 DWORD PTR tv257[ebp], 0
$LN76@damage_sys:
  00450	6a 68		 push	 104			; 00000068H
  00452	8b 15 00 00 00
	00		 mov	 edx, DWORD PTR ?gunship_entity@@3PAUENTITY@@A ; gunship_entity
  00458	52		 push	 edx
  00459	69 45 b8 5c 04
	00 00		 imul	 eax, DWORD PTR tv250[ebp], 1116
  00460	8b 4d b4	 mov	 ecx, DWORD PTR tv257[ebp]
  00463	8b 94 88 00 00
	00 00		 mov	 edx, DWORD PTR ?fn_get_local_entity_int_value@@3PAY0BBH@P6GHPAUENTITY@@W4INT_TYPES@@@ZA[eax+ecx*4]
  0046a	ff d2		 call	 edx
  0046c	85 c0		 test	 eax, eax
  0046e	0f 84 96 00 00
	00		 je	 $LN20@damage_sys

; 675  : 			{
; 676  : 				set_client_server_entity_int_value (get_gunship_entity (), INT_TYPE_INFRA_RED_JAMMER_ON, FALSE);

  00474	83 3d 00 00 00
	00 00		 cmp	 DWORD PTR ?gunship_entity@@3PAUENTITY@@A, 0 ; gunship_entity
  0047b	74 0c		 je	 SHORT $LN77@damage_sys
  0047d	a1 00 00 00 00	 mov	 eax, DWORD PTR ?gunship_entity@@3PAUENTITY@@A ; gunship_entity
  00482	8b 08		 mov	 ecx, DWORD PTR [eax]
  00484	89 4d b8	 mov	 DWORD PTR tv270[ebp], ecx
  00487	eb 24		 jmp	 SHORT $LN78@damage_sys
$LN77@damage_sys:
  00489	8b 15 00 00 00
	00		 mov	 edx, DWORD PTR ?__LINE__Var@?0??damage_systems@@YGXTHOKUM_DAMAGE_FLAGS@@@Z@4JA
  0048f	81 c2 a6 00 00
	00		 add	 edx, 166		; 000000a6H
  00495	52		 push	 edx
  00496	68 00 00 00 00	 push	 OFFSET ??_C@_0EN@KJEBDNBA@c?3?2users?2nhv90?2projects?2eech?2ap@
  0049b	a1 00 00 00 00	 mov	 eax, DWORD PTR ?null_entity_pointer_message@@3PBDB ; null_entity_pointer_message
  004a0	50		 push	 eax
  004a1	e8 00 00 00 00	 call	 ?process_assert@@YGXPBD0H@Z ; process_assert
  004a6	c7 45 b8 00 00
	00 00		 mov	 DWORD PTR tv270[ebp], 0
$LN78@damage_sys:
  004ad	b9 01 00 00 00	 mov	 ecx, 1
  004b2	85 c9		 test	 ecx, ecx
  004b4	74 09		 je	 SHORT $LN79@damage_sys
  004b6	c7 45 b4 68 00
	00 00		 mov	 DWORD PTR tv278[ebp], 104 ; 00000068H
  004bd	eb 24		 jmp	 SHORT $LN80@damage_sys
$LN79@damage_sys:
  004bf	8b 15 00 00 00
	00		 mov	 edx, DWORD PTR ?__LINE__Var@?0??damage_systems@@YGXTHOKUM_DAMAGE_FLAGS@@@Z@4JA
  004c5	81 c2 a6 00 00
	00		 add	 edx, 166		; 000000a6H
  004cb	52		 push	 edx
  004cc	68 00 00 00 00	 push	 OFFSET ??_C@_0EN@KJEBDNBA@c?3?2users?2nhv90?2projects?2eech?2ap@
  004d1	a1 00 00 00 00	 mov	 eax, DWORD PTR ?overload_invalid_int_type_message@@3PBDB ; overload_invalid_int_type_message
  004d6	50		 push	 eax
  004d7	e8 00 00 00 00	 call	 ?process_assert@@YGXPBD0H@Z ; process_assert
  004dc	c7 45 b4 00 00
	00 00		 mov	 DWORD PTR tv278[ebp], 0
$LN80@damage_sys:
  004e3	6a 00		 push	 0
  004e5	6a 68		 push	 104			; 00000068H
  004e7	8b 0d 00 00 00
	00		 mov	 ecx, DWORD PTR ?gunship_entity@@3PAUENTITY@@A ; gunship_entity
  004ed	51		 push	 ecx
  004ee	69 55 b8 b8 08
	00 00		 imul	 edx, DWORD PTR tv270[ebp], 2232
  004f5	8b 45 b4	 mov	 eax, DWORD PTR tv278[ebp]
  004f8	8d 8c c2 00 00
	00 00		 lea	 ecx, DWORD PTR ?fn_set_client_server_entity_int_value@@3PAY1BBH@1P6GXPAUENTITY@@W4INT_TYPES@@H@ZA[edx+eax*8]
  004ff	8b 15 00 00 00
	00		 mov	 edx, DWORD PTR ?system_comms_model@@3W4COMMS_MODEL_TYPES@@A ; system_comms_model
  00505	8b 04 91	 mov	 eax, DWORD PTR [ecx+edx*4]
  00508	ff d0		 call	 eax
$LN20@damage_sys:

; 677  : 			}
; 678  : 		}
; 679  : 	}
; 680  : 
; 681  : 	////////////////////////////////////////
; 682  : 
; 683  : 	if (damage.navigation_computer)

  0050a	8b 45 08	 mov	 eax, DWORD PTR _damage$[ebp]
  0050d	c1 e8 09	 shr	 eax, 9
  00510	83 e0 01	 and	 eax, 1
  00513	74 4c		 je	 SHORT $LN23@damage_sys

; 684  : 	{
; 685  : 		if (!hokum_damage.navigation_computer)

  00515	a1 00 00 00 00	 mov	 eax, DWORD PTR ?hokum_damage@@3THOKUM_DAMAGE_FLAGS@@A ; hokum_damage
  0051a	c1 e8 09	 shr	 eax, 9
  0051d	83 e0 01	 and	 eax, 1
  00520	75 3f		 jne	 SHORT $LN23@damage_sys

; 686  : 		{
; 687  : 			activate_hokum_master_caution ();

  00522	e8 00 00 00 00	 call	 ?activate_hokum_master_caution@@YGXXZ ; activate_hokum_master_caution

; 688  : 
; 689  : 			hokum_damage.navigation_computer = TRUE;

  00527	a1 00 00 00 00	 mov	 eax, DWORD PTR ?hokum_damage@@3THOKUM_DAMAGE_FLAGS@@A ; hokum_damage
  0052c	0d 00 02 00 00	 or	 eax, 512		; 00000200H
  00531	a3 00 00 00 00	 mov	 DWORD PTR ?hokum_damage@@3THOKUM_DAMAGE_FLAGS@@A, eax ; hokum_damage

; 690  : 
; 691  : 			dynamics_damage_model (DYNAMICS_DAMAGE_AVIONICS, FALSE);

  00536	6a 00		 push	 0
  00538	68 00 10 00 00	 push	 4096			; 00001000H
  0053d	e8 00 00 00 00	 call	 ?dynamics_damage_model@@YGXIH@Z ; dynamics_damage_model

; 692  : 
; 693  : 			set_hokum_text_display_text ("NAVIGATION", "COMPUTER", "FAILURE");

  00542	68 00 00 00 00	 push	 OFFSET ??_C@_07DMOCMFND@FAILURE@
  00547	68 00 00 00 00	 push	 OFFSET ??_C@_08GNEGLACP@COMPUTER@
  0054c	68 00 00 00 00	 push	 OFFSET ??_C@_0L@CNLPLFKK@NAVIGATION@
  00551	e8 00 00 00 00	 call	 ?set_hokum_text_display_text@@YGXPAD00@Z ; set_hokum_text_display_text

; 694  : 
; 695  : 			play_client_server_warning_message (en, SPEECH_SYSTEM_NAV_COMPUTER_FAILURE);

  00556	6a 0a		 push	 10			; 0000000aH
  00558	8b 45 fc	 mov	 eax, DWORD PTR _en$[ebp]
  0055b	50		 push	 eax
  0055c	e8 00 00 00 00	 call	 ?play_client_server_warning_message@@YGHPAUENTITY@@H@Z ; play_client_server_warning_message
$LN23@damage_sys:

; 696  : 		}
; 697  : 	}
; 698  : 
; 699  : 	////////////////////////////////////////
; 700  : 
; 701  : 	if (damage.communications)

  00561	8b 45 08	 mov	 eax, DWORD PTR _damage$[ebp]
  00564	c1 e8 0a	 shr	 eax, 10			; 0000000aH
  00567	83 e0 01	 and	 eax, 1
  0056a	74 4c		 je	 SHORT $LN25@damage_sys

; 702  : 	{
; 703  : 		if (!hokum_damage.communications)

  0056c	a1 00 00 00 00	 mov	 eax, DWORD PTR ?hokum_damage@@3THOKUM_DAMAGE_FLAGS@@A ; hokum_damage
  00571	c1 e8 0a	 shr	 eax, 10			; 0000000aH
  00574	83 e0 01	 and	 eax, 1
  00577	75 3f		 jne	 SHORT $LN25@damage_sys

; 704  : 		{
; 705  : 			activate_hokum_master_caution ();

  00579	e8 00 00 00 00	 call	 ?activate_hokum_master_caution@@YGXXZ ; activate_hokum_master_caution

; 706  : 
; 707  : 			hokum_damage.communications = TRUE;

  0057e	a1 00 00 00 00	 mov	 eax, DWORD PTR ?hokum_damage@@3THOKUM_DAMAGE_FLAGS@@A ; hokum_damage
  00583	0d 00 04 00 00	 or	 eax, 1024		; 00000400H
  00588	a3 00 00 00 00	 mov	 DWORD PTR ?hokum_damage@@3THOKUM_DAMAGE_FLAGS@@A, eax ; hokum_damage

; 708  : 
; 709  : 			dynamics_damage_model (DYNAMICS_DAMAGE_AVIONICS, FALSE);

  0058d	6a 00		 push	 0
  0058f	68 00 10 00 00	 push	 4096			; 00001000H
  00594	e8 00 00 00 00	 call	 ?dynamics_damage_model@@YGXIH@Z ; dynamics_damage_model

; 710  : 
; 711  : 			set_hokum_text_display_text ("COMMS", "FAILURE", "");

  00599	68 00 00 00 00	 push	 OFFSET ??_C@_00CNPNBAHC@@
  0059e	68 00 00 00 00	 push	 OFFSET ??_C@_07DMOCMFND@FAILURE@
  005a3	68 00 00 00 00	 push	 OFFSET ??_C@_05JNPIHJOC@COMMS@
  005a8	e8 00 00 00 00	 call	 ?set_hokum_text_display_text@@YGXPAD00@Z ; set_hokum_text_display_text

; 712  : 
; 713  : 			play_client_server_warning_message (en, SPEECH_SYSTEM_COMMS_FAILURE);

  005ad	6a 0b		 push	 11			; 0000000bH
  005af	8b 45 fc	 mov	 eax, DWORD PTR _en$[ebp]
  005b2	50		 push	 eax
  005b3	e8 00 00 00 00	 call	 ?play_client_server_warning_message@@YGHPAUENTITY@@H@Z ; play_client_server_warning_message
$LN25@damage_sys:

; 714  : 		}
; 715  : 	}
; 716  : 
; 717  : 	////////////////////////////////////////
; 718  : 
; 719  : 	if (damage.radar_warning_system)

  005b8	8b 45 08	 mov	 eax, DWORD PTR _damage$[ebp]
  005bb	c1 e8 0c	 shr	 eax, 12			; 0000000cH
  005be	83 e0 01	 and	 eax, 1
  005c1	74 4c		 je	 SHORT $LN27@damage_sys

; 720  : 	{
; 721  : 		if (!hokum_damage.radar_warning_system)

  005c3	a1 00 00 00 00	 mov	 eax, DWORD PTR ?hokum_damage@@3THOKUM_DAMAGE_FLAGS@@A ; hokum_damage
  005c8	c1 e8 0c	 shr	 eax, 12			; 0000000cH
  005cb	83 e0 01	 and	 eax, 1
  005ce	75 3f		 jne	 SHORT $LN27@damage_sys

; 722  : 		{
; 723  : 			activate_hokum_master_caution ();

  005d0	e8 00 00 00 00	 call	 ?activate_hokum_master_caution@@YGXXZ ; activate_hokum_master_caution

; 724  : 
; 725  : 			hokum_damage.radar_warning_system = TRUE;

  005d5	a1 00 00 00 00	 mov	 eax, DWORD PTR ?hokum_damage@@3THOKUM_DAMAGE_FLAGS@@A ; hokum_damage
  005da	0d 00 10 00 00	 or	 eax, 4096		; 00001000H
  005df	a3 00 00 00 00	 mov	 DWORD PTR ?hokum_damage@@3THOKUM_DAMAGE_FLAGS@@A, eax ; hokum_damage

; 726  : 
; 727  : 			dynamics_damage_model (DYNAMICS_DAMAGE_AVIONICS, FALSE);

  005e4	6a 00		 push	 0
  005e6	68 00 10 00 00	 push	 4096			; 00001000H
  005eb	e8 00 00 00 00	 call	 ?dynamics_damage_model@@YGXIH@Z ; dynamics_damage_model

; 728  : 
; 729  : 			set_hokum_text_display_text ("RADAR", "WARNING", "FAILURE");

  005f0	68 00 00 00 00	 push	 OFFSET ??_C@_07DMOCMFND@FAILURE@
  005f5	68 00 00 00 00	 push	 OFFSET ??_C@_07KCOHIFOP@WARNING@
  005fa	68 00 00 00 00	 push	 OFFSET ??_C@_05IHELJBBC@RADAR@
  005ff	e8 00 00 00 00	 call	 ?set_hokum_text_display_text@@YGXPAD00@Z ; set_hokum_text_display_text

; 730  : 
; 731  : 			play_client_server_warning_message (en, SPEECH_SYSTEM_RADAR_WARNING_FAILURE);

  00604	6a 0c		 push	 12			; 0000000cH
  00606	8b 45 fc	 mov	 eax, DWORD PTR _en$[ebp]
  00609	50		 push	 eax
  0060a	e8 00 00 00 00	 call	 ?play_client_server_warning_message@@YGHPAUENTITY@@H@Z ; play_client_server_warning_message
$LN27@damage_sys:

; 732  : 		}
; 733  : 	}
; 734  : 
; 735  : 	////////////////////////////////////////
; 736  : 
; 737  : 	if (!get_global_simple_avionics ())

  0060f	83 3d 6c 03 00
	00 00		 cmp	 DWORD PTR ?global_options@@3UGLOBAL_OPTIONS_DATA@@A+876, 0
  00616	75 57		 jne	 SHORT $LN29@damage_sys

; 738  : 	{
; 739  : 		if (damage.head_up_display)

  00618	8b 45 08	 mov	 eax, DWORD PTR _damage$[ebp]
  0061b	c1 e8 0e	 shr	 eax, 14			; 0000000eH
  0061e	83 e0 01	 and	 eax, 1
  00621	74 4c		 je	 SHORT $LN29@damage_sys

; 740  : 		{
; 741  : 			if (!hokum_damage.head_up_display)

  00623	a1 00 00 00 00	 mov	 eax, DWORD PTR ?hokum_damage@@3THOKUM_DAMAGE_FLAGS@@A ; hokum_damage
  00628	c1 e8 0e	 shr	 eax, 14			; 0000000eH
  0062b	83 e0 01	 and	 eax, 1
  0062e	75 3f		 jne	 SHORT $LN29@damage_sys

; 742  : 			{
; 743  : 				activate_hokum_master_caution ();

  00630	e8 00 00 00 00	 call	 ?activate_hokum_master_caution@@YGXXZ ; activate_hokum_master_caution

; 744  : 
; 745  : 				hokum_damage.head_up_display = TRUE;

  00635	a1 00 00 00 00	 mov	 eax, DWORD PTR ?hokum_damage@@3THOKUM_DAMAGE_FLAGS@@A ; hokum_damage
  0063a	0d 00 40 00 00	 or	 eax, 16384		; 00004000H
  0063f	a3 00 00 00 00	 mov	 DWORD PTR ?hokum_damage@@3THOKUM_DAMAGE_FLAGS@@A, eax ; hokum_damage

; 746  : 
; 747  : 				dynamics_damage_model (DYNAMICS_DAMAGE_AVIONICS, FALSE);

  00644	6a 00		 push	 0
  00646	68 00 10 00 00	 push	 4096			; 00001000H
  0064b	e8 00 00 00 00	 call	 ?dynamics_damage_model@@YGXIH@Z ; dynamics_damage_model

; 748  : 
; 749  : 				set_hokum_text_display_text ("HUD", "FAILURE", "");

  00650	68 00 00 00 00	 push	 OFFSET ??_C@_00CNPNBAHC@@
  00655	68 00 00 00 00	 push	 OFFSET ??_C@_07DMOCMFND@FAILURE@
  0065a	68 00 00 00 00	 push	 OFFSET ??_C@_03HOHJDGGL@HUD@
  0065f	e8 00 00 00 00	 call	 ?set_hokum_text_display_text@@YGXPAD00@Z ; set_hokum_text_display_text

; 750  : 
; 751  : 				play_client_server_warning_message (en, SPEECH_SYSTEM_HUD_FAILURE);

  00664	6a 0f		 push	 15			; 0000000fH
  00666	8b 45 fc	 mov	 eax, DWORD PTR _en$[ebp]
  00669	50		 push	 eax
  0066a	e8 00 00 00 00	 call	 ?play_client_server_warning_message@@YGHPAUENTITY@@H@Z ; play_client_server_warning_message
$LN29@damage_sys:

; 752  : 			}
; 753  : 		}
; 754  : 	}
; 755  : 
; 756  : 	////////////////////////////////////////
; 757  : 
; 758  : 	if (!get_global_simple_avionics ())

  0066f	83 3d 6c 03 00
	00 00		 cmp	 DWORD PTR ?global_options@@3UGLOBAL_OPTIONS_DATA@@A+876, 0
  00676	75 67		 jne	 SHORT $LN32@damage_sys

; 759  : 	{
; 760  : 		if (damage.helmet_mounted_sight)

  00678	8b 45 08	 mov	 eax, DWORD PTR _damage$[ebp]
  0067b	c1 e8 0f	 shr	 eax, 15			; 0000000fH
  0067e	83 e0 01	 and	 eax, 1
  00681	74 5c		 je	 SHORT $LN32@damage_sys

; 761  : 		{
; 762  : 			if (!hokum_damage.helmet_mounted_sight)

  00683	a1 00 00 00 00	 mov	 eax, DWORD PTR ?hokum_damage@@3THOKUM_DAMAGE_FLAGS@@A ; hokum_damage
  00688	c1 e8 0f	 shr	 eax, 15			; 0000000fH
  0068b	83 e0 01	 and	 eax, 1
  0068e	75 4f		 jne	 SHORT $LN32@damage_sys

; 763  : 			{
; 764  : 				activate_hokum_master_caution ();

  00690	e8 00 00 00 00	 call	 ?activate_hokum_master_caution@@YGXXZ ; activate_hokum_master_caution

; 765  : 
; 766  : 				hokum_damage.helmet_mounted_sight = TRUE;

  00695	a1 00 00 00 00	 mov	 eax, DWORD PTR ?hokum_damage@@3THOKUM_DAMAGE_FLAGS@@A ; hokum_damage
  0069a	0d 00 80 00 00	 or	 eax, 32768		; 00008000H
  0069f	a3 00 00 00 00	 mov	 DWORD PTR ?hokum_damage@@3THOKUM_DAMAGE_FLAGS@@A, eax ; hokum_damage

; 767  : 
; 768  : 				dynamics_damage_model (DYNAMICS_DAMAGE_AVIONICS, FALSE);

  006a4	6a 00		 push	 0
  006a6	68 00 10 00 00	 push	 4096			; 00001000H
  006ab	e8 00 00 00 00	 call	 ?dynamics_damage_model@@YGXIH@Z ; dynamics_damage_model

; 769  : 
; 770  : 				set_hokum_text_display_text ("HMS", "FAILURE", "");

  006b0	68 00 00 00 00	 push	 OFFSET ??_C@_00CNPNBAHC@@
  006b5	68 00 00 00 00	 push	 OFFSET ??_C@_07DMOCMFND@FAILURE@
  006ba	68 00 00 00 00	 push	 OFFSET ??_C@_03GJMPEADF@HMS@
  006bf	e8 00 00 00 00	 call	 ?set_hokum_text_display_text@@YGXPAD00@Z ; set_hokum_text_display_text

; 771  : 
; 772  : 				play_client_server_warning_message (en, SPEECH_SYSTEM_HELMET_MOUNTED_SIGHT_FAILURE);

  006c4	6a 10		 push	 16			; 00000010H
  006c6	8b 45 fc	 mov	 eax, DWORD PTR _en$[ebp]
  006c9	50		 push	 eax
  006ca	e8 00 00 00 00	 call	 ?play_client_server_warning_message@@YGHPAUENTITY@@H@Z ; play_client_server_warning_message

; 773  : 
; 774  : 				if (target_acquisition_system == TARGET_ACQUISITION_SYSTEM_HMS)

  006cf	83 3d 00 00 00
	00 0a		 cmp	 DWORD PTR ?target_acquisition_system@@3W4TARGET_ACQUISITION_SYSTEMS@@A, 10 ; target_acquisition_system, 0000000aH
  006d6	75 07		 jne	 SHORT $LN32@damage_sys

; 775  : 				{
; 776  : 					select_hokum_target_acquisition_system (TARGET_ACQUISITION_SYSTEM_OFF);

  006d8	6a 00		 push	 0
  006da	e8 00 00 00 00	 call	 ?select_hokum_target_acquisition_system@@YGXW4TARGET_ACQUISITION_SYSTEMS@@@Z ; select_hokum_target_acquisition_system
$LN32@damage_sys:

; 777  : 				}
; 778  : 			}
; 779  : 		}
; 780  : 	}
; 781  : 
; 782  : 	////////////////////////////////////////
; 783  : 
; 784  : 	if (damage.pilot_lh_mfd)

  006df	8b 45 08	 mov	 eax, DWORD PTR _damage$[ebp]
  006e2	c1 e8 11	 shr	 eax, 17			; 00000011H
  006e5	83 e0 01	 and	 eax, 1
  006e8	74 55		 je	 SHORT $LN36@damage_sys

; 785  : 	{
; 786  : 		if (!hokum_damage.pilot_lh_mfd)

  006ea	a1 00 00 00 00	 mov	 eax, DWORD PTR ?hokum_damage@@3THOKUM_DAMAGE_FLAGS@@A ; hokum_damage
  006ef	c1 e8 11	 shr	 eax, 17			; 00000011H
  006f2	83 e0 01	 and	 eax, 1
  006f5	75 48		 jne	 SHORT $LN36@damage_sys

; 787  : 		{
; 788  : 			activate_hokum_master_caution ();

  006f7	e8 00 00 00 00	 call	 ?activate_hokum_master_caution@@YGXXZ ; activate_hokum_master_caution

; 789  : 
; 790  : 			hokum_damage.pilot_lh_mfd = TRUE;

  006fc	a1 00 00 00 00	 mov	 eax, DWORD PTR ?hokum_damage@@3THOKUM_DAMAGE_FLAGS@@A ; hokum_damage
  00701	0d 00 00 02 00	 or	 eax, 131072		; 00020000H
  00706	a3 00 00 00 00	 mov	 DWORD PTR ?hokum_damage@@3THOKUM_DAMAGE_FLAGS@@A, eax ; hokum_damage

; 791  : 
; 792  : 			dynamics_damage_model (DYNAMICS_DAMAGE_AVIONICS, FALSE);

  0070b	6a 00		 push	 0
  0070d	68 00 10 00 00	 push	 4096			; 00001000H
  00712	e8 00 00 00 00	 call	 ?dynamics_damage_model@@YGXIH@Z ; dynamics_damage_model

; 793  : 
; 794  : 			set_hokum_text_display_text ("MFD", "FAILURE", "");

  00717	68 00 00 00 00	 push	 OFFSET ??_C@_00CNPNBAHC@@
  0071c	68 00 00 00 00	 push	 OFFSET ??_C@_07DMOCMFND@FAILURE@
  00721	68 00 00 00 00	 push	 OFFSET ??_C@_03FHMHNLHA@MFD@
  00726	e8 00 00 00 00	 call	 ?set_hokum_text_display_text@@YGXPAD00@Z ; set_hokum_text_display_text

; 795  : 
; 796  : 			play_client_server_warning_message (en, SPEECH_SYSTEM_MFD_FAILURE);

  0072b	6a 11		 push	 17			; 00000011H
  0072d	8b 45 fc	 mov	 eax, DWORD PTR _en$[ebp]
  00730	50		 push	 eax
  00731	e8 00 00 00 00	 call	 ?play_client_server_warning_message@@YGHPAUENTITY@@H@Z ; play_client_server_warning_message

; 797  : 
; 798  : 			select_hokum_mfd_mode (HOKUM_MFD_MODE_DAMAGED, HOKUM_MFD_LOCATION_PILOT_LHS);

  00736	6a 00		 push	 0
  00738	6a 01		 push	 1
  0073a	e8 00 00 00 00	 call	 ?select_hokum_mfd_mode@@YGXW4HOKUM_MFD_MODES@@W4HOKUM_MFD_LOCATIONS@@@Z ; select_hokum_mfd_mode
$LN36@damage_sys:

; 799  : 		}
; 800  : 	}
; 801  : 
; 802  : 	////////////////////////////////////////
; 803  : 
; 804  : 	if (damage.pilot_rh_mfd)

  0073f	8b 45 08	 mov	 eax, DWORD PTR _damage$[ebp]
  00742	c1 e8 12	 shr	 eax, 18			; 00000012H
  00745	83 e0 01	 and	 eax, 1
  00748	74 55		 je	 SHORT $LN38@damage_sys

; 805  : 	{
; 806  : 		if (!hokum_damage.pilot_rh_mfd)

  0074a	a1 00 00 00 00	 mov	 eax, DWORD PTR ?hokum_damage@@3THOKUM_DAMAGE_FLAGS@@A ; hokum_damage
  0074f	c1 e8 12	 shr	 eax, 18			; 00000012H
  00752	83 e0 01	 and	 eax, 1
  00755	75 48		 jne	 SHORT $LN38@damage_sys

; 807  : 		{
; 808  : 			activate_hokum_master_caution ();

  00757	e8 00 00 00 00	 call	 ?activate_hokum_master_caution@@YGXXZ ; activate_hokum_master_caution

; 809  : 
; 810  : 			hokum_damage.pilot_rh_mfd = TRUE;

  0075c	a1 00 00 00 00	 mov	 eax, DWORD PTR ?hokum_damage@@3THOKUM_DAMAGE_FLAGS@@A ; hokum_damage
  00761	0d 00 00 04 00	 or	 eax, 262144		; 00040000H
  00766	a3 00 00 00 00	 mov	 DWORD PTR ?hokum_damage@@3THOKUM_DAMAGE_FLAGS@@A, eax ; hokum_damage

; 811  : 
; 812  : 			dynamics_damage_model (DYNAMICS_DAMAGE_AVIONICS, FALSE);

  0076b	6a 00		 push	 0
  0076d	68 00 10 00 00	 push	 4096			; 00001000H
  00772	e8 00 00 00 00	 call	 ?dynamics_damage_model@@YGXIH@Z ; dynamics_damage_model

; 813  : 
; 814  : 			set_hokum_text_display_text ("MFD", "FAILURE", "");

  00777	68 00 00 00 00	 push	 OFFSET ??_C@_00CNPNBAHC@@
  0077c	68 00 00 00 00	 push	 OFFSET ??_C@_07DMOCMFND@FAILURE@
  00781	68 00 00 00 00	 push	 OFFSET ??_C@_03FHMHNLHA@MFD@
  00786	e8 00 00 00 00	 call	 ?set_hokum_text_display_text@@YGXPAD00@Z ; set_hokum_text_display_text

; 815  : 
; 816  : 			play_client_server_warning_message (en, SPEECH_SYSTEM_MFD_FAILURE);

  0078b	6a 11		 push	 17			; 00000011H
  0078d	8b 45 fc	 mov	 eax, DWORD PTR _en$[ebp]
  00790	50		 push	 eax
  00791	e8 00 00 00 00	 call	 ?play_client_server_warning_message@@YGHPAUENTITY@@H@Z ; play_client_server_warning_message

; 817  : 
; 818  : 			select_hokum_mfd_mode (HOKUM_MFD_MODE_DAMAGED, HOKUM_MFD_LOCATION_PILOT_RHS);

  00796	6a 01		 push	 1
  00798	6a 01		 push	 1
  0079a	e8 00 00 00 00	 call	 ?select_hokum_mfd_mode@@YGXW4HOKUM_MFD_MODES@@W4HOKUM_MFD_LOCATIONS@@@Z ; select_hokum_mfd_mode
$LN38@damage_sys:

; 819  : 		}
; 820  : 	}
; 821  : 
; 822  : 	////////////////////////////////////////
; 823  : 
; 824  : 	if (damage.co_pilot_lh_mfd)

  0079f	8b 45 08	 mov	 eax, DWORD PTR _damage$[ebp]
  007a2	c1 e8 13	 shr	 eax, 19			; 00000013H
  007a5	83 e0 01	 and	 eax, 1
  007a8	74 55		 je	 SHORT $LN40@damage_sys

; 825  : 	{
; 826  : 		if (!hokum_damage.co_pilot_lh_mfd)

  007aa	a1 00 00 00 00	 mov	 eax, DWORD PTR ?hokum_damage@@3THOKUM_DAMAGE_FLAGS@@A ; hokum_damage
  007af	c1 e8 13	 shr	 eax, 19			; 00000013H
  007b2	83 e0 01	 and	 eax, 1
  007b5	75 48		 jne	 SHORT $LN40@damage_sys

; 827  : 		{
; 828  : 			activate_hokum_master_caution ();

  007b7	e8 00 00 00 00	 call	 ?activate_hokum_master_caution@@YGXXZ ; activate_hokum_master_caution

; 829  : 
; 830  : 			hokum_damage.co_pilot_lh_mfd = TRUE;

  007bc	a1 00 00 00 00	 mov	 eax, DWORD PTR ?hokum_damage@@3THOKUM_DAMAGE_FLAGS@@A ; hokum_damage
  007c1	0d 00 00 08 00	 or	 eax, 524288		; 00080000H
  007c6	a3 00 00 00 00	 mov	 DWORD PTR ?hokum_damage@@3THOKUM_DAMAGE_FLAGS@@A, eax ; hokum_damage

; 831  : 
; 832  : 			dynamics_damage_model (DYNAMICS_DAMAGE_AVIONICS, FALSE);

  007cb	6a 00		 push	 0
  007cd	68 00 10 00 00	 push	 4096			; 00001000H
  007d2	e8 00 00 00 00	 call	 ?dynamics_damage_model@@YGXIH@Z ; dynamics_damage_model

; 833  : 
; 834  : 			set_hokum_text_display_text ("MFD", "FAILURE", "");

  007d7	68 00 00 00 00	 push	 OFFSET ??_C@_00CNPNBAHC@@
  007dc	68 00 00 00 00	 push	 OFFSET ??_C@_07DMOCMFND@FAILURE@
  007e1	68 00 00 00 00	 push	 OFFSET ??_C@_03FHMHNLHA@MFD@
  007e6	e8 00 00 00 00	 call	 ?set_hokum_text_display_text@@YGXPAD00@Z ; set_hokum_text_display_text

; 835  : 
; 836  : 			play_client_server_warning_message (en, SPEECH_SYSTEM_MFD_FAILURE);

  007eb	6a 11		 push	 17			; 00000011H
  007ed	8b 45 fc	 mov	 eax, DWORD PTR _en$[ebp]
  007f0	50		 push	 eax
  007f1	e8 00 00 00 00	 call	 ?play_client_server_warning_message@@YGHPAUENTITY@@H@Z ; play_client_server_warning_message

; 837  : 
; 838  : 			select_hokum_mfd_mode (HOKUM_MFD_MODE_DAMAGED, HOKUM_MFD_LOCATION_CO_PILOT_LHS);

  007f6	6a 02		 push	 2
  007f8	6a 01		 push	 1
  007fa	e8 00 00 00 00	 call	 ?select_hokum_mfd_mode@@YGXW4HOKUM_MFD_MODES@@W4HOKUM_MFD_LOCATIONS@@@Z ; select_hokum_mfd_mode
$LN40@damage_sys:

; 839  : 		}
; 840  : 	}
; 841  : 
; 842  : 	////////////////////////////////////////
; 843  : 
; 844  : 	if (damage.co_pilot_rh_mfd)

  007ff	8b 45 08	 mov	 eax, DWORD PTR _damage$[ebp]
  00802	c1 e8 15	 shr	 eax, 21			; 00000015H
  00805	83 e0 01	 and	 eax, 1
  00808	74 55		 je	 SHORT $LN42@damage_sys

; 845  : 	{
; 846  : 		if (!hokum_damage.co_pilot_rh_mfd)

  0080a	a1 00 00 00 00	 mov	 eax, DWORD PTR ?hokum_damage@@3THOKUM_DAMAGE_FLAGS@@A ; hokum_damage
  0080f	c1 e8 15	 shr	 eax, 21			; 00000015H
  00812	83 e0 01	 and	 eax, 1
  00815	75 48		 jne	 SHORT $LN42@damage_sys

; 847  : 		{
; 848  : 			activate_hokum_master_caution ();

  00817	e8 00 00 00 00	 call	 ?activate_hokum_master_caution@@YGXXZ ; activate_hokum_master_caution

; 849  : 
; 850  : 			hokum_damage.co_pilot_rh_mfd = TRUE;

  0081c	a1 00 00 00 00	 mov	 eax, DWORD PTR ?hokum_damage@@3THOKUM_DAMAGE_FLAGS@@A ; hokum_damage
  00821	0d 00 00 20 00	 or	 eax, 2097152		; 00200000H
  00826	a3 00 00 00 00	 mov	 DWORD PTR ?hokum_damage@@3THOKUM_DAMAGE_FLAGS@@A, eax ; hokum_damage

; 851  : 
; 852  : 			dynamics_damage_model (DYNAMICS_DAMAGE_AVIONICS, FALSE);

  0082b	6a 00		 push	 0
  0082d	68 00 10 00 00	 push	 4096			; 00001000H
  00832	e8 00 00 00 00	 call	 ?dynamics_damage_model@@YGXIH@Z ; dynamics_damage_model

; 853  : 
; 854  : 			set_hokum_text_display_text ("MFD", "FAILURE", "");

  00837	68 00 00 00 00	 push	 OFFSET ??_C@_00CNPNBAHC@@
  0083c	68 00 00 00 00	 push	 OFFSET ??_C@_07DMOCMFND@FAILURE@
  00841	68 00 00 00 00	 push	 OFFSET ??_C@_03FHMHNLHA@MFD@
  00846	e8 00 00 00 00	 call	 ?set_hokum_text_display_text@@YGXPAD00@Z ; set_hokum_text_display_text

; 855  : 
; 856  : 			play_client_server_warning_message (en, SPEECH_SYSTEM_MFD_FAILURE);

  0084b	6a 11		 push	 17			; 00000011H
  0084d	8b 45 fc	 mov	 eax, DWORD PTR _en$[ebp]
  00850	50		 push	 eax
  00851	e8 00 00 00 00	 call	 ?play_client_server_warning_message@@YGHPAUENTITY@@H@Z ; play_client_server_warning_message

; 857  : 
; 858  : 			select_hokum_mfd_mode (HOKUM_MFD_MODE_DAMAGED, HOKUM_MFD_LOCATION_CO_PILOT_RHS);

  00856	6a 03		 push	 3
  00858	6a 01		 push	 1
  0085a	e8 00 00 00 00	 call	 ?select_hokum_mfd_mode@@YGXW4HOKUM_MFD_MODES@@W4HOKUM_MFD_LOCATIONS@@@Z ; select_hokum_mfd_mode
$LN42@damage_sys:

; 859  : 		}
; 860  : 	}
; 861  : 
; 862  : 	////////////////////////////////////////
; 863  : 
; 864  : 	if (damage.night_vision_goggles)

  0085f	8b 45 08	 mov	 eax, DWORD PTR _damage$[ebp]
  00862	c1 e8 16	 shr	 eax, 22			; 00000016H
  00865	83 e0 01	 and	 eax, 1
  00868	74 56		 je	 SHORT $LN44@damage_sys

; 865  : 	{
; 866  : 		if (!hokum_damage.night_vision_goggles)

  0086a	a1 00 00 00 00	 mov	 eax, DWORD PTR ?hokum_damage@@3THOKUM_DAMAGE_FLAGS@@A ; hokum_damage
  0086f	c1 e8 16	 shr	 eax, 22			; 00000016H
  00872	83 e0 01	 and	 eax, 1
  00875	75 49		 jne	 SHORT $LN44@damage_sys

; 867  : 		{
; 868  : 			activate_hokum_master_caution ();

  00877	e8 00 00 00 00	 call	 ?activate_hokum_master_caution@@YGXXZ ; activate_hokum_master_caution

; 869  : 
; 870  : 			hokum_damage.night_vision_goggles = TRUE;

  0087c	a1 00 00 00 00	 mov	 eax, DWORD PTR ?hokum_damage@@3THOKUM_DAMAGE_FLAGS@@A ; hokum_damage
  00881	0d 00 00 40 00	 or	 eax, 4194304		; 00400000H
  00886	a3 00 00 00 00	 mov	 DWORD PTR ?hokum_damage@@3THOKUM_DAMAGE_FLAGS@@A, eax ; hokum_damage

; 871  : 
; 872  : 			dynamics_damage_model (DYNAMICS_DAMAGE_AVIONICS, FALSE);

  0088b	6a 00		 push	 0
  0088d	68 00 10 00 00	 push	 4096			; 00001000H
  00892	e8 00 00 00 00	 call	 ?dynamics_damage_model@@YGXIH@Z ; dynamics_damage_model

; 873  : 
; 874  : 			set_hokum_text_display_text ("NVG", "DAMAGED", "");

  00897	68 00 00 00 00	 push	 OFFSET ??_C@_00CNPNBAHC@@
  0089c	68 00 00 00 00	 push	 OFFSET ??_C@_07OHKEFPKJ@DAMAGED@
  008a1	68 00 00 00 00	 push	 OFFSET ??_C@_03HCHJIECN@NVG@
  008a6	e8 00 00 00 00	 call	 ?set_hokum_text_display_text@@YGXPAD00@Z ; set_hokum_text_display_text

; 875  : 
; 876  : 			play_client_server_warning_message (en, SPEECH_SYSTEM_NIGHT_VISION_GOGGLES_FAILURE);

  008ab	6a 16		 push	 22			; 00000016H
  008ad	8b 45 fc	 mov	 eax, DWORD PTR _en$[ebp]
  008b0	50		 push	 eax
  008b1	e8 00 00 00 00	 call	 ?play_client_server_warning_message@@YGHPAUENTITY@@H@Z ; play_client_server_warning_message

; 877  : 
; 878  : 			night_vision_system_active = FALSE;

  008b6	c7 05 00 00 00
	00 00 00 00 00	 mov	 DWORD PTR ?night_vision_system_active@@3HA, 0 ; night_vision_system_active
$LN44@damage_sys:

; 879  : 		}
; 880  : 	}
; 881  : 
; 882  : 	////////////////////////////////////////
; 883  : 
; 884  : 	if (damage.gun_jammed)

  008c0	8b 45 08	 mov	 eax, DWORD PTR _damage$[ebp]
  008c3	c1 e8 17	 shr	 eax, 23			; 00000017H
  008c6	83 e0 01	 and	 eax, 1
  008c9	74 4c		 je	 SHORT $LN46@damage_sys

; 885  : 	{
; 886  : 		if (!hokum_damage.gun_jammed)

  008cb	a1 00 00 00 00	 mov	 eax, DWORD PTR ?hokum_damage@@3THOKUM_DAMAGE_FLAGS@@A ; hokum_damage
  008d0	c1 e8 17	 shr	 eax, 23			; 00000017H
  008d3	83 e0 01	 and	 eax, 1
  008d6	75 3f		 jne	 SHORT $LN46@damage_sys

; 887  : 		{
; 888  : 			activate_hokum_master_caution ();

  008d8	e8 00 00 00 00	 call	 ?activate_hokum_master_caution@@YGXXZ ; activate_hokum_master_caution

; 889  : 
; 890  : 			hokum_damage.gun_jammed = TRUE;

  008dd	a1 00 00 00 00	 mov	 eax, DWORD PTR ?hokum_damage@@3THOKUM_DAMAGE_FLAGS@@A ; hokum_damage
  008e2	0d 00 00 80 00	 or	 eax, 8388608		; 00800000H
  008e7	a3 00 00 00 00	 mov	 DWORD PTR ?hokum_damage@@3THOKUM_DAMAGE_FLAGS@@A, eax ; hokum_damage

; 891  : 
; 892  : 			dynamics_damage_model (DYNAMICS_DAMAGE_AVIONICS, FALSE);

  008ec	6a 00		 push	 0
  008ee	68 00 10 00 00	 push	 4096			; 00001000H
  008f3	e8 00 00 00 00	 call	 ?dynamics_damage_model@@YGXIH@Z ; dynamics_damage_model

; 893  : 
; 894  : 			set_hokum_text_display_text ("GUN", "JAMMED", "");

  008f8	68 00 00 00 00	 push	 OFFSET ??_C@_00CNPNBAHC@@
  008fd	68 00 00 00 00	 push	 OFFSET ??_C@_06GNLFAKEN@JAMMED@
  00902	68 00 00 00 00	 push	 OFFSET ??_C@_03NMPFMOLH@GUN@
  00907	e8 00 00 00 00	 call	 ?set_hokum_text_display_text@@YGXPAD00@Z ; set_hokum_text_display_text

; 895  : 
; 896  : 			play_client_server_warning_message (en, SPEECH_SYSTEM_GUN_JAMMED);

  0090c	6a 17		 push	 23			; 00000017H
  0090e	8b 45 fc	 mov	 eax, DWORD PTR _en$[ebp]
  00911	50		 push	 eax
  00912	e8 00 00 00 00	 call	 ?play_client_server_warning_message@@YGHPAUENTITY@@H@Z ; play_client_server_warning_message
$LN46@damage_sys:

; 897  : 		}
; 898  : 	}
; 899  : 
; 900  : 	////////////////////////////////////////
; 901  : 
; 902  : 	if (damage.lh_outer_pylon)

  00917	8b 45 08	 mov	 eax, DWORD PTR _damage$[ebp]
  0091a	c1 e8 18	 shr	 eax, 24			; 00000018H
  0091d	83 e0 01	 and	 eax, 1
  00920	74 4c		 je	 SHORT $LN48@damage_sys

; 903  : 	{
; 904  : 		if (!hokum_damage.lh_outer_pylon)

  00922	a1 00 00 00 00	 mov	 eax, DWORD PTR ?hokum_damage@@3THOKUM_DAMAGE_FLAGS@@A ; hokum_damage
  00927	c1 e8 18	 shr	 eax, 24			; 00000018H
  0092a	83 e0 01	 and	 eax, 1
  0092d	75 3f		 jne	 SHORT $LN48@damage_sys

; 905  : 		{
; 906  : 			activate_hokum_master_caution ();

  0092f	e8 00 00 00 00	 call	 ?activate_hokum_master_caution@@YGXXZ ; activate_hokum_master_caution

; 907  : 
; 908  : 			hokum_damage.lh_outer_pylon = TRUE;

  00934	a1 00 00 00 00	 mov	 eax, DWORD PTR ?hokum_damage@@3THOKUM_DAMAGE_FLAGS@@A ; hokum_damage
  00939	0d 00 00 00 01	 or	 eax, 16777216		; 01000000H
  0093e	a3 00 00 00 00	 mov	 DWORD PTR ?hokum_damage@@3THOKUM_DAMAGE_FLAGS@@A, eax ; hokum_damage

; 909  : 
; 910  : 			dynamics_damage_model (DYNAMICS_DAMAGE_AVIONICS, FALSE);

  00943	6a 00		 push	 0
  00945	68 00 10 00 00	 push	 4096			; 00001000H
  0094a	e8 00 00 00 00	 call	 ?dynamics_damage_model@@YGXIH@Z ; dynamics_damage_model

; 911  : 
; 912  : 			set_hokum_text_display_text ("HARDPOINT", "DAMAGED", "");

  0094f	68 00 00 00 00	 push	 OFFSET ??_C@_00CNPNBAHC@@
  00954	68 00 00 00 00	 push	 OFFSET ??_C@_07OHKEFPKJ@DAMAGED@
  00959	68 00 00 00 00	 push	 OFFSET ??_C@_09GLFEIKAK@HARDPOINT@
  0095e	e8 00 00 00 00	 call	 ?set_hokum_text_display_text@@YGXPAD00@Z ; set_hokum_text_display_text

; 913  : 
; 914  : 			play_client_server_warning_message (en, SPEECH_SYSTEM_HARDPOINT_DAMAGED);

  00963	6a 18		 push	 24			; 00000018H
  00965	8b 45 fc	 mov	 eax, DWORD PTR _en$[ebp]
  00968	50		 push	 eax
  00969	e8 00 00 00 00	 call	 ?play_client_server_warning_message@@YGHPAUENTITY@@H@Z ; play_client_server_warning_message
$LN48@damage_sys:

; 915  : 		}
; 916  : 	}
; 917  : 
; 918  : 	////////////////////////////////////////
; 919  : 
; 920  : 	if (damage.lh_inner_pylon)

  0096e	8b 45 08	 mov	 eax, DWORD PTR _damage$[ebp]
  00971	c1 e8 19	 shr	 eax, 25			; 00000019H
  00974	83 e0 01	 and	 eax, 1
  00977	74 4c		 je	 SHORT $LN50@damage_sys

; 921  : 	{
; 922  : 		if (!hokum_damage.lh_inner_pylon)

  00979	a1 00 00 00 00	 mov	 eax, DWORD PTR ?hokum_damage@@3THOKUM_DAMAGE_FLAGS@@A ; hokum_damage
  0097e	c1 e8 19	 shr	 eax, 25			; 00000019H
  00981	83 e0 01	 and	 eax, 1
  00984	75 3f		 jne	 SHORT $LN50@damage_sys

; 923  : 		{
; 924  : 			activate_hokum_master_caution ();

  00986	e8 00 00 00 00	 call	 ?activate_hokum_master_caution@@YGXXZ ; activate_hokum_master_caution

; 925  : 
; 926  : 			hokum_damage.lh_inner_pylon = TRUE;

  0098b	a1 00 00 00 00	 mov	 eax, DWORD PTR ?hokum_damage@@3THOKUM_DAMAGE_FLAGS@@A ; hokum_damage
  00990	0d 00 00 00 02	 or	 eax, 33554432		; 02000000H
  00995	a3 00 00 00 00	 mov	 DWORD PTR ?hokum_damage@@3THOKUM_DAMAGE_FLAGS@@A, eax ; hokum_damage

; 927  : 
; 928  : 			dynamics_damage_model (DYNAMICS_DAMAGE_AVIONICS, FALSE);

  0099a	6a 00		 push	 0
  0099c	68 00 10 00 00	 push	 4096			; 00001000H
  009a1	e8 00 00 00 00	 call	 ?dynamics_damage_model@@YGXIH@Z ; dynamics_damage_model

; 929  : 
; 930  : 			set_hokum_text_display_text ("HARDPOINT", "DAMAGED", "");

  009a6	68 00 00 00 00	 push	 OFFSET ??_C@_00CNPNBAHC@@
  009ab	68 00 00 00 00	 push	 OFFSET ??_C@_07OHKEFPKJ@DAMAGED@
  009b0	68 00 00 00 00	 push	 OFFSET ??_C@_09GLFEIKAK@HARDPOINT@
  009b5	e8 00 00 00 00	 call	 ?set_hokum_text_display_text@@YGXPAD00@Z ; set_hokum_text_display_text

; 931  : 
; 932  : 			play_client_server_warning_message (en, SPEECH_SYSTEM_HARDPOINT_DAMAGED);

  009ba	6a 18		 push	 24			; 00000018H
  009bc	8b 45 fc	 mov	 eax, DWORD PTR _en$[ebp]
  009bf	50		 push	 eax
  009c0	e8 00 00 00 00	 call	 ?play_client_server_warning_message@@YGHPAUENTITY@@H@Z ; play_client_server_warning_message
$LN50@damage_sys:

; 933  : 		}
; 934  : 	}
; 935  : 
; 936  : 	////////////////////////////////////////
; 937  : 
; 938  : 	if (damage.rh_outer_pylon)

  009c5	8b 45 08	 mov	 eax, DWORD PTR _damage$[ebp]
  009c8	c1 e8 1a	 shr	 eax, 26			; 0000001aH
  009cb	83 e0 01	 and	 eax, 1
  009ce	74 4c		 je	 SHORT $LN52@damage_sys

; 939  : 	{
; 940  : 		if (!hokum_damage.rh_outer_pylon)

  009d0	a1 00 00 00 00	 mov	 eax, DWORD PTR ?hokum_damage@@3THOKUM_DAMAGE_FLAGS@@A ; hokum_damage
  009d5	c1 e8 1a	 shr	 eax, 26			; 0000001aH
  009d8	83 e0 01	 and	 eax, 1
  009db	75 3f		 jne	 SHORT $LN52@damage_sys

; 941  : 		{
; 942  : 			activate_hokum_master_caution ();

  009dd	e8 00 00 00 00	 call	 ?activate_hokum_master_caution@@YGXXZ ; activate_hokum_master_caution

; 943  : 
; 944  : 			hokum_damage.rh_outer_pylon = TRUE;

  009e2	a1 00 00 00 00	 mov	 eax, DWORD PTR ?hokum_damage@@3THOKUM_DAMAGE_FLAGS@@A ; hokum_damage
  009e7	0d 00 00 00 04	 or	 eax, 67108864		; 04000000H
  009ec	a3 00 00 00 00	 mov	 DWORD PTR ?hokum_damage@@3THOKUM_DAMAGE_FLAGS@@A, eax ; hokum_damage

; 945  : 
; 946  : 			dynamics_damage_model (DYNAMICS_DAMAGE_AVIONICS, FALSE);

  009f1	6a 00		 push	 0
  009f3	68 00 10 00 00	 push	 4096			; 00001000H
  009f8	e8 00 00 00 00	 call	 ?dynamics_damage_model@@YGXIH@Z ; dynamics_damage_model

; 947  : 
; 948  : 			set_hokum_text_display_text ("HARDPOINT", "DAMAGED", "");

  009fd	68 00 00 00 00	 push	 OFFSET ??_C@_00CNPNBAHC@@
  00a02	68 00 00 00 00	 push	 OFFSET ??_C@_07OHKEFPKJ@DAMAGED@
  00a07	68 00 00 00 00	 push	 OFFSET ??_C@_09GLFEIKAK@HARDPOINT@
  00a0c	e8 00 00 00 00	 call	 ?set_hokum_text_display_text@@YGXPAD00@Z ; set_hokum_text_display_text

; 949  : 
; 950  : 			play_client_server_warning_message (en, SPEECH_SYSTEM_HARDPOINT_DAMAGED);

  00a11	6a 18		 push	 24			; 00000018H
  00a13	8b 45 fc	 mov	 eax, DWORD PTR _en$[ebp]
  00a16	50		 push	 eax
  00a17	e8 00 00 00 00	 call	 ?play_client_server_warning_message@@YGHPAUENTITY@@H@Z ; play_client_server_warning_message
$LN52@damage_sys:

; 951  : 		}
; 952  : 	}
; 953  : 
; 954  : 	////////////////////////////////////////
; 955  : 
; 956  : 	if (damage.rh_inner_pylon)

  00a1c	8b 45 08	 mov	 eax, DWORD PTR _damage$[ebp]
  00a1f	c1 e8 1b	 shr	 eax, 27			; 0000001bH
  00a22	83 e0 01	 and	 eax, 1
  00a25	74 4c		 je	 SHORT $LN54@damage_sys

; 957  : 	{
; 958  : 		if (!hokum_damage.rh_inner_pylon)

  00a27	a1 00 00 00 00	 mov	 eax, DWORD PTR ?hokum_damage@@3THOKUM_DAMAGE_FLAGS@@A ; hokum_damage
  00a2c	c1 e8 1b	 shr	 eax, 27			; 0000001bH
  00a2f	83 e0 01	 and	 eax, 1
  00a32	75 3f		 jne	 SHORT $LN54@damage_sys

; 959  : 		{
; 960  : 			activate_hokum_master_caution ();

  00a34	e8 00 00 00 00	 call	 ?activate_hokum_master_caution@@YGXXZ ; activate_hokum_master_caution

; 961  : 
; 962  : 			hokum_damage.rh_inner_pylon = TRUE;

  00a39	a1 00 00 00 00	 mov	 eax, DWORD PTR ?hokum_damage@@3THOKUM_DAMAGE_FLAGS@@A ; hokum_damage
  00a3e	0d 00 00 00 08	 or	 eax, 134217728		; 08000000H
  00a43	a3 00 00 00 00	 mov	 DWORD PTR ?hokum_damage@@3THOKUM_DAMAGE_FLAGS@@A, eax ; hokum_damage

; 963  : 
; 964  : 			dynamics_damage_model (DYNAMICS_DAMAGE_AVIONICS, FALSE);

  00a48	6a 00		 push	 0
  00a4a	68 00 10 00 00	 push	 4096			; 00001000H
  00a4f	e8 00 00 00 00	 call	 ?dynamics_damage_model@@YGXIH@Z ; dynamics_damage_model

; 965  : 
; 966  : 			set_hokum_text_display_text ("HARDPOINT", "DAMAGED", "");

  00a54	68 00 00 00 00	 push	 OFFSET ??_C@_00CNPNBAHC@@
  00a59	68 00 00 00 00	 push	 OFFSET ??_C@_07OHKEFPKJ@DAMAGED@
  00a5e	68 00 00 00 00	 push	 OFFSET ??_C@_09GLFEIKAK@HARDPOINT@
  00a63	e8 00 00 00 00	 call	 ?set_hokum_text_display_text@@YGXPAD00@Z ; set_hokum_text_display_text

; 967  : 
; 968  : 			play_client_server_warning_message (en, SPEECH_SYSTEM_HARDPOINT_DAMAGED);

  00a68	6a 18		 push	 24			; 00000018H
  00a6a	8b 45 fc	 mov	 eax, DWORD PTR _en$[ebp]
  00a6d	50		 push	 eax
  00a6e	e8 00 00 00 00	 call	 ?play_client_server_warning_message@@YGHPAUENTITY@@H@Z ; play_client_server_warning_message
$LN54@damage_sys:

; 969  : 		}
; 970  : 	}
; 971  : 
; 972  : 	////////////////////////////////////////
; 973  : 
; 974  : 	if (damage.lh_chaff_dispensers)

  00a73	8b 45 08	 mov	 eax, DWORD PTR _damage$[ebp]
  00a76	c1 e8 1c	 shr	 eax, 28			; 0000001cH
  00a79	83 e0 01	 and	 eax, 1
  00a7c	74 4c		 je	 SHORT $LN56@damage_sys

; 975  : 	{
; 976  : 		if (!hokum_damage.lh_chaff_dispensers)

  00a7e	a1 00 00 00 00	 mov	 eax, DWORD PTR ?hokum_damage@@3THOKUM_DAMAGE_FLAGS@@A ; hokum_damage
  00a83	c1 e8 1c	 shr	 eax, 28			; 0000001cH
  00a86	83 e0 01	 and	 eax, 1
  00a89	75 3f		 jne	 SHORT $LN56@damage_sys

; 977  : 		{
; 978  : 			activate_hokum_master_caution ();

  00a8b	e8 00 00 00 00	 call	 ?activate_hokum_master_caution@@YGXXZ ; activate_hokum_master_caution

; 979  : 
; 980  : 			hokum_damage.lh_chaff_dispensers = TRUE;

  00a90	a1 00 00 00 00	 mov	 eax, DWORD PTR ?hokum_damage@@3THOKUM_DAMAGE_FLAGS@@A ; hokum_damage
  00a95	0d 00 00 00 10	 or	 eax, 268435456		; 10000000H
  00a9a	a3 00 00 00 00	 mov	 DWORD PTR ?hokum_damage@@3THOKUM_DAMAGE_FLAGS@@A, eax ; hokum_damage

; 981  : 
; 982  : 			dynamics_damage_model (DYNAMICS_DAMAGE_AVIONICS, FALSE);

  00a9f	6a 00		 push	 0
  00aa1	68 00 10 00 00	 push	 4096			; 00001000H
  00aa6	e8 00 00 00 00	 call	 ?dynamics_damage_model@@YGXIH@Z ; dynamics_damage_model

; 983  : 
; 984  : 			set_hokum_text_display_text ("CHAFF", "DISPENSER", "DAMAGED");

  00aab	68 00 00 00 00	 push	 OFFSET ??_C@_07OHKEFPKJ@DAMAGED@
  00ab0	68 00 00 00 00	 push	 OFFSET ??_C@_09JOFLDFNL@DISPENSER@
  00ab5	68 00 00 00 00	 push	 OFFSET ??_C@_05FOOOBDLP@CHAFF@
  00aba	e8 00 00 00 00	 call	 ?set_hokum_text_display_text@@YGXPAD00@Z ; set_hokum_text_display_text

; 985  : 
; 986  : 			play_client_server_warning_message (en, SPEECH_SYSTEM_CHAFF_DISPENSER_DAMAGED);

  00abf	6a 19		 push	 25			; 00000019H
  00ac1	8b 45 fc	 mov	 eax, DWORD PTR _en$[ebp]
  00ac4	50		 push	 eax
  00ac5	e8 00 00 00 00	 call	 ?play_client_server_warning_message@@YGHPAUENTITY@@H@Z ; play_client_server_warning_message
$LN56@damage_sys:

; 987  : 		}
; 988  : 	}
; 989  : 
; 990  : 	////////////////////////////////////////
; 991  : 
; 992  : 	if (damage.rh_chaff_dispensers)

  00aca	8b 45 08	 mov	 eax, DWORD PTR _damage$[ebp]
  00acd	c1 e8 1d	 shr	 eax, 29			; 0000001dH
  00ad0	83 e0 01	 and	 eax, 1
  00ad3	74 4c		 je	 SHORT $LN58@damage_sys

; 993  : 	{
; 994  : 		if (!hokum_damage.rh_chaff_dispensers)

  00ad5	a1 00 00 00 00	 mov	 eax, DWORD PTR ?hokum_damage@@3THOKUM_DAMAGE_FLAGS@@A ; hokum_damage
  00ada	c1 e8 1d	 shr	 eax, 29			; 0000001dH
  00add	83 e0 01	 and	 eax, 1
  00ae0	75 3f		 jne	 SHORT $LN58@damage_sys

; 995  : 		{
; 996  : 			activate_hokum_master_caution ();

  00ae2	e8 00 00 00 00	 call	 ?activate_hokum_master_caution@@YGXXZ ; activate_hokum_master_caution

; 997  : 
; 998  : 			hokum_damage.rh_chaff_dispensers = TRUE;

  00ae7	a1 00 00 00 00	 mov	 eax, DWORD PTR ?hokum_damage@@3THOKUM_DAMAGE_FLAGS@@A ; hokum_damage
  00aec	0d 00 00 00 20	 or	 eax, 536870912		; 20000000H
  00af1	a3 00 00 00 00	 mov	 DWORD PTR ?hokum_damage@@3THOKUM_DAMAGE_FLAGS@@A, eax ; hokum_damage

; 999  : 
; 1000 : 			dynamics_damage_model (DYNAMICS_DAMAGE_AVIONICS, FALSE);

  00af6	6a 00		 push	 0
  00af8	68 00 10 00 00	 push	 4096			; 00001000H
  00afd	e8 00 00 00 00	 call	 ?dynamics_damage_model@@YGXIH@Z ; dynamics_damage_model

; 1001 : 
; 1002 : 			set_hokum_text_display_text ("CHAFF", "DISPENSER", "DAMAGED");

  00b02	68 00 00 00 00	 push	 OFFSET ??_C@_07OHKEFPKJ@DAMAGED@
  00b07	68 00 00 00 00	 push	 OFFSET ??_C@_09JOFLDFNL@DISPENSER@
  00b0c	68 00 00 00 00	 push	 OFFSET ??_C@_05FOOOBDLP@CHAFF@
  00b11	e8 00 00 00 00	 call	 ?set_hokum_text_display_text@@YGXPAD00@Z ; set_hokum_text_display_text

; 1003 : 
; 1004 : 			play_client_server_warning_message (en, SPEECH_SYSTEM_CHAFF_DISPENSER_DAMAGED);

  00b16	6a 19		 push	 25			; 00000019H
  00b18	8b 45 fc	 mov	 eax, DWORD PTR _en$[ebp]
  00b1b	50		 push	 eax
  00b1c	e8 00 00 00 00	 call	 ?play_client_server_warning_message@@YGHPAUENTITY@@H@Z ; play_client_server_warning_message
$LN58@damage_sys:

; 1005 : 		}
; 1006 : 	}
; 1007 : 
; 1008 : 	////////////////////////////////////////
; 1009 : 
; 1010 : 	if (damage.lh_flare_dispensers)

  00b21	8b 45 08	 mov	 eax, DWORD PTR _damage$[ebp]
  00b24	c1 e8 1e	 shr	 eax, 30			; 0000001eH
  00b27	83 e0 01	 and	 eax, 1
  00b2a	74 4c		 je	 SHORT $LN60@damage_sys

; 1011 : 	{
; 1012 : 		if (!hokum_damage.lh_flare_dispensers)

  00b2c	a1 00 00 00 00	 mov	 eax, DWORD PTR ?hokum_damage@@3THOKUM_DAMAGE_FLAGS@@A ; hokum_damage
  00b31	c1 e8 1e	 shr	 eax, 30			; 0000001eH
  00b34	83 e0 01	 and	 eax, 1
  00b37	75 3f		 jne	 SHORT $LN60@damage_sys

; 1013 : 		{
; 1014 : 			activate_hokum_master_caution ();

  00b39	e8 00 00 00 00	 call	 ?activate_hokum_master_caution@@YGXXZ ; activate_hokum_master_caution

; 1015 : 
; 1016 : 			hokum_damage.lh_flare_dispensers = TRUE;

  00b3e	a1 00 00 00 00	 mov	 eax, DWORD PTR ?hokum_damage@@3THOKUM_DAMAGE_FLAGS@@A ; hokum_damage
  00b43	0d 00 00 00 40	 or	 eax, 1073741824		; 40000000H
  00b48	a3 00 00 00 00	 mov	 DWORD PTR ?hokum_damage@@3THOKUM_DAMAGE_FLAGS@@A, eax ; hokum_damage

; 1017 : 
; 1018 : 			dynamics_damage_model (DYNAMICS_DAMAGE_AVIONICS, FALSE);

  00b4d	6a 00		 push	 0
  00b4f	68 00 10 00 00	 push	 4096			; 00001000H
  00b54	e8 00 00 00 00	 call	 ?dynamics_damage_model@@YGXIH@Z ; dynamics_damage_model

; 1019 : 
; 1020 : 			set_hokum_text_display_text ("FLARE", "DISPENSER", "DAMAGED");

  00b59	68 00 00 00 00	 push	 OFFSET ??_C@_07OHKEFPKJ@DAMAGED@
  00b5e	68 00 00 00 00	 push	 OFFSET ??_C@_09JOFLDFNL@DISPENSER@
  00b63	68 00 00 00 00	 push	 OFFSET ??_C@_05MLKBHMKD@FLARE@
  00b68	e8 00 00 00 00	 call	 ?set_hokum_text_display_text@@YGXPAD00@Z ; set_hokum_text_display_text

; 1021 : 
; 1022 : 			play_client_server_warning_message (en, SPEECH_SYSTEM_FLARE_DISPENSER_DAMAGED);

  00b6d	6a 1a		 push	 26			; 0000001aH
  00b6f	8b 45 fc	 mov	 eax, DWORD PTR _en$[ebp]
  00b72	50		 push	 eax
  00b73	e8 00 00 00 00	 call	 ?play_client_server_warning_message@@YGHPAUENTITY@@H@Z ; play_client_server_warning_message
$LN60@damage_sys:

; 1023 : 		}
; 1024 : 	}
; 1025 : 
; 1026 : 	////////////////////////////////////////
; 1027 : 
; 1028 : 	if (damage.rh_flare_dispensers)

  00b78	8b 45 08	 mov	 eax, DWORD PTR _damage$[ebp]
  00b7b	c1 e8 1f	 shr	 eax, 31			; 0000001fH
  00b7e	83 e0 01	 and	 eax, 1
  00b81	74 4c		 je	 SHORT $LN62@damage_sys

; 1029 : 	{
; 1030 : 		if (!hokum_damage.rh_flare_dispensers)

  00b83	a1 00 00 00 00	 mov	 eax, DWORD PTR ?hokum_damage@@3THOKUM_DAMAGE_FLAGS@@A ; hokum_damage
  00b88	c1 e8 1f	 shr	 eax, 31			; 0000001fH
  00b8b	83 e0 01	 and	 eax, 1
  00b8e	75 3f		 jne	 SHORT $LN62@damage_sys

; 1031 : 		{
; 1032 : 			activate_hokum_master_caution ();

  00b90	e8 00 00 00 00	 call	 ?activate_hokum_master_caution@@YGXXZ ; activate_hokum_master_caution

; 1033 : 
; 1034 : 			hokum_damage.rh_flare_dispensers = TRUE;

  00b95	a1 00 00 00 00	 mov	 eax, DWORD PTR ?hokum_damage@@3THOKUM_DAMAGE_FLAGS@@A ; hokum_damage
  00b9a	0d 00 00 00 80	 or	 eax, -2147483648	; 80000000H
  00b9f	a3 00 00 00 00	 mov	 DWORD PTR ?hokum_damage@@3THOKUM_DAMAGE_FLAGS@@A, eax ; hokum_damage

; 1035 : 
; 1036 : 			dynamics_damage_model (DYNAMICS_DAMAGE_AVIONICS, FALSE);

  00ba4	6a 00		 push	 0
  00ba6	68 00 10 00 00	 push	 4096			; 00001000H
  00bab	e8 00 00 00 00	 call	 ?dynamics_damage_model@@YGXIH@Z ; dynamics_damage_model

; 1037 : 
; 1038 : 			set_hokum_text_display_text ("FLARE", "DISPENSER", "DAMAGED");

  00bb0	68 00 00 00 00	 push	 OFFSET ??_C@_07OHKEFPKJ@DAMAGED@
  00bb5	68 00 00 00 00	 push	 OFFSET ??_C@_09JOFLDFNL@DISPENSER@
  00bba	68 00 00 00 00	 push	 OFFSET ??_C@_05MLKBHMKD@FLARE@
  00bbf	e8 00 00 00 00	 call	 ?set_hokum_text_display_text@@YGXPAD00@Z ; set_hokum_text_display_text

; 1039 : 
; 1040 : 			play_client_server_warning_message (en, SPEECH_SYSTEM_FLARE_DISPENSER_DAMAGED);

  00bc4	6a 1a		 push	 26			; 0000001aH
  00bc6	8b 45 fc	 mov	 eax, DWORD PTR _en$[ebp]
  00bc9	50		 push	 eax
  00bca	e8 00 00 00 00	 call	 ?play_client_server_warning_message@@YGHPAUENTITY@@H@Z ; play_client_server_warning_message
$LN62@damage_sys:

; 1041 : 		}
; 1042 : 	}
; 1043 : 
; 1044 : 	////////////////////////////////////////
; 1045 : 
; 1046 : 	set_hokum_weapon_damage_status ();

  00bcf	e8 00 00 00 00	 call	 ?set_hokum_weapon_damage_status@@YGXXZ ; set_hokum_weapon_damage_status

; 1047 : }

  00bd4	5f		 pop	 edi
  00bd5	5e		 pop	 esi
  00bd6	5b		 pop	 ebx
  00bd7	8b e5		 mov	 esp, ebp
  00bd9	5d		 pop	 ebp
  00bda	c2 04 00	 ret	 4
?damage_systems@@YGXTHOKUM_DAMAGE_FLAGS@@@Z ENDP	; damage_systems
_TEXT	ENDS
; Function compile flags: /Odtp /ZI
; File c:\users\nhv90\projects\eech\aphavoc\source\gunships\avionics\hokum\hk_dam.c
;	COMDAT ?notify_hokum_avionics_of_dynamics_fault@@YGXI@Z
_TEXT	SEGMENT
_damage$ = 8						; size = 4
?notify_hokum_avionics_of_dynamics_fault@@YGXI@Z PROC	; notify_hokum_avionics_of_dynamics_fault, COMDAT

; 1104 : {

  00000	55		 push	 ebp
  00001	8b ec		 mov	 ebp, esp
  00003	83 ec 40	 sub	 esp, 64			; 00000040H
  00006	53		 push	 ebx
  00007	56		 push	 esi
  00008	57		 push	 edi

; 1105 : 	if (damage & DYNAMICS_DAMAGE_MAIN_ROTOR)

  00009	8b 45 08	 mov	 eax, DWORD PTR _damage$[ebp]
  0000c	83 e0 02	 and	 eax, 2
  0000f	74 19		 je	 SHORT $LN2@notify_hok

; 1106 : 	{
; 1107 : 		activate_hokum_master_caution ();

  00011	e8 00 00 00 00	 call	 ?activate_hokum_master_caution@@YGXXZ ; activate_hokum_master_caution

; 1108 : 
; 1109 : 		set_hokum_text_display_text ("MAIN ROTOR", "DAMAGED", "");

  00016	68 00 00 00 00	 push	 OFFSET ??_C@_00CNPNBAHC@@
  0001b	68 00 00 00 00	 push	 OFFSET ??_C@_07OHKEFPKJ@DAMAGED@
  00020	68 00 00 00 00	 push	 OFFSET ??_C@_0L@FFIGCBMA@MAIN?5ROTOR@
  00025	e8 00 00 00 00	 call	 ?set_hokum_text_display_text@@YGXPAD00@Z ; set_hokum_text_display_text
$LN2@notify_hok:

; 1110 : 	}
; 1111 : 
; 1112 : 	if (damage & DYNAMICS_DAMAGE_TAIL_ROTOR)

  0002a	8b 45 08	 mov	 eax, DWORD PTR _damage$[ebp]
  0002d	83 e0 04	 and	 eax, 4
  00030	74 19		 je	 SHORT $LN3@notify_hok

; 1113 : 	{
; 1114 : 		activate_hokum_master_caution ();

  00032	e8 00 00 00 00	 call	 ?activate_hokum_master_caution@@YGXXZ ; activate_hokum_master_caution

; 1115 : 
; 1116 : 		set_hokum_text_display_text ("TAIL ROTOR", "DAMAGED", "");

  00037	68 00 00 00 00	 push	 OFFSET ??_C@_00CNPNBAHC@@
  0003c	68 00 00 00 00	 push	 OFFSET ??_C@_07OHKEFPKJ@DAMAGED@
  00041	68 00 00 00 00	 push	 OFFSET ??_C@_0L@MCBINMPD@TAIL?5ROTOR@
  00046	e8 00 00 00 00	 call	 ?set_hokum_text_display_text@@YGXPAD00@Z ; set_hokum_text_display_text
$LN3@notify_hok:

; 1117 : 	}
; 1118 : 
; 1119 : 	if (damage & DYNAMICS_DAMAGE_LEFT_ENGINE)

  0004b	8b 45 08	 mov	 eax, DWORD PTR _damage$[ebp]
  0004e	83 e0 08	 and	 eax, 8
  00051	74 19		 je	 SHORT $LN4@notify_hok

; 1120 : 	{
; 1121 : 		activate_hokum_master_caution ();

  00053	e8 00 00 00 00	 call	 ?activate_hokum_master_caution@@YGXXZ ; activate_hokum_master_caution

; 1122 : 
; 1123 : 		set_hokum_text_display_text ("LEFT", "ENGINE", "DAMAGED");

  00058	68 00 00 00 00	 push	 OFFSET ??_C@_07OHKEFPKJ@DAMAGED@
  0005d	68 00 00 00 00	 push	 OFFSET ??_C@_06LKDHJJCH@ENGINE@
  00062	68 00 00 00 00	 push	 OFFSET ??_C@_04KCNEHMIH@LEFT@
  00067	e8 00 00 00 00	 call	 ?set_hokum_text_display_text@@YGXPAD00@Z ; set_hokum_text_display_text
$LN4@notify_hok:

; 1124 : 	}
; 1125 : 
; 1126 : 	if (damage & DYNAMICS_DAMAGE_RIGHT_ENGINE)

  0006c	8b 45 08	 mov	 eax, DWORD PTR _damage$[ebp]
  0006f	83 e0 10	 and	 eax, 16			; 00000010H
  00072	74 19		 je	 SHORT $LN5@notify_hok

; 1127 : 	{
; 1128 : 		activate_hokum_master_caution ();

  00074	e8 00 00 00 00	 call	 ?activate_hokum_master_caution@@YGXXZ ; activate_hokum_master_caution

; 1129 : 
; 1130 : 		set_hokum_text_display_text ("RIGHT", "ENGINE", "DAMAGED");

  00079	68 00 00 00 00	 push	 OFFSET ??_C@_07OHKEFPKJ@DAMAGED@
  0007e	68 00 00 00 00	 push	 OFFSET ??_C@_06LKDHJJCH@ENGINE@
  00083	68 00 00 00 00	 push	 OFFSET ??_C@_05PMAFOJDE@RIGHT@
  00088	e8 00 00 00 00	 call	 ?set_hokum_text_display_text@@YGXPAD00@Z ; set_hokum_text_display_text
$LN5@notify_hok:

; 1131 : 	}
; 1132 : 
; 1133 : 	if (damage & DYNAMICS_DAMAGE_LEFT_ENGINE_FIRE)

  0008d	8b 45 08	 mov	 eax, DWORD PTR _damage$[ebp]
  00090	83 e0 20	 and	 eax, 32			; 00000020H
  00093	74 19		 je	 SHORT $LN6@notify_hok

; 1134 : 	{
; 1135 : 		activate_hokum_master_caution ();

  00095	e8 00 00 00 00	 call	 ?activate_hokum_master_caution@@YGXXZ ; activate_hokum_master_caution

; 1136 : 
; 1137 : 		set_hokum_text_display_text ("LEFT", "ENGINE", "FIRE");

  0009a	68 00 00 00 00	 push	 OFFSET ??_C@_04OKEEPDCC@FIRE@
  0009f	68 00 00 00 00	 push	 OFFSET ??_C@_06LKDHJJCH@ENGINE@
  000a4	68 00 00 00 00	 push	 OFFSET ??_C@_04KCNEHMIH@LEFT@
  000a9	e8 00 00 00 00	 call	 ?set_hokum_text_display_text@@YGXPAD00@Z ; set_hokum_text_display_text
$LN6@notify_hok:

; 1138 : 	}
; 1139 : 
; 1140 : 	if (damage & DYNAMICS_DAMAGE_RIGHT_ENGINE_FIRE)

  000ae	8b 45 08	 mov	 eax, DWORD PTR _damage$[ebp]
  000b1	83 e0 40	 and	 eax, 64			; 00000040H
  000b4	74 19		 je	 SHORT $LN7@notify_hok

; 1141 : 	{
; 1142 : 		activate_hokum_master_caution ();

  000b6	e8 00 00 00 00	 call	 ?activate_hokum_master_caution@@YGXXZ ; activate_hokum_master_caution

; 1143 : 
; 1144 : 		set_hokum_text_display_text ("RIGHT", "ENGINE", "FIRE");

  000bb	68 00 00 00 00	 push	 OFFSET ??_C@_04OKEEPDCC@FIRE@
  000c0	68 00 00 00 00	 push	 OFFSET ??_C@_06LKDHJJCH@ENGINE@
  000c5	68 00 00 00 00	 push	 OFFSET ??_C@_05PMAFOJDE@RIGHT@
  000ca	e8 00 00 00 00	 call	 ?set_hokum_text_display_text@@YGXPAD00@Z ; set_hokum_text_display_text
$LN7@notify_hok:

; 1145 : 	}
; 1146 : 
; 1147 : 	if (damage & DYNAMICS_DAMAGE_LOW_HYDRAULICS)

  000cf	8b 45 08	 mov	 eax, DWORD PTR _damage$[ebp]
  000d2	25 80 00 00 00	 and	 eax, 128		; 00000080H
  000d7	74 19		 je	 SHORT $LN8@notify_hok

; 1148 : 	{
; 1149 : 		activate_hokum_master_caution ();

  000d9	e8 00 00 00 00	 call	 ?activate_hokum_master_caution@@YGXXZ ; activate_hokum_master_caution

; 1150 : 
; 1151 : 		set_hokum_text_display_text ("HYDRAULICS", "PRESSURE", "LOW");

  000de	68 00 00 00 00	 push	 OFFSET ??_C@_03IBEFMGAI@LOW@
  000e3	68 00 00 00 00	 push	 OFFSET ??_C@_08IBNIHFAO@PRESSURE@
  000e8	68 00 00 00 00	 push	 OFFSET ??_C@_0L@POFMFPD@HYDRAULICS@
  000ed	e8 00 00 00 00	 call	 ?set_hokum_text_display_text@@YGXPAD00@Z ; set_hokum_text_display_text
$LN8@notify_hok:

; 1152 : 	}
; 1153 : 
; 1154 : 	if (damage & DYNAMICS_DAMAGE_SECONDARY_HYDRAULICS)

  000f2	8b 45 08	 mov	 eax, DWORD PTR _damage$[ebp]
  000f5	25 00 00 02 00	 and	 eax, 131072		; 00020000H
  000fa	74 19		 je	 SHORT $LN9@notify_hok

; 1155 : 	{
; 1156 : 		activate_hokum_master_caution();

  000fc	e8 00 00 00 00	 call	 ?activate_hokum_master_caution@@YGXXZ ; activate_hokum_master_caution

; 1157 : 
; 1158 : 		set_hokum_text_display_text ("SECONDARY", "HYDRAULICS", "FAILURE");

  00101	68 00 00 00 00	 push	 OFFSET ??_C@_07DMOCMFND@FAILURE@
  00106	68 00 00 00 00	 push	 OFFSET ??_C@_0L@POFMFPD@HYDRAULICS@
  0010b	68 00 00 00 00	 push	 OFFSET ??_C@_09HAMKJKBK@SECONDARY@
  00110	e8 00 00 00 00	 call	 ?set_hokum_text_display_text@@YGXPAD00@Z ; set_hokum_text_display_text
$LN9@notify_hok:

; 1159 : 	}
; 1160 : 
; 1161 : 	if (damage & DYNAMICS_DAMAGE_STABILISER)

  00115	8b 45 08	 mov	 eax, DWORD PTR _damage$[ebp]
  00118	25 00 01 00 00	 and	 eax, 256		; 00000100H
  0011d	74 19		 je	 SHORT $LN10@notify_hok

; 1162 : 	{
; 1163 : 		activate_hokum_master_caution ();

  0011f	e8 00 00 00 00	 call	 ?activate_hokum_master_caution@@YGXXZ ; activate_hokum_master_caution

; 1164 : 
; 1165 : 		set_hokum_text_display_text ("STABILISER", "FAILURE", "");

  00124	68 00 00 00 00	 push	 OFFSET ??_C@_00CNPNBAHC@@
  00129	68 00 00 00 00	 push	 OFFSET ??_C@_07DMOCMFND@FAILURE@
  0012e	68 00 00 00 00	 push	 OFFSET ??_C@_0L@LMAEBBOE@STABILISER@
  00133	e8 00 00 00 00	 call	 ?set_hokum_text_display_text@@YGXPAD00@Z ; set_hokum_text_display_text
$LN10@notify_hok:

; 1166 : 	}
; 1167 : 
; 1168 : 	if (damage & DYNAMICS_DAMAGE_FUEL_LEAK)

  00138	8b 45 08	 mov	 eax, DWORD PTR _damage$[ebp]
  0013b	25 00 02 00 00	 and	 eax, 512		; 00000200H
  00140	74 19		 je	 SHORT $LN11@notify_hok

; 1169 : 	{
; 1170 : 		activate_hokum_master_caution ();

  00142	e8 00 00 00 00	 call	 ?activate_hokum_master_caution@@YGXXZ ; activate_hokum_master_caution

; 1171 : 
; 1172 : 		set_hokum_text_display_text ("FUEL LEAK", "", "");

  00147	68 00 00 00 00	 push	 OFFSET ??_C@_00CNPNBAHC@@
  0014c	68 00 00 00 00	 push	 OFFSET ??_C@_00CNPNBAHC@@
  00151	68 00 00 00 00	 push	 OFFSET ??_C@_09BHCFOJL@FUEL?5LEAK@
  00156	e8 00 00 00 00	 call	 ?set_hokum_text_display_text@@YGXPAD00@Z ; set_hokum_text_display_text
$LN11@notify_hok:

; 1173 : 	}
; 1174 : 
; 1175 : 	if (damage & DYNAMICS_DAMAGE_LOW_OIL_PRESSURE)

  0015b	8b 45 08	 mov	 eax, DWORD PTR _damage$[ebp]
  0015e	25 00 04 00 00	 and	 eax, 1024		; 00000400H
  00163	74 19		 je	 SHORT $LN12@notify_hok

; 1176 : 	{
; 1177 : 		activate_hokum_master_caution ();

  00165	e8 00 00 00 00	 call	 ?activate_hokum_master_caution@@YGXXZ ; activate_hokum_master_caution

; 1178 : 
; 1179 : 		set_hokum_text_display_text ("LOW OIL", "PRESSURE", "");

  0016a	68 00 00 00 00	 push	 OFFSET ??_C@_00CNPNBAHC@@
  0016f	68 00 00 00 00	 push	 OFFSET ??_C@_08IBNIHFAO@PRESSURE@
  00174	68 00 00 00 00	 push	 OFFSET ??_C@_07GGBGBLMC@LOW?5OIL@
  00179	e8 00 00 00 00	 call	 ?set_hokum_text_display_text@@YGXPAD00@Z ; set_hokum_text_display_text
$LN12@notify_hok:

; 1180 : 	}
; 1181 : 
; 1182 : 	if (damage & DYNAMICS_DAMAGE_HIGH_OIL_PRESSURE)

  0017e	8b 45 08	 mov	 eax, DWORD PTR _damage$[ebp]
  00181	25 00 08 00 00	 and	 eax, 2048		; 00000800H
  00186	74 19		 je	 SHORT $LN13@notify_hok

; 1183 : 	{
; 1184 : 		activate_hokum_master_caution ();

  00188	e8 00 00 00 00	 call	 ?activate_hokum_master_caution@@YGXXZ ; activate_hokum_master_caution

; 1185 : 
; 1186 : 		set_hokum_text_display_text ("HIGH OIL", "PRESSURE", "");

  0018d	68 00 00 00 00	 push	 OFFSET ??_C@_00CNPNBAHC@@
  00192	68 00 00 00 00	 push	 OFFSET ??_C@_08IBNIHFAO@PRESSURE@
  00197	68 00 00 00 00	 push	 OFFSET ??_C@_08JPIIBFH@HIGH?5OIL@
  0019c	e8 00 00 00 00	 call	 ?set_hokum_text_display_text@@YGXPAD00@Z ; set_hokum_text_display_text
$LN13@notify_hok:

; 1187 : 	}
; 1188 : 
; 1189 : 	if (damage & DYNAMICS_DAMAGE_UNDERCARRIAGE)

  001a1	8b 45 08	 mov	 eax, DWORD PTR _damage$[ebp]
  001a4	25 00 40 00 00	 and	 eax, 16384		; 00004000H
  001a9	74 19		 je	 SHORT $LN1@notify_hok

; 1190 : 	{
; 1191 : 		activate_hokum_master_caution ();

  001ab	e8 00 00 00 00	 call	 ?activate_hokum_master_caution@@YGXXZ ; activate_hokum_master_caution

; 1192 : 
; 1193 : 		set_hokum_text_display_text ("GEAR", "DAMAGED", "");

  001b0	68 00 00 00 00	 push	 OFFSET ??_C@_00CNPNBAHC@@
  001b5	68 00 00 00 00	 push	 OFFSET ??_C@_07OHKEFPKJ@DAMAGED@
  001ba	68 00 00 00 00	 push	 OFFSET ??_C@_04IGBBPMJF@GEAR@
  001bf	e8 00 00 00 00	 call	 ?set_hokum_text_display_text@@YGXPAD00@Z ; set_hokum_text_display_text
$LN1@notify_hok:

; 1194 : 	}
; 1195 : }

  001c4	5f		 pop	 edi
  001c5	5e		 pop	 esi
  001c6	5b		 pop	 ebx
  001c7	8b e5		 mov	 esp, ebp
  001c9	5d		 pop	 ebp
  001ca	c2 04 00	 ret	 4
?notify_hokum_avionics_of_dynamics_fault@@YGXI@Z ENDP	; notify_hokum_avionics_of_dynamics_fault
_TEXT	ENDS
; Function compile flags: /Odtp /ZI
; File c:\users\nhv90\projects\eech\aphavoc\source\gunships\avionics\hokum\hk_dam.c
;	COMDAT ?damage_hokum@@YGXW4GUNSHIP_DAMAGE_LEVELS@@@Z
_TEXT	SEGMENT
tv64 = -76						; size = 4
_hokum_damage$ = -8					; size = 4
_damage$ = -4						; size = 4
_damage_level$ = 8					; size = 4
?damage_hokum@@YGXW4GUNSHIP_DAMAGE_LEVELS@@@Z PROC	; damage_hokum, COMDAT

; 1054 : {

  00000	55		 push	 ebp
  00001	8b ec		 mov	 ebp, esp
  00003	83 ec 4c	 sub	 esp, 76			; 0000004cH
  00006	53		 push	 ebx
  00007	56		 push	 esi
  00008	57		 push	 edi

; 1055 : 	unsigned int
; 1056 : 		damage;
; 1057 : 
; 1058 : 	hokum_damage_flags
; 1059 : 		hokum_damage;
; 1060 : 
; 1061 : 	damage = 0;

  00009	c7 45 fc 00 00
	00 00		 mov	 DWORD PTR _damage$[ebp], 0

; 1062 : 
; 1063 : 	switch (damage_level)

  00010	8b 45 08	 mov	 eax, DWORD PTR _damage_level$[ebp]
  00013	89 45 b4	 mov	 DWORD PTR tv64[ebp], eax
  00016	83 7d b4 00	 cmp	 DWORD PTR tv64[ebp], 0
  0001a	74 15		 je	 SHORT $LN4@damage_hok
  0001c	83 7d b4 01	 cmp	 DWORD PTR tv64[ebp], 1
  00020	74 47		 je	 SHORT $LN5@damage_hok
  00022	83 7d b4 02	 cmp	 DWORD PTR tv64[ebp], 2
  00026	0f 84 a8 00 00
	00		 je	 $LN6@damage_hok
  0002c	e9 3e 01 00 00	 jmp	 $LN7@damage_hok
$LN4@damage_hok:

; 1064 : 	{
; 1065 : 		case GUNSHIP_DAMAGE_LEVEL_LIGHT:
; 1066 : 		{
; 1067 : 			damage |= 1 << (rand16 () & 0x1f);

  00031	69 05 00 00 00
	00 6d 4e c6 41	 imul	 eax, DWORD PTR ?random_number_seed@@3HA, 1103515245 ; random_number_seed
  0003b	05 39 30 00 00	 add	 eax, 12345		; 00003039H
  00040	a3 00 00 00 00	 mov	 DWORD PTR ?random_number_seed@@3HA, eax ; random_number_seed
  00045	8b 0d 00 00 00
	00		 mov	 ecx, DWORD PTR ?random_number_seed@@3HA ; random_number_seed
  0004b	c1 f9 10	 sar	 ecx, 16			; 00000010H
  0004e	81 e1 ff 7f 00
	00		 and	 ecx, 32767		; 00007fffH
  00054	83 e1 1f	 and	 ecx, 31			; 0000001fH
  00057	ba 01 00 00 00	 mov	 edx, 1
  0005c	d3 e2		 shl	 edx, cl
  0005e	0b 55 fc	 or	 edx, DWORD PTR _damage$[ebp]
  00061	89 55 fc	 mov	 DWORD PTR _damage$[ebp], edx

; 1068 : 
; 1069 : 			break;

  00064	e9 17 01 00 00	 jmp	 $LN2@damage_hok
$LN5@damage_hok:

; 1070 : 		}
; 1071 : 		case GUNSHIP_DAMAGE_LEVEL_MEDIUM:
; 1072 : 		{
; 1073 : 			damage |= 1 << (rand16 () & 0x1f);

  00069	69 05 00 00 00
	00 6d 4e c6 41	 imul	 eax, DWORD PTR ?random_number_seed@@3HA, 1103515245 ; random_number_seed
  00073	05 39 30 00 00	 add	 eax, 12345		; 00003039H
  00078	a3 00 00 00 00	 mov	 DWORD PTR ?random_number_seed@@3HA, eax ; random_number_seed
  0007d	8b 0d 00 00 00
	00		 mov	 ecx, DWORD PTR ?random_number_seed@@3HA ; random_number_seed
  00083	c1 f9 10	 sar	 ecx, 16			; 00000010H
  00086	81 e1 ff 7f 00
	00		 and	 ecx, 32767		; 00007fffH
  0008c	83 e1 1f	 and	 ecx, 31			; 0000001fH
  0008f	ba 01 00 00 00	 mov	 edx, 1
  00094	d3 e2		 shl	 edx, cl
  00096	0b 55 fc	 or	 edx, DWORD PTR _damage$[ebp]
  00099	89 55 fc	 mov	 DWORD PTR _damage$[ebp], edx

; 1074 : 			damage |= 1 << (rand16 () & 0x1f);

  0009c	69 05 00 00 00
	00 6d 4e c6 41	 imul	 eax, DWORD PTR ?random_number_seed@@3HA, 1103515245 ; random_number_seed
  000a6	05 39 30 00 00	 add	 eax, 12345		; 00003039H
  000ab	a3 00 00 00 00	 mov	 DWORD PTR ?random_number_seed@@3HA, eax ; random_number_seed
  000b0	8b 0d 00 00 00
	00		 mov	 ecx, DWORD PTR ?random_number_seed@@3HA ; random_number_seed
  000b6	c1 f9 10	 sar	 ecx, 16			; 00000010H
  000b9	81 e1 ff 7f 00
	00		 and	 ecx, 32767		; 00007fffH
  000bf	83 e1 1f	 and	 ecx, 31			; 0000001fH
  000c2	ba 01 00 00 00	 mov	 edx, 1
  000c7	d3 e2		 shl	 edx, cl
  000c9	0b 55 fc	 or	 edx, DWORD PTR _damage$[ebp]
  000cc	89 55 fc	 mov	 DWORD PTR _damage$[ebp], edx

; 1075 : 
; 1076 : 			break;

  000cf	e9 ac 00 00 00	 jmp	 $LN2@damage_hok
$LN6@damage_hok:

; 1077 : 		}
; 1078 : 		case GUNSHIP_DAMAGE_LEVEL_HEAVY:
; 1079 : 		{
; 1080 : 			damage |= 1 << (rand16 () & 0x1f);

  000d4	69 05 00 00 00
	00 6d 4e c6 41	 imul	 eax, DWORD PTR ?random_number_seed@@3HA, 1103515245 ; random_number_seed
  000de	05 39 30 00 00	 add	 eax, 12345		; 00003039H
  000e3	a3 00 00 00 00	 mov	 DWORD PTR ?random_number_seed@@3HA, eax ; random_number_seed
  000e8	8b 0d 00 00 00
	00		 mov	 ecx, DWORD PTR ?random_number_seed@@3HA ; random_number_seed
  000ee	c1 f9 10	 sar	 ecx, 16			; 00000010H
  000f1	81 e1 ff 7f 00
	00		 and	 ecx, 32767		; 00007fffH
  000f7	83 e1 1f	 and	 ecx, 31			; 0000001fH
  000fa	ba 01 00 00 00	 mov	 edx, 1
  000ff	d3 e2		 shl	 edx, cl
  00101	0b 55 fc	 or	 edx, DWORD PTR _damage$[ebp]
  00104	89 55 fc	 mov	 DWORD PTR _damage$[ebp], edx

; 1081 : 			damage |= 1 << (rand16 () & 0x1f);

  00107	69 05 00 00 00
	00 6d 4e c6 41	 imul	 eax, DWORD PTR ?random_number_seed@@3HA, 1103515245 ; random_number_seed
  00111	05 39 30 00 00	 add	 eax, 12345		; 00003039H
  00116	a3 00 00 00 00	 mov	 DWORD PTR ?random_number_seed@@3HA, eax ; random_number_seed
  0011b	8b 0d 00 00 00
	00		 mov	 ecx, DWORD PTR ?random_number_seed@@3HA ; random_number_seed
  00121	c1 f9 10	 sar	 ecx, 16			; 00000010H
  00124	81 e1 ff 7f 00
	00		 and	 ecx, 32767		; 00007fffH
  0012a	83 e1 1f	 and	 ecx, 31			; 0000001fH
  0012d	ba 01 00 00 00	 mov	 edx, 1
  00132	d3 e2		 shl	 edx, cl
  00134	0b 55 fc	 or	 edx, DWORD PTR _damage$[ebp]
  00137	89 55 fc	 mov	 DWORD PTR _damage$[ebp], edx

; 1082 : 			damage |= 1 << (rand16 () & 0x1f);

  0013a	69 05 00 00 00
	00 6d 4e c6 41	 imul	 eax, DWORD PTR ?random_number_seed@@3HA, 1103515245 ; random_number_seed
  00144	05 39 30 00 00	 add	 eax, 12345		; 00003039H
  00149	a3 00 00 00 00	 mov	 DWORD PTR ?random_number_seed@@3HA, eax ; random_number_seed
  0014e	8b 0d 00 00 00
	00		 mov	 ecx, DWORD PTR ?random_number_seed@@3HA ; random_number_seed
  00154	c1 f9 10	 sar	 ecx, 16			; 00000010H
  00157	81 e1 ff 7f 00
	00		 and	 ecx, 32767		; 00007fffH
  0015d	83 e1 1f	 and	 ecx, 31			; 0000001fH
  00160	ba 01 00 00 00	 mov	 edx, 1
  00165	d3 e2		 shl	 edx, cl
  00167	0b 55 fc	 or	 edx, DWORD PTR _damage$[ebp]
  0016a	89 55 fc	 mov	 DWORD PTR _damage$[ebp], edx

; 1083 : 
; 1084 : 			break;

  0016d	eb 11		 jmp	 SHORT $LN2@damage_hok
$LN7@damage_hok:

; 1085 : 		}
; 1086 : 		default:
; 1087 : 		{
; 1088 : 			debug_fatal ("Invalid damage_level = %d", damage_level);

  0016f	8b 45 08	 mov	 eax, DWORD PTR _damage_level$[ebp]
  00172	50		 push	 eax
  00173	68 00 00 00 00	 push	 OFFSET ??_C@_0BK@EECAIEOA@Invalid?5damage_level?5?$DN?5?$CFd@
  00178	e8 00 00 00 00	 call	 ?debug_fatal@@YAXPBDZZ	; debug_fatal
  0017d	83 c4 08	 add	 esp, 8
$LN2@damage_hok:

; 1089 : 
; 1090 : 			break;
; 1091 : 		}
; 1092 : 	}
; 1093 : 
; 1094 : 	hokum_damage.flags = damage;

  00180	8b 45 fc	 mov	 eax, DWORD PTR _damage$[ebp]
  00183	89 45 f8	 mov	 DWORD PTR _hokum_damage$[ebp], eax

; 1095 : 
; 1096 : 	damage_systems (hokum_damage);

  00186	8b 45 f8	 mov	 eax, DWORD PTR _hokum_damage$[ebp]
  00189	50		 push	 eax
  0018a	e8 00 00 00 00	 call	 ?damage_systems@@YGXTHOKUM_DAMAGE_FLAGS@@@Z ; damage_systems

; 1097 : }

  0018f	5f		 pop	 edi
  00190	5e		 pop	 esi
  00191	5b		 pop	 ebx
  00192	8b e5		 mov	 esp, ebp
  00194	5d		 pop	 ebp
  00195	c2 04 00	 ret	 4
?damage_hokum@@YGXW4GUNSHIP_DAMAGE_LEVELS@@@Z ENDP	; damage_hokum
_TEXT	ENDS
; Function compile flags: /Odtp /ZI
; File c:\users\nhv90\projects\eech\aphavoc\source\gunships\avionics\hokum\hk_dam.c
;	COMDAT ?repair_hokum_weapon_damage@@YGXXZ
_TEXT	SEGMENT
?repair_hokum_weapon_damage@@YGXXZ PROC			; repair_hokum_weapon_damage, COMDAT

; 489  : {

  00000	55		 push	 ebp
  00001	8b ec		 mov	 ebp, esp
  00003	83 ec 40	 sub	 esp, 64			; 00000040H
  00006	53		 push	 ebx
  00007	56		 push	 esi
  00008	57		 push	 edi

; 490  : 	set_hokum_text_display_text ("", "", "");

  00009	68 00 00 00 00	 push	 OFFSET ??_C@_00CNPNBAHC@@
  0000e	68 00 00 00 00	 push	 OFFSET ??_C@_00CNPNBAHC@@
  00013	68 00 00 00 00	 push	 OFFSET ??_C@_00CNPNBAHC@@
  00018	e8 00 00 00 00	 call	 ?set_hokum_text_display_text@@YGXPAD00@Z ; set_hokum_text_display_text

; 491  : 
; 492  : 	hokum_damage.gun_jammed				= FALSE;

  0001d	a1 00 00 00 00	 mov	 eax, DWORD PTR ?hokum_damage@@3THOKUM_DAMAGE_FLAGS@@A ; hokum_damage
  00022	25 ff ff 7f ff	 and	 eax, -8388609		; ff7fffffH
  00027	a3 00 00 00 00	 mov	 DWORD PTR ?hokum_damage@@3THOKUM_DAMAGE_FLAGS@@A, eax ; hokum_damage

; 493  : 	hokum_damage.lh_outer_pylon  		= FALSE;

  0002c	a1 00 00 00 00	 mov	 eax, DWORD PTR ?hokum_damage@@3THOKUM_DAMAGE_FLAGS@@A ; hokum_damage
  00031	25 ff ff ff fe	 and	 eax, -16777217		; feffffffH
  00036	a3 00 00 00 00	 mov	 DWORD PTR ?hokum_damage@@3THOKUM_DAMAGE_FLAGS@@A, eax ; hokum_damage

; 494  : 	hokum_damage.lh_inner_pylon  		= FALSE;

  0003b	a1 00 00 00 00	 mov	 eax, DWORD PTR ?hokum_damage@@3THOKUM_DAMAGE_FLAGS@@A ; hokum_damage
  00040	25 ff ff ff fd	 and	 eax, -33554433		; fdffffffH
  00045	a3 00 00 00 00	 mov	 DWORD PTR ?hokum_damage@@3THOKUM_DAMAGE_FLAGS@@A, eax ; hokum_damage

; 495  : 	hokum_damage.rh_outer_pylon  		= FALSE;

  0004a	a1 00 00 00 00	 mov	 eax, DWORD PTR ?hokum_damage@@3THOKUM_DAMAGE_FLAGS@@A ; hokum_damage
  0004f	25 ff ff ff fb	 and	 eax, -67108865		; fbffffffH
  00054	a3 00 00 00 00	 mov	 DWORD PTR ?hokum_damage@@3THOKUM_DAMAGE_FLAGS@@A, eax ; hokum_damage

; 496  : 	hokum_damage.rh_inner_pylon  		= FALSE;

  00059	a1 00 00 00 00	 mov	 eax, DWORD PTR ?hokum_damage@@3THOKUM_DAMAGE_FLAGS@@A ; hokum_damage
  0005e	25 ff ff ff f7	 and	 eax, -134217729		; f7ffffffH
  00063	a3 00 00 00 00	 mov	 DWORD PTR ?hokum_damage@@3THOKUM_DAMAGE_FLAGS@@A, eax ; hokum_damage

; 497  : 	hokum_damage.lh_chaff_dispensers	= FALSE;

  00068	a1 00 00 00 00	 mov	 eax, DWORD PTR ?hokum_damage@@3THOKUM_DAMAGE_FLAGS@@A ; hokum_damage
  0006d	25 ff ff ff ef	 and	 eax, -268435457		; efffffffH
  00072	a3 00 00 00 00	 mov	 DWORD PTR ?hokum_damage@@3THOKUM_DAMAGE_FLAGS@@A, eax ; hokum_damage

; 498  : 	hokum_damage.rh_chaff_dispensers	= FALSE;

  00077	a1 00 00 00 00	 mov	 eax, DWORD PTR ?hokum_damage@@3THOKUM_DAMAGE_FLAGS@@A ; hokum_damage
  0007c	25 ff ff ff df	 and	 eax, -536870913		; dfffffffH
  00081	a3 00 00 00 00	 mov	 DWORD PTR ?hokum_damage@@3THOKUM_DAMAGE_FLAGS@@A, eax ; hokum_damage

; 499  : 	hokum_damage.lh_flare_dispensers	= FALSE;

  00086	a1 00 00 00 00	 mov	 eax, DWORD PTR ?hokum_damage@@3THOKUM_DAMAGE_FLAGS@@A ; hokum_damage
  0008b	25 ff ff ff bf	 and	 eax, -1073741825	; bfffffffH
  00090	a3 00 00 00 00	 mov	 DWORD PTR ?hokum_damage@@3THOKUM_DAMAGE_FLAGS@@A, eax ; hokum_damage

; 500  : 	hokum_damage.rh_flare_dispensers	= FALSE;

  00095	a1 00 00 00 00	 mov	 eax, DWORD PTR ?hokum_damage@@3THOKUM_DAMAGE_FLAGS@@A ; hokum_damage
  0009a	25 ff ff ff 7f	 and	 eax, 2147483647		; 7fffffffH
  0009f	a3 00 00 00 00	 mov	 DWORD PTR ?hokum_damage@@3THOKUM_DAMAGE_FLAGS@@A, eax ; hokum_damage

; 501  : 
; 502  : 	set_hokum_weapon_damage_status ();

  000a4	e8 00 00 00 00	 call	 ?set_hokum_weapon_damage_status@@YGXXZ ; set_hokum_weapon_damage_status

; 503  : }

  000a9	5f		 pop	 edi
  000aa	5e		 pop	 esi
  000ab	5b		 pop	 ebx
  000ac	8b e5		 mov	 esp, ebp
  000ae	5d		 pop	 ebp
  000af	c3		 ret	 0
?repair_hokum_weapon_damage@@YGXXZ ENDP			; repair_hokum_weapon_damage
_TEXT	ENDS
; Function compile flags: /Odtp /ZI
; File c:\users\nhv90\projects\eech\aphavoc\source\gunships\avionics\hokum\hk_dam.c
;	COMDAT ?partially_repair_hokum_damage@@YGXXZ
_TEXT	SEGMENT
tv502 = -68						; size = 4
tv487 = -68						; size = 4
tv472 = -68						; size = 4
tv457 = -68						; size = 4
tv442 = -68						; size = 4
tv427 = -68						; size = 4
tv412 = -68						; size = 4
tv397 = -68						; size = 4
tv382 = -68						; size = 4
tv367 = -68						; size = 4
tv347 = -68						; size = 4
tv327 = -68						; size = 4
tv307 = -68						; size = 4
tv287 = -68						; size = 4
tv272 = -68						; size = 4
tv257 = -68						; size = 4
tv242 = -68						; size = 4
tv227 = -68						; size = 4
tv212 = -68						; size = 4
tv197 = -68						; size = 4
tv182 = -68						; size = 4
tv167 = -68						; size = 4
tv152 = -68						; size = 4
tv137 = -68						; size = 4
tv90 = -68						; size = 4
tv76 = -68						; size = 4
?partially_repair_hokum_damage@@YGXXZ PROC		; partially_repair_hokum_damage, COMDAT

; 272  : {

  00000	55		 push	 ebp
  00001	8b ec		 mov	 ebp, esp
  00003	83 ec 44	 sub	 esp, 68			; 00000044H
  00006	53		 push	 ebx
  00007	56		 push	 esi
  00008	57		 push	 edi

; 273  : 	set_hokum_text_display_text ("", "", "");

  00009	68 00 00 00 00	 push	 OFFSET ??_C@_00CNPNBAHC@@
  0000e	68 00 00 00 00	 push	 OFFSET ??_C@_00CNPNBAHC@@
  00013	68 00 00 00 00	 push	 OFFSET ??_C@_00CNPNBAHC@@
  00018	e8 00 00 00 00	 call	 ?set_hokum_text_display_text@@YGXPAD00@Z ; set_hokum_text_display_text

; 274  : 
; 275  : 	fire_extinguisher_used = FALSE;

  0001d	c7 05 00 00 00
	00 00 00 00 00	 mov	 DWORD PTR ?fire_extinguisher_used@@3HA, 0 ; fire_extinguisher_used

; 276  : 
; 277  : 	////////////////////////////////////////
; 278  : 
; 279  : 	if (hokum_damage.radar)

  00027	a1 00 00 00 00	 mov	 eax, DWORD PTR ?hokum_damage@@3THOKUM_DAMAGE_FLAGS@@A ; hokum_damage
  0002c	83 e0 01	 and	 eax, 1
  0002f	74 5e		 je	 SHORT $LN2@partially_

; 280  : 	{
; 281  : 		hokum_damage.radar = frand1 () > 0.90;

  00031	69 05 00 00 00
	00 6d 4e c6 41	 imul	 eax, DWORD PTR ?random_number_seed@@3HA, 1103515245 ; random_number_seed
  0003b	05 39 30 00 00	 add	 eax, 12345		; 00003039H
  00040	a3 00 00 00 00	 mov	 DWORD PTR ?random_number_seed@@3HA, eax ; random_number_seed
  00045	8b 0d 00 00 00
	00		 mov	 ecx, DWORD PTR ?random_number_seed@@3HA ; random_number_seed
  0004b	c1 f9 10	 sar	 ecx, 16			; 00000010H
  0004e	81 e1 ff 7f 00
	00		 and	 ecx, 32767		; 00007fffH
  00054	f2 0f 2a c1	 cvtsi2sd xmm0, ecx
  00058	f2 0f 59 05 00
	00 00 00	 mulsd	 xmm0, QWORD PTR __real@3f00002000400080
  00060	66 0f 2f 05 00
	00 00 00	 comisd	 xmm0, QWORD PTR __real@3feccccccccccccd
  00068	76 09		 jbe	 SHORT $LN33@partially_
  0006a	c7 45 bc 01 00
	00 00		 mov	 DWORD PTR tv76[ebp], 1
  00071	eb 07		 jmp	 SHORT $LN34@partially_
$LN33@partially_:
  00073	c7 45 bc 00 00
	00 00		 mov	 DWORD PTR tv76[ebp], 0
$LN34@partially_:
  0007a	8b 55 bc	 mov	 edx, DWORD PTR tv76[ebp]
  0007d	83 e2 01	 and	 edx, 1
  00080	a1 00 00 00 00	 mov	 eax, DWORD PTR ?hokum_damage@@3THOKUM_DAMAGE_FLAGS@@A ; hokum_damage
  00085	83 e0 fe	 and	 eax, -2			; fffffffeH
  00088	0b c2		 or	 eax, edx
  0008a	a3 00 00 00 00	 mov	 DWORD PTR ?hokum_damage@@3THOKUM_DAMAGE_FLAGS@@A, eax ; hokum_damage
$LN2@partially_:

; 282  : 	}
; 283  : 
; 284  : 	////////////////////////////////////////
; 285  : 
; 286  : 	if (hokum_damage.flir)

  0008f	a1 00 00 00 00	 mov	 eax, DWORD PTR ?hokum_damage@@3THOKUM_DAMAGE_FLAGS@@A ; hokum_damage
  00094	d1 e8		 shr	 eax, 1
  00096	83 e0 01	 and	 eax, 1
  00099	74 60		 je	 SHORT $LN3@partially_

; 287  : 	{
; 288  : 		hokum_damage.flir = frand1 () > 0.90;

  0009b	69 05 00 00 00
	00 6d 4e c6 41	 imul	 eax, DWORD PTR ?random_number_seed@@3HA, 1103515245 ; random_number_seed
  000a5	05 39 30 00 00	 add	 eax, 12345		; 00003039H
  000aa	a3 00 00 00 00	 mov	 DWORD PTR ?random_number_seed@@3HA, eax ; random_number_seed
  000af	8b 0d 00 00 00
	00		 mov	 ecx, DWORD PTR ?random_number_seed@@3HA ; random_number_seed
  000b5	c1 f9 10	 sar	 ecx, 16			; 00000010H
  000b8	81 e1 ff 7f 00
	00		 and	 ecx, 32767		; 00007fffH
  000be	f2 0f 2a c1	 cvtsi2sd xmm0, ecx
  000c2	f2 0f 59 05 00
	00 00 00	 mulsd	 xmm0, QWORD PTR __real@3f00002000400080
  000ca	66 0f 2f 05 00
	00 00 00	 comisd	 xmm0, QWORD PTR __real@3feccccccccccccd
  000d2	76 09		 jbe	 SHORT $LN35@partially_
  000d4	c7 45 bc 01 00
	00 00		 mov	 DWORD PTR tv90[ebp], 1
  000db	eb 07		 jmp	 SHORT $LN36@partially_
$LN35@partially_:
  000dd	c7 45 bc 00 00
	00 00		 mov	 DWORD PTR tv90[ebp], 0
$LN36@partially_:
  000e4	8b 55 bc	 mov	 edx, DWORD PTR tv90[ebp]
  000e7	83 e2 01	 and	 edx, 1
  000ea	d1 e2		 shl	 edx, 1
  000ec	a1 00 00 00 00	 mov	 eax, DWORD PTR ?hokum_damage@@3THOKUM_DAMAGE_FLAGS@@A ; hokum_damage
  000f1	83 e0 fd	 and	 eax, -3			; fffffffdH
  000f4	0b c2		 or	 eax, edx
  000f6	a3 00 00 00 00	 mov	 DWORD PTR ?hokum_damage@@3THOKUM_DAMAGE_FLAGS@@A, eax ; hokum_damage
$LN3@partially_:

; 289  : 	}
; 290  : 
; 291  : 	////////////////////////////////////////
; 292  : 
; 293  : 	if (hokum_damage.llltv)

  000fb	a1 00 00 00 00	 mov	 eax, DWORD PTR ?hokum_damage@@3THOKUM_DAMAGE_FLAGS@@A ; hokum_damage
  00100	c1 e8 03	 shr	 eax, 3
  00103	83 e0 01	 and	 eax, 1
  00106	74 61		 je	 SHORT $LN4@partially_

; 294  : 	{
; 295  : 		hokum_damage.llltv = frand1 () > 0.90;

  00108	69 05 00 00 00
	00 6d 4e c6 41	 imul	 eax, DWORD PTR ?random_number_seed@@3HA, 1103515245 ; random_number_seed
  00112	05 39 30 00 00	 add	 eax, 12345		; 00003039H
  00117	a3 00 00 00 00	 mov	 DWORD PTR ?random_number_seed@@3HA, eax ; random_number_seed
  0011c	8b 0d 00 00 00
	00		 mov	 ecx, DWORD PTR ?random_number_seed@@3HA ; random_number_seed
  00122	c1 f9 10	 sar	 ecx, 16			; 00000010H
  00125	81 e1 ff 7f 00
	00		 and	 ecx, 32767		; 00007fffH
  0012b	f2 0f 2a c1	 cvtsi2sd xmm0, ecx
  0012f	f2 0f 59 05 00
	00 00 00	 mulsd	 xmm0, QWORD PTR __real@3f00002000400080
  00137	66 0f 2f 05 00
	00 00 00	 comisd	 xmm0, QWORD PTR __real@3feccccccccccccd
  0013f	76 09		 jbe	 SHORT $LN37@partially_
  00141	c7 45 bc 01 00
	00 00		 mov	 DWORD PTR tv137[ebp], 1
  00148	eb 07		 jmp	 SHORT $LN38@partially_
$LN37@partially_:
  0014a	c7 45 bc 00 00
	00 00		 mov	 DWORD PTR tv137[ebp], 0
$LN38@partially_:
  00151	8b 55 bc	 mov	 edx, DWORD PTR tv137[ebp]
  00154	83 e2 01	 and	 edx, 1
  00157	c1 e2 03	 shl	 edx, 3
  0015a	a1 00 00 00 00	 mov	 eax, DWORD PTR ?hokum_damage@@3THOKUM_DAMAGE_FLAGS@@A ; hokum_damage
  0015f	83 e0 f7	 and	 eax, -9			; fffffff7H
  00162	0b c2		 or	 eax, edx
  00164	a3 00 00 00 00	 mov	 DWORD PTR ?hokum_damage@@3THOKUM_DAMAGE_FLAGS@@A, eax ; hokum_damage
$LN4@partially_:

; 296  : 	}
; 297  : 
; 298  : 	////////////////////////////////////////
; 299  : 
; 300  : 	if (hokum_damage.periscope)

  00169	a1 00 00 00 00	 mov	 eax, DWORD PTR ?hokum_damage@@3THOKUM_DAMAGE_FLAGS@@A ; hokum_damage
  0016e	c1 e8 04	 shr	 eax, 4
  00171	83 e0 01	 and	 eax, 1
  00174	74 61		 je	 SHORT $LN5@partially_

; 301  : 	{
; 302  : 		hokum_damage.periscope = frand1 () > 0.90;

  00176	69 05 00 00 00
	00 6d 4e c6 41	 imul	 eax, DWORD PTR ?random_number_seed@@3HA, 1103515245 ; random_number_seed
  00180	05 39 30 00 00	 add	 eax, 12345		; 00003039H
  00185	a3 00 00 00 00	 mov	 DWORD PTR ?random_number_seed@@3HA, eax ; random_number_seed
  0018a	8b 0d 00 00 00
	00		 mov	 ecx, DWORD PTR ?random_number_seed@@3HA ; random_number_seed
  00190	c1 f9 10	 sar	 ecx, 16			; 00000010H
  00193	81 e1 ff 7f 00
	00		 and	 ecx, 32767		; 00007fffH
  00199	f2 0f 2a c1	 cvtsi2sd xmm0, ecx
  0019d	f2 0f 59 05 00
	00 00 00	 mulsd	 xmm0, QWORD PTR __real@3f00002000400080
  001a5	66 0f 2f 05 00
	00 00 00	 comisd	 xmm0, QWORD PTR __real@3feccccccccccccd
  001ad	76 09		 jbe	 SHORT $LN39@partially_
  001af	c7 45 bc 01 00
	00 00		 mov	 DWORD PTR tv152[ebp], 1
  001b6	eb 07		 jmp	 SHORT $LN40@partially_
$LN39@partially_:
  001b8	c7 45 bc 00 00
	00 00		 mov	 DWORD PTR tv152[ebp], 0
$LN40@partially_:
  001bf	8b 55 bc	 mov	 edx, DWORD PTR tv152[ebp]
  001c2	83 e2 01	 and	 edx, 1
  001c5	c1 e2 04	 shl	 edx, 4
  001c8	a1 00 00 00 00	 mov	 eax, DWORD PTR ?hokum_damage@@3THOKUM_DAMAGE_FLAGS@@A ; hokum_damage
  001cd	83 e0 ef	 and	 eax, -17		; ffffffefH
  001d0	0b c2		 or	 eax, edx
  001d2	a3 00 00 00 00	 mov	 DWORD PTR ?hokum_damage@@3THOKUM_DAMAGE_FLAGS@@A, eax ; hokum_damage
$LN5@partially_:

; 303  : 	}
; 304  : 
; 305  : 	////////////////////////////////////////
; 306  : 
; 307  : 	if (hokum_damage.laser_designator)

  001d7	a1 00 00 00 00	 mov	 eax, DWORD PTR ?hokum_damage@@3THOKUM_DAMAGE_FLAGS@@A ; hokum_damage
  001dc	c1 e8 06	 shr	 eax, 6
  001df	83 e0 01	 and	 eax, 1
  001e2	74 61		 je	 SHORT $LN6@partially_

; 308  : 	{
; 309  : 		hokum_damage.laser_designator = frand1 () > 0.90;

  001e4	69 05 00 00 00
	00 6d 4e c6 41	 imul	 eax, DWORD PTR ?random_number_seed@@3HA, 1103515245 ; random_number_seed
  001ee	05 39 30 00 00	 add	 eax, 12345		; 00003039H
  001f3	a3 00 00 00 00	 mov	 DWORD PTR ?random_number_seed@@3HA, eax ; random_number_seed
  001f8	8b 0d 00 00 00
	00		 mov	 ecx, DWORD PTR ?random_number_seed@@3HA ; random_number_seed
  001fe	c1 f9 10	 sar	 ecx, 16			; 00000010H
  00201	81 e1 ff 7f 00
	00		 and	 ecx, 32767		; 00007fffH
  00207	f2 0f 2a c1	 cvtsi2sd xmm0, ecx
  0020b	f2 0f 59 05 00
	00 00 00	 mulsd	 xmm0, QWORD PTR __real@3f00002000400080
  00213	66 0f 2f 05 00
	00 00 00	 comisd	 xmm0, QWORD PTR __real@3feccccccccccccd
  0021b	76 09		 jbe	 SHORT $LN41@partially_
  0021d	c7 45 bc 01 00
	00 00		 mov	 DWORD PTR tv167[ebp], 1
  00224	eb 07		 jmp	 SHORT $LN42@partially_
$LN41@partially_:
  00226	c7 45 bc 00 00
	00 00		 mov	 DWORD PTR tv167[ebp], 0
$LN42@partially_:
  0022d	8b 55 bc	 mov	 edx, DWORD PTR tv167[ebp]
  00230	83 e2 01	 and	 edx, 1
  00233	c1 e2 06	 shl	 edx, 6
  00236	a1 00 00 00 00	 mov	 eax, DWORD PTR ?hokum_damage@@3THOKUM_DAMAGE_FLAGS@@A ; hokum_damage
  0023b	83 e0 bf	 and	 eax, -65		; ffffffbfH
  0023e	0b c2		 or	 eax, edx
  00240	a3 00 00 00 00	 mov	 DWORD PTR ?hokum_damage@@3THOKUM_DAMAGE_FLAGS@@A, eax ; hokum_damage
$LN6@partially_:

; 310  : 	}
; 311  : 
; 312  : 	////////////////////////////////////////
; 313  : 
; 314  : 	if (hokum_damage.radar_jammer)

  00245	a1 00 00 00 00	 mov	 eax, DWORD PTR ?hokum_damage@@3THOKUM_DAMAGE_FLAGS@@A ; hokum_damage
  0024a	c1 e8 07	 shr	 eax, 7
  0024d	83 e0 01	 and	 eax, 1
  00250	74 63		 je	 SHORT $LN7@partially_

; 315  : 	{
; 316  : 		hokum_damage.radar_jammer = frand1 () > 0.90;

  00252	69 05 00 00 00
	00 6d 4e c6 41	 imul	 eax, DWORD PTR ?random_number_seed@@3HA, 1103515245 ; random_number_seed
  0025c	05 39 30 00 00	 add	 eax, 12345		; 00003039H
  00261	a3 00 00 00 00	 mov	 DWORD PTR ?random_number_seed@@3HA, eax ; random_number_seed
  00266	8b 0d 00 00 00
	00		 mov	 ecx, DWORD PTR ?random_number_seed@@3HA ; random_number_seed
  0026c	c1 f9 10	 sar	 ecx, 16			; 00000010H
  0026f	81 e1 ff 7f 00
	00		 and	 ecx, 32767		; 00007fffH
  00275	f2 0f 2a c1	 cvtsi2sd xmm0, ecx
  00279	f2 0f 59 05 00
	00 00 00	 mulsd	 xmm0, QWORD PTR __real@3f00002000400080
  00281	66 0f 2f 05 00
	00 00 00	 comisd	 xmm0, QWORD PTR __real@3feccccccccccccd
  00289	76 09		 jbe	 SHORT $LN43@partially_
  0028b	c7 45 bc 01 00
	00 00		 mov	 DWORD PTR tv182[ebp], 1
  00292	eb 07		 jmp	 SHORT $LN44@partially_
$LN43@partially_:
  00294	c7 45 bc 00 00
	00 00		 mov	 DWORD PTR tv182[ebp], 0
$LN44@partially_:
  0029b	8b 55 bc	 mov	 edx, DWORD PTR tv182[ebp]
  0029e	83 e2 01	 and	 edx, 1
  002a1	c1 e2 07	 shl	 edx, 7
  002a4	a1 00 00 00 00	 mov	 eax, DWORD PTR ?hokum_damage@@3THOKUM_DAMAGE_FLAGS@@A ; hokum_damage
  002a9	25 7f ff ff ff	 and	 eax, -129		; ffffff7fH
  002ae	0b c2		 or	 eax, edx
  002b0	a3 00 00 00 00	 mov	 DWORD PTR ?hokum_damage@@3THOKUM_DAMAGE_FLAGS@@A, eax ; hokum_damage
$LN7@partially_:

; 317  : 	}
; 318  : 
; 319  : 	////////////////////////////////////////
; 320  : 
; 321  : 	if (hokum_damage.infra_red_jammer)

  002b5	a1 00 00 00 00	 mov	 eax, DWORD PTR ?hokum_damage@@3THOKUM_DAMAGE_FLAGS@@A ; hokum_damage
  002ba	c1 e8 08	 shr	 eax, 8
  002bd	83 e0 01	 and	 eax, 1
  002c0	74 63		 je	 SHORT $LN8@partially_

; 322  : 	{
; 323  : 		hokum_damage.infra_red_jammer = frand1 () > 0.90;

  002c2	69 05 00 00 00
	00 6d 4e c6 41	 imul	 eax, DWORD PTR ?random_number_seed@@3HA, 1103515245 ; random_number_seed
  002cc	05 39 30 00 00	 add	 eax, 12345		; 00003039H
  002d1	a3 00 00 00 00	 mov	 DWORD PTR ?random_number_seed@@3HA, eax ; random_number_seed
  002d6	8b 0d 00 00 00
	00		 mov	 ecx, DWORD PTR ?random_number_seed@@3HA ; random_number_seed
  002dc	c1 f9 10	 sar	 ecx, 16			; 00000010H
  002df	81 e1 ff 7f 00
	00		 and	 ecx, 32767		; 00007fffH
  002e5	f2 0f 2a c1	 cvtsi2sd xmm0, ecx
  002e9	f2 0f 59 05 00
	00 00 00	 mulsd	 xmm0, QWORD PTR __real@3f00002000400080
  002f1	66 0f 2f 05 00
	00 00 00	 comisd	 xmm0, QWORD PTR __real@3feccccccccccccd
  002f9	76 09		 jbe	 SHORT $LN45@partially_
  002fb	c7 45 bc 01 00
	00 00		 mov	 DWORD PTR tv197[ebp], 1
  00302	eb 07		 jmp	 SHORT $LN46@partially_
$LN45@partially_:
  00304	c7 45 bc 00 00
	00 00		 mov	 DWORD PTR tv197[ebp], 0
$LN46@partially_:
  0030b	8b 55 bc	 mov	 edx, DWORD PTR tv197[ebp]
  0030e	83 e2 01	 and	 edx, 1
  00311	c1 e2 08	 shl	 edx, 8
  00314	a1 00 00 00 00	 mov	 eax, DWORD PTR ?hokum_damage@@3THOKUM_DAMAGE_FLAGS@@A ; hokum_damage
  00319	25 ff fe ff ff	 and	 eax, -257		; fffffeffH
  0031e	0b c2		 or	 eax, edx
  00320	a3 00 00 00 00	 mov	 DWORD PTR ?hokum_damage@@3THOKUM_DAMAGE_FLAGS@@A, eax ; hokum_damage
$LN8@partially_:

; 324  : 	}
; 325  : 
; 326  : 	////////////////////////////////////////
; 327  : 
; 328  : 	if (hokum_damage.navigation_computer)

  00325	a1 00 00 00 00	 mov	 eax, DWORD PTR ?hokum_damage@@3THOKUM_DAMAGE_FLAGS@@A ; hokum_damage
  0032a	c1 e8 09	 shr	 eax, 9
  0032d	83 e0 01	 and	 eax, 1
  00330	74 63		 je	 SHORT $LN9@partially_

; 329  : 	{
; 330  : 		hokum_damage.navigation_computer = frand1 () > 0.90;

  00332	69 05 00 00 00
	00 6d 4e c6 41	 imul	 eax, DWORD PTR ?random_number_seed@@3HA, 1103515245 ; random_number_seed
  0033c	05 39 30 00 00	 add	 eax, 12345		; 00003039H
  00341	a3 00 00 00 00	 mov	 DWORD PTR ?random_number_seed@@3HA, eax ; random_number_seed
  00346	8b 0d 00 00 00
	00		 mov	 ecx, DWORD PTR ?random_number_seed@@3HA ; random_number_seed
  0034c	c1 f9 10	 sar	 ecx, 16			; 00000010H
  0034f	81 e1 ff 7f 00
	00		 and	 ecx, 32767		; 00007fffH
  00355	f2 0f 2a c1	 cvtsi2sd xmm0, ecx
  00359	f2 0f 59 05 00
	00 00 00	 mulsd	 xmm0, QWORD PTR __real@3f00002000400080
  00361	66 0f 2f 05 00
	00 00 00	 comisd	 xmm0, QWORD PTR __real@3feccccccccccccd
  00369	76 09		 jbe	 SHORT $LN47@partially_
  0036b	c7 45 bc 01 00
	00 00		 mov	 DWORD PTR tv212[ebp], 1
  00372	eb 07		 jmp	 SHORT $LN48@partially_
$LN47@partially_:
  00374	c7 45 bc 00 00
	00 00		 mov	 DWORD PTR tv212[ebp], 0
$LN48@partially_:
  0037b	8b 55 bc	 mov	 edx, DWORD PTR tv212[ebp]
  0037e	83 e2 01	 and	 edx, 1
  00381	c1 e2 09	 shl	 edx, 9
  00384	a1 00 00 00 00	 mov	 eax, DWORD PTR ?hokum_damage@@3THOKUM_DAMAGE_FLAGS@@A ; hokum_damage
  00389	25 ff fd ff ff	 and	 eax, -513		; fffffdffH
  0038e	0b c2		 or	 eax, edx
  00390	a3 00 00 00 00	 mov	 DWORD PTR ?hokum_damage@@3THOKUM_DAMAGE_FLAGS@@A, eax ; hokum_damage
$LN9@partially_:

; 331  : 	}
; 332  : 
; 333  : 	////////////////////////////////////////
; 334  : 
; 335  : 	if (hokum_damage.communications)

  00395	a1 00 00 00 00	 mov	 eax, DWORD PTR ?hokum_damage@@3THOKUM_DAMAGE_FLAGS@@A ; hokum_damage
  0039a	c1 e8 0a	 shr	 eax, 10			; 0000000aH
  0039d	83 e0 01	 and	 eax, 1
  003a0	74 63		 je	 SHORT $LN10@partially_

; 336  : 	{
; 337  : 		hokum_damage.communications = frand1 () > 0.90;

  003a2	69 05 00 00 00
	00 6d 4e c6 41	 imul	 eax, DWORD PTR ?random_number_seed@@3HA, 1103515245 ; random_number_seed
  003ac	05 39 30 00 00	 add	 eax, 12345		; 00003039H
  003b1	a3 00 00 00 00	 mov	 DWORD PTR ?random_number_seed@@3HA, eax ; random_number_seed
  003b6	8b 0d 00 00 00
	00		 mov	 ecx, DWORD PTR ?random_number_seed@@3HA ; random_number_seed
  003bc	c1 f9 10	 sar	 ecx, 16			; 00000010H
  003bf	81 e1 ff 7f 00
	00		 and	 ecx, 32767		; 00007fffH
  003c5	f2 0f 2a c1	 cvtsi2sd xmm0, ecx
  003c9	f2 0f 59 05 00
	00 00 00	 mulsd	 xmm0, QWORD PTR __real@3f00002000400080
  003d1	66 0f 2f 05 00
	00 00 00	 comisd	 xmm0, QWORD PTR __real@3feccccccccccccd
  003d9	76 09		 jbe	 SHORT $LN49@partially_
  003db	c7 45 bc 01 00
	00 00		 mov	 DWORD PTR tv227[ebp], 1
  003e2	eb 07		 jmp	 SHORT $LN50@partially_
$LN49@partially_:
  003e4	c7 45 bc 00 00
	00 00		 mov	 DWORD PTR tv227[ebp], 0
$LN50@partially_:
  003eb	8b 55 bc	 mov	 edx, DWORD PTR tv227[ebp]
  003ee	83 e2 01	 and	 edx, 1
  003f1	c1 e2 0a	 shl	 edx, 10			; 0000000aH
  003f4	a1 00 00 00 00	 mov	 eax, DWORD PTR ?hokum_damage@@3THOKUM_DAMAGE_FLAGS@@A ; hokum_damage
  003f9	25 ff fb ff ff	 and	 eax, -1025		; fffffbffH
  003fe	0b c2		 or	 eax, edx
  00400	a3 00 00 00 00	 mov	 DWORD PTR ?hokum_damage@@3THOKUM_DAMAGE_FLAGS@@A, eax ; hokum_damage
$LN10@partially_:

; 338  : 	}
; 339  : 
; 340  : 	////////////////////////////////////////
; 341  : 
; 342  : 	if (hokum_damage.radar_warning_system)

  00405	a1 00 00 00 00	 mov	 eax, DWORD PTR ?hokum_damage@@3THOKUM_DAMAGE_FLAGS@@A ; hokum_damage
  0040a	c1 e8 0c	 shr	 eax, 12			; 0000000cH
  0040d	83 e0 01	 and	 eax, 1
  00410	74 63		 je	 SHORT $LN11@partially_

; 343  : 	{
; 344  : 		hokum_damage.radar_warning_system = frand1 () > 0.90;

  00412	69 05 00 00 00
	00 6d 4e c6 41	 imul	 eax, DWORD PTR ?random_number_seed@@3HA, 1103515245 ; random_number_seed
  0041c	05 39 30 00 00	 add	 eax, 12345		; 00003039H
  00421	a3 00 00 00 00	 mov	 DWORD PTR ?random_number_seed@@3HA, eax ; random_number_seed
  00426	8b 0d 00 00 00
	00		 mov	 ecx, DWORD PTR ?random_number_seed@@3HA ; random_number_seed
  0042c	c1 f9 10	 sar	 ecx, 16			; 00000010H
  0042f	81 e1 ff 7f 00
	00		 and	 ecx, 32767		; 00007fffH
  00435	f2 0f 2a c1	 cvtsi2sd xmm0, ecx
  00439	f2 0f 59 05 00
	00 00 00	 mulsd	 xmm0, QWORD PTR __real@3f00002000400080
  00441	66 0f 2f 05 00
	00 00 00	 comisd	 xmm0, QWORD PTR __real@3feccccccccccccd
  00449	76 09		 jbe	 SHORT $LN51@partially_
  0044b	c7 45 bc 01 00
	00 00		 mov	 DWORD PTR tv242[ebp], 1
  00452	eb 07		 jmp	 SHORT $LN52@partially_
$LN51@partially_:
  00454	c7 45 bc 00 00
	00 00		 mov	 DWORD PTR tv242[ebp], 0
$LN52@partially_:
  0045b	8b 55 bc	 mov	 edx, DWORD PTR tv242[ebp]
  0045e	83 e2 01	 and	 edx, 1
  00461	c1 e2 0c	 shl	 edx, 12			; 0000000cH
  00464	a1 00 00 00 00	 mov	 eax, DWORD PTR ?hokum_damage@@3THOKUM_DAMAGE_FLAGS@@A ; hokum_damage
  00469	25 ff ef ff ff	 and	 eax, -4097		; ffffefffH
  0046e	0b c2		 or	 eax, edx
  00470	a3 00 00 00 00	 mov	 DWORD PTR ?hokum_damage@@3THOKUM_DAMAGE_FLAGS@@A, eax ; hokum_damage
$LN11@partially_:

; 345  : 	}
; 346  : 
; 347  : 	////////////////////////////////////////
; 348  : 
; 349  : 	if (hokum_damage.head_up_display)

  00475	a1 00 00 00 00	 mov	 eax, DWORD PTR ?hokum_damage@@3THOKUM_DAMAGE_FLAGS@@A ; hokum_damage
  0047a	c1 e8 0e	 shr	 eax, 14			; 0000000eH
  0047d	83 e0 01	 and	 eax, 1
  00480	74 63		 je	 SHORT $LN12@partially_

; 350  : 	{
; 351  : 		hokum_damage.head_up_display = frand1 () > 0.90;

  00482	69 05 00 00 00
	00 6d 4e c6 41	 imul	 eax, DWORD PTR ?random_number_seed@@3HA, 1103515245 ; random_number_seed
  0048c	05 39 30 00 00	 add	 eax, 12345		; 00003039H
  00491	a3 00 00 00 00	 mov	 DWORD PTR ?random_number_seed@@3HA, eax ; random_number_seed
  00496	8b 0d 00 00 00
	00		 mov	 ecx, DWORD PTR ?random_number_seed@@3HA ; random_number_seed
  0049c	c1 f9 10	 sar	 ecx, 16			; 00000010H
  0049f	81 e1 ff 7f 00
	00		 and	 ecx, 32767		; 00007fffH
  004a5	f2 0f 2a c1	 cvtsi2sd xmm0, ecx
  004a9	f2 0f 59 05 00
	00 00 00	 mulsd	 xmm0, QWORD PTR __real@3f00002000400080
  004b1	66 0f 2f 05 00
	00 00 00	 comisd	 xmm0, QWORD PTR __real@3feccccccccccccd
  004b9	76 09		 jbe	 SHORT $LN53@partially_
  004bb	c7 45 bc 01 00
	00 00		 mov	 DWORD PTR tv257[ebp], 1
  004c2	eb 07		 jmp	 SHORT $LN54@partially_
$LN53@partially_:
  004c4	c7 45 bc 00 00
	00 00		 mov	 DWORD PTR tv257[ebp], 0
$LN54@partially_:
  004cb	8b 55 bc	 mov	 edx, DWORD PTR tv257[ebp]
  004ce	83 e2 01	 and	 edx, 1
  004d1	c1 e2 0e	 shl	 edx, 14			; 0000000eH
  004d4	a1 00 00 00 00	 mov	 eax, DWORD PTR ?hokum_damage@@3THOKUM_DAMAGE_FLAGS@@A ; hokum_damage
  004d9	25 ff bf ff ff	 and	 eax, -16385		; ffffbfffH
  004de	0b c2		 or	 eax, edx
  004e0	a3 00 00 00 00	 mov	 DWORD PTR ?hokum_damage@@3THOKUM_DAMAGE_FLAGS@@A, eax ; hokum_damage
$LN12@partially_:

; 352  : 	}
; 353  : 
; 354  : 	////////////////////////////////////////
; 355  : 
; 356  : 	if (hokum_damage.helmet_mounted_sight)

  004e5	a1 00 00 00 00	 mov	 eax, DWORD PTR ?hokum_damage@@3THOKUM_DAMAGE_FLAGS@@A ; hokum_damage
  004ea	c1 e8 0f	 shr	 eax, 15			; 0000000fH
  004ed	83 e0 01	 and	 eax, 1
  004f0	74 63		 je	 SHORT $LN13@partially_

; 357  : 	{
; 358  : 		hokum_damage.helmet_mounted_sight = frand1 () > 0.90;

  004f2	69 05 00 00 00
	00 6d 4e c6 41	 imul	 eax, DWORD PTR ?random_number_seed@@3HA, 1103515245 ; random_number_seed
  004fc	05 39 30 00 00	 add	 eax, 12345		; 00003039H
  00501	a3 00 00 00 00	 mov	 DWORD PTR ?random_number_seed@@3HA, eax ; random_number_seed
  00506	8b 0d 00 00 00
	00		 mov	 ecx, DWORD PTR ?random_number_seed@@3HA ; random_number_seed
  0050c	c1 f9 10	 sar	 ecx, 16			; 00000010H
  0050f	81 e1 ff 7f 00
	00		 and	 ecx, 32767		; 00007fffH
  00515	f2 0f 2a c1	 cvtsi2sd xmm0, ecx
  00519	f2 0f 59 05 00
	00 00 00	 mulsd	 xmm0, QWORD PTR __real@3f00002000400080
  00521	66 0f 2f 05 00
	00 00 00	 comisd	 xmm0, QWORD PTR __real@3feccccccccccccd
  00529	76 09		 jbe	 SHORT $LN55@partially_
  0052b	c7 45 bc 01 00
	00 00		 mov	 DWORD PTR tv272[ebp], 1
  00532	eb 07		 jmp	 SHORT $LN56@partially_
$LN55@partially_:
  00534	c7 45 bc 00 00
	00 00		 mov	 DWORD PTR tv272[ebp], 0
$LN56@partially_:
  0053b	8b 55 bc	 mov	 edx, DWORD PTR tv272[ebp]
  0053e	83 e2 01	 and	 edx, 1
  00541	c1 e2 0f	 shl	 edx, 15			; 0000000fH
  00544	a1 00 00 00 00	 mov	 eax, DWORD PTR ?hokum_damage@@3THOKUM_DAMAGE_FLAGS@@A ; hokum_damage
  00549	25 ff 7f ff ff	 and	 eax, -32769		; ffff7fffH
  0054e	0b c2		 or	 eax, edx
  00550	a3 00 00 00 00	 mov	 DWORD PTR ?hokum_damage@@3THOKUM_DAMAGE_FLAGS@@A, eax ; hokum_damage
$LN13@partially_:

; 359  : 	}
; 360  : 
; 361  : 	////////////////////////////////////////
; 362  : 
; 363  : 	if (hokum_damage.pilot_lh_mfd)

  00555	a1 00 00 00 00	 mov	 eax, DWORD PTR ?hokum_damage@@3THOKUM_DAMAGE_FLAGS@@A ; hokum_damage
  0055a	c1 e8 11	 shr	 eax, 17			; 00000011H
  0055d	83 e0 01	 and	 eax, 1
  00560	74 79		 je	 SHORT $LN15@partially_

; 364  : 	{
; 365  : 		hokum_damage.pilot_lh_mfd = frand1 () > 0.90;

  00562	69 05 00 00 00
	00 6d 4e c6 41	 imul	 eax, DWORD PTR ?random_number_seed@@3HA, 1103515245 ; random_number_seed
  0056c	05 39 30 00 00	 add	 eax, 12345		; 00003039H
  00571	a3 00 00 00 00	 mov	 DWORD PTR ?random_number_seed@@3HA, eax ; random_number_seed
  00576	8b 0d 00 00 00
	00		 mov	 ecx, DWORD PTR ?random_number_seed@@3HA ; random_number_seed
  0057c	c1 f9 10	 sar	 ecx, 16			; 00000010H
  0057f	81 e1 ff 7f 00
	00		 and	 ecx, 32767		; 00007fffH
  00585	f2 0f 2a c1	 cvtsi2sd xmm0, ecx
  00589	f2 0f 59 05 00
	00 00 00	 mulsd	 xmm0, QWORD PTR __real@3f00002000400080
  00591	66 0f 2f 05 00
	00 00 00	 comisd	 xmm0, QWORD PTR __real@3feccccccccccccd
  00599	76 09		 jbe	 SHORT $LN57@partially_
  0059b	c7 45 bc 01 00
	00 00		 mov	 DWORD PTR tv287[ebp], 1
  005a2	eb 07		 jmp	 SHORT $LN58@partially_
$LN57@partially_:
  005a4	c7 45 bc 00 00
	00 00		 mov	 DWORD PTR tv287[ebp], 0
$LN58@partially_:
  005ab	8b 55 bc	 mov	 edx, DWORD PTR tv287[ebp]
  005ae	83 e2 01	 and	 edx, 1
  005b1	c1 e2 11	 shl	 edx, 17			; 00000011H
  005b4	a1 00 00 00 00	 mov	 eax, DWORD PTR ?hokum_damage@@3THOKUM_DAMAGE_FLAGS@@A ; hokum_damage
  005b9	25 ff ff fd ff	 and	 eax, -131073		; fffdffffH
  005be	0b c2		 or	 eax, edx
  005c0	a3 00 00 00 00	 mov	 DWORD PTR ?hokum_damage@@3THOKUM_DAMAGE_FLAGS@@A, eax ; hokum_damage

; 366  : 
; 367  : 		if (!hokum_damage.pilot_lh_mfd)

  005c5	a1 00 00 00 00	 mov	 eax, DWORD PTR ?hokum_damage@@3THOKUM_DAMAGE_FLAGS@@A ; hokum_damage
  005ca	c1 e8 11	 shr	 eax, 17			; 00000011H
  005cd	83 e0 01	 and	 eax, 1
  005d0	75 09		 jne	 SHORT $LN15@partially_

; 368  : 		{
; 369  : 			select_hokum_mfd_mode (HOKUM_MFD_MODE_OFF, HOKUM_MFD_LOCATION_PILOT_LHS);

  005d2	6a 00		 push	 0
  005d4	6a 00		 push	 0
  005d6	e8 00 00 00 00	 call	 ?select_hokum_mfd_mode@@YGXW4HOKUM_MFD_MODES@@W4HOKUM_MFD_LOCATIONS@@@Z ; select_hokum_mfd_mode
$LN15@partially_:

; 370  : 		}
; 371  : 	}
; 372  : 
; 373  : 	////////////////////////////////////////
; 374  : 
; 375  : 	if (hokum_damage.pilot_rh_mfd)

  005db	a1 00 00 00 00	 mov	 eax, DWORD PTR ?hokum_damage@@3THOKUM_DAMAGE_FLAGS@@A ; hokum_damage
  005e0	c1 e8 12	 shr	 eax, 18			; 00000012H
  005e3	83 e0 01	 and	 eax, 1
  005e6	74 79		 je	 SHORT $LN17@partially_

; 376  : 	{
; 377  : 		hokum_damage.pilot_rh_mfd = frand1 () > 0.90;

  005e8	69 05 00 00 00
	00 6d 4e c6 41	 imul	 eax, DWORD PTR ?random_number_seed@@3HA, 1103515245 ; random_number_seed
  005f2	05 39 30 00 00	 add	 eax, 12345		; 00003039H
  005f7	a3 00 00 00 00	 mov	 DWORD PTR ?random_number_seed@@3HA, eax ; random_number_seed
  005fc	8b 0d 00 00 00
	00		 mov	 ecx, DWORD PTR ?random_number_seed@@3HA ; random_number_seed
  00602	c1 f9 10	 sar	 ecx, 16			; 00000010H
  00605	81 e1 ff 7f 00
	00		 and	 ecx, 32767		; 00007fffH
  0060b	f2 0f 2a c1	 cvtsi2sd xmm0, ecx
  0060f	f2 0f 59 05 00
	00 00 00	 mulsd	 xmm0, QWORD PTR __real@3f00002000400080
  00617	66 0f 2f 05 00
	00 00 00	 comisd	 xmm0, QWORD PTR __real@3feccccccccccccd
  0061f	76 09		 jbe	 SHORT $LN59@partially_
  00621	c7 45 bc 01 00
	00 00		 mov	 DWORD PTR tv307[ebp], 1
  00628	eb 07		 jmp	 SHORT $LN60@partially_
$LN59@partially_:
  0062a	c7 45 bc 00 00
	00 00		 mov	 DWORD PTR tv307[ebp], 0
$LN60@partially_:
  00631	8b 55 bc	 mov	 edx, DWORD PTR tv307[ebp]
  00634	83 e2 01	 and	 edx, 1
  00637	c1 e2 12	 shl	 edx, 18			; 00000012H
  0063a	a1 00 00 00 00	 mov	 eax, DWORD PTR ?hokum_damage@@3THOKUM_DAMAGE_FLAGS@@A ; hokum_damage
  0063f	25 ff ff fb ff	 and	 eax, -262145		; fffbffffH
  00644	0b c2		 or	 eax, edx
  00646	a3 00 00 00 00	 mov	 DWORD PTR ?hokum_damage@@3THOKUM_DAMAGE_FLAGS@@A, eax ; hokum_damage

; 378  : 
; 379  : 		if (!hokum_damage.pilot_rh_mfd)

  0064b	a1 00 00 00 00	 mov	 eax, DWORD PTR ?hokum_damage@@3THOKUM_DAMAGE_FLAGS@@A ; hokum_damage
  00650	c1 e8 12	 shr	 eax, 18			; 00000012H
  00653	83 e0 01	 and	 eax, 1
  00656	75 09		 jne	 SHORT $LN17@partially_

; 380  : 		{
; 381  : 			select_hokum_mfd_mode (HOKUM_MFD_MODE_OFF, HOKUM_MFD_LOCATION_PILOT_RHS);

  00658	6a 01		 push	 1
  0065a	6a 00		 push	 0
  0065c	e8 00 00 00 00	 call	 ?select_hokum_mfd_mode@@YGXW4HOKUM_MFD_MODES@@W4HOKUM_MFD_LOCATIONS@@@Z ; select_hokum_mfd_mode
$LN17@partially_:

; 382  : 		}
; 383  : 	}
; 384  : 
; 385  : 	////////////////////////////////////////
; 386  : 
; 387  : 	if (hokum_damage.co_pilot_lh_mfd)

  00661	a1 00 00 00 00	 mov	 eax, DWORD PTR ?hokum_damage@@3THOKUM_DAMAGE_FLAGS@@A ; hokum_damage
  00666	c1 e8 13	 shr	 eax, 19			; 00000013H
  00669	83 e0 01	 and	 eax, 1
  0066c	74 79		 je	 SHORT $LN19@partially_

; 388  : 	{
; 389  : 		hokum_damage.co_pilot_lh_mfd = frand1 () > 0.90;

  0066e	69 05 00 00 00
	00 6d 4e c6 41	 imul	 eax, DWORD PTR ?random_number_seed@@3HA, 1103515245 ; random_number_seed
  00678	05 39 30 00 00	 add	 eax, 12345		; 00003039H
  0067d	a3 00 00 00 00	 mov	 DWORD PTR ?random_number_seed@@3HA, eax ; random_number_seed
  00682	8b 0d 00 00 00
	00		 mov	 ecx, DWORD PTR ?random_number_seed@@3HA ; random_number_seed
  00688	c1 f9 10	 sar	 ecx, 16			; 00000010H
  0068b	81 e1 ff 7f 00
	00		 and	 ecx, 32767		; 00007fffH
  00691	f2 0f 2a c1	 cvtsi2sd xmm0, ecx
  00695	f2 0f 59 05 00
	00 00 00	 mulsd	 xmm0, QWORD PTR __real@3f00002000400080
  0069d	66 0f 2f 05 00
	00 00 00	 comisd	 xmm0, QWORD PTR __real@3feccccccccccccd
  006a5	76 09		 jbe	 SHORT $LN61@partially_
  006a7	c7 45 bc 01 00
	00 00		 mov	 DWORD PTR tv327[ebp], 1
  006ae	eb 07		 jmp	 SHORT $LN62@partially_
$LN61@partially_:
  006b0	c7 45 bc 00 00
	00 00		 mov	 DWORD PTR tv327[ebp], 0
$LN62@partially_:
  006b7	8b 55 bc	 mov	 edx, DWORD PTR tv327[ebp]
  006ba	83 e2 01	 and	 edx, 1
  006bd	c1 e2 13	 shl	 edx, 19			; 00000013H
  006c0	a1 00 00 00 00	 mov	 eax, DWORD PTR ?hokum_damage@@3THOKUM_DAMAGE_FLAGS@@A ; hokum_damage
  006c5	25 ff ff f7 ff	 and	 eax, -524289		; fff7ffffH
  006ca	0b c2		 or	 eax, edx
  006cc	a3 00 00 00 00	 mov	 DWORD PTR ?hokum_damage@@3THOKUM_DAMAGE_FLAGS@@A, eax ; hokum_damage

; 390  : 
; 391  : 		if (!hokum_damage.co_pilot_lh_mfd)

  006d1	a1 00 00 00 00	 mov	 eax, DWORD PTR ?hokum_damage@@3THOKUM_DAMAGE_FLAGS@@A ; hokum_damage
  006d6	c1 e8 13	 shr	 eax, 19			; 00000013H
  006d9	83 e0 01	 and	 eax, 1
  006dc	75 09		 jne	 SHORT $LN19@partially_

; 392  : 		{
; 393  : 			select_hokum_mfd_mode (HOKUM_MFD_MODE_OFF, HOKUM_MFD_LOCATION_CO_PILOT_LHS);

  006de	6a 02		 push	 2
  006e0	6a 00		 push	 0
  006e2	e8 00 00 00 00	 call	 ?select_hokum_mfd_mode@@YGXW4HOKUM_MFD_MODES@@W4HOKUM_MFD_LOCATIONS@@@Z ; select_hokum_mfd_mode
$LN19@partially_:

; 394  : 		}
; 395  : 	}
; 396  : 
; 397  : 	////////////////////////////////////////
; 398  : 
; 399  : 	if (hokum_damage.co_pilot_rh_mfd)

  006e7	a1 00 00 00 00	 mov	 eax, DWORD PTR ?hokum_damage@@3THOKUM_DAMAGE_FLAGS@@A ; hokum_damage
  006ec	c1 e8 15	 shr	 eax, 21			; 00000015H
  006ef	83 e0 01	 and	 eax, 1
  006f2	74 79		 je	 SHORT $LN21@partially_

; 400  : 	{
; 401  : 		hokum_damage.co_pilot_rh_mfd = frand1 () > 0.90;

  006f4	69 05 00 00 00
	00 6d 4e c6 41	 imul	 eax, DWORD PTR ?random_number_seed@@3HA, 1103515245 ; random_number_seed
  006fe	05 39 30 00 00	 add	 eax, 12345		; 00003039H
  00703	a3 00 00 00 00	 mov	 DWORD PTR ?random_number_seed@@3HA, eax ; random_number_seed
  00708	8b 0d 00 00 00
	00		 mov	 ecx, DWORD PTR ?random_number_seed@@3HA ; random_number_seed
  0070e	c1 f9 10	 sar	 ecx, 16			; 00000010H
  00711	81 e1 ff 7f 00
	00		 and	 ecx, 32767		; 00007fffH
  00717	f2 0f 2a c1	 cvtsi2sd xmm0, ecx
  0071b	f2 0f 59 05 00
	00 00 00	 mulsd	 xmm0, QWORD PTR __real@3f00002000400080
  00723	66 0f 2f 05 00
	00 00 00	 comisd	 xmm0, QWORD PTR __real@3feccccccccccccd
  0072b	76 09		 jbe	 SHORT $LN63@partially_
  0072d	c7 45 bc 01 00
	00 00		 mov	 DWORD PTR tv347[ebp], 1
  00734	eb 07		 jmp	 SHORT $LN64@partially_
$LN63@partially_:
  00736	c7 45 bc 00 00
	00 00		 mov	 DWORD PTR tv347[ebp], 0
$LN64@partially_:
  0073d	8b 55 bc	 mov	 edx, DWORD PTR tv347[ebp]
  00740	83 e2 01	 and	 edx, 1
  00743	c1 e2 15	 shl	 edx, 21			; 00000015H
  00746	a1 00 00 00 00	 mov	 eax, DWORD PTR ?hokum_damage@@3THOKUM_DAMAGE_FLAGS@@A ; hokum_damage
  0074b	25 ff ff df ff	 and	 eax, -2097153		; ffdfffffH
  00750	0b c2		 or	 eax, edx
  00752	a3 00 00 00 00	 mov	 DWORD PTR ?hokum_damage@@3THOKUM_DAMAGE_FLAGS@@A, eax ; hokum_damage

; 402  : 
; 403  : 		if (!hokum_damage.co_pilot_rh_mfd)

  00757	a1 00 00 00 00	 mov	 eax, DWORD PTR ?hokum_damage@@3THOKUM_DAMAGE_FLAGS@@A ; hokum_damage
  0075c	c1 e8 15	 shr	 eax, 21			; 00000015H
  0075f	83 e0 01	 and	 eax, 1
  00762	75 09		 jne	 SHORT $LN21@partially_

; 404  : 		{
; 405  : 			select_hokum_mfd_mode (HOKUM_MFD_MODE_OFF, HOKUM_MFD_LOCATION_CO_PILOT_RHS);

  00764	6a 03		 push	 3
  00766	6a 00		 push	 0
  00768	e8 00 00 00 00	 call	 ?select_hokum_mfd_mode@@YGXW4HOKUM_MFD_MODES@@W4HOKUM_MFD_LOCATIONS@@@Z ; select_hokum_mfd_mode
$LN21@partially_:

; 406  : 		}
; 407  : 	}
; 408  : 
; 409  : 	////////////////////////////////////////
; 410  : 
; 411  : 	if (hokum_damage.night_vision_goggles)

  0076d	a1 00 00 00 00	 mov	 eax, DWORD PTR ?hokum_damage@@3THOKUM_DAMAGE_FLAGS@@A ; hokum_damage
  00772	c1 e8 16	 shr	 eax, 22			; 00000016H
  00775	83 e0 01	 and	 eax, 1
  00778	74 63		 je	 SHORT $LN22@partially_

; 412  : 	{
; 413  : 		hokum_damage.night_vision_goggles = frand1 () > 0.90;

  0077a	69 05 00 00 00
	00 6d 4e c6 41	 imul	 eax, DWORD PTR ?random_number_seed@@3HA, 1103515245 ; random_number_seed
  00784	05 39 30 00 00	 add	 eax, 12345		; 00003039H
  00789	a3 00 00 00 00	 mov	 DWORD PTR ?random_number_seed@@3HA, eax ; random_number_seed
  0078e	8b 0d 00 00 00
	00		 mov	 ecx, DWORD PTR ?random_number_seed@@3HA ; random_number_seed
  00794	c1 f9 10	 sar	 ecx, 16			; 00000010H
  00797	81 e1 ff 7f 00
	00		 and	 ecx, 32767		; 00007fffH
  0079d	f2 0f 2a c1	 cvtsi2sd xmm0, ecx
  007a1	f2 0f 59 05 00
	00 00 00	 mulsd	 xmm0, QWORD PTR __real@3f00002000400080
  007a9	66 0f 2f 05 00
	00 00 00	 comisd	 xmm0, QWORD PTR __real@3feccccccccccccd
  007b1	76 09		 jbe	 SHORT $LN65@partially_
  007b3	c7 45 bc 01 00
	00 00		 mov	 DWORD PTR tv367[ebp], 1
  007ba	eb 07		 jmp	 SHORT $LN66@partially_
$LN65@partially_:
  007bc	c7 45 bc 00 00
	00 00		 mov	 DWORD PTR tv367[ebp], 0
$LN66@partially_:
  007c3	8b 55 bc	 mov	 edx, DWORD PTR tv367[ebp]
  007c6	83 e2 01	 and	 edx, 1
  007c9	c1 e2 16	 shl	 edx, 22			; 00000016H
  007cc	a1 00 00 00 00	 mov	 eax, DWORD PTR ?hokum_damage@@3THOKUM_DAMAGE_FLAGS@@A ; hokum_damage
  007d1	25 ff ff bf ff	 and	 eax, -4194305		; ffbfffffH
  007d6	0b c2		 or	 eax, edx
  007d8	a3 00 00 00 00	 mov	 DWORD PTR ?hokum_damage@@3THOKUM_DAMAGE_FLAGS@@A, eax ; hokum_damage
$LN22@partially_:

; 414  : 	}
; 415  : 
; 416  : 	////////////////////////////////////////
; 417  : 
; 418  : 	if (hokum_damage.gun_jammed)

  007dd	a1 00 00 00 00	 mov	 eax, DWORD PTR ?hokum_damage@@3THOKUM_DAMAGE_FLAGS@@A ; hokum_damage
  007e2	c1 e8 17	 shr	 eax, 23			; 00000017H
  007e5	83 e0 01	 and	 eax, 1
  007e8	74 63		 je	 SHORT $LN23@partially_

; 419  : 	{
; 420  : 		hokum_damage.gun_jammed = frand1 () > 0.90;

  007ea	69 05 00 00 00
	00 6d 4e c6 41	 imul	 eax, DWORD PTR ?random_number_seed@@3HA, 1103515245 ; random_number_seed
  007f4	05 39 30 00 00	 add	 eax, 12345		; 00003039H
  007f9	a3 00 00 00 00	 mov	 DWORD PTR ?random_number_seed@@3HA, eax ; random_number_seed
  007fe	8b 0d 00 00 00
	00		 mov	 ecx, DWORD PTR ?random_number_seed@@3HA ; random_number_seed
  00804	c1 f9 10	 sar	 ecx, 16			; 00000010H
  00807	81 e1 ff 7f 00
	00		 and	 ecx, 32767		; 00007fffH
  0080d	f2 0f 2a c1	 cvtsi2sd xmm0, ecx
  00811	f2 0f 59 05 00
	00 00 00	 mulsd	 xmm0, QWORD PTR __real@3f00002000400080
  00819	66 0f 2f 05 00
	00 00 00	 comisd	 xmm0, QWORD PTR __real@3feccccccccccccd
  00821	76 09		 jbe	 SHORT $LN67@partially_
  00823	c7 45 bc 01 00
	00 00		 mov	 DWORD PTR tv382[ebp], 1
  0082a	eb 07		 jmp	 SHORT $LN68@partially_
$LN67@partially_:
  0082c	c7 45 bc 00 00
	00 00		 mov	 DWORD PTR tv382[ebp], 0
$LN68@partially_:
  00833	8b 55 bc	 mov	 edx, DWORD PTR tv382[ebp]
  00836	83 e2 01	 and	 edx, 1
  00839	c1 e2 17	 shl	 edx, 23			; 00000017H
  0083c	a1 00 00 00 00	 mov	 eax, DWORD PTR ?hokum_damage@@3THOKUM_DAMAGE_FLAGS@@A ; hokum_damage
  00841	25 ff ff 7f ff	 and	 eax, -8388609		; ff7fffffH
  00846	0b c2		 or	 eax, edx
  00848	a3 00 00 00 00	 mov	 DWORD PTR ?hokum_damage@@3THOKUM_DAMAGE_FLAGS@@A, eax ; hokum_damage
$LN23@partially_:

; 421  : 	}
; 422  : 
; 423  : 	////////////////////////////////////////
; 424  : 
; 425  : 	if (hokum_damage.lh_outer_pylon)

  0084d	a1 00 00 00 00	 mov	 eax, DWORD PTR ?hokum_damage@@3THOKUM_DAMAGE_FLAGS@@A ; hokum_damage
  00852	c1 e8 18	 shr	 eax, 24			; 00000018H
  00855	83 e0 01	 and	 eax, 1
  00858	74 63		 je	 SHORT $LN24@partially_

; 426  : 	{
; 427  : 		hokum_damage.lh_outer_pylon = frand1 () > 0.90;

  0085a	69 05 00 00 00
	00 6d 4e c6 41	 imul	 eax, DWORD PTR ?random_number_seed@@3HA, 1103515245 ; random_number_seed
  00864	05 39 30 00 00	 add	 eax, 12345		; 00003039H
  00869	a3 00 00 00 00	 mov	 DWORD PTR ?random_number_seed@@3HA, eax ; random_number_seed
  0086e	8b 0d 00 00 00
	00		 mov	 ecx, DWORD PTR ?random_number_seed@@3HA ; random_number_seed
  00874	c1 f9 10	 sar	 ecx, 16			; 00000010H
  00877	81 e1 ff 7f 00
	00		 and	 ecx, 32767		; 00007fffH
  0087d	f2 0f 2a c1	 cvtsi2sd xmm0, ecx
  00881	f2 0f 59 05 00
	00 00 00	 mulsd	 xmm0, QWORD PTR __real@3f00002000400080
  00889	66 0f 2f 05 00
	00 00 00	 comisd	 xmm0, QWORD PTR __real@3feccccccccccccd
  00891	76 09		 jbe	 SHORT $LN69@partially_
  00893	c7 45 bc 01 00
	00 00		 mov	 DWORD PTR tv397[ebp], 1
  0089a	eb 07		 jmp	 SHORT $LN70@partially_
$LN69@partially_:
  0089c	c7 45 bc 00 00
	00 00		 mov	 DWORD PTR tv397[ebp], 0
$LN70@partially_:
  008a3	8b 55 bc	 mov	 edx, DWORD PTR tv397[ebp]
  008a6	83 e2 01	 and	 edx, 1
  008a9	c1 e2 18	 shl	 edx, 24			; 00000018H
  008ac	a1 00 00 00 00	 mov	 eax, DWORD PTR ?hokum_damage@@3THOKUM_DAMAGE_FLAGS@@A ; hokum_damage
  008b1	25 ff ff ff fe	 and	 eax, -16777217		; feffffffH
  008b6	0b c2		 or	 eax, edx
  008b8	a3 00 00 00 00	 mov	 DWORD PTR ?hokum_damage@@3THOKUM_DAMAGE_FLAGS@@A, eax ; hokum_damage
$LN24@partially_:

; 428  : 	}
; 429  : 
; 430  : 	////////////////////////////////////////
; 431  : 
; 432  : 	if (hokum_damage.lh_inner_pylon)

  008bd	a1 00 00 00 00	 mov	 eax, DWORD PTR ?hokum_damage@@3THOKUM_DAMAGE_FLAGS@@A ; hokum_damage
  008c2	c1 e8 19	 shr	 eax, 25			; 00000019H
  008c5	83 e0 01	 and	 eax, 1
  008c8	74 63		 je	 SHORT $LN25@partially_

; 433  : 	{
; 434  : 		hokum_damage.lh_inner_pylon = frand1 () > 0.90;

  008ca	69 05 00 00 00
	00 6d 4e c6 41	 imul	 eax, DWORD PTR ?random_number_seed@@3HA, 1103515245 ; random_number_seed
  008d4	05 39 30 00 00	 add	 eax, 12345		; 00003039H
  008d9	a3 00 00 00 00	 mov	 DWORD PTR ?random_number_seed@@3HA, eax ; random_number_seed
  008de	8b 0d 00 00 00
	00		 mov	 ecx, DWORD PTR ?random_number_seed@@3HA ; random_number_seed
  008e4	c1 f9 10	 sar	 ecx, 16			; 00000010H
  008e7	81 e1 ff 7f 00
	00		 and	 ecx, 32767		; 00007fffH
  008ed	f2 0f 2a c1	 cvtsi2sd xmm0, ecx
  008f1	f2 0f 59 05 00
	00 00 00	 mulsd	 xmm0, QWORD PTR __real@3f00002000400080
  008f9	66 0f 2f 05 00
	00 00 00	 comisd	 xmm0, QWORD PTR __real@3feccccccccccccd
  00901	76 09		 jbe	 SHORT $LN71@partially_
  00903	c7 45 bc 01 00
	00 00		 mov	 DWORD PTR tv412[ebp], 1
  0090a	eb 07		 jmp	 SHORT $LN72@partially_
$LN71@partially_:
  0090c	c7 45 bc 00 00
	00 00		 mov	 DWORD PTR tv412[ebp], 0
$LN72@partially_:
  00913	8b 55 bc	 mov	 edx, DWORD PTR tv412[ebp]
  00916	83 e2 01	 and	 edx, 1
  00919	c1 e2 19	 shl	 edx, 25			; 00000019H
  0091c	a1 00 00 00 00	 mov	 eax, DWORD PTR ?hokum_damage@@3THOKUM_DAMAGE_FLAGS@@A ; hokum_damage
  00921	25 ff ff ff fd	 and	 eax, -33554433		; fdffffffH
  00926	0b c2		 or	 eax, edx
  00928	a3 00 00 00 00	 mov	 DWORD PTR ?hokum_damage@@3THOKUM_DAMAGE_FLAGS@@A, eax ; hokum_damage
$LN25@partially_:

; 435  : 	}
; 436  : 
; 437  : 	////////////////////////////////////////
; 438  : 
; 439  : 	if (hokum_damage.rh_outer_pylon)

  0092d	a1 00 00 00 00	 mov	 eax, DWORD PTR ?hokum_damage@@3THOKUM_DAMAGE_FLAGS@@A ; hokum_damage
  00932	c1 e8 1a	 shr	 eax, 26			; 0000001aH
  00935	83 e0 01	 and	 eax, 1
  00938	74 63		 je	 SHORT $LN26@partially_

; 440  : 	{
; 441  : 		hokum_damage.rh_outer_pylon = frand1 () > 0.90;

  0093a	69 05 00 00 00
	00 6d 4e c6 41	 imul	 eax, DWORD PTR ?random_number_seed@@3HA, 1103515245 ; random_number_seed
  00944	05 39 30 00 00	 add	 eax, 12345		; 00003039H
  00949	a3 00 00 00 00	 mov	 DWORD PTR ?random_number_seed@@3HA, eax ; random_number_seed
  0094e	8b 0d 00 00 00
	00		 mov	 ecx, DWORD PTR ?random_number_seed@@3HA ; random_number_seed
  00954	c1 f9 10	 sar	 ecx, 16			; 00000010H
  00957	81 e1 ff 7f 00
	00		 and	 ecx, 32767		; 00007fffH
  0095d	f2 0f 2a c1	 cvtsi2sd xmm0, ecx
  00961	f2 0f 59 05 00
	00 00 00	 mulsd	 xmm0, QWORD PTR __real@3f00002000400080
  00969	66 0f 2f 05 00
	00 00 00	 comisd	 xmm0, QWORD PTR __real@3feccccccccccccd
  00971	76 09		 jbe	 SHORT $LN73@partially_
  00973	c7 45 bc 01 00
	00 00		 mov	 DWORD PTR tv427[ebp], 1
  0097a	eb 07		 jmp	 SHORT $LN74@partially_
$LN73@partially_:
  0097c	c7 45 bc 00 00
	00 00		 mov	 DWORD PTR tv427[ebp], 0
$LN74@partially_:
  00983	8b 55 bc	 mov	 edx, DWORD PTR tv427[ebp]
  00986	83 e2 01	 and	 edx, 1
  00989	c1 e2 1a	 shl	 edx, 26			; 0000001aH
  0098c	a1 00 00 00 00	 mov	 eax, DWORD PTR ?hokum_damage@@3THOKUM_DAMAGE_FLAGS@@A ; hokum_damage
  00991	25 ff ff ff fb	 and	 eax, -67108865		; fbffffffH
  00996	0b c2		 or	 eax, edx
  00998	a3 00 00 00 00	 mov	 DWORD PTR ?hokum_damage@@3THOKUM_DAMAGE_FLAGS@@A, eax ; hokum_damage
$LN26@partially_:

; 442  : 	}
; 443  : 
; 444  : 	////////////////////////////////////////
; 445  : 
; 446  : 	if (hokum_damage.rh_inner_pylon)

  0099d	a1 00 00 00 00	 mov	 eax, DWORD PTR ?hokum_damage@@3THOKUM_DAMAGE_FLAGS@@A ; hokum_damage
  009a2	c1 e8 1b	 shr	 eax, 27			; 0000001bH
  009a5	83 e0 01	 and	 eax, 1
  009a8	74 63		 je	 SHORT $LN27@partially_

; 447  : 	{
; 448  : 		hokum_damage.rh_inner_pylon = frand1 () > 0.90;

  009aa	69 05 00 00 00
	00 6d 4e c6 41	 imul	 eax, DWORD PTR ?random_number_seed@@3HA, 1103515245 ; random_number_seed
  009b4	05 39 30 00 00	 add	 eax, 12345		; 00003039H
  009b9	a3 00 00 00 00	 mov	 DWORD PTR ?random_number_seed@@3HA, eax ; random_number_seed
  009be	8b 0d 00 00 00
	00		 mov	 ecx, DWORD PTR ?random_number_seed@@3HA ; random_number_seed
  009c4	c1 f9 10	 sar	 ecx, 16			; 00000010H
  009c7	81 e1 ff 7f 00
	00		 and	 ecx, 32767		; 00007fffH
  009cd	f2 0f 2a c1	 cvtsi2sd xmm0, ecx
  009d1	f2 0f 59 05 00
	00 00 00	 mulsd	 xmm0, QWORD PTR __real@3f00002000400080
  009d9	66 0f 2f 05 00
	00 00 00	 comisd	 xmm0, QWORD PTR __real@3feccccccccccccd
  009e1	76 09		 jbe	 SHORT $LN75@partially_
  009e3	c7 45 bc 01 00
	00 00		 mov	 DWORD PTR tv442[ebp], 1
  009ea	eb 07		 jmp	 SHORT $LN76@partially_
$LN75@partially_:
  009ec	c7 45 bc 00 00
	00 00		 mov	 DWORD PTR tv442[ebp], 0
$LN76@partially_:
  009f3	8b 55 bc	 mov	 edx, DWORD PTR tv442[ebp]
  009f6	83 e2 01	 and	 edx, 1
  009f9	c1 e2 1b	 shl	 edx, 27			; 0000001bH
  009fc	a1 00 00 00 00	 mov	 eax, DWORD PTR ?hokum_damage@@3THOKUM_DAMAGE_FLAGS@@A ; hokum_damage
  00a01	25 ff ff ff f7	 and	 eax, -134217729		; f7ffffffH
  00a06	0b c2		 or	 eax, edx
  00a08	a3 00 00 00 00	 mov	 DWORD PTR ?hokum_damage@@3THOKUM_DAMAGE_FLAGS@@A, eax ; hokum_damage
$LN27@partially_:

; 449  : 	}
; 450  : 
; 451  : 	////////////////////////////////////////
; 452  : 
; 453  : 	if (hokum_damage.lh_chaff_dispensers)

  00a0d	a1 00 00 00 00	 mov	 eax, DWORD PTR ?hokum_damage@@3THOKUM_DAMAGE_FLAGS@@A ; hokum_damage
  00a12	c1 e8 1c	 shr	 eax, 28			; 0000001cH
  00a15	83 e0 01	 and	 eax, 1
  00a18	74 63		 je	 SHORT $LN28@partially_

; 454  : 	{
; 455  : 		hokum_damage.lh_chaff_dispensers = frand1 () > 0.90;

  00a1a	69 05 00 00 00
	00 6d 4e c6 41	 imul	 eax, DWORD PTR ?random_number_seed@@3HA, 1103515245 ; random_number_seed
  00a24	05 39 30 00 00	 add	 eax, 12345		; 00003039H
  00a29	a3 00 00 00 00	 mov	 DWORD PTR ?random_number_seed@@3HA, eax ; random_number_seed
  00a2e	8b 0d 00 00 00
	00		 mov	 ecx, DWORD PTR ?random_number_seed@@3HA ; random_number_seed
  00a34	c1 f9 10	 sar	 ecx, 16			; 00000010H
  00a37	81 e1 ff 7f 00
	00		 and	 ecx, 32767		; 00007fffH
  00a3d	f2 0f 2a c1	 cvtsi2sd xmm0, ecx
  00a41	f2 0f 59 05 00
	00 00 00	 mulsd	 xmm0, QWORD PTR __real@3f00002000400080
  00a49	66 0f 2f 05 00
	00 00 00	 comisd	 xmm0, QWORD PTR __real@3feccccccccccccd
  00a51	76 09		 jbe	 SHORT $LN77@partially_
  00a53	c7 45 bc 01 00
	00 00		 mov	 DWORD PTR tv457[ebp], 1
  00a5a	eb 07		 jmp	 SHORT $LN78@partially_
$LN77@partially_:
  00a5c	c7 45 bc 00 00
	00 00		 mov	 DWORD PTR tv457[ebp], 0
$LN78@partially_:
  00a63	8b 55 bc	 mov	 edx, DWORD PTR tv457[ebp]
  00a66	83 e2 01	 and	 edx, 1
  00a69	c1 e2 1c	 shl	 edx, 28			; 0000001cH
  00a6c	a1 00 00 00 00	 mov	 eax, DWORD PTR ?hokum_damage@@3THOKUM_DAMAGE_FLAGS@@A ; hokum_damage
  00a71	25 ff ff ff ef	 and	 eax, -268435457		; efffffffH
  00a76	0b c2		 or	 eax, edx
  00a78	a3 00 00 00 00	 mov	 DWORD PTR ?hokum_damage@@3THOKUM_DAMAGE_FLAGS@@A, eax ; hokum_damage
$LN28@partially_:

; 456  : 	}
; 457  : 
; 458  : 	////////////////////////////////////////
; 459  : 
; 460  : 	if (hokum_damage.rh_chaff_dispensers)

  00a7d	a1 00 00 00 00	 mov	 eax, DWORD PTR ?hokum_damage@@3THOKUM_DAMAGE_FLAGS@@A ; hokum_damage
  00a82	c1 e8 1d	 shr	 eax, 29			; 0000001dH
  00a85	83 e0 01	 and	 eax, 1
  00a88	74 63		 je	 SHORT $LN29@partially_

; 461  : 	{
; 462  : 		hokum_damage.rh_chaff_dispensers = frand1 () > 0.90;

  00a8a	69 05 00 00 00
	00 6d 4e c6 41	 imul	 eax, DWORD PTR ?random_number_seed@@3HA, 1103515245 ; random_number_seed
  00a94	05 39 30 00 00	 add	 eax, 12345		; 00003039H
  00a99	a3 00 00 00 00	 mov	 DWORD PTR ?random_number_seed@@3HA, eax ; random_number_seed
  00a9e	8b 0d 00 00 00
	00		 mov	 ecx, DWORD PTR ?random_number_seed@@3HA ; random_number_seed
  00aa4	c1 f9 10	 sar	 ecx, 16			; 00000010H
  00aa7	81 e1 ff 7f 00
	00		 and	 ecx, 32767		; 00007fffH
  00aad	f2 0f 2a c1	 cvtsi2sd xmm0, ecx
  00ab1	f2 0f 59 05 00
	00 00 00	 mulsd	 xmm0, QWORD PTR __real@3f00002000400080
  00ab9	66 0f 2f 05 00
	00 00 00	 comisd	 xmm0, QWORD PTR __real@3feccccccccccccd
  00ac1	76 09		 jbe	 SHORT $LN79@partially_
  00ac3	c7 45 bc 01 00
	00 00		 mov	 DWORD PTR tv472[ebp], 1
  00aca	eb 07		 jmp	 SHORT $LN80@partially_
$LN79@partially_:
  00acc	c7 45 bc 00 00
	00 00		 mov	 DWORD PTR tv472[ebp], 0
$LN80@partially_:
  00ad3	8b 55 bc	 mov	 edx, DWORD PTR tv472[ebp]
  00ad6	83 e2 01	 and	 edx, 1
  00ad9	c1 e2 1d	 shl	 edx, 29			; 0000001dH
  00adc	a1 00 00 00 00	 mov	 eax, DWORD PTR ?hokum_damage@@3THOKUM_DAMAGE_FLAGS@@A ; hokum_damage
  00ae1	25 ff ff ff df	 and	 eax, -536870913		; dfffffffH
  00ae6	0b c2		 or	 eax, edx
  00ae8	a3 00 00 00 00	 mov	 DWORD PTR ?hokum_damage@@3THOKUM_DAMAGE_FLAGS@@A, eax ; hokum_damage
$LN29@partially_:

; 463  : 	}
; 464  : 
; 465  : 	////////////////////////////////////////
; 466  : 
; 467  : 	if (hokum_damage.lh_flare_dispensers)

  00aed	a1 00 00 00 00	 mov	 eax, DWORD PTR ?hokum_damage@@3THOKUM_DAMAGE_FLAGS@@A ; hokum_damage
  00af2	c1 e8 1e	 shr	 eax, 30			; 0000001eH
  00af5	83 e0 01	 and	 eax, 1
  00af8	74 63		 je	 SHORT $LN30@partially_

; 468  : 	{
; 469  : 		hokum_damage.lh_flare_dispensers = frand1 () > 0.90;

  00afa	69 05 00 00 00
	00 6d 4e c6 41	 imul	 eax, DWORD PTR ?random_number_seed@@3HA, 1103515245 ; random_number_seed
  00b04	05 39 30 00 00	 add	 eax, 12345		; 00003039H
  00b09	a3 00 00 00 00	 mov	 DWORD PTR ?random_number_seed@@3HA, eax ; random_number_seed
  00b0e	8b 0d 00 00 00
	00		 mov	 ecx, DWORD PTR ?random_number_seed@@3HA ; random_number_seed
  00b14	c1 f9 10	 sar	 ecx, 16			; 00000010H
  00b17	81 e1 ff 7f 00
	00		 and	 ecx, 32767		; 00007fffH
  00b1d	f2 0f 2a c1	 cvtsi2sd xmm0, ecx
  00b21	f2 0f 59 05 00
	00 00 00	 mulsd	 xmm0, QWORD PTR __real@3f00002000400080
  00b29	66 0f 2f 05 00
	00 00 00	 comisd	 xmm0, QWORD PTR __real@3feccccccccccccd
  00b31	76 09		 jbe	 SHORT $LN81@partially_
  00b33	c7 45 bc 01 00
	00 00		 mov	 DWORD PTR tv487[ebp], 1
  00b3a	eb 07		 jmp	 SHORT $LN82@partially_
$LN81@partially_:
  00b3c	c7 45 bc 00 00
	00 00		 mov	 DWORD PTR tv487[ebp], 0
$LN82@partially_:
  00b43	8b 55 bc	 mov	 edx, DWORD PTR tv487[ebp]
  00b46	83 e2 01	 and	 edx, 1
  00b49	c1 e2 1e	 shl	 edx, 30			; 0000001eH
  00b4c	a1 00 00 00 00	 mov	 eax, DWORD PTR ?hokum_damage@@3THOKUM_DAMAGE_FLAGS@@A ; hokum_damage
  00b51	25 ff ff ff bf	 and	 eax, -1073741825	; bfffffffH
  00b56	0b c2		 or	 eax, edx
  00b58	a3 00 00 00 00	 mov	 DWORD PTR ?hokum_damage@@3THOKUM_DAMAGE_FLAGS@@A, eax ; hokum_damage
$LN30@partially_:

; 470  : 	}
; 471  : 
; 472  : 	////////////////////////////////////////
; 473  : 
; 474  : 	if (hokum_damage.rh_flare_dispensers)

  00b5d	a1 00 00 00 00	 mov	 eax, DWORD PTR ?hokum_damage@@3THOKUM_DAMAGE_FLAGS@@A ; hokum_damage
  00b62	c1 e8 1f	 shr	 eax, 31			; 0000001fH
  00b65	83 e0 01	 and	 eax, 1
  00b68	74 63		 je	 SHORT $LN31@partially_

; 475  : 	{
; 476  : 		hokum_damage.rh_flare_dispensers = frand1 () > 0.90;

  00b6a	69 05 00 00 00
	00 6d 4e c6 41	 imul	 eax, DWORD PTR ?random_number_seed@@3HA, 1103515245 ; random_number_seed
  00b74	05 39 30 00 00	 add	 eax, 12345		; 00003039H
  00b79	a3 00 00 00 00	 mov	 DWORD PTR ?random_number_seed@@3HA, eax ; random_number_seed
  00b7e	8b 0d 00 00 00
	00		 mov	 ecx, DWORD PTR ?random_number_seed@@3HA ; random_number_seed
  00b84	c1 f9 10	 sar	 ecx, 16			; 00000010H
  00b87	81 e1 ff 7f 00
	00		 and	 ecx, 32767		; 00007fffH
  00b8d	f2 0f 2a c1	 cvtsi2sd xmm0, ecx
  00b91	f2 0f 59 05 00
	00 00 00	 mulsd	 xmm0, QWORD PTR __real@3f00002000400080
  00b99	66 0f 2f 05 00
	00 00 00	 comisd	 xmm0, QWORD PTR __real@3feccccccccccccd
  00ba1	76 09		 jbe	 SHORT $LN83@partially_
  00ba3	c7 45 bc 01 00
	00 00		 mov	 DWORD PTR tv502[ebp], 1
  00baa	eb 07		 jmp	 SHORT $LN84@partially_
$LN83@partially_:
  00bac	c7 45 bc 00 00
	00 00		 mov	 DWORD PTR tv502[ebp], 0
$LN84@partially_:
  00bb3	8b 55 bc	 mov	 edx, DWORD PTR tv502[ebp]
  00bb6	83 e2 01	 and	 edx, 1
  00bb9	c1 e2 1f	 shl	 edx, 31			; 0000001fH
  00bbc	a1 00 00 00 00	 mov	 eax, DWORD PTR ?hokum_damage@@3THOKUM_DAMAGE_FLAGS@@A ; hokum_damage
  00bc1	25 ff ff ff 7f	 and	 eax, 2147483647		; 7fffffffH
  00bc6	0b c2		 or	 eax, edx
  00bc8	a3 00 00 00 00	 mov	 DWORD PTR ?hokum_damage@@3THOKUM_DAMAGE_FLAGS@@A, eax ; hokum_damage
$LN31@partially_:

; 477  : 	}
; 478  : 
; 479  : 	////////////////////////////////////////
; 480  : 
; 481  : 	set_hokum_weapon_damage_status ();

  00bcd	e8 00 00 00 00	 call	 ?set_hokum_weapon_damage_status@@YGXXZ ; set_hokum_weapon_damage_status

; 482  : }

  00bd2	5f		 pop	 edi
  00bd3	5e		 pop	 esi
  00bd4	5b		 pop	 ebx
  00bd5	8b e5		 mov	 esp, ebp
  00bd7	5d		 pop	 ebp
  00bd8	c3		 ret	 0
?partially_repair_hokum_damage@@YGXXZ ENDP		; partially_repair_hokum_damage
_TEXT	ENDS
; Function compile flags: /Odtp /ZI
; File c:\users\nhv90\projects\eech\aphavoc\source\gunships\avionics\hokum\hk_dam.c
;	COMDAT ?fully_repair_hokum_damage@@YGXXZ
_TEXT	SEGMENT
?fully_repair_hokum_damage@@YGXXZ PROC			; fully_repair_hokum_damage, COMDAT

; 133  : {

  00000	55		 push	 ebp
  00001	8b ec		 mov	 ebp, esp
  00003	83 ec 40	 sub	 esp, 64			; 00000040H
  00006	53		 push	 ebx
  00007	56		 push	 esi
  00008	57		 push	 edi

; 134  : 	set_hokum_text_display_text ("", "", "");

  00009	68 00 00 00 00	 push	 OFFSET ??_C@_00CNPNBAHC@@
  0000e	68 00 00 00 00	 push	 OFFSET ??_C@_00CNPNBAHC@@
  00013	68 00 00 00 00	 push	 OFFSET ??_C@_00CNPNBAHC@@
  00018	e8 00 00 00 00	 call	 ?set_hokum_text_display_text@@YGXPAD00@Z ; set_hokum_text_display_text

; 135  : 
; 136  : 	fire_extinguisher_used = FALSE;

  0001d	c7 05 00 00 00
	00 00 00 00 00	 mov	 DWORD PTR ?fire_extinguisher_used@@3HA, 0 ; fire_extinguisher_used

; 137  : 
; 138  : 	////////////////////////////////////////
; 139  : 
; 140  : 	hokum_damage.radar = FALSE;

  00027	a1 00 00 00 00	 mov	 eax, DWORD PTR ?hokum_damage@@3THOKUM_DAMAGE_FLAGS@@A ; hokum_damage
  0002c	83 e0 fe	 and	 eax, -2			; fffffffeH
  0002f	a3 00 00 00 00	 mov	 DWORD PTR ?hokum_damage@@3THOKUM_DAMAGE_FLAGS@@A, eax ; hokum_damage

; 141  : 
; 142  : 	////////////////////////////////////////
; 143  : 
; 144  : 	hokum_damage.flir = FALSE;

  00034	a1 00 00 00 00	 mov	 eax, DWORD PTR ?hokum_damage@@3THOKUM_DAMAGE_FLAGS@@A ; hokum_damage
  00039	83 e0 fd	 and	 eax, -3			; fffffffdH
  0003c	a3 00 00 00 00	 mov	 DWORD PTR ?hokum_damage@@3THOKUM_DAMAGE_FLAGS@@A, eax ; hokum_damage

; 145  : 
; 146  : 	////////////////////////////////////////
; 147  : 
; 148  : 	hokum_damage.llltv = FALSE;

  00041	a1 00 00 00 00	 mov	 eax, DWORD PTR ?hokum_damage@@3THOKUM_DAMAGE_FLAGS@@A ; hokum_damage
  00046	83 e0 f7	 and	 eax, -9			; fffffff7H
  00049	a3 00 00 00 00	 mov	 DWORD PTR ?hokum_damage@@3THOKUM_DAMAGE_FLAGS@@A, eax ; hokum_damage

; 149  : 
; 150  : 	////////////////////////////////////////
; 151  : 
; 152  : 	hokum_damage.periscope = FALSE;

  0004e	a1 00 00 00 00	 mov	 eax, DWORD PTR ?hokum_damage@@3THOKUM_DAMAGE_FLAGS@@A ; hokum_damage
  00053	83 e0 ef	 and	 eax, -17		; ffffffefH
  00056	a3 00 00 00 00	 mov	 DWORD PTR ?hokum_damage@@3THOKUM_DAMAGE_FLAGS@@A, eax ; hokum_damage

; 153  : 
; 154  : 	////////////////////////////////////////
; 155  : 
; 156  : 	hokum_damage.laser_designator = FALSE;

  0005b	a1 00 00 00 00	 mov	 eax, DWORD PTR ?hokum_damage@@3THOKUM_DAMAGE_FLAGS@@A ; hokum_damage
  00060	83 e0 bf	 and	 eax, -65		; ffffffbfH
  00063	a3 00 00 00 00	 mov	 DWORD PTR ?hokum_damage@@3THOKUM_DAMAGE_FLAGS@@A, eax ; hokum_damage

; 157  : 
; 158  : 	////////////////////////////////////////
; 159  : 
; 160  : 	hokum_damage.radar_jammer = FALSE;

  00068	a1 00 00 00 00	 mov	 eax, DWORD PTR ?hokum_damage@@3THOKUM_DAMAGE_FLAGS@@A ; hokum_damage
  0006d	25 7f ff ff ff	 and	 eax, -129		; ffffff7fH
  00072	a3 00 00 00 00	 mov	 DWORD PTR ?hokum_damage@@3THOKUM_DAMAGE_FLAGS@@A, eax ; hokum_damage

; 161  : 
; 162  : 	////////////////////////////////////////
; 163  : 
; 164  : 	hokum_damage.infra_red_jammer = FALSE;

  00077	a1 00 00 00 00	 mov	 eax, DWORD PTR ?hokum_damage@@3THOKUM_DAMAGE_FLAGS@@A ; hokum_damage
  0007c	25 ff fe ff ff	 and	 eax, -257		; fffffeffH
  00081	a3 00 00 00 00	 mov	 DWORD PTR ?hokum_damage@@3THOKUM_DAMAGE_FLAGS@@A, eax ; hokum_damage

; 165  : 
; 166  : 	////////////////////////////////////////
; 167  : 
; 168  : 	hokum_damage.navigation_computer = FALSE;

  00086	a1 00 00 00 00	 mov	 eax, DWORD PTR ?hokum_damage@@3THOKUM_DAMAGE_FLAGS@@A ; hokum_damage
  0008b	25 ff fd ff ff	 and	 eax, -513		; fffffdffH
  00090	a3 00 00 00 00	 mov	 DWORD PTR ?hokum_damage@@3THOKUM_DAMAGE_FLAGS@@A, eax ; hokum_damage

; 169  : 
; 170  : 	////////////////////////////////////////
; 171  : 
; 172  : 	hokum_damage.communications = FALSE;

  00095	a1 00 00 00 00	 mov	 eax, DWORD PTR ?hokum_damage@@3THOKUM_DAMAGE_FLAGS@@A ; hokum_damage
  0009a	25 ff fb ff ff	 and	 eax, -1025		; fffffbffH
  0009f	a3 00 00 00 00	 mov	 DWORD PTR ?hokum_damage@@3THOKUM_DAMAGE_FLAGS@@A, eax ; hokum_damage

; 173  : 
; 174  : 	////////////////////////////////////////
; 175  : 
; 176  : 	hokum_damage.radar_warning_system = FALSE;

  000a4	a1 00 00 00 00	 mov	 eax, DWORD PTR ?hokum_damage@@3THOKUM_DAMAGE_FLAGS@@A ; hokum_damage
  000a9	25 ff ef ff ff	 and	 eax, -4097		; ffffefffH
  000ae	a3 00 00 00 00	 mov	 DWORD PTR ?hokum_damage@@3THOKUM_DAMAGE_FLAGS@@A, eax ; hokum_damage

; 177  : 
; 178  : 	////////////////////////////////////////
; 179  : 
; 180  : 	hokum_damage.head_up_display = FALSE;

  000b3	a1 00 00 00 00	 mov	 eax, DWORD PTR ?hokum_damage@@3THOKUM_DAMAGE_FLAGS@@A ; hokum_damage
  000b8	25 ff bf ff ff	 and	 eax, -16385		; ffffbfffH
  000bd	a3 00 00 00 00	 mov	 DWORD PTR ?hokum_damage@@3THOKUM_DAMAGE_FLAGS@@A, eax ; hokum_damage

; 181  : 
; 182  : 	////////////////////////////////////////
; 183  : 
; 184  : 	hokum_damage.helmet_mounted_sight = FALSE;

  000c2	a1 00 00 00 00	 mov	 eax, DWORD PTR ?hokum_damage@@3THOKUM_DAMAGE_FLAGS@@A ; hokum_damage
  000c7	25 ff 7f ff ff	 and	 eax, -32769		; ffff7fffH
  000cc	a3 00 00 00 00	 mov	 DWORD PTR ?hokum_damage@@3THOKUM_DAMAGE_FLAGS@@A, eax ; hokum_damage

; 185  : 
; 186  : 	////////////////////////////////////////
; 187  : 
; 188  : 	if (hokum_damage.pilot_lh_mfd)

  000d1	a1 00 00 00 00	 mov	 eax, DWORD PTR ?hokum_damage@@3THOKUM_DAMAGE_FLAGS@@A ; hokum_damage
  000d6	c1 e8 11	 shr	 eax, 17			; 00000011H
  000d9	83 e0 01	 and	 eax, 1
  000dc	74 18		 je	 SHORT $LN2@fully_repa

; 189  : 	{
; 190  : 		hokum_damage.pilot_lh_mfd = FALSE;

  000de	a1 00 00 00 00	 mov	 eax, DWORD PTR ?hokum_damage@@3THOKUM_DAMAGE_FLAGS@@A ; hokum_damage
  000e3	25 ff ff fd ff	 and	 eax, -131073		; fffdffffH
  000e8	a3 00 00 00 00	 mov	 DWORD PTR ?hokum_damage@@3THOKUM_DAMAGE_FLAGS@@A, eax ; hokum_damage

; 191  : 
; 192  : 		select_hokum_mfd_mode (HOKUM_MFD_MODE_OFF, HOKUM_MFD_LOCATION_PILOT_LHS);

  000ed	6a 00		 push	 0
  000ef	6a 00		 push	 0
  000f1	e8 00 00 00 00	 call	 ?select_hokum_mfd_mode@@YGXW4HOKUM_MFD_MODES@@W4HOKUM_MFD_LOCATIONS@@@Z ; select_hokum_mfd_mode
$LN2@fully_repa:

; 193  : 	}
; 194  : 
; 195  : 	////////////////////////////////////////
; 196  : 
; 197  : 	if (hokum_damage.pilot_rh_mfd)

  000f6	a1 00 00 00 00	 mov	 eax, DWORD PTR ?hokum_damage@@3THOKUM_DAMAGE_FLAGS@@A ; hokum_damage
  000fb	c1 e8 12	 shr	 eax, 18			; 00000012H
  000fe	83 e0 01	 and	 eax, 1
  00101	74 18		 je	 SHORT $LN3@fully_repa

; 198  : 	{
; 199  : 		hokum_damage.pilot_rh_mfd = FALSE;

  00103	a1 00 00 00 00	 mov	 eax, DWORD PTR ?hokum_damage@@3THOKUM_DAMAGE_FLAGS@@A ; hokum_damage
  00108	25 ff ff fb ff	 and	 eax, -262145		; fffbffffH
  0010d	a3 00 00 00 00	 mov	 DWORD PTR ?hokum_damage@@3THOKUM_DAMAGE_FLAGS@@A, eax ; hokum_damage

; 200  : 
; 201  : 		select_hokum_mfd_mode (HOKUM_MFD_MODE_OFF, HOKUM_MFD_LOCATION_PILOT_RHS);

  00112	6a 01		 push	 1
  00114	6a 00		 push	 0
  00116	e8 00 00 00 00	 call	 ?select_hokum_mfd_mode@@YGXW4HOKUM_MFD_MODES@@W4HOKUM_MFD_LOCATIONS@@@Z ; select_hokum_mfd_mode
$LN3@fully_repa:

; 202  : 	}
; 203  : 
; 204  : 	////////////////////////////////////////
; 205  : 
; 206  : 	if (hokum_damage.co_pilot_lh_mfd)

  0011b	a1 00 00 00 00	 mov	 eax, DWORD PTR ?hokum_damage@@3THOKUM_DAMAGE_FLAGS@@A ; hokum_damage
  00120	c1 e8 13	 shr	 eax, 19			; 00000013H
  00123	83 e0 01	 and	 eax, 1
  00126	74 18		 je	 SHORT $LN4@fully_repa

; 207  : 	{
; 208  : 		hokum_damage.co_pilot_lh_mfd = FALSE;

  00128	a1 00 00 00 00	 mov	 eax, DWORD PTR ?hokum_damage@@3THOKUM_DAMAGE_FLAGS@@A ; hokum_damage
  0012d	25 ff ff f7 ff	 and	 eax, -524289		; fff7ffffH
  00132	a3 00 00 00 00	 mov	 DWORD PTR ?hokum_damage@@3THOKUM_DAMAGE_FLAGS@@A, eax ; hokum_damage

; 209  : 
; 210  : 		select_hokum_mfd_mode (HOKUM_MFD_MODE_OFF, HOKUM_MFD_LOCATION_CO_PILOT_LHS);

  00137	6a 02		 push	 2
  00139	6a 00		 push	 0
  0013b	e8 00 00 00 00	 call	 ?select_hokum_mfd_mode@@YGXW4HOKUM_MFD_MODES@@W4HOKUM_MFD_LOCATIONS@@@Z ; select_hokum_mfd_mode
$LN4@fully_repa:

; 211  : 	}
; 212  : 
; 213  : 	////////////////////////////////////////
; 214  : 
; 215  : 	if (hokum_damage.co_pilot_rh_mfd)

  00140	a1 00 00 00 00	 mov	 eax, DWORD PTR ?hokum_damage@@3THOKUM_DAMAGE_FLAGS@@A ; hokum_damage
  00145	c1 e8 15	 shr	 eax, 21			; 00000015H
  00148	83 e0 01	 and	 eax, 1
  0014b	74 18		 je	 SHORT $LN5@fully_repa

; 216  : 	{
; 217  : 		hokum_damage.co_pilot_rh_mfd = FALSE;

  0014d	a1 00 00 00 00	 mov	 eax, DWORD PTR ?hokum_damage@@3THOKUM_DAMAGE_FLAGS@@A ; hokum_damage
  00152	25 ff ff df ff	 and	 eax, -2097153		; ffdfffffH
  00157	a3 00 00 00 00	 mov	 DWORD PTR ?hokum_damage@@3THOKUM_DAMAGE_FLAGS@@A, eax ; hokum_damage

; 218  : 
; 219  : 		select_hokum_mfd_mode (HOKUM_MFD_MODE_OFF, HOKUM_MFD_LOCATION_CO_PILOT_RHS);

  0015c	6a 03		 push	 3
  0015e	6a 00		 push	 0
  00160	e8 00 00 00 00	 call	 ?select_hokum_mfd_mode@@YGXW4HOKUM_MFD_MODES@@W4HOKUM_MFD_LOCATIONS@@@Z ; select_hokum_mfd_mode
$LN5@fully_repa:

; 220  : 	}
; 221  : 
; 222  : 	////////////////////////////////////////
; 223  : 
; 224  : 	hokum_damage.night_vision_goggles = FALSE;

  00165	a1 00 00 00 00	 mov	 eax, DWORD PTR ?hokum_damage@@3THOKUM_DAMAGE_FLAGS@@A ; hokum_damage
  0016a	25 ff ff bf ff	 and	 eax, -4194305		; ffbfffffH
  0016f	a3 00 00 00 00	 mov	 DWORD PTR ?hokum_damage@@3THOKUM_DAMAGE_FLAGS@@A, eax ; hokum_damage

; 225  : 
; 226  : 	////////////////////////////////////////
; 227  : 
; 228  : 	hokum_damage.gun_jammed = FALSE;

  00174	a1 00 00 00 00	 mov	 eax, DWORD PTR ?hokum_damage@@3THOKUM_DAMAGE_FLAGS@@A ; hokum_damage
  00179	25 ff ff 7f ff	 and	 eax, -8388609		; ff7fffffH
  0017e	a3 00 00 00 00	 mov	 DWORD PTR ?hokum_damage@@3THOKUM_DAMAGE_FLAGS@@A, eax ; hokum_damage

; 229  : 
; 230  : 	////////////////////////////////////////
; 231  : 
; 232  : 	hokum_damage.lh_outer_pylon = FALSE;

  00183	a1 00 00 00 00	 mov	 eax, DWORD PTR ?hokum_damage@@3THOKUM_DAMAGE_FLAGS@@A ; hokum_damage
  00188	25 ff ff ff fe	 and	 eax, -16777217		; feffffffH
  0018d	a3 00 00 00 00	 mov	 DWORD PTR ?hokum_damage@@3THOKUM_DAMAGE_FLAGS@@A, eax ; hokum_damage

; 233  : 
; 234  : 	////////////////////////////////////////
; 235  : 
; 236  : 	hokum_damage.lh_inner_pylon = FALSE;

  00192	a1 00 00 00 00	 mov	 eax, DWORD PTR ?hokum_damage@@3THOKUM_DAMAGE_FLAGS@@A ; hokum_damage
  00197	25 ff ff ff fd	 and	 eax, -33554433		; fdffffffH
  0019c	a3 00 00 00 00	 mov	 DWORD PTR ?hokum_damage@@3THOKUM_DAMAGE_FLAGS@@A, eax ; hokum_damage

; 237  : 
; 238  : 	////////////////////////////////////////
; 239  : 
; 240  : 	hokum_damage.rh_outer_pylon = FALSE;

  001a1	a1 00 00 00 00	 mov	 eax, DWORD PTR ?hokum_damage@@3THOKUM_DAMAGE_FLAGS@@A ; hokum_damage
  001a6	25 ff ff ff fb	 and	 eax, -67108865		; fbffffffH
  001ab	a3 00 00 00 00	 mov	 DWORD PTR ?hokum_damage@@3THOKUM_DAMAGE_FLAGS@@A, eax ; hokum_damage

; 241  : 
; 242  : 	////////////////////////////////////////
; 243  : 
; 244  : 	hokum_damage.rh_inner_pylon = FALSE;

  001b0	a1 00 00 00 00	 mov	 eax, DWORD PTR ?hokum_damage@@3THOKUM_DAMAGE_FLAGS@@A ; hokum_damage
  001b5	25 ff ff ff f7	 and	 eax, -134217729		; f7ffffffH
  001ba	a3 00 00 00 00	 mov	 DWORD PTR ?hokum_damage@@3THOKUM_DAMAGE_FLAGS@@A, eax ; hokum_damage

; 245  : 
; 246  : 	////////////////////////////////////////
; 247  : 
; 248  : 	hokum_damage.lh_chaff_dispensers = FALSE;

  001bf	a1 00 00 00 00	 mov	 eax, DWORD PTR ?hokum_damage@@3THOKUM_DAMAGE_FLAGS@@A ; hokum_damage
  001c4	25 ff ff ff ef	 and	 eax, -268435457		; efffffffH
  001c9	a3 00 00 00 00	 mov	 DWORD PTR ?hokum_damage@@3THOKUM_DAMAGE_FLAGS@@A, eax ; hokum_damage

; 249  : 
; 250  : 	////////////////////////////////////////
; 251  : 
; 252  : 	hokum_damage.rh_chaff_dispensers = FALSE;

  001ce	a1 00 00 00 00	 mov	 eax, DWORD PTR ?hokum_damage@@3THOKUM_DAMAGE_FLAGS@@A ; hokum_damage
  001d3	25 ff ff ff df	 and	 eax, -536870913		; dfffffffH
  001d8	a3 00 00 00 00	 mov	 DWORD PTR ?hokum_damage@@3THOKUM_DAMAGE_FLAGS@@A, eax ; hokum_damage

; 253  : 
; 254  : 	////////////////////////////////////////
; 255  : 
; 256  : 	hokum_damage.lh_flare_dispensers = FALSE;

  001dd	a1 00 00 00 00	 mov	 eax, DWORD PTR ?hokum_damage@@3THOKUM_DAMAGE_FLAGS@@A ; hokum_damage
  001e2	25 ff ff ff bf	 and	 eax, -1073741825	; bfffffffH
  001e7	a3 00 00 00 00	 mov	 DWORD PTR ?hokum_damage@@3THOKUM_DAMAGE_FLAGS@@A, eax ; hokum_damage

; 257  : 
; 258  : 	////////////////////////////////////////
; 259  : 
; 260  : 	hokum_damage.rh_flare_dispensers = FALSE;

  001ec	a1 00 00 00 00	 mov	 eax, DWORD PTR ?hokum_damage@@3THOKUM_DAMAGE_FLAGS@@A ; hokum_damage
  001f1	25 ff ff ff 7f	 and	 eax, 2147483647		; 7fffffffH
  001f6	a3 00 00 00 00	 mov	 DWORD PTR ?hokum_damage@@3THOKUM_DAMAGE_FLAGS@@A, eax ; hokum_damage

; 261  : 
; 262  : 	////////////////////////////////////////
; 263  : 
; 264  : 	set_hokum_weapon_damage_status ();

  001fb	e8 00 00 00 00	 call	 ?set_hokum_weapon_damage_status@@YGXXZ ; set_hokum_weapon_damage_status

; 265  : }

  00200	5f		 pop	 edi
  00201	5e		 pop	 esi
  00202	5b		 pop	 ebx
  00203	8b e5		 mov	 esp, ebp
  00205	5d		 pop	 ebp
  00206	c3		 ret	 0
?fully_repair_hokum_damage@@YGXXZ ENDP			; fully_repair_hokum_damage
_TEXT	ENDS
; Function compile flags: /Odtp /ZI
; File c:\users\nhv90\projects\eech\aphavoc\source\gunships\avionics\hokum\hk_dam.c
;	COMDAT ?set_hokum_weapon_damage_status@@YGXXZ
_TEXT	SEGMENT
tv170 = -80						; size = 4
tv162 = -76						; size = 4
_weapon_sub_type$ = -8					; size = 4
_en$ = -4						; size = 4
?set_hokum_weapon_damage_status@@YGXXZ PROC		; set_hokum_weapon_damage_status, COMDAT

; 87   : {

  00000	55		 push	 ebp
  00001	8b ec		 mov	 ebp, esp
  00003	83 ec 50	 sub	 esp, 80			; 00000050H
  00006	53		 push	 ebx
  00007	56		 push	 esi
  00008	57		 push	 edi

; 88   : 	entity
; 89   : 		*en;
; 90   : 
; 91   : 	entity_sub_types
; 92   : 		weapon_sub_type;
; 93   : 
; 94   : 	en = get_gunship_entity ();

  00009	a1 00 00 00 00	 mov	 eax, DWORD PTR ?gunship_entity@@3PAUENTITY@@A ; gunship_entity
  0000e	89 45 fc	 mov	 DWORD PTR _en$[ebp], eax

; 95   : 
; 96   : 	set_client_server_entity_weapon_damage (en, HOKUM_CANNON_TURRET, ENTITY_SUB_TYPE_WEAPON_2A42_30MM_HE_ROUND, hokum_damage.gun_jammed);

  00011	a1 00 00 00 00	 mov	 eax, DWORD PTR ?hokum_damage@@3THOKUM_DAMAGE_FLAGS@@A ; hokum_damage
  00016	c1 e8 17	 shr	 eax, 23			; 00000017H
  00019	83 e0 01	 and	 eax, 1
  0001c	50		 push	 eax
  0001d	6a 13		 push	 19			; 00000013H
  0001f	6a 00		 push	 0
  00021	8b 4d fc	 mov	 ecx, DWORD PTR _en$[ebp]
  00024	51		 push	 ecx
  00025	e8 00 00 00 00	 call	 ?set_client_server_entity_weapon_damage@@YGXPAUENTITY@@HHH@Z ; set_client_server_entity_weapon_damage

; 97   : 	set_client_server_entity_weapon_damage (en, HOKUM_CANNON_TURRET, ENTITY_SUB_TYPE_WEAPON_2A42_30MM_AP_ROUND, hokum_damage.gun_jammed);

  0002a	a1 00 00 00 00	 mov	 eax, DWORD PTR ?hokum_damage@@3THOKUM_DAMAGE_FLAGS@@A ; hokum_damage
  0002f	c1 e8 17	 shr	 eax, 23			; 00000017H
  00032	83 e0 01	 and	 eax, 1
  00035	50		 push	 eax
  00036	6a 14		 push	 20			; 00000014H
  00038	6a 00		 push	 0
  0003a	8b 4d fc	 mov	 ecx, DWORD PTR _en$[ebp]
  0003d	51		 push	 ecx
  0003e	e8 00 00 00 00	 call	 ?set_client_server_entity_weapon_damage@@YGXPAUENTITY@@HHH@Z ; set_client_server_entity_weapon_damage

; 98   : 
; 99   : 	set_client_server_entity_weapon_damage (en, HOKUM_LHS_OUTER_PYLON, ENTITY_SUB_TYPE_WEAPON_NO_WEAPON, hokum_damage.lh_outer_pylon);

  00043	a1 00 00 00 00	 mov	 eax, DWORD PTR ?hokum_damage@@3THOKUM_DAMAGE_FLAGS@@A ; hokum_damage
  00048	c1 e8 18	 shr	 eax, 24			; 00000018H
  0004b	83 e0 01	 and	 eax, 1
  0004e	50		 push	 eax
  0004f	6a 00		 push	 0
  00051	6a 03		 push	 3
  00053	8b 4d fc	 mov	 ecx, DWORD PTR _en$[ebp]
  00056	51		 push	 ecx
  00057	e8 00 00 00 00	 call	 ?set_client_server_entity_weapon_damage@@YGXPAUENTITY@@HHH@Z ; set_client_server_entity_weapon_damage

; 100  : 	set_client_server_entity_weapon_damage (en, HOKUM_LHS_INNER_PYLON, ENTITY_SUB_TYPE_WEAPON_NO_WEAPON, hokum_damage.lh_inner_pylon);

  0005c	a1 00 00 00 00	 mov	 eax, DWORD PTR ?hokum_damage@@3THOKUM_DAMAGE_FLAGS@@A ; hokum_damage
  00061	c1 e8 19	 shr	 eax, 25			; 00000019H
  00064	83 e0 01	 and	 eax, 1
  00067	50		 push	 eax
  00068	6a 00		 push	 0
  0006a	6a 01		 push	 1
  0006c	8b 4d fc	 mov	 ecx, DWORD PTR _en$[ebp]
  0006f	51		 push	 ecx
  00070	e8 00 00 00 00	 call	 ?set_client_server_entity_weapon_damage@@YGXPAUENTITY@@HHH@Z ; set_client_server_entity_weapon_damage

; 101  : 
; 102  : 	set_client_server_entity_weapon_damage (en, HOKUM_RHS_OUTER_PYLON, ENTITY_SUB_TYPE_WEAPON_NO_WEAPON, hokum_damage.rh_outer_pylon);

  00075	a1 00 00 00 00	 mov	 eax, DWORD PTR ?hokum_damage@@3THOKUM_DAMAGE_FLAGS@@A ; hokum_damage
  0007a	c1 e8 1a	 shr	 eax, 26			; 0000001aH
  0007d	83 e0 01	 and	 eax, 1
  00080	50		 push	 eax
  00081	6a 00		 push	 0
  00083	6a 04		 push	 4
  00085	8b 4d fc	 mov	 ecx, DWORD PTR _en$[ebp]
  00088	51		 push	 ecx
  00089	e8 00 00 00 00	 call	 ?set_client_server_entity_weapon_damage@@YGXPAUENTITY@@HHH@Z ; set_client_server_entity_weapon_damage

; 103  : 	set_client_server_entity_weapon_damage (en, HOKUM_RHS_INNER_PYLON, ENTITY_SUB_TYPE_WEAPON_NO_WEAPON, hokum_damage.rh_inner_pylon);

  0008e	a1 00 00 00 00	 mov	 eax, DWORD PTR ?hokum_damage@@3THOKUM_DAMAGE_FLAGS@@A ; hokum_damage
  00093	c1 e8 1b	 shr	 eax, 27			; 0000001bH
  00096	83 e0 01	 and	 eax, 1
  00099	50		 push	 eax
  0009a	6a 00		 push	 0
  0009c	6a 02		 push	 2
  0009e	8b 4d fc	 mov	 ecx, DWORD PTR _en$[ebp]
  000a1	51		 push	 ecx
  000a2	e8 00 00 00 00	 call	 ?set_client_server_entity_weapon_damage@@YGXPAUENTITY@@HHH@Z ; set_client_server_entity_weapon_damage

; 104  : 
; 105  : 	set_client_server_entity_weapon_damage (en, HOKUM_LHS_CHAFF_DISPENSER, ENTITY_SUB_TYPE_WEAPON_CHAFF, hokum_damage.lh_chaff_dispensers);

  000a7	a1 00 00 00 00	 mov	 eax, DWORD PTR ?hokum_damage@@3THOKUM_DAMAGE_FLAGS@@A ; hokum_damage
  000ac	c1 e8 1c	 shr	 eax, 28			; 0000001cH
  000af	83 e0 01	 and	 eax, 1
  000b2	50		 push	 eax
  000b3	6a 43		 push	 67			; 00000043H
  000b5	6a 05		 push	 5
  000b7	8b 4d fc	 mov	 ecx, DWORD PTR _en$[ebp]
  000ba	51		 push	 ecx
  000bb	e8 00 00 00 00	 call	 ?set_client_server_entity_weapon_damage@@YGXPAUENTITY@@HHH@Z ; set_client_server_entity_weapon_damage

; 106  : 	set_client_server_entity_weapon_damage (en, HOKUM_RHS_CHAFF_DISPENSER, ENTITY_SUB_TYPE_WEAPON_CHAFF, hokum_damage.rh_chaff_dispensers);

  000c0	a1 00 00 00 00	 mov	 eax, DWORD PTR ?hokum_damage@@3THOKUM_DAMAGE_FLAGS@@A ; hokum_damage
  000c5	c1 e8 1d	 shr	 eax, 29			; 0000001dH
  000c8	83 e0 01	 and	 eax, 1
  000cb	50		 push	 eax
  000cc	6a 43		 push	 67			; 00000043H
  000ce	6a 06		 push	 6
  000d0	8b 4d fc	 mov	 ecx, DWORD PTR _en$[ebp]
  000d3	51		 push	 ecx
  000d4	e8 00 00 00 00	 call	 ?set_client_server_entity_weapon_damage@@YGXPAUENTITY@@HHH@Z ; set_client_server_entity_weapon_damage

; 107  : 
; 108  : 	set_client_server_entity_weapon_damage (en, HOKUM_LHS_FLARE_DISPENSER, ENTITY_SUB_TYPE_WEAPON_FLARE, hokum_damage.lh_flare_dispensers);

  000d9	a1 00 00 00 00	 mov	 eax, DWORD PTR ?hokum_damage@@3THOKUM_DAMAGE_FLAGS@@A ; hokum_damage
  000de	c1 e8 1e	 shr	 eax, 30			; 0000001eH
  000e1	83 e0 01	 and	 eax, 1
  000e4	50		 push	 eax
  000e5	6a 44		 push	 68			; 00000044H
  000e7	6a 05		 push	 5
  000e9	8b 4d fc	 mov	 ecx, DWORD PTR _en$[ebp]
  000ec	51		 push	 ecx
  000ed	e8 00 00 00 00	 call	 ?set_client_server_entity_weapon_damage@@YGXPAUENTITY@@HHH@Z ; set_client_server_entity_weapon_damage

; 109  : 	set_client_server_entity_weapon_damage (en, HOKUM_RHS_FLARE_DISPENSER, ENTITY_SUB_TYPE_WEAPON_FLARE, hokum_damage.rh_flare_dispensers);

  000f2	a1 00 00 00 00	 mov	 eax, DWORD PTR ?hokum_damage@@3THOKUM_DAMAGE_FLAGS@@A ; hokum_damage
  000f7	c1 e8 1f	 shr	 eax, 31			; 0000001fH
  000fa	83 e0 01	 and	 eax, 1
  000fd	50		 push	 eax
  000fe	6a 44		 push	 68			; 00000044H
  00100	6a 06		 push	 6
  00102	8b 4d fc	 mov	 ecx, DWORD PTR _en$[ebp]
  00105	51		 push	 ecx
  00106	e8 00 00 00 00	 call	 ?set_client_server_entity_weapon_damage@@YGXPAUENTITY@@HHH@Z ; set_client_server_entity_weapon_damage

; 110  : 
; 111  : 	//
; 112  : 	// check if selected weapon is still available, if not, select next
; 113  : 	//
; 114  : 
; 115  : 	weapon_sub_type = get_local_entity_int_value (en, INT_TYPE_SELECTED_WEAPON);

  0010b	83 7d fc 00	 cmp	 DWORD PTR _en$[ebp], 0
  0010f	74 0a		 je	 SHORT $LN5@set_hokum_
  00111	8b 45 fc	 mov	 eax, DWORD PTR _en$[ebp]
  00114	8b 08		 mov	 ecx, DWORD PTR [eax]
  00116	89 4d b4	 mov	 DWORD PTR tv162[ebp], ecx
  00119	eb 21		 jmp	 SHORT $LN6@set_hokum_
$LN5@set_hokum_:
  0011b	8b 15 00 00 00
	00		 mov	 edx, DWORD PTR ?__LINE__Var@?0??set_hokum_weapon_damage_status@@YGXXZ@4JA
  00121	83 c2 1c	 add	 edx, 28			; 0000001cH
  00124	52		 push	 edx
  00125	68 00 00 00 00	 push	 OFFSET ??_C@_0EN@KJEBDNBA@c?3?2users?2nhv90?2projects?2eech?2ap@
  0012a	a1 00 00 00 00	 mov	 eax, DWORD PTR ?null_entity_pointer_message@@3PBDB ; null_entity_pointer_message
  0012f	50		 push	 eax
  00130	e8 00 00 00 00	 call	 ?process_assert@@YGXPBD0H@Z ; process_assert
  00135	c7 45 b4 00 00
	00 00		 mov	 DWORD PTR tv162[ebp], 0
$LN6@set_hokum_:
  0013c	b9 01 00 00 00	 mov	 ecx, 1
  00141	85 c9		 test	 ecx, ecx
  00143	74 09		 je	 SHORT $LN7@set_hokum_
  00145	c7 45 b0 b8 00
	00 00		 mov	 DWORD PTR tv170[ebp], 184 ; 000000b8H
  0014c	eb 21		 jmp	 SHORT $LN8@set_hokum_
$LN7@set_hokum_:
  0014e	8b 15 00 00 00
	00		 mov	 edx, DWORD PTR ?__LINE__Var@?0??set_hokum_weapon_damage_status@@YGXXZ@4JA
  00154	83 c2 1c	 add	 edx, 28			; 0000001cH
  00157	52		 push	 edx
  00158	68 00 00 00 00	 push	 OFFSET ??_C@_0EN@KJEBDNBA@c?3?2users?2nhv90?2projects?2eech?2ap@
  0015d	a1 00 00 00 00	 mov	 eax, DWORD PTR ?overload_invalid_int_type_message@@3PBDB ; overload_invalid_int_type_message
  00162	50		 push	 eax
  00163	e8 00 00 00 00	 call	 ?process_assert@@YGXPBD0H@Z ; process_assert
  00168	c7 45 b0 00 00
	00 00		 mov	 DWORD PTR tv170[ebp], 0
$LN8@set_hokum_:
  0016f	68 b8 00 00 00	 push	 184			; 000000b8H
  00174	8b 4d fc	 mov	 ecx, DWORD PTR _en$[ebp]
  00177	51		 push	 ecx
  00178	69 55 b4 5c 04
	00 00		 imul	 edx, DWORD PTR tv162[ebp], 1116
  0017f	8b 45 b0	 mov	 eax, DWORD PTR tv170[ebp]
  00182	8b 8c 82 00 00
	00 00		 mov	 ecx, DWORD PTR ?fn_get_local_entity_int_value@@3PAY0BBH@P6GHPAUENTITY@@W4INT_TYPES@@@ZA[edx+eax*4]
  00189	ff d1		 call	 ecx
  0018b	89 45 f8	 mov	 DWORD PTR _weapon_sub_type$[ebp], eax

; 116  : 
; 117  : 	if (weapon_sub_type != ENTITY_SUB_TYPE_WEAPON_NO_WEAPON)

  0018e	83 7d f8 00	 cmp	 DWORD PTR _weapon_sub_type$[ebp], 0
  00192	74 26		 je	 SHORT $LN1@set_hokum_

; 118  : 	{
; 119  : 		if (!get_local_entity_weapon_available (en, weapon_sub_type))

  00194	8b 45 f8	 mov	 eax, DWORD PTR _weapon_sub_type$[ebp]
  00197	50		 push	 eax
  00198	8b 4d fc	 mov	 ecx, DWORD PTR _en$[ebp]
  0019b	51		 push	 ecx
  0019c	e8 00 00 00 00	 call	 ?get_local_entity_weapon_available@@YGHPAUENTITY@@H@Z ; get_local_entity_weapon_available
  001a1	85 c0		 test	 eax, eax
  001a3	75 15		 jne	 SHORT $LN1@set_hokum_

; 120  : 		{
; 121  : 			weapon_sub_type = get_next_available_weapon_sub_type (en);

  001a5	8b 45 fc	 mov	 eax, DWORD PTR _en$[ebp]
  001a8	50		 push	 eax
  001a9	e8 00 00 00 00	 call	 ?get_next_available_weapon_sub_type@@YGHPAUENTITY@@@Z ; get_next_available_weapon_sub_type
  001ae	89 45 f8	 mov	 DWORD PTR _weapon_sub_type$[ebp], eax

; 122  : 
; 123  : 			set_gunship_weapon (weapon_sub_type);

  001b1	8b 45 f8	 mov	 eax, DWORD PTR _weapon_sub_type$[ebp]
  001b4	50		 push	 eax
  001b5	e8 00 00 00 00	 call	 ?set_gunship_weapon@@YGXH@Z ; set_gunship_weapon
$LN1@set_hokum_:

; 124  : 		}
; 125  : 	}
; 126  : }

  001ba	5f		 pop	 edi
  001bb	5e		 pop	 esi
  001bc	5b		 pop	 ebx
  001bd	8b e5		 mov	 esp, ebp
  001bf	5d		 pop	 ebp
  001c0	c3		 ret	 0
?set_hokum_weapon_damage_status@@YGXXZ ENDP		; set_hokum_weapon_damage_status
_TEXT	ENDS
END
