; Listing generated by Microsoft (R) Optimizing Compiler Version 19.16.27045.0 

	TITLE	C:\Users\nhv90\Projects\eech\aphavoc\source\gunships\avionics\hokum\hk_hud.c
	.686P
	.XMM
	include listing.inc
	.model	flat

INCLUDELIB MSVCRTD
INCLUDELIB OLDNAMES

PUBLIC	___local_stdio_printf_options
PUBLIC	__vsnprintf_l
PUBLIC	__vsprintf_l
PUBLIC	_sprintf
PUBLIC	_atan2f
PUBLIC	_atanf
PUBLIC	_cosf
PUBLIC	_fabsf
PUBLIC	_fmodf
PUBLIC	_sinf
PUBLIC	?atan@@YGMM@Z					; atan
PUBLIC	?atan2@@YGMMM@Z					; atan2
PUBLIC	?cos@@YGMM@Z					; cos
PUBLIC	?fabs@@YGMM@Z					; fabs
PUBLIC	?fmod@@YGMMM@Z					; fmod
PUBLIC	?sin@@YGMM@Z					; sin
PUBLIC	?initialise_hokum_hud@@YGXXZ			; initialise_hokum_hud
PUBLIC	?deinitialise_hokum_hud@@YGXXZ			; deinitialise_hokum_hud
PUBLIC	?draw_hokum_hud@@YGXXZ				; draw_hokum_hud
PUBLIC	?draw_external_hokum_hud@@YGXXZ			; draw_external_hokum_hud
PUBLIC	?draw_hokum_hms@@YGXXZ				; draw_hokum_hms
PUBLIC	??$max@M@std@@YGABMABM0@Z			; std::max<float>
PUBLIC	?_OptionsStorage@?1??__local_stdio_printf_options@@9@4_KA ; `__local_stdio_printf_options'::`2'::_OptionsStorage
PUBLIC	??_C@_02DKCKIIND@?$CFs@				; `string'
PUBLIC	?__LINE__Var@?0??clip_2d_point_to_hud_extent@@YGXPAM0@Z@4JA ; `clip_2d_point_to_hud_extent'::`1'::__LINE__Var
PUBLIC	??_C@_0EN@DGOLIDKD@c?3?2users?2nhv90?2projects?2eech?2ap@ ; `string'
PUBLIC	??_C@_01FJMABOPO@x@				; `string'
PUBLIC	??_C@_01EANLCPLP@y@				; `string'
PUBLIC	?__LINE__Var@?0??transform_hud_screen_co_ords_to_hud_texture_co_ords@@YGXPAM0@Z@4JA ; `transform_hud_screen_co_ords_to_hud_texture_co_ords'::`1'::__LINE__Var
PUBLIC	??_C@_01KBJDNOO@i@				; `string'
PUBLIC	??_C@_01CBDEGOCN@j@				; `string'
PUBLIC	?__LINE__Var@?0??draw_pitch_scale@@YGXXZ@4JA	; `draw_pitch_scale'::`1'::__LINE__Var
PUBLIC	??_C@_03GPCJOALC@?$CF2d@			; `string'
PUBLIC	?__LINE__Var@?0??draw_heading_scale@@YGXXZ@4JA	; `draw_heading_scale'::`1'::__LINE__Var
PUBLIC	??_C@_04OGKJMPGK@?$CF02d@			; `string'
PUBLIC	??_C@_02KPIPOMFB@36@				; `string'
PUBLIC	??_C@_03OCGDPLBD@500@				; `string'
PUBLIC	??_C@_04OHGLKFFN@?$CF03d@			; `string'
PUBLIC	??_C@_01MIFGBAGJ@?$CL@				; `string'
PUBLIC	??_C@_01JOAMLHOP@?9@				; `string'
PUBLIC	??_C@_01EKENIIDA@3@				; `string'
PUBLIC	??_C@_01GBGANLPD@0@				; `string'
PUBLIC	??_C@_01HIHLOKLC@1@				; `string'
PUBLIC	??_C@_02PJNFELNH@30@				; `string'
PUBLIC	??_C@_02PNFIDHGF@50@				; `string'
PUBLIC	??_C@_01DGKLNCNG@R@				; `string'
PUBLIC	??_C@_04OCCELDNI@?$CF04d@			; `string'
PUBLIC	?__LINE__Var@?0??display_waypoint_information@@YGXXZ@4JA ; `display_waypoint_information'::`1'::__LINE__Var
PUBLIC	??_C@_07GLDGAFOI@?$CFc?3?$CF?41f@		; `string'
PUBLIC	??_C@_06BAOIPBEF@?9?3?9?9?4?9@			; `string'
PUBLIC	?__LINE__Var@?0??draw_hokum_hud@@YGXXZ@4JA	; `draw_hokum_hud'::`1'::__LINE__Var
PUBLIC	??_C@_0BD@OBKABCFL@hud_texture_screen@		; `string'
PUBLIC	?__LINE__Var@?0??draw_target_marker@@YGXXZ@4JA	; `draw_target_marker'::`1'::__LINE__Var
PUBLIC	?__LINE__Var@?0??display_weapon_information@@YGXXZ@4JA ; `display_weapon_information'::`1'::__LINE__Var
PUBLIC	??_C@_02PDDJEBNF@HE@				; `string'
PUBLIC	??_C@_02MLFNJMEO@AP@				; `string'
PUBLIC	??_C@_08EKOIEIMA@ft?3?5?$CF?41f@		; `string'
PUBLIC	??_C@_06HHKMCLEN@?$CF02?40f@			; `string'
PUBLIC	??_C@_03IFPDDAOD@MSL@				; `string'
PUBLIC	??_C@_03HPMEOHJD@ATA@				; `string'
PUBLIC	??_C@_03NMPFMOLH@GUN@				; `string'
PUBLIC	??_C@_03BNKHBNLL@RKT@				; `string'
PUBLIC	?__LINE__Var@?0??display_target_information@@YGXXZ@4JA ; `display_target_information'::`1'::__LINE__Var
PUBLIC	??_C@_06OEKOLKIL@source@			; `string'
PUBLIC	??_C@_05JEFOLKLE@?$CF2?41f@			; `string'
PUBLIC	??_C@_06LLLMNJMM@NO?5ACQ@			; `string'
PUBLIC	??_C@_06BNPEMCDI@NO?5WPN@			; `string'
PUBLIC	??_C@_06KGAFCCPI@NO?5TGT@			; `string'
PUBLIC	??_C@_07EMEAKIHK@INV?5TGT@			; `string'
PUBLIC	??_C@_07PAKIBCIO@SKR?5LMT@			; `string'
PUBLIC	??_C@_06HCPKJKPH@NO?5LOS@			; `string'
PUBLIC	??_C@_06DLNCBKEB@NO?5SGT@			; `string'
PUBLIC	??_C@_07KJHNDNDJ@MIN?5RNG@			; `string'
PUBLIC	??_C@_07EPBNJCNI@MAX?5RNG@			; `string'
PUBLIC	??_C@_04GPIFAJG@LOCK@				; `string'
PUBLIC	??_C@_0BO@IMEMIMEA@Invalid?5weapon?5lock?5type?5?$DN?5?$CFd@ ; `string'
PUBLIC	??_C@_01OCOKONAJ@L@				; `string'
PUBLIC	??_C@_0BD@FEEMDEPI@invalid?5comparator@		; `string'
PUBLIC	??_C@_0GK@JMBMHIBC@c?3?2program?5files?5?$CIx86?$CJ?2microsof@ ; `string'
PUBLIC	??_C@_1NE@FKBPBJEB@?$AAc?$AA?3?$AA?2?$AAp?$AAr?$AAo?$AAg?$AAr?$AAa?$AAm?$AA?5?$AAf?$AAi?$AAl?$AAe@ ; `string'
PUBLIC	??_C@_1BC@ICCOKLEG@?$AAs?$AAt?$AAd?$AA?3?$AA?3?$AAm?$AAa?$AAx@ ; `string'
PUBLIC	??_C@_1CK@NDNHPKPI@?$AA?$CC?$AAi?$AAn?$AAv?$AAa?$AAl?$AAi?$AAd?$AA?5?$AAc?$AAo?$AAm?$AAp?$AAa?$AAr@ ; `string'
PUBLIC	__real@00000000
PUBLIC	__real@0000000000000000
PUBLIC	__real@3ba3d70a
PUBLIC	__real@3d1374bc
PUBLIC	__real@3d23d70a
PUBLIC	__real@3d45f7fb
PUBLIC	__real@3d4ccccd
PUBLIC	__real@3d8f5c29
PUBLIC	__real@3da3d70a
PUBLIC	__real@3dcccccd
PUBLIC	__real@3df5c28f
PUBLIC	__real@3e19999a
PUBLIC	__real@3e23d70a
PUBLIC	__real@3e333333
PUBLIC	__real@3e4ccccd
PUBLIC	__real@3e6147ae
PUBLIC	__real@3e666666
PUBLIC	__real@3e75c28f
PUBLIC	__real@3e800000
PUBLIC	__real@3e99999a
PUBLIC	__real@3e9b22d1
PUBLIC	__real@3ea3d70a
PUBLIC	__real@3eb33333
PUBLIC	__real@3ec28f5c
PUBLIC	__real@3ec7ae14
PUBLIC	__real@3ecccccd
PUBLIC	__real@3ee66666
PUBLIC	__real@3ef5c28f
PUBLIC	__real@3f000000
PUBLIC	__real@3f051eb8
PUBLIC	__real@3f066666
PUBLIC	__real@3f0a3d71
PUBLIC	__real@3f0ccccd
PUBLIC	__real@3f133333
PUBLIC	__real@3f19999a
PUBLIC	__real@3f23d70a
PUBLIC	__real@3f28f5c3
PUBLIC	__real@3f333333
PUBLIC	__real@3f39999a
PUBLIC	__real@3f400000
PUBLIC	__real@3f4ccccd
PUBLIC	__real@3f50624dd2f1a9fc
PUBLIC	__real@3f56f0068db8bac7
PUBLIC	__real@3f59999a
PUBLIC	__real@3f5eb852
PUBLIC	__real@3f600000
PUBLIC	__real@3f666666
PUBLIC	__real@3f733333
PUBLIC	__real@3f7fbe77
PUBLIC	__real@3f800000
PUBLIC	__real@3f847ae147ae147b
PUBLIC	__real@3f90624dd2f1a9fc
PUBLIC	__real@3f9999999999999a
PUBLIC	__real@3fa47ae147ae147b
PUBLIC	__real@3fa999999999999a
PUBLIC	__real@3faacee9f0000000
PUBLIC	__real@3fb999999999999a
PUBLIC	__real@3fbacee9f0000000
PUBLIC	__real@3fc0000000000000
PUBLIC	__real@3fc11cc249f74fea
PUBLIC	__real@3fc3333333333333
PUBLIC	__real@3fc999999999999a
PUBLIC	__real@3fd0000000000000
PUBLIC	__real@3fd1111111111111
PUBLIC	__real@3fd3333333333333
PUBLIC	__real@3fd6666666666666
PUBLIC	__real@3fd851eb851eb852
PUBLIC	__real@3fd999999999999a
PUBLIC	__real@3fdbecde5a000000
PUBLIC	__real@3fe0000000000000
PUBLIC	__real@3fe3333333333333
PUBLIC	__real@3fe51eb851eb851f
PUBLIC	__real@3fe999999999999a
PUBLIC	__real@3feae147ae147ae1
PUBLIC	__real@3feff7ced916872b
PUBLIC	__real@3ff0000000000000
PUBLIC	__real@3ff199999999999a
PUBLIC	__real@3ff921fb51000000
PUBLIC	__real@400921fb51000000
PUBLIC	__real@4014000000000000
PUBLIC	__real@401921fb51000000
PUBLIC	__real@402819999999999a
PUBLIC	__real@402bc71c71c71c72
PUBLIC	__real@4034000000000000
PUBLIC	__real@403e000000000000
PUBLIC	__real@40400000
PUBLIC	__real@4049000000000000
PUBLIC	__real@4058f9999999999a
PUBLIC	__real@405fffef9db22d0e
PUBLIC	__real@4060000000000000
PUBLIC	__real@40666666
PUBLIC	__real@4072c00000000000
PUBLIC	__real@407ca5dc1e1ce25c
PUBLIC	__real@407e000000000000
PUBLIC	__real@407f400000000000
PUBLIC	__real@4084000000000000
PUBLIC	__real@40a00000
PUBLIC	__real@41200000
PUBLIC	__real@42652ee0
PUBLIC	__real@43000000
PUBLIC	__real@43020000
PUBLIC	__real@437fffbe
PUBLIC	__real@43800000
PUBLIC	__real@451c4000
PUBLIC	__real@459c4000
PUBLIC	__real@461c4000
PUBLIC	__real@bd23d70a
PUBLIC	__real@bd4ccccd
PUBLIC	__real@bd8f5c29
PUBLIC	__real@bda3d70a
PUBLIC	__real@bdcccccd
PUBLIC	__real@be333333
PUBLIC	__real@be4ccccd
PUBLIC	__real@be6147ae
PUBLIC	__real@be666666
PUBLIC	__real@be800000
PUBLIC	__real@be99999a
PUBLIC	__real@be9b22d1
PUBLIC	__real@beb2b8c2
PUBLIC	__real@beb33333
PUBLIC	__real@bec7ae14
PUBLIC	__real@becccccd
PUBLIC	__real@bee66666
PUBLIC	__real@bf000000
PUBLIC	__real@bf066666
PUBLIC	__real@bf0ccccd
PUBLIC	__real@bf133333
PUBLIC	__real@bf19999a
PUBLIC	__real@bf266666
PUBLIC	__real@bf333333
PUBLIC	__real@bf39999a
PUBLIC	__real@bf400000
PUBLIC	__real@bf47ae14
PUBLIC	__real@bf4ccccd
PUBLIC	__real@bf59999a
PUBLIC	__real@bf666666
PUBLIC	__real@bf800000
PUBLIC	__real@bf91df46a0000000
PUBLIC	__real@bfb999999999999a
PUBLIC	__real@bfd0000000000000
PUBLIC	__real@bfd3333333333333
PUBLIC	__real@bfe0000000000000
PUBLIC	__real@bfe199999999999a
PUBLIC	__real@bfe3333333333333
PUBLIC	__real@bff0000000000000
PUBLIC	__real@bff921fb51000000
PUBLIC	__real@c0000000
PUBLIC	__real@c00921fb51000000
PUBLIC	__real@c02819999999999a
PUBLIC	__real@c02bc71c71c71c72
PUBLIC	__real@c0400000
PUBLIC	__real@c0800000
PUBLIC	__real@c0a00000
PUBLIC	__real@c0c00000
PUBLIC	__real@c0c90fdb
PUBLIC	__real@c1000000
PUBLIC	__real@c1700000
PUBLIC	__real@c1c80000
PUBLIC	__xmm@80000000000000008000000000000000
PUBLIC	__xmm@80000000800000008000000080000000
EXTRN	__imp___invalid_parameter:PROC
EXTRN	__imp____stdio_common_vsprintf:PROC
EXTRN	_abs:PROC
EXTRN	__imp___CrtDbgReport:PROC
EXTRN	_atan:PROC
EXTRN	_atan2:PROC
EXTRN	_cos:PROC
EXTRN	_fabs:PROC
EXTRN	_fmod:PROC
EXTRN	_sin:PROC
EXTRN	?process_assert@@YGXPBD0H@Z:PROC		; process_assert
EXTRN	?debug_fatal@@YAXPBDZZ:PROC			; debug_fatal
EXTRN	?debug_log@@YAXPBDZZ:PROC			; debug_log
EXTRN	?query_TIR_active@@YAHXZ:PROC			; query_TIR_active
EXTRN	?get_system_time@@YGIXZ:PROC			; get_system_time
EXTRN	?get_2d_range@@YGMPBUVEC3D@@0@Z:PROC		; get_2d_range
EXTRN	?get_3d_range@@YGMPBUVEC3D@@0@Z:PROC		; get_3d_range
EXTRN	?create_system_texture_screen@@YGPAUSCREEN@@HHHH@Z:PROC ; create_system_texture_screen
EXTRN	?destroy_screen@@YGHPAUSCREEN@@@Z:PROC		; destroy_screen
EXTRN	?lock_screen@@YGHPAUSCREEN@@@Z:PROC		; lock_screen
EXTRN	?unlock_screen@@YGHPAUSCREEN@@@Z:PROC		; unlock_screen
EXTRN	?set_active_screen@@YGHPAUSCREEN@@@Z:PROC	; set_active_screen
EXTRN	?set_block@@YGXHHHHUREAL_COLOUR@@@Z:PROC	; set_block
EXTRN	?set_d3d_transparency_on@@YGXXZ:PROC		; set_d3d_transparency_on
EXTRN	?set_d3d_transparency_off@@YGXXZ:PROC		; set_d3d_transparency_off
EXTRN	?set_d3d_zbuffer_comparison@@YGXH@Z:PROC	; set_d3d_zbuffer_comparison
EXTRN	?set_d3d_culling@@YGXH@Z:PROC			; set_d3d_culling
EXTRN	?set_d3d_texture_wrapping@@YGXHH@Z:PROC		; set_d3d_texture_wrapping
EXTRN	?set_d3d_texture_mag_filtering@@YGXH@Z:PROC	; set_d3d_texture_mag_filtering
EXTRN	?set_d3d_texture_min_filtering@@YGXH@Z:PROC	; set_d3d_texture_min_filtering
EXTRN	?set_d3d_texture_mip_filtering@@YGXH@Z:PROC	; set_d3d_texture_mip_filtering
EXTRN	?set_d3d_flat_shaded_textured_renderstate@@YGXPAUSCREEN@@@Z:PROC ; set_d3d_flat_shaded_textured_renderstate
EXTRN	?draw_wbuffered_flat_shaded_textured_polygon@@YGXPAUVERTEX@@UREAL_COLOUR@@1@Z:PROC ; draw_wbuffered_flat_shaded_textured_polygon
EXTRN	?get_system_texture_ptr@@YGPAUSCREEN@@H@Z:PROC	; get_system_texture_ptr
EXTRN	?flush_screen_texture_graphics@@YGXPAUSCREEN@@@Z:PROC ; flush_screen_texture_graphics
EXTRN	?set_mono_font_type@@YGXW4MONO_FONT_TYPES@@@Z:PROC ; set_mono_font_type
EXTRN	?set_mono_font_rel_position@@YGXMM@Z:PROC	; set_mono_font_rel_position
EXTRN	?set_mono_font_colour@@YGXUREAL_COLOUR@@@Z:PROC	; set_mono_font_colour
EXTRN	?get_mono_font_string_width@@YGMPBD@Z:PROC	; get_mono_font_string_width
EXTRN	?print_mono_font_string@@YGXPBD@Z:PROC		; print_mono_font_string
EXTRN	?create_2d_environment@@YGPAUENV_2D@@XZ:PROC	; create_2d_environment
EXTRN	?destroy_2d_environment@@YGXPAUENV_2D@@@Z:PROC	; destroy_2d_environment
EXTRN	?set_2d_active_environment@@YGXPAUENV_2D@@@Z:PROC ; set_2d_active_environment
EXTRN	?set_2d_viewport@@YGXPAUENV_2D@@MMMM@Z:PROC	; set_2d_viewport
EXTRN	?set_2d_window@@YGXPAUENV_2D@@MMMM@Z:PROC	; set_2d_window
EXTRN	?set_2d_instance_rotation@@YGXPAUENV_2D@@M@Z:PROC ; set_2d_instance_rotation
EXTRN	?set_2d_instance_position@@YGXPAUENV_2D@@MM@Z:PROC ; set_2d_instance_position
EXTRN	?reset_2d_instance@@YGXPAUENV_2D@@@Z:PROC	; reset_2d_instance
EXTRN	?set_2d_view_offset@@YGXPAUENV_2D@@MM@Z:PROC	; set_2d_view_offset
EXTRN	?reset_2d_view_offset@@YGXPAUENV_2D@@@Z:PROC	; reset_2d_view_offset
EXTRN	?set_2d_pixel@@YGXMMUREAL_COLOUR@@@Z:PROC	; set_2d_pixel
EXTRN	?draw_2d_line@@YGXMMMMUREAL_COLOUR@@@Z:PROC	; draw_2d_line
EXTRN	?draw_2d_half_thick_line@@YGXMMMMUREAL_COLOUR@@@Z:PROC ; draw_2d_half_thick_line
EXTRN	?set_2d_mono_font_position@@YGXMM@Z:PROC	; set_2d_mono_font_position
EXTRN	?get_2d_world_position@@YGXMMPAM0@Z:PROC	; get_2d_world_position
EXTRN	?get_2d_float_screen_coordinates@@YGXMMPAM0@Z:PROC ; get_2d_float_screen_coordinates
EXTRN	?draw_2d_mono_sprite@@YGXPBDMMUREAL_COLOUR@@@Z:PROC ; draw_2d_mono_sprite
EXTRN	?draw_2d_circle@@YGXMMMUREAL_COLOUR@@@Z:PROC	; draw_2d_circle
EXTRN	?set_3d_active_environment@@YGXPAUENV_3D@@@Z:PROC ; set_3d_active_environment
EXTRN	?begin_3d_scene@@YGHXZ:PROC			; begin_3d_scene
EXTRN	?end_3d_scene@@YGXXZ:PROC			; end_3d_scene
EXTRN	?find_object_3d_sub_object@@YG?AW4SUB_OBJECT_SEARCH_RESULT_TYPES@@PAUOBJECT_3D_SUB_OBJECT_SEARCH_DATA@@@Z:PROC ; find_object_3d_sub_object
EXTRN	?get_position_3d_screen_coordinates@@YG?AW4OBJECT_3D_VISIBILITY@@PAUVEC3D@@PAM1@Z:PROC ; get_position_3d_screen_coordinates
EXTRN	?get_local_entity_target_point@@YGXPAUENTITY@@PAUVEC3D@@@Z:PROC ; get_local_entity_target_point
EXTRN	?get_target_intercept_point@@YGXPAUENTITY@@0HPAUVEC3D@@@Z:PROC ; get_target_intercept_point
EXTRN	?get_waypoint_display_position@@YGXPAUENTITY@@0PAUVEC3D@@@Z:PROC ; get_waypoint_display_position
EXTRN	?get_local_entity_current_waypoint@@YGPAUENTITY@@PAU1@@Z:PROC ; get_local_entity_current_waypoint
EXTRN	?set_main_3d_full_screen_params@@YGXW4DISPLAY_3D_TINTS@@W4DISPLAY_3D_LIGHT_LEVELS@@W4DISPLAY_3D_NOISE_LEVELS@@@Z:PROC ; set_main_3d_full_screen_params
EXTRN	?getViewpointOffsetX@@YGMM@Z:PROC		; getViewpointOffsetX
EXTRN	?getViewpointOffsetY@@YGMM@Z:PROC		; getViewpointOffsetY
EXTRN	?getViewpointOffsetZ@@YGMM@Z:PROC		; getViewpointOffsetZ
EXTRN	?get_target_display_name@@YGPBDPAUENTITY@@PADH@Z:PROC ; get_target_display_name
EXTRN	?get_range_finder@@YG?AW4rangefinding_system@@XZ:PROC ; get_range_finder
EXTRN	?slew_eo_to_direction@@YGXMM@Z:PROC		; slew_eo_to_direction
EXTRN	?laser_is_active@@YGHXZ:PROC			; laser_is_active
EXTRN	?electrical_system_active@@YGHXZ:PROC		; electrical_system_active
EXTRN	?eo_is_tracking_point@@YGHXZ:PROC		; eo_is_tracking_point
EXTRN	?get_eo_tracking_point@@YGPAUVEC3D@@XZ:PROC	; get_eo_tracking_point
EXTRN	?get_weapon_drop@@YGMH@Z:PROC			; get_weapon_drop
EXTRN	?get_missile_flight_time@@YGMXZ:PROC		; get_missile_flight_time
EXTRN	?get_crew_role@@YG?AW4CREW_ROLES@@XZ:PROC	; get_crew_role
EXTRN	?application_video_width@@3HA:DWORD		; application_video_width
EXTRN	?d3d_modulate_alpha@@3HA:DWORD			; d3d_modulate_alpha
EXTRN	?sys_col_red@@3UREAL_COLOUR@@A:DWORD		; sys_col_red
EXTRN	?video_screen@@3PAUSCREEN@@A:DWORD		; video_screen
EXTRN	?command_line_high_res_hud@@3HA:DWORD		; command_line_high_res_hud
EXTRN	?command_line_TIR_6DOF@@3HA:DWORD		; command_line_TIR_6DOF
EXTRN	?null_entity_pointer_message@@3PBDB:DWORD	; null_entity_pointer_message
EXTRN	?global_options@@3UGLOBAL_OPTIONS_DATA@@A:BYTE	; global_options
EXTRN	?overload_invalid_list_type_message@@3PBDB:DWORD ; overload_invalid_list_type_message
EXTRN	?fn_get_local_entity_parent@@3PAY0CN@P6GPAUENTITY@@PAU1@W4LIST_TYPES@@@ZA:BYTE ; fn_get_local_entity_parent
EXTRN	?overload_invalid_char_type_message@@3PBDB:DWORD ; overload_invalid_char_type_message
EXTRN	?fn_get_local_entity_char_value@@3PAY01P6GDPAUENTITY@@W4CHAR_TYPES@@@ZA:BYTE ; fn_get_local_entity_char_value
EXTRN	?overload_invalid_float_type_message@@3PBDB:DWORD ; overload_invalid_float_type_message
EXTRN	?fn_get_local_entity_float_value@@3PAY0KP@P6GMPAUENTITY@@W4FLOAT_TYPES@@@ZA:BYTE ; fn_get_local_entity_float_value
EXTRN	?overload_invalid_int_type_message@@3PBDB:DWORD	; overload_invalid_int_type_message
EXTRN	?fn_get_local_entity_int_value@@3PAY0BBH@P6GHPAUENTITY@@W4INT_TYPES@@@ZA:BYTE ; fn_get_local_entity_int_value
EXTRN	?overload_invalid_vec3d_type_message@@3PBDB:DWORD ; overload_invalid_vec3d_type_message
EXTRN	?fn_get_local_entity_vec3d_ptr@@3PAY0BI@P6GPAUVEC3D@@PAUENTITY@@W4VEC3D_TYPES@@@ZA:BYTE ; fn_get_local_entity_vec3d_ptr
EXTRN	?weapon_database@@3PAUWEAPON_DATA@@A:BYTE	; weapon_database
EXTRN	?gunship_entity@@3PAUENTITY@@A:DWORD		; gunship_entity
EXTRN	?full_screen_width@@3MA:DWORD			; full_screen_width
EXTRN	?full_screen_height@@3MA:DWORD			; full_screen_height
EXTRN	?full_screen_x_mid@@3MA:DWORD			; full_screen_x_mid
EXTRN	?full_screen_y_mid@@3MA:DWORD			; full_screen_y_mid
EXTRN	?main_3d_env@@3PAUENV_3D@@A:DWORD		; main_3d_env
EXTRN	?view_mode@@3W4VIEW_MODES@@A:DWORD		; view_mode
EXTRN	?in_cockpit@@3HA:DWORD				; in_cockpit
EXTRN	?pilot_head_heading@@3MA:DWORD			; pilot_head_heading
EXTRN	?pilot_head_pitch@@3MA:DWORD			; pilot_head_pitch
EXTRN	?wide_cockpit@@3HA:DWORD			; wide_cockpit
EXTRN	?wide_cockpit_position@@3PAUCOCKPIT_POSITION@@A:BYTE ; wide_cockpit_position
EXTRN	?target_acquisition_system@@3W4TARGET_ACQUISITION_SYSTEMS@@A:DWORD ; target_acquisition_system
EXTRN	?hud_colour_table@@3PAUREAL_COLOUR@@A:BYTE	; hud_colour_table
EXTRN	?hud_colour@@3UREAL_COLOUR@@A:DWORD		; hud_colour
EXTRN	?display_hud_layout_grid@@3HA:DWORD		; display_hud_layout_grid
EXTRN	?hud_mode@@3W4HUD_MODES@@A:DWORD		; hud_mode
EXTRN	?weapon_lock_type@@3W4WEAPON_LOCK_TYPES@@A:DWORD ; weapon_lock_type
EXTRN	?hokum_damage@@3THOKUM_DAMAGE_FLAGS@@A:DWORD	; hokum_damage
EXTRN	?virtual_cockpit_inst3d@@3PAUOBJECT_3D_INSTANCE@@A:DWORD ; virtual_cockpit_inst3d
EXTRN	?current_flight_dynamics@@3PAUDYNAMICS_TYPE@@A:DWORD ; current_flight_dynamics
EXTRN	__fltused:DWORD
;	COMDAT ?_OptionsStorage@?1??__local_stdio_printf_options@@9@4_KA
_BSS	SEGMENT
?_OptionsStorage@?1??__local_stdio_printf_options@@9@4_KA DQ 01H DUP (?) ; `__local_stdio_printf_options'::`2'::_OptionsStorage
_BSS	ENDS
_BSS	SEGMENT
?hud_env@@3PAUENV_2D@@A DD 01H DUP (?)			; hud_env
?hud_viewport_size@@3MA DD 01H DUP (?)			; hud_viewport_size
?hud_viewport_x_org@@3MA DD 01H DUP (?)			; hud_viewport_x_org
?hud_viewport_y_org@@3MA DD 01H DUP (?)			; hud_viewport_y_org
?hud_viewport_x_min@@3MA DD 01H DUP (?)			; hud_viewport_x_min
?hud_viewport_y_min@@3MA DD 01H DUP (?)			; hud_viewport_y_min
?hud_viewport_x_max@@3MA DD 01H DUP (?)			; hud_viewport_x_max
?hud_viewport_y_max@@3MA DD 01H DUP (?)			; hud_viewport_y_max
?draw_large_hud@@3HA DD 01H DUP (?)			; draw_large_hud
?hud_screen_x_min@@3MA DD 01H DUP (?)			; hud_screen_x_min
?hud_screen_y_min@@3MA DD 01H DUP (?)			; hud_screen_y_min
?hud_screen_x_max@@3MA DD 01H DUP (?)			; hud_screen_x_max
?hud_screen_y_max@@3MA DD 01H DUP (?)			; hud_screen_y_max
?hud_screen_x_scale@@3MA DD 01H DUP (?)			; hud_screen_x_scale
?hud_screen_y_scale@@3MA DD 01H DUP (?)			; hud_screen_y_scale
?hud_texture_screen@@3PAUSCREEN@@A DD 01H DUP (?)	; hud_texture_screen
?outside_hud_texture_screen@@3PAUSCREEN@@A DD 01H DUP (?) ; outside_hud_texture_screen
?clear_hud_colour@@3UREAL_COLOUR@@A DD 01H DUP (?)	; clear_hud_colour
?draw_line_func@@3P6GXMMMMUREAL_COLOUR@@@ZA DD 01H DUP (?) ; draw_line_func
?gun_pipper_points@@3PAY01MA DD 0104H DUP (?)		; gun_pipper_points
_BSS	ENDS
;	COMDAT __xmm@80000000800000008000000080000000
CONST	SEGMENT
__xmm@80000000800000008000000080000000 DB 00H, 00H, 00H, 080H, 00H, 00H, 00H
	DB	080H, 00H, 00H, 00H, 080H, 00H, 00H, 00H, 080H
CONST	ENDS
;	COMDAT __xmm@80000000000000008000000000000000
CONST	SEGMENT
__xmm@80000000000000008000000000000000 DB 00H, 00H, 00H, 00H, 00H, 00H, 00H
	DB	080H, 00H, 00H, 00H, 00H, 00H, 00H, 00H, 080H
CONST	ENDS
;	COMDAT __real@c1c80000
CONST	SEGMENT
__real@c1c80000 DD 0c1c80000r			; -25
CONST	ENDS
;	COMDAT __real@c1700000
CONST	SEGMENT
__real@c1700000 DD 0c1700000r			; -15
CONST	ENDS
;	COMDAT __real@c1000000
CONST	SEGMENT
__real@c1000000 DD 0c1000000r			; -8
CONST	ENDS
;	COMDAT __real@c0c90fdb
CONST	SEGMENT
__real@c0c90fdb DD 0c0c90fdbr			; -6.28319
CONST	ENDS
;	COMDAT __real@c0c00000
CONST	SEGMENT
__real@c0c00000 DD 0c0c00000r			; -6
CONST	ENDS
;	COMDAT __real@c0a00000
CONST	SEGMENT
__real@c0a00000 DD 0c0a00000r			; -5
CONST	ENDS
;	COMDAT __real@c0800000
CONST	SEGMENT
__real@c0800000 DD 0c0800000r			; -4
CONST	ENDS
;	COMDAT __real@c0400000
CONST	SEGMENT
__real@c0400000 DD 0c0400000r			; -3
CONST	ENDS
;	COMDAT __real@c02bc71c71c71c72
CONST	SEGMENT
__real@c02bc71c71c71c72 DQ 0c02bc71c71c71c72r	; -13.8889
CONST	ENDS
;	COMDAT __real@c02819999999999a
CONST	SEGMENT
__real@c02819999999999a DQ 0c02819999999999ar	; -12.05
CONST	ENDS
;	COMDAT __real@c00921fb51000000
CONST	SEGMENT
__real@c00921fb51000000 DQ 0c00921fb51000000r	; -3.14159
CONST	ENDS
;	COMDAT __real@c0000000
CONST	SEGMENT
__real@c0000000 DD 0c0000000r			; -2
CONST	ENDS
;	COMDAT __real@bff921fb51000000
CONST	SEGMENT
__real@bff921fb51000000 DQ 0bff921fb51000000r	; -1.5708
CONST	ENDS
;	COMDAT __real@bff0000000000000
CONST	SEGMENT
__real@bff0000000000000 DQ 0bff0000000000000r	; -1
CONST	ENDS
;	COMDAT __real@bfe3333333333333
CONST	SEGMENT
__real@bfe3333333333333 DQ 0bfe3333333333333r	; -0.6
CONST	ENDS
;	COMDAT __real@bfe199999999999a
CONST	SEGMENT
__real@bfe199999999999a DQ 0bfe199999999999ar	; -0.55
CONST	ENDS
;	COMDAT __real@bfe0000000000000
CONST	SEGMENT
__real@bfe0000000000000 DQ 0bfe0000000000000r	; -0.5
CONST	ENDS
;	COMDAT __real@bfd3333333333333
CONST	SEGMENT
__real@bfd3333333333333 DQ 0bfd3333333333333r	; -0.3
CONST	ENDS
;	COMDAT __real@bfd0000000000000
CONST	SEGMENT
__real@bfd0000000000000 DQ 0bfd0000000000000r	; -0.25
CONST	ENDS
;	COMDAT __real@bfb999999999999a
CONST	SEGMENT
__real@bfb999999999999a DQ 0bfb999999999999ar	; -0.1
CONST	ENDS
;	COMDAT __real@bf91df46a0000000
CONST	SEGMENT
__real@bf91df46a0000000 DQ 0bf91df46a0000000r	; -0.0174533
CONST	ENDS
;	COMDAT __real@bf800000
CONST	SEGMENT
__real@bf800000 DD 0bf800000r			; -1
CONST	ENDS
;	COMDAT __real@bf666666
CONST	SEGMENT
__real@bf666666 DD 0bf666666r			; -0.9
CONST	ENDS
;	COMDAT __real@bf59999a
CONST	SEGMENT
__real@bf59999a DD 0bf59999ar			; -0.85
CONST	ENDS
;	COMDAT __real@bf4ccccd
CONST	SEGMENT
__real@bf4ccccd DD 0bf4ccccdr			; -0.8
CONST	ENDS
;	COMDAT __real@bf47ae14
CONST	SEGMENT
__real@bf47ae14 DD 0bf47ae14r			; -0.78
CONST	ENDS
;	COMDAT __real@bf400000
CONST	SEGMENT
__real@bf400000 DD 0bf400000r			; -0.75
CONST	ENDS
;	COMDAT __real@bf39999a
CONST	SEGMENT
__real@bf39999a DD 0bf39999ar			; -0.725
CONST	ENDS
;	COMDAT __real@bf333333
CONST	SEGMENT
__real@bf333333 DD 0bf333333r			; -0.7
CONST	ENDS
;	COMDAT __real@bf266666
CONST	SEGMENT
__real@bf266666 DD 0bf266666r			; -0.65
CONST	ENDS
;	COMDAT __real@bf19999a
CONST	SEGMENT
__real@bf19999a DD 0bf19999ar			; -0.6
CONST	ENDS
;	COMDAT __real@bf133333
CONST	SEGMENT
__real@bf133333 DD 0bf133333r			; -0.575
CONST	ENDS
;	COMDAT __real@bf0ccccd
CONST	SEGMENT
__real@bf0ccccd DD 0bf0ccccdr			; -0.55
CONST	ENDS
;	COMDAT __real@bf066666
CONST	SEGMENT
__real@bf066666 DD 0bf066666r			; -0.525
CONST	ENDS
;	COMDAT __real@bf000000
CONST	SEGMENT
__real@bf000000 DD 0bf000000r			; -0.5
CONST	ENDS
;	COMDAT __real@bee66666
CONST	SEGMENT
__real@bee66666 DD 0bee66666r			; -0.45
CONST	ENDS
;	COMDAT __real@becccccd
CONST	SEGMENT
__real@becccccd DD 0becccccdr			; -0.4
CONST	ENDS
;	COMDAT __real@bec7ae14
CONST	SEGMENT
__real@bec7ae14 DD 0bec7ae14r			; -0.39
CONST	ENDS
;	COMDAT __real@beb33333
CONST	SEGMENT
__real@beb33333 DD 0beb33333r			; -0.35
CONST	ENDS
;	COMDAT __real@beb2b8c2
CONST	SEGMENT
__real@beb2b8c2 DD 0beb2b8c2r			; -0.349066
CONST	ENDS
;	COMDAT __real@be9b22d1
CONST	SEGMENT
__real@be9b22d1 DD 0be9b22d1r			; -0.303
CONST	ENDS
;	COMDAT __real@be99999a
CONST	SEGMENT
__real@be99999a DD 0be99999ar			; -0.3
CONST	ENDS
;	COMDAT __real@be800000
CONST	SEGMENT
__real@be800000 DD 0be800000r			; -0.25
CONST	ENDS
;	COMDAT __real@be666666
CONST	SEGMENT
__real@be666666 DD 0be666666r			; -0.225
CONST	ENDS
;	COMDAT __real@be6147ae
CONST	SEGMENT
__real@be6147ae DD 0be6147aer			; -0.22
CONST	ENDS
;	COMDAT __real@be4ccccd
CONST	SEGMENT
__real@be4ccccd DD 0be4ccccdr			; -0.2
CONST	ENDS
;	COMDAT __real@be333333
CONST	SEGMENT
__real@be333333 DD 0be333333r			; -0.175
CONST	ENDS
;	COMDAT __real@bdcccccd
CONST	SEGMENT
__real@bdcccccd DD 0bdcccccdr			; -0.1
CONST	ENDS
;	COMDAT __real@bda3d70a
CONST	SEGMENT
__real@bda3d70a DD 0bda3d70ar			; -0.08
CONST	ENDS
;	COMDAT __real@bd8f5c29
CONST	SEGMENT
__real@bd8f5c29 DD 0bd8f5c29r			; -0.07
CONST	ENDS
;	COMDAT __real@bd4ccccd
CONST	SEGMENT
__real@bd4ccccd DD 0bd4ccccdr			; -0.05
CONST	ENDS
;	COMDAT __real@bd23d70a
CONST	SEGMENT
__real@bd23d70a DD 0bd23d70ar			; -0.04
CONST	ENDS
;	COMDAT __real@461c4000
CONST	SEGMENT
__real@461c4000 DD 0461c4000r			; 10000
CONST	ENDS
;	COMDAT __real@459c4000
CONST	SEGMENT
__real@459c4000 DD 0459c4000r			; 5000
CONST	ENDS
;	COMDAT __real@451c4000
CONST	SEGMENT
__real@451c4000 DD 0451c4000r			; 2500
CONST	ENDS
;	COMDAT __real@43800000
CONST	SEGMENT
__real@43800000 DD 043800000r			; 256
CONST	ENDS
;	COMDAT __real@437fffbe
CONST	SEGMENT
__real@437fffbe DD 0437fffber			; 255.999
CONST	ENDS
;	COMDAT __real@43020000
CONST	SEGMENT
__real@43020000 DD 043020000r			; 130
CONST	ENDS
;	COMDAT __real@43000000
CONST	SEGMENT
__real@43000000 DD 043000000r			; 128
CONST	ENDS
;	COMDAT __real@42652ee0
CONST	SEGMENT
__real@42652ee0 DD 042652ee0r			; 57.2958
CONST	ENDS
;	COMDAT __real@41200000
CONST	SEGMENT
__real@41200000 DD 041200000r			; 10
CONST	ENDS
;	COMDAT __real@40a00000
CONST	SEGMENT
__real@40a00000 DD 040a00000r			; 5
CONST	ENDS
;	COMDAT __real@4084000000000000
CONST	SEGMENT
__real@4084000000000000 DQ 04084000000000000r	; 640
CONST	ENDS
;	COMDAT __real@407f400000000000
CONST	SEGMENT
__real@407f400000000000 DQ 0407f400000000000r	; 500
CONST	ENDS
;	COMDAT __real@407e000000000000
CONST	SEGMENT
__real@407e000000000000 DQ 0407e000000000000r	; 480
CONST	ENDS
;	COMDAT __real@407ca5dc1e1ce25c
CONST	SEGMENT
__real@407ca5dc1e1ce25c DQ 0407ca5dc1e1ce25cr	; 458.366
CONST	ENDS
;	COMDAT __real@4072c00000000000
CONST	SEGMENT
__real@4072c00000000000 DQ 04072c00000000000r	; 300
CONST	ENDS
;	COMDAT __real@40666666
CONST	SEGMENT
__real@40666666 DD 040666666r			; 3.6
CONST	ENDS
;	COMDAT __real@4060000000000000
CONST	SEGMENT
__real@4060000000000000 DQ 04060000000000000r	; 128
CONST	ENDS
;	COMDAT __real@405fffef9db22d0e
CONST	SEGMENT
__real@405fffef9db22d0e DQ 0405fffef9db22d0er	; 127.999
CONST	ENDS
;	COMDAT __real@4058f9999999999a
CONST	SEGMENT
__real@4058f9999999999a DQ 04058f9999999999ar	; 99.9
CONST	ENDS
;	COMDAT __real@4049000000000000
CONST	SEGMENT
__real@4049000000000000 DQ 04049000000000000r	; 50
CONST	ENDS
;	COMDAT __real@40400000
CONST	SEGMENT
__real@40400000 DD 040400000r			; 3
CONST	ENDS
;	COMDAT __real@403e000000000000
CONST	SEGMENT
__real@403e000000000000 DQ 0403e000000000000r	; 30
CONST	ENDS
;	COMDAT __real@4034000000000000
CONST	SEGMENT
__real@4034000000000000 DQ 04034000000000000r	; 20
CONST	ENDS
;	COMDAT __real@402bc71c71c71c72
CONST	SEGMENT
__real@402bc71c71c71c72 DQ 0402bc71c71c71c72r	; 13.8889
CONST	ENDS
;	COMDAT __real@402819999999999a
CONST	SEGMENT
__real@402819999999999a DQ 0402819999999999ar	; 12.05
CONST	ENDS
;	COMDAT __real@401921fb51000000
CONST	SEGMENT
__real@401921fb51000000 DQ 0401921fb51000000r	; 6.28319
CONST	ENDS
;	COMDAT __real@4014000000000000
CONST	SEGMENT
__real@4014000000000000 DQ 04014000000000000r	; 5
CONST	ENDS
;	COMDAT __real@400921fb51000000
CONST	SEGMENT
__real@400921fb51000000 DQ 0400921fb51000000r	; 3.14159
CONST	ENDS
;	COMDAT __real@3ff921fb51000000
CONST	SEGMENT
__real@3ff921fb51000000 DQ 03ff921fb51000000r	; 1.5708
CONST	ENDS
;	COMDAT __real@3ff199999999999a
CONST	SEGMENT
__real@3ff199999999999a DQ 03ff199999999999ar	; 1.1
CONST	ENDS
;	COMDAT __real@3ff0000000000000
CONST	SEGMENT
__real@3ff0000000000000 DQ 03ff0000000000000r	; 1
CONST	ENDS
;	COMDAT __real@3feff7ced916872b
CONST	SEGMENT
__real@3feff7ced916872b DQ 03feff7ced916872br	; 0.999
CONST	ENDS
;	COMDAT __real@3feae147ae147ae1
CONST	SEGMENT
__real@3feae147ae147ae1 DQ 03feae147ae147ae1r	; 0.84
CONST	ENDS
;	COMDAT __real@3fe999999999999a
CONST	SEGMENT
__real@3fe999999999999a DQ 03fe999999999999ar	; 0.8
CONST	ENDS
;	COMDAT __real@3fe51eb851eb851f
CONST	SEGMENT
__real@3fe51eb851eb851f DQ 03fe51eb851eb851fr	; 0.66
CONST	ENDS
;	COMDAT __real@3fe3333333333333
CONST	SEGMENT
__real@3fe3333333333333 DQ 03fe3333333333333r	; 0.6
CONST	ENDS
;	COMDAT __real@3fe0000000000000
CONST	SEGMENT
__real@3fe0000000000000 DQ 03fe0000000000000r	; 0.5
CONST	ENDS
;	COMDAT __real@3fdbecde5a000000
CONST	SEGMENT
__real@3fdbecde5a000000 DQ 03fdbecde5a000000r	; 0.436332
CONST	ENDS
;	COMDAT __real@3fd999999999999a
CONST	SEGMENT
__real@3fd999999999999a DQ 03fd999999999999ar	; 0.4
CONST	ENDS
;	COMDAT __real@3fd851eb851eb852
CONST	SEGMENT
__real@3fd851eb851eb852 DQ 03fd851eb851eb852r	; 0.38
CONST	ENDS
;	COMDAT __real@3fd6666666666666
CONST	SEGMENT
__real@3fd6666666666666 DQ 03fd6666666666666r	; 0.35
CONST	ENDS
;	COMDAT __real@3fd3333333333333
CONST	SEGMENT
__real@3fd3333333333333 DQ 03fd3333333333333r	; 0.3
CONST	ENDS
;	COMDAT __real@3fd1111111111111
CONST	SEGMENT
__real@3fd1111111111111 DQ 03fd1111111111111r	; 0.266667
CONST	ENDS
;	COMDAT __real@3fd0000000000000
CONST	SEGMENT
__real@3fd0000000000000 DQ 03fd0000000000000r	; 0.25
CONST	ENDS
;	COMDAT __real@3fc999999999999a
CONST	SEGMENT
__real@3fc999999999999a DQ 03fc999999999999ar	; 0.2
CONST	ENDS
;	COMDAT __real@3fc3333333333333
CONST	SEGMENT
__real@3fc3333333333333 DQ 03fc3333333333333r	; 0.15
CONST	ENDS
;	COMDAT __real@3fc11cc249f74fea
CONST	SEGMENT
__real@3fc11cc249f74fea DQ 03fc11cc249f74fear	; 0.13369
CONST	ENDS
;	COMDAT __real@3fc0000000000000
CONST	SEGMENT
__real@3fc0000000000000 DQ 03fc0000000000000r	; 0.125
CONST	ENDS
;	COMDAT __real@3fbacee9f0000000
CONST	SEGMENT
__real@3fbacee9f0000000 DQ 03fbacee9f0000000r	; 0.10472
CONST	ENDS
;	COMDAT __real@3fb999999999999a
CONST	SEGMENT
__real@3fb999999999999a DQ 03fb999999999999ar	; 0.1
CONST	ENDS
;	COMDAT __real@3faacee9f0000000
CONST	SEGMENT
__real@3faacee9f0000000 DQ 03faacee9f0000000r	; 0.0523599
CONST	ENDS
;	COMDAT __real@3fa999999999999a
CONST	SEGMENT
__real@3fa999999999999a DQ 03fa999999999999ar	; 0.05
CONST	ENDS
;	COMDAT __real@3fa47ae147ae147b
CONST	SEGMENT
__real@3fa47ae147ae147b DQ 03fa47ae147ae147br	; 0.04
CONST	ENDS
;	COMDAT __real@3f9999999999999a
CONST	SEGMENT
__real@3f9999999999999a DQ 03f9999999999999ar	; 0.025
CONST	ENDS
;	COMDAT __real@3f90624dd2f1a9fc
CONST	SEGMENT
__real@3f90624dd2f1a9fc DQ 03f90624dd2f1a9fcr	; 0.016
CONST	ENDS
;	COMDAT __real@3f847ae147ae147b
CONST	SEGMENT
__real@3f847ae147ae147b DQ 03f847ae147ae147br	; 0.01
CONST	ENDS
;	COMDAT __real@3f800000
CONST	SEGMENT
__real@3f800000 DD 03f800000r			; 1
CONST	ENDS
;	COMDAT __real@3f7fbe77
CONST	SEGMENT
__real@3f7fbe77 DD 03f7fbe77r			; 0.999
CONST	ENDS
;	COMDAT __real@3f733333
CONST	SEGMENT
__real@3f733333 DD 03f733333r			; 0.95
CONST	ENDS
;	COMDAT __real@3f666666
CONST	SEGMENT
__real@3f666666 DD 03f666666r			; 0.9
CONST	ENDS
;	COMDAT __real@3f600000
CONST	SEGMENT
__real@3f600000 DD 03f600000r			; 0.875
CONST	ENDS
;	COMDAT __real@3f5eb852
CONST	SEGMENT
__real@3f5eb852 DD 03f5eb852r			; 0.87
CONST	ENDS
;	COMDAT __real@3f59999a
CONST	SEGMENT
__real@3f59999a DD 03f59999ar			; 0.85
CONST	ENDS
;	COMDAT __real@3f56f0068db8bac7
CONST	SEGMENT
__real@3f56f0068db8bac7 DQ 03f56f0068db8bac7r	; 0.0014
CONST	ENDS
;	COMDAT __real@3f50624dd2f1a9fc
CONST	SEGMENT
__real@3f50624dd2f1a9fc DQ 03f50624dd2f1a9fcr	; 0.001
CONST	ENDS
;	COMDAT __real@3f4ccccd
CONST	SEGMENT
__real@3f4ccccd DD 03f4ccccdr			; 0.8
CONST	ENDS
;	COMDAT __real@3f400000
CONST	SEGMENT
__real@3f400000 DD 03f400000r			; 0.75
CONST	ENDS
;	COMDAT __real@3f39999a
CONST	SEGMENT
__real@3f39999a DD 03f39999ar			; 0.725
CONST	ENDS
;	COMDAT __real@3f333333
CONST	SEGMENT
__real@3f333333 DD 03f333333r			; 0.7
CONST	ENDS
;	COMDAT __real@3f28f5c3
CONST	SEGMENT
__real@3f28f5c3 DD 03f28f5c3r			; 0.66
CONST	ENDS
;	COMDAT __real@3f23d70a
CONST	SEGMENT
__real@3f23d70a DD 03f23d70ar			; 0.64
CONST	ENDS
;	COMDAT __real@3f19999a
CONST	SEGMENT
__real@3f19999a DD 03f19999ar			; 0.6
CONST	ENDS
;	COMDAT __real@3f133333
CONST	SEGMENT
__real@3f133333 DD 03f133333r			; 0.575
CONST	ENDS
;	COMDAT __real@3f0ccccd
CONST	SEGMENT
__real@3f0ccccd DD 03f0ccccdr			; 0.55
CONST	ENDS
;	COMDAT __real@3f0a3d71
CONST	SEGMENT
__real@3f0a3d71 DD 03f0a3d71r			; 0.54
CONST	ENDS
;	COMDAT __real@3f066666
CONST	SEGMENT
__real@3f066666 DD 03f066666r			; 0.525
CONST	ENDS
;	COMDAT __real@3f051eb8
CONST	SEGMENT
__real@3f051eb8 DD 03f051eb8r			; 0.52
CONST	ENDS
;	COMDAT __real@3f000000
CONST	SEGMENT
__real@3f000000 DD 03f000000r			; 0.5
CONST	ENDS
;	COMDAT __real@3ef5c28f
CONST	SEGMENT
__real@3ef5c28f DD 03ef5c28fr			; 0.48
CONST	ENDS
;	COMDAT __real@3ee66666
CONST	SEGMENT
__real@3ee66666 DD 03ee66666r			; 0.45
CONST	ENDS
;	COMDAT __real@3ecccccd
CONST	SEGMENT
__real@3ecccccd DD 03ecccccdr			; 0.4
CONST	ENDS
;	COMDAT __real@3ec7ae14
CONST	SEGMENT
__real@3ec7ae14 DD 03ec7ae14r			; 0.39
CONST	ENDS
;	COMDAT __real@3ec28f5c
CONST	SEGMENT
__real@3ec28f5c DD 03ec28f5cr			; 0.38
CONST	ENDS
;	COMDAT __real@3eb33333
CONST	SEGMENT
__real@3eb33333 DD 03eb33333r			; 0.35
CONST	ENDS
;	COMDAT __real@3ea3d70a
CONST	SEGMENT
__real@3ea3d70a DD 03ea3d70ar			; 0.32
CONST	ENDS
;	COMDAT __real@3e9b22d1
CONST	SEGMENT
__real@3e9b22d1 DD 03e9b22d1r			; 0.303
CONST	ENDS
;	COMDAT __real@3e99999a
CONST	SEGMENT
__real@3e99999a DD 03e99999ar			; 0.3
CONST	ENDS
;	COMDAT __real@3e800000
CONST	SEGMENT
__real@3e800000 DD 03e800000r			; 0.25
CONST	ENDS
;	COMDAT __real@3e75c28f
CONST	SEGMENT
__real@3e75c28f DD 03e75c28fr			; 0.24
CONST	ENDS
;	COMDAT __real@3e666666
CONST	SEGMENT
__real@3e666666 DD 03e666666r			; 0.225
CONST	ENDS
;	COMDAT __real@3e6147ae
CONST	SEGMENT
__real@3e6147ae DD 03e6147aer			; 0.22
CONST	ENDS
;	COMDAT __real@3e4ccccd
CONST	SEGMENT
__real@3e4ccccd DD 03e4ccccdr			; 0.2
CONST	ENDS
;	COMDAT __real@3e333333
CONST	SEGMENT
__real@3e333333 DD 03e333333r			; 0.175
CONST	ENDS
;	COMDAT __real@3e23d70a
CONST	SEGMENT
__real@3e23d70a DD 03e23d70ar			; 0.16
CONST	ENDS
;	COMDAT __real@3e19999a
CONST	SEGMENT
__real@3e19999a DD 03e19999ar			; 0.15
CONST	ENDS
;	COMDAT __real@3df5c28f
CONST	SEGMENT
__real@3df5c28f DD 03df5c28fr			; 0.12
CONST	ENDS
;	COMDAT __real@3dcccccd
CONST	SEGMENT
__real@3dcccccd DD 03dcccccdr			; 0.1
CONST	ENDS
;	COMDAT __real@3da3d70a
CONST	SEGMENT
__real@3da3d70a DD 03da3d70ar			; 0.08
CONST	ENDS
;	COMDAT __real@3d8f5c29
CONST	SEGMENT
__real@3d8f5c29 DD 03d8f5c29r			; 0.07
CONST	ENDS
;	COMDAT __real@3d4ccccd
CONST	SEGMENT
__real@3d4ccccd DD 03d4ccccdr			; 0.05
CONST	ENDS
;	COMDAT __real@3d45f7fb
CONST	SEGMENT
__real@3d45f7fb DD 03d45f7fbr			; 0.0483322
CONST	ENDS
;	COMDAT __real@3d23d70a
CONST	SEGMENT
__real@3d23d70a DD 03d23d70ar			; 0.04
CONST	ENDS
;	COMDAT __real@3d1374bc
CONST	SEGMENT
__real@3d1374bc DD 03d1374bcr			; 0.036
CONST	ENDS
;	COMDAT __real@3ba3d70a
CONST	SEGMENT
__real@3ba3d70a DD 03ba3d70ar			; 0.005
CONST	ENDS
;	COMDAT __real@0000000000000000
CONST	SEGMENT
__real@0000000000000000 DQ 00000000000000000r	; 0
CONST	ENDS
;	COMDAT __real@00000000
CONST	SEGMENT
__real@00000000 DD 000000000r			; 0
CONST	ENDS
;	COMDAT ??_C@_1CK@NDNHPKPI@?$AA?$CC?$AAi?$AAn?$AAv?$AAa?$AAl?$AAi?$AAd?$AA?5?$AAc?$AAo?$AAm?$AAp?$AAa?$AAr@
CONST	SEGMENT
??_C@_1CK@NDNHPKPI@?$AA?$CC?$AAi?$AAn?$AAv?$AAa?$AAl?$AAi?$AAd?$AA?5?$AAc?$AAo?$AAm?$AAp?$AAa?$AAr@ DB '"'
	DB	00H, 'i', 00H, 'n', 00H, 'v', 00H, 'a', 00H, 'l', 00H, 'i', 00H
	DB	'd', 00H, ' ', 00H, 'c', 00H, 'o', 00H, 'm', 00H, 'p', 00H, 'a'
	DB	00H, 'r', 00H, 'a', 00H, 't', 00H, 'o', 00H, 'r', 00H, '"', 00H
	DB	00H, 00H					; `string'
CONST	ENDS
;	COMDAT ??_C@_1BC@ICCOKLEG@?$AAs?$AAt?$AAd?$AA?3?$AA?3?$AAm?$AAa?$AAx@
CONST	SEGMENT
??_C@_1BC@ICCOKLEG@?$AAs?$AAt?$AAd?$AA?3?$AA?3?$AAm?$AAa?$AAx@ DB 's', 00H
	DB	't', 00H, 'd', 00H, ':', 00H, ':', 00H, 'm', 00H, 'a', 00H, 'x'
	DB	00H, 00H, 00H				; `string'
CONST	ENDS
;	COMDAT ??_C@_1NE@FKBPBJEB@?$AAc?$AA?3?$AA?2?$AAp?$AAr?$AAo?$AAg?$AAr?$AAa?$AAm?$AA?5?$AAf?$AAi?$AAl?$AAe@
CONST	SEGMENT
??_C@_1NE@FKBPBJEB@?$AAc?$AA?3?$AA?2?$AAp?$AAr?$AAo?$AAg?$AAr?$AAa?$AAm?$AA?5?$AAf?$AAi?$AAl?$AAe@ DB 'c'
	DB	00H, ':', 00H, '\', 00H, 'p', 00H, 'r', 00H, 'o', 00H, 'g', 00H
	DB	'r', 00H, 'a', 00H, 'm', 00H, ' ', 00H, 'f', 00H, 'i', 00H, 'l'
	DB	00H, 'e', 00H, 's', 00H, ' ', 00H, '(', 00H, 'x', 00H, '8', 00H
	DB	'6', 00H, ')', 00H, '\', 00H, 'm', 00H, 'i', 00H, 'c', 00H, 'r'
	DB	00H, 'o', 00H, 's', 00H, 'o', 00H, 'f', 00H, 't', 00H, ' ', 00H
	DB	'v', 00H, 'i', 00H, 's', 00H, 'u', 00H, 'a', 00H, 'l', 00H, ' '
	DB	00H, 's', 00H, 't', 00H, 'u', 00H, 'd', 00H, 'i', 00H, 'o', 00H
	DB	'\', 00H, '2', 00H, '0', 00H, '1', 00H, '7', 00H, '\', 00H, 'c'
	DB	00H, 'o', 00H, 'm', 00H, 'm', 00H, 'u', 00H, 'n', 00H, 'i', 00H
	DB	't', 00H, 'y', 00H, '\', 00H, 'v', 00H, 'c', 00H, '\', 00H, 't'
	DB	00H, 'o', 00H, 'o', 00H, 'l', 00H, 's', 00H, '\', 00H, 'm', 00H
	DB	's', 00H, 'v', 00H, 'c', 00H, '\', 00H, '1', 00H, '4', 00H, '.'
	DB	00H, '1', 00H, '6', 00H, '.', 00H, '2', 00H, '7', 00H, '0', 00H
	DB	'2', 00H, '3', 00H, '\', 00H, 'i', 00H, 'n', 00H, 'c', 00H, 'l'
	DB	00H, 'u', 00H, 'd', 00H, 'e', 00H, '\', 00H, 'a', 00H, 'l', 00H
	DB	'g', 00H, 'o', 00H, 'r', 00H, 'i', 00H, 't', 00H, 'h', 00H, 'm'
	DB	00H, 00H, 00H				; `string'
CONST	ENDS
;	COMDAT ??_C@_0GK@JMBMHIBC@c?3?2program?5files?5?$CIx86?$CJ?2microsof@
CONST	SEGMENT
??_C@_0GK@JMBMHIBC@c?3?2program?5files?5?$CIx86?$CJ?2microsof@ DB 'c:\pro'
	DB	'gram files (x86)\microsoft visual studio\2017\community\vc\to'
	DB	'ols\msvc\14.16.27023\include\algorithm', 00H ; `string'
CONST	ENDS
;	COMDAT ??_C@_0BD@FEEMDEPI@invalid?5comparator@
CONST	SEGMENT
??_C@_0BD@FEEMDEPI@invalid?5comparator@ DB 'invalid comparator', 00H ; `string'
CONST	ENDS
;	COMDAT ??_C@_01OCOKONAJ@L@
CONST	SEGMENT
??_C@_01OCOKONAJ@L@ DB 'L', 00H				; `string'
CONST	ENDS
;	COMDAT ??_C@_0BO@IMEMIMEA@Invalid?5weapon?5lock?5type?5?$DN?5?$CFd@
CONST	SEGMENT
??_C@_0BO@IMEMIMEA@Invalid?5weapon?5lock?5type?5?$DN?5?$CFd@ DB 'Invalid '
	DB	'weapon lock type = %d', 00H			; `string'
CONST	ENDS
;	COMDAT ??_C@_04GPIFAJG@LOCK@
CONST	SEGMENT
??_C@_04GPIFAJG@LOCK@ DB 'LOCK', 00H			; `string'
CONST	ENDS
;	COMDAT ??_C@_07EPBNJCNI@MAX?5RNG@
CONST	SEGMENT
??_C@_07EPBNJCNI@MAX?5RNG@ DB 'MAX RNG', 00H		; `string'
CONST	ENDS
;	COMDAT ??_C@_07KJHNDNDJ@MIN?5RNG@
CONST	SEGMENT
??_C@_07KJHNDNDJ@MIN?5RNG@ DB 'MIN RNG', 00H		; `string'
CONST	ENDS
;	COMDAT ??_C@_06DLNCBKEB@NO?5SGT@
CONST	SEGMENT
??_C@_06DLNCBKEB@NO?5SGT@ DB 'NO SGT', 00H		; `string'
CONST	ENDS
;	COMDAT ??_C@_06HCPKJKPH@NO?5LOS@
CONST	SEGMENT
??_C@_06HCPKJKPH@NO?5LOS@ DB 'NO LOS', 00H		; `string'
CONST	ENDS
;	COMDAT ??_C@_07PAKIBCIO@SKR?5LMT@
CONST	SEGMENT
??_C@_07PAKIBCIO@SKR?5LMT@ DB 'SKR LMT', 00H		; `string'
CONST	ENDS
;	COMDAT ??_C@_07EMEAKIHK@INV?5TGT@
CONST	SEGMENT
??_C@_07EMEAKIHK@INV?5TGT@ DB 'INV TGT', 00H		; `string'
CONST	ENDS
;	COMDAT ??_C@_06KGAFCCPI@NO?5TGT@
CONST	SEGMENT
??_C@_06KGAFCCPI@NO?5TGT@ DB 'NO TGT', 00H		; `string'
CONST	ENDS
;	COMDAT ??_C@_06BNPEMCDI@NO?5WPN@
CONST	SEGMENT
??_C@_06BNPEMCDI@NO?5WPN@ DB 'NO WPN', 00H		; `string'
CONST	ENDS
;	COMDAT ??_C@_06LLLMNJMM@NO?5ACQ@
CONST	SEGMENT
??_C@_06LLLMNJMM@NO?5ACQ@ DB 'NO ACQ', 00H		; `string'
CONST	ENDS
;	COMDAT ??_C@_05JEFOLKLE@?$CF2?41f@
CONST	SEGMENT
??_C@_05JEFOLKLE@?$CF2?41f@ DB '%2.1f', 00H		; `string'
CONST	ENDS
;	COMDAT ??_C@_06OEKOLKIL@source@
CONST	SEGMENT
??_C@_06OEKOLKIL@source@ DB 'source', 00H		; `string'
CONST	ENDS
;	COMDAT ?__LINE__Var@?0??display_target_information@@YGXXZ@4JA
_DATA	SEGMENT
?__LINE__Var@?0??display_target_information@@YGXXZ@4JA DD 07a1H ; `display_target_information'::`1'::__LINE__Var
_DATA	ENDS
;	COMDAT ??_C@_03BNKHBNLL@RKT@
CONST	SEGMENT
??_C@_03BNKHBNLL@RKT@ DB 'RKT', 00H			; `string'
CONST	ENDS
;	COMDAT ??_C@_03NMPFMOLH@GUN@
CONST	SEGMENT
??_C@_03NMPFMOLH@GUN@ DB 'GUN', 00H			; `string'
CONST	ENDS
;	COMDAT ??_C@_03HPMEOHJD@ATA@
CONST	SEGMENT
??_C@_03HPMEOHJD@ATA@ DB 'ATA', 00H			; `string'
CONST	ENDS
;	COMDAT ??_C@_03IFPDDAOD@MSL@
CONST	SEGMENT
??_C@_03IFPDDAOD@MSL@ DB 'MSL', 00H			; `string'
CONST	ENDS
;	COMDAT ??_C@_06HHKMCLEN@?$CF02?40f@
CONST	SEGMENT
??_C@_06HHKMCLEN@?$CF02?40f@ DB '%02.0f', 00H		; `string'
CONST	ENDS
;	COMDAT ??_C@_08EKOIEIMA@ft?3?5?$CF?41f@
CONST	SEGMENT
??_C@_08EKOIEIMA@ft?3?5?$CF?41f@ DB 'ft: %.1f', 00H	; `string'
CONST	ENDS
;	COMDAT ??_C@_02MLFNJMEO@AP@
CONST	SEGMENT
??_C@_02MLFNJMEO@AP@ DB 'AP', 00H			; `string'
CONST	ENDS
;	COMDAT ??_C@_02PDDJEBNF@HE@
CONST	SEGMENT
??_C@_02PDDJEBNF@HE@ DB 'HE', 00H			; `string'
CONST	ENDS
;	COMDAT ?__LINE__Var@?0??display_weapon_information@@YGXXZ@4JA
_DATA	SEGMENT
?__LINE__Var@?0??display_weapon_information@@YGXXZ@4JA DD 073eH ; `display_weapon_information'::`1'::__LINE__Var
_DATA	ENDS
;	COMDAT ?__LINE__Var@?0??draw_target_marker@@YGXXZ@4JA
_DATA	SEGMENT
?__LINE__Var@?0??draw_target_marker@@YGXXZ@4JA DD 06d6H	; `draw_target_marker'::`1'::__LINE__Var
_DATA	ENDS
;	COMDAT ??_C@_0BD@OBKABCFL@hud_texture_screen@
CONST	SEGMENT
??_C@_0BD@OBKABCFL@hud_texture_screen@ DB 'hud_texture_screen', 00H ; `string'
CONST	ENDS
;	COMDAT ?__LINE__Var@?0??draw_hokum_hud@@YGXXZ@4JA
_DATA	SEGMENT
?__LINE__Var@?0??draw_hokum_hud@@YGXXZ@4JA DD 047aH	; `draw_hokum_hud'::`1'::__LINE__Var
_DATA	ENDS
;	COMDAT ??_C@_06BAOIPBEF@?9?3?9?9?4?9@
CONST	SEGMENT
??_C@_06BAOIPBEF@?9?3?9?9?4?9@ DB '-:--.-', 00H		; `string'
CONST	ENDS
;	COMDAT ??_C@_07GLDGAFOI@?$CFc?3?$CF?41f@
CONST	SEGMENT
??_C@_07GLDGAFOI@?$CFc?3?$CF?41f@ DB '%c:%.1f', 00H	; `string'
CONST	ENDS
;	COMDAT ?__LINE__Var@?0??display_waypoint_information@@YGXXZ@4JA
_DATA	SEGMENT
?__LINE__Var@?0??display_waypoint_information@@YGXXZ@4JA DD 040dH ; `display_waypoint_information'::`1'::__LINE__Var
_DATA	ENDS
;	COMDAT ??_C@_04OCCELDNI@?$CF04d@
CONST	SEGMENT
??_C@_04OCCELDNI@?$CF04d@ DB '%04d', 00H		; `string'
CONST	ENDS
;	COMDAT ??_C@_01DGKLNCNG@R@
CONST	SEGMENT
??_C@_01DGKLNCNG@R@ DB 'R', 00H				; `string'
CONST	ENDS
;	COMDAT ??_C@_02PNFIDHGF@50@
CONST	SEGMENT
??_C@_02PNFIDHGF@50@ DB '50', 00H			; `string'
CONST	ENDS
;	COMDAT ??_C@_02PJNFELNH@30@
CONST	SEGMENT
??_C@_02PJNFELNH@30@ DB '30', 00H			; `string'
CONST	ENDS
;	COMDAT ??_C@_01HIHLOKLC@1@
CONST	SEGMENT
??_C@_01HIHLOKLC@1@ DB '1', 00H				; `string'
CONST	ENDS
;	COMDAT ??_C@_01GBGANLPD@0@
CONST	SEGMENT
??_C@_01GBGANLPD@0@ DB '0', 00H				; `string'
CONST	ENDS
;	COMDAT ??_C@_01EKENIIDA@3@
CONST	SEGMENT
??_C@_01EKENIIDA@3@ DB '3', 00H				; `string'
CONST	ENDS
;	COMDAT ??_C@_01JOAMLHOP@?9@
CONST	SEGMENT
??_C@_01JOAMLHOP@?9@ DB '-', 00H			; `string'
CONST	ENDS
;	COMDAT ??_C@_01MIFGBAGJ@?$CL@
CONST	SEGMENT
??_C@_01MIFGBAGJ@?$CL@ DB '+', 00H			; `string'
CONST	ENDS
;	COMDAT ??_C@_04OHGLKFFN@?$CF03d@
CONST	SEGMENT
??_C@_04OHGLKFFN@?$CF03d@ DB '%03d', 00H		; `string'
CONST	ENDS
;	COMDAT ??_C@_03OCGDPLBD@500@
CONST	SEGMENT
??_C@_03OCGDPLBD@500@ DB '500', 00H			; `string'
CONST	ENDS
;	COMDAT ??_C@_02KPIPOMFB@36@
CONST	SEGMENT
??_C@_02KPIPOMFB@36@ DB '36', 00H			; `string'
CONST	ENDS
;	COMDAT ??_C@_04OGKJMPGK@?$CF02d@
CONST	SEGMENT
??_C@_04OGKJMPGK@?$CF02d@ DB '%02d', 00H		; `string'
CONST	ENDS
;	COMDAT ?__LINE__Var@?0??draw_heading_scale@@YGXXZ@4JA
_DATA	SEGMENT
?__LINE__Var@?0??draw_heading_scale@@YGXXZ@4JA DD 020aH	; `draw_heading_scale'::`1'::__LINE__Var
_DATA	ENDS
;	COMDAT ??_C@_03GPCJOALC@?$CF2d@
CONST	SEGMENT
??_C@_03GPCJOALC@?$CF2d@ DB '%2d', 00H			; `string'
CONST	ENDS
;	COMDAT ?__LINE__Var@?0??draw_pitch_scale@@YGXXZ@4JA
_DATA	SEGMENT
?__LINE__Var@?0??draw_pitch_scale@@YGXXZ@4JA DD 0190H	; `draw_pitch_scale'::`1'::__LINE__Var
_DATA	ENDS
;	COMDAT ??_C@_01CBDEGOCN@j@
CONST	SEGMENT
??_C@_01CBDEGOCN@j@ DB 'j', 00H				; `string'
CONST	ENDS
;	COMDAT ??_C@_01KBJDNOO@i@
CONST	SEGMENT
??_C@_01KBJDNOO@i@ DB 'i', 00H				; `string'
CONST	ENDS
;	COMDAT ?__LINE__Var@?0??transform_hud_screen_co_ords_to_hud_texture_co_ords@@YGXPAM0@Z@4JA
_DATA	SEGMENT
?__LINE__Var@?0??transform_hud_screen_co_ords_to_hud_texture_co_ords@@YGXPAM0@Z@4JA DD 0168H ; `transform_hud_screen_co_ords_to_hud_texture_co_ords'::`1'::__LINE__Var
_DATA	ENDS
;	COMDAT ??_C@_01EANLCPLP@y@
CONST	SEGMENT
??_C@_01EANLCPLP@y@ DB 'y', 00H				; `string'
CONST	ENDS
;	COMDAT ??_C@_01FJMABOPO@x@
CONST	SEGMENT
??_C@_01FJMABOPO@x@ DB 'x', 00H				; `string'
CONST	ENDS
;	COMDAT ??_C@_0EN@DGOLIDKD@c?3?2users?2nhv90?2projects?2eech?2ap@
CONST	SEGMENT
??_C@_0EN@DGOLIDKD@c?3?2users?2nhv90?2projects?2eech?2ap@ DB 'c:\users\nh'
	DB	'v90\projects\eech\aphavoc\source\gunships\avionics\hokum\hk_h'
	DB	'ud.c', 00H					; `string'
CONST	ENDS
;	COMDAT ?__LINE__Var@?0??clip_2d_point_to_hud_extent@@YGXPAM0@Z@4JA
_DATA	SEGMENT
?__LINE__Var@?0??clip_2d_point_to_hud_extent@@YGXPAM0@Z@4JA DD 013fH ; `clip_2d_point_to_hud_extent'::`1'::__LINE__Var
_DATA	ENDS
_DATA	SEGMENT
?large_hud_command_heading_carat@@3PADA DB 0bH		; large_hud_command_heading_carat
	DB	06H
	DB	0fbH
	DB	00H
	DB	00H
	DB	00H
	DB	00H
	DB	00H
	DB	00H
	DB	01H
	DB	00H
	DB	00H
	DB	00H
	DB	00H
	DB	00H
	DB	00H
	DB	00H
	DB	00H
	DB	00H
	DB	01H
	DB	01H
	DB	01H
	DB	00H
	DB	00H
	DB	00H
	DB	00H
	DB	00H
	DB	00H
	DB	00H
	DB	01H
	DB	01H
	DB	00H
	DB	01H
	DB	01H
	DB	00H
	DB	00H
	DB	00H
	DB	00H
	DB	00H
	DB	01H
	DB	01H
	DB	00H
	DB	00H
	DB	00H
	DB	01H
	DB	01H
	DB	00H
	DB	00H
	DB	00H
	DB	01H
	DB	01H
	DB	00H
	DB	00H
	DB	00H
	DB	00H
	DB	00H
	DB	01H
	DB	01H
	DB	00H
	DB	01H
	DB	01H
	DB	00H
	DB	00H
	DB	00H
	DB	00H
	DB	00H
	DB	00H
	DB	00H
	DB	01H
	DB	01H
	ORG $+2
?large_hud_heading_carat@@3PADA DB 0bH			; large_hud_heading_carat
	DB	06H
	DB	0fbH
	DB	00H
	DB	00H
	DB	00H
	DB	00H
	DB	00H
	DB	00H
	DB	01H
	DB	00H
	DB	00H
	DB	00H
	DB	00H
	DB	00H
	DB	00H
	DB	00H
	DB	00H
	DB	00H
	DB	01H
	DB	01H
	DB	01H
	DB	00H
	DB	00H
	DB	00H
	DB	00H
	DB	00H
	DB	00H
	DB	00H
	DB	01H
	DB	01H
	DB	01H
	DB	01H
	DB	01H
	DB	00H
	DB	00H
	DB	00H
	DB	00H
	DB	00H
	DB	01H
	DB	01H
	DB	01H
	DB	01H
	DB	01H
	DB	01H
	DB	01H
	DB	00H
	DB	00H
	DB	00H
	DB	01H
	DB	01H
	DB	01H
	DB	01H
	DB	01H
	DB	01H
	DB	01H
	DB	01H
	DB	01H
	DB	00H
	DB	01H
	DB	01H
	DB	01H
	DB	01H
	DB	01H
	DB	01H
	DB	01H
	DB	01H
	DB	01H
	DB	01H
	DB	01H
	ORG $+2
?large_right_carat@@3PADA DB 05H			; large_right_carat
	DB	09H
	DB	0fcH
	DB	0fcH
	DB	01H
	DB	00H
	DB	00H
	DB	00H
	DB	00H
	DB	01H
	DB	01H
	DB	00H
	DB	00H
	DB	00H
	DB	01H
	DB	01H
	DB	01H
	DB	00H
	DB	00H
	DB	01H
	DB	01H
	DB	01H
	DB	01H
	DB	00H
	DB	01H
	DB	01H
	DB	01H
	DB	01H
	DB	01H
	DB	01H
	DB	01H
	DB	01H
	DB	01H
	DB	00H
	DB	01H
	DB	01H
	DB	01H
	DB	00H
	DB	00H
	DB	01H
	DB	01H
	DB	00H
	DB	00H
	DB	00H
	DB	01H
	DB	00H
	DB	00H
	DB	00H
	DB	00H
	ORG $+3
?large_left_carat@@3PADA DB 05H				; large_left_carat
	DB	09H
	DB	00H
	DB	0fcH
	DB	00H
	DB	00H
	DB	00H
	DB	00H
	DB	01H
	DB	00H
	DB	00H
	DB	00H
	DB	01H
	DB	01H
	DB	00H
	DB	00H
	DB	01H
	DB	01H
	DB	01H
	DB	00H
	DB	01H
	DB	01H
	DB	01H
	DB	01H
	DB	01H
	DB	01H
	DB	01H
	DB	01H
	DB	01H
	DB	00H
	DB	01H
	DB	01H
	DB	01H
	DB	01H
	DB	00H
	DB	00H
	DB	01H
	DB	01H
	DB	01H
	DB	00H
	DB	00H
	DB	00H
	DB	01H
	DB	01H
	DB	00H
	DB	00H
	DB	00H
	DB	00H
	DB	01H
	ORG $+3
?small_right_carat@@3PADA DB 03H			; small_right_carat
	DB	05H
	DB	0feH
	DB	0feH
	DB	01H
	DB	00H
	DB	00H
	DB	01H
	DB	01H
	DB	00H
	DB	01H
	DB	01H
	DB	01H
	DB	01H
	DB	01H
	DB	00H
	DB	01H
	DB	00H
	DB	00H
	ORG $+1
?small_left_carat@@3PADA DB 03H				; small_left_carat
	DB	05H
	DB	00H
	DB	0feH
	DB	00H
	DB	00H
	DB	01H
	DB	00H
	DB	01H
	DB	01H
	DB	01H
	DB	01H
	DB	01H
	DB	00H
	DB	01H
	DB	01H
	DB	00H
	DB	00H
	DB	01H
	ORG $+1
?small_hud_heading_carat@@3PADA DB 05H			; small_hud_heading_carat
	DB	03H
	DB	0feH
	DB	00H
	DB	00H
	DB	00H
	DB	01H
	DB	00H
	DB	00H
	DB	00H
	DB	01H
	DB	01H
	DB	01H
	DB	00H
	DB	01H
	DB	01H
	DB	01H
	DB	01H
	DB	01H
	ORG $+1
?small_hud_command_heading_carat@@3PADA DB 05H		; small_hud_command_heading_carat
	DB	03H
	DB	0feH
	DB	00H
	DB	00H
	DB	00H
	DB	01H
	DB	00H
	DB	00H
	DB	00H
	DB	01H
	DB	00H
	DB	01H
	DB	00H
	DB	01H
	DB	00H
	DB	00H
	DB	00H
	DB	01H
_DATA	ENDS
;	COMDAT ??_C@_02DKCKIIND@?$CFs@
CONST	SEGMENT
??_C@_02DKCKIIND@?$CFs@ DB '%s', 00H			; `string'
CONST	ENDS
; Function compile flags: /Odtp /ZI
; File c:\program files (x86)\microsoft visual studio\2017\community\vc\tools\msvc\14.16.27023\include\algorithm
;	COMDAT ??$max@M@std@@YGABMABM0@Z
_TEXT	SEGMENT
__Left$ = 8						; size = 4
__Right$ = 12						; size = 4
??$max@M@std@@YGABMABM0@Z PROC				; std::max<float>, COMDAT

; 5387 : 	{	// return larger of _Left and _Right

  00000	55		 push	 ebp
  00001	8b ec		 mov	 ebp, esp
  00003	83 ec 40	 sub	 esp, 64			; 00000040H
  00006	53		 push	 ebx
  00007	56		 push	 esi
  00008	57		 push	 edi

; 5388 : 	if (_Left < _Right)

  00009	8b 45 0c	 mov	 eax, DWORD PTR __Right$[ebp]
  0000c	8b 4d 08	 mov	 ecx, DWORD PTR __Left$[ebp]
  0000f	f3 0f 10 00	 movss	 xmm0, DWORD PTR [eax]
  00013	0f 2f 01	 comiss	 xmm0, DWORD PTR [ecx]
  00016	76 64		 jbe	 SHORT $LN8@max
$LN4@max:

; 5389 : 		{
; 5390 : 		_STL_ASSERT(!(_Right < _Left), "invalid comparator");

  00018	8b 45 08	 mov	 eax, DWORD PTR __Left$[ebp]
  0001b	8b 4d 0c	 mov	 ecx, DWORD PTR __Right$[ebp]
  0001e	f3 0f 10 00	 movss	 xmm0, DWORD PTR [eax]
  00022	0f 2f 01	 comiss	 xmm0, DWORD PTR [ecx]
  00025	77 02		 ja	 SHORT $LN9@max
  00027	eb 4a		 jmp	 SHORT $LN6@max
$LN9@max:
  00029	68 00 00 00 00	 push	 OFFSET ??_C@_0BD@FEEMDEPI@invalid?5comparator@
  0002e	68 00 00 00 00	 push	 OFFSET ??_C@_02DKCKIIND@?$CFs@
  00033	6a 00		 push	 0
  00035	68 0e 15 00 00	 push	 5390			; 0000150eH
  0003a	68 00 00 00 00	 push	 OFFSET ??_C@_0GK@JMBMHIBC@c?3?2program?5files?5?$CIx86?$CJ?2microsof@
  0003f	6a 02		 push	 2
  00041	ff 15 00 00 00
	00		 call	 DWORD PTR __imp___CrtDbgReport
  00047	83 c4 18	 add	 esp, 24			; 00000018H
  0004a	83 f8 01	 cmp	 eax, 1
  0004d	75 01		 jne	 SHORT $LN12@max
  0004f	cc		 int	 3
$LN12@max:
  00050	6a 00		 push	 0
  00052	68 0e 15 00 00	 push	 5390			; 0000150eH
  00057	68 00 00 00 00	 push	 OFFSET ??_C@_1NE@FKBPBJEB@?$AAc?$AA?3?$AA?2?$AAp?$AAr?$AAo?$AAg?$AAr?$AAa?$AAm?$AA?5?$AAf?$AAi?$AAl?$AAe@
  0005c	68 00 00 00 00	 push	 OFFSET ??_C@_1BC@ICCOKLEG@?$AAs?$AAt?$AAd?$AA?3?$AA?3?$AAm?$AAa?$AAx@
  00061	68 00 00 00 00	 push	 OFFSET ??_C@_1CK@NDNHPKPI@?$AA?$CC?$AAi?$AAn?$AAv?$AAa?$AAl?$AAi?$AAd?$AA?5?$AAc?$AAo?$AAm?$AAp?$AAa?$AAr@
  00066	ff 15 00 00 00
	00		 call	 DWORD PTR __imp___invalid_parameter
  0006c	83 c4 14	 add	 esp, 20			; 00000014H
  0006f	33 c0		 xor	 eax, eax
  00071	75 b6		 jne	 SHORT $LN9@max
$LN6@max:
  00073	33 c0		 xor	 eax, eax
  00075	75 a1		 jne	 SHORT $LN4@max

; 5391 : 		return (_Right);

  00077	8b 45 0c	 mov	 eax, DWORD PTR __Right$[ebp]
  0007a	eb 03		 jmp	 SHORT $LN1@max
$LN8@max:

; 5392 : 		}
; 5393 : 
; 5394 : 	return (_Left);

  0007c	8b 45 08	 mov	 eax, DWORD PTR __Left$[ebp]
$LN1@max:

; 5395 : 	}

  0007f	5f		 pop	 edi
  00080	5e		 pop	 esi
  00081	5b		 pop	 ebx
  00082	8b e5		 mov	 esp, ebp
  00084	5d		 pop	 ebp
  00085	c2 08 00	 ret	 8
??$max@M@std@@YGABMABM0@Z ENDP				; std::max<float>
_TEXT	ENDS
; Function compile flags: /Odtp /ZI
; File c:\users\nhv90\projects\eech\aphavoc\source\gunships\avionics\hokum\hk_hud.c
;	COMDAT ?draw_target_marker@@YGXXZ
_TEXT	SEGMENT
tv192 = -144						; size = 4
tv158 = -144						; size = 4
tv132 = -144						; size = 4
tv78 = -144						; size = 4
tv184 = -140						; size = 4
tv150 = -140						; size = 4
tv92 = -140						; size = 4
tv70 = -140						; size = 4
_tracking_point$1 = -72					; size = 4
_intercept_point$ = -68					; size = 12
_target_position$ = -56					; size = 12
_source_position$ = -44					; size = 4
_target$ = -40						; size = 4
_source$ = -36						; size = 4
_target_range$ = -32					; size = 4
_y$ = -28						; size = 4
_x$ = -24						; size = 4
_j$ = -20						; size = 4
_i$ = -16						; size = 4
_visibility$ = -12					; size = 4
_selected_weapon_type$ = -8				; size = 4
_airborne_target$ = -4					; size = 4
?draw_target_marker@@YGXXZ PROC				; draw_target_marker, COMDAT

; 1750 : {

  00000	55		 push	 ebp
  00001	8b ec		 mov	 ebp, esp
  00003	81 ec 90 00 00
	00		 sub	 esp, 144		; 00000090H
  00009	53		 push	 ebx
  0000a	56		 push	 esi
  0000b	57		 push	 edi

; 1751 : 	int
; 1752 : 		airborne_target = FALSE;

  0000c	c7 45 fc 00 00
	00 00		 mov	 DWORD PTR _airborne_target$[ebp], 0

; 1753 : 
; 1754 : 	entity_sub_types
; 1755 : 		selected_weapon_type;
; 1756 : 
; 1757 : 	object_3d_visibility
; 1758 : 		visibility;
; 1759 : 
; 1760 : 	float
; 1761 : 		i,
; 1762 : 		j,
; 1763 : 		x,
; 1764 : 		y,
; 1765 : 		target_range;
; 1766 : 
; 1767 : 	entity
; 1768 : 		*source,
; 1769 : 		*target;
; 1770 : 
; 1771 : 	vec3d
; 1772 : 		*source_position,
; 1773 : 		target_position,
; 1774 : 		intercept_point;
; 1775 : 
; 1776 : 	source = get_gunship_entity ();

  00013	a1 00 00 00 00	 mov	 eax, DWORD PTR ?gunship_entity@@3PAUENTITY@@A ; gunship_entity
  00018	89 45 dc	 mov	 DWORD PTR _source$[ebp], eax

; 1777 : 
; 1778 : 	selected_weapon_type = get_local_entity_int_value (source, INT_TYPE_SELECTED_WEAPON);

  0001b	83 7d dc 00	 cmp	 DWORD PTR _source$[ebp], 0
  0001f	74 0d		 je	 SHORT $LN15@draw_targe
  00021	8b 45 dc	 mov	 eax, DWORD PTR _source$[ebp]
  00024	8b 08		 mov	 ecx, DWORD PTR [eax]
  00026	89 8d 74 ff ff
	ff		 mov	 DWORD PTR tv70[ebp], ecx
  0002c	eb 24		 jmp	 SHORT $LN16@draw_targe
$LN15@draw_targe:
  0002e	8b 15 00 00 00
	00		 mov	 edx, DWORD PTR ?__LINE__Var@?0??draw_target_marker@@YGXXZ@4JA
  00034	83 c2 1c	 add	 edx, 28			; 0000001cH
  00037	52		 push	 edx
  00038	68 00 00 00 00	 push	 OFFSET ??_C@_0EN@DGOLIDKD@c?3?2users?2nhv90?2projects?2eech?2ap@
  0003d	a1 00 00 00 00	 mov	 eax, DWORD PTR ?null_entity_pointer_message@@3PBDB ; null_entity_pointer_message
  00042	50		 push	 eax
  00043	e8 00 00 00 00	 call	 ?process_assert@@YGXPBD0H@Z ; process_assert
  00048	c7 85 74 ff ff
	ff 00 00 00 00	 mov	 DWORD PTR tv70[ebp], 0
$LN16@draw_targe:
  00052	b9 01 00 00 00	 mov	 ecx, 1
  00057	85 c9		 test	 ecx, ecx
  00059	74 0c		 je	 SHORT $LN17@draw_targe
  0005b	c7 85 70 ff ff
	ff b8 00 00 00	 mov	 DWORD PTR tv78[ebp], 184 ; 000000b8H
  00065	eb 24		 jmp	 SHORT $LN18@draw_targe
$LN17@draw_targe:
  00067	8b 15 00 00 00
	00		 mov	 edx, DWORD PTR ?__LINE__Var@?0??draw_target_marker@@YGXXZ@4JA
  0006d	83 c2 1c	 add	 edx, 28			; 0000001cH
  00070	52		 push	 edx
  00071	68 00 00 00 00	 push	 OFFSET ??_C@_0EN@DGOLIDKD@c?3?2users?2nhv90?2projects?2eech?2ap@
  00076	a1 00 00 00 00	 mov	 eax, DWORD PTR ?overload_invalid_int_type_message@@3PBDB ; overload_invalid_int_type_message
  0007b	50		 push	 eax
  0007c	e8 00 00 00 00	 call	 ?process_assert@@YGXPBD0H@Z ; process_assert
  00081	c7 85 70 ff ff
	ff 00 00 00 00	 mov	 DWORD PTR tv78[ebp], 0
$LN18@draw_targe:
  0008b	68 b8 00 00 00	 push	 184			; 000000b8H
  00090	8b 4d dc	 mov	 ecx, DWORD PTR _source$[ebp]
  00093	51		 push	 ecx
  00094	69 95 74 ff ff
	ff 5c 04 00 00	 imul	 edx, DWORD PTR tv70[ebp], 1116
  0009e	8b 85 70 ff ff
	ff		 mov	 eax, DWORD PTR tv78[ebp]
  000a4	8b 8c 82 00 00
	00 00		 mov	 ecx, DWORD PTR ?fn_get_local_entity_int_value@@3PAY0BBH@P6GHPAUENTITY@@W4INT_TYPES@@@ZA[edx+eax*4]
  000ab	ff d1		 call	 ecx
  000ad	89 45 f8	 mov	 DWORD PTR _selected_weapon_type$[ebp], eax

; 1779 : 
; 1780 : 	if (selected_weapon_type != ENTITY_SUB_TYPE_WEAPON_NO_WEAPON)

  000b0	83 7d f8 00	 cmp	 DWORD PTR _selected_weapon_type$[ebp], 0
  000b4	0f 84 0d 04 00
	00		 je	 $LN12@draw_targe

; 1781 : 	{
; 1782 : 		vec3d* tracking_point = get_eo_tracking_point();

  000ba	e8 00 00 00 00	 call	 ?get_eo_tracking_point@@YGPAUVEC3D@@XZ ; get_eo_tracking_point
  000bf	89 45 b8	 mov	 DWORD PTR _tracking_point$1[ebp], eax

; 1783 : 		target = get_local_entity_parent (source, LIST_TYPE_TARGET);

  000c2	83 7d dc 00	 cmp	 DWORD PTR _source$[ebp], 0
  000c6	74 0d		 je	 SHORT $LN19@draw_targe
  000c8	8b 45 dc	 mov	 eax, DWORD PTR _source$[ebp]
  000cb	8b 08		 mov	 ecx, DWORD PTR [eax]
  000cd	89 8d 74 ff ff
	ff		 mov	 DWORD PTR tv92[ebp], ecx
  000d3	eb 24		 jmp	 SHORT $LN20@draw_targe
$LN19@draw_targe:
  000d5	8b 15 00 00 00
	00		 mov	 edx, DWORD PTR ?__LINE__Var@?0??draw_target_marker@@YGXXZ@4JA
  000db	83 c2 21	 add	 edx, 33			; 00000021H
  000de	52		 push	 edx
  000df	68 00 00 00 00	 push	 OFFSET ??_C@_0EN@DGOLIDKD@c?3?2users?2nhv90?2projects?2eech?2ap@
  000e4	a1 00 00 00 00	 mov	 eax, DWORD PTR ?null_entity_pointer_message@@3PBDB ; null_entity_pointer_message
  000e9	50		 push	 eax
  000ea	e8 00 00 00 00	 call	 ?process_assert@@YGXPBD0H@Z ; process_assert
  000ef	c7 85 74 ff ff
	ff 00 00 00 00	 mov	 DWORD PTR tv92[ebp], 0
$LN20@draw_targe:
  000f9	b9 01 00 00 00	 mov	 ecx, 1
  000fe	85 c9		 test	 ecx, ecx
  00100	74 0c		 je	 SHORT $LN21@draw_targe
  00102	c7 85 70 ff ff
	ff 26 00 00 00	 mov	 DWORD PTR tv132[ebp], 38 ; 00000026H
  0010c	eb 24		 jmp	 SHORT $LN22@draw_targe
$LN21@draw_targe:
  0010e	8b 15 00 00 00
	00		 mov	 edx, DWORD PTR ?__LINE__Var@?0??draw_target_marker@@YGXXZ@4JA
  00114	83 c2 21	 add	 edx, 33			; 00000021H
  00117	52		 push	 edx
  00118	68 00 00 00 00	 push	 OFFSET ??_C@_0EN@DGOLIDKD@c?3?2users?2nhv90?2projects?2eech?2ap@
  0011d	a1 00 00 00 00	 mov	 eax, DWORD PTR ?overload_invalid_list_type_message@@3PBDB ; overload_invalid_list_type_message
  00122	50		 push	 eax
  00123	e8 00 00 00 00	 call	 ?process_assert@@YGXPBD0H@Z ; process_assert
  00128	c7 85 70 ff ff
	ff 00 00 00 00	 mov	 DWORD PTR tv132[ebp], 0
$LN22@draw_targe:
  00132	6a 26		 push	 38			; 00000026H
  00134	8b 4d dc	 mov	 ecx, DWORD PTR _source$[ebp]
  00137	51		 push	 ecx
  00138	69 95 74 ff ff
	ff b4 00 00 00	 imul	 edx, DWORD PTR tv92[ebp], 180
  00142	8b 85 70 ff ff
	ff		 mov	 eax, DWORD PTR tv132[ebp]
  00148	8b 8c 82 00 00
	00 00		 mov	 ecx, DWORD PTR ?fn_get_local_entity_parent@@3PAY0CN@P6GPAUENTITY@@PAU1@W4LIST_TYPES@@@ZA[edx+eax*4]
  0014f	ff d1		 call	 ecx
  00151	89 45 d8	 mov	 DWORD PTR _target$[ebp], eax

; 1784 : 
; 1785 : 		if (target || tracking_point)

  00154	83 7d d8 00	 cmp	 DWORD PTR _target$[ebp], 0
  00158	75 0a		 jne	 SHORT $LN4@draw_targe
  0015a	83 7d b8 00	 cmp	 DWORD PTR _tracking_point$1[ebp], 0
  0015e	0f 84 63 03 00
	00		 je	 $LN12@draw_targe
$LN4@draw_targe:

; 1786 : 		{
; 1787 : 			if (tracking_point)

  00164	83 7d b8 00	 cmp	 DWORD PTR _tracking_point$1[ebp], 0
  00168	74 19		 je	 SHORT $LN5@draw_targe

; 1788 : 				target_position = *tracking_point;

  0016a	8b 45 b8	 mov	 eax, DWORD PTR _tracking_point$1[ebp]
  0016d	8b 08		 mov	 ecx, DWORD PTR [eax]
  0016f	89 4d c8	 mov	 DWORD PTR _target_position$[ebp], ecx
  00172	8b 50 04	 mov	 edx, DWORD PTR [eax+4]
  00175	89 55 cc	 mov	 DWORD PTR _target_position$[ebp+4], edx
  00178	8b 40 08	 mov	 eax, DWORD PTR [eax+8]
  0017b	89 45 d0	 mov	 DWORD PTR _target_position$[ebp+8], eax

; 1789 : 			else

  0017e	e9 9f 00 00 00	 jmp	 $LN6@draw_targe
$LN5@draw_targe:

; 1790 : 			{
; 1791 : 				get_local_entity_target_point (target, &target_position);

  00183	8d 45 c8	 lea	 eax, DWORD PTR _target_position$[ebp]
  00186	50		 push	 eax
  00187	8b 4d d8	 mov	 ecx, DWORD PTR _target$[ebp]
  0018a	51		 push	 ecx
  0018b	e8 00 00 00 00	 call	 ?get_local_entity_target_point@@YGXPAUENTITY@@PAUVEC3D@@@Z ; get_local_entity_target_point

; 1792 : 				airborne_target = get_local_entity_int_value (target, INT_TYPE_AIRBORNE_AIRCRAFT);

  00190	83 7d d8 00	 cmp	 DWORD PTR _target$[ebp], 0
  00194	74 0d		 je	 SHORT $LN23@draw_targe
  00196	8b 45 d8	 mov	 eax, DWORD PTR _target$[ebp]
  00199	8b 08		 mov	 ecx, DWORD PTR [eax]
  0019b	89 8d 74 ff ff
	ff		 mov	 DWORD PTR tv150[ebp], ecx
  001a1	eb 24		 jmp	 SHORT $LN24@draw_targe
$LN23@draw_targe:
  001a3	8b 15 00 00 00
	00		 mov	 edx, DWORD PTR ?__LINE__Var@?0??draw_target_marker@@YGXXZ@4JA
  001a9	83 c2 2a	 add	 edx, 42			; 0000002aH
  001ac	52		 push	 edx
  001ad	68 00 00 00 00	 push	 OFFSET ??_C@_0EN@DGOLIDKD@c?3?2users?2nhv90?2projects?2eech?2ap@
  001b2	a1 00 00 00 00	 mov	 eax, DWORD PTR ?null_entity_pointer_message@@3PBDB ; null_entity_pointer_message
  001b7	50		 push	 eax
  001b8	e8 00 00 00 00	 call	 ?process_assert@@YGXPBD0H@Z ; process_assert
  001bd	c7 85 74 ff ff
	ff 00 00 00 00	 mov	 DWORD PTR tv150[ebp], 0
$LN24@draw_targe:
  001c7	b9 01 00 00 00	 mov	 ecx, 1
  001cc	85 c9		 test	 ecx, ecx
  001ce	74 0c		 je	 SHORT $LN25@draw_targe
  001d0	c7 85 70 ff ff
	ff 04 00 00 00	 mov	 DWORD PTR tv158[ebp], 4
  001da	eb 24		 jmp	 SHORT $LN26@draw_targe
$LN25@draw_targe:
  001dc	8b 15 00 00 00
	00		 mov	 edx, DWORD PTR ?__LINE__Var@?0??draw_target_marker@@YGXXZ@4JA
  001e2	83 c2 2a	 add	 edx, 42			; 0000002aH
  001e5	52		 push	 edx
  001e6	68 00 00 00 00	 push	 OFFSET ??_C@_0EN@DGOLIDKD@c?3?2users?2nhv90?2projects?2eech?2ap@
  001eb	a1 00 00 00 00	 mov	 eax, DWORD PTR ?overload_invalid_int_type_message@@3PBDB ; overload_invalid_int_type_message
  001f0	50		 push	 eax
  001f1	e8 00 00 00 00	 call	 ?process_assert@@YGXPBD0H@Z ; process_assert
  001f6	c7 85 70 ff ff
	ff 00 00 00 00	 mov	 DWORD PTR tv158[ebp], 0
$LN26@draw_targe:
  00200	6a 04		 push	 4
  00202	8b 4d d8	 mov	 ecx, DWORD PTR _target$[ebp]
  00205	51		 push	 ecx
  00206	69 95 74 ff ff
	ff 5c 04 00 00	 imul	 edx, DWORD PTR tv150[ebp], 1116
  00210	8b 85 70 ff ff
	ff		 mov	 eax, DWORD PTR tv158[ebp]
  00216	8b 8c 82 00 00
	00 00		 mov	 ecx, DWORD PTR ?fn_get_local_entity_int_value@@3PAY0BBH@P6GHPAUENTITY@@W4INT_TYPES@@@ZA[edx+eax*4]
  0021d	ff d1		 call	 ecx
  0021f	89 45 fc	 mov	 DWORD PTR _airborne_target$[ebp], eax
$LN6@draw_targe:

; 1793 : 			}
; 1794 : 
; 1795 : 			visibility = get_position_3d_screen_coordinates (&target_position, &i, &j);

  00222	8d 45 ec	 lea	 eax, DWORD PTR _j$[ebp]
  00225	50		 push	 eax
  00226	8d 4d f0	 lea	 ecx, DWORD PTR _i$[ebp]
  00229	51		 push	 ecx
  0022a	8d 55 c8	 lea	 edx, DWORD PTR _target_position$[ebp]
  0022d	52		 push	 edx
  0022e	e8 00 00 00 00	 call	 ?get_position_3d_screen_coordinates@@YG?AW4OBJECT_3D_VISIBILITY@@PAUVEC3D@@PAM1@Z ; get_position_3d_screen_coordinates
  00233	89 45 f4	 mov	 DWORD PTR _visibility$[ebp], eax

; 1796 : 
; 1797 : 			if ((visibility == OBJECT_3D_COMPLETELY_VISIBLE) || (visibility == OBJECT_3D_PARTIALLY_VISIBLE))

  00236	83 7d f4 01	 cmp	 DWORD PTR _visibility$[ebp], 1
  0023a	74 0a		 je	 SHORT $LN8@draw_targe
  0023c	83 7d f4 02	 cmp	 DWORD PTR _visibility$[ebp], 2
  00240	0f 85 63 01 00
	00		 jne	 $LN10@draw_targe
$LN8@draw_targe:

; 1798 : 			{
; 1799 : 				transform_hud_screen_co_ords_to_hud_texture_co_ords (&i, &j);

  00246	8d 45 ec	 lea	 eax, DWORD PTR _j$[ebp]
  00249	50		 push	 eax
  0024a	8d 4d f0	 lea	 ecx, DWORD PTR _i$[ebp]
  0024d	51		 push	 ecx
  0024e	e8 00 00 00 00	 call	 ?transform_hud_screen_co_ords_to_hud_texture_co_ords@@YGXPAM0@Z ; transform_hud_screen_co_ords_to_hud_texture_co_ords

; 1800 : 
; 1801 : 				get_2d_world_position (i, j, &x, &y);

  00253	8d 45 e4	 lea	 eax, DWORD PTR _y$[ebp]
  00256	50		 push	 eax
  00257	8d 4d e8	 lea	 ecx, DWORD PTR _x$[ebp]
  0025a	51		 push	 ecx
  0025b	51		 push	 ecx
  0025c	f3 0f 10 45 ec	 movss	 xmm0, DWORD PTR _j$[ebp]
  00261	f3 0f 11 04 24	 movss	 DWORD PTR [esp], xmm0
  00266	51		 push	 ecx
  00267	f3 0f 10 45 f0	 movss	 xmm0, DWORD PTR _i$[ebp]
  0026c	f3 0f 11 04 24	 movss	 DWORD PTR [esp], xmm0
  00271	e8 00 00 00 00	 call	 ?get_2d_world_position@@YGXMMPAM0@Z ; get_2d_world_position

; 1802 : 
; 1803 : 				clip_2d_point_to_hud_extent (&x, &y);

  00276	8d 45 e4	 lea	 eax, DWORD PTR _y$[ebp]
  00279	50		 push	 eax
  0027a	8d 4d e8	 lea	 ecx, DWORD PTR _x$[ebp]
  0027d	51		 push	 ecx
  0027e	e8 00 00 00 00	 call	 ?clip_2d_point_to_hud_extent@@YGXPAM0@Z ; clip_2d_point_to_hud_extent

; 1804 : 
; 1805 : 				source_position = get_local_entity_vec3d_ptr (source, VEC3D_TYPE_POSITION);

  00283	83 7d dc 00	 cmp	 DWORD PTR _source$[ebp], 0
  00287	74 0d		 je	 SHORT $LN27@draw_targe
  00289	8b 45 dc	 mov	 eax, DWORD PTR _source$[ebp]
  0028c	8b 08		 mov	 ecx, DWORD PTR [eax]
  0028e	89 8d 74 ff ff
	ff		 mov	 DWORD PTR tv184[ebp], ecx
  00294	eb 24		 jmp	 SHORT $LN28@draw_targe
$LN27@draw_targe:
  00296	8b 15 00 00 00
	00		 mov	 edx, DWORD PTR ?__LINE__Var@?0??draw_target_marker@@YGXXZ@4JA
  0029c	83 c2 37	 add	 edx, 55			; 00000037H
  0029f	52		 push	 edx
  002a0	68 00 00 00 00	 push	 OFFSET ??_C@_0EN@DGOLIDKD@c?3?2users?2nhv90?2projects?2eech?2ap@
  002a5	a1 00 00 00 00	 mov	 eax, DWORD PTR ?null_entity_pointer_message@@3PBDB ; null_entity_pointer_message
  002aa	50		 push	 eax
  002ab	e8 00 00 00 00	 call	 ?process_assert@@YGXPBD0H@Z ; process_assert
  002b0	c7 85 74 ff ff
	ff 00 00 00 00	 mov	 DWORD PTR tv184[ebp], 0
$LN28@draw_targe:
  002ba	b9 01 00 00 00	 mov	 ecx, 1
  002bf	85 c9		 test	 ecx, ecx
  002c1	74 0c		 je	 SHORT $LN29@draw_targe
  002c3	c7 85 70 ff ff
	ff 08 00 00 00	 mov	 DWORD PTR tv192[ebp], 8
  002cd	eb 24		 jmp	 SHORT $LN30@draw_targe
$LN29@draw_targe:
  002cf	8b 15 00 00 00
	00		 mov	 edx, DWORD PTR ?__LINE__Var@?0??draw_target_marker@@YGXXZ@4JA
  002d5	83 c2 37	 add	 edx, 55			; 00000037H
  002d8	52		 push	 edx
  002d9	68 00 00 00 00	 push	 OFFSET ??_C@_0EN@DGOLIDKD@c?3?2users?2nhv90?2projects?2eech?2ap@
  002de	a1 00 00 00 00	 mov	 eax, DWORD PTR ?overload_invalid_vec3d_type_message@@3PBDB ; overload_invalid_vec3d_type_message
  002e3	50		 push	 eax
  002e4	e8 00 00 00 00	 call	 ?process_assert@@YGXPBD0H@Z ; process_assert
  002e9	c7 85 70 ff ff
	ff 00 00 00 00	 mov	 DWORD PTR tv192[ebp], 0
$LN30@draw_targe:
  002f3	6a 08		 push	 8
  002f5	8b 4d dc	 mov	 ecx, DWORD PTR _source$[ebp]
  002f8	51		 push	 ecx
  002f9	6b 95 74 ff ff
	ff 60		 imul	 edx, DWORD PTR tv184[ebp], 96
  00300	8b 85 70 ff ff
	ff		 mov	 eax, DWORD PTR tv192[ebp]
  00306	8b 8c 82 00 00
	00 00		 mov	 ecx, DWORD PTR ?fn_get_local_entity_vec3d_ptr@@3PAY0BI@P6GPAUVEC3D@@PAUENTITY@@W4VEC3D_TYPES@@@ZA[edx+eax*4]
  0030d	ff d1		 call	 ecx
  0030f	89 45 d4	 mov	 DWORD PTR _source_position$[ebp], eax

; 1806 : 				target_range = get_3d_range (source_position, &target_position);

  00312	8d 45 c8	 lea	 eax, DWORD PTR _target_position$[ebp]
  00315	50		 push	 eax
  00316	8b 4d d4	 mov	 ecx, DWORD PTR _source_position$[ebp]
  00319	51		 push	 ecx
  0031a	e8 00 00 00 00	 call	 ?get_3d_range@@YGMPBUVEC3D@@0@Z ; get_3d_range
  0031f	d9 5d e0	 fstp	 DWORD PTR _target_range$[ebp]

; 1807 : 
; 1808 : 				draw_gun_pipper (x, y, target_range, weapon_database[selected_weapon_type].min_range, weapon_database[selected_weapon_type].max_range);

  00322	69 45 f8 e0 00
	00 00		 imul	 eax, DWORD PTR _selected_weapon_type$[ebp], 224
  00329	51		 push	 ecx
  0032a	f3 0f 10 80 90
	00 00 00	 movss	 xmm0, DWORD PTR ?weapon_database@@3PAUWEAPON_DATA@@A[eax+144]
  00332	f3 0f 11 04 24	 movss	 DWORD PTR [esp], xmm0
  00337	69 4d f8 e0 00
	00 00		 imul	 ecx, DWORD PTR _selected_weapon_type$[ebp], 224
  0033e	51		 push	 ecx
  0033f	f3 0f 10 81 8c
	00 00 00	 movss	 xmm0, DWORD PTR ?weapon_database@@3PAUWEAPON_DATA@@A[ecx+140]
  00347	f3 0f 11 04 24	 movss	 DWORD PTR [esp], xmm0
  0034c	51		 push	 ecx
  0034d	f3 0f 10 45 e0	 movss	 xmm0, DWORD PTR _target_range$[ebp]
  00352	f3 0f 11 04 24	 movss	 DWORD PTR [esp], xmm0
  00357	51		 push	 ecx
  00358	f3 0f 10 45 e4	 movss	 xmm0, DWORD PTR _y$[ebp]
  0035d	f3 0f 11 04 24	 movss	 DWORD PTR [esp], xmm0
  00362	51		 push	 ecx
  00363	f3 0f 10 45 e8	 movss	 xmm0, DWORD PTR _x$[ebp]
  00368	f3 0f 11 04 24	 movss	 DWORD PTR [esp], xmm0
  0036d	e8 00 00 00 00	 call	 ?draw_gun_pipper@@YGXMMMMM@Z ; draw_gun_pipper

; 1809 : 
; 1810 : 				//
; 1811 : 				// if unguided weapon then draw a dot in the target marker centre (except for airborne targets)
; 1812 : 				//
; 1813 : 
; 1814 : 				if (!airborne_target)

  00372	83 7d fc 00	 cmp	 DWORD PTR _airborne_target$[ebp], 0
  00376	75 31		 jne	 SHORT $LN10@draw_targe

; 1815 : 				{
; 1816 : 					if (weapon_database[selected_weapon_type].guidance_type == WEAPON_GUIDANCE_TYPE_NONE)

  00378	69 45 f8 e0 00
	00 00		 imul	 eax, DWORD PTR _selected_weapon_type$[ebp], 224
  0037f	83 b8 18 00 00
	00 00		 cmp	 DWORD PTR ?weapon_database@@3PAUWEAPON_DATA@@A[eax+24], 0
  00386	75 21		 jne	 SHORT $LN10@draw_targe

; 1817 : 					{
; 1818 : 						set_2d_pixel (x, y, hud_colour);

  00388	a1 00 00 00 00	 mov	 eax, DWORD PTR ?hud_colour@@3UREAL_COLOUR@@A ; hud_colour
  0038d	50		 push	 eax
  0038e	51		 push	 ecx
  0038f	f3 0f 10 45 e4	 movss	 xmm0, DWORD PTR _y$[ebp]
  00394	f3 0f 11 04 24	 movss	 DWORD PTR [esp], xmm0
  00399	51		 push	 ecx
  0039a	f3 0f 10 45 e8	 movss	 xmm0, DWORD PTR _x$[ebp]
  0039f	f3 0f 11 04 24	 movss	 DWORD PTR [esp], xmm0
  003a4	e8 00 00 00 00	 call	 ?set_2d_pixel@@YGXMMUREAL_COLOUR@@@Z ; set_2d_pixel
$LN10@draw_targe:

; 1819 : 					}
; 1820 : 				}
; 1821 : 			}
; 1822 : 
; 1823 : 			//
; 1824 : 			// if airborne target then draw the intercept point
; 1825 : 			//
; 1826 : 
; 1827 : 			if (airborne_target)

  003a9	83 7d fc 00	 cmp	 DWORD PTR _airborne_target$[ebp], 0
  003ad	0f 84 14 01 00
	00		 je	 $LN12@draw_targe

; 1828 : 			{
; 1829 : 				get_target_intercept_point (source, target, selected_weapon_type, &intercept_point);

  003b3	8d 45 bc	 lea	 eax, DWORD PTR _intercept_point$[ebp]
  003b6	50		 push	 eax
  003b7	8b 4d f8	 mov	 ecx, DWORD PTR _selected_weapon_type$[ebp]
  003ba	51		 push	 ecx
  003bb	8b 55 d8	 mov	 edx, DWORD PTR _target$[ebp]
  003be	52		 push	 edx
  003bf	8b 45 dc	 mov	 eax, DWORD PTR _source$[ebp]
  003c2	50		 push	 eax
  003c3	e8 00 00 00 00	 call	 ?get_target_intercept_point@@YGXPAUENTITY@@0HPAUVEC3D@@@Z ; get_target_intercept_point

; 1830 : 
; 1831 : 				visibility = get_position_3d_screen_coordinates (&intercept_point, &i, &j);

  003c8	8d 45 ec	 lea	 eax, DWORD PTR _j$[ebp]
  003cb	50		 push	 eax
  003cc	8d 4d f0	 lea	 ecx, DWORD PTR _i$[ebp]
  003cf	51		 push	 ecx
  003d0	8d 55 bc	 lea	 edx, DWORD PTR _intercept_point$[ebp]
  003d3	52		 push	 edx
  003d4	e8 00 00 00 00	 call	 ?get_position_3d_screen_coordinates@@YG?AW4OBJECT_3D_VISIBILITY@@PAUVEC3D@@PAM1@Z ; get_position_3d_screen_coordinates
  003d9	89 45 f4	 mov	 DWORD PTR _visibility$[ebp], eax

; 1832 : 
; 1833 : 				if ((visibility == OBJECT_3D_COMPLETELY_VISIBLE) || (visibility == OBJECT_3D_PARTIALLY_VISIBLE))

  003dc	83 7d f4 01	 cmp	 DWORD PTR _visibility$[ebp], 1
  003e0	74 0a		 je	 SHORT $LN13@draw_targe
  003e2	83 7d f4 02	 cmp	 DWORD PTR _visibility$[ebp], 2
  003e6	0f 85 db 00 00
	00		 jne	 $LN12@draw_targe
$LN13@draw_targe:

; 1834 : 				{
; 1835 : 					transform_hud_screen_co_ords_to_hud_texture_co_ords (&i, &j);

  003ec	8d 45 ec	 lea	 eax, DWORD PTR _j$[ebp]
  003ef	50		 push	 eax
  003f0	8d 4d f0	 lea	 ecx, DWORD PTR _i$[ebp]
  003f3	51		 push	 ecx
  003f4	e8 00 00 00 00	 call	 ?transform_hud_screen_co_ords_to_hud_texture_co_ords@@YGXPAM0@Z ; transform_hud_screen_co_ords_to_hud_texture_co_ords

; 1836 : 
; 1837 : 					get_2d_world_position (i, j, &x, &y);

  003f9	8d 45 e4	 lea	 eax, DWORD PTR _y$[ebp]
  003fc	50		 push	 eax
  003fd	8d 4d e8	 lea	 ecx, DWORD PTR _x$[ebp]
  00400	51		 push	 ecx
  00401	51		 push	 ecx
  00402	f3 0f 10 45 ec	 movss	 xmm0, DWORD PTR _j$[ebp]
  00407	f3 0f 11 04 24	 movss	 DWORD PTR [esp], xmm0
  0040c	51		 push	 ecx
  0040d	f3 0f 10 45 f0	 movss	 xmm0, DWORD PTR _i$[ebp]
  00412	f3 0f 11 04 24	 movss	 DWORD PTR [esp], xmm0
  00417	e8 00 00 00 00	 call	 ?get_2d_world_position@@YGXMMPAM0@Z ; get_2d_world_position

; 1838 : 
; 1839 : 					clip_2d_point_to_hud_extent (&x, &y);

  0041c	8d 45 e4	 lea	 eax, DWORD PTR _y$[ebp]
  0041f	50		 push	 eax
  00420	8d 4d e8	 lea	 ecx, DWORD PTR _x$[ebp]
  00423	51		 push	 ecx
  00424	e8 00 00 00 00	 call	 ?clip_2d_point_to_hud_extent@@YGXPAM0@Z ; clip_2d_point_to_hud_extent

; 1840 : 
; 1841 : 					draw_2d_line (x - 0.05, y, x + 0.05, y, hud_colour);

  00429	a1 00 00 00 00	 mov	 eax, DWORD PTR ?hud_colour@@3UREAL_COLOUR@@A ; hud_colour
  0042e	50		 push	 eax
  0042f	51		 push	 ecx
  00430	f3 0f 10 45 e4	 movss	 xmm0, DWORD PTR _y$[ebp]
  00435	f3 0f 11 04 24	 movss	 DWORD PTR [esp], xmm0
  0043a	f3 0f 5a 45 e8	 cvtss2sd xmm0, DWORD PTR _x$[ebp]
  0043f	f2 0f 58 05 00
	00 00 00	 addsd	 xmm0, QWORD PTR __real@3fa999999999999a
  00447	f2 0f 5a c0	 cvtsd2ss xmm0, xmm0
  0044b	51		 push	 ecx
  0044c	f3 0f 11 04 24	 movss	 DWORD PTR [esp], xmm0
  00451	51		 push	 ecx
  00452	f3 0f 10 45 e4	 movss	 xmm0, DWORD PTR _y$[ebp]
  00457	f3 0f 11 04 24	 movss	 DWORD PTR [esp], xmm0
  0045c	f3 0f 5a 45 e8	 cvtss2sd xmm0, DWORD PTR _x$[ebp]
  00461	f2 0f 5c 05 00
	00 00 00	 subsd	 xmm0, QWORD PTR __real@3fa999999999999a
  00469	f2 0f 5a c0	 cvtsd2ss xmm0, xmm0
  0046d	51		 push	 ecx
  0046e	f3 0f 11 04 24	 movss	 DWORD PTR [esp], xmm0
  00473	e8 00 00 00 00	 call	 ?draw_2d_line@@YGXMMMMUREAL_COLOUR@@@Z ; draw_2d_line

; 1842 : 					draw_2d_line (x, y - 0.05, x, y + 0.05, hud_colour);

  00478	a1 00 00 00 00	 mov	 eax, DWORD PTR ?hud_colour@@3UREAL_COLOUR@@A ; hud_colour
  0047d	50		 push	 eax
  0047e	f3 0f 5a 45 e4	 cvtss2sd xmm0, DWORD PTR _y$[ebp]
  00483	f2 0f 58 05 00
	00 00 00	 addsd	 xmm0, QWORD PTR __real@3fa999999999999a
  0048b	f2 0f 5a c0	 cvtsd2ss xmm0, xmm0
  0048f	51		 push	 ecx
  00490	f3 0f 11 04 24	 movss	 DWORD PTR [esp], xmm0
  00495	51		 push	 ecx
  00496	f3 0f 10 45 e8	 movss	 xmm0, DWORD PTR _x$[ebp]
  0049b	f3 0f 11 04 24	 movss	 DWORD PTR [esp], xmm0
  004a0	f3 0f 5a 45 e4	 cvtss2sd xmm0, DWORD PTR _y$[ebp]
  004a5	f2 0f 5c 05 00
	00 00 00	 subsd	 xmm0, QWORD PTR __real@3fa999999999999a
  004ad	f2 0f 5a c0	 cvtsd2ss xmm0, xmm0
  004b1	51		 push	 ecx
  004b2	f3 0f 11 04 24	 movss	 DWORD PTR [esp], xmm0
  004b7	51		 push	 ecx
  004b8	f3 0f 10 45 e8	 movss	 xmm0, DWORD PTR _x$[ebp]
  004bd	f3 0f 11 04 24	 movss	 DWORD PTR [esp], xmm0
  004c2	e8 00 00 00 00	 call	 ?draw_2d_line@@YGXMMMMUREAL_COLOUR@@@Z ; draw_2d_line
$LN12@draw_targe:

; 1843 : 				}
; 1844 : 			}
; 1845 : 		}
; 1846 : 	}
; 1847 : }

  004c7	5f		 pop	 edi
  004c8	5e		 pop	 esi
  004c9	5b		 pop	 ebx
  004ca	8b e5		 mov	 esp, ebp
  004cc	5d		 pop	 ebp
  004cd	c3		 ret	 0
?draw_target_marker@@YGXXZ ENDP				; draw_target_marker
_TEXT	ENDS
; Function compile flags: /Odtp /ZI
; File c:\users\nhv90\projects\eech\aphavoc\source\gunships\avionics\hokum\hk_hud.c
;	COMDAT ?draw_gun_pipper@@YGXMMMMM@Z
_TEXT	SEGMENT
tv74 = -92						; size = 4
tv75 = -88						; size = 4
_normalised_range$1 = -20				; size = 4
_i_max$2 = -16						; size = 4
_i$3 = -12						; size = 4
_max_range$ = -8					; size = 4
_theta$ = -4						; size = 4
_x$ = 8							; size = 4
_y$ = 12						; size = 4
_range$ = 16						; size = 4
_weapon_min_range$ = 20					; size = 4
_weapon_max_range$ = 24					; size = 4
?draw_gun_pipper@@YGXMMMMM@Z PROC			; draw_gun_pipper, COMDAT

; 1701 : {

  00000	55		 push	 ebp
  00001	8b ec		 mov	 ebp, esp
  00003	83 ec 5c	 sub	 esp, 92			; 0000005cH
  00006	53		 push	 ebx
  00007	56		 push	 esi
  00008	57		 push	 edi

; 1702 : 	float
; 1703 : 		theta,
; 1704 : 		max_range;
; 1705 : 
; 1706 : 	if (weapon_max_range > 5000)

  00009	f3 0f 10 45 18	 movss	 xmm0, DWORD PTR _weapon_max_range$[ebp]
  0000e	0f 2f 05 00 00
	00 00		 comiss	 xmm0, DWORD PTR __real@459c4000
  00015	76 0f		 jbe	 SHORT $LN5@draw_gun_p

; 1707 : 		max_range = 10000;

  00017	f3 0f 10 05 00
	00 00 00	 movss	 xmm0, DWORD PTR __real@461c4000
  0001f	f3 0f 11 45 f8	 movss	 DWORD PTR _max_range$[ebp], xmm0
  00024	eb 2a		 jmp	 SHORT $LN8@draw_gun_p
$LN5@draw_gun_p:

; 1708 : 	else if (weapon_max_range > 2500)

  00026	f3 0f 10 45 18	 movss	 xmm0, DWORD PTR _weapon_max_range$[ebp]
  0002b	0f 2f 05 00 00
	00 00		 comiss	 xmm0, DWORD PTR __real@451c4000
  00032	76 0f		 jbe	 SHORT $LN7@draw_gun_p

; 1709 : 		max_range = 5000;

  00034	f3 0f 10 05 00
	00 00 00	 movss	 xmm0, DWORD PTR __real@459c4000
  0003c	f3 0f 11 45 f8	 movss	 DWORD PTR _max_range$[ebp], xmm0

; 1710 : 	else

  00041	eb 0d		 jmp	 SHORT $LN8@draw_gun_p
$LN7@draw_gun_p:

; 1711 : 		max_range = 2500;

  00043	f3 0f 10 05 00
	00 00 00	 movss	 xmm0, DWORD PTR __real@451c4000
  0004b	f3 0f 11 45 f8	 movss	 DWORD PTR _max_range$[ebp], xmm0
$LN8@draw_gun_p:

; 1712 : 
; 1713 : 	if (get_range_finder() != RANGEFINDER_TRIANGULATION)

  00050	e8 00 00 00 00	 call	 ?get_range_finder@@YG?AW4rangefinding_system@@XZ ; get_range_finder
  00055	83 f8 02	 cmp	 eax, 2
  00058	0f 84 bb 00 00
	00		 je	 $LN3@draw_gun_p

; 1714 : 	{
; 1715 : 		int i, i_max;
; 1716 : 		float normalised_range = range / max_range;

  0005e	f3 0f 10 45 10	 movss	 xmm0, DWORD PTR _range$[ebp]
  00063	f3 0f 5e 45 f8	 divss	 xmm0, DWORD PTR _max_range$[ebp]
  00068	f3 0f 11 45 ec	 movss	 DWORD PTR _normalised_range$1[ebp], xmm0

; 1717 : 	
; 1718 : 		i_max = (int) (normalised_range * NUM_GUN_PIPPER_POINTS);

  0006d	f3 0f 10 45 ec	 movss	 xmm0, DWORD PTR _normalised_range$1[ebp]
  00072	f3 0f 59 05 00
	00 00 00	 mulss	 xmm0, DWORD PTR __real@43020000
  0007a	f3 0f 2c c0	 cvttss2si eax, xmm0
  0007e	89 45 f0	 mov	 DWORD PTR _i_max$2[ebp], eax

; 1719 : 	
; 1720 : 		i_max = bound (i_max, 0, NUM_GUN_PIPPER_POINTS - 1);

  00081	83 7d f0 00	 cmp	 DWORD PTR _i_max$2[ebp], 0
  00085	7d 09		 jge	 SHORT $LN13@draw_gun_p
  00087	c7 45 a8 00 00
	00 00		 mov	 DWORD PTR tv75[ebp], 0
  0008e	eb 1e		 jmp	 SHORT $LN14@draw_gun_p
$LN13@draw_gun_p:
  00090	81 7d f0 81 00
	00 00		 cmp	 DWORD PTR _i_max$2[ebp], 129 ; 00000081H
  00097	7e 09		 jle	 SHORT $LN11@draw_gun_p
  00099	c7 45 a4 81 00
	00 00		 mov	 DWORD PTR tv74[ebp], 129 ; 00000081H
  000a0	eb 06		 jmp	 SHORT $LN12@draw_gun_p
$LN11@draw_gun_p:
  000a2	8b 45 f0	 mov	 eax, DWORD PTR _i_max$2[ebp]
  000a5	89 45 a4	 mov	 DWORD PTR tv74[ebp], eax
$LN12@draw_gun_p:
  000a8	8b 4d a4	 mov	 ecx, DWORD PTR tv74[ebp]
  000ab	89 4d a8	 mov	 DWORD PTR tv75[ebp], ecx
$LN14@draw_gun_p:
  000ae	8b 55 a8	 mov	 edx, DWORD PTR tv75[ebp]
  000b1	89 55 f0	 mov	 DWORD PTR _i_max$2[ebp], edx

; 1721 : 	
; 1722 : 		for (i = 0; i <= i_max; i++)

  000b4	c7 45 f4 00 00
	00 00		 mov	 DWORD PTR _i$3[ebp], 0
  000bb	eb 09		 jmp	 SHORT $LN4@draw_gun_p
$LN2@draw_gun_p:
  000bd	8b 45 f4	 mov	 eax, DWORD PTR _i$3[ebp]
  000c0	83 c0 01	 add	 eax, 1
  000c3	89 45 f4	 mov	 DWORD PTR _i$3[ebp], eax
$LN4@draw_gun_p:
  000c6	8b 45 f4	 mov	 eax, DWORD PTR _i$3[ebp]
  000c9	3b 45 f0	 cmp	 eax, DWORD PTR _i_max$2[ebp]
  000cc	7f 4b		 jg	 SHORT $LN3@draw_gun_p

; 1723 : 		{
; 1724 : 			set_2d_pixel (x + gun_pipper_points[i][0], y + gun_pipper_points[i][1], hud_colour);

  000ce	a1 00 00 00 00	 mov	 eax, DWORD PTR ?hud_colour@@3UREAL_COLOUR@@A ; hud_colour
  000d3	50		 push	 eax
  000d4	b9 04 00 00 00	 mov	 ecx, 4
  000d9	c1 e1 00	 shl	 ecx, 0
  000dc	8b 55 f4	 mov	 edx, DWORD PTR _i$3[ebp]
  000df	f3 0f 10 45 0c	 movss	 xmm0, DWORD PTR _y$[ebp]
  000e4	f3 0f 58 84 d1
	00 00 00 00	 addss	 xmm0, DWORD PTR ?gun_pipper_points@@3PAY01MA[ecx+edx*8]
  000ed	51		 push	 ecx
  000ee	f3 0f 11 04 24	 movss	 DWORD PTR [esp], xmm0
  000f3	b8 04 00 00 00	 mov	 eax, 4
  000f8	6b c8 00	 imul	 ecx, eax, 0
  000fb	8b 55 f4	 mov	 edx, DWORD PTR _i$3[ebp]
  000fe	f3 0f 10 45 08	 movss	 xmm0, DWORD PTR _x$[ebp]
  00103	f3 0f 58 84 d1
	00 00 00 00	 addss	 xmm0, DWORD PTR ?gun_pipper_points@@3PAY01MA[ecx+edx*8]
  0010c	51		 push	 ecx
  0010d	f3 0f 11 04 24	 movss	 DWORD PTR [esp], xmm0
  00112	e8 00 00 00 00	 call	 ?set_2d_pixel@@YGXMMUREAL_COLOUR@@@Z ; set_2d_pixel

; 1725 : 		}

  00117	eb a4		 jmp	 SHORT $LN2@draw_gun_p
$LN3@draw_gun_p:

; 1726 : 	}
; 1727 : 
; 1728 : 	set_2d_instance_position (hud_env, x, y);

  00119	51		 push	 ecx
  0011a	f3 0f 10 45 0c	 movss	 xmm0, DWORD PTR _y$[ebp]
  0011f	f3 0f 11 04 24	 movss	 DWORD PTR [esp], xmm0
  00124	51		 push	 ecx
  00125	f3 0f 10 45 08	 movss	 xmm0, DWORD PTR _x$[ebp]
  0012a	f3 0f 11 04 24	 movss	 DWORD PTR [esp], xmm0
  0012f	a1 00 00 00 00	 mov	 eax, DWORD PTR ?hud_env@@3PAUENV_2D@@A
  00134	50		 push	 eax
  00135	e8 00 00 00 00	 call	 ?set_2d_instance_position@@YGXPAUENV_2D@@MM@Z ; set_2d_instance_position

; 1729 : 
; 1730 : 	draw_2d_line (0.0, 0.15, 0.0, 0.12, hud_colour);

  0013a	a1 00 00 00 00	 mov	 eax, DWORD PTR ?hud_colour@@3UREAL_COLOUR@@A ; hud_colour
  0013f	50		 push	 eax
  00140	51		 push	 ecx
  00141	f3 0f 10 05 00
	00 00 00	 movss	 xmm0, DWORD PTR __real@3df5c28f
  00149	f3 0f 11 04 24	 movss	 DWORD PTR [esp], xmm0
  0014e	51		 push	 ecx
  0014f	0f 57 c0	 xorps	 xmm0, xmm0
  00152	f3 0f 11 04 24	 movss	 DWORD PTR [esp], xmm0
  00157	51		 push	 ecx
  00158	f3 0f 10 05 00
	00 00 00	 movss	 xmm0, DWORD PTR __real@3e19999a
  00160	f3 0f 11 04 24	 movss	 DWORD PTR [esp], xmm0
  00165	51		 push	 ecx
  00166	0f 57 c0	 xorps	 xmm0, xmm0
  00169	f3 0f 11 04 24	 movss	 DWORD PTR [esp], xmm0
  0016e	e8 00 00 00 00	 call	 ?draw_2d_line@@YGXMMMMUREAL_COLOUR@@@Z ; draw_2d_line

; 1731 : 
; 1732 : 	theta = weapon_max_range / max_range * -PI2;

  00173	f3 0f 10 45 18	 movss	 xmm0, DWORD PTR _weapon_max_range$[ebp]
  00178	f3 0f 5e 45 f8	 divss	 xmm0, DWORD PTR _max_range$[ebp]
  0017d	f3 0f 59 05 00
	00 00 00	 mulss	 xmm0, DWORD PTR __real@c0c90fdb
  00185	f3 0f 11 45 fc	 movss	 DWORD PTR _theta$[ebp], xmm0

; 1733 : 	set_2d_instance_rotation (hud_env, theta);

  0018a	51		 push	 ecx
  0018b	f3 0f 10 45 fc	 movss	 xmm0, DWORD PTR _theta$[ebp]
  00190	f3 0f 11 04 24	 movss	 DWORD PTR [esp], xmm0
  00195	a1 00 00 00 00	 mov	 eax, DWORD PTR ?hud_env@@3PAUENV_2D@@A
  0019a	50		 push	 eax
  0019b	e8 00 00 00 00	 call	 ?set_2d_instance_rotation@@YGXPAUENV_2D@@M@Z ; set_2d_instance_rotation

; 1734 : 	draw_2d_line (0.0, 0.15, 0.0, 0.12, hud_colour);

  001a0	a1 00 00 00 00	 mov	 eax, DWORD PTR ?hud_colour@@3UREAL_COLOUR@@A ; hud_colour
  001a5	50		 push	 eax
  001a6	51		 push	 ecx
  001a7	f3 0f 10 05 00
	00 00 00	 movss	 xmm0, DWORD PTR __real@3df5c28f
  001af	f3 0f 11 04 24	 movss	 DWORD PTR [esp], xmm0
  001b4	51		 push	 ecx
  001b5	0f 57 c0	 xorps	 xmm0, xmm0
  001b8	f3 0f 11 04 24	 movss	 DWORD PTR [esp], xmm0
  001bd	51		 push	 ecx
  001be	f3 0f 10 05 00
	00 00 00	 movss	 xmm0, DWORD PTR __real@3e19999a
  001c6	f3 0f 11 04 24	 movss	 DWORD PTR [esp], xmm0
  001cb	51		 push	 ecx
  001cc	0f 57 c0	 xorps	 xmm0, xmm0
  001cf	f3 0f 11 04 24	 movss	 DWORD PTR [esp], xmm0
  001d4	e8 00 00 00 00	 call	 ?draw_2d_line@@YGXMMMMUREAL_COLOUR@@@Z ; draw_2d_line

; 1735 : 
; 1736 : 	theta = weapon_min_range / max_range * -PI2;

  001d9	f3 0f 10 45 14	 movss	 xmm0, DWORD PTR _weapon_min_range$[ebp]
  001de	f3 0f 5e 45 f8	 divss	 xmm0, DWORD PTR _max_range$[ebp]
  001e3	f3 0f 59 05 00
	00 00 00	 mulss	 xmm0, DWORD PTR __real@c0c90fdb
  001eb	f3 0f 11 45 fc	 movss	 DWORD PTR _theta$[ebp], xmm0

; 1737 : 	set_2d_instance_rotation (hud_env, theta);

  001f0	51		 push	 ecx
  001f1	f3 0f 10 45 fc	 movss	 xmm0, DWORD PTR _theta$[ebp]
  001f6	f3 0f 11 04 24	 movss	 DWORD PTR [esp], xmm0
  001fb	a1 00 00 00 00	 mov	 eax, DWORD PTR ?hud_env@@3PAUENV_2D@@A
  00200	50		 push	 eax
  00201	e8 00 00 00 00	 call	 ?set_2d_instance_rotation@@YGXPAUENV_2D@@M@Z ; set_2d_instance_rotation

; 1738 : 	draw_2d_line (0.0, 0.15, 0.0, 0.12, hud_colour);

  00206	a1 00 00 00 00	 mov	 eax, DWORD PTR ?hud_colour@@3UREAL_COLOUR@@A ; hud_colour
  0020b	50		 push	 eax
  0020c	51		 push	 ecx
  0020d	f3 0f 10 05 00
	00 00 00	 movss	 xmm0, DWORD PTR __real@3df5c28f
  00215	f3 0f 11 04 24	 movss	 DWORD PTR [esp], xmm0
  0021a	51		 push	 ecx
  0021b	0f 57 c0	 xorps	 xmm0, xmm0
  0021e	f3 0f 11 04 24	 movss	 DWORD PTR [esp], xmm0
  00223	51		 push	 ecx
  00224	f3 0f 10 05 00
	00 00 00	 movss	 xmm0, DWORD PTR __real@3e19999a
  0022c	f3 0f 11 04 24	 movss	 DWORD PTR [esp], xmm0
  00231	51		 push	 ecx
  00232	0f 57 c0	 xorps	 xmm0, xmm0
  00235	f3 0f 11 04 24	 movss	 DWORD PTR [esp], xmm0
  0023a	e8 00 00 00 00	 call	 ?draw_2d_line@@YGXMMMMUREAL_COLOUR@@@Z ; draw_2d_line

; 1739 : 
; 1740 : 	draw_2d_circle(0.0, 0.0, 0.12, hud_colour);

  0023f	a1 00 00 00 00	 mov	 eax, DWORD PTR ?hud_colour@@3UREAL_COLOUR@@A ; hud_colour
  00244	50		 push	 eax
  00245	51		 push	 ecx
  00246	f3 0f 10 05 00
	00 00 00	 movss	 xmm0, DWORD PTR __real@3df5c28f
  0024e	f3 0f 11 04 24	 movss	 DWORD PTR [esp], xmm0
  00253	51		 push	 ecx
  00254	0f 57 c0	 xorps	 xmm0, xmm0
  00257	f3 0f 11 04 24	 movss	 DWORD PTR [esp], xmm0
  0025c	51		 push	 ecx
  0025d	0f 57 c0	 xorps	 xmm0, xmm0
  00260	f3 0f 11 04 24	 movss	 DWORD PTR [esp], xmm0
  00265	e8 00 00 00 00	 call	 ?draw_2d_circle@@YGXMMMUREAL_COLOUR@@@Z ; draw_2d_circle

; 1741 : 
; 1742 : 	reset_2d_instance (hud_env);

  0026a	a1 00 00 00 00	 mov	 eax, DWORD PTR ?hud_env@@3PAUENV_2D@@A
  0026f	50		 push	 eax
  00270	e8 00 00 00 00	 call	 ?reset_2d_instance@@YGXPAUENV_2D@@@Z ; reset_2d_instance

; 1743 : }

  00275	5f		 pop	 edi
  00276	5e		 pop	 esi
  00277	5b		 pop	 ebx
  00278	8b e5		 mov	 esp, ebp
  0027a	5d		 pop	 ebp
  0027b	c2 14 00	 ret	 20			; 00000014H
?draw_gun_pipper@@YGXMMMMM@Z ENDP			; draw_gun_pipper
_TEXT	ENDS
; Function compile flags: /Odtp /ZI
; File c:\users\nhv90\projects\eech\aphavoc\source\gunships\avionics\hokum\hk_hud.c
;	COMDAT ?draw_hms_centre_datum@@YGXXZ
_TEXT	SEGMENT
?draw_hms_centre_datum@@YGXXZ PROC			; draw_hms_centre_datum, COMDAT

; 1589 : {

  00000	55		 push	 ebp
  00001	8b ec		 mov	 ebp, esp
  00003	83 ec 40	 sub	 esp, 64			; 00000040H
  00006	53		 push	 ebx
  00007	56		 push	 esi
  00008	57		 push	 edi

; 1590 : /*	vec3d
; 1591 : 		*source_position,
; 1592 : 		position;
; 1593 : 
; 1594 : 	object_3d_visibility
; 1595 : 		visibility;
; 1596 : 
; 1597 : 	int
; 1598 : 		angle;
; 1599 : 
; 1600 : 	float
; 1601 : 		i,
; 1602 : 		j,
; 1603 : 		x,
; 1604 : 		y;
; 1605 : 
; 1606 : 	float pitch = get_local_entity_float_value (get_gunship_entity (), FLOAT_TYPE_PITCH);
; 1607 : 
; 1608 : 	source_position = get_local_entity_vec3d_ptr (get_gunship_entity(), VEC3D_TYPE_POSITION);
; 1609 : 	for (angle = -5; angle <= 5; angle++)
; 1610 : 	{
; 1611 : 		float dist = 1000.0;
; 1612 : 		float heading = get_local_entity_float_value (get_gunship_entity (), FLOAT_TYPE_HEADING);
; 1613 : 		rgb_colour c;
; 1614 : 		
; 1615 : 		if (angle == 0)
; 1616 : 			c = sys_col_red;
; 1617 : 		else
; 1618 : 		{
; 1619 : 			c.r = 255;
; 1620 : 			c.g = 255;
; 1621 : 			c.b = 0;
; 1622 : 			c.a = 255;
; 1623 : 		}
; 1624 : 		
; 1625 : 		position.x = source_position->x + dist * sin(heading);
; 1626 : 		position.y = source_position->y + dist * atan(rad(angle) + pitch);
; 1627 : 		position.z = source_position->z + dist * cos(heading);
; 1628 : 	
; 1629 : 		visibility = get_position_3d_screen_coordinates (&position, &i, &j);
; 1630 : 		if ((visibility == OBJECT_3D_COMPLETELY_VISIBLE) || (visibility == OBJECT_3D_PARTIALLY_VISIBLE))
; 1631 : 		{
; 1632 : 			transform_hud_screen_co_ords_to_hud_texture_co_ords (&i, &j);
; 1633 : 			get_2d_world_position (i, j, &x, &y);
; 1634 : //			clip_2d_point_to_hud_extent (&x, &y);
; 1635 : 
; 1636 : 			draw_2d_line(-1.0, y, 1.0, y, c);
; 1637 : 		}
; 1638 : 	}
; 1639 : 	draw_2d_line(x, 1.0, x, -1.0, sys_col_red);
; 1640 : 	*/
; 1641 : 	if (target_acquisition_system == TARGET_ACQUISITION_SYSTEM_HMS)

  00009	83 3d 00 00 00
	00 0a		 cmp	 DWORD PTR ?target_acquisition_system@@3W4TARGET_ACQUISITION_SYSTEMS@@A, 10 ; target_acquisition_system, 0000000aH
  00010	0f 85 50 01 00
	00		 jne	 $LN4@draw_hms_c

; 1642 : 	{
; 1643 : 		draw_2d_circle(0.0, 0.0, 0.3, hud_colour);

  00016	a1 00 00 00 00	 mov	 eax, DWORD PTR ?hud_colour@@3UREAL_COLOUR@@A ; hud_colour
  0001b	50		 push	 eax
  0001c	51		 push	 ecx
  0001d	f3 0f 10 05 00
	00 00 00	 movss	 xmm0, DWORD PTR __real@3e99999a
  00025	f3 0f 11 04 24	 movss	 DWORD PTR [esp], xmm0
  0002a	51		 push	 ecx
  0002b	0f 57 c0	 xorps	 xmm0, xmm0
  0002e	f3 0f 11 04 24	 movss	 DWORD PTR [esp], xmm0
  00033	51		 push	 ecx
  00034	0f 57 c0	 xorps	 xmm0, xmm0
  00037	f3 0f 11 04 24	 movss	 DWORD PTR [esp], xmm0
  0003c	e8 00 00 00 00	 call	 ?draw_2d_circle@@YGXMMMUREAL_COLOUR@@@Z ; draw_2d_circle

; 1644 : 		
; 1645 : 		if (weapon_lock_type != WEAPON_LOCK_NO_TARGET)

  00041	83 3d 00 00 00
	00 02		 cmp	 DWORD PTR ?weapon_lock_type@@3W4WEAPON_LOCK_TYPES@@A, 2 ; weapon_lock_type
  00048	74 2b		 je	 SHORT $LN3@draw_hms_c

; 1646 : 			draw_2d_circle(0.0, 0.0, 0.35, hud_colour);

  0004a	a1 00 00 00 00	 mov	 eax, DWORD PTR ?hud_colour@@3UREAL_COLOUR@@A ; hud_colour
  0004f	50		 push	 eax
  00050	51		 push	 ecx
  00051	f3 0f 10 05 00
	00 00 00	 movss	 xmm0, DWORD PTR __real@3eb33333
  00059	f3 0f 11 04 24	 movss	 DWORD PTR [esp], xmm0
  0005e	51		 push	 ecx
  0005f	0f 57 c0	 xorps	 xmm0, xmm0
  00062	f3 0f 11 04 24	 movss	 DWORD PTR [esp], xmm0
  00067	51		 push	 ecx
  00068	0f 57 c0	 xorps	 xmm0, xmm0
  0006b	f3 0f 11 04 24	 movss	 DWORD PTR [esp], xmm0
  00070	e8 00 00 00 00	 call	 ?draw_2d_circle@@YGXMMMUREAL_COLOUR@@@Z ; draw_2d_circle
$LN3@draw_hms_c:

; 1647 : 		if (weapon_lock_type == WEAPON_LOCK_VALID)

  00075	83 3d 00 00 00
	00 09		 cmp	 DWORD PTR ?weapon_lock_type@@3W4WEAPON_LOCK_TYPES@@A, 9 ; weapon_lock_type
  0007c	0f 85 e4 00 00
	00		 jne	 $LN4@draw_hms_c

; 1648 : 		{
; 1649 : 			draw_2d_line(0.3, 0.0, 0.4, 0.0, hud_colour);	

  00082	a1 00 00 00 00	 mov	 eax, DWORD PTR ?hud_colour@@3UREAL_COLOUR@@A ; hud_colour
  00087	50		 push	 eax
  00088	51		 push	 ecx
  00089	0f 57 c0	 xorps	 xmm0, xmm0
  0008c	f3 0f 11 04 24	 movss	 DWORD PTR [esp], xmm0
  00091	51		 push	 ecx
  00092	f3 0f 10 05 00
	00 00 00	 movss	 xmm0, DWORD PTR __real@3ecccccd
  0009a	f3 0f 11 04 24	 movss	 DWORD PTR [esp], xmm0
  0009f	51		 push	 ecx
  000a0	0f 57 c0	 xorps	 xmm0, xmm0
  000a3	f3 0f 11 04 24	 movss	 DWORD PTR [esp], xmm0
  000a8	51		 push	 ecx
  000a9	f3 0f 10 05 00
	00 00 00	 movss	 xmm0, DWORD PTR __real@3e99999a
  000b1	f3 0f 11 04 24	 movss	 DWORD PTR [esp], xmm0
  000b6	e8 00 00 00 00	 call	 ?draw_2d_line@@YGXMMMMUREAL_COLOUR@@@Z ; draw_2d_line

; 1650 : 			draw_2d_line(0.0, 0.3, 0.0, 0.4, hud_colour);	

  000bb	a1 00 00 00 00	 mov	 eax, DWORD PTR ?hud_colour@@3UREAL_COLOUR@@A ; hud_colour
  000c0	50		 push	 eax
  000c1	51		 push	 ecx
  000c2	f3 0f 10 05 00
	00 00 00	 movss	 xmm0, DWORD PTR __real@3ecccccd
  000ca	f3 0f 11 04 24	 movss	 DWORD PTR [esp], xmm0
  000cf	51		 push	 ecx
  000d0	0f 57 c0	 xorps	 xmm0, xmm0
  000d3	f3 0f 11 04 24	 movss	 DWORD PTR [esp], xmm0
  000d8	51		 push	 ecx
  000d9	f3 0f 10 05 00
	00 00 00	 movss	 xmm0, DWORD PTR __real@3e99999a
  000e1	f3 0f 11 04 24	 movss	 DWORD PTR [esp], xmm0
  000e6	51		 push	 ecx
  000e7	0f 57 c0	 xorps	 xmm0, xmm0
  000ea	f3 0f 11 04 24	 movss	 DWORD PTR [esp], xmm0
  000ef	e8 00 00 00 00	 call	 ?draw_2d_line@@YGXMMMMUREAL_COLOUR@@@Z ; draw_2d_line

; 1651 : 			draw_2d_line(-0.3, 0.0, -0.4, 0.0, hud_colour);	

  000f4	a1 00 00 00 00	 mov	 eax, DWORD PTR ?hud_colour@@3UREAL_COLOUR@@A ; hud_colour
  000f9	50		 push	 eax
  000fa	51		 push	 ecx
  000fb	0f 57 c0	 xorps	 xmm0, xmm0
  000fe	f3 0f 11 04 24	 movss	 DWORD PTR [esp], xmm0
  00103	51		 push	 ecx
  00104	f3 0f 10 05 00
	00 00 00	 movss	 xmm0, DWORD PTR __real@becccccd
  0010c	f3 0f 11 04 24	 movss	 DWORD PTR [esp], xmm0
  00111	51		 push	 ecx
  00112	0f 57 c0	 xorps	 xmm0, xmm0
  00115	f3 0f 11 04 24	 movss	 DWORD PTR [esp], xmm0
  0011a	51		 push	 ecx
  0011b	f3 0f 10 05 00
	00 00 00	 movss	 xmm0, DWORD PTR __real@be99999a
  00123	f3 0f 11 04 24	 movss	 DWORD PTR [esp], xmm0
  00128	e8 00 00 00 00	 call	 ?draw_2d_line@@YGXMMMMUREAL_COLOUR@@@Z ; draw_2d_line

; 1652 : 			draw_2d_line(0.0, -0.3, 0.0, -0.4, hud_colour);	

  0012d	a1 00 00 00 00	 mov	 eax, DWORD PTR ?hud_colour@@3UREAL_COLOUR@@A ; hud_colour
  00132	50		 push	 eax
  00133	51		 push	 ecx
  00134	f3 0f 10 05 00
	00 00 00	 movss	 xmm0, DWORD PTR __real@becccccd
  0013c	f3 0f 11 04 24	 movss	 DWORD PTR [esp], xmm0
  00141	51		 push	 ecx
  00142	0f 57 c0	 xorps	 xmm0, xmm0
  00145	f3 0f 11 04 24	 movss	 DWORD PTR [esp], xmm0
  0014a	51		 push	 ecx
  0014b	f3 0f 10 05 00
	00 00 00	 movss	 xmm0, DWORD PTR __real@be99999a
  00153	f3 0f 11 04 24	 movss	 DWORD PTR [esp], xmm0
  00158	51		 push	 ecx
  00159	0f 57 c0	 xorps	 xmm0, xmm0
  0015c	f3 0f 11 04 24	 movss	 DWORD PTR [esp], xmm0
  00161	e8 00 00 00 00	 call	 ?draw_2d_line@@YGXMMMMUREAL_COLOUR@@@Z ; draw_2d_line
$LN4@draw_hms_c:

; 1653 : 		}
; 1654 : 	}
; 1655 : }

  00166	5f		 pop	 edi
  00167	5e		 pop	 esi
  00168	5b		 pop	 ebx
  00169	8b e5		 mov	 esp, ebp
  0016b	5d		 pop	 ebp
  0016c	c3		 ret	 0
?draw_hms_centre_datum@@YGXXZ ENDP			; draw_hms_centre_datum
_TEXT	ENDS
; Function compile flags: /Odtp /ZI
; File c:\users\nhv90\projects\eech\aphavoc\source\gunships\avionics\hokum\hk_hud.c
;	COMDAT ?draw_basic_hud@@YGXXZ
_TEXT	SEGMENT
?draw_basic_hud@@YGXXZ PROC				; draw_basic_hud, COMDAT

; 1101 : {

  00000	55		 push	 ebp
  00001	8b ec		 mov	 ebp, esp
  00003	83 ec 40	 sub	 esp, 64			; 00000040H
  00006	53		 push	 ebx
  00007	56		 push	 esi
  00008	57		 push	 edi

; 1102 : 	display_altitude();

  00009	e8 00 00 00 00	 call	 ?display_altitude@@YGXXZ ; display_altitude

; 1103 : 	display_vertical_velocity();

  0000e	e8 00 00 00 00	 call	 ?display_vertical_velocity@@YGXXZ ; display_vertical_velocity

; 1104 : 	display_true_airspeed();

  00013	e8 00 00 00 00	 call	 ?display_true_airspeed@@YGXXZ ; display_true_airspeed

; 1105 : 	draw_pitch_scale();

  00018	e8 00 00 00 00	 call	 ?draw_pitch_scale@@YGXXZ ; draw_pitch_scale

; 1106 : }

  0001d	5f		 pop	 edi
  0001e	5e		 pop	 esi
  0001f	5b		 pop	 ebx
  00020	8b e5		 mov	 esp, ebp
  00022	5d		 pop	 ebp
  00023	c3		 ret	 0
?draw_basic_hud@@YGXXZ ENDP				; draw_basic_hud
_TEXT	ENDS
; Function compile flags: /Odtp /ZI
; File c:\users\nhv90\projects\eech\aphavoc\source\gunships\avionics\hokum\hk_hud.c
;	COMDAT ?display_waypoint_information@@YGXXZ
_TEXT	SEGMENT
tv139 = -208						; size = 4
tv81 = -208						; size = 4
tv131 = -204						; size = 4
tv73 = -204						; size = 4
_wp_position$ = -136					; size = 12
_en_position$ = -124					; size = 4
_wp$ = -120						; size = 4
_en$ = -116						; size = 4
_width$ = -112						; size = 4
_flat_range$ = -108					; size = 4
_tag$ = -101						; size = 1
_s$ = -100						; size = 100
?display_waypoint_information@@YGXXZ PROC		; display_waypoint_information, COMDAT

; 1037 : {

  00000	55		 push	 ebp
  00001	8b ec		 mov	 ebp, esp
  00003	81 ec d0 00 00
	00		 sub	 esp, 208		; 000000d0H
  00009	53		 push	 ebx
  0000a	56		 push	 esi
  0000b	57		 push	 edi

; 1038 : 	char
; 1039 : 		s[100],
; 1040 : 		tag;
; 1041 : 
; 1042 : 	float
; 1043 : 		flat_range,
; 1044 : 		width;
; 1045 : 
; 1046 : 	entity
; 1047 : 		*en,
; 1048 : 		*wp;
; 1049 : 
; 1050 : 	vec3d
; 1051 : 		*en_position,
; 1052 : 		wp_position;
; 1053 : 
; 1054 : 	en = get_gunship_entity ();

  0000c	a1 00 00 00 00	 mov	 eax, DWORD PTR ?gunship_entity@@3PAUENTITY@@A ; gunship_entity
  00011	89 45 8c	 mov	 DWORD PTR _en$[ebp], eax

; 1055 : 
; 1056 : 	wp = get_local_entity_current_waypoint (en);

  00014	8b 45 8c	 mov	 eax, DWORD PTR _en$[ebp]
  00017	50		 push	 eax
  00018	e8 00 00 00 00	 call	 ?get_local_entity_current_waypoint@@YGPAUENTITY@@PAU1@@Z ; get_local_entity_current_waypoint
  0001d	89 45 88	 mov	 DWORD PTR _wp$[ebp], eax

; 1057 : 
; 1058 : 	if (wp)

  00020	83 7d 88 00	 cmp	 DWORD PTR _wp$[ebp], 0
  00024	0f 84 18 02 00
	00		 je	 $LN2@display_wa

; 1059 : 	{
; 1060 : 		en_position = get_local_entity_vec3d_ptr (en, VEC3D_TYPE_POSITION);

  0002a	83 7d 8c 00	 cmp	 DWORD PTR _en$[ebp], 0
  0002e	74 0d		 je	 SHORT $LN8@display_wa
  00030	8b 45 8c	 mov	 eax, DWORD PTR _en$[ebp]
  00033	8b 08		 mov	 ecx, DWORD PTR [eax]
  00035	89 8d 34 ff ff
	ff		 mov	 DWORD PTR tv73[ebp], ecx
  0003b	eb 24		 jmp	 SHORT $LN9@display_wa
$LN8@display_wa:
  0003d	8b 15 00 00 00
	00		 mov	 edx, DWORD PTR ?__LINE__Var@?0??display_waypoint_information@@YGXXZ@4JA
  00043	83 c2 17	 add	 edx, 23			; 00000017H
  00046	52		 push	 edx
  00047	68 00 00 00 00	 push	 OFFSET ??_C@_0EN@DGOLIDKD@c?3?2users?2nhv90?2projects?2eech?2ap@
  0004c	a1 00 00 00 00	 mov	 eax, DWORD PTR ?null_entity_pointer_message@@3PBDB ; null_entity_pointer_message
  00051	50		 push	 eax
  00052	e8 00 00 00 00	 call	 ?process_assert@@YGXPBD0H@Z ; process_assert
  00057	c7 85 34 ff ff
	ff 00 00 00 00	 mov	 DWORD PTR tv73[ebp], 0
$LN9@display_wa:
  00061	b9 01 00 00 00	 mov	 ecx, 1
  00066	85 c9		 test	 ecx, ecx
  00068	74 0c		 je	 SHORT $LN10@display_wa
  0006a	c7 85 30 ff ff
	ff 08 00 00 00	 mov	 DWORD PTR tv81[ebp], 8
  00074	eb 24		 jmp	 SHORT $LN11@display_wa
$LN10@display_wa:
  00076	8b 15 00 00 00
	00		 mov	 edx, DWORD PTR ?__LINE__Var@?0??display_waypoint_information@@YGXXZ@4JA
  0007c	83 c2 17	 add	 edx, 23			; 00000017H
  0007f	52		 push	 edx
  00080	68 00 00 00 00	 push	 OFFSET ??_C@_0EN@DGOLIDKD@c?3?2users?2nhv90?2projects?2eech?2ap@
  00085	a1 00 00 00 00	 mov	 eax, DWORD PTR ?overload_invalid_vec3d_type_message@@3PBDB ; overload_invalid_vec3d_type_message
  0008a	50		 push	 eax
  0008b	e8 00 00 00 00	 call	 ?process_assert@@YGXPBD0H@Z ; process_assert
  00090	c7 85 30 ff ff
	ff 00 00 00 00	 mov	 DWORD PTR tv81[ebp], 0
$LN11@display_wa:
  0009a	6a 08		 push	 8
  0009c	8b 4d 8c	 mov	 ecx, DWORD PTR _en$[ebp]
  0009f	51		 push	 ecx
  000a0	6b 95 34 ff ff
	ff 60		 imul	 edx, DWORD PTR tv73[ebp], 96
  000a7	8b 85 30 ff ff
	ff		 mov	 eax, DWORD PTR tv81[ebp]
  000ad	8b 8c 82 00 00
	00 00		 mov	 ecx, DWORD PTR ?fn_get_local_entity_vec3d_ptr@@3PAY0BI@P6GPAUVEC3D@@PAUENTITY@@W4VEC3D_TYPES@@@ZA[edx+eax*4]
  000b4	ff d1		 call	 ecx
  000b6	89 45 84	 mov	 DWORD PTR _en_position$[ebp], eax

; 1061 : 
; 1062 : 		get_waypoint_display_position (en, wp, &wp_position);

  000b9	8d 85 78 ff ff
	ff		 lea	 eax, DWORD PTR _wp_position$[ebp]
  000bf	50		 push	 eax
  000c0	8b 4d 88	 mov	 ecx, DWORD PTR _wp$[ebp]
  000c3	51		 push	 ecx
  000c4	8b 55 8c	 mov	 edx, DWORD PTR _en$[ebp]
  000c7	52		 push	 edx
  000c8	e8 00 00 00 00	 call	 ?get_waypoint_display_position@@YGXPAUENTITY@@0PAUVEC3D@@@Z ; get_waypoint_display_position

; 1063 : 
; 1064 : 		if (!hokum_damage.navigation_computer)

  000cd	a1 00 00 00 00	 mov	 eax, DWORD PTR ?hokum_damage@@3THOKUM_DAMAGE_FLAGS@@A ; hokum_damage
  000d2	c1 e8 09	 shr	 eax, 9
  000d5	83 e0 01	 and	 eax, 1
  000d8	0f 85 d1 00 00
	00		 jne	 $LN3@display_wa

; 1065 : 		{
; 1066 : 			tag = get_local_entity_char_value (wp, CHAR_TYPE_TAG);

  000de	83 7d 88 00	 cmp	 DWORD PTR _wp$[ebp], 0
  000e2	74 0d		 je	 SHORT $LN12@display_wa
  000e4	8b 45 88	 mov	 eax, DWORD PTR _wp$[ebp]
  000e7	8b 08		 mov	 ecx, DWORD PTR [eax]
  000e9	89 8d 34 ff ff
	ff		 mov	 DWORD PTR tv131[ebp], ecx
  000ef	eb 24		 jmp	 SHORT $LN13@display_wa
$LN12@display_wa:
  000f1	8b 15 00 00 00
	00		 mov	 edx, DWORD PTR ?__LINE__Var@?0??display_waypoint_information@@YGXXZ@4JA
  000f7	83 c2 1d	 add	 edx, 29			; 0000001dH
  000fa	52		 push	 edx
  000fb	68 00 00 00 00	 push	 OFFSET ??_C@_0EN@DGOLIDKD@c?3?2users?2nhv90?2projects?2eech?2ap@
  00100	a1 00 00 00 00	 mov	 eax, DWORD PTR ?null_entity_pointer_message@@3PBDB ; null_entity_pointer_message
  00105	50		 push	 eax
  00106	e8 00 00 00 00	 call	 ?process_assert@@YGXPBD0H@Z ; process_assert
  0010b	c7 85 34 ff ff
	ff 00 00 00 00	 mov	 DWORD PTR tv131[ebp], 0
$LN13@display_wa:
  00115	b9 01 00 00 00	 mov	 ecx, 1
  0011a	85 c9		 test	 ecx, ecx
  0011c	74 0c		 je	 SHORT $LN14@display_wa
  0011e	c7 85 30 ff ff
	ff 00 00 00 00	 mov	 DWORD PTR tv139[ebp], 0
  00128	eb 24		 jmp	 SHORT $LN15@display_wa
$LN14@display_wa:
  0012a	8b 15 00 00 00
	00		 mov	 edx, DWORD PTR ?__LINE__Var@?0??display_waypoint_information@@YGXXZ@4JA
  00130	83 c2 1d	 add	 edx, 29			; 0000001dH
  00133	52		 push	 edx
  00134	68 00 00 00 00	 push	 OFFSET ??_C@_0EN@DGOLIDKD@c?3?2users?2nhv90?2projects?2eech?2ap@
  00139	a1 00 00 00 00	 mov	 eax, DWORD PTR ?overload_invalid_char_type_message@@3PBDB ; overload_invalid_char_type_message
  0013e	50		 push	 eax
  0013f	e8 00 00 00 00	 call	 ?process_assert@@YGXPBD0H@Z ; process_assert
  00144	c7 85 30 ff ff
	ff 00 00 00 00	 mov	 DWORD PTR tv139[ebp], 0
$LN15@display_wa:
  0014e	6a 00		 push	 0
  00150	8b 4d 88	 mov	 ecx, DWORD PTR _wp$[ebp]
  00153	51		 push	 ecx
  00154	8b 95 30 ff ff
	ff		 mov	 edx, DWORD PTR tv139[ebp]
  0015a	c1 e2 02	 shl	 edx, 2
  0015d	8b 85 34 ff ff
	ff		 mov	 eax, DWORD PTR tv131[ebp]
  00163	8b 8c c2 00 00
	00 00		 mov	 ecx, DWORD PTR ?fn_get_local_entity_char_value@@3PAY01P6GDPAUENTITY@@W4CHAR_TYPES@@@ZA[edx+eax*8]
  0016a	ff d1		 call	 ecx
  0016c	88 45 9b	 mov	 BYTE PTR _tag$[ebp], al

; 1067 : 
; 1068 : 			flat_range = get_2d_range (en_position, &wp_position);

  0016f	8d 85 78 ff ff
	ff		 lea	 eax, DWORD PTR _wp_position$[ebp]
  00175	50		 push	 eax
  00176	8b 4d 84	 mov	 ecx, DWORD PTR _en_position$[ebp]
  00179	51		 push	 ecx
  0017a	e8 00 00 00 00	 call	 ?get_2d_range@@YGMPBUVEC3D@@0@Z ; get_2d_range
  0017f	d9 5d 94	 fstp	 DWORD PTR _flat_range$[ebp]

; 1069 : 
; 1070 : 			sprintf (s, "%c:%.1f", tag, flat_range * (1.0 / 1000.0));

  00182	f3 0f 5a 45 94	 cvtss2sd xmm0, DWORD PTR _flat_range$[ebp]
  00187	f2 0f 59 05 00
	00 00 00	 mulsd	 xmm0, QWORD PTR __real@3f50624dd2f1a9fc
  0018f	83 ec 08	 sub	 esp, 8
  00192	f2 0f 11 04 24	 movsd	 QWORD PTR [esp], xmm0
  00197	0f b6 45 9b	 movzx	 eax, BYTE PTR _tag$[ebp]
  0019b	50		 push	 eax
  0019c	68 00 00 00 00	 push	 OFFSET ??_C@_07GLDGAFOI@?$CFc?3?$CF?41f@
  001a1	8d 4d 9c	 lea	 ecx, DWORD PTR _s$[ebp]
  001a4	51		 push	 ecx
  001a5	e8 00 00 00 00	 call	 _sprintf
  001aa	83 c4 14	 add	 esp, 20			; 00000014H

; 1071 : 		}
; 1072 : 		else

  001ad	eb 11		 jmp	 SHORT $LN4@display_wa
$LN3@display_wa:

; 1073 : 		{
; 1074 : 			sprintf (s, "-:--.-");

  001af	68 00 00 00 00	 push	 OFFSET ??_C@_06BAOIPBEF@?9?3?9?9?4?9@
  001b4	8d 45 9c	 lea	 eax, DWORD PTR _s$[ebp]
  001b7	50		 push	 eax
  001b8	e8 00 00 00 00	 call	 _sprintf
  001bd	83 c4 08	 add	 esp, 8
$LN4@display_wa:

; 1075 : 		}
; 1076 : 
; 1077 : 		if (draw_large_hud)

  001c0	83 3d 00 00 00
	00 00		 cmp	 DWORD PTR ?draw_large_hud@@3HA, 0
  001c7	74 09		 je	 SHORT $LN5@display_wa

; 1078 : 		{
; 1079 : 			set_mono_font_type (MONO_FONT_TYPE_6X10);

  001c9	6a 04		 push	 4
  001cb	e8 00 00 00 00	 call	 ?set_mono_font_type@@YGXW4MONO_FONT_TYPES@@@Z ; set_mono_font_type

; 1080 : 		}
; 1081 : 		else

  001d0	eb 07		 jmp	 SHORT $LN6@display_wa
$LN5@display_wa:

; 1082 : 		{
; 1083 : 			set_mono_font_type (MONO_FONT_TYPE_6X7);

  001d2	6a 03		 push	 3
  001d4	e8 00 00 00 00	 call	 ?set_mono_font_type@@YGXW4MONO_FONT_TYPES@@@Z ; set_mono_font_type
$LN6@display_wa:

; 1084 : 		}
; 1085 : 
; 1086 : 		set_2d_mono_font_position (0.0, -0.8);

  001d9	51		 push	 ecx
  001da	f3 0f 10 05 00
	00 00 00	 movss	 xmm0, DWORD PTR __real@bf4ccccd
  001e2	f3 0f 11 04 24	 movss	 DWORD PTR [esp], xmm0
  001e7	51		 push	 ecx
  001e8	0f 57 c0	 xorps	 xmm0, xmm0
  001eb	f3 0f 11 04 24	 movss	 DWORD PTR [esp], xmm0
  001f0	e8 00 00 00 00	 call	 ?set_2d_mono_font_position@@YGXMM@Z ; set_2d_mono_font_position

; 1087 : 
; 1088 : 		width = get_mono_font_string_width (s);

  001f5	8d 45 9c	 lea	 eax, DWORD PTR _s$[ebp]
  001f8	50		 push	 eax
  001f9	e8 00 00 00 00	 call	 ?get_mono_font_string_width@@YGMPBD@Z ; get_mono_font_string_width
  001fe	d9 5d 90	 fstp	 DWORD PTR _width$[ebp]

; 1089 : 
; 1090 : 		set_mono_font_rel_position ((-width * 0.5) + 1.0, 0.0);

  00201	51		 push	 ecx
  00202	0f 57 c0	 xorps	 xmm0, xmm0
  00205	f3 0f 11 04 24	 movss	 DWORD PTR [esp], xmm0
  0020a	f3 0f 10 45 90	 movss	 xmm0, DWORD PTR _width$[ebp]
  0020f	0f 57 05 00 00
	00 00		 xorps	 xmm0, DWORD PTR __xmm@80000000800000008000000080000000
  00216	f3 0f 5a c0	 cvtss2sd xmm0, xmm0
  0021a	f2 0f 59 05 00
	00 00 00	 mulsd	 xmm0, QWORD PTR __real@3fe0000000000000
  00222	f2 0f 58 05 00
	00 00 00	 addsd	 xmm0, QWORD PTR __real@3ff0000000000000
  0022a	f2 0f 5a c0	 cvtsd2ss xmm0, xmm0
  0022e	51		 push	 ecx
  0022f	f3 0f 11 04 24	 movss	 DWORD PTR [esp], xmm0
  00234	e8 00 00 00 00	 call	 ?set_mono_font_rel_position@@YGXMM@Z ; set_mono_font_rel_position

; 1091 : 
; 1092 : 		print_mono_font_string (s);

  00239	8d 45 9c	 lea	 eax, DWORD PTR _s$[ebp]
  0023c	50		 push	 eax
  0023d	e8 00 00 00 00	 call	 ?print_mono_font_string@@YGXPBD@Z ; print_mono_font_string
$LN2@display_wa:

; 1093 : 	}
; 1094 : }

  00242	5f		 pop	 edi
  00243	5e		 pop	 esi
  00244	5b		 pop	 ebx
  00245	8b e5		 mov	 esp, ebp
  00247	5d		 pop	 ebp
  00248	c3		 ret	 0
?display_waypoint_information@@YGXXZ ENDP		; display_waypoint_information
_TEXT	ENDS
; Function compile flags: /Odtp /ZI
; File c:\users\nhv90\projects\eech\aphavoc\source\gunships\avionics\hokum\hk_hud.c
;	COMDAT ?display_altitude@@YGXXZ
_TEXT	SEGMENT
_s$ = -24						; size = 20
_altitude$ = -4						; size = 4
?display_altitude@@YGXXZ PROC				; display_altitude, COMDAT

; 986  : {

  00000	55		 push	 ebp
  00001	8b ec		 mov	 ebp, esp
  00003	83 ec 58	 sub	 esp, 88			; 00000058H
  00006	53		 push	 ebx
  00007	56		 push	 esi
  00008	57		 push	 edi

; 987  : 	float altitude = current_flight_dynamics->radar_altitude.value;

  00009	a1 00 00 00 00	 mov	 eax, DWORD PTR ?current_flight_dynamics@@3PAUDYNAMICS_TYPE@@A ; current_flight_dynamics
  0000e	f3 0f 10 80 44
	24 00 00	 movss	 xmm0, DWORD PTR [eax+9284]
  00016	f3 0f 11 45 fc	 movss	 DWORD PTR _altitude$[ebp], xmm0

; 988  : 	char
; 989  : 		s[20];
; 990  : 
; 991  : 	if (altitude < 300.0)

  0001b	f3 0f 5a 45 fc	 cvtss2sd xmm0, DWORD PTR _altitude$[ebp]
  00020	f2 0f 10 0d 00
	00 00 00	 movsd	 xmm1, QWORD PTR __real@4072c00000000000
  00028	66 0f 2f c8	 comisd	 xmm1, xmm0
  0002c	0f 86 a9 00 00
	00		 jbe	 $LN2@display_al

; 992  : 	{
; 993  : 		if (altitude <= 50.0)

  00032	f3 0f 5a 45 fc	 cvtss2sd xmm0, DWORD PTR _altitude$[ebp]
  00037	f2 0f 10 0d 00
	00 00 00	 movsd	 xmm1, QWORD PTR __real@4049000000000000
  0003f	66 0f 2f c8	 comisd	 xmm1, xmm0
  00043	72 10		 jb	 SHORT $LN4@display_al

; 994  : 			draw_altitude_scale(altitude);

  00045	51		 push	 ecx
  00046	f3 0f 10 45 fc	 movss	 xmm0, DWORD PTR _altitude$[ebp]
  0004b	f3 0f 11 04 24	 movss	 DWORD PTR [esp], xmm0
  00050	e8 00 00 00 00	 call	 ?draw_altitude_scale@@YGXM@Z ; draw_altitude_scale
$LN4@display_al:

; 995  : 		
; 996  : 		sprintf (s, "%03d", (int) current_flight_dynamics->radar_altitude.value);

  00055	a1 00 00 00 00	 mov	 eax, DWORD PTR ?current_flight_dynamics@@3PAUDYNAMICS_TYPE@@A ; current_flight_dynamics
  0005a	f3 0f 2c 88 44
	24 00 00	 cvttss2si ecx, DWORD PTR [eax+9284]
  00062	51		 push	 ecx
  00063	68 00 00 00 00	 push	 OFFSET ??_C@_04OHGLKFFN@?$CF03d@
  00068	8d 55 e8	 lea	 edx, DWORD PTR _s$[ebp]
  0006b	52		 push	 edx
  0006c	e8 00 00 00 00	 call	 _sprintf
  00071	83 c4 0c	 add	 esp, 12			; 0000000cH

; 997  : 		
; 998  : 		if (draw_large_hud)

  00074	83 3d 00 00 00
	00 00		 cmp	 DWORD PTR ?draw_large_hud@@3HA, 0
  0007b	74 2a		 je	 SHORT $LN5@display_al

; 999  : 		{
; 1000 : 			set_mono_font_type (MONO_FONT_TYPE_7X12);

  0007d	6a 05		 push	 5
  0007f	e8 00 00 00 00	 call	 ?set_mono_font_type@@YGXW4MONO_FONT_TYPES@@@Z ; set_mono_font_type

; 1001 : 			set_2d_mono_font_position (0.87, 0.95);			

  00084	51		 push	 ecx
  00085	f3 0f 10 05 00
	00 00 00	 movss	 xmm0, DWORD PTR __real@3f733333
  0008d	f3 0f 11 04 24	 movss	 DWORD PTR [esp], xmm0
  00092	51		 push	 ecx
  00093	f3 0f 10 05 00
	00 00 00	 movss	 xmm0, DWORD PTR __real@3f5eb852
  0009b	f3 0f 11 04 24	 movss	 DWORD PTR [esp], xmm0
  000a0	e8 00 00 00 00	 call	 ?set_2d_mono_font_position@@YGXMM@Z ; set_2d_mono_font_position

; 1002 : 		}
; 1003 : 		else

  000a5	eb 28		 jmp	 SHORT $LN6@display_al
$LN5@display_al:

; 1004 : 		{
; 1005 : 			set_mono_font_type (MONO_FONT_TYPE_5X7);

  000a7	6a 01		 push	 1
  000a9	e8 00 00 00 00	 call	 ?set_mono_font_type@@YGXW4MONO_FONT_TYPES@@@Z ; set_mono_font_type

; 1006 : 			set_2d_mono_font_position (0.9, 0.95);

  000ae	51		 push	 ecx
  000af	f3 0f 10 05 00
	00 00 00	 movss	 xmm0, DWORD PTR __real@3f733333
  000b7	f3 0f 11 04 24	 movss	 DWORD PTR [esp], xmm0
  000bc	51		 push	 ecx
  000bd	f3 0f 10 05 00
	00 00 00	 movss	 xmm0, DWORD PTR __real@3f666666
  000c5	f3 0f 11 04 24	 movss	 DWORD PTR [esp], xmm0
  000ca	e8 00 00 00 00	 call	 ?set_2d_mono_font_position@@YGXMM@Z ; set_2d_mono_font_position
$LN6@display_al:

; 1007 : 		}
; 1008 : 
; 1009 : 		print_mono_font_string("R");

  000cf	68 00 00 00 00	 push	 OFFSET ??_C@_01DGKLNCNG@R@
  000d4	e8 00 00 00 00	 call	 ?print_mono_font_string@@YGXPBD@Z ; print_mono_font_string

; 1010 : 	}
; 1011 : 	else

  000d9	eb 36		 jmp	 SHORT $LN3@display_al
$LN2@display_al:

; 1012 : 	{
; 1013 : 		sprintf (s, "%04d", 10 * (((int)(current_flight_dynamics->barometric_altitude.value + 5.0)) / 10));

  000db	a1 00 00 00 00	 mov	 eax, DWORD PTR ?current_flight_dynamics@@3PAUDYNAMICS_TYPE@@A ; current_flight_dynamics
  000e0	f3 0f 5a 80 2c
	24 00 00	 cvtss2sd xmm0, DWORD PTR [eax+9260]
  000e8	f2 0f 58 05 00
	00 00 00	 addsd	 xmm0, QWORD PTR __real@4014000000000000
  000f0	f2 0f 2c c0	 cvttsd2si eax, xmm0
  000f4	99		 cdq
  000f5	b9 0a 00 00 00	 mov	 ecx, 10			; 0000000aH
  000fa	f7 f9		 idiv	 ecx
  000fc	6b d0 0a	 imul	 edx, eax, 10
  000ff	52		 push	 edx
  00100	68 00 00 00 00	 push	 OFFSET ??_C@_04OCCELDNI@?$CF04d@
  00105	8d 45 e8	 lea	 eax, DWORD PTR _s$[ebp]
  00108	50		 push	 eax
  00109	e8 00 00 00 00	 call	 _sprintf
  0010e	83 c4 0c	 add	 esp, 12			; 0000000cH
$LN3@display_al:

; 1014 : 	}
; 1015 : 
; 1016 : 	if (draw_large_hud)

  00111	83 3d 00 00 00
	00 00		 cmp	 DWORD PTR ?draw_large_hud@@3HA, 0
  00118	74 4b		 je	 SHORT $LN7@display_al

; 1017 : 	{
; 1018 : 		set_mono_font_type (MONO_FONT_TYPE_10X16);

  0011a	6a 07		 push	 7
  0011c	e8 00 00 00 00	 call	 ?set_mono_font_type@@YGXW4MONO_FONT_TYPES@@@Z ; set_mono_font_type

; 1019 : 		set_2d_mono_font_position (0.8, 0.95);

  00121	51		 push	 ecx
  00122	f3 0f 10 05 00
	00 00 00	 movss	 xmm0, DWORD PTR __real@3f733333
  0012a	f3 0f 11 04 24	 movss	 DWORD PTR [esp], xmm0
  0012f	51		 push	 ecx
  00130	f3 0f 10 05 00
	00 00 00	 movss	 xmm0, DWORD PTR __real@3f4ccccd
  00138	f3 0f 11 04 24	 movss	 DWORD PTR [esp], xmm0
  0013d	e8 00 00 00 00	 call	 ?set_2d_mono_font_position@@YGXMM@Z ; set_2d_mono_font_position

; 1020 : 		set_mono_font_rel_position (-25.0, -4.0);

  00142	51		 push	 ecx
  00143	f3 0f 10 05 00
	00 00 00	 movss	 xmm0, DWORD PTR __real@c0800000
  0014b	f3 0f 11 04 24	 movss	 DWORD PTR [esp], xmm0
  00150	51		 push	 ecx
  00151	f3 0f 10 05 00
	00 00 00	 movss	 xmm0, DWORD PTR __real@c1c80000
  00159	f3 0f 11 04 24	 movss	 DWORD PTR [esp], xmm0
  0015e	e8 00 00 00 00	 call	 ?set_mono_font_rel_position@@YGXMM@Z ; set_mono_font_rel_position

; 1021 : 	}
; 1022 : 	else

  00163	eb 49		 jmp	 SHORT $LN8@display_al
$LN7@display_al:

; 1023 : 	{
; 1024 : 		set_mono_font_type (MONO_FONT_TYPE_6X10);

  00165	6a 04		 push	 4
  00167	e8 00 00 00 00	 call	 ?set_mono_font_type@@YGXW4MONO_FONT_TYPES@@@Z ; set_mono_font_type

; 1025 : 		set_2d_mono_font_position (0.8, 0.9);

  0016c	51		 push	 ecx
  0016d	f3 0f 10 05 00
	00 00 00	 movss	 xmm0, DWORD PTR __real@3f666666
  00175	f3 0f 11 04 24	 movss	 DWORD PTR [esp], xmm0
  0017a	51		 push	 ecx
  0017b	f3 0f 10 05 00
	00 00 00	 movss	 xmm0, DWORD PTR __real@3f4ccccd
  00183	f3 0f 11 04 24	 movss	 DWORD PTR [esp], xmm0
  00188	e8 00 00 00 00	 call	 ?set_2d_mono_font_position@@YGXMM@Z ; set_2d_mono_font_position

; 1026 : 		set_mono_font_rel_position (-15.0, -5.0);

  0018d	51		 push	 ecx
  0018e	f3 0f 10 05 00
	00 00 00	 movss	 xmm0, DWORD PTR __real@c0a00000
  00196	f3 0f 11 04 24	 movss	 DWORD PTR [esp], xmm0
  0019b	51		 push	 ecx
  0019c	f3 0f 10 05 00
	00 00 00	 movss	 xmm0, DWORD PTR __real@c1700000
  001a4	f3 0f 11 04 24	 movss	 DWORD PTR [esp], xmm0
  001a9	e8 00 00 00 00	 call	 ?set_mono_font_rel_position@@YGXMM@Z ; set_mono_font_rel_position
$LN8@display_al:

; 1027 : 	}
; 1028 : 
; 1029 : 	print_mono_font_string (s);

  001ae	8d 45 e8	 lea	 eax, DWORD PTR _s$[ebp]
  001b1	50		 push	 eax
  001b2	e8 00 00 00 00	 call	 ?print_mono_font_string@@YGXPBD@Z ; print_mono_font_string

; 1030 : }

  001b7	5f		 pop	 edi
  001b8	5e		 pop	 esi
  001b9	5b		 pop	 ebx
  001ba	8b e5		 mov	 esp, ebp
  001bc	5d		 pop	 ebp
  001bd	c3		 ret	 0
?display_altitude@@YGXXZ ENDP				; display_altitude
_TEXT	ENDS
; Function compile flags: /Odtp /ZI
; File c:\users\nhv90\projects\eech\aphavoc\source\gunships\avionics\hokum\hk_hud.c
;	COMDAT ?draw_altitude_scale@@YGXM@Z
_TEXT	SEGMENT
_y_offset$ = -4						; size = 4
_altitude$ = 8						; size = 4
?draw_altitude_scale@@YGXM@Z PROC			; draw_altitude_scale, COMDAT

; 956  : {

  00000	55		 push	 ebp
  00001	8b ec		 mov	 ebp, esp
  00003	83 ec 44	 sub	 esp, 68			; 00000044H
  00006	53		 push	 ebx
  00007	56		 push	 esi
  00008	57		 push	 edi

; 957  : 	float y_offset = altitude * 0.016;

  00009	f3 0f 5a 45 08	 cvtss2sd xmm0, DWORD PTR _altitude$[ebp]
  0000e	f2 0f 59 05 00
	00 00 00	 mulsd	 xmm0, QWORD PTR __real@3f90624dd2f1a9fc
  00016	f2 0f 5a c0	 cvtsd2ss xmm0, xmm0
  0001a	f3 0f 11 45 fc	 movss	 DWORD PTR _y_offset$[ebp], xmm0

; 958  : 	
; 959  : 	draw_2d_line(0.55, 0.0, 0.55, 0.8, hud_colour);

  0001f	a1 00 00 00 00	 mov	 eax, DWORD PTR ?hud_colour@@3UREAL_COLOUR@@A ; hud_colour
  00024	50		 push	 eax
  00025	51		 push	 ecx
  00026	f3 0f 10 05 00
	00 00 00	 movss	 xmm0, DWORD PTR __real@3f4ccccd
  0002e	f3 0f 11 04 24	 movss	 DWORD PTR [esp], xmm0
  00033	51		 push	 ecx
  00034	f3 0f 10 05 00
	00 00 00	 movss	 xmm0, DWORD PTR __real@3f0ccccd
  0003c	f3 0f 11 04 24	 movss	 DWORD PTR [esp], xmm0
  00041	51		 push	 ecx
  00042	0f 57 c0	 xorps	 xmm0, xmm0
  00045	f3 0f 11 04 24	 movss	 DWORD PTR [esp], xmm0
  0004a	51		 push	 ecx
  0004b	f3 0f 10 05 00
	00 00 00	 movss	 xmm0, DWORD PTR __real@3f0ccccd
  00053	f3 0f 11 04 24	 movss	 DWORD PTR [esp], xmm0
  00058	e8 00 00 00 00	 call	 ?draw_2d_line@@YGXMMMMUREAL_COLOUR@@@Z ; draw_2d_line

; 960  : 	
; 961  : 	// the vertical tick marks
; 962  : 	draw_2d_line(0.525, 0.0, 0.575, 0.0, hud_colour);

  0005d	a1 00 00 00 00	 mov	 eax, DWORD PTR ?hud_colour@@3UREAL_COLOUR@@A ; hud_colour
  00062	50		 push	 eax
  00063	51		 push	 ecx
  00064	0f 57 c0	 xorps	 xmm0, xmm0
  00067	f3 0f 11 04 24	 movss	 DWORD PTR [esp], xmm0
  0006c	51		 push	 ecx
  0006d	f3 0f 10 05 00
	00 00 00	 movss	 xmm0, DWORD PTR __real@3f133333
  00075	f3 0f 11 04 24	 movss	 DWORD PTR [esp], xmm0
  0007a	51		 push	 ecx
  0007b	0f 57 c0	 xorps	 xmm0, xmm0
  0007e	f3 0f 11 04 24	 movss	 DWORD PTR [esp], xmm0
  00083	51		 push	 ecx
  00084	f3 0f 10 05 00
	00 00 00	 movss	 xmm0, DWORD PTR __real@3f066666
  0008c	f3 0f 11 04 24	 movss	 DWORD PTR [esp], xmm0
  00091	e8 00 00 00 00	 call	 ?draw_2d_line@@YGXMMMMUREAL_COLOUR@@@Z ; draw_2d_line

; 963  : 	draw_2d_line(0.55, 0.16, 0.575, 0.16, hud_colour);

  00096	a1 00 00 00 00	 mov	 eax, DWORD PTR ?hud_colour@@3UREAL_COLOUR@@A ; hud_colour
  0009b	50		 push	 eax
  0009c	51		 push	 ecx
  0009d	f3 0f 10 05 00
	00 00 00	 movss	 xmm0, DWORD PTR __real@3e23d70a
  000a5	f3 0f 11 04 24	 movss	 DWORD PTR [esp], xmm0
  000aa	51		 push	 ecx
  000ab	f3 0f 10 05 00
	00 00 00	 movss	 xmm0, DWORD PTR __real@3f133333
  000b3	f3 0f 11 04 24	 movss	 DWORD PTR [esp], xmm0
  000b8	51		 push	 ecx
  000b9	f3 0f 10 05 00
	00 00 00	 movss	 xmm0, DWORD PTR __real@3e23d70a
  000c1	f3 0f 11 04 24	 movss	 DWORD PTR [esp], xmm0
  000c6	51		 push	 ecx
  000c7	f3 0f 10 05 00
	00 00 00	 movss	 xmm0, DWORD PTR __real@3f0ccccd
  000cf	f3 0f 11 04 24	 movss	 DWORD PTR [esp], xmm0
  000d4	e8 00 00 00 00	 call	 ?draw_2d_line@@YGXMMMMUREAL_COLOUR@@@Z ; draw_2d_line

; 964  : 	draw_2d_line(0.55, 0.32, 0.575, 0.32, hud_colour);

  000d9	a1 00 00 00 00	 mov	 eax, DWORD PTR ?hud_colour@@3UREAL_COLOUR@@A ; hud_colour
  000de	50		 push	 eax
  000df	51		 push	 ecx
  000e0	f3 0f 10 05 00
	00 00 00	 movss	 xmm0, DWORD PTR __real@3ea3d70a
  000e8	f3 0f 11 04 24	 movss	 DWORD PTR [esp], xmm0
  000ed	51		 push	 ecx
  000ee	f3 0f 10 05 00
	00 00 00	 movss	 xmm0, DWORD PTR __real@3f133333
  000f6	f3 0f 11 04 24	 movss	 DWORD PTR [esp], xmm0
  000fb	51		 push	 ecx
  000fc	f3 0f 10 05 00
	00 00 00	 movss	 xmm0, DWORD PTR __real@3ea3d70a
  00104	f3 0f 11 04 24	 movss	 DWORD PTR [esp], xmm0
  00109	51		 push	 ecx
  0010a	f3 0f 10 05 00
	00 00 00	 movss	 xmm0, DWORD PTR __real@3f0ccccd
  00112	f3 0f 11 04 24	 movss	 DWORD PTR [esp], xmm0
  00117	e8 00 00 00 00	 call	 ?draw_2d_line@@YGXMMMMUREAL_COLOUR@@@Z ; draw_2d_line

; 965  : 	draw_2d_line(0.55, 0.48, 0.575, 0.48, hud_colour);

  0011c	a1 00 00 00 00	 mov	 eax, DWORD PTR ?hud_colour@@3UREAL_COLOUR@@A ; hud_colour
  00121	50		 push	 eax
  00122	51		 push	 ecx
  00123	f3 0f 10 05 00
	00 00 00	 movss	 xmm0, DWORD PTR __real@3ef5c28f
  0012b	f3 0f 11 04 24	 movss	 DWORD PTR [esp], xmm0
  00130	51		 push	 ecx
  00131	f3 0f 10 05 00
	00 00 00	 movss	 xmm0, DWORD PTR __real@3f133333
  00139	f3 0f 11 04 24	 movss	 DWORD PTR [esp], xmm0
  0013e	51		 push	 ecx
  0013f	f3 0f 10 05 00
	00 00 00	 movss	 xmm0, DWORD PTR __real@3ef5c28f
  00147	f3 0f 11 04 24	 movss	 DWORD PTR [esp], xmm0
  0014c	51		 push	 ecx
  0014d	f3 0f 10 05 00
	00 00 00	 movss	 xmm0, DWORD PTR __real@3f0ccccd
  00155	f3 0f 11 04 24	 movss	 DWORD PTR [esp], xmm0
  0015a	e8 00 00 00 00	 call	 ?draw_2d_line@@YGXMMMMUREAL_COLOUR@@@Z ; draw_2d_line

; 966  : 	draw_2d_line(0.55, 0.64, 0.575, 0.64, hud_colour);

  0015f	a1 00 00 00 00	 mov	 eax, DWORD PTR ?hud_colour@@3UREAL_COLOUR@@A ; hud_colour
  00164	50		 push	 eax
  00165	51		 push	 ecx
  00166	f3 0f 10 05 00
	00 00 00	 movss	 xmm0, DWORD PTR __real@3f23d70a
  0016e	f3 0f 11 04 24	 movss	 DWORD PTR [esp], xmm0
  00173	51		 push	 ecx
  00174	f3 0f 10 05 00
	00 00 00	 movss	 xmm0, DWORD PTR __real@3f133333
  0017c	f3 0f 11 04 24	 movss	 DWORD PTR [esp], xmm0
  00181	51		 push	 ecx
  00182	f3 0f 10 05 00
	00 00 00	 movss	 xmm0, DWORD PTR __real@3f23d70a
  0018a	f3 0f 11 04 24	 movss	 DWORD PTR [esp], xmm0
  0018f	51		 push	 ecx
  00190	f3 0f 10 05 00
	00 00 00	 movss	 xmm0, DWORD PTR __real@3f0ccccd
  00198	f3 0f 11 04 24	 movss	 DWORD PTR [esp], xmm0
  0019d	e8 00 00 00 00	 call	 ?draw_2d_line@@YGXMMMMUREAL_COLOUR@@@Z ; draw_2d_line

; 967  : 	draw_2d_line(0.55, 0.80, 0.575, 0.80, hud_colour);

  001a2	a1 00 00 00 00	 mov	 eax, DWORD PTR ?hud_colour@@3UREAL_COLOUR@@A ; hud_colour
  001a7	50		 push	 eax
  001a8	51		 push	 ecx
  001a9	f3 0f 10 05 00
	00 00 00	 movss	 xmm0, DWORD PTR __real@3f4ccccd
  001b1	f3 0f 11 04 24	 movss	 DWORD PTR [esp], xmm0
  001b6	51		 push	 ecx
  001b7	f3 0f 10 05 00
	00 00 00	 movss	 xmm0, DWORD PTR __real@3f133333
  001bf	f3 0f 11 04 24	 movss	 DWORD PTR [esp], xmm0
  001c4	51		 push	 ecx
  001c5	f3 0f 10 05 00
	00 00 00	 movss	 xmm0, DWORD PTR __real@3f4ccccd
  001cd	f3 0f 11 04 24	 movss	 DWORD PTR [esp], xmm0
  001d2	51		 push	 ecx
  001d3	f3 0f 10 05 00
	00 00 00	 movss	 xmm0, DWORD PTR __real@3f0ccccd
  001db	f3 0f 11 04 24	 movss	 DWORD PTR [esp], xmm0
  001e0	e8 00 00 00 00	 call	 ?draw_2d_line@@YGXMMMMUREAL_COLOUR@@@Z ; draw_2d_line

; 968  : 	
; 969  : 	if (draw_large_hud)

  001e5	83 3d 00 00 00
	00 00		 cmp	 DWORD PTR ?draw_large_hud@@3HA, 0
  001ec	74 09		 je	 SHORT $LN2@draw_altit

; 970  : 		set_mono_font_type(MONO_FONT_TYPE_6X10);

  001ee	6a 04		 push	 4
  001f0	e8 00 00 00 00	 call	 ?set_mono_font_type@@YGXW4MONO_FONT_TYPES@@@Z ; set_mono_font_type

; 971  : 	else

  001f5	eb 07		 jmp	 SHORT $LN3@draw_altit
$LN2@draw_altit:

; 972  : 		set_mono_font_type(MONO_FONT_TYPE_5X7);

  001f7	6a 01		 push	 1
  001f9	e8 00 00 00 00	 call	 ?set_mono_font_type@@YGXW4MONO_FONT_TYPES@@@Z ; set_mono_font_type
$LN3@draw_altit:

; 973  : 
; 974  : 	set_2d_mono_font_position(0.6, 0.8);

  001fe	51		 push	 ecx
  001ff	f3 0f 10 05 00
	00 00 00	 movss	 xmm0, DWORD PTR __real@3f4ccccd
  00207	f3 0f 11 04 24	 movss	 DWORD PTR [esp], xmm0
  0020c	51		 push	 ecx
  0020d	f3 0f 10 05 00
	00 00 00	 movss	 xmm0, DWORD PTR __real@3f19999a
  00215	f3 0f 11 04 24	 movss	 DWORD PTR [esp], xmm0
  0021a	e8 00 00 00 00	 call	 ?set_2d_mono_font_position@@YGXMM@Z ; set_2d_mono_font_position

; 975  : 	set_mono_font_rel_position (0.0, -2.0);

  0021f	51		 push	 ecx
  00220	f3 0f 10 05 00
	00 00 00	 movss	 xmm0, DWORD PTR __real@c0000000
  00228	f3 0f 11 04 24	 movss	 DWORD PTR [esp], xmm0
  0022d	51		 push	 ecx
  0022e	0f 57 c0	 xorps	 xmm0, xmm0
  00231	f3 0f 11 04 24	 movss	 DWORD PTR [esp], xmm0
  00236	e8 00 00 00 00	 call	 ?set_mono_font_rel_position@@YGXMM@Z ; set_mono_font_rel_position

; 976  : 
; 977  : 	print_mono_font_string("50");

  0023b	68 00 00 00 00	 push	 OFFSET ??_C@_02PNFIDHGF@50@
  00240	e8 00 00 00 00	 call	 ?print_mono_font_string@@YGXPBD@Z ; print_mono_font_string

; 978  : 	
; 979  : 	if (draw_large_hud)

  00245	83 3d 00 00 00
	00 00		 cmp	 DWORD PTR ?draw_large_hud@@3HA, 0
  0024c	74 2b		 je	 SHORT $LN4@draw_altit

; 980  : 		draw_2d_mono_sprite(large_right_carat, 0.55, y_offset, hud_colour);

  0024e	a1 00 00 00 00	 mov	 eax, DWORD PTR ?hud_colour@@3UREAL_COLOUR@@A ; hud_colour
  00253	50		 push	 eax
  00254	51		 push	 ecx
  00255	f3 0f 10 45 fc	 movss	 xmm0, DWORD PTR _y_offset$[ebp]
  0025a	f3 0f 11 04 24	 movss	 DWORD PTR [esp], xmm0
  0025f	51		 push	 ecx
  00260	f3 0f 10 05 00
	00 00 00	 movss	 xmm0, DWORD PTR __real@3f0ccccd
  00268	f3 0f 11 04 24	 movss	 DWORD PTR [esp], xmm0
  0026d	68 00 00 00 00	 push	 OFFSET ?large_right_carat@@3PADA
  00272	e8 00 00 00 00	 call	 ?draw_2d_mono_sprite@@YGXPBDMMUREAL_COLOUR@@@Z ; draw_2d_mono_sprite

; 981  : 	else

  00277	eb 29		 jmp	 SHORT $LN5@draw_altit
$LN4@draw_altit:

; 982  : 		draw_2d_mono_sprite(small_right_carat, 0.55, y_offset, hud_colour);

  00279	a1 00 00 00 00	 mov	 eax, DWORD PTR ?hud_colour@@3UREAL_COLOUR@@A ; hud_colour
  0027e	50		 push	 eax
  0027f	51		 push	 ecx
  00280	f3 0f 10 45 fc	 movss	 xmm0, DWORD PTR _y_offset$[ebp]
  00285	f3 0f 11 04 24	 movss	 DWORD PTR [esp], xmm0
  0028a	51		 push	 ecx
  0028b	f3 0f 10 05 00
	00 00 00	 movss	 xmm0, DWORD PTR __real@3f0ccccd
  00293	f3 0f 11 04 24	 movss	 DWORD PTR [esp], xmm0
  00298	68 00 00 00 00	 push	 OFFSET ?small_right_carat@@3PADA
  0029d	e8 00 00 00 00	 call	 ?draw_2d_mono_sprite@@YGXPBDMMUREAL_COLOUR@@@Z ; draw_2d_mono_sprite
$LN5@draw_altit:

; 983  : }

  002a2	5f		 pop	 edi
  002a3	5e		 pop	 esi
  002a4	5b		 pop	 ebx
  002a5	8b e5		 mov	 esp, ebp
  002a7	5d		 pop	 ebp
  002a8	c2 04 00	 ret	 4
?draw_altitude_scale@@YGXM@Z ENDP			; draw_altitude_scale
_TEXT	ENDS
; Function compile flags: /Odtp /ZI
; File c:\users\nhv90\projects\eech\aphavoc\source\gunships\avionics\hokum\hk_hud.c
;	COMDAT ?display_vertical_velocity@@YGXXZ
_TEXT	SEGMENT
tv210 = -108						; size = 8
tv197 = -108						; size = 8
tv211 = -100						; size = 8
tv198 = -100						; size = 8
_y_offset$1 = -28					; size = 4
_vv$ = -24						; size = 4
_s$ = -20						; size = 20
?display_vertical_velocity@@YGXXZ PROC			; display_vertical_velocity, COMDAT

; 874  : {

  00000	55		 push	 ebp
  00001	8b ec		 mov	 ebp, esp
  00003	83 ec 6c	 sub	 esp, 108		; 0000006cH
  00006	53		 push	 ebx
  00007	56		 push	 esi
  00008	57		 push	 edi

; 875  : 	char s[20];
; 876  : 	float vv = kilometres_per_hour(current_flight_dynamics->world_velocity_y.value);

  00009	a1 00 00 00 00	 mov	 eax, DWORD PTR ?current_flight_dynamics@@3PAUDYNAMICS_TYPE@@A ; current_flight_dynamics
  0000e	f3 0f 10 80 14
	21 00 00	 movss	 xmm0, DWORD PTR [eax+8468]
  00016	f3 0f 59 05 00
	00 00 00	 mulss	 xmm0, DWORD PTR __real@40666666
  0001e	f3 0f 11 45 e8	 movss	 DWORD PTR _vv$[ebp], xmm0

; 877  : 	
; 878  : 	sprintf (s, "%02d", abs((int)vv));;

  00023	f3 0f 2c 45 e8	 cvttss2si eax, DWORD PTR _vv$[ebp]
  00028	50		 push	 eax
  00029	e8 00 00 00 00	 call	 _abs
  0002e	83 c4 04	 add	 esp, 4
  00031	50		 push	 eax
  00032	68 00 00 00 00	 push	 OFFSET ??_C@_04OGKJMPGK@?$CF02d@
  00037	8d 4d ec	 lea	 ecx, DWORD PTR _s$[ebp]
  0003a	51		 push	 ecx
  0003b	e8 00 00 00 00	 call	 _sprintf
  00040	83 c4 0c	 add	 esp, 12			; 0000000cH

; 879  : 
; 880  : 	set_2d_mono_font_position (0.6, -0.07);

  00043	51		 push	 ecx
  00044	f3 0f 10 05 00
	00 00 00	 movss	 xmm0, DWORD PTR __real@bd8f5c29
  0004c	f3 0f 11 04 24	 movss	 DWORD PTR [esp], xmm0
  00051	51		 push	 ecx
  00052	f3 0f 10 05 00
	00 00 00	 movss	 xmm0, DWORD PTR __real@3f19999a
  0005a	f3 0f 11 04 24	 movss	 DWORD PTR [esp], xmm0
  0005f	e8 00 00 00 00	 call	 ?set_2d_mono_font_position@@YGXMM@Z ; set_2d_mono_font_position

; 881  : 	if (draw_large_hud)

  00064	83 3d 00 00 00
	00 00		 cmp	 DWORD PTR ?draw_large_hud@@3HA, 0
  0006b	74 2a		 je	 SHORT $LN2@display_ve

; 882  : 	{
; 883  : 		set_mono_font_type (MONO_FONT_TYPE_8X14);

  0006d	6a 06		 push	 6
  0006f	e8 00 00 00 00	 call	 ?set_mono_font_type@@YGXW4MONO_FONT_TYPES@@@Z ; set_mono_font_type

; 884  : 		set_mono_font_rel_position (5.0, -4.0);

  00074	51		 push	 ecx
  00075	f3 0f 10 05 00
	00 00 00	 movss	 xmm0, DWORD PTR __real@c0800000
  0007d	f3 0f 11 04 24	 movss	 DWORD PTR [esp], xmm0
  00082	51		 push	 ecx
  00083	f3 0f 10 05 00
	00 00 00	 movss	 xmm0, DWORD PTR __real@40a00000
  0008b	f3 0f 11 04 24	 movss	 DWORD PTR [esp], xmm0
  00090	e8 00 00 00 00	 call	 ?set_mono_font_rel_position@@YGXMM@Z ; set_mono_font_rel_position

; 885  : 	}
; 886  : 	else

  00095	eb 23		 jmp	 SHORT $LN3@display_ve
$LN2@display_ve:

; 887  : 	{
; 888  : 		set_mono_font_type (MONO_FONT_TYPE_5X7);

  00097	6a 01		 push	 1
  00099	e8 00 00 00 00	 call	 ?set_mono_font_type@@YGXW4MONO_FONT_TYPES@@@Z ; set_mono_font_type

; 889  : 		set_mono_font_rel_position (0.0, -3.0);

  0009e	51		 push	 ecx
  0009f	f3 0f 10 05 00
	00 00 00	 movss	 xmm0, DWORD PTR __real@c0400000
  000a7	f3 0f 11 04 24	 movss	 DWORD PTR [esp], xmm0
  000ac	51		 push	 ecx
  000ad	0f 57 c0	 xorps	 xmm0, xmm0
  000b0	f3 0f 11 04 24	 movss	 DWORD PTR [esp], xmm0
  000b5	e8 00 00 00 00	 call	 ?set_mono_font_rel_position@@YGXMM@Z ; set_mono_font_rel_position
$LN3@display_ve:

; 890  : 	}
; 891  : 
; 892  : 	if (vv >= 0.0)

  000ba	f3 0f 5a 45 e8	 cvtss2sd xmm0, DWORD PTR _vv$[ebp]
  000bf	66 0f 2f 05 00
	00 00 00	 comisd	 xmm0, QWORD PTR __real@0000000000000000
  000c7	72 0c		 jb	 SHORT $LN4@display_ve

; 893  : 		print_mono_font_string("+");

  000c9	68 00 00 00 00	 push	 OFFSET ??_C@_01MIFGBAGJ@?$CL@
  000ce	e8 00 00 00 00	 call	 ?print_mono_font_string@@YGXPBD@Z ; print_mono_font_string

; 894  : 	else

  000d3	eb 0a		 jmp	 SHORT $LN5@display_ve
$LN4@display_ve:

; 895  : 		print_mono_font_string("-");

  000d5	68 00 00 00 00	 push	 OFFSET ??_C@_01JOAMLHOP@?9@
  000da	e8 00 00 00 00	 call	 ?print_mono_font_string@@YGXPBD@Z ; print_mono_font_string
$LN5@display_ve:

; 896  : 
; 897  : 	set_2d_mono_font_position (0.7, -0.07);

  000df	51		 push	 ecx
  000e0	f3 0f 10 05 00
	00 00 00	 movss	 xmm0, DWORD PTR __real@bd8f5c29
  000e8	f3 0f 11 04 24	 movss	 DWORD PTR [esp], xmm0
  000ed	51		 push	 ecx
  000ee	f3 0f 10 05 00
	00 00 00	 movss	 xmm0, DWORD PTR __real@3f333333
  000f6	f3 0f 11 04 24	 movss	 DWORD PTR [esp], xmm0
  000fb	e8 00 00 00 00	 call	 ?set_2d_mono_font_position@@YGXMM@Z ; set_2d_mono_font_position

; 898  : 	if (draw_large_hud)

  00100	83 3d 00 00 00
	00 00		 cmp	 DWORD PTR ?draw_large_hud@@3HA, 0
  00107	74 25		 je	 SHORT $LN6@display_ve

; 899  : 	{
; 900  : 		set_mono_font_type (MONO_FONT_TYPE_10X16);

  00109	6a 07		 push	 7
  0010b	e8 00 00 00 00	 call	 ?set_mono_font_type@@YGXW4MONO_FONT_TYPES@@@Z ; set_mono_font_type

; 901  : 		set_mono_font_rel_position (0.0, -4.0);

  00110	51		 push	 ecx
  00111	f3 0f 10 05 00
	00 00 00	 movss	 xmm0, DWORD PTR __real@c0800000
  00119	f3 0f 11 04 24	 movss	 DWORD PTR [esp], xmm0
  0011e	51		 push	 ecx
  0011f	0f 57 c0	 xorps	 xmm0, xmm0
  00122	f3 0f 11 04 24	 movss	 DWORD PTR [esp], xmm0
  00127	e8 00 00 00 00	 call	 ?set_mono_font_rel_position@@YGXMM@Z ; set_mono_font_rel_position

; 902  : 	}
; 903  : 	else

  0012c	eb 23		 jmp	 SHORT $LN7@display_ve
$LN6@display_ve:

; 904  : 	{
; 905  : 		set_mono_font_type (MONO_FONT_TYPE_6X10);

  0012e	6a 04		 push	 4
  00130	e8 00 00 00 00	 call	 ?set_mono_font_type@@YGXW4MONO_FONT_TYPES@@@Z ; set_mono_font_type

; 906  : 		set_mono_font_rel_position (0.0, -4.0);

  00135	51		 push	 ecx
  00136	f3 0f 10 05 00
	00 00 00	 movss	 xmm0, DWORD PTR __real@c0800000
  0013e	f3 0f 11 04 24	 movss	 DWORD PTR [esp], xmm0
  00143	51		 push	 ecx
  00144	0f 57 c0	 xorps	 xmm0, xmm0
  00147	f3 0f 11 04 24	 movss	 DWORD PTR [esp], xmm0
  0014c	e8 00 00 00 00	 call	 ?set_mono_font_rel_position@@YGXMM@Z ; set_mono_font_rel_position
$LN7@display_ve:

; 907  : 	}
; 908  : 	
; 909  : 	print_mono_font_string (s);

  00151	8d 45 ec	 lea	 eax, DWORD PTR _s$[ebp]
  00154	50		 push	 eax
  00155	e8 00 00 00 00	 call	 ?print_mono_font_string@@YGXPBD@Z ; print_mono_font_string

; 910  : 
; 911  : 	// draw the scale
; 912  : 	if (hud_mode != HUD_MODE_WEAPON)

  0015a	83 3d 00 00 00
	00 02		 cmp	 DWORD PTR ?hud_mode@@3W4HUD_MODES@@A, 2 ; hud_mode
  00161	0f 84 40 04 00
	00		 je	 $LN12@display_ve

; 913  : 	{
; 914  : 		float y_offset = vv * 0.01;

  00167	f3 0f 5a 45 e8	 cvtss2sd xmm0, DWORD PTR _vv$[ebp]
  0016c	f2 0f 59 05 00
	00 00 00	 mulsd	 xmm0, QWORD PTR __real@3f847ae147ae147b
  00174	f2 0f 5a c0	 cvtsd2ss xmm0, xmm0
  00178	f3 0f 11 45 e4	 movss	 DWORD PTR _y_offset$1[ebp], xmm0

; 915  : 		
; 916  : 		draw_2d_line(0.7, -0.2, 0.7, -0.8, hud_colour);

  0017d	a1 00 00 00 00	 mov	 eax, DWORD PTR ?hud_colour@@3UREAL_COLOUR@@A ; hud_colour
  00182	50		 push	 eax
  00183	51		 push	 ecx
  00184	f3 0f 10 05 00
	00 00 00	 movss	 xmm0, DWORD PTR __real@bf4ccccd
  0018c	f3 0f 11 04 24	 movss	 DWORD PTR [esp], xmm0
  00191	51		 push	 ecx
  00192	f3 0f 10 05 00
	00 00 00	 movss	 xmm0, DWORD PTR __real@3f333333
  0019a	f3 0f 11 04 24	 movss	 DWORD PTR [esp], xmm0
  0019f	51		 push	 ecx
  001a0	f3 0f 10 05 00
	00 00 00	 movss	 xmm0, DWORD PTR __real@be4ccccd
  001a8	f3 0f 11 04 24	 movss	 DWORD PTR [esp], xmm0
  001ad	51		 push	 ecx
  001ae	f3 0f 10 05 00
	00 00 00	 movss	 xmm0, DWORD PTR __real@3f333333
  001b6	f3 0f 11 04 24	 movss	 DWORD PTR [esp], xmm0
  001bb	e8 00 00 00 00	 call	 ?draw_2d_line@@YGXMMMMUREAL_COLOUR@@@Z ; draw_2d_line

; 917  : 
; 918  : 		// the vertical tick marks
; 919  : 		draw_2d_line(0.7, -0.2, 0.725, -0.2, hud_colour);

  001c0	a1 00 00 00 00	 mov	 eax, DWORD PTR ?hud_colour@@3UREAL_COLOUR@@A ; hud_colour
  001c5	50		 push	 eax
  001c6	51		 push	 ecx
  001c7	f3 0f 10 05 00
	00 00 00	 movss	 xmm0, DWORD PTR __real@be4ccccd
  001cf	f3 0f 11 04 24	 movss	 DWORD PTR [esp], xmm0
  001d4	51		 push	 ecx
  001d5	f3 0f 10 05 00
	00 00 00	 movss	 xmm0, DWORD PTR __real@3f39999a
  001dd	f3 0f 11 04 24	 movss	 DWORD PTR [esp], xmm0
  001e2	51		 push	 ecx
  001e3	f3 0f 10 05 00
	00 00 00	 movss	 xmm0, DWORD PTR __real@be4ccccd
  001eb	f3 0f 11 04 24	 movss	 DWORD PTR [esp], xmm0
  001f0	51		 push	 ecx
  001f1	f3 0f 10 05 00
	00 00 00	 movss	 xmm0, DWORD PTR __real@3f333333
  001f9	f3 0f 11 04 24	 movss	 DWORD PTR [esp], xmm0
  001fe	e8 00 00 00 00	 call	 ?draw_2d_line@@YGXMMMMUREAL_COLOUR@@@Z ; draw_2d_line

; 920  : 		draw_2d_line(0.7, -0.3, 0.725, -0.3, hud_colour);

  00203	a1 00 00 00 00	 mov	 eax, DWORD PTR ?hud_colour@@3UREAL_COLOUR@@A ; hud_colour
  00208	50		 push	 eax
  00209	51		 push	 ecx
  0020a	f3 0f 10 05 00
	00 00 00	 movss	 xmm0, DWORD PTR __real@be99999a
  00212	f3 0f 11 04 24	 movss	 DWORD PTR [esp], xmm0
  00217	51		 push	 ecx
  00218	f3 0f 10 05 00
	00 00 00	 movss	 xmm0, DWORD PTR __real@3f39999a
  00220	f3 0f 11 04 24	 movss	 DWORD PTR [esp], xmm0
  00225	51		 push	 ecx
  00226	f3 0f 10 05 00
	00 00 00	 movss	 xmm0, DWORD PTR __real@be99999a
  0022e	f3 0f 11 04 24	 movss	 DWORD PTR [esp], xmm0
  00233	51		 push	 ecx
  00234	f3 0f 10 05 00
	00 00 00	 movss	 xmm0, DWORD PTR __real@3f333333
  0023c	f3 0f 11 04 24	 movss	 DWORD PTR [esp], xmm0
  00241	e8 00 00 00 00	 call	 ?draw_2d_line@@YGXMMMMUREAL_COLOUR@@@Z ; draw_2d_line

; 921  : 		draw_2d_line(0.7, -0.4, 0.725, -0.4, hud_colour);

  00246	a1 00 00 00 00	 mov	 eax, DWORD PTR ?hud_colour@@3UREAL_COLOUR@@A ; hud_colour
  0024b	50		 push	 eax
  0024c	51		 push	 ecx
  0024d	f3 0f 10 05 00
	00 00 00	 movss	 xmm0, DWORD PTR __real@becccccd
  00255	f3 0f 11 04 24	 movss	 DWORD PTR [esp], xmm0
  0025a	51		 push	 ecx
  0025b	f3 0f 10 05 00
	00 00 00	 movss	 xmm0, DWORD PTR __real@3f39999a
  00263	f3 0f 11 04 24	 movss	 DWORD PTR [esp], xmm0
  00268	51		 push	 ecx
  00269	f3 0f 10 05 00
	00 00 00	 movss	 xmm0, DWORD PTR __real@becccccd
  00271	f3 0f 11 04 24	 movss	 DWORD PTR [esp], xmm0
  00276	51		 push	 ecx
  00277	f3 0f 10 05 00
	00 00 00	 movss	 xmm0, DWORD PTR __real@3f333333
  0027f	f3 0f 11 04 24	 movss	 DWORD PTR [esp], xmm0
  00284	e8 00 00 00 00	 call	 ?draw_2d_line@@YGXMMMMUREAL_COLOUR@@@Z ; draw_2d_line

; 922  : 		draw_2d_line(0.7, -0.5, 0.75, -0.5, hud_colour);

  00289	a1 00 00 00 00	 mov	 eax, DWORD PTR ?hud_colour@@3UREAL_COLOUR@@A ; hud_colour
  0028e	50		 push	 eax
  0028f	51		 push	 ecx
  00290	f3 0f 10 05 00
	00 00 00	 movss	 xmm0, DWORD PTR __real@bf000000
  00298	f3 0f 11 04 24	 movss	 DWORD PTR [esp], xmm0
  0029d	51		 push	 ecx
  0029e	f3 0f 10 05 00
	00 00 00	 movss	 xmm0, DWORD PTR __real@3f400000
  002a6	f3 0f 11 04 24	 movss	 DWORD PTR [esp], xmm0
  002ab	51		 push	 ecx
  002ac	f3 0f 10 05 00
	00 00 00	 movss	 xmm0, DWORD PTR __real@bf000000
  002b4	f3 0f 11 04 24	 movss	 DWORD PTR [esp], xmm0
  002b9	51		 push	 ecx
  002ba	f3 0f 10 05 00
	00 00 00	 movss	 xmm0, DWORD PTR __real@3f333333
  002c2	f3 0f 11 04 24	 movss	 DWORD PTR [esp], xmm0
  002c7	e8 00 00 00 00	 call	 ?draw_2d_line@@YGXMMMMUREAL_COLOUR@@@Z ; draw_2d_line

; 923  : 		draw_2d_line(0.7, -0.6, 0.725, -0.6, hud_colour);

  002cc	a1 00 00 00 00	 mov	 eax, DWORD PTR ?hud_colour@@3UREAL_COLOUR@@A ; hud_colour
  002d1	50		 push	 eax
  002d2	51		 push	 ecx
  002d3	f3 0f 10 05 00
	00 00 00	 movss	 xmm0, DWORD PTR __real@bf19999a
  002db	f3 0f 11 04 24	 movss	 DWORD PTR [esp], xmm0
  002e0	51		 push	 ecx
  002e1	f3 0f 10 05 00
	00 00 00	 movss	 xmm0, DWORD PTR __real@3f39999a
  002e9	f3 0f 11 04 24	 movss	 DWORD PTR [esp], xmm0
  002ee	51		 push	 ecx
  002ef	f3 0f 10 05 00
	00 00 00	 movss	 xmm0, DWORD PTR __real@bf19999a
  002f7	f3 0f 11 04 24	 movss	 DWORD PTR [esp], xmm0
  002fc	51		 push	 ecx
  002fd	f3 0f 10 05 00
	00 00 00	 movss	 xmm0, DWORD PTR __real@3f333333
  00305	f3 0f 11 04 24	 movss	 DWORD PTR [esp], xmm0
  0030a	e8 00 00 00 00	 call	 ?draw_2d_line@@YGXMMMMUREAL_COLOUR@@@Z ; draw_2d_line

; 924  : 		draw_2d_line(0.7, -0.7, 0.725, -0.7, hud_colour);

  0030f	a1 00 00 00 00	 mov	 eax, DWORD PTR ?hud_colour@@3UREAL_COLOUR@@A ; hud_colour
  00314	50		 push	 eax
  00315	51		 push	 ecx
  00316	f3 0f 10 05 00
	00 00 00	 movss	 xmm0, DWORD PTR __real@bf333333
  0031e	f3 0f 11 04 24	 movss	 DWORD PTR [esp], xmm0
  00323	51		 push	 ecx
  00324	f3 0f 10 05 00
	00 00 00	 movss	 xmm0, DWORD PTR __real@3f39999a
  0032c	f3 0f 11 04 24	 movss	 DWORD PTR [esp], xmm0
  00331	51		 push	 ecx
  00332	f3 0f 10 05 00
	00 00 00	 movss	 xmm0, DWORD PTR __real@bf333333
  0033a	f3 0f 11 04 24	 movss	 DWORD PTR [esp], xmm0
  0033f	51		 push	 ecx
  00340	f3 0f 10 05 00
	00 00 00	 movss	 xmm0, DWORD PTR __real@3f333333
  00348	f3 0f 11 04 24	 movss	 DWORD PTR [esp], xmm0
  0034d	e8 00 00 00 00	 call	 ?draw_2d_line@@YGXMMMMUREAL_COLOUR@@@Z ; draw_2d_line

; 925  : 		draw_2d_line(0.7, -0.8, 0.725, -0.8, hud_colour);

  00352	a1 00 00 00 00	 mov	 eax, DWORD PTR ?hud_colour@@3UREAL_COLOUR@@A ; hud_colour
  00357	50		 push	 eax
  00358	51		 push	 ecx
  00359	f3 0f 10 05 00
	00 00 00	 movss	 xmm0, DWORD PTR __real@bf4ccccd
  00361	f3 0f 11 04 24	 movss	 DWORD PTR [esp], xmm0
  00366	51		 push	 ecx
  00367	f3 0f 10 05 00
	00 00 00	 movss	 xmm0, DWORD PTR __real@3f39999a
  0036f	f3 0f 11 04 24	 movss	 DWORD PTR [esp], xmm0
  00374	51		 push	 ecx
  00375	f3 0f 10 05 00
	00 00 00	 movss	 xmm0, DWORD PTR __real@bf4ccccd
  0037d	f3 0f 11 04 24	 movss	 DWORD PTR [esp], xmm0
  00382	51		 push	 ecx
  00383	f3 0f 10 05 00
	00 00 00	 movss	 xmm0, DWORD PTR __real@3f333333
  0038b	f3 0f 11 04 24	 movss	 DWORD PTR [esp], xmm0
  00390	e8 00 00 00 00	 call	 ?draw_2d_line@@YGXMMMMUREAL_COLOUR@@@Z ; draw_2d_line

; 926  : 		
; 927  : 		if (draw_large_hud)

  00395	83 3d 00 00 00
	00 00		 cmp	 DWORD PTR ?draw_large_hud@@3HA, 0
  0039c	74 09		 je	 SHORT $LN9@display_ve

; 928  : 			set_mono_font_type(MONO_FONT_TYPE_6X10);

  0039e	6a 04		 push	 4
  003a0	e8 00 00 00 00	 call	 ?set_mono_font_type@@YGXW4MONO_FONT_TYPES@@@Z ; set_mono_font_type

; 929  : 		else

  003a5	eb 07		 jmp	 SHORT $LN10@display_ve
$LN9@display_ve:

; 930  : 			set_mono_font_type(MONO_FONT_TYPE_3X6);

  003a7	6a 00		 push	 0
  003a9	e8 00 00 00 00	 call	 ?set_mono_font_type@@YGXW4MONO_FONT_TYPES@@@Z ; set_mono_font_type
$LN10@display_ve:

; 931  : 			
; 932  : 		set_2d_mono_font_position(0.75, -0.2);

  003ae	51		 push	 ecx
  003af	f3 0f 10 05 00
	00 00 00	 movss	 xmm0, DWORD PTR __real@be4ccccd
  003b7	f3 0f 11 04 24	 movss	 DWORD PTR [esp], xmm0
  003bc	51		 push	 ecx
  003bd	f3 0f 10 05 00
	00 00 00	 movss	 xmm0, DWORD PTR __real@3f400000
  003c5	f3 0f 11 04 24	 movss	 DWORD PTR [esp], xmm0
  003ca	e8 00 00 00 00	 call	 ?set_2d_mono_font_position@@YGXMM@Z ; set_2d_mono_font_position

; 933  : 		set_mono_font_rel_position (0.0, -3.0);

  003cf	51		 push	 ecx
  003d0	f3 0f 10 05 00
	00 00 00	 movss	 xmm0, DWORD PTR __real@c0400000
  003d8	f3 0f 11 04 24	 movss	 DWORD PTR [esp], xmm0
  003dd	51		 push	 ecx
  003de	0f 57 c0	 xorps	 xmm0, xmm0
  003e1	f3 0f 11 04 24	 movss	 DWORD PTR [esp], xmm0
  003e6	e8 00 00 00 00	 call	 ?set_mono_font_rel_position@@YGXMM@Z ; set_mono_font_rel_position

; 934  : 		print_mono_font_string("30");

  003eb	68 00 00 00 00	 push	 OFFSET ??_C@_02PJNFELNH@30@
  003f0	e8 00 00 00 00	 call	 ?print_mono_font_string@@YGXPBD@Z ; print_mono_font_string

; 935  : 		
; 936  : 		set_2d_mono_font_position(0.75, -0.5);

  003f5	51		 push	 ecx
  003f6	f3 0f 10 05 00
	00 00 00	 movss	 xmm0, DWORD PTR __real@bf000000
  003fe	f3 0f 11 04 24	 movss	 DWORD PTR [esp], xmm0
  00403	51		 push	 ecx
  00404	f3 0f 10 05 00
	00 00 00	 movss	 xmm0, DWORD PTR __real@3f400000
  0040c	f3 0f 11 04 24	 movss	 DWORD PTR [esp], xmm0
  00411	e8 00 00 00 00	 call	 ?set_2d_mono_font_position@@YGXMM@Z ; set_2d_mono_font_position

; 937  : 		set_mono_font_rel_position (0.0, -3.0);

  00416	51		 push	 ecx
  00417	f3 0f 10 05 00
	00 00 00	 movss	 xmm0, DWORD PTR __real@c0400000
  0041f	f3 0f 11 04 24	 movss	 DWORD PTR [esp], xmm0
  00424	51		 push	 ecx
  00425	0f 57 c0	 xorps	 xmm0, xmm0
  00428	f3 0f 11 04 24	 movss	 DWORD PTR [esp], xmm0
  0042d	e8 00 00 00 00	 call	 ?set_mono_font_rel_position@@YGXMM@Z ; set_mono_font_rel_position

; 938  : 		print_mono_font_string("0");

  00432	68 00 00 00 00	 push	 OFFSET ??_C@_01GBGANLPD@0@
  00437	e8 00 00 00 00	 call	 ?print_mono_font_string@@YGXPBD@Z ; print_mono_font_string

; 939  : 
; 940  : 		set_2d_mono_font_position(0.75, -0.8);

  0043c	51		 push	 ecx
  0043d	f3 0f 10 05 00
	00 00 00	 movss	 xmm0, DWORD PTR __real@bf4ccccd
  00445	f3 0f 11 04 24	 movss	 DWORD PTR [esp], xmm0
  0044a	51		 push	 ecx
  0044b	f3 0f 10 05 00
	00 00 00	 movss	 xmm0, DWORD PTR __real@3f400000
  00453	f3 0f 11 04 24	 movss	 DWORD PTR [esp], xmm0
  00458	e8 00 00 00 00	 call	 ?set_2d_mono_font_position@@YGXMM@Z ; set_2d_mono_font_position

; 941  : 		set_mono_font_rel_position (0.0, -3.0);

  0045d	51		 push	 ecx
  0045e	f3 0f 10 05 00
	00 00 00	 movss	 xmm0, DWORD PTR __real@c0400000
  00466	f3 0f 11 04 24	 movss	 DWORD PTR [esp], xmm0
  0046b	51		 push	 ecx
  0046c	0f 57 c0	 xorps	 xmm0, xmm0
  0046f	f3 0f 11 04 24	 movss	 DWORD PTR [esp], xmm0
  00474	e8 00 00 00 00	 call	 ?set_mono_font_rel_position@@YGXMM@Z ; set_mono_font_rel_position

; 942  : 		print_mono_font_string("30");

  00479	68 00 00 00 00	 push	 OFFSET ??_C@_02PJNFELNH@30@
  0047e	e8 00 00 00 00	 call	 ?print_mono_font_string@@YGXPBD@Z ; print_mono_font_string

; 943  : 
; 944  : 		if (draw_large_hud)

  00483	83 3d 00 00 00
	00 00		 cmp	 DWORD PTR ?draw_large_hud@@3HA, 0
  0048a	0f 84 8e 00 00
	00		 je	 $LN11@display_ve

; 945  : 			draw_2d_mono_sprite(large_right_carat, 0.7, -0.5 + bound(y_offset, -0.3, 0.3), hud_colour);

  00490	f3 0f 5a 45 e4	 cvtss2sd xmm0, DWORD PTR _y_offset$1[ebp]
  00495	f2 0f 10 0d 00
	00 00 00	 movsd	 xmm1, QWORD PTR __real@bfd3333333333333
  0049d	66 0f 2f c8	 comisd	 xmm1, xmm0
  004a1	76 0f		 jbe	 SHORT $LN16@display_ve
  004a3	f2 0f 10 05 00
	00 00 00	 movsd	 xmm0, QWORD PTR __real@bfd3333333333333
  004ab	f2 0f 11 45 9c	 movsd	 QWORD PTR tv198[ebp], xmm0
  004b0	eb 32		 jmp	 SHORT $LN17@display_ve
$LN16@display_ve:
  004b2	f3 0f 5a 45 e4	 cvtss2sd xmm0, DWORD PTR _y_offset$1[ebp]
  004b7	66 0f 2f 05 00
	00 00 00	 comisd	 xmm0, QWORD PTR __real@3fd3333333333333
  004bf	76 0f		 jbe	 SHORT $LN14@display_ve
  004c1	f2 0f 10 05 00
	00 00 00	 movsd	 xmm0, QWORD PTR __real@3fd3333333333333
  004c9	f2 0f 11 45 94	 movsd	 QWORD PTR tv197[ebp], xmm0
  004ce	eb 0a		 jmp	 SHORT $LN15@display_ve
$LN14@display_ve:
  004d0	f3 0f 5a 45 e4	 cvtss2sd xmm0, DWORD PTR _y_offset$1[ebp]
  004d5	f2 0f 11 45 94	 movsd	 QWORD PTR tv197[ebp], xmm0
$LN15@display_ve:
  004da	f2 0f 10 45 94	 movsd	 xmm0, QWORD PTR tv197[ebp]
  004df	f2 0f 11 45 9c	 movsd	 QWORD PTR tv198[ebp], xmm0
$LN17@display_ve:
  004e4	a1 00 00 00 00	 mov	 eax, DWORD PTR ?hud_colour@@3UREAL_COLOUR@@A ; hud_colour
  004e9	50		 push	 eax
  004ea	f2 0f 10 05 00
	00 00 00	 movsd	 xmm0, QWORD PTR __real@bfe0000000000000
  004f2	f2 0f 58 45 9c	 addsd	 xmm0, QWORD PTR tv198[ebp]
  004f7	f2 0f 5a c0	 cvtsd2ss xmm0, xmm0
  004fb	51		 push	 ecx
  004fc	f3 0f 11 04 24	 movss	 DWORD PTR [esp], xmm0
  00501	51		 push	 ecx
  00502	f3 0f 10 05 00
	00 00 00	 movss	 xmm0, DWORD PTR __real@3f333333
  0050a	f3 0f 11 04 24	 movss	 DWORD PTR [esp], xmm0
  0050f	68 00 00 00 00	 push	 OFFSET ?large_right_carat@@3PADA
  00514	e8 00 00 00 00	 call	 ?draw_2d_mono_sprite@@YGXPBDMMUREAL_COLOUR@@@Z ; draw_2d_mono_sprite

; 946  : 		else

  00519	e9 89 00 00 00	 jmp	 $LN12@display_ve
$LN11@display_ve:

; 947  : 			draw_2d_mono_sprite(small_right_carat, 0.7, -0.5 + bound(y_offset, -0.3, 0.3), hud_colour);

  0051e	f3 0f 5a 45 e4	 cvtss2sd xmm0, DWORD PTR _y_offset$1[ebp]
  00523	f2 0f 10 0d 00
	00 00 00	 movsd	 xmm1, QWORD PTR __real@bfd3333333333333
  0052b	66 0f 2f c8	 comisd	 xmm1, xmm0
  0052f	76 0f		 jbe	 SHORT $LN20@display_ve
  00531	f2 0f 10 05 00
	00 00 00	 movsd	 xmm0, QWORD PTR __real@bfd3333333333333
  00539	f2 0f 11 45 9c	 movsd	 QWORD PTR tv211[ebp], xmm0
  0053e	eb 32		 jmp	 SHORT $LN21@display_ve
$LN20@display_ve:
  00540	f3 0f 5a 45 e4	 cvtss2sd xmm0, DWORD PTR _y_offset$1[ebp]
  00545	66 0f 2f 05 00
	00 00 00	 comisd	 xmm0, QWORD PTR __real@3fd3333333333333
  0054d	76 0f		 jbe	 SHORT $LN18@display_ve
  0054f	f2 0f 10 05 00
	00 00 00	 movsd	 xmm0, QWORD PTR __real@3fd3333333333333
  00557	f2 0f 11 45 94	 movsd	 QWORD PTR tv210[ebp], xmm0
  0055c	eb 0a		 jmp	 SHORT $LN19@display_ve
$LN18@display_ve:
  0055e	f3 0f 5a 45 e4	 cvtss2sd xmm0, DWORD PTR _y_offset$1[ebp]
  00563	f2 0f 11 45 94	 movsd	 QWORD PTR tv210[ebp], xmm0
$LN19@display_ve:
  00568	f2 0f 10 45 94	 movsd	 xmm0, QWORD PTR tv210[ebp]
  0056d	f2 0f 11 45 9c	 movsd	 QWORD PTR tv211[ebp], xmm0
$LN21@display_ve:
  00572	a1 00 00 00 00	 mov	 eax, DWORD PTR ?hud_colour@@3UREAL_COLOUR@@A ; hud_colour
  00577	50		 push	 eax
  00578	f2 0f 10 05 00
	00 00 00	 movsd	 xmm0, QWORD PTR __real@bfe0000000000000
  00580	f2 0f 58 45 9c	 addsd	 xmm0, QWORD PTR tv211[ebp]
  00585	f2 0f 5a c0	 cvtsd2ss xmm0, xmm0
  00589	51		 push	 ecx
  0058a	f3 0f 11 04 24	 movss	 DWORD PTR [esp], xmm0
  0058f	51		 push	 ecx
  00590	f3 0f 10 05 00
	00 00 00	 movss	 xmm0, DWORD PTR __real@3f333333
  00598	f3 0f 11 04 24	 movss	 DWORD PTR [esp], xmm0
  0059d	68 00 00 00 00	 push	 OFFSET ?small_right_carat@@3PADA
  005a2	e8 00 00 00 00	 call	 ?draw_2d_mono_sprite@@YGXPBDMMUREAL_COLOUR@@@Z ; draw_2d_mono_sprite
$LN12@display_ve:

; 948  : 	}
; 949  : }

  005a7	5f		 pop	 edi
  005a8	5e		 pop	 esi
  005a9	5b		 pop	 ebx
  005aa	8b e5		 mov	 esp, ebp
  005ac	5d		 pop	 ebp
  005ad	c3		 ret	 0
?display_vertical_velocity@@YGXXZ ENDP			; display_vertical_velocity
_TEXT	ENDS
; Function compile flags: /Odtp /ZI
; File c:\users\nhv90\projects\eech\aphavoc\source\gunships\avionics\hokum\hk_hud.c
;	COMDAT ?display_g_scale@@YGXXZ
_TEXT	SEGMENT
tv78 = -84						; size = 8
tv79 = -76						; size = 8
_y_offset$ = -4						; size = 4
?display_g_scale@@YGXXZ PROC				; display_g_scale, COMDAT

; 837  : 	{

  00000	55		 push	 ebp
  00001	8b ec		 mov	 ebp, esp
  00003	83 ec 54	 sub	 esp, 84			; 00000054H
  00006	53		 push	 ebx
  00007	56		 push	 esi
  00008	57		 push	 edi

; 838  : 		float y_offset = bound(current_flight_dynamics->g_force.value * 0.1, -0.1, 0.35);

  00009	a1 00 00 00 00	 mov	 eax, DWORD PTR ?current_flight_dynamics@@3PAUDYNAMICS_TYPE@@A ; current_flight_dynamics
  0000e	f3 0f 5a 80 5c
	24 00 00	 cvtss2sd xmm0, DWORD PTR [eax+9308]
  00016	f2 0f 59 05 00
	00 00 00	 mulsd	 xmm0, QWORD PTR __real@3fb999999999999a
  0001e	f2 0f 10 0d 00
	00 00 00	 movsd	 xmm1, QWORD PTR __real@bfb999999999999a
  00026	66 0f 2f c8	 comisd	 xmm1, xmm0
  0002a	76 0f		 jbe	 SHORT $LN9@display_g_
  0002c	f2 0f 10 05 00
	00 00 00	 movsd	 xmm0, QWORD PTR __real@bfb999999999999a
  00034	f2 0f 11 45 b4	 movsd	 QWORD PTR tv79[ebp], xmm0
  00039	eb 54		 jmp	 SHORT $LN10@display_g_
$LN9@display_g_:
  0003b	8b 0d 00 00 00
	00		 mov	 ecx, DWORD PTR ?current_flight_dynamics@@3PAUDYNAMICS_TYPE@@A ; current_flight_dynamics
  00041	f3 0f 5a 81 5c
	24 00 00	 cvtss2sd xmm0, DWORD PTR [ecx+9308]
  00049	f2 0f 59 05 00
	00 00 00	 mulsd	 xmm0, QWORD PTR __real@3fb999999999999a
  00051	66 0f 2f 05 00
	00 00 00	 comisd	 xmm0, QWORD PTR __real@3fd6666666666666
  00059	76 0f		 jbe	 SHORT $LN7@display_g_
  0005b	f2 0f 10 05 00
	00 00 00	 movsd	 xmm0, QWORD PTR __real@3fd6666666666666
  00063	f2 0f 11 45 ac	 movsd	 QWORD PTR tv78[ebp], xmm0
  00068	eb 1b		 jmp	 SHORT $LN8@display_g_
$LN7@display_g_:
  0006a	8b 15 00 00 00
	00		 mov	 edx, DWORD PTR ?current_flight_dynamics@@3PAUDYNAMICS_TYPE@@A ; current_flight_dynamics
  00070	f3 0f 5a 82 5c
	24 00 00	 cvtss2sd xmm0, DWORD PTR [edx+9308]
  00078	f2 0f 59 05 00
	00 00 00	 mulsd	 xmm0, QWORD PTR __real@3fb999999999999a
  00080	f2 0f 11 45 ac	 movsd	 QWORD PTR tv78[ebp], xmm0
$LN8@display_g_:
  00085	f2 0f 10 45 ac	 movsd	 xmm0, QWORD PTR tv78[ebp]
  0008a	f2 0f 11 45 b4	 movsd	 QWORD PTR tv79[ebp], xmm0
$LN10@display_g_:
  0008f	f2 0f 5a 45 b4	 cvtsd2ss xmm0, QWORD PTR tv79[ebp]
  00094	f3 0f 11 45 fc	 movss	 DWORD PTR _y_offset$[ebp], xmm0

; 839  : 		
; 840  : 		draw_2d_line(-0.7, -0.2, -0.7, -0.65, hud_colour);

  00099	a1 00 00 00 00	 mov	 eax, DWORD PTR ?hud_colour@@3UREAL_COLOUR@@A ; hud_colour
  0009e	50		 push	 eax
  0009f	51		 push	 ecx
  000a0	f3 0f 10 05 00
	00 00 00	 movss	 xmm0, DWORD PTR __real@bf266666
  000a8	f3 0f 11 04 24	 movss	 DWORD PTR [esp], xmm0
  000ad	51		 push	 ecx
  000ae	f3 0f 10 05 00
	00 00 00	 movss	 xmm0, DWORD PTR __real@bf333333
  000b6	f3 0f 11 04 24	 movss	 DWORD PTR [esp], xmm0
  000bb	51		 push	 ecx
  000bc	f3 0f 10 05 00
	00 00 00	 movss	 xmm0, DWORD PTR __real@be4ccccd
  000c4	f3 0f 11 04 24	 movss	 DWORD PTR [esp], xmm0
  000c9	51		 push	 ecx
  000ca	f3 0f 10 05 00
	00 00 00	 movss	 xmm0, DWORD PTR __real@bf333333
  000d2	f3 0f 11 04 24	 movss	 DWORD PTR [esp], xmm0
  000d7	e8 00 00 00 00	 call	 ?draw_2d_line@@YGXMMMMUREAL_COLOUR@@@Z ; draw_2d_line

; 841  : 	
; 842  : 		draw_2d_line(-0.7, -0.25, -0.725, -0.25, hud_colour);

  000dc	a1 00 00 00 00	 mov	 eax, DWORD PTR ?hud_colour@@3UREAL_COLOUR@@A ; hud_colour
  000e1	50		 push	 eax
  000e2	51		 push	 ecx
  000e3	f3 0f 10 05 00
	00 00 00	 movss	 xmm0, DWORD PTR __real@be800000
  000eb	f3 0f 11 04 24	 movss	 DWORD PTR [esp], xmm0
  000f0	51		 push	 ecx
  000f1	f3 0f 10 05 00
	00 00 00	 movss	 xmm0, DWORD PTR __real@bf39999a
  000f9	f3 0f 11 04 24	 movss	 DWORD PTR [esp], xmm0
  000fe	51		 push	 ecx
  000ff	f3 0f 10 05 00
	00 00 00	 movss	 xmm0, DWORD PTR __real@be800000
  00107	f3 0f 11 04 24	 movss	 DWORD PTR [esp], xmm0
  0010c	51		 push	 ecx
  0010d	f3 0f 10 05 00
	00 00 00	 movss	 xmm0, DWORD PTR __real@bf333333
  00115	f3 0f 11 04 24	 movss	 DWORD PTR [esp], xmm0
  0011a	e8 00 00 00 00	 call	 ?draw_2d_line@@YGXMMMMUREAL_COLOUR@@@Z ; draw_2d_line

; 843  : 		draw_2d_line(-0.7, -0.55, -0.725, -0.55, hud_colour);

  0011f	a1 00 00 00 00	 mov	 eax, DWORD PTR ?hud_colour@@3UREAL_COLOUR@@A ; hud_colour
  00124	50		 push	 eax
  00125	51		 push	 ecx
  00126	f3 0f 10 05 00
	00 00 00	 movss	 xmm0, DWORD PTR __real@bf0ccccd
  0012e	f3 0f 11 04 24	 movss	 DWORD PTR [esp], xmm0
  00133	51		 push	 ecx
  00134	f3 0f 10 05 00
	00 00 00	 movss	 xmm0, DWORD PTR __real@bf39999a
  0013c	f3 0f 11 04 24	 movss	 DWORD PTR [esp], xmm0
  00141	51		 push	 ecx
  00142	f3 0f 10 05 00
	00 00 00	 movss	 xmm0, DWORD PTR __real@bf0ccccd
  0014a	f3 0f 11 04 24	 movss	 DWORD PTR [esp], xmm0
  0014f	51		 push	 ecx
  00150	f3 0f 10 05 00
	00 00 00	 movss	 xmm0, DWORD PTR __real@bf333333
  00158	f3 0f 11 04 24	 movss	 DWORD PTR [esp], xmm0
  0015d	e8 00 00 00 00	 call	 ?draw_2d_line@@YGXMMMMUREAL_COLOUR@@@Z ; draw_2d_line

; 844  : 		draw_2d_line(-0.7, -0.65, -0.725, -0.65, hud_colour);

  00162	a1 00 00 00 00	 mov	 eax, DWORD PTR ?hud_colour@@3UREAL_COLOUR@@A ; hud_colour
  00167	50		 push	 eax
  00168	51		 push	 ecx
  00169	f3 0f 10 05 00
	00 00 00	 movss	 xmm0, DWORD PTR __real@bf266666
  00171	f3 0f 11 04 24	 movss	 DWORD PTR [esp], xmm0
  00176	51		 push	 ecx
  00177	f3 0f 10 05 00
	00 00 00	 movss	 xmm0, DWORD PTR __real@bf39999a
  0017f	f3 0f 11 04 24	 movss	 DWORD PTR [esp], xmm0
  00184	51		 push	 ecx
  00185	f3 0f 10 05 00
	00 00 00	 movss	 xmm0, DWORD PTR __real@bf266666
  0018d	f3 0f 11 04 24	 movss	 DWORD PTR [esp], xmm0
  00192	51		 push	 ecx
  00193	f3 0f 10 05 00
	00 00 00	 movss	 xmm0, DWORD PTR __real@bf333333
  0019b	f3 0f 11 04 24	 movss	 DWORD PTR [esp], xmm0
  001a0	e8 00 00 00 00	 call	 ?draw_2d_line@@YGXMMMMUREAL_COLOUR@@@Z ; draw_2d_line

; 845  : 		
; 846  : 		if (draw_large_hud)

  001a5	83 3d 00 00 00
	00 00		 cmp	 DWORD PTR ?draw_large_hud@@3HA, 0
  001ac	74 09		 je	 SHORT $LN2@display_g_

; 847  : 			set_mono_font_type(MONO_FONT_TYPE_6X10);

  001ae	6a 04		 push	 4
  001b0	e8 00 00 00 00	 call	 ?set_mono_font_type@@YGXW4MONO_FONT_TYPES@@@Z ; set_mono_font_type

; 848  : 		else

  001b5	eb 07		 jmp	 SHORT $LN3@display_g_
$LN2@display_g_:

; 849  : 			set_mono_font_type(MONO_FONT_TYPE_3X6);

  001b7	6a 00		 push	 0
  001b9	e8 00 00 00 00	 call	 ?set_mono_font_type@@YGXW4MONO_FONT_TYPES@@@Z ; set_mono_font_type
$LN3@display_g_:

; 850  : 
; 851  : 		set_2d_mono_font_position(-0.78, -0.25);

  001be	51		 push	 ecx
  001bf	f3 0f 10 05 00
	00 00 00	 movss	 xmm0, DWORD PTR __real@be800000
  001c7	f3 0f 11 04 24	 movss	 DWORD PTR [esp], xmm0
  001cc	51		 push	 ecx
  001cd	f3 0f 10 05 00
	00 00 00	 movss	 xmm0, DWORD PTR __real@bf47ae14
  001d5	f3 0f 11 04 24	 movss	 DWORD PTR [esp], xmm0
  001da	e8 00 00 00 00	 call	 ?set_2d_mono_font_position@@YGXMM@Z ; set_2d_mono_font_position

; 852  : 		set_mono_font_rel_position (0.0, -3.0);

  001df	51		 push	 ecx
  001e0	f3 0f 10 05 00
	00 00 00	 movss	 xmm0, DWORD PTR __real@c0400000
  001e8	f3 0f 11 04 24	 movss	 DWORD PTR [esp], xmm0
  001ed	51		 push	 ecx
  001ee	0f 57 c0	 xorps	 xmm0, xmm0
  001f1	f3 0f 11 04 24	 movss	 DWORD PTR [esp], xmm0
  001f6	e8 00 00 00 00	 call	 ?set_mono_font_rel_position@@YGXMM@Z ; set_mono_font_rel_position

; 853  : 		print_mono_font_string("3");

  001fb	68 00 00 00 00	 push	 OFFSET ??_C@_01EKENIIDA@3@
  00200	e8 00 00 00 00	 call	 ?print_mono_font_string@@YGXPBD@Z ; print_mono_font_string

; 854  : 		
; 855  : 		set_2d_mono_font_position(-0.78, -0.55);

  00205	51		 push	 ecx
  00206	f3 0f 10 05 00
	00 00 00	 movss	 xmm0, DWORD PTR __real@bf0ccccd
  0020e	f3 0f 11 04 24	 movss	 DWORD PTR [esp], xmm0
  00213	51		 push	 ecx
  00214	f3 0f 10 05 00
	00 00 00	 movss	 xmm0, DWORD PTR __real@bf47ae14
  0021c	f3 0f 11 04 24	 movss	 DWORD PTR [esp], xmm0
  00221	e8 00 00 00 00	 call	 ?set_2d_mono_font_position@@YGXMM@Z ; set_2d_mono_font_position

; 856  : 		set_mono_font_rel_position (0.0, -3.0);

  00226	51		 push	 ecx
  00227	f3 0f 10 05 00
	00 00 00	 movss	 xmm0, DWORD PTR __real@c0400000
  0022f	f3 0f 11 04 24	 movss	 DWORD PTR [esp], xmm0
  00234	51		 push	 ecx
  00235	0f 57 c0	 xorps	 xmm0, xmm0
  00238	f3 0f 11 04 24	 movss	 DWORD PTR [esp], xmm0
  0023d	e8 00 00 00 00	 call	 ?set_mono_font_rel_position@@YGXMM@Z ; set_mono_font_rel_position

; 857  : 		print_mono_font_string("0");

  00242	68 00 00 00 00	 push	 OFFSET ??_C@_01GBGANLPD@0@
  00247	e8 00 00 00 00	 call	 ?print_mono_font_string@@YGXPBD@Z ; print_mono_font_string

; 858  : 
; 859  : 		set_2d_mono_font_position(-0.78, -0.65);

  0024c	51		 push	 ecx
  0024d	f3 0f 10 05 00
	00 00 00	 movss	 xmm0, DWORD PTR __real@bf266666
  00255	f3 0f 11 04 24	 movss	 DWORD PTR [esp], xmm0
  0025a	51		 push	 ecx
  0025b	f3 0f 10 05 00
	00 00 00	 movss	 xmm0, DWORD PTR __real@bf47ae14
  00263	f3 0f 11 04 24	 movss	 DWORD PTR [esp], xmm0
  00268	e8 00 00 00 00	 call	 ?set_2d_mono_font_position@@YGXMM@Z ; set_2d_mono_font_position

; 860  : 		set_mono_font_rel_position (0.0, -3.0);

  0026d	51		 push	 ecx
  0026e	f3 0f 10 05 00
	00 00 00	 movss	 xmm0, DWORD PTR __real@c0400000
  00276	f3 0f 11 04 24	 movss	 DWORD PTR [esp], xmm0
  0027b	51		 push	 ecx
  0027c	0f 57 c0	 xorps	 xmm0, xmm0
  0027f	f3 0f 11 04 24	 movss	 DWORD PTR [esp], xmm0
  00284	e8 00 00 00 00	 call	 ?set_mono_font_rel_position@@YGXMM@Z ; set_mono_font_rel_position

; 861  : 		print_mono_font_string("1");

  00289	68 00 00 00 00	 push	 OFFSET ??_C@_01HIHLOKLC@1@
  0028e	e8 00 00 00 00	 call	 ?print_mono_font_string@@YGXPBD@Z ; print_mono_font_string

; 862  : 
; 863  : 		if (draw_large_hud)

  00293	83 3d 00 00 00
	00 00		 cmp	 DWORD PTR ?draw_large_hud@@3HA, 0
  0029a	74 37		 je	 SHORT $LN4@display_g_

; 864  : 			draw_2d_mono_sprite(large_left_carat, -0.7, -0.55 + y_offset, hud_colour);

  0029c	a1 00 00 00 00	 mov	 eax, DWORD PTR ?hud_colour@@3UREAL_COLOUR@@A ; hud_colour
  002a1	50		 push	 eax
  002a2	f3 0f 5a 45 fc	 cvtss2sd xmm0, DWORD PTR _y_offset$[ebp]
  002a7	f2 0f 58 05 00
	00 00 00	 addsd	 xmm0, QWORD PTR __real@bfe199999999999a
  002af	f2 0f 5a c0	 cvtsd2ss xmm0, xmm0
  002b3	51		 push	 ecx
  002b4	f3 0f 11 04 24	 movss	 DWORD PTR [esp], xmm0
  002b9	51		 push	 ecx
  002ba	f3 0f 10 05 00
	00 00 00	 movss	 xmm0, DWORD PTR __real@bf333333
  002c2	f3 0f 11 04 24	 movss	 DWORD PTR [esp], xmm0
  002c7	68 00 00 00 00	 push	 OFFSET ?large_left_carat@@3PADA
  002cc	e8 00 00 00 00	 call	 ?draw_2d_mono_sprite@@YGXPBDMMUREAL_COLOUR@@@Z ; draw_2d_mono_sprite

; 865  : 		else

  002d1	eb 35		 jmp	 SHORT $LN5@display_g_
$LN4@display_g_:

; 866  : 			draw_2d_mono_sprite(small_left_carat, -0.7, -0.55 + y_offset, hud_colour);

  002d3	a1 00 00 00 00	 mov	 eax, DWORD PTR ?hud_colour@@3UREAL_COLOUR@@A ; hud_colour
  002d8	50		 push	 eax
  002d9	f3 0f 5a 45 fc	 cvtss2sd xmm0, DWORD PTR _y_offset$[ebp]
  002de	f2 0f 58 05 00
	00 00 00	 addsd	 xmm0, QWORD PTR __real@bfe199999999999a
  002e6	f2 0f 5a c0	 cvtsd2ss xmm0, xmm0
  002ea	51		 push	 ecx
  002eb	f3 0f 11 04 24	 movss	 DWORD PTR [esp], xmm0
  002f0	51		 push	 ecx
  002f1	f3 0f 10 05 00
	00 00 00	 movss	 xmm0, DWORD PTR __real@bf333333
  002f9	f3 0f 11 04 24	 movss	 DWORD PTR [esp], xmm0
  002fe	68 00 00 00 00	 push	 OFFSET ?small_left_carat@@3PADA
  00303	e8 00 00 00 00	 call	 ?draw_2d_mono_sprite@@YGXPBDMMUREAL_COLOUR@@@Z ; draw_2d_mono_sprite
$LN5@display_g_:

; 867  : 	}

  00308	5f		 pop	 edi
  00309	5e		 pop	 esi
  0030a	5b		 pop	 ebx
  0030b	8b e5		 mov	 esp, ebp
  0030d	5d		 pop	 ebp
  0030e	c3		 ret	 0
?display_g_scale@@YGXXZ ENDP				; display_g_scale
_TEXT	ENDS
; Function compile flags: /Odtp /ZI
; File c:\users\nhv90\projects\eech\aphavoc\source\gunships\avionics\hokum\hk_hud.c
;	COMDAT ?display_true_airspeed@@YGXXZ
_TEXT	SEGMENT
_s$ = -24						; size = 20
_true_airspeed$ = -4					; size = 4
?display_true_airspeed@@YGXXZ PROC			; display_true_airspeed, COMDAT

; 777  : {

  00000	55		 push	 ebp
  00001	8b ec		 mov	 ebp, esp
  00003	83 ec 58	 sub	 esp, 88			; 00000058H
  00006	53		 push	 ebx
  00007	56		 push	 esi
  00008	57		 push	 edi

; 778  : 	float
; 779  : 		true_airspeed;
; 780  : 
; 781  : 	char
; 782  : 		s[20];
; 783  : 
; 784  : 	true_airspeed = current_flight_dynamics->velocity_z.value;

  00009	a1 00 00 00 00	 mov	 eax, DWORD PTR ?current_flight_dynamics@@3PAUDYNAMICS_TYPE@@A ; current_flight_dynamics
  0000e	f3 0f 10 80 9c
	20 00 00	 movss	 xmm0, DWORD PTR [eax+8348]
  00016	f3 0f 11 45 fc	 movss	 DWORD PTR _true_airspeed$[ebp], xmm0

; 785  : 
; 786  : 	true_airspeed = kilometres_per_hour (true_airspeed);

  0001b	f3 0f 10 45 fc	 movss	 xmm0, DWORD PTR _true_airspeed$[ebp]
  00020	f3 0f 59 05 00
	00 00 00	 mulss	 xmm0, DWORD PTR __real@40666666
  00028	f3 0f 11 45 fc	 movss	 DWORD PTR _true_airspeed$[ebp], xmm0

; 787  : 
; 788  : 	sprintf (s, "%03d", abs((int) true_airspeed));

  0002d	f3 0f 2c 45 fc	 cvttss2si eax, DWORD PTR _true_airspeed$[ebp]
  00032	50		 push	 eax
  00033	e8 00 00 00 00	 call	 _abs
  00038	83 c4 04	 add	 esp, 4
  0003b	50		 push	 eax
  0003c	68 00 00 00 00	 push	 OFFSET ??_C@_04OHGLKFFN@?$CF03d@
  00041	8d 4d e8	 lea	 ecx, DWORD PTR _s$[ebp]
  00044	51		 push	 ecx
  00045	e8 00 00 00 00	 call	 _sprintf
  0004a	83 c4 0c	 add	 esp, 12			; 0000000cH

; 789  : 
; 790  : 	if (true_airspeed <= 50.0 || hud_mode != HUD_MODE_WEAPON)

  0004d	f3 0f 5a 45 fc	 cvtss2sd xmm0, DWORD PTR _true_airspeed$[ebp]
  00052	f2 0f 10 0d 00
	00 00 00	 movsd	 xmm1, QWORD PTR __real@4049000000000000
  0005a	66 0f 2f c8	 comisd	 xmm1, xmm0
  0005e	73 0d		 jae	 SHORT $LN3@display_tr
  00060	83 3d 00 00 00
	00 02		 cmp	 DWORD PTR ?hud_mode@@3W4HUD_MODES@@A, 2 ; hud_mode
  00067	0f 84 88 01 00
	00		 je	 $LN5@display_tr
$LN3@display_tr:

; 791  : 	{
; 792  : 		if (draw_large_hud)

  0006d	83 3d 00 00 00
	00 00		 cmp	 DWORD PTR ?draw_large_hud@@3HA, 0
  00074	0f 84 c0 00 00
	00		 je	 $LN4@display_tr

; 793  : 		{
; 794  : 			set_mono_font_type (MONO_FONT_TYPE_8X14);

  0007a	6a 06		 push	 6
  0007c	e8 00 00 00 00	 call	 ?set_mono_font_type@@YGXW4MONO_FONT_TYPES@@@Z ; set_mono_font_type

; 795  : 			set_2d_mono_font_position (-0.9, 0.95);

  00081	51		 push	 ecx
  00082	f3 0f 10 05 00
	00 00 00	 movss	 xmm0, DWORD PTR __real@3f733333
  0008a	f3 0f 11 04 24	 movss	 DWORD PTR [esp], xmm0
  0008f	51		 push	 ecx
  00090	f3 0f 10 05 00
	00 00 00	 movss	 xmm0, DWORD PTR __real@bf666666
  00098	f3 0f 11 04 24	 movss	 DWORD PTR [esp], xmm0
  0009d	e8 00 00 00 00	 call	 ?set_2d_mono_font_position@@YGXMM@Z ; set_2d_mono_font_position

; 796  : 			set_mono_font_rel_position (5.0, -4.0);

  000a2	51		 push	 ecx
  000a3	f3 0f 10 05 00
	00 00 00	 movss	 xmm0, DWORD PTR __real@c0800000
  000ab	f3 0f 11 04 24	 movss	 DWORD PTR [esp], xmm0
  000b0	51		 push	 ecx
  000b1	f3 0f 10 05 00
	00 00 00	 movss	 xmm0, DWORD PTR __real@40a00000
  000b9	f3 0f 11 04 24	 movss	 DWORD PTR [esp], xmm0
  000be	e8 00 00 00 00	 call	 ?set_mono_font_rel_position@@YGXMM@Z ; set_mono_font_rel_position

; 797  : 	
; 798  : 			if (true_airspeed >= 0.0)

  000c3	f3 0f 5a 45 fc	 cvtss2sd xmm0, DWORD PTR _true_airspeed$[ebp]
  000c8	66 0f 2f 05 00
	00 00 00	 comisd	 xmm0, QWORD PTR __real@0000000000000000
  000d0	72 0c		 jb	 SHORT $LN6@display_tr

; 799  : 				print_mono_font_string("+");

  000d2	68 00 00 00 00	 push	 OFFSET ??_C@_01MIFGBAGJ@?$CL@
  000d7	e8 00 00 00 00	 call	 ?print_mono_font_string@@YGXPBD@Z ; print_mono_font_string

; 800  : 			else

  000dc	eb 0a		 jmp	 SHORT $LN7@display_tr
$LN6@display_tr:

; 801  : 				print_mono_font_string("-");

  000de	68 00 00 00 00	 push	 OFFSET ??_C@_01JOAMLHOP@?9@
  000e3	e8 00 00 00 00	 call	 ?print_mono_font_string@@YGXPBD@Z ; print_mono_font_string
$LN7@display_tr:

; 802  : 	
; 803  : 			set_mono_font_type (MONO_FONT_TYPE_10X16);

  000e8	6a 07		 push	 7
  000ea	e8 00 00 00 00	 call	 ?set_mono_font_type@@YGXW4MONO_FONT_TYPES@@@Z ; set_mono_font_type

; 804  : 			set_2d_mono_font_position (-0.8, 0.95);

  000ef	51		 push	 ecx
  000f0	f3 0f 10 05 00
	00 00 00	 movss	 xmm0, DWORD PTR __real@3f733333
  000f8	f3 0f 11 04 24	 movss	 DWORD PTR [esp], xmm0
  000fd	51		 push	 ecx
  000fe	f3 0f 10 05 00
	00 00 00	 movss	 xmm0, DWORD PTR __real@bf4ccccd
  00106	f3 0f 11 04 24	 movss	 DWORD PTR [esp], xmm0
  0010b	e8 00 00 00 00	 call	 ?set_2d_mono_font_position@@YGXMM@Z ; set_2d_mono_font_position

; 805  : 			set_mono_font_rel_position (0.0, -4.0);

  00110	51		 push	 ecx
  00111	f3 0f 10 05 00
	00 00 00	 movss	 xmm0, DWORD PTR __real@c0800000
  00119	f3 0f 11 04 24	 movss	 DWORD PTR [esp], xmm0
  0011e	51		 push	 ecx
  0011f	0f 57 c0	 xorps	 xmm0, xmm0
  00122	f3 0f 11 04 24	 movss	 DWORD PTR [esp], xmm0
  00127	e8 00 00 00 00	 call	 ?set_mono_font_rel_position@@YGXMM@Z ; set_mono_font_rel_position

; 806  : 			print_mono_font_string (s);

  0012c	8d 45 e8	 lea	 eax, DWORD PTR _s$[ebp]
  0012f	50		 push	 eax
  00130	e8 00 00 00 00	 call	 ?print_mono_font_string@@YGXPBD@Z ; print_mono_font_string

; 807  : 		}
; 808  : 		else

  00135	e9 bb 00 00 00	 jmp	 $LN5@display_tr
$LN4@display_tr:

; 809  : 		{
; 810  : 			set_mono_font_type (MONO_FONT_TYPE_5X7);

  0013a	6a 01		 push	 1
  0013c	e8 00 00 00 00	 call	 ?set_mono_font_type@@YGXW4MONO_FONT_TYPES@@@Z ; set_mono_font_type

; 811  : 			set_2d_mono_font_position (-0.9, 0.9);

  00141	51		 push	 ecx
  00142	f3 0f 10 05 00
	00 00 00	 movss	 xmm0, DWORD PTR __real@3f666666
  0014a	f3 0f 11 04 24	 movss	 DWORD PTR [esp], xmm0
  0014f	51		 push	 ecx
  00150	f3 0f 10 05 00
	00 00 00	 movss	 xmm0, DWORD PTR __real@bf666666
  00158	f3 0f 11 04 24	 movss	 DWORD PTR [esp], xmm0
  0015d	e8 00 00 00 00	 call	 ?set_2d_mono_font_position@@YGXMM@Z ; set_2d_mono_font_position

; 812  : 			set_mono_font_rel_position (3.0, -4.0);

  00162	51		 push	 ecx
  00163	f3 0f 10 05 00
	00 00 00	 movss	 xmm0, DWORD PTR __real@c0800000
  0016b	f3 0f 11 04 24	 movss	 DWORD PTR [esp], xmm0
  00170	51		 push	 ecx
  00171	f3 0f 10 05 00
	00 00 00	 movss	 xmm0, DWORD PTR __real@40400000
  00179	f3 0f 11 04 24	 movss	 DWORD PTR [esp], xmm0
  0017e	e8 00 00 00 00	 call	 ?set_mono_font_rel_position@@YGXMM@Z ; set_mono_font_rel_position

; 813  : 	
; 814  : 			if (true_airspeed >= 0.0)

  00183	f3 0f 5a 45 fc	 cvtss2sd xmm0, DWORD PTR _true_airspeed$[ebp]
  00188	66 0f 2f 05 00
	00 00 00	 comisd	 xmm0, QWORD PTR __real@0000000000000000
  00190	72 0c		 jb	 SHORT $LN8@display_tr

; 815  : 				print_mono_font_string("+");

  00192	68 00 00 00 00	 push	 OFFSET ??_C@_01MIFGBAGJ@?$CL@
  00197	e8 00 00 00 00	 call	 ?print_mono_font_string@@YGXPBD@Z ; print_mono_font_string

; 816  : 			else

  0019c	eb 0a		 jmp	 SHORT $LN9@display_tr
$LN8@display_tr:

; 817  : 				print_mono_font_string("-");

  0019e	68 00 00 00 00	 push	 OFFSET ??_C@_01JOAMLHOP@?9@
  001a3	e8 00 00 00 00	 call	 ?print_mono_font_string@@YGXPBD@Z ; print_mono_font_string
$LN9@display_tr:

; 818  : 	
; 819  : 			set_mono_font_type (MONO_FONT_TYPE_6X10);

  001a8	6a 04		 push	 4
  001aa	e8 00 00 00 00	 call	 ?set_mono_font_type@@YGXW4MONO_FONT_TYPES@@@Z ; set_mono_font_type

; 820  : 			set_2d_mono_font_position (-0.75, 0.9);

  001af	51		 push	 ecx
  001b0	f3 0f 10 05 00
	00 00 00	 movss	 xmm0, DWORD PTR __real@3f666666
  001b8	f3 0f 11 04 24	 movss	 DWORD PTR [esp], xmm0
  001bd	51		 push	 ecx
  001be	f3 0f 10 05 00
	00 00 00	 movss	 xmm0, DWORD PTR __real@bf400000
  001c6	f3 0f 11 04 24	 movss	 DWORD PTR [esp], xmm0
  001cb	e8 00 00 00 00	 call	 ?set_2d_mono_font_position@@YGXMM@Z ; set_2d_mono_font_position

; 821  : 			set_mono_font_rel_position (0.0, -5.0);

  001d0	51		 push	 ecx
  001d1	f3 0f 10 05 00
	00 00 00	 movss	 xmm0, DWORD PTR __real@c0a00000
  001d9	f3 0f 11 04 24	 movss	 DWORD PTR [esp], xmm0
  001de	51		 push	 ecx
  001df	0f 57 c0	 xorps	 xmm0, xmm0
  001e2	f3 0f 11 04 24	 movss	 DWORD PTR [esp], xmm0
  001e7	e8 00 00 00 00	 call	 ?set_mono_font_rel_position@@YGXMM@Z ; set_mono_font_rel_position

; 822  : 			print_mono_font_string (s);

  001ec	8d 45 e8	 lea	 eax, DWORD PTR _s$[ebp]
  001ef	50		 push	 eax
  001f0	e8 00 00 00 00	 call	 ?print_mono_font_string@@YGXPBD@Z ; print_mono_font_string
$LN5@display_tr:

; 823  : 		}
; 824  : 	}
; 825  : 
; 826  : 	if (true_airspeed <= 50.0)

  001f5	f3 0f 5a 45 fc	 cvtss2sd xmm0, DWORD PTR _true_airspeed$[ebp]
  001fa	f2 0f 10 0d 00
	00 00 00	 movsd	 xmm1, QWORD PTR __real@4049000000000000
  00202	66 0f 2f c8	 comisd	 xmm1, xmm0
  00206	72 07		 jb	 SHORT $LN10@display_tr

; 827  : 		draw_velocity_vector();

  00208	e8 00 00 00 00	 call	 ?draw_velocity_vector@@YGXXZ ; draw_velocity_vector

; 828  : 	else

  0020d	eb 10		 jmp	 SHORT $LN11@display_tr
$LN10@display_tr:

; 829  : 		draw_velocity_scale(true_airspeed);

  0020f	51		 push	 ecx
  00210	f3 0f 10 45 fc	 movss	 xmm0, DWORD PTR _true_airspeed$[ebp]
  00215	f3 0f 11 04 24	 movss	 DWORD PTR [esp], xmm0
  0021a	e8 00 00 00 00	 call	 ?draw_velocity_scale@@YGXM@Z ; draw_velocity_scale
$LN11@display_tr:

; 830  : }

  0021f	5f		 pop	 edi
  00220	5e		 pop	 esi
  00221	5b		 pop	 ebx
  00222	8b e5		 mov	 esp, ebp
  00224	5d		 pop	 ebp
  00225	c3		 ret	 0
?display_true_airspeed@@YGXXZ ENDP			; display_true_airspeed
_TEXT	ENDS
; Function compile flags: /Odtp /ZI
; File c:\users\nhv90\projects\eech\aphavoc\source\gunships\avionics\hokum\hk_hud.c
;	COMDAT ?draw_velocity_scale@@YGXM@Z
_TEXT	SEGMENT
tv69 = -84						; size = 8
tv70 = -76						; size = 8
_y_offset$ = -4						; size = 4
_airspeed$ = 8						; size = 4
?draw_velocity_scale@@YGXM@Z PROC			; draw_velocity_scale, COMDAT

; 741  : {

  00000	55		 push	 ebp
  00001	8b ec		 mov	 ebp, esp
  00003	83 ec 54	 sub	 esp, 84			; 00000054H
  00006	53		 push	 ebx
  00007	56		 push	 esi
  00008	57		 push	 edi

; 742  : 	float y_offset = bound(airspeed, 0.0, 500.0) * 0.0014;

  00009	f3 0f 5a 45 08	 cvtss2sd xmm0, DWORD PTR _airspeed$[ebp]
  0000e	0f 57 c9	 xorps	 xmm1, xmm1
  00011	66 0f 2f c8	 comisd	 xmm1, xmm0
  00015	76 0a		 jbe	 SHORT $LN9@draw_veloc
  00017	0f 57 c0	 xorps	 xmm0, xmm0
  0001a	f2 0f 11 45 b4	 movsd	 QWORD PTR tv70[ebp], xmm0
  0001f	eb 32		 jmp	 SHORT $LN10@draw_veloc
$LN9@draw_veloc:
  00021	f3 0f 5a 45 08	 cvtss2sd xmm0, DWORD PTR _airspeed$[ebp]
  00026	66 0f 2f 05 00
	00 00 00	 comisd	 xmm0, QWORD PTR __real@407f400000000000
  0002e	76 0f		 jbe	 SHORT $LN7@draw_veloc
  00030	f2 0f 10 05 00
	00 00 00	 movsd	 xmm0, QWORD PTR __real@407f400000000000
  00038	f2 0f 11 45 ac	 movsd	 QWORD PTR tv69[ebp], xmm0
  0003d	eb 0a		 jmp	 SHORT $LN8@draw_veloc
$LN7@draw_veloc:
  0003f	f3 0f 5a 45 08	 cvtss2sd xmm0, DWORD PTR _airspeed$[ebp]
  00044	f2 0f 11 45 ac	 movsd	 QWORD PTR tv69[ebp], xmm0
$LN8@draw_veloc:
  00049	f2 0f 10 45 ac	 movsd	 xmm0, QWORD PTR tv69[ebp]
  0004e	f2 0f 11 45 b4	 movsd	 QWORD PTR tv70[ebp], xmm0
$LN10@draw_veloc:
  00053	f2 0f 10 45 b4	 movsd	 xmm0, QWORD PTR tv70[ebp]
  00058	f2 0f 59 05 00
	00 00 00	 mulsd	 xmm0, QWORD PTR __real@3f56f0068db8bac7
  00060	f2 0f 5a c0	 cvtsd2ss xmm0, xmm0
  00064	f3 0f 11 45 fc	 movss	 DWORD PTR _y_offset$[ebp], xmm0

; 743  : 	
; 744  : 	draw_2d_line(-0.55, 0.1, -0.55, 0.8, hud_colour);

  00069	a1 00 00 00 00	 mov	 eax, DWORD PTR ?hud_colour@@3UREAL_COLOUR@@A ; hud_colour
  0006e	50		 push	 eax
  0006f	51		 push	 ecx
  00070	f3 0f 10 05 00
	00 00 00	 movss	 xmm0, DWORD PTR __real@3f4ccccd
  00078	f3 0f 11 04 24	 movss	 DWORD PTR [esp], xmm0
  0007d	51		 push	 ecx
  0007e	f3 0f 10 05 00
	00 00 00	 movss	 xmm0, DWORD PTR __real@bf0ccccd
  00086	f3 0f 11 04 24	 movss	 DWORD PTR [esp], xmm0
  0008b	51		 push	 ecx
  0008c	f3 0f 10 05 00
	00 00 00	 movss	 xmm0, DWORD PTR __real@3dcccccd
  00094	f3 0f 11 04 24	 movss	 DWORD PTR [esp], xmm0
  00099	51		 push	 ecx
  0009a	f3 0f 10 05 00
	00 00 00	 movss	 xmm0, DWORD PTR __real@bf0ccccd
  000a2	f3 0f 11 04 24	 movss	 DWORD PTR [esp], xmm0
  000a7	e8 00 00 00 00	 call	 ?draw_2d_line@@YGXMMMMUREAL_COLOUR@@@Z ; draw_2d_line

; 745  : 	
; 746  : 	draw_2d_line(-0.55, 0.1, -0.575, 0.1, hud_colour);

  000ac	a1 00 00 00 00	 mov	 eax, DWORD PTR ?hud_colour@@3UREAL_COLOUR@@A ; hud_colour
  000b1	50		 push	 eax
  000b2	51		 push	 ecx
  000b3	f3 0f 10 05 00
	00 00 00	 movss	 xmm0, DWORD PTR __real@3dcccccd
  000bb	f3 0f 11 04 24	 movss	 DWORD PTR [esp], xmm0
  000c0	51		 push	 ecx
  000c1	f3 0f 10 05 00
	00 00 00	 movss	 xmm0, DWORD PTR __real@bf133333
  000c9	f3 0f 11 04 24	 movss	 DWORD PTR [esp], xmm0
  000ce	51		 push	 ecx
  000cf	f3 0f 10 05 00
	00 00 00	 movss	 xmm0, DWORD PTR __real@3dcccccd
  000d7	f3 0f 11 04 24	 movss	 DWORD PTR [esp], xmm0
  000dc	51		 push	 ecx
  000dd	f3 0f 10 05 00
	00 00 00	 movss	 xmm0, DWORD PTR __real@bf0ccccd
  000e5	f3 0f 11 04 24	 movss	 DWORD PTR [esp], xmm0
  000ea	e8 00 00 00 00	 call	 ?draw_2d_line@@YGXMMMMUREAL_COLOUR@@@Z ; draw_2d_line

; 747  : 	draw_2d_line(-0.55, 0.24, -0.575, 0.24, hud_colour);

  000ef	a1 00 00 00 00	 mov	 eax, DWORD PTR ?hud_colour@@3UREAL_COLOUR@@A ; hud_colour
  000f4	50		 push	 eax
  000f5	51		 push	 ecx
  000f6	f3 0f 10 05 00
	00 00 00	 movss	 xmm0, DWORD PTR __real@3e75c28f
  000fe	f3 0f 11 04 24	 movss	 DWORD PTR [esp], xmm0
  00103	51		 push	 ecx
  00104	f3 0f 10 05 00
	00 00 00	 movss	 xmm0, DWORD PTR __real@bf133333
  0010c	f3 0f 11 04 24	 movss	 DWORD PTR [esp], xmm0
  00111	51		 push	 ecx
  00112	f3 0f 10 05 00
	00 00 00	 movss	 xmm0, DWORD PTR __real@3e75c28f
  0011a	f3 0f 11 04 24	 movss	 DWORD PTR [esp], xmm0
  0011f	51		 push	 ecx
  00120	f3 0f 10 05 00
	00 00 00	 movss	 xmm0, DWORD PTR __real@bf0ccccd
  00128	f3 0f 11 04 24	 movss	 DWORD PTR [esp], xmm0
  0012d	e8 00 00 00 00	 call	 ?draw_2d_line@@YGXMMMMUREAL_COLOUR@@@Z ; draw_2d_line

; 748  : 	draw_2d_line(-0.55, 0.38, -0.575, 0.38, hud_colour);

  00132	a1 00 00 00 00	 mov	 eax, DWORD PTR ?hud_colour@@3UREAL_COLOUR@@A ; hud_colour
  00137	50		 push	 eax
  00138	51		 push	 ecx
  00139	f3 0f 10 05 00
	00 00 00	 movss	 xmm0, DWORD PTR __real@3ec28f5c
  00141	f3 0f 11 04 24	 movss	 DWORD PTR [esp], xmm0
  00146	51		 push	 ecx
  00147	f3 0f 10 05 00
	00 00 00	 movss	 xmm0, DWORD PTR __real@bf133333
  0014f	f3 0f 11 04 24	 movss	 DWORD PTR [esp], xmm0
  00154	51		 push	 ecx
  00155	f3 0f 10 05 00
	00 00 00	 movss	 xmm0, DWORD PTR __real@3ec28f5c
  0015d	f3 0f 11 04 24	 movss	 DWORD PTR [esp], xmm0
  00162	51		 push	 ecx
  00163	f3 0f 10 05 00
	00 00 00	 movss	 xmm0, DWORD PTR __real@bf0ccccd
  0016b	f3 0f 11 04 24	 movss	 DWORD PTR [esp], xmm0
  00170	e8 00 00 00 00	 call	 ?draw_2d_line@@YGXMMMMUREAL_COLOUR@@@Z ; draw_2d_line

; 749  : 	draw_2d_line(-0.55, 0.52, -0.575, 0.52, hud_colour);

  00175	a1 00 00 00 00	 mov	 eax, DWORD PTR ?hud_colour@@3UREAL_COLOUR@@A ; hud_colour
  0017a	50		 push	 eax
  0017b	51		 push	 ecx
  0017c	f3 0f 10 05 00
	00 00 00	 movss	 xmm0, DWORD PTR __real@3f051eb8
  00184	f3 0f 11 04 24	 movss	 DWORD PTR [esp], xmm0
  00189	51		 push	 ecx
  0018a	f3 0f 10 05 00
	00 00 00	 movss	 xmm0, DWORD PTR __real@bf133333
  00192	f3 0f 11 04 24	 movss	 DWORD PTR [esp], xmm0
  00197	51		 push	 ecx
  00198	f3 0f 10 05 00
	00 00 00	 movss	 xmm0, DWORD PTR __real@3f051eb8
  001a0	f3 0f 11 04 24	 movss	 DWORD PTR [esp], xmm0
  001a5	51		 push	 ecx
  001a6	f3 0f 10 05 00
	00 00 00	 movss	 xmm0, DWORD PTR __real@bf0ccccd
  001ae	f3 0f 11 04 24	 movss	 DWORD PTR [esp], xmm0
  001b3	e8 00 00 00 00	 call	 ?draw_2d_line@@YGXMMMMUREAL_COLOUR@@@Z ; draw_2d_line

; 750  : 	draw_2d_line(-0.55, 0.66, -0.575, 0.66, hud_colour);

  001b8	a1 00 00 00 00	 mov	 eax, DWORD PTR ?hud_colour@@3UREAL_COLOUR@@A ; hud_colour
  001bd	50		 push	 eax
  001be	51		 push	 ecx
  001bf	f3 0f 10 05 00
	00 00 00	 movss	 xmm0, DWORD PTR __real@3f28f5c3
  001c7	f3 0f 11 04 24	 movss	 DWORD PTR [esp], xmm0
  001cc	51		 push	 ecx
  001cd	f3 0f 10 05 00
	00 00 00	 movss	 xmm0, DWORD PTR __real@bf133333
  001d5	f3 0f 11 04 24	 movss	 DWORD PTR [esp], xmm0
  001da	51		 push	 ecx
  001db	f3 0f 10 05 00
	00 00 00	 movss	 xmm0, DWORD PTR __real@3f28f5c3
  001e3	f3 0f 11 04 24	 movss	 DWORD PTR [esp], xmm0
  001e8	51		 push	 ecx
  001e9	f3 0f 10 05 00
	00 00 00	 movss	 xmm0, DWORD PTR __real@bf0ccccd
  001f1	f3 0f 11 04 24	 movss	 DWORD PTR [esp], xmm0
  001f6	e8 00 00 00 00	 call	 ?draw_2d_line@@YGXMMMMUREAL_COLOUR@@@Z ; draw_2d_line

; 751  : 	draw_2d_line(-0.55, 0.80, -0.575, 0.80, hud_colour);

  001fb	a1 00 00 00 00	 mov	 eax, DWORD PTR ?hud_colour@@3UREAL_COLOUR@@A ; hud_colour
  00200	50		 push	 eax
  00201	51		 push	 ecx
  00202	f3 0f 10 05 00
	00 00 00	 movss	 xmm0, DWORD PTR __real@3f4ccccd
  0020a	f3 0f 11 04 24	 movss	 DWORD PTR [esp], xmm0
  0020f	51		 push	 ecx
  00210	f3 0f 10 05 00
	00 00 00	 movss	 xmm0, DWORD PTR __real@bf133333
  00218	f3 0f 11 04 24	 movss	 DWORD PTR [esp], xmm0
  0021d	51		 push	 ecx
  0021e	f3 0f 10 05 00
	00 00 00	 movss	 xmm0, DWORD PTR __real@3f4ccccd
  00226	f3 0f 11 04 24	 movss	 DWORD PTR [esp], xmm0
  0022b	51		 push	 ecx
  0022c	f3 0f 10 05 00
	00 00 00	 movss	 xmm0, DWORD PTR __real@bf0ccccd
  00234	f3 0f 11 04 24	 movss	 DWORD PTR [esp], xmm0
  00239	e8 00 00 00 00	 call	 ?draw_2d_line@@YGXMMMMUREAL_COLOUR@@@Z ; draw_2d_line

; 752  : 
; 753  : 	draw_2d_line(-0.55, 0.54, -0.525, 0.54, hud_colour);

  0023e	a1 00 00 00 00	 mov	 eax, DWORD PTR ?hud_colour@@3UREAL_COLOUR@@A ; hud_colour
  00243	50		 push	 eax
  00244	51		 push	 ecx
  00245	f3 0f 10 05 00
	00 00 00	 movss	 xmm0, DWORD PTR __real@3f0a3d71
  0024d	f3 0f 11 04 24	 movss	 DWORD PTR [esp], xmm0
  00252	51		 push	 ecx
  00253	f3 0f 10 05 00
	00 00 00	 movss	 xmm0, DWORD PTR __real@bf066666
  0025b	f3 0f 11 04 24	 movss	 DWORD PTR [esp], xmm0
  00260	51		 push	 ecx
  00261	f3 0f 10 05 00
	00 00 00	 movss	 xmm0, DWORD PTR __real@3f0a3d71
  00269	f3 0f 11 04 24	 movss	 DWORD PTR [esp], xmm0
  0026e	51		 push	 ecx
  0026f	f3 0f 10 05 00
	00 00 00	 movss	 xmm0, DWORD PTR __real@bf0ccccd
  00277	f3 0f 11 04 24	 movss	 DWORD PTR [esp], xmm0
  0027c	e8 00 00 00 00	 call	 ?draw_2d_line@@YGXMMMMUREAL_COLOUR@@@Z ; draw_2d_line

; 754  : 
; 755  : 	if (draw_large_hud)

  00281	83 3d 00 00 00
	00 00		 cmp	 DWORD PTR ?draw_large_hud@@3HA, 0
  00288	74 25		 je	 SHORT $LN2@draw_veloc

; 756  : 	{
; 757  : 		set_mono_font_type(MONO_FONT_TYPE_6X10);

  0028a	6a 04		 push	 4
  0028c	e8 00 00 00 00	 call	 ?set_mono_font_type@@YGXW4MONO_FONT_TYPES@@@Z ; set_mono_font_type

; 758  : 		set_mono_font_rel_position (0.0, -1.0);

  00291	51		 push	 ecx
  00292	f3 0f 10 05 00
	00 00 00	 movss	 xmm0, DWORD PTR __real@bf800000
  0029a	f3 0f 11 04 24	 movss	 DWORD PTR [esp], xmm0
  0029f	51		 push	 ecx
  002a0	0f 57 c0	 xorps	 xmm0, xmm0
  002a3	f3 0f 11 04 24	 movss	 DWORD PTR [esp], xmm0
  002a8	e8 00 00 00 00	 call	 ?set_mono_font_rel_position@@YGXMM@Z ; set_mono_font_rel_position

; 759  : 	}
; 760  : 	else

  002ad	eb 28		 jmp	 SHORT $LN3@draw_veloc
$LN2@draw_veloc:

; 761  : 	{
; 762  : 		set_mono_font_type(MONO_FONT_TYPE_3X6);

  002af	6a 00		 push	 0
  002b1	e8 00 00 00 00	 call	 ?set_mono_font_type@@YGXW4MONO_FONT_TYPES@@@Z ; set_mono_font_type

; 763  : 		set_mono_font_rel_position (-5.0, -1.0);

  002b6	51		 push	 ecx
  002b7	f3 0f 10 05 00
	00 00 00	 movss	 xmm0, DWORD PTR __real@bf800000
  002bf	f3 0f 11 04 24	 movss	 DWORD PTR [esp], xmm0
  002c4	51		 push	 ecx
  002c5	f3 0f 10 05 00
	00 00 00	 movss	 xmm0, DWORD PTR __real@c0a00000
  002cd	f3 0f 11 04 24	 movss	 DWORD PTR [esp], xmm0
  002d2	e8 00 00 00 00	 call	 ?set_mono_font_rel_position@@YGXMM@Z ; set_mono_font_rel_position
$LN3@draw_veloc:

; 764  : 	}
; 765  : 
; 766  : 	set_2d_mono_font_position(-0.75, 0.8);

  002d7	51		 push	 ecx
  002d8	f3 0f 10 05 00
	00 00 00	 movss	 xmm0, DWORD PTR __real@3f4ccccd
  002e0	f3 0f 11 04 24	 movss	 DWORD PTR [esp], xmm0
  002e5	51		 push	 ecx
  002e6	f3 0f 10 05 00
	00 00 00	 movss	 xmm0, DWORD PTR __real@bf400000
  002ee	f3 0f 11 04 24	 movss	 DWORD PTR [esp], xmm0
  002f3	e8 00 00 00 00	 call	 ?set_2d_mono_font_position@@YGXMM@Z ; set_2d_mono_font_position

; 767  : 
; 768  : 	print_mono_font_string("500");

  002f8	68 00 00 00 00	 push	 OFFSET ??_C@_03OCGDPLBD@500@
  002fd	e8 00 00 00 00	 call	 ?print_mono_font_string@@YGXPBD@Z ; print_mono_font_string

; 769  : 	
; 770  : 	if (draw_large_hud)

  00302	83 3d 00 00 00
	00 00		 cmp	 DWORD PTR ?draw_large_hud@@3HA, 0
  00309	74 37		 je	 SHORT $LN4@draw_veloc

; 771  : 		draw_2d_mono_sprite(large_left_carat, -0.55, 0.1 + y_offset, hud_colour);

  0030b	a1 00 00 00 00	 mov	 eax, DWORD PTR ?hud_colour@@3UREAL_COLOUR@@A ; hud_colour
  00310	50		 push	 eax
  00311	f3 0f 5a 45 fc	 cvtss2sd xmm0, DWORD PTR _y_offset$[ebp]
  00316	f2 0f 58 05 00
	00 00 00	 addsd	 xmm0, QWORD PTR __real@3fb999999999999a
  0031e	f2 0f 5a c0	 cvtsd2ss xmm0, xmm0
  00322	51		 push	 ecx
  00323	f3 0f 11 04 24	 movss	 DWORD PTR [esp], xmm0
  00328	51		 push	 ecx
  00329	f3 0f 10 05 00
	00 00 00	 movss	 xmm0, DWORD PTR __real@bf0ccccd
  00331	f3 0f 11 04 24	 movss	 DWORD PTR [esp], xmm0
  00336	68 00 00 00 00	 push	 OFFSET ?large_left_carat@@3PADA
  0033b	e8 00 00 00 00	 call	 ?draw_2d_mono_sprite@@YGXPBDMMUREAL_COLOUR@@@Z ; draw_2d_mono_sprite

; 772  : 	else

  00340	eb 35		 jmp	 SHORT $LN5@draw_veloc
$LN4@draw_veloc:

; 773  : 		draw_2d_mono_sprite(small_left_carat, -0.55, 0.1 + y_offset, hud_colour);

  00342	a1 00 00 00 00	 mov	 eax, DWORD PTR ?hud_colour@@3UREAL_COLOUR@@A ; hud_colour
  00347	50		 push	 eax
  00348	f3 0f 5a 45 fc	 cvtss2sd xmm0, DWORD PTR _y_offset$[ebp]
  0034d	f2 0f 58 05 00
	00 00 00	 addsd	 xmm0, QWORD PTR __real@3fb999999999999a
  00355	f2 0f 5a c0	 cvtsd2ss xmm0, xmm0
  00359	51		 push	 ecx
  0035a	f3 0f 11 04 24	 movss	 DWORD PTR [esp], xmm0
  0035f	51		 push	 ecx
  00360	f3 0f 10 05 00
	00 00 00	 movss	 xmm0, DWORD PTR __real@bf0ccccd
  00368	f3 0f 11 04 24	 movss	 DWORD PTR [esp], xmm0
  0036d	68 00 00 00 00	 push	 OFFSET ?small_left_carat@@3PADA
  00372	e8 00 00 00 00	 call	 ?draw_2d_mono_sprite@@YGXPBDMMUREAL_COLOUR@@@Z ; draw_2d_mono_sprite
$LN5@draw_veloc:

; 774  : }

  00377	5f		 pop	 edi
  00378	5e		 pop	 esi
  00379	5b		 pop	 ebx
  0037a	8b e5		 mov	 esp, ebp
  0037c	5d		 pop	 ebp
  0037d	c2 04 00	 ret	 4
?draw_velocity_scale@@YGXM@Z ENDP			; draw_velocity_scale
_TEXT	ENDS
; Function compile flags: /Odtp /ZI
; File c:\users\nhv90\projects\eech\aphavoc\source\gunships\avionics\hokum\hk_hud.c
;	COMDAT ?draw_velocity_vector@@YGXXZ
_TEXT	SEGMENT
tv135 = -92						; size = 8
tv84 = -92						; size = 8
tv188 = -84						; size = 8
tv181 = -84						; size = 8
tv169 = -84						; size = 8
tv162 = -84						; size = 8
tv136 = -84						; size = 8
tv85 = -84						; size = 8
_z$ = -12						; size = 4
_x$ = -8						; size = 4
_scale$ = -4						; size = 4
?draw_velocity_vector@@YGXXZ PROC			; draw_velocity_vector, COMDAT

; 712  : {

  00000	55		 push	 ebp
  00001	8b ec		 mov	 ebp, esp
  00003	83 ec 5c	 sub	 esp, 92			; 0000005cH
  00006	53		 push	 ebx
  00007	56		 push	 esi
  00008	57		 push	 edi

; 713  : #define VV_CUTOFF_VELOCITY kilometres_per_hour_to_metres_per_second(50.0)
; 714  : 	float scale, x, z;
; 715  : 	
; 716  : 	z = current_flight_dynamics->velocity_z.value;

  00009	a1 00 00 00 00	 mov	 eax, DWORD PTR ?current_flight_dynamics@@3PAUDYNAMICS_TYPE@@A ; current_flight_dynamics
  0000e	f3 0f 10 80 9c
	20 00 00	 movss	 xmm0, DWORD PTR [eax+8348]
  00016	f3 0f 11 45 f4	 movss	 DWORD PTR _z$[ebp], xmm0

; 717  : 	x = current_flight_dynamics->velocity_x.value;

  0001b	a1 00 00 00 00	 mov	 eax, DWORD PTR ?current_flight_dynamics@@3PAUDYNAMICS_TYPE@@A ; current_flight_dynamics
  00020	f3 0f 10 80 6c
	20 00 00	 movss	 xmm0, DWORD PTR [eax+8300]
  00028	f3 0f 11 45 f8	 movss	 DWORD PTR _x$[ebp], xmm0

; 718  : 
; 719  : 	// cutoff the velocity marker if it gets too far from center
; 720  : 	if (fabs(z) > VV_CUTOFF_VELOCITY)

  0002d	51		 push	 ecx
  0002e	f3 0f 10 45 f4	 movss	 xmm0, DWORD PTR _z$[ebp]
  00033	f3 0f 11 04 24	 movss	 DWORD PTR [esp], xmm0
  00038	e8 00 00 00 00	 call	 ?fabs@@YGMM@Z		; fabs
  0003d	dd 5d ac	 fstp	 QWORD PTR tv162[ebp]
  00040	f2 0f 10 45 ac	 movsd	 xmm0, QWORD PTR tv162[ebp]
  00045	66 0f 2f 05 00
	00 00 00	 comisd	 xmm0, QWORD PTR __real@402bc71c71c71c72
  0004d	0f 86 90 00 00
	00		 jbe	 $LN2@draw_veloc

; 721  : 	{
; 722  : 		x *= VV_CUTOFF_VELOCITY / fabs(z);

  00053	51		 push	 ecx
  00054	f3 0f 10 45 f4	 movss	 xmm0, DWORD PTR _z$[ebp]
  00059	f3 0f 11 04 24	 movss	 DWORD PTR [esp], xmm0
  0005e	e8 00 00 00 00	 call	 ?fabs@@YGMM@Z		; fabs
  00063	dd 5d ac	 fstp	 QWORD PTR tv169[ebp]
  00066	f2 0f 10 05 00
	00 00 00	 movsd	 xmm0, QWORD PTR __real@402bc71c71c71c72
  0006e	f2 0f 5e 45 ac	 divsd	 xmm0, QWORD PTR tv169[ebp]
  00073	f3 0f 5a 4d f8	 cvtss2sd xmm1, DWORD PTR _x$[ebp]
  00078	f2 0f 59 c8	 mulsd	 xmm1, xmm0
  0007c	f2 0f 5a c1	 cvtsd2ss xmm0, xmm1
  00080	f3 0f 11 45 f8	 movss	 DWORD PTR _x$[ebp], xmm0

; 723  : 		z = bound(z, -VV_CUTOFF_VELOCITY, VV_CUTOFF_VELOCITY);

  00085	f3 0f 5a 45 f4	 cvtss2sd xmm0, DWORD PTR _z$[ebp]
  0008a	f2 0f 10 0d 00
	00 00 00	 movsd	 xmm1, QWORD PTR __real@c02bc71c71c71c72
  00092	66 0f 2f c8	 comisd	 xmm1, xmm0
  00096	76 0f		 jbe	 SHORT $LN7@draw_veloc
  00098	f2 0f 10 05 00
	00 00 00	 movsd	 xmm0, QWORD PTR __real@c02bc71c71c71c72
  000a0	f2 0f 11 45 ac	 movsd	 QWORD PTR tv85[ebp], xmm0
  000a5	eb 32		 jmp	 SHORT $LN8@draw_veloc
$LN7@draw_veloc:
  000a7	f3 0f 5a 45 f4	 cvtss2sd xmm0, DWORD PTR _z$[ebp]
  000ac	66 0f 2f 05 00
	00 00 00	 comisd	 xmm0, QWORD PTR __real@402bc71c71c71c72
  000b4	76 0f		 jbe	 SHORT $LN5@draw_veloc
  000b6	f2 0f 10 05 00
	00 00 00	 movsd	 xmm0, QWORD PTR __real@402bc71c71c71c72
  000be	f2 0f 11 45 a4	 movsd	 QWORD PTR tv84[ebp], xmm0
  000c3	eb 0a		 jmp	 SHORT $LN6@draw_veloc
$LN5@draw_veloc:
  000c5	f3 0f 5a 45 f4	 cvtss2sd xmm0, DWORD PTR _z$[ebp]
  000ca	f2 0f 11 45 a4	 movsd	 QWORD PTR tv84[ebp], xmm0
$LN6@draw_veloc:
  000cf	f2 0f 10 45 a4	 movsd	 xmm0, QWORD PTR tv84[ebp]
  000d4	f2 0f 11 45 ac	 movsd	 QWORD PTR tv85[ebp], xmm0
$LN8@draw_veloc:
  000d9	f2 0f 5a 45 ac	 cvtsd2ss xmm0, QWORD PTR tv85[ebp]
  000de	f3 0f 11 45 f4	 movss	 DWORD PTR _z$[ebp], xmm0
$LN2@draw_veloc:

; 724  : 	}
; 725  : 	if (fabs(x) > VV_CUTOFF_VELOCITY)

  000e3	51		 push	 ecx
  000e4	f3 0f 10 45 f8	 movss	 xmm0, DWORD PTR _x$[ebp]
  000e9	f3 0f 11 04 24	 movss	 DWORD PTR [esp], xmm0
  000ee	e8 00 00 00 00	 call	 ?fabs@@YGMM@Z		; fabs
  000f3	dd 5d ac	 fstp	 QWORD PTR tv181[ebp]
  000f6	f2 0f 10 45 ac	 movsd	 xmm0, QWORD PTR tv181[ebp]
  000fb	66 0f 2f 05 00
	00 00 00	 comisd	 xmm0, QWORD PTR __real@402bc71c71c71c72
  00103	0f 86 90 00 00
	00		 jbe	 $LN3@draw_veloc

; 726  : 	{
; 727  : 		z *= VV_CUTOFF_VELOCITY / fabs(x);

  00109	51		 push	 ecx
  0010a	f3 0f 10 45 f8	 movss	 xmm0, DWORD PTR _x$[ebp]
  0010f	f3 0f 11 04 24	 movss	 DWORD PTR [esp], xmm0
  00114	e8 00 00 00 00	 call	 ?fabs@@YGMM@Z		; fabs
  00119	dd 5d ac	 fstp	 QWORD PTR tv188[ebp]
  0011c	f2 0f 10 05 00
	00 00 00	 movsd	 xmm0, QWORD PTR __real@402bc71c71c71c72
  00124	f2 0f 5e 45 ac	 divsd	 xmm0, QWORD PTR tv188[ebp]
  00129	f3 0f 5a 4d f4	 cvtss2sd xmm1, DWORD PTR _z$[ebp]
  0012e	f2 0f 59 c8	 mulsd	 xmm1, xmm0
  00132	f2 0f 5a c1	 cvtsd2ss xmm0, xmm1
  00136	f3 0f 11 45 f4	 movss	 DWORD PTR _z$[ebp], xmm0

; 728  : 		x = bound(x, -VV_CUTOFF_VELOCITY, VV_CUTOFF_VELOCITY);

  0013b	f3 0f 5a 45 f8	 cvtss2sd xmm0, DWORD PTR _x$[ebp]
  00140	f2 0f 10 0d 00
	00 00 00	 movsd	 xmm1, QWORD PTR __real@c02bc71c71c71c72
  00148	66 0f 2f c8	 comisd	 xmm1, xmm0
  0014c	76 0f		 jbe	 SHORT $LN11@draw_veloc
  0014e	f2 0f 10 05 00
	00 00 00	 movsd	 xmm0, QWORD PTR __real@c02bc71c71c71c72
  00156	f2 0f 11 45 ac	 movsd	 QWORD PTR tv136[ebp], xmm0
  0015b	eb 32		 jmp	 SHORT $LN12@draw_veloc
$LN11@draw_veloc:
  0015d	f3 0f 5a 45 f8	 cvtss2sd xmm0, DWORD PTR _x$[ebp]
  00162	66 0f 2f 05 00
	00 00 00	 comisd	 xmm0, QWORD PTR __real@402bc71c71c71c72
  0016a	76 0f		 jbe	 SHORT $LN9@draw_veloc
  0016c	f2 0f 10 05 00
	00 00 00	 movsd	 xmm0, QWORD PTR __real@402bc71c71c71c72
  00174	f2 0f 11 45 a4	 movsd	 QWORD PTR tv135[ebp], xmm0
  00179	eb 0a		 jmp	 SHORT $LN10@draw_veloc
$LN9@draw_veloc:
  0017b	f3 0f 5a 45 f8	 cvtss2sd xmm0, DWORD PTR _x$[ebp]
  00180	f2 0f 11 45 a4	 movsd	 QWORD PTR tv135[ebp], xmm0
$LN10@draw_veloc:
  00185	f2 0f 10 45 a4	 movsd	 xmm0, QWORD PTR tv135[ebp]
  0018a	f2 0f 11 45 ac	 movsd	 QWORD PTR tv136[ebp], xmm0
$LN12@draw_veloc:
  0018f	f2 0f 5a 45 ac	 cvtsd2ss xmm0, QWORD PTR tv136[ebp]
  00194	f3 0f 11 45 f8	 movss	 DWORD PTR _x$[ebp], xmm0
$LN3@draw_veloc:

; 729  : 	}
; 730  : 
; 731  : 	// from center use 50% of the hud area
; 732  : 	scale = (0.5 / VV_CUTOFF_VELOCITY);

  00199	f3 0f 10 05 00
	00 00 00	 movss	 xmm0, DWORD PTR __real@3d1374bc
  001a1	f3 0f 11 45 fc	 movss	 DWORD PTR _scale$[ebp], xmm0

; 733  : 
; 734  : 	x *= scale;

  001a6	f3 0f 10 45 f8	 movss	 xmm0, DWORD PTR _x$[ebp]
  001ab	f3 0f 59 45 fc	 mulss	 xmm0, DWORD PTR _scale$[ebp]
  001b0	f3 0f 11 45 f8	 movss	 DWORD PTR _x$[ebp], xmm0

; 735  : 	z *= scale;

  001b5	f3 0f 10 45 f4	 movss	 xmm0, DWORD PTR _z$[ebp]
  001ba	f3 0f 59 45 fc	 mulss	 xmm0, DWORD PTR _scale$[ebp]
  001bf	f3 0f 11 45 f4	 movss	 DWORD PTR _z$[ebp], xmm0

; 736  : 
; 737  : 	draw_line_func(0.0, 0.0, x, z, hud_colour);

  001c4	a1 00 00 00 00	 mov	 eax, DWORD PTR ?hud_colour@@3UREAL_COLOUR@@A ; hud_colour
  001c9	50		 push	 eax
  001ca	51		 push	 ecx
  001cb	f3 0f 10 45 f4	 movss	 xmm0, DWORD PTR _z$[ebp]
  001d0	f3 0f 11 04 24	 movss	 DWORD PTR [esp], xmm0
  001d5	51		 push	 ecx
  001d6	f3 0f 10 45 f8	 movss	 xmm0, DWORD PTR _x$[ebp]
  001db	f3 0f 11 04 24	 movss	 DWORD PTR [esp], xmm0
  001e0	51		 push	 ecx
  001e1	0f 57 c0	 xorps	 xmm0, xmm0
  001e4	f3 0f 11 04 24	 movss	 DWORD PTR [esp], xmm0
  001e9	51		 push	 ecx
  001ea	0f 57 c0	 xorps	 xmm0, xmm0
  001ed	f3 0f 11 04 24	 movss	 DWORD PTR [esp], xmm0
  001f2	ff 15 00 00 00
	00		 call	 DWORD PTR ?draw_line_func@@3P6GXMMMMUREAL_COLOUR@@@ZA

; 738  : }

  001f8	5f		 pop	 edi
  001f9	5e		 pop	 esi
  001fa	5b		 pop	 ebx
  001fb	8b e5		 mov	 esp, ebp
  001fd	5d		 pop	 ebp
  001fe	c3		 ret	 0
?draw_velocity_vector@@YGXXZ ENDP			; draw_velocity_vector
_TEXT	ENDS
; Function compile flags: /Odtp /ZI
; File c:\users\nhv90\projects\eech\aphavoc\source\gunships\avionics\hokum\hk_hud.c
;	COMDAT ?draw_heading_scale@@YGXXZ
_TEXT	SEGMENT
tv286 = -168						; size = 8
tv287 = -160						; size = 8
tv264 = -160						; size = 4
tv234 = -160						; size = 4
tv78 = -160						; size = 4
tv256 = -156						; size = 4
tv226 = -156						; size = 4
tv70 = -156						; size = 4
_command_heading$1 = -88				; size = 4
_bearing$2 = -84					; size = 4
_dz$3 = -80						; size = 4
_dx$4 = -76						; size = 4
_waypoint_position$5 = -72				; size = 12
_gunship_position$6 = -60				; size = 4
_wp$7 = -56						; size = 4
_s$ = -52						; size = 20
_int_heading_step_10$ = -32				; size = 4
_loop$ = -28						; size = 4
_j$ = -24						; size = 4
_i$ = -20						; size = 4
_width$ = -16						; size = 4
_x$ = -12						; size = 4
_mod_heading_step_10$ = -8				; size = 4
_heading$ = -4						; size = 4
?draw_heading_scale@@YGXXZ PROC				; draw_heading_scale, COMDAT

; 522  : {

  00000	55		 push	 ebp
  00001	8b ec		 mov	 ebp, esp
  00003	81 ec a8 00 00
	00		 sub	 esp, 168		; 000000a8H
  00009	53		 push	 ebx
  0000a	56		 push	 esi
  0000b	57		 push	 edi

; 523  : 	float
; 524  : 		heading,
; 525  : 		mod_heading_step_10,
; 526  : 		x,
; 527  : 		width,
; 528  : 		i,
; 529  : 		j;
; 530  : 
; 531  : 	int
; 532  : 		loop,
; 533  : 		int_heading_step_10;
; 534  : 
; 535  : 	char
; 536  : 		s[20];
; 537  : 
; 538  : 	//
; 539  : 	// sort first major tick position (draw 2 major ticks either side of centre)
; 540  : 	//
; 541  : 
; 542  : 	heading = get_local_entity_float_value (get_gunship_entity (), FLOAT_TYPE_HEADING);

  0000c	83 3d 00 00 00
	00 00		 cmp	 DWORD PTR ?gunship_entity@@3PAUENTITY@@A, 0 ; gunship_entity
  00013	74 0f		 je	 SHORT $LN25@draw_headi
  00015	a1 00 00 00 00	 mov	 eax, DWORD PTR ?gunship_entity@@3PAUENTITY@@A ; gunship_entity
  0001a	8b 08		 mov	 ecx, DWORD PTR [eax]
  0001c	89 8d 64 ff ff
	ff		 mov	 DWORD PTR tv70[ebp], ecx
  00022	eb 24		 jmp	 SHORT $LN26@draw_headi
$LN25@draw_headi:
  00024	8b 15 00 00 00
	00		 mov	 edx, DWORD PTR ?__LINE__Var@?0??draw_heading_scale@@YGXXZ@4JA
  0002a	83 c2 14	 add	 edx, 20			; 00000014H
  0002d	52		 push	 edx
  0002e	68 00 00 00 00	 push	 OFFSET ??_C@_0EN@DGOLIDKD@c?3?2users?2nhv90?2projects?2eech?2ap@
  00033	a1 00 00 00 00	 mov	 eax, DWORD PTR ?null_entity_pointer_message@@3PBDB ; null_entity_pointer_message
  00038	50		 push	 eax
  00039	e8 00 00 00 00	 call	 ?process_assert@@YGXPBD0H@Z ; process_assert
  0003e	c7 85 64 ff ff
	ff 00 00 00 00	 mov	 DWORD PTR tv70[ebp], 0
$LN26@draw_headi:
  00048	b9 01 00 00 00	 mov	 ecx, 1
  0004d	85 c9		 test	 ecx, ecx
  0004f	74 0c		 je	 SHORT $LN27@draw_headi
  00051	c7 85 60 ff ff
	ff 34 00 00 00	 mov	 DWORD PTR tv78[ebp], 52	; 00000034H
  0005b	eb 24		 jmp	 SHORT $LN28@draw_headi
$LN27@draw_headi:
  0005d	8b 15 00 00 00
	00		 mov	 edx, DWORD PTR ?__LINE__Var@?0??draw_heading_scale@@YGXXZ@4JA
  00063	83 c2 14	 add	 edx, 20			; 00000014H
  00066	52		 push	 edx
  00067	68 00 00 00 00	 push	 OFFSET ??_C@_0EN@DGOLIDKD@c?3?2users?2nhv90?2projects?2eech?2ap@
  0006c	a1 00 00 00 00	 mov	 eax, DWORD PTR ?overload_invalid_float_type_message@@3PBDB ; overload_invalid_float_type_message
  00071	50		 push	 eax
  00072	e8 00 00 00 00	 call	 ?process_assert@@YGXPBD0H@Z ; process_assert
  00077	c7 85 60 ff ff
	ff 00 00 00 00	 mov	 DWORD PTR tv78[ebp], 0
$LN28@draw_headi:
  00081	6a 34		 push	 52			; 00000034H
  00083	8b 0d 00 00 00
	00		 mov	 ecx, DWORD PTR ?gunship_entity@@3PAUENTITY@@A ; gunship_entity
  00089	51		 push	 ecx
  0008a	69 95 64 ff ff
	ff bc 02 00 00	 imul	 edx, DWORD PTR tv70[ebp], 700
  00094	8b 85 60 ff ff
	ff		 mov	 eax, DWORD PTR tv78[ebp]
  0009a	8b 8c 82 00 00
	00 00		 mov	 ecx, DWORD PTR ?fn_get_local_entity_float_value@@3PAY0KP@P6GMPAUENTITY@@W4FLOAT_TYPES@@@ZA[edx+eax*4]
  000a1	ff d1		 call	 ecx
  000a3	d9 5d fc	 fstp	 DWORD PTR _heading$[ebp]

; 543  : 
; 544  : 	heading = deg (heading);

  000a6	f3 0f 10 45 fc	 movss	 xmm0, DWORD PTR _heading$[ebp]
  000ab	f3 0f 59 05 00
	00 00 00	 mulss	 xmm0, DWORD PTR __real@42652ee0
  000b3	f3 0f 11 45 fc	 movss	 DWORD PTR _heading$[ebp], xmm0

; 545  : 
; 546  : 	mod_heading_step_10 = fmod (heading, 10.0f);

  000b8	51		 push	 ecx
  000b9	f3 0f 10 05 00
	00 00 00	 movss	 xmm0, DWORD PTR __real@41200000
  000c1	f3 0f 11 04 24	 movss	 DWORD PTR [esp], xmm0
  000c6	51		 push	 ecx
  000c7	f3 0f 10 45 fc	 movss	 xmm0, DWORD PTR _heading$[ebp]
  000cc	f3 0f 11 04 24	 movss	 DWORD PTR [esp], xmm0
  000d1	e8 00 00 00 00	 call	 ?fmod@@YGMMM@Z		; fmod
  000d6	d9 5d f8	 fstp	 DWORD PTR _mod_heading_step_10$[ebp]

; 547  : 
; 548  : 	int_heading_step_10 = ((int) (heading * 0.1));

  000d9	f3 0f 5a 45 fc	 cvtss2sd xmm0, DWORD PTR _heading$[ebp]
  000de	f2 0f 59 05 00
	00 00 00	 mulsd	 xmm0, QWORD PTR __real@3fb999999999999a
  000e6	f2 0f 2c c0	 cvttsd2si eax, xmm0
  000ea	89 45 e0	 mov	 DWORD PTR _int_heading_step_10$[ebp], eax

; 549  : 
; 550  : 	int_heading_step_10 -= 2;

  000ed	8b 45 e0	 mov	 eax, DWORD PTR _int_heading_step_10$[ebp]
  000f0	83 e8 02	 sub	 eax, 2
  000f3	89 45 e0	 mov	 DWORD PTR _int_heading_step_10$[ebp], eax

; 551  : 
; 552  : 	if (int_heading_step_10 < 0)

  000f6	79 09		 jns	 SHORT $LN5@draw_headi

; 553  : 	{
; 554  : 		int_heading_step_10 += 36;

  000f8	8b 45 e0	 mov	 eax, DWORD PTR _int_heading_step_10$[ebp]
  000fb	83 c0 24	 add	 eax, 36			; 00000024H
  000fe	89 45 e0	 mov	 DWORD PTR _int_heading_step_10$[ebp], eax
$LN5@draw_headi:

; 555  : 	}
; 556  : 
; 557  : 	x = - (20.0 + mod_heading_step_10) * 0.025;

  00101	f3 0f 5a 45 f8	 cvtss2sd xmm0, DWORD PTR _mod_heading_step_10$[ebp]
  00106	f2 0f 58 05 00
	00 00 00	 addsd	 xmm0, QWORD PTR __real@4034000000000000
  0010e	0f 57 05 00 00
	00 00		 xorps	 xmm0, QWORD PTR __xmm@80000000000000008000000000000000
  00115	f2 0f 59 05 00
	00 00 00	 mulsd	 xmm0, QWORD PTR __real@3f9999999999999a
  0011d	f2 0f 5a c0	 cvtsd2ss xmm0, xmm0
  00121	f3 0f 11 45 f4	 movss	 DWORD PTR _x$[ebp], xmm0

; 558  : 
; 559  : 	//
; 560  : 	// draw heading scale line
; 561  : 	//
; 562  : 
; 563  : 	draw_2d_line (-0.25, 0.85, 0.25, 0.85, hud_colour);

  00126	a1 00 00 00 00	 mov	 eax, DWORD PTR ?hud_colour@@3UREAL_COLOUR@@A ; hud_colour
  0012b	50		 push	 eax
  0012c	51		 push	 ecx
  0012d	f3 0f 10 05 00
	00 00 00	 movss	 xmm0, DWORD PTR __real@3f59999a
  00135	f3 0f 11 04 24	 movss	 DWORD PTR [esp], xmm0
  0013a	51		 push	 ecx
  0013b	f3 0f 10 05 00
	00 00 00	 movss	 xmm0, DWORD PTR __real@3e800000
  00143	f3 0f 11 04 24	 movss	 DWORD PTR [esp], xmm0
  00148	51		 push	 ecx
  00149	f3 0f 10 05 00
	00 00 00	 movss	 xmm0, DWORD PTR __real@3f59999a
  00151	f3 0f 11 04 24	 movss	 DWORD PTR [esp], xmm0
  00156	51		 push	 ecx
  00157	f3 0f 10 05 00
	00 00 00	 movss	 xmm0, DWORD PTR __real@be800000
  0015f	f3 0f 11 04 24	 movss	 DWORD PTR [esp], xmm0
  00164	e8 00 00 00 00	 call	 ?draw_2d_line@@YGXMMMMUREAL_COLOUR@@@Z ; draw_2d_line

; 564  : 
; 565  : 	//
; 566  : 	// large and small HUD differences
; 567  : 	//
; 568  : 
; 569  : 	get_2d_float_screen_coordinates (0.0, 0.85, &i, &j);

  00169	8d 45 e8	 lea	 eax, DWORD PTR _j$[ebp]
  0016c	50		 push	 eax
  0016d	8d 4d ec	 lea	 ecx, DWORD PTR _i$[ebp]
  00170	51		 push	 ecx
  00171	51		 push	 ecx
  00172	f3 0f 10 05 00
	00 00 00	 movss	 xmm0, DWORD PTR __real@3f59999a
  0017a	f3 0f 11 04 24	 movss	 DWORD PTR [esp], xmm0
  0017f	51		 push	 ecx
  00180	0f 57 c0	 xorps	 xmm0, xmm0
  00183	f3 0f 11 04 24	 movss	 DWORD PTR [esp], xmm0
  00188	e8 00 00 00 00	 call	 ?get_2d_float_screen_coordinates@@YGXMMPAM0@Z ; get_2d_float_screen_coordinates

; 570  : 
; 571  : 	if (draw_large_hud)

  0018d	83 3d 00 00 00
	00 00		 cmp	 DWORD PTR ?draw_large_hud@@3HA, 0
  00194	74 30		 je	 SHORT $LN6@draw_headi

; 572  : 	{
; 573  : 		set_mono_font_type (MONO_FONT_TYPE_7X12);

  00196	6a 05		 push	 5
  00198	e8 00 00 00 00	 call	 ?set_mono_font_type@@YGXW4MONO_FONT_TYPES@@@Z ; set_mono_font_type

; 574  : 
; 575  : 		draw_2d_mono_sprite(large_hud_heading_carat, 0.0, 0.85, hud_colour);

  0019d	a1 00 00 00 00	 mov	 eax, DWORD PTR ?hud_colour@@3UREAL_COLOUR@@A ; hud_colour
  001a2	50		 push	 eax
  001a3	51		 push	 ecx
  001a4	f3 0f 10 05 00
	00 00 00	 movss	 xmm0, DWORD PTR __real@3f59999a
  001ac	f3 0f 11 04 24	 movss	 DWORD PTR [esp], xmm0
  001b1	51		 push	 ecx
  001b2	0f 57 c0	 xorps	 xmm0, xmm0
  001b5	f3 0f 11 04 24	 movss	 DWORD PTR [esp], xmm0
  001ba	68 00 00 00 00	 push	 OFFSET ?large_hud_heading_carat@@3PADA
  001bf	e8 00 00 00 00	 call	 ?draw_2d_mono_sprite@@YGXPBDMMUREAL_COLOUR@@@Z ; draw_2d_mono_sprite

; 576  : 	}
; 577  : 	else

  001c4	eb 2e		 jmp	 SHORT $LN7@draw_headi
$LN6@draw_headi:

; 578  : 	{
; 579  : 		set_mono_font_type (MONO_FONT_TYPE_5X7);

  001c6	6a 01		 push	 1
  001c8	e8 00 00 00 00	 call	 ?set_mono_font_type@@YGXW4MONO_FONT_TYPES@@@Z ; set_mono_font_type

; 580  : 
; 581  : 		draw_2d_mono_sprite(small_hud_heading_carat, 0.0, 0.85, hud_colour);

  001cd	a1 00 00 00 00	 mov	 eax, DWORD PTR ?hud_colour@@3UREAL_COLOUR@@A ; hud_colour
  001d2	50		 push	 eax
  001d3	51		 push	 ecx
  001d4	f3 0f 10 05 00
	00 00 00	 movss	 xmm0, DWORD PTR __real@3f59999a
  001dc	f3 0f 11 04 24	 movss	 DWORD PTR [esp], xmm0
  001e1	51		 push	 ecx
  001e2	0f 57 c0	 xorps	 xmm0, xmm0
  001e5	f3 0f 11 04 24	 movss	 DWORD PTR [esp], xmm0
  001ea	68 00 00 00 00	 push	 OFFSET ?small_hud_heading_carat@@3PADA
  001ef	e8 00 00 00 00	 call	 ?draw_2d_mono_sprite@@YGXPBDMMUREAL_COLOUR@@@Z ; draw_2d_mono_sprite
$LN7@draw_headi:

; 582  : 	}
; 583  : 
; 584  : 	//
; 585  : 	// draw heading scale ticks and heading value
; 586  : 	//
; 587  : 
; 588  : 	for (loop = 0; loop < 5; loop++)

  001f4	c7 45 e4 00 00
	00 00		 mov	 DWORD PTR _loop$[ebp], 0
  001fb	eb 09		 jmp	 SHORT $LN4@draw_headi
$LN2@draw_headi:
  001fd	8b 45 e4	 mov	 eax, DWORD PTR _loop$[ebp]
  00200	83 c0 01	 add	 eax, 1
  00203	89 45 e4	 mov	 DWORD PTR _loop$[ebp], eax
$LN4@draw_headi:
  00206	83 7d e4 05	 cmp	 DWORD PTR _loop$[ebp], 5
  0020a	0f 8d 0a 02 00
	00		 jge	 $LN3@draw_headi

; 589  : 	{
; 590  : 		//
; 591  : 		// major tick every 10 degrees
; 592  : 		//
; 593  : 
; 594  : 		if (x >= -0.25)

  00210	f3 0f 5a 45 f4	 cvtss2sd xmm0, DWORD PTR _x$[ebp]
  00215	66 0f 2f 05 00
	00 00 00	 comisd	 xmm0, QWORD PTR __real@bfd0000000000000
  0021d	72 3d		 jb	 SHORT $LN8@draw_headi

; 595  : 			draw_2d_line (x, 0.9, x, 0.85, hud_colour);

  0021f	a1 00 00 00 00	 mov	 eax, DWORD PTR ?hud_colour@@3UREAL_COLOUR@@A ; hud_colour
  00224	50		 push	 eax
  00225	51		 push	 ecx
  00226	f3 0f 10 05 00
	00 00 00	 movss	 xmm0, DWORD PTR __real@3f59999a
  0022e	f3 0f 11 04 24	 movss	 DWORD PTR [esp], xmm0
  00233	51		 push	 ecx
  00234	f3 0f 10 45 f4	 movss	 xmm0, DWORD PTR _x$[ebp]
  00239	f3 0f 11 04 24	 movss	 DWORD PTR [esp], xmm0
  0023e	51		 push	 ecx
  0023f	f3 0f 10 05 00
	00 00 00	 movss	 xmm0, DWORD PTR __real@3f666666
  00247	f3 0f 11 04 24	 movss	 DWORD PTR [esp], xmm0
  0024c	51		 push	 ecx
  0024d	f3 0f 10 45 f4	 movss	 xmm0, DWORD PTR _x$[ebp]
  00252	f3 0f 11 04 24	 movss	 DWORD PTR [esp], xmm0
  00257	e8 00 00 00 00	 call	 ?draw_2d_line@@YGXMMMMUREAL_COLOUR@@@Z ; draw_2d_line
$LN8@draw_headi:

; 596  : 
; 597  : 		//
; 598  : 		// minor tick every 5 degrees
; 599  : 		//
; 600  : 
; 601  : 		if (x + 0.125 >= -0.25 && x + 0.125 < 0.25)

  0025c	f3 0f 5a 45 f4	 cvtss2sd xmm0, DWORD PTR _x$[ebp]
  00261	f2 0f 58 05 00
	00 00 00	 addsd	 xmm0, QWORD PTR __real@3fc0000000000000
  00269	66 0f 2f 05 00
	00 00 00	 comisd	 xmm0, QWORD PTR __real@bfd0000000000000
  00271	72 70		 jb	 SHORT $LN9@draw_headi
  00273	f3 0f 5a 45 f4	 cvtss2sd xmm0, DWORD PTR _x$[ebp]
  00278	f2 0f 58 05 00
	00 00 00	 addsd	 xmm0, QWORD PTR __real@3fc0000000000000
  00280	f2 0f 10 0d 00
	00 00 00	 movsd	 xmm1, QWORD PTR __real@3fd0000000000000
  00288	66 0f 2f c8	 comisd	 xmm1, xmm0
  0028c	76 55		 jbe	 SHORT $LN9@draw_headi

; 602  : 			draw_2d_line (x + 0.125, 0.85, x + 0.125, 0.875, hud_colour);

  0028e	a1 00 00 00 00	 mov	 eax, DWORD PTR ?hud_colour@@3UREAL_COLOUR@@A ; hud_colour
  00293	50		 push	 eax
  00294	51		 push	 ecx
  00295	f3 0f 10 05 00
	00 00 00	 movss	 xmm0, DWORD PTR __real@3f600000
  0029d	f3 0f 11 04 24	 movss	 DWORD PTR [esp], xmm0
  002a2	f3 0f 5a 45 f4	 cvtss2sd xmm0, DWORD PTR _x$[ebp]
  002a7	f2 0f 58 05 00
	00 00 00	 addsd	 xmm0, QWORD PTR __real@3fc0000000000000
  002af	f2 0f 5a c0	 cvtsd2ss xmm0, xmm0
  002b3	51		 push	 ecx
  002b4	f3 0f 11 04 24	 movss	 DWORD PTR [esp], xmm0
  002b9	51		 push	 ecx
  002ba	f3 0f 10 05 00
	00 00 00	 movss	 xmm0, DWORD PTR __real@3f59999a
  002c2	f3 0f 11 04 24	 movss	 DWORD PTR [esp], xmm0
  002c7	f3 0f 5a 45 f4	 cvtss2sd xmm0, DWORD PTR _x$[ebp]
  002cc	f2 0f 58 05 00
	00 00 00	 addsd	 xmm0, QWORD PTR __real@3fc0000000000000
  002d4	f2 0f 5a c0	 cvtsd2ss xmm0, xmm0
  002d8	51		 push	 ecx
  002d9	f3 0f 11 04 24	 movss	 DWORD PTR [esp], xmm0
  002de	e8 00 00 00 00	 call	 ?draw_2d_line@@YGXMMMMUREAL_COLOUR@@@Z ; draw_2d_line
$LN9@draw_headi:

; 603  : 
; 604  : 		//
; 605  : 		// heading value ('0' displayed as '36')
; 606  : 		//
; 607  : 
; 608  : 		if (int_heading_step_10 != 0)

  002e3	83 7d e0 00	 cmp	 DWORD PTR _int_heading_step_10$[ebp], 0
  002e7	74 17		 je	 SHORT $LN10@draw_headi

; 609  : 		{
; 610  : 			sprintf (s, "%02d", int_heading_step_10);

  002e9	8b 45 e0	 mov	 eax, DWORD PTR _int_heading_step_10$[ebp]
  002ec	50		 push	 eax
  002ed	68 00 00 00 00	 push	 OFFSET ??_C@_04OGKJMPGK@?$CF02d@
  002f2	8d 4d cc	 lea	 ecx, DWORD PTR _s$[ebp]
  002f5	51		 push	 ecx
  002f6	e8 00 00 00 00	 call	 _sprintf
  002fb	83 c4 0c	 add	 esp, 12			; 0000000cH

; 611  : 		}
; 612  : 		else

  002fe	eb 11		 jmp	 SHORT $LN11@draw_headi
$LN10@draw_headi:

; 613  : 		{
; 614  : 			sprintf (s, "36");

  00300	68 00 00 00 00	 push	 OFFSET ??_C@_02KPIPOMFB@36@
  00305	8d 45 cc	 lea	 eax, DWORD PTR _s$[ebp]
  00308	50		 push	 eax
  00309	e8 00 00 00 00	 call	 _sprintf
  0030e	83 c4 08	 add	 esp, 8
$LN11@draw_headi:

; 615  : 		}
; 616  : 
; 617  : 		set_2d_mono_font_position (x, 0.9);

  00311	51		 push	 ecx
  00312	f3 0f 10 05 00
	00 00 00	 movss	 xmm0, DWORD PTR __real@3f666666
  0031a	f3 0f 11 04 24	 movss	 DWORD PTR [esp], xmm0
  0031f	51		 push	 ecx
  00320	f3 0f 10 45 f4	 movss	 xmm0, DWORD PTR _x$[ebp]
  00325	f3 0f 11 04 24	 movss	 DWORD PTR [esp], xmm0
  0032a	e8 00 00 00 00	 call	 ?set_2d_mono_font_position@@YGXMM@Z ; set_2d_mono_font_position

; 618  : 
; 619  : 		width = get_mono_font_string_width (s);

  0032f	8d 45 cc	 lea	 eax, DWORD PTR _s$[ebp]
  00332	50		 push	 eax
  00333	e8 00 00 00 00	 call	 ?get_mono_font_string_width@@YGMPBD@Z ; get_mono_font_string_width
  00338	d9 5d f0	 fstp	 DWORD PTR _width$[ebp]

; 620  : 
; 621  : 		if (draw_large_hud)

  0033b	83 3d 00 00 00
	00 00		 cmp	 DWORD PTR ?draw_large_hud@@3HA, 0
  00342	74 3f		 je	 SHORT $LN12@draw_headi

; 622  : 		{
; 623  : 			set_mono_font_rel_position ((-width * 0.5) + 1.0, -8.0);

  00344	51		 push	 ecx
  00345	f3 0f 10 05 00
	00 00 00	 movss	 xmm0, DWORD PTR __real@c1000000
  0034d	f3 0f 11 04 24	 movss	 DWORD PTR [esp], xmm0
  00352	f3 0f 10 45 f0	 movss	 xmm0, DWORD PTR _width$[ebp]
  00357	0f 57 05 00 00
	00 00		 xorps	 xmm0, DWORD PTR __xmm@80000000800000008000000080000000
  0035e	f3 0f 5a c0	 cvtss2sd xmm0, xmm0
  00362	f2 0f 59 05 00
	00 00 00	 mulsd	 xmm0, QWORD PTR __real@3fe0000000000000
  0036a	f2 0f 58 05 00
	00 00 00	 addsd	 xmm0, QWORD PTR __real@3ff0000000000000
  00372	f2 0f 5a c0	 cvtsd2ss xmm0, xmm0
  00376	51		 push	 ecx
  00377	f3 0f 11 04 24	 movss	 DWORD PTR [esp], xmm0
  0037c	e8 00 00 00 00	 call	 ?set_mono_font_rel_position@@YGXMM@Z ; set_mono_font_rel_position

; 624  : 		}
; 625  : 		else

  00381	eb 3d		 jmp	 SHORT $LN13@draw_headi
$LN12@draw_headi:

; 626  : 		{
; 627  : 			set_mono_font_rel_position ((-width * 0.5) + 1.0, -6.0);

  00383	51		 push	 ecx
  00384	f3 0f 10 05 00
	00 00 00	 movss	 xmm0, DWORD PTR __real@c0c00000
  0038c	f3 0f 11 04 24	 movss	 DWORD PTR [esp], xmm0
  00391	f3 0f 10 45 f0	 movss	 xmm0, DWORD PTR _width$[ebp]
  00396	0f 57 05 00 00
	00 00		 xorps	 xmm0, DWORD PTR __xmm@80000000800000008000000080000000
  0039d	f3 0f 5a c0	 cvtss2sd xmm0, xmm0
  003a1	f2 0f 59 05 00
	00 00 00	 mulsd	 xmm0, QWORD PTR __real@3fe0000000000000
  003a9	f2 0f 58 05 00
	00 00 00	 addsd	 xmm0, QWORD PTR __real@3ff0000000000000
  003b1	f2 0f 5a c0	 cvtsd2ss xmm0, xmm0
  003b5	51		 push	 ecx
  003b6	f3 0f 11 04 24	 movss	 DWORD PTR [esp], xmm0
  003bb	e8 00 00 00 00	 call	 ?set_mono_font_rel_position@@YGXMM@Z ; set_mono_font_rel_position
$LN13@draw_headi:

; 628  : 		}
; 629  : 
; 630  : 		if (x >= -0.25)

  003c0	f3 0f 5a 45 f4	 cvtss2sd xmm0, DWORD PTR _x$[ebp]
  003c5	66 0f 2f 05 00
	00 00 00	 comisd	 xmm0, QWORD PTR __real@bfd0000000000000
  003cd	72 09		 jb	 SHORT $LN14@draw_headi

; 631  : 			print_mono_font_string (s);

  003cf	8d 45 cc	 lea	 eax, DWORD PTR _s$[ebp]
  003d2	50		 push	 eax
  003d3	e8 00 00 00 00	 call	 ?print_mono_font_string@@YGXPBD@Z ; print_mono_font_string
$LN14@draw_headi:

; 632  : 
; 633  : 		//
; 634  : 		// next heading value
; 635  : 		//
; 636  : 
; 637  : 		int_heading_step_10++;

  003d8	8b 45 e0	 mov	 eax, DWORD PTR _int_heading_step_10$[ebp]
  003db	83 c0 01	 add	 eax, 1
  003de	89 45 e0	 mov	 DWORD PTR _int_heading_step_10$[ebp], eax

; 638  : 
; 639  : 		if (int_heading_step_10 == 36)

  003e1	83 7d e0 24	 cmp	 DWORD PTR _int_heading_step_10$[ebp], 36 ; 00000024H
  003e5	75 07		 jne	 SHORT $LN15@draw_headi

; 640  : 		{
; 641  : 			int_heading_step_10 = 0;

  003e7	c7 45 e0 00 00
	00 00		 mov	 DWORD PTR _int_heading_step_10$[ebp], 0
$LN15@draw_headi:

; 642  : 		}
; 643  : 
; 644  : 		x += 0.25;

  003ee	f3 0f 5a 45 f4	 cvtss2sd xmm0, DWORD PTR _x$[ebp]
  003f3	f2 0f 58 05 00
	00 00 00	 addsd	 xmm0, QWORD PTR __real@3fd0000000000000
  003fb	f2 0f 5a c0	 cvtsd2ss xmm0, xmm0
  003ff	f3 0f 11 45 f4	 movss	 DWORD PTR _x$[ebp], xmm0

; 645  : 		if (x > 0.25)

  00404	f3 0f 5a 45 f4	 cvtss2sd xmm0, DWORD PTR _x$[ebp]
  00409	66 0f 2f 05 00
	00 00 00	 comisd	 xmm0, QWORD PTR __real@3fd0000000000000
  00411	76 02		 jbe	 SHORT $LN16@draw_headi

; 646  : 			break;

  00413	eb 05		 jmp	 SHORT $LN3@draw_headi
$LN16@draw_headi:

; 647  : 	}

  00415	e9 e3 fd ff ff	 jmp	 $LN2@draw_headi
$LN3@draw_headi:

; 648  : 
; 649  : 	//
; 650  : 	// draw command heading carat
; 651  : 	//
; 652  : 
; 653  : 	if (!hokum_damage.navigation_computer)

  0041a	a1 00 00 00 00	 mov	 eax, DWORD PTR ?hokum_damage@@3THOKUM_DAMAGE_FLAGS@@A ; hokum_damage
  0041f	c1 e8 09	 shr	 eax, 9
  00422	83 e0 01	 and	 eax, 1
  00425	0f 85 ee 02 00
	00		 jne	 $LN23@draw_headi

; 654  : 	{
; 655  : 		entity
; 656  : 			*wp;
; 657  : 
; 658  : 		wp = get_local_entity_current_waypoint (get_gunship_entity ());

  0042b	a1 00 00 00 00	 mov	 eax, DWORD PTR ?gunship_entity@@3PAUENTITY@@A ; gunship_entity
  00430	50		 push	 eax
  00431	e8 00 00 00 00	 call	 ?get_local_entity_current_waypoint@@YGPAUENTITY@@PAU1@@Z ; get_local_entity_current_waypoint
  00436	89 45 c8	 mov	 DWORD PTR _wp$7[ebp], eax

; 659  : 
; 660  : 		if (wp)

  00439	83 7d c8 00	 cmp	 DWORD PTR _wp$7[ebp], 0
  0043d	0f 84 d6 02 00
	00		 je	 $LN23@draw_headi

; 661  : 		{
; 662  : 			vec3d
; 663  : 				*gunship_position,
; 664  : 				waypoint_position;
; 665  : 
; 666  : 			float
; 667  : 				dx,
; 668  : 				dz,
; 669  : 				bearing,
; 670  : 				command_heading;
; 671  : 
; 672  : 			gunship_position = get_local_entity_vec3d_ptr (get_gunship_entity (), VEC3D_TYPE_POSITION);

  00443	83 3d 00 00 00
	00 00		 cmp	 DWORD PTR ?gunship_entity@@3PAUENTITY@@A, 0 ; gunship_entity
  0044a	74 0f		 je	 SHORT $LN29@draw_headi
  0044c	a1 00 00 00 00	 mov	 eax, DWORD PTR ?gunship_entity@@3PAUENTITY@@A ; gunship_entity
  00451	8b 08		 mov	 ecx, DWORD PTR [eax]
  00453	89 8d 64 ff ff
	ff		 mov	 DWORD PTR tv226[ebp], ecx
  00459	eb 27		 jmp	 SHORT $LN30@draw_headi
$LN29@draw_headi:
  0045b	8b 15 00 00 00
	00		 mov	 edx, DWORD PTR ?__LINE__Var@?0??draw_heading_scale@@YGXXZ@4JA
  00461	81 c2 96 00 00
	00		 add	 edx, 150		; 00000096H
  00467	52		 push	 edx
  00468	68 00 00 00 00	 push	 OFFSET ??_C@_0EN@DGOLIDKD@c?3?2users?2nhv90?2projects?2eech?2ap@
  0046d	a1 00 00 00 00	 mov	 eax, DWORD PTR ?null_entity_pointer_message@@3PBDB ; null_entity_pointer_message
  00472	50		 push	 eax
  00473	e8 00 00 00 00	 call	 ?process_assert@@YGXPBD0H@Z ; process_assert
  00478	c7 85 64 ff ff
	ff 00 00 00 00	 mov	 DWORD PTR tv226[ebp], 0
$LN30@draw_headi:
  00482	b9 01 00 00 00	 mov	 ecx, 1
  00487	85 c9		 test	 ecx, ecx
  00489	74 0c		 je	 SHORT $LN31@draw_headi
  0048b	c7 85 60 ff ff
	ff 08 00 00 00	 mov	 DWORD PTR tv234[ebp], 8
  00495	eb 27		 jmp	 SHORT $LN32@draw_headi
$LN31@draw_headi:
  00497	8b 15 00 00 00
	00		 mov	 edx, DWORD PTR ?__LINE__Var@?0??draw_heading_scale@@YGXXZ@4JA
  0049d	81 c2 96 00 00
	00		 add	 edx, 150		; 00000096H
  004a3	52		 push	 edx
  004a4	68 00 00 00 00	 push	 OFFSET ??_C@_0EN@DGOLIDKD@c?3?2users?2nhv90?2projects?2eech?2ap@
  004a9	a1 00 00 00 00	 mov	 eax, DWORD PTR ?overload_invalid_vec3d_type_message@@3PBDB ; overload_invalid_vec3d_type_message
  004ae	50		 push	 eax
  004af	e8 00 00 00 00	 call	 ?process_assert@@YGXPBD0H@Z ; process_assert
  004b4	c7 85 60 ff ff
	ff 00 00 00 00	 mov	 DWORD PTR tv234[ebp], 0
$LN32@draw_headi:
  004be	6a 08		 push	 8
  004c0	8b 0d 00 00 00
	00		 mov	 ecx, DWORD PTR ?gunship_entity@@3PAUENTITY@@A ; gunship_entity
  004c6	51		 push	 ecx
  004c7	6b 95 64 ff ff
	ff 60		 imul	 edx, DWORD PTR tv226[ebp], 96
  004ce	8b 85 60 ff ff
	ff		 mov	 eax, DWORD PTR tv234[ebp]
  004d4	8b 8c 82 00 00
	00 00		 mov	 ecx, DWORD PTR ?fn_get_local_entity_vec3d_ptr@@3PAY0BI@P6GPAUVEC3D@@PAUENTITY@@W4VEC3D_TYPES@@@ZA[edx+eax*4]
  004db	ff d1		 call	 ecx
  004dd	89 45 c4	 mov	 DWORD PTR _gunship_position$6[ebp], eax

; 673  : 
; 674  : 			get_waypoint_display_position (get_gunship_entity (), wp, &waypoint_position);

  004e0	8d 45 b8	 lea	 eax, DWORD PTR _waypoint_position$5[ebp]
  004e3	50		 push	 eax
  004e4	8b 4d c8	 mov	 ecx, DWORD PTR _wp$7[ebp]
  004e7	51		 push	 ecx
  004e8	8b 15 00 00 00
	00		 mov	 edx, DWORD PTR ?gunship_entity@@3PAUENTITY@@A ; gunship_entity
  004ee	52		 push	 edx
  004ef	e8 00 00 00 00	 call	 ?get_waypoint_display_position@@YGXPAUENTITY@@0PAUVEC3D@@@Z ; get_waypoint_display_position

; 675  : 
; 676  : 			dx = waypoint_position.x - gunship_position->x;

  004f4	8b 45 c4	 mov	 eax, DWORD PTR _gunship_position$6[ebp]
  004f7	f3 0f 10 45 b8	 movss	 xmm0, DWORD PTR _waypoint_position$5[ebp]
  004fc	f3 0f 5c 00	 subss	 xmm0, DWORD PTR [eax]
  00500	f3 0f 11 45 b4	 movss	 DWORD PTR _dx$4[ebp], xmm0

; 677  : 			dz = waypoint_position.z - gunship_position->z;

  00505	8b 45 c4	 mov	 eax, DWORD PTR _gunship_position$6[ebp]
  00508	f3 0f 10 45 c0	 movss	 xmm0, DWORD PTR _waypoint_position$5[ebp+8]
  0050d	f3 0f 5c 40 08	 subss	 xmm0, DWORD PTR [eax+8]
  00512	f3 0f 11 45 b0	 movss	 DWORD PTR _dz$3[ebp], xmm0

; 678  : 
; 679  : 			bearing = atan2 (dx, dz);

  00517	51		 push	 ecx
  00518	f3 0f 10 45 b0	 movss	 xmm0, DWORD PTR _dz$3[ebp]
  0051d	f3 0f 11 04 24	 movss	 DWORD PTR [esp], xmm0
  00522	51		 push	 ecx
  00523	f3 0f 10 45 b4	 movss	 xmm0, DWORD PTR _dx$4[ebp]
  00528	f3 0f 11 04 24	 movss	 DWORD PTR [esp], xmm0
  0052d	e8 00 00 00 00	 call	 ?atan2@@YGMMM@Z		; atan2
  00532	d9 5d ac	 fstp	 DWORD PTR _bearing$2[ebp]

; 680  : 
; 681  : 			heading = get_local_entity_float_value (get_gunship_entity (), FLOAT_TYPE_HEADING);

  00535	83 3d 00 00 00
	00 00		 cmp	 DWORD PTR ?gunship_entity@@3PAUENTITY@@A, 0 ; gunship_entity
  0053c	74 0f		 je	 SHORT $LN33@draw_headi
  0053e	a1 00 00 00 00	 mov	 eax, DWORD PTR ?gunship_entity@@3PAUENTITY@@A ; gunship_entity
  00543	8b 08		 mov	 ecx, DWORD PTR [eax]
  00545	89 8d 64 ff ff
	ff		 mov	 DWORD PTR tv256[ebp], ecx
  0054b	eb 27		 jmp	 SHORT $LN34@draw_headi
$LN33@draw_headi:
  0054d	8b 15 00 00 00
	00		 mov	 edx, DWORD PTR ?__LINE__Var@?0??draw_heading_scale@@YGXXZ@4JA
  00553	81 c2 9f 00 00
	00		 add	 edx, 159		; 0000009fH
  00559	52		 push	 edx
  0055a	68 00 00 00 00	 push	 OFFSET ??_C@_0EN@DGOLIDKD@c?3?2users?2nhv90?2projects?2eech?2ap@
  0055f	a1 00 00 00 00	 mov	 eax, DWORD PTR ?null_entity_pointer_message@@3PBDB ; null_entity_pointer_message
  00564	50		 push	 eax
  00565	e8 00 00 00 00	 call	 ?process_assert@@YGXPBD0H@Z ; process_assert
  0056a	c7 85 64 ff ff
	ff 00 00 00 00	 mov	 DWORD PTR tv256[ebp], 0
$LN34@draw_headi:
  00574	b9 01 00 00 00	 mov	 ecx, 1
  00579	85 c9		 test	 ecx, ecx
  0057b	74 0c		 je	 SHORT $LN35@draw_headi
  0057d	c7 85 60 ff ff
	ff 34 00 00 00	 mov	 DWORD PTR tv264[ebp], 52 ; 00000034H
  00587	eb 27		 jmp	 SHORT $LN36@draw_headi
$LN35@draw_headi:
  00589	8b 15 00 00 00
	00		 mov	 edx, DWORD PTR ?__LINE__Var@?0??draw_heading_scale@@YGXXZ@4JA
  0058f	81 c2 9f 00 00
	00		 add	 edx, 159		; 0000009fH
  00595	52		 push	 edx
  00596	68 00 00 00 00	 push	 OFFSET ??_C@_0EN@DGOLIDKD@c?3?2users?2nhv90?2projects?2eech?2ap@
  0059b	a1 00 00 00 00	 mov	 eax, DWORD PTR ?overload_invalid_float_type_message@@3PBDB ; overload_invalid_float_type_message
  005a0	50		 push	 eax
  005a1	e8 00 00 00 00	 call	 ?process_assert@@YGXPBD0H@Z ; process_assert
  005a6	c7 85 60 ff ff
	ff 00 00 00 00	 mov	 DWORD PTR tv264[ebp], 0
$LN36@draw_headi:
  005b0	6a 34		 push	 52			; 00000034H
  005b2	8b 0d 00 00 00
	00		 mov	 ecx, DWORD PTR ?gunship_entity@@3PAUENTITY@@A ; gunship_entity
  005b8	51		 push	 ecx
  005b9	69 95 64 ff ff
	ff bc 02 00 00	 imul	 edx, DWORD PTR tv256[ebp], 700
  005c3	8b 85 60 ff ff
	ff		 mov	 eax, DWORD PTR tv264[ebp]
  005c9	8b 8c 82 00 00
	00 00		 mov	 ecx, DWORD PTR ?fn_get_local_entity_float_value@@3PAY0KP@P6GMPAUENTITY@@W4FLOAT_TYPES@@@ZA[edx+eax*4]
  005d0	ff d1		 call	 ecx
  005d2	d9 5d fc	 fstp	 DWORD PTR _heading$[ebp]

; 682  : 
; 683  : 			command_heading = bearing - heading;

  005d5	f3 0f 10 45 ac	 movss	 xmm0, DWORD PTR _bearing$2[ebp]
  005da	f3 0f 5c 45 fc	 subss	 xmm0, DWORD PTR _heading$[ebp]
  005df	f3 0f 11 45 a8	 movss	 DWORD PTR _command_heading$1[ebp], xmm0

; 684  : 
; 685  : 			if (command_heading > rad (180.0))

  005e4	f3 0f 5a 45 a8	 cvtss2sd xmm0, DWORD PTR _command_heading$1[ebp]
  005e9	66 0f 2f 05 00
	00 00 00	 comisd	 xmm0, QWORD PTR __real@400921fb51000000
  005f1	76 18		 jbe	 SHORT $LN19@draw_headi

; 686  : 				command_heading -= rad (360.0);

  005f3	f3 0f 5a 45 a8	 cvtss2sd xmm0, DWORD PTR _command_heading$1[ebp]
  005f8	f2 0f 5c 05 00
	00 00 00	 subsd	 xmm0, QWORD PTR __real@401921fb51000000
  00600	f2 0f 5a c0	 cvtsd2ss xmm0, xmm0
  00604	f3 0f 11 45 a8	 movss	 DWORD PTR _command_heading$1[ebp], xmm0
  00609	eb 29		 jmp	 SHORT $LN21@draw_headi
$LN19@draw_headi:

; 687  : 			else if (command_heading < rad (-180.0))

  0060b	f3 0f 5a 45 a8	 cvtss2sd xmm0, DWORD PTR _command_heading$1[ebp]
  00610	f2 0f 10 0d 00
	00 00 00	 movsd	 xmm1, QWORD PTR __real@c00921fb51000000
  00618	66 0f 2f c8	 comisd	 xmm1, xmm0
  0061c	76 16		 jbe	 SHORT $LN21@draw_headi

; 688  : 				command_heading += rad (360.0);

  0061e	f3 0f 5a 45 a8	 cvtss2sd xmm0, DWORD PTR _command_heading$1[ebp]
  00623	f2 0f 58 05 00
	00 00 00	 addsd	 xmm0, QWORD PTR __real@401921fb51000000
  0062b	f2 0f 5a c0	 cvtsd2ss xmm0, xmm0
  0062f	f3 0f 11 45 a8	 movss	 DWORD PTR _command_heading$1[ebp], xmm0
$LN21@draw_headi:

; 689  : 
; 690  : 			command_heading = bound (command_heading, rad (-90.0), rad (90.0));

  00634	f3 0f 5a 45 a8	 cvtss2sd xmm0, DWORD PTR _command_heading$1[ebp]
  00639	f2 0f 10 0d 00
	00 00 00	 movsd	 xmm1, QWORD PTR __real@bff921fb51000000
  00641	66 0f 2f c8	 comisd	 xmm1, xmm0
  00645	76 12		 jbe	 SHORT $LN39@draw_headi
  00647	f2 0f 10 05 00
	00 00 00	 movsd	 xmm0, QWORD PTR __real@bff921fb51000000
  0064f	f2 0f 11 85 60
	ff ff ff	 movsd	 QWORD PTR tv287[ebp], xmm0
  00657	eb 3e		 jmp	 SHORT $LN40@draw_headi
$LN39@draw_headi:
  00659	f3 0f 5a 45 a8	 cvtss2sd xmm0, DWORD PTR _command_heading$1[ebp]
  0065e	66 0f 2f 05 00
	00 00 00	 comisd	 xmm0, QWORD PTR __real@3ff921fb51000000
  00666	76 12		 jbe	 SHORT $LN37@draw_headi
  00668	f2 0f 10 05 00
	00 00 00	 movsd	 xmm0, QWORD PTR __real@3ff921fb51000000
  00670	f2 0f 11 85 58
	ff ff ff	 movsd	 QWORD PTR tv286[ebp], xmm0
  00678	eb 0d		 jmp	 SHORT $LN38@draw_headi
$LN37@draw_headi:
  0067a	f3 0f 5a 45 a8	 cvtss2sd xmm0, DWORD PTR _command_heading$1[ebp]
  0067f	f2 0f 11 85 58
	ff ff ff	 movsd	 QWORD PTR tv286[ebp], xmm0
$LN38@draw_headi:
  00687	f2 0f 10 85 58
	ff ff ff	 movsd	 xmm0, QWORD PTR tv286[ebp]
  0068f	f2 0f 11 85 60
	ff ff ff	 movsd	 QWORD PTR tv287[ebp], xmm0
$LN40@draw_headi:
  00697	f2 0f 5a 85 60
	ff ff ff	 cvtsd2ss xmm0, QWORD PTR tv287[ebp]
  0069f	f3 0f 11 45 a8	 movss	 DWORD PTR _command_heading$1[ebp], xmm0

; 691  : 
; 692  : 			if (draw_large_hud)

  006a4	83 3d 00 00 00
	00 00		 cmp	 DWORD PTR ?draw_large_hud@@3HA, 0
  006ab	74 37		 je	 SHORT $LN22@draw_headi

; 693  : 				draw_2d_mono_sprite (large_hud_command_heading_carat, command_heading * ((0.25 - 0.04) / rad (90.0)), 0.85, hud_colour);

  006ad	a1 00 00 00 00	 mov	 eax, DWORD PTR ?hud_colour@@3UREAL_COLOUR@@A ; hud_colour
  006b2	50		 push	 eax
  006b3	51		 push	 ecx
  006b4	f3 0f 10 05 00
	00 00 00	 movss	 xmm0, DWORD PTR __real@3f59999a
  006bc	f3 0f 11 04 24	 movss	 DWORD PTR [esp], xmm0
  006c1	f3 0f 5a 45 a8	 cvtss2sd xmm0, DWORD PTR _command_heading$1[ebp]
  006c6	f2 0f 59 05 00
	00 00 00	 mulsd	 xmm0, QWORD PTR __real@3fc11cc249f74fea
  006ce	f2 0f 5a c0	 cvtsd2ss xmm0, xmm0
  006d2	51		 push	 ecx
  006d3	f3 0f 11 04 24	 movss	 DWORD PTR [esp], xmm0
  006d8	68 00 00 00 00	 push	 OFFSET ?large_hud_command_heading_carat@@3PADA
  006dd	e8 00 00 00 00	 call	 ?draw_2d_mono_sprite@@YGXPBDMMUREAL_COLOUR@@@Z ; draw_2d_mono_sprite

; 694  : 			else

  006e2	eb 35		 jmp	 SHORT $LN23@draw_headi
$LN22@draw_headi:

; 695  : 				draw_2d_mono_sprite (small_hud_command_heading_carat, command_heading * ((0.25 - 0.04) / rad (90.0)), 0.85, hud_colour);

  006e4	a1 00 00 00 00	 mov	 eax, DWORD PTR ?hud_colour@@3UREAL_COLOUR@@A ; hud_colour
  006e9	50		 push	 eax
  006ea	51		 push	 ecx
  006eb	f3 0f 10 05 00
	00 00 00	 movss	 xmm0, DWORD PTR __real@3f59999a
  006f3	f3 0f 11 04 24	 movss	 DWORD PTR [esp], xmm0
  006f8	f3 0f 5a 45 a8	 cvtss2sd xmm0, DWORD PTR _command_heading$1[ebp]
  006fd	f2 0f 59 05 00
	00 00 00	 mulsd	 xmm0, QWORD PTR __real@3fc11cc249f74fea
  00705	f2 0f 5a c0	 cvtsd2ss xmm0, xmm0
  00709	51		 push	 ecx
  0070a	f3 0f 11 04 24	 movss	 DWORD PTR [esp], xmm0
  0070f	68 00 00 00 00	 push	 OFFSET ?small_hud_command_heading_carat@@3PADA
  00714	e8 00 00 00 00	 call	 ?draw_2d_mono_sprite@@YGXPBDMMUREAL_COLOUR@@@Z ; draw_2d_mono_sprite
$LN23@draw_headi:

; 696  : 		}
; 697  : 	}
; 698  : 	//
; 699  : 	// restore 2D environment
; 700  : 	//
; 701  : 
; 702  : 	set_2d_window (hud_env, HUD_WINDOW_X_MIN, HUD_WINDOW_Y_MIN, HUD_WINDOW_X_MAX, HUD_WINDOW_Y_MAX);

  00719	51		 push	 ecx
  0071a	f3 0f 10 05 00
	00 00 00	 movss	 xmm0, DWORD PTR __real@3f7fbe77
  00722	f3 0f 11 04 24	 movss	 DWORD PTR [esp], xmm0
  00727	51		 push	 ecx
  00728	f3 0f 10 05 00
	00 00 00	 movss	 xmm0, DWORD PTR __real@3f7fbe77
  00730	f3 0f 11 04 24	 movss	 DWORD PTR [esp], xmm0
  00735	51		 push	 ecx
  00736	f3 0f 10 05 00
	00 00 00	 movss	 xmm0, DWORD PTR __real@bf800000
  0073e	f3 0f 11 04 24	 movss	 DWORD PTR [esp], xmm0
  00743	51		 push	 ecx
  00744	f3 0f 10 05 00
	00 00 00	 movss	 xmm0, DWORD PTR __real@bf800000
  0074c	f3 0f 11 04 24	 movss	 DWORD PTR [esp], xmm0
  00751	a1 00 00 00 00	 mov	 eax, DWORD PTR ?hud_env@@3PAUENV_2D@@A
  00756	50		 push	 eax
  00757	e8 00 00 00 00	 call	 ?set_2d_window@@YGXPAUENV_2D@@MMMM@Z ; set_2d_window

; 703  : 
; 704  : 	set_2d_viewport (hud_env, hud_viewport_x_min, hud_viewport_y_min, hud_viewport_x_max, hud_viewport_y_max);

  0075c	51		 push	 ecx
  0075d	f3 0f 10 05 00
	00 00 00	 movss	 xmm0, DWORD PTR ?hud_viewport_y_max@@3MA
  00765	f3 0f 11 04 24	 movss	 DWORD PTR [esp], xmm0
  0076a	51		 push	 ecx
  0076b	f3 0f 10 05 00
	00 00 00	 movss	 xmm0, DWORD PTR ?hud_viewport_x_max@@3MA
  00773	f3 0f 11 04 24	 movss	 DWORD PTR [esp], xmm0
  00778	51		 push	 ecx
  00779	f3 0f 10 05 00
	00 00 00	 movss	 xmm0, DWORD PTR ?hud_viewport_y_min@@3MA
  00781	f3 0f 11 04 24	 movss	 DWORD PTR [esp], xmm0
  00786	51		 push	 ecx
  00787	f3 0f 10 05 00
	00 00 00	 movss	 xmm0, DWORD PTR ?hud_viewport_x_min@@3MA
  0078f	f3 0f 11 04 24	 movss	 DWORD PTR [esp], xmm0
  00794	a1 00 00 00 00	 mov	 eax, DWORD PTR ?hud_env@@3PAUENV_2D@@A
  00799	50		 push	 eax
  0079a	e8 00 00 00 00	 call	 ?set_2d_viewport@@YGXPAUENV_2D@@MMMM@Z ; set_2d_viewport

; 705  : }

  0079f	5f		 pop	 edi
  007a0	5e		 pop	 esi
  007a1	5b		 pop	 ebx
  007a2	8b e5		 mov	 esp, ebp
  007a4	5d		 pop	 ebp
  007a5	c3		 ret	 0
?draw_heading_scale@@YGXXZ ENDP				; draw_heading_scale
_TEXT	ENDS
; Function compile flags: /Odtp /ZI
; File c:\users\nhv90\projects\eech\aphavoc\source\gunships\avionics\hokum\hk_hud.c
;	COMDAT ?draw_pitch_scale@@YGXXZ
_TEXT	SEGMENT
tv130 = -124						; size = 4
tv78 = -124						; size = 4
tv90 = -120						; size = 4
tv70 = -120						; size = 4
_pnum$1 = -52						; size = 4
_s$ = -48						; size = 20
_int_pitch_step_10$ = -28				; size = 4
_loop$ = -24						; size = 4
_width$ = -20						; size = 4
_y$ = -16						; size = 4
_mod_pitch_step_10$ = -12				; size = 4
_roll$ = -8						; size = 4
_pitch$ = -4						; size = 4
?draw_pitch_scale@@YGXXZ PROC				; draw_pitch_scale, COMDAT

; 400  : {

  00000	55		 push	 ebp
  00001	8b ec		 mov	 ebp, esp
  00003	83 ec 7c	 sub	 esp, 124		; 0000007cH
  00006	53		 push	 ebx
  00007	56		 push	 esi
  00008	57		 push	 edi

; 401  : 	float
; 402  : 		pitch,
; 403  : 		roll,
; 404  : 		mod_pitch_step_10,
; 405  : 		y,
; 406  : 		width;
; 407  : 
; 408  : 	int
; 409  : 		loop,
; 410  : 		int_pitch_step_10;
; 411  : 
; 412  : 	char
; 413  : 		s[20];
; 414  : 
; 415  : 	roll = get_local_entity_float_value (get_gunship_entity (), FLOAT_TYPE_ROLL);

  00009	83 3d 00 00 00
	00 00		 cmp	 DWORD PTR ?gunship_entity@@3PAUENTITY@@A, 0 ; gunship_entity
  00010	74 0c		 je	 SHORT $LN16@draw_pitch
  00012	a1 00 00 00 00	 mov	 eax, DWORD PTR ?gunship_entity@@3PAUENTITY@@A ; gunship_entity
  00017	8b 08		 mov	 ecx, DWORD PTR [eax]
  00019	89 4d 88	 mov	 DWORD PTR tv70[ebp], ecx
  0001c	eb 21		 jmp	 SHORT $LN17@draw_pitch
$LN16@draw_pitch:
  0001e	8b 15 00 00 00
	00		 mov	 edx, DWORD PTR ?__LINE__Var@?0??draw_pitch_scale@@YGXXZ@4JA
  00024	83 c2 0f	 add	 edx, 15			; 0000000fH
  00027	52		 push	 edx
  00028	68 00 00 00 00	 push	 OFFSET ??_C@_0EN@DGOLIDKD@c?3?2users?2nhv90?2projects?2eech?2ap@
  0002d	a1 00 00 00 00	 mov	 eax, DWORD PTR ?null_entity_pointer_message@@3PBDB ; null_entity_pointer_message
  00032	50		 push	 eax
  00033	e8 00 00 00 00	 call	 ?process_assert@@YGXPBD0H@Z ; process_assert
  00038	c7 45 88 00 00
	00 00		 mov	 DWORD PTR tv70[ebp], 0
$LN17@draw_pitch:
  0003f	b9 01 00 00 00	 mov	 ecx, 1
  00044	85 c9		 test	 ecx, ecx
  00046	74 09		 je	 SHORT $LN18@draw_pitch
  00048	c7 45 84 71 00
	00 00		 mov	 DWORD PTR tv78[ebp], 113 ; 00000071H
  0004f	eb 21		 jmp	 SHORT $LN19@draw_pitch
$LN18@draw_pitch:
  00051	8b 15 00 00 00
	00		 mov	 edx, DWORD PTR ?__LINE__Var@?0??draw_pitch_scale@@YGXXZ@4JA
  00057	83 c2 0f	 add	 edx, 15			; 0000000fH
  0005a	52		 push	 edx
  0005b	68 00 00 00 00	 push	 OFFSET ??_C@_0EN@DGOLIDKD@c?3?2users?2nhv90?2projects?2eech?2ap@
  00060	a1 00 00 00 00	 mov	 eax, DWORD PTR ?overload_invalid_float_type_message@@3PBDB ; overload_invalid_float_type_message
  00065	50		 push	 eax
  00066	e8 00 00 00 00	 call	 ?process_assert@@YGXPBD0H@Z ; process_assert
  0006b	c7 45 84 00 00
	00 00		 mov	 DWORD PTR tv78[ebp], 0
$LN19@draw_pitch:
  00072	6a 71		 push	 113			; 00000071H
  00074	8b 0d 00 00 00
	00		 mov	 ecx, DWORD PTR ?gunship_entity@@3PAUENTITY@@A ; gunship_entity
  0007a	51		 push	 ecx
  0007b	69 55 88 bc 02
	00 00		 imul	 edx, DWORD PTR tv70[ebp], 700
  00082	8b 45 84	 mov	 eax, DWORD PTR tv78[ebp]
  00085	8b 8c 82 00 00
	00 00		 mov	 ecx, DWORD PTR ?fn_get_local_entity_float_value@@3PAY0KP@P6GMPAUENTITY@@W4FLOAT_TYPES@@@ZA[edx+eax*4]
  0008c	ff d1		 call	 ecx
  0008e	d9 5d f8	 fstp	 DWORD PTR _roll$[ebp]

; 416  : 	pitch = get_local_entity_float_value (get_gunship_entity (), FLOAT_TYPE_PITCH);

  00091	83 3d 00 00 00
	00 00		 cmp	 DWORD PTR ?gunship_entity@@3PAUENTITY@@A, 0 ; gunship_entity
  00098	74 0c		 je	 SHORT $LN20@draw_pitch
  0009a	a1 00 00 00 00	 mov	 eax, DWORD PTR ?gunship_entity@@3PAUENTITY@@A ; gunship_entity
  0009f	8b 08		 mov	 ecx, DWORD PTR [eax]
  000a1	89 4d 88	 mov	 DWORD PTR tv90[ebp], ecx
  000a4	eb 21		 jmp	 SHORT $LN21@draw_pitch
$LN20@draw_pitch:
  000a6	8b 15 00 00 00
	00		 mov	 edx, DWORD PTR ?__LINE__Var@?0??draw_pitch_scale@@YGXXZ@4JA
  000ac	83 c2 10	 add	 edx, 16			; 00000010H
  000af	52		 push	 edx
  000b0	68 00 00 00 00	 push	 OFFSET ??_C@_0EN@DGOLIDKD@c?3?2users?2nhv90?2projects?2eech?2ap@
  000b5	a1 00 00 00 00	 mov	 eax, DWORD PTR ?null_entity_pointer_message@@3PBDB ; null_entity_pointer_message
  000ba	50		 push	 eax
  000bb	e8 00 00 00 00	 call	 ?process_assert@@YGXPBD0H@Z ; process_assert
  000c0	c7 45 88 00 00
	00 00		 mov	 DWORD PTR tv90[ebp], 0
$LN21@draw_pitch:
  000c7	b9 01 00 00 00	 mov	 ecx, 1
  000cc	85 c9		 test	 ecx, ecx
  000ce	74 09		 je	 SHORT $LN22@draw_pitch
  000d0	c7 45 84 54 00
	00 00		 mov	 DWORD PTR tv130[ebp], 84 ; 00000054H
  000d7	eb 21		 jmp	 SHORT $LN23@draw_pitch
$LN22@draw_pitch:
  000d9	8b 15 00 00 00
	00		 mov	 edx, DWORD PTR ?__LINE__Var@?0??draw_pitch_scale@@YGXXZ@4JA
  000df	83 c2 10	 add	 edx, 16			; 00000010H
  000e2	52		 push	 edx
  000e3	68 00 00 00 00	 push	 OFFSET ??_C@_0EN@DGOLIDKD@c?3?2users?2nhv90?2projects?2eech?2ap@
  000e8	a1 00 00 00 00	 mov	 eax, DWORD PTR ?overload_invalid_float_type_message@@3PBDB ; overload_invalid_float_type_message
  000ed	50		 push	 eax
  000ee	e8 00 00 00 00	 call	 ?process_assert@@YGXPBD0H@Z ; process_assert
  000f3	c7 45 84 00 00
	00 00		 mov	 DWORD PTR tv130[ebp], 0
$LN23@draw_pitch:
  000fa	6a 54		 push	 84			; 00000054H
  000fc	8b 0d 00 00 00
	00		 mov	 ecx, DWORD PTR ?gunship_entity@@3PAUENTITY@@A ; gunship_entity
  00102	51		 push	 ecx
  00103	69 55 88 bc 02
	00 00		 imul	 edx, DWORD PTR tv90[ebp], 700
  0010a	8b 45 84	 mov	 eax, DWORD PTR tv130[ebp]
  0010d	8b 8c 82 00 00
	00 00		 mov	 ecx, DWORD PTR ?fn_get_local_entity_float_value@@3PAY0KP@P6GMPAUENTITY@@W4FLOAT_TYPES@@@ZA[edx+eax*4]
  00114	ff d1		 call	 ecx
  00116	d9 5d fc	 fstp	 DWORD PTR _pitch$[ebp]

; 417  : 	pitch = deg(pitch);

  00119	f3 0f 10 45 fc	 movss	 xmm0, DWORD PTR _pitch$[ebp]
  0011e	f3 0f 59 05 00
	00 00 00	 mulss	 xmm0, DWORD PTR __real@42652ee0
  00126	f3 0f 11 45 fc	 movss	 DWORD PTR _pitch$[ebp], xmm0

; 418  : 
; 419  : 	mod_pitch_step_10 = fmod (pitch, 10.0f);

  0012b	51		 push	 ecx
  0012c	f3 0f 10 05 00
	00 00 00	 movss	 xmm0, DWORD PTR __real@41200000
  00134	f3 0f 11 04 24	 movss	 DWORD PTR [esp], xmm0
  00139	51		 push	 ecx
  0013a	f3 0f 10 45 fc	 movss	 xmm0, DWORD PTR _pitch$[ebp]
  0013f	f3 0f 11 04 24	 movss	 DWORD PTR [esp], xmm0
  00144	e8 00 00 00 00	 call	 ?fmod@@YGMMM@Z		; fmod
  00149	d9 5d f4	 fstp	 DWORD PTR _mod_pitch_step_10$[ebp]

; 420  : 
; 421  : 	int_pitch_step_10 = ((int)(pitch * 0.1)) * 10;

  0014c	f3 0f 5a 45 fc	 cvtss2sd xmm0, DWORD PTR _pitch$[ebp]
  00151	f2 0f 59 05 00
	00 00 00	 mulsd	 xmm0, QWORD PTR __real@3fb999999999999a
  00159	f2 0f 2c c0	 cvttsd2si eax, xmm0
  0015d	6b c8 0a	 imul	 ecx, eax, 10
  00160	89 4d e4	 mov	 DWORD PTR _int_pitch_step_10$[ebp], ecx

; 422  : 	int_pitch_step_10 -= 30;

  00163	8b 45 e4	 mov	 eax, DWORD PTR _int_pitch_step_10$[ebp]
  00166	83 e8 1e	 sub	 eax, 30			; 0000001eH
  00169	89 45 e4	 mov	 DWORD PTR _int_pitch_step_10$[ebp], eax

; 423  : 
; 424  : 	y = - (30.0 + mod_pitch_step_10) * 0.04;

  0016c	f3 0f 5a 45 f4	 cvtss2sd xmm0, DWORD PTR _mod_pitch_step_10$[ebp]
  00171	f2 0f 58 05 00
	00 00 00	 addsd	 xmm0, QWORD PTR __real@403e000000000000
  00179	0f 57 05 00 00
	00 00		 xorps	 xmm0, QWORD PTR __xmm@80000000000000008000000000000000
  00180	f2 0f 59 05 00
	00 00 00	 mulsd	 xmm0, QWORD PTR __real@3fa47ae147ae147b
  00188	f2 0f 5a c0	 cvtsd2ss xmm0, xmm0
  0018c	f3 0f 11 45 f0	 movss	 DWORD PTR _y$[ebp], xmm0

; 425  : 
; 426  : 
; 427  : 	//
; 428  : 	// draw pitch scale ticks and pitch value
; 429  : 	//
; 430  : 
; 431  : 	for (loop = 0; loop < 6; loop++)

  00191	c7 45 e8 00 00
	00 00		 mov	 DWORD PTR _loop$[ebp], 0
  00198	eb 09		 jmp	 SHORT $LN4@draw_pitch
$LN2@draw_pitch:
  0019a	8b 45 e8	 mov	 eax, DWORD PTR _loop$[ebp]
  0019d	83 c0 01	 add	 eax, 1
  001a0	89 45 e8	 mov	 DWORD PTR _loop$[ebp], eax
$LN4@draw_pitch:
  001a3	83 7d e8 06	 cmp	 DWORD PTR _loop$[ebp], 6
  001a7	0f 8d 87 02 00
	00		 jge	 $LN3@draw_pitch

; 432  : 	{
; 433  : 		//
; 434  : 		// major tick every 10 degrees
; 435  : 		//
; 436  : 
; 437  : 		if (y >= -0.6)

  001ad	f3 0f 5a 45 f0	 cvtss2sd xmm0, DWORD PTR _y$[ebp]
  001b2	66 0f 2f 05 00
	00 00 00	 comisd	 xmm0, QWORD PTR __real@bfe3333333333333
  001ba	0f 82 b7 01 00
	00		 jb	 $LN7@draw_pitch

; 438  : 		{
; 439  : 			if (int_pitch_step_10 != 0)

  001c0	83 7d e4 00	 cmp	 DWORD PTR _int_pitch_step_10$[ebp], 0
  001c4	0f 84 6f 01 00
	00		 je	 $LN6@draw_pitch

; 440  : 			{
; 441  : 				int pnum;
; 442  : 				
; 443  : 				draw_line_func (-0.22, y, -0.07, y, hud_colour);

  001ca	a1 00 00 00 00	 mov	 eax, DWORD PTR ?hud_colour@@3UREAL_COLOUR@@A ; hud_colour
  001cf	50		 push	 eax
  001d0	51		 push	 ecx
  001d1	f3 0f 10 45 f0	 movss	 xmm0, DWORD PTR _y$[ebp]
  001d6	f3 0f 11 04 24	 movss	 DWORD PTR [esp], xmm0
  001db	51		 push	 ecx
  001dc	f3 0f 10 05 00
	00 00 00	 movss	 xmm0, DWORD PTR __real@bd8f5c29
  001e4	f3 0f 11 04 24	 movss	 DWORD PTR [esp], xmm0
  001e9	51		 push	 ecx
  001ea	f3 0f 10 45 f0	 movss	 xmm0, DWORD PTR _y$[ebp]
  001ef	f3 0f 11 04 24	 movss	 DWORD PTR [esp], xmm0
  001f4	51		 push	 ecx
  001f5	f3 0f 10 05 00
	00 00 00	 movss	 xmm0, DWORD PTR __real@be6147ae
  001fd	f3 0f 11 04 24	 movss	 DWORD PTR [esp], xmm0
  00202	ff 15 00 00 00
	00		 call	 DWORD PTR ?draw_line_func@@3P6GXMMMMUREAL_COLOUR@@@ZA

; 444  : 				draw_line_func (0.07, y, 0.22, y, hud_colour);

  00208	a1 00 00 00 00	 mov	 eax, DWORD PTR ?hud_colour@@3UREAL_COLOUR@@A ; hud_colour
  0020d	50		 push	 eax
  0020e	51		 push	 ecx
  0020f	f3 0f 10 45 f0	 movss	 xmm0, DWORD PTR _y$[ebp]
  00214	f3 0f 11 04 24	 movss	 DWORD PTR [esp], xmm0
  00219	51		 push	 ecx
  0021a	f3 0f 10 05 00
	00 00 00	 movss	 xmm0, DWORD PTR __real@3e6147ae
  00222	f3 0f 11 04 24	 movss	 DWORD PTR [esp], xmm0
  00227	51		 push	 ecx
  00228	f3 0f 10 45 f0	 movss	 xmm0, DWORD PTR _y$[ebp]
  0022d	f3 0f 11 04 24	 movss	 DWORD PTR [esp], xmm0
  00232	51		 push	 ecx
  00233	f3 0f 10 05 00
	00 00 00	 movss	 xmm0, DWORD PTR __real@3d8f5c29
  0023b	f3 0f 11 04 24	 movss	 DWORD PTR [esp], xmm0
  00240	ff 15 00 00 00
	00		 call	 DWORD PTR ?draw_line_func@@3P6GXMMMMUREAL_COLOUR@@@ZA

; 445  : 				
; 446  : 				if (draw_large_hud)

  00246	83 3d 00 00 00
	00 00		 cmp	 DWORD PTR ?draw_large_hud@@3HA, 0
  0024d	74 09		 je	 SHORT $LN8@draw_pitch

; 447  : 					set_mono_font_type (MONO_FONT_TYPE_6X10);

  0024f	6a 04		 push	 4
  00251	e8 00 00 00 00	 call	 ?set_mono_font_type@@YGXW4MONO_FONT_TYPES@@@Z ; set_mono_font_type

; 448  : 				else

  00256	eb 07		 jmp	 SHORT $LN9@draw_pitch
$LN8@draw_pitch:

; 449  : 					set_mono_font_type (MONO_FONT_TYPE_3X6);

  00258	6a 00		 push	 0
  0025a	e8 00 00 00 00	 call	 ?set_mono_font_type@@YGXW4MONO_FONT_TYPES@@@Z ; set_mono_font_type
$LN9@draw_pitch:

; 450  : 				set_2d_mono_font_position (0.0, y);

  0025f	51		 push	 ecx
  00260	f3 0f 10 45 f0	 movss	 xmm0, DWORD PTR _y$[ebp]
  00265	f3 0f 11 04 24	 movss	 DWORD PTR [esp], xmm0
  0026a	51		 push	 ecx
  0026b	0f 57 c0	 xorps	 xmm0, xmm0
  0026e	f3 0f 11 04 24	 movss	 DWORD PTR [esp], xmm0
  00273	e8 00 00 00 00	 call	 ?set_2d_mono_font_position@@YGXMM@Z ; set_2d_mono_font_position

; 451  : 		
; 452  : 				pnum = abs(int_pitch_step_10);

  00278	8b 45 e4	 mov	 eax, DWORD PTR _int_pitch_step_10$[ebp]
  0027b	50		 push	 eax
  0027c	e8 00 00 00 00	 call	 _abs
  00281	83 c4 04	 add	 esp, 4
  00284	89 45 cc	 mov	 DWORD PTR _pnum$1[ebp], eax

; 453  : 				if (pnum > 90)

  00287	83 7d cc 5a	 cmp	 DWORD PTR _pnum$1[ebp], 90 ; 0000005aH
  0028b	7e 0b		 jle	 SHORT $LN10@draw_pitch

; 454  : 					pnum = 180 - pnum;

  0028d	b8 b4 00 00 00	 mov	 eax, 180		; 000000b4H
  00292	2b 45 cc	 sub	 eax, DWORD PTR _pnum$1[ebp]
  00295	89 45 cc	 mov	 DWORD PTR _pnum$1[ebp], eax
$LN10@draw_pitch:

; 455  : 				sprintf(s, "%2d", pnum);

  00298	8b 45 cc	 mov	 eax, DWORD PTR _pnum$1[ebp]
  0029b	50		 push	 eax
  0029c	68 00 00 00 00	 push	 OFFSET ??_C@_03GPCJOALC@?$CF2d@
  002a1	8d 4d d0	 lea	 ecx, DWORD PTR _s$[ebp]
  002a4	51		 push	 ecx
  002a5	e8 00 00 00 00	 call	 _sprintf
  002aa	83 c4 0c	 add	 esp, 12			; 0000000cH

; 456  : 				width = get_mono_font_string_width(s);

  002ad	8d 45 d0	 lea	 eax, DWORD PTR _s$[ebp]
  002b0	50		 push	 eax
  002b1	e8 00 00 00 00	 call	 ?get_mono_font_string_width@@YGMPBD@Z ; get_mono_font_string_width
  002b6	d9 5d ec	 fstp	 DWORD PTR _width$[ebp]

; 457  : 		
; 458  : 				if (draw_large_hud)

  002b9	83 3d 00 00 00
	00 00		 cmp	 DWORD PTR ?draw_large_hud@@3HA, 0
  002c0	74 37		 je	 SHORT $LN11@draw_pitch

; 459  : 					set_mono_font_rel_position ((-width * 0.5), -4.0);

  002c2	51		 push	 ecx
  002c3	f3 0f 10 05 00
	00 00 00	 movss	 xmm0, DWORD PTR __real@c0800000
  002cb	f3 0f 11 04 24	 movss	 DWORD PTR [esp], xmm0
  002d0	f3 0f 10 45 ec	 movss	 xmm0, DWORD PTR _width$[ebp]
  002d5	0f 57 05 00 00
	00 00		 xorps	 xmm0, DWORD PTR __xmm@80000000800000008000000080000000
  002dc	f3 0f 5a c0	 cvtss2sd xmm0, xmm0
  002e0	f2 0f 59 05 00
	00 00 00	 mulsd	 xmm0, QWORD PTR __real@3fe0000000000000
  002e8	f2 0f 5a c0	 cvtsd2ss xmm0, xmm0
  002ec	51		 push	 ecx
  002ed	f3 0f 11 04 24	 movss	 DWORD PTR [esp], xmm0
  002f2	e8 00 00 00 00	 call	 ?set_mono_font_rel_position@@YGXMM@Z ; set_mono_font_rel_position

; 460  : 				else

  002f7	eb 35		 jmp	 SHORT $LN12@draw_pitch
$LN11@draw_pitch:

; 461  : 					set_mono_font_rel_position ((-width * 0.5), -2.0);

  002f9	51		 push	 ecx
  002fa	f3 0f 10 05 00
	00 00 00	 movss	 xmm0, DWORD PTR __real@c0000000
  00302	f3 0f 11 04 24	 movss	 DWORD PTR [esp], xmm0
  00307	f3 0f 10 45 ec	 movss	 xmm0, DWORD PTR _width$[ebp]
  0030c	0f 57 05 00 00
	00 00		 xorps	 xmm0, DWORD PTR __xmm@80000000800000008000000080000000
  00313	f3 0f 5a c0	 cvtss2sd xmm0, xmm0
  00317	f2 0f 59 05 00
	00 00 00	 mulsd	 xmm0, QWORD PTR __real@3fe0000000000000
  0031f	f2 0f 5a c0	 cvtsd2ss xmm0, xmm0
  00323	51		 push	 ecx
  00324	f3 0f 11 04 24	 movss	 DWORD PTR [esp], xmm0
  00329	e8 00 00 00 00	 call	 ?set_mono_font_rel_position@@YGXMM@Z ; set_mono_font_rel_position
$LN12@draw_pitch:

; 462  : 		
; 463  : 				print_mono_font_string (s);

  0032e	8d 45 d0	 lea	 eax, DWORD PTR _s$[ebp]
  00331	50		 push	 eax
  00332	e8 00 00 00 00	 call	 ?print_mono_font_string@@YGXPBD@Z ; print_mono_font_string

; 464  : 			}
; 465  : 			else

  00337	eb 3e		 jmp	 SHORT $LN7@draw_pitch
$LN6@draw_pitch:

; 466  : 				draw_line_func(0.005, y, 0.005, y, hud_colour);

  00339	a1 00 00 00 00	 mov	 eax, DWORD PTR ?hud_colour@@3UREAL_COLOUR@@A ; hud_colour
  0033e	50		 push	 eax
  0033f	51		 push	 ecx
  00340	f3 0f 10 45 f0	 movss	 xmm0, DWORD PTR _y$[ebp]
  00345	f3 0f 11 04 24	 movss	 DWORD PTR [esp], xmm0
  0034a	51		 push	 ecx
  0034b	f3 0f 10 05 00
	00 00 00	 movss	 xmm0, DWORD PTR __real@3ba3d70a
  00353	f3 0f 11 04 24	 movss	 DWORD PTR [esp], xmm0
  00358	51		 push	 ecx
  00359	f3 0f 10 45 f0	 movss	 xmm0, DWORD PTR _y$[ebp]
  0035e	f3 0f 11 04 24	 movss	 DWORD PTR [esp], xmm0
  00363	51		 push	 ecx
  00364	f3 0f 10 05 00
	00 00 00	 movss	 xmm0, DWORD PTR __real@3ba3d70a
  0036c	f3 0f 11 04 24	 movss	 DWORD PTR [esp], xmm0
  00371	ff 15 00 00 00
	00		 call	 DWORD PTR ?draw_line_func@@3P6GXMMMMUREAL_COLOUR@@@ZA
$LN7@draw_pitch:

; 467  : 		}
; 468  : 
; 469  : 		//
; 470  : 		// minor tick every 5 degrees
; 471  : 		//
; 472  : 
; 473  : 		if (y + 0.2 < 0.6 && y + 0.2 >= -0.6)

  00377	f3 0f 5a 45 f0	 cvtss2sd xmm0, DWORD PTR _y$[ebp]
  0037c	f2 0f 58 05 00
	00 00 00	 addsd	 xmm0, QWORD PTR __real@3fc999999999999a
  00384	f2 0f 10 0d 00
	00 00 00	 movsd	 xmm1, QWORD PTR __real@3fe3333333333333
  0038c	66 0f 2f c8	 comisd	 xmm1, xmm0
  00390	76 6d		 jbe	 SHORT $LN13@draw_pitch
  00392	f3 0f 5a 45 f0	 cvtss2sd xmm0, DWORD PTR _y$[ebp]
  00397	f2 0f 58 05 00
	00 00 00	 addsd	 xmm0, QWORD PTR __real@3fc999999999999a
  0039f	66 0f 2f 05 00
	00 00 00	 comisd	 xmm0, QWORD PTR __real@bfe3333333333333
  003a7	72 56		 jb	 SHORT $LN13@draw_pitch

; 474  : 			draw_line_func(-0.05, y + 0.2, 0.05, y + 0.2, hud_colour);

  003a9	a1 00 00 00 00	 mov	 eax, DWORD PTR ?hud_colour@@3UREAL_COLOUR@@A ; hud_colour
  003ae	50		 push	 eax
  003af	f3 0f 5a 45 f0	 cvtss2sd xmm0, DWORD PTR _y$[ebp]
  003b4	f2 0f 58 05 00
	00 00 00	 addsd	 xmm0, QWORD PTR __real@3fc999999999999a
  003bc	f2 0f 5a c0	 cvtsd2ss xmm0, xmm0
  003c0	51		 push	 ecx
  003c1	f3 0f 11 04 24	 movss	 DWORD PTR [esp], xmm0
  003c6	51		 push	 ecx
  003c7	f3 0f 10 05 00
	00 00 00	 movss	 xmm0, DWORD PTR __real@3d4ccccd
  003cf	f3 0f 11 04 24	 movss	 DWORD PTR [esp], xmm0
  003d4	f3 0f 5a 45 f0	 cvtss2sd xmm0, DWORD PTR _y$[ebp]
  003d9	f2 0f 58 05 00
	00 00 00	 addsd	 xmm0, QWORD PTR __real@3fc999999999999a
  003e1	f2 0f 5a c0	 cvtsd2ss xmm0, xmm0
  003e5	51		 push	 ecx
  003e6	f3 0f 11 04 24	 movss	 DWORD PTR [esp], xmm0
  003eb	51		 push	 ecx
  003ec	f3 0f 10 05 00
	00 00 00	 movss	 xmm0, DWORD PTR __real@bd4ccccd
  003f4	f3 0f 11 04 24	 movss	 DWORD PTR [esp], xmm0
  003f9	ff 15 00 00 00
	00		 call	 DWORD PTR ?draw_line_func@@3P6GXMMMMUREAL_COLOUR@@@ZA
$LN13@draw_pitch:

; 475  : 
; 476  : 
; 477  : 		//
; 478  : 		// next pitch value
; 479  : 		//
; 480  : 
; 481  : 		int_pitch_step_10 += 10;

  003ff	8b 45 e4	 mov	 eax, DWORD PTR _int_pitch_step_10$[ebp]
  00402	83 c0 0a	 add	 eax, 10			; 0000000aH
  00405	89 45 e4	 mov	 DWORD PTR _int_pitch_step_10$[ebp], eax

; 482  : 		y += 0.4;

  00408	f3 0f 5a 45 f0	 cvtss2sd xmm0, DWORD PTR _y$[ebp]
  0040d	f2 0f 58 05 00
	00 00 00	 addsd	 xmm0, QWORD PTR __real@3fd999999999999a
  00415	f2 0f 5a c0	 cvtsd2ss xmm0, xmm0
  00419	f3 0f 11 45 f0	 movss	 DWORD PTR _y$[ebp], xmm0

; 483  : 		
; 484  : 		if (y > 0.6)

  0041e	f3 0f 5a 45 f0	 cvtss2sd xmm0, DWORD PTR _y$[ebp]
  00423	66 0f 2f 05 00
	00 00 00	 comisd	 xmm0, QWORD PTR __real@3fe3333333333333
  0042b	76 02		 jbe	 SHORT $LN14@draw_pitch

; 485  : 			break;

  0042d	eb 05		 jmp	 SHORT $LN3@draw_pitch
$LN14@draw_pitch:

; 486  : 	}

  0042f	e9 66 fd ff ff	 jmp	 $LN2@draw_pitch
$LN3@draw_pitch:

; 487  : 	
; 488  : 	// draw datum
; 489  : 	set_2d_instance_rotation (hud_env, -roll);

  00434	f3 0f 10 45 f8	 movss	 xmm0, DWORD PTR _roll$[ebp]
  00439	0f 57 05 00 00
	00 00		 xorps	 xmm0, DWORD PTR __xmm@80000000800000008000000080000000
  00440	51		 push	 ecx
  00441	f3 0f 11 04 24	 movss	 DWORD PTR [esp], xmm0
  00446	a1 00 00 00 00	 mov	 eax, DWORD PTR ?hud_env@@3PAUENV_2D@@A
  0044b	50		 push	 eax
  0044c	e8 00 00 00 00	 call	 ?set_2d_instance_rotation@@YGXPAUENV_2D@@M@Z ; set_2d_instance_rotation

; 490  : 	
; 491  : 	draw_line_func(-0.2, 0.0, -0.08, 0.0, hud_colour);

  00451	a1 00 00 00 00	 mov	 eax, DWORD PTR ?hud_colour@@3UREAL_COLOUR@@A ; hud_colour
  00456	50		 push	 eax
  00457	51		 push	 ecx
  00458	0f 57 c0	 xorps	 xmm0, xmm0
  0045b	f3 0f 11 04 24	 movss	 DWORD PTR [esp], xmm0
  00460	51		 push	 ecx
  00461	f3 0f 10 05 00
	00 00 00	 movss	 xmm0, DWORD PTR __real@bda3d70a
  00469	f3 0f 11 04 24	 movss	 DWORD PTR [esp], xmm0
  0046e	51		 push	 ecx
  0046f	0f 57 c0	 xorps	 xmm0, xmm0
  00472	f3 0f 11 04 24	 movss	 DWORD PTR [esp], xmm0
  00477	51		 push	 ecx
  00478	f3 0f 10 05 00
	00 00 00	 movss	 xmm0, DWORD PTR __real@be4ccccd
  00480	f3 0f 11 04 24	 movss	 DWORD PTR [esp], xmm0
  00485	ff 15 00 00 00
	00		 call	 DWORD PTR ?draw_line_func@@3P6GXMMMMUREAL_COLOUR@@@ZA

; 492  : 	draw_line_func(-0.08, 0.0, -0.08, -0.04, hud_colour);

  0048b	a1 00 00 00 00	 mov	 eax, DWORD PTR ?hud_colour@@3UREAL_COLOUR@@A ; hud_colour
  00490	50		 push	 eax
  00491	51		 push	 ecx
  00492	f3 0f 10 05 00
	00 00 00	 movss	 xmm0, DWORD PTR __real@bd23d70a
  0049a	f3 0f 11 04 24	 movss	 DWORD PTR [esp], xmm0
  0049f	51		 push	 ecx
  004a0	f3 0f 10 05 00
	00 00 00	 movss	 xmm0, DWORD PTR __real@bda3d70a
  004a8	f3 0f 11 04 24	 movss	 DWORD PTR [esp], xmm0
  004ad	51		 push	 ecx
  004ae	0f 57 c0	 xorps	 xmm0, xmm0
  004b1	f3 0f 11 04 24	 movss	 DWORD PTR [esp], xmm0
  004b6	51		 push	 ecx
  004b7	f3 0f 10 05 00
	00 00 00	 movss	 xmm0, DWORD PTR __real@bda3d70a
  004bf	f3 0f 11 04 24	 movss	 DWORD PTR [esp], xmm0
  004c4	ff 15 00 00 00
	00		 call	 DWORD PTR ?draw_line_func@@3P6GXMMMMUREAL_COLOUR@@@ZA

; 493  : 	draw_line_func(-0.08, -0.04, -0.04, -0.08, hud_colour);

  004ca	a1 00 00 00 00	 mov	 eax, DWORD PTR ?hud_colour@@3UREAL_COLOUR@@A ; hud_colour
  004cf	50		 push	 eax
  004d0	51		 push	 ecx
  004d1	f3 0f 10 05 00
	00 00 00	 movss	 xmm0, DWORD PTR __real@bda3d70a
  004d9	f3 0f 11 04 24	 movss	 DWORD PTR [esp], xmm0
  004de	51		 push	 ecx
  004df	f3 0f 10 05 00
	00 00 00	 movss	 xmm0, DWORD PTR __real@bd23d70a
  004e7	f3 0f 11 04 24	 movss	 DWORD PTR [esp], xmm0
  004ec	51		 push	 ecx
  004ed	f3 0f 10 05 00
	00 00 00	 movss	 xmm0, DWORD PTR __real@bd23d70a
  004f5	f3 0f 11 04 24	 movss	 DWORD PTR [esp], xmm0
  004fa	51		 push	 ecx
  004fb	f3 0f 10 05 00
	00 00 00	 movss	 xmm0, DWORD PTR __real@bda3d70a
  00503	f3 0f 11 04 24	 movss	 DWORD PTR [esp], xmm0
  00508	ff 15 00 00 00
	00		 call	 DWORD PTR ?draw_line_func@@3P6GXMMMMUREAL_COLOUR@@@ZA

; 494  : 	draw_line_func(-0.04, -0.08, 0.04, -0.08, hud_colour);

  0050e	a1 00 00 00 00	 mov	 eax, DWORD PTR ?hud_colour@@3UREAL_COLOUR@@A ; hud_colour
  00513	50		 push	 eax
  00514	51		 push	 ecx
  00515	f3 0f 10 05 00
	00 00 00	 movss	 xmm0, DWORD PTR __real@bda3d70a
  0051d	f3 0f 11 04 24	 movss	 DWORD PTR [esp], xmm0
  00522	51		 push	 ecx
  00523	f3 0f 10 05 00
	00 00 00	 movss	 xmm0, DWORD PTR __real@3d23d70a
  0052b	f3 0f 11 04 24	 movss	 DWORD PTR [esp], xmm0
  00530	51		 push	 ecx
  00531	f3 0f 10 05 00
	00 00 00	 movss	 xmm0, DWORD PTR __real@bda3d70a
  00539	f3 0f 11 04 24	 movss	 DWORD PTR [esp], xmm0
  0053e	51		 push	 ecx
  0053f	f3 0f 10 05 00
	00 00 00	 movss	 xmm0, DWORD PTR __real@bd23d70a
  00547	f3 0f 11 04 24	 movss	 DWORD PTR [esp], xmm0
  0054c	ff 15 00 00 00
	00		 call	 DWORD PTR ?draw_line_func@@3P6GXMMMMUREAL_COLOUR@@@ZA

; 495  : 	draw_line_func(0.08, -0.04, 0.04, -0.08, hud_colour);

  00552	a1 00 00 00 00	 mov	 eax, DWORD PTR ?hud_colour@@3UREAL_COLOUR@@A ; hud_colour
  00557	50		 push	 eax
  00558	51		 push	 ecx
  00559	f3 0f 10 05 00
	00 00 00	 movss	 xmm0, DWORD PTR __real@bda3d70a
  00561	f3 0f 11 04 24	 movss	 DWORD PTR [esp], xmm0
  00566	51		 push	 ecx
  00567	f3 0f 10 05 00
	00 00 00	 movss	 xmm0, DWORD PTR __real@3d23d70a
  0056f	f3 0f 11 04 24	 movss	 DWORD PTR [esp], xmm0
  00574	51		 push	 ecx
  00575	f3 0f 10 05 00
	00 00 00	 movss	 xmm0, DWORD PTR __real@bd23d70a
  0057d	f3 0f 11 04 24	 movss	 DWORD PTR [esp], xmm0
  00582	51		 push	 ecx
  00583	f3 0f 10 05 00
	00 00 00	 movss	 xmm0, DWORD PTR __real@3da3d70a
  0058b	f3 0f 11 04 24	 movss	 DWORD PTR [esp], xmm0
  00590	ff 15 00 00 00
	00		 call	 DWORD PTR ?draw_line_func@@3P6GXMMMMUREAL_COLOUR@@@ZA

; 496  : 	draw_line_func(0.08, 0.0, 0.08, -0.04, hud_colour);

  00596	a1 00 00 00 00	 mov	 eax, DWORD PTR ?hud_colour@@3UREAL_COLOUR@@A ; hud_colour
  0059b	50		 push	 eax
  0059c	51		 push	 ecx
  0059d	f3 0f 10 05 00
	00 00 00	 movss	 xmm0, DWORD PTR __real@bd23d70a
  005a5	f3 0f 11 04 24	 movss	 DWORD PTR [esp], xmm0
  005aa	51		 push	 ecx
  005ab	f3 0f 10 05 00
	00 00 00	 movss	 xmm0, DWORD PTR __real@3da3d70a
  005b3	f3 0f 11 04 24	 movss	 DWORD PTR [esp], xmm0
  005b8	51		 push	 ecx
  005b9	0f 57 c0	 xorps	 xmm0, xmm0
  005bc	f3 0f 11 04 24	 movss	 DWORD PTR [esp], xmm0
  005c1	51		 push	 ecx
  005c2	f3 0f 10 05 00
	00 00 00	 movss	 xmm0, DWORD PTR __real@3da3d70a
  005ca	f3 0f 11 04 24	 movss	 DWORD PTR [esp], xmm0
  005cf	ff 15 00 00 00
	00		 call	 DWORD PTR ?draw_line_func@@3P6GXMMMMUREAL_COLOUR@@@ZA

; 497  : 	draw_line_func(0.2, 0.0, 0.08, 0.0, hud_colour);

  005d5	a1 00 00 00 00	 mov	 eax, DWORD PTR ?hud_colour@@3UREAL_COLOUR@@A ; hud_colour
  005da	50		 push	 eax
  005db	51		 push	 ecx
  005dc	0f 57 c0	 xorps	 xmm0, xmm0
  005df	f3 0f 11 04 24	 movss	 DWORD PTR [esp], xmm0
  005e4	51		 push	 ecx
  005e5	f3 0f 10 05 00
	00 00 00	 movss	 xmm0, DWORD PTR __real@3da3d70a
  005ed	f3 0f 11 04 24	 movss	 DWORD PTR [esp], xmm0
  005f2	51		 push	 ecx
  005f3	0f 57 c0	 xorps	 xmm0, xmm0
  005f6	f3 0f 11 04 24	 movss	 DWORD PTR [esp], xmm0
  005fb	51		 push	 ecx
  005fc	f3 0f 10 05 00
	00 00 00	 movss	 xmm0, DWORD PTR __real@3e4ccccd
  00604	f3 0f 11 04 24	 movss	 DWORD PTR [esp], xmm0
  00609	ff 15 00 00 00
	00		 call	 DWORD PTR ?draw_line_func@@3P6GXMMMMUREAL_COLOUR@@@ZA

; 498  : 	
; 499  : 	reset_2d_instance (hud_env);

  0060f	a1 00 00 00 00	 mov	 eax, DWORD PTR ?hud_env@@3PAUENV_2D@@A
  00614	50		 push	 eax
  00615	e8 00 00 00 00	 call	 ?reset_2d_instance@@YGXPAUENV_2D@@@Z ; reset_2d_instance

; 500  : 	
; 501  : 	// draw bank angle marks
; 502  : 	draw_2d_line(0.35, 0.0, 0.45, 0.0, hud_colour);

  0061a	a1 00 00 00 00	 mov	 eax, DWORD PTR ?hud_colour@@3UREAL_COLOUR@@A ; hud_colour
  0061f	50		 push	 eax
  00620	51		 push	 ecx
  00621	0f 57 c0	 xorps	 xmm0, xmm0
  00624	f3 0f 11 04 24	 movss	 DWORD PTR [esp], xmm0
  00629	51		 push	 ecx
  0062a	f3 0f 10 05 00
	00 00 00	 movss	 xmm0, DWORD PTR __real@3ee66666
  00632	f3 0f 11 04 24	 movss	 DWORD PTR [esp], xmm0
  00637	51		 push	 ecx
  00638	0f 57 c0	 xorps	 xmm0, xmm0
  0063b	f3 0f 11 04 24	 movss	 DWORD PTR [esp], xmm0
  00640	51		 push	 ecx
  00641	f3 0f 10 05 00
	00 00 00	 movss	 xmm0, DWORD PTR __real@3eb33333
  00649	f3 0f 11 04 24	 movss	 DWORD PTR [esp], xmm0
  0064e	e8 00 00 00 00	 call	 ?draw_2d_line@@YGXMMMMUREAL_COLOUR@@@Z ; draw_2d_line

; 503  : 	draw_2d_line(-0.35, 0.0, -0.45, 0.0, hud_colour);

  00653	a1 00 00 00 00	 mov	 eax, DWORD PTR ?hud_colour@@3UREAL_COLOUR@@A ; hud_colour
  00658	50		 push	 eax
  00659	51		 push	 ecx
  0065a	0f 57 c0	 xorps	 xmm0, xmm0
  0065d	f3 0f 11 04 24	 movss	 DWORD PTR [esp], xmm0
  00662	51		 push	 ecx
  00663	f3 0f 10 05 00
	00 00 00	 movss	 xmm0, DWORD PTR __real@bee66666
  0066b	f3 0f 11 04 24	 movss	 DWORD PTR [esp], xmm0
  00670	51		 push	 ecx
  00671	0f 57 c0	 xorps	 xmm0, xmm0
  00674	f3 0f 11 04 24	 movss	 DWORD PTR [esp], xmm0
  00679	51		 push	 ecx
  0067a	f3 0f 10 05 00
	00 00 00	 movss	 xmm0, DWORD PTR __real@beb33333
  00682	f3 0f 11 04 24	 movss	 DWORD PTR [esp], xmm0
  00687	e8 00 00 00 00	 call	 ?draw_2d_line@@YGXMMMMUREAL_COLOUR@@@Z ; draw_2d_line

; 504  : 	
; 505  : 	draw_2d_line(0.303, -0.175, 0.390, -0.225, hud_colour);

  0068c	a1 00 00 00 00	 mov	 eax, DWORD PTR ?hud_colour@@3UREAL_COLOUR@@A ; hud_colour
  00691	50		 push	 eax
  00692	51		 push	 ecx
  00693	f3 0f 10 05 00
	00 00 00	 movss	 xmm0, DWORD PTR __real@be666666
  0069b	f3 0f 11 04 24	 movss	 DWORD PTR [esp], xmm0
  006a0	51		 push	 ecx
  006a1	f3 0f 10 05 00
	00 00 00	 movss	 xmm0, DWORD PTR __real@3ec7ae14
  006a9	f3 0f 11 04 24	 movss	 DWORD PTR [esp], xmm0
  006ae	51		 push	 ecx
  006af	f3 0f 10 05 00
	00 00 00	 movss	 xmm0, DWORD PTR __real@be333333
  006b7	f3 0f 11 04 24	 movss	 DWORD PTR [esp], xmm0
  006bc	51		 push	 ecx
  006bd	f3 0f 10 05 00
	00 00 00	 movss	 xmm0, DWORD PTR __real@3e9b22d1
  006c5	f3 0f 11 04 24	 movss	 DWORD PTR [esp], xmm0
  006ca	e8 00 00 00 00	 call	 ?draw_2d_line@@YGXMMMMUREAL_COLOUR@@@Z ; draw_2d_line

; 506  : 	draw_2d_line(-0.303, -0.175, -0.390, -0.225, hud_colour);

  006cf	a1 00 00 00 00	 mov	 eax, DWORD PTR ?hud_colour@@3UREAL_COLOUR@@A ; hud_colour
  006d4	50		 push	 eax
  006d5	51		 push	 ecx
  006d6	f3 0f 10 05 00
	00 00 00	 movss	 xmm0, DWORD PTR __real@be666666
  006de	f3 0f 11 04 24	 movss	 DWORD PTR [esp], xmm0
  006e3	51		 push	 ecx
  006e4	f3 0f 10 05 00
	00 00 00	 movss	 xmm0, DWORD PTR __real@bec7ae14
  006ec	f3 0f 11 04 24	 movss	 DWORD PTR [esp], xmm0
  006f1	51		 push	 ecx
  006f2	f3 0f 10 05 00
	00 00 00	 movss	 xmm0, DWORD PTR __real@be333333
  006fa	f3 0f 11 04 24	 movss	 DWORD PTR [esp], xmm0
  006ff	51		 push	 ecx
  00700	f3 0f 10 05 00
	00 00 00	 movss	 xmm0, DWORD PTR __real@be9b22d1
  00708	f3 0f 11 04 24	 movss	 DWORD PTR [esp], xmm0
  0070d	e8 00 00 00 00	 call	 ?draw_2d_line@@YGXMMMMUREAL_COLOUR@@@Z ; draw_2d_line

; 507  : 	draw_2d_line(0.175, -0.303, 0.225, -0.390, hud_colour);

  00712	a1 00 00 00 00	 mov	 eax, DWORD PTR ?hud_colour@@3UREAL_COLOUR@@A ; hud_colour
  00717	50		 push	 eax
  00718	51		 push	 ecx
  00719	f3 0f 10 05 00
	00 00 00	 movss	 xmm0, DWORD PTR __real@bec7ae14
  00721	f3 0f 11 04 24	 movss	 DWORD PTR [esp], xmm0
  00726	51		 push	 ecx
  00727	f3 0f 10 05 00
	00 00 00	 movss	 xmm0, DWORD PTR __real@3e666666
  0072f	f3 0f 11 04 24	 movss	 DWORD PTR [esp], xmm0
  00734	51		 push	 ecx
  00735	f3 0f 10 05 00
	00 00 00	 movss	 xmm0, DWORD PTR __real@be9b22d1
  0073d	f3 0f 11 04 24	 movss	 DWORD PTR [esp], xmm0
  00742	51		 push	 ecx
  00743	f3 0f 10 05 00
	00 00 00	 movss	 xmm0, DWORD PTR __real@3e333333
  0074b	f3 0f 11 04 24	 movss	 DWORD PTR [esp], xmm0
  00750	e8 00 00 00 00	 call	 ?draw_2d_line@@YGXMMMMUREAL_COLOUR@@@Z ; draw_2d_line

; 508  : 	draw_2d_line(-0.175, -0.303, -0.225, -0.390, hud_colour);

  00755	a1 00 00 00 00	 mov	 eax, DWORD PTR ?hud_colour@@3UREAL_COLOUR@@A ; hud_colour
  0075a	50		 push	 eax
  0075b	51		 push	 ecx
  0075c	f3 0f 10 05 00
	00 00 00	 movss	 xmm0, DWORD PTR __real@bec7ae14
  00764	f3 0f 11 04 24	 movss	 DWORD PTR [esp], xmm0
  00769	51		 push	 ecx
  0076a	f3 0f 10 05 00
	00 00 00	 movss	 xmm0, DWORD PTR __real@be666666
  00772	f3 0f 11 04 24	 movss	 DWORD PTR [esp], xmm0
  00777	51		 push	 ecx
  00778	f3 0f 10 05 00
	00 00 00	 movss	 xmm0, DWORD PTR __real@be9b22d1
  00780	f3 0f 11 04 24	 movss	 DWORD PTR [esp], xmm0
  00785	51		 push	 ecx
  00786	f3 0f 10 05 00
	00 00 00	 movss	 xmm0, DWORD PTR __real@be333333
  0078e	f3 0f 11 04 24	 movss	 DWORD PTR [esp], xmm0
  00793	e8 00 00 00 00	 call	 ?draw_2d_line@@YGXMMMMUREAL_COLOUR@@@Z ; draw_2d_line

; 509  : 
; 510  : 	// reset view
; 511  : 	reset_2d_instance (hud_env);

  00798	a1 00 00 00 00	 mov	 eax, DWORD PTR ?hud_env@@3PAUENV_2D@@A
  0079d	50		 push	 eax
  0079e	e8 00 00 00 00	 call	 ?reset_2d_instance@@YGXPAUENV_2D@@@Z ; reset_2d_instance

; 512  : 	set_2d_window (hud_env, HUD_WINDOW_X_MIN, HUD_WINDOW_Y_MIN, HUD_WINDOW_X_MAX, HUD_WINDOW_Y_MAX);

  007a3	51		 push	 ecx
  007a4	f3 0f 10 05 00
	00 00 00	 movss	 xmm0, DWORD PTR __real@3f7fbe77
  007ac	f3 0f 11 04 24	 movss	 DWORD PTR [esp], xmm0
  007b1	51		 push	 ecx
  007b2	f3 0f 10 05 00
	00 00 00	 movss	 xmm0, DWORD PTR __real@3f7fbe77
  007ba	f3 0f 11 04 24	 movss	 DWORD PTR [esp], xmm0
  007bf	51		 push	 ecx
  007c0	f3 0f 10 05 00
	00 00 00	 movss	 xmm0, DWORD PTR __real@bf800000
  007c8	f3 0f 11 04 24	 movss	 DWORD PTR [esp], xmm0
  007cd	51		 push	 ecx
  007ce	f3 0f 10 05 00
	00 00 00	 movss	 xmm0, DWORD PTR __real@bf800000
  007d6	f3 0f 11 04 24	 movss	 DWORD PTR [esp], xmm0
  007db	a1 00 00 00 00	 mov	 eax, DWORD PTR ?hud_env@@3PAUENV_2D@@A
  007e0	50		 push	 eax
  007e1	e8 00 00 00 00	 call	 ?set_2d_window@@YGXPAUENV_2D@@MMMM@Z ; set_2d_window

; 513  : 	set_2d_viewport (hud_env, hud_viewport_x_min, hud_viewport_y_min, hud_viewport_x_max, hud_viewport_y_max);

  007e6	51		 push	 ecx
  007e7	f3 0f 10 05 00
	00 00 00	 movss	 xmm0, DWORD PTR ?hud_viewport_y_max@@3MA
  007ef	f3 0f 11 04 24	 movss	 DWORD PTR [esp], xmm0
  007f4	51		 push	 ecx
  007f5	f3 0f 10 05 00
	00 00 00	 movss	 xmm0, DWORD PTR ?hud_viewport_x_max@@3MA
  007fd	f3 0f 11 04 24	 movss	 DWORD PTR [esp], xmm0
  00802	51		 push	 ecx
  00803	f3 0f 10 05 00
	00 00 00	 movss	 xmm0, DWORD PTR ?hud_viewport_y_min@@3MA
  0080b	f3 0f 11 04 24	 movss	 DWORD PTR [esp], xmm0
  00810	51		 push	 ecx
  00811	f3 0f 10 05 00
	00 00 00	 movss	 xmm0, DWORD PTR ?hud_viewport_x_min@@3MA
  00819	f3 0f 11 04 24	 movss	 DWORD PTR [esp], xmm0
  0081e	a1 00 00 00 00	 mov	 eax, DWORD PTR ?hud_env@@3PAUENV_2D@@A
  00823	50		 push	 eax
  00824	e8 00 00 00 00	 call	 ?set_2d_viewport@@YGXPAUENV_2D@@MMMM@Z ; set_2d_viewport

; 514  : 
; 515  : }

  00829	5f		 pop	 edi
  0082a	5e		 pop	 esi
  0082b	5b		 pop	 ebx
  0082c	8b e5		 mov	 esp, ebp
  0082e	5d		 pop	 ebp
  0082f	c3		 ret	 0
?draw_pitch_scale@@YGXXZ ENDP				; draw_pitch_scale
_TEXT	ENDS
; Function compile flags: /Odtp /ZI
; File c:\users\nhv90\projects\eech\aphavoc\source\gunships\avionics\hokum\hk_hud.c
;	COMDAT ?draw_layout_grid@@YGXXZ
_TEXT	SEGMENT
_y$ = -8						; size = 4
_x$ = -4						; size = 4
?draw_layout_grid@@YGXXZ PROC				; draw_layout_grid, COMDAT

; 376  : {

  00000	55		 push	 ebp
  00001	8b ec		 mov	 ebp, esp
  00003	83 ec 48	 sub	 esp, 72			; 00000048H
  00006	53		 push	 ebx
  00007	56		 push	 esi
  00008	57		 push	 edi

; 377  : 	float
; 378  : 		x,
; 379  : 		y;
; 380  : 
; 381  : 	if (display_hud_layout_grid)

  00009	83 3d 00 00 00
	00 00		 cmp	 DWORD PTR ?display_hud_layout_grid@@3HA, 0 ; display_hud_layout_grid
  00010	0f 84 ee 00 00
	00		 je	 $LN6@draw_layou

; 382  : 	{
; 383  : 		for (x = HUD_WINDOW_X_MIN; x <= HUD_WINDOW_X_MAX; x += 0.1)

  00016	f3 0f 10 05 00
	00 00 00	 movss	 xmm0, DWORD PTR __real@bf800000
  0001e	f3 0f 11 45 fc	 movss	 DWORD PTR _x$[ebp], xmm0
  00023	eb 16		 jmp	 SHORT $LN4@draw_layou
$LN2@draw_layou:
  00025	f3 0f 5a 45 fc	 cvtss2sd xmm0, DWORD PTR _x$[ebp]
  0002a	f2 0f 58 05 00
	00 00 00	 addsd	 xmm0, QWORD PTR __real@3fb999999999999a
  00032	f2 0f 5a c0	 cvtsd2ss xmm0, xmm0
  00036	f3 0f 11 45 fc	 movss	 DWORD PTR _x$[ebp], xmm0
$LN4@draw_layou:
  0003b	f3 0f 5a 45 fc	 cvtss2sd xmm0, DWORD PTR _x$[ebp]
  00040	f2 0f 10 0d 00
	00 00 00	 movsd	 xmm1, QWORD PTR __real@3feff7ced916872b
  00048	66 0f 2f c8	 comisd	 xmm1, xmm0
  0004c	72 3f		 jb	 SHORT $LN3@draw_layou

; 384  : 		{
; 385  : 			draw_2d_line (x, HUD_WINDOW_Y_MIN, x, HUD_WINDOW_Y_MAX, sys_col_red);

  0004e	a1 00 00 00 00	 mov	 eax, DWORD PTR ?sys_col_red@@3UREAL_COLOUR@@A ; sys_col_red
  00053	50		 push	 eax
  00054	51		 push	 ecx
  00055	f3 0f 10 05 00
	00 00 00	 movss	 xmm0, DWORD PTR __real@3f7fbe77
  0005d	f3 0f 11 04 24	 movss	 DWORD PTR [esp], xmm0
  00062	51		 push	 ecx
  00063	f3 0f 10 45 fc	 movss	 xmm0, DWORD PTR _x$[ebp]
  00068	f3 0f 11 04 24	 movss	 DWORD PTR [esp], xmm0
  0006d	51		 push	 ecx
  0006e	f3 0f 10 05 00
	00 00 00	 movss	 xmm0, DWORD PTR __real@bf800000
  00076	f3 0f 11 04 24	 movss	 DWORD PTR [esp], xmm0
  0007b	51		 push	 ecx
  0007c	f3 0f 10 45 fc	 movss	 xmm0, DWORD PTR _x$[ebp]
  00081	f3 0f 11 04 24	 movss	 DWORD PTR [esp], xmm0
  00086	e8 00 00 00 00	 call	 ?draw_2d_line@@YGXMMMMUREAL_COLOUR@@@Z ; draw_2d_line

; 386  : 		}

  0008b	eb 98		 jmp	 SHORT $LN2@draw_layou
$LN3@draw_layou:

; 387  : 
; 388  : 		for (y = HUD_WINDOW_Y_MIN; y <= HUD_WINDOW_Y_MAX; y += 0.1)

  0008d	f3 0f 10 05 00
	00 00 00	 movss	 xmm0, DWORD PTR __real@bf800000
  00095	f3 0f 11 45 f8	 movss	 DWORD PTR _y$[ebp], xmm0
  0009a	eb 16		 jmp	 SHORT $LN7@draw_layou
$LN5@draw_layou:
  0009c	f3 0f 5a 45 f8	 cvtss2sd xmm0, DWORD PTR _y$[ebp]
  000a1	f2 0f 58 05 00
	00 00 00	 addsd	 xmm0, QWORD PTR __real@3fb999999999999a
  000a9	f2 0f 5a c0	 cvtsd2ss xmm0, xmm0
  000ad	f3 0f 11 45 f8	 movss	 DWORD PTR _y$[ebp], xmm0
$LN7@draw_layou:
  000b2	f3 0f 5a 45 f8	 cvtss2sd xmm0, DWORD PTR _y$[ebp]
  000b7	f2 0f 10 0d 00
	00 00 00	 movsd	 xmm1, QWORD PTR __real@3feff7ced916872b
  000bf	66 0f 2f c8	 comisd	 xmm1, xmm0
  000c3	72 3f		 jb	 SHORT $LN6@draw_layou

; 389  : 		{
; 390  : 			draw_2d_line (HUD_WINDOW_X_MIN, y, HUD_WINDOW_X_MAX, y, sys_col_red);

  000c5	a1 00 00 00 00	 mov	 eax, DWORD PTR ?sys_col_red@@3UREAL_COLOUR@@A ; sys_col_red
  000ca	50		 push	 eax
  000cb	51		 push	 ecx
  000cc	f3 0f 10 45 f8	 movss	 xmm0, DWORD PTR _y$[ebp]
  000d1	f3 0f 11 04 24	 movss	 DWORD PTR [esp], xmm0
  000d6	51		 push	 ecx
  000d7	f3 0f 10 05 00
	00 00 00	 movss	 xmm0, DWORD PTR __real@3f7fbe77
  000df	f3 0f 11 04 24	 movss	 DWORD PTR [esp], xmm0
  000e4	51		 push	 ecx
  000e5	f3 0f 10 45 f8	 movss	 xmm0, DWORD PTR _y$[ebp]
  000ea	f3 0f 11 04 24	 movss	 DWORD PTR [esp], xmm0
  000ef	51		 push	 ecx
  000f0	f3 0f 10 05 00
	00 00 00	 movss	 xmm0, DWORD PTR __real@bf800000
  000f8	f3 0f 11 04 24	 movss	 DWORD PTR [esp], xmm0
  000fd	e8 00 00 00 00	 call	 ?draw_2d_line@@YGXMMMMUREAL_COLOUR@@@Z ; draw_2d_line

; 391  : 		}

  00102	eb 98		 jmp	 SHORT $LN5@draw_layou
$LN6@draw_layou:

; 392  : 	}
; 393  : }

  00104	5f		 pop	 edi
  00105	5e		 pop	 esi
  00106	5b		 pop	 ebx
  00107	8b e5		 mov	 esp, ebp
  00109	5d		 pop	 ebp
  0010a	c3		 ret	 0
?draw_layout_grid@@YGXXZ ENDP				; draw_layout_grid
_TEXT	ENDS
; Function compile flags: /Odtp /ZI
; File c:\users\nhv90\projects\eech\aphavoc\source\gunships\avionics\hokum\hk_hud.c
;	COMDAT ?transform_hud_screen_co_ords_to_hud_texture_co_ords@@YGXPAM0@Z
_TEXT	SEGMENT
_i$ = 8							; size = 4
_j$ = 12						; size = 4
?transform_hud_screen_co_ords_to_hud_texture_co_ords@@YGXPAM0@Z PROC ; transform_hud_screen_co_ords_to_hud_texture_co_ords, COMDAT

; 360  : {

  00000	55		 push	 ebp
  00001	8b ec		 mov	 ebp, esp
  00003	83 ec 40	 sub	 esp, 64			; 00000040H
  00006	53		 push	 ebx
  00007	56		 push	 esi
  00008	57		 push	 edi

; 361  : 	ASSERT (i);

  00009	83 7d 08 00	 cmp	 DWORD PTR _i$[ebp], 0
  0000d	75 18		 jne	 SHORT $LN2@transform_
  0000f	a1 00 00 00 00	 mov	 eax, DWORD PTR ?__LINE__Var@?0??transform_hud_screen_co_ords_to_hud_texture_co_ords@@YGXPAM0@Z@4JA
  00014	83 c0 01	 add	 eax, 1
  00017	50		 push	 eax
  00018	68 00 00 00 00	 push	 OFFSET ??_C@_0EN@DGOLIDKD@c?3?2users?2nhv90?2projects?2eech?2ap@
  0001d	68 00 00 00 00	 push	 OFFSET ??_C@_01KBJDNOO@i@
  00022	e8 00 00 00 00	 call	 ?process_assert@@YGXPBD0H@Z ; process_assert
$LN2@transform_:

; 362  : 	ASSERT (j);

  00027	83 7d 0c 00	 cmp	 DWORD PTR _j$[ebp], 0
  0002b	75 18		 jne	 SHORT $LN3@transform_
  0002d	a1 00 00 00 00	 mov	 eax, DWORD PTR ?__LINE__Var@?0??transform_hud_screen_co_ords_to_hud_texture_co_ords@@YGXPAM0@Z@4JA
  00032	83 c0 02	 add	 eax, 2
  00035	50		 push	 eax
  00036	68 00 00 00 00	 push	 OFFSET ??_C@_0EN@DGOLIDKD@c?3?2users?2nhv90?2projects?2eech?2ap@
  0003b	68 00 00 00 00	 push	 OFFSET ??_C@_01CBDEGOCN@j@
  00040	e8 00 00 00 00	 call	 ?process_assert@@YGXPBD0H@Z ; process_assert
$LN3@transform_:

; 363  : 
; 364  : 	*i -= hud_screen_x_min;

  00045	8b 45 08	 mov	 eax, DWORD PTR _i$[ebp]
  00048	f3 0f 10 00	 movss	 xmm0, DWORD PTR [eax]
  0004c	f3 0f 5c 05 00
	00 00 00	 subss	 xmm0, DWORD PTR ?hud_screen_x_min@@3MA
  00054	8b 4d 08	 mov	 ecx, DWORD PTR _i$[ebp]
  00057	f3 0f 11 01	 movss	 DWORD PTR [ecx], xmm0

; 365  : 	*j -= hud_screen_y_min;

  0005b	8b 45 0c	 mov	 eax, DWORD PTR _j$[ebp]
  0005e	f3 0f 10 00	 movss	 xmm0, DWORD PTR [eax]
  00062	f3 0f 5c 05 00
	00 00 00	 subss	 xmm0, DWORD PTR ?hud_screen_y_min@@3MA
  0006a	8b 4d 0c	 mov	 ecx, DWORD PTR _j$[ebp]
  0006d	f3 0f 11 01	 movss	 DWORD PTR [ecx], xmm0

; 366  : 
; 367  : 	*i *= hud_screen_x_scale;

  00071	8b 45 08	 mov	 eax, DWORD PTR _i$[ebp]
  00074	f3 0f 10 00	 movss	 xmm0, DWORD PTR [eax]
  00078	f3 0f 59 05 00
	00 00 00	 mulss	 xmm0, DWORD PTR ?hud_screen_x_scale@@3MA
  00080	8b 4d 08	 mov	 ecx, DWORD PTR _i$[ebp]
  00083	f3 0f 11 01	 movss	 DWORD PTR [ecx], xmm0

; 368  : 	*j *= hud_screen_y_scale;

  00087	8b 45 0c	 mov	 eax, DWORD PTR _j$[ebp]
  0008a	f3 0f 10 00	 movss	 xmm0, DWORD PTR [eax]
  0008e	f3 0f 59 05 00
	00 00 00	 mulss	 xmm0, DWORD PTR ?hud_screen_y_scale@@3MA
  00096	8b 4d 0c	 mov	 ecx, DWORD PTR _j$[ebp]
  00099	f3 0f 11 01	 movss	 DWORD PTR [ecx], xmm0

; 369  : }

  0009d	5f		 pop	 edi
  0009e	5e		 pop	 esi
  0009f	5b		 pop	 ebx
  000a0	8b e5		 mov	 esp, ebp
  000a2	5d		 pop	 ebp
  000a3	c2 08 00	 ret	 8
?transform_hud_screen_co_ords_to_hud_texture_co_ords@@YGXPAM0@Z ENDP ; transform_hud_screen_co_ords_to_hud_texture_co_ords
_TEXT	ENDS
; Function compile flags: /Odtp /ZI
; File c:\users\nhv90\projects\eech\aphavoc\source\gunships\avionics\hokum\hk_hud.c
;	COMDAT ?clip_2d_point_to_hud_extent@@YGXPAM0@Z
_TEXT	SEGMENT
_x$ = 8							; size = 4
_y$ = 12						; size = 4
?clip_2d_point_to_hud_extent@@YGXPAM0@Z PROC		; clip_2d_point_to_hud_extent, COMDAT

; 319  : {

  00000	55		 push	 ebp
  00001	8b ec		 mov	 ebp, esp
  00003	83 ec 40	 sub	 esp, 64			; 00000040H
  00006	53		 push	 ebx
  00007	56		 push	 esi
  00008	57		 push	 edi

; 320  : 	ASSERT (x);

  00009	83 7d 08 00	 cmp	 DWORD PTR _x$[ebp], 0
  0000d	75 18		 jne	 SHORT $LN2@clip_2d_po
  0000f	a1 00 00 00 00	 mov	 eax, DWORD PTR ?__LINE__Var@?0??clip_2d_point_to_hud_extent@@YGXPAM0@Z@4JA
  00014	83 c0 01	 add	 eax, 1
  00017	50		 push	 eax
  00018	68 00 00 00 00	 push	 OFFSET ??_C@_0EN@DGOLIDKD@c?3?2users?2nhv90?2projects?2eech?2ap@
  0001d	68 00 00 00 00	 push	 OFFSET ??_C@_01FJMABOPO@x@
  00022	e8 00 00 00 00	 call	 ?process_assert@@YGXPBD0H@Z ; process_assert
$LN2@clip_2d_po:

; 321  : 
; 322  : 	ASSERT (y);

  00027	83 7d 0c 00	 cmp	 DWORD PTR _y$[ebp], 0
  0002b	75 18		 jne	 SHORT $LN3@clip_2d_po
  0002d	a1 00 00 00 00	 mov	 eax, DWORD PTR ?__LINE__Var@?0??clip_2d_point_to_hud_extent@@YGXPAM0@Z@4JA
  00032	83 c0 03	 add	 eax, 3
  00035	50		 push	 eax
  00036	68 00 00 00 00	 push	 OFFSET ??_C@_0EN@DGOLIDKD@c?3?2users?2nhv90?2projects?2eech?2ap@
  0003b	68 00 00 00 00	 push	 OFFSET ??_C@_01EANLCPLP@y@
  00040	e8 00 00 00 00	 call	 ?process_assert@@YGXPBD0H@Z ; process_assert
$LN3@clip_2d_po:

; 323  : 
; 324  : 	//
; 325  : 	// clipping assumes that the HUD origin is at (0.0, 0.0)
; 326  : 	//
; 327  : 
; 328  : 	if (*x > HUD_WINDOW_X_MAX)

  00045	8b 45 08	 mov	 eax, DWORD PTR _x$[ebp]
  00048	f3 0f 5a 00	 cvtss2sd xmm0, DWORD PTR [eax]
  0004c	66 0f 2f 05 00
	00 00 00	 comisd	 xmm0, QWORD PTR __real@3feff7ced916872b
  00054	76 36		 jbe	 SHORT $LN4@clip_2d_po

; 329  : 	{
; 330  : 		*y = (*y * HUD_WINDOW_X_MAX) / *x;

  00056	8b 45 0c	 mov	 eax, DWORD PTR _y$[ebp]
  00059	f3 0f 5a 00	 cvtss2sd xmm0, DWORD PTR [eax]
  0005d	f2 0f 59 05 00
	00 00 00	 mulsd	 xmm0, QWORD PTR __real@3feff7ced916872b
  00065	8b 4d 08	 mov	 ecx, DWORD PTR _x$[ebp]
  00068	f3 0f 5a 09	 cvtss2sd xmm1, DWORD PTR [ecx]
  0006c	f2 0f 5e c1	 divsd	 xmm0, xmm1
  00070	f2 0f 5a c0	 cvtsd2ss xmm0, xmm0
  00074	8b 55 0c	 mov	 edx, DWORD PTR _y$[ebp]
  00077	f3 0f 11 02	 movss	 DWORD PTR [edx], xmm0

; 331  : 
; 332  : 		*x = HUD_WINDOW_X_MAX;

  0007b	8b 45 08	 mov	 eax, DWORD PTR _x$[ebp]
  0007e	f3 0f 10 05 00
	00 00 00	 movss	 xmm0, DWORD PTR __real@3f7fbe77
  00086	f3 0f 11 00	 movss	 DWORD PTR [eax], xmm0
  0008a	eb 49		 jmp	 SHORT $LN6@clip_2d_po
$LN4@clip_2d_po:

; 333  : 	}
; 334  : 	else if (*x < HUD_WINDOW_X_MIN)

  0008c	8b 45 08	 mov	 eax, DWORD PTR _x$[ebp]
  0008f	f3 0f 5a 00	 cvtss2sd xmm0, DWORD PTR [eax]
  00093	f2 0f 10 0d 00
	00 00 00	 movsd	 xmm1, QWORD PTR __real@bff0000000000000
  0009b	66 0f 2f c8	 comisd	 xmm1, xmm0
  0009f	76 34		 jbe	 SHORT $LN6@clip_2d_po

; 335  : 	{
; 336  : 		*y = (*y * HUD_WINDOW_X_MIN) / *x;

  000a1	8b 45 0c	 mov	 eax, DWORD PTR _y$[ebp]
  000a4	f3 0f 5a 00	 cvtss2sd xmm0, DWORD PTR [eax]
  000a8	f2 0f 59 05 00
	00 00 00	 mulsd	 xmm0, QWORD PTR __real@bff0000000000000
  000b0	8b 4d 08	 mov	 ecx, DWORD PTR _x$[ebp]
  000b3	f3 0f 5a 09	 cvtss2sd xmm1, DWORD PTR [ecx]
  000b7	f2 0f 5e c1	 divsd	 xmm0, xmm1
  000bb	f2 0f 5a c0	 cvtsd2ss xmm0, xmm0
  000bf	8b 55 0c	 mov	 edx, DWORD PTR _y$[ebp]
  000c2	f3 0f 11 02	 movss	 DWORD PTR [edx], xmm0

; 337  : 
; 338  : 		*x = HUD_WINDOW_X_MIN;

  000c6	8b 45 08	 mov	 eax, DWORD PTR _x$[ebp]
  000c9	f3 0f 10 05 00
	00 00 00	 movss	 xmm0, DWORD PTR __real@bf800000
  000d1	f3 0f 11 00	 movss	 DWORD PTR [eax], xmm0
$LN6@clip_2d_po:

; 339  : 	}
; 340  : 
; 341  : 	if (*y > HUD_WINDOW_Y_MAX)

  000d5	8b 45 0c	 mov	 eax, DWORD PTR _y$[ebp]
  000d8	f3 0f 5a 00	 cvtss2sd xmm0, DWORD PTR [eax]
  000dc	66 0f 2f 05 00
	00 00 00	 comisd	 xmm0, QWORD PTR __real@3feff7ced916872b
  000e4	76 36		 jbe	 SHORT $LN7@clip_2d_po

; 342  : 	{
; 343  : 		*x = (*x * HUD_WINDOW_Y_MAX) / *y;

  000e6	8b 45 08	 mov	 eax, DWORD PTR _x$[ebp]
  000e9	f3 0f 5a 00	 cvtss2sd xmm0, DWORD PTR [eax]
  000ed	f2 0f 59 05 00
	00 00 00	 mulsd	 xmm0, QWORD PTR __real@3feff7ced916872b
  000f5	8b 4d 0c	 mov	 ecx, DWORD PTR _y$[ebp]
  000f8	f3 0f 5a 09	 cvtss2sd xmm1, DWORD PTR [ecx]
  000fc	f2 0f 5e c1	 divsd	 xmm0, xmm1
  00100	f2 0f 5a c0	 cvtsd2ss xmm0, xmm0
  00104	8b 55 08	 mov	 edx, DWORD PTR _x$[ebp]
  00107	f3 0f 11 02	 movss	 DWORD PTR [edx], xmm0

; 344  : 
; 345  : 		*y = HUD_WINDOW_Y_MAX;

  0010b	8b 45 0c	 mov	 eax, DWORD PTR _y$[ebp]
  0010e	f3 0f 10 05 00
	00 00 00	 movss	 xmm0, DWORD PTR __real@3f7fbe77
  00116	f3 0f 11 00	 movss	 DWORD PTR [eax], xmm0
  0011a	eb 49		 jmp	 SHORT $LN9@clip_2d_po
$LN7@clip_2d_po:

; 346  : 	}
; 347  : 	else if (*y < HUD_WINDOW_Y_MIN)

  0011c	8b 45 0c	 mov	 eax, DWORD PTR _y$[ebp]
  0011f	f3 0f 5a 00	 cvtss2sd xmm0, DWORD PTR [eax]
  00123	f2 0f 10 0d 00
	00 00 00	 movsd	 xmm1, QWORD PTR __real@bff0000000000000
  0012b	66 0f 2f c8	 comisd	 xmm1, xmm0
  0012f	76 34		 jbe	 SHORT $LN9@clip_2d_po

; 348  : 	{
; 349  : 		*x = (*x * HUD_WINDOW_Y_MIN) / *y;

  00131	8b 45 08	 mov	 eax, DWORD PTR _x$[ebp]
  00134	f3 0f 5a 00	 cvtss2sd xmm0, DWORD PTR [eax]
  00138	f2 0f 59 05 00
	00 00 00	 mulsd	 xmm0, QWORD PTR __real@bff0000000000000
  00140	8b 4d 0c	 mov	 ecx, DWORD PTR _y$[ebp]
  00143	f3 0f 5a 09	 cvtss2sd xmm1, DWORD PTR [ecx]
  00147	f2 0f 5e c1	 divsd	 xmm0, xmm1
  0014b	f2 0f 5a c0	 cvtsd2ss xmm0, xmm0
  0014f	8b 55 08	 mov	 edx, DWORD PTR _x$[ebp]
  00152	f3 0f 11 02	 movss	 DWORD PTR [edx], xmm0

; 350  : 
; 351  : 		*y = HUD_WINDOW_Y_MIN;

  00156	8b 45 0c	 mov	 eax, DWORD PTR _y$[ebp]
  00159	f3 0f 10 05 00
	00 00 00	 movss	 xmm0, DWORD PTR __real@bf800000
  00161	f3 0f 11 00	 movss	 DWORD PTR [eax], xmm0
$LN9@clip_2d_po:

; 352  : 	}
; 353  : }

  00165	5f		 pop	 edi
  00166	5e		 pop	 esi
  00167	5b		 pop	 ebx
  00168	8b e5		 mov	 esp, ebp
  0016a	5d		 pop	 ebp
  0016b	c2 08 00	 ret	 8
?clip_2d_point_to_hud_extent@@YGXPAM0@Z ENDP		; clip_2d_point_to_hud_extent
_TEXT	ENDS
; Function compile flags: /Odtp /ZI
; File c:\users\nhv90\projects\eech\aphavoc\source\gunships\avionics\hokum\hk_hud.c
;	COMDAT ?display_target_information@@YGXXZ
_TEXT	SEGMENT
tv269 = -316						; size = 4
tv207 = -316						; size = 4
tv167 = -316						; size = 4
tv145 = -316						; size = 4
tv89 = -316						; size = 4
tv262 = -312						; size = 4
tv237 = -312						; size = 4
tv199 = -312						; size = 4
tv159 = -312						; size = 4
tv137 = -312						; size = 4
tv81 = -312						; size = 4
tv66 = -312						; size = 4
_source_position$1 = -244				; size = 4
_target_position$2 = -240				; size = 4
_selected_weapon_type$3 = -236				; size = 4
_target_range$4 = -232					; size = 4
_max_weapon_range$5 = -228				; size = 4
_min_weapon_range$6 = -224				; size = 4
_has_range$ = -220					; size = 4
_source$ = -216						; size = 4
_target$ = -212						; size = 4
_width$ = -208						; size = 4
_buffer$ = -204						; size = 200
_s$ = -4						; size = 4
?display_target_information@@YGXXZ PROC			; display_target_information, COMDAT

; 1953 : {

  00000	55		 push	 ebp
  00001	8b ec		 mov	 ebp, esp
  00003	81 ec 3c 01 00
	00		 sub	 esp, 316		; 0000013cH
  00009	53		 push	 ebx
  0000a	56		 push	 esi
  0000b	57		 push	 edi

; 1954 : 	const char
; 1955 : 		*s;
; 1956 : 
; 1957 : 	char
; 1958 : 		buffer[200];
; 1959 : 
; 1960 : 	float
; 1961 : 		width;
; 1962 : 
; 1963 : 	entity
; 1964 : 		*target,
; 1965 : 		*source;
; 1966 : 
; 1967 : 	int has_range = get_range_finder() != RANGEFINDER_TRIANGULATION;

  0000c	e8 00 00 00 00	 call	 ?get_range_finder@@YG?AW4rangefinding_system@@XZ ; get_range_finder
  00011	83 f8 02	 cmp	 eax, 2
  00014	74 0c		 je	 SHORT $LN33@display_ta
  00016	c7 85 c8 fe ff
	ff 01 00 00 00	 mov	 DWORD PTR tv66[ebp], 1
  00020	eb 0a		 jmp	 SHORT $LN34@display_ta
$LN33@display_ta:
  00022	c7 85 c8 fe ff
	ff 00 00 00 00	 mov	 DWORD PTR tv66[ebp], 0
$LN34@display_ta:
  0002c	8b 85 c8 fe ff
	ff		 mov	 eax, DWORD PTR tv66[ebp]
  00032	89 85 24 ff ff
	ff		 mov	 DWORD PTR _has_range$[ebp], eax

; 1968 : 
; 1969 : 	if (draw_large_hud)

  00038	83 3d 00 00 00
	00 00		 cmp	 DWORD PTR ?draw_large_hud@@3HA, 0
  0003f	74 09		 je	 SHORT $LN4@display_ta

; 1970 : 		set_mono_font_type (MONO_FONT_TYPE_7X12);

  00041	6a 05		 push	 5
  00043	e8 00 00 00 00	 call	 ?set_mono_font_type@@YGXW4MONO_FONT_TYPES@@@Z ; set_mono_font_type

; 1971 : 	else

  00048	eb 07		 jmp	 SHORT $LN5@display_ta
$LN4@display_ta:

; 1972 : 		set_mono_font_type (MONO_FONT_TYPE_5X7);

  0004a	6a 01		 push	 1
  0004c	e8 00 00 00 00	 call	 ?set_mono_font_type@@YGXW4MONO_FONT_TYPES@@@Z ; set_mono_font_type
$LN5@display_ta:

; 1973 : 
; 1974 : 	// Range
; 1975 : 	source = get_gunship_entity ();

  00051	a1 00 00 00 00	 mov	 eax, DWORD PTR ?gunship_entity@@3PAUENTITY@@A ; gunship_entity
  00056	89 85 28 ff ff
	ff		 mov	 DWORD PTR _source$[ebp], eax

; 1976 : 	ASSERT(source);

  0005c	83 bd 28 ff ff
	ff 00		 cmp	 DWORD PTR _source$[ebp], 0
  00063	75 18		 jne	 SHORT $LN6@display_ta
  00065	a1 00 00 00 00	 mov	 eax, DWORD PTR ?__LINE__Var@?0??display_target_information@@YGXXZ@4JA
  0006a	83 c0 17	 add	 eax, 23			; 00000017H
  0006d	50		 push	 eax
  0006e	68 00 00 00 00	 push	 OFFSET ??_C@_0EN@DGOLIDKD@c?3?2users?2nhv90?2projects?2eech?2ap@
  00073	68 00 00 00 00	 push	 OFFSET ??_C@_06OEKOLKIL@source@
  00078	e8 00 00 00 00	 call	 ?process_assert@@YGXPBD0H@Z ; process_assert
$LN6@display_ta:

; 1977 : 	target = get_local_entity_parent (source, LIST_TYPE_TARGET);

  0007d	83 bd 28 ff ff
	ff 00		 cmp	 DWORD PTR _source$[ebp], 0
  00084	74 10		 je	 SHORT $LN35@display_ta
  00086	8b 85 28 ff ff
	ff		 mov	 eax, DWORD PTR _source$[ebp]
  0008c	8b 08		 mov	 ecx, DWORD PTR [eax]
  0008e	89 8d c8 fe ff
	ff		 mov	 DWORD PTR tv81[ebp], ecx
  00094	eb 24		 jmp	 SHORT $LN36@display_ta
$LN35@display_ta:
  00096	8b 15 00 00 00
	00		 mov	 edx, DWORD PTR ?__LINE__Var@?0??display_target_information@@YGXXZ@4JA
  0009c	83 c2 18	 add	 edx, 24			; 00000018H
  0009f	52		 push	 edx
  000a0	68 00 00 00 00	 push	 OFFSET ??_C@_0EN@DGOLIDKD@c?3?2users?2nhv90?2projects?2eech?2ap@
  000a5	a1 00 00 00 00	 mov	 eax, DWORD PTR ?null_entity_pointer_message@@3PBDB ; null_entity_pointer_message
  000aa	50		 push	 eax
  000ab	e8 00 00 00 00	 call	 ?process_assert@@YGXPBD0H@Z ; process_assert
  000b0	c7 85 c8 fe ff
	ff 00 00 00 00	 mov	 DWORD PTR tv81[ebp], 0
$LN36@display_ta:
  000ba	b9 01 00 00 00	 mov	 ecx, 1
  000bf	85 c9		 test	 ecx, ecx
  000c1	74 0c		 je	 SHORT $LN37@display_ta
  000c3	c7 85 c4 fe ff
	ff 26 00 00 00	 mov	 DWORD PTR tv89[ebp], 38	; 00000026H
  000cd	eb 24		 jmp	 SHORT $LN38@display_ta
$LN37@display_ta:
  000cf	8b 15 00 00 00
	00		 mov	 edx, DWORD PTR ?__LINE__Var@?0??display_target_information@@YGXXZ@4JA
  000d5	83 c2 18	 add	 edx, 24			; 00000018H
  000d8	52		 push	 edx
  000d9	68 00 00 00 00	 push	 OFFSET ??_C@_0EN@DGOLIDKD@c?3?2users?2nhv90?2projects?2eech?2ap@
  000de	a1 00 00 00 00	 mov	 eax, DWORD PTR ?overload_invalid_list_type_message@@3PBDB ; overload_invalid_list_type_message
  000e3	50		 push	 eax
  000e4	e8 00 00 00 00	 call	 ?process_assert@@YGXPBD0H@Z ; process_assert
  000e9	c7 85 c4 fe ff
	ff 00 00 00 00	 mov	 DWORD PTR tv89[ebp], 0
$LN38@display_ta:
  000f3	6a 26		 push	 38			; 00000026H
  000f5	8b 8d 28 ff ff
	ff		 mov	 ecx, DWORD PTR _source$[ebp]
  000fb	51		 push	 ecx
  000fc	69 95 c8 fe ff
	ff b4 00 00 00	 imul	 edx, DWORD PTR tv81[ebp], 180
  00106	8b 85 c4 fe ff
	ff		 mov	 eax, DWORD PTR tv89[ebp]
  0010c	8b 8c 82 00 00
	00 00		 mov	 ecx, DWORD PTR ?fn_get_local_entity_parent@@3PAY0CN@P6GPAUENTITY@@PAU1@W4LIST_TYPES@@@ZA[edx+eax*4]
  00113	ff d1		 call	 ecx
  00115	89 85 2c ff ff
	ff		 mov	 DWORD PTR _target$[ebp], eax

; 1978 : 	if (target || eo_is_tracking_point())

  0011b	83 bd 2c ff ff
	ff 00		 cmp	 DWORD PTR _target$[ebp], 0
  00122	75 0d		 jne	 SHORT $LN8@display_ta
  00124	e8 00 00 00 00	 call	 ?eo_is_tracking_point@@YGHXZ ; eo_is_tracking_point
  00129	85 c0		 test	 eax, eax
  0012b	0f 84 b3 03 00
	00		 je	 $LN12@display_ta
$LN8@display_ta:

; 1979 : 	{
; 1980 : 		float min_weapon_range, max_weapon_range, target_range;
; 1981 : 		entity_sub_types selected_weapon_type;
; 1982 : 
; 1983 : 		if (has_range)

  00131	83 bd 24 ff ff
	ff 00		 cmp	 DWORD PTR _has_range$[ebp], 0
  00138	0f 84 67 01 00
	00		 je	 $LN9@display_ta

; 1984 : 		{
; 1985 : 			vec3d *target_position, *source_position;
; 1986 : 
; 1987 : 			source_position = get_local_entity_vec3d_ptr (source, VEC3D_TYPE_POSITION);

  0013e	83 bd 28 ff ff
	ff 00		 cmp	 DWORD PTR _source$[ebp], 0
  00145	74 10		 je	 SHORT $LN39@display_ta
  00147	8b 85 28 ff ff
	ff		 mov	 eax, DWORD PTR _source$[ebp]
  0014d	8b 08		 mov	 ecx, DWORD PTR [eax]
  0014f	89 8d c8 fe ff
	ff		 mov	 DWORD PTR tv137[ebp], ecx
  00155	eb 24		 jmp	 SHORT $LN40@display_ta
$LN39@display_ta:
  00157	8b 15 00 00 00
	00		 mov	 edx, DWORD PTR ?__LINE__Var@?0??display_target_information@@YGXXZ@4JA
  0015d	83 c2 22	 add	 edx, 34			; 00000022H
  00160	52		 push	 edx
  00161	68 00 00 00 00	 push	 OFFSET ??_C@_0EN@DGOLIDKD@c?3?2users?2nhv90?2projects?2eech?2ap@
  00166	a1 00 00 00 00	 mov	 eax, DWORD PTR ?null_entity_pointer_message@@3PBDB ; null_entity_pointer_message
  0016b	50		 push	 eax
  0016c	e8 00 00 00 00	 call	 ?process_assert@@YGXPBD0H@Z ; process_assert
  00171	c7 85 c8 fe ff
	ff 00 00 00 00	 mov	 DWORD PTR tv137[ebp], 0
$LN40@display_ta:
  0017b	b9 01 00 00 00	 mov	 ecx, 1
  00180	85 c9		 test	 ecx, ecx
  00182	74 0c		 je	 SHORT $LN41@display_ta
  00184	c7 85 c4 fe ff
	ff 08 00 00 00	 mov	 DWORD PTR tv145[ebp], 8
  0018e	eb 24		 jmp	 SHORT $LN42@display_ta
$LN41@display_ta:
  00190	8b 15 00 00 00
	00		 mov	 edx, DWORD PTR ?__LINE__Var@?0??display_target_information@@YGXXZ@4JA
  00196	83 c2 22	 add	 edx, 34			; 00000022H
  00199	52		 push	 edx
  0019a	68 00 00 00 00	 push	 OFFSET ??_C@_0EN@DGOLIDKD@c?3?2users?2nhv90?2projects?2eech?2ap@
  0019f	a1 00 00 00 00	 mov	 eax, DWORD PTR ?overload_invalid_vec3d_type_message@@3PBDB ; overload_invalid_vec3d_type_message
  001a4	50		 push	 eax
  001a5	e8 00 00 00 00	 call	 ?process_assert@@YGXPBD0H@Z ; process_assert
  001aa	c7 85 c4 fe ff
	ff 00 00 00 00	 mov	 DWORD PTR tv145[ebp], 0
$LN42@display_ta:
  001b4	6a 08		 push	 8
  001b6	8b 8d 28 ff ff
	ff		 mov	 ecx, DWORD PTR _source$[ebp]
  001bc	51		 push	 ecx
  001bd	6b 95 c8 fe ff
	ff 60		 imul	 edx, DWORD PTR tv137[ebp], 96
  001c4	8b 85 c4 fe ff
	ff		 mov	 eax, DWORD PTR tv145[ebp]
  001ca	8b 8c 82 00 00
	00 00		 mov	 ecx, DWORD PTR ?fn_get_local_entity_vec3d_ptr@@3PAY0BI@P6GPAUVEC3D@@PAUENTITY@@W4VEC3D_TYPES@@@ZA[edx+eax*4]
  001d1	ff d1		 call	 ecx
  001d3	89 85 0c ff ff
	ff		 mov	 DWORD PTR _source_position$1[ebp], eax

; 1988 : 			target_position = get_eo_tracking_point();

  001d9	e8 00 00 00 00	 call	 ?get_eo_tracking_point@@YGPAUVEC3D@@XZ ; get_eo_tracking_point
  001de	89 85 10 ff ff
	ff		 mov	 DWORD PTR _target_position$2[ebp], eax

; 1989 : 			if (!target_position)

  001e4	83 bd 10 ff ff
	ff 00		 cmp	 DWORD PTR _target_position$2[ebp], 0
  001eb	0f 85 9b 00 00
	00		 jne	 $LN10@display_ta

; 1990 : 				target_position = get_local_entity_vec3d_ptr (target, VEC3D_TYPE_POSITION);

  001f1	83 bd 2c ff ff
	ff 00		 cmp	 DWORD PTR _target$[ebp], 0
  001f8	74 10		 je	 SHORT $LN43@display_ta
  001fa	8b 85 2c ff ff
	ff		 mov	 eax, DWORD PTR _target$[ebp]
  00200	8b 08		 mov	 ecx, DWORD PTR [eax]
  00202	89 8d c8 fe ff
	ff		 mov	 DWORD PTR tv159[ebp], ecx
  00208	eb 24		 jmp	 SHORT $LN44@display_ta
$LN43@display_ta:
  0020a	8b 15 00 00 00
	00		 mov	 edx, DWORD PTR ?__LINE__Var@?0??display_target_information@@YGXXZ@4JA
  00210	83 c2 25	 add	 edx, 37			; 00000025H
  00213	52		 push	 edx
  00214	68 00 00 00 00	 push	 OFFSET ??_C@_0EN@DGOLIDKD@c?3?2users?2nhv90?2projects?2eech?2ap@
  00219	a1 00 00 00 00	 mov	 eax, DWORD PTR ?null_entity_pointer_message@@3PBDB ; null_entity_pointer_message
  0021e	50		 push	 eax
  0021f	e8 00 00 00 00	 call	 ?process_assert@@YGXPBD0H@Z ; process_assert
  00224	c7 85 c8 fe ff
	ff 00 00 00 00	 mov	 DWORD PTR tv159[ebp], 0
$LN44@display_ta:
  0022e	b9 01 00 00 00	 mov	 ecx, 1
  00233	85 c9		 test	 ecx, ecx
  00235	74 0c		 je	 SHORT $LN45@display_ta
  00237	c7 85 c4 fe ff
	ff 08 00 00 00	 mov	 DWORD PTR tv167[ebp], 8
  00241	eb 24		 jmp	 SHORT $LN46@display_ta
$LN45@display_ta:
  00243	8b 15 00 00 00
	00		 mov	 edx, DWORD PTR ?__LINE__Var@?0??display_target_information@@YGXXZ@4JA
  00249	83 c2 25	 add	 edx, 37			; 00000025H
  0024c	52		 push	 edx
  0024d	68 00 00 00 00	 push	 OFFSET ??_C@_0EN@DGOLIDKD@c?3?2users?2nhv90?2projects?2eech?2ap@
  00252	a1 00 00 00 00	 mov	 eax, DWORD PTR ?overload_invalid_vec3d_type_message@@3PBDB ; overload_invalid_vec3d_type_message
  00257	50		 push	 eax
  00258	e8 00 00 00 00	 call	 ?process_assert@@YGXPBD0H@Z ; process_assert
  0025d	c7 85 c4 fe ff
	ff 00 00 00 00	 mov	 DWORD PTR tv167[ebp], 0
$LN46@display_ta:
  00267	6a 08		 push	 8
  00269	8b 8d 2c ff ff
	ff		 mov	 ecx, DWORD PTR _target$[ebp]
  0026f	51		 push	 ecx
  00270	6b 95 c8 fe ff
	ff 60		 imul	 edx, DWORD PTR tv159[ebp], 96
  00277	8b 85 c4 fe ff
	ff		 mov	 eax, DWORD PTR tv167[ebp]
  0027d	8b 8c 82 00 00
	00 00		 mov	 ecx, DWORD PTR ?fn_get_local_entity_vec3d_ptr@@3PAY0BI@P6GPAUVEC3D@@PAUENTITY@@W4VEC3D_TYPES@@@ZA[edx+eax*4]
  00284	ff d1		 call	 ecx
  00286	89 85 10 ff ff
	ff		 mov	 DWORD PTR _target_position$2[ebp], eax
$LN10@display_ta:

; 1991 : 
; 1992 : 			target_range = get_3d_range (source_position, target_position);

  0028c	8b 85 10 ff ff
	ff		 mov	 eax, DWORD PTR _target_position$2[ebp]
  00292	50		 push	 eax
  00293	8b 8d 0c ff ff
	ff		 mov	 ecx, DWORD PTR _source_position$1[ebp]
  00299	51		 push	 ecx
  0029a	e8 00 00 00 00	 call	 ?get_3d_range@@YGMPBUVEC3D@@0@Z ; get_3d_range
  0029f	d9 9d 18 ff ff
	ff		 fstp	 DWORD PTR _target_range$4[ebp]
$LN9@display_ta:

; 1993 : 		}
; 1994 : 
; 1995 : 		if (has_range)

  002a5	83 bd 24 ff ff
	ff 00		 cmp	 DWORD PTR _has_range$[ebp], 0
  002ac	0f 84 99 00 00
	00		 je	 $LN11@display_ta

; 1996 : 		{
; 1997 : 			sprintf (buffer, "%2.1f", target_range * 0.001);

  002b2	f3 0f 5a 85 18
	ff ff ff	 cvtss2sd xmm0, DWORD PTR _target_range$4[ebp]
  002ba	f2 0f 59 05 00
	00 00 00	 mulsd	 xmm0, QWORD PTR __real@3f50624dd2f1a9fc
  002c2	83 ec 08	 sub	 esp, 8
  002c5	f2 0f 11 04 24	 movsd	 QWORD PTR [esp], xmm0
  002ca	68 00 00 00 00	 push	 OFFSET ??_C@_05JEFOLKLE@?$CF2?41f@
  002cf	8d 85 34 ff ff
	ff		 lea	 eax, DWORD PTR _buffer$[ebp]
  002d5	50		 push	 eax
  002d6	e8 00 00 00 00	 call	 _sprintf
  002db	83 c4 10	 add	 esp, 16			; 00000010H

; 1998 : 			set_2d_mono_font_position (0.0, -0.65);

  002de	51		 push	 ecx
  002df	f3 0f 10 05 00
	00 00 00	 movss	 xmm0, DWORD PTR __real@bf266666
  002e7	f3 0f 11 04 24	 movss	 DWORD PTR [esp], xmm0
  002ec	51		 push	 ecx
  002ed	0f 57 c0	 xorps	 xmm0, xmm0
  002f0	f3 0f 11 04 24	 movss	 DWORD PTR [esp], xmm0
  002f5	e8 00 00 00 00	 call	 ?set_2d_mono_font_position@@YGXMM@Z ; set_2d_mono_font_position

; 1999 : 			width = get_mono_font_string_width (buffer);

  002fa	8d 85 34 ff ff
	ff		 lea	 eax, DWORD PTR _buffer$[ebp]
  00300	50		 push	 eax
  00301	e8 00 00 00 00	 call	 ?get_mono_font_string_width@@YGMPBD@Z ; get_mono_font_string_width
  00306	d9 9d 30 ff ff
	ff		 fstp	 DWORD PTR _width$[ebp]

; 2000 : 			set_mono_font_rel_position (-width * 0.5, 0.0);

  0030c	51		 push	 ecx
  0030d	0f 57 c0	 xorps	 xmm0, xmm0
  00310	f3 0f 11 04 24	 movss	 DWORD PTR [esp], xmm0
  00315	f3 0f 10 85 30
	ff ff ff	 movss	 xmm0, DWORD PTR _width$[ebp]
  0031d	0f 57 05 00 00
	00 00		 xorps	 xmm0, DWORD PTR __xmm@80000000800000008000000080000000
  00324	f3 0f 5a c0	 cvtss2sd xmm0, xmm0
  00328	f2 0f 59 05 00
	00 00 00	 mulsd	 xmm0, QWORD PTR __real@3fe0000000000000
  00330	f2 0f 5a c0	 cvtsd2ss xmm0, xmm0
  00334	51		 push	 ecx
  00335	f3 0f 11 04 24	 movss	 DWORD PTR [esp], xmm0
  0033a	e8 00 00 00 00	 call	 ?set_mono_font_rel_position@@YGXMM@Z ; set_mono_font_rel_position

; 2001 : 			print_mono_font_string (buffer);

  0033f	8d 85 34 ff ff
	ff		 lea	 eax, DWORD PTR _buffer$[ebp]
  00345	50		 push	 eax
  00346	e8 00 00 00 00	 call	 ?print_mono_font_string@@YGXPBD@Z ; print_mono_font_string
$LN11@display_ta:

; 2002 : 		}
; 2003 : 
; 2004 : 		// min and max range
; 2005 : 		selected_weapon_type = get_local_entity_int_value (source, INT_TYPE_SELECTED_WEAPON);

  0034b	83 bd 28 ff ff
	ff 00		 cmp	 DWORD PTR _source$[ebp], 0
  00352	74 10		 je	 SHORT $LN47@display_ta
  00354	8b 85 28 ff ff
	ff		 mov	 eax, DWORD PTR _source$[ebp]
  0035a	8b 08		 mov	 ecx, DWORD PTR [eax]
  0035c	89 8d c8 fe ff
	ff		 mov	 DWORD PTR tv199[ebp], ecx
  00362	eb 24		 jmp	 SHORT $LN48@display_ta
$LN47@display_ta:
  00364	8b 15 00 00 00
	00		 mov	 edx, DWORD PTR ?__LINE__Var@?0??display_target_information@@YGXXZ@4JA
  0036a	83 c2 34	 add	 edx, 52			; 00000034H
  0036d	52		 push	 edx
  0036e	68 00 00 00 00	 push	 OFFSET ??_C@_0EN@DGOLIDKD@c?3?2users?2nhv90?2projects?2eech?2ap@
  00373	a1 00 00 00 00	 mov	 eax, DWORD PTR ?null_entity_pointer_message@@3PBDB ; null_entity_pointer_message
  00378	50		 push	 eax
  00379	e8 00 00 00 00	 call	 ?process_assert@@YGXPBD0H@Z ; process_assert
  0037e	c7 85 c8 fe ff
	ff 00 00 00 00	 mov	 DWORD PTR tv199[ebp], 0
$LN48@display_ta:
  00388	b9 01 00 00 00	 mov	 ecx, 1
  0038d	85 c9		 test	 ecx, ecx
  0038f	74 0c		 je	 SHORT $LN49@display_ta
  00391	c7 85 c4 fe ff
	ff b8 00 00 00	 mov	 DWORD PTR tv207[ebp], 184 ; 000000b8H
  0039b	eb 24		 jmp	 SHORT $LN50@display_ta
$LN49@display_ta:
  0039d	8b 15 00 00 00
	00		 mov	 edx, DWORD PTR ?__LINE__Var@?0??display_target_information@@YGXXZ@4JA
  003a3	83 c2 34	 add	 edx, 52			; 00000034H
  003a6	52		 push	 edx
  003a7	68 00 00 00 00	 push	 OFFSET ??_C@_0EN@DGOLIDKD@c?3?2users?2nhv90?2projects?2eech?2ap@
  003ac	a1 00 00 00 00	 mov	 eax, DWORD PTR ?overload_invalid_int_type_message@@3PBDB ; overload_invalid_int_type_message
  003b1	50		 push	 eax
  003b2	e8 00 00 00 00	 call	 ?process_assert@@YGXPBD0H@Z ; process_assert
  003b7	c7 85 c4 fe ff
	ff 00 00 00 00	 mov	 DWORD PTR tv207[ebp], 0
$LN50@display_ta:
  003c1	68 b8 00 00 00	 push	 184			; 000000b8H
  003c6	8b 8d 28 ff ff
	ff		 mov	 ecx, DWORD PTR _source$[ebp]
  003cc	51		 push	 ecx
  003cd	69 95 c8 fe ff
	ff 5c 04 00 00	 imul	 edx, DWORD PTR tv199[ebp], 1116
  003d7	8b 85 c4 fe ff
	ff		 mov	 eax, DWORD PTR tv207[ebp]
  003dd	8b 8c 82 00 00
	00 00		 mov	 ecx, DWORD PTR ?fn_get_local_entity_int_value@@3PAY0BBH@P6GHPAUENTITY@@W4INT_TYPES@@@ZA[edx+eax*4]
  003e4	ff d1		 call	 ecx
  003e6	89 85 14 ff ff
	ff		 mov	 DWORD PTR _selected_weapon_type$3[ebp], eax

; 2006 : 
; 2007 : 		min_weapon_range = weapon_database[selected_weapon_type].min_range;

  003ec	69 85 14 ff ff
	ff e0 00 00 00	 imul	 eax, DWORD PTR _selected_weapon_type$3[ebp], 224
  003f6	f3 0f 10 80 8c
	00 00 00	 movss	 xmm0, DWORD PTR ?weapon_database@@3PAUWEAPON_DATA@@A[eax+140]
  003fe	f3 0f 11 85 20
	ff ff ff	 movss	 DWORD PTR _min_weapon_range$6[ebp], xmm0

; 2008 : 		max_weapon_range = weapon_database[selected_weapon_type].max_range;

  00406	69 85 14 ff ff
	ff e0 00 00 00	 imul	 eax, DWORD PTR _selected_weapon_type$3[ebp], 224
  00410	f3 0f 10 80 90
	00 00 00	 movss	 xmm0, DWORD PTR ?weapon_database@@3PAUWEAPON_DATA@@A[eax+144]
  00418	f3 0f 11 85 1c
	ff ff ff	 movss	 DWORD PTR _max_weapon_range$5[ebp], xmm0

; 2009 : 		
; 2010 : 		// flashing X when within minimum range
; 2011 : 		if (has_range && target_range < min_weapon_range && (get_system_time() % 800) < 400)

  00420	83 bd 24 ff ff
	ff 00		 cmp	 DWORD PTR _has_range$[ebp], 0
  00427	0f 84 b7 00 00
	00		 je	 $LN12@display_ta
  0042d	f3 0f 10 85 20
	ff ff ff	 movss	 xmm0, DWORD PTR _min_weapon_range$6[ebp]
  00435	0f 2f 85 18 ff
	ff ff		 comiss	 xmm0, DWORD PTR _target_range$4[ebp]
  0043c	0f 86 a2 00 00
	00		 jbe	 $LN12@display_ta
  00442	e8 00 00 00 00	 call	 ?get_system_time@@YGIXZ	; get_system_time
  00447	33 d2		 xor	 edx, edx
  00449	b9 20 03 00 00	 mov	 ecx, 800		; 00000320H
  0044e	f7 f1		 div	 ecx
  00450	81 fa 90 01 00
	00		 cmp	 edx, 400		; 00000190H
  00456	0f 83 88 00 00
	00		 jae	 $LN12@display_ta

; 2012 : 		{
; 2013 : 			draw_line_func(-0.5, -0.5, 0.5, 0.5, hud_colour);

  0045c	a1 00 00 00 00	 mov	 eax, DWORD PTR ?hud_colour@@3UREAL_COLOUR@@A ; hud_colour
  00461	50		 push	 eax
  00462	51		 push	 ecx
  00463	f3 0f 10 05 00
	00 00 00	 movss	 xmm0, DWORD PTR __real@3f000000
  0046b	f3 0f 11 04 24	 movss	 DWORD PTR [esp], xmm0
  00470	51		 push	 ecx
  00471	f3 0f 10 05 00
	00 00 00	 movss	 xmm0, DWORD PTR __real@3f000000
  00479	f3 0f 11 04 24	 movss	 DWORD PTR [esp], xmm0
  0047e	51		 push	 ecx
  0047f	f3 0f 10 05 00
	00 00 00	 movss	 xmm0, DWORD PTR __real@bf000000
  00487	f3 0f 11 04 24	 movss	 DWORD PTR [esp], xmm0
  0048c	51		 push	 ecx
  0048d	f3 0f 10 05 00
	00 00 00	 movss	 xmm0, DWORD PTR __real@bf000000
  00495	f3 0f 11 04 24	 movss	 DWORD PTR [esp], xmm0
  0049a	ff 15 00 00 00
	00		 call	 DWORD PTR ?draw_line_func@@3P6GXMMMMUREAL_COLOUR@@@ZA

; 2014 : 			draw_line_func(-0.5, 0.5, 0.5, -0.5, hud_colour);

  004a0	a1 00 00 00 00	 mov	 eax, DWORD PTR ?hud_colour@@3UREAL_COLOUR@@A ; hud_colour
  004a5	50		 push	 eax
  004a6	51		 push	 ecx
  004a7	f3 0f 10 05 00
	00 00 00	 movss	 xmm0, DWORD PTR __real@bf000000
  004af	f3 0f 11 04 24	 movss	 DWORD PTR [esp], xmm0
  004b4	51		 push	 ecx
  004b5	f3 0f 10 05 00
	00 00 00	 movss	 xmm0, DWORD PTR __real@3f000000
  004bd	f3 0f 11 04 24	 movss	 DWORD PTR [esp], xmm0
  004c2	51		 push	 ecx
  004c3	f3 0f 10 05 00
	00 00 00	 movss	 xmm0, DWORD PTR __real@3f000000
  004cb	f3 0f 11 04 24	 movss	 DWORD PTR [esp], xmm0
  004d0	51		 push	 ecx
  004d1	f3 0f 10 05 00
	00 00 00	 movss	 xmm0, DWORD PTR __real@bf000000
  004d9	f3 0f 11 04 24	 movss	 DWORD PTR [esp], xmm0
  004de	ff 15 00 00 00
	00		 call	 DWORD PTR ?draw_line_func@@3P6GXMMMMUREAL_COLOUR@@@ZA
$LN12@display_ta:

; 2015 : 		}
; 2016 : 	}
; 2017 : 	
; 2018 : 	//
; 2019 : 	// weapon lock
; 2020 : 	//
; 2021 : 
; 2022 : 	if (draw_large_hud)

  004e4	83 3d 00 00 00
	00 00		 cmp	 DWORD PTR ?draw_large_hud@@3HA, 0
  004eb	74 09		 je	 SHORT $LN13@display_ta

; 2023 : 		set_mono_font_type (MONO_FONT_TYPE_6X10);

  004ed	6a 04		 push	 4
  004ef	e8 00 00 00 00	 call	 ?set_mono_font_type@@YGXW4MONO_FONT_TYPES@@@Z ; set_mono_font_type

; 2024 : 	else

  004f4	eb 07		 jmp	 SHORT $LN14@display_ta
$LN13@display_ta:

; 2025 : 		set_mono_font_type (MONO_FONT_TYPE_3X6);

  004f6	6a 00		 push	 0
  004f8	e8 00 00 00 00	 call	 ?set_mono_font_type@@YGXW4MONO_FONT_TYPES@@@Z ; set_mono_font_type
$LN14@display_ta:

; 2026 : 
; 2027 : 	switch (weapon_lock_type)

  004fd	a1 00 00 00 00	 mov	 eax, DWORD PTR ?weapon_lock_type@@3W4WEAPON_LOCK_TYPES@@A ; weapon_lock_type
  00502	89 85 c8 fe ff
	ff		 mov	 DWORD PTR tv237[ebp], eax
  00508	83 bd c8 fe ff
	ff 09		 cmp	 DWORD PTR tv237[ebp], 9
  0050f	77 79		 ja	 SHORT $LN27@display_ta
  00511	8b 8d c8 fe ff
	ff		 mov	 ecx, DWORD PTR tv237[ebp]
  00517	ff 24 8d 00 00
	00 00		 jmp	 DWORD PTR $LN55@display_ta[ecx*4]
$LN15@display_ta:

; 2028 : 	{
; 2029 : 		case WEAPON_LOCK_NO_ACQUIRE:
; 2030 : 			s = "NO ACQ";

  0051e	c7 45 fc 00 00
	00 00		 mov	 DWORD PTR _s$[ebp], OFFSET ??_C@_06LLLMNJMM@NO?5ACQ@

; 2031 : 			break;

  00525	eb 76		 jmp	 SHORT $LN2@display_ta
$LN16@display_ta:

; 2032 : 		case WEAPON_LOCK_NO_WEAPON:
; 2033 : 			s = "NO WPN";

  00527	c7 45 fc 00 00
	00 00		 mov	 DWORD PTR _s$[ebp], OFFSET ??_C@_06BNPEMCDI@NO?5WPN@

; 2034 : 			break;

  0052e	eb 6d		 jmp	 SHORT $LN2@display_ta
$LN17@display_ta:

; 2035 : 		case WEAPON_LOCK_NO_TARGET:
; 2036 : 			s = "NO TGT";

  00530	c7 45 fc 00 00
	00 00		 mov	 DWORD PTR _s$[ebp], OFFSET ??_C@_06KGAFCCPI@NO?5TGT@

; 2037 : 			break;

  00537	eb 64		 jmp	 SHORT $LN2@display_ta
$LN18@display_ta:

; 2038 : 		case WEAPON_LOCK_INVALID_TARGET:
; 2039 : 			s = "INV TGT";

  00539	c7 45 fc 00 00
	00 00		 mov	 DWORD PTR _s$[ebp], OFFSET ??_C@_07EMEAKIHK@INV?5TGT@

; 2040 : 			break;

  00540	eb 5b		 jmp	 SHORT $LN2@display_ta
$LN19@display_ta:

; 2041 : 		case WEAPON_LOCK_SEEKER_LIMIT:
; 2042 : 			s = "SKR LMT";

  00542	c7 45 fc 00 00
	00 00		 mov	 DWORD PTR _s$[ebp], OFFSET ??_C@_07PAKIBCIO@SKR?5LMT@

; 2043 : 			break;

  00549	eb 52		 jmp	 SHORT $LN2@display_ta
$LN20@display_ta:

; 2044 : 		case WEAPON_LOCK_NO_LOS:
; 2045 : 			s = "NO LOS";

  0054b	c7 45 fc 00 00
	00 00		 mov	 DWORD PTR _s$[ebp], OFFSET ??_C@_06HCPKJKPH@NO?5LOS@

; 2046 : 			break;

  00552	eb 49		 jmp	 SHORT $LN2@display_ta
$LN21@display_ta:

; 2047 : 		case WEAPON_LOCK_NO_BORESIGHT:
; 2048 : 			s = "NO SGT";

  00554	c7 45 fc 00 00
	00 00		 mov	 DWORD PTR _s$[ebp], OFFSET ??_C@_06DLNCBKEB@NO?5SGT@

; 2049 : 			break;

  0055b	eb 40		 jmp	 SHORT $LN2@display_ta
$LN22@display_ta:

; 2050 : 		case WEAPON_LOCK_MIN_RANGE:
; 2051 : 			if (has_range)

  0055d	83 bd 24 ff ff
	ff 00		 cmp	 DWORD PTR _has_range$[ebp], 0
  00564	74 09		 je	 SHORT $LN23@display_ta

; 2052 : 			{
; 2053 : 				s = "MIN RNG";

  00566	c7 45 fc 00 00
	00 00		 mov	 DWORD PTR _s$[ebp], OFFSET ??_C@_07KJHNDNDJ@MIN?5RNG@

; 2054 : 				break;

  0056d	eb 2e		 jmp	 SHORT $LN2@display_ta
$LN23@display_ta:

; 2055 : 			}
; 2056 : 		case WEAPON_LOCK_MAX_RANGE:
; 2057 : 			if (has_range)

  0056f	83 bd 24 ff ff
	ff 00		 cmp	 DWORD PTR _has_range$[ebp], 0
  00576	74 09		 je	 SHORT $LN25@display_ta

; 2058 : 			{
; 2059 : 				s = "MAX RNG";

  00578	c7 45 fc 00 00
	00 00		 mov	 DWORD PTR _s$[ebp], OFFSET ??_C@_07EPBNJCNI@MAX?5RNG@

; 2060 : 				break;

  0057f	eb 1c		 jmp	 SHORT $LN2@display_ta
$LN25@display_ta:

; 2061 : 			}
; 2062 : 		case WEAPON_LOCK_VALID:
; 2063 : 			s = "LOCK";

  00581	c7 45 fc 00 00
	00 00		 mov	 DWORD PTR _s$[ebp], OFFSET ??_C@_04GPIFAJG@LOCK@

; 2064 : 			break;

  00588	eb 13		 jmp	 SHORT $LN2@display_ta
$LN27@display_ta:

; 2065 : 		default:
; 2066 : 			debug_fatal ("Invalid weapon lock type = %d", weapon_lock_type);

  0058a	a1 00 00 00 00	 mov	 eax, DWORD PTR ?weapon_lock_type@@3W4WEAPON_LOCK_TYPES@@A ; weapon_lock_type
  0058f	50		 push	 eax
  00590	68 00 00 00 00	 push	 OFFSET ??_C@_0BO@IMEMIMEA@Invalid?5weapon?5lock?5type?5?$DN?5?$CFd@
  00595	e8 00 00 00 00	 call	 ?debug_fatal@@YAXPBDZZ	; debug_fatal
  0059a	83 c4 08	 add	 esp, 8
$LN2@display_ta:

; 2067 : 			break;
; 2068 : 	}
; 2069 : 
; 2070 : 	width = get_mono_font_string_width (s);

  0059d	8b 45 fc	 mov	 eax, DWORD PTR _s$[ebp]
  005a0	50		 push	 eax
  005a1	e8 00 00 00 00	 call	 ?get_mono_font_string_width@@YGMPBD@Z ; get_mono_font_string_width
  005a6	d9 9d 30 ff ff
	ff		 fstp	 DWORD PTR _width$[ebp]

; 2071 : 	set_2d_mono_font_position (-0.9, -0.2);

  005ac	51		 push	 ecx
  005ad	f3 0f 10 05 00
	00 00 00	 movss	 xmm0, DWORD PTR __real@be4ccccd
  005b5	f3 0f 11 04 24	 movss	 DWORD PTR [esp], xmm0
  005ba	51		 push	 ecx
  005bb	f3 0f 10 05 00
	00 00 00	 movss	 xmm0, DWORD PTR __real@bf666666
  005c3	f3 0f 11 04 24	 movss	 DWORD PTR [esp], xmm0
  005c8	e8 00 00 00 00	 call	 ?set_2d_mono_font_position@@YGXMM@Z ; set_2d_mono_font_position

; 2072 : 	set_mono_font_rel_position (0.0, 0.0);

  005cd	51		 push	 ecx
  005ce	0f 57 c0	 xorps	 xmm0, xmm0
  005d1	f3 0f 11 04 24	 movss	 DWORD PTR [esp], xmm0
  005d6	51		 push	 ecx
  005d7	0f 57 c0	 xorps	 xmm0, xmm0
  005da	f3 0f 11 04 24	 movss	 DWORD PTR [esp], xmm0
  005df	e8 00 00 00 00	 call	 ?set_mono_font_rel_position@@YGXMM@Z ; set_mono_font_rel_position

; 2073 : 	print_mono_font_string (s);

  005e4	8b 45 fc	 mov	 eax, DWORD PTR _s$[ebp]
  005e7	50		 push	 eax
  005e8	e8 00 00 00 00	 call	 ?print_mono_font_string@@YGXPBD@Z ; print_mono_font_string

; 2074 : 
; 2075 : 	// laser and radar indicators
; 2076 : 	if (laser_is_active())

  005ed	e8 00 00 00 00	 call	 ?laser_is_active@@YGHXZ	; laser_is_active
  005f2	85 c0		 test	 eax, eax
  005f4	74 42		 je	 SHORT $LN28@display_ta

; 2077 : 	{
; 2078 : 		set_2d_mono_font_position (-0.8, 0.2);

  005f6	51		 push	 ecx
  005f7	f3 0f 10 05 00
	00 00 00	 movss	 xmm0, DWORD PTR __real@3e4ccccd
  005ff	f3 0f 11 04 24	 movss	 DWORD PTR [esp], xmm0
  00604	51		 push	 ecx
  00605	f3 0f 10 05 00
	00 00 00	 movss	 xmm0, DWORD PTR __real@bf4ccccd
  0060d	f3 0f 11 04 24	 movss	 DWORD PTR [esp], xmm0
  00612	e8 00 00 00 00	 call	 ?set_2d_mono_font_position@@YGXMM@Z ; set_2d_mono_font_position

; 2079 : 		set_mono_font_rel_position (0.0, 0.0);

  00617	51		 push	 ecx
  00618	0f 57 c0	 xorps	 xmm0, xmm0
  0061b	f3 0f 11 04 24	 movss	 DWORD PTR [esp], xmm0
  00620	51		 push	 ecx
  00621	0f 57 c0	 xorps	 xmm0, xmm0
  00624	f3 0f 11 04 24	 movss	 DWORD PTR [esp], xmm0
  00629	e8 00 00 00 00	 call	 ?set_mono_font_rel_position@@YGXMM@Z ; set_mono_font_rel_position

; 2080 : 		print_mono_font_string("L");

  0062e	68 00 00 00 00	 push	 OFFSET ??_C@_01OCOKONAJ@L@
  00633	e8 00 00 00 00	 call	 ?print_mono_font_string@@YGXPBD@Z ; print_mono_font_string
$LN28@display_ta:

; 2081 : 	}
; 2082 : 
; 2083 : 	if (get_local_entity_int_value(source, INT_TYPE_RADAR_ON))

  00638	83 bd 28 ff ff
	ff 00		 cmp	 DWORD PTR _source$[ebp], 0
  0063f	74 10		 je	 SHORT $LN51@display_ta
  00641	8b 85 28 ff ff
	ff		 mov	 eax, DWORD PTR _source$[ebp]
  00647	8b 08		 mov	 ecx, DWORD PTR [eax]
  00649	89 8d c8 fe ff
	ff		 mov	 DWORD PTR tv262[ebp], ecx
  0064f	eb 20		 jmp	 SHORT $LN52@display_ta
$LN51@display_ta:
  00651	68 23 08 00 00	 push	 2083			; 00000823H
  00656	68 00 00 00 00	 push	 OFFSET ??_C@_0EN@DGOLIDKD@c?3?2users?2nhv90?2projects?2eech?2ap@
  0065b	8b 15 00 00 00
	00		 mov	 edx, DWORD PTR ?null_entity_pointer_message@@3PBDB ; null_entity_pointer_message
  00661	52		 push	 edx
  00662	e8 00 00 00 00	 call	 ?process_assert@@YGXPBD0H@Z ; process_assert
  00667	c7 85 c8 fe ff
	ff 00 00 00 00	 mov	 DWORD PTR tv262[ebp], 0
$LN52@display_ta:
  00671	b8 01 00 00 00	 mov	 eax, 1
  00676	85 c0		 test	 eax, eax
  00678	74 0c		 je	 SHORT $LN53@display_ta
  0067a	c7 85 c4 fe ff
	ff a9 00 00 00	 mov	 DWORD PTR tv269[ebp], 169 ; 000000a9H
  00684	eb 20		 jmp	 SHORT $LN54@display_ta
$LN53@display_ta:
  00686	68 23 08 00 00	 push	 2083			; 00000823H
  0068b	68 00 00 00 00	 push	 OFFSET ??_C@_0EN@DGOLIDKD@c?3?2users?2nhv90?2projects?2eech?2ap@
  00690	8b 0d 00 00 00
	00		 mov	 ecx, DWORD PTR ?overload_invalid_int_type_message@@3PBDB ; overload_invalid_int_type_message
  00696	51		 push	 ecx
  00697	e8 00 00 00 00	 call	 ?process_assert@@YGXPBD0H@Z ; process_assert
  0069c	c7 85 c4 fe ff
	ff 00 00 00 00	 mov	 DWORD PTR tv269[ebp], 0
$LN54@display_ta:
  006a6	68 a9 00 00 00	 push	 169			; 000000a9H
  006ab	8b 95 28 ff ff
	ff		 mov	 edx, DWORD PTR _source$[ebp]
  006b1	52		 push	 edx
  006b2	69 85 c8 fe ff
	ff 5c 04 00 00	 imul	 eax, DWORD PTR tv262[ebp], 1116
  006bc	8b 8d c4 fe ff
	ff		 mov	 ecx, DWORD PTR tv269[ebp]
  006c2	8b 94 88 00 00
	00 00		 mov	 edx, DWORD PTR ?fn_get_local_entity_int_value@@3PAY0BBH@P6GHPAUENTITY@@W4INT_TYPES@@@ZA[eax+ecx*4]
  006c9	ff d2		 call	 edx
  006cb	85 c0		 test	 eax, eax
  006cd	74 42		 je	 SHORT $LN29@display_ta

; 2084 : 	{
; 2085 : 		set_2d_mono_font_position (-0.8, 0.1);

  006cf	51		 push	 ecx
  006d0	f3 0f 10 05 00
	00 00 00	 movss	 xmm0, DWORD PTR __real@3dcccccd
  006d8	f3 0f 11 04 24	 movss	 DWORD PTR [esp], xmm0
  006dd	51		 push	 ecx
  006de	f3 0f 10 05 00
	00 00 00	 movss	 xmm0, DWORD PTR __real@bf4ccccd
  006e6	f3 0f 11 04 24	 movss	 DWORD PTR [esp], xmm0
  006eb	e8 00 00 00 00	 call	 ?set_2d_mono_font_position@@YGXMM@Z ; set_2d_mono_font_position

; 2086 : 		set_mono_font_rel_position (0.0, 0.0);

  006f0	51		 push	 ecx
  006f1	0f 57 c0	 xorps	 xmm0, xmm0
  006f4	f3 0f 11 04 24	 movss	 DWORD PTR [esp], xmm0
  006f9	51		 push	 ecx
  006fa	0f 57 c0	 xorps	 xmm0, xmm0
  006fd	f3 0f 11 04 24	 movss	 DWORD PTR [esp], xmm0
  00702	e8 00 00 00 00	 call	 ?set_mono_font_rel_position@@YGXMM@Z ; set_mono_font_rel_position

; 2087 : 		print_mono_font_string("R");

  00707	68 00 00 00 00	 push	 OFFSET ??_C@_01DGKLNCNG@R@
  0070c	e8 00 00 00 00	 call	 ?print_mono_font_string@@YGXPBD@Z ; print_mono_font_string
$LN29@display_ta:

; 2088 : 	}
; 2089 : 
; 2090 : 	//
; 2091 : 	// target name
; 2092 : 	//
; 2093 : 
; 2094 : 	if (target)

  00711	83 bd 2c ff ff
	ff 00		 cmp	 DWORD PTR _target$[ebp], 0
  00718	0f 84 85 00 00
	00		 je	 $LN31@display_ta

; 2095 : 	{
; 2096 : 		s = get_target_display_name (target, buffer, TRUE);

  0071e	6a 01		 push	 1
  00720	8d 85 34 ff ff
	ff		 lea	 eax, DWORD PTR _buffer$[ebp]
  00726	50		 push	 eax
  00727	8b 8d 2c ff ff
	ff		 mov	 ecx, DWORD PTR _target$[ebp]
  0072d	51		 push	 ecx
  0072e	e8 00 00 00 00	 call	 ?get_target_display_name@@YGPBDPAUENTITY@@PADH@Z ; get_target_display_name
  00733	89 45 fc	 mov	 DWORD PTR _s$[ebp], eax

; 2097 : 
; 2098 : 		if (s)

  00736	83 7d fc 00	 cmp	 DWORD PTR _s$[ebp], 0
  0073a	74 67		 je	 SHORT $LN31@display_ta

; 2099 : 		{
; 2100 : 			width = get_mono_font_string_width (s);

  0073c	8b 45 fc	 mov	 eax, DWORD PTR _s$[ebp]
  0073f	50		 push	 eax
  00740	e8 00 00 00 00	 call	 ?get_mono_font_string_width@@YGMPBD@Z ; get_mono_font_string_width
  00745	d9 9d 30 ff ff
	ff		 fstp	 DWORD PTR _width$[ebp]

; 2101 : 			set_2d_mono_font_position (0.0, -0.75);

  0074b	51		 push	 ecx
  0074c	f3 0f 10 05 00
	00 00 00	 movss	 xmm0, DWORD PTR __real@bf400000
  00754	f3 0f 11 04 24	 movss	 DWORD PTR [esp], xmm0
  00759	51		 push	 ecx
  0075a	0f 57 c0	 xorps	 xmm0, xmm0
  0075d	f3 0f 11 04 24	 movss	 DWORD PTR [esp], xmm0
  00762	e8 00 00 00 00	 call	 ?set_2d_mono_font_position@@YGXMM@Z ; set_2d_mono_font_position

; 2102 : 			set_mono_font_rel_position (-width * 0.5, 0.0);

  00767	51		 push	 ecx
  00768	0f 57 c0	 xorps	 xmm0, xmm0
  0076b	f3 0f 11 04 24	 movss	 DWORD PTR [esp], xmm0
  00770	f3 0f 10 85 30
	ff ff ff	 movss	 xmm0, DWORD PTR _width$[ebp]
  00778	0f 57 05 00 00
	00 00		 xorps	 xmm0, DWORD PTR __xmm@80000000800000008000000080000000
  0077f	f3 0f 5a c0	 cvtss2sd xmm0, xmm0
  00783	f2 0f 59 05 00
	00 00 00	 mulsd	 xmm0, QWORD PTR __real@3fe0000000000000
  0078b	f2 0f 5a c0	 cvtsd2ss xmm0, xmm0
  0078f	51		 push	 ecx
  00790	f3 0f 11 04 24	 movss	 DWORD PTR [esp], xmm0
  00795	e8 00 00 00 00	 call	 ?set_mono_font_rel_position@@YGXMM@Z ; set_mono_font_rel_position

; 2103 : 			print_mono_font_string (s);

  0079a	8b 45 fc	 mov	 eax, DWORD PTR _s$[ebp]
  0079d	50		 push	 eax
  0079e	e8 00 00 00 00	 call	 ?print_mono_font_string@@YGXPBD@Z ; print_mono_font_string
$LN31@display_ta:

; 2104 : 		}
; 2105 : 	}
; 2106 : 
; 2107 : }

  007a3	5f		 pop	 edi
  007a4	5e		 pop	 esi
  007a5	5b		 pop	 ebx
  007a6	8b e5		 mov	 esp, ebp
  007a8	5d		 pop	 ebp
  007a9	c3		 ret	 0
  007aa	66 90		 npad	 2
$LN55@display_ta:
  007ac	00 00 00 00	 DD	 $LN15@display_ta
  007b0	00 00 00 00	 DD	 $LN16@display_ta
  007b4	00 00 00 00	 DD	 $LN17@display_ta
  007b8	00 00 00 00	 DD	 $LN18@display_ta
  007bc	00 00 00 00	 DD	 $LN19@display_ta
  007c0	00 00 00 00	 DD	 $LN20@display_ta
  007c4	00 00 00 00	 DD	 $LN21@display_ta
  007c8	00 00 00 00	 DD	 $LN22@display_ta
  007cc	00 00 00 00	 DD	 $LN23@display_ta
  007d0	00 00 00 00	 DD	 $LN25@display_ta
?display_target_information@@YGXXZ ENDP			; display_target_information
_TEXT	ENDS
; Function compile flags: /Odtp /ZI
; File c:\users\nhv90\projects\eech\aphavoc\source\gunships\avionics\hokum\hk_hud.c
;	COMDAT ?display_weapon_information@@YGXXZ
_TEXT	SEGMENT
tv186 = -212						; size = 8
tv399 = -204						; size = 8
tv314 = -204						; size = 8
tv308 = -204						; size = 8
tv302 = -204						; size = 8
tv235 = -204						; size = 8
tv221 = -204						; size = 4
tv205 = -204						; size = 8
tv187 = -204						; size = 8
tv93 = -204						; size = 8
tv78 = -204						; size = 4
tv412 = -200						; size = 4
tv405 = -200						; size = 4
tv213 = -200						; size = 4
tv70 = -200						; size = 4
_roll$1 = -132						; size = 4
_drop_hud_distance$2 = -128				; size = 4
_head_offset_z$3 = -124					; size = 4
_angle_of_drop$4 = -120					; size = 4
_y$5 = -116						; size = 4
_x$6 = -112						; size = 4
_flight_time$7 = -108					; size = 4
_upper_limit$8 = -104					; size = 4
_right_limit$9 = -100					; size = 4
_left_limit$10 = -96					; size = 4
_head_offset_z$11 = -92					; size = 4
_weapon_type$ = -88					; size = 4
_s$ = -84						; size = 80
_weapon_sub_type$ = -4					; size = 4
?display_weapon_information@@YGXXZ PROC			; display_weapon_information, COMDAT

; 1854 : {

  00000	55		 push	 ebp
  00001	8b ec		 mov	 ebp, esp
  00003	81 ec d4 00 00
	00		 sub	 esp, 212		; 000000d4H
  00009	53		 push	 ebx
  0000a	56		 push	 esi
  0000b	57		 push	 edi

; 1855 : 	entity_sub_types weapon_sub_type;
; 1856 : 	char s[80], *weapon_type;
; 1857 : 
; 1858 : 	weapon_sub_type = get_local_entity_int_value (get_gunship_entity (), INT_TYPE_SELECTED_WEAPON);

  0000c	83 3d 00 00 00
	00 00		 cmp	 DWORD PTR ?gunship_entity@@3PAUENTITY@@A, 0 ; gunship_entity
  00013	74 0f		 je	 SHORT $LN20@display_we
  00015	a1 00 00 00 00	 mov	 eax, DWORD PTR ?gunship_entity@@3PAUENTITY@@A ; gunship_entity
  0001a	8b 08		 mov	 ecx, DWORD PTR [eax]
  0001c	89 8d 38 ff ff
	ff		 mov	 DWORD PTR tv70[ebp], ecx
  00022	eb 24		 jmp	 SHORT $LN21@display_we
$LN20@display_we:
  00024	8b 15 00 00 00
	00		 mov	 edx, DWORD PTR ?__LINE__Var@?0??display_weapon_information@@YGXXZ@4JA
  0002a	83 c2 04	 add	 edx, 4
  0002d	52		 push	 edx
  0002e	68 00 00 00 00	 push	 OFFSET ??_C@_0EN@DGOLIDKD@c?3?2users?2nhv90?2projects?2eech?2ap@
  00033	a1 00 00 00 00	 mov	 eax, DWORD PTR ?null_entity_pointer_message@@3PBDB ; null_entity_pointer_message
  00038	50		 push	 eax
  00039	e8 00 00 00 00	 call	 ?process_assert@@YGXPBD0H@Z ; process_assert
  0003e	c7 85 38 ff ff
	ff 00 00 00 00	 mov	 DWORD PTR tv70[ebp], 0
$LN21@display_we:
  00048	b9 01 00 00 00	 mov	 ecx, 1
  0004d	85 c9		 test	 ecx, ecx
  0004f	74 0c		 je	 SHORT $LN22@display_we
  00051	c7 85 34 ff ff
	ff b8 00 00 00	 mov	 DWORD PTR tv78[ebp], 184 ; 000000b8H
  0005b	eb 24		 jmp	 SHORT $LN23@display_we
$LN22@display_we:
  0005d	8b 15 00 00 00
	00		 mov	 edx, DWORD PTR ?__LINE__Var@?0??display_weapon_information@@YGXXZ@4JA
  00063	83 c2 04	 add	 edx, 4
  00066	52		 push	 edx
  00067	68 00 00 00 00	 push	 OFFSET ??_C@_0EN@DGOLIDKD@c?3?2users?2nhv90?2projects?2eech?2ap@
  0006c	a1 00 00 00 00	 mov	 eax, DWORD PTR ?overload_invalid_int_type_message@@3PBDB ; overload_invalid_int_type_message
  00071	50		 push	 eax
  00072	e8 00 00 00 00	 call	 ?process_assert@@YGXPBD0H@Z ; process_assert
  00077	c7 85 34 ff ff
	ff 00 00 00 00	 mov	 DWORD PTR tv78[ebp], 0
$LN23@display_we:
  00081	68 b8 00 00 00	 push	 184			; 000000b8H
  00086	8b 0d 00 00 00
	00		 mov	 ecx, DWORD PTR ?gunship_entity@@3PAUENTITY@@A ; gunship_entity
  0008c	51		 push	 ecx
  0008d	69 95 38 ff ff
	ff 5c 04 00 00	 imul	 edx, DWORD PTR tv70[ebp], 1116
  00097	8b 85 34 ff ff
	ff		 mov	 eax, DWORD PTR tv78[ebp]
  0009d	8b 8c 82 00 00
	00 00		 mov	 ecx, DWORD PTR ?fn_get_local_entity_int_value@@3PAY0BBH@P6GHPAUENTITY@@W4INT_TYPES@@@ZA[edx+eax*4]
  000a4	ff d1		 call	 ecx
  000a6	89 45 fc	 mov	 DWORD PTR _weapon_sub_type$[ebp], eax

; 1859 : 
; 1860 : 	if (weapon_sub_type != ENTITY_SUB_TYPE_WEAPON_NO_WEAPON)

  000a9	83 7d fc 00	 cmp	 DWORD PTR _weapon_sub_type$[ebp], 0
  000ad	0f 84 36 06 00
	00		 je	 $LN2@display_we

; 1861 : 	{
; 1862 : 		if (weapon_sub_type == ENTITY_SUB_TYPE_WEAPON_2A42_30MM_HE_ROUND
; 1863 : 			|| weapon_sub_type == ENTITY_SUB_TYPE_WEAPON_2A42_30MM_AP_ROUND)

  000b3	83 7d fc 13	 cmp	 DWORD PTR _weapon_sub_type$[ebp], 19 ; 00000013H
  000b7	74 0a		 je	 SHORT $LN5@display_we
  000b9	83 7d fc 14	 cmp	 DWORD PTR _weapon_sub_type$[ebp], 20 ; 00000014H
  000bd	0f 85 3f 02 00
	00		 jne	 $LN3@display_we
$LN5@display_we:

; 1864 : 		{
; 1865 : 			float head_offset_z = get_global_wide_cockpit() ? wide_cockpit_position[WIDEVIEW_HOKUM_PILOT].c.z : 0.0;

  000c3	83 3d 00 00 00
	00 00		 cmp	 DWORD PTR ?wide_cockpit@@3HA, 0 ; wide_cockpit
  000ca	74 19		 je	 SHORT $LN24@display_we
  000cc	b8 24 00 00 00	 mov	 eax, 36			; 00000024H
  000d1	d1 e0		 shl	 eax, 1
  000d3	f3 0f 5a 80 1c
	00 00 00	 cvtss2sd xmm0, DWORD PTR ?wide_cockpit_position@@3PAUCOCKPIT_POSITION@@A[eax+28]
  000db	f2 0f 11 85 34
	ff ff ff	 movsd	 QWORD PTR tv93[ebp], xmm0
  000e3	eb 0b		 jmp	 SHORT $LN25@display_we
$LN24@display_we:
  000e5	0f 57 c0	 xorps	 xmm0, xmm0
  000e8	f2 0f 11 85 34
	ff ff ff	 movsd	 QWORD PTR tv93[ebp], xmm0
$LN25@display_we:
  000f0	f2 0f 5a 85 34
	ff ff ff	 cvtsd2ss xmm0, QWORD PTR tv93[ebp]
  000f8	f3 0f 11 45 a4	 movss	 DWORD PTR _head_offset_z$11[ebp], xmm0

; 1866 : 			float left_limit, right_limit, upper_limit;
; 1867 : 			
; 1868 : 			if (command_line_TIR_6DOF && query_TIR_active())

  000fd	83 3d 00 00 00
	00 00		 cmp	 DWORD PTR ?command_line_TIR_6DOF@@3HA, 0 ; command_line_TIR_6DOF
  00104	74 1f		 je	 SHORT $LN6@display_we
  00106	e8 00 00 00 00	 call	 ?query_TIR_active@@YAHXZ ; query_TIR_active
  0010b	85 c0		 test	 eax, eax
  0010d	74 16		 je	 SHORT $LN6@display_we

; 1869 : 				head_offset_z = getViewpointOffsetZ(1);

  0010f	51		 push	 ecx
  00110	f3 0f 10 05 00
	00 00 00	 movss	 xmm0, DWORD PTR __real@3f800000
  00118	f3 0f 11 04 24	 movss	 DWORD PTR [esp], xmm0
  0011d	e8 00 00 00 00	 call	 ?getViewpointOffsetZ@@YGMM@Z ; getViewpointOffsetZ
  00122	d9 5d a4	 fstp	 DWORD PTR _head_offset_z$11[ebp]
$LN6@display_we:

; 1870 : 			
; 1871 : 			// adjust box for head position
; 1872 : 			left_limit = atan(rad(-1.0)) * (head_offset_z + 1.1) * HUD_UNIT_RATIO;

  00125	83 ec 08	 sub	 esp, 8
  00128	f2 0f 10 05 00
	00 00 00	 movsd	 xmm0, QWORD PTR __real@bf91df46a0000000
  00130	f2 0f 11 04 24	 movsd	 QWORD PTR [esp], xmm0
  00135	e8 00 00 00 00	 call	 _atan
  0013a	83 c4 08	 add	 esp, 8
  0013d	dd 9d 34 ff ff
	ff		 fstp	 QWORD PTR tv302[ebp]
  00143	f2 0f 10 85 34
	ff ff ff	 movsd	 xmm0, QWORD PTR tv302[ebp]
  0014b	f3 0f 5a 4d a4	 cvtss2sd xmm1, DWORD PTR _head_offset_z$11[ebp]
  00150	f2 0f 58 0d 00
	00 00 00	 addsd	 xmm1, QWORD PTR __real@3ff199999999999a
  00158	f2 0f 59 c1	 mulsd	 xmm0, xmm1
  0015c	f2 0f 59 05 00
	00 00 00	 mulsd	 xmm0, QWORD PTR __real@402819999999999a
  00164	f2 0f 5a c0	 cvtsd2ss xmm0, xmm0
  00168	f3 0f 11 45 a0	 movss	 DWORD PTR _left_limit$10[ebp], xmm0

; 1873 : 			right_limit = atan(rad(6.0)) * (head_offset_z + 1.1) * HUD_UNIT_RATIO;

  0016d	83 ec 08	 sub	 esp, 8
  00170	f2 0f 10 05 00
	00 00 00	 movsd	 xmm0, QWORD PTR __real@3fbacee9f0000000
  00178	f2 0f 11 04 24	 movsd	 QWORD PTR [esp], xmm0
  0017d	e8 00 00 00 00	 call	 _atan
  00182	83 c4 08	 add	 esp, 8
  00185	dd 9d 34 ff ff
	ff		 fstp	 QWORD PTR tv308[ebp]
  0018b	f2 0f 10 85 34
	ff ff ff	 movsd	 xmm0, QWORD PTR tv308[ebp]
  00193	f3 0f 5a 4d a4	 cvtss2sd xmm1, DWORD PTR _head_offset_z$11[ebp]
  00198	f2 0f 58 0d 00
	00 00 00	 addsd	 xmm1, QWORD PTR __real@3ff199999999999a
  001a0	f2 0f 59 c1	 mulsd	 xmm0, xmm1
  001a4	f2 0f 59 05 00
	00 00 00	 mulsd	 xmm0, QWORD PTR __real@402819999999999a
  001ac	f2 0f 5a c0	 cvtsd2ss xmm0, xmm0
  001b0	f3 0f 11 45 9c	 movss	 DWORD PTR _right_limit$9[ebp], xmm0

; 1874 : 			upper_limit = atan(rad(3.0)) * (head_offset_z + 1.1) * HUD_UNIT_RATIO;

  001b5	83 ec 08	 sub	 esp, 8
  001b8	f2 0f 10 05 00
	00 00 00	 movsd	 xmm0, QWORD PTR __real@3faacee9f0000000
  001c0	f2 0f 11 04 24	 movsd	 QWORD PTR [esp], xmm0
  001c5	e8 00 00 00 00	 call	 _atan
  001ca	83 c4 08	 add	 esp, 8
  001cd	dd 9d 34 ff ff
	ff		 fstp	 QWORD PTR tv314[ebp]
  001d3	f2 0f 10 85 34
	ff ff ff	 movsd	 xmm0, QWORD PTR tv314[ebp]
  001db	f3 0f 5a 4d a4	 cvtss2sd xmm1, DWORD PTR _head_offset_z$11[ebp]
  001e0	f2 0f 58 0d 00
	00 00 00	 addsd	 xmm1, QWORD PTR __real@3ff199999999999a
  001e8	f2 0f 59 c1	 mulsd	 xmm0, xmm1
  001ec	f2 0f 59 05 00
	00 00 00	 mulsd	 xmm0, QWORD PTR __real@402819999999999a
  001f4	f2 0f 5a c0	 cvtsd2ss xmm0, xmm0
  001f8	f3 0f 11 45 98	 movss	 DWORD PTR _upper_limit$8[ebp], xmm0

; 1875 : 
; 1876 : 			draw_2d_line(left_limit, -1.0, left_limit, upper_limit, hud_colour);

  001fd	a1 00 00 00 00	 mov	 eax, DWORD PTR ?hud_colour@@3UREAL_COLOUR@@A ; hud_colour
  00202	50		 push	 eax
  00203	51		 push	 ecx
  00204	f3 0f 10 45 98	 movss	 xmm0, DWORD PTR _upper_limit$8[ebp]
  00209	f3 0f 11 04 24	 movss	 DWORD PTR [esp], xmm0
  0020e	51		 push	 ecx
  0020f	f3 0f 10 45 a0	 movss	 xmm0, DWORD PTR _left_limit$10[ebp]
  00214	f3 0f 11 04 24	 movss	 DWORD PTR [esp], xmm0
  00219	51		 push	 ecx
  0021a	f3 0f 10 05 00
	00 00 00	 movss	 xmm0, DWORD PTR __real@bf800000
  00222	f3 0f 11 04 24	 movss	 DWORD PTR [esp], xmm0
  00227	51		 push	 ecx
  00228	f3 0f 10 45 a0	 movss	 xmm0, DWORD PTR _left_limit$10[ebp]
  0022d	f3 0f 11 04 24	 movss	 DWORD PTR [esp], xmm0
  00232	e8 00 00 00 00	 call	 ?draw_2d_line@@YGXMMMMUREAL_COLOUR@@@Z ; draw_2d_line

; 1877 : 			draw_2d_line(right_limit, -1.0, right_limit, upper_limit, hud_colour);

  00237	a1 00 00 00 00	 mov	 eax, DWORD PTR ?hud_colour@@3UREAL_COLOUR@@A ; hud_colour
  0023c	50		 push	 eax
  0023d	51		 push	 ecx
  0023e	f3 0f 10 45 98	 movss	 xmm0, DWORD PTR _upper_limit$8[ebp]
  00243	f3 0f 11 04 24	 movss	 DWORD PTR [esp], xmm0
  00248	51		 push	 ecx
  00249	f3 0f 10 45 9c	 movss	 xmm0, DWORD PTR _right_limit$9[ebp]
  0024e	f3 0f 11 04 24	 movss	 DWORD PTR [esp], xmm0
  00253	51		 push	 ecx
  00254	f3 0f 10 05 00
	00 00 00	 movss	 xmm0, DWORD PTR __real@bf800000
  0025c	f3 0f 11 04 24	 movss	 DWORD PTR [esp], xmm0
  00261	51		 push	 ecx
  00262	f3 0f 10 45 9c	 movss	 xmm0, DWORD PTR _right_limit$9[ebp]
  00267	f3 0f 11 04 24	 movss	 DWORD PTR [esp], xmm0
  0026c	e8 00 00 00 00	 call	 ?draw_2d_line@@YGXMMMMUREAL_COLOUR@@@Z ; draw_2d_line

; 1878 : 			draw_2d_line(left_limit, upper_limit, right_limit, upper_limit, hud_colour);

  00271	a1 00 00 00 00	 mov	 eax, DWORD PTR ?hud_colour@@3UREAL_COLOUR@@A ; hud_colour
  00276	50		 push	 eax
  00277	51		 push	 ecx
  00278	f3 0f 10 45 98	 movss	 xmm0, DWORD PTR _upper_limit$8[ebp]
  0027d	f3 0f 11 04 24	 movss	 DWORD PTR [esp], xmm0
  00282	51		 push	 ecx
  00283	f3 0f 10 45 9c	 movss	 xmm0, DWORD PTR _right_limit$9[ebp]
  00288	f3 0f 11 04 24	 movss	 DWORD PTR [esp], xmm0
  0028d	51		 push	 ecx
  0028e	f3 0f 10 45 98	 movss	 xmm0, DWORD PTR _upper_limit$8[ebp]
  00293	f3 0f 11 04 24	 movss	 DWORD PTR [esp], xmm0
  00298	51		 push	 ecx
  00299	f3 0f 10 45 a0	 movss	 xmm0, DWORD PTR _left_limit$10[ebp]
  0029e	f3 0f 11 04 24	 movss	 DWORD PTR [esp], xmm0
  002a3	e8 00 00 00 00	 call	 ?draw_2d_line@@YGXMMMMUREAL_COLOUR@@@Z ; draw_2d_line

; 1879 : 			
; 1880 : 			set_mono_font_type (MONO_FONT_TYPE_6X10);

  002a8	6a 04		 push	 4
  002aa	e8 00 00 00 00	 call	 ?set_mono_font_type@@YGXW4MONO_FONT_TYPES@@@Z ; set_mono_font_type

; 1881 : 			set_2d_mono_font_position (-0.9, -0.7);

  002af	51		 push	 ecx
  002b0	f3 0f 10 05 00
	00 00 00	 movss	 xmm0, DWORD PTR __real@bf333333
  002b8	f3 0f 11 04 24	 movss	 DWORD PTR [esp], xmm0
  002bd	51		 push	 ecx
  002be	f3 0f 10 05 00
	00 00 00	 movss	 xmm0, DWORD PTR __real@bf666666
  002c6	f3 0f 11 04 24	 movss	 DWORD PTR [esp], xmm0
  002cb	e8 00 00 00 00	 call	 ?set_2d_mono_font_position@@YGXMM@Z ; set_2d_mono_font_position

; 1882 : 			set_mono_font_rel_position (0.0, 0.0);

  002d0	51		 push	 ecx
  002d1	0f 57 c0	 xorps	 xmm0, xmm0
  002d4	f3 0f 11 04 24	 movss	 DWORD PTR [esp], xmm0
  002d9	51		 push	 ecx
  002da	0f 57 c0	 xorps	 xmm0, xmm0
  002dd	f3 0f 11 04 24	 movss	 DWORD PTR [esp], xmm0
  002e2	e8 00 00 00 00	 call	 ?set_mono_font_rel_position@@YGXMM@Z ; set_mono_font_rel_position

; 1883 : 			if (weapon_sub_type == ENTITY_SUB_TYPE_WEAPON_2A42_30MM_HE_ROUND)

  002e7	83 7d fc 13	 cmp	 DWORD PTR _weapon_sub_type$[ebp], 19 ; 00000013H
  002eb	75 09		 jne	 SHORT $LN7@display_we

; 1884 : 				weapon_type = "HE";

  002ed	c7 45 a8 00 00
	00 00		 mov	 DWORD PTR _weapon_type$[ebp], OFFSET ??_C@_02PDDJEBNF@HE@

; 1885 : 			else

  002f4	eb 07		 jmp	 SHORT $LN8@display_we
$LN7@display_we:

; 1886 : 				weapon_type = "AP";

  002f6	c7 45 a8 00 00
	00 00		 mov	 DWORD PTR _weapon_type$[ebp], OFFSET ??_C@_02MLFNJMEO@AP@
$LN8@display_we:
  002fd	e9 8d 03 00 00	 jmp	 $LN13@display_we
$LN3@display_we:

; 1887 : 		}
; 1888 : 		else if (weapon_sub_type == ENTITY_SUB_TYPE_WEAPON_VIKHR)

  00302	83 7d fc 32	 cmp	 DWORD PTR _weapon_sub_type$[ebp], 50 ; 00000032H
  00306	0f 85 0b 01 00
	00		 jne	 $LN9@display_we

; 1889 : 		{
; 1890 : 			float flight_time = get_missile_flight_time ();

  0030c	e8 00 00 00 00	 call	 ?get_missile_flight_time@@YGMXZ ; get_missile_flight_time
  00311	d9 5d 94	 fstp	 DWORD PTR _flight_time$7[ebp]

; 1891 : 			debug_log("ft: %.1f", flight_time);

  00314	f3 0f 5a 45 94	 cvtss2sd xmm0, DWORD PTR _flight_time$7[ebp]
  00319	83 ec 08	 sub	 esp, 8
  0031c	f2 0f 11 04 24	 movsd	 QWORD PTR [esp], xmm0
  00321	68 00 00 00 00	 push	 OFFSET ??_C@_08EKOIEIMA@ft?3?5?$CF?41f@
  00326	e8 00 00 00 00	 call	 ?debug_log@@YAXPBDZZ	; debug_log
  0032b	83 c4 0c	 add	 esp, 12			; 0000000cH

; 1892 : 
; 1893 : 			if (flight_time > 0.01)

  0032e	f3 0f 5a 45 94	 cvtss2sd xmm0, DWORD PTR _flight_time$7[ebp]
  00333	66 0f 2f 05 00
	00 00 00	 comisd	 xmm0, QWORD PTR __real@3f847ae147ae147b
  0033b	0f 86 ca 00 00
	00		 jbe	 $LN11@display_we

; 1894 : 			{
; 1895 : 				flight_time = bound (flight_time, 0.0, 99.9);

  00341	f3 0f 5a 45 94	 cvtss2sd xmm0, DWORD PTR _flight_time$7[ebp]
  00346	0f 57 c9	 xorps	 xmm1, xmm1
  00349	66 0f 2f c8	 comisd	 xmm1, xmm0
  0034d	76 0d		 jbe	 SHORT $LN28@display_we
  0034f	0f 57 c0	 xorps	 xmm0, xmm0
  00352	f2 0f 11 85 34
	ff ff ff	 movsd	 QWORD PTR tv187[ebp], xmm0
  0035a	eb 3e		 jmp	 SHORT $LN29@display_we
$LN28@display_we:
  0035c	f3 0f 5a 45 94	 cvtss2sd xmm0, DWORD PTR _flight_time$7[ebp]
  00361	66 0f 2f 05 00
	00 00 00	 comisd	 xmm0, QWORD PTR __real@4058f9999999999a
  00369	76 12		 jbe	 SHORT $LN26@display_we
  0036b	f2 0f 10 05 00
	00 00 00	 movsd	 xmm0, QWORD PTR __real@4058f9999999999a
  00373	f2 0f 11 85 2c
	ff ff ff	 movsd	 QWORD PTR tv186[ebp], xmm0
  0037b	eb 0d		 jmp	 SHORT $LN27@display_we
$LN26@display_we:
  0037d	f3 0f 5a 45 94	 cvtss2sd xmm0, DWORD PTR _flight_time$7[ebp]
  00382	f2 0f 11 85 2c
	ff ff ff	 movsd	 QWORD PTR tv186[ebp], xmm0
$LN27@display_we:
  0038a	f2 0f 10 85 2c
	ff ff ff	 movsd	 xmm0, QWORD PTR tv186[ebp]
  00392	f2 0f 11 85 34
	ff ff ff	 movsd	 QWORD PTR tv187[ebp], xmm0
$LN29@display_we:
  0039a	f2 0f 5a 85 34
	ff ff ff	 cvtsd2ss xmm0, QWORD PTR tv187[ebp]
  003a2	f3 0f 11 45 94	 movss	 DWORD PTR _flight_time$7[ebp], xmm0

; 1896 : 				sprintf (s, "%02.0f", flight_time);

  003a7	f3 0f 5a 45 94	 cvtss2sd xmm0, DWORD PTR _flight_time$7[ebp]
  003ac	83 ec 08	 sub	 esp, 8
  003af	f2 0f 11 04 24	 movsd	 QWORD PTR [esp], xmm0
  003b4	68 00 00 00 00	 push	 OFFSET ??_C@_06HHKMCLEN@?$CF02?40f@
  003b9	8d 45 ac	 lea	 eax, DWORD PTR _s$[ebp]
  003bc	50		 push	 eax
  003bd	e8 00 00 00 00	 call	 _sprintf
  003c2	83 c4 10	 add	 esp, 16			; 00000010H

; 1897 : 				set_2d_mono_font_position (-0.5, -0.65);

  003c5	51		 push	 ecx
  003c6	f3 0f 10 05 00
	00 00 00	 movss	 xmm0, DWORD PTR __real@bf266666
  003ce	f3 0f 11 04 24	 movss	 DWORD PTR [esp], xmm0
  003d3	51		 push	 ecx
  003d4	f3 0f 10 05 00
	00 00 00	 movss	 xmm0, DWORD PTR __real@bf000000
  003dc	f3 0f 11 04 24	 movss	 DWORD PTR [esp], xmm0
  003e1	e8 00 00 00 00	 call	 ?set_2d_mono_font_position@@YGXMM@Z ; set_2d_mono_font_position

; 1898 : 				set_mono_font_rel_position (1.0, 0.0);

  003e6	51		 push	 ecx
  003e7	0f 57 c0	 xorps	 xmm0, xmm0
  003ea	f3 0f 11 04 24	 movss	 DWORD PTR [esp], xmm0
  003ef	51		 push	 ecx
  003f0	f3 0f 10 05 00
	00 00 00	 movss	 xmm0, DWORD PTR __real@3f800000
  003f8	f3 0f 11 04 24	 movss	 DWORD PTR [esp], xmm0
  003fd	e8 00 00 00 00	 call	 ?set_mono_font_rel_position@@YGXMM@Z ; set_mono_font_rel_position

; 1899 : 				print_mono_font_string (s);

  00402	8d 45 ac	 lea	 eax, DWORD PTR _s$[ebp]
  00405	50		 push	 eax
  00406	e8 00 00 00 00	 call	 ?print_mono_font_string@@YGXPBD@Z ; print_mono_font_string
$LN11@display_we:

; 1900 : 			}
; 1901 : 			weapon_type = "MSL";

  0040b	c7 45 a8 00 00
	00 00		 mov	 DWORD PTR _weapon_type$[ebp], OFFSET ??_C@_03IFPDDAOD@MSL@
  00412	e9 78 02 00 00	 jmp	 $LN13@display_we
$LN9@display_we:

; 1902 : 		}
; 1903 : 		else if (weapon_sub_type == ENTITY_SUB_TYPE_WEAPON_IGLA_V)

  00417	83 7d fc 27	 cmp	 DWORD PTR _weapon_sub_type$[ebp], 39 ; 00000027H
  0041b	75 0c		 jne	 SHORT $LN12@display_we

; 1904 : 			weapon_type = "ATA";

  0041d	c7 45 a8 00 00
	00 00		 mov	 DWORD PTR _weapon_type$[ebp], OFFSET ??_C@_03HPMEOHJD@ATA@

; 1905 : 		else

  00424	e9 66 02 00 00	 jmp	 $LN13@display_we
$LN12@display_we:

; 1906 : 		{
; 1907 : 			float x,y;
; 1908 : 			float angle_of_drop = 0.0;

  00429	0f 57 c0	 xorps	 xmm0, xmm0
  0042c	f3 0f 11 45 88	 movss	 DWORD PTR _angle_of_drop$4[ebp], xmm0

; 1909 : 			float head_offset_z = get_global_wide_cockpit() ? wide_cockpit_position[WIDEVIEW_HOKUM_PILOT].c.z : 0.0;

  00431	83 3d 00 00 00
	00 00		 cmp	 DWORD PTR ?wide_cockpit@@3HA, 0 ; wide_cockpit
  00438	74 19		 je	 SHORT $LN30@display_we
  0043a	b8 24 00 00 00	 mov	 eax, 36			; 00000024H
  0043f	d1 e0		 shl	 eax, 1
  00441	f3 0f 5a 80 1c
	00 00 00	 cvtss2sd xmm0, DWORD PTR ?wide_cockpit_position@@3PAUCOCKPIT_POSITION@@A[eax+28]
  00449	f2 0f 11 85 34
	ff ff ff	 movsd	 QWORD PTR tv205[ebp], xmm0
  00451	eb 0b		 jmp	 SHORT $LN31@display_we
$LN30@display_we:
  00453	0f 57 c0	 xorps	 xmm0, xmm0
  00456	f2 0f 11 85 34
	ff ff ff	 movsd	 QWORD PTR tv205[ebp], xmm0
$LN31@display_we:
  0045e	f2 0f 5a 85 34
	ff ff ff	 cvtsd2ss xmm0, QWORD PTR tv205[ebp]
  00466	f3 0f 11 45 84	 movss	 DWORD PTR _head_offset_z$3[ebp], xmm0

; 1910 : 			float drop_hud_distance;
; 1911 : 			float roll = get_local_entity_float_value (get_gunship_entity (), FLOAT_TYPE_ROLL);

  0046b	83 3d 00 00 00
	00 00		 cmp	 DWORD PTR ?gunship_entity@@3PAUENTITY@@A, 0 ; gunship_entity
  00472	74 0f		 je	 SHORT $LN32@display_we
  00474	a1 00 00 00 00	 mov	 eax, DWORD PTR ?gunship_entity@@3PAUENTITY@@A ; gunship_entity
  00479	8b 08		 mov	 ecx, DWORD PTR [eax]
  0047b	89 8d 38 ff ff
	ff		 mov	 DWORD PTR tv213[ebp], ecx
  00481	eb 24		 jmp	 SHORT $LN33@display_we
$LN32@display_we:
  00483	8b 15 00 00 00
	00		 mov	 edx, DWORD PTR ?__LINE__Var@?0??display_weapon_information@@YGXXZ@4JA
  00489	83 c2 39	 add	 edx, 57			; 00000039H
  0048c	52		 push	 edx
  0048d	68 00 00 00 00	 push	 OFFSET ??_C@_0EN@DGOLIDKD@c?3?2users?2nhv90?2projects?2eech?2ap@
  00492	a1 00 00 00 00	 mov	 eax, DWORD PTR ?null_entity_pointer_message@@3PBDB ; null_entity_pointer_message
  00497	50		 push	 eax
  00498	e8 00 00 00 00	 call	 ?process_assert@@YGXPBD0H@Z ; process_assert
  0049d	c7 85 38 ff ff
	ff 00 00 00 00	 mov	 DWORD PTR tv213[ebp], 0
$LN33@display_we:
  004a7	b9 01 00 00 00	 mov	 ecx, 1
  004ac	85 c9		 test	 ecx, ecx
  004ae	74 0c		 je	 SHORT $LN34@display_we
  004b0	c7 85 34 ff ff
	ff 71 00 00 00	 mov	 DWORD PTR tv221[ebp], 113 ; 00000071H
  004ba	eb 24		 jmp	 SHORT $LN35@display_we
$LN34@display_we:
  004bc	8b 15 00 00 00
	00		 mov	 edx, DWORD PTR ?__LINE__Var@?0??display_weapon_information@@YGXXZ@4JA
  004c2	83 c2 39	 add	 edx, 57			; 00000039H
  004c5	52		 push	 edx
  004c6	68 00 00 00 00	 push	 OFFSET ??_C@_0EN@DGOLIDKD@c?3?2users?2nhv90?2projects?2eech?2ap@
  004cb	a1 00 00 00 00	 mov	 eax, DWORD PTR ?overload_invalid_float_type_message@@3PBDB ; overload_invalid_float_type_message
  004d0	50		 push	 eax
  004d1	e8 00 00 00 00	 call	 ?process_assert@@YGXPBD0H@Z ; process_assert
  004d6	c7 85 34 ff ff
	ff 00 00 00 00	 mov	 DWORD PTR tv221[ebp], 0
$LN35@display_we:
  004e0	6a 71		 push	 113			; 00000071H
  004e2	8b 0d 00 00 00
	00		 mov	 ecx, DWORD PTR ?gunship_entity@@3PAUENTITY@@A ; gunship_entity
  004e8	51		 push	 ecx
  004e9	69 95 38 ff ff
	ff bc 02 00 00	 imul	 edx, DWORD PTR tv213[ebp], 700
  004f3	8b 85 34 ff ff
	ff		 mov	 eax, DWORD PTR tv221[ebp]
  004f9	8b 8c 82 00 00
	00 00		 mov	 ecx, DWORD PTR ?fn_get_local_entity_float_value@@3PAY0KP@P6GMPAUENTITY@@W4FLOAT_TYPES@@@ZA[edx+eax*4]
  00500	ff d1		 call	 ecx
  00502	d9 9d 7c ff ff
	ff		 fstp	 DWORD PTR _roll$1[ebp]

; 1912 : 
; 1913 : 			if (weapon_sub_type == ENTITY_SUB_TYPE_WEAPON_GSH23L_23MM_ROUND)

  00508	83 7d fc 0f	 cmp	 DWORD PTR _weapon_sub_type$[ebp], 15 ; 0000000fH
  0050c	75 09		 jne	 SHORT $LN14@display_we

; 1914 : 				weapon_type = "GUN";

  0050e	c7 45 a8 00 00
	00 00		 mov	 DWORD PTR _weapon_type$[ebp], OFFSET ??_C@_03NMPFMOLH@GUN@

; 1915 : 			else

  00515	eb 07		 jmp	 SHORT $LN15@display_we
$LN14@display_we:

; 1916 : 				weapon_type = "RKT";

  00517	c7 45 a8 00 00
	00 00		 mov	 DWORD PTR _weapon_type$[ebp], OFFSET ??_C@_03BNKHBNLL@RKT@
$LN15@display_we:

; 1917 : 
; 1918 : 			angle_of_drop = get_weapon_drop(weapon_sub_type);

  0051e	8b 45 fc	 mov	 eax, DWORD PTR _weapon_sub_type$[ebp]
  00521	50		 push	 eax
  00522	e8 00 00 00 00	 call	 ?get_weapon_drop@@YGMH@Z ; get_weapon_drop
  00527	d9 5d 88	 fstp	 DWORD PTR _angle_of_drop$4[ebp]

; 1919 : 
; 1920 : 			// move eo to hit point
; 1921 : 			if (target_acquisition_system == TARGET_ACQUISITION_SYSTEM_OFF)

  0052a	83 3d 00 00 00
	00 00		 cmp	 DWORD PTR ?target_acquisition_system@@3W4TARGET_ACQUISITION_SYSTEMS@@A, 0 ; target_acquisition_system
  00531	75 20		 jne	 SHORT $LN16@display_we

; 1922 : 				slew_eo_to_direction(-angle_of_drop, 0.0);

  00533	51		 push	 ecx
  00534	0f 57 c0	 xorps	 xmm0, xmm0
  00537	f3 0f 11 04 24	 movss	 DWORD PTR [esp], xmm0
  0053c	f3 0f 10 45 88	 movss	 xmm0, DWORD PTR _angle_of_drop$4[ebp]
  00541	0f 57 05 00 00
	00 00		 xorps	 xmm0, DWORD PTR __xmm@80000000800000008000000080000000
  00548	51		 push	 ecx
  00549	f3 0f 11 04 24	 movss	 DWORD PTR [esp], xmm0
  0054e	e8 00 00 00 00	 call	 ?slew_eo_to_direction@@YGXMM@Z ; slew_eo_to_direction
$LN16@display_we:

; 1923 : 
; 1924 : 			x = 0.0;

  00553	0f 57 c0	 xorps	 xmm0, xmm0
  00556	f3 0f 11 45 90	 movss	 DWORD PTR _x$6[ebp], xmm0

; 1925 : 			y = get_global_wide_cockpit() ? 0.38 : 0.80;

  0055b	83 3d 00 00 00
	00 00		 cmp	 DWORD PTR ?wide_cockpit@@3HA, 0 ; wide_cockpit
  00562	74 12		 je	 SHORT $LN36@display_we
  00564	f2 0f 10 05 00
	00 00 00	 movsd	 xmm0, QWORD PTR __real@3fd851eb851eb852
  0056c	f2 0f 11 85 34
	ff ff ff	 movsd	 QWORD PTR tv235[ebp], xmm0
  00574	eb 10		 jmp	 SHORT $LN37@display_we
$LN36@display_we:
  00576	f2 0f 10 05 00
	00 00 00	 movsd	 xmm0, QWORD PTR __real@3fe999999999999a
  0057e	f2 0f 11 85 34
	ff ff ff	 movsd	 QWORD PTR tv235[ebp], xmm0
$LN37@display_we:
  00586	f2 0f 5a 85 34
	ff ff ff	 cvtsd2ss xmm0, QWORD PTR tv235[ebp]
  0058e	f3 0f 11 45 8c	 movss	 DWORD PTR _y$5[ebp], xmm0

; 1926 : 
; 1927 : 			// this magic formula translates the angle to a HUD distance
; 1928 : 			// the magic values are just arrived at by measuring in game
; 1929 : 			drop_hud_distance = atan(angle_of_drop) * ((head_offset_z * 0.84) + 0.66) * HUD_UNIT_RATIO;

  00593	51		 push	 ecx
  00594	f3 0f 10 45 88	 movss	 xmm0, DWORD PTR _angle_of_drop$4[ebp]
  00599	f3 0f 11 04 24	 movss	 DWORD PTR [esp], xmm0
  0059e	e8 00 00 00 00	 call	 ?atan@@YGMM@Z		; atan
  005a3	dd 9d 34 ff ff
	ff		 fstp	 QWORD PTR tv399[ebp]
  005a9	f2 0f 10 85 34
	ff ff ff	 movsd	 xmm0, QWORD PTR tv399[ebp]
  005b1	f3 0f 5a 4d 84	 cvtss2sd xmm1, DWORD PTR _head_offset_z$3[ebp]
  005b6	f2 0f 59 0d 00
	00 00 00	 mulsd	 xmm1, QWORD PTR __real@3feae147ae147ae1
  005be	f2 0f 58 0d 00
	00 00 00	 addsd	 xmm1, QWORD PTR __real@3fe51eb851eb851f
  005c6	f2 0f 59 c1	 mulsd	 xmm0, xmm1
  005ca	f2 0f 59 05 00
	00 00 00	 mulsd	 xmm0, QWORD PTR __real@402819999999999a
  005d2	f2 0f 5a c0	 cvtsd2ss xmm0, xmm0
  005d6	f3 0f 11 45 80	 movss	 DWORD PTR _drop_hud_distance$2[ebp], xmm0

; 1930 : 			y -= cos(roll) * drop_hud_distance;

  005db	51		 push	 ecx
  005dc	f3 0f 10 85 7c
	ff ff ff	 movss	 xmm0, DWORD PTR _roll$1[ebp]
  005e4	f3 0f 11 04 24	 movss	 DWORD PTR [esp], xmm0
  005e9	e8 00 00 00 00	 call	 ?cos@@YGMM@Z		; cos
  005ee	d9 9d 38 ff ff
	ff		 fstp	 DWORD PTR tv405[ebp]
  005f4	f3 0f 10 85 38
	ff ff ff	 movss	 xmm0, DWORD PTR tv405[ebp]
  005fc	f3 0f 59 45 80	 mulss	 xmm0, DWORD PTR _drop_hud_distance$2[ebp]
  00601	f3 0f 10 4d 8c	 movss	 xmm1, DWORD PTR _y$5[ebp]
  00606	f3 0f 5c c8	 subss	 xmm1, xmm0
  0060a	f3 0f 11 4d 8c	 movss	 DWORD PTR _y$5[ebp], xmm1

; 1931 : 			x += sin(roll) * drop_hud_distance;

  0060f	51		 push	 ecx
  00610	f3 0f 10 85 7c
	ff ff ff	 movss	 xmm0, DWORD PTR _roll$1[ebp]
  00618	f3 0f 11 04 24	 movss	 DWORD PTR [esp], xmm0
  0061d	e8 00 00 00 00	 call	 ?sin@@YGMM@Z		; sin
  00622	d9 9d 38 ff ff
	ff		 fstp	 DWORD PTR tv412[ebp]
  00628	f3 0f 10 85 38
	ff ff ff	 movss	 xmm0, DWORD PTR tv412[ebp]
  00630	f3 0f 59 45 80	 mulss	 xmm0, DWORD PTR _drop_hud_distance$2[ebp]
  00635	f3 0f 58 45 90	 addss	 xmm0, DWORD PTR _x$6[ebp]
  0063a	f3 0f 11 45 90	 movss	 DWORD PTR _x$6[ebp], xmm0

; 1932 : 
; 1933 : 			draw_2d_circle(x, y, 0.1, hud_colour);

  0063f	a1 00 00 00 00	 mov	 eax, DWORD PTR ?hud_colour@@3UREAL_COLOUR@@A ; hud_colour
  00644	50		 push	 eax
  00645	51		 push	 ecx
  00646	f3 0f 10 05 00
	00 00 00	 movss	 xmm0, DWORD PTR __real@3dcccccd
  0064e	f3 0f 11 04 24	 movss	 DWORD PTR [esp], xmm0
  00653	51		 push	 ecx
  00654	f3 0f 10 45 8c	 movss	 xmm0, DWORD PTR _y$5[ebp]
  00659	f3 0f 11 04 24	 movss	 DWORD PTR [esp], xmm0
  0065e	51		 push	 ecx
  0065f	f3 0f 10 45 90	 movss	 xmm0, DWORD PTR _x$6[ebp]
  00664	f3 0f 11 04 24	 movss	 DWORD PTR [esp], xmm0
  00669	e8 00 00 00 00	 call	 ?draw_2d_circle@@YGXMMMUREAL_COLOUR@@@Z ; draw_2d_circle

; 1934 : 			set_2d_pixel(x, y, hud_colour); 

  0066e	a1 00 00 00 00	 mov	 eax, DWORD PTR ?hud_colour@@3UREAL_COLOUR@@A ; hud_colour
  00673	50		 push	 eax
  00674	51		 push	 ecx
  00675	f3 0f 10 45 8c	 movss	 xmm0, DWORD PTR _y$5[ebp]
  0067a	f3 0f 11 04 24	 movss	 DWORD PTR [esp], xmm0
  0067f	51		 push	 ecx
  00680	f3 0f 10 45 90	 movss	 xmm0, DWORD PTR _x$6[ebp]
  00685	f3 0f 11 04 24	 movss	 DWORD PTR [esp], xmm0
  0068a	e8 00 00 00 00	 call	 ?set_2d_pixel@@YGXMMUREAL_COLOUR@@@Z ; set_2d_pixel
$LN13@display_we:

; 1935 : 		}
; 1936 : 
; 1937 : 		if (draw_large_hud)

  0068f	83 3d 00 00 00
	00 00		 cmp	 DWORD PTR ?draw_large_hud@@3HA, 0
  00696	74 09		 je	 SHORT $LN17@display_we

; 1938 : 			set_mono_font_type (MONO_FONT_TYPE_6X10);

  00698	6a 04		 push	 4
  0069a	e8 00 00 00 00	 call	 ?set_mono_font_type@@YGXW4MONO_FONT_TYPES@@@Z ; set_mono_font_type

; 1939 : 		else

  0069f	eb 07		 jmp	 SHORT $LN18@display_we
$LN17@display_we:

; 1940 : 			set_mono_font_type (MONO_FONT_TYPE_3X6);

  006a1	6a 00		 push	 0
  006a3	e8 00 00 00 00	 call	 ?set_mono_font_type@@YGXW4MONO_FONT_TYPES@@@Z ; set_mono_font_type
$LN18@display_we:

; 1941 : 
; 1942 : 		set_2d_mono_font_position (-0.85, -0.1);

  006a8	51		 push	 ecx
  006a9	f3 0f 10 05 00
	00 00 00	 movss	 xmm0, DWORD PTR __real@bdcccccd
  006b1	f3 0f 11 04 24	 movss	 DWORD PTR [esp], xmm0
  006b6	51		 push	 ecx
  006b7	f3 0f 10 05 00
	00 00 00	 movss	 xmm0, DWORD PTR __real@bf59999a
  006bf	f3 0f 11 04 24	 movss	 DWORD PTR [esp], xmm0
  006c4	e8 00 00 00 00	 call	 ?set_2d_mono_font_position@@YGXMM@Z ; set_2d_mono_font_position

; 1943 : 		set_mono_font_rel_position (0.0, 0.0);

  006c9	51		 push	 ecx
  006ca	0f 57 c0	 xorps	 xmm0, xmm0
  006cd	f3 0f 11 04 24	 movss	 DWORD PTR [esp], xmm0
  006d2	51		 push	 ecx
  006d3	0f 57 c0	 xorps	 xmm0, xmm0
  006d6	f3 0f 11 04 24	 movss	 DWORD PTR [esp], xmm0
  006db	e8 00 00 00 00	 call	 ?set_mono_font_rel_position@@YGXMM@Z ; set_mono_font_rel_position

; 1944 : 		print_mono_font_string (weapon_type);

  006e0	8b 45 a8	 mov	 eax, DWORD PTR _weapon_type$[ebp]
  006e3	50		 push	 eax
  006e4	e8 00 00 00 00	 call	 ?print_mono_font_string@@YGXPBD@Z ; print_mono_font_string
$LN2@display_we:

; 1945 : 	}
; 1946 : }

  006e9	5f		 pop	 edi
  006ea	5e		 pop	 esi
  006eb	5b		 pop	 ebx
  006ec	8b e5		 mov	 esp, ebp
  006ee	5d		 pop	 ebp
  006ef	c3		 ret	 0
?display_weapon_information@@YGXXZ ENDP			; display_weapon_information
_TEXT	ENDS
; Function compile flags: /Odtp /ZI
; File c:\users\nhv90\projects\eech\aphavoc\source\gunships\avionics\hokum\hk_hud.c
;	COMDAT ?initialise_hms_gun_pipper@@YGXXZ
_TEXT	SEGMENT
_cos_theta$ = -16					; size = 4
_sin_theta$ = -12					; size = 4
_theta$ = -8						; size = 4
_i$ = -4						; size = 4
?initialise_hms_gun_pipper@@YGXXZ PROC			; initialise_hms_gun_pipper, COMDAT

; 1673 : {

  00000	55		 push	 ebp
  00001	8b ec		 mov	 ebp, esp
  00003	83 ec 50	 sub	 esp, 80			; 00000050H
  00006	53		 push	 ebx
  00007	56		 push	 esi
  00008	57		 push	 edi

; 1674 : 	int
; 1675 : 		i;
; 1676 : 
; 1677 : 	float
; 1678 : 		theta,
; 1679 : 		sin_theta,
; 1680 : 		cos_theta;
; 1681 : 
; 1682 : 	theta = 0.0;

  00009	0f 57 c0	 xorps	 xmm0, xmm0
  0000c	f3 0f 11 45 f8	 movss	 DWORD PTR _theta$[ebp], xmm0

; 1683 : 
; 1684 : 	for (i = 0; i < NUM_GUN_PIPPER_POINTS; i++)

  00011	c7 45 fc 00 00
	00 00		 mov	 DWORD PTR _i$[ebp], 0
  00018	eb 09		 jmp	 SHORT $LN4@initialise
$LN2@initialise:
  0001a	8b 45 fc	 mov	 eax, DWORD PTR _i$[ebp]
  0001d	83 c0 01	 add	 eax, 1
  00020	89 45 fc	 mov	 DWORD PTR _i$[ebp], eax
$LN4@initialise:
  00023	81 7d fc 82 00
	00 00		 cmp	 DWORD PTR _i$[ebp], 130	; 00000082H
  0002a	0f 8d 87 00 00
	00		 jge	 $LN3@initialise

; 1685 : 	{
; 1686 : 		sin_theta = sin (theta);

  00030	51		 push	 ecx
  00031	f3 0f 10 45 f8	 movss	 xmm0, DWORD PTR _theta$[ebp]
  00036	f3 0f 11 04 24	 movss	 DWORD PTR [esp], xmm0
  0003b	e8 00 00 00 00	 call	 ?sin@@YGMM@Z		; sin
  00040	d9 5d f4	 fstp	 DWORD PTR _sin_theta$[ebp]

; 1687 : 		cos_theta = cos (theta);

  00043	51		 push	 ecx
  00044	f3 0f 10 45 f8	 movss	 xmm0, DWORD PTR _theta$[ebp]
  00049	f3 0f 11 04 24	 movss	 DWORD PTR [esp], xmm0
  0004e	e8 00 00 00 00	 call	 ?cos@@YGMM@Z		; cos
  00053	d9 5d f0	 fstp	 DWORD PTR _cos_theta$[ebp]

; 1688 : 
; 1689 : 		gun_pipper_points[i][0] = sin_theta * GUN_PIPPER_SIZE;

  00056	f3 0f 5a 45 f4	 cvtss2sd xmm0, DWORD PTR _sin_theta$[ebp]
  0005b	f2 0f 59 05 00
	00 00 00	 mulsd	 xmm0, QWORD PTR __real@3fc3333333333333
  00063	f2 0f 5a c0	 cvtsd2ss xmm0, xmm0
  00067	b8 04 00 00 00	 mov	 eax, 4
  0006c	6b c8 00	 imul	 ecx, eax, 0
  0006f	8b 55 fc	 mov	 edx, DWORD PTR _i$[ebp]
  00072	f3 0f 11 84 d1
	00 00 00 00	 movss	 DWORD PTR ?gun_pipper_points@@3PAY01MA[ecx+edx*8], xmm0

; 1690 : 		gun_pipper_points[i][1] = cos_theta * GUN_PIPPER_SIZE;

  0007b	f3 0f 5a 45 f0	 cvtss2sd xmm0, DWORD PTR _cos_theta$[ebp]
  00080	f2 0f 59 05 00
	00 00 00	 mulsd	 xmm0, QWORD PTR __real@3fc3333333333333
  00088	f2 0f 5a c0	 cvtsd2ss xmm0, xmm0
  0008c	b8 04 00 00 00	 mov	 eax, 4
  00091	c1 e0 00	 shl	 eax, 0
  00094	8b 4d fc	 mov	 ecx, DWORD PTR _i$[ebp]
  00097	f3 0f 11 84 c8
	00 00 00 00	 movss	 DWORD PTR ?gun_pipper_points@@3PAY01MA[eax+ecx*8], xmm0

; 1691 : 
; 1692 : 		theta += GUN_PIPPER_ANGULAR_STEP_SIZE;

  000a0	f3 0f 10 45 f8	 movss	 xmm0, DWORD PTR _theta$[ebp]
  000a5	f3 0f 58 05 00
	00 00 00	 addss	 xmm0, DWORD PTR __real@3d45f7fb
  000ad	f3 0f 11 45 f8	 movss	 DWORD PTR _theta$[ebp], xmm0

; 1693 : 	}

  000b2	e9 63 ff ff ff	 jmp	 $LN2@initialise
$LN3@initialise:

; 1694 : }

  000b7	5f		 pop	 edi
  000b8	5e		 pop	 esi
  000b9	5b		 pop	 ebx
  000ba	8b e5		 mov	 esp, ebp
  000bc	5d		 pop	 ebp
  000bd	c3		 ret	 0
?initialise_hms_gun_pipper@@YGXXZ ENDP			; initialise_hms_gun_pipper
_TEXT	ENDS
; Function compile flags: /Odtp /ZI
; File c:\users\nhv90\projects\eech\aphavoc\source\gunships\avionics\hokum\hk_hud.c
;	COMDAT ?draw_hokum_hms@@YGXXZ
_TEXT	SEGMENT
tv95 = -356						; size = 4
tv128 = -352						; size = 4
_specular$ = -284					; size = 4
_colour$ = -280						; size = 4
_quad$ = -276						; size = 256
_max_offset$ = -20					; size = 4
_pitch_offset$ = -16					; size = 4
_heading_offset$ = -12					; size = 4
_alpha$ = -8						; size = 4
_store_hud_colour$ = -4					; size = 4
?draw_hokum_hms@@YGXXZ PROC				; draw_hokum_hms, COMDAT

; 2114 : {

  00000	55		 push	 ebp
  00001	8b ec		 mov	 ebp, esp
  00003	81 ec 64 01 00
	00		 sub	 esp, 356		; 00000164H
  00009	53		 push	 ebx
  0000a	56		 push	 esi
  0000b	57		 push	 edi

; 2115 : 	rgb_colour
; 2116 : 		store_hud_colour;
; 2117 : 
; 2118 : 	int
; 2119 : 		alpha;
; 2120 : 
; 2121 : 	float
; 2122 : 		heading_offset,
; 2123 : 		pitch_offset,
; 2124 : 		max_offset;
; 2125 : 
; 2126 : 	vertex
; 2127 : 		quad[4];
; 2128 : 
; 2129 : 	real_colour
; 2130 : 		colour,
; 2131 : 		specular;
; 2132 : 
; 2133 : 	////////////////////////////////////////
; 2134 : 	//
; 2135 : 	// do not draw damaged or inactive HMS
; 2136 : 	//
; 2137 : 	////////////////////////////////////////
; 2138 : 
; 2139 : 	if (hokum_damage.helmet_mounted_sight || !electrical_system_active())

  0000c	a1 00 00 00 00	 mov	 eax, DWORD PTR ?hokum_damage@@3THOKUM_DAMAGE_FLAGS@@A ; hokum_damage
  00011	c1 e8 0f	 shr	 eax, 15			; 0000000fH
  00014	83 e0 01	 and	 eax, 1
  00017	75 09		 jne	 SHORT $LN3@draw_hokum
  00019	e8 00 00 00 00	 call	 ?electrical_system_active@@YGHXZ ; electrical_system_active
  0001e	85 c0		 test	 eax, eax
  00020	75 05		 jne	 SHORT $LN2@draw_hokum
$LN3@draw_hokum:

; 2140 : 	{
; 2141 : 		return;

  00022	e9 4c 08 00 00	 jmp	 $LN1@draw_hokum
$LN2@draw_hokum:

; 2142 : 	}
; 2143 : 
; 2144 : 	if (hud_mode != HUD_MODE_WEAPON)

  00027	83 3d 00 00 00
	00 02		 cmp	 DWORD PTR ?hud_mode@@3W4HUD_MODES@@A, 2 ; hud_mode
  0002e	74 05		 je	 SHORT $LN4@draw_hokum

; 2145 : 	{
; 2146 : 		return;

  00030	e9 3e 08 00 00	 jmp	 $LN1@draw_hokum
$LN4@draw_hokum:

; 2147 : 	}
; 2148 : 
; 2149 : 	////////////////////////////////////////
; 2150 : 	//
; 2151 : 	// reduce alpha as the HUD interferes with the instrument view (some cards cannot do this)
; 2152 : 	//
; 2153 : 	////////////////////////////////////////
; 2154 : 
; 2155 : 	alpha = 255;

  00035	c7 45 f8 ff 00
	00 00		 mov	 DWORD PTR _alpha$[ebp], 255 ; 000000ffH

; 2156 : 
; 2157 : 	if (in_cockpit)

  0003c	83 3d 00 00 00
	00 00		 cmp	 DWORD PTR ?in_cockpit@@3HA, 0 ; in_cockpit
  00043	0f 84 46 01 00
	00		 je	 $LN12@draw_hokum

; 2158 : 	{
; 2159 : 		if (get_global_draw_cockpit_graphics ())

  00049	83 3d b8 01 00
	00 00		 cmp	 DWORD PTR ?global_options@@3UGLOBAL_OPTIONS_DATA@@A+440, 0
  00050	0f 84 39 01 00
	00		 je	 $LN12@draw_hokum

; 2160 : 		{
; 2161 : 			if (d3d_modulate_alpha)

  00056	83 3d 00 00 00
	00 00		 cmp	 DWORD PTR ?d3d_modulate_alpha@@3HA, 0 ; d3d_modulate_alpha
  0005d	0f 84 fd 00 00
	00		 je	 $LN7@draw_hokum

; 2162 : 			{
; 2163 : 				heading_offset = HOKUM_INSTRUMENT_VIEW_HEADING - pilot_head_heading;

  00063	0f 57 c0	 xorps	 xmm0, xmm0
  00066	f3 0f 5c 05 00
	00 00 00	 subss	 xmm0, DWORD PTR ?pilot_head_heading@@3MA
  0006e	f3 0f 11 45 f4	 movss	 DWORD PTR _heading_offset$[ebp], xmm0

; 2164 : 
; 2165 : 				if (heading_offset < 0.0)

  00073	f3 0f 5a 45 f4	 cvtss2sd xmm0, DWORD PTR _heading_offset$[ebp]
  00078	0f 57 c9	 xorps	 xmm1, xmm1
  0007b	66 0f 2f c8	 comisd	 xmm1, xmm0
  0007f	76 11		 jbe	 SHORT $LN9@draw_hokum

; 2166 : 				{
; 2167 : 					heading_offset = -heading_offset;

  00081	f3 0f 10 45 f4	 movss	 xmm0, DWORD PTR _heading_offset$[ebp]
  00086	0f 57 05 00 00
	00 00		 xorps	 xmm0, DWORD PTR __xmm@80000000800000008000000080000000
  0008d	f3 0f 11 45 f4	 movss	 DWORD PTR _heading_offset$[ebp], xmm0
$LN9@draw_hokum:

; 2168 : 				}
; 2169 : 
; 2170 : 				pitch_offset = HOKUM_INSTRUMENT_VIEW_PITCH - pilot_head_pitch;

  00092	f3 0f 10 05 00
	00 00 00	 movss	 xmm0, DWORD PTR __real@beb2b8c2
  0009a	f3 0f 5c 05 00
	00 00 00	 subss	 xmm0, DWORD PTR ?pilot_head_pitch@@3MA
  000a2	f3 0f 11 45 f0	 movss	 DWORD PTR _pitch_offset$[ebp], xmm0

; 2171 : 
; 2172 : 				if (pitch_offset < 0.0)

  000a7	f3 0f 5a 45 f0	 cvtss2sd xmm0, DWORD PTR _pitch_offset$[ebp]
  000ac	0f 57 c9	 xorps	 xmm1, xmm1
  000af	66 0f 2f c8	 comisd	 xmm1, xmm0
  000b3	76 11		 jbe	 SHORT $LN10@draw_hokum

; 2173 : 				{
; 2174 : 					pitch_offset = -pitch_offset;

  000b5	f3 0f 10 45 f0	 movss	 xmm0, DWORD PTR _pitch_offset$[ebp]
  000ba	0f 57 05 00 00
	00 00		 xorps	 xmm0, DWORD PTR __xmm@80000000800000008000000080000000
  000c1	f3 0f 11 45 f0	 movss	 DWORD PTR _pitch_offset$[ebp], xmm0
$LN10@draw_hokum:

; 2175 : 				}
; 2176 : 
; 2177 : 				if ((heading_offset < rad (25.0)) && (pitch_offset < rad (25.0)))

  000c6	f3 0f 5a 45 f4	 cvtss2sd xmm0, DWORD PTR _heading_offset$[ebp]
  000cb	f2 0f 10 0d 00
	00 00 00	 movsd	 xmm1, QWORD PTR __real@3fdbecde5a000000
  000d3	66 0f 2f c8	 comisd	 xmm1, xmm0
  000d7	0f 86 81 00 00
	00		 jbe	 $LN11@draw_hokum
  000dd	f3 0f 5a 45 f0	 cvtss2sd xmm0, DWORD PTR _pitch_offset$[ebp]
  000e2	f2 0f 10 0d 00
	00 00 00	 movsd	 xmm1, QWORD PTR __real@3fdbecde5a000000
  000ea	66 0f 2f c8	 comisd	 xmm1, xmm0
  000ee	76 6e		 jbe	 SHORT $LN11@draw_hokum

; 2178 : 				{
; 2179 : 					max_offset = max (heading_offset, pitch_offset);

  000f0	8d 45 f0	 lea	 eax, DWORD PTR _pitch_offset$[ebp]
  000f3	50		 push	 eax
  000f4	8d 4d f4	 lea	 ecx, DWORD PTR _heading_offset$[ebp]
  000f7	51		 push	 ecx
  000f8	e8 00 00 00 00	 call	 ??$max@M@std@@YGABMABM0@Z ; std::max<float>
  000fd	f3 0f 10 00	 movss	 xmm0, DWORD PTR [eax]
  00101	f3 0f 11 45 ec	 movss	 DWORD PTR _max_offset$[ebp], xmm0

; 2180 : 
; 2181 : 					alpha = (int) (max_offset * (200.0 / rad (25.0))) + 55;

  00106	f3 0f 5a 45 ec	 cvtss2sd xmm0, DWORD PTR _max_offset$[ebp]
  0010b	f2 0f 59 05 00
	00 00 00	 mulsd	 xmm0, QWORD PTR __real@407ca5dc1e1ce25c
  00113	f2 0f 2c c0	 cvttsd2si eax, xmm0
  00117	83 c0 37	 add	 eax, 55			; 00000037H
  0011a	89 45 f8	 mov	 DWORD PTR _alpha$[ebp], eax

; 2182 : 
; 2183 : 					alpha = bound (alpha, 0, 255);

  0011d	79 0c		 jns	 SHORT $LN23@draw_hokum
  0011f	c7 85 a0 fe ff
	ff 00 00 00 00	 mov	 DWORD PTR tv128[ebp], 0
  00129	eb 2a		 jmp	 SHORT $LN24@draw_hokum
$LN23@draw_hokum:
  0012b	81 7d f8 ff 00
	00 00		 cmp	 DWORD PTR _alpha$[ebp], 255 ; 000000ffH
  00132	7e 0c		 jle	 SHORT $LN21@draw_hokum
  00134	c7 85 9c fe ff
	ff ff 00 00 00	 mov	 DWORD PTR tv95[ebp], 255 ; 000000ffH
  0013e	eb 09		 jmp	 SHORT $LN22@draw_hokum
$LN21@draw_hokum:
  00140	8b 45 f8	 mov	 eax, DWORD PTR _alpha$[ebp]
  00143	89 85 9c fe ff
	ff		 mov	 DWORD PTR tv95[ebp], eax
$LN22@draw_hokum:
  00149	8b 8d 9c fe ff
	ff		 mov	 ecx, DWORD PTR tv95[ebp]
  0014f	89 8d a0 fe ff
	ff		 mov	 DWORD PTR tv128[ebp], ecx
$LN24@draw_hokum:
  00155	8b 95 a0 fe ff
	ff		 mov	 edx, DWORD PTR tv128[ebp]
  0015b	89 55 f8	 mov	 DWORD PTR _alpha$[ebp], edx
$LN11@draw_hokum:

; 2184 : 				}
; 2185 : 			}
; 2186 : 			else

  0015e	eb 2f		 jmp	 SHORT $LN12@draw_hokum
$LN7@draw_hokum:

; 2187 : 			{
; 2188 : 				if ((pilot_head_heading == HOKUM_INSTRUMENT_VIEW_HEADING) && (pilot_head_pitch == HOKUM_INSTRUMENT_VIEW_PITCH))

  00160	f3 0f 10 05 00
	00 00 00	 movss	 xmm0, DWORD PTR ?pilot_head_heading@@3MA
  00168	0f 2e 05 00 00
	00 00		 ucomiss xmm0, DWORD PTR __real@00000000
  0016f	9f		 lahf
  00170	f6 c4 44	 test	 ah, 68			; 00000044H
  00173	7a 1a		 jp	 SHORT $LN12@draw_hokum
  00175	f3 0f 10 05 00
	00 00 00	 movss	 xmm0, DWORD PTR ?pilot_head_pitch@@3MA
  0017d	0f 2e 05 00 00
	00 00		 ucomiss xmm0, DWORD PTR __real@beb2b8c2
  00184	9f		 lahf
  00185	f6 c4 44	 test	 ah, 68			; 00000044H
  00188	7a 05		 jp	 SHORT $LN12@draw_hokum

; 2189 : 				{
; 2190 : 					return;

  0018a	e9 e4 06 00 00	 jmp	 $LN1@draw_hokum
$LN12@draw_hokum:

; 2191 : 				}
; 2192 : 			}
; 2193 : 		}
; 2194 : 	}
; 2195 : 
; 2196 : 	////////////////////////////////////////
; 2197 : 	//
; 2198 : 	// set active 3D environment now else 2D clipping will be affected
; 2199 : 	//
; 2200 : 	////////////////////////////////////////
; 2201 : 
; 2202 : 	set_main_3d_full_screen_params (DISPLAY_3D_TINT_CLEAR, DISPLAY_3D_LIGHT_LEVEL_HIGH, DISPLAY_3D_NOISE_LEVEL_NONE);

  0018f	6a 00		 push	 0
  00191	6a 02		 push	 2
  00193	6a 00		 push	 0
  00195	e8 00 00 00 00	 call	 ?set_main_3d_full_screen_params@@YGXW4DISPLAY_3D_TINTS@@W4DISPLAY_3D_LIGHT_LEVELS@@W4DISPLAY_3D_NOISE_LEVELS@@@Z ; set_main_3d_full_screen_params

; 2203 : 
; 2204 : 	set_3d_active_environment (main_3d_env);

  0019a	a1 00 00 00 00	 mov	 eax, DWORD PTR ?main_3d_env@@3PAUENV_3D@@A ; main_3d_env
  0019f	50		 push	 eax
  001a0	e8 00 00 00 00	 call	 ?set_3d_active_environment@@YGXPAUENV_3D@@@Z ; set_3d_active_environment

; 2205 : 
; 2206 : 	////////////////////////////////////////
; 2207 : 	//
; 2208 : 	// set up HUD 2D environment
; 2209 : 	//
; 2210 : 	////////////////////////////////////////
; 2211 : 
; 2212 : 	set_2d_active_environment (hud_env);

  001a5	a1 00 00 00 00	 mov	 eax, DWORD PTR ?hud_env@@3PAUENV_2D@@A
  001aa	50		 push	 eax
  001ab	e8 00 00 00 00	 call	 ?set_2d_active_environment@@YGXPAUENV_2D@@@Z ; set_2d_active_environment

; 2213 : 
; 2214 : 	set_2d_window (hud_env, HUD_WINDOW_X_MIN, HUD_WINDOW_Y_MIN, HUD_WINDOW_X_MAX, HUD_WINDOW_Y_MAX);

  001b0	51		 push	 ecx
  001b1	f3 0f 10 05 00
	00 00 00	 movss	 xmm0, DWORD PTR __real@3f7fbe77
  001b9	f3 0f 11 04 24	 movss	 DWORD PTR [esp], xmm0
  001be	51		 push	 ecx
  001bf	f3 0f 10 05 00
	00 00 00	 movss	 xmm0, DWORD PTR __real@3f7fbe77
  001c7	f3 0f 11 04 24	 movss	 DWORD PTR [esp], xmm0
  001cc	51		 push	 ecx
  001cd	f3 0f 10 05 00
	00 00 00	 movss	 xmm0, DWORD PTR __real@bf800000
  001d5	f3 0f 11 04 24	 movss	 DWORD PTR [esp], xmm0
  001da	51		 push	 ecx
  001db	f3 0f 10 05 00
	00 00 00	 movss	 xmm0, DWORD PTR __real@bf800000
  001e3	f3 0f 11 04 24	 movss	 DWORD PTR [esp], xmm0
  001e8	a1 00 00 00 00	 mov	 eax, DWORD PTR ?hud_env@@3PAUENV_2D@@A
  001ed	50		 push	 eax
  001ee	e8 00 00 00 00	 call	 ?set_2d_window@@YGXPAUENV_2D@@MMMM@Z ; set_2d_window

; 2215 : 
; 2216 : 	hud_viewport_x_org = HUD_VIEWPORT_LARGE_SIZE * 0.5;

  001f3	f3 0f 10 05 00
	00 00 00	 movss	 xmm0, DWORD PTR __real@43000000
  001fb	f3 0f 11 05 00
	00 00 00	 movss	 DWORD PTR ?hud_viewport_x_org@@3MA, xmm0

; 2217 : 
; 2218 : 	hud_viewport_y_org = HUD_VIEWPORT_LARGE_SIZE * 0.5;

  00203	f3 0f 10 05 00
	00 00 00	 movss	 xmm0, DWORD PTR __real@43000000
  0020b	f3 0f 11 05 00
	00 00 00	 movss	 DWORD PTR ?hud_viewport_y_org@@3MA, xmm0

; 2219 : 
; 2220 : 	hud_viewport_x_min = 0.0;

  00213	0f 57 c0	 xorps	 xmm0, xmm0
  00216	f3 0f 11 05 00
	00 00 00	 movss	 DWORD PTR ?hud_viewport_x_min@@3MA, xmm0

; 2221 : 
; 2222 : 	hud_viewport_y_min = 0.0;

  0021e	0f 57 c0	 xorps	 xmm0, xmm0
  00221	f3 0f 11 05 00
	00 00 00	 movss	 DWORD PTR ?hud_viewport_y_min@@3MA, xmm0

; 2223 : 
; 2224 : 	hud_viewport_x_max = HUD_VIEWPORT_LARGE_SIZE - 0.001;

  00229	f3 0f 10 05 00
	00 00 00	 movss	 xmm0, DWORD PTR __real@437fffbe
  00231	f3 0f 11 05 00
	00 00 00	 movss	 DWORD PTR ?hud_viewport_x_max@@3MA, xmm0

; 2225 : 
; 2226 : 	hud_viewport_y_max = HUD_VIEWPORT_LARGE_SIZE - 0.001;

  00239	f3 0f 10 05 00
	00 00 00	 movss	 xmm0, DWORD PTR __real@437fffbe
  00241	f3 0f 11 05 00
	00 00 00	 movss	 DWORD PTR ?hud_viewport_y_max@@3MA, xmm0

; 2227 : 
; 2228 : 	set_2d_viewport (hud_env, hud_viewport_x_min, hud_viewport_y_min, hud_viewport_x_max, hud_viewport_y_max);

  00249	51		 push	 ecx
  0024a	f3 0f 10 05 00
	00 00 00	 movss	 xmm0, DWORD PTR ?hud_viewport_y_max@@3MA
  00252	f3 0f 11 04 24	 movss	 DWORD PTR [esp], xmm0
  00257	51		 push	 ecx
  00258	f3 0f 10 05 00
	00 00 00	 movss	 xmm0, DWORD PTR ?hud_viewport_x_max@@3MA
  00260	f3 0f 11 04 24	 movss	 DWORD PTR [esp], xmm0
  00265	51		 push	 ecx
  00266	f3 0f 10 05 00
	00 00 00	 movss	 xmm0, DWORD PTR ?hud_viewport_y_min@@3MA
  0026e	f3 0f 11 04 24	 movss	 DWORD PTR [esp], xmm0
  00273	51		 push	 ecx
  00274	f3 0f 10 05 00
	00 00 00	 movss	 xmm0, DWORD PTR ?hud_viewport_x_min@@3MA
  0027c	f3 0f 11 04 24	 movss	 DWORD PTR [esp], xmm0
  00281	a1 00 00 00 00	 mov	 eax, DWORD PTR ?hud_env@@3PAUENV_2D@@A
  00286	50		 push	 eax
  00287	e8 00 00 00 00	 call	 ?set_2d_viewport@@YGXPAUENV_2D@@MMMM@Z ; set_2d_viewport

; 2229 : 
; 2230 : 	//
; 2231 : 	// get screen co-ords (scaled to keep HUD size constant)
; 2232 : 	//
; 2233 : 
; 2234 : 	if (get_global_unscaled_displays ())

  0028c	83 3d 74 03 00
	00 00		 cmp	 DWORD PTR ?global_options@@3UGLOBAL_OPTIONS_DATA@@A+884, 0
  00293	0f 84 95 00 00
	00		 je	 $LN13@draw_hokum

; 2235 : 	{
; 2236 : 		hud_screen_x_min = full_screen_x_mid - 128.0;

  00299	f3 0f 5a 05 00
	00 00 00	 cvtss2sd xmm0, DWORD PTR ?full_screen_x_mid@@3MA
  002a1	f2 0f 5c 05 00
	00 00 00	 subsd	 xmm0, QWORD PTR __real@4060000000000000
  002a9	f2 0f 5a c0	 cvtsd2ss xmm0, xmm0
  002ad	f3 0f 11 05 00
	00 00 00	 movss	 DWORD PTR ?hud_screen_x_min@@3MA, xmm0

; 2237 : 		hud_screen_y_min = full_screen_y_mid - 128.0;

  002b5	f3 0f 5a 05 00
	00 00 00	 cvtss2sd xmm0, DWORD PTR ?full_screen_y_mid@@3MA
  002bd	f2 0f 5c 05 00
	00 00 00	 subsd	 xmm0, QWORD PTR __real@4060000000000000
  002c5	f2 0f 5a c0	 cvtsd2ss xmm0, xmm0
  002c9	f3 0f 11 05 00
	00 00 00	 movss	 DWORD PTR ?hud_screen_y_min@@3MA, xmm0

; 2238 : 
; 2239 : 		hud_screen_x_max = full_screen_x_mid + 127.999;

  002d1	f3 0f 5a 05 00
	00 00 00	 cvtss2sd xmm0, DWORD PTR ?full_screen_x_mid@@3MA
  002d9	f2 0f 58 05 00
	00 00 00	 addsd	 xmm0, QWORD PTR __real@405fffef9db22d0e
  002e1	f2 0f 5a c0	 cvtsd2ss xmm0, xmm0
  002e5	f3 0f 11 05 00
	00 00 00	 movss	 DWORD PTR ?hud_screen_x_max@@3MA, xmm0

; 2240 : 		hud_screen_y_max = full_screen_y_mid + 127.999;

  002ed	f3 0f 5a 05 00
	00 00 00	 cvtss2sd xmm0, DWORD PTR ?full_screen_y_mid@@3MA
  002f5	f2 0f 58 05 00
	00 00 00	 addsd	 xmm0, QWORD PTR __real@405fffef9db22d0e
  002fd	f2 0f 5a c0	 cvtsd2ss xmm0, xmm0
  00301	f3 0f 11 05 00
	00 00 00	 movss	 DWORD PTR ?hud_screen_y_max@@3MA, xmm0

; 2241 : 
; 2242 : 		hud_screen_x_scale = 1.0;

  00309	f3 0f 10 05 00
	00 00 00	 movss	 xmm0, DWORD PTR __real@3f800000
  00311	f3 0f 11 05 00
	00 00 00	 movss	 DWORD PTR ?hud_screen_x_scale@@3MA, xmm0

; 2243 : 		hud_screen_y_scale = 1.0;

  00319	f3 0f 10 05 00
	00 00 00	 movss	 xmm0, DWORD PTR __real@3f800000
  00321	f3 0f 11 05 00
	00 00 00	 movss	 DWORD PTR ?hud_screen_y_scale@@3MA, xmm0

; 2244 : 	}
; 2245 : 	else

  00329	e9 f0 00 00 00	 jmp	 $LN14@draw_hokum
$LN13@draw_hokum:

; 2246 : 	{
; 2247 : 		hud_screen_x_min = full_screen_x_mid - ((256.0 / (640.0 * 2.0)) * full_screen_width);

  0032e	f3 0f 5a 05 00
	00 00 00	 cvtss2sd xmm0, DWORD PTR ?full_screen_x_mid@@3MA
  00336	f3 0f 5a 0d 00
	00 00 00	 cvtss2sd xmm1, DWORD PTR ?full_screen_width@@3MA
  0033e	f2 0f 59 0d 00
	00 00 00	 mulsd	 xmm1, QWORD PTR __real@3fc999999999999a
  00346	f2 0f 5c c1	 subsd	 xmm0, xmm1
  0034a	f2 0f 5a c0	 cvtsd2ss xmm0, xmm0
  0034e	f3 0f 11 05 00
	00 00 00	 movss	 DWORD PTR ?hud_screen_x_min@@3MA, xmm0

; 2248 : 		hud_screen_y_min = full_screen_y_mid - ((256.0 / (480.0 * 2.0)) * full_screen_height);

  00356	f3 0f 5a 05 00
	00 00 00	 cvtss2sd xmm0, DWORD PTR ?full_screen_y_mid@@3MA
  0035e	f3 0f 5a 0d 00
	00 00 00	 cvtss2sd xmm1, DWORD PTR ?full_screen_height@@3MA
  00366	f2 0f 59 0d 00
	00 00 00	 mulsd	 xmm1, QWORD PTR __real@3fd1111111111111
  0036e	f2 0f 5c c1	 subsd	 xmm0, xmm1
  00372	f2 0f 5a c0	 cvtsd2ss xmm0, xmm0
  00376	f3 0f 11 05 00
	00 00 00	 movss	 DWORD PTR ?hud_screen_y_min@@3MA, xmm0

; 2249 : 
; 2250 : 		hud_screen_x_max = full_screen_x_mid + ((256.0 / (640.0 * 2.0)) * full_screen_width) - 0.001;

  0037e	f3 0f 5a 05 00
	00 00 00	 cvtss2sd xmm0, DWORD PTR ?full_screen_x_mid@@3MA
  00386	f3 0f 5a 0d 00
	00 00 00	 cvtss2sd xmm1, DWORD PTR ?full_screen_width@@3MA
  0038e	f2 0f 59 0d 00
	00 00 00	 mulsd	 xmm1, QWORD PTR __real@3fc999999999999a
  00396	f2 0f 58 c1	 addsd	 xmm0, xmm1
  0039a	f2 0f 5c 05 00
	00 00 00	 subsd	 xmm0, QWORD PTR __real@3f50624dd2f1a9fc
  003a2	f2 0f 5a c0	 cvtsd2ss xmm0, xmm0
  003a6	f3 0f 11 05 00
	00 00 00	 movss	 DWORD PTR ?hud_screen_x_max@@3MA, xmm0

; 2251 : 		hud_screen_y_max = full_screen_y_mid + ((256.0 / (480.0 * 2.0)) * full_screen_height) - 0.001;

  003ae	f3 0f 5a 05 00
	00 00 00	 cvtss2sd xmm0, DWORD PTR ?full_screen_y_mid@@3MA
  003b6	f3 0f 5a 0d 00
	00 00 00	 cvtss2sd xmm1, DWORD PTR ?full_screen_height@@3MA
  003be	f2 0f 59 0d 00
	00 00 00	 mulsd	 xmm1, QWORD PTR __real@3fd1111111111111
  003c6	f2 0f 58 c1	 addsd	 xmm0, xmm1
  003ca	f2 0f 5c 05 00
	00 00 00	 subsd	 xmm0, QWORD PTR __real@3f50624dd2f1a9fc
  003d2	f2 0f 5a c0	 cvtsd2ss xmm0, xmm0
  003d6	f3 0f 11 05 00
	00 00 00	 movss	 DWORD PTR ?hud_screen_y_max@@3MA, xmm0

; 2252 : 
; 2253 : 		hud_screen_x_scale = 640.0 / full_screen_width;

  003de	f3 0f 5a 05 00
	00 00 00	 cvtss2sd xmm0, DWORD PTR ?full_screen_width@@3MA
  003e6	f2 0f 10 0d 00
	00 00 00	 movsd	 xmm1, QWORD PTR __real@4084000000000000
  003ee	f2 0f 5e c8	 divsd	 xmm1, xmm0
  003f2	f2 0f 5a c1	 cvtsd2ss xmm0, xmm1
  003f6	f3 0f 11 05 00
	00 00 00	 movss	 DWORD PTR ?hud_screen_x_scale@@3MA, xmm0

; 2254 : 		hud_screen_y_scale = 480.0 / full_screen_height;

  003fe	f3 0f 5a 05 00
	00 00 00	 cvtss2sd xmm0, DWORD PTR ?full_screen_height@@3MA
  00406	f2 0f 10 0d 00
	00 00 00	 movsd	 xmm1, QWORD PTR __real@407e000000000000
  0040e	f2 0f 5e c8	 divsd	 xmm1, xmm0
  00412	f2 0f 5a c1	 cvtsd2ss xmm0, xmm1
  00416	f3 0f 11 05 00
	00 00 00	 movss	 DWORD PTR ?hud_screen_y_scale@@3MA, xmm0
$LN14@draw_hokum:

; 2255 : 	}
; 2256 : 
; 2257 : 	////////////////////////////////////////
; 2258 : 	//
; 2259 : 	// draw HUD on texture
; 2260 : 	//
; 2261 : 	////////////////////////////////////////
; 2262 : 
; 2263 : 	set_active_screen (outside_hud_texture_screen);

  0041e	a1 00 00 00 00	 mov	 eax, DWORD PTR ?outside_hud_texture_screen@@3PAUSCREEN@@A
  00423	50		 push	 eax
  00424	e8 00 00 00 00	 call	 ?set_active_screen@@YGHPAUSCREEN@@@Z ; set_active_screen

; 2264 : 
; 2265 : 	if (lock_screen (outside_hud_texture_screen))

  00429	a1 00 00 00 00	 mov	 eax, DWORD PTR ?outside_hud_texture_screen@@3PAUSCREEN@@A
  0042e	50		 push	 eax
  0042f	e8 00 00 00 00	 call	 ?lock_screen@@YGHPAUSCREEN@@@Z ; lock_screen
  00434	85 c0		 test	 eax, eax
  00436	74 75		 je	 SHORT $LN15@draw_hokum

; 2266 : 	{
; 2267 : 	 	store_hud_colour = hud_colour;

  00438	a1 00 00 00 00	 mov	 eax, DWORD PTR ?hud_colour@@3UREAL_COLOUR@@A ; hud_colour
  0043d	89 45 fc	 mov	 DWORD PTR _store_hud_colour$[ebp], eax

; 2268 : 
; 2269 : 		set_rgb_colour (hud_colour, 255, 255, 255, 255);

  00440	c6 05 02 00 00
	00 ff		 mov	 BYTE PTR ?hud_colour@@3UREAL_COLOUR@@A+2, 255 ; 000000ffH
  00447	c6 05 01 00 00
	00 ff		 mov	 BYTE PTR ?hud_colour@@3UREAL_COLOUR@@A+1, 255 ; 000000ffH
  0044e	c6 05 00 00 00
	00 ff		 mov	 BYTE PTR ?hud_colour@@3UREAL_COLOUR@@A, 255 ; 000000ffH
  00455	c6 05 03 00 00
	00 ff		 mov	 BYTE PTR ?hud_colour@@3UREAL_COLOUR@@A+3, 255 ; 000000ffH

; 2270 : 
; 2271 : 		set_mono_font_colour (hud_colour);

  0045c	a1 00 00 00 00	 mov	 eax, DWORD PTR ?hud_colour@@3UREAL_COLOUR@@A ; hud_colour
  00461	50		 push	 eax
  00462	e8 00 00 00 00	 call	 ?set_mono_font_colour@@YGXUREAL_COLOUR@@@Z ; set_mono_font_colour

; 2272 : 
; 2273 : 		set_block (0, 0, HUD_VIEWPORT_LARGE_SIZE - 1, HUD_VIEWPORT_LARGE_SIZE - 1, clear_hud_colour);

  00467	a1 00 00 00 00	 mov	 eax, DWORD PTR ?clear_hud_colour@@3UREAL_COLOUR@@A
  0046c	50		 push	 eax
  0046d	68 ff 00 00 00	 push	 255			; 000000ffH
  00472	68 ff 00 00 00	 push	 255			; 000000ffH
  00477	6a 00		 push	 0
  00479	6a 00		 push	 0
  0047b	e8 00 00 00 00	 call	 ?set_block@@YGXHHHHUREAL_COLOUR@@@Z ; set_block

; 2274 : 
; 2275 : 		draw_layout_grid ();

  00480	e8 00 00 00 00	 call	 ?draw_layout_grid@@YGXXZ ; draw_layout_grid

; 2276 : 
; 2277 : 		draw_hms_centre_datum ();

  00485	e8 00 00 00 00	 call	 ?draw_hms_centre_datum@@YGXXZ ; draw_hms_centre_datum

; 2278 : 
; 2279 : 		draw_target_marker ();

  0048a	e8 00 00 00 00	 call	 ?draw_target_marker@@YGXXZ ; draw_target_marker

; 2280 : 
; 2281 : //		draw_target_range_indicator ();
; 2282 : 
; 2283 : //		display_weapon_information ();
; 2284 : 
; 2285 : //		display_target_information ();
; 2286 : 
; 2287 : 		hud_colour = store_hud_colour;

  0048f	8b 45 fc	 mov	 eax, DWORD PTR _store_hud_colour$[ebp]
  00492	a3 00 00 00 00	 mov	 DWORD PTR ?hud_colour@@3UREAL_COLOUR@@A, eax ; hud_colour

; 2288 : 
; 2289 : 		flush_screen_texture_graphics (outside_hud_texture_screen);

  00497	a1 00 00 00 00	 mov	 eax, DWORD PTR ?outside_hud_texture_screen@@3PAUSCREEN@@A
  0049c	50		 push	 eax
  0049d	e8 00 00 00 00	 call	 ?flush_screen_texture_graphics@@YGXPAUSCREEN@@@Z ; flush_screen_texture_graphics

; 2290 : 
; 2291 : 		unlock_screen (outside_hud_texture_screen);

  004a2	a1 00 00 00 00	 mov	 eax, DWORD PTR ?outside_hud_texture_screen@@3PAUSCREEN@@A
  004a7	50		 push	 eax
  004a8	e8 00 00 00 00	 call	 ?unlock_screen@@YGHPAUSCREEN@@@Z ; unlock_screen
$LN15@draw_hokum:

; 2292 : 	}
; 2293 : 
; 2294 : 	set_active_screen (video_screen);

  004ad	a1 00 00 00 00	 mov	 eax, DWORD PTR ?video_screen@@3PAUSCREEN@@A ; video_screen
  004b2	50		 push	 eax
  004b3	e8 00 00 00 00	 call	 ?set_active_screen@@YGHPAUSCREEN@@@Z ; set_active_screen

; 2295 : 
; 2296 : 	////////////////////////////////////////
; 2297 : 	//
; 2298 : 	// render HUD to screen
; 2299 : 	//
; 2300 : 	////////////////////////////////////////
; 2301 : 
; 2302 : 	set_3d_active_environment (main_3d_env);

  004b8	a1 00 00 00 00	 mov	 eax, DWORD PTR ?main_3d_env@@3PAUENV_3D@@A ; main_3d_env
  004bd	50		 push	 eax
  004be	e8 00 00 00 00	 call	 ?set_3d_active_environment@@YGXPAUENV_3D@@@Z ; set_3d_active_environment

; 2303 : 
; 2304 : 	if (begin_3d_scene ())

  004c3	e8 00 00 00 00	 call	 ?begin_3d_scene@@YGHXZ	; begin_3d_scene
  004c8	85 c0		 test	 eax, eax
  004ca	0f 84 a3 03 00
	00		 je	 $LN16@draw_hokum

; 2305 : 	{
; 2306 : 		set_d3d_transparency_on ();

  004d0	e8 00 00 00 00	 call	 ?set_d3d_transparency_on@@YGXXZ ; set_d3d_transparency_on

; 2307 : 
; 2308 : 		set_d3d_zbuffer_comparison (FALSE);

  004d5	6a 00		 push	 0
  004d7	e8 00 00 00 00	 call	 ?set_d3d_zbuffer_comparison@@YGXH@Z ; set_d3d_zbuffer_comparison

; 2309 : 
; 2310 : 		set_d3d_culling (FALSE);

  004dc	6a 00		 push	 0
  004de	e8 00 00 00 00	 call	 ?set_d3d_culling@@YGXH@Z ; set_d3d_culling

; 2311 : 
; 2312 : 		set_d3d_texture_wrapping (0, FALSE);

  004e3	6a 00		 push	 0
  004e5	6a 00		 push	 0
  004e7	e8 00 00 00 00	 call	 ?set_d3d_texture_wrapping@@YGXHH@Z ; set_d3d_texture_wrapping

; 2313 : 
; 2314 : 		if ((application_video_width == 640) || (get_global_unscaled_displays ()))

  004ec	81 3d 00 00 00
	00 80 02 00 00	 cmp	 DWORD PTR ?application_video_width@@3HA, 640 ; application_video_width, 00000280H
  004f6	74 09		 je	 SHORT $LN19@draw_hokum
  004f8	83 3d 74 03 00
	00 00		 cmp	 DWORD PTR ?global_options@@3UGLOBAL_OPTIONS_DATA@@A+884, 0
  004ff	74 17		 je	 SHORT $LN17@draw_hokum
$LN19@draw_hokum:

; 2315 : 		{
; 2316 : 			set_d3d_texture_mag_filtering (FALSE);

  00501	6a 00		 push	 0
  00503	e8 00 00 00 00	 call	 ?set_d3d_texture_mag_filtering@@YGXH@Z ; set_d3d_texture_mag_filtering

; 2317 : 			set_d3d_texture_min_filtering (FALSE);

  00508	6a 00		 push	 0
  0050a	e8 00 00 00 00	 call	 ?set_d3d_texture_min_filtering@@YGXH@Z ; set_d3d_texture_min_filtering

; 2318 : 			set_d3d_texture_mip_filtering (FALSE);

  0050f	6a 00		 push	 0
  00511	e8 00 00 00 00	 call	 ?set_d3d_texture_mip_filtering@@YGXH@Z ; set_d3d_texture_mip_filtering

; 2319 : 		}
; 2320 : 		else

  00516	eb 15		 jmp	 SHORT $LN18@draw_hokum
$LN17@draw_hokum:

; 2321 : 		{
; 2322 : 			set_d3d_texture_mag_filtering (TRUE);

  00518	6a 01		 push	 1
  0051a	e8 00 00 00 00	 call	 ?set_d3d_texture_mag_filtering@@YGXH@Z ; set_d3d_texture_mag_filtering

; 2323 : 			set_d3d_texture_min_filtering (TRUE);

  0051f	6a 01		 push	 1
  00521	e8 00 00 00 00	 call	 ?set_d3d_texture_min_filtering@@YGXH@Z ; set_d3d_texture_min_filtering

; 2324 : 			set_d3d_texture_mip_filtering (FALSE);

  00526	6a 00		 push	 0
  00528	e8 00 00 00 00	 call	 ?set_d3d_texture_mip_filtering@@YGXH@Z ; set_d3d_texture_mip_filtering
$LN18@draw_hokum:

; 2325 : 		}
; 2326 : 
; 2327 : 		set_d3d_flat_shaded_textured_renderstate (get_system_texture_ptr (TEXTURE_INDEX_AVCKPT_DISPLAY_LHS_MFD));

  0052d	68 f8 00 00 00	 push	 248			; 000000f8H
  00532	e8 00 00 00 00	 call	 ?get_system_texture_ptr@@YGPAUSCREEN@@H@Z ; get_system_texture_ptr
  00537	50		 push	 eax
  00538	e8 00 00 00 00	 call	 ?set_d3d_flat_shaded_textured_renderstate@@YGXPAUSCREEN@@@Z ; set_d3d_flat_shaded_textured_renderstate

; 2328 : 
; 2329 : 		////////////////////////////////////////
; 2330 : 		//
; 2331 : 
; 2332 : 		colour.red				= hud_colour_table[get_global_hud_colour ()].r;

  0053d	a1 10 00 00 00	 mov	 eax, DWORD PTR ?global_options@@3UGLOBAL_OPTIONS_DATA@@A+16
  00542	8a 0c 85 02 00
	00 00		 mov	 cl, BYTE PTR ?hud_colour_table@@3PAUREAL_COLOUR@@A[eax*4+2]
  00549	88 8d ea fe ff
	ff		 mov	 BYTE PTR _colour$[ebp+2], cl

; 2333 : 		colour.green			= hud_colour_table[get_global_hud_colour ()].g;

  0054f	a1 10 00 00 00	 mov	 eax, DWORD PTR ?global_options@@3UGLOBAL_OPTIONS_DATA@@A+16
  00554	8a 0c 85 01 00
	00 00		 mov	 cl, BYTE PTR ?hud_colour_table@@3PAUREAL_COLOUR@@A[eax*4+1]
  0055b	88 8d e9 fe ff
	ff		 mov	 BYTE PTR _colour$[ebp+1], cl

; 2334 : 		colour.blue				= hud_colour_table[get_global_hud_colour ()].b;

  00561	a1 10 00 00 00	 mov	 eax, DWORD PTR ?global_options@@3UGLOBAL_OPTIONS_DATA@@A+16
  00566	8a 0c 85 00 00
	00 00		 mov	 cl, BYTE PTR ?hud_colour_table@@3PAUREAL_COLOUR@@A[eax*4]
  0056d	88 8d e8 fe ff
	ff		 mov	 BYTE PTR _colour$[ebp], cl

; 2335 : 		colour.alpha			= alpha;

  00573	8a 45 f8	 mov	 al, BYTE PTR _alpha$[ebp]
  00576	88 85 eb fe ff
	ff		 mov	 BYTE PTR _colour$[ebp+3], al

; 2336 : 
; 2337 : 		specular.red			= 0;

  0057c	c6 85 e6 fe ff
	ff 00		 mov	 BYTE PTR _specular$[ebp+2], 0

; 2338 : 		specular.green			= 0;

  00583	c6 85 e5 fe ff
	ff 00		 mov	 BYTE PTR _specular$[ebp+1], 0

; 2339 : 		specular.blue			= 0;

  0058a	c6 85 e4 fe ff
	ff 00		 mov	 BYTE PTR _specular$[ebp], 0

; 2340 : 		specular.alpha			= 255;

  00591	c6 85 e7 fe ff
	ff ff		 mov	 BYTE PTR _specular$[ebp+3], 255 ; 000000ffH

; 2341 : 
; 2342 : 		quad[0].i				= hud_screen_x_min;

  00598	b8 40 00 00 00	 mov	 eax, 64			; 00000040H
  0059d	6b c8 00	 imul	 ecx, eax, 0
  005a0	f3 0f 10 05 00
	00 00 00	 movss	 xmm0, DWORD PTR ?hud_screen_x_min@@3MA
  005a8	f3 0f 11 84 0d
	fc fe ff ff	 movss	 DWORD PTR _quad$[ebp+ecx+16], xmm0

; 2343 : 		quad[0].j				= hud_screen_y_min;

  005b1	b8 40 00 00 00	 mov	 eax, 64			; 00000040H
  005b6	6b c8 00	 imul	 ecx, eax, 0
  005b9	f3 0f 10 05 00
	00 00 00	 movss	 xmm0, DWORD PTR ?hud_screen_y_min@@3MA
  005c1	f3 0f 11 84 0d
	00 ff ff ff	 movss	 DWORD PTR _quad$[ebp+ecx+20], xmm0

; 2344 : 		quad[0].z				= 0.5;

  005ca	b8 40 00 00 00	 mov	 eax, 64			; 00000040H
  005cf	6b c8 00	 imul	 ecx, eax, 0
  005d2	f3 0f 10 05 00
	00 00 00	 movss	 xmm0, DWORD PTR __real@3f000000
  005da	f3 0f 11 84 0d
	f4 fe ff ff	 movss	 DWORD PTR _quad$[ebp+ecx+8], xmm0

; 2345 : 		quad[0].q				= 0.5;

  005e3	b8 40 00 00 00	 mov	 eax, 64			; 00000040H
  005e8	6b c8 00	 imul	 ecx, eax, 0
  005eb	f3 0f 10 05 00
	00 00 00	 movss	 xmm0, DWORD PTR __real@3f000000
  005f3	f3 0f 11 84 0d
	f8 fe ff ff	 movss	 DWORD PTR _quad$[ebp+ecx+12], xmm0

; 2346 : 		quad[0].u				= 0.0;

  005fc	b8 40 00 00 00	 mov	 eax, 64			; 00000040H
  00601	6b c8 00	 imul	 ecx, eax, 0
  00604	0f 57 c0	 xorps	 xmm0, xmm0
  00607	f3 0f 11 84 0d
	04 ff ff ff	 movss	 DWORD PTR _quad$[ebp+ecx+24], xmm0

; 2347 : 		quad[0].v				= 0.0;

  00610	b8 40 00 00 00	 mov	 eax, 64			; 00000040H
  00615	6b c8 00	 imul	 ecx, eax, 0
  00618	0f 57 c0	 xorps	 xmm0, xmm0
  0061b	f3 0f 11 84 0d
	08 ff ff ff	 movss	 DWORD PTR _quad$[ebp+ecx+28], xmm0

; 2348 : 
; 2349 : 		quad[1].i				= hud_screen_x_max;

  00624	b8 40 00 00 00	 mov	 eax, 64			; 00000040H
  00629	c1 e0 00	 shl	 eax, 0
  0062c	f3 0f 10 05 00
	00 00 00	 movss	 xmm0, DWORD PTR ?hud_screen_x_max@@3MA
  00634	f3 0f 11 84 05
	fc fe ff ff	 movss	 DWORD PTR _quad$[ebp+eax+16], xmm0

; 2350 : 		quad[1].j				= hud_screen_y_min;

  0063d	b8 40 00 00 00	 mov	 eax, 64			; 00000040H
  00642	c1 e0 00	 shl	 eax, 0
  00645	f3 0f 10 05 00
	00 00 00	 movss	 xmm0, DWORD PTR ?hud_screen_y_min@@3MA
  0064d	f3 0f 11 84 05
	00 ff ff ff	 movss	 DWORD PTR _quad$[ebp+eax+20], xmm0

; 2351 : 		quad[1].z				= 0.5;

  00656	b8 40 00 00 00	 mov	 eax, 64			; 00000040H
  0065b	c1 e0 00	 shl	 eax, 0
  0065e	f3 0f 10 05 00
	00 00 00	 movss	 xmm0, DWORD PTR __real@3f000000
  00666	f3 0f 11 84 05
	f4 fe ff ff	 movss	 DWORD PTR _quad$[ebp+eax+8], xmm0

; 2352 : 		quad[1].q				= 0.5;

  0066f	b8 40 00 00 00	 mov	 eax, 64			; 00000040H
  00674	c1 e0 00	 shl	 eax, 0
  00677	f3 0f 10 05 00
	00 00 00	 movss	 xmm0, DWORD PTR __real@3f000000
  0067f	f3 0f 11 84 05
	f8 fe ff ff	 movss	 DWORD PTR _quad$[ebp+eax+12], xmm0

; 2353 : 		quad[1].u				= 1.0;

  00688	b8 40 00 00 00	 mov	 eax, 64			; 00000040H
  0068d	c1 e0 00	 shl	 eax, 0
  00690	f3 0f 10 05 00
	00 00 00	 movss	 xmm0, DWORD PTR __real@3f800000
  00698	f3 0f 11 84 05
	04 ff ff ff	 movss	 DWORD PTR _quad$[ebp+eax+24], xmm0

; 2354 : 		quad[1].v				= 0.0;

  006a1	b8 40 00 00 00	 mov	 eax, 64			; 00000040H
  006a6	c1 e0 00	 shl	 eax, 0
  006a9	0f 57 c0	 xorps	 xmm0, xmm0
  006ac	f3 0f 11 84 05
	08 ff ff ff	 movss	 DWORD PTR _quad$[ebp+eax+28], xmm0

; 2355 : 
; 2356 : 		quad[2].i				= hud_screen_x_max;

  006b5	b8 40 00 00 00	 mov	 eax, 64			; 00000040H
  006ba	d1 e0		 shl	 eax, 1
  006bc	f3 0f 10 05 00
	00 00 00	 movss	 xmm0, DWORD PTR ?hud_screen_x_max@@3MA
  006c4	f3 0f 11 84 05
	fc fe ff ff	 movss	 DWORD PTR _quad$[ebp+eax+16], xmm0

; 2357 : 		quad[2].j				= hud_screen_y_max;

  006cd	b8 40 00 00 00	 mov	 eax, 64			; 00000040H
  006d2	d1 e0		 shl	 eax, 1
  006d4	f3 0f 10 05 00
	00 00 00	 movss	 xmm0, DWORD PTR ?hud_screen_y_max@@3MA
  006dc	f3 0f 11 84 05
	00 ff ff ff	 movss	 DWORD PTR _quad$[ebp+eax+20], xmm0

; 2358 : 		quad[2].z				= 0.5;

  006e5	b8 40 00 00 00	 mov	 eax, 64			; 00000040H
  006ea	d1 e0		 shl	 eax, 1
  006ec	f3 0f 10 05 00
	00 00 00	 movss	 xmm0, DWORD PTR __real@3f000000
  006f4	f3 0f 11 84 05
	f4 fe ff ff	 movss	 DWORD PTR _quad$[ebp+eax+8], xmm0

; 2359 : 		quad[2].q				= 0.5;

  006fd	b8 40 00 00 00	 mov	 eax, 64			; 00000040H
  00702	d1 e0		 shl	 eax, 1
  00704	f3 0f 10 05 00
	00 00 00	 movss	 xmm0, DWORD PTR __real@3f000000
  0070c	f3 0f 11 84 05
	f8 fe ff ff	 movss	 DWORD PTR _quad$[ebp+eax+12], xmm0

; 2360 : 		quad[2].u				= 1.0;

  00715	b8 40 00 00 00	 mov	 eax, 64			; 00000040H
  0071a	d1 e0		 shl	 eax, 1
  0071c	f3 0f 10 05 00
	00 00 00	 movss	 xmm0, DWORD PTR __real@3f800000
  00724	f3 0f 11 84 05
	04 ff ff ff	 movss	 DWORD PTR _quad$[ebp+eax+24], xmm0

; 2361 : 		quad[2].v				= 1.0;

  0072d	b8 40 00 00 00	 mov	 eax, 64			; 00000040H
  00732	d1 e0		 shl	 eax, 1
  00734	f3 0f 10 05 00
	00 00 00	 movss	 xmm0, DWORD PTR __real@3f800000
  0073c	f3 0f 11 84 05
	08 ff ff ff	 movss	 DWORD PTR _quad$[ebp+eax+28], xmm0

; 2362 : 
; 2363 : 		quad[3].i				= hud_screen_x_min;

  00745	b8 40 00 00 00	 mov	 eax, 64			; 00000040H
  0074a	6b c8 03	 imul	 ecx, eax, 3
  0074d	f3 0f 10 05 00
	00 00 00	 movss	 xmm0, DWORD PTR ?hud_screen_x_min@@3MA
  00755	f3 0f 11 84 0d
	fc fe ff ff	 movss	 DWORD PTR _quad$[ebp+ecx+16], xmm0

; 2364 : 		quad[3].j				= hud_screen_y_max;

  0075e	b8 40 00 00 00	 mov	 eax, 64			; 00000040H
  00763	6b c8 03	 imul	 ecx, eax, 3
  00766	f3 0f 10 05 00
	00 00 00	 movss	 xmm0, DWORD PTR ?hud_screen_y_max@@3MA
  0076e	f3 0f 11 84 0d
	00 ff ff ff	 movss	 DWORD PTR _quad$[ebp+ecx+20], xmm0

; 2365 : 		quad[3].z				= 0.5;

  00777	b8 40 00 00 00	 mov	 eax, 64			; 00000040H
  0077c	6b c8 03	 imul	 ecx, eax, 3
  0077f	f3 0f 10 05 00
	00 00 00	 movss	 xmm0, DWORD PTR __real@3f000000
  00787	f3 0f 11 84 0d
	f4 fe ff ff	 movss	 DWORD PTR _quad$[ebp+ecx+8], xmm0

; 2366 : 		quad[3].q				= 0.5;

  00790	b8 40 00 00 00	 mov	 eax, 64			; 00000040H
  00795	6b c8 03	 imul	 ecx, eax, 3
  00798	f3 0f 10 05 00
	00 00 00	 movss	 xmm0, DWORD PTR __real@3f000000
  007a0	f3 0f 11 84 0d
	f8 fe ff ff	 movss	 DWORD PTR _quad$[ebp+ecx+12], xmm0

; 2367 : 		quad[3].u				= 0.0;

  007a9	b8 40 00 00 00	 mov	 eax, 64			; 00000040H
  007ae	6b c8 03	 imul	 ecx, eax, 3
  007b1	0f 57 c0	 xorps	 xmm0, xmm0
  007b4	f3 0f 11 84 0d
	04 ff ff ff	 movss	 DWORD PTR _quad$[ebp+ecx+24], xmm0

; 2368 : 		quad[3].v				= 1.0;

  007bd	b8 40 00 00 00	 mov	 eax, 64			; 00000040H
  007c2	6b c8 03	 imul	 ecx, eax, 3
  007c5	f3 0f 10 05 00
	00 00 00	 movss	 xmm0, DWORD PTR __real@3f800000
  007cd	f3 0f 11 84 0d
	08 ff ff ff	 movss	 DWORD PTR _quad$[ebp+ecx+28], xmm0

; 2369 : 
; 2370 : 		quad[0].next_vertex	= &quad[1];

  007d6	b8 40 00 00 00	 mov	 eax, 64			; 00000040H
  007db	c1 e0 00	 shl	 eax, 0
  007de	8d 8c 05 ec fe
	ff ff		 lea	 ecx, DWORD PTR _quad$[ebp+eax]
  007e5	ba 40 00 00 00	 mov	 edx, 64			; 00000040H
  007ea	6b c2 00	 imul	 eax, edx, 0
  007ed	89 8c 05 14 ff
	ff ff		 mov	 DWORD PTR _quad$[ebp+eax+40], ecx

; 2371 : 		quad[1].next_vertex	= &quad[2];

  007f4	b8 40 00 00 00	 mov	 eax, 64			; 00000040H
  007f9	d1 e0		 shl	 eax, 1
  007fb	8d 8c 05 ec fe
	ff ff		 lea	 ecx, DWORD PTR _quad$[ebp+eax]
  00802	ba 40 00 00 00	 mov	 edx, 64			; 00000040H
  00807	c1 e2 00	 shl	 edx, 0
  0080a	89 8c 15 14 ff
	ff ff		 mov	 DWORD PTR _quad$[ebp+edx+40], ecx

; 2372 : 		quad[2].next_vertex	= &quad[3];

  00811	b8 40 00 00 00	 mov	 eax, 64			; 00000040H
  00816	6b c8 03	 imul	 ecx, eax, 3
  00819	8d 94 0d ec fe
	ff ff		 lea	 edx, DWORD PTR _quad$[ebp+ecx]
  00820	b8 40 00 00 00	 mov	 eax, 64			; 00000040H
  00825	d1 e0		 shl	 eax, 1
  00827	89 94 05 14 ff
	ff ff		 mov	 DWORD PTR _quad$[ebp+eax+40], edx

; 2373 : 		quad[3].next_vertex	= NULL;

  0082e	b8 40 00 00 00	 mov	 eax, 64			; 00000040H
  00833	6b c8 03	 imul	 ecx, eax, 3
  00836	c7 84 0d 14 ff
	ff ff 00 00 00
	00		 mov	 DWORD PTR _quad$[ebp+ecx+40], 0

; 2374 : 
; 2375 : 		//
; 2376 : 		////////////////////////////////////////
; 2377 : 
; 2378 : 		draw_wbuffered_flat_shaded_textured_polygon (quad, colour, specular);

  00841	8b 85 e4 fe ff
	ff		 mov	 eax, DWORD PTR _specular$[ebp]
  00847	50		 push	 eax
  00848	8b 8d e8 fe ff
	ff		 mov	 ecx, DWORD PTR _colour$[ebp]
  0084e	51		 push	 ecx
  0084f	8d 95 ec fe ff
	ff		 lea	 edx, DWORD PTR _quad$[ebp]
  00855	52		 push	 edx
  00856	e8 00 00 00 00	 call	 ?draw_wbuffered_flat_shaded_textured_polygon@@YGXPAUVERTEX@@UREAL_COLOUR@@1@Z ; draw_wbuffered_flat_shaded_textured_polygon

; 2379 : 
; 2380 : 		set_d3d_transparency_off ();

  0085b	e8 00 00 00 00	 call	 ?set_d3d_transparency_off@@YGXXZ ; set_d3d_transparency_off

; 2381 : 
; 2382 : 		set_d3d_zbuffer_comparison (TRUE);

  00860	6a 01		 push	 1
  00862	e8 00 00 00 00	 call	 ?set_d3d_zbuffer_comparison@@YGXH@Z ; set_d3d_zbuffer_comparison

; 2383 : 
; 2384 : 		set_d3d_culling (TRUE);

  00867	6a 01		 push	 1
  00869	e8 00 00 00 00	 call	 ?set_d3d_culling@@YGXH@Z ; set_d3d_culling

; 2385 : 
; 2386 : 		end_3d_scene ();

  0086e	e8 00 00 00 00	 call	 ?end_3d_scene@@YGXXZ	; end_3d_scene
$LN16@draw_hokum:
$LN1@draw_hokum:

; 2387 : 	}
; 2388 : }

  00873	5f		 pop	 edi
  00874	5e		 pop	 esi
  00875	5b		 pop	 ebx
  00876	8b e5		 mov	 esp, ebp
  00878	5d		 pop	 ebp
  00879	c3		 ret	 0
?draw_hokum_hms@@YGXXZ ENDP				; draw_hokum_hms
_TEXT	ENDS
; Function compile flags: /Odtp /ZI
; File c:\users\nhv90\projects\eech\aphavoc\source\gunships\avionics\hokum\hk_hud.c
;	COMDAT ?draw_external_hokum_hud@@YGXXZ
_TEXT	SEGMENT
tv197 = -336						; size = 4
_specular$ = -268					; size = 4
_colour$ = -264						; size = 4
_quad$ = -260						; size = 256
_store_hud_colour$ = -4					; size = 4
?draw_external_hokum_hud@@YGXXZ PROC			; draw_external_hokum_hud, COMDAT

; 1345 : {

  00000	55		 push	 ebp
  00001	8b ec		 mov	 ebp, esp
  00003	81 ec 50 01 00
	00		 sub	 esp, 336		; 00000150H
  00009	53		 push	 ebx
  0000a	56		 push	 esi
  0000b	57		 push	 edi

; 1346 : 	rgb_colour
; 1347 : 		store_hud_colour;
; 1348 : 
; 1349 : 	vertex
; 1350 : 		quad[4];
; 1351 : 
; 1352 : 	real_colour
; 1353 : 		colour,
; 1354 : 		specular;
; 1355 : 
; 1356 : 	////////////////////////////////////////
; 1357 : 	//
; 1358 : 	// do not draw damaged HUD
; 1359 : 	//
; 1360 : 	////////////////////////////////////////
; 1361 : 
; 1362 : 	if (hokum_damage.head_up_display)

  0000c	a1 00 00 00 00	 mov	 eax, DWORD PTR ?hokum_damage@@3THOKUM_DAMAGE_FLAGS@@A ; hokum_damage
  00011	c1 e8 0e	 shr	 eax, 14			; 0000000eH
  00014	83 e0 01	 and	 eax, 1
  00017	74 05		 je	 SHORT $LN4@draw_exter

; 1363 : 	{
; 1364 : 		return;

  00019	e9 48 07 00 00	 jmp	 $LN1@draw_exter
$LN4@draw_exter:

; 1365 : 	}
; 1366 : 
; 1367 : 	////////////////////////////////////////
; 1368 : 	//
; 1369 : 	// set active 3D environment now else 2D clipping will be affected
; 1370 : 	//
; 1371 : 	////////////////////////////////////////
; 1372 : 
; 1373 : 	set_main_3d_full_screen_params (DISPLAY_3D_TINT_CLEAR, DISPLAY_3D_LIGHT_LEVEL_HIGH, DISPLAY_3D_NOISE_LEVEL_NONE);

  0001e	6a 00		 push	 0
  00020	6a 02		 push	 2
  00022	6a 00		 push	 0
  00024	e8 00 00 00 00	 call	 ?set_main_3d_full_screen_params@@YGXW4DISPLAY_3D_TINTS@@W4DISPLAY_3D_LIGHT_LEVELS@@W4DISPLAY_3D_NOISE_LEVELS@@@Z ; set_main_3d_full_screen_params

; 1374 : 
; 1375 : 	set_3d_active_environment (main_3d_env);

  00029	a1 00 00 00 00	 mov	 eax, DWORD PTR ?main_3d_env@@3PAUENV_3D@@A ; main_3d_env
  0002e	50		 push	 eax
  0002f	e8 00 00 00 00	 call	 ?set_3d_active_environment@@YGXPAUENV_3D@@@Z ; set_3d_active_environment

; 1376 : 
; 1377 : 	////////////////////////////////////////
; 1378 : 	//
; 1379 : 	// set up HUD 2D environment
; 1380 : 	//
; 1381 : 	////////////////////////////////////////
; 1382 : 
; 1383 : 	set_2d_active_environment (hud_env);

  00034	a1 00 00 00 00	 mov	 eax, DWORD PTR ?hud_env@@3PAUENV_2D@@A
  00039	50		 push	 eax
  0003a	e8 00 00 00 00	 call	 ?set_2d_active_environment@@YGXPAUENV_2D@@@Z ; set_2d_active_environment

; 1384 : 
; 1385 : 	set_2d_window (hud_env, HUD_WINDOW_X_MIN, HUD_WINDOW_Y_MIN, HUD_WINDOW_X_MAX, HUD_WINDOW_Y_MAX);

  0003f	51		 push	 ecx
  00040	f3 0f 10 05 00
	00 00 00	 movss	 xmm0, DWORD PTR __real@3f7fbe77
  00048	f3 0f 11 04 24	 movss	 DWORD PTR [esp], xmm0
  0004d	51		 push	 ecx
  0004e	f3 0f 10 05 00
	00 00 00	 movss	 xmm0, DWORD PTR __real@3f7fbe77
  00056	f3 0f 11 04 24	 movss	 DWORD PTR [esp], xmm0
  0005b	51		 push	 ecx
  0005c	f3 0f 10 05 00
	00 00 00	 movss	 xmm0, DWORD PTR __real@bf800000
  00064	f3 0f 11 04 24	 movss	 DWORD PTR [esp], xmm0
  00069	51		 push	 ecx
  0006a	f3 0f 10 05 00
	00 00 00	 movss	 xmm0, DWORD PTR __real@bf800000
  00072	f3 0f 11 04 24	 movss	 DWORD PTR [esp], xmm0
  00077	a1 00 00 00 00	 mov	 eax, DWORD PTR ?hud_env@@3PAUENV_2D@@A
  0007c	50		 push	 eax
  0007d	e8 00 00 00 00	 call	 ?set_2d_window@@YGXPAUENV_2D@@MMMM@Z ; set_2d_window

; 1386 : 
; 1387 : 	draw_large_hud = TRUE;

  00082	c7 05 00 00 00
	00 01 00 00 00	 mov	 DWORD PTR ?draw_large_hud@@3HA, 1

; 1388 : 	draw_line_func = draw_2d_half_thick_line;

  0008c	c7 05 00 00 00
	00 00 00 00 00	 mov	 DWORD PTR ?draw_line_func@@3P6GXMMMMUREAL_COLOUR@@@ZA, OFFSET ?draw_2d_half_thick_line@@YGXMMMMUREAL_COLOUR@@@Z ; draw_2d_half_thick_line

; 1389 : 
; 1390 : 	hud_viewport_size = HUD_VIEWPORT_LARGE_SIZE;

  00096	f3 0f 10 05 00
	00 00 00	 movss	 xmm0, DWORD PTR __real@43800000
  0009e	f3 0f 11 05 00
	00 00 00	 movss	 DWORD PTR ?hud_viewport_size@@3MA, xmm0

; 1391 : 
; 1392 : 	hud_viewport_x_org = HUD_VIEWPORT_LARGE_SIZE * 0.5;

  000a6	f3 0f 10 05 00
	00 00 00	 movss	 xmm0, DWORD PTR __real@43000000
  000ae	f3 0f 11 05 00
	00 00 00	 movss	 DWORD PTR ?hud_viewport_x_org@@3MA, xmm0

; 1393 : 
; 1394 : 	hud_viewport_y_org = HUD_VIEWPORT_LARGE_SIZE * 0.5;

  000b6	f3 0f 10 05 00
	00 00 00	 movss	 xmm0, DWORD PTR __real@43000000
  000be	f3 0f 11 05 00
	00 00 00	 movss	 DWORD PTR ?hud_viewport_y_org@@3MA, xmm0

; 1395 : 
; 1396 : 	hud_viewport_x_min = 0.0;

  000c6	0f 57 c0	 xorps	 xmm0, xmm0
  000c9	f3 0f 11 05 00
	00 00 00	 movss	 DWORD PTR ?hud_viewport_x_min@@3MA, xmm0

; 1397 : 
; 1398 : 	hud_viewport_y_min = 0.0;

  000d1	0f 57 c0	 xorps	 xmm0, xmm0
  000d4	f3 0f 11 05 00
	00 00 00	 movss	 DWORD PTR ?hud_viewport_y_min@@3MA, xmm0

; 1399 : 
; 1400 : 	hud_viewport_x_max = HUD_VIEWPORT_LARGE_SIZE - 0.001;

  000dc	f3 0f 10 05 00
	00 00 00	 movss	 xmm0, DWORD PTR __real@437fffbe
  000e4	f3 0f 11 05 00
	00 00 00	 movss	 DWORD PTR ?hud_viewport_x_max@@3MA, xmm0

; 1401 : 
; 1402 : 	hud_viewport_y_max = HUD_VIEWPORT_LARGE_SIZE - 0.001;

  000ec	f3 0f 10 05 00
	00 00 00	 movss	 xmm0, DWORD PTR __real@437fffbe
  000f4	f3 0f 11 05 00
	00 00 00	 movss	 DWORD PTR ?hud_viewport_y_max@@3MA, xmm0

; 1403 : 
; 1404 : 	set_2d_viewport (hud_env, hud_viewport_x_min, hud_viewport_y_min, hud_viewport_x_max, hud_viewport_y_max);

  000fc	51		 push	 ecx
  000fd	f3 0f 10 05 00
	00 00 00	 movss	 xmm0, DWORD PTR ?hud_viewport_y_max@@3MA
  00105	f3 0f 11 04 24	 movss	 DWORD PTR [esp], xmm0
  0010a	51		 push	 ecx
  0010b	f3 0f 10 05 00
	00 00 00	 movss	 xmm0, DWORD PTR ?hud_viewport_x_max@@3MA
  00113	f3 0f 11 04 24	 movss	 DWORD PTR [esp], xmm0
  00118	51		 push	 ecx
  00119	f3 0f 10 05 00
	00 00 00	 movss	 xmm0, DWORD PTR ?hud_viewport_y_min@@3MA
  00121	f3 0f 11 04 24	 movss	 DWORD PTR [esp], xmm0
  00126	51		 push	 ecx
  00127	f3 0f 10 05 00
	00 00 00	 movss	 xmm0, DWORD PTR ?hud_viewport_x_min@@3MA
  0012f	f3 0f 11 04 24	 movss	 DWORD PTR [esp], xmm0
  00134	a1 00 00 00 00	 mov	 eax, DWORD PTR ?hud_env@@3PAUENV_2D@@A
  00139	50		 push	 eax
  0013a	e8 00 00 00 00	 call	 ?set_2d_viewport@@YGXPAUENV_2D@@MMMM@Z ; set_2d_viewport

; 1405 : 
; 1406 : 	//
; 1407 : 	// get screen co-ords (scaled to keep HUD size constant)
; 1408 : 	//
; 1409 : 
; 1410 : 	if (get_global_unscaled_displays ())

  0013f	83 3d 74 03 00
	00 00		 cmp	 DWORD PTR ?global_options@@3UGLOBAL_OPTIONS_DATA@@A+884, 0
  00146	0f 84 95 00 00
	00		 je	 $LN5@draw_exter

; 1411 : 	{
; 1412 : 		hud_screen_x_min = full_screen_x_mid - 128.0;

  0014c	f3 0f 5a 05 00
	00 00 00	 cvtss2sd xmm0, DWORD PTR ?full_screen_x_mid@@3MA
  00154	f2 0f 5c 05 00
	00 00 00	 subsd	 xmm0, QWORD PTR __real@4060000000000000
  0015c	f2 0f 5a c0	 cvtsd2ss xmm0, xmm0
  00160	f3 0f 11 05 00
	00 00 00	 movss	 DWORD PTR ?hud_screen_x_min@@3MA, xmm0

; 1413 : 		hud_screen_y_min = full_screen_y_mid - 128.0;

  00168	f3 0f 5a 05 00
	00 00 00	 cvtss2sd xmm0, DWORD PTR ?full_screen_y_mid@@3MA
  00170	f2 0f 5c 05 00
	00 00 00	 subsd	 xmm0, QWORD PTR __real@4060000000000000
  00178	f2 0f 5a c0	 cvtsd2ss xmm0, xmm0
  0017c	f3 0f 11 05 00
	00 00 00	 movss	 DWORD PTR ?hud_screen_y_min@@3MA, xmm0

; 1414 : 
; 1415 : 		hud_screen_x_max = full_screen_x_mid + 127.999;

  00184	f3 0f 5a 05 00
	00 00 00	 cvtss2sd xmm0, DWORD PTR ?full_screen_x_mid@@3MA
  0018c	f2 0f 58 05 00
	00 00 00	 addsd	 xmm0, QWORD PTR __real@405fffef9db22d0e
  00194	f2 0f 5a c0	 cvtsd2ss xmm0, xmm0
  00198	f3 0f 11 05 00
	00 00 00	 movss	 DWORD PTR ?hud_screen_x_max@@3MA, xmm0

; 1416 : 		hud_screen_y_max = full_screen_y_mid + 127.999;

  001a0	f3 0f 5a 05 00
	00 00 00	 cvtss2sd xmm0, DWORD PTR ?full_screen_y_mid@@3MA
  001a8	f2 0f 58 05 00
	00 00 00	 addsd	 xmm0, QWORD PTR __real@405fffef9db22d0e
  001b0	f2 0f 5a c0	 cvtsd2ss xmm0, xmm0
  001b4	f3 0f 11 05 00
	00 00 00	 movss	 DWORD PTR ?hud_screen_y_max@@3MA, xmm0

; 1417 : 
; 1418 : 		hud_screen_x_scale = 1.0;

  001bc	f3 0f 10 05 00
	00 00 00	 movss	 xmm0, DWORD PTR __real@3f800000
  001c4	f3 0f 11 05 00
	00 00 00	 movss	 DWORD PTR ?hud_screen_x_scale@@3MA, xmm0

; 1419 : 		hud_screen_y_scale = 1.0;

  001cc	f3 0f 10 05 00
	00 00 00	 movss	 xmm0, DWORD PTR __real@3f800000
  001d4	f3 0f 11 05 00
	00 00 00	 movss	 DWORD PTR ?hud_screen_y_scale@@3MA, xmm0

; 1420 : 	}
; 1421 : 	else

  001dc	e9 f0 00 00 00	 jmp	 $LN6@draw_exter
$LN5@draw_exter:

; 1422 : 	{
; 1423 : 		hud_screen_x_min = full_screen_x_mid - ((256.0 / (640.0 * 2.0)) * full_screen_width);

  001e1	f3 0f 5a 05 00
	00 00 00	 cvtss2sd xmm0, DWORD PTR ?full_screen_x_mid@@3MA
  001e9	f3 0f 5a 0d 00
	00 00 00	 cvtss2sd xmm1, DWORD PTR ?full_screen_width@@3MA
  001f1	f2 0f 59 0d 00
	00 00 00	 mulsd	 xmm1, QWORD PTR __real@3fc999999999999a
  001f9	f2 0f 5c c1	 subsd	 xmm0, xmm1
  001fd	f2 0f 5a c0	 cvtsd2ss xmm0, xmm0
  00201	f3 0f 11 05 00
	00 00 00	 movss	 DWORD PTR ?hud_screen_x_min@@3MA, xmm0

; 1424 : 		hud_screen_y_min = full_screen_y_mid - ((256.0 / (480.0 * 2.0)) * full_screen_height);

  00209	f3 0f 5a 05 00
	00 00 00	 cvtss2sd xmm0, DWORD PTR ?full_screen_y_mid@@3MA
  00211	f3 0f 5a 0d 00
	00 00 00	 cvtss2sd xmm1, DWORD PTR ?full_screen_height@@3MA
  00219	f2 0f 59 0d 00
	00 00 00	 mulsd	 xmm1, QWORD PTR __real@3fd1111111111111
  00221	f2 0f 5c c1	 subsd	 xmm0, xmm1
  00225	f2 0f 5a c0	 cvtsd2ss xmm0, xmm0
  00229	f3 0f 11 05 00
	00 00 00	 movss	 DWORD PTR ?hud_screen_y_min@@3MA, xmm0

; 1425 : 
; 1426 : 		hud_screen_x_max = full_screen_x_mid + ((256.0 / (640.0 * 2.0)) * full_screen_width) - 0.001;

  00231	f3 0f 5a 05 00
	00 00 00	 cvtss2sd xmm0, DWORD PTR ?full_screen_x_mid@@3MA
  00239	f3 0f 5a 0d 00
	00 00 00	 cvtss2sd xmm1, DWORD PTR ?full_screen_width@@3MA
  00241	f2 0f 59 0d 00
	00 00 00	 mulsd	 xmm1, QWORD PTR __real@3fc999999999999a
  00249	f2 0f 58 c1	 addsd	 xmm0, xmm1
  0024d	f2 0f 5c 05 00
	00 00 00	 subsd	 xmm0, QWORD PTR __real@3f50624dd2f1a9fc
  00255	f2 0f 5a c0	 cvtsd2ss xmm0, xmm0
  00259	f3 0f 11 05 00
	00 00 00	 movss	 DWORD PTR ?hud_screen_x_max@@3MA, xmm0

; 1427 : 		hud_screen_y_max = full_screen_y_mid + ((256.0 / (480.0 * 2.0)) * full_screen_height) - 0.001;

  00261	f3 0f 5a 05 00
	00 00 00	 cvtss2sd xmm0, DWORD PTR ?full_screen_y_mid@@3MA
  00269	f3 0f 5a 0d 00
	00 00 00	 cvtss2sd xmm1, DWORD PTR ?full_screen_height@@3MA
  00271	f2 0f 59 0d 00
	00 00 00	 mulsd	 xmm1, QWORD PTR __real@3fd1111111111111
  00279	f2 0f 58 c1	 addsd	 xmm0, xmm1
  0027d	f2 0f 5c 05 00
	00 00 00	 subsd	 xmm0, QWORD PTR __real@3f50624dd2f1a9fc
  00285	f2 0f 5a c0	 cvtsd2ss xmm0, xmm0
  00289	f3 0f 11 05 00
	00 00 00	 movss	 DWORD PTR ?hud_screen_y_max@@3MA, xmm0

; 1428 : 
; 1429 : 		hud_screen_x_scale = 640.0 / full_screen_width;

  00291	f3 0f 5a 05 00
	00 00 00	 cvtss2sd xmm0, DWORD PTR ?full_screen_width@@3MA
  00299	f2 0f 10 0d 00
	00 00 00	 movsd	 xmm1, QWORD PTR __real@4084000000000000
  002a1	f2 0f 5e c8	 divsd	 xmm1, xmm0
  002a5	f2 0f 5a c1	 cvtsd2ss xmm0, xmm1
  002a9	f3 0f 11 05 00
	00 00 00	 movss	 DWORD PTR ?hud_screen_x_scale@@3MA, xmm0

; 1430 : 		hud_screen_y_scale = 480.0 / full_screen_height;

  002b1	f3 0f 5a 05 00
	00 00 00	 cvtss2sd xmm0, DWORD PTR ?full_screen_height@@3MA
  002b9	f2 0f 10 0d 00
	00 00 00	 movsd	 xmm1, QWORD PTR __real@407e000000000000
  002c1	f2 0f 5e c8	 divsd	 xmm1, xmm0
  002c5	f2 0f 5a c1	 cvtsd2ss xmm0, xmm1
  002c9	f3 0f 11 05 00
	00 00 00	 movss	 DWORD PTR ?hud_screen_y_scale@@3MA, xmm0
$LN6@draw_exter:

; 1431 : 	}
; 1432 : 
; 1433 : 	////////////////////////////////////////
; 1434 : 	//
; 1435 : 	// draw HUD on texture
; 1436 : 	//
; 1437 : 	////////////////////////////////////////
; 1438 : 
; 1439 : 	set_active_screen (outside_hud_texture_screen);

  002d1	a1 00 00 00 00	 mov	 eax, DWORD PTR ?outside_hud_texture_screen@@3PAUSCREEN@@A
  002d6	50		 push	 eax
  002d7	e8 00 00 00 00	 call	 ?set_active_screen@@YGHPAUSCREEN@@@Z ; set_active_screen

; 1440 : 
; 1441 : 	if (lock_screen (outside_hud_texture_screen))

  002dc	a1 00 00 00 00	 mov	 eax, DWORD PTR ?outside_hud_texture_screen@@3PAUSCREEN@@A
  002e1	50		 push	 eax
  002e2	e8 00 00 00 00	 call	 ?lock_screen@@YGHPAUSCREEN@@@Z ; lock_screen
  002e7	85 c0		 test	 eax, eax
  002e9	0f 84 b3 00 00
	00		 je	 $LN7@draw_exter

; 1442 : 	{
; 1443 : 	 	store_hud_colour = hud_colour;

  002ef	a1 00 00 00 00	 mov	 eax, DWORD PTR ?hud_colour@@3UREAL_COLOUR@@A ; hud_colour
  002f4	89 45 fc	 mov	 DWORD PTR _store_hud_colour$[ebp], eax

; 1444 : 
; 1445 : 		set_rgb_colour (hud_colour, 255, 255, 255, 255);

  002f7	c6 05 02 00 00
	00 ff		 mov	 BYTE PTR ?hud_colour@@3UREAL_COLOUR@@A+2, 255 ; 000000ffH
  002fe	c6 05 01 00 00
	00 ff		 mov	 BYTE PTR ?hud_colour@@3UREAL_COLOUR@@A+1, 255 ; 000000ffH
  00305	c6 05 00 00 00
	00 ff		 mov	 BYTE PTR ?hud_colour@@3UREAL_COLOUR@@A, 255 ; 000000ffH
  0030c	c6 05 03 00 00
	00 ff		 mov	 BYTE PTR ?hud_colour@@3UREAL_COLOUR@@A+3, 255 ; 000000ffH

; 1446 : 
; 1447 : 		set_mono_font_colour (hud_colour);

  00313	a1 00 00 00 00	 mov	 eax, DWORD PTR ?hud_colour@@3UREAL_COLOUR@@A ; hud_colour
  00318	50		 push	 eax
  00319	e8 00 00 00 00	 call	 ?set_mono_font_colour@@YGXUREAL_COLOUR@@@Z ; set_mono_font_colour

; 1448 : 
; 1449 : 		set_block (0, 0, HUD_VIEWPORT_LARGE_SIZE - 1, HUD_VIEWPORT_LARGE_SIZE - 1, clear_hud_colour);

  0031e	a1 00 00 00 00	 mov	 eax, DWORD PTR ?clear_hud_colour@@3UREAL_COLOUR@@A
  00323	50		 push	 eax
  00324	68 ff 00 00 00	 push	 255			; 000000ffH
  00329	68 ff 00 00 00	 push	 255			; 000000ffH
  0032e	6a 00		 push	 0
  00330	6a 00		 push	 0
  00332	e8 00 00 00 00	 call	 ?set_block@@YGXHHHHUREAL_COLOUR@@@Z ; set_block

; 1450 : 
; 1451 : 		draw_layout_grid ();

  00337	e8 00 00 00 00	 call	 ?draw_layout_grid@@YGXXZ ; draw_layout_grid

; 1452 : 
; 1453 : 		draw_basic_hud();

  0033c	e8 00 00 00 00	 call	 ?draw_basic_hud@@YGXXZ	; draw_basic_hud

; 1454 : 
; 1455 : 		switch (hud_mode)

  00341	a1 00 00 00 00	 mov	 eax, DWORD PTR ?hud_mode@@3W4HUD_MODES@@A ; hud_mode
  00346	89 85 b0 fe ff
	ff		 mov	 DWORD PTR tv197[ebp], eax
  0034c	83 bd b0 fe ff
	ff 00		 cmp	 DWORD PTR tv197[ebp], 0
  00353	7c 2f		 jl	 SHORT $LN2@draw_exter
  00355	83 bd b0 fe ff
	ff 01		 cmp	 DWORD PTR tv197[ebp], 1
  0035c	7e 0b		 jle	 SHORT $LN8@draw_exter
  0035e	83 bd b0 fe ff
	ff 02		 cmp	 DWORD PTR tv197[ebp], 2
  00365	74 13		 je	 SHORT $LN9@draw_exter
  00367	eb 1b		 jmp	 SHORT $LN2@draw_exter
$LN8@draw_exter:

; 1456 : 		{
; 1457 : 			case HUD_MODE_TRANSITION:				
; 1458 : 			case HUD_MODE_NAVIGATION:
; 1459 : 			{
; 1460 : 				draw_heading_scale();

  00369	e8 00 00 00 00	 call	 ?draw_heading_scale@@YGXXZ ; draw_heading_scale

; 1461 : 				display_waypoint_information();

  0036e	e8 00 00 00 00	 call	 ?display_waypoint_information@@YGXXZ ; display_waypoint_information

; 1462 : 				display_g_scale();

  00373	e8 00 00 00 00	 call	 ?display_g_scale@@YGXXZ	; display_g_scale

; 1463 : 
; 1464 : 				break;

  00378	eb 0a		 jmp	 SHORT $LN2@draw_exter
$LN9@draw_exter:

; 1465 : 			}
; 1466 : 			case HUD_MODE_WEAPON:
; 1467 : 			{
; 1468 : 				display_weapon_information();

  0037a	e8 00 00 00 00	 call	 ?display_weapon_information@@YGXXZ ; display_weapon_information

; 1469 : 				display_target_information();

  0037f	e8 00 00 00 00	 call	 ?display_target_information@@YGXXZ ; display_target_information
$LN2@draw_exter:

; 1470 : 
; 1471 : 				break;
; 1472 : 			}
; 1473 : 		}
; 1474 : 
; 1475 : 		hud_colour = store_hud_colour;

  00384	8b 45 fc	 mov	 eax, DWORD PTR _store_hud_colour$[ebp]
  00387	a3 00 00 00 00	 mov	 DWORD PTR ?hud_colour@@3UREAL_COLOUR@@A, eax ; hud_colour

; 1476 : 
; 1477 : 		flush_screen_texture_graphics (outside_hud_texture_screen);

  0038c	a1 00 00 00 00	 mov	 eax, DWORD PTR ?outside_hud_texture_screen@@3PAUSCREEN@@A
  00391	50		 push	 eax
  00392	e8 00 00 00 00	 call	 ?flush_screen_texture_graphics@@YGXPAUSCREEN@@@Z ; flush_screen_texture_graphics

; 1478 : 
; 1479 : 		unlock_screen (outside_hud_texture_screen);

  00397	a1 00 00 00 00	 mov	 eax, DWORD PTR ?outside_hud_texture_screen@@3PAUSCREEN@@A
  0039c	50		 push	 eax
  0039d	e8 00 00 00 00	 call	 ?unlock_screen@@YGHPAUSCREEN@@@Z ; unlock_screen
$LN7@draw_exter:

; 1480 : 	}
; 1481 : 
; 1482 : 	set_active_screen (video_screen);

  003a2	a1 00 00 00 00	 mov	 eax, DWORD PTR ?video_screen@@3PAUSCREEN@@A ; video_screen
  003a7	50		 push	 eax
  003a8	e8 00 00 00 00	 call	 ?set_active_screen@@YGHPAUSCREEN@@@Z ; set_active_screen

; 1483 : 
; 1484 : 	////////////////////////////////////////
; 1485 : 	//
; 1486 : 	// render HUD to screen
; 1487 : 	//
; 1488 : 	////////////////////////////////////////
; 1489 : 
; 1490 : 	set_3d_active_environment (main_3d_env);

  003ad	a1 00 00 00 00	 mov	 eax, DWORD PTR ?main_3d_env@@3PAUENV_3D@@A ; main_3d_env
  003b2	50		 push	 eax
  003b3	e8 00 00 00 00	 call	 ?set_3d_active_environment@@YGXPAUENV_3D@@@Z ; set_3d_active_environment

; 1491 : 
; 1492 : 	if (begin_3d_scene ())

  003b8	e8 00 00 00 00	 call	 ?begin_3d_scene@@YGHXZ	; begin_3d_scene
  003bd	85 c0		 test	 eax, eax
  003bf	0f 84 a1 03 00
	00		 je	 $LN10@draw_exter

; 1493 : 	{
; 1494 : 		set_d3d_transparency_on ();

  003c5	e8 00 00 00 00	 call	 ?set_d3d_transparency_on@@YGXXZ ; set_d3d_transparency_on

; 1495 : 
; 1496 : 		set_d3d_zbuffer_comparison (FALSE);

  003ca	6a 00		 push	 0
  003cc	e8 00 00 00 00	 call	 ?set_d3d_zbuffer_comparison@@YGXH@Z ; set_d3d_zbuffer_comparison

; 1497 : 
; 1498 : 		set_d3d_culling (FALSE);

  003d1	6a 00		 push	 0
  003d3	e8 00 00 00 00	 call	 ?set_d3d_culling@@YGXH@Z ; set_d3d_culling

; 1499 : 
; 1500 : 		set_d3d_texture_wrapping (0, FALSE);

  003d8	6a 00		 push	 0
  003da	6a 00		 push	 0
  003dc	e8 00 00 00 00	 call	 ?set_d3d_texture_wrapping@@YGXHH@Z ; set_d3d_texture_wrapping

; 1501 : 
; 1502 : 		if ((application_video_width == 640) || (get_global_unscaled_displays ()))

  003e1	81 3d 00 00 00
	00 80 02 00 00	 cmp	 DWORD PTR ?application_video_width@@3HA, 640 ; application_video_width, 00000280H
  003eb	74 09		 je	 SHORT $LN13@draw_exter
  003ed	83 3d 74 03 00
	00 00		 cmp	 DWORD PTR ?global_options@@3UGLOBAL_OPTIONS_DATA@@A+884, 0
  003f4	74 17		 je	 SHORT $LN11@draw_exter
$LN13@draw_exter:

; 1503 : 		{
; 1504 : 			set_d3d_texture_mag_filtering (FALSE);

  003f6	6a 00		 push	 0
  003f8	e8 00 00 00 00	 call	 ?set_d3d_texture_mag_filtering@@YGXH@Z ; set_d3d_texture_mag_filtering

; 1505 : 			set_d3d_texture_min_filtering (FALSE);

  003fd	6a 00		 push	 0
  003ff	e8 00 00 00 00	 call	 ?set_d3d_texture_min_filtering@@YGXH@Z ; set_d3d_texture_min_filtering

; 1506 : 			set_d3d_texture_mip_filtering (FALSE);

  00404	6a 00		 push	 0
  00406	e8 00 00 00 00	 call	 ?set_d3d_texture_mip_filtering@@YGXH@Z ; set_d3d_texture_mip_filtering

; 1507 : 		}
; 1508 : 		else

  0040b	eb 15		 jmp	 SHORT $LN12@draw_exter
$LN11@draw_exter:

; 1509 : 		{
; 1510 : 			set_d3d_texture_mag_filtering (TRUE);

  0040d	6a 01		 push	 1
  0040f	e8 00 00 00 00	 call	 ?set_d3d_texture_mag_filtering@@YGXH@Z ; set_d3d_texture_mag_filtering

; 1511 : 			set_d3d_texture_min_filtering (TRUE);

  00414	6a 01		 push	 1
  00416	e8 00 00 00 00	 call	 ?set_d3d_texture_min_filtering@@YGXH@Z ; set_d3d_texture_min_filtering

; 1512 : 			set_d3d_texture_mip_filtering (FALSE);

  0041b	6a 00		 push	 0
  0041d	e8 00 00 00 00	 call	 ?set_d3d_texture_mip_filtering@@YGXH@Z ; set_d3d_texture_mip_filtering
$LN12@draw_exter:

; 1513 : 		}
; 1514 : 
; 1515 : 		set_d3d_flat_shaded_textured_renderstate (get_system_texture_ptr (TEXTURE_INDEX_AVCKPT_DISPLAY_LHS_MFD));

  00422	68 f8 00 00 00	 push	 248			; 000000f8H
  00427	e8 00 00 00 00	 call	 ?get_system_texture_ptr@@YGPAUSCREEN@@H@Z ; get_system_texture_ptr
  0042c	50		 push	 eax
  0042d	e8 00 00 00 00	 call	 ?set_d3d_flat_shaded_textured_renderstate@@YGXPAUSCREEN@@@Z ; set_d3d_flat_shaded_textured_renderstate

; 1516 : 
; 1517 : 		////////////////////////////////////////
; 1518 : 		//
; 1519 : 
; 1520 : 		colour.red				= hud_colour_table[get_global_hud_colour ()].r;

  00432	a1 10 00 00 00	 mov	 eax, DWORD PTR ?global_options@@3UGLOBAL_OPTIONS_DATA@@A+16
  00437	8a 0c 85 02 00
	00 00		 mov	 cl, BYTE PTR ?hud_colour_table@@3PAUREAL_COLOUR@@A[eax*4+2]
  0043e	88 8d fa fe ff
	ff		 mov	 BYTE PTR _colour$[ebp+2], cl

; 1521 : 		colour.green			= hud_colour_table[get_global_hud_colour ()].g;

  00444	a1 10 00 00 00	 mov	 eax, DWORD PTR ?global_options@@3UGLOBAL_OPTIONS_DATA@@A+16
  00449	8a 0c 85 01 00
	00 00		 mov	 cl, BYTE PTR ?hud_colour_table@@3PAUREAL_COLOUR@@A[eax*4+1]
  00450	88 8d f9 fe ff
	ff		 mov	 BYTE PTR _colour$[ebp+1], cl

; 1522 : 		colour.blue				= hud_colour_table[get_global_hud_colour ()].b;

  00456	a1 10 00 00 00	 mov	 eax, DWORD PTR ?global_options@@3UGLOBAL_OPTIONS_DATA@@A+16
  0045b	8a 0c 85 00 00
	00 00		 mov	 cl, BYTE PTR ?hud_colour_table@@3PAUREAL_COLOUR@@A[eax*4]
  00462	88 8d f8 fe ff
	ff		 mov	 BYTE PTR _colour$[ebp], cl

; 1523 : 		colour.alpha			= 255;

  00468	c6 85 fb fe ff
	ff ff		 mov	 BYTE PTR _colour$[ebp+3], 255 ; 000000ffH

; 1524 : 
; 1525 : 		specular.red			= 0;

  0046f	c6 85 f6 fe ff
	ff 00		 mov	 BYTE PTR _specular$[ebp+2], 0

; 1526 : 		specular.green			= 0;

  00476	c6 85 f5 fe ff
	ff 00		 mov	 BYTE PTR _specular$[ebp+1], 0

; 1527 : 		specular.blue			= 0;

  0047d	c6 85 f4 fe ff
	ff 00		 mov	 BYTE PTR _specular$[ebp], 0

; 1528 : 		specular.alpha			= 255;

  00484	c6 85 f7 fe ff
	ff ff		 mov	 BYTE PTR _specular$[ebp+3], 255 ; 000000ffH

; 1529 : 
; 1530 : 		quad[0].i				= hud_screen_x_min;

  0048b	b8 40 00 00 00	 mov	 eax, 64			; 00000040H
  00490	6b c8 00	 imul	 ecx, eax, 0
  00493	f3 0f 10 05 00
	00 00 00	 movss	 xmm0, DWORD PTR ?hud_screen_x_min@@3MA
  0049b	f3 0f 11 84 0d
	0c ff ff ff	 movss	 DWORD PTR _quad$[ebp+ecx+16], xmm0

; 1531 : 		quad[0].j				= hud_screen_y_min;

  004a4	b8 40 00 00 00	 mov	 eax, 64			; 00000040H
  004a9	6b c8 00	 imul	 ecx, eax, 0
  004ac	f3 0f 10 05 00
	00 00 00	 movss	 xmm0, DWORD PTR ?hud_screen_y_min@@3MA
  004b4	f3 0f 11 84 0d
	10 ff ff ff	 movss	 DWORD PTR _quad$[ebp+ecx+20], xmm0

; 1532 : 		quad[0].z				= 0.5;

  004bd	b8 40 00 00 00	 mov	 eax, 64			; 00000040H
  004c2	6b c8 00	 imul	 ecx, eax, 0
  004c5	f3 0f 10 05 00
	00 00 00	 movss	 xmm0, DWORD PTR __real@3f000000
  004cd	f3 0f 11 84 0d
	04 ff ff ff	 movss	 DWORD PTR _quad$[ebp+ecx+8], xmm0

; 1533 : 		quad[0].q				= 0.5;

  004d6	b8 40 00 00 00	 mov	 eax, 64			; 00000040H
  004db	6b c8 00	 imul	 ecx, eax, 0
  004de	f3 0f 10 05 00
	00 00 00	 movss	 xmm0, DWORD PTR __real@3f000000
  004e6	f3 0f 11 84 0d
	08 ff ff ff	 movss	 DWORD PTR _quad$[ebp+ecx+12], xmm0

; 1534 : 		quad[0].u				= 0.0;

  004ef	b8 40 00 00 00	 mov	 eax, 64			; 00000040H
  004f4	6b c8 00	 imul	 ecx, eax, 0
  004f7	0f 57 c0	 xorps	 xmm0, xmm0
  004fa	f3 0f 11 84 0d
	14 ff ff ff	 movss	 DWORD PTR _quad$[ebp+ecx+24], xmm0

; 1535 : 		quad[0].v				= 0.0;

  00503	b8 40 00 00 00	 mov	 eax, 64			; 00000040H
  00508	6b c8 00	 imul	 ecx, eax, 0
  0050b	0f 57 c0	 xorps	 xmm0, xmm0
  0050e	f3 0f 11 84 0d
	18 ff ff ff	 movss	 DWORD PTR _quad$[ebp+ecx+28], xmm0

; 1536 : 
; 1537 : 		quad[1].i				= hud_screen_x_max;

  00517	b8 40 00 00 00	 mov	 eax, 64			; 00000040H
  0051c	c1 e0 00	 shl	 eax, 0
  0051f	f3 0f 10 05 00
	00 00 00	 movss	 xmm0, DWORD PTR ?hud_screen_x_max@@3MA
  00527	f3 0f 11 84 05
	0c ff ff ff	 movss	 DWORD PTR _quad$[ebp+eax+16], xmm0

; 1538 : 		quad[1].j				= hud_screen_y_min;

  00530	b8 40 00 00 00	 mov	 eax, 64			; 00000040H
  00535	c1 e0 00	 shl	 eax, 0
  00538	f3 0f 10 05 00
	00 00 00	 movss	 xmm0, DWORD PTR ?hud_screen_y_min@@3MA
  00540	f3 0f 11 84 05
	10 ff ff ff	 movss	 DWORD PTR _quad$[ebp+eax+20], xmm0

; 1539 : 		quad[1].z				= 0.5;

  00549	b8 40 00 00 00	 mov	 eax, 64			; 00000040H
  0054e	c1 e0 00	 shl	 eax, 0
  00551	f3 0f 10 05 00
	00 00 00	 movss	 xmm0, DWORD PTR __real@3f000000
  00559	f3 0f 11 84 05
	04 ff ff ff	 movss	 DWORD PTR _quad$[ebp+eax+8], xmm0

; 1540 : 		quad[1].q				= 0.5;

  00562	b8 40 00 00 00	 mov	 eax, 64			; 00000040H
  00567	c1 e0 00	 shl	 eax, 0
  0056a	f3 0f 10 05 00
	00 00 00	 movss	 xmm0, DWORD PTR __real@3f000000
  00572	f3 0f 11 84 05
	08 ff ff ff	 movss	 DWORD PTR _quad$[ebp+eax+12], xmm0

; 1541 : 		quad[1].u				= 1.0;

  0057b	b8 40 00 00 00	 mov	 eax, 64			; 00000040H
  00580	c1 e0 00	 shl	 eax, 0
  00583	f3 0f 10 05 00
	00 00 00	 movss	 xmm0, DWORD PTR __real@3f800000
  0058b	f3 0f 11 84 05
	14 ff ff ff	 movss	 DWORD PTR _quad$[ebp+eax+24], xmm0

; 1542 : 		quad[1].v				= 0.0;

  00594	b8 40 00 00 00	 mov	 eax, 64			; 00000040H
  00599	c1 e0 00	 shl	 eax, 0
  0059c	0f 57 c0	 xorps	 xmm0, xmm0
  0059f	f3 0f 11 84 05
	18 ff ff ff	 movss	 DWORD PTR _quad$[ebp+eax+28], xmm0

; 1543 : 
; 1544 : 		quad[2].i				= hud_screen_x_max;

  005a8	b8 40 00 00 00	 mov	 eax, 64			; 00000040H
  005ad	d1 e0		 shl	 eax, 1
  005af	f3 0f 10 05 00
	00 00 00	 movss	 xmm0, DWORD PTR ?hud_screen_x_max@@3MA
  005b7	f3 0f 11 84 05
	0c ff ff ff	 movss	 DWORD PTR _quad$[ebp+eax+16], xmm0

; 1545 : 		quad[2].j				= hud_screen_y_max;

  005c0	b8 40 00 00 00	 mov	 eax, 64			; 00000040H
  005c5	d1 e0		 shl	 eax, 1
  005c7	f3 0f 10 05 00
	00 00 00	 movss	 xmm0, DWORD PTR ?hud_screen_y_max@@3MA
  005cf	f3 0f 11 84 05
	10 ff ff ff	 movss	 DWORD PTR _quad$[ebp+eax+20], xmm0

; 1546 : 		quad[2].z				= 0.5;

  005d8	b8 40 00 00 00	 mov	 eax, 64			; 00000040H
  005dd	d1 e0		 shl	 eax, 1
  005df	f3 0f 10 05 00
	00 00 00	 movss	 xmm0, DWORD PTR __real@3f000000
  005e7	f3 0f 11 84 05
	04 ff ff ff	 movss	 DWORD PTR _quad$[ebp+eax+8], xmm0

; 1547 : 		quad[2].q				= 0.5;

  005f0	b8 40 00 00 00	 mov	 eax, 64			; 00000040H
  005f5	d1 e0		 shl	 eax, 1
  005f7	f3 0f 10 05 00
	00 00 00	 movss	 xmm0, DWORD PTR __real@3f000000
  005ff	f3 0f 11 84 05
	08 ff ff ff	 movss	 DWORD PTR _quad$[ebp+eax+12], xmm0

; 1548 : 		quad[2].u				= 1.0;

  00608	b8 40 00 00 00	 mov	 eax, 64			; 00000040H
  0060d	d1 e0		 shl	 eax, 1
  0060f	f3 0f 10 05 00
	00 00 00	 movss	 xmm0, DWORD PTR __real@3f800000
  00617	f3 0f 11 84 05
	14 ff ff ff	 movss	 DWORD PTR _quad$[ebp+eax+24], xmm0

; 1549 : 		quad[2].v				= 1.0;

  00620	b8 40 00 00 00	 mov	 eax, 64			; 00000040H
  00625	d1 e0		 shl	 eax, 1
  00627	f3 0f 10 05 00
	00 00 00	 movss	 xmm0, DWORD PTR __real@3f800000
  0062f	f3 0f 11 84 05
	18 ff ff ff	 movss	 DWORD PTR _quad$[ebp+eax+28], xmm0

; 1550 : 
; 1551 : 		quad[3].i				= hud_screen_x_min;

  00638	b8 40 00 00 00	 mov	 eax, 64			; 00000040H
  0063d	6b c8 03	 imul	 ecx, eax, 3
  00640	f3 0f 10 05 00
	00 00 00	 movss	 xmm0, DWORD PTR ?hud_screen_x_min@@3MA
  00648	f3 0f 11 84 0d
	0c ff ff ff	 movss	 DWORD PTR _quad$[ebp+ecx+16], xmm0

; 1552 : 		quad[3].j				= hud_screen_y_max;

  00651	b8 40 00 00 00	 mov	 eax, 64			; 00000040H
  00656	6b c8 03	 imul	 ecx, eax, 3
  00659	f3 0f 10 05 00
	00 00 00	 movss	 xmm0, DWORD PTR ?hud_screen_y_max@@3MA
  00661	f3 0f 11 84 0d
	10 ff ff ff	 movss	 DWORD PTR _quad$[ebp+ecx+20], xmm0

; 1553 : 		quad[3].z				= 0.5;

  0066a	b8 40 00 00 00	 mov	 eax, 64			; 00000040H
  0066f	6b c8 03	 imul	 ecx, eax, 3
  00672	f3 0f 10 05 00
	00 00 00	 movss	 xmm0, DWORD PTR __real@3f000000
  0067a	f3 0f 11 84 0d
	04 ff ff ff	 movss	 DWORD PTR _quad$[ebp+ecx+8], xmm0

; 1554 : 		quad[3].q				= 0.5;

  00683	b8 40 00 00 00	 mov	 eax, 64			; 00000040H
  00688	6b c8 03	 imul	 ecx, eax, 3
  0068b	f3 0f 10 05 00
	00 00 00	 movss	 xmm0, DWORD PTR __real@3f000000
  00693	f3 0f 11 84 0d
	08 ff ff ff	 movss	 DWORD PTR _quad$[ebp+ecx+12], xmm0

; 1555 : 		quad[3].u				= 0.0;

  0069c	b8 40 00 00 00	 mov	 eax, 64			; 00000040H
  006a1	6b c8 03	 imul	 ecx, eax, 3
  006a4	0f 57 c0	 xorps	 xmm0, xmm0
  006a7	f3 0f 11 84 0d
	14 ff ff ff	 movss	 DWORD PTR _quad$[ebp+ecx+24], xmm0

; 1556 : 		quad[3].v				= 1.0;

  006b0	b8 40 00 00 00	 mov	 eax, 64			; 00000040H
  006b5	6b c8 03	 imul	 ecx, eax, 3
  006b8	f3 0f 10 05 00
	00 00 00	 movss	 xmm0, DWORD PTR __real@3f800000
  006c0	f3 0f 11 84 0d
	18 ff ff ff	 movss	 DWORD PTR _quad$[ebp+ecx+28], xmm0

; 1557 : 
; 1558 : 		quad[0].next_vertex 	= &quad[1];

  006c9	b8 40 00 00 00	 mov	 eax, 64			; 00000040H
  006ce	c1 e0 00	 shl	 eax, 0
  006d1	8d 8c 05 fc fe
	ff ff		 lea	 ecx, DWORD PTR _quad$[ebp+eax]
  006d8	ba 40 00 00 00	 mov	 edx, 64			; 00000040H
  006dd	6b c2 00	 imul	 eax, edx, 0
  006e0	89 8c 05 24 ff
	ff ff		 mov	 DWORD PTR _quad$[ebp+eax+40], ecx

; 1559 : 		quad[1].next_vertex 	= &quad[2];

  006e7	b8 40 00 00 00	 mov	 eax, 64			; 00000040H
  006ec	d1 e0		 shl	 eax, 1
  006ee	8d 8c 05 fc fe
	ff ff		 lea	 ecx, DWORD PTR _quad$[ebp+eax]
  006f5	ba 40 00 00 00	 mov	 edx, 64			; 00000040H
  006fa	c1 e2 00	 shl	 edx, 0
  006fd	89 8c 15 24 ff
	ff ff		 mov	 DWORD PTR _quad$[ebp+edx+40], ecx

; 1560 : 		quad[2].next_vertex 	= &quad[3];

  00704	b8 40 00 00 00	 mov	 eax, 64			; 00000040H
  00709	6b c8 03	 imul	 ecx, eax, 3
  0070c	8d 94 0d fc fe
	ff ff		 lea	 edx, DWORD PTR _quad$[ebp+ecx]
  00713	b8 40 00 00 00	 mov	 eax, 64			; 00000040H
  00718	d1 e0		 shl	 eax, 1
  0071a	89 94 05 24 ff
	ff ff		 mov	 DWORD PTR _quad$[ebp+eax+40], edx

; 1561 : 		quad[3].next_vertex 	= NULL;

  00721	b8 40 00 00 00	 mov	 eax, 64			; 00000040H
  00726	6b c8 03	 imul	 ecx, eax, 3
  00729	c7 84 0d 24 ff
	ff ff 00 00 00
	00		 mov	 DWORD PTR _quad$[ebp+ecx+40], 0

; 1562 : 
; 1563 : 		//
; 1564 : 		////////////////////////////////////////
; 1565 : 
; 1566 : 		draw_wbuffered_flat_shaded_textured_polygon (quad, colour, specular);

  00734	8b 85 f4 fe ff
	ff		 mov	 eax, DWORD PTR _specular$[ebp]
  0073a	50		 push	 eax
  0073b	8b 8d f8 fe ff
	ff		 mov	 ecx, DWORD PTR _colour$[ebp]
  00741	51		 push	 ecx
  00742	8d 95 fc fe ff
	ff		 lea	 edx, DWORD PTR _quad$[ebp]
  00748	52		 push	 edx
  00749	e8 00 00 00 00	 call	 ?draw_wbuffered_flat_shaded_textured_polygon@@YGXPAUVERTEX@@UREAL_COLOUR@@1@Z ; draw_wbuffered_flat_shaded_textured_polygon

; 1567 : 
; 1568 : 		set_d3d_transparency_off ();

  0074e	e8 00 00 00 00	 call	 ?set_d3d_transparency_off@@YGXXZ ; set_d3d_transparency_off

; 1569 : 
; 1570 : 		set_d3d_zbuffer_comparison (TRUE);

  00753	6a 01		 push	 1
  00755	e8 00 00 00 00	 call	 ?set_d3d_zbuffer_comparison@@YGXH@Z ; set_d3d_zbuffer_comparison

; 1571 : 
; 1572 : 		set_d3d_culling (TRUE);

  0075a	6a 01		 push	 1
  0075c	e8 00 00 00 00	 call	 ?set_d3d_culling@@YGXH@Z ; set_d3d_culling

; 1573 : 
; 1574 : 		end_3d_scene ();

  00761	e8 00 00 00 00	 call	 ?end_3d_scene@@YGXXZ	; end_3d_scene
$LN10@draw_exter:
$LN1@draw_exter:

; 1575 : 	}
; 1576 : }

  00766	5f		 pop	 edi
  00767	5e		 pop	 esi
  00768	5b		 pop	 ebx
  00769	8b e5		 mov	 esp, ebp
  0076b	5d		 pop	 ebp
  0076c	c3		 ret	 0
?draw_external_hokum_hud@@YGXXZ ENDP			; draw_external_hokum_hud
_TEXT	ENDS
; Function compile flags: /Odtp /ZI
; File c:\users\nhv90\projects\eech\aphavoc\source\gunships\avionics\hokum\hk_hud.c
;	COMDAT ?draw_hokum_hud@@YGXXZ
_TEXT	SEGMENT
tv209 = -148						; size = 4
tv75 = -148						; size = 4
_clear_hud_colour$1 = -80				; size = 4
_head_offset_y$2 = -76					; size = 4
_head_offset_x$3 = -72					; size = 4
_x_offset$4 = -68					; size = 4
_y_offset$5 = -64					; size = 4
_search$6 = -60						; size = 56
_draw_hud_on_glass$ = -4				; size = 4
?draw_hokum_hud@@YGXXZ PROC				; draw_hokum_hud, COMDAT

; 1146 : {

  00000	55		 push	 ebp
  00001	8b ec		 mov	 ebp, esp
  00003	81 ec 94 00 00
	00		 sub	 esp, 148		; 00000094H
  00009	53		 push	 ebx
  0000a	56		 push	 esi
  0000b	57		 push	 edi

; 1147 : 	int
; 1148 : 		draw_hud_on_glass;
; 1149 : 
; 1150 : 	////////////////////////////////////////
; 1151 : 	//
; 1152 : 	// if viewing from the pilot's head then draw a 'projected'
; 1153 : 	// HUD else draw the HUD actually on the glass for effect
; 1154 : 	//
; 1155 : 	////////////////////////////////////////
; 1156 : 
; 1157 : 	{
; 1158 : 		object_3d_sub_object_search_data
; 1159 : 			search;
; 1160 : 
; 1161 : 		draw_hud_on_glass = TRUE;

  0000c	c7 45 fc 01 00
	00 00		 mov	 DWORD PTR _draw_hud_on_glass$[ebp], 1

; 1162 : 
; 1163 : 		if (get_crew_role () == CREW_ROLE_PILOT)

  00013	e8 00 00 00 00	 call	 ?get_crew_role@@YG?AW4CREW_ROLES@@XZ ; get_crew_role
  00018	85 c0		 test	 eax, eax
  0001a	75 2b		 jne	 SHORT $LN5@draw_hokum

; 1164 : 		{
; 1165 : 			if
; 1166 : 			(
; 1167 : 				(get_view_mode () == VIEW_MODE_VIRTUAL_COCKPIT) ||
; 1168 : 				(get_view_mode () == VIEW_MODE_VIRTUAL_COCKPIT_PADLOCK) ||
; 1169 : 				(get_view_mode () == VIEW_MODE_VIRTUAL_COCKPIT_TRACK_TARGET) ||

  0001c	83 3d 00 00 00
	00 20		 cmp	 DWORD PTR ?view_mode@@3W4VIEW_MODES@@A, 32 ; view_mode, 00000020H
  00023	74 1b		 je	 SHORT $LN6@draw_hokum
  00025	83 3d 00 00 00
	00 21		 cmp	 DWORD PTR ?view_mode@@3W4VIEW_MODES@@A, 33 ; view_mode, 00000021H
  0002c	74 12		 je	 SHORT $LN6@draw_hokum
  0002e	83 3d 00 00 00
	00 22		 cmp	 DWORD PTR ?view_mode@@3W4VIEW_MODES@@A, 34 ; view_mode, 00000022H
  00035	74 09		 je	 SHORT $LN6@draw_hokum
  00037	83 3d 00 00 00
	00 24		 cmp	 DWORD PTR ?view_mode@@3W4VIEW_MODES@@A, 36 ; view_mode, 00000024H
  0003e	75 07		 jne	 SHORT $LN5@draw_hokum
$LN6@draw_hokum:

; 1170 : 				(get_view_mode () == VIEW_MODE_VIRTUAL_COCKPIT_HUD)
; 1171 : 			)
; 1172 : 			{
; 1173 : 				draw_hud_on_glass = FALSE;

  00040	c7 45 fc 00 00
	00 00		 mov	 DWORD PTR _draw_hud_on_glass$[ebp], 0
$LN5@draw_hokum:

; 1174 : 			}
; 1175 : 		}
; 1176 : 
; 1177 : 		search.search_depth = 0;

  00047	c7 45 cc 00 00
	00 00		 mov	 DWORD PTR _search$6[ebp+8], 0

; 1178 : 		search.search_object = virtual_cockpit_inst3d;

  0004e	a1 00 00 00 00	 mov	 eax, DWORD PTR ?virtual_cockpit_inst3d@@3PAUOBJECT_3D_INSTANCE@@A ; virtual_cockpit_inst3d
  00053	89 45 c4	 mov	 DWORD PTR _search$6[ebp], eax

; 1179 : 		search.sub_object_index = OBJECT_3D_SUB_OBJECT_HAVOC_COCKPIT_HUD_DISPLAY;

  00056	c7 45 d0 ce 00
	00 00		 mov	 DWORD PTR _search$6[ebp+12], 206 ; 000000ceH

; 1180 : 
; 1181 : 		if (find_object_3d_sub_object (&search) == SUB_OBJECT_SEARCH_RESULT_OBJECT_FOUND)

  0005d	8d 45 c4	 lea	 eax, DWORD PTR _search$6[ebp]
  00060	50		 push	 eax
  00061	e8 00 00 00 00	 call	 ?find_object_3d_sub_object@@YG?AW4SUB_OBJECT_SEARCH_RESULT_TYPES@@PAUOBJECT_3D_SUB_OBJECT_SEARCH_DATA@@@Z ; find_object_3d_sub_object
  00066	83 f8 01	 cmp	 eax, 1
  00069	75 36		 jne	 SHORT $LN7@draw_hokum

; 1182 : 		{
; 1183 : 			search.result_sub_object->visible_object = !draw_hud_on_glass;

  0006b	83 7d fc 00	 cmp	 DWORD PTR _draw_hud_on_glass$[ebp], 0
  0006f	75 0c		 jne	 SHORT $LN20@draw_hokum
  00071	c7 85 6c ff ff
	ff 01 00 00 00	 mov	 DWORD PTR tv75[ebp], 1
  0007b	eb 0a		 jmp	 SHORT $LN21@draw_hokum
$LN20@draw_hokum:
  0007d	c7 85 6c ff ff
	ff 00 00 00 00	 mov	 DWORD PTR tv75[ebp], 0
$LN21@draw_hokum:
  00087	8b 85 6c ff ff
	ff		 mov	 eax, DWORD PTR tv75[ebp]
  0008d	83 e0 01	 and	 eax, 1
  00090	8b 4d c8	 mov	 ecx, DWORD PTR _search$6[ebp+4]
  00093	8b 51 08	 mov	 edx, DWORD PTR [ecx+8]
  00096	83 e2 fe	 and	 edx, -2			; fffffffeH
  00099	0b d0		 or	 edx, eax
  0009b	8b 45 c8	 mov	 eax, DWORD PTR _search$6[ebp+4]
  0009e	89 50 08	 mov	 DWORD PTR [eax+8], edx
$LN7@draw_hokum:

; 1184 : 		}
; 1185 : 
; 1186 : 		search.search_depth = 0;

  000a1	c7 45 cc 00 00
	00 00		 mov	 DWORD PTR _search$6[ebp+8], 0

; 1187 : 		search.search_object = virtual_cockpit_inst3d;

  000a8	a1 00 00 00 00	 mov	 eax, DWORD PTR ?virtual_cockpit_inst3d@@3PAUOBJECT_3D_INSTANCE@@A ; virtual_cockpit_inst3d
  000ad	89 45 c4	 mov	 DWORD PTR _search$6[ebp], eax

; 1188 : 		search.sub_object_index = OBJECT_3D_SUB_OBJECT_HAVOC_COCKPIT_HUD_EFFECT;

  000b0	c7 45 d0 cf 00
	00 00		 mov	 DWORD PTR _search$6[ebp+12], 207 ; 000000cfH

; 1189 : 
; 1190 : 		if (find_object_3d_sub_object (&search) == SUB_OBJECT_SEARCH_RESULT_OBJECT_FOUND)

  000b7	8d 45 c4	 lea	 eax, DWORD PTR _search$6[ebp]
  000ba	50		 push	 eax
  000bb	e8 00 00 00 00	 call	 ?find_object_3d_sub_object@@YG?AW4SUB_OBJECT_SEARCH_RESULT_TYPES@@PAUOBJECT_3D_SUB_OBJECT_SEARCH_DATA@@@Z ; find_object_3d_sub_object
  000c0	83 f8 01	 cmp	 eax, 1
  000c3	75 17		 jne	 SHORT $LN8@draw_hokum

; 1191 : 		{
; 1192 : 			search.result_sub_object->visible_object = draw_hud_on_glass;

  000c5	8b 45 fc	 mov	 eax, DWORD PTR _draw_hud_on_glass$[ebp]
  000c8	83 e0 01	 and	 eax, 1
  000cb	8b 4d c8	 mov	 ecx, DWORD PTR _search$6[ebp+4]
  000ce	8b 51 08	 mov	 edx, DWORD PTR [ecx+8]
  000d1	83 e2 fe	 and	 edx, -2			; fffffffeH
  000d4	0b d0		 or	 edx, eax
  000d6	8b 45 c8	 mov	 eax, DWORD PTR _search$6[ebp+4]
  000d9	89 50 08	 mov	 DWORD PTR [eax+8], edx
$LN8@draw_hokum:

; 1193 : 		}
; 1194 : 	}
; 1195 : 
; 1196 : 	////////////////////////////////////////
; 1197 : 	//
; 1198 : 	// set active 3D environment now else 2D clipping will be affected
; 1199 : 	//
; 1200 : 	////////////////////////////////////////
; 1201 : 
; 1202 : 	set_main_3d_full_screen_params (DISPLAY_3D_TINT_CLEAR, DISPLAY_3D_LIGHT_LEVEL_HIGH, DISPLAY_3D_NOISE_LEVEL_NONE);

  000dc	6a 00		 push	 0
  000de	6a 02		 push	 2
  000e0	6a 00		 push	 0
  000e2	e8 00 00 00 00	 call	 ?set_main_3d_full_screen_params@@YGXW4DISPLAY_3D_TINTS@@W4DISPLAY_3D_LIGHT_LEVELS@@W4DISPLAY_3D_NOISE_LEVELS@@@Z ; set_main_3d_full_screen_params

; 1203 : 
; 1204 : 	set_3d_active_environment (main_3d_env);

  000e7	a1 00 00 00 00	 mov	 eax, DWORD PTR ?main_3d_env@@3PAUENV_3D@@A ; main_3d_env
  000ec	50		 push	 eax
  000ed	e8 00 00 00 00	 call	 ?set_3d_active_environment@@YGXPAUENV_3D@@@Z ; set_3d_active_environment

; 1205 : 
; 1206 : 	////////////////////////////////////////
; 1207 : 	//
; 1208 : 	// set up HUD 2D environment
; 1209 : 	//
; 1210 : 	////////////////////////////////////////
; 1211 : 
; 1212 : 	set_2d_active_environment (hud_env);

  000f2	a1 00 00 00 00	 mov	 eax, DWORD PTR ?hud_env@@3PAUENV_2D@@A
  000f7	50		 push	 eax
  000f8	e8 00 00 00 00	 call	 ?set_2d_active_environment@@YGXPAUENV_2D@@@Z ; set_2d_active_environment

; 1213 : 	set_2d_window (hud_env, HUD_WINDOW_X_MIN, HUD_WINDOW_Y_MIN, HUD_WINDOW_X_MAX, HUD_WINDOW_Y_MAX);

  000fd	51		 push	 ecx
  000fe	f3 0f 10 05 00
	00 00 00	 movss	 xmm0, DWORD PTR __real@3f7fbe77
  00106	f3 0f 11 04 24	 movss	 DWORD PTR [esp], xmm0
  0010b	51		 push	 ecx
  0010c	f3 0f 10 05 00
	00 00 00	 movss	 xmm0, DWORD PTR __real@3f7fbe77
  00114	f3 0f 11 04 24	 movss	 DWORD PTR [esp], xmm0
  00119	51		 push	 ecx
  0011a	f3 0f 10 05 00
	00 00 00	 movss	 xmm0, DWORD PTR __real@bf800000
  00122	f3 0f 11 04 24	 movss	 DWORD PTR [esp], xmm0
  00127	51		 push	 ecx
  00128	f3 0f 10 05 00
	00 00 00	 movss	 xmm0, DWORD PTR __real@bf800000
  00130	f3 0f 11 04 24	 movss	 DWORD PTR [esp], xmm0
  00135	a1 00 00 00 00	 mov	 eax, DWORD PTR ?hud_env@@3PAUENV_2D@@A
  0013a	50		 push	 eax
  0013b	e8 00 00 00 00	 call	 ?set_2d_window@@YGXPAUENV_2D@@MMMM@Z ; set_2d_window

; 1214 : 	draw_large_hud = FALSE;

  00140	c7 05 00 00 00
	00 00 00 00 00	 mov	 DWORD PTR ?draw_large_hud@@3HA, 0

; 1215 : 	
; 1216 : 	if (!draw_hud_on_glass)

  0014a	83 7d fc 00	 cmp	 DWORD PTR _draw_hud_on_glass$[ebp], 0
  0014e	0f 85 d0 00 00
	00		 jne	 $LN9@draw_hokum

; 1217 : 	{
; 1218 : 		// move HUD coordinate system with head movements to simulate the collimation effect (focus on infinity)
; 1219 : 		float y_offset, x_offset;
; 1220 : 		float head_offset_x = 0.0, head_offset_y = 0.0;

  00154	0f 57 c0	 xorps	 xmm0, xmm0
  00157	f3 0f 11 45 b8	 movss	 DWORD PTR _head_offset_x$3[ebp], xmm0
  0015c	0f 57 c0	 xorps	 xmm0, xmm0
  0015f	f3 0f 11 45 b4	 movss	 DWORD PTR _head_offset_y$2[ebp], xmm0

; 1221 : 
; 1222 : 		head_offset_x = getViewpointOffsetX(head_offset_x);

  00164	51		 push	 ecx
  00165	f3 0f 10 45 b8	 movss	 xmm0, DWORD PTR _head_offset_x$3[ebp]
  0016a	f3 0f 11 04 24	 movss	 DWORD PTR [esp], xmm0
  0016f	e8 00 00 00 00	 call	 ?getViewpointOffsetX@@YGMM@Z ; getViewpointOffsetX
  00174	d9 5d b8	 fstp	 DWORD PTR _head_offset_x$3[ebp]

; 1223 : 		head_offset_y = getViewpointOffsetY(head_offset_y);

  00177	51		 push	 ecx
  00178	f3 0f 10 45 b4	 movss	 xmm0, DWORD PTR _head_offset_y$2[ebp]
  0017d	f3 0f 11 04 24	 movss	 DWORD PTR [esp], xmm0
  00182	e8 00 00 00 00	 call	 ?getViewpointOffsetY@@YGMM@Z ; getViewpointOffsetY
  00187	d9 5d b4	 fstp	 DWORD PTR _head_offset_y$2[ebp]

; 1224 : 		
; 1225 : 		if (get_global_wide_cockpit())

  0018a	83 3d 00 00 00
	00 00		 cmp	 DWORD PTR ?wide_cockpit@@3HA, 0 ; wide_cockpit
  00191	74 42		 je	 SHORT $LN11@draw_hokum

; 1226 : 		{
; 1227 : 			head_offset_x += wide_cockpit_position[WIDEVIEW_HOKUM_PILOT].c.x;

  00193	b8 24 00 00 00	 mov	 eax, 36			; 00000024H
  00198	d1 e0		 shl	 eax, 1
  0019a	f3 0f 10 45 b8	 movss	 xmm0, DWORD PTR _head_offset_x$3[ebp]
  0019f	f3 0f 58 80 14
	00 00 00	 addss	 xmm0, DWORD PTR ?wide_cockpit_position@@3PAUCOCKPIT_POSITION@@A[eax+20]
  001a7	f3 0f 11 45 b8	 movss	 DWORD PTR _head_offset_x$3[ebp], xmm0

; 1228 : 			head_offset_y += wide_cockpit_position[WIDEVIEW_HOKUM_PILOT].c.y - 0.04;

  001ac	b8 24 00 00 00	 mov	 eax, 36			; 00000024H
  001b1	d1 e0		 shl	 eax, 1
  001b3	f3 0f 5a 80 18
	00 00 00	 cvtss2sd xmm0, DWORD PTR ?wide_cockpit_position@@3PAUCOCKPIT_POSITION@@A[eax+24]
  001bb	f2 0f 5c 05 00
	00 00 00	 subsd	 xmm0, QWORD PTR __real@3fa47ae147ae147b
  001c3	f3 0f 5a 4d b4	 cvtss2sd xmm1, DWORD PTR _head_offset_y$2[ebp]
  001c8	f2 0f 58 c8	 addsd	 xmm1, xmm0
  001cc	f2 0f 5a c1	 cvtsd2ss xmm0, xmm1
  001d0	f3 0f 11 45 b4	 movss	 DWORD PTR _head_offset_y$2[ebp], xmm0
$LN11@draw_hokum:

; 1229 : 		}
; 1230 : 
; 1231 : 		x_offset = head_offset_x * -HUD_UNIT_RATIO;

  001d5	f3 0f 5a 45 b8	 cvtss2sd xmm0, DWORD PTR _head_offset_x$3[ebp]
  001da	f2 0f 59 05 00
	00 00 00	 mulsd	 xmm0, QWORD PTR __real@c02819999999999a
  001e2	f2 0f 5a c0	 cvtsd2ss xmm0, xmm0
  001e6	f3 0f 11 45 bc	 movss	 DWORD PTR _x_offset$4[ebp], xmm0

; 1232 : 		y_offset = head_offset_y * -HUD_UNIT_RATIO;

  001eb	f3 0f 5a 45 b4	 cvtss2sd xmm0, DWORD PTR _head_offset_y$2[ebp]
  001f0	f2 0f 59 05 00
	00 00 00	 mulsd	 xmm0, QWORD PTR __real@c02819999999999a
  001f8	f2 0f 5a c0	 cvtsd2ss xmm0, xmm0
  001fc	f3 0f 11 45 c0	 movss	 DWORD PTR _y_offset$5[ebp], xmm0

; 1233 : 
; 1234 : 		set_2d_view_offset(hud_env, x_offset, y_offset);

  00201	51		 push	 ecx
  00202	f3 0f 10 45 c0	 movss	 xmm0, DWORD PTR _y_offset$5[ebp]
  00207	f3 0f 11 04 24	 movss	 DWORD PTR [esp], xmm0
  0020c	51		 push	 ecx
  0020d	f3 0f 10 45 bc	 movss	 xmm0, DWORD PTR _x_offset$4[ebp]
  00212	f3 0f 11 04 24	 movss	 DWORD PTR [esp], xmm0
  00217	a1 00 00 00 00	 mov	 eax, DWORD PTR ?hud_env@@3PAUENV_2D@@A
  0021c	50		 push	 eax
  0021d	e8 00 00 00 00	 call	 ?set_2d_view_offset@@YGXPAUENV_2D@@MM@Z ; set_2d_view_offset

; 1235 : 	}
; 1236 : 	else

  00222	eb 0b		 jmp	 SHORT $LN10@draw_hokum
$LN9@draw_hokum:

; 1237 : 		reset_2d_view_offset(hud_env);

  00224	a1 00 00 00 00	 mov	 eax, DWORD PTR ?hud_env@@3PAUENV_2D@@A
  00229	50		 push	 eax
  0022a	e8 00 00 00 00	 call	 ?reset_2d_view_offset@@YGXPAUENV_2D@@@Z ; reset_2d_view_offset
$LN10@draw_hokum:

; 1238 : 
; 1239 : 	ASSERT(hud_texture_screen);

  0022f	83 3d 00 00 00
	00 00		 cmp	 DWORD PTR ?hud_texture_screen@@3PAUSCREEN@@A, 0
  00236	75 18		 jne	 SHORT $LN12@draw_hokum
  00238	a1 00 00 00 00	 mov	 eax, DWORD PTR ?__LINE__Var@?0??draw_hokum_hud@@YGXXZ@4JA
  0023d	83 c0 5d	 add	 eax, 93			; 0000005dH
  00240	50		 push	 eax
  00241	68 00 00 00 00	 push	 OFFSET ??_C@_0EN@DGOLIDKD@c?3?2users?2nhv90?2projects?2eech?2ap@
  00246	68 00 00 00 00	 push	 OFFSET ??_C@_0BD@OBKABCFL@hud_texture_screen@
  0024b	e8 00 00 00 00	 call	 ?process_assert@@YGXPBD0H@Z ; process_assert
$LN12@draw_hokum:

; 1240 : 	if (command_line_high_res_hud)

  00250	83 3d 00 00 00
	00 00		 cmp	 DWORD PTR ?command_line_high_res_hud@@3HA, 0 ; command_line_high_res_hud
  00257	74 26		 je	 SHORT $LN13@draw_hokum

; 1241 : 	{
; 1242 : 		hud_viewport_size = HUD_VIEWPORT_LARGE_SIZE;

  00259	f3 0f 10 05 00
	00 00 00	 movss	 xmm0, DWORD PTR __real@43800000
  00261	f3 0f 11 05 00
	00 00 00	 movss	 DWORD PTR ?hud_viewport_size@@3MA, xmm0

; 1243 : 		draw_large_hud = TRUE;

  00269	c7 05 00 00 00
	00 01 00 00 00	 mov	 DWORD PTR ?draw_large_hud@@3HA, 1

; 1244 : 		draw_line_func = draw_2d_half_thick_line;

  00273	c7 05 00 00 00
	00 00 00 00 00	 mov	 DWORD PTR ?draw_line_func@@3P6GXMMMMUREAL_COLOUR@@@ZA, OFFSET ?draw_2d_half_thick_line@@YGXMMMMUREAL_COLOUR@@@Z ; draw_2d_half_thick_line

; 1245 : 	}
; 1246 : 	else

  0027d	eb 24		 jmp	 SHORT $LN14@draw_hokum
$LN13@draw_hokum:

; 1247 : 	{
; 1248 : 		hud_viewport_size = HUD_VIEWPORT_SMALL_SIZE;

  0027f	f3 0f 10 05 00
	00 00 00	 movss	 xmm0, DWORD PTR __real@43000000
  00287	f3 0f 11 05 00
	00 00 00	 movss	 DWORD PTR ?hud_viewport_size@@3MA, xmm0

; 1249 : 		draw_large_hud = FALSE;

  0028f	c7 05 00 00 00
	00 00 00 00 00	 mov	 DWORD PTR ?draw_large_hud@@3HA, 0

; 1250 : 		draw_line_func = draw_2d_line;

  00299	c7 05 00 00 00
	00 00 00 00 00	 mov	 DWORD PTR ?draw_line_func@@3P6GXMMMMUREAL_COLOUR@@@ZA, OFFSET ?draw_2d_line@@YGXMMMMUREAL_COLOUR@@@Z ; draw_2d_line
$LN14@draw_hokum:

; 1251 : 	}
; 1252 : 
; 1253 : 	hud_viewport_x_org = hud_viewport_size * 0.5;

  002a3	f3 0f 5a 05 00
	00 00 00	 cvtss2sd xmm0, DWORD PTR ?hud_viewport_size@@3MA
  002ab	f2 0f 59 05 00
	00 00 00	 mulsd	 xmm0, QWORD PTR __real@3fe0000000000000
  002b3	f2 0f 5a c0	 cvtsd2ss xmm0, xmm0
  002b7	f3 0f 11 05 00
	00 00 00	 movss	 DWORD PTR ?hud_viewport_x_org@@3MA, xmm0

; 1254 : 
; 1255 : 	hud_viewport_y_org = hud_viewport_size * 0.5;

  002bf	f3 0f 5a 05 00
	00 00 00	 cvtss2sd xmm0, DWORD PTR ?hud_viewport_size@@3MA
  002c7	f2 0f 59 05 00
	00 00 00	 mulsd	 xmm0, QWORD PTR __real@3fe0000000000000
  002cf	f2 0f 5a c0	 cvtsd2ss xmm0, xmm0
  002d3	f3 0f 11 05 00
	00 00 00	 movss	 DWORD PTR ?hud_viewport_y_org@@3MA, xmm0

; 1256 : 
; 1257 : 	hud_viewport_x_min = 0.0;

  002db	0f 57 c0	 xorps	 xmm0, xmm0
  002de	f3 0f 11 05 00
	00 00 00	 movss	 DWORD PTR ?hud_viewport_x_min@@3MA, xmm0

; 1258 : 
; 1259 : 	hud_viewport_y_min = 0.0;

  002e6	0f 57 c0	 xorps	 xmm0, xmm0
  002e9	f3 0f 11 05 00
	00 00 00	 movss	 DWORD PTR ?hud_viewport_y_min@@3MA, xmm0

; 1260 : 
; 1261 : 	hud_viewport_x_max = hud_viewport_size - 0.001;

  002f1	f3 0f 5a 05 00
	00 00 00	 cvtss2sd xmm0, DWORD PTR ?hud_viewport_size@@3MA
  002f9	f2 0f 5c 05 00
	00 00 00	 subsd	 xmm0, QWORD PTR __real@3f50624dd2f1a9fc
  00301	f2 0f 5a c0	 cvtsd2ss xmm0, xmm0
  00305	f3 0f 11 05 00
	00 00 00	 movss	 DWORD PTR ?hud_viewport_x_max@@3MA, xmm0

; 1262 : 
; 1263 : 	hud_viewport_y_max = hud_viewport_size - 0.001;

  0030d	f3 0f 5a 05 00
	00 00 00	 cvtss2sd xmm0, DWORD PTR ?hud_viewport_size@@3MA
  00315	f2 0f 5c 05 00
	00 00 00	 subsd	 xmm0, QWORD PTR __real@3f50624dd2f1a9fc
  0031d	f2 0f 5a c0	 cvtsd2ss xmm0, xmm0
  00321	f3 0f 11 05 00
	00 00 00	 movss	 DWORD PTR ?hud_viewport_y_max@@3MA, xmm0

; 1264 : 
; 1265 : 	set_2d_viewport (hud_env, hud_viewport_x_min, hud_viewport_y_min, hud_viewport_x_max, hud_viewport_y_max);

  00329	51		 push	 ecx
  0032a	f3 0f 10 05 00
	00 00 00	 movss	 xmm0, DWORD PTR ?hud_viewport_y_max@@3MA
  00332	f3 0f 11 04 24	 movss	 DWORD PTR [esp], xmm0
  00337	51		 push	 ecx
  00338	f3 0f 10 05 00
	00 00 00	 movss	 xmm0, DWORD PTR ?hud_viewport_x_max@@3MA
  00340	f3 0f 11 04 24	 movss	 DWORD PTR [esp], xmm0
  00345	51		 push	 ecx
  00346	f3 0f 10 05 00
	00 00 00	 movss	 xmm0, DWORD PTR ?hud_viewport_y_min@@3MA
  0034e	f3 0f 11 04 24	 movss	 DWORD PTR [esp], xmm0
  00353	51		 push	 ecx
  00354	f3 0f 10 05 00
	00 00 00	 movss	 xmm0, DWORD PTR ?hud_viewport_x_min@@3MA
  0035c	f3 0f 11 04 24	 movss	 DWORD PTR [esp], xmm0
  00361	a1 00 00 00 00	 mov	 eax, DWORD PTR ?hud_env@@3PAUENV_2D@@A
  00366	50		 push	 eax
  00367	e8 00 00 00 00	 call	 ?set_2d_viewport@@YGXPAUENV_2D@@MMMM@Z ; set_2d_viewport

; 1266 : 
; 1267 : 	//
; 1268 : 	// get screen co-ords (this HUD texture is in the virtual cockpit and will scale itself)
; 1269 : 	//
; 1270 : 
; 1271 : 	hud_screen_x_min = 0.0;

  0036c	0f 57 c0	 xorps	 xmm0, xmm0
  0036f	f3 0f 11 05 00
	00 00 00	 movss	 DWORD PTR ?hud_screen_x_min@@3MA, xmm0

; 1272 : 	hud_screen_y_min = 0.0;

  00377	0f 57 c0	 xorps	 xmm0, xmm0
  0037a	f3 0f 11 05 00
	00 00 00	 movss	 DWORD PTR ?hud_screen_y_min@@3MA, xmm0

; 1273 : 
; 1274 : 	hud_screen_x_max = hud_viewport_size - 0.001;

  00382	f3 0f 5a 05 00
	00 00 00	 cvtss2sd xmm0, DWORD PTR ?hud_viewport_size@@3MA
  0038a	f2 0f 5c 05 00
	00 00 00	 subsd	 xmm0, QWORD PTR __real@3f50624dd2f1a9fc
  00392	f2 0f 5a c0	 cvtsd2ss xmm0, xmm0
  00396	f3 0f 11 05 00
	00 00 00	 movss	 DWORD PTR ?hud_screen_x_max@@3MA, xmm0

; 1275 : 	hud_screen_y_max = hud_viewport_size - 0.001;

  0039e	f3 0f 5a 05 00
	00 00 00	 cvtss2sd xmm0, DWORD PTR ?hud_viewport_size@@3MA
  003a6	f2 0f 5c 05 00
	00 00 00	 subsd	 xmm0, QWORD PTR __real@3f50624dd2f1a9fc
  003ae	f2 0f 5a c0	 cvtsd2ss xmm0, xmm0
  003b2	f3 0f 11 05 00
	00 00 00	 movss	 DWORD PTR ?hud_screen_y_max@@3MA, xmm0

; 1276 : 
; 1277 : 	hud_screen_x_scale = 1.0;

  003ba	f3 0f 10 05 00
	00 00 00	 movss	 xmm0, DWORD PTR __real@3f800000
  003c2	f3 0f 11 05 00
	00 00 00	 movss	 DWORD PTR ?hud_screen_x_scale@@3MA, xmm0

; 1278 : 	hud_screen_y_scale = 1.0;

  003ca	f3 0f 10 05 00
	00 00 00	 movss	 xmm0, DWORD PTR __real@3f800000
  003d2	f3 0f 11 05 00
	00 00 00	 movss	 DWORD PTR ?hud_screen_y_scale@@3MA, xmm0

; 1279 : 
; 1280 : 	////////////////////////////////////////
; 1281 : 	//
; 1282 : 	// draw HUD on texture
; 1283 : 	//
; 1284 : 	////////////////////////////////////////
; 1285 : 
; 1286 : 	set_active_screen (hud_texture_screen);

  003da	a1 00 00 00 00	 mov	 eax, DWORD PTR ?hud_texture_screen@@3PAUSCREEN@@A
  003df	50		 push	 eax
  003e0	e8 00 00 00 00	 call	 ?set_active_screen@@YGHPAUSCREEN@@@Z ; set_active_screen

; 1287 : 
; 1288 : 	if (lock_screen (hud_texture_screen))

  003e5	a1 00 00 00 00	 mov	 eax, DWORD PTR ?hud_texture_screen@@3PAUSCREEN@@A
  003ea	50		 push	 eax
  003eb	e8 00 00 00 00	 call	 ?lock_screen@@YGHPAUSCREEN@@@Z ; lock_screen
  003f0	85 c0		 test	 eax, eax
  003f2	0f 84 dd 00 00
	00		 je	 $LN15@draw_hokum

; 1289 : 	{
; 1290 : 		rgb_colour
; 1291 : 			clear_hud_colour;
; 1292 : 
; 1293 : 		set_rgb_colour (clear_hud_colour, hud_colour.r, hud_colour.g, hud_colour.b, 0);

  003f8	a0 02 00 00 00	 mov	 al, BYTE PTR ?hud_colour@@3UREAL_COLOUR@@A+2
  003fd	88 45 b2	 mov	 BYTE PTR _clear_hud_colour$1[ebp+2], al
  00400	a0 01 00 00 00	 mov	 al, BYTE PTR ?hud_colour@@3UREAL_COLOUR@@A+1
  00405	88 45 b1	 mov	 BYTE PTR _clear_hud_colour$1[ebp+1], al
  00408	a0 00 00 00 00	 mov	 al, BYTE PTR ?hud_colour@@3UREAL_COLOUR@@A
  0040d	88 45 b0	 mov	 BYTE PTR _clear_hud_colour$1[ebp], al
  00410	c6 45 b3 00	 mov	 BYTE PTR _clear_hud_colour$1[ebp+3], 0

; 1294 : 
; 1295 : 		set_block (0, 0, hud_viewport_size - 1, hud_viewport_size - 1, clear_hud_colour);

  00414	8b 45 b0	 mov	 eax, DWORD PTR _clear_hud_colour$1[ebp]
  00417	50		 push	 eax
  00418	f3 0f 10 05 00
	00 00 00	 movss	 xmm0, DWORD PTR ?hud_viewport_size@@3MA
  00420	f3 0f 5c 05 00
	00 00 00	 subss	 xmm0, DWORD PTR __real@3f800000
  00428	f3 0f 2c c8	 cvttss2si ecx, xmm0
  0042c	51		 push	 ecx
  0042d	f3 0f 10 05 00
	00 00 00	 movss	 xmm0, DWORD PTR ?hud_viewport_size@@3MA
  00435	f3 0f 5c 05 00
	00 00 00	 subss	 xmm0, DWORD PTR __real@3f800000
  0043d	f3 0f 2c d0	 cvttss2si edx, xmm0
  00441	52		 push	 edx
  00442	6a 00		 push	 0
  00444	6a 00		 push	 0
  00446	e8 00 00 00 00	 call	 ?set_block@@YGXHHHHUREAL_COLOUR@@@Z ; set_block

; 1296 : 
; 1297 : 		if (!draw_hud_on_glass && !hokum_damage.head_up_display && electrical_system_active())

  0044b	83 7d fc 00	 cmp	 DWORD PTR _draw_hud_on_glass$[ebp], 0
  0044f	75 6e		 jne	 SHORT $LN2@draw_hokum
  00451	a1 00 00 00 00	 mov	 eax, DWORD PTR ?hokum_damage@@3THOKUM_DAMAGE_FLAGS@@A ; hokum_damage
  00456	c1 e8 0e	 shr	 eax, 14			; 0000000eH
  00459	83 e0 01	 and	 eax, 1
  0045c	75 61		 jne	 SHORT $LN2@draw_hokum
  0045e	e8 00 00 00 00	 call	 ?electrical_system_active@@YGHXZ ; electrical_system_active
  00463	85 c0		 test	 eax, eax
  00465	74 58		 je	 SHORT $LN2@draw_hokum

; 1298 : 		{
; 1299 : 			set_mono_font_colour (hud_colour);

  00467	a1 00 00 00 00	 mov	 eax, DWORD PTR ?hud_colour@@3UREAL_COLOUR@@A ; hud_colour
  0046c	50		 push	 eax
  0046d	e8 00 00 00 00	 call	 ?set_mono_font_colour@@YGXUREAL_COLOUR@@@Z ; set_mono_font_colour

; 1300 : 
; 1301 : 			draw_layout_grid ();

  00472	e8 00 00 00 00	 call	 ?draw_layout_grid@@YGXXZ ; draw_layout_grid

; 1302 : 
; 1303 : 			draw_basic_hud();

  00477	e8 00 00 00 00	 call	 ?draw_basic_hud@@YGXXZ	; draw_basic_hud

; 1304 : 
; 1305 : 			switch (hud_mode)

  0047c	a1 00 00 00 00	 mov	 eax, DWORD PTR ?hud_mode@@3W4HUD_MODES@@A ; hud_mode
  00481	89 85 6c ff ff
	ff		 mov	 DWORD PTR tv209[ebp], eax
  00487	83 bd 6c ff ff
	ff 00		 cmp	 DWORD PTR tv209[ebp], 0
  0048e	7c 2f		 jl	 SHORT $LN2@draw_hokum
  00490	83 bd 6c ff ff
	ff 01		 cmp	 DWORD PTR tv209[ebp], 1
  00497	7e 0b		 jle	 SHORT $LN17@draw_hokum
  00499	83 bd 6c ff ff
	ff 02		 cmp	 DWORD PTR tv209[ebp], 2
  004a0	74 13		 je	 SHORT $LN18@draw_hokum
  004a2	eb 1b		 jmp	 SHORT $LN2@draw_hokum
$LN17@draw_hokum:

; 1306 : 			{
; 1307 : 				case HUD_MODE_TRANSITION:
; 1308 : 				case HUD_MODE_NAVIGATION:
; 1309 : 				{
; 1310 : 					draw_heading_scale();

  004a4	e8 00 00 00 00	 call	 ?draw_heading_scale@@YGXXZ ; draw_heading_scale

; 1311 : 					display_waypoint_information();

  004a9	e8 00 00 00 00	 call	 ?display_waypoint_information@@YGXXZ ; display_waypoint_information

; 1312 : 					display_g_scale();

  004ae	e8 00 00 00 00	 call	 ?display_g_scale@@YGXXZ	; display_g_scale

; 1313 : 
; 1314 : 					break;

  004b3	eb 0a		 jmp	 SHORT $LN2@draw_hokum
$LN18@draw_hokum:

; 1315 : 				}
; 1316 : 				case HUD_MODE_WEAPON:
; 1317 : 				{
; 1318 : 					display_weapon_information();

  004b5	e8 00 00 00 00	 call	 ?display_weapon_information@@YGXXZ ; display_weapon_information

; 1319 : 					display_target_information();

  004ba	e8 00 00 00 00	 call	 ?display_target_information@@YGXXZ ; display_target_information
$LN2@draw_hokum:

; 1320 : 					
; 1321 : //					draw_target_marker();
; 1322 : //					draw_navigation_mode_hud ();
; 1323 : //					draw_weapon_mode_hud ();
; 1324 : 
; 1325 : 					break;
; 1326 : 				}
; 1327 : 			}
; 1328 : 		}
; 1329 : 
; 1330 : 		flush_screen_texture_graphics (hud_texture_screen);

  004bf	a1 00 00 00 00	 mov	 eax, DWORD PTR ?hud_texture_screen@@3PAUSCREEN@@A
  004c4	50		 push	 eax
  004c5	e8 00 00 00 00	 call	 ?flush_screen_texture_graphics@@YGXPAUSCREEN@@@Z ; flush_screen_texture_graphics

; 1331 : 
; 1332 : 		unlock_screen (hud_texture_screen);

  004ca	a1 00 00 00 00	 mov	 eax, DWORD PTR ?hud_texture_screen@@3PAUSCREEN@@A
  004cf	50		 push	 eax
  004d0	e8 00 00 00 00	 call	 ?unlock_screen@@YGHPAUSCREEN@@@Z ; unlock_screen
$LN15@draw_hokum:

; 1333 : 	}
; 1334 : 
; 1335 : 	reset_2d_view_offset(hud_env);

  004d5	a1 00 00 00 00	 mov	 eax, DWORD PTR ?hud_env@@3PAUENV_2D@@A
  004da	50		 push	 eax
  004db	e8 00 00 00 00	 call	 ?reset_2d_view_offset@@YGXPAUENV_2D@@@Z ; reset_2d_view_offset

; 1336 : 
; 1337 : 	set_active_screen (video_screen);

  004e0	a1 00 00 00 00	 mov	 eax, DWORD PTR ?video_screen@@3PAUSCREEN@@A ; video_screen
  004e5	50		 push	 eax
  004e6	e8 00 00 00 00	 call	 ?set_active_screen@@YGHPAUSCREEN@@@Z ; set_active_screen

; 1338 : }

  004eb	5f		 pop	 edi
  004ec	5e		 pop	 esi
  004ed	5b		 pop	 ebx
  004ee	8b e5		 mov	 esp, ebp
  004f0	5d		 pop	 ebp
  004f1	c3		 ret	 0
?draw_hokum_hud@@YGXXZ ENDP				; draw_hokum_hud
_TEXT	ENDS
; Function compile flags: /Odtp /ZI
; File c:\users\nhv90\projects\eech\aphavoc\source\gunships\avionics\hokum\hk_hud.c
;	COMDAT ?deinitialise_hokum_hud@@YGXXZ
_TEXT	SEGMENT
?deinitialise_hokum_hud@@YGXXZ PROC			; deinitialise_hokum_hud, COMDAT

; 1133 : {

  00000	55		 push	 ebp
  00001	8b ec		 mov	 ebp, esp
  00003	83 ec 40	 sub	 esp, 64			; 00000040H
  00006	53		 push	 ebx
  00007	56		 push	 esi
  00008	57		 push	 edi

; 1134 : 	destroy_2d_environment (hud_env);

  00009	a1 00 00 00 00	 mov	 eax, DWORD PTR ?hud_env@@3PAUENV_2D@@A
  0000e	50		 push	 eax
  0000f	e8 00 00 00 00	 call	 ?destroy_2d_environment@@YGXPAUENV_2D@@@Z ; destroy_2d_environment

; 1135 : 
; 1136 : 	destroy_screen (outside_hud_texture_screen);

  00014	a1 00 00 00 00	 mov	 eax, DWORD PTR ?outside_hud_texture_screen@@3PAUSCREEN@@A
  00019	50		 push	 eax
  0001a	e8 00 00 00 00	 call	 ?destroy_screen@@YGHPAUSCREEN@@@Z ; destroy_screen

; 1137 : 
; 1138 : 	destroy_screen (hud_texture_screen);

  0001f	a1 00 00 00 00	 mov	 eax, DWORD PTR ?hud_texture_screen@@3PAUSCREEN@@A
  00024	50		 push	 eax
  00025	e8 00 00 00 00	 call	 ?destroy_screen@@YGHPAUSCREEN@@@Z ; destroy_screen

; 1139 : }

  0002a	5f		 pop	 edi
  0002b	5e		 pop	 esi
  0002c	5b		 pop	 ebx
  0002d	8b e5		 mov	 esp, ebp
  0002f	5d		 pop	 ebp
  00030	c3		 ret	 0
?deinitialise_hokum_hud@@YGXXZ ENDP			; deinitialise_hokum_hud
_TEXT	ENDS
; Function compile flags: /Odtp /ZI
; File c:\users\nhv90\projects\eech\aphavoc\source\gunships\avionics\hokum\hk_hud.c
;	COMDAT ?initialise_hokum_hud@@YGXXZ
_TEXT	SEGMENT
?initialise_hokum_hud@@YGXXZ PROC			; initialise_hokum_hud, COMDAT

; 1113 : {

  00000	55		 push	 ebp
  00001	8b ec		 mov	 ebp, esp
  00003	83 ec 40	 sub	 esp, 64			; 00000040H
  00006	53		 push	 ebx
  00007	56		 push	 esi
  00008	57		 push	 edi

; 1114 : 	hud_env = create_2d_environment ();

  00009	e8 00 00 00 00	 call	 ?create_2d_environment@@YGPAUENV_2D@@XZ ; create_2d_environment
  0000e	a3 00 00 00 00	 mov	 DWORD PTR ?hud_env@@3PAUENV_2D@@A, eax

; 1115 : 
; 1116 : 	outside_hud_texture_screen = create_system_texture_screen (HUD_VIEWPORT_LARGE_SIZE, HUD_VIEWPORT_LARGE_SIZE, TEXTURE_INDEX_AVCKPT_DISPLAY_LHS_MFD, TEXTURE_TYPE_SINGLEALPHA);

  00013	6a 02		 push	 2
  00015	68 f8 00 00 00	 push	 248			; 000000f8H
  0001a	68 00 01 00 00	 push	 256			; 00000100H
  0001f	68 00 01 00 00	 push	 256			; 00000100H
  00024	e8 00 00 00 00	 call	 ?create_system_texture_screen@@YGPAUSCREEN@@HHHH@Z ; create_system_texture_screen
  00029	a3 00 00 00 00	 mov	 DWORD PTR ?outside_hud_texture_screen@@3PAUSCREEN@@A, eax

; 1117 : 
; 1118 : 	if (command_line_high_res_hud)	

  0002e	83 3d 00 00 00
	00 00		 cmp	 DWORD PTR ?command_line_high_res_hud@@3HA, 0 ; command_line_high_res_hud
  00035	74 1d		 je	 SHORT $LN2@initialise

; 1119 : 		hud_texture_screen = create_system_texture_screen (HUD_VIEWPORT_LARGE_SIZE, HUD_VIEWPORT_LARGE_SIZE, TEXTURE_INDEX_HOKUM_COCKPIT_HUD, TEXTURE_TYPE_SINGLEALPHA);

  00037	6a 02		 push	 2
  00039	68 d7 04 00 00	 push	 1239			; 000004d7H
  0003e	68 00 01 00 00	 push	 256			; 00000100H
  00043	68 00 01 00 00	 push	 256			; 00000100H
  00048	e8 00 00 00 00	 call	 ?create_system_texture_screen@@YGPAUSCREEN@@HHHH@Z ; create_system_texture_screen
  0004d	a3 00 00 00 00	 mov	 DWORD PTR ?hud_texture_screen@@3PAUSCREEN@@A, eax

; 1120 : 	else

  00052	eb 1b		 jmp	 SHORT $LN3@initialise
$LN2@initialise:

; 1121 : 		hud_texture_screen = create_system_texture_screen (HUD_VIEWPORT_SMALL_SIZE, HUD_VIEWPORT_SMALL_SIZE, TEXTURE_INDEX_HOKUM_COCKPIT_HUD, TEXTURE_TYPE_SINGLEALPHA);

  00054	6a 02		 push	 2
  00056	68 d7 04 00 00	 push	 1239			; 000004d7H
  0005b	68 80 00 00 00	 push	 128			; 00000080H
  00060	68 80 00 00 00	 push	 128			; 00000080H
  00065	e8 00 00 00 00	 call	 ?create_system_texture_screen@@YGPAUSCREEN@@HHHH@Z ; create_system_texture_screen
  0006a	a3 00 00 00 00	 mov	 DWORD PTR ?hud_texture_screen@@3PAUSCREEN@@A, eax
$LN3@initialise:

; 1122 : 
; 1123 : 	set_rgb_colour (clear_hud_colour, 255, 255, 255, 0);

  0006f	c6 05 02 00 00
	00 ff		 mov	 BYTE PTR ?clear_hud_colour@@3UREAL_COLOUR@@A+2, 255 ; 000000ffH
  00076	c6 05 01 00 00
	00 ff		 mov	 BYTE PTR ?clear_hud_colour@@3UREAL_COLOUR@@A+1, 255 ; 000000ffH
  0007d	c6 05 00 00 00
	00 ff		 mov	 BYTE PTR ?clear_hud_colour@@3UREAL_COLOUR@@A, 255 ; 000000ffH
  00084	c6 05 03 00 00
	00 00		 mov	 BYTE PTR ?clear_hud_colour@@3UREAL_COLOUR@@A+3, 0

; 1124 : 
; 1125 : 	initialise_hms_gun_pipper ();

  0008b	e8 00 00 00 00	 call	 ?initialise_hms_gun_pipper@@YGXXZ ; initialise_hms_gun_pipper

; 1126 : }

  00090	5f		 pop	 edi
  00091	5e		 pop	 esi
  00092	5b		 pop	 ebx
  00093	8b e5		 mov	 esp, ebp
  00095	5d		 pop	 ebp
  00096	c3		 ret	 0
?initialise_hokum_hud@@YGXXZ ENDP			; initialise_hokum_hud
_TEXT	ENDS
; Function compile flags: /Odtp /ZI
; File c:\program files (x86)\microsoft visual studio\2017\community\vc\tools\msvc\14.16.27023\include\cmath
;	COMDAT ?sin@@YGMM@Z
_TEXT	SEGMENT
__Xx$ = 8						; size = 4
?sin@@YGMM@Z PROC					; sin, COMDAT

; 284  : 	{

  00000	55		 push	 ebp
  00001	8b ec		 mov	 ebp, esp
  00003	83 ec 40	 sub	 esp, 64			; 00000040H
  00006	53		 push	 ebx
  00007	56		 push	 esi
  00008	57		 push	 edi

; 285  : 	return (_CSTD sinf(_Xx));

  00009	51		 push	 ecx
  0000a	f3 0f 10 45 08	 movss	 xmm0, DWORD PTR __Xx$[ebp]
  0000f	f3 0f 11 04 24	 movss	 DWORD PTR [esp], xmm0
  00014	e8 00 00 00 00	 call	 _sinf
  00019	83 c4 04	 add	 esp, 4

; 286  : 	}

  0001c	5f		 pop	 edi
  0001d	5e		 pop	 esi
  0001e	5b		 pop	 ebx
  0001f	8b e5		 mov	 esp, ebp
  00021	5d		 pop	 ebp
  00022	c2 04 00	 ret	 4
?sin@@YGMM@Z ENDP					; sin
_TEXT	ENDS
; Function compile flags: /Odtp /ZI
; File c:\program files (x86)\microsoft visual studio\2017\community\vc\tools\msvc\14.16.27023\include\cmath
;	COMDAT ?fmod@@YGMMM@Z
_TEXT	SEGMENT
__Xx$ = 8						; size = 4
__Yx$ = 12						; size = 4
?fmod@@YGMMM@Z PROC					; fmod, COMDAT

; 143  : 	{

  00000	55		 push	 ebp
  00001	8b ec		 mov	 ebp, esp
  00003	83 ec 40	 sub	 esp, 64			; 00000040H
  00006	53		 push	 ebx
  00007	56		 push	 esi
  00008	57		 push	 edi

; 144  : 	return (_CSTD fmodf(_Xx, _Yx));

  00009	51		 push	 ecx
  0000a	f3 0f 10 45 0c	 movss	 xmm0, DWORD PTR __Yx$[ebp]
  0000f	f3 0f 11 04 24	 movss	 DWORD PTR [esp], xmm0
  00014	51		 push	 ecx
  00015	f3 0f 10 45 08	 movss	 xmm0, DWORD PTR __Xx$[ebp]
  0001a	f3 0f 11 04 24	 movss	 DWORD PTR [esp], xmm0
  0001f	e8 00 00 00 00	 call	 _fmodf
  00024	83 c4 08	 add	 esp, 8

; 145  : 	}

  00027	5f		 pop	 edi
  00028	5e		 pop	 esi
  00029	5b		 pop	 ebx
  0002a	8b e5		 mov	 esp, ebp
  0002c	5d		 pop	 ebp
  0002d	c2 08 00	 ret	 8
?fmod@@YGMMM@Z ENDP					; fmod
_TEXT	ENDS
; Function compile flags: /Odtp /ZI
; File c:\program files (x86)\microsoft visual studio\2017\community\vc\tools\msvc\14.16.27023\include\cmath
;	COMDAT ?fabs@@YGMM@Z
_TEXT	SEGMENT
__Xx$ = 8						; size = 4
?fabs@@YGMM@Z PROC					; fabs, COMDAT

; 112  : 	{

  00000	55		 push	 ebp
  00001	8b ec		 mov	 ebp, esp
  00003	83 ec 40	 sub	 esp, 64			; 00000040H
  00006	53		 push	 ebx
  00007	56		 push	 esi
  00008	57		 push	 edi

; 113  : 	return (_CSTD fabsf(_Xx));

  00009	51		 push	 ecx
  0000a	f3 0f 10 45 08	 movss	 xmm0, DWORD PTR __Xx$[ebp]
  0000f	f3 0f 11 04 24	 movss	 DWORD PTR [esp], xmm0
  00014	e8 00 00 00 00	 call	 _fabsf
  00019	83 c4 04	 add	 esp, 4

; 114  : 	}

  0001c	5f		 pop	 edi
  0001d	5e		 pop	 esi
  0001e	5b		 pop	 ebx
  0001f	8b e5		 mov	 esp, ebp
  00021	5d		 pop	 ebp
  00022	c2 04 00	 ret	 4
?fabs@@YGMM@Z ENDP					; fabs
_TEXT	ENDS
; Function compile flags: /Odtp /ZI
; File c:\program files (x86)\microsoft visual studio\2017\community\vc\tools\msvc\14.16.27023\include\cmath
;	COMDAT ?cos@@YGMM@Z
_TEXT	SEGMENT
__Xx$ = 8						; size = 4
?cos@@YGMM@Z PROC					; cos, COMDAT

; 77   : 	{

  00000	55		 push	 ebp
  00001	8b ec		 mov	 ebp, esp
  00003	83 ec 40	 sub	 esp, 64			; 00000040H
  00006	53		 push	 ebx
  00007	56		 push	 esi
  00008	57		 push	 edi

; 78   : 	return (_CSTD cosf(_Xx));

  00009	51		 push	 ecx
  0000a	f3 0f 10 45 08	 movss	 xmm0, DWORD PTR __Xx$[ebp]
  0000f	f3 0f 11 04 24	 movss	 DWORD PTR [esp], xmm0
  00014	e8 00 00 00 00	 call	 _cosf
  00019	83 c4 04	 add	 esp, 4

; 79   : 	}

  0001c	5f		 pop	 edi
  0001d	5e		 pop	 esi
  0001e	5b		 pop	 ebx
  0001f	8b e5		 mov	 esp, ebp
  00021	5d		 pop	 ebp
  00022	c2 04 00	 ret	 4
?cos@@YGMM@Z ENDP					; cos
_TEXT	ENDS
; Function compile flags: /Odtp /ZI
; File c:\program files (x86)\microsoft visual studio\2017\community\vc\tools\msvc\14.16.27023\include\cmath
;	COMDAT ?atan2@@YGMMM@Z
_TEXT	SEGMENT
__Yx$ = 8						; size = 4
__Xx$ = 12						; size = 4
?atan2@@YGMMM@Z PROC					; atan2, COMDAT

; 56   : 	{

  00000	55		 push	 ebp
  00001	8b ec		 mov	 ebp, esp
  00003	83 ec 40	 sub	 esp, 64			; 00000040H
  00006	53		 push	 ebx
  00007	56		 push	 esi
  00008	57		 push	 edi

; 57   : 	return (_CSTD atan2f(_Yx, _Xx));

  00009	51		 push	 ecx
  0000a	f3 0f 10 45 0c	 movss	 xmm0, DWORD PTR __Xx$[ebp]
  0000f	f3 0f 11 04 24	 movss	 DWORD PTR [esp], xmm0
  00014	51		 push	 ecx
  00015	f3 0f 10 45 08	 movss	 xmm0, DWORD PTR __Yx$[ebp]
  0001a	f3 0f 11 04 24	 movss	 DWORD PTR [esp], xmm0
  0001f	e8 00 00 00 00	 call	 _atan2f
  00024	83 c4 08	 add	 esp, 8

; 58   : 	}

  00027	5f		 pop	 edi
  00028	5e		 pop	 esi
  00029	5b		 pop	 ebx
  0002a	8b e5		 mov	 esp, ebp
  0002c	5d		 pop	 ebp
  0002d	c2 08 00	 ret	 8
?atan2@@YGMMM@Z ENDP					; atan2
_TEXT	ENDS
; Function compile flags: /Odtp /ZI
; File c:\program files (x86)\microsoft visual studio\2017\community\vc\tools\msvc\14.16.27023\include\cmath
;	COMDAT ?atan@@YGMM@Z
_TEXT	SEGMENT
__Xx$ = 8						; size = 4
?atan@@YGMM@Z PROC					; atan, COMDAT

; 46   : 	{

  00000	55		 push	 ebp
  00001	8b ec		 mov	 ebp, esp
  00003	83 ec 40	 sub	 esp, 64			; 00000040H
  00006	53		 push	 ebx
  00007	56		 push	 esi
  00008	57		 push	 edi

; 47   : 	return (_CSTD atanf(_Xx));

  00009	51		 push	 ecx
  0000a	f3 0f 10 45 08	 movss	 xmm0, DWORD PTR __Xx$[ebp]
  0000f	f3 0f 11 04 24	 movss	 DWORD PTR [esp], xmm0
  00014	e8 00 00 00 00	 call	 _atanf
  00019	83 c4 04	 add	 esp, 4

; 48   : 	}

  0001c	5f		 pop	 edi
  0001d	5e		 pop	 esi
  0001e	5b		 pop	 ebx
  0001f	8b e5		 mov	 esp, ebp
  00021	5d		 pop	 ebp
  00022	c2 04 00	 ret	 4
?atan@@YGMM@Z ENDP					; atan
_TEXT	ENDS
; Function compile flags: /Odtp /ZI
; File c:\program files (x86)\windows kits\10\include\10.0.18362.0\ucrt\corecrt_math.h
;	COMDAT _sinf
_TEXT	SEGMENT
tv71 = -68						; size = 4
__X$ = 8						; size = 4
_sinf	PROC						; COMDAT

; 749  :         {

  00000	55		 push	 ebp
  00001	8b ec		 mov	 ebp, esp
  00003	83 ec 44	 sub	 esp, 68			; 00000044H
  00006	53		 push	 ebx
  00007	56		 push	 esi
  00008	57		 push	 edi

; 750  :             return (float)sin(_X);

  00009	f3 0f 5a 45 08	 cvtss2sd xmm0, DWORD PTR __X$[ebp]
  0000e	83 ec 08	 sub	 esp, 8
  00011	f2 0f 11 04 24	 movsd	 QWORD PTR [esp], xmm0
  00016	e8 00 00 00 00	 call	 _sin
  0001b	83 c4 08	 add	 esp, 8
  0001e	d9 5d bc	 fstp	 DWORD PTR tv71[ebp]
  00021	d9 45 bc	 fld	 DWORD PTR tv71[ebp]

; 751  :         }

  00024	5f		 pop	 edi
  00025	5e		 pop	 esi
  00026	5b		 pop	 ebx
  00027	8b e5		 mov	 esp, ebp
  00029	5d		 pop	 ebp
  0002a	c3		 ret	 0
_sinf	ENDP
_TEXT	ENDS
; Function compile flags: /Odtp /ZI
; File c:\program files (x86)\windows kits\10\include\10.0.18362.0\ucrt\corecrt_math.h
;	COMDAT _fmodf
_TEXT	SEGMENT
tv74 = -68						; size = 4
__X$ = 8						; size = 4
__Y$ = 12						; size = 4
_fmodf	PROC						; COMDAT

; 690  :         {

  00000	55		 push	 ebp
  00001	8b ec		 mov	 ebp, esp
  00003	83 ec 44	 sub	 esp, 68			; 00000044H
  00006	53		 push	 ebx
  00007	56		 push	 esi
  00008	57		 push	 edi

; 691  :             return (float)fmod(_X, _Y);

  00009	f3 0f 5a 45 0c	 cvtss2sd xmm0, DWORD PTR __Y$[ebp]
  0000e	83 ec 08	 sub	 esp, 8
  00011	f2 0f 11 04 24	 movsd	 QWORD PTR [esp], xmm0
  00016	f3 0f 5a 45 08	 cvtss2sd xmm0, DWORD PTR __X$[ebp]
  0001b	83 ec 08	 sub	 esp, 8
  0001e	f2 0f 11 04 24	 movsd	 QWORD PTR [esp], xmm0
  00023	e8 00 00 00 00	 call	 _fmod
  00028	83 c4 10	 add	 esp, 16			; 00000010H
  0002b	d9 5d bc	 fstp	 DWORD PTR tv74[ebp]
  0002e	d9 45 bc	 fld	 DWORD PTR tv74[ebp]

; 692  :         }

  00031	5f		 pop	 edi
  00032	5e		 pop	 esi
  00033	5b		 pop	 ebx
  00034	8b e5		 mov	 esp, ebp
  00036	5d		 pop	 ebp
  00037	c3		 ret	 0
_fmodf	ENDP
_TEXT	ENDS
; Function compile flags: /Odtp /ZI
; File c:\program files (x86)\windows kits\10\include\10.0.18362.0\ucrt\corecrt_math.h
;	COMDAT _fabsf
_TEXT	SEGMENT
tv71 = -68						; size = 4
__X$ = 8						; size = 4
_fabsf	PROC						; COMDAT

; 671  :         {

  00000	55		 push	 ebp
  00001	8b ec		 mov	 ebp, esp
  00003	83 ec 44	 sub	 esp, 68			; 00000044H
  00006	53		 push	 ebx
  00007	56		 push	 esi
  00008	57		 push	 edi

; 672  :             return (float)fabs(_X);

  00009	f3 0f 5a 45 08	 cvtss2sd xmm0, DWORD PTR __X$[ebp]
  0000e	83 ec 08	 sub	 esp, 8
  00011	f2 0f 11 04 24	 movsd	 QWORD PTR [esp], xmm0
  00016	e8 00 00 00 00	 call	 _fabs
  0001b	83 c4 08	 add	 esp, 8
  0001e	d9 5d bc	 fstp	 DWORD PTR tv71[ebp]
  00021	d9 45 bc	 fld	 DWORD PTR tv71[ebp]

; 673  :         }

  00024	5f		 pop	 edi
  00025	5e		 pop	 esi
  00026	5b		 pop	 ebx
  00027	8b e5		 mov	 esp, ebp
  00029	5d		 pop	 ebp
  0002a	c3		 ret	 0
_fabsf	ENDP
_TEXT	ENDS
; Function compile flags: /Odtp /ZI
; File c:\program files (x86)\windows kits\10\include\10.0.18362.0\ucrt\corecrt_math.h
;	COMDAT _cosf
_TEXT	SEGMENT
tv71 = -68						; size = 4
__X$ = 8						; size = 4
_cosf	PROC						; COMDAT

; 648  :         {

  00000	55		 push	 ebp
  00001	8b ec		 mov	 ebp, esp
  00003	83 ec 44	 sub	 esp, 68			; 00000044H
  00006	53		 push	 ebx
  00007	56		 push	 esi
  00008	57		 push	 edi

; 649  :             return (float)cos(_X);

  00009	f3 0f 5a 45 08	 cvtss2sd xmm0, DWORD PTR __X$[ebp]
  0000e	83 ec 08	 sub	 esp, 8
  00011	f2 0f 11 04 24	 movsd	 QWORD PTR [esp], xmm0
  00016	e8 00 00 00 00	 call	 _cos
  0001b	83 c4 08	 add	 esp, 8
  0001e	d9 5d bc	 fstp	 DWORD PTR tv71[ebp]
  00021	d9 45 bc	 fld	 DWORD PTR tv71[ebp]

; 650  :         }

  00024	5f		 pop	 edi
  00025	5e		 pop	 esi
  00026	5b		 pop	 ebx
  00027	8b e5		 mov	 esp, ebp
  00029	5d		 pop	 ebp
  0002a	c3		 ret	 0
_cosf	ENDP
_TEXT	ENDS
; Function compile flags: /Odtp /ZI
; File c:\program files (x86)\windows kits\10\include\10.0.18362.0\ucrt\corecrt_math.h
;	COMDAT _atanf
_TEXT	SEGMENT
tv71 = -68						; size = 4
__X$ = 8						; size = 4
_atanf	PROC						; COMDAT

; 638  :         {

  00000	55		 push	 ebp
  00001	8b ec		 mov	 ebp, esp
  00003	83 ec 44	 sub	 esp, 68			; 00000044H
  00006	53		 push	 ebx
  00007	56		 push	 esi
  00008	57		 push	 edi

; 639  :             return (float)atan(_X);

  00009	f3 0f 5a 45 08	 cvtss2sd xmm0, DWORD PTR __X$[ebp]
  0000e	83 ec 08	 sub	 esp, 8
  00011	f2 0f 11 04 24	 movsd	 QWORD PTR [esp], xmm0
  00016	e8 00 00 00 00	 call	 _atan
  0001b	83 c4 08	 add	 esp, 8
  0001e	d9 5d bc	 fstp	 DWORD PTR tv71[ebp]
  00021	d9 45 bc	 fld	 DWORD PTR tv71[ebp]

; 640  :         }

  00024	5f		 pop	 edi
  00025	5e		 pop	 esi
  00026	5b		 pop	 ebx
  00027	8b e5		 mov	 esp, ebp
  00029	5d		 pop	 ebp
  0002a	c3		 ret	 0
_atanf	ENDP
_TEXT	ENDS
; Function compile flags: /Odtp /ZI
; File c:\program files (x86)\windows kits\10\include\10.0.18362.0\ucrt\corecrt_math.h
;	COMDAT _atan2f
_TEXT	SEGMENT
tv74 = -68						; size = 4
__Y$ = 8						; size = 4
__X$ = 12						; size = 4
_atan2f	PROC						; COMDAT

; 633  :         {

  00000	55		 push	 ebp
  00001	8b ec		 mov	 ebp, esp
  00003	83 ec 44	 sub	 esp, 68			; 00000044H
  00006	53		 push	 ebx
  00007	56		 push	 esi
  00008	57		 push	 edi

; 634  :             return (float)atan2(_Y, _X);

  00009	f3 0f 5a 45 0c	 cvtss2sd xmm0, DWORD PTR __X$[ebp]
  0000e	83 ec 08	 sub	 esp, 8
  00011	f2 0f 11 04 24	 movsd	 QWORD PTR [esp], xmm0
  00016	f3 0f 5a 45 08	 cvtss2sd xmm0, DWORD PTR __Y$[ebp]
  0001b	83 ec 08	 sub	 esp, 8
  0001e	f2 0f 11 04 24	 movsd	 QWORD PTR [esp], xmm0
  00023	e8 00 00 00 00	 call	 _atan2
  00028	83 c4 10	 add	 esp, 16			; 00000010H
  0002b	d9 5d bc	 fstp	 DWORD PTR tv74[ebp]
  0002e	d9 45 bc	 fld	 DWORD PTR tv74[ebp]

; 635  :         }

  00031	5f		 pop	 edi
  00032	5e		 pop	 esi
  00033	5b		 pop	 ebx
  00034	8b e5		 mov	 esp, ebp
  00036	5d		 pop	 ebp
  00037	c3		 ret	 0
_atan2f	ENDP
_TEXT	ENDS
; Function compile flags: /Odtp /ZI
; File c:\program files (x86)\windows kits\10\include\10.0.18362.0\ucrt\stdio.h
;	COMDAT _sprintf
_TEXT	SEGMENT
__ArgList$ = -8						; size = 4
__Result$ = -4						; size = 4
__Buffer$ = 8						; size = 4
__Format$ = 12						; size = 4
_sprintf PROC						; COMDAT

; 1781 :     {

  00000	55		 push	 ebp
  00001	8b ec		 mov	 ebp, esp
  00003	83 ec 4c	 sub	 esp, 76			; 0000004cH
  00006	53		 push	 ebx
  00007	56		 push	 esi
  00008	57		 push	 edi

; 1782 :         int _Result;
; 1783 :         va_list _ArgList;
; 1784 :         __crt_va_start(_ArgList, _Format);

  00009	8d 45 10	 lea	 eax, DWORD PTR __Format$[ebp+4]
  0000c	89 45 f8	 mov	 DWORD PTR __ArgList$[ebp], eax

; 1785 : 
; 1786 :         #pragma warning(push)
; 1787 :         #pragma warning(disable: 4996) // Deprecation
; 1788 :         _Result = _vsprintf_l(_Buffer, _Format, NULL, _ArgList);

  0000f	8b 45 f8	 mov	 eax, DWORD PTR __ArgList$[ebp]
  00012	50		 push	 eax
  00013	6a 00		 push	 0
  00015	8b 4d 0c	 mov	 ecx, DWORD PTR __Format$[ebp]
  00018	51		 push	 ecx
  00019	8b 55 08	 mov	 edx, DWORD PTR __Buffer$[ebp]
  0001c	52		 push	 edx
  0001d	e8 00 00 00 00	 call	 __vsprintf_l
  00022	83 c4 10	 add	 esp, 16			; 00000010H
  00025	89 45 fc	 mov	 DWORD PTR __Result$[ebp], eax

; 1789 :         #pragma warning(pop)
; 1790 : 
; 1791 :         __crt_va_end(_ArgList);

  00028	c7 45 f8 00 00
	00 00		 mov	 DWORD PTR __ArgList$[ebp], 0

; 1792 :         return _Result;

  0002f	8b 45 fc	 mov	 eax, DWORD PTR __Result$[ebp]

; 1793 :     }

  00032	5f		 pop	 edi
  00033	5e		 pop	 esi
  00034	5b		 pop	 ebx
  00035	8b e5		 mov	 esp, ebp
  00037	5d		 pop	 ebp
  00038	c3		 ret	 0
_sprintf ENDP
_TEXT	ENDS
; Function compile flags: /Odtp /ZI
; File c:\program files (x86)\windows kits\10\include\10.0.18362.0\ucrt\stdio.h
;	COMDAT __vsprintf_l
_TEXT	SEGMENT
__Buffer$ = 8						; size = 4
__Format$ = 12						; size = 4
__Locale$ = 16						; size = 4
__ArgList$ = 20						; size = 4
__vsprintf_l PROC					; COMDAT

; 1459 :     {

  00000	55		 push	 ebp
  00001	8b ec		 mov	 ebp, esp
  00003	83 ec 40	 sub	 esp, 64			; 00000040H
  00006	53		 push	 ebx
  00007	56		 push	 esi
  00008	57		 push	 edi

; 1460 :         #pragma warning(push)
; 1461 :         #pragma warning(disable: 4996) // Deprecation
; 1462 :         return _vsnprintf_l(_Buffer, (size_t)-1, _Format, _Locale, _ArgList);

  00009	8b 45 14	 mov	 eax, DWORD PTR __ArgList$[ebp]
  0000c	50		 push	 eax
  0000d	8b 4d 10	 mov	 ecx, DWORD PTR __Locale$[ebp]
  00010	51		 push	 ecx
  00011	8b 55 0c	 mov	 edx, DWORD PTR __Format$[ebp]
  00014	52		 push	 edx
  00015	6a ff		 push	 -1
  00017	8b 45 08	 mov	 eax, DWORD PTR __Buffer$[ebp]
  0001a	50		 push	 eax
  0001b	e8 00 00 00 00	 call	 __vsnprintf_l
  00020	83 c4 14	 add	 esp, 20			; 00000014H

; 1463 :         #pragma warning(pop)
; 1464 :     }

  00023	5f		 pop	 edi
  00024	5e		 pop	 esi
  00025	5b		 pop	 ebx
  00026	8b e5		 mov	 esp, ebp
  00028	5d		 pop	 ebp
  00029	c3		 ret	 0
__vsprintf_l ENDP
_TEXT	ENDS
; Function compile flags: /Odtp /ZI
; File c:\program files (x86)\windows kits\10\include\10.0.18362.0\ucrt\stdio.h
;	COMDAT __vsnprintf_l
_TEXT	SEGMENT
tv74 = -72						; size = 4
__Result$ = -4						; size = 4
__Buffer$ = 8						; size = 4
__BufferCount$ = 12					; size = 4
__Format$ = 16						; size = 4
__Locale$ = 20						; size = 4
__ArgList$ = 24						; size = 4
__vsnprintf_l PROC					; COMDAT

; 1389 :     {

  00000	55		 push	 ebp
  00001	8b ec		 mov	 ebp, esp
  00003	83 ec 48	 sub	 esp, 72			; 00000048H
  00006	53		 push	 ebx
  00007	56		 push	 esi
  00008	57		 push	 edi

; 1390 :         int const _Result = __stdio_common_vsprintf(

  00009	8b 45 18	 mov	 eax, DWORD PTR __ArgList$[ebp]
  0000c	50		 push	 eax
  0000d	8b 4d 14	 mov	 ecx, DWORD PTR __Locale$[ebp]
  00010	51		 push	 ecx
  00011	8b 55 10	 mov	 edx, DWORD PTR __Format$[ebp]
  00014	52		 push	 edx
  00015	8b 45 0c	 mov	 eax, DWORD PTR __BufferCount$[ebp]
  00018	50		 push	 eax
  00019	8b 4d 08	 mov	 ecx, DWORD PTR __Buffer$[ebp]
  0001c	51		 push	 ecx
  0001d	e8 00 00 00 00	 call	 ___local_stdio_printf_options
  00022	8b 10		 mov	 edx, DWORD PTR [eax]
  00024	83 ca 01	 or	 edx, 1
  00027	8b 40 04	 mov	 eax, DWORD PTR [eax+4]
  0002a	50		 push	 eax
  0002b	52		 push	 edx
  0002c	ff 15 00 00 00
	00		 call	 DWORD PTR __imp____stdio_common_vsprintf
  00032	83 c4 1c	 add	 esp, 28			; 0000001cH
  00035	89 45 fc	 mov	 DWORD PTR __Result$[ebp], eax

; 1391 :             _CRT_INTERNAL_LOCAL_PRINTF_OPTIONS | _CRT_INTERNAL_PRINTF_LEGACY_VSPRINTF_NULL_TERMINATION,
; 1392 :             _Buffer, _BufferCount, _Format, _Locale, _ArgList);
; 1393 : 
; 1394 :         return _Result < 0 ? -1 : _Result;

  00038	83 7d fc 00	 cmp	 DWORD PTR __Result$[ebp], 0
  0003c	7d 09		 jge	 SHORT $LN3@vsnprintf_
  0003e	c7 45 b8 ff ff
	ff ff		 mov	 DWORD PTR tv74[ebp], -1
  00045	eb 06		 jmp	 SHORT $LN4@vsnprintf_
$LN3@vsnprintf_:
  00047	8b 45 fc	 mov	 eax, DWORD PTR __Result$[ebp]
  0004a	89 45 b8	 mov	 DWORD PTR tv74[ebp], eax
$LN4@vsnprintf_:
  0004d	8b 45 b8	 mov	 eax, DWORD PTR tv74[ebp]

; 1395 :     }

  00050	5f		 pop	 edi
  00051	5e		 pop	 esi
  00052	5b		 pop	 ebx
  00053	8b e5		 mov	 esp, ebp
  00055	5d		 pop	 ebp
  00056	c3		 ret	 0
__vsnprintf_l ENDP
_TEXT	ENDS
; Function compile flags: /Odtp /ZI
; File c:\program files (x86)\windows kits\10\include\10.0.18362.0\ucrt\corecrt_stdio_config.h
;	COMDAT ___local_stdio_printf_options
_TEXT	SEGMENT
___local_stdio_printf_options PROC			; COMDAT

; 86   :     {

  00000	55		 push	 ebp
  00001	8b ec		 mov	 ebp, esp
  00003	83 ec 40	 sub	 esp, 64			; 00000040H
  00006	53		 push	 ebx
  00007	56		 push	 esi
  00008	57		 push	 edi

; 87   :         static unsigned __int64 _OptionsStorage;
; 88   :         return &_OptionsStorage;

  00009	b8 00 00 00 00	 mov	 eax, OFFSET ?_OptionsStorage@?1??__local_stdio_printf_options@@9@4_KA ; `__local_stdio_printf_options'::`2'::_OptionsStorage

; 89   :     }

  0000e	5f		 pop	 edi
  0000f	5e		 pop	 esi
  00010	5b		 pop	 ebx
  00011	8b e5		 mov	 esp, ebp
  00013	5d		 pop	 ebp
  00014	c3		 ret	 0
___local_stdio_printf_options ENDP
_TEXT	ENDS
END
