; Listing generated by Microsoft (R) Optimizing Compiler Version 19.16.27045.0 

	TITLE	C:\Users\nhv90\Projects\eech\aphavoc\source\gunships\avionics\ka50\hm_avevn.c
	.686P
	.XMM
	include listing.inc
	.model	flat

INCLUDELIB MSVCRTD
INCLUDELIB OLDNAMES

PUBLIC	?set_ka50_avionics_events@@YGXXZ		; set_ka50_avionics_events
PUBLIC	?__LINE__Var@?0??virtual_cockpit_track_target_event@@YGXPAUEVENT@@@Z@4JA ; `virtual_cockpit_track_target_event'::`1'::__LINE__Var
PUBLIC	??_C@_0EO@FGHNAPPD@c?3?2users?2nhv90?2projects?2eech?2ap@ ; `string'
PUBLIC	??_C@_02DHMHPBFG@ev@				; `string'
PUBLIC	?__LINE__Var@?0??toggle_navigation_lights_event@@YGXPAUEVENT@@@Z@4JA ; `toggle_navigation_lights_event'::`1'::__LINE__Var
PUBLIC	??_C@_0CB@DLOLLEPM@Invalid?5undercarriage?5state?5?$DN?5?$CF@ ; `string'
PUBLIC	?__LINE__Var@?0??activate_laser_event@@YGXPAUEVENT@@@Z@4JA ; `activate_laser_event'::`1'::__LINE__Var
PUBLIC	__real@3f000000
PUBLIC	__real@3f800000
EXTRN	?process_assert@@YGXPBD0H@Z:PROC		; process_assert
EXTRN	?debug_fatal@@YAXPBDZZ:PROC			; debug_fatal
EXTRN	?set_event@@YGXHHHP6GXPAUEVENT@@@Z@Z:PROC	; set_event
EXTRN	?lower_client_server_entity_undercarriage@@YGXPAUENTITY@@@Z:PROC ; lower_client_server_entity_undercarriage
EXTRN	?raise_client_server_entity_undercarriage@@YGXPAUENTITY@@@Z:PROC ; raise_client_server_entity_undercarriage
EXTRN	?get_local_entity_undercarriage_state@@YGHPAUENTITY@@@Z:PROC ; get_local_entity_undercarriage_state
EXTRN	?get_local_entity_weapon_available@@YGHPAUENTITY@@H@Z:PROC ; get_local_entity_weapon_available
EXTRN	?initiate_aircraft_crew_ejection@@YGXPAUENTITY@@@Z:PROC ; initiate_aircraft_crew_ejection
EXTRN	?play_client_server_cpg_message@@YGHPAUENTITY@@MMHMH@Z:PROC ; play_client_server_cpg_message
EXTRN	?set_view_mode@@YGHW4VIEW_MODES@@@Z:PROC	; set_view_mode
EXTRN	?select_padlock_view_event@@YGXW4PADLOCK_MODES@@@Z:PROC ; select_padlock_view_event
EXTRN	?laser_is_active@@YGHXZ:PROC			; laser_is_active
EXTRN	?set_laser_is_active@@YGXH@Z:PROC		; set_laser_is_active
EXTRN	?eo_is_tracking_point@@YGHXZ:PROC		; eo_is_tracking_point
EXTRN	?set_hud_bob_up_overlay@@YGXXZ:PROC		; set_hud_bob_up_overlay
EXTRN	?clear_hud_bob_up_overlay@@YGXXZ:PROC		; clear_hud_bob_up_overlay
EXTRN	?set_gunship_weapon@@YGXH@Z:PROC		; set_gunship_weapon
EXTRN	?lase_range_for_ballistics_sight@@YGXXZ:PROC	; lase_range_for_ballistics_sight
EXTRN	?deactivate_ka50_master_caution@@YGXXZ:PROC	; deactivate_ka50_master_caution
EXTRN	?inc_ka50_eo_zoom@@YGXXZ:PROC			; inc_ka50_eo_zoom
EXTRN	?dec_ka50_eo_zoom@@YGXXZ:PROC			; dec_ka50_eo_zoom
EXTRN	?select_ka50_mfd_mode@@YGXW4KA50_MFD_MODES@@W4KA50_MFD_LOCATIONS@@@Z:PROC ; select_ka50_mfd_mode
EXTRN	?select_next_ka50_mfd@@YGXW4KA50_MFD_LOCATIONS@@@Z:PROC ; select_next_ka50_mfd
EXTRN	?select_previous_ka50_mfd@@YGXW4KA50_MFD_LOCATIONS@@@Z:PROC ; select_previous_ka50_mfd
EXTRN	?toggle_ka50_mfd_on_off@@YGXW4KA50_MFD_LOCATIONS@@@Z:PROC ; toggle_ka50_mfd_on_off
EXTRN	?select_next_ka50_tsd_ase_range@@YGXXZ:PROC	; select_next_ka50_tsd_ase_range
EXTRN	?select_previous_ka50_tsd_ase_range@@YGXXZ:PROC	; select_previous_ka50_tsd_ase_range
EXTRN	?select_next_ka50_tsd_declutter_level@@YGXXZ:PROC ; select_next_ka50_tsd_declutter_level
EXTRN	?select_previous_ka50_tsd_declutter_level@@YGXXZ:PROC ; select_previous_ka50_tsd_declutter_level
EXTRN	?toggle_ka50_ase_auto_page@@YGXXZ:PROC		; toggle_ka50_ase_auto_page
EXTRN	?select_ka50_target_acquisition_system@@YGXW4TARGET_ACQUISITION_SYSTEMS@@@Z:PROC ; select_ka50_target_acquisition_system
EXTRN	?centre_ka50_target_acquisition_system@@YGXXZ:PROC ; centre_ka50_target_acquisition_system
EXTRN	?toggle_ka50_lock_target@@YGXXZ:PROC		; toggle_ka50_lock_target
EXTRN	?set_ka50_lock_target@@YGXH@Z:PROC		; set_ka50_lock_target
EXTRN	?toggle_ka50_radar_jammer_manual@@YGXXZ:PROC	; toggle_ka50_radar_jammer_manual
EXTRN	?toggle_ka50_infra_red_jammer_manual@@YGXXZ:PROC ; toggle_ka50_infra_red_jammer_manual
EXTRN	?toggle_ka50_canopy_doors@@YGXPAUEVENT@@@Z:PROC	; toggle_ka50_canopy_doors
EXTRN	?null_entity_pointer_message@@3PBDB:DWORD	; null_entity_pointer_message
EXTRN	?global_options@@3UGLOBAL_OPTIONS_DATA@@A:BYTE	; global_options
EXTRN	?system_comms_model@@3W4COMMS_MODEL_TYPES@@A:DWORD ; system_comms_model
EXTRN	?overload_invalid_list_type_message@@3PBDB:DWORD ; overload_invalid_list_type_message
EXTRN	?fn_get_local_entity_parent@@3PAY0CN@P6GPAUENTITY@@PAU1@W4LIST_TYPES@@@ZA:BYTE ; fn_get_local_entity_parent
EXTRN	?overload_invalid_int_type_message@@3PBDB:DWORD	; overload_invalid_int_type_message
EXTRN	?fn_set_client_server_entity_int_value@@3PAY1BBH@1P6GXPAUENTITY@@W4INT_TYPES@@H@ZA:BYTE ; fn_set_client_server_entity_int_value
EXTRN	?fn_get_local_entity_int_value@@3PAY0BBH@P6GHPAUENTITY@@W4INT_TYPES@@@ZA:BYTE ; fn_get_local_entity_int_value
EXTRN	?gunship_entity@@3PAUENTITY@@A:DWORD		; gunship_entity
EXTRN	?view_mode@@3W4VIEW_MODES@@A:DWORD		; view_mode
EXTRN	?target_acquisition_system@@3W4TARGET_ACQUISITION_SYSTEMS@@A:DWORD ; target_acquisition_system
EXTRN	?continuous_target_acquisition_system_steer_left_key@@3HA:DWORD ; continuous_target_acquisition_system_steer_left_key
EXTRN	?continuous_target_acquisition_system_steer_right_key@@3HA:DWORD ; continuous_target_acquisition_system_steer_right_key
EXTRN	?continuous_target_acquisition_system_steer_up_key@@3HA:DWORD ; continuous_target_acquisition_system_steer_up_key
EXTRN	?continuous_target_acquisition_system_steer_down_key@@3HA:DWORD ; continuous_target_acquisition_system_steer_down_key
EXTRN	?single_target_acquisition_system_steer_left_key@@3HA:DWORD ; single_target_acquisition_system_steer_left_key
EXTRN	?single_target_acquisition_system_steer_right_key@@3HA:DWORD ; single_target_acquisition_system_steer_right_key
EXTRN	?single_target_acquisition_system_steer_up_key@@3HA:DWORD ; single_target_acquisition_system_steer_up_key
EXTRN	?single_target_acquisition_system_steer_down_key@@3HA:DWORD ; single_target_acquisition_system_steer_down_key
EXTRN	?single_target_acquisition_system_inc_range_key@@3HA:DWORD ; single_target_acquisition_system_inc_range_key
EXTRN	?single_target_acquisition_system_dec_range_key@@3HA:DWORD ; single_target_acquisition_system_dec_range_key
EXTRN	?single_target_acquisition_system_inc_target_priority_key@@3HA:DWORD ; single_target_acquisition_system_inc_target_priority_key
EXTRN	?single_target_acquisition_system_dec_target_priority_key@@3HA:DWORD ; single_target_acquisition_system_dec_target_priority_key
EXTRN	?single_target_acquisition_system_select_next_target_key@@3HA:DWORD ; single_target_acquisition_system_select_next_target_key
EXTRN	?single_target_acquisition_system_select_previous_target_key@@3HA:DWORD ; single_target_acquisition_system_select_previous_target_key
EXTRN	?continuous_target_acquisition_system_steer_left_fast_key@@3HA:DWORD ; continuous_target_acquisition_system_steer_left_fast_key
EXTRN	?continuous_target_acquisition_system_steer_right_fast_key@@3HA:DWORD ; continuous_target_acquisition_system_steer_right_fast_key
EXTRN	?continuous_target_acquisition_system_steer_up_fast_key@@3HA:DWORD ; continuous_target_acquisition_system_steer_up_fast_key
EXTRN	?continuous_target_acquisition_system_steer_down_fast_key@@3HA:DWORD ; continuous_target_acquisition_system_steer_down_fast_key
EXTRN	?single_target_acquisition_system_steer_left_fast_key@@3HA:DWORD ; single_target_acquisition_system_steer_left_fast_key
EXTRN	?single_target_acquisition_system_steer_right_fast_key@@3HA:DWORD ; single_target_acquisition_system_steer_right_fast_key
EXTRN	?single_target_acquisition_system_steer_up_fast_key@@3HA:DWORD ; single_target_acquisition_system_steer_up_fast_key
EXTRN	?single_target_acquisition_system_steer_down_fast_key@@3HA:DWORD ; single_target_acquisition_system_steer_down_fast_key
EXTRN	?single_target_acquisition_system_inc_range_fast_key@@3HA:DWORD ; single_target_acquisition_system_inc_range_fast_key
EXTRN	?single_target_acquisition_system_dec_range_fast_key@@3HA:DWORD ; single_target_acquisition_system_dec_range_fast_key
EXTRN	?single_target_acquisition_system_inc_target_priority_fast_key@@3HA:DWORD ; single_target_acquisition_system_inc_target_priority_fast_key
EXTRN	?single_target_acquisition_system_dec_target_priority_fast_key@@3HA:DWORD ; single_target_acquisition_system_dec_target_priority_fast_key
EXTRN	?continuous_target_acquisition_system_steer_left_fine_key@@3HA:DWORD ; continuous_target_acquisition_system_steer_left_fine_key
EXTRN	?continuous_target_acquisition_system_steer_right_fine_key@@3HA:DWORD ; continuous_target_acquisition_system_steer_right_fine_key
EXTRN	?continuous_target_acquisition_system_steer_up_fine_key@@3HA:DWORD ; continuous_target_acquisition_system_steer_up_fine_key
EXTRN	?continuous_target_acquisition_system_steer_down_fine_key@@3HA:DWORD ; continuous_target_acquisition_system_steer_down_fine_key
EXTRN	?toggle_ground_stabilisation_key@@3HA:DWORD	; toggle_ground_stabilisation_key
EXTRN	?night_vision_system_active@@3HA:DWORD		; night_vision_system_active
EXTRN	?havoc_damage@@3THAVOC_DAMAGE_FLAGS@@A:DWORD	; havoc_damage
EXTRN	?ka50_damage@@3TKA50_DAMAGE_FLAGS@@A:DWORD	; ka50_damage
EXTRN	?current_flight_dynamics@@3PAUDYNAMICS_TYPE@@A:DWORD ; current_flight_dynamics
EXTRN	__fltused:DWORD
;	COMDAT __real@3f800000
CONST	SEGMENT
__real@3f800000 DD 03f800000r			; 1
CONST	ENDS
;	COMDAT __real@3f000000
CONST	SEGMENT
__real@3f000000 DD 03f000000r			; 0.5
CONST	ENDS
;	COMDAT ?__LINE__Var@?0??activate_laser_event@@YGXPAUEVENT@@@Z@4JA
_DATA	SEGMENT
?__LINE__Var@?0??activate_laser_event@@YGXPAUEVENT@@@Z@4JA DD 02ecH ; `activate_laser_event'::`1'::__LINE__Var
_DATA	ENDS
;	COMDAT ??_C@_0CB@DLOLLEPM@Invalid?5undercarriage?5state?5?$DN?5?$CF@
CONST	SEGMENT
??_C@_0CB@DLOLLEPM@Invalid?5undercarriage?5state?5?$DN?5?$CF@ DB 'Invalid'
	DB	' undercarriage state = %d', 00H		; `string'
CONST	ENDS
;	COMDAT ?__LINE__Var@?0??toggle_navigation_lights_event@@YGXPAUEVENT@@@Z@4JA
_DATA	SEGMENT
?__LINE__Var@?0??toggle_navigation_lights_event@@YGXPAUEVENT@@@Z@4JA DD 02b3H ; `toggle_navigation_lights_event'::`1'::__LINE__Var
_DATA	ENDS
;	COMDAT ??_C@_02DHMHPBFG@ev@
CONST	SEGMENT
??_C@_02DHMHPBFG@ev@ DB 'ev', 00H			; `string'
CONST	ENDS
;	COMDAT ??_C@_0EO@FGHNAPPD@c?3?2users?2nhv90?2projects?2eech?2ap@
CONST	SEGMENT
??_C@_0EO@FGHNAPPD@c?3?2users?2nhv90?2projects?2eech?2ap@ DB 'c:\users\nh'
	DB	'v90\projects\eech\aphavoc\source\gunships\avionics\ka50\hm_av'
	DB	'evn.c', 00H					; `string'
CONST	ENDS
;	COMDAT ?__LINE__Var@?0??virtual_cockpit_track_target_event@@YGXPAUEVENT@@@Z@4JA
_DATA	SEGMENT
?__LINE__Var@?0??virtual_cockpit_track_target_event@@YGXPAUEVENT@@@Z@4JA DD 01d7H ; `virtual_cockpit_track_target_event'::`1'::__LINE__Var
_DATA	ENDS
; Function compile flags: /Odtp /ZI
; File c:\users\nhv90\projects\eech\aphavoc\source\gunships\avionics\ka50\hm_avevn.c
;	COMDAT ?activate_laser_event@@YGXPAUEVENT@@@Z
_TEXT	SEGMENT
tv93 = -76						; size = 4
tv85 = -72						; size = 4
tv77 = -68						; size = 4
_ev$ = 8						; size = 4
?activate_laser_event@@YGXPAUEVENT@@@Z PROC		; activate_laser_event, COMDAT

; 748  : {

  00000	55		 push	 ebp
  00001	8b ec		 mov	 ebp, esp
  00003	83 ec 4c	 sub	 esp, 76			; 0000004cH
  00006	53		 push	 ebx
  00007	56		 push	 esi
  00008	57		 push	 edi

; 749  : 	if (!laser_is_active() && !havoc_damage.laser_range_finder)

  00009	e8 00 00 00 00	 call	 ?laser_is_active@@YGHXZ	; laser_is_active
  0000e	85 c0		 test	 eax, eax
  00010	0f 85 d5 00 00
	00		 jne	 $LN2@activate_l
  00016	a1 00 00 00 00	 mov	 eax, DWORD PTR ?havoc_damage@@3THAVOC_DAMAGE_FLAGS@@A ; havoc_damage
  0001b	c1 e8 04	 shr	 eax, 4
  0001e	83 e0 01	 and	 eax, 1
  00021	0f 85 c4 00 00
	00		 jne	 $LN2@activate_l

; 750  : 	{
; 751  : 		if (target_acquisition_system == TARGET_ACQUISITION_SYSTEM_OFF)

  00027	83 3d 00 00 00
	00 00		 cmp	 DWORD PTR ?target_acquisition_system@@3W4TARGET_ACQUISITION_SYSTEMS@@A, 0 ; target_acquisition_system
  0002e	75 0a		 jne	 SHORT $LN4@activate_l

; 752  : 			lase_range_for_ballistics_sight();

  00030	e8 00 00 00 00	 call	 ?lase_range_for_ballistics_sight@@YGXXZ ; lase_range_for_ballistics_sight

; 753  : 		else

  00035	e9 af 00 00 00	 jmp	 $LN5@activate_l
$LN4@activate_l:

; 754  : 			set_laser_is_active(eo_is_tracking_point() || get_local_entity_parent(get_gunship_entity(), LIST_TYPE_TARGET));

  0003a	e8 00 00 00 00	 call	 ?eo_is_tracking_point@@YGHXZ ; eo_is_tracking_point
  0003f	85 c0		 test	 eax, eax
  00041	0f 85 92 00 00
	00		 jne	 $LN11@activate_l
  00047	83 3d 00 00 00
	00 00		 cmp	 DWORD PTR ?gunship_entity@@3PAUENTITY@@A, 0 ; gunship_entity
  0004e	74 0c		 je	 SHORT $LN7@activate_l
  00050	a1 00 00 00 00	 mov	 eax, DWORD PTR ?gunship_entity@@3PAUENTITY@@A ; gunship_entity
  00055	8b 08		 mov	 ecx, DWORD PTR [eax]
  00057	89 4d bc	 mov	 DWORD PTR tv77[ebp], ecx
  0005a	eb 21		 jmp	 SHORT $LN8@activate_l
$LN7@activate_l:
  0005c	8b 15 00 00 00
	00		 mov	 edx, DWORD PTR ?__LINE__Var@?0??activate_laser_event@@YGXPAUEVENT@@@Z@4JA
  00062	83 c2 06	 add	 edx, 6
  00065	52		 push	 edx
  00066	68 00 00 00 00	 push	 OFFSET ??_C@_0EO@FGHNAPPD@c?3?2users?2nhv90?2projects?2eech?2ap@
  0006b	a1 00 00 00 00	 mov	 eax, DWORD PTR ?null_entity_pointer_message@@3PBDB ; null_entity_pointer_message
  00070	50		 push	 eax
  00071	e8 00 00 00 00	 call	 ?process_assert@@YGXPBD0H@Z ; process_assert
  00076	c7 45 bc 00 00
	00 00		 mov	 DWORD PTR tv77[ebp], 0
$LN8@activate_l:
  0007d	b9 01 00 00 00	 mov	 ecx, 1
  00082	85 c9		 test	 ecx, ecx
  00084	74 09		 je	 SHORT $LN9@activate_l
  00086	c7 45 b8 26 00
	00 00		 mov	 DWORD PTR tv85[ebp], 38	; 00000026H
  0008d	eb 21		 jmp	 SHORT $LN10@activate_l
$LN9@activate_l:
  0008f	8b 15 00 00 00
	00		 mov	 edx, DWORD PTR ?__LINE__Var@?0??activate_laser_event@@YGXPAUEVENT@@@Z@4JA
  00095	83 c2 06	 add	 edx, 6
  00098	52		 push	 edx
  00099	68 00 00 00 00	 push	 OFFSET ??_C@_0EO@FGHNAPPD@c?3?2users?2nhv90?2projects?2eech?2ap@
  0009e	a1 00 00 00 00	 mov	 eax, DWORD PTR ?overload_invalid_list_type_message@@3PBDB ; overload_invalid_list_type_message
  000a3	50		 push	 eax
  000a4	e8 00 00 00 00	 call	 ?process_assert@@YGXPBD0H@Z ; process_assert
  000a9	c7 45 b8 00 00
	00 00		 mov	 DWORD PTR tv85[ebp], 0
$LN10@activate_l:
  000b0	6a 26		 push	 38			; 00000026H
  000b2	8b 0d 00 00 00
	00		 mov	 ecx, DWORD PTR ?gunship_entity@@3PAUENTITY@@A ; gunship_entity
  000b8	51		 push	 ecx
  000b9	69 55 bc b4 00
	00 00		 imul	 edx, DWORD PTR tv77[ebp], 180
  000c0	8b 45 b8	 mov	 eax, DWORD PTR tv85[ebp]
  000c3	8b 8c 82 00 00
	00 00		 mov	 ecx, DWORD PTR ?fn_get_local_entity_parent@@3PAY0CN@P6GPAUENTITY@@PAU1@W4LIST_TYPES@@@ZA[edx+eax*4]
  000ca	ff d1		 call	 ecx
  000cc	85 c0		 test	 eax, eax
  000ce	75 09		 jne	 SHORT $LN11@activate_l
  000d0	c7 45 b4 00 00
	00 00		 mov	 DWORD PTR tv93[ebp], 0
  000d7	eb 07		 jmp	 SHORT $LN12@activate_l
$LN11@activate_l:
  000d9	c7 45 b4 01 00
	00 00		 mov	 DWORD PTR tv93[ebp], 1
$LN12@activate_l:
  000e0	8b 55 b4	 mov	 edx, DWORD PTR tv93[ebp]
  000e3	52		 push	 edx
  000e4	e8 00 00 00 00	 call	 ?set_laser_is_active@@YGXH@Z ; set_laser_is_active
$LN5@activate_l:

; 755  : 	}
; 756  : 	else

  000e9	eb 07		 jmp	 SHORT $LN1@activate_l
$LN2@activate_l:

; 757  : 		set_laser_is_active(FALSE);

  000eb	6a 00		 push	 0
  000ed	e8 00 00 00 00	 call	 ?set_laser_is_active@@YGXH@Z ; set_laser_is_active
$LN1@activate_l:

; 758  : }

  000f2	5f		 pop	 edi
  000f3	5e		 pop	 esi
  000f4	5b		 pop	 ebx
  000f5	8b e5		 mov	 esp, ebp
  000f7	5d		 pop	 ebp
  000f8	c2 04 00	 ret	 4
?activate_laser_event@@YGXPAUEVENT@@@Z ENDP		; activate_laser_event
_TEXT	ENDS
; Function compile flags: /Odtp /ZI
; File c:\users\nhv90\projects\eech\aphavoc\source\gunships\avionics\ka50\hm_avevn.c
;	COMDAT ?eject_event@@YGXPAUEVENT@@@Z
_TEXT	SEGMENT
tv76 = -72						; size = 4
tv69 = -68						; size = 4
_ev$ = 8						; size = 4
?eject_event@@YGXPAUEVENT@@@Z PROC			; eject_event, COMDAT

; 738  : {

  00000	55		 push	 ebp
  00001	8b ec		 mov	 ebp, esp
  00003	83 ec 48	 sub	 esp, 72			; 00000048H
  00006	53		 push	 ebx
  00007	56		 push	 esi
  00008	57		 push	 edi

; 739  : 	if (get_local_entity_int_value (get_gunship_entity (), INT_TYPE_AIRBORNE_AIRCRAFT))

  00009	83 3d 00 00 00
	00 00		 cmp	 DWORD PTR ?gunship_entity@@3PAUENTITY@@A, 0 ; gunship_entity
  00010	74 0c		 je	 SHORT $LN4@eject_even
  00012	a1 00 00 00 00	 mov	 eax, DWORD PTR ?gunship_entity@@3PAUENTITY@@A ; gunship_entity
  00017	8b 08		 mov	 ecx, DWORD PTR [eax]
  00019	89 4d bc	 mov	 DWORD PTR tv69[ebp], ecx
  0001c	eb 1d		 jmp	 SHORT $LN5@eject_even
$LN4@eject_even:
  0001e	68 e3 02 00 00	 push	 739			; 000002e3H
  00023	68 00 00 00 00	 push	 OFFSET ??_C@_0EO@FGHNAPPD@c?3?2users?2nhv90?2projects?2eech?2ap@
  00028	8b 15 00 00 00
	00		 mov	 edx, DWORD PTR ?null_entity_pointer_message@@3PBDB ; null_entity_pointer_message
  0002e	52		 push	 edx
  0002f	e8 00 00 00 00	 call	 ?process_assert@@YGXPBD0H@Z ; process_assert
  00034	c7 45 bc 00 00
	00 00		 mov	 DWORD PTR tv69[ebp], 0
$LN5@eject_even:
  0003b	b8 01 00 00 00	 mov	 eax, 1
  00040	85 c0		 test	 eax, eax
  00042	74 09		 je	 SHORT $LN6@eject_even
  00044	c7 45 b8 04 00
	00 00		 mov	 DWORD PTR tv76[ebp], 4
  0004b	eb 1d		 jmp	 SHORT $LN7@eject_even
$LN6@eject_even:
  0004d	68 e3 02 00 00	 push	 739			; 000002e3H
  00052	68 00 00 00 00	 push	 OFFSET ??_C@_0EO@FGHNAPPD@c?3?2users?2nhv90?2projects?2eech?2ap@
  00057	8b 0d 00 00 00
	00		 mov	 ecx, DWORD PTR ?overload_invalid_int_type_message@@3PBDB ; overload_invalid_int_type_message
  0005d	51		 push	 ecx
  0005e	e8 00 00 00 00	 call	 ?process_assert@@YGXPBD0H@Z ; process_assert
  00063	c7 45 b8 00 00
	00 00		 mov	 DWORD PTR tv76[ebp], 0
$LN7@eject_even:
  0006a	6a 04		 push	 4
  0006c	8b 15 00 00 00
	00		 mov	 edx, DWORD PTR ?gunship_entity@@3PAUENTITY@@A ; gunship_entity
  00072	52		 push	 edx
  00073	69 45 bc 5c 04
	00 00		 imul	 eax, DWORD PTR tv69[ebp], 1116
  0007a	8b 4d b8	 mov	 ecx, DWORD PTR tv76[ebp]
  0007d	8b 94 88 00 00
	00 00		 mov	 edx, DWORD PTR ?fn_get_local_entity_int_value@@3PAY0BBH@P6GHPAUENTITY@@W4INT_TYPES@@@ZA[eax+ecx*4]
  00084	ff d2		 call	 edx
  00086	85 c0		 test	 eax, eax
  00088	74 0b		 je	 SHORT $LN1@eject_even

; 740  : 	{
; 741  : 		initiate_aircraft_crew_ejection (get_gunship_entity ());

  0008a	a1 00 00 00 00	 mov	 eax, DWORD PTR ?gunship_entity@@3PAUENTITY@@A ; gunship_entity
  0008f	50		 push	 eax
  00090	e8 00 00 00 00	 call	 ?initiate_aircraft_crew_ejection@@YGXPAUENTITY@@@Z ; initiate_aircraft_crew_ejection
$LN1@eject_even:

; 742  : 	}
; 743  : }

  00095	5f		 pop	 edi
  00096	5e		 pop	 esi
  00097	5b		 pop	 ebx
  00098	8b e5		 mov	 esp, ebp
  0009a	5d		 pop	 ebp
  0009b	c2 04 00	 ret	 4
?eject_event@@YGXPAUEVENT@@@Z ENDP			; eject_event
_TEXT	ENDS
; Function compile flags: /Odtp /ZI
; File c:\users\nhv90\projects\eech\aphavoc\source\gunships\avionics\ka50\hm_avevn.c
;	COMDAT ?toggle_gear_event@@YGXPAUEVENT@@@Z
_TEXT	SEGMENT
tv81 = -76						; size = 4
tv74 = -72						; size = 4
tv67 = -72						; size = 4
_state$ = -4						; size = 4
_ev$ = 8						; size = 4
?toggle_gear_event@@YGXPAUEVENT@@@Z PROC		; toggle_gear_event, COMDAT

; 707  : {

  00000	55		 push	 ebp
  00001	8b ec		 mov	 ebp, esp
  00003	83 ec 4c	 sub	 esp, 76			; 0000004cH
  00006	53		 push	 ebx
  00007	56		 push	 esi
  00008	57		 push	 edi

; 708  : 	int
; 709  : 		state;
; 710  : 
; 711  : 	if (!get_dynamics_damage_type (DYNAMICS_DAMAGE_UNDERCARRIAGE))

  00009	a1 00 00 00 00	 mov	 eax, DWORD PTR ?current_flight_dynamics@@3PAUDYNAMICS_TYPE@@A ; current_flight_dynamics
  0000e	8b 88 24 25 00
	00		 mov	 ecx, DWORD PTR [eax+9508]
  00014	81 e1 00 40 00
	00		 and	 ecx, 16384		; 00004000H
  0001a	74 09		 je	 SHORT $LN11@toggle_gea
  0001c	c7 45 b8 01 00
	00 00		 mov	 DWORD PTR tv67[ebp], 1
  00023	eb 07		 jmp	 SHORT $LN12@toggle_gea
$LN11@toggle_gea:
  00025	c7 45 b8 00 00
	00 00		 mov	 DWORD PTR tv67[ebp], 0
$LN12@toggle_gea:
  0002c	83 7d b8 00	 cmp	 DWORD PTR tv67[ebp], 0
  00030	0f 85 d2 00 00
	00		 jne	 $LN1@toggle_gea

; 712  : 	{
; 713  : 		if (get_local_entity_int_value (get_gunship_entity (), INT_TYPE_AIRBORNE_AIRCRAFT))

  00036	83 3d 00 00 00
	00 00		 cmp	 DWORD PTR ?gunship_entity@@3PAUENTITY@@A, 0 ; gunship_entity
  0003d	74 0c		 je	 SHORT $LN13@toggle_gea
  0003f	a1 00 00 00 00	 mov	 eax, DWORD PTR ?gunship_entity@@3PAUENTITY@@A ; gunship_entity
  00044	8b 08		 mov	 ecx, DWORD PTR [eax]
  00046	89 4d b8	 mov	 DWORD PTR tv74[ebp], ecx
  00049	eb 1d		 jmp	 SHORT $LN14@toggle_gea
$LN13@toggle_gea:
  0004b	68 c9 02 00 00	 push	 713			; 000002c9H
  00050	68 00 00 00 00	 push	 OFFSET ??_C@_0EO@FGHNAPPD@c?3?2users?2nhv90?2projects?2eech?2ap@
  00055	8b 15 00 00 00
	00		 mov	 edx, DWORD PTR ?null_entity_pointer_message@@3PBDB ; null_entity_pointer_message
  0005b	52		 push	 edx
  0005c	e8 00 00 00 00	 call	 ?process_assert@@YGXPBD0H@Z ; process_assert
  00061	c7 45 b8 00 00
	00 00		 mov	 DWORD PTR tv74[ebp], 0
$LN14@toggle_gea:
  00068	b8 01 00 00 00	 mov	 eax, 1
  0006d	85 c0		 test	 eax, eax
  0006f	74 09		 je	 SHORT $LN15@toggle_gea
  00071	c7 45 b4 04 00
	00 00		 mov	 DWORD PTR tv81[ebp], 4
  00078	eb 1d		 jmp	 SHORT $LN16@toggle_gea
$LN15@toggle_gea:
  0007a	68 c9 02 00 00	 push	 713			; 000002c9H
  0007f	68 00 00 00 00	 push	 OFFSET ??_C@_0EO@FGHNAPPD@c?3?2users?2nhv90?2projects?2eech?2ap@
  00084	8b 0d 00 00 00
	00		 mov	 ecx, DWORD PTR ?overload_invalid_int_type_message@@3PBDB ; overload_invalid_int_type_message
  0008a	51		 push	 ecx
  0008b	e8 00 00 00 00	 call	 ?process_assert@@YGXPBD0H@Z ; process_assert
  00090	c7 45 b4 00 00
	00 00		 mov	 DWORD PTR tv81[ebp], 0
$LN16@toggle_gea:
  00097	6a 04		 push	 4
  00099	8b 15 00 00 00
	00		 mov	 edx, DWORD PTR ?gunship_entity@@3PAUENTITY@@A ; gunship_entity
  0009f	52		 push	 edx
  000a0	69 45 b8 5c 04
	00 00		 imul	 eax, DWORD PTR tv74[ebp], 1116
  000a7	8b 4d b4	 mov	 ecx, DWORD PTR tv81[ebp]
  000aa	8b 94 88 00 00
	00 00		 mov	 edx, DWORD PTR ?fn_get_local_entity_int_value@@3PAY0BBH@P6GHPAUENTITY@@W4INT_TYPES@@@ZA[eax+ecx*4]
  000b1	ff d2		 call	 edx
  000b3	85 c0		 test	 eax, eax
  000b5	74 51		 je	 SHORT $LN1@toggle_gea

; 714  : 		{
; 715  : 			state = get_local_entity_undercarriage_state (get_gunship_entity ());

  000b7	a1 00 00 00 00	 mov	 eax, DWORD PTR ?gunship_entity@@3PAUENTITY@@A ; gunship_entity
  000bc	50		 push	 eax
  000bd	e8 00 00 00 00	 call	 ?get_local_entity_undercarriage_state@@YGHPAUENTITY@@@Z ; get_local_entity_undercarriage_state
  000c2	89 45 fc	 mov	 DWORD PTR _state$[ebp], eax

; 716  : 
; 717  : 			if ((state == AIRCRAFT_UNDERCARRIAGE_UP) || (state == AIRCRAFT_UNDERCARRIAGE_RAISING))

  000c5	83 7d fc 00	 cmp	 DWORD PTR _state$[ebp], 0
  000c9	74 06		 je	 SHORT $LN6@toggle_gea
  000cb	83 7d fc 03	 cmp	 DWORD PTR _state$[ebp], 3
  000cf	75 0d		 jne	 SHORT $LN4@toggle_gea
$LN6@toggle_gea:

; 718  : 			{
; 719  : 				lower_client_server_entity_undercarriage (get_gunship_entity ());

  000d1	a1 00 00 00 00	 mov	 eax, DWORD PTR ?gunship_entity@@3PAUENTITY@@A ; gunship_entity
  000d6	50		 push	 eax
  000d7	e8 00 00 00 00	 call	 ?lower_client_server_entity_undercarriage@@YGXPAUENTITY@@@Z ; lower_client_server_entity_undercarriage
  000dc	eb 2a		 jmp	 SHORT $LN1@toggle_gea
$LN4@toggle_gea:

; 720  : 			}
; 721  : 			else if ((state == AIRCRAFT_UNDERCARRIAGE_DOWN) || (state == AIRCRAFT_UNDERCARRIAGE_LOWERING))

  000de	83 7d fc 02	 cmp	 DWORD PTR _state$[ebp], 2
  000e2	74 06		 je	 SHORT $LN9@toggle_gea
  000e4	83 7d fc 01	 cmp	 DWORD PTR _state$[ebp], 1
  000e8	75 0d		 jne	 SHORT $LN7@toggle_gea
$LN9@toggle_gea:

; 722  : 			{
; 723  : 				raise_client_server_entity_undercarriage (get_gunship_entity ());

  000ea	a1 00 00 00 00	 mov	 eax, DWORD PTR ?gunship_entity@@3PAUENTITY@@A ; gunship_entity
  000ef	50		 push	 eax
  000f0	e8 00 00 00 00	 call	 ?raise_client_server_entity_undercarriage@@YGXPAUENTITY@@@Z ; raise_client_server_entity_undercarriage

; 724  : 			}
; 725  : 			else

  000f5	eb 11		 jmp	 SHORT $LN1@toggle_gea
$LN7@toggle_gea:

; 726  : 			{
; 727  : 				debug_fatal ("Invalid undercarriage state = %d", state);

  000f7	8b 45 fc	 mov	 eax, DWORD PTR _state$[ebp]
  000fa	50		 push	 eax
  000fb	68 00 00 00 00	 push	 OFFSET ??_C@_0CB@DLOLLEPM@Invalid?5undercarriage?5state?5?$DN?5?$CF@
  00100	e8 00 00 00 00	 call	 ?debug_fatal@@YAXPBDZZ	; debug_fatal
  00105	83 c4 08	 add	 esp, 8
$LN1@toggle_gea:

; 728  : 			}
; 729  : 		}
; 730  : 	}
; 731  : }

  00108	5f		 pop	 edi
  00109	5e		 pop	 esi
  0010a	5b		 pop	 ebx
  0010b	8b e5		 mov	 esp, ebp
  0010d	5d		 pop	 ebp
  0010e	c2 04 00	 ret	 4
?toggle_gear_event@@YGXPAUEVENT@@@Z ENDP		; toggle_gear_event
_TEXT	ENDS
; Function compile flags: /Odtp /ZI
; File c:\users\nhv90\projects\eech\aphavoc\source\gunships\avionics\ka50\hm_avevn.c
;	COMDAT ?toggle_navigation_lights_event@@YGXPAUEVENT@@@Z
_TEXT	SEGMENT
tv131 = -76						; size = 4
tv78 = -76						; size = 4
tv91 = -72						; size = 4
tv70 = -72						; size = 4
_status$ = -4						; size = 4
_ev$ = 8						; size = 4
?toggle_navigation_lights_event@@YGXPAUEVENT@@@Z PROC	; toggle_navigation_lights_event, COMDAT

; 691  : {

  00000	55		 push	 ebp
  00001	8b ec		 mov	 ebp, esp
  00003	83 ec 4c	 sub	 esp, 76			; 0000004cH
  00006	53		 push	 ebx
  00007	56		 push	 esi
  00008	57		 push	 edi

; 692  : 	int
; 693  : 		status;
; 694  : 
; 695  : 	status = get_local_entity_int_value (get_gunship_entity (), INT_TYPE_LIGHTS_ON);

  00009	83 3d 00 00 00
	00 00		 cmp	 DWORD PTR ?gunship_entity@@3PAUENTITY@@A, 0 ; gunship_entity
  00010	74 0c		 je	 SHORT $LN3@toggle_nav
  00012	a1 00 00 00 00	 mov	 eax, DWORD PTR ?gunship_entity@@3PAUENTITY@@A ; gunship_entity
  00017	8b 08		 mov	 ecx, DWORD PTR [eax]
  00019	89 4d b8	 mov	 DWORD PTR tv70[ebp], ecx
  0001c	eb 21		 jmp	 SHORT $LN4@toggle_nav
$LN3@toggle_nav:
  0001e	8b 15 00 00 00
	00		 mov	 edx, DWORD PTR ?__LINE__Var@?0??toggle_navigation_lights_event@@YGXPAUEVENT@@@Z@4JA
  00024	83 c2 04	 add	 edx, 4
  00027	52		 push	 edx
  00028	68 00 00 00 00	 push	 OFFSET ??_C@_0EO@FGHNAPPD@c?3?2users?2nhv90?2projects?2eech?2ap@
  0002d	a1 00 00 00 00	 mov	 eax, DWORD PTR ?null_entity_pointer_message@@3PBDB ; null_entity_pointer_message
  00032	50		 push	 eax
  00033	e8 00 00 00 00	 call	 ?process_assert@@YGXPBD0H@Z ; process_assert
  00038	c7 45 b8 00 00
	00 00		 mov	 DWORD PTR tv70[ebp], 0
$LN4@toggle_nav:
  0003f	b9 01 00 00 00	 mov	 ecx, 1
  00044	85 c9		 test	 ecx, ecx
  00046	74 09		 je	 SHORT $LN5@toggle_nav
  00048	c7 45 b4 7a 00
	00 00		 mov	 DWORD PTR tv78[ebp], 122 ; 0000007aH
  0004f	eb 21		 jmp	 SHORT $LN6@toggle_nav
$LN5@toggle_nav:
  00051	8b 15 00 00 00
	00		 mov	 edx, DWORD PTR ?__LINE__Var@?0??toggle_navigation_lights_event@@YGXPAUEVENT@@@Z@4JA
  00057	83 c2 04	 add	 edx, 4
  0005a	52		 push	 edx
  0005b	68 00 00 00 00	 push	 OFFSET ??_C@_0EO@FGHNAPPD@c?3?2users?2nhv90?2projects?2eech?2ap@
  00060	a1 00 00 00 00	 mov	 eax, DWORD PTR ?overload_invalid_int_type_message@@3PBDB ; overload_invalid_int_type_message
  00065	50		 push	 eax
  00066	e8 00 00 00 00	 call	 ?process_assert@@YGXPBD0H@Z ; process_assert
  0006b	c7 45 b4 00 00
	00 00		 mov	 DWORD PTR tv78[ebp], 0
$LN6@toggle_nav:
  00072	6a 7a		 push	 122			; 0000007aH
  00074	8b 0d 00 00 00
	00		 mov	 ecx, DWORD PTR ?gunship_entity@@3PAUENTITY@@A ; gunship_entity
  0007a	51		 push	 ecx
  0007b	69 55 b8 5c 04
	00 00		 imul	 edx, DWORD PTR tv70[ebp], 1116
  00082	8b 45 b4	 mov	 eax, DWORD PTR tv78[ebp]
  00085	8b 8c 82 00 00
	00 00		 mov	 ecx, DWORD PTR ?fn_get_local_entity_int_value@@3PAY0BBH@P6GHPAUENTITY@@W4INT_TYPES@@@ZA[edx+eax*4]
  0008c	ff d1		 call	 ecx
  0008e	89 45 fc	 mov	 DWORD PTR _status$[ebp], eax

; 696  : 
; 697  : 	status ^= 1;

  00091	8b 45 fc	 mov	 eax, DWORD PTR _status$[ebp]
  00094	83 f0 01	 xor	 eax, 1
  00097	89 45 fc	 mov	 DWORD PTR _status$[ebp], eax

; 698  : 
; 699  : 	set_client_server_entity_int_value (get_gunship_entity (), INT_TYPE_LIGHTS_ON, status);

  0009a	83 3d 00 00 00
	00 00		 cmp	 DWORD PTR ?gunship_entity@@3PAUENTITY@@A, 0 ; gunship_entity
  000a1	74 0c		 je	 SHORT $LN7@toggle_nav
  000a3	a1 00 00 00 00	 mov	 eax, DWORD PTR ?gunship_entity@@3PAUENTITY@@A ; gunship_entity
  000a8	8b 08		 mov	 ecx, DWORD PTR [eax]
  000aa	89 4d b8	 mov	 DWORD PTR tv91[ebp], ecx
  000ad	eb 21		 jmp	 SHORT $LN8@toggle_nav
$LN7@toggle_nav:
  000af	8b 15 00 00 00
	00		 mov	 edx, DWORD PTR ?__LINE__Var@?0??toggle_navigation_lights_event@@YGXPAUEVENT@@@Z@4JA
  000b5	83 c2 08	 add	 edx, 8
  000b8	52		 push	 edx
  000b9	68 00 00 00 00	 push	 OFFSET ??_C@_0EO@FGHNAPPD@c?3?2users?2nhv90?2projects?2eech?2ap@
  000be	a1 00 00 00 00	 mov	 eax, DWORD PTR ?null_entity_pointer_message@@3PBDB ; null_entity_pointer_message
  000c3	50		 push	 eax
  000c4	e8 00 00 00 00	 call	 ?process_assert@@YGXPBD0H@Z ; process_assert
  000c9	c7 45 b8 00 00
	00 00		 mov	 DWORD PTR tv91[ebp], 0
$LN8@toggle_nav:
  000d0	b9 01 00 00 00	 mov	 ecx, 1
  000d5	85 c9		 test	 ecx, ecx
  000d7	74 09		 je	 SHORT $LN9@toggle_nav
  000d9	c7 45 b4 7a 00
	00 00		 mov	 DWORD PTR tv131[ebp], 122 ; 0000007aH
  000e0	eb 21		 jmp	 SHORT $LN10@toggle_nav
$LN9@toggle_nav:
  000e2	8b 15 00 00 00
	00		 mov	 edx, DWORD PTR ?__LINE__Var@?0??toggle_navigation_lights_event@@YGXPAUEVENT@@@Z@4JA
  000e8	83 c2 08	 add	 edx, 8
  000eb	52		 push	 edx
  000ec	68 00 00 00 00	 push	 OFFSET ??_C@_0EO@FGHNAPPD@c?3?2users?2nhv90?2projects?2eech?2ap@
  000f1	a1 00 00 00 00	 mov	 eax, DWORD PTR ?overload_invalid_int_type_message@@3PBDB ; overload_invalid_int_type_message
  000f6	50		 push	 eax
  000f7	e8 00 00 00 00	 call	 ?process_assert@@YGXPBD0H@Z ; process_assert
  000fc	c7 45 b4 00 00
	00 00		 mov	 DWORD PTR tv131[ebp], 0
$LN10@toggle_nav:
  00103	8b 4d fc	 mov	 ecx, DWORD PTR _status$[ebp]
  00106	51		 push	 ecx
  00107	6a 7a		 push	 122			; 0000007aH
  00109	8b 15 00 00 00
	00		 mov	 edx, DWORD PTR ?gunship_entity@@3PAUENTITY@@A ; gunship_entity
  0010f	52		 push	 edx
  00110	69 45 b8 b8 08
	00 00		 imul	 eax, DWORD PTR tv91[ebp], 2232
  00117	8b 4d b4	 mov	 ecx, DWORD PTR tv131[ebp]
  0011a	8d 94 c8 00 00
	00 00		 lea	 edx, DWORD PTR ?fn_set_client_server_entity_int_value@@3PAY1BBH@1P6GXPAUENTITY@@W4INT_TYPES@@H@ZA[eax+ecx*8]
  00121	a1 00 00 00 00	 mov	 eax, DWORD PTR ?system_comms_model@@3W4COMMS_MODEL_TYPES@@A ; system_comms_model
  00126	8b 0c 82	 mov	 ecx, DWORD PTR [edx+eax*4]
  00129	ff d1		 call	 ecx

; 700  : }

  0012b	5f		 pop	 edi
  0012c	5e		 pop	 esi
  0012d	5b		 pop	 ebx
  0012e	8b e5		 mov	 esp, ebp
  00130	5d		 pop	 ebp
  00131	c2 04 00	 ret	 4
?toggle_navigation_lights_event@@YGXPAUEVENT@@@Z ENDP	; toggle_navigation_lights_event
_TEXT	ENDS
; Function compile flags: /Odtp /ZI
; File c:\users\nhv90\projects\eech\aphavoc\source\gunships\avionics\ka50\hm_avevn.c
;	COMDAT ?clear_hud_bob_up_overlay_event@@YGXPAUEVENT@@@Z
_TEXT	SEGMENT
_ev$ = 8						; size = 4
?clear_hud_bob_up_overlay_event@@YGXPAUEVENT@@@Z PROC	; clear_hud_bob_up_overlay_event, COMDAT

; 682  : {

  00000	55		 push	 ebp
  00001	8b ec		 mov	 ebp, esp
  00003	83 ec 40	 sub	 esp, 64			; 00000040H
  00006	53		 push	 ebx
  00007	56		 push	 esi
  00008	57		 push	 edi

; 683  : 	clear_hud_bob_up_overlay ();

  00009	e8 00 00 00 00	 call	 ?clear_hud_bob_up_overlay@@YGXXZ ; clear_hud_bob_up_overlay

; 684  : }

  0000e	5f		 pop	 edi
  0000f	5e		 pop	 esi
  00010	5b		 pop	 ebx
  00011	8b e5		 mov	 esp, ebp
  00013	5d		 pop	 ebp
  00014	c2 04 00	 ret	 4
?clear_hud_bob_up_overlay_event@@YGXPAUEVENT@@@Z ENDP	; clear_hud_bob_up_overlay_event
_TEXT	ENDS
; Function compile flags: /Odtp /ZI
; File c:\users\nhv90\projects\eech\aphavoc\source\gunships\avionics\ka50\hm_avevn.c
;	COMDAT ?set_hud_bob_up_overlay_event@@YGXPAUEVENT@@@Z
_TEXT	SEGMENT
_ev$ = 8						; size = 4
?set_hud_bob_up_overlay_event@@YGXPAUEVENT@@@Z PROC	; set_hud_bob_up_overlay_event, COMDAT

; 673  : {

  00000	55		 push	 ebp
  00001	8b ec		 mov	 ebp, esp
  00003	83 ec 40	 sub	 esp, 64			; 00000040H
  00006	53		 push	 ebx
  00007	56		 push	 esi
  00008	57		 push	 edi

; 674  : 	set_hud_bob_up_overlay ();

  00009	e8 00 00 00 00	 call	 ?set_hud_bob_up_overlay@@YGXXZ ; set_hud_bob_up_overlay

; 675  : }

  0000e	5f		 pop	 edi
  0000f	5e		 pop	 esi
  00010	5b		 pop	 ebx
  00011	8b e5		 mov	 esp, ebp
  00013	5d		 pop	 ebp
  00014	c2 04 00	 ret	 4
?set_hud_bob_up_overlay_event@@YGXPAUEVENT@@@Z ENDP	; set_hud_bob_up_overlay_event
_TEXT	ENDS
; Function compile flags: /Odtp /ZI
; File c:\users\nhv90\projects\eech\aphavoc\source\gunships\avionics\ka50\hm_avevn.c
;	COMDAT ?toggle_infra_red_jammer_event@@YGXPAUEVENT@@@Z
_TEXT	SEGMENT
_ev$ = 8						; size = 4
?toggle_infra_red_jammer_event@@YGXPAUEVENT@@@Z PROC	; toggle_infra_red_jammer_event, COMDAT

; 664  : {

  00000	55		 push	 ebp
  00001	8b ec		 mov	 ebp, esp
  00003	83 ec 40	 sub	 esp, 64			; 00000040H
  00006	53		 push	 ebx
  00007	56		 push	 esi
  00008	57		 push	 edi

; 665  : 	toggle_ka50_infra_red_jammer_manual ();

  00009	e8 00 00 00 00	 call	 ?toggle_ka50_infra_red_jammer_manual@@YGXXZ ; toggle_ka50_infra_red_jammer_manual

; 666  : }

  0000e	5f		 pop	 edi
  0000f	5e		 pop	 esi
  00010	5b		 pop	 ebx
  00011	8b e5		 mov	 esp, ebp
  00013	5d		 pop	 ebp
  00014	c2 04 00	 ret	 4
?toggle_infra_red_jammer_event@@YGXPAUEVENT@@@Z ENDP	; toggle_infra_red_jammer_event
_TEXT	ENDS
; Function compile flags: /Odtp /ZI
; File c:\users\nhv90\projects\eech\aphavoc\source\gunships\avionics\ka50\hm_avevn.c
;	COMDAT ?toggle_radar_jammer_event@@YGXPAUEVENT@@@Z
_TEXT	SEGMENT
_ev$ = 8						; size = 4
?toggle_radar_jammer_event@@YGXPAUEVENT@@@Z PROC	; toggle_radar_jammer_event, COMDAT

; 655  : {

  00000	55		 push	 ebp
  00001	8b ec		 mov	 ebp, esp
  00003	83 ec 40	 sub	 esp, 64			; 00000040H
  00006	53		 push	 ebx
  00007	56		 push	 esi
  00008	57		 push	 edi

; 656  : 	toggle_ka50_radar_jammer_manual ();

  00009	e8 00 00 00 00	 call	 ?toggle_ka50_radar_jammer_manual@@YGXXZ ; toggle_ka50_radar_jammer_manual

; 657  : }

  0000e	5f		 pop	 edi
  0000f	5e		 pop	 esi
  00010	5b		 pop	 ebx
  00011	8b e5		 mov	 esp, ebp
  00013	5d		 pop	 ebp
  00014	c2 04 00	 ret	 4
?toggle_radar_jammer_event@@YGXPAUEVENT@@@Z ENDP	; toggle_radar_jammer_event
_TEXT	ENDS
; Function compile flags: /Odtp /ZI
; File c:\users\nhv90\projects\eech\aphavoc\source\gunships\avionics\ka50\hm_avevn.c
;	COMDAT ?toggle_shkval_mfd_on_off_event@@YGXPAUEVENT@@@Z
_TEXT	SEGMENT
_ev$ = 8						; size = 4
?toggle_shkval_mfd_on_off_event@@YGXPAUEVENT@@@Z PROC	; toggle_shkval_mfd_on_off_event, COMDAT

; 646  : {

  00000	55		 push	 ebp
  00001	8b ec		 mov	 ebp, esp
  00003	83 ec 40	 sub	 esp, 64			; 00000040H
  00006	53		 push	 ebx
  00007	56		 push	 esi
  00008	57		 push	 edi

; 647  : 	toggle_ka50_mfd_on_off (KA50_MFD_LOCATION_SHKVAL);

  00009	6a 00		 push	 0
  0000b	e8 00 00 00 00	 call	 ?toggle_ka50_mfd_on_off@@YGXW4KA50_MFD_LOCATIONS@@@Z ; toggle_ka50_mfd_on_off

; 648  : }

  00010	5f		 pop	 edi
  00011	5e		 pop	 esi
  00012	5b		 pop	 ebx
  00013	8b e5		 mov	 esp, ebp
  00015	5d		 pop	 ebp
  00016	c2 04 00	 ret	 4
?toggle_shkval_mfd_on_off_event@@YGXPAUEVENT@@@Z ENDP	; toggle_shkval_mfd_on_off_event
_TEXT	ENDS
; Function compile flags: /Odtp /ZI
; File c:\users\nhv90\projects\eech\aphavoc\source\gunships\avionics\ka50\hm_avevn.c
;	COMDAT ?toggle_abris_mfd_on_off_event@@YGXPAUEVENT@@@Z
_TEXT	SEGMENT
_ev$ = 8						; size = 4
?toggle_abris_mfd_on_off_event@@YGXPAUEVENT@@@Z PROC	; toggle_abris_mfd_on_off_event, COMDAT

; 637  : {

  00000	55		 push	 ebp
  00001	8b ec		 mov	 ebp, esp
  00003	83 ec 40	 sub	 esp, 64			; 00000040H
  00006	53		 push	 ebx
  00007	56		 push	 esi
  00008	57		 push	 edi

; 638  : 	toggle_ka50_mfd_on_off (KA50_MFD_LOCATION_ABRIS);

  00009	6a 01		 push	 1
  0000b	e8 00 00 00 00	 call	 ?toggle_ka50_mfd_on_off@@YGXW4KA50_MFD_LOCATIONS@@@Z ; toggle_ka50_mfd_on_off

; 639  : }

  00010	5f		 pop	 edi
  00011	5e		 pop	 esi
  00012	5b		 pop	 ebx
  00013	8b e5		 mov	 esp, ebp
  00015	5d		 pop	 ebp
  00016	c2 04 00	 ret	 4
?toggle_abris_mfd_on_off_event@@YGXPAUEVENT@@@Z ENDP	; toggle_abris_mfd_on_off_event
_TEXT	ENDS
; Function compile flags: /Odtp /ZI
; File c:\users\nhv90\projects\eech\aphavoc\source\gunships\avionics\ka50\hm_avevn.c
;	COMDAT ?select_mission_mfd_event@@YGXPAUEVENT@@@Z
_TEXT	SEGMENT
_ev$ = 8						; size = 4
?select_mission_mfd_event@@YGXPAUEVENT@@@Z PROC		; select_mission_mfd_event, COMDAT

; 628  : {

  00000	55		 push	 ebp
  00001	8b ec		 mov	 ebp, esp
  00003	83 ec 40	 sub	 esp, 64			; 00000040H
  00006	53		 push	 ebx
  00007	56		 push	 esi
  00008	57		 push	 edi

; 629  : 	select_ka50_mfd_mode (KA50_MFD_MODE_MISSION, KA50_MFD_LOCATION_ABRIS);

  00009	6a 01		 push	 1
  0000b	6a 09		 push	 9
  0000d	e8 00 00 00 00	 call	 ?select_ka50_mfd_mode@@YGXW4KA50_MFD_MODES@@W4KA50_MFD_LOCATIONS@@@Z ; select_ka50_mfd_mode

; 630  : }

  00012	5f		 pop	 edi
  00013	5e		 pop	 esi
  00014	5b		 pop	 ebx
  00015	8b e5		 mov	 esp, ebp
  00017	5d		 pop	 ebp
  00018	c2 04 00	 ret	 4
?select_mission_mfd_event@@YGXPAUEVENT@@@Z ENDP		; select_mission_mfd_event
_TEXT	ENDS
; Function compile flags: /Odtp /ZI
; File c:\users\nhv90\projects\eech\aphavoc\source\gunships\avionics\ka50\hm_avevn.c
;	COMDAT ?select_flight_mfd_event@@YGXPAUEVENT@@@Z
_TEXT	SEGMENT
_ev$ = 8						; size = 4
?select_flight_mfd_event@@YGXPAUEVENT@@@Z PROC		; select_flight_mfd_event, COMDAT

; 619  : {

  00000	55		 push	 ebp
  00001	8b ec		 mov	 ebp, esp
  00003	83 ec 40	 sub	 esp, 64			; 00000040H
  00006	53		 push	 ebx
  00007	56		 push	 esi
  00008	57		 push	 edi

; 620  : 	select_ka50_mfd_mode (KA50_MFD_MODE_FLIGHT, KA50_MFD_LOCATION_ABRIS);

  00009	6a 01		 push	 1
  0000b	6a 08		 push	 8
  0000d	e8 00 00 00 00	 call	 ?select_ka50_mfd_mode@@YGXW4KA50_MFD_MODES@@W4KA50_MFD_LOCATIONS@@@Z ; select_ka50_mfd_mode

; 621  : }

  00012	5f		 pop	 edi
  00013	5e		 pop	 esi
  00014	5b		 pop	 ebx
  00015	8b e5		 mov	 esp, ebp
  00017	5d		 pop	 ebp
  00018	c2 04 00	 ret	 4
?select_flight_mfd_event@@YGXPAUEVENT@@@Z ENDP		; select_flight_mfd_event
_TEXT	ENDS
; Function compile flags: /Odtp /ZI
; File c:\users\nhv90\projects\eech\aphavoc\source\gunships\avionics\ka50\hm_avevn.c
;	COMDAT ?select_engine_mfd_event@@YGXPAUEVENT@@@Z
_TEXT	SEGMENT
_ev$ = 8						; size = 4
?select_engine_mfd_event@@YGXPAUEVENT@@@Z PROC		; select_engine_mfd_event, COMDAT

; 610  : {

  00000	55		 push	 ebp
  00001	8b ec		 mov	 ebp, esp
  00003	83 ec 40	 sub	 esp, 64			; 00000040H
  00006	53		 push	 ebx
  00007	56		 push	 esi
  00008	57		 push	 edi

; 611  : 	select_ka50_mfd_mode (KA50_MFD_MODE_ENGINE, KA50_MFD_LOCATION_ABRIS);

  00009	6a 01		 push	 1
  0000b	6a 07		 push	 7
  0000d	e8 00 00 00 00	 call	 ?select_ka50_mfd_mode@@YGXW4KA50_MFD_MODES@@W4KA50_MFD_LOCATIONS@@@Z ; select_ka50_mfd_mode

; 612  : }

  00012	5f		 pop	 edi
  00013	5e		 pop	 esi
  00014	5b		 pop	 ebx
  00015	8b e5		 mov	 esp, ebp
  00017	5d		 pop	 ebp
  00018	c2 04 00	 ret	 4
?select_engine_mfd_event@@YGXPAUEVENT@@@Z ENDP		; select_engine_mfd_event
_TEXT	ENDS
; Function compile flags: /Odtp /ZI
; File c:\users\nhv90\projects\eech\aphavoc\source\gunships\avionics\ka50\hm_avevn.c
;	COMDAT ?select_system_mfd_event@@YGXPAUEVENT@@@Z
_TEXT	SEGMENT
_ev$ = 8						; size = 4
?select_system_mfd_event@@YGXPAUEVENT@@@Z PROC		; select_system_mfd_event, COMDAT

; 601  : {

  00000	55		 push	 ebp
  00001	8b ec		 mov	 ebp, esp
  00003	83 ec 40	 sub	 esp, 64			; 00000040H
  00006	53		 push	 ebx
  00007	56		 push	 esi
  00008	57		 push	 edi

; 602  : 	select_ka50_mfd_mode (KA50_MFD_MODE_SYSTEM, KA50_MFD_LOCATION_ABRIS);

  00009	6a 01		 push	 1
  0000b	6a 06		 push	 6
  0000d	e8 00 00 00 00	 call	 ?select_ka50_mfd_mode@@YGXW4KA50_MFD_MODES@@W4KA50_MFD_LOCATIONS@@@Z ; select_ka50_mfd_mode

; 603  : }

  00012	5f		 pop	 edi
  00013	5e		 pop	 esi
  00014	5b		 pop	 ebx
  00015	8b e5		 mov	 esp, ebp
  00017	5d		 pop	 ebp
  00018	c2 04 00	 ret	 4
?select_system_mfd_event@@YGXPAUEVENT@@@Z ENDP		; select_system_mfd_event
_TEXT	ENDS
; Function compile flags: /Odtp /ZI
; File c:\users\nhv90\projects\eech\aphavoc\source\gunships\avionics\ka50\hm_avevn.c
;	COMDAT ?select_weapon_mfd_event@@YGXPAUEVENT@@@Z
_TEXT	SEGMENT
_ev$ = 8						; size = 4
?select_weapon_mfd_event@@YGXPAUEVENT@@@Z PROC		; select_weapon_mfd_event, COMDAT

; 592  : {

  00000	55		 push	 ebp
  00001	8b ec		 mov	 ebp, esp
  00003	83 ec 40	 sub	 esp, 64			; 00000040H
  00006	53		 push	 ebx
  00007	56		 push	 esi
  00008	57		 push	 edi

; 593  : 	select_ka50_mfd_mode (KA50_MFD_MODE_WEAPON, KA50_MFD_LOCATION_ABRIS);

  00009	6a 01		 push	 1
  0000b	6a 05		 push	 5
  0000d	e8 00 00 00 00	 call	 ?select_ka50_mfd_mode@@YGXW4KA50_MFD_MODES@@W4KA50_MFD_LOCATIONS@@@Z ; select_ka50_mfd_mode

; 594  : }

  00012	5f		 pop	 edi
  00013	5e		 pop	 esi
  00014	5b		 pop	 ebx
  00015	8b e5		 mov	 esp, ebp
  00017	5d		 pop	 ebp
  00018	c2 04 00	 ret	 4
?select_weapon_mfd_event@@YGXPAUEVENT@@@Z ENDP		; select_weapon_mfd_event
_TEXT	ENDS
; Function compile flags: /Odtp /ZI
; File c:\users\nhv90\projects\eech\aphavoc\source\gunships\avionics\ka50\hm_avevn.c
;	COMDAT ?select_ase_mfd_event@@YGXPAUEVENT@@@Z
_TEXT	SEGMENT
_ev$ = 8						; size = 4
?select_ase_mfd_event@@YGXPAUEVENT@@@Z PROC		; select_ase_mfd_event, COMDAT

; 583  : {

  00000	55		 push	 ebp
  00001	8b ec		 mov	 ebp, esp
  00003	83 ec 40	 sub	 esp, 64			; 00000040H
  00006	53		 push	 ebx
  00007	56		 push	 esi
  00008	57		 push	 edi

; 584  : 	select_ka50_mfd_mode (KA50_MFD_MODE_ASE, KA50_MFD_LOCATION_ABRIS);

  00009	6a 01		 push	 1
  0000b	6a 04		 push	 4
  0000d	e8 00 00 00 00	 call	 ?select_ka50_mfd_mode@@YGXW4KA50_MFD_MODES@@W4KA50_MFD_LOCATIONS@@@Z ; select_ka50_mfd_mode

; 585  : }

  00012	5f		 pop	 edi
  00013	5e		 pop	 esi
  00014	5b		 pop	 ebx
  00015	8b e5		 mov	 esp, ebp
  00017	5d		 pop	 ebp
  00018	c2 04 00	 ret	 4
?select_ase_mfd_event@@YGXPAUEVENT@@@Z ENDP		; select_ase_mfd_event
_TEXT	ENDS
; Function compile flags: /Odtp /ZI
; File c:\users\nhv90\projects\eech\aphavoc\source\gunships\avionics\ka50\hm_avevn.c
;	COMDAT ?select_tsd_mfd_event@@YGXPAUEVENT@@@Z
_TEXT	SEGMENT
_ev$ = 8						; size = 4
?select_tsd_mfd_event@@YGXPAUEVENT@@@Z PROC		; select_tsd_mfd_event, COMDAT

; 574  : {

  00000	55		 push	 ebp
  00001	8b ec		 mov	 ebp, esp
  00003	83 ec 40	 sub	 esp, 64			; 00000040H
  00006	53		 push	 ebx
  00007	56		 push	 esi
  00008	57		 push	 edi

; 575  : 	select_ka50_mfd_mode (KA50_MFD_MODE_TSD, KA50_MFD_LOCATION_ABRIS);

  00009	6a 01		 push	 1
  0000b	6a 03		 push	 3
  0000d	e8 00 00 00 00	 call	 ?select_ka50_mfd_mode@@YGXW4KA50_MFD_MODES@@W4KA50_MFD_LOCATIONS@@@Z ; select_ka50_mfd_mode

; 576  : }

  00012	5f		 pop	 edi
  00013	5e		 pop	 esi
  00014	5b		 pop	 ebx
  00015	8b e5		 mov	 esp, ebp
  00017	5d		 pop	 ebp
  00018	c2 04 00	 ret	 4
?select_tsd_mfd_event@@YGXPAUEVENT@@@Z ENDP		; select_tsd_mfd_event
_TEXT	ENDS
; Function compile flags: /Odtp /ZI
; File c:\users\nhv90\projects\eech\aphavoc\source\gunships\avionics\ka50\hm_avevn.c
;	COMDAT ?select_previous_mfd_event@@YGXPAUEVENT@@@Z
_TEXT	SEGMENT
_ev$ = 8						; size = 4
?select_previous_mfd_event@@YGXPAUEVENT@@@Z PROC	; select_previous_mfd_event, COMDAT

; 565  : {

  00000	55		 push	 ebp
  00001	8b ec		 mov	 ebp, esp
  00003	83 ec 40	 sub	 esp, 64			; 00000040H
  00006	53		 push	 ebx
  00007	56		 push	 esi
  00008	57		 push	 edi

; 566  : 	select_previous_ka50_mfd (KA50_MFD_LOCATION_ABRIS);

  00009	6a 01		 push	 1
  0000b	e8 00 00 00 00	 call	 ?select_previous_ka50_mfd@@YGXW4KA50_MFD_LOCATIONS@@@Z ; select_previous_ka50_mfd

; 567  : }

  00010	5f		 pop	 edi
  00011	5e		 pop	 esi
  00012	5b		 pop	 ebx
  00013	8b e5		 mov	 esp, ebp
  00015	5d		 pop	 ebp
  00016	c2 04 00	 ret	 4
?select_previous_mfd_event@@YGXPAUEVENT@@@Z ENDP	; select_previous_mfd_event
_TEXT	ENDS
; Function compile flags: /Odtp /ZI
; File c:\users\nhv90\projects\eech\aphavoc\source\gunships\avionics\ka50\hm_avevn.c
;	COMDAT ?select_next_mfd_event@@YGXPAUEVENT@@@Z
_TEXT	SEGMENT
_ev$ = 8						; size = 4
?select_next_mfd_event@@YGXPAUEVENT@@@Z PROC		; select_next_mfd_event, COMDAT

; 556  : {

  00000	55		 push	 ebp
  00001	8b ec		 mov	 ebp, esp
  00003	83 ec 40	 sub	 esp, 64			; 00000040H
  00006	53		 push	 ebx
  00007	56		 push	 esi
  00008	57		 push	 edi

; 557  : 	select_next_ka50_mfd (KA50_MFD_LOCATION_ABRIS);

  00009	6a 01		 push	 1
  0000b	e8 00 00 00 00	 call	 ?select_next_ka50_mfd@@YGXW4KA50_MFD_LOCATIONS@@@Z ; select_next_ka50_mfd

; 558  : }

  00010	5f		 pop	 edi
  00011	5e		 pop	 esi
  00012	5b		 pop	 ebx
  00013	8b e5		 mov	 esp, ebp
  00015	5d		 pop	 ebp
  00016	c2 04 00	 ret	 4
?select_next_mfd_event@@YGXPAUEVENT@@@Z ENDP		; select_next_mfd_event
_TEXT	ENDS
; Function compile flags: /Odtp /ZI
; File c:\users\nhv90\projects\eech\aphavoc\source\gunships\avionics\ka50\hm_avevn.c
;	COMDAT ?toggle_ase_auto_page_event@@YGXPAUEVENT@@@Z
_TEXT	SEGMENT
_ev$ = 8						; size = 4
?toggle_ase_auto_page_event@@YGXPAUEVENT@@@Z PROC	; toggle_ase_auto_page_event, COMDAT

; 547  : {

  00000	55		 push	 ebp
  00001	8b ec		 mov	 ebp, esp
  00003	83 ec 40	 sub	 esp, 64			; 00000040H
  00006	53		 push	 ebx
  00007	56		 push	 esi
  00008	57		 push	 edi

; 548  : 	toggle_ka50_ase_auto_page ();

  00009	e8 00 00 00 00	 call	 ?toggle_ka50_ase_auto_page@@YGXXZ ; toggle_ka50_ase_auto_page

; 549  : }

  0000e	5f		 pop	 edi
  0000f	5e		 pop	 esi
  00010	5b		 pop	 ebx
  00011	8b e5		 mov	 esp, ebp
  00013	5d		 pop	 ebp
  00014	c2 04 00	 ret	 4
?toggle_ase_auto_page_event@@YGXPAUEVENT@@@Z ENDP	; toggle_ase_auto_page_event
_TEXT	ENDS
; Function compile flags: /Odtp /ZI
; File c:\users\nhv90\projects\eech\aphavoc\source\gunships\avionics\ka50\hm_avevn.c
;	COMDAT ?select_previous_tsd_declutter_level_event@@YGXPAUEVENT@@@Z
_TEXT	SEGMENT
_ev$ = 8						; size = 4
?select_previous_tsd_declutter_level_event@@YGXPAUEVENT@@@Z PROC ; select_previous_tsd_declutter_level_event, COMDAT

; 538  : {

  00000	55		 push	 ebp
  00001	8b ec		 mov	 ebp, esp
  00003	83 ec 40	 sub	 esp, 64			; 00000040H
  00006	53		 push	 ebx
  00007	56		 push	 esi
  00008	57		 push	 edi

; 539  : 	select_previous_ka50_tsd_declutter_level ();

  00009	e8 00 00 00 00	 call	 ?select_previous_ka50_tsd_declutter_level@@YGXXZ ; select_previous_ka50_tsd_declutter_level

; 540  : }

  0000e	5f		 pop	 edi
  0000f	5e		 pop	 esi
  00010	5b		 pop	 ebx
  00011	8b e5		 mov	 esp, ebp
  00013	5d		 pop	 ebp
  00014	c2 04 00	 ret	 4
?select_previous_tsd_declutter_level_event@@YGXPAUEVENT@@@Z ENDP ; select_previous_tsd_declutter_level_event
_TEXT	ENDS
; Function compile flags: /Odtp /ZI
; File c:\users\nhv90\projects\eech\aphavoc\source\gunships\avionics\ka50\hm_avevn.c
;	COMDAT ?select_next_tsd_declutter_level_event@@YGXPAUEVENT@@@Z
_TEXT	SEGMENT
_ev$ = 8						; size = 4
?select_next_tsd_declutter_level_event@@YGXPAUEVENT@@@Z PROC ; select_next_tsd_declutter_level_event, COMDAT

; 529  : {

  00000	55		 push	 ebp
  00001	8b ec		 mov	 ebp, esp
  00003	83 ec 40	 sub	 esp, 64			; 00000040H
  00006	53		 push	 ebx
  00007	56		 push	 esi
  00008	57		 push	 edi

; 530  : 	select_next_ka50_tsd_declutter_level ();

  00009	e8 00 00 00 00	 call	 ?select_next_ka50_tsd_declutter_level@@YGXXZ ; select_next_ka50_tsd_declutter_level

; 531  : }

  0000e	5f		 pop	 edi
  0000f	5e		 pop	 esi
  00010	5b		 pop	 ebx
  00011	8b e5		 mov	 esp, ebp
  00013	5d		 pop	 ebp
  00014	c2 04 00	 ret	 4
?select_next_tsd_declutter_level_event@@YGXPAUEVENT@@@Z ENDP ; select_next_tsd_declutter_level_event
_TEXT	ENDS
; Function compile flags: /Odtp /ZI
; File c:\users\nhv90\projects\eech\aphavoc\source\gunships\avionics\ka50\hm_avevn.c
;	COMDAT ?select_previous_tsd_ase_range_event@@YGXPAUEVENT@@@Z
_TEXT	SEGMENT
_ev$ = 8						; size = 4
?select_previous_tsd_ase_range_event@@YGXPAUEVENT@@@Z PROC ; select_previous_tsd_ase_range_event, COMDAT

; 520  : {

  00000	55		 push	 ebp
  00001	8b ec		 mov	 ebp, esp
  00003	83 ec 40	 sub	 esp, 64			; 00000040H
  00006	53		 push	 ebx
  00007	56		 push	 esi
  00008	57		 push	 edi

; 521  : 	select_previous_ka50_tsd_ase_range ();

  00009	e8 00 00 00 00	 call	 ?select_previous_ka50_tsd_ase_range@@YGXXZ ; select_previous_ka50_tsd_ase_range

; 522  : }

  0000e	5f		 pop	 edi
  0000f	5e		 pop	 esi
  00010	5b		 pop	 ebx
  00011	8b e5		 mov	 esp, ebp
  00013	5d		 pop	 ebp
  00014	c2 04 00	 ret	 4
?select_previous_tsd_ase_range_event@@YGXPAUEVENT@@@Z ENDP ; select_previous_tsd_ase_range_event
_TEXT	ENDS
; Function compile flags: /Odtp /ZI
; File c:\users\nhv90\projects\eech\aphavoc\source\gunships\avionics\ka50\hm_avevn.c
;	COMDAT ?select_next_tsd_ase_range_event@@YGXPAUEVENT@@@Z
_TEXT	SEGMENT
_ev$ = 8						; size = 4
?select_next_tsd_ase_range_event@@YGXPAUEVENT@@@Z PROC	; select_next_tsd_ase_range_event, COMDAT

; 511  : {

  00000	55		 push	 ebp
  00001	8b ec		 mov	 ebp, esp
  00003	83 ec 40	 sub	 esp, 64			; 00000040H
  00006	53		 push	 ebx
  00007	56		 push	 esi
  00008	57		 push	 edi

; 512  : 	select_next_ka50_tsd_ase_range ();

  00009	e8 00 00 00 00	 call	 ?select_next_ka50_tsd_ase_range@@YGXXZ ; select_next_ka50_tsd_ase_range

; 513  : }

  0000e	5f		 pop	 edi
  0000f	5e		 pop	 esi
  00010	5b		 pop	 ebx
  00011	8b e5		 mov	 esp, ebp
  00013	5d		 pop	 ebp
  00014	c2 04 00	 ret	 4
?select_next_tsd_ase_range_event@@YGXPAUEVENT@@@Z ENDP	; select_next_tsd_ase_range_event
_TEXT	ENDS
; Function compile flags: /Odtp /ZI
; File c:\users\nhv90\projects\eech\aphavoc\source\gunships\avionics\ka50\hm_avevn.c
;	COMDAT ?select_cannon_event@@YGXPAUEVENT@@@Z
_TEXT	SEGMENT
_ev$ = 8						; size = 4
?select_cannon_event@@YGXPAUEVENT@@@Z PROC		; select_cannon_event, COMDAT

; 495  : {

  00000	55		 push	 ebp
  00001	8b ec		 mov	 ebp, esp
  00003	83 ec 40	 sub	 esp, 64			; 00000040H
  00006	53		 push	 ebx
  00007	56		 push	 esi
  00008	57		 push	 edi

; 496  : 	if (get_local_entity_weapon_available (get_gunship_entity (), ENTITY_SUB_TYPE_WEAPON_2A42_30MM_HE_ROUND))

  00009	6a 13		 push	 19			; 00000013H
  0000b	a1 00 00 00 00	 mov	 eax, DWORD PTR ?gunship_entity@@3PAUENTITY@@A ; gunship_entity
  00010	50		 push	 eax
  00011	e8 00 00 00 00	 call	 ?get_local_entity_weapon_available@@YGHPAUENTITY@@H@Z ; get_local_entity_weapon_available
  00016	85 c0		 test	 eax, eax
  00018	74 09		 je	 SHORT $LN2@select_can

; 497  : 	{
; 498  : 		set_gunship_weapon (ENTITY_SUB_TYPE_WEAPON_2A42_30MM_HE_ROUND);

  0001a	6a 13		 push	 19			; 00000013H
  0001c	e8 00 00 00 00	 call	 ?set_gunship_weapon@@YGXH@Z ; set_gunship_weapon
  00021	eb 18		 jmp	 SHORT $LN1@select_can
$LN2@select_can:

; 499  : 	}
; 500  : 	else if (get_local_entity_weapon_available (get_gunship_entity (), ENTITY_SUB_TYPE_WEAPON_2A42_30MM_AP_ROUND))

  00023	6a 14		 push	 20			; 00000014H
  00025	a1 00 00 00 00	 mov	 eax, DWORD PTR ?gunship_entity@@3PAUENTITY@@A ; gunship_entity
  0002a	50		 push	 eax
  0002b	e8 00 00 00 00	 call	 ?get_local_entity_weapon_available@@YGHPAUENTITY@@H@Z ; get_local_entity_weapon_available
  00030	85 c0		 test	 eax, eax
  00032	74 07		 je	 SHORT $LN1@select_can

; 501  : 	{
; 502  : 		set_gunship_weapon (ENTITY_SUB_TYPE_WEAPON_2A42_30MM_AP_ROUND);

  00034	6a 14		 push	 20			; 00000014H
  00036	e8 00 00 00 00	 call	 ?set_gunship_weapon@@YGXH@Z ; set_gunship_weapon
$LN1@select_can:

; 503  : 	}
; 504  : }

  0003b	5f		 pop	 edi
  0003c	5e		 pop	 esi
  0003d	5b		 pop	 ebx
  0003e	8b e5		 mov	 esp, ebp
  00040	5d		 pop	 ebp
  00041	c2 04 00	 ret	 4
?select_cannon_event@@YGXPAUEVENT@@@Z ENDP		; select_cannon_event
_TEXT	ENDS
; Function compile flags: /Odtp /ZI
; File c:\users\nhv90\projects\eech\aphavoc\source\gunships\avionics\ka50\hm_avevn.c
;	COMDAT ?virtual_cockpit_track_target_event@@YGXPAUEVENT@@@Z
_TEXT	SEGMENT
_ev$ = 8						; size = 4
?virtual_cockpit_track_target_event@@YGXPAUEVENT@@@Z PROC ; virtual_cockpit_track_target_event, COMDAT

; 471  : {

  00000	55		 push	 ebp
  00001	8b ec		 mov	 ebp, esp
  00003	83 ec 40	 sub	 esp, 64			; 00000040H
  00006	53		 push	 ebx
  00007	56		 push	 esi
  00008	57		 push	 edi

; 472  : 	ASSERT (ev);

  00009	83 7d 08 00	 cmp	 DWORD PTR _ev$[ebp], 0
  0000d	75 18		 jne	 SHORT $LN2@virtual_co
  0000f	a1 00 00 00 00	 mov	 eax, DWORD PTR ?__LINE__Var@?0??virtual_cockpit_track_target_event@@YGXPAUEVENT@@@Z@4JA
  00014	83 c0 01	 add	 eax, 1
  00017	50		 push	 eax
  00018	68 00 00 00 00	 push	 OFFSET ??_C@_0EO@FGHNAPPD@c?3?2users?2nhv90?2projects?2eech?2ap@
  0001d	68 00 00 00 00	 push	 OFFSET ??_C@_02DHMHPBFG@ev@
  00022	e8 00 00 00 00	 call	 ?process_assert@@YGXPBD0H@Z ; process_assert
$LN2@virtual_co:

; 473  : 
; 474  : 	if ((ev->key == DIK_1) || (get_view_mode () != VIEW_MODE_VIRTUAL_COCKPIT_TRACK_TARGET))

  00027	8b 45 08	 mov	 eax, DWORD PTR _ev$[ebp]
  0002a	0f b6 48 06	 movzx	 ecx, BYTE PTR [eax+6]
  0002e	83 f9 02	 cmp	 ecx, 2
  00031	74 09		 je	 SHORT $LN5@virtual_co
  00033	83 3d 00 00 00
	00 22		 cmp	 DWORD PTR ?view_mode@@3W4VIEW_MODES@@A, 34 ; view_mode, 00000022H
  0003a	74 14		 je	 SHORT $LN3@virtual_co
$LN5@virtual_co:

; 475  : 	{
; 476  : 		if (set_view_mode (VIEW_MODE_VIRTUAL_COCKPIT_TRACK_TARGET))

  0003c	6a 22		 push	 34			; 00000022H
  0003e	e8 00 00 00 00	 call	 ?set_view_mode@@YGHW4VIEW_MODES@@@Z ; set_view_mode
  00043	85 c0		 test	 eax, eax
  00045	74 07		 je	 SHORT $LN6@virtual_co

; 477  : 		{
; 478  : 			set_ka50_lock_target (TRUE);

  00047	6a 01		 push	 1
  00049	e8 00 00 00 00	 call	 ?set_ka50_lock_target@@YGXH@Z ; set_ka50_lock_target
$LN6@virtual_co:

; 479  : 		}
; 480  : 	}
; 481  : 	else

  0004e	eb 10		 jmp	 SHORT $LN1@virtual_co
$LN3@virtual_co:

; 482  : 	{
; 483  : 		if (get_view_mode () == VIEW_MODE_VIRTUAL_COCKPIT_TRACK_TARGET)

  00050	83 3d 00 00 00
	00 22		 cmp	 DWORD PTR ?view_mode@@3W4VIEW_MODES@@A, 34 ; view_mode, 00000022H
  00057	75 07		 jne	 SHORT $LN1@virtual_co

; 484  : 		{
; 485  : 			select_padlock_view_event (PADLOCK_MODE_NONE);

  00059	6a 00		 push	 0
  0005b	e8 00 00 00 00	 call	 ?select_padlock_view_event@@YGXW4PADLOCK_MODES@@@Z ; select_padlock_view_event
$LN1@virtual_co:

; 486  : 		}
; 487  : 	}
; 488  : }

  00060	5f		 pop	 edi
  00061	5e		 pop	 esi
  00062	5b		 pop	 ebx
  00063	8b e5		 mov	 esp, ebp
  00065	5d		 pop	 ebp
  00066	c2 04 00	 ret	 4
?virtual_cockpit_track_target_event@@YGXPAUEVENT@@@Z ENDP ; virtual_cockpit_track_target_event
_TEXT	ENDS
; Function compile flags: /Odtp /ZI
; File c:\users\nhv90\projects\eech\aphavoc\source\gunships\avionics\ka50\hm_avevn.c
;	COMDAT ?toggle_night_vision_system_event@@YGXPAUEVENT@@@Z
_TEXT	SEGMENT
_ev$ = 8						; size = 4
?toggle_night_vision_system_event@@YGXPAUEVENT@@@Z PROC	; toggle_night_vision_system_event, COMDAT

; 455  : {

  00000	55		 push	 ebp
  00001	8b ec		 mov	 ebp, esp
  00003	83 ec 40	 sub	 esp, 64			; 00000040H
  00006	53		 push	 ebx
  00007	56		 push	 esi
  00008	57		 push	 edi

; 456  : 	if (!ka50_damage.night_vision_goggles)

  00009	a1 00 00 00 00	 mov	 eax, DWORD PTR ?ka50_damage@@3TKA50_DAMAGE_FLAGS@@A ; ka50_damage
  0000e	c1 e8 0b	 shr	 eax, 11			; 0000000bH
  00011	83 e0 01	 and	 eax, 1
  00014	75 0f		 jne	 SHORT $LN2@toggle_nig

; 457  : 	{
; 458  : 		night_vision_system_active ^= 1;

  00016	a1 00 00 00 00	 mov	 eax, DWORD PTR ?night_vision_system_active@@3HA ; night_vision_system_active
  0001b	83 f0 01	 xor	 eax, 1
  0001e	a3 00 00 00 00	 mov	 DWORD PTR ?night_vision_system_active@@3HA, eax ; night_vision_system_active

; 459  : 	}
; 460  : 	else

  00023	eb 39		 jmp	 SHORT $LN3@toggle_nig
$LN2@toggle_nig:

; 461  : 	{
; 462  : 		play_client_server_cpg_message (get_gunship_entity (), 0.5, 1.0, SPEECH_CATEGORY_CPG_SYSTEMS, 1.0, SPEECH_CPG_NIGHT_VISION_GOGGLES_DAMAGED);

  00025	6a 1d		 push	 29			; 0000001dH
  00027	51		 push	 ecx
  00028	f3 0f 10 05 00
	00 00 00	 movss	 xmm0, DWORD PTR __real@3f800000
  00030	f3 0f 11 04 24	 movss	 DWORD PTR [esp], xmm0
  00035	6a 04		 push	 4
  00037	51		 push	 ecx
  00038	f3 0f 10 05 00
	00 00 00	 movss	 xmm0, DWORD PTR __real@3f800000
  00040	f3 0f 11 04 24	 movss	 DWORD PTR [esp], xmm0
  00045	51		 push	 ecx
  00046	f3 0f 10 05 00
	00 00 00	 movss	 xmm0, DWORD PTR __real@3f000000
  0004e	f3 0f 11 04 24	 movss	 DWORD PTR [esp], xmm0
  00053	a1 00 00 00 00	 mov	 eax, DWORD PTR ?gunship_entity@@3PAUENTITY@@A ; gunship_entity
  00058	50		 push	 eax
  00059	e8 00 00 00 00	 call	 ?play_client_server_cpg_message@@YGHPAUENTITY@@MMHMH@Z ; play_client_server_cpg_message
$LN3@toggle_nig:

; 463  : 	}
; 464  : }

  0005e	5f		 pop	 edi
  0005f	5e		 pop	 esi
  00060	5b		 pop	 ebx
  00061	8b e5		 mov	 esp, ebp
  00063	5d		 pop	 ebp
  00064	c2 04 00	 ret	 4
?toggle_night_vision_system_event@@YGXPAUEVENT@@@Z ENDP	; toggle_night_vision_system_event
_TEXT	ENDS
; Function compile flags: /Odtp /ZI
; File c:\users\nhv90\projects\eech\aphavoc\source\gunships\avionics\ka50\hm_avevn.c
;	COMDAT ?acknowledge_master_caution_event@@YGXPAUEVENT@@@Z
_TEXT	SEGMENT
_ev$ = 8						; size = 4
?acknowledge_master_caution_event@@YGXPAUEVENT@@@Z PROC	; acknowledge_master_caution_event, COMDAT

; 446  : {

  00000	55		 push	 ebp
  00001	8b ec		 mov	 ebp, esp
  00003	83 ec 40	 sub	 esp, 64			; 00000040H
  00006	53		 push	 ebx
  00007	56		 push	 esi
  00008	57		 push	 edi

; 447  : 	deactivate_ka50_master_caution ();

  00009	e8 00 00 00 00	 call	 ?deactivate_ka50_master_caution@@YGXXZ ; deactivate_ka50_master_caution

; 448  : }

  0000e	5f		 pop	 edi
  0000f	5e		 pop	 esi
  00010	5b		 pop	 ebx
  00011	8b e5		 mov	 esp, ebp
  00013	5d		 pop	 ebp
  00014	c2 04 00	 ret	 4
?acknowledge_master_caution_event@@YGXPAUEVENT@@@Z ENDP	; acknowledge_master_caution_event
_TEXT	ENDS
; Function compile flags: /Odtp /ZI
; File c:\users\nhv90\projects\eech\aphavoc\source\gunships\avionics\ka50\hm_avevn.c
;	COMDAT ?toggle_ground_stabilisation_event@@YGXPAUEVENT@@@Z
_TEXT	SEGMENT
_ev$ = 8						; size = 4
?toggle_ground_stabilisation_event@@YGXPAUEVENT@@@Z PROC ; toggle_ground_stabilisation_event, COMDAT

; 437  : {

  00000	55		 push	 ebp
  00001	8b ec		 mov	 ebp, esp
  00003	83 ec 40	 sub	 esp, 64			; 00000040H
  00006	53		 push	 ebx
  00007	56		 push	 esi
  00008	57		 push	 edi

; 438  : 	toggle_ground_stabilisation_key++;

  00009	a1 00 00 00 00	 mov	 eax, DWORD PTR ?toggle_ground_stabilisation_key@@3HA ; toggle_ground_stabilisation_key
  0000e	83 c0 01	 add	 eax, 1
  00011	a3 00 00 00 00	 mov	 DWORD PTR ?toggle_ground_stabilisation_key@@3HA, eax ; toggle_ground_stabilisation_key

; 439  : }

  00016	5f		 pop	 edi
  00017	5e		 pop	 esi
  00018	5b		 pop	 ebx
  00019	8b e5		 mov	 esp, ebp
  0001b	5d		 pop	 ebp
  0001c	c2 04 00	 ret	 4
?toggle_ground_stabilisation_event@@YGXPAUEVENT@@@Z ENDP ; toggle_ground_stabilisation_event
_TEXT	ENDS
; Function compile flags: /Odtp /ZI
; File c:\users\nhv90\projects\eech\aphavoc\source\gunships\avionics\ka50\hm_avevn.c
;	COMDAT ?toggle_lock_target_event@@YGXPAUEVENT@@@Z
_TEXT	SEGMENT
_ev$ = 8						; size = 4
?toggle_lock_target_event@@YGXPAUEVENT@@@Z PROC		; toggle_lock_target_event, COMDAT

; 428  : {

  00000	55		 push	 ebp
  00001	8b ec		 mov	 ebp, esp
  00003	83 ec 40	 sub	 esp, 64			; 00000040H
  00006	53		 push	 ebx
  00007	56		 push	 esi
  00008	57		 push	 edi

; 429  : 	toggle_ka50_lock_target ();

  00009	e8 00 00 00 00	 call	 ?toggle_ka50_lock_target@@YGXXZ ; toggle_ka50_lock_target

; 430  : }

  0000e	5f		 pop	 edi
  0000f	5e		 pop	 esi
  00010	5b		 pop	 ebx
  00011	8b e5		 mov	 esp, ebp
  00013	5d		 pop	 ebp
  00014	c2 04 00	 ret	 4
?toggle_lock_target_event@@YGXPAUEVENT@@@Z ENDP		; toggle_lock_target_event
_TEXT	ENDS
; Function compile flags: /Odtp /ZI
; File c:\users\nhv90\projects\eech\aphavoc\source\gunships\avionics\ka50\hm_avevn.c
;	COMDAT ?select_previous_target_event@@YGXPAUEVENT@@@Z
_TEXT	SEGMENT
_ev$ = 8						; size = 4
?select_previous_target_event@@YGXPAUEVENT@@@Z PROC	; select_previous_target_event, COMDAT

; 419  : {

  00000	55		 push	 ebp
  00001	8b ec		 mov	 ebp, esp
  00003	83 ec 40	 sub	 esp, 64			; 00000040H
  00006	53		 push	 ebx
  00007	56		 push	 esi
  00008	57		 push	 edi

; 420  : 	single_target_acquisition_system_select_previous_target_key++;

  00009	a1 00 00 00 00	 mov	 eax, DWORD PTR ?single_target_acquisition_system_select_previous_target_key@@3HA ; single_target_acquisition_system_select_previous_target_key
  0000e	83 c0 01	 add	 eax, 1
  00011	a3 00 00 00 00	 mov	 DWORD PTR ?single_target_acquisition_system_select_previous_target_key@@3HA, eax ; single_target_acquisition_system_select_previous_target_key

; 421  : }

  00016	5f		 pop	 edi
  00017	5e		 pop	 esi
  00018	5b		 pop	 ebx
  00019	8b e5		 mov	 esp, ebp
  0001b	5d		 pop	 ebp
  0001c	c2 04 00	 ret	 4
?select_previous_target_event@@YGXPAUEVENT@@@Z ENDP	; select_previous_target_event
_TEXT	ENDS
; Function compile flags: /Odtp /ZI
; File c:\users\nhv90\projects\eech\aphavoc\source\gunships\avionics\ka50\hm_avevn.c
;	COMDAT ?select_next_target_event@@YGXPAUEVENT@@@Z
_TEXT	SEGMENT
_ev$ = 8						; size = 4
?select_next_target_event@@YGXPAUEVENT@@@Z PROC		; select_next_target_event, COMDAT

; 410  : {

  00000	55		 push	 ebp
  00001	8b ec		 mov	 ebp, esp
  00003	83 ec 40	 sub	 esp, 64			; 00000040H
  00006	53		 push	 ebx
  00007	56		 push	 esi
  00008	57		 push	 edi

; 411  : 	single_target_acquisition_system_select_next_target_key++;

  00009	a1 00 00 00 00	 mov	 eax, DWORD PTR ?single_target_acquisition_system_select_next_target_key@@3HA ; single_target_acquisition_system_select_next_target_key
  0000e	83 c0 01	 add	 eax, 1
  00011	a3 00 00 00 00	 mov	 DWORD PTR ?single_target_acquisition_system_select_next_target_key@@3HA, eax ; single_target_acquisition_system_select_next_target_key

; 412  : }

  00016	5f		 pop	 edi
  00017	5e		 pop	 esi
  00018	5b		 pop	 ebx
  00019	8b e5		 mov	 esp, ebp
  0001b	5d		 pop	 ebp
  0001c	c2 04 00	 ret	 4
?select_next_target_event@@YGXPAUEVENT@@@Z ENDP		; select_next_target_event
_TEXT	ENDS
; Function compile flags: /Odtp /ZI
; File c:\users\nhv90\projects\eech\aphavoc\source\gunships\avionics\ka50\hm_avevn.c
;	COMDAT ?dec_target_priority_fast_event@@YGXPAUEVENT@@@Z
_TEXT	SEGMENT
_ev$ = 8						; size = 4
?dec_target_priority_fast_event@@YGXPAUEVENT@@@Z PROC	; dec_target_priority_fast_event, COMDAT

; 401  : {

  00000	55		 push	 ebp
  00001	8b ec		 mov	 ebp, esp
  00003	83 ec 40	 sub	 esp, 64			; 00000040H
  00006	53		 push	 ebx
  00007	56		 push	 esi
  00008	57		 push	 edi

; 402  : 	single_target_acquisition_system_dec_target_priority_fast_key++;

  00009	a1 00 00 00 00	 mov	 eax, DWORD PTR ?single_target_acquisition_system_dec_target_priority_fast_key@@3HA ; single_target_acquisition_system_dec_target_priority_fast_key
  0000e	83 c0 01	 add	 eax, 1
  00011	a3 00 00 00 00	 mov	 DWORD PTR ?single_target_acquisition_system_dec_target_priority_fast_key@@3HA, eax ; single_target_acquisition_system_dec_target_priority_fast_key

; 403  : }

  00016	5f		 pop	 edi
  00017	5e		 pop	 esi
  00018	5b		 pop	 ebx
  00019	8b e5		 mov	 esp, ebp
  0001b	5d		 pop	 ebp
  0001c	c2 04 00	 ret	 4
?dec_target_priority_fast_event@@YGXPAUEVENT@@@Z ENDP	; dec_target_priority_fast_event
_TEXT	ENDS
; Function compile flags: /Odtp /ZI
; File c:\users\nhv90\projects\eech\aphavoc\source\gunships\avionics\ka50\hm_avevn.c
;	COMDAT ?dec_target_priority_event@@YGXPAUEVENT@@@Z
_TEXT	SEGMENT
_ev$ = 8						; size = 4
?dec_target_priority_event@@YGXPAUEVENT@@@Z PROC	; dec_target_priority_event, COMDAT

; 392  : {

  00000	55		 push	 ebp
  00001	8b ec		 mov	 ebp, esp
  00003	83 ec 40	 sub	 esp, 64			; 00000040H
  00006	53		 push	 ebx
  00007	56		 push	 esi
  00008	57		 push	 edi

; 393  : 	single_target_acquisition_system_dec_target_priority_key++;

  00009	a1 00 00 00 00	 mov	 eax, DWORD PTR ?single_target_acquisition_system_dec_target_priority_key@@3HA ; single_target_acquisition_system_dec_target_priority_key
  0000e	83 c0 01	 add	 eax, 1
  00011	a3 00 00 00 00	 mov	 DWORD PTR ?single_target_acquisition_system_dec_target_priority_key@@3HA, eax ; single_target_acquisition_system_dec_target_priority_key

; 394  : }

  00016	5f		 pop	 edi
  00017	5e		 pop	 esi
  00018	5b		 pop	 ebx
  00019	8b e5		 mov	 esp, ebp
  0001b	5d		 pop	 ebp
  0001c	c2 04 00	 ret	 4
?dec_target_priority_event@@YGXPAUEVENT@@@Z ENDP	; dec_target_priority_event
_TEXT	ENDS
; Function compile flags: /Odtp /ZI
; File c:\users\nhv90\projects\eech\aphavoc\source\gunships\avionics\ka50\hm_avevn.c
;	COMDAT ?inc_target_priority_fast_event@@YGXPAUEVENT@@@Z
_TEXT	SEGMENT
_ev$ = 8						; size = 4
?inc_target_priority_fast_event@@YGXPAUEVENT@@@Z PROC	; inc_target_priority_fast_event, COMDAT

; 383  : {

  00000	55		 push	 ebp
  00001	8b ec		 mov	 ebp, esp
  00003	83 ec 40	 sub	 esp, 64			; 00000040H
  00006	53		 push	 ebx
  00007	56		 push	 esi
  00008	57		 push	 edi

; 384  : 	single_target_acquisition_system_inc_target_priority_fast_key++;

  00009	a1 00 00 00 00	 mov	 eax, DWORD PTR ?single_target_acquisition_system_inc_target_priority_fast_key@@3HA ; single_target_acquisition_system_inc_target_priority_fast_key
  0000e	83 c0 01	 add	 eax, 1
  00011	a3 00 00 00 00	 mov	 DWORD PTR ?single_target_acquisition_system_inc_target_priority_fast_key@@3HA, eax ; single_target_acquisition_system_inc_target_priority_fast_key

; 385  : }

  00016	5f		 pop	 edi
  00017	5e		 pop	 esi
  00018	5b		 pop	 ebx
  00019	8b e5		 mov	 esp, ebp
  0001b	5d		 pop	 ebp
  0001c	c2 04 00	 ret	 4
?inc_target_priority_fast_event@@YGXPAUEVENT@@@Z ENDP	; inc_target_priority_fast_event
_TEXT	ENDS
; Function compile flags: /Odtp /ZI
; File c:\users\nhv90\projects\eech\aphavoc\source\gunships\avionics\ka50\hm_avevn.c
;	COMDAT ?inc_target_priority_event@@YGXPAUEVENT@@@Z
_TEXT	SEGMENT
_ev$ = 8						; size = 4
?inc_target_priority_event@@YGXPAUEVENT@@@Z PROC	; inc_target_priority_event, COMDAT

; 374  : {

  00000	55		 push	 ebp
  00001	8b ec		 mov	 ebp, esp
  00003	83 ec 40	 sub	 esp, 64			; 00000040H
  00006	53		 push	 ebx
  00007	56		 push	 esi
  00008	57		 push	 edi

; 375  : 	single_target_acquisition_system_inc_target_priority_key++;

  00009	a1 00 00 00 00	 mov	 eax, DWORD PTR ?single_target_acquisition_system_inc_target_priority_key@@3HA ; single_target_acquisition_system_inc_target_priority_key
  0000e	83 c0 01	 add	 eax, 1
  00011	a3 00 00 00 00	 mov	 DWORD PTR ?single_target_acquisition_system_inc_target_priority_key@@3HA, eax ; single_target_acquisition_system_inc_target_priority_key

; 376  : }

  00016	5f		 pop	 edi
  00017	5e		 pop	 esi
  00018	5b		 pop	 ebx
  00019	8b e5		 mov	 esp, ebp
  0001b	5d		 pop	 ebp
  0001c	c2 04 00	 ret	 4
?inc_target_priority_event@@YGXPAUEVENT@@@Z ENDP	; inc_target_priority_event
_TEXT	ENDS
; Function compile flags: /Odtp /ZI
; File c:\users\nhv90\projects\eech\aphavoc\source\gunships\avionics\ka50\hm_avevn.c
;	COMDAT ?steer_centre_event@@YGXPAUEVENT@@@Z
_TEXT	SEGMENT
_ev$ = 8						; size = 4
?steer_centre_event@@YGXPAUEVENT@@@Z PROC		; steer_centre_event, COMDAT

; 365  : {

  00000	55		 push	 ebp
  00001	8b ec		 mov	 ebp, esp
  00003	83 ec 40	 sub	 esp, 64			; 00000040H
  00006	53		 push	 ebx
  00007	56		 push	 esi
  00008	57		 push	 edi

; 366  : 	centre_ka50_target_acquisition_system ();

  00009	e8 00 00 00 00	 call	 ?centre_ka50_target_acquisition_system@@YGXXZ ; centre_ka50_target_acquisition_system

; 367  : }

  0000e	5f		 pop	 edi
  0000f	5e		 pop	 esi
  00010	5b		 pop	 ebx
  00011	8b e5		 mov	 esp, ebp
  00013	5d		 pop	 ebp
  00014	c2 04 00	 ret	 4
?steer_centre_event@@YGXPAUEVENT@@@Z ENDP		; steer_centre_event
_TEXT	ENDS
; Function compile flags: /Odtp /ZI
; File c:\users\nhv90\projects\eech\aphavoc\source\gunships\avionics\ka50\hm_avevn.c
;	COMDAT ?dec_range_fast_event@@YGXPAUEVENT@@@Z
_TEXT	SEGMENT
_ev$ = 8						; size = 4
?dec_range_fast_event@@YGXPAUEVENT@@@Z PROC		; dec_range_fast_event, COMDAT

; 356  : {

  00000	55		 push	 ebp
  00001	8b ec		 mov	 ebp, esp
  00003	83 ec 40	 sub	 esp, 64			; 00000040H
  00006	53		 push	 ebx
  00007	56		 push	 esi
  00008	57		 push	 edi

; 357  : 	single_target_acquisition_system_dec_range_fast_key++;

  00009	a1 00 00 00 00	 mov	 eax, DWORD PTR ?single_target_acquisition_system_dec_range_fast_key@@3HA ; single_target_acquisition_system_dec_range_fast_key
  0000e	83 c0 01	 add	 eax, 1
  00011	a3 00 00 00 00	 mov	 DWORD PTR ?single_target_acquisition_system_dec_range_fast_key@@3HA, eax ; single_target_acquisition_system_dec_range_fast_key

; 358  : }

  00016	5f		 pop	 edi
  00017	5e		 pop	 esi
  00018	5b		 pop	 ebx
  00019	8b e5		 mov	 esp, ebp
  0001b	5d		 pop	 ebp
  0001c	c2 04 00	 ret	 4
?dec_range_fast_event@@YGXPAUEVENT@@@Z ENDP		; dec_range_fast_event
_TEXT	ENDS
; Function compile flags: /Odtp /ZI
; File c:\users\nhv90\projects\eech\aphavoc\source\gunships\avionics\ka50\hm_avevn.c
;	COMDAT ?dec_eo_zoom_event@@YGXPAUEVENT@@@Z
_TEXT	SEGMENT
_ev$ = 8						; size = 4
?dec_eo_zoom_event@@YGXPAUEVENT@@@Z PROC		; dec_eo_zoom_event, COMDAT

; 347  : {

  00000	55		 push	 ebp
  00001	8b ec		 mov	 ebp, esp
  00003	83 ec 40	 sub	 esp, 64			; 00000040H
  00006	53		 push	 ebx
  00007	56		 push	 esi
  00008	57		 push	 edi

; 348  : 	dec_ka50_eo_zoom();

  00009	e8 00 00 00 00	 call	 ?dec_ka50_eo_zoom@@YGXXZ ; dec_ka50_eo_zoom

; 349  : }

  0000e	5f		 pop	 edi
  0000f	5e		 pop	 esi
  00010	5b		 pop	 ebx
  00011	8b e5		 mov	 esp, ebp
  00013	5d		 pop	 ebp
  00014	c2 04 00	 ret	 4
?dec_eo_zoom_event@@YGXPAUEVENT@@@Z ENDP		; dec_eo_zoom_event
_TEXT	ENDS
; Function compile flags: /Odtp /ZI
; File c:\users\nhv90\projects\eech\aphavoc\source\gunships\avionics\ka50\hm_avevn.c
;	COMDAT ?inc_eo_zoom_event@@YGXPAUEVENT@@@Z
_TEXT	SEGMENT
_ev$ = 8						; size = 4
?inc_eo_zoom_event@@YGXPAUEVENT@@@Z PROC		; inc_eo_zoom_event, COMDAT

; 342  : {

  00000	55		 push	 ebp
  00001	8b ec		 mov	 ebp, esp
  00003	83 ec 40	 sub	 esp, 64			; 00000040H
  00006	53		 push	 ebx
  00007	56		 push	 esi
  00008	57		 push	 edi

; 343  : 	inc_ka50_eo_zoom();

  00009	e8 00 00 00 00	 call	 ?inc_ka50_eo_zoom@@YGXXZ ; inc_ka50_eo_zoom

; 344  : }

  0000e	5f		 pop	 edi
  0000f	5e		 pop	 esi
  00010	5b		 pop	 ebx
  00011	8b e5		 mov	 esp, ebp
  00013	5d		 pop	 ebp
  00014	c2 04 00	 ret	 4
?inc_eo_zoom_event@@YGXPAUEVENT@@@Z ENDP		; inc_eo_zoom_event
_TEXT	ENDS
; Function compile flags: /Odtp /ZI
; File c:\users\nhv90\projects\eech\aphavoc\source\gunships\avionics\ka50\hm_avevn.c
;	COMDAT ?dec_range_event@@YGXPAUEVENT@@@Z
_TEXT	SEGMENT
_ev$ = 8						; size = 4
?dec_range_event@@YGXPAUEVENT@@@Z PROC			; dec_range_event, COMDAT

; 333  : {

  00000	55		 push	 ebp
  00001	8b ec		 mov	 ebp, esp
  00003	83 ec 40	 sub	 esp, 64			; 00000040H
  00006	53		 push	 ebx
  00007	56		 push	 esi
  00008	57		 push	 edi

; 334  : 	single_target_acquisition_system_dec_range_key++;

  00009	a1 00 00 00 00	 mov	 eax, DWORD PTR ?single_target_acquisition_system_dec_range_key@@3HA ; single_target_acquisition_system_dec_range_key
  0000e	83 c0 01	 add	 eax, 1
  00011	a3 00 00 00 00	 mov	 DWORD PTR ?single_target_acquisition_system_dec_range_key@@3HA, eax ; single_target_acquisition_system_dec_range_key

; 335  : }

  00016	5f		 pop	 edi
  00017	5e		 pop	 esi
  00018	5b		 pop	 ebx
  00019	8b e5		 mov	 esp, ebp
  0001b	5d		 pop	 ebp
  0001c	c2 04 00	 ret	 4
?dec_range_event@@YGXPAUEVENT@@@Z ENDP			; dec_range_event
_TEXT	ENDS
; Function compile flags: /Odtp /ZI
; File c:\users\nhv90\projects\eech\aphavoc\source\gunships\avionics\ka50\hm_avevn.c
;	COMDAT ?inc_range_fast_event@@YGXPAUEVENT@@@Z
_TEXT	SEGMENT
_ev$ = 8						; size = 4
?inc_range_fast_event@@YGXPAUEVENT@@@Z PROC		; inc_range_fast_event, COMDAT

; 324  : {

  00000	55		 push	 ebp
  00001	8b ec		 mov	 ebp, esp
  00003	83 ec 40	 sub	 esp, 64			; 00000040H
  00006	53		 push	 ebx
  00007	56		 push	 esi
  00008	57		 push	 edi

; 325  : 	single_target_acquisition_system_inc_range_fast_key++;

  00009	a1 00 00 00 00	 mov	 eax, DWORD PTR ?single_target_acquisition_system_inc_range_fast_key@@3HA ; single_target_acquisition_system_inc_range_fast_key
  0000e	83 c0 01	 add	 eax, 1
  00011	a3 00 00 00 00	 mov	 DWORD PTR ?single_target_acquisition_system_inc_range_fast_key@@3HA, eax ; single_target_acquisition_system_inc_range_fast_key

; 326  : }

  00016	5f		 pop	 edi
  00017	5e		 pop	 esi
  00018	5b		 pop	 ebx
  00019	8b e5		 mov	 esp, ebp
  0001b	5d		 pop	 ebp
  0001c	c2 04 00	 ret	 4
?inc_range_fast_event@@YGXPAUEVENT@@@Z ENDP		; inc_range_fast_event
_TEXT	ENDS
; Function compile flags: /Odtp /ZI
; File c:\users\nhv90\projects\eech\aphavoc\source\gunships\avionics\ka50\hm_avevn.c
;	COMDAT ?inc_range_event@@YGXPAUEVENT@@@Z
_TEXT	SEGMENT
_ev$ = 8						; size = 4
?inc_range_event@@YGXPAUEVENT@@@Z PROC			; inc_range_event, COMDAT

; 315  : {

  00000	55		 push	 ebp
  00001	8b ec		 mov	 ebp, esp
  00003	83 ec 40	 sub	 esp, 64			; 00000040H
  00006	53		 push	 ebx
  00007	56		 push	 esi
  00008	57		 push	 edi

; 316  : 	single_target_acquisition_system_inc_range_key++;

  00009	a1 00 00 00 00	 mov	 eax, DWORD PTR ?single_target_acquisition_system_inc_range_key@@3HA ; single_target_acquisition_system_inc_range_key
  0000e	83 c0 01	 add	 eax, 1
  00011	a3 00 00 00 00	 mov	 DWORD PTR ?single_target_acquisition_system_inc_range_key@@3HA, eax ; single_target_acquisition_system_inc_range_key

; 317  : }

  00016	5f		 pop	 edi
  00017	5e		 pop	 esi
  00018	5b		 pop	 ebx
  00019	8b e5		 mov	 esp, ebp
  0001b	5d		 pop	 ebp
  0001c	c2 04 00	 ret	 4
?inc_range_event@@YGXPAUEVENT@@@Z ENDP			; inc_range_event
_TEXT	ENDS
; Function compile flags: /Odtp /ZI
; File c:\users\nhv90\projects\eech\aphavoc\source\gunships\avionics\ka50\hm_avevn.c
;	COMDAT ?steer_down_fine_event@@YGXPAUEVENT@@@Z
_TEXT	SEGMENT
_ev$ = 8						; size = 4
?steer_down_fine_event@@YGXPAUEVENT@@@Z PROC		; steer_down_fine_event, COMDAT

; 299  : {

  00000	55		 push	 ebp
  00001	8b ec		 mov	 ebp, esp
  00003	83 ec 40	 sub	 esp, 64			; 00000040H
  00006	53		 push	 ebx
  00007	56		 push	 esi
  00008	57		 push	 edi

; 300  : 	if (ev->state == KEY_STATE_DOWN)

  00009	8b 45 08	 mov	 eax, DWORD PTR _ev$[ebp]
  0000c	0f b7 48 08	 movzx	 ecx, WORD PTR [eax+8]
  00010	83 f9 02	 cmp	 ecx, 2
  00013	75 0c		 jne	 SHORT $LN2@steer_down

; 301  : 	{
; 302  : 		continuous_target_acquisition_system_steer_down_fine_key = TRUE;

  00015	c7 05 00 00 00
	00 01 00 00 00	 mov	 DWORD PTR ?continuous_target_acquisition_system_steer_down_fine_key@@3HA, 1 ; continuous_target_acquisition_system_steer_down_fine_key

; 303  : 	}
; 304  : 	else

  0001f	eb 0a		 jmp	 SHORT $LN1@steer_down
$LN2@steer_down:

; 305  : 	{
; 306  : 		continuous_target_acquisition_system_steer_down_fine_key = FALSE;

  00021	c7 05 00 00 00
	00 00 00 00 00	 mov	 DWORD PTR ?continuous_target_acquisition_system_steer_down_fine_key@@3HA, 0 ; continuous_target_acquisition_system_steer_down_fine_key
$LN1@steer_down:

; 307  : 	}
; 308  : }

  0002b	5f		 pop	 edi
  0002c	5e		 pop	 esi
  0002d	5b		 pop	 ebx
  0002e	8b e5		 mov	 esp, ebp
  00030	5d		 pop	 ebp
  00031	c2 04 00	 ret	 4
?steer_down_fine_event@@YGXPAUEVENT@@@Z ENDP		; steer_down_fine_event
_TEXT	ENDS
; Function compile flags: /Odtp /ZI
; File c:\users\nhv90\projects\eech\aphavoc\source\gunships\avionics\ka50\hm_avevn.c
;	COMDAT ?steer_down_fast_event@@YGXPAUEVENT@@@Z
_TEXT	SEGMENT
_ev$ = 8						; size = 4
?steer_down_fast_event@@YGXPAUEVENT@@@Z PROC		; steer_down_fast_event, COMDAT

; 281  : {

  00000	55		 push	 ebp
  00001	8b ec		 mov	 ebp, esp
  00003	83 ec 40	 sub	 esp, 64			; 00000040H
  00006	53		 push	 ebx
  00007	56		 push	 esi
  00008	57		 push	 edi

; 282  : 	if (ev->state == KEY_STATE_DOWN)

  00009	8b 45 08	 mov	 eax, DWORD PTR _ev$[ebp]
  0000c	0f b7 48 08	 movzx	 ecx, WORD PTR [eax+8]
  00010	83 f9 02	 cmp	 ecx, 2
  00013	75 19		 jne	 SHORT $LN2@steer_down

; 283  : 	{
; 284  : 		continuous_target_acquisition_system_steer_down_fast_key = TRUE;

  00015	c7 05 00 00 00
	00 01 00 00 00	 mov	 DWORD PTR ?continuous_target_acquisition_system_steer_down_fast_key@@3HA, 1 ; continuous_target_acquisition_system_steer_down_fast_key

; 285  : 
; 286  : 		single_target_acquisition_system_steer_down_fast_key++;

  0001f	a1 00 00 00 00	 mov	 eax, DWORD PTR ?single_target_acquisition_system_steer_down_fast_key@@3HA ; single_target_acquisition_system_steer_down_fast_key
  00024	83 c0 01	 add	 eax, 1
  00027	a3 00 00 00 00	 mov	 DWORD PTR ?single_target_acquisition_system_steer_down_fast_key@@3HA, eax ; single_target_acquisition_system_steer_down_fast_key

; 287  : 	}
; 288  : 	else

  0002c	eb 0a		 jmp	 SHORT $LN1@steer_down
$LN2@steer_down:

; 289  : 	{
; 290  : 		continuous_target_acquisition_system_steer_down_fast_key = FALSE;

  0002e	c7 05 00 00 00
	00 00 00 00 00	 mov	 DWORD PTR ?continuous_target_acquisition_system_steer_down_fast_key@@3HA, 0 ; continuous_target_acquisition_system_steer_down_fast_key
$LN1@steer_down:

; 291  : 	}
; 292  : }

  00038	5f		 pop	 edi
  00039	5e		 pop	 esi
  0003a	5b		 pop	 ebx
  0003b	8b e5		 mov	 esp, ebp
  0003d	5d		 pop	 ebp
  0003e	c2 04 00	 ret	 4
?steer_down_fast_event@@YGXPAUEVENT@@@Z ENDP		; steer_down_fast_event
_TEXT	ENDS
; Function compile flags: /Odtp /ZI
; File c:\users\nhv90\projects\eech\aphavoc\source\gunships\avionics\ka50\hm_avevn.c
;	COMDAT ?steer_down_event@@YGXPAUEVENT@@@Z
_TEXT	SEGMENT
_ev$ = 8						; size = 4
?steer_down_event@@YGXPAUEVENT@@@Z PROC			; steer_down_event, COMDAT

; 263  : {

  00000	55		 push	 ebp
  00001	8b ec		 mov	 ebp, esp
  00003	83 ec 40	 sub	 esp, 64			; 00000040H
  00006	53		 push	 ebx
  00007	56		 push	 esi
  00008	57		 push	 edi

; 264  : 	if (ev->state == KEY_STATE_DOWN)

  00009	8b 45 08	 mov	 eax, DWORD PTR _ev$[ebp]
  0000c	0f b7 48 08	 movzx	 ecx, WORD PTR [eax+8]
  00010	83 f9 02	 cmp	 ecx, 2
  00013	75 19		 jne	 SHORT $LN2@steer_down

; 265  : 	{
; 266  : 		continuous_target_acquisition_system_steer_down_key = TRUE;

  00015	c7 05 00 00 00
	00 01 00 00 00	 mov	 DWORD PTR ?continuous_target_acquisition_system_steer_down_key@@3HA, 1 ; continuous_target_acquisition_system_steer_down_key

; 267  : 
; 268  : 		single_target_acquisition_system_steer_down_key++;

  0001f	a1 00 00 00 00	 mov	 eax, DWORD PTR ?single_target_acquisition_system_steer_down_key@@3HA ; single_target_acquisition_system_steer_down_key
  00024	83 c0 01	 add	 eax, 1
  00027	a3 00 00 00 00	 mov	 DWORD PTR ?single_target_acquisition_system_steer_down_key@@3HA, eax ; single_target_acquisition_system_steer_down_key

; 269  : 	}
; 270  : 	else

  0002c	eb 0a		 jmp	 SHORT $LN1@steer_down
$LN2@steer_down:

; 271  : 	{
; 272  : 		continuous_target_acquisition_system_steer_down_key = FALSE;

  0002e	c7 05 00 00 00
	00 00 00 00 00	 mov	 DWORD PTR ?continuous_target_acquisition_system_steer_down_key@@3HA, 0 ; continuous_target_acquisition_system_steer_down_key
$LN1@steer_down:

; 273  : 	}
; 274  : }

  00038	5f		 pop	 edi
  00039	5e		 pop	 esi
  0003a	5b		 pop	 ebx
  0003b	8b e5		 mov	 esp, ebp
  0003d	5d		 pop	 ebp
  0003e	c2 04 00	 ret	 4
?steer_down_event@@YGXPAUEVENT@@@Z ENDP			; steer_down_event
_TEXT	ENDS
; Function compile flags: /Odtp /ZI
; File c:\users\nhv90\projects\eech\aphavoc\source\gunships\avionics\ka50\hm_avevn.c
;	COMDAT ?steer_up_fine_event@@YGXPAUEVENT@@@Z
_TEXT	SEGMENT
_ev$ = 8						; size = 4
?steer_up_fine_event@@YGXPAUEVENT@@@Z PROC		; steer_up_fine_event, COMDAT

; 247  : {

  00000	55		 push	 ebp
  00001	8b ec		 mov	 ebp, esp
  00003	83 ec 40	 sub	 esp, 64			; 00000040H
  00006	53		 push	 ebx
  00007	56		 push	 esi
  00008	57		 push	 edi

; 248  : 	if (ev->state == KEY_STATE_DOWN)

  00009	8b 45 08	 mov	 eax, DWORD PTR _ev$[ebp]
  0000c	0f b7 48 08	 movzx	 ecx, WORD PTR [eax+8]
  00010	83 f9 02	 cmp	 ecx, 2
  00013	75 0c		 jne	 SHORT $LN2@steer_up_f

; 249  : 	{
; 250  : 		continuous_target_acquisition_system_steer_up_fine_key = TRUE;

  00015	c7 05 00 00 00
	00 01 00 00 00	 mov	 DWORD PTR ?continuous_target_acquisition_system_steer_up_fine_key@@3HA, 1 ; continuous_target_acquisition_system_steer_up_fine_key

; 251  : 	}
; 252  : 	else

  0001f	eb 0a		 jmp	 SHORT $LN1@steer_up_f
$LN2@steer_up_f:

; 253  : 	{
; 254  : 		continuous_target_acquisition_system_steer_up_fine_key = FALSE;

  00021	c7 05 00 00 00
	00 00 00 00 00	 mov	 DWORD PTR ?continuous_target_acquisition_system_steer_up_fine_key@@3HA, 0 ; continuous_target_acquisition_system_steer_up_fine_key
$LN1@steer_up_f:

; 255  : 	}
; 256  : }

  0002b	5f		 pop	 edi
  0002c	5e		 pop	 esi
  0002d	5b		 pop	 ebx
  0002e	8b e5		 mov	 esp, ebp
  00030	5d		 pop	 ebp
  00031	c2 04 00	 ret	 4
?steer_up_fine_event@@YGXPAUEVENT@@@Z ENDP		; steer_up_fine_event
_TEXT	ENDS
; Function compile flags: /Odtp /ZI
; File c:\users\nhv90\projects\eech\aphavoc\source\gunships\avionics\ka50\hm_avevn.c
;	COMDAT ?steer_up_fast_event@@YGXPAUEVENT@@@Z
_TEXT	SEGMENT
_ev$ = 8						; size = 4
?steer_up_fast_event@@YGXPAUEVENT@@@Z PROC		; steer_up_fast_event, COMDAT

; 229  : {

  00000	55		 push	 ebp
  00001	8b ec		 mov	 ebp, esp
  00003	83 ec 40	 sub	 esp, 64			; 00000040H
  00006	53		 push	 ebx
  00007	56		 push	 esi
  00008	57		 push	 edi

; 230  : 	if (ev->state == KEY_STATE_DOWN)

  00009	8b 45 08	 mov	 eax, DWORD PTR _ev$[ebp]
  0000c	0f b7 48 08	 movzx	 ecx, WORD PTR [eax+8]
  00010	83 f9 02	 cmp	 ecx, 2
  00013	75 19		 jne	 SHORT $LN2@steer_up_f

; 231  : 	{
; 232  : 		continuous_target_acquisition_system_steer_up_fast_key = TRUE;

  00015	c7 05 00 00 00
	00 01 00 00 00	 mov	 DWORD PTR ?continuous_target_acquisition_system_steer_up_fast_key@@3HA, 1 ; continuous_target_acquisition_system_steer_up_fast_key

; 233  : 
; 234  : 		single_target_acquisition_system_steer_up_fast_key++;

  0001f	a1 00 00 00 00	 mov	 eax, DWORD PTR ?single_target_acquisition_system_steer_up_fast_key@@3HA ; single_target_acquisition_system_steer_up_fast_key
  00024	83 c0 01	 add	 eax, 1
  00027	a3 00 00 00 00	 mov	 DWORD PTR ?single_target_acquisition_system_steer_up_fast_key@@3HA, eax ; single_target_acquisition_system_steer_up_fast_key

; 235  : 	}
; 236  : 	else

  0002c	eb 0a		 jmp	 SHORT $LN1@steer_up_f
$LN2@steer_up_f:

; 237  : 	{
; 238  : 		continuous_target_acquisition_system_steer_up_fast_key = FALSE;

  0002e	c7 05 00 00 00
	00 00 00 00 00	 mov	 DWORD PTR ?continuous_target_acquisition_system_steer_up_fast_key@@3HA, 0 ; continuous_target_acquisition_system_steer_up_fast_key
$LN1@steer_up_f:

; 239  : 	}
; 240  : }

  00038	5f		 pop	 edi
  00039	5e		 pop	 esi
  0003a	5b		 pop	 ebx
  0003b	8b e5		 mov	 esp, ebp
  0003d	5d		 pop	 ebp
  0003e	c2 04 00	 ret	 4
?steer_up_fast_event@@YGXPAUEVENT@@@Z ENDP		; steer_up_fast_event
_TEXT	ENDS
; Function compile flags: /Odtp /ZI
; File c:\users\nhv90\projects\eech\aphavoc\source\gunships\avionics\ka50\hm_avevn.c
;	COMDAT ?steer_up_event@@YGXPAUEVENT@@@Z
_TEXT	SEGMENT
_ev$ = 8						; size = 4
?steer_up_event@@YGXPAUEVENT@@@Z PROC			; steer_up_event, COMDAT

; 211  : {

  00000	55		 push	 ebp
  00001	8b ec		 mov	 ebp, esp
  00003	83 ec 40	 sub	 esp, 64			; 00000040H
  00006	53		 push	 ebx
  00007	56		 push	 esi
  00008	57		 push	 edi

; 212  : 	if (ev->state == KEY_STATE_DOWN)

  00009	8b 45 08	 mov	 eax, DWORD PTR _ev$[ebp]
  0000c	0f b7 48 08	 movzx	 ecx, WORD PTR [eax+8]
  00010	83 f9 02	 cmp	 ecx, 2
  00013	75 19		 jne	 SHORT $LN2@steer_up_e

; 213  : 	{
; 214  : 		continuous_target_acquisition_system_steer_up_key = TRUE;

  00015	c7 05 00 00 00
	00 01 00 00 00	 mov	 DWORD PTR ?continuous_target_acquisition_system_steer_up_key@@3HA, 1 ; continuous_target_acquisition_system_steer_up_key

; 215  : 
; 216  : 		single_target_acquisition_system_steer_up_key++;

  0001f	a1 00 00 00 00	 mov	 eax, DWORD PTR ?single_target_acquisition_system_steer_up_key@@3HA ; single_target_acquisition_system_steer_up_key
  00024	83 c0 01	 add	 eax, 1
  00027	a3 00 00 00 00	 mov	 DWORD PTR ?single_target_acquisition_system_steer_up_key@@3HA, eax ; single_target_acquisition_system_steer_up_key

; 217  : 	}
; 218  : 	else

  0002c	eb 0a		 jmp	 SHORT $LN1@steer_up_e
$LN2@steer_up_e:

; 219  : 	{
; 220  : 		continuous_target_acquisition_system_steer_up_key = FALSE;

  0002e	c7 05 00 00 00
	00 00 00 00 00	 mov	 DWORD PTR ?continuous_target_acquisition_system_steer_up_key@@3HA, 0 ; continuous_target_acquisition_system_steer_up_key
$LN1@steer_up_e:

; 221  : 	}
; 222  : }

  00038	5f		 pop	 edi
  00039	5e		 pop	 esi
  0003a	5b		 pop	 ebx
  0003b	8b e5		 mov	 esp, ebp
  0003d	5d		 pop	 ebp
  0003e	c2 04 00	 ret	 4
?steer_up_event@@YGXPAUEVENT@@@Z ENDP			; steer_up_event
_TEXT	ENDS
; Function compile flags: /Odtp /ZI
; File c:\users\nhv90\projects\eech\aphavoc\source\gunships\avionics\ka50\hm_avevn.c
;	COMDAT ?steer_right_fine_event@@YGXPAUEVENT@@@Z
_TEXT	SEGMENT
_ev$ = 8						; size = 4
?steer_right_fine_event@@YGXPAUEVENT@@@Z PROC		; steer_right_fine_event, COMDAT

; 195  : {

  00000	55		 push	 ebp
  00001	8b ec		 mov	 ebp, esp
  00003	83 ec 40	 sub	 esp, 64			; 00000040H
  00006	53		 push	 ebx
  00007	56		 push	 esi
  00008	57		 push	 edi

; 196  : 	if (ev->state == KEY_STATE_DOWN)

  00009	8b 45 08	 mov	 eax, DWORD PTR _ev$[ebp]
  0000c	0f b7 48 08	 movzx	 ecx, WORD PTR [eax+8]
  00010	83 f9 02	 cmp	 ecx, 2
  00013	75 0c		 jne	 SHORT $LN2@steer_righ

; 197  : 	{
; 198  : 		continuous_target_acquisition_system_steer_right_fine_key = TRUE;

  00015	c7 05 00 00 00
	00 01 00 00 00	 mov	 DWORD PTR ?continuous_target_acquisition_system_steer_right_fine_key@@3HA, 1 ; continuous_target_acquisition_system_steer_right_fine_key

; 199  : 	}
; 200  : 	else

  0001f	eb 0a		 jmp	 SHORT $LN1@steer_righ
$LN2@steer_righ:

; 201  : 	{
; 202  : 		continuous_target_acquisition_system_steer_right_fine_key = FALSE;

  00021	c7 05 00 00 00
	00 00 00 00 00	 mov	 DWORD PTR ?continuous_target_acquisition_system_steer_right_fine_key@@3HA, 0 ; continuous_target_acquisition_system_steer_right_fine_key
$LN1@steer_righ:

; 203  : 	}
; 204  : }

  0002b	5f		 pop	 edi
  0002c	5e		 pop	 esi
  0002d	5b		 pop	 ebx
  0002e	8b e5		 mov	 esp, ebp
  00030	5d		 pop	 ebp
  00031	c2 04 00	 ret	 4
?steer_right_fine_event@@YGXPAUEVENT@@@Z ENDP		; steer_right_fine_event
_TEXT	ENDS
; Function compile flags: /Odtp /ZI
; File c:\users\nhv90\projects\eech\aphavoc\source\gunships\avionics\ka50\hm_avevn.c
;	COMDAT ?steer_right_fast_event@@YGXPAUEVENT@@@Z
_TEXT	SEGMENT
_ev$ = 8						; size = 4
?steer_right_fast_event@@YGXPAUEVENT@@@Z PROC		; steer_right_fast_event, COMDAT

; 177  : {

  00000	55		 push	 ebp
  00001	8b ec		 mov	 ebp, esp
  00003	83 ec 40	 sub	 esp, 64			; 00000040H
  00006	53		 push	 ebx
  00007	56		 push	 esi
  00008	57		 push	 edi

; 178  : 	if (ev->state == KEY_STATE_DOWN)

  00009	8b 45 08	 mov	 eax, DWORD PTR _ev$[ebp]
  0000c	0f b7 48 08	 movzx	 ecx, WORD PTR [eax+8]
  00010	83 f9 02	 cmp	 ecx, 2
  00013	75 19		 jne	 SHORT $LN2@steer_righ

; 179  : 	{
; 180  : 		continuous_target_acquisition_system_steer_right_fast_key = TRUE;

  00015	c7 05 00 00 00
	00 01 00 00 00	 mov	 DWORD PTR ?continuous_target_acquisition_system_steer_right_fast_key@@3HA, 1 ; continuous_target_acquisition_system_steer_right_fast_key

; 181  : 
; 182  : 		single_target_acquisition_system_steer_right_fast_key++;

  0001f	a1 00 00 00 00	 mov	 eax, DWORD PTR ?single_target_acquisition_system_steer_right_fast_key@@3HA ; single_target_acquisition_system_steer_right_fast_key
  00024	83 c0 01	 add	 eax, 1
  00027	a3 00 00 00 00	 mov	 DWORD PTR ?single_target_acquisition_system_steer_right_fast_key@@3HA, eax ; single_target_acquisition_system_steer_right_fast_key

; 183  : 	}
; 184  : 	else

  0002c	eb 0a		 jmp	 SHORT $LN1@steer_righ
$LN2@steer_righ:

; 185  : 	{
; 186  : 		continuous_target_acquisition_system_steer_right_fast_key = FALSE;

  0002e	c7 05 00 00 00
	00 00 00 00 00	 mov	 DWORD PTR ?continuous_target_acquisition_system_steer_right_fast_key@@3HA, 0 ; continuous_target_acquisition_system_steer_right_fast_key
$LN1@steer_righ:

; 187  : 	}
; 188  : }

  00038	5f		 pop	 edi
  00039	5e		 pop	 esi
  0003a	5b		 pop	 ebx
  0003b	8b e5		 mov	 esp, ebp
  0003d	5d		 pop	 ebp
  0003e	c2 04 00	 ret	 4
?steer_right_fast_event@@YGXPAUEVENT@@@Z ENDP		; steer_right_fast_event
_TEXT	ENDS
; Function compile flags: /Odtp /ZI
; File c:\users\nhv90\projects\eech\aphavoc\source\gunships\avionics\ka50\hm_avevn.c
;	COMDAT ?steer_right_event@@YGXPAUEVENT@@@Z
_TEXT	SEGMENT
_ev$ = 8						; size = 4
?steer_right_event@@YGXPAUEVENT@@@Z PROC		; steer_right_event, COMDAT

; 159  : {

  00000	55		 push	 ebp
  00001	8b ec		 mov	 ebp, esp
  00003	83 ec 40	 sub	 esp, 64			; 00000040H
  00006	53		 push	 ebx
  00007	56		 push	 esi
  00008	57		 push	 edi

; 160  : 	if (ev->state == KEY_STATE_DOWN)

  00009	8b 45 08	 mov	 eax, DWORD PTR _ev$[ebp]
  0000c	0f b7 48 08	 movzx	 ecx, WORD PTR [eax+8]
  00010	83 f9 02	 cmp	 ecx, 2
  00013	75 19		 jne	 SHORT $LN2@steer_righ

; 161  : 	{
; 162  : 		continuous_target_acquisition_system_steer_right_key = TRUE;

  00015	c7 05 00 00 00
	00 01 00 00 00	 mov	 DWORD PTR ?continuous_target_acquisition_system_steer_right_key@@3HA, 1 ; continuous_target_acquisition_system_steer_right_key

; 163  : 
; 164  : 		single_target_acquisition_system_steer_right_key++;

  0001f	a1 00 00 00 00	 mov	 eax, DWORD PTR ?single_target_acquisition_system_steer_right_key@@3HA ; single_target_acquisition_system_steer_right_key
  00024	83 c0 01	 add	 eax, 1
  00027	a3 00 00 00 00	 mov	 DWORD PTR ?single_target_acquisition_system_steer_right_key@@3HA, eax ; single_target_acquisition_system_steer_right_key

; 165  : 	}
; 166  : 	else

  0002c	eb 0a		 jmp	 SHORT $LN1@steer_righ
$LN2@steer_righ:

; 167  : 	{
; 168  : 		continuous_target_acquisition_system_steer_right_key = FALSE;

  0002e	c7 05 00 00 00
	00 00 00 00 00	 mov	 DWORD PTR ?continuous_target_acquisition_system_steer_right_key@@3HA, 0 ; continuous_target_acquisition_system_steer_right_key
$LN1@steer_righ:

; 169  : 	}
; 170  : }

  00038	5f		 pop	 edi
  00039	5e		 pop	 esi
  0003a	5b		 pop	 ebx
  0003b	8b e5		 mov	 esp, ebp
  0003d	5d		 pop	 ebp
  0003e	c2 04 00	 ret	 4
?steer_right_event@@YGXPAUEVENT@@@Z ENDP		; steer_right_event
_TEXT	ENDS
; Function compile flags: /Odtp /ZI
; File c:\users\nhv90\projects\eech\aphavoc\source\gunships\avionics\ka50\hm_avevn.c
;	COMDAT ?steer_left_fine_event@@YGXPAUEVENT@@@Z
_TEXT	SEGMENT
_ev$ = 8						; size = 4
?steer_left_fine_event@@YGXPAUEVENT@@@Z PROC		; steer_left_fine_event, COMDAT

; 143  : {

  00000	55		 push	 ebp
  00001	8b ec		 mov	 ebp, esp
  00003	83 ec 40	 sub	 esp, 64			; 00000040H
  00006	53		 push	 ebx
  00007	56		 push	 esi
  00008	57		 push	 edi

; 144  : 	if (ev->state == KEY_STATE_DOWN)

  00009	8b 45 08	 mov	 eax, DWORD PTR _ev$[ebp]
  0000c	0f b7 48 08	 movzx	 ecx, WORD PTR [eax+8]
  00010	83 f9 02	 cmp	 ecx, 2
  00013	75 0c		 jne	 SHORT $LN2@steer_left

; 145  : 	{
; 146  : 		continuous_target_acquisition_system_steer_left_fine_key = TRUE;

  00015	c7 05 00 00 00
	00 01 00 00 00	 mov	 DWORD PTR ?continuous_target_acquisition_system_steer_left_fine_key@@3HA, 1 ; continuous_target_acquisition_system_steer_left_fine_key

; 147  : 	}
; 148  : 	else

  0001f	eb 0a		 jmp	 SHORT $LN1@steer_left
$LN2@steer_left:

; 149  : 	{
; 150  : 		continuous_target_acquisition_system_steer_left_fine_key = FALSE;

  00021	c7 05 00 00 00
	00 00 00 00 00	 mov	 DWORD PTR ?continuous_target_acquisition_system_steer_left_fine_key@@3HA, 0 ; continuous_target_acquisition_system_steer_left_fine_key
$LN1@steer_left:

; 151  : 	}
; 152  : }

  0002b	5f		 pop	 edi
  0002c	5e		 pop	 esi
  0002d	5b		 pop	 ebx
  0002e	8b e5		 mov	 esp, ebp
  00030	5d		 pop	 ebp
  00031	c2 04 00	 ret	 4
?steer_left_fine_event@@YGXPAUEVENT@@@Z ENDP		; steer_left_fine_event
_TEXT	ENDS
; Function compile flags: /Odtp /ZI
; File c:\users\nhv90\projects\eech\aphavoc\source\gunships\avionics\ka50\hm_avevn.c
;	COMDAT ?steer_left_fast_event@@YGXPAUEVENT@@@Z
_TEXT	SEGMENT
_ev$ = 8						; size = 4
?steer_left_fast_event@@YGXPAUEVENT@@@Z PROC		; steer_left_fast_event, COMDAT

; 125  : {

  00000	55		 push	 ebp
  00001	8b ec		 mov	 ebp, esp
  00003	83 ec 40	 sub	 esp, 64			; 00000040H
  00006	53		 push	 ebx
  00007	56		 push	 esi
  00008	57		 push	 edi

; 126  : 	if (ev->state == KEY_STATE_DOWN)

  00009	8b 45 08	 mov	 eax, DWORD PTR _ev$[ebp]
  0000c	0f b7 48 08	 movzx	 ecx, WORD PTR [eax+8]
  00010	83 f9 02	 cmp	 ecx, 2
  00013	75 19		 jne	 SHORT $LN2@steer_left

; 127  : 	{
; 128  : 		continuous_target_acquisition_system_steer_left_fast_key = TRUE;

  00015	c7 05 00 00 00
	00 01 00 00 00	 mov	 DWORD PTR ?continuous_target_acquisition_system_steer_left_fast_key@@3HA, 1 ; continuous_target_acquisition_system_steer_left_fast_key

; 129  : 
; 130  : 		single_target_acquisition_system_steer_left_fast_key++;

  0001f	a1 00 00 00 00	 mov	 eax, DWORD PTR ?single_target_acquisition_system_steer_left_fast_key@@3HA ; single_target_acquisition_system_steer_left_fast_key
  00024	83 c0 01	 add	 eax, 1
  00027	a3 00 00 00 00	 mov	 DWORD PTR ?single_target_acquisition_system_steer_left_fast_key@@3HA, eax ; single_target_acquisition_system_steer_left_fast_key

; 131  : 	}
; 132  : 	else

  0002c	eb 0a		 jmp	 SHORT $LN1@steer_left
$LN2@steer_left:

; 133  : 	{
; 134  : 		continuous_target_acquisition_system_steer_left_fast_key = FALSE;

  0002e	c7 05 00 00 00
	00 00 00 00 00	 mov	 DWORD PTR ?continuous_target_acquisition_system_steer_left_fast_key@@3HA, 0 ; continuous_target_acquisition_system_steer_left_fast_key
$LN1@steer_left:

; 135  : 	}
; 136  : }

  00038	5f		 pop	 edi
  00039	5e		 pop	 esi
  0003a	5b		 pop	 ebx
  0003b	8b e5		 mov	 esp, ebp
  0003d	5d		 pop	 ebp
  0003e	c2 04 00	 ret	 4
?steer_left_fast_event@@YGXPAUEVENT@@@Z ENDP		; steer_left_fast_event
_TEXT	ENDS
; Function compile flags: /Odtp /ZI
; File c:\users\nhv90\projects\eech\aphavoc\source\gunships\avionics\ka50\hm_avevn.c
;	COMDAT ?steer_left_event@@YGXPAUEVENT@@@Z
_TEXT	SEGMENT
_ev$ = 8						; size = 4
?steer_left_event@@YGXPAUEVENT@@@Z PROC			; steer_left_event, COMDAT

; 107  : {

  00000	55		 push	 ebp
  00001	8b ec		 mov	 ebp, esp
  00003	83 ec 40	 sub	 esp, 64			; 00000040H
  00006	53		 push	 ebx
  00007	56		 push	 esi
  00008	57		 push	 edi

; 108  : 	if (ev->state == KEY_STATE_DOWN)

  00009	8b 45 08	 mov	 eax, DWORD PTR _ev$[ebp]
  0000c	0f b7 48 08	 movzx	 ecx, WORD PTR [eax+8]
  00010	83 f9 02	 cmp	 ecx, 2
  00013	75 19		 jne	 SHORT $LN2@steer_left

; 109  : 	{
; 110  : 		continuous_target_acquisition_system_steer_left_key = TRUE;

  00015	c7 05 00 00 00
	00 01 00 00 00	 mov	 DWORD PTR ?continuous_target_acquisition_system_steer_left_key@@3HA, 1 ; continuous_target_acquisition_system_steer_left_key

; 111  : 
; 112  : 		single_target_acquisition_system_steer_left_key++;

  0001f	a1 00 00 00 00	 mov	 eax, DWORD PTR ?single_target_acquisition_system_steer_left_key@@3HA ; single_target_acquisition_system_steer_left_key
  00024	83 c0 01	 add	 eax, 1
  00027	a3 00 00 00 00	 mov	 DWORD PTR ?single_target_acquisition_system_steer_left_key@@3HA, eax ; single_target_acquisition_system_steer_left_key

; 113  : 	}
; 114  : 	else

  0002c	eb 0a		 jmp	 SHORT $LN1@steer_left
$LN2@steer_left:

; 115  : 	{
; 116  : 		continuous_target_acquisition_system_steer_left_key = FALSE;

  0002e	c7 05 00 00 00
	00 00 00 00 00	 mov	 DWORD PTR ?continuous_target_acquisition_system_steer_left_key@@3HA, 0 ; continuous_target_acquisition_system_steer_left_key
$LN1@steer_left:

; 117  : 	}
; 118  : }

  00038	5f		 pop	 edi
  00039	5e		 pop	 esi
  0003a	5b		 pop	 ebx
  0003b	8b e5		 mov	 esp, ebp
  0003d	5d		 pop	 ebp
  0003e	c2 04 00	 ret	 4
?steer_left_event@@YGXPAUEVENT@@@Z ENDP			; steer_left_event
_TEXT	ENDS
; Function compile flags: /Odtp /ZI
; File c:\users\nhv90\projects\eech\aphavoc\source\gunships\avionics\ka50\hm_avevn.c
;	COMDAT ?select_target_acquisition_system_hms_event@@YGXPAUEVENT@@@Z
_TEXT	SEGMENT
_ev$ = 8						; size = 4
?select_target_acquisition_system_hms_event@@YGXPAUEVENT@@@Z PROC ; select_target_acquisition_system_hms_event, COMDAT

; 95   : {

  00000	55		 push	 ebp
  00001	8b ec		 mov	 ebp, esp
  00003	83 ec 40	 sub	 esp, 64			; 00000040H
  00006	53		 push	 ebx
  00007	56		 push	 esi
  00008	57		 push	 edi

; 96   : 	if (!get_global_simple_avionics ())

  00009	83 3d 6c 03 00
	00 00		 cmp	 DWORD PTR ?global_options@@3UGLOBAL_OPTIONS_DATA@@A+876, 0
  00010	75 07		 jne	 SHORT $LN1@select_tar

; 97   : 	{
; 98   : 		select_ka50_target_acquisition_system (TARGET_ACQUISITION_SYSTEM_HMS);

  00012	6a 0a		 push	 10			; 0000000aH
  00014	e8 00 00 00 00	 call	 ?select_ka50_target_acquisition_system@@YGXW4TARGET_ACQUISITION_SYSTEMS@@@Z ; select_ka50_target_acquisition_system
$LN1@select_tar:

; 99   : 	}
; 100  : }

  00019	5f		 pop	 edi
  0001a	5e		 pop	 esi
  0001b	5b		 pop	 ebx
  0001c	8b e5		 mov	 esp, ebp
  0001e	5d		 pop	 ebp
  0001f	c2 04 00	 ret	 4
?select_target_acquisition_system_hms_event@@YGXPAUEVENT@@@Z ENDP ; select_target_acquisition_system_hms_event
_TEXT	ENDS
; Function compile flags: /Odtp /ZI
; File c:\users\nhv90\projects\eech\aphavoc\source\gunships\avionics\ka50\hm_avevn.c
;	COMDAT ?select_target_acquisition_system_flir_event@@YGXPAUEVENT@@@Z
_TEXT	SEGMENT
_ev$ = 8						; size = 4
?select_target_acquisition_system_flir_event@@YGXPAUEVENT@@@Z PROC ; select_target_acquisition_system_flir_event, COMDAT

; 83   : {

  00000	55		 push	 ebp
  00001	8b ec		 mov	 ebp, esp
  00003	83 ec 40	 sub	 esp, 64			; 00000040H
  00006	53		 push	 ebx
  00007	56		 push	 esi
  00008	57		 push	 edi

; 84   : 	if (!get_global_simple_avionics ())

  00009	83 3d 6c 03 00
	00 00		 cmp	 DWORD PTR ?global_options@@3UGLOBAL_OPTIONS_DATA@@A+876, 0
  00010	75 07		 jne	 SHORT $LN1@select_tar

; 85   : 	{
; 86   : 		select_ka50_target_acquisition_system (TARGET_ACQUISITION_SYSTEM_FLIR);

  00012	6a 03		 push	 3
  00014	e8 00 00 00 00	 call	 ?select_ka50_target_acquisition_system@@YGXW4TARGET_ACQUISITION_SYSTEMS@@@Z ; select_ka50_target_acquisition_system
$LN1@select_tar:

; 87   : 	}
; 88   : }

  00019	5f		 pop	 edi
  0001a	5e		 pop	 esi
  0001b	5b		 pop	 ebx
  0001c	8b e5		 mov	 esp, ebp
  0001e	5d		 pop	 ebp
  0001f	c2 04 00	 ret	 4
?select_target_acquisition_system_flir_event@@YGXPAUEVENT@@@Z ENDP ; select_target_acquisition_system_flir_event
_TEXT	ENDS
; Function compile flags: /Odtp /ZI
; File c:\users\nhv90\projects\eech\aphavoc\source\gunships\avionics\ka50\hm_avevn.c
;	COMDAT ?select_target_acquisition_system_off_event@@YGXPAUEVENT@@@Z
_TEXT	SEGMENT
_ev$ = 8						; size = 4
?select_target_acquisition_system_off_event@@YGXPAUEVENT@@@Z PROC ; select_target_acquisition_system_off_event, COMDAT

; 74   : {

  00000	55		 push	 ebp
  00001	8b ec		 mov	 ebp, esp
  00003	83 ec 40	 sub	 esp, 64			; 00000040H
  00006	53		 push	 ebx
  00007	56		 push	 esi
  00008	57		 push	 edi

; 75   : 	select_ka50_target_acquisition_system (TARGET_ACQUISITION_SYSTEM_OFF);

  00009	6a 00		 push	 0
  0000b	e8 00 00 00 00	 call	 ?select_ka50_target_acquisition_system@@YGXW4TARGET_ACQUISITION_SYSTEMS@@@Z ; select_ka50_target_acquisition_system

; 76   : }

  00010	5f		 pop	 edi
  00011	5e		 pop	 esi
  00012	5b		 pop	 ebx
  00013	8b e5		 mov	 esp, ebp
  00015	5d		 pop	 ebp
  00016	c2 04 00	 ret	 4
?select_target_acquisition_system_off_event@@YGXPAUEVENT@@@Z ENDP ; select_target_acquisition_system_off_event
_TEXT	ENDS
; Function compile flags: /Odtp /ZI
; File c:\users\nhv90\projects\eech\aphavoc\source\gunships\avionics\ka50\hm_avevn.c
;	COMDAT ?set_ka50_avionics_events@@YGXXZ
_TEXT	SEGMENT
?set_ka50_avionics_events@@YGXXZ PROC			; set_ka50_avionics_events, COMDAT

; 764  : {

  00000	55		 push	 ebp
  00001	8b ec		 mov	 ebp, esp
  00003	83 ec 40	 sub	 esp, 64			; 00000040H
  00006	53		 push	 ebx
  00007	56		 push	 esi
  00008	57		 push	 edi

; 765  : 	if (!get_gunship_entity ())

  00009	83 3d 00 00 00
	00 00		 cmp	 DWORD PTR ?gunship_entity@@3PAUENTITY@@A, 0 ; gunship_entity
  00010	75 05		 jne	 SHORT $LN2@set_ka50_a

; 766  : 	{
; 767  : 		return;

  00012	e9 a8 04 00 00	 jmp	 $LN1@set_ka50_a
$LN2@set_ka50_a:

; 768  : 	}
; 769  : 
; 770  : 	////////////////////////////////////////
; 771  : 	//
; 772  : 	// KEYBOARD EVENTS
; 773  : 	//
; 774  : 	////////////////////////////////////////
; 775  : 
; 776  : 	//
; 777  : 	// select target acquisition system
; 778  : 	//
; 779  : 
; 780  : 	set_event (DIK_DELETE, MODIFIER_LEFT_SHIFT, KEY_STATE_DOWN, select_target_acquisition_system_off_event);

  00017	68 00 00 00 00	 push	 OFFSET ?select_target_acquisition_system_off_event@@YGXPAUEVENT@@@Z ; select_target_acquisition_system_off_event
  0001c	6a 02		 push	 2
  0001e	6a 01		 push	 1
  00020	68 d3 00 00 00	 push	 211			; 000000d3H
  00025	e8 00 00 00 00	 call	 ?set_event@@YGXHHHP6GXPAUEVENT@@@Z@Z ; set_event

; 781  : 
; 782  : 	set_event (DIK_DELETE, MODIFIER_NONE, KEY_STATE_DOWN, select_target_acquisition_system_flir_event);

  0002a	68 00 00 00 00	 push	 OFFSET ?select_target_acquisition_system_flir_event@@YGXPAUEVENT@@@Z ; select_target_acquisition_system_flir_event
  0002f	6a 02		 push	 2
  00031	6a 00		 push	 0
  00033	68 d3 00 00 00	 push	 211			; 000000d3H
  00038	e8 00 00 00 00	 call	 ?set_event@@YGXHHHP6GXPAUEVENT@@@Z@Z ; set_event

; 783  : 
; 784  : 	set_event (DIK_PRIOR, MODIFIER_NONE, KEY_STATE_DOWN, select_target_acquisition_system_hms_event);

  0003d	68 00 00 00 00	 push	 OFFSET ?select_target_acquisition_system_hms_event@@YGXPAUEVENT@@@Z ; select_target_acquisition_system_hms_event
  00042	6a 02		 push	 2
  00044	6a 00		 push	 0
  00046	68 c9 00 00 00	 push	 201			; 000000c9H
  0004b	e8 00 00 00 00	 call	 ?set_event@@YGXHHHP6GXPAUEVENT@@@Z@Z ; set_event

; 785  : 
; 786  : 	//
; 787  : 	// repeated for programmable joysticks ...
; 788  : 	//
; 789  : 
; 790  : 	set_event (DIK_3, MODIFIER_LEFT_SHIFT, KEY_STATE_DOWN, select_target_acquisition_system_hms_event);

  00050	68 00 00 00 00	 push	 OFFSET ?select_target_acquisition_system_hms_event@@YGXPAUEVENT@@@Z ; select_target_acquisition_system_hms_event
  00055	6a 02		 push	 2
  00057	6a 01		 push	 1
  00059	6a 04		 push	 4
  0005b	e8 00 00 00 00	 call	 ?set_event@@YGXHHHP6GXPAUEVENT@@@Z@Z ; set_event

; 791  : 
; 792  : 	set_event (DIK_4, MODIFIER_LEFT_SHIFT, KEY_STATE_DOWN, select_target_acquisition_system_flir_event);

  00060	68 00 00 00 00	 push	 OFFSET ?select_target_acquisition_system_flir_event@@YGXPAUEVENT@@@Z ; select_target_acquisition_system_flir_event
  00065	6a 02		 push	 2
  00067	6a 01		 push	 1
  00069	6a 05		 push	 5
  0006b	e8 00 00 00 00	 call	 ?set_event@@YGXHHHP6GXPAUEVENT@@@Z@Z ; set_event

; 793  : 
; 794  : 	//
; 795  : 	// target acquisition system control
; 796  : 	//
; 797  : 
; 798  : 	set_event (DIK_NUMPAD4, MODIFIER_NONE, KEY_STATE_EITHER, steer_left_event);

  00070	68 00 00 00 00	 push	 OFFSET ?steer_left_event@@YGXPAUEVENT@@@Z ; steer_left_event
  00075	6a 03		 push	 3
  00077	6a 00		 push	 0
  00079	6a 4b		 push	 75			; 0000004bH
  0007b	e8 00 00 00 00	 call	 ?set_event@@YGXHHHP6GXPAUEVENT@@@Z@Z ; set_event

; 799  : 	set_event (DIK_NUMPAD4, MODIFIER_LEFT_SHIFT, KEY_STATE_EITHER, steer_left_fast_event);

  00080	68 00 00 00 00	 push	 OFFSET ?steer_left_fast_event@@YGXPAUEVENT@@@Z ; steer_left_fast_event
  00085	6a 03		 push	 3
  00087	6a 01		 push	 1
  00089	6a 4b		 push	 75			; 0000004bH
  0008b	e8 00 00 00 00	 call	 ?set_event@@YGXHHHP6GXPAUEVENT@@@Z@Z ; set_event

; 800  : 	set_event (DIK_NUMPAD4, MODIFIER_LEFT_ALT, KEY_STATE_EITHER, steer_left_fine_event);

  00090	68 00 00 00 00	 push	 OFFSET ?steer_left_fine_event@@YGXPAUEVENT@@@Z ; steer_left_fine_event
  00095	6a 03		 push	 3
  00097	6a 03		 push	 3
  00099	6a 4b		 push	 75			; 0000004bH
  0009b	e8 00 00 00 00	 call	 ?set_event@@YGXHHHP6GXPAUEVENT@@@Z@Z ; set_event

; 801  : 
; 802  : 	set_event (DIK_NUMPAD6, MODIFIER_NONE, KEY_STATE_EITHER, steer_right_event);

  000a0	68 00 00 00 00	 push	 OFFSET ?steer_right_event@@YGXPAUEVENT@@@Z ; steer_right_event
  000a5	6a 03		 push	 3
  000a7	6a 00		 push	 0
  000a9	6a 4d		 push	 77			; 0000004dH
  000ab	e8 00 00 00 00	 call	 ?set_event@@YGXHHHP6GXPAUEVENT@@@Z@Z ; set_event

; 803  : 	set_event (DIK_NUMPAD6, MODIFIER_LEFT_SHIFT, KEY_STATE_EITHER, steer_right_fast_event);

  000b0	68 00 00 00 00	 push	 OFFSET ?steer_right_fast_event@@YGXPAUEVENT@@@Z ; steer_right_fast_event
  000b5	6a 03		 push	 3
  000b7	6a 01		 push	 1
  000b9	6a 4d		 push	 77			; 0000004dH
  000bb	e8 00 00 00 00	 call	 ?set_event@@YGXHHHP6GXPAUEVENT@@@Z@Z ; set_event

; 804  : 	set_event (DIK_NUMPAD6, MODIFIER_LEFT_ALT, KEY_STATE_EITHER, steer_right_fine_event);

  000c0	68 00 00 00 00	 push	 OFFSET ?steer_right_fine_event@@YGXPAUEVENT@@@Z ; steer_right_fine_event
  000c5	6a 03		 push	 3
  000c7	6a 03		 push	 3
  000c9	6a 4d		 push	 77			; 0000004dH
  000cb	e8 00 00 00 00	 call	 ?set_event@@YGXHHHP6GXPAUEVENT@@@Z@Z ; set_event

; 805  : 
; 806  : 	set_event (DIK_NUMPAD8, MODIFIER_NONE, KEY_STATE_EITHER, steer_up_event);

  000d0	68 00 00 00 00	 push	 OFFSET ?steer_up_event@@YGXPAUEVENT@@@Z ; steer_up_event
  000d5	6a 03		 push	 3
  000d7	6a 00		 push	 0
  000d9	6a 48		 push	 72			; 00000048H
  000db	e8 00 00 00 00	 call	 ?set_event@@YGXHHHP6GXPAUEVENT@@@Z@Z ; set_event

; 807  : 	set_event (DIK_NUMPAD8, MODIFIER_LEFT_SHIFT, KEY_STATE_EITHER, steer_up_fast_event);

  000e0	68 00 00 00 00	 push	 OFFSET ?steer_up_fast_event@@YGXPAUEVENT@@@Z ; steer_up_fast_event
  000e5	6a 03		 push	 3
  000e7	6a 01		 push	 1
  000e9	6a 48		 push	 72			; 00000048H
  000eb	e8 00 00 00 00	 call	 ?set_event@@YGXHHHP6GXPAUEVENT@@@Z@Z ; set_event

; 808  : 	set_event (DIK_NUMPAD8, MODIFIER_LEFT_ALT, KEY_STATE_EITHER, steer_up_fine_event);

  000f0	68 00 00 00 00	 push	 OFFSET ?steer_up_fine_event@@YGXPAUEVENT@@@Z ; steer_up_fine_event
  000f5	6a 03		 push	 3
  000f7	6a 03		 push	 3
  000f9	6a 48		 push	 72			; 00000048H
  000fb	e8 00 00 00 00	 call	 ?set_event@@YGXHHHP6GXPAUEVENT@@@Z@Z ; set_event

; 809  : 
; 810  : 	set_event (DIK_NUMPAD2, MODIFIER_NONE, KEY_STATE_EITHER, steer_down_event);

  00100	68 00 00 00 00	 push	 OFFSET ?steer_down_event@@YGXPAUEVENT@@@Z ; steer_down_event
  00105	6a 03		 push	 3
  00107	6a 00		 push	 0
  00109	6a 50		 push	 80			; 00000050H
  0010b	e8 00 00 00 00	 call	 ?set_event@@YGXHHHP6GXPAUEVENT@@@Z@Z ; set_event

; 811  : 	set_event (DIK_NUMPAD2, MODIFIER_LEFT_SHIFT, KEY_STATE_EITHER, steer_down_fast_event);

  00110	68 00 00 00 00	 push	 OFFSET ?steer_down_fast_event@@YGXPAUEVENT@@@Z ; steer_down_fast_event
  00115	6a 03		 push	 3
  00117	6a 01		 push	 1
  00119	6a 50		 push	 80			; 00000050H
  0011b	e8 00 00 00 00	 call	 ?set_event@@YGXHHHP6GXPAUEVENT@@@Z@Z ; set_event

; 812  : 	set_event (DIK_NUMPAD2, MODIFIER_LEFT_ALT, KEY_STATE_EITHER, steer_down_fine_event);

  00120	68 00 00 00 00	 push	 OFFSET ?steer_down_fine_event@@YGXPAUEVENT@@@Z ; steer_down_fine_event
  00125	6a 03		 push	 3
  00127	6a 03		 push	 3
  00129	6a 50		 push	 80			; 00000050H
  0012b	e8 00 00 00 00	 call	 ?set_event@@YGXHHHP6GXPAUEVENT@@@Z@Z ; set_event

; 813  : 
; 814  : 	set_event (DIK_ADD, MODIFIER_NONE, KEY_STATE_DOWN, inc_range_event);

  00130	68 00 00 00 00	 push	 OFFSET ?inc_range_event@@YGXPAUEVENT@@@Z ; inc_range_event
  00135	6a 02		 push	 2
  00137	6a 00		 push	 0
  00139	6a 4e		 push	 78			; 0000004eH
  0013b	e8 00 00 00 00	 call	 ?set_event@@YGXHHHP6GXPAUEVENT@@@Z@Z ; set_event

; 815  : 	set_event (DIK_ADD, MODIFIER_LEFT_SHIFT, KEY_STATE_DOWN, inc_range_fast_event);

  00140	68 00 00 00 00	 push	 OFFSET ?inc_range_fast_event@@YGXPAUEVENT@@@Z ; inc_range_fast_event
  00145	6a 02		 push	 2
  00147	6a 01		 push	 1
  00149	6a 4e		 push	 78			; 0000004eH
  0014b	e8 00 00 00 00	 call	 ?set_event@@YGXHHHP6GXPAUEVENT@@@Z@Z ; set_event

; 816  : 	set_event (DIK_ADD, MODIFIER_LEFT_CONTROL, KEY_STATE_DOWN, inc_eo_zoom_event);

  00150	68 00 00 00 00	 push	 OFFSET ?inc_eo_zoom_event@@YGXPAUEVENT@@@Z ; inc_eo_zoom_event
  00155	6a 02		 push	 2
  00157	6a 02		 push	 2
  00159	6a 4e		 push	 78			; 0000004eH
  0015b	e8 00 00 00 00	 call	 ?set_event@@YGXHHHP6GXPAUEVENT@@@Z@Z ; set_event

; 817  : 
; 818  : 	set_event (DIK_SUBTRACT, MODIFIER_NONE, KEY_STATE_DOWN, dec_range_event);

  00160	68 00 00 00 00	 push	 OFFSET ?dec_range_event@@YGXPAUEVENT@@@Z ; dec_range_event
  00165	6a 02		 push	 2
  00167	6a 00		 push	 0
  00169	6a 4a		 push	 74			; 0000004aH
  0016b	e8 00 00 00 00	 call	 ?set_event@@YGXHHHP6GXPAUEVENT@@@Z@Z ; set_event

; 819  : 	set_event (DIK_SUBTRACT, MODIFIER_LEFT_SHIFT, KEY_STATE_DOWN, dec_range_fast_event);

  00170	68 00 00 00 00	 push	 OFFSET ?dec_range_fast_event@@YGXPAUEVENT@@@Z ; dec_range_fast_event
  00175	6a 02		 push	 2
  00177	6a 01		 push	 1
  00179	6a 4a		 push	 74			; 0000004aH
  0017b	e8 00 00 00 00	 call	 ?set_event@@YGXHHHP6GXPAUEVENT@@@Z@Z ; set_event

; 820  : 	set_event (DIK_SUBTRACT, MODIFIER_LEFT_CONTROL, KEY_STATE_DOWN, dec_eo_zoom_event);

  00180	68 00 00 00 00	 push	 OFFSET ?dec_eo_zoom_event@@YGXPAUEVENT@@@Z ; dec_eo_zoom_event
  00185	6a 02		 push	 2
  00187	6a 02		 push	 2
  00189	6a 4a		 push	 74			; 0000004aH
  0018b	e8 00 00 00 00	 call	 ?set_event@@YGXHHHP6GXPAUEVENT@@@Z@Z ; set_event

; 821  : 
; 822  : 	set_event (DIK_NUMPAD5, MODIFIER_NONE, KEY_STATE_DOWN, steer_centre_event);

  00190	68 00 00 00 00	 push	 OFFSET ?steer_centre_event@@YGXPAUEVENT@@@Z ; steer_centre_event
  00195	6a 02		 push	 2
  00197	6a 00		 push	 0
  00199	6a 4c		 push	 76			; 0000004cH
  0019b	e8 00 00 00 00	 call	 ?set_event@@YGXHHHP6GXPAUEVENT@@@Z@Z ; set_event

; 823  : 	set_event (DIK_NUMPAD5, MODIFIER_LEFT_SHIFT, KEY_STATE_DOWN, steer_centre_event);

  001a0	68 00 00 00 00	 push	 OFFSET ?steer_centre_event@@YGXPAUEVENT@@@Z ; steer_centre_event
  001a5	6a 02		 push	 2
  001a7	6a 01		 push	 1
  001a9	6a 4c		 push	 76			; 0000004cH
  001ab	e8 00 00 00 00	 call	 ?set_event@@YGXHHHP6GXPAUEVENT@@@Z@Z ; set_event

; 824  : 
; 825  : 	set_event (DIK_NUMPAD9, MODIFIER_NONE, KEY_STATE_DOWN, inc_target_priority_event);

  001b0	68 00 00 00 00	 push	 OFFSET ?inc_target_priority_event@@YGXPAUEVENT@@@Z ; inc_target_priority_event
  001b5	6a 02		 push	 2
  001b7	6a 00		 push	 0
  001b9	6a 49		 push	 73			; 00000049H
  001bb	e8 00 00 00 00	 call	 ?set_event@@YGXHHHP6GXPAUEVENT@@@Z@Z ; set_event

; 826  : 	set_event (DIK_NUMPAD9, MODIFIER_LEFT_SHIFT, KEY_STATE_DOWN, inc_target_priority_fast_event);

  001c0	68 00 00 00 00	 push	 OFFSET ?inc_target_priority_fast_event@@YGXPAUEVENT@@@Z ; inc_target_priority_fast_event
  001c5	6a 02		 push	 2
  001c7	6a 01		 push	 1
  001c9	6a 49		 push	 73			; 00000049H
  001cb	e8 00 00 00 00	 call	 ?set_event@@YGXHHHP6GXPAUEVENT@@@Z@Z ; set_event

; 827  : 
; 828  : 	set_event (DIK_NUMPAD3, MODIFIER_NONE, KEY_STATE_DOWN, dec_target_priority_event);

  001d0	68 00 00 00 00	 push	 OFFSET ?dec_target_priority_event@@YGXPAUEVENT@@@Z ; dec_target_priority_event
  001d5	6a 02		 push	 2
  001d7	6a 00		 push	 0
  001d9	6a 51		 push	 81			; 00000051H
  001db	e8 00 00 00 00	 call	 ?set_event@@YGXHHHP6GXPAUEVENT@@@Z@Z ; set_event

; 829  : 	set_event (DIK_NUMPAD3, MODIFIER_LEFT_SHIFT, KEY_STATE_DOWN, dec_target_priority_fast_event);

  001e0	68 00 00 00 00	 push	 OFFSET ?dec_target_priority_fast_event@@YGXPAUEVENT@@@Z ; dec_target_priority_fast_event
  001e5	6a 02		 push	 2
  001e7	6a 01		 push	 1
  001e9	6a 51		 push	 81			; 00000051H
  001eb	e8 00 00 00 00	 call	 ?set_event@@YGXHHHP6GXPAUEVENT@@@Z@Z ; set_event

; 830  : 
; 831  : 	set_event (DIK_NUMPAD0, MODIFIER_NONE, KEY_STATE_DOWN, select_next_target_event);

  001f0	68 00 00 00 00	 push	 OFFSET ?select_next_target_event@@YGXPAUEVENT@@@Z ; select_next_target_event
  001f5	6a 02		 push	 2
  001f7	6a 00		 push	 0
  001f9	6a 52		 push	 82			; 00000052H
  001fb	e8 00 00 00 00	 call	 ?set_event@@YGXHHHP6GXPAUEVENT@@@Z@Z ; set_event

; 832  : 	set_event (DIK_NUMPAD0, MODIFIER_LEFT_SHIFT, KEY_STATE_DOWN, select_previous_target_event);

  00200	68 00 00 00 00	 push	 OFFSET ?select_previous_target_event@@YGXPAUEVENT@@@Z ; select_previous_target_event
  00205	6a 02		 push	 2
  00207	6a 01		 push	 1
  00209	6a 52		 push	 82			; 00000052H
  0020b	e8 00 00 00 00	 call	 ?set_event@@YGXHHHP6GXPAUEVENT@@@Z@Z ; set_event

; 833  : 
; 834  : 	set_event (DIK_NUMPADENTER, MODIFIER_NONE, KEY_STATE_DOWN, toggle_lock_target_event);

  00210	68 00 00 00 00	 push	 OFFSET ?toggle_lock_target_event@@YGXPAUEVENT@@@Z ; toggle_lock_target_event
  00215	6a 02		 push	 2
  00217	6a 00		 push	 0
  00219	68 9c 00 00 00	 push	 156			; 0000009cH
  0021e	e8 00 00 00 00	 call	 ?set_event@@YGXHHHP6GXPAUEVENT@@@Z@Z ; set_event

; 835  : 	//set_event (DIK_NUMPADENTER, MODIFIER_LEFT_ALT, KEY_STATE_DOWN, toggle_lock_target_event); // Jabberwock 031107 Designated targets
; 836  : 	set_event (DIK_NUMPADENTER, MODIFIER_LEFT_SHIFT, KEY_STATE_DOWN, toggle_lock_target_event);

  00223	68 00 00 00 00	 push	 OFFSET ?toggle_lock_target_event@@YGXPAUEVENT@@@Z ; toggle_lock_target_event
  00228	6a 02		 push	 2
  0022a	6a 01		 push	 1
  0022c	68 9c 00 00 00	 push	 156			; 0000009cH
  00231	e8 00 00 00 00	 call	 ?set_event@@YGXHHHP6GXPAUEVENT@@@Z@Z ; set_event

; 837  : 
; 838  : 	set_event (DIK_MULTIPLY, MODIFIER_NONE, KEY_STATE_DOWN, activate_laser_event);

  00236	68 00 00 00 00	 push	 OFFSET ?activate_laser_event@@YGXPAUEVENT@@@Z ; activate_laser_event
  0023b	6a 02		 push	 2
  0023d	6a 00		 push	 0
  0023f	6a 37		 push	 55			; 00000037H
  00241	e8 00 00 00 00	 call	 ?set_event@@YGXHHHP6GXPAUEVENT@@@Z@Z ; set_event

; 839  : 
; 840  : 	set_event (DIK_S, MODIFIER_LEFT_CONTROL, KEY_STATE_DOWN, toggle_ground_stabilisation_event);

  00246	68 00 00 00 00	 push	 OFFSET ?toggle_ground_stabilisation_event@@YGXPAUEVENT@@@Z ; toggle_ground_stabilisation_event
  0024b	6a 02		 push	 2
  0024d	6a 02		 push	 2
  0024f	6a 1f		 push	 31			; 0000001fH
  00251	e8 00 00 00 00	 call	 ?set_event@@YGXHHHP6GXPAUEVENT@@@Z@Z ; set_event

; 841  : 
; 842  : 	//
; 843  : 	// miscellaneous
; 844  : 	//
; 845  : 
; 846  : 	set_event (DIK_A, MODIFIER_LEFT_CONTROL, KEY_STATE_DOWN, toggle_ase_auto_page_event);

  00256	68 00 00 00 00	 push	 OFFSET ?toggle_ase_auto_page_event@@YGXPAUEVENT@@@Z ; toggle_ase_auto_page_event
  0025b	6a 02		 push	 2
  0025d	6a 02		 push	 2
  0025f	6a 1e		 push	 30			; 0000001eH
  00261	e8 00 00 00 00	 call	 ?set_event@@YGXHHHP6GXPAUEVENT@@@Z@Z ; set_event

; 847  : 
; 848  : 	set_event (DIK_D, MODIFIER_NONE, KEY_STATE_DOWN, select_next_tsd_declutter_level_event);

  00266	68 00 00 00 00	 push	 OFFSET ?select_next_tsd_declutter_level_event@@YGXPAUEVENT@@@Z ; select_next_tsd_declutter_level_event
  0026b	6a 02		 push	 2
  0026d	6a 00		 push	 0
  0026f	6a 20		 push	 32			; 00000020H
  00271	e8 00 00 00 00	 call	 ?set_event@@YGXHHHP6GXPAUEVENT@@@Z@Z ; set_event

; 849  : 	set_event (DIK_D, MODIFIER_LEFT_SHIFT, KEY_STATE_DOWN, select_previous_tsd_declutter_level_event);

  00276	68 00 00 00 00	 push	 OFFSET ?select_previous_tsd_declutter_level_event@@YGXPAUEVENT@@@Z ; select_previous_tsd_declutter_level_event
  0027b	6a 02		 push	 2
  0027d	6a 01		 push	 1
  0027f	6a 20		 push	 32			; 00000020H
  00281	e8 00 00 00 00	 call	 ?set_event@@YGXHHHP6GXPAUEVENT@@@Z@Z ; set_event

; 850  : 
; 851  : 	set_event (DIK_E, MODIFIER_NONE, KEY_STATE_DOWN, select_next_tsd_ase_range_event);

  00286	68 00 00 00 00	 push	 OFFSET ?select_next_tsd_ase_range_event@@YGXPAUEVENT@@@Z ; select_next_tsd_ase_range_event
  0028b	6a 02		 push	 2
  0028d	6a 00		 push	 0
  0028f	6a 12		 push	 18			; 00000012H
  00291	e8 00 00 00 00	 call	 ?set_event@@YGXHHHP6GXPAUEVENT@@@Z@Z ; set_event

; 852  : 	set_event (DIK_E, MODIFIER_LEFT_SHIFT, KEY_STATE_DOWN, select_previous_tsd_ase_range_event);

  00296	68 00 00 00 00	 push	 OFFSET ?select_previous_tsd_ase_range_event@@YGXPAUEVENT@@@Z ; select_previous_tsd_ase_range_event
  0029b	6a 02		 push	 2
  0029d	6a 01		 push	 1
  0029f	6a 12		 push	 18			; 00000012H
  002a1	e8 00 00 00 00	 call	 ?set_event@@YGXHHHP6GXPAUEVENT@@@Z@Z ; set_event

; 853  : 	set_event (DIK_E, MODIFIER_LEFT_ALT, KEY_STATE_DOWN, eject_event);

  002a6	68 00 00 00 00	 push	 OFFSET ?eject_event@@YGXPAUEVENT@@@Z ; eject_event
  002ab	6a 02		 push	 2
  002ad	6a 03		 push	 3
  002af	6a 12		 push	 18			; 00000012H
  002b1	e8 00 00 00 00	 call	 ?set_event@@YGXHHHP6GXPAUEVENT@@@Z@Z ; set_event

; 854  : 
; 855  : 	set_event (DIK_G, MODIFIER_LEFT_CONTROL, KEY_STATE_DOWN, toggle_gear_event);

  002b6	68 00 00 00 00	 push	 OFFSET ?toggle_gear_event@@YGXPAUEVENT@@@Z ; toggle_gear_event
  002bb	6a 02		 push	 2
  002bd	6a 02		 push	 2
  002bf	6a 22		 push	 34			; 00000022H
  002c1	e8 00 00 00 00	 call	 ?set_event@@YGXHHHP6GXPAUEVENT@@@Z@Z ; set_event

; 856  : 
; 857  : 	set_event (DIK_I, MODIFIER_NONE, KEY_STATE_DOWN, toggle_infra_red_jammer_event);

  002c6	68 00 00 00 00	 push	 OFFSET ?toggle_infra_red_jammer_event@@YGXPAUEVENT@@@Z ; toggle_infra_red_jammer_event
  002cb	6a 02		 push	 2
  002cd	6a 00		 push	 0
  002cf	6a 17		 push	 23			; 00000017H
  002d1	e8 00 00 00 00	 call	 ?set_event@@YGXHHHP6GXPAUEVENT@@@Z@Z ; set_event

; 858  : 
; 859  : 	set_event (DIK_J, MODIFIER_NONE, KEY_STATE_DOWN, toggle_radar_jammer_event);

  002d6	68 00 00 00 00	 push	 OFFSET ?toggle_radar_jammer_event@@YGXPAUEVENT@@@Z ; toggle_radar_jammer_event
  002db	6a 02		 push	 2
  002dd	6a 00		 push	 0
  002df	6a 24		 push	 36			; 00000024H
  002e1	e8 00 00 00 00	 call	 ?set_event@@YGXHHHP6GXPAUEVENT@@@Z@Z ; set_event

; 860  : 
; 861  : 	set_event (DIK_M, MODIFIER_NONE, KEY_STATE_DOWN, acknowledge_master_caution_event);

  002e6	68 00 00 00 00	 push	 OFFSET ?acknowledge_master_caution_event@@YGXPAUEVENT@@@Z ; acknowledge_master_caution_event
  002eb	6a 02		 push	 2
  002ed	6a 00		 push	 0
  002ef	6a 32		 push	 50			; 00000032H
  002f1	e8 00 00 00 00	 call	 ?set_event@@YGXHHHP6GXPAUEVENT@@@Z@Z ; set_event

; 862  : 
; 863  : 	set_event (DIK_N, MODIFIER_NONE, KEY_STATE_DOWN, toggle_night_vision_system_event);

  002f6	68 00 00 00 00	 push	 OFFSET ?toggle_night_vision_system_event@@YGXPAUEVENT@@@Z ; toggle_night_vision_system_event
  002fb	6a 02		 push	 2
  002fd	6a 00		 push	 0
  002ff	6a 31		 push	 49			; 00000031H
  00301	e8 00 00 00 00	 call	 ?set_event@@YGXHHHP6GXPAUEVENT@@@Z@Z ; set_event

; 864  : 
; 865  : 	set_event (DIK_O, MODIFIER_NONE, KEY_STATE_DOWN, set_hud_bob_up_overlay_event);

  00306	68 00 00 00 00	 push	 OFFSET ?set_hud_bob_up_overlay_event@@YGXPAUEVENT@@@Z ; set_hud_bob_up_overlay_event
  0030b	6a 02		 push	 2
  0030d	6a 00		 push	 0
  0030f	6a 18		 push	 24			; 00000018H
  00311	e8 00 00 00 00	 call	 ?set_event@@YGXHHHP6GXPAUEVENT@@@Z@Z ; set_event

; 866  : 	set_event (DIK_O, MODIFIER_LEFT_CONTROL, KEY_STATE_DOWN, clear_hud_bob_up_overlay_event);

  00316	68 00 00 00 00	 push	 OFFSET ?clear_hud_bob_up_overlay_event@@YGXPAUEVENT@@@Z ; clear_hud_bob_up_overlay_event
  0031b	6a 02		 push	 2
  0031d	6a 02		 push	 2
  0031f	6a 18		 push	 24			; 00000018H
  00321	e8 00 00 00 00	 call	 ?set_event@@YGXHHHP6GXPAUEVENT@@@Z@Z ; set_event

; 867  : 
; 868  : 	set_event (DIK_V, MODIFIER_NONE, KEY_STATE_DOWN, toggle_navigation_lights_event);

  00326	68 00 00 00 00	 push	 OFFSET ?toggle_navigation_lights_event@@YGXPAUEVENT@@@Z ; toggle_navigation_lights_event
  0032b	6a 02		 push	 2
  0032d	6a 00		 push	 0
  0032f	6a 2f		 push	 47			; 0000002fH
  00331	e8 00 00 00 00	 call	 ?set_event@@YGXHHHP6GXPAUEVENT@@@Z@Z ; set_event

; 869  : 
; 870  : 	set_event (DIK_1, MODIFIER_NONE, KEY_STATE_DOWN, virtual_cockpit_track_target_event);

  00336	68 00 00 00 00	 push	 OFFSET ?virtual_cockpit_track_target_event@@YGXPAUEVENT@@@Z ; virtual_cockpit_track_target_event
  0033b	6a 02		 push	 2
  0033d	6a 00		 push	 0
  0033f	6a 02		 push	 2
  00341	e8 00 00 00 00	 call	 ?set_event@@YGXHHHP6GXPAUEVENT@@@Z@Z ; set_event

; 871  : 
; 872  : 	set_event (DIK_NUMPADENTER, MODIFIER_LEFT_CONTROL, KEY_STATE_DOWN, virtual_cockpit_track_target_event);

  00346	68 00 00 00 00	 push	 OFFSET ?virtual_cockpit_track_target_event@@YGXPAUEVENT@@@Z ; virtual_cockpit_track_target_event
  0034b	6a 02		 push	 2
  0034d	6a 02		 push	 2
  0034f	68 9c 00 00 00	 push	 156			; 0000009cH
  00354	e8 00 00 00 00	 call	 ?set_event@@YGXHHHP6GXPAUEVENT@@@Z@Z ; set_event

; 873  : 
; 874  : 	set_event (DIK_BACKSPACE, MODIFIER_LEFT_ALT, KEY_STATE_DOWN, select_cannon_event);

  00359	68 00 00 00 00	 push	 OFFSET ?select_cannon_event@@YGXPAUEVENT@@@Z ; select_cannon_event
  0035e	6a 02		 push	 2
  00360	6a 03		 push	 3
  00362	6a 0e		 push	 14			; 0000000eH
  00364	e8 00 00 00 00	 call	 ?set_event@@YGXHHHP6GXPAUEVENT@@@Z@Z ; set_event

; 875  : 
; 876  : 	set_event (DIK_LBRACKET, MODIFIER_LEFT_CONTROL, KEY_STATE_DOWN, toggle_shkval_mfd_on_off_event);

  00369	68 00 00 00 00	 push	 OFFSET ?toggle_shkval_mfd_on_off_event@@YGXPAUEVENT@@@Z ; toggle_shkval_mfd_on_off_event
  0036e	6a 02		 push	 2
  00370	6a 02		 push	 2
  00372	6a 1a		 push	 26			; 0000001aH
  00374	e8 00 00 00 00	 call	 ?set_event@@YGXHHHP6GXPAUEVENT@@@Z@Z ; set_event

; 877  : 
; 878  : 	set_event (DIK_RBRACKET, MODIFIER_NONE, KEY_STATE_DOWN, select_next_mfd_event);

  00379	68 00 00 00 00	 push	 OFFSET ?select_next_mfd_event@@YGXPAUEVENT@@@Z ; select_next_mfd_event
  0037e	6a 02		 push	 2
  00380	6a 00		 push	 0
  00382	6a 1b		 push	 27			; 0000001bH
  00384	e8 00 00 00 00	 call	 ?set_event@@YGXHHHP6GXPAUEVENT@@@Z@Z ; set_event

; 879  : 	set_event (DIK_RBRACKET, MODIFIER_LEFT_SHIFT, KEY_STATE_DOWN, select_previous_mfd_event);

  00389	68 00 00 00 00	 push	 OFFSET ?select_previous_mfd_event@@YGXPAUEVENT@@@Z ; select_previous_mfd_event
  0038e	6a 02		 push	 2
  00390	6a 01		 push	 1
  00392	6a 1b		 push	 27			; 0000001bH
  00394	e8 00 00 00 00	 call	 ?set_event@@YGXHHHP6GXPAUEVENT@@@Z@Z ; set_event

; 880  : 	set_event (DIK_RBRACKET, MODIFIER_LEFT_CONTROL, KEY_STATE_DOWN, toggle_abris_mfd_on_off_event);

  00399	68 00 00 00 00	 push	 OFFSET ?toggle_abris_mfd_on_off_event@@YGXPAUEVENT@@@Z ; toggle_abris_mfd_on_off_event
  0039e	6a 02		 push	 2
  003a0	6a 02		 push	 2
  003a2	6a 1b		 push	 27			; 0000001bH
  003a4	e8 00 00 00 00	 call	 ?set_event@@YGXHHHP6GXPAUEVENT@@@Z@Z ; set_event

; 881  : 
; 882  : 	set_event (DIK_4, MODIFIER_LEFT_CONTROL, KEY_STATE_DOWN, select_tsd_mfd_event);

  003a9	68 00 00 00 00	 push	 OFFSET ?select_tsd_mfd_event@@YGXPAUEVENT@@@Z ; select_tsd_mfd_event
  003ae	6a 02		 push	 2
  003b0	6a 02		 push	 2
  003b2	6a 05		 push	 5
  003b4	e8 00 00 00 00	 call	 ?set_event@@YGXHHHP6GXPAUEVENT@@@Z@Z ; set_event

; 883  : 	set_event (DIK_4, MODIFIER_LEFT_ALT, KEY_STATE_DOWN, select_tsd_mfd_event);

  003b9	68 00 00 00 00	 push	 OFFSET ?select_tsd_mfd_event@@YGXPAUEVENT@@@Z ; select_tsd_mfd_event
  003be	6a 02		 push	 2
  003c0	6a 03		 push	 3
  003c2	6a 05		 push	 5
  003c4	e8 00 00 00 00	 call	 ?set_event@@YGXHHHP6GXPAUEVENT@@@Z@Z ; set_event

; 884  : 
; 885  : 	set_event (DIK_5, MODIFIER_LEFT_CONTROL, KEY_STATE_DOWN, select_ase_mfd_event);

  003c9	68 00 00 00 00	 push	 OFFSET ?select_ase_mfd_event@@YGXPAUEVENT@@@Z ; select_ase_mfd_event
  003ce	6a 02		 push	 2
  003d0	6a 02		 push	 2
  003d2	6a 06		 push	 6
  003d4	e8 00 00 00 00	 call	 ?set_event@@YGXHHHP6GXPAUEVENT@@@Z@Z ; set_event

; 886  : 	set_event (DIK_5, MODIFIER_LEFT_ALT, KEY_STATE_DOWN, select_ase_mfd_event);

  003d9	68 00 00 00 00	 push	 OFFSET ?select_ase_mfd_event@@YGXPAUEVENT@@@Z ; select_ase_mfd_event
  003de	6a 02		 push	 2
  003e0	6a 03		 push	 3
  003e2	6a 06		 push	 6
  003e4	e8 00 00 00 00	 call	 ?set_event@@YGXHHHP6GXPAUEVENT@@@Z@Z ; set_event

; 887  : 
; 888  : 	set_event (DIK_6, MODIFIER_LEFT_CONTROL, KEY_STATE_DOWN, select_weapon_mfd_event);

  003e9	68 00 00 00 00	 push	 OFFSET ?select_weapon_mfd_event@@YGXPAUEVENT@@@Z ; select_weapon_mfd_event
  003ee	6a 02		 push	 2
  003f0	6a 02		 push	 2
  003f2	6a 07		 push	 7
  003f4	e8 00 00 00 00	 call	 ?set_event@@YGXHHHP6GXPAUEVENT@@@Z@Z ; set_event

; 889  : 	set_event (DIK_6, MODIFIER_LEFT_ALT, KEY_STATE_DOWN, select_weapon_mfd_event);

  003f9	68 00 00 00 00	 push	 OFFSET ?select_weapon_mfd_event@@YGXPAUEVENT@@@Z ; select_weapon_mfd_event
  003fe	6a 02		 push	 2
  00400	6a 03		 push	 3
  00402	6a 07		 push	 7
  00404	e8 00 00 00 00	 call	 ?set_event@@YGXHHHP6GXPAUEVENT@@@Z@Z ; set_event

; 890  : 
; 891  : 	set_event (DIK_7, MODIFIER_LEFT_CONTROL, KEY_STATE_DOWN, select_system_mfd_event);

  00409	68 00 00 00 00	 push	 OFFSET ?select_system_mfd_event@@YGXPAUEVENT@@@Z ; select_system_mfd_event
  0040e	6a 02		 push	 2
  00410	6a 02		 push	 2
  00412	6a 08		 push	 8
  00414	e8 00 00 00 00	 call	 ?set_event@@YGXHHHP6GXPAUEVENT@@@Z@Z ; set_event

; 892  : 	set_event (DIK_7, MODIFIER_LEFT_ALT, KEY_STATE_DOWN, select_system_mfd_event);

  00419	68 00 00 00 00	 push	 OFFSET ?select_system_mfd_event@@YGXPAUEVENT@@@Z ; select_system_mfd_event
  0041e	6a 02		 push	 2
  00420	6a 03		 push	 3
  00422	6a 08		 push	 8
  00424	e8 00 00 00 00	 call	 ?set_event@@YGXHHHP6GXPAUEVENT@@@Z@Z ; set_event

; 893  : 
; 894  : 	set_event (DIK_8, MODIFIER_LEFT_CONTROL, KEY_STATE_DOWN, select_engine_mfd_event);

  00429	68 00 00 00 00	 push	 OFFSET ?select_engine_mfd_event@@YGXPAUEVENT@@@Z ; select_engine_mfd_event
  0042e	6a 02		 push	 2
  00430	6a 02		 push	 2
  00432	6a 09		 push	 9
  00434	e8 00 00 00 00	 call	 ?set_event@@YGXHHHP6GXPAUEVENT@@@Z@Z ; set_event

; 895  : 	set_event (DIK_8, MODIFIER_LEFT_ALT, KEY_STATE_DOWN, select_engine_mfd_event);

  00439	68 00 00 00 00	 push	 OFFSET ?select_engine_mfd_event@@YGXPAUEVENT@@@Z ; select_engine_mfd_event
  0043e	6a 02		 push	 2
  00440	6a 03		 push	 3
  00442	6a 09		 push	 9
  00444	e8 00 00 00 00	 call	 ?set_event@@YGXHHHP6GXPAUEVENT@@@Z@Z ; set_event

; 896  : 
; 897  : 	set_event (DIK_9, MODIFIER_LEFT_CONTROL, KEY_STATE_DOWN, select_flight_mfd_event);

  00449	68 00 00 00 00	 push	 OFFSET ?select_flight_mfd_event@@YGXPAUEVENT@@@Z ; select_flight_mfd_event
  0044e	6a 02		 push	 2
  00450	6a 02		 push	 2
  00452	6a 0a		 push	 10			; 0000000aH
  00454	e8 00 00 00 00	 call	 ?set_event@@YGXHHHP6GXPAUEVENT@@@Z@Z ; set_event

; 898  : 	set_event (DIK_9, MODIFIER_LEFT_ALT, KEY_STATE_DOWN, select_flight_mfd_event);

  00459	68 00 00 00 00	 push	 OFFSET ?select_flight_mfd_event@@YGXPAUEVENT@@@Z ; select_flight_mfd_event
  0045e	6a 02		 push	 2
  00460	6a 03		 push	 3
  00462	6a 0a		 push	 10			; 0000000aH
  00464	e8 00 00 00 00	 call	 ?set_event@@YGXHHHP6GXPAUEVENT@@@Z@Z ; set_event

; 899  : 
; 900  : 	set_event (DIK_0, MODIFIER_LEFT_CONTROL, KEY_STATE_DOWN, select_mission_mfd_event);

  00469	68 00 00 00 00	 push	 OFFSET ?select_mission_mfd_event@@YGXPAUEVENT@@@Z ; select_mission_mfd_event
  0046e	6a 02		 push	 2
  00470	6a 02		 push	 2
  00472	6a 0b		 push	 11			; 0000000bH
  00474	e8 00 00 00 00	 call	 ?set_event@@YGXHHHP6GXPAUEVENT@@@Z@Z ; set_event

; 901  : 	set_event (DIK_0, MODIFIER_LEFT_ALT, KEY_STATE_DOWN, select_mission_mfd_event);

  00479	68 00 00 00 00	 push	 OFFSET ?select_mission_mfd_event@@YGXPAUEVENT@@@Z ; select_mission_mfd_event
  0047e	6a 02		 push	 2
  00480	6a 03		 push	 3
  00482	6a 0b		 push	 11			; 0000000bH
  00484	e8 00 00 00 00	 call	 ?set_event@@YGXHHHP6GXPAUEVENT@@@Z@Z ; set_event

; 902  : 
; 903  : 	set_event (DIK_C, MODIFIER_LEFT_ALT, KEY_STATE_DOWN, toggle_ka50_canopy_doors);

  00489	68 00 00 00 00	 push	 OFFSET ?toggle_ka50_canopy_doors@@YGXPAUEVENT@@@Z ; toggle_ka50_canopy_doors
  0048e	6a 02		 push	 2
  00490	6a 03		 push	 3
  00492	6a 2e		 push	 46			; 0000002eH
  00494	e8 00 00 00 00	 call	 ?set_event@@YGXHHHP6GXPAUEVENT@@@Z@Z ; set_event

; 904  : 
; 905  : 	////////////////////////////////////////
; 906  : 	//
; 907  : 	// JOYSTICK EVENTS
; 908  : 	//
; 909  : 	////////////////////////////////////////
; 910  : 
; 911  : 	set_event ((JOYSTICK_BUTTON + 3), MODIFIER_NONE, KEY_STATE_DOWN, select_next_target_event);

  00499	68 00 00 00 00	 push	 OFFSET ?select_next_target_event@@YGXPAUEVENT@@@Z ; select_next_target_event
  0049e	6a 02		 push	 2
  004a0	6a 00		 push	 0
  004a2	68 0e 01 00 00	 push	 270			; 0000010eH
  004a7	e8 00 00 00 00	 call	 ?set_event@@YGXHHHP6GXPAUEVENT@@@Z@Z ; set_event

; 912  : 
; 913  : 	set_event ((JOYSTICK_BUTTON + 4), MODIFIER_NONE, KEY_STATE_DOWN, virtual_cockpit_track_target_event);

  004ac	68 00 00 00 00	 push	 OFFSET ?virtual_cockpit_track_target_event@@YGXPAUEVENT@@@Z ; virtual_cockpit_track_target_event
  004b1	6a 02		 push	 2
  004b3	6a 00		 push	 0
  004b5	68 0f 01 00 00	 push	 271			; 0000010fH
  004ba	e8 00 00 00 00	 call	 ?set_event@@YGXHHHP6GXPAUEVENT@@@Z@Z ; set_event
$LN1@set_ka50_a:

; 914  : 
; 915  : }

  004bf	5f		 pop	 edi
  004c0	5e		 pop	 esi
  004c1	5b		 pop	 ebx
  004c2	8b e5		 mov	 esp, ebp
  004c4	5d		 pop	 ebp
  004c5	c3		 ret	 0
?set_ka50_avionics_events@@YGXXZ ENDP			; set_ka50_avionics_events
_TEXT	ENDS
END
