; Listing generated by Microsoft (R) Optimizing Compiler Version 19.16.27045.0 

	TITLE	C:\Users\nhv90\Projects\eech\aphavoc\source\gunships\cockpits\ka50\hm_doors.c
	.686P
	.XMM
	include listing.inc
	.model	flat

INCLUDELIB MSVCRTD
INCLUDELIB OLDNAMES

PUBLIC	?initialise_ka50_virtual_cockpit_canopy_doors@@YGXXZ ; initialise_ka50_virtual_cockpit_canopy_doors
PUBLIC	?animate_ka50_virtual_cockpit_canopy_doors@@YGXXZ ; animate_ka50_virtual_cockpit_canopy_doors
PUBLIC	?toggle_ka50_canopy_doors@@YGXPAUEVENT@@@Z	; toggle_ka50_canopy_doors
PUBLIC	?__LINE__Var@?0??get_canopy_doors_aiming_state@@YGMXZ@4JA ; `get_canopy_doors_aiming_state'::`1'::__LINE__Var
PUBLIC	??_C@_0EO@NGEPHPEF@c?3?2users?2nhv90?2projects?2eech?2ap@ ; `string'
PUBLIC	??_C@_0BG@EANNPEON@get_gunship_entity?5?$CI?$CJ@ ; `string'
PUBLIC	??_C@_0BI@CKBJIOHI@current_flight_dynamics@	; `string'
PUBLIC	?__LINE__Var@?0??animate_ka50_virtual_cockpit_canopy_doors@@YGXXZ@4JA ; `animate_ka50_virtual_cockpit_canopy_doors'::`1'::__LINE__Var
PUBLIC	??_C@_0BH@OJOOJLIP@virtual_cockpit_inst3d@	; `string'
PUBLIC	??_C@_0FN@DBDEPNLL@canopy_door_state?5?$DM?$DN?5CANOPY_DOO@ ; `string'
PUBLIC	??_C@_06DDNABPCD@inst3d@			; `string'
PUBLIC	__real@00000000
PUBLIC	__real@3f800000
PUBLIC	__real@3fe0000000000000
EXTRN	?process_assert@@YGXPBD0H@Z:PROC		; process_assert
EXTRN	?find_object_3d_sub_object@@YG?AW4SUB_OBJECT_SEARCH_RESULT_TYPES@@PAUOBJECT_3D_SUB_OBJECT_SEARCH_DATA@@@Z:PROC ; find_object_3d_sub_object
EXTRN	?animate_keyframed_sub_object_type@@YGHPAUOBJECT_3D_INSTANCE@@HM@Z:PROC ; animate_keyframed_sub_object_type
EXTRN	?system_delta_time@@3MA:DWORD			; system_delta_time
EXTRN	?command_line_dynamics_engine_startup@@3HA:DWORD ; command_line_dynamics_engine_startup
EXTRN	?null_entity_pointer_message@@3PBDB:DWORD	; null_entity_pointer_message
EXTRN	?overload_invalid_int_type_message@@3PBDB:DWORD	; overload_invalid_int_type_message
EXTRN	?fn_get_local_entity_int_value@@3PAY0BBH@P6GHPAUENTITY@@W4INT_TYPES@@@ZA:BYTE ; fn_get_local_entity_int_value
EXTRN	?overload_invalid_ptr_type_message@@3PBDB:DWORD	; overload_invalid_ptr_type_message
EXTRN	?fn_get_local_entity_ptr_value@@3PAY0BE@P6GPAXPAUENTITY@@W4PTR_TYPES@@@ZA:BYTE ; fn_get_local_entity_ptr_value
EXTRN	?gunship_entity@@3PAUENTITY@@A:DWORD		; gunship_entity
EXTRN	?canopy_door_state@@3MA:DWORD			; canopy_door_state
EXTRN	?virtual_cockpit_inst3d@@3PAUOBJECT_3D_INSTANCE@@A:DWORD ; virtual_cockpit_inst3d
EXTRN	?current_flight_dynamics@@3PAUDYNAMICS_TYPE@@A:DWORD ; current_flight_dynamics
EXTRN	__fltused:DWORD
_BSS	SEGMENT
?aiming_state@@3MA DD 01H DUP (?)			; aiming_state
_BSS	ENDS
;	COMDAT __real@3fe0000000000000
CONST	SEGMENT
__real@3fe0000000000000 DQ 03fe0000000000000r	; 0.5
CONST	ENDS
;	COMDAT __real@3f800000
CONST	SEGMENT
__real@3f800000 DD 03f800000r			; 1
CONST	ENDS
;	COMDAT __real@00000000
CONST	SEGMENT
__real@00000000 DD 000000000r			; 0
CONST	ENDS
;	COMDAT ??_C@_06DDNABPCD@inst3d@
CONST	SEGMENT
??_C@_06DDNABPCD@inst3d@ DB 'inst3d', 00H		; `string'
CONST	ENDS
;	COMDAT ??_C@_0FN@DBDEPNLL@canopy_door_state?5?$DM?$DN?5CANOPY_DOO@
CONST	SEGMENT
??_C@_0FN@DBDEPNLL@canopy_door_state?5?$DM?$DN?5CANOPY_DOO@ DB 'canopy_do'
	DB	'or_state <= CANOPY_DOOR_STATE_OPEN && canopy_door_state >= CA'
	DB	'NOPY_DOOR_STATE_CLOSED', 00H		; `string'
CONST	ENDS
;	COMDAT ??_C@_0BH@OJOOJLIP@virtual_cockpit_inst3d@
CONST	SEGMENT
??_C@_0BH@OJOOJLIP@virtual_cockpit_inst3d@ DB 'virtual_cockpit_inst3d', 00H ; `string'
CONST	ENDS
;	COMDAT ?__LINE__Var@?0??animate_ka50_virtual_cockpit_canopy_doors@@YGXXZ@4JA
_DATA	SEGMENT
?__LINE__Var@?0??animate_ka50_virtual_cockpit_canopy_doors@@YGXXZ@4JA DD 080H ; `animate_ka50_virtual_cockpit_canopy_doors'::`1'::__LINE__Var
_DATA	ENDS
;	COMDAT ??_C@_0BI@CKBJIOHI@current_flight_dynamics@
CONST	SEGMENT
??_C@_0BI@CKBJIOHI@current_flight_dynamics@ DB 'current_flight_dynamics', 00H ; `string'
CONST	ENDS
;	COMDAT ??_C@_0BG@EANNPEON@get_gunship_entity?5?$CI?$CJ@
CONST	SEGMENT
??_C@_0BG@EANNPEON@get_gunship_entity?5?$CI?$CJ@ DB 'get_gunship_entity ('
	DB	')', 00H					; `string'
CONST	ENDS
;	COMDAT ??_C@_0EO@NGEPHPEF@c?3?2users?2nhv90?2projects?2eech?2ap@
CONST	SEGMENT
??_C@_0EO@NGEPHPEF@c?3?2users?2nhv90?2projects?2eech?2ap@ DB 'c:\users\nh'
	DB	'v90\projects\eech\aphavoc\source\gunships\cockpits\ka50\hm_do'
	DB	'ors.c', 00H					; `string'
CONST	ENDS
;	COMDAT ?__LINE__Var@?0??get_canopy_doors_aiming_state@@YGMXZ@4JA
_DATA	SEGMENT
?__LINE__Var@?0??get_canopy_doors_aiming_state@@YGMXZ@4JA DD 064H ; `get_canopy_doors_aiming_state'::`1'::__LINE__Var
_DATA	ENDS
; Function compile flags: /Odtp /ZI
; File c:\users\nhv90\projects\eech\aphavoc\source\gunships\cockpits\ka50\hm_doors.c
;	COMDAT ?get_canopy_doors_aiming_state@@YGMXZ
_TEXT	SEGMENT
tv86 = -72						; size = 4
tv79 = -68						; size = 4
?get_canopy_doors_aiming_state@@YGMXZ PROC		; get_canopy_doors_aiming_state, COMDAT

; 100  : {

  00000	55		 push	 ebp
  00001	8b ec		 mov	 ebp, esp
  00003	83 ec 48	 sub	 esp, 72			; 00000048H
  00006	53		 push	 ebx
  00007	56		 push	 esi
  00008	57		 push	 edi

; 101  : 	ASSERT (get_gunship_entity ());

  00009	83 3d 00 00 00
	00 00		 cmp	 DWORD PTR ?gunship_entity@@3PAUENTITY@@A, 0 ; gunship_entity
  00010	75 18		 jne	 SHORT $LN2@get_canopy
  00012	a1 00 00 00 00	 mov	 eax, DWORD PTR ?__LINE__Var@?0??get_canopy_doors_aiming_state@@YGMXZ@4JA
  00017	83 c0 01	 add	 eax, 1
  0001a	50		 push	 eax
  0001b	68 00 00 00 00	 push	 OFFSET ??_C@_0EO@NGEPHPEF@c?3?2users?2nhv90?2projects?2eech?2ap@
  00020	68 00 00 00 00	 push	 OFFSET ??_C@_0BG@EANNPEON@get_gunship_entity?5?$CI?$CJ@
  00025	e8 00 00 00 00	 call	 ?process_assert@@YGXPBD0H@Z ; process_assert
$LN2@get_canopy:

; 102  : 
; 103  : 	ASSERT (current_flight_dynamics);

  0002a	83 3d 00 00 00
	00 00		 cmp	 DWORD PTR ?current_flight_dynamics@@3PAUDYNAMICS_TYPE@@A, 0 ; current_flight_dynamics
  00031	75 18		 jne	 SHORT $LN3@get_canopy
  00033	a1 00 00 00 00	 mov	 eax, DWORD PTR ?__LINE__Var@?0??get_canopy_doors_aiming_state@@YGMXZ@4JA
  00038	83 c0 03	 add	 eax, 3
  0003b	50		 push	 eax
  0003c	68 00 00 00 00	 push	 OFFSET ??_C@_0EO@NGEPHPEF@c?3?2users?2nhv90?2projects?2eech?2ap@
  00041	68 00 00 00 00	 push	 OFFSET ??_C@_0BI@CKBJIOHI@current_flight_dynamics@
  00046	e8 00 00 00 00	 call	 ?process_assert@@YGXPBD0H@Z ; process_assert
$LN3@get_canopy:

; 104  : 
; 105  : 	if (get_local_entity_int_value (get_gunship_entity (), INT_TYPE_AIRBORNE_AIRCRAFT))

  0004b	83 3d 00 00 00
	00 00		 cmp	 DWORD PTR ?gunship_entity@@3PAUENTITY@@A, 0 ; gunship_entity
  00052	74 0c		 je	 SHORT $LN6@get_canopy
  00054	a1 00 00 00 00	 mov	 eax, DWORD PTR ?gunship_entity@@3PAUENTITY@@A ; gunship_entity
  00059	8b 08		 mov	 ecx, DWORD PTR [eax]
  0005b	89 4d bc	 mov	 DWORD PTR tv79[ebp], ecx
  0005e	eb 1a		 jmp	 SHORT $LN7@get_canopy
$LN6@get_canopy:
  00060	6a 69		 push	 105			; 00000069H
  00062	68 00 00 00 00	 push	 OFFSET ??_C@_0EO@NGEPHPEF@c?3?2users?2nhv90?2projects?2eech?2ap@
  00067	8b 15 00 00 00
	00		 mov	 edx, DWORD PTR ?null_entity_pointer_message@@3PBDB ; null_entity_pointer_message
  0006d	52		 push	 edx
  0006e	e8 00 00 00 00	 call	 ?process_assert@@YGXPBD0H@Z ; process_assert
  00073	c7 45 bc 00 00
	00 00		 mov	 DWORD PTR tv79[ebp], 0
$LN7@get_canopy:
  0007a	b8 01 00 00 00	 mov	 eax, 1
  0007f	85 c0		 test	 eax, eax
  00081	74 09		 je	 SHORT $LN8@get_canopy
  00083	c7 45 b8 04 00
	00 00		 mov	 DWORD PTR tv86[ebp], 4
  0008a	eb 1a		 jmp	 SHORT $LN9@get_canopy
$LN8@get_canopy:
  0008c	6a 69		 push	 105			; 00000069H
  0008e	68 00 00 00 00	 push	 OFFSET ??_C@_0EO@NGEPHPEF@c?3?2users?2nhv90?2projects?2eech?2ap@
  00093	8b 0d 00 00 00
	00		 mov	 ecx, DWORD PTR ?overload_invalid_int_type_message@@3PBDB ; overload_invalid_int_type_message
  00099	51		 push	 ecx
  0009a	e8 00 00 00 00	 call	 ?process_assert@@YGXPBD0H@Z ; process_assert
  0009f	c7 45 b8 00 00
	00 00		 mov	 DWORD PTR tv86[ebp], 0
$LN9@get_canopy:
  000a6	6a 04		 push	 4
  000a8	8b 15 00 00 00
	00		 mov	 edx, DWORD PTR ?gunship_entity@@3PAUENTITY@@A ; gunship_entity
  000ae	52		 push	 edx
  000af	69 45 bc 5c 04
	00 00		 imul	 eax, DWORD PTR tv79[ebp], 1116
  000b6	8b 4d b8	 mov	 ecx, DWORD PTR tv86[ebp]
  000b9	8b 94 88 00 00
	00 00		 mov	 edx, DWORD PTR ?fn_get_local_entity_int_value@@3PAY0BBH@P6GHPAUENTITY@@W4INT_TYPES@@@ZA[eax+ecx*4]
  000c0	ff d2		 call	 edx
  000c2	85 c0		 test	 eax, eax
  000c4	74 0b		 je	 SHORT $LN4@get_canopy

; 106  : 		aiming_state = CANOPY_DOOR_STATE_CLOSED;

  000c6	0f 57 c0	 xorps	 xmm0, xmm0
  000c9	f3 0f 11 05 00
	00 00 00	 movss	 DWORD PTR ?aiming_state@@3MA, xmm0
$LN4@get_canopy:

; 107  : 
; 108  : 	return (aiming_state);

  000d1	d9 05 00 00 00
	00		 fld	 DWORD PTR ?aiming_state@@3MA

; 109  : }

  000d7	5f		 pop	 edi
  000d8	5e		 pop	 esi
  000d9	5b		 pop	 ebx
  000da	8b e5		 mov	 esp, ebp
  000dc	5d		 pop	 ebp
  000dd	c3		 ret	 0
?get_canopy_doors_aiming_state@@YGMXZ ENDP		; get_canopy_doors_aiming_state
_TEXT	ENDS
; Function compile flags: /Odtp /ZI
; File c:\users\nhv90\projects\eech\aphavoc\source\gunships\cockpits\ka50\hm_doors.c
;	COMDAT ?toggle_ka50_canopy_doors@@YGXPAUEVENT@@@Z
_TEXT	SEGMENT
_ev$ = 8						; size = 4
?toggle_ka50_canopy_doors@@YGXPAUEVENT@@@Z PROC		; toggle_ka50_canopy_doors, COMDAT

; 88   : {

  00000	55		 push	 ebp
  00001	8b ec		 mov	 ebp, esp
  00003	83 ec 40	 sub	 esp, 64			; 00000040H
  00006	53		 push	 ebx
  00007	56		 push	 esi
  00008	57		 push	 edi

; 89   : 	if (aiming_state == CANOPY_DOOR_STATE_OPEN)

  00009	f3 0f 10 05 00
	00 00 00	 movss	 xmm0, DWORD PTR ?aiming_state@@3MA
  00011	0f 2e 05 00 00
	00 00		 ucomiss xmm0, DWORD PTR __real@3f800000
  00018	9f		 lahf
  00019	f6 c4 44	 test	 ah, 68			; 00000044H
  0001c	7a 0d		 jp	 SHORT $LN2@toggle_ka5

; 90   : 		aiming_state = CANOPY_DOOR_STATE_CLOSED;

  0001e	0f 57 c0	 xorps	 xmm0, xmm0
  00021	f3 0f 11 05 00
	00 00 00	 movss	 DWORD PTR ?aiming_state@@3MA, xmm0

; 91   : 	else

  00029	eb 10		 jmp	 SHORT $LN3@toggle_ka5
$LN2@toggle_ka5:

; 92   : 		aiming_state = CANOPY_DOOR_STATE_OPEN;

  0002b	f3 0f 10 05 00
	00 00 00	 movss	 xmm0, DWORD PTR __real@3f800000
  00033	f3 0f 11 05 00
	00 00 00	 movss	 DWORD PTR ?aiming_state@@3MA, xmm0
$LN3@toggle_ka5:

; 93   : }

  0003b	5f		 pop	 edi
  0003c	5e		 pop	 esi
  0003d	5b		 pop	 ebx
  0003e	8b e5		 mov	 esp, ebp
  00040	5d		 pop	 ebp
  00041	c2 04 00	 ret	 4
?toggle_ka50_canopy_doors@@YGXPAUEVENT@@@Z ENDP		; toggle_ka50_canopy_doors
_TEXT	ENDS
; Function compile flags: /Odtp /ZI
; File c:\users\nhv90\projects\eech\aphavoc\source\gunships\cockpits\ka50\hm_doors.c
;	COMDAT ?animate_ka50_virtual_cockpit_canopy_doors@@YGXXZ
_TEXT	SEGMENT
tv167 = -140						; size = 4
tv139 = -140						; size = 4
tv188 = -136						; size = 4
tv178 = -136						; size = 4
tv159 = -136						; size = 4
tv131 = -136						; size = 4
_search$ = -68						; size = 56
_inst3d$ = -12						; size = 4
_aiming_state$ = -8					; size = 4
_ejected$ = -4						; size = 4
?animate_ka50_virtual_cockpit_canopy_doors@@YGXXZ PROC	; animate_ka50_virtual_cockpit_canopy_doors, COMDAT

; 128  : {

  00000	55		 push	 ebp
  00001	8b ec		 mov	 ebp, esp
  00003	81 ec 8c 00 00
	00		 sub	 esp, 140		; 0000008cH
  00009	53		 push	 ebx
  0000a	56		 push	 esi
  0000b	57		 push	 edi

; 129  : 	int
; 130  : 		ejected;
; 131  : 
; 132  : 	float
; 133  : 		aiming_state;
; 134  : 
; 135  : 	object_3d_instance
; 136  : 		*inst3d;
; 137  : 
; 138  : 	object_3d_sub_object_search_data
; 139  : 		search;
; 140  : 
; 141  : 	ASSERT (virtual_cockpit_inst3d);

  0000c	83 3d 00 00 00
	00 00		 cmp	 DWORD PTR ?virtual_cockpit_inst3d@@3PAUOBJECT_3D_INSTANCE@@A, 0 ; virtual_cockpit_inst3d
  00013	75 18		 jne	 SHORT $LN2@animate_ka
  00015	a1 00 00 00 00	 mov	 eax, DWORD PTR ?__LINE__Var@?0??animate_ka50_virtual_cockpit_canopy_doors@@YGXXZ@4JA
  0001a	83 c0 0d	 add	 eax, 13			; 0000000dH
  0001d	50		 push	 eax
  0001e	68 00 00 00 00	 push	 OFFSET ??_C@_0EO@NGEPHPEF@c?3?2users?2nhv90?2projects?2eech?2ap@
  00023	68 00 00 00 00	 push	 OFFSET ??_C@_0BH@OJOOJLIP@virtual_cockpit_inst3d@
  00028	e8 00 00 00 00	 call	 ?process_assert@@YGXPBD0H@Z ; process_assert
$LN2@animate_ka:

; 142  : 	ASSERT (canopy_door_state <= CANOPY_DOOR_STATE_OPEN && canopy_door_state >= CANOPY_DOOR_STATE_CLOSED);

  0002d	f3 0f 10 05 00
	00 00 00	 movss	 xmm0, DWORD PTR __real@3f800000
  00035	0f 2f 05 00 00
	00 00		 comiss	 xmm0, DWORD PTR ?canopy_door_state@@3MA
  0003c	72 11		 jb	 SHORT $LN4@animate_ka
  0003e	f3 0f 10 05 00
	00 00 00	 movss	 xmm0, DWORD PTR ?canopy_door_state@@3MA
  00046	0f 2f 05 00 00
	00 00		 comiss	 xmm0, DWORD PTR __real@00000000
  0004d	73 18		 jae	 SHORT $LN3@animate_ka
$LN4@animate_ka:
  0004f	a1 00 00 00 00	 mov	 eax, DWORD PTR ?__LINE__Var@?0??animate_ka50_virtual_cockpit_canopy_doors@@YGXXZ@4JA
  00054	83 c0 0e	 add	 eax, 14			; 0000000eH
  00057	50		 push	 eax
  00058	68 00 00 00 00	 push	 OFFSET ??_C@_0EO@NGEPHPEF@c?3?2users?2nhv90?2projects?2eech?2ap@
  0005d	68 00 00 00 00	 push	 OFFSET ??_C@_0FN@DBDEPNLL@canopy_door_state?5?$DM?$DN?5CANOPY_DOO@
  00062	e8 00 00 00 00	 call	 ?process_assert@@YGXPBD0H@Z ; process_assert
$LN3@animate_ka:

; 143  : 
; 144  : 	aiming_state = get_canopy_doors_aiming_state ();

  00067	e8 00 00 00 00	 call	 ?get_canopy_doors_aiming_state@@YGMXZ ; get_canopy_doors_aiming_state
  0006c	d9 5d f8	 fstp	 DWORD PTR _aiming_state$[ebp]

; 145  : 
; 146  : 	if (aiming_state > canopy_door_state)

  0006f	f3 0f 10 45 f8	 movss	 xmm0, DWORD PTR _aiming_state$[ebp]
  00074	0f 2f 05 00 00
	00 00		 comiss	 xmm0, DWORD PTR ?canopy_door_state@@3MA
  0007b	76 4b		 jbe	 SHORT $LN5@animate_ka

; 147  : 	{
; 148  : 		canopy_door_state += get_delta_time () * 0.5;

  0007d	f3 0f 5a 05 00
	00 00 00	 cvtss2sd xmm0, DWORD PTR ?system_delta_time@@3MA
  00085	f2 0f 59 05 00
	00 00 00	 mulsd	 xmm0, QWORD PTR __real@3fe0000000000000
  0008d	f3 0f 5a 0d 00
	00 00 00	 cvtss2sd xmm1, DWORD PTR ?canopy_door_state@@3MA
  00095	f2 0f 58 c8	 addsd	 xmm1, xmm0
  00099	f2 0f 5a c1	 cvtsd2ss xmm0, xmm1
  0009d	f3 0f 11 05 00
	00 00 00	 movss	 DWORD PTR ?canopy_door_state@@3MA, xmm0

; 149  : 
; 150  : 		if (canopy_door_state > CANOPY_DOOR_STATE_OPEN)

  000a5	f3 0f 10 05 00
	00 00 00	 movss	 xmm0, DWORD PTR ?canopy_door_state@@3MA
  000ad	0f 2f 05 00 00
	00 00		 comiss	 xmm0, DWORD PTR __real@3f800000
  000b4	76 10		 jbe	 SHORT $LN7@animate_ka

; 151  : 		{
; 152  : 			canopy_door_state = CANOPY_DOOR_STATE_OPEN;

  000b6	f3 0f 10 05 00
	00 00 00	 movss	 xmm0, DWORD PTR __real@3f800000
  000be	f3 0f 11 05 00
	00 00 00	 movss	 DWORD PTR ?canopy_door_state@@3MA, xmm0
$LN7@animate_ka:

; 153  : 		}
; 154  : 	}

  000c6	eb 4d		 jmp	 SHORT $LN9@animate_ka
$LN5@animate_ka:

; 155  : 	else if (aiming_state < canopy_door_state)

  000c8	f3 0f 10 05 00
	00 00 00	 movss	 xmm0, DWORD PTR ?canopy_door_state@@3MA
  000d0	0f 2f 45 f8	 comiss	 xmm0, DWORD PTR _aiming_state$[ebp]
  000d4	76 3f		 jbe	 SHORT $LN9@animate_ka

; 156  : 	{
; 157  : 		canopy_door_state -= get_delta_time () * 0.5;

  000d6	f3 0f 5a 05 00
	00 00 00	 cvtss2sd xmm0, DWORD PTR ?system_delta_time@@3MA
  000de	f2 0f 59 05 00
	00 00 00	 mulsd	 xmm0, QWORD PTR __real@3fe0000000000000
  000e6	f3 0f 5a 0d 00
	00 00 00	 cvtss2sd xmm1, DWORD PTR ?canopy_door_state@@3MA
  000ee	f2 0f 5c c8	 subsd	 xmm1, xmm0
  000f2	f2 0f 5a c1	 cvtsd2ss xmm0, xmm1
  000f6	f3 0f 11 05 00
	00 00 00	 movss	 DWORD PTR ?canopy_door_state@@3MA, xmm0

; 158  : 
; 159  : 		if (canopy_door_state < CANOPY_DOOR_STATE_CLOSED)

  000fe	0f 57 c0	 xorps	 xmm0, xmm0
  00101	0f 2f 05 00 00
	00 00		 comiss	 xmm0, DWORD PTR ?canopy_door_state@@3MA
  00108	76 0b		 jbe	 SHORT $LN9@animate_ka

; 160  : 		{
; 161  : 			canopy_door_state = CANOPY_DOOR_STATE_CLOSED;

  0010a	0f 57 c0	 xorps	 xmm0, xmm0
  0010d	f3 0f 11 05 00
	00 00 00	 movss	 DWORD PTR ?canopy_door_state@@3MA, xmm0
$LN9@animate_ka:

; 162  : 		}
; 163  : 	}
; 164  : 
; 165  : 	animate_keyframed_sub_object_type (virtual_cockpit_inst3d, OBJECT_3D_SUB_OBJECT_CANOPY_DOORS, canopy_door_state);

  00115	51		 push	 ecx
  00116	f3 0f 10 05 00
	00 00 00	 movss	 xmm0, DWORD PTR ?canopy_door_state@@3MA
  0011e	f3 0f 11 04 24	 movss	 DWORD PTR [esp], xmm0
  00123	68 c3 00 00 00	 push	 195			; 000000c3H
  00128	a1 00 00 00 00	 mov	 eax, DWORD PTR ?virtual_cockpit_inst3d@@3PAUOBJECT_3D_INSTANCE@@A ; virtual_cockpit_inst3d
  0012d	50		 push	 eax
  0012e	e8 00 00 00 00	 call	 ?animate_keyframed_sub_object_type@@YGHPAUOBJECT_3D_INSTANCE@@HM@Z ; animate_keyframed_sub_object_type

; 166  : 
; 167  : 	//
; 168  : 	// keep external 3D model in sync
; 169  : 	//
; 170  : 
; 171  : 	inst3d = (object_3d_instance *) get_local_entity_ptr_value (get_gunship_entity (), PTR_TYPE_INSTANCE_3D_OBJECT);

  00133	83 3d 00 00 00
	00 00		 cmp	 DWORD PTR ?gunship_entity@@3PAUENTITY@@A, 0 ; gunship_entity
  0013a	74 0f		 je	 SHORT $LN14@animate_ka
  0013c	a1 00 00 00 00	 mov	 eax, DWORD PTR ?gunship_entity@@3PAUENTITY@@A ; gunship_entity
  00141	8b 08		 mov	 ecx, DWORD PTR [eax]
  00143	89 8d 78 ff ff
	ff		 mov	 DWORD PTR tv131[ebp], ecx
  00149	eb 24		 jmp	 SHORT $LN15@animate_ka
$LN14@animate_ka:
  0014b	8b 15 00 00 00
	00		 mov	 edx, DWORD PTR ?__LINE__Var@?0??animate_ka50_virtual_cockpit_canopy_doors@@YGXXZ@4JA
  00151	83 c2 2b	 add	 edx, 43			; 0000002bH
  00154	52		 push	 edx
  00155	68 00 00 00 00	 push	 OFFSET ??_C@_0EO@NGEPHPEF@c?3?2users?2nhv90?2projects?2eech?2ap@
  0015a	a1 00 00 00 00	 mov	 eax, DWORD PTR ?null_entity_pointer_message@@3PBDB ; null_entity_pointer_message
  0015f	50		 push	 eax
  00160	e8 00 00 00 00	 call	 ?process_assert@@YGXPBD0H@Z ; process_assert
  00165	c7 85 78 ff ff
	ff 00 00 00 00	 mov	 DWORD PTR tv131[ebp], 0
$LN15@animate_ka:
  0016f	b9 01 00 00 00	 mov	 ecx, 1
  00174	85 c9		 test	 ecx, ecx
  00176	74 0c		 je	 SHORT $LN16@animate_ka
  00178	c7 85 74 ff ff
	ff 02 00 00 00	 mov	 DWORD PTR tv139[ebp], 2
  00182	eb 24		 jmp	 SHORT $LN17@animate_ka
$LN16@animate_ka:
  00184	8b 15 00 00 00
	00		 mov	 edx, DWORD PTR ?__LINE__Var@?0??animate_ka50_virtual_cockpit_canopy_doors@@YGXXZ@4JA
  0018a	83 c2 2b	 add	 edx, 43			; 0000002bH
  0018d	52		 push	 edx
  0018e	68 00 00 00 00	 push	 OFFSET ??_C@_0EO@NGEPHPEF@c?3?2users?2nhv90?2projects?2eech?2ap@
  00193	a1 00 00 00 00	 mov	 eax, DWORD PTR ?overload_invalid_ptr_type_message@@3PBDB ; overload_invalid_ptr_type_message
  00198	50		 push	 eax
  00199	e8 00 00 00 00	 call	 ?process_assert@@YGXPBD0H@Z ; process_assert
  0019e	c7 85 74 ff ff
	ff 00 00 00 00	 mov	 DWORD PTR tv139[ebp], 0
$LN17@animate_ka:
  001a8	6a 02		 push	 2
  001aa	8b 0d 00 00 00
	00		 mov	 ecx, DWORD PTR ?gunship_entity@@3PAUENTITY@@A ; gunship_entity
  001b0	51		 push	 ecx
  001b1	6b 95 78 ff ff
	ff 50		 imul	 edx, DWORD PTR tv131[ebp], 80
  001b8	8b 85 74 ff ff
	ff		 mov	 eax, DWORD PTR tv139[ebp]
  001be	8b 8c 82 00 00
	00 00		 mov	 ecx, DWORD PTR ?fn_get_local_entity_ptr_value@@3PAY0BE@P6GPAXPAUENTITY@@W4PTR_TYPES@@@ZA[edx+eax*4]
  001c5	ff d1		 call	 ecx
  001c7	89 45 f4	 mov	 DWORD PTR _inst3d$[ebp], eax

; 172  : 
; 173  : 	ASSERT (inst3d);

  001ca	83 7d f4 00	 cmp	 DWORD PTR _inst3d$[ebp], 0
  001ce	75 18		 jne	 SHORT $LN10@animate_ka
  001d0	a1 00 00 00 00	 mov	 eax, DWORD PTR ?__LINE__Var@?0??animate_ka50_virtual_cockpit_canopy_doors@@YGXXZ@4JA
  001d5	83 c0 2d	 add	 eax, 45			; 0000002dH
  001d8	50		 push	 eax
  001d9	68 00 00 00 00	 push	 OFFSET ??_C@_0EO@NGEPHPEF@c?3?2users?2nhv90?2projects?2eech?2ap@
  001de	68 00 00 00 00	 push	 OFFSET ??_C@_06DDNABPCD@inst3d@
  001e3	e8 00 00 00 00	 call	 ?process_assert@@YGXPBD0H@Z ; process_assert
$LN10@animate_ka:

; 174  : 
; 175  : 	animate_keyframed_sub_object_type (inst3d, OBJECT_3D_SUB_OBJECT_CANOPY_DOORS, canopy_door_state);

  001e8	51		 push	 ecx
  001e9	f3 0f 10 05 00
	00 00 00	 movss	 xmm0, DWORD PTR ?canopy_door_state@@3MA
  001f1	f3 0f 11 04 24	 movss	 DWORD PTR [esp], xmm0
  001f6	68 c3 00 00 00	 push	 195			; 000000c3H
  001fb	8b 45 f4	 mov	 eax, DWORD PTR _inst3d$[ebp]
  001fe	50		 push	 eax
  001ff	e8 00 00 00 00	 call	 ?animate_keyframed_sub_object_type@@YGHPAUOBJECT_3D_INSTANCE@@HM@Z ; animate_keyframed_sub_object_type

; 176  : 
; 177  : 	//
; 178  : 	// ejected
; 179  : 	//
; 180  : 
; 181  : 	ejected = get_local_entity_int_value (get_gunship_entity (), INT_TYPE_EJECTED);

  00204	83 3d 00 00 00
	00 00		 cmp	 DWORD PTR ?gunship_entity@@3PAUENTITY@@A, 0 ; gunship_entity
  0020b	74 0f		 je	 SHORT $LN18@animate_ka
  0020d	a1 00 00 00 00	 mov	 eax, DWORD PTR ?gunship_entity@@3PAUENTITY@@A ; gunship_entity
  00212	8b 08		 mov	 ecx, DWORD PTR [eax]
  00214	89 8d 78 ff ff
	ff		 mov	 DWORD PTR tv159[ebp], ecx
  0021a	eb 24		 jmp	 SHORT $LN19@animate_ka
$LN18@animate_ka:
  0021c	8b 15 00 00 00
	00		 mov	 edx, DWORD PTR ?__LINE__Var@?0??animate_ka50_virtual_cockpit_canopy_doors@@YGXXZ@4JA
  00222	83 c2 35	 add	 edx, 53			; 00000035H
  00225	52		 push	 edx
  00226	68 00 00 00 00	 push	 OFFSET ??_C@_0EO@NGEPHPEF@c?3?2users?2nhv90?2projects?2eech?2ap@
  0022b	a1 00 00 00 00	 mov	 eax, DWORD PTR ?null_entity_pointer_message@@3PBDB ; null_entity_pointer_message
  00230	50		 push	 eax
  00231	e8 00 00 00 00	 call	 ?process_assert@@YGXPBD0H@Z ; process_assert
  00236	c7 85 78 ff ff
	ff 00 00 00 00	 mov	 DWORD PTR tv159[ebp], 0
$LN19@animate_ka:
  00240	b9 01 00 00 00	 mov	 ecx, 1
  00245	85 c9		 test	 ecx, ecx
  00247	74 0c		 je	 SHORT $LN20@animate_ka
  00249	c7 85 74 ff ff
	ff 31 00 00 00	 mov	 DWORD PTR tv167[ebp], 49 ; 00000031H
  00253	eb 24		 jmp	 SHORT $LN21@animate_ka
$LN20@animate_ka:
  00255	8b 15 00 00 00
	00		 mov	 edx, DWORD PTR ?__LINE__Var@?0??animate_ka50_virtual_cockpit_canopy_doors@@YGXXZ@4JA
  0025b	83 c2 35	 add	 edx, 53			; 00000035H
  0025e	52		 push	 edx
  0025f	68 00 00 00 00	 push	 OFFSET ??_C@_0EO@NGEPHPEF@c?3?2users?2nhv90?2projects?2eech?2ap@
  00264	a1 00 00 00 00	 mov	 eax, DWORD PTR ?overload_invalid_int_type_message@@3PBDB ; overload_invalid_int_type_message
  00269	50		 push	 eax
  0026a	e8 00 00 00 00	 call	 ?process_assert@@YGXPBD0H@Z ; process_assert
  0026f	c7 85 74 ff ff
	ff 00 00 00 00	 mov	 DWORD PTR tv167[ebp], 0
$LN21@animate_ka:
  00279	6a 31		 push	 49			; 00000031H
  0027b	8b 0d 00 00 00
	00		 mov	 ecx, DWORD PTR ?gunship_entity@@3PAUENTITY@@A ; gunship_entity
  00281	51		 push	 ecx
  00282	69 95 78 ff ff
	ff 5c 04 00 00	 imul	 edx, DWORD PTR tv159[ebp], 1116
  0028c	8b 85 74 ff ff
	ff		 mov	 eax, DWORD PTR tv167[ebp]
  00292	8b 8c 82 00 00
	00 00		 mov	 ecx, DWORD PTR ?fn_get_local_entity_int_value@@3PAY0BBH@P6GHPAUENTITY@@W4INT_TYPES@@@ZA[edx+eax*4]
  00299	ff d1		 call	 ecx
  0029b	89 45 fc	 mov	 DWORD PTR _ejected$[ebp], eax

; 182  : 
; 183  : 	search.search_depth = 0;

  0029e	c7 45 c4 00 00
	00 00		 mov	 DWORD PTR _search$[ebp+8], 0

; 184  : 	search.search_object = virtual_cockpit_inst3d;

  002a5	a1 00 00 00 00	 mov	 eax, DWORD PTR ?virtual_cockpit_inst3d@@3PAUOBJECT_3D_INSTANCE@@A ; virtual_cockpit_inst3d
  002aa	89 45 bc	 mov	 DWORD PTR _search$[ebp], eax

; 185  : 	search.sub_object_index = OBJECT_3D_SUB_OBJECT_CANOPY_DOORS;

  002ad	c7 45 c8 c3 00
	00 00		 mov	 DWORD PTR _search$[ebp+12], 195 ; 000000c3H

; 186  : 
; 187  : 	if (find_object_3d_sub_object (&search) == SUB_OBJECT_SEARCH_RESULT_OBJECT_FOUND)

  002b4	8d 45 bc	 lea	 eax, DWORD PTR _search$[ebp]
  002b7	50		 push	 eax
  002b8	e8 00 00 00 00	 call	 ?find_object_3d_sub_object@@YG?AW4SUB_OBJECT_SEARCH_RESULT_TYPES@@PAUOBJECT_3D_SUB_OBJECT_SEARCH_DATA@@@Z ; find_object_3d_sub_object
  002bd	83 f8 01	 cmp	 eax, 1
  002c0	75 36		 jne	 SHORT $LN11@animate_ka

; 188  : 	{
; 189  : 		search.result_sub_object->visible_object = !ejected;

  002c2	83 7d fc 00	 cmp	 DWORD PTR _ejected$[ebp], 0
  002c6	75 0c		 jne	 SHORT $LN22@animate_ka
  002c8	c7 85 78 ff ff
	ff 01 00 00 00	 mov	 DWORD PTR tv178[ebp], 1
  002d2	eb 0a		 jmp	 SHORT $LN23@animate_ka
$LN22@animate_ka:
  002d4	c7 85 78 ff ff
	ff 00 00 00 00	 mov	 DWORD PTR tv178[ebp], 0
$LN23@animate_ka:
  002de	8b 85 78 ff ff
	ff		 mov	 eax, DWORD PTR tv178[ebp]
  002e4	83 e0 01	 and	 eax, 1
  002e7	8b 4d c0	 mov	 ecx, DWORD PTR _search$[ebp+4]
  002ea	8b 51 08	 mov	 edx, DWORD PTR [ecx+8]
  002ed	83 e2 fe	 and	 edx, -2			; fffffffeH
  002f0	0b d0		 or	 edx, eax
  002f2	8b 45 c0	 mov	 eax, DWORD PTR _search$[ebp+4]
  002f5	89 50 08	 mov	 DWORD PTR [eax+8], edx
$LN11@animate_ka:

; 190  : 	}
; 191  : 
; 192  : 	search.search_depth = 1;

  002f8	c7 45 c4 01 00
	00 00		 mov	 DWORD PTR _search$[ebp+8], 1

; 193  : 	search.search_object = virtual_cockpit_inst3d;

  002ff	a1 00 00 00 00	 mov	 eax, DWORD PTR ?virtual_cockpit_inst3d@@3PAUOBJECT_3D_INSTANCE@@A ; virtual_cockpit_inst3d
  00304	89 45 bc	 mov	 DWORD PTR _search$[ebp], eax

; 194  : 	search.sub_object_index = OBJECT_3D_SUB_OBJECT_CANOPY_DOORS;

  00307	c7 45 c8 c3 00
	00 00		 mov	 DWORD PTR _search$[ebp+12], 195 ; 000000c3H

; 195  : 
; 196  : 	if (find_object_3d_sub_object (&search) == SUB_OBJECT_SEARCH_RESULT_OBJECT_FOUND)

  0030e	8d 45 bc	 lea	 eax, DWORD PTR _search$[ebp]
  00311	50		 push	 eax
  00312	e8 00 00 00 00	 call	 ?find_object_3d_sub_object@@YG?AW4SUB_OBJECT_SEARCH_RESULT_TYPES@@PAUOBJECT_3D_SUB_OBJECT_SEARCH_DATA@@@Z ; find_object_3d_sub_object
  00317	83 f8 01	 cmp	 eax, 1
  0031a	75 36		 jne	 SHORT $LN12@animate_ka

; 197  : 	{
; 198  : 		search.result_sub_object->visible_object = !ejected;

  0031c	83 7d fc 00	 cmp	 DWORD PTR _ejected$[ebp], 0
  00320	75 0c		 jne	 SHORT $LN24@animate_ka
  00322	c7 85 78 ff ff
	ff 01 00 00 00	 mov	 DWORD PTR tv188[ebp], 1
  0032c	eb 0a		 jmp	 SHORT $LN25@animate_ka
$LN24@animate_ka:
  0032e	c7 85 78 ff ff
	ff 00 00 00 00	 mov	 DWORD PTR tv188[ebp], 0
$LN25@animate_ka:
  00338	8b 85 78 ff ff
	ff		 mov	 eax, DWORD PTR tv188[ebp]
  0033e	83 e0 01	 and	 eax, 1
  00341	8b 4d c0	 mov	 ecx, DWORD PTR _search$[ebp+4]
  00344	8b 51 08	 mov	 edx, DWORD PTR [ecx+8]
  00347	83 e2 fe	 and	 edx, -2			; fffffffeH
  0034a	0b d0		 or	 edx, eax
  0034c	8b 45 c0	 mov	 eax, DWORD PTR _search$[ebp+4]
  0034f	89 50 08	 mov	 DWORD PTR [eax+8], edx
$LN12@animate_ka:

; 199  : 	}
; 200  : }

  00352	5f		 pop	 edi
  00353	5e		 pop	 esi
  00354	5b		 pop	 ebx
  00355	8b e5		 mov	 esp, ebp
  00357	5d		 pop	 ebp
  00358	c3		 ret	 0
?animate_ka50_virtual_cockpit_canopy_doors@@YGXXZ ENDP	; animate_ka50_virtual_cockpit_canopy_doors
_TEXT	ENDS
; Function compile flags: /Odtp /ZI
; File c:\users\nhv90\projects\eech\aphavoc\source\gunships\cockpits\ka50\hm_doors.c
;	COMDAT ?initialise_ka50_virtual_cockpit_canopy_doors@@YGXXZ
_TEXT	SEGMENT
tv76 = -72						; size = 4
tv69 = -68						; size = 4
?initialise_ka50_virtual_cockpit_canopy_doors@@YGXXZ PROC ; initialise_ka50_virtual_cockpit_canopy_doors, COMDAT

; 116  : {

  00000	55		 push	 ebp
  00001	8b ec		 mov	 ebp, esp
  00003	83 ec 48	 sub	 esp, 72			; 00000048H
  00006	53		 push	 ebx
  00007	56		 push	 esi
  00008	57		 push	 edi

; 117  : 	if (get_local_entity_int_value (get_gunship_entity (), INT_TYPE_AIRBORNE_AIRCRAFT) || !command_line_dynamics_engine_startup)

  00009	83 3d 00 00 00
	00 00		 cmp	 DWORD PTR ?gunship_entity@@3PAUENTITY@@A, 0 ; gunship_entity
  00010	74 0c		 je	 SHORT $LN6@initialise
  00012	a1 00 00 00 00	 mov	 eax, DWORD PTR ?gunship_entity@@3PAUENTITY@@A ; gunship_entity
  00017	8b 08		 mov	 ecx, DWORD PTR [eax]
  00019	89 4d bc	 mov	 DWORD PTR tv69[ebp], ecx
  0001c	eb 1a		 jmp	 SHORT $LN7@initialise
$LN6@initialise:
  0001e	6a 75		 push	 117			; 00000075H
  00020	68 00 00 00 00	 push	 OFFSET ??_C@_0EO@NGEPHPEF@c?3?2users?2nhv90?2projects?2eech?2ap@
  00025	8b 15 00 00 00
	00		 mov	 edx, DWORD PTR ?null_entity_pointer_message@@3PBDB ; null_entity_pointer_message
  0002b	52		 push	 edx
  0002c	e8 00 00 00 00	 call	 ?process_assert@@YGXPBD0H@Z ; process_assert
  00031	c7 45 bc 00 00
	00 00		 mov	 DWORD PTR tv69[ebp], 0
$LN7@initialise:
  00038	b8 01 00 00 00	 mov	 eax, 1
  0003d	85 c0		 test	 eax, eax
  0003f	74 09		 je	 SHORT $LN8@initialise
  00041	c7 45 b8 04 00
	00 00		 mov	 DWORD PTR tv76[ebp], 4
  00048	eb 1a		 jmp	 SHORT $LN9@initialise
$LN8@initialise:
  0004a	6a 75		 push	 117			; 00000075H
  0004c	68 00 00 00 00	 push	 OFFSET ??_C@_0EO@NGEPHPEF@c?3?2users?2nhv90?2projects?2eech?2ap@
  00051	8b 0d 00 00 00
	00		 mov	 ecx, DWORD PTR ?overload_invalid_int_type_message@@3PBDB ; overload_invalid_int_type_message
  00057	51		 push	 ecx
  00058	e8 00 00 00 00	 call	 ?process_assert@@YGXPBD0H@Z ; process_assert
  0005d	c7 45 b8 00 00
	00 00		 mov	 DWORD PTR tv76[ebp], 0
$LN9@initialise:
  00064	6a 04		 push	 4
  00066	8b 15 00 00 00
	00		 mov	 edx, DWORD PTR ?gunship_entity@@3PAUENTITY@@A ; gunship_entity
  0006c	52		 push	 edx
  0006d	69 45 bc 5c 04
	00 00		 imul	 eax, DWORD PTR tv69[ebp], 1116
  00074	8b 4d b8	 mov	 ecx, DWORD PTR tv76[ebp]
  00077	8b 94 88 00 00
	00 00		 mov	 edx, DWORD PTR ?fn_get_local_entity_int_value@@3PAY0BBH@P6GHPAUENTITY@@W4INT_TYPES@@@ZA[eax+ecx*4]
  0007e	ff d2		 call	 edx
  00080	85 c0		 test	 eax, eax
  00082	75 09		 jne	 SHORT $LN4@initialise
  00084	83 3d 00 00 00
	00 00		 cmp	 DWORD PTR ?command_line_dynamics_engine_startup@@3HA, 0 ; command_line_dynamics_engine_startup
  0008b	75 1d		 jne	 SHORT $LN2@initialise
$LN4@initialise:

; 118  : 		aiming_state = canopy_door_state = CANOPY_DOOR_STATE_CLOSED;

  0008d	0f 57 c0	 xorps	 xmm0, xmm0
  00090	f3 0f 11 05 00
	00 00 00	 movss	 DWORD PTR ?canopy_door_state@@3MA, xmm0
  00098	f3 0f 10 05 00
	00 00 00	 movss	 xmm0, DWORD PTR ?canopy_door_state@@3MA
  000a0	f3 0f 11 05 00
	00 00 00	 movss	 DWORD PTR ?aiming_state@@3MA, xmm0

; 119  : 	else

  000a8	eb 20		 jmp	 SHORT $LN3@initialise
$LN2@initialise:

; 120  : 		aiming_state = canopy_door_state = CANOPY_DOOR_STATE_OPEN;

  000aa	f3 0f 10 05 00
	00 00 00	 movss	 xmm0, DWORD PTR __real@3f800000
  000b2	f3 0f 11 05 00
	00 00 00	 movss	 DWORD PTR ?canopy_door_state@@3MA, xmm0
  000ba	f3 0f 10 05 00
	00 00 00	 movss	 xmm0, DWORD PTR ?canopy_door_state@@3MA
  000c2	f3 0f 11 05 00
	00 00 00	 movss	 DWORD PTR ?aiming_state@@3MA, xmm0
$LN3@initialise:

; 121  : }

  000ca	5f		 pop	 edi
  000cb	5e		 pop	 esi
  000cc	5b		 pop	 ebx
  000cd	8b e5		 mov	 esp, ebp
  000cf	5d		 pop	 ebp
  000d0	c3		 ret	 0
?initialise_ka50_virtual_cockpit_canopy_doors@@YGXXZ ENDP ; initialise_ka50_virtual_cockpit_canopy_doors
_TEXT	ENDS
END
