; Listing generated by Microsoft (R) Optimizing Compiler Version 19.16.27045.0 

	TITLE	C:\Users\nhv90\Projects\eech\aphavoc\source\gunships\avionics\ka50\hm_eo.c
	.686P
	.XMM
	include listing.inc
	.model	flat

INCLUDELIB MSVCRTD
INCLUDELIB OLDNAMES

PUBLIC	?ka50_flir@@3UEO_PARAMS_DYNAMIC_MOVE@@A		; ka50_flir
_BSS	SEGMENT
?ka50_flir@@3UEO_PARAMS_DYNAMIC_MOVE@@A DB 0cH DUP (?)	; ka50_flir
_BSS	ENDS
PUBLIC	?initialise_ka50_eo@@YGXXZ			; initialise_ka50_eo
PUBLIC	?deinitialise_ka50_eo@@YGXXZ			; deinitialise_ka50_eo
PUBLIC	?get_ka50_eo_centred_viewpoint@@YGXPAUVIEWPOINT@@@Z ; get_ka50_eo_centred_viewpoint
PUBLIC	?get_ka50_eo_relative_centred_viewpoint@@YGXPAUVIEWPOINT@@@Z ; get_ka50_eo_relative_centred_viewpoint
PUBLIC	?update_ka50_eo@@YGXPAUEO_PARAMS_DYNAMIC_MOVE@@@Z ; update_ka50_eo
PUBLIC	?centre_ka50_eo@@YGXXZ				; centre_ka50_eo
PUBLIC	?animate_ka50_eo@@YGXPAUOBJECT_3D_INSTANCE@@@Z	; animate_ka50_eo
PUBLIC	?animate_ka50_virtual_cockpit_eo@@YGXPAUOBJECT_3D_INSTANCE@@@Z ; animate_ka50_virtual_cockpit_eo
PUBLIC	?slave_ka50_eo_to_current_target@@YGXXZ		; slave_ka50_eo_to_current_target
PUBLIC	?inc_ka50_eo_zoom@@YGXXZ			; inc_ka50_eo_zoom
PUBLIC	?dec_ka50_eo_zoom@@YGXXZ			; dec_ka50_eo_zoom
PUBLIC	?__LINE__Var@?0??get_ka50_eo_centred_viewpoint@@YGXPAUVIEWPOINT@@@Z@4JA ; `get_ka50_eo_centred_viewpoint'::`1'::__LINE__Var
PUBLIC	??_C@_0EL@HAHDNPP@c?3?2users?2nhv90?2projects?2eech?2ap@ ; `string'
PUBLIC	??_C@_02HPPNELPJ@vp@				; `string'
PUBLIC	??_C@_06DDNABPCD@inst3d@			; `string'
PUBLIC	??_C@_0DP@GDECALJL@OBJECT_3D_SUB_OBJECT_KA52_SAMSH@ ; `string'
PUBLIC	?__LINE__Var@?0??get_ka50_eo_relative_centred_viewpoint@@YGXPAUVIEWPOINT@@@Z@4JA ; `get_ka50_eo_relative_centred_viewpoint'::`1'::__LINE__Var
PUBLIC	?__LINE__Var@?0??inc_eo_field_of_view@@YGXPAUEO_PARAMS_DYNAMIC_MOVE@@@Z@4JA ; `inc_eo_field_of_view'::`1'::__LINE__Var
PUBLIC	??_C@_02KMMHFIEO@eo@				; `string'
PUBLIC	?__LINE__Var@?0??fast_inc_eo_field_of_view@@YGXPAUEO_PARAMS_DYNAMIC_MOVE@@@Z@4JA ; `fast_inc_eo_field_of_view'::`1'::__LINE__Var
PUBLIC	?__LINE__Var@?0??dec_eo_field_of_view@@YGXPAUEO_PARAMS_DYNAMIC_MOVE@@@Z@4JA ; `dec_eo_field_of_view'::`1'::__LINE__Var
PUBLIC	?__LINE__Var@?0??fast_dec_eo_field_of_view@@YGXPAUEO_PARAMS_DYNAMIC_MOVE@@@Z@4JA ; `fast_dec_eo_field_of_view'::`1'::__LINE__Var
PUBLIC	?__LINE__Var@?0??update_ka50_eo@@YGXPAUEO_PARAMS_DYNAMIC_MOVE@@@Z@4JA ; `update_ka50_eo'::`1'::__LINE__Var
PUBLIC	__real@3c000000
PUBLIC	__real@3edf66f3
PUBLIC	__real@3f567750
PUBLIC	__real@3f800000
PUBLIC	__real@3f9c61aa
PUBLIC	__real@3fb1df46a0000000
PUBLIC	__real@3fc999999999999a
PUBLIC	__real@3fd6571848000000
PUBLIC	__real@3ff0000000000000
PUBLIC	__real@3ff6571848000000
PUBLIC	__real@4014000000000000
PUBLIC	__real@40d3880000000000
PUBLIC	__real@459c4000
PUBLIC	__real@be860a92
PUBLIC	__real@bf9c61aa
EXTRN	_memcpy:PROC
EXTRN	?process_assert@@YGXPBD0H@Z:PROC		; process_assert
EXTRN	?debug_log@@YAXPBDZZ:PROC			; debug_log
EXTRN	?get_joystick_axis@@YGHHH@Z:PROC		; get_joystick_axis
EXTRN	?get_3d_sub_object_world_viewpoint@@YGXPAUOBJECT_3D_SUB_INSTANCE@@PAUVIEWPOINT@@@Z:PROC ; get_3d_sub_object_world_viewpoint
EXTRN	?find_object_3d_sub_object@@YG?AW4SUB_OBJECT_SEARCH_RESULT_TYPES@@PAUOBJECT_3D_SUB_OBJECT_SEARCH_DATA@@@Z:PROC ; find_object_3d_sub_object
EXTRN	?select_next_eo_target@@YGXXZ:PROC		; select_next_eo_target
EXTRN	?select_previous_eo_target@@YGXXZ:PROC		; select_previous_eo_target
EXTRN	?select_next_designated_eo_target@@YGXXZ:PROC	; select_next_designated_eo_target
EXTRN	?select_previous_designated_eo_target@@YGXXZ:PROC ; select_previous_designated_eo_target
EXTRN	?convert_linear_view_value@@YGMPAUEO_PARAMS_DYNAMIC_MOVE@@@Z:PROC ; convert_linear_view_value
EXTRN	?keyboard_slew_eo_system@@YGXMMM@Z:PROC		; keyboard_slew_eo_system
EXTRN	?joystick_slew_eo_system@@YGXM@Z:PROC		; joystick_slew_eo_system
EXTRN	?get_eo_azimuth@@YGMMMMMMM@Z:PROC		; get_eo_azimuth
EXTRN	?get_eo_elevation@@YGMMMMMMM@Z:PROC		; get_eo_elevation
EXTRN	?get_new_eo_zoom@@YGMM@Z:PROC			; get_new_eo_zoom
EXTRN	?toggle_ground_stabilisation@@YGXXZ:PROC	; toggle_ground_stabilisation
EXTRN	?handle_ground_stabilisation@@YGXXZ:PROC	; handle_ground_stabilisation
EXTRN	?system_delta_time@@3MA:DWORD			; system_delta_time
EXTRN	?command_line_mouse_look@@3HA:DWORD		; command_line_mouse_look
EXTRN	?command_line_mouse_look_speed@@3HA:DWORD	; command_line_mouse_look_speed
EXTRN	?command_line_eo_pan_joystick_index@@3HA:DWORD	; command_line_eo_pan_joystick_index
EXTRN	?command_line_eo_zoom_joystick_index@@3HA:DWORD	; command_line_eo_zoom_joystick_index
EXTRN	?command_line_eo_zoom_joystick_axis@@3HA:DWORD	; command_line_eo_zoom_joystick_axis
EXTRN	?command_line_field_of_view_joystick_index@@3HA:DWORD ; command_line_field_of_view_joystick_index
EXTRN	?command_line_manual_laser_radar@@3HA:DWORD	; command_line_manual_laser_radar
EXTRN	?null_entity_pointer_message@@3PBDB:DWORD	; null_entity_pointer_message
EXTRN	?fn_get_local_entity_attitude_matrix@@3PAP6GXPAUENTITY@@QAY02M@ZA:BYTE ; fn_get_local_entity_attitude_matrix
EXTRN	?overload_invalid_ptr_type_message@@3PBDB:DWORD	; overload_invalid_ptr_type_message
EXTRN	?fn_get_local_entity_ptr_value@@3PAY0BE@P6GPAXPAUENTITY@@W4PTR_TYPES@@@ZA:BYTE ; fn_get_local_entity_ptr_value
EXTRN	?overload_invalid_vec3d_type_message@@3PBDB:DWORD ; overload_invalid_vec3d_type_message
EXTRN	?fn_get_local_entity_vec3d@@3PAY0BI@P6GXPAUENTITY@@W4VEC3D_TYPES@@PAUVEC3D@@@ZA:BYTE ; fn_get_local_entity_vec3d
EXTRN	?gunship_entity@@3PAUENTITY@@A:DWORD		; gunship_entity
EXTRN	?single_target_acquisition_system_inc_range_key@@3HA:DWORD ; single_target_acquisition_system_inc_range_key
EXTRN	?single_target_acquisition_system_dec_range_key@@3HA:DWORD ; single_target_acquisition_system_dec_range_key
EXTRN	?single_target_acquisition_system_select_next_target_key@@3HA:DWORD ; single_target_acquisition_system_select_next_target_key
EXTRN	?single_target_acquisition_system_select_previous_target_key@@3HA:DWORD ; single_target_acquisition_system_select_previous_target_key
EXTRN	?single_target_acquisition_system_select_next_designated_key@@3HA:DWORD ; single_target_acquisition_system_select_next_designated_key
EXTRN	?single_target_acquisition_system_select_previous_designated_key@@3HA:DWORD ; single_target_acquisition_system_select_previous_designated_key
EXTRN	?single_target_acquisition_system_inc_range_fast_key@@3HA:DWORD ; single_target_acquisition_system_inc_range_fast_key
EXTRN	?single_target_acquisition_system_dec_range_fast_key@@3HA:DWORD ; single_target_acquisition_system_dec_range_fast_key
EXTRN	?toggle_ground_stabilisation_key@@3HA:DWORD	; toggle_ground_stabilisation_key
EXTRN	?eo_on_target@@3HA:DWORD			; eo_on_target
EXTRN	?eo_ground_stabilised@@3HA:DWORD		; eo_ground_stabilised
EXTRN	?eo_sensor@@3W4TARGET_ACQUISITION_SYSTEMS@@A:DWORD ; eo_sensor
EXTRN	?eo_azimuth@@3MA:DWORD				; eo_azimuth
EXTRN	?eo_min_azimuth@@3MA:DWORD			; eo_min_azimuth
EXTRN	?eo_max_azimuth@@3MA:DWORD			; eo_max_azimuth
EXTRN	?eo_elevation@@3MA:DWORD			; eo_elevation
EXTRN	?eo_min_elevation@@3MA:DWORD			; eo_min_elevation
EXTRN	?eo_max_elevation@@3MA:DWORD			; eo_max_elevation
EXTRN	?eo_max_visual_range@@3MA:DWORD			; eo_max_visual_range
EXTRN	__fltused:DWORD
;	COMDAT __real@bf9c61aa
CONST	SEGMENT
__real@bf9c61aa DD 0bf9c61aar			; -1.22173
CONST	ENDS
;	COMDAT __real@be860a92
CONST	SEGMENT
__real@be860a92 DD 0be860a92r			; -0.261799
CONST	ENDS
;	COMDAT __real@459c4000
CONST	SEGMENT
__real@459c4000 DD 0459c4000r			; 5000
CONST	ENDS
;	COMDAT __real@40d3880000000000
CONST	SEGMENT
__real@40d3880000000000 DQ 040d3880000000000r	; 20000
CONST	ENDS
;	COMDAT __real@4014000000000000
CONST	SEGMENT
__real@4014000000000000 DQ 04014000000000000r	; 5
CONST	ENDS
;	COMDAT __real@3ff6571848000000
CONST	SEGMENT
__real@3ff6571848000000 DQ 03ff6571848000000r	; 1.39626
CONST	ENDS
;	COMDAT __real@3ff0000000000000
CONST	SEGMENT
__real@3ff0000000000000 DQ 03ff0000000000000r	; 1
CONST	ENDS
;	COMDAT __real@3fd6571848000000
CONST	SEGMENT
__real@3fd6571848000000 DQ 03fd6571848000000r	; 0.349066
CONST	ENDS
;	COMDAT __real@3fc999999999999a
CONST	SEGMENT
__real@3fc999999999999a DQ 03fc999999999999ar	; 0.2
CONST	ENDS
;	COMDAT __real@3fb1df46a0000000
CONST	SEGMENT
__real@3fb1df46a0000000 DQ 03fb1df46a0000000r	; 0.0698132
CONST	ENDS
;	COMDAT __real@3f9c61aa
CONST	SEGMENT
__real@3f9c61aa DD 03f9c61aar			; 1.22173
CONST	ENDS
;	COMDAT __real@3f800000
CONST	SEGMENT
__real@3f800000 DD 03f800000r			; 1
CONST	ENDS
;	COMDAT __real@3f567750
CONST	SEGMENT
__real@3f567750 DD 03f567750r			; 0.837758
CONST	ENDS
;	COMDAT __real@3edf66f3
CONST	SEGMENT
__real@3edf66f3 DD 03edf66f3r			; 0.436332
CONST	ENDS
;	COMDAT __real@3c000000
CONST	SEGMENT
__real@3c000000 DD 03c000000r			; 0.0078125
CONST	ENDS
;	COMDAT ?__LINE__Var@?0??update_ka50_eo@@YGXPAUEO_PARAMS_DYNAMIC_MOVE@@@Z@4JA
_DATA	SEGMENT
?__LINE__Var@?0??update_ka50_eo@@YGXPAUEO_PARAMS_DYNAMIC_MOVE@@@Z@4JA DD 010fH ; `update_ka50_eo'::`1'::__LINE__Var
_DATA	ENDS
;	COMDAT ?__LINE__Var@?0??fast_dec_eo_field_of_view@@YGXPAUEO_PARAMS_DYNAMIC_MOVE@@@Z@4JA
_DATA	SEGMENT
?__LINE__Var@?0??fast_dec_eo_field_of_view@@YGXPAUEO_PARAMS_DYNAMIC_MOVE@@@Z@4JA DD 0104H ; `fast_dec_eo_field_of_view'::`1'::__LINE__Var
_DATA	ENDS
;	COMDAT ?__LINE__Var@?0??dec_eo_field_of_view@@YGXPAUEO_PARAMS_DYNAMIC_MOVE@@@Z@4JA
_DATA	SEGMENT
?__LINE__Var@?0??dec_eo_field_of_view@@YGXPAUEO_PARAMS_DYNAMIC_MOVE@@@Z@4JA DD 0f4H ; `dec_eo_field_of_view'::`1'::__LINE__Var
_DATA	ENDS
;	COMDAT ?__LINE__Var@?0??fast_inc_eo_field_of_view@@YGXPAUEO_PARAMS_DYNAMIC_MOVE@@@Z@4JA
_DATA	SEGMENT
?__LINE__Var@?0??fast_inc_eo_field_of_view@@YGXPAUEO_PARAMS_DYNAMIC_MOVE@@@Z@4JA DD 0e9H ; `fast_inc_eo_field_of_view'::`1'::__LINE__Var
_DATA	ENDS
;	COMDAT ??_C@_02KMMHFIEO@eo@
CONST	SEGMENT
??_C@_02KMMHFIEO@eo@ DB 'eo', 00H			; `string'
CONST	ENDS
;	COMDAT ?__LINE__Var@?0??inc_eo_field_of_view@@YGXPAUEO_PARAMS_DYNAMIC_MOVE@@@Z@4JA
_DATA	SEGMENT
?__LINE__Var@?0??inc_eo_field_of_view@@YGXPAUEO_PARAMS_DYNAMIC_MOVE@@@Z@4JA DD 0d9H ; `inc_eo_field_of_view'::`1'::__LINE__Var
_DATA	ENDS
;	COMDAT ?__LINE__Var@?0??get_ka50_eo_relative_centred_viewpoint@@YGXPAUVIEWPOINT@@@Z@4JA
_DATA	SEGMENT
?__LINE__Var@?0??get_ka50_eo_relative_centred_viewpoint@@YGXPAUVIEWPOINT@@@Z@4JA DD 0a0H ; `get_ka50_eo_relative_centred_viewpoint'::`1'::__LINE__Var
_DATA	ENDS
;	COMDAT ??_C@_0DP@GDECALJL@OBJECT_3D_SUB_OBJECT_KA52_SAMSH@
CONST	SEGMENT
??_C@_0DP@GDECALJL@OBJECT_3D_SUB_OBJECT_KA52_SAMSH@ DB 'OBJECT_3D_SUB_OBJ'
	DB	'ECT_KA52_SAMSHIT_VIEWPOINT missing from Ka-50', 00H ; `string'
CONST	ENDS
;	COMDAT ??_C@_06DDNABPCD@inst3d@
CONST	SEGMENT
??_C@_06DDNABPCD@inst3d@ DB 'inst3d', 00H		; `string'
CONST	ENDS
;	COMDAT ??_C@_02HPPNELPJ@vp@
CONST	SEGMENT
??_C@_02HPPNELPJ@vp@ DB 'vp', 00H			; `string'
CONST	ENDS
;	COMDAT ??_C@_0EL@HAHDNPP@c?3?2users?2nhv90?2projects?2eech?2ap@
CONST	SEGMENT
??_C@_0EL@HAHDNPP@c?3?2users?2nhv90?2projects?2eech?2ap@ DB 'c:\users\nhv'
	DB	'90\projects\eech\aphavoc\source\gunships\avionics\ka50\hm_eo.'
	DB	'c', 00H					; `string'
CONST	ENDS
;	COMDAT ?__LINE__Var@?0??get_ka50_eo_centred_viewpoint@@YGXPAUVIEWPOINT@@@Z@4JA
_DATA	SEGMENT
?__LINE__Var@?0??get_ka50_eo_centred_viewpoint@@YGXPAUVIEWPOINT@@@Z@4JA DD 06fH ; `get_ka50_eo_centred_viewpoint'::`1'::__LINE__Var
_DATA	ENDS
; Function compile flags: /Odtp /ZI
; File c:\users\nhv90\projects\eech\aphavoc\source\gunships\avionics\ka50\hm_eo.c
;	COMDAT ?fast_dec_eo_field_of_view@@YGXPAUEO_PARAMS_DYNAMIC_MOVE@@@Z
_TEXT	SEGMENT
_eo$ = 8						; size = 4
?fast_dec_eo_field_of_view@@YGXPAUEO_PARAMS_DYNAMIC_MOVE@@@Z PROC ; fast_dec_eo_field_of_view, COMDAT

; 260  : {

  00000	55		 push	 ebp
  00001	8b ec		 mov	 ebp, esp
  00003	83 ec 40	 sub	 esp, 64			; 00000040H
  00006	53		 push	 ebx
  00007	56		 push	 esi
  00008	57		 push	 edi

; 261  : 	ASSERT (eo);

  00009	83 7d 08 00	 cmp	 DWORD PTR _eo$[ebp], 0
  0000d	75 18		 jne	 SHORT $LN2@fast_dec_e
  0000f	a1 00 00 00 00	 mov	 eax, DWORD PTR ?__LINE__Var@?0??fast_dec_eo_field_of_view@@YGXPAUEO_PARAMS_DYNAMIC_MOVE@@@Z@4JA
  00014	83 c0 01	 add	 eax, 1
  00017	50		 push	 eax
  00018	68 00 00 00 00	 push	 OFFSET ??_C@_0EL@HAHDNPP@c?3?2users?2nhv90?2projects?2eech?2ap@
  0001d	68 00 00 00 00	 push	 OFFSET ??_C@_02KMMHFIEO@eo@
  00022	e8 00 00 00 00	 call	 ?process_assert@@YGXPBD0H@Z ; process_assert
$LN2@fast_dec_e:

; 262  : 
; 263  : 	eo->zoom = 0.0;

  00027	8b 45 08	 mov	 eax, DWORD PTR _eo$[ebp]
  0002a	0f 57 c0	 xorps	 xmm0, xmm0
  0002d	f3 0f 11 00	 movss	 DWORD PTR [eax], xmm0

; 264  : }

  00031	5f		 pop	 edi
  00032	5e		 pop	 esi
  00033	5b		 pop	 ebx
  00034	8b e5		 mov	 esp, ebp
  00036	5d		 pop	 ebp
  00037	c2 04 00	 ret	 4
?fast_dec_eo_field_of_view@@YGXPAUEO_PARAMS_DYNAMIC_MOVE@@@Z ENDP ; fast_dec_eo_field_of_view
_TEXT	ENDS
; Function compile flags: /Odtp /ZI
; File c:\users\nhv90\projects\eech\aphavoc\source\gunships\avionics\ka50\hm_eo.c
;	COMDAT ?dec_eo_field_of_view@@YGXPAUEO_PARAMS_DYNAMIC_MOVE@@@Z
_TEXT	SEGMENT
_eo$ = 8						; size = 4
?dec_eo_field_of_view@@YGXPAUEO_PARAMS_DYNAMIC_MOVE@@@Z PROC ; dec_eo_field_of_view, COMDAT

; 244  : {

  00000	55		 push	 ebp
  00001	8b ec		 mov	 ebp, esp
  00003	83 ec 40	 sub	 esp, 64			; 00000040H
  00006	53		 push	 ebx
  00007	56		 push	 esi
  00008	57		 push	 edi

; 245  : 	ASSERT (eo);

  00009	83 7d 08 00	 cmp	 DWORD PTR _eo$[ebp], 0
  0000d	75 18		 jne	 SHORT $LN2@dec_eo_fie
  0000f	a1 00 00 00 00	 mov	 eax, DWORD PTR ?__LINE__Var@?0??dec_eo_field_of_view@@YGXPAUEO_PARAMS_DYNAMIC_MOVE@@@Z@4JA
  00014	83 c0 01	 add	 eax, 1
  00017	50		 push	 eax
  00018	68 00 00 00 00	 push	 OFFSET ??_C@_0EL@HAHDNPP@c?3?2users?2nhv90?2projects?2eech?2ap@
  0001d	68 00 00 00 00	 push	 OFFSET ??_C@_02KMMHFIEO@eo@
  00022	e8 00 00 00 00	 call	 ?process_assert@@YGXPBD0H@Z ; process_assert
$LN2@dec_eo_fie:

; 246  : 
; 247  : 	eo->zoom -= 0.2;

  00027	8b 45 08	 mov	 eax, DWORD PTR _eo$[ebp]
  0002a	f3 0f 5a 00	 cvtss2sd xmm0, DWORD PTR [eax]
  0002e	f2 0f 5c 05 00
	00 00 00	 subsd	 xmm0, QWORD PTR __real@3fc999999999999a
  00036	f2 0f 5a c0	 cvtsd2ss xmm0, xmm0
  0003a	8b 4d 08	 mov	 ecx, DWORD PTR _eo$[ebp]
  0003d	f3 0f 11 01	 movss	 DWORD PTR [ecx], xmm0

; 248  : 
; 249  : 	if (eo->zoom < 0.0)

  00041	8b 45 08	 mov	 eax, DWORD PTR _eo$[ebp]
  00044	f3 0f 5a 00	 cvtss2sd xmm0, DWORD PTR [eax]
  00048	0f 57 c9	 xorps	 xmm1, xmm1
  0004b	66 0f 2f c8	 comisd	 xmm1, xmm0
  0004f	76 0a		 jbe	 SHORT $LN3@dec_eo_fie

; 250  : 	{
; 251  : 		eo->zoom = 0.0;

  00051	8b 45 08	 mov	 eax, DWORD PTR _eo$[ebp]
  00054	0f 57 c0	 xorps	 xmm0, xmm0
  00057	f3 0f 11 00	 movss	 DWORD PTR [eax], xmm0
$LN3@dec_eo_fie:

; 252  : 	}
; 253  : }

  0005b	5f		 pop	 edi
  0005c	5e		 pop	 esi
  0005d	5b		 pop	 ebx
  0005e	8b e5		 mov	 esp, ebp
  00060	5d		 pop	 ebp
  00061	c2 04 00	 ret	 4
?dec_eo_field_of_view@@YGXPAUEO_PARAMS_DYNAMIC_MOVE@@@Z ENDP ; dec_eo_field_of_view
_TEXT	ENDS
; Function compile flags: /Odtp /ZI
; File c:\users\nhv90\projects\eech\aphavoc\source\gunships\avionics\ka50\hm_eo.c
;	COMDAT ?fast_inc_eo_field_of_view@@YGXPAUEO_PARAMS_DYNAMIC_MOVE@@@Z
_TEXT	SEGMENT
_eo$ = 8						; size = 4
?fast_inc_eo_field_of_view@@YGXPAUEO_PARAMS_DYNAMIC_MOVE@@@Z PROC ; fast_inc_eo_field_of_view, COMDAT

; 233  : {

  00000	55		 push	 ebp
  00001	8b ec		 mov	 ebp, esp
  00003	83 ec 40	 sub	 esp, 64			; 00000040H
  00006	53		 push	 ebx
  00007	56		 push	 esi
  00008	57		 push	 edi

; 234  : 	ASSERT (eo);

  00009	83 7d 08 00	 cmp	 DWORD PTR _eo$[ebp], 0
  0000d	75 18		 jne	 SHORT $LN2@fast_inc_e
  0000f	a1 00 00 00 00	 mov	 eax, DWORD PTR ?__LINE__Var@?0??fast_inc_eo_field_of_view@@YGXPAUEO_PARAMS_DYNAMIC_MOVE@@@Z@4JA
  00014	83 c0 01	 add	 eax, 1
  00017	50		 push	 eax
  00018	68 00 00 00 00	 push	 OFFSET ??_C@_0EL@HAHDNPP@c?3?2users?2nhv90?2projects?2eech?2ap@
  0001d	68 00 00 00 00	 push	 OFFSET ??_C@_02KMMHFIEO@eo@
  00022	e8 00 00 00 00	 call	 ?process_assert@@YGXPBD0H@Z ; process_assert
$LN2@fast_inc_e:

; 235  : 
; 236  : 	eo->zoom = 1.0;

  00027	8b 45 08	 mov	 eax, DWORD PTR _eo$[ebp]
  0002a	f3 0f 10 05 00
	00 00 00	 movss	 xmm0, DWORD PTR __real@3f800000
  00032	f3 0f 11 00	 movss	 DWORD PTR [eax], xmm0

; 237  : }

  00036	5f		 pop	 edi
  00037	5e		 pop	 esi
  00038	5b		 pop	 ebx
  00039	8b e5		 mov	 esp, ebp
  0003b	5d		 pop	 ebp
  0003c	c2 04 00	 ret	 4
?fast_inc_eo_field_of_view@@YGXPAUEO_PARAMS_DYNAMIC_MOVE@@@Z ENDP ; fast_inc_eo_field_of_view
_TEXT	ENDS
; Function compile flags: /Odtp /ZI
; File c:\users\nhv90\projects\eech\aphavoc\source\gunships\avionics\ka50\hm_eo.c
;	COMDAT ?inc_eo_field_of_view@@YGXPAUEO_PARAMS_DYNAMIC_MOVE@@@Z
_TEXT	SEGMENT
_eo$ = 8						; size = 4
?inc_eo_field_of_view@@YGXPAUEO_PARAMS_DYNAMIC_MOVE@@@Z PROC ; inc_eo_field_of_view, COMDAT

; 217  : {

  00000	55		 push	 ebp
  00001	8b ec		 mov	 ebp, esp
  00003	83 ec 40	 sub	 esp, 64			; 00000040H
  00006	53		 push	 ebx
  00007	56		 push	 esi
  00008	57		 push	 edi

; 218  : 	ASSERT (eo);

  00009	83 7d 08 00	 cmp	 DWORD PTR _eo$[ebp], 0
  0000d	75 18		 jne	 SHORT $LN2@inc_eo_fie
  0000f	a1 00 00 00 00	 mov	 eax, DWORD PTR ?__LINE__Var@?0??inc_eo_field_of_view@@YGXPAUEO_PARAMS_DYNAMIC_MOVE@@@Z@4JA
  00014	83 c0 01	 add	 eax, 1
  00017	50		 push	 eax
  00018	68 00 00 00 00	 push	 OFFSET ??_C@_0EL@HAHDNPP@c?3?2users?2nhv90?2projects?2eech?2ap@
  0001d	68 00 00 00 00	 push	 OFFSET ??_C@_02KMMHFIEO@eo@
  00022	e8 00 00 00 00	 call	 ?process_assert@@YGXPBD0H@Z ; process_assert
$LN2@inc_eo_fie:

; 219  : 
; 220  : 	eo->zoom += 0.2;

  00027	8b 45 08	 mov	 eax, DWORD PTR _eo$[ebp]
  0002a	f3 0f 5a 00	 cvtss2sd xmm0, DWORD PTR [eax]
  0002e	f2 0f 58 05 00
	00 00 00	 addsd	 xmm0, QWORD PTR __real@3fc999999999999a
  00036	f2 0f 5a c0	 cvtsd2ss xmm0, xmm0
  0003a	8b 4d 08	 mov	 ecx, DWORD PTR _eo$[ebp]
  0003d	f3 0f 11 01	 movss	 DWORD PTR [ecx], xmm0

; 221  : 
; 222  : 	if (eo->zoom > 1.0)

  00041	8b 45 08	 mov	 eax, DWORD PTR _eo$[ebp]
  00044	f3 0f 5a 00	 cvtss2sd xmm0, DWORD PTR [eax]
  00048	66 0f 2f 05 00
	00 00 00	 comisd	 xmm0, QWORD PTR __real@3ff0000000000000
  00050	76 0f		 jbe	 SHORT $LN3@inc_eo_fie

; 223  : 	{
; 224  : 		eo->zoom = 1.0;

  00052	8b 45 08	 mov	 eax, DWORD PTR _eo$[ebp]
  00055	f3 0f 10 05 00
	00 00 00	 movss	 xmm0, DWORD PTR __real@3f800000
  0005d	f3 0f 11 00	 movss	 DWORD PTR [eax], xmm0
$LN3@inc_eo_fie:

; 225  : 	}
; 226  : }

  00061	5f		 pop	 edi
  00062	5e		 pop	 esi
  00063	5b		 pop	 ebx
  00064	8b e5		 mov	 esp, ebp
  00066	5d		 pop	 ebp
  00067	c2 04 00	 ret	 4
?inc_eo_field_of_view@@YGXPAUEO_PARAMS_DYNAMIC_MOVE@@@Z ENDP ; inc_eo_field_of_view
_TEXT	ENDS
; Function compile flags: /Odtp /ZI
; File c:\users\nhv90\projects\eech\aphavoc\source\gunships\avionics\ka50\hm_eo.c
;	COMDAT ?dec_ka50_eo_zoom@@YGXXZ
_TEXT	SEGMENT
tv64 = -68						; size = 4
?dec_ka50_eo_zoom@@YGXXZ PROC				; dec_ka50_eo_zoom, COMDAT

; 464  : {

  00000	55		 push	 ebp
  00001	8b ec		 mov	 ebp, esp
  00003	83 ec 44	 sub	 esp, 68			; 00000044H
  00006	53		 push	 ebx
  00007	56		 push	 esi
  00008	57		 push	 edi

; 465  : 	switch (eo_sensor)

  00009	a1 00 00 00 00	 mov	 eax, DWORD PTR ?eo_sensor@@3W4TARGET_ACQUISITION_SYSTEMS@@A ; eo_sensor
  0000e	89 45 bc	 mov	 DWORD PTR tv64[ebp], eax
  00011	83 7d bc 03	 cmp	 DWORD PTR tv64[ebp], 3
  00015	74 02		 je	 SHORT $LN4@dec_ka50_e
  00017	eb 0a		 jmp	 SHORT $LN1@dec_ka50_e
$LN4@dec_ka50_e:

; 466  : 	{
; 467  : 		case TARGET_ACQUISITION_SYSTEM_FLIR:
; 468  : 			inc_eo_field_of_view(&ka50_flir);

  00019	68 00 00 00 00	 push	 OFFSET ?ka50_flir@@3UEO_PARAMS_DYNAMIC_MOVE@@A ; ka50_flir
  0001e	e8 00 00 00 00	 call	 ?inc_eo_field_of_view@@YGXPAUEO_PARAMS_DYNAMIC_MOVE@@@Z ; inc_eo_field_of_view
$LN1@dec_ka50_e:

; 469  : 			break;
; 470  : 		default:
; 471  : 			break;
; 472  : 	}
; 473  : }

  00023	5f		 pop	 edi
  00024	5e		 pop	 esi
  00025	5b		 pop	 ebx
  00026	8b e5		 mov	 esp, ebp
  00028	5d		 pop	 ebp
  00029	c3		 ret	 0
?dec_ka50_eo_zoom@@YGXXZ ENDP				; dec_ka50_eo_zoom
_TEXT	ENDS
; Function compile flags: /Odtp /ZI
; File c:\users\nhv90\projects\eech\aphavoc\source\gunships\avionics\ka50\hm_eo.c
;	COMDAT ?inc_ka50_eo_zoom@@YGXXZ
_TEXT	SEGMENT
tv64 = -68						; size = 4
?inc_ka50_eo_zoom@@YGXXZ PROC				; inc_ka50_eo_zoom, COMDAT

; 452  : {

  00000	55		 push	 ebp
  00001	8b ec		 mov	 ebp, esp
  00003	83 ec 44	 sub	 esp, 68			; 00000044H
  00006	53		 push	 ebx
  00007	56		 push	 esi
  00008	57		 push	 edi

; 453  : 	switch (eo_sensor)

  00009	a1 00 00 00 00	 mov	 eax, DWORD PTR ?eo_sensor@@3W4TARGET_ACQUISITION_SYSTEMS@@A ; eo_sensor
  0000e	89 45 bc	 mov	 DWORD PTR tv64[ebp], eax
  00011	83 7d bc 03	 cmp	 DWORD PTR tv64[ebp], 3
  00015	74 02		 je	 SHORT $LN4@inc_ka50_e
  00017	eb 0a		 jmp	 SHORT $LN1@inc_ka50_e
$LN4@inc_ka50_e:

; 454  : 	{
; 455  : 		case TARGET_ACQUISITION_SYSTEM_FLIR:
; 456  : 			dec_eo_field_of_view(&ka50_flir);

  00019	68 00 00 00 00	 push	 OFFSET ?ka50_flir@@3UEO_PARAMS_DYNAMIC_MOVE@@A ; ka50_flir
  0001e	e8 00 00 00 00	 call	 ?dec_eo_field_of_view@@YGXPAUEO_PARAMS_DYNAMIC_MOVE@@@Z ; dec_eo_field_of_view
$LN1@inc_ka50_e:

; 457  : 			break;
; 458  : 		default:
; 459  : 			break;
; 460  : 	}
; 461  : }

  00023	5f		 pop	 edi
  00024	5e		 pop	 esi
  00025	5b		 pop	 ebx
  00026	8b e5		 mov	 esp, ebp
  00028	5d		 pop	 ebp
  00029	c3		 ret	 0
?inc_ka50_eo_zoom@@YGXXZ ENDP				; inc_ka50_eo_zoom
_TEXT	ENDS
; Function compile flags: /Odtp /ZI
; File c:\users\nhv90\projects\eech\aphavoc\source\gunships\avionics\ka50\hm_eo.c
;	COMDAT ?slave_ka50_eo_to_current_target@@YGXXZ
_TEXT	SEGMENT
tv68 = -68						; size = 4
tv66 = -68						; size = 4
?slave_ka50_eo_to_current_target@@YGXXZ PROC		; slave_ka50_eo_to_current_target, COMDAT

; 480  : {

  00000	55		 push	 ebp
  00001	8b ec		 mov	 ebp, esp
  00003	83 ec 44	 sub	 esp, 68			; 00000044H
  00006	53		 push	 ebx
  00007	56		 push	 esi
  00008	57		 push	 edi

; 481  : 	if (command_line_manual_laser_radar)

  00009	83 3d 00 00 00
	00 00		 cmp	 DWORD PTR ?command_line_manual_laser_radar@@3HA, 0 ; command_line_manual_laser_radar
  00010	74 02		 je	 SHORT $LN6@slave_ka50

; 482  : 		return;

  00012	eb 46		 jmp	 SHORT $LN1@slave_ka50
$LN6@slave_ka50:

; 483  : 
; 484  : 	if (eo_on_target)

  00014	83 3d 00 00 00
	00 00		 cmp	 DWORD PTR ?eo_on_target@@3HA, 0 ; eo_on_target
  0001b	74 1d		 je	 SHORT $LN7@slave_ka50

; 485  : 	{
; 486  : 		switch (eo_sensor)

  0001d	a1 00 00 00 00	 mov	 eax, DWORD PTR ?eo_sensor@@3W4TARGET_ACQUISITION_SYSTEMS@@A ; eo_sensor
  00022	89 45 bc	 mov	 DWORD PTR tv66[ebp], eax
  00025	83 7d bc 03	 cmp	 DWORD PTR tv66[ebp], 3
  00029	74 02		 je	 SHORT $LN9@slave_ka50
  0002b	eb 0b		 jmp	 SHORT $LN2@slave_ka50
$LN9@slave_ka50:

; 487  : 		{
; 488  : 			case TARGET_ACQUISITION_SYSTEM_FLIR:
; 489  : 			{
; 490  : 				ka50_flir.zoom = 0.0;

  0002d	0f 57 c0	 xorps	 xmm0, xmm0
  00030	f3 0f 11 05 00
	00 00 00	 movss	 DWORD PTR ?ka50_flir@@3UEO_PARAMS_DYNAMIC_MOVE@@A, xmm0
$LN2@slave_ka50:

; 491  : 				break;
; 492  : 			}
; 493  : 		}
; 494  : 	}
; 495  : 	else

  00038	eb 20		 jmp	 SHORT $LN4@slave_ka50
$LN7@slave_ka50:

; 496  : 	{
; 497  : 		switch (eo_sensor)

  0003a	a1 00 00 00 00	 mov	 eax, DWORD PTR ?eo_sensor@@3W4TARGET_ACQUISITION_SYSTEMS@@A ; eo_sensor
  0003f	89 45 bc	 mov	 DWORD PTR tv68[ebp], eax
  00042	83 7d bc 03	 cmp	 DWORD PTR tv68[ebp], 3
  00046	74 02		 je	 SHORT $LN10@slave_ka50
  00048	eb 10		 jmp	 SHORT $LN4@slave_ka50
$LN10@slave_ka50:

; 498  : 		{
; 499  : 			case TARGET_ACQUISITION_SYSTEM_FLIR:
; 500  : 			{
; 501  : 				ka50_flir.zoom = 1.0;

  0004a	f3 0f 10 05 00
	00 00 00	 movss	 xmm0, DWORD PTR __real@3f800000
  00052	f3 0f 11 05 00
	00 00 00	 movss	 DWORD PTR ?ka50_flir@@3UEO_PARAMS_DYNAMIC_MOVE@@A, xmm0
$LN4@slave_ka50:
$LN1@slave_ka50:

; 502  : 				break;
; 503  : 			}
; 504  : 		}
; 505  : 	}
; 506  : }

  0005a	5f		 pop	 edi
  0005b	5e		 pop	 esi
  0005c	5b		 pop	 ebx
  0005d	8b e5		 mov	 esp, ebp
  0005f	5d		 pop	 ebp
  00060	c3		 ret	 0
?slave_ka50_eo_to_current_target@@YGXXZ ENDP		; slave_ka50_eo_to_current_target
_TEXT	ENDS
; Function compile flags: /Odtp /ZI
; File c:\users\nhv90\projects\eech\aphavoc\source\gunships\avionics\ka50\hm_eo.c
;	COMDAT ?animate_ka50_virtual_cockpit_eo@@YGXPAUOBJECT_3D_INSTANCE@@@Z
_TEXT	SEGMENT
_inst3d$ = 8						; size = 4
?animate_ka50_virtual_cockpit_eo@@YGXPAUOBJECT_3D_INSTANCE@@@Z PROC ; animate_ka50_virtual_cockpit_eo, COMDAT

; 444  : {

  00000	55		 push	 ebp
  00001	8b ec		 mov	 ebp, esp
  00003	83 ec 40	 sub	 esp, 64			; 00000040H
  00006	53		 push	 ebx
  00007	56		 push	 esi
  00008	57		 push	 edi

; 445  : }

  00009	5f		 pop	 edi
  0000a	5e		 pop	 esi
  0000b	5b		 pop	 ebx
  0000c	8b e5		 mov	 esp, ebp
  0000e	5d		 pop	 ebp
  0000f	c2 04 00	 ret	 4
?animate_ka50_virtual_cockpit_eo@@YGXPAUOBJECT_3D_INSTANCE@@@Z ENDP ; animate_ka50_virtual_cockpit_eo
_TEXT	ENDS
; Function compile flags: /Odtp /ZI
; File c:\users\nhv90\projects\eech\aphavoc\source\gunships\avionics\ka50\hm_eo.c
;	COMDAT ?animate_ka50_eo@@YGXPAUOBJECT_3D_INSTANCE@@@Z
_TEXT	SEGMENT
_inst3d$ = 8						; size = 4
?animate_ka50_eo@@YGXPAUOBJECT_3D_INSTANCE@@@Z PROC	; animate_ka50_eo, COMDAT

; 436  : {

  00000	55		 push	 ebp
  00001	8b ec		 mov	 ebp, esp
  00003	83 ec 40	 sub	 esp, 64			; 00000040H
  00006	53		 push	 ebx
  00007	56		 push	 esi
  00008	57		 push	 edi

; 437  : }

  00009	5f		 pop	 edi
  0000a	5e		 pop	 esi
  0000b	5b		 pop	 ebx
  0000c	8b e5		 mov	 esp, ebp
  0000e	5d		 pop	 ebp
  0000f	c2 04 00	 ret	 4
?animate_ka50_eo@@YGXPAUOBJECT_3D_INSTANCE@@@Z ENDP	; animate_ka50_eo
_TEXT	ENDS
; Function compile flags: /Odtp /ZI
; File c:\users\nhv90\projects\eech\aphavoc\source\gunships\avionics\ka50\hm_eo.c
;	COMDAT ?centre_ka50_eo@@YGXXZ
_TEXT	SEGMENT
?centre_ka50_eo@@YGXXZ PROC				; centre_ka50_eo, COMDAT

; 425  : {

  00000	55		 push	 ebp
  00001	8b ec		 mov	 ebp, esp
  00003	83 ec 40	 sub	 esp, 64			; 00000040H
  00006	53		 push	 ebx
  00007	56		 push	 esi
  00008	57		 push	 edi

; 426  : 	eo_azimuth = rad (0.0);

  00009	0f 57 c0	 xorps	 xmm0, xmm0
  0000c	f3 0f 11 05 00
	00 00 00	 movss	 DWORD PTR ?eo_azimuth@@3MA, xmm0

; 427  : 
; 428  : 	eo_elevation = rad (0.0);

  00014	0f 57 c0	 xorps	 xmm0, xmm0
  00017	f3 0f 11 05 00
	00 00 00	 movss	 DWORD PTR ?eo_elevation@@3MA, xmm0

; 429  : }

  0001f	5f		 pop	 edi
  00020	5e		 pop	 esi
  00021	5b		 pop	 ebx
  00022	8b e5		 mov	 esp, ebp
  00024	5d		 pop	 ebp
  00025	c3		 ret	 0
?centre_ka50_eo@@YGXXZ ENDP				; centre_ka50_eo
_TEXT	ENDS
; Function compile flags: /Odtp /ZI
; File c:\users\nhv90\projects\eech\aphavoc\source\gunships\avionics\ka50\hm_eo.c
;	COMDAT ?update_ka50_eo@@YGXPAUEO_PARAMS_DYNAMIC_MOVE@@@Z
_TEXT	SEGMENT
_ROTATE_RATE$1 = -28					; size = 4
_exp_zoom_value$2 = -24					; size = 4
_pos$3 = -20						; size = 4
_coarse_slew_rate$ = -16				; size = 4
_mouse_slew_rate$ = -12					; size = 4
_medium_slew_rate$ = -8					; size = 4
_fine_slew_rate$ = -4					; size = 4
_eo$ = 8						; size = 4
?update_ka50_eo@@YGXPAUEO_PARAMS_DYNAMIC_MOVE@@@Z PROC	; update_ka50_eo, COMDAT

; 271  : {

  00000	55		 push	 ebp
  00001	8b ec		 mov	 ebp, esp
  00003	83 ec 5c	 sub	 esp, 92			; 0000005cH
  00006	53		 push	 ebx
  00007	56		 push	 esi
  00008	57		 push	 edi

; 272  : 	float
; 273  : 		fine_slew_rate,
; 274  : 		medium_slew_rate,
; 275  : 		mouse_slew_rate, // Jabberwock 030930
; 276  : 		coarse_slew_rate;
; 277  : 
; 278  : 	ASSERT (eo);

  00009	83 7d 08 00	 cmp	 DWORD PTR _eo$[ebp], 0
  0000d	75 18		 jne	 SHORT $LN20@update_ka5
  0000f	a1 00 00 00 00	 mov	 eax, DWORD PTR ?__LINE__Var@?0??update_ka50_eo@@YGXPAUEO_PARAMS_DYNAMIC_MOVE@@@Z@4JA
  00014	83 c0 07	 add	 eax, 7
  00017	50		 push	 eax
  00018	68 00 00 00 00	 push	 OFFSET ??_C@_0EL@HAHDNPP@c?3?2users?2nhv90?2projects?2eech?2ap@
  0001d	68 00 00 00 00	 push	 OFFSET ??_C@_02KMMHFIEO@eo@
  00022	e8 00 00 00 00	 call	 ?process_assert@@YGXPBD0H@Z ; process_assert
$LN20@update_ka5:

; 279  : 
; 280  : 	////////////////////////////////////////
; 281  : 	//
; 282  : 	// field of view
; 283  : 	//
; 284  : 	////////////////////////////////////////
; 285  : 
; 286  : 	while (single_target_acquisition_system_inc_range_key)

  00027	83 3d 00 00 00
	00 00		 cmp	 DWORD PTR ?single_target_acquisition_system_inc_range_key@@3HA, 0 ; single_target_acquisition_system_inc_range_key
  0002e	74 18		 je	 SHORT $LN3@update_ka5

; 287  : 	{
; 288  : 		dec_eo_field_of_view (eo);

  00030	8b 45 08	 mov	 eax, DWORD PTR _eo$[ebp]
  00033	50		 push	 eax
  00034	e8 00 00 00 00	 call	 ?dec_eo_field_of_view@@YGXPAUEO_PARAMS_DYNAMIC_MOVE@@@Z ; dec_eo_field_of_view

; 289  : 
; 290  : 		single_target_acquisition_system_inc_range_key--;

  00039	a1 00 00 00 00	 mov	 eax, DWORD PTR ?single_target_acquisition_system_inc_range_key@@3HA ; single_target_acquisition_system_inc_range_key
  0003e	83 e8 01	 sub	 eax, 1
  00041	a3 00 00 00 00	 mov	 DWORD PTR ?single_target_acquisition_system_inc_range_key@@3HA, eax ; single_target_acquisition_system_inc_range_key

; 291  : 	}

  00046	eb df		 jmp	 SHORT $LN20@update_ka5
$LN3@update_ka5:

; 292  : 
; 293  : 	while (single_target_acquisition_system_inc_range_fast_key)

  00048	83 3d 00 00 00
	00 00		 cmp	 DWORD PTR ?single_target_acquisition_system_inc_range_fast_key@@3HA, 0 ; single_target_acquisition_system_inc_range_fast_key
  0004f	74 18		 je	 SHORT $LN5@update_ka5

; 294  : 	{
; 295  : 		fast_dec_eo_field_of_view (eo);

  00051	8b 45 08	 mov	 eax, DWORD PTR _eo$[ebp]
  00054	50		 push	 eax
  00055	e8 00 00 00 00	 call	 ?fast_dec_eo_field_of_view@@YGXPAUEO_PARAMS_DYNAMIC_MOVE@@@Z ; fast_dec_eo_field_of_view

; 296  : 
; 297  : 		single_target_acquisition_system_inc_range_fast_key--;

  0005a	a1 00 00 00 00	 mov	 eax, DWORD PTR ?single_target_acquisition_system_inc_range_fast_key@@3HA ; single_target_acquisition_system_inc_range_fast_key
  0005f	83 e8 01	 sub	 eax, 1
  00062	a3 00 00 00 00	 mov	 DWORD PTR ?single_target_acquisition_system_inc_range_fast_key@@3HA, eax ; single_target_acquisition_system_inc_range_fast_key

; 298  : 	}

  00067	eb df		 jmp	 SHORT $LN3@update_ka5
$LN5@update_ka5:

; 299  : 
; 300  : 	////////////////////////////////////////
; 301  : 
; 302  : 	while (single_target_acquisition_system_dec_range_key)

  00069	83 3d 00 00 00
	00 00		 cmp	 DWORD PTR ?single_target_acquisition_system_dec_range_key@@3HA, 0 ; single_target_acquisition_system_dec_range_key
  00070	74 18		 je	 SHORT $LN7@update_ka5

; 303  : 	{
; 304  : 		inc_eo_field_of_view (eo);

  00072	8b 45 08	 mov	 eax, DWORD PTR _eo$[ebp]
  00075	50		 push	 eax
  00076	e8 00 00 00 00	 call	 ?inc_eo_field_of_view@@YGXPAUEO_PARAMS_DYNAMIC_MOVE@@@Z ; inc_eo_field_of_view

; 305  : 
; 306  : 		single_target_acquisition_system_dec_range_key--;

  0007b	a1 00 00 00 00	 mov	 eax, DWORD PTR ?single_target_acquisition_system_dec_range_key@@3HA ; single_target_acquisition_system_dec_range_key
  00080	83 e8 01	 sub	 eax, 1
  00083	a3 00 00 00 00	 mov	 DWORD PTR ?single_target_acquisition_system_dec_range_key@@3HA, eax ; single_target_acquisition_system_dec_range_key

; 307  : 	}

  00088	eb df		 jmp	 SHORT $LN5@update_ka5
$LN7@update_ka5:

; 308  : 
; 309  : 	while (single_target_acquisition_system_dec_range_fast_key)

  0008a	83 3d 00 00 00
	00 00		 cmp	 DWORD PTR ?single_target_acquisition_system_dec_range_fast_key@@3HA, 0 ; single_target_acquisition_system_dec_range_fast_key
  00091	74 18		 je	 SHORT $LN9@update_ka5

; 310  : 	{
; 311  : 		fast_inc_eo_field_of_view (eo);

  00093	8b 45 08	 mov	 eax, DWORD PTR _eo$[ebp]
  00096	50		 push	 eax
  00097	e8 00 00 00 00	 call	 ?fast_inc_eo_field_of_view@@YGXPAUEO_PARAMS_DYNAMIC_MOVE@@@Z ; fast_inc_eo_field_of_view

; 312  : 
; 313  : 		single_target_acquisition_system_dec_range_fast_key--;

  0009c	a1 00 00 00 00	 mov	 eax, DWORD PTR ?single_target_acquisition_system_dec_range_fast_key@@3HA ; single_target_acquisition_system_dec_range_fast_key
  000a1	83 e8 01	 sub	 eax, 1
  000a4	a3 00 00 00 00	 mov	 DWORD PTR ?single_target_acquisition_system_dec_range_fast_key@@3HA, eax ; single_target_acquisition_system_dec_range_fast_key

; 314  : 	}

  000a9	eb df		 jmp	 SHORT $LN7@update_ka5
$LN9@update_ka5:

; 315  : 
; 316  : 	////////////////////////////////////////
; 317  : 
; 318  : 	while (toggle_ground_stabilisation_key)

  000ab	83 3d 00 00 00
	00 00		 cmp	 DWORD PTR ?toggle_ground_stabilisation_key@@3HA, 0 ; toggle_ground_stabilisation_key
  000b2	74 14		 je	 SHORT $LN11@update_ka5

; 319  : 	{
; 320  : 		toggle_ground_stabilisation ();

  000b4	e8 00 00 00 00	 call	 ?toggle_ground_stabilisation@@YGXXZ ; toggle_ground_stabilisation

; 321  : 
; 322  : 		toggle_ground_stabilisation_key--;

  000b9	a1 00 00 00 00	 mov	 eax, DWORD PTR ?toggle_ground_stabilisation_key@@3HA ; toggle_ground_stabilisation_key
  000be	83 e8 01	 sub	 eax, 1
  000c1	a3 00 00 00 00	 mov	 DWORD PTR ?toggle_ground_stabilisation_key@@3HA, eax ; toggle_ground_stabilisation_key

; 323  : 	}

  000c6	eb e3		 jmp	 SHORT $LN9@update_ka5
$LN11@update_ka5:

; 324  : 
; 325  : 	////////////////////////////////////////
; 326  : 
; 327  : 	if (command_line_eo_zoom_joystick_index != -1)

  000c8	83 3d 00 00 00
	00 ff		 cmp	 DWORD PTR ?command_line_eo_zoom_joystick_index@@3HA, -1 ; command_line_eo_zoom_joystick_index
  000cf	74 34		 je	 SHORT $LN21@update_ka5

; 328  : 	{
; 329  : 		long pos = get_joystick_axis (command_line_eo_zoom_joystick_index, command_line_eo_zoom_joystick_axis);

  000d1	a1 00 00 00 00	 mov	 eax, DWORD PTR ?command_line_eo_zoom_joystick_axis@@3HA ; command_line_eo_zoom_joystick_axis
  000d6	50		 push	 eax
  000d7	8b 0d 00 00 00
	00		 mov	 ecx, DWORD PTR ?command_line_eo_zoom_joystick_index@@3HA ; command_line_eo_zoom_joystick_index
  000dd	51		 push	 ecx
  000de	e8 00 00 00 00	 call	 ?get_joystick_axis@@YGHHH@Z ; get_joystick_axis
  000e3	89 45 ec	 mov	 DWORD PTR _pos$3[ebp], eax

; 330  : 
; 331  : 		eo->zoom = (pos + 10000) / 20000.0;

  000e6	8b 45 ec	 mov	 eax, DWORD PTR _pos$3[ebp]
  000e9	05 10 27 00 00	 add	 eax, 10000		; 00002710H
  000ee	f2 0f 2a c0	 cvtsi2sd xmm0, eax
  000f2	f2 0f 5e 05 00
	00 00 00	 divsd	 xmm0, QWORD PTR __real@40d3880000000000
  000fa	f2 0f 5a c0	 cvtsd2ss xmm0, xmm0
  000fe	8b 4d 08	 mov	 ecx, DWORD PTR _eo$[ebp]
  00101	f3 0f 11 01	 movss	 DWORD PTR [ecx], xmm0
$LN21@update_ka5:

; 332  : 	}
; 333  : 
; 334  : 	////////////////////////////////////////
; 335  : 	//
; 336  : 	// slew optics
; 337  : 	//
; 338  : 	////////////////////////////////////////
; 339  : 
; 340  : 	{
; 341  : 		float exp_zoom_value = convert_linear_view_value (eo);

  00105	8b 45 08	 mov	 eax, DWORD PTR _eo$[ebp]
  00108	50		 push	 eax
  00109	e8 00 00 00 00	 call	 ?convert_linear_view_value@@YGMPAUEO_PARAMS_DYNAMIC_MOVE@@@Z ; convert_linear_view_value
  0010e	d9 5d e8	 fstp	 DWORD PTR _exp_zoom_value$2[ebp]

; 342  : 
; 343  : 		fine_slew_rate = rad (4.0) * exp_zoom_value * get_delta_time ();

  00111	f3 0f 5a 45 e8	 cvtss2sd xmm0, DWORD PTR _exp_zoom_value$2[ebp]
  00116	f2 0f 59 05 00
	00 00 00	 mulsd	 xmm0, QWORD PTR __real@3fb1df46a0000000
  0011e	f3 0f 5a 0d 00
	00 00 00	 cvtss2sd xmm1, DWORD PTR ?system_delta_time@@3MA
  00126	f2 0f 59 c1	 mulsd	 xmm0, xmm1
  0012a	f2 0f 5a c0	 cvtsd2ss xmm0, xmm0
  0012e	f3 0f 11 45 fc	 movss	 DWORD PTR _fine_slew_rate$[ebp], xmm0

; 344  : 
; 345  : 		medium_slew_rate = rad (20.0) * exp_zoom_value * get_delta_time ();

  00133	f3 0f 5a 45 e8	 cvtss2sd xmm0, DWORD PTR _exp_zoom_value$2[ebp]
  00138	f2 0f 59 05 00
	00 00 00	 mulsd	 xmm0, QWORD PTR __real@3fd6571848000000
  00140	f3 0f 5a 0d 00
	00 00 00	 cvtss2sd xmm1, DWORD PTR ?system_delta_time@@3MA
  00148	f2 0f 59 c1	 mulsd	 xmm0, xmm1
  0014c	f2 0f 5a c0	 cvtsd2ss xmm0, xmm0
  00150	f3 0f 11 45 f8	 movss	 DWORD PTR _medium_slew_rate$[ebp], xmm0

; 346  : 
; 347  : 		mouse_slew_rate = rad (48) * exp_zoom_value * get_delta_time ();	// Jabberwock 030930

  00155	f3 0f 10 05 00
	00 00 00	 movss	 xmm0, DWORD PTR __real@3f567750
  0015d	f3 0f 59 45 e8	 mulss	 xmm0, DWORD PTR _exp_zoom_value$2[ebp]
  00162	f3 0f 59 05 00
	00 00 00	 mulss	 xmm0, DWORD PTR ?system_delta_time@@3MA
  0016a	f3 0f 11 45 f4	 movss	 DWORD PTR _mouse_slew_rate$[ebp], xmm0

; 348  : 
; 349  : 		coarse_slew_rate = rad (80.0) * exp_zoom_value * get_delta_time ();

  0016f	f3 0f 5a 45 e8	 cvtss2sd xmm0, DWORD PTR _exp_zoom_value$2[ebp]
  00174	f2 0f 59 05 00
	00 00 00	 mulsd	 xmm0, QWORD PTR __real@3ff6571848000000
  0017c	f3 0f 5a 0d 00
	00 00 00	 cvtss2sd xmm1, DWORD PTR ?system_delta_time@@3MA
  00184	f2 0f 59 c1	 mulsd	 xmm0, xmm1
  00188	f2 0f 5a c0	 cvtsd2ss xmm0, xmm0
  0018c	f3 0f 11 45 f0	 movss	 DWORD PTR _coarse_slew_rate$[ebp], xmm0

; 350  : 	}
; 351  : 
; 352  : 	////////////////////////////////////////
; 353  : 
; 354  : 	keyboard_slew_eo_system(fine_slew_rate, medium_slew_rate, coarse_slew_rate);

  00191	51		 push	 ecx
  00192	f3 0f 10 45 f0	 movss	 xmm0, DWORD PTR _coarse_slew_rate$[ebp]
  00197	f3 0f 11 04 24	 movss	 DWORD PTR [esp], xmm0
  0019c	51		 push	 ecx
  0019d	f3 0f 10 45 f8	 movss	 xmm0, DWORD PTR _medium_slew_rate$[ebp]
  001a2	f3 0f 11 04 24	 movss	 DWORD PTR [esp], xmm0
  001a7	51		 push	 ecx
  001a8	f3 0f 10 45 fc	 movss	 xmm0, DWORD PTR _fine_slew_rate$[ebp]
  001ad	f3 0f 11 04 24	 movss	 DWORD PTR [esp], xmm0
  001b2	e8 00 00 00 00	 call	 ?keyboard_slew_eo_system@@YGXMMM@Z ; keyboard_slew_eo_system

; 355  : 
; 356  : 	if ( command_line_eo_pan_joystick_index == -1 )

  001b7	83 3d 00 00 00
	00 ff		 cmp	 DWORD PTR ?command_line_eo_pan_joystick_index@@3HA, -1 ; command_line_eo_pan_joystick_index
  001be	0f 85 c9 00 00
	00		 jne	 $LN22@update_ka5

; 357  : 	{						
; 358  : 		float ROTATE_RATE = (float) command_line_mouse_look_speed / 5.0;

  001c4	f3 0f 2a 05 00
	00 00 00	 cvtsi2ss xmm0, DWORD PTR ?command_line_mouse_look_speed@@3HA ; command_line_mouse_look_speed
  001cc	f3 0f 5a c0	 cvtss2sd xmm0, xmm0
  001d0	f2 0f 5e 05 00
	00 00 00	 divsd	 xmm0, QWORD PTR __real@4014000000000000
  001d8	f2 0f 5a c0	 cvtsd2ss xmm0, xmm0
  001dc	f3 0f 11 45 e4	 movss	 DWORD PTR _ROTATE_RATE$1[ebp], xmm0

; 359  : 
; 360  : 		eo_azimuth = get_eo_azimuth (ROTATE_RATE, coarse_slew_rate, eo_azimuth, eo_min_azimuth, eo_max_azimuth, mouse_slew_rate);

  001e1	51		 push	 ecx
  001e2	f3 0f 10 45 f4	 movss	 xmm0, DWORD PTR _mouse_slew_rate$[ebp]
  001e7	f3 0f 11 04 24	 movss	 DWORD PTR [esp], xmm0
  001ec	51		 push	 ecx
  001ed	f3 0f 10 05 00
	00 00 00	 movss	 xmm0, DWORD PTR ?eo_max_azimuth@@3MA
  001f5	f3 0f 11 04 24	 movss	 DWORD PTR [esp], xmm0
  001fa	51		 push	 ecx
  001fb	f3 0f 10 05 00
	00 00 00	 movss	 xmm0, DWORD PTR ?eo_min_azimuth@@3MA
  00203	f3 0f 11 04 24	 movss	 DWORD PTR [esp], xmm0
  00208	51		 push	 ecx
  00209	f3 0f 10 05 00
	00 00 00	 movss	 xmm0, DWORD PTR ?eo_azimuth@@3MA
  00211	f3 0f 11 04 24	 movss	 DWORD PTR [esp], xmm0
  00216	51		 push	 ecx
  00217	f3 0f 10 45 f0	 movss	 xmm0, DWORD PTR _coarse_slew_rate$[ebp]
  0021c	f3 0f 11 04 24	 movss	 DWORD PTR [esp], xmm0
  00221	51		 push	 ecx
  00222	f3 0f 10 45 e4	 movss	 xmm0, DWORD PTR _ROTATE_RATE$1[ebp]
  00227	f3 0f 11 04 24	 movss	 DWORD PTR [esp], xmm0
  0022c	e8 00 00 00 00	 call	 ?get_eo_azimuth@@YGMMMMMMM@Z ; get_eo_azimuth
  00231	d9 1d 00 00 00
	00		 fstp	 DWORD PTR ?eo_azimuth@@3MA ; eo_azimuth

; 361  : 		eo_elevation = get_eo_elevation (ROTATE_RATE, coarse_slew_rate, eo_elevation, eo_min_elevation, eo_max_elevation, mouse_slew_rate);

  00237	51		 push	 ecx
  00238	f3 0f 10 45 f4	 movss	 xmm0, DWORD PTR _mouse_slew_rate$[ebp]
  0023d	f3 0f 11 04 24	 movss	 DWORD PTR [esp], xmm0
  00242	51		 push	 ecx
  00243	f3 0f 10 05 00
	00 00 00	 movss	 xmm0, DWORD PTR ?eo_max_elevation@@3MA
  0024b	f3 0f 11 04 24	 movss	 DWORD PTR [esp], xmm0
  00250	51		 push	 ecx
  00251	f3 0f 10 05 00
	00 00 00	 movss	 xmm0, DWORD PTR ?eo_min_elevation@@3MA
  00259	f3 0f 11 04 24	 movss	 DWORD PTR [esp], xmm0
  0025e	51		 push	 ecx
  0025f	f3 0f 10 05 00
	00 00 00	 movss	 xmm0, DWORD PTR ?eo_elevation@@3MA
  00267	f3 0f 11 04 24	 movss	 DWORD PTR [esp], xmm0
  0026c	51		 push	 ecx
  0026d	f3 0f 10 45 f0	 movss	 xmm0, DWORD PTR _coarse_slew_rate$[ebp]
  00272	f3 0f 11 04 24	 movss	 DWORD PTR [esp], xmm0
  00277	51		 push	 ecx
  00278	f3 0f 10 45 e4	 movss	 xmm0, DWORD PTR _ROTATE_RATE$1[ebp]
  0027d	f3 0f 11 04 24	 movss	 DWORD PTR [esp], xmm0
  00282	e8 00 00 00 00	 call	 ?get_eo_elevation@@YGMMMMMMM@Z ; get_eo_elevation
  00287	d9 1d 00 00 00
	00		 fstp	 DWORD PTR ?eo_elevation@@3MA ; eo_elevation
$LN22@update_ka5:

; 362  : 	}
; 363  : 	if (command_line_eo_zoom_joystick_index == -1 && (command_line_mouse_look != MOUSELOOK_ON || command_line_field_of_view_joystick_index != -1))

  0028d	83 3d 00 00 00
	00 ff		 cmp	 DWORD PTR ?command_line_eo_zoom_joystick_index@@3HA, -1 ; command_line_eo_zoom_joystick_index
  00294	75 29		 jne	 SHORT $LN23@update_ka5
  00296	83 3d 00 00 00
	00 03		 cmp	 DWORD PTR ?command_line_mouse_look@@3HA, 3 ; command_line_mouse_look
  0029d	75 09		 jne	 SHORT $LN24@update_ka5
  0029f	83 3d 00 00 00
	00 ff		 cmp	 DWORD PTR ?command_line_field_of_view_joystick_index@@3HA, -1 ; command_line_field_of_view_joystick_index
  002a6	74 17		 je	 SHORT $LN23@update_ka5
$LN24@update_ka5:

; 364  : 		eo->zoom = get_new_eo_zoom(eo->zoom);

  002a8	8b 45 08	 mov	 eax, DWORD PTR _eo$[ebp]
  002ab	51		 push	 ecx
  002ac	f3 0f 10 00	 movss	 xmm0, DWORD PTR [eax]
  002b0	f3 0f 11 04 24	 movss	 DWORD PTR [esp], xmm0
  002b5	e8 00 00 00 00	 call	 ?get_new_eo_zoom@@YGMM@Z ; get_new_eo_zoom
  002ba	8b 4d 08	 mov	 ecx, DWORD PTR _eo$[ebp]
  002bd	d9 19		 fstp	 DWORD PTR [ecx]
$LN23@update_ka5:

; 365  : 
; 366  : 	////////////////////////////////////////
; 367  : 	// loke 030315
; 368  : 	// added code to allow the user to slew the eo device using joystick axes
; 369  : 
; 370  : 	joystick_slew_eo_system(medium_slew_rate);

  002bf	51		 push	 ecx
  002c0	f3 0f 10 45 f8	 movss	 xmm0, DWORD PTR _medium_slew_rate$[ebp]
  002c5	f3 0f 11 04 24	 movss	 DWORD PTR [esp], xmm0
  002ca	e8 00 00 00 00	 call	 ?joystick_slew_eo_system@@YGXM@Z ; joystick_slew_eo_system

; 371  : 
; 372  : 	////////////////////////////////////////
; 373  : 
; 374  : 	// loke 030322
; 375  : 	// handle the ground stabilisation
; 376  : 
; 377  : 	if (eo_ground_stabilised)

  002cf	83 3d 00 00 00
	00 00		 cmp	 DWORD PTR ?eo_ground_stabilised@@3HA, 0 ; eo_ground_stabilised
  002d6	74 05		 je	 SHORT $LN25@update_ka5

; 378  : 	{
; 379  : 		handle_ground_stabilisation();

  002d8	e8 00 00 00 00	 call	 ?handle_ground_stabilisation@@YGXXZ ; handle_ground_stabilisation
$LN25@update_ka5:

; 380  : 	}
; 381  : 
; 382  : 	////////////////////////////////////////
; 383  : 
; 384  : 	while (single_target_acquisition_system_select_next_target_key)

  002dd	83 3d 00 00 00
	00 00		 cmp	 DWORD PTR ?single_target_acquisition_system_select_next_target_key@@3HA, 0 ; single_target_acquisition_system_select_next_target_key
  002e4	74 14		 je	 SHORT $LN13@update_ka5

; 385  : 	{
; 386  : 		select_next_eo_target ();

  002e6	e8 00 00 00 00	 call	 ?select_next_eo_target@@YGXXZ ; select_next_eo_target

; 387  : 
; 388  : 		single_target_acquisition_system_select_next_target_key--;

  002eb	a1 00 00 00 00	 mov	 eax, DWORD PTR ?single_target_acquisition_system_select_next_target_key@@3HA ; single_target_acquisition_system_select_next_target_key
  002f0	83 e8 01	 sub	 eax, 1
  002f3	a3 00 00 00 00	 mov	 DWORD PTR ?single_target_acquisition_system_select_next_target_key@@3HA, eax ; single_target_acquisition_system_select_next_target_key

; 389  : 	}

  002f8	eb e3		 jmp	 SHORT $LN25@update_ka5
$LN13@update_ka5:

; 390  : 
; 391  : 	////////////////////////////////////////
; 392  : 
; 393  : 	while (single_target_acquisition_system_select_previous_target_key)

  002fa	83 3d 00 00 00
	00 00		 cmp	 DWORD PTR ?single_target_acquisition_system_select_previous_target_key@@3HA, 0 ; single_target_acquisition_system_select_previous_target_key
  00301	74 14		 je	 SHORT $LN15@update_ka5

; 394  : 	{
; 395  : 		select_previous_eo_target ();

  00303	e8 00 00 00 00	 call	 ?select_previous_eo_target@@YGXXZ ; select_previous_eo_target

; 396  : 
; 397  : 		single_target_acquisition_system_select_previous_target_key--;

  00308	a1 00 00 00 00	 mov	 eax, DWORD PTR ?single_target_acquisition_system_select_previous_target_key@@3HA ; single_target_acquisition_system_select_previous_target_key
  0030d	83 e8 01	 sub	 eax, 1
  00310	a3 00 00 00 00	 mov	 DWORD PTR ?single_target_acquisition_system_select_previous_target_key@@3HA, eax ; single_target_acquisition_system_select_previous_target_key

; 398  : 	}

  00315	eb e3		 jmp	 SHORT $LN13@update_ka5
$LN15@update_ka5:

; 399  : 
; 400  : // Jabberwock 031107 Designated targets
; 401  : 
; 402  : 	while (single_target_acquisition_system_select_next_designated_key)

  00317	83 3d 00 00 00
	00 00		 cmp	 DWORD PTR ?single_target_acquisition_system_select_next_designated_key@@3HA, 0 ; single_target_acquisition_system_select_next_designated_key
  0031e	74 14		 je	 SHORT $LN17@update_ka5

; 403  : 	{
; 404  : 		select_next_designated_eo_target ();

  00320	e8 00 00 00 00	 call	 ?select_next_designated_eo_target@@YGXXZ ; select_next_designated_eo_target

; 405  : 
; 406  : 		single_target_acquisition_system_select_next_designated_key--;

  00325	a1 00 00 00 00	 mov	 eax, DWORD PTR ?single_target_acquisition_system_select_next_designated_key@@3HA ; single_target_acquisition_system_select_next_designated_key
  0032a	83 e8 01	 sub	 eax, 1
  0032d	a3 00 00 00 00	 mov	 DWORD PTR ?single_target_acquisition_system_select_next_designated_key@@3HA, eax ; single_target_acquisition_system_select_next_designated_key

; 407  : 	}

  00332	eb e3		 jmp	 SHORT $LN15@update_ka5
$LN17@update_ka5:

; 408  : 
; 409  : 	////////////////////////////////////////
; 410  : 
; 411  : 	while (single_target_acquisition_system_select_previous_designated_key)

  00334	83 3d 00 00 00
	00 00		 cmp	 DWORD PTR ?single_target_acquisition_system_select_previous_designated_key@@3HA, 0 ; single_target_acquisition_system_select_previous_designated_key
  0033b	74 14		 je	 SHORT $LN19@update_ka5

; 412  : 	{
; 413  : 		select_previous_designated_eo_target ();

  0033d	e8 00 00 00 00	 call	 ?select_previous_designated_eo_target@@YGXXZ ; select_previous_designated_eo_target

; 414  : 
; 415  : 		single_target_acquisition_system_select_previous_designated_key--;

  00342	a1 00 00 00 00	 mov	 eax, DWORD PTR ?single_target_acquisition_system_select_previous_designated_key@@3HA ; single_target_acquisition_system_select_previous_designated_key
  00347	83 e8 01	 sub	 eax, 1
  0034a	a3 00 00 00 00	 mov	 DWORD PTR ?single_target_acquisition_system_select_previous_designated_key@@3HA, eax ; single_target_acquisition_system_select_previous_designated_key

; 416  : 	}

  0034f	eb e3		 jmp	 SHORT $LN17@update_ka5
$LN19@update_ka5:

; 417  : }

  00351	5f		 pop	 edi
  00352	5e		 pop	 esi
  00353	5b		 pop	 ebx
  00354	8b e5		 mov	 esp, ebp
  00356	5d		 pop	 ebp
  00357	c2 04 00	 ret	 4
?update_ka50_eo@@YGXPAUEO_PARAMS_DYNAMIC_MOVE@@@Z ENDP	; update_ka50_eo
_TEXT	ENDS
; Function compile flags: /Odtp /ZI
; File c:\users\nhv90\projects\eech\aphavoc\source\gunships\avionics\ka50\hm_eo.c
;	COMDAT ?get_ka50_eo_relative_centred_viewpoint@@YGXPAUVIEWPOINT@@@Z
_TEXT	SEGMENT
tv177 = -136						; size = 4
tv83 = -136						; size = 4
tv169 = -132						; size = 4
tv138 = -132						; size = 4
tv75 = -132						; size = 4
_search$ = -64						; size = 56
_inst3d$ = -8						; size = 4
_source$ = -4						; size = 4
_vp$ = 8						; size = 4
?get_ka50_eo_relative_centred_viewpoint@@YGXPAUVIEWPOINT@@@Z PROC ; get_ka50_eo_relative_centred_viewpoint, COMDAT

; 160  : {

  00000	55		 push	 ebp
  00001	8b ec		 mov	 ebp, esp
  00003	81 ec 88 00 00
	00		 sub	 esp, 136		; 00000088H
  00009	53		 push	 ebx
  0000a	56		 push	 esi
  0000b	57		 push	 edi

; 161  : 	entity
; 162  : 		*source;
; 163  : 
; 164  : 	object_3d_instance
; 165  : 		*inst3d;
; 166  : 
; 167  : 	object_3d_sub_object_search_data
; 168  : 		search;
; 169  : 
; 170  : 	ASSERT (vp);

  0000c	83 7d 08 00	 cmp	 DWORD PTR _vp$[ebp], 0
  00010	75 18		 jne	 SHORT $LN2@get_ka50_e
  00012	a1 00 00 00 00	 mov	 eax, DWORD PTR ?__LINE__Var@?0??get_ka50_eo_relative_centred_viewpoint@@YGXPAUVIEWPOINT@@@Z@4JA
  00017	83 c0 0a	 add	 eax, 10			; 0000000aH
  0001a	50		 push	 eax
  0001b	68 00 00 00 00	 push	 OFFSET ??_C@_0EL@HAHDNPP@c?3?2users?2nhv90?2projects?2eech?2ap@
  00020	68 00 00 00 00	 push	 OFFSET ??_C@_02HPPNELPJ@vp@
  00025	e8 00 00 00 00	 call	 ?process_assert@@YGXPBD0H@Z ; process_assert
$LN2@get_ka50_e:

; 171  : 
; 172  : 	source = get_gunship_entity ();

  0002a	a1 00 00 00 00	 mov	 eax, DWORD PTR ?gunship_entity@@3PAUENTITY@@A ; gunship_entity
  0002f	89 45 fc	 mov	 DWORD PTR _source$[ebp], eax

; 173  : 
; 174  : 	inst3d = (object_3d_instance *) get_local_entity_ptr_value (source, PTR_TYPE_INSTANCE_3D_OBJECT);

  00032	83 7d fc 00	 cmp	 DWORD PTR _source$[ebp], 0
  00036	74 0d		 je	 SHORT $LN7@get_ka50_e
  00038	8b 45 fc	 mov	 eax, DWORD PTR _source$[ebp]
  0003b	8b 08		 mov	 ecx, DWORD PTR [eax]
  0003d	89 8d 7c ff ff
	ff		 mov	 DWORD PTR tv75[ebp], ecx
  00043	eb 24		 jmp	 SHORT $LN8@get_ka50_e
$LN7@get_ka50_e:
  00045	8b 15 00 00 00
	00		 mov	 edx, DWORD PTR ?__LINE__Var@?0??get_ka50_eo_relative_centred_viewpoint@@YGXPAUVIEWPOINT@@@Z@4JA
  0004b	83 c2 0e	 add	 edx, 14			; 0000000eH
  0004e	52		 push	 edx
  0004f	68 00 00 00 00	 push	 OFFSET ??_C@_0EL@HAHDNPP@c?3?2users?2nhv90?2projects?2eech?2ap@
  00054	a1 00 00 00 00	 mov	 eax, DWORD PTR ?null_entity_pointer_message@@3PBDB ; null_entity_pointer_message
  00059	50		 push	 eax
  0005a	e8 00 00 00 00	 call	 ?process_assert@@YGXPBD0H@Z ; process_assert
  0005f	c7 85 7c ff ff
	ff 00 00 00 00	 mov	 DWORD PTR tv75[ebp], 0
$LN8@get_ka50_e:
  00069	b9 01 00 00 00	 mov	 ecx, 1
  0006e	85 c9		 test	 ecx, ecx
  00070	74 0c		 je	 SHORT $LN9@get_ka50_e
  00072	c7 85 78 ff ff
	ff 02 00 00 00	 mov	 DWORD PTR tv83[ebp], 2
  0007c	eb 24		 jmp	 SHORT $LN10@get_ka50_e
$LN9@get_ka50_e:
  0007e	8b 15 00 00 00
	00		 mov	 edx, DWORD PTR ?__LINE__Var@?0??get_ka50_eo_relative_centred_viewpoint@@YGXPAUVIEWPOINT@@@Z@4JA
  00084	83 c2 0e	 add	 edx, 14			; 0000000eH
  00087	52		 push	 edx
  00088	68 00 00 00 00	 push	 OFFSET ??_C@_0EL@HAHDNPP@c?3?2users?2nhv90?2projects?2eech?2ap@
  0008d	a1 00 00 00 00	 mov	 eax, DWORD PTR ?overload_invalid_ptr_type_message@@3PBDB ; overload_invalid_ptr_type_message
  00092	50		 push	 eax
  00093	e8 00 00 00 00	 call	 ?process_assert@@YGXPBD0H@Z ; process_assert
  00098	c7 85 78 ff ff
	ff 00 00 00 00	 mov	 DWORD PTR tv83[ebp], 0
$LN10@get_ka50_e:
  000a2	6a 02		 push	 2
  000a4	8b 4d fc	 mov	 ecx, DWORD PTR _source$[ebp]
  000a7	51		 push	 ecx
  000a8	6b 95 7c ff ff
	ff 50		 imul	 edx, DWORD PTR tv75[ebp], 80
  000af	8b 85 78 ff ff
	ff		 mov	 eax, DWORD PTR tv83[ebp]
  000b5	8b 8c 82 00 00
	00 00		 mov	 ecx, DWORD PTR ?fn_get_local_entity_ptr_value@@3PAY0BE@P6GPAXPAUENTITY@@W4PTR_TYPES@@@ZA[edx+eax*4]
  000bc	ff d1		 call	 ecx
  000be	89 45 f8	 mov	 DWORD PTR _inst3d$[ebp], eax

; 175  : 
; 176  : 	ASSERT (inst3d);

  000c1	83 7d f8 00	 cmp	 DWORD PTR _inst3d$[ebp], 0
  000c5	75 18		 jne	 SHORT $LN3@get_ka50_e
  000c7	a1 00 00 00 00	 mov	 eax, DWORD PTR ?__LINE__Var@?0??get_ka50_eo_relative_centred_viewpoint@@YGXPAUVIEWPOINT@@@Z@4JA
  000cc	83 c0 10	 add	 eax, 16			; 00000010H
  000cf	50		 push	 eax
  000d0	68 00 00 00 00	 push	 OFFSET ??_C@_0EL@HAHDNPP@c?3?2users?2nhv90?2projects?2eech?2ap@
  000d5	68 00 00 00 00	 push	 OFFSET ??_C@_06DDNABPCD@inst3d@
  000da	e8 00 00 00 00	 call	 ?process_assert@@YGXPBD0H@Z ; process_assert
$LN3@get_ka50_e:

; 177  : 
; 178  : 	inst3d->vp.x = 0.0;

  000df	8b 45 f8	 mov	 eax, DWORD PTR _inst3d$[ebp]
  000e2	0f 57 c0	 xorps	 xmm0, xmm0
  000e5	f3 0f 11 40 08	 movss	 DWORD PTR [eax+8], xmm0

; 179  : 	inst3d->vp.y = 0.0;

  000ea	8b 45 f8	 mov	 eax, DWORD PTR _inst3d$[ebp]
  000ed	0f 57 c0	 xorps	 xmm0, xmm0
  000f0	f3 0f 11 40 0c	 movss	 DWORD PTR [eax+12], xmm0

; 180  : 	inst3d->vp.z = 0.0;

  000f5	8b 45 f8	 mov	 eax, DWORD PTR _inst3d$[ebp]
  000f8	0f 57 c0	 xorps	 xmm0, xmm0
  000fb	f3 0f 11 40 10	 movss	 DWORD PTR [eax+16], xmm0

; 181  : 
; 182  : 	get_local_entity_attitude_matrix (source, inst3d->vp.attitude);

  00100	83 7d fc 00	 cmp	 DWORD PTR _source$[ebp], 0
  00104	74 0d		 je	 SHORT $LN11@get_ka50_e
  00106	8b 45 fc	 mov	 eax, DWORD PTR _source$[ebp]
  00109	8b 08		 mov	 ecx, DWORD PTR [eax]
  0010b	89 8d 7c ff ff
	ff		 mov	 DWORD PTR tv138[ebp], ecx
  00111	eb 24		 jmp	 SHORT $LN12@get_ka50_e
$LN11@get_ka50_e:
  00113	8b 15 00 00 00
	00		 mov	 edx, DWORD PTR ?__LINE__Var@?0??get_ka50_eo_relative_centred_viewpoint@@YGXPAUVIEWPOINT@@@Z@4JA
  00119	83 c2 16	 add	 edx, 22			; 00000016H
  0011c	52		 push	 edx
  0011d	68 00 00 00 00	 push	 OFFSET ??_C@_0EL@HAHDNPP@c?3?2users?2nhv90?2projects?2eech?2ap@
  00122	a1 00 00 00 00	 mov	 eax, DWORD PTR ?null_entity_pointer_message@@3PBDB ; null_entity_pointer_message
  00127	50		 push	 eax
  00128	e8 00 00 00 00	 call	 ?process_assert@@YGXPBD0H@Z ; process_assert
  0012d	c7 85 7c ff ff
	ff 00 00 00 00	 mov	 DWORD PTR tv138[ebp], 0
$LN12@get_ka50_e:
  00137	8b 4d f8	 mov	 ecx, DWORD PTR _inst3d$[ebp]
  0013a	83 c1 14	 add	 ecx, 20			; 00000014H
  0013d	51		 push	 ecx
  0013e	8b 55 fc	 mov	 edx, DWORD PTR _source$[ebp]
  00141	52		 push	 edx
  00142	8b 85 7c ff ff
	ff		 mov	 eax, DWORD PTR tv138[ebp]
  00148	8b 0c 85 00 00
	00 00		 mov	 ecx, DWORD PTR ?fn_get_local_entity_attitude_matrix@@3PAP6GXPAUENTITY@@QAY02M@ZA[eax*4]
  0014f	ff d1		 call	 ecx

; 183  : 
; 184  : 	search.search_depth = 0;

  00151	c7 45 c8 00 00
	00 00		 mov	 DWORD PTR _search$[ebp+8], 0

; 185  : 	search.search_object = inst3d;

  00158	8b 45 f8	 mov	 eax, DWORD PTR _inst3d$[ebp]
  0015b	89 45 c0	 mov	 DWORD PTR _search$[ebp], eax

; 186  : 	search.sub_object_index = OBJECT_3D_SUB_OBJECT_KA52_SAMSHIT_VIEWPOINT;

  0015e	c7 45 cc ec 00
	00 00		 mov	 DWORD PTR _search$[ebp+12], 236 ; 000000ecH

; 187  : 
; 188  : 	if (find_object_3d_sub_object (&search) == SUB_OBJECT_SEARCH_RESULT_OBJECT_FOUND)

  00165	8d 45 c0	 lea	 eax, DWORD PTR _search$[ebp]
  00168	50		 push	 eax
  00169	e8 00 00 00 00	 call	 ?find_object_3d_sub_object@@YG?AW4SUB_OBJECT_SEARCH_RESULT_TYPES@@PAUOBJECT_3D_SUB_OBJECT_SEARCH_DATA@@@Z ; find_object_3d_sub_object
  0016e	83 f8 01	 cmp	 eax, 1
  00171	75 0f		 jne	 SHORT $LN4@get_ka50_e

; 189  : 	{
; 190  : 		get_3d_sub_object_world_viewpoint (search.result_sub_object, vp);

  00173	8b 45 08	 mov	 eax, DWORD PTR _vp$[ebp]
  00176	50		 push	 eax
  00177	8b 4d c4	 mov	 ecx, DWORD PTR _search$[ebp+4]
  0017a	51		 push	 ecx
  0017b	e8 00 00 00 00	 call	 ?get_3d_sub_object_world_viewpoint@@YGXPAUOBJECT_3D_SUB_INSTANCE@@PAUVIEWPOINT@@@Z ; get_3d_sub_object_world_viewpoint

; 191  : 	}
; 192  : 	else

  00180	eb 22		 jmp	 SHORT $LN5@get_ka50_e
$LN4@get_ka50_e:

; 193  : 	{
; 194  : 		//
; 195  : 		// can happpen if the object is being destroyed
; 196  : 		//
; 197  : 
; 198  : 		memcpy (&vp->position, &inst3d->vp.position, sizeof (vec3d));

  00182	6a 0c		 push	 12			; 0000000cH
  00184	8b 45 f8	 mov	 eax, DWORD PTR _inst3d$[ebp]
  00187	83 c0 08	 add	 eax, 8
  0018a	50		 push	 eax
  0018b	8b 4d 08	 mov	 ecx, DWORD PTR _vp$[ebp]
  0018e	51		 push	 ecx
  0018f	e8 00 00 00 00	 call	 _memcpy
  00194	83 c4 0c	 add	 esp, 12			; 0000000cH

; 199  : 
; 200  : 		debug_log ("OBJECT_3D_SUB_OBJECT_KA52_SAMSHIT_VIEWPOINT missing from Ka-50");

  00197	68 00 00 00 00	 push	 OFFSET ??_C@_0DP@GDECALJL@OBJECT_3D_SUB_OBJECT_KA52_SAMSH@
  0019c	e8 00 00 00 00	 call	 ?debug_log@@YAXPBDZZ	; debug_log
  001a1	83 c4 04	 add	 esp, 4
$LN5@get_ka50_e:

; 201  : 	}
; 202  : 
; 203  : 	memcpy (&vp->attitude, &inst3d->vp.attitude, sizeof (matrix3x3));

  001a4	6a 24		 push	 36			; 00000024H
  001a6	8b 45 f8	 mov	 eax, DWORD PTR _inst3d$[ebp]
  001a9	83 c0 14	 add	 eax, 20			; 00000014H
  001ac	50		 push	 eax
  001ad	8b 4d 08	 mov	 ecx, DWORD PTR _vp$[ebp]
  001b0	83 c1 0c	 add	 ecx, 12			; 0000000cH
  001b3	51		 push	 ecx
  001b4	e8 00 00 00 00	 call	 _memcpy
  001b9	83 c4 0c	 add	 esp, 12			; 0000000cH

; 204  : 
; 205  : 	//
; 206  : 	// fix up the instance position (just in case)
; 207  : 	//
; 208  : 
; 209  : 	get_local_entity_vec3d (source, VEC3D_TYPE_POSITION, &inst3d->vp.position);

  001bc	83 7d fc 00	 cmp	 DWORD PTR _source$[ebp], 0
  001c0	74 0d		 je	 SHORT $LN13@get_ka50_e
  001c2	8b 45 fc	 mov	 eax, DWORD PTR _source$[ebp]
  001c5	8b 08		 mov	 ecx, DWORD PTR [eax]
  001c7	89 8d 7c ff ff
	ff		 mov	 DWORD PTR tv169[ebp], ecx
  001cd	eb 24		 jmp	 SHORT $LN14@get_ka50_e
$LN13@get_ka50_e:
  001cf	8b 15 00 00 00
	00		 mov	 edx, DWORD PTR ?__LINE__Var@?0??get_ka50_eo_relative_centred_viewpoint@@YGXPAUVIEWPOINT@@@Z@4JA
  001d5	83 c2 31	 add	 edx, 49			; 00000031H
  001d8	52		 push	 edx
  001d9	68 00 00 00 00	 push	 OFFSET ??_C@_0EL@HAHDNPP@c?3?2users?2nhv90?2projects?2eech?2ap@
  001de	a1 00 00 00 00	 mov	 eax, DWORD PTR ?null_entity_pointer_message@@3PBDB ; null_entity_pointer_message
  001e3	50		 push	 eax
  001e4	e8 00 00 00 00	 call	 ?process_assert@@YGXPBD0H@Z ; process_assert
  001e9	c7 85 7c ff ff
	ff 00 00 00 00	 mov	 DWORD PTR tv169[ebp], 0
$LN14@get_ka50_e:
  001f3	b9 01 00 00 00	 mov	 ecx, 1
  001f8	85 c9		 test	 ecx, ecx
  001fa	74 0c		 je	 SHORT $LN15@get_ka50_e
  001fc	c7 85 78 ff ff
	ff 08 00 00 00	 mov	 DWORD PTR tv177[ebp], 8
  00206	eb 24		 jmp	 SHORT $LN16@get_ka50_e
$LN15@get_ka50_e:
  00208	8b 15 00 00 00
	00		 mov	 edx, DWORD PTR ?__LINE__Var@?0??get_ka50_eo_relative_centred_viewpoint@@YGXPAUVIEWPOINT@@@Z@4JA
  0020e	83 c2 31	 add	 edx, 49			; 00000031H
  00211	52		 push	 edx
  00212	68 00 00 00 00	 push	 OFFSET ??_C@_0EL@HAHDNPP@c?3?2users?2nhv90?2projects?2eech?2ap@
  00217	a1 00 00 00 00	 mov	 eax, DWORD PTR ?overload_invalid_vec3d_type_message@@3PBDB ; overload_invalid_vec3d_type_message
  0021c	50		 push	 eax
  0021d	e8 00 00 00 00	 call	 ?process_assert@@YGXPBD0H@Z ; process_assert
  00222	c7 85 78 ff ff
	ff 00 00 00 00	 mov	 DWORD PTR tv177[ebp], 0
$LN16@get_ka50_e:
  0022c	8b 4d f8	 mov	 ecx, DWORD PTR _inst3d$[ebp]
  0022f	83 c1 08	 add	 ecx, 8
  00232	51		 push	 ecx
  00233	6a 08		 push	 8
  00235	8b 55 fc	 mov	 edx, DWORD PTR _source$[ebp]
  00238	52		 push	 edx
  00239	6b 85 7c ff ff
	ff 60		 imul	 eax, DWORD PTR tv169[ebp], 96
  00240	8b 8d 78 ff ff
	ff		 mov	 ecx, DWORD PTR tv177[ebp]
  00246	8b 94 88 00 00
	00 00		 mov	 edx, DWORD PTR ?fn_get_local_entity_vec3d@@3PAY0BI@P6GXPAUENTITY@@W4VEC3D_TYPES@@PAUVEC3D@@@ZA[eax+ecx*4]
  0024d	ff d2		 call	 edx

; 210  : }

  0024f	5f		 pop	 edi
  00250	5e		 pop	 esi
  00251	5b		 pop	 ebx
  00252	8b e5		 mov	 esp, ebp
  00254	5d		 pop	 ebp
  00255	c2 04 00	 ret	 4
?get_ka50_eo_relative_centred_viewpoint@@YGXPAUVIEWPOINT@@@Z ENDP ; get_ka50_eo_relative_centred_viewpoint
_TEXT	ENDS
; Function compile flags: /Odtp /ZI
; File c:\users\nhv90\projects\eech\aphavoc\source\gunships\avionics\ka50\hm_eo.c
;	COMDAT ?get_ka50_eo_centred_viewpoint@@YGXPAUVIEWPOINT@@@Z
_TEXT	SEGMENT
tv140 = -136						; size = 4
tv83 = -136						; size = 4
tv154 = -132						; size = 4
tv132 = -132						; size = 4
tv75 = -132						; size = 4
_search$ = -64						; size = 56
_inst3d$ = -8						; size = 4
_source$ = -4						; size = 4
_vp$ = 8						; size = 4
?get_ka50_eo_centred_viewpoint@@YGXPAUVIEWPOINT@@@Z PROC ; get_ka50_eo_centred_viewpoint, COMDAT

; 111  : {

  00000	55		 push	 ebp
  00001	8b ec		 mov	 ebp, esp
  00003	81 ec 88 00 00
	00		 sub	 esp, 136		; 00000088H
  00009	53		 push	 ebx
  0000a	56		 push	 esi
  0000b	57		 push	 edi

; 112  : 	entity
; 113  : 		*source;
; 114  : 
; 115  : 	object_3d_instance
; 116  : 		*inst3d;
; 117  : 
; 118  : 	object_3d_sub_object_search_data
; 119  : 		search;
; 120  : 
; 121  : 	ASSERT (vp);

  0000c	83 7d 08 00	 cmp	 DWORD PTR _vp$[ebp], 0
  00010	75 18		 jne	 SHORT $LN2@get_ka50_e
  00012	a1 00 00 00 00	 mov	 eax, DWORD PTR ?__LINE__Var@?0??get_ka50_eo_centred_viewpoint@@YGXPAUVIEWPOINT@@@Z@4JA
  00017	83 c0 0a	 add	 eax, 10			; 0000000aH
  0001a	50		 push	 eax
  0001b	68 00 00 00 00	 push	 OFFSET ??_C@_0EL@HAHDNPP@c?3?2users?2nhv90?2projects?2eech?2ap@
  00020	68 00 00 00 00	 push	 OFFSET ??_C@_02HPPNELPJ@vp@
  00025	e8 00 00 00 00	 call	 ?process_assert@@YGXPBD0H@Z ; process_assert
$LN2@get_ka50_e:

; 122  : 
; 123  : 	source = get_gunship_entity ();

  0002a	a1 00 00 00 00	 mov	 eax, DWORD PTR ?gunship_entity@@3PAUENTITY@@A ; gunship_entity
  0002f	89 45 fc	 mov	 DWORD PTR _source$[ebp], eax

; 124  : 
; 125  : 	inst3d = (object_3d_instance *) get_local_entity_ptr_value (source, PTR_TYPE_INSTANCE_3D_OBJECT);

  00032	83 7d fc 00	 cmp	 DWORD PTR _source$[ebp], 0
  00036	74 0d		 je	 SHORT $LN7@get_ka50_e
  00038	8b 45 fc	 mov	 eax, DWORD PTR _source$[ebp]
  0003b	8b 08		 mov	 ecx, DWORD PTR [eax]
  0003d	89 8d 7c ff ff
	ff		 mov	 DWORD PTR tv75[ebp], ecx
  00043	eb 24		 jmp	 SHORT $LN8@get_ka50_e
$LN7@get_ka50_e:
  00045	8b 15 00 00 00
	00		 mov	 edx, DWORD PTR ?__LINE__Var@?0??get_ka50_eo_centred_viewpoint@@YGXPAUVIEWPOINT@@@Z@4JA
  0004b	83 c2 0e	 add	 edx, 14			; 0000000eH
  0004e	52		 push	 edx
  0004f	68 00 00 00 00	 push	 OFFSET ??_C@_0EL@HAHDNPP@c?3?2users?2nhv90?2projects?2eech?2ap@
  00054	a1 00 00 00 00	 mov	 eax, DWORD PTR ?null_entity_pointer_message@@3PBDB ; null_entity_pointer_message
  00059	50		 push	 eax
  0005a	e8 00 00 00 00	 call	 ?process_assert@@YGXPBD0H@Z ; process_assert
  0005f	c7 85 7c ff ff
	ff 00 00 00 00	 mov	 DWORD PTR tv75[ebp], 0
$LN8@get_ka50_e:
  00069	b9 01 00 00 00	 mov	 ecx, 1
  0006e	85 c9		 test	 ecx, ecx
  00070	74 0c		 je	 SHORT $LN9@get_ka50_e
  00072	c7 85 78 ff ff
	ff 02 00 00 00	 mov	 DWORD PTR tv83[ebp], 2
  0007c	eb 24		 jmp	 SHORT $LN10@get_ka50_e
$LN9@get_ka50_e:
  0007e	8b 15 00 00 00
	00		 mov	 edx, DWORD PTR ?__LINE__Var@?0??get_ka50_eo_centred_viewpoint@@YGXPAUVIEWPOINT@@@Z@4JA
  00084	83 c2 0e	 add	 edx, 14			; 0000000eH
  00087	52		 push	 edx
  00088	68 00 00 00 00	 push	 OFFSET ??_C@_0EL@HAHDNPP@c?3?2users?2nhv90?2projects?2eech?2ap@
  0008d	a1 00 00 00 00	 mov	 eax, DWORD PTR ?overload_invalid_ptr_type_message@@3PBDB ; overload_invalid_ptr_type_message
  00092	50		 push	 eax
  00093	e8 00 00 00 00	 call	 ?process_assert@@YGXPBD0H@Z ; process_assert
  00098	c7 85 78 ff ff
	ff 00 00 00 00	 mov	 DWORD PTR tv83[ebp], 0
$LN10@get_ka50_e:
  000a2	6a 02		 push	 2
  000a4	8b 4d fc	 mov	 ecx, DWORD PTR _source$[ebp]
  000a7	51		 push	 ecx
  000a8	6b 95 7c ff ff
	ff 50		 imul	 edx, DWORD PTR tv75[ebp], 80
  000af	8b 85 78 ff ff
	ff		 mov	 eax, DWORD PTR tv83[ebp]
  000b5	8b 8c 82 00 00
	00 00		 mov	 ecx, DWORD PTR ?fn_get_local_entity_ptr_value@@3PAY0BE@P6GPAXPAUENTITY@@W4PTR_TYPES@@@ZA[edx+eax*4]
  000bc	ff d1		 call	 ecx
  000be	89 45 f8	 mov	 DWORD PTR _inst3d$[ebp], eax

; 126  : 
; 127  : 	ASSERT (inst3d);

  000c1	83 7d f8 00	 cmp	 DWORD PTR _inst3d$[ebp], 0
  000c5	75 18		 jne	 SHORT $LN3@get_ka50_e
  000c7	a1 00 00 00 00	 mov	 eax, DWORD PTR ?__LINE__Var@?0??get_ka50_eo_centred_viewpoint@@YGXPAUVIEWPOINT@@@Z@4JA
  000cc	83 c0 10	 add	 eax, 16			; 00000010H
  000cf	50		 push	 eax
  000d0	68 00 00 00 00	 push	 OFFSET ??_C@_0EL@HAHDNPP@c?3?2users?2nhv90?2projects?2eech?2ap@
  000d5	68 00 00 00 00	 push	 OFFSET ??_C@_06DDNABPCD@inst3d@
  000da	e8 00 00 00 00	 call	 ?process_assert@@YGXPBD0H@Z ; process_assert
$LN3@get_ka50_e:

; 128  : 
; 129  : 	get_local_entity_vec3d (source, VEC3D_TYPE_POSITION, &inst3d->vp.position);

  000df	83 7d fc 00	 cmp	 DWORD PTR _source$[ebp], 0
  000e3	74 0d		 je	 SHORT $LN11@get_ka50_e
  000e5	8b 45 fc	 mov	 eax, DWORD PTR _source$[ebp]
  000e8	8b 08		 mov	 ecx, DWORD PTR [eax]
  000ea	89 8d 7c ff ff
	ff		 mov	 DWORD PTR tv132[ebp], ecx
  000f0	eb 24		 jmp	 SHORT $LN12@get_ka50_e
$LN11@get_ka50_e:
  000f2	8b 15 00 00 00
	00		 mov	 edx, DWORD PTR ?__LINE__Var@?0??get_ka50_eo_centred_viewpoint@@YGXPAUVIEWPOINT@@@Z@4JA
  000f8	83 c2 12	 add	 edx, 18			; 00000012H
  000fb	52		 push	 edx
  000fc	68 00 00 00 00	 push	 OFFSET ??_C@_0EL@HAHDNPP@c?3?2users?2nhv90?2projects?2eech?2ap@
  00101	a1 00 00 00 00	 mov	 eax, DWORD PTR ?null_entity_pointer_message@@3PBDB ; null_entity_pointer_message
  00106	50		 push	 eax
  00107	e8 00 00 00 00	 call	 ?process_assert@@YGXPBD0H@Z ; process_assert
  0010c	c7 85 7c ff ff
	ff 00 00 00 00	 mov	 DWORD PTR tv132[ebp], 0
$LN12@get_ka50_e:
  00116	b9 01 00 00 00	 mov	 ecx, 1
  0011b	85 c9		 test	 ecx, ecx
  0011d	74 0c		 je	 SHORT $LN13@get_ka50_e
  0011f	c7 85 78 ff ff
	ff 08 00 00 00	 mov	 DWORD PTR tv140[ebp], 8
  00129	eb 24		 jmp	 SHORT $LN14@get_ka50_e
$LN13@get_ka50_e:
  0012b	8b 15 00 00 00
	00		 mov	 edx, DWORD PTR ?__LINE__Var@?0??get_ka50_eo_centred_viewpoint@@YGXPAUVIEWPOINT@@@Z@4JA
  00131	83 c2 12	 add	 edx, 18			; 00000012H
  00134	52		 push	 edx
  00135	68 00 00 00 00	 push	 OFFSET ??_C@_0EL@HAHDNPP@c?3?2users?2nhv90?2projects?2eech?2ap@
  0013a	a1 00 00 00 00	 mov	 eax, DWORD PTR ?overload_invalid_vec3d_type_message@@3PBDB ; overload_invalid_vec3d_type_message
  0013f	50		 push	 eax
  00140	e8 00 00 00 00	 call	 ?process_assert@@YGXPBD0H@Z ; process_assert
  00145	c7 85 78 ff ff
	ff 00 00 00 00	 mov	 DWORD PTR tv140[ebp], 0
$LN14@get_ka50_e:
  0014f	8b 4d f8	 mov	 ecx, DWORD PTR _inst3d$[ebp]
  00152	83 c1 08	 add	 ecx, 8
  00155	51		 push	 ecx
  00156	6a 08		 push	 8
  00158	8b 55 fc	 mov	 edx, DWORD PTR _source$[ebp]
  0015b	52		 push	 edx
  0015c	6b 85 7c ff ff
	ff 60		 imul	 eax, DWORD PTR tv132[ebp], 96
  00163	8b 8d 78 ff ff
	ff		 mov	 ecx, DWORD PTR tv140[ebp]
  00169	8b 94 88 00 00
	00 00		 mov	 edx, DWORD PTR ?fn_get_local_entity_vec3d@@3PAY0BI@P6GXPAUENTITY@@W4VEC3D_TYPES@@PAUVEC3D@@@ZA[eax+ecx*4]
  00170	ff d2		 call	 edx

; 130  : 
; 131  : 	get_local_entity_attitude_matrix (source, inst3d->vp.attitude);

  00172	83 7d fc 00	 cmp	 DWORD PTR _source$[ebp], 0
  00176	74 0d		 je	 SHORT $LN15@get_ka50_e
  00178	8b 45 fc	 mov	 eax, DWORD PTR _source$[ebp]
  0017b	8b 08		 mov	 ecx, DWORD PTR [eax]
  0017d	89 8d 7c ff ff
	ff		 mov	 DWORD PTR tv154[ebp], ecx
  00183	eb 24		 jmp	 SHORT $LN16@get_ka50_e
$LN15@get_ka50_e:
  00185	8b 15 00 00 00
	00		 mov	 edx, DWORD PTR ?__LINE__Var@?0??get_ka50_eo_centred_viewpoint@@YGXPAUVIEWPOINT@@@Z@4JA
  0018b	83 c2 14	 add	 edx, 20			; 00000014H
  0018e	52		 push	 edx
  0018f	68 00 00 00 00	 push	 OFFSET ??_C@_0EL@HAHDNPP@c?3?2users?2nhv90?2projects?2eech?2ap@
  00194	a1 00 00 00 00	 mov	 eax, DWORD PTR ?null_entity_pointer_message@@3PBDB ; null_entity_pointer_message
  00199	50		 push	 eax
  0019a	e8 00 00 00 00	 call	 ?process_assert@@YGXPBD0H@Z ; process_assert
  0019f	c7 85 7c ff ff
	ff 00 00 00 00	 mov	 DWORD PTR tv154[ebp], 0
$LN16@get_ka50_e:
  001a9	8b 4d f8	 mov	 ecx, DWORD PTR _inst3d$[ebp]
  001ac	83 c1 14	 add	 ecx, 20			; 00000014H
  001af	51		 push	 ecx
  001b0	8b 55 fc	 mov	 edx, DWORD PTR _source$[ebp]
  001b3	52		 push	 edx
  001b4	8b 85 7c ff ff
	ff		 mov	 eax, DWORD PTR tv154[ebp]
  001ba	8b 0c 85 00 00
	00 00		 mov	 ecx, DWORD PTR ?fn_get_local_entity_attitude_matrix@@3PAP6GXPAUENTITY@@QAY02M@ZA[eax*4]
  001c1	ff d1		 call	 ecx

; 132  : 
; 133  : 	search.search_depth = 0;

  001c3	c7 45 c8 00 00
	00 00		 mov	 DWORD PTR _search$[ebp+8], 0

; 134  : 	search.search_object = inst3d;

  001ca	8b 45 f8	 mov	 eax, DWORD PTR _inst3d$[ebp]
  001cd	89 45 c0	 mov	 DWORD PTR _search$[ebp], eax

; 135  : 	search.sub_object_index = OBJECT_3D_SUB_OBJECT_KA52_SAMSHIT_VIEWPOINT;

  001d0	c7 45 cc ec 00
	00 00		 mov	 DWORD PTR _search$[ebp+12], 236 ; 000000ecH

; 136  : 
; 137  : 	if (find_object_3d_sub_object (&search) == SUB_OBJECT_SEARCH_RESULT_OBJECT_FOUND)

  001d7	8d 45 c0	 lea	 eax, DWORD PTR _search$[ebp]
  001da	50		 push	 eax
  001db	e8 00 00 00 00	 call	 ?find_object_3d_sub_object@@YG?AW4SUB_OBJECT_SEARCH_RESULT_TYPES@@PAUOBJECT_3D_SUB_OBJECT_SEARCH_DATA@@@Z ; find_object_3d_sub_object
  001e0	83 f8 01	 cmp	 eax, 1
  001e3	75 0f		 jne	 SHORT $LN4@get_ka50_e

; 138  : 	{
; 139  : 		get_3d_sub_object_world_viewpoint (search.result_sub_object, vp);

  001e5	8b 45 08	 mov	 eax, DWORD PTR _vp$[ebp]
  001e8	50		 push	 eax
  001e9	8b 4d c4	 mov	 ecx, DWORD PTR _search$[ebp+4]
  001ec	51		 push	 ecx
  001ed	e8 00 00 00 00	 call	 ?get_3d_sub_object_world_viewpoint@@YGXPAUOBJECT_3D_SUB_INSTANCE@@PAUVIEWPOINT@@@Z ; get_3d_sub_object_world_viewpoint

; 140  : 	}
; 141  : 	else

  001f2	eb 22		 jmp	 SHORT $LN5@get_ka50_e
$LN4@get_ka50_e:

; 142  : 	{
; 143  : 		//
; 144  : 		// can happpen if the object is being destroyed
; 145  : 		//
; 146  : 
; 147  : 		memcpy (&vp->position, &inst3d->vp.position, sizeof (vec3d));

  001f4	6a 0c		 push	 12			; 0000000cH
  001f6	8b 45 f8	 mov	 eax, DWORD PTR _inst3d$[ebp]
  001f9	83 c0 08	 add	 eax, 8
  001fc	50		 push	 eax
  001fd	8b 4d 08	 mov	 ecx, DWORD PTR _vp$[ebp]
  00200	51		 push	 ecx
  00201	e8 00 00 00 00	 call	 _memcpy
  00206	83 c4 0c	 add	 esp, 12			; 0000000cH

; 148  : 
; 149  : 		debug_log ("OBJECT_3D_SUB_OBJECT_KA52_SAMSHIT_VIEWPOINT missing from Ka-50");

  00209	68 00 00 00 00	 push	 OFFSET ??_C@_0DP@GDECALJL@OBJECT_3D_SUB_OBJECT_KA52_SAMSH@
  0020e	e8 00 00 00 00	 call	 ?debug_log@@YAXPBDZZ	; debug_log
  00213	83 c4 04	 add	 esp, 4
$LN5@get_ka50_e:

; 150  : 	}
; 151  : 
; 152  : 	memcpy (&vp->attitude, &inst3d->vp.attitude, sizeof (matrix3x3));

  00216	6a 24		 push	 36			; 00000024H
  00218	8b 45 f8	 mov	 eax, DWORD PTR _inst3d$[ebp]
  0021b	83 c0 14	 add	 eax, 20			; 00000014H
  0021e	50		 push	 eax
  0021f	8b 4d 08	 mov	 ecx, DWORD PTR _vp$[ebp]
  00222	83 c1 0c	 add	 ecx, 12			; 0000000cH
  00225	51		 push	 ecx
  00226	e8 00 00 00 00	 call	 _memcpy
  0022b	83 c4 0c	 add	 esp, 12			; 0000000cH

; 153  : }

  0022e	5f		 pop	 edi
  0022f	5e		 pop	 esi
  00230	5b		 pop	 ebx
  00231	8b e5		 mov	 esp, ebp
  00233	5d		 pop	 ebp
  00234	c2 04 00	 ret	 4
?get_ka50_eo_centred_viewpoint@@YGXPAUVIEWPOINT@@@Z ENDP ; get_ka50_eo_centred_viewpoint
_TEXT	ENDS
; Function compile flags: /Odtp /ZI
; File c:\users\nhv90\projects\eech\aphavoc\source\gunships\avionics\ka50\hm_eo.c
;	COMDAT ?deinitialise_ka50_eo@@YGXXZ
_TEXT	SEGMENT
?deinitialise_ka50_eo@@YGXXZ PROC			; deinitialise_ka50_eo, COMDAT

; 103  : {

  00000	55		 push	 ebp
  00001	8b ec		 mov	 ebp, esp
  00003	83 ec 40	 sub	 esp, 64			; 00000040H
  00006	53		 push	 ebx
  00007	56		 push	 esi
  00008	57		 push	 edi

; 104  : }

  00009	5f		 pop	 edi
  0000a	5e		 pop	 esi
  0000b	5b		 pop	 ebx
  0000c	8b e5		 mov	 esp, ebp
  0000e	5d		 pop	 ebp
  0000f	c3		 ret	 0
?deinitialise_ka50_eo@@YGXXZ ENDP			; deinitialise_ka50_eo
_TEXT	ENDS
; Function compile flags: /Odtp /ZI
; File c:\users\nhv90\projects\eech\aphavoc\source\gunships\avionics\ka50\hm_eo.c
;	COMDAT ?initialise_ka50_eo@@YGXXZ
_TEXT	SEGMENT
?initialise_ka50_eo@@YGXXZ PROC				; initialise_ka50_eo, COMDAT

; 81   : {

  00000	55		 push	 ebp
  00001	8b ec		 mov	 ebp, esp
  00003	83 ec 40	 sub	 esp, 64			; 00000040H
  00006	53		 push	 ebx
  00007	56		 push	 esi
  00008	57		 push	 edi

; 82   : 	eo_sensor									= TARGET_ACQUISITION_SYSTEM_FLIR;

  00009	c7 05 00 00 00
	00 03 00 00 00	 mov	 DWORD PTR ?eo_sensor@@3W4TARGET_ACQUISITION_SYSTEMS@@A, 3 ; eo_sensor

; 83   : 
; 84   : 	eo_azimuth									= rad (0.0);

  00013	0f 57 c0	 xorps	 xmm0, xmm0
  00016	f3 0f 11 05 00
	00 00 00	 movss	 DWORD PTR ?eo_azimuth@@3MA, xmm0

; 85   : 	eo_min_azimuth								= rad (-70.0);

  0001e	f3 0f 10 05 00
	00 00 00	 movss	 xmm0, DWORD PTR __real@bf9c61aa
  00026	f3 0f 11 05 00
	00 00 00	 movss	 DWORD PTR ?eo_min_azimuth@@3MA, xmm0

; 86   : 	eo_max_azimuth								= rad (70.0);

  0002e	f3 0f 10 05 00
	00 00 00	 movss	 xmm0, DWORD PTR __real@3f9c61aa
  00036	f3 0f 11 05 00
	00 00 00	 movss	 DWORD PTR ?eo_max_azimuth@@3MA, xmm0

; 87   : 	eo_elevation								= rad (0.0);

  0003e	0f 57 c0	 xorps	 xmm0, xmm0
  00041	f3 0f 11 05 00
	00 00 00	 movss	 DWORD PTR ?eo_elevation@@3MA, xmm0

; 88   : 	eo_min_elevation							= rad (-15.0);

  00049	f3 0f 10 05 00
	00 00 00	 movss	 xmm0, DWORD PTR __real@be860a92
  00051	f3 0f 11 05 00
	00 00 00	 movss	 DWORD PTR ?eo_min_elevation@@3MA, xmm0

; 89   : 	eo_max_elevation							= rad (25.0);

  00059	f3 0f 10 05 00
	00 00 00	 movss	 xmm0, DWORD PTR __real@3edf66f3
  00061	f3 0f 11 05 00
	00 00 00	 movss	 DWORD PTR ?eo_max_elevation@@3MA, xmm0

; 90   : 	eo_max_visual_range						= 5000.0,

  00069	f3 0f 10 05 00
	00 00 00	 movss	 xmm0, DWORD PTR __real@459c4000
  00071	f3 0f 11 05 00
	00 00 00	 movss	 DWORD PTR ?eo_max_visual_range@@3MA, xmm0
  00079	c7 05 00 00 00
	00 00 00 00 00	 mov	 DWORD PTR ?eo_ground_stabilised@@3HA, 0 ; eo_ground_stabilised

; 91   : 	eo_ground_stabilised					= 0;
; 92   : 
; 93   : 	ka50_flir.zoom							= 1.0;

  00083	f3 0f 10 05 00
	00 00 00	 movss	 xmm0, DWORD PTR __real@3f800000
  0008b	f3 0f 11 05 00
	00 00 00	 movss	 DWORD PTR ?ka50_flir@@3UEO_PARAMS_DYNAMIC_MOVE@@A, xmm0

; 94   : 	ka50_flir.min_zoom						= 1.0;

  00093	f3 0f 10 05 00
	00 00 00	 movss	 xmm0, DWORD PTR __real@3f800000
  0009b	f3 0f 11 05 04
	00 00 00	 movss	 DWORD PTR ?ka50_flir@@3UEO_PARAMS_DYNAMIC_MOVE@@A+4, xmm0

; 95   : 	ka50_flir.max_zoom						= 1.0 / 128.0;

  000a3	f3 0f 10 05 00
	00 00 00	 movss	 xmm0, DWORD PTR __real@3c000000
  000ab	f3 0f 11 05 08
	00 00 00	 movss	 DWORD PTR ?ka50_flir@@3UEO_PARAMS_DYNAMIC_MOVE@@A+8, xmm0

; 96   : };

  000b3	5f		 pop	 edi
  000b4	5e		 pop	 esi
  000b5	5b		 pop	 ebx
  000b6	8b e5		 mov	 esp, ebp
  000b8	5d		 pop	 ebp
  000b9	c3		 ret	 0
?initialise_ka50_eo@@YGXXZ ENDP				; initialise_ka50_eo
_TEXT	ENDS
END
