; Listing generated by Microsoft (R) Optimizing Compiler Version 19.16.27045.0 

	TITLE	C:\Users\nhv90\Projects\eech\aphavoc\source\gunships\cockpits\ka50\hm_lamps.c
	.686P
	.XMM
	include listing.inc
	.model	flat

INCLUDELIB MSVCRTD
INCLUDELIB OLDNAMES

PUBLIC	?ka50_lamps@@3UKA50_LAMP_FLAGS@@A		; ka50_lamps
_BSS	SEGMENT
?ka50_lamps@@3UKA50_LAMP_FLAGS@@A DB 0cH DUP (?)	; ka50_lamps
_BSS	ENDS
PUBLIC	?initialise_ka50_lamps@@YGXXZ			; initialise_ka50_lamps
PUBLIC	?deinitialise_ka50_lamps@@YGXXZ			; deinitialise_ka50_lamps
PUBLIC	?draw_ka50_virtual_cockpit_lamps@@YGXXZ		; draw_ka50_virtual_cockpit_lamps
PUBLIC	?__LINE__Var@?0??draw_ka50_virtual_cockpit_lamps@@YGXXZ@4JA ; `draw_ka50_virtual_cockpit_lamps'::`1'::__LINE__Var
PUBLIC	??_C@_0EO@GCJNONMG@c?3?2users?2nhv90?2projects?2eech?2ap@ ; `string'
PUBLIC	??_C@_0BH@OJOOJLIP@virtual_cockpit_inst3d@	; `string'
EXTRN	_memset:PROC
EXTRN	?process_assert@@YGXPBD0H@Z:PROC		; process_assert
EXTRN	?set_texture_animation_frame_on_object@@YGHPAUOBJECT_3D_INSTANCE@@W4TEXTURE_ANIMATION_INDICES@@H@Z:PROC ; set_texture_animation_frame_on_object
EXTRN	?virtual_cockpit_inst3d@@3PAUOBJECT_3D_INSTANCE@@A:DWORD ; virtual_cockpit_inst3d
;	COMDAT ??_C@_0BH@OJOOJLIP@virtual_cockpit_inst3d@
CONST	SEGMENT
??_C@_0BH@OJOOJLIP@virtual_cockpit_inst3d@ DB 'virtual_cockpit_inst3d', 00H ; `string'
CONST	ENDS
;	COMDAT ??_C@_0EO@GCJNONMG@c?3?2users?2nhv90?2projects?2eech?2ap@
CONST	SEGMENT
??_C@_0EO@GCJNONMG@c?3?2users?2nhv90?2projects?2eech?2ap@ DB 'c:\users\nh'
	DB	'v90\projects\eech\aphavoc\source\gunships\cockpits\ka50\hm_la'
	DB	'mps.c', 00H					; `string'
CONST	ENDS
;	COMDAT ?__LINE__Var@?0??draw_ka50_virtual_cockpit_lamps@@YGXXZ@4JA
_DATA	SEGMENT
?__LINE__Var@?0??draw_ka50_virtual_cockpit_lamps@@YGXXZ@4JA DD 078H ; `draw_ka50_virtual_cockpit_lamps'::`1'::__LINE__Var
_DATA	ENDS
; Function compile flags: /Odtp /ZI
; File c:\users\nhv90\projects\eech\aphavoc\source\gunships\cockpits\ka50\hm_lamps.c
;	COMDAT ?draw_ka50_virtual_cockpit_lamps@@YGXXZ
_TEXT	SEGMENT
?draw_ka50_virtual_cockpit_lamps@@YGXXZ PROC		; draw_ka50_virtual_cockpit_lamps, COMDAT

; 120  : {

  00000	55		 push	 ebp
  00001	8b ec		 mov	 ebp, esp
  00003	83 ec 40	 sub	 esp, 64			; 00000040H
  00006	53		 push	 ebx
  00007	56		 push	 esi
  00008	57		 push	 edi

; 121  : 	ASSERT (virtual_cockpit_inst3d);

  00009	83 3d 00 00 00
	00 00		 cmp	 DWORD PTR ?virtual_cockpit_inst3d@@3PAUOBJECT_3D_INSTANCE@@A, 0 ; virtual_cockpit_inst3d
  00010	75 18		 jne	 SHORT $LN2@draw_ka50_
  00012	a1 00 00 00 00	 mov	 eax, DWORD PTR ?__LINE__Var@?0??draw_ka50_virtual_cockpit_lamps@@YGXXZ@4JA
  00017	83 c0 01	 add	 eax, 1
  0001a	50		 push	 eax
  0001b	68 00 00 00 00	 push	 OFFSET ??_C@_0EO@GCJNONMG@c?3?2users?2nhv90?2projects?2eech?2ap@
  00020	68 00 00 00 00	 push	 OFFSET ??_C@_0BH@OJOOJLIP@virtual_cockpit_inst3d@
  00025	e8 00 00 00 00	 call	 ?process_assert@@YGXPBD0H@Z ; process_assert
$LN2@draw_ka50_:

; 122  : 
; 123  : 	draw_lamp (ka50_lamps.master_caution, TEXTURE_ANIMATION_INDEX_HOKUM_COCKPIT_LAMP__022);

  0002a	a1 00 00 00 00	 mov	 eax, DWORD PTR ?ka50_lamps@@3UKA50_LAMP_FLAGS@@A
  0002f	83 e0 01	 and	 eax, 1
  00032	74 11		 je	 SHORT $LN3@draw_ka50_
  00034	6a 01		 push	 1
  00036	6a 3e		 push	 62			; 0000003eH
  00038	a1 00 00 00 00	 mov	 eax, DWORD PTR ?virtual_cockpit_inst3d@@3PAUOBJECT_3D_INSTANCE@@A ; virtual_cockpit_inst3d
  0003d	50		 push	 eax
  0003e	e8 00 00 00 00	 call	 ?set_texture_animation_frame_on_object@@YGHPAUOBJECT_3D_INSTANCE@@W4TEXTURE_ANIMATION_INDICES@@H@Z ; set_texture_animation_frame_on_object
  00043	eb 0f		 jmp	 SHORT $LN4@draw_ka50_
$LN3@draw_ka50_:
  00045	6a 00		 push	 0
  00047	6a 3e		 push	 62			; 0000003eH
  00049	a1 00 00 00 00	 mov	 eax, DWORD PTR ?virtual_cockpit_inst3d@@3PAUOBJECT_3D_INSTANCE@@A ; virtual_cockpit_inst3d
  0004e	50		 push	 eax
  0004f	e8 00 00 00 00	 call	 ?set_texture_animation_frame_on_object@@YGHPAUOBJECT_3D_INSTANCE@@W4TEXTURE_ANIMATION_INDICES@@H@Z ; set_texture_animation_frame_on_object
$LN4@draw_ka50_:

; 124  : 
; 125  : 	draw_lamp (ka50_lamps.left_engine_fire, TEXTURE_ANIMATION_INDEX_HOKUM_COCKPIT_LAMP__019);

  00054	a1 00 00 00 00	 mov	 eax, DWORD PTR ?ka50_lamps@@3UKA50_LAMP_FLAGS@@A
  00059	d1 e8		 shr	 eax, 1
  0005b	83 e0 01	 and	 eax, 1
  0005e	74 11		 je	 SHORT $LN5@draw_ka50_
  00060	6a 01		 push	 1
  00062	6a 3f		 push	 63			; 0000003fH
  00064	a1 00 00 00 00	 mov	 eax, DWORD PTR ?virtual_cockpit_inst3d@@3PAUOBJECT_3D_INSTANCE@@A ; virtual_cockpit_inst3d
  00069	50		 push	 eax
  0006a	e8 00 00 00 00	 call	 ?set_texture_animation_frame_on_object@@YGHPAUOBJECT_3D_INSTANCE@@W4TEXTURE_ANIMATION_INDICES@@H@Z ; set_texture_animation_frame_on_object
  0006f	eb 0f		 jmp	 SHORT $LN6@draw_ka50_
$LN5@draw_ka50_:
  00071	6a 00		 push	 0
  00073	6a 3f		 push	 63			; 0000003fH
  00075	a1 00 00 00 00	 mov	 eax, DWORD PTR ?virtual_cockpit_inst3d@@3PAUOBJECT_3D_INSTANCE@@A ; virtual_cockpit_inst3d
  0007a	50		 push	 eax
  0007b	e8 00 00 00 00	 call	 ?set_texture_animation_frame_on_object@@YGHPAUOBJECT_3D_INSTANCE@@W4TEXTURE_ANIMATION_INDICES@@H@Z ; set_texture_animation_frame_on_object
$LN6@draw_ka50_:

; 126  : 
; 127  : 	draw_lamp (ka50_lamps.apu_fire, TEXTURE_ANIMATION_INDEX_HOKUM_COCKPIT_LAMP__020);

  00080	a1 00 00 00 00	 mov	 eax, DWORD PTR ?ka50_lamps@@3UKA50_LAMP_FLAGS@@A
  00085	c1 e8 02	 shr	 eax, 2
  00088	83 e0 01	 and	 eax, 1
  0008b	74 11		 je	 SHORT $LN7@draw_ka50_
  0008d	6a 01		 push	 1
  0008f	6a 40		 push	 64			; 00000040H
  00091	a1 00 00 00 00	 mov	 eax, DWORD PTR ?virtual_cockpit_inst3d@@3PAUOBJECT_3D_INSTANCE@@A ; virtual_cockpit_inst3d
  00096	50		 push	 eax
  00097	e8 00 00 00 00	 call	 ?set_texture_animation_frame_on_object@@YGHPAUOBJECT_3D_INSTANCE@@W4TEXTURE_ANIMATION_INDICES@@H@Z ; set_texture_animation_frame_on_object
  0009c	eb 0f		 jmp	 SHORT $LN8@draw_ka50_
$LN7@draw_ka50_:
  0009e	6a 00		 push	 0
  000a0	6a 40		 push	 64			; 00000040H
  000a2	a1 00 00 00 00	 mov	 eax, DWORD PTR ?virtual_cockpit_inst3d@@3PAUOBJECT_3D_INSTANCE@@A ; virtual_cockpit_inst3d
  000a7	50		 push	 eax
  000a8	e8 00 00 00 00	 call	 ?set_texture_animation_frame_on_object@@YGHPAUOBJECT_3D_INSTANCE@@W4TEXTURE_ANIMATION_INDICES@@H@Z ; set_texture_animation_frame_on_object
$LN8@draw_ka50_:

; 128  : 
; 129  : 	draw_lamp (ka50_lamps.right_engine_fire, TEXTURE_ANIMATION_INDEX_HOKUM_COCKPIT_LAMP__021);

  000ad	a1 00 00 00 00	 mov	 eax, DWORD PTR ?ka50_lamps@@3UKA50_LAMP_FLAGS@@A
  000b2	c1 e8 03	 shr	 eax, 3
  000b5	83 e0 01	 and	 eax, 1
  000b8	74 11		 je	 SHORT $LN9@draw_ka50_
  000ba	6a 01		 push	 1
  000bc	6a 3d		 push	 61			; 0000003dH
  000be	a1 00 00 00 00	 mov	 eax, DWORD PTR ?virtual_cockpit_inst3d@@3PAUOBJECT_3D_INSTANCE@@A ; virtual_cockpit_inst3d
  000c3	50		 push	 eax
  000c4	e8 00 00 00 00	 call	 ?set_texture_animation_frame_on_object@@YGHPAUOBJECT_3D_INSTANCE@@W4TEXTURE_ANIMATION_INDICES@@H@Z ; set_texture_animation_frame_on_object
  000c9	eb 0f		 jmp	 SHORT $LN10@draw_ka50_
$LN9@draw_ka50_:
  000cb	6a 00		 push	 0
  000cd	6a 3d		 push	 61			; 0000003dH
  000cf	a1 00 00 00 00	 mov	 eax, DWORD PTR ?virtual_cockpit_inst3d@@3PAUOBJECT_3D_INSTANCE@@A ; virtual_cockpit_inst3d
  000d4	50		 push	 eax
  000d5	e8 00 00 00 00	 call	 ?set_texture_animation_frame_on_object@@YGHPAUOBJECT_3D_INSTANCE@@W4TEXTURE_ANIMATION_INDICES@@H@Z ; set_texture_animation_frame_on_object
$LN10@draw_ka50_:

; 130  : 
; 131  : 	draw_lamp (ka50_lamps.fire_extinguiser, TEXTURE_ANIMATION_INDEX_HOKUM_COCKPIT_LAMP__018);

  000da	a1 00 00 00 00	 mov	 eax, DWORD PTR ?ka50_lamps@@3UKA50_LAMP_FLAGS@@A
  000df	c1 e8 04	 shr	 eax, 4
  000e2	83 e0 01	 and	 eax, 1
  000e5	74 11		 je	 SHORT $LN11@draw_ka50_
  000e7	6a 01		 push	 1
  000e9	6a 3c		 push	 60			; 0000003cH
  000eb	a1 00 00 00 00	 mov	 eax, DWORD PTR ?virtual_cockpit_inst3d@@3PAUOBJECT_3D_INSTANCE@@A ; virtual_cockpit_inst3d
  000f0	50		 push	 eax
  000f1	e8 00 00 00 00	 call	 ?set_texture_animation_frame_on_object@@YGHPAUOBJECT_3D_INSTANCE@@W4TEXTURE_ANIMATION_INDICES@@H@Z ; set_texture_animation_frame_on_object
  000f6	eb 0f		 jmp	 SHORT $LN12@draw_ka50_
$LN11@draw_ka50_:
  000f8	6a 00		 push	 0
  000fa	6a 3c		 push	 60			; 0000003cH
  000fc	a1 00 00 00 00	 mov	 eax, DWORD PTR ?virtual_cockpit_inst3d@@3PAUOBJECT_3D_INSTANCE@@A ; virtual_cockpit_inst3d
  00101	50		 push	 eax
  00102	e8 00 00 00 00	 call	 ?set_texture_animation_frame_on_object@@YGHPAUOBJECT_3D_INSTANCE@@W4TEXTURE_ANIMATION_INDICES@@H@Z ; set_texture_animation_frame_on_object
$LN12@draw_ka50_:

; 132  : 
; 133  : 	draw_lamp (ka50_lamps.hydraulic_pressure, TEXTURE_ANIMATION_INDEX_HOKUM_COCKPIT_LAMP__003);

  00107	a1 00 00 00 00	 mov	 eax, DWORD PTR ?ka50_lamps@@3UKA50_LAMP_FLAGS@@A
  0010c	c1 e8 05	 shr	 eax, 5
  0010f	83 e0 01	 and	 eax, 1
  00112	74 11		 je	 SHORT $LN13@draw_ka50_
  00114	6a 01		 push	 1
  00116	6a 4a		 push	 74			; 0000004aH
  00118	a1 00 00 00 00	 mov	 eax, DWORD PTR ?virtual_cockpit_inst3d@@3PAUOBJECT_3D_INSTANCE@@A ; virtual_cockpit_inst3d
  0011d	50		 push	 eax
  0011e	e8 00 00 00 00	 call	 ?set_texture_animation_frame_on_object@@YGHPAUOBJECT_3D_INSTANCE@@W4TEXTURE_ANIMATION_INDICES@@H@Z ; set_texture_animation_frame_on_object
  00123	eb 0f		 jmp	 SHORT $LN14@draw_ka50_
$LN13@draw_ka50_:
  00125	6a 00		 push	 0
  00127	6a 4a		 push	 74			; 0000004aH
  00129	a1 00 00 00 00	 mov	 eax, DWORD PTR ?virtual_cockpit_inst3d@@3PAUOBJECT_3D_INSTANCE@@A ; virtual_cockpit_inst3d
  0012e	50		 push	 eax
  0012f	e8 00 00 00 00	 call	 ?set_texture_animation_frame_on_object@@YGHPAUOBJECT_3D_INSTANCE@@W4TEXTURE_ANIMATION_INDICES@@H@Z ; set_texture_animation_frame_on_object
$LN14@draw_ka50_:

; 134  : 
; 135  : 	draw_lamp (ka50_lamps.oil_pressure, TEXTURE_ANIMATION_INDEX_HOKUM_COCKPIT_LAMP__004);

  00134	a1 00 00 00 00	 mov	 eax, DWORD PTR ?ka50_lamps@@3UKA50_LAMP_FLAGS@@A
  00139	c1 e8 06	 shr	 eax, 6
  0013c	83 e0 01	 and	 eax, 1
  0013f	74 11		 je	 SHORT $LN15@draw_ka50_
  00141	6a 01		 push	 1
  00143	6a 54		 push	 84			; 00000054H
  00145	a1 00 00 00 00	 mov	 eax, DWORD PTR ?virtual_cockpit_inst3d@@3PAUOBJECT_3D_INSTANCE@@A ; virtual_cockpit_inst3d
  0014a	50		 push	 eax
  0014b	e8 00 00 00 00	 call	 ?set_texture_animation_frame_on_object@@YGHPAUOBJECT_3D_INSTANCE@@W4TEXTURE_ANIMATION_INDICES@@H@Z ; set_texture_animation_frame_on_object
  00150	eb 0f		 jmp	 SHORT $LN16@draw_ka50_
$LN15@draw_ka50_:
  00152	6a 00		 push	 0
  00154	6a 54		 push	 84			; 00000054H
  00156	a1 00 00 00 00	 mov	 eax, DWORD PTR ?virtual_cockpit_inst3d@@3PAUOBJECT_3D_INSTANCE@@A ; virtual_cockpit_inst3d
  0015b	50		 push	 eax
  0015c	e8 00 00 00 00	 call	 ?set_texture_animation_frame_on_object@@YGHPAUOBJECT_3D_INSTANCE@@W4TEXTURE_ANIMATION_INDICES@@H@Z ; set_texture_animation_frame_on_object
$LN16@draw_ka50_:

; 136  : 
; 137  : 	draw_lamp (ka50_lamps.oil_temperature, TEXTURE_ANIMATION_INDEX_HOKUM_COCKPIT_LAMP__005);

  00161	a1 00 00 00 00	 mov	 eax, DWORD PTR ?ka50_lamps@@3UKA50_LAMP_FLAGS@@A
  00166	c1 e8 07	 shr	 eax, 7
  00169	83 e0 01	 and	 eax, 1
  0016c	74 11		 je	 SHORT $LN17@draw_ka50_
  0016e	6a 01		 push	 1
  00170	6a 45		 push	 69			; 00000045H
  00172	a1 00 00 00 00	 mov	 eax, DWORD PTR ?virtual_cockpit_inst3d@@3PAUOBJECT_3D_INSTANCE@@A ; virtual_cockpit_inst3d
  00177	50		 push	 eax
  00178	e8 00 00 00 00	 call	 ?set_texture_animation_frame_on_object@@YGHPAUOBJECT_3D_INSTANCE@@W4TEXTURE_ANIMATION_INDICES@@H@Z ; set_texture_animation_frame_on_object
  0017d	eb 0f		 jmp	 SHORT $LN18@draw_ka50_
$LN17@draw_ka50_:
  0017f	6a 00		 push	 0
  00181	6a 45		 push	 69			; 00000045H
  00183	a1 00 00 00 00	 mov	 eax, DWORD PTR ?virtual_cockpit_inst3d@@3PAUOBJECT_3D_INSTANCE@@A ; virtual_cockpit_inst3d
  00188	50		 push	 eax
  00189	e8 00 00 00 00	 call	 ?set_texture_animation_frame_on_object@@YGHPAUOBJECT_3D_INSTANCE@@W4TEXTURE_ANIMATION_INDICES@@H@Z ; set_texture_animation_frame_on_object
$LN18@draw_ka50_:

; 138  : 
; 139  : 	draw_lamp (ka50_lamps.overtorque, TEXTURE_ANIMATION_INDEX_HOKUM_COCKPIT_LAMP__000);

  0018e	a1 00 00 00 00	 mov	 eax, DWORD PTR ?ka50_lamps@@3UKA50_LAMP_FLAGS@@A
  00193	c1 e8 08	 shr	 eax, 8
  00196	83 e0 01	 and	 eax, 1
  00199	74 11		 je	 SHORT $LN19@draw_ka50_
  0019b	6a 01		 push	 1
  0019d	6a 48		 push	 72			; 00000048H
  0019f	a1 00 00 00 00	 mov	 eax, DWORD PTR ?virtual_cockpit_inst3d@@3PAUOBJECT_3D_INSTANCE@@A ; virtual_cockpit_inst3d
  001a4	50		 push	 eax
  001a5	e8 00 00 00 00	 call	 ?set_texture_animation_frame_on_object@@YGHPAUOBJECT_3D_INSTANCE@@W4TEXTURE_ANIMATION_INDICES@@H@Z ; set_texture_animation_frame_on_object
  001aa	eb 0f		 jmp	 SHORT $LN20@draw_ka50_
$LN19@draw_ka50_:
  001ac	6a 00		 push	 0
  001ae	6a 48		 push	 72			; 00000048H
  001b0	a1 00 00 00 00	 mov	 eax, DWORD PTR ?virtual_cockpit_inst3d@@3PAUOBJECT_3D_INSTANCE@@A ; virtual_cockpit_inst3d
  001b5	50		 push	 eax
  001b6	e8 00 00 00 00	 call	 ?set_texture_animation_frame_on_object@@YGHPAUOBJECT_3D_INSTANCE@@W4TEXTURE_ANIMATION_INDICES@@H@Z ; set_texture_animation_frame_on_object
$LN20@draw_ka50_:

; 140  : 
; 141  : 	draw_lamp (ka50_lamps.rotor_rpm, TEXTURE_ANIMATION_INDEX_HOKUM_COCKPIT_LAMP__001);

  001bb	a1 00 00 00 00	 mov	 eax, DWORD PTR ?ka50_lamps@@3UKA50_LAMP_FLAGS@@A
  001c0	c1 e8 09	 shr	 eax, 9
  001c3	83 e0 01	 and	 eax, 1
  001c6	74 11		 je	 SHORT $LN21@draw_ka50_
  001c8	6a 01		 push	 1
  001ca	6a 50		 push	 80			; 00000050H
  001cc	a1 00 00 00 00	 mov	 eax, DWORD PTR ?virtual_cockpit_inst3d@@3PAUOBJECT_3D_INSTANCE@@A ; virtual_cockpit_inst3d
  001d1	50		 push	 eax
  001d2	e8 00 00 00 00	 call	 ?set_texture_animation_frame_on_object@@YGHPAUOBJECT_3D_INSTANCE@@W4TEXTURE_ANIMATION_INDICES@@H@Z ; set_texture_animation_frame_on_object
  001d7	eb 0f		 jmp	 SHORT $LN22@draw_ka50_
$LN21@draw_ka50_:
  001d9	6a 00		 push	 0
  001db	6a 50		 push	 80			; 00000050H
  001dd	a1 00 00 00 00	 mov	 eax, DWORD PTR ?virtual_cockpit_inst3d@@3PAUOBJECT_3D_INSTANCE@@A ; virtual_cockpit_inst3d
  001e2	50		 push	 eax
  001e3	e8 00 00 00 00	 call	 ?set_texture_animation_frame_on_object@@YGHPAUOBJECT_3D_INSTANCE@@W4TEXTURE_ANIMATION_INDICES@@H@Z ; set_texture_animation_frame_on_object
$LN22@draw_ka50_:

; 142  : 
; 143  : 	draw_lamp (ka50_lamps.fuel_low, TEXTURE_ANIMATION_INDEX_HOKUM_COCKPIT_LAMP__002);

  001e8	a1 00 00 00 00	 mov	 eax, DWORD PTR ?ka50_lamps@@3UKA50_LAMP_FLAGS@@A
  001ed	c1 e8 0a	 shr	 eax, 10			; 0000000aH
  001f0	83 e0 01	 and	 eax, 1
  001f3	74 11		 je	 SHORT $LN23@draw_ka50_
  001f5	6a 01		 push	 1
  001f7	6a 4d		 push	 77			; 0000004dH
  001f9	a1 00 00 00 00	 mov	 eax, DWORD PTR ?virtual_cockpit_inst3d@@3PAUOBJECT_3D_INSTANCE@@A ; virtual_cockpit_inst3d
  001fe	50		 push	 eax
  001ff	e8 00 00 00 00	 call	 ?set_texture_animation_frame_on_object@@YGHPAUOBJECT_3D_INSTANCE@@W4TEXTURE_ANIMATION_INDICES@@H@Z ; set_texture_animation_frame_on_object
  00204	eb 0f		 jmp	 SHORT $LN24@draw_ka50_
$LN23@draw_ka50_:
  00206	6a 00		 push	 0
  00208	6a 4d		 push	 77			; 0000004dH
  0020a	a1 00 00 00 00	 mov	 eax, DWORD PTR ?virtual_cockpit_inst3d@@3PAUOBJECT_3D_INSTANCE@@A ; virtual_cockpit_inst3d
  0020f	50		 push	 eax
  00210	e8 00 00 00 00	 call	 ?set_texture_animation_frame_on_object@@YGHPAUOBJECT_3D_INSTANCE@@W4TEXTURE_ANIMATION_INDICES@@H@Z ; set_texture_animation_frame_on_object
$LN24@draw_ka50_:

; 144  : 
; 145  : 	draw_lamp (ka50_lamps.rotor_brake, TEXTURE_ANIMATION_INDEX_HOKUM_COCKPIT_LAMP__006);

  00215	a1 00 00 00 00	 mov	 eax, DWORD PTR ?ka50_lamps@@3UKA50_LAMP_FLAGS@@A
  0021a	c1 e8 0b	 shr	 eax, 11			; 0000000bH
  0021d	83 e0 01	 and	 eax, 1
  00220	74 11		 je	 SHORT $LN25@draw_ka50_
  00222	6a 01		 push	 1
  00224	6a 49		 push	 73			; 00000049H
  00226	a1 00 00 00 00	 mov	 eax, DWORD PTR ?virtual_cockpit_inst3d@@3PAUOBJECT_3D_INSTANCE@@A ; virtual_cockpit_inst3d
  0022b	50		 push	 eax
  0022c	e8 00 00 00 00	 call	 ?set_texture_animation_frame_on_object@@YGHPAUOBJECT_3D_INSTANCE@@W4TEXTURE_ANIMATION_INDICES@@H@Z ; set_texture_animation_frame_on_object
  00231	eb 0f		 jmp	 SHORT $LN26@draw_ka50_
$LN25@draw_ka50_:
  00233	6a 00		 push	 0
  00235	6a 49		 push	 73			; 00000049H
  00237	a1 00 00 00 00	 mov	 eax, DWORD PTR ?virtual_cockpit_inst3d@@3PAUOBJECT_3D_INSTANCE@@A ; virtual_cockpit_inst3d
  0023c	50		 push	 eax
  0023d	e8 00 00 00 00	 call	 ?set_texture_animation_frame_on_object@@YGHPAUOBJECT_3D_INSTANCE@@W4TEXTURE_ANIMATION_INDICES@@H@Z ; set_texture_animation_frame_on_object
$LN26@draw_ka50_:

; 146  : 
; 147  : 	draw_lamp (ka50_lamps.wheel_brake, TEXTURE_ANIMATION_INDEX_HOKUM_COCKPIT_LAMP__007);

  00242	a1 00 00 00 00	 mov	 eax, DWORD PTR ?ka50_lamps@@3UKA50_LAMP_FLAGS@@A
  00247	c1 e8 0c	 shr	 eax, 12			; 0000000cH
  0024a	83 e0 01	 and	 eax, 1
  0024d	74 11		 je	 SHORT $LN27@draw_ka50_
  0024f	6a 01		 push	 1
  00251	6a 52		 push	 82			; 00000052H
  00253	a1 00 00 00 00	 mov	 eax, DWORD PTR ?virtual_cockpit_inst3d@@3PAUOBJECT_3D_INSTANCE@@A ; virtual_cockpit_inst3d
  00258	50		 push	 eax
  00259	e8 00 00 00 00	 call	 ?set_texture_animation_frame_on_object@@YGHPAUOBJECT_3D_INSTANCE@@W4TEXTURE_ANIMATION_INDICES@@H@Z ; set_texture_animation_frame_on_object
  0025e	eb 0f		 jmp	 SHORT $LN28@draw_ka50_
$LN27@draw_ka50_:
  00260	6a 00		 push	 0
  00262	6a 52		 push	 82			; 00000052H
  00264	a1 00 00 00 00	 mov	 eax, DWORD PTR ?virtual_cockpit_inst3d@@3PAUOBJECT_3D_INSTANCE@@A ; virtual_cockpit_inst3d
  00269	50		 push	 eax
  0026a	e8 00 00 00 00	 call	 ?set_texture_animation_frame_on_object@@YGHPAUOBJECT_3D_INSTANCE@@W4TEXTURE_ANIMATION_INDICES@@H@Z ; set_texture_animation_frame_on_object
$LN28@draw_ka50_:

; 148  : 
; 149  : 	draw_lamp (ka50_lamps.navigation_lights, TEXTURE_ANIMATION_INDEX_HOKUM_COCKPIT_LAMP__008);

  0026f	a1 00 00 00 00	 mov	 eax, DWORD PTR ?ka50_lamps@@3UKA50_LAMP_FLAGS@@A
  00274	c1 e8 0d	 shr	 eax, 13			; 0000000dH
  00277	83 e0 01	 and	 eax, 1
  0027a	74 11		 je	 SHORT $LN29@draw_ka50_
  0027c	6a 01		 push	 1
  0027e	6a 4f		 push	 79			; 0000004fH
  00280	a1 00 00 00 00	 mov	 eax, DWORD PTR ?virtual_cockpit_inst3d@@3PAUOBJECT_3D_INSTANCE@@A ; virtual_cockpit_inst3d
  00285	50		 push	 eax
  00286	e8 00 00 00 00	 call	 ?set_texture_animation_frame_on_object@@YGHPAUOBJECT_3D_INSTANCE@@W4TEXTURE_ANIMATION_INDICES@@H@Z ; set_texture_animation_frame_on_object
  0028b	eb 0f		 jmp	 SHORT $LN30@draw_ka50_
$LN29@draw_ka50_:
  0028d	6a 00		 push	 0
  0028f	6a 4f		 push	 79			; 0000004fH
  00291	a1 00 00 00 00	 mov	 eax, DWORD PTR ?virtual_cockpit_inst3d@@3PAUOBJECT_3D_INSTANCE@@A ; virtual_cockpit_inst3d
  00296	50		 push	 eax
  00297	e8 00 00 00 00	 call	 ?set_texture_animation_frame_on_object@@YGHPAUOBJECT_3D_INSTANCE@@W4TEXTURE_ANIMATION_INDICES@@H@Z ; set_texture_animation_frame_on_object
$LN30@draw_ka50_:

; 150  : 
; 151  : 	draw_lamp (ka50_lamps.hover_hold, TEXTURE_ANIMATION_INDEX_HOKUM_COCKPIT_LAMP__009);

  0029c	a1 00 00 00 00	 mov	 eax, DWORD PTR ?ka50_lamps@@3UKA50_LAMP_FLAGS@@A
  002a1	c1 e8 0e	 shr	 eax, 14			; 0000000eH
  002a4	83 e0 01	 and	 eax, 1
  002a7	74 11		 je	 SHORT $LN31@draw_ka50_
  002a9	6a 01		 push	 1
  002ab	6a 4c		 push	 76			; 0000004cH
  002ad	a1 00 00 00 00	 mov	 eax, DWORD PTR ?virtual_cockpit_inst3d@@3PAUOBJECT_3D_INSTANCE@@A ; virtual_cockpit_inst3d
  002b2	50		 push	 eax
  002b3	e8 00 00 00 00	 call	 ?set_texture_animation_frame_on_object@@YGHPAUOBJECT_3D_INSTANCE@@W4TEXTURE_ANIMATION_INDICES@@H@Z ; set_texture_animation_frame_on_object
  002b8	eb 0f		 jmp	 SHORT $LN32@draw_ka50_
$LN31@draw_ka50_:
  002ba	6a 00		 push	 0
  002bc	6a 4c		 push	 76			; 0000004cH
  002be	a1 00 00 00 00	 mov	 eax, DWORD PTR ?virtual_cockpit_inst3d@@3PAUOBJECT_3D_INSTANCE@@A ; virtual_cockpit_inst3d
  002c3	50		 push	 eax
  002c4	e8 00 00 00 00	 call	 ?set_texture_animation_frame_on_object@@YGHPAUOBJECT_3D_INSTANCE@@W4TEXTURE_ANIMATION_INDICES@@H@Z ; set_texture_animation_frame_on_object
$LN32@draw_ka50_:

; 152  : 
; 153  : 	draw_lamp (ka50_lamps.altitude_hold, TEXTURE_ANIMATION_INDEX_HOKUM_COCKPIT_LAMP__010);

  002c9	a1 00 00 00 00	 mov	 eax, DWORD PTR ?ka50_lamps@@3UKA50_LAMP_FLAGS@@A
  002ce	c1 e8 0f	 shr	 eax, 15			; 0000000fH
  002d1	83 e0 01	 and	 eax, 1
  002d4	74 11		 je	 SHORT $LN33@draw_ka50_
  002d6	6a 01		 push	 1
  002d8	6a 55		 push	 85			; 00000055H
  002da	a1 00 00 00 00	 mov	 eax, DWORD PTR ?virtual_cockpit_inst3d@@3PAUOBJECT_3D_INSTANCE@@A ; virtual_cockpit_inst3d
  002df	50		 push	 eax
  002e0	e8 00 00 00 00	 call	 ?set_texture_animation_frame_on_object@@YGHPAUOBJECT_3D_INSTANCE@@W4TEXTURE_ANIMATION_INDICES@@H@Z ; set_texture_animation_frame_on_object
  002e5	eb 0f		 jmp	 SHORT $LN34@draw_ka50_
$LN33@draw_ka50_:
  002e7	6a 00		 push	 0
  002e9	6a 55		 push	 85			; 00000055H
  002eb	a1 00 00 00 00	 mov	 eax, DWORD PTR ?virtual_cockpit_inst3d@@3PAUOBJECT_3D_INSTANCE@@A ; virtual_cockpit_inst3d
  002f0	50		 push	 eax
  002f1	e8 00 00 00 00	 call	 ?set_texture_animation_frame_on_object@@YGHPAUOBJECT_3D_INSTANCE@@W4TEXTURE_ANIMATION_INDICES@@H@Z ; set_texture_animation_frame_on_object
$LN34@draw_ka50_:

; 154  : 
; 155  : 	draw_lamp (ka50_lamps.auto_pilot, TEXTURE_ANIMATION_INDEX_HOKUM_COCKPIT_LAMP__011);

  002f6	a1 00 00 00 00	 mov	 eax, DWORD PTR ?ka50_lamps@@3UKA50_LAMP_FLAGS@@A
  002fb	c1 e8 10	 shr	 eax, 16			; 00000010H
  002fe	83 e0 01	 and	 eax, 1
  00301	74 11		 je	 SHORT $LN35@draw_ka50_
  00303	6a 01		 push	 1
  00305	6a 46		 push	 70			; 00000046H
  00307	a1 00 00 00 00	 mov	 eax, DWORD PTR ?virtual_cockpit_inst3d@@3PAUOBJECT_3D_INSTANCE@@A ; virtual_cockpit_inst3d
  0030c	50		 push	 eax
  0030d	e8 00 00 00 00	 call	 ?set_texture_animation_frame_on_object@@YGHPAUOBJECT_3D_INSTANCE@@W4TEXTURE_ANIMATION_INDICES@@H@Z ; set_texture_animation_frame_on_object
  00312	eb 0f		 jmp	 SHORT $LN36@draw_ka50_
$LN35@draw_ka50_:
  00314	6a 00		 push	 0
  00316	6a 46		 push	 70			; 00000046H
  00318	a1 00 00 00 00	 mov	 eax, DWORD PTR ?virtual_cockpit_inst3d@@3PAUOBJECT_3D_INSTANCE@@A ; virtual_cockpit_inst3d
  0031d	50		 push	 eax
  0031e	e8 00 00 00 00	 call	 ?set_texture_animation_frame_on_object@@YGHPAUOBJECT_3D_INSTANCE@@W4TEXTURE_ANIMATION_INDICES@@H@Z ; set_texture_animation_frame_on_object
$LN36@draw_ka50_:

; 156  : 
; 157  : 	draw_lamp (ka50_lamps.laser, TEXTURE_ANIMATION_INDEX_HOKUM_COCKPIT_LAMP__013);

  00323	a1 00 00 00 00	 mov	 eax, DWORD PTR ?ka50_lamps@@3UKA50_LAMP_FLAGS@@A
  00328	c1 e8 11	 shr	 eax, 17			; 00000011H
  0032b	83 e0 01	 and	 eax, 1
  0032e	74 11		 je	 SHORT $LN37@draw_ka50_
  00330	6a 01		 push	 1
  00332	6a 51		 push	 81			; 00000051H
  00334	a1 00 00 00 00	 mov	 eax, DWORD PTR ?virtual_cockpit_inst3d@@3PAUOBJECT_3D_INSTANCE@@A ; virtual_cockpit_inst3d
  00339	50		 push	 eax
  0033a	e8 00 00 00 00	 call	 ?set_texture_animation_frame_on_object@@YGHPAUOBJECT_3D_INSTANCE@@W4TEXTURE_ANIMATION_INDICES@@H@Z ; set_texture_animation_frame_on_object
  0033f	eb 0f		 jmp	 SHORT $LN38@draw_ka50_
$LN37@draw_ka50_:
  00341	6a 00		 push	 0
  00343	6a 51		 push	 81			; 00000051H
  00345	a1 00 00 00 00	 mov	 eax, DWORD PTR ?virtual_cockpit_inst3d@@3PAUOBJECT_3D_INSTANCE@@A ; virtual_cockpit_inst3d
  0034a	50		 push	 eax
  0034b	e8 00 00 00 00	 call	 ?set_texture_animation_frame_on_object@@YGHPAUOBJECT_3D_INSTANCE@@W4TEXTURE_ANIMATION_INDICES@@H@Z ; set_texture_animation_frame_on_object
$LN38@draw_ka50_:

; 158  : 
; 159  : 	draw_lamp (ka50_lamps.radar_jammer, TEXTURE_ANIMATION_INDEX_HOKUM_COCKPIT_LAMP__014);

  00350	a1 00 00 00 00	 mov	 eax, DWORD PTR ?ka50_lamps@@3UKA50_LAMP_FLAGS@@A
  00355	c1 e8 12	 shr	 eax, 18			; 00000012H
  00358	83 e0 01	 and	 eax, 1
  0035b	74 11		 je	 SHORT $LN39@draw_ka50_
  0035d	6a 01		 push	 1
  0035f	6a 4e		 push	 78			; 0000004eH
  00361	a1 00 00 00 00	 mov	 eax, DWORD PTR ?virtual_cockpit_inst3d@@3PAUOBJECT_3D_INSTANCE@@A ; virtual_cockpit_inst3d
  00366	50		 push	 eax
  00367	e8 00 00 00 00	 call	 ?set_texture_animation_frame_on_object@@YGHPAUOBJECT_3D_INSTANCE@@W4TEXTURE_ANIMATION_INDICES@@H@Z ; set_texture_animation_frame_on_object
  0036c	eb 0f		 jmp	 SHORT $LN40@draw_ka50_
$LN39@draw_ka50_:
  0036e	6a 00		 push	 0
  00370	6a 4e		 push	 78			; 0000004eH
  00372	a1 00 00 00 00	 mov	 eax, DWORD PTR ?virtual_cockpit_inst3d@@3PAUOBJECT_3D_INSTANCE@@A ; virtual_cockpit_inst3d
  00377	50		 push	 eax
  00378	e8 00 00 00 00	 call	 ?set_texture_animation_frame_on_object@@YGHPAUOBJECT_3D_INSTANCE@@W4TEXTURE_ANIMATION_INDICES@@H@Z ; set_texture_animation_frame_on_object
$LN40@draw_ka50_:

; 160  : 
; 161  : 	draw_lamp (ka50_lamps.ir_jammer, TEXTURE_ANIMATION_INDEX_HOKUM_COCKPIT_LAMP__015);

  0037d	a1 00 00 00 00	 mov	 eax, DWORD PTR ?ka50_lamps@@3UKA50_LAMP_FLAGS@@A
  00382	c1 e8 13	 shr	 eax, 19			; 00000013H
  00385	83 e0 01	 and	 eax, 1
  00388	74 11		 je	 SHORT $LN41@draw_ka50_
  0038a	6a 01		 push	 1
  0038c	6a 4b		 push	 75			; 0000004bH
  0038e	a1 00 00 00 00	 mov	 eax, DWORD PTR ?virtual_cockpit_inst3d@@3PAUOBJECT_3D_INSTANCE@@A ; virtual_cockpit_inst3d
  00393	50		 push	 eax
  00394	e8 00 00 00 00	 call	 ?set_texture_animation_frame_on_object@@YGHPAUOBJECT_3D_INSTANCE@@W4TEXTURE_ANIMATION_INDICES@@H@Z ; set_texture_animation_frame_on_object
  00399	eb 0f		 jmp	 SHORT $LN42@draw_ka50_
$LN41@draw_ka50_:
  0039b	6a 00		 push	 0
  0039d	6a 4b		 push	 75			; 0000004bH
  0039f	a1 00 00 00 00	 mov	 eax, DWORD PTR ?virtual_cockpit_inst3d@@3PAUOBJECT_3D_INSTANCE@@A ; virtual_cockpit_inst3d
  003a4	50		 push	 eax
  003a5	e8 00 00 00 00	 call	 ?set_texture_animation_frame_on_object@@YGHPAUOBJECT_3D_INSTANCE@@W4TEXTURE_ANIMATION_INDICES@@H@Z ; set_texture_animation_frame_on_object
$LN42@draw_ka50_:

; 162  : 
; 163  : 	draw_lamp (ka50_lamps.auto_counter_measures, TEXTURE_ANIMATION_INDEX_HOKUM_COCKPIT_LAMP__016);

  003aa	a1 00 00 00 00	 mov	 eax, DWORD PTR ?ka50_lamps@@3UKA50_LAMP_FLAGS@@A
  003af	c1 e8 14	 shr	 eax, 20			; 00000014H
  003b2	83 e0 01	 and	 eax, 1
  003b5	74 11		 je	 SHORT $LN43@draw_ka50_
  003b7	6a 01		 push	 1
  003b9	6a 53		 push	 83			; 00000053H
  003bb	a1 00 00 00 00	 mov	 eax, DWORD PTR ?virtual_cockpit_inst3d@@3PAUOBJECT_3D_INSTANCE@@A ; virtual_cockpit_inst3d
  003c0	50		 push	 eax
  003c1	e8 00 00 00 00	 call	 ?set_texture_animation_frame_on_object@@YGHPAUOBJECT_3D_INSTANCE@@W4TEXTURE_ANIMATION_INDICES@@H@Z ; set_texture_animation_frame_on_object
  003c6	eb 0f		 jmp	 SHORT $LN44@draw_ka50_
$LN43@draw_ka50_:
  003c8	6a 00		 push	 0
  003ca	6a 53		 push	 83			; 00000053H
  003cc	a1 00 00 00 00	 mov	 eax, DWORD PTR ?virtual_cockpit_inst3d@@3PAUOBJECT_3D_INSTANCE@@A ; virtual_cockpit_inst3d
  003d1	50		 push	 eax
  003d2	e8 00 00 00 00	 call	 ?set_texture_animation_frame_on_object@@YGHPAUOBJECT_3D_INSTANCE@@W4TEXTURE_ANIMATION_INDICES@@H@Z ; set_texture_animation_frame_on_object
$LN44@draw_ka50_:

; 164  : 
; 165  : 	draw_lamp (ka50_lamps.ase_auto_page, TEXTURE_ANIMATION_INDEX_HOKUM_COCKPIT_LAMP__017);

  003d7	a1 00 00 00 00	 mov	 eax, DWORD PTR ?ka50_lamps@@3UKA50_LAMP_FLAGS@@A
  003dc	c1 e8 15	 shr	 eax, 21			; 00000015H
  003df	83 e0 01	 and	 eax, 1
  003e2	74 11		 je	 SHORT $LN45@draw_ka50_
  003e4	6a 01		 push	 1
  003e6	6a 44		 push	 68			; 00000044H
  003e8	a1 00 00 00 00	 mov	 eax, DWORD PTR ?virtual_cockpit_inst3d@@3PAUOBJECT_3D_INSTANCE@@A ; virtual_cockpit_inst3d
  003ed	50		 push	 eax
  003ee	e8 00 00 00 00	 call	 ?set_texture_animation_frame_on_object@@YGHPAUOBJECT_3D_INSTANCE@@W4TEXTURE_ANIMATION_INDICES@@H@Z ; set_texture_animation_frame_on_object
  003f3	eb 0f		 jmp	 SHORT $LN46@draw_ka50_
$LN45@draw_ka50_:
  003f5	6a 00		 push	 0
  003f7	6a 44		 push	 68			; 00000044H
  003f9	a1 00 00 00 00	 mov	 eax, DWORD PTR ?virtual_cockpit_inst3d@@3PAUOBJECT_3D_INSTANCE@@A ; virtual_cockpit_inst3d
  003fe	50		 push	 eax
  003ff	e8 00 00 00 00	 call	 ?set_texture_animation_frame_on_object@@YGHPAUOBJECT_3D_INSTANCE@@W4TEXTURE_ANIMATION_INDICES@@H@Z ; set_texture_animation_frame_on_object
$LN46@draw_ka50_:

; 166  : 
; 167  : 	draw_lamp (ka50_lamps.gear_damaged, TEXTURE_ANIMATION_INDEX_HOKUM_COCKPIT_LAMP__024);

  00404	a1 00 00 00 00	 mov	 eax, DWORD PTR ?ka50_lamps@@3UKA50_LAMP_FLAGS@@A
  00409	c1 e8 16	 shr	 eax, 22			; 00000016H
  0040c	83 e0 01	 and	 eax, 1
  0040f	74 11		 je	 SHORT $LN47@draw_ka50_
  00411	6a 01		 push	 1
  00413	6a 41		 push	 65			; 00000041H
  00415	a1 00 00 00 00	 mov	 eax, DWORD PTR ?virtual_cockpit_inst3d@@3PAUOBJECT_3D_INSTANCE@@A ; virtual_cockpit_inst3d
  0041a	50		 push	 eax
  0041b	e8 00 00 00 00	 call	 ?set_texture_animation_frame_on_object@@YGHPAUOBJECT_3D_INSTANCE@@W4TEXTURE_ANIMATION_INDICES@@H@Z ; set_texture_animation_frame_on_object
  00420	eb 0f		 jmp	 SHORT $LN48@draw_ka50_
$LN47@draw_ka50_:
  00422	6a 00		 push	 0
  00424	6a 41		 push	 65			; 00000041H
  00426	a1 00 00 00 00	 mov	 eax, DWORD PTR ?virtual_cockpit_inst3d@@3PAUOBJECT_3D_INSTANCE@@A ; virtual_cockpit_inst3d
  0042b	50		 push	 eax
  0042c	e8 00 00 00 00	 call	 ?set_texture_animation_frame_on_object@@YGHPAUOBJECT_3D_INSTANCE@@W4TEXTURE_ANIMATION_INDICES@@H@Z ; set_texture_animation_frame_on_object
$LN48@draw_ka50_:

; 168  : 
; 169  : 	draw_lamp (ka50_lamps.gear_status, TEXTURE_ANIMATION_INDEX_HOKUM_COCKPIT_LAMP__023);

  00431	a1 00 00 00 00	 mov	 eax, DWORD PTR ?ka50_lamps@@3UKA50_LAMP_FLAGS@@A
  00436	c1 e8 17	 shr	 eax, 23			; 00000017H
  00439	83 e0 01	 and	 eax, 1
  0043c	74 11		 je	 SHORT $LN49@draw_ka50_
  0043e	6a 01		 push	 1
  00440	6a 43		 push	 67			; 00000043H
  00442	a1 00 00 00 00	 mov	 eax, DWORD PTR ?virtual_cockpit_inst3d@@3PAUOBJECT_3D_INSTANCE@@A ; virtual_cockpit_inst3d
  00447	50		 push	 eax
  00448	e8 00 00 00 00	 call	 ?set_texture_animation_frame_on_object@@YGHPAUOBJECT_3D_INSTANCE@@W4TEXTURE_ANIMATION_INDICES@@H@Z ; set_texture_animation_frame_on_object
  0044d	eb 0f		 jmp	 SHORT $LN50@draw_ka50_
$LN49@draw_ka50_:
  0044f	6a 00		 push	 0
  00451	6a 43		 push	 67			; 00000043H
  00453	a1 00 00 00 00	 mov	 eax, DWORD PTR ?virtual_cockpit_inst3d@@3PAUOBJECT_3D_INSTANCE@@A ; virtual_cockpit_inst3d
  00458	50		 push	 eax
  00459	e8 00 00 00 00	 call	 ?set_texture_animation_frame_on_object@@YGHPAUOBJECT_3D_INSTANCE@@W4TEXTURE_ANIMATION_INDICES@@H@Z ; set_texture_animation_frame_on_object
$LN50@draw_ka50_:

; 170  : 
; 171  : 	draw_lamp (ka50_lamps.gear_red, TEXTURE_ANIMATION_INDEX_HOKUM_COCKPIT_GEAR__029);

  0045e	83 3d 04 00 00
	00 00		 cmp	 DWORD PTR ?ka50_lamps@@3UKA50_LAMP_FLAGS@@A+4, 0
  00465	74 11		 je	 SHORT $LN51@draw_ka50_
  00467	6a 01		 push	 1
  00469	6a 42		 push	 66			; 00000042H
  0046b	a1 00 00 00 00	 mov	 eax, DWORD PTR ?virtual_cockpit_inst3d@@3PAUOBJECT_3D_INSTANCE@@A ; virtual_cockpit_inst3d
  00470	50		 push	 eax
  00471	e8 00 00 00 00	 call	 ?set_texture_animation_frame_on_object@@YGHPAUOBJECT_3D_INSTANCE@@W4TEXTURE_ANIMATION_INDICES@@H@Z ; set_texture_animation_frame_on_object
  00476	eb 0f		 jmp	 SHORT $LN1@draw_ka50_
$LN51@draw_ka50_:
  00478	6a 00		 push	 0
  0047a	6a 42		 push	 66			; 00000042H
  0047c	a1 00 00 00 00	 mov	 eax, DWORD PTR ?virtual_cockpit_inst3d@@3PAUOBJECT_3D_INSTANCE@@A ; virtual_cockpit_inst3d
  00481	50		 push	 eax
  00482	e8 00 00 00 00	 call	 ?set_texture_animation_frame_on_object@@YGHPAUOBJECT_3D_INSTANCE@@W4TEXTURE_ANIMATION_INDICES@@H@Z ; set_texture_animation_frame_on_object
$LN1@draw_ka50_:

; 172  : }

  00487	5f		 pop	 edi
  00488	5e		 pop	 esi
  00489	5b		 pop	 ebx
  0048a	8b e5		 mov	 esp, ebp
  0048c	5d		 pop	 ebp
  0048d	c3		 ret	 0
?draw_ka50_virtual_cockpit_lamps@@YGXXZ ENDP		; draw_ka50_virtual_cockpit_lamps
_TEXT	ENDS
; Function compile flags: /Odtp /ZI
; File c:\users\nhv90\projects\eech\aphavoc\source\gunships\cockpits\ka50\hm_lamps.c
;	COMDAT ?deinitialise_ka50_lamps@@YGXXZ
_TEXT	SEGMENT
?deinitialise_ka50_lamps@@YGXXZ PROC			; deinitialise_ka50_lamps, COMDAT

; 96   : {

  00000	55		 push	 ebp
  00001	8b ec		 mov	 ebp, esp
  00003	83 ec 40	 sub	 esp, 64			; 00000040H
  00006	53		 push	 ebx
  00007	56		 push	 esi
  00008	57		 push	 edi

; 97   : }

  00009	5f		 pop	 edi
  0000a	5e		 pop	 esi
  0000b	5b		 pop	 ebx
  0000c	8b e5		 mov	 esp, ebp
  0000e	5d		 pop	 ebp
  0000f	c3		 ret	 0
?deinitialise_ka50_lamps@@YGXXZ ENDP			; deinitialise_ka50_lamps
_TEXT	ENDS
; Function compile flags: /Odtp /ZI
; File c:\users\nhv90\projects\eech\aphavoc\source\gunships\cockpits\ka50\hm_lamps.c
;	COMDAT ?initialise_ka50_lamps@@YGXXZ
_TEXT	SEGMENT
?initialise_ka50_lamps@@YGXXZ PROC			; initialise_ka50_lamps, COMDAT

; 87   : {

  00000	55		 push	 ebp
  00001	8b ec		 mov	 ebp, esp
  00003	83 ec 40	 sub	 esp, 64			; 00000040H
  00006	53		 push	 ebx
  00007	56		 push	 esi
  00008	57		 push	 edi

; 88   : 	memset (&ka50_lamps, 0, sizeof (ka50_lamp_flags));

  00009	6a 0c		 push	 12			; 0000000cH
  0000b	6a 00		 push	 0
  0000d	68 00 00 00 00	 push	 OFFSET ?ka50_lamps@@3UKA50_LAMP_FLAGS@@A ; ka50_lamps
  00012	e8 00 00 00 00	 call	 _memset
  00017	83 c4 0c	 add	 esp, 12			; 0000000cH

; 89   : }

  0001a	5f		 pop	 edi
  0001b	5e		 pop	 esi
  0001c	5b		 pop	 ebx
  0001d	8b e5		 mov	 esp, ebp
  0001f	5d		 pop	 ebp
  00020	c3		 ret	 0
?initialise_ka50_lamps@@YGXXZ ENDP			; initialise_ka50_lamps
_TEXT	ENDS
END
