; Listing generated by Microsoft (R) Optimizing Compiler Version 19.16.27045.0 

	TITLE	C:\Users\nhv90\Projects\eech\aphavoc\source\gunships\cockpits\ka50\hm_pilot.c
	.686P
	.XMM
	include listing.inc
	.model	flat

INCLUDELIB MSVCRTD
INCLUDELIB OLDNAMES

PUBLIC	?initialise_ka50_pilot_animation@@YGXXZ		; initialise_ka50_pilot_animation
PUBLIC	?deinitialise_ka50_pilot_animation@@YGXXZ	; deinitialise_ka50_pilot_animation
PUBLIC	?update_ka50_pilot_animation@@YGXXZ		; update_ka50_pilot_animation
PUBLIC	?set_ka50_pilot_head_position@@YGXXZ		; set_ka50_pilot_head_position
PUBLIC	?get_ka50_pilot_head_pitch_datum@@YGMXZ		; get_ka50_pilot_head_pitch_datum
PUBLIC	?reset_ka50_pilot_eject_sequence@@YGXXZ		; reset_ka50_pilot_eject_sequence
PUBLIC	??$max@M@std@@YGABMABM0@Z			; std::max<float>
PUBLIC	??$min@M@std@@YGABMABM0@Z			; std::min<float>
PUBLIC	??_C@_02DKCKIIND@?$CFs@				; `string'
PUBLIC	??_C@_0CF@NBHNDOKH@GRAPHICS?2COCKPITS?2HOKUM?2JOYSTIC@ ; `string'
PUBLIC	??_C@_0CE@DBBEGHOL@GRAPHICS?2COCKPITS?2HOKUM?2FOREARM@ ; `string'
PUBLIC	??_C@_0CF@BGDOJGAE@GRAPHICS?2COCKPITS?2HOKUM?2SHOULDE@ ; `string'
PUBLIC	?__LINE__Var@?0??get_pilot_cyclic_position@@YGXPAM0@Z@4JA ; `get_pilot_cyclic_position'::`1'::__LINE__Var
PUBLIC	??_C@_0EO@MOFNGMIK@c?3?2users?2nhv90?2projects?2eech?2ap@ ; `string'
PUBLIC	??_C@_01FJMABOPO@x@				; `string'
PUBLIC	??_C@_01EANLCPLP@y@				; `string'
PUBLIC	?__LINE__Var@?0??set_pilot_animation@@YGXPAUPILOT_ANIM_DATA@@MH@Z@4JA ; `set_pilot_animation'::`1'::__LINE__Var
PUBLIC	??_C@_04NBCDDDGK@anim@				; `string'
PUBLIC	??_C@_0DB@EMGHFMKH@pilot_head_anim_frame?5?$DN?$DN?5NO_PIL@ ; `string'
PUBLIC	??_C@_0CB@MEHFMECA@Invalid?5rest?5animation?5mode?5?$DN?5?$CF@ ; `string'
PUBLIC	?__LINE__Var@?0??update_pilot_rest_animation@@YGXH@Z@4JA ; `update_pilot_rest_animation'::`1'::__LINE__Var
PUBLIC	??_C@_0BI@LEOJMFBF@head_anim_only?5?$DN?$DN?5FALSE@ ; `string'
PUBLIC	??_C@_0BJ@MENDMCHB@Invalid?5eject?5stage?5?$DN?5?$CFd@ ; `string'
PUBLIC	?__LINE__Var@?0??update_pilot_animation@@YGXXZ@4JA ; `update_pilot_animation'::`1'::__LINE__Var
PUBLIC	??_C@_0BI@PIKPLPOF@pilot_animation_updated@	; `string'
PUBLIC	?__LINE__Var@?0??update_pilot_head_tilt_animation@@YGXXZ@4JA ; `update_pilot_head_tilt_animation'::`1'::__LINE__Var
PUBLIC	??_C@_0DC@BDFIJKFN@pilot_rest_anim_mode?5?$DN?$DN?5PILOT_R@ ; `string'
PUBLIC	?__LINE__Var@?0??update_ka50_pilot_animation@@YGXXZ@4JA ; `update_ka50_pilot_animation'::`1'::__LINE__Var
PUBLIC	??_C@_0BG@EANNPEON@get_gunship_entity?5?$CI?$CJ@ ; `string'
PUBLIC	??_C@_0BI@CKBJIOHI@current_flight_dynamics@	; `string'
PUBLIC	??_C@_0BH@OJOOJLIP@virtual_cockpit_inst3d@	; `string'
PUBLIC	?__LINE__Var@?0??set_ka50_pilot_head_position@@YGXXZ@4JA ; `set_ka50_pilot_head_position'::`1'::__LINE__Var
PUBLIC	??_C@_0DB@HGENAKO@Failed?5to?5locate?5pilot?8s?5head?5i@ ; `string'
PUBLIC	?__LINE__Var@?0??get_ka50_pilot_head_pitch_datum@@YGMXZ@4JA ; `get_ka50_pilot_head_pitch_datum'::`1'::__LINE__Var
PUBLIC	??_C@_0BD@FEEMDEPI@invalid?5comparator@		; `string'
PUBLIC	??_C@_0GK@JMBMHIBC@c?3?2program?5files?5?$CIx86?$CJ?2microsof@ ; `string'
PUBLIC	??_C@_1NE@FKBPBJEB@?$AAc?$AA?3?$AA?2?$AAp?$AAr?$AAo?$AAg?$AAr?$AAa?$AAm?$AA?5?$AAf?$AAi?$AAl?$AAe@ ; `string'
PUBLIC	??_C@_1BC@ICCOKLEG@?$AAs?$AAt?$AAd?$AA?3?$AA?3?$AAm?$AAa?$AAx@ ; `string'
PUBLIC	??_C@_1CK@NDNHPKPI@?$AA?$CC?$AAi?$AAn?$AAv?$AAa?$AAl?$AAi?$AAd?$AA?5?$AAc?$AAo?$AAm?$AAp?$AAa?$AAr@ ; `string'
PUBLIC	??_C@_1BC@BLAPCBGI@?$AAs?$AAt?$AAd?$AA?3?$AA?3?$AAm?$AAi?$AAn@ ; `string'
PUBLIC	__real@00000000
PUBLIC	__real@0000000000000000
PUBLIC	__real@3c23d70a
PUBLIC	__real@3ca3d70a
PUBLIC	__real@3cf5c28f
PUBLIC	__real@3d23d70a
PUBLIC	__real@3da3d708
PUBLIC	__real@3df5c28f
PUBLIC	__real@3e32b8c2
PUBLIC	__real@3eb851ec
PUBLIC	__real@3ecccccd
PUBLIC	__real@3ee147ae
PUBLIC	__real@3f000000
PUBLIC	__real@3f00002000400080
PUBLIC	__real@3f19999a
PUBLIC	__real@3f2e147b
PUBLIC	__real@3f800000
PUBLIC	__real@3fc3333333333333
PUBLIC	__real@3fc999999999999a
PUBLIC	__real@3fd54fdf3b645a1d
PUBLIC	__real@3fe0000000000000
PUBLIC	__real@3feff7ced916872b
PUBLIC	__real@3ff0000000000000
PUBLIC	__real@3ff8000000000000
PUBLIC	__real@4000000000000000
PUBLIC	__real@4008000000000000
PUBLIC	__real@4016eb1686b280e6
PUBLIC	__real@41800000
PUBLIC	__real@be32b8c2
PUBLIC	__real@bf800000
PUBLIC	__xmm@80000000800000008000000080000000
EXTRN	__imp___invalid_parameter:PROC
EXTRN	__imp___CrtDbgReport:PROC
EXTRN	?process_assert@@YGXPBD0H@Z:PROC		; process_assert
EXTRN	?debug_fatal@@YAXPBDZZ:PROC			; debug_fatal
EXTRN	?find_object_3d_sub_object@@YG?AW4SUB_OBJECT_SEARCH_RESULT_TYPES@@PAUOBJECT_3D_SUB_OBJECT_SEARCH_DATA@@@Z:PROC ; find_object_3d_sub_object
EXTRN	?notify_local_entity@@YAHW4ENTITY_MESSAGES@@PAUENTITY@@1ZZ:PROC ; notify_local_entity
EXTRN	?animate_entity_simple_keyframed_sub_objects@@YGXPAUOBJECT_3D_INSTANCE@@HM@Z:PROC ; animate_entity_simple_keyframed_sub_objects
EXTRN	?launch_client_server_weapon@@YGXPAUENTITY@@H@Z:PROC ; launch_client_server_weapon
EXTRN	?get_crew_role@@YG?AW4CREW_ROLES@@XZ:PROC	; get_crew_role
EXTRN	?read_motion_values@@YGXPBDHPAUMOTION_DATA@@@Z:PROC ; read_motion_values
EXTRN	?interpolate_motion_values@@YGXMMPAUMOTION_DATA@@H0@Z:PROC ; interpolate_motion_values
EXTRN	?system_delta_time@@3MA:DWORD			; system_delta_time
EXTRN	?random_number_seed@@3HA:DWORD			; random_number_seed
EXTRN	?null_entity_pointer_message@@3PBDB:DWORD	; null_entity_pointer_message
EXTRN	?overload_invalid_float_type_message@@3PBDB:DWORD ; overload_invalid_float_type_message
EXTRN	?fn_get_local_entity_float_value@@3PAY0KP@P6GMPAUENTITY@@W4FLOAT_TYPES@@@ZA:BYTE ; fn_get_local_entity_float_value
EXTRN	?overload_invalid_int_type_message@@3PBDB:DWORD	; overload_invalid_int_type_message
EXTRN	?fn_get_local_entity_int_value@@3PAY0BBH@P6GHPAUENTITY@@W4INT_TYPES@@@ZA:BYTE ; fn_get_local_entity_int_value
EXTRN	?gunship_entity@@3PAUENTITY@@A:DWORD		; gunship_entity
EXTRN	?camera_entity@@3PAUENTITY@@A:DWORD		; camera_entity
EXTRN	?view_mode@@3W4VIEW_MODES@@A:DWORD		; view_mode
EXTRN	?night_vision_system_active@@3HA:DWORD		; night_vision_system_active
EXTRN	?virtual_cockpit_inst3d@@3PAUOBJECT_3D_INSTANCE@@A:DWORD ; virtual_cockpit_inst3d
EXTRN	?pilot_head_pitch_datum@@3MA:DWORD		; pilot_head_pitch_datum
EXTRN	?current_flight_dynamics@@3PAUDYNAMICS_TYPE@@A:DWORD ; current_flight_dynamics
EXTRN	__fltused:DWORD
_BSS	SEGMENT
?pilot_animation_updated@@3HA DD 01H DUP (?)		; pilot_animation_updated
?pilot_head_anim_frame@@3MA DD 01H DUP (?)		; pilot_head_anim_frame
?pilot_head_anim_pause@@3MA DD 01H DUP (?)		; pilot_head_anim_pause
?previous_pilot_head_tilt_angle@@3MA DD 01H DUP (?)	; previous_pilot_head_tilt_angle
?pilot_nvg_anim_frame@@3MA DD 01H DUP (?)		; pilot_nvg_anim_frame
?eject_timer@@3MA DD 01H DUP (?)			; eject_timer
?eject_stage@@3HA DD 01H DUP (?)			; eject_stage
?pilot_main_anim_mode@@3W4PILOT_MAIN_ANIM_MODES@@A DD 01H DUP (?) ; pilot_main_anim_mode
?pilot_main_anim_frame@@3MA DD 01H DUP (?)		; pilot_main_anim_frame
?cyclic_x_position@@3MA DD 01H DUP (?)			; cyclic_x_position
?cyclic_y_position@@3MA DD 01H DUP (?)			; cyclic_y_position
?collective_position@@3MA DD 01H DUP (?)		; collective_position
?pedal_position@@3MA DD 01H DUP (?)			; pedal_position
?previous_cyclic_x_position@@3MA DD 01H DUP (?)		; previous_cyclic_x_position
?previous_cyclic_y_position@@3MA DD 01H DUP (?)		; previous_cyclic_y_position
?previous_collective_position@@3MA DD 01H DUP (?)	; previous_collective_position
?previous_pedal_position@@3MA DD 01H DUP (?)		; previous_pedal_position
?pilot_rest_anim_mode@@3W4PILOT_REST_ANIM_MODES@@A DD 01H DUP (?) ; pilot_rest_anim_mode
?previous_random_pilot_rest_anim_mode@@3W4PILOT_REST_ANIM_MODES@@A DD 01H DUP (?) ; previous_random_pilot_rest_anim_mode
?pilot_rest_anim_frame@@3MA DD 01H DUP (?)		; pilot_rest_anim_frame
?pilot_rest_anim_delay@@3MA DD 01H DUP (?)		; pilot_rest_anim_delay
?right_arm_joystick_motion@@3PAUMOTION_DATA@@A DB 01b18H DUP (?) ; right_arm_joystick_motion
?right_arm_forearm_motion@@3PAUMOTION_DATA@@A DB 01b18H DUP (?) ; right_arm_forearm_motion
?right_arm_shoulder_motion@@3PAUMOTION_DATA@@A DB 01b18H DUP (?) ; right_arm_shoulder_motion
_BSS	ENDS
;	COMDAT __xmm@80000000800000008000000080000000
CONST	SEGMENT
__xmm@80000000800000008000000080000000 DB 00H, 00H, 00H, 080H, 00H, 00H, 00H
	DB	080H, 00H, 00H, 00H, 080H, 00H, 00H, 00H, 080H
CONST	ENDS
;	COMDAT __real@bf800000
CONST	SEGMENT
__real@bf800000 DD 0bf800000r			; -1
CONST	ENDS
;	COMDAT __real@be32b8c2
CONST	SEGMENT
__real@be32b8c2 DD 0be32b8c2r			; -0.174533
CONST	ENDS
;	COMDAT __real@41800000
CONST	SEGMENT
__real@41800000 DD 041800000r			; 16
CONST	ENDS
;	COMDAT __real@4016eb1686b280e6
CONST	SEGMENT
__real@4016eb1686b280e6 DQ 04016eb1686b280e6r	; 5.72958
CONST	ENDS
;	COMDAT __real@4008000000000000
CONST	SEGMENT
__real@4008000000000000 DQ 04008000000000000r	; 3
CONST	ENDS
;	COMDAT __real@4000000000000000
CONST	SEGMENT
__real@4000000000000000 DQ 04000000000000000r	; 2
CONST	ENDS
;	COMDAT __real@3ff8000000000000
CONST	SEGMENT
__real@3ff8000000000000 DQ 03ff8000000000000r	; 1.5
CONST	ENDS
;	COMDAT __real@3ff0000000000000
CONST	SEGMENT
__real@3ff0000000000000 DQ 03ff0000000000000r	; 1
CONST	ENDS
;	COMDAT __real@3feff7ced916872b
CONST	SEGMENT
__real@3feff7ced916872b DQ 03feff7ced916872br	; 0.999
CONST	ENDS
;	COMDAT __real@3fe0000000000000
CONST	SEGMENT
__real@3fe0000000000000 DQ 03fe0000000000000r	; 0.5
CONST	ENDS
;	COMDAT __real@3fd54fdf3b645a1d
CONST	SEGMENT
__real@3fd54fdf3b645a1d DQ 03fd54fdf3b645a1dr	; 0.333
CONST	ENDS
;	COMDAT __real@3fc999999999999a
CONST	SEGMENT
__real@3fc999999999999a DQ 03fc999999999999ar	; 0.2
CONST	ENDS
;	COMDAT __real@3fc3333333333333
CONST	SEGMENT
__real@3fc3333333333333 DQ 03fc3333333333333r	; 0.15
CONST	ENDS
;	COMDAT __real@3f800000
CONST	SEGMENT
__real@3f800000 DD 03f800000r			; 1
CONST	ENDS
;	COMDAT __real@3f2e147b
CONST	SEGMENT
__real@3f2e147b DD 03f2e147br			; 0.68
CONST	ENDS
;	COMDAT __real@3f19999a
CONST	SEGMENT
__real@3f19999a DD 03f19999ar			; 0.6
CONST	ENDS
;	COMDAT __real@3f00002000400080
CONST	SEGMENT
__real@3f00002000400080 DQ 03f00002000400080r	; 3.05185e-05
CONST	ENDS
;	COMDAT __real@3f000000
CONST	SEGMENT
__real@3f000000 DD 03f000000r			; 0.5
CONST	ENDS
;	COMDAT __real@3ee147ae
CONST	SEGMENT
__real@3ee147ae DD 03ee147aer			; 0.44
CONST	ENDS
;	COMDAT __real@3ecccccd
CONST	SEGMENT
__real@3ecccccd DD 03ecccccdr			; 0.4
CONST	ENDS
;	COMDAT __real@3eb851ec
CONST	SEGMENT
__real@3eb851ec DD 03eb851ecr			; 0.36
CONST	ENDS
;	COMDAT __real@3e32b8c2
CONST	SEGMENT
__real@3e32b8c2 DD 03e32b8c2r			; 0.174533
CONST	ENDS
;	COMDAT __real@3df5c28f
CONST	SEGMENT
__real@3df5c28f DD 03df5c28fr			; 0.12
CONST	ENDS
;	COMDAT __real@3da3d708
CONST	SEGMENT
__real@3da3d708 DD 03da3d708r			; 0.08
CONST	ENDS
;	COMDAT __real@3d23d70a
CONST	SEGMENT
__real@3d23d70a DD 03d23d70ar			; 0.04
CONST	ENDS
;	COMDAT __real@3cf5c28f
CONST	SEGMENT
__real@3cf5c28f DD 03cf5c28fr			; 0.03
CONST	ENDS
;	COMDAT __real@3ca3d70a
CONST	SEGMENT
__real@3ca3d70a DD 03ca3d70ar			; 0.02
CONST	ENDS
;	COMDAT __real@3c23d70a
CONST	SEGMENT
__real@3c23d70a DD 03c23d70ar			; 0.01
CONST	ENDS
;	COMDAT __real@0000000000000000
CONST	SEGMENT
__real@0000000000000000 DQ 00000000000000000r	; 0
CONST	ENDS
;	COMDAT __real@00000000
CONST	SEGMENT
__real@00000000 DD 000000000r			; 0
CONST	ENDS
;	COMDAT ??_C@_1BC@BLAPCBGI@?$AAs?$AAt?$AAd?$AA?3?$AA?3?$AAm?$AAi?$AAn@
CONST	SEGMENT
??_C@_1BC@BLAPCBGI@?$AAs?$AAt?$AAd?$AA?3?$AA?3?$AAm?$AAi?$AAn@ DB 's', 00H
	DB	't', 00H, 'd', 00H, ':', 00H, ':', 00H, 'm', 00H, 'i', 00H, 'n'
	DB	00H, 00H, 00H				; `string'
CONST	ENDS
;	COMDAT ??_C@_1CK@NDNHPKPI@?$AA?$CC?$AAi?$AAn?$AAv?$AAa?$AAl?$AAi?$AAd?$AA?5?$AAc?$AAo?$AAm?$AAp?$AAa?$AAr@
CONST	SEGMENT
??_C@_1CK@NDNHPKPI@?$AA?$CC?$AAi?$AAn?$AAv?$AAa?$AAl?$AAi?$AAd?$AA?5?$AAc?$AAo?$AAm?$AAp?$AAa?$AAr@ DB '"'
	DB	00H, 'i', 00H, 'n', 00H, 'v', 00H, 'a', 00H, 'l', 00H, 'i', 00H
	DB	'd', 00H, ' ', 00H, 'c', 00H, 'o', 00H, 'm', 00H, 'p', 00H, 'a'
	DB	00H, 'r', 00H, 'a', 00H, 't', 00H, 'o', 00H, 'r', 00H, '"', 00H
	DB	00H, 00H					; `string'
CONST	ENDS
;	COMDAT ??_C@_1BC@ICCOKLEG@?$AAs?$AAt?$AAd?$AA?3?$AA?3?$AAm?$AAa?$AAx@
CONST	SEGMENT
??_C@_1BC@ICCOKLEG@?$AAs?$AAt?$AAd?$AA?3?$AA?3?$AAm?$AAa?$AAx@ DB 's', 00H
	DB	't', 00H, 'd', 00H, ':', 00H, ':', 00H, 'm', 00H, 'a', 00H, 'x'
	DB	00H, 00H, 00H				; `string'
CONST	ENDS
;	COMDAT ??_C@_1NE@FKBPBJEB@?$AAc?$AA?3?$AA?2?$AAp?$AAr?$AAo?$AAg?$AAr?$AAa?$AAm?$AA?5?$AAf?$AAi?$AAl?$AAe@
CONST	SEGMENT
??_C@_1NE@FKBPBJEB@?$AAc?$AA?3?$AA?2?$AAp?$AAr?$AAo?$AAg?$AAr?$AAa?$AAm?$AA?5?$AAf?$AAi?$AAl?$AAe@ DB 'c'
	DB	00H, ':', 00H, '\', 00H, 'p', 00H, 'r', 00H, 'o', 00H, 'g', 00H
	DB	'r', 00H, 'a', 00H, 'm', 00H, ' ', 00H, 'f', 00H, 'i', 00H, 'l'
	DB	00H, 'e', 00H, 's', 00H, ' ', 00H, '(', 00H, 'x', 00H, '8', 00H
	DB	'6', 00H, ')', 00H, '\', 00H, 'm', 00H, 'i', 00H, 'c', 00H, 'r'
	DB	00H, 'o', 00H, 's', 00H, 'o', 00H, 'f', 00H, 't', 00H, ' ', 00H
	DB	'v', 00H, 'i', 00H, 's', 00H, 'u', 00H, 'a', 00H, 'l', 00H, ' '
	DB	00H, 's', 00H, 't', 00H, 'u', 00H, 'd', 00H, 'i', 00H, 'o', 00H
	DB	'\', 00H, '2', 00H, '0', 00H, '1', 00H, '7', 00H, '\', 00H, 'c'
	DB	00H, 'o', 00H, 'm', 00H, 'm', 00H, 'u', 00H, 'n', 00H, 'i', 00H
	DB	't', 00H, 'y', 00H, '\', 00H, 'v', 00H, 'c', 00H, '\', 00H, 't'
	DB	00H, 'o', 00H, 'o', 00H, 'l', 00H, 's', 00H, '\', 00H, 'm', 00H
	DB	's', 00H, 'v', 00H, 'c', 00H, '\', 00H, '1', 00H, '4', 00H, '.'
	DB	00H, '1', 00H, '6', 00H, '.', 00H, '2', 00H, '7', 00H, '0', 00H
	DB	'2', 00H, '3', 00H, '\', 00H, 'i', 00H, 'n', 00H, 'c', 00H, 'l'
	DB	00H, 'u', 00H, 'd', 00H, 'e', 00H, '\', 00H, 'a', 00H, 'l', 00H
	DB	'g', 00H, 'o', 00H, 'r', 00H, 'i', 00H, 't', 00H, 'h', 00H, 'm'
	DB	00H, 00H, 00H				; `string'
CONST	ENDS
;	COMDAT ??_C@_0GK@JMBMHIBC@c?3?2program?5files?5?$CIx86?$CJ?2microsof@
CONST	SEGMENT
??_C@_0GK@JMBMHIBC@c?3?2program?5files?5?$CIx86?$CJ?2microsof@ DB 'c:\pro'
	DB	'gram files (x86)\microsoft visual studio\2017\community\vc\to'
	DB	'ols\msvc\14.16.27023\include\algorithm', 00H ; `string'
CONST	ENDS
;	COMDAT ??_C@_0BD@FEEMDEPI@invalid?5comparator@
CONST	SEGMENT
??_C@_0BD@FEEMDEPI@invalid?5comparator@ DB 'invalid comparator', 00H ; `string'
CONST	ENDS
;	COMDAT ?__LINE__Var@?0??get_ka50_pilot_head_pitch_datum@@YGMXZ@4JA
_DATA	SEGMENT
?__LINE__Var@?0??get_ka50_pilot_head_pitch_datum@@YGMXZ@4JA DD 0c79H ; `get_ka50_pilot_head_pitch_datum'::`1'::__LINE__Var
_DATA	ENDS
;	COMDAT ??_C@_0DB@HGENAKO@Failed?5to?5locate?5pilot?8s?5head?5i@
CONST	SEGMENT
??_C@_0DB@HGENAKO@Failed?5to?5locate?5pilot?8s?5head?5i@ DB 'Failed to lo'
	DB	'cate pilot''s head in virtual cockpit', 00H	; `string'
CONST	ENDS
;	COMDAT ?__LINE__Var@?0??set_ka50_pilot_head_position@@YGXXZ@4JA
_DATA	SEGMENT
?__LINE__Var@?0??set_ka50_pilot_head_position@@YGXXZ@4JA DD 0c42H ; `set_ka50_pilot_head_position'::`1'::__LINE__Var
_DATA	ENDS
;	COMDAT ??_C@_0BH@OJOOJLIP@virtual_cockpit_inst3d@
CONST	SEGMENT
??_C@_0BH@OJOOJLIP@virtual_cockpit_inst3d@ DB 'virtual_cockpit_inst3d', 00H ; `string'
CONST	ENDS
;	COMDAT ??_C@_0BI@CKBJIOHI@current_flight_dynamics@
CONST	SEGMENT
??_C@_0BI@CKBJIOHI@current_flight_dynamics@ DB 'current_flight_dynamics', 00H ; `string'
CONST	ENDS
;	COMDAT ??_C@_0BG@EANNPEON@get_gunship_entity?5?$CI?$CJ@
CONST	SEGMENT
??_C@_0BG@EANNPEON@get_gunship_entity?5?$CI?$CJ@ DB 'get_gunship_entity ('
	DB	')', 00H					; `string'
CONST	ENDS
;	COMDAT ?__LINE__Var@?0??update_ka50_pilot_animation@@YGXXZ@4JA
_DATA	SEGMENT
?__LINE__Var@?0??update_ka50_pilot_animation@@YGXXZ@4JA DD 0c33H ; `update_ka50_pilot_animation'::`1'::__LINE__Var
_DATA	ENDS
;	COMDAT ??_C@_0DC@BDFIJKFN@pilot_rest_anim_mode?5?$DN?$DN?5PILOT_R@
CONST	SEGMENT
??_C@_0DC@BDFIJKFN@pilot_rest_anim_mode?5?$DN?$DN?5PILOT_R@ DB 'pilot_res'
	DB	't_anim_mode == PILOT_REST_ANIM_MODE_NONE', 00H ; `string'
CONST	ENDS
;	COMDAT ?__LINE__Var@?0??update_pilot_head_tilt_animation@@YGXXZ@4JA
_DATA	SEGMENT
?__LINE__Var@?0??update_pilot_head_tilt_animation@@YGXXZ@4JA DD 0bb9H ; `update_pilot_head_tilt_animation'::`1'::__LINE__Var
_DATA	ENDS
;	COMDAT ??_C@_0BI@PIKPLPOF@pilot_animation_updated@
CONST	SEGMENT
??_C@_0BI@PIKPLPOF@pilot_animation_updated@ DB 'pilot_animation_updated', 00H ; `string'
CONST	ENDS
;	COMDAT ?__LINE__Var@?0??update_pilot_animation@@YGXXZ@4JA
_DATA	SEGMENT
?__LINE__Var@?0??update_pilot_animation@@YGXXZ@4JA DD 0af6H ; `update_pilot_animation'::`1'::__LINE__Var
_DATA	ENDS
;	COMDAT ??_C@_0BJ@MENDMCHB@Invalid?5eject?5stage?5?$DN?5?$CFd@
CONST	SEGMENT
??_C@_0BJ@MENDMCHB@Invalid?5eject?5stage?5?$DN?5?$CFd@ DB 'Invalid eject '
	DB	'stage = %d', 00H				; `string'
CONST	ENDS
;	COMDAT ??_C@_0BI@LEOJMFBF@head_anim_only?5?$DN?$DN?5FALSE@
CONST	SEGMENT
??_C@_0BI@LEOJMFBF@head_anim_only?5?$DN?$DN?5FALSE@ DB 'head_anim_only =='
	DB	' FALSE', 00H				; `string'
CONST	ENDS
;	COMDAT ?__LINE__Var@?0??update_pilot_rest_animation@@YGXH@Z@4JA
_DATA	SEGMENT
?__LINE__Var@?0??update_pilot_rest_animation@@YGXH@Z@4JA DD 079eH ; `update_pilot_rest_animation'::`1'::__LINE__Var
_DATA	ENDS
;	COMDAT ??_C@_0CB@MEHFMECA@Invalid?5rest?5animation?5mode?5?$DN?5?$CF@
CONST	SEGMENT
??_C@_0CB@MEHFMECA@Invalid?5rest?5animation?5mode?5?$DN?5?$CF@ DB 'Invali'
	DB	'd rest animation mode = %d', 00H		; `string'
CONST	ENDS
;	COMDAT ??_C@_0DB@EMGHFMKH@pilot_head_anim_frame?5?$DN?$DN?5NO_PIL@
CONST	SEGMENT
??_C@_0DB@EMGHFMKH@pilot_head_anim_frame?5?$DN?$DN?5NO_PIL@ DB 'pilot_hea'
	DB	'd_anim_frame == NO_PILOT_HEAD_ANIMATION', 00H ; `string'
CONST	ENDS
;	COMDAT ??_C@_04NBCDDDGK@anim@
CONST	SEGMENT
??_C@_04NBCDDDGK@anim@ DB 'anim', 00H			; `string'
CONST	ENDS
;	COMDAT ?__LINE__Var@?0??set_pilot_animation@@YGXPAUPILOT_ANIM_DATA@@MH@Z@4JA
_DATA	SEGMENT
?__LINE__Var@?0??set_pilot_animation@@YGXPAUPILOT_ANIM_DATA@@MH@Z@4JA DD 0588H ; `set_pilot_animation'::`1'::__LINE__Var
_DATA	ENDS
;	COMDAT ??_C@_01EANLCPLP@y@
CONST	SEGMENT
??_C@_01EANLCPLP@y@ DB 'y', 00H				; `string'
CONST	ENDS
;	COMDAT ??_C@_01FJMABOPO@x@
CONST	SEGMENT
??_C@_01FJMABOPO@x@ DB 'x', 00H				; `string'
CONST	ENDS
;	COMDAT ??_C@_0EO@MOFNGMIK@c?3?2users?2nhv90?2projects?2eech?2ap@
CONST	SEGMENT
??_C@_0EO@MOFNGMIK@c?3?2users?2nhv90?2projects?2eech?2ap@ DB 'c:\users\nh'
	DB	'v90\projects\eech\aphavoc\source\gunships\cockpits\ka50\hm_pi'
	DB	'lot.c', 00H					; `string'
CONST	ENDS
;	COMDAT ?__LINE__Var@?0??get_pilot_cyclic_position@@YGXPAM0@Z@4JA
_DATA	SEGMENT
?__LINE__Var@?0??get_pilot_cyclic_position@@YGXPAM0@Z@4JA DD 044bH ; `get_pilot_cyclic_position'::`1'::__LINE__Var
_DATA	ENDS
;	COMDAT ??_C@_0CF@BGDOJGAE@GRAPHICS?2COCKPITS?2HOKUM?2SHOULDE@
CONST	SEGMENT
??_C@_0CF@BGDOJGAE@GRAPHICS?2COCKPITS?2HOKUM?2SHOULDE@ DB 'GRAPHICS\COCKP'
	DB	'ITS\HOKUM\SHOULDER.MOT', 00H		; `string'
CONST	ENDS
;	COMDAT ??_C@_0CE@DBBEGHOL@GRAPHICS?2COCKPITS?2HOKUM?2FOREARM@
CONST	SEGMENT
??_C@_0CE@DBBEGHOL@GRAPHICS?2COCKPITS?2HOKUM?2FOREARM@ DB 'GRAPHICS\COCKP'
	DB	'ITS\HOKUM\FOREARM.MOT', 00H			; `string'
CONST	ENDS
;	COMDAT ??_C@_0CF@NBHNDOKH@GRAPHICS?2COCKPITS?2HOKUM?2JOYSTIC@
CONST	SEGMENT
??_C@_0CF@NBHNDOKH@GRAPHICS?2COCKPITS?2HOKUM?2JOYSTIC@ DB 'GRAPHICS\COCKP'
	DB	'ITS\HOKUM\JOYSTICK.MOT', 00H		; `string'
CONST	ENDS
_DATA	SEGMENT
?pilot_main_anim_mode_taking_controls_anim_data@@3UPILOT_ANIM_DATA@@A DD 03da3d70ar ; 0.08 ; pilot_main_anim_mode_taking_controls_anim_data
	DD	03df5c28fr			; 0.12
	DD	03f000000r			; 0.5
	DD	03f000000r			; 0.5
	DD	03f000000r			; 0.5
	DD	03f000000r			; 0.5
	DD	00H
	ORG $+4
	DD	00H
	ORG $+4
	DD	00H
	DD	038H
?pilot_main_anim_mode_moving_controls_from_centre1_anim_data@@3UPILOT_ANIM_DATA@@A DD 000000000r ; 0 ; pilot_main_anim_mode_moving_controls_from_centre1_anim_data
	DD	000000000r			; 0
	DD	03f000000r			; 0.5
	DD	03f000000r			; 0.5
	DD	03f000000r			; 0.5
	DD	03f000000r			; 0.5
	DD	01H
	ORG $+4
	DD	01H
	ORG $+4
	DD	01H
	DD	00H
?pilot_main_anim_mode_moving_controls_from_centre2_anim_data@@3UPILOT_ANIM_DATA@@A DD 000000000r ; 0 ; pilot_main_anim_mode_moving_controls_from_centre2_anim_data
	DD	000000000r			; 0
	DD	000000000r			; 0
	DD	000000000r			; 0
	DD	000000000r			; 0
	DD	000000000r			; 0
	DD	01H
	ORG $+4
	DD	01H
	ORG $+4
	DD	01H
	DD	00H
?pilot_main_anim_mode_hands_on_controls_anim_data@@3UPILOT_ANIM_DATA@@A DD 000000000r ; 0 ; pilot_main_anim_mode_hands_on_controls_anim_data
	DD	000000000r			; 0
	DD	000000000r			; 0
	DD	000000000r			; 0
	DD	000000000r			; 0
	DD	000000000r			; 0
	DD	01H
	ORG $+4
	DD	01H
	ORG $+4
	DD	01H
	DD	00H
?pilot_main_anim_mode_moving_controls_to_centre1_anim_data@@3UPILOT_ANIM_DATA@@A DD 000000000r ; 0 ; pilot_main_anim_mode_moving_controls_to_centre1_anim_data
	DD	000000000r			; 0
	DD	000000000r			; 0
	DD	000000000r			; 0
	DD	000000000r			; 0
	DD	000000000r			; 0
	DD	01H
	ORG $+4
	DD	01H
	ORG $+4
	DD	01H
	DD	00H
?pilot_main_anim_mode_moving_controls_to_centre2_anim_data@@3UPILOT_ANIM_DATA@@A DD 000000000r ; 0 ; pilot_main_anim_mode_moving_controls_to_centre2_anim_data
	DD	000000000r			; 0
	DD	03f000000r			; 0.5
	DD	03f000000r			; 0.5
	DD	03f000000r			; 0.5
	DD	03f000000r			; 0.5
	DD	01H
	ORG $+4
	DD	01H
	ORG $+4
	DD	01H
	DD	00H
?pilot_main_anim_mode_releasing_controls_anim_data@@3UPILOT_ANIM_DATA@@A DD 03da3d70ar ; 0.08 ; pilot_main_anim_mode_releasing_controls_anim_data
	DD	03df5c28fr			; 0.12
	DD	03f000000r			; 0.5
	DD	03f000000r			; 0.5
	DD	03f000000r			; 0.5
	DD	03f000000r			; 0.5
	DD	00H
	ORG $+4
	DD	00H
	ORG $+4
	DD	00H
	DD	038H
?pilot_main_anim_mode_left_hand_to_nvg_anim_data@@3UPILOT_ANIM_DATA@@A DD 03f19999ar ; 0.6 ; pilot_main_anim_mode_left_hand_to_nvg_anim_data
	DD	03f2e147br			; 0.68
	DD	000000000r			; 0
	DD	000000000r			; 0
	DD	03f000000r			; 0.5
	DD	000000000r			; 0
	DD	01H
	ORG $+4
	DD	00H
	ORG $+4
	DD	01H
	DD	08H
?pilot_main_anim_mode_collective_to_centre1_anim_data@@3UPILOT_ANIM_DATA@@A DD 000000000r ; 0 ; pilot_main_anim_mode_collective_to_centre1_anim_data
	DD	000000000r			; 0
	DD	000000000r			; 0
	DD	000000000r			; 0
	DD	000000000r			; 0
	DD	000000000r			; 0
	DD	01H
	ORG $+4
	DD	01H
	ORG $+4
	DD	01H
	DD	00H
?pilot_main_anim_mode_collective_to_centre2_anim_data@@3UPILOT_ANIM_DATA@@A DD 000000000r ; 0 ; pilot_main_anim_mode_collective_to_centre2_anim_data
	DD	000000000r			; 0
	DD	000000000r			; 0
	DD	000000000r			; 0
	DD	03f000000r			; 0.5
	DD	000000000r			; 0
	DD	01H
	ORG $+4
	DD	01H
	ORG $+4
	DD	01H
	DD	00H
?pilot_main_anim_mode_collective_from_centre1_anim_data@@3UPILOT_ANIM_DATA@@A DD 000000000r ; 0 ; pilot_main_anim_mode_collective_from_centre1_anim_data
	DD	000000000r			; 0
	DD	000000000r			; 0
	DD	000000000r			; 0
	DD	03f000000r			; 0.5
	DD	000000000r			; 0
	DD	01H
	ORG $+4
	DD	01H
	ORG $+4
	DD	01H
	DD	00H
?pilot_main_anim_mode_collective_from_centre2_anim_data@@3UPILOT_ANIM_DATA@@A DD 000000000r ; 0 ; pilot_main_anim_mode_collective_from_centre2_anim_data
	DD	000000000r			; 0
	DD	000000000r			; 0
	DD	000000000r			; 0
	DD	000000000r			; 0
	DD	000000000r			; 0
	DD	01H
	ORG $+4
	DD	01H
	ORG $+4
	DD	01H
	DD	00H
?pilot_rest_anim_mode_none_anim_data@@3UPILOT_ANIM_DATA@@A DD 000000000r ; 0 ; pilot_rest_anim_mode_none_anim_data
	DD	000000000r			; 0
	DD	03f000000r			; 0.5
	DD	03f000000r			; 0.5
	DD	03f000000r			; 0.5
	DD	03f000000r			; 0.5
	DD	00H
	ORG $+4
	DD	00H
	ORG $+4
	DD	00H
	DD	00H
?pilot_rest_anim_mode_right_hand_to_upper_switch_anim_data@@3UPILOT_ANIM_DATA@@A DD 03df5c28fr ; 0.12 ; pilot_rest_anim_mode_right_hand_to_upper_switch_anim_data
	DD	03e4ccccdr			; 0.2
	DD	03f000000r			; 0.5
	DD	03f000000r			; 0.5
	DD	03f000000r			; 0.5
	DD	03f000000r			; 0.5
	DD	00H
	ORG $+4
	DD	00H
	ORG $+4
	DD	00H
	DD	012H
?pilot_rest_anim_mode_right_hand_to_calculator_anim_data@@3UPILOT_ANIM_DATA@@A DD 03e4ccccdr ; 0.2 ; pilot_rest_anim_mode_right_hand_to_calculator_anim_data
	DD	03e8f5c29r			; 0.28
	DD	03f000000r			; 0.5
	DD	03f000000r			; 0.5
	DD	03f000000r			; 0.5
	DD	03f000000r			; 0.5
	DD	00H
	ORG $+4
	DD	00H
	ORG $+4
	DD	00H
	DD	01eH
?pilot_rest_anim_mode_left_hand_to_hud_switch_anim_data@@3UPILOT_ANIM_DATA@@A DD 03e8f5c29r ; 0.28 ; pilot_rest_anim_mode_left_hand_to_hud_switch_anim_data
	DD	03eb851ecr			; 0.36
	DD	03f000000r			; 0.5
	DD	03f000000r			; 0.5
	DD	03f000000r			; 0.5
	DD	03f000000r			; 0.5
	DD	00H
	ORG $+4
	DD	00H
	ORG $+4
	DD	00H
	DD	0aH
?pilot_rest_anim_mode_left_hand_to_nvg_anim_data@@3UPILOT_ANIM_DATA@@A DD 03eb851ecr ; 0.36 ; pilot_rest_anim_mode_left_hand_to_nvg_anim_data
	DD	03ee147aer			; 0.44
	DD	03f000000r			; 0.5
	DD	03f000000r			; 0.5
	DD	03f000000r			; 0.5
	DD	03f000000r			; 0.5
	DD	00H
	ORG $+4
	DD	00H
	ORG $+4
	DD	00H
	DD	08H
?pilot_rest_anim_mode_both_hands_pull_eject_anim_data@@3UPILOT_ANIM_DATA@@A DD 03ee147aer ; 0.44 ; pilot_rest_anim_mode_both_hands_pull_eject_anim_data
	DD	03f000000r			; 0.5
	DD	03f000000r			; 0.5
	DD	03f000000r			; 0.5
	DD	03f000000r			; 0.5
	DD	03f000000r			; 0.5
	DD	00H
	ORG $+4
	DD	00H
	ORG $+4
	DD	00H
	DD	07aH
?pilot_rest_anim_mode_head_look_down_anim_data@@3UPILOT_ANIM_DATA@@A DD 03f428f5cr ; 0.76 ; pilot_rest_anim_mode_head_look_down_anim_data
	DD	03f4ccccdr			; 0.8
	DD	03f000000r			; 0.5
	DD	03f000000r			; 0.5
	DD	03f000000r			; 0.5
	DD	03f000000r			; 0.5
	DD	00H
	ORG $+4
	DD	00H
	ORG $+4
	DD	00H
	DD	02H
?pilot_rest_anim_mode_head_look_down_left_anim_data@@3UPILOT_ANIM_DATA@@A DD 03f2e147br ; 0.68 ; pilot_rest_anim_mode_head_look_down_left_anim_data
	DD	03f3851ecr			; 0.72
	DD	03f000000r			; 0.5
	DD	03f000000r			; 0.5
	DD	03f000000r			; 0.5
	DD	03f000000r			; 0.5
	DD	00H
	ORG $+4
	DD	00H
	ORG $+4
	DD	00H
	DD	02H
?pilot_rest_anim_mode_head_look_down_right_anim_data@@3UPILOT_ANIM_DATA@@A DD 03f3851ecr ; 0.72 ; pilot_rest_anim_mode_head_look_down_right_anim_data
	DD	03f428f5cr			; 0.76
	DD	03f000000r			; 0.5
	DD	03f000000r			; 0.5
	DD	03f000000r			; 0.5
	DD	03f000000r			; 0.5
	DD	00H
	ORG $+4
	DD	00H
	ORG $+4
	DD	00H
	DD	02H
?pilot_rest_anim_mode_head_look_up_anim_data@@3UPILOT_ANIM_DATA@@A DD 03f4ccccdr ; 0.8 ; pilot_rest_anim_mode_head_look_up_anim_data
	DD	03f570a3dr			; 0.84
	DD	03f000000r			; 0.5
	DD	03f000000r			; 0.5
	DD	03f000000r			; 0.5
	DD	03f000000r			; 0.5
	DD	00H
	ORG $+4
	DD	00H
	ORG $+4
	DD	00H
	DD	02H
?pilot_rest_anim_mode_head_look_up_left_anim_data@@3UPILOT_ANIM_DATA@@A DD 03f6b851fr ; 0.92 ; pilot_rest_anim_mode_head_look_up_left_anim_data
	DD	03f75c28fr			; 0.96
	DD	03f000000r			; 0.5
	DD	03f000000r			; 0.5
	DD	03f000000r			; 0.5
	DD	03f000000r			; 0.5
	DD	00H
	ORG $+4
	DD	00H
	ORG $+4
	DD	00H
	DD	02H
?pilot_rest_anim_mode_head_look_up_right_anim_data@@3UPILOT_ANIM_DATA@@A DD 03f75c28fr ; 0.96 ; pilot_rest_anim_mode_head_look_up_right_anim_data
	DD	03f800000r			; 1
	DD	03f000000r			; 0.5
	DD	03f000000r			; 0.5
	DD	03f000000r			; 0.5
	DD	03f000000r			; 0.5
	DD	00H
	ORG $+4
	DD	00H
	ORG $+4
	DD	00H
	DD	02H
?pilot_rest_anim_mode_head_look_left_anim_data@@3UPILOT_ANIM_DATA@@A DD 03f570a3dr ; 0.84 ; pilot_rest_anim_mode_head_look_left_anim_data
	DD	03f6147aer			; 0.88
	DD	03f000000r			; 0.5
	DD	03f000000r			; 0.5
	DD	03f000000r			; 0.5
	DD	03f000000r			; 0.5
	DD	00H
	ORG $+4
	DD	00H
	ORG $+4
	DD	00H
	DD	02H
?pilot_rest_anim_mode_head_look_right_anim_data@@3UPILOT_ANIM_DATA@@A DD 03f6147aer ; 0.88 ; pilot_rest_anim_mode_head_look_right_anim_data
	DD	03f6b851fr			; 0.92
	DD	03f000000r			; 0.5
	DD	03f000000r			; 0.5
	DD	03f000000r			; 0.5
	DD	03f000000r			; 0.5
	DD	00H
	ORG $+4
	DD	00H
	ORG $+4
	DD	00H
	DD	02H
_DATA	ENDS
;	COMDAT ??_C@_02DKCKIIND@?$CFs@
CONST	SEGMENT
??_C@_02DKCKIIND@?$CFs@ DB '%s', 00H			; `string'
CONST	ENDS
; Function compile flags: /Odtp /ZI
; File c:\users\nhv90\projects\eech\aphavoc\source\gunships\cockpits\ka50\hm_pilot.c
;	COMDAT ?update_pilot_head_tilt_animation@@YGXXZ
_TEXT	SEGMENT
tv150 = -84						; size = 4
tv140 = -84						; size = 4
tv93 = -84						; size = 4
tv85 = -84						; size = 4
tv151 = -80						; size = 4
tv141 = -80						; size = 4
tv94 = -80						; size = 4
tv77 = -80						; size = 4
_anim_frame$ = -12					; size = 4
_frame$ = -8						; size = 4
_pilot_head_tilt_angle$ = -4				; size = 4
?update_pilot_head_tilt_animation@@YGXXZ PROC		; update_pilot_head_tilt_animation, COMDAT

; 3001 : {

  00000	55		 push	 ebp
  00001	8b ec		 mov	 ebp, esp
  00003	83 ec 54	 sub	 esp, 84			; 00000054H
  00006	53		 push	 ebx
  00007	56		 push	 esi
  00008	57		 push	 edi

; 3002 : 	float
; 3003 : 		pilot_head_tilt_angle,
; 3004 : 		frame,
; 3005 : 		anim_frame;
; 3006 : 
; 3007 : 	ASSERT (pilot_rest_anim_mode == PILOT_REST_ANIM_MODE_NONE);

  00009	83 3d 00 00 00
	00 00		 cmp	 DWORD PTR ?pilot_rest_anim_mode@@3W4PILOT_REST_ANIM_MODES@@A, 0
  00010	74 18		 je	 SHORT $LN2@update_pil
  00012	a1 00 00 00 00	 mov	 eax, DWORD PTR ?__LINE__Var@?0??update_pilot_head_tilt_animation@@YGXXZ@4JA
  00017	83 c0 06	 add	 eax, 6
  0001a	50		 push	 eax
  0001b	68 00 00 00 00	 push	 OFFSET ??_C@_0EO@MOFNGMIK@c?3?2users?2nhv90?2projects?2eech?2ap@
  00020	68 00 00 00 00	 push	 OFFSET ??_C@_0DC@BDFIJKFN@pilot_rest_anim_mode?5?$DN?$DN?5PILOT_R@
  00025	e8 00 00 00 00	 call	 ?process_assert@@YGXPBD0H@Z ; process_assert
$LN2@update_pil:

; 3008 : 
; 3009 : 	if (pilot_rest_anim_delay < 1.0)

  0002a	f3 0f 5a 05 00
	00 00 00	 cvtss2sd xmm0, DWORD PTR ?pilot_rest_anim_delay@@3MA
  00032	f2 0f 10 0d 00
	00 00 00	 movsd	 xmm1, QWORD PTR __real@3ff0000000000000
  0003a	66 0f 2f c8	 comisd	 xmm1, xmm0
  0003e	76 0d		 jbe	 SHORT $LN3@update_pil

; 3010 : 	{
; 3011 : 		pilot_head_tilt_angle = 0.0;

  00040	0f 57 c0	 xorps	 xmm0, xmm0
  00043	f3 0f 11 45 fc	 movss	 DWORD PTR _pilot_head_tilt_angle$[ebp], xmm0

; 3012 : 	}
; 3013 : 	else

  00048	e9 88 00 00 00	 jmp	 $LN4@update_pil
$LN3@update_pil:

; 3014 : 	{
; 3015 : 		pilot_head_tilt_angle = get_local_entity_float_value (get_gunship_entity (), FLOAT_TYPE_ROLL);

  0004d	83 3d 00 00 00
	00 00		 cmp	 DWORD PTR ?gunship_entity@@3PAUENTITY@@A, 0 ; gunship_entity
  00054	74 0c		 je	 SHORT $LN8@update_pil
  00056	a1 00 00 00 00	 mov	 eax, DWORD PTR ?gunship_entity@@3PAUENTITY@@A ; gunship_entity
  0005b	8b 08		 mov	 ecx, DWORD PTR [eax]
  0005d	89 4d b0	 mov	 DWORD PTR tv77[ebp], ecx
  00060	eb 21		 jmp	 SHORT $LN9@update_pil
$LN8@update_pil:
  00062	8b 15 00 00 00
	00		 mov	 edx, DWORD PTR ?__LINE__Var@?0??update_pilot_head_tilt_animation@@YGXXZ@4JA
  00068	83 c2 0e	 add	 edx, 14			; 0000000eH
  0006b	52		 push	 edx
  0006c	68 00 00 00 00	 push	 OFFSET ??_C@_0EO@MOFNGMIK@c?3?2users?2nhv90?2projects?2eech?2ap@
  00071	a1 00 00 00 00	 mov	 eax, DWORD PTR ?null_entity_pointer_message@@3PBDB ; null_entity_pointer_message
  00076	50		 push	 eax
  00077	e8 00 00 00 00	 call	 ?process_assert@@YGXPBD0H@Z ; process_assert
  0007c	c7 45 b0 00 00
	00 00		 mov	 DWORD PTR tv77[ebp], 0
$LN9@update_pil:
  00083	b9 01 00 00 00	 mov	 ecx, 1
  00088	85 c9		 test	 ecx, ecx
  0008a	74 09		 je	 SHORT $LN10@update_pil
  0008c	c7 45 ac 71 00
	00 00		 mov	 DWORD PTR tv85[ebp], 113 ; 00000071H
  00093	eb 21		 jmp	 SHORT $LN11@update_pil
$LN10@update_pil:
  00095	8b 15 00 00 00
	00		 mov	 edx, DWORD PTR ?__LINE__Var@?0??update_pilot_head_tilt_animation@@YGXXZ@4JA
  0009b	83 c2 0e	 add	 edx, 14			; 0000000eH
  0009e	52		 push	 edx
  0009f	68 00 00 00 00	 push	 OFFSET ??_C@_0EO@MOFNGMIK@c?3?2users?2nhv90?2projects?2eech?2ap@
  000a4	a1 00 00 00 00	 mov	 eax, DWORD PTR ?overload_invalid_float_type_message@@3PBDB ; overload_invalid_float_type_message
  000a9	50		 push	 eax
  000aa	e8 00 00 00 00	 call	 ?process_assert@@YGXPBD0H@Z ; process_assert
  000af	c7 45 ac 00 00
	00 00		 mov	 DWORD PTR tv85[ebp], 0
$LN11@update_pil:
  000b6	6a 71		 push	 113			; 00000071H
  000b8	8b 0d 00 00 00
	00		 mov	 ecx, DWORD PTR ?gunship_entity@@3PAUENTITY@@A ; gunship_entity
  000be	51		 push	 ecx
  000bf	69 55 b0 bc 02
	00 00		 imul	 edx, DWORD PTR tv77[ebp], 700
  000c6	8b 45 ac	 mov	 eax, DWORD PTR tv85[ebp]
  000c9	8b 8c 82 00 00
	00 00		 mov	 ecx, DWORD PTR ?fn_get_local_entity_float_value@@3PAY0KP@P6GMPAUENTITY@@W4FLOAT_TYPES@@@ZA[edx+eax*4]
  000d0	ff d1		 call	 ecx
  000d2	d9 5d fc	 fstp	 DWORD PTR _pilot_head_tilt_angle$[ebp]
$LN4@update_pil:

; 3016 : 	}
; 3017 : 
; 3018 : 	pilot_head_tilt_angle = bound (pilot_head_tilt_angle, -MAX_ROLL, MAX_ROLL);

  000d5	f3 0f 10 05 00
	00 00 00	 movss	 xmm0, DWORD PTR __real@be32b8c2
  000dd	0f 2f 45 fc	 comiss	 xmm0, DWORD PTR _pilot_head_tilt_angle$[ebp]
  000e1	76 0f		 jbe	 SHORT $LN14@update_pil
  000e3	f3 0f 10 05 00
	00 00 00	 movss	 xmm0, DWORD PTR __real@be32b8c2
  000eb	f3 0f 11 45 b0	 movss	 DWORD PTR tv94[ebp], xmm0
  000f0	eb 31		 jmp	 SHORT $LN15@update_pil
$LN14@update_pil:
  000f2	f3 0f 10 45 fc	 movss	 xmm0, DWORD PTR _pilot_head_tilt_angle$[ebp]
  000f7	0f 2f 05 00 00
	00 00		 comiss	 xmm0, DWORD PTR __real@3e32b8c2
  000fe	76 0f		 jbe	 SHORT $LN12@update_pil
  00100	f3 0f 10 05 00
	00 00 00	 movss	 xmm0, DWORD PTR __real@3e32b8c2
  00108	f3 0f 11 45 ac	 movss	 DWORD PTR tv93[ebp], xmm0
  0010d	eb 0a		 jmp	 SHORT $LN13@update_pil
$LN12@update_pil:
  0010f	f3 0f 10 45 fc	 movss	 xmm0, DWORD PTR _pilot_head_tilt_angle$[ebp]
  00114	f3 0f 11 45 ac	 movss	 DWORD PTR tv93[ebp], xmm0
$LN13@update_pil:
  00119	f3 0f 10 45 ac	 movss	 xmm0, DWORD PTR tv93[ebp]
  0011e	f3 0f 11 45 b0	 movss	 DWORD PTR tv94[ebp], xmm0
$LN15@update_pil:
  00123	f3 0f 10 45 b0	 movss	 xmm0, DWORD PTR tv94[ebp]
  00128	f3 0f 11 45 fc	 movss	 DWORD PTR _pilot_head_tilt_angle$[ebp], xmm0

; 3019 : 
; 3020 : 	pilot_head_tilt_angle = (pilot_head_tilt_angle + previous_pilot_head_tilt_angle) * 0.5;

  0012d	f3 0f 10 45 fc	 movss	 xmm0, DWORD PTR _pilot_head_tilt_angle$[ebp]
  00132	f3 0f 58 05 00
	00 00 00	 addss	 xmm0, DWORD PTR ?previous_pilot_head_tilt_angle@@3MA
  0013a	f3 0f 5a c0	 cvtss2sd xmm0, xmm0
  0013e	f2 0f 59 05 00
	00 00 00	 mulsd	 xmm0, QWORD PTR __real@3fe0000000000000
  00146	f2 0f 5a c0	 cvtsd2ss xmm0, xmm0
  0014a	f3 0f 11 45 fc	 movss	 DWORD PTR _pilot_head_tilt_angle$[ebp], xmm0

; 3021 : 
; 3022 : 	if (pilot_head_tilt_angle >= 0.0)

  0014f	f3 0f 5a 45 fc	 cvtss2sd xmm0, DWORD PTR _pilot_head_tilt_angle$[ebp]
  00154	66 0f 2f 05 00
	00 00 00	 comisd	 xmm0, QWORD PTR __real@0000000000000000
  0015c	0f 82 83 00 00
	00		 jb	 $LN5@update_pil

; 3023 : 	{
; 3024 : 		frame = pilot_head_tilt_angle * (1.0 / MAX_ROLL);

  00162	f3 0f 5a 45 fc	 cvtss2sd xmm0, DWORD PTR _pilot_head_tilt_angle$[ebp]
  00167	f2 0f 59 05 00
	00 00 00	 mulsd	 xmm0, QWORD PTR __real@4016eb1686b280e6
  0016f	f2 0f 5a c0	 cvtsd2ss xmm0, xmm0
  00173	f3 0f 11 45 f8	 movss	 DWORD PTR _frame$[ebp], xmm0

; 3025 : 
; 3026 : 		anim_frame = ((PILOT_HEAD_TILT_RIGHT_ANIM_END - PILOT_HEAD_TILT_RIGHT_ANIM_START) * frame) + PILOT_HEAD_TILT_RIGHT_ANIM_START;

  00178	f3 0f 10 05 00
	00 00 00	 movss	 xmm0, DWORD PTR __real@3c23d70a
  00180	f3 0f 59 45 f8	 mulss	 xmm0, DWORD PTR _frame$[ebp]
  00185	f3 0f 58 05 00
	00 00 00	 addss	 xmm0, DWORD PTR __real@00000000
  0018d	f3 0f 11 45 f4	 movss	 DWORD PTR _anim_frame$[ebp], xmm0

; 3027 : 
; 3028 : 		anim_frame = bound (anim_frame, PILOT_HEAD_TILT_RIGHT_ANIM_START, PILOT_HEAD_TILT_RIGHT_ANIM_END);

  00192	0f 57 c0	 xorps	 xmm0, xmm0
  00195	0f 2f 45 f4	 comiss	 xmm0, DWORD PTR _anim_frame$[ebp]
  00199	76 0a		 jbe	 SHORT $LN18@update_pil
  0019b	0f 57 c0	 xorps	 xmm0, xmm0
  0019e	f3 0f 11 45 b0	 movss	 DWORD PTR tv141[ebp], xmm0
  001a3	eb 31		 jmp	 SHORT $LN19@update_pil
$LN18@update_pil:
  001a5	f3 0f 10 45 f4	 movss	 xmm0, DWORD PTR _anim_frame$[ebp]
  001aa	0f 2f 05 00 00
	00 00		 comiss	 xmm0, DWORD PTR __real@3c23d70a
  001b1	76 0f		 jbe	 SHORT $LN16@update_pil
  001b3	f3 0f 10 05 00
	00 00 00	 movss	 xmm0, DWORD PTR __real@3c23d70a
  001bb	f3 0f 11 45 ac	 movss	 DWORD PTR tv140[ebp], xmm0
  001c0	eb 0a		 jmp	 SHORT $LN17@update_pil
$LN16@update_pil:
  001c2	f3 0f 10 45 f4	 movss	 xmm0, DWORD PTR _anim_frame$[ebp]
  001c7	f3 0f 11 45 ac	 movss	 DWORD PTR tv140[ebp], xmm0
$LN17@update_pil:
  001cc	f3 0f 10 45 ac	 movss	 xmm0, DWORD PTR tv140[ebp]
  001d1	f3 0f 11 45 b0	 movss	 DWORD PTR tv141[ebp], xmm0
$LN19@update_pil:
  001d6	f3 0f 10 45 b0	 movss	 xmm0, DWORD PTR tv141[ebp]
  001db	f3 0f 11 45 f4	 movss	 DWORD PTR _anim_frame$[ebp], xmm0

; 3029 : 	}
; 3030 : 	else

  001e0	e9 93 00 00 00	 jmp	 $LN6@update_pil
$LN5@update_pil:

; 3031 : 	{
; 3032 : 		frame = -pilot_head_tilt_angle * (1.0 / MAX_ROLL);

  001e5	f3 0f 10 45 fc	 movss	 xmm0, DWORD PTR _pilot_head_tilt_angle$[ebp]
  001ea	0f 57 05 00 00
	00 00		 xorps	 xmm0, DWORD PTR __xmm@80000000800000008000000080000000
  001f1	f3 0f 5a c0	 cvtss2sd xmm0, xmm0
  001f5	f2 0f 59 05 00
	00 00 00	 mulsd	 xmm0, QWORD PTR __real@4016eb1686b280e6
  001fd	f2 0f 5a c0	 cvtsd2ss xmm0, xmm0
  00201	f3 0f 11 45 f8	 movss	 DWORD PTR _frame$[ebp], xmm0

; 3033 : 
; 3034 : 		anim_frame = ((PILOT_HEAD_TILT_LEFT_ANIM_END - PILOT_HEAD_TILT_LEFT_ANIM_START) * frame) + PILOT_HEAD_TILT_LEFT_ANIM_START;

  00206	f3 0f 10 05 00
	00 00 00	 movss	 xmm0, DWORD PTR __real@3c23d70a
  0020e	f3 0f 59 45 f8	 mulss	 xmm0, DWORD PTR _frame$[ebp]
  00213	f3 0f 58 05 00
	00 00 00	 addss	 xmm0, DWORD PTR __real@3ca3d70a
  0021b	f3 0f 11 45 f4	 movss	 DWORD PTR _anim_frame$[ebp], xmm0

; 3035 : 
; 3036 : 		anim_frame = bound (anim_frame, PILOT_HEAD_TILT_LEFT_ANIM_START, PILOT_HEAD_TILT_LEFT_ANIM_END);

  00220	f3 0f 10 05 00
	00 00 00	 movss	 xmm0, DWORD PTR __real@3ca3d70a
  00228	0f 2f 45 f4	 comiss	 xmm0, DWORD PTR _anim_frame$[ebp]
  0022c	76 0f		 jbe	 SHORT $LN22@update_pil
  0022e	f3 0f 10 05 00
	00 00 00	 movss	 xmm0, DWORD PTR __real@3ca3d70a
  00236	f3 0f 11 45 b0	 movss	 DWORD PTR tv151[ebp], xmm0
  0023b	eb 31		 jmp	 SHORT $LN23@update_pil
$LN22@update_pil:
  0023d	f3 0f 10 45 f4	 movss	 xmm0, DWORD PTR _anim_frame$[ebp]
  00242	0f 2f 05 00 00
	00 00		 comiss	 xmm0, DWORD PTR __real@3cf5c28f
  00249	76 0f		 jbe	 SHORT $LN20@update_pil
  0024b	f3 0f 10 05 00
	00 00 00	 movss	 xmm0, DWORD PTR __real@3cf5c28f
  00253	f3 0f 11 45 ac	 movss	 DWORD PTR tv150[ebp], xmm0
  00258	eb 0a		 jmp	 SHORT $LN21@update_pil
$LN20@update_pil:
  0025a	f3 0f 10 45 f4	 movss	 xmm0, DWORD PTR _anim_frame$[ebp]
  0025f	f3 0f 11 45 ac	 movss	 DWORD PTR tv150[ebp], xmm0
$LN21@update_pil:
  00264	f3 0f 10 45 ac	 movss	 xmm0, DWORD PTR tv150[ebp]
  00269	f3 0f 11 45 b0	 movss	 DWORD PTR tv151[ebp], xmm0
$LN23@update_pil:
  0026e	f3 0f 10 45 b0	 movss	 xmm0, DWORD PTR tv151[ebp]
  00273	f3 0f 11 45 f4	 movss	 DWORD PTR _anim_frame$[ebp], xmm0
$LN6@update_pil:

; 3037 : 	}
; 3038 : 
; 3039 : 	animate_entity_simple_keyframed_sub_objects (virtual_cockpit_inst3d, OBJECT_3D_SUB_OBJECT_PILOT_HEAD, anim_frame);

  00278	51		 push	 ecx
  00279	f3 0f 10 45 f4	 movss	 xmm0, DWORD PTR _anim_frame$[ebp]
  0027e	f3 0f 11 04 24	 movss	 DWORD PTR [esp], xmm0
  00283	68 bf 00 00 00	 push	 191			; 000000bfH
  00288	a1 00 00 00 00	 mov	 eax, DWORD PTR ?virtual_cockpit_inst3d@@3PAUOBJECT_3D_INSTANCE@@A ; virtual_cockpit_inst3d
  0028d	50		 push	 eax
  0028e	e8 00 00 00 00	 call	 ?animate_entity_simple_keyframed_sub_objects@@YGXPAUOBJECT_3D_INSTANCE@@HM@Z ; animate_entity_simple_keyframed_sub_objects

; 3040 : 
; 3041 : 	previous_pilot_head_tilt_angle = pilot_head_tilt_angle;

  00293	f3 0f 10 45 fc	 movss	 xmm0, DWORD PTR _pilot_head_tilt_angle$[ebp]
  00298	f3 0f 11 05 00
	00 00 00	 movss	 DWORD PTR ?previous_pilot_head_tilt_angle@@3MA, xmm0

; 3042 : }

  002a0	5f		 pop	 edi
  002a1	5e		 pop	 esi
  002a2	5b		 pop	 ebx
  002a3	8b e5		 mov	 esp, ebp
  002a5	5d		 pop	 ebp
  002a6	c3		 ret	 0
?update_pilot_head_tilt_animation@@YGXXZ ENDP		; update_pilot_head_tilt_animation
_TEXT	ENDS
; Function compile flags: /Odtp /ZI
; File c:\users\nhv90\projects\eech\aphavoc\source\gunships\cockpits\ka50\hm_pilot.c
;	COMDAT ?update_pilot_animation@@YGXXZ
_TEXT	SEGMENT
tv80 = -72						; size = 4
tv93 = -68						; size = 4
tv73 = -68						; size = 4
?update_pilot_animation@@YGXXZ PROC			; update_pilot_animation, COMDAT

; 2806 : {

  00000	55		 push	 ebp
  00001	8b ec		 mov	 ebp, esp
  00003	83 ec 48	 sub	 esp, 72			; 00000048H
  00006	53		 push	 ebx
  00007	56		 push	 esi
  00008	57		 push	 edi

; 2807 : 	get_pilot_cyclic_position (&cyclic_x_position, &cyclic_y_position);

  00009	68 00 00 00 00	 push	 OFFSET ?cyclic_y_position@@3MA
  0000e	68 00 00 00 00	 push	 OFFSET ?cyclic_x_position@@3MA
  00013	e8 00 00 00 00	 call	 ?get_pilot_cyclic_position@@YGXPAM0@Z ; get_pilot_cyclic_position

; 2808 : 
; 2809 : 	collective_position = get_pilot_collective_position ();

  00018	e8 00 00 00 00	 call	 ?get_pilot_collective_position@@YGMXZ ; get_pilot_collective_position
  0001d	d9 1d 00 00 00
	00		 fstp	 DWORD PTR ?collective_position@@3MA

; 2810 : 
; 2811 : 	pedal_position = get_pilot_pedal_position ();

  00023	e8 00 00 00 00	 call	 ?get_pilot_pedal_position@@YGMXZ ; get_pilot_pedal_position
  00028	d9 1d 00 00 00
	00		 fstp	 DWORD PTR ?pedal_position@@3MA

; 2812 : 
; 2813 : 	////////////////////////////////////////
; 2814 : 
; 2815 : 	pilot_animation_updated = FALSE;

  0002e	c7 05 00 00 00
	00 00 00 00 00	 mov	 DWORD PTR ?pilot_animation_updated@@3HA, 0

; 2816 : 
; 2817 : 	pilot_head_anim_frame = NO_PILOT_HEAD_ANIMATION;

  00038	f3 0f 10 05 00
	00 00 00	 movss	 xmm0, DWORD PTR __real@bf800000
  00040	f3 0f 11 05 00
	00 00 00	 movss	 DWORD PTR ?pilot_head_anim_frame@@3MA, xmm0

; 2818 : 
; 2819 : 	////////////////////////////////////////
; 2820 : 	//
; 2821 : 	// eject
; 2822 : 	//
; 2823 : 	////////////////////////////////////////
; 2824 : 
; 2825 : 	if (get_local_entity_int_value (get_gunship_entity (), INT_TYPE_EJECTED))

  00048	83 3d 00 00 00
	00 00		 cmp	 DWORD PTR ?gunship_entity@@3PAUENTITY@@A, 0 ; gunship_entity
  0004f	74 0c		 je	 SHORT $LN24@update_pil
  00051	a1 00 00 00 00	 mov	 eax, DWORD PTR ?gunship_entity@@3PAUENTITY@@A ; gunship_entity
  00056	8b 08		 mov	 ecx, DWORD PTR [eax]
  00058	89 4d bc	 mov	 DWORD PTR tv73[ebp], ecx
  0005b	eb 1d		 jmp	 SHORT $LN25@update_pil
$LN24@update_pil:
  0005d	68 09 0b 00 00	 push	 2825			; 00000b09H
  00062	68 00 00 00 00	 push	 OFFSET ??_C@_0EO@MOFNGMIK@c?3?2users?2nhv90?2projects?2eech?2ap@
  00067	8b 15 00 00 00
	00		 mov	 edx, DWORD PTR ?null_entity_pointer_message@@3PBDB ; null_entity_pointer_message
  0006d	52		 push	 edx
  0006e	e8 00 00 00 00	 call	 ?process_assert@@YGXPBD0H@Z ; process_assert
  00073	c7 45 bc 00 00
	00 00		 mov	 DWORD PTR tv73[ebp], 0
$LN25@update_pil:
  0007a	b8 01 00 00 00	 mov	 eax, 1
  0007f	85 c0		 test	 eax, eax
  00081	74 09		 je	 SHORT $LN26@update_pil
  00083	c7 45 b8 31 00
	00 00		 mov	 DWORD PTR tv80[ebp], 49	; 00000031H
  0008a	eb 1d		 jmp	 SHORT $LN27@update_pil
$LN26@update_pil:
  0008c	68 09 0b 00 00	 push	 2825			; 00000b09H
  00091	68 00 00 00 00	 push	 OFFSET ??_C@_0EO@MOFNGMIK@c?3?2users?2nhv90?2projects?2eech?2ap@
  00096	8b 0d 00 00 00
	00		 mov	 ecx, DWORD PTR ?overload_invalid_int_type_message@@3PBDB ; overload_invalid_int_type_message
  0009c	51		 push	 ecx
  0009d	e8 00 00 00 00	 call	 ?process_assert@@YGXPBD0H@Z ; process_assert
  000a2	c7 45 b8 00 00
	00 00		 mov	 DWORD PTR tv80[ebp], 0
$LN27@update_pil:
  000a9	6a 31		 push	 49			; 00000031H
  000ab	8b 15 00 00 00
	00		 mov	 edx, DWORD PTR ?gunship_entity@@3PAUENTITY@@A ; gunship_entity
  000b1	52		 push	 edx
  000b2	69 45 bc 5c 04
	00 00		 imul	 eax, DWORD PTR tv73[ebp], 1116
  000b9	8b 4d b8	 mov	 ecx, DWORD PTR tv80[ebp]
  000bc	8b 94 88 00 00
	00 00		 mov	 edx, DWORD PTR ?fn_get_local_entity_int_value@@3PAY0BBH@P6GHPAUENTITY@@W4INT_TYPES@@@ZA[eax+ecx*4]
  000c3	ff d2		 call	 edx
  000c5	85 c0		 test	 eax, eax
  000c7	0f 84 ac 00 00
	00		 je	 $LN8@update_pil

; 2826 : 	{
; 2827 : 		if (get_crew_role () == CREW_ROLE_PILOT)

  000cd	e8 00 00 00 00	 call	 ?get_crew_role@@YG?AW4CREW_ROLES@@XZ ; get_crew_role
  000d2	85 c0		 test	 eax, eax
  000d4	0f 85 9f 00 00
	00		 jne	 $LN8@update_pil

; 2828 : 		{
; 2829 : 			if ((pilot_rest_anim_mode != PILOT_REST_ANIM_MODE_BOTH_HANDS_PULL_EJECT) && (eject_stage == 0))

  000da	83 3d 00 00 00
	00 05		 cmp	 DWORD PTR ?pilot_rest_anim_mode@@3W4PILOT_REST_ANIM_MODES@@A, 5
  000e1	0f 84 92 00 00
	00		 je	 $LN8@update_pil
  000e7	83 3d 00 00 00
	00 00		 cmp	 DWORD PTR ?eject_stage@@3HA, 0
  000ee	0f 85 85 00 00
	00		 jne	 $LN8@update_pil

; 2830 : 			{
; 2831 : 				//
; 2832 : 				// set main anim
; 2833 : 				//
; 2834 : 
; 2835 : 				pilot_main_anim_mode = PILOT_MAIN_ANIM_MODE_HANDS_OFF_CONTROLS;

  000f4	c7 05 00 00 00
	00 00 00 00 00	 mov	 DWORD PTR ?pilot_main_anim_mode@@3W4PILOT_MAIN_ANIM_MODES@@A, 0

; 2836 : 
; 2837 : 				pilot_main_anim_frame = 1.0;

  000fe	f3 0f 10 05 00
	00 00 00	 movss	 xmm0, DWORD PTR __real@3f800000
  00106	f3 0f 11 05 00
	00 00 00	 movss	 DWORD PTR ?pilot_main_anim_frame@@3MA, xmm0

; 2838 : 
; 2839 : 				//
; 2840 : 				// set rest anim
; 2841 : 				//
; 2842 : 
; 2843 : 				pilot_rest_anim_mode = PILOT_REST_ANIM_MODE_BOTH_HANDS_PULL_EJECT;

  0010e	c7 05 00 00 00
	00 05 00 00 00	 mov	 DWORD PTR ?pilot_rest_anim_mode@@3W4PILOT_REST_ANIM_MODES@@A, 5

; 2844 : 
; 2845 : 				previous_random_pilot_rest_anim_mode = pilot_rest_anim_mode;

  00118	a1 00 00 00 00	 mov	 eax, DWORD PTR ?pilot_rest_anim_mode@@3W4PILOT_REST_ANIM_MODES@@A
  0011d	a3 00 00 00 00	 mov	 DWORD PTR ?previous_random_pilot_rest_anim_mode@@3W4PILOT_REST_ANIM_MODES@@A, eax

; 2846 : 
; 2847 : 				pilot_rest_anim_frame = 0.0;

  00122	0f 57 c0	 xorps	 xmm0, xmm0
  00125	f3 0f 11 05 00
	00 00 00	 movss	 DWORD PTR ?pilot_rest_anim_frame@@3MA, xmm0

; 2848 : 
; 2849 : 				pilot_rest_anim_delay = get_reset_pilot_rest_anim_delay ();

  0012d	e8 00 00 00 00	 call	 ?get_reset_pilot_rest_anim_delay@@YGMXZ ; get_reset_pilot_rest_anim_delay
  00132	d9 1d 00 00 00
	00		 fstp	 DWORD PTR ?pilot_rest_anim_delay@@3MA

; 2850 : 
; 2851 : 				pilot_head_anim_frame = NO_PILOT_HEAD_ANIMATION;

  00138	f3 0f 10 05 00
	00 00 00	 movss	 xmm0, DWORD PTR __real@bf800000
  00140	f3 0f 11 05 00
	00 00 00	 movss	 DWORD PTR ?pilot_head_anim_frame@@3MA, xmm0

; 2852 : 
; 2853 : 				pilot_head_anim_pause = 0.0;

  00148	0f 57 c0	 xorps	 xmm0, xmm0
  0014b	f3 0f 11 05 00
	00 00 00	 movss	 DWORD PTR ?pilot_head_anim_pause@@3MA, xmm0

; 2854 : 
; 2855 : 				if (night_vision_system_active)

  00153	83 3d 00 00 00
	00 00		 cmp	 DWORD PTR ?night_vision_system_active@@3HA, 0 ; night_vision_system_active
  0015a	74 12		 je	 SHORT $LN7@update_pil

; 2856 : 				{
; 2857 : 					pilot_nvg_anim_frame = NVG_ON;

  0015c	f3 0f 10 05 00
	00 00 00	 movss	 xmm0, DWORD PTR __real@3f800000
  00164	f3 0f 11 05 00
	00 00 00	 movss	 DWORD PTR ?pilot_nvg_anim_frame@@3MA, xmm0

; 2858 : 				}
; 2859 : 				else

  0016c	eb 0b		 jmp	 SHORT $LN8@update_pil
$LN7@update_pil:

; 2860 : 				{
; 2861 : 					pilot_nvg_anim_frame = NVG_OFF;

  0016e	0f 57 c0	 xorps	 xmm0, xmm0
  00171	f3 0f 11 05 00
	00 00 00	 movss	 DWORD PTR ?pilot_nvg_anim_frame@@3MA, xmm0
$LN8@update_pil:

; 2862 : 				}
; 2863 : 			}
; 2864 : 		}
; 2865 : 	}
; 2866 : 
; 2867 : 	////////////////////////////////////////
; 2868 : 
; 2869 : 	switch (pilot_main_anim_mode)

  00179	a1 00 00 00 00	 mov	 eax, DWORD PTR ?pilot_main_anim_mode@@3W4PILOT_MAIN_ANIM_MODES@@A
  0017e	89 45 bc	 mov	 DWORD PTR tv93[ebp], eax
  00181	83 7d bc 0c	 cmp	 DWORD PTR tv93[ebp], 12	; 0000000cH
  00185	77 63		 ja	 SHORT $LN2@update_pil
  00187	8b 4d bc	 mov	 ecx, DWORD PTR tv93[ebp]
  0018a	ff 24 8d 00 00
	00 00		 jmp	 DWORD PTR $LN28@update_pil[ecx*4]
$LN9@update_pil:

; 2870 : 	{
; 2871 : 		////////////////////////////////////////
; 2872 : 		case PILOT_MAIN_ANIM_MODE_HANDS_OFF_CONTROLS:
; 2873 : 		////////////////////////////////////////
; 2874 : 		{
; 2875 : 			update_pilot_hands_off_controls ();

  00191	e8 00 00 00 00	 call	 ?update_pilot_hands_off_controls@@YGXXZ ; update_pilot_hands_off_controls

; 2876 : 
; 2877 : 			break;

  00196	eb 52		 jmp	 SHORT $LN2@update_pil
$LN10@update_pil:

; 2878 : 		}
; 2879 : 		////////////////////////////////////////
; 2880 : 		case PILOT_MAIN_ANIM_MODE_TAKING_CONTROLS:
; 2881 : 		////////////////////////////////////////
; 2882 : 		{
; 2883 : 			update_pilot_taking_controls ();

  00198	e8 00 00 00 00	 call	 ?update_pilot_taking_controls@@YGXXZ ; update_pilot_taking_controls

; 2884 : 
; 2885 : 			break;

  0019d	eb 4b		 jmp	 SHORT $LN2@update_pil
$LN11@update_pil:

; 2886 : 		}
; 2887 : 		////////////////////////////////////////
; 2888 : 		case PILOT_MAIN_ANIM_MODE_MOVING_CONTROLS_FROM_CENTRE1:
; 2889 : 		////////////////////////////////////////
; 2890 : 		{
; 2891 : 			update_pilot_moving_controls_from_centre1 ();

  0019f	e8 00 00 00 00	 call	 ?update_pilot_moving_controls_from_centre1@@YGXXZ ; update_pilot_moving_controls_from_centre1

; 2892 : 
; 2893 : 			break;

  001a4	eb 44		 jmp	 SHORT $LN2@update_pil
$LN12@update_pil:

; 2894 : 		}
; 2895 : 		////////////////////////////////////////
; 2896 : 		case PILOT_MAIN_ANIM_MODE_MOVING_CONTROLS_FROM_CENTRE2:
; 2897 : 		////////////////////////////////////////
; 2898 : 		{
; 2899 : 			update_pilot_moving_controls_from_centre2 ();

  001a6	e8 00 00 00 00	 call	 ?update_pilot_moving_controls_from_centre2@@YGXXZ ; update_pilot_moving_controls_from_centre2

; 2900 : 
; 2901 : 			break;

  001ab	eb 3d		 jmp	 SHORT $LN2@update_pil
$LN13@update_pil:

; 2902 : 		}
; 2903 : 		////////////////////////////////////////
; 2904 : 		case PILOT_MAIN_ANIM_MODE_HANDS_ON_CONTROLS:
; 2905 : 		////////////////////////////////////////
; 2906 : 		{
; 2907 : 			update_pilot_hands_on_controls ();

  001ad	e8 00 00 00 00	 call	 ?update_pilot_hands_on_controls@@YGXXZ ; update_pilot_hands_on_controls

; 2908 : 
; 2909 : 			break;

  001b2	eb 36		 jmp	 SHORT $LN2@update_pil
$LN14@update_pil:

; 2910 : 		}
; 2911 : 		////////////////////////////////////////
; 2912 : 		case PILOT_MAIN_ANIM_MODE_MOVING_CONTROLS_TO_CENTRE1:
; 2913 : 		////////////////////////////////////////
; 2914 : 		{
; 2915 : 			update_pilot_moving_controls_to_centre1 ();

  001b4	e8 00 00 00 00	 call	 ?update_pilot_moving_controls_to_centre1@@YGXXZ ; update_pilot_moving_controls_to_centre1

; 2916 : 
; 2917 : 			break;

  001b9	eb 2f		 jmp	 SHORT $LN2@update_pil
$LN15@update_pil:

; 2918 : 		}
; 2919 : 		////////////////////////////////////////
; 2920 : 		case PILOT_MAIN_ANIM_MODE_MOVING_CONTROLS_TO_CENTRE2:
; 2921 : 		////////////////////////////////////////
; 2922 : 		{
; 2923 : 			update_pilot_moving_controls_to_centre2 ();

  001bb	e8 00 00 00 00	 call	 ?update_pilot_moving_controls_to_centre2@@YGXXZ ; update_pilot_moving_controls_to_centre2

; 2924 : 
; 2925 : 			break;

  001c0	eb 28		 jmp	 SHORT $LN2@update_pil
$LN16@update_pil:

; 2926 : 		}
; 2927 : 		////////////////////////////////////////
; 2928 : 		case PILOT_MAIN_ANIM_MODE_RELEASING_CONTROLS:
; 2929 : 		////////////////////////////////////////
; 2930 : 		{
; 2931 : 			update_pilot_releasing_controls ();

  001c2	e8 00 00 00 00	 call	 ?update_pilot_releasing_controls@@YGXXZ ; update_pilot_releasing_controls

; 2932 : 
; 2933 : 			break;

  001c7	eb 21		 jmp	 SHORT $LN2@update_pil
$LN17@update_pil:

; 2934 : 		}
; 2935 : 		////////////////////////////////////////
; 2936 : 		case PILOT_MAIN_ANIM_MODE_LEFT_HAND_TO_NVG:
; 2937 : 		////////////////////////////////////////
; 2938 : 		{
; 2939 : 			update_pilot_left_hand_to_nvg ();

  001c9	e8 00 00 00 00	 call	 ?update_pilot_left_hand_to_nvg@@YGXXZ ; update_pilot_left_hand_to_nvg

; 2940 : 
; 2941 : 			break;

  001ce	eb 1a		 jmp	 SHORT $LN2@update_pil
$LN18@update_pil:

; 2942 : 		}
; 2943 : 		////////////////////////////////////////
; 2944 : 		case PILOT_MAIN_ANIM_MODE_COLLECTIVE_TO_CENTRE1:
; 2945 : 		////////////////////////////////////////
; 2946 : 		{
; 2947 : 			update_pilot_collective_to_centre1 ();

  001d0	e8 00 00 00 00	 call	 ?update_pilot_collective_to_centre1@@YGXXZ ; update_pilot_collective_to_centre1

; 2948 : 
; 2949 : 			break;

  001d5	eb 13		 jmp	 SHORT $LN2@update_pil
$LN19@update_pil:

; 2950 : 		}
; 2951 : 		////////////////////////////////////////
; 2952 : 		case PILOT_MAIN_ANIM_MODE_COLLECTIVE_TO_CENTRE2:
; 2953 : 		////////////////////////////////////////
; 2954 : 		{
; 2955 : 			update_pilot_collective_to_centre2 ();

  001d7	e8 00 00 00 00	 call	 ?update_pilot_collective_to_centre2@@YGXXZ ; update_pilot_collective_to_centre2

; 2956 : 
; 2957 : 			break;

  001dc	eb 0c		 jmp	 SHORT $LN2@update_pil
$LN20@update_pil:

; 2958 : 		}
; 2959 : 		////////////////////////////////////////
; 2960 : 		case PILOT_MAIN_ANIM_MODE_COLLECTIVE_FROM_CENTRE1:
; 2961 : 		////////////////////////////////////////
; 2962 : 		{
; 2963 : 			update_pilot_collective_from_centre1 ();

  001de	e8 00 00 00 00	 call	 ?update_pilot_collective_from_centre1@@YGXXZ ; update_pilot_collective_from_centre1

; 2964 : 
; 2965 : 			break;

  001e3	eb 05		 jmp	 SHORT $LN2@update_pil
$LN21@update_pil:

; 2966 : 		}
; 2967 : 		////////////////////////////////////////
; 2968 : 		case PILOT_MAIN_ANIM_MODE_COLLECTIVE_FROM_CENTRE2:
; 2969 : 		////////////////////////////////////////
; 2970 : 		{
; 2971 : 			update_pilot_collective_from_centre2 ();

  001e5	e8 00 00 00 00	 call	 ?update_pilot_collective_from_centre2@@YGXXZ ; update_pilot_collective_from_centre2
$LN2@update_pil:

; 2972 : 
; 2973 : 			break;
; 2974 : 		}
; 2975 : 	}
; 2976 : 
; 2977 : 	ASSERT (pilot_animation_updated);

  001ea	83 3d 00 00 00
	00 00		 cmp	 DWORD PTR ?pilot_animation_updated@@3HA, 0
  001f1	75 1a		 jne	 SHORT $LN22@update_pil
  001f3	a1 00 00 00 00	 mov	 eax, DWORD PTR ?__LINE__Var@?0??update_pilot_animation@@YGXXZ@4JA
  001f8	05 ab 00 00 00	 add	 eax, 171		; 000000abH
  001fd	50		 push	 eax
  001fe	68 00 00 00 00	 push	 OFFSET ??_C@_0EO@MOFNGMIK@c?3?2users?2nhv90?2projects?2eech?2ap@
  00203	68 00 00 00 00	 push	 OFFSET ??_C@_0BI@PIKPLPOF@pilot_animation_updated@
  00208	e8 00 00 00 00	 call	 ?process_assert@@YGXPBD0H@Z ; process_assert
$LN22@update_pil:

; 2978 : 
; 2979 : 	////////////////////////////////////////
; 2980 : 
; 2981 : 	//
; 2982 : 	// store previous values to use if auto-pilot has taken control
; 2983 : 	//
; 2984 : 
; 2985 : 	previous_cyclic_x_position = cyclic_x_position;

  0020d	f3 0f 10 05 00
	00 00 00	 movss	 xmm0, DWORD PTR ?cyclic_x_position@@3MA
  00215	f3 0f 11 05 00
	00 00 00	 movss	 DWORD PTR ?previous_cyclic_x_position@@3MA, xmm0

; 2986 : 
; 2987 : 	previous_cyclic_y_position = cyclic_y_position;

  0021d	f3 0f 10 05 00
	00 00 00	 movss	 xmm0, DWORD PTR ?cyclic_y_position@@3MA
  00225	f3 0f 11 05 00
	00 00 00	 movss	 DWORD PTR ?previous_cyclic_y_position@@3MA, xmm0

; 2988 : 
; 2989 : 	previous_collective_position = collective_position;

  0022d	f3 0f 10 05 00
	00 00 00	 movss	 xmm0, DWORD PTR ?collective_position@@3MA
  00235	f3 0f 11 05 00
	00 00 00	 movss	 DWORD PTR ?previous_collective_position@@3MA, xmm0

; 2990 : 
; 2991 : 	previous_pedal_position = pedal_position;

  0023d	f3 0f 10 05 00
	00 00 00	 movss	 xmm0, DWORD PTR ?pedal_position@@3MA
  00245	f3 0f 11 05 00
	00 00 00	 movss	 DWORD PTR ?previous_pedal_position@@3MA, xmm0

; 2992 : }

  0024d	5f		 pop	 edi
  0024e	5e		 pop	 esi
  0024f	5b		 pop	 ebx
  00250	8b e5		 mov	 esp, ebp
  00252	5d		 pop	 ebp
  00253	c3		 ret	 0
$LN28@update_pil:
  00254	00 00 00 00	 DD	 $LN9@update_pil
  00258	00 00 00 00	 DD	 $LN10@update_pil
  0025c	00 00 00 00	 DD	 $LN11@update_pil
  00260	00 00 00 00	 DD	 $LN12@update_pil
  00264	00 00 00 00	 DD	 $LN13@update_pil
  00268	00 00 00 00	 DD	 $LN14@update_pil
  0026c	00 00 00 00	 DD	 $LN15@update_pil
  00270	00 00 00 00	 DD	 $LN16@update_pil
  00274	00 00 00 00	 DD	 $LN17@update_pil
  00278	00 00 00 00	 DD	 $LN18@update_pil
  0027c	00 00 00 00	 DD	 $LN19@update_pil
  00280	00 00 00 00	 DD	 $LN20@update_pil
  00284	00 00 00 00	 DD	 $LN21@update_pil
?update_pilot_animation@@YGXXZ ENDP			; update_pilot_animation
_TEXT	ENDS
; Function compile flags: /Odtp /ZI
; File c:\users\nhv90\projects\eech\aphavoc\source\gunships\cockpits\ka50\hm_pilot.c
;	COMDAT ?update_pilot_collective_from_centre2@@YGXXZ
_TEXT	SEGMENT
_anim_data$ = -4					; size = 4
?update_pilot_collective_from_centre2@@YGXXZ PROC	; update_pilot_collective_from_centre2, COMDAT

; 2771 : {

  00000	55		 push	 ebp
  00001	8b ec		 mov	 ebp, esp
  00003	83 ec 44	 sub	 esp, 68			; 00000044H
  00006	53		 push	 ebx
  00007	56		 push	 esi
  00008	57		 push	 edi

; 2772 : 	pilot_anim_data
; 2773 : 		*anim_data;
; 2774 : 
; 2775 : 	if (get_pilot_viewpoint_virtual_cockpit ())

  00009	e8 00 00 00 00	 call	 ?get_pilot_viewpoint_virtual_cockpit@@YGHXZ ; get_pilot_viewpoint_virtual_cockpit
  0000e	85 c0		 test	 eax, eax
  00010	74 14		 je	 SHORT $LN2@update_pil

; 2776 : 	{
; 2777 : 		pilot_main_anim_mode = PILOT_MAIN_ANIM_MODE_HANDS_ON_CONTROLS;

  00012	c7 05 00 00 00
	00 04 00 00 00	 mov	 DWORD PTR ?pilot_main_anim_mode@@3W4PILOT_MAIN_ANIM_MODES@@A, 4

; 2778 : 
; 2779 : 		update_pilot_hands_on_controls ();

  0001c	e8 00 00 00 00	 call	 ?update_pilot_hands_on_controls@@YGXXZ ; update_pilot_hands_on_controls

; 2780 : 
; 2781 : 		return;

  00021	e9 8c 00 00 00	 jmp	 $LN1@update_pil
$LN2@update_pil:

; 2782 : 	}
; 2783 : 
; 2784 : 	anim_data = &pilot_main_anim_mode_collective_from_centre2_anim_data;

  00026	c7 45 fc 00 00
	00 00		 mov	 DWORD PTR _anim_data$[ebp], OFFSET ?pilot_main_anim_mode_collective_from_centre2_anim_data@@3UPILOT_ANIM_DATA@@A

; 2785 : 
; 2786 : 	anim_data->cyclic_x_position = cyclic_x_position;

  0002d	8b 45 fc	 mov	 eax, DWORD PTR _anim_data$[ebp]
  00030	f3 0f 10 05 00
	00 00 00	 movss	 xmm0, DWORD PTR ?cyclic_x_position@@3MA
  00038	f3 0f 11 40 08	 movss	 DWORD PTR [eax+8], xmm0

; 2787 : 
; 2788 : 	anim_data->cyclic_y_position = cyclic_y_position;

  0003d	8b 45 fc	 mov	 eax, DWORD PTR _anim_data$[ebp]
  00040	f3 0f 10 05 00
	00 00 00	 movss	 xmm0, DWORD PTR ?cyclic_y_position@@3MA
  00048	f3 0f 11 40 0c	 movss	 DWORD PTR [eax+12], xmm0

; 2789 : 
; 2790 : 	anim_data->collective_position = collective_position - ((collective_position - 0.5) * 0.5);

  0004d	f3 0f 5a 05 00
	00 00 00	 cvtss2sd xmm0, DWORD PTR ?collective_position@@3MA
  00055	f3 0f 5a 0d 00
	00 00 00	 cvtss2sd xmm1, DWORD PTR ?collective_position@@3MA
  0005d	f2 0f 5c 0d 00
	00 00 00	 subsd	 xmm1, QWORD PTR __real@3fe0000000000000
  00065	f2 0f 59 0d 00
	00 00 00	 mulsd	 xmm1, QWORD PTR __real@3fe0000000000000
  0006d	f2 0f 5c c1	 subsd	 xmm0, xmm1
  00071	f2 0f 5a c0	 cvtsd2ss xmm0, xmm0
  00075	8b 45 fc	 mov	 eax, DWORD PTR _anim_data$[ebp]
  00078	f3 0f 11 40 10	 movss	 DWORD PTR [eax+16], xmm0

; 2791 : 
; 2792 : 	anim_data->pedal_position = pedal_position;

  0007d	8b 45 fc	 mov	 eax, DWORD PTR _anim_data$[ebp]
  00080	f3 0f 10 05 00
	00 00 00	 movss	 xmm0, DWORD PTR ?pedal_position@@3MA
  00088	f3 0f 11 40 14	 movss	 DWORD PTR [eax+20], xmm0

; 2793 : 
; 2794 : 	update_pilot_rest_animation (TRUE);

  0008d	6a 01		 push	 1
  0008f	e8 00 00 00 00	 call	 ?update_pilot_rest_animation@@YGXH@Z ; update_pilot_rest_animation

; 2795 : 
; 2796 : 	set_pilot_animation (anim_data, 0.0, FALSE);

  00094	6a 00		 push	 0
  00096	51		 push	 ecx
  00097	0f 57 c0	 xorps	 xmm0, xmm0
  0009a	f3 0f 11 04 24	 movss	 DWORD PTR [esp], xmm0
  0009f	8b 45 fc	 mov	 eax, DWORD PTR _anim_data$[ebp]
  000a2	50		 push	 eax
  000a3	e8 00 00 00 00	 call	 ?set_pilot_animation@@YGXPAUPILOT_ANIM_DATA@@MH@Z ; set_pilot_animation

; 2797 : 
; 2798 : 	pilot_main_anim_mode = PILOT_MAIN_ANIM_MODE_HANDS_ON_CONTROLS;

  000a8	c7 05 00 00 00
	00 04 00 00 00	 mov	 DWORD PTR ?pilot_main_anim_mode@@3W4PILOT_MAIN_ANIM_MODES@@A, 4
$LN1@update_pil:

; 2799 : }

  000b2	5f		 pop	 edi
  000b3	5e		 pop	 esi
  000b4	5b		 pop	 ebx
  000b5	8b e5		 mov	 esp, ebp
  000b7	5d		 pop	 ebp
  000b8	c3		 ret	 0
?update_pilot_collective_from_centre2@@YGXXZ ENDP	; update_pilot_collective_from_centre2
_TEXT	ENDS
; Function compile flags: /Odtp /ZI
; File c:\program files (x86)\microsoft visual studio\2017\community\vc\tools\msvc\14.16.27023\include\algorithm
;	COMDAT ??$min@M@std@@YGABMABM0@Z
_TEXT	SEGMENT
__Left$ = 8						; size = 4
__Right$ = 12						; size = 4
??$min@M@std@@YGABMABM0@Z PROC				; std::min<float>, COMDAT

; 5427 : 	{	// return smaller of _Left and _Right

  00000	55		 push	 ebp
  00001	8b ec		 mov	 ebp, esp
  00003	83 ec 40	 sub	 esp, 64			; 00000040H
  00006	53		 push	 ebx
  00007	56		 push	 esi
  00008	57		 push	 edi

; 5428 : 	if (_Right < _Left)

  00009	8b 45 08	 mov	 eax, DWORD PTR __Left$[ebp]
  0000c	8b 4d 0c	 mov	 ecx, DWORD PTR __Right$[ebp]
  0000f	f3 0f 10 00	 movss	 xmm0, DWORD PTR [eax]
  00013	0f 2f 01	 comiss	 xmm0, DWORD PTR [ecx]
  00016	76 64		 jbe	 SHORT $LN8@min
$LN4@min:

; 5429 : 		{
; 5430 : 		_STL_ASSERT(!(_Left < _Right), "invalid comparator");

  00018	8b 45 0c	 mov	 eax, DWORD PTR __Right$[ebp]
  0001b	8b 4d 08	 mov	 ecx, DWORD PTR __Left$[ebp]
  0001e	f3 0f 10 00	 movss	 xmm0, DWORD PTR [eax]
  00022	0f 2f 01	 comiss	 xmm0, DWORD PTR [ecx]
  00025	77 02		 ja	 SHORT $LN9@min
  00027	eb 4a		 jmp	 SHORT $LN6@min
$LN9@min:
  00029	68 00 00 00 00	 push	 OFFSET ??_C@_0BD@FEEMDEPI@invalid?5comparator@
  0002e	68 00 00 00 00	 push	 OFFSET ??_C@_02DKCKIIND@?$CFs@
  00033	6a 00		 push	 0
  00035	68 36 15 00 00	 push	 5430			; 00001536H
  0003a	68 00 00 00 00	 push	 OFFSET ??_C@_0GK@JMBMHIBC@c?3?2program?5files?5?$CIx86?$CJ?2microsof@
  0003f	6a 02		 push	 2
  00041	ff 15 00 00 00
	00		 call	 DWORD PTR __imp___CrtDbgReport
  00047	83 c4 18	 add	 esp, 24			; 00000018H
  0004a	83 f8 01	 cmp	 eax, 1
  0004d	75 01		 jne	 SHORT $LN12@min
  0004f	cc		 int	 3
$LN12@min:
  00050	6a 00		 push	 0
  00052	68 36 15 00 00	 push	 5430			; 00001536H
  00057	68 00 00 00 00	 push	 OFFSET ??_C@_1NE@FKBPBJEB@?$AAc?$AA?3?$AA?2?$AAp?$AAr?$AAo?$AAg?$AAr?$AAa?$AAm?$AA?5?$AAf?$AAi?$AAl?$AAe@
  0005c	68 00 00 00 00	 push	 OFFSET ??_C@_1BC@BLAPCBGI@?$AAs?$AAt?$AAd?$AA?3?$AA?3?$AAm?$AAi?$AAn@
  00061	68 00 00 00 00	 push	 OFFSET ??_C@_1CK@NDNHPKPI@?$AA?$CC?$AAi?$AAn?$AAv?$AAa?$AAl?$AAi?$AAd?$AA?5?$AAc?$AAo?$AAm?$AAp?$AAa?$AAr@
  00066	ff 15 00 00 00
	00		 call	 DWORD PTR __imp___invalid_parameter
  0006c	83 c4 14	 add	 esp, 20			; 00000014H
  0006f	33 c0		 xor	 eax, eax
  00071	75 b6		 jne	 SHORT $LN9@min
$LN6@min:
  00073	33 c0		 xor	 eax, eax
  00075	75 a1		 jne	 SHORT $LN4@min

; 5431 : 		return (_Right);

  00077	8b 45 0c	 mov	 eax, DWORD PTR __Right$[ebp]
  0007a	eb 03		 jmp	 SHORT $LN1@min
$LN8@min:

; 5432 : 		}
; 5433 : 
; 5434 : 	return (_Left);

  0007c	8b 45 08	 mov	 eax, DWORD PTR __Left$[ebp]
$LN1@min:

; 5435 : 	}

  0007f	5f		 pop	 edi
  00080	5e		 pop	 esi
  00081	5b		 pop	 ebx
  00082	8b e5		 mov	 esp, ebp
  00084	5d		 pop	 ebp
  00085	c2 08 00	 ret	 8
??$min@M@std@@YGABMABM0@Z ENDP				; std::min<float>
_TEXT	ENDS
; Function compile flags: /Odtp /ZI
; File c:\program files (x86)\microsoft visual studio\2017\community\vc\tools\msvc\14.16.27023\include\algorithm
;	COMDAT ??$max@M@std@@YGABMABM0@Z
_TEXT	SEGMENT
__Left$ = 8						; size = 4
__Right$ = 12						; size = 4
??$max@M@std@@YGABMABM0@Z PROC				; std::max<float>, COMDAT

; 5387 : 	{	// return larger of _Left and _Right

  00000	55		 push	 ebp
  00001	8b ec		 mov	 ebp, esp
  00003	83 ec 40	 sub	 esp, 64			; 00000040H
  00006	53		 push	 ebx
  00007	56		 push	 esi
  00008	57		 push	 edi

; 5388 : 	if (_Left < _Right)

  00009	8b 45 0c	 mov	 eax, DWORD PTR __Right$[ebp]
  0000c	8b 4d 08	 mov	 ecx, DWORD PTR __Left$[ebp]
  0000f	f3 0f 10 00	 movss	 xmm0, DWORD PTR [eax]
  00013	0f 2f 01	 comiss	 xmm0, DWORD PTR [ecx]
  00016	76 64		 jbe	 SHORT $LN8@max
$LN4@max:

; 5389 : 		{
; 5390 : 		_STL_ASSERT(!(_Right < _Left), "invalid comparator");

  00018	8b 45 08	 mov	 eax, DWORD PTR __Left$[ebp]
  0001b	8b 4d 0c	 mov	 ecx, DWORD PTR __Right$[ebp]
  0001e	f3 0f 10 00	 movss	 xmm0, DWORD PTR [eax]
  00022	0f 2f 01	 comiss	 xmm0, DWORD PTR [ecx]
  00025	77 02		 ja	 SHORT $LN9@max
  00027	eb 4a		 jmp	 SHORT $LN6@max
$LN9@max:
  00029	68 00 00 00 00	 push	 OFFSET ??_C@_0BD@FEEMDEPI@invalid?5comparator@
  0002e	68 00 00 00 00	 push	 OFFSET ??_C@_02DKCKIIND@?$CFs@
  00033	6a 00		 push	 0
  00035	68 0e 15 00 00	 push	 5390			; 0000150eH
  0003a	68 00 00 00 00	 push	 OFFSET ??_C@_0GK@JMBMHIBC@c?3?2program?5files?5?$CIx86?$CJ?2microsof@
  0003f	6a 02		 push	 2
  00041	ff 15 00 00 00
	00		 call	 DWORD PTR __imp___CrtDbgReport
  00047	83 c4 18	 add	 esp, 24			; 00000018H
  0004a	83 f8 01	 cmp	 eax, 1
  0004d	75 01		 jne	 SHORT $LN12@max
  0004f	cc		 int	 3
$LN12@max:
  00050	6a 00		 push	 0
  00052	68 0e 15 00 00	 push	 5390			; 0000150eH
  00057	68 00 00 00 00	 push	 OFFSET ??_C@_1NE@FKBPBJEB@?$AAc?$AA?3?$AA?2?$AAp?$AAr?$AAo?$AAg?$AAr?$AAa?$AAm?$AA?5?$AAf?$AAi?$AAl?$AAe@
  0005c	68 00 00 00 00	 push	 OFFSET ??_C@_1BC@ICCOKLEG@?$AAs?$AAt?$AAd?$AA?3?$AA?3?$AAm?$AAa?$AAx@
  00061	68 00 00 00 00	 push	 OFFSET ??_C@_1CK@NDNHPKPI@?$AA?$CC?$AAi?$AAn?$AAv?$AAa?$AAl?$AAi?$AAd?$AA?5?$AAc?$AAo?$AAm?$AAp?$AAa?$AAr@
  00066	ff 15 00 00 00
	00		 call	 DWORD PTR __imp___invalid_parameter
  0006c	83 c4 14	 add	 esp, 20			; 00000014H
  0006f	33 c0		 xor	 eax, eax
  00071	75 b6		 jne	 SHORT $LN9@max
$LN6@max:
  00073	33 c0		 xor	 eax, eax
  00075	75 a1		 jne	 SHORT $LN4@max

; 5391 : 		return (_Right);

  00077	8b 45 0c	 mov	 eax, DWORD PTR __Right$[ebp]
  0007a	eb 03		 jmp	 SHORT $LN1@max
$LN8@max:

; 5392 : 		}
; 5393 : 
; 5394 : 	return (_Left);

  0007c	8b 45 08	 mov	 eax, DWORD PTR __Left$[ebp]
$LN1@max:

; 5395 : 	}

  0007f	5f		 pop	 edi
  00080	5e		 pop	 esi
  00081	5b		 pop	 ebx
  00082	8b e5		 mov	 esp, ebp
  00084	5d		 pop	 ebp
  00085	c2 08 00	 ret	 8
??$max@M@std@@YGABMABM0@Z ENDP				; std::max<float>
_TEXT	ENDS
; Function compile flags: /Odtp /ZI
; File c:\users\nhv90\projects\eech\aphavoc\source\gunships\cockpits\ka50\hm_pilot.c
;	COMDAT ?update_pilot_rest_animation@@YGXH@Z
_TEXT	SEGMENT
tv192 = -72						; size = 4
tv68 = -72						; size = 4
_anim_data$ = -4					; size = 4
_head_anim_only$ = 8					; size = 4
?update_pilot_rest_animation@@YGXH@Z PROC		; update_pilot_rest_animation, COMDAT

; 1950 : {

  00000	55		 push	 ebp
  00001	8b ec		 mov	 ebp, esp
  00003	83 ec 48	 sub	 esp, 72			; 00000048H
  00006	53		 push	 ebx
  00007	56		 push	 esi
  00008	57		 push	 edi

; 1951 : 	pilot_anim_data
; 1952 : 		*anim_data;
; 1953 : 
; 1954 : 	//
; 1955 : 	// cancel any animation while the player is the pilot (to stop the head moving around)
; 1956 : 	//
; 1957 : 
; 1958 : 	if (get_pilot_viewpoint_virtual_cockpit ())

  00009	e8 00 00 00 00	 call	 ?get_pilot_viewpoint_virtual_cockpit@@YGHXZ ; get_pilot_viewpoint_virtual_cockpit
  0000e	85 c0		 test	 eax, eax
  00010	74 6b		 je	 SHORT $LN8@update_pil

; 1959 : 	{
; 1960 : 		pilot_rest_anim_mode = PILOT_REST_ANIM_MODE_NONE;

  00012	c7 05 00 00 00
	00 00 00 00 00	 mov	 DWORD PTR ?pilot_rest_anim_mode@@3W4PILOT_REST_ANIM_MODES@@A, 0

; 1961 : 
; 1962 : 		previous_random_pilot_rest_anim_mode = PILOT_REST_ANIM_MODE_NONE;

  0001c	c7 05 00 00 00
	00 00 00 00 00	 mov	 DWORD PTR ?previous_random_pilot_rest_anim_mode@@3W4PILOT_REST_ANIM_MODES@@A, 0

; 1963 : 
; 1964 : 		pilot_rest_anim_frame = 0.0;

  00026	0f 57 c0	 xorps	 xmm0, xmm0
  00029	f3 0f 11 05 00
	00 00 00	 movss	 DWORD PTR ?pilot_rest_anim_frame@@3MA, xmm0

; 1965 : 
; 1966 : 		pilot_rest_anim_delay = get_reset_pilot_rest_anim_delay ();

  00031	e8 00 00 00 00	 call	 ?get_reset_pilot_rest_anim_delay@@YGMXZ ; get_reset_pilot_rest_anim_delay
  00036	d9 1d 00 00 00
	00		 fstp	 DWORD PTR ?pilot_rest_anim_delay@@3MA

; 1967 : 
; 1968 : 		pilot_head_anim_frame = NO_PILOT_HEAD_ANIMATION;

  0003c	f3 0f 10 05 00
	00 00 00	 movss	 xmm0, DWORD PTR __real@bf800000
  00044	f3 0f 11 05 00
	00 00 00	 movss	 DWORD PTR ?pilot_head_anim_frame@@3MA, xmm0

; 1969 : 
; 1970 : 		pilot_head_anim_pause = 0.0;

  0004c	0f 57 c0	 xorps	 xmm0, xmm0
  0004f	f3 0f 11 05 00
	00 00 00	 movss	 DWORD PTR ?pilot_head_anim_pause@@3MA, xmm0

; 1971 : 
; 1972 : 		if (night_vision_system_active)

  00057	83 3d 00 00 00
	00 00		 cmp	 DWORD PTR ?night_vision_system_active@@3HA, 0 ; night_vision_system_active
  0005e	74 12		 je	 SHORT $LN7@update_pil

; 1973 : 		{
; 1974 : 			pilot_nvg_anim_frame = NVG_ON;

  00060	f3 0f 10 05 00
	00 00 00	 movss	 xmm0, DWORD PTR __real@3f800000
  00068	f3 0f 11 05 00
	00 00 00	 movss	 DWORD PTR ?pilot_nvg_anim_frame@@3MA, xmm0

; 1975 : 		}
; 1976 : 		else

  00070	eb 0b		 jmp	 SHORT $LN8@update_pil
$LN7@update_pil:

; 1977 : 		{
; 1978 : 			pilot_nvg_anim_frame = NVG_OFF;

  00072	0f 57 c0	 xorps	 xmm0, xmm0
  00075	f3 0f 11 05 00
	00 00 00	 movss	 DWORD PTR ?pilot_nvg_anim_frame@@3MA, xmm0
$LN8@update_pil:

; 1979 : 		}
; 1980 : 	}
; 1981 : 
; 1982 : 	switch (pilot_rest_anim_mode)

  0007d	a1 00 00 00 00	 mov	 eax, DWORD PTR ?pilot_rest_anim_mode@@3W4PILOT_REST_ANIM_MODES@@A
  00082	89 45 b8	 mov	 DWORD PTR tv68[ebp], eax
  00085	83 7d b8 0d	 cmp	 DWORD PTR tv68[ebp], 13	; 0000000dH
  00089	0f 87 62 06 00
	00		 ja	 $LN2@update_pil
  0008f	8b 4d b8	 mov	 ecx, DWORD PTR tv68[ebp]
  00092	ff 24 8d 00 00
	00 00		 jmp	 DWORD PTR $LN48@update_pil[ecx*4]
$LN9@update_pil:

; 1983 : 	{
; 1984 : 		////////////////////////////////////////
; 1985 : 		case PILOT_REST_ANIM_MODE_NONE:
; 1986 : 		////////////////////////////////////////
; 1987 : 		{
; 1988 : 			anim_data = &pilot_rest_anim_mode_none_anim_data;

  00099	c7 45 fc 00 00
	00 00		 mov	 DWORD PTR _anim_data$[ebp], OFFSET ?pilot_rest_anim_mode_none_anim_data@@3UPILOT_ANIM_DATA@@A

; 1989 : 
; 1990 : 			pilot_rest_anim_delay -= get_delta_time ();

  000a0	f3 0f 10 05 00
	00 00 00	 movss	 xmm0, DWORD PTR ?pilot_rest_anim_delay@@3MA
  000a8	f3 0f 5c 05 00
	00 00 00	 subss	 xmm0, DWORD PTR ?system_delta_time@@3MA
  000b0	f3 0f 11 05 00
	00 00 00	 movss	 DWORD PTR ?pilot_rest_anim_delay@@3MA, xmm0

; 1991 : 
; 1992 : 			if (pilot_rest_anim_delay <= 0.0)

  000b8	f3 0f 5a 05 00
	00 00 00	 cvtss2sd xmm0, DWORD PTR ?pilot_rest_anim_delay@@3MA
  000c0	0f 57 c9	 xorps	 xmm1, xmm1
  000c3	66 0f 2f c8	 comisd	 xmm1, xmm0
  000c7	72 75		 jb	 SHORT $LN10@update_pil

; 1993 : 			{
; 1994 : 				pilot_rest_anim_mode = get_random_pilot_rest_anim_mode ();

  000c9	e8 00 00 00 00	 call	 ?get_random_pilot_rest_anim_mode@@YG?AW4PILOT_REST_ANIM_MODES@@XZ ; get_random_pilot_rest_anim_mode
  000ce	a3 00 00 00 00	 mov	 DWORD PTR ?pilot_rest_anim_mode@@3W4PILOT_REST_ANIM_MODES@@A, eax

; 1995 : 
; 1996 : 				//
; 1997 : 				// try and prevent repetition
; 1998 : 				//
; 1999 : 
; 2000 : 				if (pilot_rest_anim_mode == previous_random_pilot_rest_anim_mode)

  000d3	a1 00 00 00 00	 mov	 eax, DWORD PTR ?pilot_rest_anim_mode@@3W4PILOT_REST_ANIM_MODES@@A
  000d8	3b 05 00 00 00
	00		 cmp	 eax, DWORD PTR ?previous_random_pilot_rest_anim_mode@@3W4PILOT_REST_ANIM_MODES@@A
  000de	75 21		 jne	 SHORT $LN13@update_pil

; 2001 : 				{
; 2002 : 					pilot_rest_anim_mode = get_random_pilot_rest_anim_mode ();

  000e0	e8 00 00 00 00	 call	 ?get_random_pilot_rest_anim_mode@@YG?AW4PILOT_REST_ANIM_MODES@@XZ ; get_random_pilot_rest_anim_mode
  000e5	a3 00 00 00 00	 mov	 DWORD PTR ?pilot_rest_anim_mode@@3W4PILOT_REST_ANIM_MODES@@A, eax

; 2003 : 
; 2004 : 	 				if (pilot_rest_anim_mode == previous_random_pilot_rest_anim_mode)

  000ea	a1 00 00 00 00	 mov	 eax, DWORD PTR ?pilot_rest_anim_mode@@3W4PILOT_REST_ANIM_MODES@@A
  000ef	3b 05 00 00 00
	00		 cmp	 eax, DWORD PTR ?previous_random_pilot_rest_anim_mode@@3W4PILOT_REST_ANIM_MODES@@A
  000f5	75 0a		 jne	 SHORT $LN13@update_pil

; 2005 : 					{
; 2006 : 						pilot_rest_anim_mode = get_random_pilot_rest_anim_mode ();

  000f7	e8 00 00 00 00	 call	 ?get_random_pilot_rest_anim_mode@@YG?AW4PILOT_REST_ANIM_MODES@@XZ ; get_random_pilot_rest_anim_mode
  000fc	a3 00 00 00 00	 mov	 DWORD PTR ?pilot_rest_anim_mode@@3W4PILOT_REST_ANIM_MODES@@A, eax
$LN13@update_pil:

; 2007 : 					}
; 2008 : 				}
; 2009 : 
; 2010 : 				previous_random_pilot_rest_anim_mode = pilot_rest_anim_mode;

  00101	a1 00 00 00 00	 mov	 eax, DWORD PTR ?pilot_rest_anim_mode@@3W4PILOT_REST_ANIM_MODES@@A
  00106	a3 00 00 00 00	 mov	 DWORD PTR ?previous_random_pilot_rest_anim_mode@@3W4PILOT_REST_ANIM_MODES@@A, eax

; 2011 : 
; 2012 : 				pilot_rest_anim_frame = 0.0;

  0010b	0f 57 c0	 xorps	 xmm0, xmm0
  0010e	f3 0f 11 05 00
	00 00 00	 movss	 DWORD PTR ?pilot_rest_anim_frame@@3MA, xmm0

; 2013 : 
; 2014 : 				pilot_rest_anim_delay = get_reset_pilot_rest_anim_delay ();

  00116	e8 00 00 00 00	 call	 ?get_reset_pilot_rest_anim_delay@@YGMXZ ; get_reset_pilot_rest_anim_delay
  0011b	d9 1d 00 00 00
	00		 fstp	 DWORD PTR ?pilot_rest_anim_delay@@3MA

; 2015 : 
; 2016 : 				pilot_head_anim_frame = NO_PILOT_HEAD_ANIMATION;

  00121	f3 0f 10 05 00
	00 00 00	 movss	 xmm0, DWORD PTR __real@bf800000
  00129	f3 0f 11 05 00
	00 00 00	 movss	 DWORD PTR ?pilot_head_anim_frame@@3MA, xmm0

; 2017 : 
; 2018 : 				pilot_head_anim_pause = get_reset_pilot_head_anim_pause ();

  00131	e8 00 00 00 00	 call	 ?get_reset_pilot_head_anim_pause@@YGMXZ ; get_reset_pilot_head_anim_pause
  00136	d9 1d 00 00 00
	00		 fstp	 DWORD PTR ?pilot_head_anim_pause@@3MA

; 2019 : 			}
; 2020 : 			else

  0013c	eb 0b		 jmp	 SHORT $LN11@update_pil
$LN10@update_pil:

; 2021 : 			{
; 2022 : 				pilot_rest_anim_frame = 0.0;

  0013e	0f 57 c0	 xorps	 xmm0, xmm0
  00141	f3 0f 11 05 00
	00 00 00	 movss	 DWORD PTR ?pilot_rest_anim_frame@@3MA, xmm0
$LN11@update_pil:

; 2023 : 			}
; 2024 : 
; 2025 : 			set_pilot_animation (anim_data, pilot_rest_anim_frame, head_anim_only);

  00149	8b 45 08	 mov	 eax, DWORD PTR _head_anim_only$[ebp]
  0014c	50		 push	 eax
  0014d	51		 push	 ecx
  0014e	f3 0f 10 05 00
	00 00 00	 movss	 xmm0, DWORD PTR ?pilot_rest_anim_frame@@3MA
  00156	f3 0f 11 04 24	 movss	 DWORD PTR [esp], xmm0
  0015b	8b 4d fc	 mov	 ecx, DWORD PTR _anim_data$[ebp]
  0015e	51		 push	 ecx
  0015f	e8 00 00 00 00	 call	 ?set_pilot_animation@@YGXPAUPILOT_ANIM_DATA@@MH@Z ; set_pilot_animation

; 2026 : 
; 2027 : 			break;

  00164	e9 88 05 00 00	 jmp	 $LN2@update_pil
$LN14@update_pil:

; 2028 : 		}
; 2029 : 		////////////////////////////////////////
; 2030 : 		case PILOT_REST_ANIM_MODE_RIGHT_HAND_TO_UPPER_SWITCH:
; 2031 : 		////////////////////////////////////////
; 2032 : 		{
; 2033 : 			ASSERT (head_anim_only == FALSE);

  00169	83 7d 08 00	 cmp	 DWORD PTR _head_anim_only$[ebp], 0
  0016d	74 18		 je	 SHORT $LN15@update_pil
  0016f	a1 00 00 00 00	 mov	 eax, DWORD PTR ?__LINE__Var@?0??update_pilot_rest_animation@@YGXH@Z@4JA
  00174	83 c0 53	 add	 eax, 83			; 00000053H
  00177	50		 push	 eax
  00178	68 00 00 00 00	 push	 OFFSET ??_C@_0EO@MOFNGMIK@c?3?2users?2nhv90?2projects?2eech?2ap@
  0017d	68 00 00 00 00	 push	 OFFSET ??_C@_0BI@LEOJMFBF@head_anim_only?5?$DN?$DN?5FALSE@
  00182	e8 00 00 00 00	 call	 ?process_assert@@YGXPBD0H@Z ; process_assert
$LN15@update_pil:

; 2034 : 
; 2035 : 			anim_data = &pilot_rest_anim_mode_right_hand_to_upper_switch_anim_data;

  00187	c7 45 fc 00 00
	00 00		 mov	 DWORD PTR _anim_data$[ebp], OFFSET ?pilot_rest_anim_mode_right_hand_to_upper_switch_anim_data@@3UPILOT_ANIM_DATA@@A

; 2036 : 
; 2037 : 			pilot_rest_anim_frame += get_delta_time () * 0.5;

  0018e	f3 0f 5a 05 00
	00 00 00	 cvtss2sd xmm0, DWORD PTR ?system_delta_time@@3MA
  00196	f2 0f 59 05 00
	00 00 00	 mulsd	 xmm0, QWORD PTR __real@3fe0000000000000
  0019e	f3 0f 5a 0d 00
	00 00 00	 cvtss2sd xmm1, DWORD PTR ?pilot_rest_anim_frame@@3MA
  001a6	f2 0f 58 c8	 addsd	 xmm1, xmm0
  001aa	f2 0f 5a c1	 cvtsd2ss xmm0, xmm1
  001ae	f3 0f 11 05 00
	00 00 00	 movss	 DWORD PTR ?pilot_rest_anim_frame@@3MA, xmm0

; 2038 : 
; 2039 : 			if (pilot_rest_anim_frame >= 1.0)

  001b6	f3 0f 5a 05 00
	00 00 00	 cvtss2sd xmm0, DWORD PTR ?pilot_rest_anim_frame@@3MA
  001be	66 0f 2f 05 00
	00 00 00	 comisd	 xmm0, QWORD PTR __real@3ff0000000000000
  001c6	72 1a		 jb	 SHORT $LN16@update_pil

; 2040 : 			{
; 2041 : 				pilot_rest_anim_frame = 1.0;

  001c8	f3 0f 10 05 00
	00 00 00	 movss	 xmm0, DWORD PTR __real@3f800000
  001d0	f3 0f 11 05 00
	00 00 00	 movss	 DWORD PTR ?pilot_rest_anim_frame@@3MA, xmm0

; 2042 : 
; 2043 : 				pilot_rest_anim_mode = PILOT_REST_ANIM_MODE_NONE;

  001d8	c7 05 00 00 00
	00 00 00 00 00	 mov	 DWORD PTR ?pilot_rest_anim_mode@@3W4PILOT_REST_ANIM_MODES@@A, 0
$LN16@update_pil:

; 2044 : 			}
; 2045 : 
; 2046 : 			set_pilot_animation (anim_data, pilot_rest_anim_frame, FALSE);

  001e2	6a 00		 push	 0
  001e4	51		 push	 ecx
  001e5	f3 0f 10 05 00
	00 00 00	 movss	 xmm0, DWORD PTR ?pilot_rest_anim_frame@@3MA
  001ed	f3 0f 11 04 24	 movss	 DWORD PTR [esp], xmm0
  001f2	8b 45 fc	 mov	 eax, DWORD PTR _anim_data$[ebp]
  001f5	50		 push	 eax
  001f6	e8 00 00 00 00	 call	 ?set_pilot_animation@@YGXPAUPILOT_ANIM_DATA@@MH@Z ; set_pilot_animation

; 2047 : 
; 2048 : 			break;

  001fb	e9 f1 04 00 00	 jmp	 $LN2@update_pil
$LN17@update_pil:

; 2049 : 		}
; 2050 : 		////////////////////////////////////////
; 2051 : 		case PILOT_REST_ANIM_MODE_RIGHT_HAND_TO_CALCULATOR:
; 2052 : 		////////////////////////////////////////
; 2053 : 		{
; 2054 : 			ASSERT (head_anim_only == FALSE);

  00200	83 7d 08 00	 cmp	 DWORD PTR _head_anim_only$[ebp], 0
  00204	74 18		 je	 SHORT $LN18@update_pil
  00206	a1 00 00 00 00	 mov	 eax, DWORD PTR ?__LINE__Var@?0??update_pilot_rest_animation@@YGXH@Z@4JA
  0020b	83 c0 68	 add	 eax, 104		; 00000068H
  0020e	50		 push	 eax
  0020f	68 00 00 00 00	 push	 OFFSET ??_C@_0EO@MOFNGMIK@c?3?2users?2nhv90?2projects?2eech?2ap@
  00214	68 00 00 00 00	 push	 OFFSET ??_C@_0BI@LEOJMFBF@head_anim_only?5?$DN?$DN?5FALSE@
  00219	e8 00 00 00 00	 call	 ?process_assert@@YGXPBD0H@Z ; process_assert
$LN18@update_pil:

; 2055 : 
; 2056 : 			anim_data = &pilot_rest_anim_mode_right_hand_to_calculator_anim_data;

  0021e	c7 45 fc 00 00
	00 00		 mov	 DWORD PTR _anim_data$[ebp], OFFSET ?pilot_rest_anim_mode_right_hand_to_calculator_anim_data@@3UPILOT_ANIM_DATA@@A

; 2057 : 
; 2058 : 			pilot_rest_anim_frame += get_delta_time () * 0.5;

  00225	f3 0f 5a 05 00
	00 00 00	 cvtss2sd xmm0, DWORD PTR ?system_delta_time@@3MA
  0022d	f2 0f 59 05 00
	00 00 00	 mulsd	 xmm0, QWORD PTR __real@3fe0000000000000
  00235	f3 0f 5a 0d 00
	00 00 00	 cvtss2sd xmm1, DWORD PTR ?pilot_rest_anim_frame@@3MA
  0023d	f2 0f 58 c8	 addsd	 xmm1, xmm0
  00241	f2 0f 5a c1	 cvtsd2ss xmm0, xmm1
  00245	f3 0f 11 05 00
	00 00 00	 movss	 DWORD PTR ?pilot_rest_anim_frame@@3MA, xmm0

; 2059 : 
; 2060 : 			if (pilot_rest_anim_frame >= 1.0)

  0024d	f3 0f 5a 05 00
	00 00 00	 cvtss2sd xmm0, DWORD PTR ?pilot_rest_anim_frame@@3MA
  00255	66 0f 2f 05 00
	00 00 00	 comisd	 xmm0, QWORD PTR __real@3ff0000000000000
  0025d	72 1a		 jb	 SHORT $LN19@update_pil

; 2061 : 			{
; 2062 : 				pilot_rest_anim_frame = 1.0;

  0025f	f3 0f 10 05 00
	00 00 00	 movss	 xmm0, DWORD PTR __real@3f800000
  00267	f3 0f 11 05 00
	00 00 00	 movss	 DWORD PTR ?pilot_rest_anim_frame@@3MA, xmm0

; 2063 : 
; 2064 : 				pilot_rest_anim_mode = PILOT_REST_ANIM_MODE_NONE;

  0026f	c7 05 00 00 00
	00 00 00 00 00	 mov	 DWORD PTR ?pilot_rest_anim_mode@@3W4PILOT_REST_ANIM_MODES@@A, 0
$LN19@update_pil:

; 2065 : 			}
; 2066 : 
; 2067 : 			set_pilot_animation (anim_data, pilot_rest_anim_frame, FALSE);

  00279	6a 00		 push	 0
  0027b	51		 push	 ecx
  0027c	f3 0f 10 05 00
	00 00 00	 movss	 xmm0, DWORD PTR ?pilot_rest_anim_frame@@3MA
  00284	f3 0f 11 04 24	 movss	 DWORD PTR [esp], xmm0
  00289	8b 45 fc	 mov	 eax, DWORD PTR _anim_data$[ebp]
  0028c	50		 push	 eax
  0028d	e8 00 00 00 00	 call	 ?set_pilot_animation@@YGXPAUPILOT_ANIM_DATA@@MH@Z ; set_pilot_animation

; 2068 : 
; 2069 : 			break;

  00292	e9 5a 04 00 00	 jmp	 $LN2@update_pil
$LN20@update_pil:

; 2070 : 		}
; 2071 : 		////////////////////////////////////////
; 2072 : 		case PILOT_REST_ANIM_MODE_LEFT_HAND_TO_HUD_SWITCH:
; 2073 : 		////////////////////////////////////////
; 2074 : 		{
; 2075 : 			ASSERT (head_anim_only == FALSE);

  00297	83 7d 08 00	 cmp	 DWORD PTR _head_anim_only$[ebp], 0
  0029b	74 18		 je	 SHORT $LN21@update_pil
  0029d	a1 00 00 00 00	 mov	 eax, DWORD PTR ?__LINE__Var@?0??update_pilot_rest_animation@@YGXH@Z@4JA
  002a2	83 c0 7d	 add	 eax, 125		; 0000007dH
  002a5	50		 push	 eax
  002a6	68 00 00 00 00	 push	 OFFSET ??_C@_0EO@MOFNGMIK@c?3?2users?2nhv90?2projects?2eech?2ap@
  002ab	68 00 00 00 00	 push	 OFFSET ??_C@_0BI@LEOJMFBF@head_anim_only?5?$DN?$DN?5FALSE@
  002b0	e8 00 00 00 00	 call	 ?process_assert@@YGXPBD0H@Z ; process_assert
$LN21@update_pil:

; 2076 : 
; 2077 : 			anim_data = &pilot_rest_anim_mode_left_hand_to_hud_switch_anim_data;

  002b5	c7 45 fc 00 00
	00 00		 mov	 DWORD PTR _anim_data$[ebp], OFFSET ?pilot_rest_anim_mode_left_hand_to_hud_switch_anim_data@@3UPILOT_ANIM_DATA@@A

; 2078 : 
; 2079 : 			pilot_rest_anim_frame += get_delta_time () * 0.333;

  002bc	f3 0f 5a 05 00
	00 00 00	 cvtss2sd xmm0, DWORD PTR ?system_delta_time@@3MA
  002c4	f2 0f 59 05 00
	00 00 00	 mulsd	 xmm0, QWORD PTR __real@3fd54fdf3b645a1d
  002cc	f3 0f 5a 0d 00
	00 00 00	 cvtss2sd xmm1, DWORD PTR ?pilot_rest_anim_frame@@3MA
  002d4	f2 0f 58 c8	 addsd	 xmm1, xmm0
  002d8	f2 0f 5a c1	 cvtsd2ss xmm0, xmm1
  002dc	f3 0f 11 05 00
	00 00 00	 movss	 DWORD PTR ?pilot_rest_anim_frame@@3MA, xmm0

; 2080 : 
; 2081 : 			if (pilot_rest_anim_frame >= 1.0)

  002e4	f3 0f 5a 05 00
	00 00 00	 cvtss2sd xmm0, DWORD PTR ?pilot_rest_anim_frame@@3MA
  002ec	66 0f 2f 05 00
	00 00 00	 comisd	 xmm0, QWORD PTR __real@3ff0000000000000
  002f4	72 1a		 jb	 SHORT $LN22@update_pil

; 2082 : 			{
; 2083 : 				pilot_rest_anim_frame = 1.0;

  002f6	f3 0f 10 05 00
	00 00 00	 movss	 xmm0, DWORD PTR __real@3f800000
  002fe	f3 0f 11 05 00
	00 00 00	 movss	 DWORD PTR ?pilot_rest_anim_frame@@3MA, xmm0

; 2084 : 
; 2085 : 				pilot_rest_anim_mode = PILOT_REST_ANIM_MODE_NONE;

  00306	c7 05 00 00 00
	00 00 00 00 00	 mov	 DWORD PTR ?pilot_rest_anim_mode@@3W4PILOT_REST_ANIM_MODES@@A, 0
$LN22@update_pil:

; 2086 : 			}
; 2087 : 
; 2088 : 			set_pilot_animation (anim_data, pilot_rest_anim_frame, FALSE);

  00310	6a 00		 push	 0
  00312	51		 push	 ecx
  00313	f3 0f 10 05 00
	00 00 00	 movss	 xmm0, DWORD PTR ?pilot_rest_anim_frame@@3MA
  0031b	f3 0f 11 04 24	 movss	 DWORD PTR [esp], xmm0
  00320	8b 45 fc	 mov	 eax, DWORD PTR _anim_data$[ebp]
  00323	50		 push	 eax
  00324	e8 00 00 00 00	 call	 ?set_pilot_animation@@YGXPAUPILOT_ANIM_DATA@@MH@Z ; set_pilot_animation

; 2089 : 
; 2090 : 			break;

  00329	e9 c3 03 00 00	 jmp	 $LN2@update_pil
$LN23@update_pil:

; 2091 : 		}
; 2092 : 		////////////////////////////////////////
; 2093 : 		case PILOT_REST_ANIM_MODE_LEFT_HAND_TO_NVG:
; 2094 : 		////////////////////////////////////////
; 2095 : 		{
; 2096 : 			ASSERT (head_anim_only == FALSE);

  0032e	83 7d 08 00	 cmp	 DWORD PTR _head_anim_only$[ebp], 0
  00332	74 1a		 je	 SHORT $LN24@update_pil
  00334	a1 00 00 00 00	 mov	 eax, DWORD PTR ?__LINE__Var@?0??update_pilot_rest_animation@@YGXH@Z@4JA
  00339	05 92 00 00 00	 add	 eax, 146		; 00000092H
  0033e	50		 push	 eax
  0033f	68 00 00 00 00	 push	 OFFSET ??_C@_0EO@MOFNGMIK@c?3?2users?2nhv90?2projects?2eech?2ap@
  00344	68 00 00 00 00	 push	 OFFSET ??_C@_0BI@LEOJMFBF@head_anim_only?5?$DN?$DN?5FALSE@
  00349	e8 00 00 00 00	 call	 ?process_assert@@YGXPBD0H@Z ; process_assert
$LN24@update_pil:

; 2097 : 
; 2098 : 			anim_data = &pilot_rest_anim_mode_left_hand_to_nvg_anim_data;

  0034e	c7 45 fc 00 00
	00 00		 mov	 DWORD PTR _anim_data$[ebp], OFFSET ?pilot_rest_anim_mode_left_hand_to_nvg_anim_data@@3UPILOT_ANIM_DATA@@A

; 2099 : 
; 2100 : 			if (night_vision_system_active)

  00355	83 3d 00 00 00
	00 00		 cmp	 DWORD PTR ?night_vision_system_active@@3HA, 0 ; night_vision_system_active
  0035c	74 55		 je	 SHORT $LN25@update_pil

; 2101 : 			{
; 2102 : 				pilot_nvg_anim_frame += get_delta_time () * 0.5;

  0035e	f3 0f 5a 05 00
	00 00 00	 cvtss2sd xmm0, DWORD PTR ?system_delta_time@@3MA
  00366	f2 0f 59 05 00
	00 00 00	 mulsd	 xmm0, QWORD PTR __real@3fe0000000000000
  0036e	f3 0f 5a 0d 00
	00 00 00	 cvtss2sd xmm1, DWORD PTR ?pilot_nvg_anim_frame@@3MA
  00376	f2 0f 58 c8	 addsd	 xmm1, xmm0
  0037a	f2 0f 5a c1	 cvtsd2ss xmm0, xmm1
  0037e	f3 0f 11 05 00
	00 00 00	 movss	 DWORD PTR ?pilot_nvg_anim_frame@@3MA, xmm0

; 2103 : 
; 2104 : 				if (pilot_nvg_anim_frame >= NVG_ON)

  00386	f3 0f 10 05 00
	00 00 00	 movss	 xmm0, DWORD PTR ?pilot_nvg_anim_frame@@3MA
  0038e	0f 2f 05 00 00
	00 00		 comiss	 xmm0, DWORD PTR __real@3f800000
  00395	72 1a		 jb	 SHORT $LN27@update_pil

; 2105 : 				{
; 2106 : 					pilot_nvg_anim_frame = NVG_ON;

  00397	f3 0f 10 05 00
	00 00 00	 movss	 xmm0, DWORD PTR __real@3f800000
  0039f	f3 0f 11 05 00
	00 00 00	 movss	 DWORD PTR ?pilot_nvg_anim_frame@@3MA, xmm0

; 2107 : 
; 2108 : 					pilot_rest_anim_mode = PILOT_REST_ANIM_MODE_NONE;

  003a7	c7 05 00 00 00
	00 00 00 00 00	 mov	 DWORD PTR ?pilot_rest_anim_mode@@3W4PILOT_REST_ANIM_MODES@@A, 0
$LN27@update_pil:

; 2109 : 				}
; 2110 : 			}
; 2111 : 			else

  003b1	eb 49		 jmp	 SHORT $LN28@update_pil
$LN25@update_pil:

; 2112 : 			{
; 2113 : 				pilot_nvg_anim_frame -= get_delta_time () * 0.5;

  003b3	f3 0f 5a 05 00
	00 00 00	 cvtss2sd xmm0, DWORD PTR ?system_delta_time@@3MA
  003bb	f2 0f 59 05 00
	00 00 00	 mulsd	 xmm0, QWORD PTR __real@3fe0000000000000
  003c3	f3 0f 5a 0d 00
	00 00 00	 cvtss2sd xmm1, DWORD PTR ?pilot_nvg_anim_frame@@3MA
  003cb	f2 0f 5c c8	 subsd	 xmm1, xmm0
  003cf	f2 0f 5a c1	 cvtsd2ss xmm0, xmm1
  003d3	f3 0f 11 05 00
	00 00 00	 movss	 DWORD PTR ?pilot_nvg_anim_frame@@3MA, xmm0

; 2114 : 
; 2115 : 				if (pilot_nvg_anim_frame <= NVG_OFF)

  003db	0f 57 c0	 xorps	 xmm0, xmm0
  003de	0f 2f 05 00 00
	00 00		 comiss	 xmm0, DWORD PTR ?pilot_nvg_anim_frame@@3MA
  003e5	72 15		 jb	 SHORT $LN28@update_pil

; 2116 : 				{
; 2117 : 					pilot_nvg_anim_frame = NVG_OFF;

  003e7	0f 57 c0	 xorps	 xmm0, xmm0
  003ea	f3 0f 11 05 00
	00 00 00	 movss	 DWORD PTR ?pilot_nvg_anim_frame@@3MA, xmm0

; 2118 : 
; 2119 : 					pilot_rest_anim_mode = PILOT_REST_ANIM_MODE_NONE;

  003f2	c7 05 00 00 00
	00 00 00 00 00	 mov	 DWORD PTR ?pilot_rest_anim_mode@@3W4PILOT_REST_ANIM_MODES@@A, 0
$LN28@update_pil:

; 2120 : 				}
; 2121 : 			}
; 2122 : 
; 2123 : 			pilot_rest_anim_frame = pilot_nvg_anim_frame;

  003fc	f3 0f 10 05 00
	00 00 00	 movss	 xmm0, DWORD PTR ?pilot_nvg_anim_frame@@3MA
  00404	f3 0f 11 05 00
	00 00 00	 movss	 DWORD PTR ?pilot_rest_anim_frame@@3MA, xmm0

; 2124 : 
; 2125 : 			set_pilot_animation (anim_data, pilot_rest_anim_frame, FALSE);

  0040c	6a 00		 push	 0
  0040e	51		 push	 ecx
  0040f	f3 0f 10 05 00
	00 00 00	 movss	 xmm0, DWORD PTR ?pilot_rest_anim_frame@@3MA
  00417	f3 0f 11 04 24	 movss	 DWORD PTR [esp], xmm0
  0041c	8b 45 fc	 mov	 eax, DWORD PTR _anim_data$[ebp]
  0041f	50		 push	 eax
  00420	e8 00 00 00 00	 call	 ?set_pilot_animation@@YGXPAUPILOT_ANIM_DATA@@MH@Z ; set_pilot_animation

; 2126 : 
; 2127 : 			break;

  00425	e9 c7 02 00 00	 jmp	 $LN2@update_pil
$LN29@update_pil:

; 2128 : 		}
; 2129 : 		////////////////////////////////////////
; 2130 : 		case PILOT_REST_ANIM_MODE_BOTH_HANDS_PULL_EJECT:
; 2131 : 		////////////////////////////////////////
; 2132 : 		{
; 2133 : 			ASSERT (head_anim_only == FALSE);

  0042a	83 7d 08 00	 cmp	 DWORD PTR _head_anim_only$[ebp], 0
  0042e	74 1a		 je	 SHORT $LN30@update_pil
  00430	a1 00 00 00 00	 mov	 eax, DWORD PTR ?__LINE__Var@?0??update_pilot_rest_animation@@YGXH@Z@4JA
  00435	05 b7 00 00 00	 add	 eax, 183		; 000000b7H
  0043a	50		 push	 eax
  0043b	68 00 00 00 00	 push	 OFFSET ??_C@_0EO@MOFNGMIK@c?3?2users?2nhv90?2projects?2eech?2ap@
  00440	68 00 00 00 00	 push	 OFFSET ??_C@_0BI@LEOJMFBF@head_anim_only?5?$DN?$DN?5FALSE@
  00445	e8 00 00 00 00	 call	 ?process_assert@@YGXPBD0H@Z ; process_assert
$LN30@update_pil:

; 2134 : 
; 2135 : 			anim_data = &pilot_rest_anim_mode_both_hands_pull_eject_anim_data;

  0044a	c7 45 fc 00 00
	00 00		 mov	 DWORD PTR _anim_data$[ebp], OFFSET ?pilot_rest_anim_mode_both_hands_pull_eject_anim_data@@3UPILOT_ANIM_DATA@@A

; 2136 : 
; 2137 : 			pilot_rest_anim_frame += get_delta_time ();

  00451	f3 0f 10 05 00
	00 00 00	 movss	 xmm0, DWORD PTR ?pilot_rest_anim_frame@@3MA
  00459	f3 0f 58 05 00
	00 00 00	 addss	 xmm0, DWORD PTR ?system_delta_time@@3MA
  00461	f3 0f 11 05 00
	00 00 00	 movss	 DWORD PTR ?pilot_rest_anim_frame@@3MA, xmm0

; 2138 : 
; 2139 : 			if (pilot_rest_anim_frame >= 1.0)

  00469	f3 0f 5a 05 00
	00 00 00	 cvtss2sd xmm0, DWORD PTR ?pilot_rest_anim_frame@@3MA
  00471	66 0f 2f 05 00
	00 00 00	 comisd	 xmm0, QWORD PTR __real@3ff0000000000000
  00479	72 10		 jb	 SHORT $LN31@update_pil

; 2140 : 			{
; 2141 : 				//
; 2142 : 				// (hold pilot anim at last frame until camera is outside)
; 2143 : 				//
; 2144 : 
; 2145 : 				pilot_rest_anim_frame = 1.0;

  0047b	f3 0f 10 05 00
	00 00 00	 movss	 xmm0, DWORD PTR __real@3f800000
  00483	f3 0f 11 05 00
	00 00 00	 movss	 DWORD PTR ?pilot_rest_anim_frame@@3MA, xmm0
$LN31@update_pil:

; 2146 : 			}
; 2147 : 
; 2148 : 			set_pilot_animation (anim_data, pilot_rest_anim_frame, FALSE);

  0048b	6a 00		 push	 0
  0048d	51		 push	 ecx
  0048e	f3 0f 10 05 00
	00 00 00	 movss	 xmm0, DWORD PTR ?pilot_rest_anim_frame@@3MA
  00496	f3 0f 11 04 24	 movss	 DWORD PTR [esp], xmm0
  0049b	8b 45 fc	 mov	 eax, DWORD PTR _anim_data$[ebp]
  0049e	50		 push	 eax
  0049f	e8 00 00 00 00	 call	 ?set_pilot_animation@@YGXPAUPILOT_ANIM_DATA@@MH@Z ; set_pilot_animation

; 2149 : 
; 2150 : 			//
; 2151 : 			// eject sequence
; 2152 : 			//
; 2153 : 
; 2154 : 			eject_timer += get_delta_time ();

  004a4	f3 0f 10 05 00
	00 00 00	 movss	 xmm0, DWORD PTR ?eject_timer@@3MA
  004ac	f3 0f 58 05 00
	00 00 00	 addss	 xmm0, DWORD PTR ?system_delta_time@@3MA
  004b4	f3 0f 11 05 00
	00 00 00	 movss	 DWORD PTR ?eject_timer@@3MA, xmm0

; 2155 : 
; 2156 : 			switch (eject_stage)

  004bc	a1 00 00 00 00	 mov	 eax, DWORD PTR ?eject_stage@@3HA
  004c1	89 45 b8	 mov	 DWORD PTR tv192[ebp], eax
  004c4	83 7d b8 00	 cmp	 DWORD PTR tv192[ebp], 0
  004c8	74 11		 je	 SHORT $LN32@update_pil
  004ca	83 7d b8 01	 cmp	 DWORD PTR tv192[ebp], 1
  004ce	74 50		 je	 SHORT $LN34@update_pil
  004d0	83 7d b8 02	 cmp	 DWORD PTR tv192[ebp], 2
  004d4	74 7c		 je	 SHORT $LN36@update_pil
  004d6	e9 ac 00 00 00	 jmp	 $LN38@update_pil
$LN32@update_pil:

; 2157 : 			{
; 2158 : 				////////////////////////////////////////
; 2159 : 				case 0:
; 2160 : 				////////////////////////////////////////
; 2161 : 				{
; 2162 : 					//
; 2163 : 					// fire blades and doors after handle pulled
; 2164 : 					//
; 2165 : 
; 2166 : 					if (eject_timer > 1.0)

  004db	f3 0f 5a 05 00
	00 00 00	 cvtss2sd xmm0, DWORD PTR ?eject_timer@@3MA
  004e3	66 0f 2f 05 00
	00 00 00	 comisd	 xmm0, QWORD PTR __real@3ff0000000000000
  004eb	76 31		 jbe	 SHORT $LN33@update_pil

; 2167 : 					{
; 2168 : 						launch_client_server_weapon (get_gunship_entity (), ENTITY_SUB_TYPE_WEAPON_HOKUM_BLADE);

  004ed	6a 47		 push	 71			; 00000047H
  004ef	a1 00 00 00 00	 mov	 eax, DWORD PTR ?gunship_entity@@3PAUENTITY@@A ; gunship_entity
  004f4	50		 push	 eax
  004f5	e8 00 00 00 00	 call	 ?launch_client_server_weapon@@YGXPAUENTITY@@H@Z ; launch_client_server_weapon

; 2169 : 						launch_client_server_weapon (get_gunship_entity (), ENTITY_SUB_TYPE_WEAPON_HOKUM_LH_DOOR);

  004fa	6a 4a		 push	 74			; 0000004aH
  004fc	a1 00 00 00 00	 mov	 eax, DWORD PTR ?gunship_entity@@3PAUENTITY@@A ; gunship_entity
  00501	50		 push	 eax
  00502	e8 00 00 00 00	 call	 ?launch_client_server_weapon@@YGXPAUENTITY@@H@Z ; launch_client_server_weapon

; 2170 : 						launch_client_server_weapon (get_gunship_entity (), ENTITY_SUB_TYPE_WEAPON_HOKUM_RH_DOOR);

  00507	6a 4b		 push	 75			; 0000004bH
  00509	a1 00 00 00 00	 mov	 eax, DWORD PTR ?gunship_entity@@3PAUENTITY@@A ; gunship_entity
  0050e	50		 push	 eax
  0050f	e8 00 00 00 00	 call	 ?launch_client_server_weapon@@YGXPAUENTITY@@H@Z ; launch_client_server_weapon

; 2171 : 
; 2172 : 						eject_stage = 1;

  00514	c7 05 00 00 00
	00 01 00 00 00	 mov	 DWORD PTR ?eject_stage@@3HA, 1
$LN33@update_pil:

; 2173 : 					}
; 2174 : 
; 2175 : 					break;

  0051e	eb 7a		 jmp	 SHORT $LN4@update_pil
$LN34@update_pil:

; 2176 : 				}
; 2177 : 				////////////////////////////////////////
; 2178 : 				case 1:
; 2179 : 				////////////////////////////////////////
; 2180 : 				{
; 2181 : 					//
; 2182 : 					// delay then switch to external view
; 2183 : 					//
; 2184 : 
; 2185 : 					if (eject_timer > 1.5)

  00520	f3 0f 5a 05 00
	00 00 00	 cvtss2sd xmm0, DWORD PTR ?eject_timer@@3MA
  00528	66 0f 2f 05 00
	00 00 00	 comisd	 xmm0, QWORD PTR __real@3ff8000000000000
  00530	76 1e		 jbe	 SHORT $LN35@update_pil

; 2186 : 					{
; 2187 : 						notify_local_entity (ENTITY_MESSAGE_SET_CAMERA_ACTION, get_camera_entity (), NULL, CAMERA_ACTION_EJECT);

  00532	6a 07		 push	 7
  00534	6a 00		 push	 0
  00536	a1 00 00 00 00	 mov	 eax, DWORD PTR ?camera_entity@@3PAUENTITY@@A ; camera_entity
  0053b	50		 push	 eax
  0053c	6a 2f		 push	 47			; 0000002fH
  0053e	e8 00 00 00 00	 call	 ?notify_local_entity@@YAHW4ENTITY_MESSAGES@@PAUENTITY@@1ZZ ; notify_local_entity
  00543	83 c4 10	 add	 esp, 16			; 00000010H

; 2188 : 
; 2189 : 						eject_stage = 2;

  00546	c7 05 00 00 00
	00 02 00 00 00	 mov	 DWORD PTR ?eject_stage@@3HA, 2
$LN35@update_pil:

; 2190 : 					}
; 2191 : 
; 2192 : 					break;

  00550	eb 48		 jmp	 SHORT $LN4@update_pil
$LN36@update_pil:

; 2193 : 				}
; 2194 : 				////////////////////////////////////////
; 2195 : 				case 2:
; 2196 : 				////////////////////////////////////////
; 2197 : 				{
; 2198 : 					//
; 2199 : 					// delay then eject crew
; 2200 : 					//
; 2201 : 
; 2202 : 					if (eject_timer > 2.0)

  00552	f3 0f 5a 05 00
	00 00 00	 cvtss2sd xmm0, DWORD PTR ?eject_timer@@3MA
  0055a	66 0f 2f 05 00
	00 00 00	 comisd	 xmm0, QWORD PTR __real@4000000000000000
  00562	76 21		 jbe	 SHORT $LN37@update_pil

; 2203 : 					{
; 2204 : 						launch_client_server_weapon (get_gunship_entity (), ENTITY_SUB_TYPE_WEAPON_HOKUM_PILOT);

  00564	6a 48		 push	 72			; 00000048H
  00566	a1 00 00 00 00	 mov	 eax, DWORD PTR ?gunship_entity@@3PAUENTITY@@A ; gunship_entity
  0056b	50		 push	 eax
  0056c	e8 00 00 00 00	 call	 ?launch_client_server_weapon@@YGXPAUENTITY@@H@Z ; launch_client_server_weapon

; 2205 : 
; 2206 : 						pilot_rest_anim_mode = PILOT_REST_ANIM_MODE_NONE;

  00571	c7 05 00 00 00
	00 00 00 00 00	 mov	 DWORD PTR ?pilot_rest_anim_mode@@3W4PILOT_REST_ANIM_MODES@@A, 0

; 2207 : 
; 2208 : 						eject_stage = 3;

  0057b	c7 05 00 00 00
	00 03 00 00 00	 mov	 DWORD PTR ?eject_stage@@3HA, 3
$LN37@update_pil:

; 2209 : 					}
; 2210 : 
; 2211 : 					break;

  00585	eb 13		 jmp	 SHORT $LN4@update_pil
$LN38@update_pil:

; 2212 : 				}
; 2213 : 				////////////////////////////////////////
; 2214 : 				default:
; 2215 : 				////////////////////////////////////////
; 2216 : 				{
; 2217 : 					debug_fatal ("Invalid eject stage = %d", eject_stage);

  00587	a1 00 00 00 00	 mov	 eax, DWORD PTR ?eject_stage@@3HA
  0058c	50		 push	 eax
  0058d	68 00 00 00 00	 push	 OFFSET ??_C@_0BJ@MENDMCHB@Invalid?5eject?5stage?5?$DN?5?$CFd@
  00592	e8 00 00 00 00	 call	 ?debug_fatal@@YAXPBDZZ	; debug_fatal
  00597	83 c4 08	 add	 esp, 8
$LN4@update_pil:

; 2218 : 
; 2219 : 					break;
; 2220 : 				}
; 2221 : 			}
; 2222 : 
; 2223 : 			break;

  0059a	e9 52 01 00 00	 jmp	 $LN2@update_pil
$LN39@update_pil:

; 2224 : 		}
; 2225 : 		////////////////////////////////////////
; 2226 : 		case PILOT_REST_ANIM_MODE_HEAD_LOOK_DOWN:
; 2227 : 		////////////////////////////////////////
; 2228 : 		{
; 2229 : 			anim_data = &pilot_rest_anim_mode_head_look_down_anim_data;

  0059f	c7 45 fc 00 00
	00 00		 mov	 DWORD PTR _anim_data$[ebp], OFFSET ?pilot_rest_anim_mode_head_look_down_anim_data@@3UPILOT_ANIM_DATA@@A

; 2230 : 
; 2231 : 			update_pilot_head_animation ();

  005a6	e8 00 00 00 00	 call	 ?update_pilot_head_animation@@YGXXZ ; update_pilot_head_animation

; 2232 : 
; 2233 : 			set_pilot_animation (anim_data, pilot_rest_anim_frame, head_anim_only);

  005ab	8b 45 08	 mov	 eax, DWORD PTR _head_anim_only$[ebp]
  005ae	50		 push	 eax
  005af	51		 push	 ecx
  005b0	f3 0f 10 05 00
	00 00 00	 movss	 xmm0, DWORD PTR ?pilot_rest_anim_frame@@3MA
  005b8	f3 0f 11 04 24	 movss	 DWORD PTR [esp], xmm0
  005bd	8b 4d fc	 mov	 ecx, DWORD PTR _anim_data$[ebp]
  005c0	51		 push	 ecx
  005c1	e8 00 00 00 00	 call	 ?set_pilot_animation@@YGXPAUPILOT_ANIM_DATA@@MH@Z ; set_pilot_animation

; 2234 : 
; 2235 : 			break;

  005c6	e9 26 01 00 00	 jmp	 $LN2@update_pil
$LN40@update_pil:

; 2236 : 		}
; 2237 : 		////////////////////////////////////////
; 2238 : 		case PILOT_REST_ANIM_MODE_HEAD_LOOK_DOWN_LEFT:
; 2239 : 		////////////////////////////////////////
; 2240 : 		{
; 2241 : 			anim_data = &pilot_rest_anim_mode_head_look_down_left_anim_data;

  005cb	c7 45 fc 00 00
	00 00		 mov	 DWORD PTR _anim_data$[ebp], OFFSET ?pilot_rest_anim_mode_head_look_down_left_anim_data@@3UPILOT_ANIM_DATA@@A

; 2242 : 
; 2243 : 			update_pilot_head_animation ();

  005d2	e8 00 00 00 00	 call	 ?update_pilot_head_animation@@YGXXZ ; update_pilot_head_animation

; 2244 : 
; 2245 : 			set_pilot_animation (anim_data, pilot_rest_anim_frame, head_anim_only);

  005d7	8b 45 08	 mov	 eax, DWORD PTR _head_anim_only$[ebp]
  005da	50		 push	 eax
  005db	51		 push	 ecx
  005dc	f3 0f 10 05 00
	00 00 00	 movss	 xmm0, DWORD PTR ?pilot_rest_anim_frame@@3MA
  005e4	f3 0f 11 04 24	 movss	 DWORD PTR [esp], xmm0
  005e9	8b 4d fc	 mov	 ecx, DWORD PTR _anim_data$[ebp]
  005ec	51		 push	 ecx
  005ed	e8 00 00 00 00	 call	 ?set_pilot_animation@@YGXPAUPILOT_ANIM_DATA@@MH@Z ; set_pilot_animation

; 2246 : 
; 2247 : 			break;

  005f2	e9 fa 00 00 00	 jmp	 $LN2@update_pil
$LN41@update_pil:

; 2248 : 		}
; 2249 : 		////////////////////////////////////////
; 2250 : 		case PILOT_REST_ANIM_MODE_HEAD_LOOK_DOWN_RIGHT:
; 2251 : 		////////////////////////////////////////
; 2252 : 		{
; 2253 : 			anim_data = &pilot_rest_anim_mode_head_look_down_right_anim_data;

  005f7	c7 45 fc 00 00
	00 00		 mov	 DWORD PTR _anim_data$[ebp], OFFSET ?pilot_rest_anim_mode_head_look_down_right_anim_data@@3UPILOT_ANIM_DATA@@A

; 2254 : 
; 2255 : 			update_pilot_head_animation ();

  005fe	e8 00 00 00 00	 call	 ?update_pilot_head_animation@@YGXXZ ; update_pilot_head_animation

; 2256 : 
; 2257 : 			set_pilot_animation (anim_data, pilot_rest_anim_frame, head_anim_only);

  00603	8b 45 08	 mov	 eax, DWORD PTR _head_anim_only$[ebp]
  00606	50		 push	 eax
  00607	51		 push	 ecx
  00608	f3 0f 10 05 00
	00 00 00	 movss	 xmm0, DWORD PTR ?pilot_rest_anim_frame@@3MA
  00610	f3 0f 11 04 24	 movss	 DWORD PTR [esp], xmm0
  00615	8b 4d fc	 mov	 ecx, DWORD PTR _anim_data$[ebp]
  00618	51		 push	 ecx
  00619	e8 00 00 00 00	 call	 ?set_pilot_animation@@YGXPAUPILOT_ANIM_DATA@@MH@Z ; set_pilot_animation

; 2258 : 
; 2259 : 			break;

  0061e	e9 ce 00 00 00	 jmp	 $LN2@update_pil
$LN42@update_pil:

; 2260 : 		}
; 2261 : 		////////////////////////////////////////
; 2262 : 		case PILOT_REST_ANIM_MODE_HEAD_LOOK_UP:
; 2263 : 		////////////////////////////////////////
; 2264 : 		{
; 2265 : 			anim_data = &pilot_rest_anim_mode_head_look_up_anim_data;

  00623	c7 45 fc 00 00
	00 00		 mov	 DWORD PTR _anim_data$[ebp], OFFSET ?pilot_rest_anim_mode_head_look_up_anim_data@@3UPILOT_ANIM_DATA@@A

; 2266 : 
; 2267 : 			update_pilot_head_animation ();

  0062a	e8 00 00 00 00	 call	 ?update_pilot_head_animation@@YGXXZ ; update_pilot_head_animation

; 2268 : 
; 2269 : 			set_pilot_animation (anim_data, pilot_rest_anim_frame, head_anim_only);

  0062f	8b 45 08	 mov	 eax, DWORD PTR _head_anim_only$[ebp]
  00632	50		 push	 eax
  00633	51		 push	 ecx
  00634	f3 0f 10 05 00
	00 00 00	 movss	 xmm0, DWORD PTR ?pilot_rest_anim_frame@@3MA
  0063c	f3 0f 11 04 24	 movss	 DWORD PTR [esp], xmm0
  00641	8b 4d fc	 mov	 ecx, DWORD PTR _anim_data$[ebp]
  00644	51		 push	 ecx
  00645	e8 00 00 00 00	 call	 ?set_pilot_animation@@YGXPAUPILOT_ANIM_DATA@@MH@Z ; set_pilot_animation

; 2270 : 
; 2271 : 			break;

  0064a	e9 a2 00 00 00	 jmp	 $LN2@update_pil
$LN43@update_pil:

; 2272 : 		}
; 2273 : 		////////////////////////////////////////
; 2274 : 		case PILOT_REST_ANIM_MODE_HEAD_LOOK_UP_LEFT:
; 2275 : 		////////////////////////////////////////
; 2276 : 		{
; 2277 : 			anim_data = &pilot_rest_anim_mode_head_look_up_left_anim_data;

  0064f	c7 45 fc 00 00
	00 00		 mov	 DWORD PTR _anim_data$[ebp], OFFSET ?pilot_rest_anim_mode_head_look_up_left_anim_data@@3UPILOT_ANIM_DATA@@A

; 2278 : 
; 2279 : 			update_pilot_head_animation ();

  00656	e8 00 00 00 00	 call	 ?update_pilot_head_animation@@YGXXZ ; update_pilot_head_animation

; 2280 : 
; 2281 : 			set_pilot_animation (anim_data, pilot_rest_anim_frame, head_anim_only);

  0065b	8b 45 08	 mov	 eax, DWORD PTR _head_anim_only$[ebp]
  0065e	50		 push	 eax
  0065f	51		 push	 ecx
  00660	f3 0f 10 05 00
	00 00 00	 movss	 xmm0, DWORD PTR ?pilot_rest_anim_frame@@3MA
  00668	f3 0f 11 04 24	 movss	 DWORD PTR [esp], xmm0
  0066d	8b 4d fc	 mov	 ecx, DWORD PTR _anim_data$[ebp]
  00670	51		 push	 ecx
  00671	e8 00 00 00 00	 call	 ?set_pilot_animation@@YGXPAUPILOT_ANIM_DATA@@MH@Z ; set_pilot_animation

; 2282 : 
; 2283 : 			break;

  00676	eb 79		 jmp	 SHORT $LN2@update_pil
$LN44@update_pil:

; 2284 : 		}
; 2285 : 		////////////////////////////////////////
; 2286 : 		case PILOT_REST_ANIM_MODE_HEAD_LOOK_UP_RIGHT:
; 2287 : 		////////////////////////////////////////
; 2288 : 		{
; 2289 : 			anim_data = &pilot_rest_anim_mode_head_look_up_right_anim_data;

  00678	c7 45 fc 00 00
	00 00		 mov	 DWORD PTR _anim_data$[ebp], OFFSET ?pilot_rest_anim_mode_head_look_up_right_anim_data@@3UPILOT_ANIM_DATA@@A

; 2290 : 
; 2291 : 			update_pilot_head_animation ();

  0067f	e8 00 00 00 00	 call	 ?update_pilot_head_animation@@YGXXZ ; update_pilot_head_animation

; 2292 : 
; 2293 : 			set_pilot_animation (anim_data, pilot_rest_anim_frame, head_anim_only);

  00684	8b 45 08	 mov	 eax, DWORD PTR _head_anim_only$[ebp]
  00687	50		 push	 eax
  00688	51		 push	 ecx
  00689	f3 0f 10 05 00
	00 00 00	 movss	 xmm0, DWORD PTR ?pilot_rest_anim_frame@@3MA
  00691	f3 0f 11 04 24	 movss	 DWORD PTR [esp], xmm0
  00696	8b 4d fc	 mov	 ecx, DWORD PTR _anim_data$[ebp]
  00699	51		 push	 ecx
  0069a	e8 00 00 00 00	 call	 ?set_pilot_animation@@YGXPAUPILOT_ANIM_DATA@@MH@Z ; set_pilot_animation

; 2294 : 
; 2295 : 			break;

  0069f	eb 50		 jmp	 SHORT $LN2@update_pil
$LN45@update_pil:

; 2296 : 		}
; 2297 : 		////////////////////////////////////////
; 2298 : 		case PILOT_REST_ANIM_MODE_HEAD_LOOK_LEFT:
; 2299 : 		////////////////////////////////////////
; 2300 : 		{
; 2301 : 			anim_data = &pilot_rest_anim_mode_head_look_left_anim_data;

  006a1	c7 45 fc 00 00
	00 00		 mov	 DWORD PTR _anim_data$[ebp], OFFSET ?pilot_rest_anim_mode_head_look_left_anim_data@@3UPILOT_ANIM_DATA@@A

; 2302 : 
; 2303 : 			update_pilot_head_animation ();

  006a8	e8 00 00 00 00	 call	 ?update_pilot_head_animation@@YGXXZ ; update_pilot_head_animation

; 2304 : 
; 2305 : 			set_pilot_animation (anim_data, pilot_rest_anim_frame, head_anim_only);

  006ad	8b 45 08	 mov	 eax, DWORD PTR _head_anim_only$[ebp]
  006b0	50		 push	 eax
  006b1	51		 push	 ecx
  006b2	f3 0f 10 05 00
	00 00 00	 movss	 xmm0, DWORD PTR ?pilot_rest_anim_frame@@3MA
  006ba	f3 0f 11 04 24	 movss	 DWORD PTR [esp], xmm0
  006bf	8b 4d fc	 mov	 ecx, DWORD PTR _anim_data$[ebp]
  006c2	51		 push	 ecx
  006c3	e8 00 00 00 00	 call	 ?set_pilot_animation@@YGXPAUPILOT_ANIM_DATA@@MH@Z ; set_pilot_animation

; 2306 : 
; 2307 : 			break;

  006c8	eb 27		 jmp	 SHORT $LN2@update_pil
$LN46@update_pil:

; 2308 : 		}
; 2309 : 		////////////////////////////////////////
; 2310 : 		case PILOT_REST_ANIM_MODE_HEAD_LOOK_RIGHT:
; 2311 : 		////////////////////////////////////////
; 2312 : 		{
; 2313 : 			anim_data = &pilot_rest_anim_mode_head_look_right_anim_data;

  006ca	c7 45 fc 00 00
	00 00		 mov	 DWORD PTR _anim_data$[ebp], OFFSET ?pilot_rest_anim_mode_head_look_right_anim_data@@3UPILOT_ANIM_DATA@@A

; 2314 : 
; 2315 : 			update_pilot_head_animation ();

  006d1	e8 00 00 00 00	 call	 ?update_pilot_head_animation@@YGXXZ ; update_pilot_head_animation

; 2316 : 
; 2317 : 			set_pilot_animation (anim_data, pilot_rest_anim_frame, head_anim_only);

  006d6	8b 45 08	 mov	 eax, DWORD PTR _head_anim_only$[ebp]
  006d9	50		 push	 eax
  006da	51		 push	 ecx
  006db	f3 0f 10 05 00
	00 00 00	 movss	 xmm0, DWORD PTR ?pilot_rest_anim_frame@@3MA
  006e3	f3 0f 11 04 24	 movss	 DWORD PTR [esp], xmm0
  006e8	8b 4d fc	 mov	 ecx, DWORD PTR _anim_data$[ebp]
  006eb	51		 push	 ecx
  006ec	e8 00 00 00 00	 call	 ?set_pilot_animation@@YGXPAUPILOT_ANIM_DATA@@MH@Z ; set_pilot_animation
$LN2@update_pil:

; 2318 : 
; 2319 : 			break;
; 2320 : 		}
; 2321 : 	}
; 2322 : }

  006f1	5f		 pop	 edi
  006f2	5e		 pop	 esi
  006f3	5b		 pop	 ebx
  006f4	8b e5		 mov	 esp, ebp
  006f6	5d		 pop	 ebp
  006f7	c2 04 00	 ret	 4
  006fa	66 90		 npad	 2
$LN48@update_pil:
  006fc	00 00 00 00	 DD	 $LN9@update_pil
  00700	00 00 00 00	 DD	 $LN14@update_pil
  00704	00 00 00 00	 DD	 $LN17@update_pil
  00708	00 00 00 00	 DD	 $LN20@update_pil
  0070c	00 00 00 00	 DD	 $LN23@update_pil
  00710	00 00 00 00	 DD	 $LN29@update_pil
  00714	00 00 00 00	 DD	 $LN39@update_pil
  00718	00 00 00 00	 DD	 $LN40@update_pil
  0071c	00 00 00 00	 DD	 $LN41@update_pil
  00720	00 00 00 00	 DD	 $LN42@update_pil
  00724	00 00 00 00	 DD	 $LN43@update_pil
  00728	00 00 00 00	 DD	 $LN44@update_pil
  0072c	00 00 00 00	 DD	 $LN45@update_pil
  00730	00 00 00 00	 DD	 $LN46@update_pil
?update_pilot_rest_animation@@YGXH@Z ENDP		; update_pilot_rest_animation
_TEXT	ENDS
; Function compile flags: /Odtp /ZI
; File c:\users\nhv90\projects\eech\aphavoc\source\gunships\cockpits\ka50\hm_pilot.c
;	COMDAT ?update_pilot_head_animation@@YGXXZ
_TEXT	SEGMENT
?update_pilot_head_animation@@YGXXZ PROC		; update_pilot_head_animation, COMDAT

; 1920 : {

  00000	55		 push	 ebp
  00001	8b ec		 mov	 ebp, esp
  00003	83 ec 40	 sub	 esp, 64			; 00000040H
  00006	53		 push	 ebx
  00007	56		 push	 esi
  00008	57		 push	 edi

; 1921 : 	pilot_rest_anim_frame += get_delta_time () * 0.5;

  00009	f3 0f 5a 05 00
	00 00 00	 cvtss2sd xmm0, DWORD PTR ?system_delta_time@@3MA
  00011	f2 0f 59 05 00
	00 00 00	 mulsd	 xmm0, QWORD PTR __real@3fe0000000000000
  00019	f3 0f 5a 0d 00
	00 00 00	 cvtss2sd xmm1, DWORD PTR ?pilot_rest_anim_frame@@3MA
  00021	f2 0f 58 c8	 addsd	 xmm1, xmm0
  00025	f2 0f 5a c1	 cvtsd2ss xmm0, xmm1
  00029	f3 0f 11 05 00
	00 00 00	 movss	 DWORD PTR ?pilot_rest_anim_frame@@3MA, xmm0

; 1922 : 
; 1923 : 	if ((pilot_rest_anim_frame >= 0.5) && (pilot_head_anim_pause > 0.0))

  00031	f3 0f 5a 05 00
	00 00 00	 cvtss2sd xmm0, DWORD PTR ?pilot_rest_anim_frame@@3MA
  00039	66 0f 2f 05 00
	00 00 00	 comisd	 xmm0, QWORD PTR __real@3fe0000000000000
  00041	72 58		 jb	 SHORT $LN2@update_pil
  00043	f3 0f 5a 05 00
	00 00 00	 cvtss2sd xmm0, DWORD PTR ?pilot_head_anim_pause@@3MA
  0004b	66 0f 2f 05 00
	00 00 00	 comisd	 xmm0, QWORD PTR __real@0000000000000000
  00053	76 46		 jbe	 SHORT $LN2@update_pil

; 1924 : 	{
; 1925 : 		pilot_rest_anim_frame = 0.5;

  00055	f3 0f 10 05 00
	00 00 00	 movss	 xmm0, DWORD PTR __real@3f000000
  0005d	f3 0f 11 05 00
	00 00 00	 movss	 DWORD PTR ?pilot_rest_anim_frame@@3MA, xmm0

; 1926 : 
; 1927 : 		pilot_head_anim_pause -= get_delta_time ();

  00065	f3 0f 10 05 00
	00 00 00	 movss	 xmm0, DWORD PTR ?pilot_head_anim_pause@@3MA
  0006d	f3 0f 5c 05 00
	00 00 00	 subss	 xmm0, DWORD PTR ?system_delta_time@@3MA
  00075	f3 0f 11 05 00
	00 00 00	 movss	 DWORD PTR ?pilot_head_anim_pause@@3MA, xmm0

; 1928 : 
; 1929 : 		if (pilot_head_anim_pause < 0.0)

  0007d	f3 0f 5a 05 00
	00 00 00	 cvtss2sd xmm0, DWORD PTR ?pilot_head_anim_pause@@3MA
  00085	0f 57 c9	 xorps	 xmm1, xmm1
  00088	66 0f 2f c8	 comisd	 xmm1, xmm0
  0008c	76 0b		 jbe	 SHORT $LN4@update_pil

; 1930 : 		{
; 1931 : 			pilot_head_anim_pause = 0.0;

  0008e	0f 57 c0	 xorps	 xmm0, xmm0
  00091	f3 0f 11 05 00
	00 00 00	 movss	 DWORD PTR ?pilot_head_anim_pause@@3MA, xmm0
$LN4@update_pil:

; 1932 : 		}
; 1933 : 	}
; 1934 : 	else

  00099	eb 2c		 jmp	 SHORT $LN5@update_pil
$LN2@update_pil:

; 1935 : 	{
; 1936 : 		if (pilot_rest_anim_frame >= 1.0)

  0009b	f3 0f 5a 05 00
	00 00 00	 cvtss2sd xmm0, DWORD PTR ?pilot_rest_anim_frame@@3MA
  000a3	66 0f 2f 05 00
	00 00 00	 comisd	 xmm0, QWORD PTR __real@3ff0000000000000
  000ab	72 1a		 jb	 SHORT $LN5@update_pil

; 1937 : 		{
; 1938 : 			pilot_rest_anim_frame = 1.0;

  000ad	f3 0f 10 05 00
	00 00 00	 movss	 xmm0, DWORD PTR __real@3f800000
  000b5	f3 0f 11 05 00
	00 00 00	 movss	 DWORD PTR ?pilot_rest_anim_frame@@3MA, xmm0

; 1939 : 
; 1940 : 			pilot_rest_anim_mode = PILOT_REST_ANIM_MODE_NONE;

  000bd	c7 05 00 00 00
	00 00 00 00 00	 mov	 DWORD PTR ?pilot_rest_anim_mode@@3W4PILOT_REST_ANIM_MODES@@A, 0
$LN5@update_pil:

; 1941 : 		}
; 1942 : 	}
; 1943 : }

  000c7	5f		 pop	 edi
  000c8	5e		 pop	 esi
  000c9	5b		 pop	 ebx
  000ca	8b e5		 mov	 esp, ebp
  000cc	5d		 pop	 ebp
  000cd	c3		 ret	 0
?update_pilot_head_animation@@YGXXZ ENDP		; update_pilot_head_animation
_TEXT	ENDS
; Function compile flags: /Odtp /ZI
; File c:\users\nhv90\projects\eech\aphavoc\source\gunships\cockpits\ka50\hm_pilot.c
;	COMDAT ?get_random_pilot_rest_anim_mode@@YG?AW4PILOT_REST_ANIM_MODES@@XZ
_TEXT	SEGMENT
tv87 = -76						; size = 4
_mode$ = -8						; size = 4
_n$ = -4						; size = 4
?get_random_pilot_rest_anim_mode@@YG?AW4PILOT_REST_ANIM_MODES@@XZ PROC ; get_random_pilot_rest_anim_mode, COMDAT

; 1725 : {

  00000	55		 push	 ebp
  00001	8b ec		 mov	 ebp, esp
  00003	83 ec 4c	 sub	 esp, 76			; 0000004cH
  00006	53		 push	 ebx
  00007	56		 push	 esi
  00008	57		 push	 edi

; 1726 : 	int
; 1727 : 		n;
; 1728 : 
; 1729 : 	pilot_rest_anim_modes
; 1730 : 		mode;
; 1731 : 
; 1732 : 	n = -1;

  00009	c7 45 fc ff ff
	ff ff		 mov	 DWORD PTR _n$[ebp], -1

; 1733 : 
; 1734 : 	mode = PILOT_REST_ANIM_MODE_NONE;

  00010	c7 45 f8 00 00
	00 00		 mov	 DWORD PTR _mode$[ebp], 0

; 1735 : 
; 1736 : 	if (pilot_main_anim_mode == PILOT_MAIN_ANIM_MODE_HANDS_OFF_CONTROLS)

  00017	83 3d 00 00 00
	00 00		 cmp	 DWORD PTR ?pilot_main_anim_mode@@3W4PILOT_MAIN_ANIM_MODES@@A, 0
  0001e	75 31		 jne	 SHORT $LN4@get_random

; 1737 : 	{
; 1738 : 		n = rand16 () % 11;

  00020	69 05 00 00 00
	00 6d 4e c6 41	 imul	 eax, DWORD PTR ?random_number_seed@@3HA, 1103515245 ; random_number_seed
  0002a	05 39 30 00 00	 add	 eax, 12345		; 00003039H
  0002f	a3 00 00 00 00	 mov	 DWORD PTR ?random_number_seed@@3HA, eax ; random_number_seed
  00034	a1 00 00 00 00	 mov	 eax, DWORD PTR ?random_number_seed@@3HA ; random_number_seed
  00039	c1 f8 10	 sar	 eax, 16			; 00000010H
  0003c	25 ff 7f 00 00	 and	 eax, 32767		; 00007fffH
  00041	99		 cdq
  00042	b9 0b 00 00 00	 mov	 ecx, 11			; 0000000bH
  00047	f7 f9		 idiv	 ecx
  00049	89 55 fc	 mov	 DWORD PTR _n$[ebp], edx

; 1739 : 	}
; 1740 : 	else

  0004c	e9 69 01 00 00	 jmp	 $LN22@get_random
$LN4@get_random:

; 1741 : 	{
; 1742 : 		////////////////////////////////////////
; 1743 : 		//
; 1744 : 		// select head movement only
; 1745 : 		//
; 1746 : 		////////////////////////////////////////
; 1747 : 
; 1748 : 		//
; 1749 : 		// the pilot cannot move his head while operating the night vision goggles
; 1750 : 		//
; 1751 : 
; 1752 : 		if (get_pilot_main_anim_mode_nvg_animation ())

  00051	e8 00 00 00 00	 call	 ?get_pilot_main_anim_mode_nvg_animation@@YGHXZ ; get_pilot_main_anim_mode_nvg_animation
  00056	85 c0		 test	 eax, eax
  00058	74 07		 je	 SHORT $LN6@get_random

; 1753 : 		{
; 1754 : 			return (PILOT_REST_ANIM_MODE_NONE);

  0005a	33 c0		 xor	 eax, eax
  0005c	e9 f0 01 00 00	 jmp	 $LN1@get_random
$LN6@get_random:

; 1755 : 		}
; 1756 : 
; 1757 : 		//
; 1758 : 		// note: set previous_random_pilot_rest_anim_mode to PILOT_REST_ANIM_MODE_NONE to pass repetition check
; 1759 : 		//
; 1760 : 
; 1761 : 		#define DEAD_ZONE				((float) (0.1))
; 1762 : 		#define LEFT_THRESHOLD		((float) (0.5 - DEAD_ZONE))
; 1763 : 		#define RIGHT_THRESHOLD		((float) (0.5 + DEAD_ZONE))
; 1764 : 		#define UP_THRESHOLD			((float) (0.5 - DEAD_ZONE))
; 1765 : 		#define DOWN_THRESHOLD		((float) (0.5 + DEAD_ZONE))
; 1766 : 
; 1767 : 		if (cyclic_x_position < LEFT_THRESHOLD)

  00061	f3 0f 10 05 00
	00 00 00	 movss	 xmm0, DWORD PTR __real@3ecccccd
  00069	0f 2f 05 00 00
	00 00		 comiss	 xmm0, DWORD PTR ?cyclic_x_position@@3MA
  00070	76 5e		 jbe	 SHORT $LN7@get_random

; 1768 : 		{
; 1769 : 			if (cyclic_y_position < UP_THRESHOLD)

  00072	f3 0f 10 05 00
	00 00 00	 movss	 xmm0, DWORD PTR __real@3ecccccd
  0007a	0f 2f 05 00 00
	00 00		 comiss	 xmm0, DWORD PTR ?cyclic_y_position@@3MA
  00081	76 13		 jbe	 SHORT $LN9@get_random

; 1770 : 			{
; 1771 : 				mode = PILOT_REST_ANIM_MODE_HEAD_LOOK_UP_LEFT;

  00083	c7 45 f8 0a 00
	00 00		 mov	 DWORD PTR _mode$[ebp], 10 ; 0000000aH

; 1772 : 
; 1773 : 				previous_random_pilot_rest_anim_mode = PILOT_REST_ANIM_MODE_NONE;

  0008a	c7 05 00 00 00
	00 00 00 00 00	 mov	 DWORD PTR ?previous_random_pilot_rest_anim_mode@@3W4PILOT_REST_ANIM_MODES@@A, 0
  00094	eb 35		 jmp	 SHORT $LN12@get_random
$LN9@get_random:

; 1774 : 			}
; 1775 : 			else if (cyclic_y_position > DOWN_THRESHOLD)

  00096	f3 0f 10 05 00
	00 00 00	 movss	 xmm0, DWORD PTR ?cyclic_y_position@@3MA
  0009e	0f 2f 05 00 00
	00 00		 comiss	 xmm0, DWORD PTR __real@3f19999a
  000a5	76 13		 jbe	 SHORT $LN11@get_random

; 1776 : 			{
; 1777 : 				mode = PILOT_REST_ANIM_MODE_HEAD_LOOK_DOWN_LEFT;

  000a7	c7 45 f8 07 00
	00 00		 mov	 DWORD PTR _mode$[ebp], 7

; 1778 : 
; 1779 : 				previous_random_pilot_rest_anim_mode = PILOT_REST_ANIM_MODE_NONE;

  000ae	c7 05 00 00 00
	00 00 00 00 00	 mov	 DWORD PTR ?previous_random_pilot_rest_anim_mode@@3W4PILOT_REST_ANIM_MODES@@A, 0

; 1780 : 			}
; 1781 : 			else

  000b8	eb 11		 jmp	 SHORT $LN12@get_random
$LN11@get_random:

; 1782 : 			{
; 1783 : 				mode = PILOT_REST_ANIM_MODE_HEAD_LOOK_LEFT;

  000ba	c7 45 f8 0c 00
	00 00		 mov	 DWORD PTR _mode$[ebp], 12 ; 0000000cH

; 1784 : 
; 1785 : 				previous_random_pilot_rest_anim_mode = PILOT_REST_ANIM_MODE_NONE;

  000c1	c7 05 00 00 00
	00 00 00 00 00	 mov	 DWORD PTR ?previous_random_pilot_rest_anim_mode@@3W4PILOT_REST_ANIM_MODES@@A, 0
$LN12@get_random:

; 1786 : 			}

  000cb	e9 ea 00 00 00	 jmp	 $LN22@get_random
$LN7@get_random:

; 1787 : 		}
; 1788 : 		else if (cyclic_x_position > RIGHT_THRESHOLD)

  000d0	f3 0f 10 05 00
	00 00 00	 movss	 xmm0, DWORD PTR ?cyclic_x_position@@3MA
  000d8	0f 2f 05 00 00
	00 00		 comiss	 xmm0, DWORD PTR __real@3f19999a
  000df	76 5b		 jbe	 SHORT $LN13@get_random

; 1789 : 		{
; 1790 : 			if (cyclic_y_position < UP_THRESHOLD)

  000e1	f3 0f 10 05 00
	00 00 00	 movss	 xmm0, DWORD PTR __real@3ecccccd
  000e9	0f 2f 05 00 00
	00 00		 comiss	 xmm0, DWORD PTR ?cyclic_y_position@@3MA
  000f0	76 13		 jbe	 SHORT $LN15@get_random

; 1791 : 			{
; 1792 : 				mode = PILOT_REST_ANIM_MODE_HEAD_LOOK_UP_RIGHT;

  000f2	c7 45 f8 0b 00
	00 00		 mov	 DWORD PTR _mode$[ebp], 11 ; 0000000bH

; 1793 : 
; 1794 : 				previous_random_pilot_rest_anim_mode = PILOT_REST_ANIM_MODE_NONE;

  000f9	c7 05 00 00 00
	00 00 00 00 00	 mov	 DWORD PTR ?previous_random_pilot_rest_anim_mode@@3W4PILOT_REST_ANIM_MODES@@A, 0
  00103	eb 35		 jmp	 SHORT $LN18@get_random
$LN15@get_random:

; 1795 : 			}
; 1796 : 			else if (cyclic_y_position > DOWN_THRESHOLD)

  00105	f3 0f 10 05 00
	00 00 00	 movss	 xmm0, DWORD PTR ?cyclic_y_position@@3MA
  0010d	0f 2f 05 00 00
	00 00		 comiss	 xmm0, DWORD PTR __real@3f19999a
  00114	76 13		 jbe	 SHORT $LN17@get_random

; 1797 : 			{
; 1798 : 				mode = PILOT_REST_ANIM_MODE_HEAD_LOOK_DOWN_RIGHT;

  00116	c7 45 f8 08 00
	00 00		 mov	 DWORD PTR _mode$[ebp], 8

; 1799 : 
; 1800 : 				previous_random_pilot_rest_anim_mode = PILOT_REST_ANIM_MODE_NONE;

  0011d	c7 05 00 00 00
	00 00 00 00 00	 mov	 DWORD PTR ?previous_random_pilot_rest_anim_mode@@3W4PILOT_REST_ANIM_MODES@@A, 0

; 1801 : 			}
; 1802 : 			else

  00127	eb 11		 jmp	 SHORT $LN18@get_random
$LN17@get_random:

; 1803 : 			{
; 1804 : 				mode = PILOT_REST_ANIM_MODE_HEAD_LOOK_RIGHT;

  00129	c7 45 f8 0d 00
	00 00		 mov	 DWORD PTR _mode$[ebp], 13 ; 0000000dH

; 1805 : 
; 1806 : 				previous_random_pilot_rest_anim_mode = PILOT_REST_ANIM_MODE_NONE;

  00130	c7 05 00 00 00
	00 00 00 00 00	 mov	 DWORD PTR ?previous_random_pilot_rest_anim_mode@@3W4PILOT_REST_ANIM_MODES@@A, 0
$LN18@get_random:

; 1807 : 			}

  0013a	eb 7e		 jmp	 SHORT $LN22@get_random
$LN13@get_random:

; 1808 : 		}
; 1809 : 		else if (cyclic_y_position < UP_THRESHOLD)

  0013c	f3 0f 10 05 00
	00 00 00	 movss	 xmm0, DWORD PTR __real@3ecccccd
  00144	0f 2f 05 00 00
	00 00		 comiss	 xmm0, DWORD PTR ?cyclic_y_position@@3MA
  0014b	76 13		 jbe	 SHORT $LN19@get_random

; 1810 : 		{
; 1811 : 			mode = PILOT_REST_ANIM_MODE_HEAD_LOOK_UP;

  0014d	c7 45 f8 09 00
	00 00		 mov	 DWORD PTR _mode$[ebp], 9

; 1812 : 
; 1813 : 			previous_random_pilot_rest_anim_mode = PILOT_REST_ANIM_MODE_NONE;

  00154	c7 05 00 00 00
	00 00 00 00 00	 mov	 DWORD PTR ?previous_random_pilot_rest_anim_mode@@3W4PILOT_REST_ANIM_MODES@@A, 0
  0015e	eb 5a		 jmp	 SHORT $LN22@get_random
$LN19@get_random:

; 1814 : 		}
; 1815 : 		else if (cyclic_y_position > DOWN_THRESHOLD)

  00160	f3 0f 10 05 00
	00 00 00	 movss	 xmm0, DWORD PTR ?cyclic_y_position@@3MA
  00168	0f 2f 05 00 00
	00 00		 comiss	 xmm0, DWORD PTR __real@3f19999a
  0016f	76 13		 jbe	 SHORT $LN21@get_random

; 1816 : 		{
; 1817 : 			mode = PILOT_REST_ANIM_MODE_HEAD_LOOK_DOWN;

  00171	c7 45 f8 06 00
	00 00		 mov	 DWORD PTR _mode$[ebp], 6

; 1818 : 
; 1819 : 			previous_random_pilot_rest_anim_mode = PILOT_REST_ANIM_MODE_NONE;

  00178	c7 05 00 00 00
	00 00 00 00 00	 mov	 DWORD PTR ?previous_random_pilot_rest_anim_mode@@3W4PILOT_REST_ANIM_MODES@@A, 0

; 1820 : 		}
; 1821 : 		else

  00182	eb 36		 jmp	 SHORT $LN22@get_random
$LN21@get_random:

; 1822 : 		{
; 1823 : 			n = (rand16 () % 8) + 3;

  00184	69 05 00 00 00
	00 6d 4e c6 41	 imul	 eax, DWORD PTR ?random_number_seed@@3HA, 1103515245 ; random_number_seed
  0018e	05 39 30 00 00	 add	 eax, 12345		; 00003039H
  00193	a3 00 00 00 00	 mov	 DWORD PTR ?random_number_seed@@3HA, eax ; random_number_seed
  00198	8b 0d 00 00 00
	00		 mov	 ecx, DWORD PTR ?random_number_seed@@3HA ; random_number_seed
  0019e	c1 f9 10	 sar	 ecx, 16			; 00000010H
  001a1	81 e1 ff 7f 00
	00		 and	 ecx, 32767		; 00007fffH
  001a7	81 e1 07 00 00
	80		 and	 ecx, -2147483641	; 80000007H
  001ad	79 05		 jns	 SHORT $LN37@get_random
  001af	49		 dec	 ecx
  001b0	83 c9 f8	 or	 ecx, -8			; fffffff8H
  001b3	41		 inc	 ecx
$LN37@get_random:
  001b4	83 c1 03	 add	 ecx, 3
  001b7	89 4d fc	 mov	 DWORD PTR _n$[ebp], ecx
$LN22@get_random:

; 1824 : 		}
; 1825 : 
; 1826 : 		#undef DEAD_ZONE
; 1827 : 		#undef LEFT_THRESHOLD
; 1828 : 		#undef RIGHT_THRESHOLD
; 1829 : 		#undef UP_THRESHOLD
; 1830 : 		#undef DOWN_THRESHOLD
; 1831 : 	}
; 1832 : 
; 1833 : 	if (mode == PILOT_REST_ANIM_MODE_NONE)

  001ba	83 7d f8 00	 cmp	 DWORD PTR _mode$[ebp], 0
  001be	0f 85 8a 00 00
	00		 jne	 $LN2@get_random

; 1834 : 	{
; 1835 : 		switch (n)

  001c4	8b 45 fc	 mov	 eax, DWORD PTR _n$[ebp]
  001c7	89 45 b4	 mov	 DWORD PTR tv87[ebp], eax
  001ca	83 7d b4 0a	 cmp	 DWORD PTR tv87[ebp], 10	; 0000000aH
  001ce	77 6d		 ja	 SHORT $LN35@get_random
  001d0	8b 4d b4	 mov	 ecx, DWORD PTR tv87[ebp]
  001d3	ff 24 8d 00 00
	00 00		 jmp	 DWORD PTR $LN38@get_random[ecx*4]
$LN24@get_random:

; 1836 : 		{
; 1837 : 			case 0:
; 1838 : 			{
; 1839 : 				mode = PILOT_REST_ANIM_MODE_RIGHT_HAND_TO_UPPER_SWITCH;

  001da	c7 45 f8 01 00
	00 00		 mov	 DWORD PTR _mode$[ebp], 1

; 1840 : 
; 1841 : 				break;

  001e1	eb 6b		 jmp	 SHORT $LN2@get_random
$LN25@get_random:

; 1842 : 			}
; 1843 : 			case 1:
; 1844 : 			{
; 1845 : 				mode = PILOT_REST_ANIM_MODE_RIGHT_HAND_TO_CALCULATOR;

  001e3	c7 45 f8 02 00
	00 00		 mov	 DWORD PTR _mode$[ebp], 2

; 1846 : 
; 1847 : 				break;

  001ea	eb 62		 jmp	 SHORT $LN2@get_random
$LN26@get_random:

; 1848 : 			}
; 1849 : 			case 2:
; 1850 : 			{
; 1851 : 				mode = PILOT_REST_ANIM_MODE_LEFT_HAND_TO_HUD_SWITCH;

  001ec	c7 45 f8 03 00
	00 00		 mov	 DWORD PTR _mode$[ebp], 3

; 1852 : 
; 1853 : 				break;

  001f3	eb 59		 jmp	 SHORT $LN2@get_random
$LN27@get_random:

; 1854 : 			}
; 1855 : 			case 3:
; 1856 : 			{
; 1857 : 				mode = PILOT_REST_ANIM_MODE_HEAD_LOOK_DOWN;

  001f5	c7 45 f8 06 00
	00 00		 mov	 DWORD PTR _mode$[ebp], 6

; 1858 : 
; 1859 : 				break;

  001fc	eb 50		 jmp	 SHORT $LN2@get_random
$LN28@get_random:

; 1860 : 			}
; 1861 : 			case 4:
; 1862 : 			{
; 1863 : 				mode = PILOT_REST_ANIM_MODE_HEAD_LOOK_DOWN_LEFT;

  001fe	c7 45 f8 07 00
	00 00		 mov	 DWORD PTR _mode$[ebp], 7

; 1864 : 
; 1865 : 				break;

  00205	eb 47		 jmp	 SHORT $LN2@get_random
$LN29@get_random:

; 1866 : 			}
; 1867 : 			case 5:
; 1868 : 			{
; 1869 : 				mode = PILOT_REST_ANIM_MODE_HEAD_LOOK_DOWN_RIGHT;

  00207	c7 45 f8 08 00
	00 00		 mov	 DWORD PTR _mode$[ebp], 8

; 1870 : 
; 1871 : 				break;

  0020e	eb 3e		 jmp	 SHORT $LN2@get_random
$LN30@get_random:

; 1872 : 			}
; 1873 : 			case 6:
; 1874 : 			{
; 1875 : 				mode = PILOT_REST_ANIM_MODE_HEAD_LOOK_UP;

  00210	c7 45 f8 09 00
	00 00		 mov	 DWORD PTR _mode$[ebp], 9

; 1876 : 
; 1877 : 				break;

  00217	eb 35		 jmp	 SHORT $LN2@get_random
$LN31@get_random:

; 1878 : 			}
; 1879 : 			case 7:
; 1880 : 			{
; 1881 : 				mode = PILOT_REST_ANIM_MODE_HEAD_LOOK_UP_LEFT;

  00219	c7 45 f8 0a 00
	00 00		 mov	 DWORD PTR _mode$[ebp], 10 ; 0000000aH

; 1882 : 
; 1883 : 				break;

  00220	eb 2c		 jmp	 SHORT $LN2@get_random
$LN32@get_random:

; 1884 : 			}
; 1885 : 			case 8:
; 1886 : 			{
; 1887 : 				mode = PILOT_REST_ANIM_MODE_HEAD_LOOK_UP_RIGHT;

  00222	c7 45 f8 0b 00
	00 00		 mov	 DWORD PTR _mode$[ebp], 11 ; 0000000bH

; 1888 : 
; 1889 : 				break;

  00229	eb 23		 jmp	 SHORT $LN2@get_random
$LN33@get_random:

; 1890 : 			}
; 1891 : 			case 9:
; 1892 : 			{
; 1893 : 				mode = PILOT_REST_ANIM_MODE_HEAD_LOOK_LEFT;

  0022b	c7 45 f8 0c 00
	00 00		 mov	 DWORD PTR _mode$[ebp], 12 ; 0000000cH

; 1894 : 
; 1895 : 				break;

  00232	eb 1a		 jmp	 SHORT $LN2@get_random
$LN34@get_random:

; 1896 : 			}
; 1897 : 			case 10:
; 1898 : 			{
; 1899 : 				mode = PILOT_REST_ANIM_MODE_HEAD_LOOK_RIGHT;

  00234	c7 45 f8 0d 00
	00 00		 mov	 DWORD PTR _mode$[ebp], 13 ; 0000000dH

; 1900 : 
; 1901 : 				break;

  0023b	eb 11		 jmp	 SHORT $LN2@get_random
$LN35@get_random:

; 1902 : 			}
; 1903 : 			default:
; 1904 : 			{
; 1905 : 				debug_fatal ("Invalid rest animation mode = %d", n);

  0023d	8b 45 fc	 mov	 eax, DWORD PTR _n$[ebp]
  00240	50		 push	 eax
  00241	68 00 00 00 00	 push	 OFFSET ??_C@_0CB@MEHFMECA@Invalid?5rest?5animation?5mode?5?$DN?5?$CF@
  00246	e8 00 00 00 00	 call	 ?debug_fatal@@YAXPBDZZ	; debug_fatal
  0024b	83 c4 08	 add	 esp, 8
$LN2@get_random:

; 1906 : 
; 1907 : 				break;
; 1908 : 			}
; 1909 : 		}
; 1910 : 	}
; 1911 : 
; 1912 : 	return (mode);

  0024e	8b 45 f8	 mov	 eax, DWORD PTR _mode$[ebp]
$LN1@get_random:

; 1913 : }

  00251	5f		 pop	 edi
  00252	5e		 pop	 esi
  00253	5b		 pop	 ebx
  00254	8b e5		 mov	 esp, ebp
  00256	5d		 pop	 ebp
  00257	c3		 ret	 0
$LN38@get_random:
  00258	00 00 00 00	 DD	 $LN24@get_random
  0025c	00 00 00 00	 DD	 $LN25@get_random
  00260	00 00 00 00	 DD	 $LN26@get_random
  00264	00 00 00 00	 DD	 $LN27@get_random
  00268	00 00 00 00	 DD	 $LN28@get_random
  0026c	00 00 00 00	 DD	 $LN29@get_random
  00270	00 00 00 00	 DD	 $LN30@get_random
  00274	00 00 00 00	 DD	 $LN31@get_random
  00278	00 00 00 00	 DD	 $LN32@get_random
  0027c	00 00 00 00	 DD	 $LN33@get_random
  00280	00 00 00 00	 DD	 $LN34@get_random
?get_random_pilot_rest_anim_mode@@YG?AW4PILOT_REST_ANIM_MODES@@XZ ENDP ; get_random_pilot_rest_anim_mode
_TEXT	ENDS
; Function compile flags: /Odtp /ZI
; File c:\users\nhv90\projects\eech\aphavoc\source\gunships\cockpits\ka50\hm_pilot.c
;	COMDAT ?get_reset_pilot_head_anim_pause@@YGMXZ
_TEXT	SEGMENT
_pause$ = -4						; size = 4
?get_reset_pilot_head_anim_pause@@YGMXZ PROC		; get_reset_pilot_head_anim_pause, COMDAT

; 1700 : {

  00000	55		 push	 ebp
  00001	8b ec		 mov	 ebp, esp
  00003	83 ec 44	 sub	 esp, 68			; 00000044H
  00006	53		 push	 ebx
  00007	56		 push	 esi
  00008	57		 push	 edi

; 1701 : 	float
; 1702 : 		pause;
; 1703 : 
; 1704 : 	//
; 1705 : 	// chance of no pause (glance)
; 1706 : 	//
; 1707 : 
; 1708 : 	if (frand1 () < 0.15)

  00009	69 05 00 00 00
	00 6d 4e c6 41	 imul	 eax, DWORD PTR ?random_number_seed@@3HA, 1103515245 ; random_number_seed
  00013	05 39 30 00 00	 add	 eax, 12345		; 00003039H
  00018	a3 00 00 00 00	 mov	 DWORD PTR ?random_number_seed@@3HA, eax ; random_number_seed
  0001d	8b 0d 00 00 00
	00		 mov	 ecx, DWORD PTR ?random_number_seed@@3HA ; random_number_seed
  00023	c1 f9 10	 sar	 ecx, 16			; 00000010H
  00026	81 e1 ff 7f 00
	00		 and	 ecx, 32767		; 00007fffH
  0002c	f2 0f 2a c1	 cvtsi2sd xmm0, ecx
  00030	f2 0f 59 05 00
	00 00 00	 mulsd	 xmm0, QWORD PTR __real@3f00002000400080
  00038	f2 0f 10 0d 00
	00 00 00	 movsd	 xmm1, QWORD PTR __real@3fc3333333333333
  00040	66 0f 2f c8	 comisd	 xmm1, xmm0
  00044	76 0a		 jbe	 SHORT $LN2@get_reset_

; 1709 : 	{
; 1710 : 		pause = 0.0;

  00046	0f 57 c0	 xorps	 xmm0, xmm0
  00049	f3 0f 11 45 fc	 movss	 DWORD PTR _pause$[ebp], xmm0

; 1711 : 	}
; 1712 : 	else

  0004e	eb 48		 jmp	 SHORT $LN3@get_reset_
$LN2@get_reset_:

; 1713 : 	{
; 1714 : 		pause = (frand1 () * 3.0) + 0.5;

  00050	69 05 00 00 00
	00 6d 4e c6 41	 imul	 eax, DWORD PTR ?random_number_seed@@3HA, 1103515245 ; random_number_seed
  0005a	05 39 30 00 00	 add	 eax, 12345		; 00003039H
  0005f	a3 00 00 00 00	 mov	 DWORD PTR ?random_number_seed@@3HA, eax ; random_number_seed
  00064	8b 0d 00 00 00
	00		 mov	 ecx, DWORD PTR ?random_number_seed@@3HA ; random_number_seed
  0006a	c1 f9 10	 sar	 ecx, 16			; 00000010H
  0006d	81 e1 ff 7f 00
	00		 and	 ecx, 32767		; 00007fffH
  00073	f2 0f 2a c1	 cvtsi2sd xmm0, ecx
  00077	f2 0f 59 05 00
	00 00 00	 mulsd	 xmm0, QWORD PTR __real@3f00002000400080
  0007f	f2 0f 59 05 00
	00 00 00	 mulsd	 xmm0, QWORD PTR __real@4008000000000000
  00087	f2 0f 58 05 00
	00 00 00	 addsd	 xmm0, QWORD PTR __real@3fe0000000000000
  0008f	f2 0f 5a c0	 cvtsd2ss xmm0, xmm0
  00093	f3 0f 11 45 fc	 movss	 DWORD PTR _pause$[ebp], xmm0
$LN3@get_reset_:

; 1715 : 	}
; 1716 : 
; 1717 : 	return (pause);

  00098	d9 45 fc	 fld	 DWORD PTR _pause$[ebp]

; 1718 : }

  0009b	5f		 pop	 edi
  0009c	5e		 pop	 esi
  0009d	5b		 pop	 ebx
  0009e	8b e5		 mov	 esp, ebp
  000a0	5d		 pop	 ebp
  000a1	c3		 ret	 0
?get_reset_pilot_head_anim_pause@@YGMXZ ENDP		; get_reset_pilot_head_anim_pause
_TEXT	ENDS
; Function compile flags: /Odtp /ZI
; File c:\users\nhv90\projects\eech\aphavoc\source\gunships\cockpits\ka50\hm_pilot.c
;	COMDAT ?get_reset_pilot_rest_anim_delay@@YGMXZ
_TEXT	SEGMENT
tv86 = -68						; size = 4
?get_reset_pilot_rest_anim_delay@@YGMXZ PROC		; get_reset_pilot_rest_anim_delay, COMDAT

; 1686 : {

  00000	55		 push	 ebp
  00001	8b ec		 mov	 ebp, esp
  00003	83 ec 44	 sub	 esp, 68			; 00000044H
  00006	53		 push	 ebx
  00007	56		 push	 esi
  00008	57		 push	 edi

; 1687 : 	if (frand1 () < 0.2)

  00009	69 05 00 00 00
	00 6d 4e c6 41	 imul	 eax, DWORD PTR ?random_number_seed@@3HA, 1103515245 ; random_number_seed
  00013	05 39 30 00 00	 add	 eax, 12345		; 00003039H
  00018	a3 00 00 00 00	 mov	 DWORD PTR ?random_number_seed@@3HA, eax ; random_number_seed
  0001d	8b 0d 00 00 00
	00		 mov	 ecx, DWORD PTR ?random_number_seed@@3HA ; random_number_seed
  00023	c1 f9 10	 sar	 ecx, 16			; 00000010H
  00026	81 e1 ff 7f 00
	00		 and	 ecx, 32767		; 00007fffH
  0002c	f2 0f 2a c1	 cvtsi2sd xmm0, ecx
  00030	f2 0f 59 05 00
	00 00 00	 mulsd	 xmm0, QWORD PTR __real@3f00002000400080
  00038	f2 0f 10 0d 00
	00 00 00	 movsd	 xmm1, QWORD PTR __real@3fc999999999999a
  00040	66 0f 2f c8	 comisd	 xmm1, xmm0
  00044	76 04		 jbe	 SHORT $LN2@get_reset_

; 1688 : 	{
; 1689 : 		return (0.0);

  00046	d9 ee		 fldz
  00048	eb 4b		 jmp	 SHORT $LN1@get_reset_
$LN2@get_reset_:

; 1690 : 	}
; 1691 : 
; 1692 : 	return ((frand1 () * 3.0) + 2.0);

  0004a	69 05 00 00 00
	00 6d 4e c6 41	 imul	 eax, DWORD PTR ?random_number_seed@@3HA, 1103515245 ; random_number_seed
  00054	05 39 30 00 00	 add	 eax, 12345		; 00003039H
  00059	a3 00 00 00 00	 mov	 DWORD PTR ?random_number_seed@@3HA, eax ; random_number_seed
  0005e	8b 0d 00 00 00
	00		 mov	 ecx, DWORD PTR ?random_number_seed@@3HA ; random_number_seed
  00064	c1 f9 10	 sar	 ecx, 16			; 00000010H
  00067	81 e1 ff 7f 00
	00		 and	 ecx, 32767		; 00007fffH
  0006d	f2 0f 2a c1	 cvtsi2sd xmm0, ecx
  00071	f2 0f 59 05 00
	00 00 00	 mulsd	 xmm0, QWORD PTR __real@3f00002000400080
  00079	f2 0f 59 05 00
	00 00 00	 mulsd	 xmm0, QWORD PTR __real@4008000000000000
  00081	f2 0f 58 05 00
	00 00 00	 addsd	 xmm0, QWORD PTR __real@4000000000000000
  00089	f2 0f 5a c0	 cvtsd2ss xmm0, xmm0
  0008d	f3 0f 11 45 bc	 movss	 DWORD PTR tv86[ebp], xmm0
  00092	d9 45 bc	 fld	 DWORD PTR tv86[ebp]
$LN1@get_reset_:

; 1693 : }

  00095	5f		 pop	 edi
  00096	5e		 pop	 esi
  00097	5b		 pop	 ebx
  00098	8b e5		 mov	 esp, ebp
  0009a	5d		 pop	 ebp
  0009b	c3		 ret	 0
?get_reset_pilot_rest_anim_delay@@YGMXZ ENDP		; get_reset_pilot_rest_anim_delay
_TEXT	ENDS
; Function compile flags: /Odtp /ZI
; File c:\users\nhv90\projects\eech\aphavoc\source\gunships\cockpits\ka50\hm_pilot.c
;	COMDAT ?get_pilot_rest_anim_mode_body_animation@@YGHXZ
_TEXT	SEGMENT
tv64 = -68						; size = 4
?get_pilot_rest_anim_mode_body_animation@@YGHXZ PROC	; get_pilot_rest_anim_mode_body_animation, COMDAT

; 1663 : {

  00000	55		 push	 ebp
  00001	8b ec		 mov	 ebp, esp
  00003	83 ec 44	 sub	 esp, 68			; 00000044H
  00006	53		 push	 ebx
  00007	56		 push	 esi
  00008	57		 push	 edi

; 1664 : 	switch (pilot_rest_anim_mode)

  00009	a1 00 00 00 00	 mov	 eax, DWORD PTR ?pilot_rest_anim_mode@@3W4PILOT_REST_ANIM_MODES@@A
  0000e	89 45 bc	 mov	 DWORD PTR tv64[ebp], eax
  00011	83 7d bc 00	 cmp	 DWORD PTR tv64[ebp], 0
  00015	7e 0f		 jle	 SHORT $LN2@get_pilot_
  00017	83 7d bc 05	 cmp	 DWORD PTR tv64[ebp], 5
  0001b	7e 02		 jle	 SHORT $LN4@get_pilot_
  0001d	eb 07		 jmp	 SHORT $LN2@get_pilot_
$LN4@get_pilot_:

; 1665 : 	{
; 1666 : 		case PILOT_REST_ANIM_MODE_RIGHT_HAND_TO_UPPER_SWITCH:
; 1667 : 		case PILOT_REST_ANIM_MODE_RIGHT_HAND_TO_CALCULATOR:
; 1668 : 		case PILOT_REST_ANIM_MODE_LEFT_HAND_TO_HUD_SWITCH:
; 1669 : 		case PILOT_REST_ANIM_MODE_LEFT_HAND_TO_NVG:
; 1670 : 		case PILOT_REST_ANIM_MODE_BOTH_HANDS_PULL_EJECT:
; 1671 : 		{
; 1672 : 			return (TRUE);

  0001f	b8 01 00 00 00	 mov	 eax, 1
  00024	eb 02		 jmp	 SHORT $LN1@get_pilot_
$LN2@get_pilot_:

; 1673 : 
; 1674 : 			break;
; 1675 : 		}
; 1676 : 	}
; 1677 : 
; 1678 : 	return (FALSE);

  00026	33 c0		 xor	 eax, eax
$LN1@get_pilot_:

; 1679 : }

  00028	5f		 pop	 edi
  00029	5e		 pop	 esi
  0002a	5b		 pop	 ebx
  0002b	8b e5		 mov	 esp, ebp
  0002d	5d		 pop	 ebp
  0002e	c3		 ret	 0
?get_pilot_rest_anim_mode_body_animation@@YGHXZ ENDP	; get_pilot_rest_anim_mode_body_animation
_TEXT	ENDS
; Function compile flags: /Odtp /ZI
; File c:\users\nhv90\projects\eech\aphavoc\source\gunships\cockpits\ka50\hm_pilot.c
;	COMDAT ?get_pilot_main_anim_mode_nvg_animation@@YGHXZ
_TEXT	SEGMENT
tv64 = -68						; size = 4
?get_pilot_main_anim_mode_nvg_animation@@YGHXZ PROC	; get_pilot_main_anim_mode_nvg_animation, COMDAT

; 1640 : {

  00000	55		 push	 ebp
  00001	8b ec		 mov	 ebp, esp
  00003	83 ec 44	 sub	 esp, 68			; 00000044H
  00006	53		 push	 ebx
  00007	56		 push	 esi
  00008	57		 push	 edi

; 1641 : 	switch (pilot_main_anim_mode)

  00009	a1 00 00 00 00	 mov	 eax, DWORD PTR ?pilot_main_anim_mode@@3W4PILOT_MAIN_ANIM_MODES@@A
  0000e	89 45 bc	 mov	 DWORD PTR tv64[ebp], eax
  00011	83 7d bc 08	 cmp	 DWORD PTR tv64[ebp], 8
  00015	7c 0f		 jl	 SHORT $LN2@get_pilot_
  00017	83 7d bc 0c	 cmp	 DWORD PTR tv64[ebp], 12	; 0000000cH
  0001b	7e 02		 jle	 SHORT $LN4@get_pilot_
  0001d	eb 07		 jmp	 SHORT $LN2@get_pilot_
$LN4@get_pilot_:

; 1642 : 	{
; 1643 : 		case PILOT_MAIN_ANIM_MODE_LEFT_HAND_TO_NVG:
; 1644 : 		case PILOT_MAIN_ANIM_MODE_COLLECTIVE_TO_CENTRE1:
; 1645 : 		case PILOT_MAIN_ANIM_MODE_COLLECTIVE_TO_CENTRE2:
; 1646 : 		case PILOT_MAIN_ANIM_MODE_COLLECTIVE_FROM_CENTRE1:
; 1647 : 		case PILOT_MAIN_ANIM_MODE_COLLECTIVE_FROM_CENTRE2:
; 1648 : 		{
; 1649 : 			return (TRUE);

  0001f	b8 01 00 00 00	 mov	 eax, 1
  00024	eb 02		 jmp	 SHORT $LN1@get_pilot_
$LN2@get_pilot_:

; 1650 : 
; 1651 : 			break;
; 1652 : 		}
; 1653 : 	}
; 1654 : 
; 1655 : 	return (FALSE);

  00026	33 c0		 xor	 eax, eax
$LN1@get_pilot_:

; 1656 : }

  00028	5f		 pop	 edi
  00029	5e		 pop	 esi
  0002a	5b		 pop	 ebx
  0002b	8b e5		 mov	 esp, ebp
  0002d	5d		 pop	 ebp
  0002e	c3		 ret	 0
?get_pilot_main_anim_mode_nvg_animation@@YGHXZ ENDP	; get_pilot_main_anim_mode_nvg_animation
_TEXT	ENDS
; Function compile flags: /Odtp /ZI
; File c:\users\nhv90\projects\eech\aphavoc\source\gunships\cockpits\ka50\hm_pilot.c
;	COMDAT ?get_pilot_viewpoint_virtual_cockpit@@YGHXZ
_TEXT	SEGMENT
?get_pilot_viewpoint_virtual_cockpit@@YGHXZ PROC	; get_pilot_viewpoint_virtual_cockpit, COMDAT

; 1618 : {

  00000	55		 push	 ebp
  00001	8b ec		 mov	 ebp, esp
  00003	83 ec 40	 sub	 esp, 64			; 00000040H
  00006	53		 push	 ebx
  00007	56		 push	 esi
  00008	57		 push	 edi

; 1619 : 	if (get_crew_role () == CREW_ROLE_PILOT)

  00009	e8 00 00 00 00	 call	 ?get_crew_role@@YG?AW4CREW_ROLES@@XZ ; get_crew_role
  0000e	85 c0		 test	 eax, eax
  00010	75 22		 jne	 SHORT $LN2@get_pilot_

; 1620 : 	{
; 1621 : 		if
; 1622 : 		(
; 1623 : 			(get_view_mode () == VIEW_MODE_VIRTUAL_COCKPIT) ||
; 1624 : 			(get_view_mode () == VIEW_MODE_VIRTUAL_COCKPIT_PADLOCK) ||

  00012	83 3d 00 00 00
	00 20		 cmp	 DWORD PTR ?view_mode@@3W4VIEW_MODES@@A, 32 ; view_mode, 00000020H
  00019	74 12		 je	 SHORT $LN4@get_pilot_
  0001b	83 3d 00 00 00
	00 21		 cmp	 DWORD PTR ?view_mode@@3W4VIEW_MODES@@A, 33 ; view_mode, 00000021H
  00022	74 09		 je	 SHORT $LN4@get_pilot_
  00024	83 3d 00 00 00
	00 22		 cmp	 DWORD PTR ?view_mode@@3W4VIEW_MODES@@A, 34 ; view_mode, 00000022H
  0002b	75 07		 jne	 SHORT $LN2@get_pilot_
$LN4@get_pilot_:

; 1625 : 			(get_view_mode () == VIEW_MODE_VIRTUAL_COCKPIT_TRACK_TARGET)
; 1626 : 		)
; 1627 : 		{
; 1628 : 			return (TRUE);

  0002d	b8 01 00 00 00	 mov	 eax, 1
  00032	eb 02		 jmp	 SHORT $LN1@get_pilot_
$LN2@get_pilot_:

; 1629 : 		}
; 1630 : 	}
; 1631 : 
; 1632 : 	return (FALSE);

  00034	33 c0		 xor	 eax, eax
$LN1@get_pilot_:

; 1633 : }

  00036	5f		 pop	 edi
  00037	5e		 pop	 esi
  00038	5b		 pop	 ebx
  00039	8b e5		 mov	 esp, ebp
  0003b	5d		 pop	 ebp
  0003c	c3		 ret	 0
?get_pilot_viewpoint_virtual_cockpit@@YGHXZ ENDP	; get_pilot_viewpoint_virtual_cockpit
_TEXT	ENDS
; Function compile flags: /Odtp /ZI
; File c:\users\nhv90\projects\eech\aphavoc\source\gunships\cockpits\ka50\hm_pilot.c
;	COMDAT ?set_pilot_animation@@YGXPAUPILOT_ANIM_DATA@@MH@Z
_TEXT	SEGMENT
tv268 = -80						; size = 4
tv262 = -80						; size = 4
tv81 = -80						; size = 4
tv269 = -76						; size = 4
tv263 = -76						; size = 4
tv82 = -76						; size = 4
_nvg_anim_frame$ = -8					; size = 4
_anim_frame$ = -4					; size = 4
_anim$ = 8						; size = 4
_frame$ = 12						; size = 4
_set_head_anim_only$ = 16				; size = 4
?set_pilot_animation@@YGXPAUPILOT_ANIM_DATA@@MH@Z PROC	; set_pilot_animation, COMDAT

; 1416 : {

  00000	55		 push	 ebp
  00001	8b ec		 mov	 ebp, esp
  00003	83 ec 50	 sub	 esp, 80			; 00000050H
  00006	53		 push	 ebx
  00007	56		 push	 esi
  00008	57		 push	 edi

; 1417 : 	float
; 1418 : 		anim_frame,
; 1419 : 		nvg_anim_frame;
; 1420 : 
; 1421 : 	ASSERT (anim);

  00009	83 7d 08 00	 cmp	 DWORD PTR _anim$[ebp], 0
  0000d	75 18		 jne	 SHORT $LN2@set_pilot_
  0000f	a1 00 00 00 00	 mov	 eax, DWORD PTR ?__LINE__Var@?0??set_pilot_animation@@YGXPAUPILOT_ANIM_DATA@@MH@Z@4JA
  00014	83 c0 05	 add	 eax, 5
  00017	50		 push	 eax
  00018	68 00 00 00 00	 push	 OFFSET ??_C@_0EO@MOFNGMIK@c?3?2users?2nhv90?2projects?2eech?2ap@
  0001d	68 00 00 00 00	 push	 OFFSET ??_C@_04NBCDDDGK@anim@
  00022	e8 00 00 00 00	 call	 ?process_assert@@YGXPBD0H@Z ; process_assert
$LN2@set_pilot_:

; 1422 : 
; 1423 : 	anim_frame = ((anim->end_frame - anim->start_frame) * frame) + anim->start_frame;

  00027	8b 45 08	 mov	 eax, DWORD PTR _anim$[ebp]
  0002a	8b 4d 08	 mov	 ecx, DWORD PTR _anim$[ebp]
  0002d	f3 0f 10 40 04	 movss	 xmm0, DWORD PTR [eax+4]
  00032	f3 0f 5c 01	 subss	 xmm0, DWORD PTR [ecx]
  00036	f3 0f 59 45 0c	 mulss	 xmm0, DWORD PTR _frame$[ebp]
  0003b	8b 55 08	 mov	 edx, DWORD PTR _anim$[ebp]
  0003e	f3 0f 58 02	 addss	 xmm0, DWORD PTR [edx]
  00042	f3 0f 11 45 fc	 movss	 DWORD PTR _anim_frame$[ebp], xmm0

; 1424 : 
; 1425 : 	anim_frame = bound (anim_frame, anim->start_frame, anim->end_frame);

  00047	8b 45 08	 mov	 eax, DWORD PTR _anim$[ebp]
  0004a	f3 0f 10 00	 movss	 xmm0, DWORD PTR [eax]
  0004e	0f 2f 45 fc	 comiss	 xmm0, DWORD PTR _anim_frame$[ebp]
  00052	76 0e		 jbe	 SHORT $LN32@set_pilot_
  00054	8b 4d 08	 mov	 ecx, DWORD PTR _anim$[ebp]
  00057	f3 0f 10 01	 movss	 xmm0, DWORD PTR [ecx]
  0005b	f3 0f 11 45 b4	 movss	 DWORD PTR tv82[ebp], xmm0
  00060	eb 31		 jmp	 SHORT $LN33@set_pilot_
$LN32@set_pilot_:
  00062	8b 55 08	 mov	 edx, DWORD PTR _anim$[ebp]
  00065	f3 0f 10 45 fc	 movss	 xmm0, DWORD PTR _anim_frame$[ebp]
  0006a	0f 2f 42 04	 comiss	 xmm0, DWORD PTR [edx+4]
  0006e	76 0f		 jbe	 SHORT $LN30@set_pilot_
  00070	8b 45 08	 mov	 eax, DWORD PTR _anim$[ebp]
  00073	f3 0f 10 40 04	 movss	 xmm0, DWORD PTR [eax+4]
  00078	f3 0f 11 45 b0	 movss	 DWORD PTR tv81[ebp], xmm0
  0007d	eb 0a		 jmp	 SHORT $LN31@set_pilot_
$LN30@set_pilot_:
  0007f	f3 0f 10 45 fc	 movss	 xmm0, DWORD PTR _anim_frame$[ebp]
  00084	f3 0f 11 45 b0	 movss	 DWORD PTR tv81[ebp], xmm0
$LN31@set_pilot_:
  00089	f3 0f 10 45 b0	 movss	 xmm0, DWORD PTR tv81[ebp]
  0008e	f3 0f 11 45 b4	 movss	 DWORD PTR tv82[ebp], xmm0
$LN33@set_pilot_:
  00093	f3 0f 10 45 b4	 movss	 xmm0, DWORD PTR tv82[ebp]
  00098	f3 0f 11 45 fc	 movss	 DWORD PTR _anim_frame$[ebp], xmm0

; 1426 : 
; 1427 : 	////////////////////////////////////////
; 1428 : 
; 1429 : 	if (set_head_anim_only)

  0009d	83 7d 10 00	 cmp	 DWORD PTR _set_head_anim_only$[ebp], 0
  000a1	74 31		 je	 SHORT $LN3@set_pilot_

; 1430 : 	{
; 1431 : 		if (anim->animate_head)

  000a3	8b 45 08	 mov	 eax, DWORD PTR _anim$[ebp]
  000a6	8b 48 2c	 mov	 ecx, DWORD PTR [eax+44]
  000a9	d1 e9		 shr	 ecx, 1
  000ab	83 e1 01	 and	 ecx, 1
  000ae	74 0f		 je	 SHORT $LN4@set_pilot_

; 1432 : 		{
; 1433 : 			pilot_head_anim_frame = anim_frame;

  000b0	f3 0f 10 45 fc	 movss	 xmm0, DWORD PTR _anim_frame$[ebp]
  000b5	f3 0f 11 05 00
	00 00 00	 movss	 DWORD PTR ?pilot_head_anim_frame@@3MA, xmm0

; 1434 : 		}
; 1435 : 		else

  000bd	eb 10		 jmp	 SHORT $LN5@set_pilot_
$LN4@set_pilot_:

; 1436 : 		{
; 1437 : 			pilot_head_anim_frame = NO_PILOT_HEAD_ANIMATION;

  000bf	f3 0f 10 05 00
	00 00 00	 movss	 xmm0, DWORD PTR __real@bf800000
  000c7	f3 0f 11 05 00
	00 00 00	 movss	 DWORD PTR ?pilot_head_anim_frame@@3MA, xmm0
$LN5@set_pilot_:

; 1438 : 		}
; 1439 : 
; 1440 : 		return;

  000cf	e9 84 05 00 00	 jmp	 $LN1@set_pilot_
$LN3@set_pilot_:

; 1441 : 	}
; 1442 : 
; 1443 : 	////////////////////////////////////////
; 1444 : 
; 1445 : 	if (anim->right_hand_on_cyclic)

  000d4	8b 45 08	 mov	 eax, DWORD PTR _anim$[ebp]
  000d7	83 78 18 00	 cmp	 DWORD PTR [eax+24], 0
  000db	74 2a		 je	 SHORT $LN6@set_pilot_

; 1446 : 	{
; 1447 : 		set_pilot_static_right_hand_on_cyclic_visibility (TRUE);

  000dd	6a 01		 push	 1
  000df	e8 00 00 00 00	 call	 ?set_pilot_static_right_hand_on_cyclic_visibility@@YGXH@Z ; set_pilot_static_right_hand_on_cyclic_visibility

; 1448 : 
; 1449 : 		set_pilot_right_arm_and_cyclic_position (anim->cyclic_x_position, anim->cyclic_y_position);

  000e4	8b 45 08	 mov	 eax, DWORD PTR _anim$[ebp]
  000e7	51		 push	 ecx
  000e8	f3 0f 10 40 0c	 movss	 xmm0, DWORD PTR [eax+12]
  000ed	f3 0f 11 04 24	 movss	 DWORD PTR [esp], xmm0
  000f2	8b 4d 08	 mov	 ecx, DWORD PTR _anim$[ebp]
  000f5	51		 push	 ecx
  000f6	f3 0f 10 41 08	 movss	 xmm0, DWORD PTR [ecx+8]
  000fb	f3 0f 11 04 24	 movss	 DWORD PTR [esp], xmm0
  00100	e8 00 00 00 00	 call	 ?set_pilot_right_arm_and_cyclic_position@@YGXMM@Z ; set_pilot_right_arm_and_cyclic_position

; 1450 : 	}
; 1451 : 	else

  00105	eb 28		 jmp	 SHORT $LN7@set_pilot_
$LN6@set_pilot_:

; 1452 : 	{
; 1453 : 		set_pilot_static_right_hand_on_cyclic_visibility (FALSE);

  00107	6a 00		 push	 0
  00109	e8 00 00 00 00	 call	 ?set_pilot_static_right_hand_on_cyclic_visibility@@YGXH@Z ; set_pilot_static_right_hand_on_cyclic_visibility

; 1454 : 
; 1455 : 		set_pilot_cyclic_position (anim->cyclic_x_position, anim->cyclic_y_position);

  0010e	8b 45 08	 mov	 eax, DWORD PTR _anim$[ebp]
  00111	51		 push	 ecx
  00112	f3 0f 10 40 0c	 movss	 xmm0, DWORD PTR [eax+12]
  00117	f3 0f 11 04 24	 movss	 DWORD PTR [esp], xmm0
  0011c	8b 4d 08	 mov	 ecx, DWORD PTR _anim$[ebp]
  0011f	51		 push	 ecx
  00120	f3 0f 10 41 08	 movss	 xmm0, DWORD PTR [ecx+8]
  00125	f3 0f 11 04 24	 movss	 DWORD PTR [esp], xmm0
  0012a	e8 00 00 00 00	 call	 ?set_pilot_cyclic_position@@YGXMM@Z ; set_pilot_cyclic_position
$LN7@set_pilot_:

; 1456 : 	}
; 1457 : 
; 1458 : 	////////////////////////////////////////
; 1459 : 
; 1460 : 	if (anim->left_hand_on_collective)

  0012f	8b 45 08	 mov	 eax, DWORD PTR _anim$[ebp]
  00132	83 78 20 00	 cmp	 DWORD PTR [eax+32], 0
  00136	74 15		 je	 SHORT $LN8@set_pilot_

; 1461 : 	{
; 1462 : 		set_pilot_left_arm_and_collective_position (anim->collective_position);

  00138	8b 45 08	 mov	 eax, DWORD PTR _anim$[ebp]
  0013b	51		 push	 ecx
  0013c	f3 0f 10 40 10	 movss	 xmm0, DWORD PTR [eax+16]
  00141	f3 0f 11 04 24	 movss	 DWORD PTR [esp], xmm0
  00146	e8 00 00 00 00	 call	 ?set_pilot_left_arm_and_collective_position@@YGXM@Z ; set_pilot_left_arm_and_collective_position

; 1463 : 	}
; 1464 : 	else

  0014b	eb 13		 jmp	 SHORT $LN9@set_pilot_
$LN8@set_pilot_:

; 1465 : 	{
; 1466 : 		set_pilot_collective_position (anim->collective_position);

  0014d	8b 45 08	 mov	 eax, DWORD PTR _anim$[ebp]
  00150	51		 push	 ecx
  00151	f3 0f 10 40 10	 movss	 xmm0, DWORD PTR [eax+16]
  00156	f3 0f 11 04 24	 movss	 DWORD PTR [esp], xmm0
  0015b	e8 00 00 00 00	 call	 ?set_pilot_collective_position@@YGXM@Z ; set_pilot_collective_position
$LN9@set_pilot_:

; 1467 : 	}
; 1468 : 
; 1469 : 	////////////////////////////////////////
; 1470 : 
; 1471 : 	if (anim->feet_on_pedals)

  00160	8b 45 08	 mov	 eax, DWORD PTR _anim$[ebp]
  00163	83 78 28 00	 cmp	 DWORD PTR [eax+40], 0
  00167	74 15		 je	 SHORT $LN10@set_pilot_

; 1472 : 	{
; 1473 : 		set_pilot_legs_and_pedal_position (anim->pedal_position);

  00169	8b 45 08	 mov	 eax, DWORD PTR _anim$[ebp]
  0016c	51		 push	 ecx
  0016d	f3 0f 10 40 14	 movss	 xmm0, DWORD PTR [eax+20]
  00172	f3 0f 11 04 24	 movss	 DWORD PTR [esp], xmm0
  00177	e8 00 00 00 00	 call	 ?set_pilot_legs_and_pedal_position@@YGXM@Z ; set_pilot_legs_and_pedal_position

; 1474 : 	}
; 1475 : 	else

  0017c	eb 13		 jmp	 SHORT $LN11@set_pilot_
$LN10@set_pilot_:

; 1476 : 	{
; 1477 : 		set_pilot_pedal_position (anim->pedal_position);

  0017e	8b 45 08	 mov	 eax, DWORD PTR _anim$[ebp]
  00181	51		 push	 ecx
  00182	f3 0f 10 40 14	 movss	 xmm0, DWORD PTR [eax+20]
  00187	f3 0f 11 04 24	 movss	 DWORD PTR [esp], xmm0
  0018c	e8 00 00 00 00	 call	 ?set_pilot_pedal_position@@YGXM@Z ; set_pilot_pedal_position
$LN11@set_pilot_:

; 1478 : 	}
; 1479 : 
; 1480 : 	////////////////////////////////////////
; 1481 : 
; 1482 : 	if (anim->animate_head)

  00191	8b 45 08	 mov	 eax, DWORD PTR _anim$[ebp]
  00194	8b 48 2c	 mov	 ecx, DWORD PTR [eax+44]
  00197	d1 e9		 shr	 ecx, 1
  00199	83 e1 01	 and	 ecx, 1
  0019c	74 3a		 je	 SHORT $LN12@set_pilot_

; 1483 : 	{
; 1484 : 		ASSERT (pilot_head_anim_frame == NO_PILOT_HEAD_ANIMATION);

  0019e	f3 0f 10 05 00
	00 00 00	 movss	 xmm0, DWORD PTR ?pilot_head_anim_frame@@3MA
  001a6	0f 2e 05 00 00
	00 00		 ucomiss xmm0, DWORD PTR __real@bf800000
  001ad	9f		 lahf
  001ae	f6 c4 44	 test	 ah, 68			; 00000044H
  001b1	7b 18		 jnp	 SHORT $LN13@set_pilot_
  001b3	a1 00 00 00 00	 mov	 eax, DWORD PTR ?__LINE__Var@?0??set_pilot_animation@@YGXPAUPILOT_ANIM_DATA@@MH@Z@4JA
  001b8	83 c0 44	 add	 eax, 68			; 00000044H
  001bb	50		 push	 eax
  001bc	68 00 00 00 00	 push	 OFFSET ??_C@_0EO@MOFNGMIK@c?3?2users?2nhv90?2projects?2eech?2ap@
  001c1	68 00 00 00 00	 push	 OFFSET ??_C@_0DB@EMGHFMKH@pilot_head_anim_frame?5?$DN?$DN?5NO_PIL@
  001c6	e8 00 00 00 00	 call	 ?process_assert@@YGXPBD0H@Z ; process_assert
$LN13@set_pilot_:

; 1485 : 
; 1486 : 		pilot_head_anim_frame = anim_frame;

  001cb	f3 0f 10 45 fc	 movss	 xmm0, DWORD PTR _anim_frame$[ebp]
  001d0	f3 0f 11 05 00
	00 00 00	 movss	 DWORD PTR ?pilot_head_anim_frame@@3MA, xmm0
$LN12@set_pilot_:

; 1487 : 	}
; 1488 : 
; 1489 : 	////////////////////////////////////////
; 1490 : 
; 1491 : 	if (anim->animate_chest)

  001d8	8b 45 08	 mov	 eax, DWORD PTR _anim$[ebp]
  001db	8b 48 2c	 mov	 ecx, DWORD PTR [eax+44]
  001de	c1 e9 02	 shr	 ecx, 2
  001e1	83 e1 01	 and	 ecx, 1
  001e4	74 1d		 je	 SHORT $LN14@set_pilot_

; 1492 : 	{
; 1493 : 		animate_entity_simple_keyframed_sub_objects (virtual_cockpit_inst3d, OBJECT_3D_SUB_OBJECT_PILOT_CHEST, anim_frame);

  001e6	51		 push	 ecx
  001e7	f3 0f 10 45 fc	 movss	 xmm0, DWORD PTR _anim_frame$[ebp]
  001ec	f3 0f 11 04 24	 movss	 DWORD PTR [esp], xmm0
  001f1	68 b2 00 00 00	 push	 178			; 000000b2H
  001f6	a1 00 00 00 00	 mov	 eax, DWORD PTR ?virtual_cockpit_inst3d@@3PAUOBJECT_3D_INSTANCE@@A ; virtual_cockpit_inst3d
  001fb	50		 push	 eax
  001fc	e8 00 00 00 00	 call	 ?animate_entity_simple_keyframed_sub_objects@@YGXPAUOBJECT_3D_INSTANCE@@HM@Z ; animate_entity_simple_keyframed_sub_objects

; 1494 : 	}
; 1495 : 	else

  00201	eb 1e		 jmp	 SHORT $LN15@set_pilot_
$LN14@set_pilot_:

; 1496 : 	{
; 1497 : 		animate_entity_simple_keyframed_sub_objects (virtual_cockpit_inst3d, OBJECT_3D_SUB_OBJECT_PILOT_CHEST, PILOT_ANIM_DEFAULT);

  00203	51		 push	 ecx
  00204	f3 0f 10 05 00
	00 00 00	 movss	 xmm0, DWORD PTR __real@3df5c28f
  0020c	f3 0f 11 04 24	 movss	 DWORD PTR [esp], xmm0
  00211	68 b2 00 00 00	 push	 178			; 000000b2H
  00216	a1 00 00 00 00	 mov	 eax, DWORD PTR ?virtual_cockpit_inst3d@@3PAUOBJECT_3D_INSTANCE@@A ; virtual_cockpit_inst3d
  0021b	50		 push	 eax
  0021c	e8 00 00 00 00	 call	 ?animate_entity_simple_keyframed_sub_objects@@YGXPAUOBJECT_3D_INSTANCE@@HM@Z ; animate_entity_simple_keyframed_sub_objects
$LN15@set_pilot_:

; 1498 : 	}
; 1499 : 
; 1500 : 	////////////////////////////////////////
; 1501 : 
; 1502 : 	if (anim->animate_left_arm)

  00221	8b 45 08	 mov	 eax, DWORD PTR _anim$[ebp]
  00224	8b 48 2c	 mov	 ecx, DWORD PTR [eax+44]
  00227	c1 e9 03	 shr	 ecx, 3
  0022a	83 e1 01	 and	 ecx, 1
  0022d	0f 84 8c 00 00
	00		 je	 $LN16@set_pilot_

; 1503 : 	{
; 1504 : 		animate_entity_simple_keyframed_sub_objects (virtual_cockpit_inst3d, OBJECT_3D_SUB_OBJECT_PILOT_L_SHOULDER, anim_frame);

  00233	51		 push	 ecx
  00234	f3 0f 10 45 fc	 movss	 xmm0, DWORD PTR _anim_frame$[ebp]
  00239	f3 0f 11 04 24	 movss	 DWORD PTR [esp], xmm0
  0023e	68 b4 00 00 00	 push	 180			; 000000b4H
  00243	a1 00 00 00 00	 mov	 eax, DWORD PTR ?virtual_cockpit_inst3d@@3PAUOBJECT_3D_INSTANCE@@A ; virtual_cockpit_inst3d
  00248	50		 push	 eax
  00249	e8 00 00 00 00	 call	 ?animate_entity_simple_keyframed_sub_objects@@YGXPAUOBJECT_3D_INSTANCE@@HM@Z ; animate_entity_simple_keyframed_sub_objects

; 1505 : 
; 1506 : 		animate_entity_simple_keyframed_sub_objects (virtual_cockpit_inst3d, OBJECT_3D_SUB_OBJECT_PILOT_L_FOREARM, anim_frame);

  0024e	51		 push	 ecx
  0024f	f3 0f 10 45 fc	 movss	 xmm0, DWORD PTR _anim_frame$[ebp]
  00254	f3 0f 11 04 24	 movss	 DWORD PTR [esp], xmm0
  00259	68 b7 00 00 00	 push	 183			; 000000b7H
  0025e	a1 00 00 00 00	 mov	 eax, DWORD PTR ?virtual_cockpit_inst3d@@3PAUOBJECT_3D_INSTANCE@@A ; virtual_cockpit_inst3d
  00263	50		 push	 eax
  00264	e8 00 00 00 00	 call	 ?animate_entity_simple_keyframed_sub_objects@@YGXPAUOBJECT_3D_INSTANCE@@HM@Z ; animate_entity_simple_keyframed_sub_objects

; 1507 : 
; 1508 : 		animate_entity_simple_keyframed_sub_objects (virtual_cockpit_inst3d, OBJECT_3D_SUB_OBJECT_PILOT_L_HAND, anim_frame);

  00269	51		 push	 ecx
  0026a	f3 0f 10 45 fc	 movss	 xmm0, DWORD PTR _anim_frame$[ebp]
  0026f	f3 0f 11 04 24	 movss	 DWORD PTR [esp], xmm0
  00274	68 b8 00 00 00	 push	 184			; 000000b8H
  00279	a1 00 00 00 00	 mov	 eax, DWORD PTR ?virtual_cockpit_inst3d@@3PAUOBJECT_3D_INSTANCE@@A ; virtual_cockpit_inst3d
  0027e	50		 push	 eax
  0027f	e8 00 00 00 00	 call	 ?animate_entity_simple_keyframed_sub_objects@@YGXPAUOBJECT_3D_INSTANCE@@HM@Z ; animate_entity_simple_keyframed_sub_objects

; 1509 : 
; 1510 : 		animate_entity_simple_keyframed_sub_objects (virtual_cockpit_inst3d, OBJECT_3D_SUB_OBJECT_PILOT_L_FINGER, anim_frame);

  00284	51		 push	 ecx
  00285	f3 0f 10 45 fc	 movss	 xmm0, DWORD PTR _anim_frame$[ebp]
  0028a	f3 0f 11 04 24	 movss	 DWORD PTR [esp], xmm0
  0028f	68 b9 00 00 00	 push	 185			; 000000b9H
  00294	a1 00 00 00 00	 mov	 eax, DWORD PTR ?virtual_cockpit_inst3d@@3PAUOBJECT_3D_INSTANCE@@A ; virtual_cockpit_inst3d
  00299	50		 push	 eax
  0029a	e8 00 00 00 00	 call	 ?animate_entity_simple_keyframed_sub_objects@@YGXPAUOBJECT_3D_INSTANCE@@HM@Z ; animate_entity_simple_keyframed_sub_objects

; 1511 : 
; 1512 : 		animate_entity_simple_keyframed_sub_objects (virtual_cockpit_inst3d, OBJECT_3D_SUB_OBJECT_PILOT_L_THUMB, anim_frame);

  0029f	51		 push	 ecx
  002a0	f3 0f 10 45 fc	 movss	 xmm0, DWORD PTR _anim_frame$[ebp]
  002a5	f3 0f 11 04 24	 movss	 DWORD PTR [esp], xmm0
  002aa	68 ba 00 00 00	 push	 186			; 000000baH
  002af	a1 00 00 00 00	 mov	 eax, DWORD PTR ?virtual_cockpit_inst3d@@3PAUOBJECT_3D_INSTANCE@@A ; virtual_cockpit_inst3d
  002b4	50		 push	 eax
  002b5	e8 00 00 00 00	 call	 ?animate_entity_simple_keyframed_sub_objects@@YGXPAUOBJECT_3D_INSTANCE@@HM@Z ; animate_entity_simple_keyframed_sub_objects

; 1513 : 	}
; 1514 : 	else

  002ba	e9 a3 00 00 00	 jmp	 $LN18@set_pilot_
$LN16@set_pilot_:

; 1515 : 	{
; 1516 : 		if (!anim->left_hand_on_collective)

  002bf	8b 45 08	 mov	 eax, DWORD PTR _anim$[ebp]
  002c2	83 78 20 00	 cmp	 DWORD PTR [eax+32], 0
  002c6	0f 85 96 00 00
	00		 jne	 $LN18@set_pilot_

; 1517 : 		{
; 1518 : 			animate_entity_simple_keyframed_sub_objects (virtual_cockpit_inst3d, OBJECT_3D_SUB_OBJECT_PILOT_L_SHOULDER, PILOT_ANIM_DEFAULT);

  002cc	51		 push	 ecx
  002cd	f3 0f 10 05 00
	00 00 00	 movss	 xmm0, DWORD PTR __real@3df5c28f
  002d5	f3 0f 11 04 24	 movss	 DWORD PTR [esp], xmm0
  002da	68 b4 00 00 00	 push	 180			; 000000b4H
  002df	a1 00 00 00 00	 mov	 eax, DWORD PTR ?virtual_cockpit_inst3d@@3PAUOBJECT_3D_INSTANCE@@A ; virtual_cockpit_inst3d
  002e4	50		 push	 eax
  002e5	e8 00 00 00 00	 call	 ?animate_entity_simple_keyframed_sub_objects@@YGXPAUOBJECT_3D_INSTANCE@@HM@Z ; animate_entity_simple_keyframed_sub_objects

; 1519 : 
; 1520 : 			animate_entity_simple_keyframed_sub_objects (virtual_cockpit_inst3d, OBJECT_3D_SUB_OBJECT_PILOT_L_FOREARM, PILOT_ANIM_DEFAULT);

  002ea	51		 push	 ecx
  002eb	f3 0f 10 05 00
	00 00 00	 movss	 xmm0, DWORD PTR __real@3df5c28f
  002f3	f3 0f 11 04 24	 movss	 DWORD PTR [esp], xmm0
  002f8	68 b7 00 00 00	 push	 183			; 000000b7H
  002fd	a1 00 00 00 00	 mov	 eax, DWORD PTR ?virtual_cockpit_inst3d@@3PAUOBJECT_3D_INSTANCE@@A ; virtual_cockpit_inst3d
  00302	50		 push	 eax
  00303	e8 00 00 00 00	 call	 ?animate_entity_simple_keyframed_sub_objects@@YGXPAUOBJECT_3D_INSTANCE@@HM@Z ; animate_entity_simple_keyframed_sub_objects

; 1521 : 
; 1522 : 			animate_entity_simple_keyframed_sub_objects (virtual_cockpit_inst3d, OBJECT_3D_SUB_OBJECT_PILOT_L_HAND, PILOT_ANIM_DEFAULT);

  00308	51		 push	 ecx
  00309	f3 0f 10 05 00
	00 00 00	 movss	 xmm0, DWORD PTR __real@3df5c28f
  00311	f3 0f 11 04 24	 movss	 DWORD PTR [esp], xmm0
  00316	68 b8 00 00 00	 push	 184			; 000000b8H
  0031b	a1 00 00 00 00	 mov	 eax, DWORD PTR ?virtual_cockpit_inst3d@@3PAUOBJECT_3D_INSTANCE@@A ; virtual_cockpit_inst3d
  00320	50		 push	 eax
  00321	e8 00 00 00 00	 call	 ?animate_entity_simple_keyframed_sub_objects@@YGXPAUOBJECT_3D_INSTANCE@@HM@Z ; animate_entity_simple_keyframed_sub_objects

; 1523 : 
; 1524 : 			animate_entity_simple_keyframed_sub_objects (virtual_cockpit_inst3d, OBJECT_3D_SUB_OBJECT_PILOT_L_FINGER, PILOT_ANIM_DEFAULT);

  00326	51		 push	 ecx
  00327	f3 0f 10 05 00
	00 00 00	 movss	 xmm0, DWORD PTR __real@3df5c28f
  0032f	f3 0f 11 04 24	 movss	 DWORD PTR [esp], xmm0
  00334	68 b9 00 00 00	 push	 185			; 000000b9H
  00339	a1 00 00 00 00	 mov	 eax, DWORD PTR ?virtual_cockpit_inst3d@@3PAUOBJECT_3D_INSTANCE@@A ; virtual_cockpit_inst3d
  0033e	50		 push	 eax
  0033f	e8 00 00 00 00	 call	 ?animate_entity_simple_keyframed_sub_objects@@YGXPAUOBJECT_3D_INSTANCE@@HM@Z ; animate_entity_simple_keyframed_sub_objects

; 1525 : 
; 1526 : 			animate_entity_simple_keyframed_sub_objects (virtual_cockpit_inst3d, OBJECT_3D_SUB_OBJECT_PILOT_L_THUMB, PILOT_ANIM_DEFAULT);

  00344	51		 push	 ecx
  00345	f3 0f 10 05 00
	00 00 00	 movss	 xmm0, DWORD PTR __real@3df5c28f
  0034d	f3 0f 11 04 24	 movss	 DWORD PTR [esp], xmm0
  00352	68 ba 00 00 00	 push	 186			; 000000baH
  00357	a1 00 00 00 00	 mov	 eax, DWORD PTR ?virtual_cockpit_inst3d@@3PAUOBJECT_3D_INSTANCE@@A ; virtual_cockpit_inst3d
  0035c	50		 push	 eax
  0035d	e8 00 00 00 00	 call	 ?animate_entity_simple_keyframed_sub_objects@@YGXPAUOBJECT_3D_INSTANCE@@HM@Z ; animate_entity_simple_keyframed_sub_objects
$LN18@set_pilot_:

; 1527 : 		}
; 1528 : 	}
; 1529 : 
; 1530 : 	////////////////////////////////////////
; 1531 : 
; 1532 : 	if (anim->animate_right_arm)

  00362	8b 45 08	 mov	 eax, DWORD PTR _anim$[ebp]
  00365	8b 48 2c	 mov	 ecx, DWORD PTR [eax+44]
  00368	c1 e9 04	 shr	 ecx, 4
  0036b	83 e1 01	 and	 ecx, 1
  0036e	0f 84 8c 00 00
	00		 je	 $LN19@set_pilot_

; 1533 : 	{
; 1534 : 		animate_entity_simple_keyframed_sub_objects (virtual_cockpit_inst3d, OBJECT_3D_SUB_OBJECT_PILOT_R_SHOULDER, anim_frame);

  00374	51		 push	 ecx
  00375	f3 0f 10 45 fc	 movss	 xmm0, DWORD PTR _anim_frame$[ebp]
  0037a	f3 0f 11 04 24	 movss	 DWORD PTR [esp], xmm0
  0037f	68 b5 00 00 00	 push	 181			; 000000b5H
  00384	a1 00 00 00 00	 mov	 eax, DWORD PTR ?virtual_cockpit_inst3d@@3PAUOBJECT_3D_INSTANCE@@A ; virtual_cockpit_inst3d
  00389	50		 push	 eax
  0038a	e8 00 00 00 00	 call	 ?animate_entity_simple_keyframed_sub_objects@@YGXPAUOBJECT_3D_INSTANCE@@HM@Z ; animate_entity_simple_keyframed_sub_objects

; 1535 : 
; 1536 : 		animate_entity_simple_keyframed_sub_objects (virtual_cockpit_inst3d, OBJECT_3D_SUB_OBJECT_PILOT_R_FOREARM, anim_frame);

  0038f	51		 push	 ecx
  00390	f3 0f 10 45 fc	 movss	 xmm0, DWORD PTR _anim_frame$[ebp]
  00395	f3 0f 11 04 24	 movss	 DWORD PTR [esp], xmm0
  0039a	68 bb 00 00 00	 push	 187			; 000000bbH
  0039f	a1 00 00 00 00	 mov	 eax, DWORD PTR ?virtual_cockpit_inst3d@@3PAUOBJECT_3D_INSTANCE@@A ; virtual_cockpit_inst3d
  003a4	50		 push	 eax
  003a5	e8 00 00 00 00	 call	 ?animate_entity_simple_keyframed_sub_objects@@YGXPAUOBJECT_3D_INSTANCE@@HM@Z ; animate_entity_simple_keyframed_sub_objects

; 1537 : 
; 1538 : 		animate_entity_simple_keyframed_sub_objects (virtual_cockpit_inst3d, OBJECT_3D_SUB_OBJECT_PILOT_R_HAND, anim_frame);

  003aa	51		 push	 ecx
  003ab	f3 0f 10 45 fc	 movss	 xmm0, DWORD PTR _anim_frame$[ebp]
  003b0	f3 0f 11 04 24	 movss	 DWORD PTR [esp], xmm0
  003b5	68 bc 00 00 00	 push	 188			; 000000bcH
  003ba	a1 00 00 00 00	 mov	 eax, DWORD PTR ?virtual_cockpit_inst3d@@3PAUOBJECT_3D_INSTANCE@@A ; virtual_cockpit_inst3d
  003bf	50		 push	 eax
  003c0	e8 00 00 00 00	 call	 ?animate_entity_simple_keyframed_sub_objects@@YGXPAUOBJECT_3D_INSTANCE@@HM@Z ; animate_entity_simple_keyframed_sub_objects

; 1539 : 
; 1540 : 		animate_entity_simple_keyframed_sub_objects (virtual_cockpit_inst3d, OBJECT_3D_SUB_OBJECT_PILOT_R_FINGER, anim_frame);

  003c5	51		 push	 ecx
  003c6	f3 0f 10 45 fc	 movss	 xmm0, DWORD PTR _anim_frame$[ebp]
  003cb	f3 0f 11 04 24	 movss	 DWORD PTR [esp], xmm0
  003d0	68 bd 00 00 00	 push	 189			; 000000bdH
  003d5	a1 00 00 00 00	 mov	 eax, DWORD PTR ?virtual_cockpit_inst3d@@3PAUOBJECT_3D_INSTANCE@@A ; virtual_cockpit_inst3d
  003da	50		 push	 eax
  003db	e8 00 00 00 00	 call	 ?animate_entity_simple_keyframed_sub_objects@@YGXPAUOBJECT_3D_INSTANCE@@HM@Z ; animate_entity_simple_keyframed_sub_objects

; 1541 : 
; 1542 : 		animate_entity_simple_keyframed_sub_objects (virtual_cockpit_inst3d, OBJECT_3D_SUB_OBJECT_PILOT_R_THUMB, anim_frame);

  003e0	51		 push	 ecx
  003e1	f3 0f 10 45 fc	 movss	 xmm0, DWORD PTR _anim_frame$[ebp]
  003e6	f3 0f 11 04 24	 movss	 DWORD PTR [esp], xmm0
  003eb	68 be 00 00 00	 push	 190			; 000000beH
  003f0	a1 00 00 00 00	 mov	 eax, DWORD PTR ?virtual_cockpit_inst3d@@3PAUOBJECT_3D_INSTANCE@@A ; virtual_cockpit_inst3d
  003f5	50		 push	 eax
  003f6	e8 00 00 00 00	 call	 ?animate_entity_simple_keyframed_sub_objects@@YGXPAUOBJECT_3D_INSTANCE@@HM@Z ; animate_entity_simple_keyframed_sub_objects

; 1543 : 	}
; 1544 : 	else

  003fb	e9 a3 00 00 00	 jmp	 $LN21@set_pilot_
$LN19@set_pilot_:

; 1545 : 	{
; 1546 : 		if (!anim->right_hand_on_cyclic)

  00400	8b 45 08	 mov	 eax, DWORD PTR _anim$[ebp]
  00403	83 78 18 00	 cmp	 DWORD PTR [eax+24], 0
  00407	0f 85 96 00 00
	00		 jne	 $LN21@set_pilot_

; 1547 : 		{
; 1548 : 			animate_entity_simple_keyframed_sub_objects (virtual_cockpit_inst3d, OBJECT_3D_SUB_OBJECT_PILOT_R_SHOULDER, PILOT_ANIM_DEFAULT);

  0040d	51		 push	 ecx
  0040e	f3 0f 10 05 00
	00 00 00	 movss	 xmm0, DWORD PTR __real@3df5c28f
  00416	f3 0f 11 04 24	 movss	 DWORD PTR [esp], xmm0
  0041b	68 b5 00 00 00	 push	 181			; 000000b5H
  00420	a1 00 00 00 00	 mov	 eax, DWORD PTR ?virtual_cockpit_inst3d@@3PAUOBJECT_3D_INSTANCE@@A ; virtual_cockpit_inst3d
  00425	50		 push	 eax
  00426	e8 00 00 00 00	 call	 ?animate_entity_simple_keyframed_sub_objects@@YGXPAUOBJECT_3D_INSTANCE@@HM@Z ; animate_entity_simple_keyframed_sub_objects

; 1549 : 
; 1550 : 			animate_entity_simple_keyframed_sub_objects (virtual_cockpit_inst3d, OBJECT_3D_SUB_OBJECT_PILOT_R_FOREARM, PILOT_ANIM_DEFAULT);

  0042b	51		 push	 ecx
  0042c	f3 0f 10 05 00
	00 00 00	 movss	 xmm0, DWORD PTR __real@3df5c28f
  00434	f3 0f 11 04 24	 movss	 DWORD PTR [esp], xmm0
  00439	68 bb 00 00 00	 push	 187			; 000000bbH
  0043e	a1 00 00 00 00	 mov	 eax, DWORD PTR ?virtual_cockpit_inst3d@@3PAUOBJECT_3D_INSTANCE@@A ; virtual_cockpit_inst3d
  00443	50		 push	 eax
  00444	e8 00 00 00 00	 call	 ?animate_entity_simple_keyframed_sub_objects@@YGXPAUOBJECT_3D_INSTANCE@@HM@Z ; animate_entity_simple_keyframed_sub_objects

; 1551 : 
; 1552 : 			animate_entity_simple_keyframed_sub_objects (virtual_cockpit_inst3d, OBJECT_3D_SUB_OBJECT_PILOT_R_HAND, PILOT_ANIM_DEFAULT);

  00449	51		 push	 ecx
  0044a	f3 0f 10 05 00
	00 00 00	 movss	 xmm0, DWORD PTR __real@3df5c28f
  00452	f3 0f 11 04 24	 movss	 DWORD PTR [esp], xmm0
  00457	68 bc 00 00 00	 push	 188			; 000000bcH
  0045c	a1 00 00 00 00	 mov	 eax, DWORD PTR ?virtual_cockpit_inst3d@@3PAUOBJECT_3D_INSTANCE@@A ; virtual_cockpit_inst3d
  00461	50		 push	 eax
  00462	e8 00 00 00 00	 call	 ?animate_entity_simple_keyframed_sub_objects@@YGXPAUOBJECT_3D_INSTANCE@@HM@Z ; animate_entity_simple_keyframed_sub_objects

; 1553 : 
; 1554 : 			animate_entity_simple_keyframed_sub_objects (virtual_cockpit_inst3d, OBJECT_3D_SUB_OBJECT_PILOT_R_FINGER, PILOT_ANIM_DEFAULT);

  00467	51		 push	 ecx
  00468	f3 0f 10 05 00
	00 00 00	 movss	 xmm0, DWORD PTR __real@3df5c28f
  00470	f3 0f 11 04 24	 movss	 DWORD PTR [esp], xmm0
  00475	68 bd 00 00 00	 push	 189			; 000000bdH
  0047a	a1 00 00 00 00	 mov	 eax, DWORD PTR ?virtual_cockpit_inst3d@@3PAUOBJECT_3D_INSTANCE@@A ; virtual_cockpit_inst3d
  0047f	50		 push	 eax
  00480	e8 00 00 00 00	 call	 ?animate_entity_simple_keyframed_sub_objects@@YGXPAUOBJECT_3D_INSTANCE@@HM@Z ; animate_entity_simple_keyframed_sub_objects

; 1555 : 
; 1556 : 			animate_entity_simple_keyframed_sub_objects (virtual_cockpit_inst3d, OBJECT_3D_SUB_OBJECT_PILOT_R_THUMB, PILOT_ANIM_DEFAULT);

  00485	51		 push	 ecx
  00486	f3 0f 10 05 00
	00 00 00	 movss	 xmm0, DWORD PTR __real@3df5c28f
  0048e	f3 0f 11 04 24	 movss	 DWORD PTR [esp], xmm0
  00493	68 be 00 00 00	 push	 190			; 000000beH
  00498	a1 00 00 00 00	 mov	 eax, DWORD PTR ?virtual_cockpit_inst3d@@3PAUOBJECT_3D_INSTANCE@@A ; virtual_cockpit_inst3d
  0049d	50		 push	 eax
  0049e	e8 00 00 00 00	 call	 ?animate_entity_simple_keyframed_sub_objects@@YGXPAUOBJECT_3D_INSTANCE@@HM@Z ; animate_entity_simple_keyframed_sub_objects
$LN21@set_pilot_:

; 1557 : 		}
; 1558 : 	}
; 1559 : 
; 1560 : 	////////////////////////////////////////
; 1561 : 
; 1562 : 	if (anim->animate_legs)

  004a3	8b 45 08	 mov	 eax, DWORD PTR _anim$[ebp]
  004a6	8b 48 2c	 mov	 ecx, DWORD PTR [eax+44]
  004a9	c1 e9 05	 shr	 ecx, 5
  004ac	83 e1 01	 and	 ecx, 1
  004af	74 1d		 je	 SHORT $LN22@set_pilot_

; 1563 : 	{
; 1564 : 		animate_entity_simple_keyframed_sub_objects (virtual_cockpit_inst3d, OBJECT_3D_SUB_OBJECT_PILOT_LEG, anim_frame);

  004b1	51		 push	 ecx
  004b2	f3 0f 10 45 fc	 movss	 xmm0, DWORD PTR _anim_frame$[ebp]
  004b7	f3 0f 11 04 24	 movss	 DWORD PTR [esp], xmm0
  004bc	68 c2 00 00 00	 push	 194			; 000000c2H
  004c1	a1 00 00 00 00	 mov	 eax, DWORD PTR ?virtual_cockpit_inst3d@@3PAUOBJECT_3D_INSTANCE@@A ; virtual_cockpit_inst3d
  004c6	50		 push	 eax
  004c7	e8 00 00 00 00	 call	 ?animate_entity_simple_keyframed_sub_objects@@YGXPAUOBJECT_3D_INSTANCE@@HM@Z ; animate_entity_simple_keyframed_sub_objects

; 1565 : 	}
; 1566 : 	else

  004cc	eb 27		 jmp	 SHORT $LN24@set_pilot_
$LN22@set_pilot_:

; 1567 : 	{
; 1568 : 		if (!anim->feet_on_pedals)

  004ce	8b 45 08	 mov	 eax, DWORD PTR _anim$[ebp]
  004d1	83 78 28 00	 cmp	 DWORD PTR [eax+40], 0
  004d5	75 1e		 jne	 SHORT $LN24@set_pilot_

; 1569 : 		{
; 1570 : 			animate_entity_simple_keyframed_sub_objects (virtual_cockpit_inst3d, OBJECT_3D_SUB_OBJECT_PILOT_LEG, PILOT_ANIM_DEFAULT);

  004d7	51		 push	 ecx
  004d8	f3 0f 10 05 00
	00 00 00	 movss	 xmm0, DWORD PTR __real@3df5c28f
  004e0	f3 0f 11 04 24	 movss	 DWORD PTR [esp], xmm0
  004e5	68 c2 00 00 00	 push	 194			; 000000c2H
  004ea	a1 00 00 00 00	 mov	 eax, DWORD PTR ?virtual_cockpit_inst3d@@3PAUOBJECT_3D_INSTANCE@@A ; virtual_cockpit_inst3d
  004ef	50		 push	 eax
  004f0	e8 00 00 00 00	 call	 ?animate_entity_simple_keyframed_sub_objects@@YGXPAUOBJECT_3D_INSTANCE@@HM@Z ; animate_entity_simple_keyframed_sub_objects
$LN24@set_pilot_:

; 1571 : 		}
; 1572 : 	}
; 1573 : 
; 1574 : 	////////////////////////////////////////
; 1575 : 
; 1576 : 	if (anim->animate_eject_handle)

  004f5	8b 45 08	 mov	 eax, DWORD PTR _anim$[ebp]
  004f8	8b 48 2c	 mov	 ecx, DWORD PTR [eax+44]
  004fb	c1 e9 06	 shr	 ecx, 6
  004fe	83 e1 01	 and	 ecx, 1
  00501	74 1d		 je	 SHORT $LN25@set_pilot_

; 1577 : 	{
; 1578 : 		animate_entity_simple_keyframed_sub_objects (virtual_cockpit_inst3d, OBJECT_3D_SUB_OBJECT_COCKPIT_PILOT_EJECT_HANDLE, anim_frame);

  00503	51		 push	 ecx
  00504	f3 0f 10 45 fc	 movss	 xmm0, DWORD PTR _anim_frame$[ebp]
  00509	f3 0f 11 04 24	 movss	 DWORD PTR [esp], xmm0
  0050e	68 e0 00 00 00	 push	 224			; 000000e0H
  00513	a1 00 00 00 00	 mov	 eax, DWORD PTR ?virtual_cockpit_inst3d@@3PAUOBJECT_3D_INSTANCE@@A ; virtual_cockpit_inst3d
  00518	50		 push	 eax
  00519	e8 00 00 00 00	 call	 ?animate_entity_simple_keyframed_sub_objects@@YGXPAUOBJECT_3D_INSTANCE@@HM@Z ; animate_entity_simple_keyframed_sub_objects

; 1579 : 	}
; 1580 : 	else

  0051e	eb 1e		 jmp	 SHORT $LN26@set_pilot_
$LN25@set_pilot_:

; 1581 : 	{
; 1582 : 		animate_entity_simple_keyframed_sub_objects (virtual_cockpit_inst3d, OBJECT_3D_SUB_OBJECT_COCKPIT_PILOT_EJECT_HANDLE, PILOT_ANIM_DEFAULT);

  00520	51		 push	 ecx
  00521	f3 0f 10 05 00
	00 00 00	 movss	 xmm0, DWORD PTR __real@3df5c28f
  00529	f3 0f 11 04 24	 movss	 DWORD PTR [esp], xmm0
  0052e	68 e0 00 00 00	 push	 224			; 000000e0H
  00533	a1 00 00 00 00	 mov	 eax, DWORD PTR ?virtual_cockpit_inst3d@@3PAUOBJECT_3D_INSTANCE@@A ; virtual_cockpit_inst3d
  00538	50		 push	 eax
  00539	e8 00 00 00 00	 call	 ?animate_entity_simple_keyframed_sub_objects@@YGXPAUOBJECT_3D_INSTANCE@@HM@Z ; animate_entity_simple_keyframed_sub_objects
$LN26@set_pilot_:

; 1583 : 	}
; 1584 : 
; 1585 : 	////////////////////////////////////////
; 1586 : 
; 1587 : 	if (pilot_main_anim_mode == PILOT_MAIN_ANIM_MODE_HANDS_OFF_CONTROLS)

  0053e	83 3d 00 00 00
	00 00		 cmp	 DWORD PTR ?pilot_main_anim_mode@@3W4PILOT_MAIN_ANIM_MODES@@A, 0
  00545	75 77		 jne	 SHORT $LN27@set_pilot_

; 1588 : 	{
; 1589 : 		nvg_anim_frame = ((PILOT_LEFT_HAND_FROM_REST_TO_NVG_ANIM_END - PILOT_LEFT_HAND_FROM_REST_TO_NVG_ANIM_START) * pilot_nvg_anim_frame) + PILOT_LEFT_HAND_FROM_REST_TO_NVG_ANIM_START;

  00547	f3 0f 10 05 00
	00 00 00	 movss	 xmm0, DWORD PTR __real@3da3d708
  0054f	f3 0f 59 05 00
	00 00 00	 mulss	 xmm0, DWORD PTR ?pilot_nvg_anim_frame@@3MA
  00557	f3 0f 58 05 00
	00 00 00	 addss	 xmm0, DWORD PTR __real@3eb851ec
  0055f	f3 0f 11 45 f8	 movss	 DWORD PTR _nvg_anim_frame$[ebp], xmm0

; 1590 : 
; 1591 : 		nvg_anim_frame = bound (nvg_anim_frame, PILOT_LEFT_HAND_FROM_REST_TO_NVG_ANIM_START, PILOT_LEFT_HAND_FROM_REST_TO_NVG_ANIM_END);

  00564	f3 0f 10 05 00
	00 00 00	 movss	 xmm0, DWORD PTR __real@3eb851ec
  0056c	0f 2f 45 f8	 comiss	 xmm0, DWORD PTR _nvg_anim_frame$[ebp]
  00570	76 0f		 jbe	 SHORT $LN36@set_pilot_
  00572	f3 0f 10 05 00
	00 00 00	 movss	 xmm0, DWORD PTR __real@3eb851ec
  0057a	f3 0f 11 45 b4	 movss	 DWORD PTR tv263[ebp], xmm0
  0057f	eb 31		 jmp	 SHORT $LN37@set_pilot_
$LN36@set_pilot_:
  00581	f3 0f 10 45 f8	 movss	 xmm0, DWORD PTR _nvg_anim_frame$[ebp]
  00586	0f 2f 05 00 00
	00 00		 comiss	 xmm0, DWORD PTR __real@3ee147ae
  0058d	76 0f		 jbe	 SHORT $LN34@set_pilot_
  0058f	f3 0f 10 05 00
	00 00 00	 movss	 xmm0, DWORD PTR __real@3ee147ae
  00597	f3 0f 11 45 b0	 movss	 DWORD PTR tv262[ebp], xmm0
  0059c	eb 0a		 jmp	 SHORT $LN35@set_pilot_
$LN34@set_pilot_:
  0059e	f3 0f 10 45 f8	 movss	 xmm0, DWORD PTR _nvg_anim_frame$[ebp]
  005a3	f3 0f 11 45 b0	 movss	 DWORD PTR tv262[ebp], xmm0
$LN35@set_pilot_:
  005a8	f3 0f 10 45 b0	 movss	 xmm0, DWORD PTR tv262[ebp]
  005ad	f3 0f 11 45 b4	 movss	 DWORD PTR tv263[ebp], xmm0
$LN37@set_pilot_:
  005b2	f3 0f 10 45 b4	 movss	 xmm0, DWORD PTR tv263[ebp]
  005b7	f3 0f 11 45 f8	 movss	 DWORD PTR _nvg_anim_frame$[ebp], xmm0

; 1592 : 	}
; 1593 : 	else

  005bc	eb 75		 jmp	 SHORT $LN28@set_pilot_
$LN27@set_pilot_:

; 1594 : 	{
; 1595 : 		nvg_anim_frame = ((PILOT_LEFT_HAND_FROM_COLLECTIVE_TO_NVG_ANIM_END - PILOT_LEFT_HAND_FROM_COLLECTIVE_TO_NVG_ANIM_START) * pilot_nvg_anim_frame) + PILOT_LEFT_HAND_FROM_COLLECTIVE_TO_NVG_ANIM_START;

  005be	f3 0f 10 05 00
	00 00 00	 movss	 xmm0, DWORD PTR __real@3da3d708
  005c6	f3 0f 59 05 00
	00 00 00	 mulss	 xmm0, DWORD PTR ?pilot_nvg_anim_frame@@3MA
  005ce	f3 0f 58 05 00
	00 00 00	 addss	 xmm0, DWORD PTR __real@3f19999a
  005d6	f3 0f 11 45 f8	 movss	 DWORD PTR _nvg_anim_frame$[ebp], xmm0

; 1596 : 
; 1597 : 		nvg_anim_frame = bound (nvg_anim_frame, PILOT_LEFT_HAND_FROM_COLLECTIVE_TO_NVG_ANIM_START, PILOT_LEFT_HAND_FROM_COLLECTIVE_TO_NVG_ANIM_END);

  005db	f3 0f 10 05 00
	00 00 00	 movss	 xmm0, DWORD PTR __real@3f19999a
  005e3	0f 2f 45 f8	 comiss	 xmm0, DWORD PTR _nvg_anim_frame$[ebp]
  005e7	76 0f		 jbe	 SHORT $LN40@set_pilot_
  005e9	f3 0f 10 05 00
	00 00 00	 movss	 xmm0, DWORD PTR __real@3f19999a
  005f1	f3 0f 11 45 b4	 movss	 DWORD PTR tv269[ebp], xmm0
  005f6	eb 31		 jmp	 SHORT $LN41@set_pilot_
$LN40@set_pilot_:
  005f8	f3 0f 10 45 f8	 movss	 xmm0, DWORD PTR _nvg_anim_frame$[ebp]
  005fd	0f 2f 05 00 00
	00 00		 comiss	 xmm0, DWORD PTR __real@3f2e147b
  00604	76 0f		 jbe	 SHORT $LN38@set_pilot_
  00606	f3 0f 10 05 00
	00 00 00	 movss	 xmm0, DWORD PTR __real@3f2e147b
  0060e	f3 0f 11 45 b0	 movss	 DWORD PTR tv268[ebp], xmm0
  00613	eb 0a		 jmp	 SHORT $LN39@set_pilot_
$LN38@set_pilot_:
  00615	f3 0f 10 45 f8	 movss	 xmm0, DWORD PTR _nvg_anim_frame$[ebp]
  0061a	f3 0f 11 45 b0	 movss	 DWORD PTR tv268[ebp], xmm0
$LN39@set_pilot_:
  0061f	f3 0f 10 45 b0	 movss	 xmm0, DWORD PTR tv268[ebp]
  00624	f3 0f 11 45 b4	 movss	 DWORD PTR tv269[ebp], xmm0
$LN41@set_pilot_:
  00629	f3 0f 10 45 b4	 movss	 xmm0, DWORD PTR tv269[ebp]
  0062e	f3 0f 11 45 f8	 movss	 DWORD PTR _nvg_anim_frame$[ebp], xmm0
$LN28@set_pilot_:

; 1598 : 	}
; 1599 : 
; 1600 : 	animate_entity_simple_keyframed_sub_objects (virtual_cockpit_inst3d, OBJECT_3D_SUB_OBJECT_PILOT_NVG, nvg_anim_frame);

  00633	51		 push	 ecx
  00634	f3 0f 10 45 f8	 movss	 xmm0, DWORD PTR _nvg_anim_frame$[ebp]
  00639	f3 0f 11 04 24	 movss	 DWORD PTR [esp], xmm0
  0063e	68 dc 00 00 00	 push	 220			; 000000dcH
  00643	a1 00 00 00 00	 mov	 eax, DWORD PTR ?virtual_cockpit_inst3d@@3PAUOBJECT_3D_INSTANCE@@A ; virtual_cockpit_inst3d
  00648	50		 push	 eax
  00649	e8 00 00 00 00	 call	 ?animate_entity_simple_keyframed_sub_objects@@YGXPAUOBJECT_3D_INSTANCE@@HM@Z ; animate_entity_simple_keyframed_sub_objects

; 1601 : 
; 1602 : 	////////////////////////////////////////
; 1603 : 
; 1604 : 	pilot_animation_updated = TRUE;

  0064e	c7 05 00 00 00
	00 01 00 00 00	 mov	 DWORD PTR ?pilot_animation_updated@@3HA, 1
$LN1@set_pilot_:

; 1605 : }

  00658	5f		 pop	 edi
  00659	5e		 pop	 esi
  0065a	5b		 pop	 ebx
  0065b	8b e5		 mov	 esp, ebp
  0065d	5d		 pop	 ebp
  0065e	c2 0c 00	 ret	 12			; 0000000cH
?set_pilot_animation@@YGXPAUPILOT_ANIM_DATA@@MH@Z ENDP	; set_pilot_animation
_TEXT	ENDS
; Function compile flags: /Odtp /ZI
; File c:\users\nhv90\projects\eech\aphavoc\source\gunships\cockpits\ka50\hm_pilot.c
;	COMDAT ?set_pilot_pedal_position@@YGXM@Z
_TEXT	SEGMENT
tv68 = -76						; size = 4
tv69 = -72						; size = 4
_anim_frame$ = -4					; size = 4
_pedal$ = 8						; size = 4
?set_pilot_pedal_position@@YGXM@Z PROC			; set_pilot_pedal_position, COMDAT

; 1390 : {

  00000	55		 push	 ebp
  00001	8b ec		 mov	 ebp, esp
  00003	83 ec 4c	 sub	 esp, 76			; 0000004cH
  00006	53		 push	 ebx
  00007	56		 push	 esi
  00008	57		 push	 edi

; 1391 : 	float
; 1392 : 		anim_frame;
; 1393 : 
; 1394 : 	anim_frame = pedal;

  00009	f3 0f 10 45 08	 movss	 xmm0, DWORD PTR _pedal$[ebp]
  0000e	f3 0f 11 45 fc	 movss	 DWORD PTR _anim_frame$[ebp], xmm0

; 1395 : 
; 1396 : 	anim_frame *= PILOT_PEDAL_ANIM_END - PILOT_PEDAL_ANIM_START;

  00013	f3 0f 10 45 fc	 movss	 xmm0, DWORD PTR _anim_frame$[ebp]
  00018	f3 0f 59 05 00
	00 00 00	 mulss	 xmm0, DWORD PTR __real@3d23d70a
  00020	f3 0f 11 45 fc	 movss	 DWORD PTR _anim_frame$[ebp], xmm0

; 1397 : 
; 1398 : 	anim_frame += PILOT_PEDAL_ANIM_START;

  00025	f3 0f 10 45 fc	 movss	 xmm0, DWORD PTR _anim_frame$[ebp]
  0002a	f3 0f 58 05 00
	00 00 00	 addss	 xmm0, DWORD PTR __real@00000000
  00032	f3 0f 11 45 fc	 movss	 DWORD PTR _anim_frame$[ebp], xmm0

; 1399 : 
; 1400 : 	anim_frame = bound (anim_frame, PILOT_PEDAL_ANIM_START, PILOT_PEDAL_ANIM_END);

  00037	0f 57 c0	 xorps	 xmm0, xmm0
  0003a	0f 2f 45 fc	 comiss	 xmm0, DWORD PTR _anim_frame$[ebp]
  0003e	76 0a		 jbe	 SHORT $LN5@set_pilot_
  00040	0f 57 c0	 xorps	 xmm0, xmm0
  00043	f3 0f 11 45 b8	 movss	 DWORD PTR tv69[ebp], xmm0
  00048	eb 31		 jmp	 SHORT $LN6@set_pilot_
$LN5@set_pilot_:
  0004a	f3 0f 10 45 fc	 movss	 xmm0, DWORD PTR _anim_frame$[ebp]
  0004f	0f 2f 05 00 00
	00 00		 comiss	 xmm0, DWORD PTR __real@3d23d70a
  00056	76 0f		 jbe	 SHORT $LN3@set_pilot_
  00058	f3 0f 10 05 00
	00 00 00	 movss	 xmm0, DWORD PTR __real@3d23d70a
  00060	f3 0f 11 45 b4	 movss	 DWORD PTR tv68[ebp], xmm0
  00065	eb 0a		 jmp	 SHORT $LN4@set_pilot_
$LN3@set_pilot_:
  00067	f3 0f 10 45 fc	 movss	 xmm0, DWORD PTR _anim_frame$[ebp]
  0006c	f3 0f 11 45 b4	 movss	 DWORD PTR tv68[ebp], xmm0
$LN4@set_pilot_:
  00071	f3 0f 10 45 b4	 movss	 xmm0, DWORD PTR tv68[ebp]
  00076	f3 0f 11 45 b8	 movss	 DWORD PTR tv69[ebp], xmm0
$LN6@set_pilot_:
  0007b	f3 0f 10 45 b8	 movss	 xmm0, DWORD PTR tv69[ebp]
  00080	f3 0f 11 45 fc	 movss	 DWORD PTR _anim_frame$[ebp], xmm0

; 1401 : 
; 1402 : 	animate_entity_simple_keyframed_sub_objects (virtual_cockpit_inst3d, OBJECT_3D_SUB_OBJECT_COCKPIT_PILOT_PEDAL, anim_frame);

  00085	51		 push	 ecx
  00086	f3 0f 10 45 fc	 movss	 xmm0, DWORD PTR _anim_frame$[ebp]
  0008b	f3 0f 11 04 24	 movss	 DWORD PTR [esp], xmm0
  00090	68 c7 00 00 00	 push	 199			; 000000c7H
  00095	a1 00 00 00 00	 mov	 eax, DWORD PTR ?virtual_cockpit_inst3d@@3PAUOBJECT_3D_INSTANCE@@A ; virtual_cockpit_inst3d
  0009a	50		 push	 eax
  0009b	e8 00 00 00 00	 call	 ?animate_entity_simple_keyframed_sub_objects@@YGXPAUOBJECT_3D_INSTANCE@@HM@Z ; animate_entity_simple_keyframed_sub_objects

; 1403 : }

  000a0	5f		 pop	 edi
  000a1	5e		 pop	 esi
  000a2	5b		 pop	 ebx
  000a3	8b e5		 mov	 esp, ebp
  000a5	5d		 pop	 ebp
  000a6	c2 04 00	 ret	 4
?set_pilot_pedal_position@@YGXM@Z ENDP			; set_pilot_pedal_position
_TEXT	ENDS
; Function compile flags: /Odtp /ZI
; File c:\users\nhv90\projects\eech\aphavoc\source\gunships\cockpits\ka50\hm_pilot.c
;	COMDAT ?set_pilot_legs_and_pedal_position@@YGXM@Z
_TEXT	SEGMENT
tv77 = -76						; size = 4
tv68 = -76						; size = 4
tv78 = -72						; size = 4
tv69 = -72						; size = 4
_anim_frame$ = -4					; size = 4
_pedal$ = 8						; size = 4
?set_pilot_legs_and_pedal_position@@YGXM@Z PROC		; set_pilot_legs_and_pedal_position, COMDAT

; 1360 : {

  00000	55		 push	 ebp
  00001	8b ec		 mov	 ebp, esp
  00003	83 ec 4c	 sub	 esp, 76			; 0000004cH
  00006	53		 push	 ebx
  00007	56		 push	 esi
  00008	57		 push	 edi

; 1361 : 	float
; 1362 : 		anim_frame;
; 1363 : 
; 1364 : 	anim_frame = pedal;

  00009	f3 0f 10 45 08	 movss	 xmm0, DWORD PTR _pedal$[ebp]
  0000e	f3 0f 11 45 fc	 movss	 DWORD PTR _anim_frame$[ebp], xmm0

; 1365 : 
; 1366 : 	anim_frame *= PILOT_PEDAL_ANIM_END - PILOT_PEDAL_ANIM_START;

  00013	f3 0f 10 45 fc	 movss	 xmm0, DWORD PTR _anim_frame$[ebp]
  00018	f3 0f 59 05 00
	00 00 00	 mulss	 xmm0, DWORD PTR __real@3d23d70a
  00020	f3 0f 11 45 fc	 movss	 DWORD PTR _anim_frame$[ebp], xmm0

; 1367 : 
; 1368 : 	anim_frame += PILOT_PEDAL_ANIM_START;

  00025	f3 0f 10 45 fc	 movss	 xmm0, DWORD PTR _anim_frame$[ebp]
  0002a	f3 0f 58 05 00
	00 00 00	 addss	 xmm0, DWORD PTR __real@00000000
  00032	f3 0f 11 45 fc	 movss	 DWORD PTR _anim_frame$[ebp], xmm0

; 1369 : 
; 1370 : 	anim_frame = bound (anim_frame, PILOT_PEDAL_ANIM_START, PILOT_PEDAL_ANIM_END);

  00037	0f 57 c0	 xorps	 xmm0, xmm0
  0003a	0f 2f 45 fc	 comiss	 xmm0, DWORD PTR _anim_frame$[ebp]
  0003e	76 0a		 jbe	 SHORT $LN5@set_pilot_
  00040	0f 57 c0	 xorps	 xmm0, xmm0
  00043	f3 0f 11 45 b8	 movss	 DWORD PTR tv69[ebp], xmm0
  00048	eb 31		 jmp	 SHORT $LN6@set_pilot_
$LN5@set_pilot_:
  0004a	f3 0f 10 45 fc	 movss	 xmm0, DWORD PTR _anim_frame$[ebp]
  0004f	0f 2f 05 00 00
	00 00		 comiss	 xmm0, DWORD PTR __real@3d23d70a
  00056	76 0f		 jbe	 SHORT $LN3@set_pilot_
  00058	f3 0f 10 05 00
	00 00 00	 movss	 xmm0, DWORD PTR __real@3d23d70a
  00060	f3 0f 11 45 b4	 movss	 DWORD PTR tv68[ebp], xmm0
  00065	eb 0a		 jmp	 SHORT $LN4@set_pilot_
$LN3@set_pilot_:
  00067	f3 0f 10 45 fc	 movss	 xmm0, DWORD PTR _anim_frame$[ebp]
  0006c	f3 0f 11 45 b4	 movss	 DWORD PTR tv68[ebp], xmm0
$LN4@set_pilot_:
  00071	f3 0f 10 45 b4	 movss	 xmm0, DWORD PTR tv68[ebp]
  00076	f3 0f 11 45 b8	 movss	 DWORD PTR tv69[ebp], xmm0
$LN6@set_pilot_:
  0007b	f3 0f 10 45 b8	 movss	 xmm0, DWORD PTR tv69[ebp]
  00080	f3 0f 11 45 fc	 movss	 DWORD PTR _anim_frame$[ebp], xmm0

; 1371 : 
; 1372 : 	animate_entity_simple_keyframed_sub_objects (virtual_cockpit_inst3d, OBJECT_3D_SUB_OBJECT_COCKPIT_PILOT_PEDAL, anim_frame);

  00085	51		 push	 ecx
  00086	f3 0f 10 45 fc	 movss	 xmm0, DWORD PTR _anim_frame$[ebp]
  0008b	f3 0f 11 04 24	 movss	 DWORD PTR [esp], xmm0
  00090	68 c7 00 00 00	 push	 199			; 000000c7H
  00095	a1 00 00 00 00	 mov	 eax, DWORD PTR ?virtual_cockpit_inst3d@@3PAUOBJECT_3D_INSTANCE@@A ; virtual_cockpit_inst3d
  0009a	50		 push	 eax
  0009b	e8 00 00 00 00	 call	 ?animate_entity_simple_keyframed_sub_objects@@YGXPAUOBJECT_3D_INSTANCE@@HM@Z ; animate_entity_simple_keyframed_sub_objects

; 1373 : 
; 1374 : 	anim_frame = pedal;

  000a0	f3 0f 10 45 08	 movss	 xmm0, DWORD PTR _pedal$[ebp]
  000a5	f3 0f 11 45 fc	 movss	 DWORD PTR _anim_frame$[ebp], xmm0

; 1375 : 
; 1376 : 	anim_frame *= PILOT_LEG_ANIM_END - PILOT_LEG_ANIM_START;

  000aa	f3 0f 10 45 fc	 movss	 xmm0, DWORD PTR _anim_frame$[ebp]
  000af	f3 0f 59 05 00
	00 00 00	 mulss	 xmm0, DWORD PTR __real@3d23d70a
  000b7	f3 0f 11 45 fc	 movss	 DWORD PTR _anim_frame$[ebp], xmm0

; 1377 : 
; 1378 : 	anim_frame += PILOT_LEG_ANIM_START;

  000bc	f3 0f 10 45 fc	 movss	 xmm0, DWORD PTR _anim_frame$[ebp]
  000c1	f3 0f 58 05 00
	00 00 00	 addss	 xmm0, DWORD PTR __real@00000000
  000c9	f3 0f 11 45 fc	 movss	 DWORD PTR _anim_frame$[ebp], xmm0

; 1379 : 
; 1380 : 	anim_frame = bound (anim_frame, PILOT_LEG_ANIM_START, PILOT_LEG_ANIM_END);

  000ce	0f 57 c0	 xorps	 xmm0, xmm0
  000d1	0f 2f 45 fc	 comiss	 xmm0, DWORD PTR _anim_frame$[ebp]
  000d5	76 0a		 jbe	 SHORT $LN9@set_pilot_
  000d7	0f 57 c0	 xorps	 xmm0, xmm0
  000da	f3 0f 11 45 b8	 movss	 DWORD PTR tv78[ebp], xmm0
  000df	eb 31		 jmp	 SHORT $LN10@set_pilot_
$LN9@set_pilot_:
  000e1	f3 0f 10 45 fc	 movss	 xmm0, DWORD PTR _anim_frame$[ebp]
  000e6	0f 2f 05 00 00
	00 00		 comiss	 xmm0, DWORD PTR __real@3d23d70a
  000ed	76 0f		 jbe	 SHORT $LN7@set_pilot_
  000ef	f3 0f 10 05 00
	00 00 00	 movss	 xmm0, DWORD PTR __real@3d23d70a
  000f7	f3 0f 11 45 b4	 movss	 DWORD PTR tv77[ebp], xmm0
  000fc	eb 0a		 jmp	 SHORT $LN8@set_pilot_
$LN7@set_pilot_:
  000fe	f3 0f 10 45 fc	 movss	 xmm0, DWORD PTR _anim_frame$[ebp]
  00103	f3 0f 11 45 b4	 movss	 DWORD PTR tv77[ebp], xmm0
$LN8@set_pilot_:
  00108	f3 0f 10 45 b4	 movss	 xmm0, DWORD PTR tv77[ebp]
  0010d	f3 0f 11 45 b8	 movss	 DWORD PTR tv78[ebp], xmm0
$LN10@set_pilot_:
  00112	f3 0f 10 45 b8	 movss	 xmm0, DWORD PTR tv78[ebp]
  00117	f3 0f 11 45 fc	 movss	 DWORD PTR _anim_frame$[ebp], xmm0

; 1381 : 
; 1382 : 	animate_entity_simple_keyframed_sub_objects (virtual_cockpit_inst3d, OBJECT_3D_SUB_OBJECT_PILOT_LEG, anim_frame);

  0011c	51		 push	 ecx
  0011d	f3 0f 10 45 fc	 movss	 xmm0, DWORD PTR _anim_frame$[ebp]
  00122	f3 0f 11 04 24	 movss	 DWORD PTR [esp], xmm0
  00127	68 c2 00 00 00	 push	 194			; 000000c2H
  0012c	a1 00 00 00 00	 mov	 eax, DWORD PTR ?virtual_cockpit_inst3d@@3PAUOBJECT_3D_INSTANCE@@A ; virtual_cockpit_inst3d
  00131	50		 push	 eax
  00132	e8 00 00 00 00	 call	 ?animate_entity_simple_keyframed_sub_objects@@YGXPAUOBJECT_3D_INSTANCE@@HM@Z ; animate_entity_simple_keyframed_sub_objects

; 1383 : }

  00137	5f		 pop	 edi
  00138	5e		 pop	 esi
  00139	5b		 pop	 ebx
  0013a	8b e5		 mov	 esp, ebp
  0013c	5d		 pop	 ebp
  0013d	c2 04 00	 ret	 4
?set_pilot_legs_and_pedal_position@@YGXM@Z ENDP		; set_pilot_legs_and_pedal_position
_TEXT	ENDS
; Function compile flags: /Odtp /ZI
; File c:\users\nhv90\projects\eech\aphavoc\source\gunships\cockpits\ka50\hm_pilot.c
;	COMDAT ?get_pilot_pedal_position@@YGMXZ
_TEXT	SEGMENT
_pedal$ = -4						; size = 4
?get_pilot_pedal_position@@YGMXZ PROC			; get_pilot_pedal_position, COMDAT

; 1336 : {

  00000	55		 push	 ebp
  00001	8b ec		 mov	 ebp, esp
  00003	83 ec 44	 sub	 esp, 68			; 00000044H
  00006	53		 push	 ebx
  00007	56		 push	 esi
  00008	57		 push	 edi

; 1337 : 	float
; 1338 : 		pedal;
; 1339 : 
; 1340 : 	//
; 1341 : 	// assume pedal.min = -pedal.max
; 1342 : 	//
; 1343 : 
; 1344 : 	pedal = current_flight_dynamics->input_data.pedal.value;

  00009	a1 00 00 00 00	 mov	 eax, DWORD PTR ?current_flight_dynamics@@3PAUDYNAMICS_TYPE@@A ; current_flight_dynamics
  0000e	f3 0f 10 80 dc
	1b 00 00	 movss	 xmm0, DWORD PTR [eax+7132]
  00016	f3 0f 11 45 fc	 movss	 DWORD PTR _pedal$[ebp], xmm0

; 1345 : 
; 1346 : 	pedal /= current_flight_dynamics->input_data.pedal.max;

  0001b	a1 00 00 00 00	 mov	 eax, DWORD PTR ?current_flight_dynamics@@3PAUDYNAMICS_TYPE@@A ; current_flight_dynamics
  00020	f3 0f 10 45 fc	 movss	 xmm0, DWORD PTR _pedal$[ebp]
  00025	f3 0f 5e 80 e8
	1b 00 00	 divss	 xmm0, DWORD PTR [eax+7144]
  0002d	f3 0f 11 45 fc	 movss	 DWORD PTR _pedal$[ebp], xmm0

; 1347 : 
; 1348 : 	pedal *= 0.5;

  00032	f3 0f 5a 45 fc	 cvtss2sd xmm0, DWORD PTR _pedal$[ebp]
  00037	f2 0f 59 05 00
	00 00 00	 mulsd	 xmm0, QWORD PTR __real@3fe0000000000000
  0003f	f2 0f 5a c0	 cvtsd2ss xmm0, xmm0
  00043	f3 0f 11 45 fc	 movss	 DWORD PTR _pedal$[ebp], xmm0

; 1349 : 
; 1350 : 	pedal += 0.5;

  00048	f3 0f 5a 45 fc	 cvtss2sd xmm0, DWORD PTR _pedal$[ebp]
  0004d	f2 0f 58 05 00
	00 00 00	 addsd	 xmm0, QWORD PTR __real@3fe0000000000000
  00055	f2 0f 5a c0	 cvtsd2ss xmm0, xmm0
  00059	f3 0f 11 45 fc	 movss	 DWORD PTR _pedal$[ebp], xmm0

; 1351 : 
; 1352 : 	return (pedal);

  0005e	d9 45 fc	 fld	 DWORD PTR _pedal$[ebp]

; 1353 : }

  00061	5f		 pop	 edi
  00062	5e		 pop	 esi
  00063	5b		 pop	 ebx
  00064	8b e5		 mov	 esp, ebp
  00066	5d		 pop	 ebp
  00067	c3		 ret	 0
?get_pilot_pedal_position@@YGMXZ ENDP			; get_pilot_pedal_position
_TEXT	ENDS
; Function compile flags: /Odtp /ZI
; File c:\users\nhv90\projects\eech\aphavoc\source\gunships\cockpits\ka50\hm_pilot.c
;	COMDAT ?set_pilot_collective_position@@YGXM@Z
_TEXT	SEGMENT
tv71 = -76						; size = 4
tv72 = -72						; size = 4
_anim_frame$ = -4					; size = 4
_collective$ = 8					; size = 4
?set_pilot_collective_position@@YGXM@Z PROC		; set_pilot_collective_position, COMDAT

; 1310 : {

  00000	55		 push	 ebp
  00001	8b ec		 mov	 ebp, esp
  00003	83 ec 4c	 sub	 esp, 76			; 0000004cH
  00006	53		 push	 ebx
  00007	56		 push	 esi
  00008	57		 push	 edi

; 1311 : 	float
; 1312 : 		anim_frame;
; 1313 : 
; 1314 : 	anim_frame = 1.0 - collective;

  00009	f3 0f 5a 45 08	 cvtss2sd xmm0, DWORD PTR _collective$[ebp]
  0000e	f2 0f 10 0d 00
	00 00 00	 movsd	 xmm1, QWORD PTR __real@3ff0000000000000
  00016	f2 0f 5c c8	 subsd	 xmm1, xmm0
  0001a	f2 0f 5a c1	 cvtsd2ss xmm0, xmm1
  0001e	f3 0f 11 45 fc	 movss	 DWORD PTR _anim_frame$[ebp], xmm0

; 1315 : 
; 1316 : 	anim_frame *= PILOT_COLLECTIVE_ANIM_END - PILOT_COLLECTIVE_ANIM_START;

  00023	f3 0f 10 45 fc	 movss	 xmm0, DWORD PTR _anim_frame$[ebp]
  00028	f3 0f 59 05 00
	00 00 00	 mulss	 xmm0, DWORD PTR __real@3d23d70a
  00030	f3 0f 11 45 fc	 movss	 DWORD PTR _anim_frame$[ebp], xmm0

; 1317 : 
; 1318 : 	anim_frame += PILOT_COLLECTIVE_ANIM_START;

  00035	f3 0f 10 45 fc	 movss	 xmm0, DWORD PTR _anim_frame$[ebp]
  0003a	f3 0f 58 05 00
	00 00 00	 addss	 xmm0, DWORD PTR __real@00000000
  00042	f3 0f 11 45 fc	 movss	 DWORD PTR _anim_frame$[ebp], xmm0

; 1319 : 
; 1320 : 	anim_frame = bound (anim_frame, PILOT_COLLECTIVE_ANIM_START, PILOT_COLLECTIVE_ANIM_END);

  00047	0f 57 c0	 xorps	 xmm0, xmm0
  0004a	0f 2f 45 fc	 comiss	 xmm0, DWORD PTR _anim_frame$[ebp]
  0004e	76 0a		 jbe	 SHORT $LN5@set_pilot_
  00050	0f 57 c0	 xorps	 xmm0, xmm0
  00053	f3 0f 11 45 b8	 movss	 DWORD PTR tv72[ebp], xmm0
  00058	eb 31		 jmp	 SHORT $LN6@set_pilot_
$LN5@set_pilot_:
  0005a	f3 0f 10 45 fc	 movss	 xmm0, DWORD PTR _anim_frame$[ebp]
  0005f	0f 2f 05 00 00
	00 00		 comiss	 xmm0, DWORD PTR __real@3d23d70a
  00066	76 0f		 jbe	 SHORT $LN3@set_pilot_
  00068	f3 0f 10 05 00
	00 00 00	 movss	 xmm0, DWORD PTR __real@3d23d70a
  00070	f3 0f 11 45 b4	 movss	 DWORD PTR tv71[ebp], xmm0
  00075	eb 0a		 jmp	 SHORT $LN4@set_pilot_
$LN3@set_pilot_:
  00077	f3 0f 10 45 fc	 movss	 xmm0, DWORD PTR _anim_frame$[ebp]
  0007c	f3 0f 11 45 b4	 movss	 DWORD PTR tv71[ebp], xmm0
$LN4@set_pilot_:
  00081	f3 0f 10 45 b4	 movss	 xmm0, DWORD PTR tv71[ebp]
  00086	f3 0f 11 45 b8	 movss	 DWORD PTR tv72[ebp], xmm0
$LN6@set_pilot_:
  0008b	f3 0f 10 45 b8	 movss	 xmm0, DWORD PTR tv72[ebp]
  00090	f3 0f 11 45 fc	 movss	 DWORD PTR _anim_frame$[ebp], xmm0

; 1321 : 
; 1322 : 	animate_entity_simple_keyframed_sub_objects (virtual_cockpit_inst3d, OBJECT_3D_SUB_OBJECT_COCKPIT_PILOT_COLLECTIVE, anim_frame);

  00095	51		 push	 ecx
  00096	f3 0f 10 45 fc	 movss	 xmm0, DWORD PTR _anim_frame$[ebp]
  0009b	f3 0f 11 04 24	 movss	 DWORD PTR [esp], xmm0
  000a0	68 99 00 00 00	 push	 153			; 00000099H
  000a5	a1 00 00 00 00	 mov	 eax, DWORD PTR ?virtual_cockpit_inst3d@@3PAUOBJECT_3D_INSTANCE@@A ; virtual_cockpit_inst3d
  000aa	50		 push	 eax
  000ab	e8 00 00 00 00	 call	 ?animate_entity_simple_keyframed_sub_objects@@YGXPAUOBJECT_3D_INSTANCE@@HM@Z ; animate_entity_simple_keyframed_sub_objects

; 1323 : }

  000b0	5f		 pop	 edi
  000b1	5e		 pop	 esi
  000b2	5b		 pop	 ebx
  000b3	8b e5		 mov	 esp, ebp
  000b5	5d		 pop	 ebp
  000b6	c2 04 00	 ret	 4
?set_pilot_collective_position@@YGXM@Z ENDP		; set_pilot_collective_position
_TEXT	ENDS
; Function compile flags: /Odtp /ZI
; File c:\users\nhv90\projects\eech\aphavoc\source\gunships\cockpits\ka50\hm_pilot.c
;	COMDAT ?set_pilot_left_arm_and_collective_position@@YGXM@Z
_TEXT	SEGMENT
tv71 = -76						; size = 4
tv72 = -72						; size = 4
_anim_frame$ = -4					; size = 4
_collective$ = 8					; size = 4
?set_pilot_left_arm_and_collective_position@@YGXM@Z PROC ; set_pilot_left_arm_and_collective_position, COMDAT

; 1280 : {

  00000	55		 push	 ebp
  00001	8b ec		 mov	 ebp, esp
  00003	83 ec 4c	 sub	 esp, 76			; 0000004cH
  00006	53		 push	 ebx
  00007	56		 push	 esi
  00008	57		 push	 edi

; 1281 : 	float
; 1282 : 		anim_frame;
; 1283 : 
; 1284 : 	anim_frame = 1.0 - collective;

  00009	f3 0f 5a 45 08	 cvtss2sd xmm0, DWORD PTR _collective$[ebp]
  0000e	f2 0f 10 0d 00
	00 00 00	 movsd	 xmm1, QWORD PTR __real@3ff0000000000000
  00016	f2 0f 5c c8	 subsd	 xmm1, xmm0
  0001a	f2 0f 5a c1	 cvtsd2ss xmm0, xmm1
  0001e	f3 0f 11 45 fc	 movss	 DWORD PTR _anim_frame$[ebp], xmm0

; 1285 : 
; 1286 : 	anim_frame *= PILOT_COLLECTIVE_ANIM_END - PILOT_COLLECTIVE_ANIM_START;

  00023	f3 0f 10 45 fc	 movss	 xmm0, DWORD PTR _anim_frame$[ebp]
  00028	f3 0f 59 05 00
	00 00 00	 mulss	 xmm0, DWORD PTR __real@3d23d70a
  00030	f3 0f 11 45 fc	 movss	 DWORD PTR _anim_frame$[ebp], xmm0

; 1287 : 
; 1288 : 	anim_frame += PILOT_COLLECTIVE_ANIM_START;

  00035	f3 0f 10 45 fc	 movss	 xmm0, DWORD PTR _anim_frame$[ebp]
  0003a	f3 0f 58 05 00
	00 00 00	 addss	 xmm0, DWORD PTR __real@00000000
  00042	f3 0f 11 45 fc	 movss	 DWORD PTR _anim_frame$[ebp], xmm0

; 1289 : 
; 1290 : 	anim_frame = bound (anim_frame, PILOT_COLLECTIVE_ANIM_START, PILOT_COLLECTIVE_ANIM_END);

  00047	0f 57 c0	 xorps	 xmm0, xmm0
  0004a	0f 2f 45 fc	 comiss	 xmm0, DWORD PTR _anim_frame$[ebp]
  0004e	76 0a		 jbe	 SHORT $LN5@set_pilot_
  00050	0f 57 c0	 xorps	 xmm0, xmm0
  00053	f3 0f 11 45 b8	 movss	 DWORD PTR tv72[ebp], xmm0
  00058	eb 31		 jmp	 SHORT $LN6@set_pilot_
$LN5@set_pilot_:
  0005a	f3 0f 10 45 fc	 movss	 xmm0, DWORD PTR _anim_frame$[ebp]
  0005f	0f 2f 05 00 00
	00 00		 comiss	 xmm0, DWORD PTR __real@3d23d70a
  00066	76 0f		 jbe	 SHORT $LN3@set_pilot_
  00068	f3 0f 10 05 00
	00 00 00	 movss	 xmm0, DWORD PTR __real@3d23d70a
  00070	f3 0f 11 45 b4	 movss	 DWORD PTR tv71[ebp], xmm0
  00075	eb 0a		 jmp	 SHORT $LN4@set_pilot_
$LN3@set_pilot_:
  00077	f3 0f 10 45 fc	 movss	 xmm0, DWORD PTR _anim_frame$[ebp]
  0007c	f3 0f 11 45 b4	 movss	 DWORD PTR tv71[ebp], xmm0
$LN4@set_pilot_:
  00081	f3 0f 10 45 b4	 movss	 xmm0, DWORD PTR tv71[ebp]
  00086	f3 0f 11 45 b8	 movss	 DWORD PTR tv72[ebp], xmm0
$LN6@set_pilot_:
  0008b	f3 0f 10 45 b8	 movss	 xmm0, DWORD PTR tv72[ebp]
  00090	f3 0f 11 45 fc	 movss	 DWORD PTR _anim_frame$[ebp], xmm0

; 1291 : 
; 1292 : 	animate_entity_simple_keyframed_sub_objects (virtual_cockpit_inst3d, OBJECT_3D_SUB_OBJECT_PILOT_L_SHOULDER, anim_frame);

  00095	51		 push	 ecx
  00096	f3 0f 10 45 fc	 movss	 xmm0, DWORD PTR _anim_frame$[ebp]
  0009b	f3 0f 11 04 24	 movss	 DWORD PTR [esp], xmm0
  000a0	68 b4 00 00 00	 push	 180			; 000000b4H
  000a5	a1 00 00 00 00	 mov	 eax, DWORD PTR ?virtual_cockpit_inst3d@@3PAUOBJECT_3D_INSTANCE@@A ; virtual_cockpit_inst3d
  000aa	50		 push	 eax
  000ab	e8 00 00 00 00	 call	 ?animate_entity_simple_keyframed_sub_objects@@YGXPAUOBJECT_3D_INSTANCE@@HM@Z ; animate_entity_simple_keyframed_sub_objects

; 1293 : 
; 1294 : 	animate_entity_simple_keyframed_sub_objects (virtual_cockpit_inst3d, OBJECT_3D_SUB_OBJECT_PILOT_L_FOREARM, anim_frame);

  000b0	51		 push	 ecx
  000b1	f3 0f 10 45 fc	 movss	 xmm0, DWORD PTR _anim_frame$[ebp]
  000b6	f3 0f 11 04 24	 movss	 DWORD PTR [esp], xmm0
  000bb	68 b7 00 00 00	 push	 183			; 000000b7H
  000c0	a1 00 00 00 00	 mov	 eax, DWORD PTR ?virtual_cockpit_inst3d@@3PAUOBJECT_3D_INSTANCE@@A ; virtual_cockpit_inst3d
  000c5	50		 push	 eax
  000c6	e8 00 00 00 00	 call	 ?animate_entity_simple_keyframed_sub_objects@@YGXPAUOBJECT_3D_INSTANCE@@HM@Z ; animate_entity_simple_keyframed_sub_objects

; 1295 : 
; 1296 : 	animate_entity_simple_keyframed_sub_objects (virtual_cockpit_inst3d, OBJECT_3D_SUB_OBJECT_PILOT_L_HAND, anim_frame);

  000cb	51		 push	 ecx
  000cc	f3 0f 10 45 fc	 movss	 xmm0, DWORD PTR _anim_frame$[ebp]
  000d1	f3 0f 11 04 24	 movss	 DWORD PTR [esp], xmm0
  000d6	68 b8 00 00 00	 push	 184			; 000000b8H
  000db	a1 00 00 00 00	 mov	 eax, DWORD PTR ?virtual_cockpit_inst3d@@3PAUOBJECT_3D_INSTANCE@@A ; virtual_cockpit_inst3d
  000e0	50		 push	 eax
  000e1	e8 00 00 00 00	 call	 ?animate_entity_simple_keyframed_sub_objects@@YGXPAUOBJECT_3D_INSTANCE@@HM@Z ; animate_entity_simple_keyframed_sub_objects

; 1297 : 
; 1298 : 	animate_entity_simple_keyframed_sub_objects (virtual_cockpit_inst3d, OBJECT_3D_SUB_OBJECT_PILOT_L_FINGER, anim_frame);

  000e6	51		 push	 ecx
  000e7	f3 0f 10 45 fc	 movss	 xmm0, DWORD PTR _anim_frame$[ebp]
  000ec	f3 0f 11 04 24	 movss	 DWORD PTR [esp], xmm0
  000f1	68 b9 00 00 00	 push	 185			; 000000b9H
  000f6	a1 00 00 00 00	 mov	 eax, DWORD PTR ?virtual_cockpit_inst3d@@3PAUOBJECT_3D_INSTANCE@@A ; virtual_cockpit_inst3d
  000fb	50		 push	 eax
  000fc	e8 00 00 00 00	 call	 ?animate_entity_simple_keyframed_sub_objects@@YGXPAUOBJECT_3D_INSTANCE@@HM@Z ; animate_entity_simple_keyframed_sub_objects

; 1299 : 
; 1300 : 	animate_entity_simple_keyframed_sub_objects (virtual_cockpit_inst3d, OBJECT_3D_SUB_OBJECT_PILOT_L_THUMB, anim_frame);

  00101	51		 push	 ecx
  00102	f3 0f 10 45 fc	 movss	 xmm0, DWORD PTR _anim_frame$[ebp]
  00107	f3 0f 11 04 24	 movss	 DWORD PTR [esp], xmm0
  0010c	68 ba 00 00 00	 push	 186			; 000000baH
  00111	a1 00 00 00 00	 mov	 eax, DWORD PTR ?virtual_cockpit_inst3d@@3PAUOBJECT_3D_INSTANCE@@A ; virtual_cockpit_inst3d
  00116	50		 push	 eax
  00117	e8 00 00 00 00	 call	 ?animate_entity_simple_keyframed_sub_objects@@YGXPAUOBJECT_3D_INSTANCE@@HM@Z ; animate_entity_simple_keyframed_sub_objects

; 1301 : 
; 1302 : 	animate_entity_simple_keyframed_sub_objects (virtual_cockpit_inst3d, OBJECT_3D_SUB_OBJECT_COCKPIT_PILOT_COLLECTIVE, anim_frame);

  0011c	51		 push	 ecx
  0011d	f3 0f 10 45 fc	 movss	 xmm0, DWORD PTR _anim_frame$[ebp]
  00122	f3 0f 11 04 24	 movss	 DWORD PTR [esp], xmm0
  00127	68 99 00 00 00	 push	 153			; 00000099H
  0012c	a1 00 00 00 00	 mov	 eax, DWORD PTR ?virtual_cockpit_inst3d@@3PAUOBJECT_3D_INSTANCE@@A ; virtual_cockpit_inst3d
  00131	50		 push	 eax
  00132	e8 00 00 00 00	 call	 ?animate_entity_simple_keyframed_sub_objects@@YGXPAUOBJECT_3D_INSTANCE@@HM@Z ; animate_entity_simple_keyframed_sub_objects

; 1303 : }

  00137	5f		 pop	 edi
  00138	5e		 pop	 esi
  00139	5b		 pop	 ebx
  0013a	8b e5		 mov	 esp, ebp
  0013c	5d		 pop	 ebp
  0013d	c2 04 00	 ret	 4
?set_pilot_left_arm_and_collective_position@@YGXM@Z ENDP ; set_pilot_left_arm_and_collective_position
_TEXT	ENDS
; Function compile flags: /Odtp /ZI
; File c:\users\nhv90\projects\eech\aphavoc\source\gunships\cockpits\ka50\hm_pilot.c
;	COMDAT ?get_pilot_collective_position@@YGMXZ
_TEXT	SEGMENT
tv76 = -84						; size = 8
tv77 = -76						; size = 8
_collective$ = -4					; size = 4
?get_pilot_collective_position@@YGMXZ PROC		; get_pilot_collective_position, COMDAT

; 1258 : {

  00000	55		 push	 ebp
  00001	8b ec		 mov	 ebp, esp
  00003	83 ec 54	 sub	 esp, 84			; 00000054H
  00006	53		 push	 ebx
  00007	56		 push	 esi
  00008	57		 push	 edi

; 1259 : 	float
; 1260 : 		collective;
; 1261 : 
; 1262 : 	//
; 1263 : 	// assume collective.min = 0.0
; 1264 : 	//
; 1265 : 
; 1266 : 	collective = current_flight_dynamics->input_data.collective.value;

  00009	a1 00 00 00 00	 mov	 eax, DWORD PTR ?current_flight_dynamics@@3PAUDYNAMICS_TYPE@@A ; current_flight_dynamics
  0000e	f3 0f 10 80 a8
	1b 00 00	 movss	 xmm0, DWORD PTR [eax+7080]
  00016	f3 0f 11 45 fc	 movss	 DWORD PTR _collective$[ebp], xmm0

; 1267 : 
; 1268 : 	collective /= current_flight_dynamics->input_data.collective.max;

  0001b	a1 00 00 00 00	 mov	 eax, DWORD PTR ?current_flight_dynamics@@3PAUDYNAMICS_TYPE@@A ; current_flight_dynamics
  00020	f3 0f 10 45 fc	 movss	 xmm0, DWORD PTR _collective$[ebp]
  00025	f3 0f 5e 80 b4
	1b 00 00	 divss	 xmm0, DWORD PTR [eax+7092]
  0002d	f3 0f 11 45 fc	 movss	 DWORD PTR _collective$[ebp], xmm0

; 1269 : 
; 1270 : 	collective = bound (collective, 0.0, 1.0);

  00032	f3 0f 5a 45 fc	 cvtss2sd xmm0, DWORD PTR _collective$[ebp]
  00037	0f 57 c9	 xorps	 xmm1, xmm1
  0003a	66 0f 2f c8	 comisd	 xmm1, xmm0
  0003e	76 0a		 jbe	 SHORT $LN5@get_pilot_
  00040	0f 57 c0	 xorps	 xmm0, xmm0
  00043	f2 0f 11 45 b4	 movsd	 QWORD PTR tv77[ebp], xmm0
  00048	eb 32		 jmp	 SHORT $LN6@get_pilot_
$LN5@get_pilot_:
  0004a	f3 0f 5a 45 fc	 cvtss2sd xmm0, DWORD PTR _collective$[ebp]
  0004f	66 0f 2f 05 00
	00 00 00	 comisd	 xmm0, QWORD PTR __real@3ff0000000000000
  00057	76 0f		 jbe	 SHORT $LN3@get_pilot_
  00059	f2 0f 10 05 00
	00 00 00	 movsd	 xmm0, QWORD PTR __real@3ff0000000000000
  00061	f2 0f 11 45 ac	 movsd	 QWORD PTR tv76[ebp], xmm0
  00066	eb 0a		 jmp	 SHORT $LN4@get_pilot_
$LN3@get_pilot_:
  00068	f3 0f 5a 45 fc	 cvtss2sd xmm0, DWORD PTR _collective$[ebp]
  0006d	f2 0f 11 45 ac	 movsd	 QWORD PTR tv76[ebp], xmm0
$LN4@get_pilot_:
  00072	f2 0f 10 45 ac	 movsd	 xmm0, QWORD PTR tv76[ebp]
  00077	f2 0f 11 45 b4	 movsd	 QWORD PTR tv77[ebp], xmm0
$LN6@get_pilot_:
  0007c	f2 0f 5a 45 b4	 cvtsd2ss xmm0, QWORD PTR tv77[ebp]
  00081	f3 0f 11 45 fc	 movss	 DWORD PTR _collective$[ebp], xmm0

; 1271 : 
; 1272 : 	return (collective);

  00086	d9 45 fc	 fld	 DWORD PTR _collective$[ebp]

; 1273 : }

  00089	5f		 pop	 edi
  0008a	5e		 pop	 esi
  0008b	5b		 pop	 ebx
  0008c	8b e5		 mov	 esp, ebp
  0008e	5d		 pop	 ebp
  0008f	c3		 ret	 0
?get_pilot_collective_position@@YGMXZ ENDP		; get_pilot_collective_position
_TEXT	ENDS
; Function compile flags: /Odtp /ZI
; File c:\users\nhv90\projects\eech\aphavoc\source\gunships\cockpits\ka50\hm_pilot.c
;	COMDAT ?set_pilot_cyclic_position@@YGXMM@Z
_TEXT	SEGMENT
_result$ = -80						; size = 24
_search_data$ = -56					; size = 56
_x$ = 8							; size = 4
_y$ = 12						; size = 4
?set_pilot_cyclic_position@@YGXMM@Z PROC		; set_pilot_cyclic_position, COMDAT

; 1218 : {

  00000	55		 push	 ebp
  00001	8b ec		 mov	 ebp, esp
  00003	81 ec 90 00 00
	00		 sub	 esp, 144		; 00000090H
  00009	53		 push	 ebx
  0000a	56		 push	 esi
  0000b	57		 push	 edi

; 1219 : 	object_3d_sub_object_search_data
; 1220 : 		search_data;
; 1221 : 
; 1222 : 	motion_data
; 1223 : 		result;
; 1224 : 
; 1225 : 	x *= (NUM_RIGHT_ARM_X_FRAMES - 1);

  0000c	f3 0f 10 45 08	 movss	 xmm0, DWORD PTR _x$[ebp]
  00011	f3 0f 59 05 00
	00 00 00	 mulss	 xmm0, DWORD PTR __real@41800000
  00019	f3 0f 11 45 08	 movss	 DWORD PTR _x$[ebp], xmm0

; 1226 : 
; 1227 : 	y *= (NUM_RIGHT_ARM_Y_FRAMES - 1);

  0001e	f3 0f 10 45 0c	 movss	 xmm0, DWORD PTR _y$[ebp]
  00023	f3 0f 59 05 00
	00 00 00	 mulss	 xmm0, DWORD PTR __real@41800000
  0002b	f3 0f 11 45 0c	 movss	 DWORD PTR _y$[ebp], xmm0

; 1228 : 
; 1229 : 	search_data.search_depth = 0;

  00030	c7 45 d0 00 00
	00 00		 mov	 DWORD PTR _search_data$[ebp+8], 0

; 1230 : 	search_data.search_object = virtual_cockpit_inst3d;

  00037	a1 00 00 00 00	 mov	 eax, DWORD PTR ?virtual_cockpit_inst3d@@3PAUOBJECT_3D_INSTANCE@@A ; virtual_cockpit_inst3d
  0003c	89 45 c8	 mov	 DWORD PTR _search_data$[ebp], eax

; 1231 : 	search_data.sub_object_index = OBJECT_3D_SUB_OBJECT_COCKPIT_PILOT_JOYSTICK;

  0003f	c7 45 d4 97 00
	00 00		 mov	 DWORD PTR _search_data$[ebp+12], 151 ; 00000097H

; 1232 : 
; 1233 : 	if (find_object_3d_sub_object (&search_data) == SUB_OBJECT_SEARCH_RESULT_OBJECT_FOUND)

  00046	8d 45 c8	 lea	 eax, DWORD PTR _search_data$[ebp]
  00049	50		 push	 eax
  0004a	e8 00 00 00 00	 call	 ?find_object_3d_sub_object@@YG?AW4SUB_OBJECT_SEARCH_RESULT_TYPES@@PAUOBJECT_3D_SUB_OBJECT_SEARCH_DATA@@@Z ; find_object_3d_sub_object
  0004f	83 f8 01	 cmp	 eax, 1
  00052	75 74		 jne	 SHORT $LN2@set_pilot_

; 1234 : 	{
; 1235 : 		interpolate_motion_values (x, y, right_arm_joystick_motion, NUM_RIGHT_ARM_X_FRAMES, &result);

  00054	8d 45 b0	 lea	 eax, DWORD PTR _result$[ebp]
  00057	50		 push	 eax
  00058	6a 11		 push	 17			; 00000011H
  0005a	68 00 00 00 00	 push	 OFFSET ?right_arm_joystick_motion@@3PAUMOTION_DATA@@A
  0005f	51		 push	 ecx
  00060	f3 0f 10 45 0c	 movss	 xmm0, DWORD PTR _y$[ebp]
  00065	f3 0f 11 04 24	 movss	 DWORD PTR [esp], xmm0
  0006a	51		 push	 ecx
  0006b	f3 0f 10 45 08	 movss	 xmm0, DWORD PTR _x$[ebp]
  00070	f3 0f 11 04 24	 movss	 DWORD PTR [esp], xmm0
  00075	e8 00 00 00 00	 call	 ?interpolate_motion_values@@YGXMMPAUMOTION_DATA@@H0@Z ; interpolate_motion_values

; 1236 : 
; 1237 : 		search_data.result_sub_object->relative_position.x = result.x;

  0007a	8b 45 cc	 mov	 eax, DWORD PTR _search_data$[ebp+4]
  0007d	f3 0f 10 45 b0	 movss	 xmm0, DWORD PTR _result$[ebp]
  00082	f3 0f 11 40 0c	 movss	 DWORD PTR [eax+12], xmm0

; 1238 : 		search_data.result_sub_object->relative_position.y = result.y;

  00087	8b 45 cc	 mov	 eax, DWORD PTR _search_data$[ebp+4]
  0008a	f3 0f 10 45 b4	 movss	 xmm0, DWORD PTR _result$[ebp+4]
  0008f	f3 0f 11 40 10	 movss	 DWORD PTR [eax+16], xmm0

; 1239 : 		search_data.result_sub_object->relative_position.z = result.z;

  00094	8b 45 cc	 mov	 eax, DWORD PTR _search_data$[ebp+4]
  00097	f3 0f 10 45 b8	 movss	 xmm0, DWORD PTR _result$[ebp+8]
  0009c	f3 0f 11 40 14	 movss	 DWORD PTR [eax+20], xmm0

; 1240 : 
; 1241 : 		search_data.result_sub_object->relative_heading = result.heading;

  000a1	8b 45 cc	 mov	 eax, DWORD PTR _search_data$[ebp+4]
  000a4	f3 0f 10 45 bc	 movss	 xmm0, DWORD PTR _result$[ebp+12]
  000a9	f3 0f 11 40 18	 movss	 DWORD PTR [eax+24], xmm0

; 1242 : 		search_data.result_sub_object->relative_pitch = result.pitch;

  000ae	8b 45 cc	 mov	 eax, DWORD PTR _search_data$[ebp+4]
  000b1	f3 0f 10 45 c0	 movss	 xmm0, DWORD PTR _result$[ebp+16]
  000b6	f3 0f 11 40 1c	 movss	 DWORD PTR [eax+28], xmm0

; 1243 : 		search_data.result_sub_object->relative_roll = result.roll;

  000bb	8b 45 cc	 mov	 eax, DWORD PTR _search_data$[ebp+4]
  000be	f3 0f 10 45 c4	 movss	 xmm0, DWORD PTR _result$[ebp+20]
  000c3	f3 0f 11 40 20	 movss	 DWORD PTR [eax+32], xmm0
$LN2@set_pilot_:

; 1244 : 	}
; 1245 : }

  000c8	5f		 pop	 edi
  000c9	5e		 pop	 esi
  000ca	5b		 pop	 ebx
  000cb	8b e5		 mov	 esp, ebp
  000cd	5d		 pop	 ebp
  000ce	c2 08 00	 ret	 8
?set_pilot_cyclic_position@@YGXMM@Z ENDP		; set_pilot_cyclic_position
_TEXT	ENDS
; Function compile flags: /Odtp /ZI
; File c:\users\nhv90\projects\eech\aphavoc\source\gunships\cockpits\ka50\hm_pilot.c
;	COMDAT ?set_pilot_right_arm_and_cyclic_position@@YGXMM@Z
_TEXT	SEGMENT
_result$ = -80						; size = 24
_search_data$ = -56					; size = 56
_x$ = 8							; size = 4
_y$ = 12						; size = 4
?set_pilot_right_arm_and_cyclic_position@@YGXMM@Z PROC	; set_pilot_right_arm_and_cyclic_position, COMDAT

; 1138 : {

  00000	55		 push	 ebp
  00001	8b ec		 mov	 ebp, esp
  00003	81 ec 90 00 00
	00		 sub	 esp, 144		; 00000090H
  00009	53		 push	 ebx
  0000a	56		 push	 esi
  0000b	57		 push	 edi

; 1139 : 	object_3d_sub_object_search_data
; 1140 : 		search_data;
; 1141 : 
; 1142 : 	motion_data
; 1143 : 		result;
; 1144 : 
; 1145 : 	x *= (NUM_RIGHT_ARM_X_FRAMES - 1);

  0000c	f3 0f 10 45 08	 movss	 xmm0, DWORD PTR _x$[ebp]
  00011	f3 0f 59 05 00
	00 00 00	 mulss	 xmm0, DWORD PTR __real@41800000
  00019	f3 0f 11 45 08	 movss	 DWORD PTR _x$[ebp], xmm0

; 1146 : 
; 1147 : 	y *= (NUM_RIGHT_ARM_Y_FRAMES - 1);

  0001e	f3 0f 10 45 0c	 movss	 xmm0, DWORD PTR _y$[ebp]
  00023	f3 0f 59 05 00
	00 00 00	 mulss	 xmm0, DWORD PTR __real@41800000
  0002b	f3 0f 11 45 0c	 movss	 DWORD PTR _y$[ebp], xmm0

; 1148 : 
; 1149 : 	//
; 1150 : 	// cyclic
; 1151 : 	//
; 1152 : 
; 1153 : 	search_data.search_depth = 0;

  00030	c7 45 d0 00 00
	00 00		 mov	 DWORD PTR _search_data$[ebp+8], 0

; 1154 : 	search_data.search_object = virtual_cockpit_inst3d;

  00037	a1 00 00 00 00	 mov	 eax, DWORD PTR ?virtual_cockpit_inst3d@@3PAUOBJECT_3D_INSTANCE@@A ; virtual_cockpit_inst3d
  0003c	89 45 c8	 mov	 DWORD PTR _search_data$[ebp], eax

; 1155 : 	search_data.sub_object_index = OBJECT_3D_SUB_OBJECT_COCKPIT_PILOT_JOYSTICK;

  0003f	c7 45 d4 97 00
	00 00		 mov	 DWORD PTR _search_data$[ebp+12], 151 ; 00000097H

; 1156 : 
; 1157 : 	if (find_object_3d_sub_object (&search_data) == SUB_OBJECT_SEARCH_RESULT_OBJECT_FOUND)

  00046	8d 45 c8	 lea	 eax, DWORD PTR _search_data$[ebp]
  00049	50		 push	 eax
  0004a	e8 00 00 00 00	 call	 ?find_object_3d_sub_object@@YG?AW4SUB_OBJECT_SEARCH_RESULT_TYPES@@PAUOBJECT_3D_SUB_OBJECT_SEARCH_DATA@@@Z ; find_object_3d_sub_object
  0004f	83 f8 01	 cmp	 eax, 1
  00052	75 74		 jne	 SHORT $LN2@set_pilot_

; 1158 : 	{
; 1159 : 		interpolate_motion_values (x, y, right_arm_joystick_motion, NUM_RIGHT_ARM_X_FRAMES, &result);

  00054	8d 45 b0	 lea	 eax, DWORD PTR _result$[ebp]
  00057	50		 push	 eax
  00058	6a 11		 push	 17			; 00000011H
  0005a	68 00 00 00 00	 push	 OFFSET ?right_arm_joystick_motion@@3PAUMOTION_DATA@@A
  0005f	51		 push	 ecx
  00060	f3 0f 10 45 0c	 movss	 xmm0, DWORD PTR _y$[ebp]
  00065	f3 0f 11 04 24	 movss	 DWORD PTR [esp], xmm0
  0006a	51		 push	 ecx
  0006b	f3 0f 10 45 08	 movss	 xmm0, DWORD PTR _x$[ebp]
  00070	f3 0f 11 04 24	 movss	 DWORD PTR [esp], xmm0
  00075	e8 00 00 00 00	 call	 ?interpolate_motion_values@@YGXMMPAUMOTION_DATA@@H0@Z ; interpolate_motion_values

; 1160 : 
; 1161 : 		search_data.result_sub_object->relative_position.x = result.x;

  0007a	8b 45 cc	 mov	 eax, DWORD PTR _search_data$[ebp+4]
  0007d	f3 0f 10 45 b0	 movss	 xmm0, DWORD PTR _result$[ebp]
  00082	f3 0f 11 40 0c	 movss	 DWORD PTR [eax+12], xmm0

; 1162 : 		search_data.result_sub_object->relative_position.y = result.y;

  00087	8b 45 cc	 mov	 eax, DWORD PTR _search_data$[ebp+4]
  0008a	f3 0f 10 45 b4	 movss	 xmm0, DWORD PTR _result$[ebp+4]
  0008f	f3 0f 11 40 10	 movss	 DWORD PTR [eax+16], xmm0

; 1163 : 		search_data.result_sub_object->relative_position.z = result.z;

  00094	8b 45 cc	 mov	 eax, DWORD PTR _search_data$[ebp+4]
  00097	f3 0f 10 45 b8	 movss	 xmm0, DWORD PTR _result$[ebp+8]
  0009c	f3 0f 11 40 14	 movss	 DWORD PTR [eax+20], xmm0

; 1164 : 
; 1165 : 		search_data.result_sub_object->relative_heading = result.heading;

  000a1	8b 45 cc	 mov	 eax, DWORD PTR _search_data$[ebp+4]
  000a4	f3 0f 10 45 bc	 movss	 xmm0, DWORD PTR _result$[ebp+12]
  000a9	f3 0f 11 40 18	 movss	 DWORD PTR [eax+24], xmm0

; 1166 : 		search_data.result_sub_object->relative_pitch = result.pitch;

  000ae	8b 45 cc	 mov	 eax, DWORD PTR _search_data$[ebp+4]
  000b1	f3 0f 10 45 c0	 movss	 xmm0, DWORD PTR _result$[ebp+16]
  000b6	f3 0f 11 40 1c	 movss	 DWORD PTR [eax+28], xmm0

; 1167 : 		search_data.result_sub_object->relative_roll = result.roll;

  000bb	8b 45 cc	 mov	 eax, DWORD PTR _search_data$[ebp+4]
  000be	f3 0f 10 45 c4	 movss	 xmm0, DWORD PTR _result$[ebp+20]
  000c3	f3 0f 11 40 20	 movss	 DWORD PTR [eax+32], xmm0
$LN2@set_pilot_:

; 1168 : 	}
; 1169 : 
; 1170 : 	//
; 1171 : 	// forearm
; 1172 : 	//
; 1173 : 
; 1174 : 	search_data.search_depth = 0;

  000c8	c7 45 d0 00 00
	00 00		 mov	 DWORD PTR _search_data$[ebp+8], 0

; 1175 : 	search_data.search_object = virtual_cockpit_inst3d;

  000cf	a1 00 00 00 00	 mov	 eax, DWORD PTR ?virtual_cockpit_inst3d@@3PAUOBJECT_3D_INSTANCE@@A ; virtual_cockpit_inst3d
  000d4	89 45 c8	 mov	 DWORD PTR _search_data$[ebp], eax

; 1176 : 	search_data.sub_object_index = OBJECT_3D_SUB_OBJECT_PILOT_R_FOREARM;

  000d7	c7 45 d4 bb 00
	00 00		 mov	 DWORD PTR _search_data$[ebp+12], 187 ; 000000bbH

; 1177 : 
; 1178 : 	if (find_object_3d_sub_object (&search_data) == SUB_OBJECT_SEARCH_RESULT_OBJECT_FOUND)

  000de	8d 45 c8	 lea	 eax, DWORD PTR _search_data$[ebp]
  000e1	50		 push	 eax
  000e2	e8 00 00 00 00	 call	 ?find_object_3d_sub_object@@YG?AW4SUB_OBJECT_SEARCH_RESULT_TYPES@@PAUOBJECT_3D_SUB_OBJECT_SEARCH_DATA@@@Z ; find_object_3d_sub_object
  000e7	83 f8 01	 cmp	 eax, 1
  000ea	75 74		 jne	 SHORT $LN3@set_pilot_

; 1179 : 	{
; 1180 : 		interpolate_motion_values (x, y, right_arm_forearm_motion, NUM_RIGHT_ARM_X_FRAMES, &result);

  000ec	8d 45 b0	 lea	 eax, DWORD PTR _result$[ebp]
  000ef	50		 push	 eax
  000f0	6a 11		 push	 17			; 00000011H
  000f2	68 00 00 00 00	 push	 OFFSET ?right_arm_forearm_motion@@3PAUMOTION_DATA@@A
  000f7	51		 push	 ecx
  000f8	f3 0f 10 45 0c	 movss	 xmm0, DWORD PTR _y$[ebp]
  000fd	f3 0f 11 04 24	 movss	 DWORD PTR [esp], xmm0
  00102	51		 push	 ecx
  00103	f3 0f 10 45 08	 movss	 xmm0, DWORD PTR _x$[ebp]
  00108	f3 0f 11 04 24	 movss	 DWORD PTR [esp], xmm0
  0010d	e8 00 00 00 00	 call	 ?interpolate_motion_values@@YGXMMPAUMOTION_DATA@@H0@Z ; interpolate_motion_values

; 1181 : 
; 1182 : 		search_data.result_sub_object->relative_position.x = result.x;

  00112	8b 45 cc	 mov	 eax, DWORD PTR _search_data$[ebp+4]
  00115	f3 0f 10 45 b0	 movss	 xmm0, DWORD PTR _result$[ebp]
  0011a	f3 0f 11 40 0c	 movss	 DWORD PTR [eax+12], xmm0

; 1183 : 		search_data.result_sub_object->relative_position.y = result.y;

  0011f	8b 45 cc	 mov	 eax, DWORD PTR _search_data$[ebp+4]
  00122	f3 0f 10 45 b4	 movss	 xmm0, DWORD PTR _result$[ebp+4]
  00127	f3 0f 11 40 10	 movss	 DWORD PTR [eax+16], xmm0

; 1184 : 		search_data.result_sub_object->relative_position.z = result.z;

  0012c	8b 45 cc	 mov	 eax, DWORD PTR _search_data$[ebp+4]
  0012f	f3 0f 10 45 b8	 movss	 xmm0, DWORD PTR _result$[ebp+8]
  00134	f3 0f 11 40 14	 movss	 DWORD PTR [eax+20], xmm0

; 1185 : 
; 1186 : 		search_data.result_sub_object->relative_heading = result.heading;

  00139	8b 45 cc	 mov	 eax, DWORD PTR _search_data$[ebp+4]
  0013c	f3 0f 10 45 bc	 movss	 xmm0, DWORD PTR _result$[ebp+12]
  00141	f3 0f 11 40 18	 movss	 DWORD PTR [eax+24], xmm0

; 1187 : 		search_data.result_sub_object->relative_pitch = result.pitch;

  00146	8b 45 cc	 mov	 eax, DWORD PTR _search_data$[ebp+4]
  00149	f3 0f 10 45 c0	 movss	 xmm0, DWORD PTR _result$[ebp+16]
  0014e	f3 0f 11 40 1c	 movss	 DWORD PTR [eax+28], xmm0

; 1188 : 		search_data.result_sub_object->relative_roll = result.roll;

  00153	8b 45 cc	 mov	 eax, DWORD PTR _search_data$[ebp+4]
  00156	f3 0f 10 45 c4	 movss	 xmm0, DWORD PTR _result$[ebp+20]
  0015b	f3 0f 11 40 20	 movss	 DWORD PTR [eax+32], xmm0
$LN3@set_pilot_:

; 1189 : 	}
; 1190 : 
; 1191 : 	//
; 1192 : 	// shoulder
; 1193 : 	//
; 1194 : 
; 1195 : 	search_data.search_depth = 0;

  00160	c7 45 d0 00 00
	00 00		 mov	 DWORD PTR _search_data$[ebp+8], 0

; 1196 : 	search_data.search_object = virtual_cockpit_inst3d;

  00167	a1 00 00 00 00	 mov	 eax, DWORD PTR ?virtual_cockpit_inst3d@@3PAUOBJECT_3D_INSTANCE@@A ; virtual_cockpit_inst3d
  0016c	89 45 c8	 mov	 DWORD PTR _search_data$[ebp], eax

; 1197 : 	search_data.sub_object_index = OBJECT_3D_SUB_OBJECT_PILOT_R_SHOULDER;

  0016f	c7 45 d4 b5 00
	00 00		 mov	 DWORD PTR _search_data$[ebp+12], 181 ; 000000b5H

; 1198 : 
; 1199 : 	if (find_object_3d_sub_object (&search_data) == SUB_OBJECT_SEARCH_RESULT_OBJECT_FOUND)

  00176	8d 45 c8	 lea	 eax, DWORD PTR _search_data$[ebp]
  00179	50		 push	 eax
  0017a	e8 00 00 00 00	 call	 ?find_object_3d_sub_object@@YG?AW4SUB_OBJECT_SEARCH_RESULT_TYPES@@PAUOBJECT_3D_SUB_OBJECT_SEARCH_DATA@@@Z ; find_object_3d_sub_object
  0017f	83 f8 01	 cmp	 eax, 1
  00182	75 74		 jne	 SHORT $LN4@set_pilot_

; 1200 : 	{
; 1201 : 		interpolate_motion_values (x, y, right_arm_shoulder_motion, NUM_RIGHT_ARM_X_FRAMES, &result);

  00184	8d 45 b0	 lea	 eax, DWORD PTR _result$[ebp]
  00187	50		 push	 eax
  00188	6a 11		 push	 17			; 00000011H
  0018a	68 00 00 00 00	 push	 OFFSET ?right_arm_shoulder_motion@@3PAUMOTION_DATA@@A
  0018f	51		 push	 ecx
  00190	f3 0f 10 45 0c	 movss	 xmm0, DWORD PTR _y$[ebp]
  00195	f3 0f 11 04 24	 movss	 DWORD PTR [esp], xmm0
  0019a	51		 push	 ecx
  0019b	f3 0f 10 45 08	 movss	 xmm0, DWORD PTR _x$[ebp]
  001a0	f3 0f 11 04 24	 movss	 DWORD PTR [esp], xmm0
  001a5	e8 00 00 00 00	 call	 ?interpolate_motion_values@@YGXMMPAUMOTION_DATA@@H0@Z ; interpolate_motion_values

; 1202 : 
; 1203 : 		search_data.result_sub_object->relative_position.x = result.x;

  001aa	8b 45 cc	 mov	 eax, DWORD PTR _search_data$[ebp+4]
  001ad	f3 0f 10 45 b0	 movss	 xmm0, DWORD PTR _result$[ebp]
  001b2	f3 0f 11 40 0c	 movss	 DWORD PTR [eax+12], xmm0

; 1204 : 		search_data.result_sub_object->relative_position.y = result.y;

  001b7	8b 45 cc	 mov	 eax, DWORD PTR _search_data$[ebp+4]
  001ba	f3 0f 10 45 b4	 movss	 xmm0, DWORD PTR _result$[ebp+4]
  001bf	f3 0f 11 40 10	 movss	 DWORD PTR [eax+16], xmm0

; 1205 : 		search_data.result_sub_object->relative_position.z = result.z;

  001c4	8b 45 cc	 mov	 eax, DWORD PTR _search_data$[ebp+4]
  001c7	f3 0f 10 45 b8	 movss	 xmm0, DWORD PTR _result$[ebp+8]
  001cc	f3 0f 11 40 14	 movss	 DWORD PTR [eax+20], xmm0

; 1206 : 
; 1207 : 		search_data.result_sub_object->relative_heading = result.heading;

  001d1	8b 45 cc	 mov	 eax, DWORD PTR _search_data$[ebp+4]
  001d4	f3 0f 10 45 bc	 movss	 xmm0, DWORD PTR _result$[ebp+12]
  001d9	f3 0f 11 40 18	 movss	 DWORD PTR [eax+24], xmm0

; 1208 : 		search_data.result_sub_object->relative_pitch = result.pitch;

  001de	8b 45 cc	 mov	 eax, DWORD PTR _search_data$[ebp+4]
  001e1	f3 0f 10 45 c0	 movss	 xmm0, DWORD PTR _result$[ebp+16]
  001e6	f3 0f 11 40 1c	 movss	 DWORD PTR [eax+28], xmm0

; 1209 : 		search_data.result_sub_object->relative_roll = result.roll;

  001eb	8b 45 cc	 mov	 eax, DWORD PTR _search_data$[ebp+4]
  001ee	f3 0f 10 45 c4	 movss	 xmm0, DWORD PTR _result$[ebp+20]
  001f3	f3 0f 11 40 20	 movss	 DWORD PTR [eax+32], xmm0
$LN4@set_pilot_:

; 1210 : 	}
; 1211 : }

  001f8	5f		 pop	 edi
  001f9	5e		 pop	 esi
  001fa	5b		 pop	 ebx
  001fb	8b e5		 mov	 esp, ebp
  001fd	5d		 pop	 ebp
  001fe	c2 08 00	 ret	 8
?set_pilot_right_arm_and_cyclic_position@@YGXMM@Z ENDP	; set_pilot_right_arm_and_cyclic_position
_TEXT	ENDS
; Function compile flags: /Odtp /ZI
; File c:\users\nhv90\projects\eech\aphavoc\source\gunships\cockpits\ka50\hm_pilot.c
;	COMDAT ?get_pilot_cyclic_position@@YGXPAM0@Z
_TEXT	SEGMENT
tv145 = -80						; size = 8
tv92 = -80						; size = 8
tv146 = -72						; size = 8
tv93 = -72						; size = 8
_x$ = 8							; size = 4
_y$ = 12						; size = 4
?get_pilot_cyclic_position@@YGXPAM0@Z PROC		; get_pilot_cyclic_position, COMDAT

; 1099 : {

  00000	55		 push	 ebp
  00001	8b ec		 mov	 ebp, esp
  00003	83 ec 50	 sub	 esp, 80			; 00000050H
  00006	53		 push	 ebx
  00007	56		 push	 esi
  00008	57		 push	 edi

; 1100 : 	ASSERT (x);

  00009	83 7d 08 00	 cmp	 DWORD PTR _x$[ebp], 0
  0000d	75 18		 jne	 SHORT $LN2@get_pilot_
  0000f	a1 00 00 00 00	 mov	 eax, DWORD PTR ?__LINE__Var@?0??get_pilot_cyclic_position@@YGXPAM0@Z@4JA
  00014	83 c0 01	 add	 eax, 1
  00017	50		 push	 eax
  00018	68 00 00 00 00	 push	 OFFSET ??_C@_0EO@MOFNGMIK@c?3?2users?2nhv90?2projects?2eech?2ap@
  0001d	68 00 00 00 00	 push	 OFFSET ??_C@_01FJMABOPO@x@
  00022	e8 00 00 00 00	 call	 ?process_assert@@YGXPBD0H@Z ; process_assert
$LN2@get_pilot_:

; 1101 : 
; 1102 : 	ASSERT (y);

  00027	83 7d 0c 00	 cmp	 DWORD PTR _y$[ebp], 0
  0002b	75 18		 jne	 SHORT $LN3@get_pilot_
  0002d	a1 00 00 00 00	 mov	 eax, DWORD PTR ?__LINE__Var@?0??get_pilot_cyclic_position@@YGXPAM0@Z@4JA
  00032	83 c0 03	 add	 eax, 3
  00035	50		 push	 eax
  00036	68 00 00 00 00	 push	 OFFSET ??_C@_0EO@MOFNGMIK@c?3?2users?2nhv90?2projects?2eech?2ap@
  0003b	68 00 00 00 00	 push	 OFFSET ??_C@_01EANLCPLP@y@
  00040	e8 00 00 00 00	 call	 ?process_assert@@YGXPBD0H@Z ; process_assert
$LN3@get_pilot_:

; 1103 : 
; 1104 : 	//
; 1105 : 	// assume cyclic_x.min = -cyclic_x.max
; 1106 : 	//
; 1107 : 
; 1108 : 	*x = current_flight_dynamics->input_data.cyclic_x.value;

  00045	8b 45 08	 mov	 eax, DWORD PTR _x$[ebp]
  00048	8b 0d 00 00 00
	00		 mov	 ecx, DWORD PTR ?current_flight_dynamics@@3PAUDYNAMICS_TYPE@@A ; current_flight_dynamics
  0004e	8b 91 f8 00 00
	00		 mov	 edx, DWORD PTR [ecx+248]
  00054	89 10		 mov	 DWORD PTR [eax], edx

; 1109 : 
; 1110 : 	*x /= current_flight_dynamics->input_data.cyclic_x.max;

  00056	8b 45 08	 mov	 eax, DWORD PTR _x$[ebp]
  00059	8b 0d 00 00 00
	00		 mov	 ecx, DWORD PTR ?current_flight_dynamics@@3PAUDYNAMICS_TYPE@@A ; current_flight_dynamics
  0005f	f3 0f 10 00	 movss	 xmm0, DWORD PTR [eax]
  00063	f3 0f 5e 81 04
	01 00 00	 divss	 xmm0, DWORD PTR [ecx+260]
  0006b	8b 55 08	 mov	 edx, DWORD PTR _x$[ebp]
  0006e	f3 0f 11 02	 movss	 DWORD PTR [edx], xmm0

; 1111 : 
; 1112 : 	*x *= 0.5;

  00072	8b 45 08	 mov	 eax, DWORD PTR _x$[ebp]
  00075	f3 0f 5a 00	 cvtss2sd xmm0, DWORD PTR [eax]
  00079	f2 0f 59 05 00
	00 00 00	 mulsd	 xmm0, QWORD PTR __real@3fe0000000000000
  00081	f2 0f 5a c0	 cvtsd2ss xmm0, xmm0
  00085	8b 4d 08	 mov	 ecx, DWORD PTR _x$[ebp]
  00088	f3 0f 11 01	 movss	 DWORD PTR [ecx], xmm0

; 1113 : 
; 1114 : 	*x += 0.5;

  0008c	8b 45 08	 mov	 eax, DWORD PTR _x$[ebp]
  0008f	f3 0f 5a 00	 cvtss2sd xmm0, DWORD PTR [eax]
  00093	f2 0f 58 05 00
	00 00 00	 addsd	 xmm0, QWORD PTR __real@3fe0000000000000
  0009b	f2 0f 5a c0	 cvtsd2ss xmm0, xmm0
  0009f	8b 4d 08	 mov	 ecx, DWORD PTR _x$[ebp]
  000a2	f3 0f 11 01	 movss	 DWORD PTR [ecx], xmm0

; 1115 : 
; 1116 : 	*x = bound (*x, 0.0, 0.999);

  000a6	8b 45 08	 mov	 eax, DWORD PTR _x$[ebp]
  000a9	f3 0f 5a 00	 cvtss2sd xmm0, DWORD PTR [eax]
  000ad	0f 57 c9	 xorps	 xmm1, xmm1
  000b0	66 0f 2f c8	 comisd	 xmm1, xmm0
  000b4	76 0a		 jbe	 SHORT $LN7@get_pilot_
  000b6	0f 57 c0	 xorps	 xmm0, xmm0
  000b9	f2 0f 11 45 b8	 movsd	 QWORD PTR tv93[ebp], xmm0
  000be	eb 36		 jmp	 SHORT $LN8@get_pilot_
$LN7@get_pilot_:
  000c0	8b 4d 08	 mov	 ecx, DWORD PTR _x$[ebp]
  000c3	f3 0f 5a 01	 cvtss2sd xmm0, DWORD PTR [ecx]
  000c7	66 0f 2f 05 00
	00 00 00	 comisd	 xmm0, QWORD PTR __real@3feff7ced916872b
  000cf	76 0f		 jbe	 SHORT $LN5@get_pilot_
  000d1	f2 0f 10 05 00
	00 00 00	 movsd	 xmm0, QWORD PTR __real@3feff7ced916872b
  000d9	f2 0f 11 45 b0	 movsd	 QWORD PTR tv92[ebp], xmm0
  000de	eb 0c		 jmp	 SHORT $LN6@get_pilot_
$LN5@get_pilot_:
  000e0	8b 55 08	 mov	 edx, DWORD PTR _x$[ebp]
  000e3	f3 0f 5a 02	 cvtss2sd xmm0, DWORD PTR [edx]
  000e7	f2 0f 11 45 b0	 movsd	 QWORD PTR tv92[ebp], xmm0
$LN6@get_pilot_:
  000ec	f2 0f 10 45 b0	 movsd	 xmm0, QWORD PTR tv92[ebp]
  000f1	f2 0f 11 45 b8	 movsd	 QWORD PTR tv93[ebp], xmm0
$LN8@get_pilot_:
  000f6	f2 0f 5a 45 b8	 cvtsd2ss xmm0, QWORD PTR tv93[ebp]
  000fb	8b 45 08	 mov	 eax, DWORD PTR _x$[ebp]
  000fe	f3 0f 11 00	 movss	 DWORD PTR [eax], xmm0

; 1117 : 
; 1118 : 	//
; 1119 : 	// assume cyclic_y.min = -cyclic_y.max
; 1120 : 	//
; 1121 : 
; 1122 : 	*y = current_flight_dynamics->input_data.cyclic_y.value;

  00102	8b 45 0c	 mov	 eax, DWORD PTR _y$[ebp]
  00105	8b 0d 00 00 00
	00		 mov	 ecx, DWORD PTR ?current_flight_dynamics@@3PAUDYNAMICS_TYPE@@A ; current_flight_dynamics
  0010b	8b 91 10 01 00
	00		 mov	 edx, DWORD PTR [ecx+272]
  00111	89 10		 mov	 DWORD PTR [eax], edx

; 1123 : 
; 1124 : 	*y /= current_flight_dynamics->input_data.cyclic_y.max;

  00113	8b 45 0c	 mov	 eax, DWORD PTR _y$[ebp]
  00116	8b 0d 00 00 00
	00		 mov	 ecx, DWORD PTR ?current_flight_dynamics@@3PAUDYNAMICS_TYPE@@A ; current_flight_dynamics
  0011c	f3 0f 10 00	 movss	 xmm0, DWORD PTR [eax]
  00120	f3 0f 5e 81 1c
	01 00 00	 divss	 xmm0, DWORD PTR [ecx+284]
  00128	8b 55 0c	 mov	 edx, DWORD PTR _y$[ebp]
  0012b	f3 0f 11 02	 movss	 DWORD PTR [edx], xmm0

; 1125 : 
; 1126 : 	*y *= 0.5;

  0012f	8b 45 0c	 mov	 eax, DWORD PTR _y$[ebp]
  00132	f3 0f 5a 00	 cvtss2sd xmm0, DWORD PTR [eax]
  00136	f2 0f 59 05 00
	00 00 00	 mulsd	 xmm0, QWORD PTR __real@3fe0000000000000
  0013e	f2 0f 5a c0	 cvtsd2ss xmm0, xmm0
  00142	8b 4d 0c	 mov	 ecx, DWORD PTR _y$[ebp]
  00145	f3 0f 11 01	 movss	 DWORD PTR [ecx], xmm0

; 1127 : 
; 1128 : 	*y += 0.5;

  00149	8b 45 0c	 mov	 eax, DWORD PTR _y$[ebp]
  0014c	f3 0f 5a 00	 cvtss2sd xmm0, DWORD PTR [eax]
  00150	f2 0f 58 05 00
	00 00 00	 addsd	 xmm0, QWORD PTR __real@3fe0000000000000
  00158	f2 0f 5a c0	 cvtsd2ss xmm0, xmm0
  0015c	8b 4d 0c	 mov	 ecx, DWORD PTR _y$[ebp]
  0015f	f3 0f 11 01	 movss	 DWORD PTR [ecx], xmm0

; 1129 : 
; 1130 : 	*y = bound (*y, 0.0, 0.999);

  00163	8b 45 0c	 mov	 eax, DWORD PTR _y$[ebp]
  00166	f3 0f 5a 00	 cvtss2sd xmm0, DWORD PTR [eax]
  0016a	0f 57 c9	 xorps	 xmm1, xmm1
  0016d	66 0f 2f c8	 comisd	 xmm1, xmm0
  00171	76 0a		 jbe	 SHORT $LN11@get_pilot_
  00173	0f 57 c0	 xorps	 xmm0, xmm0
  00176	f2 0f 11 45 b8	 movsd	 QWORD PTR tv146[ebp], xmm0
  0017b	eb 36		 jmp	 SHORT $LN12@get_pilot_
$LN11@get_pilot_:
  0017d	8b 4d 0c	 mov	 ecx, DWORD PTR _y$[ebp]
  00180	f3 0f 5a 01	 cvtss2sd xmm0, DWORD PTR [ecx]
  00184	66 0f 2f 05 00
	00 00 00	 comisd	 xmm0, QWORD PTR __real@3feff7ced916872b
  0018c	76 0f		 jbe	 SHORT $LN9@get_pilot_
  0018e	f2 0f 10 05 00
	00 00 00	 movsd	 xmm0, QWORD PTR __real@3feff7ced916872b
  00196	f2 0f 11 45 b0	 movsd	 QWORD PTR tv145[ebp], xmm0
  0019b	eb 0c		 jmp	 SHORT $LN10@get_pilot_
$LN9@get_pilot_:
  0019d	8b 55 0c	 mov	 edx, DWORD PTR _y$[ebp]
  001a0	f3 0f 5a 02	 cvtss2sd xmm0, DWORD PTR [edx]
  001a4	f2 0f 11 45 b0	 movsd	 QWORD PTR tv145[ebp], xmm0
$LN10@get_pilot_:
  001a9	f2 0f 10 45 b0	 movsd	 xmm0, QWORD PTR tv145[ebp]
  001ae	f2 0f 11 45 b8	 movsd	 QWORD PTR tv146[ebp], xmm0
$LN12@get_pilot_:
  001b3	f2 0f 5a 45 b8	 cvtsd2ss xmm0, QWORD PTR tv146[ebp]
  001b8	8b 45 0c	 mov	 eax, DWORD PTR _y$[ebp]
  001bb	f3 0f 11 00	 movss	 DWORD PTR [eax], xmm0

; 1131 : }

  001bf	5f		 pop	 edi
  001c0	5e		 pop	 esi
  001c1	5b		 pop	 ebx
  001c2	8b e5		 mov	 esp, ebp
  001c4	5d		 pop	 ebp
  001c5	c2 08 00	 ret	 8
?get_pilot_cyclic_position@@YGXPAM0@Z ENDP		; get_pilot_cyclic_position
_TEXT	ENDS
; Function compile flags: /Odtp /ZI
; File c:\users\nhv90\projects\eech\aphavoc\source\gunships\cockpits\ka50\hm_pilot.c
;	COMDAT ?set_pilot_static_right_hand_on_cyclic_visibility@@YGXH@Z
_TEXT	SEGMENT
tv69 = -124						; size = 4
_search_data$ = -56					; size = 56
_visible$ = 8						; size = 4
?set_pilot_static_right_hand_on_cyclic_visibility@@YGXH@Z PROC ; set_pilot_static_right_hand_on_cyclic_visibility, COMDAT

; 1071 : {

  00000	55		 push	 ebp
  00001	8b ec		 mov	 ebp, esp
  00003	83 ec 7c	 sub	 esp, 124		; 0000007cH
  00006	53		 push	 ebx
  00007	56		 push	 esi
  00008	57		 push	 edi

; 1072 : 	object_3d_sub_object_search_data
; 1073 : 		search_data;
; 1074 : 
; 1075 : 	search_data.search_depth = 0;

  00009	c7 45 d0 00 00
	00 00		 mov	 DWORD PTR _search_data$[ebp+8], 0

; 1076 : 	search_data.search_object = virtual_cockpit_inst3d;

  00010	a1 00 00 00 00	 mov	 eax, DWORD PTR ?virtual_cockpit_inst3d@@3PAUOBJECT_3D_INSTANCE@@A ; virtual_cockpit_inst3d
  00015	89 45 c8	 mov	 DWORD PTR _search_data$[ebp], eax

; 1077 : 	search_data.sub_object_index = OBJECT_3D_SUB_OBJECT_PILOT_R_HAND;

  00018	c7 45 d4 bc 00
	00 00		 mov	 DWORD PTR _search_data$[ebp+12], 188 ; 000000bcH

; 1078 : 
; 1079 : 	if (find_object_3d_sub_object (&search_data) == SUB_OBJECT_SEARCH_RESULT_OBJECT_FOUND)

  0001f	8d 45 c8	 lea	 eax, DWORD PTR _search_data$[ebp]
  00022	50		 push	 eax
  00023	e8 00 00 00 00	 call	 ?find_object_3d_sub_object@@YG?AW4SUB_OBJECT_SEARCH_RESULT_TYPES@@PAUOBJECT_3D_SUB_OBJECT_SEARCH_DATA@@@Z ; find_object_3d_sub_object
  00028	83 f8 01	 cmp	 eax, 1
  0002b	75 2d		 jne	 SHORT $LN2@set_pilot_

; 1080 : 	{
; 1081 : 		search_data.result_sub_object->visible_object = !visible;

  0002d	83 7d 08 00	 cmp	 DWORD PTR _visible$[ebp], 0
  00031	75 09		 jne	 SHORT $LN5@set_pilot_
  00033	c7 45 84 01 00
	00 00		 mov	 DWORD PTR tv69[ebp], 1
  0003a	eb 07		 jmp	 SHORT $LN6@set_pilot_
$LN5@set_pilot_:
  0003c	c7 45 84 00 00
	00 00		 mov	 DWORD PTR tv69[ebp], 0
$LN6@set_pilot_:
  00043	8b 45 84	 mov	 eax, DWORD PTR tv69[ebp]
  00046	83 e0 01	 and	 eax, 1
  00049	8b 4d cc	 mov	 ecx, DWORD PTR _search_data$[ebp+4]
  0004c	8b 51 08	 mov	 edx, DWORD PTR [ecx+8]
  0004f	83 e2 fe	 and	 edx, -2			; fffffffeH
  00052	0b d0		 or	 edx, eax
  00054	8b 45 cc	 mov	 eax, DWORD PTR _search_data$[ebp+4]
  00057	89 50 08	 mov	 DWORD PTR [eax+8], edx
$LN2@set_pilot_:

; 1082 : 	}
; 1083 : 
; 1084 : 	search_data.search_depth = 0;

  0005a	c7 45 d0 00 00
	00 00		 mov	 DWORD PTR _search_data$[ebp+8], 0

; 1085 : 	search_data.search_object = virtual_cockpit_inst3d;

  00061	a1 00 00 00 00	 mov	 eax, DWORD PTR ?virtual_cockpit_inst3d@@3PAUOBJECT_3D_INSTANCE@@A ; virtual_cockpit_inst3d
  00066	89 45 c8	 mov	 DWORD PTR _search_data$[ebp], eax

; 1086 : 	search_data.sub_object_index = OBJECT_3D_SUB_OBJECT_COCKPIT_PILOT_HAND_STATIC;

  00069	c7 45 d4 9e 00
	00 00		 mov	 DWORD PTR _search_data$[ebp+12], 158 ; 0000009eH

; 1087 : 
; 1088 : 	if (find_object_3d_sub_object (&search_data) == SUB_OBJECT_SEARCH_RESULT_OBJECT_FOUND)

  00070	8d 45 c8	 lea	 eax, DWORD PTR _search_data$[ebp]
  00073	50		 push	 eax
  00074	e8 00 00 00 00	 call	 ?find_object_3d_sub_object@@YG?AW4SUB_OBJECT_SEARCH_RESULT_TYPES@@PAUOBJECT_3D_SUB_OBJECT_SEARCH_DATA@@@Z ; find_object_3d_sub_object
  00079	83 f8 01	 cmp	 eax, 1
  0007c	75 17		 jne	 SHORT $LN1@set_pilot_

; 1089 : 	{
; 1090 : 		search_data.result_sub_object->visible_object = visible;

  0007e	8b 45 08	 mov	 eax, DWORD PTR _visible$[ebp]
  00081	83 e0 01	 and	 eax, 1
  00084	8b 4d cc	 mov	 ecx, DWORD PTR _search_data$[ebp+4]
  00087	8b 51 08	 mov	 edx, DWORD PTR [ecx+8]
  0008a	83 e2 fe	 and	 edx, -2			; fffffffeH
  0008d	0b d0		 or	 edx, eax
  0008f	8b 45 cc	 mov	 eax, DWORD PTR _search_data$[ebp+4]
  00092	89 50 08	 mov	 DWORD PTR [eax+8], edx
$LN1@set_pilot_:

; 1091 : 	}
; 1092 : }

  00095	5f		 pop	 edi
  00096	5e		 pop	 esi
  00097	5b		 pop	 ebx
  00098	8b e5		 mov	 esp, ebp
  0009a	5d		 pop	 ebp
  0009b	c2 04 00	 ret	 4
?set_pilot_static_right_hand_on_cyclic_visibility@@YGXH@Z ENDP ; set_pilot_static_right_hand_on_cyclic_visibility
_TEXT	ENDS
; Function compile flags: /Odtp /ZI
; File c:\users\nhv90\projects\eech\aphavoc\source\gunships\cockpits\ka50\hm_pilot.c
;	COMDAT ?deinitialise_pilot_right_arm_and_cyclic_animation@@YGXXZ
_TEXT	SEGMENT
?deinitialise_pilot_right_arm_and_cyclic_animation@@YGXXZ PROC ; deinitialise_pilot_right_arm_and_cyclic_animation, COMDAT

; 1063 : {

  00000	55		 push	 ebp
  00001	8b ec		 mov	 ebp, esp
  00003	83 ec 40	 sub	 esp, 64			; 00000040H
  00006	53		 push	 ebx
  00007	56		 push	 esi
  00008	57		 push	 edi

; 1064 : }

  00009	5f		 pop	 edi
  0000a	5e		 pop	 esi
  0000b	5b		 pop	 ebx
  0000c	8b e5		 mov	 esp, ebp
  0000e	5d		 pop	 ebp
  0000f	c3		 ret	 0
?deinitialise_pilot_right_arm_and_cyclic_animation@@YGXXZ ENDP ; deinitialise_pilot_right_arm_and_cyclic_animation
_TEXT	ENDS
; Function compile flags: /Odtp /ZI
; File c:\users\nhv90\projects\eech\aphavoc\source\gunships\cockpits\ka50\hm_pilot.c
;	COMDAT ?initialise_pilot_right_arm_and_cyclic_animation@@YGXXZ
_TEXT	SEGMENT
?initialise_pilot_right_arm_and_cyclic_animation@@YGXXZ PROC ; initialise_pilot_right_arm_and_cyclic_animation, COMDAT

; 1050 : {

  00000	55		 push	 ebp
  00001	8b ec		 mov	 ebp, esp
  00003	83 ec 40	 sub	 esp, 64			; 00000040H
  00006	53		 push	 ebx
  00007	56		 push	 esi
  00008	57		 push	 edi

; 1051 : 	read_motion_values ("GRAPHICS\\COCKPITS\\HOKUM\\JOYSTICK.MOT", NUM_RIGHT_ARM_FRAMES, right_arm_joystick_motion);

  00009	68 00 00 00 00	 push	 OFFSET ?right_arm_joystick_motion@@3PAUMOTION_DATA@@A
  0000e	68 21 01 00 00	 push	 289			; 00000121H
  00013	68 00 00 00 00	 push	 OFFSET ??_C@_0CF@NBHNDOKH@GRAPHICS?2COCKPITS?2HOKUM?2JOYSTIC@
  00018	e8 00 00 00 00	 call	 ?read_motion_values@@YGXPBDHPAUMOTION_DATA@@@Z ; read_motion_values

; 1052 : 
; 1053 : 	read_motion_values ("GRAPHICS\\COCKPITS\\HOKUM\\FOREARM.MOT", NUM_RIGHT_ARM_FRAMES, right_arm_forearm_motion);

  0001d	68 00 00 00 00	 push	 OFFSET ?right_arm_forearm_motion@@3PAUMOTION_DATA@@A
  00022	68 21 01 00 00	 push	 289			; 00000121H
  00027	68 00 00 00 00	 push	 OFFSET ??_C@_0CE@DBBEGHOL@GRAPHICS?2COCKPITS?2HOKUM?2FOREARM@
  0002c	e8 00 00 00 00	 call	 ?read_motion_values@@YGXPBDHPAUMOTION_DATA@@@Z ; read_motion_values

; 1054 : 
; 1055 : 	read_motion_values ("GRAPHICS\\COCKPITS\\HOKUM\\SHOULDER.MOT", NUM_RIGHT_ARM_FRAMES, right_arm_shoulder_motion);

  00031	68 00 00 00 00	 push	 OFFSET ?right_arm_shoulder_motion@@3PAUMOTION_DATA@@A
  00036	68 21 01 00 00	 push	 289			; 00000121H
  0003b	68 00 00 00 00	 push	 OFFSET ??_C@_0CF@BGDOJGAE@GRAPHICS?2COCKPITS?2HOKUM?2SHOULDE@
  00040	e8 00 00 00 00	 call	 ?read_motion_values@@YGXPBDHPAUMOTION_DATA@@@Z ; read_motion_values

; 1056 : }

  00045	5f		 pop	 edi
  00046	5e		 pop	 esi
  00047	5b		 pop	 ebx
  00048	8b e5		 mov	 esp, ebp
  0004a	5d		 pop	 ebp
  0004b	c3		 ret	 0
?initialise_pilot_right_arm_and_cyclic_animation@@YGXXZ ENDP ; initialise_pilot_right_arm_and_cyclic_animation
_TEXT	ENDS
; Function compile flags: /Odtp /ZI
; File c:\users\nhv90\projects\eech\aphavoc\source\gunships\cockpits\ka50\hm_pilot.c
;	COMDAT ?update_pilot_collective_from_centre1@@YGXXZ
_TEXT	SEGMENT
_anim_data$ = -4					; size = 4
?update_pilot_collective_from_centre1@@YGXXZ PROC	; update_pilot_collective_from_centre1, COMDAT

; 2738 : {

  00000	55		 push	 ebp
  00001	8b ec		 mov	 ebp, esp
  00003	83 ec 44	 sub	 esp, 68			; 00000044H
  00006	53		 push	 ebx
  00007	56		 push	 esi
  00008	57		 push	 edi

; 2739 : 	pilot_anim_data
; 2740 : 		*anim_data;
; 2741 : 
; 2742 : 	if (get_pilot_viewpoint_virtual_cockpit ())

  00009	e8 00 00 00 00	 call	 ?get_pilot_viewpoint_virtual_cockpit@@YGHXZ ; get_pilot_viewpoint_virtual_cockpit
  0000e	85 c0		 test	 eax, eax
  00010	74 11		 je	 SHORT $LN2@update_pil

; 2743 : 	{
; 2744 : 		pilot_main_anim_mode = PILOT_MAIN_ANIM_MODE_HANDS_ON_CONTROLS;

  00012	c7 05 00 00 00
	00 04 00 00 00	 mov	 DWORD PTR ?pilot_main_anim_mode@@3W4PILOT_MAIN_ANIM_MODES@@A, 4

; 2745 : 
; 2746 : 		update_pilot_hands_on_controls ();

  0001c	e8 00 00 00 00	 call	 ?update_pilot_hands_on_controls@@YGXXZ ; update_pilot_hands_on_controls

; 2747 : 
; 2748 : 		return;

  00021	eb 5c		 jmp	 SHORT $LN1@update_pil
$LN2@update_pil:

; 2749 : 	}
; 2750 : 
; 2751 : 	anim_data = &pilot_main_anim_mode_collective_from_centre1_anim_data;

  00023	c7 45 fc 00 00
	00 00		 mov	 DWORD PTR _anim_data$[ebp], OFFSET ?pilot_main_anim_mode_collective_from_centre1_anim_data@@3UPILOT_ANIM_DATA@@A

; 2752 : 
; 2753 : 	anim_data->cyclic_x_position = cyclic_x_position;

  0002a	8b 45 fc	 mov	 eax, DWORD PTR _anim_data$[ebp]
  0002d	f3 0f 10 05 00
	00 00 00	 movss	 xmm0, DWORD PTR ?cyclic_x_position@@3MA
  00035	f3 0f 11 40 08	 movss	 DWORD PTR [eax+8], xmm0

; 2754 : 
; 2755 : 	anim_data->cyclic_y_position = cyclic_y_position;

  0003a	8b 45 fc	 mov	 eax, DWORD PTR _anim_data$[ebp]
  0003d	f3 0f 10 05 00
	00 00 00	 movss	 xmm0, DWORD PTR ?cyclic_y_position@@3MA
  00045	f3 0f 11 40 0c	 movss	 DWORD PTR [eax+12], xmm0

; 2756 : 
; 2757 : 	anim_data->pedal_position = pedal_position;

  0004a	8b 45 fc	 mov	 eax, DWORD PTR _anim_data$[ebp]
  0004d	f3 0f 10 05 00
	00 00 00	 movss	 xmm0, DWORD PTR ?pedal_position@@3MA
  00055	f3 0f 11 40 14	 movss	 DWORD PTR [eax+20], xmm0

; 2758 : 
; 2759 : 	update_pilot_rest_animation (TRUE);

  0005a	6a 01		 push	 1
  0005c	e8 00 00 00 00	 call	 ?update_pilot_rest_animation@@YGXH@Z ; update_pilot_rest_animation

; 2760 : 
; 2761 : 	set_pilot_animation (anim_data, 0.0, FALSE);

  00061	6a 00		 push	 0
  00063	51		 push	 ecx
  00064	0f 57 c0	 xorps	 xmm0, xmm0
  00067	f3 0f 11 04 24	 movss	 DWORD PTR [esp], xmm0
  0006c	8b 45 fc	 mov	 eax, DWORD PTR _anim_data$[ebp]
  0006f	50		 push	 eax
  00070	e8 00 00 00 00	 call	 ?set_pilot_animation@@YGXPAUPILOT_ANIM_DATA@@MH@Z ; set_pilot_animation

; 2762 : 
; 2763 : 	pilot_main_anim_mode = PILOT_MAIN_ANIM_MODE_COLLECTIVE_FROM_CENTRE2;

  00075	c7 05 00 00 00
	00 0c 00 00 00	 mov	 DWORD PTR ?pilot_main_anim_mode@@3W4PILOT_MAIN_ANIM_MODES@@A, 12 ; 0000000cH
$LN1@update_pil:

; 2764 : }

  0007f	5f		 pop	 edi
  00080	5e		 pop	 esi
  00081	5b		 pop	 ebx
  00082	8b e5		 mov	 esp, ebp
  00084	5d		 pop	 ebp
  00085	c3		 ret	 0
?update_pilot_collective_from_centre1@@YGXXZ ENDP	; update_pilot_collective_from_centre1
_TEXT	ENDS
; Function compile flags: /Odtp /ZI
; File c:\users\nhv90\projects\eech\aphavoc\source\gunships\cockpits\ka50\hm_pilot.c
;	COMDAT ?update_pilot_collective_to_centre2@@YGXXZ
_TEXT	SEGMENT
_anim_data$ = -4					; size = 4
?update_pilot_collective_to_centre2@@YGXXZ PROC		; update_pilot_collective_to_centre2, COMDAT

; 2705 : {

  00000	55		 push	 ebp
  00001	8b ec		 mov	 ebp, esp
  00003	83 ec 44	 sub	 esp, 68			; 00000044H
  00006	53		 push	 ebx
  00007	56		 push	 esi
  00008	57		 push	 edi

; 2706 : 	pilot_anim_data
; 2707 : 		*anim_data;
; 2708 : 
; 2709 : 	if (get_pilot_viewpoint_virtual_cockpit ())

  00009	e8 00 00 00 00	 call	 ?get_pilot_viewpoint_virtual_cockpit@@YGHXZ ; get_pilot_viewpoint_virtual_cockpit
  0000e	85 c0		 test	 eax, eax
  00010	74 11		 je	 SHORT $LN2@update_pil

; 2710 : 	{
; 2711 : 		pilot_main_anim_mode = PILOT_MAIN_ANIM_MODE_HANDS_ON_CONTROLS;

  00012	c7 05 00 00 00
	00 04 00 00 00	 mov	 DWORD PTR ?pilot_main_anim_mode@@3W4PILOT_MAIN_ANIM_MODES@@A, 4

; 2712 : 
; 2713 : 		update_pilot_hands_on_controls ();

  0001c	e8 00 00 00 00	 call	 ?update_pilot_hands_on_controls@@YGXXZ ; update_pilot_hands_on_controls

; 2714 : 
; 2715 : 		return;

  00021	eb 5c		 jmp	 SHORT $LN1@update_pil
$LN2@update_pil:

; 2716 : 	}
; 2717 : 
; 2718 : 	anim_data = &pilot_main_anim_mode_collective_to_centre2_anim_data;

  00023	c7 45 fc 00 00
	00 00		 mov	 DWORD PTR _anim_data$[ebp], OFFSET ?pilot_main_anim_mode_collective_to_centre2_anim_data@@3UPILOT_ANIM_DATA@@A

; 2719 : 
; 2720 : 	anim_data->cyclic_x_position = cyclic_x_position;

  0002a	8b 45 fc	 mov	 eax, DWORD PTR _anim_data$[ebp]
  0002d	f3 0f 10 05 00
	00 00 00	 movss	 xmm0, DWORD PTR ?cyclic_x_position@@3MA
  00035	f3 0f 11 40 08	 movss	 DWORD PTR [eax+8], xmm0

; 2721 : 
; 2722 : 	anim_data->cyclic_y_position = cyclic_y_position;

  0003a	8b 45 fc	 mov	 eax, DWORD PTR _anim_data$[ebp]
  0003d	f3 0f 10 05 00
	00 00 00	 movss	 xmm0, DWORD PTR ?cyclic_y_position@@3MA
  00045	f3 0f 11 40 0c	 movss	 DWORD PTR [eax+12], xmm0

; 2723 : 
; 2724 : 	anim_data->pedal_position = pedal_position;

  0004a	8b 45 fc	 mov	 eax, DWORD PTR _anim_data$[ebp]
  0004d	f3 0f 10 05 00
	00 00 00	 movss	 xmm0, DWORD PTR ?pedal_position@@3MA
  00055	f3 0f 11 40 14	 movss	 DWORD PTR [eax+20], xmm0

; 2725 : 
; 2726 : 	update_pilot_rest_animation (TRUE);

  0005a	6a 01		 push	 1
  0005c	e8 00 00 00 00	 call	 ?update_pilot_rest_animation@@YGXH@Z ; update_pilot_rest_animation

; 2727 : 
; 2728 : 	set_pilot_animation (anim_data, 0.0, FALSE);

  00061	6a 00		 push	 0
  00063	51		 push	 ecx
  00064	0f 57 c0	 xorps	 xmm0, xmm0
  00067	f3 0f 11 04 24	 movss	 DWORD PTR [esp], xmm0
  0006c	8b 45 fc	 mov	 eax, DWORD PTR _anim_data$[ebp]
  0006f	50		 push	 eax
  00070	e8 00 00 00 00	 call	 ?set_pilot_animation@@YGXPAUPILOT_ANIM_DATA@@MH@Z ; set_pilot_animation

; 2729 : 
; 2730 : 	pilot_main_anim_mode = PILOT_MAIN_ANIM_MODE_LEFT_HAND_TO_NVG;

  00075	c7 05 00 00 00
	00 08 00 00 00	 mov	 DWORD PTR ?pilot_main_anim_mode@@3W4PILOT_MAIN_ANIM_MODES@@A, 8
$LN1@update_pil:

; 2731 : }

  0007f	5f		 pop	 edi
  00080	5e		 pop	 esi
  00081	5b		 pop	 ebx
  00082	8b e5		 mov	 esp, ebp
  00084	5d		 pop	 ebp
  00085	c3		 ret	 0
?update_pilot_collective_to_centre2@@YGXXZ ENDP		; update_pilot_collective_to_centre2
_TEXT	ENDS
; Function compile flags: /Odtp /ZI
; File c:\users\nhv90\projects\eech\aphavoc\source\gunships\cockpits\ka50\hm_pilot.c
;	COMDAT ?update_pilot_collective_to_centre1@@YGXXZ
_TEXT	SEGMENT
_anim_data$ = -4					; size = 4
?update_pilot_collective_to_centre1@@YGXXZ PROC		; update_pilot_collective_to_centre1, COMDAT

; 2670 : {

  00000	55		 push	 ebp
  00001	8b ec		 mov	 ebp, esp
  00003	83 ec 44	 sub	 esp, 68			; 00000044H
  00006	53		 push	 ebx
  00007	56		 push	 esi
  00008	57		 push	 edi

; 2671 : 	pilot_anim_data
; 2672 : 		*anim_data;
; 2673 : 
; 2674 : 	if (get_pilot_viewpoint_virtual_cockpit ())

  00009	e8 00 00 00 00	 call	 ?get_pilot_viewpoint_virtual_cockpit@@YGHXZ ; get_pilot_viewpoint_virtual_cockpit
  0000e	85 c0		 test	 eax, eax
  00010	74 14		 je	 SHORT $LN2@update_pil

; 2675 : 	{
; 2676 : 		pilot_main_anim_mode = PILOT_MAIN_ANIM_MODE_HANDS_ON_CONTROLS;

  00012	c7 05 00 00 00
	00 04 00 00 00	 mov	 DWORD PTR ?pilot_main_anim_mode@@3W4PILOT_MAIN_ANIM_MODES@@A, 4

; 2677 : 
; 2678 : 		update_pilot_hands_on_controls ();

  0001c	e8 00 00 00 00	 call	 ?update_pilot_hands_on_controls@@YGXXZ ; update_pilot_hands_on_controls

; 2679 : 
; 2680 : 		return;

  00021	e9 8c 00 00 00	 jmp	 $LN1@update_pil
$LN2@update_pil:

; 2681 : 	}
; 2682 : 
; 2683 : 	anim_data = &pilot_main_anim_mode_collective_to_centre1_anim_data;

  00026	c7 45 fc 00 00
	00 00		 mov	 DWORD PTR _anim_data$[ebp], OFFSET ?pilot_main_anim_mode_collective_to_centre1_anim_data@@3UPILOT_ANIM_DATA@@A

; 2684 : 
; 2685 : 	anim_data->cyclic_x_position = cyclic_x_position;

  0002d	8b 45 fc	 mov	 eax, DWORD PTR _anim_data$[ebp]
  00030	f3 0f 10 05 00
	00 00 00	 movss	 xmm0, DWORD PTR ?cyclic_x_position@@3MA
  00038	f3 0f 11 40 08	 movss	 DWORD PTR [eax+8], xmm0

; 2686 : 
; 2687 : 	anim_data->cyclic_y_position = cyclic_y_position;

  0003d	8b 45 fc	 mov	 eax, DWORD PTR _anim_data$[ebp]
  00040	f3 0f 10 05 00
	00 00 00	 movss	 xmm0, DWORD PTR ?cyclic_y_position@@3MA
  00048	f3 0f 11 40 0c	 movss	 DWORD PTR [eax+12], xmm0

; 2688 : 
; 2689 : 	anim_data->collective_position = collective_position - ((collective_position - 0.5) * 0.5);

  0004d	f3 0f 5a 05 00
	00 00 00	 cvtss2sd xmm0, DWORD PTR ?collective_position@@3MA
  00055	f3 0f 5a 0d 00
	00 00 00	 cvtss2sd xmm1, DWORD PTR ?collective_position@@3MA
  0005d	f2 0f 5c 0d 00
	00 00 00	 subsd	 xmm1, QWORD PTR __real@3fe0000000000000
  00065	f2 0f 59 0d 00
	00 00 00	 mulsd	 xmm1, QWORD PTR __real@3fe0000000000000
  0006d	f2 0f 5c c1	 subsd	 xmm0, xmm1
  00071	f2 0f 5a c0	 cvtsd2ss xmm0, xmm0
  00075	8b 45 fc	 mov	 eax, DWORD PTR _anim_data$[ebp]
  00078	f3 0f 11 40 10	 movss	 DWORD PTR [eax+16], xmm0

; 2690 : 
; 2691 : 	anim_data->pedal_position = pedal_position;

  0007d	8b 45 fc	 mov	 eax, DWORD PTR _anim_data$[ebp]
  00080	f3 0f 10 05 00
	00 00 00	 movss	 xmm0, DWORD PTR ?pedal_position@@3MA
  00088	f3 0f 11 40 14	 movss	 DWORD PTR [eax+20], xmm0

; 2692 : 
; 2693 : 	update_pilot_rest_animation (TRUE);

  0008d	6a 01		 push	 1
  0008f	e8 00 00 00 00	 call	 ?update_pilot_rest_animation@@YGXH@Z ; update_pilot_rest_animation

; 2694 : 
; 2695 : 	set_pilot_animation (anim_data, 0.0, FALSE);

  00094	6a 00		 push	 0
  00096	51		 push	 ecx
  00097	0f 57 c0	 xorps	 xmm0, xmm0
  0009a	f3 0f 11 04 24	 movss	 DWORD PTR [esp], xmm0
  0009f	8b 45 fc	 mov	 eax, DWORD PTR _anim_data$[ebp]
  000a2	50		 push	 eax
  000a3	e8 00 00 00 00	 call	 ?set_pilot_animation@@YGXPAUPILOT_ANIM_DATA@@MH@Z ; set_pilot_animation

; 2696 : 
; 2697 : 	pilot_main_anim_mode = PILOT_MAIN_ANIM_MODE_COLLECTIVE_TO_CENTRE2;

  000a8	c7 05 00 00 00
	00 0a 00 00 00	 mov	 DWORD PTR ?pilot_main_anim_mode@@3W4PILOT_MAIN_ANIM_MODES@@A, 10 ; 0000000aH
$LN1@update_pil:

; 2698 : }

  000b2	5f		 pop	 edi
  000b3	5e		 pop	 esi
  000b4	5b		 pop	 ebx
  000b5	8b e5		 mov	 esp, ebp
  000b7	5d		 pop	 ebp
  000b8	c3		 ret	 0
?update_pilot_collective_to_centre1@@YGXXZ ENDP		; update_pilot_collective_to_centre1
_TEXT	ENDS
; Function compile flags: /Odtp /ZI
; File c:\users\nhv90\projects\eech\aphavoc\source\gunships\cockpits\ka50\hm_pilot.c
;	COMDAT ?update_pilot_left_hand_to_nvg@@YGXXZ
_TEXT	SEGMENT
_anim_data$ = -4					; size = 4
?update_pilot_left_hand_to_nvg@@YGXXZ PROC		; update_pilot_left_hand_to_nvg, COMDAT

; 2606 : {

  00000	55		 push	 ebp
  00001	8b ec		 mov	 ebp, esp
  00003	83 ec 44	 sub	 esp, 68			; 00000044H
  00006	53		 push	 ebx
  00007	56		 push	 esi
  00008	57		 push	 edi

; 2607 : 	pilot_anim_data
; 2608 : 		*anim_data;
; 2609 : 
; 2610 : 	if (get_pilot_viewpoint_virtual_cockpit ())

  00009	e8 00 00 00 00	 call	 ?get_pilot_viewpoint_virtual_cockpit@@YGHXZ ; get_pilot_viewpoint_virtual_cockpit
  0000e	85 c0		 test	 eax, eax
  00010	74 14		 je	 SHORT $LN2@update_pil

; 2611 : 	{
; 2612 : 		pilot_main_anim_mode = PILOT_MAIN_ANIM_MODE_HANDS_ON_CONTROLS;

  00012	c7 05 00 00 00
	00 04 00 00 00	 mov	 DWORD PTR ?pilot_main_anim_mode@@3W4PILOT_MAIN_ANIM_MODES@@A, 4

; 2613 : 
; 2614 : 		update_pilot_hands_on_controls ();

  0001c	e8 00 00 00 00	 call	 ?update_pilot_hands_on_controls@@YGXXZ ; update_pilot_hands_on_controls

; 2615 : 
; 2616 : 		return;

  00021	e9 1f 01 00 00	 jmp	 $LN1@update_pil
$LN2@update_pil:

; 2617 : 	}
; 2618 : 
; 2619 : 	anim_data = &pilot_main_anim_mode_left_hand_to_nvg_anim_data;

  00026	c7 45 fc 00 00
	00 00		 mov	 DWORD PTR _anim_data$[ebp], OFFSET ?pilot_main_anim_mode_left_hand_to_nvg_anim_data@@3UPILOT_ANIM_DATA@@A

; 2620 : 
; 2621 : 	anim_data->cyclic_x_position = cyclic_x_position;

  0002d	8b 45 fc	 mov	 eax, DWORD PTR _anim_data$[ebp]
  00030	f3 0f 10 05 00
	00 00 00	 movss	 xmm0, DWORD PTR ?cyclic_x_position@@3MA
  00038	f3 0f 11 40 08	 movss	 DWORD PTR [eax+8], xmm0

; 2622 : 
; 2623 : 	anim_data->cyclic_y_position = cyclic_y_position;

  0003d	8b 45 fc	 mov	 eax, DWORD PTR _anim_data$[ebp]
  00040	f3 0f 10 05 00
	00 00 00	 movss	 xmm0, DWORD PTR ?cyclic_y_position@@3MA
  00048	f3 0f 11 40 0c	 movss	 DWORD PTR [eax+12], xmm0

; 2624 : 
; 2625 : 	anim_data->pedal_position = pedal_position;

  0004d	8b 45 fc	 mov	 eax, DWORD PTR _anim_data$[ebp]
  00050	f3 0f 10 05 00
	00 00 00	 movss	 xmm0, DWORD PTR ?pedal_position@@3MA
  00058	f3 0f 11 40 14	 movss	 DWORD PTR [eax+20], xmm0

; 2626 : 
; 2627 : 	if (night_vision_system_active)

  0005d	83 3d 00 00 00
	00 00		 cmp	 DWORD PTR ?night_vision_system_active@@3HA, 0 ; night_vision_system_active
  00064	74 5f		 je	 SHORT $LN3@update_pil

; 2628 : 	{
; 2629 : 		pilot_nvg_anim_frame += get_delta_time () * 0.5;

  00066	f3 0f 5a 05 00
	00 00 00	 cvtss2sd xmm0, DWORD PTR ?system_delta_time@@3MA
  0006e	f2 0f 59 05 00
	00 00 00	 mulsd	 xmm0, QWORD PTR __real@3fe0000000000000
  00076	f3 0f 5a 0d 00
	00 00 00	 cvtss2sd xmm1, DWORD PTR ?pilot_nvg_anim_frame@@3MA
  0007e	f2 0f 58 c8	 addsd	 xmm1, xmm0
  00082	f2 0f 5a c1	 cvtsd2ss xmm0, xmm1
  00086	f3 0f 11 05 00
	00 00 00	 movss	 DWORD PTR ?pilot_nvg_anim_frame@@3MA, xmm0

; 2630 : 
; 2631 : 		if (pilot_nvg_anim_frame >= NVG_ON)

  0008e	f3 0f 10 05 00
	00 00 00	 movss	 xmm0, DWORD PTR ?pilot_nvg_anim_frame@@3MA
  00096	0f 2f 05 00 00
	00 00		 comiss	 xmm0, DWORD PTR __real@3f800000
  0009d	72 24		 jb	 SHORT $LN5@update_pil

; 2632 : 		{
; 2633 : 			pilot_nvg_anim_frame = NVG_ON;

  0009f	f3 0f 10 05 00
	00 00 00	 movss	 xmm0, DWORD PTR __real@3f800000
  000a7	f3 0f 11 05 00
	00 00 00	 movss	 DWORD PTR ?pilot_nvg_anim_frame@@3MA, xmm0

; 2634 : 
; 2635 : 			pilot_main_anim_mode = PILOT_MAIN_ANIM_MODE_COLLECTIVE_FROM_CENTRE1;

  000af	c7 05 00 00 00
	00 0b 00 00 00	 mov	 DWORD PTR ?pilot_main_anim_mode@@3W4PILOT_MAIN_ANIM_MODES@@A, 11 ; 0000000bH

; 2636 : 
; 2637 : 			update_pilot_collective_from_centre1 ();

  000b9	e8 00 00 00 00	 call	 ?update_pilot_collective_from_centre1@@YGXXZ ; update_pilot_collective_from_centre1

; 2638 : 
; 2639 : 			return;

  000be	e9 82 00 00 00	 jmp	 $LN1@update_pil
$LN5@update_pil:

; 2640 : 		}
; 2641 : 	}
; 2642 : 	else

  000c3	eb 50		 jmp	 SHORT $LN6@update_pil
$LN3@update_pil:

; 2643 : 	{
; 2644 : 		pilot_nvg_anim_frame -= get_delta_time () * 0.5;

  000c5	f3 0f 5a 05 00
	00 00 00	 cvtss2sd xmm0, DWORD PTR ?system_delta_time@@3MA
  000cd	f2 0f 59 05 00
	00 00 00	 mulsd	 xmm0, QWORD PTR __real@3fe0000000000000
  000d5	f3 0f 5a 0d 00
	00 00 00	 cvtss2sd xmm1, DWORD PTR ?pilot_nvg_anim_frame@@3MA
  000dd	f2 0f 5c c8	 subsd	 xmm1, xmm0
  000e1	f2 0f 5a c1	 cvtsd2ss xmm0, xmm1
  000e5	f3 0f 11 05 00
	00 00 00	 movss	 DWORD PTR ?pilot_nvg_anim_frame@@3MA, xmm0

; 2645 : 
; 2646 : 		if (pilot_nvg_anim_frame <= NVG_OFF)

  000ed	0f 57 c0	 xorps	 xmm0, xmm0
  000f0	0f 2f 05 00 00
	00 00		 comiss	 xmm0, DWORD PTR ?pilot_nvg_anim_frame@@3MA
  000f7	72 1c		 jb	 SHORT $LN6@update_pil

; 2647 : 		{
; 2648 : 			pilot_nvg_anim_frame = NVG_OFF;

  000f9	0f 57 c0	 xorps	 xmm0, xmm0
  000fc	f3 0f 11 05 00
	00 00 00	 movss	 DWORD PTR ?pilot_nvg_anim_frame@@3MA, xmm0

; 2649 : 
; 2650 : 			pilot_main_anim_mode = PILOT_MAIN_ANIM_MODE_COLLECTIVE_FROM_CENTRE1;

  00104	c7 05 00 00 00
	00 0b 00 00 00	 mov	 DWORD PTR ?pilot_main_anim_mode@@3W4PILOT_MAIN_ANIM_MODES@@A, 11 ; 0000000bH

; 2651 : 
; 2652 : 			update_pilot_collective_from_centre1 ();

  0010e	e8 00 00 00 00	 call	 ?update_pilot_collective_from_centre1@@YGXXZ ; update_pilot_collective_from_centre1

; 2653 : 
; 2654 : 			return;

  00113	eb 30		 jmp	 SHORT $LN1@update_pil
$LN6@update_pil:

; 2655 : 		}
; 2656 : 	}
; 2657 : 
; 2658 : 	pilot_main_anim_frame = pilot_nvg_anim_frame;

  00115	f3 0f 10 05 00
	00 00 00	 movss	 xmm0, DWORD PTR ?pilot_nvg_anim_frame@@3MA
  0011d	f3 0f 11 05 00
	00 00 00	 movss	 DWORD PTR ?pilot_main_anim_frame@@3MA, xmm0

; 2659 : 
; 2660 : 	update_pilot_rest_animation (TRUE);

  00125	6a 01		 push	 1
  00127	e8 00 00 00 00	 call	 ?update_pilot_rest_animation@@YGXH@Z ; update_pilot_rest_animation

; 2661 : 
; 2662 : 	set_pilot_animation (anim_data, pilot_main_anim_frame, FALSE);

  0012c	6a 00		 push	 0
  0012e	51		 push	 ecx
  0012f	f3 0f 10 05 00
	00 00 00	 movss	 xmm0, DWORD PTR ?pilot_main_anim_frame@@3MA
  00137	f3 0f 11 04 24	 movss	 DWORD PTR [esp], xmm0
  0013c	8b 45 fc	 mov	 eax, DWORD PTR _anim_data$[ebp]
  0013f	50		 push	 eax
  00140	e8 00 00 00 00	 call	 ?set_pilot_animation@@YGXPAUPILOT_ANIM_DATA@@MH@Z ; set_pilot_animation
$LN1@update_pil:

; 2663 : }

  00145	5f		 pop	 edi
  00146	5e		 pop	 esi
  00147	5b		 pop	 ebx
  00148	8b e5		 mov	 esp, ebp
  0014a	5d		 pop	 ebp
  0014b	c3		 ret	 0
?update_pilot_left_hand_to_nvg@@YGXXZ ENDP		; update_pilot_left_hand_to_nvg
_TEXT	ENDS
; Function compile flags: /Odtp /ZI
; File c:\users\nhv90\projects\eech\aphavoc\source\gunships\cockpits\ka50\hm_pilot.c
;	COMDAT ?update_pilot_releasing_controls@@YGXXZ
_TEXT	SEGMENT
tv76 = -80						; size = 4
tv69 = -76						; size = 4
$T1 = -72						; size = 4
_anim_data$ = -4					; size = 4
?update_pilot_releasing_controls@@YGXXZ PROC		; update_pilot_releasing_controls, COMDAT

; 2572 : {

  00000	55		 push	 ebp
  00001	8b ec		 mov	 ebp, esp
  00003	83 ec 50	 sub	 esp, 80			; 00000050H
  00006	53		 push	 ebx
  00007	56		 push	 esi
  00008	57		 push	 edi

; 2573 : 	pilot_anim_data
; 2574 : 		*anim_data;
; 2575 : 
; 2576 : 	if (!get_local_entity_int_value (get_gunship_entity (), INT_TYPE_AUTO_PILOT))

  00009	83 3d 00 00 00
	00 00		 cmp	 DWORD PTR ?gunship_entity@@3PAUENTITY@@A, 0 ; gunship_entity
  00010	74 0c		 je	 SHORT $LN5@update_pil
  00012	a1 00 00 00 00	 mov	 eax, DWORD PTR ?gunship_entity@@3PAUENTITY@@A ; gunship_entity
  00017	8b 08		 mov	 ecx, DWORD PTR [eax]
  00019	89 4d b4	 mov	 DWORD PTR tv69[ebp], ecx
  0001c	eb 1d		 jmp	 SHORT $LN6@update_pil
$LN5@update_pil:
  0001e	68 10 0a 00 00	 push	 2576			; 00000a10H
  00023	68 00 00 00 00	 push	 OFFSET ??_C@_0EO@MOFNGMIK@c?3?2users?2nhv90?2projects?2eech?2ap@
  00028	8b 15 00 00 00
	00		 mov	 edx, DWORD PTR ?null_entity_pointer_message@@3PBDB ; null_entity_pointer_message
  0002e	52		 push	 edx
  0002f	e8 00 00 00 00	 call	 ?process_assert@@YGXPBD0H@Z ; process_assert
  00034	c7 45 b4 00 00
	00 00		 mov	 DWORD PTR tv69[ebp], 0
$LN6@update_pil:
  0003b	b8 01 00 00 00	 mov	 eax, 1
  00040	85 c0		 test	 eax, eax
  00042	74 09		 je	 SHORT $LN7@update_pil
  00044	c7 45 b0 0c 00
	00 00		 mov	 DWORD PTR tv76[ebp], 12	; 0000000cH
  0004b	eb 1d		 jmp	 SHORT $LN8@update_pil
$LN7@update_pil:
  0004d	68 10 0a 00 00	 push	 2576			; 00000a10H
  00052	68 00 00 00 00	 push	 OFFSET ??_C@_0EO@MOFNGMIK@c?3?2users?2nhv90?2projects?2eech?2ap@
  00057	8b 0d 00 00 00
	00		 mov	 ecx, DWORD PTR ?overload_invalid_int_type_message@@3PBDB ; overload_invalid_int_type_message
  0005d	51		 push	 ecx
  0005e	e8 00 00 00 00	 call	 ?process_assert@@YGXPBD0H@Z ; process_assert
  00063	c7 45 b0 00 00
	00 00		 mov	 DWORD PTR tv76[ebp], 0
$LN8@update_pil:
  0006a	6a 0c		 push	 12			; 0000000cH
  0006c	8b 15 00 00 00
	00		 mov	 edx, DWORD PTR ?gunship_entity@@3PAUENTITY@@A ; gunship_entity
  00072	52		 push	 edx
  00073	69 45 b4 5c 04
	00 00		 imul	 eax, DWORD PTR tv69[ebp], 1116
  0007a	8b 4d b0	 mov	 ecx, DWORD PTR tv76[ebp]
  0007d	8b 94 88 00 00
	00 00		 mov	 edx, DWORD PTR ?fn_get_local_entity_int_value@@3PAY0BBH@P6GHPAUENTITY@@W4INT_TYPES@@@ZA[eax+ecx*4]
  00084	ff d2		 call	 edx
  00086	85 c0		 test	 eax, eax
  00088	75 14		 jne	 SHORT $LN2@update_pil

; 2577 : 	{
; 2578 : 		pilot_main_anim_mode = PILOT_MAIN_ANIM_MODE_TAKING_CONTROLS;

  0008a	c7 05 00 00 00
	00 01 00 00 00	 mov	 DWORD PTR ?pilot_main_anim_mode@@3W4PILOT_MAIN_ANIM_MODES@@A, 1

; 2579 : 
; 2580 : 		update_pilot_taking_controls ();

  00094	e8 00 00 00 00	 call	 ?update_pilot_taking_controls@@YGXXZ ; update_pilot_taking_controls

; 2581 : 
; 2582 : 		return;

  00099	e9 86 00 00 00	 jmp	 $LN1@update_pil
$LN2@update_pil:

; 2583 : 	}
; 2584 : 
; 2585 : 	anim_data = &pilot_main_anim_mode_releasing_controls_anim_data;

  0009e	c7 45 fc 00 00
	00 00		 mov	 DWORD PTR _anim_data$[ebp], OFFSET ?pilot_main_anim_mode_releasing_controls_anim_data@@3UPILOT_ANIM_DATA@@A

; 2586 : 
; 2587 : 	pilot_main_anim_frame += get_delta_time ();

  000a5	f3 0f 10 05 00
	00 00 00	 movss	 xmm0, DWORD PTR ?pilot_main_anim_frame@@3MA
  000ad	f3 0f 58 05 00
	00 00 00	 addss	 xmm0, DWORD PTR ?system_delta_time@@3MA
  000b5	f3 0f 11 05 00
	00 00 00	 movss	 DWORD PTR ?pilot_main_anim_frame@@3MA, xmm0

; 2588 : 
; 2589 : 	pilot_main_anim_frame = min (pilot_main_anim_frame, 1.0f);

  000bd	f3 0f 10 05 00
	00 00 00	 movss	 xmm0, DWORD PTR __real@3f800000
  000c5	f3 0f 11 45 b8	 movss	 DWORD PTR $T1[ebp], xmm0
  000ca	8d 45 b8	 lea	 eax, DWORD PTR $T1[ebp]
  000cd	50		 push	 eax
  000ce	68 00 00 00 00	 push	 OFFSET ?pilot_main_anim_frame@@3MA
  000d3	e8 00 00 00 00	 call	 ??$min@M@std@@YGABMABM0@Z ; std::min<float>
  000d8	f3 0f 10 00	 movss	 xmm0, DWORD PTR [eax]
  000dc	f3 0f 11 05 00
	00 00 00	 movss	 DWORD PTR ?pilot_main_anim_frame@@3MA, xmm0

; 2590 : 
; 2591 : 	update_pilot_rest_animation (TRUE);

  000e4	6a 01		 push	 1
  000e6	e8 00 00 00 00	 call	 ?update_pilot_rest_animation@@YGXH@Z ; update_pilot_rest_animation

; 2592 : 
; 2593 : 	set_pilot_animation (anim_data, pilot_main_anim_frame, FALSE);

  000eb	6a 00		 push	 0
  000ed	51		 push	 ecx
  000ee	f3 0f 10 05 00
	00 00 00	 movss	 xmm0, DWORD PTR ?pilot_main_anim_frame@@3MA
  000f6	f3 0f 11 04 24	 movss	 DWORD PTR [esp], xmm0
  000fb	8b 45 fc	 mov	 eax, DWORD PTR _anim_data$[ebp]
  000fe	50		 push	 eax
  000ff	e8 00 00 00 00	 call	 ?set_pilot_animation@@YGXPAUPILOT_ANIM_DATA@@MH@Z ; set_pilot_animation

; 2594 : 
; 2595 : 	if (pilot_main_anim_frame == 1.0)

  00104	f3 0f 5a 05 00
	00 00 00	 cvtss2sd xmm0, DWORD PTR ?pilot_main_anim_frame@@3MA
  0010c	66 0f 2e 05 00
	00 00 00	 ucomisd xmm0, QWORD PTR __real@3ff0000000000000
  00114	9f		 lahf
  00115	f6 c4 44	 test	 ah, 68			; 00000044H
  00118	7a 0a		 jp	 SHORT $LN3@update_pil

; 2596 : 	{
; 2597 : 		pilot_main_anim_mode = PILOT_MAIN_ANIM_MODE_HANDS_OFF_CONTROLS;

  0011a	c7 05 00 00 00
	00 00 00 00 00	 mov	 DWORD PTR ?pilot_main_anim_mode@@3W4PILOT_MAIN_ANIM_MODES@@A, 0
$LN3@update_pil:
$LN1@update_pil:

; 2598 : 	}
; 2599 : }

  00124	5f		 pop	 edi
  00125	5e		 pop	 esi
  00126	5b		 pop	 ebx
  00127	8b e5		 mov	 esp, ebp
  00129	5d		 pop	 ebp
  0012a	c3		 ret	 0
?update_pilot_releasing_controls@@YGXXZ ENDP		; update_pilot_releasing_controls
_TEXT	ENDS
; Function compile flags: /Odtp /ZI
; File c:\users\nhv90\projects\eech\aphavoc\source\gunships\cockpits\ka50\hm_pilot.c
;	COMDAT ?update_pilot_moving_controls_to_centre2@@YGXXZ
_TEXT	SEGMENT
_anim_data$ = -4					; size = 4
?update_pilot_moving_controls_to_centre2@@YGXXZ PROC	; update_pilot_moving_controls_to_centre2, COMDAT

; 2554 : {

  00000	55		 push	 ebp
  00001	8b ec		 mov	 ebp, esp
  00003	83 ec 44	 sub	 esp, 68			; 00000044H
  00006	53		 push	 ebx
  00007	56		 push	 esi
  00008	57		 push	 edi

; 2555 : 	pilot_anim_data
; 2556 : 		*anim_data;
; 2557 : 
; 2558 : 	anim_data = &pilot_main_anim_mode_moving_controls_to_centre2_anim_data;

  00009	c7 45 fc 00 00
	00 00		 mov	 DWORD PTR _anim_data$[ebp], OFFSET ?pilot_main_anim_mode_moving_controls_to_centre2_anim_data@@3UPILOT_ANIM_DATA@@A

; 2559 : 
; 2560 : 	update_pilot_rest_animation (TRUE);

  00010	6a 01		 push	 1
  00012	e8 00 00 00 00	 call	 ?update_pilot_rest_animation@@YGXH@Z ; update_pilot_rest_animation

; 2561 : 
; 2562 : 	set_pilot_animation (anim_data, 0.0, FALSE);

  00017	6a 00		 push	 0
  00019	51		 push	 ecx
  0001a	0f 57 c0	 xorps	 xmm0, xmm0
  0001d	f3 0f 11 04 24	 movss	 DWORD PTR [esp], xmm0
  00022	8b 45 fc	 mov	 eax, DWORD PTR _anim_data$[ebp]
  00025	50		 push	 eax
  00026	e8 00 00 00 00	 call	 ?set_pilot_animation@@YGXPAUPILOT_ANIM_DATA@@MH@Z ; set_pilot_animation

; 2563 : 
; 2564 : 	pilot_main_anim_mode = PILOT_MAIN_ANIM_MODE_RELEASING_CONTROLS;

  0002b	c7 05 00 00 00
	00 07 00 00 00	 mov	 DWORD PTR ?pilot_main_anim_mode@@3W4PILOT_MAIN_ANIM_MODES@@A, 7

; 2565 : }

  00035	5f		 pop	 edi
  00036	5e		 pop	 esi
  00037	5b		 pop	 ebx
  00038	8b e5		 mov	 esp, ebp
  0003a	5d		 pop	 ebp
  0003b	c3		 ret	 0
?update_pilot_moving_controls_to_centre2@@YGXXZ ENDP	; update_pilot_moving_controls_to_centre2
_TEXT	ENDS
; Function compile flags: /Odtp /ZI
; File c:\users\nhv90\projects\eech\aphavoc\source\gunships\cockpits\ka50\hm_pilot.c
;	COMDAT ?update_pilot_moving_controls_to_centre1@@YGXXZ
_TEXT	SEGMENT
_anim_data$ = -4					; size = 4
?update_pilot_moving_controls_to_centre1@@YGXXZ PROC	; update_pilot_moving_controls_to_centre1, COMDAT

; 2528 : {

  00000	55		 push	 ebp
  00001	8b ec		 mov	 ebp, esp
  00003	83 ec 44	 sub	 esp, 68			; 00000044H
  00006	53		 push	 ebx
  00007	56		 push	 esi
  00008	57		 push	 edi

; 2529 : 	pilot_anim_data
; 2530 : 		*anim_data;
; 2531 : 
; 2532 : 	anim_data = &pilot_main_anim_mode_moving_controls_to_centre1_anim_data;

  00009	c7 45 fc 00 00
	00 00		 mov	 DWORD PTR _anim_data$[ebp], OFFSET ?pilot_main_anim_mode_moving_controls_to_centre1_anim_data@@3UPILOT_ANIM_DATA@@A

; 2533 : 
; 2534 : 	anim_data->cyclic_x_position = previous_cyclic_x_position - ((previous_cyclic_x_position - 0.5) * 0.5);

  00010	f3 0f 5a 05 00
	00 00 00	 cvtss2sd xmm0, DWORD PTR ?previous_cyclic_x_position@@3MA
  00018	f3 0f 5a 0d 00
	00 00 00	 cvtss2sd xmm1, DWORD PTR ?previous_cyclic_x_position@@3MA
  00020	f2 0f 5c 0d 00
	00 00 00	 subsd	 xmm1, QWORD PTR __real@3fe0000000000000
  00028	f2 0f 59 0d 00
	00 00 00	 mulsd	 xmm1, QWORD PTR __real@3fe0000000000000
  00030	f2 0f 5c c1	 subsd	 xmm0, xmm1
  00034	f2 0f 5a c0	 cvtsd2ss xmm0, xmm0
  00038	8b 45 fc	 mov	 eax, DWORD PTR _anim_data$[ebp]
  0003b	f3 0f 11 40 08	 movss	 DWORD PTR [eax+8], xmm0

; 2535 : 
; 2536 : 	anim_data->cyclic_y_position = previous_cyclic_y_position - ((previous_cyclic_y_position - 0.5) * 0.5);

  00040	f3 0f 5a 05 00
	00 00 00	 cvtss2sd xmm0, DWORD PTR ?previous_cyclic_y_position@@3MA
  00048	f3 0f 5a 0d 00
	00 00 00	 cvtss2sd xmm1, DWORD PTR ?previous_cyclic_y_position@@3MA
  00050	f2 0f 5c 0d 00
	00 00 00	 subsd	 xmm1, QWORD PTR __real@3fe0000000000000
  00058	f2 0f 59 0d 00
	00 00 00	 mulsd	 xmm1, QWORD PTR __real@3fe0000000000000
  00060	f2 0f 5c c1	 subsd	 xmm0, xmm1
  00064	f2 0f 5a c0	 cvtsd2ss xmm0, xmm0
  00068	8b 45 fc	 mov	 eax, DWORD PTR _anim_data$[ebp]
  0006b	f3 0f 11 40 0c	 movss	 DWORD PTR [eax+12], xmm0

; 2537 : 
; 2538 : 	anim_data->collective_position = previous_collective_position - ((previous_collective_position - 0.5) * 0.5);

  00070	f3 0f 5a 05 00
	00 00 00	 cvtss2sd xmm0, DWORD PTR ?previous_collective_position@@3MA
  00078	f3 0f 5a 0d 00
	00 00 00	 cvtss2sd xmm1, DWORD PTR ?previous_collective_position@@3MA
  00080	f2 0f 5c 0d 00
	00 00 00	 subsd	 xmm1, QWORD PTR __real@3fe0000000000000
  00088	f2 0f 59 0d 00
	00 00 00	 mulsd	 xmm1, QWORD PTR __real@3fe0000000000000
  00090	f2 0f 5c c1	 subsd	 xmm0, xmm1
  00094	f2 0f 5a c0	 cvtsd2ss xmm0, xmm0
  00098	8b 45 fc	 mov	 eax, DWORD PTR _anim_data$[ebp]
  0009b	f3 0f 11 40 10	 movss	 DWORD PTR [eax+16], xmm0

; 2539 : 
; 2540 : 	anim_data->pedal_position = previous_pedal_position - ((previous_pedal_position - 0.5) * 0.5);

  000a0	f3 0f 5a 05 00
	00 00 00	 cvtss2sd xmm0, DWORD PTR ?previous_pedal_position@@3MA
  000a8	f3 0f 5a 0d 00
	00 00 00	 cvtss2sd xmm1, DWORD PTR ?previous_pedal_position@@3MA
  000b0	f2 0f 5c 0d 00
	00 00 00	 subsd	 xmm1, QWORD PTR __real@3fe0000000000000
  000b8	f2 0f 59 0d 00
	00 00 00	 mulsd	 xmm1, QWORD PTR __real@3fe0000000000000
  000c0	f2 0f 5c c1	 subsd	 xmm0, xmm1
  000c4	f2 0f 5a c0	 cvtsd2ss xmm0, xmm0
  000c8	8b 45 fc	 mov	 eax, DWORD PTR _anim_data$[ebp]
  000cb	f3 0f 11 40 14	 movss	 DWORD PTR [eax+20], xmm0

; 2541 : 
; 2542 : 	update_pilot_rest_animation (TRUE);

  000d0	6a 01		 push	 1
  000d2	e8 00 00 00 00	 call	 ?update_pilot_rest_animation@@YGXH@Z ; update_pilot_rest_animation

; 2543 : 
; 2544 : 	set_pilot_animation (anim_data, 0.0, FALSE);

  000d7	6a 00		 push	 0
  000d9	51		 push	 ecx
  000da	0f 57 c0	 xorps	 xmm0, xmm0
  000dd	f3 0f 11 04 24	 movss	 DWORD PTR [esp], xmm0
  000e2	8b 45 fc	 mov	 eax, DWORD PTR _anim_data$[ebp]
  000e5	50		 push	 eax
  000e6	e8 00 00 00 00	 call	 ?set_pilot_animation@@YGXPAUPILOT_ANIM_DATA@@MH@Z ; set_pilot_animation

; 2545 : 
; 2546 : 	pilot_main_anim_mode = PILOT_MAIN_ANIM_MODE_MOVING_CONTROLS_TO_CENTRE2;

  000eb	c7 05 00 00 00
	00 06 00 00 00	 mov	 DWORD PTR ?pilot_main_anim_mode@@3W4PILOT_MAIN_ANIM_MODES@@A, 6

; 2547 : }

  000f5	5f		 pop	 edi
  000f6	5e		 pop	 esi
  000f7	5b		 pop	 ebx
  000f8	8b e5		 mov	 esp, ebp
  000fa	5d		 pop	 ebp
  000fb	c3		 ret	 0
?update_pilot_moving_controls_to_centre1@@YGXXZ ENDP	; update_pilot_moving_controls_to_centre1
_TEXT	ENDS
; Function compile flags: /Odtp /ZI
; File c:\users\nhv90\projects\eech\aphavoc\source\gunships\cockpits\ka50\hm_pilot.c
;	COMDAT ?update_pilot_hands_on_controls@@YGXXZ
_TEXT	SEGMENT
tv76 = -76						; size = 4
tv69 = -72						; size = 4
_anim_data$ = -4					; size = 4
?update_pilot_hands_on_controls@@YGXXZ PROC		; update_pilot_hands_on_controls, COMDAT

; 2466 : {

  00000	55		 push	 ebp
  00001	8b ec		 mov	 ebp, esp
  00003	83 ec 4c	 sub	 esp, 76			; 0000004cH
  00006	53		 push	 ebx
  00007	56		 push	 esi
  00008	57		 push	 edi

; 2467 : 	pilot_anim_data
; 2468 : 		*anim_data;
; 2469 : 
; 2470 : 	if (get_local_entity_int_value (get_gunship_entity (), INT_TYPE_AUTO_PILOT))

  00009	83 3d 00 00 00
	00 00		 cmp	 DWORD PTR ?gunship_entity@@3PAUENTITY@@A, 0 ; gunship_entity
  00010	74 0c		 je	 SHORT $LN10@update_pil
  00012	a1 00 00 00 00	 mov	 eax, DWORD PTR ?gunship_entity@@3PAUENTITY@@A ; gunship_entity
  00017	8b 08		 mov	 ecx, DWORD PTR [eax]
  00019	89 4d b8	 mov	 DWORD PTR tv69[ebp], ecx
  0001c	eb 1d		 jmp	 SHORT $LN11@update_pil
$LN10@update_pil:
  0001e	68 a6 09 00 00	 push	 2470			; 000009a6H
  00023	68 00 00 00 00	 push	 OFFSET ??_C@_0EO@MOFNGMIK@c?3?2users?2nhv90?2projects?2eech?2ap@
  00028	8b 15 00 00 00
	00		 mov	 edx, DWORD PTR ?null_entity_pointer_message@@3PBDB ; null_entity_pointer_message
  0002e	52		 push	 edx
  0002f	e8 00 00 00 00	 call	 ?process_assert@@YGXPBD0H@Z ; process_assert
  00034	c7 45 b8 00 00
	00 00		 mov	 DWORD PTR tv69[ebp], 0
$LN11@update_pil:
  0003b	b8 01 00 00 00	 mov	 eax, 1
  00040	85 c0		 test	 eax, eax
  00042	74 09		 je	 SHORT $LN12@update_pil
  00044	c7 45 b4 0c 00
	00 00		 mov	 DWORD PTR tv76[ebp], 12	; 0000000cH
  0004b	eb 1d		 jmp	 SHORT $LN13@update_pil
$LN12@update_pil:
  0004d	68 a6 09 00 00	 push	 2470			; 000009a6H
  00052	68 00 00 00 00	 push	 OFFSET ??_C@_0EO@MOFNGMIK@c?3?2users?2nhv90?2projects?2eech?2ap@
  00057	8b 0d 00 00 00
	00		 mov	 ecx, DWORD PTR ?overload_invalid_int_type_message@@3PBDB ; overload_invalid_int_type_message
  0005d	51		 push	 ecx
  0005e	e8 00 00 00 00	 call	 ?process_assert@@YGXPBD0H@Z ; process_assert
  00063	c7 45 b4 00 00
	00 00		 mov	 DWORD PTR tv76[ebp], 0
$LN13@update_pil:
  0006a	6a 0c		 push	 12			; 0000000cH
  0006c	8b 15 00 00 00
	00		 mov	 edx, DWORD PTR ?gunship_entity@@3PAUENTITY@@A ; gunship_entity
  00072	52		 push	 edx
  00073	69 45 b8 5c 04
	00 00		 imul	 eax, DWORD PTR tv69[ebp], 1116
  0007a	8b 4d b4	 mov	 ecx, DWORD PTR tv76[ebp]
  0007d	8b 94 88 00 00
	00 00		 mov	 edx, DWORD PTR ?fn_get_local_entity_int_value@@3PAY0BBH@P6GHPAUENTITY@@W4INT_TYPES@@@ZA[eax+ecx*4]
  00084	ff d2		 call	 edx
  00086	85 c0		 test	 eax, eax
  00088	74 1f		 je	 SHORT $LN2@update_pil

; 2471 : 	{
; 2472 : 		pilot_main_anim_mode = PILOT_MAIN_ANIM_MODE_MOVING_CONTROLS_TO_CENTRE1;

  0008a	c7 05 00 00 00
	00 05 00 00 00	 mov	 DWORD PTR ?pilot_main_anim_mode@@3W4PILOT_MAIN_ANIM_MODES@@A, 5

; 2473 : 
; 2474 : 		pilot_head_anim_pause = 0.0;

  00094	0f 57 c0	 xorps	 xmm0, xmm0
  00097	f3 0f 11 05 00
	00 00 00	 movss	 DWORD PTR ?pilot_head_anim_pause@@3MA, xmm0

; 2475 : 
; 2476 : 		update_pilot_moving_controls_to_centre1 ();

  0009f	e8 00 00 00 00	 call	 ?update_pilot_moving_controls_to_centre1@@YGXXZ ; update_pilot_moving_controls_to_centre1

; 2477 : 
; 2478 : 		return;

  000a4	e9 ce 00 00 00	 jmp	 $LN1@update_pil
$LN2@update_pil:

; 2479 : 	}
; 2480 : 
; 2481 : 	////////////////////////////////////////
; 2482 : 
; 2483 : 	if
; 2484 : 	(
; 2485 : 		(night_vision_system_active && (pilot_nvg_anim_frame == NVG_OFF)) ||

  000a9	83 3d 00 00 00
	00 00		 cmp	 DWORD PTR ?night_vision_system_active@@3HA, 0 ; night_vision_system_active
  000b0	74 15		 je	 SHORT $LN5@update_pil
  000b2	f3 0f 10 05 00
	00 00 00	 movss	 xmm0, DWORD PTR ?pilot_nvg_anim_frame@@3MA
  000ba	0f 2e 05 00 00
	00 00		 ucomiss xmm0, DWORD PTR __real@00000000
  000c1	9f		 lahf
  000c2	f6 c4 44	 test	 ah, 68			; 00000044H
  000c5	7b 1e		 jnp	 SHORT $LN4@update_pil
$LN5@update_pil:
  000c7	83 3d 00 00 00
	00 00		 cmp	 DWORD PTR ?night_vision_system_active@@3HA, 0 ; night_vision_system_active
  000ce	75 45		 jne	 SHORT $LN8@update_pil
  000d0	f3 0f 10 05 00
	00 00 00	 movss	 xmm0, DWORD PTR ?pilot_nvg_anim_frame@@3MA
  000d8	0f 2e 05 00 00
	00 00		 ucomiss xmm0, DWORD PTR __real@3f800000
  000df	9f		 lahf
  000e0	f6 c4 44	 test	 ah, 68			; 00000044H
  000e3	7a 30		 jp	 SHORT $LN8@update_pil
$LN4@update_pil:

; 2486 : 		(!night_vision_system_active && (pilot_nvg_anim_frame == NVG_ON))
; 2487 : 	)
; 2488 : 	{
; 2489 : 		if (!get_pilot_viewpoint_virtual_cockpit ())

  000e5	e8 00 00 00 00	 call	 ?get_pilot_viewpoint_virtual_cockpit@@YGHXZ ; get_pilot_viewpoint_virtual_cockpit
  000ea	85 c0		 test	 eax, eax
  000ec	75 27		 jne	 SHORT $LN8@update_pil

; 2490 : 		{
; 2491 : 			if (pilot_rest_anim_mode != PILOT_REST_ANIM_MODE_NONE)

  000ee	83 3d 00 00 00
	00 00		 cmp	 DWORD PTR ?pilot_rest_anim_mode@@3W4PILOT_REST_ANIM_MODES@@A, 0
  000f5	74 0d		 je	 SHORT $LN7@update_pil

; 2492 : 			{
; 2493 : 				pilot_head_anim_pause = 0.0;

  000f7	0f 57 c0	 xorps	 xmm0, xmm0
  000fa	f3 0f 11 05 00
	00 00 00	 movss	 DWORD PTR ?pilot_head_anim_pause@@3MA, xmm0

; 2494 : 			}
; 2495 : 			else

  00102	eb 11		 jmp	 SHORT $LN8@update_pil
$LN7@update_pil:

; 2496 : 			{
; 2497 : 				pilot_main_anim_mode = PILOT_MAIN_ANIM_MODE_COLLECTIVE_TO_CENTRE1;

  00104	c7 05 00 00 00
	00 09 00 00 00	 mov	 DWORD PTR ?pilot_main_anim_mode@@3W4PILOT_MAIN_ANIM_MODES@@A, 9

; 2498 : 
; 2499 : 				update_pilot_collective_to_centre1 ();

  0010e	e8 00 00 00 00	 call	 ?update_pilot_collective_to_centre1@@YGXXZ ; update_pilot_collective_to_centre1

; 2500 : 
; 2501 : 				return;

  00113	eb 62		 jmp	 SHORT $LN1@update_pil
$LN8@update_pil:

; 2502 : 			}
; 2503 : 		}
; 2504 : 	}
; 2505 : 
; 2506 : 	////////////////////////////////////////
; 2507 : 
; 2508 : 	anim_data = &pilot_main_anim_mode_hands_on_controls_anim_data;

  00115	c7 45 fc 00 00
	00 00		 mov	 DWORD PTR _anim_data$[ebp], OFFSET ?pilot_main_anim_mode_hands_on_controls_anim_data@@3UPILOT_ANIM_DATA@@A

; 2509 : 
; 2510 : 	anim_data->cyclic_x_position = cyclic_x_position;

  0011c	8b 45 fc	 mov	 eax, DWORD PTR _anim_data$[ebp]
  0011f	f3 0f 10 05 00
	00 00 00	 movss	 xmm0, DWORD PTR ?cyclic_x_position@@3MA
  00127	f3 0f 11 40 08	 movss	 DWORD PTR [eax+8], xmm0

; 2511 : 
; 2512 : 	anim_data->cyclic_y_position = cyclic_y_position;

  0012c	8b 45 fc	 mov	 eax, DWORD PTR _anim_data$[ebp]
  0012f	f3 0f 10 05 00
	00 00 00	 movss	 xmm0, DWORD PTR ?cyclic_y_position@@3MA
  00137	f3 0f 11 40 0c	 movss	 DWORD PTR [eax+12], xmm0

; 2513 : 
; 2514 : 	anim_data->collective_position = collective_position;

  0013c	8b 45 fc	 mov	 eax, DWORD PTR _anim_data$[ebp]
  0013f	f3 0f 10 05 00
	00 00 00	 movss	 xmm0, DWORD PTR ?collective_position@@3MA
  00147	f3 0f 11 40 10	 movss	 DWORD PTR [eax+16], xmm0

; 2515 : 
; 2516 : 	anim_data->pedal_position = pedal_position;

  0014c	8b 45 fc	 mov	 eax, DWORD PTR _anim_data$[ebp]
  0014f	f3 0f 10 05 00
	00 00 00	 movss	 xmm0, DWORD PTR ?pedal_position@@3MA
  00157	f3 0f 11 40 14	 movss	 DWORD PTR [eax+20], xmm0

; 2517 : 
; 2518 : 	update_pilot_rest_animation (TRUE);

  0015c	6a 01		 push	 1
  0015e	e8 00 00 00 00	 call	 ?update_pilot_rest_animation@@YGXH@Z ; update_pilot_rest_animation

; 2519 : 
; 2520 : 	set_pilot_animation (anim_data, 0.0, FALSE);

  00163	6a 00		 push	 0
  00165	51		 push	 ecx
  00166	0f 57 c0	 xorps	 xmm0, xmm0
  00169	f3 0f 11 04 24	 movss	 DWORD PTR [esp], xmm0
  0016e	8b 45 fc	 mov	 eax, DWORD PTR _anim_data$[ebp]
  00171	50		 push	 eax
  00172	e8 00 00 00 00	 call	 ?set_pilot_animation@@YGXPAUPILOT_ANIM_DATA@@MH@Z ; set_pilot_animation
$LN1@update_pil:

; 2521 : }

  00177	5f		 pop	 edi
  00178	5e		 pop	 esi
  00179	5b		 pop	 ebx
  0017a	8b e5		 mov	 esp, ebp
  0017c	5d		 pop	 ebp
  0017d	c3		 ret	 0
?update_pilot_hands_on_controls@@YGXXZ ENDP		; update_pilot_hands_on_controls
_TEXT	ENDS
; Function compile flags: /Odtp /ZI
; File c:\users\nhv90\projects\eech\aphavoc\source\gunships\cockpits\ka50\hm_pilot.c
;	COMDAT ?update_pilot_moving_controls_from_centre2@@YGXXZ
_TEXT	SEGMENT
_anim_data$ = -4					; size = 4
?update_pilot_moving_controls_from_centre2@@YGXXZ PROC	; update_pilot_moving_controls_from_centre2, COMDAT

; 2440 : {

  00000	55		 push	 ebp
  00001	8b ec		 mov	 ebp, esp
  00003	83 ec 44	 sub	 esp, 68			; 00000044H
  00006	53		 push	 ebx
  00007	56		 push	 esi
  00008	57		 push	 edi

; 2441 : 	pilot_anim_data
; 2442 : 		*anim_data;
; 2443 : 
; 2444 : 	anim_data = &pilot_main_anim_mode_moving_controls_from_centre2_anim_data;

  00009	c7 45 fc 00 00
	00 00		 mov	 DWORD PTR _anim_data$[ebp], OFFSET ?pilot_main_anim_mode_moving_controls_from_centre2_anim_data@@3UPILOT_ANIM_DATA@@A

; 2445 : 
; 2446 : 	anim_data->cyclic_x_position = cyclic_x_position - ((cyclic_x_position - 0.5) * 0.5);

  00010	f3 0f 5a 05 00
	00 00 00	 cvtss2sd xmm0, DWORD PTR ?cyclic_x_position@@3MA
  00018	f3 0f 5a 0d 00
	00 00 00	 cvtss2sd xmm1, DWORD PTR ?cyclic_x_position@@3MA
  00020	f2 0f 5c 0d 00
	00 00 00	 subsd	 xmm1, QWORD PTR __real@3fe0000000000000
  00028	f2 0f 59 0d 00
	00 00 00	 mulsd	 xmm1, QWORD PTR __real@3fe0000000000000
  00030	f2 0f 5c c1	 subsd	 xmm0, xmm1
  00034	f2 0f 5a c0	 cvtsd2ss xmm0, xmm0
  00038	8b 45 fc	 mov	 eax, DWORD PTR _anim_data$[ebp]
  0003b	f3 0f 11 40 08	 movss	 DWORD PTR [eax+8], xmm0

; 2447 : 
; 2448 : 	anim_data->cyclic_y_position = cyclic_y_position - ((cyclic_y_position - 0.5) * 0.5);

  00040	f3 0f 5a 05 00
	00 00 00	 cvtss2sd xmm0, DWORD PTR ?cyclic_y_position@@3MA
  00048	f3 0f 5a 0d 00
	00 00 00	 cvtss2sd xmm1, DWORD PTR ?cyclic_y_position@@3MA
  00050	f2 0f 5c 0d 00
	00 00 00	 subsd	 xmm1, QWORD PTR __real@3fe0000000000000
  00058	f2 0f 59 0d 00
	00 00 00	 mulsd	 xmm1, QWORD PTR __real@3fe0000000000000
  00060	f2 0f 5c c1	 subsd	 xmm0, xmm1
  00064	f2 0f 5a c0	 cvtsd2ss xmm0, xmm0
  00068	8b 45 fc	 mov	 eax, DWORD PTR _anim_data$[ebp]
  0006b	f3 0f 11 40 0c	 movss	 DWORD PTR [eax+12], xmm0

; 2449 : 
; 2450 : 	anim_data->collective_position = collective_position - ((collective_position - 0.5) * 0.5);

  00070	f3 0f 5a 05 00
	00 00 00	 cvtss2sd xmm0, DWORD PTR ?collective_position@@3MA
  00078	f3 0f 5a 0d 00
	00 00 00	 cvtss2sd xmm1, DWORD PTR ?collective_position@@3MA
  00080	f2 0f 5c 0d 00
	00 00 00	 subsd	 xmm1, QWORD PTR __real@3fe0000000000000
  00088	f2 0f 59 0d 00
	00 00 00	 mulsd	 xmm1, QWORD PTR __real@3fe0000000000000
  00090	f2 0f 5c c1	 subsd	 xmm0, xmm1
  00094	f2 0f 5a c0	 cvtsd2ss xmm0, xmm0
  00098	8b 45 fc	 mov	 eax, DWORD PTR _anim_data$[ebp]
  0009b	f3 0f 11 40 10	 movss	 DWORD PTR [eax+16], xmm0

; 2451 : 
; 2452 : 	anim_data->pedal_position = pedal_position - ((pedal_position - 0.5) * 0.5);

  000a0	f3 0f 5a 05 00
	00 00 00	 cvtss2sd xmm0, DWORD PTR ?pedal_position@@3MA
  000a8	f3 0f 5a 0d 00
	00 00 00	 cvtss2sd xmm1, DWORD PTR ?pedal_position@@3MA
  000b0	f2 0f 5c 0d 00
	00 00 00	 subsd	 xmm1, QWORD PTR __real@3fe0000000000000
  000b8	f2 0f 59 0d 00
	00 00 00	 mulsd	 xmm1, QWORD PTR __real@3fe0000000000000
  000c0	f2 0f 5c c1	 subsd	 xmm0, xmm1
  000c4	f2 0f 5a c0	 cvtsd2ss xmm0, xmm0
  000c8	8b 45 fc	 mov	 eax, DWORD PTR _anim_data$[ebp]
  000cb	f3 0f 11 40 14	 movss	 DWORD PTR [eax+20], xmm0

; 2453 : 
; 2454 : 	update_pilot_rest_animation (TRUE);

  000d0	6a 01		 push	 1
  000d2	e8 00 00 00 00	 call	 ?update_pilot_rest_animation@@YGXH@Z ; update_pilot_rest_animation

; 2455 : 
; 2456 : 	set_pilot_animation (anim_data, 0.0, FALSE);

  000d7	6a 00		 push	 0
  000d9	51		 push	 ecx
  000da	0f 57 c0	 xorps	 xmm0, xmm0
  000dd	f3 0f 11 04 24	 movss	 DWORD PTR [esp], xmm0
  000e2	8b 45 fc	 mov	 eax, DWORD PTR _anim_data$[ebp]
  000e5	50		 push	 eax
  000e6	e8 00 00 00 00	 call	 ?set_pilot_animation@@YGXPAUPILOT_ANIM_DATA@@MH@Z ; set_pilot_animation

; 2457 : 
; 2458 : 	pilot_main_anim_mode = PILOT_MAIN_ANIM_MODE_HANDS_ON_CONTROLS;

  000eb	c7 05 00 00 00
	00 04 00 00 00	 mov	 DWORD PTR ?pilot_main_anim_mode@@3W4PILOT_MAIN_ANIM_MODES@@A, 4

; 2459 : }

  000f5	5f		 pop	 edi
  000f6	5e		 pop	 esi
  000f7	5b		 pop	 ebx
  000f8	8b e5		 mov	 esp, ebp
  000fa	5d		 pop	 ebp
  000fb	c3		 ret	 0
?update_pilot_moving_controls_from_centre2@@YGXXZ ENDP	; update_pilot_moving_controls_from_centre2
_TEXT	ENDS
; Function compile flags: /Odtp /ZI
; File c:\users\nhv90\projects\eech\aphavoc\source\gunships\cockpits\ka50\hm_pilot.c
;	COMDAT ?update_pilot_moving_controls_from_centre1@@YGXXZ
_TEXT	SEGMENT
_anim_data$ = -4					; size = 4
?update_pilot_moving_controls_from_centre1@@YGXXZ PROC	; update_pilot_moving_controls_from_centre1, COMDAT

; 2422 : {

  00000	55		 push	 ebp
  00001	8b ec		 mov	 ebp, esp
  00003	83 ec 44	 sub	 esp, 68			; 00000044H
  00006	53		 push	 ebx
  00007	56		 push	 esi
  00008	57		 push	 edi

; 2423 : 	pilot_anim_data
; 2424 : 		*anim_data;
; 2425 : 
; 2426 : 	anim_data = &pilot_main_anim_mode_moving_controls_from_centre1_anim_data;

  00009	c7 45 fc 00 00
	00 00		 mov	 DWORD PTR _anim_data$[ebp], OFFSET ?pilot_main_anim_mode_moving_controls_from_centre1_anim_data@@3UPILOT_ANIM_DATA@@A

; 2427 : 
; 2428 : 	update_pilot_rest_animation (TRUE);

  00010	6a 01		 push	 1
  00012	e8 00 00 00 00	 call	 ?update_pilot_rest_animation@@YGXH@Z ; update_pilot_rest_animation

; 2429 : 
; 2430 : 	set_pilot_animation (anim_data, 0.0, FALSE);

  00017	6a 00		 push	 0
  00019	51		 push	 ecx
  0001a	0f 57 c0	 xorps	 xmm0, xmm0
  0001d	f3 0f 11 04 24	 movss	 DWORD PTR [esp], xmm0
  00022	8b 45 fc	 mov	 eax, DWORD PTR _anim_data$[ebp]
  00025	50		 push	 eax
  00026	e8 00 00 00 00	 call	 ?set_pilot_animation@@YGXPAUPILOT_ANIM_DATA@@MH@Z ; set_pilot_animation

; 2431 : 
; 2432 : 	pilot_main_anim_mode = PILOT_MAIN_ANIM_MODE_MOVING_CONTROLS_FROM_CENTRE2;

  0002b	c7 05 00 00 00
	00 03 00 00 00	 mov	 DWORD PTR ?pilot_main_anim_mode@@3W4PILOT_MAIN_ANIM_MODES@@A, 3

; 2433 : }

  00035	5f		 pop	 edi
  00036	5e		 pop	 esi
  00037	5b		 pop	 ebx
  00038	8b e5		 mov	 esp, ebp
  0003a	5d		 pop	 ebp
  0003b	c3		 ret	 0
?update_pilot_moving_controls_from_centre1@@YGXXZ ENDP	; update_pilot_moving_controls_from_centre1
_TEXT	ENDS
; Function compile flags: /Odtp /ZI
; File c:\users\nhv90\projects\eech\aphavoc\source\gunships\cockpits\ka50\hm_pilot.c
;	COMDAT ?update_pilot_taking_controls@@YGXXZ
_TEXT	SEGMENT
tv76 = -80						; size = 4
tv69 = -76						; size = 4
$T1 = -72						; size = 4
_anim_data$ = -4					; size = 4
?update_pilot_taking_controls@@YGXXZ PROC		; update_pilot_taking_controls, COMDAT

; 2388 : {

  00000	55		 push	 ebp
  00001	8b ec		 mov	 ebp, esp
  00003	83 ec 50	 sub	 esp, 80			; 00000050H
  00006	53		 push	 ebx
  00007	56		 push	 esi
  00008	57		 push	 edi

; 2389 : 	pilot_anim_data
; 2390 : 		*anim_data;
; 2391 : 
; 2392 : 	if (get_local_entity_int_value (get_gunship_entity (), INT_TYPE_AUTO_PILOT))

  00009	83 3d 00 00 00
	00 00		 cmp	 DWORD PTR ?gunship_entity@@3PAUENTITY@@A, 0 ; gunship_entity
  00010	74 0c		 je	 SHORT $LN5@update_pil
  00012	a1 00 00 00 00	 mov	 eax, DWORD PTR ?gunship_entity@@3PAUENTITY@@A ; gunship_entity
  00017	8b 08		 mov	 ecx, DWORD PTR [eax]
  00019	89 4d b4	 mov	 DWORD PTR tv69[ebp], ecx
  0001c	eb 1d		 jmp	 SHORT $LN6@update_pil
$LN5@update_pil:
  0001e	68 58 09 00 00	 push	 2392			; 00000958H
  00023	68 00 00 00 00	 push	 OFFSET ??_C@_0EO@MOFNGMIK@c?3?2users?2nhv90?2projects?2eech?2ap@
  00028	8b 15 00 00 00
	00		 mov	 edx, DWORD PTR ?null_entity_pointer_message@@3PBDB ; null_entity_pointer_message
  0002e	52		 push	 edx
  0002f	e8 00 00 00 00	 call	 ?process_assert@@YGXPBD0H@Z ; process_assert
  00034	c7 45 b4 00 00
	00 00		 mov	 DWORD PTR tv69[ebp], 0
$LN6@update_pil:
  0003b	b8 01 00 00 00	 mov	 eax, 1
  00040	85 c0		 test	 eax, eax
  00042	74 09		 je	 SHORT $LN7@update_pil
  00044	c7 45 b0 0c 00
	00 00		 mov	 DWORD PTR tv76[ebp], 12	; 0000000cH
  0004b	eb 1d		 jmp	 SHORT $LN8@update_pil
$LN7@update_pil:
  0004d	68 58 09 00 00	 push	 2392			; 00000958H
  00052	68 00 00 00 00	 push	 OFFSET ??_C@_0EO@MOFNGMIK@c?3?2users?2nhv90?2projects?2eech?2ap@
  00057	8b 0d 00 00 00
	00		 mov	 ecx, DWORD PTR ?overload_invalid_int_type_message@@3PBDB ; overload_invalid_int_type_message
  0005d	51		 push	 ecx
  0005e	e8 00 00 00 00	 call	 ?process_assert@@YGXPBD0H@Z ; process_assert
  00063	c7 45 b0 00 00
	00 00		 mov	 DWORD PTR tv76[ebp], 0
$LN8@update_pil:
  0006a	6a 0c		 push	 12			; 0000000cH
  0006c	8b 15 00 00 00
	00		 mov	 edx, DWORD PTR ?gunship_entity@@3PAUENTITY@@A ; gunship_entity
  00072	52		 push	 edx
  00073	69 45 b4 5c 04
	00 00		 imul	 eax, DWORD PTR tv69[ebp], 1116
  0007a	8b 4d b0	 mov	 ecx, DWORD PTR tv76[ebp]
  0007d	8b 94 88 00 00
	00 00		 mov	 edx, DWORD PTR ?fn_get_local_entity_int_value@@3PAY0BBH@P6GHPAUENTITY@@W4INT_TYPES@@@ZA[eax+ecx*4]
  00084	ff d2		 call	 edx
  00086	85 c0		 test	 eax, eax
  00088	74 14		 je	 SHORT $LN2@update_pil

; 2393 : 	{
; 2394 : 		pilot_main_anim_mode = PILOT_MAIN_ANIM_MODE_RELEASING_CONTROLS;

  0008a	c7 05 00 00 00
	00 07 00 00 00	 mov	 DWORD PTR ?pilot_main_anim_mode@@3W4PILOT_MAIN_ANIM_MODES@@A, 7

; 2395 : 
; 2396 : 		update_pilot_releasing_controls ();

  00094	e8 00 00 00 00	 call	 ?update_pilot_releasing_controls@@YGXXZ ; update_pilot_releasing_controls

; 2397 : 
; 2398 : 		return;

  00099	e9 81 00 00 00	 jmp	 $LN1@update_pil
$LN2@update_pil:

; 2399 : 	}
; 2400 : 
; 2401 : 	anim_data = &pilot_main_anim_mode_taking_controls_anim_data;

  0009e	c7 45 fc 00 00
	00 00		 mov	 DWORD PTR _anim_data$[ebp], OFFSET ?pilot_main_anim_mode_taking_controls_anim_data@@3UPILOT_ANIM_DATA@@A

; 2402 : 
; 2403 : 	pilot_main_anim_frame -= get_delta_time ();

  000a5	f3 0f 10 05 00
	00 00 00	 movss	 xmm0, DWORD PTR ?pilot_main_anim_frame@@3MA
  000ad	f3 0f 5c 05 00
	00 00 00	 subss	 xmm0, DWORD PTR ?system_delta_time@@3MA
  000b5	f3 0f 11 05 00
	00 00 00	 movss	 DWORD PTR ?pilot_main_anim_frame@@3MA, xmm0

; 2404 : 
; 2405 : 	pilot_main_anim_frame = max (pilot_main_anim_frame, 0.0f);

  000bd	0f 57 c0	 xorps	 xmm0, xmm0
  000c0	f3 0f 11 45 b8	 movss	 DWORD PTR $T1[ebp], xmm0
  000c5	8d 45 b8	 lea	 eax, DWORD PTR $T1[ebp]
  000c8	50		 push	 eax
  000c9	68 00 00 00 00	 push	 OFFSET ?pilot_main_anim_frame@@3MA
  000ce	e8 00 00 00 00	 call	 ??$max@M@std@@YGABMABM0@Z ; std::max<float>
  000d3	f3 0f 10 00	 movss	 xmm0, DWORD PTR [eax]
  000d7	f3 0f 11 05 00
	00 00 00	 movss	 DWORD PTR ?pilot_main_anim_frame@@3MA, xmm0

; 2406 : 
; 2407 : 	update_pilot_rest_animation (TRUE);

  000df	6a 01		 push	 1
  000e1	e8 00 00 00 00	 call	 ?update_pilot_rest_animation@@YGXH@Z ; update_pilot_rest_animation

; 2408 : 
; 2409 : 	set_pilot_animation (anim_data, pilot_main_anim_frame, FALSE);

  000e6	6a 00		 push	 0
  000e8	51		 push	 ecx
  000e9	f3 0f 10 05 00
	00 00 00	 movss	 xmm0, DWORD PTR ?pilot_main_anim_frame@@3MA
  000f1	f3 0f 11 04 24	 movss	 DWORD PTR [esp], xmm0
  000f6	8b 45 fc	 mov	 eax, DWORD PTR _anim_data$[ebp]
  000f9	50		 push	 eax
  000fa	e8 00 00 00 00	 call	 ?set_pilot_animation@@YGXPAUPILOT_ANIM_DATA@@MH@Z ; set_pilot_animation

; 2410 : 
; 2411 : 	if (pilot_main_anim_frame == 0.0)

  000ff	f3 0f 5a 05 00
	00 00 00	 cvtss2sd xmm0, DWORD PTR ?pilot_main_anim_frame@@3MA
  00107	66 0f 2e 05 00
	00 00 00	 ucomisd xmm0, QWORD PTR __real@0000000000000000
  0010f	9f		 lahf
  00110	f6 c4 44	 test	 ah, 68			; 00000044H
  00113	7a 0a		 jp	 SHORT $LN3@update_pil

; 2412 : 	{
; 2413 : 		pilot_main_anim_mode = PILOT_MAIN_ANIM_MODE_MOVING_CONTROLS_FROM_CENTRE1;

  00115	c7 05 00 00 00
	00 02 00 00 00	 mov	 DWORD PTR ?pilot_main_anim_mode@@3W4PILOT_MAIN_ANIM_MODES@@A, 2
$LN3@update_pil:
$LN1@update_pil:

; 2414 : 	}
; 2415 : }

  0011f	5f		 pop	 edi
  00120	5e		 pop	 esi
  00121	5b		 pop	 ebx
  00122	8b e5		 mov	 esp, ebp
  00124	5d		 pop	 ebp
  00125	c3		 ret	 0
?update_pilot_taking_controls@@YGXXZ ENDP		; update_pilot_taking_controls
_TEXT	ENDS
; Function compile flags: /Odtp /ZI
; File c:\users\nhv90\projects\eech\aphavoc\source\gunships\cockpits\ka50\hm_pilot.c
;	COMDAT ?update_pilot_hands_off_controls@@YGXXZ
_TEXT	SEGMENT
tv129 = -72						; size = 4
tv76 = -72						; size = 4
tv90 = -68						; size = 4
tv69 = -68						; size = 4
?update_pilot_hands_off_controls@@YGXXZ PROC		; update_pilot_hands_off_controls, COMDAT

; 2329 : {

  00000	55		 push	 ebp
  00001	8b ec		 mov	 ebp, esp
  00003	83 ec 48	 sub	 esp, 72			; 00000048H
  00006	53		 push	 ebx
  00007	56		 push	 esi
  00008	57		 push	 edi

; 2330 : 	if (!get_local_entity_int_value (get_gunship_entity (), INT_TYPE_AUTO_PILOT))

  00009	83 3d 00 00 00
	00 00		 cmp	 DWORD PTR ?gunship_entity@@3PAUENTITY@@A, 0 ; gunship_entity
  00010	74 0c		 je	 SHORT $LN12@update_pil
  00012	a1 00 00 00 00	 mov	 eax, DWORD PTR ?gunship_entity@@3PAUENTITY@@A ; gunship_entity
  00017	8b 08		 mov	 ecx, DWORD PTR [eax]
  00019	89 4d bc	 mov	 DWORD PTR tv69[ebp], ecx
  0001c	eb 1d		 jmp	 SHORT $LN13@update_pil
$LN12@update_pil:
  0001e	68 1a 09 00 00	 push	 2330			; 0000091aH
  00023	68 00 00 00 00	 push	 OFFSET ??_C@_0EO@MOFNGMIK@c?3?2users?2nhv90?2projects?2eech?2ap@
  00028	8b 15 00 00 00
	00		 mov	 edx, DWORD PTR ?null_entity_pointer_message@@3PBDB ; null_entity_pointer_message
  0002e	52		 push	 edx
  0002f	e8 00 00 00 00	 call	 ?process_assert@@YGXPBD0H@Z ; process_assert
  00034	c7 45 bc 00 00
	00 00		 mov	 DWORD PTR tv69[ebp], 0
$LN13@update_pil:
  0003b	b8 01 00 00 00	 mov	 eax, 1
  00040	85 c0		 test	 eax, eax
  00042	74 09		 je	 SHORT $LN14@update_pil
  00044	c7 45 b8 0c 00
	00 00		 mov	 DWORD PTR tv76[ebp], 12	; 0000000cH
  0004b	eb 1d		 jmp	 SHORT $LN15@update_pil
$LN14@update_pil:
  0004d	68 1a 09 00 00	 push	 2330			; 0000091aH
  00052	68 00 00 00 00	 push	 OFFSET ??_C@_0EO@MOFNGMIK@c?3?2users?2nhv90?2projects?2eech?2ap@
  00057	8b 0d 00 00 00
	00		 mov	 ecx, DWORD PTR ?overload_invalid_int_type_message@@3PBDB ; overload_invalid_int_type_message
  0005d	51		 push	 ecx
  0005e	e8 00 00 00 00	 call	 ?process_assert@@YGXPBD0H@Z ; process_assert
  00063	c7 45 b8 00 00
	00 00		 mov	 DWORD PTR tv76[ebp], 0
$LN15@update_pil:
  0006a	6a 0c		 push	 12			; 0000000cH
  0006c	8b 15 00 00 00
	00		 mov	 edx, DWORD PTR ?gunship_entity@@3PAUENTITY@@A ; gunship_entity
  00072	52		 push	 edx
  00073	69 45 bc 5c 04
	00 00		 imul	 eax, DWORD PTR tv69[ebp], 1116
  0007a	8b 4d b8	 mov	 ecx, DWORD PTR tv76[ebp]
  0007d	8b 94 88 00 00
	00 00		 mov	 edx, DWORD PTR ?fn_get_local_entity_int_value@@3PAY0BBH@P6GHPAUENTITY@@W4INT_TYPES@@@ZA[eax+ecx*4]
  00084	ff d2		 call	 edx
  00086	85 c0		 test	 eax, eax
  00088	75 28		 jne	 SHORT $LN3@update_pil

; 2331 : 	{
; 2332 : 		if (!get_pilot_rest_anim_mode_body_animation ())

  0008a	e8 00 00 00 00	 call	 ?get_pilot_rest_anim_mode_body_animation@@YGHXZ ; get_pilot_rest_anim_mode_body_animation
  0008f	85 c0		 test	 eax, eax
  00091	75 1f		 jne	 SHORT $LN3@update_pil

; 2333 : 		{
; 2334 : 			pilot_main_anim_mode = PILOT_MAIN_ANIM_MODE_TAKING_CONTROLS;

  00093	c7 05 00 00 00
	00 01 00 00 00	 mov	 DWORD PTR ?pilot_main_anim_mode@@3W4PILOT_MAIN_ANIM_MODES@@A, 1

; 2335 : 
; 2336 : 			pilot_head_anim_pause = 0.0;

  0009d	0f 57 c0	 xorps	 xmm0, xmm0
  000a0	f3 0f 11 05 00
	00 00 00	 movss	 DWORD PTR ?pilot_head_anim_pause@@3MA, xmm0

; 2337 : 
; 2338 : 			update_pilot_taking_controls ();

  000a8	e8 00 00 00 00	 call	 ?update_pilot_taking_controls@@YGXXZ ; update_pilot_taking_controls

; 2339 : 
; 2340 : 			return;

  000ad	e9 30 01 00 00	 jmp	 $LN1@update_pil
$LN3@update_pil:

; 2341 : 		}
; 2342 : 	}
; 2343 : 
; 2344 : 	////////////////////////////////////////
; 2345 : 
; 2346 : 	if (!get_local_entity_int_value (get_gunship_entity (), INT_TYPE_EJECTED))

  000b2	83 3d 00 00 00
	00 00		 cmp	 DWORD PTR ?gunship_entity@@3PAUENTITY@@A, 0 ; gunship_entity
  000b9	74 0c		 je	 SHORT $LN16@update_pil
  000bb	a1 00 00 00 00	 mov	 eax, DWORD PTR ?gunship_entity@@3PAUENTITY@@A ; gunship_entity
  000c0	8b 08		 mov	 ecx, DWORD PTR [eax]
  000c2	89 4d bc	 mov	 DWORD PTR tv90[ebp], ecx
  000c5	eb 1d		 jmp	 SHORT $LN17@update_pil
$LN16@update_pil:
  000c7	68 2a 09 00 00	 push	 2346			; 0000092aH
  000cc	68 00 00 00 00	 push	 OFFSET ??_C@_0EO@MOFNGMIK@c?3?2users?2nhv90?2projects?2eech?2ap@
  000d1	8b 15 00 00 00
	00		 mov	 edx, DWORD PTR ?null_entity_pointer_message@@3PBDB ; null_entity_pointer_message
  000d7	52		 push	 edx
  000d8	e8 00 00 00 00	 call	 ?process_assert@@YGXPBD0H@Z ; process_assert
  000dd	c7 45 bc 00 00
	00 00		 mov	 DWORD PTR tv90[ebp], 0
$LN17@update_pil:
  000e4	b8 01 00 00 00	 mov	 eax, 1
  000e9	85 c0		 test	 eax, eax
  000eb	74 09		 je	 SHORT $LN18@update_pil
  000ed	c7 45 b8 31 00
	00 00		 mov	 DWORD PTR tv129[ebp], 49 ; 00000031H
  000f4	eb 1d		 jmp	 SHORT $LN19@update_pil
$LN18@update_pil:
  000f6	68 2a 09 00 00	 push	 2346			; 0000092aH
  000fb	68 00 00 00 00	 push	 OFFSET ??_C@_0EO@MOFNGMIK@c?3?2users?2nhv90?2projects?2eech?2ap@
  00100	8b 0d 00 00 00
	00		 mov	 ecx, DWORD PTR ?overload_invalid_int_type_message@@3PBDB ; overload_invalid_int_type_message
  00106	51		 push	 ecx
  00107	e8 00 00 00 00	 call	 ?process_assert@@YGXPBD0H@Z ; process_assert
  0010c	c7 45 b8 00 00
	00 00		 mov	 DWORD PTR tv129[ebp], 0
$LN19@update_pil:
  00113	6a 31		 push	 49			; 00000031H
  00115	8b 15 00 00 00
	00		 mov	 edx, DWORD PTR ?gunship_entity@@3PAUENTITY@@A ; gunship_entity
  0011b	52		 push	 edx
  0011c	69 45 bc 5c 04
	00 00		 imul	 eax, DWORD PTR tv90[ebp], 1116
  00123	8b 4d b8	 mov	 ecx, DWORD PTR tv129[ebp]
  00126	8b 94 88 00 00
	00 00		 mov	 edx, DWORD PTR ?fn_get_local_entity_int_value@@3PAY0BBH@P6GHPAUENTITY@@W4INT_TYPES@@@ZA[eax+ecx*4]
  0012d	ff d2		 call	 edx
  0012f	85 c0		 test	 eax, eax
  00131	0f 85 a4 00 00
	00		 jne	 $LN10@update_pil

; 2347 : 	{
; 2348 : 		if (pilot_rest_anim_mode != PILOT_REST_ANIM_MODE_LEFT_HAND_TO_NVG)

  00137	83 3d 00 00 00
	00 04		 cmp	 DWORD PTR ?pilot_rest_anim_mode@@3W4PILOT_REST_ANIM_MODES@@A, 4
  0013e	0f 84 97 00 00
	00		 je	 $LN10@update_pil

; 2349 : 		{
; 2350 : 			if
; 2351 : 			(
; 2352 : 				(night_vision_system_active && (pilot_nvg_anim_frame == NVG_OFF)) ||

  00144	83 3d 00 00 00
	00 00		 cmp	 DWORD PTR ?night_vision_system_active@@3HA, 0 ; night_vision_system_active
  0014b	74 15		 je	 SHORT $LN8@update_pil
  0014d	f3 0f 10 05 00
	00 00 00	 movss	 xmm0, DWORD PTR ?pilot_nvg_anim_frame@@3MA
  00155	0f 2e 05 00 00
	00 00		 ucomiss xmm0, DWORD PTR __real@00000000
  0015c	9f		 lahf
  0015d	f6 c4 44	 test	 ah, 68			; 00000044H
  00160	7b 1e		 jnp	 SHORT $LN7@update_pil
$LN8@update_pil:
  00162	83 3d 00 00 00
	00 00		 cmp	 DWORD PTR ?night_vision_system_active@@3HA, 0 ; night_vision_system_active
  00169	75 70		 jne	 SHORT $LN10@update_pil
  0016b	f3 0f 10 05 00
	00 00 00	 movss	 xmm0, DWORD PTR ?pilot_nvg_anim_frame@@3MA
  00173	0f 2e 05 00 00
	00 00		 ucomiss xmm0, DWORD PTR __real@3f800000
  0017a	9f		 lahf
  0017b	f6 c4 44	 test	 ah, 68			; 00000044H
  0017e	7a 5b		 jp	 SHORT $LN10@update_pil
$LN7@update_pil:

; 2353 : 				(!night_vision_system_active && (pilot_nvg_anim_frame == NVG_ON))
; 2354 : 			)
; 2355 : 			{
; 2356 : 				if (pilot_rest_anim_mode != PILOT_REST_ANIM_MODE_NONE)

  00180	83 3d 00 00 00
	00 00		 cmp	 DWORD PTR ?pilot_rest_anim_mode@@3W4PILOT_REST_ANIM_MODES@@A, 0
  00187	74 0d		 je	 SHORT $LN9@update_pil

; 2357 : 				{
; 2358 : 					pilot_head_anim_pause = 0.0;

  00189	0f 57 c0	 xorps	 xmm0, xmm0
  0018c	f3 0f 11 05 00
	00 00 00	 movss	 DWORD PTR ?pilot_head_anim_pause@@3MA, xmm0

; 2359 : 				}
; 2360 : 				else

  00194	eb 45		 jmp	 SHORT $LN10@update_pil
$LN9@update_pil:

; 2361 : 				{
; 2362 : 					pilot_rest_anim_mode = PILOT_REST_ANIM_MODE_LEFT_HAND_TO_NVG;

  00196	c7 05 00 00 00
	00 04 00 00 00	 mov	 DWORD PTR ?pilot_rest_anim_mode@@3W4PILOT_REST_ANIM_MODES@@A, 4

; 2363 : 
; 2364 : 					previous_random_pilot_rest_anim_mode = pilot_rest_anim_mode;

  001a0	a1 00 00 00 00	 mov	 eax, DWORD PTR ?pilot_rest_anim_mode@@3W4PILOT_REST_ANIM_MODES@@A
  001a5	a3 00 00 00 00	 mov	 DWORD PTR ?previous_random_pilot_rest_anim_mode@@3W4PILOT_REST_ANIM_MODES@@A, eax

; 2365 : 
; 2366 : 					pilot_rest_anim_frame = 0.0;

  001aa	0f 57 c0	 xorps	 xmm0, xmm0
  001ad	f3 0f 11 05 00
	00 00 00	 movss	 DWORD PTR ?pilot_rest_anim_frame@@3MA, xmm0

; 2367 : 
; 2368 : 					pilot_rest_anim_delay = get_reset_pilot_rest_anim_delay ();

  001b5	e8 00 00 00 00	 call	 ?get_reset_pilot_rest_anim_delay@@YGMXZ ; get_reset_pilot_rest_anim_delay
  001ba	d9 1d 00 00 00
	00		 fstp	 DWORD PTR ?pilot_rest_anim_delay@@3MA

; 2369 : 
; 2370 : 					pilot_head_anim_frame = NO_PILOT_HEAD_ANIMATION;

  001c0	f3 0f 10 05 00
	00 00 00	 movss	 xmm0, DWORD PTR __real@bf800000
  001c8	f3 0f 11 05 00
	00 00 00	 movss	 DWORD PTR ?pilot_head_anim_frame@@3MA, xmm0

; 2371 : 
; 2372 : 					pilot_head_anim_pause = 0.0;

  001d0	0f 57 c0	 xorps	 xmm0, xmm0
  001d3	f3 0f 11 05 00
	00 00 00	 movss	 DWORD PTR ?pilot_head_anim_pause@@3MA, xmm0
$LN10@update_pil:

; 2373 : 				}
; 2374 : 			}
; 2375 : 		}
; 2376 : 	}
; 2377 : 
; 2378 : 	////////////////////////////////////////
; 2379 : 
; 2380 : 	update_pilot_rest_animation (FALSE);

  001db	6a 00		 push	 0
  001dd	e8 00 00 00 00	 call	 ?update_pilot_rest_animation@@YGXH@Z ; update_pilot_rest_animation
$LN1@update_pil:

; 2381 : }

  001e2	5f		 pop	 edi
  001e3	5e		 pop	 esi
  001e4	5b		 pop	 ebx
  001e5	8b e5		 mov	 esp, ebp
  001e7	5d		 pop	 ebp
  001e8	c3		 ret	 0
?update_pilot_hands_off_controls@@YGXXZ ENDP		; update_pilot_hands_off_controls
_TEXT	ENDS
; Function compile flags: /Odtp /ZI
; File c:\users\nhv90\projects\eech\aphavoc\source\gunships\cockpits\ka50\hm_pilot.c
;	COMDAT ?reset_ka50_pilot_eject_sequence@@YGXXZ
_TEXT	SEGMENT
?reset_ka50_pilot_eject_sequence@@YGXXZ PROC		; reset_ka50_pilot_eject_sequence, COMDAT

; 3225 : {

  00000	55		 push	 ebp
  00001	8b ec		 mov	 ebp, esp
  00003	83 ec 40	 sub	 esp, 64			; 00000040H
  00006	53		 push	 ebx
  00007	56		 push	 esi
  00008	57		 push	 edi

; 3226 : 	eject_timer = 0.0;

  00009	0f 57 c0	 xorps	 xmm0, xmm0
  0000c	f3 0f 11 05 00
	00 00 00	 movss	 DWORD PTR ?eject_timer@@3MA, xmm0

; 3227 : 
; 3228 : 	eject_stage = 0;

  00014	c7 05 00 00 00
	00 00 00 00 00	 mov	 DWORD PTR ?eject_stage@@3HA, 0

; 3229 : 
; 3230 : 	//
; 3231 : 	// set main anim
; 3232 : 	//
; 3233 : 
; 3234 : 	pilot_main_anim_mode = PILOT_MAIN_ANIM_MODE_HANDS_OFF_CONTROLS;

  0001e	c7 05 00 00 00
	00 00 00 00 00	 mov	 DWORD PTR ?pilot_main_anim_mode@@3W4PILOT_MAIN_ANIM_MODES@@A, 0

; 3235 : 
; 3236 : 	pilot_main_anim_frame = 1.0;

  00028	f3 0f 10 05 00
	00 00 00	 movss	 xmm0, DWORD PTR __real@3f800000
  00030	f3 0f 11 05 00
	00 00 00	 movss	 DWORD PTR ?pilot_main_anim_frame@@3MA, xmm0

; 3237 : 
; 3238 : 	//
; 3239 : 	// set rest anim
; 3240 : 	//
; 3241 : 
; 3242 : 	pilot_rest_anim_mode = PILOT_REST_ANIM_MODE_NONE;

  00038	c7 05 00 00 00
	00 00 00 00 00	 mov	 DWORD PTR ?pilot_rest_anim_mode@@3W4PILOT_REST_ANIM_MODES@@A, 0

; 3243 : 
; 3244 : 	previous_random_pilot_rest_anim_mode = PILOT_REST_ANIM_MODE_NONE;

  00042	c7 05 00 00 00
	00 00 00 00 00	 mov	 DWORD PTR ?previous_random_pilot_rest_anim_mode@@3W4PILOT_REST_ANIM_MODES@@A, 0

; 3245 : 
; 3246 : 	pilot_rest_anim_frame = 0.0;

  0004c	0f 57 c0	 xorps	 xmm0, xmm0
  0004f	f3 0f 11 05 00
	00 00 00	 movss	 DWORD PTR ?pilot_rest_anim_frame@@3MA, xmm0

; 3247 : 
; 3248 : 	pilot_rest_anim_delay = get_reset_pilot_rest_anim_delay ();

  00057	e8 00 00 00 00	 call	 ?get_reset_pilot_rest_anim_delay@@YGMXZ ; get_reset_pilot_rest_anim_delay
  0005c	d9 1d 00 00 00
	00		 fstp	 DWORD PTR ?pilot_rest_anim_delay@@3MA

; 3249 : 
; 3250 : 	pilot_head_anim_frame = NO_PILOT_HEAD_ANIMATION;

  00062	f3 0f 10 05 00
	00 00 00	 movss	 xmm0, DWORD PTR __real@bf800000
  0006a	f3 0f 11 05 00
	00 00 00	 movss	 DWORD PTR ?pilot_head_anim_frame@@3MA, xmm0

; 3251 : 
; 3252 : 	pilot_head_anim_pause = 0.0;

  00072	0f 57 c0	 xorps	 xmm0, xmm0
  00075	f3 0f 11 05 00
	00 00 00	 movss	 DWORD PTR ?pilot_head_anim_pause@@3MA, xmm0

; 3253 : 
; 3254 : 	if (night_vision_system_active)

  0007d	83 3d 00 00 00
	00 00		 cmp	 DWORD PTR ?night_vision_system_active@@3HA, 0 ; night_vision_system_active
  00084	74 12		 je	 SHORT $LN2@reset_ka50

; 3255 : 	{
; 3256 : 		pilot_nvg_anim_frame = NVG_ON;

  00086	f3 0f 10 05 00
	00 00 00	 movss	 xmm0, DWORD PTR __real@3f800000
  0008e	f3 0f 11 05 00
	00 00 00	 movss	 DWORD PTR ?pilot_nvg_anim_frame@@3MA, xmm0

; 3257 : 	}
; 3258 : 	else

  00096	eb 0b		 jmp	 SHORT $LN3@reset_ka50
$LN2@reset_ka50:

; 3259 : 	{
; 3260 : 		pilot_nvg_anim_frame = NVG_OFF;

  00098	0f 57 c0	 xorps	 xmm0, xmm0
  0009b	f3 0f 11 05 00
	00 00 00	 movss	 DWORD PTR ?pilot_nvg_anim_frame@@3MA, xmm0
$LN3@reset_ka50:

; 3261 : 	}
; 3262 : }

  000a3	5f		 pop	 edi
  000a4	5e		 pop	 esi
  000a5	5b		 pop	 ebx
  000a6	8b e5		 mov	 esp, ebp
  000a8	5d		 pop	 ebp
  000a9	c3		 ret	 0
?reset_ka50_pilot_eject_sequence@@YGXXZ ENDP		; reset_ka50_pilot_eject_sequence
_TEXT	ENDS
; Function compile flags: /Odtp /ZI
; File c:\users\nhv90\projects\eech\aphavoc\source\gunships\cockpits\ka50\hm_pilot.c
;	COMDAT ?get_ka50_pilot_head_pitch_datum@@YGMXZ
_TEXT	SEGMENT
_search$ = -60						; size = 56
_relative_pitch$ = -4					; size = 4
?get_ka50_pilot_head_pitch_datum@@YGMXZ PROC		; get_ka50_pilot_head_pitch_datum, COMDAT

; 3193 : {

  00000	55		 push	 ebp
  00001	8b ec		 mov	 ebp, esp
  00003	83 ec 7c	 sub	 esp, 124		; 0000007cH
  00006	53		 push	 ebx
  00007	56		 push	 esi
  00008	57		 push	 edi

; 3194 : 	float
; 3195 : 		relative_pitch;
; 3196 : 
; 3197 : 	object_3d_sub_object_search_data
; 3198 : 		search;
; 3199 : 
; 3200 : 	ASSERT (get_gunship_entity ());

  00009	83 3d 00 00 00
	00 00		 cmp	 DWORD PTR ?gunship_entity@@3PAUENTITY@@A, 0 ; gunship_entity
  00010	75 18		 jne	 SHORT $LN2@get_ka50_p
  00012	a1 00 00 00 00	 mov	 eax, DWORD PTR ?__LINE__Var@?0??get_ka50_pilot_head_pitch_datum@@YGMXZ@4JA
  00017	83 c0 07	 add	 eax, 7
  0001a	50		 push	 eax
  0001b	68 00 00 00 00	 push	 OFFSET ??_C@_0EO@MOFNGMIK@c?3?2users?2nhv90?2projects?2eech?2ap@
  00020	68 00 00 00 00	 push	 OFFSET ??_C@_0BG@EANNPEON@get_gunship_entity?5?$CI?$CJ@
  00025	e8 00 00 00 00	 call	 ?process_assert@@YGXPBD0H@Z ; process_assert
$LN2@get_ka50_p:

; 3201 : 
; 3202 : 	ASSERT (virtual_cockpit_inst3d);

  0002a	83 3d 00 00 00
	00 00		 cmp	 DWORD PTR ?virtual_cockpit_inst3d@@3PAUOBJECT_3D_INSTANCE@@A, 0 ; virtual_cockpit_inst3d
  00031	75 18		 jne	 SHORT $LN3@get_ka50_p
  00033	a1 00 00 00 00	 mov	 eax, DWORD PTR ?__LINE__Var@?0??get_ka50_pilot_head_pitch_datum@@YGMXZ@4JA
  00038	83 c0 09	 add	 eax, 9
  0003b	50		 push	 eax
  0003c	68 00 00 00 00	 push	 OFFSET ??_C@_0EO@MOFNGMIK@c?3?2users?2nhv90?2projects?2eech?2ap@
  00041	68 00 00 00 00	 push	 OFFSET ??_C@_0BH@OJOOJLIP@virtual_cockpit_inst3d@
  00046	e8 00 00 00 00	 call	 ?process_assert@@YGXPBD0H@Z ; process_assert
$LN3@get_ka50_p:

; 3203 : 
; 3204 : 	search.search_depth = 0;

  0004b	c7 45 cc 00 00
	00 00		 mov	 DWORD PTR _search$[ebp+8], 0

; 3205 : 	search.search_object = virtual_cockpit_inst3d;

  00052	a1 00 00 00 00	 mov	 eax, DWORD PTR ?virtual_cockpit_inst3d@@3PAUOBJECT_3D_INSTANCE@@A ; virtual_cockpit_inst3d
  00057	89 45 c4	 mov	 DWORD PTR _search$[ebp], eax

; 3206 : 	search.sub_object_index = OBJECT_3D_SUB_OBJECT_PILOT_HEAD;

  0005a	c7 45 d0 bf 00
	00 00		 mov	 DWORD PTR _search$[ebp+12], 191 ; 000000bfH

; 3207 : 
; 3208 : 	if (find_object_3d_sub_object (&search) == SUB_OBJECT_SEARCH_RESULT_OBJECT_FOUND)

  00061	8d 45 c4	 lea	 eax, DWORD PTR _search$[ebp]
  00064	50		 push	 eax
  00065	e8 00 00 00 00	 call	 ?find_object_3d_sub_object@@YG?AW4SUB_OBJECT_SEARCH_RESULT_TYPES@@PAUOBJECT_3D_SUB_OBJECT_SEARCH_DATA@@@Z ; find_object_3d_sub_object
  0006a	83 f8 01	 cmp	 eax, 1
  0006d	75 0f		 jne	 SHORT $LN4@get_ka50_p

; 3209 : 	{
; 3210 : 		relative_pitch = search.result_sub_object->relative_pitch;

  0006f	8b 45 c8	 mov	 eax, DWORD PTR _search$[ebp+4]
  00072	f3 0f 10 40 1c	 movss	 xmm0, DWORD PTR [eax+28]
  00077	f3 0f 11 45 fc	 movss	 DWORD PTR _relative_pitch$[ebp], xmm0

; 3211 : 	}
; 3212 : 	else

  0007c	eb 0d		 jmp	 SHORT $LN5@get_ka50_p
$LN4@get_ka50_p:

; 3213 : 	{
; 3214 : 		debug_fatal ("Failed to locate pilot's head in virtual cockpit");

  0007e	68 00 00 00 00	 push	 OFFSET ??_C@_0DB@HGENAKO@Failed?5to?5locate?5pilot?8s?5head?5i@
  00083	e8 00 00 00 00	 call	 ?debug_fatal@@YAXPBDZZ	; debug_fatal
  00088	83 c4 04	 add	 esp, 4
$LN5@get_ka50_p:

; 3215 : 	}
; 3216 : 
; 3217 : 	return (relative_pitch);

  0008b	d9 45 fc	 fld	 DWORD PTR _relative_pitch$[ebp]

; 3218 : }

  0008e	5f		 pop	 edi
  0008f	5e		 pop	 esi
  00090	5b		 pop	 ebx
  00091	8b e5		 mov	 esp, ebp
  00093	5d		 pop	 ebp
  00094	c3		 ret	 0
?get_ka50_pilot_head_pitch_datum@@YGMXZ ENDP		; get_ka50_pilot_head_pitch_datum
_TEXT	ENDS
; Function compile flags: /Odtp /ZI
; File c:\users\nhv90\projects\eech\aphavoc\source\gunships\cockpits\ka50\hm_pilot.c
;	COMDAT ?set_ka50_pilot_head_position@@YGXXZ
_TEXT	SEGMENT
tv76 = -128						; size = 4
_search$ = -60						; size = 56
_show_pilot_head$ = -4					; size = 4
?set_ka50_pilot_head_position@@YGXXZ PROC		; set_ka50_pilot_head_position, COMDAT

; 3138 : {

  00000	55		 push	 ebp
  00001	8b ec		 mov	 ebp, esp
  00003	81 ec 80 00 00
	00		 sub	 esp, 128		; 00000080H
  00009	53		 push	 ebx
  0000a	56		 push	 esi
  0000b	57		 push	 edi

; 3139 : 	int
; 3140 : 		show_pilot_head;
; 3141 : 
; 3142 : 	object_3d_sub_object_search_data
; 3143 : 		search;
; 3144 : 
; 3145 : 	ASSERT (get_gunship_entity ());

  0000c	83 3d 00 00 00
	00 00		 cmp	 DWORD PTR ?gunship_entity@@3PAUENTITY@@A, 0 ; gunship_entity
  00013	75 18		 jne	 SHORT $LN2@set_ka50_p
  00015	a1 00 00 00 00	 mov	 eax, DWORD PTR ?__LINE__Var@?0??set_ka50_pilot_head_position@@YGXXZ@4JA
  0001a	83 c0 07	 add	 eax, 7
  0001d	50		 push	 eax
  0001e	68 00 00 00 00	 push	 OFFSET ??_C@_0EO@MOFNGMIK@c?3?2users?2nhv90?2projects?2eech?2ap@
  00023	68 00 00 00 00	 push	 OFFSET ??_C@_0BG@EANNPEON@get_gunship_entity?5?$CI?$CJ@
  00028	e8 00 00 00 00	 call	 ?process_assert@@YGXPBD0H@Z ; process_assert
$LN2@set_ka50_p:

; 3146 : 
; 3147 : 	ASSERT (virtual_cockpit_inst3d);

  0002d	83 3d 00 00 00
	00 00		 cmp	 DWORD PTR ?virtual_cockpit_inst3d@@3PAUOBJECT_3D_INSTANCE@@A, 0 ; virtual_cockpit_inst3d
  00034	75 18		 jne	 SHORT $LN3@set_ka50_p
  00036	a1 00 00 00 00	 mov	 eax, DWORD PTR ?__LINE__Var@?0??set_ka50_pilot_head_position@@YGXXZ@4JA
  0003b	83 c0 09	 add	 eax, 9
  0003e	50		 push	 eax
  0003f	68 00 00 00 00	 push	 OFFSET ??_C@_0EO@MOFNGMIK@c?3?2users?2nhv90?2projects?2eech?2ap@
  00044	68 00 00 00 00	 push	 OFFSET ??_C@_0BH@OJOOJLIP@virtual_cockpit_inst3d@
  00049	e8 00 00 00 00	 call	 ?process_assert@@YGXPBD0H@Z ; process_assert
$LN3@set_ka50_p:

; 3148 : 
; 3149 : 	show_pilot_head = !get_pilot_viewpoint_virtual_cockpit ();

  0004e	e8 00 00 00 00	 call	 ?get_pilot_viewpoint_virtual_cockpit@@YGHXZ ; get_pilot_viewpoint_virtual_cockpit
  00053	85 c0		 test	 eax, eax
  00055	75 09		 jne	 SHORT $LN12@set_ka50_p
  00057	c7 45 80 01 00
	00 00		 mov	 DWORD PTR tv76[ebp], 1
  0005e	eb 07		 jmp	 SHORT $LN13@set_ka50_p
$LN12@set_ka50_p:
  00060	c7 45 80 00 00
	00 00		 mov	 DWORD PTR tv76[ebp], 0
$LN13@set_ka50_p:
  00067	8b 45 80	 mov	 eax, DWORD PTR tv76[ebp]
  0006a	89 45 fc	 mov	 DWORD PTR _show_pilot_head$[ebp], eax

; 3150 : 
; 3151 : 	search.search_depth = 0;

  0006d	c7 45 cc 00 00
	00 00		 mov	 DWORD PTR _search$[ebp+8], 0

; 3152 : 	search.search_object = virtual_cockpit_inst3d;

  00074	a1 00 00 00 00	 mov	 eax, DWORD PTR ?virtual_cockpit_inst3d@@3PAUOBJECT_3D_INSTANCE@@A ; virtual_cockpit_inst3d
  00079	89 45 c4	 mov	 DWORD PTR _search$[ebp], eax

; 3153 : 	search.sub_object_index = OBJECT_3D_SUB_OBJECT_PILOT_HEAD;

  0007c	c7 45 d0 bf 00
	00 00		 mov	 DWORD PTR _search$[ebp+12], 191 ; 000000bfH

; 3154 : 
; 3155 : 	if (find_object_3d_sub_object (&search) == SUB_OBJECT_SEARCH_RESULT_OBJECT_FOUND)

  00083	8d 45 c4	 lea	 eax, DWORD PTR _search$[ebp]
  00086	50		 push	 eax
  00087	e8 00 00 00 00	 call	 ?find_object_3d_sub_object@@YG?AW4SUB_OBJECT_SEARCH_RESULT_TYPES@@PAUOBJECT_3D_SUB_OBJECT_SEARCH_DATA@@@Z ; find_object_3d_sub_object
  0008c	83 f8 01	 cmp	 eax, 1
  0008f	0f 85 95 00 00
	00		 jne	 $LN4@set_ka50_p

; 3156 : 	{
; 3157 : 		search.result_sub_object->visible_object = show_pilot_head;

  00095	8b 45 fc	 mov	 eax, DWORD PTR _show_pilot_head$[ebp]
  00098	83 e0 01	 and	 eax, 1
  0009b	8b 4d c8	 mov	 ecx, DWORD PTR _search$[ebp+4]
  0009e	8b 51 08	 mov	 edx, DWORD PTR [ecx+8]
  000a1	83 e2 fe	 and	 edx, -2			; fffffffeH
  000a4	0b d0		 or	 edx, eax
  000a6	8b 45 c8	 mov	 eax, DWORD PTR _search$[ebp+4]
  000a9	89 50 08	 mov	 DWORD PTR [eax+8], edx

; 3158 : 
; 3159 : 		if (show_pilot_head)

  000ac	83 7d fc 00	 cmp	 DWORD PTR _show_pilot_head$[ebp], 0
  000b0	74 76		 je	 SHORT $LN10@set_ka50_p

; 3160 : 		{
; 3161 : 			if (pilot_head_anim_frame != NO_PILOT_HEAD_ANIMATION)

  000b2	f3 0f 10 05 00
	00 00 00	 movss	 xmm0, DWORD PTR ?pilot_head_anim_frame@@3MA
  000ba	0f 2e 05 00 00
	00 00		 ucomiss xmm0, DWORD PTR __real@bf800000
  000c1	9f		 lahf
  000c2	f6 c4 44	 test	 ah, 68			; 00000044H
  000c5	7b 20		 jnp	 SHORT $LN7@set_ka50_p

; 3162 : 			{
; 3163 : 				animate_entity_simple_keyframed_sub_objects (virtual_cockpit_inst3d, OBJECT_3D_SUB_OBJECT_PILOT_HEAD, pilot_head_anim_frame);

  000c7	51		 push	 ecx
  000c8	f3 0f 10 05 00
	00 00 00	 movss	 xmm0, DWORD PTR ?pilot_head_anim_frame@@3MA
  000d0	f3 0f 11 04 24	 movss	 DWORD PTR [esp], xmm0
  000d5	68 bf 00 00 00	 push	 191			; 000000bfH
  000da	a1 00 00 00 00	 mov	 eax, DWORD PTR ?virtual_cockpit_inst3d@@3PAUOBJECT_3D_INSTANCE@@A ; virtual_cockpit_inst3d
  000df	50		 push	 eax
  000e0	e8 00 00 00 00	 call	 ?animate_entity_simple_keyframed_sub_objects@@YGXPAUOBJECT_3D_INSTANCE@@HM@Z ; animate_entity_simple_keyframed_sub_objects

; 3164 : 			}
; 3165 : 			else

  000e5	eb 41		 jmp	 SHORT $LN10@set_ka50_p
$LN7@set_ka50_p:

; 3166 : 			{
; 3167 : 				if (pilot_rest_anim_mode == PILOT_REST_ANIM_MODE_NONE)

  000e7	83 3d 00 00 00
	00 00		 cmp	 DWORD PTR ?pilot_rest_anim_mode@@3W4PILOT_REST_ANIM_MODES@@A, 0
  000ee	75 07		 jne	 SHORT $LN9@set_ka50_p

; 3168 : 				{
; 3169 : 					update_pilot_head_tilt_animation ();

  000f0	e8 00 00 00 00	 call	 ?update_pilot_head_tilt_animation@@YGXXZ ; update_pilot_head_tilt_animation

; 3170 : 				}
; 3171 : 				else

  000f5	eb 31		 jmp	 SHORT $LN10@set_ka50_p
$LN9@set_ka50_p:

; 3172 : 				{
; 3173 : 					search.result_sub_object->relative_heading = 0.0;

  000f7	8b 45 c8	 mov	 eax, DWORD PTR _search$[ebp+4]
  000fa	0f 57 c0	 xorps	 xmm0, xmm0
  000fd	f3 0f 11 40 18	 movss	 DWORD PTR [eax+24], xmm0

; 3174 : 					search.result_sub_object->relative_pitch = pilot_head_pitch_datum;

  00102	8b 45 c8	 mov	 eax, DWORD PTR _search$[ebp+4]
  00105	f3 0f 10 05 00
	00 00 00	 movss	 xmm0, DWORD PTR ?pilot_head_pitch_datum@@3MA
  0010d	f3 0f 11 40 1c	 movss	 DWORD PTR [eax+28], xmm0

; 3175 : 					search.result_sub_object->relative_roll = 0.0;

  00112	8b 45 c8	 mov	 eax, DWORD PTR _search$[ebp+4]
  00115	0f 57 c0	 xorps	 xmm0, xmm0
  00118	f3 0f 11 40 20	 movss	 DWORD PTR [eax+32], xmm0

; 3176 : 
; 3177 : 					previous_pilot_head_tilt_angle = 0.0;

  0011d	0f 57 c0	 xorps	 xmm0, xmm0
  00120	f3 0f 11 05 00
	00 00 00	 movss	 DWORD PTR ?previous_pilot_head_tilt_angle@@3MA, xmm0
$LN10@set_ka50_p:

; 3178 : 				}
; 3179 : 			}
; 3180 : 		}
; 3181 : 	}
; 3182 : 	else

  00128	eb 0d		 jmp	 SHORT $LN5@set_ka50_p
$LN4@set_ka50_p:

; 3183 : 	{
; 3184 : 		debug_fatal ("Failed to locate pilot's head in virtual cockpit");

  0012a	68 00 00 00 00	 push	 OFFSET ??_C@_0DB@HGENAKO@Failed?5to?5locate?5pilot?8s?5head?5i@
  0012f	e8 00 00 00 00	 call	 ?debug_fatal@@YAXPBDZZ	; debug_fatal
  00134	83 c4 04	 add	 esp, 4
$LN5@set_ka50_p:

; 3185 : 	}
; 3186 : }

  00137	5f		 pop	 edi
  00138	5e		 pop	 esi
  00139	5b		 pop	 ebx
  0013a	8b e5		 mov	 esp, ebp
  0013c	5d		 pop	 ebp
  0013d	c3		 ret	 0
?set_ka50_pilot_head_position@@YGXXZ ENDP		; set_ka50_pilot_head_position
_TEXT	ENDS
; Function compile flags: /Odtp /ZI
; File c:\users\nhv90\projects\eech\aphavoc\source\gunships\cockpits\ka50\hm_pilot.c
;	COMDAT ?update_ka50_pilot_animation@@YGXXZ
_TEXT	SEGMENT
?update_ka50_pilot_animation@@YGXXZ PROC		; update_ka50_pilot_animation, COMDAT

; 3123 : {

  00000	55		 push	 ebp
  00001	8b ec		 mov	 ebp, esp
  00003	83 ec 40	 sub	 esp, 64			; 00000040H
  00006	53		 push	 ebx
  00007	56		 push	 esi
  00008	57		 push	 edi

; 3124 : 	ASSERT (get_gunship_entity ());

  00009	83 3d 00 00 00
	00 00		 cmp	 DWORD PTR ?gunship_entity@@3PAUENTITY@@A, 0 ; gunship_entity
  00010	75 18		 jne	 SHORT $LN2@update_ka5
  00012	a1 00 00 00 00	 mov	 eax, DWORD PTR ?__LINE__Var@?0??update_ka50_pilot_animation@@YGXXZ@4JA
  00017	83 c0 01	 add	 eax, 1
  0001a	50		 push	 eax
  0001b	68 00 00 00 00	 push	 OFFSET ??_C@_0EO@MOFNGMIK@c?3?2users?2nhv90?2projects?2eech?2ap@
  00020	68 00 00 00 00	 push	 OFFSET ??_C@_0BG@EANNPEON@get_gunship_entity?5?$CI?$CJ@
  00025	e8 00 00 00 00	 call	 ?process_assert@@YGXPBD0H@Z ; process_assert
$LN2@update_ka5:

; 3125 : 
; 3126 : 	ASSERT (current_flight_dynamics);

  0002a	83 3d 00 00 00
	00 00		 cmp	 DWORD PTR ?current_flight_dynamics@@3PAUDYNAMICS_TYPE@@A, 0 ; current_flight_dynamics
  00031	75 18		 jne	 SHORT $LN3@update_ka5
  00033	a1 00 00 00 00	 mov	 eax, DWORD PTR ?__LINE__Var@?0??update_ka50_pilot_animation@@YGXXZ@4JA
  00038	83 c0 03	 add	 eax, 3
  0003b	50		 push	 eax
  0003c	68 00 00 00 00	 push	 OFFSET ??_C@_0EO@MOFNGMIK@c?3?2users?2nhv90?2projects?2eech?2ap@
  00041	68 00 00 00 00	 push	 OFFSET ??_C@_0BI@CKBJIOHI@current_flight_dynamics@
  00046	e8 00 00 00 00	 call	 ?process_assert@@YGXPBD0H@Z ; process_assert
$LN3@update_ka5:

; 3127 : 
; 3128 : 	ASSERT (virtual_cockpit_inst3d);

  0004b	83 3d 00 00 00
	00 00		 cmp	 DWORD PTR ?virtual_cockpit_inst3d@@3PAUOBJECT_3D_INSTANCE@@A, 0 ; virtual_cockpit_inst3d
  00052	75 18		 jne	 SHORT $LN4@update_ka5
  00054	a1 00 00 00 00	 mov	 eax, DWORD PTR ?__LINE__Var@?0??update_ka50_pilot_animation@@YGXXZ@4JA
  00059	83 c0 05	 add	 eax, 5
  0005c	50		 push	 eax
  0005d	68 00 00 00 00	 push	 OFFSET ??_C@_0EO@MOFNGMIK@c?3?2users?2nhv90?2projects?2eech?2ap@
  00062	68 00 00 00 00	 push	 OFFSET ??_C@_0BH@OJOOJLIP@virtual_cockpit_inst3d@
  00067	e8 00 00 00 00	 call	 ?process_assert@@YGXPBD0H@Z ; process_assert
$LN4@update_ka5:

; 3129 : 
; 3130 : 	update_pilot_animation ();

  0006c	e8 00 00 00 00	 call	 ?update_pilot_animation@@YGXXZ ; update_pilot_animation

; 3131 : }

  00071	5f		 pop	 edi
  00072	5e		 pop	 esi
  00073	5b		 pop	 ebx
  00074	8b e5		 mov	 esp, ebp
  00076	5d		 pop	 ebp
  00077	c3		 ret	 0
?update_ka50_pilot_animation@@YGXXZ ENDP		; update_ka50_pilot_animation
_TEXT	ENDS
; Function compile flags: /Odtp /ZI
; File c:\users\nhv90\projects\eech\aphavoc\source\gunships\cockpits\ka50\hm_pilot.c
;	COMDAT ?deinitialise_ka50_pilot_animation@@YGXXZ
_TEXT	SEGMENT
?deinitialise_ka50_pilot_animation@@YGXXZ PROC		; deinitialise_ka50_pilot_animation, COMDAT

; 3114 : {

  00000	55		 push	 ebp
  00001	8b ec		 mov	 ebp, esp
  00003	83 ec 40	 sub	 esp, 64			; 00000040H
  00006	53		 push	 ebx
  00007	56		 push	 esi
  00008	57		 push	 edi

; 3115 : 	deinitialise_pilot_right_arm_and_cyclic_animation ();

  00009	e8 00 00 00 00	 call	 ?deinitialise_pilot_right_arm_and_cyclic_animation@@YGXXZ ; deinitialise_pilot_right_arm_and_cyclic_animation

; 3116 : }

  0000e	5f		 pop	 edi
  0000f	5e		 pop	 esi
  00010	5b		 pop	 ebx
  00011	8b e5		 mov	 esp, ebp
  00013	5d		 pop	 ebp
  00014	c3		 ret	 0
?deinitialise_ka50_pilot_animation@@YGXXZ ENDP		; deinitialise_ka50_pilot_animation
_TEXT	ENDS
; Function compile flags: /Odtp /ZI
; File c:\users\nhv90\projects\eech\aphavoc\source\gunships\cockpits\ka50\hm_pilot.c
;	COMDAT ?initialise_ka50_pilot_animation@@YGXXZ
_TEXT	SEGMENT
?initialise_ka50_pilot_animation@@YGXXZ PROC		; initialise_ka50_pilot_animation, COMDAT

; 3055 : {

  00000	55		 push	 ebp
  00001	8b ec		 mov	 ebp, esp
  00003	83 ec 40	 sub	 esp, 64			; 00000040H
  00006	53		 push	 ebx
  00007	56		 push	 esi
  00008	57		 push	 edi

; 3056 : 	#if DEBUG_MODULE
; 3057 : 
; 3058 : 	debug_colour_watch (COLOUR_AMBER, "pilot_main_anim_mode = %d", MT_INT, &pilot_main_anim_mode);
; 3059 : 	debug_colour_watch (COLOUR_AMBER, "pilot_main_anim_frame = %.2f", MT_FLOAT, &pilot_main_anim_frame);
; 3060 : 
; 3061 : 	debug_colour_watch (COLOUR_AMBER, "pilot_rest_anim_mode = %d", MT_INT, &pilot_rest_anim_mode);
; 3062 : 	debug_colour_watch (COLOUR_AMBER, "previous_random_pilot_rest_anim_mode = %d", MT_INT, &previous_random_pilot_rest_anim_mode);
; 3063 : 	debug_colour_watch (COLOUR_AMBER, "pilot_rest_anim_frame = %.2f", MT_FLOAT, &pilot_rest_anim_frame);
; 3064 : 	debug_colour_watch (COLOUR_AMBER, "pilot_rest_anim_delay = %.2f", MT_FLOAT, &pilot_rest_anim_delay);
; 3065 : 
; 3066 : 	debug_colour_watch (COLOUR_AMBER, "pilot_head_anim_frame = %.2f", MT_FLOAT, &pilot_head_anim_frame);
; 3067 : 	debug_colour_watch (COLOUR_AMBER, "pilot_head_anim_pause = %.2f", MT_FLOAT, &pilot_head_anim_pause);
; 3068 : 
; 3069 : 	debug_colour_watch (COLOUR_AMBER, "night_vision_system_active = %d", MT_INT, &night_vision_system_active);
; 3070 : 	debug_colour_watch (COLOUR_AMBER, "pilot_nvg_anim_frame = %.2f", MT_FLOAT, &pilot_nvg_anim_frame);
; 3071 : 
; 3072 : 	debug_colour_watch (COLOUR_AMBER, "cyclic_x_position = %.2f", MT_FLOAT, &cyclic_x_position);
; 3073 : 	debug_colour_watch (COLOUR_AMBER, "cyclic_y_position = %.2f", MT_FLOAT, &cyclic_y_position);
; 3074 : 	debug_colour_watch (COLOUR_AMBER, "collective_position = %.2f", MT_FLOAT, &collective_position);
; 3075 : 	debug_colour_watch (COLOUR_AMBER, "pedal_position = %.2f", MT_FLOAT, &pedal_position);
; 3076 : 
; 3077 : 	#endif
; 3078 : 
; 3079 : 	pilot_main_anim_mode							= PILOT_MAIN_ANIM_MODE_HANDS_OFF_CONTROLS;

  00009	c7 05 00 00 00
	00 00 00 00 00	 mov	 DWORD PTR ?pilot_main_anim_mode@@3W4PILOT_MAIN_ANIM_MODES@@A, 0

; 3080 : 	pilot_main_anim_frame			  			= 1.0;

  00013	f3 0f 10 05 00
	00 00 00	 movss	 xmm0, DWORD PTR __real@3f800000
  0001b	f3 0f 11 05 00
	00 00 00	 movss	 DWORD PTR ?pilot_main_anim_frame@@3MA, xmm0

; 3081 : 
; 3082 : 	pilot_rest_anim_mode			 				= PILOT_REST_ANIM_MODE_NONE;

  00023	c7 05 00 00 00
	00 00 00 00 00	 mov	 DWORD PTR ?pilot_rest_anim_mode@@3W4PILOT_REST_ANIM_MODES@@A, 0

; 3083 : 	previous_random_pilot_rest_anim_mode	= PILOT_REST_ANIM_MODE_NONE;

  0002d	c7 05 00 00 00
	00 00 00 00 00	 mov	 DWORD PTR ?previous_random_pilot_rest_anim_mode@@3W4PILOT_REST_ANIM_MODES@@A, 0

; 3084 : 	pilot_rest_anim_frame  			  			= 0.0;

  00037	0f 57 c0	 xorps	 xmm0, xmm0
  0003a	f3 0f 11 05 00
	00 00 00	 movss	 DWORD PTR ?pilot_rest_anim_frame@@3MA, xmm0

; 3085 : 	pilot_rest_anim_delay  						= get_reset_pilot_rest_anim_delay ();

  00042	e8 00 00 00 00	 call	 ?get_reset_pilot_rest_anim_delay@@YGMXZ ; get_reset_pilot_rest_anim_delay
  00047	d9 1d 00 00 00
	00		 fstp	 DWORD PTR ?pilot_rest_anim_delay@@3MA

; 3086 : 
; 3087 : 	pilot_head_anim_frame						= NO_PILOT_HEAD_ANIMATION;

  0004d	f3 0f 10 05 00
	00 00 00	 movss	 xmm0, DWORD PTR __real@bf800000
  00055	f3 0f 11 05 00
	00 00 00	 movss	 DWORD PTR ?pilot_head_anim_frame@@3MA, xmm0

; 3088 : 	pilot_head_anim_pause						= 0.0;

  0005d	0f 57 c0	 xorps	 xmm0, xmm0
  00060	f3 0f 11 05 00
	00 00 00	 movss	 DWORD PTR ?pilot_head_anim_pause@@3MA, xmm0

; 3089 : 
; 3090 : 	previous_pilot_head_tilt_angle			= 0.0;

  00068	0f 57 c0	 xorps	 xmm0, xmm0
  0006b	f3 0f 11 05 00
	00 00 00	 movss	 DWORD PTR ?previous_pilot_head_tilt_angle@@3MA, xmm0

; 3091 : 
; 3092 : 	pilot_nvg_anim_frame							= NVG_OFF;

  00073	0f 57 c0	 xorps	 xmm0, xmm0
  00076	f3 0f 11 05 00
	00 00 00	 movss	 DWORD PTR ?pilot_nvg_anim_frame@@3MA, xmm0

; 3093 : 
; 3094 : 	cyclic_x_position								= 0.5;

  0007e	f3 0f 10 05 00
	00 00 00	 movss	 xmm0, DWORD PTR __real@3f000000
  00086	f3 0f 11 05 00
	00 00 00	 movss	 DWORD PTR ?cyclic_x_position@@3MA, xmm0

; 3095 : 	cyclic_y_position			  			  		= 0.5;

  0008e	f3 0f 10 05 00
	00 00 00	 movss	 xmm0, DWORD PTR __real@3f000000
  00096	f3 0f 11 05 00
	00 00 00	 movss	 DWORD PTR ?cyclic_y_position@@3MA, xmm0

; 3096 : 	collective_position			 		 		= 0.5;

  0009e	f3 0f 10 05 00
	00 00 00	 movss	 xmm0, DWORD PTR __real@3f000000
  000a6	f3 0f 11 05 00
	00 00 00	 movss	 DWORD PTR ?collective_position@@3MA, xmm0

; 3097 : 	pedal_position			 				  		= 0.5;

  000ae	f3 0f 10 05 00
	00 00 00	 movss	 xmm0, DWORD PTR __real@3f000000
  000b6	f3 0f 11 05 00
	00 00 00	 movss	 DWORD PTR ?pedal_position@@3MA, xmm0

; 3098 : 	previous_cyclic_x_position					= 0.5;

  000be	f3 0f 10 05 00
	00 00 00	 movss	 xmm0, DWORD PTR __real@3f000000
  000c6	f3 0f 11 05 00
	00 00 00	 movss	 DWORD PTR ?previous_cyclic_x_position@@3MA, xmm0

; 3099 : 	previous_cyclic_y_position					= 0.5;

  000ce	f3 0f 10 05 00
	00 00 00	 movss	 xmm0, DWORD PTR __real@3f000000
  000d6	f3 0f 11 05 00
	00 00 00	 movss	 DWORD PTR ?previous_cyclic_y_position@@3MA, xmm0

; 3100 : 	previous_collective_position 				= 0.5;

  000de	f3 0f 10 05 00
	00 00 00	 movss	 xmm0, DWORD PTR __real@3f000000
  000e6	f3 0f 11 05 00
	00 00 00	 movss	 DWORD PTR ?previous_collective_position@@3MA, xmm0

; 3101 : 	previous_pedal_position			  			= 0.5;

  000ee	f3 0f 10 05 00
	00 00 00	 movss	 xmm0, DWORD PTR __real@3f000000
  000f6	f3 0f 11 05 00
	00 00 00	 movss	 DWORD PTR ?previous_pedal_position@@3MA, xmm0

; 3102 : 
; 3103 : 	eject_timer										= 0.0;

  000fe	0f 57 c0	 xorps	 xmm0, xmm0
  00101	f3 0f 11 05 00
	00 00 00	 movss	 DWORD PTR ?eject_timer@@3MA, xmm0

; 3104 : 	eject_stage								  		= 0;

  00109	c7 05 00 00 00
	00 00 00 00 00	 mov	 DWORD PTR ?eject_stage@@3HA, 0

; 3105 : 
; 3106 : 	initialise_pilot_right_arm_and_cyclic_animation ();

  00113	e8 00 00 00 00	 call	 ?initialise_pilot_right_arm_and_cyclic_animation@@YGXXZ ; initialise_pilot_right_arm_and_cyclic_animation

; 3107 : }

  00118	5f		 pop	 edi
  00119	5e		 pop	 esi
  0011a	5b		 pop	 ebx
  0011b	8b e5		 mov	 esp, ebp
  0011d	5d		 pop	 ebp
  0011e	c3		 ret	 0
?initialise_ka50_pilot_animation@@YGXXZ ENDP		; initialise_ka50_pilot_animation
_TEXT	ENDS
END
