; Listing generated by Microsoft (R) Optimizing Compiler Version 19.16.27045.0 

	TITLE	C:\Users\nhv90\Projects\eech\aphavoc\source\gunships\avionics\ka50\hm_wpn.c
	.686P
	.XMM
	include listing.inc
	.model	flat

INCLUDELIB MSVCRTD
INCLUDELIB OLDNAMES

PUBLIC	?update_ka50_weapon_systems@@YGXXZ		; update_ka50_weapon_systems
PUBLIC	?get_ka50_missile_flight_time@@YGMXZ		; get_ka50_missile_flight_time
PUBLIC	?toggle_ka50_radar_jammer_manual@@YGXXZ		; toggle_ka50_radar_jammer_manual
PUBLIC	?set_ka50_radar_jammer_manual@@YGXH@Z		; set_ka50_radar_jammer_manual
PUBLIC	?set_ka50_radar_jammer_auto@@YGXH@Z		; set_ka50_radar_jammer_auto
PUBLIC	?toggle_ka50_infra_red_jammer_manual@@YGXXZ	; toggle_ka50_infra_red_jammer_manual
PUBLIC	?set_ka50_infra_red_jammer_manual@@YGXH@Z	; set_ka50_infra_red_jammer_manual
PUBLIC	?set_ka50_infra_red_jammer_auto@@YGXH@Z		; set_ka50_infra_red_jammer_auto
PUBLIC	??$min@H@std@@YGABHABH0@Z			; std::min<int>
PUBLIC	??$max@H@std@@YGABHABH0@Z			; std::max<int>
PUBLIC	??_C@_02DKCKIIND@?$CFs@				; `string'
PUBLIC	?__LINE__Var@?0??apply_weapon_recoil_effect@@YGXPAUENTITY@@H@Z@4JA ; `apply_weapon_recoil_effect'::`1'::__LINE__Var
PUBLIC	??_C@_0EM@CMCNDFLJ@c?3?2users?2nhv90?2projects?2eech?2ap@ ; `string'
PUBLIC	??_C@_02LFNMGJAP@en@				; `string'
PUBLIC	?__LINE__Var@?0??update_ka50_weapon_systems@@YGXXZ@4JA ; `update_ka50_weapon_systems'::`1'::__LINE__Var
PUBLIC	?__LINE__Var@?0??get_ka50_missile_flight_time@@YGMXZ@4JA ; `get_ka50_missile_flight_time'::`1'::__LINE__Var
PUBLIC	?__LINE__Var@?0??toggle_ka50_radar_jammer_manual@@YGXXZ@4JA ; `toggle_ka50_radar_jammer_manual'::`1'::__LINE__Var
PUBLIC	?__LINE__Var@?0??set_ka50_radar_jammer_manual@@YGXH@Z@4JA ; `set_ka50_radar_jammer_manual'::`1'::__LINE__Var
PUBLIC	?__LINE__Var@?0??set_ka50_radar_jammer_auto@@YGXH@Z@4JA ; `set_ka50_radar_jammer_auto'::`1'::__LINE__Var
PUBLIC	?__LINE__Var@?0??toggle_ka50_infra_red_jammer_manual@@YGXXZ@4JA ; `toggle_ka50_infra_red_jammer_manual'::`1'::__LINE__Var
PUBLIC	?__LINE__Var@?0??set_ka50_infra_red_jammer_manual@@YGXH@Z@4JA ; `set_ka50_infra_red_jammer_manual'::`1'::__LINE__Var
PUBLIC	?__LINE__Var@?0??set_ka50_infra_red_jammer_auto@@YGXH@Z@4JA ; `set_ka50_infra_red_jammer_auto'::`1'::__LINE__Var
PUBLIC	??_C@_0BD@FEEMDEPI@invalid?5comparator@		; `string'
PUBLIC	??_C@_0GK@JMBMHIBC@c?3?2program?5files?5?$CIx86?$CJ?2microsof@ ; `string'
PUBLIC	??_C@_1NE@FKBPBJEB@?$AAc?$AA?3?$AA?2?$AAp?$AAr?$AAo?$AAg?$AAr?$AAa?$AAm?$AA?5?$AAf?$AAi?$AAl?$AAe@ ; `string'
PUBLIC	??_C@_1BC@BLAPCBGI@?$AAs?$AAt?$AAd?$AA?3?$AA?3?$AAm?$AAi?$AAn@ ; `string'
PUBLIC	??_C@_1CK@NDNHPKPI@?$AA?$CC?$AAi?$AAn?$AAv?$AAa?$AAl?$AAi?$AAd?$AA?5?$AAc?$AAo?$AAm?$AAp?$AAa?$AAr@ ; `string'
PUBLIC	??_C@_1BC@ICCOKLEG@?$AAs?$AAt?$AAd?$AA?3?$AA?3?$AAm?$AAa?$AAx@ ; `string'
PUBLIC	__real@0000000000000000
PUBLIC	__real@3dcccccd
PUBLIC	__real@3e99999a
PUBLIC	__real@3ecccccd
PUBLIC	__real@3f000000
PUBLIC	__real@3f19999a
PUBLIC	__real@3f333333
PUBLIC	__real@3f800000
PUBLIC	__real@40000000
PUBLIC	__real@40200000
PUBLIC	__real@40f00000
PUBLIC	__real@41100000
PUBLIC	__real@41200000
EXTRN	__imp___invalid_parameter:PROC
EXTRN	__imp___CrtDbgReport:PROC
EXTRN	?process_assert@@YGXPBD0H@Z:PROC		; process_assert
EXTRN	?get_3d_range@@YGMPBUVEC3D@@0@Z:PROC		; get_3d_range
EXTRN	?launch_client_server_weapon@@YGXPAUENTITY@@H@Z:PROC ; launch_client_server_weapon
EXTRN	?get_local_entity_weapon_count@@YGHPAUENTITY@@H@Z:PROC ; get_local_entity_weapon_count
EXTRN	?get_local_entity_selected_weapon_viewpoint@@YGHPAUENTITY@@PAUVIEWPOINT@@@Z:PROC ; get_local_entity_selected_weapon_viewpoint
EXTRN	?get_number_of_pods_firing@@YGIPAUENTITY@@H@Z:PROC ; get_number_of_pods_firing
EXTRN	?play_client_server_cpg_message@@YGHPAUENTITY@@MMHMH@Z:PROC ; play_client_server_cpg_message
EXTRN	?pause_local_entity_sound_type@@YGHPAUENTITY@@HM@Z:PROC ; pause_local_entity_sound_type
EXTRN	?resume_local_entity_sound_type@@YGHPAUENTITY@@H@Z:PROC ; resume_local_entity_sound_type
EXTRN	?play_common_cpg_radar_jammer_speech@@YGXH@Z:PROC ; play_common_cpg_radar_jammer_speech
EXTRN	?play_common_cpg_infra_red_jammer_speech@@YGXH@Z:PROC ; play_common_cpg_infra_red_jammer_speech
EXTRN	?play_common_cpg_failed_launch_speech@@YGXW4WEAPON_LOCK_TYPES@@@Z:PROC ; play_common_cpg_failed_launch_speech
EXTRN	?update_good_tone@@YGXXZ:PROC			; update_good_tone
EXTRN	?reset_good_tone@@YGXXZ:PROC			; reset_good_tone
EXTRN	?add_dynamic_weapon_launch_force@@YGXPAUVEC3D@@0MM@Z:PROC ; add_dynamic_weapon_launch_force
EXTRN	?null_entity_pointer_message@@3PBDB:DWORD	; null_entity_pointer_message
EXTRN	?global_options@@3UGLOBAL_OPTIONS_DATA@@A:BYTE	; global_options
EXTRN	?system_comms_model@@3W4COMMS_MODEL_TYPES@@A:DWORD ; system_comms_model
EXTRN	?overload_invalid_list_type_message@@3PBDB:DWORD ; overload_invalid_list_type_message
EXTRN	?fn_get_local_entity_first_child@@3PAY0CN@P6GPAUENTITY@@PAU1@W4LIST_TYPES@@@ZA:BYTE ; fn_get_local_entity_first_child
EXTRN	?fn_get_local_entity_parent@@3PAY0CN@P6GPAUENTITY@@PAU1@W4LIST_TYPES@@@ZA:BYTE ; fn_get_local_entity_parent
EXTRN	?fn_get_local_entity_child_succ@@3PAY0CN@P6GPAUENTITY@@PAU1@W4LIST_TYPES@@@ZA:BYTE ; fn_get_local_entity_child_succ
EXTRN	?overload_invalid_float_type_message@@3PBDB:DWORD ; overload_invalid_float_type_message
EXTRN	?fn_get_local_entity_float_value@@3PAY0KP@P6GMPAUENTITY@@W4FLOAT_TYPES@@@ZA:BYTE ; fn_get_local_entity_float_value
EXTRN	?overload_invalid_int_type_message@@3PBDB:DWORD	; overload_invalid_int_type_message
EXTRN	?fn_set_client_server_entity_int_value@@3PAY1BBH@1P6GXPAUENTITY@@W4INT_TYPES@@H@ZA:BYTE ; fn_set_client_server_entity_int_value
EXTRN	?fn_get_local_entity_int_value@@3PAY0BBH@P6GHPAUENTITY@@W4INT_TYPES@@@ZA:BYTE ; fn_get_local_entity_int_value
EXTRN	?overload_invalid_vec3d_type_message@@3PBDB:DWORD ; overload_invalid_vec3d_type_message
EXTRN	?fn_get_local_entity_vec3d_ptr@@3PAY0BI@P6GPAUVEC3D@@PAUENTITY@@W4VEC3D_TYPES@@@ZA:BYTE ; fn_get_local_entity_vec3d_ptr
EXTRN	?weapon_database@@3PAUWEAPON_DATA@@A:BYTE	; weapon_database
EXTRN	?gunship_entity@@3PAUENTITY@@A:DWORD		; gunship_entity
EXTRN	?weapon_lock_type@@3W4WEAPON_LOCK_TYPES@@A:DWORD ; weapon_lock_type
EXTRN	?fire_continuous_weapon@@3HA:DWORD		; fire_continuous_weapon
EXTRN	?fire_single_weapon@@3HA:DWORD			; fire_single_weapon
EXTRN	?rocket_salvo_size@@3HA:DWORD			; rocket_salvo_size
EXTRN	?rocket_salvo_count@@3HA:DWORD			; rocket_salvo_count
EXTRN	?gun_is_firing@@3HA:DWORD			; gun_is_firing
EXTRN	?ka50_damage@@3TKA50_DAMAGE_FLAGS@@A:DWORD	; ka50_damage
EXTRN	__fltused:DWORD
;	COMDAT __real@41200000
CONST	SEGMENT
__real@41200000 DD 041200000r			; 10
CONST	ENDS
;	COMDAT __real@41100000
CONST	SEGMENT
__real@41100000 DD 041100000r			; 9
CONST	ENDS
;	COMDAT __real@40f00000
CONST	SEGMENT
__real@40f00000 DD 040f00000r			; 7.5
CONST	ENDS
;	COMDAT __real@40200000
CONST	SEGMENT
__real@40200000 DD 040200000r			; 2.5
CONST	ENDS
;	COMDAT __real@40000000
CONST	SEGMENT
__real@40000000 DD 040000000r			; 2
CONST	ENDS
;	COMDAT __real@3f800000
CONST	SEGMENT
__real@3f800000 DD 03f800000r			; 1
CONST	ENDS
;	COMDAT __real@3f333333
CONST	SEGMENT
__real@3f333333 DD 03f333333r			; 0.7
CONST	ENDS
;	COMDAT __real@3f19999a
CONST	SEGMENT
__real@3f19999a DD 03f19999ar			; 0.6
CONST	ENDS
;	COMDAT __real@3f000000
CONST	SEGMENT
__real@3f000000 DD 03f000000r			; 0.5
CONST	ENDS
;	COMDAT __real@3ecccccd
CONST	SEGMENT
__real@3ecccccd DD 03ecccccdr			; 0.4
CONST	ENDS
;	COMDAT __real@3e99999a
CONST	SEGMENT
__real@3e99999a DD 03e99999ar			; 0.3
CONST	ENDS
;	COMDAT __real@3dcccccd
CONST	SEGMENT
__real@3dcccccd DD 03dcccccdr			; 0.1
CONST	ENDS
;	COMDAT __real@0000000000000000
CONST	SEGMENT
__real@0000000000000000 DQ 00000000000000000r	; 0
CONST	ENDS
;	COMDAT ??_C@_1BC@ICCOKLEG@?$AAs?$AAt?$AAd?$AA?3?$AA?3?$AAm?$AAa?$AAx@
CONST	SEGMENT
??_C@_1BC@ICCOKLEG@?$AAs?$AAt?$AAd?$AA?3?$AA?3?$AAm?$AAa?$AAx@ DB 's', 00H
	DB	't', 00H, 'd', 00H, ':', 00H, ':', 00H, 'm', 00H, 'a', 00H, 'x'
	DB	00H, 00H, 00H				; `string'
CONST	ENDS
;	COMDAT ??_C@_1CK@NDNHPKPI@?$AA?$CC?$AAi?$AAn?$AAv?$AAa?$AAl?$AAi?$AAd?$AA?5?$AAc?$AAo?$AAm?$AAp?$AAa?$AAr@
CONST	SEGMENT
??_C@_1CK@NDNHPKPI@?$AA?$CC?$AAi?$AAn?$AAv?$AAa?$AAl?$AAi?$AAd?$AA?5?$AAc?$AAo?$AAm?$AAp?$AAa?$AAr@ DB '"'
	DB	00H, 'i', 00H, 'n', 00H, 'v', 00H, 'a', 00H, 'l', 00H, 'i', 00H
	DB	'd', 00H, ' ', 00H, 'c', 00H, 'o', 00H, 'm', 00H, 'p', 00H, 'a'
	DB	00H, 'r', 00H, 'a', 00H, 't', 00H, 'o', 00H, 'r', 00H, '"', 00H
	DB	00H, 00H					; `string'
CONST	ENDS
;	COMDAT ??_C@_1BC@BLAPCBGI@?$AAs?$AAt?$AAd?$AA?3?$AA?3?$AAm?$AAi?$AAn@
CONST	SEGMENT
??_C@_1BC@BLAPCBGI@?$AAs?$AAt?$AAd?$AA?3?$AA?3?$AAm?$AAi?$AAn@ DB 's', 00H
	DB	't', 00H, 'd', 00H, ':', 00H, ':', 00H, 'm', 00H, 'i', 00H, 'n'
	DB	00H, 00H, 00H				; `string'
CONST	ENDS
;	COMDAT ??_C@_1NE@FKBPBJEB@?$AAc?$AA?3?$AA?2?$AAp?$AAr?$AAo?$AAg?$AAr?$AAa?$AAm?$AA?5?$AAf?$AAi?$AAl?$AAe@
CONST	SEGMENT
??_C@_1NE@FKBPBJEB@?$AAc?$AA?3?$AA?2?$AAp?$AAr?$AAo?$AAg?$AAr?$AAa?$AAm?$AA?5?$AAf?$AAi?$AAl?$AAe@ DB 'c'
	DB	00H, ':', 00H, '\', 00H, 'p', 00H, 'r', 00H, 'o', 00H, 'g', 00H
	DB	'r', 00H, 'a', 00H, 'm', 00H, ' ', 00H, 'f', 00H, 'i', 00H, 'l'
	DB	00H, 'e', 00H, 's', 00H, ' ', 00H, '(', 00H, 'x', 00H, '8', 00H
	DB	'6', 00H, ')', 00H, '\', 00H, 'm', 00H, 'i', 00H, 'c', 00H, 'r'
	DB	00H, 'o', 00H, 's', 00H, 'o', 00H, 'f', 00H, 't', 00H, ' ', 00H
	DB	'v', 00H, 'i', 00H, 's', 00H, 'u', 00H, 'a', 00H, 'l', 00H, ' '
	DB	00H, 's', 00H, 't', 00H, 'u', 00H, 'd', 00H, 'i', 00H, 'o', 00H
	DB	'\', 00H, '2', 00H, '0', 00H, '1', 00H, '7', 00H, '\', 00H, 'c'
	DB	00H, 'o', 00H, 'm', 00H, 'm', 00H, 'u', 00H, 'n', 00H, 'i', 00H
	DB	't', 00H, 'y', 00H, '\', 00H, 'v', 00H, 'c', 00H, '\', 00H, 't'
	DB	00H, 'o', 00H, 'o', 00H, 'l', 00H, 's', 00H, '\', 00H, 'm', 00H
	DB	's', 00H, 'v', 00H, 'c', 00H, '\', 00H, '1', 00H, '4', 00H, '.'
	DB	00H, '1', 00H, '6', 00H, '.', 00H, '2', 00H, '7', 00H, '0', 00H
	DB	'2', 00H, '3', 00H, '\', 00H, 'i', 00H, 'n', 00H, 'c', 00H, 'l'
	DB	00H, 'u', 00H, 'd', 00H, 'e', 00H, '\', 00H, 'a', 00H, 'l', 00H
	DB	'g', 00H, 'o', 00H, 'r', 00H, 'i', 00H, 't', 00H, 'h', 00H, 'm'
	DB	00H, 00H, 00H				; `string'
CONST	ENDS
;	COMDAT ??_C@_0GK@JMBMHIBC@c?3?2program?5files?5?$CIx86?$CJ?2microsof@
CONST	SEGMENT
??_C@_0GK@JMBMHIBC@c?3?2program?5files?5?$CIx86?$CJ?2microsof@ DB 'c:\pro'
	DB	'gram files (x86)\microsoft visual studio\2017\community\vc\to'
	DB	'ols\msvc\14.16.27023\include\algorithm', 00H ; `string'
CONST	ENDS
;	COMDAT ??_C@_0BD@FEEMDEPI@invalid?5comparator@
CONST	SEGMENT
??_C@_0BD@FEEMDEPI@invalid?5comparator@ DB 'invalid comparator', 00H ; `string'
CONST	ENDS
;	COMDAT ?__LINE__Var@?0??set_ka50_infra_red_jammer_auto@@YGXH@Z@4JA
_DATA	SEGMENT
?__LINE__Var@?0??set_ka50_infra_red_jammer_auto@@YGXH@Z@4JA DD 0282H ; `set_ka50_infra_red_jammer_auto'::`1'::__LINE__Var
_DATA	ENDS
;	COMDAT ?__LINE__Var@?0??set_ka50_infra_red_jammer_manual@@YGXH@Z@4JA
_DATA	SEGMENT
?__LINE__Var@?0??set_ka50_infra_red_jammer_manual@@YGXH@Z@4JA DD 0270H ; `set_ka50_infra_red_jammer_manual'::`1'::__LINE__Var
_DATA	ENDS
;	COMDAT ?__LINE__Var@?0??toggle_ka50_infra_red_jammer_manual@@YGXXZ@4JA
_DATA	SEGMENT
?__LINE__Var@?0??toggle_ka50_infra_red_jammer_manual@@YGXXZ@4JA DD 0258H ; `toggle_ka50_infra_red_jammer_manual'::`1'::__LINE__Var
_DATA	ENDS
;	COMDAT ?__LINE__Var@?0??set_ka50_radar_jammer_auto@@YGXH@Z@4JA
_DATA	SEGMENT
?__LINE__Var@?0??set_ka50_radar_jammer_auto@@YGXH@Z@4JA DD 0246H ; `set_ka50_radar_jammer_auto'::`1'::__LINE__Var
_DATA	ENDS
;	COMDAT ?__LINE__Var@?0??set_ka50_radar_jammer_manual@@YGXH@Z@4JA
_DATA	SEGMENT
?__LINE__Var@?0??set_ka50_radar_jammer_manual@@YGXH@Z@4JA DD 0234H ; `set_ka50_radar_jammer_manual'::`1'::__LINE__Var
_DATA	ENDS
;	COMDAT ?__LINE__Var@?0??toggle_ka50_radar_jammer_manual@@YGXXZ@4JA
_DATA	SEGMENT
?__LINE__Var@?0??toggle_ka50_radar_jammer_manual@@YGXXZ@4JA DD 021cH ; `toggle_ka50_radar_jammer_manual'::`1'::__LINE__Var
_DATA	ENDS
;	COMDAT ?__LINE__Var@?0??get_ka50_missile_flight_time@@YGMXZ@4JA
_DATA	SEGMENT
?__LINE__Var@?0??get_ka50_missile_flight_time@@YGMXZ@4JA DD 01dfH ; `get_ka50_missile_flight_time'::`1'::__LINE__Var
_DATA	ENDS
;	COMDAT ?__LINE__Var@?0??update_ka50_weapon_systems@@YGXXZ@4JA
_DATA	SEGMENT
?__LINE__Var@?0??update_ka50_weapon_systems@@YGXXZ@4JA DD 0aaH ; `update_ka50_weapon_systems'::`1'::__LINE__Var
_DATA	ENDS
;	COMDAT ??_C@_02LFNMGJAP@en@
CONST	SEGMENT
??_C@_02LFNMGJAP@en@ DB 'en', 00H			; `string'
CONST	ENDS
;	COMDAT ??_C@_0EM@CMCNDFLJ@c?3?2users?2nhv90?2projects?2eech?2ap@
CONST	SEGMENT
??_C@_0EM@CMCNDFLJ@c?3?2users?2nhv90?2projects?2eech?2ap@ DB 'c:\users\nh'
	DB	'v90\projects\eech\aphavoc\source\gunships\avionics\ka50\hm_wp'
	DB	'n.c', 00H					; `string'
CONST	ENDS
;	COMDAT ?__LINE__Var@?0??apply_weapon_recoil_effect@@YGXPAUENTITY@@H@Z@4JA
_DATA	SEGMENT
?__LINE__Var@?0??apply_weapon_recoil_effect@@YGXPAUENTITY@@H@Z@4JA DD 04aH ; `apply_weapon_recoil_effect'::`1'::__LINE__Var
_DATA	ENDS
;	COMDAT ??_C@_02DKCKIIND@?$CFs@
CONST	SEGMENT
??_C@_02DKCKIIND@?$CFs@ DB '%s', 00H			; `string'
CONST	ENDS
; Function compile flags: /Odtp /ZI
; File c:\program files (x86)\microsoft visual studio\2017\community\vc\tools\msvc\14.16.27023\include\algorithm
;	COMDAT ??$max@H@std@@YGABHABH0@Z
_TEXT	SEGMENT
__Left$ = 8						; size = 4
__Right$ = 12						; size = 4
??$max@H@std@@YGABHABH0@Z PROC				; std::max<int>, COMDAT

; 5387 : 	{	// return larger of _Left and _Right

  00000	55		 push	 ebp
  00001	8b ec		 mov	 ebp, esp
  00003	83 ec 40	 sub	 esp, 64			; 00000040H
  00006	53		 push	 ebx
  00007	56		 push	 esi
  00008	57		 push	 edi

; 5388 : 	if (_Left < _Right)

  00009	8b 45 08	 mov	 eax, DWORD PTR __Left$[ebp]
  0000c	8b 4d 0c	 mov	 ecx, DWORD PTR __Right$[ebp]
  0000f	8b 10		 mov	 edx, DWORD PTR [eax]
  00011	3b 11		 cmp	 edx, DWORD PTR [ecx]
  00013	7d 61		 jge	 SHORT $LN8@max
$LN4@max:

; 5389 : 		{
; 5390 : 		_STL_ASSERT(!(_Right < _Left), "invalid comparator");

  00015	8b 45 0c	 mov	 eax, DWORD PTR __Right$[ebp]
  00018	8b 4d 08	 mov	 ecx, DWORD PTR __Left$[ebp]
  0001b	8b 10		 mov	 edx, DWORD PTR [eax]
  0001d	3b 11		 cmp	 edx, DWORD PTR [ecx]
  0001f	7c 02		 jl	 SHORT $LN7@max
  00021	eb 4a		 jmp	 SHORT $LN2@max
$LN7@max:
  00023	68 00 00 00 00	 push	 OFFSET ??_C@_0BD@FEEMDEPI@invalid?5comparator@
  00028	68 00 00 00 00	 push	 OFFSET ??_C@_02DKCKIIND@?$CFs@
  0002d	6a 00		 push	 0
  0002f	68 0e 15 00 00	 push	 5390			; 0000150eH
  00034	68 00 00 00 00	 push	 OFFSET ??_C@_0GK@JMBMHIBC@c?3?2program?5files?5?$CIx86?$CJ?2microsof@
  00039	6a 02		 push	 2
  0003b	ff 15 00 00 00
	00		 call	 DWORD PTR __imp___CrtDbgReport
  00041	83 c4 18	 add	 esp, 24			; 00000018H
  00044	83 f8 01	 cmp	 eax, 1
  00047	75 01		 jne	 SHORT $LN12@max
  00049	cc		 int	 3
$LN12@max:
  0004a	6a 00		 push	 0
  0004c	68 0e 15 00 00	 push	 5390			; 0000150eH
  00051	68 00 00 00 00	 push	 OFFSET ??_C@_1NE@FKBPBJEB@?$AAc?$AA?3?$AA?2?$AAp?$AAr?$AAo?$AAg?$AAr?$AAa?$AAm?$AA?5?$AAf?$AAi?$AAl?$AAe@
  00056	68 00 00 00 00	 push	 OFFSET ??_C@_1BC@ICCOKLEG@?$AAs?$AAt?$AAd?$AA?3?$AA?3?$AAm?$AAa?$AAx@
  0005b	68 00 00 00 00	 push	 OFFSET ??_C@_1CK@NDNHPKPI@?$AA?$CC?$AAi?$AAn?$AAv?$AAa?$AAl?$AAi?$AAd?$AA?5?$AAc?$AAo?$AAm?$AAp?$AAa?$AAr@
  00060	ff 15 00 00 00
	00		 call	 DWORD PTR __imp___invalid_parameter
  00066	83 c4 14	 add	 esp, 20			; 00000014H
  00069	33 c0		 xor	 eax, eax
  0006b	75 b6		 jne	 SHORT $LN7@max
$LN2@max:
  0006d	33 c0		 xor	 eax, eax
  0006f	75 a4		 jne	 SHORT $LN4@max

; 5391 : 		return (_Right);

  00071	8b 45 0c	 mov	 eax, DWORD PTR __Right$[ebp]
  00074	eb 03		 jmp	 SHORT $LN11@max
$LN8@max:

; 5392 : 		}
; 5393 : 
; 5394 : 	return (_Left);

  00076	8b 45 08	 mov	 eax, DWORD PTR __Left$[ebp]
$LN11@max:

; 5395 : 	}

  00079	5f		 pop	 edi
  0007a	5e		 pop	 esi
  0007b	5b		 pop	 ebx
  0007c	8b e5		 mov	 esp, ebp
  0007e	5d		 pop	 ebp
  0007f	c2 08 00	 ret	 8
??$max@H@std@@YGABHABH0@Z ENDP				; std::max<int>
_TEXT	ENDS
; Function compile flags: /Odtp /ZI
; File c:\program files (x86)\microsoft visual studio\2017\community\vc\tools\msvc\14.16.27023\include\algorithm
;	COMDAT ??$min@H@std@@YGABHABH0@Z
_TEXT	SEGMENT
__Left$ = 8						; size = 4
__Right$ = 12						; size = 4
??$min@H@std@@YGABHABH0@Z PROC				; std::min<int>, COMDAT

; 5427 : 	{	// return smaller of _Left and _Right

  00000	55		 push	 ebp
  00001	8b ec		 mov	 ebp, esp
  00003	83 ec 40	 sub	 esp, 64			; 00000040H
  00006	53		 push	 ebx
  00007	56		 push	 esi
  00008	57		 push	 edi

; 5428 : 	if (_Right < _Left)

  00009	8b 45 0c	 mov	 eax, DWORD PTR __Right$[ebp]
  0000c	8b 4d 08	 mov	 ecx, DWORD PTR __Left$[ebp]
  0000f	8b 10		 mov	 edx, DWORD PTR [eax]
  00011	3b 11		 cmp	 edx, DWORD PTR [ecx]
  00013	7d 61		 jge	 SHORT $LN8@min
$LN4@min:

; 5429 : 		{
; 5430 : 		_STL_ASSERT(!(_Left < _Right), "invalid comparator");

  00015	8b 45 08	 mov	 eax, DWORD PTR __Left$[ebp]
  00018	8b 4d 0c	 mov	 ecx, DWORD PTR __Right$[ebp]
  0001b	8b 10		 mov	 edx, DWORD PTR [eax]
  0001d	3b 11		 cmp	 edx, DWORD PTR [ecx]
  0001f	7c 02		 jl	 SHORT $LN7@min
  00021	eb 4a		 jmp	 SHORT $LN2@min
$LN7@min:
  00023	68 00 00 00 00	 push	 OFFSET ??_C@_0BD@FEEMDEPI@invalid?5comparator@
  00028	68 00 00 00 00	 push	 OFFSET ??_C@_02DKCKIIND@?$CFs@
  0002d	6a 00		 push	 0
  0002f	68 36 15 00 00	 push	 5430			; 00001536H
  00034	68 00 00 00 00	 push	 OFFSET ??_C@_0GK@JMBMHIBC@c?3?2program?5files?5?$CIx86?$CJ?2microsof@
  00039	6a 02		 push	 2
  0003b	ff 15 00 00 00
	00		 call	 DWORD PTR __imp___CrtDbgReport
  00041	83 c4 18	 add	 esp, 24			; 00000018H
  00044	83 f8 01	 cmp	 eax, 1
  00047	75 01		 jne	 SHORT $LN12@min
  00049	cc		 int	 3
$LN12@min:
  0004a	6a 00		 push	 0
  0004c	68 36 15 00 00	 push	 5430			; 00001536H
  00051	68 00 00 00 00	 push	 OFFSET ??_C@_1NE@FKBPBJEB@?$AAc?$AA?3?$AA?2?$AAp?$AAr?$AAo?$AAg?$AAr?$AAa?$AAm?$AA?5?$AAf?$AAi?$AAl?$AAe@
  00056	68 00 00 00 00	 push	 OFFSET ??_C@_1BC@BLAPCBGI@?$AAs?$AAt?$AAd?$AA?3?$AA?3?$AAm?$AAi?$AAn@
  0005b	68 00 00 00 00	 push	 OFFSET ??_C@_1CK@NDNHPKPI@?$AA?$CC?$AAi?$AAn?$AAv?$AAa?$AAl?$AAi?$AAd?$AA?5?$AAc?$AAo?$AAm?$AAp?$AAa?$AAr@
  00060	ff 15 00 00 00
	00		 call	 DWORD PTR __imp___invalid_parameter
  00066	83 c4 14	 add	 esp, 20			; 00000014H
  00069	33 c0		 xor	 eax, eax
  0006b	75 b6		 jne	 SHORT $LN7@min
$LN2@min:
  0006d	33 c0		 xor	 eax, eax
  0006f	75 a4		 jne	 SHORT $LN4@min

; 5431 : 		return (_Right);

  00071	8b 45 0c	 mov	 eax, DWORD PTR __Right$[ebp]
  00074	eb 03		 jmp	 SHORT $LN11@min
$LN8@min:

; 5432 : 		}
; 5433 : 
; 5434 : 	return (_Left);

  00076	8b 45 08	 mov	 eax, DWORD PTR __Left$[ebp]
$LN11@min:

; 5435 : 	}

  00079	5f		 pop	 edi
  0007a	5e		 pop	 esi
  0007b	5b		 pop	 ebx
  0007c	8b e5		 mov	 esp, ebp
  0007e	5d		 pop	 ebp
  0007f	c2 08 00	 ret	 8
??$min@H@std@@YGABHABH0@Z ENDP				; std::min<int>
_TEXT	ENDS
; Function compile flags: /Odtp /ZI
; File c:\users\nhv90\projects\eech\aphavoc\source\gunships\avionics\ka50\hm_wpn.c
;	COMDAT ?apply_weapon_recoil_effect@@YGXPAUENTITY@@H@Z
_TEXT	SEGMENT
tv73 = -124						; size = 4
_vp$ = -56						; size = 48
_strength$ = -8						; size = 4
_duration$ = -4						; size = 4
_en$ = 8						; size = 4
_selected_weapon$ = 12					; size = 4
?apply_weapon_recoil_effect@@YGXPAUENTITY@@H@Z PROC	; apply_weapon_recoil_effect, COMDAT

; 74   : {

  00000	55		 push	 ebp
  00001	8b ec		 mov	 ebp, esp
  00003	83 ec 7c	 sub	 esp, 124		; 0000007cH
  00006	53		 push	 ebx
  00007	56		 push	 esi
  00008	57		 push	 edi

; 75   : 	float
; 76   : 		duration,
; 77   : 		strength;
; 78   : 
; 79   : 	viewpoint
; 80   : 		vp;
; 81   : 
; 82   : 	ASSERT (en);

  00009	83 7d 08 00	 cmp	 DWORD PTR _en$[ebp], 0
  0000d	75 18		 jne	 SHORT $LN4@apply_weap
  0000f	a1 00 00 00 00	 mov	 eax, DWORD PTR ?__LINE__Var@?0??apply_weapon_recoil_effect@@YGXPAUENTITY@@H@Z@4JA
  00014	83 c0 08	 add	 eax, 8
  00017	50		 push	 eax
  00018	68 00 00 00 00	 push	 OFFSET ??_C@_0EM@CMCNDFLJ@c?3?2users?2nhv90?2projects?2eech?2ap@
  0001d	68 00 00 00 00	 push	 OFFSET ??_C@_02LFNMGJAP@en@
  00022	e8 00 00 00 00	 call	 ?process_assert@@YGXPBD0H@Z ; process_assert
$LN4@apply_weap:

; 83   : 
; 84   : 	if (get_local_entity_selected_weapon_viewpoint (en, &vp))

  00027	8d 45 c8	 lea	 eax, DWORD PTR _vp$[ebp]
  0002a	50		 push	 eax
  0002b	8b 4d 08	 mov	 ecx, DWORD PTR _en$[ebp]
  0002e	51		 push	 ecx
  0002f	e8 00 00 00 00	 call	 ?get_local_entity_selected_weapon_viewpoint@@YGHPAUENTITY@@PAUVIEWPOINT@@@Z ; get_local_entity_selected_weapon_viewpoint
  00034	85 c0		 test	 eax, eax
  00036	0f 84 0b 01 00
	00		 je	 $LN5@apply_weap

; 85   : 	{
; 86   : 		switch (selected_weapon)

  0003c	8b 45 0c	 mov	 eax, DWORD PTR _selected_weapon$[ebp]
  0003f	89 45 84	 mov	 DWORD PTR tv73[ebp], eax
  00042	8b 4d 84	 mov	 ecx, DWORD PTR tv73[ebp]
  00045	83 e9 0f	 sub	 ecx, 15			; 0000000fH
  00048	89 4d 84	 mov	 DWORD PTR tv73[ebp], ecx
  0004b	83 7d 84 23	 cmp	 DWORD PTR tv73[ebp], 35	; 00000023H
  0004f	0f 87 bf 00 00
	00		 ja	 $LN12@apply_weap
  00055	8b 55 84	 mov	 edx, DWORD PTR tv73[ebp]
  00058	0f b6 82 00 00
	00 00		 movzx	 eax, BYTE PTR $LN14@apply_weap[edx]
  0005f	ff 24 85 00 00
	00 00		 jmp	 DWORD PTR $LN15@apply_weap[eax*4]
$LN6@apply_weap:

; 87   : 		{
; 88   : 			////////////////////////////////////////
; 89   : 			case ENTITY_SUB_TYPE_WEAPON_2A42_30MM_HE_ROUND:
; 90   : 			case ENTITY_SUB_TYPE_WEAPON_2A42_30MM_AP_ROUND:
; 91   : 			////////////////////////////////////////
; 92   : 			{
; 93   : 				duration = 0.3;

  00066	f3 0f 10 05 00
	00 00 00	 movss	 xmm0, DWORD PTR __real@3e99999a
  0006e	f3 0f 11 45 fc	 movss	 DWORD PTR _duration$[ebp], xmm0

; 94   : 
; 95   : 				strength = 2.0;

  00073	f3 0f 10 05 00
	00 00 00	 movss	 xmm0, DWORD PTR __real@40000000
  0007b	f3 0f 11 45 f8	 movss	 DWORD PTR _strength$[ebp], xmm0

; 96   : 
; 97   : 				break;

  00080	e9 9f 00 00 00	 jmp	 $LN2@apply_weap
$LN7@apply_weap:

; 98   : 			}
; 99   : 			////////////////////////////////////////
; 100  : 			case ENTITY_SUB_TYPE_WEAPON_IGLA_V:
; 101  : 			////////////////////////////////////////
; 102  : 			{
; 103  : 				duration = 0.6;

  00085	f3 0f 10 05 00
	00 00 00	 movss	 xmm0, DWORD PTR __real@3f19999a
  0008d	f3 0f 11 45 fc	 movss	 DWORD PTR _duration$[ebp], xmm0

; 104  : 
; 105  : 				strength = 7.5;

  00092	f3 0f 10 05 00
	00 00 00	 movss	 xmm0, DWORD PTR __real@40f00000
  0009a	f3 0f 11 45 f8	 movss	 DWORD PTR _strength$[ebp], xmm0

; 106  : 
; 107  : 				break;

  0009f	e9 80 00 00 00	 jmp	 $LN2@apply_weap
$LN8@apply_weap:

; 108  : 			}
; 109  : 			////////////////////////////////////////
; 110  : 			case ENTITY_SUB_TYPE_WEAPON_VIKHR:
; 111  : 			////////////////////////////////////////
; 112  : 			{
; 113  : 				duration = 0.7;

  000a4	f3 0f 10 05 00
	00 00 00	 movss	 xmm0, DWORD PTR __real@3f333333
  000ac	f3 0f 11 45 fc	 movss	 DWORD PTR _duration$[ebp], xmm0

; 114  : 
; 115  : 				strength = 9.0;

  000b1	f3 0f 10 05 00
	00 00 00	 movss	 xmm0, DWORD PTR __real@41100000
  000b9	f3 0f 11 45 f8	 movss	 DWORD PTR _strength$[ebp], xmm0

; 116  : 
; 117  : 				break;

  000be	eb 64		 jmp	 SHORT $LN2@apply_weap
$LN9@apply_weap:

; 118  : 			}
; 119  : 			////////////////////////////////////////
; 120  : 			case ENTITY_SUB_TYPE_WEAPON_S8:
; 121  : 			////////////////////////////////////////
; 122  : 			{
; 123  : 				duration = 0.4;

  000c0	f3 0f 10 05 00
	00 00 00	 movss	 xmm0, DWORD PTR __real@3ecccccd
  000c8	f3 0f 11 45 fc	 movss	 DWORD PTR _duration$[ebp], xmm0

; 124  : 
; 125  : 				strength = 10.0;

  000cd	f3 0f 10 05 00
	00 00 00	 movss	 xmm0, DWORD PTR __real@41200000
  000d5	f3 0f 11 45 f8	 movss	 DWORD PTR _strength$[ebp], xmm0

; 126  : 
; 127  : 				break;

  000da	eb 48		 jmp	 SHORT $LN2@apply_weap
$LN10@apply_weap:

; 128  : 			}
; 129  : 			////////////////////////////////////////
; 130  : 			case ENTITY_SUB_TYPE_WEAPON_S13:
; 131  : 			////////////////////////////////////////
; 132  : 			{
; 133  : 				duration = 0.5;

  000dc	f3 0f 10 05 00
	00 00 00	 movss	 xmm0, DWORD PTR __real@3f000000
  000e4	f3 0f 11 45 fc	 movss	 DWORD PTR _duration$[ebp], xmm0

; 134  : 
; 135  : 				strength = 7.5;

  000e9	f3 0f 10 05 00
	00 00 00	 movss	 xmm0, DWORD PTR __real@40f00000
  000f1	f3 0f 11 45 f8	 movss	 DWORD PTR _strength$[ebp], xmm0

; 136  : 
; 137  : 				break;

  000f6	eb 2c		 jmp	 SHORT $LN2@apply_weap
$LN11@apply_weap:

; 138  : 			}
; 139  : 			////////////////////////////////////////
; 140  : 			case ENTITY_SUB_TYPE_WEAPON_GSH23L_23MM_ROUND:
; 141  : 			////////////////////////////////////////
; 142  : 			{
; 143  : 				duration = 0.1;

  000f8	f3 0f 10 05 00
	00 00 00	 movss	 xmm0, DWORD PTR __real@3dcccccd
  00100	f3 0f 11 45 fc	 movss	 DWORD PTR _duration$[ebp], xmm0

; 144  : 
; 145  : 				strength = 2.5;

  00105	f3 0f 10 05 00
	00 00 00	 movss	 xmm0, DWORD PTR __real@40200000
  0010d	f3 0f 11 45 f8	 movss	 DWORD PTR _strength$[ebp], xmm0

; 146  : 
; 147  : 				break;

  00112	eb 10		 jmp	 SHORT $LN2@apply_weap
$LN12@apply_weap:

; 148  : 			}
; 149  : 			////////////////////////////////////////
; 150  : 			default:
; 151  : 			////////////////////////////////////////
; 152  : 			{
; 153  : 				duration = 0.0;

  00114	0f 57 c0	 xorps	 xmm0, xmm0
  00117	f3 0f 11 45 fc	 movss	 DWORD PTR _duration$[ebp], xmm0

; 154  : 
; 155  : 				strength = 0.0;

  0011c	0f 57 c0	 xorps	 xmm0, xmm0
  0011f	f3 0f 11 45 f8	 movss	 DWORD PTR _strength$[ebp], xmm0
$LN2@apply_weap:

; 156  : 
; 157  : 				break;
; 158  : 			}
; 159  : 		}
; 160  : 
; 161  : 		add_dynamic_weapon_launch_force (&vp.position, &vp.zv, strength, duration);

  00124	51		 push	 ecx
  00125	f3 0f 10 45 fc	 movss	 xmm0, DWORD PTR _duration$[ebp]
  0012a	f3 0f 11 04 24	 movss	 DWORD PTR [esp], xmm0
  0012f	51		 push	 ecx
  00130	f3 0f 10 45 f8	 movss	 xmm0, DWORD PTR _strength$[ebp]
  00135	f3 0f 11 04 24	 movss	 DWORD PTR [esp], xmm0
  0013a	8d 45 ec	 lea	 eax, DWORD PTR _vp$[ebp+36]
  0013d	50		 push	 eax
  0013e	8d 4d c8	 lea	 ecx, DWORD PTR _vp$[ebp]
  00141	51		 push	 ecx
  00142	e8 00 00 00 00	 call	 ?add_dynamic_weapon_launch_force@@YGXPAUVEC3D@@0MM@Z ; add_dynamic_weapon_launch_force
$LN5@apply_weap:

; 162  : 	}
; 163  : }

  00147	5f		 pop	 edi
  00148	5e		 pop	 esi
  00149	5b		 pop	 ebx
  0014a	8b e5		 mov	 esp, ebp
  0014c	5d		 pop	 ebp
  0014d	c2 08 00	 ret	 8
$LN15@apply_weap:
  00150	00 00 00 00	 DD	 $LN11@apply_weap
  00154	00 00 00 00	 DD	 $LN6@apply_weap
  00158	00 00 00 00	 DD	 $LN9@apply_weap
  0015c	00 00 00 00	 DD	 $LN10@apply_weap
  00160	00 00 00 00	 DD	 $LN7@apply_weap
  00164	00 00 00 00	 DD	 $LN8@apply_weap
  00168	00 00 00 00	 DD	 $LN12@apply_weap
$LN14@apply_weap:
  0016c	00		 DB	 0
  0016d	06		 DB	 6
  0016e	06		 DB	 6
  0016f	06		 DB	 6
  00170	01		 DB	 1
  00171	01		 DB	 1
  00172	06		 DB	 6
  00173	06		 DB	 6
  00174	06		 DB	 6
  00175	06		 DB	 6
  00176	06		 DB	 6
  00177	06		 DB	 6
  00178	06		 DB	 6
  00179	06		 DB	 6
  0017a	06		 DB	 6
  0017b	06		 DB	 6
  0017c	06		 DB	 6
  0017d	06		 DB	 6
  0017e	06		 DB	 6
  0017f	02		 DB	 2
  00180	03		 DB	 3
  00181	06		 DB	 6
  00182	06		 DB	 6
  00183	06		 DB	 6
  00184	04		 DB	 4
  00185	06		 DB	 6
  00186	06		 DB	 6
  00187	06		 DB	 6
  00188	06		 DB	 6
  00189	06		 DB	 6
  0018a	06		 DB	 6
  0018b	06		 DB	 6
  0018c	06		 DB	 6
  0018d	06		 DB	 6
  0018e	06		 DB	 6
  0018f	05		 DB	 5
?apply_weapon_recoil_effect@@YGXPAUENTITY@@H@Z ENDP	; apply_weapon_recoil_effect
_TEXT	ENDS
; Function compile flags: /Odtp /ZI
; File c:\users\nhv90\projects\eech\aphavoc\source\gunships\avionics\ka50\hm_wpn.c
;	COMDAT ?set_ka50_infra_red_jammer_auto@@YGXH@Z
_TEXT	SEGMENT
tv133 = -72						; size = 4
tv80 = -72						; size = 4
tv93 = -68						; size = 4
tv73 = -68						; size = 4
_state$ = 8						; size = 4
?set_ka50_infra_red_jammer_auto@@YGXH@Z PROC		; set_ka50_infra_red_jammer_auto, COMDAT

; 642  : {

  00000	55		 push	 ebp
  00001	8b ec		 mov	 ebp, esp
  00003	83 ec 48	 sub	 esp, 72			; 00000048H
  00006	53		 push	 ebx
  00007	56		 push	 esi
  00008	57		 push	 edi

; 643  : 	if (!ka50_damage.infra_red_jammer)

  00009	a1 00 00 00 00	 mov	 eax, DWORD PTR ?ka50_damage@@3TKA50_DAMAGE_FLAGS@@A ; ka50_damage
  0000e	c1 e8 03	 shr	 eax, 3
  00011	83 e0 01	 and	 eax, 1
  00014	0f 85 24 01 00
	00		 jne	 $LN1@set_ka50_i

; 644  : 	{
; 645  : 		if (get_global_auto_counter_measures ())

  0001a	83 3d 90 00 00
	00 00		 cmp	 DWORD PTR ?global_options@@3UGLOBAL_OPTIONS_DATA@@A+144, 0
  00021	0f 84 17 01 00
	00		 je	 $LN1@set_ka50_i

; 646  : 		{
; 647  : 			if (state != get_local_entity_int_value (get_gunship_entity (), INT_TYPE_INFRA_RED_JAMMER_ON))

  00027	83 3d 00 00 00
	00 00		 cmp	 DWORD PTR ?gunship_entity@@3PAUENTITY@@A, 0 ; gunship_entity
  0002e	74 0c		 je	 SHORT $LN6@set_ka50_i
  00030	a1 00 00 00 00	 mov	 eax, DWORD PTR ?gunship_entity@@3PAUENTITY@@A ; gunship_entity
  00035	8b 08		 mov	 ecx, DWORD PTR [eax]
  00037	89 4d bc	 mov	 DWORD PTR tv73[ebp], ecx
  0003a	eb 1d		 jmp	 SHORT $LN7@set_ka50_i
$LN6@set_ka50_i:
  0003c	68 87 02 00 00	 push	 647			; 00000287H
  00041	68 00 00 00 00	 push	 OFFSET ??_C@_0EM@CMCNDFLJ@c?3?2users?2nhv90?2projects?2eech?2ap@
  00046	8b 15 00 00 00
	00		 mov	 edx, DWORD PTR ?null_entity_pointer_message@@3PBDB ; null_entity_pointer_message
  0004c	52		 push	 edx
  0004d	e8 00 00 00 00	 call	 ?process_assert@@YGXPBD0H@Z ; process_assert
  00052	c7 45 bc 00 00
	00 00		 mov	 DWORD PTR tv73[ebp], 0
$LN7@set_ka50_i:
  00059	b8 01 00 00 00	 mov	 eax, 1
  0005e	85 c0		 test	 eax, eax
  00060	74 09		 je	 SHORT $LN8@set_ka50_i
  00062	c7 45 b8 68 00
	00 00		 mov	 DWORD PTR tv80[ebp], 104 ; 00000068H
  00069	eb 1d		 jmp	 SHORT $LN9@set_ka50_i
$LN8@set_ka50_i:
  0006b	68 87 02 00 00	 push	 647			; 00000287H
  00070	68 00 00 00 00	 push	 OFFSET ??_C@_0EM@CMCNDFLJ@c?3?2users?2nhv90?2projects?2eech?2ap@
  00075	8b 0d 00 00 00
	00		 mov	 ecx, DWORD PTR ?overload_invalid_int_type_message@@3PBDB ; overload_invalid_int_type_message
  0007b	51		 push	 ecx
  0007c	e8 00 00 00 00	 call	 ?process_assert@@YGXPBD0H@Z ; process_assert
  00081	c7 45 b8 00 00
	00 00		 mov	 DWORD PTR tv80[ebp], 0
$LN9@set_ka50_i:
  00088	6a 68		 push	 104			; 00000068H
  0008a	8b 15 00 00 00
	00		 mov	 edx, DWORD PTR ?gunship_entity@@3PAUENTITY@@A ; gunship_entity
  00090	52		 push	 edx
  00091	69 45 bc 5c 04
	00 00		 imul	 eax, DWORD PTR tv73[ebp], 1116
  00098	8b 4d b8	 mov	 ecx, DWORD PTR tv80[ebp]
  0009b	8b 94 88 00 00
	00 00		 mov	 edx, DWORD PTR ?fn_get_local_entity_int_value@@3PAY0BBH@P6GHPAUENTITY@@W4INT_TYPES@@@ZA[eax+ecx*4]
  000a2	ff d2		 call	 edx
  000a4	39 45 08	 cmp	 DWORD PTR _state$[ebp], eax
  000a7	0f 84 91 00 00
	00		 je	 $LN1@set_ka50_i

; 648  : 			{
; 649  : 				set_client_server_entity_int_value (get_gunship_entity (), INT_TYPE_INFRA_RED_JAMMER_ON, state);

  000ad	83 3d 00 00 00
	00 00		 cmp	 DWORD PTR ?gunship_entity@@3PAUENTITY@@A, 0 ; gunship_entity
  000b4	74 0c		 je	 SHORT $LN10@set_ka50_i
  000b6	a1 00 00 00 00	 mov	 eax, DWORD PTR ?gunship_entity@@3PAUENTITY@@A ; gunship_entity
  000bb	8b 08		 mov	 ecx, DWORD PTR [eax]
  000bd	89 4d bc	 mov	 DWORD PTR tv93[ebp], ecx
  000c0	eb 21		 jmp	 SHORT $LN11@set_ka50_i
$LN10@set_ka50_i:
  000c2	8b 15 00 00 00
	00		 mov	 edx, DWORD PTR ?__LINE__Var@?0??set_ka50_infra_red_jammer_auto@@YGXH@Z@4JA
  000c8	83 c2 07	 add	 edx, 7
  000cb	52		 push	 edx
  000cc	68 00 00 00 00	 push	 OFFSET ??_C@_0EM@CMCNDFLJ@c?3?2users?2nhv90?2projects?2eech?2ap@
  000d1	a1 00 00 00 00	 mov	 eax, DWORD PTR ?null_entity_pointer_message@@3PBDB ; null_entity_pointer_message
  000d6	50		 push	 eax
  000d7	e8 00 00 00 00	 call	 ?process_assert@@YGXPBD0H@Z ; process_assert
  000dc	c7 45 bc 00 00
	00 00		 mov	 DWORD PTR tv93[ebp], 0
$LN11@set_ka50_i:
  000e3	b9 01 00 00 00	 mov	 ecx, 1
  000e8	85 c9		 test	 ecx, ecx
  000ea	74 09		 je	 SHORT $LN12@set_ka50_i
  000ec	c7 45 b8 68 00
	00 00		 mov	 DWORD PTR tv133[ebp], 104 ; 00000068H
  000f3	eb 21		 jmp	 SHORT $LN13@set_ka50_i
$LN12@set_ka50_i:
  000f5	8b 15 00 00 00
	00		 mov	 edx, DWORD PTR ?__LINE__Var@?0??set_ka50_infra_red_jammer_auto@@YGXH@Z@4JA
  000fb	83 c2 07	 add	 edx, 7
  000fe	52		 push	 edx
  000ff	68 00 00 00 00	 push	 OFFSET ??_C@_0EM@CMCNDFLJ@c?3?2users?2nhv90?2projects?2eech?2ap@
  00104	a1 00 00 00 00	 mov	 eax, DWORD PTR ?overload_invalid_int_type_message@@3PBDB ; overload_invalid_int_type_message
  00109	50		 push	 eax
  0010a	e8 00 00 00 00	 call	 ?process_assert@@YGXPBD0H@Z ; process_assert
  0010f	c7 45 b8 00 00
	00 00		 mov	 DWORD PTR tv133[ebp], 0
$LN13@set_ka50_i:
  00116	8b 4d 08	 mov	 ecx, DWORD PTR _state$[ebp]
  00119	51		 push	 ecx
  0011a	6a 68		 push	 104			; 00000068H
  0011c	8b 15 00 00 00
	00		 mov	 edx, DWORD PTR ?gunship_entity@@3PAUENTITY@@A ; gunship_entity
  00122	52		 push	 edx
  00123	69 45 bc b8 08
	00 00		 imul	 eax, DWORD PTR tv93[ebp], 2232
  0012a	8b 4d b8	 mov	 ecx, DWORD PTR tv133[ebp]
  0012d	8d 94 c8 00 00
	00 00		 lea	 edx, DWORD PTR ?fn_set_client_server_entity_int_value@@3PAY1BBH@1P6GXPAUENTITY@@W4INT_TYPES@@H@ZA[eax+ecx*8]
  00134	a1 00 00 00 00	 mov	 eax, DWORD PTR ?system_comms_model@@3W4COMMS_MODEL_TYPES@@A ; system_comms_model
  00139	8b 0c 82	 mov	 ecx, DWORD PTR [edx+eax*4]
  0013c	ff d1		 call	 ecx
$LN1@set_ka50_i:

; 650  : 			}
; 651  : 		}
; 652  : 	}
; 653  : }

  0013e	5f		 pop	 edi
  0013f	5e		 pop	 esi
  00140	5b		 pop	 ebx
  00141	8b e5		 mov	 esp, ebp
  00143	5d		 pop	 ebp
  00144	c2 04 00	 ret	 4
?set_ka50_infra_red_jammer_auto@@YGXH@Z ENDP		; set_ka50_infra_red_jammer_auto
_TEXT	ENDS
; Function compile flags: /Odtp /ZI
; File c:\users\nhv90\projects\eech\aphavoc\source\gunships\avionics\ka50\hm_wpn.c
;	COMDAT ?set_ka50_infra_red_jammer_manual@@YGXH@Z
_TEXT	SEGMENT
tv133 = -72						; size = 4
tv80 = -72						; size = 4
tv93 = -68						; size = 4
tv73 = -68						; size = 4
_state$ = 8						; size = 4
?set_ka50_infra_red_jammer_manual@@YGXH@Z PROC		; set_ka50_infra_red_jammer_manual, COMDAT

; 624  : {

  00000	55		 push	 ebp
  00001	8b ec		 mov	 ebp, esp
  00003	83 ec 48	 sub	 esp, 72			; 00000048H
  00006	53		 push	 ebx
  00007	56		 push	 esi
  00008	57		 push	 edi

; 625  : 	if (!ka50_damage.infra_red_jammer)

  00009	a1 00 00 00 00	 mov	 eax, DWORD PTR ?ka50_damage@@3TKA50_DAMAGE_FLAGS@@A ; ka50_damage
  0000e	c1 e8 03	 shr	 eax, 3
  00011	83 e0 01	 and	 eax, 1
  00014	0f 85 24 01 00
	00		 jne	 $LN1@set_ka50_i

; 626  : 	{
; 627  : 		if (!get_global_auto_counter_measures ())

  0001a	83 3d 90 00 00
	00 00		 cmp	 DWORD PTR ?global_options@@3UGLOBAL_OPTIONS_DATA@@A+144, 0
  00021	0f 85 17 01 00
	00		 jne	 $LN1@set_ka50_i

; 628  : 		{
; 629  : 			if (state != get_local_entity_int_value (get_gunship_entity (), INT_TYPE_INFRA_RED_JAMMER_ON))

  00027	83 3d 00 00 00
	00 00		 cmp	 DWORD PTR ?gunship_entity@@3PAUENTITY@@A, 0 ; gunship_entity
  0002e	74 0c		 je	 SHORT $LN6@set_ka50_i
  00030	a1 00 00 00 00	 mov	 eax, DWORD PTR ?gunship_entity@@3PAUENTITY@@A ; gunship_entity
  00035	8b 08		 mov	 ecx, DWORD PTR [eax]
  00037	89 4d bc	 mov	 DWORD PTR tv73[ebp], ecx
  0003a	eb 1d		 jmp	 SHORT $LN7@set_ka50_i
$LN6@set_ka50_i:
  0003c	68 75 02 00 00	 push	 629			; 00000275H
  00041	68 00 00 00 00	 push	 OFFSET ??_C@_0EM@CMCNDFLJ@c?3?2users?2nhv90?2projects?2eech?2ap@
  00046	8b 15 00 00 00
	00		 mov	 edx, DWORD PTR ?null_entity_pointer_message@@3PBDB ; null_entity_pointer_message
  0004c	52		 push	 edx
  0004d	e8 00 00 00 00	 call	 ?process_assert@@YGXPBD0H@Z ; process_assert
  00052	c7 45 bc 00 00
	00 00		 mov	 DWORD PTR tv73[ebp], 0
$LN7@set_ka50_i:
  00059	b8 01 00 00 00	 mov	 eax, 1
  0005e	85 c0		 test	 eax, eax
  00060	74 09		 je	 SHORT $LN8@set_ka50_i
  00062	c7 45 b8 68 00
	00 00		 mov	 DWORD PTR tv80[ebp], 104 ; 00000068H
  00069	eb 1d		 jmp	 SHORT $LN9@set_ka50_i
$LN8@set_ka50_i:
  0006b	68 75 02 00 00	 push	 629			; 00000275H
  00070	68 00 00 00 00	 push	 OFFSET ??_C@_0EM@CMCNDFLJ@c?3?2users?2nhv90?2projects?2eech?2ap@
  00075	8b 0d 00 00 00
	00		 mov	 ecx, DWORD PTR ?overload_invalid_int_type_message@@3PBDB ; overload_invalid_int_type_message
  0007b	51		 push	 ecx
  0007c	e8 00 00 00 00	 call	 ?process_assert@@YGXPBD0H@Z ; process_assert
  00081	c7 45 b8 00 00
	00 00		 mov	 DWORD PTR tv80[ebp], 0
$LN9@set_ka50_i:
  00088	6a 68		 push	 104			; 00000068H
  0008a	8b 15 00 00 00
	00		 mov	 edx, DWORD PTR ?gunship_entity@@3PAUENTITY@@A ; gunship_entity
  00090	52		 push	 edx
  00091	69 45 bc 5c 04
	00 00		 imul	 eax, DWORD PTR tv73[ebp], 1116
  00098	8b 4d b8	 mov	 ecx, DWORD PTR tv80[ebp]
  0009b	8b 94 88 00 00
	00 00		 mov	 edx, DWORD PTR ?fn_get_local_entity_int_value@@3PAY0BBH@P6GHPAUENTITY@@W4INT_TYPES@@@ZA[eax+ecx*4]
  000a2	ff d2		 call	 edx
  000a4	39 45 08	 cmp	 DWORD PTR _state$[ebp], eax
  000a7	0f 84 91 00 00
	00		 je	 $LN1@set_ka50_i

; 630  : 			{
; 631  : 				set_client_server_entity_int_value (get_gunship_entity (), INT_TYPE_INFRA_RED_JAMMER_ON, state);

  000ad	83 3d 00 00 00
	00 00		 cmp	 DWORD PTR ?gunship_entity@@3PAUENTITY@@A, 0 ; gunship_entity
  000b4	74 0c		 je	 SHORT $LN10@set_ka50_i
  000b6	a1 00 00 00 00	 mov	 eax, DWORD PTR ?gunship_entity@@3PAUENTITY@@A ; gunship_entity
  000bb	8b 08		 mov	 ecx, DWORD PTR [eax]
  000bd	89 4d bc	 mov	 DWORD PTR tv93[ebp], ecx
  000c0	eb 21		 jmp	 SHORT $LN11@set_ka50_i
$LN10@set_ka50_i:
  000c2	8b 15 00 00 00
	00		 mov	 edx, DWORD PTR ?__LINE__Var@?0??set_ka50_infra_red_jammer_manual@@YGXH@Z@4JA
  000c8	83 c2 07	 add	 edx, 7
  000cb	52		 push	 edx
  000cc	68 00 00 00 00	 push	 OFFSET ??_C@_0EM@CMCNDFLJ@c?3?2users?2nhv90?2projects?2eech?2ap@
  000d1	a1 00 00 00 00	 mov	 eax, DWORD PTR ?null_entity_pointer_message@@3PBDB ; null_entity_pointer_message
  000d6	50		 push	 eax
  000d7	e8 00 00 00 00	 call	 ?process_assert@@YGXPBD0H@Z ; process_assert
  000dc	c7 45 bc 00 00
	00 00		 mov	 DWORD PTR tv93[ebp], 0
$LN11@set_ka50_i:
  000e3	b9 01 00 00 00	 mov	 ecx, 1
  000e8	85 c9		 test	 ecx, ecx
  000ea	74 09		 je	 SHORT $LN12@set_ka50_i
  000ec	c7 45 b8 68 00
	00 00		 mov	 DWORD PTR tv133[ebp], 104 ; 00000068H
  000f3	eb 21		 jmp	 SHORT $LN13@set_ka50_i
$LN12@set_ka50_i:
  000f5	8b 15 00 00 00
	00		 mov	 edx, DWORD PTR ?__LINE__Var@?0??set_ka50_infra_red_jammer_manual@@YGXH@Z@4JA
  000fb	83 c2 07	 add	 edx, 7
  000fe	52		 push	 edx
  000ff	68 00 00 00 00	 push	 OFFSET ??_C@_0EM@CMCNDFLJ@c?3?2users?2nhv90?2projects?2eech?2ap@
  00104	a1 00 00 00 00	 mov	 eax, DWORD PTR ?overload_invalid_int_type_message@@3PBDB ; overload_invalid_int_type_message
  00109	50		 push	 eax
  0010a	e8 00 00 00 00	 call	 ?process_assert@@YGXPBD0H@Z ; process_assert
  0010f	c7 45 b8 00 00
	00 00		 mov	 DWORD PTR tv133[ebp], 0
$LN13@set_ka50_i:
  00116	8b 4d 08	 mov	 ecx, DWORD PTR _state$[ebp]
  00119	51		 push	 ecx
  0011a	6a 68		 push	 104			; 00000068H
  0011c	8b 15 00 00 00
	00		 mov	 edx, DWORD PTR ?gunship_entity@@3PAUENTITY@@A ; gunship_entity
  00122	52		 push	 edx
  00123	69 45 bc b8 08
	00 00		 imul	 eax, DWORD PTR tv93[ebp], 2232
  0012a	8b 4d b8	 mov	 ecx, DWORD PTR tv133[ebp]
  0012d	8d 94 c8 00 00
	00 00		 lea	 edx, DWORD PTR ?fn_set_client_server_entity_int_value@@3PAY1BBH@1P6GXPAUENTITY@@W4INT_TYPES@@H@ZA[eax+ecx*8]
  00134	a1 00 00 00 00	 mov	 eax, DWORD PTR ?system_comms_model@@3W4COMMS_MODEL_TYPES@@A ; system_comms_model
  00139	8b 0c 82	 mov	 ecx, DWORD PTR [edx+eax*4]
  0013c	ff d1		 call	 ecx
$LN1@set_ka50_i:

; 632  : 			}
; 633  : 		}
; 634  : 	}
; 635  : }

  0013e	5f		 pop	 edi
  0013f	5e		 pop	 esi
  00140	5b		 pop	 ebx
  00141	8b e5		 mov	 esp, ebp
  00143	5d		 pop	 ebp
  00144	c2 04 00	 ret	 4
?set_ka50_infra_red_jammer_manual@@YGXH@Z ENDP		; set_ka50_infra_red_jammer_manual
_TEXT	ENDS
; Function compile flags: /Odtp /ZI
; File c:\users\nhv90\projects\eech\aphavoc\source\gunships\avionics\ka50\hm_wpn.c
;	COMDAT ?toggle_ka50_infra_red_jammer_manual@@YGXXZ
_TEXT	SEGMENT
tv155 = -72						; size = 4
tv133 = -72						; size = 4
tv80 = -72						; size = 4
tv147 = -68						; size = 4
tv93 = -68						; size = 4
tv73 = -68						; size = 4
?toggle_ka50_infra_red_jammer_manual@@YGXXZ PROC	; toggle_ka50_infra_red_jammer_manual, COMDAT

; 600  : {

  00000	55		 push	 ebp
  00001	8b ec		 mov	 ebp, esp
  00003	83 ec 48	 sub	 esp, 72			; 00000048H
  00006	53		 push	 ebx
  00007	56		 push	 esi
  00008	57		 push	 edi

; 601  : 	if (!ka50_damage.infra_red_jammer)

  00009	a1 00 00 00 00	 mov	 eax, DWORD PTR ?ka50_damage@@3TKA50_DAMAGE_FLAGS@@A ; ka50_damage
  0000e	c1 e8 03	 shr	 eax, 3
  00011	83 e0 01	 and	 eax, 1
  00014	0f 85 b7 01 00
	00		 jne	 $LN2@toggle_ka5

; 602  : 	{
; 603  : 		if (!get_global_auto_counter_measures ())

  0001a	83 3d 90 00 00
	00 00		 cmp	 DWORD PTR ?global_options@@3UGLOBAL_OPTIONS_DATA@@A+144, 0
  00021	0f 85 aa 01 00
	00		 jne	 $LN2@toggle_ka5

; 604  : 		{
; 605  : 			if (get_local_entity_int_value (get_gunship_entity (), INT_TYPE_INFRA_RED_JAMMER_ON))

  00027	83 3d 00 00 00
	00 00		 cmp	 DWORD PTR ?gunship_entity@@3PAUENTITY@@A, 0 ; gunship_entity
  0002e	74 0c		 je	 SHORT $LN7@toggle_ka5
  00030	a1 00 00 00 00	 mov	 eax, DWORD PTR ?gunship_entity@@3PAUENTITY@@A ; gunship_entity
  00035	8b 08		 mov	 ecx, DWORD PTR [eax]
  00037	89 4d bc	 mov	 DWORD PTR tv73[ebp], ecx
  0003a	eb 1d		 jmp	 SHORT $LN8@toggle_ka5
$LN7@toggle_ka5:
  0003c	68 5d 02 00 00	 push	 605			; 0000025dH
  00041	68 00 00 00 00	 push	 OFFSET ??_C@_0EM@CMCNDFLJ@c?3?2users?2nhv90?2projects?2eech?2ap@
  00046	8b 15 00 00 00
	00		 mov	 edx, DWORD PTR ?null_entity_pointer_message@@3PBDB ; null_entity_pointer_message
  0004c	52		 push	 edx
  0004d	e8 00 00 00 00	 call	 ?process_assert@@YGXPBD0H@Z ; process_assert
  00052	c7 45 bc 00 00
	00 00		 mov	 DWORD PTR tv73[ebp], 0
$LN8@toggle_ka5:
  00059	b8 01 00 00 00	 mov	 eax, 1
  0005e	85 c0		 test	 eax, eax
  00060	74 09		 je	 SHORT $LN9@toggle_ka5
  00062	c7 45 b8 68 00
	00 00		 mov	 DWORD PTR tv80[ebp], 104 ; 00000068H
  00069	eb 1d		 jmp	 SHORT $LN10@toggle_ka5
$LN9@toggle_ka5:
  0006b	68 5d 02 00 00	 push	 605			; 0000025dH
  00070	68 00 00 00 00	 push	 OFFSET ??_C@_0EM@CMCNDFLJ@c?3?2users?2nhv90?2projects?2eech?2ap@
  00075	8b 0d 00 00 00
	00		 mov	 ecx, DWORD PTR ?overload_invalid_int_type_message@@3PBDB ; overload_invalid_int_type_message
  0007b	51		 push	 ecx
  0007c	e8 00 00 00 00	 call	 ?process_assert@@YGXPBD0H@Z ; process_assert
  00081	c7 45 b8 00 00
	00 00		 mov	 DWORD PTR tv80[ebp], 0
$LN10@toggle_ka5:
  00088	6a 68		 push	 104			; 00000068H
  0008a	8b 15 00 00 00
	00		 mov	 edx, DWORD PTR ?gunship_entity@@3PAUENTITY@@A ; gunship_entity
  00090	52		 push	 edx
  00091	69 45 bc 5c 04
	00 00		 imul	 eax, DWORD PTR tv73[ebp], 1116
  00098	8b 4d b8	 mov	 ecx, DWORD PTR tv80[ebp]
  0009b	8b 94 88 00 00
	00 00		 mov	 edx, DWORD PTR ?fn_get_local_entity_int_value@@3PAY0BBH@P6GHPAUENTITY@@W4INT_TYPES@@@ZA[eax+ecx*4]
  000a2	ff d2		 call	 edx
  000a4	85 c0		 test	 eax, eax
  000a6	0f 84 95 00 00
	00		 je	 $LN4@toggle_ka5

; 606  : 			{
; 607  : 				set_client_server_entity_int_value (get_gunship_entity (), INT_TYPE_INFRA_RED_JAMMER_ON, FALSE);

  000ac	83 3d 00 00 00
	00 00		 cmp	 DWORD PTR ?gunship_entity@@3PAUENTITY@@A, 0 ; gunship_entity
  000b3	74 0c		 je	 SHORT $LN11@toggle_ka5
  000b5	a1 00 00 00 00	 mov	 eax, DWORD PTR ?gunship_entity@@3PAUENTITY@@A ; gunship_entity
  000ba	8b 08		 mov	 ecx, DWORD PTR [eax]
  000bc	89 4d bc	 mov	 DWORD PTR tv93[ebp], ecx
  000bf	eb 21		 jmp	 SHORT $LN12@toggle_ka5
$LN11@toggle_ka5:
  000c1	8b 15 00 00 00
	00		 mov	 edx, DWORD PTR ?__LINE__Var@?0??toggle_ka50_infra_red_jammer_manual@@YGXXZ@4JA
  000c7	83 c2 07	 add	 edx, 7
  000ca	52		 push	 edx
  000cb	68 00 00 00 00	 push	 OFFSET ??_C@_0EM@CMCNDFLJ@c?3?2users?2nhv90?2projects?2eech?2ap@
  000d0	a1 00 00 00 00	 mov	 eax, DWORD PTR ?null_entity_pointer_message@@3PBDB ; null_entity_pointer_message
  000d5	50		 push	 eax
  000d6	e8 00 00 00 00	 call	 ?process_assert@@YGXPBD0H@Z ; process_assert
  000db	c7 45 bc 00 00
	00 00		 mov	 DWORD PTR tv93[ebp], 0
$LN12@toggle_ka5:
  000e2	b9 01 00 00 00	 mov	 ecx, 1
  000e7	85 c9		 test	 ecx, ecx
  000e9	74 09		 je	 SHORT $LN13@toggle_ka5
  000eb	c7 45 b8 68 00
	00 00		 mov	 DWORD PTR tv133[ebp], 104 ; 00000068H
  000f2	eb 21		 jmp	 SHORT $LN14@toggle_ka5
$LN13@toggle_ka5:
  000f4	8b 15 00 00 00
	00		 mov	 edx, DWORD PTR ?__LINE__Var@?0??toggle_ka50_infra_red_jammer_manual@@YGXXZ@4JA
  000fa	83 c2 07	 add	 edx, 7
  000fd	52		 push	 edx
  000fe	68 00 00 00 00	 push	 OFFSET ??_C@_0EM@CMCNDFLJ@c?3?2users?2nhv90?2projects?2eech?2ap@
  00103	a1 00 00 00 00	 mov	 eax, DWORD PTR ?overload_invalid_int_type_message@@3PBDB ; overload_invalid_int_type_message
  00108	50		 push	 eax
  00109	e8 00 00 00 00	 call	 ?process_assert@@YGXPBD0H@Z ; process_assert
  0010e	c7 45 b8 00 00
	00 00		 mov	 DWORD PTR tv133[ebp], 0
$LN14@toggle_ka5:
  00115	6a 00		 push	 0
  00117	6a 68		 push	 104			; 00000068H
  00119	8b 0d 00 00 00
	00		 mov	 ecx, DWORD PTR ?gunship_entity@@3PAUENTITY@@A ; gunship_entity
  0011f	51		 push	 ecx
  00120	69 55 bc b8 08
	00 00		 imul	 edx, DWORD PTR tv93[ebp], 2232
  00127	8b 45 b8	 mov	 eax, DWORD PTR tv133[ebp]
  0012a	8d 8c c2 00 00
	00 00		 lea	 ecx, DWORD PTR ?fn_set_client_server_entity_int_value@@3PAY1BBH@1P6GXPAUENTITY@@W4INT_TYPES@@H@ZA[edx+eax*8]
  00131	8b 15 00 00 00
	00		 mov	 edx, DWORD PTR ?system_comms_model@@3W4COMMS_MODEL_TYPES@@A ; system_comms_model
  00137	8b 04 91	 mov	 eax, DWORD PTR [ecx+edx*4]
  0013a	ff d0		 call	 eax

; 608  : 			}
; 609  : 			else

  0013c	e9 90 00 00 00	 jmp	 $LN2@toggle_ka5
$LN4@toggle_ka5:

; 610  : 			{
; 611  : 				set_client_server_entity_int_value (get_gunship_entity (), INT_TYPE_INFRA_RED_JAMMER_ON, TRUE);

  00141	83 3d 00 00 00
	00 00		 cmp	 DWORD PTR ?gunship_entity@@3PAUENTITY@@A, 0 ; gunship_entity
  00148	74 0c		 je	 SHORT $LN15@toggle_ka5
  0014a	a1 00 00 00 00	 mov	 eax, DWORD PTR ?gunship_entity@@3PAUENTITY@@A ; gunship_entity
  0014f	8b 08		 mov	 ecx, DWORD PTR [eax]
  00151	89 4d bc	 mov	 DWORD PTR tv147[ebp], ecx
  00154	eb 21		 jmp	 SHORT $LN16@toggle_ka5
$LN15@toggle_ka5:
  00156	8b 15 00 00 00
	00		 mov	 edx, DWORD PTR ?__LINE__Var@?0??toggle_ka50_infra_red_jammer_manual@@YGXXZ@4JA
  0015c	83 c2 0b	 add	 edx, 11			; 0000000bH
  0015f	52		 push	 edx
  00160	68 00 00 00 00	 push	 OFFSET ??_C@_0EM@CMCNDFLJ@c?3?2users?2nhv90?2projects?2eech?2ap@
  00165	a1 00 00 00 00	 mov	 eax, DWORD PTR ?null_entity_pointer_message@@3PBDB ; null_entity_pointer_message
  0016a	50		 push	 eax
  0016b	e8 00 00 00 00	 call	 ?process_assert@@YGXPBD0H@Z ; process_assert
  00170	c7 45 bc 00 00
	00 00		 mov	 DWORD PTR tv147[ebp], 0
$LN16@toggle_ka5:
  00177	b9 01 00 00 00	 mov	 ecx, 1
  0017c	85 c9		 test	 ecx, ecx
  0017e	74 09		 je	 SHORT $LN17@toggle_ka5
  00180	c7 45 b8 68 00
	00 00		 mov	 DWORD PTR tv155[ebp], 104 ; 00000068H
  00187	eb 21		 jmp	 SHORT $LN18@toggle_ka5
$LN17@toggle_ka5:
  00189	8b 15 00 00 00
	00		 mov	 edx, DWORD PTR ?__LINE__Var@?0??toggle_ka50_infra_red_jammer_manual@@YGXXZ@4JA
  0018f	83 c2 0b	 add	 edx, 11			; 0000000bH
  00192	52		 push	 edx
  00193	68 00 00 00 00	 push	 OFFSET ??_C@_0EM@CMCNDFLJ@c?3?2users?2nhv90?2projects?2eech?2ap@
  00198	a1 00 00 00 00	 mov	 eax, DWORD PTR ?overload_invalid_int_type_message@@3PBDB ; overload_invalid_int_type_message
  0019d	50		 push	 eax
  0019e	e8 00 00 00 00	 call	 ?process_assert@@YGXPBD0H@Z ; process_assert
  001a3	c7 45 b8 00 00
	00 00		 mov	 DWORD PTR tv155[ebp], 0
$LN18@toggle_ka5:
  001aa	6a 01		 push	 1
  001ac	6a 68		 push	 104			; 00000068H
  001ae	8b 0d 00 00 00
	00		 mov	 ecx, DWORD PTR ?gunship_entity@@3PAUENTITY@@A ; gunship_entity
  001b4	51		 push	 ecx
  001b5	69 55 bc b8 08
	00 00		 imul	 edx, DWORD PTR tv147[ebp], 2232
  001bc	8b 45 b8	 mov	 eax, DWORD PTR tv155[ebp]
  001bf	8d 8c c2 00 00
	00 00		 lea	 ecx, DWORD PTR ?fn_set_client_server_entity_int_value@@3PAY1BBH@1P6GXPAUENTITY@@W4INT_TYPES@@H@ZA[edx+eax*8]
  001c6	8b 15 00 00 00
	00		 mov	 edx, DWORD PTR ?system_comms_model@@3W4COMMS_MODEL_TYPES@@A ; system_comms_model
  001cc	8b 04 91	 mov	 eax, DWORD PTR [ecx+edx*4]
  001cf	ff d0		 call	 eax
$LN2@toggle_ka5:

; 612  : 			}
; 613  : 		}
; 614  : 	}
; 615  : 
; 616  : 	play_common_cpg_infra_red_jammer_speech (ka50_damage.infra_red_jammer);

  001d1	a1 00 00 00 00	 mov	 eax, DWORD PTR ?ka50_damage@@3TKA50_DAMAGE_FLAGS@@A ; ka50_damage
  001d6	c1 e8 03	 shr	 eax, 3
  001d9	83 e0 01	 and	 eax, 1
  001dc	50		 push	 eax
  001dd	e8 00 00 00 00	 call	 ?play_common_cpg_infra_red_jammer_speech@@YGXH@Z ; play_common_cpg_infra_red_jammer_speech

; 617  : }

  001e2	5f		 pop	 edi
  001e3	5e		 pop	 esi
  001e4	5b		 pop	 ebx
  001e5	8b e5		 mov	 esp, ebp
  001e7	5d		 pop	 ebp
  001e8	c3		 ret	 0
?toggle_ka50_infra_red_jammer_manual@@YGXXZ ENDP	; toggle_ka50_infra_red_jammer_manual
_TEXT	ENDS
; Function compile flags: /Odtp /ZI
; File c:\users\nhv90\projects\eech\aphavoc\source\gunships\avionics\ka50\hm_wpn.c
;	COMDAT ?set_ka50_radar_jammer_auto@@YGXH@Z
_TEXT	SEGMENT
tv133 = -72						; size = 4
tv80 = -72						; size = 4
tv93 = -68						; size = 4
tv73 = -68						; size = 4
_state$ = 8						; size = 4
?set_ka50_radar_jammer_auto@@YGXH@Z PROC		; set_ka50_radar_jammer_auto, COMDAT

; 582  : {

  00000	55		 push	 ebp
  00001	8b ec		 mov	 ebp, esp
  00003	83 ec 48	 sub	 esp, 72			; 00000048H
  00006	53		 push	 ebx
  00007	56		 push	 esi
  00008	57		 push	 edi

; 583  : 	if (!ka50_damage.radar_jammer)

  00009	a1 00 00 00 00	 mov	 eax, DWORD PTR ?ka50_damage@@3TKA50_DAMAGE_FLAGS@@A ; ka50_damage
  0000e	c1 e8 02	 shr	 eax, 2
  00011	83 e0 01	 and	 eax, 1
  00014	0f 85 2a 01 00
	00		 jne	 $LN1@set_ka50_r

; 584  : 	{
; 585  : 		if (get_global_auto_counter_measures ())

  0001a	83 3d 90 00 00
	00 00		 cmp	 DWORD PTR ?global_options@@3UGLOBAL_OPTIONS_DATA@@A+144, 0
  00021	0f 84 1d 01 00
	00		 je	 $LN1@set_ka50_r

; 586  : 		{
; 587  : 			if (state != get_local_entity_int_value (get_gunship_entity (), INT_TYPE_RADAR_JAMMER_ON))

  00027	83 3d 00 00 00
	00 00		 cmp	 DWORD PTR ?gunship_entity@@3PAUENTITY@@A, 0 ; gunship_entity
  0002e	74 0c		 je	 SHORT $LN6@set_ka50_r
  00030	a1 00 00 00 00	 mov	 eax, DWORD PTR ?gunship_entity@@3PAUENTITY@@A ; gunship_entity
  00035	8b 08		 mov	 ecx, DWORD PTR [eax]
  00037	89 4d bc	 mov	 DWORD PTR tv73[ebp], ecx
  0003a	eb 1d		 jmp	 SHORT $LN7@set_ka50_r
$LN6@set_ka50_r:
  0003c	68 4b 02 00 00	 push	 587			; 0000024bH
  00041	68 00 00 00 00	 push	 OFFSET ??_C@_0EM@CMCNDFLJ@c?3?2users?2nhv90?2projects?2eech?2ap@
  00046	8b 15 00 00 00
	00		 mov	 edx, DWORD PTR ?null_entity_pointer_message@@3PBDB ; null_entity_pointer_message
  0004c	52		 push	 edx
  0004d	e8 00 00 00 00	 call	 ?process_assert@@YGXPBD0H@Z ; process_assert
  00052	c7 45 bc 00 00
	00 00		 mov	 DWORD PTR tv73[ebp], 0
$LN7@set_ka50_r:
  00059	b8 01 00 00 00	 mov	 eax, 1
  0005e	85 c0		 test	 eax, eax
  00060	74 09		 je	 SHORT $LN8@set_ka50_r
  00062	c7 45 b8 a8 00
	00 00		 mov	 DWORD PTR tv80[ebp], 168 ; 000000a8H
  00069	eb 1d		 jmp	 SHORT $LN9@set_ka50_r
$LN8@set_ka50_r:
  0006b	68 4b 02 00 00	 push	 587			; 0000024bH
  00070	68 00 00 00 00	 push	 OFFSET ??_C@_0EM@CMCNDFLJ@c?3?2users?2nhv90?2projects?2eech?2ap@
  00075	8b 0d 00 00 00
	00		 mov	 ecx, DWORD PTR ?overload_invalid_int_type_message@@3PBDB ; overload_invalid_int_type_message
  0007b	51		 push	 ecx
  0007c	e8 00 00 00 00	 call	 ?process_assert@@YGXPBD0H@Z ; process_assert
  00081	c7 45 b8 00 00
	00 00		 mov	 DWORD PTR tv80[ebp], 0
$LN9@set_ka50_r:
  00088	68 a8 00 00 00	 push	 168			; 000000a8H
  0008d	8b 15 00 00 00
	00		 mov	 edx, DWORD PTR ?gunship_entity@@3PAUENTITY@@A ; gunship_entity
  00093	52		 push	 edx
  00094	69 45 bc 5c 04
	00 00		 imul	 eax, DWORD PTR tv73[ebp], 1116
  0009b	8b 4d b8	 mov	 ecx, DWORD PTR tv80[ebp]
  0009e	8b 94 88 00 00
	00 00		 mov	 edx, DWORD PTR ?fn_get_local_entity_int_value@@3PAY0BBH@P6GHPAUENTITY@@W4INT_TYPES@@@ZA[eax+ecx*4]
  000a5	ff d2		 call	 edx
  000a7	39 45 08	 cmp	 DWORD PTR _state$[ebp], eax
  000aa	0f 84 94 00 00
	00		 je	 $LN1@set_ka50_r

; 588  : 			{
; 589  : 				set_client_server_entity_int_value (get_gunship_entity (), INT_TYPE_RADAR_JAMMER_ON, state);

  000b0	83 3d 00 00 00
	00 00		 cmp	 DWORD PTR ?gunship_entity@@3PAUENTITY@@A, 0 ; gunship_entity
  000b7	74 0c		 je	 SHORT $LN10@set_ka50_r
  000b9	a1 00 00 00 00	 mov	 eax, DWORD PTR ?gunship_entity@@3PAUENTITY@@A ; gunship_entity
  000be	8b 08		 mov	 ecx, DWORD PTR [eax]
  000c0	89 4d bc	 mov	 DWORD PTR tv93[ebp], ecx
  000c3	eb 21		 jmp	 SHORT $LN11@set_ka50_r
$LN10@set_ka50_r:
  000c5	8b 15 00 00 00
	00		 mov	 edx, DWORD PTR ?__LINE__Var@?0??set_ka50_radar_jammer_auto@@YGXH@Z@4JA
  000cb	83 c2 07	 add	 edx, 7
  000ce	52		 push	 edx
  000cf	68 00 00 00 00	 push	 OFFSET ??_C@_0EM@CMCNDFLJ@c?3?2users?2nhv90?2projects?2eech?2ap@
  000d4	a1 00 00 00 00	 mov	 eax, DWORD PTR ?null_entity_pointer_message@@3PBDB ; null_entity_pointer_message
  000d9	50		 push	 eax
  000da	e8 00 00 00 00	 call	 ?process_assert@@YGXPBD0H@Z ; process_assert
  000df	c7 45 bc 00 00
	00 00		 mov	 DWORD PTR tv93[ebp], 0
$LN11@set_ka50_r:
  000e6	b9 01 00 00 00	 mov	 ecx, 1
  000eb	85 c9		 test	 ecx, ecx
  000ed	74 09		 je	 SHORT $LN12@set_ka50_r
  000ef	c7 45 b8 a8 00
	00 00		 mov	 DWORD PTR tv133[ebp], 168 ; 000000a8H
  000f6	eb 21		 jmp	 SHORT $LN13@set_ka50_r
$LN12@set_ka50_r:
  000f8	8b 15 00 00 00
	00		 mov	 edx, DWORD PTR ?__LINE__Var@?0??set_ka50_radar_jammer_auto@@YGXH@Z@4JA
  000fe	83 c2 07	 add	 edx, 7
  00101	52		 push	 edx
  00102	68 00 00 00 00	 push	 OFFSET ??_C@_0EM@CMCNDFLJ@c?3?2users?2nhv90?2projects?2eech?2ap@
  00107	a1 00 00 00 00	 mov	 eax, DWORD PTR ?overload_invalid_int_type_message@@3PBDB ; overload_invalid_int_type_message
  0010c	50		 push	 eax
  0010d	e8 00 00 00 00	 call	 ?process_assert@@YGXPBD0H@Z ; process_assert
  00112	c7 45 b8 00 00
	00 00		 mov	 DWORD PTR tv133[ebp], 0
$LN13@set_ka50_r:
  00119	8b 4d 08	 mov	 ecx, DWORD PTR _state$[ebp]
  0011c	51		 push	 ecx
  0011d	68 a8 00 00 00	 push	 168			; 000000a8H
  00122	8b 15 00 00 00
	00		 mov	 edx, DWORD PTR ?gunship_entity@@3PAUENTITY@@A ; gunship_entity
  00128	52		 push	 edx
  00129	69 45 bc b8 08
	00 00		 imul	 eax, DWORD PTR tv93[ebp], 2232
  00130	8b 4d b8	 mov	 ecx, DWORD PTR tv133[ebp]
  00133	8d 94 c8 00 00
	00 00		 lea	 edx, DWORD PTR ?fn_set_client_server_entity_int_value@@3PAY1BBH@1P6GXPAUENTITY@@W4INT_TYPES@@H@ZA[eax+ecx*8]
  0013a	a1 00 00 00 00	 mov	 eax, DWORD PTR ?system_comms_model@@3W4COMMS_MODEL_TYPES@@A ; system_comms_model
  0013f	8b 0c 82	 mov	 ecx, DWORD PTR [edx+eax*4]
  00142	ff d1		 call	 ecx
$LN1@set_ka50_r:

; 590  : 			}
; 591  : 		}
; 592  : 	}
; 593  : }

  00144	5f		 pop	 edi
  00145	5e		 pop	 esi
  00146	5b		 pop	 ebx
  00147	8b e5		 mov	 esp, ebp
  00149	5d		 pop	 ebp
  0014a	c2 04 00	 ret	 4
?set_ka50_radar_jammer_auto@@YGXH@Z ENDP		; set_ka50_radar_jammer_auto
_TEXT	ENDS
; Function compile flags: /Odtp /ZI
; File c:\users\nhv90\projects\eech\aphavoc\source\gunships\avionics\ka50\hm_wpn.c
;	COMDAT ?set_ka50_radar_jammer_manual@@YGXH@Z
_TEXT	SEGMENT
tv133 = -72						; size = 4
tv80 = -72						; size = 4
tv93 = -68						; size = 4
tv73 = -68						; size = 4
_state$ = 8						; size = 4
?set_ka50_radar_jammer_manual@@YGXH@Z PROC		; set_ka50_radar_jammer_manual, COMDAT

; 564  : {

  00000	55		 push	 ebp
  00001	8b ec		 mov	 ebp, esp
  00003	83 ec 48	 sub	 esp, 72			; 00000048H
  00006	53		 push	 ebx
  00007	56		 push	 esi
  00008	57		 push	 edi

; 565  : 	if (!ka50_damage.radar_jammer)

  00009	a1 00 00 00 00	 mov	 eax, DWORD PTR ?ka50_damage@@3TKA50_DAMAGE_FLAGS@@A ; ka50_damage
  0000e	c1 e8 02	 shr	 eax, 2
  00011	83 e0 01	 and	 eax, 1
  00014	0f 85 2a 01 00
	00		 jne	 $LN1@set_ka50_r

; 566  : 	{
; 567  : 		if (!get_global_auto_counter_measures ())

  0001a	83 3d 90 00 00
	00 00		 cmp	 DWORD PTR ?global_options@@3UGLOBAL_OPTIONS_DATA@@A+144, 0
  00021	0f 85 1d 01 00
	00		 jne	 $LN1@set_ka50_r

; 568  : 		{
; 569  : 			if (state != get_local_entity_int_value (get_gunship_entity (), INT_TYPE_RADAR_JAMMER_ON))

  00027	83 3d 00 00 00
	00 00		 cmp	 DWORD PTR ?gunship_entity@@3PAUENTITY@@A, 0 ; gunship_entity
  0002e	74 0c		 je	 SHORT $LN6@set_ka50_r
  00030	a1 00 00 00 00	 mov	 eax, DWORD PTR ?gunship_entity@@3PAUENTITY@@A ; gunship_entity
  00035	8b 08		 mov	 ecx, DWORD PTR [eax]
  00037	89 4d bc	 mov	 DWORD PTR tv73[ebp], ecx
  0003a	eb 1d		 jmp	 SHORT $LN7@set_ka50_r
$LN6@set_ka50_r:
  0003c	68 39 02 00 00	 push	 569			; 00000239H
  00041	68 00 00 00 00	 push	 OFFSET ??_C@_0EM@CMCNDFLJ@c?3?2users?2nhv90?2projects?2eech?2ap@
  00046	8b 15 00 00 00
	00		 mov	 edx, DWORD PTR ?null_entity_pointer_message@@3PBDB ; null_entity_pointer_message
  0004c	52		 push	 edx
  0004d	e8 00 00 00 00	 call	 ?process_assert@@YGXPBD0H@Z ; process_assert
  00052	c7 45 bc 00 00
	00 00		 mov	 DWORD PTR tv73[ebp], 0
$LN7@set_ka50_r:
  00059	b8 01 00 00 00	 mov	 eax, 1
  0005e	85 c0		 test	 eax, eax
  00060	74 09		 je	 SHORT $LN8@set_ka50_r
  00062	c7 45 b8 a8 00
	00 00		 mov	 DWORD PTR tv80[ebp], 168 ; 000000a8H
  00069	eb 1d		 jmp	 SHORT $LN9@set_ka50_r
$LN8@set_ka50_r:
  0006b	68 39 02 00 00	 push	 569			; 00000239H
  00070	68 00 00 00 00	 push	 OFFSET ??_C@_0EM@CMCNDFLJ@c?3?2users?2nhv90?2projects?2eech?2ap@
  00075	8b 0d 00 00 00
	00		 mov	 ecx, DWORD PTR ?overload_invalid_int_type_message@@3PBDB ; overload_invalid_int_type_message
  0007b	51		 push	 ecx
  0007c	e8 00 00 00 00	 call	 ?process_assert@@YGXPBD0H@Z ; process_assert
  00081	c7 45 b8 00 00
	00 00		 mov	 DWORD PTR tv80[ebp], 0
$LN9@set_ka50_r:
  00088	68 a8 00 00 00	 push	 168			; 000000a8H
  0008d	8b 15 00 00 00
	00		 mov	 edx, DWORD PTR ?gunship_entity@@3PAUENTITY@@A ; gunship_entity
  00093	52		 push	 edx
  00094	69 45 bc 5c 04
	00 00		 imul	 eax, DWORD PTR tv73[ebp], 1116
  0009b	8b 4d b8	 mov	 ecx, DWORD PTR tv80[ebp]
  0009e	8b 94 88 00 00
	00 00		 mov	 edx, DWORD PTR ?fn_get_local_entity_int_value@@3PAY0BBH@P6GHPAUENTITY@@W4INT_TYPES@@@ZA[eax+ecx*4]
  000a5	ff d2		 call	 edx
  000a7	39 45 08	 cmp	 DWORD PTR _state$[ebp], eax
  000aa	0f 84 94 00 00
	00		 je	 $LN1@set_ka50_r

; 570  : 			{
; 571  : 				set_client_server_entity_int_value (get_gunship_entity (), INT_TYPE_RADAR_JAMMER_ON, state);

  000b0	83 3d 00 00 00
	00 00		 cmp	 DWORD PTR ?gunship_entity@@3PAUENTITY@@A, 0 ; gunship_entity
  000b7	74 0c		 je	 SHORT $LN10@set_ka50_r
  000b9	a1 00 00 00 00	 mov	 eax, DWORD PTR ?gunship_entity@@3PAUENTITY@@A ; gunship_entity
  000be	8b 08		 mov	 ecx, DWORD PTR [eax]
  000c0	89 4d bc	 mov	 DWORD PTR tv93[ebp], ecx
  000c3	eb 21		 jmp	 SHORT $LN11@set_ka50_r
$LN10@set_ka50_r:
  000c5	8b 15 00 00 00
	00		 mov	 edx, DWORD PTR ?__LINE__Var@?0??set_ka50_radar_jammer_manual@@YGXH@Z@4JA
  000cb	83 c2 07	 add	 edx, 7
  000ce	52		 push	 edx
  000cf	68 00 00 00 00	 push	 OFFSET ??_C@_0EM@CMCNDFLJ@c?3?2users?2nhv90?2projects?2eech?2ap@
  000d4	a1 00 00 00 00	 mov	 eax, DWORD PTR ?null_entity_pointer_message@@3PBDB ; null_entity_pointer_message
  000d9	50		 push	 eax
  000da	e8 00 00 00 00	 call	 ?process_assert@@YGXPBD0H@Z ; process_assert
  000df	c7 45 bc 00 00
	00 00		 mov	 DWORD PTR tv93[ebp], 0
$LN11@set_ka50_r:
  000e6	b9 01 00 00 00	 mov	 ecx, 1
  000eb	85 c9		 test	 ecx, ecx
  000ed	74 09		 je	 SHORT $LN12@set_ka50_r
  000ef	c7 45 b8 a8 00
	00 00		 mov	 DWORD PTR tv133[ebp], 168 ; 000000a8H
  000f6	eb 21		 jmp	 SHORT $LN13@set_ka50_r
$LN12@set_ka50_r:
  000f8	8b 15 00 00 00
	00		 mov	 edx, DWORD PTR ?__LINE__Var@?0??set_ka50_radar_jammer_manual@@YGXH@Z@4JA
  000fe	83 c2 07	 add	 edx, 7
  00101	52		 push	 edx
  00102	68 00 00 00 00	 push	 OFFSET ??_C@_0EM@CMCNDFLJ@c?3?2users?2nhv90?2projects?2eech?2ap@
  00107	a1 00 00 00 00	 mov	 eax, DWORD PTR ?overload_invalid_int_type_message@@3PBDB ; overload_invalid_int_type_message
  0010c	50		 push	 eax
  0010d	e8 00 00 00 00	 call	 ?process_assert@@YGXPBD0H@Z ; process_assert
  00112	c7 45 b8 00 00
	00 00		 mov	 DWORD PTR tv133[ebp], 0
$LN13@set_ka50_r:
  00119	8b 4d 08	 mov	 ecx, DWORD PTR _state$[ebp]
  0011c	51		 push	 ecx
  0011d	68 a8 00 00 00	 push	 168			; 000000a8H
  00122	8b 15 00 00 00
	00		 mov	 edx, DWORD PTR ?gunship_entity@@3PAUENTITY@@A ; gunship_entity
  00128	52		 push	 edx
  00129	69 45 bc b8 08
	00 00		 imul	 eax, DWORD PTR tv93[ebp], 2232
  00130	8b 4d b8	 mov	 ecx, DWORD PTR tv133[ebp]
  00133	8d 94 c8 00 00
	00 00		 lea	 edx, DWORD PTR ?fn_set_client_server_entity_int_value@@3PAY1BBH@1P6GXPAUENTITY@@W4INT_TYPES@@H@ZA[eax+ecx*8]
  0013a	a1 00 00 00 00	 mov	 eax, DWORD PTR ?system_comms_model@@3W4COMMS_MODEL_TYPES@@A ; system_comms_model
  0013f	8b 0c 82	 mov	 ecx, DWORD PTR [edx+eax*4]
  00142	ff d1		 call	 ecx
$LN1@set_ka50_r:

; 572  : 			}
; 573  : 		}
; 574  : 	}
; 575  : }

  00144	5f		 pop	 edi
  00145	5e		 pop	 esi
  00146	5b		 pop	 ebx
  00147	8b e5		 mov	 esp, ebp
  00149	5d		 pop	 ebp
  0014a	c2 04 00	 ret	 4
?set_ka50_radar_jammer_manual@@YGXH@Z ENDP		; set_ka50_radar_jammer_manual
_TEXT	ENDS
; Function compile flags: /Odtp /ZI
; File c:\users\nhv90\projects\eech\aphavoc\source\gunships\avionics\ka50\hm_wpn.c
;	COMDAT ?toggle_ka50_radar_jammer_manual@@YGXXZ
_TEXT	SEGMENT
tv155 = -72						; size = 4
tv133 = -72						; size = 4
tv80 = -72						; size = 4
tv147 = -68						; size = 4
tv93 = -68						; size = 4
tv73 = -68						; size = 4
?toggle_ka50_radar_jammer_manual@@YGXXZ PROC		; toggle_ka50_radar_jammer_manual, COMDAT

; 540  : {

  00000	55		 push	 ebp
  00001	8b ec		 mov	 ebp, esp
  00003	83 ec 48	 sub	 esp, 72			; 00000048H
  00006	53		 push	 ebx
  00007	56		 push	 esi
  00008	57		 push	 edi

; 541  : 	if (!ka50_damage.radar_jammer)

  00009	a1 00 00 00 00	 mov	 eax, DWORD PTR ?ka50_damage@@3TKA50_DAMAGE_FLAGS@@A ; ka50_damage
  0000e	c1 e8 02	 shr	 eax, 2
  00011	83 e0 01	 and	 eax, 1
  00014	0f 85 c0 01 00
	00		 jne	 $LN2@toggle_ka5

; 542  : 	{
; 543  : 		if (!get_global_auto_counter_measures ())

  0001a	83 3d 90 00 00
	00 00		 cmp	 DWORD PTR ?global_options@@3UGLOBAL_OPTIONS_DATA@@A+144, 0
  00021	0f 85 b3 01 00
	00		 jne	 $LN2@toggle_ka5

; 544  : 		{
; 545  : 			if (get_local_entity_int_value (get_gunship_entity (), INT_TYPE_RADAR_JAMMER_ON))

  00027	83 3d 00 00 00
	00 00		 cmp	 DWORD PTR ?gunship_entity@@3PAUENTITY@@A, 0 ; gunship_entity
  0002e	74 0c		 je	 SHORT $LN7@toggle_ka5
  00030	a1 00 00 00 00	 mov	 eax, DWORD PTR ?gunship_entity@@3PAUENTITY@@A ; gunship_entity
  00035	8b 08		 mov	 ecx, DWORD PTR [eax]
  00037	89 4d bc	 mov	 DWORD PTR tv73[ebp], ecx
  0003a	eb 1d		 jmp	 SHORT $LN8@toggle_ka5
$LN7@toggle_ka5:
  0003c	68 21 02 00 00	 push	 545			; 00000221H
  00041	68 00 00 00 00	 push	 OFFSET ??_C@_0EM@CMCNDFLJ@c?3?2users?2nhv90?2projects?2eech?2ap@
  00046	8b 15 00 00 00
	00		 mov	 edx, DWORD PTR ?null_entity_pointer_message@@3PBDB ; null_entity_pointer_message
  0004c	52		 push	 edx
  0004d	e8 00 00 00 00	 call	 ?process_assert@@YGXPBD0H@Z ; process_assert
  00052	c7 45 bc 00 00
	00 00		 mov	 DWORD PTR tv73[ebp], 0
$LN8@toggle_ka5:
  00059	b8 01 00 00 00	 mov	 eax, 1
  0005e	85 c0		 test	 eax, eax
  00060	74 09		 je	 SHORT $LN9@toggle_ka5
  00062	c7 45 b8 a8 00
	00 00		 mov	 DWORD PTR tv80[ebp], 168 ; 000000a8H
  00069	eb 1d		 jmp	 SHORT $LN10@toggle_ka5
$LN9@toggle_ka5:
  0006b	68 21 02 00 00	 push	 545			; 00000221H
  00070	68 00 00 00 00	 push	 OFFSET ??_C@_0EM@CMCNDFLJ@c?3?2users?2nhv90?2projects?2eech?2ap@
  00075	8b 0d 00 00 00
	00		 mov	 ecx, DWORD PTR ?overload_invalid_int_type_message@@3PBDB ; overload_invalid_int_type_message
  0007b	51		 push	 ecx
  0007c	e8 00 00 00 00	 call	 ?process_assert@@YGXPBD0H@Z ; process_assert
  00081	c7 45 b8 00 00
	00 00		 mov	 DWORD PTR tv80[ebp], 0
$LN10@toggle_ka5:
  00088	68 a8 00 00 00	 push	 168			; 000000a8H
  0008d	8b 15 00 00 00
	00		 mov	 edx, DWORD PTR ?gunship_entity@@3PAUENTITY@@A ; gunship_entity
  00093	52		 push	 edx
  00094	69 45 bc 5c 04
	00 00		 imul	 eax, DWORD PTR tv73[ebp], 1116
  0009b	8b 4d b8	 mov	 ecx, DWORD PTR tv80[ebp]
  0009e	8b 94 88 00 00
	00 00		 mov	 edx, DWORD PTR ?fn_get_local_entity_int_value@@3PAY0BBH@P6GHPAUENTITY@@W4INT_TYPES@@@ZA[eax+ecx*4]
  000a5	ff d2		 call	 edx
  000a7	85 c0		 test	 eax, eax
  000a9	0f 84 98 00 00
	00		 je	 $LN4@toggle_ka5

; 546  : 			{
; 547  : 				set_client_server_entity_int_value (get_gunship_entity (), INT_TYPE_RADAR_JAMMER_ON, FALSE);

  000af	83 3d 00 00 00
	00 00		 cmp	 DWORD PTR ?gunship_entity@@3PAUENTITY@@A, 0 ; gunship_entity
  000b6	74 0c		 je	 SHORT $LN11@toggle_ka5
  000b8	a1 00 00 00 00	 mov	 eax, DWORD PTR ?gunship_entity@@3PAUENTITY@@A ; gunship_entity
  000bd	8b 08		 mov	 ecx, DWORD PTR [eax]
  000bf	89 4d bc	 mov	 DWORD PTR tv93[ebp], ecx
  000c2	eb 21		 jmp	 SHORT $LN12@toggle_ka5
$LN11@toggle_ka5:
  000c4	8b 15 00 00 00
	00		 mov	 edx, DWORD PTR ?__LINE__Var@?0??toggle_ka50_radar_jammer_manual@@YGXXZ@4JA
  000ca	83 c2 07	 add	 edx, 7
  000cd	52		 push	 edx
  000ce	68 00 00 00 00	 push	 OFFSET ??_C@_0EM@CMCNDFLJ@c?3?2users?2nhv90?2projects?2eech?2ap@
  000d3	a1 00 00 00 00	 mov	 eax, DWORD PTR ?null_entity_pointer_message@@3PBDB ; null_entity_pointer_message
  000d8	50		 push	 eax
  000d9	e8 00 00 00 00	 call	 ?process_assert@@YGXPBD0H@Z ; process_assert
  000de	c7 45 bc 00 00
	00 00		 mov	 DWORD PTR tv93[ebp], 0
$LN12@toggle_ka5:
  000e5	b9 01 00 00 00	 mov	 ecx, 1
  000ea	85 c9		 test	 ecx, ecx
  000ec	74 09		 je	 SHORT $LN13@toggle_ka5
  000ee	c7 45 b8 a8 00
	00 00		 mov	 DWORD PTR tv133[ebp], 168 ; 000000a8H
  000f5	eb 21		 jmp	 SHORT $LN14@toggle_ka5
$LN13@toggle_ka5:
  000f7	8b 15 00 00 00
	00		 mov	 edx, DWORD PTR ?__LINE__Var@?0??toggle_ka50_radar_jammer_manual@@YGXXZ@4JA
  000fd	83 c2 07	 add	 edx, 7
  00100	52		 push	 edx
  00101	68 00 00 00 00	 push	 OFFSET ??_C@_0EM@CMCNDFLJ@c?3?2users?2nhv90?2projects?2eech?2ap@
  00106	a1 00 00 00 00	 mov	 eax, DWORD PTR ?overload_invalid_int_type_message@@3PBDB ; overload_invalid_int_type_message
  0010b	50		 push	 eax
  0010c	e8 00 00 00 00	 call	 ?process_assert@@YGXPBD0H@Z ; process_assert
  00111	c7 45 b8 00 00
	00 00		 mov	 DWORD PTR tv133[ebp], 0
$LN14@toggle_ka5:
  00118	6a 00		 push	 0
  0011a	68 a8 00 00 00	 push	 168			; 000000a8H
  0011f	8b 0d 00 00 00
	00		 mov	 ecx, DWORD PTR ?gunship_entity@@3PAUENTITY@@A ; gunship_entity
  00125	51		 push	 ecx
  00126	69 55 bc b8 08
	00 00		 imul	 edx, DWORD PTR tv93[ebp], 2232
  0012d	8b 45 b8	 mov	 eax, DWORD PTR tv133[ebp]
  00130	8d 8c c2 00 00
	00 00		 lea	 ecx, DWORD PTR ?fn_set_client_server_entity_int_value@@3PAY1BBH@1P6GXPAUENTITY@@W4INT_TYPES@@H@ZA[edx+eax*8]
  00137	8b 15 00 00 00
	00		 mov	 edx, DWORD PTR ?system_comms_model@@3W4COMMS_MODEL_TYPES@@A ; system_comms_model
  0013d	8b 04 91	 mov	 eax, DWORD PTR [ecx+edx*4]
  00140	ff d0		 call	 eax

; 548  : 			}
; 549  : 			else

  00142	e9 93 00 00 00	 jmp	 $LN2@toggle_ka5
$LN4@toggle_ka5:

; 550  : 			{
; 551  : 				set_client_server_entity_int_value (get_gunship_entity (), INT_TYPE_RADAR_JAMMER_ON, TRUE);

  00147	83 3d 00 00 00
	00 00		 cmp	 DWORD PTR ?gunship_entity@@3PAUENTITY@@A, 0 ; gunship_entity
  0014e	74 0c		 je	 SHORT $LN15@toggle_ka5
  00150	a1 00 00 00 00	 mov	 eax, DWORD PTR ?gunship_entity@@3PAUENTITY@@A ; gunship_entity
  00155	8b 08		 mov	 ecx, DWORD PTR [eax]
  00157	89 4d bc	 mov	 DWORD PTR tv147[ebp], ecx
  0015a	eb 21		 jmp	 SHORT $LN16@toggle_ka5
$LN15@toggle_ka5:
  0015c	8b 15 00 00 00
	00		 mov	 edx, DWORD PTR ?__LINE__Var@?0??toggle_ka50_radar_jammer_manual@@YGXXZ@4JA
  00162	83 c2 0b	 add	 edx, 11			; 0000000bH
  00165	52		 push	 edx
  00166	68 00 00 00 00	 push	 OFFSET ??_C@_0EM@CMCNDFLJ@c?3?2users?2nhv90?2projects?2eech?2ap@
  0016b	a1 00 00 00 00	 mov	 eax, DWORD PTR ?null_entity_pointer_message@@3PBDB ; null_entity_pointer_message
  00170	50		 push	 eax
  00171	e8 00 00 00 00	 call	 ?process_assert@@YGXPBD0H@Z ; process_assert
  00176	c7 45 bc 00 00
	00 00		 mov	 DWORD PTR tv147[ebp], 0
$LN16@toggle_ka5:
  0017d	b9 01 00 00 00	 mov	 ecx, 1
  00182	85 c9		 test	 ecx, ecx
  00184	74 09		 je	 SHORT $LN17@toggle_ka5
  00186	c7 45 b8 a8 00
	00 00		 mov	 DWORD PTR tv155[ebp], 168 ; 000000a8H
  0018d	eb 21		 jmp	 SHORT $LN18@toggle_ka5
$LN17@toggle_ka5:
  0018f	8b 15 00 00 00
	00		 mov	 edx, DWORD PTR ?__LINE__Var@?0??toggle_ka50_radar_jammer_manual@@YGXXZ@4JA
  00195	83 c2 0b	 add	 edx, 11			; 0000000bH
  00198	52		 push	 edx
  00199	68 00 00 00 00	 push	 OFFSET ??_C@_0EM@CMCNDFLJ@c?3?2users?2nhv90?2projects?2eech?2ap@
  0019e	a1 00 00 00 00	 mov	 eax, DWORD PTR ?overload_invalid_int_type_message@@3PBDB ; overload_invalid_int_type_message
  001a3	50		 push	 eax
  001a4	e8 00 00 00 00	 call	 ?process_assert@@YGXPBD0H@Z ; process_assert
  001a9	c7 45 b8 00 00
	00 00		 mov	 DWORD PTR tv155[ebp], 0
$LN18@toggle_ka5:
  001b0	6a 01		 push	 1
  001b2	68 a8 00 00 00	 push	 168			; 000000a8H
  001b7	8b 0d 00 00 00
	00		 mov	 ecx, DWORD PTR ?gunship_entity@@3PAUENTITY@@A ; gunship_entity
  001bd	51		 push	 ecx
  001be	69 55 bc b8 08
	00 00		 imul	 edx, DWORD PTR tv147[ebp], 2232
  001c5	8b 45 b8	 mov	 eax, DWORD PTR tv155[ebp]
  001c8	8d 8c c2 00 00
	00 00		 lea	 ecx, DWORD PTR ?fn_set_client_server_entity_int_value@@3PAY1BBH@1P6GXPAUENTITY@@W4INT_TYPES@@H@ZA[edx+eax*8]
  001cf	8b 15 00 00 00
	00		 mov	 edx, DWORD PTR ?system_comms_model@@3W4COMMS_MODEL_TYPES@@A ; system_comms_model
  001d5	8b 04 91	 mov	 eax, DWORD PTR [ecx+edx*4]
  001d8	ff d0		 call	 eax
$LN2@toggle_ka5:

; 552  : 			}
; 553  : 		}
; 554  : 	}
; 555  : 
; 556  : 	play_common_cpg_radar_jammer_speech (ka50_damage.radar_jammer);

  001da	a1 00 00 00 00	 mov	 eax, DWORD PTR ?ka50_damage@@3TKA50_DAMAGE_FLAGS@@A ; ka50_damage
  001df	c1 e8 02	 shr	 eax, 2
  001e2	83 e0 01	 and	 eax, 1
  001e5	50		 push	 eax
  001e6	e8 00 00 00 00	 call	 ?play_common_cpg_radar_jammer_speech@@YGXH@Z ; play_common_cpg_radar_jammer_speech

; 557  : }

  001eb	5f		 pop	 edi
  001ec	5e		 pop	 esi
  001ed	5b		 pop	 ebx
  001ee	8b e5		 mov	 esp, ebp
  001f0	5d		 pop	 ebp
  001f1	c3		 ret	 0
?toggle_ka50_radar_jammer_manual@@YGXXZ ENDP		; toggle_ka50_radar_jammer_manual
_TEXT	ENDS
; Function compile flags: /Odtp /ZI
; File c:\users\nhv90\projects\eech\aphavoc\source\gunships\avionics\ka50\hm_wpn.c
;	COMDAT ?get_ka50_missile_flight_time@@YGMXZ
_TEXT	SEGMENT
tv237 = -104						; size = 4
tv214 = -104						; size = 4
tv191 = -104						; size = 4
tv171 = -104						; size = 4
tv150 = -104						; size = 4
tv129 = -104						; size = 4
tv78 = -104						; size = 4
tv229 = -100						; size = 4
tv206 = -100						; size = 4
tv183 = -100						; size = 4
tv163 = -100						; size = 4
tv142 = -100						; size = 4
tv90 = -100						; size = 4
tv70 = -100						; size = 4
_target_range$ = -32					; size = 4
_weapon_velocity$ = -28					; size = 4
_flight_time$ = -24					; size = 4
_target_position$ = -20					; size = 4
_weapon_position$ = -16					; size = 4
_target$ = -12						; size = 4
_weapon$ = -8						; size = 4
_en$ = -4						; size = 4
?get_ka50_missile_flight_time@@YGMXZ PROC		; get_ka50_missile_flight_time, COMDAT

; 479  : {

  00000	55		 push	 ebp
  00001	8b ec		 mov	 ebp, esp
  00003	83 ec 68	 sub	 esp, 104		; 00000068H
  00006	53		 push	 ebx
  00007	56		 push	 esi
  00008	57		 push	 edi

; 480  : 	entity
; 481  : 		*en,
; 482  : 		*weapon,
; 483  : 		*target;
; 484  : 
; 485  : 	vec3d
; 486  : 		*weapon_position,
; 487  : 		*target_position;
; 488  : 
; 489  : 	float
; 490  : 		flight_time,
; 491  : 		weapon_velocity,
; 492  : 		target_range;
; 493  : 
; 494  : 	flight_time = 0.0;

  00009	0f 57 c0	 xorps	 xmm0, xmm0
  0000c	f3 0f 11 45 e8	 movss	 DWORD PTR _flight_time$[ebp], xmm0

; 495  : 
; 496  : 	en = get_gunship_entity ();

  00011	a1 00 00 00 00	 mov	 eax, DWORD PTR ?gunship_entity@@3PAUENTITY@@A ; gunship_entity
  00016	89 45 fc	 mov	 DWORD PTR _en$[ebp], eax

; 497  : 
; 498  : 	//
; 499  : 	// find most recently launched Vikhr with a target (first found on list)
; 500  : 	//
; 501  : 
; 502  : 	weapon = get_local_entity_first_child (en, LIST_TYPE_LAUNCHED_WEAPON);

  00019	83 7d fc 00	 cmp	 DWORD PTR _en$[ebp], 0
  0001d	74 0a		 je	 SHORT $LN8@get_ka50_m
  0001f	8b 45 fc	 mov	 eax, DWORD PTR _en$[ebp]
  00022	8b 08		 mov	 ecx, DWORD PTR [eax]
  00024	89 4d 9c	 mov	 DWORD PTR tv70[ebp], ecx
  00027	eb 21		 jmp	 SHORT $LN9@get_ka50_m
$LN8@get_ka50_m:
  00029	8b 15 00 00 00
	00		 mov	 edx, DWORD PTR ?__LINE__Var@?0??get_ka50_missile_flight_time@@YGMXZ@4JA
  0002f	83 c2 17	 add	 edx, 23			; 00000017H
  00032	52		 push	 edx
  00033	68 00 00 00 00	 push	 OFFSET ??_C@_0EM@CMCNDFLJ@c?3?2users?2nhv90?2projects?2eech?2ap@
  00038	a1 00 00 00 00	 mov	 eax, DWORD PTR ?null_entity_pointer_message@@3PBDB ; null_entity_pointer_message
  0003d	50		 push	 eax
  0003e	e8 00 00 00 00	 call	 ?process_assert@@YGXPBD0H@Z ; process_assert
  00043	c7 45 9c 00 00
	00 00		 mov	 DWORD PTR tv70[ebp], 0
$LN9@get_ka50_m:
  0004a	b9 01 00 00 00	 mov	 ecx, 1
  0004f	85 c9		 test	 ecx, ecx
  00051	74 09		 je	 SHORT $LN10@get_ka50_m
  00053	c7 45 98 18 00
	00 00		 mov	 DWORD PTR tv78[ebp], 24	; 00000018H
  0005a	eb 21		 jmp	 SHORT $LN11@get_ka50_m
$LN10@get_ka50_m:
  0005c	8b 15 00 00 00
	00		 mov	 edx, DWORD PTR ?__LINE__Var@?0??get_ka50_missile_flight_time@@YGMXZ@4JA
  00062	83 c2 17	 add	 edx, 23			; 00000017H
  00065	52		 push	 edx
  00066	68 00 00 00 00	 push	 OFFSET ??_C@_0EM@CMCNDFLJ@c?3?2users?2nhv90?2projects?2eech?2ap@
  0006b	a1 00 00 00 00	 mov	 eax, DWORD PTR ?overload_invalid_list_type_message@@3PBDB ; overload_invalid_list_type_message
  00070	50		 push	 eax
  00071	e8 00 00 00 00	 call	 ?process_assert@@YGXPBD0H@Z ; process_assert
  00076	c7 45 98 00 00
	00 00		 mov	 DWORD PTR tv78[ebp], 0
$LN11@get_ka50_m:
  0007d	6a 18		 push	 24			; 00000018H
  0007f	8b 4d fc	 mov	 ecx, DWORD PTR _en$[ebp]
  00082	51		 push	 ecx
  00083	69 55 9c b4 00
	00 00		 imul	 edx, DWORD PTR tv70[ebp], 180
  0008a	8b 45 98	 mov	 eax, DWORD PTR tv78[ebp]
  0008d	8b 8c 82 00 00
	00 00		 mov	 ecx, DWORD PTR ?fn_get_local_entity_first_child@@3PAY0CN@P6GPAUENTITY@@PAU1@W4LIST_TYPES@@@ZA[edx+eax*4]
  00094	ff d1		 call	 ecx
  00096	89 45 f8	 mov	 DWORD PTR _weapon$[ebp], eax
$LN2@get_ka50_m:

; 503  : 
; 504  : 	while (weapon)

  00099	83 7d f8 00	 cmp	 DWORD PTR _weapon$[ebp], 0
  0009d	0f 84 3d 03 00
	00		 je	 $LN3@get_ka50_m

; 505  : 	{
; 506  : 		if (get_local_entity_int_value (weapon, INT_TYPE_ENTITY_SUB_TYPE) == ENTITY_SUB_TYPE_WEAPON_VIKHR)

  000a3	83 7d f8 00	 cmp	 DWORD PTR _weapon$[ebp], 0
  000a7	74 0a		 je	 SHORT $LN12@get_ka50_m
  000a9	8b 45 f8	 mov	 eax, DWORD PTR _weapon$[ebp]
  000ac	8b 08		 mov	 ecx, DWORD PTR [eax]
  000ae	89 4d 9c	 mov	 DWORD PTR tv90[ebp], ecx
  000b1	eb 1d		 jmp	 SHORT $LN13@get_ka50_m
$LN12@get_ka50_m:
  000b3	68 fa 01 00 00	 push	 506			; 000001faH
  000b8	68 00 00 00 00	 push	 OFFSET ??_C@_0EM@CMCNDFLJ@c?3?2users?2nhv90?2projects?2eech?2ap@
  000bd	8b 15 00 00 00
	00		 mov	 edx, DWORD PTR ?null_entity_pointer_message@@3PBDB ; null_entity_pointer_message
  000c3	52		 push	 edx
  000c4	e8 00 00 00 00	 call	 ?process_assert@@YGXPBD0H@Z ; process_assert
  000c9	c7 45 9c 00 00
	00 00		 mov	 DWORD PTR tv90[ebp], 0
$LN13@get_ka50_m:
  000d0	b8 01 00 00 00	 mov	 eax, 1
  000d5	85 c0		 test	 eax, eax
  000d7	74 09		 je	 SHORT $LN14@get_ka50_m
  000d9	c7 45 98 34 00
	00 00		 mov	 DWORD PTR tv129[ebp], 52 ; 00000034H
  000e0	eb 1d		 jmp	 SHORT $LN15@get_ka50_m
$LN14@get_ka50_m:
  000e2	68 fa 01 00 00	 push	 506			; 000001faH
  000e7	68 00 00 00 00	 push	 OFFSET ??_C@_0EM@CMCNDFLJ@c?3?2users?2nhv90?2projects?2eech?2ap@
  000ec	8b 0d 00 00 00
	00		 mov	 ecx, DWORD PTR ?overload_invalid_int_type_message@@3PBDB ; overload_invalid_int_type_message
  000f2	51		 push	 ecx
  000f3	e8 00 00 00 00	 call	 ?process_assert@@YGXPBD0H@Z ; process_assert
  000f8	c7 45 98 00 00
	00 00		 mov	 DWORD PTR tv129[ebp], 0
$LN15@get_ka50_m:
  000ff	6a 34		 push	 52			; 00000034H
  00101	8b 55 f8	 mov	 edx, DWORD PTR _weapon$[ebp]
  00104	52		 push	 edx
  00105	69 45 9c 5c 04
	00 00		 imul	 eax, DWORD PTR tv90[ebp], 1116
  0010c	8b 4d 98	 mov	 ecx, DWORD PTR tv129[ebp]
  0010f	8b 94 88 00 00
	00 00		 mov	 edx, DWORD PTR ?fn_get_local_entity_int_value@@3PAY0BBH@P6GHPAUENTITY@@W4INT_TYPES@@@ZA[eax+ecx*4]
  00116	ff d2		 call	 edx
  00118	83 f8 32	 cmp	 eax, 50			; 00000032H
  0011b	0f 85 3a 02 00
	00		 jne	 $LN6@get_ka50_m

; 507  : 		{
; 508  : 			target = get_local_entity_parent (weapon, LIST_TYPE_TARGET);

  00121	83 7d f8 00	 cmp	 DWORD PTR _weapon$[ebp], 0
  00125	74 0a		 je	 SHORT $LN16@get_ka50_m
  00127	8b 45 f8	 mov	 eax, DWORD PTR _weapon$[ebp]
  0012a	8b 08		 mov	 ecx, DWORD PTR [eax]
  0012c	89 4d 9c	 mov	 DWORD PTR tv142[ebp], ecx
  0012f	eb 21		 jmp	 SHORT $LN17@get_ka50_m
$LN16@get_ka50_m:
  00131	8b 15 00 00 00
	00		 mov	 edx, DWORD PTR ?__LINE__Var@?0??get_ka50_missile_flight_time@@YGMXZ@4JA
  00137	83 c2 1d	 add	 edx, 29			; 0000001dH
  0013a	52		 push	 edx
  0013b	68 00 00 00 00	 push	 OFFSET ??_C@_0EM@CMCNDFLJ@c?3?2users?2nhv90?2projects?2eech?2ap@
  00140	a1 00 00 00 00	 mov	 eax, DWORD PTR ?null_entity_pointer_message@@3PBDB ; null_entity_pointer_message
  00145	50		 push	 eax
  00146	e8 00 00 00 00	 call	 ?process_assert@@YGXPBD0H@Z ; process_assert
  0014b	c7 45 9c 00 00
	00 00		 mov	 DWORD PTR tv142[ebp], 0
$LN17@get_ka50_m:
  00152	b9 01 00 00 00	 mov	 ecx, 1
  00157	85 c9		 test	 ecx, ecx
  00159	74 09		 je	 SHORT $LN18@get_ka50_m
  0015b	c7 45 98 26 00
	00 00		 mov	 DWORD PTR tv150[ebp], 38 ; 00000026H
  00162	eb 21		 jmp	 SHORT $LN19@get_ka50_m
$LN18@get_ka50_m:
  00164	8b 15 00 00 00
	00		 mov	 edx, DWORD PTR ?__LINE__Var@?0??get_ka50_missile_flight_time@@YGMXZ@4JA
  0016a	83 c2 1d	 add	 edx, 29			; 0000001dH
  0016d	52		 push	 edx
  0016e	68 00 00 00 00	 push	 OFFSET ??_C@_0EM@CMCNDFLJ@c?3?2users?2nhv90?2projects?2eech?2ap@
  00173	a1 00 00 00 00	 mov	 eax, DWORD PTR ?overload_invalid_list_type_message@@3PBDB ; overload_invalid_list_type_message
  00178	50		 push	 eax
  00179	e8 00 00 00 00	 call	 ?process_assert@@YGXPBD0H@Z ; process_assert
  0017e	c7 45 98 00 00
	00 00		 mov	 DWORD PTR tv150[ebp], 0
$LN19@get_ka50_m:
  00185	6a 26		 push	 38			; 00000026H
  00187	8b 4d f8	 mov	 ecx, DWORD PTR _weapon$[ebp]
  0018a	51		 push	 ecx
  0018b	69 55 9c b4 00
	00 00		 imul	 edx, DWORD PTR tv142[ebp], 180
  00192	8b 45 98	 mov	 eax, DWORD PTR tv150[ebp]
  00195	8b 8c 82 00 00
	00 00		 mov	 ecx, DWORD PTR ?fn_get_local_entity_parent@@3PAY0CN@P6GPAUENTITY@@PAU1@W4LIST_TYPES@@@ZA[edx+eax*4]
  0019c	ff d1		 call	 ecx
  0019e	89 45 f4	 mov	 DWORD PTR _target$[ebp], eax

; 509  : 
; 510  : 			if (target)

  001a1	83 7d f4 00	 cmp	 DWORD PTR _target$[ebp], 0
  001a5	0f 84 b0 01 00
	00		 je	 $LN6@get_ka50_m

; 511  : 			{
; 512  : 				weapon_position = get_local_entity_vec3d_ptr (weapon, VEC3D_TYPE_POSITION);

  001ab	83 7d f8 00	 cmp	 DWORD PTR _weapon$[ebp], 0
  001af	74 0a		 je	 SHORT $LN20@get_ka50_m
  001b1	8b 45 f8	 mov	 eax, DWORD PTR _weapon$[ebp]
  001b4	8b 08		 mov	 ecx, DWORD PTR [eax]
  001b6	89 4d 9c	 mov	 DWORD PTR tv163[ebp], ecx
  001b9	eb 21		 jmp	 SHORT $LN21@get_ka50_m
$LN20@get_ka50_m:
  001bb	8b 15 00 00 00
	00		 mov	 edx, DWORD PTR ?__LINE__Var@?0??get_ka50_missile_flight_time@@YGMXZ@4JA
  001c1	83 c2 21	 add	 edx, 33			; 00000021H
  001c4	52		 push	 edx
  001c5	68 00 00 00 00	 push	 OFFSET ??_C@_0EM@CMCNDFLJ@c?3?2users?2nhv90?2projects?2eech?2ap@
  001ca	a1 00 00 00 00	 mov	 eax, DWORD PTR ?null_entity_pointer_message@@3PBDB ; null_entity_pointer_message
  001cf	50		 push	 eax
  001d0	e8 00 00 00 00	 call	 ?process_assert@@YGXPBD0H@Z ; process_assert
  001d5	c7 45 9c 00 00
	00 00		 mov	 DWORD PTR tv163[ebp], 0
$LN21@get_ka50_m:
  001dc	b9 01 00 00 00	 mov	 ecx, 1
  001e1	85 c9		 test	 ecx, ecx
  001e3	74 09		 je	 SHORT $LN22@get_ka50_m
  001e5	c7 45 98 08 00
	00 00		 mov	 DWORD PTR tv171[ebp], 8
  001ec	eb 21		 jmp	 SHORT $LN23@get_ka50_m
$LN22@get_ka50_m:
  001ee	8b 15 00 00 00
	00		 mov	 edx, DWORD PTR ?__LINE__Var@?0??get_ka50_missile_flight_time@@YGMXZ@4JA
  001f4	83 c2 21	 add	 edx, 33			; 00000021H
  001f7	52		 push	 edx
  001f8	68 00 00 00 00	 push	 OFFSET ??_C@_0EM@CMCNDFLJ@c?3?2users?2nhv90?2projects?2eech?2ap@
  001fd	a1 00 00 00 00	 mov	 eax, DWORD PTR ?overload_invalid_vec3d_type_message@@3PBDB ; overload_invalid_vec3d_type_message
  00202	50		 push	 eax
  00203	e8 00 00 00 00	 call	 ?process_assert@@YGXPBD0H@Z ; process_assert
  00208	c7 45 98 00 00
	00 00		 mov	 DWORD PTR tv171[ebp], 0
$LN23@get_ka50_m:
  0020f	6a 08		 push	 8
  00211	8b 4d f8	 mov	 ecx, DWORD PTR _weapon$[ebp]
  00214	51		 push	 ecx
  00215	6b 55 9c 60	 imul	 edx, DWORD PTR tv163[ebp], 96
  00219	8b 45 98	 mov	 eax, DWORD PTR tv171[ebp]
  0021c	8b 8c 82 00 00
	00 00		 mov	 ecx, DWORD PTR ?fn_get_local_entity_vec3d_ptr@@3PAY0BI@P6GPAUVEC3D@@PAUENTITY@@W4VEC3D_TYPES@@@ZA[edx+eax*4]
  00223	ff d1		 call	 ecx
  00225	89 45 f0	 mov	 DWORD PTR _weapon_position$[ebp], eax

; 513  : 
; 514  : 				target_position = get_local_entity_vec3d_ptr (target, VEC3D_TYPE_POSITION);

  00228	83 7d f4 00	 cmp	 DWORD PTR _target$[ebp], 0
  0022c	74 0a		 je	 SHORT $LN24@get_ka50_m
  0022e	8b 45 f4	 mov	 eax, DWORD PTR _target$[ebp]
  00231	8b 08		 mov	 ecx, DWORD PTR [eax]
  00233	89 4d 9c	 mov	 DWORD PTR tv183[ebp], ecx
  00236	eb 21		 jmp	 SHORT $LN25@get_ka50_m
$LN24@get_ka50_m:
  00238	8b 15 00 00 00
	00		 mov	 edx, DWORD PTR ?__LINE__Var@?0??get_ka50_missile_flight_time@@YGMXZ@4JA
  0023e	83 c2 23	 add	 edx, 35			; 00000023H
  00241	52		 push	 edx
  00242	68 00 00 00 00	 push	 OFFSET ??_C@_0EM@CMCNDFLJ@c?3?2users?2nhv90?2projects?2eech?2ap@
  00247	a1 00 00 00 00	 mov	 eax, DWORD PTR ?null_entity_pointer_message@@3PBDB ; null_entity_pointer_message
  0024c	50		 push	 eax
  0024d	e8 00 00 00 00	 call	 ?process_assert@@YGXPBD0H@Z ; process_assert
  00252	c7 45 9c 00 00
	00 00		 mov	 DWORD PTR tv183[ebp], 0
$LN25@get_ka50_m:
  00259	b9 01 00 00 00	 mov	 ecx, 1
  0025e	85 c9		 test	 ecx, ecx
  00260	74 09		 je	 SHORT $LN26@get_ka50_m
  00262	c7 45 98 08 00
	00 00		 mov	 DWORD PTR tv191[ebp], 8
  00269	eb 21		 jmp	 SHORT $LN27@get_ka50_m
$LN26@get_ka50_m:
  0026b	8b 15 00 00 00
	00		 mov	 edx, DWORD PTR ?__LINE__Var@?0??get_ka50_missile_flight_time@@YGMXZ@4JA
  00271	83 c2 23	 add	 edx, 35			; 00000023H
  00274	52		 push	 edx
  00275	68 00 00 00 00	 push	 OFFSET ??_C@_0EM@CMCNDFLJ@c?3?2users?2nhv90?2projects?2eech?2ap@
  0027a	a1 00 00 00 00	 mov	 eax, DWORD PTR ?overload_invalid_vec3d_type_message@@3PBDB ; overload_invalid_vec3d_type_message
  0027f	50		 push	 eax
  00280	e8 00 00 00 00	 call	 ?process_assert@@YGXPBD0H@Z ; process_assert
  00285	c7 45 98 00 00
	00 00		 mov	 DWORD PTR tv191[ebp], 0
$LN27@get_ka50_m:
  0028c	6a 08		 push	 8
  0028e	8b 4d f4	 mov	 ecx, DWORD PTR _target$[ebp]
  00291	51		 push	 ecx
  00292	6b 55 9c 60	 imul	 edx, DWORD PTR tv183[ebp], 96
  00296	8b 45 98	 mov	 eax, DWORD PTR tv191[ebp]
  00299	8b 8c 82 00 00
	00 00		 mov	 ecx, DWORD PTR ?fn_get_local_entity_vec3d_ptr@@3PAY0BI@P6GPAUVEC3D@@PAUENTITY@@W4VEC3D_TYPES@@@ZA[edx+eax*4]
  002a0	ff d1		 call	 ecx
  002a2	89 45 ec	 mov	 DWORD PTR _target_position$[ebp], eax

; 515  : 
; 516  : 				target_range = get_3d_range (weapon_position, target_position);

  002a5	8b 45 ec	 mov	 eax, DWORD PTR _target_position$[ebp]
  002a8	50		 push	 eax
  002a9	8b 4d f0	 mov	 ecx, DWORD PTR _weapon_position$[ebp]
  002ac	51		 push	 ecx
  002ad	e8 00 00 00 00	 call	 ?get_3d_range@@YGMPBUVEC3D@@0@Z ; get_3d_range
  002b2	d9 5d e0	 fstp	 DWORD PTR _target_range$[ebp]

; 517  : 
; 518  : 				weapon_velocity = get_local_entity_float_value (weapon, FLOAT_TYPE_VELOCITY);

  002b5	83 7d f8 00	 cmp	 DWORD PTR _weapon$[ebp], 0
  002b9	74 0a		 je	 SHORT $LN28@get_ka50_m
  002bb	8b 45 f8	 mov	 eax, DWORD PTR _weapon$[ebp]
  002be	8b 08		 mov	 ecx, DWORD PTR [eax]
  002c0	89 4d 9c	 mov	 DWORD PTR tv206[ebp], ecx
  002c3	eb 21		 jmp	 SHORT $LN29@get_ka50_m
$LN28@get_ka50_m:
  002c5	8b 15 00 00 00
	00		 mov	 edx, DWORD PTR ?__LINE__Var@?0??get_ka50_missile_flight_time@@YGMXZ@4JA
  002cb	83 c2 27	 add	 edx, 39			; 00000027H
  002ce	52		 push	 edx
  002cf	68 00 00 00 00	 push	 OFFSET ??_C@_0EM@CMCNDFLJ@c?3?2users?2nhv90?2projects?2eech?2ap@
  002d4	a1 00 00 00 00	 mov	 eax, DWORD PTR ?null_entity_pointer_message@@3PBDB ; null_entity_pointer_message
  002d9	50		 push	 eax
  002da	e8 00 00 00 00	 call	 ?process_assert@@YGXPBD0H@Z ; process_assert
  002df	c7 45 9c 00 00
	00 00		 mov	 DWORD PTR tv206[ebp], 0
$LN29@get_ka50_m:
  002e6	b9 01 00 00 00	 mov	 ecx, 1
  002eb	85 c9		 test	 ecx, ecx
  002ed	74 09		 je	 SHORT $LN30@get_ka50_m
  002ef	c7 45 98 93 00
	00 00		 mov	 DWORD PTR tv214[ebp], 147 ; 00000093H
  002f6	eb 21		 jmp	 SHORT $LN31@get_ka50_m
$LN30@get_ka50_m:
  002f8	8b 15 00 00 00
	00		 mov	 edx, DWORD PTR ?__LINE__Var@?0??get_ka50_missile_flight_time@@YGMXZ@4JA
  002fe	83 c2 27	 add	 edx, 39			; 00000027H
  00301	52		 push	 edx
  00302	68 00 00 00 00	 push	 OFFSET ??_C@_0EM@CMCNDFLJ@c?3?2users?2nhv90?2projects?2eech?2ap@
  00307	a1 00 00 00 00	 mov	 eax, DWORD PTR ?overload_invalid_float_type_message@@3PBDB ; overload_invalid_float_type_message
  0030c	50		 push	 eax
  0030d	e8 00 00 00 00	 call	 ?process_assert@@YGXPBD0H@Z ; process_assert
  00312	c7 45 98 00 00
	00 00		 mov	 DWORD PTR tv214[ebp], 0
$LN31@get_ka50_m:
  00319	68 93 00 00 00	 push	 147			; 00000093H
  0031e	8b 4d f8	 mov	 ecx, DWORD PTR _weapon$[ebp]
  00321	51		 push	 ecx
  00322	69 55 9c bc 02
	00 00		 imul	 edx, DWORD PTR tv206[ebp], 700
  00329	8b 45 98	 mov	 eax, DWORD PTR tv214[ebp]
  0032c	8b 8c 82 00 00
	00 00		 mov	 ecx, DWORD PTR ?fn_get_local_entity_float_value@@3PAY0KP@P6GMPAUENTITY@@W4FLOAT_TYPES@@@ZA[edx+eax*4]
  00333	ff d1		 call	 ecx
  00335	d9 5d e4	 fstp	 DWORD PTR _weapon_velocity$[ebp]

; 519  : 
; 520  : 				if (weapon_velocity > 0.0)

  00338	f3 0f 5a 45 e4	 cvtss2sd xmm0, DWORD PTR _weapon_velocity$[ebp]
  0033d	66 0f 2f 05 00
	00 00 00	 comisd	 xmm0, QWORD PTR __real@0000000000000000
  00345	76 14		 jbe	 SHORT $LN6@get_ka50_m

; 521  : 				{
; 522  : 					flight_time = target_range / weapon_velocity;

  00347	f3 0f 10 45 e0	 movss	 xmm0, DWORD PTR _target_range$[ebp]
  0034c	f3 0f 5e 45 e4	 divss	 xmm0, DWORD PTR _weapon_velocity$[ebp]
  00351	f3 0f 11 45 e8	 movss	 DWORD PTR _flight_time$[ebp], xmm0

; 523  : 
; 524  : 					break;

  00356	e9 85 00 00 00	 jmp	 $LN3@get_ka50_m
$LN6@get_ka50_m:

; 525  : 				}
; 526  : 			}
; 527  : 		}
; 528  : 
; 529  : 		weapon = get_local_entity_child_succ (weapon, LIST_TYPE_LAUNCHED_WEAPON);

  0035b	83 7d f8 00	 cmp	 DWORD PTR _weapon$[ebp], 0
  0035f	74 0a		 je	 SHORT $LN32@get_ka50_m
  00361	8b 45 f8	 mov	 eax, DWORD PTR _weapon$[ebp]
  00364	8b 08		 mov	 ecx, DWORD PTR [eax]
  00366	89 4d 9c	 mov	 DWORD PTR tv229[ebp], ecx
  00369	eb 21		 jmp	 SHORT $LN33@get_ka50_m
$LN32@get_ka50_m:
  0036b	8b 15 00 00 00
	00		 mov	 edx, DWORD PTR ?__LINE__Var@?0??get_ka50_missile_flight_time@@YGMXZ@4JA
  00371	83 c2 32	 add	 edx, 50			; 00000032H
  00374	52		 push	 edx
  00375	68 00 00 00 00	 push	 OFFSET ??_C@_0EM@CMCNDFLJ@c?3?2users?2nhv90?2projects?2eech?2ap@
  0037a	a1 00 00 00 00	 mov	 eax, DWORD PTR ?null_entity_pointer_message@@3PBDB ; null_entity_pointer_message
  0037f	50		 push	 eax
  00380	e8 00 00 00 00	 call	 ?process_assert@@YGXPBD0H@Z ; process_assert
  00385	c7 45 9c 00 00
	00 00		 mov	 DWORD PTR tv229[ebp], 0
$LN33@get_ka50_m:
  0038c	b9 01 00 00 00	 mov	 ecx, 1
  00391	85 c9		 test	 ecx, ecx
  00393	74 09		 je	 SHORT $LN34@get_ka50_m
  00395	c7 45 98 18 00
	00 00		 mov	 DWORD PTR tv237[ebp], 24 ; 00000018H
  0039c	eb 21		 jmp	 SHORT $LN35@get_ka50_m
$LN34@get_ka50_m:
  0039e	8b 15 00 00 00
	00		 mov	 edx, DWORD PTR ?__LINE__Var@?0??get_ka50_missile_flight_time@@YGMXZ@4JA
  003a4	83 c2 32	 add	 edx, 50			; 00000032H
  003a7	52		 push	 edx
  003a8	68 00 00 00 00	 push	 OFFSET ??_C@_0EM@CMCNDFLJ@c?3?2users?2nhv90?2projects?2eech?2ap@
  003ad	a1 00 00 00 00	 mov	 eax, DWORD PTR ?overload_invalid_list_type_message@@3PBDB ; overload_invalid_list_type_message
  003b2	50		 push	 eax
  003b3	e8 00 00 00 00	 call	 ?process_assert@@YGXPBD0H@Z ; process_assert
  003b8	c7 45 98 00 00
	00 00		 mov	 DWORD PTR tv237[ebp], 0
$LN35@get_ka50_m:
  003bf	6a 18		 push	 24			; 00000018H
  003c1	8b 4d f8	 mov	 ecx, DWORD PTR _weapon$[ebp]
  003c4	51		 push	 ecx
  003c5	69 55 9c b4 00
	00 00		 imul	 edx, DWORD PTR tv229[ebp], 180
  003cc	8b 45 98	 mov	 eax, DWORD PTR tv237[ebp]
  003cf	8b 8c 82 00 00
	00 00		 mov	 ecx, DWORD PTR ?fn_get_local_entity_child_succ@@3PAY0CN@P6GPAUENTITY@@PAU1@W4LIST_TYPES@@@ZA[edx+eax*4]
  003d6	ff d1		 call	 ecx
  003d8	89 45 f8	 mov	 DWORD PTR _weapon$[ebp], eax

; 530  : 	}

  003db	e9 b9 fc ff ff	 jmp	 $LN2@get_ka50_m
$LN3@get_ka50_m:

; 531  : 
; 532  : 	return (flight_time);

  003e0	d9 45 e8	 fld	 DWORD PTR _flight_time$[ebp]

; 533  : }

  003e3	5f		 pop	 edi
  003e4	5e		 pop	 esi
  003e5	5b		 pop	 ebx
  003e6	8b e5		 mov	 esp, ebp
  003e8	5d		 pop	 ebp
  003e9	c3		 ret	 0
?get_ka50_missile_flight_time@@YGMXZ ENDP		; get_ka50_missile_flight_time
_TEXT	ENDS
; Function compile flags: /Odtp /ZI
; File c:\users\nhv90\projects\eech\aphavoc\source\gunships\avionics\ka50\hm_wpn.c
;	COMDAT ?update_ka50_weapon_systems@@YGXXZ
_TEXT	SEGMENT
tv78 = -104						; size = 4
tv197 = -100						; size = 4
tv187 = -100						; size = 4
tv86 = -100						; size = 4
tv70 = -100						; size = 4
$T1 = -96						; size = 4
$T2 = -92						; size = 4
_pre_fire_timer$3 = -24					; size = 4
_number_of_pods$4 = -20					; size = 4
_raw$5 = -16						; size = 4
_weapon_sub_type$ = -12					; size = 4
_en$ = -8						; size = 4
_inhibit_launch$ = -4					; size = 4
?update_ka50_weapon_systems@@YGXXZ PROC			; update_ka50_weapon_systems, COMDAT

; 170  : {

  00000	55		 push	 ebp
  00001	8b ec		 mov	 ebp, esp
  00003	83 ec 68	 sub	 esp, 104		; 00000068H
  00006	53		 push	 ebx
  00007	56		 push	 esi
  00008	57		 push	 edi

; 171  : 	int
; 172  : 		inhibit_launch;
; 173  : 
; 174  : 	entity
; 175  : 		*en;
; 176  : 
; 177  : 	entity_sub_types
; 178  : 		weapon_sub_type;
; 179  : 
; 180  : 	gun_is_firing = FALSE;

  00009	c7 05 00 00 00
	00 00 00 00 00	 mov	 DWORD PTR ?gun_is_firing@@3HA, 0 ; gun_is_firing

; 181  : 
; 182  : 	en = get_gunship_entity ();

  00013	a1 00 00 00 00	 mov	 eax, DWORD PTR ?gunship_entity@@3PAUENTITY@@A ; gunship_entity
  00018	89 45 f8	 mov	 DWORD PTR _en$[ebp], eax

; 183  : 
; 184  : 	weapon_sub_type = get_local_entity_int_value (en, INT_TYPE_SELECTED_WEAPON);

  0001b	83 7d f8 00	 cmp	 DWORD PTR _en$[ebp], 0
  0001f	74 0a		 je	 SHORT $LN41@update_ka5
  00021	8b 45 f8	 mov	 eax, DWORD PTR _en$[ebp]
  00024	8b 08		 mov	 ecx, DWORD PTR [eax]
  00026	89 4d 9c	 mov	 DWORD PTR tv70[ebp], ecx
  00029	eb 21		 jmp	 SHORT $LN42@update_ka5
$LN41@update_ka5:
  0002b	8b 15 00 00 00
	00		 mov	 edx, DWORD PTR ?__LINE__Var@?0??update_ka50_weapon_systems@@YGXXZ@4JA
  00031	83 c2 0e	 add	 edx, 14			; 0000000eH
  00034	52		 push	 edx
  00035	68 00 00 00 00	 push	 OFFSET ??_C@_0EM@CMCNDFLJ@c?3?2users?2nhv90?2projects?2eech?2ap@
  0003a	a1 00 00 00 00	 mov	 eax, DWORD PTR ?null_entity_pointer_message@@3PBDB ; null_entity_pointer_message
  0003f	50		 push	 eax
  00040	e8 00 00 00 00	 call	 ?process_assert@@YGXPBD0H@Z ; process_assert
  00045	c7 45 9c 00 00
	00 00		 mov	 DWORD PTR tv70[ebp], 0
$LN42@update_ka5:
  0004c	b9 01 00 00 00	 mov	 ecx, 1
  00051	85 c9		 test	 ecx, ecx
  00053	74 09		 je	 SHORT $LN43@update_ka5
  00055	c7 45 98 b8 00
	00 00		 mov	 DWORD PTR tv78[ebp], 184 ; 000000b8H
  0005c	eb 21		 jmp	 SHORT $LN44@update_ka5
$LN43@update_ka5:
  0005e	8b 15 00 00 00
	00		 mov	 edx, DWORD PTR ?__LINE__Var@?0??update_ka50_weapon_systems@@YGXXZ@4JA
  00064	83 c2 0e	 add	 edx, 14			; 0000000eH
  00067	52		 push	 edx
  00068	68 00 00 00 00	 push	 OFFSET ??_C@_0EM@CMCNDFLJ@c?3?2users?2nhv90?2projects?2eech?2ap@
  0006d	a1 00 00 00 00	 mov	 eax, DWORD PTR ?overload_invalid_int_type_message@@3PBDB ; overload_invalid_int_type_message
  00072	50		 push	 eax
  00073	e8 00 00 00 00	 call	 ?process_assert@@YGXPBD0H@Z ; process_assert
  00078	c7 45 98 00 00
	00 00		 mov	 DWORD PTR tv78[ebp], 0
$LN44@update_ka5:
  0007f	68 b8 00 00 00	 push	 184			; 000000b8H
  00084	8b 4d f8	 mov	 ecx, DWORD PTR _en$[ebp]
  00087	51		 push	 ecx
  00088	69 55 9c 5c 04
	00 00		 imul	 edx, DWORD PTR tv70[ebp], 1116
  0008f	8b 45 98	 mov	 eax, DWORD PTR tv78[ebp]
  00092	8b 8c 82 00 00
	00 00		 mov	 ecx, DWORD PTR ?fn_get_local_entity_int_value@@3PAY0BBH@P6GHPAUENTITY@@W4INT_TYPES@@@ZA[edx+eax*4]
  00099	ff d1		 call	 ecx
  0009b	89 45 f4	 mov	 DWORD PTR _weapon_sub_type$[ebp], eax

; 185  : 
; 186  : 	////////////////////////////////////////
; 187  : 	//
; 188  : 	// Igla lock tone
; 189  : 	//
; 190  : 	////////////////////////////////////////
; 191  : 
; 192  : 	if ((weapon_sub_type == ENTITY_SUB_TYPE_WEAPON_IGLA_V) && (weapon_lock_type == WEAPON_LOCK_VALID))

  0009e	83 7d f4 27	 cmp	 DWORD PTR _weapon_sub_type$[ebp], 39 ; 00000027H
  000a2	75 1b		 jne	 SHORT $LN6@update_ka5
  000a4	83 3d 00 00 00
	00 09		 cmp	 DWORD PTR ?weapon_lock_type@@3W4WEAPON_LOCK_TYPES@@A, 9 ; weapon_lock_type
  000ab	75 12		 jne	 SHORT $LN6@update_ka5

; 193  : 	{
; 194  : 		resume_local_entity_sound_type (en, ENTITY_SUB_TYPE_EFFECT_SOUND_LOCK_ON_TONE);

  000ad	6a 18		 push	 24			; 00000018H
  000af	8b 45 f8	 mov	 eax, DWORD PTR _en$[ebp]
  000b2	50		 push	 eax
  000b3	e8 00 00 00 00	 call	 ?resume_local_entity_sound_type@@YGHPAUENTITY@@H@Z ; resume_local_entity_sound_type

; 195  : 
; 196  : 		update_good_tone ();

  000b8	e8 00 00 00 00	 call	 ?update_good_tone@@YGXXZ ; update_good_tone

; 197  : 	}
; 198  : 	else

  000bd	eb 1e		 jmp	 SHORT $LN7@update_ka5
$LN6@update_ka5:

; 199  : 	{
; 200  : 		pause_local_entity_sound_type (en, ENTITY_SUB_TYPE_EFFECT_SOUND_LOCK_ON_TONE, 0.5);

  000bf	51		 push	 ecx
  000c0	f3 0f 10 05 00
	00 00 00	 movss	 xmm0, DWORD PTR __real@3f000000
  000c8	f3 0f 11 04 24	 movss	 DWORD PTR [esp], xmm0
  000cd	6a 18		 push	 24			; 00000018H
  000cf	8b 45 f8	 mov	 eax, DWORD PTR _en$[ebp]
  000d2	50		 push	 eax
  000d3	e8 00 00 00 00	 call	 ?pause_local_entity_sound_type@@YGHPAUENTITY@@HM@Z ; pause_local_entity_sound_type

; 201  : 
; 202  : 		reset_good_tone ();

  000d8	e8 00 00 00 00	 call	 ?reset_good_tone@@YGXXZ	; reset_good_tone
$LN7@update_ka5:

; 203  : 	}
; 204  : 
; 205  : 	////////////////////////////////////////
; 206  : 	//
; 207  : 	// weapon launch interlocks
; 208  : 	//
; 209  : 	////////////////////////////////////////
; 210  : 
; 211  : 	inhibit_launch = FALSE;

  000dd	c7 45 fc 00 00
	00 00		 mov	 DWORD PTR _inhibit_launch$[ebp], 0

; 212  : 
; 213  : 	switch (weapon_sub_type)

  000e4	8b 45 f4	 mov	 eax, DWORD PTR _weapon_sub_type$[ebp]
  000e7	89 45 9c	 mov	 DWORD PTR tv86[ebp], eax
  000ea	8b 4d 9c	 mov	 ecx, DWORD PTR tv86[ebp]
  000ed	83 e9 0f	 sub	 ecx, 15			; 0000000fH
  000f0	89 4d 9c	 mov	 DWORD PTR tv86[ebp], ecx
  000f3	83 7d 9c 23	 cmp	 DWORD PTR tv86[ebp], 35	; 00000023H
  000f7	0f 87 e1 00 00
	00		 ja	 $LN2@update_ka5
  000fd	8b 55 9c	 mov	 edx, DWORD PTR tv86[ebp]
  00100	0f b6 82 00 00
	00 00		 movzx	 eax, BYTE PTR $LN47@update_ka5[edx]
  00107	ff 24 85 00 00
	00 00		 jmp	 DWORD PTR $LN48@update_ka5[eax*4]
$LN8@update_ka5:

; 214  : 	{
; 215  : 		////////////////////////////////////////
; 216  : 		case ENTITY_SUB_TYPE_WEAPON_2A42_30MM_HE_ROUND:
; 217  : 		case ENTITY_SUB_TYPE_WEAPON_2A42_30MM_AP_ROUND:
; 218  : 		////////////////////////////////////////
; 219  : 		{
; 220  : 			if
; 221  : 			(
; 222  : 				//WEAPON_LOCK_NO_ACQUIRE
; 223  : 				(weapon_lock_type == WEAPON_LOCK_NO_WEAPON)

  0010e	83 3d 00 00 00
	00 01		 cmp	 DWORD PTR ?weapon_lock_type@@3W4WEAPON_LOCK_TYPES@@A, 1 ; weapon_lock_type
  00115	75 07		 jne	 SHORT $LN9@update_ka5

; 224  : 				//WEAPON_LOCK_NO_TARGET
; 225  : 				//WEAPON_LOCK_INVALID_TARGET
; 226  : 				//WEAPON_LOCK_SEEKER_LIMIT
; 227  : 				//WEAPON_LOCK_NO_LOS
; 228  : 				//WEAPON_LOCK_NO_BORESIGHT
; 229  : 				//WEAPON_LOCK_MIN_RANGE
; 230  : 				//WEAPON_LOCK_MAX_RANGE
; 231  : 				//WEAPON_LOCK_VALID
; 232  : 			)
; 233  : 			{
; 234  : 				inhibit_launch = TRUE;

  00117	c7 45 fc 01 00
	00 00		 mov	 DWORD PTR _inhibit_launch$[ebp], 1
$LN9@update_ka5:

; 235  : 			}
; 236  : 
; 237  : 			break;

  0011e	e9 bb 00 00 00	 jmp	 $LN2@update_ka5
$LN10@update_ka5:

; 238  : 		}
; 239  : 		////////////////////////////////////////
; 240  : 		case ENTITY_SUB_TYPE_WEAPON_IGLA_V:
; 241  : 		////////////////////////////////////////
; 242  : 		{
; 243  : 			if
; 244  : 			(
; 245  : 				(weapon_lock_type == WEAPON_LOCK_NO_ACQUIRE) ||
; 246  : 				(weapon_lock_type == WEAPON_LOCK_NO_WEAPON) ||
; 247  : 				(weapon_lock_type == WEAPON_LOCK_NO_TARGET) ||
; 248  : 				(weapon_lock_type == WEAPON_LOCK_INVALID_TARGET) ||
; 249  : 				(weapon_lock_type == WEAPON_LOCK_SEEKER_LIMIT) ||
; 250  : 				(weapon_lock_type == WEAPON_LOCK_NO_LOS) ||

  00123	83 3d 00 00 00
	00 00		 cmp	 DWORD PTR ?weapon_lock_type@@3W4WEAPON_LOCK_TYPES@@A, 0 ; weapon_lock_type
  0012a	74 36		 je	 SHORT $LN12@update_ka5
  0012c	83 3d 00 00 00
	00 01		 cmp	 DWORD PTR ?weapon_lock_type@@3W4WEAPON_LOCK_TYPES@@A, 1 ; weapon_lock_type
  00133	74 2d		 je	 SHORT $LN12@update_ka5
  00135	83 3d 00 00 00
	00 02		 cmp	 DWORD PTR ?weapon_lock_type@@3W4WEAPON_LOCK_TYPES@@A, 2 ; weapon_lock_type
  0013c	74 24		 je	 SHORT $LN12@update_ka5
  0013e	83 3d 00 00 00
	00 03		 cmp	 DWORD PTR ?weapon_lock_type@@3W4WEAPON_LOCK_TYPES@@A, 3 ; weapon_lock_type
  00145	74 1b		 je	 SHORT $LN12@update_ka5
  00147	83 3d 00 00 00
	00 04		 cmp	 DWORD PTR ?weapon_lock_type@@3W4WEAPON_LOCK_TYPES@@A, 4 ; weapon_lock_type
  0014e	74 12		 je	 SHORT $LN12@update_ka5
  00150	83 3d 00 00 00
	00 05		 cmp	 DWORD PTR ?weapon_lock_type@@3W4WEAPON_LOCK_TYPES@@A, 5 ; weapon_lock_type
  00157	74 09		 je	 SHORT $LN12@update_ka5
  00159	83 3d 00 00 00
	00 08		 cmp	 DWORD PTR ?weapon_lock_type@@3W4WEAPON_LOCK_TYPES@@A, 8 ; weapon_lock_type
  00160	75 07		 jne	 SHORT $LN11@update_ka5
$LN12@update_ka5:

; 251  : 				//WEAPON_LOCK_NO_BORESIGHT
; 252  : 				//WEAPON_LOCK_MIN_RANGE
; 253  : 				(weapon_lock_type == WEAPON_LOCK_MAX_RANGE)
; 254  : 				//WEAPON_LOCK_VALID
; 255  : 			)
; 256  : 			{
; 257  : 				inhibit_launch = TRUE;

  00162	c7 45 fc 01 00
	00 00		 mov	 DWORD PTR _inhibit_launch$[ebp], 1
$LN11@update_ka5:

; 258  : 			}
; 259  : 
; 260  : 			break;

  00169	eb 73		 jmp	 SHORT $LN2@update_ka5
$LN13@update_ka5:

; 261  : 		}
; 262  : 		////////////////////////////////////////
; 263  : 		case ENTITY_SUB_TYPE_WEAPON_VIKHR:
; 264  : 		////////////////////////////////////////
; 265  : 		{
; 266  : 			if
; 267  : 			(
; 268  : 				(weapon_lock_type == WEAPON_LOCK_NO_ACQUIRE) ||
; 269  : 				(weapon_lock_type == WEAPON_LOCK_NO_WEAPON) ||
; 270  : 				(weapon_lock_type == WEAPON_LOCK_NO_TARGET) ||
; 271  : 				(weapon_lock_type == WEAPON_LOCK_INVALID_TARGET) ||
; 272  : 				(weapon_lock_type == WEAPON_LOCK_SEEKER_LIMIT) ||

  0016b	83 3d 00 00 00
	00 00		 cmp	 DWORD PTR ?weapon_lock_type@@3W4WEAPON_LOCK_TYPES@@A, 0 ; weapon_lock_type
  00172	74 2d		 je	 SHORT $LN15@update_ka5
  00174	83 3d 00 00 00
	00 01		 cmp	 DWORD PTR ?weapon_lock_type@@3W4WEAPON_LOCK_TYPES@@A, 1 ; weapon_lock_type
  0017b	74 24		 je	 SHORT $LN15@update_ka5
  0017d	83 3d 00 00 00
	00 02		 cmp	 DWORD PTR ?weapon_lock_type@@3W4WEAPON_LOCK_TYPES@@A, 2 ; weapon_lock_type
  00184	74 1b		 je	 SHORT $LN15@update_ka5
  00186	83 3d 00 00 00
	00 03		 cmp	 DWORD PTR ?weapon_lock_type@@3W4WEAPON_LOCK_TYPES@@A, 3 ; weapon_lock_type
  0018d	74 12		 je	 SHORT $LN15@update_ka5
  0018f	83 3d 00 00 00
	00 04		 cmp	 DWORD PTR ?weapon_lock_type@@3W4WEAPON_LOCK_TYPES@@A, 4 ; weapon_lock_type
  00196	74 09		 je	 SHORT $LN15@update_ka5
  00198	83 3d 00 00 00
	00 08		 cmp	 DWORD PTR ?weapon_lock_type@@3W4WEAPON_LOCK_TYPES@@A, 8 ; weapon_lock_type
  0019f	75 07		 jne	 SHORT $LN14@update_ka5
$LN15@update_ka5:

; 273  : 				//WEAPON_LOCK_NO_LOS
; 274  : 				//WEAPON_LOCK_NO_BORESIGHT
; 275  : 				//WEAPON_LOCK_MIN_RANGE
; 276  : 				(weapon_lock_type == WEAPON_LOCK_MAX_RANGE)
; 277  : 				//WEAPON_LOCK_VALID
; 278  : 			)
; 279  : 			{
; 280  : 				inhibit_launch = TRUE;

  001a1	c7 45 fc 01 00
	00 00		 mov	 DWORD PTR _inhibit_launch$[ebp], 1
$LN14@update_ka5:

; 281  : 			}
; 282  : 
; 283  : 			break;

  001a8	eb 34		 jmp	 SHORT $LN2@update_ka5
$LN16@update_ka5:

; 284  : 		}
; 285  : 		////////////////////////////////////////
; 286  : 		case ENTITY_SUB_TYPE_WEAPON_S8:
; 287  : 		////////////////////////////////////////
; 288  : 		{
; 289  : 			if
; 290  : 			(
; 291  : 				//WEAPON_LOCK_NO_ACQUIRE
; 292  : 				(weapon_lock_type == WEAPON_LOCK_NO_WEAPON)

  001aa	83 3d 00 00 00
	00 01		 cmp	 DWORD PTR ?weapon_lock_type@@3W4WEAPON_LOCK_TYPES@@A, 1 ; weapon_lock_type
  001b1	75 07		 jne	 SHORT $LN17@update_ka5

; 293  : 				//WEAPON_LOCK_NO_TARGET
; 294  : 				//WEAPON_LOCK_INVALID_TARGET
; 295  : 				//WEAPON_LOCK_SEEKER_LIMIT
; 296  : 				//WEAPON_LOCK_NO_LOS
; 297  : 				//WEAPON_LOCK_NO_BORESIGHT
; 298  : 				//WEAPON_LOCK_MIN_RANGE
; 299  : 				//WEAPON_LOCK_MAX_RANGE
; 300  : 				//WEAPON_LOCK_VALID
; 301  : 			)
; 302  : 			{
; 303  : 				inhibit_launch = TRUE;

  001b3	c7 45 fc 01 00
	00 00		 mov	 DWORD PTR _inhibit_launch$[ebp], 1
$LN17@update_ka5:

; 304  : 			}
; 305  : 
; 306  : 			break;

  001ba	eb 22		 jmp	 SHORT $LN2@update_ka5
$LN18@update_ka5:

; 307  : 		}
; 308  : 		////////////////////////////////////////
; 309  : 		case ENTITY_SUB_TYPE_WEAPON_S13:
; 310  : 		////////////////////////////////////////
; 311  : 		{
; 312  : 			if
; 313  : 			(
; 314  : 				//WEAPON_LOCK_NO_ACQUIRE
; 315  : 				(weapon_lock_type == WEAPON_LOCK_NO_WEAPON)

  001bc	83 3d 00 00 00
	00 01		 cmp	 DWORD PTR ?weapon_lock_type@@3W4WEAPON_LOCK_TYPES@@A, 1 ; weapon_lock_type
  001c3	75 07		 jne	 SHORT $LN19@update_ka5

; 316  : 				//WEAPON_LOCK_NO_TARGET
; 317  : 				//WEAPON_LOCK_INVALID_TARGET
; 318  : 				//WEAPON_LOCK_SEEKER_LIMIT
; 319  : 				//WEAPON_LOCK_NO_LOS
; 320  : 				//WEAPON_LOCK_NO_BORESIGHT
; 321  : 				//WEAPON_LOCK_MIN_RANGE
; 322  : 				//WEAPON_LOCK_MAX_RANGE
; 323  : 				//WEAPON_LOCK_VALID
; 324  : 			)
; 325  : 			{
; 326  : 				inhibit_launch = TRUE;

  001c5	c7 45 fc 01 00
	00 00		 mov	 DWORD PTR _inhibit_launch$[ebp], 1
$LN19@update_ka5:

; 327  : 			}
; 328  : 
; 329  : 			break;

  001cc	eb 10		 jmp	 SHORT $LN2@update_ka5
$LN20@update_ka5:

; 330  : 		}
; 331  : 		////////////////////////////////////////
; 332  : 		case ENTITY_SUB_TYPE_WEAPON_GSH23L_23MM_ROUND:
; 333  : 		////////////////////////////////////////
; 334  : 		{
; 335  : 			if
; 336  : 			(
; 337  : 				//WEAPON_LOCK_NO_ACQUIRE
; 338  : 				(weapon_lock_type == WEAPON_LOCK_NO_WEAPON)

  001ce	83 3d 00 00 00
	00 01		 cmp	 DWORD PTR ?weapon_lock_type@@3W4WEAPON_LOCK_TYPES@@A, 1 ; weapon_lock_type
  001d5	75 07		 jne	 SHORT $LN21@update_ka5

; 339  : 				//WEAPON_LOCK_NO_TARGET
; 340  : 				//WEAPON_LOCK_INVALID_TARGET
; 341  : 				//WEAPON_LOCK_SEEKER_LIMIT
; 342  : 				//WEAPON_LOCK_NO_LOS
; 343  : 				//WEAPON_LOCK_NO_BORESIGHT
; 344  : 				//WEAPON_LOCK_MIN_RANGE
; 345  : 				//WEAPON_LOCK_MAX_RANGE
; 346  : 				//WEAPON_LOCK_VALID
; 347  : 			)
; 348  : 			{
; 349  : 				inhibit_launch = TRUE;

  001d7	c7 45 fc 01 00
	00 00		 mov	 DWORD PTR _inhibit_launch$[ebp], 1
$LN21@update_ka5:
$LN2@update_ka5:

; 350  : 			}
; 351  : 
; 352  : 			break;
; 353  : 		}
; 354  : 	}
; 355  : 
; 356  : 	if (inhibit_launch)

  001de	83 7d fc 00	 cmp	 DWORD PTR _inhibit_launch$[ebp], 0
  001e2	74 2d		 je	 SHORT $LN22@update_ka5

; 357  : 	{
; 358  : 		if (fire_single_weapon)

  001e4	83 3d 00 00 00
	00 00		 cmp	 DWORD PTR ?fire_single_weapon@@3HA, 0 ; fire_single_weapon
  001eb	74 0b		 je	 SHORT $LN23@update_ka5

; 359  : 		{
; 360  : 			play_common_cpg_failed_launch_speech (weapon_lock_type);

  001ed	a1 00 00 00 00	 mov	 eax, DWORD PTR ?weapon_lock_type@@3W4WEAPON_LOCK_TYPES@@A ; weapon_lock_type
  001f2	50		 push	 eax
  001f3	e8 00 00 00 00	 call	 ?play_common_cpg_failed_launch_speech@@YGXW4WEAPON_LOCK_TYPES@@@Z ; play_common_cpg_failed_launch_speech
$LN23@update_ka5:

; 361  : 		}
; 362  : 
; 363  : 		rocket_salvo_count = 0;

  001f8	c7 05 00 00 00
	00 00 00 00 00	 mov	 DWORD PTR ?rocket_salvo_count@@3HA, 0 ; rocket_salvo_count

; 364  : 
; 365  : 		fire_single_weapon = 0;

  00202	c7 05 00 00 00
	00 00 00 00 00	 mov	 DWORD PTR ?fire_single_weapon@@3HA, 0 ; fire_single_weapon

; 366  : 
; 367  : 		return;

  0020c	e9 2d 02 00 00	 jmp	 $LN1@update_ka5
$LN22@update_ka5:

; 368  : 	}
; 369  : 
; 370  : 	//
; 371  : 	// ensure that there is a selected weapon
; 372  : 	//
; 373  : 
; 374  : 	if (weapon_sub_type == ENTITY_SUB_TYPE_WEAPON_NO_WEAPON)

  00211	83 7d f4 00	 cmp	 DWORD PTR _weapon_sub_type$[ebp], 0
  00215	75 5b		 jne	 SHORT $LN24@update_ka5

; 375  : 	{
; 376  : 		if (fire_single_weapon)

  00217	83 3d 00 00 00
	00 00		 cmp	 DWORD PTR ?fire_single_weapon@@3HA, 0 ; fire_single_weapon
  0021e	74 39		 je	 SHORT $LN25@update_ka5

; 377  : 		{
; 378  : 			play_client_server_cpg_message (get_gunship_entity (), 0.5, 1.0, SPEECH_CATEGORY_CPG_SYSTEMS, 1.0, SPEECH_CPG_NO_WEAPON);

  00220	6a 50		 push	 80			; 00000050H
  00222	51		 push	 ecx
  00223	f3 0f 10 05 00
	00 00 00	 movss	 xmm0, DWORD PTR __real@3f800000
  0022b	f3 0f 11 04 24	 movss	 DWORD PTR [esp], xmm0
  00230	6a 04		 push	 4
  00232	51		 push	 ecx
  00233	f3 0f 10 05 00
	00 00 00	 movss	 xmm0, DWORD PTR __real@3f800000
  0023b	f3 0f 11 04 24	 movss	 DWORD PTR [esp], xmm0
  00240	51		 push	 ecx
  00241	f3 0f 10 05 00
	00 00 00	 movss	 xmm0, DWORD PTR __real@3f000000
  00249	f3 0f 11 04 24	 movss	 DWORD PTR [esp], xmm0
  0024e	a1 00 00 00 00	 mov	 eax, DWORD PTR ?gunship_entity@@3PAUENTITY@@A ; gunship_entity
  00253	50		 push	 eax
  00254	e8 00 00 00 00	 call	 ?play_client_server_cpg_message@@YGHPAUENTITY@@MMHMH@Z ; play_client_server_cpg_message
$LN25@update_ka5:

; 379  : 		}
; 380  : 
; 381  : 		rocket_salvo_count = 0;

  00259	c7 05 00 00 00
	00 00 00 00 00	 mov	 DWORD PTR ?rocket_salvo_count@@3HA, 0 ; rocket_salvo_count

; 382  : 
; 383  : 		fire_single_weapon = 0;

  00263	c7 05 00 00 00
	00 00 00 00 00	 mov	 DWORD PTR ?fire_single_weapon@@3HA, 0 ; fire_single_weapon

; 384  : 
; 385  : 		return;

  0026d	e9 cc 01 00 00	 jmp	 $LN1@update_ka5
$LN24@update_ka5:

; 386  : 	}
; 387  : 
; 388  : 	////////////////////////////////////////
; 389  : 	//
; 390  : 	// rocket salvo
; 391  : 	//
; 392  : 	////////////////////////////////////////
; 393  : 
; 394  : 	if ((weapon_sub_type == ENTITY_SUB_TYPE_WEAPON_S8) || (weapon_sub_type == ENTITY_SUB_TYPE_WEAPON_S13))

  00272	83 7d f4 22	 cmp	 DWORD PTR _weapon_sub_type$[ebp], 34 ; 00000022H
  00276	74 06		 je	 SHORT $LN28@update_ka5
  00278	83 7d f4 23	 cmp	 DWORD PTR _weapon_sub_type$[ebp], 35 ; 00000023H
  0027c	75 6e		 jne	 SHORT $LN26@update_ka5
$LN28@update_ka5:

; 395  : 	{
; 396  : 		if (fire_single_weapon)

  0027e	83 3d 00 00 00
	00 00		 cmp	 DWORD PTR ?fire_single_weapon@@3HA, 0 ; fire_single_weapon
  00285	74 10		 je	 SHORT $LN29@update_ka5

; 397  : 		{
; 398  : 			rocket_salvo_count += rocket_salvo_size;

  00287	a1 00 00 00 00	 mov	 eax, DWORD PTR ?rocket_salvo_count@@3HA ; rocket_salvo_count
  0028c	03 05 00 00 00
	00		 add	 eax, DWORD PTR ?rocket_salvo_size@@3HA ; rocket_salvo_size
  00292	a3 00 00 00 00	 mov	 DWORD PTR ?rocket_salvo_count@@3HA, eax ; rocket_salvo_count
$LN29@update_ka5:

; 399  : 		}
; 400  : 
; 401  : 		if (rocket_salvo_count)

  00297	83 3d 00 00 00
	00 00		 cmp	 DWORD PTR ?rocket_salvo_count@@3HA, 0 ; rocket_salvo_count
  0029e	74 4a		 je	 SHORT $LN30@update_ka5

; 402  : 		{
; 403  : 			fire_single_weapon = min (rocket_salvo_count, 2);

  002a0	c7 45 a4 02 00
	00 00		 mov	 DWORD PTR $T2[ebp], 2
  002a7	8d 45 a4	 lea	 eax, DWORD PTR $T2[ebp]
  002aa	50		 push	 eax
  002ab	68 00 00 00 00	 push	 OFFSET ?rocket_salvo_count@@3HA ; rocket_salvo_count
  002b0	e8 00 00 00 00	 call	 ??$min@H@std@@YGABHABH0@Z ; std::min<int>
  002b5	8b 08		 mov	 ecx, DWORD PTR [eax]
  002b7	89 0d 00 00 00
	00		 mov	 DWORD PTR ?fire_single_weapon@@3HA, ecx ; fire_single_weapon

; 404  : 
; 405  : 			rocket_salvo_count -= fire_single_weapon;

  002bd	a1 00 00 00 00	 mov	 eax, DWORD PTR ?rocket_salvo_count@@3HA ; rocket_salvo_count
  002c2	2b 05 00 00 00
	00		 sub	 eax, DWORD PTR ?fire_single_weapon@@3HA ; fire_single_weapon
  002c8	a3 00 00 00 00	 mov	 DWORD PTR ?rocket_salvo_count@@3HA, eax ; rocket_salvo_count

; 406  : 
; 407  : 			rocket_salvo_count = max (rocket_salvo_count, 0);

  002cd	c7 45 a0 00 00
	00 00		 mov	 DWORD PTR $T1[ebp], 0
  002d4	8d 45 a0	 lea	 eax, DWORD PTR $T1[ebp]
  002d7	50		 push	 eax
  002d8	68 00 00 00 00	 push	 OFFSET ?rocket_salvo_count@@3HA ; rocket_salvo_count
  002dd	e8 00 00 00 00	 call	 ??$max@H@std@@YGABHABH0@Z ; std::max<int>
  002e2	8b 08		 mov	 ecx, DWORD PTR [eax]
  002e4	89 0d 00 00 00
	00		 mov	 DWORD PTR ?rocket_salvo_count@@3HA, ecx ; rocket_salvo_count
$LN30@update_ka5:

; 408  : 		}
; 409  : 	}
; 410  : 	else

  002ea	eb 0a		 jmp	 SHORT $LN27@update_ka5
$LN26@update_ka5:

; 411  : 	{
; 412  : 		rocket_salvo_count = 0;

  002ec	c7 05 00 00 00
	00 00 00 00 00	 mov	 DWORD PTR ?rocket_salvo_count@@3HA, 0 ; rocket_salvo_count
$LN27@update_ka5:

; 413  : 	}
; 414  : 
; 415  : 	////////////////////////////////////////
; 416  : 	//
; 417  : 	// launch weapon(s)
; 418  : 	//
; 419  : 	////////////////////////////////////////
; 420  : 
; 421  : 	if (fire_continuous_weapon || fire_single_weapon)

  002f6	83 3d 00 00 00
	00 00		 cmp	 DWORD PTR ?fire_continuous_weapon@@3HA, 0 ; fire_continuous_weapon
  002fd	75 0d		 jne	 SHORT $LN33@update_ka5
  002ff	83 3d 00 00 00
	00 00		 cmp	 DWORD PTR ?fire_single_weapon@@3HA, 0 ; fire_single_weapon
  00306	0f 84 18 01 00
	00		 je	 $LN31@update_ka5
$LN33@update_ka5:

; 422  : 	{
; 423  : 		if (weapon_database[weapon_sub_type].rate_of_fire == FIRE_SINGLE_WEAPON)

  0030c	69 45 f4 e0 00
	00 00		 imul	 eax, DWORD PTR _weapon_sub_type$[ebp], 224
  00313	f3 0f 5a 80 c8
	00 00 00	 cvtss2sd xmm0, DWORD PTR ?weapon_database@@3PAUWEAPON_DATA@@A[eax+200]
  0031b	66 0f 2e 05 00
	00 00 00	 ucomisd xmm0, QWORD PTR __real@0000000000000000
  00323	9f		 lahf
  00324	f6 c4 44	 test	 ah, 68			; 00000044H
  00327	7a 4b		 jp	 SHORT $LN34@update_ka5

; 424  : 		{
; 425  : 			//
; 426  : 			// fire a maximum of two weapons per frame (one off of each stub wing)
; 427  : 			//
; 428  : 
; 429  : 			if (fire_single_weapon >= 2)

  00329	83 3d 00 00 00
	00 02		 cmp	 DWORD PTR ?fire_single_weapon@@3HA, 2 ; fire_single_weapon
  00330	7c 1a		 jl	 SHORT $LN36@update_ka5

; 430  : 			{
; 431  : 				apply_weapon_recoil_effect (en, weapon_sub_type);

  00332	8b 45 f4	 mov	 eax, DWORD PTR _weapon_sub_type$[ebp]
  00335	50		 push	 eax
  00336	8b 4d f8	 mov	 ecx, DWORD PTR _en$[ebp]
  00339	51		 push	 ecx
  0033a	e8 00 00 00 00	 call	 ?apply_weapon_recoil_effect@@YGXPAUENTITY@@H@Z ; apply_weapon_recoil_effect

; 432  : 
; 433  : 				launch_client_server_weapon (en, weapon_sub_type);

  0033f	8b 45 f4	 mov	 eax, DWORD PTR _weapon_sub_type$[ebp]
  00342	50		 push	 eax
  00343	8b 4d f8	 mov	 ecx, DWORD PTR _en$[ebp]
  00346	51		 push	 ecx
  00347	e8 00 00 00 00	 call	 ?launch_client_server_weapon@@YGXPAUENTITY@@H@Z ; launch_client_server_weapon
$LN36@update_ka5:

; 434  : 			}
; 435  : 
; 436  : 			if (fire_single_weapon >= 1)

  0034c	83 3d 00 00 00
	00 01		 cmp	 DWORD PTR ?fire_single_weapon@@3HA, 1 ; fire_single_weapon
  00353	7c 1a		 jl	 SHORT $LN37@update_ka5

; 437  : 			{
; 438  : 				apply_weapon_recoil_effect (en, weapon_sub_type);

  00355	8b 45 f4	 mov	 eax, DWORD PTR _weapon_sub_type$[ebp]
  00358	50		 push	 eax
  00359	8b 4d f8	 mov	 ecx, DWORD PTR _en$[ebp]
  0035c	51		 push	 ecx
  0035d	e8 00 00 00 00	 call	 ?apply_weapon_recoil_effect@@YGXPAUENTITY@@H@Z ; apply_weapon_recoil_effect

; 439  : 
; 440  : 				launch_client_server_weapon (en, weapon_sub_type);

  00362	8b 45 f4	 mov	 eax, DWORD PTR _weapon_sub_type$[ebp]
  00365	50		 push	 eax
  00366	8b 4d f8	 mov	 ecx, DWORD PTR _en$[ebp]
  00369	51		 push	 ecx
  0036a	e8 00 00 00 00	 call	 ?launch_client_server_weapon@@YGXPAUENTITY@@H@Z ; launch_client_server_weapon
$LN37@update_ka5:

; 441  : 			}
; 442  : 		}
; 443  : 		else

  0036f	e9 ae 00 00 00	 jmp	 $LN39@update_ka5
$LN34@update_ka5:

; 444  : 		{
; 445  : 			gun_is_firing = get_local_entity_weapon_count (en, weapon_sub_type) > 0;

  00374	8b 45 f4	 mov	 eax, DWORD PTR _weapon_sub_type$[ebp]
  00377	50		 push	 eax
  00378	8b 4d f8	 mov	 ecx, DWORD PTR _en$[ebp]
  0037b	51		 push	 ecx
  0037c	e8 00 00 00 00	 call	 ?get_local_entity_weapon_count@@YGHPAUENTITY@@H@Z ; get_local_entity_weapon_count
  00381	85 c0		 test	 eax, eax
  00383	7e 09		 jle	 SHORT $LN45@update_ka5
  00385	c7 45 9c 01 00
	00 00		 mov	 DWORD PTR tv187[ebp], 1
  0038c	eb 07		 jmp	 SHORT $LN46@update_ka5
$LN45@update_ka5:
  0038e	c7 45 9c 00 00
	00 00		 mov	 DWORD PTR tv187[ebp], 0
$LN46@update_ka5:
  00395	8b 55 9c	 mov	 edx, DWORD PTR tv187[ebp]
  00398	89 15 00 00 00
	00		 mov	 DWORD PTR ?gun_is_firing@@3HA, edx ; gun_is_firing

; 446  : 
; 447  : 			if (weapon_sub_type == ENTITY_SUB_TYPE_WEAPON_GSH23L_23MM_ROUND)

  0039e	83 7d f4 0f	 cmp	 DWORD PTR _weapon_sub_type$[ebp], 15 ; 0000000fH
  003a2	75 64		 jne	 SHORT $LN38@update_ka5

; 448  : 			{
; 449  : 				helicopter* raw = (helicopter *) get_local_entity_data(en);

  003a4	8b 45 f8	 mov	 eax, DWORD PTR _en$[ebp]
  003a7	8b 48 04	 mov	 ecx, DWORD PTR [eax+4]
  003aa	89 4d f0	 mov	 DWORD PTR _raw$5[ebp], ecx

; 450  : 				unsigned number_of_pods = get_number_of_pods_firing(en, weapon_sub_type);

  003ad	8b 45 f4	 mov	 eax, DWORD PTR _weapon_sub_type$[ebp]
  003b0	50		 push	 eax
  003b1	8b 4d f8	 mov	 ecx, DWORD PTR _en$[ebp]
  003b4	51		 push	 ecx
  003b5	e8 00 00 00 00	 call	 ?get_number_of_pods_firing@@YGIPAUENTITY@@H@Z ; get_number_of_pods_firing
  003ba	89 45 ec	 mov	 DWORD PTR _number_of_pods$4[ebp], eax

; 451  : 				unsigned pre_fire_timer = raw->ac.weapon_salvo_timer;

  003bd	8b 45 f0	 mov	 eax, DWORD PTR _raw$5[ebp]
  003c0	8b 88 30 01 00
	00		 mov	 ecx, DWORD PTR [eax+304]
  003c6	89 4d e8	 mov	 DWORD PTR _pre_fire_timer$3[ebp], ecx
$LN4@update_ka5:

; 452  : 
; 453  : 				while (number_of_pods--)

  003c9	8b 45 ec	 mov	 eax, DWORD PTR _number_of_pods$4[ebp]
  003cc	89 45 9c	 mov	 DWORD PTR tv197[ebp], eax
  003cf	8b 4d ec	 mov	 ecx, DWORD PTR _number_of_pods$4[ebp]
  003d2	83 e9 01	 sub	 ecx, 1
  003d5	89 4d ec	 mov	 DWORD PTR _number_of_pods$4[ebp], ecx
  003d8	83 7d 9c 00	 cmp	 DWORD PTR tv197[ebp], 0
  003dc	74 28		 je	 SHORT $LN5@update_ka5

; 454  : 				{
; 455  : 					raw->ac.weapon_salvo_timer = pre_fire_timer;  // should only set once per frame, not once per gun, so revert before each gun */

  003de	8b 45 f0	 mov	 eax, DWORD PTR _raw$5[ebp]
  003e1	8b 4d e8	 mov	 ecx, DWORD PTR _pre_fire_timer$3[ebp]
  003e4	89 88 30 01 00
	00		 mov	 DWORD PTR [eax+304], ecx

; 456  : 					apply_weapon_recoil_effect (en, weapon_sub_type);

  003ea	8b 45 f4	 mov	 eax, DWORD PTR _weapon_sub_type$[ebp]
  003ed	50		 push	 eax
  003ee	8b 4d f8	 mov	 ecx, DWORD PTR _en$[ebp]
  003f1	51		 push	 ecx
  003f2	e8 00 00 00 00	 call	 ?apply_weapon_recoil_effect@@YGXPAUENTITY@@H@Z ; apply_weapon_recoil_effect

; 457  : 					launch_client_server_weapon (en, weapon_sub_type);

  003f7	8b 45 f4	 mov	 eax, DWORD PTR _weapon_sub_type$[ebp]
  003fa	50		 push	 eax
  003fb	8b 4d f8	 mov	 ecx, DWORD PTR _en$[ebp]
  003fe	51		 push	 ecx
  003ff	e8 00 00 00 00	 call	 ?launch_client_server_weapon@@YGXPAUENTITY@@H@Z ; launch_client_server_weapon

; 458  : 				}

  00404	eb c3		 jmp	 SHORT $LN4@update_ka5
$LN5@update_ka5:

; 459  : 			}
; 460  : 			else

  00406	eb 1a		 jmp	 SHORT $LN39@update_ka5
$LN38@update_ka5:

; 461  : 			{
; 462  : 				apply_weapon_recoil_effect (en, weapon_sub_type);

  00408	8b 45 f4	 mov	 eax, DWORD PTR _weapon_sub_type$[ebp]
  0040b	50		 push	 eax
  0040c	8b 4d f8	 mov	 ecx, DWORD PTR _en$[ebp]
  0040f	51		 push	 ecx
  00410	e8 00 00 00 00	 call	 ?apply_weapon_recoil_effect@@YGXPAUENTITY@@H@Z ; apply_weapon_recoil_effect

; 463  : 
; 464  : 				launch_client_server_weapon (en, weapon_sub_type);

  00415	8b 45 f4	 mov	 eax, DWORD PTR _weapon_sub_type$[ebp]
  00418	50		 push	 eax
  00419	8b 4d f8	 mov	 ecx, DWORD PTR _en$[ebp]
  0041c	51		 push	 ecx
  0041d	e8 00 00 00 00	 call	 ?launch_client_server_weapon@@YGXPAUENTITY@@H@Z ; launch_client_server_weapon
$LN39@update_ka5:

; 465  : 			}
; 466  : 		}
; 467  : 	}
; 468  : 	else

  00422	eb 10		 jmp	 SHORT $LN32@update_ka5
$LN31@update_ka5:

; 469  : 		((helicopter*)get_local_entity_data(en))->ac.weapon_salvo_timer = 0.0;

  00424	8b 45 f8	 mov	 eax, DWORD PTR _en$[ebp]
  00427	8b 48 04	 mov	 ecx, DWORD PTR [eax+4]
  0042a	c7 81 30 01 00
	00 00 00 00 00	 mov	 DWORD PTR [ecx+304], 0
$LN32@update_ka5:

; 470  : 
; 471  : 	fire_single_weapon = 0;

  00434	c7 05 00 00 00
	00 00 00 00 00	 mov	 DWORD PTR ?fire_single_weapon@@3HA, 0 ; fire_single_weapon
$LN1@update_ka5:

; 472  : }

  0043e	5f		 pop	 edi
  0043f	5e		 pop	 esi
  00440	5b		 pop	 ebx
  00441	8b e5		 mov	 esp, ebp
  00443	5d		 pop	 ebp
  00444	c3		 ret	 0
  00445	0f 1f 00	 npad	 3
$LN48@update_ka5:
  00448	00 00 00 00	 DD	 $LN20@update_ka5
  0044c	00 00 00 00	 DD	 $LN8@update_ka5
  00450	00 00 00 00	 DD	 $LN16@update_ka5
  00454	00 00 00 00	 DD	 $LN18@update_ka5
  00458	00 00 00 00	 DD	 $LN10@update_ka5
  0045c	00 00 00 00	 DD	 $LN13@update_ka5
  00460	00 00 00 00	 DD	 $LN2@update_ka5
$LN47@update_ka5:
  00464	00		 DB	 0
  00465	06		 DB	 6
  00466	06		 DB	 6
  00467	06		 DB	 6
  00468	01		 DB	 1
  00469	01		 DB	 1
  0046a	06		 DB	 6
  0046b	06		 DB	 6
  0046c	06		 DB	 6
  0046d	06		 DB	 6
  0046e	06		 DB	 6
  0046f	06		 DB	 6
  00470	06		 DB	 6
  00471	06		 DB	 6
  00472	06		 DB	 6
  00473	06		 DB	 6
  00474	06		 DB	 6
  00475	06		 DB	 6
  00476	06		 DB	 6
  00477	02		 DB	 2
  00478	03		 DB	 3
  00479	06		 DB	 6
  0047a	06		 DB	 6
  0047b	06		 DB	 6
  0047c	04		 DB	 4
  0047d	06		 DB	 6
  0047e	06		 DB	 6
  0047f	06		 DB	 6
  00480	06		 DB	 6
  00481	06		 DB	 6
  00482	06		 DB	 6
  00483	06		 DB	 6
  00484	06		 DB	 6
  00485	06		 DB	 6
  00486	06		 DB	 6
  00487	05		 DB	 5
?update_ka50_weapon_systems@@YGXXZ ENDP			; update_ka50_weapon_systems
_TEXT	ENDS
END
